; Listing generated by Microsoft (R) Optimizing Compiler Version 19.50.35727.0 

	TITLE	E:\Proyectos\JuegosOnlineproyectos\PB\pbblow\Piercing Blow Remake\i3Server\Project\I3_DX\i3Server\x86\Release\i3CommonType.obj
	.686P
	.XMM
	include listing.inc
	.model	flat

INCLUDELIB LIBCMT
INCLUDELIB OLDNAMES

PUBLIC	___@@_PchSym_@00@UkilbvxglhUqfvtlhlmormvkilbvxglhUkyUkyyoldUkrvixrmtLyoldLivnzpvUrDhvieviUkilqvxgUrDPwcUrDhvieviUcIGUivovzhvUrDxlnnlmgbkvOlyq@4B2008FD98C1DD4
;	COMDAT ___@@_PchSym_@00@UkilbvxglhUqfvtlhlmormvkilbvxglhUkyUkyyoldUkrvixrmtLyoldLivnzpvUrDhvieviUkilqvxgUrDPwcUrDhvieviUcIGUivovzhvUrDxlnnlmgbkvOlyq@4B2008FD98C1DD4
_BSS	SEGMENT
___@@_PchSym_@00@UkilbvxglhUqfvtlhlmormvkilbvxglhUkyUkyyoldUkrvixrmtLyoldLivnzpvUrDhvieviUkilqvxgUrDPwcUrDhvieviUcIGUivovzhvUrDxlnnlmgbkvOlyq@4B2008FD98C1DD4 DD 01H DUP (?)
_BSS	ENDS
PUBLIC	??0UINT128@@QAE@XZ				; UINT128::UINT128
PUBLIC	??0UINT128@@QAE@IIII@Z				; UINT128::UINT128
PUBLIC	??0UINT128@@QAE@_K0@Z				; UINT128::UINT128
PUBLIC	??4UINT128@@QAEAAV0@ABV0@@Z			; UINT128::operator=
PUBLIC	??4UINT128@@QAEAAV0@AB_K@Z			; UINT128::operator=
PUBLIC	??4UINT128@@QAEAAV0@AB_J@Z			; UINT128::operator=
PUBLIC	??4UINT128@@QAEAAV0@ABI@Z			; UINT128::operator=
PUBLIC	??4UINT128@@QAEAAV0@ABH@Z			; UINT128::operator=
PUBLIC	??AUINT128@@QBE?B_KH@Z				; UINT128::operator[]
; Function compile flags: /Ogtp
; File E:\Proyectos\JuegosOnlineproyectos\PB\pbblow\Piercing Blow Remake\i3Server\include\i3Base\UINT128.h
;	COMDAT ??AUINT128@@QBE?B_KH@Z
_TEXT	SEGMENT
_index$ = 8						; size = 4
??AUINT128@@QBE?B_KH@Z PROC				; UINT128::operator[], COMDAT
; _this$ = ecx

; 69   : 	{

  00000	55		 push	 ebp
  00001	8b ec		 mov	 ebp, esp

; 70   : 		return v[index];

  00003	8b 55 08	 mov	 edx, DWORD PTR _index$[ebp]
  00006	8b 04 d1	 mov	 eax, DWORD PTR [ecx+edx*8]
  00009	8b 54 d1 04	 mov	 edx, DWORD PTR [ecx+edx*8+4]

; 71   : 	}

  0000d	5d		 pop	 ebp
  0000e	c2 04 00	 ret	 4
??AUINT128@@QBE?B_KH@Z ENDP				; UINT128::operator[]
_TEXT	ENDS
; Function compile flags: /Ogtp
; File E:\Proyectos\JuegosOnlineproyectos\PB\pbblow\Piercing Blow Remake\i3Server\include\i3Base\UINT128.h
;	COMDAT ??4UINT128@@QAEAAV0@ABH@Z
_TEXT	SEGMENT
_value$ = 8						; size = 4
??4UINT128@@QAEAAV0@ABH@Z PROC				; UINT128::operator=, COMDAT
; _this$ = ecx

; 61   : 	{

  00000	55		 push	 ebp
  00001	8b ec		 mov	 ebp, esp

; 62   : 		v[0] = (UINT64) value;

  00003	8b 45 08	 mov	 eax, DWORD PTR _value$[ebp]
  00006	8b 00		 mov	 eax, DWORD PTR [eax]
  00008	99		 cdq
  00009	89 01		 mov	 DWORD PTR [ecx], eax

; 63   : 		v[1] = 0;
; 64   : 
; 65   : 		return *this;

  0000b	8b c1		 mov	 eax, ecx
  0000d	89 51 04	 mov	 DWORD PTR [ecx+4], edx
  00010	c7 41 08 00 00
	00 00		 mov	 DWORD PTR [ecx+8], 0
  00017	c7 41 0c 00 00
	00 00		 mov	 DWORD PTR [ecx+12], 0

; 66   : 	}

  0001e	5d		 pop	 ebp
  0001f	c2 04 00	 ret	 4
??4UINT128@@QAEAAV0@ABH@Z ENDP				; UINT128::operator=
_TEXT	ENDS
; Function compile flags: /Ogtp
; File E:\Proyectos\JuegosOnlineproyectos\PB\pbblow\Piercing Blow Remake\i3Server\include\i3Base\UINT128.h
;	COMDAT ??4UINT128@@QAEAAV0@ABI@Z
_TEXT	SEGMENT
_value$ = 8						; size = 4
??4UINT128@@QAEAAV0@ABI@Z PROC				; UINT128::operator=, COMDAT
; _this$ = ecx

; 53   : 	{

  00000	55		 push	 ebp
  00001	8b ec		 mov	 ebp, esp

; 54   : 		v[0] = value;

  00003	8b 45 08	 mov	 eax, DWORD PTR _value$[ebp]
  00006	8b 00		 mov	 eax, DWORD PTR [eax]
  00008	89 01		 mov	 DWORD PTR [ecx], eax

; 55   : 		v[1] = 0;
; 56   : 
; 57   : 		return *this;

  0000a	8b c1		 mov	 eax, ecx
  0000c	c7 41 04 00 00
	00 00		 mov	 DWORD PTR [ecx+4], 0
  00013	c7 41 08 00 00
	00 00		 mov	 DWORD PTR [ecx+8], 0
  0001a	c7 41 0c 00 00
	00 00		 mov	 DWORD PTR [ecx+12], 0

; 58   : 	}

  00021	5d		 pop	 ebp
  00022	c2 04 00	 ret	 4
??4UINT128@@QAEAAV0@ABI@Z ENDP				; UINT128::operator=
_TEXT	ENDS
; Function compile flags: /Ogtp
; File E:\Proyectos\JuegosOnlineproyectos\PB\pbblow\Piercing Blow Remake\i3Server\include\i3Base\UINT128.h
;	COMDAT ??4UINT128@@QAEAAV0@AB_J@Z
_TEXT	SEGMENT
_value$ = 8						; size = 4
??4UINT128@@QAEAAV0@AB_J@Z PROC				; UINT128::operator=, COMDAT
; _this$ = ecx

; 45   : 	{

  00000	55		 push	 ebp
  00001	8b ec		 mov	 ebp, esp

; 46   : 		v[0] = (UINT64) value;

  00003	8b 45 08	 mov	 eax, DWORD PTR _value$[ebp]
  00006	8b 10		 mov	 edx, DWORD PTR [eax]
  00008	8b 40 04	 mov	 eax, DWORD PTR [eax+4]
  0000b	89 41 04	 mov	 DWORD PTR [ecx+4], eax

; 47   : 		v[1] = 0;
; 48   : 
; 49   : 		return *this;

  0000e	8b c1		 mov	 eax, ecx
  00010	89 11		 mov	 DWORD PTR [ecx], edx
  00012	c7 41 08 00 00
	00 00		 mov	 DWORD PTR [ecx+8], 0
  00019	c7 41 0c 00 00
	00 00		 mov	 DWORD PTR [ecx+12], 0

; 50   : 	}

  00020	5d		 pop	 ebp
  00021	c2 04 00	 ret	 4
??4UINT128@@QAEAAV0@AB_J@Z ENDP				; UINT128::operator=
_TEXT	ENDS
; Function compile flags: /Ogtp
; File E:\Proyectos\JuegosOnlineproyectos\PB\pbblow\Piercing Blow Remake\i3Server\include\i3Base\UINT128.h
;	COMDAT ??4UINT128@@QAEAAV0@AB_K@Z
_TEXT	SEGMENT
_value$ = 8						; size = 4
??4UINT128@@QAEAAV0@AB_K@Z PROC				; UINT128::operator=, COMDAT
; _this$ = ecx

; 37   : 	{

  00000	55		 push	 ebp
  00001	8b ec		 mov	 ebp, esp

; 38   : 		v[0] = value;

  00003	8b 45 08	 mov	 eax, DWORD PTR _value$[ebp]
  00006	8b 10		 mov	 edx, DWORD PTR [eax]
  00008	8b 40 04	 mov	 eax, DWORD PTR [eax+4]
  0000b	89 41 04	 mov	 DWORD PTR [ecx+4], eax

; 39   : 		v[1] = 0;
; 40   : 
; 41   : 		return *this;

  0000e	8b c1		 mov	 eax, ecx
  00010	89 11		 mov	 DWORD PTR [ecx], edx
  00012	c7 41 08 00 00
	00 00		 mov	 DWORD PTR [ecx+8], 0
  00019	c7 41 0c 00 00
	00 00		 mov	 DWORD PTR [ecx+12], 0

; 42   : 	}

  00020	5d		 pop	 ebp
  00021	c2 04 00	 ret	 4
??4UINT128@@QAEAAV0@AB_K@Z ENDP				; UINT128::operator=
_TEXT	ENDS
; Function compile flags: /Ogtp
; File E:\Proyectos\JuegosOnlineproyectos\PB\pbblow\Piercing Blow Remake\i3Server\include\i3Base\UINT128.h
;	COMDAT ??4UINT128@@QAEAAV0@ABV0@@Z
_TEXT	SEGMENT
_value$ = 8						; size = 4
??4UINT128@@QAEAAV0@ABV0@@Z PROC			; UINT128::operator=, COMDAT
; _this$ = ecx

; 29   : 	{

  00000	55		 push	 ebp
  00001	8b ec		 mov	 ebp, esp
  00003	56		 push	 esi

; 30   : 		v[0] = value.v[0];

  00004	8b 75 08	 mov	 esi, DWORD PTR _value$[ebp]
  00007	8b 06		 mov	 eax, DWORD PTR [esi]
  00009	8b 56 04	 mov	 edx, DWORD PTR [esi+4]
  0000c	89 01		 mov	 DWORD PTR [ecx], eax
  0000e	89 51 04	 mov	 DWORD PTR [ecx+4], edx

; 31   : 		v[1] = value.v[1];

  00011	8b 46 08	 mov	 eax, DWORD PTR [esi+8]
  00014	8b 56 0c	 mov	 edx, DWORD PTR [esi+12]
  00017	89 41 08	 mov	 DWORD PTR [ecx+8], eax

; 32   : 
; 33   : 		return *this;

  0001a	8b c1		 mov	 eax, ecx
  0001c	89 51 0c	 mov	 DWORD PTR [ecx+12], edx
  0001f	5e		 pop	 esi

; 34   : 	}

  00020	5d		 pop	 ebp
  00021	c2 04 00	 ret	 4
??4UINT128@@QAEAAV0@ABV0@@Z ENDP			; UINT128::operator=
_TEXT	ENDS
; Function compile flags: /Ogtp
; File E:\Proyectos\JuegosOnlineproyectos\PB\pbblow\Piercing Blow Remake\i3Server\include\i3Base\UINT128.h
;	COMDAT ??0UINT128@@QAE@_K0@Z
_TEXT	SEGMENT
_a$ = 8							; size = 8
_b$ = 16						; size = 8
??0UINT128@@QAE@_K0@Z PROC				; UINT128::UINT128, COMDAT
; _this$ = ecx

; 22   : 	UINT128( UINT64 a, UINT64 b)

  00000	55		 push	 ebp
  00001	8b ec		 mov	 ebp, esp

; 23   : 	{
; 24   : 		v[1] = a;

  00003	8b 45 08	 mov	 eax, DWORD PTR _a$[ebp]
  00006	8b 55 0c	 mov	 edx, DWORD PTR _a$[ebp+4]
  00009	89 41 08	 mov	 DWORD PTR [ecx+8], eax

; 25   : 		v[0] = b;

  0000c	8b 45 10	 mov	 eax, DWORD PTR _b$[ebp]
  0000f	89 51 0c	 mov	 DWORD PTR [ecx+12], edx
  00012	8b 55 14	 mov	 edx, DWORD PTR _b$[ebp+4]
  00015	89 01		 mov	 DWORD PTR [ecx], eax

; 26   : 	}

  00017	8b c1		 mov	 eax, ecx
  00019	89 51 04	 mov	 DWORD PTR [ecx+4], edx
  0001c	5d		 pop	 ebp
  0001d	c2 10 00	 ret	 16			; 00000010H
??0UINT128@@QAE@_K0@Z ENDP				; UINT128::UINT128
_TEXT	ENDS
; Function compile flags: /Ogtp
; File E:\Proyectos\JuegosOnlineproyectos\PB\pbblow\Piercing Blow Remake\i3Server\include\i3Base\UINT128.h
;	COMDAT ??0UINT128@@QAE@IIII@Z
_TEXT	SEGMENT
_a$ = 8							; size = 4
_b$ = 12						; size = 4
_c$ = 16						; size = 4
_d$ = 20						; size = 4
??0UINT128@@QAE@IIII@Z PROC				; UINT128::UINT128, COMDAT
; _this$ = ecx

; 16   : 	UINT128( UINT32 a, UINT32 b, UINT32 c, UINT32 d)

  00000	55		 push	 ebp
  00001	8b ec		 mov	 ebp, esp

; 17   : 	{
; 18   : 		v[0] = ((UINT64)c << 32) | ((UINT64)d & 0xFFFFFFFF);

  00003	8b 55 10	 mov	 edx, DWORD PTR _c$[ebp]
  00006	33 c0		 xor	 eax, eax
  00008	0b 45 14	 or	 eax, DWORD PTR _d$[ebp]
  0000b	89 01		 mov	 DWORD PTR [ecx], eax

; 19   : 		v[1] = ((UINT64)a << 32) | ((UINT64)b & 0xFFFFFFFF);

  0000d	33 c0		 xor	 eax, eax
  0000f	0b 45 0c	 or	 eax, DWORD PTR _b$[ebp]
  00012	89 51 04	 mov	 DWORD PTR [ecx+4], edx
  00015	8b 55 08	 mov	 edx, DWORD PTR _a$[ebp]
  00018	89 41 08	 mov	 DWORD PTR [ecx+8], eax

; 20   : 	}

  0001b	8b c1		 mov	 eax, ecx
  0001d	89 51 0c	 mov	 DWORD PTR [ecx+12], edx
  00020	5d		 pop	 ebp
  00021	c2 10 00	 ret	 16			; 00000010H
??0UINT128@@QAE@IIII@Z ENDP				; UINT128::UINT128
_TEXT	ENDS
; Function compile flags: /Ogtp
; File E:\Proyectos\JuegosOnlineproyectos\PB\pbblow\Piercing Blow Remake\i3Server\include\i3Base\UINT128.h
;	COMDAT ??0UINT128@@QAE@XZ
_TEXT	SEGMENT
??0UINT128@@QAE@XZ PROC					; UINT128::UINT128, COMDAT
; _this$ = ecx

; 13   : 	{
; 14   : 	}

  00000	8b c1		 mov	 eax, ecx
  00002	c3		 ret	 0
??0UINT128@@QAE@XZ ENDP					; UINT128::UINT128
_TEXT	ENDS
END
