; Listing generated by Microsoft (R) Optimizing Compiler Version 19.50.35727.0 

	TITLE	E:\Proyectos\JuegosOnlineproyectos\PB\pbblow\Piercing Blow Remake\i3Server\Project\I3_DX\i3Server\x86\Release\i3CompressHuffman.obj
	.686P
	.XMM
	include listing.inc
	.model	flat

INCLUDELIB LIBCMT
INCLUDELIB OLDNAMES

PUBLIC	__Avx2WmemEnabledWeakValue
;	COMDAT __Avx2WmemEnabledWeakValue
_BSS	SEGMENT
__Avx2WmemEnabledWeakValue DD 01H DUP (?)
_BSS	ENDS
PUBLIC	?__empty_global_delete@@YAXPAX@Z		; __empty_global_delete
PUBLIC	?__global_delete@@YAXPAX@Z			; __global_delete
PUBLIC	?__empty_global_delete@@YAXPAXI@Z		; __empty_global_delete
PUBLIC	?__global_delete@@YAXPAXI@Z			; __global_delete
PUBLIC	?__global_array_delete@@YAXPAX@Z		; __global_array_delete
PUBLIC	?__global_array_delete@@YAXPAXI@Z		; __global_array_delete
PUBLIC	?GetMemoryPool@i3ClassMeta@@QAEPAVi3MemoryPool@@XZ ; i3ClassMeta::GetMemoryPool
PUBLIC	?SetMemoryPool@i3ClassMeta@@QAEXPAVi3MemoryPool@@@Z ; i3ClassMeta::SetMemoryPool
PUBLIC	?GetClassSize@i3ClassMeta@@QAEIXZ		; i3ClassMeta::GetClassSize
PUBLIC	?GetClassNameA@i3ClassMeta@@QAEPADXZ		; i3ClassMeta::GetClassNameA
PUBLIC	?IsExactTypeOf@i3ClassMeta@@QAE_NPAV1@@Z	; i3ClassMeta::IsExactTypeOf
PUBLIC	?SetStyle@i3ClassMeta@@QAEXI@Z			; i3ClassMeta::SetStyle
PUBLIC	?GetStyle@i3ClassMeta@@QAEIXZ			; i3ClassMeta::GetStyle
PUBLIC	?AddStyle@i3ClassMeta@@QAEXI@Z			; i3ClassMeta::AddStyle
PUBLIC	?RemoveStyle@i3ClassMeta@@QAEXI@Z		; i3ClassMeta::RemoveStyle
PUBLIC	?IsStyle@i3ClassMeta@@QAEHI@Z			; i3ClassMeta::IsStyle
PUBLIC	?IsAbstractClass@i3ClassMeta@@QAEHXZ		; i3ClassMeta::IsAbstractClass
PUBLIC	?IsConcreteClass@i3ClassMeta@@QAEHXZ		; i3ClassMeta::IsConcreteClass
PUBLIC	?GetBaseClassMeta@i3ClassMeta@@QAEPAV1@XZ	; i3ClassMeta::GetBaseClassMeta
PUBLIC	?getHashCode@i3ClassMeta@@QAEIXZ		; i3ClassMeta::getHashCode
PUBLIC	??0i3ClassMeta@@QAE@ABV0@@Z			; i3ClassMeta::i3ClassMeta
PUBLIC	??4i3ClassMeta@@QAEAAV0@ABV0@@Z			; i3ClassMeta::operator=
PUBLIC	??_Gi3ClassMeta@@UAEPAXI@Z			; i3ClassMeta::`scalar deleting destructor'
PUBLIC	??_Ei3ClassMeta@@UAEPAXI@Z			; i3ClassMeta::`vector deleting destructor'
PUBLIC	?GetClassMeta@i3ElementBase@@SAPAVi3ClassMeta@@XZ ; i3ElementBase::GetClassMeta
PUBLIC	?GetRefCount@i3ElementBase@@QAEHXZ		; i3ElementBase::GetRefCount
PUBLIC	?__SetMemoryPool@i3ElementBase@@QAEXPAVi3MemoryPool@@@Z ; i3ElementBase::__SetMemoryPool
PUBLIC	?__GetMemoryPool@i3ElementBase@@QAEPAVi3MemoryPool@@XZ ; i3ElementBase::__GetMemoryPool
PUBLIC	?IsExactTypeOf@i3ElementBase@@QAE_NPAVi3ClassMeta@@@Z ; i3ElementBase::IsExactTypeOf
PUBLIC	?IsTypeOf@i3ElementBase@@QAE_NPAVi3ClassMeta@@@Z ; i3ElementBase::IsTypeOf
PUBLIC	?AddRef@i3ElementBase@@QAEHXZ			; i3ElementBase::AddRef
PUBLIC	?_internal_SetRefCount@i3ElementBase@@QAEXH@Z	; i3ElementBase::_internal_SetRefCount
PUBLIC	??0i3ElementBase@@QAE@ABV0@@Z			; i3ElementBase::i3ElementBase
PUBLIC	??4i3ElementBase@@QAEAAV0@ABV0@@Z		; i3ElementBase::operator=
PUBLIC	??_Gi3ElementBase@@UAEPAXI@Z			; i3ElementBase::`scalar deleting destructor'
PUBLIC	??_Ei3ElementBase@@UAEPAXI@Z			; i3ElementBase::`vector deleting destructor'
PUBLIC	?GetResultSize@i3CompressHuffman@@YAIXZ		; i3CompressHuffman::GetResultSize
PUBLIC	?GetSourceSize@i3CompressHuffman@@YAIXZ		; i3CompressHuffman::GetSourceSize
PUBLIC	?Encode@i3CompressHuffman@@YAPAEPAEII@Z		; i3CompressHuffman::Encode
PUBLIC	?Decode@i3CompressHuffman@@YAPAEPAEI@Z		; i3CompressHuffman::Decode
PUBLIC	?EncodeFile@i3CompressHuffman@@YAHPBD0@Z	; i3CompressHuffman::EncodeFile
PUBLIC	?DecodeFile@i3CompressHuffman@@YAHPBD0@Z	; i3CompressHuffman::DecodeFile
PUBLIC	??0i3MemoryPool@@QAE@ABV0@@Z			; i3MemoryPool::i3MemoryPool
PUBLIC	??4i3MemoryPool@@QAEAAV0@ABV0@@Z		; i3MemoryPool::operator=
PUBLIC	??_Gi3MemoryPool@@UAEPAXI@Z			; i3MemoryPool::`scalar deleting destructor'
PUBLIC	??_Ei3MemoryPool@@UAEPAXI@Z			; i3MemoryPool::`vector deleting destructor'
PUBLIC	?GetClassMeta@i3Stream@@SAPAVi3ClassMeta@@XZ	; i3Stream::GetClassMeta
PUBLIC	?GetSize@i3Stream@@QAEIXZ			; i3Stream::GetSize
PUBLIC	?GetLastError@i3Stream@@QAE?AW4STREAMCODE@1@XZ	; i3Stream::GetLastError
PUBLIC	?GetAccessMode@i3Stream@@QAEHXZ			; i3Stream::GetAccessMode
PUBLIC	?GetHandle@i3Stream@@UAEPAXXZ			; i3Stream::GetHandle
PUBLIC	?BeginRecord@i3Stream@@QAEXXZ			; i3Stream::BeginRecord
PUBLIC	?GetRecordSize@i3Stream@@QAEIXZ			; i3Stream::GetRecordSize
PUBLIC	??0i3Stream@@QAE@ABV0@@Z			; i3Stream::i3Stream
PUBLIC	??4i3Stream@@QAEAAV0@ABV0@@Z			; i3Stream::operator=
PUBLIC	??_Gi3Stream@@UAEPAXI@Z				; i3Stream::`scalar deleting destructor'
PUBLIC	??_Ei3Stream@@UAEPAXI@Z				; i3Stream::`vector deleting destructor'
PUBLIC	?GetClassMeta@i3FileStream@@SAPAVi3ClassMeta@@XZ ; i3FileStream::GetClassMeta
PUBLIC	?GetHandle@i3FileStream@@UAEPAXXZ		; i3FileStream::GetHandle
PUBLIC	?GetFileName@i3FileStream@@QAEPADXZ		; i3FileStream::GetFileName
PUBLIC	?SetCaseSensitive@i3FileStream@@SAXH@Z		; i3FileStream::SetCaseSensitive
PUBLIC	?IsCaseSensitive@i3FileStream@@SAHXZ		; i3FileStream::IsCaseSensitive
PUBLIC	??0i3FileStream@@QAE@ABV0@@Z			; i3FileStream::i3FileStream
PUBLIC	??4i3FileStream@@QAEAAV0@ABV0@@Z		; i3FileStream::operator=
PUBLIC	??_Gi3FileStream@@UAEPAXI@Z			; i3FileStream::`scalar deleting destructor'
PUBLIC	??_Ei3FileStream@@UAEPAXI@Z			; i3FileStream::`vector deleting destructor'
PUBLIC	??_7i3ClassMeta@@6B@				; i3ClassMeta::`vftable'
PUBLIC	??_7i3ElementBase@@6B@				; i3ElementBase::`vftable'
PUBLIC	??_7i3MemoryPool@@6B@				; i3MemoryPool::`vftable'
PUBLIC	??_7i3Stream@@6B@				; i3Stream::`vftable'
PUBLIC	??_7i3FileStream@@6B@				; i3FileStream::`vftable'
PUBLIC	??_C@_0GM@GBOMBOHL@E?3?2Proyectos?2JuegosOnlineproyec@ ; `string'
PUBLIC	??_C@_0BP@LNMNKIJ@Could?5not?5open?5?$CFs?5source?5file?4@ ; `string'
PUBLIC	??_C@_0CA@EFMLGKCH@i3CompressHuffman?3?3EncodeFile?$CI?$CJ@ ; `string'
PUBLIC	??_C@_0BO@JJAILGGH@Could?5not?5read?5?$CFs?5source?5file@ ; `string'
PUBLIC	??_C@_0CG@COMLHA@Could?5not?5create?5?$CFs?5destination@ ; `string'
PUBLIC	??_C@_0CF@KHAPMPGI@Could?5not?5write?5?$CFs?5destination?5@ ; `string'
PUBLIC	??_C@_0CA@OJMPBHKM@i3CompressHuffman?3?3DecodeFile?$CI?$CJ@ ; `string'
PUBLIC	??_R4i3ElementBase@@6B@				; i3ElementBase::`RTTI Complete Object Locator'
PUBLIC	??_R0?AVi3ElementBase@@@8			; i3ElementBase `RTTI Type Descriptor'
PUBLIC	??_R3i3ElementBase@@8				; i3ElementBase::`RTTI Class Hierarchy Descriptor'
PUBLIC	??_R2i3ElementBase@@8				; i3ElementBase::`RTTI Base Class Array'
PUBLIC	??_R1A@?0A@EA@i3ElementBase@@8			; i3ElementBase::`RTTI Base Class Descriptor at (0,-1,0,64)'
PUBLIC	??_R4i3MemoryPool@@6B@				; i3MemoryPool::`RTTI Complete Object Locator'
PUBLIC	??_R0?AVi3MemoryPool@@@8			; i3MemoryPool `RTTI Type Descriptor'
PUBLIC	??_R3i3MemoryPool@@8				; i3MemoryPool::`RTTI Class Hierarchy Descriptor'
PUBLIC	??_R2i3MemoryPool@@8				; i3MemoryPool::`RTTI Base Class Array'
PUBLIC	??_R1A@?0A@EA@i3MemoryPool@@8			; i3MemoryPool::`RTTI Base Class Descriptor at (0,-1,0,64)'
PUBLIC	??_R4i3ClassMeta@@6B@				; i3ClassMeta::`RTTI Complete Object Locator'
PUBLIC	??_R0?AVi3ClassMeta@@@8				; i3ClassMeta `RTTI Type Descriptor'
PUBLIC	??_R3i3ClassMeta@@8				; i3ClassMeta::`RTTI Class Hierarchy Descriptor'
PUBLIC	??_R2i3ClassMeta@@8				; i3ClassMeta::`RTTI Base Class Array'
PUBLIC	??_R1A@?0A@EA@i3ClassMeta@@8			; i3ClassMeta::`RTTI Base Class Descriptor at (0,-1,0,64)'
PUBLIC	??_R4i3Stream@@6B@				; i3Stream::`RTTI Complete Object Locator'
PUBLIC	??_R0?AVi3Stream@@@8				; i3Stream `RTTI Type Descriptor'
PUBLIC	??_R3i3Stream@@8				; i3Stream::`RTTI Class Hierarchy Descriptor'
PUBLIC	??_R2i3Stream@@8				; i3Stream::`RTTI Base Class Array'
PUBLIC	??_R1A@?0A@EA@i3Stream@@8			; i3Stream::`RTTI Base Class Descriptor at (0,-1,0,64)'
PUBLIC	??_R4i3FileStream@@6B@				; i3FileStream::`RTTI Complete Object Locator'
PUBLIC	??_R0?AVi3FileStream@@@8			; i3FileStream `RTTI Type Descriptor'
PUBLIC	??_R3i3FileStream@@8				; i3FileStream::`RTTI Class Hierarchy Descriptor'
PUBLIC	??_R2i3FileStream@@8				; i3FileStream::`RTTI Base Class Array'
PUBLIC	??_R1A@?0A@EA@i3FileStream@@8			; i3FileStream::`RTTI Base Class Descriptor at (0,-1,0,64)'
EXTRN	??_M@YGXPAXIIP6EX0@Z@Z:PROC			; `eh vector destructor iterator'
EXTRN	__purecall:PROC
EXTRN	??3@YAXPAX@Z:PROC				; operator delete
EXTRN	??3@YAXPAXI@Z:PROC				; operator delete
EXTRN	??_V@YAXPAX@Z:PROC				; operator delete[]
EXTRN	??_V@YAXPAXI@Z:PROC				; operator delete[]
EXTRN	_qsort:PROC
EXTRN	?i3Log@@YAXPBD0ZZ:PROC				; i3Log
EXTRN	?AllocTool@i3mem@@YAPAXHHHPBDH@Z:PROC		; i3mem::AllocTool
EXTRN	?FreeTool@i3mem@@YAXPAXPBDH@Z:PROC		; i3mem::FreeTool
EXTRN	??1i3ClassMeta@@UAE@XZ:PROC			; i3ClassMeta::~i3ClassMeta
EXTRN	?CreateInstance@i3ClassMeta@@UAEPAVi3ElementBase@@W4I3_CLASSMETA_TYPE@@@Z:PROC ; i3ClassMeta::CreateInstance
EXTRN	?BindInstance@i3ClassMeta@@UAEPAVi3ElementBase@@PAXW4I3_CLASSMETA_TYPE@@@Z:PROC ; i3ClassMeta::BindInstance
EXTRN	?IsTypeOf@i3ClassMeta@@QAE_NPAV1@@Z:PROC	; i3ClassMeta::IsTypeOf
EXTRN	?GetMeta@i3ElementBase@@UAEPAVi3ClassMeta@@XZ:PROC ; i3ElementBase::GetMeta
EXTRN	??1i3ElementBase@@UAE@XZ:PROC			; i3ElementBase::~i3ElementBase
EXTRN	??3i3ElementBase@@SAXPAX@Z:PROC			; i3ElementBase::operator delete
EXTRN	?CopyTo@i3ElementBase@@UAEXPAV1@W4I3_COPY_METHOD@@@Z:PROC ; i3ElementBase::CopyTo
EXTRN	??1i3MemoryPool@@UAE@XZ:PROC			; i3MemoryPool::~i3MemoryPool
EXTRN	?GetMeta@i3Stream@@UAEPAVi3ClassMeta@@XZ:PROC	; i3Stream::GetMeta
EXTRN	??1i3Stream@@UAE@XZ:PROC			; i3Stream::~i3Stream
EXTRN	?CopyTo@i3Stream@@UAEIPAV1@I@Z:PROC		; i3Stream::CopyTo
EXTRN	?CopyFrom@i3Stream@@UAEIPAV1@I@Z:PROC		; i3Stream::CopyFrom
EXTRN	?ReadLine@i3Stream@@UAEIPADH@Z:PROC		; i3Stream::ReadLine
EXTRN	?ReadLineW@i3Stream@@UAEIPAGH@Z:PROC		; i3Stream::ReadLineW
EXTRN	?WriteLine@i3Stream@@UAEIPBD@Z:PROC		; i3Stream::WriteLine
EXTRN	?WriteLineW@i3Stream@@UAEIPBG@Z:PROC		; i3Stream::WriteLineW
EXTRN	?Printf@i3Stream@@UAAIPADPBDZZ:PROC		; i3Stream::Printf
EXTRN	?GetMeta@i3FileStream@@UAEPAVi3ClassMeta@@XZ:PROC ; i3FileStream::GetMeta
EXTRN	??0i3FileStream@@QAE@XZ:PROC			; i3FileStream::i3FileStream
EXTRN	??1i3FileStream@@UAE@XZ:PROC			; i3FileStream::~i3FileStream
EXTRN	?Create@i3FileStream@@UAEHPBDHI@Z:PROC		; i3FileStream::Create
EXTRN	?Open@i3FileStream@@UAEHPBDHI@Z:PROC		; i3FileStream::Open
EXTRN	?Close@i3FileStream@@UAEHXZ:PROC		; i3FileStream::Close
EXTRN	?Read@i3FileStream@@UAEIPAXH@Z:PROC		; i3FileStream::Read
EXTRN	?Write@i3FileStream@@UAEIPBXH@Z:PROC		; i3FileStream::Write
EXTRN	?SetPosition@i3FileStream@@UAEIHH@Z:PROC	; i3FileStream::SetPosition
EXTRN	?GetPosition@i3FileStream@@UAEIXZ:PROC		; i3FileStream::GetPosition
EXTRN	@__security_check_cookie@4:PROC
EXTRN	___CxxFrameHandler3:PROC
EXTRN	_memcpy:PROC
EXTRN	??_7type_info@@6B@:QWORD			; type_info::`vftable'
EXTRN	?s_pClassMetai3ElementBase@i3ElementBase@@2PAVi3ClassMeta@@A:DWORD ; i3ElementBase::s_pClassMetai3ElementBase
EXTRN	?s_pClassMetai3Stream@i3Stream@@2PAVi3ClassMeta@@A:DWORD ; i3Stream::s_pClassMetai3Stream
EXTRN	?s_pClassMetai3FileStream@i3FileStream@@2PAVi3ClassMeta@@A:DWORD ; i3FileStream::s_pClassMetai3FileStream
EXTRN	?m_bCaseSensitive@i3FileStream@@1HA:DWORD	; i3FileStream::m_bCaseSensitive
EXTRN	___security_cookie:DWORD
_BSS	SEGMENT
?s_ResultSize@@3IA DD 01H DUP (?)			; s_ResultSize
?s_SourceSize@@3IA DD 01H DUP (?)			; s_SourceSize
_BSS	ENDS
;	COMDAT ?data_info@?1??Encode@i3CompressHuffman@@YAPAEPAEII@Z@4UDATA_INFO@@A
_BSS	SEGMENT
?data_info@?1??Encode@i3CompressHuffman@@YAPAEPAEII@Z@4UDATA_INFO@@A DB 018H DUP (?) ; `i3CompressHuffman::Encode'::`2'::data_info
_BSS	ENDS
;	COMDAT ??_R1A@?0A@EA@i3FileStream@@8
rdata$r	SEGMENT
??_R1A@?0A@EA@i3FileStream@@8 DD FLAT:??_R0?AVi3FileStream@@@8 ; i3FileStream::`RTTI Base Class Descriptor at (0,-1,0,64)'
	DD	02H
	DD	00H
	DD	0ffffffffH
	DD	00H
	DD	040H
	DD	FLAT:??_R3i3FileStream@@8
rdata$r	ENDS
;	COMDAT ??_R2i3FileStream@@8
rdata$r	SEGMENT
??_R2i3FileStream@@8 DD FLAT:??_R1A@?0A@EA@i3FileStream@@8 ; i3FileStream::`RTTI Base Class Array'
	DD	FLAT:??_R1A@?0A@EA@i3Stream@@8
	DD	FLAT:??_R1A@?0A@EA@i3ElementBase@@8
rdata$r	ENDS
;	COMDAT ??_R3i3FileStream@@8
rdata$r	SEGMENT
??_R3i3FileStream@@8 DD 00H				; i3FileStream::`RTTI Class Hierarchy Descriptor'
	DD	00H
	DD	03H
	DD	FLAT:??_R2i3FileStream@@8
rdata$r	ENDS
;	COMDAT ??_R0?AVi3FileStream@@@8
data$rs	SEGMENT
??_R0?AVi3FileStream@@@8 DD FLAT:??_7type_info@@6B@	; i3FileStream `RTTI Type Descriptor'
	DD	00H
	DB	'.?AVi3FileStream@@', 00H
data$rs	ENDS
;	COMDAT ??_R4i3FileStream@@6B@
rdata$r	SEGMENT
??_R4i3FileStream@@6B@ DD 00H				; i3FileStream::`RTTI Complete Object Locator'
	DD	00H
	DD	00H
	DD	FLAT:??_R0?AVi3FileStream@@@8
	DD	FLAT:??_R3i3FileStream@@8
rdata$r	ENDS
;	COMDAT ??_R1A@?0A@EA@i3Stream@@8
rdata$r	SEGMENT
??_R1A@?0A@EA@i3Stream@@8 DD FLAT:??_R0?AVi3Stream@@@8	; i3Stream::`RTTI Base Class Descriptor at (0,-1,0,64)'
	DD	01H
	DD	00H
	DD	0ffffffffH
	DD	00H
	DD	040H
	DD	FLAT:??_R3i3Stream@@8
rdata$r	ENDS
;	COMDAT ??_R2i3Stream@@8
rdata$r	SEGMENT
??_R2i3Stream@@8 DD FLAT:??_R1A@?0A@EA@i3Stream@@8	; i3Stream::`RTTI Base Class Array'
	DD	FLAT:??_R1A@?0A@EA@i3ElementBase@@8
rdata$r	ENDS
;	COMDAT ??_R3i3Stream@@8
rdata$r	SEGMENT
??_R3i3Stream@@8 DD 00H					; i3Stream::`RTTI Class Hierarchy Descriptor'
	DD	00H
	DD	02H
	DD	FLAT:??_R2i3Stream@@8
rdata$r	ENDS
;	COMDAT ??_R0?AVi3Stream@@@8
data$rs	SEGMENT
??_R0?AVi3Stream@@@8 DD FLAT:??_7type_info@@6B@		; i3Stream `RTTI Type Descriptor'
	DD	00H
	DB	'.?AVi3Stream@@', 00H
data$rs	ENDS
;	COMDAT ??_R4i3Stream@@6B@
rdata$r	SEGMENT
??_R4i3Stream@@6B@ DD 00H				; i3Stream::`RTTI Complete Object Locator'
	DD	00H
	DD	00H
	DD	FLAT:??_R0?AVi3Stream@@@8
	DD	FLAT:??_R3i3Stream@@8
rdata$r	ENDS
;	COMDAT ??_R1A@?0A@EA@i3ClassMeta@@8
rdata$r	SEGMENT
??_R1A@?0A@EA@i3ClassMeta@@8 DD FLAT:??_R0?AVi3ClassMeta@@@8 ; i3ClassMeta::`RTTI Base Class Descriptor at (0,-1,0,64)'
	DD	00H
	DD	00H
	DD	0ffffffffH
	DD	00H
	DD	040H
	DD	FLAT:??_R3i3ClassMeta@@8
rdata$r	ENDS
;	COMDAT ??_R2i3ClassMeta@@8
rdata$r	SEGMENT
??_R2i3ClassMeta@@8 DD FLAT:??_R1A@?0A@EA@i3ClassMeta@@8 ; i3ClassMeta::`RTTI Base Class Array'
rdata$r	ENDS
;	COMDAT ??_R3i3ClassMeta@@8
rdata$r	SEGMENT
??_R3i3ClassMeta@@8 DD 00H				; i3ClassMeta::`RTTI Class Hierarchy Descriptor'
	DD	00H
	DD	01H
	DD	FLAT:??_R2i3ClassMeta@@8
rdata$r	ENDS
;	COMDAT ??_R0?AVi3ClassMeta@@@8
data$rs	SEGMENT
??_R0?AVi3ClassMeta@@@8 DD FLAT:??_7type_info@@6B@	; i3ClassMeta `RTTI Type Descriptor'
	DD	00H
	DB	'.?AVi3ClassMeta@@', 00H
data$rs	ENDS
;	COMDAT ??_R4i3ClassMeta@@6B@
rdata$r	SEGMENT
??_R4i3ClassMeta@@6B@ DD 00H				; i3ClassMeta::`RTTI Complete Object Locator'
	DD	00H
	DD	00H
	DD	FLAT:??_R0?AVi3ClassMeta@@@8
	DD	FLAT:??_R3i3ClassMeta@@8
rdata$r	ENDS
;	COMDAT ??_R1A@?0A@EA@i3MemoryPool@@8
rdata$r	SEGMENT
??_R1A@?0A@EA@i3MemoryPool@@8 DD FLAT:??_R0?AVi3MemoryPool@@@8 ; i3MemoryPool::`RTTI Base Class Descriptor at (0,-1,0,64)'
	DD	00H
	DD	00H
	DD	0ffffffffH
	DD	00H
	DD	040H
	DD	FLAT:??_R3i3MemoryPool@@8
rdata$r	ENDS
;	COMDAT ??_R2i3MemoryPool@@8
rdata$r	SEGMENT
??_R2i3MemoryPool@@8 DD FLAT:??_R1A@?0A@EA@i3MemoryPool@@8 ; i3MemoryPool::`RTTI Base Class Array'
rdata$r	ENDS
;	COMDAT ??_R3i3MemoryPool@@8
rdata$r	SEGMENT
??_R3i3MemoryPool@@8 DD 00H				; i3MemoryPool::`RTTI Class Hierarchy Descriptor'
	DD	00H
	DD	01H
	DD	FLAT:??_R2i3MemoryPool@@8
rdata$r	ENDS
;	COMDAT ??_R0?AVi3MemoryPool@@@8
data$rs	SEGMENT
??_R0?AVi3MemoryPool@@@8 DD FLAT:??_7type_info@@6B@	; i3MemoryPool `RTTI Type Descriptor'
	DD	00H
	DB	'.?AVi3MemoryPool@@', 00H
data$rs	ENDS
;	COMDAT ??_R4i3MemoryPool@@6B@
rdata$r	SEGMENT
??_R4i3MemoryPool@@6B@ DD 00H				; i3MemoryPool::`RTTI Complete Object Locator'
	DD	00H
	DD	00H
	DD	FLAT:??_R0?AVi3MemoryPool@@@8
	DD	FLAT:??_R3i3MemoryPool@@8
rdata$r	ENDS
;	COMDAT ??_R1A@?0A@EA@i3ElementBase@@8
rdata$r	SEGMENT
??_R1A@?0A@EA@i3ElementBase@@8 DD FLAT:??_R0?AVi3ElementBase@@@8 ; i3ElementBase::`RTTI Base Class Descriptor at (0,-1,0,64)'
	DD	00H
	DD	00H
	DD	0ffffffffH
	DD	00H
	DD	040H
	DD	FLAT:??_R3i3ElementBase@@8
rdata$r	ENDS
;	COMDAT ??_R2i3ElementBase@@8
rdata$r	SEGMENT
??_R2i3ElementBase@@8 DD FLAT:??_R1A@?0A@EA@i3ElementBase@@8 ; i3ElementBase::`RTTI Base Class Array'
rdata$r	ENDS
;	COMDAT ??_R3i3ElementBase@@8
rdata$r	SEGMENT
??_R3i3ElementBase@@8 DD 00H				; i3ElementBase::`RTTI Class Hierarchy Descriptor'
	DD	00H
	DD	01H
	DD	FLAT:??_R2i3ElementBase@@8
rdata$r	ENDS
;	COMDAT ??_R0?AVi3ElementBase@@@8
data$rs	SEGMENT
??_R0?AVi3ElementBase@@@8 DD FLAT:??_7type_info@@6B@	; i3ElementBase `RTTI Type Descriptor'
	DD	00H
	DB	'.?AVi3ElementBase@@', 00H
data$rs	ENDS
;	COMDAT ??_R4i3ElementBase@@6B@
rdata$r	SEGMENT
??_R4i3ElementBase@@6B@ DD 00H				; i3ElementBase::`RTTI Complete Object Locator'
	DD	00H
	DD	00H
	DD	FLAT:??_R0?AVi3ElementBase@@@8
	DD	FLAT:??_R3i3ElementBase@@8
rdata$r	ENDS
;	COMDAT ??_C@_0CA@OJMPBHKM@i3CompressHuffman?3?3DecodeFile?$CI?$CJ@
CONST	SEGMENT
??_C@_0CA@OJMPBHKM@i3CompressHuffman?3?3DecodeFile?$CI?$CJ@ DB 'i3Compres'
	DB	'sHuffman::DecodeFile()', 00H		; `string'
CONST	ENDS
;	COMDAT ??_C@_0CF@KHAPMPGI@Could?5not?5write?5?$CFs?5destination?5@
CONST	SEGMENT
??_C@_0CF@KHAPMPGI@Could?5not?5write?5?$CFs?5destination?5@ DB 'Could not'
	DB	' write %s destination file.', 00H		; `string'
CONST	ENDS
;	COMDAT ??_C@_0CG@COMLHA@Could?5not?5create?5?$CFs?5destination@
CONST	SEGMENT
??_C@_0CG@COMLHA@Could?5not?5create?5?$CFs?5destination@ DB 'Could not cr'
	DB	'eate %s destination file.', 00H		; `string'
CONST	ENDS
;	COMDAT ??_C@_0BO@JJAILGGH@Could?5not?5read?5?$CFs?5source?5file@
CONST	SEGMENT
??_C@_0BO@JJAILGGH@Could?5not?5read?5?$CFs?5source?5file@ DB 'Could not r'
	DB	'ead %s source file', 00H			; `string'
CONST	ENDS
;	COMDAT ??_C@_0CA@EFMLGKCH@i3CompressHuffman?3?3EncodeFile?$CI?$CJ@
CONST	SEGMENT
??_C@_0CA@EFMLGKCH@i3CompressHuffman?3?3EncodeFile?$CI?$CJ@ DB 'i3Compres'
	DB	'sHuffman::EncodeFile()', 00H		; `string'
CONST	ENDS
;	COMDAT ??_C@_0BP@LNMNKIJ@Could?5not?5open?5?$CFs?5source?5file?4@
CONST	SEGMENT
??_C@_0BP@LNMNKIJ@Could?5not?5open?5?$CFs?5source?5file?4@ DB 'Could not '
	DB	'open %s source file.', 00H			; `string'
CONST	ENDS
;	COMDAT ??_C@_0GM@GBOMBOHL@E?3?2Proyectos?2JuegosOnlineproyec@
CONST	SEGMENT
??_C@_0GM@GBOMBOHL@E?3?2Proyectos?2JuegosOnlineproyec@ DB 'E:\Proyectos\J'
	DB	'uegosOnlineproyectos\PB\pbblow\Piercing Blow Remake\i3Server\'
	DB	'src\i3Base\i3CompressHuffman.cpp', 00H	; `string'
CONST	ENDS
;	COMDAT ??_7i3FileStream@@6B@
CONST	SEGMENT
??_7i3FileStream@@6B@ DD FLAT:??_R4i3FileStream@@6B@	; i3FileStream::`vftable'
	DD	FLAT:?GetMeta@i3FileStream@@UAEPAVi3ClassMeta@@XZ
	DD	FLAT:??_Ei3FileStream@@UAEPAXI@Z
	DD	FLAT:?CopyTo@i3ElementBase@@UAEXPAV1@W4I3_COPY_METHOD@@@Z
	DD	FLAT:?GetHandle@i3FileStream@@UAEPAXXZ
	DD	FLAT:?Create@i3FileStream@@UAEHPBDHI@Z
	DD	FLAT:?Open@i3FileStream@@UAEHPBDHI@Z
	DD	FLAT:?Close@i3FileStream@@UAEHXZ
	DD	FLAT:?Read@i3FileStream@@UAEIPAXH@Z
	DD	FLAT:?CopyTo@i3Stream@@UAEIPAV1@I@Z
	DD	FLAT:?Write@i3FileStream@@UAEIPBXH@Z
	DD	FLAT:?CopyFrom@i3Stream@@UAEIPAV1@I@Z
	DD	FLAT:?SetPosition@i3FileStream@@UAEIHH@Z
	DD	FLAT:?GetPosition@i3FileStream@@UAEIXZ
	DD	FLAT:?ReadLine@i3Stream@@UAEIPADH@Z
	DD	FLAT:?ReadLineW@i3Stream@@UAEIPAGH@Z
	DD	FLAT:?WriteLine@i3Stream@@UAEIPBD@Z
	DD	FLAT:?WriteLineW@i3Stream@@UAEIPBG@Z
	DD	FLAT:?Printf@i3Stream@@UAAIPADPBDZZ
CONST	ENDS
;	COMDAT ??_7i3Stream@@6B@
CONST	SEGMENT
??_7i3Stream@@6B@ DD FLAT:??_R4i3Stream@@6B@		; i3Stream::`vftable'
	DD	FLAT:?GetMeta@i3Stream@@UAEPAVi3ClassMeta@@XZ
	DD	FLAT:??_Ei3Stream@@UAEPAXI@Z
	DD	FLAT:?CopyTo@i3ElementBase@@UAEXPAV1@W4I3_COPY_METHOD@@@Z
	DD	FLAT:?GetHandle@i3Stream@@UAEPAXXZ
	DD	FLAT:__purecall
	DD	FLAT:__purecall
	DD	FLAT:__purecall
	DD	FLAT:__purecall
	DD	FLAT:?CopyTo@i3Stream@@UAEIPAV1@I@Z
	DD	FLAT:__purecall
	DD	FLAT:?CopyFrom@i3Stream@@UAEIPAV1@I@Z
	DD	FLAT:__purecall
	DD	FLAT:__purecall
	DD	FLAT:?ReadLine@i3Stream@@UAEIPADH@Z
	DD	FLAT:?ReadLineW@i3Stream@@UAEIPAGH@Z
	DD	FLAT:?WriteLine@i3Stream@@UAEIPBD@Z
	DD	FLAT:?WriteLineW@i3Stream@@UAEIPBG@Z
	DD	FLAT:?Printf@i3Stream@@UAAIPADPBDZZ
CONST	ENDS
;	COMDAT ??_7i3MemoryPool@@6B@
CONST	SEGMENT
??_7i3MemoryPool@@6B@ DD FLAT:??_R4i3MemoryPool@@6B@	; i3MemoryPool::`vftable'
	DD	FLAT:??_Ei3MemoryPool@@UAEPAXI@Z
	DD	FLAT:__purecall
	DD	FLAT:__purecall
CONST	ENDS
;	COMDAT ??_7i3ElementBase@@6B@
CONST	SEGMENT
??_7i3ElementBase@@6B@ DD FLAT:??_R4i3ElementBase@@6B@	; i3ElementBase::`vftable'
	DD	FLAT:?GetMeta@i3ElementBase@@UAEPAVi3ClassMeta@@XZ
	DD	FLAT:??_Ei3ElementBase@@UAEPAXI@Z
	DD	FLAT:?CopyTo@i3ElementBase@@UAEXPAV1@W4I3_COPY_METHOD@@@Z
CONST	ENDS
;	COMDAT ??_7i3ClassMeta@@6B@
CONST	SEGMENT
??_7i3ClassMeta@@6B@ DD FLAT:??_R4i3ClassMeta@@6B@	; i3ClassMeta::`vftable'
	DD	FLAT:??_Ei3ClassMeta@@UAEPAXI@Z
	DD	FLAT:?CreateInstance@i3ClassMeta@@UAEPAVi3ElementBase@@W4I3_CLASSMETA_TYPE@@@Z
	DD	FLAT:?BindInstance@i3ClassMeta@@UAEPAVi3ElementBase@@PAXW4I3_CLASSMETA_TYPE@@@Z
CONST	ENDS
;	COMDAT xdata$x
xdata$x	SEGMENT
__ehfuncinfo$??_Ei3FileStream@@UAEPAXI@Z DD 019930522H
	DD	00H
	DD	00H
	DD	2 DUP(00H)
	DD	2 DUP(00H)
	DD	00H
	DD	05H
xdata$x	ENDS
;	COMDAT xdata$x
xdata$x	SEGMENT
__ehfuncinfo$??_Ei3Stream@@UAEPAXI@Z DD 019930522H
	DD	00H
	DD	00H
	DD	2 DUP(00H)
	DD	2 DUP(00H)
	DD	00H
	DD	05H
xdata$x	ENDS
;	COMDAT xdata$x
xdata$x	SEGMENT
__ehfuncinfo$??_Ei3MemoryPool@@UAEPAXI@Z DD 019930522H
	DD	00H
	DD	00H
	DD	2 DUP(00H)
	DD	2 DUP(00H)
	DD	00H
	DD	05H
xdata$x	ENDS
;	COMDAT xdata$x
xdata$x	SEGMENT
__unwindtable$?DecodeFile@i3CompressHuffman@@YAHPBD0@Z DD 0ffffffffH
	DD	FLAT:__unwindfunclet$?DecodeFile@i3CompressHuffman@@YAHPBD0@Z$0
__ehfuncinfo$?DecodeFile@i3CompressHuffman@@YAHPBD0@Z DD 019930522H
	DD	01H
	DD	FLAT:__unwindtable$?DecodeFile@i3CompressHuffman@@YAHPBD0@Z
	DD	2 DUP(00H)
	DD	2 DUP(00H)
	DD	00H
	DD	01H
xdata$x	ENDS
;	COMDAT xdata$x
xdata$x	SEGMENT
__unwindtable$?EncodeFile@i3CompressHuffman@@YAHPBD0@Z DD 0ffffffffH
	DD	FLAT:__unwindfunclet$?EncodeFile@i3CompressHuffman@@YAHPBD0@Z$0
__ehfuncinfo$?EncodeFile@i3CompressHuffman@@YAHPBD0@Z DD 019930522H
	DD	01H
	DD	FLAT:__unwindtable$?EncodeFile@i3CompressHuffman@@YAHPBD0@Z
	DD	2 DUP(00H)
	DD	2 DUP(00H)
	DD	00H
	DD	01H
xdata$x	ENDS
;	COMDAT xdata$x
xdata$x	SEGMENT
__ehfuncinfo$??_Ei3ElementBase@@UAEPAXI@Z DD 019930522H
	DD	00H
	DD	00H
	DD	2 DUP(00H)
	DD	2 DUP(00H)
	DD	00H
	DD	05H
xdata$x	ENDS
;	COMDAT xdata$x
xdata$x	SEGMENT
__ehfuncinfo$??_Ei3ClassMeta@@UAEPAXI@Z DD 019930522H
	DD	00H
	DD	00H
	DD	2 DUP(00H)
	DD	2 DUP(00H)
	DD	00H
	DD	05H
xdata$x	ENDS
; Function compile flags: /Ogtp
; File E:\Proyectos\JuegosOnlineproyectos\PB\pbblow\Piercing Blow Remake\i3Server\src\i3Base\i3CompressHuffman.cpp
;	COMDAT ?hmCreateFlagFromTree@@YAPAUFLAG_TABLE@@PAU_TOP_TREE@@PAUDATA_INFO@@@Z
_TEXT	SEGMENT
$T1 = -20						; size = 4
$T2 = -16						; size = 4
_loop$1$ = -12						; size = 4
_Width$1$ = -8						; size = 4
$T3 = -4						; size = 4
_pTopTree$ = 8						; size = 4
_pDataInfo$ = 12					; size = 4
?hmCreateFlagFromTree@@YAPAUFLAG_TABLE@@PAU_TOP_TREE@@PAUDATA_INFO@@@Z PROC ; hmCreateFlagFromTree, COMDAT

; 322  : {

  00000	55		 push	 ebp
  00001	8b ec		 mov	 ebp, esp
  00003	83 ec 14	 sub	 esp, 20			; 00000014H
  00006	56		 push	 esi

; 323  : 	UINT32 loop;
; 324  : 	TREE  *tree;
; 325  : 	UINT32  flag;
; 326  : 	UINT8 flag_width;
; 327  : 	FLAG_TABLE *flag_table;
; 328  : 
; 329  : 	pDataInfo->enc_size = 0;

  00007	8b 75 0c	 mov	 esi, DWORD PTR _pDataInfo$[ebp]
  0000a	57		 push	 edi

; 226  : 	flag_table = (FLAG_TABLE *) i3MemAlloc( pDataInfo->num * sizeof(FLAG_TABLE));

  0000b	68 e2 00 00 00	 push	 226			; 000000e2H
  00010	68 00 00 00 00	 push	 OFFSET ??_C@_0GM@GBOMBOHL@E?3?2Proyectos?2JuegosOnlineproyec@
  00015	8b 46 08	 mov	 eax, DWORD PTR [esi+8]
  00018	6a 10		 push	 16			; 00000010H
  0001a	6a 00		 push	 0

; 323  : 	UINT32 loop;
; 324  : 	TREE  *tree;
; 325  : 	UINT32  flag;
; 326  : 	UINT8 flag_width;
; 327  : 	FLAG_TABLE *flag_table;
; 328  : 
; 329  : 	pDataInfo->enc_size = 0;

  0001c	c7 46 04 00 00
	00 00		 mov	 DWORD PTR [esi+4], 0

; 226  : 	flag_table = (FLAG_TABLE *) i3MemAlloc( pDataInfo->num * sizeof(FLAG_TABLE));

  00023	8d 04 40	 lea	 eax, DWORD PTR [eax+eax*2]
  00026	c1 e0 02	 shl	 eax, 2
  00029	50		 push	 eax
  0002a	e8 00 00 00 00	 call	 ?AllocTool@i3mem@@YAPAXHHHPBDH@Z ; i3mem::AllocTool
  0002f	8b f8		 mov	 edi, eax
  00031	83 c4 14	 add	 esp, 20			; 00000014H
  00034	89 7d f0	 mov	 DWORD PTR $T2[ebp], edi

; 227  : 	if(flag_table == NULL) return NULL;

  00037	85 ff		 test	 edi, edi
  00039	75 06		 jne	 SHORT $LN14@hmCreateFl

; 358  : }

  0003b	5f		 pop	 edi
  0003c	5e		 pop	 esi
  0003d	8b e5		 mov	 esp, ebp
  0003f	5d		 pop	 ebp
  00040	c3		 ret	 0
$LN14@hmCreateFl:
  00041	53		 push	 ebx

; 229  : 	for(loop = 0; loop < pDataInfo->num; loop++) 

  00042	33 d2		 xor	 edx, edx
  00044	8d 5e 0c	 lea	 ebx, DWORD PTR [esi+12]
  00047	89 5d fc	 mov	 DWORD PTR $T3[ebp], ebx
  0004a	39 56 08	 cmp	 DWORD PTR [esi+8], edx
  0004d	76 21		 jbe	 SHORT $LN39@hmCreateFl
  0004f	90		 npad	 1
$LL13@hmCreateFl:

; 230  : 	{
; 231  : 		flag_table[loop].flag       = 0;

  00050	8d 04 52	 lea	 eax, DWORD PTR [edx+edx*2]
  00053	8d 0c 87	 lea	 ecx, DWORD PTR [edi+eax*4]
  00056	c7 41 04 00 00
	00 00		 mov	 DWORD PTR [ecx+4], 0

; 232  : 		flag_table[loop].flag_width = 0;

  0005d	c6 41 08 00	 mov	 BYTE PTR [ecx+8], 0

; 233  : 		flag_table[loop].data       = pDataInfo->count[loop].m_Data;

  00061	8b 03		 mov	 eax, DWORD PTR [ebx]
  00063	8a 04 d0	 mov	 al, BYTE PTR [eax+edx*8]
  00066	42		 inc	 edx
  00067	88 01		 mov	 BYTE PTR [ecx], al
  00069	3b 56 08	 cmp	 edx, DWORD PTR [esi+8]
  0006c	72 e2		 jb	 SHORT $LL13@hmCreateFl
  0006e	eb 03		 jmp	 SHORT $LN12@hmCreateFl
$LN39@hmCreateFl:
  00070	89 5d fc	 mov	 DWORD PTR $T3[ebp], ebx
$LN12@hmCreateFl:

; 330  : 
; 331  : 	flag_table = hmInitFlagTable( pDataInfo);
; 332  : 	if(flag_table == NULL) return NULL;
; 333  : 
; 334  : 	for(loop = 0; loop < pDataInfo->num; loop++) 

  00073	33 d2		 xor	 edx, edx
  00075	8b c7		 mov	 eax, edi
  00077	89 55 f4	 mov	 DWORD PTR _loop$1$[ebp], edx
  0007a	39 56 08	 cmp	 DWORD PTR [esi+8], edx
  0007d	0f 86 86 00 00
	00		 jbe	 $LN3@hmCreateFl

; 346  : 		}
; 347  : 
; 348  : 		if(flag_width == 0) flag_width = 1;

  00083	89 7d ec	 mov	 DWORD PTR $T1[ebp], edi
$LL4@hmCreateFl:

; 335  : 	{
; 336  : 		flag       = 0;
; 337  : 		flag_width = 0;
; 338  : 
; 339  : 		tree = pTopTree[loop].tree_link;

  00086	8b 45 08	 mov	 eax, DWORD PTR _pTopTree$[ebp]
  00089	33 ff		 xor	 edi, edi
  0008b	32 db		 xor	 bl, bl
  0008d	8b 0c 90	 mov	 ecx, DWORD PTR [eax+edx*4]

; 340  : 
; 341  : 		while(tree->next_tree != NULL) 

  00090	8b 11		 mov	 edx, DWORD PTR [ecx]
  00092	85 d2		 test	 edx, edx
  00094	74 1a		 je	 SHORT $LN38@hmCreateFl
$LL5@hmCreateFl:

; 342  : 		{
; 343  : 			flag |= (tree->bit<<flag_width);

  00096	0f b6 41 12	 movzx	 eax, BYTE PTR [ecx+18]
  0009a	8a cb		 mov	 cl, bl
  0009c	d3 e0		 shl	 eax, cl

; 344  : 			flag_width += 1;

  0009e	fe c3		 inc	 bl
  000a0	0b f8		 or	 edi, eax

; 345  : 			tree = tree->next_tree;

  000a2	8d 0a		 lea	 ecx, DWORD PTR [edx]
  000a4	8b 02		 mov	 eax, DWORD PTR [edx]
  000a6	8b d0		 mov	 edx, eax
  000a8	85 c0		 test	 eax, eax
  000aa	75 ea		 jne	 SHORT $LL5@hmCreateFl

; 346  : 		}
; 347  : 
; 348  : 		if(flag_width == 0) flag_width = 1;

  000ac	84 db		 test	 bl, bl
  000ae	75 02		 jne	 SHORT $LN40@hmCreateFl
$LN38@hmCreateFl:
  000b0	b3 01		 mov	 bl, 1
$LN40@hmCreateFl:

; 349  : 
; 350  : 		flag = hmFlipFlag(flag, flag_width);

  000b2	0f b6 cb	 movzx	 ecx, bl

; 308  : 	UINT32 local_flag = 0;

  000b5	33 f6		 xor	 esi, esi

; 349  : 
; 350  : 		flag = hmFlipFlag(flag, flag_width);

  000b7	33 d2		 xor	 edx, edx
  000b9	89 4d f8	 mov	 DWORD PTR _Width$1$[ebp], ecx

; 310  : 	for(loop = 0; loop < Width; loop++) 

  000bc	84 db		 test	 bl, bl
  000be	74 19		 je	 SHORT $LN18@hmCreateFl
  000c0	b8 01 00 00 00	 mov	 eax, 1
$LL19@hmCreateFl:

; 311  : 	{
; 312  : 		if((Flag&(1<<loop)) != 0) 

  000c5	85 c7		 test	 eax, edi
  000c7	74 09		 je	 SHORT $LN17@hmCreateFl

; 313  : 		{
; 314  : 			local_flag |= 1<<(Width-loop-1);

  000c9	2b ca		 sub	 ecx, edx
  000cb	49		 dec	 ecx
  000cc	0f ab ce	 bts	 esi, ecx
  000cf	8b 4d f8	 mov	 ecx, DWORD PTR _Width$1$[ebp]
$LN17@hmCreateFl:

; 309  : 
; 310  : 	for(loop = 0; loop < Width; loop++) 

  000d2	42		 inc	 edx
  000d3	d1 c0		 rol	 eax, 1
  000d5	3b d1		 cmp	 edx, ecx
  000d7	72 ec		 jb	 SHORT $LL19@hmCreateFl
$LN18@hmCreateFl:

; 351  : 		flag_table[loop].flag       = flag;

  000d9	8b 55 f4	 mov	 edx, DWORD PTR _loop$1$[ebp]
  000dc	8b 4d f0	 mov	 ecx, DWORD PTR $T2[ebp]
  000df	8d 04 52	 lea	 eax, DWORD PTR [edx+edx*2]
  000e2	89 74 81 04	 mov	 DWORD PTR [ecx+eax*4+4], esi

; 352  : 		flag_table[loop].flag_width = flag_width;
; 353  : 
; 354  : 		pDataInfo->enc_size += flag_width * pDataInfo->count[loop].m_Count;

  000e6	8b 75 0c	 mov	 esi, DWORD PTR _pDataInfo$[ebp]
  000e9	88 5c 81 08	 mov	 BYTE PTR [ecx+eax*4+8], bl
  000ed	8b 45 fc	 mov	 eax, DWORD PTR $T3[ebp]
  000f0	8b 00		 mov	 eax, DWORD PTR [eax]
  000f2	8b 4c d0 04	 mov	 ecx, DWORD PTR [eax+edx*8+4]
  000f6	42		 inc	 edx
  000f7	0f af 4d f8	 imul	 ecx, DWORD PTR _Width$1$[ebp]
  000fb	89 55 f4	 mov	 DWORD PTR _loop$1$[ebp], edx
  000fe	01 4e 04	 add	 DWORD PTR [esi+4], ecx
  00101	3b 56 08	 cmp	 edx, DWORD PTR [esi+8]
  00104	72 80		 jb	 SHORT $LL4@hmCreateFl
  00106	8b 45 ec	 mov	 eax, DWORD PTR $T1[ebp]
$LN3@hmCreateFl:

; 355  : 	}
; 356  : 
; 357  : 	return flag_table;

  00109	5b		 pop	 ebx
  0010a	5f		 pop	 edi

; 358  : }

  0010b	5e		 pop	 esi
  0010c	8b e5		 mov	 esp, ebp
  0010e	5d		 pop	 ebp
  0010f	c3		 ret	 0
?hmCreateFlagFromTree@@YAPAUFLAG_TABLE@@PAU_TOP_TREE@@PAUDATA_INFO@@@Z ENDP ; hmCreateFlagFromTree
_TEXT	ENDS
; Function compile flags: /Ogtp
; File E:\Proyectos\JuegosOnlineproyectos\PB\pbblow\Piercing Blow Remake\i3Server\src\i3Base\i3CompressHuffman.cpp
;	COMDAT ?data_info_compare@@YAHPBX0@Z
_TEXT	SEGMENT
_op1$ = 8						; size = 4
_op2$ = 12						; size = 4
?data_info_compare@@YAHPBX0@Z PROC			; data_info_compare, COMDAT

; 155  : {

  00000	55		 push	 ebp
  00001	8b ec		 mov	 ebp, esp

; 156  : 	const HM_DATA *dt1 = (const HM_DATA *)op1;
; 157  : 	const HM_DATA *dt2 = (const HM_DATA *)op2;
; 158  : 
; 159  : 	if(*dt1 > *dt2) return -1;

  00003	8b 45 08	 mov	 eax, DWORD PTR _op1$[ebp]
  00006	8a 08		 mov	 cl, BYTE PTR [eax]
  00008	8b 45 0c	 mov	 eax, DWORD PTR _op2$[ebp]
  0000b	3a 08		 cmp	 cl, BYTE PTR [eax]
  0000d	76 07		 jbe	 SHORT $LN2@data_info_
  0000f	b8 ff ff ff ff	 mov	 eax, -1

; 161  : 
; 162  : 	return 0;
; 163  : }

  00014	5d		 pop	 ebp
  00015	c3		 ret	 0
$LN2@data_info_:

; 160  : 	if(*dt1 < *dt2) return  1;

  00016	1b c0		 sbb	 eax, eax
  00018	f7 d8		 neg	 eax

; 161  : 
; 162  : 	return 0;
; 163  : }

  0001a	5d		 pop	 ebp
  0001b	c3		 ret	 0
?data_info_compare@@YAHPBX0@Z ENDP			; data_info_compare
_TEXT	ENDS
; Function compile flags: /Ogtp
; File E:\Proyectos\JuegosOnlineproyectos\PB\pbblow\Piercing Blow Remake\i3Server\src\i3Base\i3CompressHuffman.cpp
;	COMDAT ?huffman_compare@@YAHPBX0@Z
_TEXT	SEGMENT
_op1$ = 8						; size = 4
_op2$ = 12						; size = 4
?huffman_compare@@YAHPBX0@Z PROC			; huffman_compare, COMDAT

; 101  : {

  00000	55		 push	 ebp
  00001	8b ec		 mov	 ebp, esp

; 102  : 	const SORT_TABLE *st1 = (SORT_TABLE *)op1;
; 103  : 	const SORT_TABLE *st2 = (SORT_TABLE *)op2;
; 104  : 
; 105  : 	if(st1->count > st2->count) return -1;

  00003	8b 45 08	 mov	 eax, DWORD PTR _op1$[ebp]
  00006	8b 08		 mov	 ecx, DWORD PTR [eax]
  00008	8b 45 0c	 mov	 eax, DWORD PTR _op2$[ebp]
  0000b	3b 08		 cmp	 ecx, DWORD PTR [eax]
  0000d	76 05		 jbe	 SHORT $LN2@huffman_co
  0000f	83 c8 ff	 or	 eax, -1

; 107  : 
; 108  : 	return 0;
; 109  : }

  00012	5d		 pop	 ebp
  00013	c3		 ret	 0
$LN2@huffman_co:

; 106  : 	if(st1->count < st2->count) return  1;

  00014	1b c0		 sbb	 eax, eax
  00016	f7 d8		 neg	 eax

; 107  : 
; 108  : 	return 0;
; 109  : }

  00018	5d		 pop	 ebp
  00019	c3		 ret	 0
?huffman_compare@@YAHPBX0@Z ENDP			; huffman_compare
_TEXT	ENDS
; Function compile flags: /Ogtp
; File E:\Proyectos\JuegosOnlineproyectos\PB\pbblow\Piercing Blow Remake\i3Server\src\i3Base\i3CompressHuffman.cpp
;	COMDAT ??_Ei3FileStream@@UAEPAXI@Z
_TEXT	SEGMENT
__$EHRec$ = -12						; size = 12
___flags$ = 8						; size = 4
??_Ei3FileStream@@UAEPAXI@Z PROC			; i3FileStream::`vector deleting destructor', COMDAT
; _this$ = ecx
  00000	55		 push	 ebp
  00001	8b ec		 mov	 ebp, esp
  00003	6a ff		 push	 -1
  00005	68 00 00 00 00	 push	 __ehhandler$??_Ei3FileStream@@UAEPAXI@Z
  0000a	64 a1 00 00 00
	00		 mov	 eax, DWORD PTR fs:0
  00010	50		 push	 eax
  00011	53		 push	 ebx
  00012	56		 push	 esi
  00013	57		 push	 edi
  00014	a1 00 00 00 00	 mov	 eax, DWORD PTR ___security_cookie
  00019	33 c5		 xor	 eax, ebp
  0001b	50		 push	 eax
  0001c	8d 45 f4	 lea	 eax, DWORD PTR __$EHRec$[ebp]
  0001f	64 a3 00 00 00
	00		 mov	 DWORD PTR fs:0, eax
  00025	8b f1		 mov	 esi, ecx
  00027	8b 5d 08	 mov	 ebx, DWORD PTR ___flags$[ebp]
  0002a	8b fb		 mov	 edi, ebx
  0002c	83 e7 01	 and	 edi, 1
  0002f	f6 c3 02	 test	 bl, 2
  00032	74 43		 je	 SHORT $LN2@vector
  00034	68 00 00 00 00	 push	 OFFSET ??1i3FileStream@@UAE@XZ ; i3FileStream::~i3FileStream
  00039	ff 76 fc	 push	 DWORD PTR [esi-4]
  0003c	8d 5e fc	 lea	 ebx, DWORD PTR [esi-4]
  0003f	68 38 01 00 00	 push	 312			; 00000138H
  00044	56		 push	 esi
  00045	e8 00 00 00 00	 call	 ??_M@YGXPAXIIP6EX0@Z@Z
  0004a	85 ff		 test	 edi, edi
  0004c	74 13		 je	 SHORT $LN3@vector
  0004e	69 0b 38 01 00
	00		 imul	 ecx, DWORD PTR [ebx], 312
  00054	83 c1 04	 add	 ecx, 4
  00057	51		 push	 ecx
  00058	53		 push	 ebx
  00059	e8 00 00 00 00	 call	 ??_V@YAXPAXI@Z		; operator delete[]
  0005e	83 c4 08	 add	 esp, 8
$LN3@vector:
  00061	8b c3		 mov	 eax, ebx
  00063	8b 4d f4	 mov	 ecx, DWORD PTR __$EHRec$[ebp]
  00066	64 89 0d 00 00
	00 00		 mov	 DWORD PTR fs:0, ecx
  0006d	59		 pop	 ecx
  0006e	5f		 pop	 edi
  0006f	5e		 pop	 esi
  00070	5b		 pop	 ebx
  00071	8b e5		 mov	 esp, ebp
  00073	5d		 pop	 ebp
  00074	c2 04 00	 ret	 4
$LN2@vector:
  00077	e8 00 00 00 00	 call	 ??1i3FileStream@@UAE@XZ	; i3FileStream::~i3FileStream
  0007c	85 ff		 test	 edi, edi
  0007e	74 1e		 je	 SHORT $LN6@vector
  00080	f6 c3 04	 test	 bl, 4
  00083	75 0b		 jne	 SHORT $LN5@vector
  00085	56		 push	 esi
  00086	e8 00 00 00 00	 call	 ??3i3ElementBase@@SAXPAX@Z ; i3ElementBase::operator delete
  0008b	83 c4 04	 add	 esp, 4
  0008e	eb 0e		 jmp	 SHORT $LN6@vector
$LN5@vector:

  00090	68 38 01 00 00	 push	 312			; 00000138H
  00095	56		 push	 esi
  00096	e8 00 00 00 00	 call	 ??3@YAXPAXI@Z		; operator delete
  0009b	83 c4 08	 add	 esp, 8
$LN6@vector:
  0009e	8b c6		 mov	 eax, esi
  000a0	8b 4d f4	 mov	 ecx, DWORD PTR __$EHRec$[ebp]
  000a3	64 89 0d 00 00
	00 00		 mov	 DWORD PTR fs:0, ecx
  000aa	59		 pop	 ecx
  000ab	5f		 pop	 edi
  000ac	5e		 pop	 esi
  000ad	5b		 pop	 ebx
  000ae	8b e5		 mov	 esp, ebp
  000b0	5d		 pop	 ebp
  000b1	c2 04 00	 ret	 4
  000b4	cc		 int	 3
  000b5	cc		 int	 3
  000b6	cc		 int	 3
  000b7	cc		 int	 3
  000b8	cc		 int	 3
_TEXT	ENDS
;	COMDAT text$x
text$x	SEGMENT
__ehhandler$??_Ei3FileStream@@UAEPAXI@Z:
  00000	90		 npad	 1
  00001	90		 npad	 1
  00002	8b 54 24 08	 mov	 edx, DWORD PTR [esp+8]
  00006	8d 42 0c	 lea	 eax, DWORD PTR [edx+12]
  00009	8b 4a f0	 mov	 ecx, DWORD PTR [edx-16]
  0000c	33 c8		 xor	 ecx, eax
  0000e	e8 00 00 00 00	 call	 @__security_check_cookie@4
  00013	b8 00 00 00 00	 mov	 eax, OFFSET __ehfuncinfo$??_Ei3FileStream@@UAEPAXI@Z
  00018	e9 00 00 00 00	 jmp	 ___CxxFrameHandler3
text$x	ENDS
??_Ei3FileStream@@UAEPAXI@Z ENDP			; i3FileStream::`vector deleting destructor'
; Function compile flags: /Ogtp
; File E:\Proyectos\JuegosOnlineproyectos\PB\pbblow\Piercing Blow Remake\i3Server\src\i3Base\i3CompressHuffman.cpp
;	COMDAT ??_Gi3FileStream@@UAEPAXI@Z
_TEXT	SEGMENT
___flags$ = 8						; size = 4
??_Gi3FileStream@@UAEPAXI@Z PROC			; i3FileStream::`scalar deleting destructor', COMDAT
; _this$ = ecx
  00000	55		 push	 ebp
  00001	8b ec		 mov	 ebp, esp
  00003	56		 push	 esi
  00004	8b f1		 mov	 esi, ecx
  00006	e8 00 00 00 00	 call	 ??1i3FileStream@@UAE@XZ	; i3FileStream::~i3FileStream
  0000b	8b 45 08	 mov	 eax, DWORD PTR ___flags$[ebp]
  0000e	a8 01		 test	 al, 1
  00010	74 22		 je	 SHORT $LN10@scalar
  00012	a8 04		 test	 al, 4
  00014	75 10		 jne	 SHORT $LN3@scalar
  00016	56		 push	 esi
  00017	e8 00 00 00 00	 call	 ??3i3ElementBase@@SAXPAX@Z ; i3ElementBase::operator delete
  0001c	83 c4 04	 add	 esp, 4
  0001f	8b c6		 mov	 eax, esi
  00021	5e		 pop	 esi
  00022	5d		 pop	 ebp
  00023	c2 04 00	 ret	 4
$LN3@scalar:

  00026	68 38 01 00 00	 push	 312			; 00000138H
  0002b	56		 push	 esi
  0002c	e8 00 00 00 00	 call	 ??3@YAXPAXI@Z		; operator delete
  00031	83 c4 08	 add	 esp, 8
$LN10@scalar:
  00034	8b c6		 mov	 eax, esi
  00036	5e		 pop	 esi
  00037	5d		 pop	 ebp
  00038	c2 04 00	 ret	 4
??_Gi3FileStream@@UAEPAXI@Z ENDP			; i3FileStream::`scalar deleting destructor'
_TEXT	ENDS
; Function compile flags: /Ogtp
;	COMDAT ??4i3FileStream@@QAEAAV0@ABV0@@Z
_TEXT	SEGMENT
___that$ = 8						; size = 4
??4i3FileStream@@QAEAAV0@ABV0@@Z PROC			; i3FileStream::operator=, COMDAT
; _this$ = ecx
  00000	55		 push	 ebp
  00001	8b ec		 mov	 ebp, esp
  00003	8b d1		 mov	 edx, ecx
  00005	56		 push	 esi
  00006	8b 75 08	 mov	 esi, DWORD PTR ___that$[ebp]
  00009	8b 46 04	 mov	 eax, DWORD PTR [esi+4]
  0000c	89 42 04	 mov	 DWORD PTR [edx+4], eax
  0000f	8b 46 08	 mov	 eax, DWORD PTR [esi+8]
  00012	89 42 08	 mov	 DWORD PTR [edx+8], eax
  00015	8b 46 0c	 mov	 eax, DWORD PTR [esi+12]
  00018	89 42 0c	 mov	 DWORD PTR [edx+12], eax
  0001b	8b 46 10	 mov	 eax, DWORD PTR [esi+16]
  0001e	89 42 10	 mov	 DWORD PTR [edx+16], eax
  00021	8b 46 14	 mov	 eax, DWORD PTR [esi+20]
  00024	89 42 14	 mov	 DWORD PTR [edx+20], eax
  00027	8b 46 18	 mov	 eax, DWORD PTR [esi+24]
  0002a	89 42 18	 mov	 DWORD PTR [edx+24], eax
  0002d	8b 46 1c	 mov	 eax, DWORD PTR [esi+28]
  00030	89 42 1c	 mov	 DWORD PTR [edx+28], eax
  00033	8b 46 20	 mov	 eax, DWORD PTR [esi+32]
  00036	89 42 20	 mov	 DWORD PTR [edx+32], eax
  00039	8b 46 24	 mov	 eax, DWORD PTR [esi+36]
  0003c	89 42 24	 mov	 DWORD PTR [edx+36], eax
  0003f	8b 46 28	 mov	 eax, DWORD PTR [esi+40]
  00042	89 42 28	 mov	 DWORD PTR [edx+40], eax
  00045	8b 46 2c	 mov	 eax, DWORD PTR [esi+44]
  00048	89 42 2c	 mov	 DWORD PTR [edx+44], eax
  0004b	8b 46 30	 mov	 eax, DWORD PTR [esi+48]
  0004e	89 42 30	 mov	 DWORD PTR [edx+48], eax
  00051	33 c0		 xor	 eax, eax
$LL4@operator:
  00053	8a 4c 06 34	 mov	 cl, BYTE PTR [esi+eax+52]
  00057	88 4c 02 34	 mov	 BYTE PTR [edx+eax+52], cl
  0005b	40		 inc	 eax
  0005c	3d 04 01 00 00	 cmp	 eax, 260		; 00000104H
  00061	72 f0		 jb	 SHORT $LL4@operator
  00063	5e		 pop	 esi
  00064	8b c2		 mov	 eax, edx
  00066	5d		 pop	 ebp
  00067	c2 04 00	 ret	 4
??4i3FileStream@@QAEAAV0@ABV0@@Z ENDP			; i3FileStream::operator=
_TEXT	ENDS
; Function compile flags: /Ogtp
;	COMDAT ??0i3FileStream@@QAE@ABV0@@Z
_TEXT	SEGMENT
___that$ = 8						; size = 4
??0i3FileStream@@QAE@ABV0@@Z PROC			; i3FileStream::i3FileStream, COMDAT
; _this$ = ecx
  00000	55		 push	 ebp
  00001	8b ec		 mov	 ebp, esp
  00003	8b d1		 mov	 edx, ecx
  00005	b9 41 00 00 00	 mov	 ecx, 65			; 00000041H
  0000a	56		 push	 esi
  0000b	8b 75 08	 mov	 esi, DWORD PTR ___that$[ebp]
  0000e	57		 push	 edi
  0000f	c7 02 00 00 00
	00		 mov	 DWORD PTR [edx], OFFSET ??_7i3ElementBase@@6B@
  00015	8d 7a 34	 lea	 edi, DWORD PTR [edx+52]
  00018	8b 46 04	 mov	 eax, DWORD PTR [esi+4]
  0001b	89 42 04	 mov	 DWORD PTR [edx+4], eax
  0001e	8b 46 08	 mov	 eax, DWORD PTR [esi+8]
  00021	89 42 08	 mov	 DWORD PTR [edx+8], eax
  00024	8b 46 0c	 mov	 eax, DWORD PTR [esi+12]
  00027	89 42 0c	 mov	 DWORD PTR [edx+12], eax
  0002a	c7 02 00 00 00
	00		 mov	 DWORD PTR [edx], OFFSET ??_7i3Stream@@6B@
  00030	8b 46 10	 mov	 eax, DWORD PTR [esi+16]
  00033	89 42 10	 mov	 DWORD PTR [edx+16], eax
  00036	8b 46 14	 mov	 eax, DWORD PTR [esi+20]
  00039	89 42 14	 mov	 DWORD PTR [edx+20], eax
  0003c	8b 46 18	 mov	 eax, DWORD PTR [esi+24]
  0003f	89 42 18	 mov	 DWORD PTR [edx+24], eax
  00042	8b 46 1c	 mov	 eax, DWORD PTR [esi+28]
  00045	89 42 1c	 mov	 DWORD PTR [edx+28], eax
  00048	8b 46 20	 mov	 eax, DWORD PTR [esi+32]
  0004b	89 42 20	 mov	 DWORD PTR [edx+32], eax
  0004e	c7 02 00 00 00
	00		 mov	 DWORD PTR [edx], OFFSET ??_7i3FileStream@@6B@
  00054	8b 46 24	 mov	 eax, DWORD PTR [esi+36]
  00057	89 42 24	 mov	 DWORD PTR [edx+36], eax
  0005a	8b 46 28	 mov	 eax, DWORD PTR [esi+40]
  0005d	89 42 28	 mov	 DWORD PTR [edx+40], eax
  00060	8b 46 2c	 mov	 eax, DWORD PTR [esi+44]
  00063	89 42 2c	 mov	 DWORD PTR [edx+44], eax
  00066	8b 46 30	 mov	 eax, DWORD PTR [esi+48]
  00069	83 c6 34	 add	 esi, 52			; 00000034H
  0006c	89 42 30	 mov	 DWORD PTR [edx+48], eax
  0006f	8b c2		 mov	 eax, edx
  00071	f3 a5		 rep movsd
  00073	5f		 pop	 edi
  00074	5e		 pop	 esi
  00075	5d		 pop	 ebp
  00076	c2 04 00	 ret	 4
??0i3FileStream@@QAE@ABV0@@Z ENDP			; i3FileStream::i3FileStream
_TEXT	ENDS
; Function compile flags: /Ogtp
; File E:\Proyectos\JuegosOnlineproyectos\PB\pbblow\Piercing Blow Remake\i3Server\include\i3Base\i3StreamFile.h
;	COMDAT ?IsCaseSensitive@i3FileStream@@SAHXZ
_TEXT	SEGMENT
?IsCaseSensitive@i3FileStream@@SAHXZ PROC		; i3FileStream::IsCaseSensitive, COMDAT

; 45   : 	static BOOL	IsCaseSensitive()						{ return m_bCaseSensitive; }

  00000	a1 00 00 00 00	 mov	 eax, DWORD PTR ?m_bCaseSensitive@i3FileStream@@1HA ; i3FileStream::m_bCaseSensitive
  00005	c3		 ret	 0
?IsCaseSensitive@i3FileStream@@SAHXZ ENDP		; i3FileStream::IsCaseSensitive
_TEXT	ENDS
; Function compile flags: /Ogtp
; File E:\Proyectos\JuegosOnlineproyectos\PB\pbblow\Piercing Blow Remake\i3Server\include\i3Base\i3StreamFile.h
;	COMDAT ?SetCaseSensitive@i3FileStream@@SAXH@Z
_TEXT	SEGMENT
_bTrue$ = 8						; size = 4
?SetCaseSensitive@i3FileStream@@SAXH@Z PROC		; i3FileStream::SetCaseSensitive, COMDAT

; 44   : 	static void	SetCaseSensitive( BOOL bTrue = TRUE )	{ m_bCaseSensitive = bTrue; }

  00000	55		 push	 ebp
  00001	8b ec		 mov	 ebp, esp
  00003	8b 45 08	 mov	 eax, DWORD PTR _bTrue$[ebp]
  00006	a3 00 00 00 00	 mov	 DWORD PTR ?m_bCaseSensitive@i3FileStream@@1HA, eax ; i3FileStream::m_bCaseSensitive
  0000b	5d		 pop	 ebp
  0000c	c3		 ret	 0
?SetCaseSensitive@i3FileStream@@SAXH@Z ENDP		; i3FileStream::SetCaseSensitive
_TEXT	ENDS
; Function compile flags: /Ogtp
; File E:\Proyectos\JuegosOnlineproyectos\PB\pbblow\Piercing Blow Remake\i3Server\include\i3Base\i3StreamFile.h
;	COMDAT ?GetFileName@i3FileStream@@QAEPADXZ
_TEXT	SEGMENT
?GetFileName@i3FileStream@@QAEPADXZ PROC		; i3FileStream::GetFileName, COMDAT
; _this$ = ecx

; 41   : 	char *  GetFileName(void)			{ return FileName; }

  00000	8d 41 34	 lea	 eax, DWORD PTR [ecx+52]
  00003	c3		 ret	 0
?GetFileName@i3FileStream@@QAEPADXZ ENDP		; i3FileStream::GetFileName
_TEXT	ENDS
; Function compile flags: /Ogtp
; File E:\Proyectos\JuegosOnlineproyectos\PB\pbblow\Piercing Blow Remake\i3Server\include\i3Base\i3StreamFile.h
;	COMDAT ?GetHandle@i3FileStream@@UAEPAXXZ
_TEXT	SEGMENT
?GetHandle@i3FileStream@@UAEPAXXZ PROC			; i3FileStream::GetHandle, COMDAT
; _this$ = ecx

; 39   : 	void * GetHandle(void)				{ return (void *)m_pHandle; }

  00000	8b 41 20	 mov	 eax, DWORD PTR [ecx+32]
  00003	c3		 ret	 0
?GetHandle@i3FileStream@@UAEPAXXZ ENDP			; i3FileStream::GetHandle
_TEXT	ENDS
; Function compile flags: /Ogtp
; File E:\Proyectos\JuegosOnlineproyectos\PB\pbblow\Piercing Blow Remake\i3Server\include\i3Base\i3StreamFile.h
;	COMDAT ?GetClassMeta@i3FileStream@@SAPAVi3ClassMeta@@XZ
_TEXT	SEGMENT
?GetClassMeta@i3FileStream@@SAPAVi3ClassMeta@@XZ PROC	; i3FileStream::GetClassMeta, COMDAT

; 20   : 	I3_CLASS_DEFINE( i3FileStream);

  00000	a1 00 00 00 00	 mov	 eax, DWORD PTR ?s_pClassMetai3FileStream@i3FileStream@@2PAVi3ClassMeta@@A ; i3FileStream::s_pClassMetai3FileStream
  00005	c3		 ret	 0
?GetClassMeta@i3FileStream@@SAPAVi3ClassMeta@@XZ ENDP	; i3FileStream::GetClassMeta
_TEXT	ENDS
; Function compile flags: /Ogtp
; File E:\Proyectos\JuegosOnlineproyectos\PB\pbblow\Piercing Blow Remake\i3Server\src\i3Base\i3CompressHuffman.cpp
;	COMDAT ??_Ei3Stream@@UAEPAXI@Z
_TEXT	SEGMENT
__$EHRec$ = -12						; size = 12
___flags$ = 8						; size = 4
??_Ei3Stream@@UAEPAXI@Z PROC				; i3Stream::`vector deleting destructor', COMDAT
; _this$ = ecx
  00000	55		 push	 ebp
  00001	8b ec		 mov	 ebp, esp
  00003	6a ff		 push	 -1
  00005	68 00 00 00 00	 push	 __ehhandler$??_Ei3Stream@@UAEPAXI@Z
  0000a	64 a1 00 00 00
	00		 mov	 eax, DWORD PTR fs:0
  00010	50		 push	 eax
  00011	53		 push	 ebx
  00012	56		 push	 esi
  00013	57		 push	 edi
  00014	a1 00 00 00 00	 mov	 eax, DWORD PTR ___security_cookie
  00019	33 c5		 xor	 eax, ebp
  0001b	50		 push	 eax
  0001c	8d 45 f4	 lea	 eax, DWORD PTR __$EHRec$[ebp]
  0001f	64 a3 00 00 00
	00		 mov	 DWORD PTR fs:0, eax
  00025	8b f1		 mov	 esi, ecx
  00027	8b 5d 08	 mov	 ebx, DWORD PTR ___flags$[ebp]
  0002a	8b fb		 mov	 edi, ebx
  0002c	83 e7 01	 and	 edi, 1
  0002f	f6 c3 02	 test	 bl, 2
  00032	74 43		 je	 SHORT $LN2@vector
  00034	68 00 00 00 00	 push	 OFFSET ??1i3Stream@@UAE@XZ ; i3Stream::~i3Stream
  00039	ff 76 fc	 push	 DWORD PTR [esi-4]
  0003c	8d 5e fc	 lea	 ebx, DWORD PTR [esi-4]
  0003f	6a 24		 push	 36			; 00000024H
  00041	56		 push	 esi
  00042	e8 00 00 00 00	 call	 ??_M@YGXPAXIIP6EX0@Z@Z
  00047	85 ff		 test	 edi, edi
  00049	74 16		 je	 SHORT $LN3@vector
  0004b	8b 0b		 mov	 ecx, DWORD PTR [ebx]
  0004d	8d 0c c9	 lea	 ecx, DWORD PTR [ecx+ecx*8]
  00050	8d 0c 8d 04 00
	00 00		 lea	 ecx, DWORD PTR [ecx*4+4]
  00057	51		 push	 ecx
  00058	53		 push	 ebx
  00059	e8 00 00 00 00	 call	 ??_V@YAXPAXI@Z		; operator delete[]
  0005e	83 c4 08	 add	 esp, 8
$LN3@vector:
  00061	8b c3		 mov	 eax, ebx
  00063	8b 4d f4	 mov	 ecx, DWORD PTR __$EHRec$[ebp]
  00066	64 89 0d 00 00
	00 00		 mov	 DWORD PTR fs:0, ecx
  0006d	59		 pop	 ecx
  0006e	5f		 pop	 edi
  0006f	5e		 pop	 esi
  00070	5b		 pop	 ebx
  00071	8b e5		 mov	 esp, ebp
  00073	5d		 pop	 ebp
  00074	c2 04 00	 ret	 4
$LN2@vector:
  00077	e8 00 00 00 00	 call	 ??1i3Stream@@UAE@XZ	; i3Stream::~i3Stream
  0007c	85 ff		 test	 edi, edi
  0007e	74 1b		 je	 SHORT $LN6@vector
  00080	f6 c3 04	 test	 bl, 4
  00083	75 0b		 jne	 SHORT $LN5@vector
  00085	56		 push	 esi
  00086	e8 00 00 00 00	 call	 ??3i3ElementBase@@SAXPAX@Z ; i3ElementBase::operator delete
  0008b	83 c4 04	 add	 esp, 4
  0008e	eb 0b		 jmp	 SHORT $LN6@vector
$LN5@vector:

  00090	6a 24		 push	 36			; 00000024H
  00092	56		 push	 esi
  00093	e8 00 00 00 00	 call	 ??3@YAXPAXI@Z		; operator delete
  00098	83 c4 08	 add	 esp, 8
$LN6@vector:
  0009b	8b c6		 mov	 eax, esi
  0009d	8b 4d f4	 mov	 ecx, DWORD PTR __$EHRec$[ebp]
  000a0	64 89 0d 00 00
	00 00		 mov	 DWORD PTR fs:0, ecx
  000a7	59		 pop	 ecx
  000a8	5f		 pop	 edi
  000a9	5e		 pop	 esi
  000aa	5b		 pop	 ebx
  000ab	8b e5		 mov	 esp, ebp
  000ad	5d		 pop	 ebp
  000ae	c2 04 00	 ret	 4
  000b1	cc		 int	 3
  000b2	cc		 int	 3
  000b3	cc		 int	 3
  000b4	cc		 int	 3
  000b5	cc		 int	 3
_TEXT	ENDS
;	COMDAT text$x
text$x	SEGMENT
__ehhandler$??_Ei3Stream@@UAEPAXI@Z:
  00000	90		 npad	 1
  00001	90		 npad	 1
  00002	8b 54 24 08	 mov	 edx, DWORD PTR [esp+8]
  00006	8d 42 0c	 lea	 eax, DWORD PTR [edx+12]
  00009	8b 4a f0	 mov	 ecx, DWORD PTR [edx-16]
  0000c	33 c8		 xor	 ecx, eax
  0000e	e8 00 00 00 00	 call	 @__security_check_cookie@4
  00013	b8 00 00 00 00	 mov	 eax, OFFSET __ehfuncinfo$??_Ei3Stream@@UAEPAXI@Z
  00018	e9 00 00 00 00	 jmp	 ___CxxFrameHandler3
text$x	ENDS
??_Ei3Stream@@UAEPAXI@Z ENDP				; i3Stream::`vector deleting destructor'
; Function compile flags: /Ogtp
; File E:\Proyectos\JuegosOnlineproyectos\PB\pbblow\Piercing Blow Remake\i3Server\src\i3Base\i3CompressHuffman.cpp
;	COMDAT ??_Gi3Stream@@UAEPAXI@Z
_TEXT	SEGMENT
___flags$ = 8						; size = 4
??_Gi3Stream@@UAEPAXI@Z PROC				; i3Stream::`scalar deleting destructor', COMDAT
; _this$ = ecx
  00000	55		 push	 ebp
  00001	8b ec		 mov	 ebp, esp
  00003	56		 push	 esi
  00004	8b f1		 mov	 esi, ecx
  00006	e8 00 00 00 00	 call	 ??1i3Stream@@UAE@XZ	; i3Stream::~i3Stream
  0000b	8b 45 08	 mov	 eax, DWORD PTR ___flags$[ebp]
  0000e	a8 01		 test	 al, 1
  00010	74 1f		 je	 SHORT $LN10@scalar
  00012	a8 04		 test	 al, 4
  00014	75 10		 jne	 SHORT $LN3@scalar
  00016	56		 push	 esi
  00017	e8 00 00 00 00	 call	 ??3i3ElementBase@@SAXPAX@Z ; i3ElementBase::operator delete
  0001c	83 c4 04	 add	 esp, 4
  0001f	8b c6		 mov	 eax, esi
  00021	5e		 pop	 esi
  00022	5d		 pop	 ebp
  00023	c2 04 00	 ret	 4
$LN3@scalar:

  00026	6a 24		 push	 36			; 00000024H
  00028	56		 push	 esi
  00029	e8 00 00 00 00	 call	 ??3@YAXPAXI@Z		; operator delete
  0002e	83 c4 08	 add	 esp, 8
$LN10@scalar:
  00031	8b c6		 mov	 eax, esi
  00033	5e		 pop	 esi
  00034	5d		 pop	 ebp
  00035	c2 04 00	 ret	 4
??_Gi3Stream@@UAEPAXI@Z ENDP				; i3Stream::`scalar deleting destructor'
_TEXT	ENDS
; Function compile flags: /Ogtp
;	COMDAT ??4i3Stream@@QAEAAV0@ABV0@@Z
_TEXT	SEGMENT
___that$ = 8						; size = 4
??4i3Stream@@QAEAAV0@ABV0@@Z PROC			; i3Stream::operator=, COMDAT
; _this$ = ecx
  00000	55		 push	 ebp
  00001	8b ec		 mov	 ebp, esp
  00003	8b 55 08	 mov	 edx, DWORD PTR ___that$[ebp]
  00006	8b 42 04	 mov	 eax, DWORD PTR [edx+4]
  00009	89 41 04	 mov	 DWORD PTR [ecx+4], eax
  0000c	8b 42 08	 mov	 eax, DWORD PTR [edx+8]
  0000f	89 41 08	 mov	 DWORD PTR [ecx+8], eax
  00012	8b 42 0c	 mov	 eax, DWORD PTR [edx+12]
  00015	89 41 0c	 mov	 DWORD PTR [ecx+12], eax
  00018	8b 42 10	 mov	 eax, DWORD PTR [edx+16]
  0001b	89 41 10	 mov	 DWORD PTR [ecx+16], eax
  0001e	8b 42 14	 mov	 eax, DWORD PTR [edx+20]
  00021	89 41 14	 mov	 DWORD PTR [ecx+20], eax
  00024	8b 42 18	 mov	 eax, DWORD PTR [edx+24]
  00027	89 41 18	 mov	 DWORD PTR [ecx+24], eax
  0002a	8b 42 1c	 mov	 eax, DWORD PTR [edx+28]
  0002d	89 41 1c	 mov	 DWORD PTR [ecx+28], eax
  00030	8b 42 20	 mov	 eax, DWORD PTR [edx+32]
  00033	89 41 20	 mov	 DWORD PTR [ecx+32], eax
  00036	8b c1		 mov	 eax, ecx
  00038	5d		 pop	 ebp
  00039	c2 04 00	 ret	 4
??4i3Stream@@QAEAAV0@ABV0@@Z ENDP			; i3Stream::operator=
_TEXT	ENDS
; Function compile flags: /Ogtp
;	COMDAT ??0i3Stream@@QAE@ABV0@@Z
_TEXT	SEGMENT
___that$ = 8						; size = 4
??0i3Stream@@QAE@ABV0@@Z PROC				; i3Stream::i3Stream, COMDAT
; _this$ = ecx
  00000	55		 push	 ebp
  00001	8b ec		 mov	 ebp, esp
  00003	8b 55 08	 mov	 edx, DWORD PTR ___that$[ebp]
  00006	c7 01 00 00 00
	00		 mov	 DWORD PTR [ecx], OFFSET ??_7i3ElementBase@@6B@
  0000c	8b 42 04	 mov	 eax, DWORD PTR [edx+4]
  0000f	89 41 04	 mov	 DWORD PTR [ecx+4], eax
  00012	8b 42 08	 mov	 eax, DWORD PTR [edx+8]
  00015	89 41 08	 mov	 DWORD PTR [ecx+8], eax
  00018	8b 42 0c	 mov	 eax, DWORD PTR [edx+12]
  0001b	89 41 0c	 mov	 DWORD PTR [ecx+12], eax
  0001e	c7 01 00 00 00
	00		 mov	 DWORD PTR [ecx], OFFSET ??_7i3Stream@@6B@
  00024	8b 42 10	 mov	 eax, DWORD PTR [edx+16]
  00027	89 41 10	 mov	 DWORD PTR [ecx+16], eax
  0002a	8b 42 14	 mov	 eax, DWORD PTR [edx+20]
  0002d	89 41 14	 mov	 DWORD PTR [ecx+20], eax
  00030	8b 42 18	 mov	 eax, DWORD PTR [edx+24]
  00033	89 41 18	 mov	 DWORD PTR [ecx+24], eax
  00036	8b 42 1c	 mov	 eax, DWORD PTR [edx+28]
  00039	89 41 1c	 mov	 DWORD PTR [ecx+28], eax
  0003c	8b 42 20	 mov	 eax, DWORD PTR [edx+32]
  0003f	89 41 20	 mov	 DWORD PTR [ecx+32], eax
  00042	8b c1		 mov	 eax, ecx
  00044	5d		 pop	 ebp
  00045	c2 04 00	 ret	 4
??0i3Stream@@QAE@ABV0@@Z ENDP				; i3Stream::i3Stream
_TEXT	ENDS
; Function compile flags: /Ogtp
; File E:\Proyectos\JuegosOnlineproyectos\PB\pbblow\Piercing Blow Remake\i3Server\include\i3Base\i3Stream.h
;	COMDAT ?GetRecordSize@i3Stream@@QAEIXZ
_TEXT	SEGMENT
?GetRecordSize@i3Stream@@QAEIXZ PROC			; i3Stream::GetRecordSize, COMDAT
; _this$ = ecx

; 58   : 	UINT32	GetRecordSize(void)							{ return m_RecordSize; }

  00000	8b 41 14	 mov	 eax, DWORD PTR [ecx+20]
  00003	c3		 ret	 0
?GetRecordSize@i3Stream@@QAEIXZ ENDP			; i3Stream::GetRecordSize
_TEXT	ENDS
; Function compile flags: /Ogtp
; File E:\Proyectos\JuegosOnlineproyectos\PB\pbblow\Piercing Blow Remake\i3Server\include\i3Base\i3Stream.h
;	COMDAT ?BeginRecord@i3Stream@@QAEXXZ
_TEXT	SEGMENT
?BeginRecord@i3Stream@@QAEXXZ PROC			; i3Stream::BeginRecord, COMDAT
; _this$ = ecx

; 57   : 	void	BeginRecord(void)							{ m_RecordSize = 0; }

  00000	c7 41 14 00 00
	00 00		 mov	 DWORD PTR [ecx+20], 0
  00007	c3		 ret	 0
?BeginRecord@i3Stream@@QAEXXZ ENDP			; i3Stream::BeginRecord
_TEXT	ENDS
; Function compile flags: /Ogtp
; File E:\Proyectos\JuegosOnlineproyectos\PB\pbblow\Piercing Blow Remake\i3Server\include\i3Base\i3Stream.h
;	COMDAT ?GetHandle@i3Stream@@UAEPAXXZ
_TEXT	SEGMENT
?GetHandle@i3Stream@@UAEPAXXZ PROC			; i3Stream::GetHandle, COMDAT
; _this$ = ecx

; 55   : 	virtual void *			GetHandle(void)				{ return m_pHandle; }

  00000	8b 41 20	 mov	 eax, DWORD PTR [ecx+32]
  00003	c3		 ret	 0
?GetHandle@i3Stream@@UAEPAXXZ ENDP			; i3Stream::GetHandle
_TEXT	ENDS
; Function compile flags: /Ogtp
; File E:\Proyectos\JuegosOnlineproyectos\PB\pbblow\Piercing Blow Remake\i3Server\include\i3Base\i3Stream.h
;	COMDAT ?GetAccessMode@i3Stream@@QAEHXZ
_TEXT	SEGMENT
?GetAccessMode@i3Stream@@QAEHXZ PROC			; i3Stream::GetAccessMode, COMDAT
; _this$ = ecx

; 53   : 	INT32			GetAccessMode(void)					{ return m_Access; }

  00000	8b 41 1c	 mov	 eax, DWORD PTR [ecx+28]
  00003	c3		 ret	 0
?GetAccessMode@i3Stream@@QAEHXZ ENDP			; i3Stream::GetAccessMode
_TEXT	ENDS
; Function compile flags: /Ogtp
; File E:\Proyectos\JuegosOnlineproyectos\PB\pbblow\Piercing Blow Remake\i3Server\include\i3Base\i3Stream.h
;	COMDAT ?GetLastError@i3Stream@@QAE?AW4STREAMCODE@1@XZ
_TEXT	SEGMENT
?GetLastError@i3Stream@@QAE?AW4STREAMCODE@1@XZ PROC	; i3Stream::GetLastError, COMDAT
; _this$ = ecx

; 52   : 	STREAMCODE		GetLastError(void)					{ return m_LastCode; }

  00000	8b 41 18	 mov	 eax, DWORD PTR [ecx+24]
  00003	c3		 ret	 0
?GetLastError@i3Stream@@QAE?AW4STREAMCODE@1@XZ ENDP	; i3Stream::GetLastError
_TEXT	ENDS
; Function compile flags: /Ogtp
; File E:\Proyectos\JuegosOnlineproyectos\PB\pbblow\Piercing Blow Remake\i3Server\include\i3Base\i3Stream.h
;	COMDAT ?GetSize@i3Stream@@QAEIXZ
_TEXT	SEGMENT
?GetSize@i3Stream@@QAEIXZ PROC				; i3Stream::GetSize, COMDAT
; _this$ = ecx

; 51   : 	UINT32			GetSize(void)						{ return m_Size; }

  00000	8b 41 10	 mov	 eax, DWORD PTR [ecx+16]
  00003	c3		 ret	 0
?GetSize@i3Stream@@QAEIXZ ENDP				; i3Stream::GetSize
_TEXT	ENDS
; Function compile flags: /Ogtp
; File E:\Proyectos\JuegosOnlineproyectos\PB\pbblow\Piercing Blow Remake\i3Server\include\i3Base\i3Stream.h
;	COMDAT ?GetClassMeta@i3Stream@@SAPAVi3ClassMeta@@XZ
_TEXT	SEGMENT
?GetClassMeta@i3Stream@@SAPAVi3ClassMeta@@XZ PROC	; i3Stream::GetClassMeta, COMDAT

; 24   : 	I3_ABSTRACT_CLASS_DEFINE( i3Stream);

  00000	a1 00 00 00 00	 mov	 eax, DWORD PTR ?s_pClassMetai3Stream@i3Stream@@2PAVi3ClassMeta@@A ; i3Stream::s_pClassMetai3Stream
  00005	c3		 ret	 0
?GetClassMeta@i3Stream@@SAPAVi3ClassMeta@@XZ ENDP	; i3Stream::GetClassMeta
_TEXT	ENDS
; Function compile flags: /Ogtp
;	COMDAT ??_Ei3MemoryPool@@UAEPAXI@Z
_TEXT	SEGMENT
__$EHRec$ = -12						; size = 12
___flags$ = 8						; size = 4
??_Ei3MemoryPool@@UAEPAXI@Z PROC			; i3MemoryPool::`vector deleting destructor', COMDAT
; _this$ = ecx
  00000	55		 push	 ebp
  00001	8b ec		 mov	 ebp, esp
  00003	6a ff		 push	 -1
  00005	68 00 00 00 00	 push	 __ehhandler$??_Ei3MemoryPool@@UAEPAXI@Z
  0000a	64 a1 00 00 00
	00		 mov	 eax, DWORD PTR fs:0
  00010	50		 push	 eax
  00011	53		 push	 ebx
  00012	56		 push	 esi
  00013	57		 push	 edi
  00014	a1 00 00 00 00	 mov	 eax, DWORD PTR ___security_cookie
  00019	33 c5		 xor	 eax, ebp
  0001b	50		 push	 eax
  0001c	8d 45 f4	 lea	 eax, DWORD PTR __$EHRec$[ebp]
  0001f	64 a3 00 00 00
	00		 mov	 DWORD PTR fs:0, eax
  00025	8b f1		 mov	 esi, ecx
  00027	8b 45 08	 mov	 eax, DWORD PTR ___flags$[ebp]
  0002a	8b f8		 mov	 edi, eax
  0002c	83 e7 01	 and	 edi, 1
  0002f	a8 02		 test	 al, 2
  00031	74 40		 je	 SHORT $LN2@vector
  00033	68 00 00 00 00	 push	 OFFSET ??1i3MemoryPool@@UAE@XZ ; i3MemoryPool::~i3MemoryPool
  00038	ff 76 fc	 push	 DWORD PTR [esi-4]
  0003b	8d 5e fc	 lea	 ebx, DWORD PTR [esi-4]
  0003e	6a 04		 push	 4
  00040	56		 push	 esi
  00041	e8 00 00 00 00	 call	 ??_M@YGXPAXIIP6EX0@Z@Z
  00046	85 ff		 test	 edi, edi
  00048	74 13		 je	 SHORT $LN3@vector
  0004a	8b 0b		 mov	 ecx, DWORD PTR [ebx]
  0004c	8d 0c 8d 04 00
	00 00		 lea	 ecx, DWORD PTR [ecx*4+4]
  00053	51		 push	 ecx
  00054	53		 push	 ebx
  00055	e8 00 00 00 00	 call	 ??_V@YAXPAXI@Z		; operator delete[]
  0005a	83 c4 08	 add	 esp, 8
$LN3@vector:
  0005d	8b c3		 mov	 eax, ebx
  0005f	8b 4d f4	 mov	 ecx, DWORD PTR __$EHRec$[ebp]
  00062	64 89 0d 00 00
	00 00		 mov	 DWORD PTR fs:0, ecx
  00069	59		 pop	 ecx
  0006a	5f		 pop	 edi
  0006b	5e		 pop	 esi
  0006c	5b		 pop	 ebx
  0006d	8b e5		 mov	 esp, ebp
  0006f	5d		 pop	 ebp
  00070	c2 04 00	 ret	 4
$LN2@vector:
  00073	e8 00 00 00 00	 call	 ??1i3MemoryPool@@UAE@XZ	; i3MemoryPool::~i3MemoryPool
  00078	85 ff		 test	 edi, edi
  0007a	74 0b		 je	 SHORT $LN4@vector
  0007c	6a 04		 push	 4
  0007e	56		 push	 esi
  0007f	e8 00 00 00 00	 call	 ??3@YAXPAXI@Z		; operator delete
  00084	83 c4 08	 add	 esp, 8
$LN4@vector:
  00087	8b c6		 mov	 eax, esi
  00089	8b 4d f4	 mov	 ecx, DWORD PTR __$EHRec$[ebp]
  0008c	64 89 0d 00 00
	00 00		 mov	 DWORD PTR fs:0, ecx
  00093	59		 pop	 ecx
  00094	5f		 pop	 edi
  00095	5e		 pop	 esi
  00096	5b		 pop	 ebx
  00097	8b e5		 mov	 esp, ebp
  00099	5d		 pop	 ebp
  0009a	c2 04 00	 ret	 4
  0009d	cc		 int	 3
  0009e	cc		 int	 3
  0009f	cc		 int	 3
  000a0	cc		 int	 3
  000a1	cc		 int	 3
_TEXT	ENDS
;	COMDAT text$x
text$x	SEGMENT
__ehhandler$??_Ei3MemoryPool@@UAEPAXI@Z:
  00000	90		 npad	 1
  00001	90		 npad	 1
  00002	8b 54 24 08	 mov	 edx, DWORD PTR [esp+8]
  00006	8d 42 0c	 lea	 eax, DWORD PTR [edx+12]
  00009	8b 4a f0	 mov	 ecx, DWORD PTR [edx-16]
  0000c	33 c8		 xor	 ecx, eax
  0000e	e8 00 00 00 00	 call	 @__security_check_cookie@4
  00013	b8 00 00 00 00	 mov	 eax, OFFSET __ehfuncinfo$??_Ei3MemoryPool@@UAEPAXI@Z
  00018	e9 00 00 00 00	 jmp	 ___CxxFrameHandler3
text$x	ENDS
??_Ei3MemoryPool@@UAEPAXI@Z ENDP			; i3MemoryPool::`vector deleting destructor'
; Function compile flags: /Ogtp
;	COMDAT ??_Gi3MemoryPool@@UAEPAXI@Z
_TEXT	SEGMENT
___flags$ = 8						; size = 4
??_Gi3MemoryPool@@UAEPAXI@Z PROC			; i3MemoryPool::`scalar deleting destructor', COMDAT
; _this$ = ecx
  00000	55		 push	 ebp
  00001	8b ec		 mov	 ebp, esp
  00003	56		 push	 esi
  00004	8b f1		 mov	 esi, ecx
  00006	e8 00 00 00 00	 call	 ??1i3MemoryPool@@UAE@XZ	; i3MemoryPool::~i3MemoryPool
  0000b	f6 45 08 01	 test	 BYTE PTR ___flags$[ebp], 1
  0000f	74 0b		 je	 SHORT $LN5@scalar
  00011	6a 04		 push	 4
  00013	56		 push	 esi
  00014	e8 00 00 00 00	 call	 ??3@YAXPAXI@Z		; operator delete
  00019	83 c4 08	 add	 esp, 8
$LN5@scalar:
  0001c	8b c6		 mov	 eax, esi
  0001e	5e		 pop	 esi
  0001f	5d		 pop	 ebp
  00020	c2 04 00	 ret	 4
??_Gi3MemoryPool@@UAEPAXI@Z ENDP			; i3MemoryPool::`scalar deleting destructor'
_TEXT	ENDS
; Function compile flags: /Ogtp
;	COMDAT ??4i3MemoryPool@@QAEAAV0@ABV0@@Z
_TEXT	SEGMENT
___that$ = 8						; size = 4
??4i3MemoryPool@@QAEAAV0@ABV0@@Z PROC			; i3MemoryPool::operator=, COMDAT
; _this$ = ecx
  00000	8b c1		 mov	 eax, ecx
  00002	c2 04 00	 ret	 4
??4i3MemoryPool@@QAEAAV0@ABV0@@Z ENDP			; i3MemoryPool::operator=
_TEXT	ENDS
; Function compile flags: /Ogtp
;	COMDAT ??0i3MemoryPool@@QAE@ABV0@@Z
_TEXT	SEGMENT
___that$ = 8						; size = 4
??0i3MemoryPool@@QAE@ABV0@@Z PROC			; i3MemoryPool::i3MemoryPool, COMDAT
; _this$ = ecx
  00000	c7 01 00 00 00
	00		 mov	 DWORD PTR [ecx], OFFSET ??_7i3MemoryPool@@6B@
  00006	8b c1		 mov	 eax, ecx
  00008	c2 04 00	 ret	 4
??0i3MemoryPool@@QAE@ABV0@@Z ENDP			; i3MemoryPool::i3MemoryPool
_TEXT	ENDS
; Function compile flags: /Ogtp
; File E:\Proyectos\JuegosOnlineproyectos\PB\pbblow\Piercing Blow Remake\i3Server\src\i3Base\i3CompressHuffman.cpp
;	COMDAT ?DecodeFile@i3CompressHuffman@@YAHPBD0@Z
_TEXT	SEGMENT
_pszDest$GSCopy$1$ = -352				; size = 4
_bitpos$1$ = -348					; size = 4
tv478 = -344						; size = 4
tv480 = -340						; size = 4
_bufofs$1$ = -336					; size = 4
_count$1$ = -332					; size = 4
_stream$ = -328						; size = 312
__$ArrayPad$ = -16					; size = 4
__$EHRec$ = -12						; size = 12
_pszSrc$ = 8						; size = 4
_pszDest$ = 12						; size = 4
?DecodeFile@i3CompressHuffman@@YAHPBD0@Z PROC		; i3CompressHuffman::DecodeFile, COMDAT

; 714  : {

  00000	55		 push	 ebp
  00001	8b ec		 mov	 ebp, esp
  00003	6a ff		 push	 -1
  00005	68 00 00 00 00	 push	 __ehhandler$?DecodeFile@i3CompressHuffman@@YAHPBD0@Z
  0000a	64 a1 00 00 00
	00		 mov	 eax, DWORD PTR fs:0
  00010	50		 push	 eax
  00011	81 ec 54 01 00
	00		 sub	 esp, 340		; 00000154H
  00017	a1 00 00 00 00	 mov	 eax, DWORD PTR ___security_cookie
  0001c	33 c5		 xor	 eax, ebp
  0001e	89 45 f0	 mov	 DWORD PTR __$ArrayPad$[ebp], eax
  00021	53		 push	 ebx
  00022	56		 push	 esi
  00023	57		 push	 edi
  00024	50		 push	 eax
  00025	8d 45 f4	 lea	 eax, DWORD PTR __$EHRec$[ebp]
  00028	64 a3 00 00 00
	00		 mov	 DWORD PTR fs:0, eax
  0002e	8b 45 0c	 mov	 eax, DWORD PTR _pszDest$[ebp]

; 715  : 	i3FileStream stream;

  00031	8d 8d b8 fe ff
	ff		 lea	 ecx, DWORD PTR _stream$[ebp]
  00037	8b 5d 08	 mov	 ebx, DWORD PTR _pszSrc$[ebp]
  0003a	89 85 a0 fe ff
	ff		 mov	 DWORD PTR _pszDest$GSCopy$1$[ebp], eax
  00040	e8 00 00 00 00	 call	 ??0i3FileStream@@QAE@XZ	; i3FileStream::i3FileStream

; 716  : 	BOOL Rv;
; 717  : 	char * pSrcBuf, * pDestBuf;	
; 718  : 	UINT32 Rc, SrcSize, DestSize;
; 719  : 
; 720  : 	Rv = stream.Open( pszSrc, STREAM_READ | STREAM_SHAREREAD);

  00045	6a 00		 push	 0
  00047	6a 05		 push	 5
  00049	53		 push	 ebx
  0004a	8d 8d b8 fe ff
	ff		 lea	 ecx, DWORD PTR _stream$[ebp]
  00050	c7 45 fc 00 00
	00 00		 mov	 DWORD PTR __$EHRec$[ebp+8], 0
  00057	e8 00 00 00 00	 call	 ?Open@i3FileStream@@UAEHPBDHI@Z ; i3FileStream::Open

; 721  : 	if( Rv == FALSE)

  0005c	85 c0		 test	 eax, eax
  0005e	75 1b		 jne	 SHORT $LN2@DecodeFile

; 722  : 	{
; 723  : 		i3Log( "i3CompressHuffman::DecodeFile()", "Could not open %s source file.", pszSrc);

  00060	b8 00 00 00 00	 mov	 eax, OFFSET ??_C@_0BP@LNMNKIJ@Could?5not?5open?5?$CFs?5source?5file?4@
  00065	53		 push	 ebx
  00066	50		 push	 eax
  00067	68 00 00 00 00	 push	 OFFSET ??_C@_0CA@OJMPBHKM@i3CompressHuffman?3?3DecodeFile?$CI?$CJ@
  0006c	e8 00 00 00 00	 call	 ?i3Log@@YAXPBD0ZZ	; i3Log

; 763  : 		I3MEM_SAFE_FREE( pDestBuf);

  00071	83 c4 0c	 add	 esp, 12			; 0000000cH
  00074	33 f6		 xor	 esi, esi
  00076	e9 0d 02 00 00	 jmp	 $LN13@DecodeFile
$LN2@DecodeFile:

; 724  : 		return FALSE;
; 725  : 	}
; 726  : 
; 727  : 	SrcSize = stream.GetSize();

  0007b	8b b5 c8 fe ff
	ff		 mov	 esi, DWORD PTR _stream$[ebp+16]

; 728  : 	s_SourceSize = SrcSize;
; 729  : 
; 730  : 	//INT32 hMem;
; 731  : 	//hMem = i3MemAlloc( SrcSize);
; 732  : 	pSrcBuf = (char *) i3MemAlloc( SrcSize);

  00081	68 dc 02 00 00	 push	 732			; 000002dcH
  00086	68 00 00 00 00	 push	 OFFSET ??_C@_0GM@GBOMBOHL@E?3?2Proyectos?2JuegosOnlineproyec@
  0008b	6a 10		 push	 16			; 00000010H
  0008d	6a 00		 push	 0
  0008f	56		 push	 esi
  00090	89 35 00 00 00
	00		 mov	 DWORD PTR ?s_SourceSize@@3IA, esi
  00096	e8 00 00 00 00	 call	 ?AllocTool@i3mem@@YAPAXHHHPBDH@Z ; i3mem::AllocTool
  0009b	83 c4 14	 add	 esp, 20			; 00000014H

; 733  : 
; 734  : 	Rc = stream.Read( pSrcBuf, SrcSize);

  0009e	8d 8d b8 fe ff
	ff		 lea	 ecx, DWORD PTR _stream$[ebp]
  000a4	8b f8		 mov	 edi, eax
  000a6	56		 push	 esi
  000a7	57		 push	 edi
  000a8	e8 00 00 00 00	 call	 ?Read@i3FileStream@@UAEIPAXH@Z ; i3FileStream::Read

; 735  : 
; 736  : 	stream.Close();

  000ad	8d 8d b8 fe ff
	ff		 lea	 ecx, DWORD PTR _stream$[ebp]
  000b3	8b f0		 mov	 esi, eax
  000b5	e8 00 00 00 00	 call	 ?Close@i3FileStream@@UAEHXZ ; i3FileStream::Close

; 737  : 
; 738  : 	if( Rc == STREAM_ERR)

  000ba	83 fe ff	 cmp	 esi, -1
  000bd	75 1b		 jne	 SHORT $LN3@DecodeFile

; 739  : 	{
; 740  : 		i3Log( "i3CompressHuffman::DecodeFile()", "Could not read %s source file", pszSrc);
; 741  : 		
; 742  : 		return FALSE;

  000bf	b8 00 00 00 00	 mov	 eax, OFFSET ??_C@_0BO@JJAILGGH@Could?5not?5read?5?$CFs?5source?5file@
  000c4	53		 push	 ebx
  000c5	50		 push	 eax
  000c6	68 00 00 00 00	 push	 OFFSET ??_C@_0CA@OJMPBHKM@i3CompressHuffman?3?3DecodeFile?$CI?$CJ@
  000cb	e8 00 00 00 00	 call	 ?i3Log@@YAXPBD0ZZ	; i3Log

; 763  : 		I3MEM_SAFE_FREE( pDestBuf);

  000d0	83 c4 0c	 add	 esp, 12			; 0000000cH
  000d3	33 f6		 xor	 esi, esi
  000d5	e9 ae 01 00 00	 jmp	 $LN13@DecodeFile
$LN3@DecodeFile:

; 645  : 	if(header->m_AccessTblCount-1 <= AccessUnit) return NULL;

  000da	8b 47 14	 mov	 eax, DWORD PTR [edi+20]
  000dd	83 e8 01	 sub	 eax, 1
  000e0	75 07		 jne	 SHORT $LN15@DecodeFile
  000e2	33 ff		 xor	 edi, edi
  000e4	e9 fc 00 00 00	 jmp	 $LN14@DecodeFile
$LN15@DecodeFile:

; 566  : 	UINT32 access_tbl_ofs  = header->m_HeaderSize+header->m_FlagSize;

  000e9	8b 0f		 mov	 ecx, DWORD PTR [edi]
  000eb	8b 47 04	 mov	 eax, DWORD PTR [edi+4]

; 570  : 	pDecodeTable->access_table   = (UINT8 *)(pData+access_tbl_ofs);
; 571  : 	pDecodeTable->data           = (UINT8 *)(pData+data_ofs);

  000ee	8b 57 18	 mov	 edx, DWORD PTR [edi+24]
  000f1	03 c1		 add	 eax, ecx
  000f3	03 d0		 add	 edx, eax

; 582  : 	UINT32   bufofs = 0;

  000f5	c7 85 b0 fe ff
	ff 00 00 00 00	 mov	 DWORD PTR _bufofs$1$[ebp], 0

; 571  : 	pDecodeTable->data           = (UINT8 *)(pData+data_ofs);

  000ff	03 d7		 add	 edx, edi
  00101	8d 34 39	 lea	 esi, DWORD PTR [ecx+edi]
  00104	89 95 a8 fe ff
	ff		 mov	 DWORD PTR tv478[ebp], edx

; 589  : 	memcpy( &bitpos, pDecodeTable->access_table+(AccessUnit  )*4, 4);

  0010a	8b 1c 38	 mov	 ebx, DWORD PTR [eax+edi]

; 590  : 	memcpy( &endbit, pDecodeTable->access_table+(AccessUnit+1)*4, 4);

  0010d	8b 44 38 04	 mov	 eax, DWORD PTR [eax+edi+4]
  00111	89 85 b4 fe ff
	ff		 mov	 DWORD PTR _count$1$[ebp], eax

; 591  : 
; 592  : 	header = (I3_HUFFMAN_HEADER *)(pData);
; 593  : 
; 594  : 	if(header->m_UnitDecSize == 0) return NULL;

  00117	8b 47 10	 mov	 eax, DWORD PTR [edi+16]

; 569  : 	pDecodeTable->tree_table     = (TREE_TABLE *)(pData+flag_tbl_ofs);

  0011a	89 b5 ac fe ff
	ff		 mov	 DWORD PTR tv480[ebp], esi

; 589  : 	memcpy( &bitpos, pDecodeTable->access_table+(AccessUnit  )*4, 4);

  00120	89 9d a4 fe ff
	ff		 mov	 DWORD PTR _bitpos$1$[ebp], ebx

; 591  : 
; 592  : 	header = (I3_HUFFMAN_HEADER *)(pData);
; 593  : 
; 594  : 	if(header->m_UnitDecSize == 0) return NULL;

  00126	85 c0		 test	 eax, eax
  00128	75 07		 jne	 SHORT $LN23@DecodeFile
  0012a	33 ff		 xor	 edi, edi
  0012c	e9 b4 00 00 00	 jmp	 $LN14@DecodeFile
$LN23@DecodeFile:

; 595  : 
; 596  : 	{
; 597  : //		INT32 hMem;
; 598  : //		hMem = i3MemAlloc( header->m_UnitDecSize);
; 599  : 		buf = (UINT8 *) i3MemAlloc( header->m_UnitDecSize);

  00131	68 57 02 00 00	 push	 599			; 00000257H
  00136	68 00 00 00 00	 push	 OFFSET ??_C@_0GM@GBOMBOHL@E?3?2Proyectos?2JuegosOnlineproyec@
  0013b	6a 10		 push	 16			; 00000010H
  0013d	6a 00		 push	 0
  0013f	50		 push	 eax
  00140	e8 00 00 00 00	 call	 ?AllocTool@i3mem@@YAPAXHHHPBDH@Z ; i3mem::AllocTool
  00145	8b f8		 mov	 edi, eax
  00147	83 c4 14	 add	 esp, 20			; 00000014H

; 600  : 		if(buf == NULL) return NULL;

  0014a	85 ff		 test	 edi, edi
  0014c	0f 84 93 00 00
	00		 je	 $LN14@DecodeFile
$LN24@DecodeFile:

; 601  : 	}
; 602  : 
; 603  : 	root_branch = tree_table[0].tree_branch;
; 604  : 	branch      = root_branch;
; 605  : 
; 606  : 	data  = (UINT16 *) pDecodeTable->data;
; 607  : 
; 608  : 	idx   = bitpos >> 4;
; 609  : 	val   = (data[idx] | 0x10000) >> (bitpos & 15);

  00152	8b 85 a8 fe ff
	ff		 mov	 eax, DWORD PTR tv478[ebp]
  00158	83 c6 02	 add	 esi, 2
  0015b	c1 eb 04	 shr	 ebx, 4
  0015e	0f b7 14 58	 movzx	 edx, WORD PTR [eax+ebx*2]
  00162	8b 85 a4 fe ff
	ff		 mov	 eax, DWORD PTR _bitpos$1$[ebp]
  00168	81 ca 00 00 01
	00		 or	 edx, 65536		; 00010000H
  0016e	8b c8		 mov	 ecx, eax
  00170	83 e1 0f	 and	 ecx, 15			; 0000000fH
  00173	d3 fa		 sar	 edx, cl

; 610  : 	count = endbit - bitpos;

  00175	29 85 b4 fe ff
	ff		 sub	 DWORD PTR _count$1$[ebp], eax
  0017b	eb 03 8d 49 00	 npad	 5
$LL22@DecodeFile:

; 611  : 
; 612  : 	do 
; 613  : 	{
; 614  : 		tree_id = branch[val & 1];
; 615  : 		branch  = tree_table[tree_id].tree_branch;

  00180	8b 8d ac fe ff
	ff		 mov	 ecx, DWORD PTR tv480[ebp]
  00186	8b c2		 mov	 eax, edx
  00188	83 e0 01	 and	 eax, 1
  0018b	0f b7 04 46	 movzx	 eax, WORD PTR [esi+eax*2]
  0018f	8d 34 45 01 00
	00 00		 lea	 esi, DWORD PTR [eax*2+1]
  00196	03 f0		 add	 esi, eax

; 616  : 
; 617  : 		if(branch[0] == 0) 

  00198	66 83 3c 71 00	 cmp	 WORD PTR [ecx+esi*2], 0
  0019d	8d 34 71	 lea	 esi, DWORD PTR [ecx+esi*2]
  001a0	8b 8d b0 fe ff
	ff		 mov	 ecx, DWORD PTR _bufofs$1$[ebp]
  001a6	75 16		 jne	 SHORT $LN25@DecodeFile

; 618  : 		{
; 619  : 			memcpy( buf + bufofs, &branch[1], sizeof(HM_DATA));

  001a8	8a 46 02	 mov	 al, BYTE PTR [esi+2]

; 620  : 			bufofs += sizeof(HM_DATA);
; 621  : 			branch  = root_branch;

  001ab	8b b5 ac fe ff
	ff		 mov	 esi, DWORD PTR tv480[ebp]
  001b1	88 04 0f	 mov	 BYTE PTR [edi+ecx], al
  001b4	41		 inc	 ecx
  001b5	89 8d b0 fe ff
	ff		 mov	 DWORD PTR _bufofs$1$[ebp], ecx
  001bb	83 c6 02	 add	 esi, 2
$LN25@DecodeFile:

; 622  : 		}
; 623  : 
; 624  : 		if((val >>= 1) == 1)

  001be	d1 ea		 shr	 edx, 1
  001c0	83 fa 01	 cmp	 edx, 1
  001c3	75 11		 jne	 SHORT $LN20@DecodeFile

; 625  : 		{
; 626  : 			idx += 1;
; 627  : 			val  = data[idx] | 0x10000;

  001c5	8b 85 a8 fe ff
	ff		 mov	 eax, DWORD PTR tv478[ebp]
  001cb	43		 inc	 ebx
  001cc	0f b7 14 58	 movzx	 edx, WORD PTR [eax+ebx*2]
  001d0	81 ca 00 00 01
	00		 or	 edx, 65536		; 00010000H
$LN20@DecodeFile:

; 628  : 		}
; 629  : 	} while(--count != 0);

  001d6	83 ad b4 fe ff
	ff 01		 sub	 DWORD PTR _count$1$[ebp], 1
  001dd	75 a1		 jne	 SHORT $LL22@DecodeFile

; 630  : 
; 631  : 	s_ResultSize = bufofs;

  001df	89 0d 00 00 00
	00		 mov	 DWORD PTR ?s_ResultSize@@3IA, ecx
$LN14@DecodeFile:

; 743  : 	}
; 744  : 
; 745  : 	pDestBuf = (char *) Decode( (UINT8 *) pSrcBuf, 0);
; 746  : 	DestSize = GetResultSize();
; 747  : 
; 748  : 	Rv = stream.Create( pszDest, STREAM_WRITE);

  001e5	8b 9d a0 fe ff
	ff		 mov	 ebx, DWORD PTR _pszDest$GSCopy$1$[ebp]
  001eb	8d 8d b8 fe ff
	ff		 lea	 ecx, DWORD PTR _stream$[ebp]
  001f1	8b 35 00 00 00
	00		 mov	 esi, DWORD PTR ?s_ResultSize@@3IA
  001f7	6a 00		 push	 0
  001f9	6a 02		 push	 2
  001fb	53		 push	 ebx
  001fc	e8 00 00 00 00	 call	 ?Create@i3FileStream@@UAEHPBDHI@Z ; i3FileStream::Create

; 749  : 	if( Rv == FALSE)

  00201	85 c0		 test	 eax, eax
  00203	75 1e		 jne	 SHORT $LN4@DecodeFile

; 750  : 	{
; 751  : 		i3Log( "i3CompressHuffman::DecodeFile()", "Could not create %s destination file.", pszDest);

  00205	53		 push	 ebx
  00206	68 00 00 00 00	 push	 OFFSET ??_C@_0CG@COMLHA@Could?5not?5create?5?$CFs?5destination@
  0020b	68 00 00 00 00	 push	 OFFSET ??_C@_0CA@OJMPBHKM@i3CompressHuffman?3?3DecodeFile?$CI?$CJ@
  00210	e8 00 00 00 00	 call	 ?i3Log@@YAXPBD0ZZ	; i3Log
  00215	83 c4 0c	 add	 esp, 12			; 0000000cH

; 752  : 		I3MEM_SAFE_FREE( pDestBuf);

  00218	85 ff		 test	 edi, edi
  0021a	74 50		 je	 SHORT $LN7@DecodeFile
  0021c	68 f0 02 00 00	 push	 752			; 000002f0H
  00221	eb 3b		 jmp	 SHORT $LN35@DecodeFile
$LN4@DecodeFile:

; 753  : 		return FALSE;
; 754  : 	}
; 755  : 	
; 756  : 	Rc = stream.Write( pDestBuf, DestSize);

  00223	56		 push	 esi
  00224	57		 push	 edi
  00225	8d 8d b8 fe ff
	ff		 lea	 ecx, DWORD PTR _stream$[ebp]
  0022b	e8 00 00 00 00	 call	 ?Write@i3FileStream@@UAEIPBXH@Z ; i3FileStream::Write

; 757  : 
; 758  : 	stream.Close();

  00230	8d 8d b8 fe ff
	ff		 lea	 ecx, DWORD PTR _stream$[ebp]
  00236	8b f0		 mov	 esi, eax
  00238	e8 00 00 00 00	 call	 ?Close@i3FileStream@@UAEHXZ ; i3FileStream::Close

; 759  : 
; 760  : 	if( Rc == STREAM_ERR)

  0023d	83 fe ff	 cmp	 esi, -1
  00240	75 2e		 jne	 SHORT $LN6@DecodeFile

; 761  : 	{
; 762  : 		i3Log( "i3CompressHuffman::DecodeFile()", "Could not write %s destination file.", pszDest);

  00242	53		 push	 ebx
  00243	68 00 00 00 00	 push	 OFFSET ??_C@_0CF@KHAPMPGI@Could?5not?5write?5?$CFs?5destination?5@
  00248	68 00 00 00 00	 push	 OFFSET ??_C@_0CA@OJMPBHKM@i3CompressHuffman?3?3DecodeFile?$CI?$CJ@
  0024d	e8 00 00 00 00	 call	 ?i3Log@@YAXPBD0ZZ	; i3Log
  00252	83 c4 0c	 add	 esp, 12			; 0000000cH

; 763  : 		I3MEM_SAFE_FREE( pDestBuf);

  00255	85 ff		 test	 edi, edi
  00257	74 13		 je	 SHORT $LN7@DecodeFile
  00259	68 fb 02 00 00	 push	 763			; 000002fbH
$LN35@DecodeFile:
  0025e	68 00 00 00 00	 push	 OFFSET ??_C@_0GM@GBOMBOHL@E?3?2Proyectos?2JuegosOnlineproyec@
  00263	57		 push	 edi
  00264	e8 00 00 00 00	 call	 ?FreeTool@i3mem@@YAXPAXPBDH@Z ; i3mem::FreeTool
  00269	83 c4 0c	 add	 esp, 12			; 0000000cH
$LN7@DecodeFile:
  0026c	33 f6		 xor	 esi, esi
  0026e	eb 18		 jmp	 SHORT $LN13@DecodeFile
$LN6@DecodeFile:

; 764  : 		return FALSE;
; 765  : 	}
; 766  : 
; 767  : 	i3MemFree( pDestBuf);

  00270	68 ff 02 00 00	 push	 767			; 000002ffH
  00275	68 00 00 00 00	 push	 OFFSET ??_C@_0GM@GBOMBOHL@E?3?2Proyectos?2JuegosOnlineproyec@
  0027a	57		 push	 edi
  0027b	e8 00 00 00 00	 call	 ?FreeTool@i3mem@@YAXPAXPBDH@Z ; i3mem::FreeTool
  00280	83 c4 0c	 add	 esp, 12			; 0000000cH

; 768  : 
; 769  : 	return TRUE;

  00283	be 01 00 00 00	 mov	 esi, 1
$LN13@DecodeFile:
  00288	8d 8d b8 fe ff
	ff		 lea	 ecx, DWORD PTR _stream$[ebp]
  0028e	e8 00 00 00 00	 call	 ??1i3FileStream@@UAE@XZ	; i3FileStream::~i3FileStream
  00293	8b c6		 mov	 eax, esi

; 770  : }

  00295	8b 4d f4	 mov	 ecx, DWORD PTR __$EHRec$[ebp]
  00298	64 89 0d 00 00
	00 00		 mov	 DWORD PTR fs:0, ecx
  0029f	59		 pop	 ecx
  002a0	5f		 pop	 edi
  002a1	5e		 pop	 esi
  002a2	5b		 pop	 ebx
  002a3	8b 4d f0	 mov	 ecx, DWORD PTR __$ArrayPad$[ebp]
  002a6	33 cd		 xor	 ecx, ebp
  002a8	e8 00 00 00 00	 call	 @__security_check_cookie@4
  002ad	8b e5		 mov	 esp, ebp
  002af	5d		 pop	 ebp
  002b0	c3		 ret	 0
_TEXT	ENDS
;	COMDAT text$x
text$x	SEGMENT
__unwindfunclet$?DecodeFile@i3CompressHuffman@@YAHPBD0@Z$0:
  00000	8d 8d b8 fe ff
	ff		 lea	 ecx, DWORD PTR _stream$[ebp]
  00006	e9 00 00 00 00	 jmp	 ??1i3FileStream@@UAE@XZ	; i3FileStream::~i3FileStream
  0000b	cc		 int	 3
  0000c	cc		 int	 3
  0000d	cc		 int	 3
  0000e	cc		 int	 3
  0000f	cc		 int	 3
__ehhandler$?DecodeFile@i3CompressHuffman@@YAHPBD0@Z:
  00010	90		 npad	 1
  00011	90		 npad	 1
  00012	8b 54 24 08	 mov	 edx, DWORD PTR [esp+8]
  00016	8d 42 0c	 lea	 eax, DWORD PTR [edx+12]
  00019	8b 8a 9c fe ff
	ff		 mov	 ecx, DWORD PTR [edx-356]
  0001f	33 c8		 xor	 ecx, eax
  00021	e8 00 00 00 00	 call	 @__security_check_cookie@4
  00026	8b 4a fc	 mov	 ecx, DWORD PTR [edx-4]
  00029	33 c8		 xor	 ecx, eax
  0002b	e8 00 00 00 00	 call	 @__security_check_cookie@4
  00030	b8 00 00 00 00	 mov	 eax, OFFSET __ehfuncinfo$?DecodeFile@i3CompressHuffman@@YAHPBD0@Z
  00035	e9 00 00 00 00	 jmp	 ___CxxFrameHandler3
text$x	ENDS
?DecodeFile@i3CompressHuffman@@YAHPBD0@Z ENDP		; i3CompressHuffman::DecodeFile
; Function compile flags: /Ogtp
; File E:\Proyectos\JuegosOnlineproyectos\PB\pbblow\Piercing Blow Remake\i3Server\src\i3Base\i3CompressHuffman.cpp
;	COMDAT ?EncodeFile@i3CompressHuffman@@YAHPBD0@Z
_TEXT	SEGMENT
_pSrcBuf$1$ = -336					; size = 4
_SrcSize$1$ = -332					; size = 4
_stream$ = -328						; size = 312
__$ArrayPad$ = -16					; size = 4
__$EHRec$ = -12						; size = 12
_pszSrc$ = 8						; size = 4
_pszDest$ = 12						; size = 4
?EncodeFile@i3CompressHuffman@@YAHPBD0@Z PROC		; i3CompressHuffman::EncodeFile, COMDAT

; 655  : {

  00000	55		 push	 ebp
  00001	8b ec		 mov	 ebp, esp
  00003	6a ff		 push	 -1
  00005	68 00 00 00 00	 push	 __ehhandler$?EncodeFile@i3CompressHuffman@@YAHPBD0@Z
  0000a	64 a1 00 00 00
	00		 mov	 eax, DWORD PTR fs:0
  00010	50		 push	 eax
  00011	81 ec 44 01 00
	00		 sub	 esp, 324		; 00000144H
  00017	a1 00 00 00 00	 mov	 eax, DWORD PTR ___security_cookie
  0001c	33 c5		 xor	 eax, ebp
  0001e	89 45 f0	 mov	 DWORD PTR __$ArrayPad$[ebp], eax
  00021	53		 push	 ebx
  00022	56		 push	 esi
  00023	57		 push	 edi
  00024	50		 push	 eax
  00025	8d 45 f4	 lea	 eax, DWORD PTR __$EHRec$[ebp]
  00028	64 a3 00 00 00
	00		 mov	 DWORD PTR fs:0, eax
  0002e	8b 7d 08	 mov	 edi, DWORD PTR _pszSrc$[ebp]

; 656  : 	i3FileStream stream;

  00031	8d 8d b8 fe ff
	ff		 lea	 ecx, DWORD PTR _stream$[ebp]
  00037	8b 5d 0c	 mov	 ebx, DWORD PTR _pszDest$[ebp]
  0003a	e8 00 00 00 00	 call	 ??0i3FileStream@@QAE@XZ	; i3FileStream::i3FileStream

; 657  : 	BOOL Rv;
; 658  : 	char * pSrcBuf, * pDestBuf;	
; 659  : 	UINT32 Rc, SrcSize, DestSize;
; 660  : 
; 661  : 	Rv = stream.Open( pszSrc, STREAM_READ | STREAM_SHAREREAD);

  0003f	6a 00		 push	 0
  00041	6a 05		 push	 5
  00043	57		 push	 edi
  00044	8d 8d b8 fe ff
	ff		 lea	 ecx, DWORD PTR _stream$[ebp]
  0004a	c7 45 fc 00 00
	00 00		 mov	 DWORD PTR __$EHRec$[ebp+8], 0
  00051	e8 00 00 00 00	 call	 ?Open@i3FileStream@@UAEHPBDHI@Z ; i3FileStream::Open

; 662  : 	if( Rv == FALSE)

  00056	85 c0		 test	 eax, eax
  00058	75 1b		 jne	 SHORT $LN2@EncodeFile

; 663  : 	{
; 664  : 		i3Log( "i3CompressHuffman::EncodeFile()", "Could not open %s source file.", pszSrc);

  0005a	b8 00 00 00 00	 mov	 eax, OFFSET ??_C@_0BP@LNMNKIJ@Could?5not?5open?5?$CFs?5source?5file?4@
  0005f	57		 push	 edi
  00060	50		 push	 eax
  00061	68 00 00 00 00	 push	 OFFSET ??_C@_0CA@EFMLGKCH@i3CompressHuffman?3?3EncodeFile?$CI?$CJ@
  00066	e8 00 00 00 00	 call	 ?i3Log@@YAXPBD0ZZ	; i3Log

; 704  : 		I3MEM_SAFE_FREE( pDestBuf);

  0006b	83 c4 0c	 add	 esp, 12			; 0000000cH
  0006e	33 f6		 xor	 esi, esi
  00070	e9 1e 01 00 00	 jmp	 $LN13@EncodeFile
$LN2@EncodeFile:

; 665  : 		return FALSE;
; 666  : 	}
; 667  : 
; 668  : 	SrcSize = stream.GetSize();

  00075	8b b5 c8 fe ff
	ff		 mov	 esi, DWORD PTR _stream$[ebp+16]

; 669  : 	s_SourceSize = SrcSize;
; 670  : 
; 671  : 	//INT32 hMem;
; 672  : 	//hMem = i3MemAlloc( SrcSize);
; 673  : 	pSrcBuf = (char *) i3MemAlloc( SrcSize);

  0007b	68 a1 02 00 00	 push	 673			; 000002a1H
  00080	68 00 00 00 00	 push	 OFFSET ??_C@_0GM@GBOMBOHL@E?3?2Proyectos?2JuegosOnlineproyec@
  00085	6a 10		 push	 16			; 00000010H
  00087	6a 00		 push	 0
  00089	56		 push	 esi
  0008a	89 b5 b4 fe ff
	ff		 mov	 DWORD PTR _SrcSize$1$[ebp], esi
  00090	89 35 00 00 00
	00		 mov	 DWORD PTR ?s_SourceSize@@3IA, esi
  00096	e8 00 00 00 00	 call	 ?AllocTool@i3mem@@YAPAXHHHPBDH@Z ; i3mem::AllocTool
  0009b	83 c4 14	 add	 esp, 20			; 00000014H
  0009e	89 85 b0 fe ff
	ff		 mov	 DWORD PTR _pSrcBuf$1$[ebp], eax

; 674  : 
; 675  : 	Rc = stream.Read( pSrcBuf, SrcSize);

  000a4	8d 8d b8 fe ff
	ff		 lea	 ecx, DWORD PTR _stream$[ebp]
  000aa	56		 push	 esi
  000ab	50		 push	 eax
  000ac	e8 00 00 00 00	 call	 ?Read@i3FileStream@@UAEIPAXH@Z ; i3FileStream::Read

; 676  : 
; 677  : 	stream.Close();

  000b1	8d 8d b8 fe ff
	ff		 lea	 ecx, DWORD PTR _stream$[ebp]
  000b7	8b f0		 mov	 esi, eax
  000b9	e8 00 00 00 00	 call	 ?Close@i3FileStream@@UAEHXZ ; i3FileStream::Close

; 678  : 
; 679  : 	if( Rc == STREAM_ERR)

  000be	83 fe ff	 cmp	 esi, -1
  000c1	75 1b		 jne	 SHORT $LN3@EncodeFile

; 680  : 	{
; 681  : 		i3Log( "i3CompressHuffman::EncodeFile()", "Could not read %s source file", pszSrc);
; 682  : 		
; 683  : 		return FALSE;

  000c3	b8 00 00 00 00	 mov	 eax, OFFSET ??_C@_0BO@JJAILGGH@Could?5not?5read?5?$CFs?5source?5file@
  000c8	57		 push	 edi
  000c9	50		 push	 eax
  000ca	68 00 00 00 00	 push	 OFFSET ??_C@_0CA@EFMLGKCH@i3CompressHuffman?3?3EncodeFile?$CI?$CJ@
  000cf	e8 00 00 00 00	 call	 ?i3Log@@YAXPBD0ZZ	; i3Log

; 704  : 		I3MEM_SAFE_FREE( pDestBuf);

  000d4	83 c4 0c	 add	 esp, 12			; 0000000cH
  000d7	33 f6		 xor	 esi, esi
  000d9	e9 b5 00 00 00	 jmp	 $LN13@EncodeFile
$LN3@EncodeFile:

; 684  : 	}
; 685  : 
; 686  : 	pDestBuf = (char *) Encode( (UINT8 *) pSrcBuf, SrcSize, 0);

  000de	6a 00		 push	 0
  000e0	ff b5 b4 fe ff
	ff		 push	 DWORD PTR _SrcSize$1$[ebp]
  000e6	ff b5 b0 fe ff
	ff		 push	 DWORD PTR _pSrcBuf$1$[ebp]
  000ec	e8 00 00 00 00	 call	 ?Encode@i3CompressHuffman@@YAPAEPAEII@Z ; i3CompressHuffman::Encode

; 687  : 	DestSize = GetResultSize();

  000f1	8b 35 00 00 00
	00		 mov	 esi, DWORD PTR ?s_ResultSize@@3IA

; 688  : 
; 689  : 	Rv = stream.Create( pszDest, STREAM_WRITE);

  000f7	8d 8d b8 fe ff
	ff		 lea	 ecx, DWORD PTR _stream$[ebp]
  000fd	83 c4 0c	 add	 esp, 12			; 0000000cH
  00100	8b f8		 mov	 edi, eax
  00102	6a 00		 push	 0
  00104	6a 02		 push	 2
  00106	53		 push	 ebx
  00107	e8 00 00 00 00	 call	 ?Create@i3FileStream@@UAEHPBDHI@Z ; i3FileStream::Create

; 690  : 	if( Rv == FALSE)

  0010c	85 c0		 test	 eax, eax
  0010e	75 1e		 jne	 SHORT $LN4@EncodeFile

; 691  : 	{
; 692  : 		i3Log( "i3CompressHuffman::EncodeFile()", "Could not create %s destination file.", pszDest);

  00110	53		 push	 ebx
  00111	68 00 00 00 00	 push	 OFFSET ??_C@_0CG@COMLHA@Could?5not?5create?5?$CFs?5destination@
  00116	68 00 00 00 00	 push	 OFFSET ??_C@_0CA@EFMLGKCH@i3CompressHuffman?3?3EncodeFile?$CI?$CJ@
  0011b	e8 00 00 00 00	 call	 ?i3Log@@YAXPBD0ZZ	; i3Log
  00120	83 c4 0c	 add	 esp, 12			; 0000000cH

; 693  : 		I3MEM_SAFE_FREE( pDestBuf);

  00123	85 ff		 test	 edi, edi
  00125	74 50		 je	 SHORT $LN7@EncodeFile
  00127	68 b5 02 00 00	 push	 693			; 000002b5H
  0012c	eb 3b		 jmp	 SHORT $LN16@EncodeFile
$LN4@EncodeFile:

; 694  : 		return FALSE;
; 695  : 	}
; 696  : 	
; 697  : 	Rc = stream.Write( pDestBuf, DestSize);

  0012e	56		 push	 esi
  0012f	57		 push	 edi
  00130	8d 8d b8 fe ff
	ff		 lea	 ecx, DWORD PTR _stream$[ebp]
  00136	e8 00 00 00 00	 call	 ?Write@i3FileStream@@UAEIPBXH@Z ; i3FileStream::Write

; 698  : 
; 699  : 	stream.Close();

  0013b	8d 8d b8 fe ff
	ff		 lea	 ecx, DWORD PTR _stream$[ebp]
  00141	8b f0		 mov	 esi, eax
  00143	e8 00 00 00 00	 call	 ?Close@i3FileStream@@UAEHXZ ; i3FileStream::Close

; 700  : 
; 701  : 	if( Rc == STREAM_ERR)

  00148	83 fe ff	 cmp	 esi, -1
  0014b	75 2e		 jne	 SHORT $LN6@EncodeFile

; 702  : 	{
; 703  : 		i3Log( "i3CompressHuffman::EncodeFile()", "Could not write %s destination file.", pszDest);

  0014d	53		 push	 ebx
  0014e	68 00 00 00 00	 push	 OFFSET ??_C@_0CF@KHAPMPGI@Could?5not?5write?5?$CFs?5destination?5@
  00153	68 00 00 00 00	 push	 OFFSET ??_C@_0CA@EFMLGKCH@i3CompressHuffman?3?3EncodeFile?$CI?$CJ@
  00158	e8 00 00 00 00	 call	 ?i3Log@@YAXPBD0ZZ	; i3Log
  0015d	83 c4 0c	 add	 esp, 12			; 0000000cH

; 704  : 		I3MEM_SAFE_FREE( pDestBuf);

  00160	85 ff		 test	 edi, edi
  00162	74 13		 je	 SHORT $LN7@EncodeFile
  00164	68 c0 02 00 00	 push	 704			; 000002c0H
$LN16@EncodeFile:
  00169	68 00 00 00 00	 push	 OFFSET ??_C@_0GM@GBOMBOHL@E?3?2Proyectos?2JuegosOnlineproyec@
  0016e	57		 push	 edi
  0016f	e8 00 00 00 00	 call	 ?FreeTool@i3mem@@YAXPAXPBDH@Z ; i3mem::FreeTool
  00174	83 c4 0c	 add	 esp, 12			; 0000000cH
$LN7@EncodeFile:
  00177	33 f6		 xor	 esi, esi
  00179	eb 18		 jmp	 SHORT $LN13@EncodeFile
$LN6@EncodeFile:

; 705  : 		return FALSE;
; 706  : 	}
; 707  : 
; 708  : 	i3MemFree( pDestBuf );

  0017b	68 c4 02 00 00	 push	 708			; 000002c4H
  00180	68 00 00 00 00	 push	 OFFSET ??_C@_0GM@GBOMBOHL@E?3?2Proyectos?2JuegosOnlineproyec@
  00185	57		 push	 edi
  00186	e8 00 00 00 00	 call	 ?FreeTool@i3mem@@YAXPAXPBDH@Z ; i3mem::FreeTool
  0018b	83 c4 0c	 add	 esp, 12			; 0000000cH

; 709  : 
; 710  : 	return TRUE;

  0018e	be 01 00 00 00	 mov	 esi, 1
$LN13@EncodeFile:
  00193	8d 8d b8 fe ff
	ff		 lea	 ecx, DWORD PTR _stream$[ebp]
  00199	e8 00 00 00 00	 call	 ??1i3FileStream@@UAE@XZ	; i3FileStream::~i3FileStream
  0019e	8b c6		 mov	 eax, esi

; 711  : }

  001a0	8b 4d f4	 mov	 ecx, DWORD PTR __$EHRec$[ebp]
  001a3	64 89 0d 00 00
	00 00		 mov	 DWORD PTR fs:0, ecx
  001aa	59		 pop	 ecx
  001ab	5f		 pop	 edi
  001ac	5e		 pop	 esi
  001ad	5b		 pop	 ebx
  001ae	8b 4d f0	 mov	 ecx, DWORD PTR __$ArrayPad$[ebp]
  001b1	33 cd		 xor	 ecx, ebp
  001b3	e8 00 00 00 00	 call	 @__security_check_cookie@4
  001b8	8b e5		 mov	 esp, ebp
  001ba	5d		 pop	 ebp
  001bb	c3		 ret	 0
_TEXT	ENDS
;	COMDAT text$x
text$x	SEGMENT
__unwindfunclet$?EncodeFile@i3CompressHuffman@@YAHPBD0@Z$0:
  00000	8d 8d b8 fe ff
	ff		 lea	 ecx, DWORD PTR _stream$[ebp]
  00006	e9 00 00 00 00	 jmp	 ??1i3FileStream@@UAE@XZ	; i3FileStream::~i3FileStream
  0000b	cc		 int	 3
  0000c	cc		 int	 3
  0000d	cc		 int	 3
  0000e	cc		 int	 3
  0000f	cc		 int	 3
__ehhandler$?EncodeFile@i3CompressHuffman@@YAHPBD0@Z:
  00010	90		 npad	 1
  00011	90		 npad	 1
  00012	8b 54 24 08	 mov	 edx, DWORD PTR [esp+8]
  00016	8d 42 0c	 lea	 eax, DWORD PTR [edx+12]
  00019	8b 8a ac fe ff
	ff		 mov	 ecx, DWORD PTR [edx-340]
  0001f	33 c8		 xor	 ecx, eax
  00021	e8 00 00 00 00	 call	 @__security_check_cookie@4
  00026	8b 4a fc	 mov	 ecx, DWORD PTR [edx-4]
  00029	33 c8		 xor	 ecx, eax
  0002b	e8 00 00 00 00	 call	 @__security_check_cookie@4
  00030	b8 00 00 00 00	 mov	 eax, OFFSET __ehfuncinfo$?EncodeFile@i3CompressHuffman@@YAHPBD0@Z
  00035	e9 00 00 00 00	 jmp	 ___CxxFrameHandler3
text$x	ENDS
?EncodeFile@i3CompressHuffman@@YAHPBD0@Z ENDP		; i3CompressHuffman::EncodeFile
; Function compile flags: /Ogtp
; File E:\Proyectos\JuegosOnlineproyectos\PB\pbblow\Piercing Blow Remake\i3Server\src\i3Base\i3CompressHuffman.cpp
;	COMDAT ?Decode@i3CompressHuffman@@YAPAEPAEI@Z
_TEXT	SEGMENT
tv342 = -8						; size = 4
_bitpos$1$ = -4						; size = 4
_pData$ = 8						; size = 4
tv340 = 8						; size = 4
_AccessUnit$ = 12					; size = 4
_count$1$ = 12						; size = 4
?Decode@i3CompressHuffman@@YAPAEPAEI@Z PROC		; i3CompressHuffman::Decode, COMDAT

; 637  : {

  00000	55		 push	 ebp
  00001	8b ec		 mov	 ebp, esp
  00003	83 ec 08	 sub	 esp, 8
  00006	56		 push	 esi

; 638  : 	I3_HUFFMAN_HEADER *header;
; 639  : 	DECODE_TABLE decode_tbl;
; 640  : 
; 641  : 	UINT8 *buf;
; 642  : 
; 643  : 	header = (I3_HUFFMAN_HEADER *)(pData);
; 644  : 
; 645  : 	if(header->m_AccessTblCount-1 <= AccessUnit) return NULL;

  00007	8b 75 08	 mov	 esi, DWORD PTR _pData$[ebp]
  0000a	8b 46 14	 mov	 eax, DWORD PTR [esi+20]
  0000d	48		 dec	 eax
  0000e	3b 45 0c	 cmp	 eax, DWORD PTR _AccessUnit$[ebp]
  00011	77 07		 ja	 SHORT $LN2@Decode
  00013	33 c0		 xor	 eax, eax
  00015	5e		 pop	 esi

; 652  : }

  00016	8b e5		 mov	 esp, ebp
  00018	5d		 pop	 ebp
  00019	c3		 ret	 0
$LN2@Decode:

; 566  : 	UINT32 access_tbl_ofs  = header->m_HeaderSize+header->m_FlagSize;

  0001a	8b 16		 mov	 edx, DWORD PTR [esi]
  0001c	8b 46 04	 mov	 eax, DWORD PTR [esi+4]
  0001f	03 c2		 add	 eax, edx
  00021	53		 push	 ebx

; 567  : 	UINT32 data_ofs        = access_tbl_ofs+header->m_AccessTblSize;
; 568  : 
; 569  : 	pDecodeTable->tree_table     = (TREE_TABLE *)(pData+flag_tbl_ofs);
; 570  : 	pDecodeTable->access_table   = (UINT8 *)(pData+access_tbl_ofs);
; 571  : 	pDecodeTable->data           = (UINT8 *)(pData+data_ofs);

  00022	8b 5e 18	 mov	 ebx, DWORD PTR [esi+24]
  00025	03 d8		 add	 ebx, eax
  00027	8d 0c 30	 lea	 ecx, DWORD PTR [eax+esi]
  0002a	03 de		 add	 ebx, esi
  0002c	8d 04 32	 lea	 eax, DWORD PTR [edx+esi]
  0002f	89 5d f8	 mov	 DWORD PTR tv342[ebp], ebx
  00032	89 45 08	 mov	 DWORD PTR tv340[ebp], eax

; 589  : 	memcpy( &bitpos, pDecodeTable->access_table+(AccessUnit  )*4, 4);

  00035	8b 45 0c	 mov	 eax, DWORD PTR _AccessUnit$[ebp]
  00038	57		 push	 edi

; 572  : }
; 573  : 
; 574  : static UINT8 *hmCopyDecodeData2Buf( UINT32 AccessUnit, UINT8 *pData, DECODE_TABLE *pDecodeTable)
; 575  : {
; 576  : 	I3_HUFFMAN_HEADER  *header;
; 577  : 	TREE_TABLE *tree_table = pDecodeTable->tree_table;
; 578  : 
; 579  : 	UINT32 val;
; 580  : 	UINT8  *buf;
; 581  : 	UINT16 *data;
; 582  : 	UINT32   bufofs = 0;

  00039	33 ff		 xor	 edi, edi

; 583  : 	UINT32   idx, count;
; 584  : 	UINT32   bitpos, endbit;
; 585  : 	ID_DATA tree_id;
; 586  : 	ID_DATA *branch;
; 587  : 	ID_DATA *root_branch;
; 588  : 
; 589  : 	memcpy( &bitpos, pDecodeTable->access_table+(AccessUnit  )*4, 4);

  0003b	8b 14 81	 mov	 edx, DWORD PTR [ecx+eax*4]

; 590  : 	memcpy( &endbit, pDecodeTable->access_table+(AccessUnit+1)*4, 4);

  0003e	8b 44 81 04	 mov	 eax, DWORD PTR [ecx+eax*4+4]
  00042	89 45 0c	 mov	 DWORD PTR _count$1$[ebp], eax

; 591  : 
; 592  : 	header = (I3_HUFFMAN_HEADER *)(pData);
; 593  : 
; 594  : 	if(header->m_UnitDecSize == 0) return NULL;

  00045	8b 46 10	 mov	 eax, DWORD PTR [esi+16]
  00048	89 55 fc	 mov	 DWORD PTR _bitpos$1$[ebp], edx
  0004b	85 c0		 test	 eax, eax
  0004d	75 0b		 jne	 SHORT $LN10@Decode
$LN25@Decode:

; 646  : 
; 647  : 	hmCreateDecodeTable(pData, &decode_tbl);
; 648  : 
; 649  : 	buf = hmCopyDecodeData2Buf(AccessUnit, pData, &decode_tbl);
; 650  : 
; 651  : 	return buf;

  0004f	33 db		 xor	 ebx, ebx
  00051	5f		 pop	 edi
  00052	8b c3		 mov	 eax, ebx
  00054	5b		 pop	 ebx
  00055	5e		 pop	 esi

; 652  : }

  00056	8b e5		 mov	 esp, ebp
  00058	5d		 pop	 ebp
  00059	c3		 ret	 0
$LN10@Decode:

; 599  : 		buf = (UINT8 *) i3MemAlloc( header->m_UnitDecSize);

  0005a	68 57 02 00 00	 push	 599			; 00000257H
  0005f	68 00 00 00 00	 push	 OFFSET ??_C@_0GM@GBOMBOHL@E?3?2Proyectos?2JuegosOnlineproyec@
  00064	6a 10		 push	 16			; 00000010H
  00066	6a 00		 push	 0
  00068	50		 push	 eax
  00069	e8 00 00 00 00	 call	 ?AllocTool@i3mem@@YAPAXHHHPBDH@Z ; i3mem::AllocTool
  0006e	8b d8		 mov	 ebx, eax
  00070	83 c4 14	 add	 esp, 20			; 00000014H

; 600  : 		if(buf == NULL) return NULL;

  00073	85 db		 test	 ebx, ebx
  00075	74 d8		 je	 SHORT $LN25@Decode

; 601  : 	}
; 602  : 
; 603  : 	root_branch = tree_table[0].tree_branch;
; 604  : 	branch      = root_branch;
; 605  : 
; 606  : 	data  = (UINT16 *) pDecodeTable->data;
; 607  : 
; 608  : 	idx   = bitpos >> 4;

  00077	8b 4d fc	 mov	 ecx, DWORD PTR _bitpos$1$[ebp]
  0007a	8b f1		 mov	 esi, ecx

; 609  : 	val   = (data[idx] | 0x10000) >> (bitpos & 15);

  0007c	8b 45 f8	 mov	 eax, DWORD PTR tv342[ebp]
  0007f	83 e1 0f	 and	 ecx, 15			; 0000000fH
  00082	8b 55 08	 mov	 edx, DWORD PTR tv340[ebp]
  00085	c1 ee 04	 shr	 esi, 4
  00088	83 c2 02	 add	 edx, 2
  0008b	0f b7 04 70	 movzx	 eax, WORD PTR [eax+esi*2]
  0008f	0d 00 00 01 00	 or	 eax, 65536		; 00010000H
  00094	d3 f8		 sar	 eax, cl

; 610  : 	count = endbit - bitpos;

  00096	8b 4d fc	 mov	 ecx, DWORD PTR _bitpos$1$[ebp]
  00099	29 4d 0c	 sub	 DWORD PTR _count$1$[ebp], ecx
  0009c	8d 64 24 00	 npad	 4
$LL9@Decode:

; 611  : 
; 612  : 	do 
; 613  : 	{
; 614  : 		tree_id = branch[val & 1];

  000a0	8b c8		 mov	 ecx, eax
  000a2	83 e1 01	 and	 ecx, 1

; 615  : 		branch  = tree_table[tree_id].tree_branch;

  000a5	0f b7 0c 4a	 movzx	 ecx, WORD PTR [edx+ecx*2]
  000a9	8b 55 08	 mov	 edx, DWORD PTR tv340[ebp]
  000ac	8d 0c 49	 lea	 ecx, DWORD PTR [ecx+ecx*2]
  000af	8d 14 4a	 lea	 edx, DWORD PTR [edx+ecx*2]
  000b2	83 c2 02	 add	 edx, 2

; 616  : 
; 617  : 		if(branch[0] == 0) 

  000b5	66 83 3a 00	 cmp	 WORD PTR [edx], 0
  000b9	75 0d		 jne	 SHORT $LN12@Decode

; 618  : 		{
; 619  : 			memcpy( buf + bufofs, &branch[1], sizeof(HM_DATA));

  000bb	8a 4a 02	 mov	 cl, BYTE PTR [edx+2]

; 620  : 			bufofs += sizeof(HM_DATA);
; 621  : 			branch  = root_branch;

  000be	8b 55 08	 mov	 edx, DWORD PTR tv340[ebp]
  000c1	88 0c 3b	 mov	 BYTE PTR [ebx+edi], cl
  000c4	47		 inc	 edi
  000c5	83 c2 02	 add	 edx, 2
$LN12@Decode:

; 622  : 		}
; 623  : 
; 624  : 		if((val >>= 1) == 1)

  000c8	d1 e8		 shr	 eax, 1
  000ca	83 f8 01	 cmp	 eax, 1
  000cd	75 0d		 jne	 SHORT $LN7@Decode

; 625  : 		{
; 626  : 			idx += 1;
; 627  : 			val  = data[idx] | 0x10000;

  000cf	8b 45 f8	 mov	 eax, DWORD PTR tv342[ebp]
  000d2	46		 inc	 esi
  000d3	0f b7 04 70	 movzx	 eax, WORD PTR [eax+esi*2]
  000d7	0d 00 00 01 00	 or	 eax, 65536		; 00010000H
$LN7@Decode:

; 628  : 		}
; 629  : 	} while(--count != 0);

  000dc	83 6d 0c 01	 sub	 DWORD PTR _count$1$[ebp], 1
  000e0	75 be		 jne	 SHORT $LL9@Decode

; 630  : 
; 631  : 	s_ResultSize = bufofs;

  000e2	89 3d 00 00 00
	00		 mov	 DWORD PTR ?s_ResultSize@@3IA, edi

; 646  : 
; 647  : 	hmCreateDecodeTable(pData, &decode_tbl);
; 648  : 
; 649  : 	buf = hmCopyDecodeData2Buf(AccessUnit, pData, &decode_tbl);
; 650  : 
; 651  : 	return buf;

  000e8	8b c3		 mov	 eax, ebx
  000ea	5f		 pop	 edi
  000eb	5b		 pop	 ebx
  000ec	5e		 pop	 esi

; 652  : }

  000ed	8b e5		 mov	 esp, ebp
  000ef	5d		 pop	 ebp
  000f0	c3		 ret	 0
?Decode@i3CompressHuffman@@YAPAEPAEI@Z ENDP		; i3CompressHuffman::Decode
_TEXT	ENDS
; Function compile flags: /Ogtp
; File E:\Proyectos\JuegosOnlineproyectos\PB\pbblow\Piercing Blow Remake\i3Server\src\i3Base\i3CompressHuffman.cpp
;	COMDAT ?Encode@i3CompressHuffman@@YAPAEPAEII@Z
_TEXT	SEGMENT
_header$ = -80						; size = 32
tv1235 = -48						; size = 4
_flag$1$ = -44						; size = 4
_len$1$ = -40						; size = 4
_flag_table$1$ = -36					; size = 4
_header$1$ = -32					; size = 4
_loop$1$ = -32						; size = 4
_access_tbl_pos$1$ = -28				; size = 4
_bitpos$1$ = -24					; size = 4
_buf$1$ = -20						; size = 4
tv1253 = -16						; size = 4
$T1 = -12						; size = 4
_pDst$1$ = -12						; size = 4
$T2 = -8						; size = 4
$T3 = -4						; size = 4
_m_EncBitSize$1$ = -4					; size = 4
_pData$ = 8						; size = 4
_Size$ = 12						; size = 4
_AccessUnitSize$ = 16					; size = 4
?Encode@i3CompressHuffman@@YAPAEPAEII@Z PROC		; i3CompressHuffman::Encode, COMDAT

; 487  : {

  00000	55		 push	 ebp
  00001	8b ec		 mov	 ebp, esp
  00003	83 ec 50	 sub	 esp, 80			; 00000050H
  00006	53		 push	 ebx

; 488  : 	static DATA_INFO data_info;
; 489  : 
; 490  : 	SORT_TABLE *sort_table;
; 491  : 	TOP_TREE   *top_tree;
; 492  : 	FLAG_TABLE *flag_table;
; 493  : 	TREE_TABLE *tree_table;
; 494  : 	I3_HUFFMAN_HEADER  header;
; 495  : 	UINT32  num;
; 496  : 	UINT8 *buf;
; 497  : 	UINT32  offset = 0;
; 498  : 
; 499  : 	if(Size == 0) return NULL;

  00007	8b 5d 0c	 mov	 ebx, DWORD PTR _Size$[ebp]
  0000a	85 db		 test	 ebx, ebx
  0000c	75 07		 jne	 SHORT $LN4@Encode
  0000e	33 c0		 xor	 eax, eax
  00010	5b		 pop	 ebx

; 559  : }

  00011	8b e5		 mov	 esp, ebp
  00013	5d		 pop	 ebp
  00014	c3		 ret	 0
$LN4@Encode:

; 171  : 	pDataInfo->size = DataSize;

  00015	8b 45 10	 mov	 eax, DWORD PTR _AccessUnitSize$[ebp]
  00018	8b cb		 mov	 ecx, ebx
  0001a	56		 push	 esi
  0001b	57		 push	 edi

; 172  : 	pDataInfo->tree_count = 0;
; 173  : 
; 174  : 	data_size = (DataSize + sizeof(HM_DATA) - 1) / sizeof(HM_DATA);
; 175  : 
; 176  : 	buf = (HM_DATA *) i3MemAlloc( data_size * sizeof(HM_DATA));

  0001c	68 b0 00 00 00	 push	 176			; 000000b0H
  00021	68 00 00 00 00	 push	 OFFSET ??_C@_0GM@GBOMBOHL@E?3?2Proyectos?2JuegosOnlineproyec@
  00026	85 c0		 test	 eax, eax
  00028	89 1d 00 00 00
	00		 mov	 DWORD PTR ?data_info@?1??Encode@i3CompressHuffman@@YAPAEPAEII@Z@4UDATA_INFO@@A, ebx
  0002e	6a 10		 push	 16			; 00000010H
  00030	0f 45 c8	 cmovne	 ecx, eax
  00033	c7 05 10 00 00
	00 00 00 00 00	 mov	 DWORD PTR ?data_info@?1??Encode@i3CompressHuffman@@YAPAEPAEII@Z@4UDATA_INFO@@A+16, 0
  0003d	6a 00		 push	 0
  0003f	53		 push	 ebx
  00040	89 4d f0	 mov	 DWORD PTR tv1253[ebp], ecx
  00043	e8 00 00 00 00	 call	 ?AllocTool@i3mem@@YAPAXHHHPBDH@Z ; i3mem::AllocTool
  00048	8b f8		 mov	 edi, eax
  0004a	83 c4 14	 add	 esp, 20			; 00000014H

; 177  : 	if(buf == NULL) return 0;

  0004d	85 ff		 test	 edi, edi
  0004f	0f 84 bf 00 00
	00		 je	 $LN7@Encode

; 178  : 
; 179  : 	memcpy(buf, pData, DataSize);

  00055	53		 push	 ebx
  00056	ff 75 08	 push	 DWORD PTR _pData$[ebp]
  00059	57		 push	 edi
  0005a	e8 00 00 00 00	 call	 _memcpy

; 180  : 	qsort( buf, data_size, sizeof(HM_DATA), data_info_compare);

  0005f	68 00 00 00 00	 push	 OFFSET ?data_info_compare@@YAHPBX0@Z ; data_info_compare
  00064	6a 01		 push	 1
  00066	53		 push	 ebx
  00067	57		 push	 edi
  00068	e8 00 00 00 00	 call	 _qsort

; 115  : 	UINT32   data_nums = 1;

  0006d	ba 01 00 00 00	 mov	 edx, 1

; 180  : 	qsort( buf, data_size, sizeof(HM_DATA), data_info_compare);

  00072	83 c4 1c	 add	 esp, 28			; 0000001cH
  00075	8b f2		 mov	 esi, edx

; 117  : 	for( loop = 1; loop < DataSize; loop++) 

  00077	3b da		 cmp	 ebx, edx
  00079	76 19		 jbe	 SHORT $LN14@Encode
  0007b	eb 03 8d 49 00	 npad	 5
$LL15@Encode:
  00080	8a 04 37	 mov	 al, BYTE PTR [edi+esi]
  00083	8d 4a 01	 lea	 ecx, DWORD PTR [edx+1]
  00086	38 44 37 ff	 cmp	 BYTE PTR [edi+esi-1], al
  0008a	0f 44 ca	 cmove	 ecx, edx
  0008d	46		 inc	 esi
  0008e	8b d1		 mov	 edx, ecx
  00090	3b f3		 cmp	 esi, ebx
  00092	72 ec		 jb	 SHORT $LL15@Encode
$LN14@Encode:

; 182  : 	pDataInfo->num = hmCheckDataNums(buf, data_size);

  00094	89 15 08 00 00
	00		 mov	 DWORD PTR ?data_info@?1??Encode@i3CompressHuffman@@YAPAEPAEII@Z@4UDATA_INFO@@A+8, edx
  0009a	c1 e2 03	 shl	 edx, 3

; 183  : 
; 184  : 	if(pDataInfo->num * sizeof(DATA_COUNT) > 0)

  0009d	85 d2		 test	 edx, edx
  0009f	74 56		 je	 SHORT $LN9@Encode

; 185  : 	{
; 186  : 		pDataInfo->count = (DATA_COUNT *) i3MemAlloc( pDataInfo->num * sizeof(DATA_COUNT));

  000a1	68 ba 00 00 00	 push	 186			; 000000baH
  000a6	68 00 00 00 00	 push	 OFFSET ??_C@_0GM@GBOMBOHL@E?3?2Proyectos?2JuegosOnlineproyec@
  000ab	6a 10		 push	 16			; 00000010H
  000ad	6a 00		 push	 0
  000af	52		 push	 edx
  000b0	e8 00 00 00 00	 call	 ?AllocTool@i3mem@@YAPAXHHHPBDH@Z ; i3mem::AllocTool

; 133  : 	UINT32   count = 1;

  000b5	b9 01 00 00 00	 mov	 ecx, 1

; 186  : 		pDataInfo->count = (DATA_COUNT *) i3MemAlloc( pDataInfo->num * sizeof(DATA_COUNT));

  000ba	8b f0		 mov	 esi, eax
  000bc	83 c4 14	 add	 esp, 20			; 00000014H
  000bf	89 35 0c 00 00
	00		 mov	 DWORD PTR ?data_info@?1??Encode@i3CompressHuffman@@YAPAEPAEII@Z@4UDATA_INFO@@A+12, esi

; 132  : 	UINT32   pos = 0;

  000c5	33 d2		 xor	 edx, edx

; 134  : 
; 135  : 	for( loop = 1; loop < DataSize; loop++) 

  000c7	8b c1		 mov	 eax, ecx
  000c9	3b d9		 cmp	 ebx, ecx
  000cb	76 1d		 jbe	 SHORT $LN20@Encode
  000cd	8d 49 00	 npad	 3
$LL21@Encode:

; 136  : 	{
; 137  : 		dat = *(pData + loop - 1);

  000d0	8a 5c 07 ff	 mov	 bl, BYTE PTR [edi+eax-1]

; 138  : 
; 139  : 		if(dat != *(pData+loop)) 

  000d4	3a 1c 07	 cmp	 bl, BYTE PTR [edi+eax]
  000d7	74 0a		 je	 SHORT $LN22@Encode

; 140  : 		{
; 141  : 			pDataCount[pos].m_Data = dat;
; 142  : 			pDataCount[pos].m_Count = count;

  000d9	89 4c d6 04	 mov	 DWORD PTR [esi+edx*8+4], ecx

; 143  : 			count = 0;

  000dd	33 c9		 xor	 ecx, ecx
  000df	88 1c d6	 mov	 BYTE PTR [esi+edx*8], bl

; 144  : 			pos++;

  000e2	42		 inc	 edx
$LN22@Encode:

; 134  : 
; 135  : 	for( loop = 1; loop < DataSize; loop++) 

  000e3	40		 inc	 eax

; 145  : 		}
; 146  : 
; 147  : 		count++;

  000e4	41		 inc	 ecx
  000e5	3b 45 0c	 cmp	 eax, DWORD PTR _Size$[ebp]
  000e8	72 e6		 jb	 SHORT $LL21@Encode
$LN20@Encode:

; 148  : 	}
; 149  : 
; 150  : 	pDataCount[pos].m_Data  = *(pData + loop - 1);

  000ea	8a 44 38 ff	 mov	 al, BYTE PTR [eax+edi-1]
  000ee	88 04 d6	 mov	 BYTE PTR [esi+edx*8], al

; 151  : 	pDataCount[pos].m_Count = count;

  000f1	89 4c d6 04	 mov	 DWORD PTR [esi+edx*8+4], ecx

; 189  : 	}

  000f5	eb 0a		 jmp	 SHORT $LN10@Encode
$LN9@Encode:

; 190  : 	else
; 191  : 	{
; 192  : 		pDataInfo->count = NULL;

  000f7	c7 05 0c 00 00
	00 00 00 00 00	 mov	 DWORD PTR ?data_info@?1??Encode@i3CompressHuffman@@YAPAEPAEII@Z@4UDATA_INFO@@A+12, 0
$LN10@Encode:

; 193  : 	}
; 194  : 
; 195  : 	i3MemFree(buf);

  00101	68 c3 00 00 00	 push	 195			; 000000c3H
  00106	68 00 00 00 00	 push	 OFFSET ??_C@_0GM@GBOMBOHL@E?3?2Proyectos?2JuegosOnlineproyec@
  0010b	57		 push	 edi
  0010c	e8 00 00 00 00	 call	 ?FreeTool@i3mem@@YAXPAXPBDH@Z ; i3mem::FreeTool
  00111	83 c4 0c	 add	 esp, 12			; 0000000cH
$LN7@Encode:

; 248  : 	top_tree = (TOP_TREE *) i3MemAlloc( pDataInfo->num * sizeof(TOP_TREE));

  00114	a1 08 00 00 00	 mov	 eax, DWORD PTR ?data_info@?1??Encode@i3CompressHuffman@@YAPAEPAEII@Z@4UDATA_INFO@@A+8
  00119	68 f8 00 00 00	 push	 248			; 000000f8H
  0011e	68 00 00 00 00	 push	 OFFSET ??_C@_0GM@GBOMBOHL@E?3?2Proyectos?2JuegosOnlineproyec@
  00123	6a 10		 push	 16			; 00000010H
  00125	c1 e0 02	 shl	 eax, 2
  00128	6a 00		 push	 0
  0012a	50		 push	 eax
  0012b	e8 00 00 00 00	 call	 ?AllocTool@i3mem@@YAPAXHHHPBDH@Z ; i3mem::AllocTool
  00130	8b d8		 mov	 ebx, eax
  00132	83 c4 14	 add	 esp, 20			; 00000014H

; 249  : 	if(top_tree == NULL) return NULL;

  00135	a1 08 00 00 00	 mov	 eax, DWORD PTR ?data_info@?1??Encode@i3CompressHuffman@@YAPAEPAEII@Z@4UDATA_INFO@@A+8
  0013a	89 5d f4	 mov	 DWORD PTR $T1[ebp], ebx
  0013d	85 db		 test	 ebx, ebx
  0013f	75 05		 jne	 SHORT $LN28@Encode
  00141	89 5d f4	 mov	 DWORD PTR $T1[ebp], ebx
  00144	eb 76		 jmp	 SHORT $LN26@Encode
$LN28@Encode:

; 250  : 
; 251  : 	for(loop = 0; loop < pDataInfo->num; loop++) 

  00146	33 f6		 xor	 esi, esi
  00148	85 c0		 test	 eax, eax
  0014a	74 70		 je	 SHORT $LN26@Encode
  0014c	8d 64 24 00	 npad	 4
$LL27@Encode:

; 252  : 	{
; 253  : 		//hMem = i3MemAlloc( sizeof(TREE));
; 254  : 		top_tree[loop].tree_link = (TREE *) i3MemAlloc( sizeof(TREE));

  00150	68 fe 00 00 00	 push	 254			; 000000feH
  00155	68 00 00 00 00	 push	 OFFSET ??_C@_0GM@GBOMBOHL@E?3?2Proyectos?2JuegosOnlineproyec@
  0015a	6a 10		 push	 16			; 00000010H
  0015c	6a 00		 push	 0
  0015e	6a 14		 push	 20			; 00000014H
  00160	e8 00 00 00 00	 call	 ?AllocTool@i3mem@@YAPAXHHHPBDH@Z ; i3mem::AllocTool
  00165	89 04 b3	 mov	 DWORD PTR [ebx+esi*4], eax
  00168	83 c4 14	 add	 esp, 20			; 00000014H

; 255  : 
; 256  : 		top_tree[loop].tree_link->next_tree       = NULL;

  0016b	c7 00 00 00 00
	00		 mov	 DWORD PTR [eax], 0

; 257  : 		top_tree[loop].tree_link->prev_right_tree = NULL;

  00171	8b 04 b3	 mov	 eax, DWORD PTR [ebx+esi*4]
  00174	c7 40 04 00 00
	00 00		 mov	 DWORD PTR [eax+4], 0

; 258  : 		top_tree[loop].tree_link->prev_left_tree  = NULL;

  0017b	8b 04 b3	 mov	 eax, DWORD PTR [ebx+esi*4]
  0017e	c7 40 08 00 00
	00 00		 mov	 DWORD PTR [eax+8], 0

; 259  : 
; 260  : 		top_tree[loop].tree_link->tree_id       = (UINT16) pDataInfo->tree_count+1;

  00185	8b 04 b3	 mov	 eax, DWORD PTR [ebx+esi*4]
  00188	8b 0d 10 00 00
	00		 mov	 ecx, DWORD PTR ?data_info@?1??Encode@i3CompressHuffman@@YAPAEPAEII@Z@4UDATA_INFO@@A+16
  0018e	41		 inc	 ecx
  0018f	66 89 48 0c	 mov	 WORD PTR [eax+12], cx

; 261  : 		top_tree[loop].tree_link->tree_right_id = 0;

  00193	33 c9		 xor	 ecx, ecx
  00195	8b 04 b3	 mov	 eax, DWORD PTR [ebx+esi*4]
  00198	66 89 48 0e	 mov	 WORD PTR [eax+14], cx

; 262  : 		top_tree[loop].tree_link->tree_left_id  = pDataInfo->count[loop].m_Data;

  0019c	a1 0c 00 00 00	 mov	 eax, DWORD PTR ?data_info@?1??Encode@i3CompressHuffman@@YAPAEPAEII@Z@4UDATA_INFO@@A+12
  001a1	0f b6 0c f0	 movzx	 ecx, BYTE PTR [eax+esi*8]
  001a5	8b 04 b3	 mov	 eax, DWORD PTR [ebx+esi*4]
  001a8	46		 inc	 esi
  001a9	66 89 48 10	 mov	 WORD PTR [eax+16], cx

; 263  : 
; 264  : 		pDataInfo->tree_count++;

  001ad	ff 05 10 00 00
	00		 inc	 DWORD PTR ?data_info@?1??Encode@i3CompressHuffman@@YAPAEPAEII@Z@4UDATA_INFO@@A+16
  001b3	a1 08 00 00 00	 mov	 eax, DWORD PTR ?data_info@?1??Encode@i3CompressHuffman@@YAPAEPAEII@Z@4UDATA_INFO@@A+8
  001b8	3b f0		 cmp	 esi, eax
  001ba	72 94		 jb	 SHORT $LL27@Encode
$LN26@Encode:

; 207  : 	sort_table = (SORT_TABLE *) i3MemAlloc( pDataInfo->num * sizeof(SORT_TABLE));

  001bc	68 cf 00 00 00	 push	 207			; 000000cfH
  001c1	68 00 00 00 00	 push	 OFFSET ??_C@_0GM@GBOMBOHL@E?3?2Proyectos?2JuegosOnlineproyec@
  001c6	6a 10		 push	 16			; 00000010H
  001c8	c1 e0 03	 shl	 eax, 3
  001cb	6a 00		 push	 0
  001cd	50		 push	 eax
  001ce	e8 00 00 00 00	 call	 ?AllocTool@i3mem@@YAPAXHHHPBDH@Z ; i3mem::AllocTool

; 208  : 	if(sort_table == NULL) return NULL;

  001d3	8b 3d 08 00 00
	00		 mov	 edi, DWORD PTR ?data_info@?1??Encode@i3CompressHuffman@@YAPAEPAEII@Z@4UDATA_INFO@@A+8
  001d9	8b d0		 mov	 edx, eax
  001db	83 c4 14	 add	 esp, 20			; 00000014H
  001de	89 55 fc	 mov	 DWORD PTR $T3[ebp], edx
  001e1	85 d2		 test	 edx, edx
  001e3	75 05		 jne	 SHORT $LN34@Encode
  001e5	89 45 fc	 mov	 DWORD PTR $T3[ebp], eax
  001e8	eb 24		 jmp	 SHORT $LN32@Encode
$LN34@Encode:

; 209  : 
; 210  : 	for(loop = 0; loop < pDataInfo->num; loop++) 

  001ea	33 c9		 xor	 ecx, ecx
  001ec	85 ff		 test	 edi, edi
  001ee	74 1e		 je	 SHORT $LN32@Encode
$LL33@Encode:

; 211  : 	{
; 212  : 		sort_table[loop].count = pDataInfo->count[loop].m_Count;

  001f0	a1 0c 00 00 00	 mov	 eax, DWORD PTR ?data_info@?1??Encode@i3CompressHuffman@@YAPAEPAEII@Z@4UDATA_INFO@@A+12
  001f5	8b 44 c8 04	 mov	 eax, DWORD PTR [eax+ecx*8+4]
  001f9	89 04 ca	 mov	 DWORD PTR [edx+ecx*8], eax

; 213  : 		sort_table[loop].current_tree = pTopTree[loop].tree_link;

  001fc	8b 04 8b	 mov	 eax, DWORD PTR [ebx+ecx*4]
  001ff	89 44 ca 04	 mov	 DWORD PTR [edx+ecx*8+4], eax
  00203	41		 inc	 ecx
  00204	8b 3d 08 00 00
	00		 mov	 edi, DWORD PTR ?data_info@?1??Encode@i3CompressHuffman@@YAPAEPAEII@Z@4UDATA_INFO@@A+8
  0020a	3b cf		 cmp	 ecx, edi
  0020c	72 e2		 jb	 SHORT $LL33@Encode
$LN32@Encode:

; 500  : 
; 501  : 	if(AccessUnitSize == 0) AccessUnitSize = Size;
; 502  : 
; 503  : 	hmAnalyzeData(pData, Size, &data_info);
; 504  : 
; 505  : 	top_tree   = hmInitTopTree(&data_info);
; 506  : 	sort_table = hmInitLinkTable(top_tree, &data_info);
; 507  : 
; 508  : 	num = data_info.num;
; 509  : 
; 510  : 	while(num > 1) 

  0020e	83 ff 01	 cmp	 edi, 1
  00211	0f 86 a6 00 00
	00		 jbe	 $LN3@Encode
  00217	8b 5d fc	 mov	 ebx, DWORD PTR $T3[ebp]
  0021a	8d 9b 00 00 00
	00		 npad	 6
$LL2@Encode:

; 272  : 	qsort(pSortTable, DataNum, sizeof(SORT_TABLE), huffman_compare);

  00220	68 00 00 00 00	 push	 OFFSET ?huffman_compare@@YAHPBX0@Z ; huffman_compare
  00225	6a 08		 push	 8
  00227	57		 push	 edi
  00228	53		 push	 ebx
  00229	e8 00 00 00 00	 call	 _qsort

; 511  : 	{
; 512  : 		hmSortLink( sort_table, num);
; 513  : 
; 514  : 		num--;
; 515  : 
; 516  : 		data_info.tree_count = hmCreateNewBranch( &sort_table[num], &sort_table[num-1], sort_table, data_info.tree_count);

  0022e	8b 35 10 00 00
	00		 mov	 esi, DWORD PTR ?data_info@?1??Encode@i3CompressHuffman@@YAPAEPAEII@Z@4UDATA_INFO@@A+16
  00234	4f		 dec	 edi

; 281  : 	pNewTree = (TREE *) i3MemAlloc( sizeof(TREE));

  00235	68 19 01 00 00	 push	 281			; 00000119H
  0023a	68 00 00 00 00	 push	 OFFSET ??_C@_0GM@GBOMBOHL@E?3?2Proyectos?2JuegosOnlineproyec@
  0023f	6a 10		 push	 16			; 00000010H
  00241	6a 00		 push	 0
  00243	6a 14		 push	 20			; 00000014H
  00245	e8 00 00 00 00	 call	 ?AllocTool@i3mem@@YAPAXHHHPBDH@Z ; i3mem::AllocTool
  0024a	8b d0		 mov	 edx, eax

; 282  : 
; 283  : 	pNewTree->next_tree = NULL;
; 284  : 	pNewTree->tree_id = (UINT16) NewTreeID+1;

  0024c	8d 4e 01	 lea	 ecx, DWORD PTR [esi+1]
  0024f	83 c4 24	 add	 esp, 36			; 00000024H
  00252	c7 02 00 00 00
	00		 mov	 DWORD PTR [edx], 0
  00258	66 89 4a 0c	 mov	 WORD PTR [edx+12], cx

; 285  : 
; 286  : 	pSortTable1->current_tree->bit = 0;

  0025c	8b 4c fb 04	 mov	 ecx, DWORD PTR [ebx+edi*8+4]
  00260	c6 41 12 00	 mov	 BYTE PTR [ecx+18], 0

; 287  : 	pSortTable1->current_tree->next_tree = pNewTree;

  00264	8b 4c fb 04	 mov	 ecx, DWORD PTR [ebx+edi*8+4]
  00268	89 11		 mov	 DWORD PTR [ecx], edx

; 288  : 	pNewTree->prev_right_tree = pSortTable1->current_tree;

  0026a	8b 44 fb 04	 mov	 eax, DWORD PTR [ebx+edi*8+4]
  0026e	89 42 04	 mov	 DWORD PTR [edx+4], eax

; 289  : 
; 290  : 	pNewTree->tree_right_id = pSortTable1->current_tree->tree_id;

  00271	8b 44 fb 04	 mov	 eax, DWORD PTR [ebx+edi*8+4]
  00275	0f b7 40 0c	 movzx	 eax, WORD PTR [eax+12]
  00279	66 89 42 0e	 mov	 WORD PTR [edx+14], ax

; 291  : 
; 292  : 	pSortTable2->current_tree->bit = 1;

  0027d	8b 44 fb fc	 mov	 eax, DWORD PTR [ebx+edi*8-4]
  00281	c6 40 12 01	 mov	 BYTE PTR [eax+18], 1

; 293  : 	pSortTable2->current_tree->next_tree = pNewTree;

  00285	8b 44 fb fc	 mov	 eax, DWORD PTR [ebx+edi*8-4]
  00289	89 10		 mov	 DWORD PTR [eax], edx

; 294  : 	pNewTree->prev_left_tree = pSortTable2->current_tree;

  0028b	8b 44 fb fc	 mov	 eax, DWORD PTR [ebx+edi*8-4]
  0028f	89 42 08	 mov	 DWORD PTR [edx+8], eax

; 295  : 
; 296  : 	pNewTree->tree_left_id = pSortTable2->current_tree->tree_id;

  00292	8b 44 fb fc	 mov	 eax, DWORD PTR [ebx+edi*8-4]
  00296	0f b7 40 0c	 movzx	 eax, WORD PTR [eax+12]
  0029a	66 89 42 10	 mov	 WORD PTR [edx+16], ax

; 297  : 
; 298  : 	pSortTable2->count += pSortTable1->count;

  0029e	8b 04 fb	 mov	 eax, DWORD PTR [ebx+edi*8]
  002a1	01 44 fb f8	 add	 DWORD PTR [ebx+edi*8-8], eax

; 299  : 
; 300  : 	pSortTable2->current_tree = pNewTree;
; 301  : 
; 302  : 	return NewTreeID+1;

  002a5	8d 46 01	 lea	 eax, DWORD PTR [esi+1]
  002a8	89 54 fb fc	 mov	 DWORD PTR [ebx+edi*8-4], edx

; 511  : 	{
; 512  : 		hmSortLink( sort_table, num);
; 513  : 
; 514  : 		num--;
; 515  : 
; 516  : 		data_info.tree_count = hmCreateNewBranch( &sort_table[num], &sort_table[num-1], sort_table, data_info.tree_count);

  002ac	a3 10 00 00 00	 mov	 DWORD PTR ?data_info@?1??Encode@i3CompressHuffman@@YAPAEPAEII@Z@4UDATA_INFO@@A+16, eax
  002b1	83 ff 01	 cmp	 edi, 1
  002b4	0f 87 66 ff ff
	ff		 ja	 $LL2@Encode
  002ba	8b 5d f4	 mov	 ebx, DWORD PTR $T1[ebp]
$LN3@Encode:

; 517  : 	}
; 518  : 
; 519  : 	data_info.root_id = sort_table[0].current_tree->tree_id;

  002bd	8b 75 fc	 mov	 esi, DWORD PTR $T3[ebp]

; 520  : 
; 521  : 	flag_table = hmCreateFlagFromTree(top_tree, &data_info);

  002c0	68 00 00 00 00	 push	 OFFSET ?data_info@?1??Encode@i3CompressHuffman@@YAPAEPAEII@Z@4UDATA_INFO@@A
  002c5	53		 push	 ebx
  002c6	8b 46 04	 mov	 eax, DWORD PTR [esi+4]
  002c9	66 8b 40 0c	 mov	 ax, WORD PTR [eax+12]
  002cd	66 a3 14 00 00
	00		 mov	 WORD PTR ?data_info@?1??Encode@i3CompressHuffman@@YAPAEPAEII@Z@4UDATA_INFO@@A+20, ax
  002d3	e8 00 00 00 00	 call	 ?hmCreateFlagFromTree@@YAPAUFLAG_TABLE@@PAU_TOP_TREE@@PAUDATA_INFO@@@Z ; hmCreateFlagFromTree

; 522  : 
; 523  : 	header.m_FlagSize = (data_info.tree_count+1)*sizeof(TREE_TABLE);

  002d8	8b 0d 10 00 00
	00		 mov	 ecx, DWORD PTR ?data_info@?1??Encode@i3CompressHuffman@@YAPAEPAEII@Z@4UDATA_INFO@@A+16

; 369  : 	tree_table = (TREE_TABLE *) i3MemAlloc( Size);

  002de	68 71 01 00 00	 push	 369			; 00000171H

; 522  : 
; 523  : 	header.m_FlagSize = (data_info.tree_count+1)*sizeof(TREE_TABLE);

  002e3	41		 inc	 ecx
  002e4	89 45 dc	 mov	 DWORD PTR _flag_table$1$[ebp], eax

; 369  : 	tree_table = (TREE_TABLE *) i3MemAlloc( Size);

  002e7	68 00 00 00 00	 push	 OFFSET ??_C@_0GM@GBOMBOHL@E?3?2Proyectos?2JuegosOnlineproyec@
  002ec	6a 10		 push	 16			; 00000010H
  002ee	6a 00		 push	 0

; 522  : 
; 523  : 	header.m_FlagSize = (data_info.tree_count+1)*sizeof(TREE_TABLE);

  002f0	8d 04 49	 lea	 eax, DWORD PTR [ecx+ecx*2]
  002f3	03 c0		 add	 eax, eax

; 369  : 	tree_table = (TREE_TABLE *) i3MemAlloc( Size);

  002f5	50		 push	 eax

; 522  : 
; 523  : 	header.m_FlagSize = (data_info.tree_count+1)*sizeof(TREE_TABLE);

  002f6	89 45 e0	 mov	 DWORD PTR _header$1$[ebp], eax
  002f9	89 45 b4	 mov	 DWORD PTR _header$[ebp+4], eax

; 369  : 	tree_table = (TREE_TABLE *) i3MemAlloc( Size);

  002fc	e8 00 00 00 00	 call	 ?AllocTool@i3mem@@YAPAXHHHPBDH@Z ; i3mem::AllocTool
  00301	8b d0		 mov	 edx, eax
  00303	83 c4 1c	 add	 esp, 28			; 0000001cH
  00306	89 55 f8	 mov	 DWORD PTR $T2[ebp], edx

; 370  : 	if(tree_table == NULL) return NULL;

  00309	85 d2		 test	 edx, edx
  0030b	75 08		 jne	 SHORT $LN46@Encode
  0030d	89 45 f8	 mov	 DWORD PTR $T2[ebp], eax
  00310	e9 fe 00 00 00	 jmp	 $LN40@Encode
$LN46@Encode:

; 371  : 
; 372  : 	for(loop = 0; loop < pDataInfo->num; loop++) 

  00315	8b 0d 08 00 00
	00		 mov	 ecx, DWORD PTR ?data_info@?1??Encode@i3CompressHuffman@@YAPAEPAEII@Z@4UDATA_INFO@@A+8
  0031b	33 ff		 xor	 edi, edi
  0031d	85 c9		 test	 ecx, ecx
  0031f	0f 84 a4 00 00
	00		 je	 $LN42@Encode
$LL43@Encode:

; 373  : 	{
; 374  : 		tree = pTopTree[loop].tree_link;

  00325	8b 04 bb	 mov	 eax, DWORD PTR [ebx+edi*4]

; 375  : 
; 376  : 		while(tree != NULL) 

  00328	85 c0		 test	 eax, eax
  0032a	0f 84 8a 00 00
	00		 je	 $LN41@Encode
  00330	8b 5d f8	 mov	 ebx, DWORD PTR $T2[ebp]
$LL44@Encode:

; 377  : 		{
; 378  : 			tree_table[tree->tree_id].tree_id        = tree->tree_id;

  00333	0f b7 50 0c	 movzx	 edx, WORD PTR [eax+12]
  00337	8b ca		 mov	 ecx, edx
  00339	8d 0c 49	 lea	 ecx, DWORD PTR [ecx+ecx*2]
  0033c	66 89 14 4b	 mov	 WORD PTR [ebx+ecx*2], dx

; 379  : 			tree_table[tree->tree_id].tree_branch[0] = tree->tree_right_id;

  00340	0f b7 48 0c	 movzx	 ecx, WORD PTR [eax+12]
  00344	8d 14 49	 lea	 edx, DWORD PTR [ecx+ecx*2]
  00347	0f b7 48 0e	 movzx	 ecx, WORD PTR [eax+14]
  0034b	66 89 4c 53 02	 mov	 WORD PTR [ebx+edx*2+2], cx

; 380  : 			tree_table[tree->tree_id].tree_branch[1] = tree->tree_left_id;

  00350	0f b7 48 0c	 movzx	 ecx, WORD PTR [eax+12]
  00354	8d 14 49	 lea	 edx, DWORD PTR [ecx+ecx*2]
  00357	0f b7 48 10	 movzx	 ecx, WORD PTR [eax+16]
  0035b	66 89 4c 53 04	 mov	 WORD PTR [ebx+edx*2+4], cx

; 381  : 
; 382  : 			if(tree->next_tree != NULL) 

  00360	8b 08		 mov	 ecx, DWORD PTR [eax]
  00362	85 c9		 test	 ecx, ecx
  00364	74 16		 je	 SHORT $LN49@Encode

; 383  : 			{
; 384  : 				if(tree->bit) tree->next_tree->prev_left_tree  = NULL;

  00366	80 78 12 00	 cmp	 BYTE PTR [eax+18], 0
  0036a	74 09		 je	 SHORT $LN48@Encode
  0036c	c7 41 08 00 00
	00 00		 mov	 DWORD PTR [ecx+8], 0
  00373	eb 07		 jmp	 SHORT $LN49@Encode
$LN48@Encode:

; 385  : 				else          tree->next_tree->prev_right_tree = NULL;

  00375	c7 41 04 00 00
	00 00		 mov	 DWORD PTR [ecx+4], 0
$LN49@Encode:

; 386  : 			}
; 387  : 
; 388  : 			if(tree->prev_left_tree != NULL) 

  0037c	8b 48 08	 mov	 ecx, DWORD PTR [eax+8]
  0037f	85 c9		 test	 ecx, ecx
  00381	74 06		 je	 SHORT $LN50@Encode

; 389  : 			{
; 390  : 				tree->prev_left_tree->next_tree = NULL;

  00383	c7 01 00 00 00
	00		 mov	 DWORD PTR [ecx], 0
$LN50@Encode:

; 391  : 			}
; 392  : 
; 393  : 			if(tree->prev_right_tree != NULL) 

  00389	8b 48 04	 mov	 ecx, DWORD PTR [eax+4]
  0038c	85 c9		 test	 ecx, ecx
  0038e	74 06		 je	 SHORT $LN51@Encode

; 394  : 			{
; 395  : 				tree->prev_right_tree->next_tree = NULL;

  00390	c7 01 00 00 00
	00		 mov	 DWORD PTR [ecx], 0
$LN51@Encode:

; 396  : 			}
; 397  : 
; 398  : 			next_tree = tree->next_tree;

  00396	8b 30		 mov	 esi, DWORD PTR [eax]

; 399  : 			i3MemFree( tree);

  00398	68 8f 01 00 00	 push	 399			; 0000018fH
  0039d	68 00 00 00 00	 push	 OFFSET ??_C@_0GM@GBOMBOHL@E?3?2Proyectos?2JuegosOnlineproyec@
  003a2	50		 push	 eax
  003a3	e8 00 00 00 00	 call	 ?FreeTool@i3mem@@YAXPAXPBDH@Z ; i3mem::FreeTool
  003a8	83 c4 0c	 add	 esp, 12			; 0000000cH

; 400  : 			tree = next_tree;

  003ab	8b c6		 mov	 eax, esi
  003ad	85 f6		 test	 esi, esi
  003af	75 82		 jne	 SHORT $LL44@Encode
  003b1	8b 0d 08 00 00
	00		 mov	 ecx, DWORD PTR ?data_info@?1??Encode@i3CompressHuffman@@YAPAEPAEII@Z@4UDATA_INFO@@A+8
  003b7	8b 5d f4	 mov	 ebx, DWORD PTR $T1[ebp]
$LN41@Encode:

; 371  : 
; 372  : 	for(loop = 0; loop < pDataInfo->num; loop++) 

  003ba	47		 inc	 edi
  003bb	3b f9		 cmp	 edi, ecx
  003bd	0f 82 62 ff ff
	ff		 jb	 $LL43@Encode
  003c3	8b 55 f8	 mov	 edx, DWORD PTR $T2[ebp]
  003c6	8b 75 fc	 mov	 esi, DWORD PTR $T3[ebp]
$LN42@Encode:

; 401  : 		}
; 402  : 	}
; 403  : 
; 404  : 	tree_table[0].tree_id        = tree_table[pDataInfo->root_id].tree_id;

  003c9	0f b7 05 14 00
	00 00		 movzx	 eax, WORD PTR ?data_info@?1??Encode@i3CompressHuffman@@YAPAEPAEII@Z@4UDATA_INFO@@A+20

; 405  : 	tree_table[0].tree_branch[0] = tree_table[pDataInfo->root_id].tree_branch[0];
; 406  : 	tree_table[0].tree_branch[1] = tree_table[pDataInfo->root_id].tree_branch[1];
; 407  : 
; 408  : 	i3MemFree( pTopTree);

  003d0	68 98 01 00 00	 push	 408			; 00000198H
  003d5	68 00 00 00 00	 push	 OFFSET ??_C@_0GM@GBOMBOHL@E?3?2Proyectos?2JuegosOnlineproyec@
  003da	53		 push	 ebx
  003db	8d 04 40	 lea	 eax, DWORD PTR [eax+eax*2]
  003de	0f b7 04 42	 movzx	 eax, WORD PTR [edx+eax*2]
  003e2	66 89 02	 mov	 WORD PTR [edx], ax
  003e5	0f b7 05 14 00
	00 00		 movzx	 eax, WORD PTR ?data_info@?1??Encode@i3CompressHuffman@@YAPAEPAEII@Z@4UDATA_INFO@@A+20
  003ec	8d 04 40	 lea	 eax, DWORD PTR [eax+eax*2]
  003ef	0f b7 44 42 02	 movzx	 eax, WORD PTR [edx+eax*2+2]
  003f4	66 89 42 02	 mov	 WORD PTR [edx+2], ax
  003f8	0f b7 05 14 00
	00 00		 movzx	 eax, WORD PTR ?data_info@?1??Encode@i3CompressHuffman@@YAPAEPAEII@Z@4UDATA_INFO@@A+20
  003ff	8d 04 40	 lea	 eax, DWORD PTR [eax+eax*2]
  00402	0f b7 44 42 04	 movzx	 eax, WORD PTR [edx+eax*2+4]
  00407	66 89 42 04	 mov	 WORD PTR [edx+4], ax
  0040b	e8 00 00 00 00	 call	 ?FreeTool@i3mem@@YAXPAXPBDH@Z ; i3mem::FreeTool
  00410	83 c4 0c	 add	 esp, 12			; 0000000cH
$LN40@Encode:

; 524  : 
; 525  : 	tree_table = hmDestroyTree(top_tree, &data_info, header.m_FlagSize);
; 526  : 
; 527  : 	i3MemFree( sort_table );

  00413	68 0f 02 00 00	 push	 527			; 0000020fH
  00418	68 00 00 00 00	 push	 OFFSET ??_C@_0GM@GBOMBOHL@E?3?2Proyectos?2JuegosOnlineproyec@
  0041d	56		 push	 esi
  0041e	e8 00 00 00 00	 call	 ?FreeTool@i3mem@@YAXPAXPBDH@Z ; i3mem::FreeTool

; 528  : 	i3MemFree( data_info.count );

  00423	68 10 02 00 00	 push	 528			; 00000210H
  00428	68 00 00 00 00	 push	 OFFSET ??_C@_0GM@GBOMBOHL@E?3?2Proyectos?2JuegosOnlineproyec@
  0042d	ff 35 0c 00 00
	00		 push	 DWORD PTR ?data_info@?1??Encode@i3CompressHuffman@@YAPAEPAEII@Z@4UDATA_INFO@@A+12
  00433	e8 00 00 00 00	 call	 ?FreeTool@i3mem@@YAXPAXPBDH@Z ; i3mem::FreeTool

; 529  : 
; 530  : 	header.m_EncBitSize = data_info.enc_size;

  00438	a1 04 00 00 00	 mov	 eax, DWORD PTR ?data_info@?1??Encode@i3CompressHuffman@@YAPAEPAEII@Z@4UDATA_INFO@@A+4

; 531  : 	header.m_EncSize = (header.m_EncBitSize+7) / 8 + 1;
; 532  : 
; 533  : 	header.m_HeaderSize     = sizeof(I3_HUFFMAN_HEADER);
; 534  : 	header.m_OriginalSize        = Size;
; 535  : 	header.m_UnitDecSize   = AccessUnitSize;
; 536  : 	header.m_AccessTblCount  = (Size+AccessUnitSize - 1) / AccessUnitSize + 1;

  0043d	33 d2		 xor	 edx, edx
  0043f	8b 5d f0	 mov	 ebx, DWORD PTR tv1253[ebp]
  00442	89 45 bc	 mov	 DWORD PTR _header$[ebp+12], eax
  00445	89 5d c0	 mov	 DWORD PTR _header$[ebp+16], ebx
  00448	8d 48 07	 lea	 ecx, DWORD PTR [eax+7]
  0044b	c7 45 b0 20 00
	00 00		 mov	 DWORD PTR _header$[ebp], 32 ; 00000020H
  00452	8b 45 0c	 mov	 eax, DWORD PTR _Size$[ebp]
  00455	89 45 cc	 mov	 DWORD PTR _header$[ebp+28], eax
  00458	48		 dec	 eax
  00459	03 c3		 add	 eax, ebx
  0045b	c1 e9 03	 shr	 ecx, 3
  0045e	f7 f3		 div	 ebx
  00460	41		 inc	 ecx

; 537  : 	header.m_AccessTblSize = header.m_AccessTblCount * sizeof(UINT32);
; 538  : 
; 539  : 	{
; 540  : 		//INT32 hMem;
; 541  : 		//hMem = i3MemAlloc( header.m_HeaderSize + header.m_FlagSize + header.m_AccessTblSize + header.m_EncSize);
; 542  : 		buf = (UINT8 *) i3MemAlloc( header.m_HeaderSize + header.m_FlagSize + header.m_AccessTblSize + header.m_EncSize);

  00461	68 1e 02 00 00	 push	 542			; 0000021eH
  00466	89 4d b8	 mov	 DWORD PTR _header$[ebp+8], ecx
  00469	68 00 00 00 00	 push	 OFFSET ??_C@_0GM@GBOMBOHL@E?3?2Proyectos?2JuegosOnlineproyec@
  0046e	8d 58 01	 lea	 ebx, DWORD PTR [eax+1]
  00471	8d 04 9d 00 00
	00 00		 lea	 eax, DWORD PTR [ebx*4]
  00478	89 5d c4	 mov	 DWORD PTR _header$[ebp+20], ebx
  0047b	89 45 c8	 mov	 DWORD PTR _header$[ebp+24], eax
  0047e	03 c1		 add	 eax, ecx
  00480	8b 4d e0	 mov	 ecx, DWORD PTR _header$1$[ebp]
  00483	83 c1 20	 add	 ecx, 32			; 00000020H
  00486	6a 10		 push	 16			; 00000010H
  00488	03 c1		 add	 eax, ecx
  0048a	6a 00		 push	 0
  0048c	50		 push	 eax
  0048d	89 45 d0	 mov	 DWORD PTR tv1235[ebp], eax
  00490	e8 00 00 00 00	 call	 ?AllocTool@i3mem@@YAPAXHHHPBDH@Z ; i3mem::AllocTool

; 415  : 	memcpy( pBuf, pHeader, pHeader->m_HeaderSize);

  00495	8b f8		 mov	 edi, eax

; 537  : 	header.m_AccessTblSize = header.m_AccessTblCount * sizeof(UINT32);
; 538  : 
; 539  : 	{
; 540  : 		//INT32 hMem;
; 541  : 		//hMem = i3MemAlloc( header.m_HeaderSize + header.m_FlagSize + header.m_AccessTblSize + header.m_EncSize);
; 542  : 		buf = (UINT8 *) i3MemAlloc( header.m_HeaderSize + header.m_FlagSize + header.m_AccessTblSize + header.m_EncSize);

  00497	89 45 ec	 mov	 DWORD PTR _buf$1$[ebp], eax

; 415  : 	memcpy( pBuf, pHeader, pHeader->m_HeaderSize);

  0049a	b9 08 00 00 00	 mov	 ecx, 8
  0049f	8d 75 b0	 lea	 esi, DWORD PTR _header$[ebp]
  004a2	f3 a5		 rep movsd

; 425  : 	for(loop = 0; loop < pDataInfo->tree_count+1; loop++) 

  004a4	a1 10 00 00 00	 mov	 eax, DWORD PTR ?data_info@?1??Encode@i3CompressHuffman@@YAPAEPAEII@Z@4UDATA_INFO@@A+16

; 537  : 	header.m_AccessTblSize = header.m_AccessTblCount * sizeof(UINT32);
; 538  : 
; 539  : 	{
; 540  : 		//INT32 hMem;
; 541  : 		//hMem = i3MemAlloc( header.m_HeaderSize + header.m_FlagSize + header.m_AccessTblSize + header.m_EncSize);
; 542  : 		buf = (UINT8 *) i3MemAlloc( header.m_HeaderSize + header.m_FlagSize + header.m_AccessTblSize + header.m_EncSize);

  004a9	83 c4 2c	 add	 esp, 44			; 0000002cH

; 423  : 	UINT32 offset = 0;

  004ac	33 f6		 xor	 esi, esi

; 424  : 
; 425  : 	for(loop = 0; loop < pDataInfo->tree_count+1; loop++) 

  004ae	33 d2		 xor	 edx, edx
  004b0	83 c0 01	 add	 eax, 1
  004b3	74 2e		 je	 SHORT $LN57@Encode
  004b5	8b 7d f8	 mov	 edi, DWORD PTR $T2[ebp]
  004b8	8b 5d ec	 mov	 ebx, DWORD PTR _buf$1$[ebp]
  004bb	eb 03 8d 49 00	 npad	 5
$LL58@Encode:

; 426  : 	{
; 427  : 		memcpy(pBuf +offset, &pTreeTable[loop], sizeof(TREE_TABLE));

  004c0	8d 04 52	 lea	 eax, DWORD PTR [edx+edx*2]
  004c3	42		 inc	 edx
  004c4	8d 0c 47	 lea	 ecx, DWORD PTR [edi+eax*2]
  004c7	8b 01		 mov	 eax, DWORD PTR [ecx]
  004c9	89 44 33 20	 mov	 DWORD PTR [ebx+esi+32], eax
  004cd	66 8b 41 04	 mov	 ax, WORD PTR [ecx+4]
  004d1	66 89 44 33 24	 mov	 WORD PTR [ebx+esi+36], ax

; 428  : 		offset += sizeof(TREE_TABLE);

  004d6	83 c6 06	 add	 esi, 6
  004d9	a1 10 00 00 00	 mov	 eax, DWORD PTR ?data_info@?1??Encode@i3CompressHuffman@@YAPAEPAEII@Z@4UDATA_INFO@@A+16
  004de	40		 inc	 eax
  004df	3b d0		 cmp	 edx, eax
  004e1	72 dd		 jb	 SHORT $LL58@Encode
$LN57@Encode:

; 543  : 	}
; 544  : 
; 545  : 	offset += hmCopyHeader2Buf(buf, &header);
; 546  : 	offset += hmCopyTree2Buf(buf+offset, tree_table, &data_info);
; 547  : 
; 548  : 	hmCopyData2Buf(buf+offset, header.m_AccessTblCount, AccessUnitSize, pData, Size, flag_table);

  004e3	8b 45 ec	 mov	 eax, DWORD PTR _buf$1$[ebp]

; 441  : 	UINT32   m_EncBitSize = 0;

  004e6	33 c9		 xor	 ecx, ecx

; 543  : 	}
; 544  : 
; 545  : 	offset += hmCopyHeader2Buf(buf, &header);
; 546  : 	offset += hmCopyTree2Buf(buf+offset, tree_table, &data_info);
; 547  : 
; 548  : 	hmCopyData2Buf(buf+offset, header.m_AccessTblCount, AccessUnitSize, pData, Size, flag_table);

  004e8	83 c0 20	 add	 eax, 32			; 00000020H

; 441  : 	UINT32   m_EncBitSize = 0;

  004eb	89 4d fc	 mov	 DWORD PTR _m_EncBitSize$1$[ebp], ecx

; 543  : 	}
; 544  : 
; 545  : 	offset += hmCopyHeader2Buf(buf, &header);
; 546  : 	offset += hmCopyTree2Buf(buf+offset, tree_table, &data_info);
; 547  : 
; 548  : 	hmCopyData2Buf(buf+offset, header.m_AccessTblCount, AccessUnitSize, pData, Size, flag_table);

  004ee	03 c6		 add	 eax, esi

; 440  : 	UINT32   bitpos       = 0;

  004f0	33 ff		 xor	 edi, edi

; 442  : 	UINT32   *access_tbl  = (UINT32   *)(pDst);
; 443  : 	UINT16 *data_buf		= (UINT16 *)(pDst+AccessTblNum*sizeof(UINT32));
; 444  : 	UINT32   access_tbl_pos = 0;

  004f2	33 f6		 xor	 esi, esi

; 543  : 	}
; 544  : 
; 545  : 	offset += hmCopyHeader2Buf(buf, &header);
; 546  : 	offset += hmCopyTree2Buf(buf+offset, tree_table, &data_info);
; 547  : 
; 548  : 	hmCopyData2Buf(buf+offset, header.m_AccessTblCount, AccessUnitSize, pData, Size, flag_table);

  004f4	89 45 f4	 mov	 DWORD PTR _pDst$1$[ebp], eax

; 446  : 	for(loop = 0; loop < Size; loop += sizeof(HM_DATA)) 

  004f7	33 db		 xor	 ebx, ebx
  004f9	89 7d e8	 mov	 DWORD PTR _bitpos$1$[ebp], edi
  004fc	89 75 e4	 mov	 DWORD PTR _access_tbl_pos$1$[ebp], esi
  004ff	89 5d e0	 mov	 DWORD PTR _loop$1$[ebp], ebx
  00502	39 4d 0c	 cmp	 DWORD PTR _Size$[ebp], ecx
  00505	0f 86 b6 00 00
	00		 jbe	 $LN62@Encode
  0050b	eb 03 8d 49 00	 npad	 5
$LL63@Encode:

; 447  : 	{
; 448  : 		if(loop % AccessTblSize == 0) 

  00510	33 d2		 xor	 edx, edx
  00512	8b c3		 mov	 eax, ebx
  00514	f7 75 f0	 div	 DWORD PTR tv1253[ebp]
  00517	85 d2		 test	 edx, edx
  00519	75 1b		 jne	 SHORT $LN69@Encode

; 449  : 		{
; 450  : 			if(m_EncBitSize > AccessTblSize*8) 

  0051b	8b 45 f0	 mov	 eax, DWORD PTR tv1253[ebp]
  0051e	c1 e0 03	 shl	 eax, 3
  00521	3b c8		 cmp	 ecx, eax
  00523	0f 87 9e 00 00
	00		 ja	 $LN60@Encode

; 451  : 			{
; 452  : 				I3TRACE( "Data Incleased!!\n");
; 453  : 				I3TRACE( "%d -> %d bit\n", AccessTblSize * 8, m_EncBitSize);
; 454  : 				return 0;
; 455  : 			}
; 456  : 
; 457  : 			m_EncBitSize = 0;
; 458  : 			*(access_tbl+access_tbl_pos++) = bitpos;

  00529	8b 45 f4	 mov	 eax, DWORD PTR _pDst$1$[ebp]
  0052c	89 55 fc	 mov	 DWORD PTR _m_EncBitSize$1$[ebp], edx
  0052f	89 3c b0	 mov	 DWORD PTR [eax+esi*4], edi
  00532	46		 inc	 esi
  00533	89 75 e4	 mov	 DWORD PTR _access_tbl_pos$1$[ebp], esi
$LN69@Encode:

; 459  : 		}
; 460  : 
; 461  : 		val = *((HM_DATA *)(pSrc+loop));

  00536	8b 45 08	 mov	 eax, DWORD PTR _pData$[ebp]

; 462  : 		pos = 0;

  00539	33 c9		 xor	 ecx, ecx
  0053b	8a 14 18	 mov	 dl, BYTE PTR [eax+ebx]

; 463  : 		while(val != pFlagTable[pos].data) pos++;

  0053e	8b 5d dc	 mov	 ebx, DWORD PTR _flag_table$1$[ebp]
  00541	3a 13		 cmp	 dl, BYTE PTR [ebx]
  00543	74 09		 je	 SHORT $LN65@Encode
$LL64@Encode:
  00545	41		 inc	 ecx
  00546	8d 04 49	 lea	 eax, DWORD PTR [ecx+ecx*2]
  00549	3a 14 83	 cmp	 dl, BYTE PTR [ebx+eax*4]
  0054c	75 f7		 jne	 SHORT $LL64@Encode
$LN65@Encode:

; 464  : 
; 465  : 		flag = pFlagTable[pos].flag;

  0054e	8d 04 49	 lea	 eax, DWORD PTR [ecx+ecx*2]

; 466  : 		len  = pFlagTable[pos].flag_width;
; 467  : 
; 468  : 		for(loop2 = 0; loop2 < len; loop2++) 

  00551	8b 4d fc	 mov	 ecx, DWORD PTR _m_EncBitSize$1$[ebp]
  00554	8b 54 83 04	 mov	 edx, DWORD PTR [ebx+eax*4+4]
  00558	0f b6 44 83 08	 movzx	 eax, BYTE PTR [ebx+eax*4+8]
  0055d	33 db		 xor	 ebx, ebx
  0055f	89 55 d4	 mov	 DWORD PTR _flag$1$[ebp], edx
  00562	89 45 d8	 mov	 DWORD PTR _len$1$[ebp], eax
  00565	85 c0		 test	 eax, eax
  00567	74 48		 je	 SHORT $LN61@Encode
  00569	be 01 00 00 00	 mov	 esi, 1
  0056e	8b ff		 npad	 2
$LL68@Encode:

; 469  : 		{
; 470  : 			if((flag & ( 1 << (loop2))) != 0) 

  00570	85 f2		 test	 esi, edx
  00572	74 2b		 je	 SHORT $LN71@Encode

; 471  : 			{
; 472  : 				*(data_buf+(bitpos>>4)) |= (1 << (bitpos & 15));

  00574	8b 55 c4	 mov	 edx, DWORD PTR _header$[ebp+20]
  00577	8b c7		 mov	 eax, edi
  00579	8b 7d f4	 mov	 edi, DWORD PTR _pDst$1$[ebp]
  0057c	c1 e8 04	 shr	 eax, 4
  0057f	8d 0c 97	 lea	 ecx, DWORD PTR [edi+edx*4]
  00582	8b 7d e8	 mov	 edi, DWORD PTR _bitpos$1$[ebp]
  00585	8d 14 41	 lea	 edx, DWORD PTR [ecx+eax*2]
  00588	8b c7		 mov	 eax, edi
  0058a	0f b7 0a	 movzx	 ecx, WORD PTR [edx]
  0058d	83 e0 0f	 and	 eax, 15			; 0000000fH
  00590	0f ab c1	 bts	 ecx, eax
  00593	8b 45 d8	 mov	 eax, DWORD PTR _len$1$[ebp]
  00596	66 89 0a	 mov	 WORD PTR [edx], cx
  00599	8b 4d fc	 mov	 ecx, DWORD PTR _m_EncBitSize$1$[ebp]
  0059c	8b 55 d4	 mov	 edx, DWORD PTR _flag$1$[ebp]
$LN71@Encode:

; 473  : 			}
; 474  : 
; 475  : 			bitpos++;

  0059f	47		 inc	 edi
  005a0	d1 c6		 rol	 esi, 1

; 476  : 			m_EncBitSize++;

  005a2	41		 inc	 ecx
  005a3	89 7d e8	 mov	 DWORD PTR _bitpos$1$[ebp], edi
  005a6	43		 inc	 ebx
  005a7	89 4d fc	 mov	 DWORD PTR _m_EncBitSize$1$[ebp], ecx
  005aa	3b d8		 cmp	 ebx, eax
  005ac	72 c2		 jb	 SHORT $LL68@Encode

; 466  : 		len  = pFlagTable[pos].flag_width;
; 467  : 
; 468  : 		for(loop2 = 0; loop2 < len; loop2++) 

  005ae	8b 75 e4	 mov	 esi, DWORD PTR _access_tbl_pos$1$[ebp]
$LN61@Encode:

; 445  : 
; 446  : 	for(loop = 0; loop < Size; loop += sizeof(HM_DATA)) 

  005b1	8b 5d e0	 mov	 ebx, DWORD PTR _loop$1$[ebp]
  005b4	43		 inc	 ebx
  005b5	89 5d e0	 mov	 DWORD PTR _loop$1$[ebp], ebx
  005b8	3b 5d 0c	 cmp	 ebx, DWORD PTR _Size$[ebp]
  005bb	0f 82 4f ff ff
	ff		 jb	 $LL63@Encode
$LN62@Encode:

; 477  : 		}
; 478  : 	}
; 479  : 
; 480  : 	*(access_tbl+access_tbl_pos) = bitpos;

  005c1	8b 45 f4	 mov	 eax, DWORD PTR _pDst$1$[ebp]
  005c4	89 3c b0	 mov	 DWORD PTR [eax+esi*4], edi
$LN60@Encode:

; 549  : 
; 550  : 	i3MemFree( flag_table );

  005c7	68 26 02 00 00	 push	 550			; 00000226H
  005cc	68 00 00 00 00	 push	 OFFSET ??_C@_0GM@GBOMBOHL@E?3?2Proyectos?2JuegosOnlineproyec@
  005d1	ff 75 dc	 push	 DWORD PTR _flag_table$1$[ebp]
  005d4	e8 00 00 00 00	 call	 ?FreeTool@i3mem@@YAXPAXPBDH@Z ; i3mem::FreeTool

; 551  : 	i3MemFree( tree_table );

  005d9	68 27 02 00 00	 push	 551			; 00000227H
  005de	68 00 00 00 00	 push	 OFFSET ??_C@_0GM@GBOMBOHL@E?3?2Proyectos?2JuegosOnlineproyec@
  005e3	ff 75 f8	 push	 DWORD PTR $T2[ebp]
  005e6	e8 00 00 00 00	 call	 ?FreeTool@i3mem@@YAXPAXPBDH@Z ; i3mem::FreeTool

; 552  : 
; 553  : 	s_ResultSize  = header.m_HeaderSize;
; 554  : 	s_ResultSize += header.m_FlagSize;
; 555  : 	s_ResultSize += header.m_AccessTblSize;
; 556  : 	s_ResultSize += header.m_EncSize;

  005eb	8b 45 d0	 mov	 eax, DWORD PTR tv1235[ebp]
  005ee	83 c4 18	 add	 esp, 24			; 00000018H
  005f1	a3 00 00 00 00	 mov	 DWORD PTR ?s_ResultSize@@3IA, eax

; 557  : 
; 558  : 	return buf;

  005f6	8b 45 ec	 mov	 eax, DWORD PTR _buf$1$[ebp]
  005f9	5f		 pop	 edi
  005fa	5e		 pop	 esi
  005fb	5b		 pop	 ebx

; 559  : }

  005fc	8b e5		 mov	 esp, ebp
  005fe	5d		 pop	 ebp
  005ff	c3		 ret	 0
?Encode@i3CompressHuffman@@YAPAEPAEII@Z ENDP		; i3CompressHuffman::Encode
_TEXT	ENDS
; Function compile flags: /Ogtp
; File E:\Proyectos\JuegosOnlineproyectos\PB\pbblow\Piercing Blow Remake\i3Server\src\i3Base\i3CompressHuffman.cpp
;	COMDAT ?GetSourceSize@i3CompressHuffman@@YAIXZ
_TEXT	SEGMENT
?GetSourceSize@i3CompressHuffman@@YAIXZ PROC		; i3CompressHuffman::GetSourceSize, COMDAT

; 97   : 	return s_SourceSize;

  00000	a1 00 00 00 00	 mov	 eax, DWORD PTR ?s_SourceSize@@3IA

; 98   : }

  00005	c3		 ret	 0
?GetSourceSize@i3CompressHuffman@@YAIXZ ENDP		; i3CompressHuffman::GetSourceSize
_TEXT	ENDS
; Function compile flags: /Ogtp
; File E:\Proyectos\JuegosOnlineproyectos\PB\pbblow\Piercing Blow Remake\i3Server\src\i3Base\i3CompressHuffman.cpp
;	COMDAT ?GetResultSize@i3CompressHuffman@@YAIXZ
_TEXT	SEGMENT
?GetResultSize@i3CompressHuffman@@YAIXZ PROC		; i3CompressHuffman::GetResultSize, COMDAT

; 92   : 	return s_ResultSize;

  00000	a1 00 00 00 00	 mov	 eax, DWORD PTR ?s_ResultSize@@3IA

; 93   : }

  00005	c3		 ret	 0
?GetResultSize@i3CompressHuffman@@YAIXZ ENDP		; i3CompressHuffman::GetResultSize
_TEXT	ENDS
; Function compile flags: /Ogtp
; File E:\Proyectos\JuegosOnlineproyectos\PB\pbblow\Piercing Blow Remake\i3Server\src\i3Base\i3CompressHuffman.cpp
;	COMDAT ??_Ei3ElementBase@@UAEPAXI@Z
_TEXT	SEGMENT
__$EHRec$ = -12						; size = 12
___flags$ = 8						; size = 4
??_Ei3ElementBase@@UAEPAXI@Z PROC			; i3ElementBase::`vector deleting destructor', COMDAT
; _this$ = ecx
  00000	55		 push	 ebp
  00001	8b ec		 mov	 ebp, esp
  00003	6a ff		 push	 -1
  00005	68 00 00 00 00	 push	 __ehhandler$??_Ei3ElementBase@@UAEPAXI@Z
  0000a	64 a1 00 00 00
	00		 mov	 eax, DWORD PTR fs:0
  00010	50		 push	 eax
  00011	53		 push	 ebx
  00012	56		 push	 esi
  00013	57		 push	 edi
  00014	a1 00 00 00 00	 mov	 eax, DWORD PTR ___security_cookie
  00019	33 c5		 xor	 eax, ebp
  0001b	50		 push	 eax
  0001c	8d 45 f4	 lea	 eax, DWORD PTR __$EHRec$[ebp]
  0001f	64 a3 00 00 00
	00		 mov	 DWORD PTR fs:0, eax
  00025	8b f1		 mov	 esi, ecx
  00027	8b 5d 08	 mov	 ebx, DWORD PTR ___flags$[ebp]
  0002a	8b fb		 mov	 edi, ebx
  0002c	83 e7 01	 and	 edi, 1
  0002f	f6 c3 02	 test	 bl, 2
  00032	74 3f		 je	 SHORT $LN2@vector
  00034	68 00 00 00 00	 push	 OFFSET ??1i3ElementBase@@UAE@XZ ; i3ElementBase::~i3ElementBase
  00039	ff 76 fc	 push	 DWORD PTR [esi-4]
  0003c	8d 5e fc	 lea	 ebx, DWORD PTR [esi-4]
  0003f	6a 10		 push	 16			; 00000010H
  00041	56		 push	 esi
  00042	e8 00 00 00 00	 call	 ??_M@YGXPAXIIP6EX0@Z@Z
  00047	85 ff		 test	 edi, edi
  00049	74 12		 je	 SHORT $LN3@vector
  0004b	8b 0b		 mov	 ecx, DWORD PTR [ebx]
  0004d	c1 e1 04	 shl	 ecx, 4
  00050	83 c1 04	 add	 ecx, 4
  00053	51		 push	 ecx
  00054	53		 push	 ebx
  00055	e8 00 00 00 00	 call	 ??_V@YAXPAXI@Z		; operator delete[]
  0005a	83 c4 08	 add	 esp, 8
$LN3@vector:
  0005d	8b c3		 mov	 eax, ebx
  0005f	8b 4d f4	 mov	 ecx, DWORD PTR __$EHRec$[ebp]
  00062	64 89 0d 00 00
	00 00		 mov	 DWORD PTR fs:0, ecx
  00069	59		 pop	 ecx
  0006a	5f		 pop	 edi
  0006b	5e		 pop	 esi
  0006c	5b		 pop	 ebx
  0006d	8b e5		 mov	 esp, ebp
  0006f	5d		 pop	 ebp
  00070	c2 04 00	 ret	 4
$LN2@vector:
  00073	e8 00 00 00 00	 call	 ??1i3ElementBase@@UAE@XZ ; i3ElementBase::~i3ElementBase
  00078	85 ff		 test	 edi, edi
  0007a	74 1b		 je	 SHORT $LN6@vector
  0007c	f6 c3 04	 test	 bl, 4
  0007f	75 0b		 jne	 SHORT $LN5@vector
  00081	56		 push	 esi
  00082	e8 00 00 00 00	 call	 ??3i3ElementBase@@SAXPAX@Z ; i3ElementBase::operator delete
  00087	83 c4 04	 add	 esp, 4
  0008a	eb 0b		 jmp	 SHORT $LN6@vector
$LN5@vector:

  0008c	6a 10		 push	 16			; 00000010H
  0008e	56		 push	 esi
  0008f	e8 00 00 00 00	 call	 ??3@YAXPAXI@Z		; operator delete
  00094	83 c4 08	 add	 esp, 8
$LN6@vector:
  00097	8b c6		 mov	 eax, esi
  00099	8b 4d f4	 mov	 ecx, DWORD PTR __$EHRec$[ebp]
  0009c	64 89 0d 00 00
	00 00		 mov	 DWORD PTR fs:0, ecx
  000a3	59		 pop	 ecx
  000a4	5f		 pop	 edi
  000a5	5e		 pop	 esi
  000a6	5b		 pop	 ebx
  000a7	8b e5		 mov	 esp, ebp
  000a9	5d		 pop	 ebp
  000aa	c2 04 00	 ret	 4
  000ad	cc		 int	 3
  000ae	cc		 int	 3
  000af	cc		 int	 3
  000b0	cc		 int	 3
  000b1	cc		 int	 3
_TEXT	ENDS
;	COMDAT text$x
text$x	SEGMENT
__ehhandler$??_Ei3ElementBase@@UAEPAXI@Z:
  00000	90		 npad	 1
  00001	90		 npad	 1
  00002	8b 54 24 08	 mov	 edx, DWORD PTR [esp+8]
  00006	8d 42 0c	 lea	 eax, DWORD PTR [edx+12]
  00009	8b 4a f0	 mov	 ecx, DWORD PTR [edx-16]
  0000c	33 c8		 xor	 ecx, eax
  0000e	e8 00 00 00 00	 call	 @__security_check_cookie@4
  00013	b8 00 00 00 00	 mov	 eax, OFFSET __ehfuncinfo$??_Ei3ElementBase@@UAEPAXI@Z
  00018	e9 00 00 00 00	 jmp	 ___CxxFrameHandler3
text$x	ENDS
??_Ei3ElementBase@@UAEPAXI@Z ENDP			; i3ElementBase::`vector deleting destructor'
; Function compile flags: /Ogtp
; File E:\Proyectos\JuegosOnlineproyectos\PB\pbblow\Piercing Blow Remake\i3Server\src\i3Base\i3CompressHuffman.cpp
;	COMDAT ??_Gi3ElementBase@@UAEPAXI@Z
_TEXT	SEGMENT
___flags$ = 8						; size = 4
??_Gi3ElementBase@@UAEPAXI@Z PROC			; i3ElementBase::`scalar deleting destructor', COMDAT
; _this$ = ecx
  00000	55		 push	 ebp
  00001	8b ec		 mov	 ebp, esp
  00003	56		 push	 esi
  00004	8b f1		 mov	 esi, ecx
  00006	e8 00 00 00 00	 call	 ??1i3ElementBase@@UAE@XZ ; i3ElementBase::~i3ElementBase
  0000b	8b 45 08	 mov	 eax, DWORD PTR ___flags$[ebp]
  0000e	a8 01		 test	 al, 1
  00010	74 1f		 je	 SHORT $LN10@scalar
  00012	a8 04		 test	 al, 4
  00014	75 10		 jne	 SHORT $LN3@scalar
  00016	56		 push	 esi
  00017	e8 00 00 00 00	 call	 ??3i3ElementBase@@SAXPAX@Z ; i3ElementBase::operator delete
  0001c	83 c4 04	 add	 esp, 4
  0001f	8b c6		 mov	 eax, esi
  00021	5e		 pop	 esi
  00022	5d		 pop	 ebp
  00023	c2 04 00	 ret	 4
$LN3@scalar:

  00026	6a 10		 push	 16			; 00000010H
  00028	56		 push	 esi
  00029	e8 00 00 00 00	 call	 ??3@YAXPAXI@Z		; operator delete
  0002e	83 c4 08	 add	 esp, 8
$LN10@scalar:
  00031	8b c6		 mov	 eax, esi
  00033	5e		 pop	 esi
  00034	5d		 pop	 ebp
  00035	c2 04 00	 ret	 4
??_Gi3ElementBase@@UAEPAXI@Z ENDP			; i3ElementBase::`scalar deleting destructor'
_TEXT	ENDS
; Function compile flags: /Ogtp
;	COMDAT ??4i3ElementBase@@QAEAAV0@ABV0@@Z
_TEXT	SEGMENT
___that$ = 8						; size = 4
??4i3ElementBase@@QAEAAV0@ABV0@@Z PROC			; i3ElementBase::operator=, COMDAT
; _this$ = ecx
  00000	55		 push	 ebp
  00001	8b ec		 mov	 ebp, esp
  00003	8b 55 08	 mov	 edx, DWORD PTR ___that$[ebp]
  00006	8b 42 04	 mov	 eax, DWORD PTR [edx+4]
  00009	89 41 04	 mov	 DWORD PTR [ecx+4], eax
  0000c	8b 42 08	 mov	 eax, DWORD PTR [edx+8]
  0000f	89 41 08	 mov	 DWORD PTR [ecx+8], eax
  00012	8b 42 0c	 mov	 eax, DWORD PTR [edx+12]
  00015	89 41 0c	 mov	 DWORD PTR [ecx+12], eax
  00018	8b c1		 mov	 eax, ecx
  0001a	5d		 pop	 ebp
  0001b	c2 04 00	 ret	 4
??4i3ElementBase@@QAEAAV0@ABV0@@Z ENDP			; i3ElementBase::operator=
_TEXT	ENDS
; Function compile flags: /Ogtp
;	COMDAT ??0i3ElementBase@@QAE@ABV0@@Z
_TEXT	SEGMENT
___that$ = 8						; size = 4
??0i3ElementBase@@QAE@ABV0@@Z PROC			; i3ElementBase::i3ElementBase, COMDAT
; _this$ = ecx
  00000	55		 push	 ebp
  00001	8b ec		 mov	 ebp, esp
  00003	8b 55 08	 mov	 edx, DWORD PTR ___that$[ebp]
  00006	c7 01 00 00 00
	00		 mov	 DWORD PTR [ecx], OFFSET ??_7i3ElementBase@@6B@
  0000c	8b 42 04	 mov	 eax, DWORD PTR [edx+4]
  0000f	89 41 04	 mov	 DWORD PTR [ecx+4], eax
  00012	8b 42 08	 mov	 eax, DWORD PTR [edx+8]
  00015	89 41 08	 mov	 DWORD PTR [ecx+8], eax
  00018	8b 42 0c	 mov	 eax, DWORD PTR [edx+12]
  0001b	89 41 0c	 mov	 DWORD PTR [ecx+12], eax
  0001e	8b c1		 mov	 eax, ecx
  00020	5d		 pop	 ebp
  00021	c2 04 00	 ret	 4
??0i3ElementBase@@QAE@ABV0@@Z ENDP			; i3ElementBase::i3ElementBase
_TEXT	ENDS
; Function compile flags: /Ogtp
; File E:\Proyectos\JuegosOnlineproyectos\PB\pbblow\Piercing Blow Remake\i3Server\include\i3Base\i3ElementBase.h
;	COMDAT ?_internal_SetRefCount@i3ElementBase@@QAEXH@Z
_TEXT	SEGMENT
_cnt$ = 8						; size = 4
?_internal_SetRefCount@i3ElementBase@@QAEXH@Z PROC	; i3ElementBase::_internal_SetRefCount, COMDAT
; _this$ = ecx

; 401  : 	{

  00000	55		 push	 ebp
  00001	8b ec		 mov	 ebp, esp

; 402  : 		m_RefCount = cnt;

  00003	8b 45 08	 mov	 eax, DWORD PTR _cnt$[ebp]
  00006	89 41 04	 mov	 DWORD PTR [ecx+4], eax

; 403  : 	}

  00009	5d		 pop	 ebp
  0000a	c2 04 00	 ret	 4
?_internal_SetRefCount@i3ElementBase@@QAEXH@Z ENDP	; i3ElementBase::_internal_SetRefCount
_TEXT	ENDS
; Function compile flags: /Ogtp
; File E:\Proyectos\JuegosOnlineproyectos\PB\pbblow\Piercing Blow Remake\i3Server\include\i3Base\i3ElementBase.h
;	COMDAT ?AddRef@i3ElementBase@@QAEHXZ
_TEXT	SEGMENT
?AddRef@i3ElementBase@@QAEHXZ PROC			; i3ElementBase::AddRef, COMDAT
; _this$ = ecx

; 392  : 		m_RefCount++;

  00000	ff 41 04	 inc	 DWORD PTR [ecx+4]

; 393  : 
; 394  : 		return m_RefCount;

  00003	8b 41 04	 mov	 eax, DWORD PTR [ecx+4]

; 395  : 	}

  00006	c3		 ret	 0
?AddRef@i3ElementBase@@QAEHXZ ENDP			; i3ElementBase::AddRef
_TEXT	ENDS
; Function compile flags: /Ogtp
; File E:\Proyectos\JuegosOnlineproyectos\PB\pbblow\Piercing Blow Remake\i3Server\include\i3Base\i3ElementBase.h
;	COMDAT ?IsTypeOf@i3ElementBase@@QAE_NPAVi3ClassMeta@@@Z
_TEXT	SEGMENT
_pMeta$ = 8						; size = 4
?IsTypeOf@i3ElementBase@@QAE_NPAVi3ClassMeta@@@Z PROC	; i3ElementBase::IsTypeOf, COMDAT
; _this$ = ecx

; 356  : 	{

  00000	55		 push	 ebp
  00001	8b ec		 mov	 ebp, esp

; 357  : 		return GetMeta()->IsTypeOf( pMeta);

  00003	8b 01		 mov	 eax, DWORD PTR [ecx]
  00005	ff 75 08	 push	 DWORD PTR _pMeta$[ebp]
  00008	ff 10		 call	 DWORD PTR [eax]
  0000a	8b c8		 mov	 ecx, eax
  0000c	e8 00 00 00 00	 call	 ?IsTypeOf@i3ClassMeta@@QAE_NPAV1@@Z ; i3ClassMeta::IsTypeOf

; 358  : 	}

  00011	5d		 pop	 ebp
  00012	c2 04 00	 ret	 4
?IsTypeOf@i3ElementBase@@QAE_NPAVi3ClassMeta@@@Z ENDP	; i3ElementBase::IsTypeOf
_TEXT	ENDS
; Function compile flags: /Ogtp
; File E:\Proyectos\JuegosOnlineproyectos\PB\pbblow\Piercing Blow Remake\i3Server\include\i3Base\i3ElementBase.h
; File E:\Proyectos\JuegosOnlineproyectos\PB\pbblow\Piercing Blow Remake\i3Server\include\i3Base\i3ClassMeta.h
; File E:\Proyectos\JuegosOnlineproyectos\PB\pbblow\Piercing Blow Remake\i3Server\include\i3Base\i3ElementBase.h
;	COMDAT ?IsExactTypeOf@i3ElementBase@@QAE_NPAVi3ClassMeta@@@Z
_TEXT	SEGMENT
_pMeta$ = 8						; size = 4
?IsExactTypeOf@i3ElementBase@@QAE_NPAVi3ClassMeta@@@Z PROC ; i3ElementBase::IsExactTypeOf, COMDAT
; _this$ = ecx

; 351  : 	{

  00000	55		 push	 ebp
  00001	8b ec		 mov	 ebp, esp

; 352  : 		return GetMeta()->IsExactTypeOf( pMeta);

  00003	8b 01		 mov	 eax, DWORD PTR [ecx]
  00005	ff 10		 call	 DWORD PTR [eax]
; File E:\Proyectos\JuegosOnlineproyectos\PB\pbblow\Piercing Blow Remake\i3Server\include\i3Base\i3ClassMeta.h

; 90   : 		return pMeta == this;

  00007	39 45 08	 cmp	 DWORD PTR _pMeta$[ebp], eax
  0000a	0f 94 c0	 sete	 al
; File E:\Proyectos\JuegosOnlineproyectos\PB\pbblow\Piercing Blow Remake\i3Server\include\i3Base\i3ElementBase.h

; 353  : 	}

  0000d	5d		 pop	 ebp
  0000e	c2 04 00	 ret	 4
?IsExactTypeOf@i3ElementBase@@QAE_NPAVi3ClassMeta@@@Z ENDP ; i3ElementBase::IsExactTypeOf
_TEXT	ENDS
; Function compile flags: /Ogtp
; File E:\Proyectos\JuegosOnlineproyectos\PB\pbblow\Piercing Blow Remake\i3Server\include\i3Base\i3ElementBase.h
;	COMDAT ?__GetMemoryPool@i3ElementBase@@QAEPAVi3MemoryPool@@XZ
_TEXT	SEGMENT
?__GetMemoryPool@i3ElementBase@@QAEPAVi3MemoryPool@@XZ PROC ; i3ElementBase::__GetMemoryPool, COMDAT
; _this$ = ecx

; 348  : 	i3MemoryPool *	__GetMemoryPool(void)							{ return m_pPool; }

  00000	8b 41 0c	 mov	 eax, DWORD PTR [ecx+12]
  00003	c3		 ret	 0
?__GetMemoryPool@i3ElementBase@@QAEPAVi3MemoryPool@@XZ ENDP ; i3ElementBase::__GetMemoryPool
_TEXT	ENDS
; Function compile flags: /Ogtp
; File E:\Proyectos\JuegosOnlineproyectos\PB\pbblow\Piercing Blow Remake\i3Server\include\i3Base\i3ElementBase.h
;	COMDAT ?__SetMemoryPool@i3ElementBase@@QAEXPAVi3MemoryPool@@@Z
_TEXT	SEGMENT
_pPool$ = 8						; size = 4
?__SetMemoryPool@i3ElementBase@@QAEXPAVi3MemoryPool@@@Z PROC ; i3ElementBase::__SetMemoryPool, COMDAT
; _this$ = ecx

; 347  : 	void			__SetMemoryPool( i3MemoryPool * pPool)			{ m_pPool = pPool; }

  00000	55		 push	 ebp
  00001	8b ec		 mov	 ebp, esp
  00003	8b 45 08	 mov	 eax, DWORD PTR _pPool$[ebp]
  00006	89 41 0c	 mov	 DWORD PTR [ecx+12], eax
  00009	5d		 pop	 ebp
  0000a	c2 04 00	 ret	 4
?__SetMemoryPool@i3ElementBase@@QAEXPAVi3MemoryPool@@@Z ENDP ; i3ElementBase::__SetMemoryPool
_TEXT	ENDS
; Function compile flags: /Ogtp
; File E:\Proyectos\JuegosOnlineproyectos\PB\pbblow\Piercing Blow Remake\i3Server\include\i3Base\i3ElementBase.h
;	COMDAT ?GetRefCount@i3ElementBase@@QAEHXZ
_TEXT	SEGMENT
?GetRefCount@i3ElementBase@@QAEHXZ PROC			; i3ElementBase::GetRefCount, COMDAT
; _this$ = ecx

; 344  : 		return m_RefCount;

  00000	8b 41 04	 mov	 eax, DWORD PTR [ecx+4]

; 345  : 	}

  00003	c3		 ret	 0
?GetRefCount@i3ElementBase@@QAEHXZ ENDP			; i3ElementBase::GetRefCount
_TEXT	ENDS
; Function compile flags: /Ogtp
; File E:\Proyectos\JuegosOnlineproyectos\PB\pbblow\Piercing Blow Remake\i3Server\include\i3Base\i3ElementBase.h
;	COMDAT ?GetClassMeta@i3ElementBase@@SAPAVi3ClassMeta@@XZ
_TEXT	SEGMENT
?GetClassMeta@i3ElementBase@@SAPAVi3ClassMeta@@XZ PROC	; i3ElementBase::GetClassMeta, COMDAT

; 314  : 	I3_ABSTRACT_CLASS_DEFINE( i3ElementBase);

  00000	a1 00 00 00 00	 mov	 eax, DWORD PTR ?s_pClassMetai3ElementBase@i3ElementBase@@2PAVi3ClassMeta@@A ; i3ElementBase::s_pClassMetai3ElementBase
  00005	c3		 ret	 0
?GetClassMeta@i3ElementBase@@SAPAVi3ClassMeta@@XZ ENDP	; i3ElementBase::GetClassMeta
_TEXT	ENDS
; Function compile flags: /Ogtp
;	COMDAT ??_Ei3ClassMeta@@UAEPAXI@Z
_TEXT	SEGMENT
__$EHRec$ = -12						; size = 12
___flags$ = 8						; size = 4
??_Ei3ClassMeta@@UAEPAXI@Z PROC				; i3ClassMeta::`vector deleting destructor', COMDAT
; _this$ = ecx
  00000	55		 push	 ebp
  00001	8b ec		 mov	 ebp, esp
  00003	6a ff		 push	 -1
  00005	68 00 00 00 00	 push	 __ehhandler$??_Ei3ClassMeta@@UAEPAXI@Z
  0000a	64 a1 00 00 00
	00		 mov	 eax, DWORD PTR fs:0
  00010	50		 push	 eax
  00011	53		 push	 ebx
  00012	56		 push	 esi
  00013	57		 push	 edi
  00014	a1 00 00 00 00	 mov	 eax, DWORD PTR ___security_cookie
  00019	33 c5		 xor	 eax, ebp
  0001b	50		 push	 eax
  0001c	8d 45 f4	 lea	 eax, DWORD PTR __$EHRec$[ebp]
  0001f	64 a3 00 00 00
	00		 mov	 DWORD PTR fs:0, eax
  00025	8b f1		 mov	 esi, ecx
  00027	8b 45 08	 mov	 eax, DWORD PTR ___flags$[ebp]
  0002a	8b f8		 mov	 edi, eax
  0002c	83 e7 01	 and	 edi, 1
  0002f	a8 02		 test	 al, 2
  00031	74 49		 je	 SHORT $LN2@vector
  00033	68 00 00 00 00	 push	 OFFSET ??1i3ClassMeta@@UAE@XZ ; i3ClassMeta::~i3ClassMeta
  00038	ff 76 fc	 push	 DWORD PTR [esi-4]
  0003b	8d 5e fc	 lea	 ebx, DWORD PTR [esi-4]
  0003e	6a 38		 push	 56			; 00000038H
  00040	56		 push	 esi
  00041	e8 00 00 00 00	 call	 ??_M@YGXPAXIIP6EX0@Z@Z
  00046	85 ff		 test	 edi, edi
  00048	74 1c		 je	 SHORT $LN3@vector
  0004a	8b 0b		 mov	 ecx, DWORD PTR [ebx]
  0004c	8d 14 cd 00 00
	00 00		 lea	 edx, DWORD PTR [ecx*8]
  00053	2b d1		 sub	 edx, ecx
  00055	8d 0c d5 04 00
	00 00		 lea	 ecx, DWORD PTR [edx*8+4]
  0005c	51		 push	 ecx
  0005d	53		 push	 ebx
  0005e	e8 00 00 00 00	 call	 ??_V@YAXPAXI@Z		; operator delete[]
  00063	83 c4 08	 add	 esp, 8
$LN3@vector:
  00066	8b c3		 mov	 eax, ebx
  00068	8b 4d f4	 mov	 ecx, DWORD PTR __$EHRec$[ebp]
  0006b	64 89 0d 00 00
	00 00		 mov	 DWORD PTR fs:0, ecx
  00072	59		 pop	 ecx
  00073	5f		 pop	 edi
  00074	5e		 pop	 esi
  00075	5b		 pop	 ebx
  00076	8b e5		 mov	 esp, ebp
  00078	5d		 pop	 ebp
  00079	c2 04 00	 ret	 4
$LN2@vector:
  0007c	e8 00 00 00 00	 call	 ??1i3ClassMeta@@UAE@XZ	; i3ClassMeta::~i3ClassMeta
  00081	85 ff		 test	 edi, edi
  00083	74 0b		 je	 SHORT $LN4@vector
  00085	6a 38		 push	 56			; 00000038H
  00087	56		 push	 esi
  00088	e8 00 00 00 00	 call	 ??3@YAXPAXI@Z		; operator delete
  0008d	83 c4 08	 add	 esp, 8
$LN4@vector:
  00090	8b c6		 mov	 eax, esi
  00092	8b 4d f4	 mov	 ecx, DWORD PTR __$EHRec$[ebp]
  00095	64 89 0d 00 00
	00 00		 mov	 DWORD PTR fs:0, ecx
  0009c	59		 pop	 ecx
  0009d	5f		 pop	 edi
  0009e	5e		 pop	 esi
  0009f	5b		 pop	 ebx
  000a0	8b e5		 mov	 esp, ebp
  000a2	5d		 pop	 ebp
  000a3	c2 04 00	 ret	 4
  000a6	cc		 int	 3
  000a7	cc		 int	 3
  000a8	cc		 int	 3
  000a9	cc		 int	 3
  000aa	cc		 int	 3
_TEXT	ENDS
;	COMDAT text$x
text$x	SEGMENT
__ehhandler$??_Ei3ClassMeta@@UAEPAXI@Z:
  00000	90		 npad	 1
  00001	90		 npad	 1
  00002	8b 54 24 08	 mov	 edx, DWORD PTR [esp+8]
  00006	8d 42 0c	 lea	 eax, DWORD PTR [edx+12]
  00009	8b 4a f0	 mov	 ecx, DWORD PTR [edx-16]
  0000c	33 c8		 xor	 ecx, eax
  0000e	e8 00 00 00 00	 call	 @__security_check_cookie@4
  00013	b8 00 00 00 00	 mov	 eax, OFFSET __ehfuncinfo$??_Ei3ClassMeta@@UAEPAXI@Z
  00018	e9 00 00 00 00	 jmp	 ___CxxFrameHandler3
text$x	ENDS
??_Ei3ClassMeta@@UAEPAXI@Z ENDP				; i3ClassMeta::`vector deleting destructor'
; Function compile flags: /Ogtp
;	COMDAT ??_Gi3ClassMeta@@UAEPAXI@Z
_TEXT	SEGMENT
___flags$ = 8						; size = 4
??_Gi3ClassMeta@@UAEPAXI@Z PROC				; i3ClassMeta::`scalar deleting destructor', COMDAT
; _this$ = ecx
  00000	55		 push	 ebp
  00001	8b ec		 mov	 ebp, esp
  00003	56		 push	 esi
  00004	8b f1		 mov	 esi, ecx
  00006	e8 00 00 00 00	 call	 ??1i3ClassMeta@@UAE@XZ	; i3ClassMeta::~i3ClassMeta
  0000b	f6 45 08 01	 test	 BYTE PTR ___flags$[ebp], 1
  0000f	74 0b		 je	 SHORT $LN5@scalar
  00011	6a 38		 push	 56			; 00000038H
  00013	56		 push	 esi
  00014	e8 00 00 00 00	 call	 ??3@YAXPAXI@Z		; operator delete
  00019	83 c4 08	 add	 esp, 8
$LN5@scalar:
  0001c	8b c6		 mov	 eax, esi
  0001e	5e		 pop	 esi
  0001f	5d		 pop	 ebp
  00020	c2 04 00	 ret	 4
??_Gi3ClassMeta@@UAEPAXI@Z ENDP				; i3ClassMeta::`scalar deleting destructor'
_TEXT	ENDS
; Function compile flags: /Ogtp
;	COMDAT ??4i3ClassMeta@@QAEAAV0@ABV0@@Z
_TEXT	SEGMENT
___that$ = 8						; size = 4
??4i3ClassMeta@@QAEAAV0@ABV0@@Z PROC			; i3ClassMeta::operator=, COMDAT
; _this$ = ecx
  00000	55		 push	 ebp
  00001	8b ec		 mov	 ebp, esp
  00003	8b 55 08	 mov	 edx, DWORD PTR ___that$[ebp]
  00006	8b 42 04	 mov	 eax, DWORD PTR [edx+4]
  00009	89 41 04	 mov	 DWORD PTR [ecx+4], eax
  0000c	8b 42 08	 mov	 eax, DWORD PTR [edx+8]
  0000f	89 41 08	 mov	 DWORD PTR [ecx+8], eax
  00012	8b 42 0c	 mov	 eax, DWORD PTR [edx+12]
  00015	89 41 0c	 mov	 DWORD PTR [ecx+12], eax
  00018	8b 42 10	 mov	 eax, DWORD PTR [edx+16]
  0001b	89 41 10	 mov	 DWORD PTR [ecx+16], eax
  0001e	8b 42 14	 mov	 eax, DWORD PTR [edx+20]
  00021	89 41 14	 mov	 DWORD PTR [ecx+20], eax
  00024	8b 42 18	 mov	 eax, DWORD PTR [edx+24]
  00027	89 41 18	 mov	 DWORD PTR [ecx+24], eax
  0002a	8b 42 1c	 mov	 eax, DWORD PTR [edx+28]
  0002d	89 41 1c	 mov	 DWORD PTR [ecx+28], eax
  00030	8b 42 20	 mov	 eax, DWORD PTR [edx+32]
  00033	89 41 20	 mov	 DWORD PTR [ecx+32], eax
  00036	8b 42 24	 mov	 eax, DWORD PTR [edx+36]
  00039	89 41 24	 mov	 DWORD PTR [ecx+36], eax
  0003c	8b 42 28	 mov	 eax, DWORD PTR [edx+40]
  0003f	89 41 28	 mov	 DWORD PTR [ecx+40], eax
  00042	8b 42 2c	 mov	 eax, DWORD PTR [edx+44]
  00045	89 41 2c	 mov	 DWORD PTR [ecx+44], eax
  00048	8b 42 30	 mov	 eax, DWORD PTR [edx+48]
  0004b	89 41 30	 mov	 DWORD PTR [ecx+48], eax
  0004e	8b 42 34	 mov	 eax, DWORD PTR [edx+52]
  00051	89 41 34	 mov	 DWORD PTR [ecx+52], eax
  00054	8b c1		 mov	 eax, ecx
  00056	5d		 pop	 ebp
  00057	c2 04 00	 ret	 4
??4i3ClassMeta@@QAEAAV0@ABV0@@Z ENDP			; i3ClassMeta::operator=
_TEXT	ENDS
; Function compile flags: /Ogtp
;	COMDAT ??0i3ClassMeta@@QAE@ABV0@@Z
_TEXT	SEGMENT
___that$ = 8						; size = 4
??0i3ClassMeta@@QAE@ABV0@@Z PROC			; i3ClassMeta::i3ClassMeta, COMDAT
; _this$ = ecx
  00000	55		 push	 ebp
  00001	8b ec		 mov	 ebp, esp
  00003	8b 55 08	 mov	 edx, DWORD PTR ___that$[ebp]
  00006	c7 01 00 00 00
	00		 mov	 DWORD PTR [ecx], OFFSET ??_7i3ClassMeta@@6B@
  0000c	8b 42 04	 mov	 eax, DWORD PTR [edx+4]
  0000f	89 41 04	 mov	 DWORD PTR [ecx+4], eax
  00012	8b 42 08	 mov	 eax, DWORD PTR [edx+8]
  00015	89 41 08	 mov	 DWORD PTR [ecx+8], eax
  00018	8b 42 0c	 mov	 eax, DWORD PTR [edx+12]
  0001b	89 41 0c	 mov	 DWORD PTR [ecx+12], eax
  0001e	8b 42 10	 mov	 eax, DWORD PTR [edx+16]
  00021	89 41 10	 mov	 DWORD PTR [ecx+16], eax
  00024	8b 42 14	 mov	 eax, DWORD PTR [edx+20]
  00027	89 41 14	 mov	 DWORD PTR [ecx+20], eax
  0002a	8b 42 18	 mov	 eax, DWORD PTR [edx+24]
  0002d	89 41 18	 mov	 DWORD PTR [ecx+24], eax
  00030	8b 42 1c	 mov	 eax, DWORD PTR [edx+28]
  00033	89 41 1c	 mov	 DWORD PTR [ecx+28], eax
  00036	8b 42 20	 mov	 eax, DWORD PTR [edx+32]
  00039	89 41 20	 mov	 DWORD PTR [ecx+32], eax
  0003c	8b 42 24	 mov	 eax, DWORD PTR [edx+36]
  0003f	89 41 24	 mov	 DWORD PTR [ecx+36], eax
  00042	8b 42 28	 mov	 eax, DWORD PTR [edx+40]
  00045	89 41 28	 mov	 DWORD PTR [ecx+40], eax
  00048	8b 42 2c	 mov	 eax, DWORD PTR [edx+44]
  0004b	89 41 2c	 mov	 DWORD PTR [ecx+44], eax
  0004e	8b 42 30	 mov	 eax, DWORD PTR [edx+48]
  00051	89 41 30	 mov	 DWORD PTR [ecx+48], eax
  00054	8b 42 34	 mov	 eax, DWORD PTR [edx+52]
  00057	89 41 34	 mov	 DWORD PTR [ecx+52], eax
  0005a	8b c1		 mov	 eax, ecx
  0005c	5d		 pop	 ebp
  0005d	c2 04 00	 ret	 4
??0i3ClassMeta@@QAE@ABV0@@Z ENDP			; i3ClassMeta::i3ClassMeta
_TEXT	ENDS
; Function compile flags: /Ogtp
; File E:\Proyectos\JuegosOnlineproyectos\PB\pbblow\Piercing Blow Remake\i3Server\include\i3Base\i3ClassMeta.h
;	COMDAT ?getHashCode@i3ClassMeta@@QAEIXZ
_TEXT	SEGMENT
?getHashCode@i3ClassMeta@@QAEIXZ PROC			; i3ClassMeta::getHashCode, COMDAT
; _this$ = ecx

; 112  : 	UINT32			getHashCode(void)						{ return m_HashCode; }

  00000	8b 41 18	 mov	 eax, DWORD PTR [ecx+24]
  00003	c3		 ret	 0
?getHashCode@i3ClassMeta@@QAEIXZ ENDP			; i3ClassMeta::getHashCode
_TEXT	ENDS
; Function compile flags: /Ogtp
; File E:\Proyectos\JuegosOnlineproyectos\PB\pbblow\Piercing Blow Remake\i3Server\include\i3Base\i3ClassMeta.h
;	COMDAT ?GetBaseClassMeta@i3ClassMeta@@QAEPAV1@XZ
_TEXT	SEGMENT
?GetBaseClassMeta@i3ClassMeta@@QAEPAV1@XZ PROC		; i3ClassMeta::GetBaseClassMeta, COMDAT
; _this$ = ecx

; 107  : 	i3ClassMeta *	GetBaseClassMeta(void)					{ return m_pBaseClass; }

  00000	8b 41 1c	 mov	 eax, DWORD PTR [ecx+28]
  00003	c3		 ret	 0
?GetBaseClassMeta@i3ClassMeta@@QAEPAV1@XZ ENDP		; i3ClassMeta::GetBaseClassMeta
_TEXT	ENDS
; Function compile flags: /Ogtp
; File E:\Proyectos\JuegosOnlineproyectos\PB\pbblow\Piercing Blow Remake\i3Server\include\i3Base\i3ClassMeta.h
;	COMDAT ?IsConcreteClass@i3ClassMeta@@QAEHXZ
_TEXT	SEGMENT
?IsConcreteClass@i3ClassMeta@@QAEHXZ PROC		; i3ClassMeta::IsConcreteClass, COMDAT
; _this$ = ecx

; 102  : 	BOOL			IsStyle( UINT32 style)					{ return (m_Style & style) == style; }

  00000	8b 41 14	 mov	 eax, DWORD PTR [ecx+20]
  00003	d1 e8		 shr	 eax, 1
  00005	83 e0 01	 and	 eax, 1

; 105  : 	BOOL			IsConcreteClass(void)					{ return IsStyle( I3_CLASSMETA_STYLE_CONCRETE); }

  00008	c3		 ret	 0
?IsConcreteClass@i3ClassMeta@@QAEHXZ ENDP		; i3ClassMeta::IsConcreteClass
_TEXT	ENDS
; Function compile flags: /Ogtp
; File E:\Proyectos\JuegosOnlineproyectos\PB\pbblow\Piercing Blow Remake\i3Server\include\i3Base\i3ClassMeta.h
;	COMDAT ?IsAbstractClass@i3ClassMeta@@QAEHXZ
_TEXT	SEGMENT
?IsAbstractClass@i3ClassMeta@@QAEHXZ PROC		; i3ClassMeta::IsAbstractClass, COMDAT
; _this$ = ecx

; 102  : 	BOOL			IsStyle( UINT32 style)					{ return (m_Style & style) == style; }

  00000	8b 41 14	 mov	 eax, DWORD PTR [ecx+20]
  00003	83 e0 01	 and	 eax, 1

; 104  : 	BOOL			IsAbstractClass(void)					{ return IsStyle( I3_CLASSMETA_STYLE_ABSTRACT); }

  00006	c3		 ret	 0
?IsAbstractClass@i3ClassMeta@@QAEHXZ ENDP		; i3ClassMeta::IsAbstractClass
_TEXT	ENDS
; Function compile flags: /Ogtp
; File E:\Proyectos\JuegosOnlineproyectos\PB\pbblow\Piercing Blow Remake\i3Server\include\i3Base\i3ClassMeta.h
;	COMDAT ?IsStyle@i3ClassMeta@@QAEHI@Z
_TEXT	SEGMENT
_style$ = 8						; size = 4
?IsStyle@i3ClassMeta@@QAEHI@Z PROC			; i3ClassMeta::IsStyle, COMDAT
; _this$ = ecx

; 102  : 	BOOL			IsStyle( UINT32 style)					{ return (m_Style & style) == style; }

  00000	55		 push	 ebp
  00001	8b ec		 mov	 ebp, esp
  00003	8b 51 14	 mov	 edx, DWORD PTR [ecx+20]
  00006	33 c0		 xor	 eax, eax
  00008	23 55 08	 and	 edx, DWORD PTR _style$[ebp]
  0000b	3b 55 08	 cmp	 edx, DWORD PTR _style$[ebp]
  0000e	0f 94 c0	 sete	 al
  00011	5d		 pop	 ebp
  00012	c2 04 00	 ret	 4
?IsStyle@i3ClassMeta@@QAEHI@Z ENDP			; i3ClassMeta::IsStyle
_TEXT	ENDS
; Function compile flags: /Ogtp
; File E:\Proyectos\JuegosOnlineproyectos\PB\pbblow\Piercing Blow Remake\i3Server\include\i3Base\i3ClassMeta.h
;	COMDAT ?RemoveStyle@i3ClassMeta@@QAEXI@Z
_TEXT	SEGMENT
_style$ = 8						; size = 4
?RemoveStyle@i3ClassMeta@@QAEXI@Z PROC			; i3ClassMeta::RemoveStyle, COMDAT
; _this$ = ecx

; 101  : 	void			RemoveStyle( UINT32 style)				{ m_Style &= ~style; }

  00000	55		 push	 ebp
  00001	8b ec		 mov	 ebp, esp
  00003	8b 45 08	 mov	 eax, DWORD PTR _style$[ebp]
  00006	f7 d0		 not	 eax
  00008	21 41 14	 and	 DWORD PTR [ecx+20], eax
  0000b	5d		 pop	 ebp
  0000c	c2 04 00	 ret	 4
?RemoveStyle@i3ClassMeta@@QAEXI@Z ENDP			; i3ClassMeta::RemoveStyle
_TEXT	ENDS
; Function compile flags: /Ogtp
; File E:\Proyectos\JuegosOnlineproyectos\PB\pbblow\Piercing Blow Remake\i3Server\include\i3Base\i3ClassMeta.h
;	COMDAT ?AddStyle@i3ClassMeta@@QAEXI@Z
_TEXT	SEGMENT
_style$ = 8						; size = 4
?AddStyle@i3ClassMeta@@QAEXI@Z PROC			; i3ClassMeta::AddStyle, COMDAT
; _this$ = ecx

; 100  : 	void			AddStyle( UINT32 style)					{ m_Style |= style; }

  00000	55		 push	 ebp
  00001	8b ec		 mov	 ebp, esp
  00003	8b 45 08	 mov	 eax, DWORD PTR _style$[ebp]
  00006	09 41 14	 or	 DWORD PTR [ecx+20], eax
  00009	5d		 pop	 ebp
  0000a	c2 04 00	 ret	 4
?AddStyle@i3ClassMeta@@QAEXI@Z ENDP			; i3ClassMeta::AddStyle
_TEXT	ENDS
; Function compile flags: /Ogtp
; File E:\Proyectos\JuegosOnlineproyectos\PB\pbblow\Piercing Blow Remake\i3Server\include\i3Base\i3ClassMeta.h
;	COMDAT ?GetStyle@i3ClassMeta@@QAEIXZ
_TEXT	SEGMENT
?GetStyle@i3ClassMeta@@QAEIXZ PROC			; i3ClassMeta::GetStyle, COMDAT
; _this$ = ecx

; 99   : 	UINT32			GetStyle(void)							{ return m_Style; }

  00000	8b 41 14	 mov	 eax, DWORD PTR [ecx+20]
  00003	c3		 ret	 0
?GetStyle@i3ClassMeta@@QAEIXZ ENDP			; i3ClassMeta::GetStyle
_TEXT	ENDS
; Function compile flags: /Ogtp
; File E:\Proyectos\JuegosOnlineproyectos\PB\pbblow\Piercing Blow Remake\i3Server\include\i3Base\i3ClassMeta.h
;	COMDAT ?SetStyle@i3ClassMeta@@QAEXI@Z
_TEXT	SEGMENT
_style$ = 8						; size = 4
?SetStyle@i3ClassMeta@@QAEXI@Z PROC			; i3ClassMeta::SetStyle, COMDAT
; _this$ = ecx

; 98   : 	void			SetStyle( UINT32 style)					{ m_Style = style; }

  00000	55		 push	 ebp
  00001	8b ec		 mov	 ebp, esp
  00003	8b 45 08	 mov	 eax, DWORD PTR _style$[ebp]
  00006	89 41 14	 mov	 DWORD PTR [ecx+20], eax
  00009	5d		 pop	 ebp
  0000a	c2 04 00	 ret	 4
?SetStyle@i3ClassMeta@@QAEXI@Z ENDP			; i3ClassMeta::SetStyle
_TEXT	ENDS
; Function compile flags: /Ogtp
; File E:\Proyectos\JuegosOnlineproyectos\PB\pbblow\Piercing Blow Remake\i3Server\include\i3Base\i3ClassMeta.h
;	COMDAT ?IsExactTypeOf@i3ClassMeta@@QAE_NPAV1@@Z
_TEXT	SEGMENT
_pMeta$ = 8						; size = 4
?IsExactTypeOf@i3ClassMeta@@QAE_NPAV1@@Z PROC		; i3ClassMeta::IsExactTypeOf, COMDAT
; _this$ = ecx

; 89   : 	{

  00000	55		 push	 ebp
  00001	8b ec		 mov	 ebp, esp

; 90   : 		return pMeta == this;

  00003	39 4d 08	 cmp	 DWORD PTR _pMeta$[ebp], ecx
  00006	0f 94 c0	 sete	 al

; 91   : 	}

  00009	5d		 pop	 ebp
  0000a	c2 04 00	 ret	 4
?IsExactTypeOf@i3ClassMeta@@QAE_NPAV1@@Z ENDP		; i3ClassMeta::IsExactTypeOf
_TEXT	ENDS
; Function compile flags: /Ogtp
; File E:\Proyectos\JuegosOnlineproyectos\PB\pbblow\Piercing Blow Remake\i3Server\include\i3Base\i3ClassMeta.h
;	COMDAT ?GetClassNameA@i3ClassMeta@@QAEPADXZ
_TEXT	SEGMENT
?GetClassNameA@i3ClassMeta@@QAEPADXZ PROC		; i3ClassMeta::GetClassNameA, COMDAT
; _this$ = ecx

; 83   : 		return m_pszClassName;

  00000	8b 41 0c	 mov	 eax, DWORD PTR [ecx+12]

; 84   : 	}

  00003	c3		 ret	 0
?GetClassNameA@i3ClassMeta@@QAEPADXZ ENDP		; i3ClassMeta::GetClassNameA
_TEXT	ENDS
; Function compile flags: /Ogtp
; File E:\Proyectos\JuegosOnlineproyectos\PB\pbblow\Piercing Blow Remake\i3Server\include\i3Base\i3ClassMeta.h
;	COMDAT ?GetClassSize@i3ClassMeta@@QAEIXZ
_TEXT	SEGMENT
?GetClassSize@i3ClassMeta@@QAEIXZ PROC			; i3ClassMeta::GetClassSize, COMDAT
; _this$ = ecx

; 78   : 		return m_ClassSize;

  00000	8b 41 08	 mov	 eax, DWORD PTR [ecx+8]

; 79   : 	}

  00003	c3		 ret	 0
?GetClassSize@i3ClassMeta@@QAEIXZ ENDP			; i3ClassMeta::GetClassSize
_TEXT	ENDS
; Function compile flags: /Ogtp
; File E:\Proyectos\JuegosOnlineproyectos\PB\pbblow\Piercing Blow Remake\i3Server\include\i3Base\i3ClassMeta.h
;	COMDAT ?SetMemoryPool@i3ClassMeta@@QAEXPAVi3MemoryPool@@@Z
_TEXT	SEGMENT
_pPool$ = 8						; size = 4
?SetMemoryPool@i3ClassMeta@@QAEXPAVi3MemoryPool@@@Z PROC ; i3ClassMeta::SetMemoryPool, COMDAT
; _this$ = ecx

; 66   : 	void			SetMemoryPool( i3MemoryPool * pPool)		{ m_pPool = pPool; }

  00000	55		 push	 ebp
  00001	8b ec		 mov	 ebp, esp
  00003	8b 45 08	 mov	 eax, DWORD PTR _pPool$[ebp]
  00006	89 41 34	 mov	 DWORD PTR [ecx+52], eax
  00009	5d		 pop	 ebp
  0000a	c2 04 00	 ret	 4
?SetMemoryPool@i3ClassMeta@@QAEXPAVi3MemoryPool@@@Z ENDP ; i3ClassMeta::SetMemoryPool
_TEXT	ENDS
; Function compile flags: /Ogtp
; File E:\Proyectos\JuegosOnlineproyectos\PB\pbblow\Piercing Blow Remake\i3Server\include\i3Base\i3ClassMeta.h
;	COMDAT ?GetMemoryPool@i3ClassMeta@@QAEPAVi3MemoryPool@@XZ
_TEXT	SEGMENT
?GetMemoryPool@i3ClassMeta@@QAEPAVi3MemoryPool@@XZ PROC	; i3ClassMeta::GetMemoryPool, COMDAT
; _this$ = ecx

; 65   : 	i3MemoryPool *	GetMemoryPool(void)							{ return m_pPool; }

  00000	8b 41 34	 mov	 eax, DWORD PTR [ecx+52]
  00003	c3		 ret	 0
?GetMemoryPool@i3ClassMeta@@QAEPAVi3MemoryPool@@XZ ENDP	; i3ClassMeta::GetMemoryPool
_TEXT	ENDS
; Function compile flags: /Ogtp
; File E:\Proyectos\JuegosOnlineproyectos\PB\pbblow\Piercing Blow Remake\i3Server\src\i3Base\i3CompressHuffman.cpp
;	COMDAT ?__global_array_delete@@YAXPAXI@Z
_TEXT	SEGMENT
_p$ = 8							; size = 4
_sz$ = 12						; size = 4
?__global_array_delete@@YAXPAXI@Z PROC			; __global_array_delete, COMDAT

  00000	e9 00 00 00 00	 jmp	 ??_V@YAXPAXI@Z		; operator delete[]
?__global_array_delete@@YAXPAXI@Z ENDP			; __global_array_delete
_TEXT	ENDS
; Function compile flags: /Ogtp
; File E:\Proyectos\JuegosOnlineproyectos\PB\pbblow\Piercing Blow Remake\i3Server\src\i3Base\i3CompressHuffman.cpp
;	COMDAT ?__global_array_delete@@YAXPAX@Z
_TEXT	SEGMENT
_p$ = 8							; size = 4
?__global_array_delete@@YAXPAX@Z PROC			; __global_array_delete, COMDAT

  00000	e9 00 00 00 00	 jmp	 ??_V@YAXPAX@Z		; operator delete[]
?__global_array_delete@@YAXPAX@Z ENDP			; __global_array_delete
_TEXT	ENDS
; Function compile flags: /Ogtp
; File E:\Proyectos\JuegosOnlineproyectos\PB\pbblow\Piercing Blow Remake\i3Server\src\i3Base\i3CompressHuffman.cpp
;	COMDAT ?__global_delete@@YAXPAXI@Z
_TEXT	SEGMENT
_p$ = 8							; size = 4
_sz$ = 12						; size = 4
?__global_delete@@YAXPAXI@Z PROC			; __global_delete, COMDAT

  00000	e9 00 00 00 00	 jmp	 ??3@YAXPAXI@Z		; operator delete
?__global_delete@@YAXPAXI@Z ENDP			; __global_delete
_TEXT	ENDS
; Function compile flags: /Ogtp
; File E:\Proyectos\JuegosOnlineproyectos\PB\pbblow\Piercing Blow Remake\i3Server\src\i3Base\i3CompressHuffman.cpp
;	COMDAT ?__empty_global_delete@@YAXPAXI@Z
_TEXT	SEGMENT
___formal$ = 8						; size = 4
___formal$ = 12						; size = 4
?__empty_global_delete@@YAXPAXI@Z PROC			; __empty_global_delete, COMDAT

  00000	c2 00 00	 ret	 0
?__empty_global_delete@@YAXPAXI@Z ENDP			; __empty_global_delete
_TEXT	ENDS
; Function compile flags: /Ogtp
; File E:\Proyectos\JuegosOnlineproyectos\PB\pbblow\Piercing Blow Remake\i3Server\src\i3Base\i3CompressHuffman.cpp
;	COMDAT ?__global_delete@@YAXPAX@Z
_TEXT	SEGMENT
_p$ = 8							; size = 4
?__global_delete@@YAXPAX@Z PROC				; __global_delete, COMDAT

  00000	e9 00 00 00 00	 jmp	 ??3@YAXPAX@Z		; operator delete
?__global_delete@@YAXPAX@Z ENDP				; __global_delete
_TEXT	ENDS
; Function compile flags: /Ogtp
; File E:\Proyectos\JuegosOnlineproyectos\PB\pbblow\Piercing Blow Remake\i3Server\src\i3Base\i3CompressHuffman.cpp
;	COMDAT ?__empty_global_delete@@YAXPAX@Z
_TEXT	SEGMENT
___formal$ = 8						; size = 4
?__empty_global_delete@@YAXPAX@Z PROC			; __empty_global_delete, COMDAT

  00000	c2 00 00	 ret	 0
?__empty_global_delete@@YAXPAX@Z ENDP			; __empty_global_delete
_TEXT	ENDS
END
