; Listing generated by Microsoft (R) Optimizing Compiler Version 19.50.35727.0 

	TITLE	E:\Proyectos\JuegosOnlineproyectos\PB\pbblow\Piercing Blow Remake\i3Server\Project\I3_DX\i3Server\x86\Release\i3CPUID.obj
	.686P
	.XMM
	include listing.inc
	.model	flat

INCLUDELIB LIBCMT
INCLUDELIB OLDNAMES

PUBLIC	__Avx2WmemEnabledWeakValue
;	COMDAT __Avx2WmemEnabledWeakValue
_BSS	SEGMENT
__Avx2WmemEnabledWeakValue DD 01H DUP (?)
_BSS	ENDS
PUBLIC	?__empty_global_delete@@YAXPAX@Z		; __empty_global_delete
PUBLIC	?__global_delete@@YAXPAX@Z			; __global_delete
PUBLIC	?__empty_global_delete@@YAXPAXI@Z		; __empty_global_delete
PUBLIC	?__global_delete@@YAXPAXI@Z			; __global_delete
PUBLIC	?__global_array_delete@@YAXPAX@Z		; __global_array_delete
PUBLIC	?__global_array_delete@@YAXPAXI@Z		; __global_array_delete
PUBLIC	?i3CPUid@@YAHPAU_tagi3ProcessorInfo@@@Z		; i3CPUid
PUBLIC	?GetMemoryPool@i3ClassMeta@@QAEPAVi3MemoryPool@@XZ ; i3ClassMeta::GetMemoryPool
PUBLIC	?SetMemoryPool@i3ClassMeta@@QAEXPAVi3MemoryPool@@@Z ; i3ClassMeta::SetMemoryPool
PUBLIC	?GetClassSize@i3ClassMeta@@QAEIXZ		; i3ClassMeta::GetClassSize
PUBLIC	?GetClassNameA@i3ClassMeta@@QAEPADXZ		; i3ClassMeta::GetClassNameA
PUBLIC	?IsExactTypeOf@i3ClassMeta@@QAE_NPAV1@@Z	; i3ClassMeta::IsExactTypeOf
PUBLIC	?SetStyle@i3ClassMeta@@QAEXI@Z			; i3ClassMeta::SetStyle
PUBLIC	?GetStyle@i3ClassMeta@@QAEIXZ			; i3ClassMeta::GetStyle
PUBLIC	?AddStyle@i3ClassMeta@@QAEXI@Z			; i3ClassMeta::AddStyle
PUBLIC	?RemoveStyle@i3ClassMeta@@QAEXI@Z		; i3ClassMeta::RemoveStyle
PUBLIC	?IsStyle@i3ClassMeta@@QAEHI@Z			; i3ClassMeta::IsStyle
PUBLIC	?IsAbstractClass@i3ClassMeta@@QAEHXZ		; i3ClassMeta::IsAbstractClass
PUBLIC	?IsConcreteClass@i3ClassMeta@@QAEHXZ		; i3ClassMeta::IsConcreteClass
PUBLIC	?GetBaseClassMeta@i3ClassMeta@@QAEPAV1@XZ	; i3ClassMeta::GetBaseClassMeta
PUBLIC	?getHashCode@i3ClassMeta@@QAEIXZ		; i3ClassMeta::getHashCode
PUBLIC	??0i3ClassMeta@@QAE@ABV0@@Z			; i3ClassMeta::i3ClassMeta
PUBLIC	??4i3ClassMeta@@QAEAAV0@ABV0@@Z			; i3ClassMeta::operator=
PUBLIC	??_Gi3ClassMeta@@UAEPAXI@Z			; i3ClassMeta::`scalar deleting destructor'
PUBLIC	??_Ei3ClassMeta@@UAEPAXI@Z			; i3ClassMeta::`vector deleting destructor'
PUBLIC	?GetClassMeta@i3ElementBase@@SAPAVi3ClassMeta@@XZ ; i3ElementBase::GetClassMeta
PUBLIC	?GetRefCount@i3ElementBase@@QAEHXZ		; i3ElementBase::GetRefCount
PUBLIC	?__SetMemoryPool@i3ElementBase@@QAEXPAVi3MemoryPool@@@Z ; i3ElementBase::__SetMemoryPool
PUBLIC	?__GetMemoryPool@i3ElementBase@@QAEPAVi3MemoryPool@@XZ ; i3ElementBase::__GetMemoryPool
PUBLIC	?IsExactTypeOf@i3ElementBase@@QAE_NPAVi3ClassMeta@@@Z ; i3ElementBase::IsExactTypeOf
PUBLIC	?IsTypeOf@i3ElementBase@@QAE_NPAVi3ClassMeta@@@Z ; i3ElementBase::IsTypeOf
PUBLIC	?AddRef@i3ElementBase@@QAEHXZ			; i3ElementBase::AddRef
PUBLIC	?_internal_SetRefCount@i3ElementBase@@QAEXH@Z	; i3ElementBase::_internal_SetRefCount
PUBLIC	??0i3ElementBase@@QAE@ABV0@@Z			; i3ElementBase::i3ElementBase
PUBLIC	??4i3ElementBase@@QAEAAV0@ABV0@@Z		; i3ElementBase::operator=
PUBLIC	??_Gi3ElementBase@@UAEPAXI@Z			; i3ElementBase::`scalar deleting destructor'
PUBLIC	??_Ei3ElementBase@@UAEPAXI@Z			; i3ElementBase::`vector deleting destructor'
PUBLIC	??0i3MemoryPool@@QAE@ABV0@@Z			; i3MemoryPool::i3MemoryPool
PUBLIC	??4i3MemoryPool@@QAEAAV0@ABV0@@Z		; i3MemoryPool::operator=
PUBLIC	??_Gi3MemoryPool@@UAEPAXI@Z			; i3MemoryPool::`scalar deleting destructor'
PUBLIC	??_Ei3MemoryPool@@UAEPAXI@Z			; i3MemoryPool::`vector deleting destructor'
PUBLIC	?GetClassMeta@i3Timer@@SAPAVi3ClassMeta@@XZ	; i3Timer::GetClassMeta
PUBLIC	??0i3Timer@@QAE@ABV0@@Z				; i3Timer::i3Timer
PUBLIC	??4i3Timer@@QAEAAV0@ABV0@@Z			; i3Timer::operator=
PUBLIC	??_Gi3Timer@@UAEPAXI@Z				; i3Timer::`scalar deleting destructor'
PUBLIC	??_Ei3Timer@@UAEPAXI@Z				; i3Timer::`vector deleting destructor'
PUBLIC	?IsCPUID@@YAHXZ					; IsCPUID
PUBLIC	?_os_support@@YAHH@Z				; _os_support
PUBLIC	?map_mname@@YAXHHPBDPAD@Z			; map_mname
PUBLIC	?calculateMHz@@YAIXZ				; calculateMHz
PUBLIC	??_7i3ClassMeta@@6B@				; i3ClassMeta::`vftable'
PUBLIC	??_7i3ElementBase@@6B@				; i3ElementBase::`vftable'
PUBLIC	??_7i3MemoryPool@@6B@				; i3MemoryPool::`vftable'
PUBLIC	??_7i3Timer@@6B@				; i3Timer::`vftable'
PUBLIC	??_C@_0N@FFJGBINN@AuthenticAMD@			; `string'
PUBLIC	??_C@_09FJDBMKFC@AMD?5Am486@			; `string'
PUBLIC	??_C@_06OAJGLGNO@AMD?5K5@			; `string'
PUBLIC	??_C@_06MLLLOFBN@AMD?5K6@			; `string'
PUBLIC	??_C@_08PCOJDAJC@AMD?5K6?92@			; `string'
PUBLIC	??_C@_08OLPCABND@AMD?5K6?93@			; `string'
PUBLIC	??_C@_0L@ELOMFMCG@AMD?5ATHLON@			; `string'
PUBLIC	??_C@_0BC@HOBCIAJ@AMD?5ATHLON?$CItm?$CJ?564@	; `string'
PUBLIC	??_C@_0N@BDDFKIGD@GenuineIntel@			; `string'
PUBLIC	??_C@_0M@OGKAOLJN@INTEL?5486DX@			; `string'
PUBLIC	??_C@_0M@PPMJFOGI@INTEL?5486SX@			; `string'
PUBLIC	??_C@_0N@GDCIBLGD@INTEL?5486DX2@		; `string'
PUBLIC	??_C@_0M@NBGHIJDN@INTEL?5486SL@			; `string'
PUBLIC	??_C@_0N@KOOGHEEF@INTEL?5486SX2@		; `string'
PUBLIC	??_C@_0O@FJNGKDLJ@INTEL?5486DX2E@		; `string'
PUBLIC	??_C@_0N@DFHCLMOF@INTEL?5486DX4@		; `string'
PUBLIC	??_C@_0O@GOJGBNLI@INTEL?5Pentium@		; `string'
PUBLIC	??_C@_0BC@BLCGJFAP@INTEL?5Pentium?9MMX@		; `string'
PUBLIC	??_C@_0BC@GGFBINE@INTEL?5Pentium?9Pro@		; `string'
PUBLIC	??_C@_0BB@CBOFMAEL@INTEL?5Pentium?9II@		; `string'
PUBLIC	??_C@_0O@DBGOJBLC@INTEL?5Celeron@		; `string'
PUBLIC	??_C@_0BC@MAJEIJJE@INTEL?5Pentium?9III@		; `string'
PUBLIC	??_C@_0BA@MEKFAALL@INTEL?5Pentium?94@		; `string'
PUBLIC	??_C@_0N@KBCLIFKD@CyrixInstead@			; `string'
PUBLIC	??_C@_05FCOFMPGG@Cyrix@				; `string'
PUBLIC	??_C@_0N@DHAFJCOO@CentaurHauls@			; `string'
PUBLIC	??_R4i3ElementBase@@6B@				; i3ElementBase::`RTTI Complete Object Locator'
PUBLIC	??_R0?AVi3ElementBase@@@8			; i3ElementBase `RTTI Type Descriptor'
PUBLIC	??_R3i3ElementBase@@8				; i3ElementBase::`RTTI Class Hierarchy Descriptor'
PUBLIC	??_R2i3ElementBase@@8				; i3ElementBase::`RTTI Base Class Array'
PUBLIC	??_R1A@?0A@EA@i3ElementBase@@8			; i3ElementBase::`RTTI Base Class Descriptor at (0,-1,0,64)'
PUBLIC	??_R4i3MemoryPool@@6B@				; i3MemoryPool::`RTTI Complete Object Locator'
PUBLIC	??_R0?AVi3MemoryPool@@@8			; i3MemoryPool `RTTI Type Descriptor'
PUBLIC	??_R3i3MemoryPool@@8				; i3MemoryPool::`RTTI Class Hierarchy Descriptor'
PUBLIC	??_R2i3MemoryPool@@8				; i3MemoryPool::`RTTI Base Class Array'
PUBLIC	??_R1A@?0A@EA@i3MemoryPool@@8			; i3MemoryPool::`RTTI Base Class Descriptor at (0,-1,0,64)'
PUBLIC	??_R4i3ClassMeta@@6B@				; i3ClassMeta::`RTTI Complete Object Locator'
PUBLIC	??_R0?AVi3ClassMeta@@@8				; i3ClassMeta `RTTI Type Descriptor'
PUBLIC	??_R3i3ClassMeta@@8				; i3ClassMeta::`RTTI Class Hierarchy Descriptor'
PUBLIC	??_R2i3ClassMeta@@8				; i3ClassMeta::`RTTI Base Class Array'
PUBLIC	??_R1A@?0A@EA@i3ClassMeta@@8			; i3ClassMeta::`RTTI Base Class Descriptor at (0,-1,0,64)'
PUBLIC	??_R4i3Timer@@6B@				; i3Timer::`RTTI Complete Object Locator'
PUBLIC	??_R0?AVi3Timer@@@8				; i3Timer `RTTI Type Descriptor'
PUBLIC	??_R3i3Timer@@8					; i3Timer::`RTTI Class Hierarchy Descriptor'
PUBLIC	??_R2i3Timer@@8					; i3Timer::`RTTI Base Class Array'
PUBLIC	??_R1A@?0A@EA@i3Timer@@8			; i3Timer::`RTTI Base Class Descriptor at (0,-1,0,64)'
EXTRN	??_M@YGXPAXIIP6EX0@Z@Z:PROC			; `eh vector destructor iterator'
EXTRN	__purecall:PROC
EXTRN	??3@YAXPAX@Z:PROC				; operator delete
EXTRN	??3@YAXPAXI@Z:PROC				; operator delete
EXTRN	??_V@YAXPAX@Z:PROC				; operator delete[]
EXTRN	??_V@YAXPAXI@Z:PROC				; operator delete[]
EXTRN	??1i3ClassMeta@@UAE@XZ:PROC			; i3ClassMeta::~i3ClassMeta
EXTRN	?CreateInstance@i3ClassMeta@@UAEPAVi3ElementBase@@W4I3_CLASSMETA_TYPE@@@Z:PROC ; i3ClassMeta::CreateInstance
EXTRN	?BindInstance@i3ClassMeta@@UAEPAVi3ElementBase@@PAXW4I3_CLASSMETA_TYPE@@@Z:PROC ; i3ClassMeta::BindInstance
EXTRN	?IsTypeOf@i3ClassMeta@@QAE_NPAV1@@Z:PROC	; i3ClassMeta::IsTypeOf
EXTRN	?GetMeta@i3ElementBase@@UAEPAVi3ClassMeta@@XZ:PROC ; i3ElementBase::GetMeta
EXTRN	??1i3ElementBase@@UAE@XZ:PROC			; i3ElementBase::~i3ElementBase
EXTRN	??3i3ElementBase@@SAXPAX@Z:PROC			; i3ElementBase::operator delete
EXTRN	?CopyTo@i3ElementBase@@UAEXPAV1@W4I3_COPY_METHOD@@@Z:PROC ; i3ElementBase::CopyTo
EXTRN	??1i3MemoryPool@@UAE@XZ:PROC			; i3MemoryPool::~i3MemoryPool
EXTRN	?GetMeta@i3Timer@@UAEPAVi3ClassMeta@@XZ:PROC	; i3Timer::GetMeta
EXTRN	??1i3Timer@@UAE@XZ:PROC				; i3Timer::~i3Timer
EXTRN	@__security_check_cookie@4:PROC
EXTRN	___CxxFrameHandler3:PROC
EXTRN	_strncmp:PROC
EXTRN	??_7type_info@@6B@:QWORD			; type_info::`vftable'
EXTRN	?s_pClassMetai3ElementBase@i3ElementBase@@2PAVi3ClassMeta@@A:DWORD ; i3ElementBase::s_pClassMetai3ElementBase
EXTRN	?s_pClassMetai3Timer@i3Timer@@2PAVi3ClassMeta@@A:DWORD ; i3Timer::s_pClassMetai3Timer
EXTRN	___security_cookie:DWORD
;	COMDAT ??_R1A@?0A@EA@i3Timer@@8
rdata$r	SEGMENT
??_R1A@?0A@EA@i3Timer@@8 DD FLAT:??_R0?AVi3Timer@@@8	; i3Timer::`RTTI Base Class Descriptor at (0,-1,0,64)'
	DD	01H
	DD	00H
	DD	0ffffffffH
	DD	00H
	DD	040H
	DD	FLAT:??_R3i3Timer@@8
rdata$r	ENDS
;	COMDAT ??_R2i3Timer@@8
rdata$r	SEGMENT
??_R2i3Timer@@8 DD FLAT:??_R1A@?0A@EA@i3Timer@@8	; i3Timer::`RTTI Base Class Array'
	DD	FLAT:??_R1A@?0A@EA@i3ElementBase@@8
rdata$r	ENDS
;	COMDAT ??_R3i3Timer@@8
rdata$r	SEGMENT
??_R3i3Timer@@8 DD 00H					; i3Timer::`RTTI Class Hierarchy Descriptor'
	DD	00H
	DD	02H
	DD	FLAT:??_R2i3Timer@@8
rdata$r	ENDS
;	COMDAT ??_R0?AVi3Timer@@@8
data$rs	SEGMENT
??_R0?AVi3Timer@@@8 DD FLAT:??_7type_info@@6B@		; i3Timer `RTTI Type Descriptor'
	DD	00H
	DB	'.?AVi3Timer@@', 00H
data$rs	ENDS
;	COMDAT ??_R4i3Timer@@6B@
rdata$r	SEGMENT
??_R4i3Timer@@6B@ DD 00H				; i3Timer::`RTTI Complete Object Locator'
	DD	00H
	DD	00H
	DD	FLAT:??_R0?AVi3Timer@@@8
	DD	FLAT:??_R3i3Timer@@8
rdata$r	ENDS
;	COMDAT ??_R1A@?0A@EA@i3ClassMeta@@8
rdata$r	SEGMENT
??_R1A@?0A@EA@i3ClassMeta@@8 DD FLAT:??_R0?AVi3ClassMeta@@@8 ; i3ClassMeta::`RTTI Base Class Descriptor at (0,-1,0,64)'
	DD	00H
	DD	00H
	DD	0ffffffffH
	DD	00H
	DD	040H
	DD	FLAT:??_R3i3ClassMeta@@8
rdata$r	ENDS
;	COMDAT ??_R2i3ClassMeta@@8
rdata$r	SEGMENT
??_R2i3ClassMeta@@8 DD FLAT:??_R1A@?0A@EA@i3ClassMeta@@8 ; i3ClassMeta::`RTTI Base Class Array'
rdata$r	ENDS
;	COMDAT ??_R3i3ClassMeta@@8
rdata$r	SEGMENT
??_R3i3ClassMeta@@8 DD 00H				; i3ClassMeta::`RTTI Class Hierarchy Descriptor'
	DD	00H
	DD	01H
	DD	FLAT:??_R2i3ClassMeta@@8
rdata$r	ENDS
;	COMDAT ??_R0?AVi3ClassMeta@@@8
data$rs	SEGMENT
??_R0?AVi3ClassMeta@@@8 DD FLAT:??_7type_info@@6B@	; i3ClassMeta `RTTI Type Descriptor'
	DD	00H
	DB	'.?AVi3ClassMeta@@', 00H
data$rs	ENDS
;	COMDAT ??_R4i3ClassMeta@@6B@
rdata$r	SEGMENT
??_R4i3ClassMeta@@6B@ DD 00H				; i3ClassMeta::`RTTI Complete Object Locator'
	DD	00H
	DD	00H
	DD	FLAT:??_R0?AVi3ClassMeta@@@8
	DD	FLAT:??_R3i3ClassMeta@@8
rdata$r	ENDS
;	COMDAT ??_R1A@?0A@EA@i3MemoryPool@@8
rdata$r	SEGMENT
??_R1A@?0A@EA@i3MemoryPool@@8 DD FLAT:??_R0?AVi3MemoryPool@@@8 ; i3MemoryPool::`RTTI Base Class Descriptor at (0,-1,0,64)'
	DD	00H
	DD	00H
	DD	0ffffffffH
	DD	00H
	DD	040H
	DD	FLAT:??_R3i3MemoryPool@@8
rdata$r	ENDS
;	COMDAT ??_R2i3MemoryPool@@8
rdata$r	SEGMENT
??_R2i3MemoryPool@@8 DD FLAT:??_R1A@?0A@EA@i3MemoryPool@@8 ; i3MemoryPool::`RTTI Base Class Array'
rdata$r	ENDS
;	COMDAT ??_R3i3MemoryPool@@8
rdata$r	SEGMENT
??_R3i3MemoryPool@@8 DD 00H				; i3MemoryPool::`RTTI Class Hierarchy Descriptor'
	DD	00H
	DD	01H
	DD	FLAT:??_R2i3MemoryPool@@8
rdata$r	ENDS
;	COMDAT ??_R0?AVi3MemoryPool@@@8
data$rs	SEGMENT
??_R0?AVi3MemoryPool@@@8 DD FLAT:??_7type_info@@6B@	; i3MemoryPool `RTTI Type Descriptor'
	DD	00H
	DB	'.?AVi3MemoryPool@@', 00H
data$rs	ENDS
;	COMDAT ??_R4i3MemoryPool@@6B@
rdata$r	SEGMENT
??_R4i3MemoryPool@@6B@ DD 00H				; i3MemoryPool::`RTTI Complete Object Locator'
	DD	00H
	DD	00H
	DD	FLAT:??_R0?AVi3MemoryPool@@@8
	DD	FLAT:??_R3i3MemoryPool@@8
rdata$r	ENDS
;	COMDAT ??_R1A@?0A@EA@i3ElementBase@@8
rdata$r	SEGMENT
??_R1A@?0A@EA@i3ElementBase@@8 DD FLAT:??_R0?AVi3ElementBase@@@8 ; i3ElementBase::`RTTI Base Class Descriptor at (0,-1,0,64)'
	DD	00H
	DD	00H
	DD	0ffffffffH
	DD	00H
	DD	040H
	DD	FLAT:??_R3i3ElementBase@@8
rdata$r	ENDS
;	COMDAT ??_R2i3ElementBase@@8
rdata$r	SEGMENT
??_R2i3ElementBase@@8 DD FLAT:??_R1A@?0A@EA@i3ElementBase@@8 ; i3ElementBase::`RTTI Base Class Array'
rdata$r	ENDS
;	COMDAT ??_R3i3ElementBase@@8
rdata$r	SEGMENT
??_R3i3ElementBase@@8 DD 00H				; i3ElementBase::`RTTI Class Hierarchy Descriptor'
	DD	00H
	DD	01H
	DD	FLAT:??_R2i3ElementBase@@8
rdata$r	ENDS
;	COMDAT ??_R0?AVi3ElementBase@@@8
data$rs	SEGMENT
??_R0?AVi3ElementBase@@@8 DD FLAT:??_7type_info@@6B@	; i3ElementBase `RTTI Type Descriptor'
	DD	00H
	DB	'.?AVi3ElementBase@@', 00H
data$rs	ENDS
;	COMDAT ??_R4i3ElementBase@@6B@
rdata$r	SEGMENT
??_R4i3ElementBase@@6B@ DD 00H				; i3ElementBase::`RTTI Complete Object Locator'
	DD	00H
	DD	00H
	DD	FLAT:??_R0?AVi3ElementBase@@@8
	DD	FLAT:??_R3i3ElementBase@@8
rdata$r	ENDS
;	COMDAT ??_C@_0N@DHAFJCOO@CentaurHauls@
CONST	SEGMENT
??_C@_0N@DHAFJCOO@CentaurHauls@ DB 'CentaurHauls', 00H	; `string'
CONST	ENDS
;	COMDAT ??_C@_05FCOFMPGG@Cyrix@
CONST	SEGMENT
??_C@_05FCOFMPGG@Cyrix@ DB 'Cyrix', 00H			; `string'
CONST	ENDS
;	COMDAT ??_C@_0N@KBCLIFKD@CyrixInstead@
CONST	SEGMENT
??_C@_0N@KBCLIFKD@CyrixInstead@ DB 'CyrixInstead', 00H	; `string'
CONST	ENDS
;	COMDAT ??_C@_0BA@MEKFAALL@INTEL?5Pentium?94@
CONST	SEGMENT
??_C@_0BA@MEKFAALL@INTEL?5Pentium?94@ DB 'INTEL Pentium-4', 00H ; `string'
CONST	ENDS
;	COMDAT ??_C@_0BC@MAJEIJJE@INTEL?5Pentium?9III@
CONST	SEGMENT
??_C@_0BC@MAJEIJJE@INTEL?5Pentium?9III@ DB 'INTEL Pentium-III', 00H ; `string'
CONST	ENDS
;	COMDAT ??_C@_0O@DBGOJBLC@INTEL?5Celeron@
CONST	SEGMENT
??_C@_0O@DBGOJBLC@INTEL?5Celeron@ DB 'INTEL Celeron', 00H ; `string'
CONST	ENDS
;	COMDAT ??_C@_0BB@CBOFMAEL@INTEL?5Pentium?9II@
CONST	SEGMENT
??_C@_0BB@CBOFMAEL@INTEL?5Pentium?9II@ DB 'INTEL Pentium-II', 00H ; `string'
CONST	ENDS
;	COMDAT ??_C@_0BC@GGFBINE@INTEL?5Pentium?9Pro@
CONST	SEGMENT
??_C@_0BC@GGFBINE@INTEL?5Pentium?9Pro@ DB 'INTEL Pentium-Pro', 00H ; `string'
CONST	ENDS
;	COMDAT ??_C@_0BC@BLCGJFAP@INTEL?5Pentium?9MMX@
CONST	SEGMENT
??_C@_0BC@BLCGJFAP@INTEL?5Pentium?9MMX@ DB 'INTEL Pentium-MMX', 00H ; `string'
CONST	ENDS
;	COMDAT ??_C@_0O@GOJGBNLI@INTEL?5Pentium@
CONST	SEGMENT
??_C@_0O@GOJGBNLI@INTEL?5Pentium@ DB 'INTEL Pentium', 00H ; `string'
CONST	ENDS
;	COMDAT ??_C@_0N@DFHCLMOF@INTEL?5486DX4@
CONST	SEGMENT
??_C@_0N@DFHCLMOF@INTEL?5486DX4@ DB 'INTEL 486DX4', 00H	; `string'
CONST	ENDS
;	COMDAT ??_C@_0O@FJNGKDLJ@INTEL?5486DX2E@
CONST	SEGMENT
??_C@_0O@FJNGKDLJ@INTEL?5486DX2E@ DB 'INTEL 486DX2E', 00H ; `string'
CONST	ENDS
;	COMDAT ??_C@_0N@KOOGHEEF@INTEL?5486SX2@
CONST	SEGMENT
??_C@_0N@KOOGHEEF@INTEL?5486SX2@ DB 'INTEL 486SX2', 00H	; `string'
CONST	ENDS
;	COMDAT ??_C@_0M@NBGHIJDN@INTEL?5486SL@
CONST	SEGMENT
??_C@_0M@NBGHIJDN@INTEL?5486SL@ DB 'INTEL 486SL', 00H	; `string'
CONST	ENDS
;	COMDAT ??_C@_0N@GDCIBLGD@INTEL?5486DX2@
CONST	SEGMENT
??_C@_0N@GDCIBLGD@INTEL?5486DX2@ DB 'INTEL 486DX2', 00H	; `string'
CONST	ENDS
;	COMDAT ??_C@_0M@PPMJFOGI@INTEL?5486SX@
CONST	SEGMENT
??_C@_0M@PPMJFOGI@INTEL?5486SX@ DB 'INTEL 486SX', 00H	; `string'
CONST	ENDS
;	COMDAT ??_C@_0M@OGKAOLJN@INTEL?5486DX@
CONST	SEGMENT
??_C@_0M@OGKAOLJN@INTEL?5486DX@ DB 'INTEL 486DX', 00H	; `string'
CONST	ENDS
;	COMDAT ??_C@_0N@BDDFKIGD@GenuineIntel@
CONST	SEGMENT
??_C@_0N@BDDFKIGD@GenuineIntel@ DB 'GenuineIntel', 00H	; `string'
CONST	ENDS
;	COMDAT ??_C@_0BC@HOBCIAJ@AMD?5ATHLON?$CItm?$CJ?564@
CONST	SEGMENT
??_C@_0BC@HOBCIAJ@AMD?5ATHLON?$CItm?$CJ?564@ DB 'AMD ATHLON(tm) 64', 00H ; `string'
CONST	ENDS
;	COMDAT ??_C@_0L@ELOMFMCG@AMD?5ATHLON@
CONST	SEGMENT
??_C@_0L@ELOMFMCG@AMD?5ATHLON@ DB 'AMD ATHLON', 00H	; `string'
CONST	ENDS
;	COMDAT ??_C@_08OLPCABND@AMD?5K6?93@
CONST	SEGMENT
??_C@_08OLPCABND@AMD?5K6?93@ DB 'AMD K6-3', 00H		; `string'
CONST	ENDS
;	COMDAT ??_C@_08PCOJDAJC@AMD?5K6?92@
CONST	SEGMENT
??_C@_08PCOJDAJC@AMD?5K6?92@ DB 'AMD K6-2', 00H		; `string'
CONST	ENDS
;	COMDAT ??_C@_06MLLLOFBN@AMD?5K6@
CONST	SEGMENT
??_C@_06MLLLOFBN@AMD?5K6@ DB 'AMD K6', 00H		; `string'
CONST	ENDS
;	COMDAT ??_C@_06OAJGLGNO@AMD?5K5@
CONST	SEGMENT
??_C@_06OAJGLGNO@AMD?5K5@ DB 'AMD K5', 00H		; `string'
CONST	ENDS
;	COMDAT ??_C@_09FJDBMKFC@AMD?5Am486@
CONST	SEGMENT
??_C@_09FJDBMKFC@AMD?5Am486@ DB 'AMD Am486', 00H	; `string'
CONST	ENDS
;	COMDAT ??_C@_0N@FFJGBINN@AuthenticAMD@
CONST	SEGMENT
??_C@_0N@FFJGBINN@AuthenticAMD@ DB 'AuthenticAMD', 00H	; `string'
CONST	ENDS
;	COMDAT ??_7i3Timer@@6B@
CONST	SEGMENT
??_7i3Timer@@6B@ DD FLAT:??_R4i3Timer@@6B@		; i3Timer::`vftable'
	DD	FLAT:?GetMeta@i3Timer@@UAEPAVi3ClassMeta@@XZ
	DD	FLAT:??_Ei3Timer@@UAEPAXI@Z
	DD	FLAT:?CopyTo@i3ElementBase@@UAEXPAV1@W4I3_COPY_METHOD@@@Z
CONST	ENDS
;	COMDAT ??_7i3MemoryPool@@6B@
CONST	SEGMENT
??_7i3MemoryPool@@6B@ DD FLAT:??_R4i3MemoryPool@@6B@	; i3MemoryPool::`vftable'
	DD	FLAT:??_Ei3MemoryPool@@UAEPAXI@Z
	DD	FLAT:__purecall
	DD	FLAT:__purecall
CONST	ENDS
;	COMDAT ??_7i3ElementBase@@6B@
CONST	SEGMENT
??_7i3ElementBase@@6B@ DD FLAT:??_R4i3ElementBase@@6B@	; i3ElementBase::`vftable'
	DD	FLAT:?GetMeta@i3ElementBase@@UAEPAVi3ClassMeta@@XZ
	DD	FLAT:??_Ei3ElementBase@@UAEPAXI@Z
	DD	FLAT:?CopyTo@i3ElementBase@@UAEXPAV1@W4I3_COPY_METHOD@@@Z
CONST	ENDS
;	COMDAT ??_7i3ClassMeta@@6B@
CONST	SEGMENT
??_7i3ClassMeta@@6B@ DD FLAT:??_R4i3ClassMeta@@6B@	; i3ClassMeta::`vftable'
	DD	FLAT:??_Ei3ClassMeta@@UAEPAXI@Z
	DD	FLAT:?CreateInstance@i3ClassMeta@@UAEPAVi3ElementBase@@W4I3_CLASSMETA_TYPE@@@Z
	DD	FLAT:?BindInstance@i3ClassMeta@@UAEPAVi3ElementBase@@PAXW4I3_CLASSMETA_TYPE@@@Z
CONST	ENDS
;	COMDAT xdata$x
xdata$x	SEGMENT
__ehfuncinfo$??_Ei3Timer@@UAEPAXI@Z DD 019930522H
	DD	00H
	DD	00H
	DD	2 DUP(00H)
	DD	2 DUP(00H)
	DD	00H
	DD	05H
xdata$x	ENDS
;	COMDAT xdata$x
xdata$x	SEGMENT
__ehfuncinfo$??_Ei3MemoryPool@@UAEPAXI@Z DD 019930522H
	DD	00H
	DD	00H
	DD	2 DUP(00H)
	DD	2 DUP(00H)
	DD	00H
	DD	05H
xdata$x	ENDS
;	COMDAT xdata$x
xdata$x	SEGMENT
__ehfuncinfo$??_Ei3ElementBase@@UAEPAXI@Z DD 019930522H
	DD	00H
	DD	00H
	DD	2 DUP(00H)
	DD	2 DUP(00H)
	DD	00H
	DD	05H
xdata$x	ENDS
;	COMDAT xdata$x
xdata$x	SEGMENT
__ehfuncinfo$??_Ei3ClassMeta@@UAEPAXI@Z DD 019930522H
	DD	00H
	DD	00H
	DD	2 DUP(00H)
	DD	2 DUP(00H)
	DD	00H
	DD	05H
xdata$x	ENDS
; Function compile flags: /Ogtp
; File E:\Proyectos\JuegosOnlineproyectos\PB\pbblow\Piercing Blow Remake\i3Server\include\i3Base\i3CPUID.cpp
;	COMDAT ?calculateMHz@@YAIXZ
_TEXT	SEGMENT
?calculateMHz@@YAIXZ PROC				; calculateMHz, COMDAT

; 225  : 	UINT32 max = 0;
; 226  :  //   UINT32 i;
; 227  :  //   UINT32 startCount = 0;
; 228  :  //   UINT32 endCount = 0;
; 229  :  //   UINT32 cycleCount = 0;
; 230  : 	//INT64 tmStart, tmEnd;
; 231  : 	//double gap;
; 232  : 	//UINT32 megaHz;
; 233  : 
; 234  :   //  for (i=0; i < 10; i++)
; 235  :   //  {
; 236  : 		//tmStart = i3Timer::GetPerformanceTime();
; 237  : 
; 238  :   //      __asm
; 239  :   //      {
; 240  :   //          RDTSC                 // Pentium op code to obtain instruction cycle count
; 241  :   //          mov startCount, eax   
; 242  :   //      }
; 243  :   //  
; 244  :   //      do
; 245  :   //      {
; 246  :   //          __asm
; 247  :   //          {
; 248  :   //              mov edx, 1000
; 249  :   //            lp:
; 250  :   //              dec edx            // misc instructions
; 251  :   //              jnz lp
; 252  :   //              RDTSC              // end instruction cycle count
; 253  :   //              mov endCount, eax  
; 254  :   //          }
; 255  : 
; 256  : 		//	tmEnd = i3Timer::GetPerformanceTime();
; 257  : 		//	gap = (tmEnd - tmStart) * i3Timer::GetProfileResolution();
; 258  : 
; 259  :   //      } while( gap < 0.01);
; 260  : 
; 261  :   //      cycleCount = endCount - startCount;
; 262  :   //      megaHz = (unsigned int)((double)cycleCount * 0.001f / gap + 0.5);
; 263  :   //      if (megaHz > max) max = megaHz;
; 264  :   //  }
; 265  : 
; 266  :     return max;

  00000	33 c0		 xor	 eax, eax

; 267  : }

  00002	c3		 ret	 0
?calculateMHz@@YAIXZ ENDP				; calculateMHz
_TEXT	ENDS
; Function compile flags: /Ogtp
; File E:\Proyectos\JuegosOnlineproyectos\PB\pbblow\Piercing Blow Remake\i3Server\include\i3Base\i3CPUID.cpp
;	COMDAT ?map_mname@@YAXHHPBDPAD@Z
_TEXT	SEGMENT
_family$ = 8						; size = 4
_model$ = 12						; size = 4
_v_name$ = 16						; size = 4
_m_name$ = 20						; size = 4
?map_mname@@YAXHHPBDPAD@Z PROC				; map_mname, COMDAT

; 90   : {

  00000	55		 push	 ebp
  00001	8b ec		 mov	 ebp, esp
  00003	56		 push	 esi

; 91   :     // Default to name not known
; 92   :     m_name[0] = '\0';

  00004	8b 75 14	 mov	 esi, DWORD PTR _m_name$[ebp]
  00007	57		 push	 edi

; 93   : 
; 94   :     if (!strncmp("AuthenticAMD", v_name, 12))

  00008	8b 7d 10	 mov	 edi, DWORD PTR _v_name$[ebp]
  0000b	6a 0c		 push	 12			; 0000000cH
  0000d	57		 push	 edi
  0000e	68 00 00 00 00	 push	 OFFSET ??_C@_0N@FFJGBINN@AuthenticAMD@
  00013	c6 06 00	 mov	 BYTE PTR [esi], 0
  00016	e8 00 00 00 00	 call	 _strncmp
  0001b	83 c4 0c	 add	 esp, 12			; 0000000cH
  0001e	85 c0		 test	 eax, eax
  00020	0f 85 1d 01 00
	00		 jne	 $LN16@map_mname

; 95   : 	{
; 96   :         switch (family)	// extract family code

  00026	8b 45 08	 mov	 eax, DWORD PTR _family$[ebp]
  00029	83 c0 fc	 add	 eax, -4			; fffffffcH
  0002c	83 f8 0b	 cmp	 eax, 11			; 0000000bH
  0002f	0f 87 de 03 00
	00		 ja	 $LN67@map_mname
  00035	0f b6 80 00 00
	00 00		 movzx	 eax, BYTE PTR $LN68@map_mname[eax]
  0003c	ff 24 85 00 00
	00 00		 jmp	 DWORD PTR $LN69@map_mname[eax*4]
$LN18@map_mname:

; 97   : 		{
; 98   :         case 4: // Am486/AM5x86
; 99   :             strcpy (m_name, "AMD Am486");

  00043	a1 00 00 00 00	 mov	 eax, DWORD PTR ??_C@_09FJDBMKFC@AMD?5Am486@
  00048	89 06		 mov	 DWORD PTR [esi], eax
  0004a	a1 04 00 00 00	 mov	 eax, DWORD PTR ??_C@_09FJDBMKFC@AMD?5Am486@+4
  0004f	89 46 04	 mov	 DWORD PTR [esi+4], eax
  00052	66 a1 08 00 00
	00		 mov	 ax, WORD PTR ??_C@_09FJDBMKFC@AMD?5Am486@+8
  00058	66 89 46 08	 mov	 WORD PTR [esi+8], ax

; 100  :             break;

  0005c	e9 ad 03 00 00	 jmp	 $LN64@map_mname
$LN19@map_mname:

; 101  : 
; 102  :         case 5: // K6
; 103  :             switch (model) { // extract model code

  00061	8b 45 0c	 mov	 eax, DWORD PTR _model$[ebp]
  00064	83 f8 0f	 cmp	 eax, 15			; 0000000fH
  00067	0f 87 a6 03 00
	00		 ja	 $LN67@map_mname
  0006d	0f b6 80 00 00
	00 00		 movzx	 eax, BYTE PTR $LN70@map_mname[eax]
  00074	ff 24 85 00 00
	00 00		 jmp	 DWORD PTR $LN71@map_mname[eax*4]
$LN20@map_mname:

; 104  :             case 0:
; 105  :             case 1:
; 106  :             case 2:
; 107  :             case 3:
; 108  :                 strcpy (m_name, "AMD K5");

  0007b	a1 00 00 00 00	 mov	 eax, DWORD PTR ??_C@_06OAJGLGNO@AMD?5K5@
  00080	89 06		 mov	 DWORD PTR [esi], eax
  00082	66 a1 04 00 00
	00		 mov	 ax, WORD PTR ??_C@_06OAJGLGNO@AMD?5K5@+4
  00088	66 89 46 04	 mov	 WORD PTR [esi+4], ax
  0008c	a0 06 00 00 00	 mov	 al, BYTE PTR ??_C@_06OAJGLGNO@AMD?5K5@+6
  00091	88 46 06	 mov	 BYTE PTR [esi+6], al

; 109  :                 break;

  00094	e9 75 03 00 00	 jmp	 $LN64@map_mname
$LN24@map_mname:

; 110  :             case 6:
; 111  :             case 7:
; 112  :                 strcpy (m_name, "AMD K6");

  00099	a1 00 00 00 00	 mov	 eax, DWORD PTR ??_C@_06MLLLOFBN@AMD?5K6@
  0009e	89 06		 mov	 DWORD PTR [esi], eax
  000a0	66 a1 04 00 00
	00		 mov	 ax, WORD PTR ??_C@_06MLLLOFBN@AMD?5K6@+4
  000a6	66 89 46 04	 mov	 WORD PTR [esi+4], ax
  000aa	a0 06 00 00 00	 mov	 al, BYTE PTR ??_C@_06MLLLOFBN@AMD?5K6@+6
  000af	88 46 06	 mov	 BYTE PTR [esi+6], al

; 113  :                 break;

  000b2	e9 57 03 00 00	 jmp	 $LN64@map_mname
$LN26@map_mname:

; 114  :             case 8:
; 115  :                 strcpy (m_name, "AMD K6-2");

  000b7	a1 00 00 00 00	 mov	 eax, DWORD PTR ??_C@_08PCOJDAJC@AMD?5K6?92@
  000bc	89 06		 mov	 DWORD PTR [esi], eax
  000be	a1 04 00 00 00	 mov	 eax, DWORD PTR ??_C@_08PCOJDAJC@AMD?5K6?92@+4
  000c3	89 46 04	 mov	 DWORD PTR [esi+4], eax
  000c6	a0 08 00 00 00	 mov	 al, BYTE PTR ??_C@_08PCOJDAJC@AMD?5K6?92@+8
  000cb	88 46 08	 mov	 BYTE PTR [esi+8], al

; 116  :                 break;

  000ce	e9 3b 03 00 00	 jmp	 $LN64@map_mname
$LN27@map_mname:

; 117  :             case 9:
; 118  :             case 10:
; 119  :             case 11:
; 120  :             case 12:
; 121  :             case 13:
; 122  :             case 14:
; 123  :             case 15:
; 124  :                 strcpy (m_name, "AMD K6-3");

  000d3	a1 00 00 00 00	 mov	 eax, DWORD PTR ??_C@_08OLPCABND@AMD?5K6?93@
  000d8	89 06		 mov	 DWORD PTR [esi], eax
  000da	a1 04 00 00 00	 mov	 eax, DWORD PTR ??_C@_08OLPCABND@AMD?5K6?93@+4
  000df	89 46 04	 mov	 DWORD PTR [esi+4], eax
  000e2	a0 08 00 00 00	 mov	 al, BYTE PTR ??_C@_08OLPCABND@AMD?5K6?93@+8
  000e7	88 46 08	 mov	 BYTE PTR [esi+8], al

; 125  :                 break;
; 126  :             }
; 127  :             break;

  000ea	e9 1f 03 00 00	 jmp	 $LN64@map_mname
$LN34@map_mname:

; 128  : 
; 129  :         case 6: // Athlon
; 130  :             // No model numbers are currently defined
; 131  :             strcpy (m_name, "AMD ATHLON");

  000ef	a1 00 00 00 00	 mov	 eax, DWORD PTR ??_C@_0L@ELOMFMCG@AMD?5ATHLON@
  000f4	89 06		 mov	 DWORD PTR [esi], eax
  000f6	a1 04 00 00 00	 mov	 eax, DWORD PTR ??_C@_0L@ELOMFMCG@AMD?5ATHLON@+4
  000fb	89 46 04	 mov	 DWORD PTR [esi+4], eax
  000fe	66 a1 08 00 00
	00		 mov	 ax, WORD PTR ??_C@_0L@ELOMFMCG@AMD?5ATHLON@+8
  00104	66 89 46 08	 mov	 WORD PTR [esi+8], ax
  00108	a0 0a 00 00 00	 mov	 al, BYTE PTR ??_C@_0L@ELOMFMCG@AMD?5ATHLON@+10
  0010d	88 46 0a	 mov	 BYTE PTR [esi+10], al

; 132  :             break;

  00110	e9 f9 02 00 00	 jmp	 $LN64@map_mname
$LN35@map_mname:

; 133  : 		case 15:	// Athlon 64
; 134  : 			strcpy(m_name, "AMD ATHLON(tm) 64");

  00115	a1 00 00 00 00	 mov	 eax, DWORD PTR ??_C@_0BC@HOBCIAJ@AMD?5ATHLON?$CItm?$CJ?564@
  0011a	89 06		 mov	 DWORD PTR [esi], eax
  0011c	a1 04 00 00 00	 mov	 eax, DWORD PTR ??_C@_0BC@HOBCIAJ@AMD?5ATHLON?$CItm?$CJ?564@+4
  00121	89 46 04	 mov	 DWORD PTR [esi+4], eax
  00124	a1 08 00 00 00	 mov	 eax, DWORD PTR ??_C@_0BC@HOBCIAJ@AMD?5ATHLON?$CItm?$CJ?564@+8
  00129	89 46 08	 mov	 DWORD PTR [esi+8], eax
  0012c	a1 0c 00 00 00	 mov	 eax, DWORD PTR ??_C@_0BC@HOBCIAJ@AMD?5ATHLON?$CItm?$CJ?564@+12
  00131	89 46 0c	 mov	 DWORD PTR [esi+12], eax
  00134	66 a1 10 00 00
	00		 mov	 ax, WORD PTR ??_C@_0BC@HOBCIAJ@AMD?5ATHLON?$CItm?$CJ?564@+16
  0013a	66 89 46 10	 mov	 WORD PTR [esi+16], ax

; 135  : 			break;
; 136  :         }
; 137  :     }

  0013e	e9 cb 02 00 00	 jmp	 $LN64@map_mname
$LN16@map_mname:

; 138  :     else if (!strncmp("GenuineIntel", v_name, 12))

  00143	6a 0c		 push	 12			; 0000000cH
  00145	57		 push	 edi
  00146	68 00 00 00 00	 push	 OFFSET ??_C@_0N@BDDFKIGD@GenuineIntel@
  0014b	e8 00 00 00 00	 call	 _strncmp
  00150	83 c4 0c	 add	 esp, 12			; 0000000cH
  00153	85 c0		 test	 eax, eax
  00155	0f 85 6b 02 00
	00		 jne	 $LN36@map_mname

; 139  : 	{
; 140  :         switch (family)

  0015b	8b 45 08	 mov	 eax, DWORD PTR _family$[ebp]
  0015e	83 c0 fc	 add	 eax, -4			; fffffffcH
  00161	83 f8 0b	 cmp	 eax, 11			; 0000000bH
  00164	0f 87 a9 02 00
	00		 ja	 $LN67@map_mname
  0016a	0f b6 80 00 00
	00 00		 movzx	 eax, BYTE PTR $LN72@map_mname[eax]
  00171	ff 24 85 00 00
	00 00		 jmp	 DWORD PTR $LN73@map_mname[eax*4]
$LN38@map_mname:

; 141  : 		{ // extract family code
; 142  :         case 4:
; 143  :             switch (model) { // extract model code

  00178	8b 45 0c	 mov	 eax, DWORD PTR _model$[ebp]
  0017b	83 f8 08	 cmp	 eax, 8
  0017e	0f 87 8f 02 00
	00		 ja	 $LN67@map_mname
  00184	ff 24 85 00 00
	00 00		 jmp	 DWORD PTR $LN74@map_mname[eax*4]
$LN39@map_mname:

; 144  :             case 0:
; 145  :             case 1:
; 146  :                 strcpy (m_name, "INTEL 486DX");

  0018b	a1 00 00 00 00	 mov	 eax, DWORD PTR ??_C@_0M@OGKAOLJN@INTEL?5486DX@
  00190	89 06		 mov	 DWORD PTR [esi], eax
  00192	a1 04 00 00 00	 mov	 eax, DWORD PTR ??_C@_0M@OGKAOLJN@INTEL?5486DX@+4
  00197	89 46 04	 mov	 DWORD PTR [esi+4], eax
  0019a	a1 08 00 00 00	 mov	 eax, DWORD PTR ??_C@_0M@OGKAOLJN@INTEL?5486DX@+8
  0019f	89 46 08	 mov	 DWORD PTR [esi+8], eax

; 147  :                 break;

  001a2	e9 67 02 00 00	 jmp	 $LN64@map_mname
$LN41@map_mname:

; 148  :             case 2:
; 149  :                 strcpy (m_name, "INTEL 486SX");

  001a7	a1 00 00 00 00	 mov	 eax, DWORD PTR ??_C@_0M@PPMJFOGI@INTEL?5486SX@
  001ac	89 06		 mov	 DWORD PTR [esi], eax
  001ae	a1 04 00 00 00	 mov	 eax, DWORD PTR ??_C@_0M@PPMJFOGI@INTEL?5486SX@+4
  001b3	89 46 04	 mov	 DWORD PTR [esi+4], eax
  001b6	a1 08 00 00 00	 mov	 eax, DWORD PTR ??_C@_0M@PPMJFOGI@INTEL?5486SX@+8
  001bb	89 46 08	 mov	 DWORD PTR [esi+8], eax

; 150  :                 break;

  001be	e9 4b 02 00 00	 jmp	 $LN64@map_mname
$LN42@map_mname:

; 151  :             case 3:
; 152  :                 strcpy (m_name, "INTEL 486DX2");

  001c3	a1 00 00 00 00	 mov	 eax, DWORD PTR ??_C@_0N@GDCIBLGD@INTEL?5486DX2@
  001c8	89 06		 mov	 DWORD PTR [esi], eax
  001ca	a1 04 00 00 00	 mov	 eax, DWORD PTR ??_C@_0N@GDCIBLGD@INTEL?5486DX2@+4
  001cf	89 46 04	 mov	 DWORD PTR [esi+4], eax
  001d2	a1 08 00 00 00	 mov	 eax, DWORD PTR ??_C@_0N@GDCIBLGD@INTEL?5486DX2@+8
  001d7	89 46 08	 mov	 DWORD PTR [esi+8], eax
  001da	a0 0c 00 00 00	 mov	 al, BYTE PTR ??_C@_0N@GDCIBLGD@INTEL?5486DX2@+12
  001df	88 46 0c	 mov	 BYTE PTR [esi+12], al

; 153  :                 break;

  001e2	e9 27 02 00 00	 jmp	 $LN64@map_mname
$LN43@map_mname:

; 154  :             case 4:
; 155  :                 strcpy (m_name, "INTEL 486SL");

  001e7	a1 00 00 00 00	 mov	 eax, DWORD PTR ??_C@_0M@NBGHIJDN@INTEL?5486SL@
  001ec	89 06		 mov	 DWORD PTR [esi], eax
  001ee	a1 04 00 00 00	 mov	 eax, DWORD PTR ??_C@_0M@NBGHIJDN@INTEL?5486SL@+4
  001f3	89 46 04	 mov	 DWORD PTR [esi+4], eax
  001f6	a1 08 00 00 00	 mov	 eax, DWORD PTR ??_C@_0M@NBGHIJDN@INTEL?5486SL@+8
  001fb	89 46 08	 mov	 DWORD PTR [esi+8], eax

; 156  :                 break;

  001fe	e9 0b 02 00 00	 jmp	 $LN64@map_mname
$LN44@map_mname:

; 157  :             case 5:
; 158  :                 strcpy (m_name, "INTEL 486SX2");

  00203	a1 00 00 00 00	 mov	 eax, DWORD PTR ??_C@_0N@KOOGHEEF@INTEL?5486SX2@
  00208	89 06		 mov	 DWORD PTR [esi], eax
  0020a	a1 04 00 00 00	 mov	 eax, DWORD PTR ??_C@_0N@KOOGHEEF@INTEL?5486SX2@+4
  0020f	89 46 04	 mov	 DWORD PTR [esi+4], eax
  00212	a1 08 00 00 00	 mov	 eax, DWORD PTR ??_C@_0N@KOOGHEEF@INTEL?5486SX2@+8
  00217	89 46 08	 mov	 DWORD PTR [esi+8], eax
  0021a	a0 0c 00 00 00	 mov	 al, BYTE PTR ??_C@_0N@KOOGHEEF@INTEL?5486SX2@+12
  0021f	88 46 0c	 mov	 BYTE PTR [esi+12], al

; 159  :                 break;

  00222	e9 e7 01 00 00	 jmp	 $LN64@map_mname
$LN45@map_mname:

; 160  :             case 7:
; 161  :                 strcpy (m_name, "INTEL 486DX2E");

  00227	a1 00 00 00 00	 mov	 eax, DWORD PTR ??_C@_0O@FJNGKDLJ@INTEL?5486DX2E@
  0022c	89 06		 mov	 DWORD PTR [esi], eax
  0022e	a1 04 00 00 00	 mov	 eax, DWORD PTR ??_C@_0O@FJNGKDLJ@INTEL?5486DX2E@+4
  00233	89 46 04	 mov	 DWORD PTR [esi+4], eax
  00236	a1 08 00 00 00	 mov	 eax, DWORD PTR ??_C@_0O@FJNGKDLJ@INTEL?5486DX2E@+8
  0023b	89 46 08	 mov	 DWORD PTR [esi+8], eax
  0023e	66 a1 0c 00 00
	00		 mov	 ax, WORD PTR ??_C@_0O@FJNGKDLJ@INTEL?5486DX2E@+12
  00244	66 89 46 0c	 mov	 WORD PTR [esi+12], ax

; 162  :                 break;

  00248	e9 c1 01 00 00	 jmp	 $LN64@map_mname
$LN46@map_mname:

; 163  :             case 8:
; 164  :                 strcpy (m_name, "INTEL 486DX4");

  0024d	a1 00 00 00 00	 mov	 eax, DWORD PTR ??_C@_0N@DFHCLMOF@INTEL?5486DX4@
  00252	89 06		 mov	 DWORD PTR [esi], eax
  00254	a1 04 00 00 00	 mov	 eax, DWORD PTR ??_C@_0N@DFHCLMOF@INTEL?5486DX4@+4
  00259	89 46 04	 mov	 DWORD PTR [esi+4], eax
  0025c	a1 08 00 00 00	 mov	 eax, DWORD PTR ??_C@_0N@DFHCLMOF@INTEL?5486DX4@+8
  00261	89 46 08	 mov	 DWORD PTR [esi+8], eax
  00264	a0 0c 00 00 00	 mov	 al, BYTE PTR ??_C@_0N@DFHCLMOF@INTEL?5486DX4@+12
  00269	88 46 0c	 mov	 BYTE PTR [esi+12], al

; 165  :                 break;
; 166  :             }
; 167  :             break;

  0026c	e9 9d 01 00 00	 jmp	 $LN64@map_mname
$LN47@map_mname:

; 168  : 
; 169  :         case 5:
; 170  :             switch (model) { // extract model code

  00271	8b 45 0c	 mov	 eax, DWORD PTR _model$[ebp]
  00274	48		 dec	 eax
  00275	83 f8 03	 cmp	 eax, 3
  00278	0f 87 95 01 00
	00		 ja	 $LN67@map_mname
  0027e	ff 24 85 00 00
	00 00		 jmp	 DWORD PTR $LN75@map_mname[eax*4]
$LN48@map_mname:

; 171  :             case 1:
; 172  :             case 2:
; 173  :             case 3:
; 174  :                 strcpy (m_name, "INTEL Pentium");

  00285	a1 00 00 00 00	 mov	 eax, DWORD PTR ??_C@_0O@GOJGBNLI@INTEL?5Pentium@
  0028a	89 06		 mov	 DWORD PTR [esi], eax
  0028c	a1 04 00 00 00	 mov	 eax, DWORD PTR ??_C@_0O@GOJGBNLI@INTEL?5Pentium@+4
  00291	89 46 04	 mov	 DWORD PTR [esi+4], eax
  00294	a1 08 00 00 00	 mov	 eax, DWORD PTR ??_C@_0O@GOJGBNLI@INTEL?5Pentium@+8
  00299	89 46 08	 mov	 DWORD PTR [esi+8], eax
  0029c	66 a1 0c 00 00
	00		 mov	 ax, WORD PTR ??_C@_0O@GOJGBNLI@INTEL?5Pentium@+12
  002a2	66 89 46 0c	 mov	 WORD PTR [esi+12], ax

; 175  :                 break;

  002a6	e9 63 01 00 00	 jmp	 $LN64@map_mname
$LN51@map_mname:

; 176  :             case 4:
; 177  :                 strcpy (m_name, "INTEL Pentium-MMX");

  002ab	a1 00 00 00 00	 mov	 eax, DWORD PTR ??_C@_0BC@BLCGJFAP@INTEL?5Pentium?9MMX@
  002b0	89 06		 mov	 DWORD PTR [esi], eax
  002b2	a1 04 00 00 00	 mov	 eax, DWORD PTR ??_C@_0BC@BLCGJFAP@INTEL?5Pentium?9MMX@+4
  002b7	89 46 04	 mov	 DWORD PTR [esi+4], eax
  002ba	a1 08 00 00 00	 mov	 eax, DWORD PTR ??_C@_0BC@BLCGJFAP@INTEL?5Pentium?9MMX@+8
  002bf	89 46 08	 mov	 DWORD PTR [esi+8], eax
  002c2	a1 0c 00 00 00	 mov	 eax, DWORD PTR ??_C@_0BC@BLCGJFAP@INTEL?5Pentium?9MMX@+12
  002c7	89 46 0c	 mov	 DWORD PTR [esi+12], eax
  002ca	66 a1 10 00 00
	00		 mov	 ax, WORD PTR ??_C@_0BC@BLCGJFAP@INTEL?5Pentium?9MMX@+16
  002d0	66 89 46 10	 mov	 WORD PTR [esi+16], ax

; 178  :                 break;
; 179  :             }
; 180  :             break;

  002d4	e9 35 01 00 00	 jmp	 $LN64@map_mname
$LN52@map_mname:

; 181  : 
; 182  :         case 6:
; 183  :             switch (model) { // extract model code

  002d9	8b 45 0c	 mov	 eax, DWORD PTR _model$[ebp]
  002dc	48		 dec	 eax
  002dd	83 f8 09	 cmp	 eax, 9
  002e0	0f 87 2d 01 00
	00		 ja	 $LN67@map_mname
  002e6	0f b6 80 00 00
	00 00		 movzx	 eax, BYTE PTR $LN76@map_mname[eax]
  002ed	ff 24 85 00 00
	00 00		 jmp	 DWORD PTR $LN77@map_mname[eax*4]
$LN53@map_mname:

; 184  :             case 1:
; 185  :                 strcpy (m_name, "INTEL Pentium-Pro");

  002f4	a1 00 00 00 00	 mov	 eax, DWORD PTR ??_C@_0BC@GGFBINE@INTEL?5Pentium?9Pro@
  002f9	89 06		 mov	 DWORD PTR [esi], eax
  002fb	a1 04 00 00 00	 mov	 eax, DWORD PTR ??_C@_0BC@GGFBINE@INTEL?5Pentium?9Pro@+4
  00300	89 46 04	 mov	 DWORD PTR [esi+4], eax
  00303	a1 08 00 00 00	 mov	 eax, DWORD PTR ??_C@_0BC@GGFBINE@INTEL?5Pentium?9Pro@+8
  00308	89 46 08	 mov	 DWORD PTR [esi+8], eax
  0030b	a1 0c 00 00 00	 mov	 eax, DWORD PTR ??_C@_0BC@GGFBINE@INTEL?5Pentium?9Pro@+12
  00310	89 46 0c	 mov	 DWORD PTR [esi+12], eax
  00313	66 a1 10 00 00
	00		 mov	 ax, WORD PTR ??_C@_0BC@GGFBINE@INTEL?5Pentium?9Pro@+16
  00319	66 89 46 10	 mov	 WORD PTR [esi+16], ax

; 186  :                 break;

  0031d	e9 ec 00 00 00	 jmp	 $LN64@map_mname
$LN54@map_mname:

; 187  :             case 3:
; 188  :             case 5:
; 189  :                 strcpy (m_name, "INTEL Pentium-II");

  00322	a1 00 00 00 00	 mov	 eax, DWORD PTR ??_C@_0BB@CBOFMAEL@INTEL?5Pentium?9II@
  00327	89 06		 mov	 DWORD PTR [esi], eax
  00329	a1 04 00 00 00	 mov	 eax, DWORD PTR ??_C@_0BB@CBOFMAEL@INTEL?5Pentium?9II@+4
  0032e	89 46 04	 mov	 DWORD PTR [esi+4], eax
  00331	a1 08 00 00 00	 mov	 eax, DWORD PTR ??_C@_0BB@CBOFMAEL@INTEL?5Pentium?9II@+8
  00336	89 46 08	 mov	 DWORD PTR [esi+8], eax
  00339	a1 0c 00 00 00	 mov	 eax, DWORD PTR ??_C@_0BB@CBOFMAEL@INTEL?5Pentium?9II@+12
  0033e	89 46 0c	 mov	 DWORD PTR [esi+12], eax
  00341	a0 10 00 00 00	 mov	 al, BYTE PTR ??_C@_0BB@CBOFMAEL@INTEL?5Pentium?9II@+16
  00346	88 46 10	 mov	 BYTE PTR [esi+16], al

; 190  :                 break;  // actual differentiation depends on cache settings

  00349	e9 c0 00 00 00	 jmp	 $LN64@map_mname
$LN56@map_mname:

; 191  :             case 6:
; 192  :                 strcpy (m_name, "INTEL Celeron");

  0034e	a1 00 00 00 00	 mov	 eax, DWORD PTR ??_C@_0O@DBGOJBLC@INTEL?5Celeron@
  00353	89 06		 mov	 DWORD PTR [esi], eax
  00355	a1 04 00 00 00	 mov	 eax, DWORD PTR ??_C@_0O@DBGOJBLC@INTEL?5Celeron@+4
  0035a	89 46 04	 mov	 DWORD PTR [esi+4], eax
  0035d	a1 08 00 00 00	 mov	 eax, DWORD PTR ??_C@_0O@DBGOJBLC@INTEL?5Celeron@+8
  00362	89 46 08	 mov	 DWORD PTR [esi+8], eax
  00365	66 a1 0c 00 00
	00		 mov	 ax, WORD PTR ??_C@_0O@DBGOJBLC@INTEL?5Celeron@+12
  0036b	66 89 46 0c	 mov	 WORD PTR [esi+12], ax

; 193  :                 break;

  0036f	e9 9a 00 00 00	 jmp	 $LN64@map_mname
$LN57@map_mname:

; 194  :             case 7:
; 195  :             case 8:
; 196  :             case 10:
; 197  :                 strcpy (m_name, "INTEL Pentium-III");

  00374	a1 00 00 00 00	 mov	 eax, DWORD PTR ??_C@_0BC@MAJEIJJE@INTEL?5Pentium?9III@
  00379	89 06		 mov	 DWORD PTR [esi], eax
  0037b	a1 04 00 00 00	 mov	 eax, DWORD PTR ??_C@_0BC@MAJEIJJE@INTEL?5Pentium?9III@+4
  00380	89 46 04	 mov	 DWORD PTR [esi+4], eax
  00383	a1 08 00 00 00	 mov	 eax, DWORD PTR ??_C@_0BC@MAJEIJJE@INTEL?5Pentium?9III@+8
  00388	89 46 08	 mov	 DWORD PTR [esi+8], eax
  0038b	a1 0c 00 00 00	 mov	 eax, DWORD PTR ??_C@_0BC@MAJEIJJE@INTEL?5Pentium?9III@+12
  00390	89 46 0c	 mov	 DWORD PTR [esi+12], eax
  00393	66 a1 10 00 00
	00		 mov	 ax, WORD PTR ??_C@_0BC@MAJEIJJE@INTEL?5Pentium?9III@+16
  00399	66 89 46 10	 mov	 WORD PTR [esi+16], ax

; 198  :                 break;  // actual differentiation depends on cache settings
; 199  :             }
; 200  :             break;

  0039d	eb 6f		 jmp	 SHORT $LN64@map_mname
$LN60@map_mname:

; 201  : 
; 202  :         case 15 | (0x00 << 4): // family 15, extended family 0x00
; 203  :             switch (model) {

  0039f	83 7d 0c 00	 cmp	 DWORD PTR _model$[ebp], 0
  003a3	75 6e		 jne	 SHORT $LN67@map_mname

; 204  :             case 0:
; 205  :                 strcpy (m_name, "INTEL Pentium-4");

  003a5	a1 00 00 00 00	 mov	 eax, DWORD PTR ??_C@_0BA@MEKFAALL@INTEL?5Pentium?94@
  003aa	89 06		 mov	 DWORD PTR [esi], eax
  003ac	a1 04 00 00 00	 mov	 eax, DWORD PTR ??_C@_0BA@MEKFAALL@INTEL?5Pentium?94@+4
  003b1	89 46 04	 mov	 DWORD PTR [esi+4], eax
  003b4	a1 08 00 00 00	 mov	 eax, DWORD PTR ??_C@_0BA@MEKFAALL@INTEL?5Pentium?94@+8
  003b9	89 46 08	 mov	 DWORD PTR [esi+8], eax
  003bc	a1 0c 00 00 00	 mov	 eax, DWORD PTR ??_C@_0BA@MEKFAALL@INTEL?5Pentium?94@+12
  003c1	89 46 0c	 mov	 DWORD PTR [esi+12], eax

; 206  :                 break;
; 207  :             }
; 208  :             break;
; 209  :         }
; 210  :     }

  003c4	eb 48		 jmp	 SHORT $LN64@map_mname
$LN36@map_mname:

; 211  :     else if (!strncmp("CyrixInstead", v_name, 12)) {

  003c6	6a 0c		 push	 12			; 0000000cH
  003c8	57		 push	 edi
  003c9	68 00 00 00 00	 push	 OFFSET ??_C@_0N@KBCLIFKD@CyrixInstead@
  003ce	e8 00 00 00 00	 call	 _strncmp
  003d3	83 c4 0c	 add	 esp, 12			; 0000000cH
  003d6	85 c0		 test	 eax, eax
  003d8	75 13		 jne	 SHORT $LN62@map_mname

; 212  :         strcpy (m_name, "Cyrix");

  003da	a1 00 00 00 00	 mov	 eax, DWORD PTR ??_C@_05FCOFMPGG@Cyrix@
  003df	89 06		 mov	 DWORD PTR [esi], eax
  003e1	66 a1 04 00 00
	00		 mov	 ax, WORD PTR ??_C@_05FCOFMPGG@Cyrix@+4
  003e7	66 89 46 04	 mov	 WORD PTR [esi+4], ax

; 213  :     }

  003eb	eb 21		 jmp	 SHORT $LN64@map_mname
$LN62@map_mname:

; 214  :     else if (!strncmp("CentaurHauls", v_name, 12)) {

  003ed	6a 0c		 push	 12			; 0000000cH
  003ef	57		 push	 edi
  003f0	68 00 00 00 00	 push	 OFFSET ??_C@_0N@DHAFJCOO@CentaurHauls@
  003f5	e8 00 00 00 00	 call	 _strncmp
  003fa	83 c4 0c	 add	 esp, 12			; 0000000cH
  003fd	85 c0		 test	 eax, eax
  003ff	75 12		 jne	 SHORT $LN67@map_mname

; 215  :         strcpy (m_name, "Centaur");

  00401	c7 06 43 65 6e
	74		 mov	 DWORD PTR [esi], 1953391939 ; 746e6543H
  00407	c7 46 04 61 75
	72 00		 mov	 DWORD PTR [esi+4], 7501153 ; 00727561H
$LN64@map_mname:

; 216  :     }
; 217  : 
; 218  :     if (!m_name[0]) {

  0040e	80 3e 00	 cmp	 BYTE PTR [esi], 0
  00411	75 0d		 jne	 SHORT $LN65@map_mname
$LN67@map_mname:

; 219  :         strcpy (m_name, "Unknown");

  00413	c7 06 55 6e 6b
	6e		 mov	 DWORD PTR [esi], 1852534357 ; 6e6b6e55H
  00419	c7 46 04 6f 77
	6e 00		 mov	 DWORD PTR [esi+4], 7239535 ; 006e776fH
$LN65@map_mname:

; 220  :     }
; 221  : }

  00420	5f		 pop	 edi
  00421	5e		 pop	 esi
  00422	5d		 pop	 ebp
  00423	c3		 ret	 0
$LN69@map_mname:
  00424	00 00 00 00	 DD	 $LN18@map_mname
  00428	00 00 00 00	 DD	 $LN19@map_mname
  0042c	00 00 00 00	 DD	 $LN34@map_mname
  00430	00 00 00 00	 DD	 $LN35@map_mname
  00434	00 00 00 00	 DD	 $LN67@map_mname
$LN68@map_mname:
  00438	00		 DB	 0
  00439	01		 DB	 1
  0043a	02		 DB	 2
  0043b	04		 DB	 4
  0043c	04		 DB	 4
  0043d	04		 DB	 4
  0043e	04		 DB	 4
  0043f	04		 DB	 4
  00440	04		 DB	 4
  00441	04		 DB	 4
  00442	04		 DB	 4
  00443	03		 DB	 3
$LN71@map_mname:
  00444	00 00 00 00	 DD	 $LN20@map_mname
  00448	00 00 00 00	 DD	 $LN24@map_mname
  0044c	00 00 00 00	 DD	 $LN26@map_mname
  00450	00 00 00 00	 DD	 $LN27@map_mname
  00454	00 00 00 00	 DD	 $LN67@map_mname
$LN70@map_mname:
  00458	00		 DB	 0
  00459	00		 DB	 0
  0045a	00		 DB	 0
  0045b	00		 DB	 0
  0045c	04		 DB	 4
  0045d	04		 DB	 4
  0045e	01		 DB	 1
  0045f	01		 DB	 1
  00460	02		 DB	 2
  00461	03		 DB	 3
  00462	03		 DB	 3
  00463	03		 DB	 3
  00464	03		 DB	 3
  00465	03		 DB	 3
  00466	03		 DB	 3
  00467	03		 DB	 3
$LN73@map_mname:
  00468	00 00 00 00	 DD	 $LN38@map_mname
  0046c	00 00 00 00	 DD	 $LN47@map_mname
  00470	00 00 00 00	 DD	 $LN52@map_mname
  00474	00 00 00 00	 DD	 $LN60@map_mname
  00478	00 00 00 00	 DD	 $LN67@map_mname
$LN72@map_mname:
  0047c	00		 DB	 0
  0047d	01		 DB	 1
  0047e	02		 DB	 2
  0047f	04		 DB	 4
  00480	04		 DB	 4
  00481	04		 DB	 4
  00482	04		 DB	 4
  00483	04		 DB	 4
  00484	04		 DB	 4
  00485	04		 DB	 4
  00486	04		 DB	 4
  00487	03		 DB	 3
$LN74@map_mname:
  00488	00 00 00 00	 DD	 $LN39@map_mname
  0048c	00 00 00 00	 DD	 $LN39@map_mname
  00490	00 00 00 00	 DD	 $LN41@map_mname
  00494	00 00 00 00	 DD	 $LN42@map_mname
  00498	00 00 00 00	 DD	 $LN43@map_mname
  0049c	00 00 00 00	 DD	 $LN44@map_mname
  004a0	00 00 00 00	 DD	 $LN67@map_mname
  004a4	00 00 00 00	 DD	 $LN45@map_mname
  004a8	00 00 00 00	 DD	 $LN46@map_mname
$LN75@map_mname:
  004ac	00 00 00 00	 DD	 $LN48@map_mname
  004b0	00 00 00 00	 DD	 $LN48@map_mname
  004b4	00 00 00 00	 DD	 $LN48@map_mname
  004b8	00 00 00 00	 DD	 $LN51@map_mname
$LN77@map_mname:
  004bc	00 00 00 00	 DD	 $LN53@map_mname
  004c0	00 00 00 00	 DD	 $LN54@map_mname
  004c4	00 00 00 00	 DD	 $LN56@map_mname
  004c8	00 00 00 00	 DD	 $LN57@map_mname
  004cc	00 00 00 00	 DD	 $LN67@map_mname
$LN76@map_mname:
  004d0	00		 DB	 0
  004d1	04		 DB	 4
  004d2	01		 DB	 1
  004d3	04		 DB	 4
  004d4	01		 DB	 1
  004d5	02		 DB	 2
  004d6	03		 DB	 3
  004d7	03		 DB	 3
  004d8	04		 DB	 4
  004d9	03		 DB	 3
?map_mname@@YAXHHPBDPAD@Z ENDP				; map_mname
_TEXT	ENDS
; Function compile flags: /Ogtp
; File E:\Proyectos\JuegosOnlineproyectos\PB\pbblow\Piercing Blow Remake\i3Server\include\i3Base\i3CPUID.cpp
;	COMDAT ?_os_support@@YAHH@Z
_TEXT	SEGMENT
_feature$ = 8						; size = 4
?_os_support@@YAHH@Z PROC				; _os_support, COMDAT

; 45   :     //__try {
; 46   :     //    switch (feature) {
; 47   :     //    case I3_CPU_FEATURE_SSE:
; 48   :     //        __asm {
; 49   :     //            xorps xmm0, xmm0        // executing SSE instruction
; 50   :     //        }
; 51   :     //        break;
; 52   :     //    case I3_CPU_FEATURE_SSE2:
; 53   :     //        __asm {
; 54   :     //            xorpd xmm0, xmm0        // executing SSE2 instruction
; 55   :     //        }
; 56   :     //        break;
; 57   :     //    case I3_CPU_FEATURE_3DNOW:
; 58   :     //        __asm {
; 59   :     //            pfrcp mm0, mm0          // executing 3DNow! instruction
; 60   :     //            emms
; 61   :     //        }
; 62   :     //        break;
; 63   :     //    case I3_CPU_FEATURE_MMX:
; 64   :     //        __asm {
; 65   :     //            pxor mm0, mm0           // executing MMX instruction
; 66   :     //            emms
; 67   :     //        }
; 68   :     //        break;
; 69   :     //    }
; 70   :     //}
; 71   :     //__except (EXCEPTION_EXECUTE_HANDLER) {
; 72   :     //    if (_exception_code() == STATUS_ILLEGAL_INSTRUCTION) {
; 73   :     //        return 0;
; 74   :     //    }
; 75   :     //    return 0;
; 76   :     //}
; 77   :     return 1;

  00000	b8 01 00 00 00	 mov	 eax, 1

; 78   : }

  00005	c3		 ret	 0
?_os_support@@YAHH@Z ENDP				; _os_support
_TEXT	ENDS
; Function compile flags: /Ogtp
; File E:\Proyectos\JuegosOnlineproyectos\PB\pbblow\Piercing Blow Remake\i3Server\include\i3Base\i3CPUID.cpp
;	COMDAT ?IsCPUID@@YAHXZ
_TEXT	SEGMENT
?IsCPUID@@YAHXZ PROC					; IsCPUID, COMDAT

; 18   :     //__try {
; 19   :     //    _asm {
; 20   :     //        xor eax, eax
; 21   :     //        cpuid
; 22   :     //    }
; 23   :     //}
; 24   :     //__except (EXCEPTION_EXECUTE_HANDLER) {
; 25   :     //    return 0;
; 26   :     //}
; 27   :     return 1;

  00000	b8 01 00 00 00	 mov	 eax, 1

; 28   : }

  00005	c3		 ret	 0
?IsCPUID@@YAHXZ ENDP					; IsCPUID
_TEXT	ENDS
; Function compile flags: /Ogtp
; File E:\Proyectos\JuegosOnlineproyectos\PB\pbblow\Piercing Blow Remake\i3Server\include\i3Base\i3CPUID.cpp
;	COMDAT ??_Ei3Timer@@UAEPAXI@Z
_TEXT	SEGMENT
__$EHRec$ = -12						; size = 12
___flags$ = 8						; size = 4
??_Ei3Timer@@UAEPAXI@Z PROC				; i3Timer::`vector deleting destructor', COMDAT
; _this$ = ecx
  00000	55		 push	 ebp
  00001	8b ec		 mov	 ebp, esp
  00003	6a ff		 push	 -1
  00005	68 00 00 00 00	 push	 __ehhandler$??_Ei3Timer@@UAEPAXI@Z
  0000a	64 a1 00 00 00
	00		 mov	 eax, DWORD PTR fs:0
  00010	50		 push	 eax
  00011	53		 push	 ebx
  00012	56		 push	 esi
  00013	57		 push	 edi
  00014	a1 00 00 00 00	 mov	 eax, DWORD PTR ___security_cookie
  00019	33 c5		 xor	 eax, ebp
  0001b	50		 push	 eax
  0001c	8d 45 f4	 lea	 eax, DWORD PTR __$EHRec$[ebp]
  0001f	64 a3 00 00 00
	00		 mov	 DWORD PTR fs:0, eax
  00025	8b f1		 mov	 esi, ecx
  00027	8b 5d 08	 mov	 ebx, DWORD PTR ___flags$[ebp]
  0002a	8b fb		 mov	 edi, ebx
  0002c	83 e7 01	 and	 edi, 1
  0002f	f6 c3 02	 test	 bl, 2
  00032	74 43		 je	 SHORT $LN2@vector
  00034	68 00 00 00 00	 push	 OFFSET ??1i3Timer@@UAE@XZ ; i3Timer::~i3Timer
  00039	ff 76 fc	 push	 DWORD PTR [esi-4]
  0003c	8d 5e fc	 lea	 ebx, DWORD PTR [esi-4]
  0003f	6a 28		 push	 40			; 00000028H
  00041	56		 push	 esi
  00042	e8 00 00 00 00	 call	 ??_M@YGXPAXIIP6EX0@Z@Z
  00047	85 ff		 test	 edi, edi
  00049	74 16		 je	 SHORT $LN3@vector
  0004b	8b 0b		 mov	 ecx, DWORD PTR [ebx]
  0004d	8d 0c 89	 lea	 ecx, DWORD PTR [ecx+ecx*4]
  00050	8d 0c cd 04 00
	00 00		 lea	 ecx, DWORD PTR [ecx*8+4]
  00057	51		 push	 ecx
  00058	53		 push	 ebx
  00059	e8 00 00 00 00	 call	 ??_V@YAXPAXI@Z		; operator delete[]
  0005e	83 c4 08	 add	 esp, 8
$LN3@vector:
  00061	8b c3		 mov	 eax, ebx
  00063	8b 4d f4	 mov	 ecx, DWORD PTR __$EHRec$[ebp]
  00066	64 89 0d 00 00
	00 00		 mov	 DWORD PTR fs:0, ecx
  0006d	59		 pop	 ecx
  0006e	5f		 pop	 edi
  0006f	5e		 pop	 esi
  00070	5b		 pop	 ebx
  00071	8b e5		 mov	 esp, ebp
  00073	5d		 pop	 ebp
  00074	c2 04 00	 ret	 4
$LN2@vector:
  00077	e8 00 00 00 00	 call	 ??1i3Timer@@UAE@XZ	; i3Timer::~i3Timer
  0007c	85 ff		 test	 edi, edi
  0007e	74 1b		 je	 SHORT $LN6@vector
  00080	f6 c3 04	 test	 bl, 4
  00083	75 0b		 jne	 SHORT $LN5@vector
  00085	56		 push	 esi
  00086	e8 00 00 00 00	 call	 ??3i3ElementBase@@SAXPAX@Z ; i3ElementBase::operator delete
  0008b	83 c4 04	 add	 esp, 4
  0008e	eb 0b		 jmp	 SHORT $LN6@vector
$LN5@vector:

  00090	6a 28		 push	 40			; 00000028H
  00092	56		 push	 esi
  00093	e8 00 00 00 00	 call	 ??3@YAXPAXI@Z		; operator delete
  00098	83 c4 08	 add	 esp, 8
$LN6@vector:
  0009b	8b c6		 mov	 eax, esi
  0009d	8b 4d f4	 mov	 ecx, DWORD PTR __$EHRec$[ebp]
  000a0	64 89 0d 00 00
	00 00		 mov	 DWORD PTR fs:0, ecx
  000a7	59		 pop	 ecx
  000a8	5f		 pop	 edi
  000a9	5e		 pop	 esi
  000aa	5b		 pop	 ebx
  000ab	8b e5		 mov	 esp, ebp
  000ad	5d		 pop	 ebp
  000ae	c2 04 00	 ret	 4
  000b1	cc		 int	 3
  000b2	cc		 int	 3
  000b3	cc		 int	 3
  000b4	cc		 int	 3
  000b5	cc		 int	 3
_TEXT	ENDS
;	COMDAT text$x
text$x	SEGMENT
__ehhandler$??_Ei3Timer@@UAEPAXI@Z:
  00000	90		 npad	 1
  00001	90		 npad	 1
  00002	8b 54 24 08	 mov	 edx, DWORD PTR [esp+8]
  00006	8d 42 0c	 lea	 eax, DWORD PTR [edx+12]
  00009	8b 4a f0	 mov	 ecx, DWORD PTR [edx-16]
  0000c	33 c8		 xor	 ecx, eax
  0000e	e8 00 00 00 00	 call	 @__security_check_cookie@4
  00013	b8 00 00 00 00	 mov	 eax, OFFSET __ehfuncinfo$??_Ei3Timer@@UAEPAXI@Z
  00018	e9 00 00 00 00	 jmp	 ___CxxFrameHandler3
text$x	ENDS
??_Ei3Timer@@UAEPAXI@Z ENDP				; i3Timer::`vector deleting destructor'
; Function compile flags: /Ogtp
; File E:\Proyectos\JuegosOnlineproyectos\PB\pbblow\Piercing Blow Remake\i3Server\include\i3Base\i3CPUID.cpp
;	COMDAT ??_Gi3Timer@@UAEPAXI@Z
_TEXT	SEGMENT
___flags$ = 8						; size = 4
??_Gi3Timer@@UAEPAXI@Z PROC				; i3Timer::`scalar deleting destructor', COMDAT
; _this$ = ecx
  00000	55		 push	 ebp
  00001	8b ec		 mov	 ebp, esp
  00003	56		 push	 esi
  00004	8b f1		 mov	 esi, ecx
  00006	e8 00 00 00 00	 call	 ??1i3Timer@@UAE@XZ	; i3Timer::~i3Timer
  0000b	8b 45 08	 mov	 eax, DWORD PTR ___flags$[ebp]
  0000e	a8 01		 test	 al, 1
  00010	74 1f		 je	 SHORT $LN10@scalar
  00012	a8 04		 test	 al, 4
  00014	75 10		 jne	 SHORT $LN3@scalar
  00016	56		 push	 esi
  00017	e8 00 00 00 00	 call	 ??3i3ElementBase@@SAXPAX@Z ; i3ElementBase::operator delete
  0001c	83 c4 04	 add	 esp, 4
  0001f	8b c6		 mov	 eax, esi
  00021	5e		 pop	 esi
  00022	5d		 pop	 ebp
  00023	c2 04 00	 ret	 4
$LN3@scalar:

  00026	6a 28		 push	 40			; 00000028H
  00028	56		 push	 esi
  00029	e8 00 00 00 00	 call	 ??3@YAXPAXI@Z		; operator delete
  0002e	83 c4 08	 add	 esp, 8
$LN10@scalar:
  00031	8b c6		 mov	 eax, esi
  00033	5e		 pop	 esi
  00034	5d		 pop	 ebp
  00035	c2 04 00	 ret	 4
??_Gi3Timer@@UAEPAXI@Z ENDP				; i3Timer::`scalar deleting destructor'
_TEXT	ENDS
; Function compile flags: /Ogtp
;	COMDAT ??4i3Timer@@QAEAAV0@ABV0@@Z
_TEXT	SEGMENT
___that$ = 8						; size = 4
??4i3Timer@@QAEAAV0@ABV0@@Z PROC			; i3Timer::operator=, COMDAT
; _this$ = ecx
  00000	55		 push	 ebp
  00001	8b ec		 mov	 ebp, esp
  00003	8b 55 08	 mov	 edx, DWORD PTR ___that$[ebp]
  00006	56		 push	 esi
  00007	8b f1		 mov	 esi, ecx
  00009	8b 42 04	 mov	 eax, DWORD PTR [edx+4]
  0000c	89 46 04	 mov	 DWORD PTR [esi+4], eax
  0000f	8b 42 08	 mov	 eax, DWORD PTR [edx+8]
  00012	89 46 08	 mov	 DWORD PTR [esi+8], eax
  00015	8b 42 0c	 mov	 eax, DWORD PTR [edx+12]
  00018	89 46 0c	 mov	 DWORD PTR [esi+12], eax
  0001b	8b 42 10	 mov	 eax, DWORD PTR [edx+16]
  0001e	89 46 10	 mov	 DWORD PTR [esi+16], eax
  00021	8b 42 18	 mov	 eax, DWORD PTR [edx+24]
  00024	8b 4a 1c	 mov	 ecx, DWORD PTR [edx+28]
  00027	89 46 18	 mov	 DWORD PTR [esi+24], eax
  0002a	89 4e 1c	 mov	 DWORD PTR [esi+28], ecx
  0002d	8b 42 20	 mov	 eax, DWORD PTR [edx+32]
  00030	89 46 20	 mov	 DWORD PTR [esi+32], eax
  00033	8b c6		 mov	 eax, esi
  00035	5e		 pop	 esi
  00036	5d		 pop	 ebp
  00037	c2 04 00	 ret	 4
??4i3Timer@@QAEAAV0@ABV0@@Z ENDP			; i3Timer::operator=
_TEXT	ENDS
; Function compile flags: /Ogtp
;	COMDAT ??0i3Timer@@QAE@ABV0@@Z
_TEXT	SEGMENT
___that$ = 8						; size = 4
??0i3Timer@@QAE@ABV0@@Z PROC				; i3Timer::i3Timer, COMDAT
; _this$ = ecx
  00000	55		 push	 ebp
  00001	8b ec		 mov	 ebp, esp
  00003	8b 55 08	 mov	 edx, DWORD PTR ___that$[ebp]
  00006	56		 push	 esi
  00007	8b f1		 mov	 esi, ecx
  00009	c7 06 00 00 00
	00		 mov	 DWORD PTR [esi], OFFSET ??_7i3ElementBase@@6B@
  0000f	8b 42 04	 mov	 eax, DWORD PTR [edx+4]
  00012	89 46 04	 mov	 DWORD PTR [esi+4], eax
  00015	8b 42 08	 mov	 eax, DWORD PTR [edx+8]
  00018	89 46 08	 mov	 DWORD PTR [esi+8], eax
  0001b	8b 42 0c	 mov	 eax, DWORD PTR [edx+12]
  0001e	89 46 0c	 mov	 DWORD PTR [esi+12], eax
  00021	c7 06 00 00 00
	00		 mov	 DWORD PTR [esi], OFFSET ??_7i3Timer@@6B@
  00027	8b 42 10	 mov	 eax, DWORD PTR [edx+16]
  0002a	89 46 10	 mov	 DWORD PTR [esi+16], eax
  0002d	8b 42 18	 mov	 eax, DWORD PTR [edx+24]
  00030	8b 4a 1c	 mov	 ecx, DWORD PTR [edx+28]
  00033	89 46 18	 mov	 DWORD PTR [esi+24], eax
  00036	89 4e 1c	 mov	 DWORD PTR [esi+28], ecx
  00039	8b 42 20	 mov	 eax, DWORD PTR [edx+32]
  0003c	89 46 20	 mov	 DWORD PTR [esi+32], eax
  0003f	8b c6		 mov	 eax, esi
  00041	5e		 pop	 esi
  00042	5d		 pop	 ebp
  00043	c2 04 00	 ret	 4
??0i3Timer@@QAE@ABV0@@Z ENDP				; i3Timer::i3Timer
_TEXT	ENDS
; Function compile flags: /Ogtp
; File E:\Proyectos\JuegosOnlineproyectos\PB\pbblow\Piercing Blow Remake\i3Server\include\i3Base\i3Timer.h
;	COMDAT ?GetClassMeta@i3Timer@@SAPAVi3ClassMeta@@XZ
_TEXT	SEGMENT
?GetClassMeta@i3Timer@@SAPAVi3ClassMeta@@XZ PROC	; i3Timer::GetClassMeta, COMDAT

; 9    : 	I3_CLASS_DEFINE( i3Timer);

  00000	a1 00 00 00 00	 mov	 eax, DWORD PTR ?s_pClassMetai3Timer@i3Timer@@2PAVi3ClassMeta@@A ; i3Timer::s_pClassMetai3Timer
  00005	c3		 ret	 0
?GetClassMeta@i3Timer@@SAPAVi3ClassMeta@@XZ ENDP	; i3Timer::GetClassMeta
_TEXT	ENDS
; Function compile flags: /Ogtp
;	COMDAT ??_Ei3MemoryPool@@UAEPAXI@Z
_TEXT	SEGMENT
__$EHRec$ = -12						; size = 12
___flags$ = 8						; size = 4
??_Ei3MemoryPool@@UAEPAXI@Z PROC			; i3MemoryPool::`vector deleting destructor', COMDAT
; _this$ = ecx
  00000	55		 push	 ebp
  00001	8b ec		 mov	 ebp, esp
  00003	6a ff		 push	 -1
  00005	68 00 00 00 00	 push	 __ehhandler$??_Ei3MemoryPool@@UAEPAXI@Z
  0000a	64 a1 00 00 00
	00		 mov	 eax, DWORD PTR fs:0
  00010	50		 push	 eax
  00011	53		 push	 ebx
  00012	56		 push	 esi
  00013	57		 push	 edi
  00014	a1 00 00 00 00	 mov	 eax, DWORD PTR ___security_cookie
  00019	33 c5		 xor	 eax, ebp
  0001b	50		 push	 eax
  0001c	8d 45 f4	 lea	 eax, DWORD PTR __$EHRec$[ebp]
  0001f	64 a3 00 00 00
	00		 mov	 DWORD PTR fs:0, eax
  00025	8b f1		 mov	 esi, ecx
  00027	8b 45 08	 mov	 eax, DWORD PTR ___flags$[ebp]
  0002a	8b f8		 mov	 edi, eax
  0002c	83 e7 01	 and	 edi, 1
  0002f	a8 02		 test	 al, 2
  00031	74 40		 je	 SHORT $LN2@vector
  00033	68 00 00 00 00	 push	 OFFSET ??1i3MemoryPool@@UAE@XZ ; i3MemoryPool::~i3MemoryPool
  00038	ff 76 fc	 push	 DWORD PTR [esi-4]
  0003b	8d 5e fc	 lea	 ebx, DWORD PTR [esi-4]
  0003e	6a 04		 push	 4
  00040	56		 push	 esi
  00041	e8 00 00 00 00	 call	 ??_M@YGXPAXIIP6EX0@Z@Z
  00046	85 ff		 test	 edi, edi
  00048	74 13		 je	 SHORT $LN3@vector
  0004a	8b 0b		 mov	 ecx, DWORD PTR [ebx]
  0004c	8d 0c 8d 04 00
	00 00		 lea	 ecx, DWORD PTR [ecx*4+4]
  00053	51		 push	 ecx
  00054	53		 push	 ebx
  00055	e8 00 00 00 00	 call	 ??_V@YAXPAXI@Z		; operator delete[]
  0005a	83 c4 08	 add	 esp, 8
$LN3@vector:
  0005d	8b c3		 mov	 eax, ebx
  0005f	8b 4d f4	 mov	 ecx, DWORD PTR __$EHRec$[ebp]
  00062	64 89 0d 00 00
	00 00		 mov	 DWORD PTR fs:0, ecx
  00069	59		 pop	 ecx
  0006a	5f		 pop	 edi
  0006b	5e		 pop	 esi
  0006c	5b		 pop	 ebx
  0006d	8b e5		 mov	 esp, ebp
  0006f	5d		 pop	 ebp
  00070	c2 04 00	 ret	 4
$LN2@vector:
  00073	e8 00 00 00 00	 call	 ??1i3MemoryPool@@UAE@XZ	; i3MemoryPool::~i3MemoryPool
  00078	85 ff		 test	 edi, edi
  0007a	74 0b		 je	 SHORT $LN4@vector
  0007c	6a 04		 push	 4
  0007e	56		 push	 esi
  0007f	e8 00 00 00 00	 call	 ??3@YAXPAXI@Z		; operator delete
  00084	83 c4 08	 add	 esp, 8
$LN4@vector:
  00087	8b c6		 mov	 eax, esi
  00089	8b 4d f4	 mov	 ecx, DWORD PTR __$EHRec$[ebp]
  0008c	64 89 0d 00 00
	00 00		 mov	 DWORD PTR fs:0, ecx
  00093	59		 pop	 ecx
  00094	5f		 pop	 edi
  00095	5e		 pop	 esi
  00096	5b		 pop	 ebx
  00097	8b e5		 mov	 esp, ebp
  00099	5d		 pop	 ebp
  0009a	c2 04 00	 ret	 4
  0009d	cc		 int	 3
  0009e	cc		 int	 3
  0009f	cc		 int	 3
  000a0	cc		 int	 3
  000a1	cc		 int	 3
_TEXT	ENDS
;	COMDAT text$x
text$x	SEGMENT
__ehhandler$??_Ei3MemoryPool@@UAEPAXI@Z:
  00000	90		 npad	 1
  00001	90		 npad	 1
  00002	8b 54 24 08	 mov	 edx, DWORD PTR [esp+8]
  00006	8d 42 0c	 lea	 eax, DWORD PTR [edx+12]
  00009	8b 4a f0	 mov	 ecx, DWORD PTR [edx-16]
  0000c	33 c8		 xor	 ecx, eax
  0000e	e8 00 00 00 00	 call	 @__security_check_cookie@4
  00013	b8 00 00 00 00	 mov	 eax, OFFSET __ehfuncinfo$??_Ei3MemoryPool@@UAEPAXI@Z
  00018	e9 00 00 00 00	 jmp	 ___CxxFrameHandler3
text$x	ENDS
??_Ei3MemoryPool@@UAEPAXI@Z ENDP			; i3MemoryPool::`vector deleting destructor'
; Function compile flags: /Ogtp
;	COMDAT ??_Gi3MemoryPool@@UAEPAXI@Z
_TEXT	SEGMENT
___flags$ = 8						; size = 4
??_Gi3MemoryPool@@UAEPAXI@Z PROC			; i3MemoryPool::`scalar deleting destructor', COMDAT
; _this$ = ecx
  00000	55		 push	 ebp
  00001	8b ec		 mov	 ebp, esp
  00003	56		 push	 esi
  00004	8b f1		 mov	 esi, ecx
  00006	e8 00 00 00 00	 call	 ??1i3MemoryPool@@UAE@XZ	; i3MemoryPool::~i3MemoryPool
  0000b	f6 45 08 01	 test	 BYTE PTR ___flags$[ebp], 1
  0000f	74 0b		 je	 SHORT $LN5@scalar
  00011	6a 04		 push	 4
  00013	56		 push	 esi
  00014	e8 00 00 00 00	 call	 ??3@YAXPAXI@Z		; operator delete
  00019	83 c4 08	 add	 esp, 8
$LN5@scalar:
  0001c	8b c6		 mov	 eax, esi
  0001e	5e		 pop	 esi
  0001f	5d		 pop	 ebp
  00020	c2 04 00	 ret	 4
??_Gi3MemoryPool@@UAEPAXI@Z ENDP			; i3MemoryPool::`scalar deleting destructor'
_TEXT	ENDS
; Function compile flags: /Ogtp
;	COMDAT ??4i3MemoryPool@@QAEAAV0@ABV0@@Z
_TEXT	SEGMENT
___that$ = 8						; size = 4
??4i3MemoryPool@@QAEAAV0@ABV0@@Z PROC			; i3MemoryPool::operator=, COMDAT
; _this$ = ecx
  00000	8b c1		 mov	 eax, ecx
  00002	c2 04 00	 ret	 4
??4i3MemoryPool@@QAEAAV0@ABV0@@Z ENDP			; i3MemoryPool::operator=
_TEXT	ENDS
; Function compile flags: /Ogtp
;	COMDAT ??0i3MemoryPool@@QAE@ABV0@@Z
_TEXT	SEGMENT
___that$ = 8						; size = 4
??0i3MemoryPool@@QAE@ABV0@@Z PROC			; i3MemoryPool::i3MemoryPool, COMDAT
; _this$ = ecx
  00000	c7 01 00 00 00
	00		 mov	 DWORD PTR [ecx], OFFSET ??_7i3MemoryPool@@6B@
  00006	8b c1		 mov	 eax, ecx
  00008	c2 04 00	 ret	 4
??0i3MemoryPool@@QAE@ABV0@@Z ENDP			; i3MemoryPool::i3MemoryPool
_TEXT	ENDS
; Function compile flags: /Ogtp
; File E:\Proyectos\JuegosOnlineproyectos\PB\pbblow\Piercing Blow Remake\i3Server\include\i3Base\i3CPUID.cpp
;	COMDAT ??_Ei3ElementBase@@UAEPAXI@Z
_TEXT	SEGMENT
__$EHRec$ = -12						; size = 12
___flags$ = 8						; size = 4
??_Ei3ElementBase@@UAEPAXI@Z PROC			; i3ElementBase::`vector deleting destructor', COMDAT
; _this$ = ecx
  00000	55		 push	 ebp
  00001	8b ec		 mov	 ebp, esp
  00003	6a ff		 push	 -1
  00005	68 00 00 00 00	 push	 __ehhandler$??_Ei3ElementBase@@UAEPAXI@Z
  0000a	64 a1 00 00 00
	00		 mov	 eax, DWORD PTR fs:0
  00010	50		 push	 eax
  00011	53		 push	 ebx
  00012	56		 push	 esi
  00013	57		 push	 edi
  00014	a1 00 00 00 00	 mov	 eax, DWORD PTR ___security_cookie
  00019	33 c5		 xor	 eax, ebp
  0001b	50		 push	 eax
  0001c	8d 45 f4	 lea	 eax, DWORD PTR __$EHRec$[ebp]
  0001f	64 a3 00 00 00
	00		 mov	 DWORD PTR fs:0, eax
  00025	8b f1		 mov	 esi, ecx
  00027	8b 5d 08	 mov	 ebx, DWORD PTR ___flags$[ebp]
  0002a	8b fb		 mov	 edi, ebx
  0002c	83 e7 01	 and	 edi, 1
  0002f	f6 c3 02	 test	 bl, 2
  00032	74 3f		 je	 SHORT $LN2@vector
  00034	68 00 00 00 00	 push	 OFFSET ??1i3ElementBase@@UAE@XZ ; i3ElementBase::~i3ElementBase
  00039	ff 76 fc	 push	 DWORD PTR [esi-4]
  0003c	8d 5e fc	 lea	 ebx, DWORD PTR [esi-4]
  0003f	6a 10		 push	 16			; 00000010H
  00041	56		 push	 esi
  00042	e8 00 00 00 00	 call	 ??_M@YGXPAXIIP6EX0@Z@Z
  00047	85 ff		 test	 edi, edi
  00049	74 12		 je	 SHORT $LN3@vector
  0004b	8b 0b		 mov	 ecx, DWORD PTR [ebx]
  0004d	c1 e1 04	 shl	 ecx, 4
  00050	83 c1 04	 add	 ecx, 4
  00053	51		 push	 ecx
  00054	53		 push	 ebx
  00055	e8 00 00 00 00	 call	 ??_V@YAXPAXI@Z		; operator delete[]
  0005a	83 c4 08	 add	 esp, 8
$LN3@vector:
  0005d	8b c3		 mov	 eax, ebx
  0005f	8b 4d f4	 mov	 ecx, DWORD PTR __$EHRec$[ebp]
  00062	64 89 0d 00 00
	00 00		 mov	 DWORD PTR fs:0, ecx
  00069	59		 pop	 ecx
  0006a	5f		 pop	 edi
  0006b	5e		 pop	 esi
  0006c	5b		 pop	 ebx
  0006d	8b e5		 mov	 esp, ebp
  0006f	5d		 pop	 ebp
  00070	c2 04 00	 ret	 4
$LN2@vector:
  00073	e8 00 00 00 00	 call	 ??1i3ElementBase@@UAE@XZ ; i3ElementBase::~i3ElementBase
  00078	85 ff		 test	 edi, edi
  0007a	74 1b		 je	 SHORT $LN6@vector
  0007c	f6 c3 04	 test	 bl, 4
  0007f	75 0b		 jne	 SHORT $LN5@vector
  00081	56		 push	 esi
  00082	e8 00 00 00 00	 call	 ??3i3ElementBase@@SAXPAX@Z ; i3ElementBase::operator delete
  00087	83 c4 04	 add	 esp, 4
  0008a	eb 0b		 jmp	 SHORT $LN6@vector
$LN5@vector:

  0008c	6a 10		 push	 16			; 00000010H
  0008e	56		 push	 esi
  0008f	e8 00 00 00 00	 call	 ??3@YAXPAXI@Z		; operator delete
  00094	83 c4 08	 add	 esp, 8
$LN6@vector:
  00097	8b c6		 mov	 eax, esi
  00099	8b 4d f4	 mov	 ecx, DWORD PTR __$EHRec$[ebp]
  0009c	64 89 0d 00 00
	00 00		 mov	 DWORD PTR fs:0, ecx
  000a3	59		 pop	 ecx
  000a4	5f		 pop	 edi
  000a5	5e		 pop	 esi
  000a6	5b		 pop	 ebx
  000a7	8b e5		 mov	 esp, ebp
  000a9	5d		 pop	 ebp
  000aa	c2 04 00	 ret	 4
  000ad	cc		 int	 3
  000ae	cc		 int	 3
  000af	cc		 int	 3
  000b0	cc		 int	 3
  000b1	cc		 int	 3
_TEXT	ENDS
;	COMDAT text$x
text$x	SEGMENT
__ehhandler$??_Ei3ElementBase@@UAEPAXI@Z:
  00000	90		 npad	 1
  00001	90		 npad	 1
  00002	8b 54 24 08	 mov	 edx, DWORD PTR [esp+8]
  00006	8d 42 0c	 lea	 eax, DWORD PTR [edx+12]
  00009	8b 4a f0	 mov	 ecx, DWORD PTR [edx-16]
  0000c	33 c8		 xor	 ecx, eax
  0000e	e8 00 00 00 00	 call	 @__security_check_cookie@4
  00013	b8 00 00 00 00	 mov	 eax, OFFSET __ehfuncinfo$??_Ei3ElementBase@@UAEPAXI@Z
  00018	e9 00 00 00 00	 jmp	 ___CxxFrameHandler3
text$x	ENDS
??_Ei3ElementBase@@UAEPAXI@Z ENDP			; i3ElementBase::`vector deleting destructor'
; Function compile flags: /Ogtp
; File E:\Proyectos\JuegosOnlineproyectos\PB\pbblow\Piercing Blow Remake\i3Server\include\i3Base\i3CPUID.cpp
;	COMDAT ??_Gi3ElementBase@@UAEPAXI@Z
_TEXT	SEGMENT
___flags$ = 8						; size = 4
??_Gi3ElementBase@@UAEPAXI@Z PROC			; i3ElementBase::`scalar deleting destructor', COMDAT
; _this$ = ecx
  00000	55		 push	 ebp
  00001	8b ec		 mov	 ebp, esp
  00003	56		 push	 esi
  00004	8b f1		 mov	 esi, ecx
  00006	e8 00 00 00 00	 call	 ??1i3ElementBase@@UAE@XZ ; i3ElementBase::~i3ElementBase
  0000b	8b 45 08	 mov	 eax, DWORD PTR ___flags$[ebp]
  0000e	a8 01		 test	 al, 1
  00010	74 1f		 je	 SHORT $LN10@scalar
  00012	a8 04		 test	 al, 4
  00014	75 10		 jne	 SHORT $LN3@scalar
  00016	56		 push	 esi
  00017	e8 00 00 00 00	 call	 ??3i3ElementBase@@SAXPAX@Z ; i3ElementBase::operator delete
  0001c	83 c4 04	 add	 esp, 4
  0001f	8b c6		 mov	 eax, esi
  00021	5e		 pop	 esi
  00022	5d		 pop	 ebp
  00023	c2 04 00	 ret	 4
$LN3@scalar:

  00026	6a 10		 push	 16			; 00000010H
  00028	56		 push	 esi
  00029	e8 00 00 00 00	 call	 ??3@YAXPAXI@Z		; operator delete
  0002e	83 c4 08	 add	 esp, 8
$LN10@scalar:
  00031	8b c6		 mov	 eax, esi
  00033	5e		 pop	 esi
  00034	5d		 pop	 ebp
  00035	c2 04 00	 ret	 4
??_Gi3ElementBase@@UAEPAXI@Z ENDP			; i3ElementBase::`scalar deleting destructor'
_TEXT	ENDS
; Function compile flags: /Ogtp
;	COMDAT ??4i3ElementBase@@QAEAAV0@ABV0@@Z
_TEXT	SEGMENT
___that$ = 8						; size = 4
??4i3ElementBase@@QAEAAV0@ABV0@@Z PROC			; i3ElementBase::operator=, COMDAT
; _this$ = ecx
  00000	55		 push	 ebp
  00001	8b ec		 mov	 ebp, esp
  00003	8b 55 08	 mov	 edx, DWORD PTR ___that$[ebp]
  00006	8b 42 04	 mov	 eax, DWORD PTR [edx+4]
  00009	89 41 04	 mov	 DWORD PTR [ecx+4], eax
  0000c	8b 42 08	 mov	 eax, DWORD PTR [edx+8]
  0000f	89 41 08	 mov	 DWORD PTR [ecx+8], eax
  00012	8b 42 0c	 mov	 eax, DWORD PTR [edx+12]
  00015	89 41 0c	 mov	 DWORD PTR [ecx+12], eax
  00018	8b c1		 mov	 eax, ecx
  0001a	5d		 pop	 ebp
  0001b	c2 04 00	 ret	 4
??4i3ElementBase@@QAEAAV0@ABV0@@Z ENDP			; i3ElementBase::operator=
_TEXT	ENDS
; Function compile flags: /Ogtp
;	COMDAT ??0i3ElementBase@@QAE@ABV0@@Z
_TEXT	SEGMENT
___that$ = 8						; size = 4
??0i3ElementBase@@QAE@ABV0@@Z PROC			; i3ElementBase::i3ElementBase, COMDAT
; _this$ = ecx
  00000	55		 push	 ebp
  00001	8b ec		 mov	 ebp, esp
  00003	8b 55 08	 mov	 edx, DWORD PTR ___that$[ebp]
  00006	c7 01 00 00 00
	00		 mov	 DWORD PTR [ecx], OFFSET ??_7i3ElementBase@@6B@
  0000c	8b 42 04	 mov	 eax, DWORD PTR [edx+4]
  0000f	89 41 04	 mov	 DWORD PTR [ecx+4], eax
  00012	8b 42 08	 mov	 eax, DWORD PTR [edx+8]
  00015	89 41 08	 mov	 DWORD PTR [ecx+8], eax
  00018	8b 42 0c	 mov	 eax, DWORD PTR [edx+12]
  0001b	89 41 0c	 mov	 DWORD PTR [ecx+12], eax
  0001e	8b c1		 mov	 eax, ecx
  00020	5d		 pop	 ebp
  00021	c2 04 00	 ret	 4
??0i3ElementBase@@QAE@ABV0@@Z ENDP			; i3ElementBase::i3ElementBase
_TEXT	ENDS
; Function compile flags: /Ogtp
; File E:\Proyectos\JuegosOnlineproyectos\PB\pbblow\Piercing Blow Remake\i3Server\include\i3Base\i3ElementBase.h
;	COMDAT ?_internal_SetRefCount@i3ElementBase@@QAEXH@Z
_TEXT	SEGMENT
_cnt$ = 8						; size = 4
?_internal_SetRefCount@i3ElementBase@@QAEXH@Z PROC	; i3ElementBase::_internal_SetRefCount, COMDAT
; _this$ = ecx

; 401  : 	{

  00000	55		 push	 ebp
  00001	8b ec		 mov	 ebp, esp

; 402  : 		m_RefCount = cnt;

  00003	8b 45 08	 mov	 eax, DWORD PTR _cnt$[ebp]
  00006	89 41 04	 mov	 DWORD PTR [ecx+4], eax

; 403  : 	}

  00009	5d		 pop	 ebp
  0000a	c2 04 00	 ret	 4
?_internal_SetRefCount@i3ElementBase@@QAEXH@Z ENDP	; i3ElementBase::_internal_SetRefCount
_TEXT	ENDS
; Function compile flags: /Ogtp
; File E:\Proyectos\JuegosOnlineproyectos\PB\pbblow\Piercing Blow Remake\i3Server\include\i3Base\i3ElementBase.h
;	COMDAT ?AddRef@i3ElementBase@@QAEHXZ
_TEXT	SEGMENT
?AddRef@i3ElementBase@@QAEHXZ PROC			; i3ElementBase::AddRef, COMDAT
; _this$ = ecx

; 392  : 		m_RefCount++;

  00000	ff 41 04	 inc	 DWORD PTR [ecx+4]

; 393  : 
; 394  : 		return m_RefCount;

  00003	8b 41 04	 mov	 eax, DWORD PTR [ecx+4]

; 395  : 	}

  00006	c3		 ret	 0
?AddRef@i3ElementBase@@QAEHXZ ENDP			; i3ElementBase::AddRef
_TEXT	ENDS
; Function compile flags: /Ogtp
; File E:\Proyectos\JuegosOnlineproyectos\PB\pbblow\Piercing Blow Remake\i3Server\include\i3Base\i3ElementBase.h
;	COMDAT ?IsTypeOf@i3ElementBase@@QAE_NPAVi3ClassMeta@@@Z
_TEXT	SEGMENT
_pMeta$ = 8						; size = 4
?IsTypeOf@i3ElementBase@@QAE_NPAVi3ClassMeta@@@Z PROC	; i3ElementBase::IsTypeOf, COMDAT
; _this$ = ecx

; 356  : 	{

  00000	55		 push	 ebp
  00001	8b ec		 mov	 ebp, esp

; 357  : 		return GetMeta()->IsTypeOf( pMeta);

  00003	8b 01		 mov	 eax, DWORD PTR [ecx]
  00005	ff 75 08	 push	 DWORD PTR _pMeta$[ebp]
  00008	ff 10		 call	 DWORD PTR [eax]
  0000a	8b c8		 mov	 ecx, eax
  0000c	e8 00 00 00 00	 call	 ?IsTypeOf@i3ClassMeta@@QAE_NPAV1@@Z ; i3ClassMeta::IsTypeOf

; 358  : 	}

  00011	5d		 pop	 ebp
  00012	c2 04 00	 ret	 4
?IsTypeOf@i3ElementBase@@QAE_NPAVi3ClassMeta@@@Z ENDP	; i3ElementBase::IsTypeOf
_TEXT	ENDS
; Function compile flags: /Ogtp
; File E:\Proyectos\JuegosOnlineproyectos\PB\pbblow\Piercing Blow Remake\i3Server\include\i3Base\i3ElementBase.h
; File E:\Proyectos\JuegosOnlineproyectos\PB\pbblow\Piercing Blow Remake\i3Server\include\i3Base\i3ClassMeta.h
; File E:\Proyectos\JuegosOnlineproyectos\PB\pbblow\Piercing Blow Remake\i3Server\include\i3Base\i3ElementBase.h
;	COMDAT ?IsExactTypeOf@i3ElementBase@@QAE_NPAVi3ClassMeta@@@Z
_TEXT	SEGMENT
_pMeta$ = 8						; size = 4
?IsExactTypeOf@i3ElementBase@@QAE_NPAVi3ClassMeta@@@Z PROC ; i3ElementBase::IsExactTypeOf, COMDAT
; _this$ = ecx

; 351  : 	{

  00000	55		 push	 ebp
  00001	8b ec		 mov	 ebp, esp

; 352  : 		return GetMeta()->IsExactTypeOf( pMeta);

  00003	8b 01		 mov	 eax, DWORD PTR [ecx]
  00005	ff 10		 call	 DWORD PTR [eax]
; File E:\Proyectos\JuegosOnlineproyectos\PB\pbblow\Piercing Blow Remake\i3Server\include\i3Base\i3ClassMeta.h

; 90   : 		return pMeta == this;

  00007	39 45 08	 cmp	 DWORD PTR _pMeta$[ebp], eax
  0000a	0f 94 c0	 sete	 al
; File E:\Proyectos\JuegosOnlineproyectos\PB\pbblow\Piercing Blow Remake\i3Server\include\i3Base\i3ElementBase.h

; 353  : 	}

  0000d	5d		 pop	 ebp
  0000e	c2 04 00	 ret	 4
?IsExactTypeOf@i3ElementBase@@QAE_NPAVi3ClassMeta@@@Z ENDP ; i3ElementBase::IsExactTypeOf
_TEXT	ENDS
; Function compile flags: /Ogtp
; File E:\Proyectos\JuegosOnlineproyectos\PB\pbblow\Piercing Blow Remake\i3Server\include\i3Base\i3ElementBase.h
;	COMDAT ?__GetMemoryPool@i3ElementBase@@QAEPAVi3MemoryPool@@XZ
_TEXT	SEGMENT
?__GetMemoryPool@i3ElementBase@@QAEPAVi3MemoryPool@@XZ PROC ; i3ElementBase::__GetMemoryPool, COMDAT
; _this$ = ecx

; 348  : 	i3MemoryPool *	__GetMemoryPool(void)							{ return m_pPool; }

  00000	8b 41 0c	 mov	 eax, DWORD PTR [ecx+12]
  00003	c3		 ret	 0
?__GetMemoryPool@i3ElementBase@@QAEPAVi3MemoryPool@@XZ ENDP ; i3ElementBase::__GetMemoryPool
_TEXT	ENDS
; Function compile flags: /Ogtp
; File E:\Proyectos\JuegosOnlineproyectos\PB\pbblow\Piercing Blow Remake\i3Server\include\i3Base\i3ElementBase.h
;	COMDAT ?__SetMemoryPool@i3ElementBase@@QAEXPAVi3MemoryPool@@@Z
_TEXT	SEGMENT
_pPool$ = 8						; size = 4
?__SetMemoryPool@i3ElementBase@@QAEXPAVi3MemoryPool@@@Z PROC ; i3ElementBase::__SetMemoryPool, COMDAT
; _this$ = ecx

; 347  : 	void			__SetMemoryPool( i3MemoryPool * pPool)			{ m_pPool = pPool; }

  00000	55		 push	 ebp
  00001	8b ec		 mov	 ebp, esp
  00003	8b 45 08	 mov	 eax, DWORD PTR _pPool$[ebp]
  00006	89 41 0c	 mov	 DWORD PTR [ecx+12], eax
  00009	5d		 pop	 ebp
  0000a	c2 04 00	 ret	 4
?__SetMemoryPool@i3ElementBase@@QAEXPAVi3MemoryPool@@@Z ENDP ; i3ElementBase::__SetMemoryPool
_TEXT	ENDS
; Function compile flags: /Ogtp
; File E:\Proyectos\JuegosOnlineproyectos\PB\pbblow\Piercing Blow Remake\i3Server\include\i3Base\i3ElementBase.h
;	COMDAT ?GetRefCount@i3ElementBase@@QAEHXZ
_TEXT	SEGMENT
?GetRefCount@i3ElementBase@@QAEHXZ PROC			; i3ElementBase::GetRefCount, COMDAT
; _this$ = ecx

; 344  : 		return m_RefCount;

  00000	8b 41 04	 mov	 eax, DWORD PTR [ecx+4]

; 345  : 	}

  00003	c3		 ret	 0
?GetRefCount@i3ElementBase@@QAEHXZ ENDP			; i3ElementBase::GetRefCount
_TEXT	ENDS
; Function compile flags: /Ogtp
; File E:\Proyectos\JuegosOnlineproyectos\PB\pbblow\Piercing Blow Remake\i3Server\include\i3Base\i3ElementBase.h
;	COMDAT ?GetClassMeta@i3ElementBase@@SAPAVi3ClassMeta@@XZ
_TEXT	SEGMENT
?GetClassMeta@i3ElementBase@@SAPAVi3ClassMeta@@XZ PROC	; i3ElementBase::GetClassMeta, COMDAT

; 314  : 	I3_ABSTRACT_CLASS_DEFINE( i3ElementBase);

  00000	a1 00 00 00 00	 mov	 eax, DWORD PTR ?s_pClassMetai3ElementBase@i3ElementBase@@2PAVi3ClassMeta@@A ; i3ElementBase::s_pClassMetai3ElementBase
  00005	c3		 ret	 0
?GetClassMeta@i3ElementBase@@SAPAVi3ClassMeta@@XZ ENDP	; i3ElementBase::GetClassMeta
_TEXT	ENDS
; Function compile flags: /Ogtp
;	COMDAT ??_Ei3ClassMeta@@UAEPAXI@Z
_TEXT	SEGMENT
__$EHRec$ = -12						; size = 12
___flags$ = 8						; size = 4
??_Ei3ClassMeta@@UAEPAXI@Z PROC				; i3ClassMeta::`vector deleting destructor', COMDAT
; _this$ = ecx
  00000	55		 push	 ebp
  00001	8b ec		 mov	 ebp, esp
  00003	6a ff		 push	 -1
  00005	68 00 00 00 00	 push	 __ehhandler$??_Ei3ClassMeta@@UAEPAXI@Z
  0000a	64 a1 00 00 00
	00		 mov	 eax, DWORD PTR fs:0
  00010	50		 push	 eax
  00011	53		 push	 ebx
  00012	56		 push	 esi
  00013	57		 push	 edi
  00014	a1 00 00 00 00	 mov	 eax, DWORD PTR ___security_cookie
  00019	33 c5		 xor	 eax, ebp
  0001b	50		 push	 eax
  0001c	8d 45 f4	 lea	 eax, DWORD PTR __$EHRec$[ebp]
  0001f	64 a3 00 00 00
	00		 mov	 DWORD PTR fs:0, eax
  00025	8b f1		 mov	 esi, ecx
  00027	8b 45 08	 mov	 eax, DWORD PTR ___flags$[ebp]
  0002a	8b f8		 mov	 edi, eax
  0002c	83 e7 01	 and	 edi, 1
  0002f	a8 02		 test	 al, 2
  00031	74 49		 je	 SHORT $LN2@vector
  00033	68 00 00 00 00	 push	 OFFSET ??1i3ClassMeta@@UAE@XZ ; i3ClassMeta::~i3ClassMeta
  00038	ff 76 fc	 push	 DWORD PTR [esi-4]
  0003b	8d 5e fc	 lea	 ebx, DWORD PTR [esi-4]
  0003e	6a 38		 push	 56			; 00000038H
  00040	56		 push	 esi
  00041	e8 00 00 00 00	 call	 ??_M@YGXPAXIIP6EX0@Z@Z
  00046	85 ff		 test	 edi, edi
  00048	74 1c		 je	 SHORT $LN3@vector
  0004a	8b 0b		 mov	 ecx, DWORD PTR [ebx]
  0004c	8d 14 cd 00 00
	00 00		 lea	 edx, DWORD PTR [ecx*8]
  00053	2b d1		 sub	 edx, ecx
  00055	8d 0c d5 04 00
	00 00		 lea	 ecx, DWORD PTR [edx*8+4]
  0005c	51		 push	 ecx
  0005d	53		 push	 ebx
  0005e	e8 00 00 00 00	 call	 ??_V@YAXPAXI@Z		; operator delete[]
  00063	83 c4 08	 add	 esp, 8
$LN3@vector:
  00066	8b c3		 mov	 eax, ebx
  00068	8b 4d f4	 mov	 ecx, DWORD PTR __$EHRec$[ebp]
  0006b	64 89 0d 00 00
	00 00		 mov	 DWORD PTR fs:0, ecx
  00072	59		 pop	 ecx
  00073	5f		 pop	 edi
  00074	5e		 pop	 esi
  00075	5b		 pop	 ebx
  00076	8b e5		 mov	 esp, ebp
  00078	5d		 pop	 ebp
  00079	c2 04 00	 ret	 4
$LN2@vector:
  0007c	e8 00 00 00 00	 call	 ??1i3ClassMeta@@UAE@XZ	; i3ClassMeta::~i3ClassMeta
  00081	85 ff		 test	 edi, edi
  00083	74 0b		 je	 SHORT $LN4@vector
  00085	6a 38		 push	 56			; 00000038H
  00087	56		 push	 esi
  00088	e8 00 00 00 00	 call	 ??3@YAXPAXI@Z		; operator delete
  0008d	83 c4 08	 add	 esp, 8
$LN4@vector:
  00090	8b c6		 mov	 eax, esi
  00092	8b 4d f4	 mov	 ecx, DWORD PTR __$EHRec$[ebp]
  00095	64 89 0d 00 00
	00 00		 mov	 DWORD PTR fs:0, ecx
  0009c	59		 pop	 ecx
  0009d	5f		 pop	 edi
  0009e	5e		 pop	 esi
  0009f	5b		 pop	 ebx
  000a0	8b e5		 mov	 esp, ebp
  000a2	5d		 pop	 ebp
  000a3	c2 04 00	 ret	 4
  000a6	cc		 int	 3
  000a7	cc		 int	 3
  000a8	cc		 int	 3
  000a9	cc		 int	 3
  000aa	cc		 int	 3
_TEXT	ENDS
;	COMDAT text$x
text$x	SEGMENT
__ehhandler$??_Ei3ClassMeta@@UAEPAXI@Z:
  00000	90		 npad	 1
  00001	90		 npad	 1
  00002	8b 54 24 08	 mov	 edx, DWORD PTR [esp+8]
  00006	8d 42 0c	 lea	 eax, DWORD PTR [edx+12]
  00009	8b 4a f0	 mov	 ecx, DWORD PTR [edx-16]
  0000c	33 c8		 xor	 ecx, eax
  0000e	e8 00 00 00 00	 call	 @__security_check_cookie@4
  00013	b8 00 00 00 00	 mov	 eax, OFFSET __ehfuncinfo$??_Ei3ClassMeta@@UAEPAXI@Z
  00018	e9 00 00 00 00	 jmp	 ___CxxFrameHandler3
text$x	ENDS
??_Ei3ClassMeta@@UAEPAXI@Z ENDP				; i3ClassMeta::`vector deleting destructor'
; Function compile flags: /Ogtp
;	COMDAT ??_Gi3ClassMeta@@UAEPAXI@Z
_TEXT	SEGMENT
___flags$ = 8						; size = 4
??_Gi3ClassMeta@@UAEPAXI@Z PROC				; i3ClassMeta::`scalar deleting destructor', COMDAT
; _this$ = ecx
  00000	55		 push	 ebp
  00001	8b ec		 mov	 ebp, esp
  00003	56		 push	 esi
  00004	8b f1		 mov	 esi, ecx
  00006	e8 00 00 00 00	 call	 ??1i3ClassMeta@@UAE@XZ	; i3ClassMeta::~i3ClassMeta
  0000b	f6 45 08 01	 test	 BYTE PTR ___flags$[ebp], 1
  0000f	74 0b		 je	 SHORT $LN5@scalar
  00011	6a 38		 push	 56			; 00000038H
  00013	56		 push	 esi
  00014	e8 00 00 00 00	 call	 ??3@YAXPAXI@Z		; operator delete
  00019	83 c4 08	 add	 esp, 8
$LN5@scalar:
  0001c	8b c6		 mov	 eax, esi
  0001e	5e		 pop	 esi
  0001f	5d		 pop	 ebp
  00020	c2 04 00	 ret	 4
??_Gi3ClassMeta@@UAEPAXI@Z ENDP				; i3ClassMeta::`scalar deleting destructor'
_TEXT	ENDS
; Function compile flags: /Ogtp
;	COMDAT ??4i3ClassMeta@@QAEAAV0@ABV0@@Z
_TEXT	SEGMENT
___that$ = 8						; size = 4
??4i3ClassMeta@@QAEAAV0@ABV0@@Z PROC			; i3ClassMeta::operator=, COMDAT
; _this$ = ecx
  00000	55		 push	 ebp
  00001	8b ec		 mov	 ebp, esp
  00003	8b 55 08	 mov	 edx, DWORD PTR ___that$[ebp]
  00006	8b 42 04	 mov	 eax, DWORD PTR [edx+4]
  00009	89 41 04	 mov	 DWORD PTR [ecx+4], eax
  0000c	8b 42 08	 mov	 eax, DWORD PTR [edx+8]
  0000f	89 41 08	 mov	 DWORD PTR [ecx+8], eax
  00012	8b 42 0c	 mov	 eax, DWORD PTR [edx+12]
  00015	89 41 0c	 mov	 DWORD PTR [ecx+12], eax
  00018	8b 42 10	 mov	 eax, DWORD PTR [edx+16]
  0001b	89 41 10	 mov	 DWORD PTR [ecx+16], eax
  0001e	8b 42 14	 mov	 eax, DWORD PTR [edx+20]
  00021	89 41 14	 mov	 DWORD PTR [ecx+20], eax
  00024	8b 42 18	 mov	 eax, DWORD PTR [edx+24]
  00027	89 41 18	 mov	 DWORD PTR [ecx+24], eax
  0002a	8b 42 1c	 mov	 eax, DWORD PTR [edx+28]
  0002d	89 41 1c	 mov	 DWORD PTR [ecx+28], eax
  00030	8b 42 20	 mov	 eax, DWORD PTR [edx+32]
  00033	89 41 20	 mov	 DWORD PTR [ecx+32], eax
  00036	8b 42 24	 mov	 eax, DWORD PTR [edx+36]
  00039	89 41 24	 mov	 DWORD PTR [ecx+36], eax
  0003c	8b 42 28	 mov	 eax, DWORD PTR [edx+40]
  0003f	89 41 28	 mov	 DWORD PTR [ecx+40], eax
  00042	8b 42 2c	 mov	 eax, DWORD PTR [edx+44]
  00045	89 41 2c	 mov	 DWORD PTR [ecx+44], eax
  00048	8b 42 30	 mov	 eax, DWORD PTR [edx+48]
  0004b	89 41 30	 mov	 DWORD PTR [ecx+48], eax
  0004e	8b 42 34	 mov	 eax, DWORD PTR [edx+52]
  00051	89 41 34	 mov	 DWORD PTR [ecx+52], eax
  00054	8b c1		 mov	 eax, ecx
  00056	5d		 pop	 ebp
  00057	c2 04 00	 ret	 4
??4i3ClassMeta@@QAEAAV0@ABV0@@Z ENDP			; i3ClassMeta::operator=
_TEXT	ENDS
; Function compile flags: /Ogtp
;	COMDAT ??0i3ClassMeta@@QAE@ABV0@@Z
_TEXT	SEGMENT
___that$ = 8						; size = 4
??0i3ClassMeta@@QAE@ABV0@@Z PROC			; i3ClassMeta::i3ClassMeta, COMDAT
; _this$ = ecx
  00000	55		 push	 ebp
  00001	8b ec		 mov	 ebp, esp
  00003	8b 55 08	 mov	 edx, DWORD PTR ___that$[ebp]
  00006	c7 01 00 00 00
	00		 mov	 DWORD PTR [ecx], OFFSET ??_7i3ClassMeta@@6B@
  0000c	8b 42 04	 mov	 eax, DWORD PTR [edx+4]
  0000f	89 41 04	 mov	 DWORD PTR [ecx+4], eax
  00012	8b 42 08	 mov	 eax, DWORD PTR [edx+8]
  00015	89 41 08	 mov	 DWORD PTR [ecx+8], eax
  00018	8b 42 0c	 mov	 eax, DWORD PTR [edx+12]
  0001b	89 41 0c	 mov	 DWORD PTR [ecx+12], eax
  0001e	8b 42 10	 mov	 eax, DWORD PTR [edx+16]
  00021	89 41 10	 mov	 DWORD PTR [ecx+16], eax
  00024	8b 42 14	 mov	 eax, DWORD PTR [edx+20]
  00027	89 41 14	 mov	 DWORD PTR [ecx+20], eax
  0002a	8b 42 18	 mov	 eax, DWORD PTR [edx+24]
  0002d	89 41 18	 mov	 DWORD PTR [ecx+24], eax
  00030	8b 42 1c	 mov	 eax, DWORD PTR [edx+28]
  00033	89 41 1c	 mov	 DWORD PTR [ecx+28], eax
  00036	8b 42 20	 mov	 eax, DWORD PTR [edx+32]
  00039	89 41 20	 mov	 DWORD PTR [ecx+32], eax
  0003c	8b 42 24	 mov	 eax, DWORD PTR [edx+36]
  0003f	89 41 24	 mov	 DWORD PTR [ecx+36], eax
  00042	8b 42 28	 mov	 eax, DWORD PTR [edx+40]
  00045	89 41 28	 mov	 DWORD PTR [ecx+40], eax
  00048	8b 42 2c	 mov	 eax, DWORD PTR [edx+44]
  0004b	89 41 2c	 mov	 DWORD PTR [ecx+44], eax
  0004e	8b 42 30	 mov	 eax, DWORD PTR [edx+48]
  00051	89 41 30	 mov	 DWORD PTR [ecx+48], eax
  00054	8b 42 34	 mov	 eax, DWORD PTR [edx+52]
  00057	89 41 34	 mov	 DWORD PTR [ecx+52], eax
  0005a	8b c1		 mov	 eax, ecx
  0005c	5d		 pop	 ebp
  0005d	c2 04 00	 ret	 4
??0i3ClassMeta@@QAE@ABV0@@Z ENDP			; i3ClassMeta::i3ClassMeta
_TEXT	ENDS
; Function compile flags: /Ogtp
; File E:\Proyectos\JuegosOnlineproyectos\PB\pbblow\Piercing Blow Remake\i3Server\include\i3Base\i3ClassMeta.h
;	COMDAT ?getHashCode@i3ClassMeta@@QAEIXZ
_TEXT	SEGMENT
?getHashCode@i3ClassMeta@@QAEIXZ PROC			; i3ClassMeta::getHashCode, COMDAT
; _this$ = ecx

; 112  : 	UINT32			getHashCode(void)						{ return m_HashCode; }

  00000	8b 41 18	 mov	 eax, DWORD PTR [ecx+24]
  00003	c3		 ret	 0
?getHashCode@i3ClassMeta@@QAEIXZ ENDP			; i3ClassMeta::getHashCode
_TEXT	ENDS
; Function compile flags: /Ogtp
; File E:\Proyectos\JuegosOnlineproyectos\PB\pbblow\Piercing Blow Remake\i3Server\include\i3Base\i3ClassMeta.h
;	COMDAT ?GetBaseClassMeta@i3ClassMeta@@QAEPAV1@XZ
_TEXT	SEGMENT
?GetBaseClassMeta@i3ClassMeta@@QAEPAV1@XZ PROC		; i3ClassMeta::GetBaseClassMeta, COMDAT
; _this$ = ecx

; 107  : 	i3ClassMeta *	GetBaseClassMeta(void)					{ return m_pBaseClass; }

  00000	8b 41 1c	 mov	 eax, DWORD PTR [ecx+28]
  00003	c3		 ret	 0
?GetBaseClassMeta@i3ClassMeta@@QAEPAV1@XZ ENDP		; i3ClassMeta::GetBaseClassMeta
_TEXT	ENDS
; Function compile flags: /Ogtp
; File E:\Proyectos\JuegosOnlineproyectos\PB\pbblow\Piercing Blow Remake\i3Server\include\i3Base\i3ClassMeta.h
;	COMDAT ?IsConcreteClass@i3ClassMeta@@QAEHXZ
_TEXT	SEGMENT
?IsConcreteClass@i3ClassMeta@@QAEHXZ PROC		; i3ClassMeta::IsConcreteClass, COMDAT
; _this$ = ecx

; 102  : 	BOOL			IsStyle( UINT32 style)					{ return (m_Style & style) == style; }

  00000	8b 41 14	 mov	 eax, DWORD PTR [ecx+20]
  00003	d1 e8		 shr	 eax, 1
  00005	83 e0 01	 and	 eax, 1

; 105  : 	BOOL			IsConcreteClass(void)					{ return IsStyle( I3_CLASSMETA_STYLE_CONCRETE); }

  00008	c3		 ret	 0
?IsConcreteClass@i3ClassMeta@@QAEHXZ ENDP		; i3ClassMeta::IsConcreteClass
_TEXT	ENDS
; Function compile flags: /Ogtp
; File E:\Proyectos\JuegosOnlineproyectos\PB\pbblow\Piercing Blow Remake\i3Server\include\i3Base\i3ClassMeta.h
;	COMDAT ?IsAbstractClass@i3ClassMeta@@QAEHXZ
_TEXT	SEGMENT
?IsAbstractClass@i3ClassMeta@@QAEHXZ PROC		; i3ClassMeta::IsAbstractClass, COMDAT
; _this$ = ecx

; 102  : 	BOOL			IsStyle( UINT32 style)					{ return (m_Style & style) == style; }

  00000	8b 41 14	 mov	 eax, DWORD PTR [ecx+20]
  00003	83 e0 01	 and	 eax, 1

; 104  : 	BOOL			IsAbstractClass(void)					{ return IsStyle( I3_CLASSMETA_STYLE_ABSTRACT); }

  00006	c3		 ret	 0
?IsAbstractClass@i3ClassMeta@@QAEHXZ ENDP		; i3ClassMeta::IsAbstractClass
_TEXT	ENDS
; Function compile flags: /Ogtp
; File E:\Proyectos\JuegosOnlineproyectos\PB\pbblow\Piercing Blow Remake\i3Server\include\i3Base\i3ClassMeta.h
;	COMDAT ?IsStyle@i3ClassMeta@@QAEHI@Z
_TEXT	SEGMENT
_style$ = 8						; size = 4
?IsStyle@i3ClassMeta@@QAEHI@Z PROC			; i3ClassMeta::IsStyle, COMDAT
; _this$ = ecx

; 102  : 	BOOL			IsStyle( UINT32 style)					{ return (m_Style & style) == style; }

  00000	55		 push	 ebp
  00001	8b ec		 mov	 ebp, esp
  00003	8b 51 14	 mov	 edx, DWORD PTR [ecx+20]
  00006	33 c0		 xor	 eax, eax
  00008	23 55 08	 and	 edx, DWORD PTR _style$[ebp]
  0000b	3b 55 08	 cmp	 edx, DWORD PTR _style$[ebp]
  0000e	0f 94 c0	 sete	 al
  00011	5d		 pop	 ebp
  00012	c2 04 00	 ret	 4
?IsStyle@i3ClassMeta@@QAEHI@Z ENDP			; i3ClassMeta::IsStyle
_TEXT	ENDS
; Function compile flags: /Ogtp
; File E:\Proyectos\JuegosOnlineproyectos\PB\pbblow\Piercing Blow Remake\i3Server\include\i3Base\i3ClassMeta.h
;	COMDAT ?RemoveStyle@i3ClassMeta@@QAEXI@Z
_TEXT	SEGMENT
_style$ = 8						; size = 4
?RemoveStyle@i3ClassMeta@@QAEXI@Z PROC			; i3ClassMeta::RemoveStyle, COMDAT
; _this$ = ecx

; 101  : 	void			RemoveStyle( UINT32 style)				{ m_Style &= ~style; }

  00000	55		 push	 ebp
  00001	8b ec		 mov	 ebp, esp
  00003	8b 45 08	 mov	 eax, DWORD PTR _style$[ebp]
  00006	f7 d0		 not	 eax
  00008	21 41 14	 and	 DWORD PTR [ecx+20], eax
  0000b	5d		 pop	 ebp
  0000c	c2 04 00	 ret	 4
?RemoveStyle@i3ClassMeta@@QAEXI@Z ENDP			; i3ClassMeta::RemoveStyle
_TEXT	ENDS
; Function compile flags: /Ogtp
; File E:\Proyectos\JuegosOnlineproyectos\PB\pbblow\Piercing Blow Remake\i3Server\include\i3Base\i3ClassMeta.h
;	COMDAT ?AddStyle@i3ClassMeta@@QAEXI@Z
_TEXT	SEGMENT
_style$ = 8						; size = 4
?AddStyle@i3ClassMeta@@QAEXI@Z PROC			; i3ClassMeta::AddStyle, COMDAT
; _this$ = ecx

; 100  : 	void			AddStyle( UINT32 style)					{ m_Style |= style; }

  00000	55		 push	 ebp
  00001	8b ec		 mov	 ebp, esp
  00003	8b 45 08	 mov	 eax, DWORD PTR _style$[ebp]
  00006	09 41 14	 or	 DWORD PTR [ecx+20], eax
  00009	5d		 pop	 ebp
  0000a	c2 04 00	 ret	 4
?AddStyle@i3ClassMeta@@QAEXI@Z ENDP			; i3ClassMeta::AddStyle
_TEXT	ENDS
; Function compile flags: /Ogtp
; File E:\Proyectos\JuegosOnlineproyectos\PB\pbblow\Piercing Blow Remake\i3Server\include\i3Base\i3ClassMeta.h
;	COMDAT ?GetStyle@i3ClassMeta@@QAEIXZ
_TEXT	SEGMENT
?GetStyle@i3ClassMeta@@QAEIXZ PROC			; i3ClassMeta::GetStyle, COMDAT
; _this$ = ecx

; 99   : 	UINT32			GetStyle(void)							{ return m_Style; }

  00000	8b 41 14	 mov	 eax, DWORD PTR [ecx+20]
  00003	c3		 ret	 0
?GetStyle@i3ClassMeta@@QAEIXZ ENDP			; i3ClassMeta::GetStyle
_TEXT	ENDS
; Function compile flags: /Ogtp
; File E:\Proyectos\JuegosOnlineproyectos\PB\pbblow\Piercing Blow Remake\i3Server\include\i3Base\i3ClassMeta.h
;	COMDAT ?SetStyle@i3ClassMeta@@QAEXI@Z
_TEXT	SEGMENT
_style$ = 8						; size = 4
?SetStyle@i3ClassMeta@@QAEXI@Z PROC			; i3ClassMeta::SetStyle, COMDAT
; _this$ = ecx

; 98   : 	void			SetStyle( UINT32 style)					{ m_Style = style; }

  00000	55		 push	 ebp
  00001	8b ec		 mov	 ebp, esp
  00003	8b 45 08	 mov	 eax, DWORD PTR _style$[ebp]
  00006	89 41 14	 mov	 DWORD PTR [ecx+20], eax
  00009	5d		 pop	 ebp
  0000a	c2 04 00	 ret	 4
?SetStyle@i3ClassMeta@@QAEXI@Z ENDP			; i3ClassMeta::SetStyle
_TEXT	ENDS
; Function compile flags: /Ogtp
; File E:\Proyectos\JuegosOnlineproyectos\PB\pbblow\Piercing Blow Remake\i3Server\include\i3Base\i3ClassMeta.h
;	COMDAT ?IsExactTypeOf@i3ClassMeta@@QAE_NPAV1@@Z
_TEXT	SEGMENT
_pMeta$ = 8						; size = 4
?IsExactTypeOf@i3ClassMeta@@QAE_NPAV1@@Z PROC		; i3ClassMeta::IsExactTypeOf, COMDAT
; _this$ = ecx

; 89   : 	{

  00000	55		 push	 ebp
  00001	8b ec		 mov	 ebp, esp

; 90   : 		return pMeta == this;

  00003	39 4d 08	 cmp	 DWORD PTR _pMeta$[ebp], ecx
  00006	0f 94 c0	 sete	 al

; 91   : 	}

  00009	5d		 pop	 ebp
  0000a	c2 04 00	 ret	 4
?IsExactTypeOf@i3ClassMeta@@QAE_NPAV1@@Z ENDP		; i3ClassMeta::IsExactTypeOf
_TEXT	ENDS
; Function compile flags: /Ogtp
; File E:\Proyectos\JuegosOnlineproyectos\PB\pbblow\Piercing Blow Remake\i3Server\include\i3Base\i3ClassMeta.h
;	COMDAT ?GetClassNameA@i3ClassMeta@@QAEPADXZ
_TEXT	SEGMENT
?GetClassNameA@i3ClassMeta@@QAEPADXZ PROC		; i3ClassMeta::GetClassNameA, COMDAT
; _this$ = ecx

; 83   : 		return m_pszClassName;

  00000	8b 41 0c	 mov	 eax, DWORD PTR [ecx+12]

; 84   : 	}

  00003	c3		 ret	 0
?GetClassNameA@i3ClassMeta@@QAEPADXZ ENDP		; i3ClassMeta::GetClassNameA
_TEXT	ENDS
; Function compile flags: /Ogtp
; File E:\Proyectos\JuegosOnlineproyectos\PB\pbblow\Piercing Blow Remake\i3Server\include\i3Base\i3ClassMeta.h
;	COMDAT ?GetClassSize@i3ClassMeta@@QAEIXZ
_TEXT	SEGMENT
?GetClassSize@i3ClassMeta@@QAEIXZ PROC			; i3ClassMeta::GetClassSize, COMDAT
; _this$ = ecx

; 78   : 		return m_ClassSize;

  00000	8b 41 08	 mov	 eax, DWORD PTR [ecx+8]

; 79   : 	}

  00003	c3		 ret	 0
?GetClassSize@i3ClassMeta@@QAEIXZ ENDP			; i3ClassMeta::GetClassSize
_TEXT	ENDS
; Function compile flags: /Ogtp
; File E:\Proyectos\JuegosOnlineproyectos\PB\pbblow\Piercing Blow Remake\i3Server\include\i3Base\i3ClassMeta.h
;	COMDAT ?SetMemoryPool@i3ClassMeta@@QAEXPAVi3MemoryPool@@@Z
_TEXT	SEGMENT
_pPool$ = 8						; size = 4
?SetMemoryPool@i3ClassMeta@@QAEXPAVi3MemoryPool@@@Z PROC ; i3ClassMeta::SetMemoryPool, COMDAT
; _this$ = ecx

; 66   : 	void			SetMemoryPool( i3MemoryPool * pPool)		{ m_pPool = pPool; }

  00000	55		 push	 ebp
  00001	8b ec		 mov	 ebp, esp
  00003	8b 45 08	 mov	 eax, DWORD PTR _pPool$[ebp]
  00006	89 41 34	 mov	 DWORD PTR [ecx+52], eax
  00009	5d		 pop	 ebp
  0000a	c2 04 00	 ret	 4
?SetMemoryPool@i3ClassMeta@@QAEXPAVi3MemoryPool@@@Z ENDP ; i3ClassMeta::SetMemoryPool
_TEXT	ENDS
; Function compile flags: /Ogtp
; File E:\Proyectos\JuegosOnlineproyectos\PB\pbblow\Piercing Blow Remake\i3Server\include\i3Base\i3ClassMeta.h
;	COMDAT ?GetMemoryPool@i3ClassMeta@@QAEPAVi3MemoryPool@@XZ
_TEXT	SEGMENT
?GetMemoryPool@i3ClassMeta@@QAEPAVi3MemoryPool@@XZ PROC	; i3ClassMeta::GetMemoryPool, COMDAT
; _this$ = ecx

; 65   : 	i3MemoryPool *	GetMemoryPool(void)							{ return m_pPool; }

  00000	8b 41 34	 mov	 eax, DWORD PTR [ecx+52]
  00003	c3		 ret	 0
?GetMemoryPool@i3ClassMeta@@QAEPAVi3MemoryPool@@XZ ENDP	; i3ClassMeta::GetMemoryPool
_TEXT	ENDS
; Function compile flags: /Ogtp
; File E:\Proyectos\JuegosOnlineproyectos\PB\pbblow\Piercing Blow Remake\i3Server\include\i3Base\i3CPUID.cpp
;	COMDAT ?i3CPUid@@YAHPAU_tagi3ProcessorInfo@@@Z
_TEXT	SEGMENT
_pInfo$ = 8						; size = 4
?i3CPUid@@YAHPAU_tagi3ProcessorInfo@@@Z PROC		; i3CPUid, COMDAT

; 285  :     //WCHAR32 dwStandard = 0;
; 286  :     //WCHAR32 dwFeature = 0;
; 287  :     //WCHAR32 dwMax = 0;
; 288  :     //WCHAR32 dwExt = 0;
; 289  :     INT32 feature = 0;
; 290  : //    INT32 os_support = 0;
; 291  : //    union {
; 292  : //        char cBuf[12+1];
; 293  : //        struct {
; 294  : //            WCHAR32 dw0;
; 295  : //            WCHAR32 dw1;
; 296  : //            WCHAR32 dw2;
; 297  : //        } s;
; 298  : //    } Ident;
; 299  : //
; 300  : //    if (!IsCPUID()) {
; 301  : //        return 0;
; 302  : //    }
; 303  : //
; 304  : //    _asm {
; 305  : //        push ebx
; 306  : //        push ecx
; 307  : //        push edx
; 308  : //
; 309  : //        // get the vendor string
; 310  : //        xor eax, eax
; 311  : //        cpuid
; 312  : //        mov dwMax, eax
; 313  : //        mov Ident.s.dw0, ebx
; 314  : //        mov Ident.s.dw1, edx
; 315  : //        mov Ident.s.dw2, ecx
; 316  : //
; 317  : //        // get the Standard bits
; 318  : //        mov eax, 1
; 319  : //        cpuid
; 320  : //        mov dwStandard, eax
; 321  : //        mov dwFeature, edx
; 322  : //
; 323  : //        // get AMD-specials
; 324  : //        mov eax, 80000000h
; 325  : //        cpuid
; 326  : //        cmp eax, 80000000h
; 327  : //        jc notamd
; 328  : //        mov eax, 80000001h
; 329  : //        cpuid
; 330  : //        mov dwExt, edx
; 331  : //
; 332  : //notamd:
; 333  : //        pop ecx
; 334  : //        pop ebx
; 335  : //        pop edx
; 336  : //    }
; 337  : //
; 338  : //    if (dwFeature & _MMX_FEATURE_BIT) {
; 339  : //        feature |= I3_CPU_FEATURE_MMX;
; 340  : //        if (_os_support(I3_CPU_FEATURE_MMX))
; 341  : //            os_support |= I3_CPU_FEATURE_MMX;
; 342  : //    }
; 343  : //    if (dwExt & _3DNOW_FEATURE_BIT) {
; 344  : //        feature |= I3_CPU_FEATURE_3DNOW;
; 345  : //        if (_os_support(I3_CPU_FEATURE_3DNOW))
; 346  : //            os_support |= I3_CPU_FEATURE_3DNOW;
; 347  : //    }
; 348  : //    if (dwFeature & _SSE_FEATURE_BIT) {
; 349  : //        feature |= I3_CPU_FEATURE_SSE;
; 350  : //        if (_os_support(I3_CPU_FEATURE_SSE))
; 351  : //            os_support |= I3_CPU_FEATURE_SSE;
; 352  : //    }
; 353  : //    if (dwFeature & _SSE2_FEATURE_BIT) {
; 354  : //        feature |= I3_CPU_FEATURE_SSE2;
; 355  : //        if (_os_support(I3_CPU_FEATURE_SSE2))
; 356  : //            os_support |= I3_CPU_FEATURE_SSE2;
; 357  : //    }
; 358  : //
; 359  : //    if (pInfo) {
; 360  : //        memset(pInfo, 0, sizeof(i3ProcessorInfo));
; 361  : //
; 362  : //        pInfo->os_support = os_support;
; 363  : //        pInfo->feature = feature;
; 364  : //        pInfo->family = (dwStandard >> 8) & 0xF; // retrieve family
; 365  : //        if (pInfo->family == 15) {               // retrieve extended family
; 366  : //            pInfo->family |= (dwStandard >> 16) & 0xFF0;
; 367  : //        }
; 368  : //        pInfo->model = (dwStandard >> 4) & 0xF;  // retrieve model
; 369  : //        if (pInfo->model == 15) {                // retrieve extended model
; 370  : //            pInfo->model |= (dwStandard >> 12) & 0xF;
; 371  : //        }
; 372  : //        pInfo->stepping = (dwStandard) & 0xF;    // retrieve stepping
; 373  : //
; 374  : //        Ident.cBuf[12] = 0;
; 375  : //        strcpy((char*)pInfo->v_name, Ident.cBuf);
; 376  : //
; 377  : //        map_mname(pInfo->family, 
; 378  : //                  pInfo->model,
; 379  : //                  (const char*)pInfo->v_name,
; 380  : //                  (char*)pInfo->model_name);
; 381  : //
; 382  : //        pInfo->checks = I3_CPU_FEATURE_MMX |
; 383  : //                        I3_CPU_FEATURE_SSE |
; 384  : //                        I3_CPU_FEATURE_SSE2 |
; 385  : //                        I3_CPU_FEATURE_3DNOW;
; 386  : //
; 387  : //		pInfo->clockspeed = calculateMHz();
; 388  : //    }
; 389  : 
; 390  :     return feature;

  00000	33 c0		 xor	 eax, eax

; 391  : }

  00002	c3		 ret	 0
?i3CPUid@@YAHPAU_tagi3ProcessorInfo@@@Z ENDP		; i3CPUid
_TEXT	ENDS
; Function compile flags: /Ogtp
; File E:\Proyectos\JuegosOnlineproyectos\PB\pbblow\Piercing Blow Remake\i3Server\include\i3Base\i3CPUID.cpp
;	COMDAT ?__global_array_delete@@YAXPAXI@Z
_TEXT	SEGMENT
_p$ = 8							; size = 4
_sz$ = 12						; size = 4
?__global_array_delete@@YAXPAXI@Z PROC			; __global_array_delete, COMDAT

  00000	e9 00 00 00 00	 jmp	 ??_V@YAXPAXI@Z		; operator delete[]
?__global_array_delete@@YAXPAXI@Z ENDP			; __global_array_delete
_TEXT	ENDS
; Function compile flags: /Ogtp
; File E:\Proyectos\JuegosOnlineproyectos\PB\pbblow\Piercing Blow Remake\i3Server\include\i3Base\i3CPUID.cpp
;	COMDAT ?__global_array_delete@@YAXPAX@Z
_TEXT	SEGMENT
_p$ = 8							; size = 4
?__global_array_delete@@YAXPAX@Z PROC			; __global_array_delete, COMDAT

  00000	e9 00 00 00 00	 jmp	 ??_V@YAXPAX@Z		; operator delete[]
?__global_array_delete@@YAXPAX@Z ENDP			; __global_array_delete
_TEXT	ENDS
; Function compile flags: /Ogtp
; File E:\Proyectos\JuegosOnlineproyectos\PB\pbblow\Piercing Blow Remake\i3Server\include\i3Base\i3CPUID.cpp
;	COMDAT ?__global_delete@@YAXPAXI@Z
_TEXT	SEGMENT
_p$ = 8							; size = 4
_sz$ = 12						; size = 4
?__global_delete@@YAXPAXI@Z PROC			; __global_delete, COMDAT

  00000	e9 00 00 00 00	 jmp	 ??3@YAXPAXI@Z		; operator delete
?__global_delete@@YAXPAXI@Z ENDP			; __global_delete
_TEXT	ENDS
; Function compile flags: /Ogtp
; File E:\Proyectos\JuegosOnlineproyectos\PB\pbblow\Piercing Blow Remake\i3Server\include\i3Base\i3CPUID.cpp
;	COMDAT ?__empty_global_delete@@YAXPAXI@Z
_TEXT	SEGMENT
___formal$ = 8						; size = 4
___formal$ = 12						; size = 4
?__empty_global_delete@@YAXPAXI@Z PROC			; __empty_global_delete, COMDAT

  00000	c2 00 00	 ret	 0
?__empty_global_delete@@YAXPAXI@Z ENDP			; __empty_global_delete
_TEXT	ENDS
; Function compile flags: /Ogtp
; File E:\Proyectos\JuegosOnlineproyectos\PB\pbblow\Piercing Blow Remake\i3Server\include\i3Base\i3CPUID.cpp
;	COMDAT ?__global_delete@@YAXPAX@Z
_TEXT	SEGMENT
_p$ = 8							; size = 4
?__global_delete@@YAXPAX@Z PROC				; __global_delete, COMDAT

  00000	e9 00 00 00 00	 jmp	 ??3@YAXPAX@Z		; operator delete
?__global_delete@@YAXPAX@Z ENDP				; __global_delete
_TEXT	ENDS
; Function compile flags: /Ogtp
; File E:\Proyectos\JuegosOnlineproyectos\PB\pbblow\Piercing Blow Remake\i3Server\include\i3Base\i3CPUID.cpp
;	COMDAT ?__empty_global_delete@@YAXPAX@Z
_TEXT	SEGMENT
___formal$ = 8						; size = 4
?__empty_global_delete@@YAXPAX@Z PROC			; __empty_global_delete, COMDAT

  00000	c2 00 00	 ret	 0
?__empty_global_delete@@YAXPAX@Z ENDP			; __empty_global_delete
_TEXT	ENDS
END
