; Listing generated by Microsoft (R) Optimizing Compiler Version 19.50.35727.0 

	TITLE	E:\Proyectos\JuegosOnlineproyectos\PB\pbblow\Piercing Blow Remake\i3Server\Project\I3_DX\i3Server\x86\Release\i3CRC32.obj
	.686P
	.XMM
	include listing.inc
	.model	flat

INCLUDELIB LIBCMT
INCLUDELIB OLDNAMES

PUBLIC	?CRC32@@YAIIPAEI@Z				; CRC32
PUBLIC	?BitRotateEncript@@YAXPAEII@Z			; BitRotateEncript
PUBLIC	?BitRotateDecript@@YAXPAEII@Z			; BitRotateDecript
CONST	SEGMENT
?s_CRCTable@@3QBIB DD 00H				; s_CRCTable
	DD	077073096H
	DD	0ee0e612cH
	DD	0990951baH
	DD	076dc419H
	DD	0706af48fH
	DD	0e963a535H
	DD	09e6495a3H
	DD	0edb8832H
	DD	079dcb8a4H
	DD	0e0d5e91eH
	DD	097d2d988H
	DD	09b64c2bH
	DD	07eb17cbdH
	DD	0e7b82d07H
	DD	090bf1d91H
	DD	01db71064H
	DD	06ab020f2H
	DD	0f3b97148H
	DD	084be41deH
	DD	01adad47dH
	DD	06ddde4ebH
	DD	0f4d4b551H
	DD	083d385c7H
	DD	0136c9856H
	DD	0646ba8c0H
	DD	0fd62f97aH
	DD	08a65c9ecH
	DD	014015c4fH
	DD	063066cd9H
	DD	0fa0f3d63H
	DD	08d080df5H
	DD	03b6e20c8H
	DD	04c69105eH
	DD	0d56041e4H
	DD	0a2677172H
	DD	03c03e4d1H
	DD	04b04d447H
	DD	0d20d85fdH
	DD	0a50ab56bH
	DD	035b5a8faH
	DD	042b2986cH
	DD	0dbbbc9d6H
	DD	0acbcf940H
	DD	032d86ce3H
	DD	045df5c75H
	DD	0dcd60dcfH
	DD	0abd13d59H
	DD	026d930acH
	DD	051de003aH
	DD	0c8d75180H
	DD	0bfd06116H
	DD	021b4f4b5H
	DD	056b3c423H
	DD	0cfba9599H
	DD	0b8bda50fH
	DD	02802b89eH
	DD	05f058808H
	DD	0c60cd9b2H
	DD	0b10be924H
	DD	02f6f7c87H
	DD	058684c11H
	DD	0c1611dabH
	DD	0b6662d3dH
	DD	076dc4190H
	DD	01db7106H
	DD	098d220bcH
	DD	0efd5102aH
	DD	071b18589H
	DD	06b6b51fH
	DD	09fbfe4a5H
	DD	0e8b8d433H
	DD	07807c9a2H
	DD	0f00f934H
	DD	09609a88eH
	DD	0e10e9818H
	DD	07f6a0dbbH
	DD	086d3d2dH
	DD	091646c97H
	DD	0e6635c01H
	DD	06b6b51f4H
	DD	01c6c6162H
	DD	0856530d8H
	DD	0f262004eH
	DD	06c0695edH
	DD	01b01a57bH
	DD	08208f4c1H
	DD	0f50fc457H
	DD	065b0d9c6H
	DD	012b7e950H
	DD	08bbeb8eaH
	DD	0fcb9887cH
	DD	062dd1ddfH
	DD	015da2d49H
	DD	08cd37cf3H
	DD	0fbd44c65H
	DD	04db26158H
	DD	03ab551ceH
	DD	0a3bc0074H
	DD	0d4bb30e2H
	DD	04adfa541H
	DD	03dd895d7H
	DD	0a4d1c46dH
	DD	0d3d6f4fbH
	DD	04369e96aH
	DD	0346ed9fcH
	DD	0ad678846H
	DD	0da60b8d0H
	DD	044042d73H
	DD	033031de5H
	DD	0aa0a4c5fH
	DD	0dd0d7cc9H
	DD	05005713cH
	DD	0270241aaH
	DD	0be0b1010H
	DD	0c90c2086H
	DD	05768b525H
	DD	0206f85b3H
	DD	0b966d409H
	DD	0ce61e49fH
	DD	05edef90eH
	DD	029d9c998H
	DD	0b0d09822H
	DD	0c7d7a8b4H
	DD	059b33d17H
	DD	02eb40d81H
	DD	0b7bd5c3bH
	DD	0c0ba6cadH
	DD	0edb88320H
	DD	09abfb3b6H
	DD	03b6e20cH
	DD	074b1d29aH
	DD	0ead54739H
	DD	09dd277afH
	DD	04db2615H
	DD	073dc1683H
	DD	0e3630b12H
	DD	094643b84H
	DD	0d6d6a3eH
	DD	07a6a5aa8H
	DD	0e40ecf0bH
	DD	09309ff9dH
	DD	0a00ae27H
	DD	07d079eb1H
	DD	0f00f9344H
	DD	08708a3d2H
	DD	01e01f268H
	DD	06906c2feH
	DD	0f762575dH
	DD	0806567cbH
	DD	0196c3671H
	DD	06e6b06e7H
	DD	0fed41b76H
	DD	089d32be0H
	DD	010da7a5aH
	DD	067dd4accH
	DD	0f9b9df6fH
	DD	08ebeeff9H
	DD	017b7be43H
	DD	060b08ed5H
	DD	0d6d6a3e8H
	DD	0a1d1937eH
	DD	038d8c2c4H
	DD	04fdff252H
	DD	0d1bb67f1H
	DD	0a6bc5767H
	DD	03fb506ddH
	DD	048b2364bH
	DD	0d80d2bdaH
	DD	0af0a1b4cH
	DD	036034af6H
	DD	041047a60H
	DD	0df60efc3H
	DD	0a867df55H
	DD	0316e8eefH
	DD	04669be79H
	DD	0cb61b38cH
	DD	0bc66831aH
	DD	0256fd2a0H
	DD	05268e236H
	DD	0cc0c7795H
	DD	0bb0b4703H
	DD	0220216b9H
	DD	05505262fH
	DD	0c5ba3bbeH
	DD	0b2bd0b28H
	DD	02bb45a92H
	DD	05cb36a04H
	DD	0c2d7ffa7H
	DD	0b5d0cf31H
	DD	02cd99e8bH
	DD	05bdeae1dH
	DD	09b64c2b0H
	DD	0ec63f226H
	DD	0756aa39cH
	DD	026d930aH
	DD	09c0906a9H
	DD	0eb0e363fH
	DD	072076785H
	DD	05005713H
	DD	095bf4a82H
	DD	0e2b87a14H
	DD	07bb12baeH
	DD	0cb61b38H
	DD	092d28e9bH
	DD	0e5d5be0dH
	DD	07cdcefb7H
	DD	0bdbdf21H
	DD	086d3d2d4H
	DD	0f1d4e242H
	DD	068ddb3f8H
	DD	01fda836eH
	DD	081be16cdH
	DD	0f6b9265bH
	DD	06fb077e1H
	DD	018b74777H
	DD	088085ae6H
	DD	0ff0f6a70H
	DD	066063bcaH
	DD	011010b5cH
	DD	08f659effH
	DD	0f862ae69H
	DD	0616bffd3H
	DD	0166ccf45H
	DD	0a00ae278H
	DD	0d70dd2eeH
	DD	04e048354H
	DD	03903b3c2H
	DD	0a7672661H
	DD	0d06016f7H
	DD	04969474dH
	DD	03e6e77dbH
	DD	0aed16a4aH
	DD	0d9d65adcH
	DD	040df0b66H
	DD	037d83bf0H
	DD	0a9bcae53H
	DD	0debb9ec5H
	DD	047b2cf7fH
	DD	030b5ffe9H
	DD	0bdbdf21cH
	DD	0cabac28aH
	DD	053b39330H
	DD	024b4a3a6H
	DD	0bad03605H
	DD	0cdd70693H
	DD	054de5729H
	DD	023d967bfH
	DD	0b3667a2eH
	DD	0c4614ab8H
	DD	05d681b02H
	DD	02a6f2b94H
	DD	0b40bbe37H
	DD	0c30c8ea1H
	DD	05a05df1bH
	DD	02d02ef8dH
CONST	ENDS
; Function compile flags: /Ogtp
; File E:\Proyectos\JuegosOnlineproyectos\PB\pbblow\Piercing Blow Remake\i3Server\src\i3Base\i3CRC32.cpp
;	COMDAT ?BitRotateDecript@@YAXPAEII@Z
_TEXT	SEGMENT
_pBuf$ = 8						; size = 4
_Length$ = 12						; size = 4
_c$ = 16						; size = 4
?BitRotateDecript@@YAXPAEII@Z PROC			; BitRotateDecript, COMDAT

; 129  : {

  00000	55		 push	 ebp
  00001	8b ec		 mov	 ebp, esp

; 130  : 	UINT8 d1, d2, last;
; 131  : 	INT32 i, rc;
; 132  : 
; 133  : 	rc = 8 - c;
; 134  : 
; 135  : 	last = pBuf[ Length - 1];

  00003	8b 45 0c	 mov	 eax, DWORD PTR _Length$[ebp]
  00006	8b 4d 10	 mov	 ecx, DWORD PTR _c$[ebp]
  00009	53		 push	 ebx
  0000a	56		 push	 esi
  0000b	57		 push	 edi
  0000c	8b 7d 08	 mov	 edi, DWORD PTR _pBuf$[ebp]

; 136  : 
; 137  : 	for( i = (INT32)Length - 1; i >= 0; i--)

  0000f	8d 70 ff	 lea	 esi, DWORD PTR [eax-1]
  00012	bb 08 00 00 00	 mov	 ebx, 8
  00017	2b d9		 sub	 ebx, ecx
  00019	8a 74 07 ff	 mov	 dh, BYTE PTR [edi+eax-1]
  0001d	85 f6		 test	 esi, esi
  0001f	78 22		 js	 SHORT $LN3@BitRotateD
$LL4@BitRotateD:

; 138  : 	{
; 139  : 		if( i > 0)

  00021	85 f6		 test	 esi, esi
  00023	74 06		 je	 SHORT $LN5@BitRotateD

; 140  : 		{
; 141  : 			d1 = pBuf[i];	d2 = pBuf[ i - 1];

  00025	8a 44 3e ff	 mov	 al, BYTE PTR [esi+edi-1]

; 142  : 		}

  00029	eb 02		 jmp	 SHORT $LN6@BitRotateD
$LN5@BitRotateD:

; 143  : 		else
; 144  : 		{
; 145  : 			d1 = pBuf[i]; d2 = last;

  0002b	8a c6		 mov	 al, dh
$LN6@BitRotateD:

; 146  : 		}
; 147  : 
; 148  : 		d1 = (UINT8)((d1 >> c) & 0xFF);

  0002d	8a 14 3e	 mov	 dl, BYTE PTR [esi+edi]
  00030	d2 ea		 shr	 dl, cl

; 149  : 		d2 = (UINT8)((d2 << rc) & 0xFF);

  00032	8b cb		 mov	 ecx, ebx
  00034	d2 e0		 shl	 al, cl
  00036	8b 4d 10	 mov	 ecx, DWORD PTR _c$[ebp]

; 150  : 		pBuf[i] = (UINT8)((d1 | d2) & 0xFF);

  00039	0a d0		 or	 dl, al
  0003b	88 14 3e	 mov	 BYTE PTR [esi+edi], dl
  0003e	83 ee 01	 sub	 esi, 1
  00041	79 de		 jns	 SHORT $LL4@BitRotateD
$LN3@BitRotateD:
  00043	5f		 pop	 edi

; 151  : 
; 152  : 	}
; 153  : }

  00044	5e		 pop	 esi
  00045	5b		 pop	 ebx
  00046	5d		 pop	 ebp
  00047	c3		 ret	 0
?BitRotateDecript@@YAXPAEII@Z ENDP			; BitRotateDecript
_TEXT	ENDS
; Function compile flags: /Ogtp
; File E:\Proyectos\JuegosOnlineproyectos\PB\pbblow\Piercing Blow Remake\i3Server\src\i3Base\i3CRC32.cpp
;	COMDAT ?BitRotateEncript@@YAXPAEII@Z
_TEXT	SEGMENT
_pBuf$ = 8						; size = 4
_Length$ = 12						; size = 4
_c$ = 16						; size = 4
?BitRotateEncript@@YAXPAEII@Z PROC			; BitRotateEncript, COMDAT

; 104  : {

  00000	55		 push	 ebp
  00001	8b ec		 mov	 ebp, esp
  00003	56		 push	 esi

; 105  : 	UINT8 start = * pBuf, d1, d2;

  00004	8b 75 08	 mov	 esi, DWORD PTR _pBuf$[ebp]
  00007	33 c0		 xor	 eax, eax
  00009	57		 push	 edi
  0000a	8b 7d 0c	 mov	 edi, DWORD PTR _Length$[ebp]
  0000d	8a 36		 mov	 dh, BYTE PTR [esi]

; 109  : 
; 110  : 	for( i = 0; i < (INT32) Length; i++)

  0000f	85 ff		 test	 edi, edi
  00011	7e 33		 jle	 SHORT $LN3@BitRotateE

; 106  : 	INT32 i, rc;
; 107  : 
; 108  : 	rc = 8 - c;

  00013	53		 push	 ebx
  00014	b7 08		 mov	 bh, 8
  00016	8d 4f ff	 lea	 ecx, DWORD PTR [edi-1]
  00019	2a 7d 10	 sub	 bh, BYTE PTR _c$[ebp]
  0001c	8d 64 24 00	 npad	 4
$LL4@BitRotateE:

; 111  : 	{
; 112  : 		if( i < (INT32) (Length - 1))

  00020	3b c1		 cmp	 eax, ecx
  00022	7d 06		 jge	 SHORT $LN5@BitRotateE

; 113  : 		{
; 114  : 			d1 = pBuf[i];	d2 = pBuf[ i + 1];

  00024	8a 5c 30 01	 mov	 bl, BYTE PTR [eax+esi+1]

; 115  : 		}

  00028	eb 02		 jmp	 SHORT $LN6@BitRotateE
$LN5@BitRotateE:

; 116  : 		else
; 117  : 		{
; 118  : 			d1 = pBuf[i]; d2 = start;

  0002a	8a de		 mov	 bl, dh
$LN6@BitRotateE:

; 119  : 		}
; 120  : 
; 121  : 		d1 = (UINT8)((d1 << c) & 0xFF);

  0002c	8a 14 30	 mov	 dl, BYTE PTR [eax+esi]
  0002f	8b 4d 10	 mov	 ecx, DWORD PTR _c$[ebp]
  00032	d2 e2		 shl	 dl, cl

; 122  : 		d2 = (UINT8)((d2 >> rc) & 0xFF);

  00034	8a cf		 mov	 cl, bh
  00036	d2 eb		 shr	 bl, cl
  00038	8d 4f ff	 lea	 ecx, DWORD PTR [edi-1]

; 123  : 
; 124  : 		pBuf[i] = (UINT8)(( d1 | d2) & 0xFF);

  0003b	0a d3		 or	 dl, bl
  0003d	88 14 30	 mov	 BYTE PTR [eax+esi], dl
  00040	40		 inc	 eax
  00041	3b c7		 cmp	 eax, edi
  00043	7c db		 jl	 SHORT $LL4@BitRotateE

; 109  : 
; 110  : 	for( i = 0; i < (INT32) Length; i++)

  00045	5b		 pop	 ebx
$LN3@BitRotateE:
  00046	5f		 pop	 edi

; 125  : 	}
; 126  : }

  00047	5e		 pop	 esi
  00048	5d		 pop	 ebp
  00049	c3		 ret	 0
?BitRotateEncript@@YAXPAEII@Z ENDP			; BitRotateEncript
_TEXT	ENDS
; Function compile flags: /Ogtp
; File E:\Proyectos\JuegosOnlineproyectos\PB\pbblow\Piercing Blow Remake\i3Server\src\i3Base\i3CRC32.cpp
;	COMDAT ?CRC32@@YAIIPAEI@Z
_TEXT	SEGMENT
_crc$ = 8						; size = 4
_buf$ = 12						; size = 4
_len$ = 16						; size = 4
?CRC32@@YAIIPAEI@Z PROC					; CRC32, COMDAT

; 81   : {

  00000	55		 push	 ebp
  00001	8b ec		 mov	 ebp, esp

; 82   : 	I3ASSERT( buf != NULL);
; 83   : 
; 84   :     crc = crc ^ 0xffffffff;

  00003	8b 45 08	 mov	 eax, DWORD PTR _crc$[ebp]

; 85   : 
; 86   :     while (len >= 8) 

  00006	8b 55 0c	 mov	 edx, DWORD PTR _buf$[ebp]
  00009	f7 d0		 not	 eax
  0000b	56		 push	 esi
  0000c	8b 75 10	 mov	 esi, DWORD PTR _len$[ebp]
  0000f	83 fe 08	 cmp	 esi, 8
  00012	0f 82 a6 00 00
	00		 jb	 $LN3@CRC32
$LL2@CRC32:

; 87   : 	{
; 88   :         DO8;

  00018	0f b6 0a	 movzx	 ecx, BYTE PTR [edx]

; 89   :         len -= 8;

  0001b	83 ee 08	 sub	 esi, 8
  0001e	33 c8		 xor	 ecx, eax
  00020	c1 e8 08	 shr	 eax, 8
  00023	0f b6 c9	 movzx	 ecx, cl
  00026	33 04 8d 00 00
	00 00		 xor	 eax, DWORD PTR ?s_CRCTable@@3QBIB[ecx*4]
  0002d	0f b6 4a 01	 movzx	 ecx, BYTE PTR [edx+1]
  00031	33 c8		 xor	 ecx, eax
  00033	c1 e8 08	 shr	 eax, 8
  00036	0f b6 c9	 movzx	 ecx, cl
  00039	33 04 8d 00 00
	00 00		 xor	 eax, DWORD PTR ?s_CRCTable@@3QBIB[ecx*4]
  00040	0f b6 4a 02	 movzx	 ecx, BYTE PTR [edx+2]
  00044	33 c8		 xor	 ecx, eax
  00046	c1 e8 08	 shr	 eax, 8
  00049	0f b6 c9	 movzx	 ecx, cl
  0004c	33 04 8d 00 00
	00 00		 xor	 eax, DWORD PTR ?s_CRCTable@@3QBIB[ecx*4]
  00053	0f b6 4a 03	 movzx	 ecx, BYTE PTR [edx+3]
  00057	33 c8		 xor	 ecx, eax
  00059	c1 e8 08	 shr	 eax, 8
  0005c	0f b6 c9	 movzx	 ecx, cl
  0005f	33 04 8d 00 00
	00 00		 xor	 eax, DWORD PTR ?s_CRCTable@@3QBIB[ecx*4]
  00066	0f b6 4a 04	 movzx	 ecx, BYTE PTR [edx+4]
  0006a	33 c8		 xor	 ecx, eax
  0006c	c1 e8 08	 shr	 eax, 8
  0006f	0f b6 c9	 movzx	 ecx, cl
  00072	33 04 8d 00 00
	00 00		 xor	 eax, DWORD PTR ?s_CRCTable@@3QBIB[ecx*4]
  00079	0f b6 4a 05	 movzx	 ecx, BYTE PTR [edx+5]
  0007d	33 c8		 xor	 ecx, eax
  0007f	c1 e8 08	 shr	 eax, 8
  00082	0f b6 c9	 movzx	 ecx, cl
  00085	33 04 8d 00 00
	00 00		 xor	 eax, DWORD PTR ?s_CRCTable@@3QBIB[ecx*4]
  0008c	0f b6 4a 06	 movzx	 ecx, BYTE PTR [edx+6]
  00090	33 c8		 xor	 ecx, eax
  00092	c1 e8 08	 shr	 eax, 8
  00095	0f b6 c9	 movzx	 ecx, cl
  00098	33 04 8d 00 00
	00 00		 xor	 eax, DWORD PTR ?s_CRCTable@@3QBIB[ecx*4]
  0009f	0f b6 4a 07	 movzx	 ecx, BYTE PTR [edx+7]
  000a3	83 c2 08	 add	 edx, 8
  000a6	33 c8		 xor	 ecx, eax
  000a8	c1 e8 08	 shr	 eax, 8
  000ab	0f b6 c9	 movzx	 ecx, cl
  000ae	33 04 8d 00 00
	00 00		 xor	 eax, DWORD PTR ?s_CRCTable@@3QBIB[ecx*4]
  000b5	83 fe 08	 cmp	 esi, 8
  000b8	0f 83 5a ff ff
	ff		 jae	 $LL2@CRC32
$LN3@CRC32:

; 90   :     }
; 91   : 
; 92   :     if (len) 

  000be	85 f6		 test	 esi, esi
  000c0	74 1a		 je	 SHORT $LN5@CRC32
$LL6@CRC32:

; 93   : 	{
; 94   : 		do 
; 95   : 		{
; 96   : 			DO1;

  000c2	0f b6 0a	 movzx	 ecx, BYTE PTR [edx]
  000c5	8d 52 01	 lea	 edx, DWORD PTR [edx+1]
  000c8	33 c8		 xor	 ecx, eax
  000ca	c1 e8 08	 shr	 eax, 8
  000cd	0f b6 c9	 movzx	 ecx, cl
  000d0	33 04 8d 00 00
	00 00		 xor	 eax, DWORD PTR ?s_CRCTable@@3QBIB[ecx*4]

; 97   : 		} while (--len);

  000d7	83 ee 01	 sub	 esi, 1
  000da	75 e6		 jne	 SHORT $LL6@CRC32
$LN5@CRC32:

; 98   : 	}
; 99   : 
; 100  :     return crc ^ 0xffffffff;

  000dc	f7 d0		 not	 eax
  000de	5e		 pop	 esi

; 101  : }

  000df	5d		 pop	 ebp
  000e0	c3		 ret	 0
?CRC32@@YAIIPAEI@Z ENDP					; CRC32
_TEXT	ENDS
END
