; Listing generated by Microsoft (R) Optimizing Compiler Version 19.50.35727.0 

	TITLE	E:\Proyectos\JuegosOnlineproyectos\PB\pbblow\Piercing Blow Remake\i3Server\Project\I3_DX\i3Server\x86\Release\i3ErrorUnExpectionWindows.obj
	.686P
	.XMM
	include listing.inc
	.model	flat

INCLUDELIB LIBCMT
INCLUDELIB OLDNAMES

PUBLIC	__Avx2WmemEnabledWeakValue
;	COMDAT __Avx2WmemEnabledWeakValue
_BSS	SEGMENT
__Avx2WmemEnabledWeakValue DD 01H DUP (?)
_BSS	ENDS
PUBLIC	?_i3DefPopupExProc@@YGHPAUHWND__@@IIJ@Z		; _i3DefPopupExProc
PUBLIC	?DefWindowsExpectionProc@@YA?AW4I3ERROR_HANDLE@@PAD@Z ; DefWindowsExpectionProc
PUBLIC	??_C@_0BA@DNGLKKNB@i3BugReport?4i3b@		; `string'
PUBLIC	??_C@_04CBAEDEP@?$LP?O?$LH?a@			; `string'
PUBLIC	??_C@_0CC@FKPBGGI@?$LI?$NO?$MA?O?$MA?L?5?$MA?$PM?$LM?$NL?$LF?G?$LO?z?$LN?$MA?$LE?O?$LE?Y?$AN?6?$LA?$KI?$LL?g?G?U?$LE?O@ ; `string'
EXTRN	__imp__DeleteFileA@4:PROC
EXTRN	__imp__SetWindowPos@28:PROC
EXTRN	__imp__DialogBoxParamA@20:PROC
EXTRN	__imp__EndDialog@8:PROC
EXTRN	__imp__SetFocus@4:PROC
EXTRN	__imp__MessageBoxA@16:PROC
EXTRN	?SendMailBugReport@i3System@@YAXPAD0@Z:PROC	; i3System::SendMailBugReport
EXTRN	@__security_check_cookie@4:PROC
EXTRN	_memset:PROC
EXTRN	?g_hInstBase@@3PAUHINSTANCE__@@A:DWORD		; g_hInstBase
EXTRN	___security_cookie:DWORD
_BSS	SEGMENT
?s_pszEmailContentsBuffer@@3PADA DD 01H DUP (?)		; s_pszEmailContentsBuffer
_BSS	ENDS
;	COMDAT ??_C@_0CC@FKPBGGI@?$LI?$NO?$MA?O?$MA?L?5?$MA?$PM?$LM?$NL?$LF?G?$LO?z?$LN?$MA?$LE?O?$LE?Y?$AN?6?$LA?$KI?$LL?g?G?U?$LE?O@
CONST	SEGMENT
??_C@_0CC@FKPBGGI@?$LI?$NO?$MA?O?$MA?L?5?$MA?$PM?$LM?$NL?$LF?G?$LO?z?$LN?$MA?$LE?O?$LE?Y?$AN?6?$LA?$KI?$LL?g?G?U?$LE?O@ DB 0b8H
	DB	0deH, 0c0H, 0cfH, 0c0H, 0ccH, ' ', 0c0H, 0fcH, 0bcH, 0dbH, 0b5H
	DB	0c7H, 0beH, 0faH, 0bdH, 0c0H, 0b4H, 0cfH, 0b4H, 0d9H, 0dH, 0aH
	DB	0b0H, 0a8H, 0bbH, 0e7H, 0c7H, 0d5H, 0b4H, 0cfH, 0b4H, 0d9H, 00H ; `string'
CONST	ENDS
;	COMDAT ??_C@_04CBAEDEP@?$LP?O?$LH?a@
CONST	SEGMENT
??_C@_04CBAEDEP@?$LP?O?$LH?a@ DB 0bfH, 0cfH, 0b7H, 0e1H, 00H ; `string'
CONST	ENDS
;	COMDAT ??_C@_0BA@DNGLKKNB@i3BugReport?4i3b@
CONST	SEGMENT
??_C@_0BA@DNGLKKNB@i3BugReport?4i3b@ DB 'i3BugReport.i3b', 00H ; `string'
CONST	ENDS
; Function compile flags: /Ogtp
; File E:\Proyectos\JuegosOnlineproyectos\PB\pbblow\Piercing Blow Remake\i3Server\src\i3Base\i3ErrorUnExpectionWindows.cpp
;	COMDAT ?DefWindowsExpectionProc@@YA?AW4I3ERROR_HANDLE@@PAD@Z
_TEXT	SEGMENT
_pszBuffer$ = 8						; size = 4
?DefWindowsExpectionProc@@YA?AW4I3ERROR_HANDLE@@PAD@Z PROC ; DefWindowsExpectionProc, COMDAT

; 69   : {

  00000	55		 push	 ebp
  00001	8b ec		 mov	 ebp, esp

; 70   : 	INT_PTR rv;
; 71   : 
; 72   : 	s_pszEmailContentsBuffer = pszBuffer;

  00003	8b 45 08	 mov	 eax, DWORD PTR _pszBuffer$[ebp]

; 73   : 	
; 74   : #if defined( I3_WINDOWS)
; 75   : 	#if defined( I3_DLL)
; 76   : 		rv = DialogBox( g_hInstBase, MAKEINTRESOURCE( IDD_UNEXPECTION), NULL, _i3DefPopupExProc);

  00006	6a 00		 push	 0
  00008	68 00 00 00 00	 push	 OFFSET ?_i3DefPopupExProc@@YGHPAUHWND__@@IIJ@Z ; _i3DefPopupExProc
  0000d	6a 00		 push	 0
  0000f	6a 6c		 push	 108			; 0000006cH
  00011	ff 35 00 00 00
	00		 push	 DWORD PTR ?g_hInstBase@@3PAUHINSTANCE__@@A ; g_hInstBase
  00017	a3 00 00 00 00	 mov	 DWORD PTR ?s_pszEmailContentsBuffer@@3PADA, eax
  0001c	ff 15 00 00 00
	00		 call	 DWORD PTR __imp__DialogBoxParamA@20

; 77   : 	#else
; 78   : 		rv = DialogBox( NULL, MAKEINTRESOURCE( IDD_UNEXPECTION), NULL, _i3DefPopupExProc);
; 79   : 	#endif
; 80   : #endif
; 81   : 
; 82   : 	if( rv == IDCANCEL)
; 83   : 	{
; 84   : 		return I3ERROR_HANDLE_CONTINUE;
; 85   : 	}
; 86   : 
; 87   : 	return I3ERROR_HANDLE_BREAK;
; 88   : }

  00022	33 c9		 xor	 ecx, ecx
  00024	83 f8 02	 cmp	 eax, 2
  00027	0f 94 c1	 sete	 cl
  0002a	8b c1		 mov	 eax, ecx
  0002c	5d		 pop	 ebp
  0002d	c3		 ret	 0
?DefWindowsExpectionProc@@YA?AW4I3ERROR_HANDLE@@PAD@Z ENDP ; DefWindowsExpectionProc
_TEXT	ENDS
; Function compile flags: /Ogtp
; File E:\Proyectos\JuegosOnlineproyectos\PB\pbblow\Piercing Blow Remake\i3Server\src\i3Base\i3ErrorUnExpectionWindows.cpp
;	COMDAT ?_i3DefPopupExProc@@YGHPAUHWND__@@IIJ@Z
_TEXT	SEGMENT
_szdmpFile$ = -68					; size = 64
__$ArrayPad$ = -4					; size = 4
_hwnd$ = 8						; size = 4
_msg$ = 12						; size = 4
_wParam$ = 16						; size = 4
___formal$ = 20						; size = 4
?_i3DefPopupExProc@@YGHPAUHWND__@@IIJ@Z PROC		; _i3DefPopupExProc, COMDAT

; 18   : {

  00000	55		 push	 ebp
  00001	8b ec		 mov	 ebp, esp
  00003	83 ec 44	 sub	 esp, 68			; 00000044H
  00006	a1 00 00 00 00	 mov	 eax, DWORD PTR ___security_cookie
  0000b	33 c5		 xor	 eax, ebp
  0000d	89 45 fc	 mov	 DWORD PTR __$ArrayPad$[ebp], eax

; 19   : 	char szdmpFile[64] = { "i3BugReport.i3b" };

  00010	a1 00 00 00 00	 mov	 eax, DWORD PTR ??_C@_0BA@DNGLKKNB@i3BugReport?4i3b@
  00015	89 45 bc	 mov	 DWORD PTR _szdmpFile$[ebp], eax
  00018	a1 04 00 00 00	 mov	 eax, DWORD PTR ??_C@_0BA@DNGLKKNB@i3BugReport?4i3b@+4
  0001d	89 45 c0	 mov	 DWORD PTR _szdmpFile$[ebp+4], eax
  00020	a1 08 00 00 00	 mov	 eax, DWORD PTR ??_C@_0BA@DNGLKKNB@i3BugReport?4i3b@+8
  00025	56		 push	 esi
  00026	8b 75 08	 mov	 esi, DWORD PTR _hwnd$[ebp]
  00029	89 45 c4	 mov	 DWORD PTR _szdmpFile$[ebp+8], eax
  0002c	a1 0c 00 00 00	 mov	 eax, DWORD PTR ??_C@_0BA@DNGLKKNB@i3BugReport?4i3b@+12
  00031	6a 30		 push	 48			; 00000030H
  00033	89 45 c8	 mov	 DWORD PTR _szdmpFile$[ebp+12], eax
  00036	8d 45 cc	 lea	 eax, DWORD PTR _szdmpFile$[ebp+16]
  00039	6a 00		 push	 0
  0003b	50		 push	 eax
  0003c	e8 00 00 00 00	 call	 _memset

; 20   : 	switch( msg)

  00041	8b 45 0c	 mov	 eax, DWORD PTR _msg$[ebp]
  00044	83 c4 0c	 add	 esp, 12			; 0000000cH
  00047	2d 10 01 00 00	 sub	 eax, 272		; 00000110H
  0004c	0f 84 9d 00 00
	00		 je	 $LN6@i3DefPopup
  00052	83 e8 01	 sub	 eax, 1
  00055	0f 85 ae 00 00
	00		 jne	 $LN20@i3DefPopup

; 25   : 			break;
; 26   : 
; 27   : 		case WM_COMMAND :
; 28   : 			{
; 29   : 				UINT id = LOWORD( wParam);
; 30   : 				UINT code = HIWORD( wParam);

  0005b	8b 4d 10	 mov	 ecx, DWORD PTR _wParam$[ebp]
  0005e	8b c1		 mov	 eax, ecx
  00060	c1 e8 10	 shr	 eax, 16			; 00000010H

; 31   : 
; 32   : 				if( code == BN_CLICKED)

  00063	85 c0		 test	 eax, eax
  00065	0f 85 9e 00 00
	00		 jne	 $LN20@i3DefPopup

; 33   : 				{
; 34   : 					switch( id )

  0006b	0f b7 c1	 movzx	 eax, cx
  0006e	83 e8 01	 sub	 eax, 1
  00071	74 56		 je	 SHORT $LN10@i3DefPopup
  00073	2d ee 03 00 00	 sub	 eax, 1006		; 000003eeH
  00078	0f 85 8b 00 00
	00		 jne	 $LN20@i3DefPopup

; 35   : 					{
; 36   : 						case IDC_B_SEND :								
; 37   : 							i3System::SendMailBugReport( s_pszEmailContentsBuffer, szdmpFile );

  0007e	8d 45 bc	 lea	 eax, DWORD PTR _szdmpFile$[ebp]
  00081	50		 push	 eax
  00082	ff 35 00 00 00
	00		 push	 DWORD PTR ?s_pszEmailContentsBuffer@@3PADA
  00088	e8 00 00 00 00	 call	 ?SendMailBugReport@i3System@@YAXPAD0@Z ; i3System::SendMailBugReport
  0008d	83 c4 08	 add	 esp, 8

; 38   : 							DeleteFile( szdmpFile );

  00090	8d 45 bc	 lea	 eax, DWORD PTR _szdmpFile$[ebp]
  00093	50		 push	 eax
  00094	ff 15 00 00 00
	00		 call	 DWORD PTR __imp__DeleteFileA@4

; 39   : 							MessageBox( hwnd, "메일이 전송되었습니다\r\n감사합니다", "완료", MB_OK );

  0009a	6a 00		 push	 0
  0009c	68 00 00 00 00	 push	 OFFSET ??_C@_04CBAEDEP@?$LP?O?$LH?a@
  000a1	68 00 00 00 00	 push	 OFFSET ??_C@_0CC@FKPBGGI@?$LI?$NO?$MA?O?$MA?L?5?$MA?$PM?$LM?$NL?$LF?G?$LO?z?$LN?$MA?$LE?O?$LE?Y?$AN?6?$LA?$KI?$LL?g?G?U?$LE?O@
  000a6	56		 push	 esi
  000a7	ff 15 00 00 00
	00		 call	 DWORD PTR __imp__MessageBoxA@16

; 40   : 							EndDialog( hwnd, IDOK);

  000ad	6a 01		 push	 1
  000af	56		 push	 esi
  000b0	ff 15 00 00 00
	00		 call	 DWORD PTR __imp__EndDialog@8

; 45   : 							break;
; 46   : 					}
; 47   : 				}
; 48   : 			}
; 49   : 			break;
; 50   : 			/*
; 51   : 		case WM_LBUTTONUP:
; 52   : 			i3System::SendMailBugReport( s_pszEmailContentsBuffer );
; 53   : 			// 메일 전송이 제대로 되었는지 확인하기 위해 삽입
; 54   : #if !defined( i3DEBUG )
; 55   : 			DeleteFile( "i3BugReport.i3b" );
; 56   : #endif
; 57   : 			MessageBox( hwnd, "메일이 전송되었습니다\r\n감사합니다", "완료", MB_OK );
; 58   : 			// 메일 전송이 제대로 되었는지 확인하기 위해 삽입
; 59   : 
; 60   : 			EndDialog( hwnd, IDOK);
; 61   : 			break;
; 62   : 			*/
; 63   : 	}
; 64   : 
; 65   : 	return FALSE;
; 66   : }

  000b6	33 c0		 xor	 eax, eax
  000b8	5e		 pop	 esi
  000b9	8b 4d fc	 mov	 ecx, DWORD PTR __$ArrayPad$[ebp]
  000bc	33 cd		 xor	 ecx, ebp
  000be	e8 00 00 00 00	 call	 @__security_check_cookie@4
  000c3	8b e5		 mov	 esp, ebp
  000c5	5d		 pop	 ebp
  000c6	c2 10 00	 ret	 16			; 00000010H
$LN10@i3DefPopup:

; 41   : 							break;
; 42   : 						case IDOK :
; 43   : 							DeleteFile( szdmpFile );

  000c9	8d 45 bc	 lea	 eax, DWORD PTR _szdmpFile$[ebp]
  000cc	50		 push	 eax
  000cd	ff 15 00 00 00
	00		 call	 DWORD PTR __imp__DeleteFileA@4

; 44   : 							EndDialog( hwnd, IDOK);

  000d3	6a 01		 push	 1
  000d5	56		 push	 esi
  000d6	ff 15 00 00 00
	00		 call	 DWORD PTR __imp__EndDialog@8

; 45   : 							break;
; 46   : 					}
; 47   : 				}
; 48   : 			}
; 49   : 			break;
; 50   : 			/*
; 51   : 		case WM_LBUTTONUP:
; 52   : 			i3System::SendMailBugReport( s_pszEmailContentsBuffer );
; 53   : 			// 메일 전송이 제대로 되었는지 확인하기 위해 삽입
; 54   : #if !defined( i3DEBUG )
; 55   : 			DeleteFile( "i3BugReport.i3b" );
; 56   : #endif
; 57   : 			MessageBox( hwnd, "메일이 전송되었습니다\r\n감사합니다", "완료", MB_OK );
; 58   : 			// 메일 전송이 제대로 되었는지 확인하기 위해 삽입
; 59   : 
; 60   : 			EndDialog( hwnd, IDOK);
; 61   : 			break;
; 62   : 			*/
; 63   : 	}
; 64   : 
; 65   : 	return FALSE;
; 66   : }

  000dc	33 c0		 xor	 eax, eax
  000de	5e		 pop	 esi
  000df	8b 4d fc	 mov	 ecx, DWORD PTR __$ArrayPad$[ebp]
  000e2	33 cd		 xor	 ecx, ebp
  000e4	e8 00 00 00 00	 call	 @__security_check_cookie@4
  000e9	8b e5		 mov	 esp, ebp
  000eb	5d		 pop	 ebp
  000ec	c2 10 00	 ret	 16			; 00000010H
$LN6@i3DefPopup:

; 21   : 	{	
; 22   : 		case WM_INITDIALOG:
; 23   : 			SetFocus( hwnd );

  000ef	56		 push	 esi
  000f0	ff 15 00 00 00
	00		 call	 DWORD PTR __imp__SetFocus@4

; 24   : 			SetWindowPos(hwnd, HWND_TOPMOST, 0, 0, 0, 0, SWP_NOMOVE | SWP_NOSIZE | SWP_SHOWWINDOW);

  000f6	6a 43		 push	 67			; 00000043H
  000f8	6a 00		 push	 0
  000fa	6a 00		 push	 0
  000fc	6a 00		 push	 0
  000fe	6a 00		 push	 0
  00100	6a ff		 push	 -1
  00102	56		 push	 esi
  00103	ff 15 00 00 00
	00		 call	 DWORD PTR __imp__SetWindowPos@28
$LN20@i3DefPopup:

; 45   : 							break;
; 46   : 					}
; 47   : 				}
; 48   : 			}
; 49   : 			break;
; 50   : 			/*
; 51   : 		case WM_LBUTTONUP:
; 52   : 			i3System::SendMailBugReport( s_pszEmailContentsBuffer );
; 53   : 			// 메일 전송이 제대로 되었는지 확인하기 위해 삽입
; 54   : #if !defined( i3DEBUG )
; 55   : 			DeleteFile( "i3BugReport.i3b" );
; 56   : #endif
; 57   : 			MessageBox( hwnd, "메일이 전송되었습니다\r\n감사합니다", "완료", MB_OK );
; 58   : 			// 메일 전송이 제대로 되었는지 확인하기 위해 삽입
; 59   : 
; 60   : 			EndDialog( hwnd, IDOK);
; 61   : 			break;
; 62   : 			*/
; 63   : 	}
; 64   : 
; 65   : 	return FALSE;
; 66   : }

  00109	8b 4d fc	 mov	 ecx, DWORD PTR __$ArrayPad$[ebp]
  0010c	33 c0		 xor	 eax, eax
  0010e	33 cd		 xor	 ecx, ebp
  00110	5e		 pop	 esi
  00111	e8 00 00 00 00	 call	 @__security_check_cookie@4
  00116	8b e5		 mov	 esp, ebp
  00118	5d		 pop	 ebp
  00119	c2 10 00	 ret	 16			; 00000010H
?_i3DefPopupExProc@@YGHPAUHWND__@@IIJ@Z ENDP		; _i3DefPopupExProc
_TEXT	ENDS
END
