; Listing generated by Microsoft (R) Optimizing Compiler Version 19.50.35727.0 

	TITLE	E:\Proyectos\JuegosOnlineproyectos\PB\pbblow\Piercing Blow Remake\i3Server\Project\I3_DX\i3Server\x86\Release\i3ErrorHandler.obj
	.686P
	.XMM
	include listing.inc
	.model	flat

INCLUDELIB LIBCMT
INCLUDELIB OLDNAMES

PUBLIC	?s_hwndMain@@3PAXA				; s_hwndMain
PUBLIC	?s_bEnterDialog@@3_NA				; s_bEnterDialog
PUBLIC	__Avx2WmemEnabledWeakValue
_BSS	SEGMENT
?s_hwndMain@@3PAXA DD 01H DUP (?)			; s_hwndMain
?s_bEnterDialog@@3_NA DB 01H DUP (?)			; s_bEnterDialog
_BSS	ENDS
;	COMDAT __Avx2WmemEnabledWeakValue
_BSS	SEGMENT
__Avx2WmemEnabledWeakValue DD 01H DUP (?)
_BSS	ENDS
PUBLIC	___local_stdio_printf_options
PUBLIC	_fprintf
PUBLIC	_sprintf
PUBLIC	??0I3ExceptionHandler@@QAE@XZ			; I3ExceptionHandler::I3ExceptionHandler
PUBLIC	??1I3ExceptionHandler@@UAE@XZ			; I3ExceptionHandler::~I3ExceptionHandler
PUBLIC	?ExceptionInformation@I3ExceptionHandler@@UAEXPAU_EXCEPTION_POINTERS@@@Z ; I3ExceptionHandler::ExceptionInformation
PUBLIC	?SetPath@I3ExceptionHandler@@QAEXPBD@Z		; I3ExceptionHandler::SetPath
PUBLIC	?SetExceptionHandlerOption@I3ExceptionHandler@@QAEXH@Z ; I3ExceptionHandler::SetExceptionHandlerOption
PUBLIC	?SetCreateMiniDump@I3ExceptionHandler@@QAEXPAU_EXCEPTION_POINTERS@@@Z ; I3ExceptionHandler::SetCreateMiniDump
PUBLIC	?GetSystemInfo@I3ExceptionHandler@@QAEXPAD@Z	; I3ExceptionHandler::GetSystemInfo
PUBLIC	??_GI3ExceptionHandler@@UAEPAXI@Z		; I3ExceptionHandler::`scalar deleting destructor'
PUBLIC	?Init@i3Error@@YAXXZ				; i3Error::Init
PUBLIC	?SetMainWindow@i3Error@@YAXPAX@Z		; i3Error::SetMainWindow
PUBLIC	?SetEnv@i3Error@@YAXPBDH0W4I3LOG_TYPE@@@Z	; i3Error::SetEnv
PUBLIC	?Log@i3Error@@YAXPBDZZ				; i3Error::Log
PUBLIC	?SetChannel@i3Error@@YAXW4I3LOG_TYPE@@I@Z	; i3Error::SetChannel
PUBLIC	?SetCallback@i3Error@@YAXW4I3LOG_TYPE@@P6A?AW4I3ERROR_HANDLE@@0PAD1PAX@Z2@Z ; i3Error::SetCallback
PUBLIC	?SetChannelName@i3Error@@YAXW4I3LOG_TYPE@@QAD@Z	; i3Error::SetChannelName
PUBLIC	?SetExceptionHandler@i3Error@@YAXPBD@Z		; i3Error::SetExceptionHandler
PUBLIC	?SetExceptionHandlerOption@i3Error@@YAXH@Z	; i3Error::SetExceptionHandlerOption
PUBLIC	?isErrorReporting@i3Error@@YA_NXZ		; i3Error::isErrorReporting
PUBLIC	?getMsg@i3Error@@YAPBDW4CODE@1@@Z		; i3Error::getMsg
PUBLIC	?GetEnvErrorFile@i3Error@@YAPBDXZ		; i3Error::GetEnvErrorFile
PUBLIC	?GetEnvErrorLine@i3Error@@YAHXZ			; i3Error::GetEnvErrorLine
PUBLIC	?GetEnvErrorFunc@i3Error@@YAPBDXZ		; i3Error::GetEnvErrorFunc
PUBLIC	?GetEnvLogType@i3Error@@YA?AW4I3LOG_TYPE@@XZ	; i3Error::GetEnvLogType
PUBLIC	?SetDefaultCallback@i3Error@@YAXW4I3LOG_TYPE@@PAX@Z ; i3Error::SetDefaultCallback
PUBLIC	?I3BCLog@i3Error@@YAXPBDH00ZZ			; i3Error::I3BCLog
PUBLIC	?I3assertForCoverity@@YAXXZ			; I3assertForCoverity
PUBLIC	??0i3MapFileParser@@QAE@XZ			; i3MapFileParser::i3MapFileParser
PUBLIC	??1i3MapFileParser@@QAE@XZ			; i3MapFileParser::~i3MapFileParser
PUBLIC	?GetSourceLine@i3MapFileParser@@QAEHXZ		; i3MapFileParser::GetSourceLine
PUBLIC	?GetFunctionName@i3MapFileParser@@QAEPADXZ	; i3MapFileParser::GetFunctionName
PUBLIC	?GetClassNameA@i3MapFileParser@@QAEPADXZ	; i3MapFileParser::GetClassNameA
PUBLIC	??4i3MapFileParser@@QAEAAV0@ABV0@@Z		; i3MapFileParser::operator=
PUBLIC	?CheckUnhandledException@@YGJPAU_EXCEPTION_POINTERS@@@Z ; CheckUnhandledException
PUBLIC	?_DefDumpThreadProc@@YAIPAUMinidumpInfo@@@Z	; _DefDumpThreadProc
PUBLIC	?_OptionsStorage@?1??__local_stdio_printf_options@@9@4_KA ; `__local_stdio_printf_options'::`2'::_OptionsStorage
PUBLIC	??_7I3ExceptionHandler@@6B@			; I3ExceptionHandler::`vftable'
PUBLIC	??_C@_0BO@NIEHMHPM@?$CFs?5?$CFs?$AN?6?$LA?h?$LM?S?5?A?x?G?$OA?G?O?$LN?C?$LA?Z?$LN?$MA?$LE?O?$LB?n?$DP@ ; `string'
PUBLIC	??_C@_0P@IBIJCJLK@?$CFs?$CI?$CFd?$CJ?5?3?5?$FL?$CFs?$FN?5@ ; `string'
PUBLIC	??_C@_0BN@EBBAEFBE@?$CFs?5?3?$FL?$CFd?3?$CF02d?3?$CF02d?3?$CF02d?$FN?5?$CFs?$AN?6@ ; `string'
PUBLIC	??_C@_08GDGGOJBC@?$CFs?5?3?5?$CFs?6@		; `string'
PUBLIC	??_C@_0BA@DNGLKKNB@i3BugReport?4i3b@		; `string'
PUBLIC	??_C@_0BI@KDDNFEEH@?$CFs_?$CF04d?$CF02d?$CF02d?$CF02d?$CF02d@ ; `string'
PUBLIC	??_C@_0M@EHOADKMO@?$FLO?1S?5info?$FN?6@		; `string'
PUBLIC	??_C@_02PHMGELLB@?6?6@				; `string'
PUBLIC	??_C@_0M@DJKCAPJG@?$FLCPU?5info?$FN?6@		; `string'
PUBLIC	??_C@_0M@IJHLHMBE@?$FLGPU?5info?$FN?6@		; `string'
PUBLIC	??_C@_0P@LHBEHDAH@?$FLMemory?5Info?$FN?6@	; `string'
PUBLIC	??_C@_0BE@HNEFJNCM@?$FLMultimedia?5info?$FN?6?5@ ; `string'
PUBLIC	??_C@_0BA@EIJHOIPN@?$FLDirectX?5info?$FN?6@	; `string'
PUBLIC	??_C@_01EEMJAFIK@?6@				; `string'
PUBLIC	??_C@_09MFOLKCNJ@No?5error?4@			; `string'
PUBLIC	??_C@_0N@CCDNLHFP@Open?5failed?4@		; `string'
PUBLIC	??_C@_0N@OCFGAIFM@Read?5failed?4@		; `string'
PUBLIC	??_C@_0O@PIEIFDIH@Write?5failed?4@		; `string'
PUBLIC	??_C@_08FEMIIKOF@Timeout?4@			; `string'
PUBLIC	??_C@_0FE@HICCGMKI@Out?5of?5memory?4?5This?5error?5may?5b@ ; `string'
PUBLIC	??_C@_0EK@LDMDPPBB@Out?5of?5video?5memory?4?5you?5may?5ha@ ; `string'
PUBLIC	??_C@_0HM@NODELNBN@Encription?5was?5broken?4?5This?5err@ ; `string'
PUBLIC	??_C@_0FE@FFHABGBH@Invalid?5format?4?5This?5file?5has?5i@ ; `string'
PUBLIC	??_C@_0BJ@GLGCBHNE@Unsupported?5old?5version?4@	; `string'
PUBLIC	??_C@_0DN@JMAPPNGM@Unknown?5class?5meta?4?5It?8s?5bug?$CB?5p@ ; `string'
PUBLIC	??_C@_0O@NIPGCINC@Unknown?5error@		; `string'
PUBLIC	??_R4I3ExceptionHandler@@6B@			; I3ExceptionHandler::`RTTI Complete Object Locator'
PUBLIC	??_R0?AVI3ExceptionHandler@@@8			; I3ExceptionHandler `RTTI Type Descriptor'
PUBLIC	??_R3I3ExceptionHandler@@8			; I3ExceptionHandler::`RTTI Class Hierarchy Descriptor'
PUBLIC	??_R2I3ExceptionHandler@@8			; I3ExceptionHandler::`RTTI Base Class Array'
PUBLIC	??_R1A@?0A@EA@I3ExceptionHandler@@8		; I3ExceptionHandler::`RTTI Base Class Descriptor at (0,-1,0,64)'
EXTRN	??3@YAXPAXI@Z:PROC				; operator delete
EXTRN	_atexit:PROC
EXTRN	_isalpha:PROC
EXTRN	__imp__CreateFileA@28:PROC
EXTRN	__imp__SetFilePointer@16:PROC
EXTRN	__imp__WriteFile@20:PROC
EXTRN	__imp__CloseHandle@4:PROC
EXTRN	__imp__SetUnhandledExceptionFilter@4:PROC
EXTRN	__imp__SetErrorMode@4:PROC
EXTRN	__imp__WaitForSingleObject@8:PROC
EXTRN	__imp__GetCurrentProcess@0:PROC
EXTRN	__imp__GetCurrentProcessId@0:PROC
EXTRN	__imp__CreateThread@24:PROC
EXTRN	__imp__GetCurrentThreadId@0:PROC
EXTRN	__imp__GetLocalTime@4:PROC
EXTRN	__imp__MessageBoxA@16:PROC
EXTRN	___acrt_iob_func:PROC
EXTRN	___stdio_common_vfprintf:PROC
EXTRN	___stdio_common_vsprintf:PROC
EXTRN	_MiniDumpWriteDump@28:PROC
EXTRN	__imp__closesocket@4:PROC
EXTRN	__imp__htons@4:PROC
EXTRN	__imp__inet_addr@4:PROC
EXTRN	__imp__sendto@24:PROC
EXTRN	__imp__socket@12:PROC
EXTRN	__imp__gethostbyname@4:PROC
EXTRN	__imp__WSAStartup@8:PROC
EXTRN	__imp__WSAGetLastError@0:PROC
EXTRN	??_EI3ExceptionHandler@@UAEPAXI@Z:PROC		; I3ExceptionHandler::`vector deleting destructor'
EXTRN	?Copy@i3String@@YAXPADPBDH@Z:PROC		; i3String::Copy
EXTRN	?Concat@i3String@@YAXPADPBD@Z:PROC		; i3String::Concat
EXTRN	?GetCPUInfo@i3System@@YAXPAD@Z:PROC		; i3System::GetCPUInfo
EXTRN	?GetGPUInfo@i3System@@YAXPAD@Z:PROC		; i3System::GetGPUInfo
EXTRN	?GetOSInfo@i3System@@YAXPAD@Z:PROC		; i3System::GetOSInfo
EXTRN	?GetMemoryInfo@i3System@@YAXPAD@Z:PROC		; i3System::GetMemoryInfo
EXTRN	?GetMultiMediaInfo@i3System@@YAXPAD@Z:PROC	; i3System::GetMultiMediaInfo
EXTRN	?GetDXInfo@i3System@@YAXPAD@Z:PROC		; i3System::GetDXInfo
EXTRN	?GetProcessList@i3System@@YAXPAD@Z:PROC		; i3System::GetProcessList
EXTRN	?DefWindowsLogProc@@YA?AW4I3ERROR_HANDLE@@W4I3LOG_TYPE@@PAD1PAX@Z:PROC ; DefWindowsLogProc
EXTRN	?DefWindowsExpectionProc@@YA?AW4I3ERROR_HANDLE@@PAD@Z:PROC ; DefWindowsExpectionProc
EXTRN	@__security_check_cookie@4:PROC
EXTRN	_memcpy:PROC
EXTRN	_memset:PROC
EXTRN	??_7type_info@@6B@:QWORD			; type_info::`vftable'
EXTRN	___security_cookie:DWORD
;	COMDAT ?_OptionsStorage@?1??__local_stdio_printf_options@@9@4_KA
_BSS	SEGMENT
?_OptionsStorage@?1??__local_stdio_printf_options@@9@4_KA DQ 01H DUP (?) ; `__local_stdio_printf_options'::`2'::_OptionsStorage
_BSS	ENDS
_BSS	SEGMENT
	ALIGN	4

?s_pszErrorFile@@3PBDB DD 01H DUP (?)			; s_pszErrorFile
?s_ErrorLine@@3HA DD 01H DUP (?)			; s_ErrorLine
?s_pszErrorFunc@@3PBDB DD 01H DUP (?)			; s_pszErrorFunc
?s_LogType@@3W4I3LOG_TYPE@@A DD 01H DUP (?)		; s_LogType
?s_pLogProc@@3PAP6A?AW4I3ERROR_HANDLE@@W4I3LOG_TYPE@@PAD1PAX@ZA DD 03H DUP (?) ; s_pLogProc
?s_pUnExpectionProc@@3P6A?AW4I3ERROR_HANDLE@@PAD@ZA DD 01H DUP (?) ; s_pUnExpectionProc
?s_pLogData@@3PAPAXA DD 03H DUP (?)			; s_pLogData
?s_szWhere@@3PADA DB 0200H DUP (?)			; s_szWhere
?s_szMsg@@3PADA DB 0800H DUP (?)			; s_szMsg
?s_szChnName@@3PAY0BAA@DA DB 0300H DUP (?)		; s_szChnName
?s_Packet@@3PADA DB 01000H DUP (?)			; s_Packet
_BSS	ENDS
CRT$XCU	SEGMENT
?s_pExpectionOuter$initializer$@@3P6AXXZA DD FLAT:??__Es_pExpectionOuter@@YAXXZ ; s_pExpectionOuter$initializer$
CRT$XCU	ENDS
;	COMDAT ??_R1A@?0A@EA@I3ExceptionHandler@@8
rdata$r	SEGMENT
??_R1A@?0A@EA@I3ExceptionHandler@@8 DD FLAT:??_R0?AVI3ExceptionHandler@@@8 ; I3ExceptionHandler::`RTTI Base Class Descriptor at (0,-1,0,64)'
	DD	00H
	DD	00H
	DD	0ffffffffH
	DD	00H
	DD	040H
	DD	FLAT:??_R3I3ExceptionHandler@@8
rdata$r	ENDS
;	COMDAT ??_R2I3ExceptionHandler@@8
rdata$r	SEGMENT
??_R2I3ExceptionHandler@@8 DD FLAT:??_R1A@?0A@EA@I3ExceptionHandler@@8 ; I3ExceptionHandler::`RTTI Base Class Array'
rdata$r	ENDS
;	COMDAT ??_R3I3ExceptionHandler@@8
rdata$r	SEGMENT
??_R3I3ExceptionHandler@@8 DD 00H			; I3ExceptionHandler::`RTTI Class Hierarchy Descriptor'
	DD	00H
	DD	01H
	DD	FLAT:??_R2I3ExceptionHandler@@8
rdata$r	ENDS
;	COMDAT ??_R0?AVI3ExceptionHandler@@@8
data$rs	SEGMENT
??_R0?AVI3ExceptionHandler@@@8 DD FLAT:??_7type_info@@6B@ ; I3ExceptionHandler `RTTI Type Descriptor'
	DD	00H
	DB	'.?AVI3ExceptionHandler@@', 00H
data$rs	ENDS
;	COMDAT ??_R4I3ExceptionHandler@@6B@
rdata$r	SEGMENT
??_R4I3ExceptionHandler@@6B@ DD 00H			; I3ExceptionHandler::`RTTI Complete Object Locator'
	DD	00H
	DD	00H
	DD	FLAT:??_R0?AVI3ExceptionHandler@@@8
	DD	FLAT:??_R3I3ExceptionHandler@@8
rdata$r	ENDS
;	COMDAT ??_C@_0O@NIPGCINC@Unknown?5error@
CONST	SEGMENT
??_C@_0O@NIPGCINC@Unknown?5error@ DB 'Unknown error', 00H ; `string'
CONST	ENDS
;	COMDAT ??_C@_0DN@JMAPPNGM@Unknown?5class?5meta?4?5It?8s?5bug?$CB?5p@
CONST	SEGMENT
??_C@_0DN@JMAPPNGM@Unknown?5class?5meta?4?5It?8s?5bug?$CB?5p@ DB 'Unknown'
	DB	' class meta. It''s bug! please report it to developer.', 00H ; `string'
CONST	ENDS
;	COMDAT ??_C@_0BJ@GLGCBHNE@Unsupported?5old?5version?4@
CONST	SEGMENT
??_C@_0BJ@GLGCBHNE@Unsupported?5old?5version?4@ DB 'Unsupported old versi'
	DB	'on.', 00H					; `string'
CONST	ENDS
;	COMDAT ??_C@_0FE@FFHABGBH@Invalid?5format?4?5This?5file?5has?5i@
CONST	SEGMENT
??_C@_0FE@FFHABGBH@Invalid?5format?4?5This?5file?5has?5i@ DB 'Invalid for'
	DB	'mat. This file has invalid or unsupported format, or could be'
	DB	' corrupted.', 00H				; `string'
CONST	ENDS
;	COMDAT ??_C@_0HM@NODELNBN@Encription?5was?5broken?4?5This?5err@
CONST	SEGMENT
??_C@_0HM@NODELNBN@Encription?5was?5broken?4?5This?5err@ DB 'Encription w'
	DB	'as broken. This error could be caused by a malicious software'
	DB	'. You may solve it by running anti-virus software.', 00H ; `string'
CONST	ENDS
;	COMDAT ??_C@_0EK@LDMDPPBB@Out?5of?5video?5memory?4?5you?5may?5ha@
CONST	SEGMENT
??_C@_0EK@LDMDPPBB@Out?5of?5video?5memory?4?5you?5may?5ha@ DB 'Out of vid'
	DB	'eo memory. you may have to update graphic card driver softwar'
	DB	'e.', 00H					; `string'
CONST	ENDS
;	COMDAT ??_C@_0FE@HICCGMKI@Out?5of?5memory?4?5This?5error?5may?5b@
CONST	SEGMENT
??_C@_0FE@HICCGMKI@Out?5of?5memory?4?5This?5error?5may?5b@ DB 'Out of mem'
	DB	'ory. This error may be involved by a bug. please report it to'
	DB	' developers.', 00H				; `string'
CONST	ENDS
;	COMDAT ??_C@_08FEMIIKOF@Timeout?4@
CONST	SEGMENT
??_C@_08FEMIIKOF@Timeout?4@ DB 'Timeout.', 00H		; `string'
CONST	ENDS
;	COMDAT ??_C@_0O@PIEIFDIH@Write?5failed?4@
CONST	SEGMENT
??_C@_0O@PIEIFDIH@Write?5failed?4@ DB 'Write failed.', 00H ; `string'
CONST	ENDS
;	COMDAT ??_C@_0N@OCFGAIFM@Read?5failed?4@
CONST	SEGMENT
??_C@_0N@OCFGAIFM@Read?5failed?4@ DB 'Read failed.', 00H ; `string'
CONST	ENDS
;	COMDAT ??_C@_0N@CCDNLHFP@Open?5failed?4@
CONST	SEGMENT
??_C@_0N@CCDNLHFP@Open?5failed?4@ DB 'Open failed.', 00H ; `string'
CONST	ENDS
;	COMDAT ??_C@_09MFOLKCNJ@No?5error?4@
CONST	SEGMENT
??_C@_09MFOLKCNJ@No?5error?4@ DB 'No error.', 00H	; `string'
CONST	ENDS
;	COMDAT ??_C@_01EEMJAFIK@?6@
CONST	SEGMENT
??_C@_01EEMJAFIK@?6@ DB 0aH, 00H			; `string'
CONST	ENDS
;	COMDAT ??_C@_0BA@EIJHOIPN@?$FLDirectX?5info?$FN?6@
CONST	SEGMENT
??_C@_0BA@EIJHOIPN@?$FLDirectX?5info?$FN?6@ DB '[DirectX info]', 0aH, 00H ; `string'
CONST	ENDS
;	COMDAT ??_C@_0BE@HNEFJNCM@?$FLMultimedia?5info?$FN?6?5@
CONST	SEGMENT
??_C@_0BE@HNEFJNCM@?$FLMultimedia?5info?$FN?6?5@ DB '[Multimedia info]', 0aH
	DB	' ', 00H					; `string'
CONST	ENDS
;	COMDAT ??_C@_0P@LHBEHDAH@?$FLMemory?5Info?$FN?6@
CONST	SEGMENT
??_C@_0P@LHBEHDAH@?$FLMemory?5Info?$FN?6@ DB '[Memory Info]', 0aH, 00H ; `string'
CONST	ENDS
;	COMDAT ??_C@_0M@IJHLHMBE@?$FLGPU?5info?$FN?6@
CONST	SEGMENT
??_C@_0M@IJHLHMBE@?$FLGPU?5info?$FN?6@ DB '[GPU info]', 0aH, 00H ; `string'
CONST	ENDS
;	COMDAT ??_C@_0M@DJKCAPJG@?$FLCPU?5info?$FN?6@
CONST	SEGMENT
??_C@_0M@DJKCAPJG@?$FLCPU?5info?$FN?6@ DB '[CPU info]', 0aH, 00H ; `string'
CONST	ENDS
;	COMDAT ??_C@_02PHMGELLB@?6?6@
CONST	SEGMENT
??_C@_02PHMGELLB@?6?6@ DB 0aH, 0aH, 00H			; `string'
CONST	ENDS
;	COMDAT ??_C@_0M@EHOADKMO@?$FLO?1S?5info?$FN?6@
CONST	SEGMENT
??_C@_0M@EHOADKMO@?$FLO?1S?5info?$FN?6@ DB '[O/S info]', 0aH, 00H ; `string'
CONST	ENDS
;	COMDAT ??_C@_0BI@KDDNFEEH@?$CFs_?$CF04d?$CF02d?$CF02d?$CF02d?$CF02d@
CONST	SEGMENT
??_C@_0BI@KDDNFEEH@?$CFs_?$CF04d?$CF02d?$CF02d?$CF02d?$CF02d@ DB '%s_%04d'
	DB	'%02d%02d%02d%02d', 00H			; `string'
CONST	ENDS
;	COMDAT ??_C@_0BA@DNGLKKNB@i3BugReport?4i3b@
CONST	SEGMENT
??_C@_0BA@DNGLKKNB@i3BugReport?4i3b@ DB 'i3BugReport.i3b', 00H ; `string'
CONST	ENDS
;	COMDAT ??_C@_08GDGGOJBC@?$CFs?5?3?5?$CFs?6@
CONST	SEGMENT
??_C@_08GDGGOJBC@?$CFs?5?3?5?$CFs?6@ DB '%s : %s', 0aH, 00H ; `string'
CONST	ENDS
;	COMDAT ??_C@_0BN@EBBAEFBE@?$CFs?5?3?$FL?$CFd?3?$CF02d?3?$CF02d?3?$CF02d?$FN?5?$CFs?$AN?6@
CONST	SEGMENT
??_C@_0BN@EBBAEFBE@?$CFs?5?3?$FL?$CFd?3?$CF02d?3?$CF02d?3?$CF02d?$FN?5?$CFs?$AN?6@ DB '%'
	DB	's :[%d:%02d:%02d:%02d] %s', 0dH, 0aH, 00H	; `string'
CONST	ENDS
;	COMDAT ??_C@_0P@IBIJCJLK@?$CFs?$CI?$CFd?$CJ?5?3?5?$FL?$CFs?$FN?5@
CONST	SEGMENT
??_C@_0P@IBIJCJLK@?$CFs?$CI?$CFd?$CJ?5?3?5?$FL?$CFs?$FN?5@ DB '%s(%d) : ['
	DB	'%s] ', 00H					; `string'
CONST	ENDS
_DATA	SEGMENT
?s_LogChannel@@3PAIA DD 05H				; s_LogChannel
	DD	05H
	DD	06H
	ORG $+4
?s_pExpectionOuter@@3VI3ExceptionHandler@@A DD FLAT:??_7I3ExceptionHandler@@6B@ ; s_pExpectionOuter
	DW	00H
_DATA	ENDS
;	COMDAT ??_C@_0BO@NIEHMHPM@?$CFs?5?$CFs?$AN?6?$LA?h?$LM?S?5?A?x?G?$OA?G?O?$LN?C?$LA?Z?$LN?$MA?$LE?O?$LB?n?$DP@
CONST	SEGMENT
??_C@_0BO@NIEHMHPM@?$CFs?5?$CFs?$AN?6?$LA?h?$LM?S?5?A?x?G?$OA?G?O?$LN?C?$LA?Z?$LN?$MA?$LE?O?$LB?n?$DP@ DB '%'
	DB	's %s', 0dH, 0aH, 0b0H, 0e8H, 0bcH, 0d3H, ' ', 0c1H, 0f8H, 0c7H
	DB	0e0H, 0c7H, 0cfH, 0bdH, 0c3H, 0b0H, 0daH, 0bdH, 0c0H, 0b4H, 0cfH
	DB	0b1H, 0eeH, '?', 00H				; `string'
CONST	ENDS
;	COMDAT ??_7I3ExceptionHandler@@6B@
CONST	SEGMENT
??_7I3ExceptionHandler@@6B@ DD FLAT:??_R4I3ExceptionHandler@@6B@ ; I3ExceptionHandler::`vftable'
	DD	FLAT:??_EI3ExceptionHandler@@UAEPAXI@Z
	DD	FLAT:?ExceptionInformation@I3ExceptionHandler@@UAEXPAU_EXCEPTION_POINTERS@@@Z
CONST	ENDS
; Function compile flags: /Ogtp
; File E:\Proyectos\JuegosOnlineproyectos\PB\pbblow\Piercing Blow Remake\i3Server\src\i3Base\i3ErrorHandler.cpp
;	COMDAT ?_DefDumpThreadProc@@YAIPAUMinidumpInfo@@@Z
_TEXT	SEGMENT
_pstDumpInfo$ = 8					; size = 4
?_DefDumpThreadProc@@YAIPAUMinidumpInfo@@@Z PROC	; _DefDumpThreadProc, COMDAT

; 559  : {

  00000	55		 push	 ebp
  00001	8b ec		 mov	 ebp, esp
  00003	56		 push	 esi
  00004	57		 push	 edi

; 560  : 
; 561  : 	HANDLE hFile = CreateFile( pstDumpInfo->m_strFileName, GENERIC_READ|GENERIC_WRITE, 0, NULL, OPEN_ALWAYS, FILE_ATTRIBUTE_NORMAL, NULL);

  00005	8b 7d 08	 mov	 edi, DWORD PTR _pstDumpInfo$[ebp]
  00008	6a 00		 push	 0
  0000a	68 80 00 00 00	 push	 128			; 00000080H
  0000f	6a 04		 push	 4
  00011	6a 00		 push	 0
  00013	6a 00		 push	 0
  00015	68 00 00 00 c0	 push	 -1073741824		; c0000000H
  0001a	8d 47 0c	 lea	 eax, DWORD PTR [edi+12]
  0001d	50		 push	 eax
  0001e	ff 15 00 00 00
	00		 call	 DWORD PTR __imp__CreateFileA@28

; 562  : 
; 563  : 	MiniDumpWriteDump( pstDumpInfo->m_hPro, pstDumpInfo->m_dwProcessID, hFile, pstDumpInfo->m_eDumpType, &pstDumpInfo->m_ExceptionInfo, NULL, NULL);

  00024	6a 00		 push	 0
  00026	6a 00		 push	 0
  00028	57		 push	 edi
  00029	ff b7 0c 02 00
	00		 push	 DWORD PTR [edi+524]
  0002f	8b f0		 mov	 esi, eax
  00031	56		 push	 esi
  00032	ff b7 14 02 00
	00		 push	 DWORD PTR [edi+532]
  00038	ff b7 10 02 00
	00		 push	 DWORD PTR [edi+528]
  0003e	e8 00 00 00 00	 call	 _MiniDumpWriteDump@28

; 564  : 
; 565  : 	CloseHandle( hFile );

  00043	56		 push	 esi
  00044	ff 15 00 00 00
	00		 call	 DWORD PTR __imp__CloseHandle@4

; 566  : 
; 567  : 	return 1;

  0004a	5f		 pop	 edi
  0004b	b8 01 00 00 00	 mov	 eax, 1
  00050	5e		 pop	 esi

; 568  : }

  00051	5d		 pop	 ebp
  00052	c3		 ret	 0
?_DefDumpThreadProc@@YAIPAUMinidumpInfo@@@Z ENDP	; _DefDumpThreadProc
_TEXT	ENDS
; Function compile flags: /Ogtp
; File E:\Proyectos\JuegosOnlineproyectos\PB\pbblow\Piercing Blow Remake\i3Server\src\i3Base\i3ErrorHandler.cpp
;	COMDAT ?_logUDP@@YAXXZ
_TEXT	SEGMENT
_hSock$1$ = -424					; size = 4
_wsd$1 = -420						; size = 400
_sa$ = -20						; size = 16
__$ArrayPad$ = -4					; size = 4
?_logUDP@@YAXXZ PROC					; _logUDP, COMDAT

; 232  : {

  00000	55		 push	 ebp
  00001	8b ec		 mov	 ebp, esp
  00003	81 ec a8 01 00
	00		 sub	 esp, 424		; 000001a8H
  00009	a1 00 00 00 00	 mov	 eax, DWORD PTR ___security_cookie
  0000e	33 c5		 xor	 eax, ebp
  00010	89 45 fc	 mov	 DWORD PTR __$ArrayPad$[ebp], eax
  00013	53		 push	 ebx

; 233  : #if !defined( I3_WIPI) && !defined( I3_WINCE )
; 234  : 	SOCKET			hSock;
; 235  : 	SOCKADDR_IN		sa;
; 236  : 	I3_ERROR_INFO *	pMsg;
; 237  : 	UINT32			addr, WhereLen, MsgLen;
; 238  : 	char *			pszHostName, * pszDest;
; 239  : 
; 240  : 	pszHostName = s_szChnName[ s_LogType];

  00014	8b 1d 00 00 00
	00		 mov	 ebx, DWORD PTR ?s_LogType@@3W4I3LOG_TYPE@@A
  0001a	56		 push	 esi

; 241  : 	pMsg = (I3_ERROR_INFO *) s_Packet;
; 242  : 	WhereLen = strlen( s_szWhere);

  0001b	be 00 00 00 00	 mov	 esi, OFFSET ?s_szWhere@@3PADA
  00020	c1 e3 08	 shl	 ebx, 8
  00023	57		 push	 edi
  00024	81 c3 00 00 00
	00		 add	 ebx, OFFSET ?s_szChnName@@3PAY0BAA@DA
  0002a	8d 4e 01	 lea	 ecx, DWORD PTR [esi+1]
  0002d	8d 49 00	 npad	 3
$LL11@logUDP:
  00030	8a 06		 mov	 al, BYTE PTR [esi]
  00032	46		 inc	 esi
  00033	84 c0		 test	 al, al
  00035	75 f9		 jne	 SHORT $LL11@logUDP

; 243  : 	MsgLen = strlen( s_szMsg);

  00037	bf 00 00 00 00	 mov	 edi, OFFSET ?s_szMsg@@3PADA
  0003c	2b f1		 sub	 esi, ecx
  0003e	8d 4f 01	 lea	 ecx, DWORD PTR [edi+1]
$LL12@logUDP:
  00041	8a 07		 mov	 al, BYTE PTR [edi]
  00043	47		 inc	 edi
  00044	84 c0		 test	 al, al
  00046	75 f9		 jne	 SHORT $LL12@logUDP

; 244  : 
; 245  : 	pMsg->m_Version = htons( 0x0100);

  00048	68 00 01 00 00	 push	 256			; 00000100H
  0004d	2b f9		 sub	 edi, ecx
  0004f	ff 15 00 00 00
	00		 call	 DWORD PTR __imp__htons@4

; 246  : 	pMsg->m_Type = htons( (UINT16) s_LogType);

  00055	ff 35 00 00 00
	00		 push	 DWORD PTR ?s_LogType@@3W4I3LOG_TYPE@@A
  0005b	66 a3 00 00 00
	00		 mov	 WORD PTR ?s_Packet@@3PADA, ax
  00061	ff 15 00 00 00
	00		 call	 DWORD PTR __imp__htons@4

; 247  : 	pMsg->m_WhereLength = htons( (UINT16)WhereLen);

  00067	56		 push	 esi
  00068	66 a3 02 00 00
	00		 mov	 WORD PTR ?s_Packet@@3PADA+2, ax
  0006e	ff 15 00 00 00
	00		 call	 DWORD PTR __imp__htons@4

; 248  : 	pMsg->m_MsgLength = htons( (UINT16)MsgLen);

  00074	57		 push	 edi
  00075	66 a3 04 00 00
	00		 mov	 WORD PTR ?s_Packet@@3PADA+4, ax
  0007b	ff 15 00 00 00
	00		 call	 DWORD PTR __imp__htons@4

; 249  : 
; 250  : 	// Where
; 251  : 	pszDest = s_Packet + sizeof(I3_ERROR_INFO);
; 252  : 	memcpy( pszDest, s_szWhere, WhereLen);

  00081	56		 push	 esi
  00082	68 00 00 00 00	 push	 OFFSET ?s_szWhere@@3PADA
  00087	68 08 00 00 00	 push	 OFFSET ?s_Packet@@3PADA+8
  0008c	66 a3 06 00 00
	00		 mov	 WORD PTR ?s_Packet@@3PADA+6, ax
  00092	e8 00 00 00 00	 call	 _memcpy

; 253  : 
; 254  : 	// Msg
; 255  : 	pszDest = pszDest + WhereLen;
; 256  : 	memcpy( pszDest, s_szMsg, MsgLen);

  00097	57		 push	 edi
  00098	8d 86 08 00 00
	00		 lea	 eax, DWORD PTR ?s_Packet@@3PADA[esi+8]
  0009e	68 00 00 00 00	 push	 OFFSET ?s_szMsg@@3PADA
  000a3	50		 push	 eax
  000a4	e8 00 00 00 00	 call	 _memcpy
  000a9	83 c4 18	 add	 esp, 24			; 00000018H

; 257  : 
; 258  : 
; 259  : 	#if defined( I3_WINDOWS)
; 260  : 		hSock = socket( AF_INET, SOCK_DGRAM, 0 );	/******** DataGram ********/ 

  000ac	6a 00		 push	 0
  000ae	6a 02		 push	 2
  000b0	6a 02		 push	 2
  000b2	ff 15 00 00 00
	00		 call	 DWORD PTR __imp__socket@12
  000b8	89 85 58 fe ff
	ff		 mov	 DWORD PTR _hSock$1$[ebp], eax

; 261  : 	#elif defined( I3_PS2)
; 262  : 		hSock = sceInsockSocket( AF_INET, SOCK_DGRAM, 0);
; 263  : 	#endif
; 264  : 	
; 265  : 	if( hSock == INVALID_SOCKET )

  000be	83 f8 ff	 cmp	 eax, -1
  000c1	75 36		 jne	 SHORT $LN6@logUDP

; 266  : 	{
; 267  : 		#if defined(I3_WINDOWS)
; 268  : 			{
; 269  : 				WSADATA	wsd;
; 270  : 
; 271  : 				switch( WSAGetLastError())

  000c3	ff 15 00 00 00
	00		 call	 DWORD PTR __imp__WSAGetLastError@0
  000c9	3d 6d 27 00 00	 cmp	 eax, 10093		; 0000276dH
  000ce	75 29		 jne	 SHORT $LN6@logUDP

; 272  : 				{
; 273  : 					case WSANOTINITIALISED :
; 274  : 						WSAStartup( MAKEWORD(2, 2), &wsd);

  000d0	8d 85 5c fe ff
	ff		 lea	 eax, DWORD PTR _wsd$1[ebp]
  000d6	50		 push	 eax
  000d7	68 02 02 00 00	 push	 514			; 00000202H
  000dc	ff 15 00 00 00
	00		 call	 DWORD PTR __imp__WSAStartup@8

; 275  : 
; 276  : 						hSock = socket( AF_INET, SOCK_DGRAM, 0);

  000e2	6a 00		 push	 0
  000e4	6a 02		 push	 2
  000e6	6a 02		 push	 2
  000e8	ff 15 00 00 00
	00		 call	 DWORD PTR __imp__socket@12
  000ee	89 85 58 fe ff
	ff		 mov	 DWORD PTR _hSock$1$[ebp], eax

; 277  : 						if( hSock == INVALID_SOCKET)

  000f4	83 f8 ff	 cmp	 eax, -1
  000f7	74 7e		 je	 SHORT $LN1@logUDP
$LN6@logUDP:

; 278  : 							return;
; 279  : 						break;
; 280  : 				}// end switch()
; 281  : 				
; 282  : 			}// end if()
; 283  : 			
; 284  : 		#elif defined(I3_PS2)
; 285  : 			I3TRACE("_Log(), socket creation error. error code = %d", sceInsockErrno);
; 286  : 			return;
; 287  : 			
; 288  : 		#else
; 289  : 			I3TRACE("_Log(), socket creation error. error code = %d");
; 290  : 			return;
; 291  : 			
; 292  : 		#endif
; 293  : 	}
; 294  : 
; 295  : 	memset( &sa, 0, sizeof(sa));

  000f9	33 c0		 xor	 eax, eax
  000fb	89 45 ec	 mov	 DWORD PTR _sa$[ebp], eax
  000fe	89 45 f0	 mov	 DWORD PTR _sa$[ebp+4], eax
  00101	89 45 f4	 mov	 DWORD PTR _sa$[ebp+8], eax
  00104	89 45 f8	 mov	 DWORD PTR _sa$[ebp+12], eax

; 296  : 
; 297  : 	sa.sin_family = AF_INET;

  00107	b8 02 00 00 00	 mov	 eax, 2

; 298  : 	sa.sin_port = htons( I3LOG_UDP_PORT);

  0010c	68 79 15 00 00	 push	 5497			; 00001579H
  00111	66 89 45 ec	 mov	 WORD PTR _sa$[ebp], ax
  00115	ff 15 00 00 00
	00		 call	 DWORD PTR __imp__htons@4
  0011b	66 89 45 ee	 mov	 WORD PTR _sa$[ebp+2], ax

; 299  : 	
; 300  : 	if( isalpha( *pszHostName))

  0011f	0f be 03	 movsx	 eax, BYTE PTR [ebx]
  00122	50		 push	 eax
  00123	e8 00 00 00 00	 call	 _isalpha
  00128	83 c4 04	 add	 esp, 4
  0012b	53		 push	 ebx
  0012c	85 c0		 test	 eax, eax
  0012e	74 17		 je	 SHORT $LN7@logUDP

; 301  : 	{
; 302  : 		hostent * pHost;
; 303  : 
; 304  : 		pHost = gethostbyname( pszHostName);

  00130	ff 15 00 00 00
	00		 call	 DWORD PTR __imp__gethostbyname@4

; 305  : 		if( pHost == NULL)

  00136	85 c0		 test	 eax, eax
  00138	75 08		 jne	 SHORT $LN9@logUDP

; 306  : 		{
; 307  : 			#if defined(I3_WINDOWS)
; 308  : 				closesocket( hSock);

  0013a	8b b5 58 fe ff
	ff		 mov	 esi, DWORD PTR _hSock$1$[ebp]

; 309  : 			#elif defined(I3_PS2)
; 310  : 				sceInsockShutdown(hSock, 0);
; 311  : 			#else
; 312  : 				shutdown(hSock, 0);
; 313  : 			#endif
; 314  : 			return;

  00140	eb 2e		 jmp	 SHORT $LN19@logUDP
$LN9@logUDP:

; 315  : 		}
; 316  : 
; 317  : 		addr = inet_addr( pHost->h_addr_list[0]);

  00142	8b 40 0c	 mov	 eax, DWORD PTR [eax+12]
  00145	ff 30		 push	 DWORD PTR [eax]
$LN7@logUDP:

; 318  : 	}
; 319  : 	else
; 320  : 	{
; 321  : 		addr = inet_addr( pszHostName);
; 322  : 	}
; 323  : 
; 324  : 	#if defined(I3_WINDOWS)
; 325  : 		sa.sin_addr.S_un.S_addr = addr;

  00147	ff 15 00 00 00
	00		 call	 DWORD PTR __imp__inet_addr@4

; 326  : 	#else
; 327  : 		sa.sin_addr.s_addr = addr;
; 328  : 	#endif
; 329  : 
; 330  : 	#if defined( I3_WINDOWS)
; 331  : 		sendto( hSock, s_Packet, sizeof(I3_ERROR_INFO) + WhereLen + MsgLen, 0, (SOCKADDR*)&sa, sizeof(sa) );

  0014d	6a 10		 push	 16			; 00000010H
  0014f	89 45 f0	 mov	 DWORD PTR _sa$[ebp+4], eax
  00152	8d 45 ec	 lea	 eax, DWORD PTR _sa$[ebp]
  00155	50		 push	 eax
  00156	6a 00		 push	 0
  00158	8d 46 08	 lea	 eax, DWORD PTR [esi+8]
  0015b	8b b5 58 fe ff
	ff		 mov	 esi, DWORD PTR _hSock$1$[ebp]
  00161	03 c7		 add	 eax, edi
  00163	50		 push	 eax
  00164	68 00 00 00 00	 push	 OFFSET ?s_Packet@@3PADA
  00169	56		 push	 esi
  0016a	ff 15 00 00 00
	00		 call	 DWORD PTR __imp__sendto@24
$LN19@logUDP:

; 332  : 	#elif defined( I3_PS2)
; 333  : 		sceInsockSendto( hSock, s_Packet, sizeof(I3_ERROR_INFO) + WhereLen + MsgLen, 0, (SOCKADDR *)&sa, sizeof(sa));
; 334  : 	#endif
; 335  : 	
; 336  : 	#if defined(I3_WINDOWS)
; 337  : 		closesocket( hSock);
; 338  : 	#elif defined(I3_PS2)
; 339  : 		sceInsockShutdown(hSock, 0);
; 340  : 	#else
; 341  : 		shutdown(hSock, 0);
; 342  : 	#endif
; 343  : #endif
; 344  : }

  00170	56		 push	 esi
  00171	ff 15 00 00 00
	00		 call	 DWORD PTR __imp__closesocket@4
$LN1@logUDP:
  00177	8b 4d fc	 mov	 ecx, DWORD PTR __$ArrayPad$[ebp]
  0017a	5f		 pop	 edi
  0017b	5e		 pop	 esi
  0017c	33 cd		 xor	 ecx, ebp
  0017e	5b		 pop	 ebx
  0017f	e8 00 00 00 00	 call	 @__security_check_cookie@4
  00184	8b e5		 mov	 esp, ebp
  00186	5d		 pop	 ebp
  00187	c3		 ret	 0
?_logUDP@@YAXXZ ENDP					; _logUDP
_TEXT	ENDS
; Function compile flags: /Ogtp
; File E:\Proyectos\JuegosOnlineproyectos\PB\pbblow\Piercing Blow Remake\i3Server\src\i3Base\i3ErrorHandler.cpp
;	COMDAT ?_logFile@@YAXXZ
_TEXT	SEGMENT
_len$ = -24						; size = 4
_SystemTime$ = -20					; size = 16
__$ArrayPad$ = -4					; size = 4
?_logFile@@YAXXZ PROC					; _logFile, COMDAT

; 194  : {

  00000	55		 push	 ebp
  00001	8b ec		 mov	 ebp, esp
  00003	83 ec 18	 sub	 esp, 24			; 00000018H
  00006	a1 00 00 00 00	 mov	 eax, DWORD PTR ___security_cookie
  0000b	33 c5		 xor	 eax, ebp
  0000d	89 45 fc	 mov	 DWORD PTR __$ArrayPad$[ebp], eax
  00010	56		 push	 esi

; 195  : #if defined( I3_WINDOWS)
; 196  : 	HANDLE hFile;
; 197  : 	char * pszHostName;
; 198  : 
; 199  : 	pszHostName = s_szChnName[ s_LogType];

  00011	8b 35 00 00 00
	00		 mov	 esi, DWORD PTR ?s_LogType@@3W4I3LOG_TYPE@@A

; 200  : 
; 201  : 	SYSTEMTIME		SystemTime;
; 202  : 	//Cal Local Time
; 203  : 	::GetLocalTime( &SystemTime );	

  00017	8d 45 ec	 lea	 eax, DWORD PTR _SystemTime$[ebp]
  0001a	c1 e6 08	 shl	 esi, 8
  0001d	50		 push	 eax
  0001e	81 c6 00 00 00
	00		 add	 esi, OFFSET ?s_szChnName@@3PAY0BAA@DA
  00024	ff 15 00 00 00
	00		 call	 DWORD PTR __imp__GetLocalTime@4

; 204  : 	INT32 Year		=	SystemTime.wYear;
; 205  : 	INT32 Month		=	SystemTime.wMonth; 
; 206  : 	INT32 Day		=	SystemTime.wDay; 	
; 207  : 	INT32 Hour		=	SystemTime.wHour; 
; 208  : 	INT32 Minute	=	SystemTime.wMinute; 		
; 209  : 	INT32 Second	=	SystemTime.wSecond;

  0002a	0f b7 45 f8	 movzx	 eax, WORD PTR _SystemTime$[ebp+12]

; 210  : 	INT32 iDate	= (Year * 10000) + (Month) * 100 + Day;
; 211  : 
; 212  : 	sprintf( s_Packet, "%s :[%d:%02d:%02d:%02d] %s\r\n", s_szWhere, iDate, Hour, Minute, Second, s_szMsg);

  0002e	68 00 00 00 00	 push	 OFFSET ?s_szMsg@@3PADA
  00033	50		 push	 eax
  00034	0f b7 45 f6	 movzx	 eax, WORD PTR _SystemTime$[ebp+10]
  00038	50		 push	 eax
  00039	0f b7 45 f4	 movzx	 eax, WORD PTR _SystemTime$[ebp+8]
  0003d	50		 push	 eax
  0003e	0f b7 45 ec	 movzx	 eax, WORD PTR _SystemTime$[ebp]
  00042	6b c8 64	 imul	 ecx, eax, 100
  00045	0f b7 45 ee	 movzx	 eax, WORD PTR _SystemTime$[ebp+2]
  00049	03 c8		 add	 ecx, eax
  0004b	0f b7 45 f2	 movzx	 eax, WORD PTR _SystemTime$[ebp+6]
  0004f	6b c9 64	 imul	 ecx, ecx, 100
  00052	03 c8		 add	 ecx, eax
  00054	51		 push	 ecx
  00055	68 00 00 00 00	 push	 OFFSET ?s_szWhere@@3PADA
  0005a	68 00 00 00 00	 push	 OFFSET ??_C@_0BN@EBBAEFBE@?$CFs?5?3?$FL?$CFd?3?$CF02d?3?$CF02d?3?$CF02d?$FN?5?$CFs?$AN?6@
  0005f	68 00 00 00 00	 push	 OFFSET ?s_Packet@@3PADA
  00064	e8 00 00 00 00	 call	 _sprintf
  00069	83 c4 20	 add	 esp, 32			; 00000020H

; 213  : 	//sprintf( s_Packet, "%s : %s\r\n", s_szWhere, s_szMsg);
; 214  : 
; 215  : 	hFile = CreateFile( pszHostName, GENERIC_WRITE, FILE_SHARE_DELETE | FILE_SHARE_READ, NULL, OPEN_ALWAYS, FILE_ATTRIBUTE_NORMAL, NULL);

  0006c	6a 00		 push	 0
  0006e	68 80 00 00 00	 push	 128			; 00000080H
  00073	6a 04		 push	 4
  00075	6a 00		 push	 0
  00077	6a 05		 push	 5
  00079	68 00 00 00 40	 push	 1073741824		; 40000000H
  0007e	56		 push	 esi
  0007f	ff 15 00 00 00
	00		 call	 DWORD PTR __imp__CreateFileA@28
  00085	8b f0		 mov	 esi, eax

; 216  : 	if( hFile == INVALID_HANDLE_VALUE)

  00087	83 fe ff	 cmp	 esi, -1
  0008a	74 38		 je	 SHORT $LN1@logFile

; 217  : 	{
; 218  : 		I3TRACE( "_log : Could not open %s file.\n", pszHostName);
; 219  : 		return;
; 220  : 	}
; 221  : 
; 222  : 	SetFilePointer( hFile, 0, NULL, FILE_END);

  0008c	6a 02		 push	 2
  0008e	6a 00		 push	 0
  00090	6a 00		 push	 0
  00092	56		 push	 esi
  00093	ff 15 00 00 00
	00		 call	 DWORD PTR __imp__SetFilePointer@16

; 223  : 
; 224  : 	DWORD len;
; 225  : 	WriteFile( hFile, s_Packet, strlen( s_Packet), &len, NULL);

  00099	b9 00 00 00 00	 mov	 ecx, OFFSET ?s_Packet@@3PADA
  0009e	8d 51 01	 lea	 edx, DWORD PTR [ecx+1]
$LL4@logFile:
  000a1	8a 01		 mov	 al, BYTE PTR [ecx]
  000a3	41		 inc	 ecx
  000a4	84 c0		 test	 al, al
  000a6	75 f9		 jne	 SHORT $LL4@logFile
  000a8	6a 00		 push	 0
  000aa	8d 45 e8	 lea	 eax, DWORD PTR _len$[ebp]
  000ad	2b ca		 sub	 ecx, edx
  000af	50		 push	 eax
  000b0	51		 push	 ecx
  000b1	68 00 00 00 00	 push	 OFFSET ?s_Packet@@3PADA
  000b6	56		 push	 esi
  000b7	ff 15 00 00 00
	00		 call	 DWORD PTR __imp__WriteFile@20

; 226  : 
; 227  : 	CloseHandle( hFile);

  000bd	56		 push	 esi
  000be	ff 15 00 00 00
	00		 call	 DWORD PTR __imp__CloseHandle@4
$LN1@logFile:

; 228  : #endif
; 229  : }

  000c4	8b 4d fc	 mov	 ecx, DWORD PTR __$ArrayPad$[ebp]
  000c7	33 cd		 xor	 ecx, ebp
  000c9	5e		 pop	 esi
  000ca	e8 00 00 00 00	 call	 @__security_check_cookie@4
  000cf	8b e5		 mov	 esp, ebp
  000d1	5d		 pop	 ebp
  000d2	c3		 ret	 0
?_logFile@@YAXXZ ENDP					; _logFile
_TEXT	ENDS
; Function compile flags: /Ogtp
; File E:\Proyectos\JuegosOnlineproyectos\PB\pbblow\Piercing Blow Remake\i3Server\src\i3Base\i3ErrorHandler.cpp
;	COMDAT ?CheckUnhandledException@@YGJPAU_EXCEPTION_POINTERS@@@Z
_TEXT	SEGMENT
_stDumpInfo$1 = -556					; size = 536
_st$2 = -20						; size = 16
__$ArrayPad$ = -4					; size = 4
_pExceptionInfo$ = 8					; size = 4
?CheckUnhandledException@@YGJPAU_EXCEPTION_POINTERS@@@Z PROC ; CheckUnhandledException, COMDAT

; 168  : {

  00000	55		 push	 ebp
  00001	8b ec		 mov	 ebp, esp
  00003	81 ec 2c 02 00
	00		 sub	 esp, 556		; 0000022cH
  00009	a1 00 00 00 00	 mov	 eax, DWORD PTR ___security_cookie
  0000e	33 c5		 xor	 eax, ebp
  00010	89 45 fc	 mov	 DWORD PTR __$ArrayPad$[ebp], eax
  00013	56		 push	 esi
  00014	8b 75 08	 mov	 esi, DWORD PTR _pExceptionInfo$[ebp]

; 169  : #if defined( I3_WINDOWS)
; 170  : 	SetErrorMode(SEM_NOGPFAULTERRORBOX);

  00017	6a 02		 push	 2
  00019	ff 15 00 00 00
	00		 call	 DWORD PTR __imp__SetErrorMode@4

; 576  : 	stDumpInfo.m_hPro = GetCurrentProcess();

  0001f	ff 15 00 00 00
	00		 call	 DWORD PTR __imp__GetCurrentProcess@0
  00025	89 45 e4	 mov	 DWORD PTR _stDumpInfo$1[ebp+528], eax

; 577  : 	stDumpInfo.m_dwProcessID = GetCurrentProcessId();

  00028	ff 15 00 00 00
	00		 call	 DWORD PTR __imp__GetCurrentProcessId@0
  0002e	89 45 e8	 mov	 DWORD PTR _stDumpInfo$1[ebp+532], eax

; 578  : 	stDumpInfo.m_ExceptionInfo.ThreadId = GetCurrentThreadId();

  00031	ff 15 00 00 00
	00		 call	 DWORD PTR __imp__GetCurrentThreadId@0
  00037	89 85 d4 fd ff
	ff		 mov	 DWORD PTR _stDumpInfo$1[ebp], eax

; 579  : 	stDumpInfo.m_ExceptionInfo.ExceptionPointers = pExceptionInfo;
; 580  : 	stDumpInfo.m_ExceptionInfo.ClientPointers = FALSE;
; 581  : 	stDumpInfo.m_eDumpType = (MINIDUMP_TYPE)m_uDumpType;

  0003d	0f b7 05 04 00
	00 00		 movzx	 eax, WORD PTR ?s_pExpectionOuter@@3VI3ExceptionHandler@@A+4
  00044	89 45 e0	 mov	 DWORD PTR _stDumpInfo$1[ebp+524], eax

; 582  : 	
; 583  : 	SYSTEMTIME st; 
; 584  :     GetLocalTime(&st); 

  00047	8d 45 ec	 lea	 eax, DWORD PTR _st$2[ebp]
  0004a	50		 push	 eax
  0004b	89 b5 d8 fd ff
	ff		 mov	 DWORD PTR _stDumpInfo$1[ebp+4], esi
  00051	c7 85 dc fd ff
	ff 00 00 00 00	 mov	 DWORD PTR _stDumpInfo$1[ebp+8], 0
  0005b	ff 15 00 00 00
	00		 call	 DWORD PTR __imp__GetLocalTime@4

; 585  : 
; 586  : 	sprintf( stDumpInfo.m_strFileName, "%s_%04d%02d%02d%02d%02d", m_szDmpFileName, st.wYear, st.wMonth, st.wDay, st.wHour, st.wMinute );

  00061	0f b7 45 f6	 movzx	 eax, WORD PTR _st$2[ebp+10]
  00065	50		 push	 eax
  00066	0f b7 45 f4	 movzx	 eax, WORD PTR _st$2[ebp+8]
  0006a	50		 push	 eax
  0006b	0f b7 45 f2	 movzx	 eax, WORD PTR _st$2[ebp+6]
  0006f	50		 push	 eax
  00070	0f b7 45 ee	 movzx	 eax, WORD PTR _st$2[ebp+2]
  00074	50		 push	 eax
  00075	0f b7 45 ec	 movzx	 eax, WORD PTR _st$2[ebp]
  00079	50		 push	 eax
  0007a	68 06 00 00 00	 push	 OFFSET ?s_pExpectionOuter@@3VI3ExceptionHandler@@A+6
  0007f	8d 85 e0 fd ff
	ff		 lea	 eax, DWORD PTR _stDumpInfo$1[ebp+12]
  00085	68 00 00 00 00	 push	 OFFSET ??_C@_0BI@KDDNFEEH@?$CFs_?$CF04d?$CF02d?$CF02d?$CF02d?$CF02d@
  0008a	50		 push	 eax
  0008b	e8 00 00 00 00	 call	 _sprintf
  00090	83 c4 20	 add	 esp, 32			; 00000020H

; 587  : 
; 588  : 	HANDLE hThread = CreateThread(  NULL, 4096,	(LPTHREAD_START_ROUTINE)_DefDumpThreadProc,	&stDumpInfo, NULL, NULL);

  00093	8d 85 d4 fd ff
	ff		 lea	 eax, DWORD PTR _stDumpInfo$1[ebp]
  00099	6a 00		 push	 0
  0009b	6a 00		 push	 0
  0009d	50		 push	 eax
  0009e	68 00 00 00 00	 push	 OFFSET ?_DefDumpThreadProc@@YAIPAUMinidumpInfo@@@Z ; _DefDumpThreadProc
  000a3	68 00 10 00 00	 push	 4096			; 00001000H
  000a8	6a 00		 push	 0
  000aa	ff 15 00 00 00
	00		 call	 DWORD PTR __imp__CreateThread@24
  000b0	8b f0		 mov	 esi, eax

; 589  : 
; 590  : 	WaitForSingleObject( hThread, INFINITE );

  000b2	6a ff		 push	 -1
  000b4	56		 push	 esi
  000b5	ff 15 00 00 00
	00		 call	 DWORD PTR __imp__WaitForSingleObject@8

; 591  : 	
; 592  : 	CloseHandle( hThread );

  000bb	56		 push	 esi
  000bc	ff 15 00 00 00
	00		 call	 DWORD PTR __imp__CloseHandle@4

; 171  : #endif
; 172  : 	s_pExpectionOuter.SetCreateMiniDump( pExceptionInfo );
; 173  : 	//s_pExpectionOuter.ExceptionInformation( pExceptionInfo );
; 174  : 	return 0;
; 175  : }

  000c2	8b 4d fc	 mov	 ecx, DWORD PTR __$ArrayPad$[ebp]
  000c5	33 c0		 xor	 eax, eax
  000c7	33 cd		 xor	 ecx, ebp
  000c9	5e		 pop	 esi
  000ca	e8 00 00 00 00	 call	 @__security_check_cookie@4
  000cf	8b e5		 mov	 esp, ebp
  000d1	5d		 pop	 ebp
  000d2	c2 04 00	 ret	 4
?CheckUnhandledException@@YGJPAU_EXCEPTION_POINTERS@@@Z ENDP ; CheckUnhandledException
_TEXT	ENDS
; Function compile flags: /Ogtp
;	COMDAT ??__Fs_pExpectionOuter@@YAXXZ
text$yd	SEGMENT
??__Fs_pExpectionOuter@@YAXXZ PROC			; `dynamic atexit destructor for 's_pExpectionOuter'', COMDAT
  00000	c7 05 00 00 00
	00 00 00 00 00	 mov	 DWORD PTR ?s_pExpectionOuter@@3VI3ExceptionHandler@@A, OFFSET ??_7I3ExceptionHandler@@6B@
  0000a	c3		 ret	 0
??__Fs_pExpectionOuter@@YAXXZ ENDP			; `dynamic atexit destructor for 's_pExpectionOuter''
text$yd	ENDS
; Function compile flags: /Ogtp
; File E:\Proyectos\JuegosOnlineproyectos\PB\pbblow\Piercing Blow Remake\i3Server\src\i3Base\i3ErrorHandler.cpp
;	COMDAT ??__Es_pExpectionOuter@@YAXXZ
text$di	SEGMENT
??__Es_pExpectionOuter@@YAXXZ PROC			; `dynamic initializer for 's_pExpectionOuter'', COMDAT

; 409  : 	i3String::Copy( m_szDmpFileName, "i3BugReport.i3b", MAX_PATH);

  00000	68 04 01 00 00	 push	 260			; 00000104H
  00005	68 00 00 00 00	 push	 OFFSET ??_C@_0BA@DNGLKKNB@i3BugReport?4i3b@
  0000a	68 06 00 00 00	 push	 OFFSET ?s_pExpectionOuter@@3VI3ExceptionHandler@@A+6
  0000f	e8 00 00 00 00	 call	 ?Copy@i3String@@YAXPADPBDH@Z ; i3String::Copy

; 165  : static I3ExceptionHandler	s_pExpectionOuter;

  00014	68 00 00 00 00	 push	 OFFSET ??__Fs_pExpectionOuter@@YAXXZ ; `dynamic atexit destructor for 's_pExpectionOuter''
  00019	e8 00 00 00 00	 call	 _atexit
  0001e	83 c4 10	 add	 esp, 16			; 00000010H
  00021	c3		 ret	 0
??__Es_pExpectionOuter@@YAXXZ ENDP			; `dynamic initializer for 's_pExpectionOuter''
text$di	ENDS
; Function compile flags: /Ogtp
; File E:\Proyectos\JuegosOnlineproyectos\PB\pbblow\Piercing Blow Remake\i3Server\src\i3Base\i3ErrorHandler.cpp
;	COMDAT ?s_i3LogDefaultCallBack@@YA?AW4I3ERROR_HANDLE@@W4I3LOG_TYPE@@PAD1PAX@Z
_TEXT	SEGMENT
_szTemp$ = -1028					; size = 1024
__$ArrayPad$ = -4					; size = 4
___formal$ = 8						; size = 4
_pszWhere$ = 12						; size = 4
_pszMsg$ = 16						; size = 4
_pUserData$ = 20					; size = 4
?s_i3LogDefaultCallBack@@YA?AW4I3ERROR_HANDLE@@W4I3LOG_TYPE@@PAD1PAX@Z PROC ; s_i3LogDefaultCallBack, COMDAT

; 19   : {

  00000	55		 push	 ebp
  00001	8b ec		 mov	 ebp, esp
  00003	81 ec 04 04 00
	00		 sub	 esp, 1028		; 00000404H
  00009	a1 00 00 00 00	 mov	 eax, DWORD PTR ___security_cookie
  0000e	33 c5		 xor	 eax, ebp
  00010	89 45 fc	 mov	 DWORD PTR __$ArrayPad$[ebp], eax
  00013	8b 45 10	 mov	 eax, DWORD PTR _pszMsg$[ebp]
  00016	8b 4d 0c	 mov	 ecx, DWORD PTR _pszWhere$[ebp]
  00019	56		 push	 esi
  0001a	8b 75 14	 mov	 esi, DWORD PTR _pUserData$[ebp]

; 20   : #ifdef I3_WINDOWS
; 21   : 	HWND hWnd = (HWND)pUserData;
; 22   : 	char szTemp[1024];
; 23   : 	sprintf( szTemp, "%s %s\r\n°čĽÓ ÁřÇŕÇĎ˝Ă°Ú˝Ŕ´Ď±î?", pszWhere, pszMsg );

  0001d	50		 push	 eax
  0001e	51		 push	 ecx
  0001f	8d 85 fc fb ff
	ff		 lea	 eax, DWORD PTR _szTemp$[ebp]
  00025	68 00 00 00 00	 push	 OFFSET ??_C@_0BO@NIEHMHPM@?$CFs?5?$CFs?$AN?6?$LA?h?$LM?S?5?A?x?G?$OA?G?O?$LN?C?$LA?Z?$LN?$MA?$LE?O?$LB?n?$DP@
  0002a	50		 push	 eax
  0002b	e8 00 00 00 00	 call	 _sprintf
  00030	83 c4 10	 add	 esp, 16			; 00000010H

; 24   : 	int nRet = MessageBox( hWnd, szTemp, NULL, MB_YESNO );

  00033	8d 85 fc fb ff
	ff		 lea	 eax, DWORD PTR _szTemp$[ebp]
  00039	6a 04		 push	 4
  0003b	6a 00		 push	 0
  0003d	50		 push	 eax
  0003e	56		 push	 esi
  0003f	ff 15 00 00 00
	00		 call	 DWORD PTR __imp__MessageBoxA@16

; 25   : 	if( nRet == IDYES )
; 26   : 	{
; 27   : 		return I3ERROR_HANDLE_CONTINUE;
; 28   : 	}
; 29   : #endif
; 30   : 
; 31   : 	return I3ERROR_HANDLE_BREAK;
; 32   : }

  00045	33 c9		 xor	 ecx, ecx
  00047	83 f8 06	 cmp	 eax, 6
  0004a	5e		 pop	 esi
  0004b	0f 94 c1	 sete	 cl
  0004e	8b c1		 mov	 eax, ecx
  00050	8b 4d fc	 mov	 ecx, DWORD PTR __$ArrayPad$[ebp]
  00053	33 cd		 xor	 ecx, ebp
  00055	e8 00 00 00 00	 call	 @__security_check_cookie@4
  0005a	8b e5		 mov	 esp, ebp
  0005c	5d		 pop	 ebp
  0005d	c3		 ret	 0
?s_i3LogDefaultCallBack@@YA?AW4I3ERROR_HANDLE@@W4I3LOG_TYPE@@PAD1PAX@Z ENDP ; s_i3LogDefaultCallBack
_TEXT	ENDS
; Function compile flags: /Ogtp
;	COMDAT ??4i3MapFileParser@@QAEAAV0@ABV0@@Z
_TEXT	SEGMENT
___that$ = 8						; size = 4
??4i3MapFileParser@@QAEAAV0@ABV0@@Z PROC		; i3MapFileParser::operator=, COMDAT
; _this$ = ecx
  00000	55		 push	 ebp
  00001	8b ec		 mov	 ebp, esp
  00003	56		 push	 esi
  00004	8b 75 08	 mov	 esi, DWORD PTR ___that$[ebp]
  00007	8b c1		 mov	 eax, ecx
  00009	57		 push	 edi
  0000a	b9 01 02 00 00	 mov	 ecx, 513		; 00000201H
  0000f	8b f8		 mov	 edi, eax
  00011	f3 a5		 rep movsd
  00013	5f		 pop	 edi
  00014	5e		 pop	 esi
  00015	5d		 pop	 ebp
  00016	c2 04 00	 ret	 4
??4i3MapFileParser@@QAEAAV0@ABV0@@Z ENDP		; i3MapFileParser::operator=
_TEXT	ENDS
; Function compile flags: /Ogtp
; File E:\Proyectos\JuegosOnlineproyectos\PB\pbblow\Piercing Blow Remake\i3Server\include\i3Base\i3MapFileParser.h
;	COMDAT ?GetClassNameA@i3MapFileParser@@QAEPADXZ
_TEXT	SEGMENT
?GetClassNameA@i3MapFileParser@@QAEPADXZ PROC		; i3MapFileParser::GetClassNameA, COMDAT
; _this$ = ecx

; 43   : 	char*			GetClassName()							{	return m_szClassName;		};

  00000	8d 81 04 04 00
	00		 lea	 eax, DWORD PTR [ecx+1028]
  00006	c3		 ret	 0
?GetClassNameA@i3MapFileParser@@QAEPADXZ ENDP		; i3MapFileParser::GetClassNameA
_TEXT	ENDS
; Function compile flags: /Ogtp
; File E:\Proyectos\JuegosOnlineproyectos\PB\pbblow\Piercing Blow Remake\i3Server\include\i3Base\i3MapFileParser.h
;	COMDAT ?GetFunctionName@i3MapFileParser@@QAEPADXZ
_TEXT	SEGMENT
?GetFunctionName@i3MapFileParser@@QAEPADXZ PROC		; i3MapFileParser::GetFunctionName, COMDAT
; _this$ = ecx

; 42   : 	char*			GetFunctionName()						{	return m_szFunctionName;	};

  00000	8d 41 04	 lea	 eax, DWORD PTR [ecx+4]
  00003	c3		 ret	 0
?GetFunctionName@i3MapFileParser@@QAEPADXZ ENDP		; i3MapFileParser::GetFunctionName
_TEXT	ENDS
; Function compile flags: /Ogtp
; File E:\Proyectos\JuegosOnlineproyectos\PB\pbblow\Piercing Blow Remake\i3Server\include\i3Base\i3MapFileParser.h
;	COMDAT ?GetSourceLine@i3MapFileParser@@QAEHXZ
_TEXT	SEGMENT
?GetSourceLine@i3MapFileParser@@QAEHXZ PROC		; i3MapFileParser::GetSourceLine, COMDAT
; _this$ = ecx

; 41   : 	INT32			GetSourceLine()							{	return m_nSourceLine;		};

  00000	8b 01		 mov	 eax, DWORD PTR [ecx]
  00002	c3		 ret	 0
?GetSourceLine@i3MapFileParser@@QAEHXZ ENDP		; i3MapFileParser::GetSourceLine
_TEXT	ENDS
; Function compile flags: /Ogtp
; File E:\Proyectos\JuegosOnlineproyectos\PB\pbblow\Piercing Blow Remake\i3Server\include\i3Base\i3MapFileParser.h
;	COMDAT ??1i3MapFileParser@@QAE@XZ
_TEXT	SEGMENT
??1i3MapFileParser@@QAE@XZ PROC				; i3MapFileParser::~i3MapFileParser, COMDAT
; _this$ = ecx

; 16   : 	~i3MapFileParser()	{};

  00000	c2 00 00	 ret	 0
??1i3MapFileParser@@QAE@XZ ENDP				; i3MapFileParser::~i3MapFileParser
_TEXT	ENDS
; Function compile flags: /Ogtp
; File E:\Proyectos\JuegosOnlineproyectos\PB\pbblow\Piercing Blow Remake\i3Server\include\i3Base\i3MapFileParser.h
;	COMDAT ??0i3MapFileParser@@QAE@XZ
_TEXT	SEGMENT
??0i3MapFileParser@@QAE@XZ PROC				; i3MapFileParser::i3MapFileParser, COMDAT
; _this$ = ecx

; 15   : 	i3MapFileParser()	{};

  00000	8b c1		 mov	 eax, ecx
  00002	c3		 ret	 0
??0i3MapFileParser@@QAE@XZ ENDP				; i3MapFileParser::i3MapFileParser
_TEXT	ENDS
; Function compile flags: /Ogtp
; File E:\Proyectos\JuegosOnlineproyectos\PB\pbblow\Piercing Blow Remake\i3Server\src\i3Base\i3ErrorHandler.cpp
;	COMDAT ?I3assertForCoverity@@YAXXZ
_TEXT	SEGMENT
?I3assertForCoverity@@YAXXZ PROC			; I3assertForCoverity, COMDAT

; 76   : 	//şóÇÔĽö
; 77   : }

  00000	c2 00 00	 ret	 0
?I3assertForCoverity@@YAXXZ ENDP			; I3assertForCoverity
_TEXT	ENDS
; Function compile flags: /Ogtp
; File E:\Proyectos\JuegosOnlineproyectos\PB\pbblow\Piercing Blow Remake\i3Server\src\i3Base\i3ErrorHandler.cpp
; File C:\Program Files (x86)\Windows Kits\10\Include\10.0.26100.0\ucrt\stdio.h
; File E:\Proyectos\JuegosOnlineproyectos\PB\pbblow\Piercing Blow Remake\i3Server\src\i3Base\i3ErrorHandler.cpp
; File C:\Program Files (x86)\Windows Kits\10\Include\10.0.26100.0\ucrt\stdio.h
; File E:\Proyectos\JuegosOnlineproyectos\PB\pbblow\Piercing Blow Remake\i3Server\src\i3Base\i3ErrorHandler.cpp
;	COMDAT ?I3BCLog@i3Error@@YAXPBDH00ZZ
_TEXT	SEGMENT
_pszFile$ = 8						; size = 4
_line$ = 12						; size = 4
_pszFunc$ = 16						; size = 4
_pszMsg$ = 20						; size = 4
?I3BCLog@i3Error@@YAXPBDH00ZZ PROC			; i3Error::I3BCLog, COMDAT

; 653  : {

  00000	55		 push	 ebp
  00001	8b ec		 mov	 ebp, esp

; 96   : 	s_pszErrorFunc = pszFunc;

  00003	8b 45 10	 mov	 eax, DWORD PTR _pszFunc$[ebp]
  00006	8b 4d 0c	 mov	 ecx, DWORD PTR _line$[ebp]
  00009	8b 55 08	 mov	 edx, DWORD PTR _pszFile$[ebp]

; 97   : 	s_LogType = lv;
; 98   : 
; 99   : 	sprintf( s_szWhere, "%s(%d) : [%s] ", pszFile, line, pszFunc);

  0000c	50		 push	 eax
  0000d	51		 push	 ecx
  0000e	52		 push	 edx
  0000f	68 00 00 00 00	 push	 OFFSET ??_C@_0P@IBIJCJLK@?$CFs?$CI?$CFd?$CJ?5?3?5?$FL?$CFs?$FN?5@
  00014	68 00 00 00 00	 push	 OFFSET ?s_szWhere@@3PADA
  00019	89 15 00 00 00
	00		 mov	 DWORD PTR ?s_pszErrorFile@@3PBDB, edx
  0001f	89 0d 00 00 00
	00		 mov	 DWORD PTR ?s_ErrorLine@@3HA, ecx
  00025	a3 00 00 00 00	 mov	 DWORD PTR ?s_pszErrorFunc@@3PBDB, eax
  0002a	c7 05 00 00 00
	00 01 00 00 00	 mov	 DWORD PTR ?s_LogType@@3W4I3LOG_TYPE@@A, 1
  00034	e8 00 00 00 00	 call	 _sprintf
  00039	83 c4 14	 add	 esp, 20			; 00000014H
; File C:\Program Files (x86)\Windows Kits\10\Include\10.0.26100.0\ucrt\stdio.h

; 1392 :         int const _Result = __stdio_common_vsprintf(

  0003c	8d 45 18	 lea	 eax, DWORD PTR _pszMsg$[ebp+4]
  0003f	50		 push	 eax
  00040	6a 00		 push	 0
  00042	ff 75 14	 push	 DWORD PTR _pszMsg$[ebp]
  00045	6a ff		 push	 -1
  00047	68 00 00 00 00	 push	 OFFSET ?s_szMsg@@3PADA
  0004c	e8 00 00 00 00	 call	 ___local_stdio_printf_options
  00051	8b 08		 mov	 ecx, DWORD PTR [eax]
  00053	ff 70 04	 push	 DWORD PTR [eax+4]
  00056	83 c9 01	 or	 ecx, 1
  00059	51		 push	 ecx
  0005a	e8 00 00 00 00	 call	 ___stdio_common_vsprintf
; File E:\Proyectos\JuegosOnlineproyectos\PB\pbblow\Piercing Blow Remake\i3Server\src\i3Base\i3ErrorHandler.cpp

; 662  : 	if( s_LogChannel[ s_LogType] & I3ERR_CHN_STDOUT)

  0005f	a1 00 00 00 00	 mov	 eax, DWORD PTR ?s_LogType@@3W4I3LOG_TYPE@@A
; File C:\Program Files (x86)\Windows Kits\10\Include\10.0.26100.0\ucrt\stdio.h

; 1392 :         int const _Result = __stdio_common_vsprintf(

  00064	83 c4 1c	 add	 esp, 28			; 0000001cH
; File E:\Proyectos\JuegosOnlineproyectos\PB\pbblow\Piercing Blow Remake\i3Server\src\i3Base\i3ErrorHandler.cpp

; 662  : 	if( s_LogChannel[ s_LogType] & I3ERR_CHN_STDOUT)

  00067	f6 04 85 00 00
	00 00 01	 test	 BYTE PTR ?s_LogChannel@@3PAIA[eax*4], 1
  0006f	74 27		 je	 SHORT $LN2@I3BCLog

; 663  : 	{
; 664  : 		fprintf( stdout, "%s : %s\n", s_szWhere, s_szMsg);

  00071	68 00 00 00 00	 push	 OFFSET ?s_szMsg@@3PADA
  00076	68 00 00 00 00	 push	 OFFSET ?s_szWhere@@3PADA
  0007b	68 00 00 00 00	 push	 OFFSET ??_C@_08GDGGOJBC@?$CFs?5?3?5?$CFs?6@
  00080	6a 01		 push	 1
  00082	e8 00 00 00 00	 call	 ___acrt_iob_func
  00087	83 c4 04	 add	 esp, 4
  0008a	50		 push	 eax
  0008b	e8 00 00 00 00	 call	 _fprintf
  00090	a1 00 00 00 00	 mov	 eax, DWORD PTR ?s_LogType@@3W4I3LOG_TYPE@@A
  00095	83 c4 10	 add	 esp, 16			; 00000010H
$LN2@I3BCLog:

; 665  : 	}
; 666  : 
; 667  : 	if( s_LogChannel[ s_LogType] & I3ERR_CHN_STDERR)

  00098	f6 04 85 00 00
	00 00 02	 test	 BYTE PTR ?s_LogChannel@@3PAIA[eax*4], 2
  000a0	74 27		 je	 SHORT $LN3@I3BCLog

; 668  : 	{
; 669  : 		fprintf( stderr, "%s : %s\n", s_szWhere, s_szMsg);

  000a2	68 00 00 00 00	 push	 OFFSET ?s_szMsg@@3PADA
  000a7	68 00 00 00 00	 push	 OFFSET ?s_szWhere@@3PADA
  000ac	68 00 00 00 00	 push	 OFFSET ??_C@_08GDGGOJBC@?$CFs?5?3?5?$CFs?6@
  000b1	6a 02		 push	 2
  000b3	e8 00 00 00 00	 call	 ___acrt_iob_func
  000b8	83 c4 04	 add	 esp, 4
  000bb	50		 push	 eax
  000bc	e8 00 00 00 00	 call	 _fprintf
  000c1	a1 00 00 00 00	 mov	 eax, DWORD PTR ?s_LogType@@3W4I3LOG_TYPE@@A
  000c6	83 c4 10	 add	 esp, 16			; 00000010H
$LN3@I3BCLog:

; 670  : 	}
; 671  : 
; 672  : 	if( s_LogChannel[ s_LogType] & I3ERR_CHN_DEBUG)
; 673  : 	{
; 674  : 		I3TRACE( "%s : %s\n", s_szWhere, s_szMsg);
; 675  : 	}
; 676  : 
; 677  : 	if( s_LogChannel[ s_LogType] & I3ERR_CHN_FILE)

  000c9	f6 04 85 00 00
	00 00 10	 test	 BYTE PTR ?s_LogChannel@@3PAIA[eax*4], 16 ; 00000010H
  000d1	74 0a		 je	 SHORT $LN5@I3BCLog

; 678  : 	{
; 679  : 		_logFile();

  000d3	e8 00 00 00 00	 call	 ?_logFile@@YAXXZ	; _logFile
  000d8	a1 00 00 00 00	 mov	 eax, DWORD PTR ?s_LogType@@3W4I3LOG_TYPE@@A
$LN5@I3BCLog:

; 680  : 	}
; 681  : 
; 682  : 	if( s_LogChannel[ s_LogType] & I3ERR_CHN_NETWORK)

  000dd	f6 04 85 00 00
	00 00 20	 test	 BYTE PTR ?s_LogChannel@@3PAIA[eax*4], 32 ; 00000020H
  000e5	74 0a		 je	 SHORT $LN6@I3BCLog

; 683  : 	{
; 684  : 		_logUDP();

  000e7	e8 00 00 00 00	 call	 ?_logUDP@@YAXXZ		; _logUDP
  000ec	a1 00 00 00 00	 mov	 eax, DWORD PTR ?s_LogType@@3W4I3LOG_TYPE@@A
$LN6@I3BCLog:

; 685  : 	}
; 686  : 
; 687  : 	if( s_LogChannel[ s_LogType] & I3ERR_CHN_PIPE)
; 688  : 	{
; 689  : 		_logPipe();
; 690  : 	}
; 691  : 
; 692  : 	if( s_LogChannel[ s_LogType] & I3ERR_CHN_CALLBACK)

  000f1	f6 04 85 00 00
	00 00 08	 test	 BYTE PTR ?s_LogChannel@@3PAIA[eax*4], 8
  000f9	74 22		 je	 SHORT $LN10@I3BCLog

; 693  : 	{
; 694  : 		if( s_pLogProc[ s_LogType] != NULL)

  000fb	8b 0c 85 00 00
	00 00		 mov	 ecx, DWORD PTR ?s_pLogProc@@3PAP6A?AW4I3ERROR_HANDLE@@W4I3LOG_TYPE@@PAD1PAX@ZA[eax*4]
  00102	85 c9		 test	 ecx, ecx
  00104	74 17		 je	 SHORT $LN10@I3BCLog

; 695  : 		{
; 696  : 			if( s_pLogProc[ s_LogType]( s_LogType, s_szWhere, s_szMsg, s_pLogData[ s_LogType]) == I3ERROR_HANDLE_BREAK)

  00106	ff 34 85 00 00
	00 00		 push	 DWORD PTR ?s_pLogData@@3PAPAXA[eax*4]
  0010d	68 00 00 00 00	 push	 OFFSET ?s_szMsg@@3PADA
  00112	68 00 00 00 00	 push	 OFFSET ?s_szWhere@@3PADA
  00117	50		 push	 eax
  00118	ff d1		 call	 ecx
  0011a	83 c4 10	 add	 esp, 16			; 00000010H
$LN10@I3BCLog:

; 697  : 			{
; 698  : #if defined( I3_DEBUG )
; 699  : 				I3ASSERT_0;
; 700  : #endif
; 701  : 			}
; 702  : 		}
; 703  : 	}
; 704  : }

  0011d	5d		 pop	 ebp
  0011e	c3		 ret	 0
?I3BCLog@i3Error@@YAXPBDH00ZZ ENDP			; i3Error::I3BCLog
_TEXT	ENDS
; Function compile flags: /Ogtp
; File E:\Proyectos\JuegosOnlineproyectos\PB\pbblow\Piercing Blow Remake\i3Server\src\i3Base\i3ErrorHandler.cpp
;	COMDAT ?SetDefaultCallback@i3Error@@YAXW4I3LOG_TYPE@@PAX@Z
_TEXT	SEGMENT
_type$ = 8						; size = 4
_pUserData$ = 12					; size = 4
?SetDefaultCallback@i3Error@@YAXW4I3LOG_TYPE@@PAX@Z PROC ; i3Error::SetDefaultCallback, COMDAT

; 150  : {

  00000	55		 push	 ebp
  00001	8b ec		 mov	 ebp, esp

; 135  : 	s_pLogProc[ type] = pUserProc;

  00003	8b 4d 08	 mov	 ecx, DWORD PTR _type$[ebp]

; 136  : 	s_pLogData[ type] = pUserData;

  00006	8b 45 0c	 mov	 eax, DWORD PTR _pUserData$[ebp]

; 137  : 
; 138  : 	if( pUserProc != NULL)
; 139  : 	{
; 140  : 		s_LogChannel[type] |= I3ERR_CHN_CALLBACK;

  00009	83 0c 8d 00 00
	00 00 08	 or	 DWORD PTR ?s_LogChannel@@3PAIA[ecx*4], 8
  00011	c7 04 8d 00 00
	00 00 00 00 00
	00		 mov	 DWORD PTR ?s_pLogProc@@3PAP6A?AW4I3ERROR_HANDLE@@W4I3LOG_TYPE@@PAD1PAX@ZA[ecx*4], OFFSET ?s_i3LogDefaultCallBack@@YA?AW4I3ERROR_HANDLE@@W4I3LOG_TYPE@@PAD1PAX@Z ; s_i3LogDefaultCallBack
  0001c	89 04 8d 00 00
	00 00		 mov	 DWORD PTR ?s_pLogData@@3PAPAXA[ecx*4], eax

; 151  : 	SetCallback( type, s_i3LogDefaultCallBack, pUserData );
; 152  : }

  00023	5d		 pop	 ebp
  00024	c3		 ret	 0
?SetDefaultCallback@i3Error@@YAXW4I3LOG_TYPE@@PAX@Z ENDP ; i3Error::SetDefaultCallback
_TEXT	ENDS
; Function compile flags: /Ogtp
; File E:\Proyectos\JuegosOnlineproyectos\PB\pbblow\Piercing Blow Remake\i3Server\src\i3Base\i3ErrorHandler.cpp
;	COMDAT ?GetEnvLogType@i3Error@@YA?AW4I3LOG_TYPE@@XZ
_TEXT	SEGMENT
?GetEnvLogType@i3Error@@YA?AW4I3LOG_TYPE@@XZ PROC	; i3Error::GetEnvLogType, COMDAT

; 123  : 	return s_LogType;

  00000	a1 00 00 00 00	 mov	 eax, DWORD PTR ?s_LogType@@3W4I3LOG_TYPE@@A

; 124  : }

  00005	c3		 ret	 0
?GetEnvLogType@i3Error@@YA?AW4I3LOG_TYPE@@XZ ENDP	; i3Error::GetEnvLogType
_TEXT	ENDS
; Function compile flags: /Ogtp
; File E:\Proyectos\JuegosOnlineproyectos\PB\pbblow\Piercing Blow Remake\i3Server\src\i3Base\i3ErrorHandler.cpp
;	COMDAT ?GetEnvErrorFunc@i3Error@@YAPBDXZ
_TEXT	SEGMENT
?GetEnvErrorFunc@i3Error@@YAPBDXZ PROC			; i3Error::GetEnvErrorFunc, COMDAT

; 117  : 	return s_pszErrorFunc;

  00000	a1 00 00 00 00	 mov	 eax, DWORD PTR ?s_pszErrorFunc@@3PBDB

; 118  : }

  00005	c3		 ret	 0
?GetEnvErrorFunc@i3Error@@YAPBDXZ ENDP			; i3Error::GetEnvErrorFunc
_TEXT	ENDS
; Function compile flags: /Ogtp
; File E:\Proyectos\JuegosOnlineproyectos\PB\pbblow\Piercing Blow Remake\i3Server\src\i3Base\i3ErrorHandler.cpp
;	COMDAT ?GetEnvErrorLine@i3Error@@YAHXZ
_TEXT	SEGMENT
?GetEnvErrorLine@i3Error@@YAHXZ PROC			; i3Error::GetEnvErrorLine, COMDAT

; 111  : 	return s_ErrorLine;

  00000	a1 00 00 00 00	 mov	 eax, DWORD PTR ?s_ErrorLine@@3HA

; 112  : }

  00005	c3		 ret	 0
?GetEnvErrorLine@i3Error@@YAHXZ ENDP			; i3Error::GetEnvErrorLine
_TEXT	ENDS
; Function compile flags: /Ogtp
; File E:\Proyectos\JuegosOnlineproyectos\PB\pbblow\Piercing Blow Remake\i3Server\src\i3Base\i3ErrorHandler.cpp
;	COMDAT ?GetEnvErrorFile@i3Error@@YAPBDXZ
_TEXT	SEGMENT
?GetEnvErrorFile@i3Error@@YAPBDXZ PROC			; i3Error::GetEnvErrorFile, COMDAT

; 105  : 	return s_pszErrorFile;

  00000	a1 00 00 00 00	 mov	 eax, DWORD PTR ?s_pszErrorFile@@3PBDB

; 106  : }

  00005	c3		 ret	 0
?GetEnvErrorFile@i3Error@@YAPBDXZ ENDP			; i3Error::GetEnvErrorFile
_TEXT	ENDS
; Function compile flags: /Ogtp
; File E:\Proyectos\JuegosOnlineproyectos\PB\pbblow\Piercing Blow Remake\i3Server\src\i3Base\i3ErrorHandler.cpp
;	COMDAT ?getMsg@i3Error@@YAPBDW4CODE@1@@Z
_TEXT	SEGMENT
_code$ = 8						; size = 4
?getMsg@i3Error@@YAPBDW4CODE@1@@Z PROC			; i3Error::getMsg, COMDAT

; 629  : {

  00000	55		 push	 ebp
  00001	8b ec		 mov	 ebp, esp
  00003	8b 4d 08	 mov	 ecx, DWORD PTR _code$[ebp]

; 630  : 	switch( code)

  00006	85 c9		 test	 ecx, ecx
  00008	7f 3e		 jg	 SHORT $LN16@getMsg
  0000a	74 35		 je	 SHORT $LN4@getMsg
  0000c	81 c1 ff ff ff
	7f		 add	 ecx, 2147483647		; 7fffffffH
  00012	83 f9 03	 cmp	 ecx, 3
  00015	77 23		 ja	 SHORT $LN2@getMsg
  00017	ff 24 8d 00 00
	00 00		 jmp	 DWORD PTR $LN18@getMsg[ecx*4]
$LN5@getMsg:

; 633  : 		case _OPENFAIL :				return "Open failed.";

  0001e	b8 00 00 00 00	 mov	 eax, OFFSET ??_C@_0N@CCDNLHFP@Open?5failed?4@

; 649  : }

  00023	5d		 pop	 ebp
  00024	c3		 ret	 0
$LN6@getMsg:

; 634  : 		case _READFAIL	:				return "Read failed.";

  00025	b8 00 00 00 00	 mov	 eax, OFFSET ??_C@_0N@OCFGAIFM@Read?5failed?4@

; 649  : }

  0002a	5d		 pop	 ebp
  0002b	c3		 ret	 0
$LN7@getMsg:

; 635  : 		case _WRITEFAIL :				return "Write failed.";

  0002c	b8 00 00 00 00	 mov	 eax, OFFSET ??_C@_0O@PIEIFDIH@Write?5failed?4@

; 649  : }

  00031	5d		 pop	 ebp
  00032	c3		 ret	 0
$LN8@getMsg:

; 636  : 		case _TIMEOUT :				return "Timeout.";

  00033	b8 00 00 00 00	 mov	 eax, OFFSET ??_C@_08FEMIIKOF@Timeout?4@

; 649  : }

  00038	5d		 pop	 ebp
  00039	c3		 ret	 0
$LN2@getMsg:

; 645  : 		case _UNKNOWNCLASSMETA :		return "Unknown class meta. It's bug! please report it to developer.";
; 646  : 	}
; 647  : 
; 648  : 	return "Unknown error";

  0003a	b8 00 00 00 00	 mov	 eax, OFFSET ??_C@_0O@NIPGCINC@Unknown?5error@

; 649  : }

  0003f	5d		 pop	 ebp
  00040	c3		 ret	 0
$LN4@getMsg:

; 631  : 	{
; 632  : 		case _NOERROR	:				return "No error.";

  00041	b8 00 00 00 00	 mov	 eax, OFFSET ??_C@_09MFOLKCNJ@No?5error?4@

; 649  : }

  00046	5d		 pop	 ebp
  00047	c3		 ret	 0
$LN16@getMsg:

; 630  : 	switch( code)

  00048	81 f9 01 02 00
	00		 cmp	 ecx, 513		; 00000201H
  0004e	7f 39		 jg	 SHORT $LN17@getMsg
  00050	74 30		 je	 SHORT $LN13@getMsg
  00052	83 f9 11	 cmp	 ecx, 17			; 00000011H
  00055	74 24		 je	 SHORT $LN10@getMsg
  00057	81 f9 00 01 00
	00		 cmp	 ecx, 256		; 00000100H
  0005d	74 15		 je	 SHORT $LN11@getMsg
  0005f	81 f9 00 02 00
	00		 cmp	 ecx, 512		; 00000200H
  00065	b8 00 00 00 00	 mov	 eax, OFFSET ??_C@_0FE@FFHABGBH@Invalid?5format?4?5This?5file?5has?5i@
  0006a	ba 00 00 00 00	 mov	 edx, OFFSET ??_C@_0O@NIPGCINC@Unknown?5error@
  0006f	0f 45 c2	 cmovne	 eax, edx

; 649  : }

  00072	5d		 pop	 ebp
  00073	c3		 ret	 0
$LN11@getMsg:

; 640  : 		
; 641  : 		case _ENCRIPT_VIOLATION :		return "Encription was broken. This error could be caused by a malicious software. You may solve it by running anti-virus software.";

  00074	b8 00 00 00 00	 mov	 eax, OFFSET ??_C@_0HM@NODELNBN@Encription?5was?5broken?4?5This?5err@

; 649  : }

  00079	5d		 pop	 ebp
  0007a	c3		 ret	 0
$LN10@getMsg:

; 639  : 		case _OUTOFVIDEOMEMORY :		return "Out of video memory. you may have to update graphic card driver software.";

  0007b	b8 00 00 00 00	 mov	 eax, OFFSET ??_C@_0EK@LDMDPPBB@Out?5of?5video?5memory?4?5you?5may?5ha@

; 649  : }

  00080	5d		 pop	 ebp
  00081	c3		 ret	 0
$LN13@getMsg:

; 642  : 
; 643  : 		case _INVALIDFORMAT :			return "Invalid format. This file has invalid or unsupported format, or could be corrupted.";
; 644  : 		case _OLDVERSION :				return "Unsupported old version.";

  00082	b8 00 00 00 00	 mov	 eax, OFFSET ??_C@_0BJ@GLGCBHNE@Unsupported?5old?5version?4@

; 649  : }

  00087	5d		 pop	 ebp
  00088	c3		 ret	 0
$LN17@getMsg:

; 630  : 	switch( code)

  00089	81 f9 10 00 00
	40		 cmp	 ecx, 1073741840		; 40000010H
  0008f	74 15		 je	 SHORT $LN9@getMsg
  00091	81 f9 02 02 00
	40		 cmp	 ecx, 1073742338		; 40000202H
  00097	b8 00 00 00 00	 mov	 eax, OFFSET ??_C@_0O@NIPGCINC@Unknown?5error@
  0009c	ba 00 00 00 00	 mov	 edx, OFFSET ??_C@_0DN@JMAPPNGM@Unknown?5class?5meta?4?5It?8s?5bug?$CB?5p@
  000a1	0f 44 c2	 cmove	 eax, edx

; 649  : }

  000a4	5d		 pop	 ebp
  000a5	c3		 ret	 0
$LN9@getMsg:

; 637  : 
; 638  : 		case _OUTOFMEMORY :			return "Out of memory. This error may be involved by a bug. please report it to developers.";

  000a6	b8 00 00 00 00	 mov	 eax, OFFSET ??_C@_0FE@HICCGMKI@Out?5of?5memory?4?5This?5error?5may?5b@

; 649  : }

  000ab	5d		 pop	 ebp
  000ac	c3		 ret	 0
  000ad	8d 49 00	 npad	 3
$LN18@getMsg:
  000b0	00 00 00 00	 DD	 $LN5@getMsg
  000b4	00 00 00 00	 DD	 $LN6@getMsg
  000b8	00 00 00 00	 DD	 $LN7@getMsg
  000bc	00 00 00 00	 DD	 $LN8@getMsg
?getMsg@i3Error@@YAPBDW4CODE@1@@Z ENDP			; i3Error::getMsg
_TEXT	ENDS
; Function compile flags: /Ogtp
; File E:\Proyectos\JuegosOnlineproyectos\PB\pbblow\Piercing Blow Remake\i3Server\src\i3Base\i3ErrorHandler.cpp
;	COMDAT ?isErrorReporting@i3Error@@YA_NXZ
_TEXT	SEGMENT
?isErrorReporting@i3Error@@YA_NXZ PROC			; i3Error::isErrorReporting, COMDAT

; 88   : 	return s_bEnterDialog;

  00000	a0 00 00 00 00	 mov	 al, BYTE PTR ?s_bEnterDialog@@3_NA ; s_bEnterDialog

; 89   : }

  00005	c3		 ret	 0
?isErrorReporting@i3Error@@YA_NXZ ENDP			; i3Error::isErrorReporting
_TEXT	ENDS
; Function compile flags: /Ogtp
; File E:\Proyectos\JuegosOnlineproyectos\PB\pbblow\Piercing Blow Remake\i3Server\src\i3Base\i3ErrorHandler.cpp
;	COMDAT ?SetExceptionHandlerOption@i3Error@@YAXH@Z
_TEXT	SEGMENT
_nOption$ = 8						; size = 4
?SetExceptionHandlerOption@i3Error@@YAXH@Z PROC		; i3Error::SetExceptionHandlerOption, COMDAT

; 187  : {

  00000	55		 push	 ebp
  00001	8b ec		 mov	 ebp, esp

; 425  : 	switch( nOption )

  00003	8b 45 08	 mov	 eax, DWORD PTR _nOption$[ebp]
  00006	83 f8 0e	 cmp	 eax, 14			; 0000000eH
  00009	0f 87 bd 00 00
	00		 ja	 $LN21@SetExcepti
  0000f	ff 24 85 00 00
	00 00		 jmp	 DWORD PTR $LN23@SetExcepti[eax*4]
$LN7@SetExcepti:

; 426  : 	{
; 427  : 		case 0:			m_uDumpType = I3MINDUMP_NORMAL;								break;
; 428  : 		case 1:			m_uDumpType = I3MINDUMP_WITHDATASEGS;						break;

  00016	b8 01 00 00 00	 mov	 eax, 1

; 188  : 	s_pExpectionOuter.SetExceptionHandlerOption( nOption );
; 189  : }

  0001b	66 a3 04 00 00
	00		 mov	 WORD PTR ?s_pExpectionOuter@@3VI3ExceptionHandler@@A+4, ax
  00021	5d		 pop	 ebp
  00022	c3		 ret	 0
$LN8@SetExcepti:

; 429  : 		case 2:			m_uDumpType = I3MINDUMP_WITHFULLMEMORY;						break;

  00023	b8 02 00 00 00	 mov	 eax, 2

; 188  : 	s_pExpectionOuter.SetExceptionHandlerOption( nOption );
; 189  : }

  00028	66 a3 04 00 00
	00		 mov	 WORD PTR ?s_pExpectionOuter@@3VI3ExceptionHandler@@A+4, ax
  0002e	5d		 pop	 ebp
  0002f	c3		 ret	 0
$LN9@SetExcepti:

; 430  : 		case 3:			m_uDumpType = I3MINDUMP_WITHHANDLEDATA;						break;

  00030	b8 04 00 00 00	 mov	 eax, 4

; 188  : 	s_pExpectionOuter.SetExceptionHandlerOption( nOption );
; 189  : }

  00035	66 a3 04 00 00
	00		 mov	 WORD PTR ?s_pExpectionOuter@@3VI3ExceptionHandler@@A+4, ax
  0003b	5d		 pop	 ebp
  0003c	c3		 ret	 0
$LN10@SetExcepti:

; 431  : 		case 4:			m_uDumpType = I3MINDUMP_FILTERMEMORY;						break;

  0003d	b8 08 00 00 00	 mov	 eax, 8

; 188  : 	s_pExpectionOuter.SetExceptionHandlerOption( nOption );
; 189  : }

  00042	66 a3 04 00 00
	00		 mov	 WORD PTR ?s_pExpectionOuter@@3VI3ExceptionHandler@@A+4, ax
  00048	5d		 pop	 ebp
  00049	c3		 ret	 0
$LN11@SetExcepti:

; 432  : 		case 5:			m_uDumpType = I3MINDUMP_SCANMEMORY;							break;

  0004a	b8 10 00 00 00	 mov	 eax, 16			; 00000010H

; 188  : 	s_pExpectionOuter.SetExceptionHandlerOption( nOption );
; 189  : }

  0004f	66 a3 04 00 00
	00		 mov	 WORD PTR ?s_pExpectionOuter@@3VI3ExceptionHandler@@A+4, ax
  00055	5d		 pop	 ebp
  00056	c3		 ret	 0
$LN12@SetExcepti:

; 433  : 		case 6:			m_uDumpType = I3MINDUMP_WITHUNLOADEDMODULES;				break;

  00057	b8 20 00 00 00	 mov	 eax, 32			; 00000020H

; 188  : 	s_pExpectionOuter.SetExceptionHandlerOption( nOption );
; 189  : }

  0005c	66 a3 04 00 00
	00		 mov	 WORD PTR ?s_pExpectionOuter@@3VI3ExceptionHandler@@A+4, ax
  00062	5d		 pop	 ebp
  00063	c3		 ret	 0
$LN13@SetExcepti:

; 434  : 		case 7:			m_uDumpType = I3MINDUMP_WITHINDIRECTLYREFERENCEDMEMORY;		break;

  00064	b8 40 00 00 00	 mov	 eax, 64			; 00000040H

; 188  : 	s_pExpectionOuter.SetExceptionHandlerOption( nOption );
; 189  : }

  00069	66 a3 04 00 00
	00		 mov	 WORD PTR ?s_pExpectionOuter@@3VI3ExceptionHandler@@A+4, ax
  0006f	5d		 pop	 ebp
  00070	c3		 ret	 0
$LN14@SetExcepti:

; 435  : 		case 8:			m_uDumpType = I3MINDUMP_FILTERMODULEPATHS;					break;

  00071	b8 80 00 00 00	 mov	 eax, 128		; 00000080H

; 188  : 	s_pExpectionOuter.SetExceptionHandlerOption( nOption );
; 189  : }

  00076	66 a3 04 00 00
	00		 mov	 WORD PTR ?s_pExpectionOuter@@3VI3ExceptionHandler@@A+4, ax
  0007c	5d		 pop	 ebp
  0007d	c3		 ret	 0
$LN15@SetExcepti:

; 436  : 		case 9:			m_uDumpType = I3MINDUMP_WITHPROCESSTHREADDATA;				break;

  0007e	b8 00 01 00 00	 mov	 eax, 256		; 00000100H

; 188  : 	s_pExpectionOuter.SetExceptionHandlerOption( nOption );
; 189  : }

  00083	66 a3 04 00 00
	00		 mov	 WORD PTR ?s_pExpectionOuter@@3VI3ExceptionHandler@@A+4, ax
  00089	5d		 pop	 ebp
  0008a	c3		 ret	 0
$LN16@SetExcepti:

; 437  : 		case 10:		m_uDumpType = I3MINDUMP_WITHPRIVATEREADWRITEMEMORY;			break;

  0008b	b8 00 02 00 00	 mov	 eax, 512		; 00000200H

; 188  : 	s_pExpectionOuter.SetExceptionHandlerOption( nOption );
; 189  : }

  00090	66 a3 04 00 00
	00		 mov	 WORD PTR ?s_pExpectionOuter@@3VI3ExceptionHandler@@A+4, ax
  00096	5d		 pop	 ebp
  00097	c3		 ret	 0
$LN17@SetExcepti:

; 438  : 		case 11:		m_uDumpType = I3MINDUMP_WITHOUTOPTIONALDATA;				break;

  00098	b8 00 04 00 00	 mov	 eax, 1024		; 00000400H

; 188  : 	s_pExpectionOuter.SetExceptionHandlerOption( nOption );
; 189  : }

  0009d	66 a3 04 00 00
	00		 mov	 WORD PTR ?s_pExpectionOuter@@3VI3ExceptionHandler@@A+4, ax
  000a3	5d		 pop	 ebp
  000a4	c3		 ret	 0
$LN18@SetExcepti:

; 439  : 		case 12:		m_uDumpType = I3MINDUMP_WITHFULLMEMORYINFO;					break;

  000a5	b8 00 08 00 00	 mov	 eax, 2048		; 00000800H

; 188  : 	s_pExpectionOuter.SetExceptionHandlerOption( nOption );
; 189  : }

  000aa	66 a3 04 00 00
	00		 mov	 WORD PTR ?s_pExpectionOuter@@3VI3ExceptionHandler@@A+4, ax
  000b0	5d		 pop	 ebp
  000b1	c3		 ret	 0
$LN19@SetExcepti:

; 440  : 		case 13:		m_uDumpType = I3MINDUMP_WITHTHREADINFO;						break;

  000b2	b8 00 10 00 00	 mov	 eax, 4096		; 00001000H

; 188  : 	s_pExpectionOuter.SetExceptionHandlerOption( nOption );
; 189  : }

  000b7	66 a3 04 00 00
	00		 mov	 WORD PTR ?s_pExpectionOuter@@3VI3ExceptionHandler@@A+4, ax
  000bd	5d		 pop	 ebp
  000be	c3		 ret	 0
$LN20@SetExcepti:

; 441  : 		case 14:		m_uDumpType = I3MINDUMP_WITHCODESEGS;						break;

  000bf	b8 00 20 00 00	 mov	 eax, 8192		; 00002000H

; 188  : 	s_pExpectionOuter.SetExceptionHandlerOption( nOption );
; 189  : }

  000c4	66 a3 04 00 00
	00		 mov	 WORD PTR ?s_pExpectionOuter@@3VI3ExceptionHandler@@A+4, ax
  000ca	5d		 pop	 ebp
  000cb	c3		 ret	 0
$LN21@SetExcepti:

; 442  : 		default:		m_uDumpType = I3MINDUMP_NORMAL;								break;

  000cc	33 c0		 xor	 eax, eax

; 188  : 	s_pExpectionOuter.SetExceptionHandlerOption( nOption );
; 189  : }

  000ce	66 a3 04 00 00
	00		 mov	 WORD PTR ?s_pExpectionOuter@@3VI3ExceptionHandler@@A+4, ax
  000d4	5d		 pop	 ebp
  000d5	c3		 ret	 0
  000d6	8b ff		 npad	 2
$LN23@SetExcepti:
  000d8	00 00 00 00	 DD	 $LN21@SetExcepti
  000dc	00 00 00 00	 DD	 $LN7@SetExcepti
  000e0	00 00 00 00	 DD	 $LN8@SetExcepti
  000e4	00 00 00 00	 DD	 $LN9@SetExcepti
  000e8	00 00 00 00	 DD	 $LN10@SetExcepti
  000ec	00 00 00 00	 DD	 $LN11@SetExcepti
  000f0	00 00 00 00	 DD	 $LN12@SetExcepti
  000f4	00 00 00 00	 DD	 $LN13@SetExcepti
  000f8	00 00 00 00	 DD	 $LN14@SetExcepti
  000fc	00 00 00 00	 DD	 $LN15@SetExcepti
  00100	00 00 00 00	 DD	 $LN16@SetExcepti
  00104	00 00 00 00	 DD	 $LN17@SetExcepti
  00108	00 00 00 00	 DD	 $LN18@SetExcepti
  0010c	00 00 00 00	 DD	 $LN19@SetExcepti
  00110	00 00 00 00	 DD	 $LN20@SetExcepti
?SetExceptionHandlerOption@i3Error@@YAXH@Z ENDP		; i3Error::SetExceptionHandlerOption
_TEXT	ENDS
; Function compile flags: /Ogtp
; File E:\Proyectos\JuegosOnlineproyectos\PB\pbblow\Piercing Blow Remake\i3Server\src\i3Base\i3ErrorHandler.cpp
;	COMDAT ?SetExceptionHandler@i3Error@@YAXPBD@Z
_TEXT	SEGMENT
_pszDmpFileName$ = 8					; size = 4
?SetExceptionHandler@i3Error@@YAXPBD@Z PROC		; i3Error::SetExceptionHandler, COMDAT

; 179  : {

  00000	55		 push	 ebp
  00001	8b ec		 mov	 ebp, esp

; 418  : 	if( pszDmpFileName == NULL ) return;

  00003	8b 45 08	 mov	 eax, DWORD PTR _pszDmpFileName$[ebp]
  00006	85 c0		 test	 eax, eax
  00008	74 13		 je	 SHORT $LN3@SetExcepti

; 419  : 
; 420  : 	i3String::Copy( m_szDmpFileName, pszDmpFileName, MAX_PATH);

  0000a	68 04 01 00 00	 push	 260			; 00000104H
  0000f	50		 push	 eax
  00010	68 06 00 00 00	 push	 OFFSET ?s_pExpectionOuter@@3VI3ExceptionHandler@@A+6
  00015	e8 00 00 00 00	 call	 ?Copy@i3String@@YAXPADPBDH@Z ; i3String::Copy
  0001a	83 c4 0c	 add	 esp, 12			; 0000000cH
$LN3@SetExcepti:

; 180  : 	s_pExpectionOuter.SetPath( pszDmpFileName );
; 181  : 
; 182  : 	SetUnhandledExceptionFilter( CheckUnhandledException );	// 20070419 ±čÇöżě

  0001d	68 00 00 00 00	 push	 OFFSET ?CheckUnhandledException@@YGJPAU_EXCEPTION_POINTERS@@@Z ; CheckUnhandledException
  00022	ff 15 00 00 00
	00		 call	 DWORD PTR __imp__SetUnhandledExceptionFilter@4

; 183  : }

  00028	5d		 pop	 ebp
  00029	c3		 ret	 0
?SetExceptionHandler@i3Error@@YAXPBD@Z ENDP		; i3Error::SetExceptionHandler
_TEXT	ENDS
; Function compile flags: /Ogtp
; File E:\Proyectos\JuegosOnlineproyectos\PB\pbblow\Piercing Blow Remake\i3Server\src\i3Base\i3ErrorHandler.cpp
;	COMDAT ?SetChannelName@i3Error@@YAXW4I3LOG_TYPE@@QAD@Z
_TEXT	SEGMENT
_type$ = 8						; size = 4
_pszName$ = 12						; size = 4
?SetChannelName@i3Error@@YAXW4I3LOG_TYPE@@QAD@Z PROC	; i3Error::SetChannelName, COMDAT

; 157  : {

  00000	55		 push	 ebp
  00001	8b ec		 mov	 ebp, esp

; 158  : 	i3String::Copy( s_szChnName[type], pszName, 256);

  00003	8b 45 08	 mov	 eax, DWORD PTR _type$[ebp]
  00006	68 00 01 00 00	 push	 256			; 00000100H
  0000b	ff 75 0c	 push	 DWORD PTR _pszName$[ebp]
  0000e	c1 e0 08	 shl	 eax, 8
  00011	05 00 00 00 00	 add	 eax, OFFSET ?s_szChnName@@3PAY0BAA@DA
  00016	50		 push	 eax
  00017	e8 00 00 00 00	 call	 ?Copy@i3String@@YAXPADPBDH@Z ; i3String::Copy
  0001c	83 c4 0c	 add	 esp, 12			; 0000000cH

; 159  : }

  0001f	5d		 pop	 ebp
  00020	c3		 ret	 0
?SetChannelName@i3Error@@YAXW4I3LOG_TYPE@@QAD@Z ENDP	; i3Error::SetChannelName
_TEXT	ENDS
; Function compile flags: /Ogtp
; File E:\Proyectos\JuegosOnlineproyectos\PB\pbblow\Piercing Blow Remake\i3Server\src\i3Base\i3ErrorHandler.cpp
;	COMDAT ?SetCallback@i3Error@@YAXW4I3LOG_TYPE@@P6A?AW4I3ERROR_HANDLE@@0PAD1PAX@Z2@Z
_TEXT	SEGMENT
_type$ = 8						; size = 4
_pUserProc$ = 12					; size = 4
_pUserData$ = 16					; size = 4
?SetCallback@i3Error@@YAXW4I3LOG_TYPE@@P6A?AW4I3ERROR_HANDLE@@0PAD1PAX@Z2@Z PROC ; i3Error::SetCallback, COMDAT

; 134  : {

  00000	55		 push	 ebp
  00001	8b ec		 mov	 ebp, esp

; 135  : 	s_pLogProc[ type] = pUserProc;
; 136  : 	s_pLogData[ type] = pUserData;

  00003	8b 45 10	 mov	 eax, DWORD PTR _pUserData$[ebp]
  00006	8b 55 0c	 mov	 edx, DWORD PTR _pUserProc$[ebp]
  00009	56		 push	 esi
  0000a	8b 75 08	 mov	 esi, DWORD PTR _type$[ebp]
  0000d	8b 0c b5 00 00
	00 00		 mov	 ecx, DWORD PTR ?s_LogChannel@@3PAIA[esi*4]
  00014	89 04 b5 00 00
	00 00		 mov	 DWORD PTR ?s_pLogData@@3PAPAXA[esi*4], eax

; 137  : 
; 138  : 	if( pUserProc != NULL)
; 139  : 	{
; 140  : 		s_LogChannel[type] |= I3ERR_CHN_CALLBACK;
; 141  : 	}
; 142  : 	else
; 143  : 	{
; 144  : 		s_LogChannel[type] &= ~I3ERR_CHN_CALLBACK;
; 145  : 	}
; 146  : }

  0001b	8b c1		 mov	 eax, ecx
  0001d	83 e0 f7	 and	 eax, -9			; fffffff7H
  00020	89 14 b5 00 00
	00 00		 mov	 DWORD PTR ?s_pLogProc@@3PAP6A?AW4I3ERROR_HANDLE@@W4I3LOG_TYPE@@PAD1PAX@ZA[esi*4], edx
  00027	83 c9 08	 or	 ecx, 8
  0002a	85 d2		 test	 edx, edx
  0002c	0f 44 c8	 cmove	 ecx, eax
  0002f	89 0c b5 00 00
	00 00		 mov	 DWORD PTR ?s_LogChannel@@3PAIA[esi*4], ecx
  00036	5e		 pop	 esi
  00037	5d		 pop	 ebp
  00038	c3		 ret	 0
?SetCallback@i3Error@@YAXW4I3LOG_TYPE@@P6A?AW4I3ERROR_HANDLE@@0PAD1PAX@Z2@Z ENDP ; i3Error::SetCallback
_TEXT	ENDS
; Function compile flags: /Ogtp
; File E:\Proyectos\JuegosOnlineproyectos\PB\pbblow\Piercing Blow Remake\i3Server\src\i3Base\i3ErrorHandler.cpp
;	COMDAT ?SetChannel@i3Error@@YAXW4I3LOG_TYPE@@I@Z
_TEXT	SEGMENT
_type$ = 8						; size = 4
_chn$ = 12						; size = 4
?SetChannel@i3Error@@YAXW4I3LOG_TYPE@@I@Z PROC		; i3Error::SetChannel, COMDAT

; 128  : {

  00000	55		 push	 ebp
  00001	8b ec		 mov	 ebp, esp

; 129  : 	s_LogChannel[type] = chn;

  00003	8b 45 08	 mov	 eax, DWORD PTR _type$[ebp]
  00006	8b 4d 0c	 mov	 ecx, DWORD PTR _chn$[ebp]
  00009	89 0c 85 00 00
	00 00		 mov	 DWORD PTR ?s_LogChannel@@3PAIA[eax*4], ecx

; 130  : }

  00010	5d		 pop	 ebp
  00011	c3		 ret	 0
?SetChannel@i3Error@@YAXW4I3LOG_TYPE@@I@Z ENDP		; i3Error::SetChannel
_TEXT	ENDS
; Function compile flags: /Ogtp
; File E:\Proyectos\JuegosOnlineproyectos\PB\pbblow\Piercing Blow Remake\i3Server\src\i3Base\i3ErrorHandler.cpp
; File C:\Program Files (x86)\Windows Kits\10\Include\10.0.26100.0\ucrt\stdio.h
; File E:\Proyectos\JuegosOnlineproyectos\PB\pbblow\Piercing Blow Remake\i3Server\src\i3Base\i3ErrorHandler.cpp
; File C:\Program Files (x86)\Windows Kits\10\Include\10.0.26100.0\ucrt\stdio.h
; File E:\Proyectos\JuegosOnlineproyectos\PB\pbblow\Piercing Blow Remake\i3Server\src\i3Base\i3ErrorHandler.cpp
;	COMDAT ?Log@i3Error@@YAXPBDZZ
_TEXT	SEGMENT
_pszMsg$ = 8						; size = 4
?Log@i3Error@@YAXPBDZZ PROC				; i3Error::Log, COMDAT

; 352  : {

  00000	55		 push	 ebp
  00001	8b ec		 mov	 ebp, esp
; File C:\Program Files (x86)\Windows Kits\10\Include\10.0.26100.0\ucrt\stdio.h

; 1392 :         int const _Result = __stdio_common_vsprintf(

  00003	8d 45 0c	 lea	 eax, DWORD PTR _pszMsg$[ebp+4]
  00006	50		 push	 eax
  00007	6a 00		 push	 0
  00009	ff 75 08	 push	 DWORD PTR _pszMsg$[ebp]
  0000c	6a ff		 push	 -1
  0000e	68 00 00 00 00	 push	 OFFSET ?s_szMsg@@3PADA
  00013	e8 00 00 00 00	 call	 ___local_stdio_printf_options
  00018	8b 08		 mov	 ecx, DWORD PTR [eax]
  0001a	ff 70 04	 push	 DWORD PTR [eax+4]
  0001d	83 c9 01	 or	 ecx, 1
  00020	51		 push	 ecx
  00021	e8 00 00 00 00	 call	 ___stdio_common_vsprintf
; File E:\Proyectos\JuegosOnlineproyectos\PB\pbblow\Piercing Blow Remake\i3Server\src\i3Base\i3ErrorHandler.cpp

; 359  : 	if( s_LogChannel[ s_LogType] & I3ERR_CHN_STDOUT)

  00026	a1 00 00 00 00	 mov	 eax, DWORD PTR ?s_LogType@@3W4I3LOG_TYPE@@A
; File C:\Program Files (x86)\Windows Kits\10\Include\10.0.26100.0\ucrt\stdio.h

; 1392 :         int const _Result = __stdio_common_vsprintf(

  0002b	83 c4 1c	 add	 esp, 28			; 0000001cH
; File E:\Proyectos\JuegosOnlineproyectos\PB\pbblow\Piercing Blow Remake\i3Server\src\i3Base\i3ErrorHandler.cpp

; 359  : 	if( s_LogChannel[ s_LogType] & I3ERR_CHN_STDOUT)

  0002e	f6 04 85 00 00
	00 00 01	 test	 BYTE PTR ?s_LogChannel@@3PAIA[eax*4], 1
  00036	74 27		 je	 SHORT $LN2@Log

; 360  : 	{
; 361  : 		fprintf( stdout, "%s : %s\n", s_szWhere, s_szMsg);

  00038	68 00 00 00 00	 push	 OFFSET ?s_szMsg@@3PADA
  0003d	68 00 00 00 00	 push	 OFFSET ?s_szWhere@@3PADA
  00042	68 00 00 00 00	 push	 OFFSET ??_C@_08GDGGOJBC@?$CFs?5?3?5?$CFs?6@
  00047	6a 01		 push	 1
  00049	e8 00 00 00 00	 call	 ___acrt_iob_func
  0004e	83 c4 04	 add	 esp, 4
  00051	50		 push	 eax
  00052	e8 00 00 00 00	 call	 _fprintf
  00057	a1 00 00 00 00	 mov	 eax, DWORD PTR ?s_LogType@@3W4I3LOG_TYPE@@A
  0005c	83 c4 10	 add	 esp, 16			; 00000010H
$LN2@Log:

; 362  : 	}
; 363  : 
; 364  : 	if( s_LogChannel[ s_LogType] & I3ERR_CHN_STDERR)

  0005f	f6 04 85 00 00
	00 00 02	 test	 BYTE PTR ?s_LogChannel@@3PAIA[eax*4], 2
  00067	74 27		 je	 SHORT $LN3@Log

; 365  : 	{
; 366  : 		fprintf( stderr, "%s : %s\n", s_szWhere, s_szMsg);

  00069	68 00 00 00 00	 push	 OFFSET ?s_szMsg@@3PADA
  0006e	68 00 00 00 00	 push	 OFFSET ?s_szWhere@@3PADA
  00073	68 00 00 00 00	 push	 OFFSET ??_C@_08GDGGOJBC@?$CFs?5?3?5?$CFs?6@
  00078	6a 02		 push	 2
  0007a	e8 00 00 00 00	 call	 ___acrt_iob_func
  0007f	83 c4 04	 add	 esp, 4
  00082	50		 push	 eax
  00083	e8 00 00 00 00	 call	 _fprintf
  00088	a1 00 00 00 00	 mov	 eax, DWORD PTR ?s_LogType@@3W4I3LOG_TYPE@@A
  0008d	83 c4 10	 add	 esp, 16			; 00000010H
$LN3@Log:

; 367  : 	}
; 368  : 
; 369  : 	if( s_LogChannel[ s_LogType] & I3ERR_CHN_DEBUG)
; 370  : 	{
; 371  : 		I3TRACE( "%s : %s\n", s_szWhere, s_szMsg);
; 372  : 	}
; 373  : 
; 374  : 	if( s_LogChannel[ s_LogType] & I3ERR_CHN_FILE)

  00090	f6 04 85 00 00
	00 00 10	 test	 BYTE PTR ?s_LogChannel@@3PAIA[eax*4], 16 ; 00000010H
  00098	74 0a		 je	 SHORT $LN5@Log

; 375  : 	{
; 376  : 		_logFile();

  0009a	e8 00 00 00 00	 call	 ?_logFile@@YAXXZ	; _logFile
  0009f	a1 00 00 00 00	 mov	 eax, DWORD PTR ?s_LogType@@3W4I3LOG_TYPE@@A
$LN5@Log:

; 377  : 	}
; 378  : 
; 379  : 	if( s_LogChannel[ s_LogType] & I3ERR_CHN_NETWORK)

  000a4	f6 04 85 00 00
	00 00 20	 test	 BYTE PTR ?s_LogChannel@@3PAIA[eax*4], 32 ; 00000020H
  000ac	74 0a		 je	 SHORT $LN6@Log

; 380  : 	{
; 381  : 		_logUDP();

  000ae	e8 00 00 00 00	 call	 ?_logUDP@@YAXXZ		; _logUDP
  000b3	a1 00 00 00 00	 mov	 eax, DWORD PTR ?s_LogType@@3W4I3LOG_TYPE@@A
$LN6@Log:

; 382  : 	}
; 383  : 
; 384  : 	if( s_LogChannel[ s_LogType] & I3ERR_CHN_PIPE)
; 385  : 	{
; 386  : 		_logPipe();
; 387  : 	}
; 388  : 
; 389  : 	if( s_LogChannel[ s_LogType] & I3ERR_CHN_CALLBACK)

  000b8	f6 04 85 00 00
	00 00 08	 test	 BYTE PTR ?s_LogChannel@@3PAIA[eax*4], 8
  000c0	74 30		 je	 SHORT $LN9@Log

; 390  : 	{
; 391  : 		if( s_pLogProc[ s_LogType] != NULL)

  000c2	8b 0c 85 00 00
	00 00		 mov	 ecx, DWORD PTR ?s_pLogProc@@3PAP6A?AW4I3ERROR_HANDLE@@W4I3LOG_TYPE@@PAD1PAX@ZA[eax*4]
  000c9	85 c9		 test	 ecx, ecx
  000cb	74 25		 je	 SHORT $LN9@Log

; 392  : 		{
; 393  : 			s_bEnterDialog = true;
; 394  : 			if( s_pLogProc[ s_LogType]( s_LogType, s_szWhere, s_szMsg, s_pLogData[ s_LogType]) == I3ERROR_HANDLE_BREAK)

  000cd	ff 34 85 00 00
	00 00		 push	 DWORD PTR ?s_pLogData@@3PAPAXA[eax*4]
  000d4	c6 05 00 00 00
	00 01		 mov	 BYTE PTR ?s_bEnterDialog@@3_NA, 1 ; s_bEnterDialog
  000db	68 00 00 00 00	 push	 OFFSET ?s_szMsg@@3PADA
  000e0	68 00 00 00 00	 push	 OFFSET ?s_szWhere@@3PADA
  000e5	50		 push	 eax
  000e6	ff d1		 call	 ecx
  000e8	83 c4 10	 add	 esp, 16			; 00000010H

; 395  : 			{
; 396  : #if defined( I3_DEBUG )
; 397  : 			I3ASSERT_0;
; 398  : #endif
; 399  : 			}
; 400  : 			s_bEnterDialog = false;

  000eb	c6 05 00 00 00
	00 00		 mov	 BYTE PTR ?s_bEnterDialog@@3_NA, 0 ; s_bEnterDialog
$LN9@Log:

; 401  : 		}
; 402  : 	}
; 403  : }

  000f2	5d		 pop	 ebp
  000f3	c3		 ret	 0
?Log@i3Error@@YAXPBDZZ ENDP				; i3Error::Log
_TEXT	ENDS
; Function compile flags: /Ogtp
; File E:\Proyectos\JuegosOnlineproyectos\PB\pbblow\Piercing Blow Remake\i3Server\src\i3Base\i3ErrorHandler.cpp
;	COMDAT ?SetEnv@i3Error@@YAXPBDH0W4I3LOG_TYPE@@@Z
_TEXT	SEGMENT
_pszFile$ = 8						; size = 4
_line$ = 12						; size = 4
_pszFunc$ = 16						; size = 4
_lv$ = 20						; size = 4
?SetEnv@i3Error@@YAXPBDH0W4I3LOG_TYPE@@@Z PROC		; i3Error::SetEnv, COMDAT

; 93   : {

  00000	55		 push	 ebp
  00001	8b ec		 mov	 ebp, esp

; 94   : 	s_pszErrorFile = pszFile;
; 95   : 	s_ErrorLine = line;
; 96   : 	s_pszErrorFunc = pszFunc;

  00003	8b 4d 10	 mov	 ecx, DWORD PTR _pszFunc$[ebp]
  00006	8b 55 0c	 mov	 edx, DWORD PTR _line$[ebp]

; 97   : 	s_LogType = lv;

  00009	8b 45 14	 mov	 eax, DWORD PTR _lv$[ebp]
  0000c	56		 push	 esi
  0000d	8b 75 08	 mov	 esi, DWORD PTR _pszFile$[ebp]

; 98   : 
; 99   : 	sprintf( s_szWhere, "%s(%d) : [%s] ", pszFile, line, pszFunc);

  00010	51		 push	 ecx
  00011	52		 push	 edx
  00012	56		 push	 esi
  00013	68 00 00 00 00	 push	 OFFSET ??_C@_0P@IBIJCJLK@?$CFs?$CI?$CFd?$CJ?5?3?5?$FL?$CFs?$FN?5@
  00018	68 00 00 00 00	 push	 OFFSET ?s_szWhere@@3PADA
  0001d	89 35 00 00 00
	00		 mov	 DWORD PTR ?s_pszErrorFile@@3PBDB, esi
  00023	89 15 00 00 00
	00		 mov	 DWORD PTR ?s_ErrorLine@@3HA, edx
  00029	89 0d 00 00 00
	00		 mov	 DWORD PTR ?s_pszErrorFunc@@3PBDB, ecx
  0002f	a3 00 00 00 00	 mov	 DWORD PTR ?s_LogType@@3W4I3LOG_TYPE@@A, eax
  00034	e8 00 00 00 00	 call	 _sprintf
  00039	83 c4 14	 add	 esp, 20			; 00000014H
  0003c	5e		 pop	 esi

; 100  : }

  0003d	5d		 pop	 ebp
  0003e	c3		 ret	 0
?SetEnv@i3Error@@YAXPBDH0W4I3LOG_TYPE@@@Z ENDP		; i3Error::SetEnv
_TEXT	ENDS
; Function compile flags: /Ogtp
; File E:\Proyectos\JuegosOnlineproyectos\PB\pbblow\Piercing Blow Remake\i3Server\src\i3Base\i3ErrorHandler.cpp
;	COMDAT ?SetMainWindow@i3Error@@YAXPAX@Z
_TEXT	SEGMENT
_hwnd$ = 8						; size = 4
?SetMainWindow@i3Error@@YAXPAX@Z PROC			; i3Error::SetMainWindow, COMDAT

; 81   : {

  00000	55		 push	 ebp
  00001	8b ec		 mov	 ebp, esp

; 82   : 	s_hwndMain = hwnd;

  00003	8b 45 08	 mov	 eax, DWORD PTR _hwnd$[ebp]
  00006	a3 00 00 00 00	 mov	 DWORD PTR ?s_hwndMain@@3PAXA, eax ; s_hwndMain

; 83   : }

  0000b	5d		 pop	 ebp
  0000c	c3		 ret	 0
?SetMainWindow@i3Error@@YAXPAX@Z ENDP			; i3Error::SetMainWindow
_TEXT	ENDS
; Function compile flags: /Ogtp
; File E:\Proyectos\JuegosOnlineproyectos\PB\pbblow\Piercing Blow Remake\i3Server\src\i3Base\i3ErrorHandler.cpp
;	COMDAT ?Init@i3Error@@YAXXZ
_TEXT	SEGMENT
?Init@i3Error@@YAXXZ PROC				; i3Error::Init, COMDAT

; 56   : 	memset( s_pLogProc, 0, sizeof(s_pLogProc));
; 57   : 	memset( s_pLogData, 0, sizeof(s_pLogData));

  00000	33 c0		 xor	 eax, eax

; 58   : 	memset( s_szChnName, 0, sizeof(s_szChnName));

  00002	68 00 03 00 00	 push	 768			; 00000300H
  00007	50		 push	 eax
  00008	68 00 00 00 00	 push	 OFFSET ?s_szChnName@@3PAY0BAA@DA
  0000d	a3 00 00 00 00	 mov	 DWORD PTR ?s_pLogData@@3PAPAXA, eax
  00012	a3 04 00 00 00	 mov	 DWORD PTR ?s_pLogData@@3PAPAXA+4, eax
  00017	a3 08 00 00 00	 mov	 DWORD PTR ?s_pLogData@@3PAPAXA+8, eax
  0001c	e8 00 00 00 00	 call	 _memset

; 59   : 
; 60   : #if defined( I3_WINDOWS)
; 61   : 	for(INT32 i = 0; i < I3LOG_TYPE_MAX; i++)
; 62   : 	{
; 63   : 		s_pLogProc[i]	= DefWindowsLogProc;
; 64   : 	}
; 65   : 
; 66   : 	s_LogChannel[I3LOG_FATAL] |= I3ERR_CHN_CALLBACK;	

  00021	83 0d 08 00 00
	00 08		 or	 DWORD PTR ?s_LogChannel@@3PAIA+8, 8
  00028	83 c4 0c	 add	 esp, 12			; 0000000cH
  0002b	c7 05 00 00 00
	00 00 00 00 00	 mov	 DWORD PTR ?s_pLogProc@@3PAP6A?AW4I3ERROR_HANDLE@@W4I3LOG_TYPE@@PAD1PAX@ZA, OFFSET ?DefWindowsLogProc@@YA?AW4I3ERROR_HANDLE@@W4I3LOG_TYPE@@PAD1PAX@Z ; DefWindowsLogProc
  00035	c7 05 04 00 00
	00 00 00 00 00	 mov	 DWORD PTR ?s_pLogProc@@3PAP6A?AW4I3ERROR_HANDLE@@W4I3LOG_TYPE@@PAD1PAX@ZA+4, OFFSET ?DefWindowsLogProc@@YA?AW4I3ERROR_HANDLE@@W4I3LOG_TYPE@@PAD1PAX@Z ; DefWindowsLogProc
  0003f	c7 05 08 00 00
	00 00 00 00 00	 mov	 DWORD PTR ?s_pLogProc@@3PAP6A?AW4I3ERROR_HANDLE@@W4I3LOG_TYPE@@PAD1PAX@ZA+8, OFFSET ?DefWindowsLogProc@@YA?AW4I3ERROR_HANDLE@@W4I3LOG_TYPE@@PAD1PAX@Z ; DefWindowsLogProc

; 67   : 
; 68   : 	s_pUnExpectionProc	= DefWindowsExpectionProc;	

  00049	c7 05 00 00 00
	00 00 00 00 00	 mov	 DWORD PTR ?s_pUnExpectionProc@@3P6A?AW4I3ERROR_HANDLE@@PAD@ZA, OFFSET ?DefWindowsExpectionProc@@YA?AW4I3ERROR_HANDLE@@PAD@Z ; DefWindowsExpectionProc

; 69   : 	//s_pLogExProc		= DefWindowsLogProc;
; 70   : 
; 71   : #endif
; 72   : }

  00053	c3		 ret	 0
?Init@i3Error@@YAXXZ ENDP				; i3Error::Init
_TEXT	ENDS
; Function compile flags: /Ogtp
;	COMDAT ??_GI3ExceptionHandler@@UAEPAXI@Z
_TEXT	SEGMENT
___flags$ = 8						; size = 4
??_GI3ExceptionHandler@@UAEPAXI@Z PROC			; I3ExceptionHandler::`scalar deleting destructor', COMDAT
; _this$ = ecx
  00000	55		 push	 ebp
  00001	8b ec		 mov	 ebp, esp
  00003	f6 45 08 01	 test	 BYTE PTR ___flags$[ebp], 1
  00007	56		 push	 esi
  00008	8b f1		 mov	 esi, ecx
  0000a	c7 06 00 00 00
	00		 mov	 DWORD PTR [esi], OFFSET ??_7I3ExceptionHandler@@6B@
  00010	74 0e		 je	 SHORT $LN5@scalar
  00012	68 0c 01 00 00	 push	 268			; 0000010cH
  00017	56		 push	 esi
  00018	e8 00 00 00 00	 call	 ??3@YAXPAXI@Z		; operator delete
  0001d	83 c4 08	 add	 esp, 8
$LN5@scalar:
  00020	8b c6		 mov	 eax, esi
  00022	5e		 pop	 esi
  00023	5d		 pop	 ebp
  00024	c2 04 00	 ret	 4
??_GI3ExceptionHandler@@UAEPAXI@Z ENDP			; I3ExceptionHandler::`scalar deleting destructor'
_TEXT	ENDS
; Function compile flags: /Ogtp
; File E:\Proyectos\JuegosOnlineproyectos\PB\pbblow\Piercing Blow Remake\i3Server\src\i3Base\i3ErrorHandler.cpp
;	COMDAT ?GetSystemInfo@I3ExceptionHandler@@QAEXPAD@Z
_TEXT	SEGMENT
_pszTemp$ = 8						; size = 4
?GetSystemInfo@I3ExceptionHandler@@QAEXPAD@Z PROC	; I3ExceptionHandler::GetSystemInfo, COMDAT
; _this$ = ecx

; 599  : {

  00000	55		 push	 ebp
  00001	8b ec		 mov	 ebp, esp
  00003	56		 push	 esi

; 600  : 	i3String::Concat( pszTemp, "[O/S info]\n");

  00004	8b 75 08	 mov	 esi, DWORD PTR _pszTemp$[ebp]
  00007	68 00 00 00 00	 push	 OFFSET ??_C@_0M@EHOADKMO@?$FLO?1S?5info?$FN?6@
  0000c	56		 push	 esi
  0000d	e8 00 00 00 00	 call	 ?Concat@i3String@@YAXPADPBD@Z ; i3String::Concat

; 601  : 	i3System::GetOSInfo( pszTemp);

  00012	56		 push	 esi
  00013	e8 00 00 00 00	 call	 ?GetOSInfo@i3System@@YAXPAD@Z ; i3System::GetOSInfo

; 602  : 	i3String::Concat( pszTemp, "\n\n");

  00018	68 00 00 00 00	 push	 OFFSET ??_C@_02PHMGELLB@?6?6@
  0001d	56		 push	 esi
  0001e	e8 00 00 00 00	 call	 ?Concat@i3String@@YAXPADPBD@Z ; i3String::Concat

; 603  : 
; 604  : 	i3String::Concat( pszTemp, "[CPU info]\n");

  00023	68 00 00 00 00	 push	 OFFSET ??_C@_0M@DJKCAPJG@?$FLCPU?5info?$FN?6@
  00028	56		 push	 esi
  00029	e8 00 00 00 00	 call	 ?Concat@i3String@@YAXPADPBD@Z ; i3String::Concat

; 605  : 	i3System::GetCPUInfo(pszTemp);

  0002e	56		 push	 esi
  0002f	e8 00 00 00 00	 call	 ?GetCPUInfo@i3System@@YAXPAD@Z ; i3System::GetCPUInfo

; 606  : 	i3String::Concat( pszTemp, "\n\n");

  00034	68 00 00 00 00	 push	 OFFSET ??_C@_02PHMGELLB@?6?6@
  00039	56		 push	 esi
  0003a	e8 00 00 00 00	 call	 ?Concat@i3String@@YAXPADPBD@Z ; i3String::Concat

; 607  : 	
; 608  : 	i3String::Concat( pszTemp, "[GPU info]\n");

  0003f	68 00 00 00 00	 push	 OFFSET ??_C@_0M@IJHLHMBE@?$FLGPU?5info?$FN?6@
  00044	56		 push	 esi
  00045	e8 00 00 00 00	 call	 ?Concat@i3String@@YAXPADPBD@Z ; i3String::Concat

; 609  : 	i3System::GetGPUInfo(pszTemp);

  0004a	56		 push	 esi
  0004b	e8 00 00 00 00	 call	 ?GetGPUInfo@i3System@@YAXPAD@Z ; i3System::GetGPUInfo

; 610  : 	i3String::Concat( pszTemp, "\n\n");

  00050	68 00 00 00 00	 push	 OFFSET ??_C@_02PHMGELLB@?6?6@
  00055	56		 push	 esi
  00056	e8 00 00 00 00	 call	 ?Concat@i3String@@YAXPADPBD@Z ; i3String::Concat

; 611  : 
; 612  : 	i3String::Concat( pszTemp, "[Memory Info]\n");

  0005b	68 00 00 00 00	 push	 OFFSET ??_C@_0P@LHBEHDAH@?$FLMemory?5Info?$FN?6@
  00060	56		 push	 esi
  00061	e8 00 00 00 00	 call	 ?Concat@i3String@@YAXPADPBD@Z ; i3String::Concat
  00066	83 c4 44	 add	 esp, 68			; 00000044H

; 613  : 	i3System::GetMemoryInfo(pszTemp);

  00069	56		 push	 esi
  0006a	e8 00 00 00 00	 call	 ?GetMemoryInfo@i3System@@YAXPAD@Z ; i3System::GetMemoryInfo

; 614  : 	i3String::Concat( pszTemp, "\n\n");

  0006f	68 00 00 00 00	 push	 OFFSET ??_C@_02PHMGELLB@?6?6@
  00074	56		 push	 esi
  00075	e8 00 00 00 00	 call	 ?Concat@i3String@@YAXPADPBD@Z ; i3String::Concat

; 615  : 
; 616  : 	i3String::Concat( pszTemp, "[Multimedia info]\n ");

  0007a	68 00 00 00 00	 push	 OFFSET ??_C@_0BE@HNEFJNCM@?$FLMultimedia?5info?$FN?6?5@
  0007f	56		 push	 esi
  00080	e8 00 00 00 00	 call	 ?Concat@i3String@@YAXPADPBD@Z ; i3String::Concat

; 617  : 	i3System::GetMultiMediaInfo(pszTemp);

  00085	56		 push	 esi
  00086	e8 00 00 00 00	 call	 ?GetMultiMediaInfo@i3System@@YAXPAD@Z ; i3System::GetMultiMediaInfo

; 618  : 	i3String::Concat( pszTemp, "\n\n");

  0008b	68 00 00 00 00	 push	 OFFSET ??_C@_02PHMGELLB@?6?6@
  00090	56		 push	 esi
  00091	e8 00 00 00 00	 call	 ?Concat@i3String@@YAXPADPBD@Z ; i3String::Concat

; 619  : 
; 620  : 	i3String::Concat( pszTemp, "[DirectX info]\n");

  00096	68 00 00 00 00	 push	 OFFSET ??_C@_0BA@EIJHOIPN@?$FLDirectX?5info?$FN?6@
  0009b	56		 push	 esi
  0009c	e8 00 00 00 00	 call	 ?Concat@i3String@@YAXPADPBD@Z ; i3String::Concat

; 621  : 	i3System::GetDXInfo(pszTemp);

  000a1	56		 push	 esi
  000a2	e8 00 00 00 00	 call	 ?GetDXInfo@i3System@@YAXPAD@Z ; i3System::GetDXInfo

; 622  : 	i3String::Concat( pszTemp, "\n\n");

  000a7	68 00 00 00 00	 push	 OFFSET ??_C@_02PHMGELLB@?6?6@
  000ac	56		 push	 esi
  000ad	e8 00 00 00 00	 call	 ?Concat@i3String@@YAXPADPBD@Z ; i3String::Concat

; 623  : 
; 624  : 	i3System::GetProcessList(pszTemp);

  000b2	56		 push	 esi
  000b3	e8 00 00 00 00	 call	 ?GetProcessList@i3System@@YAXPAD@Z ; i3System::GetProcessList

; 625  : 	i3String::Concat( pszTemp, "\n");

  000b8	68 00 00 00 00	 push	 OFFSET ??_C@_01EEMJAFIK@?6@
  000bd	56		 push	 esi
  000be	e8 00 00 00 00	 call	 ?Concat@i3String@@YAXPADPBD@Z ; i3String::Concat
  000c3	83 c4 40	 add	 esp, 64			; 00000040H
  000c6	5e		 pop	 esi

; 626  : }

  000c7	5d		 pop	 ebp
  000c8	c2 04 00	 ret	 4
?GetSystemInfo@I3ExceptionHandler@@QAEXPAD@Z ENDP	; I3ExceptionHandler::GetSystemInfo
_TEXT	ENDS
; Function compile flags: /Ogtp
; File E:\Proyectos\JuegosOnlineproyectos\PB\pbblow\Piercing Blow Remake\i3Server\src\i3Base\i3ErrorHandler.cpp
;	COMDAT ?SetCreateMiniDump@I3ExceptionHandler@@QAEXPAU_EXCEPTION_POINTERS@@@Z
_TEXT	SEGMENT
_stDumpInfo$ = -556					; size = 536
_st$ = -20						; size = 16
__$ArrayPad$ = -4					; size = 4
_pExceptionInfo$ = 8					; size = 4
?SetCreateMiniDump@I3ExceptionHandler@@QAEXPAU_EXCEPTION_POINTERS@@@Z PROC ; I3ExceptionHandler::SetCreateMiniDump, COMDAT
; _this$ = ecx

; 571  : {

  00000	55		 push	 ebp
  00001	8b ec		 mov	 ebp, esp
  00003	81 ec 2c 02 00
	00		 sub	 esp, 556		; 0000022cH
  00009	a1 00 00 00 00	 mov	 eax, DWORD PTR ___security_cookie
  0000e	33 c5		 xor	 eax, ebp
  00010	89 45 fc	 mov	 DWORD PTR __$ArrayPad$[ebp], eax
  00013	56		 push	 esi
  00014	8b 75 08	 mov	 esi, DWORD PTR _pExceptionInfo$[ebp]
  00017	57		 push	 edi
  00018	8b f9		 mov	 edi, ecx

; 572  : #if defined( I3_WINDOWS)
; 573  : // miniDump ˝ÇÇŕ
; 574  : 	MinidumpInfo stDumpInfo;
; 575  : 
; 576  : 	stDumpInfo.m_hPro = GetCurrentProcess();

  0001a	ff 15 00 00 00
	00		 call	 DWORD PTR __imp__GetCurrentProcess@0
  00020	89 45 e4	 mov	 DWORD PTR _stDumpInfo$[ebp+528], eax

; 577  : 	stDumpInfo.m_dwProcessID = GetCurrentProcessId();

  00023	ff 15 00 00 00
	00		 call	 DWORD PTR __imp__GetCurrentProcessId@0
  00029	89 45 e8	 mov	 DWORD PTR _stDumpInfo$[ebp+532], eax

; 578  : 	stDumpInfo.m_ExceptionInfo.ThreadId = GetCurrentThreadId();

  0002c	ff 15 00 00 00
	00		 call	 DWORD PTR __imp__GetCurrentThreadId@0
  00032	89 85 d4 fd ff
	ff		 mov	 DWORD PTR _stDumpInfo$[ebp], eax

; 579  : 	stDumpInfo.m_ExceptionInfo.ExceptionPointers = pExceptionInfo;
; 580  : 	stDumpInfo.m_ExceptionInfo.ClientPointers = FALSE;
; 581  : 	stDumpInfo.m_eDumpType = (MINIDUMP_TYPE)m_uDumpType;

  00038	0f b7 47 04	 movzx	 eax, WORD PTR [edi+4]
  0003c	89 45 e0	 mov	 DWORD PTR _stDumpInfo$[ebp+524], eax

; 582  : 	
; 583  : 	SYSTEMTIME st; 
; 584  :     GetLocalTime(&st); 

  0003f	8d 45 ec	 lea	 eax, DWORD PTR _st$[ebp]
  00042	50		 push	 eax
  00043	89 b5 d8 fd ff
	ff		 mov	 DWORD PTR _stDumpInfo$[ebp+4], esi
  00049	c7 85 dc fd ff
	ff 00 00 00 00	 mov	 DWORD PTR _stDumpInfo$[ebp+8], 0
  00053	ff 15 00 00 00
	00		 call	 DWORD PTR __imp__GetLocalTime@4

; 585  : 
; 586  : 	sprintf( stDumpInfo.m_strFileName, "%s_%04d%02d%02d%02d%02d", m_szDmpFileName, st.wYear, st.wMonth, st.wDay, st.wHour, st.wMinute );

  00059	0f b7 45 f6	 movzx	 eax, WORD PTR _st$[ebp+10]
  0005d	50		 push	 eax
  0005e	0f b7 45 f4	 movzx	 eax, WORD PTR _st$[ebp+8]
  00062	50		 push	 eax
  00063	0f b7 45 f2	 movzx	 eax, WORD PTR _st$[ebp+6]
  00067	50		 push	 eax
  00068	0f b7 45 ee	 movzx	 eax, WORD PTR _st$[ebp+2]
  0006c	50		 push	 eax
  0006d	0f b7 45 ec	 movzx	 eax, WORD PTR _st$[ebp]
  00071	50		 push	 eax
  00072	8d 47 06	 lea	 eax, DWORD PTR [edi+6]
  00075	50		 push	 eax
  00076	8d 85 e0 fd ff
	ff		 lea	 eax, DWORD PTR _stDumpInfo$[ebp+12]
  0007c	68 00 00 00 00	 push	 OFFSET ??_C@_0BI@KDDNFEEH@?$CFs_?$CF04d?$CF02d?$CF02d?$CF02d?$CF02d@
  00081	50		 push	 eax
  00082	e8 00 00 00 00	 call	 _sprintf
  00087	83 c4 20	 add	 esp, 32			; 00000020H

; 587  : 
; 588  : 	HANDLE hThread = CreateThread(  NULL, 4096,	(LPTHREAD_START_ROUTINE)_DefDumpThreadProc,	&stDumpInfo, NULL, NULL);

  0008a	8d 85 d4 fd ff
	ff		 lea	 eax, DWORD PTR _stDumpInfo$[ebp]
  00090	6a 00		 push	 0
  00092	6a 00		 push	 0
  00094	50		 push	 eax
  00095	68 00 00 00 00	 push	 OFFSET ?_DefDumpThreadProc@@YAIPAUMinidumpInfo@@@Z ; _DefDumpThreadProc
  0009a	68 00 10 00 00	 push	 4096			; 00001000H
  0009f	6a 00		 push	 0
  000a1	ff 15 00 00 00
	00		 call	 DWORD PTR __imp__CreateThread@24
  000a7	8b f0		 mov	 esi, eax

; 589  : 
; 590  : 	WaitForSingleObject( hThread, INFINITE );

  000a9	6a ff		 push	 -1
  000ab	56		 push	 esi
  000ac	ff 15 00 00 00
	00		 call	 DWORD PTR __imp__WaitForSingleObject@8

; 591  : 	
; 592  : 	CloseHandle( hThread );

  000b2	56		 push	 esi
  000b3	ff 15 00 00 00
	00		 call	 DWORD PTR __imp__CloseHandle@4

; 593  : #endif
; 594  : 
; 595  : }

  000b9	8b 4d fc	 mov	 ecx, DWORD PTR __$ArrayPad$[ebp]
  000bc	5f		 pop	 edi
  000bd	33 cd		 xor	 ecx, ebp
  000bf	5e		 pop	 esi
  000c0	e8 00 00 00 00	 call	 @__security_check_cookie@4
  000c5	8b e5		 mov	 esp, ebp
  000c7	5d		 pop	 ebp
  000c8	c2 04 00	 ret	 4
?SetCreateMiniDump@I3ExceptionHandler@@QAEXPAU_EXCEPTION_POINTERS@@@Z ENDP ; I3ExceptionHandler::SetCreateMiniDump
_TEXT	ENDS
; Function compile flags: /Ogtp
; File E:\Proyectos\JuegosOnlineproyectos\PB\pbblow\Piercing Blow Remake\i3Server\src\i3Base\i3ErrorHandler.cpp
;	COMDAT ?SetExceptionHandlerOption@I3ExceptionHandler@@QAEXH@Z
_TEXT	SEGMENT
_nOption$ = 8						; size = 4
?SetExceptionHandlerOption@I3ExceptionHandler@@QAEXH@Z PROC ; I3ExceptionHandler::SetExceptionHandlerOption, COMDAT
; _this$ = ecx

; 424  : {

  00000	55		 push	 ebp
  00001	8b ec		 mov	 ebp, esp

; 425  : 	switch( nOption )

  00003	8b 45 08	 mov	 eax, DWORD PTR _nOption$[ebp]
  00006	83 f8 0e	 cmp	 eax, 14			; 0000000eH
  00009	0f 87 bd 00 00
	00		 ja	 $LN19@SetExcepti
  0000f	ff 24 85 00 00
	00 00		 jmp	 DWORD PTR $LN21@SetExcepti[eax*4]
$LN5@SetExcepti:

; 426  : 	{
; 427  : 		case 0:			m_uDumpType = I3MINDUMP_NORMAL;								break;
; 428  : 		case 1:			m_uDumpType = I3MINDUMP_WITHDATASEGS;						break;

  00016	b8 01 00 00 00	 mov	 eax, 1

; 443  : 	}
; 444  : }

  0001b	66 89 41 04	 mov	 WORD PTR [ecx+4], ax
  0001f	5d		 pop	 ebp
  00020	c2 04 00	 ret	 4
$LN6@SetExcepti:

; 429  : 		case 2:			m_uDumpType = I3MINDUMP_WITHFULLMEMORY;						break;

  00023	b8 02 00 00 00	 mov	 eax, 2

; 443  : 	}
; 444  : }

  00028	66 89 41 04	 mov	 WORD PTR [ecx+4], ax
  0002c	5d		 pop	 ebp
  0002d	c2 04 00	 ret	 4
$LN7@SetExcepti:

; 430  : 		case 3:			m_uDumpType = I3MINDUMP_WITHHANDLEDATA;						break;

  00030	b8 04 00 00 00	 mov	 eax, 4

; 443  : 	}
; 444  : }

  00035	66 89 41 04	 mov	 WORD PTR [ecx+4], ax
  00039	5d		 pop	 ebp
  0003a	c2 04 00	 ret	 4
$LN8@SetExcepti:

; 431  : 		case 4:			m_uDumpType = I3MINDUMP_FILTERMEMORY;						break;

  0003d	b8 08 00 00 00	 mov	 eax, 8

; 443  : 	}
; 444  : }

  00042	66 89 41 04	 mov	 WORD PTR [ecx+4], ax
  00046	5d		 pop	 ebp
  00047	c2 04 00	 ret	 4
$LN9@SetExcepti:

; 432  : 		case 5:			m_uDumpType = I3MINDUMP_SCANMEMORY;							break;

  0004a	b8 10 00 00 00	 mov	 eax, 16			; 00000010H

; 443  : 	}
; 444  : }

  0004f	66 89 41 04	 mov	 WORD PTR [ecx+4], ax
  00053	5d		 pop	 ebp
  00054	c2 04 00	 ret	 4
$LN10@SetExcepti:

; 433  : 		case 6:			m_uDumpType = I3MINDUMP_WITHUNLOADEDMODULES;				break;

  00057	b8 20 00 00 00	 mov	 eax, 32			; 00000020H

; 443  : 	}
; 444  : }

  0005c	66 89 41 04	 mov	 WORD PTR [ecx+4], ax
  00060	5d		 pop	 ebp
  00061	c2 04 00	 ret	 4
$LN11@SetExcepti:

; 434  : 		case 7:			m_uDumpType = I3MINDUMP_WITHINDIRECTLYREFERENCEDMEMORY;		break;

  00064	b8 40 00 00 00	 mov	 eax, 64			; 00000040H

; 443  : 	}
; 444  : }

  00069	66 89 41 04	 mov	 WORD PTR [ecx+4], ax
  0006d	5d		 pop	 ebp
  0006e	c2 04 00	 ret	 4
$LN12@SetExcepti:

; 435  : 		case 8:			m_uDumpType = I3MINDUMP_FILTERMODULEPATHS;					break;

  00071	b8 80 00 00 00	 mov	 eax, 128		; 00000080H

; 443  : 	}
; 444  : }

  00076	66 89 41 04	 mov	 WORD PTR [ecx+4], ax
  0007a	5d		 pop	 ebp
  0007b	c2 04 00	 ret	 4
$LN13@SetExcepti:

; 436  : 		case 9:			m_uDumpType = I3MINDUMP_WITHPROCESSTHREADDATA;				break;

  0007e	b8 00 01 00 00	 mov	 eax, 256		; 00000100H

; 443  : 	}
; 444  : }

  00083	66 89 41 04	 mov	 WORD PTR [ecx+4], ax
  00087	5d		 pop	 ebp
  00088	c2 04 00	 ret	 4
$LN14@SetExcepti:

; 437  : 		case 10:		m_uDumpType = I3MINDUMP_WITHPRIVATEREADWRITEMEMORY;			break;

  0008b	b8 00 02 00 00	 mov	 eax, 512		; 00000200H

; 443  : 	}
; 444  : }

  00090	66 89 41 04	 mov	 WORD PTR [ecx+4], ax
  00094	5d		 pop	 ebp
  00095	c2 04 00	 ret	 4
$LN15@SetExcepti:

; 438  : 		case 11:		m_uDumpType = I3MINDUMP_WITHOUTOPTIONALDATA;				break;

  00098	b8 00 04 00 00	 mov	 eax, 1024		; 00000400H

; 443  : 	}
; 444  : }

  0009d	66 89 41 04	 mov	 WORD PTR [ecx+4], ax
  000a1	5d		 pop	 ebp
  000a2	c2 04 00	 ret	 4
$LN16@SetExcepti:

; 439  : 		case 12:		m_uDumpType = I3MINDUMP_WITHFULLMEMORYINFO;					break;

  000a5	b8 00 08 00 00	 mov	 eax, 2048		; 00000800H

; 443  : 	}
; 444  : }

  000aa	66 89 41 04	 mov	 WORD PTR [ecx+4], ax
  000ae	5d		 pop	 ebp
  000af	c2 04 00	 ret	 4
$LN17@SetExcepti:

; 440  : 		case 13:		m_uDumpType = I3MINDUMP_WITHTHREADINFO;						break;

  000b2	b8 00 10 00 00	 mov	 eax, 4096		; 00001000H

; 443  : 	}
; 444  : }

  000b7	66 89 41 04	 mov	 WORD PTR [ecx+4], ax
  000bb	5d		 pop	 ebp
  000bc	c2 04 00	 ret	 4
$LN18@SetExcepti:

; 441  : 		case 14:		m_uDumpType = I3MINDUMP_WITHCODESEGS;						break;

  000bf	b8 00 20 00 00	 mov	 eax, 8192		; 00002000H

; 443  : 	}
; 444  : }

  000c4	66 89 41 04	 mov	 WORD PTR [ecx+4], ax
  000c8	5d		 pop	 ebp
  000c9	c2 04 00	 ret	 4
$LN19@SetExcepti:

; 442  : 		default:		m_uDumpType = I3MINDUMP_NORMAL;								break;

  000cc	33 c0		 xor	 eax, eax

; 443  : 	}
; 444  : }

  000ce	66 89 41 04	 mov	 WORD PTR [ecx+4], ax
  000d2	5d		 pop	 ebp
  000d3	c2 04 00	 ret	 4
  000d6	8b ff		 npad	 2
$LN21@SetExcepti:
  000d8	00 00 00 00	 DD	 $LN19@SetExcepti
  000dc	00 00 00 00	 DD	 $LN5@SetExcepti
  000e0	00 00 00 00	 DD	 $LN6@SetExcepti
  000e4	00 00 00 00	 DD	 $LN7@SetExcepti
  000e8	00 00 00 00	 DD	 $LN8@SetExcepti
  000ec	00 00 00 00	 DD	 $LN9@SetExcepti
  000f0	00 00 00 00	 DD	 $LN10@SetExcepti
  000f4	00 00 00 00	 DD	 $LN11@SetExcepti
  000f8	00 00 00 00	 DD	 $LN12@SetExcepti
  000fc	00 00 00 00	 DD	 $LN13@SetExcepti
  00100	00 00 00 00	 DD	 $LN14@SetExcepti
  00104	00 00 00 00	 DD	 $LN15@SetExcepti
  00108	00 00 00 00	 DD	 $LN16@SetExcepti
  0010c	00 00 00 00	 DD	 $LN17@SetExcepti
  00110	00 00 00 00	 DD	 $LN18@SetExcepti
?SetExceptionHandlerOption@I3ExceptionHandler@@QAEXH@Z ENDP ; I3ExceptionHandler::SetExceptionHandlerOption
_TEXT	ENDS
; Function compile flags: /Ogtp
; File E:\Proyectos\JuegosOnlineproyectos\PB\pbblow\Piercing Blow Remake\i3Server\src\i3Base\i3ErrorHandler.cpp
;	COMDAT ?SetPath@I3ExceptionHandler@@QAEXPBD@Z
_TEXT	SEGMENT
_pszDmpFileName$ = 8					; size = 4
?SetPath@I3ExceptionHandler@@QAEXPBD@Z PROC		; I3ExceptionHandler::SetPath, COMDAT
; _this$ = ecx

; 417  : {

  00000	55		 push	 ebp
  00001	8b ec		 mov	 ebp, esp

; 418  : 	if( pszDmpFileName == NULL ) return;

  00003	8b 45 08	 mov	 eax, DWORD PTR _pszDmpFileName$[ebp]
  00006	85 c0		 test	 eax, eax
  00008	74 12		 je	 SHORT $LN1@SetPath

; 419  : 
; 420  : 	i3String::Copy( m_szDmpFileName, pszDmpFileName, MAX_PATH);

  0000a	68 04 01 00 00	 push	 260			; 00000104H
  0000f	50		 push	 eax
  00010	8d 41 06	 lea	 eax, DWORD PTR [ecx+6]
  00013	50		 push	 eax
  00014	e8 00 00 00 00	 call	 ?Copy@i3String@@YAXPADPBDH@Z ; i3String::Copy
  00019	83 c4 0c	 add	 esp, 12			; 0000000cH
$LN1@SetPath:

; 421  : }

  0001c	5d		 pop	 ebp
  0001d	c2 04 00	 ret	 4
?SetPath@I3ExceptionHandler@@QAEXPBD@Z ENDP		; I3ExceptionHandler::SetPath
_TEXT	ENDS
; Function compile flags: /Ogtp
; File E:\Proyectos\JuegosOnlineproyectos\PB\pbblow\Piercing Blow Remake\i3Server\src\i3Base\i3ErrorHandler.cpp
;	COMDAT ?ExceptionInformation@I3ExceptionHandler@@UAEXPAU_EXCEPTION_POINTERS@@@Z
_TEXT	SEGMENT
_pExceptionInfo$ = 8					; size = 4
?ExceptionInformation@I3ExceptionHandler@@UAEXPAU_EXCEPTION_POINTERS@@@Z PROC ; I3ExceptionHandler::ExceptionInformation, COMDAT
; _this$ = ecx

; 448  : //#if defined( I3_WINDOWS )
; 449  : //
; 450  : //	char szEmailContentsBuffer[34816];
; 451  : //	char szAddress[32768];	
; 452  : //	char szTemp[64];
; 453  : //
; 454  : //	szEmailContentsBuffer[ 0 ] = 0;
; 455  : //	szAddress[0] = 0;
; 456  : //
; 457  : //	// ˝ÇÁúŔűŔÎ żˇ·Ż ÁÖĽŇ¸¸ ŔÖŔ¸¸é ČŁĂâ˝şĹĂ°ú żˇ·Ż Ŕ§Äˇ Č®ŔÎ°ˇ´É..
; 458  : //
; 459  : //	//pExceptionRecord->ExceptionCode		- żˇ·Ż ÄÚµĺ
; 460  : //	//pExceptionRecord->ExceptionAddress	- żˇ·Ż ÁÖĽŇ
; 461  : //
; 462  : //	PEXCEPTION_RECORD pExceptionRecord = pExceptionInfo->ExceptionRecord;
; 463  : //
; 464  : //	i3String::Concat( szAddress, "[Error Code]\n" );
; 465  : //	sprintf( szTemp, "Code = 0x%08X\n\n", pExceptionRecord->ExceptionCode);	
; 466  : //	i3String::Concat( szAddress, szTemp );
; 467  : //	
; 468  : //	PCONTEXT pContextRecord = pExceptionInfo->ContextRecord;	
; 469  : //	PDWORD pFrame;
; 470  : //	pFrame = (PDWORD)pContextRecord->Ebp;	
; 471  : //
; 472  : //	i3String::Concat( szAddress, "[Error Address]\n" );
; 473  : //	sprintf( szTemp, "Address = 0x%08X\n\n", pExceptionRecord->ExceptionAddress );
; 474  : //	i3String::Concat( szAddress, szTemp );	
; 475  : //
; 476  : //	i3String::Concat( szAddress, "[Call Stack]\n" );
; 477  : //	i3String::Concat( szAddress, "ŔĚşÎşĐŔş şńľîŔÖ˝Ŕ´Ď´Ů.\n" );
; 478  : //	
; 479  : //	/*
; 480  : //	int i = 1;
; 481  : //	DWORD pc = pContextRecord->Eip;
; 482  : //	PDWORD pPrevFrame;
; 483  : //	// ČŁĂâ˝şĹĂŔ» Ŕ§ÇŘ ·çÇÁ
; 484  : //	//do {		
; 485  : //		///////////////////////////////////////////////////////////////////////////
; 486  : //		// ÁÖĽŇ°Ş¸¸ ÂďľîÁÖ±â		
; 487  : //		//sprintf( szTemp, "%02d = 0x%08X\n", i, pc );
; 488  : //		//i3String::Concat( szAddress, szTemp );
; 489  : //		///////////////////////////////////////////////////////////////////////////
; 490  : //		pc = pFrame[1];		
; 491  : //		pPrevFrame = pFrame;
; 492  : //		pFrame = (PDWORD)pFrame[0];
; 493  : //		i++;
; 494  : //
; 495  : //		//if((DWORD)pFrame & 3) break;
; 496  : //		//if(IsBadWritePtr(pFrame, sizeof(PVOID) * 2)) break;
; 497  : //	//} while( pFrame > pPrevFrame && i < 2 );
; 498  : //	*/
; 499  : //
; 500  : //	//char szPath[1024] = {0,};
; 501  : //	//::GetModuleFileName(NULL, szPath, 256);
; 502  : //	//GetLastWriteTime(szPath)
; 503  : //
; 504  : //	// System Á¤ş¸ ĽöÁý
; 505  : //	GetSystemInfo( szEmailContentsBuffer );
; 506  : //
; 507  : //	i3String::Concat( szEmailContentsBuffer, szAddress);
; 508  : //
; 509  : //	//SendMailBugReport( szEmailContentsBuffer);
; 510  : //	
; 511  : //	SetCreateMiniDump( pExceptionInfo );
; 512  : //
; 513  : //#if !defined( I3_NO_PROFILE)
; 514  : //	if(s_pUnExpectionProc( szEmailContentsBuffer ) == I3ERROR_HANDLE_BREAK)
; 515  : //	{
; 516  : //		I3ASSERT_0;
; 517  : //	}	
; 518  : //#else//Exception Info¸¦ noticeĂ¤łÎĆÄŔĎżˇ writeÇÔ..Ć÷ŔÎĆ®şí·©Ĺ©żë..ŔÓ˝Ă¶«»§ - ÇĘČ÷ ĽöÁ¤şĽ°Í - raja
; 519  : //	HANDLE hFile;
; 520  : //	char * pszHostName = s_szChnName[ I3LOG_NOTICE];
; 521  : //	hFile = CreateFile( pszHostName, GENERIC_WRITE, 0, NULL, OPEN_ALWAYS, FILE_ATTRIBUTE_NORMAL, NULL);
; 522  : //	if( hFile == INVALID_HANDLE_VALUE)
; 523  : //	{
; 524  : //		I3TRACE( "_log : Could not open %s file.\n", pszHostName);
; 525  : //		return;
; 526  : //	}
; 527  : //
; 528  : //	SetFilePointer( hFile, 0, NULL, FILE_END);
; 529  : //
; 530  : //	DWORD len;
; 531  : //	WriteFile( hFile, szEmailContentsBuffer, strlen( szEmailContentsBuffer), &len, NULL);
; 532  : //
; 533  : //	CloseHandle( hFile);
; 534  : //
; 535  : //	// żŔ·ůş¸°í Ă˘ ¶çżě´Â şÎşĐ
; 536  : //	char szFile[ 256 ];
; 537  : //	sprintf( szFile, "ErrorHandler.exe" );
; 538  : //	STARTUPINFO si = {0,};
; 539  : //	PROCESS_INFORMATION pi;
; 540  : //	si.cb = sizeof( STARTUPINFO );
; 541  : //	si.dwFlags = 0;
; 542  : //
; 543  : //	::CreateProcess( szFile, NULL, NULL, NULL, FALSE, 0, NULL, NULL, &si, &pi );
; 544  : //	// żŔ·ůş¸°í Ă˘ ¶çżě´Â şÎşĐ
; 545  : //#endif
; 546  : //#endif
; 547  : }

  00000	c2 04 00	 ret	 4
?ExceptionInformation@I3ExceptionHandler@@UAEXPAU_EXCEPTION_POINTERS@@@Z ENDP ; I3ExceptionHandler::ExceptionInformation
_TEXT	ENDS
; Function compile flags: /Ogtp
; File E:\Proyectos\JuegosOnlineproyectos\PB\pbblow\Piercing Blow Remake\i3Server\src\i3Base\i3ErrorHandler.cpp
;	COMDAT ??1I3ExceptionHandler@@UAE@XZ
_TEXT	SEGMENT
??1I3ExceptionHandler@@UAE@XZ PROC			; I3ExceptionHandler::~I3ExceptionHandler, COMDAT
; _this$ = ecx

; 413  : {

  00000	c7 01 00 00 00
	00		 mov	 DWORD PTR [ecx], OFFSET ??_7I3ExceptionHandler@@6B@

; 414  : }

  00006	c3		 ret	 0
??1I3ExceptionHandler@@UAE@XZ ENDP			; I3ExceptionHandler::~I3ExceptionHandler
_TEXT	ENDS
; Function compile flags: /Ogtp
; File E:\Proyectos\JuegosOnlineproyectos\PB\pbblow\Piercing Blow Remake\i3Server\src\i3Base\i3ErrorHandler.cpp
;	COMDAT ??0I3ExceptionHandler@@QAE@XZ
_TEXT	SEGMENT
??0I3ExceptionHandler@@QAE@XZ PROC			; I3ExceptionHandler::I3ExceptionHandler, COMDAT
; _this$ = ecx

; 407  : {

  00000	56		 push	 esi
  00001	8b f1		 mov	 esi, ecx

; 408  : 	m_uDumpType = I3MINDUMP_NORMAL;

  00003	33 c0		 xor	 eax, eax

; 409  : 	i3String::Copy( m_szDmpFileName, "i3BugReport.i3b", MAX_PATH);

  00005	68 04 01 00 00	 push	 260			; 00000104H
  0000a	68 00 00 00 00	 push	 OFFSET ??_C@_0BA@DNGLKKNB@i3BugReport?4i3b@
  0000f	66 89 46 04	 mov	 WORD PTR [esi+4], ax
  00013	8d 46 06	 lea	 eax, DWORD PTR [esi+6]
  00016	50		 push	 eax
  00017	c7 06 00 00 00
	00		 mov	 DWORD PTR [esi], OFFSET ??_7I3ExceptionHandler@@6B@
  0001d	e8 00 00 00 00	 call	 ?Copy@i3String@@YAXPADPBDH@Z ; i3String::Copy
  00022	83 c4 0c	 add	 esp, 12			; 0000000cH

; 410  : }

  00025	8b c6		 mov	 eax, esi
  00027	5e		 pop	 esi
  00028	c3		 ret	 0
??0I3ExceptionHandler@@QAE@XZ ENDP			; I3ExceptionHandler::I3ExceptionHandler
_TEXT	ENDS
; Function compile flags: /Ogtp
; File C:\Program Files (x86)\Windows Kits\10\Include\10.0.26100.0\ucrt\stdio.h
;	COMDAT _sprintf
_TEXT	SEGMENT
__Buffer$ = 8						; size = 4
__Format$ = 12						; size = 4
_sprintf PROC						; COMDAT

; 1771 :     {

  00000	55		 push	 ebp
  00001	8b ec		 mov	 ebp, esp

; 1392 :         int const _Result = __stdio_common_vsprintf(

  00003	8d 45 10	 lea	 eax, DWORD PTR __Format$[ebp+4]
  00006	50		 push	 eax
  00007	6a 00		 push	 0
  00009	ff 75 0c	 push	 DWORD PTR __Format$[ebp]
  0000c	6a ff		 push	 -1
  0000e	ff 75 08	 push	 DWORD PTR __Buffer$[ebp]
  00011	e8 00 00 00 00	 call	 ___local_stdio_printf_options
  00016	8b 08		 mov	 ecx, DWORD PTR [eax]
  00018	ff 70 04	 push	 DWORD PTR [eax+4]
  0001b	83 c9 01	 or	 ecx, 1
  0001e	51		 push	 ecx
  0001f	e8 00 00 00 00	 call	 ___stdio_common_vsprintf

; 1393 :             _CRT_INTERNAL_LOCAL_PRINTF_OPTIONS | _CRT_INTERNAL_PRINTF_LEGACY_VSPRINTF_NULL_TERMINATION,
; 1394 :             _Buffer, _BufferCount, _Format, _Locale, _ArgList);
; 1395 : 
; 1396 :         return _Result < 0 ? -1 : _Result;

  00024	83 c9 ff	 or	 ecx, -1
  00027	83 c4 1c	 add	 esp, 28			; 0000001cH
  0002a	85 c0		 test	 eax, eax
  0002c	0f 48 c1	 cmovs	 eax, ecx

; 1772 :         int _Result;
; 1773 :         va_list _ArgList;
; 1774 :         __crt_va_start(_ArgList, _Format);
; 1775 : 
; 1776 :         _Result = _vsprintf_l(_Buffer, _Format, NULL, _ArgList);
; 1777 : 
; 1778 :         __crt_va_end(_ArgList);
; 1779 :         return _Result;
; 1780 :     }

  0002f	5d		 pop	 ebp
  00030	c3		 ret	 0
_sprintf ENDP
_TEXT	ENDS
; Function compile flags: /Ogtp
; File C:\Program Files (x86)\Windows Kits\10\Include\10.0.26100.0\ucrt\stdio.h
;	COMDAT _fprintf
_TEXT	SEGMENT
__Stream$ = 8						; size = 4
__Format$ = 12						; size = 4
_fprintf PROC						; COMDAT

; 837  :     {

  00000	55		 push	 ebp
  00001	8b ec		 mov	 ebp, esp

; 645  :         return __stdio_common_vfprintf(_CRT_INTERNAL_LOCAL_PRINTF_OPTIONS, _Stream, _Format, _Locale, _ArgList);

  00003	8d 45 10	 lea	 eax, DWORD PTR __Format$[ebp+4]
  00006	50		 push	 eax
  00007	6a 00		 push	 0
  00009	ff 75 0c	 push	 DWORD PTR __Format$[ebp]
  0000c	ff 75 08	 push	 DWORD PTR __Stream$[ebp]
  0000f	e8 00 00 00 00	 call	 ___local_stdio_printf_options
  00014	ff 70 04	 push	 DWORD PTR [eax+4]
  00017	ff 30		 push	 DWORD PTR [eax]
  00019	e8 00 00 00 00	 call	 ___stdio_common_vfprintf
  0001e	83 c4 18	 add	 esp, 24			; 00000018H

; 838  :         int _Result;
; 839  :         va_list _ArgList;
; 840  :         __crt_va_start(_ArgList, _Format);
; 841  :         _Result = _vfprintf_l(_Stream, _Format, NULL, _ArgList);
; 842  :         __crt_va_end(_ArgList);
; 843  :         return _Result;
; 844  :     }

  00021	5d		 pop	 ebp
  00022	c3		 ret	 0
_fprintf ENDP
_TEXT	ENDS
; Function compile flags: /Ogtp
; File C:\Program Files (x86)\Windows Kits\10\Include\10.0.26100.0\ucrt\corecrt_stdio_config.h
;	COMDAT ___local_stdio_printf_options
_TEXT	SEGMENT
___local_stdio_printf_options PROC			; COMDAT

; 91   :         static unsigned __int64 _OptionsStorage;
; 92   :         return &_OptionsStorage;

  00000	b8 00 00 00 00	 mov	 eax, OFFSET ?_OptionsStorage@?1??__local_stdio_printf_options@@9@4_KA ; `__local_stdio_printf_options'::`2'::_OptionsStorage

; 93   :     }

  00005	c3		 ret	 0
___local_stdio_printf_options ENDP
_TEXT	ENDS
END
