; Listing generated by Microsoft (R) Optimizing Compiler Version 19.50.35727.0 

	TITLE	E:\Proyectos\JuegosOnlineproyectos\PB\pbblow\Piercing Blow Remake\i3Server\Project\I3_DX\i3Server\x86\Release\i3ErrorHandlerWindows.obj
	.686P
	.XMM
	include listing.inc
	.model	flat

INCLUDELIB LIBCMT
INCLUDELIB OLDNAMES

PUBLIC	?_i3DefPopupProc@@YGHPAUHWND__@@IIJ@Z		; _i3DefPopupProc
PUBLIC	?DefWindowsLogProc@@YA?AW4I3ERROR_HANDLE@@W4I3LOG_TYPE@@PAD1PAX@Z ; DefWindowsLogProc
EXTRN	__imp__GetLastError@0:PROC
EXTRN	__imp__LocalFree@4:PROC
EXTRN	__imp__FormatMessageA@28:PROC
EXTRN	__imp__DialogBoxParamA@20:PROC
EXTRN	__imp__EndDialog@8:PROC
EXTRN	__imp__GetDlgItem@8:PROC
EXTRN	__imp__SetWindowTextA@8:PROC
EXTRN	?g_hInstBase@@3PAUHINSTANCE__@@A:DWORD		; g_hInstBase
EXTRN	?s_hwndMain@@3PAXA:DWORD			; s_hwndMain
_BSS	SEGMENT
?s_ErrorType@@3W4I3LOG_TYPE@@A DD 01H DUP (?)		; s_ErrorType
?s_pszWhere@@3PADA DD 01H DUP (?)			; s_pszWhere
?s_pszMsg@@3PADA DD 01H DUP (?)				; s_pszMsg
?s_pszSysError@@3PADA DD 01H DUP (?)			; s_pszSysError
_BSS	ENDS
; Function compile flags: /Ogtp
; File E:\Proyectos\JuegosOnlineproyectos\PB\pbblow\Piercing Blow Remake\i3Server\src\i3Base\i3ErrorHandlerWindows.cpp
;	COMDAT ?DefWindowsLogProc@@YA?AW4I3ERROR_HANDLE@@W4I3LOG_TYPE@@PAD1PAX@Z
_TEXT	SEGMENT
_type$ = 8						; size = 4
_pszWhere$ = 12						; size = 4
_pszMsg$ = 16						; size = 4
___formal$ = 20						; size = 4
?DefWindowsLogProc@@YA?AW4I3ERROR_HANDLE@@W4I3LOG_TYPE@@PAD1PAX@Z PROC ; DefWindowsLogProc, COMDAT

; 57   : {

  00000	55		 push	 ebp
  00001	8b ec		 mov	 ebp, esp

; 58   : 	INT_PTR rv;
; 59   : 
; 60   : 	s_ErrorType = type;

  00003	8b 45 08	 mov	 eax, DWORD PTR _type$[ebp]
  00006	56		 push	 esi

; 61   : 	s_pszWhere = pszWhere;
; 62   : 	s_pszMsg = pszMsg;
; 63   : 
; 64   : 	FormatMessage( 

  00007	6a 00		 push	 0
  00009	6a 00		 push	 0
  0000b	a3 00 00 00 00	 mov	 DWORD PTR ?s_ErrorType@@3W4I3LOG_TYPE@@A, eax
  00010	8b 45 0c	 mov	 eax, DWORD PTR _pszWhere$[ebp]
  00013	68 00 00 00 00	 push	 OFFSET ?s_pszSysError@@3PADA
  00018	a3 00 00 00 00	 mov	 DWORD PTR ?s_pszWhere@@3PADA, eax
  0001d	8b 45 10	 mov	 eax, DWORD PTR _pszMsg$[ebp]
  00020	68 00 04 00 00	 push	 1024			; 00000400H
  00025	a3 00 00 00 00	 mov	 DWORD PTR ?s_pszMsg@@3PADA, eax
  0002a	ff 15 00 00 00
	00		 call	 DWORD PTR __imp__GetLastError@0
  00030	50		 push	 eax
  00031	6a 00		 push	 0
  00033	68 00 11 00 00	 push	 4352			; 00001100H
  00038	ff 15 00 00 00
	00		 call	 DWORD PTR __imp__FormatMessageA@28

; 65   : 		FORMAT_MESSAGE_ALLOCATE_BUFFER | FORMAT_MESSAGE_FROM_SYSTEM,
; 66   : 		NULL,
; 67   : 		GetLastError(),
; 68   : 		MAKELANGID(LANG_NEUTRAL, SUBLANG_DEFAULT), /* Default language */
; 69   : 		(LPTSTR) &s_pszSysError,
; 70   : 		0,
; 71   : 		NULL 
; 72   : 	);
; 73   : 
; 74   : #if defined( I3_WINDOWS)
; 75   : 	#if defined( I3_DLL)
; 76   : 		rv = DialogBox( g_hInstBase, MAKEINTRESOURCE( IDD_LOGPOPUP), (HWND) s_hwndMain, _i3DefPopupProc);

  0003e	6a 00		 push	 0
  00040	68 00 00 00 00	 push	 OFFSET ?_i3DefPopupProc@@YGHPAUHWND__@@IIJ@Z ; _i3DefPopupProc
  00045	ff 35 00 00 00
	00		 push	 DWORD PTR ?s_hwndMain@@3PAXA ; s_hwndMain
  0004b	6a 65		 push	 101			; 00000065H
  0004d	ff 35 00 00 00
	00		 push	 DWORD PTR ?g_hInstBase@@3PAUHINSTANCE__@@A ; g_hInstBase
  00053	ff 15 00 00 00
	00		 call	 DWORD PTR __imp__DialogBoxParamA@20

; 77   : 	#else
; 78   : 		rv = DialogBox( NULL, MAKEINTRESOURCE( IDD_LOGPOPUP), s_hwndMain, _i3DefPopupProc);
; 79   : 	#endif
; 80   : #endif
; 81   : 
; 82   : 	LocalFree( s_pszSysError);

  00059	ff 35 00 00 00
	00		 push	 DWORD PTR ?s_pszSysError@@3PADA
  0005f	8b f0		 mov	 esi, eax
  00061	ff 15 00 00 00
	00		 call	 DWORD PTR __imp__LocalFree@4

; 83   : 
; 84   : 	if( rv == IDCANCEL)
; 85   : 	{
; 86   : 		return I3ERROR_HANDLE_CONTINUE;
; 87   : 	}
; 88   : 
; 89   : 	return I3ERROR_HANDLE_BREAK;
; 90   : }

  00067	33 c0		 xor	 eax, eax
  00069	83 fe 02	 cmp	 esi, 2
  0006c	5e		 pop	 esi
  0006d	0f 94 c0	 sete	 al
  00070	5d		 pop	 ebp
  00071	c3		 ret	 0
?DefWindowsLogProc@@YA?AW4I3ERROR_HANDLE@@W4I3LOG_TYPE@@PAD1PAX@Z ENDP ; DefWindowsLogProc
_TEXT	ENDS
; Function compile flags: /Ogtp
; File E:\Proyectos\JuegosOnlineproyectos\PB\pbblow\Piercing Blow Remake\i3Server\src\i3Base\i3ErrorHandlerWindows.cpp
;	COMDAT ?_i3DefPopupProc@@YGHPAUHWND__@@IIJ@Z
_TEXT	SEGMENT
_hwnd$ = 8						; size = 4
_msg$ = 12						; size = 4
_wParam$ = 16						; size = 4
___formal$ = 20						; size = 4
?_i3DefPopupProc@@YGHPAUHWND__@@IIJ@Z PROC		; _i3DefPopupProc, COMDAT

; 17   : {

  00000	55		 push	 ebp
  00001	8b ec		 mov	 ebp, esp

; 18   : 	HWND hwndCtrl;
; 19   : 
; 20   : 	switch( msg)

  00003	8b 45 0c	 mov	 eax, DWORD PTR _msg$[ebp]
  00006	2d 10 01 00 00	 sub	 eax, 272		; 00000110H
  0000b	74 40		 je	 SHORT $LN6@i3DefPopup
  0000d	83 e8 01	 sub	 eax, 1
  00010	75 35		 jne	 SHORT $LN4@i3DefPopup

; 32   : 
; 33   : 		case WM_COMMAND :
; 34   : 			{
; 35   : 				UINT id = LOWORD( wParam);
; 36   : 				UINT code = HIWORD( wParam);

  00012	8b 4d 10	 mov	 ecx, DWORD PTR _wParam$[ebp]
  00015	8b c1		 mov	 eax, ecx
  00017	c1 e8 10	 shr	 eax, 16			; 00000010H

; 37   : 
; 38   : 				if( code == BN_CLICKED)

  0001a	85 c0		 test	 eax, eax
  0001c	75 29		 jne	 SHORT $LN4@i3DefPopup

; 39   : 				{
; 40   : 					switch( id)

  0001e	0f b7 c1	 movzx	 eax, cx
  00021	83 e8 01	 sub	 eax, 1
  00024	74 16		 je	 SHORT $LN9@i3DefPopup
  00026	83 e8 01	 sub	 eax, 1
  00029	75 1c		 jne	 SHORT $LN4@i3DefPopup

; 43   : 							break;
; 44   : 
; 45   : 						case IDCANCEL :	EndDialog( hwnd, IDCANCEL);

  0002b	6a 02		 push	 2

; 46   : 							break;
; 47   : 					}
; 48   : 				}
; 49   : 			}
; 50   : 			break;
; 51   : 	}
; 52   : 
; 53   : 	return FALSE;

  0002d	ff 75 08	 push	 DWORD PTR _hwnd$[ebp]
  00030	ff 15 00 00 00
	00		 call	 DWORD PTR __imp__EndDialog@8
  00036	33 c0		 xor	 eax, eax

; 54   : }

  00038	5d		 pop	 ebp
  00039	c2 10 00	 ret	 16			; 00000010H
$LN9@i3DefPopup:

; 41   : 					{
; 42   : 						case IDOK :		EndDialog( hwnd, IDOK);

  0003c	6a 01		 push	 1

; 46   : 							break;
; 47   : 					}
; 48   : 				}
; 49   : 			}
; 50   : 			break;
; 51   : 	}
; 52   : 
; 53   : 	return FALSE;

  0003e	ff 75 08	 push	 DWORD PTR _hwnd$[ebp]
  00041	ff 15 00 00 00
	00		 call	 DWORD PTR __imp__EndDialog@8
$LN4@i3DefPopup:
  00047	33 c0		 xor	 eax, eax

; 54   : }

  00049	5d		 pop	 ebp
  0004a	c2 10 00	 ret	 16			; 00000010H
$LN6@i3DefPopup:
  0004d	53		 push	 ebx

; 21   : 	{
; 22   : 		case WM_INITDIALOG :
; 23   : 			hwndCtrl = GetDlgItem( hwnd, IDC_ED_WHERE);

  0004e	8b 5d 08	 mov	 ebx, DWORD PTR _hwnd$[ebp]
  00051	56		 push	 esi
  00052	57		 push	 edi
  00053	8b 3d 00 00 00
	00		 mov	 edi, DWORD PTR __imp__GetDlgItem@8
  00059	68 e9 03 00 00	 push	 1001			; 000003e9H
  0005e	53		 push	 ebx
  0005f	ff d7		 call	 edi

; 24   : 			SetWindowText( hwndCtrl, s_pszWhere);

  00061	ff 35 00 00 00
	00		 push	 DWORD PTR ?s_pszWhere@@3PADA
  00067	8b 35 00 00 00
	00		 mov	 esi, DWORD PTR __imp__SetWindowTextA@8
  0006d	50		 push	 eax
  0006e	ff d6		 call	 esi

; 25   : 
; 26   : 			hwndCtrl = GetDlgItem( hwnd, IDC_ED_MSG);

  00070	68 ea 03 00 00	 push	 1002			; 000003eaH
  00075	53		 push	 ebx
  00076	ff d7		 call	 edi

; 27   : 			SetWindowText( hwndCtrl, s_pszMsg);

  00078	ff 35 00 00 00
	00		 push	 DWORD PTR ?s_pszMsg@@3PADA
  0007e	50		 push	 eax
  0007f	ff d6		 call	 esi

; 28   : 
; 29   : 			hwndCtrl = GetDlgItem( hwnd, IDC_ED_SYS);

  00081	68 eb 03 00 00	 push	 1003			; 000003ebH
  00086	53		 push	 ebx
  00087	ff d7		 call	 edi

; 30   : 			SetWindowText( hwndCtrl, s_pszSysError);

  00089	ff 35 00 00 00
	00		 push	 DWORD PTR ?s_pszSysError@@3PADA
  0008f	50		 push	 eax
  00090	ff d6		 call	 esi

; 31   : 			return TRUE;

  00092	5f		 pop	 edi
  00093	5e		 pop	 esi
  00094	b8 01 00 00 00	 mov	 eax, 1
  00099	5b		 pop	 ebx

; 54   : }

  0009a	5d		 pop	 ebp
  0009b	c2 10 00	 ret	 16			; 00000010H
?_i3DefPopupProc@@YGHPAUHWND__@@IIJ@Z ENDP		; _i3DefPopupProc
_TEXT	ENDS
END
