; Listing generated by Microsoft (R) Optimizing Compiler Version 19.50.35727.0 

	TITLE	E:\Proyectos\JuegosOnlineproyectos\PB\pbblow\Piercing Blow Remake\i3Server\Project\I3_DX\i3Server\x86\Release\i3FixedMemoryPool.obj
	.686P
	.XMM
	include listing.inc
	.model	flat

INCLUDELIB LIBCMT
INCLUDELIB OLDNAMES

PUBLIC	__Avx2WmemEnabledWeakValue
;	COMDAT __Avx2WmemEnabledWeakValue
_BSS	SEGMENT
__Avx2WmemEnabledWeakValue DD 01H DUP (?)
_BSS	ENDS
PUBLIC	?__empty_global_delete@@YAXPAX@Z		; __empty_global_delete
PUBLIC	?__global_delete@@YAXPAX@Z			; __global_delete
PUBLIC	?__empty_global_delete@@YAXPAXI@Z		; __empty_global_delete
PUBLIC	?__global_delete@@YAXPAXI@Z			; __global_delete
PUBLIC	?__global_array_delete@@YAXPAX@Z		; __global_array_delete
PUBLIC	?__global_array_delete@@YAXPAXI@Z		; __global_array_delete
PUBLIC	??0i3MemoryPool@@QAE@ABV0@@Z			; i3MemoryPool::i3MemoryPool
PUBLIC	??4i3MemoryPool@@QAEAAV0@ABV0@@Z		; i3MemoryPool::operator=
PUBLIC	??_Gi3MemoryPool@@UAEPAXI@Z			; i3MemoryPool::`scalar deleting destructor'
PUBLIC	??_Ei3MemoryPool@@UAEPAXI@Z			; i3MemoryPool::`vector deleting destructor'
PUBLIC	?GetMemoryPool@i3ClassMeta@@QAEPAVi3MemoryPool@@XZ ; i3ClassMeta::GetMemoryPool
PUBLIC	?SetMemoryPool@i3ClassMeta@@QAEXPAVi3MemoryPool@@@Z ; i3ClassMeta::SetMemoryPool
PUBLIC	?GetClassSize@i3ClassMeta@@QAEIXZ		; i3ClassMeta::GetClassSize
PUBLIC	?GetClassNameA@i3ClassMeta@@QAEPADXZ		; i3ClassMeta::GetClassNameA
PUBLIC	?IsExactTypeOf@i3ClassMeta@@QAE_NPAV1@@Z	; i3ClassMeta::IsExactTypeOf
PUBLIC	?SetStyle@i3ClassMeta@@QAEXI@Z			; i3ClassMeta::SetStyle
PUBLIC	?GetStyle@i3ClassMeta@@QAEIXZ			; i3ClassMeta::GetStyle
PUBLIC	?AddStyle@i3ClassMeta@@QAEXI@Z			; i3ClassMeta::AddStyle
PUBLIC	?RemoveStyle@i3ClassMeta@@QAEXI@Z		; i3ClassMeta::RemoveStyle
PUBLIC	?IsStyle@i3ClassMeta@@QAEHI@Z			; i3ClassMeta::IsStyle
PUBLIC	?IsAbstractClass@i3ClassMeta@@QAEHXZ		; i3ClassMeta::IsAbstractClass
PUBLIC	?IsConcreteClass@i3ClassMeta@@QAEHXZ		; i3ClassMeta::IsConcreteClass
PUBLIC	?GetBaseClassMeta@i3ClassMeta@@QAEPAV1@XZ	; i3ClassMeta::GetBaseClassMeta
PUBLIC	?getHashCode@i3ClassMeta@@QAEIXZ		; i3ClassMeta::getHashCode
PUBLIC	??0i3ClassMeta@@QAE@ABV0@@Z			; i3ClassMeta::i3ClassMeta
PUBLIC	??4i3ClassMeta@@QAEAAV0@ABV0@@Z			; i3ClassMeta::operator=
PUBLIC	??_Gi3ClassMeta@@UAEPAXI@Z			; i3ClassMeta::`scalar deleting destructor'
PUBLIC	??_Ei3ClassMeta@@UAEPAXI@Z			; i3ClassMeta::`vector deleting destructor'
PUBLIC	?GetClassMeta@i3ElementBase@@SAPAVi3ClassMeta@@XZ ; i3ElementBase::GetClassMeta
PUBLIC	?GetRefCount@i3ElementBase@@QAEHXZ		; i3ElementBase::GetRefCount
PUBLIC	?__SetMemoryPool@i3ElementBase@@QAEXPAVi3MemoryPool@@@Z ; i3ElementBase::__SetMemoryPool
PUBLIC	?__GetMemoryPool@i3ElementBase@@QAEPAVi3MemoryPool@@XZ ; i3ElementBase::__GetMemoryPool
PUBLIC	?IsExactTypeOf@i3ElementBase@@QAE_NPAVi3ClassMeta@@@Z ; i3ElementBase::IsExactTypeOf
PUBLIC	?IsTypeOf@i3ElementBase@@QAE_NPAVi3ClassMeta@@@Z ; i3ElementBase::IsTypeOf
PUBLIC	?AddRef@i3ElementBase@@QAEHXZ			; i3ElementBase::AddRef
PUBLIC	?_internal_SetRefCount@i3ElementBase@@QAEXH@Z	; i3ElementBase::_internal_SetRefCount
PUBLIC	??0i3ElementBase@@QAE@ABV0@@Z			; i3ElementBase::i3ElementBase
PUBLIC	??4i3ElementBase@@QAEAAV0@ABV0@@Z		; i3ElementBase::operator=
PUBLIC	??_Gi3ElementBase@@UAEPAXI@Z			; i3ElementBase::`scalar deleting destructor'
PUBLIC	??_Ei3ElementBase@@UAEPAXI@Z			; i3ElementBase::`vector deleting destructor'
PUBLIC	?GetClassMeta@i3Mutex@@SAPAVi3ClassMeta@@XZ	; i3Mutex::GetClassMeta
PUBLIC	??0i3Mutex@@QAE@ABV0@@Z				; i3Mutex::i3Mutex
PUBLIC	??4i3Mutex@@QAEAAV0@ABV0@@Z			; i3Mutex::operator=
PUBLIC	??_Gi3Mutex@@UAEPAXI@Z				; i3Mutex::`scalar deleting destructor'
PUBLIC	??_Ei3Mutex@@UAEPAXI@Z				; i3Mutex::`vector deleting destructor'
PUBLIC	??4i3Mutex2@@QAEAAV0@ABV0@@Z			; i3Mutex2::operator=
PUBLIC	??4i3Monitor2@@QAEAAV0@ABV0@@Z			; i3Monitor2::operator=
PUBLIC	?NewPage@i3FixedMemoryPool@@IAEPAUPAGE@1@XZ	; i3FixedMemoryPool::NewPage
PUBLIC	?InitPage@i3FixedMemoryPool@@IAEXPAUPAGE@1@@Z	; i3FixedMemoryPool::InitPage
PUBLIC	?RemovePage@i3FixedMemoryPool@@IAEXPAUPAGE@1@@Z	; i3FixedMemoryPool::RemovePage
PUBLIC	?FindPage@i3FixedMemoryPool@@IAEPAUPAGE@1@PAD@Z	; i3FixedMemoryPool::FindPage
PUBLIC	??0i3FixedMemoryPool@@QAE@XZ			; i3FixedMemoryPool::i3FixedMemoryPool
PUBLIC	??1i3FixedMemoryPool@@UAE@XZ			; i3FixedMemoryPool::~i3FixedMemoryPool
PUBLIC	?Create@i3FixedMemoryPool@@QAEHPBDIIIHH@Z	; i3FixedMemoryPool::Create
PUBLIC	?GetAutoCompactEnable@i3FixedMemoryPool@@QAEHXZ	; i3FixedMemoryPool::GetAutoCompactEnable
PUBLIC	?SetAutoCompactEnable@i3FixedMemoryPool@@QAEXH@Z ; i3FixedMemoryPool::SetAutoCompactEnable
PUBLIC	?getPageSize@i3FixedMemoryPool@@QAEIXZ		; i3FixedMemoryPool::getPageSize
PUBLIC	?GetPageCount@i3FixedMemoryPool@@QAEHXZ		; i3FixedMemoryPool::GetPageCount
PUBLIC	?getUnitSize@i3FixedMemoryPool@@QAEIXZ		; i3FixedMemoryPool::getUnitSize
PUBLIC	?GetTotalBlockCount@i3FixedMemoryPool@@QAEIXZ	; i3FixedMemoryPool::GetTotalBlockCount
PUBLIC	?GetAllocatedBlockCount@i3FixedMemoryPool@@QAEIXZ ; i3FixedMemoryPool::GetAllocatedBlockCount
PUBLIC	?Reset@i3FixedMemoryPool@@QAEXXZ		; i3FixedMemoryPool::Reset
PUBLIC	?Compact@i3FixedMemoryPool@@QAEXXZ		; i3FixedMemoryPool::Compact
PUBLIC	?Alloc@i3FixedMemoryPool@@UAEPAXIPBDH@Z		; i3FixedMemoryPool::Alloc
PUBLIC	?Free@i3FixedMemoryPool@@UAEXPAX@Z		; i3FixedMemoryPool::Free
PUBLIC	??0i3FixedMemoryPool@@QAE@ABV0@@Z		; i3FixedMemoryPool::i3FixedMemoryPool
PUBLIC	??4i3FixedMemoryPool@@QAEAAV0@ABV0@@Z		; i3FixedMemoryPool::operator=
PUBLIC	??_Gi3FixedMemoryPool@@UAEPAXI@Z		; i3FixedMemoryPool::`scalar deleting destructor'
PUBLIC	??_Ei3FixedMemoryPool@@UAEPAXI@Z		; i3FixedMemoryPool::`vector deleting destructor'
PUBLIC	??_7i3MemoryPool@@6B@				; i3MemoryPool::`vftable'
PUBLIC	??_7i3ClassMeta@@6B@				; i3ClassMeta::`vftable'
PUBLIC	??_7i3ElementBase@@6B@				; i3ElementBase::`vftable'
PUBLIC	??_7i3Mutex@@6B@				; i3Mutex::`vftable'
PUBLIC	??_7i3FixedMemoryPool@@6B@			; i3FixedMemoryPool::`vftable'
PUBLIC	??_C@_0GM@ENLJGMEI@E?3?2Proyectos?2JuegosOnlineproyec@ ; `string'
PUBLIC	??_R4i3MemoryPool@@6B@				; i3MemoryPool::`RTTI Complete Object Locator'
PUBLIC	??_R0?AVi3MemoryPool@@@8			; i3MemoryPool `RTTI Type Descriptor'
PUBLIC	??_R3i3MemoryPool@@8				; i3MemoryPool::`RTTI Class Hierarchy Descriptor'
PUBLIC	??_R2i3MemoryPool@@8				; i3MemoryPool::`RTTI Base Class Array'
PUBLIC	??_R1A@?0A@EA@i3MemoryPool@@8			; i3MemoryPool::`RTTI Base Class Descriptor at (0,-1,0,64)'
PUBLIC	??_R4i3ElementBase@@6B@				; i3ElementBase::`RTTI Complete Object Locator'
PUBLIC	??_R0?AVi3ElementBase@@@8			; i3ElementBase `RTTI Type Descriptor'
PUBLIC	??_R3i3ElementBase@@8				; i3ElementBase::`RTTI Class Hierarchy Descriptor'
PUBLIC	??_R2i3ElementBase@@8				; i3ElementBase::`RTTI Base Class Array'
PUBLIC	??_R1A@?0A@EA@i3ElementBase@@8			; i3ElementBase::`RTTI Base Class Descriptor at (0,-1,0,64)'
PUBLIC	??_R4i3ClassMeta@@6B@				; i3ClassMeta::`RTTI Complete Object Locator'
PUBLIC	??_R0?AVi3ClassMeta@@@8				; i3ClassMeta `RTTI Type Descriptor'
PUBLIC	??_R3i3ClassMeta@@8				; i3ClassMeta::`RTTI Class Hierarchy Descriptor'
PUBLIC	??_R2i3ClassMeta@@8				; i3ClassMeta::`RTTI Base Class Array'
PUBLIC	??_R1A@?0A@EA@i3ClassMeta@@8			; i3ClassMeta::`RTTI Base Class Descriptor at (0,-1,0,64)'
PUBLIC	??_R4i3Mutex@@6B@				; i3Mutex::`RTTI Complete Object Locator'
PUBLIC	??_R0?AVi3Mutex@@@8				; i3Mutex `RTTI Type Descriptor'
PUBLIC	??_R3i3Mutex@@8					; i3Mutex::`RTTI Class Hierarchy Descriptor'
PUBLIC	??_R2i3Mutex@@8					; i3Mutex::`RTTI Base Class Array'
PUBLIC	??_R1A@?0A@EA@i3Mutex@@8			; i3Mutex::`RTTI Base Class Descriptor at (0,-1,0,64)'
PUBLIC	??_R4i3FixedMemoryPool@@6B@			; i3FixedMemoryPool::`RTTI Complete Object Locator'
PUBLIC	??_R0?AVi3FixedMemoryPool@@@8			; i3FixedMemoryPool `RTTI Type Descriptor'
PUBLIC	??_R3i3FixedMemoryPool@@8			; i3FixedMemoryPool::`RTTI Class Hierarchy Descriptor'
PUBLIC	??_R2i3FixedMemoryPool@@8			; i3FixedMemoryPool::`RTTI Base Class Array'
PUBLIC	??_R1A@?0A@EA@i3FixedMemoryPool@@8		; i3FixedMemoryPool::`RTTI Base Class Descriptor at (0,-1,0,64)'
EXTRN	??_M@YGXPAXIIP6EX0@Z@Z:PROC			; `eh vector destructor iterator'
EXTRN	__purecall:PROC
EXTRN	??2@YAPAXI@Z:PROC				; operator new
EXTRN	??3@YAXPAX@Z:PROC				; operator delete
EXTRN	??3@YAXPAXI@Z:PROC				; operator delete
EXTRN	??_V@YAXPAX@Z:PROC				; operator delete[]
EXTRN	??_V@YAXPAXI@Z:PROC				; operator delete[]
EXTRN	??0i3MemoryPool@@QAE@XZ:PROC			; i3MemoryPool::i3MemoryPool
EXTRN	??1i3MemoryPool@@UAE@XZ:PROC			; i3MemoryPool::~i3MemoryPool
EXTRN	?FreeTool@i3mem@@YAXPAXPBDH@Z:PROC		; i3mem::FreeTool
EXTRN	??1i3ClassMeta@@UAE@XZ:PROC			; i3ClassMeta::~i3ClassMeta
EXTRN	?CreateInstance@i3ClassMeta@@UAEPAVi3ElementBase@@W4I3_CLASSMETA_TYPE@@@Z:PROC ; i3ClassMeta::CreateInstance
EXTRN	?BindInstance@i3ClassMeta@@UAEPAVi3ElementBase@@PAXW4I3_CLASSMETA_TYPE@@@Z:PROC ; i3ClassMeta::BindInstance
EXTRN	?IsTypeOf@i3ClassMeta@@QAE_NPAV1@@Z:PROC	; i3ClassMeta::IsTypeOf
EXTRN	?GetMeta@i3ElementBase@@UAEPAVi3ClassMeta@@XZ:PROC ; i3ElementBase::GetMeta
EXTRN	??1i3ElementBase@@UAE@XZ:PROC			; i3ElementBase::~i3ElementBase
EXTRN	??3i3ElementBase@@SAXPAX@Z:PROC			; i3ElementBase::operator delete
EXTRN	?CopyTo@i3ElementBase@@UAEXPAV1@W4I3_COPY_METHOD@@@Z:PROC ; i3ElementBase::CopyTo
EXTRN	?GetMeta@i3Mutex@@UAEPAVi3ClassMeta@@XZ:PROC	; i3Mutex::GetMeta
EXTRN	??1i3Mutex@@UAE@XZ:PROC				; i3Mutex::~i3Mutex
EXTRN	??0i3Mutex2@@QAE@XZ:PROC			; i3Mutex2::i3Mutex2
EXTRN	??1i3Mutex2@@QAE@XZ:PROC			; i3Mutex2::~i3Mutex2
EXTRN	?Enter@i3Mutex2@@QAEXXZ:PROC			; i3Mutex2::Enter
EXTRN	?Leave@i3Mutex2@@QAEXXZ:PROC			; i3Mutex2::Leave
EXTRN	@__security_check_cookie@4:PROC
EXTRN	___CxxFrameHandler3:PROC
EXTRN	?Alloc@i3mem@@3P6APAXHHHPBDH@ZA:DWORD		; i3mem::Alloc
EXTRN	??_7type_info@@6B@:QWORD			; type_info::`vftable'
EXTRN	?s_pClassMetai3ElementBase@i3ElementBase@@2PAVi3ClassMeta@@A:DWORD ; i3ElementBase::s_pClassMetai3ElementBase
EXTRN	?s_pClassMetai3Mutex@i3Mutex@@2PAVi3ClassMeta@@A:DWORD ; i3Mutex::s_pClassMetai3Mutex
EXTRN	___security_cookie:DWORD
;	COMDAT ??_R1A@?0A@EA@i3FixedMemoryPool@@8
rdata$r	SEGMENT
??_R1A@?0A@EA@i3FixedMemoryPool@@8 DD FLAT:??_R0?AVi3FixedMemoryPool@@@8 ; i3FixedMemoryPool::`RTTI Base Class Descriptor at (0,-1,0,64)'
	DD	01H
	DD	00H
	DD	0ffffffffH
	DD	00H
	DD	040H
	DD	FLAT:??_R3i3FixedMemoryPool@@8
rdata$r	ENDS
;	COMDAT ??_R2i3FixedMemoryPool@@8
rdata$r	SEGMENT
??_R2i3FixedMemoryPool@@8 DD FLAT:??_R1A@?0A@EA@i3FixedMemoryPool@@8 ; i3FixedMemoryPool::`RTTI Base Class Array'
	DD	FLAT:??_R1A@?0A@EA@i3MemoryPool@@8
rdata$r	ENDS
;	COMDAT ??_R3i3FixedMemoryPool@@8
rdata$r	SEGMENT
??_R3i3FixedMemoryPool@@8 DD 00H			; i3FixedMemoryPool::`RTTI Class Hierarchy Descriptor'
	DD	00H
	DD	02H
	DD	FLAT:??_R2i3FixedMemoryPool@@8
rdata$r	ENDS
;	COMDAT ??_R0?AVi3FixedMemoryPool@@@8
data$rs	SEGMENT
??_R0?AVi3FixedMemoryPool@@@8 DD FLAT:??_7type_info@@6B@ ; i3FixedMemoryPool `RTTI Type Descriptor'
	DD	00H
	DB	'.?AVi3FixedMemoryPool@@', 00H
data$rs	ENDS
;	COMDAT ??_R4i3FixedMemoryPool@@6B@
rdata$r	SEGMENT
??_R4i3FixedMemoryPool@@6B@ DD 00H			; i3FixedMemoryPool::`RTTI Complete Object Locator'
	DD	00H
	DD	00H
	DD	FLAT:??_R0?AVi3FixedMemoryPool@@@8
	DD	FLAT:??_R3i3FixedMemoryPool@@8
rdata$r	ENDS
;	COMDAT ??_R1A@?0A@EA@i3Mutex@@8
rdata$r	SEGMENT
??_R1A@?0A@EA@i3Mutex@@8 DD FLAT:??_R0?AVi3Mutex@@@8	; i3Mutex::`RTTI Base Class Descriptor at (0,-1,0,64)'
	DD	01H
	DD	00H
	DD	0ffffffffH
	DD	00H
	DD	040H
	DD	FLAT:??_R3i3Mutex@@8
rdata$r	ENDS
;	COMDAT ??_R2i3Mutex@@8
rdata$r	SEGMENT
??_R2i3Mutex@@8 DD FLAT:??_R1A@?0A@EA@i3Mutex@@8	; i3Mutex::`RTTI Base Class Array'
	DD	FLAT:??_R1A@?0A@EA@i3ElementBase@@8
rdata$r	ENDS
;	COMDAT ??_R3i3Mutex@@8
rdata$r	SEGMENT
??_R3i3Mutex@@8 DD 00H					; i3Mutex::`RTTI Class Hierarchy Descriptor'
	DD	00H
	DD	02H
	DD	FLAT:??_R2i3Mutex@@8
rdata$r	ENDS
;	COMDAT ??_R0?AVi3Mutex@@@8
data$rs	SEGMENT
??_R0?AVi3Mutex@@@8 DD FLAT:??_7type_info@@6B@		; i3Mutex `RTTI Type Descriptor'
	DD	00H
	DB	'.?AVi3Mutex@@', 00H
data$rs	ENDS
;	COMDAT ??_R4i3Mutex@@6B@
rdata$r	SEGMENT
??_R4i3Mutex@@6B@ DD 00H				; i3Mutex::`RTTI Complete Object Locator'
	DD	00H
	DD	00H
	DD	FLAT:??_R0?AVi3Mutex@@@8
	DD	FLAT:??_R3i3Mutex@@8
rdata$r	ENDS
;	COMDAT ??_R1A@?0A@EA@i3ClassMeta@@8
rdata$r	SEGMENT
??_R1A@?0A@EA@i3ClassMeta@@8 DD FLAT:??_R0?AVi3ClassMeta@@@8 ; i3ClassMeta::`RTTI Base Class Descriptor at (0,-1,0,64)'
	DD	00H
	DD	00H
	DD	0ffffffffH
	DD	00H
	DD	040H
	DD	FLAT:??_R3i3ClassMeta@@8
rdata$r	ENDS
;	COMDAT ??_R2i3ClassMeta@@8
rdata$r	SEGMENT
??_R2i3ClassMeta@@8 DD FLAT:??_R1A@?0A@EA@i3ClassMeta@@8 ; i3ClassMeta::`RTTI Base Class Array'
rdata$r	ENDS
;	COMDAT ??_R3i3ClassMeta@@8
rdata$r	SEGMENT
??_R3i3ClassMeta@@8 DD 00H				; i3ClassMeta::`RTTI Class Hierarchy Descriptor'
	DD	00H
	DD	01H
	DD	FLAT:??_R2i3ClassMeta@@8
rdata$r	ENDS
;	COMDAT ??_R0?AVi3ClassMeta@@@8
data$rs	SEGMENT
??_R0?AVi3ClassMeta@@@8 DD FLAT:??_7type_info@@6B@	; i3ClassMeta `RTTI Type Descriptor'
	DD	00H
	DB	'.?AVi3ClassMeta@@', 00H
data$rs	ENDS
;	COMDAT ??_R4i3ClassMeta@@6B@
rdata$r	SEGMENT
??_R4i3ClassMeta@@6B@ DD 00H				; i3ClassMeta::`RTTI Complete Object Locator'
	DD	00H
	DD	00H
	DD	FLAT:??_R0?AVi3ClassMeta@@@8
	DD	FLAT:??_R3i3ClassMeta@@8
rdata$r	ENDS
;	COMDAT ??_R1A@?0A@EA@i3ElementBase@@8
rdata$r	SEGMENT
??_R1A@?0A@EA@i3ElementBase@@8 DD FLAT:??_R0?AVi3ElementBase@@@8 ; i3ElementBase::`RTTI Base Class Descriptor at (0,-1,0,64)'
	DD	00H
	DD	00H
	DD	0ffffffffH
	DD	00H
	DD	040H
	DD	FLAT:??_R3i3ElementBase@@8
rdata$r	ENDS
;	COMDAT ??_R2i3ElementBase@@8
rdata$r	SEGMENT
??_R2i3ElementBase@@8 DD FLAT:??_R1A@?0A@EA@i3ElementBase@@8 ; i3ElementBase::`RTTI Base Class Array'
rdata$r	ENDS
;	COMDAT ??_R3i3ElementBase@@8
rdata$r	SEGMENT
??_R3i3ElementBase@@8 DD 00H				; i3ElementBase::`RTTI Class Hierarchy Descriptor'
	DD	00H
	DD	01H
	DD	FLAT:??_R2i3ElementBase@@8
rdata$r	ENDS
;	COMDAT ??_R0?AVi3ElementBase@@@8
data$rs	SEGMENT
??_R0?AVi3ElementBase@@@8 DD FLAT:??_7type_info@@6B@	; i3ElementBase `RTTI Type Descriptor'
	DD	00H
	DB	'.?AVi3ElementBase@@', 00H
data$rs	ENDS
;	COMDAT ??_R4i3ElementBase@@6B@
rdata$r	SEGMENT
??_R4i3ElementBase@@6B@ DD 00H				; i3ElementBase::`RTTI Complete Object Locator'
	DD	00H
	DD	00H
	DD	FLAT:??_R0?AVi3ElementBase@@@8
	DD	FLAT:??_R3i3ElementBase@@8
rdata$r	ENDS
;	COMDAT ??_R1A@?0A@EA@i3MemoryPool@@8
rdata$r	SEGMENT
??_R1A@?0A@EA@i3MemoryPool@@8 DD FLAT:??_R0?AVi3MemoryPool@@@8 ; i3MemoryPool::`RTTI Base Class Descriptor at (0,-1,0,64)'
	DD	00H
	DD	00H
	DD	0ffffffffH
	DD	00H
	DD	040H
	DD	FLAT:??_R3i3MemoryPool@@8
rdata$r	ENDS
;	COMDAT ??_R2i3MemoryPool@@8
rdata$r	SEGMENT
??_R2i3MemoryPool@@8 DD FLAT:??_R1A@?0A@EA@i3MemoryPool@@8 ; i3MemoryPool::`RTTI Base Class Array'
rdata$r	ENDS
;	COMDAT ??_R3i3MemoryPool@@8
rdata$r	SEGMENT
??_R3i3MemoryPool@@8 DD 00H				; i3MemoryPool::`RTTI Class Hierarchy Descriptor'
	DD	00H
	DD	01H
	DD	FLAT:??_R2i3MemoryPool@@8
rdata$r	ENDS
;	COMDAT ??_R0?AVi3MemoryPool@@@8
data$rs	SEGMENT
??_R0?AVi3MemoryPool@@@8 DD FLAT:??_7type_info@@6B@	; i3MemoryPool `RTTI Type Descriptor'
	DD	00H
	DB	'.?AVi3MemoryPool@@', 00H
data$rs	ENDS
;	COMDAT ??_R4i3MemoryPool@@6B@
rdata$r	SEGMENT
??_R4i3MemoryPool@@6B@ DD 00H				; i3MemoryPool::`RTTI Complete Object Locator'
	DD	00H
	DD	00H
	DD	FLAT:??_R0?AVi3MemoryPool@@@8
	DD	FLAT:??_R3i3MemoryPool@@8
rdata$r	ENDS
;	COMDAT ??_C@_0GM@ENLJGMEI@E?3?2Proyectos?2JuegosOnlineproyec@
CONST	SEGMENT
??_C@_0GM@ENLJGMEI@E?3?2Proyectos?2JuegosOnlineproyec@ DB 'E:\Proyectos\J'
	DB	'uegosOnlineproyectos\PB\pbblow\Piercing Blow Remake\i3Server\'
	DB	'src\i3Base\i3FixedMemoryPool.cpp', 00H	; `string'
CONST	ENDS
;	COMDAT ??_7i3FixedMemoryPool@@6B@
CONST	SEGMENT
??_7i3FixedMemoryPool@@6B@ DD FLAT:??_R4i3FixedMemoryPool@@6B@ ; i3FixedMemoryPool::`vftable'
	DD	FLAT:??_Ei3FixedMemoryPool@@UAEPAXI@Z
	DD	FLAT:?Alloc@i3FixedMemoryPool@@UAEPAXIPBDH@Z
	DD	FLAT:?Free@i3FixedMemoryPool@@UAEXPAX@Z
CONST	ENDS
;	COMDAT ??_7i3Mutex@@6B@
CONST	SEGMENT
??_7i3Mutex@@6B@ DD FLAT:??_R4i3Mutex@@6B@		; i3Mutex::`vftable'
	DD	FLAT:?GetMeta@i3Mutex@@UAEPAVi3ClassMeta@@XZ
	DD	FLAT:??_Ei3Mutex@@UAEPAXI@Z
	DD	FLAT:?CopyTo@i3ElementBase@@UAEXPAV1@W4I3_COPY_METHOD@@@Z
CONST	ENDS
;	COMDAT ??_7i3ElementBase@@6B@
CONST	SEGMENT
??_7i3ElementBase@@6B@ DD FLAT:??_R4i3ElementBase@@6B@	; i3ElementBase::`vftable'
	DD	FLAT:?GetMeta@i3ElementBase@@UAEPAVi3ClassMeta@@XZ
	DD	FLAT:??_Ei3ElementBase@@UAEPAXI@Z
	DD	FLAT:?CopyTo@i3ElementBase@@UAEXPAV1@W4I3_COPY_METHOD@@@Z
CONST	ENDS
;	COMDAT ??_7i3ClassMeta@@6B@
CONST	SEGMENT
??_7i3ClassMeta@@6B@ DD FLAT:??_R4i3ClassMeta@@6B@	; i3ClassMeta::`vftable'
	DD	FLAT:??_Ei3ClassMeta@@UAEPAXI@Z
	DD	FLAT:?CreateInstance@i3ClassMeta@@UAEPAVi3ElementBase@@W4I3_CLASSMETA_TYPE@@@Z
	DD	FLAT:?BindInstance@i3ClassMeta@@UAEPAVi3ElementBase@@PAXW4I3_CLASSMETA_TYPE@@@Z
CONST	ENDS
;	COMDAT ??_7i3MemoryPool@@6B@
CONST	SEGMENT
??_7i3MemoryPool@@6B@ DD FLAT:??_R4i3MemoryPool@@6B@	; i3MemoryPool::`vftable'
	DD	FLAT:??_Ei3MemoryPool@@UAEPAXI@Z
	DD	FLAT:__purecall
	DD	FLAT:__purecall
CONST	ENDS
;	COMDAT xdata$x
xdata$x	SEGMENT
__ehfuncinfo$??_Ei3FixedMemoryPool@@UAEPAXI@Z DD 019930522H
	DD	00H
	DD	00H
	DD	2 DUP(00H)
	DD	2 DUP(00H)
	DD	00H
	DD	05H
xdata$x	ENDS
;	COMDAT xdata$x
xdata$x	SEGMENT
__ehfuncinfo$??1i3FixedMemoryPool@@UAE@XZ DD 019930522H
	DD	00H
	DD	00H
	DD	2 DUP(00H)
	DD	2 DUP(00H)
	DD	00H
	DD	05H
xdata$x	ENDS
;	COMDAT xdata$x
xdata$x	SEGMENT
__unwindtable$??0i3FixedMemoryPool@@QAE@XZ DD 0ffffffffH
	DD	FLAT:__unwindfunclet$??0i3FixedMemoryPool@@QAE@XZ$0
	DD	00H
	DD	FLAT:__unwindfunclet$??0i3FixedMemoryPool@@QAE@XZ$1
__ehfuncinfo$??0i3FixedMemoryPool@@QAE@XZ DD 019930522H
	DD	02H
	DD	FLAT:__unwindtable$??0i3FixedMemoryPool@@QAE@XZ
	DD	2 DUP(00H)
	DD	2 DUP(00H)
	DD	00H
	DD	01H
xdata$x	ENDS
;	COMDAT xdata$x
xdata$x	SEGMENT
__ehfuncinfo$??_Ei3Mutex@@UAEPAXI@Z DD 019930522H
	DD	00H
	DD	00H
	DD	2 DUP(00H)
	DD	2 DUP(00H)
	DD	00H
	DD	05H
xdata$x	ENDS
;	COMDAT xdata$x
xdata$x	SEGMENT
__ehfuncinfo$??_Ei3ElementBase@@UAEPAXI@Z DD 019930522H
	DD	00H
	DD	00H
	DD	2 DUP(00H)
	DD	2 DUP(00H)
	DD	00H
	DD	05H
xdata$x	ENDS
;	COMDAT xdata$x
xdata$x	SEGMENT
__ehfuncinfo$??_Ei3ClassMeta@@UAEPAXI@Z DD 019930522H
	DD	00H
	DD	00H
	DD	2 DUP(00H)
	DD	2 DUP(00H)
	DD	00H
	DD	05H
xdata$x	ENDS
;	COMDAT xdata$x
xdata$x	SEGMENT
__ehfuncinfo$??_Ei3MemoryPool@@UAEPAXI@Z DD 019930522H
	DD	00H
	DD	00H
	DD	2 DUP(00H)
	DD	2 DUP(00H)
	DD	00H
	DD	05H
xdata$x	ENDS
; Function compile flags: /Ogtp
;	COMDAT ??_Ei3FixedMemoryPool@@UAEPAXI@Z
_TEXT	SEGMENT
__$EHRec$ = -12						; size = 12
___flags$ = 8						; size = 4
??_Ei3FixedMemoryPool@@UAEPAXI@Z PROC			; i3FixedMemoryPool::`vector deleting destructor', COMDAT
; _this$ = ecx
  00000	55		 push	 ebp
  00001	8b ec		 mov	 ebp, esp
  00003	6a ff		 push	 -1
  00005	68 00 00 00 00	 push	 __ehhandler$??_Ei3FixedMemoryPool@@UAEPAXI@Z
  0000a	64 a1 00 00 00
	00		 mov	 eax, DWORD PTR fs:0
  00010	50		 push	 eax
  00011	53		 push	 ebx
  00012	56		 push	 esi
  00013	57		 push	 edi
  00014	a1 00 00 00 00	 mov	 eax, DWORD PTR ___security_cookie
  00019	33 c5		 xor	 eax, ebp
  0001b	50		 push	 eax
  0001c	8d 45 f4	 lea	 eax, DWORD PTR __$EHRec$[ebp]
  0001f	64 a3 00 00 00
	00		 mov	 DWORD PTR fs:0, eax
  00025	8b f1		 mov	 esi, ecx
  00027	8b 45 08	 mov	 eax, DWORD PTR ___flags$[ebp]
  0002a	8b f8		 mov	 edi, eax
  0002c	83 e7 01	 and	 edi, 1
  0002f	a8 02		 test	 al, 2
  00031	74 3d		 je	 SHORT $LN2@vector
  00033	68 00 00 00 00	 push	 OFFSET ??1i3FixedMemoryPool@@UAE@XZ ; i3FixedMemoryPool::~i3FixedMemoryPool
  00038	ff 76 fc	 push	 DWORD PTR [esi-4]
  0003b	8d 5e fc	 lea	 ebx, DWORD PTR [esi-4]
  0003e	6a 34		 push	 52			; 00000034H
  00040	56		 push	 esi
  00041	e8 00 00 00 00	 call	 ??_M@YGXPAXIIP6EX0@Z@Z
  00046	85 ff		 test	 edi, edi
  00048	74 10		 je	 SHORT $LN3@vector
  0004a	6b 0b 34	 imul	 ecx, DWORD PTR [ebx], 52
  0004d	83 c1 04	 add	 ecx, 4
  00050	51		 push	 ecx
  00051	53		 push	 ebx
  00052	e8 00 00 00 00	 call	 ??_V@YAXPAXI@Z		; operator delete[]
  00057	83 c4 08	 add	 esp, 8
$LN3@vector:
  0005a	8b c3		 mov	 eax, ebx
  0005c	8b 4d f4	 mov	 ecx, DWORD PTR __$EHRec$[ebp]
  0005f	64 89 0d 00 00
	00 00		 mov	 DWORD PTR fs:0, ecx
  00066	59		 pop	 ecx
  00067	5f		 pop	 edi
  00068	5e		 pop	 esi
  00069	5b		 pop	 ebx
  0006a	8b e5		 mov	 esp, ebp
  0006c	5d		 pop	 ebp
  0006d	c2 04 00	 ret	 4
$LN2@vector:
  00070	e8 00 00 00 00	 call	 ??1i3FixedMemoryPool@@UAE@XZ ; i3FixedMemoryPool::~i3FixedMemoryPool
  00075	85 ff		 test	 edi, edi
  00077	74 0b		 je	 SHORT $LN4@vector
  00079	6a 34		 push	 52			; 00000034H
  0007b	56		 push	 esi
  0007c	e8 00 00 00 00	 call	 ??3@YAXPAXI@Z		; operator delete
  00081	83 c4 08	 add	 esp, 8
$LN4@vector:
  00084	8b c6		 mov	 eax, esi
  00086	8b 4d f4	 mov	 ecx, DWORD PTR __$EHRec$[ebp]
  00089	64 89 0d 00 00
	00 00		 mov	 DWORD PTR fs:0, ecx
  00090	59		 pop	 ecx
  00091	5f		 pop	 edi
  00092	5e		 pop	 esi
  00093	5b		 pop	 ebx
  00094	8b e5		 mov	 esp, ebp
  00096	5d		 pop	 ebp
  00097	c2 04 00	 ret	 4
  0009a	cc		 int	 3
  0009b	cc		 int	 3
  0009c	cc		 int	 3
  0009d	cc		 int	 3
  0009e	cc		 int	 3
_TEXT	ENDS
;	COMDAT text$x
text$x	SEGMENT
__ehhandler$??_Ei3FixedMemoryPool@@UAEPAXI@Z:
  00000	90		 npad	 1
  00001	90		 npad	 1
  00002	8b 54 24 08	 mov	 edx, DWORD PTR [esp+8]
  00006	8d 42 0c	 lea	 eax, DWORD PTR [edx+12]
  00009	8b 4a f0	 mov	 ecx, DWORD PTR [edx-16]
  0000c	33 c8		 xor	 ecx, eax
  0000e	e8 00 00 00 00	 call	 @__security_check_cookie@4
  00013	b8 00 00 00 00	 mov	 eax, OFFSET __ehfuncinfo$??_Ei3FixedMemoryPool@@UAEPAXI@Z
  00018	e9 00 00 00 00	 jmp	 ___CxxFrameHandler3
text$x	ENDS
??_Ei3FixedMemoryPool@@UAEPAXI@Z ENDP			; i3FixedMemoryPool::`vector deleting destructor'
; Function compile flags: /Ogtp
;	COMDAT ??_Gi3FixedMemoryPool@@UAEPAXI@Z
_TEXT	SEGMENT
___flags$ = 8						; size = 4
??_Gi3FixedMemoryPool@@UAEPAXI@Z PROC			; i3FixedMemoryPool::`scalar deleting destructor', COMDAT
; _this$ = ecx
  00000	55		 push	 ebp
  00001	8b ec		 mov	 ebp, esp
  00003	56		 push	 esi
  00004	8b f1		 mov	 esi, ecx
  00006	e8 00 00 00 00	 call	 ??1i3FixedMemoryPool@@UAE@XZ ; i3FixedMemoryPool::~i3FixedMemoryPool
  0000b	f6 45 08 01	 test	 BYTE PTR ___flags$[ebp], 1
  0000f	74 0b		 je	 SHORT $LN5@scalar
  00011	6a 34		 push	 52			; 00000034H
  00013	56		 push	 esi
  00014	e8 00 00 00 00	 call	 ??3@YAXPAXI@Z		; operator delete
  00019	83 c4 08	 add	 esp, 8
$LN5@scalar:
  0001c	8b c6		 mov	 eax, esi
  0001e	5e		 pop	 esi
  0001f	5d		 pop	 ebp
  00020	c2 04 00	 ret	 4
??_Gi3FixedMemoryPool@@UAEPAXI@Z ENDP			; i3FixedMemoryPool::`scalar deleting destructor'
_TEXT	ENDS
; Function compile flags: /Ogtp
;	COMDAT ??4i3FixedMemoryPool@@QAEAAV0@ABV0@@Z
_TEXT	SEGMENT
___that$ = 8						; size = 4
??4i3FixedMemoryPool@@QAEAAV0@ABV0@@Z PROC		; i3FixedMemoryPool::operator=, COMDAT
; _this$ = ecx
  00000	55		 push	 ebp
  00001	8b ec		 mov	 ebp, esp
  00003	8b 55 08	 mov	 edx, DWORD PTR ___that$[ebp]
  00006	8b 42 04	 mov	 eax, DWORD PTR [edx+4]
  00009	89 41 04	 mov	 DWORD PTR [ecx+4], eax
  0000c	8b 42 08	 mov	 eax, DWORD PTR [edx+8]
  0000f	89 41 08	 mov	 DWORD PTR [ecx+8], eax
  00012	8b 42 0c	 mov	 eax, DWORD PTR [edx+12]
  00015	89 41 0c	 mov	 DWORD PTR [ecx+12], eax
  00018	8b 42 10	 mov	 eax, DWORD PTR [edx+16]
  0001b	89 41 10	 mov	 DWORD PTR [ecx+16], eax
  0001e	8b 42 14	 mov	 eax, DWORD PTR [edx+20]
  00021	89 41 14	 mov	 DWORD PTR [ecx+20], eax
  00024	8b 42 18	 mov	 eax, DWORD PTR [edx+24]
  00027	89 41 18	 mov	 DWORD PTR [ecx+24], eax
  0002a	8b 42 1c	 mov	 eax, DWORD PTR [edx+28]
  0002d	89 41 1c	 mov	 DWORD PTR [ecx+28], eax
  00030	8b 42 20	 mov	 eax, DWORD PTR [edx+32]
  00033	89 41 20	 mov	 DWORD PTR [ecx+32], eax
  00036	8b 42 24	 mov	 eax, DWORD PTR [edx+36]
  00039	89 41 24	 mov	 DWORD PTR [ecx+36], eax
  0003c	8b 42 28	 mov	 eax, DWORD PTR [edx+40]
  0003f	89 41 28	 mov	 DWORD PTR [ecx+40], eax
  00042	8b 42 2c	 mov	 eax, DWORD PTR [edx+44]
  00045	89 41 2c	 mov	 DWORD PTR [ecx+44], eax
  00048	8b 42 30	 mov	 eax, DWORD PTR [edx+48]
  0004b	89 41 30	 mov	 DWORD PTR [ecx+48], eax
  0004e	8b c1		 mov	 eax, ecx
  00050	5d		 pop	 ebp
  00051	c2 04 00	 ret	 4
??4i3FixedMemoryPool@@QAEAAV0@ABV0@@Z ENDP		; i3FixedMemoryPool::operator=
_TEXT	ENDS
; Function compile flags: /Ogtp
;	COMDAT ??0i3FixedMemoryPool@@QAE@ABV0@@Z
_TEXT	SEGMENT
___that$ = 8						; size = 4
??0i3FixedMemoryPool@@QAE@ABV0@@Z PROC			; i3FixedMemoryPool::i3FixedMemoryPool, COMDAT
; _this$ = ecx
  00000	55		 push	 ebp
  00001	8b ec		 mov	 ebp, esp
  00003	8b 55 08	 mov	 edx, DWORD PTR ___that$[ebp]
  00006	c7 01 00 00 00
	00		 mov	 DWORD PTR [ecx], OFFSET ??_7i3FixedMemoryPool@@6B@
  0000c	8b 42 04	 mov	 eax, DWORD PTR [edx+4]
  0000f	89 41 04	 mov	 DWORD PTR [ecx+4], eax
  00012	8b 42 08	 mov	 eax, DWORD PTR [edx+8]
  00015	89 41 08	 mov	 DWORD PTR [ecx+8], eax
  00018	8b 42 0c	 mov	 eax, DWORD PTR [edx+12]
  0001b	89 41 0c	 mov	 DWORD PTR [ecx+12], eax
  0001e	8b 42 10	 mov	 eax, DWORD PTR [edx+16]
  00021	89 41 10	 mov	 DWORD PTR [ecx+16], eax
  00024	8b 42 14	 mov	 eax, DWORD PTR [edx+20]
  00027	89 41 14	 mov	 DWORD PTR [ecx+20], eax
  0002a	8b 42 18	 mov	 eax, DWORD PTR [edx+24]
  0002d	89 41 18	 mov	 DWORD PTR [ecx+24], eax
  00030	8b 42 1c	 mov	 eax, DWORD PTR [edx+28]
  00033	89 41 1c	 mov	 DWORD PTR [ecx+28], eax
  00036	8b 42 20	 mov	 eax, DWORD PTR [edx+32]
  00039	89 41 20	 mov	 DWORD PTR [ecx+32], eax
  0003c	8b 42 24	 mov	 eax, DWORD PTR [edx+36]
  0003f	89 41 24	 mov	 DWORD PTR [ecx+36], eax
  00042	8b 42 28	 mov	 eax, DWORD PTR [edx+40]
  00045	89 41 28	 mov	 DWORD PTR [ecx+40], eax
  00048	8b 42 2c	 mov	 eax, DWORD PTR [edx+44]
  0004b	89 41 2c	 mov	 DWORD PTR [ecx+44], eax
  0004e	8b 42 30	 mov	 eax, DWORD PTR [edx+48]
  00051	89 41 30	 mov	 DWORD PTR [ecx+48], eax
  00054	8b c1		 mov	 eax, ecx
  00056	5d		 pop	 ebp
  00057	c2 04 00	 ret	 4
??0i3FixedMemoryPool@@QAE@ABV0@@Z ENDP			; i3FixedMemoryPool::i3FixedMemoryPool
_TEXT	ENDS
; Function compile flags: /Ogtp
; File E:\Proyectos\JuegosOnlineproyectos\PB\pbblow\Piercing Blow Remake\i3Server\src\i3Base\i3FixedMemoryPool.cpp
;	COMDAT ?Free@i3FixedMemoryPool@@UAEXPAX@Z
_TEXT	SEGMENT
_pObj$ = 8						; size = 4
?Free@i3FixedMemoryPool@@UAEXPAX@Z PROC			; i3FixedMemoryPool::Free, COMDAT
; _this$ = ecx

; 324  : {

  00000	55		 push	 ebp
  00001	8b ec		 mov	 ebp, esp
  00003	56		 push	 esi
  00004	8b f1		 mov	 esi, ecx

; 325  : 	PAGE * pPage;
; 326  : 	BLOCK * pBlock;
; 327  : 
; 328  : 	m_pMutex->Enter();

  00006	8b 4e 04	 mov	 ecx, DWORD PTR [esi+4]
  00009	e8 00 00 00 00	 call	 ?Enter@i3Mutex2@@QAEXXZ	; i3Mutex2::Enter

; 329  : 
; 330  : 	pBlock = (BLOCK *) (((char *) pObj) - m_AlignedElementTagSize);	

  0000e	8b 55 08	 mov	 edx, DWORD PTR _pObj$[ebp]

; 331  : 	pBlock->m_bUsed = FALSE;
; 332  : 
; 333  : 	// Free Listżˇ Ăß°ˇ.
; 334  : 	pBlock->m_pNextFree = m_pFree;
; 335  : 	m_pFree = pBlock;
; 336  : 
; 337  : 	// ÇŘ´ç PageŔÇ ĽłÁ¤
; 338  : 	pPage = FindPage( (char *) pBlock);

  00011	8b ce		 mov	 ecx, esi
  00013	2b 56 24	 sub	 edx, DWORD PTR [esi+36]
  00016	52		 push	 edx
  00017	c7 02 00 00 00
	00		 mov	 DWORD PTR [edx], 0
  0001d	8b 46 0c	 mov	 eax, DWORD PTR [esi+12]
  00020	89 42 04	 mov	 DWORD PTR [edx+4], eax
  00023	89 56 0c	 mov	 DWORD PTR [esi+12], edx
  00026	e8 00 00 00 00	 call	 ?FindPage@i3FixedMemoryPool@@IAEPAUPAGE@1@PAD@Z ; i3FixedMemoryPool::FindPage

; 339  : 	I3ASSERT( pPage != NULL);
; 340  : 
; 341  : 	pPage->m_UsedCount--;

  0002b	8b 08		 mov	 ecx, DWORD PTR [eax]
  0002d	49		 dec	 ecx
  0002e	89 08		 mov	 DWORD PTR [eax], ecx

; 342  : 
; 343  : 	if( m_bAutoCompact)

  00030	83 7e 30 00	 cmp	 DWORD PTR [esi+48], 0
  00034	74 0c		 je	 SHORT $LN3@Free

; 344  : 	{
; 345  : 		if( pPage->m_UsedCount <= 0)

  00036	85 c9		 test	 ecx, ecx
  00038	75 08		 jne	 SHORT $LN3@Free

; 346  : 		{
; 347  : 			RemovePage( pPage);

  0003a	50		 push	 eax
  0003b	8b ce		 mov	 ecx, esi
  0003d	e8 00 00 00 00	 call	 ?RemovePage@i3FixedMemoryPool@@IAEXPAUPAGE@1@@Z ; i3FixedMemoryPool::RemovePage
$LN3@Free:

; 348  : 		}
; 349  : 	}
; 350  : 
; 351  : 	m_pMutex->Leave();

  00042	8b 4e 04	 mov	 ecx, DWORD PTR [esi+4]
  00045	e8 00 00 00 00	 call	 ?Leave@i3Mutex2@@QAEXXZ	; i3Mutex2::Leave
  0004a	5e		 pop	 esi

; 352  : }

  0004b	5d		 pop	 ebp
  0004c	c2 04 00	 ret	 4
?Free@i3FixedMemoryPool@@UAEXPAX@Z ENDP			; i3FixedMemoryPool::Free
_TEXT	ENDS
; Function compile flags: /Ogtp
; File E:\Proyectos\JuegosOnlineproyectos\PB\pbblow\Piercing Blow Remake\i3Server\src\i3Base\i3FixedMemoryPool.cpp
;	COMDAT ?Alloc@i3FixedMemoryPool@@UAEPAXIPBDH@Z
_TEXT	SEGMENT
___formal$ = 8						; size = 4
___formal$ = 12						; size = 4
___formal$ = 16						; size = 4
?Alloc@i3FixedMemoryPool@@UAEPAXIPBDH@Z PROC		; i3FixedMemoryPool::Alloc, COMDAT
; _this$ = ecx

; 280  : {

  00000	57		 push	 edi
  00001	8b f9		 mov	 edi, ecx

; 281  : 	char * pBlock;
; 282  : 
; 283  : 	m_pMutex->Enter();

  00003	8b 4f 04	 mov	 ecx, DWORD PTR [edi+4]
  00006	e8 00 00 00 00	 call	 ?Enter@i3Mutex2@@QAEXXZ	; i3Mutex2::Enter

; 284  : 
; 285  : 	if(m_pFree == NULL)

  0000b	83 7f 0c 00	 cmp	 DWORD PTR [edi+12], 0
  0000f	75 16		 jne	 SHORT $LN4@Alloc

; 286  : 	{
; 287  : 		if( m_bAutoExtend)

  00011	83 7f 2c 00	 cmp	 DWORD PTR [edi+44], 0
  00015	74 44		 je	 SHORT $LN3@Alloc

; 288  : 		{
; 289  : 			// Ăß°ˇ·Î Page¸¦ ´Ă¸°´Ů.
; 290  : 			PAGE * pNewPage = NewPage();

  00017	8b cf		 mov	 ecx, edi
  00019	e8 00 00 00 00	 call	 ?NewPage@i3FixedMemoryPool@@IAEPAUPAGE@1@XZ ; i3FixedMemoryPool::NewPage

; 291  : 
; 292  : 			pNewPage->m_pNext = m_pPage;

  0001e	8b 4f 08	 mov	 ecx, DWORD PTR [edi+8]
  00021	89 48 04	 mov	 DWORD PTR [eax+4], ecx

; 293  : 
; 294  : 			m_pPage = pNewPage;

  00024	89 47 08	 mov	 DWORD PTR [edi+8], eax
$LN4@Alloc:

; 300  : 		}
; 301  : 	}
; 302  : 
; 303  : 	I3ASSERT( m_pFree != NULL);
; 304  : 
; 305  : 	pBlock = (((char *) m_pFree) + m_AlignedElementTagSize);

  00027	8b 47 0c	 mov	 eax, DWORD PTR [edi+12]

; 306  : 
; 307  : 	{
; 308  : 		PAGE * pUsedPage = FindPage( (char *) m_pFree);

  0002a	8b cf		 mov	 ecx, edi
  0002c	56		 push	 esi
  0002d	8b 77 24	 mov	 esi, DWORD PTR [edi+36]
  00030	50		 push	 eax
  00031	03 f0		 add	 esi, eax
  00033	e8 00 00 00 00	 call	 ?FindPage@i3FixedMemoryPool@@IAEPAUPAGE@1@PAD@Z ; i3FixedMemoryPool::FindPage

; 309  : 
; 310  : 		I3ASSERT( pUsedPage != NULL);
; 311  : 
; 312  : 		pUsedPage->m_UsedCount++;

  00038	ff 00		 inc	 DWORD PTR [eax]

; 313  : 	}
; 314  : 
; 315  : 	m_pFree->m_bUsed = TRUE;	

  0003a	8b 4f 0c	 mov	 ecx, DWORD PTR [edi+12]
  0003d	c7 01 01 00 00
	00		 mov	 DWORD PTR [ecx], 1

; 316  : 	m_pFree = m_pFree->m_pNextFree;			// Free Head¸¦ ŔĚµżÇŃ´Ů.

  00043	8b 4f 0c	 mov	 ecx, DWORD PTR [edi+12]
  00046	8b 49 04	 mov	 ecx, DWORD PTR [ecx+4]
  00049	89 4f 0c	 mov	 DWORD PTR [edi+12], ecx

; 317  : 
; 318  : 	m_pMutex->Leave();

  0004c	8b 4f 04	 mov	 ecx, DWORD PTR [edi+4]
  0004f	e8 00 00 00 00	 call	 ?Leave@i3Mutex2@@QAEXXZ	; i3Mutex2::Leave

; 319  : 
; 320  : 	return pBlock;

  00054	8b c6		 mov	 eax, esi
  00056	5e		 pop	 esi
  00057	5f		 pop	 edi

; 321  : }

  00058	c2 0c 00	 ret	 12			; 0000000cH
$LN3@Alloc:

; 295  : 		}
; 296  : 		else
; 297  : 		{
; 298  : 			m_pMutex->Leave();

  0005b	8b 4f 04	 mov	 ecx, DWORD PTR [edi+4]
  0005e	e8 00 00 00 00	 call	 ?Leave@i3Mutex2@@QAEXXZ	; i3Mutex2::Leave

; 299  : 			return NULL;

  00063	33 c0		 xor	 eax, eax
  00065	5f		 pop	 edi

; 321  : }

  00066	c2 0c 00	 ret	 12			; 0000000cH
?Alloc@i3FixedMemoryPool@@UAEPAXIPBDH@Z ENDP		; i3FixedMemoryPool::Alloc
_TEXT	ENDS
; Function compile flags: /Ogtp
; File E:\Proyectos\JuegosOnlineproyectos\PB\pbblow\Piercing Blow Remake\i3Server\src\i3Base\i3FixedMemoryPool.cpp
;	COMDAT ?Compact@i3FixedMemoryPool@@QAEXXZ
_TEXT	SEGMENT
_pNext$1$ = -4						; size = 4
?Compact@i3FixedMemoryPool@@QAEXXZ PROC			; i3FixedMemoryPool::Compact, COMDAT
; _this$ = ecx

; 236  : {

  00000	55		 push	 ebp
  00001	8b ec		 mov	 ebp, esp
  00003	51		 push	 ecx
  00004	56		 push	 esi
  00005	8b f1		 mov	 esi, ecx

; 237  : 	m_pMutex->Enter();

  00007	8b 4e 04	 mov	 ecx, DWORD PTR [esi+4]
  0000a	e8 00 00 00 00	 call	 ?Enter@i3Mutex2@@QAEXXZ	; i3Mutex2::Enter

; 238  : 	{
; 239  : 		PAGE * pTemp = m_pPage;

  0000f	8b 56 08	 mov	 edx, DWORD PTR [esi+8]

; 240  : 		PAGE * pNext;
; 241  : 
; 242  : 		while( pTemp != NULL)

  00012	85 d2		 test	 edx, edx
  00014	0f 84 97 00 00
	00		 je	 $LN3@Compact
  0001a	53		 push	 ebx
  0001b	57		 push	 edi
  0001c	8d 64 24 00	 npad	 4
$LL2@Compact:

; 243  : 		{
; 244  : 			pNext = pTemp->m_pNext;
; 245  : 
; 246  : 			if( pTemp->m_UsedCount == 0)

  00020	83 3a 00	 cmp	 DWORD PTR [edx], 0
  00023	8b 42 04	 mov	 eax, DWORD PTR [edx+4]
  00026	89 45 fc	 mov	 DWORD PTR _pNext$1$[ebp], eax
  00029	75 7a		 jne	 SHORT $LN4@Compact

; 149  : 		pPageEnd = (char *) pPage + m_PageUnit;

  0002b	8b 5e 14	 mov	 ebx, DWORD PTR [esi+20]

; 150  : 		pPrevB = NULL;

  0002e	33 ff		 xor	 edi, edi

; 151  : 
; 152  : 		for( pTempB = m_pFree; pTempB != NULL;)

  00030	8b 46 0c	 mov	 eax, DWORD PTR [esi+12]
  00033	03 da		 add	 ebx, edx
  00035	85 c0		 test	 eax, eax
  00037	74 2b		 je	 SHORT $LN8@Compact
  00039	8d a4 24 00 00
	00 00		 npad	 7
$LL9@Compact:

; 153  : 		{
; 154  : 			pNextB = pTempB->m_pNextFree;

  00040	8b 48 04	 mov	 ecx, DWORD PTR [eax+4]

; 155  : 
; 156  : 			if( (((char *)pTempB ) >= pPageStart) && (((char *)pTempB ) <= pPageEnd))

  00043	3b c2		 cmp	 eax, edx
  00045	72 15		 jb	 SHORT $LN12@Compact
  00047	3b c3		 cmp	 eax, ebx
  00049	77 11		 ja	 SHORT $LN12@Compact

; 157  : 			{
; 158  : 				// ÇŘ´ç Page żµżŞ ľČżˇ Á¸ŔçÇĎ´Â ElementŔĚ´Ů.
; 159  : 				if( pPrevB != NULL)

  0004b	85 ff		 test	 edi, edi
  0004d	74 03		 je	 SHORT $LN14@Compact

; 160  : 					pPrevB->m_pNextFree = pNextB;

  0004f	89 4f 04	 mov	 DWORD PTR [edi+4], ecx
$LN14@Compact:

; 161  : 
; 162  : 				if( m_pFree == pTempB )

  00052	39 46 0c	 cmp	 DWORD PTR [esi+12], eax
  00055	75 07		 jne	 SHORT $LN13@Compact

; 163  : 					m_pFree = pNextB;

  00057	89 4e 0c	 mov	 DWORD PTR [esi+12], ecx

; 164  : 			}

  0005a	eb 02		 jmp	 SHORT $LN13@Compact
$LN12@Compact:

; 165  : 			else
; 166  : 			{
; 167  : 				pPrevB = pTempB;

  0005c	8b f8		 mov	 edi, eax
$LN13@Compact:

; 168  : 			}
; 169  : 
; 170  : 			pTempB = pNextB;

  0005e	8b c1		 mov	 eax, ecx
  00060	85 c9		 test	 ecx, ecx
  00062	75 dc		 jne	 SHORT $LL9@Compact
$LN8@Compact:

; 171  : 		}
; 172  : 	}
; 173  : 
; 174  : 	// ľŐ Page¸¦ ĂŁ´Â´Ů.
; 175  : 	pPrev = m_pPage;

  00064	8b 46 08	 mov	 eax, DWORD PTR [esi+8]

; 176  : 	while((pPrev != NULL) && (pPrev->m_pNext != pPage))

  00067	85 c0		 test	 eax, eax
  00069	74 19		 je	 SHORT $LN16@Compact
  0006b	eb 03 8d 49 00	 npad	 5
$LL10@Compact:
  00070	8d 48 04	 lea	 ecx, DWORD PTR [eax+4]
  00073	8b 01		 mov	 eax, DWORD PTR [ecx]
  00075	3b c2		 cmp	 eax, edx
  00077	74 06		 je	 SHORT $LN11@Compact
  00079	85 c0		 test	 eax, eax
  0007b	75 f3		 jne	 SHORT $LL10@Compact

; 177  : 		pPrev = pPrev->m_pNext;
; 178  : 
; 179  : 	if( pPrev != NULL)

  0007d	eb 05		 jmp	 SHORT $LN16@Compact
$LN11@Compact:

; 180  : 		pPrev->m_pNext = pPage->m_pNext;

  0007f	8b 42 04	 mov	 eax, DWORD PTR [edx+4]
  00082	89 01		 mov	 DWORD PTR [ecx], eax
$LN16@Compact:

; 181  : 
; 182  : 	if( m_pPage == pPage)

  00084	39 56 08	 cmp	 DWORD PTR [esi+8], edx
  00087	75 06		 jne	 SHORT $LN17@Compact

; 183  : 		m_pPage = pPage->m_pNext;

  00089	8b 42 04	 mov	 eax, DWORD PTR [edx+4]
  0008c	89 46 08	 mov	 DWORD PTR [esi+8], eax
$LN17@Compact:

; 184  : 
; 185  : 	i3MemFree( pPage);

  0008f	68 b9 00 00 00	 push	 185			; 000000b9H
  00094	68 00 00 00 00	 push	 OFFSET ??_C@_0GM@ENLJGMEI@E?3?2Proyectos?2JuegosOnlineproyec@
  00099	52		 push	 edx
  0009a	e8 00 00 00 00	 call	 ?FreeTool@i3mem@@YAXPAXPBDH@Z ; i3mem::FreeTool
  0009f	8b 45 fc	 mov	 eax, DWORD PTR _pNext$1$[ebp]
  000a2	83 c4 0c	 add	 esp, 12			; 0000000cH
$LN4@Compact:

; 247  : 			{
; 248  : 				RemovePage( pTemp);
; 249  : 			}
; 250  : 
; 251  : 			pTemp = pNext;

  000a5	8b d0		 mov	 edx, eax
  000a7	85 c0		 test	 eax, eax
  000a9	0f 85 71 ff ff
	ff		 jne	 $LL2@Compact

; 240  : 		PAGE * pNext;
; 241  : 
; 242  : 		while( pTemp != NULL)

  000af	5f		 pop	 edi
  000b0	5b		 pop	 ebx
$LN3@Compact:

; 252  : 		}
; 253  : 	}
; 254  : 	m_pMutex->Leave();

  000b1	8b 4e 04	 mov	 ecx, DWORD PTR [esi+4]
  000b4	e8 00 00 00 00	 call	 ?Leave@i3Mutex2@@QAEXXZ	; i3Mutex2::Leave
  000b9	5e		 pop	 esi

; 255  : }

  000ba	8b e5		 mov	 esp, ebp
  000bc	5d		 pop	 ebp
  000bd	c3		 ret	 0
?Compact@i3FixedMemoryPool@@QAEXXZ ENDP			; i3FixedMemoryPool::Compact
_TEXT	ENDS
; Function compile flags: /Ogtp
; File E:\Proyectos\JuegosOnlineproyectos\PB\pbblow\Piercing Blow Remake\i3Server\src\i3Base\i3FixedMemoryPool.cpp
;	COMDAT ?Reset@i3FixedMemoryPool@@QAEXXZ
_TEXT	SEGMENT
?Reset@i3FixedMemoryPool@@QAEXXZ PROC			; i3FixedMemoryPool::Reset, COMDAT
; _this$ = ecx

; 218  : {

  00000	56		 push	 esi
  00001	8b f1		 mov	 esi, ecx
  00003	57		 push	 edi

; 219  : 	m_pMutex->Enter();

  00004	8b 4e 04	 mov	 ecx, DWORD PTR [esi+4]
  00007	e8 00 00 00 00	 call	 ?Enter@i3Mutex2@@QAEXXZ	; i3Mutex2::Enter

; 220  : 	{
; 221  : 		PAGE * pTemp = m_pPage;

  0000c	8b 7e 08	 mov	 edi, DWORD PTR [esi+8]

; 222  : 
; 223  : 		m_pFree = NULL;

  0000f	c7 46 0c 00 00
	00 00		 mov	 DWORD PTR [esi+12], 0

; 224  : 
; 225  : 		while( pTemp != NULL)

  00016	85 ff		 test	 edi, edi
  00018	74 3c		 je	 SHORT $LN3@Reset
  0001a	8d 9b 00 00 00
	00		 npad	 6
$LL2@Reset:

; 121  : 	pPage->m_UsedCount = 0;

  00020	c7 07 00 00 00
	00		 mov	 DWORD PTR [edi], 0

; 122  : 
; 123  : 	pElm = (BLOCK *)(((char *) pPage) + m_AlignedPageTagSize);
; 124  : 
; 125  : 	for( i = 0; i < m_CountPerPage; i++)

  00026	33 d2		 xor	 edx, edx
  00028	8b 4e 20	 mov	 ecx, DWORD PTR [esi+32]
  0002b	03 cf		 add	 ecx, edi
  0002d	39 56 1c	 cmp	 DWORD PTR [esi+28], edx
  00030	76 1d		 jbe	 SHORT $LN7@Reset
$LL8@Reset:

; 126  : 	{
; 127  : 		pElm->m_bUsed = FALSE;

  00032	c7 01 00 00 00
	00		 mov	 DWORD PTR [ecx], 0
  00038	42		 inc	 edx

; 128  : 		pElm->m_pNextFree = m_pFree;			// Free Listżˇ Ăß°ˇ

  00039	8b 46 0c	 mov	 eax, DWORD PTR [esi+12]
  0003c	89 41 04	 mov	 DWORD PTR [ecx+4], eax

; 129  : 
; 130  : 		m_pFree = pElm;							// »ő·Îżî Free Element·Î µî·Ď.
; 131  : 
; 132  : 		pElm = (BLOCK *) (((char *) pElm) + (m_AlignedElementTagSize + m_AlignedElementSize));

  0003f	8b 46 28	 mov	 eax, DWORD PTR [esi+40]
  00042	03 46 24	 add	 eax, DWORD PTR [esi+36]
  00045	89 4e 0c	 mov	 DWORD PTR [esi+12], ecx
  00048	03 c8		 add	 ecx, eax
  0004a	3b 56 1c	 cmp	 edx, DWORD PTR [esi+28]
  0004d	72 e3		 jb	 SHORT $LL8@Reset
$LN7@Reset:

; 226  : 		{
; 227  : 			InitPage( pTemp);
; 228  : 
; 229  : 			pTemp = pTemp->m_pNext;

  0004f	8b 7f 04	 mov	 edi, DWORD PTR [edi+4]
  00052	85 ff		 test	 edi, edi
  00054	75 ca		 jne	 SHORT $LL2@Reset
$LN3@Reset:

; 230  : 		}
; 231  : 	}
; 232  : 	m_pMutex->Leave();

  00056	8b 4e 04	 mov	 ecx, DWORD PTR [esi+4]
  00059	5f		 pop	 edi
  0005a	5e		 pop	 esi
  0005b	e9 00 00 00 00	 jmp	 ?Leave@i3Mutex2@@QAEXXZ	; i3Mutex2::Leave
?Reset@i3FixedMemoryPool@@QAEXXZ ENDP			; i3FixedMemoryPool::Reset
_TEXT	ENDS
; Function compile flags: /Ogtp
; File E:\Proyectos\JuegosOnlineproyectos\PB\pbblow\Piercing Blow Remake\i3Server\src\i3Base\i3FixedMemoryPool.cpp
;	COMDAT ?GetAllocatedBlockCount@i3FixedMemoryPool@@QAEIXZ
_TEXT	SEGMENT
?GetAllocatedBlockCount@i3FixedMemoryPool@@QAEIXZ PROC	; i3FixedMemoryPool::GetAllocatedBlockCount, COMDAT
; _this$ = ecx

; 378  : {

  00000	56		 push	 esi
  00001	57		 push	 edi
  00002	8b f9		 mov	 edi, ecx

; 379  : 	m_pMutex->Enter();

  00004	8b 4f 04	 mov	 ecx, DWORD PTR [edi+4]
  00007	e8 00 00 00 00	 call	 ?Enter@i3Mutex2@@QAEXXZ	; i3Mutex2::Enter

; 380  : 	PAGE * pPage = m_pPage;

  0000c	8b 57 08	 mov	 edx, DWORD PTR [edi+8]

; 381  : 	INT32 cnt = 0;

  0000f	33 f6		 xor	 esi, esi

; 382  : 
; 383  : 	while( pPage != NULL)

  00011	85 d2		 test	 edx, edx
  00013	74 09		 je	 SHORT $LN3@GetAllocat
$LL2@GetAllocat:

; 384  : 	{
; 385  : 		cnt += pPage->m_UsedCount;

  00015	03 32		 add	 esi, DWORD PTR [edx]

; 386  : 		pPage = pPage->m_pNext;

  00017	8b 52 04	 mov	 edx, DWORD PTR [edx+4]
  0001a	85 d2		 test	 edx, edx
  0001c	75 f7		 jne	 SHORT $LL2@GetAllocat
$LN3@GetAllocat:

; 387  : 	}
; 388  : 	m_pMutex->Leave();

  0001e	8b 4f 04	 mov	 ecx, DWORD PTR [edi+4]
  00021	e8 00 00 00 00	 call	 ?Leave@i3Mutex2@@QAEXXZ	; i3Mutex2::Leave

; 389  : 
; 390  : 	return cnt;

  00026	5f		 pop	 edi
  00027	8b c6		 mov	 eax, esi
  00029	5e		 pop	 esi

; 391  : }

  0002a	c3		 ret	 0
?GetAllocatedBlockCount@i3FixedMemoryPool@@QAEIXZ ENDP	; i3FixedMemoryPool::GetAllocatedBlockCount
_TEXT	ENDS
; Function compile flags: /Ogtp
; File E:\Proyectos\JuegosOnlineproyectos\PB\pbblow\Piercing Blow Remake\i3Server\src\i3Base\i3FixedMemoryPool.cpp
;	COMDAT ?GetTotalBlockCount@i3FixedMemoryPool@@QAEIXZ
_TEXT	SEGMENT
?GetTotalBlockCount@i3FixedMemoryPool@@QAEIXZ PROC	; i3FixedMemoryPool::GetTotalBlockCount, COMDAT
; _this$ = ecx

; 373  : {

  00000	56		 push	 esi
  00001	57		 push	 edi
  00002	8b f9		 mov	 edi, ecx

; 356  : 	m_pMutex->Enter();

  00004	8b 4f 04	 mov	 ecx, DWORD PTR [edi+4]
  00007	e8 00 00 00 00	 call	 ?Enter@i3Mutex2@@QAEXXZ	; i3Mutex2::Enter

; 357  : 
; 358  : 	PAGE * pPage = m_pPage;

  0000c	8b 47 08	 mov	 eax, DWORD PTR [edi+8]

; 359  : 	INT32 cnt = 0;

  0000f	33 f6		 xor	 esi, esi

; 360  : 
; 361  : 	while( pPage != NULL)

  00011	85 c0		 test	 eax, eax
  00013	74 08		 je	 SHORT $LN5@GetTotalBl
$LL4@GetTotalBl:

; 362  : 	{
; 363  : 		cnt++;
; 364  : 		pPage = pPage->m_pNext;

  00015	8b 40 04	 mov	 eax, DWORD PTR [eax+4]
  00018	46		 inc	 esi
  00019	85 c0		 test	 eax, eax
  0001b	75 f8		 jne	 SHORT $LL4@GetTotalBl
$LN5@GetTotalBl:

; 365  : 	}
; 366  : 
; 367  : 	m_pMutex->Leave();

  0001d	8b 4f 04	 mov	 ecx, DWORD PTR [edi+4]
  00020	e8 00 00 00 00	 call	 ?Leave@i3Mutex2@@QAEXXZ	; i3Mutex2::Leave

; 374  : 	return m_CountPerPage * m_UnitSize * GetPageCount();

  00025	8b 47 1c	 mov	 eax, DWORD PTR [edi+28]
  00028	0f af 47 10	 imul	 eax, DWORD PTR [edi+16]
  0002c	5f		 pop	 edi
  0002d	0f af c6	 imul	 eax, esi
  00030	5e		 pop	 esi

; 375  : }

  00031	c3		 ret	 0
?GetTotalBlockCount@i3FixedMemoryPool@@QAEIXZ ENDP	; i3FixedMemoryPool::GetTotalBlockCount
_TEXT	ENDS
; Function compile flags: /Ogtp
; File E:\Proyectos\JuegosOnlineproyectos\PB\pbblow\Piercing Blow Remake\i3Server\include\i3Base\i3FixedMemoryPool.h
;	COMDAT ?getUnitSize@i3FixedMemoryPool@@QAEIXZ
_TEXT	SEGMENT
?getUnitSize@i3FixedMemoryPool@@QAEIXZ PROC		; i3FixedMemoryPool::getUnitSize, COMDAT
; _this$ = ecx

; 69   : 	UINT32	getUnitSize(void)						{ return m_UnitSize; }

  00000	8b 41 10	 mov	 eax, DWORD PTR [ecx+16]
  00003	c3		 ret	 0
?getUnitSize@i3FixedMemoryPool@@QAEIXZ ENDP		; i3FixedMemoryPool::getUnitSize
_TEXT	ENDS
; Function compile flags: /Ogtp
; File E:\Proyectos\JuegosOnlineproyectos\PB\pbblow\Piercing Blow Remake\i3Server\src\i3Base\i3FixedMemoryPool.cpp
;	COMDAT ?GetPageCount@i3FixedMemoryPool@@QAEHXZ
_TEXT	SEGMENT
?GetPageCount@i3FixedMemoryPool@@QAEHXZ PROC		; i3FixedMemoryPool::GetPageCount, COMDAT
; _this$ = ecx

; 355  : {

  00000	56		 push	 esi
  00001	57		 push	 edi
  00002	8b f9		 mov	 edi, ecx

; 356  : 	m_pMutex->Enter();

  00004	8b 4f 04	 mov	 ecx, DWORD PTR [edi+4]
  00007	e8 00 00 00 00	 call	 ?Enter@i3Mutex2@@QAEXXZ	; i3Mutex2::Enter

; 357  : 
; 358  : 	PAGE * pPage = m_pPage;

  0000c	8b 57 08	 mov	 edx, DWORD PTR [edi+8]

; 359  : 	INT32 cnt = 0;

  0000f	33 f6		 xor	 esi, esi

; 360  : 
; 361  : 	while( pPage != NULL)

  00011	85 d2		 test	 edx, edx
  00013	74 08		 je	 SHORT $LN3@GetPageCou
$LL2@GetPageCou:

; 362  : 	{
; 363  : 		cnt++;
; 364  : 		pPage = pPage->m_pNext;

  00015	8b 52 04	 mov	 edx, DWORD PTR [edx+4]
  00018	46		 inc	 esi
  00019	85 d2		 test	 edx, edx
  0001b	75 f8		 jne	 SHORT $LL2@GetPageCou
$LN3@GetPageCou:

; 365  : 	}
; 366  : 
; 367  : 	m_pMutex->Leave();

  0001d	8b 4f 04	 mov	 ecx, DWORD PTR [edi+4]
  00020	e8 00 00 00 00	 call	 ?Leave@i3Mutex2@@QAEXXZ	; i3Mutex2::Leave

; 368  : 
; 369  : 	return cnt;

  00025	5f		 pop	 edi
  00026	8b c6		 mov	 eax, esi
  00028	5e		 pop	 esi

; 370  : }

  00029	c3		 ret	 0
?GetPageCount@i3FixedMemoryPool@@QAEHXZ ENDP		; i3FixedMemoryPool::GetPageCount
_TEXT	ENDS
; Function compile flags: /Ogtp
; File E:\Proyectos\JuegosOnlineproyectos\PB\pbblow\Piercing Blow Remake\i3Server\include\i3Base\i3FixedMemoryPool.h
;	COMDAT ?getPageSize@i3FixedMemoryPool@@QAEIXZ
_TEXT	SEGMENT
?getPageSize@i3FixedMemoryPool@@QAEIXZ PROC		; i3FixedMemoryPool::getPageSize, COMDAT
; _this$ = ecx

; 66   : 	UINT32	getPageSize(void)						{ return m_PageUnit; }

  00000	8b 41 14	 mov	 eax, DWORD PTR [ecx+20]
  00003	c3		 ret	 0
?getPageSize@i3FixedMemoryPool@@QAEIXZ ENDP		; i3FixedMemoryPool::getPageSize
_TEXT	ENDS
; Function compile flags: /Ogtp
; File E:\Proyectos\JuegosOnlineproyectos\PB\pbblow\Piercing Blow Remake\i3Server\include\i3Base\i3FixedMemoryPool.h
;	COMDAT ?SetAutoCompactEnable@i3FixedMemoryPool@@QAEXH@Z
_TEXT	SEGMENT
_bFlag$ = 8						; size = 4
?SetAutoCompactEnable@i3FixedMemoryPool@@QAEXH@Z PROC	; i3FixedMemoryPool::SetAutoCompactEnable, COMDAT
; _this$ = ecx

; 64   : 	void	SetAutoCompactEnable( BOOL bFlag)		{ m_bAutoCompact = bFlag; }

  00000	55		 push	 ebp
  00001	8b ec		 mov	 ebp, esp
  00003	8b 45 08	 mov	 eax, DWORD PTR _bFlag$[ebp]
  00006	89 41 30	 mov	 DWORD PTR [ecx+48], eax
  00009	5d		 pop	 ebp
  0000a	c2 04 00	 ret	 4
?SetAutoCompactEnable@i3FixedMemoryPool@@QAEXH@Z ENDP	; i3FixedMemoryPool::SetAutoCompactEnable
_TEXT	ENDS
; Function compile flags: /Ogtp
; File E:\Proyectos\JuegosOnlineproyectos\PB\pbblow\Piercing Blow Remake\i3Server\include\i3Base\i3FixedMemoryPool.h
;	COMDAT ?GetAutoCompactEnable@i3FixedMemoryPool@@QAEHXZ
_TEXT	SEGMENT
?GetAutoCompactEnable@i3FixedMemoryPool@@QAEHXZ PROC	; i3FixedMemoryPool::GetAutoCompactEnable, COMDAT
; _this$ = ecx

; 63   : 	BOOL	GetAutoCompactEnable(void)				{ return m_bAutoCompact; }

  00000	8b 41 30	 mov	 eax, DWORD PTR [ecx+48]
  00003	c3		 ret	 0
?GetAutoCompactEnable@i3FixedMemoryPool@@QAEHXZ ENDP	; i3FixedMemoryPool::GetAutoCompactEnable
_TEXT	ENDS
; Function compile flags: /Ogtp
; File E:\Proyectos\JuegosOnlineproyectos\PB\pbblow\Piercing Blow Remake\i3Server\src\i3Base\i3FixedMemoryPool.cpp
;	COMDAT ?Create@i3FixedMemoryPool@@QAEHPBDIIIHH@Z
_TEXT	SEGMENT
_this$1$ = -4						; size = 4
_pszName$ = 8						; size = 4
_UnitSz$ = 12						; size = 4
_PageUnit$ = 16						; size = 4
_Align$ = 20						; size = 4
_bAutoExtend$ = 24					; size = 4
_bAutoCompact$ = 28					; size = 4
?Create@i3FixedMemoryPool@@QAEHPBDIIIHH@Z PROC		; i3FixedMemoryPool::Create, COMDAT
; _this$ = ecx

; 189  : {

  00000	55		 push	 ebp
  00001	8b ec		 mov	 ebp, esp
  00003	51		 push	 ecx

; 190  : 	I3ASSERT( UnitSz > 0);
; 191  : 	I3ASSERT( Align > 0);
; 192  : 	I3ASSERT( PageUnit > Align);
; 193  : 
; 194  : 	#if defined( I3_DEBUG)
; 195  : 	strcpy( m_szName, pszName);
; 196  : 	#endif
; 197  : 
; 198  : 	m_UnitSize = UnitSz;
; 199  : 
; 200  : 	m_Align = Align;
; 201  : 	m_PageUnit = PageUnit;

  00004	8b 45 10	 mov	 eax, DWORD PTR _PageUnit$[ebp]

; 202  : 
; 203  : 	m_bAutoExtend = bAutoExtend;
; 204  : 	m_bAutoCompact = bAutoCompact;
; 205  : 
; 206  : 	m_AlignedPageTagSize	= ((sizeof(PAGE) + Align - 1) / Align) * Align;

  00007	33 d2		 xor	 edx, edx
  00009	89 41 14	 mov	 DWORD PTR [ecx+20], eax
  0000c	8b 45 18	 mov	 eax, DWORD PTR _bAutoExtend$[ebp]
  0000f	89 41 2c	 mov	 DWORD PTR [ecx+44], eax
  00012	8b 45 1c	 mov	 eax, DWORD PTR _bAutoCompact$[ebp]
  00015	53		 push	 ebx
  00016	8b 5d 14	 mov	 ebx, DWORD PTR _Align$[ebp]
  00019	89 41 30	 mov	 DWORD PTR [ecx+48], eax
  0001c	56		 push	 esi
  0001d	57		 push	 edi
  0001e	8d 73 07	 lea	 esi, DWORD PTR [ebx+7]
  00021	8b 7d 0c	 mov	 edi, DWORD PTR _UnitSz$[ebp]
  00024	8b c6		 mov	 eax, esi
  00026	89 79 10	 mov	 DWORD PTR [ecx+16], edi
  00029	f7 f3		 div	 ebx
  0002b	89 4d fc	 mov	 DWORD PTR _this$1$[ebp], ecx
  0002e	2b f2		 sub	 esi, edx
  00030	89 59 18	 mov	 DWORD PTR [ecx+24], ebx
  00033	89 71 20	 mov	 DWORD PTR [ecx+32], esi

; 207  : 	m_AlignedElementTagSize	= ((sizeof(BLOCK) + Align - 1) / Align) * Align;
; 208  : 	m_AlignedElementSize	= ((UnitSz + Align - 1) / Align) * Align;

  00036	33 d2		 xor	 edx, edx
  00038	89 71 24	 mov	 DWORD PTR [ecx+36], esi
  0003b	8d 4f ff	 lea	 ecx, DWORD PTR [edi-1]
  0003e	03 cb		 add	 ecx, ebx
  00040	8b 7d fc	 mov	 edi, DWORD PTR _this$1$[ebp]
  00043	8b c1		 mov	 eax, ecx
  00045	f7 f3		 div	 ebx

; 209  : 
; 210  : 	m_CountPerPage = (PageUnit - m_AlignedPageTagSize) / (m_AlignedElementTagSize + m_AlignedElementSize);

  00047	8b 45 10	 mov	 eax, DWORD PTR _PageUnit$[ebp]
  0004a	2b ca		 sub	 ecx, edx

; 211  : 
; 212  : 	m_pPage = NULL;

  0004c	c7 47 08 00 00
	00 00		 mov	 DWORD PTR [edi+8], 0
  00053	89 4f 28	 mov	 DWORD PTR [edi+40], ecx
  00056	2b c6		 sub	 eax, esi
  00058	03 ce		 add	 ecx, esi
  0005a	33 d2		 xor	 edx, edx
  0005c	f7 f1		 div	 ecx
  0005e	89 47 1c	 mov	 DWORD PTR [edi+28], eax

; 213  : 
; 214  : 	return TRUE;

  00061	b8 01 00 00 00	 mov	 eax, 1
  00066	5f		 pop	 edi
  00067	5e		 pop	 esi
  00068	5b		 pop	 ebx

; 215  : }

  00069	8b e5		 mov	 esp, ebp
  0006b	5d		 pop	 ebp
  0006c	c2 18 00	 ret	 24			; 00000018H
?Create@i3FixedMemoryPool@@QAEHPBDIIIHH@Z ENDP		; i3FixedMemoryPool::Create
_TEXT	ENDS
; Function compile flags: /Ogtp
; File E:\Proyectos\JuegosOnlineproyectos\PB\pbblow\Piercing Blow Remake\i3Server\src\i3Base\i3FixedMemoryPool.cpp
;	COMDAT ??1i3FixedMemoryPool@@UAE@XZ
_TEXT	SEGMENT
__$EHRec$ = -12						; size = 12
??1i3FixedMemoryPool@@UAE@XZ PROC			; i3FixedMemoryPool::~i3FixedMemoryPool, COMDAT
; _this$ = ecx

; 56   : {

  00000	55		 push	 ebp
  00001	8b ec		 mov	 ebp, esp
  00003	6a ff		 push	 -1
  00005	68 00 00 00 00	 push	 __ehhandler$??1i3FixedMemoryPool@@UAE@XZ
  0000a	64 a1 00 00 00
	00		 mov	 eax, DWORD PTR fs:0
  00010	50		 push	 eax
  00011	56		 push	 esi
  00012	57		 push	 edi
  00013	a1 00 00 00 00	 mov	 eax, DWORD PTR ___security_cookie
  00018	33 c5		 xor	 eax, ebp
  0001a	50		 push	 eax
  0001b	8d 45 f4	 lea	 eax, DWORD PTR __$EHRec$[ebp]
  0001e	64 a3 00 00 00
	00		 mov	 DWORD PTR fs:0, eax
  00024	8b f9		 mov	 edi, ecx

; 57   : 	// ÇŇ´çµÇľú´ř ¸đµç PageµéŔ» ÇŘÁ¦ÇŃ´Ů.
; 58   : 	m_pMutex->Enter();

  00026	8b 4f 04	 mov	 ecx, DWORD PTR [edi+4]
  00029	c7 07 00 00 00
	00		 mov	 DWORD PTR [edi], OFFSET ??_7i3FixedMemoryPool@@6B@
  0002f	e8 00 00 00 00	 call	 ?Enter@i3Mutex2@@QAEXXZ	; i3Mutex2::Enter

; 59   : 	{
; 60   : 		PAGE * pTempPage = m_pPage;

  00034	8b 47 08	 mov	 eax, DWORD PTR [edi+8]

; 61   : 		PAGE * pNext;
; 62   : 
; 63   : 		while( pTempPage != NULL)

  00037	85 c0		 test	 eax, eax
  00039	74 1e		 je	 SHORT $LN3@i3FixedMem
  0003b	eb 03 8d 49 00	 npad	 5
$LL2@i3FixedMem:

; 64   : 		{
; 65   : 			pNext = pTempPage->m_pNext;

  00040	8b 70 04	 mov	 esi, DWORD PTR [eax+4]

; 66   : 
; 67   : 			i3MemFree( pTempPage);

  00043	6a 43		 push	 67			; 00000043H
  00045	68 00 00 00 00	 push	 OFFSET ??_C@_0GM@ENLJGMEI@E?3?2Proyectos?2JuegosOnlineproyec@
  0004a	50		 push	 eax
  0004b	e8 00 00 00 00	 call	 ?FreeTool@i3mem@@YAXPAXPBDH@Z ; i3mem::FreeTool
  00050	83 c4 0c	 add	 esp, 12			; 0000000cH

; 68   : 
; 69   : 			pTempPage = pNext;

  00053	8b c6		 mov	 eax, esi
  00055	85 f6		 test	 esi, esi
  00057	75 e7		 jne	 SHORT $LL2@i3FixedMem
$LN3@i3FixedMem:

; 70   : 		}
; 71   : 		m_pPage = NULL;
; 72   : 	}
; 73   : 	m_pMutex->Leave();

  00059	8b 4f 04	 mov	 ecx, DWORD PTR [edi+4]
  0005c	c7 47 08 00 00
	00 00		 mov	 DWORD PTR [edi+8], 0
  00063	e8 00 00 00 00	 call	 ?Leave@i3Mutex2@@QAEXXZ	; i3Mutex2::Leave

; 74   : 
; 75   : 	delete m_pMutex;

  00068	8b 77 04	 mov	 esi, DWORD PTR [edi+4]
  0006b	85 f6		 test	 esi, esi
  0006d	74 12		 je	 SHORT $LN9@i3FixedMem
  0006f	8b ce		 mov	 ecx, esi
  00071	e8 00 00 00 00	 call	 ??1i3Mutex2@@QAE@XZ	; i3Mutex2::~i3Mutex2
  00076	6a 18		 push	 24			; 00000018H
  00078	56		 push	 esi
  00079	e8 00 00 00 00	 call	 ??3@YAXPAXI@Z		; operator delete
  0007e	83 c4 08	 add	 esp, 8
$LN9@i3FixedMem:

; 76   : 	m_pMutex = NULL;
; 77   : 
; 78   : 	#if defined( I3_DEBUG)
; 79   : 	{
; 80   : 		// Memory Pool ListżˇĽ­ Á¦°ĹÇŃ´Ů.
; 81   : 		if (s_pPoolMutex)
; 82   : 			s_pPoolMutex->Enter();
; 83   : 
; 84   : 		{
; 85   : 			i3FixedMemoryPool * pTemp = s_pPoolHead;
; 86   : 
; 87   : 			while((pTemp != NULL) && (pTemp->m_pNext != this))
; 88   : 				pTemp = pTemp->m_pNext;
; 89   : 
; 90   : 			if( pTemp != NULL)
; 91   : 				pTemp->m_pNext = m_pNext;
; 92   : 
; 93   : 			if( s_pPoolHead == this)
; 94   : 				s_pPoolHead = m_pNext;
; 95   : 		}
; 96   : 
; 97   : 		if (s_pPoolMutex)
; 98   : 			s_pPoolMutex->Leave();
; 99   : 	}
; 100  : 	#endif
; 101  : }

  00081	8b cf		 mov	 ecx, edi
  00083	c7 47 04 00 00
	00 00		 mov	 DWORD PTR [edi+4], 0
  0008a	e8 00 00 00 00	 call	 ??1i3MemoryPool@@UAE@XZ	; i3MemoryPool::~i3MemoryPool
  0008f	8b 4d f4	 mov	 ecx, DWORD PTR __$EHRec$[ebp]
  00092	64 89 0d 00 00
	00 00		 mov	 DWORD PTR fs:0, ecx
  00099	59		 pop	 ecx
  0009a	5f		 pop	 edi
  0009b	5e		 pop	 esi
  0009c	8b e5		 mov	 esp, ebp
  0009e	5d		 pop	 ebp
  0009f	c3		 ret	 0
  000a0	cc		 int	 3
  000a1	cc		 int	 3
  000a2	cc		 int	 3
  000a3	cc		 int	 3
  000a4	cc		 int	 3
_TEXT	ENDS
;	COMDAT text$x
text$x	SEGMENT
__ehhandler$??1i3FixedMemoryPool@@UAE@XZ:
  00000	90		 npad	 1
  00001	90		 npad	 1
  00002	8b 54 24 08	 mov	 edx, DWORD PTR [esp+8]
  00006	8d 42 0c	 lea	 eax, DWORD PTR [edx+12]
  00009	8b 4a f4	 mov	 ecx, DWORD PTR [edx-12]
  0000c	33 c8		 xor	 ecx, eax
  0000e	e8 00 00 00 00	 call	 @__security_check_cookie@4
  00013	b8 00 00 00 00	 mov	 eax, OFFSET __ehfuncinfo$??1i3FixedMemoryPool@@UAE@XZ
  00018	e9 00 00 00 00	 jmp	 ___CxxFrameHandler3
text$x	ENDS
??1i3FixedMemoryPool@@UAE@XZ ENDP			; i3FixedMemoryPool::~i3FixedMemoryPool
; Function compile flags: /Ogtp
; File E:\Proyectos\JuegosOnlineproyectos\PB\pbblow\Piercing Blow Remake\i3Server\src\i3Base\i3FixedMemoryPool.cpp
;	COMDAT ??0i3FixedMemoryPool@@QAE@XZ
_TEXT	SEGMENT
$T2 = -20						; size = 4
_this$ = -16						; size = 4
__$EHRec$ = -12						; size = 12
??0i3FixedMemoryPool@@QAE@XZ PROC			; i3FixedMemoryPool::i3FixedMemoryPool, COMDAT
; _this$ = ecx

; 22   : {

  00000	55		 push	 ebp
  00001	8b ec		 mov	 ebp, esp
  00003	6a ff		 push	 -1
  00005	68 00 00 00 00	 push	 __ehhandler$??0i3FixedMemoryPool@@QAE@XZ
  0000a	64 a1 00 00 00
	00		 mov	 eax, DWORD PTR fs:0
  00010	50		 push	 eax
  00011	83 ec 08	 sub	 esp, 8
  00014	56		 push	 esi
  00015	a1 00 00 00 00	 mov	 eax, DWORD PTR ___security_cookie
  0001a	33 c5		 xor	 eax, ebp
  0001c	50		 push	 eax
  0001d	8d 45 f4	 lea	 eax, DWORD PTR __$EHRec$[ebp]
  00020	64 a3 00 00 00
	00		 mov	 DWORD PTR fs:0, eax
  00026	8b f1		 mov	 esi, ecx
  00028	89 75 f0	 mov	 DWORD PTR _this$[ebp], esi
  0002b	e8 00 00 00 00	 call	 ??0i3MemoryPool@@QAE@XZ	; i3MemoryPool::i3MemoryPool

; 23   : 	#if defined( I3_DEBUG)
; 24   : 	if( s_pPoolMutex == NULL)
; 25   : 	{
; 26   : 		s_pPoolMutex = new i3Mutex2;
; 27   : 		::atexit(cb_atexit_destroy);
; 28   : 	}
; 29   : 
; 30   : 	m_szName[0] = 0;
; 31   : 
; 32   : 	m_pNext = s_pPoolHead;
; 33   : 	s_pPoolHead = this;
; 34   : 	#endif
; 35   : 
; 36   : 	m_PageUnit = 0;
; 37   : 	m_Align = 0;
; 38   : 
; 39   : 	m_UnitSize = 0;
; 40   : 
; 41   : 	m_pPage = NULL;
; 42   : 	m_pFree = NULL;
; 43   : 
; 44   : 	m_pMutex = new i3Mutex2;

  00030	6a 18		 push	 24			; 00000018H
  00032	c7 45 fc 00 00
	00 00		 mov	 DWORD PTR __$EHRec$[ebp+8], 0
  00039	c7 06 00 00 00
	00		 mov	 DWORD PTR [esi], OFFSET ??_7i3FixedMemoryPool@@6B@
  0003f	c7 46 14 00 00
	00 00		 mov	 DWORD PTR [esi+20], 0
  00046	c7 46 18 00 00
	00 00		 mov	 DWORD PTR [esi+24], 0
  0004d	c7 46 10 00 00
	00 00		 mov	 DWORD PTR [esi+16], 0
  00054	c7 46 08 00 00
	00 00		 mov	 DWORD PTR [esi+8], 0
  0005b	c7 46 0c 00 00
	00 00		 mov	 DWORD PTR [esi+12], 0
  00062	e8 00 00 00 00	 call	 ??2@YAPAXI@Z		; operator new
  00067	83 c4 04	 add	 esp, 4
  0006a	89 45 ec	 mov	 DWORD PTR $T2[ebp], eax
  0006d	c6 45 fc 01	 mov	 BYTE PTR __$EHRec$[ebp+8], 1
  00071	85 c0		 test	 eax, eax
  00073	74 09		 je	 SHORT $LN3@i3FixedMem
  00075	8b c8		 mov	 ecx, eax
  00077	e8 00 00 00 00	 call	 ??0i3Mutex2@@QAE@XZ	; i3Mutex2::i3Mutex2
  0007c	eb 02		 jmp	 SHORT $LN4@i3FixedMem
$LN3@i3FixedMem:
  0007e	33 c0		 xor	 eax, eax
$LN4@i3FixedMem:
  00080	89 46 04	 mov	 DWORD PTR [esi+4], eax

; 45   : 
; 46   : 	m_bAutoExtend = TRUE;
; 47   : 	m_bAutoCompact = TRUE;
; 48   : 
; 49   : 	m_AlignedElementSize = 0;
; 50   : 	m_AlignedElementTagSize = 0;
; 51   : 	m_AlignedPageTagSize = 0;
; 52   : 	m_CountPerPage = 0;
; 53   : }

  00083	8b c6		 mov	 eax, esi
  00085	c7 46 2c 01 00
	00 00		 mov	 DWORD PTR [esi+44], 1
  0008c	c7 46 30 01 00
	00 00		 mov	 DWORD PTR [esi+48], 1
  00093	c7 46 28 00 00
	00 00		 mov	 DWORD PTR [esi+40], 0
  0009a	c7 46 24 00 00
	00 00		 mov	 DWORD PTR [esi+36], 0
  000a1	c7 46 20 00 00
	00 00		 mov	 DWORD PTR [esi+32], 0
  000a8	c7 46 1c 00 00
	00 00		 mov	 DWORD PTR [esi+28], 0
  000af	8b 4d f4	 mov	 ecx, DWORD PTR __$EHRec$[ebp]
  000b2	64 89 0d 00 00
	00 00		 mov	 DWORD PTR fs:0, ecx
  000b9	59		 pop	 ecx
  000ba	5e		 pop	 esi
  000bb	8b e5		 mov	 esp, ebp
  000bd	5d		 pop	 ebp
  000be	c3		 ret	 0
_TEXT	ENDS
;	COMDAT text$x
text$x	SEGMENT
__unwindfunclet$??0i3FixedMemoryPool@@QAE@XZ$0:
  00000	8b 4d f0	 mov	 ecx, DWORD PTR _this$[ebp]
  00003	e9 00 00 00 00	 jmp	 ??1i3MemoryPool@@UAE@XZ	; i3MemoryPool::~i3MemoryPool
__unwindfunclet$??0i3FixedMemoryPool@@QAE@XZ$1:
  00008	6a 18		 push	 24			; 00000018H
  0000a	8b 45 ec	 mov	 eax, DWORD PTR $T2[ebp]
  0000d	50		 push	 eax
  0000e	e8 00 00 00 00	 call	 ??3@YAXPAXI@Z		; operator delete
  00013	83 c4 08	 add	 esp, 8
  00016	c3		 ret	 0
  00017	cc		 int	 3
  00018	cc		 int	 3
  00019	cc		 int	 3
  0001a	cc		 int	 3
  0001b	cc		 int	 3
__ehhandler$??0i3FixedMemoryPool@@QAE@XZ:
  0001c	90		 npad	 1
  0001d	90		 npad	 1
  0001e	8b 54 24 08	 mov	 edx, DWORD PTR [esp+8]
  00022	8d 42 0c	 lea	 eax, DWORD PTR [edx+12]
  00025	8b 4a f0	 mov	 ecx, DWORD PTR [edx-16]
  00028	33 c8		 xor	 ecx, eax
  0002a	e8 00 00 00 00	 call	 @__security_check_cookie@4
  0002f	b8 00 00 00 00	 mov	 eax, OFFSET __ehfuncinfo$??0i3FixedMemoryPool@@QAE@XZ
  00034	e9 00 00 00 00	 jmp	 ___CxxFrameHandler3
text$x	ENDS
??0i3FixedMemoryPool@@QAE@XZ ENDP			; i3FixedMemoryPool::i3FixedMemoryPool
; Function compile flags: /Ogtp
; File E:\Proyectos\JuegosOnlineproyectos\PB\pbblow\Piercing Blow Remake\i3Server\src\i3Base\i3FixedMemoryPool.cpp
;	COMDAT ?FindPage@i3FixedMemoryPool@@IAEPAUPAGE@1@PAD@Z
_TEXT	SEGMENT
_p$ = 8							; size = 4
?FindPage@i3FixedMemoryPool@@IAEPAUPAGE@1@PAD@Z PROC	; i3FixedMemoryPool::FindPage, COMDAT
; _this$ = ecx

; 258  : {

  00000	55		 push	 ebp
  00001	8b ec		 mov	 ebp, esp
  00003	56		 push	 esi
  00004	57		 push	 edi
  00005	8b f9		 mov	 edi, ecx

; 259  : 	m_pMutex->Enter();

  00007	8b 4f 04	 mov	 ecx, DWORD PTR [edi+4]
  0000a	e8 00 00 00 00	 call	 ?Enter@i3Mutex2@@QAEXXZ	; i3Mutex2::Enter

; 260  : 	{
; 261  : 		PAGE * pTemp = m_pPage;

  0000f	8b 77 08	 mov	 esi, DWORD PTR [edi+8]

; 262  : 
; 263  : 		while( pTemp != NULL)

  00012	85 f6		 test	 esi, esi
  00014	74 1e		 je	 SHORT $LN11@FindPage

; 264  : 		{
; 265  : 			if( (p >= (char *)pTemp) && (p <= (((char *)pTemp) + m_PageUnit)))

  00016	8b 4d 08	 mov	 ecx, DWORD PTR _p$[ebp]
  00019	8d a4 24 00 00
	00 00		 npad	 7
$LL2@FindPage:
  00020	3b ce		 cmp	 ecx, esi
  00022	72 09		 jb	 SHORT $LN4@FindPage
  00024	8b 47 14	 mov	 eax, DWORD PTR [edi+20]
  00027	03 c6		 add	 eax, esi
  00029	3b c8		 cmp	 ecx, eax
  0002b	76 17		 jbe	 SHORT $LN7@FindPage
$LN4@FindPage:

; 269  : 			}
; 270  : 
; 271  : 			pTemp = pTemp->m_pNext;

  0002d	8b 76 04	 mov	 esi, DWORD PTR [esi+4]
  00030	85 f6		 test	 esi, esi
  00032	75 ec		 jne	 SHORT $LL2@FindPage
$LN11@FindPage:

; 272  : 		}
; 273  : 	}
; 274  : 	m_pMutex->Leave();

  00034	8b 4f 04	 mov	 ecx, DWORD PTR [edi+4]
  00037	e8 00 00 00 00	 call	 ?Leave@i3Mutex2@@QAEXXZ	; i3Mutex2::Leave
  0003c	5f		 pop	 edi

; 275  : 
; 276  : 	return NULL;

  0003d	33 c0		 xor	 eax, eax

; 277  : }

  0003f	5e		 pop	 esi
  00040	5d		 pop	 ebp
  00041	c2 04 00	 ret	 4
$LN7@FindPage:

; 266  : 			{
; 267  : 				m_pMutex->Leave();

  00044	8b 4f 04	 mov	 ecx, DWORD PTR [edi+4]
  00047	e8 00 00 00 00	 call	 ?Leave@i3Mutex2@@QAEXXZ	; i3Mutex2::Leave
  0004c	5f		 pop	 edi

; 268  : 				return pTemp;

  0004d	8b c6		 mov	 eax, esi

; 277  : }

  0004f	5e		 pop	 esi
  00050	5d		 pop	 ebp
  00051	c2 04 00	 ret	 4
?FindPage@i3FixedMemoryPool@@IAEPAUPAGE@1@PAD@Z ENDP	; i3FixedMemoryPool::FindPage
_TEXT	ENDS
; Function compile flags: /Ogtp
; File E:\Proyectos\JuegosOnlineproyectos\PB\pbblow\Piercing Blow Remake\i3Server\src\i3Base\i3FixedMemoryPool.cpp
;	COMDAT ?RemovePage@i3FixedMemoryPool@@IAEXPAUPAGE@1@@Z
_TEXT	SEGMENT
_pPage$ = 8						; size = 4
?RemovePage@i3FixedMemoryPool@@IAEXPAUPAGE@1@@Z PROC	; i3FixedMemoryPool::RemovePage, COMDAT
; _this$ = ecx

; 137  : {

  00000	55		 push	 ebp
  00001	8b ec		 mov	 ebp, esp

; 138  : 	PAGE * pPrev;
; 139  : 
; 140  : 	I3ASSERT( pPage != NULL);
; 141  : 	I3ASSERT( pPage->m_UsedCount == 0);
; 142  : 
; 143  : 	// ÇŘ´ç Pageżˇ Á¸ŔçÇĎ´Â ¸đµç Free BlockŔ» Á¦°ĹÇŃ´Ů.
; 144  : 	{
; 145  : 		char * pPageStart, * pPageEnd;
; 146  : 		BLOCK * pTempB, * pNextB, * pPrevB;
; 147  : 
; 148  : 		pPageStart = (char *) pPage;
; 149  : 		pPageEnd = (char *) pPage + m_PageUnit;

  00003	8b 55 08	 mov	 edx, DWORD PTR _pPage$[ebp]
  00006	53		 push	 ebx
  00007	56		 push	 esi
  00008	8b f1		 mov	 esi, ecx
  0000a	57		 push	 edi

; 150  : 		pPrevB = NULL;

  0000b	33 ff		 xor	 edi, edi
  0000d	8b 5e 14	 mov	 ebx, DWORD PTR [esi+20]

; 151  : 
; 152  : 		for( pTempB = m_pFree; pTempB != NULL;)

  00010	8b 46 0c	 mov	 eax, DWORD PTR [esi+12]
  00013	03 da		 add	 ebx, edx
  00015	85 c0		 test	 eax, eax
  00017	74 2b		 je	 SHORT $LN3@RemovePage
  00019	8d a4 24 00 00
	00 00		 npad	 7
$LL4@RemovePage:

; 153  : 		{
; 154  : 			pNextB = pTempB->m_pNextFree;

  00020	8b 48 04	 mov	 ecx, DWORD PTR [eax+4]

; 155  : 
; 156  : 			if( (((char *)pTempB ) >= pPageStart) && (((char *)pTempB ) <= pPageEnd))

  00023	3b c2		 cmp	 eax, edx
  00025	72 15		 jb	 SHORT $LN7@RemovePage
  00027	3b c3		 cmp	 eax, ebx
  00029	77 11		 ja	 SHORT $LN7@RemovePage

; 157  : 			{
; 158  : 				// ÇŘ´ç Page żµżŞ ľČżˇ Á¸ŔçÇĎ´Â ElementŔĚ´Ů.
; 159  : 				if( pPrevB != NULL)

  0002b	85 ff		 test	 edi, edi
  0002d	74 03		 je	 SHORT $LN9@RemovePage

; 160  : 					pPrevB->m_pNextFree = pNextB;

  0002f	89 4f 04	 mov	 DWORD PTR [edi+4], ecx
$LN9@RemovePage:

; 161  : 
; 162  : 				if( m_pFree == pTempB )

  00032	39 46 0c	 cmp	 DWORD PTR [esi+12], eax
  00035	75 07		 jne	 SHORT $LN8@RemovePage

; 163  : 					m_pFree = pNextB;

  00037	89 4e 0c	 mov	 DWORD PTR [esi+12], ecx

; 164  : 			}

  0003a	eb 02		 jmp	 SHORT $LN8@RemovePage
$LN7@RemovePage:

; 165  : 			else
; 166  : 			{
; 167  : 				pPrevB = pTempB;

  0003c	8b f8		 mov	 edi, eax
$LN8@RemovePage:

; 168  : 			}
; 169  : 
; 170  : 			pTempB = pNextB;

  0003e	8b c1		 mov	 eax, ecx
  00040	85 c9		 test	 ecx, ecx
  00042	75 dc		 jne	 SHORT $LL4@RemovePage
$LN3@RemovePage:

; 171  : 		}
; 172  : 	}
; 173  : 
; 174  : 	// ľŐ Page¸¦ ĂŁ´Â´Ů.
; 175  : 	pPrev = m_pPage;

  00044	8b 46 08	 mov	 eax, DWORD PTR [esi+8]

; 176  : 	while((pPrev != NULL) && (pPrev->m_pNext != pPage))

  00047	85 c0		 test	 eax, eax
  00049	74 19		 je	 SHORT $LN11@RemovePage
  0004b	eb 03 8d 49 00	 npad	 5
$LL5@RemovePage:
  00050	8d 48 04	 lea	 ecx, DWORD PTR [eax+4]
  00053	8b 01		 mov	 eax, DWORD PTR [ecx]
  00055	3b c2		 cmp	 eax, edx
  00057	74 06		 je	 SHORT $LN6@RemovePage
  00059	85 c0		 test	 eax, eax
  0005b	75 f3		 jne	 SHORT $LL5@RemovePage

; 177  : 		pPrev = pPrev->m_pNext;
; 178  : 
; 179  : 	if( pPrev != NULL)

  0005d	eb 05		 jmp	 SHORT $LN11@RemovePage
$LN6@RemovePage:

; 180  : 		pPrev->m_pNext = pPage->m_pNext;

  0005f	8b 42 04	 mov	 eax, DWORD PTR [edx+4]
  00062	89 01		 mov	 DWORD PTR [ecx], eax
$LN11@RemovePage:

; 181  : 
; 182  : 	if( m_pPage == pPage)

  00064	39 56 08	 cmp	 DWORD PTR [esi+8], edx
  00067	75 06		 jne	 SHORT $LN12@RemovePage

; 183  : 		m_pPage = pPage->m_pNext;

  00069	8b 42 04	 mov	 eax, DWORD PTR [edx+4]
  0006c	89 46 08	 mov	 DWORD PTR [esi+8], eax
$LN12@RemovePage:

; 184  : 
; 185  : 	i3MemFree( pPage);

  0006f	68 b9 00 00 00	 push	 185			; 000000b9H
  00074	68 00 00 00 00	 push	 OFFSET ??_C@_0GM@ENLJGMEI@E?3?2Proyectos?2JuegosOnlineproyec@
  00079	52		 push	 edx
  0007a	e8 00 00 00 00	 call	 ?FreeTool@i3mem@@YAXPAXPBDH@Z ; i3mem::FreeTool
  0007f	83 c4 0c	 add	 esp, 12			; 0000000cH
  00082	5f		 pop	 edi
  00083	5e		 pop	 esi
  00084	5b		 pop	 ebx

; 186  : }

  00085	5d		 pop	 ebp
  00086	c2 04 00	 ret	 4
?RemovePage@i3FixedMemoryPool@@IAEXPAUPAGE@1@@Z ENDP	; i3FixedMemoryPool::RemovePage
_TEXT	ENDS
; Function compile flags: /Ogtp
; File E:\Proyectos\JuegosOnlineproyectos\PB\pbblow\Piercing Blow Remake\i3Server\src\i3Base\i3FixedMemoryPool.cpp
;	COMDAT ?InitPage@i3FixedMemoryPool@@IAEXPAUPAGE@1@@Z
_TEXT	SEGMENT
_pPage$ = 8						; size = 4
?InitPage@i3FixedMemoryPool@@IAEXPAUPAGE@1@@Z PROC	; i3FixedMemoryPool::InitPage, COMDAT
; _this$ = ecx

; 117  : {

  00000	55		 push	 ebp
  00001	8b ec		 mov	 ebp, esp

; 118  : 	UINT32 i;
; 119  : 	BLOCK * pElm;
; 120  : 
; 121  : 	pPage->m_UsedCount = 0;

  00003	8b 55 08	 mov	 edx, DWORD PTR _pPage$[ebp]
  00006	56		 push	 esi
  00007	8b f1		 mov	 esi, ecx
  00009	c7 02 00 00 00
	00		 mov	 DWORD PTR [edx], 0

; 122  : 
; 123  : 	pElm = (BLOCK *)(((char *) pPage) + m_AlignedPageTagSize);

  0000f	8b 46 20	 mov	 eax, DWORD PTR [esi+32]
  00012	03 c2		 add	 eax, edx

; 124  : 
; 125  : 	for( i = 0; i < m_CountPerPage; i++)

  00014	33 d2		 xor	 edx, edx
  00016	39 56 1c	 cmp	 DWORD PTR [esi+28], edx
  00019	76 22		 jbe	 SHORT $LN3@InitPage
  0001b	eb 03 8d 49 00	 npad	 5
$LL4@InitPage:

; 126  : 	{
; 127  : 		pElm->m_bUsed = FALSE;

  00020	c7 00 00 00 00
	00		 mov	 DWORD PTR [eax], 0
  00026	42		 inc	 edx

; 128  : 		pElm->m_pNextFree = m_pFree;			// Free Listżˇ Ăß°ˇ

  00027	8b 4e 0c	 mov	 ecx, DWORD PTR [esi+12]
  0002a	89 48 04	 mov	 DWORD PTR [eax+4], ecx

; 129  : 
; 130  : 		m_pFree = pElm;							// »ő·Îżî Free Element·Î µî·Ď.
; 131  : 
; 132  : 		pElm = (BLOCK *) (((char *) pElm) + (m_AlignedElementTagSize + m_AlignedElementSize));

  0002d	8b 4e 24	 mov	 ecx, DWORD PTR [esi+36]
  00030	03 4e 28	 add	 ecx, DWORD PTR [esi+40]
  00033	89 46 0c	 mov	 DWORD PTR [esi+12], eax
  00036	03 c1		 add	 eax, ecx
  00038	3b 56 1c	 cmp	 edx, DWORD PTR [esi+28]
  0003b	72 e3		 jb	 SHORT $LL4@InitPage
$LN3@InitPage:
  0003d	5e		 pop	 esi

; 133  : 	}
; 134  : }

  0003e	5d		 pop	 ebp
  0003f	c2 04 00	 ret	 4
?InitPage@i3FixedMemoryPool@@IAEXPAUPAGE@1@@Z ENDP	; i3FixedMemoryPool::InitPage
_TEXT	ENDS
; Function compile flags: /Ogtp
; File E:\Proyectos\JuegosOnlineproyectos\PB\pbblow\Piercing Blow Remake\i3Server\src\i3Base\i3FixedMemoryPool.cpp
;	COMDAT ?NewPage@i3FixedMemoryPool@@IAEPAUPAGE@1@XZ
_TEXT	SEGMENT
?NewPage@i3FixedMemoryPool@@IAEPAUPAGE@1@XZ PROC	; i3FixedMemoryPool::NewPage, COMDAT
; _this$ = ecx

; 104  : {

  00000	56		 push	 esi
  00001	57		 push	 edi
  00002	8b f1		 mov	 esi, ecx

; 105  : 	PAGE * pNew;
; 106  : 
; 107  : 	pNew = (PAGE *) i3MemAlign( m_PageUnit, m_Align);

  00004	6a 6b		 push	 107			; 0000006bH
  00006	68 00 00 00 00	 push	 OFFSET ??_C@_0GM@ENLJGMEI@E?3?2Proyectos?2JuegosOnlineproyec@
  0000b	ff 76 18	 push	 DWORD PTR [esi+24]
  0000e	6a 00		 push	 0
  00010	ff 76 14	 push	 DWORD PTR [esi+20]
  00013	ff 15 00 00 00
	00		 call	 DWORD PTR ?Alloc@i3mem@@3P6APAXHHHPBDH@ZA ; i3mem::Alloc
  00019	8b f8		 mov	 edi, eax

; 125  : 	for( i = 0; i < m_CountPerPage; i++)

  0001b	33 d2		 xor	 edx, edx

; 105  : 	PAGE * pNew;
; 106  : 
; 107  : 	pNew = (PAGE *) i3MemAlign( m_PageUnit, m_Align);

  0001d	83 c4 14	 add	 esp, 20			; 00000014H

; 108  : 
; 109  : 	pNew->m_pNext = NULL;

  00020	c7 47 04 00 00
	00 00		 mov	 DWORD PTR [edi+4], 0

; 121  : 	pPage->m_UsedCount = 0;

  00027	c7 07 00 00 00
	00		 mov	 DWORD PTR [edi], 0

; 122  : 
; 123  : 	pElm = (BLOCK *)(((char *) pPage) + m_AlignedPageTagSize);

  0002d	8b 4e 20	 mov	 ecx, DWORD PTR [esi+32]
  00030	03 cf		 add	 ecx, edi

; 124  : 
; 125  : 	for( i = 0; i < m_CountPerPage; i++)

  00032	39 56 1c	 cmp	 DWORD PTR [esi+28], edx
  00035	76 28		 jbe	 SHORT $LN5@NewPage
  00037	eb 07 8d a4 24
	00 00 00 00	 npad	 9
$LL6@NewPage:

; 126  : 	{
; 127  : 		pElm->m_bUsed = FALSE;

  00040	c7 01 00 00 00
	00		 mov	 DWORD PTR [ecx], 0
  00046	42		 inc	 edx

; 128  : 		pElm->m_pNextFree = m_pFree;			// Free Listżˇ Ăß°ˇ

  00047	8b 46 0c	 mov	 eax, DWORD PTR [esi+12]
  0004a	89 41 04	 mov	 DWORD PTR [ecx+4], eax

; 129  : 
; 130  : 		m_pFree = pElm;							// »ő·Îżî Free Element·Î µî·Ď.
; 131  : 
; 132  : 		pElm = (BLOCK *) (((char *) pElm) + (m_AlignedElementTagSize + m_AlignedElementSize));

  0004d	8b 46 28	 mov	 eax, DWORD PTR [esi+40]
  00050	03 46 24	 add	 eax, DWORD PTR [esi+36]
  00053	89 4e 0c	 mov	 DWORD PTR [esi+12], ecx
  00056	03 c8		 add	 ecx, eax
  00058	3b 56 1c	 cmp	 edx, DWORD PTR [esi+28]
  0005b	72 e3		 jb	 SHORT $LL6@NewPage

; 110  : 
; 111  : 	InitPage( pNew);
; 112  : 
; 113  : 	return pNew;

  0005d	8b c7		 mov	 eax, edi
$LN5@NewPage:
  0005f	5f		 pop	 edi

; 114  : }

  00060	5e		 pop	 esi
  00061	c3		 ret	 0
?NewPage@i3FixedMemoryPool@@IAEPAUPAGE@1@XZ ENDP	; i3FixedMemoryPool::NewPage
_TEXT	ENDS
; Function compile flags: /Ogtp
;	COMDAT ??4i3Monitor2@@QAEAAV0@ABV0@@Z
_TEXT	SEGMENT
___that$ = 8						; size = 4
??4i3Monitor2@@QAEAAV0@ABV0@@Z PROC			; i3Monitor2::operator=, COMDAT
; _this$ = ecx
  00000	55		 push	 ebp
  00001	8b ec		 mov	 ebp, esp
  00003	8b 45 08	 mov	 eax, DWORD PTR ___that$[ebp]
  00006	8b 00		 mov	 eax, DWORD PTR [eax]
  00008	89 01		 mov	 DWORD PTR [ecx], eax
  0000a	8b c1		 mov	 eax, ecx
  0000c	5d		 pop	 ebp
  0000d	c2 04 00	 ret	 4
??4i3Monitor2@@QAEAAV0@ABV0@@Z ENDP			; i3Monitor2::operator=
_TEXT	ENDS
; Function compile flags: /Ogtp
;	COMDAT ??4i3Mutex2@@QAEAAV0@ABV0@@Z
_TEXT	SEGMENT
___that$ = 8						; size = 4
??4i3Mutex2@@QAEAAV0@ABV0@@Z PROC			; i3Mutex2::operator=, COMDAT
; _this$ = ecx
  00000	55		 push	 ebp
  00001	8b ec		 mov	 ebp, esp
  00003	8b 55 08	 mov	 edx, DWORD PTR ___that$[ebp]
  00006	8b 02		 mov	 eax, DWORD PTR [edx]
  00008	89 01		 mov	 DWORD PTR [ecx], eax
  0000a	8b 42 04	 mov	 eax, DWORD PTR [edx+4]
  0000d	89 41 04	 mov	 DWORD PTR [ecx+4], eax
  00010	8b 42 08	 mov	 eax, DWORD PTR [edx+8]
  00013	89 41 08	 mov	 DWORD PTR [ecx+8], eax
  00016	8b 42 0c	 mov	 eax, DWORD PTR [edx+12]
  00019	89 41 0c	 mov	 DWORD PTR [ecx+12], eax
  0001c	8b 42 10	 mov	 eax, DWORD PTR [edx+16]
  0001f	89 41 10	 mov	 DWORD PTR [ecx+16], eax
  00022	8b 42 14	 mov	 eax, DWORD PTR [edx+20]
  00025	89 41 14	 mov	 DWORD PTR [ecx+20], eax
  00028	8b c1		 mov	 eax, ecx
  0002a	5d		 pop	 ebp
  0002b	c2 04 00	 ret	 4
??4i3Mutex2@@QAEAAV0@ABV0@@Z ENDP			; i3Mutex2::operator=
_TEXT	ENDS
; Function compile flags: /Ogtp
; File E:\Proyectos\JuegosOnlineproyectos\PB\pbblow\Piercing Blow Remake\i3Server\src\i3Base\i3FixedMemoryPool.cpp
;	COMDAT ??_Ei3Mutex@@UAEPAXI@Z
_TEXT	SEGMENT
__$EHRec$ = -12						; size = 12
___flags$ = 8						; size = 4
??_Ei3Mutex@@UAEPAXI@Z PROC				; i3Mutex::`vector deleting destructor', COMDAT
; _this$ = ecx
  00000	55		 push	 ebp
  00001	8b ec		 mov	 ebp, esp
  00003	6a ff		 push	 -1
  00005	68 00 00 00 00	 push	 __ehhandler$??_Ei3Mutex@@UAEPAXI@Z
  0000a	64 a1 00 00 00
	00		 mov	 eax, DWORD PTR fs:0
  00010	50		 push	 eax
  00011	53		 push	 ebx
  00012	56		 push	 esi
  00013	57		 push	 edi
  00014	a1 00 00 00 00	 mov	 eax, DWORD PTR ___security_cookie
  00019	33 c5		 xor	 eax, ebp
  0001b	50		 push	 eax
  0001c	8d 45 f4	 lea	 eax, DWORD PTR __$EHRec$[ebp]
  0001f	64 a3 00 00 00
	00		 mov	 DWORD PTR fs:0, eax
  00025	8b f1		 mov	 esi, ecx
  00027	8b 5d 08	 mov	 ebx, DWORD PTR ___flags$[ebp]
  0002a	8b fb		 mov	 edi, ebx
  0002c	83 e7 01	 and	 edi, 1
  0002f	f6 c3 02	 test	 bl, 2
  00032	74 43		 je	 SHORT $LN2@vector
  00034	68 00 00 00 00	 push	 OFFSET ??1i3Mutex@@UAE@XZ ; i3Mutex::~i3Mutex
  00039	ff 76 fc	 push	 DWORD PTR [esi-4]
  0003c	8d 5e fc	 lea	 ebx, DWORD PTR [esi-4]
  0003f	6a 28		 push	 40			; 00000028H
  00041	56		 push	 esi
  00042	e8 00 00 00 00	 call	 ??_M@YGXPAXIIP6EX0@Z@Z
  00047	85 ff		 test	 edi, edi
  00049	74 16		 je	 SHORT $LN3@vector
  0004b	8b 0b		 mov	 ecx, DWORD PTR [ebx]
  0004d	8d 0c 89	 lea	 ecx, DWORD PTR [ecx+ecx*4]
  00050	8d 0c cd 04 00
	00 00		 lea	 ecx, DWORD PTR [ecx*8+4]
  00057	51		 push	 ecx
  00058	53		 push	 ebx
  00059	e8 00 00 00 00	 call	 ??_V@YAXPAXI@Z		; operator delete[]
  0005e	83 c4 08	 add	 esp, 8
$LN3@vector:
  00061	8b c3		 mov	 eax, ebx
  00063	8b 4d f4	 mov	 ecx, DWORD PTR __$EHRec$[ebp]
  00066	64 89 0d 00 00
	00 00		 mov	 DWORD PTR fs:0, ecx
  0006d	59		 pop	 ecx
  0006e	5f		 pop	 edi
  0006f	5e		 pop	 esi
  00070	5b		 pop	 ebx
  00071	8b e5		 mov	 esp, ebp
  00073	5d		 pop	 ebp
  00074	c2 04 00	 ret	 4
$LN2@vector:
  00077	e8 00 00 00 00	 call	 ??1i3Mutex@@UAE@XZ	; i3Mutex::~i3Mutex
  0007c	85 ff		 test	 edi, edi
  0007e	74 1b		 je	 SHORT $LN6@vector
  00080	f6 c3 04	 test	 bl, 4
  00083	75 0b		 jne	 SHORT $LN5@vector
  00085	56		 push	 esi
  00086	e8 00 00 00 00	 call	 ??3i3ElementBase@@SAXPAX@Z ; i3ElementBase::operator delete
  0008b	83 c4 04	 add	 esp, 4
  0008e	eb 0b		 jmp	 SHORT $LN6@vector
$LN5@vector:

  00090	6a 28		 push	 40			; 00000028H
  00092	56		 push	 esi
  00093	e8 00 00 00 00	 call	 ??3@YAXPAXI@Z		; operator delete
  00098	83 c4 08	 add	 esp, 8
$LN6@vector:
  0009b	8b c6		 mov	 eax, esi
  0009d	8b 4d f4	 mov	 ecx, DWORD PTR __$EHRec$[ebp]
  000a0	64 89 0d 00 00
	00 00		 mov	 DWORD PTR fs:0, ecx
  000a7	59		 pop	 ecx
  000a8	5f		 pop	 edi
  000a9	5e		 pop	 esi
  000aa	5b		 pop	 ebx
  000ab	8b e5		 mov	 esp, ebp
  000ad	5d		 pop	 ebp
  000ae	c2 04 00	 ret	 4
  000b1	cc		 int	 3
  000b2	cc		 int	 3
  000b3	cc		 int	 3
  000b4	cc		 int	 3
  000b5	cc		 int	 3
_TEXT	ENDS
;	COMDAT text$x
text$x	SEGMENT
__ehhandler$??_Ei3Mutex@@UAEPAXI@Z:
  00000	90		 npad	 1
  00001	90		 npad	 1
  00002	8b 54 24 08	 mov	 edx, DWORD PTR [esp+8]
  00006	8d 42 0c	 lea	 eax, DWORD PTR [edx+12]
  00009	8b 4a f0	 mov	 ecx, DWORD PTR [edx-16]
  0000c	33 c8		 xor	 ecx, eax
  0000e	e8 00 00 00 00	 call	 @__security_check_cookie@4
  00013	b8 00 00 00 00	 mov	 eax, OFFSET __ehfuncinfo$??_Ei3Mutex@@UAEPAXI@Z
  00018	e9 00 00 00 00	 jmp	 ___CxxFrameHandler3
text$x	ENDS
??_Ei3Mutex@@UAEPAXI@Z ENDP				; i3Mutex::`vector deleting destructor'
; Function compile flags: /Ogtp
; File E:\Proyectos\JuegosOnlineproyectos\PB\pbblow\Piercing Blow Remake\i3Server\src\i3Base\i3FixedMemoryPool.cpp
;	COMDAT ??_Gi3Mutex@@UAEPAXI@Z
_TEXT	SEGMENT
___flags$ = 8						; size = 4
??_Gi3Mutex@@UAEPAXI@Z PROC				; i3Mutex::`scalar deleting destructor', COMDAT
; _this$ = ecx
  00000	55		 push	 ebp
  00001	8b ec		 mov	 ebp, esp
  00003	56		 push	 esi
  00004	8b f1		 mov	 esi, ecx
  00006	e8 00 00 00 00	 call	 ??1i3Mutex@@UAE@XZ	; i3Mutex::~i3Mutex
  0000b	8b 45 08	 mov	 eax, DWORD PTR ___flags$[ebp]
  0000e	a8 01		 test	 al, 1
  00010	74 1f		 je	 SHORT $LN10@scalar
  00012	a8 04		 test	 al, 4
  00014	75 10		 jne	 SHORT $LN3@scalar
  00016	56		 push	 esi
  00017	e8 00 00 00 00	 call	 ??3i3ElementBase@@SAXPAX@Z ; i3ElementBase::operator delete
  0001c	83 c4 04	 add	 esp, 4
  0001f	8b c6		 mov	 eax, esi
  00021	5e		 pop	 esi
  00022	5d		 pop	 ebp
  00023	c2 04 00	 ret	 4
$LN3@scalar:

  00026	6a 28		 push	 40			; 00000028H
  00028	56		 push	 esi
  00029	e8 00 00 00 00	 call	 ??3@YAXPAXI@Z		; operator delete
  0002e	83 c4 08	 add	 esp, 8
$LN10@scalar:
  00031	8b c6		 mov	 eax, esi
  00033	5e		 pop	 esi
  00034	5d		 pop	 ebp
  00035	c2 04 00	 ret	 4
??_Gi3Mutex@@UAEPAXI@Z ENDP				; i3Mutex::`scalar deleting destructor'
_TEXT	ENDS
; Function compile flags: /Ogtp
;	COMDAT ??4i3Mutex@@QAEAAV0@ABV0@@Z
_TEXT	SEGMENT
___that$ = 8						; size = 4
??4i3Mutex@@QAEAAV0@ABV0@@Z PROC			; i3Mutex::operator=, COMDAT
; _this$ = ecx
  00000	55		 push	 ebp
  00001	8b ec		 mov	 ebp, esp
  00003	8b 55 08	 mov	 edx, DWORD PTR ___that$[ebp]
  00006	8b 42 04	 mov	 eax, DWORD PTR [edx+4]
  00009	89 41 04	 mov	 DWORD PTR [ecx+4], eax
  0000c	8b 42 08	 mov	 eax, DWORD PTR [edx+8]
  0000f	89 41 08	 mov	 DWORD PTR [ecx+8], eax
  00012	8b 42 0c	 mov	 eax, DWORD PTR [edx+12]
  00015	89 41 0c	 mov	 DWORD PTR [ecx+12], eax
  00018	8b 42 10	 mov	 eax, DWORD PTR [edx+16]
  0001b	89 41 10	 mov	 DWORD PTR [ecx+16], eax
  0001e	8b 42 14	 mov	 eax, DWORD PTR [edx+20]
  00021	89 41 14	 mov	 DWORD PTR [ecx+20], eax
  00024	8b 42 18	 mov	 eax, DWORD PTR [edx+24]
  00027	89 41 18	 mov	 DWORD PTR [ecx+24], eax
  0002a	8b 42 1c	 mov	 eax, DWORD PTR [edx+28]
  0002d	89 41 1c	 mov	 DWORD PTR [ecx+28], eax
  00030	8b 42 20	 mov	 eax, DWORD PTR [edx+32]
  00033	89 41 20	 mov	 DWORD PTR [ecx+32], eax
  00036	8b 42 24	 mov	 eax, DWORD PTR [edx+36]
  00039	89 41 24	 mov	 DWORD PTR [ecx+36], eax
  0003c	8b c1		 mov	 eax, ecx
  0003e	5d		 pop	 ebp
  0003f	c2 04 00	 ret	 4
??4i3Mutex@@QAEAAV0@ABV0@@Z ENDP			; i3Mutex::operator=
_TEXT	ENDS
; Function compile flags: /Ogtp
;	COMDAT ??0i3Mutex@@QAE@ABV0@@Z
_TEXT	SEGMENT
___that$ = 8						; size = 4
??0i3Mutex@@QAE@ABV0@@Z PROC				; i3Mutex::i3Mutex, COMDAT
; _this$ = ecx
  00000	55		 push	 ebp
  00001	8b ec		 mov	 ebp, esp
  00003	8b 55 08	 mov	 edx, DWORD PTR ___that$[ebp]
  00006	c7 01 00 00 00
	00		 mov	 DWORD PTR [ecx], OFFSET ??_7i3ElementBase@@6B@
  0000c	8b 42 04	 mov	 eax, DWORD PTR [edx+4]
  0000f	89 41 04	 mov	 DWORD PTR [ecx+4], eax
  00012	8b 42 08	 mov	 eax, DWORD PTR [edx+8]
  00015	89 41 08	 mov	 DWORD PTR [ecx+8], eax
  00018	8b 42 0c	 mov	 eax, DWORD PTR [edx+12]
  0001b	89 41 0c	 mov	 DWORD PTR [ecx+12], eax
  0001e	c7 01 00 00 00
	00		 mov	 DWORD PTR [ecx], OFFSET ??_7i3Mutex@@6B@
  00024	8b 42 10	 mov	 eax, DWORD PTR [edx+16]
  00027	89 41 10	 mov	 DWORD PTR [ecx+16], eax
  0002a	8b 42 14	 mov	 eax, DWORD PTR [edx+20]
  0002d	89 41 14	 mov	 DWORD PTR [ecx+20], eax
  00030	8b 42 18	 mov	 eax, DWORD PTR [edx+24]
  00033	89 41 18	 mov	 DWORD PTR [ecx+24], eax
  00036	8b 42 1c	 mov	 eax, DWORD PTR [edx+28]
  00039	89 41 1c	 mov	 DWORD PTR [ecx+28], eax
  0003c	8b 42 20	 mov	 eax, DWORD PTR [edx+32]
  0003f	89 41 20	 mov	 DWORD PTR [ecx+32], eax
  00042	8b 42 24	 mov	 eax, DWORD PTR [edx+36]
  00045	89 41 24	 mov	 DWORD PTR [ecx+36], eax
  00048	8b c1		 mov	 eax, ecx
  0004a	5d		 pop	 ebp
  0004b	c2 04 00	 ret	 4
??0i3Mutex@@QAE@ABV0@@Z ENDP				; i3Mutex::i3Mutex
_TEXT	ENDS
; Function compile flags: /Ogtp
; File E:\Proyectos\JuegosOnlineproyectos\PB\pbblow\Piercing Blow Remake\i3Server\include\i3Base\i3Mutex.h
;	COMDAT ?GetClassMeta@i3Mutex@@SAPAVi3ClassMeta@@XZ
_TEXT	SEGMENT
?GetClassMeta@i3Mutex@@SAPAVi3ClassMeta@@XZ PROC	; i3Mutex::GetClassMeta, COMDAT

; 23   :     I3_CLASS_DEFINE(i3Mutex);

  00000	a1 00 00 00 00	 mov	 eax, DWORD PTR ?s_pClassMetai3Mutex@i3Mutex@@2PAVi3ClassMeta@@A ; i3Mutex::s_pClassMetai3Mutex
  00005	c3		 ret	 0
?GetClassMeta@i3Mutex@@SAPAVi3ClassMeta@@XZ ENDP	; i3Mutex::GetClassMeta
_TEXT	ENDS
; Function compile flags: /Ogtp
; File E:\Proyectos\JuegosOnlineproyectos\PB\pbblow\Piercing Blow Remake\i3Server\src\i3Base\i3FixedMemoryPool.cpp
;	COMDAT ??_Ei3ElementBase@@UAEPAXI@Z
_TEXT	SEGMENT
__$EHRec$ = -12						; size = 12
___flags$ = 8						; size = 4
??_Ei3ElementBase@@UAEPAXI@Z PROC			; i3ElementBase::`vector deleting destructor', COMDAT
; _this$ = ecx
  00000	55		 push	 ebp
  00001	8b ec		 mov	 ebp, esp
  00003	6a ff		 push	 -1
  00005	68 00 00 00 00	 push	 __ehhandler$??_Ei3ElementBase@@UAEPAXI@Z
  0000a	64 a1 00 00 00
	00		 mov	 eax, DWORD PTR fs:0
  00010	50		 push	 eax
  00011	53		 push	 ebx
  00012	56		 push	 esi
  00013	57		 push	 edi
  00014	a1 00 00 00 00	 mov	 eax, DWORD PTR ___security_cookie
  00019	33 c5		 xor	 eax, ebp
  0001b	50		 push	 eax
  0001c	8d 45 f4	 lea	 eax, DWORD PTR __$EHRec$[ebp]
  0001f	64 a3 00 00 00
	00		 mov	 DWORD PTR fs:0, eax
  00025	8b f1		 mov	 esi, ecx
  00027	8b 5d 08	 mov	 ebx, DWORD PTR ___flags$[ebp]
  0002a	8b fb		 mov	 edi, ebx
  0002c	83 e7 01	 and	 edi, 1
  0002f	f6 c3 02	 test	 bl, 2
  00032	74 3f		 je	 SHORT $LN2@vector
  00034	68 00 00 00 00	 push	 OFFSET ??1i3ElementBase@@UAE@XZ ; i3ElementBase::~i3ElementBase
  00039	ff 76 fc	 push	 DWORD PTR [esi-4]
  0003c	8d 5e fc	 lea	 ebx, DWORD PTR [esi-4]
  0003f	6a 10		 push	 16			; 00000010H
  00041	56		 push	 esi
  00042	e8 00 00 00 00	 call	 ??_M@YGXPAXIIP6EX0@Z@Z
  00047	85 ff		 test	 edi, edi
  00049	74 12		 je	 SHORT $LN3@vector
  0004b	8b 0b		 mov	 ecx, DWORD PTR [ebx]
  0004d	c1 e1 04	 shl	 ecx, 4
  00050	83 c1 04	 add	 ecx, 4
  00053	51		 push	 ecx
  00054	53		 push	 ebx
  00055	e8 00 00 00 00	 call	 ??_V@YAXPAXI@Z		; operator delete[]
  0005a	83 c4 08	 add	 esp, 8
$LN3@vector:
  0005d	8b c3		 mov	 eax, ebx
  0005f	8b 4d f4	 mov	 ecx, DWORD PTR __$EHRec$[ebp]
  00062	64 89 0d 00 00
	00 00		 mov	 DWORD PTR fs:0, ecx
  00069	59		 pop	 ecx
  0006a	5f		 pop	 edi
  0006b	5e		 pop	 esi
  0006c	5b		 pop	 ebx
  0006d	8b e5		 mov	 esp, ebp
  0006f	5d		 pop	 ebp
  00070	c2 04 00	 ret	 4
$LN2@vector:
  00073	e8 00 00 00 00	 call	 ??1i3ElementBase@@UAE@XZ ; i3ElementBase::~i3ElementBase
  00078	85 ff		 test	 edi, edi
  0007a	74 1b		 je	 SHORT $LN6@vector
  0007c	f6 c3 04	 test	 bl, 4
  0007f	75 0b		 jne	 SHORT $LN5@vector
  00081	56		 push	 esi
  00082	e8 00 00 00 00	 call	 ??3i3ElementBase@@SAXPAX@Z ; i3ElementBase::operator delete
  00087	83 c4 04	 add	 esp, 4
  0008a	eb 0b		 jmp	 SHORT $LN6@vector
$LN5@vector:

  0008c	6a 10		 push	 16			; 00000010H
  0008e	56		 push	 esi
  0008f	e8 00 00 00 00	 call	 ??3@YAXPAXI@Z		; operator delete
  00094	83 c4 08	 add	 esp, 8
$LN6@vector:
  00097	8b c6		 mov	 eax, esi
  00099	8b 4d f4	 mov	 ecx, DWORD PTR __$EHRec$[ebp]
  0009c	64 89 0d 00 00
	00 00		 mov	 DWORD PTR fs:0, ecx
  000a3	59		 pop	 ecx
  000a4	5f		 pop	 edi
  000a5	5e		 pop	 esi
  000a6	5b		 pop	 ebx
  000a7	8b e5		 mov	 esp, ebp
  000a9	5d		 pop	 ebp
  000aa	c2 04 00	 ret	 4
  000ad	cc		 int	 3
  000ae	cc		 int	 3
  000af	cc		 int	 3
  000b0	cc		 int	 3
  000b1	cc		 int	 3
_TEXT	ENDS
;	COMDAT text$x
text$x	SEGMENT
__ehhandler$??_Ei3ElementBase@@UAEPAXI@Z:
  00000	90		 npad	 1
  00001	90		 npad	 1
  00002	8b 54 24 08	 mov	 edx, DWORD PTR [esp+8]
  00006	8d 42 0c	 lea	 eax, DWORD PTR [edx+12]
  00009	8b 4a f0	 mov	 ecx, DWORD PTR [edx-16]
  0000c	33 c8		 xor	 ecx, eax
  0000e	e8 00 00 00 00	 call	 @__security_check_cookie@4
  00013	b8 00 00 00 00	 mov	 eax, OFFSET __ehfuncinfo$??_Ei3ElementBase@@UAEPAXI@Z
  00018	e9 00 00 00 00	 jmp	 ___CxxFrameHandler3
text$x	ENDS
??_Ei3ElementBase@@UAEPAXI@Z ENDP			; i3ElementBase::`vector deleting destructor'
; Function compile flags: /Ogtp
; File E:\Proyectos\JuegosOnlineproyectos\PB\pbblow\Piercing Blow Remake\i3Server\src\i3Base\i3FixedMemoryPool.cpp
;	COMDAT ??_Gi3ElementBase@@UAEPAXI@Z
_TEXT	SEGMENT
___flags$ = 8						; size = 4
??_Gi3ElementBase@@UAEPAXI@Z PROC			; i3ElementBase::`scalar deleting destructor', COMDAT
; _this$ = ecx
  00000	55		 push	 ebp
  00001	8b ec		 mov	 ebp, esp
  00003	56		 push	 esi
  00004	8b f1		 mov	 esi, ecx
  00006	e8 00 00 00 00	 call	 ??1i3ElementBase@@UAE@XZ ; i3ElementBase::~i3ElementBase
  0000b	8b 45 08	 mov	 eax, DWORD PTR ___flags$[ebp]
  0000e	a8 01		 test	 al, 1
  00010	74 1f		 je	 SHORT $LN10@scalar
  00012	a8 04		 test	 al, 4
  00014	75 10		 jne	 SHORT $LN3@scalar
  00016	56		 push	 esi
  00017	e8 00 00 00 00	 call	 ??3i3ElementBase@@SAXPAX@Z ; i3ElementBase::operator delete
  0001c	83 c4 04	 add	 esp, 4
  0001f	8b c6		 mov	 eax, esi
  00021	5e		 pop	 esi
  00022	5d		 pop	 ebp
  00023	c2 04 00	 ret	 4
$LN3@scalar:

  00026	6a 10		 push	 16			; 00000010H
  00028	56		 push	 esi
  00029	e8 00 00 00 00	 call	 ??3@YAXPAXI@Z		; operator delete
  0002e	83 c4 08	 add	 esp, 8
$LN10@scalar:
  00031	8b c6		 mov	 eax, esi
  00033	5e		 pop	 esi
  00034	5d		 pop	 ebp
  00035	c2 04 00	 ret	 4
??_Gi3ElementBase@@UAEPAXI@Z ENDP			; i3ElementBase::`scalar deleting destructor'
_TEXT	ENDS
; Function compile flags: /Ogtp
;	COMDAT ??4i3ElementBase@@QAEAAV0@ABV0@@Z
_TEXT	SEGMENT
___that$ = 8						; size = 4
??4i3ElementBase@@QAEAAV0@ABV0@@Z PROC			; i3ElementBase::operator=, COMDAT
; _this$ = ecx
  00000	55		 push	 ebp
  00001	8b ec		 mov	 ebp, esp
  00003	8b 55 08	 mov	 edx, DWORD PTR ___that$[ebp]
  00006	8b 42 04	 mov	 eax, DWORD PTR [edx+4]
  00009	89 41 04	 mov	 DWORD PTR [ecx+4], eax
  0000c	8b 42 08	 mov	 eax, DWORD PTR [edx+8]
  0000f	89 41 08	 mov	 DWORD PTR [ecx+8], eax
  00012	8b 42 0c	 mov	 eax, DWORD PTR [edx+12]
  00015	89 41 0c	 mov	 DWORD PTR [ecx+12], eax
  00018	8b c1		 mov	 eax, ecx
  0001a	5d		 pop	 ebp
  0001b	c2 04 00	 ret	 4
??4i3ElementBase@@QAEAAV0@ABV0@@Z ENDP			; i3ElementBase::operator=
_TEXT	ENDS
; Function compile flags: /Ogtp
;	COMDAT ??0i3ElementBase@@QAE@ABV0@@Z
_TEXT	SEGMENT
___that$ = 8						; size = 4
??0i3ElementBase@@QAE@ABV0@@Z PROC			; i3ElementBase::i3ElementBase, COMDAT
; _this$ = ecx
  00000	55		 push	 ebp
  00001	8b ec		 mov	 ebp, esp
  00003	8b 55 08	 mov	 edx, DWORD PTR ___that$[ebp]
  00006	c7 01 00 00 00
	00		 mov	 DWORD PTR [ecx], OFFSET ??_7i3ElementBase@@6B@
  0000c	8b 42 04	 mov	 eax, DWORD PTR [edx+4]
  0000f	89 41 04	 mov	 DWORD PTR [ecx+4], eax
  00012	8b 42 08	 mov	 eax, DWORD PTR [edx+8]
  00015	89 41 08	 mov	 DWORD PTR [ecx+8], eax
  00018	8b 42 0c	 mov	 eax, DWORD PTR [edx+12]
  0001b	89 41 0c	 mov	 DWORD PTR [ecx+12], eax
  0001e	8b c1		 mov	 eax, ecx
  00020	5d		 pop	 ebp
  00021	c2 04 00	 ret	 4
??0i3ElementBase@@QAE@ABV0@@Z ENDP			; i3ElementBase::i3ElementBase
_TEXT	ENDS
; Function compile flags: /Ogtp
; File E:\Proyectos\JuegosOnlineproyectos\PB\pbblow\Piercing Blow Remake\i3Server\include\i3Base\i3ElementBase.h
;	COMDAT ?_internal_SetRefCount@i3ElementBase@@QAEXH@Z
_TEXT	SEGMENT
_cnt$ = 8						; size = 4
?_internal_SetRefCount@i3ElementBase@@QAEXH@Z PROC	; i3ElementBase::_internal_SetRefCount, COMDAT
; _this$ = ecx

; 401  : 	{

  00000	55		 push	 ebp
  00001	8b ec		 mov	 ebp, esp

; 402  : 		m_RefCount = cnt;

  00003	8b 45 08	 mov	 eax, DWORD PTR _cnt$[ebp]
  00006	89 41 04	 mov	 DWORD PTR [ecx+4], eax

; 403  : 	}

  00009	5d		 pop	 ebp
  0000a	c2 04 00	 ret	 4
?_internal_SetRefCount@i3ElementBase@@QAEXH@Z ENDP	; i3ElementBase::_internal_SetRefCount
_TEXT	ENDS
; Function compile flags: /Ogtp
; File E:\Proyectos\JuegosOnlineproyectos\PB\pbblow\Piercing Blow Remake\i3Server\include\i3Base\i3ElementBase.h
;	COMDAT ?AddRef@i3ElementBase@@QAEHXZ
_TEXT	SEGMENT
?AddRef@i3ElementBase@@QAEHXZ PROC			; i3ElementBase::AddRef, COMDAT
; _this$ = ecx

; 392  : 		m_RefCount++;

  00000	ff 41 04	 inc	 DWORD PTR [ecx+4]

; 393  : 
; 394  : 		return m_RefCount;

  00003	8b 41 04	 mov	 eax, DWORD PTR [ecx+4]

; 395  : 	}

  00006	c3		 ret	 0
?AddRef@i3ElementBase@@QAEHXZ ENDP			; i3ElementBase::AddRef
_TEXT	ENDS
; Function compile flags: /Ogtp
; File E:\Proyectos\JuegosOnlineproyectos\PB\pbblow\Piercing Blow Remake\i3Server\include\i3Base\i3ElementBase.h
;	COMDAT ?IsTypeOf@i3ElementBase@@QAE_NPAVi3ClassMeta@@@Z
_TEXT	SEGMENT
_pMeta$ = 8						; size = 4
?IsTypeOf@i3ElementBase@@QAE_NPAVi3ClassMeta@@@Z PROC	; i3ElementBase::IsTypeOf, COMDAT
; _this$ = ecx

; 356  : 	{

  00000	55		 push	 ebp
  00001	8b ec		 mov	 ebp, esp

; 357  : 		return GetMeta()->IsTypeOf( pMeta);

  00003	8b 01		 mov	 eax, DWORD PTR [ecx]
  00005	ff 75 08	 push	 DWORD PTR _pMeta$[ebp]
  00008	ff 10		 call	 DWORD PTR [eax]
  0000a	8b c8		 mov	 ecx, eax
  0000c	e8 00 00 00 00	 call	 ?IsTypeOf@i3ClassMeta@@QAE_NPAV1@@Z ; i3ClassMeta::IsTypeOf

; 358  : 	}

  00011	5d		 pop	 ebp
  00012	c2 04 00	 ret	 4
?IsTypeOf@i3ElementBase@@QAE_NPAVi3ClassMeta@@@Z ENDP	; i3ElementBase::IsTypeOf
_TEXT	ENDS
; Function compile flags: /Ogtp
; File E:\Proyectos\JuegosOnlineproyectos\PB\pbblow\Piercing Blow Remake\i3Server\include\i3Base\i3ElementBase.h
; File E:\Proyectos\JuegosOnlineproyectos\PB\pbblow\Piercing Blow Remake\i3Server\include\i3Base\i3ClassMeta.h
; File E:\Proyectos\JuegosOnlineproyectos\PB\pbblow\Piercing Blow Remake\i3Server\include\i3Base\i3ElementBase.h
;	COMDAT ?IsExactTypeOf@i3ElementBase@@QAE_NPAVi3ClassMeta@@@Z
_TEXT	SEGMENT
_pMeta$ = 8						; size = 4
?IsExactTypeOf@i3ElementBase@@QAE_NPAVi3ClassMeta@@@Z PROC ; i3ElementBase::IsExactTypeOf, COMDAT
; _this$ = ecx

; 351  : 	{

  00000	55		 push	 ebp
  00001	8b ec		 mov	 ebp, esp

; 352  : 		return GetMeta()->IsExactTypeOf( pMeta);

  00003	8b 01		 mov	 eax, DWORD PTR [ecx]
  00005	ff 10		 call	 DWORD PTR [eax]
; File E:\Proyectos\JuegosOnlineproyectos\PB\pbblow\Piercing Blow Remake\i3Server\include\i3Base\i3ClassMeta.h

; 90   : 		return pMeta == this;

  00007	39 45 08	 cmp	 DWORD PTR _pMeta$[ebp], eax
  0000a	0f 94 c0	 sete	 al
; File E:\Proyectos\JuegosOnlineproyectos\PB\pbblow\Piercing Blow Remake\i3Server\include\i3Base\i3ElementBase.h

; 353  : 	}

  0000d	5d		 pop	 ebp
  0000e	c2 04 00	 ret	 4
?IsExactTypeOf@i3ElementBase@@QAE_NPAVi3ClassMeta@@@Z ENDP ; i3ElementBase::IsExactTypeOf
_TEXT	ENDS
; Function compile flags: /Ogtp
; File E:\Proyectos\JuegosOnlineproyectos\PB\pbblow\Piercing Blow Remake\i3Server\include\i3Base\i3ElementBase.h
;	COMDAT ?__GetMemoryPool@i3ElementBase@@QAEPAVi3MemoryPool@@XZ
_TEXT	SEGMENT
?__GetMemoryPool@i3ElementBase@@QAEPAVi3MemoryPool@@XZ PROC ; i3ElementBase::__GetMemoryPool, COMDAT
; _this$ = ecx

; 348  : 	i3MemoryPool *	__GetMemoryPool(void)							{ return m_pPool; }

  00000	8b 41 0c	 mov	 eax, DWORD PTR [ecx+12]
  00003	c3		 ret	 0
?__GetMemoryPool@i3ElementBase@@QAEPAVi3MemoryPool@@XZ ENDP ; i3ElementBase::__GetMemoryPool
_TEXT	ENDS
; Function compile flags: /Ogtp
; File E:\Proyectos\JuegosOnlineproyectos\PB\pbblow\Piercing Blow Remake\i3Server\include\i3Base\i3ElementBase.h
;	COMDAT ?__SetMemoryPool@i3ElementBase@@QAEXPAVi3MemoryPool@@@Z
_TEXT	SEGMENT
_pPool$ = 8						; size = 4
?__SetMemoryPool@i3ElementBase@@QAEXPAVi3MemoryPool@@@Z PROC ; i3ElementBase::__SetMemoryPool, COMDAT
; _this$ = ecx

; 347  : 	void			__SetMemoryPool( i3MemoryPool * pPool)			{ m_pPool = pPool; }

  00000	55		 push	 ebp
  00001	8b ec		 mov	 ebp, esp
  00003	8b 45 08	 mov	 eax, DWORD PTR _pPool$[ebp]
  00006	89 41 0c	 mov	 DWORD PTR [ecx+12], eax
  00009	5d		 pop	 ebp
  0000a	c2 04 00	 ret	 4
?__SetMemoryPool@i3ElementBase@@QAEXPAVi3MemoryPool@@@Z ENDP ; i3ElementBase::__SetMemoryPool
_TEXT	ENDS
; Function compile flags: /Ogtp
; File E:\Proyectos\JuegosOnlineproyectos\PB\pbblow\Piercing Blow Remake\i3Server\include\i3Base\i3ElementBase.h
;	COMDAT ?GetRefCount@i3ElementBase@@QAEHXZ
_TEXT	SEGMENT
?GetRefCount@i3ElementBase@@QAEHXZ PROC			; i3ElementBase::GetRefCount, COMDAT
; _this$ = ecx

; 344  : 		return m_RefCount;

  00000	8b 41 04	 mov	 eax, DWORD PTR [ecx+4]

; 345  : 	}

  00003	c3		 ret	 0
?GetRefCount@i3ElementBase@@QAEHXZ ENDP			; i3ElementBase::GetRefCount
_TEXT	ENDS
; Function compile flags: /Ogtp
; File E:\Proyectos\JuegosOnlineproyectos\PB\pbblow\Piercing Blow Remake\i3Server\include\i3Base\i3ElementBase.h
;	COMDAT ?GetClassMeta@i3ElementBase@@SAPAVi3ClassMeta@@XZ
_TEXT	SEGMENT
?GetClassMeta@i3ElementBase@@SAPAVi3ClassMeta@@XZ PROC	; i3ElementBase::GetClassMeta, COMDAT

; 314  : 	I3_ABSTRACT_CLASS_DEFINE( i3ElementBase);

  00000	a1 00 00 00 00	 mov	 eax, DWORD PTR ?s_pClassMetai3ElementBase@i3ElementBase@@2PAVi3ClassMeta@@A ; i3ElementBase::s_pClassMetai3ElementBase
  00005	c3		 ret	 0
?GetClassMeta@i3ElementBase@@SAPAVi3ClassMeta@@XZ ENDP	; i3ElementBase::GetClassMeta
_TEXT	ENDS
; Function compile flags: /Ogtp
;	COMDAT ??_Ei3ClassMeta@@UAEPAXI@Z
_TEXT	SEGMENT
__$EHRec$ = -12						; size = 12
___flags$ = 8						; size = 4
??_Ei3ClassMeta@@UAEPAXI@Z PROC				; i3ClassMeta::`vector deleting destructor', COMDAT
; _this$ = ecx
  00000	55		 push	 ebp
  00001	8b ec		 mov	 ebp, esp
  00003	6a ff		 push	 -1
  00005	68 00 00 00 00	 push	 __ehhandler$??_Ei3ClassMeta@@UAEPAXI@Z
  0000a	64 a1 00 00 00
	00		 mov	 eax, DWORD PTR fs:0
  00010	50		 push	 eax
  00011	53		 push	 ebx
  00012	56		 push	 esi
  00013	57		 push	 edi
  00014	a1 00 00 00 00	 mov	 eax, DWORD PTR ___security_cookie
  00019	33 c5		 xor	 eax, ebp
  0001b	50		 push	 eax
  0001c	8d 45 f4	 lea	 eax, DWORD PTR __$EHRec$[ebp]
  0001f	64 a3 00 00 00
	00		 mov	 DWORD PTR fs:0, eax
  00025	8b f1		 mov	 esi, ecx
  00027	8b 45 08	 mov	 eax, DWORD PTR ___flags$[ebp]
  0002a	8b f8		 mov	 edi, eax
  0002c	83 e7 01	 and	 edi, 1
  0002f	a8 02		 test	 al, 2
  00031	74 49		 je	 SHORT $LN2@vector
  00033	68 00 00 00 00	 push	 OFFSET ??1i3ClassMeta@@UAE@XZ ; i3ClassMeta::~i3ClassMeta
  00038	ff 76 fc	 push	 DWORD PTR [esi-4]
  0003b	8d 5e fc	 lea	 ebx, DWORD PTR [esi-4]
  0003e	6a 38		 push	 56			; 00000038H
  00040	56		 push	 esi
  00041	e8 00 00 00 00	 call	 ??_M@YGXPAXIIP6EX0@Z@Z
  00046	85 ff		 test	 edi, edi
  00048	74 1c		 je	 SHORT $LN3@vector
  0004a	8b 0b		 mov	 ecx, DWORD PTR [ebx]
  0004c	8d 14 cd 00 00
	00 00		 lea	 edx, DWORD PTR [ecx*8]
  00053	2b d1		 sub	 edx, ecx
  00055	8d 0c d5 04 00
	00 00		 lea	 ecx, DWORD PTR [edx*8+4]
  0005c	51		 push	 ecx
  0005d	53		 push	 ebx
  0005e	e8 00 00 00 00	 call	 ??_V@YAXPAXI@Z		; operator delete[]
  00063	83 c4 08	 add	 esp, 8
$LN3@vector:
  00066	8b c3		 mov	 eax, ebx
  00068	8b 4d f4	 mov	 ecx, DWORD PTR __$EHRec$[ebp]
  0006b	64 89 0d 00 00
	00 00		 mov	 DWORD PTR fs:0, ecx
  00072	59		 pop	 ecx
  00073	5f		 pop	 edi
  00074	5e		 pop	 esi
  00075	5b		 pop	 ebx
  00076	8b e5		 mov	 esp, ebp
  00078	5d		 pop	 ebp
  00079	c2 04 00	 ret	 4
$LN2@vector:
  0007c	e8 00 00 00 00	 call	 ??1i3ClassMeta@@UAE@XZ	; i3ClassMeta::~i3ClassMeta
  00081	85 ff		 test	 edi, edi
  00083	74 0b		 je	 SHORT $LN4@vector
  00085	6a 38		 push	 56			; 00000038H
  00087	56		 push	 esi
  00088	e8 00 00 00 00	 call	 ??3@YAXPAXI@Z		; operator delete
  0008d	83 c4 08	 add	 esp, 8
$LN4@vector:
  00090	8b c6		 mov	 eax, esi
  00092	8b 4d f4	 mov	 ecx, DWORD PTR __$EHRec$[ebp]
  00095	64 89 0d 00 00
	00 00		 mov	 DWORD PTR fs:0, ecx
  0009c	59		 pop	 ecx
  0009d	5f		 pop	 edi
  0009e	5e		 pop	 esi
  0009f	5b		 pop	 ebx
  000a0	8b e5		 mov	 esp, ebp
  000a2	5d		 pop	 ebp
  000a3	c2 04 00	 ret	 4
  000a6	cc		 int	 3
  000a7	cc		 int	 3
  000a8	cc		 int	 3
  000a9	cc		 int	 3
  000aa	cc		 int	 3
_TEXT	ENDS
;	COMDAT text$x
text$x	SEGMENT
__ehhandler$??_Ei3ClassMeta@@UAEPAXI@Z:
  00000	90		 npad	 1
  00001	90		 npad	 1
  00002	8b 54 24 08	 mov	 edx, DWORD PTR [esp+8]
  00006	8d 42 0c	 lea	 eax, DWORD PTR [edx+12]
  00009	8b 4a f0	 mov	 ecx, DWORD PTR [edx-16]
  0000c	33 c8		 xor	 ecx, eax
  0000e	e8 00 00 00 00	 call	 @__security_check_cookie@4
  00013	b8 00 00 00 00	 mov	 eax, OFFSET __ehfuncinfo$??_Ei3ClassMeta@@UAEPAXI@Z
  00018	e9 00 00 00 00	 jmp	 ___CxxFrameHandler3
text$x	ENDS
??_Ei3ClassMeta@@UAEPAXI@Z ENDP				; i3ClassMeta::`vector deleting destructor'
; Function compile flags: /Ogtp
;	COMDAT ??_Gi3ClassMeta@@UAEPAXI@Z
_TEXT	SEGMENT
___flags$ = 8						; size = 4
??_Gi3ClassMeta@@UAEPAXI@Z PROC				; i3ClassMeta::`scalar deleting destructor', COMDAT
; _this$ = ecx
  00000	55		 push	 ebp
  00001	8b ec		 mov	 ebp, esp
  00003	56		 push	 esi
  00004	8b f1		 mov	 esi, ecx
  00006	e8 00 00 00 00	 call	 ??1i3ClassMeta@@UAE@XZ	; i3ClassMeta::~i3ClassMeta
  0000b	f6 45 08 01	 test	 BYTE PTR ___flags$[ebp], 1
  0000f	74 0b		 je	 SHORT $LN5@scalar
  00011	6a 38		 push	 56			; 00000038H
  00013	56		 push	 esi
  00014	e8 00 00 00 00	 call	 ??3@YAXPAXI@Z		; operator delete
  00019	83 c4 08	 add	 esp, 8
$LN5@scalar:
  0001c	8b c6		 mov	 eax, esi
  0001e	5e		 pop	 esi
  0001f	5d		 pop	 ebp
  00020	c2 04 00	 ret	 4
??_Gi3ClassMeta@@UAEPAXI@Z ENDP				; i3ClassMeta::`scalar deleting destructor'
_TEXT	ENDS
; Function compile flags: /Ogtp
;	COMDAT ??4i3ClassMeta@@QAEAAV0@ABV0@@Z
_TEXT	SEGMENT
___that$ = 8						; size = 4
??4i3ClassMeta@@QAEAAV0@ABV0@@Z PROC			; i3ClassMeta::operator=, COMDAT
; _this$ = ecx
  00000	55		 push	 ebp
  00001	8b ec		 mov	 ebp, esp
  00003	8b 55 08	 mov	 edx, DWORD PTR ___that$[ebp]
  00006	8b 42 04	 mov	 eax, DWORD PTR [edx+4]
  00009	89 41 04	 mov	 DWORD PTR [ecx+4], eax
  0000c	8b 42 08	 mov	 eax, DWORD PTR [edx+8]
  0000f	89 41 08	 mov	 DWORD PTR [ecx+8], eax
  00012	8b 42 0c	 mov	 eax, DWORD PTR [edx+12]
  00015	89 41 0c	 mov	 DWORD PTR [ecx+12], eax
  00018	8b 42 10	 mov	 eax, DWORD PTR [edx+16]
  0001b	89 41 10	 mov	 DWORD PTR [ecx+16], eax
  0001e	8b 42 14	 mov	 eax, DWORD PTR [edx+20]
  00021	89 41 14	 mov	 DWORD PTR [ecx+20], eax
  00024	8b 42 18	 mov	 eax, DWORD PTR [edx+24]
  00027	89 41 18	 mov	 DWORD PTR [ecx+24], eax
  0002a	8b 42 1c	 mov	 eax, DWORD PTR [edx+28]
  0002d	89 41 1c	 mov	 DWORD PTR [ecx+28], eax
  00030	8b 42 20	 mov	 eax, DWORD PTR [edx+32]
  00033	89 41 20	 mov	 DWORD PTR [ecx+32], eax
  00036	8b 42 24	 mov	 eax, DWORD PTR [edx+36]
  00039	89 41 24	 mov	 DWORD PTR [ecx+36], eax
  0003c	8b 42 28	 mov	 eax, DWORD PTR [edx+40]
  0003f	89 41 28	 mov	 DWORD PTR [ecx+40], eax
  00042	8b 42 2c	 mov	 eax, DWORD PTR [edx+44]
  00045	89 41 2c	 mov	 DWORD PTR [ecx+44], eax
  00048	8b 42 30	 mov	 eax, DWORD PTR [edx+48]
  0004b	89 41 30	 mov	 DWORD PTR [ecx+48], eax
  0004e	8b 42 34	 mov	 eax, DWORD PTR [edx+52]
  00051	89 41 34	 mov	 DWORD PTR [ecx+52], eax
  00054	8b c1		 mov	 eax, ecx
  00056	5d		 pop	 ebp
  00057	c2 04 00	 ret	 4
??4i3ClassMeta@@QAEAAV0@ABV0@@Z ENDP			; i3ClassMeta::operator=
_TEXT	ENDS
; Function compile flags: /Ogtp
;	COMDAT ??0i3ClassMeta@@QAE@ABV0@@Z
_TEXT	SEGMENT
___that$ = 8						; size = 4
??0i3ClassMeta@@QAE@ABV0@@Z PROC			; i3ClassMeta::i3ClassMeta, COMDAT
; _this$ = ecx
  00000	55		 push	 ebp
  00001	8b ec		 mov	 ebp, esp
  00003	8b 55 08	 mov	 edx, DWORD PTR ___that$[ebp]
  00006	c7 01 00 00 00
	00		 mov	 DWORD PTR [ecx], OFFSET ??_7i3ClassMeta@@6B@
  0000c	8b 42 04	 mov	 eax, DWORD PTR [edx+4]
  0000f	89 41 04	 mov	 DWORD PTR [ecx+4], eax
  00012	8b 42 08	 mov	 eax, DWORD PTR [edx+8]
  00015	89 41 08	 mov	 DWORD PTR [ecx+8], eax
  00018	8b 42 0c	 mov	 eax, DWORD PTR [edx+12]
  0001b	89 41 0c	 mov	 DWORD PTR [ecx+12], eax
  0001e	8b 42 10	 mov	 eax, DWORD PTR [edx+16]
  00021	89 41 10	 mov	 DWORD PTR [ecx+16], eax
  00024	8b 42 14	 mov	 eax, DWORD PTR [edx+20]
  00027	89 41 14	 mov	 DWORD PTR [ecx+20], eax
  0002a	8b 42 18	 mov	 eax, DWORD PTR [edx+24]
  0002d	89 41 18	 mov	 DWORD PTR [ecx+24], eax
  00030	8b 42 1c	 mov	 eax, DWORD PTR [edx+28]
  00033	89 41 1c	 mov	 DWORD PTR [ecx+28], eax
  00036	8b 42 20	 mov	 eax, DWORD PTR [edx+32]
  00039	89 41 20	 mov	 DWORD PTR [ecx+32], eax
  0003c	8b 42 24	 mov	 eax, DWORD PTR [edx+36]
  0003f	89 41 24	 mov	 DWORD PTR [ecx+36], eax
  00042	8b 42 28	 mov	 eax, DWORD PTR [edx+40]
  00045	89 41 28	 mov	 DWORD PTR [ecx+40], eax
  00048	8b 42 2c	 mov	 eax, DWORD PTR [edx+44]
  0004b	89 41 2c	 mov	 DWORD PTR [ecx+44], eax
  0004e	8b 42 30	 mov	 eax, DWORD PTR [edx+48]
  00051	89 41 30	 mov	 DWORD PTR [ecx+48], eax
  00054	8b 42 34	 mov	 eax, DWORD PTR [edx+52]
  00057	89 41 34	 mov	 DWORD PTR [ecx+52], eax
  0005a	8b c1		 mov	 eax, ecx
  0005c	5d		 pop	 ebp
  0005d	c2 04 00	 ret	 4
??0i3ClassMeta@@QAE@ABV0@@Z ENDP			; i3ClassMeta::i3ClassMeta
_TEXT	ENDS
; Function compile flags: /Ogtp
; File E:\Proyectos\JuegosOnlineproyectos\PB\pbblow\Piercing Blow Remake\i3Server\include\i3Base\i3ClassMeta.h
;	COMDAT ?getHashCode@i3ClassMeta@@QAEIXZ
_TEXT	SEGMENT
?getHashCode@i3ClassMeta@@QAEIXZ PROC			; i3ClassMeta::getHashCode, COMDAT
; _this$ = ecx

; 112  : 	UINT32			getHashCode(void)						{ return m_HashCode; }

  00000	8b 41 18	 mov	 eax, DWORD PTR [ecx+24]
  00003	c3		 ret	 0
?getHashCode@i3ClassMeta@@QAEIXZ ENDP			; i3ClassMeta::getHashCode
_TEXT	ENDS
; Function compile flags: /Ogtp
; File E:\Proyectos\JuegosOnlineproyectos\PB\pbblow\Piercing Blow Remake\i3Server\include\i3Base\i3ClassMeta.h
;	COMDAT ?GetBaseClassMeta@i3ClassMeta@@QAEPAV1@XZ
_TEXT	SEGMENT
?GetBaseClassMeta@i3ClassMeta@@QAEPAV1@XZ PROC		; i3ClassMeta::GetBaseClassMeta, COMDAT
; _this$ = ecx

; 107  : 	i3ClassMeta *	GetBaseClassMeta(void)					{ return m_pBaseClass; }

  00000	8b 41 1c	 mov	 eax, DWORD PTR [ecx+28]
  00003	c3		 ret	 0
?GetBaseClassMeta@i3ClassMeta@@QAEPAV1@XZ ENDP		; i3ClassMeta::GetBaseClassMeta
_TEXT	ENDS
; Function compile flags: /Ogtp
; File E:\Proyectos\JuegosOnlineproyectos\PB\pbblow\Piercing Blow Remake\i3Server\include\i3Base\i3ClassMeta.h
;	COMDAT ?IsConcreteClass@i3ClassMeta@@QAEHXZ
_TEXT	SEGMENT
?IsConcreteClass@i3ClassMeta@@QAEHXZ PROC		; i3ClassMeta::IsConcreteClass, COMDAT
; _this$ = ecx

; 102  : 	BOOL			IsStyle( UINT32 style)					{ return (m_Style & style) == style; }

  00000	8b 41 14	 mov	 eax, DWORD PTR [ecx+20]
  00003	d1 e8		 shr	 eax, 1
  00005	83 e0 01	 and	 eax, 1

; 105  : 	BOOL			IsConcreteClass(void)					{ return IsStyle( I3_CLASSMETA_STYLE_CONCRETE); }

  00008	c3		 ret	 0
?IsConcreteClass@i3ClassMeta@@QAEHXZ ENDP		; i3ClassMeta::IsConcreteClass
_TEXT	ENDS
; Function compile flags: /Ogtp
; File E:\Proyectos\JuegosOnlineproyectos\PB\pbblow\Piercing Blow Remake\i3Server\include\i3Base\i3ClassMeta.h
;	COMDAT ?IsAbstractClass@i3ClassMeta@@QAEHXZ
_TEXT	SEGMENT
?IsAbstractClass@i3ClassMeta@@QAEHXZ PROC		; i3ClassMeta::IsAbstractClass, COMDAT
; _this$ = ecx

; 102  : 	BOOL			IsStyle( UINT32 style)					{ return (m_Style & style) == style; }

  00000	8b 41 14	 mov	 eax, DWORD PTR [ecx+20]
  00003	83 e0 01	 and	 eax, 1

; 104  : 	BOOL			IsAbstractClass(void)					{ return IsStyle( I3_CLASSMETA_STYLE_ABSTRACT); }

  00006	c3		 ret	 0
?IsAbstractClass@i3ClassMeta@@QAEHXZ ENDP		; i3ClassMeta::IsAbstractClass
_TEXT	ENDS
; Function compile flags: /Ogtp
; File E:\Proyectos\JuegosOnlineproyectos\PB\pbblow\Piercing Blow Remake\i3Server\include\i3Base\i3ClassMeta.h
;	COMDAT ?IsStyle@i3ClassMeta@@QAEHI@Z
_TEXT	SEGMENT
_style$ = 8						; size = 4
?IsStyle@i3ClassMeta@@QAEHI@Z PROC			; i3ClassMeta::IsStyle, COMDAT
; _this$ = ecx

; 102  : 	BOOL			IsStyle( UINT32 style)					{ return (m_Style & style) == style; }

  00000	55		 push	 ebp
  00001	8b ec		 mov	 ebp, esp
  00003	8b 51 14	 mov	 edx, DWORD PTR [ecx+20]
  00006	33 c0		 xor	 eax, eax
  00008	23 55 08	 and	 edx, DWORD PTR _style$[ebp]
  0000b	3b 55 08	 cmp	 edx, DWORD PTR _style$[ebp]
  0000e	0f 94 c0	 sete	 al
  00011	5d		 pop	 ebp
  00012	c2 04 00	 ret	 4
?IsStyle@i3ClassMeta@@QAEHI@Z ENDP			; i3ClassMeta::IsStyle
_TEXT	ENDS
; Function compile flags: /Ogtp
; File E:\Proyectos\JuegosOnlineproyectos\PB\pbblow\Piercing Blow Remake\i3Server\include\i3Base\i3ClassMeta.h
;	COMDAT ?RemoveStyle@i3ClassMeta@@QAEXI@Z
_TEXT	SEGMENT
_style$ = 8						; size = 4
?RemoveStyle@i3ClassMeta@@QAEXI@Z PROC			; i3ClassMeta::RemoveStyle, COMDAT
; _this$ = ecx

; 101  : 	void			RemoveStyle( UINT32 style)				{ m_Style &= ~style; }

  00000	55		 push	 ebp
  00001	8b ec		 mov	 ebp, esp
  00003	8b 45 08	 mov	 eax, DWORD PTR _style$[ebp]
  00006	f7 d0		 not	 eax
  00008	21 41 14	 and	 DWORD PTR [ecx+20], eax
  0000b	5d		 pop	 ebp
  0000c	c2 04 00	 ret	 4
?RemoveStyle@i3ClassMeta@@QAEXI@Z ENDP			; i3ClassMeta::RemoveStyle
_TEXT	ENDS
; Function compile flags: /Ogtp
; File E:\Proyectos\JuegosOnlineproyectos\PB\pbblow\Piercing Blow Remake\i3Server\include\i3Base\i3ClassMeta.h
;	COMDAT ?AddStyle@i3ClassMeta@@QAEXI@Z
_TEXT	SEGMENT
_style$ = 8						; size = 4
?AddStyle@i3ClassMeta@@QAEXI@Z PROC			; i3ClassMeta::AddStyle, COMDAT
; _this$ = ecx

; 100  : 	void			AddStyle( UINT32 style)					{ m_Style |= style; }

  00000	55		 push	 ebp
  00001	8b ec		 mov	 ebp, esp
  00003	8b 45 08	 mov	 eax, DWORD PTR _style$[ebp]
  00006	09 41 14	 or	 DWORD PTR [ecx+20], eax
  00009	5d		 pop	 ebp
  0000a	c2 04 00	 ret	 4
?AddStyle@i3ClassMeta@@QAEXI@Z ENDP			; i3ClassMeta::AddStyle
_TEXT	ENDS
; Function compile flags: /Ogtp
; File E:\Proyectos\JuegosOnlineproyectos\PB\pbblow\Piercing Blow Remake\i3Server\include\i3Base\i3ClassMeta.h
;	COMDAT ?GetStyle@i3ClassMeta@@QAEIXZ
_TEXT	SEGMENT
?GetStyle@i3ClassMeta@@QAEIXZ PROC			; i3ClassMeta::GetStyle, COMDAT
; _this$ = ecx

; 99   : 	UINT32			GetStyle(void)							{ return m_Style; }

  00000	8b 41 14	 mov	 eax, DWORD PTR [ecx+20]
  00003	c3		 ret	 0
?GetStyle@i3ClassMeta@@QAEIXZ ENDP			; i3ClassMeta::GetStyle
_TEXT	ENDS
; Function compile flags: /Ogtp
; File E:\Proyectos\JuegosOnlineproyectos\PB\pbblow\Piercing Blow Remake\i3Server\include\i3Base\i3ClassMeta.h
;	COMDAT ?SetStyle@i3ClassMeta@@QAEXI@Z
_TEXT	SEGMENT
_style$ = 8						; size = 4
?SetStyle@i3ClassMeta@@QAEXI@Z PROC			; i3ClassMeta::SetStyle, COMDAT
; _this$ = ecx

; 98   : 	void			SetStyle( UINT32 style)					{ m_Style = style; }

  00000	55		 push	 ebp
  00001	8b ec		 mov	 ebp, esp
  00003	8b 45 08	 mov	 eax, DWORD PTR _style$[ebp]
  00006	89 41 14	 mov	 DWORD PTR [ecx+20], eax
  00009	5d		 pop	 ebp
  0000a	c2 04 00	 ret	 4
?SetStyle@i3ClassMeta@@QAEXI@Z ENDP			; i3ClassMeta::SetStyle
_TEXT	ENDS
; Function compile flags: /Ogtp
; File E:\Proyectos\JuegosOnlineproyectos\PB\pbblow\Piercing Blow Remake\i3Server\include\i3Base\i3ClassMeta.h
;	COMDAT ?IsExactTypeOf@i3ClassMeta@@QAE_NPAV1@@Z
_TEXT	SEGMENT
_pMeta$ = 8						; size = 4
?IsExactTypeOf@i3ClassMeta@@QAE_NPAV1@@Z PROC		; i3ClassMeta::IsExactTypeOf, COMDAT
; _this$ = ecx

; 89   : 	{

  00000	55		 push	 ebp
  00001	8b ec		 mov	 ebp, esp

; 90   : 		return pMeta == this;

  00003	39 4d 08	 cmp	 DWORD PTR _pMeta$[ebp], ecx
  00006	0f 94 c0	 sete	 al

; 91   : 	}

  00009	5d		 pop	 ebp
  0000a	c2 04 00	 ret	 4
?IsExactTypeOf@i3ClassMeta@@QAE_NPAV1@@Z ENDP		; i3ClassMeta::IsExactTypeOf
_TEXT	ENDS
; Function compile flags: /Ogtp
; File E:\Proyectos\JuegosOnlineproyectos\PB\pbblow\Piercing Blow Remake\i3Server\include\i3Base\i3ClassMeta.h
;	COMDAT ?GetClassNameA@i3ClassMeta@@QAEPADXZ
_TEXT	SEGMENT
?GetClassNameA@i3ClassMeta@@QAEPADXZ PROC		; i3ClassMeta::GetClassNameA, COMDAT
; _this$ = ecx

; 83   : 		return m_pszClassName;

  00000	8b 41 0c	 mov	 eax, DWORD PTR [ecx+12]

; 84   : 	}

  00003	c3		 ret	 0
?GetClassNameA@i3ClassMeta@@QAEPADXZ ENDP		; i3ClassMeta::GetClassNameA
_TEXT	ENDS
; Function compile flags: /Ogtp
; File E:\Proyectos\JuegosOnlineproyectos\PB\pbblow\Piercing Blow Remake\i3Server\include\i3Base\i3ClassMeta.h
;	COMDAT ?GetClassSize@i3ClassMeta@@QAEIXZ
_TEXT	SEGMENT
?GetClassSize@i3ClassMeta@@QAEIXZ PROC			; i3ClassMeta::GetClassSize, COMDAT
; _this$ = ecx

; 78   : 		return m_ClassSize;

  00000	8b 41 08	 mov	 eax, DWORD PTR [ecx+8]

; 79   : 	}

  00003	c3		 ret	 0
?GetClassSize@i3ClassMeta@@QAEIXZ ENDP			; i3ClassMeta::GetClassSize
_TEXT	ENDS
; Function compile flags: /Ogtp
; File E:\Proyectos\JuegosOnlineproyectos\PB\pbblow\Piercing Blow Remake\i3Server\include\i3Base\i3ClassMeta.h
;	COMDAT ?SetMemoryPool@i3ClassMeta@@QAEXPAVi3MemoryPool@@@Z
_TEXT	SEGMENT
_pPool$ = 8						; size = 4
?SetMemoryPool@i3ClassMeta@@QAEXPAVi3MemoryPool@@@Z PROC ; i3ClassMeta::SetMemoryPool, COMDAT
; _this$ = ecx

; 66   : 	void			SetMemoryPool( i3MemoryPool * pPool)		{ m_pPool = pPool; }

  00000	55		 push	 ebp
  00001	8b ec		 mov	 ebp, esp
  00003	8b 45 08	 mov	 eax, DWORD PTR _pPool$[ebp]
  00006	89 41 34	 mov	 DWORD PTR [ecx+52], eax
  00009	5d		 pop	 ebp
  0000a	c2 04 00	 ret	 4
?SetMemoryPool@i3ClassMeta@@QAEXPAVi3MemoryPool@@@Z ENDP ; i3ClassMeta::SetMemoryPool
_TEXT	ENDS
; Function compile flags: /Ogtp
; File E:\Proyectos\JuegosOnlineproyectos\PB\pbblow\Piercing Blow Remake\i3Server\include\i3Base\i3ClassMeta.h
;	COMDAT ?GetMemoryPool@i3ClassMeta@@QAEPAVi3MemoryPool@@XZ
_TEXT	SEGMENT
?GetMemoryPool@i3ClassMeta@@QAEPAVi3MemoryPool@@XZ PROC	; i3ClassMeta::GetMemoryPool, COMDAT
; _this$ = ecx

; 65   : 	i3MemoryPool *	GetMemoryPool(void)							{ return m_pPool; }

  00000	8b 41 34	 mov	 eax, DWORD PTR [ecx+52]
  00003	c3		 ret	 0
?GetMemoryPool@i3ClassMeta@@QAEPAVi3MemoryPool@@XZ ENDP	; i3ClassMeta::GetMemoryPool
_TEXT	ENDS
; Function compile flags: /Ogtp
;	COMDAT ??_Ei3MemoryPool@@UAEPAXI@Z
_TEXT	SEGMENT
__$EHRec$ = -12						; size = 12
___flags$ = 8						; size = 4
??_Ei3MemoryPool@@UAEPAXI@Z PROC			; i3MemoryPool::`vector deleting destructor', COMDAT
; _this$ = ecx
  00000	55		 push	 ebp
  00001	8b ec		 mov	 ebp, esp
  00003	6a ff		 push	 -1
  00005	68 00 00 00 00	 push	 __ehhandler$??_Ei3MemoryPool@@UAEPAXI@Z
  0000a	64 a1 00 00 00
	00		 mov	 eax, DWORD PTR fs:0
  00010	50		 push	 eax
  00011	53		 push	 ebx
  00012	56		 push	 esi
  00013	57		 push	 edi
  00014	a1 00 00 00 00	 mov	 eax, DWORD PTR ___security_cookie
  00019	33 c5		 xor	 eax, ebp
  0001b	50		 push	 eax
  0001c	8d 45 f4	 lea	 eax, DWORD PTR __$EHRec$[ebp]
  0001f	64 a3 00 00 00
	00		 mov	 DWORD PTR fs:0, eax
  00025	8b f1		 mov	 esi, ecx
  00027	8b 45 08	 mov	 eax, DWORD PTR ___flags$[ebp]
  0002a	8b f8		 mov	 edi, eax
  0002c	83 e7 01	 and	 edi, 1
  0002f	a8 02		 test	 al, 2
  00031	74 40		 je	 SHORT $LN2@vector
  00033	68 00 00 00 00	 push	 OFFSET ??1i3MemoryPool@@UAE@XZ ; i3MemoryPool::~i3MemoryPool
  00038	ff 76 fc	 push	 DWORD PTR [esi-4]
  0003b	8d 5e fc	 lea	 ebx, DWORD PTR [esi-4]
  0003e	6a 04		 push	 4
  00040	56		 push	 esi
  00041	e8 00 00 00 00	 call	 ??_M@YGXPAXIIP6EX0@Z@Z
  00046	85 ff		 test	 edi, edi
  00048	74 13		 je	 SHORT $LN3@vector
  0004a	8b 0b		 mov	 ecx, DWORD PTR [ebx]
  0004c	8d 0c 8d 04 00
	00 00		 lea	 ecx, DWORD PTR [ecx*4+4]
  00053	51		 push	 ecx
  00054	53		 push	 ebx
  00055	e8 00 00 00 00	 call	 ??_V@YAXPAXI@Z		; operator delete[]
  0005a	83 c4 08	 add	 esp, 8
$LN3@vector:
  0005d	8b c3		 mov	 eax, ebx
  0005f	8b 4d f4	 mov	 ecx, DWORD PTR __$EHRec$[ebp]
  00062	64 89 0d 00 00
	00 00		 mov	 DWORD PTR fs:0, ecx
  00069	59		 pop	 ecx
  0006a	5f		 pop	 edi
  0006b	5e		 pop	 esi
  0006c	5b		 pop	 ebx
  0006d	8b e5		 mov	 esp, ebp
  0006f	5d		 pop	 ebp
  00070	c2 04 00	 ret	 4
$LN2@vector:
  00073	e8 00 00 00 00	 call	 ??1i3MemoryPool@@UAE@XZ	; i3MemoryPool::~i3MemoryPool
  00078	85 ff		 test	 edi, edi
  0007a	74 0b		 je	 SHORT $LN4@vector
  0007c	6a 04		 push	 4
  0007e	56		 push	 esi
  0007f	e8 00 00 00 00	 call	 ??3@YAXPAXI@Z		; operator delete
  00084	83 c4 08	 add	 esp, 8
$LN4@vector:
  00087	8b c6		 mov	 eax, esi
  00089	8b 4d f4	 mov	 ecx, DWORD PTR __$EHRec$[ebp]
  0008c	64 89 0d 00 00
	00 00		 mov	 DWORD PTR fs:0, ecx
  00093	59		 pop	 ecx
  00094	5f		 pop	 edi
  00095	5e		 pop	 esi
  00096	5b		 pop	 ebx
  00097	8b e5		 mov	 esp, ebp
  00099	5d		 pop	 ebp
  0009a	c2 04 00	 ret	 4
  0009d	cc		 int	 3
  0009e	cc		 int	 3
  0009f	cc		 int	 3
  000a0	cc		 int	 3
  000a1	cc		 int	 3
_TEXT	ENDS
;	COMDAT text$x
text$x	SEGMENT
__ehhandler$??_Ei3MemoryPool@@UAEPAXI@Z:
  00000	90		 npad	 1
  00001	90		 npad	 1
  00002	8b 54 24 08	 mov	 edx, DWORD PTR [esp+8]
  00006	8d 42 0c	 lea	 eax, DWORD PTR [edx+12]
  00009	8b 4a f0	 mov	 ecx, DWORD PTR [edx-16]
  0000c	33 c8		 xor	 ecx, eax
  0000e	e8 00 00 00 00	 call	 @__security_check_cookie@4
  00013	b8 00 00 00 00	 mov	 eax, OFFSET __ehfuncinfo$??_Ei3MemoryPool@@UAEPAXI@Z
  00018	e9 00 00 00 00	 jmp	 ___CxxFrameHandler3
text$x	ENDS
??_Ei3MemoryPool@@UAEPAXI@Z ENDP			; i3MemoryPool::`vector deleting destructor'
; Function compile flags: /Ogtp
;	COMDAT ??_Gi3MemoryPool@@UAEPAXI@Z
_TEXT	SEGMENT
___flags$ = 8						; size = 4
??_Gi3MemoryPool@@UAEPAXI@Z PROC			; i3MemoryPool::`scalar deleting destructor', COMDAT
; _this$ = ecx
  00000	55		 push	 ebp
  00001	8b ec		 mov	 ebp, esp
  00003	56		 push	 esi
  00004	8b f1		 mov	 esi, ecx
  00006	e8 00 00 00 00	 call	 ??1i3MemoryPool@@UAE@XZ	; i3MemoryPool::~i3MemoryPool
  0000b	f6 45 08 01	 test	 BYTE PTR ___flags$[ebp], 1
  0000f	74 0b		 je	 SHORT $LN5@scalar
  00011	6a 04		 push	 4
  00013	56		 push	 esi
  00014	e8 00 00 00 00	 call	 ??3@YAXPAXI@Z		; operator delete
  00019	83 c4 08	 add	 esp, 8
$LN5@scalar:
  0001c	8b c6		 mov	 eax, esi
  0001e	5e		 pop	 esi
  0001f	5d		 pop	 ebp
  00020	c2 04 00	 ret	 4
??_Gi3MemoryPool@@UAEPAXI@Z ENDP			; i3MemoryPool::`scalar deleting destructor'
_TEXT	ENDS
; Function compile flags: /Ogtp
;	COMDAT ??4i3MemoryPool@@QAEAAV0@ABV0@@Z
_TEXT	SEGMENT
___that$ = 8						; size = 4
??4i3MemoryPool@@QAEAAV0@ABV0@@Z PROC			; i3MemoryPool::operator=, COMDAT
; _this$ = ecx
  00000	8b c1		 mov	 eax, ecx
  00002	c2 04 00	 ret	 4
??4i3MemoryPool@@QAEAAV0@ABV0@@Z ENDP			; i3MemoryPool::operator=
_TEXT	ENDS
; Function compile flags: /Ogtp
;	COMDAT ??0i3MemoryPool@@QAE@ABV0@@Z
_TEXT	SEGMENT
___that$ = 8						; size = 4
??0i3MemoryPool@@QAE@ABV0@@Z PROC			; i3MemoryPool::i3MemoryPool, COMDAT
; _this$ = ecx
  00000	c7 01 00 00 00
	00		 mov	 DWORD PTR [ecx], OFFSET ??_7i3MemoryPool@@6B@
  00006	8b c1		 mov	 eax, ecx
  00008	c2 04 00	 ret	 4
??0i3MemoryPool@@QAE@ABV0@@Z ENDP			; i3MemoryPool::i3MemoryPool
_TEXT	ENDS
; Function compile flags: /Ogtp
; File E:\Proyectos\JuegosOnlineproyectos\PB\pbblow\Piercing Blow Remake\i3Server\src\i3Base\i3FixedMemoryPool.cpp
;	COMDAT ?__global_array_delete@@YAXPAXI@Z
_TEXT	SEGMENT
_p$ = 8							; size = 4
_sz$ = 12						; size = 4
?__global_array_delete@@YAXPAXI@Z PROC			; __global_array_delete, COMDAT

  00000	e9 00 00 00 00	 jmp	 ??_V@YAXPAXI@Z		; operator delete[]
?__global_array_delete@@YAXPAXI@Z ENDP			; __global_array_delete
_TEXT	ENDS
; Function compile flags: /Ogtp
; File E:\Proyectos\JuegosOnlineproyectos\PB\pbblow\Piercing Blow Remake\i3Server\src\i3Base\i3FixedMemoryPool.cpp
;	COMDAT ?__global_array_delete@@YAXPAX@Z
_TEXT	SEGMENT
_p$ = 8							; size = 4
?__global_array_delete@@YAXPAX@Z PROC			; __global_array_delete, COMDAT

  00000	e9 00 00 00 00	 jmp	 ??_V@YAXPAX@Z		; operator delete[]
?__global_array_delete@@YAXPAX@Z ENDP			; __global_array_delete
_TEXT	ENDS
; Function compile flags: /Ogtp
; File E:\Proyectos\JuegosOnlineproyectos\PB\pbblow\Piercing Blow Remake\i3Server\src\i3Base\i3FixedMemoryPool.cpp
;	COMDAT ?__global_delete@@YAXPAXI@Z
_TEXT	SEGMENT
_p$ = 8							; size = 4
_sz$ = 12						; size = 4
?__global_delete@@YAXPAXI@Z PROC			; __global_delete, COMDAT

  00000	e9 00 00 00 00	 jmp	 ??3@YAXPAXI@Z		; operator delete
?__global_delete@@YAXPAXI@Z ENDP			; __global_delete
_TEXT	ENDS
; Function compile flags: /Ogtp
; File E:\Proyectos\JuegosOnlineproyectos\PB\pbblow\Piercing Blow Remake\i3Server\src\i3Base\i3FixedMemoryPool.cpp
;	COMDAT ?__empty_global_delete@@YAXPAXI@Z
_TEXT	SEGMENT
___formal$ = 8						; size = 4
___formal$ = 12						; size = 4
?__empty_global_delete@@YAXPAXI@Z PROC			; __empty_global_delete, COMDAT

  00000	c2 00 00	 ret	 0
?__empty_global_delete@@YAXPAXI@Z ENDP			; __empty_global_delete
_TEXT	ENDS
; Function compile flags: /Ogtp
; File E:\Proyectos\JuegosOnlineproyectos\PB\pbblow\Piercing Blow Remake\i3Server\src\i3Base\i3FixedMemoryPool.cpp
;	COMDAT ?__global_delete@@YAXPAX@Z
_TEXT	SEGMENT
_p$ = 8							; size = 4
?__global_delete@@YAXPAX@Z PROC				; __global_delete, COMDAT

  00000	e9 00 00 00 00	 jmp	 ??3@YAXPAX@Z		; operator delete
?__global_delete@@YAXPAX@Z ENDP				; __global_delete
_TEXT	ENDS
; Function compile flags: /Ogtp
; File E:\Proyectos\JuegosOnlineproyectos\PB\pbblow\Piercing Blow Remake\i3Server\src\i3Base\i3FixedMemoryPool.cpp
;	COMDAT ?__empty_global_delete@@YAXPAX@Z
_TEXT	SEGMENT
___formal$ = 8						; size = 4
?__empty_global_delete@@YAXPAX@Z PROC			; __empty_global_delete, COMDAT

  00000	c2 00 00	 ret	 0
?__empty_global_delete@@YAXPAX@Z ENDP			; __empty_global_delete
_TEXT	ENDS
END
