; Listing generated by Microsoft (R) Optimizing Compiler Version 19.50.35727.0 

	TITLE	E:\Proyectos\JuegosOnlineproyectos\PB\pbblow\Piercing Blow Remake\i3Server\Project\I3_DX\i3Server\x86\Release\i3Hash.obj
	.686P
	.XMM
	include listing.inc
	.model	flat

INCLUDELIB LIBCMT
INCLUDELIB OLDNAMES

PUBLIC	?RS@i3Hash@@YAIPADH@Z				; i3Hash::RS
PUBLIC	?JS@i3Hash@@YAIPADH@Z				; i3Hash::JS
PUBLIC	?PJW@i3Hash@@YAIPADH@Z				; i3Hash::PJW
PUBLIC	?ELF@i3Hash@@YAIPADH@Z				; i3Hash::ELF
PUBLIC	?BKDR@i3Hash@@YAIPADH@Z				; i3Hash::BKDR
PUBLIC	?SDBM@i3Hash@@YAIPADH@Z				; i3Hash::SDBM
PUBLIC	?DJB@i3Hash@@YAIPADH@Z				; i3Hash::DJB
PUBLIC	?DEK@i3Hash@@YAIPADH@Z				; i3Hash::DEK
PUBLIC	?BP@i3Hash@@YAIPADH@Z				; i3Hash::BP
PUBLIC	?FNV@i3Hash@@YAIPADH@Z				; i3Hash::FNV
PUBLIC	?AP@i3Hash@@YAIPADH@Z				; i3Hash::AP
; Function compile flags: /Ogtp
; File E:\Proyectos\JuegosOnlineproyectos\PB\pbblow\Piercing Blow Remake\i3Server\src\i3Base\i3Hash.cpp
;	COMDAT ?AP@i3Hash@@YAIPADH@Z
_TEXT	SEGMENT
_pBuf$ = 8						; size = 4
_len$ = 12						; size = 4
?AP@i3Hash@@YAIPADH@Z PROC				; i3Hash::AP, COMDAT

; 216  : {

  00000	55		 push	 ebp
  00001	8b ec		 mov	 ebp, esp
  00003	53		 push	 ebx
  00004	57		 push	 edi

; 217  :    UINT32 hash = 0xAAAAAAAA;
; 218  : 
; 219  :    for( INT32 i = 0; i < len; i++)

  00005	8b 7d 0c	 mov	 edi, DWORD PTR _len$[ebp]
  00008	33 db		 xor	 ebx, ebx
  0000a	ba aa aa aa aa	 mov	 edx, -1431655766	; aaaaaaaaH
  0000f	85 ff		 test	 edi, edi
  00011	7e 31		 jle	 SHORT $LN12@AP
  00013	56		 push	 esi
$LL4@AP:

; 220  :    {
; 221  :       hash ^= ((i & 1) == 0) ? (  (hash <<  7) ^ pBuf[i] ^ (hash >> 3)) :

  00014	8b 45 08	 mov	 eax, DWORD PTR _pBuf$[ebp]
  00017	8b ca		 mov	 ecx, edx
  00019	0f be 34 03	 movsx	 esi, BYTE PTR [ebx+eax]
  0001d	8b c2		 mov	 eax, edx
  0001f	f6 c3 01	 test	 bl, 1
  00022	75 0c		 jne	 SHORT $LN6@AP
  00024	c1 e0 07	 shl	 eax, 7
  00027	c1 e9 03	 shr	 ecx, 3
  0002a	33 c1		 xor	 eax, ecx
  0002c	33 c6		 xor	 eax, esi
  0002e	eb 0c		 jmp	 SHORT $LN7@AP
$LN6@AP:
  00030	c1 e0 0b	 shl	 eax, 11			; 0000000bH
  00033	c1 e9 05	 shr	 ecx, 5
  00036	33 c1		 xor	 eax, ecx
  00038	33 c6		 xor	 eax, esi
  0003a	f7 d0		 not	 eax
$LN7@AP:
  0003c	43		 inc	 ebx
  0003d	33 d0		 xor	 edx, eax
  0003f	3b df		 cmp	 ebx, edi
  00041	7c d1		 jl	 SHORT $LL4@AP

; 217  :    UINT32 hash = 0xAAAAAAAA;
; 218  : 
; 219  :    for( INT32 i = 0; i < len; i++)

  00043	5e		 pop	 esi
$LN12@AP:
  00044	5f		 pop	 edi

; 222  :                                (~((hash << 11) ^ pBuf[i] ^ (hash >> 5)));
; 223  :    }
; 224  : 
; 225  :    return hash;
; 226  : }

  00045	8b c2		 mov	 eax, edx
  00047	5b		 pop	 ebx
  00048	5d		 pop	 ebp
  00049	c3		 ret	 0
?AP@i3Hash@@YAIPADH@Z ENDP				; i3Hash::AP
_TEXT	ENDS
; Function compile flags: /Ogtp
; File E:\Proyectos\JuegosOnlineproyectos\PB\pbblow\Piercing Blow Remake\i3Server\src\i3Base\i3Hash.cpp
;	COMDAT ?FNV@i3Hash@@YAIPADH@Z
_TEXT	SEGMENT
_pBuf$ = 8						; size = 4
_len$ = 12						; size = 4
?FNV@i3Hash@@YAIPADH@Z PROC				; i3Hash::FNV, COMDAT

; 188  : {

  00000	55		 push	 ebp
  00001	8b ec		 mov	 ebp, esp
  00003	56		 push	 esi

; 189  :    const UINT32 fnv_prime = 0x811C9DC5;
; 190  : 
; 191  :    UINT32 hash = 0;
; 192  : 
; 193  :    for( INT32 i = 0; i < len; i++)

  00004	8b 75 0c	 mov	 esi, DWORD PTR _len$[ebp]
  00007	33 c0		 xor	 eax, eax
  00009	33 c9		 xor	 ecx, ecx
  0000b	57		 push	 edi
  0000c	8b 7d 08	 mov	 edi, DWORD PTR _pBuf$[ebp]
  0000f	85 f6		 test	 esi, esi
  00011	7e 11		 jle	 SHORT $LN3@FNV
$LL4@FNV:

; 194  :    {
; 195  :       hash *= fnv_prime;
; 196  :       hash ^= pBuf[i];

  00013	0f be 14 0f	 movsx	 edx, BYTE PTR [edi+ecx]
  00017	41		 inc	 ecx
  00018	69 c0 c5 9d 1c
	81		 imul	 eax, eax, -2128831035
  0001e	33 c2		 xor	 eax, edx
  00020	3b ce		 cmp	 ecx, esi
  00022	7c ef		 jl	 SHORT $LL4@FNV
$LN3@FNV:
  00024	5f		 pop	 edi

; 197  :    }
; 198  : 
; 199  :    return hash;
; 200  : }

  00025	5e		 pop	 esi
  00026	5d		 pop	 ebp
  00027	c3		 ret	 0
?FNV@i3Hash@@YAIPADH@Z ENDP				; i3Hash::FNV
_TEXT	ENDS
; Function compile flags: /Ogtp
; File E:\Proyectos\JuegosOnlineproyectos\PB\pbblow\Piercing Blow Remake\i3Server\src\i3Base\i3Hash.cpp
;	COMDAT ?BP@i3Hash@@YAIPADH@Z
_TEXT	SEGMENT
_pBuf$ = 8						; size = 4
_len$ = 12						; size = 4
?BP@i3Hash@@YAIPADH@Z PROC				; i3Hash::BP, COMDAT

; 174  : {

  00000	55		 push	 ebp
  00001	8b ec		 mov	 ebp, esp
  00003	56		 push	 esi

; 175  :    UINT32 hash = 0;
; 176  : 
; 177  :    for( INT32 i = 0; i < len; i++)

  00004	8b 75 0c	 mov	 esi, DWORD PTR _len$[ebp]
  00007	33 c0		 xor	 eax, eax
  00009	33 d2		 xor	 edx, edx
  0000b	57		 push	 edi
  0000c	8b 7d 08	 mov	 edi, DWORD PTR _pBuf$[ebp]
  0000f	85 f6		 test	 esi, esi
  00011	7e 0e		 jle	 SHORT $LN3@BP
$LL4@BP:

; 178  :    {
; 179  :       hash = hash << 7 ^ pBuf[i];

  00013	0f be 0c 17	 movsx	 ecx, BYTE PTR [edi+edx]
  00017	42		 inc	 edx
  00018	c1 e0 07	 shl	 eax, 7
  0001b	33 c1		 xor	 eax, ecx
  0001d	3b d6		 cmp	 edx, esi
  0001f	7c f2		 jl	 SHORT $LL4@BP
$LN3@BP:
  00021	5f		 pop	 edi

; 180  :    }
; 181  : 
; 182  :    return hash;
; 183  : }

  00022	5e		 pop	 esi
  00023	5d		 pop	 ebp
  00024	c3		 ret	 0
?BP@i3Hash@@YAIPADH@Z ENDP				; i3Hash::BP
_TEXT	ENDS
; Function compile flags: /Ogtp
; File E:\Proyectos\JuegosOnlineproyectos\PB\pbblow\Piercing Blow Remake\i3Server\src\i3Base\i3Hash.cpp
;	COMDAT ?DEK@i3Hash@@YAIPADH@Z
_TEXT	SEGMENT
_pBuf$ = 8						; size = 4
_len$ = 12						; size = 4
?DEK@i3Hash@@YAIPADH@Z PROC				; i3Hash::DEK, COMDAT

; 160  : {

  00000	55		 push	 ebp
  00001	8b ec		 mov	 ebp, esp
  00003	53		 push	 ebx
  00004	8b 5d 08	 mov	 ebx, DWORD PTR _pBuf$[ebp]
  00007	56		 push	 esi
  00008	57		 push	 edi

; 161  :    UINT32 hash = (UINT32) len;

  00009	8b 7d 0c	 mov	 edi, DWORD PTR _len$[ebp]
  0000c	33 f6		 xor	 esi, esi
  0000e	8b c7		 mov	 eax, edi

; 162  : 
; 163  :    for( INT32 i = 0; i < len; i++)

  00010	85 ff		 test	 edi, edi
  00012	7e 15		 jle	 SHORT $LN3@DEK
$LL4@DEK:

; 164  :    {
; 165  :       hash = ((hash << 5) ^ (hash >> 27)) ^ pBuf[i];

  00014	0f be 14 33	 movsx	 edx, BYTE PTR [ebx+esi]
  00018	8b c8		 mov	 ecx, eax
  0001a	c1 e9 1b	 shr	 ecx, 27			; 0000001bH
  0001d	46		 inc	 esi
  0001e	33 d1		 xor	 edx, ecx
  00020	c1 e0 05	 shl	 eax, 5
  00023	33 c2		 xor	 eax, edx
  00025	3b f7		 cmp	 esi, edi
  00027	7c eb		 jl	 SHORT $LL4@DEK
$LN3@DEK:
  00029	5f		 pop	 edi

; 166  :    }
; 167  : 
; 168  :    return hash;
; 169  : }

  0002a	5e		 pop	 esi
  0002b	5b		 pop	 ebx
  0002c	5d		 pop	 ebp
  0002d	c3		 ret	 0
?DEK@i3Hash@@YAIPADH@Z ENDP				; i3Hash::DEK
_TEXT	ENDS
; Function compile flags: /Ogtp
; File E:\Proyectos\JuegosOnlineproyectos\PB\pbblow\Piercing Blow Remake\i3Server\src\i3Base\i3Hash.cpp
;	COMDAT ?DJB@i3Hash@@YAIPADH@Z
_TEXT	SEGMENT
_pBuf$ = 8						; size = 4
_len$ = 12						; size = 4
?DJB@i3Hash@@YAIPADH@Z PROC				; i3Hash::DJB, COMDAT

; 142  : {

  00000	55		 push	 ebp
  00001	8b ec		 mov	 ebp, esp
  00003	53		 push	 ebx
  00004	8b 5d 08	 mov	 ebx, DWORD PTR _pBuf$[ebp]

; 143  :    UINT32 hash = 5381;

  00007	33 c9		 xor	 ecx, ecx
  00009	56		 push	 esi
  0000a	57		 push	 edi

; 144  : 
; 145  :    for( INT32 i = 0; i < len; i++)

  0000b	8b 7d 0c	 mov	 edi, DWORD PTR _len$[ebp]
  0000e	be 05 15 00 00	 mov	 esi, 5381		; 00001505H
  00013	85 ff		 test	 edi, edi
  00015	7e 12		 jle	 SHORT $LN11@DJB
$LL4@DJB:

; 146  :    {
; 147  :       hash = ((hash << 5) + hash) + pBuf[i];

  00017	0f be 14 0b	 movsx	 edx, BYTE PTR [ebx+ecx]
  0001b	8b c6		 mov	 eax, esi
  0001d	c1 e0 05	 shl	 eax, 5
  00020	41		 inc	 ecx
  00021	03 f0		 add	 esi, eax
  00023	03 f2		 add	 esi, edx
  00025	3b cf		 cmp	 ecx, edi
  00027	7c ee		 jl	 SHORT $LL4@DJB
$LN11@DJB:
  00029	5f		 pop	 edi

; 148  :    }
; 149  : 
; 150  :    return hash;
; 151  : }

  0002a	8b c6		 mov	 eax, esi
  0002c	5e		 pop	 esi
  0002d	5b		 pop	 ebx
  0002e	5d		 pop	 ebp
  0002f	c3		 ret	 0
?DJB@i3Hash@@YAIPADH@Z ENDP				; i3Hash::DJB
_TEXT	ENDS
; Function compile flags: /Ogtp
; File E:\Proyectos\JuegosOnlineproyectos\PB\pbblow\Piercing Blow Remake\i3Server\src\i3Base\i3Hash.cpp
;	COMDAT ?SDBM@i3Hash@@YAIPADH@Z
_TEXT	SEGMENT
_pBuf$ = 8						; size = 4
_len$ = 12						; size = 4
?SDBM@i3Hash@@YAIPADH@Z PROC				; i3Hash::SDBM, COMDAT

; 122  : {

  00000	55		 push	 ebp
  00001	8b ec		 mov	 ebp, esp
  00003	56		 push	 esi

; 123  :    UINT32 hash = 0;
; 124  : 
; 125  :    for( INT32 i = 0; i < len; i++)

  00004	8b 75 0c	 mov	 esi, DWORD PTR _len$[ebp]
  00007	33 c0		 xor	 eax, eax
  00009	33 c9		 xor	 ecx, ecx
  0000b	57		 push	 edi
  0000c	8b 7d 08	 mov	 edi, DWORD PTR _pBuf$[ebp]
  0000f	85 f6		 test	 esi, esi
  00011	7e 11		 jle	 SHORT $LN3@SDBM
$LL4@SDBM:

; 126  :    {
; 127  :       hash = pBuf[i] + (hash << 6) + (hash << 16) - hash;

  00013	0f be 14 0f	 movsx	 edx, BYTE PTR [edi+ecx]
  00017	41		 inc	 ecx
  00018	69 c0 3f 00 01
	00		 imul	 eax, eax, 65599
  0001e	03 c2		 add	 eax, edx
  00020	3b ce		 cmp	 ecx, esi
  00022	7c ef		 jl	 SHORT $LL4@SDBM
$LN3@SDBM:
  00024	5f		 pop	 edi

; 128  :    }
; 129  : 
; 130  :    return hash;
; 131  : }

  00025	5e		 pop	 esi
  00026	5d		 pop	 ebp
  00027	c3		 ret	 0
?SDBM@i3Hash@@YAIPADH@Z ENDP				; i3Hash::SDBM
_TEXT	ENDS
; Function compile flags: /Ogtp
; File E:\Proyectos\JuegosOnlineproyectos\PB\pbblow\Piercing Blow Remake\i3Server\src\i3Base\i3Hash.cpp
;	COMDAT ?BKDR@i3Hash@@YAIPADH@Z
_TEXT	SEGMENT
_pBuf$ = 8						; size = 4
_len$ = 12						; size = 4
?BKDR@i3Hash@@YAIPADH@Z PROC				; i3Hash::BKDR, COMDAT

; 102  : {

  00000	55		 push	 ebp
  00001	8b ec		 mov	 ebp, esp
  00003	56		 push	 esi

; 103  :    UINT32 seed = 131; // 31 131 1313 13131 131313 etc..
; 104  :    UINT32 hash = 0;
; 105  : 
; 106  :    for( INT32 i = 0; i < len; i++)

  00004	8b 75 0c	 mov	 esi, DWORD PTR _len$[ebp]
  00007	33 c0		 xor	 eax, eax
  00009	33 c9		 xor	 ecx, ecx
  0000b	57		 push	 edi
  0000c	8b 7d 08	 mov	 edi, DWORD PTR _pBuf$[ebp]
  0000f	85 f6		 test	 esi, esi
  00011	7e 11		 jle	 SHORT $LN3@BKDR
$LL4@BKDR:

; 107  :    {
; 108  :       hash = (hash * seed) + pBuf[i];

  00013	0f be 14 0f	 movsx	 edx, BYTE PTR [edi+ecx]
  00017	41		 inc	 ecx
  00018	69 c0 83 00 00
	00		 imul	 eax, eax, 131
  0001e	03 c2		 add	 eax, edx
  00020	3b ce		 cmp	 ecx, esi
  00022	7c ef		 jl	 SHORT $LL4@BKDR
$LN3@BKDR:
  00024	5f		 pop	 edi

; 109  :    }
; 110  : 
; 111  :    return hash;
; 112  : }

  00025	5e		 pop	 esi
  00026	5d		 pop	 ebp
  00027	c3		 ret	 0
?BKDR@i3Hash@@YAIPADH@Z ENDP				; i3Hash::BKDR
_TEXT	ENDS
; Function compile flags: /Ogtp
; File E:\Proyectos\JuegosOnlineproyectos\PB\pbblow\Piercing Blow Remake\i3Server\src\i3Base\i3Hash.cpp
;	COMDAT ?ELF@i3Hash@@YAIPADH@Z
_TEXT	SEGMENT
_pBuf$ = 8						; size = 4
_len$ = 12						; size = 4
?ELF@i3Hash@@YAIPADH@Z PROC				; i3Hash::ELF, COMDAT

; 76   : {

  00000	55		 push	 ebp
  00001	8b ec		 mov	 ebp, esp
  00003	53		 push	 ebx
  00004	8b 5d 08	 mov	 ebx, DWORD PTR _pBuf$[ebp]

; 77   :    UINT32 hash = 0;

  00007	33 c0		 xor	 eax, eax
  00009	56		 push	 esi
  0000a	57		 push	 edi

; 78   :    UINT32 x    = 0;
; 79   : 
; 80   :    for( INT32 i = 0; i < len; i++)

  0000b	8b 7d 0c	 mov	 edi, DWORD PTR _len$[ebp]
  0000e	33 f6		 xor	 esi, esi
  00010	85 ff		 test	 edi, edi
  00012	7e 23		 jle	 SHORT $LN3@ELF
$LL4@ELF:

; 81   :    {
; 82   :       hash = (hash << 4) + pBuf[i];

  00014	0f be 0c 33	 movsx	 ecx, BYTE PTR [ebx+esi]
  00018	c1 e0 04	 shl	 eax, 4
  0001b	03 c1		 add	 eax, ecx

; 83   : 
; 84   :       if((x = hash & 0xF0000000L) != 0)

  0001d	8b d0		 mov	 edx, eax
  0001f	81 e2 00 00 00
	f0		 and	 edx, -268435456		; f0000000H
  00025	74 07		 je	 SHORT $LN5@ELF

; 85   :       {
; 86   :          hash ^= (x >> 24);

  00027	8b ca		 mov	 ecx, edx
  00029	c1 e9 18	 shr	 ecx, 24			; 00000018H
  0002c	33 c1		 xor	 eax, ecx
$LN5@ELF:

; 87   :       }
; 88   :       hash &= ~x;

  0002e	f7 d2		 not	 edx
  00030	46		 inc	 esi
  00031	23 c2		 and	 eax, edx
  00033	3b f7		 cmp	 esi, edi
  00035	7c dd		 jl	 SHORT $LL4@ELF
$LN3@ELF:
  00037	5f		 pop	 edi

; 89   :    }
; 90   : 
; 91   :    return hash;
; 92   : }

  00038	5e		 pop	 esi
  00039	5b		 pop	 ebx
  0003a	5d		 pop	 ebp
  0003b	c3		 ret	 0
?ELF@i3Hash@@YAIPADH@Z ENDP				; i3Hash::ELF
_TEXT	ENDS
; Function compile flags: /Ogtp
; File E:\Proyectos\JuegosOnlineproyectos\PB\pbblow\Piercing Blow Remake\i3Server\src\i3Base\i3Hash.cpp
;	COMDAT ?PJW@i3Hash@@YAIPADH@Z
_TEXT	SEGMENT
_pBuf$ = 8						; size = 4
_len$ = 12						; size = 4
?PJW@i3Hash@@YAIPADH@Z PROC				; i3Hash::PJW, COMDAT

; 49   : {

  00000	55		 push	 ebp
  00001	8b ec		 mov	 ebp, esp
  00003	56		 push	 esi

; 50   :    UINT32 BitsInUnsignedInt = (UINT32) (sizeof(UINT32) * 8);
; 51   :    UINT32 ThreeQuarters     = (UINT32) ((BitsInUnsignedInt  * 3) / 4);
; 52   :    UINT32 OneEighth         = (UINT32) (BitsInUnsignedInt / 8);
; 53   :    UINT32 HighBits          = (UINT32) (0xFFFFFFFF) << (BitsInUnsignedInt - OneEighth);
; 54   :    UINT32 hash              = 0;
; 55   :    UINT32 test              = 0;
; 56   : 
; 57   :    for( INT32 i = 0; i < len; i++)

  00004	8b 75 0c	 mov	 esi, DWORD PTR _len$[ebp]
  00007	33 c9		 xor	 ecx, ecx
  00009	33 d2		 xor	 edx, edx
  0000b	57		 push	 edi
  0000c	8b 7d 08	 mov	 edi, DWORD PTR _pBuf$[ebp]
  0000f	85 f6		 test	 esi, esi
  00011	7e 22		 jle	 SHORT $LN12@PJW
$LL4@PJW:

; 58   :    {
; 59   :       hash = (hash << OneEighth) + pBuf[i];

  00013	0f be 04 17	 movsx	 eax, BYTE PTR [edi+edx]
  00017	c1 e1 04	 shl	 ecx, 4
  0001a	03 c8		 add	 ecx, eax

; 60   : 
; 61   :       if((test = hash & HighBits)  != 0)

  0001c	8b c1		 mov	 eax, ecx
  0001e	25 00 00 00 f0	 and	 eax, -268435456		; f0000000H
  00023	74 0b		 je	 SHORT $LN2@PJW

; 62   :       {
; 63   :          hash = (( hash ^ (test >> ThreeQuarters)) & (~HighBits));

  00025	c1 e8 18	 shr	 eax, 24			; 00000018H
  00028	33 c8		 xor	 ecx, eax
  0002a	81 e1 ff ff ff
	0f		 and	 ecx, 268435455		; 0fffffffH
$LN2@PJW:

; 50   :    UINT32 BitsInUnsignedInt = (UINT32) (sizeof(UINT32) * 8);
; 51   :    UINT32 ThreeQuarters     = (UINT32) ((BitsInUnsignedInt  * 3) / 4);
; 52   :    UINT32 OneEighth         = (UINT32) (BitsInUnsignedInt / 8);
; 53   :    UINT32 HighBits          = (UINT32) (0xFFFFFFFF) << (BitsInUnsignedInt - OneEighth);
; 54   :    UINT32 hash              = 0;
; 55   :    UINT32 test              = 0;
; 56   : 
; 57   :    for( INT32 i = 0; i < len; i++)

  00030	42		 inc	 edx
  00031	3b d6		 cmp	 edx, esi
  00033	7c de		 jl	 SHORT $LL4@PJW
$LN12@PJW:
  00035	5f		 pop	 edi

; 64   :       }
; 65   :    }
; 66   : 
; 67   :    return hash;
; 68   : }

  00036	8b c1		 mov	 eax, ecx
  00038	5e		 pop	 esi
  00039	5d		 pop	 ebp
  0003a	c3		 ret	 0
?PJW@i3Hash@@YAIPADH@Z ENDP				; i3Hash::PJW
_TEXT	ENDS
; Function compile flags: /Ogtp
; File E:\Proyectos\JuegosOnlineproyectos\PB\pbblow\Piercing Blow Remake\i3Server\src\i3Base\i3Hash.cpp
;	COMDAT ?JS@i3Hash@@YAIPADH@Z
_TEXT	SEGMENT
_pBuf$ = 8						; size = 4
_len$ = 12						; size = 4
?JS@i3Hash@@YAIPADH@Z PROC				; i3Hash::JS, COMDAT

; 30   : {

  00000	55		 push	 ebp
  00001	8b ec		 mov	 ebp, esp
  00003	53		 push	 ebx
  00004	8b 5d 08	 mov	 ebx, DWORD PTR _pBuf$[ebp]

; 31   :    UINT32 hash = 1315423911;

  00007	b8 a7 c6 67 4e	 mov	 eax, 1315423911		; 4e67c6a7H
  0000c	56		 push	 esi
  0000d	57		 push	 edi

; 32   : 
; 33   :    for( INT32 i = 0; i < len; i++)

  0000e	8b 7d 0c	 mov	 edi, DWORD PTR _len$[ebp]
  00011	33 f6		 xor	 esi, esi
  00013	85 ff		 test	 edi, edi
  00015	7e 19		 jle	 SHORT $LN3@JS
$LL4@JS:

; 34   :    {
; 35   :       hash ^= ((hash << 5) + pBuf[i] + (hash >> 2));

  00017	0f be 14 33	 movsx	 edx, BYTE PTR [ebx+esi]
  0001b	8b c8		 mov	 ecx, eax
  0001d	c1 e1 05	 shl	 ecx, 5
  00020	46		 inc	 esi
  00021	03 d1		 add	 edx, ecx
  00023	8b c8		 mov	 ecx, eax
  00025	c1 e9 02	 shr	 ecx, 2
  00028	03 d1		 add	 edx, ecx
  0002a	33 c2		 xor	 eax, edx
  0002c	3b f7		 cmp	 esi, edi
  0002e	7c e7		 jl	 SHORT $LL4@JS
$LN3@JS:
  00030	5f		 pop	 edi

; 36   :    }
; 37   : 
; 38   :    return hash;
; 39   : }

  00031	5e		 pop	 esi
  00032	5b		 pop	 ebx
  00033	5d		 pop	 ebp
  00034	c3		 ret	 0
?JS@i3Hash@@YAIPADH@Z ENDP				; i3Hash::JS
_TEXT	ENDS
; Function compile flags: /Ogtp
; File E:\Proyectos\JuegosOnlineproyectos\PB\pbblow\Piercing Blow Remake\i3Server\src\i3Base\i3Hash.cpp
;	COMDAT ?RS@i3Hash@@YAIPADH@Z
_TEXT	SEGMENT
_pBuf$ = 8						; size = 4
_len$ = 12						; size = 4
?RS@i3Hash@@YAIPADH@Z PROC				; i3Hash::RS, COMDAT

; 11   : {

  00000	55		 push	 ebp
  00001	8b ec		 mov	 ebp, esp
  00003	53		 push	 ebx
  00004	8b 5d 08	 mov	 ebx, DWORD PTR _pBuf$[ebp]

; 12   : 	UINT32 b    = 378551;
; 13   : 	UINT32 a    = 63689;
; 14   : 	UINT32 hash = 0;

  00007	33 c0		 xor	 eax, eax
  00009	56		 push	 esi
  0000a	57		 push	 edi

; 15   : 
; 16   : 	for( INT32 i = 0; i < len; i++)

  0000b	8b 7d 0c	 mov	 edi, DWORD PTR _len$[ebp]
  0000e	33 d2		 xor	 edx, edx
  00010	be c9 f8 00 00	 mov	 esi, 63689		; 0000f8c9H
  00015	85 ff		 test	 edi, edi
  00017	7e 1b		 jle	 SHORT $LN3@RS
  00019	8d a4 24 00 00
	00 00		 npad	 7
$LL4@RS:

; 17   : 	{
; 18   : 		hash = hash * a + pBuf[i];

  00020	0f be 0c 13	 movsx	 ecx, BYTE PTR [ebx+edx]
  00024	42		 inc	 edx
  00025	0f af c6	 imul	 eax, esi

; 19   : 		a    = a * b;

  00028	69 f6 b7 c6 05
	00		 imul	 esi, esi, 378551
  0002e	03 c1		 add	 eax, ecx
  00030	3b d7		 cmp	 edx, edi
  00032	7c ec		 jl	 SHORT $LL4@RS
$LN3@RS:
  00034	5f		 pop	 edi

; 20   : 	}
; 21   : 
; 22   : 	return hash;
; 23   : }

  00035	5e		 pop	 esi
  00036	5b		 pop	 ebx
  00037	5d		 pop	 ebp
  00038	c3		 ret	 0
?RS@i3Hash@@YAIPADH@Z ENDP				; i3Hash::RS
_TEXT	ENDS
END
