; Listing generated by Microsoft (R) Optimizing Compiler Version 19.50.35727.0 

	TITLE	E:\Proyectos\JuegosOnlineproyectos\PB\pbblow\Piercing Blow Remake\i3Server\Project\I3_DX\i3Server\x86\Release\i3IniParser.obj
	.686P
	.XMM
	include listing.inc
	.model	flat

INCLUDELIB LIBCMT
INCLUDELIB OLDNAMES

PUBLIC	?s_pClassMetai3IniParser@i3IniParser@@2PAVi3ClassMeta@@A ; i3IniParser::s_pClassMetai3IniParser
PUBLIC	?CreateInstance@?$i3MetaTemplate@Vi3IniParser@@@@UAEPAVi3ElementBase@@W4I3_CLASSMETA_TYPE@@@Z ; i3MetaTemplate<i3IniParser>::CreateInstance
PUBLIC	?BindInstance@?$i3MetaTemplate@Vi3IniParser@@@@UAEPAVi3ElementBase@@PAXW4I3_CLASSMETA_TYPE@@@Z ; i3MetaTemplate<i3IniParser>::BindInstance
PUBLIC	??_7?$i3MetaTemplate@Vi3IniParser@@@@6B@	; i3MetaTemplate<i3IniParser>::`vftable'
PUBLIC	??_G?$i3MetaTemplate@Vi3IniParser@@@@UAEPAXI@Z	; i3MetaTemplate<i3IniParser>::`scalar deleting destructor'
PUBLIC	??_C@_0O@OCDFBOHM@i3ElementBase@		; `string'
PUBLIC	??_C@_0M@PAADBEPC@i3IniParser@			; `string'
PUBLIC	__Avx2WmemEnabledWeakValue
PUBLIC	??_R0?AVi3ClassMeta@@@8				; i3ClassMeta `RTTI Type Descriptor'
PUBLIC	??_R3i3ClassMeta@@8				; i3ClassMeta::`RTTI Class Hierarchy Descriptor'
PUBLIC	??_R2i3ClassMeta@@8				; i3ClassMeta::`RTTI Base Class Array'
PUBLIC	??_R1A@?0A@EA@i3ClassMeta@@8			; i3ClassMeta::`RTTI Base Class Descriptor at (0,-1,0,64)'
PUBLIC	??_R4?$i3MetaTemplate@Vi3IniParser@@@@6B@	; i3MetaTemplate<i3IniParser>::`RTTI Complete Object Locator'
PUBLIC	??_R0?AV?$i3MetaTemplate@Vi3IniParser@@@@@8	; i3MetaTemplate<i3IniParser> `RTTI Type Descriptor'
PUBLIC	??_R3?$i3MetaTemplate@Vi3IniParser@@@@8		; i3MetaTemplate<i3IniParser>::`RTTI Class Hierarchy Descriptor'
PUBLIC	??_R2?$i3MetaTemplate@Vi3IniParser@@@@8		; i3MetaTemplate<i3IniParser>::`RTTI Base Class Array'
PUBLIC	??_R1A@?0A@EA@?$i3MetaTemplate@Vi3IniParser@@@@8 ; i3MetaTemplate<i3IniParser>::`RTTI Base Class Descriptor at (0,-1,0,64)'
EXTRN	??_7type_info@@6B@:QWORD			; type_info::`vftable'
EXTRN	??_E?$i3MetaTemplate@Vi3IniParser@@@@UAEPAXI@Z:PROC ; i3MetaTemplate<i3IniParser>::`vector deleting destructor'
;	COMDAT __Avx2WmemEnabledWeakValue
_BSS	SEGMENT
__Avx2WmemEnabledWeakValue DD 01H DUP (?)
_BSS	ENDS
;	COMDAT ??_R1A@?0A@EA@?$i3MetaTemplate@Vi3IniParser@@@@8
rdata$r	SEGMENT
??_R1A@?0A@EA@?$i3MetaTemplate@Vi3IniParser@@@@8 DD FLAT:??_R0?AV?$i3MetaTemplate@Vi3IniParser@@@@@8 ; i3MetaTemplate<i3IniParser>::`RTTI Base Class Descriptor at (0,-1,0,64)'
	DD	01H
	DD	00H
	DD	0ffffffffH
	DD	00H
	DD	040H
	DD	FLAT:??_R3?$i3MetaTemplate@Vi3IniParser@@@@8
rdata$r	ENDS
;	COMDAT ??_R2?$i3MetaTemplate@Vi3IniParser@@@@8
rdata$r	SEGMENT
??_R2?$i3MetaTemplate@Vi3IniParser@@@@8 DD FLAT:??_R1A@?0A@EA@?$i3MetaTemplate@Vi3IniParser@@@@8 ; i3MetaTemplate<i3IniParser>::`RTTI Base Class Array'
	DD	FLAT:??_R1A@?0A@EA@i3ClassMeta@@8
rdata$r	ENDS
;	COMDAT ??_R3?$i3MetaTemplate@Vi3IniParser@@@@8
rdata$r	SEGMENT
??_R3?$i3MetaTemplate@Vi3IniParser@@@@8 DD 00H		; i3MetaTemplate<i3IniParser>::`RTTI Class Hierarchy Descriptor'
	DD	00H
	DD	02H
	DD	FLAT:??_R2?$i3MetaTemplate@Vi3IniParser@@@@8
rdata$r	ENDS
;	COMDAT ??_R0?AV?$i3MetaTemplate@Vi3IniParser@@@@@8
data$rs	SEGMENT
??_R0?AV?$i3MetaTemplate@Vi3IniParser@@@@@8 DD FLAT:??_7type_info@@6B@ ; i3MetaTemplate<i3IniParser> `RTTI Type Descriptor'
	DD	00H
	DB	'.?AV?$i3MetaTemplate@Vi3IniParser@@@@', 00H
data$rs	ENDS
;	COMDAT ??_R4?$i3MetaTemplate@Vi3IniParser@@@@6B@
rdata$r	SEGMENT
??_R4?$i3MetaTemplate@Vi3IniParser@@@@6B@ DD 00H	; i3MetaTemplate<i3IniParser>::`RTTI Complete Object Locator'
	DD	00H
	DD	00H
	DD	FLAT:??_R0?AV?$i3MetaTemplate@Vi3IniParser@@@@@8
	DD	FLAT:??_R3?$i3MetaTemplate@Vi3IniParser@@@@8
rdata$r	ENDS
;	COMDAT ??_R1A@?0A@EA@i3ClassMeta@@8
rdata$r	SEGMENT
??_R1A@?0A@EA@i3ClassMeta@@8 DD FLAT:??_R0?AVi3ClassMeta@@@8 ; i3ClassMeta::`RTTI Base Class Descriptor at (0,-1,0,64)'
	DD	00H
	DD	00H
	DD	0ffffffffH
	DD	00H
	DD	040H
	DD	FLAT:??_R3i3ClassMeta@@8
rdata$r	ENDS
;	COMDAT ??_R2i3ClassMeta@@8
rdata$r	SEGMENT
??_R2i3ClassMeta@@8 DD FLAT:??_R1A@?0A@EA@i3ClassMeta@@8 ; i3ClassMeta::`RTTI Base Class Array'
rdata$r	ENDS
;	COMDAT ??_R3i3ClassMeta@@8
rdata$r	SEGMENT
??_R3i3ClassMeta@@8 DD 00H				; i3ClassMeta::`RTTI Class Hierarchy Descriptor'
	DD	00H
	DD	01H
	DD	FLAT:??_R2i3ClassMeta@@8
rdata$r	ENDS
;	COMDAT ??_R0?AVi3ClassMeta@@@8
data$rs	SEGMENT
??_R0?AVi3ClassMeta@@@8 DD FLAT:??_7type_info@@6B@	; i3ClassMeta `RTTI Type Descriptor'
	DD	00H
	DB	'.?AVi3ClassMeta@@', 00H
data$rs	ENDS
;	COMDAT ??_C@_0M@PAADBEPC@i3IniParser@
CONST	SEGMENT
??_C@_0M@PAADBEPC@i3IniParser@ DB 'i3IniParser', 00H	; `string'
CONST	ENDS
;	COMDAT ??_C@_0O@OCDFBOHM@i3ElementBase@
CONST	SEGMENT
??_C@_0O@OCDFBOHM@i3ElementBase@ DB 'i3ElementBase', 00H ; `string'
CONST	ENDS
;	COMDAT ??_7?$i3MetaTemplate@Vi3IniParser@@@@6B@
CONST	SEGMENT
??_7?$i3MetaTemplate@Vi3IniParser@@@@6B@ DD FLAT:??_R4?$i3MetaTemplate@Vi3IniParser@@@@6B@ ; i3MetaTemplate<i3IniParser>::`vftable'
	DD	FLAT:??_E?$i3MetaTemplate@Vi3IniParser@@@@UAEPAXI@Z
	DD	FLAT:?CreateInstance@?$i3MetaTemplate@Vi3IniParser@@@@UAEPAVi3ElementBase@@W4I3_CLASSMETA_TYPE@@@Z
	DD	FLAT:?BindInstance@?$i3MetaTemplate@Vi3IniParser@@@@UAEPAVi3ElementBase@@PAXW4I3_CLASSMETA_TYPE@@@Z
CONST	ENDS
_DATA	SEGMENT
?s_pClassMetai3IniParser@i3IniParser@@2PAVi3ClassMeta@@A DD FLAT:?s_ClassMetai3IniParser@@3V?$i3MetaTemplate@Vi3IniParser@@@@A ; i3IniParser::s_pClassMetai3IniParser
_DATA	ENDS
PUBLIC	?__empty_global_delete@@YAXPAX@Z		; __empty_global_delete
PUBLIC	?__global_delete@@YAXPAX@Z			; __global_delete
PUBLIC	?__empty_global_delete@@YAXPAXI@Z		; __empty_global_delete
PUBLIC	?__global_delete@@YAXPAXI@Z			; __global_delete
PUBLIC	?__global_array_delete@@YAXPAX@Z		; __global_array_delete
PUBLIC	?__global_array_delete@@YAXPAXI@Z		; __global_array_delete
PUBLIC	___local_stdio_printf_options
PUBLIC	?GetMemoryPool@i3ClassMeta@@QAEPAVi3MemoryPool@@XZ ; i3ClassMeta::GetMemoryPool
PUBLIC	?SetMemoryPool@i3ClassMeta@@QAEXPAVi3MemoryPool@@@Z ; i3ClassMeta::SetMemoryPool
PUBLIC	?GetClassSize@i3ClassMeta@@QAEIXZ		; i3ClassMeta::GetClassSize
PUBLIC	?GetClassNameA@i3ClassMeta@@QAEPADXZ		; i3ClassMeta::GetClassNameA
PUBLIC	?IsExactTypeOf@i3ClassMeta@@QAE_NPAV1@@Z	; i3ClassMeta::IsExactTypeOf
PUBLIC	?SetStyle@i3ClassMeta@@QAEXI@Z			; i3ClassMeta::SetStyle
PUBLIC	?GetStyle@i3ClassMeta@@QAEIXZ			; i3ClassMeta::GetStyle
PUBLIC	?AddStyle@i3ClassMeta@@QAEXI@Z			; i3ClassMeta::AddStyle
PUBLIC	?RemoveStyle@i3ClassMeta@@QAEXI@Z		; i3ClassMeta::RemoveStyle
PUBLIC	?IsStyle@i3ClassMeta@@QAEHI@Z			; i3ClassMeta::IsStyle
PUBLIC	?IsAbstractClass@i3ClassMeta@@QAEHXZ		; i3ClassMeta::IsAbstractClass
PUBLIC	?IsConcreteClass@i3ClassMeta@@QAEHXZ		; i3ClassMeta::IsConcreteClass
PUBLIC	?GetBaseClassMeta@i3ClassMeta@@QAEPAV1@XZ	; i3ClassMeta::GetBaseClassMeta
PUBLIC	?getHashCode@i3ClassMeta@@QAEIXZ		; i3ClassMeta::getHashCode
PUBLIC	??0i3ClassMeta@@QAE@ABV0@@Z			; i3ClassMeta::i3ClassMeta
PUBLIC	??4i3ClassMeta@@QAEAAV0@ABV0@@Z			; i3ClassMeta::operator=
PUBLIC	??_Gi3ClassMeta@@UAEPAXI@Z			; i3ClassMeta::`scalar deleting destructor'
PUBLIC	??_Ei3ClassMeta@@UAEPAXI@Z			; i3ClassMeta::`vector deleting destructor'
PUBLIC	?GetClassMeta@i3ElementBase@@SAPAVi3ClassMeta@@XZ ; i3ElementBase::GetClassMeta
PUBLIC	?GetRefCount@i3ElementBase@@QAEHXZ		; i3ElementBase::GetRefCount
PUBLIC	?__SetMemoryPool@i3ElementBase@@QAEXPAVi3MemoryPool@@@Z ; i3ElementBase::__SetMemoryPool
PUBLIC	?__GetMemoryPool@i3ElementBase@@QAEPAVi3MemoryPool@@XZ ; i3ElementBase::__GetMemoryPool
PUBLIC	?IsExactTypeOf@i3ElementBase@@QAE_NPAVi3ClassMeta@@@Z ; i3ElementBase::IsExactTypeOf
PUBLIC	?IsTypeOf@i3ElementBase@@QAE_NPAVi3ClassMeta@@@Z ; i3ElementBase::IsTypeOf
PUBLIC	?AddRef@i3ElementBase@@QAEHXZ			; i3ElementBase::AddRef
PUBLIC	?_internal_SetRefCount@i3ElementBase@@QAEXH@Z	; i3ElementBase::_internal_SetRefCount
PUBLIC	??0i3ElementBase@@QAE@ABV0@@Z			; i3ElementBase::i3ElementBase
PUBLIC	??4i3ElementBase@@QAEAAV0@ABV0@@Z		; i3ElementBase::operator=
PUBLIC	??_Gi3ElementBase@@UAEPAXI@Z			; i3ElementBase::`scalar deleting destructor'
PUBLIC	??_Ei3ElementBase@@UAEPAXI@Z			; i3ElementBase::`vector deleting destructor'
PUBLIC	??0i3MemoryPool@@QAE@ABV0@@Z			; i3MemoryPool::i3MemoryPool
PUBLIC	??4i3MemoryPool@@QAEAAV0@ABV0@@Z		; i3MemoryPool::operator=
PUBLIC	??_Gi3MemoryPool@@UAEPAXI@Z			; i3MemoryPool::`scalar deleting destructor'
PUBLIC	??_Ei3MemoryPool@@UAEPAXI@Z			; i3MemoryPool::`vector deleting destructor'
PUBLIC	?GetClassMeta@i3Stream@@SAPAVi3ClassMeta@@XZ	; i3Stream::GetClassMeta
PUBLIC	?GetSize@i3Stream@@QAEIXZ			; i3Stream::GetSize
PUBLIC	?GetLastError@i3Stream@@QAE?AW4STREAMCODE@1@XZ	; i3Stream::GetLastError
PUBLIC	?GetAccessMode@i3Stream@@QAEHXZ			; i3Stream::GetAccessMode
PUBLIC	?GetHandle@i3Stream@@UAEPAXXZ			; i3Stream::GetHandle
PUBLIC	?BeginRecord@i3Stream@@QAEXXZ			; i3Stream::BeginRecord
PUBLIC	?GetRecordSize@i3Stream@@QAEIXZ			; i3Stream::GetRecordSize
PUBLIC	??0i3Stream@@QAE@ABV0@@Z			; i3Stream::i3Stream
PUBLIC	??4i3Stream@@QAEAAV0@ABV0@@Z			; i3Stream::operator=
PUBLIC	??_Gi3Stream@@UAEPAXI@Z				; i3Stream::`scalar deleting destructor'
PUBLIC	??_Ei3Stream@@UAEPAXI@Z				; i3Stream::`vector deleting destructor'
PUBLIC	?GetClassMeta@i3FileStream@@SAPAVi3ClassMeta@@XZ ; i3FileStream::GetClassMeta
PUBLIC	?GetHandle@i3FileStream@@UAEPAXXZ		; i3FileStream::GetHandle
PUBLIC	?GetFileName@i3FileStream@@QAEPADXZ		; i3FileStream::GetFileName
PUBLIC	?SetCaseSensitive@i3FileStream@@SAXH@Z		; i3FileStream::SetCaseSensitive
PUBLIC	?IsCaseSensitive@i3FileStream@@SAHXZ		; i3FileStream::IsCaseSensitive
PUBLIC	??0i3FileStream@@QAE@ABV0@@Z			; i3FileStream::i3FileStream
PUBLIC	??4i3FileStream@@QAEAAV0@ABV0@@Z		; i3FileStream::operator=
PUBLIC	??_Gi3FileStream@@UAEPAXI@Z			; i3FileStream::`scalar deleting destructor'
PUBLIC	??_Ei3FileStream@@UAEPAXI@Z			; i3FileStream::`vector deleting destructor'
PUBLIC	??0TiXmlString@@QAE@XZ				; TiXmlString::TiXmlString
PUBLIC	??0TiXmlString@@QAE@ABV0@@Z			; TiXmlString::TiXmlString
PUBLIC	??0TiXmlString@@QAE@PBD@Z			; TiXmlString::TiXmlString
PUBLIC	??0TiXmlString@@QAE@PBDI@Z			; TiXmlString::TiXmlString
PUBLIC	??1TiXmlString@@QAE@XZ				; TiXmlString::~TiXmlString
PUBLIC	??4TiXmlString@@QAEAAV0@PBD@Z			; TiXmlString::operator=
PUBLIC	??4TiXmlString@@QAEAAV0@ABV0@@Z			; TiXmlString::operator=
PUBLIC	??YTiXmlString@@QAEAAV0@PBD@Z			; TiXmlString::operator+=
PUBLIC	??YTiXmlString@@QAEAAV0@D@Z			; TiXmlString::operator+=
PUBLIC	??YTiXmlString@@QAEAAV0@ABV0@@Z			; TiXmlString::operator+=
PUBLIC	?c_str@TiXmlString@@QBEPBDXZ			; TiXmlString::c_str
PUBLIC	?data@TiXmlString@@QBEPBDXZ			; TiXmlString::data
PUBLIC	?length@TiXmlString@@QBEIXZ			; TiXmlString::length
PUBLIC	?size@TiXmlString@@QBEIXZ			; TiXmlString::size
PUBLIC	?empty@TiXmlString@@QBE_NXZ			; TiXmlString::empty
PUBLIC	?capacity@TiXmlString@@QBEIXZ			; TiXmlString::capacity
PUBLIC	?at@TiXmlString@@QBEABDI@Z			; TiXmlString::at
PUBLIC	??ATiXmlString@@QBEAADI@Z			; TiXmlString::operator[]
PUBLIC	?find@TiXmlString@@QBEID@Z			; TiXmlString::find
PUBLIC	?find@TiXmlString@@QBEIDI@Z			; TiXmlString::find
PUBLIC	?clear@TiXmlString@@QAEXXZ			; TiXmlString::clear
PUBLIC	?swap@TiXmlString@@QAEXAAV1@@Z			; TiXmlString::swap
PUBLIC	?init@TiXmlString@@AAEXI@Z			; TiXmlString::init
PUBLIC	?set_size@TiXmlString@@AAEXI@Z			; TiXmlString::set_size
PUBLIC	?start@TiXmlString@@ABEPADXZ			; TiXmlString::start
PUBLIC	?finish@TiXmlString@@ABEPADXZ			; TiXmlString::finish
PUBLIC	?init@TiXmlString@@AAEXII@Z			; TiXmlString::init
PUBLIC	?quit@TiXmlString@@AAEXXZ			; TiXmlString::quit
PUBLIC	??0TiXmlCursor@@QAE@XZ				; TiXmlCursor::TiXmlCursor
PUBLIC	?Clear@TiXmlCursor@@QAEXXZ			; TiXmlCursor::Clear
PUBLIC	??4TiXmlCursor@@QAEAAU0@ABU0@@Z			; TiXmlCursor::operator=
PUBLIC	??4TiXmlCursor@@QAEAAU0@$$QAU0@@Z		; TiXmlCursor::operator=
PUBLIC	??1TiXmlVisitor@@UAE@XZ				; TiXmlVisitor::~TiXmlVisitor
PUBLIC	?VisitEnter@TiXmlVisitor@@UAE_NABVTiXmlDocument@@@Z ; TiXmlVisitor::VisitEnter
PUBLIC	?VisitExit@TiXmlVisitor@@UAE_NABVTiXmlDocument@@@Z ; TiXmlVisitor::VisitExit
PUBLIC	?VisitEnter@TiXmlVisitor@@UAE_NABVTiXmlElement@@PBVTiXmlAttribute@@@Z ; TiXmlVisitor::VisitEnter
PUBLIC	?VisitExit@TiXmlVisitor@@UAE_NABVTiXmlElement@@@Z ; TiXmlVisitor::VisitExit
PUBLIC	?Visit@TiXmlVisitor@@UAE_NABVTiXmlDeclaration@@@Z ; TiXmlVisitor::Visit
PUBLIC	?Visit@TiXmlVisitor@@UAE_NABVTiXmlText@@@Z	; TiXmlVisitor::Visit
PUBLIC	?Visit@TiXmlVisitor@@UAE_NABVTiXmlComment@@@Z	; TiXmlVisitor::Visit
PUBLIC	?Visit@TiXmlVisitor@@UAE_NABVTiXmlUnknown@@@Z	; TiXmlVisitor::Visit
PUBLIC	??0TiXmlVisitor@@QAE@XZ				; TiXmlVisitor::TiXmlVisitor
PUBLIC	??0TiXmlVisitor@@QAE@ABV0@@Z			; TiXmlVisitor::TiXmlVisitor
PUBLIC	??4TiXmlVisitor@@QAEAAV0@ABV0@@Z		; TiXmlVisitor::operator=
PUBLIC	??_GTiXmlVisitor@@UAEPAXI@Z			; TiXmlVisitor::`scalar deleting destructor'
PUBLIC	??_ETiXmlVisitor@@UAEPAXI@Z			; TiXmlVisitor::`vector deleting destructor'
PUBLIC	??0TiXmlBase@@QAE@XZ				; TiXmlBase::TiXmlBase
PUBLIC	??1TiXmlBase@@UAE@XZ				; TiXmlBase::~TiXmlBase
PUBLIC	?SetCondenseWhiteSpace@TiXmlBase@@SAX_N@Z	; TiXmlBase::SetCondenseWhiteSpace
PUBLIC	?IsWhiteSpaceCondensed@TiXmlBase@@SA_NXZ	; TiXmlBase::IsWhiteSpaceCondensed
PUBLIC	?Row@TiXmlBase@@QBEHXZ				; TiXmlBase::Row
PUBLIC	?Column@TiXmlBase@@QBEHXZ			; TiXmlBase::Column
PUBLIC	?SetUserData@TiXmlBase@@QAEXPAX@Z		; TiXmlBase::SetUserData
PUBLIC	?GetUserData@TiXmlBase@@QAEPAXXZ		; TiXmlBase::GetUserData
PUBLIC	?GetUserData@TiXmlBase@@QBEPBXXZ		; TiXmlBase::GetUserData
PUBLIC	?IsWhiteSpace@TiXmlBase@@KA_ND@Z		; TiXmlBase::IsWhiteSpace
PUBLIC	?IsWhiteSpace@TiXmlBase@@KA_NH@Z		; TiXmlBase::IsWhiteSpace
PUBLIC	?GetChar@TiXmlBase@@KAPBDPBDPADPAHW4TiXmlEncoding@@@Z ; TiXmlBase::GetChar
PUBLIC	?ToLower@TiXmlBase@@KAHHW4TiXmlEncoding@@@Z	; TiXmlBase::ToLower
PUBLIC	??_GTiXmlBase@@UAEPAXI@Z			; TiXmlBase::`scalar deleting destructor'
PUBLIC	??_ETiXmlBase@@UAEPAXI@Z			; TiXmlBase::`vector deleting destructor'
PUBLIC	?Value@TiXmlNode@@QBEPBDXZ			; TiXmlNode::Value
PUBLIC	?ValueTStr@TiXmlNode@@QBEABVTiXmlString@@XZ	; TiXmlNode::ValueTStr
PUBLIC	?SetValue@TiXmlNode@@QAEXPBD@Z			; TiXmlNode::SetValue
PUBLIC	?Parent@TiXmlNode@@QAEPAV1@XZ			; TiXmlNode::Parent
PUBLIC	?Parent@TiXmlNode@@QBEPBV1@XZ			; TiXmlNode::Parent
PUBLIC	?FirstChild@TiXmlNode@@QBEPBV1@XZ		; TiXmlNode::FirstChild
PUBLIC	?FirstChild@TiXmlNode@@QAEPAV1@XZ		; TiXmlNode::FirstChild
PUBLIC	?FirstChild@TiXmlNode@@QAEPAV1@PBD@Z		; TiXmlNode::FirstChild
PUBLIC	?LastChild@TiXmlNode@@QBEPBV1@XZ		; TiXmlNode::LastChild
PUBLIC	?LastChild@TiXmlNode@@QAEPAV1@XZ		; TiXmlNode::LastChild
PUBLIC	?LastChild@TiXmlNode@@QAEPAV1@PBD@Z		; TiXmlNode::LastChild
PUBLIC	?IterateChildren@TiXmlNode@@QAEPAV1@PBV1@@Z	; TiXmlNode::IterateChildren
PUBLIC	?IterateChildren@TiXmlNode@@QAEPAV1@PBDPBV1@@Z	; TiXmlNode::IterateChildren
PUBLIC	?PreviousSibling@TiXmlNode@@QBEPBV1@XZ		; TiXmlNode::PreviousSibling
PUBLIC	?PreviousSibling@TiXmlNode@@QAEPAV1@XZ		; TiXmlNode::PreviousSibling
PUBLIC	?PreviousSibling@TiXmlNode@@QAEPAV1@PBD@Z	; TiXmlNode::PreviousSibling
PUBLIC	?NextSibling@TiXmlNode@@QBEPBV1@XZ		; TiXmlNode::NextSibling
PUBLIC	?NextSibling@TiXmlNode@@QAEPAV1@XZ		; TiXmlNode::NextSibling
PUBLIC	?NextSibling@TiXmlNode@@QAEPAV1@PBD@Z		; TiXmlNode::NextSibling
PUBLIC	?NextSiblingElement@TiXmlNode@@QAEPAVTiXmlElement@@XZ ; TiXmlNode::NextSiblingElement
PUBLIC	?NextSiblingElement@TiXmlNode@@QAEPAVTiXmlElement@@PBD@Z ; TiXmlNode::NextSiblingElement
PUBLIC	?FirstChildElement@TiXmlNode@@QAEPAVTiXmlElement@@XZ ; TiXmlNode::FirstChildElement
PUBLIC	?FirstChildElement@TiXmlNode@@QAEPAVTiXmlElement@@PBD@Z ; TiXmlNode::FirstChildElement
PUBLIC	?Type@TiXmlNode@@QBEHXZ				; TiXmlNode::Type
PUBLIC	?GetDocument@TiXmlNode@@QAEPAVTiXmlDocument@@XZ	; TiXmlNode::GetDocument
PUBLIC	?NoChildren@TiXmlNode@@QBE_NXZ			; TiXmlNode::NoChildren
PUBLIC	?ToDocument@TiXmlNode@@UBEPBVTiXmlDocument@@XZ	; TiXmlNode::ToDocument
PUBLIC	?ToElement@TiXmlNode@@UBEPBVTiXmlElement@@XZ	; TiXmlNode::ToElement
PUBLIC	?ToComment@TiXmlNode@@UBEPBVTiXmlComment@@XZ	; TiXmlNode::ToComment
PUBLIC	?ToUnknown@TiXmlNode@@UBEPBVTiXmlUnknown@@XZ	; TiXmlNode::ToUnknown
PUBLIC	?ToText@TiXmlNode@@UBEPBVTiXmlText@@XZ		; TiXmlNode::ToText
PUBLIC	?ToDeclaration@TiXmlNode@@UBEPBVTiXmlDeclaration@@XZ ; TiXmlNode::ToDeclaration
PUBLIC	?ToDocument@TiXmlNode@@UAEPAVTiXmlDocument@@XZ	; TiXmlNode::ToDocument
PUBLIC	?ToElement@TiXmlNode@@UAEPAVTiXmlElement@@XZ	; TiXmlNode::ToElement
PUBLIC	?ToComment@TiXmlNode@@UAEPAVTiXmlComment@@XZ	; TiXmlNode::ToComment
PUBLIC	?ToUnknown@TiXmlNode@@UAEPAVTiXmlUnknown@@XZ	; TiXmlNode::ToUnknown
PUBLIC	?ToText@TiXmlNode@@UAEPAVTiXmlText@@XZ		; TiXmlNode::ToText
PUBLIC	?ToDeclaration@TiXmlNode@@UAEPAVTiXmlDeclaration@@XZ ; TiXmlNode::ToDeclaration
PUBLIC	??0TiXmlAttribute@@QAE@XZ			; TiXmlAttribute::TiXmlAttribute
PUBLIC	??0TiXmlAttribute@@QAE@PBD0@Z			; TiXmlAttribute::TiXmlAttribute
PUBLIC	?Name@TiXmlAttribute@@QBEPBDXZ			; TiXmlAttribute::Name
PUBLIC	?Value@TiXmlAttribute@@QBEPBDXZ			; TiXmlAttribute::Value
PUBLIC	?NameTStr@TiXmlAttribute@@QBEABVTiXmlString@@XZ	; TiXmlAttribute::NameTStr
PUBLIC	?SetName@TiXmlAttribute@@QAEXPBD@Z		; TiXmlAttribute::SetName
PUBLIC	?SetValue@TiXmlAttribute@@QAEXPBD@Z		; TiXmlAttribute::SetValue
PUBLIC	?Next@TiXmlAttribute@@QAEPAV1@XZ		; TiXmlAttribute::Next
PUBLIC	?Previous@TiXmlAttribute@@QAEPAV1@XZ		; TiXmlAttribute::Previous
PUBLIC	??8TiXmlAttribute@@QBE_NABV0@@Z			; TiXmlAttribute::operator==
PUBLIC	??MTiXmlAttribute@@QBE_NABV0@@Z			; TiXmlAttribute::operator<
PUBLIC	??OTiXmlAttribute@@QBE_NABV0@@Z			; TiXmlAttribute::operator>
PUBLIC	?Print@TiXmlAttribute@@UBEXPAVi3FileStream@@H@Z	; TiXmlAttribute::Print
PUBLIC	?SetDocument@TiXmlAttribute@@QAEXPAVTiXmlDocument@@@Z ; TiXmlAttribute::SetDocument
PUBLIC	??1TiXmlAttribute@@UAE@XZ			; TiXmlAttribute::~TiXmlAttribute
PUBLIC	??_GTiXmlAttribute@@UAEPAXI@Z			; TiXmlAttribute::`scalar deleting destructor'
PUBLIC	??_ETiXmlAttribute@@UAEPAXI@Z			; TiXmlAttribute::`vector deleting destructor'
PUBLIC	?First@TiXmlAttributeSet@@QBEPBVTiXmlAttribute@@XZ ; TiXmlAttributeSet::First
PUBLIC	?First@TiXmlAttributeSet@@QAEPAVTiXmlAttribute@@XZ ; TiXmlAttributeSet::First
PUBLIC	?Last@TiXmlAttributeSet@@QBEPBVTiXmlAttribute@@XZ ; TiXmlAttributeSet::Last
PUBLIC	?Last@TiXmlAttributeSet@@QAEPAVTiXmlAttribute@@XZ ; TiXmlAttributeSet::Last
PUBLIC	?Find@TiXmlAttributeSet@@QAEPAVTiXmlAttribute@@PBD@Z ; TiXmlAttributeSet::Find
PUBLIC	?QueryFloatAttribute@TiXmlElement@@QBEHPBDPAM@Z	; TiXmlElement::QueryFloatAttribute
PUBLIC	?FirstAttribute@TiXmlElement@@QBEPBVTiXmlAttribute@@XZ ; TiXmlElement::FirstAttribute
PUBLIC	?FirstAttribute@TiXmlElement@@QAEPAVTiXmlAttribute@@XZ ; TiXmlElement::FirstAttribute
PUBLIC	?LastAttribute@TiXmlElement@@QBEPBVTiXmlAttribute@@XZ ; TiXmlElement::LastAttribute
PUBLIC	?LastAttribute@TiXmlElement@@QAEPAVTiXmlAttribute@@XZ ; TiXmlElement::LastAttribute
PUBLIC	?ToElement@TiXmlElement@@UBEPBV1@XZ		; TiXmlElement::ToElement
PUBLIC	?ToElement@TiXmlElement@@UAEPAV1@XZ		; TiXmlElement::ToElement
PUBLIC	??0TiXmlComment@@QAE@XZ				; TiXmlComment::TiXmlComment
PUBLIC	??0TiXmlComment@@QAE@PBD@Z			; TiXmlComment::TiXmlComment
PUBLIC	??1TiXmlComment@@UAE@XZ				; TiXmlComment::~TiXmlComment
PUBLIC	?ToComment@TiXmlComment@@UBEPBV1@XZ		; TiXmlComment::ToComment
PUBLIC	?ToComment@TiXmlComment@@UAEPAV1@XZ		; TiXmlComment::ToComment
PUBLIC	??_GTiXmlComment@@UAEPAXI@Z			; TiXmlComment::`scalar deleting destructor'
PUBLIC	??_ETiXmlComment@@UAEPAXI@Z			; TiXmlComment::`vector deleting destructor'
PUBLIC	??0TiXmlText@@QAE@PBD@Z				; TiXmlText::TiXmlText
PUBLIC	??1TiXmlText@@UAE@XZ				; TiXmlText::~TiXmlText
PUBLIC	??0TiXmlText@@QAE@ABV0@@Z			; TiXmlText::TiXmlText
PUBLIC	??4TiXmlText@@QAEXABV0@@Z			; TiXmlText::operator=
PUBLIC	?CDATA@TiXmlText@@QBE_NXZ			; TiXmlText::CDATA
PUBLIC	?SetCDATA@TiXmlText@@QAEX_N@Z			; TiXmlText::SetCDATA
PUBLIC	?ToText@TiXmlText@@UBEPBV1@XZ			; TiXmlText::ToText
PUBLIC	?ToText@TiXmlText@@UAEPAV1@XZ			; TiXmlText::ToText
PUBLIC	??_GTiXmlText@@UAEPAXI@Z			; TiXmlText::`scalar deleting destructor'
PUBLIC	??_ETiXmlText@@UAEPAXI@Z			; TiXmlText::`vector deleting destructor'
PUBLIC	??0TiXmlDeclaration@@QAE@XZ			; TiXmlDeclaration::TiXmlDeclaration
PUBLIC	??1TiXmlDeclaration@@UAE@XZ			; TiXmlDeclaration::~TiXmlDeclaration
PUBLIC	?Version@TiXmlDeclaration@@QBEPBDXZ		; TiXmlDeclaration::Version
PUBLIC	?Encoding@TiXmlDeclaration@@QBEPBDXZ		; TiXmlDeclaration::Encoding
PUBLIC	?Standalone@TiXmlDeclaration@@QBEPBDXZ		; TiXmlDeclaration::Standalone
PUBLIC	?Print@TiXmlDeclaration@@UBEXPAVi3FileStream@@H@Z ; TiXmlDeclaration::Print
PUBLIC	?ToDeclaration@TiXmlDeclaration@@UBEPBV1@XZ	; TiXmlDeclaration::ToDeclaration
PUBLIC	?ToDeclaration@TiXmlDeclaration@@UAEPAV1@XZ	; TiXmlDeclaration::ToDeclaration
PUBLIC	??_GTiXmlDeclaration@@UAEPAXI@Z			; TiXmlDeclaration::`scalar deleting destructor'
PUBLIC	??_ETiXmlDeclaration@@UAEPAXI@Z			; TiXmlDeclaration::`vector deleting destructor'
PUBLIC	??0TiXmlUnknown@@QAE@XZ				; TiXmlUnknown::TiXmlUnknown
PUBLIC	??1TiXmlUnknown@@UAE@XZ				; TiXmlUnknown::~TiXmlUnknown
PUBLIC	??0TiXmlUnknown@@QAE@ABV0@@Z			; TiXmlUnknown::TiXmlUnknown
PUBLIC	??4TiXmlUnknown@@QAEXABV0@@Z			; TiXmlUnknown::operator=
PUBLIC	?ToUnknown@TiXmlUnknown@@UBEPBV1@XZ		; TiXmlUnknown::ToUnknown
PUBLIC	?ToUnknown@TiXmlUnknown@@UAEPAV1@XZ		; TiXmlUnknown::ToUnknown
PUBLIC	??_GTiXmlUnknown@@UAEPAXI@Z			; TiXmlUnknown::`scalar deleting destructor'
PUBLIC	??_ETiXmlUnknown@@UAEPAXI@Z			; TiXmlUnknown::`vector deleting destructor'
PUBLIC	??1TiXmlDocument@@UAE@XZ			; TiXmlDocument::~TiXmlDocument
PUBLIC	?RootElement@TiXmlDocument@@QBEPBVTiXmlElement@@XZ ; TiXmlDocument::RootElement
PUBLIC	?RootElement@TiXmlDocument@@QAEPAVTiXmlElement@@XZ ; TiXmlDocument::RootElement
PUBLIC	?Error@TiXmlDocument@@QBE_NXZ			; TiXmlDocument::Error
PUBLIC	?ErrorDesc@TiXmlDocument@@QBEPBDXZ		; TiXmlDocument::ErrorDesc
PUBLIC	?ErrorId@TiXmlDocument@@QBEHXZ			; TiXmlDocument::ErrorId
PUBLIC	?ErrorRow@TiXmlDocument@@QBEHXZ			; TiXmlDocument::ErrorRow
PUBLIC	?ErrorCol@TiXmlDocument@@QBEHXZ			; TiXmlDocument::ErrorCol
PUBLIC	?SetTabSize@TiXmlDocument@@QAEXH@Z		; TiXmlDocument::SetTabSize
PUBLIC	?TabSize@TiXmlDocument@@QBEHXZ			; TiXmlDocument::TabSize
PUBLIC	?ClearError@TiXmlDocument@@QAEXXZ		; TiXmlDocument::ClearError
PUBLIC	?ToDocument@TiXmlDocument@@UBEPBV1@XZ		; TiXmlDocument::ToDocument
PUBLIC	?ToDocument@TiXmlDocument@@UAEPAV1@XZ		; TiXmlDocument::ToDocument
PUBLIC	?GetSize@TiXmlDocument@@QAEIXZ			; TiXmlDocument::GetSize
PUBLIC	??_GTiXmlDocument@@UAEPAXI@Z			; TiXmlDocument::`scalar deleting destructor'
PUBLIC	??_ETiXmlDocument@@UAEPAXI@Z			; TiXmlDocument::`vector deleting destructor'
PUBLIC	??0TiXmlHandle@@QAE@PAVTiXmlNode@@@Z		; TiXmlHandle::TiXmlHandle
PUBLIC	??0TiXmlHandle@@QAE@ABV0@@Z			; TiXmlHandle::TiXmlHandle
PUBLIC	??4TiXmlHandle@@QAE?AV0@ABV0@@Z			; TiXmlHandle::operator=
PUBLIC	?ToNode@TiXmlHandle@@QBEPAVTiXmlNode@@XZ	; TiXmlHandle::ToNode
PUBLIC	?ToElement@TiXmlHandle@@QBEPAVTiXmlElement@@XZ	; TiXmlHandle::ToElement
PUBLIC	?ToText@TiXmlHandle@@QBEPAVTiXmlText@@XZ	; TiXmlHandle::ToText
PUBLIC	?ToUnknown@TiXmlHandle@@QBEPAVTiXmlUnknown@@XZ	; TiXmlHandle::ToUnknown
PUBLIC	?Node@TiXmlHandle@@QBEPAVTiXmlNode@@XZ		; TiXmlHandle::Node
PUBLIC	?Element@TiXmlHandle@@QBEPAVTiXmlElement@@XZ	; TiXmlHandle::Element
PUBLIC	?Text@TiXmlHandle@@QBEPAVTiXmlText@@XZ		; TiXmlHandle::Text
PUBLIC	?Unknown@TiXmlHandle@@QBEPAVTiXmlUnknown@@XZ	; TiXmlHandle::Unknown
PUBLIC	??0TiXmlPrinter@@QAE@XZ				; TiXmlPrinter::TiXmlPrinter
PUBLIC	?SetIndent@TiXmlPrinter@@QAEXPBD@Z		; TiXmlPrinter::SetIndent
PUBLIC	?Indent@TiXmlPrinter@@QAEPBDXZ			; TiXmlPrinter::Indent
PUBLIC	?SetLineBreak@TiXmlPrinter@@QAEXPBD@Z		; TiXmlPrinter::SetLineBreak
PUBLIC	?LineBreak@TiXmlPrinter@@QAEPBDXZ		; TiXmlPrinter::LineBreak
PUBLIC	?SetStreamPrinting@TiXmlPrinter@@QAEXXZ		; TiXmlPrinter::SetStreamPrinting
PUBLIC	?CStr@TiXmlPrinter@@QAEPBDXZ			; TiXmlPrinter::CStr
PUBLIC	?Size@TiXmlPrinter@@QAEIXZ			; TiXmlPrinter::Size
PUBLIC	?DoIndent@TiXmlPrinter@@AAEXXZ			; TiXmlPrinter::DoIndent
PUBLIC	?DoLineBreak@TiXmlPrinter@@AAEXXZ		; TiXmlPrinter::DoLineBreak
PUBLIC	??1TiXmlPrinter@@UAE@XZ				; TiXmlPrinter::~TiXmlPrinter
PUBLIC	??0TiXmlPrinter@@QAE@ABV0@@Z			; TiXmlPrinter::TiXmlPrinter
PUBLIC	??0TiXmlPrinter@@QAE@$$QAV0@@Z			; TiXmlPrinter::TiXmlPrinter
PUBLIC	??4TiXmlPrinter@@QAEAAV0@ABV0@@Z		; TiXmlPrinter::operator=
PUBLIC	??4TiXmlPrinter@@QAEAAV0@$$QAV0@@Z		; TiXmlPrinter::operator=
PUBLIC	??_GTiXmlPrinter@@UAEPAXI@Z			; TiXmlPrinter::`scalar deleting destructor'
PUBLIC	??_ETiXmlPrinter@@UAEPAXI@Z			; TiXmlPrinter::`vector deleting destructor'
PUBLIC	?addAttr@i3XMLElement@@QAEXPBD0@Z		; i3XMLElement::addAttr
PUBLIC	?addAttr@i3XMLElement@@QAEXPBDH@Z		; i3XMLElement::addAttr
PUBLIC	?addAttr@i3XMLElement@@QAEXPBDI@Z		; i3XMLElement::addAttr
PUBLIC	?addAttr@i3XMLElement@@QAEXPBDM@Z		; i3XMLElement::addAttr
PUBLIC	?addAttr@i3XMLElement@@QAEXPBD_J@Z		; i3XMLElement::addAttr
PUBLIC	?addAttr@i3XMLElement@@QAEXPBD_K@Z		; i3XMLElement::addAttr
PUBLIC	?getAttr@i3XMLElement@@QAEPBDPBD@Z		; i3XMLElement::getAttr
PUBLIC	?getAttr@i3XMLElement@@QAEPBDPBDPAH@Z		; i3XMLElement::getAttr
PUBLIC	?getAttr@i3XMLElement@@QAEPBDPBDPAI@Z		; i3XMLElement::getAttr
PUBLIC	?getAttr@i3XMLElement@@QAEPBDPBDPA_J@Z		; i3XMLElement::getAttr
PUBLIC	?getAttr@i3XMLElement@@QAEPBDPBDPA_K@Z		; i3XMLElement::getAttr
PUBLIC	?getAttr@i3XMLElement@@QAEPBDPBDPAM@Z		; i3XMLElement::getAttr
PUBLIC	?getAttr@i3XMLElement@@QAEPBDPBDPAG@Z		; i3XMLElement::getAttr
PUBLIC	??0i3XMLElement@@QAE@ABV0@@Z			; i3XMLElement::i3XMLElement
PUBLIC	??4i3XMLElement@@QAEAAV0@ABV0@@Z		; i3XMLElement::operator=
PUBLIC	??_Gi3XMLElement@@UAEPAXI@Z			; i3XMLElement::`scalar deleting destructor'
PUBLIC	??_Ei3XMLElement@@UAEPAXI@Z			; i3XMLElement::`vector deleting destructor'
PUBLIC	?GetClassMeta@i3List@@SAPAVi3ClassMeta@@XZ	; i3List::GetClassMeta
PUBLIC	?SetOptmizeEnableWhenClear@i3List@@QAEXH@Z	; i3List::SetOptmizeEnableWhenClear
PUBLIC	?SetOnceMode@i3List@@QAEXH@Z			; i3List::SetOnceMode
PUBLIC	?GetCount@i3List@@QBEHXZ			; i3List::GetCount
PUBLIC	?GetItem@i3List@@QAEPAXH@Z			; i3List::GetItem
PUBLIC	?GetItem@i3List@@QBEPBXH@Z			; i3List::GetItem
PUBLIC	?GetSafeItem@i3List@@QBEPBXH@Z			; i3List::GetSafeItem
PUBLIC	?GetSafeItem@i3List@@QAEPAXH@Z			; i3List::GetSafeItem
PUBLIC	?Find@i3List@@QBEHPAX@Z				; i3List::Find
PUBLIC	?GetFirst@i3List@@QAEPAXXZ			; i3List::GetFirst
PUBLIC	?GetLast@i3List@@QAEPAXXZ			; i3List::GetLast
PUBLIC	?AddFromList@i3List@@QAEXPAV1@@Z		; i3List::AddFromList
PUBLIC	?SafeReleaseAll@i3List@@QAEXXZ			; i3List::SafeReleaseAll
PUBLIC	?SafeFreeAll@i3List@@QAEXXZ			; i3List::SafeFreeAll
PUBLIC	??0i3List@@QAE@ABV0@@Z				; i3List::i3List
PUBLIC	??4i3List@@QAEAAV0@ABV0@@Z			; i3List::operator=
PUBLIC	??_Fi3List@@QAEXXZ				; i3List::`default constructor closure'
PUBLIC	??_Gi3List@@UAEPAXI@Z				; i3List::`scalar deleting destructor'
PUBLIC	??_Ei3List@@UAEPAXI@Z				; i3List::`vector deleting destructor'
PUBLIC	?GetClassMeta@i3StringList@@SAPAVi3ClassMeta@@XZ ; i3StringList::GetClassMeta
PUBLIC	?GetCount@i3StringList@@QBEHXZ			; i3StringList::GetCount
PUBLIC	?GetItem@i3StringList@@QAEPAXH@Z		; i3StringList::GetItem
PUBLIC	?SetItem@i3StringList@@QAEXHPAD@Z		; i3StringList::SetItem
PUBLIC	?Find@i3StringList@@QAEHPAD@Z			; i3StringList::Find
PUBLIC	?GetFirst@i3StringList@@QAEPADXZ		; i3StringList::GetFirst
PUBLIC	?GetLast@i3StringList@@QAEPADXZ			; i3StringList::GetLast
PUBLIC	?GetOnceMode@i3StringList@@QAEHXZ		; i3StringList::GetOnceMode
PUBLIC	?SetOnceMode@i3StringList@@QAEXH@Z		; i3StringList::SetOnceMode
PUBLIC	??0i3StringList@@QAE@ABV0@@Z			; i3StringList::i3StringList
PUBLIC	??4i3StringList@@QAEAAV0@ABV0@@Z		; i3StringList::operator=
PUBLIC	??_Fi3StringList@@QAEXXZ			; i3StringList::`default constructor closure'
PUBLIC	??_Gi3StringList@@UAEPAXI@Z			; i3StringList::`scalar deleting destructor'
PUBLIC	??_Ei3StringList@@UAEPAXI@Z			; i3StringList::`vector deleting destructor'
PUBLIC	?GetClassMeta@i3IniParser@@SAPAVi3ClassMeta@@XZ	; i3IniParser::GetClassMeta
PUBLIC	?GetMeta@i3IniParser@@UAEPAVi3ClassMeta@@XZ	; i3IniParser::GetMeta
PUBLIC	?RegisterMeta@i3IniParser@@SAXXZ		; i3IniParser::RegisterMeta
PUBLIC	?SetConcreteClass@i3IniParser@@SAXPAVi3ClassMeta@@@Z ; i3IniParser::SetConcreteClass
PUBLIC	?SetGhostClass@i3IniParser@@SAXPAVi3ClassMeta@@@Z ; i3IniParser::SetGhostClass
PUBLIC	?_NewObject@i3IniParser@@SAPAV1@XZ		; i3IniParser::_NewObject
PUBLIC	?_NewObjectRef@i3IniParser@@SAPAV1@XZ		; i3IniParser::_NewObjectRef
PUBLIC	?_BindObject@i3IniParser@@SAPAV1@PAX@Z		; i3IniParser::_BindObject
PUBLIC	?_BindObjectRef@i3IniParser@@SAPAV1@PAX@Z	; i3IniParser::_BindObjectRef
PUBLIC	?_NewObjectByType@i3IniParser@@SAPAV1@W4I3_CLASSMETA_TYPE@@@Z ; i3IniParser::_NewObjectByType
PUBLIC	?_NewObjectRefByType@i3IniParser@@SAPAV1@W4I3_CLASSMETA_TYPE@@@Z ; i3IniParser::_NewObjectRefByType
PUBLIC	?_BindObjectByType@i3IniParser@@SAPAV1@PAXW4I3_CLASSMETA_TYPE@@@Z ; i3IniParser::_BindObjectByType
PUBLIC	?_BindObjectRefByType@i3IniParser@@SAPAV1@PAXW4I3_CLASSMETA_TYPE@@@Z ; i3IniParser::_BindObjectRefByType
PUBLIC	?RemoveWhiteSpace@i3IniParser@@IAEXPADPBD@Z	; i3IniParser::RemoveWhiteSpace
PUBLIC	?ProcessString@i3IniParser@@IAEHPADPBDH@Z	; i3IniParser::ProcessString
PUBLIC	?DeleteAllValues@i3IniParser@@IAEXXZ		; i3IniParser::DeleteAllValues
PUBLIC	?_ReadLine@i3IniParser@@IAEIPAD@Z		; i3IniParser::_ReadLine
PUBLIC	??0i3IniParser@@QAE@XZ				; i3IniParser::i3IniParser
PUBLIC	??1i3IniParser@@UAE@XZ				; i3IniParser::~i3IniParser
PUBLIC	?Close@i3IniParser@@QAEXXZ			; i3IniParser::Close
PUBLIC	?Create@i3IniParser@@QAEHPBD@Z			; i3IniParser::Create
PUBLIC	?GetTempBuffer@i3IniParser@@QAEPADXZ		; i3IniParser::GetTempBuffer
PUBLIC	?OpenFromFile@i3IniParser@@QAEHPBDH@Z		; i3IniParser::OpenFromFile
PUBLIC	?Open@i3IniParser@@QAEHPAVi3Stream@@HH@Z	; i3IniParser::Open
PUBLIC	?GetSectionCount@i3IniParser@@QAEHXZ		; i3IniParser::GetSectionCount
PUBLIC	?GetSection@i3IniParser@@QAEPAUi3IniSectionInfo@@H@Z ; i3IniParser::GetSection
PUBLIC	?FindSection@i3IniParser@@QAEPAUi3IniSectionInfo@@PBD@Z ; i3IniParser::FindSection
PUBLIC	?GetSectionIndex@i3IniParser@@QAEHPBD@Z		; i3IniParser::GetSectionIndex
PUBLIC	?GetCurSectionName@i3IniParser@@QAEPBDXZ	; i3IniParser::GetCurSectionName
PUBLIC	?GetFileName@i3IniParser@@QAEPBDXZ		; i3IniParser::GetFileName
PUBLIC	?GetFileNameExt@i3IniParser@@QAEPBDXZ		; i3IniParser::GetFileNameExt
PUBLIC	?ReadSection@i3IniParser@@QAEHPBD@Z		; i3IniParser::ReadSection
PUBLIC	?ReadSectionByIndex@i3IniParser@@QAEHH@Z	; i3IniParser::ReadSectionByIndex
PUBLIC	?ReadSectionByInfo@i3IniParser@@QAEHPAUi3IniSectionInfo@@@Z ; i3IniParser::ReadSectionByInfo
PUBLIC	?GetValueCount@i3IniParser@@QAEIXZ		; i3IniParser::GetValueCount
PUBLIC	?GetValueByIndex@i3IniParser@@QAEPAUi3IniValue@@H@Z ; i3IniParser::GetValueByIndex
PUBLIC	?GetStringValue@i3IniParser@@QAEPBDPBD@Z	; i3IniParser::GetStringValue
PUBLIC	?GetValue@i3IniParser@@QAEHPBDPADH@Z		; i3IniParser::GetValue
PUBLIC	?GetValue@i3IniParser@@QAEHPBDPAH@Z		; i3IniParser::GetValue
PUBLIC	?GetValue@i3IniParser@@QAEHPBDPAI@Z		; i3IniParser::GetValue
PUBLIC	?GetValue@i3IniParser@@QAEHPBDPAM@Z		; i3IniParser::GetValue
PUBLIC	?GetValue@i3IniParser@@QAEHPBDPAN@Z		; i3IniParser::GetValue
PUBLIC	?GetValue@i3IniParser@@QAEHPBD0PADH@Z		; i3IniParser::GetValue
PUBLIC	?GetValue@i3IniParser@@QAEHPBDHPAH@Z		; i3IniParser::GetValue
PUBLIC	?GetValue@i3IniParser@@QAEHPBDIPAI@Z		; i3IniParser::GetValue
PUBLIC	?GetValue@i3IniParser@@QAEHPBDMPAM@Z		; i3IniParser::GetValue
PUBLIC	?GetValue@i3IniParser@@QAEHPBDNPAN@Z		; i3IniParser::GetValue
PUBLIC	?GetValues@i3IniParser@@QAEHPBDPAHHH@Z		; i3IniParser::GetValues
PUBLIC	?GetValues@i3IniParser@@QAEHPBDPAMHH@Z		; i3IniParser::GetValues
PUBLIC	?GetValues@i3IniParser@@QAEHPBDHPAHHH@Z		; i3IniParser::GetValues
PUBLIC	?GetValues@i3IniParser@@QAEHPBDMPAMHH@Z		; i3IniParser::GetValues
PUBLIC	?GetValues@i3IniParser@@QAEHPBDPAH1HH@Z		; i3IniParser::GetValues
PUBLIC	?GetValues@i3IniParser@@QAEHPBDPAM1HH@Z		; i3IniParser::GetValues
PUBLIC	?GetIndex@i3IniParser@@QAEHPBDQAPBDIAAHI@Z	; i3IniParser::GetIndex
PUBLIC	?Write@i3IniParser@@QAAHPBD0ZZ			; i3IniParser::Write
PUBLIC	?WriteSectionName@i3IniParser@@QAEHPBD@Z	; i3IniParser::WriteSectionName
PUBLIC	?WriteBool@i3IniParser@@QAEHPBDH@Z		; i3IniParser::WriteBool
PUBLIC	?WriteValue@i3IniParser@@QAEHPBD0@Z		; i3IniParser::WriteValue
PUBLIC	?WriteValue@i3IniParser@@QAEHPBDH@Z		; i3IniParser::WriteValue
PUBLIC	?WriteValue@i3IniParser@@QAEHPBDI@Z		; i3IniParser::WriteValue
PUBLIC	?WriteValue@i3IniParser@@QAEHPBDM@Z		; i3IniParser::WriteValue
PUBLIC	?WriteValue@i3IniParser@@QAEHPBDN@Z		; i3IniParser::WriteValue
PUBLIC	??0i3IniParser@@QAE@ABV0@@Z			; i3IniParser::i3IniParser
PUBLIC	??4i3IniParser@@QAEAAV0@ABV0@@Z			; i3IniParser::operator=
PUBLIC	??_Gi3IniParser@@UAEPAXI@Z			; i3IniParser::`scalar deleting destructor'
PUBLIC	??_Ei3IniParser@@UAEPAXI@Z			; i3IniParser::`vector deleting destructor'
PUBLIC	?GetClassMeta@i3LineLexer@@SAPAVi3ClassMeta@@XZ	; i3LineLexer::GetClassMeta
PUBLIC	?GetMasterString@i3LineLexer@@QAEPADXZ		; i3LineLexer::GetMasterString
PUBLIC	?getCurrentPosition@i3LineLexer@@QAEPADXZ	; i3LineLexer::getCurrentPosition
PUBLIC	??0i3LineLexer@@QAE@ABV0@@Z			; i3LineLexer::i3LineLexer
PUBLIC	??4i3LineLexer@@QAEAAV0@ABV0@@Z			; i3LineLexer::operator=
PUBLIC	??_Gi3LineLexer@@UAEPAXI@Z			; i3LineLexer::`scalar deleting destructor'
PUBLIC	??_Ei3LineLexer@@UAEPAXI@Z			; i3LineLexer::`vector deleting destructor'
PUBLIC	?GetClassMeta@i3SimpleLineLexer@@SAPAVi3ClassMeta@@XZ ; i3SimpleLineLexer::GetClassMeta
PUBLIC	??0i3SimpleLineLexer@@QAE@ABV0@@Z		; i3SimpleLineLexer::i3SimpleLineLexer
PUBLIC	??4i3SimpleLineLexer@@QAEAAV0@ABV0@@Z		; i3SimpleLineLexer::operator=
PUBLIC	??_Gi3SimpleLineLexer@@UAEPAXI@Z		; i3SimpleLineLexer::`scalar deleting destructor'
PUBLIC	??_Ei3SimpleLineLexer@@UAEPAXI@Z		; i3SimpleLineLexer::`vector deleting destructor'
PUBLIC	?GetClassMeta@i3Timer@@SAPAVi3ClassMeta@@XZ	; i3Timer::GetClassMeta
PUBLIC	??0i3Timer@@QAE@ABV0@@Z				; i3Timer::i3Timer
PUBLIC	??4i3Timer@@QAEAAV0@ABV0@@Z			; i3Timer::operator=
PUBLIC	??_Gi3Timer@@UAEPAXI@Z				; i3Timer::`scalar deleting destructor'
PUBLIC	??_Ei3Timer@@UAEPAXI@Z				; i3Timer::`vector deleting destructor'
PUBLIC	??0?$i3MetaTemplate@Vi3IniParser@@@@QAE@IPAD0W4I3_CLASSMETA_TYPE@@@Z ; i3MetaTemplate<i3IniParser>::i3MetaTemplate<i3IniParser>
PUBLIC	?_OptionsStorage@?1??__local_stdio_printf_options@@9@4_KA ; `__local_stdio_printf_options'::`2'::_OptionsStorage
PUBLIC	??_7i3ClassMeta@@6B@				; i3ClassMeta::`vftable'
PUBLIC	??_7i3ElementBase@@6B@				; i3ElementBase::`vftable'
PUBLIC	??_7i3MemoryPool@@6B@				; i3MemoryPool::`vftable'
PUBLIC	??_7i3Stream@@6B@				; i3Stream::`vftable'
PUBLIC	??_7i3FileStream@@6B@				; i3FileStream::`vftable'
PUBLIC	??_7TiXmlVisitor@@6B@				; TiXmlVisitor::`vftable'
PUBLIC	??_7TiXmlBase@@6B@				; TiXmlBase::`vftable'
PUBLIC	??_7TiXmlAttribute@@6B@				; TiXmlAttribute::`vftable'
PUBLIC	??_7TiXmlComment@@6B@				; TiXmlComment::`vftable'
PUBLIC	??_7TiXmlText@@6B@				; TiXmlText::`vftable'
PUBLIC	??_7TiXmlDeclaration@@6B@			; TiXmlDeclaration::`vftable'
PUBLIC	??_7TiXmlUnknown@@6B@				; TiXmlUnknown::`vftable'
PUBLIC	??_7TiXmlDocument@@6B@				; TiXmlDocument::`vftable'
PUBLIC	??_C@_00CNPNBAHC@@				; `string'
PUBLIC	??_7TiXmlPrinter@@6B@				; TiXmlPrinter::`vftable'
PUBLIC	??_C@_04PFOHOKJK@?5?5?5?5@			; `string'
PUBLIC	??_C@_01EEMJAFIK@?6@				; `string'
PUBLIC	??_7i3XMLElement@@6B@				; i3XMLElement::`vftable'
PUBLIC	??_7i3List@@6B@					; i3List::`vftable'
PUBLIC	??_C@_0GD@LNMGNFKI@E?3?2Proyectos?2JuegosOnlineproyec@ ; `string'
PUBLIC	??_7i3StringList@@6B@				; i3StringList::`vftable'
PUBLIC	??_7i3IniParser@@6B@				; i3IniParser::`vftable'
PUBLIC	??_7i3LineLexer@@6B@				; i3LineLexer::`vftable'
PUBLIC	??_7i3SimpleLineLexer@@6B@			; i3SimpleLineLexer::`vftable'
PUBLIC	??_7i3Timer@@6B@				; i3Timer::`vftable'
PUBLIC	??_C@_0DB@ONEFMAII@int?5__thiscall?5i3IniParser?3?3Cre@ ; `string'
PUBLIC	??_C@_0GG@LIGOM@E?3?2Proyectos?2JuegosOnlineproyec@ ; `string'
PUBLIC	??_C@_0BI@GMCEFIID@Could?5not?5create?5file?4?6@ ; `string'
PUBLIC	??_C@_0DL@CHHOFFHM@int?5__thiscall?5i3IniParser?3?3Ope@ ; `string'
PUBLIC	??_C@_0BG@MILPOODI@Could?5not?5open?5file?4?6@	; `string'
PUBLIC	??_C@_0DL@KGJFMIKH@int?5__thiscall?5i3IniParser?3?3Ope@ ; `string'
PUBLIC	??_C@_0BH@POMKDHLO@Section?5name?5is?5NULL?4?6@	; `string'
PUBLIC	??_C@_0BM@BLONCBOG@Section?5name?5is?5duplicated?6@ ; `string'
PUBLIC	??_C@_0EJ@KOPGLENC@int?5__thiscall?5i3IniParser?3?3Rea@ ; `string'
PUBLIC	??_C@_0BE@DLJIIAFH@m_pStream?5is?5NULL?4?6@	; `string'
PUBLIC	??_C@_0BA@JEIBDMBE@pInfo?5is?5NULL?4?6@		; `string'
PUBLIC	??_C@_0BP@CCBDLFBK@i3IniParser?3?3ReadSectionByInfo@ ; `string'
PUBLIC	??_C@_0BN@IFIOBCJG@ERROR?5?3?5?$FL?$CFs?$FN?5pInfo?5is?5NULL?4?6@ ; `string'
PUBLIC	??_C@_0L@LMGNLEPG@Config?4ini@			; `string'
PUBLIC	??_C@_0DG@CIBHBENN@ERROR?3?5?$FLReadSectionByInfo?$FN?5Sect@ ; `string'
PUBLIC	??_C@_0BK@JNFPJABN@szLabel?5name?5is?5too?5long?6@ ; `string'
PUBLIC	??_C@_0CD@CHADIGIF@szLabel?5value?5string?5is?5too?5lon@ ; `string'
PUBLIC	??_C@_0EB@LPNLFBLF@const?5char?5?$CK__thiscall?5i3IniPar@ ; `string'
PUBLIC	??_C@_0BM@BCLBIDHM@Value?5Table?5is?5not?5exist?4?5?6@ ; `string'
PUBLIC	??_C@_0DO@IJEJHCOG@int?5__thiscall?5i3IniParser?3?3Get@ ; `string'
PUBLIC	??_C@_0BL@IJNEAJGP@Value?5Table?5is?5not?5exist?4?6@ ; `string'
PUBLIC	??_C@_0BG@NIGHIBJ@nBufLength?5is?5zero?4?5?6@	; `string'
PUBLIC	??_C@_0BL@OBHDNFFG@nBufLength?5is?5too?5short?4?5?6@ ; `string'
PUBLIC	??_C@_01GAPBHFFA@T@				; `string'
PUBLIC	??_C@_01NFFPALBN@Y@				; `string'
PUBLIC	??_C@_01BIAFAFID@F@				; `string'
PUBLIC	??_C@_01NANMIPIL@N@				; `string'
PUBLIC	??_C@_04LLEBNMDN@?$CFs?$AN?6@			; `string'
PUBLIC	??_C@_09MJNNNHCA@?$CFs?5?$DN?5?$CFs?$AN?6@	; `string'
PUBLIC	??_C@_04LIFAFMCE@?$FL?$CFs?$FN@			; `string'
PUBLIC	??_C@_04HPMIDMKH@True@				; `string'
PUBLIC	??_C@_05MKDOIIA@False@				; `string'
PUBLIC	??_C@_02DKCKIIND@?$CFs@				; `string'
PUBLIC	??_C@_04OEDFLLKD@?$CC?$CFs?$CC@			; `string'
PUBLIC	??_C@_02DPKJAMEF@?$CFd@				; `string'
PUBLIC	??_C@_02NJPGOMH@?$CFf@				; `string'
PUBLIC	??_C@_03DLDNIBIK@?$CFlf@			; `string'
PUBLIC	??_R4i3ElementBase@@6B@				; i3ElementBase::`RTTI Complete Object Locator'
PUBLIC	??_R0?AVi3ElementBase@@@8			; i3ElementBase `RTTI Type Descriptor'
PUBLIC	??_R3i3ElementBase@@8				; i3ElementBase::`RTTI Class Hierarchy Descriptor'
PUBLIC	??_R2i3ElementBase@@8				; i3ElementBase::`RTTI Base Class Array'
PUBLIC	??_R1A@?0A@EA@i3ElementBase@@8			; i3ElementBase::`RTTI Base Class Descriptor at (0,-1,0,64)'
PUBLIC	??_R4i3List@@6B@				; i3List::`RTTI Complete Object Locator'
PUBLIC	??_R0?AVi3List@@@8				; i3List `RTTI Type Descriptor'
PUBLIC	??_R3i3List@@8					; i3List::`RTTI Class Hierarchy Descriptor'
PUBLIC	??_R2i3List@@8					; i3List::`RTTI Base Class Array'
PUBLIC	??_R1A@?0A@EA@i3List@@8				; i3List::`RTTI Base Class Descriptor at (0,-1,0,64)'
PUBLIC	??_R4i3MemoryPool@@6B@				; i3MemoryPool::`RTTI Complete Object Locator'
PUBLIC	??_R0?AVi3MemoryPool@@@8			; i3MemoryPool `RTTI Type Descriptor'
PUBLIC	??_R3i3MemoryPool@@8				; i3MemoryPool::`RTTI Class Hierarchy Descriptor'
PUBLIC	??_R2i3MemoryPool@@8				; i3MemoryPool::`RTTI Base Class Array'
PUBLIC	??_R1A@?0A@EA@i3MemoryPool@@8			; i3MemoryPool::`RTTI Base Class Descriptor at (0,-1,0,64)'
PUBLIC	??_R4i3ClassMeta@@6B@				; i3ClassMeta::`RTTI Complete Object Locator'
PUBLIC	??_R4i3StringList@@6B@				; i3StringList::`RTTI Complete Object Locator'
PUBLIC	??_R0?AVi3StringList@@@8			; i3StringList `RTTI Type Descriptor'
PUBLIC	??_R3i3StringList@@8				; i3StringList::`RTTI Class Hierarchy Descriptor'
PUBLIC	??_R2i3StringList@@8				; i3StringList::`RTTI Base Class Array'
PUBLIC	??_R1A@?0A@EA@i3StringList@@8			; i3StringList::`RTTI Base Class Descriptor at (0,-1,0,64)'
PUBLIC	??_R4i3Stream@@6B@				; i3Stream::`RTTI Complete Object Locator'
PUBLIC	??_R0?AVi3Stream@@@8				; i3Stream `RTTI Type Descriptor'
PUBLIC	??_R3i3Stream@@8				; i3Stream::`RTTI Class Hierarchy Descriptor'
PUBLIC	??_R2i3Stream@@8				; i3Stream::`RTTI Base Class Array'
PUBLIC	??_R1A@?0A@EA@i3Stream@@8			; i3Stream::`RTTI Base Class Descriptor at (0,-1,0,64)'
PUBLIC	??_R4i3FileStream@@6B@				; i3FileStream::`RTTI Complete Object Locator'
PUBLIC	??_R0?AVi3FileStream@@@8			; i3FileStream `RTTI Type Descriptor'
PUBLIC	??_R3i3FileStream@@8				; i3FileStream::`RTTI Class Hierarchy Descriptor'
PUBLIC	??_R2i3FileStream@@8				; i3FileStream::`RTTI Base Class Array'
PUBLIC	??_R1A@?0A@EA@i3FileStream@@8			; i3FileStream::`RTTI Base Class Descriptor at (0,-1,0,64)'
PUBLIC	??_R4TiXmlDocument@@6B@				; TiXmlDocument::`RTTI Complete Object Locator'
PUBLIC	??_R0?AVTiXmlDocument@@@8			; TiXmlDocument `RTTI Type Descriptor'
PUBLIC	??_R3TiXmlDocument@@8				; TiXmlDocument::`RTTI Class Hierarchy Descriptor'
PUBLIC	??_R2TiXmlDocument@@8				; TiXmlDocument::`RTTI Base Class Array'
PUBLIC	??_R1A@?0A@EA@TiXmlDocument@@8			; TiXmlDocument::`RTTI Base Class Descriptor at (0,-1,0,64)'
PUBLIC	??_R1A@?0A@EA@TiXmlNode@@8			; TiXmlNode::`RTTI Base Class Descriptor at (0,-1,0,64)'
PUBLIC	??_R0?AVTiXmlNode@@@8				; TiXmlNode `RTTI Type Descriptor'
PUBLIC	??_R3TiXmlNode@@8				; TiXmlNode::`RTTI Class Hierarchy Descriptor'
PUBLIC	??_R2TiXmlNode@@8				; TiXmlNode::`RTTI Base Class Array'
PUBLIC	??_R1A@?0A@EA@TiXmlBase@@8			; TiXmlBase::`RTTI Base Class Descriptor at (0,-1,0,64)'
PUBLIC	??_R0?AVTiXmlBase@@@8				; TiXmlBase `RTTI Type Descriptor'
PUBLIC	??_R3TiXmlBase@@8				; TiXmlBase::`RTTI Class Hierarchy Descriptor'
PUBLIC	??_R2TiXmlBase@@8				; TiXmlBase::`RTTI Base Class Array'
PUBLIC	??_R4TiXmlComment@@6B@				; TiXmlComment::`RTTI Complete Object Locator'
PUBLIC	??_R0?AVTiXmlComment@@@8			; TiXmlComment `RTTI Type Descriptor'
PUBLIC	??_R3TiXmlComment@@8				; TiXmlComment::`RTTI Class Hierarchy Descriptor'
PUBLIC	??_R2TiXmlComment@@8				; TiXmlComment::`RTTI Base Class Array'
PUBLIC	??_R1A@?0A@EA@TiXmlComment@@8			; TiXmlComment::`RTTI Base Class Descriptor at (0,-1,0,64)'
PUBLIC	??_R4TiXmlUnknown@@6B@				; TiXmlUnknown::`RTTI Complete Object Locator'
PUBLIC	??_R0?AVTiXmlUnknown@@@8			; TiXmlUnknown `RTTI Type Descriptor'
PUBLIC	??_R3TiXmlUnknown@@8				; TiXmlUnknown::`RTTI Class Hierarchy Descriptor'
PUBLIC	??_R2TiXmlUnknown@@8				; TiXmlUnknown::`RTTI Base Class Array'
PUBLIC	??_R1A@?0A@EA@TiXmlUnknown@@8			; TiXmlUnknown::`RTTI Base Class Descriptor at (0,-1,0,64)'
PUBLIC	??_R4TiXmlAttribute@@6B@			; TiXmlAttribute::`RTTI Complete Object Locator'
PUBLIC	??_R0?AVTiXmlAttribute@@@8			; TiXmlAttribute `RTTI Type Descriptor'
PUBLIC	??_R3TiXmlAttribute@@8				; TiXmlAttribute::`RTTI Class Hierarchy Descriptor'
PUBLIC	??_R2TiXmlAttribute@@8				; TiXmlAttribute::`RTTI Base Class Array'
PUBLIC	??_R1A@?0A@EA@TiXmlAttribute@@8			; TiXmlAttribute::`RTTI Base Class Descriptor at (0,-1,0,64)'
PUBLIC	??_R4TiXmlText@@6B@				; TiXmlText::`RTTI Complete Object Locator'
PUBLIC	??_R0?AVTiXmlText@@@8				; TiXmlText `RTTI Type Descriptor'
PUBLIC	??_R3TiXmlText@@8				; TiXmlText::`RTTI Class Hierarchy Descriptor'
PUBLIC	??_R2TiXmlText@@8				; TiXmlText::`RTTI Base Class Array'
PUBLIC	??_R1A@?0A@EA@TiXmlText@@8			; TiXmlText::`RTTI Base Class Descriptor at (0,-1,0,64)'
PUBLIC	??_R4TiXmlDeclaration@@6B@			; TiXmlDeclaration::`RTTI Complete Object Locator'
PUBLIC	??_R0?AVTiXmlDeclaration@@@8			; TiXmlDeclaration `RTTI Type Descriptor'
PUBLIC	??_R3TiXmlDeclaration@@8			; TiXmlDeclaration::`RTTI Class Hierarchy Descriptor'
PUBLIC	??_R2TiXmlDeclaration@@8			; TiXmlDeclaration::`RTTI Base Class Array'
PUBLIC	??_R1A@?0A@EA@TiXmlDeclaration@@8		; TiXmlDeclaration::`RTTI Base Class Descriptor at (0,-1,0,64)'
PUBLIC	??_R4TiXmlVisitor@@6B@				; TiXmlVisitor::`RTTI Complete Object Locator'
PUBLIC	??_R0?AVTiXmlVisitor@@@8			; TiXmlVisitor `RTTI Type Descriptor'
PUBLIC	??_R3TiXmlVisitor@@8				; TiXmlVisitor::`RTTI Class Hierarchy Descriptor'
PUBLIC	??_R2TiXmlVisitor@@8				; TiXmlVisitor::`RTTI Base Class Array'
PUBLIC	??_R1A@?0A@EA@TiXmlVisitor@@8			; TiXmlVisitor::`RTTI Base Class Descriptor at (0,-1,0,64)'
PUBLIC	??_R4TiXmlBase@@6B@				; TiXmlBase::`RTTI Complete Object Locator'
PUBLIC	??_R4TiXmlPrinter@@6B@				; TiXmlPrinter::`RTTI Complete Object Locator'
PUBLIC	??_R0?AVTiXmlPrinter@@@8			; TiXmlPrinter `RTTI Type Descriptor'
PUBLIC	??_R3TiXmlPrinter@@8				; TiXmlPrinter::`RTTI Class Hierarchy Descriptor'
PUBLIC	??_R2TiXmlPrinter@@8				; TiXmlPrinter::`RTTI Base Class Array'
PUBLIC	??_R1A@?0A@EA@TiXmlPrinter@@8			; TiXmlPrinter::`RTTI Base Class Descriptor at (0,-1,0,64)'
PUBLIC	??_R4i3XMLElement@@6B@				; i3XMLElement::`RTTI Complete Object Locator'
PUBLIC	??_R0?AVi3XMLElement@@@8			; i3XMLElement `RTTI Type Descriptor'
PUBLIC	??_R3i3XMLElement@@8				; i3XMLElement::`RTTI Class Hierarchy Descriptor'
PUBLIC	??_R2i3XMLElement@@8				; i3XMLElement::`RTTI Base Class Array'
PUBLIC	??_R1A@?0A@EA@i3XMLElement@@8			; i3XMLElement::`RTTI Base Class Descriptor at (0,-1,0,64)'
PUBLIC	??_R1A@?0A@EA@TiXmlElement@@8			; TiXmlElement::`RTTI Base Class Descriptor at (0,-1,0,64)'
PUBLIC	??_R0?AVTiXmlElement@@@8			; TiXmlElement `RTTI Type Descriptor'
PUBLIC	??_R3TiXmlElement@@8				; TiXmlElement::`RTTI Class Hierarchy Descriptor'
PUBLIC	??_R2TiXmlElement@@8				; TiXmlElement::`RTTI Base Class Array'
PUBLIC	??_R4i3IniParser@@6B@				; i3IniParser::`RTTI Complete Object Locator'
PUBLIC	??_R0?AVi3IniParser@@@8				; i3IniParser `RTTI Type Descriptor'
PUBLIC	??_R3i3IniParser@@8				; i3IniParser::`RTTI Class Hierarchy Descriptor'
PUBLIC	??_R2i3IniParser@@8				; i3IniParser::`RTTI Base Class Array'
PUBLIC	??_R1A@?0A@EA@i3IniParser@@8			; i3IniParser::`RTTI Base Class Descriptor at (0,-1,0,64)'
PUBLIC	??_R4i3LineLexer@@6B@				; i3LineLexer::`RTTI Complete Object Locator'
PUBLIC	??_R0?AVi3LineLexer@@@8				; i3LineLexer `RTTI Type Descriptor'
PUBLIC	??_R3i3LineLexer@@8				; i3LineLexer::`RTTI Class Hierarchy Descriptor'
PUBLIC	??_R2i3LineLexer@@8				; i3LineLexer::`RTTI Base Class Array'
PUBLIC	??_R1A@?0A@EA@i3LineLexer@@8			; i3LineLexer::`RTTI Base Class Descriptor at (0,-1,0,64)'
PUBLIC	??_R4i3SimpleLineLexer@@6B@			; i3SimpleLineLexer::`RTTI Complete Object Locator'
PUBLIC	??_R0?AVi3SimpleLineLexer@@@8			; i3SimpleLineLexer `RTTI Type Descriptor'
PUBLIC	??_R3i3SimpleLineLexer@@8			; i3SimpleLineLexer::`RTTI Class Hierarchy Descriptor'
PUBLIC	??_R2i3SimpleLineLexer@@8			; i3SimpleLineLexer::`RTTI Base Class Array'
PUBLIC	??_R1A@?0A@EA@i3SimpleLineLexer@@8		; i3SimpleLineLexer::`RTTI Base Class Descriptor at (0,-1,0,64)'
PUBLIC	??_R4i3Timer@@6B@				; i3Timer::`RTTI Complete Object Locator'
PUBLIC	??_R0?AVi3Timer@@@8				; i3Timer `RTTI Type Descriptor'
PUBLIC	??_R3i3Timer@@8					; i3Timer::`RTTI Class Hierarchy Descriptor'
PUBLIC	??_R2i3Timer@@8					; i3Timer::`RTTI Base Class Array'
PUBLIC	??_R1A@?0A@EA@i3Timer@@8			; i3Timer::`RTTI Base Class Descriptor at (0,-1,0,64)'
EXTRN	??_M@YGXPAXIIP6EX0@Z@Z:PROC			; `eh vector destructor iterator'
EXTRN	__purecall:PROC
EXTRN	??3@YAXPAX@Z:PROC				; operator delete
EXTRN	??3@YAXPAXI@Z:PROC				; operator delete
EXTRN	??_U@YAPAXI@Z:PROC				; operator new[]
EXTRN	??_V@YAXPAX@Z:PROC				; operator delete[]
EXTRN	??_V@YAXPAXI@Z:PROC				; operator delete[]
EXTRN	_atexit:PROC
EXTRN	___report_rangecheckfailure:PROC
EXTRN	___std_terminate:PROC
EXTRN	_isspace:PROC
EXTRN	_tolower:PROC
EXTRN	_strchr:PROC
EXTRN	__imp__WideCharToMultiByte@32:PROC
EXTRN	___stdio_common_vsprintf:PROC
EXTRN	_atof:PROC
EXTRN	__splitpath:PROC
EXTRN	?SetEnv@i3Error@@YAXPBDH0W4I3LOG_TYPE@@@Z:PROC	; i3Error::SetEnv
EXTRN	?Log@i3Error@@YAXPBDZZ:PROC			; i3Error::Log
EXTRN	?AllocTool@i3mem@@YAPAXHHHPBDH@Z:PROC		; i3mem::AllocTool
EXTRN	?FreeTool@i3mem@@YAXPAXPBDH@Z:PROC		; i3mem::FreeTool
EXTRN	??0i3ClassMeta@@QAE@IPAD0W4I3_CLASSMETA_TYPE@@@Z:PROC ; i3ClassMeta::i3ClassMeta
EXTRN	??1i3ClassMeta@@UAE@XZ:PROC			; i3ClassMeta::~i3ClassMeta
EXTRN	?CreateInstance@i3ClassMeta@@UAEPAVi3ElementBase@@W4I3_CLASSMETA_TYPE@@@Z:PROC ; i3ClassMeta::CreateInstance
EXTRN	?BindInstance@i3ClassMeta@@UAEPAVi3ElementBase@@PAXW4I3_CLASSMETA_TYPE@@@Z:PROC ; i3ClassMeta::BindInstance
EXTRN	?IsTypeOf@i3ClassMeta@@QAE_NPAV1@@Z:PROC	; i3ClassMeta::IsTypeOf
EXTRN	?Register@i3ClassMeta@@QAEXXZ:PROC		; i3ClassMeta::Register
EXTRN	?GetConcreteClass@i3ClassMeta@@QAEPAV1@W4I3_CLASSMETA_TYPE@@@Z:PROC ; i3ClassMeta::GetConcreteClass
EXTRN	?SetConcreteClass@i3ClassMeta@@QAEXPAV1@@Z:PROC	; i3ClassMeta::SetConcreteClass
EXTRN	?SetGhostClass@i3ClassMeta@@QAEXPAV1@@Z:PROC	; i3ClassMeta::SetGhostClass
EXTRN	?GetMeta@i3ElementBase@@UAEPAVi3ClassMeta@@XZ:PROC ; i3ElementBase::GetMeta
EXTRN	??0i3ElementBase@@QAE@XZ:PROC			; i3ElementBase::i3ElementBase
EXTRN	??1i3ElementBase@@UAE@XZ:PROC			; i3ElementBase::~i3ElementBase
EXTRN	??2i3ElementBase@@SAPAXI@Z:PROC			; i3ElementBase::operator new
EXTRN	??2i3ElementBase@@SAPAXIPAX@Z:PROC		; i3ElementBase::operator new
EXTRN	??3i3ElementBase@@SAXPAX@Z:PROC			; i3ElementBase::operator delete
EXTRN	??3i3ElementBase@@SAXPAX0@Z:PROC		; i3ElementBase::operator delete
EXTRN	?Release@i3ElementBase@@QAEXXZ:PROC		; i3ElementBase::Release
EXTRN	?CopyTo@i3ElementBase@@UAEXPAV1@W4I3_COPY_METHOD@@@Z:PROC ; i3ElementBase::CopyTo
EXTRN	??1i3MemoryPool@@UAE@XZ:PROC			; i3MemoryPool::~i3MemoryPool
EXTRN	?GetMeta@i3Stream@@UAEPAVi3ClassMeta@@XZ:PROC	; i3Stream::GetMeta
EXTRN	??1i3Stream@@UAE@XZ:PROC			; i3Stream::~i3Stream
EXTRN	?CopyTo@i3Stream@@UAEIPAV1@I@Z:PROC		; i3Stream::CopyTo
EXTRN	?CopyFrom@i3Stream@@UAEIPAV1@I@Z:PROC		; i3Stream::CopyFrom
EXTRN	?ReadLine@i3Stream@@UAEIPADH@Z:PROC		; i3Stream::ReadLine
EXTRN	?ReadLineW@i3Stream@@UAEIPAGH@Z:PROC		; i3Stream::ReadLineW
EXTRN	?WriteLine@i3Stream@@UAEIPBD@Z:PROC		; i3Stream::WriteLine
EXTRN	?WriteLineW@i3Stream@@UAEIPBG@Z:PROC		; i3Stream::WriteLineW
EXTRN	?Printf@i3Stream@@UAAIPADPBDZZ:PROC		; i3Stream::Printf
EXTRN	?GetMeta@i3FileStream@@UAEPAVi3ClassMeta@@XZ:PROC ; i3FileStream::GetMeta
EXTRN	?_NewObject@i3FileStream@@SAPAV1@XZ:PROC	; i3FileStream::_NewObject
EXTRN	??1i3FileStream@@UAE@XZ:PROC			; i3FileStream::~i3FileStream
EXTRN	?Create@i3FileStream@@UAEHPBDHI@Z:PROC		; i3FileStream::Create
EXTRN	?Open@i3FileStream@@UAEHPBDHI@Z:PROC		; i3FileStream::Open
EXTRN	?Close@i3FileStream@@UAEHXZ:PROC		; i3FileStream::Close
EXTRN	?Read@i3FileStream@@UAEIPAXH@Z:PROC		; i3FileStream::Read
EXTRN	?Write@i3FileStream@@UAEIPBXH@Z:PROC		; i3FileStream::Write
EXTRN	?SetPosition@i3FileStream@@UAEIHH@Z:PROC	; i3FileStream::SetPosition
EXTRN	?GetPosition@i3FileStream@@UAEIXZ:PROC		; i3FileStream::GetPosition
EXTRN	?assign@TiXmlString@@QAEAAV1@PBDI@Z:PROC	; TiXmlString::assign
EXTRN	?append@TiXmlString@@QAEAAV1@PBDI@Z:PROC	; TiXmlString::append
EXTRN	?GetEntity@TiXmlBase@@KAPBDPBDPADPAHW4TiXmlEncoding@@@Z:PROC ; TiXmlBase::GetEntity
EXTRN	??1TiXmlNode@@UAE@XZ:PROC			; TiXmlNode::~TiXmlNode
EXTRN	?FirstChild@TiXmlNode@@QBEPBV1@PBD@Z:PROC	; TiXmlNode::FirstChild
EXTRN	?LastChild@TiXmlNode@@QBEPBV1@PBD@Z:PROC	; TiXmlNode::LastChild
EXTRN	?IterateChildren@TiXmlNode@@QBEPBV1@PBV1@@Z:PROC ; TiXmlNode::IterateChildren
EXTRN	?IterateChildren@TiXmlNode@@QBEPBV1@PBDPBV1@@Z:PROC ; TiXmlNode::IterateChildren
EXTRN	?PreviousSibling@TiXmlNode@@QBEPBV1@PBD@Z:PROC	; TiXmlNode::PreviousSibling
EXTRN	?NextSibling@TiXmlNode@@QBEPBV1@PBD@Z:PROC	; TiXmlNode::NextSibling
EXTRN	?NextSiblingElement@TiXmlNode@@QBEPBVTiXmlElement@@XZ:PROC ; TiXmlNode::NextSiblingElement
EXTRN	?NextSiblingElement@TiXmlNode@@QBEPBVTiXmlElement@@PBD@Z:PROC ; TiXmlNode::NextSiblingElement
EXTRN	?FirstChildElement@TiXmlNode@@QBEPBVTiXmlElement@@XZ:PROC ; TiXmlNode::FirstChildElement
EXTRN	?FirstChildElement@TiXmlNode@@QBEPBVTiXmlElement@@PBD@Z:PROC ; TiXmlNode::FirstChildElement
EXTRN	?GetDocument@TiXmlNode@@QBEPBVTiXmlDocument@@XZ:PROC ; TiXmlNode::GetDocument
EXTRN	??0TiXmlNode@@IAE@W4NodeType@0@@Z:PROC		; TiXmlNode::TiXmlNode
EXTRN	?Next@TiXmlAttribute@@QBEPBV1@XZ:PROC		; TiXmlAttribute::Next
EXTRN	?Previous@TiXmlAttribute@@QBEPBV1@XZ:PROC	; TiXmlAttribute::Previous
EXTRN	?Parse@TiXmlAttribute@@UAEPBDPBDPAVTiXmlParsingData@@W4TiXmlEncoding@@@Z:PROC ; TiXmlAttribute::Parse
EXTRN	?Print@TiXmlAttribute@@QBEXPAVi3FileStream@@HPAVTiXmlString@@@Z:PROC ; TiXmlAttribute::Print
EXTRN	?Find@TiXmlAttributeSet@@QBEPBVTiXmlAttribute@@PBD@Z:PROC ; TiXmlAttributeSet::Find
EXTRN	??0TiXmlElement@@QAE@ABV0@@Z:PROC		; TiXmlElement::TiXmlElement
EXTRN	??4TiXmlElement@@QAEXABV0@@Z:PROC		; TiXmlElement::operator=
EXTRN	?Attribute@TiXmlElement@@QBEPBDPBD@Z:PROC	; TiXmlElement::Attribute
EXTRN	?Attribute@TiXmlElement@@QBEPBDPBDPAH@Z:PROC	; TiXmlElement::Attribute
EXTRN	?AttributeLong@TiXmlElement@@QBEPBDPBDPA_J@Z:PROC ; TiXmlElement::AttributeLong
EXTRN	?Attribute@TiXmlElement@@QBEPBDPBDPAN@Z:PROC	; TiXmlElement::Attribute
EXTRN	?QueryDoubleAttribute@TiXmlElement@@QBEHPBDPAN@Z:PROC ; TiXmlElement::QueryDoubleAttribute
EXTRN	?SetAttribute@TiXmlElement@@QAEXPBD0@Z:PROC	; TiXmlElement::SetAttribute
EXTRN	?SetAttribute@TiXmlElement@@QAEXPBDH@Z:PROC	; TiXmlElement::SetAttribute
EXTRN	?SetLongLongAttribute@TiXmlElement@@QAEXPBD_J@Z:PROC ; TiXmlElement::SetLongLongAttribute
EXTRN	?SetAttribute@TiXmlElement@@QAEXPBDM@Z:PROC	; TiXmlElement::SetAttribute
EXTRN	?Clone@TiXmlElement@@UBEPAVTiXmlNode@@XZ:PROC	; TiXmlElement::Clone
EXTRN	?Print@TiXmlElement@@UBEXPAVi3FileStream@@H@Z:PROC ; TiXmlElement::Print
EXTRN	?Parse@TiXmlElement@@UAEPBDPBDPAVTiXmlParsingData@@W4TiXmlEncoding@@@Z:PROC ; TiXmlElement::Parse
EXTRN	?Accept@TiXmlElement@@UBE_NPAVTiXmlVisitor@@@Z:PROC ; TiXmlElement::Accept
EXTRN	?Clone@TiXmlComment@@UBEPAVTiXmlNode@@XZ:PROC	; TiXmlComment::Clone
EXTRN	?Print@TiXmlComment@@UBEXPAVi3FileStream@@H@Z:PROC ; TiXmlComment::Print
EXTRN	?Parse@TiXmlComment@@UAEPBDPBDPAVTiXmlParsingData@@W4TiXmlEncoding@@@Z:PROC ; TiXmlComment::Parse
EXTRN	?Accept@TiXmlComment@@UBE_NPAVTiXmlVisitor@@@Z:PROC ; TiXmlComment::Accept
EXTRN	?Print@TiXmlText@@UBEXPAVi3FileStream@@H@Z:PROC	; TiXmlText::Print
EXTRN	?Parse@TiXmlText@@UAEPBDPBDPAVTiXmlParsingData@@W4TiXmlEncoding@@@Z:PROC ; TiXmlText::Parse
EXTRN	?Accept@TiXmlText@@UBE_NPAVTiXmlVisitor@@@Z:PROC ; TiXmlText::Accept
EXTRN	?Clone@TiXmlText@@MBEPAVTiXmlNode@@XZ:PROC	; TiXmlText::Clone
EXTRN	?CopyTo@TiXmlText@@IBEXPAV1@@Z:PROC		; TiXmlText::CopyTo
EXTRN	?Clone@TiXmlDeclaration@@UBEPAVTiXmlNode@@XZ:PROC ; TiXmlDeclaration::Clone
EXTRN	?Print@TiXmlDeclaration@@UBEXPAVi3FileStream@@HPAVTiXmlString@@@Z:PROC ; TiXmlDeclaration::Print
EXTRN	?Parse@TiXmlDeclaration@@UAEPBDPBDPAVTiXmlParsingData@@W4TiXmlEncoding@@@Z:PROC ; TiXmlDeclaration::Parse
EXTRN	?Accept@TiXmlDeclaration@@UBE_NPAVTiXmlVisitor@@@Z:PROC ; TiXmlDeclaration::Accept
EXTRN	?Clone@TiXmlUnknown@@UBEPAVTiXmlNode@@XZ:PROC	; TiXmlUnknown::Clone
EXTRN	?Print@TiXmlUnknown@@UBEXPAVi3FileStream@@H@Z:PROC ; TiXmlUnknown::Print
EXTRN	?Parse@TiXmlUnknown@@UAEPBDPBDPAVTiXmlParsingData@@W4TiXmlEncoding@@@Z:PROC ; TiXmlUnknown::Parse
EXTRN	?Accept@TiXmlUnknown@@UBE_NPAVTiXmlVisitor@@@Z:PROC ; TiXmlUnknown::Accept
EXTRN	?CopyTo@TiXmlUnknown@@IBEXPAV1@@Z:PROC		; TiXmlUnknown::CopyTo
EXTRN	?Parse@TiXmlDocument@@UAEPBDPBDPAVTiXmlParsingData@@W4TiXmlEncoding@@@Z:PROC ; TiXmlDocument::Parse
EXTRN	?Print@TiXmlDocument@@UBEXPAVi3FileStream@@H@Z:PROC ; TiXmlDocument::Print
EXTRN	?Accept@TiXmlDocument@@UBE_NPAVTiXmlVisitor@@@Z:PROC ; TiXmlDocument::Accept
EXTRN	?Clone@TiXmlDocument@@MBEPAVTiXmlNode@@XZ:PROC	; TiXmlDocument::Clone
EXTRN	?VisitEnter@TiXmlPrinter@@UAE_NABVTiXmlDocument@@@Z:PROC ; TiXmlPrinter::VisitEnter
EXTRN	?VisitExit@TiXmlPrinter@@UAE_NABVTiXmlDocument@@@Z:PROC ; TiXmlPrinter::VisitExit
EXTRN	?VisitEnter@TiXmlPrinter@@UAE_NABVTiXmlElement@@PBVTiXmlAttribute@@@Z:PROC ; TiXmlPrinter::VisitEnter
EXTRN	?VisitExit@TiXmlPrinter@@UAE_NABVTiXmlElement@@@Z:PROC ; TiXmlPrinter::VisitExit
EXTRN	?Visit@TiXmlPrinter@@UAE_NABVTiXmlDeclaration@@@Z:PROC ; TiXmlPrinter::Visit
EXTRN	?Visit@TiXmlPrinter@@UAE_NABVTiXmlText@@@Z:PROC	; TiXmlPrinter::Visit
EXTRN	?Visit@TiXmlPrinter@@UAE_NABVTiXmlComment@@@Z:PROC ; TiXmlPrinter::Visit
EXTRN	?Visit@TiXmlPrinter@@UAE_NABVTiXmlUnknown@@@Z:PROC ; TiXmlPrinter::Visit
EXTRN	??1i3XMLElement@@UAE@XZ:PROC			; i3XMLElement::~i3XMLElement
EXTRN	?GetMeta@i3List@@UAEPAVi3ClassMeta@@XZ:PROC	; i3List::GetMeta
EXTRN	?_NewObject@i3List@@SAPAV1@XZ:PROC		; i3List::_NewObject
EXTRN	??0i3List@@QAE@H@Z:PROC				; i3List::i3List
EXTRN	??1i3List@@UAE@XZ:PROC				; i3List::~i3List
EXTRN	?IndexOf@i3List@@UBEHPBX@Z:PROC			; i3List::IndexOf
EXTRN	?Add@i3List@@UAEHPAX@Z:PROC			; i3List::Add
EXTRN	?Insert@i3List@@UAEHHPAX@Z:PROC			; i3List::Insert
EXTRN	?Delete@i3List@@UAEHH@Z:PROC			; i3List::Delete
EXTRN	?Remove@i3List@@UAEHPAX@Z:PROC			; i3List::Remove
EXTRN	?Clear@i3List@@UAEXH@Z:PROC			; i3List::Clear
EXTRN	?GetMeta@i3StringList@@UAEPAVi3ClassMeta@@XZ:PROC ; i3StringList::GetMeta
EXTRN	??0i3StringList@@QAE@H@Z:PROC			; i3StringList::i3StringList
EXTRN	??1i3StringList@@UAE@XZ:PROC			; i3StringList::~i3StringList
EXTRN	?IndexOf@i3StringList@@UBEHPAD@Z:PROC		; i3StringList::IndexOf
EXTRN	?Add@i3StringList@@UAEHPADH@Z:PROC		; i3StringList::Add
EXTRN	?Insert@i3StringList@@UAEHHPADH@Z:PROC		; i3StringList::Insert
EXTRN	?Delete@i3StringList@@UAEHH@Z:PROC		; i3StringList::Delete
EXTRN	?Remove@i3StringList@@UAEHPAD@Z:PROC		; i3StringList::Remove
EXTRN	?Clear@i3StringList@@UAEXXZ:PROC		; i3StringList::Clear
EXTRN	?Compare@i3String@@YAHPBD0@Z:PROC		; i3String::Compare
EXTRN	?NCompare@i3String@@YAHPBD0H@Z:PROC		; i3String::NCompare
EXTRN	?Copy@i3String@@YAXPADPBDH@Z:PROC		; i3String::Copy
EXTRN	?Length@i3String@@YAHPBD@Z:PROC			; i3String::Length
EXTRN	?Length@i3String@@YAHPBG@Z:PROC			; i3String::Length
EXTRN	?Concat@i3String@@YAXPADPBD@Z:PROC		; i3String::Concat
EXTRN	?ToInt@i3String@@YAHPBD@Z:PROC			; i3String::ToInt
EXTRN	?GetMeta@i3LineLexer@@UAEPAVi3ClassMeta@@XZ:PROC ; i3LineLexer::GetMeta
EXTRN	??1i3LineLexer@@UAE@XZ:PROC			; i3LineLexer::~i3LineLexer
EXTRN	?GetMeta@i3SimpleLineLexer@@UAEPAVi3ClassMeta@@XZ:PROC ; i3SimpleLineLexer::GetMeta
EXTRN	??0i3SimpleLineLexer@@QAE@XZ:PROC		; i3SimpleLineLexer::i3SimpleLineLexer
EXTRN	??1i3SimpleLineLexer@@UAE@XZ:PROC		; i3SimpleLineLexer::~i3SimpleLineLexer
EXTRN	?GetValuesFromString@i3SimpleLineLexer@@QAEHPAHHHPAD@Z:PROC ; i3SimpleLineLexer::GetValuesFromString
EXTRN	?GetValuesFromString@i3SimpleLineLexer@@QAEHPAMHHPAD@Z:PROC ; i3SimpleLineLexer::GetValuesFromString
EXTRN	?GetMeta@i3Timer@@UAEPAVi3ClassMeta@@XZ:PROC	; i3Timer::GetMeta
EXTRN	??1i3Timer@@UAE@XZ:PROC				; i3Timer::~i3Timer
EXTRN	?GetCurrentCodePage@i3Language@@YAIXZ:PROC	; i3Language::GetCurrentCodePage
EXTRN	@__security_check_cookie@4:PROC
EXTRN	___CxxFrameHandler3:PROC
EXTRN	_memcpy:PROC
EXTRN	_memset:PROC
EXTRN	?s_pClassMetai3ElementBase@i3ElementBase@@2PAVi3ClassMeta@@A:DWORD ; i3ElementBase::s_pClassMetai3ElementBase
EXTRN	?s_pClassMetai3Stream@i3Stream@@2PAVi3ClassMeta@@A:DWORD ; i3Stream::s_pClassMetai3Stream
EXTRN	?s_pClassMetai3FileStream@i3FileStream@@2PAVi3ClassMeta@@A:DWORD ; i3FileStream::s_pClassMetai3FileStream
EXTRN	?m_bCaseSensitive@i3FileStream@@1HA:DWORD	; i3FileStream::m_bCaseSensitive
EXTRN	?npos@TiXmlString@@2IB:DWORD			; TiXmlString::npos
EXTRN	?nullrep_@TiXmlString@@0URep@1@A:BYTE		; TiXmlString::nullrep_
EXTRN	?utf8ByteTable@TiXmlBase@@2QBHB:BYTE		; TiXmlBase::utf8ByteTable
EXTRN	?condenseWhiteSpace@TiXmlBase@@0_NA:BYTE	; TiXmlBase::condenseWhiteSpace
EXTRN	?s_pClassMetai3List@i3List@@2PAVi3ClassMeta@@A:DWORD ; i3List::s_pClassMetai3List
EXTRN	?s_pClassMetai3StringList@i3StringList@@2PAVi3ClassMeta@@A:DWORD ; i3StringList::s_pClassMetai3StringList
EXTRN	?s_pClassMetai3LineLexer@i3LineLexer@@2PAVi3ClassMeta@@A:DWORD ; i3LineLexer::s_pClassMetai3LineLexer
EXTRN	?s_pClassMetai3SimpleLineLexer@i3SimpleLineLexer@@2PAVi3ClassMeta@@A:DWORD ; i3SimpleLineLexer::s_pClassMetai3SimpleLineLexer
EXTRN	?s_pClassMetai3Timer@i3Timer@@2PAVi3ClassMeta@@A:DWORD ; i3Timer::s_pClassMetai3Timer
EXTRN	___security_cookie:DWORD
EXTRN	__fltused:DWORD
;	COMDAT ?_OptionsStorage@?1??__local_stdio_printf_options@@9@4_KA
_BSS	SEGMENT
?_OptionsStorage@?1??__local_stdio_printf_options@@9@4_KA DQ 01H DUP (?) ; `__local_stdio_printf_options'::`2'::_OptionsStorage
_BSS	ENDS
_BSS	SEGMENT
?s_ClassMetai3IniParser@@3V?$i3MetaTemplate@Vi3IniParser@@@@A DB 038H DUP (?) ; s_ClassMetai3IniParser
_BSS	ENDS
CRT$XCU	SEGMENT
?s_ClassMetai3IniParser$initializer$@@3P6AXXZA DD FLAT:??__Es_ClassMetai3IniParser@@YAXXZ ; s_ClassMetai3IniParser$initializer$
CRT$XCU	ENDS
;	COMDAT ??_R1A@?0A@EA@i3Timer@@8
rdata$r	SEGMENT
??_R1A@?0A@EA@i3Timer@@8 DD FLAT:??_R0?AVi3Timer@@@8	; i3Timer::`RTTI Base Class Descriptor at (0,-1,0,64)'
	DD	01H
	DD	00H
	DD	0ffffffffH
	DD	00H
	DD	040H
	DD	FLAT:??_R3i3Timer@@8
rdata$r	ENDS
;	COMDAT ??_R2i3Timer@@8
rdata$r	SEGMENT
??_R2i3Timer@@8 DD FLAT:??_R1A@?0A@EA@i3Timer@@8	; i3Timer::`RTTI Base Class Array'
	DD	FLAT:??_R1A@?0A@EA@i3ElementBase@@8
rdata$r	ENDS
;	COMDAT ??_R3i3Timer@@8
rdata$r	SEGMENT
??_R3i3Timer@@8 DD 00H					; i3Timer::`RTTI Class Hierarchy Descriptor'
	DD	00H
	DD	02H
	DD	FLAT:??_R2i3Timer@@8
rdata$r	ENDS
;	COMDAT ??_R0?AVi3Timer@@@8
data$rs	SEGMENT
??_R0?AVi3Timer@@@8 DD FLAT:??_7type_info@@6B@		; i3Timer `RTTI Type Descriptor'
	DD	00H
	DB	'.?AVi3Timer@@', 00H
data$rs	ENDS
;	COMDAT ??_R4i3Timer@@6B@
rdata$r	SEGMENT
??_R4i3Timer@@6B@ DD 00H				; i3Timer::`RTTI Complete Object Locator'
	DD	00H
	DD	00H
	DD	FLAT:??_R0?AVi3Timer@@@8
	DD	FLAT:??_R3i3Timer@@8
rdata$r	ENDS
;	COMDAT ??_R1A@?0A@EA@i3SimpleLineLexer@@8
rdata$r	SEGMENT
??_R1A@?0A@EA@i3SimpleLineLexer@@8 DD FLAT:??_R0?AVi3SimpleLineLexer@@@8 ; i3SimpleLineLexer::`RTTI Base Class Descriptor at (0,-1,0,64)'
	DD	01H
	DD	00H
	DD	0ffffffffH
	DD	00H
	DD	040H
	DD	FLAT:??_R3i3SimpleLineLexer@@8
rdata$r	ENDS
;	COMDAT ??_R2i3SimpleLineLexer@@8
rdata$r	SEGMENT
??_R2i3SimpleLineLexer@@8 DD FLAT:??_R1A@?0A@EA@i3SimpleLineLexer@@8 ; i3SimpleLineLexer::`RTTI Base Class Array'
	DD	FLAT:??_R1A@?0A@EA@i3ElementBase@@8
rdata$r	ENDS
;	COMDAT ??_R3i3SimpleLineLexer@@8
rdata$r	SEGMENT
??_R3i3SimpleLineLexer@@8 DD 00H			; i3SimpleLineLexer::`RTTI Class Hierarchy Descriptor'
	DD	00H
	DD	02H
	DD	FLAT:??_R2i3SimpleLineLexer@@8
rdata$r	ENDS
;	COMDAT ??_R0?AVi3SimpleLineLexer@@@8
data$rs	SEGMENT
??_R0?AVi3SimpleLineLexer@@@8 DD FLAT:??_7type_info@@6B@ ; i3SimpleLineLexer `RTTI Type Descriptor'
	DD	00H
	DB	'.?AVi3SimpleLineLexer@@', 00H
data$rs	ENDS
;	COMDAT ??_R4i3SimpleLineLexer@@6B@
rdata$r	SEGMENT
??_R4i3SimpleLineLexer@@6B@ DD 00H			; i3SimpleLineLexer::`RTTI Complete Object Locator'
	DD	00H
	DD	00H
	DD	FLAT:??_R0?AVi3SimpleLineLexer@@@8
	DD	FLAT:??_R3i3SimpleLineLexer@@8
rdata$r	ENDS
;	COMDAT ??_R1A@?0A@EA@i3LineLexer@@8
rdata$r	SEGMENT
??_R1A@?0A@EA@i3LineLexer@@8 DD FLAT:??_R0?AVi3LineLexer@@@8 ; i3LineLexer::`RTTI Base Class Descriptor at (0,-1,0,64)'
	DD	01H
	DD	00H
	DD	0ffffffffH
	DD	00H
	DD	040H
	DD	FLAT:??_R3i3LineLexer@@8
rdata$r	ENDS
;	COMDAT ??_R2i3LineLexer@@8
rdata$r	SEGMENT
??_R2i3LineLexer@@8 DD FLAT:??_R1A@?0A@EA@i3LineLexer@@8 ; i3LineLexer::`RTTI Base Class Array'
	DD	FLAT:??_R1A@?0A@EA@i3ElementBase@@8
rdata$r	ENDS
;	COMDAT ??_R3i3LineLexer@@8
rdata$r	SEGMENT
??_R3i3LineLexer@@8 DD 00H				; i3LineLexer::`RTTI Class Hierarchy Descriptor'
	DD	00H
	DD	02H
	DD	FLAT:??_R2i3LineLexer@@8
rdata$r	ENDS
;	COMDAT ??_R0?AVi3LineLexer@@@8
data$rs	SEGMENT
??_R0?AVi3LineLexer@@@8 DD FLAT:??_7type_info@@6B@	; i3LineLexer `RTTI Type Descriptor'
	DD	00H
	DB	'.?AVi3LineLexer@@', 00H
data$rs	ENDS
;	COMDAT ??_R4i3LineLexer@@6B@
rdata$r	SEGMENT
??_R4i3LineLexer@@6B@ DD 00H				; i3LineLexer::`RTTI Complete Object Locator'
	DD	00H
	DD	00H
	DD	FLAT:??_R0?AVi3LineLexer@@@8
	DD	FLAT:??_R3i3LineLexer@@8
rdata$r	ENDS
;	COMDAT ??_R1A@?0A@EA@i3IniParser@@8
rdata$r	SEGMENT
??_R1A@?0A@EA@i3IniParser@@8 DD FLAT:??_R0?AVi3IniParser@@@8 ; i3IniParser::`RTTI Base Class Descriptor at (0,-1,0,64)'
	DD	01H
	DD	00H
	DD	0ffffffffH
	DD	00H
	DD	040H
	DD	FLAT:??_R3i3IniParser@@8
rdata$r	ENDS
;	COMDAT ??_R2i3IniParser@@8
rdata$r	SEGMENT
??_R2i3IniParser@@8 DD FLAT:??_R1A@?0A@EA@i3IniParser@@8 ; i3IniParser::`RTTI Base Class Array'
	DD	FLAT:??_R1A@?0A@EA@i3ElementBase@@8
rdata$r	ENDS
;	COMDAT ??_R3i3IniParser@@8
rdata$r	SEGMENT
??_R3i3IniParser@@8 DD 00H				; i3IniParser::`RTTI Class Hierarchy Descriptor'
	DD	00H
	DD	02H
	DD	FLAT:??_R2i3IniParser@@8
rdata$r	ENDS
;	COMDAT ??_R0?AVi3IniParser@@@8
data$rs	SEGMENT
??_R0?AVi3IniParser@@@8 DD FLAT:??_7type_info@@6B@	; i3IniParser `RTTI Type Descriptor'
	DD	00H
	DB	'.?AVi3IniParser@@', 00H
data$rs	ENDS
;	COMDAT ??_R4i3IniParser@@6B@
rdata$r	SEGMENT
??_R4i3IniParser@@6B@ DD 00H				; i3IniParser::`RTTI Complete Object Locator'
	DD	00H
	DD	00H
	DD	FLAT:??_R0?AVi3IniParser@@@8
	DD	FLAT:??_R3i3IniParser@@8
rdata$r	ENDS
;	COMDAT ??_R2TiXmlElement@@8
rdata$r	SEGMENT
??_R2TiXmlElement@@8 DD FLAT:??_R1A@?0A@EA@TiXmlElement@@8 ; TiXmlElement::`RTTI Base Class Array'
	DD	FLAT:??_R1A@?0A@EA@TiXmlNode@@8
	DD	FLAT:??_R1A@?0A@EA@TiXmlBase@@8
rdata$r	ENDS
;	COMDAT ??_R3TiXmlElement@@8
rdata$r	SEGMENT
??_R3TiXmlElement@@8 DD 00H				; TiXmlElement::`RTTI Class Hierarchy Descriptor'
	DD	00H
	DD	03H
	DD	FLAT:??_R2TiXmlElement@@8
rdata$r	ENDS
;	COMDAT ??_R0?AVTiXmlElement@@@8
data$rs	SEGMENT
??_R0?AVTiXmlElement@@@8 DD FLAT:??_7type_info@@6B@	; TiXmlElement `RTTI Type Descriptor'
	DD	00H
	DB	'.?AVTiXmlElement@@', 00H
data$rs	ENDS
;	COMDAT ??_R1A@?0A@EA@TiXmlElement@@8
rdata$r	SEGMENT
??_R1A@?0A@EA@TiXmlElement@@8 DD FLAT:??_R0?AVTiXmlElement@@@8 ; TiXmlElement::`RTTI Base Class Descriptor at (0,-1,0,64)'
	DD	02H
	DD	00H
	DD	0ffffffffH
	DD	00H
	DD	040H
	DD	FLAT:??_R3TiXmlElement@@8
rdata$r	ENDS
;	COMDAT ??_R1A@?0A@EA@i3XMLElement@@8
rdata$r	SEGMENT
??_R1A@?0A@EA@i3XMLElement@@8 DD FLAT:??_R0?AVi3XMLElement@@@8 ; i3XMLElement::`RTTI Base Class Descriptor at (0,-1,0,64)'
	DD	03H
	DD	00H
	DD	0ffffffffH
	DD	00H
	DD	040H
	DD	FLAT:??_R3i3XMLElement@@8
rdata$r	ENDS
;	COMDAT ??_R2i3XMLElement@@8
rdata$r	SEGMENT
??_R2i3XMLElement@@8 DD FLAT:??_R1A@?0A@EA@i3XMLElement@@8 ; i3XMLElement::`RTTI Base Class Array'
	DD	FLAT:??_R1A@?0A@EA@TiXmlElement@@8
	DD	FLAT:??_R1A@?0A@EA@TiXmlNode@@8
	DD	FLAT:??_R1A@?0A@EA@TiXmlBase@@8
rdata$r	ENDS
;	COMDAT ??_R3i3XMLElement@@8
rdata$r	SEGMENT
??_R3i3XMLElement@@8 DD 00H				; i3XMLElement::`RTTI Class Hierarchy Descriptor'
	DD	00H
	DD	04H
	DD	FLAT:??_R2i3XMLElement@@8
rdata$r	ENDS
;	COMDAT ??_R0?AVi3XMLElement@@@8
data$rs	SEGMENT
??_R0?AVi3XMLElement@@@8 DD FLAT:??_7type_info@@6B@	; i3XMLElement `RTTI Type Descriptor'
	DD	00H
	DB	'.?AVi3XMLElement@@', 00H
data$rs	ENDS
;	COMDAT ??_R4i3XMLElement@@6B@
rdata$r	SEGMENT
??_R4i3XMLElement@@6B@ DD 00H				; i3XMLElement::`RTTI Complete Object Locator'
	DD	00H
	DD	00H
	DD	FLAT:??_R0?AVi3XMLElement@@@8
	DD	FLAT:??_R3i3XMLElement@@8
rdata$r	ENDS
;	COMDAT ??_R1A@?0A@EA@TiXmlPrinter@@8
rdata$r	SEGMENT
??_R1A@?0A@EA@TiXmlPrinter@@8 DD FLAT:??_R0?AVTiXmlPrinter@@@8 ; TiXmlPrinter::`RTTI Base Class Descriptor at (0,-1,0,64)'
	DD	01H
	DD	00H
	DD	0ffffffffH
	DD	00H
	DD	040H
	DD	FLAT:??_R3TiXmlPrinter@@8
rdata$r	ENDS
;	COMDAT ??_R2TiXmlPrinter@@8
rdata$r	SEGMENT
??_R2TiXmlPrinter@@8 DD FLAT:??_R1A@?0A@EA@TiXmlPrinter@@8 ; TiXmlPrinter::`RTTI Base Class Array'
	DD	FLAT:??_R1A@?0A@EA@TiXmlVisitor@@8
rdata$r	ENDS
;	COMDAT ??_R3TiXmlPrinter@@8
rdata$r	SEGMENT
??_R3TiXmlPrinter@@8 DD 00H				; TiXmlPrinter::`RTTI Class Hierarchy Descriptor'
	DD	00H
	DD	02H
	DD	FLAT:??_R2TiXmlPrinter@@8
rdata$r	ENDS
;	COMDAT ??_R0?AVTiXmlPrinter@@@8
data$rs	SEGMENT
??_R0?AVTiXmlPrinter@@@8 DD FLAT:??_7type_info@@6B@	; TiXmlPrinter `RTTI Type Descriptor'
	DD	00H
	DB	'.?AVTiXmlPrinter@@', 00H
data$rs	ENDS
;	COMDAT ??_R4TiXmlPrinter@@6B@
rdata$r	SEGMENT
??_R4TiXmlPrinter@@6B@ DD 00H				; TiXmlPrinter::`RTTI Complete Object Locator'
	DD	00H
	DD	00H
	DD	FLAT:??_R0?AVTiXmlPrinter@@@8
	DD	FLAT:??_R3TiXmlPrinter@@8
rdata$r	ENDS
;	COMDAT ??_R4TiXmlBase@@6B@
rdata$r	SEGMENT
??_R4TiXmlBase@@6B@ DD 00H				; TiXmlBase::`RTTI Complete Object Locator'
	DD	00H
	DD	00H
	DD	FLAT:??_R0?AVTiXmlBase@@@8
	DD	FLAT:??_R3TiXmlBase@@8
rdata$r	ENDS
;	COMDAT ??_R1A@?0A@EA@TiXmlVisitor@@8
rdata$r	SEGMENT
??_R1A@?0A@EA@TiXmlVisitor@@8 DD FLAT:??_R0?AVTiXmlVisitor@@@8 ; TiXmlVisitor::`RTTI Base Class Descriptor at (0,-1,0,64)'
	DD	00H
	DD	00H
	DD	0ffffffffH
	DD	00H
	DD	040H
	DD	FLAT:??_R3TiXmlVisitor@@8
rdata$r	ENDS
;	COMDAT ??_R2TiXmlVisitor@@8
rdata$r	SEGMENT
??_R2TiXmlVisitor@@8 DD FLAT:??_R1A@?0A@EA@TiXmlVisitor@@8 ; TiXmlVisitor::`RTTI Base Class Array'
rdata$r	ENDS
;	COMDAT ??_R3TiXmlVisitor@@8
rdata$r	SEGMENT
??_R3TiXmlVisitor@@8 DD 00H				; TiXmlVisitor::`RTTI Class Hierarchy Descriptor'
	DD	00H
	DD	01H
	DD	FLAT:??_R2TiXmlVisitor@@8
rdata$r	ENDS
;	COMDAT ??_R0?AVTiXmlVisitor@@@8
data$rs	SEGMENT
??_R0?AVTiXmlVisitor@@@8 DD FLAT:??_7type_info@@6B@	; TiXmlVisitor `RTTI Type Descriptor'
	DD	00H
	DB	'.?AVTiXmlVisitor@@', 00H
data$rs	ENDS
;	COMDAT ??_R4TiXmlVisitor@@6B@
rdata$r	SEGMENT
??_R4TiXmlVisitor@@6B@ DD 00H				; TiXmlVisitor::`RTTI Complete Object Locator'
	DD	00H
	DD	00H
	DD	FLAT:??_R0?AVTiXmlVisitor@@@8
	DD	FLAT:??_R3TiXmlVisitor@@8
rdata$r	ENDS
;	COMDAT ??_R1A@?0A@EA@TiXmlDeclaration@@8
rdata$r	SEGMENT
??_R1A@?0A@EA@TiXmlDeclaration@@8 DD FLAT:??_R0?AVTiXmlDeclaration@@@8 ; TiXmlDeclaration::`RTTI Base Class Descriptor at (0,-1,0,64)'
	DD	02H
	DD	00H
	DD	0ffffffffH
	DD	00H
	DD	040H
	DD	FLAT:??_R3TiXmlDeclaration@@8
rdata$r	ENDS
;	COMDAT ??_R2TiXmlDeclaration@@8
rdata$r	SEGMENT
??_R2TiXmlDeclaration@@8 DD FLAT:??_R1A@?0A@EA@TiXmlDeclaration@@8 ; TiXmlDeclaration::`RTTI Base Class Array'
	DD	FLAT:??_R1A@?0A@EA@TiXmlNode@@8
	DD	FLAT:??_R1A@?0A@EA@TiXmlBase@@8
rdata$r	ENDS
;	COMDAT ??_R3TiXmlDeclaration@@8
rdata$r	SEGMENT
??_R3TiXmlDeclaration@@8 DD 00H				; TiXmlDeclaration::`RTTI Class Hierarchy Descriptor'
	DD	00H
	DD	03H
	DD	FLAT:??_R2TiXmlDeclaration@@8
rdata$r	ENDS
;	COMDAT ??_R0?AVTiXmlDeclaration@@@8
data$rs	SEGMENT
??_R0?AVTiXmlDeclaration@@@8 DD FLAT:??_7type_info@@6B@	; TiXmlDeclaration `RTTI Type Descriptor'
	DD	00H
	DB	'.?AVTiXmlDeclaration@@', 00H
data$rs	ENDS
;	COMDAT ??_R4TiXmlDeclaration@@6B@
rdata$r	SEGMENT
??_R4TiXmlDeclaration@@6B@ DD 00H			; TiXmlDeclaration::`RTTI Complete Object Locator'
	DD	00H
	DD	00H
	DD	FLAT:??_R0?AVTiXmlDeclaration@@@8
	DD	FLAT:??_R3TiXmlDeclaration@@8
rdata$r	ENDS
;	COMDAT ??_R1A@?0A@EA@TiXmlText@@8
rdata$r	SEGMENT
??_R1A@?0A@EA@TiXmlText@@8 DD FLAT:??_R0?AVTiXmlText@@@8 ; TiXmlText::`RTTI Base Class Descriptor at (0,-1,0,64)'
	DD	02H
	DD	00H
	DD	0ffffffffH
	DD	00H
	DD	040H
	DD	FLAT:??_R3TiXmlText@@8
rdata$r	ENDS
;	COMDAT ??_R2TiXmlText@@8
rdata$r	SEGMENT
??_R2TiXmlText@@8 DD FLAT:??_R1A@?0A@EA@TiXmlText@@8	; TiXmlText::`RTTI Base Class Array'
	DD	FLAT:??_R1A@?0A@EA@TiXmlNode@@8
	DD	FLAT:??_R1A@?0A@EA@TiXmlBase@@8
rdata$r	ENDS
;	COMDAT ??_R3TiXmlText@@8
rdata$r	SEGMENT
??_R3TiXmlText@@8 DD 00H				; TiXmlText::`RTTI Class Hierarchy Descriptor'
	DD	00H
	DD	03H
	DD	FLAT:??_R2TiXmlText@@8
rdata$r	ENDS
;	COMDAT ??_R0?AVTiXmlText@@@8
data$rs	SEGMENT
??_R0?AVTiXmlText@@@8 DD FLAT:??_7type_info@@6B@	; TiXmlText `RTTI Type Descriptor'
	DD	00H
	DB	'.?AVTiXmlText@@', 00H
data$rs	ENDS
;	COMDAT ??_R4TiXmlText@@6B@
rdata$r	SEGMENT
??_R4TiXmlText@@6B@ DD 00H				; TiXmlText::`RTTI Complete Object Locator'
	DD	00H
	DD	00H
	DD	FLAT:??_R0?AVTiXmlText@@@8
	DD	FLAT:??_R3TiXmlText@@8
rdata$r	ENDS
;	COMDAT ??_R1A@?0A@EA@TiXmlAttribute@@8
rdata$r	SEGMENT
??_R1A@?0A@EA@TiXmlAttribute@@8 DD FLAT:??_R0?AVTiXmlAttribute@@@8 ; TiXmlAttribute::`RTTI Base Class Descriptor at (0,-1,0,64)'
	DD	01H
	DD	00H
	DD	0ffffffffH
	DD	00H
	DD	040H
	DD	FLAT:??_R3TiXmlAttribute@@8
rdata$r	ENDS
;	COMDAT ??_R2TiXmlAttribute@@8
rdata$r	SEGMENT
??_R2TiXmlAttribute@@8 DD FLAT:??_R1A@?0A@EA@TiXmlAttribute@@8 ; TiXmlAttribute::`RTTI Base Class Array'
	DD	FLAT:??_R1A@?0A@EA@TiXmlBase@@8
rdata$r	ENDS
;	COMDAT ??_R3TiXmlAttribute@@8
rdata$r	SEGMENT
??_R3TiXmlAttribute@@8 DD 00H				; TiXmlAttribute::`RTTI Class Hierarchy Descriptor'
	DD	00H
	DD	02H
	DD	FLAT:??_R2TiXmlAttribute@@8
rdata$r	ENDS
;	COMDAT ??_R0?AVTiXmlAttribute@@@8
data$rs	SEGMENT
??_R0?AVTiXmlAttribute@@@8 DD FLAT:??_7type_info@@6B@	; TiXmlAttribute `RTTI Type Descriptor'
	DD	00H
	DB	'.?AVTiXmlAttribute@@', 00H
data$rs	ENDS
;	COMDAT ??_R4TiXmlAttribute@@6B@
rdata$r	SEGMENT
??_R4TiXmlAttribute@@6B@ DD 00H				; TiXmlAttribute::`RTTI Complete Object Locator'
	DD	00H
	DD	00H
	DD	FLAT:??_R0?AVTiXmlAttribute@@@8
	DD	FLAT:??_R3TiXmlAttribute@@8
rdata$r	ENDS
;	COMDAT ??_R1A@?0A@EA@TiXmlUnknown@@8
rdata$r	SEGMENT
??_R1A@?0A@EA@TiXmlUnknown@@8 DD FLAT:??_R0?AVTiXmlUnknown@@@8 ; TiXmlUnknown::`RTTI Base Class Descriptor at (0,-1,0,64)'
	DD	02H
	DD	00H
	DD	0ffffffffH
	DD	00H
	DD	040H
	DD	FLAT:??_R3TiXmlUnknown@@8
rdata$r	ENDS
;	COMDAT ??_R2TiXmlUnknown@@8
rdata$r	SEGMENT
??_R2TiXmlUnknown@@8 DD FLAT:??_R1A@?0A@EA@TiXmlUnknown@@8 ; TiXmlUnknown::`RTTI Base Class Array'
	DD	FLAT:??_R1A@?0A@EA@TiXmlNode@@8
	DD	FLAT:??_R1A@?0A@EA@TiXmlBase@@8
rdata$r	ENDS
;	COMDAT ??_R3TiXmlUnknown@@8
rdata$r	SEGMENT
??_R3TiXmlUnknown@@8 DD 00H				; TiXmlUnknown::`RTTI Class Hierarchy Descriptor'
	DD	00H
	DD	03H
	DD	FLAT:??_R2TiXmlUnknown@@8
rdata$r	ENDS
;	COMDAT ??_R0?AVTiXmlUnknown@@@8
data$rs	SEGMENT
??_R0?AVTiXmlUnknown@@@8 DD FLAT:??_7type_info@@6B@	; TiXmlUnknown `RTTI Type Descriptor'
	DD	00H
	DB	'.?AVTiXmlUnknown@@', 00H
data$rs	ENDS
;	COMDAT ??_R4TiXmlUnknown@@6B@
rdata$r	SEGMENT
??_R4TiXmlUnknown@@6B@ DD 00H				; TiXmlUnknown::`RTTI Complete Object Locator'
	DD	00H
	DD	00H
	DD	FLAT:??_R0?AVTiXmlUnknown@@@8
	DD	FLAT:??_R3TiXmlUnknown@@8
rdata$r	ENDS
;	COMDAT ??_R1A@?0A@EA@TiXmlComment@@8
rdata$r	SEGMENT
??_R1A@?0A@EA@TiXmlComment@@8 DD FLAT:??_R0?AVTiXmlComment@@@8 ; TiXmlComment::`RTTI Base Class Descriptor at (0,-1,0,64)'
	DD	02H
	DD	00H
	DD	0ffffffffH
	DD	00H
	DD	040H
	DD	FLAT:??_R3TiXmlComment@@8
rdata$r	ENDS
;	COMDAT ??_R2TiXmlComment@@8
rdata$r	SEGMENT
??_R2TiXmlComment@@8 DD FLAT:??_R1A@?0A@EA@TiXmlComment@@8 ; TiXmlComment::`RTTI Base Class Array'
	DD	FLAT:??_R1A@?0A@EA@TiXmlNode@@8
	DD	FLAT:??_R1A@?0A@EA@TiXmlBase@@8
rdata$r	ENDS
;	COMDAT ??_R3TiXmlComment@@8
rdata$r	SEGMENT
??_R3TiXmlComment@@8 DD 00H				; TiXmlComment::`RTTI Class Hierarchy Descriptor'
	DD	00H
	DD	03H
	DD	FLAT:??_R2TiXmlComment@@8
rdata$r	ENDS
;	COMDAT ??_R0?AVTiXmlComment@@@8
data$rs	SEGMENT
??_R0?AVTiXmlComment@@@8 DD FLAT:??_7type_info@@6B@	; TiXmlComment `RTTI Type Descriptor'
	DD	00H
	DB	'.?AVTiXmlComment@@', 00H
data$rs	ENDS
;	COMDAT ??_R4TiXmlComment@@6B@
rdata$r	SEGMENT
??_R4TiXmlComment@@6B@ DD 00H				; TiXmlComment::`RTTI Complete Object Locator'
	DD	00H
	DD	00H
	DD	FLAT:??_R0?AVTiXmlComment@@@8
	DD	FLAT:??_R3TiXmlComment@@8
rdata$r	ENDS
;	COMDAT ??_R2TiXmlBase@@8
rdata$r	SEGMENT
??_R2TiXmlBase@@8 DD FLAT:??_R1A@?0A@EA@TiXmlBase@@8	; TiXmlBase::`RTTI Base Class Array'
rdata$r	ENDS
;	COMDAT ??_R3TiXmlBase@@8
rdata$r	SEGMENT
??_R3TiXmlBase@@8 DD 00H				; TiXmlBase::`RTTI Class Hierarchy Descriptor'
	DD	00H
	DD	01H
	DD	FLAT:??_R2TiXmlBase@@8
rdata$r	ENDS
;	COMDAT ??_R0?AVTiXmlBase@@@8
data$rs	SEGMENT
??_R0?AVTiXmlBase@@@8 DD FLAT:??_7type_info@@6B@	; TiXmlBase `RTTI Type Descriptor'
	DD	00H
	DB	'.?AVTiXmlBase@@', 00H
data$rs	ENDS
;	COMDAT ??_R1A@?0A@EA@TiXmlBase@@8
rdata$r	SEGMENT
??_R1A@?0A@EA@TiXmlBase@@8 DD FLAT:??_R0?AVTiXmlBase@@@8 ; TiXmlBase::`RTTI Base Class Descriptor at (0,-1,0,64)'
	DD	00H
	DD	00H
	DD	0ffffffffH
	DD	00H
	DD	040H
	DD	FLAT:??_R3TiXmlBase@@8
rdata$r	ENDS
;	COMDAT ??_R2TiXmlNode@@8
rdata$r	SEGMENT
??_R2TiXmlNode@@8 DD FLAT:??_R1A@?0A@EA@TiXmlNode@@8	; TiXmlNode::`RTTI Base Class Array'
	DD	FLAT:??_R1A@?0A@EA@TiXmlBase@@8
rdata$r	ENDS
;	COMDAT ??_R3TiXmlNode@@8
rdata$r	SEGMENT
??_R3TiXmlNode@@8 DD 00H				; TiXmlNode::`RTTI Class Hierarchy Descriptor'
	DD	00H
	DD	02H
	DD	FLAT:??_R2TiXmlNode@@8
rdata$r	ENDS
;	COMDAT ??_R0?AVTiXmlNode@@@8
data$rs	SEGMENT
??_R0?AVTiXmlNode@@@8 DD FLAT:??_7type_info@@6B@	; TiXmlNode `RTTI Type Descriptor'
	DD	00H
	DB	'.?AVTiXmlNode@@', 00H
data$rs	ENDS
;	COMDAT ??_R1A@?0A@EA@TiXmlNode@@8
rdata$r	SEGMENT
??_R1A@?0A@EA@TiXmlNode@@8 DD FLAT:??_R0?AVTiXmlNode@@@8 ; TiXmlNode::`RTTI Base Class Descriptor at (0,-1,0,64)'
	DD	01H
	DD	00H
	DD	0ffffffffH
	DD	00H
	DD	040H
	DD	FLAT:??_R3TiXmlNode@@8
rdata$r	ENDS
;	COMDAT ??_R1A@?0A@EA@TiXmlDocument@@8
rdata$r	SEGMENT
??_R1A@?0A@EA@TiXmlDocument@@8 DD FLAT:??_R0?AVTiXmlDocument@@@8 ; TiXmlDocument::`RTTI Base Class Descriptor at (0,-1,0,64)'
	DD	02H
	DD	00H
	DD	0ffffffffH
	DD	00H
	DD	040H
	DD	FLAT:??_R3TiXmlDocument@@8
rdata$r	ENDS
;	COMDAT ??_R2TiXmlDocument@@8
rdata$r	SEGMENT
??_R2TiXmlDocument@@8 DD FLAT:??_R1A@?0A@EA@TiXmlDocument@@8 ; TiXmlDocument::`RTTI Base Class Array'
	DD	FLAT:??_R1A@?0A@EA@TiXmlNode@@8
	DD	FLAT:??_R1A@?0A@EA@TiXmlBase@@8
rdata$r	ENDS
;	COMDAT ??_R3TiXmlDocument@@8
rdata$r	SEGMENT
??_R3TiXmlDocument@@8 DD 00H				; TiXmlDocument::`RTTI Class Hierarchy Descriptor'
	DD	00H
	DD	03H
	DD	FLAT:??_R2TiXmlDocument@@8
rdata$r	ENDS
;	COMDAT ??_R0?AVTiXmlDocument@@@8
data$rs	SEGMENT
??_R0?AVTiXmlDocument@@@8 DD FLAT:??_7type_info@@6B@	; TiXmlDocument `RTTI Type Descriptor'
	DD	00H
	DB	'.?AVTiXmlDocument@@', 00H
data$rs	ENDS
;	COMDAT ??_R4TiXmlDocument@@6B@
rdata$r	SEGMENT
??_R4TiXmlDocument@@6B@ DD 00H				; TiXmlDocument::`RTTI Complete Object Locator'
	DD	00H
	DD	00H
	DD	FLAT:??_R0?AVTiXmlDocument@@@8
	DD	FLAT:??_R3TiXmlDocument@@8
rdata$r	ENDS
;	COMDAT ??_R1A@?0A@EA@i3FileStream@@8
rdata$r	SEGMENT
??_R1A@?0A@EA@i3FileStream@@8 DD FLAT:??_R0?AVi3FileStream@@@8 ; i3FileStream::`RTTI Base Class Descriptor at (0,-1,0,64)'
	DD	02H
	DD	00H
	DD	0ffffffffH
	DD	00H
	DD	040H
	DD	FLAT:??_R3i3FileStream@@8
rdata$r	ENDS
;	COMDAT ??_R2i3FileStream@@8
rdata$r	SEGMENT
??_R2i3FileStream@@8 DD FLAT:??_R1A@?0A@EA@i3FileStream@@8 ; i3FileStream::`RTTI Base Class Array'
	DD	FLAT:??_R1A@?0A@EA@i3Stream@@8
	DD	FLAT:??_R1A@?0A@EA@i3ElementBase@@8
rdata$r	ENDS
;	COMDAT ??_R3i3FileStream@@8
rdata$r	SEGMENT
??_R3i3FileStream@@8 DD 00H				; i3FileStream::`RTTI Class Hierarchy Descriptor'
	DD	00H
	DD	03H
	DD	FLAT:??_R2i3FileStream@@8
rdata$r	ENDS
;	COMDAT ??_R0?AVi3FileStream@@@8
data$rs	SEGMENT
??_R0?AVi3FileStream@@@8 DD FLAT:??_7type_info@@6B@	; i3FileStream `RTTI Type Descriptor'
	DD	00H
	DB	'.?AVi3FileStream@@', 00H
data$rs	ENDS
;	COMDAT ??_R4i3FileStream@@6B@
rdata$r	SEGMENT
??_R4i3FileStream@@6B@ DD 00H				; i3FileStream::`RTTI Complete Object Locator'
	DD	00H
	DD	00H
	DD	FLAT:??_R0?AVi3FileStream@@@8
	DD	FLAT:??_R3i3FileStream@@8
rdata$r	ENDS
;	COMDAT ??_R1A@?0A@EA@i3Stream@@8
rdata$r	SEGMENT
??_R1A@?0A@EA@i3Stream@@8 DD FLAT:??_R0?AVi3Stream@@@8	; i3Stream::`RTTI Base Class Descriptor at (0,-1,0,64)'
	DD	01H
	DD	00H
	DD	0ffffffffH
	DD	00H
	DD	040H
	DD	FLAT:??_R3i3Stream@@8
rdata$r	ENDS
;	COMDAT ??_R2i3Stream@@8
rdata$r	SEGMENT
??_R2i3Stream@@8 DD FLAT:??_R1A@?0A@EA@i3Stream@@8	; i3Stream::`RTTI Base Class Array'
	DD	FLAT:??_R1A@?0A@EA@i3ElementBase@@8
rdata$r	ENDS
;	COMDAT ??_R3i3Stream@@8
rdata$r	SEGMENT
??_R3i3Stream@@8 DD 00H					; i3Stream::`RTTI Class Hierarchy Descriptor'
	DD	00H
	DD	02H
	DD	FLAT:??_R2i3Stream@@8
rdata$r	ENDS
;	COMDAT ??_R0?AVi3Stream@@@8
data$rs	SEGMENT
??_R0?AVi3Stream@@@8 DD FLAT:??_7type_info@@6B@		; i3Stream `RTTI Type Descriptor'
	DD	00H
	DB	'.?AVi3Stream@@', 00H
data$rs	ENDS
;	COMDAT ??_R4i3Stream@@6B@
rdata$r	SEGMENT
??_R4i3Stream@@6B@ DD 00H				; i3Stream::`RTTI Complete Object Locator'
	DD	00H
	DD	00H
	DD	FLAT:??_R0?AVi3Stream@@@8
	DD	FLAT:??_R3i3Stream@@8
rdata$r	ENDS
;	COMDAT ??_R1A@?0A@EA@i3StringList@@8
rdata$r	SEGMENT
??_R1A@?0A@EA@i3StringList@@8 DD FLAT:??_R0?AVi3StringList@@@8 ; i3StringList::`RTTI Base Class Descriptor at (0,-1,0,64)'
	DD	01H
	DD	00H
	DD	0ffffffffH
	DD	00H
	DD	040H
	DD	FLAT:??_R3i3StringList@@8
rdata$r	ENDS
;	COMDAT ??_R2i3StringList@@8
rdata$r	SEGMENT
??_R2i3StringList@@8 DD FLAT:??_R1A@?0A@EA@i3StringList@@8 ; i3StringList::`RTTI Base Class Array'
	DD	FLAT:??_R1A@?0A@EA@i3ElementBase@@8
rdata$r	ENDS
;	COMDAT ??_R3i3StringList@@8
rdata$r	SEGMENT
??_R3i3StringList@@8 DD 00H				; i3StringList::`RTTI Class Hierarchy Descriptor'
	DD	00H
	DD	02H
	DD	FLAT:??_R2i3StringList@@8
rdata$r	ENDS
;	COMDAT ??_R0?AVi3StringList@@@8
data$rs	SEGMENT
??_R0?AVi3StringList@@@8 DD FLAT:??_7type_info@@6B@	; i3StringList `RTTI Type Descriptor'
	DD	00H
	DB	'.?AVi3StringList@@', 00H
data$rs	ENDS
;	COMDAT ??_R4i3StringList@@6B@
rdata$r	SEGMENT
??_R4i3StringList@@6B@ DD 00H				; i3StringList::`RTTI Complete Object Locator'
	DD	00H
	DD	00H
	DD	FLAT:??_R0?AVi3StringList@@@8
	DD	FLAT:??_R3i3StringList@@8
rdata$r	ENDS
;	COMDAT ??_R4i3ClassMeta@@6B@
rdata$r	SEGMENT
??_R4i3ClassMeta@@6B@ DD 00H				; i3ClassMeta::`RTTI Complete Object Locator'
	DD	00H
	DD	00H
	DD	FLAT:??_R0?AVi3ClassMeta@@@8
	DD	FLAT:??_R3i3ClassMeta@@8
rdata$r	ENDS
;	COMDAT ??_R1A@?0A@EA@i3MemoryPool@@8
rdata$r	SEGMENT
??_R1A@?0A@EA@i3MemoryPool@@8 DD FLAT:??_R0?AVi3MemoryPool@@@8 ; i3MemoryPool::`RTTI Base Class Descriptor at (0,-1,0,64)'
	DD	00H
	DD	00H
	DD	0ffffffffH
	DD	00H
	DD	040H
	DD	FLAT:??_R3i3MemoryPool@@8
rdata$r	ENDS
;	COMDAT ??_R2i3MemoryPool@@8
rdata$r	SEGMENT
??_R2i3MemoryPool@@8 DD FLAT:??_R1A@?0A@EA@i3MemoryPool@@8 ; i3MemoryPool::`RTTI Base Class Array'
rdata$r	ENDS
;	COMDAT ??_R3i3MemoryPool@@8
rdata$r	SEGMENT
??_R3i3MemoryPool@@8 DD 00H				; i3MemoryPool::`RTTI Class Hierarchy Descriptor'
	DD	00H
	DD	01H
	DD	FLAT:??_R2i3MemoryPool@@8
rdata$r	ENDS
;	COMDAT ??_R0?AVi3MemoryPool@@@8
data$rs	SEGMENT
??_R0?AVi3MemoryPool@@@8 DD FLAT:??_7type_info@@6B@	; i3MemoryPool `RTTI Type Descriptor'
	DD	00H
	DB	'.?AVi3MemoryPool@@', 00H
data$rs	ENDS
;	COMDAT ??_R4i3MemoryPool@@6B@
rdata$r	SEGMENT
??_R4i3MemoryPool@@6B@ DD 00H				; i3MemoryPool::`RTTI Complete Object Locator'
	DD	00H
	DD	00H
	DD	FLAT:??_R0?AVi3MemoryPool@@@8
	DD	FLAT:??_R3i3MemoryPool@@8
rdata$r	ENDS
;	COMDAT ??_R1A@?0A@EA@i3List@@8
rdata$r	SEGMENT
??_R1A@?0A@EA@i3List@@8 DD FLAT:??_R0?AVi3List@@@8	; i3List::`RTTI Base Class Descriptor at (0,-1,0,64)'
	DD	01H
	DD	00H
	DD	0ffffffffH
	DD	00H
	DD	040H
	DD	FLAT:??_R3i3List@@8
rdata$r	ENDS
;	COMDAT ??_R2i3List@@8
rdata$r	SEGMENT
??_R2i3List@@8 DD FLAT:??_R1A@?0A@EA@i3List@@8		; i3List::`RTTI Base Class Array'
	DD	FLAT:??_R1A@?0A@EA@i3ElementBase@@8
rdata$r	ENDS
;	COMDAT ??_R3i3List@@8
rdata$r	SEGMENT
??_R3i3List@@8 DD 00H					; i3List::`RTTI Class Hierarchy Descriptor'
	DD	00H
	DD	02H
	DD	FLAT:??_R2i3List@@8
rdata$r	ENDS
;	COMDAT ??_R0?AVi3List@@@8
data$rs	SEGMENT
??_R0?AVi3List@@@8 DD FLAT:??_7type_info@@6B@		; i3List `RTTI Type Descriptor'
	DD	00H
	DB	'.?AVi3List@@', 00H
data$rs	ENDS
;	COMDAT ??_R4i3List@@6B@
rdata$r	SEGMENT
??_R4i3List@@6B@ DD 00H					; i3List::`RTTI Complete Object Locator'
	DD	00H
	DD	00H
	DD	FLAT:??_R0?AVi3List@@@8
	DD	FLAT:??_R3i3List@@8
rdata$r	ENDS
;	COMDAT ??_R1A@?0A@EA@i3ElementBase@@8
rdata$r	SEGMENT
??_R1A@?0A@EA@i3ElementBase@@8 DD FLAT:??_R0?AVi3ElementBase@@@8 ; i3ElementBase::`RTTI Base Class Descriptor at (0,-1,0,64)'
	DD	00H
	DD	00H
	DD	0ffffffffH
	DD	00H
	DD	040H
	DD	FLAT:??_R3i3ElementBase@@8
rdata$r	ENDS
;	COMDAT ??_R2i3ElementBase@@8
rdata$r	SEGMENT
??_R2i3ElementBase@@8 DD FLAT:??_R1A@?0A@EA@i3ElementBase@@8 ; i3ElementBase::`RTTI Base Class Array'
rdata$r	ENDS
;	COMDAT ??_R3i3ElementBase@@8
rdata$r	SEGMENT
??_R3i3ElementBase@@8 DD 00H				; i3ElementBase::`RTTI Class Hierarchy Descriptor'
	DD	00H
	DD	01H
	DD	FLAT:??_R2i3ElementBase@@8
rdata$r	ENDS
;	COMDAT ??_R0?AVi3ElementBase@@@8
data$rs	SEGMENT
??_R0?AVi3ElementBase@@@8 DD FLAT:??_7type_info@@6B@	; i3ElementBase `RTTI Type Descriptor'
	DD	00H
	DB	'.?AVi3ElementBase@@', 00H
data$rs	ENDS
;	COMDAT ??_R4i3ElementBase@@6B@
rdata$r	SEGMENT
??_R4i3ElementBase@@6B@ DD 00H				; i3ElementBase::`RTTI Complete Object Locator'
	DD	00H
	DD	00H
	DD	FLAT:??_R0?AVi3ElementBase@@@8
	DD	FLAT:??_R3i3ElementBase@@8
rdata$r	ENDS
;	COMDAT ??_C@_03DLDNIBIK@?$CFlf@
CONST	SEGMENT
??_C@_03DLDNIBIK@?$CFlf@ DB '%lf', 00H			; `string'
CONST	ENDS
;	COMDAT ??_C@_02NJPGOMH@?$CFf@
CONST	SEGMENT
??_C@_02NJPGOMH@?$CFf@ DB '%f', 00H			; `string'
CONST	ENDS
;	COMDAT ??_C@_02DPKJAMEF@?$CFd@
CONST	SEGMENT
??_C@_02DPKJAMEF@?$CFd@ DB '%d', 00H			; `string'
CONST	ENDS
;	COMDAT ??_C@_04OEDFLLKD@?$CC?$CFs?$CC@
CONST	SEGMENT
??_C@_04OEDFLLKD@?$CC?$CFs?$CC@ DB '"%s"', 00H		; `string'
CONST	ENDS
;	COMDAT ??_C@_02DKCKIIND@?$CFs@
CONST	SEGMENT
??_C@_02DKCKIIND@?$CFs@ DB '%s', 00H			; `string'
CONST	ENDS
;	COMDAT ??_C@_05MKDOIIA@False@
CONST	SEGMENT
??_C@_05MKDOIIA@False@ DB 'False', 00H			; `string'
CONST	ENDS
;	COMDAT ??_C@_04HPMIDMKH@True@
CONST	SEGMENT
??_C@_04HPMIDMKH@True@ DB 'True', 00H			; `string'
CONST	ENDS
;	COMDAT ??_C@_04LIFAFMCE@?$FL?$CFs?$FN@
CONST	SEGMENT
??_C@_04LIFAFMCE@?$FL?$CFs?$FN@ DB '[%s]', 00H		; `string'
CONST	ENDS
;	COMDAT ??_C@_09MJNNNHCA@?$CFs?5?$DN?5?$CFs?$AN?6@
CONST	SEGMENT
??_C@_09MJNNNHCA@?$CFs?5?$DN?5?$CFs?$AN?6@ DB '%s = %s', 0dH, 0aH, 00H ; `string'
CONST	ENDS
;	COMDAT ??_C@_04LLEBNMDN@?$CFs?$AN?6@
CONST	SEGMENT
??_C@_04LLEBNMDN@?$CFs?$AN?6@ DB '%s', 0dH, 0aH, 00H	; `string'
CONST	ENDS
;	COMDAT ??_C@_01NANMIPIL@N@
CONST	SEGMENT
??_C@_01NANMIPIL@N@ DB 'N', 00H				; `string'
CONST	ENDS
;	COMDAT ??_C@_01BIAFAFID@F@
CONST	SEGMENT
??_C@_01BIAFAFID@F@ DB 'F', 00H				; `string'
CONST	ENDS
;	COMDAT ??_C@_01NFFPALBN@Y@
CONST	SEGMENT
??_C@_01NFFPALBN@Y@ DB 'Y', 00H				; `string'
CONST	ENDS
;	COMDAT ??_C@_01GAPBHFFA@T@
CONST	SEGMENT
??_C@_01GAPBHFFA@T@ DB 'T', 00H				; `string'
CONST	ENDS
;	COMDAT ??_C@_0BL@OBHDNFFG@nBufLength?5is?5too?5short?4?5?6@
CONST	SEGMENT
??_C@_0BL@OBHDNFFG@nBufLength?5is?5too?5short?4?5?6@ DB 'nBufLength is to'
	DB	'o short. ', 0aH, 00H			; `string'
CONST	ENDS
;	COMDAT ??_C@_0BG@NIGHIBJ@nBufLength?5is?5zero?4?5?6@
CONST	SEGMENT
??_C@_0BG@NIGHIBJ@nBufLength?5is?5zero?4?5?6@ DB 'nBufLength is zero. ', 0aH
	DB	00H						; `string'
CONST	ENDS
;	COMDAT ??_C@_0BL@IJNEAJGP@Value?5Table?5is?5not?5exist?4?6@
CONST	SEGMENT
??_C@_0BL@IJNEAJGP@Value?5Table?5is?5not?5exist?4?6@ DB 'Value Table is n'
	DB	'ot exist.', 0aH, 00H			; `string'
CONST	ENDS
;	COMDAT ??_C@_0DO@IJEJHCOG@int?5__thiscall?5i3IniParser?3?3Get@
CONST	SEGMENT
??_C@_0DO@IJEJHCOG@int?5__thiscall?5i3IniParser?3?3Get@ DB 'int __thiscal'
	DB	'l i3IniParser::GetValue(const char *,char *,int)', 00H ; `string'
CONST	ENDS
;	COMDAT ??_C@_0BM@BCLBIDHM@Value?5Table?5is?5not?5exist?4?5?6@
CONST	SEGMENT
??_C@_0BM@BCLBIDHM@Value?5Table?5is?5not?5exist?4?5?6@ DB 'Value Table is'
	DB	' not exist. ', 0aH, 00H			; `string'
CONST	ENDS
;	COMDAT ??_C@_0EB@LPNLFBLF@const?5char?5?$CK__thiscall?5i3IniPar@
CONST	SEGMENT
??_C@_0EB@LPNLFBLF@const?5char?5?$CK__thiscall?5i3IniPar@ DB 'const char '
	DB	'*__thiscall i3IniParser::GetStringValue(const char *)', 00H ; `string'
CONST	ENDS
;	COMDAT ??_C@_0CD@CHADIGIF@szLabel?5value?5string?5is?5too?5lon@
CONST	SEGMENT
??_C@_0CD@CHADIGIF@szLabel?5value?5string?5is?5too?5lon@ DB 'szLabel valu'
	DB	'e string is too long ', 0aH, 00H		; `string'
CONST	ENDS
;	COMDAT ??_C@_0BK@JNFPJABN@szLabel?5name?5is?5too?5long?6@
CONST	SEGMENT
??_C@_0BK@JNFPJABN@szLabel?5name?5is?5too?5long?6@ DB 'szLabel name is to'
	DB	'o long', 0aH, 00H				; `string'
CONST	ENDS
;	COMDAT ??_C@_0DG@CIBHBENN@ERROR?3?5?$FLReadSectionByInfo?$FN?5Sect@
CONST	SEGMENT
??_C@_0DG@CIBHBENN@ERROR?3?5?$FLReadSectionByInfo?$FN?5Sect@ DB 'ERROR: ['
	DB	'ReadSectionByInfo] Section not found in ''%s''', 0aH, 00H ; `string'
CONST	ENDS
;	COMDAT ??_C@_0L@LMGNLEPG@Config?4ini@
CONST	SEGMENT
??_C@_0L@LMGNLEPG@Config?4ini@ DB 'Config.ini', 00H	; `string'
CONST	ENDS
;	COMDAT ??_C@_0BN@IFIOBCJG@ERROR?5?3?5?$FL?$CFs?$FN?5pInfo?5is?5NULL?4?6@
CONST	SEGMENT
??_C@_0BN@IFIOBCJG@ERROR?5?3?5?$FL?$CFs?$FN?5pInfo?5is?5NULL?4?6@ DB 'ERR'
	DB	'OR : [%s] pInfo is NULL.', 0aH, 00H		; `string'
CONST	ENDS
;	COMDAT ??_C@_0BP@CCBDLFBK@i3IniParser?3?3ReadSectionByInfo@
CONST	SEGMENT
??_C@_0BP@CCBDLFBK@i3IniParser?3?3ReadSectionByInfo@ DB 'i3IniParser::Rea'
	DB	'dSectionByInfo', 00H			; `string'
CONST	ENDS
;	COMDAT ??_C@_0BA@JEIBDMBE@pInfo?5is?5NULL?4?6@
CONST	SEGMENT
??_C@_0BA@JEIBDMBE@pInfo?5is?5NULL?4?6@ DB 'pInfo is NULL.', 0aH, 00H ; `string'
CONST	ENDS
;	COMDAT ??_C@_0BE@DLJIIAFH@m_pStream?5is?5NULL?4?6@
CONST	SEGMENT
??_C@_0BE@DLJIIAFH@m_pStream?5is?5NULL?4?6@ DB 'm_pStream is NULL.', 0aH, 00H ; `string'
CONST	ENDS
;	COMDAT ??_C@_0EJ@KOPGLENC@int?5__thiscall?5i3IniParser?3?3Rea@
CONST	SEGMENT
??_C@_0EJ@KOPGLENC@int?5__thiscall?5i3IniParser?3?3Rea@ DB 'int __thiscal'
	DB	'l i3IniParser::ReadSectionByInfo(struct i3IniSectionInfo *)', 00H ; `string'
CONST	ENDS
;	COMDAT ??_C@_0BM@BLONCBOG@Section?5name?5is?5duplicated?6@
CONST	SEGMENT
??_C@_0BM@BLONCBOG@Section?5name?5is?5duplicated?6@ DB 'Section name is d'
	DB	'uplicated', 0aH, 00H			; `string'
CONST	ENDS
;	COMDAT ??_C@_0BH@POMKDHLO@Section?5name?5is?5NULL?4?6@
CONST	SEGMENT
??_C@_0BH@POMKDHLO@Section?5name?5is?5NULL?4?6@ DB 'Section name is NULL.'
	DB	0aH, 00H					; `string'
CONST	ENDS
;	COMDAT ??_C@_0DL@KGJFMIKH@int?5__thiscall?5i3IniParser?3?3Ope@
CONST	SEGMENT
??_C@_0DL@KGJFMIKH@int?5__thiscall?5i3IniParser?3?3Ope@ DB 'int __thiscal'
	DB	'l i3IniParser::Open(class i3Stream *,int,int)', 00H ; `string'
CONST	ENDS
;	COMDAT ??_C@_0BG@MILPOODI@Could?5not?5open?5file?4?6@
CONST	SEGMENT
??_C@_0BG@MILPOODI@Could?5not?5open?5file?4?6@ DB 'Could not open file.', 0aH
	DB	00H						; `string'
CONST	ENDS
;	COMDAT ??_C@_0DL@CHHOFFHM@int?5__thiscall?5i3IniParser?3?3Ope@
CONST	SEGMENT
??_C@_0DL@CHHOFFHM@int?5__thiscall?5i3IniParser?3?3Ope@ DB 'int __thiscal'
	DB	'l i3IniParser::OpenFromFile(const char *,int)', 00H ; `string'
CONST	ENDS
;	COMDAT ??_C@_0BI@GMCEFIID@Could?5not?5create?5file?4?6@
CONST	SEGMENT
??_C@_0BI@GMCEFIID@Could?5not?5create?5file?4?6@ DB 'Could not create fil'
	DB	'e.', 0aH, 00H				; `string'
CONST	ENDS
;	COMDAT ??_C@_0GG@LIGOM@E?3?2Proyectos?2JuegosOnlineproyec@
CONST	SEGMENT
??_C@_0GG@LIGOM@E?3?2Proyectos?2JuegosOnlineproyec@ DB 'E:\Proyectos\Jueg'
	DB	'osOnlineproyectos\PB\pbblow\Piercing Blow Remake\i3Server\src'
	DB	'\i3Base\i3IniParser.cpp', 00H		; `string'
CONST	ENDS
;	COMDAT ??_C@_0DB@ONEFMAII@int?5__thiscall?5i3IniParser?3?3Cre@
CONST	SEGMENT
??_C@_0DB@ONEFMAII@int?5__thiscall?5i3IniParser?3?3Cre@ DB 'int __thiscal'
	DB	'l i3IniParser::Create(const char *)', 00H	; `string'
CONST	ENDS
;	COMDAT ??_7i3Timer@@6B@
CONST	SEGMENT
??_7i3Timer@@6B@ DD FLAT:??_R4i3Timer@@6B@		; i3Timer::`vftable'
	DD	FLAT:?GetMeta@i3Timer@@UAEPAVi3ClassMeta@@XZ
	DD	FLAT:??_Ei3Timer@@UAEPAXI@Z
	DD	FLAT:?CopyTo@i3ElementBase@@UAEXPAV1@W4I3_COPY_METHOD@@@Z
CONST	ENDS
;	COMDAT ??_7i3SimpleLineLexer@@6B@
CONST	SEGMENT
??_7i3SimpleLineLexer@@6B@ DD FLAT:??_R4i3SimpleLineLexer@@6B@ ; i3SimpleLineLexer::`vftable'
	DD	FLAT:?GetMeta@i3SimpleLineLexer@@UAEPAVi3ClassMeta@@XZ
	DD	FLAT:??_Ei3SimpleLineLexer@@UAEPAXI@Z
	DD	FLAT:?CopyTo@i3ElementBase@@UAEXPAV1@W4I3_COPY_METHOD@@@Z
CONST	ENDS
;	COMDAT ??_7i3LineLexer@@6B@
CONST	SEGMENT
??_7i3LineLexer@@6B@ DD FLAT:??_R4i3LineLexer@@6B@	; i3LineLexer::`vftable'
	DD	FLAT:?GetMeta@i3LineLexer@@UAEPAVi3ClassMeta@@XZ
	DD	FLAT:??_Ei3LineLexer@@UAEPAXI@Z
	DD	FLAT:?CopyTo@i3ElementBase@@UAEXPAV1@W4I3_COPY_METHOD@@@Z
CONST	ENDS
;	COMDAT ??_7i3IniParser@@6B@
CONST	SEGMENT
??_7i3IniParser@@6B@ DD FLAT:??_R4i3IniParser@@6B@	; i3IniParser::`vftable'
	DD	FLAT:?GetMeta@i3IniParser@@UAEPAVi3ClassMeta@@XZ
	DD	FLAT:??_Ei3IniParser@@UAEPAXI@Z
	DD	FLAT:?CopyTo@i3ElementBase@@UAEXPAV1@W4I3_COPY_METHOD@@@Z
CONST	ENDS
;	COMDAT ??_7i3StringList@@6B@
CONST	SEGMENT
??_7i3StringList@@6B@ DD FLAT:??_R4i3StringList@@6B@	; i3StringList::`vftable'
	DD	FLAT:?GetMeta@i3StringList@@UAEPAVi3ClassMeta@@XZ
	DD	FLAT:??_Ei3StringList@@UAEPAXI@Z
	DD	FLAT:?CopyTo@i3ElementBase@@UAEXPAV1@W4I3_COPY_METHOD@@@Z
	DD	FLAT:?IndexOf@i3StringList@@UBEHPAD@Z
	DD	FLAT:?Add@i3StringList@@UAEHPADH@Z
	DD	FLAT:?Insert@i3StringList@@UAEHHPADH@Z
	DD	FLAT:?Delete@i3StringList@@UAEHH@Z
	DD	FLAT:?Remove@i3StringList@@UAEHPAD@Z
	DD	FLAT:?Clear@i3StringList@@UAEXXZ
CONST	ENDS
;	COMDAT ??_C@_0GD@LNMGNFKI@E?3?2Proyectos?2JuegosOnlineproyec@
CONST	SEGMENT
??_C@_0GD@LNMGNFKI@E?3?2Proyectos?2JuegosOnlineproyec@ DB 'E:\Proyectos\J'
	DB	'uegosOnlineproyectos\PB\pbblow\Piercing Blow Remake\i3Server\'
	DB	'include\i3Base\i3List.h', 00H		; `string'
CONST	ENDS
;	COMDAT ??_7i3List@@6B@
CONST	SEGMENT
??_7i3List@@6B@ DD FLAT:??_R4i3List@@6B@		; i3List::`vftable'
	DD	FLAT:?GetMeta@i3List@@UAEPAVi3ClassMeta@@XZ
	DD	FLAT:??_Ei3List@@UAEPAXI@Z
	DD	FLAT:?CopyTo@i3ElementBase@@UAEXPAV1@W4I3_COPY_METHOD@@@Z
	DD	FLAT:?IndexOf@i3List@@UBEHPBX@Z
	DD	FLAT:?Add@i3List@@UAEHPAX@Z
	DD	FLAT:?Insert@i3List@@UAEHHPAX@Z
	DD	FLAT:?Delete@i3List@@UAEHH@Z
	DD	FLAT:?Remove@i3List@@UAEHPAX@Z
	DD	FLAT:?Clear@i3List@@UAEXH@Z
CONST	ENDS
;	COMDAT ??_7i3XMLElement@@6B@
CONST	SEGMENT
??_7i3XMLElement@@6B@ DD FLAT:??_R4i3XMLElement@@6B@	; i3XMLElement::`vftable'
	DD	FLAT:??_Ei3XMLElement@@UAEPAXI@Z
	DD	FLAT:?Print@TiXmlElement@@UBEXPAVi3FileStream@@H@Z
	DD	FLAT:?Parse@TiXmlElement@@UAEPBDPBDPAVTiXmlParsingData@@W4TiXmlEncoding@@@Z
	DD	FLAT:?ToDocument@TiXmlNode@@UAEPAVTiXmlDocument@@XZ
	DD	FLAT:?ToDocument@TiXmlNode@@UBEPBVTiXmlDocument@@XZ
	DD	FLAT:?ToElement@TiXmlElement@@UAEPAV1@XZ
	DD	FLAT:?ToElement@TiXmlElement@@UBEPBV1@XZ
	DD	FLAT:?ToComment@TiXmlNode@@UAEPAVTiXmlComment@@XZ
	DD	FLAT:?ToComment@TiXmlNode@@UBEPBVTiXmlComment@@XZ
	DD	FLAT:?ToUnknown@TiXmlNode@@UAEPAVTiXmlUnknown@@XZ
	DD	FLAT:?ToUnknown@TiXmlNode@@UBEPBVTiXmlUnknown@@XZ
	DD	FLAT:?ToText@TiXmlNode@@UAEPAVTiXmlText@@XZ
	DD	FLAT:?ToText@TiXmlNode@@UBEPBVTiXmlText@@XZ
	DD	FLAT:?ToDeclaration@TiXmlNode@@UAEPAVTiXmlDeclaration@@XZ
	DD	FLAT:?ToDeclaration@TiXmlNode@@UBEPBVTiXmlDeclaration@@XZ
	DD	FLAT:?Clone@TiXmlElement@@UBEPAVTiXmlNode@@XZ
	DD	FLAT:?Accept@TiXmlElement@@UBE_NPAVTiXmlVisitor@@@Z
CONST	ENDS
;	COMDAT ??_C@_01EEMJAFIK@?6@
CONST	SEGMENT
??_C@_01EEMJAFIK@?6@ DB 0aH, 00H			; `string'
CONST	ENDS
;	COMDAT ??_C@_04PFOHOKJK@?5?5?5?5@
CONST	SEGMENT
??_C@_04PFOHOKJK@?5?5?5?5@ DB '    ', 00H		; `string'
CONST	ENDS
;	COMDAT ??_7TiXmlPrinter@@6B@
CONST	SEGMENT
??_7TiXmlPrinter@@6B@ DD FLAT:??_R4TiXmlPrinter@@6B@	; TiXmlPrinter::`vftable'
	DD	FLAT:??_ETiXmlPrinter@@UAEPAXI@Z
	DD	FLAT:?VisitEnter@TiXmlPrinter@@UAE_NABVTiXmlElement@@PBVTiXmlAttribute@@@Z
	DD	FLAT:?VisitEnter@TiXmlPrinter@@UAE_NABVTiXmlDocument@@@Z
	DD	FLAT:?VisitExit@TiXmlPrinter@@UAE_NABVTiXmlElement@@@Z
	DD	FLAT:?VisitExit@TiXmlPrinter@@UAE_NABVTiXmlDocument@@@Z
	DD	FLAT:?Visit@TiXmlPrinter@@UAE_NABVTiXmlUnknown@@@Z
	DD	FLAT:?Visit@TiXmlPrinter@@UAE_NABVTiXmlComment@@@Z
	DD	FLAT:?Visit@TiXmlPrinter@@UAE_NABVTiXmlText@@@Z
	DD	FLAT:?Visit@TiXmlPrinter@@UAE_NABVTiXmlDeclaration@@@Z
CONST	ENDS
;	COMDAT ??_C@_00CNPNBAHC@@
CONST	SEGMENT
??_C@_00CNPNBAHC@@ DB 00H				; `string'
CONST	ENDS
;	COMDAT ??_7TiXmlDocument@@6B@
CONST	SEGMENT
??_7TiXmlDocument@@6B@ DD FLAT:??_R4TiXmlDocument@@6B@	; TiXmlDocument::`vftable'
	DD	FLAT:??_ETiXmlDocument@@UAEPAXI@Z
	DD	FLAT:?Print@TiXmlDocument@@UBEXPAVi3FileStream@@H@Z
	DD	FLAT:?Parse@TiXmlDocument@@UAEPBDPBDPAVTiXmlParsingData@@W4TiXmlEncoding@@@Z
	DD	FLAT:?ToDocument@TiXmlDocument@@UAEPAV1@XZ
	DD	FLAT:?ToDocument@TiXmlDocument@@UBEPBV1@XZ
	DD	FLAT:?ToElement@TiXmlNode@@UAEPAVTiXmlElement@@XZ
	DD	FLAT:?ToElement@TiXmlNode@@UBEPBVTiXmlElement@@XZ
	DD	FLAT:?ToComment@TiXmlNode@@UAEPAVTiXmlComment@@XZ
	DD	FLAT:?ToComment@TiXmlNode@@UBEPBVTiXmlComment@@XZ
	DD	FLAT:?ToUnknown@TiXmlNode@@UAEPAVTiXmlUnknown@@XZ
	DD	FLAT:?ToUnknown@TiXmlNode@@UBEPBVTiXmlUnknown@@XZ
	DD	FLAT:?ToText@TiXmlNode@@UAEPAVTiXmlText@@XZ
	DD	FLAT:?ToText@TiXmlNode@@UBEPBVTiXmlText@@XZ
	DD	FLAT:?ToDeclaration@TiXmlNode@@UAEPAVTiXmlDeclaration@@XZ
	DD	FLAT:?ToDeclaration@TiXmlNode@@UBEPBVTiXmlDeclaration@@XZ
	DD	FLAT:?Clone@TiXmlDocument@@MBEPAVTiXmlNode@@XZ
	DD	FLAT:?Accept@TiXmlDocument@@UBE_NPAVTiXmlVisitor@@@Z
CONST	ENDS
;	COMDAT ??_7TiXmlUnknown@@6B@
CONST	SEGMENT
??_7TiXmlUnknown@@6B@ DD FLAT:??_R4TiXmlUnknown@@6B@	; TiXmlUnknown::`vftable'
	DD	FLAT:??_ETiXmlUnknown@@UAEPAXI@Z
	DD	FLAT:?Print@TiXmlUnknown@@UBEXPAVi3FileStream@@H@Z
	DD	FLAT:?Parse@TiXmlUnknown@@UAEPBDPBDPAVTiXmlParsingData@@W4TiXmlEncoding@@@Z
	DD	FLAT:?ToDocument@TiXmlNode@@UAEPAVTiXmlDocument@@XZ
	DD	FLAT:?ToDocument@TiXmlNode@@UBEPBVTiXmlDocument@@XZ
	DD	FLAT:?ToElement@TiXmlNode@@UAEPAVTiXmlElement@@XZ
	DD	FLAT:?ToElement@TiXmlNode@@UBEPBVTiXmlElement@@XZ
	DD	FLAT:?ToComment@TiXmlNode@@UAEPAVTiXmlComment@@XZ
	DD	FLAT:?ToComment@TiXmlNode@@UBEPBVTiXmlComment@@XZ
	DD	FLAT:?ToUnknown@TiXmlUnknown@@UAEPAV1@XZ
	DD	FLAT:?ToUnknown@TiXmlUnknown@@UBEPBV1@XZ
	DD	FLAT:?ToText@TiXmlNode@@UAEPAVTiXmlText@@XZ
	DD	FLAT:?ToText@TiXmlNode@@UBEPBVTiXmlText@@XZ
	DD	FLAT:?ToDeclaration@TiXmlNode@@UAEPAVTiXmlDeclaration@@XZ
	DD	FLAT:?ToDeclaration@TiXmlNode@@UBEPBVTiXmlDeclaration@@XZ
	DD	FLAT:?Clone@TiXmlUnknown@@UBEPAVTiXmlNode@@XZ
	DD	FLAT:?Accept@TiXmlUnknown@@UBE_NPAVTiXmlVisitor@@@Z
CONST	ENDS
;	COMDAT ??_7TiXmlDeclaration@@6B@
CONST	SEGMENT
??_7TiXmlDeclaration@@6B@ DD FLAT:??_R4TiXmlDeclaration@@6B@ ; TiXmlDeclaration::`vftable'
	DD	FLAT:??_ETiXmlDeclaration@@UAEPAXI@Z
	DD	FLAT:?Print@TiXmlDeclaration@@UBEXPAVi3FileStream@@H@Z
	DD	FLAT:?Parse@TiXmlDeclaration@@UAEPBDPBDPAVTiXmlParsingData@@W4TiXmlEncoding@@@Z
	DD	FLAT:?ToDocument@TiXmlNode@@UAEPAVTiXmlDocument@@XZ
	DD	FLAT:?ToDocument@TiXmlNode@@UBEPBVTiXmlDocument@@XZ
	DD	FLAT:?ToElement@TiXmlNode@@UAEPAVTiXmlElement@@XZ
	DD	FLAT:?ToElement@TiXmlNode@@UBEPBVTiXmlElement@@XZ
	DD	FLAT:?ToComment@TiXmlNode@@UAEPAVTiXmlComment@@XZ
	DD	FLAT:?ToComment@TiXmlNode@@UBEPBVTiXmlComment@@XZ
	DD	FLAT:?ToUnknown@TiXmlNode@@UAEPAVTiXmlUnknown@@XZ
	DD	FLAT:?ToUnknown@TiXmlNode@@UBEPBVTiXmlUnknown@@XZ
	DD	FLAT:?ToText@TiXmlNode@@UAEPAVTiXmlText@@XZ
	DD	FLAT:?ToText@TiXmlNode@@UBEPBVTiXmlText@@XZ
	DD	FLAT:?ToDeclaration@TiXmlDeclaration@@UAEPAV1@XZ
	DD	FLAT:?ToDeclaration@TiXmlDeclaration@@UBEPBV1@XZ
	DD	FLAT:?Clone@TiXmlDeclaration@@UBEPAVTiXmlNode@@XZ
	DD	FLAT:?Accept@TiXmlDeclaration@@UBE_NPAVTiXmlVisitor@@@Z
	DD	FLAT:?Print@TiXmlDeclaration@@UBEXPAVi3FileStream@@HPAVTiXmlString@@@Z
CONST	ENDS
;	COMDAT ??_7TiXmlText@@6B@
CONST	SEGMENT
??_7TiXmlText@@6B@ DD FLAT:??_R4TiXmlText@@6B@		; TiXmlText::`vftable'
	DD	FLAT:??_ETiXmlText@@UAEPAXI@Z
	DD	FLAT:?Print@TiXmlText@@UBEXPAVi3FileStream@@H@Z
	DD	FLAT:?Parse@TiXmlText@@UAEPBDPBDPAVTiXmlParsingData@@W4TiXmlEncoding@@@Z
	DD	FLAT:?ToDocument@TiXmlNode@@UAEPAVTiXmlDocument@@XZ
	DD	FLAT:?ToDocument@TiXmlNode@@UBEPBVTiXmlDocument@@XZ
	DD	FLAT:?ToElement@TiXmlNode@@UAEPAVTiXmlElement@@XZ
	DD	FLAT:?ToElement@TiXmlNode@@UBEPBVTiXmlElement@@XZ
	DD	FLAT:?ToComment@TiXmlNode@@UAEPAVTiXmlComment@@XZ
	DD	FLAT:?ToComment@TiXmlNode@@UBEPBVTiXmlComment@@XZ
	DD	FLAT:?ToUnknown@TiXmlNode@@UAEPAVTiXmlUnknown@@XZ
	DD	FLAT:?ToUnknown@TiXmlNode@@UBEPBVTiXmlUnknown@@XZ
	DD	FLAT:?ToText@TiXmlText@@UAEPAV1@XZ
	DD	FLAT:?ToText@TiXmlText@@UBEPBV1@XZ
	DD	FLAT:?ToDeclaration@TiXmlNode@@UAEPAVTiXmlDeclaration@@XZ
	DD	FLAT:?ToDeclaration@TiXmlNode@@UBEPBVTiXmlDeclaration@@XZ
	DD	FLAT:?Clone@TiXmlText@@MBEPAVTiXmlNode@@XZ
	DD	FLAT:?Accept@TiXmlText@@UBE_NPAVTiXmlVisitor@@@Z
CONST	ENDS
;	COMDAT ??_7TiXmlComment@@6B@
CONST	SEGMENT
??_7TiXmlComment@@6B@ DD FLAT:??_R4TiXmlComment@@6B@	; TiXmlComment::`vftable'
	DD	FLAT:??_ETiXmlComment@@UAEPAXI@Z
	DD	FLAT:?Print@TiXmlComment@@UBEXPAVi3FileStream@@H@Z
	DD	FLAT:?Parse@TiXmlComment@@UAEPBDPBDPAVTiXmlParsingData@@W4TiXmlEncoding@@@Z
	DD	FLAT:?ToDocument@TiXmlNode@@UAEPAVTiXmlDocument@@XZ
	DD	FLAT:?ToDocument@TiXmlNode@@UBEPBVTiXmlDocument@@XZ
	DD	FLAT:?ToElement@TiXmlNode@@UAEPAVTiXmlElement@@XZ
	DD	FLAT:?ToElement@TiXmlNode@@UBEPBVTiXmlElement@@XZ
	DD	FLAT:?ToComment@TiXmlComment@@UAEPAV1@XZ
	DD	FLAT:?ToComment@TiXmlComment@@UBEPBV1@XZ
	DD	FLAT:?ToUnknown@TiXmlNode@@UAEPAVTiXmlUnknown@@XZ
	DD	FLAT:?ToUnknown@TiXmlNode@@UBEPBVTiXmlUnknown@@XZ
	DD	FLAT:?ToText@TiXmlNode@@UAEPAVTiXmlText@@XZ
	DD	FLAT:?ToText@TiXmlNode@@UBEPBVTiXmlText@@XZ
	DD	FLAT:?ToDeclaration@TiXmlNode@@UAEPAVTiXmlDeclaration@@XZ
	DD	FLAT:?ToDeclaration@TiXmlNode@@UBEPBVTiXmlDeclaration@@XZ
	DD	FLAT:?Clone@TiXmlComment@@UBEPAVTiXmlNode@@XZ
	DD	FLAT:?Accept@TiXmlComment@@UBE_NPAVTiXmlVisitor@@@Z
CONST	ENDS
;	COMDAT ??_7TiXmlAttribute@@6B@
CONST	SEGMENT
??_7TiXmlAttribute@@6B@ DD FLAT:??_R4TiXmlAttribute@@6B@ ; TiXmlAttribute::`vftable'
	DD	FLAT:??_ETiXmlAttribute@@UAEPAXI@Z
	DD	FLAT:?Print@TiXmlAttribute@@UBEXPAVi3FileStream@@H@Z
	DD	FLAT:?Parse@TiXmlAttribute@@UAEPBDPBDPAVTiXmlParsingData@@W4TiXmlEncoding@@@Z
CONST	ENDS
;	COMDAT ??_7TiXmlBase@@6B@
CONST	SEGMENT
??_7TiXmlBase@@6B@ DD FLAT:??_R4TiXmlBase@@6B@		; TiXmlBase::`vftable'
	DD	FLAT:??_ETiXmlBase@@UAEPAXI@Z
	DD	FLAT:__purecall
	DD	FLAT:__purecall
CONST	ENDS
;	COMDAT ??_7TiXmlVisitor@@6B@
CONST	SEGMENT
??_7TiXmlVisitor@@6B@ DD FLAT:??_R4TiXmlVisitor@@6B@	; TiXmlVisitor::`vftable'
	DD	FLAT:??_ETiXmlVisitor@@UAEPAXI@Z
	DD	FLAT:?VisitEnter@TiXmlVisitor@@UAE_NABVTiXmlElement@@PBVTiXmlAttribute@@@Z
	DD	FLAT:?VisitEnter@TiXmlVisitor@@UAE_NABVTiXmlDocument@@@Z
	DD	FLAT:?VisitExit@TiXmlVisitor@@UAE_NABVTiXmlElement@@@Z
	DD	FLAT:?VisitExit@TiXmlVisitor@@UAE_NABVTiXmlDocument@@@Z
	DD	FLAT:?Visit@TiXmlVisitor@@UAE_NABVTiXmlUnknown@@@Z
	DD	FLAT:?Visit@TiXmlVisitor@@UAE_NABVTiXmlComment@@@Z
	DD	FLAT:?Visit@TiXmlVisitor@@UAE_NABVTiXmlText@@@Z
	DD	FLAT:?Visit@TiXmlVisitor@@UAE_NABVTiXmlDeclaration@@@Z
CONST	ENDS
;	COMDAT ??_7i3FileStream@@6B@
CONST	SEGMENT
??_7i3FileStream@@6B@ DD FLAT:??_R4i3FileStream@@6B@	; i3FileStream::`vftable'
	DD	FLAT:?GetMeta@i3FileStream@@UAEPAVi3ClassMeta@@XZ
	DD	FLAT:??_Ei3FileStream@@UAEPAXI@Z
	DD	FLAT:?CopyTo@i3ElementBase@@UAEXPAV1@W4I3_COPY_METHOD@@@Z
	DD	FLAT:?GetHandle@i3FileStream@@UAEPAXXZ
	DD	FLAT:?Create@i3FileStream@@UAEHPBDHI@Z
	DD	FLAT:?Open@i3FileStream@@UAEHPBDHI@Z
	DD	FLAT:?Close@i3FileStream@@UAEHXZ
	DD	FLAT:?Read@i3FileStream@@UAEIPAXH@Z
	DD	FLAT:?CopyTo@i3Stream@@UAEIPAV1@I@Z
	DD	FLAT:?Write@i3FileStream@@UAEIPBXH@Z
	DD	FLAT:?CopyFrom@i3Stream@@UAEIPAV1@I@Z
	DD	FLAT:?SetPosition@i3FileStream@@UAEIHH@Z
	DD	FLAT:?GetPosition@i3FileStream@@UAEIXZ
	DD	FLAT:?ReadLine@i3Stream@@UAEIPADH@Z
	DD	FLAT:?ReadLineW@i3Stream@@UAEIPAGH@Z
	DD	FLAT:?WriteLine@i3Stream@@UAEIPBD@Z
	DD	FLAT:?WriteLineW@i3Stream@@UAEIPBG@Z
	DD	FLAT:?Printf@i3Stream@@UAAIPADPBDZZ
CONST	ENDS
;	COMDAT ??_7i3Stream@@6B@
CONST	SEGMENT
??_7i3Stream@@6B@ DD FLAT:??_R4i3Stream@@6B@		; i3Stream::`vftable'
	DD	FLAT:?GetMeta@i3Stream@@UAEPAVi3ClassMeta@@XZ
	DD	FLAT:??_Ei3Stream@@UAEPAXI@Z
	DD	FLAT:?CopyTo@i3ElementBase@@UAEXPAV1@W4I3_COPY_METHOD@@@Z
	DD	FLAT:?GetHandle@i3Stream@@UAEPAXXZ
	DD	FLAT:__purecall
	DD	FLAT:__purecall
	DD	FLAT:__purecall
	DD	FLAT:__purecall
	DD	FLAT:?CopyTo@i3Stream@@UAEIPAV1@I@Z
	DD	FLAT:__purecall
	DD	FLAT:?CopyFrom@i3Stream@@UAEIPAV1@I@Z
	DD	FLAT:__purecall
	DD	FLAT:__purecall
	DD	FLAT:?ReadLine@i3Stream@@UAEIPADH@Z
	DD	FLAT:?ReadLineW@i3Stream@@UAEIPAGH@Z
	DD	FLAT:?WriteLine@i3Stream@@UAEIPBD@Z
	DD	FLAT:?WriteLineW@i3Stream@@UAEIPBG@Z
	DD	FLAT:?Printf@i3Stream@@UAAIPADPBDZZ
CONST	ENDS
;	COMDAT ??_7i3MemoryPool@@6B@
CONST	SEGMENT
??_7i3MemoryPool@@6B@ DD FLAT:??_R4i3MemoryPool@@6B@	; i3MemoryPool::`vftable'
	DD	FLAT:??_Ei3MemoryPool@@UAEPAXI@Z
	DD	FLAT:__purecall
	DD	FLAT:__purecall
CONST	ENDS
;	COMDAT ??_7i3ElementBase@@6B@
CONST	SEGMENT
??_7i3ElementBase@@6B@ DD FLAT:??_R4i3ElementBase@@6B@	; i3ElementBase::`vftable'
	DD	FLAT:?GetMeta@i3ElementBase@@UAEPAVi3ClassMeta@@XZ
	DD	FLAT:??_Ei3ElementBase@@UAEPAXI@Z
	DD	FLAT:?CopyTo@i3ElementBase@@UAEXPAV1@W4I3_COPY_METHOD@@@Z
CONST	ENDS
;	COMDAT ??_7i3ClassMeta@@6B@
CONST	SEGMENT
??_7i3ClassMeta@@6B@ DD FLAT:??_R4i3ClassMeta@@6B@	; i3ClassMeta::`vftable'
	DD	FLAT:??_Ei3ClassMeta@@UAEPAXI@Z
	DD	FLAT:?CreateInstance@i3ClassMeta@@UAEPAVi3ElementBase@@W4I3_CLASSMETA_TYPE@@@Z
	DD	FLAT:?BindInstance@i3ClassMeta@@UAEPAVi3ElementBase@@PAXW4I3_CLASSMETA_TYPE@@@Z
CONST	ENDS
;	COMDAT xdata$x
xdata$x	SEGMENT
__unwindtable$?BindInstance@?$i3MetaTemplate@Vi3IniParser@@@@UAEPAVi3ElementBase@@PAXW4I3_CLASSMETA_TYPE@@@Z DD 0ffffffffH
	DD	FLAT:__unwindfunclet$?BindInstance@?$i3MetaTemplate@Vi3IniParser@@@@UAEPAVi3ElementBase@@PAXW4I3_CLASSMETA_TYPE@@@Z$0
__ehfuncinfo$?BindInstance@?$i3MetaTemplate@Vi3IniParser@@@@UAEPAVi3ElementBase@@PAXW4I3_CLASSMETA_TYPE@@@Z DD 019930522H
	DD	01H
	DD	FLAT:__unwindtable$?BindInstance@?$i3MetaTemplate@Vi3IniParser@@@@UAEPAVi3ElementBase@@PAXW4I3_CLASSMETA_TYPE@@@Z
	DD	2 DUP(00H)
	DD	2 DUP(00H)
	DD	00H
	DD	01H
xdata$x	ENDS
;	COMDAT xdata$x
xdata$x	SEGMENT
__unwindtable$?CreateInstance@?$i3MetaTemplate@Vi3IniParser@@@@UAEPAVi3ElementBase@@W4I3_CLASSMETA_TYPE@@@Z DD 0ffffffffH
	DD	FLAT:__unwindfunclet$?CreateInstance@?$i3MetaTemplate@Vi3IniParser@@@@UAEPAVi3ElementBase@@W4I3_CLASSMETA_TYPE@@@Z$0
__ehfuncinfo$?CreateInstance@?$i3MetaTemplate@Vi3IniParser@@@@UAEPAVi3ElementBase@@W4I3_CLASSMETA_TYPE@@@Z DD 019930522H
	DD	01H
	DD	FLAT:__unwindtable$?CreateInstance@?$i3MetaTemplate@Vi3IniParser@@@@UAEPAVi3ElementBase@@W4I3_CLASSMETA_TYPE@@@Z
	DD	2 DUP(00H)
	DD	2 DUP(00H)
	DD	00H
	DD	01H
xdata$x	ENDS
;	COMDAT xdata$x
xdata$x	SEGMENT
__ehfuncinfo$??_Ei3Timer@@UAEPAXI@Z DD 019930522H
	DD	00H
	DD	00H
	DD	2 DUP(00H)
	DD	2 DUP(00H)
	DD	00H
	DD	05H
xdata$x	ENDS
;	COMDAT xdata$x
xdata$x	SEGMENT
__ehfuncinfo$??_Ei3SimpleLineLexer@@UAEPAXI@Z DD 019930522H
	DD	00H
	DD	00H
	DD	2 DUP(00H)
	DD	2 DUP(00H)
	DD	00H
	DD	05H
xdata$x	ENDS
;	COMDAT xdata$x
xdata$x	SEGMENT
__ehfuncinfo$??_Ei3LineLexer@@UAEPAXI@Z DD 019930522H
	DD	00H
	DD	00H
	DD	2 DUP(00H)
	DD	2 DUP(00H)
	DD	00H
	DD	05H
xdata$x	ENDS
;	COMDAT xdata$x
xdata$x	SEGMENT
__unwindtable$??_Ei3IniParser@@UAEPAXI@Z DD 0ffffffffH
	DD	FLAT:___std_terminate
__ehfuncinfo$??_Ei3IniParser@@UAEPAXI@Z DD 019930522H
	DD	01H
	DD	FLAT:__unwindtable$??_Ei3IniParser@@UAEPAXI@Z
	DD	2 DUP(00H)
	DD	2 DUP(00H)
	DD	00H
	DD	05H
xdata$x	ENDS
;	COMDAT xdata$x
xdata$x	SEGMENT
__unwindtable$??_Gi3IniParser@@UAEPAXI@Z DD 0ffffffffH
	DD	FLAT:___std_terminate
__ehfuncinfo$??_Gi3IniParser@@UAEPAXI@Z DD 019930522H
	DD	01H
	DD	FLAT:__unwindtable$??_Gi3IniParser@@UAEPAXI@Z
	DD	2 DUP(00H)
	DD	2 DUP(00H)
	DD	00H
	DD	05H
xdata$x	ENDS
;	COMDAT xdata$x
xdata$x	SEGMENT
__unwindtable$?GetValues@i3IniParser@@QAEHPBDPAMHH@Z DD 0ffffffffH
	DD	FLAT:__unwindfunclet$?GetValues@i3IniParser@@QAEHPBDPAMHH@Z$0
__ehfuncinfo$?GetValues@i3IniParser@@QAEHPBDPAMHH@Z DD 019930522H
	DD	01H
	DD	FLAT:__unwindtable$?GetValues@i3IniParser@@QAEHPBDPAMHH@Z
	DD	2 DUP(00H)
	DD	2 DUP(00H)
	DD	00H
	DD	01H
xdata$x	ENDS
;	COMDAT xdata$x
xdata$x	SEGMENT
__unwindtable$?GetValues@i3IniParser@@QAEHPBDPAHHH@Z DD 0ffffffffH
	DD	FLAT:__unwindfunclet$?GetValues@i3IniParser@@QAEHPBDPAHHH@Z$0
__ehfuncinfo$?GetValues@i3IniParser@@QAEHPBDPAHHH@Z DD 019930522H
	DD	01H
	DD	FLAT:__unwindtable$?GetValues@i3IniParser@@QAEHPBDPAHHH@Z
	DD	2 DUP(00H)
	DD	2 DUP(00H)
	DD	00H
	DD	01H
xdata$x	ENDS
;	COMDAT xdata$x
xdata$x	SEGMENT
__ehfuncinfo$??1i3IniParser@@UAE@XZ DD 019930522H
	DD	00H
	DD	00H
	DD	2 DUP(00H)
	DD	2 DUP(00H)
	DD	00H
	DD	05H
xdata$x	ENDS
;	COMDAT xdata$x
xdata$x	SEGMENT
__unwindtable$??0i3IniParser@@QAE@XZ DD 0ffffffffH
	DD	FLAT:__unwindfunclet$??0i3IniParser@@QAE@XZ$0
__ehfuncinfo$??0i3IniParser@@QAE@XZ DD 019930522H
	DD	01H
	DD	FLAT:__unwindtable$??0i3IniParser@@QAE@XZ
	DD	2 DUP(00H)
	DD	2 DUP(00H)
	DD	00H
	DD	01H
xdata$x	ENDS
;	COMDAT voltbl
voltbl	SEGMENT
_volmd	DB	040H
voltbl	ENDS
;	COMDAT xdata$x
xdata$x	SEGMENT
__ehfuncinfo$??_Ei3StringList@@UAEPAXI@Z DD 019930522H
	DD	00H
	DD	00H
	DD	2 DUP(00H)
	DD	2 DUP(00H)
	DD	00H
	DD	05H
xdata$x	ENDS
;	COMDAT xdata$x
xdata$x	SEGMENT
__ehfuncinfo$??_Ei3List@@UAEPAXI@Z DD 019930522H
	DD	00H
	DD	00H
	DD	2 DUP(00H)
	DD	2 DUP(00H)
	DD	00H
	DD	05H
xdata$x	ENDS
;	COMDAT xdata$x
xdata$x	SEGMENT
__ehfuncinfo$??_Ei3XMLElement@@UAEPAXI@Z DD 019930522H
	DD	00H
	DD	00H
	DD	2 DUP(00H)
	DD	2 DUP(00H)
	DD	00H
	DD	05H
xdata$x	ENDS
;	COMDAT xdata$x
xdata$x	SEGMENT
__ehfuncinfo$??_ETiXmlPrinter@@UAEPAXI@Z DD 019930522H
	DD	00H
	DD	00H
	DD	2 DUP(00H)
	DD	2 DUP(00H)
	DD	00H
	DD	05H
xdata$x	ENDS
;	COMDAT xdata$x
xdata$x	SEGMENT
__unwindtable$??0TiXmlPrinter@@QAE@$$QAV0@@Z DD 0ffffffffH
	DD	FLAT:__unwindfunclet$??0TiXmlPrinter@@QAE@$$QAV0@@Z$0
	DD	00H
	DD	FLAT:__unwindfunclet$??0TiXmlPrinter@@QAE@$$QAV0@@Z$1
	DD	01H
	DD	FLAT:__unwindfunclet$??0TiXmlPrinter@@QAE@$$QAV0@@Z$2
__ehfuncinfo$??0TiXmlPrinter@@QAE@$$QAV0@@Z DD 019930522H
	DD	03H
	DD	FLAT:__unwindtable$??0TiXmlPrinter@@QAE@$$QAV0@@Z
	DD	2 DUP(00H)
	DD	2 DUP(00H)
	DD	00H
	DD	01H
xdata$x	ENDS
;	COMDAT xdata$x
xdata$x	SEGMENT
__unwindtable$??0TiXmlPrinter@@QAE@ABV0@@Z DD 0ffffffffH
	DD	FLAT:__unwindfunclet$??0TiXmlPrinter@@QAE@ABV0@@Z$0
	DD	00H
	DD	FLAT:__unwindfunclet$??0TiXmlPrinter@@QAE@ABV0@@Z$1
	DD	01H
	DD	FLAT:__unwindfunclet$??0TiXmlPrinter@@QAE@ABV0@@Z$2
__ehfuncinfo$??0TiXmlPrinter@@QAE@ABV0@@Z DD 019930522H
	DD	03H
	DD	FLAT:__unwindtable$??0TiXmlPrinter@@QAE@ABV0@@Z
	DD	2 DUP(00H)
	DD	2 DUP(00H)
	DD	00H
	DD	01H
xdata$x	ENDS
;	COMDAT xdata$x
xdata$x	SEGMENT
__unwindtable$??0TiXmlPrinter@@QAE@XZ DD 0ffffffffH
	DD	FLAT:__unwindfunclet$??0TiXmlPrinter@@QAE@XZ$0
	DD	00H
	DD	FLAT:__unwindfunclet$??0TiXmlPrinter@@QAE@XZ$1
	DD	01H
	DD	FLAT:__unwindfunclet$??0TiXmlPrinter@@QAE@XZ$2
__ehfuncinfo$??0TiXmlPrinter@@QAE@XZ DD 019930522H
	DD	03H
	DD	FLAT:__unwindtable$??0TiXmlPrinter@@QAE@XZ
	DD	2 DUP(00H)
	DD	2 DUP(00H)
	DD	00H
	DD	01H
xdata$x	ENDS
;	COMDAT xdata$x
xdata$x	SEGMENT
__ehfuncinfo$??_ETiXmlDocument@@UAEPAXI@Z DD 019930522H
	DD	00H
	DD	00H
	DD	2 DUP(00H)
	DD	2 DUP(00H)
	DD	00H
	DD	05H
xdata$x	ENDS
;	COMDAT xdata$x
xdata$x	SEGMENT
__ehfuncinfo$??_ETiXmlUnknown@@UAEPAXI@Z DD 019930522H
	DD	00H
	DD	00H
	DD	2 DUP(00H)
	DD	2 DUP(00H)
	DD	00H
	DD	05H
xdata$x	ENDS
;	COMDAT xdata$x
xdata$x	SEGMENT
__unwindtable$??0TiXmlUnknown@@QAE@ABV0@@Z DD 0ffffffffH
	DD	FLAT:__unwindfunclet$??0TiXmlUnknown@@QAE@ABV0@@Z$0
__ehfuncinfo$??0TiXmlUnknown@@QAE@ABV0@@Z DD 019930522H
	DD	01H
	DD	FLAT:__unwindtable$??0TiXmlUnknown@@QAE@ABV0@@Z
	DD	2 DUP(00H)
	DD	2 DUP(00H)
	DD	00H
	DD	01H
xdata$x	ENDS
;	COMDAT xdata$x
xdata$x	SEGMENT
__ehfuncinfo$??_ETiXmlDeclaration@@UAEPAXI@Z DD 019930522H
	DD	00H
	DD	00H
	DD	2 DUP(00H)
	DD	2 DUP(00H)
	DD	00H
	DD	05H
xdata$x	ENDS
;	COMDAT xdata$x
xdata$x	SEGMENT
__ehfuncinfo$??_ETiXmlText@@UAEPAXI@Z DD 019930522H
	DD	00H
	DD	00H
	DD	2 DUP(00H)
	DD	2 DUP(00H)
	DD	00H
	DD	05H
xdata$x	ENDS
;	COMDAT xdata$x
xdata$x	SEGMENT
__unwindtable$??0TiXmlText@@QAE@ABV0@@Z DD 0ffffffffH
	DD	FLAT:__unwindfunclet$??0TiXmlText@@QAE@ABV0@@Z$0
__ehfuncinfo$??0TiXmlText@@QAE@ABV0@@Z DD 019930522H
	DD	01H
	DD	FLAT:__unwindtable$??0TiXmlText@@QAE@ABV0@@Z
	DD	2 DUP(00H)
	DD	2 DUP(00H)
	DD	00H
	DD	01H
xdata$x	ENDS
;	COMDAT xdata$x
xdata$x	SEGMENT
__unwindtable$??0TiXmlText@@QAE@PBD@Z DD 0ffffffffH
	DD	FLAT:__unwindfunclet$??0TiXmlText@@QAE@PBD@Z$0
__ehfuncinfo$??0TiXmlText@@QAE@PBD@Z DD 019930522H
	DD	01H
	DD	FLAT:__unwindtable$??0TiXmlText@@QAE@PBD@Z
	DD	2 DUP(00H)
	DD	2 DUP(00H)
	DD	00H
	DD	01H
xdata$x	ENDS
;	COMDAT xdata$x
xdata$x	SEGMENT
__ehfuncinfo$??_ETiXmlComment@@UAEPAXI@Z DD 019930522H
	DD	00H
	DD	00H
	DD	2 DUP(00H)
	DD	2 DUP(00H)
	DD	00H
	DD	05H
xdata$x	ENDS
;	COMDAT xdata$x
xdata$x	SEGMENT
__unwindtable$??0TiXmlComment@@QAE@PBD@Z DD 0ffffffffH
	DD	FLAT:__unwindfunclet$??0TiXmlComment@@QAE@PBD@Z$0
__ehfuncinfo$??0TiXmlComment@@QAE@PBD@Z DD 019930522H
	DD	01H
	DD	FLAT:__unwindtable$??0TiXmlComment@@QAE@PBD@Z
	DD	2 DUP(00H)
	DD	2 DUP(00H)
	DD	00H
	DD	01H
xdata$x	ENDS
;	COMDAT xdata$x
xdata$x	SEGMENT
__ehfuncinfo$??_ETiXmlAttribute@@UAEPAXI@Z DD 019930522H
	DD	00H
	DD	00H
	DD	2 DUP(00H)
	DD	2 DUP(00H)
	DD	00H
	DD	05H
xdata$x	ENDS
;	COMDAT xdata$x
xdata$x	SEGMENT
__unwindtable$??0TiXmlAttribute@@QAE@PBD0@Z DD 0ffffffffH
	DD	FLAT:__unwindfunclet$??0TiXmlAttribute@@QAE@PBD0@Z$0
	DD	00H
	DD	FLAT:__unwindfunclet$??0TiXmlAttribute@@QAE@PBD0@Z$1
	DD	01H
	DD	FLAT:__unwindfunclet$??0TiXmlAttribute@@QAE@PBD0@Z$2
__ehfuncinfo$??0TiXmlAttribute@@QAE@PBD0@Z DD 019930522H
	DD	03H
	DD	FLAT:__unwindtable$??0TiXmlAttribute@@QAE@PBD0@Z
	DD	2 DUP(00H)
	DD	2 DUP(00H)
	DD	00H
	DD	01H
xdata$x	ENDS
;	COMDAT xdata$x
xdata$x	SEGMENT
__ehfuncinfo$??_ETiXmlBase@@UAEPAXI@Z DD 019930522H
	DD	00H
	DD	00H
	DD	2 DUP(00H)
	DD	2 DUP(00H)
	DD	00H
	DD	05H
xdata$x	ENDS
;	COMDAT xdata$x
xdata$x	SEGMENT
__ehfuncinfo$??_ETiXmlVisitor@@UAEPAXI@Z DD 019930522H
	DD	00H
	DD	00H
	DD	2 DUP(00H)
	DD	2 DUP(00H)
	DD	00H
	DD	05H
xdata$x	ENDS
;	COMDAT xdata$x
xdata$x	SEGMENT
__ehfuncinfo$??_Ei3FileStream@@UAEPAXI@Z DD 019930522H
	DD	00H
	DD	00H
	DD	2 DUP(00H)
	DD	2 DUP(00H)
	DD	00H
	DD	05H
xdata$x	ENDS
;	COMDAT xdata$x
xdata$x	SEGMENT
__ehfuncinfo$??_Ei3Stream@@UAEPAXI@Z DD 019930522H
	DD	00H
	DD	00H
	DD	2 DUP(00H)
	DD	2 DUP(00H)
	DD	00H
	DD	05H
xdata$x	ENDS
;	COMDAT xdata$x
xdata$x	SEGMENT
__ehfuncinfo$??_Ei3MemoryPool@@UAEPAXI@Z DD 019930522H
	DD	00H
	DD	00H
	DD	2 DUP(00H)
	DD	2 DUP(00H)
	DD	00H
	DD	05H
xdata$x	ENDS
;	COMDAT xdata$x
xdata$x	SEGMENT
__ehfuncinfo$??_Ei3ElementBase@@UAEPAXI@Z DD 019930522H
	DD	00H
	DD	00H
	DD	2 DUP(00H)
	DD	2 DUP(00H)
	DD	00H
	DD	05H
xdata$x	ENDS
;	COMDAT xdata$x
xdata$x	SEGMENT
__ehfuncinfo$??_Ei3ClassMeta@@UAEPAXI@Z DD 019930522H
	DD	00H
	DD	00H
	DD	2 DUP(00H)
	DD	2 DUP(00H)
	DD	00H
	DD	05H
xdata$x	ENDS
;	COMDAT voltbl
voltbl	SEGMENT
_volmd	DB	010H
voltbl	ENDS
;	COMDAT voltbl
voltbl	SEGMENT
_volmd	DB	010H
voltbl	ENDS
; Function compile flags: /Ogtp
;	COMDAT ??__Fs_ClassMetai3IniParser@@YAXXZ
text$yd	SEGMENT
??__Fs_ClassMetai3IniParser@@YAXXZ PROC			; `dynamic atexit destructor for 's_ClassMetai3IniParser'', COMDAT
  00000	b9 00 00 00 00	 mov	 ecx, OFFSET ?s_ClassMetai3IniParser@@3V?$i3MetaTemplate@Vi3IniParser@@@@A
  00005	e9 00 00 00 00	 jmp	 ??1i3ClassMeta@@UAE@XZ	; i3ClassMeta::~i3ClassMeta
??__Fs_ClassMetai3IniParser@@YAXXZ ENDP			; `dynamic atexit destructor for 's_ClassMetai3IniParser''
text$yd	ENDS
; Function compile flags: /Ogtp
; File E:\Proyectos\JuegosOnlineproyectos\PB\pbblow\Piercing Blow Remake\i3Server\src\i3Base\i3IniParser.cpp
; File E:\Proyectos\JuegosOnlineproyectos\PB\pbblow\Piercing Blow Remake\i3Server\include\i3Base\i3MetaTemplate.h
; File E:\Proyectos\JuegosOnlineproyectos\PB\pbblow\Piercing Blow Remake\i3Server\src\i3Base\i3IniParser.cpp
; File E:\Proyectos\JuegosOnlineproyectos\PB\pbblow\Piercing Blow Remake\i3Server\include\i3Base\i3MetaTemplate.h
; File E:\Proyectos\JuegosOnlineproyectos\PB\pbblow\Piercing Blow Remake\i3Server\src\i3Base\i3IniParser.cpp
;	COMDAT ??__Es_ClassMetai3IniParser@@YAXXZ
text$di	SEGMENT
??__Es_ClassMetai3IniParser@@YAXXZ PROC			; `dynamic initializer for 's_ClassMetai3IniParser'', COMDAT
; File E:\Proyectos\JuegosOnlineproyectos\PB\pbblow\Piercing Blow Remake\i3Server\include\i3Base\i3MetaTemplate.h

; 28   : : i3ClassMeta( classSz, pszClassName, pszBaseClassName, type)

  00000	6a 00		 push	 0
  00002	68 00 00 00 00	 push	 OFFSET ??_C@_0O@OCDFBOHM@i3ElementBase@
  00007	68 00 00 00 00	 push	 OFFSET ??_C@_0M@PAADBEPC@i3IniParser@
  0000c	68 b4 04 00 00	 push	 1204			; 000004b4H
  00011	b9 00 00 00 00	 mov	 ecx, OFFSET ?s_ClassMetai3IniParser@@3V?$i3MetaTemplate@Vi3IniParser@@@@A
  00016	e8 00 00 00 00	 call	 ??0i3ClassMeta@@QAE@IPAD0W4I3_CLASSMETA_TYPE@@@Z ; i3ClassMeta::i3ClassMeta
; File E:\Proyectos\JuegosOnlineproyectos\PB\pbblow\Piercing Blow Remake\i3Server\src\i3Base\i3IniParser.cpp

; 12   : I3_CLASS_INSTANCE(i3IniParser, i3ElementBase);

  0001b	68 00 00 00 00	 push	 OFFSET ??__Fs_ClassMetai3IniParser@@YAXXZ ; `dynamic atexit destructor for 's_ClassMetai3IniParser''
; File E:\Proyectos\JuegosOnlineproyectos\PB\pbblow\Piercing Blow Remake\i3Server\include\i3Base\i3MetaTemplate.h

; 29   : {

  00020	c7 05 00 00 00
	00 00 00 00 00	 mov	 DWORD PTR ?s_ClassMetai3IniParser@@3V?$i3MetaTemplate@Vi3IniParser@@@@A, OFFSET ??_7?$i3MetaTemplate@Vi3IniParser@@@@6B@
; File E:\Proyectos\JuegosOnlineproyectos\PB\pbblow\Piercing Blow Remake\i3Server\src\i3Base\i3IniParser.cpp

; 12   : I3_CLASS_INSTANCE(i3IniParser, i3ElementBase);

  0002a	e8 00 00 00 00	 call	 _atexit
  0002f	59		 pop	 ecx
  00030	c3		 ret	 0
??__Es_ClassMetai3IniParser@@YAXXZ ENDP			; `dynamic initializer for 's_ClassMetai3IniParser''
text$di	ENDS
; Function compile flags: /Ogtp
;	COMDAT ??_G?$i3MetaTemplate@Vi3IniParser@@@@UAEPAXI@Z
_TEXT	SEGMENT
___flags$ = 8						; size = 4
??_G?$i3MetaTemplate@Vi3IniParser@@@@UAEPAXI@Z PROC	; i3MetaTemplate<i3IniParser>::`scalar deleting destructor', COMDAT
; _this$ = ecx
  00000	55		 push	 ebp
  00001	8b ec		 mov	 ebp, esp
  00003	56		 push	 esi
  00004	8b f1		 mov	 esi, ecx
  00006	e8 00 00 00 00	 call	 ??1i3ClassMeta@@UAE@XZ	; i3ClassMeta::~i3ClassMeta
  0000b	f6 45 08 01	 test	 BYTE PTR ___flags$[ebp], 1
  0000f	74 0b		 je	 SHORT $LN10@scalar
  00011	6a 38		 push	 56			; 00000038H
  00013	56		 push	 esi
  00014	e8 00 00 00 00	 call	 ??3@YAXPAXI@Z		; operator delete
  00019	83 c4 08	 add	 esp, 8
$LN10@scalar:
  0001c	8b c6		 mov	 eax, esi
  0001e	5e		 pop	 esi
  0001f	5d		 pop	 ebp
  00020	c2 04 00	 ret	 4
??_G?$i3MetaTemplate@Vi3IniParser@@@@UAEPAXI@Z ENDP	; i3MetaTemplate<i3IniParser>::`scalar deleting destructor'
_TEXT	ENDS
; Function compile flags: /Ogtp
; File E:\Proyectos\JuegosOnlineproyectos\PB\pbblow\Piercing Blow Remake\i3Server\include\i3Base\i3MetaTemplate.h
;	COMDAT ?BindInstance@?$i3MetaTemplate@Vi3IniParser@@@@UAEPAVi3ElementBase@@PAXW4I3_CLASSMETA_TYPE@@@Z
_TEXT	SEGMENT
__$EHRec$ = -12						; size = 12
_pBuf$ = 8						; size = 4
_type$ = 12						; size = 4
$T2 = 12						; size = 4
?BindInstance@?$i3MetaTemplate@Vi3IniParser@@@@UAEPAVi3ElementBase@@PAXW4I3_CLASSMETA_TYPE@@@Z PROC ; i3MetaTemplate<i3IniParser>::BindInstance, COMDAT
; _this$ = ecx

; 129  : 	{

  00000	55		 push	 ebp
  00001	8b ec		 mov	 ebp, esp
  00003	6a ff		 push	 -1
  00005	68 00 00 00 00	 push	 __ehhandler$?BindInstance@?$i3MetaTemplate@Vi3IniParser@@@@UAEPAVi3ElementBase@@PAXW4I3_CLASSMETA_TYPE@@@Z
  0000a	64 a1 00 00 00
	00		 mov	 eax, DWORD PTR fs:0
  00010	50		 push	 eax
  00011	a1 00 00 00 00	 mov	 eax, DWORD PTR ___security_cookie
  00016	33 c5		 xor	 eax, ebp
  00018	50		 push	 eax
  00019	8d 45 f4	 lea	 eax, DWORD PTR __$EHRec$[ebp]
  0001c	64 a3 00 00 00
	00		 mov	 DWORD PTR fs:0, eax

; 130  : 		if( m_ProxyCount > 0)

  00022	83 79 30 00	 cmp	 DWORD PTR [ecx+48], 0
  00026	7e 25		 jle	 SHORT $LN2@BindInstan

; 131  : 		{
; 132  : 			i3ClassMeta * pMeta = GetConcreteClass( type);

  00028	ff 75 0c	 push	 DWORD PTR _type$[ebp]
  0002b	e8 00 00 00 00	 call	 ?GetConcreteClass@i3ClassMeta@@QAEPAV1@W4I3_CLASSMETA_TYPE@@@Z ; i3ClassMeta::GetConcreteClass

; 133  : 
; 134  : 			return pMeta->BindInstance( pBuf, I3_CLASSMETA_TYPE_GENERAL);

  00030	6a 00		 push	 0
  00032	ff 75 08	 push	 DWORD PTR _pBuf$[ebp]
  00035	8b c8		 mov	 ecx, eax
  00037	8b 10		 mov	 edx, DWORD PTR [eax]
  00039	ff 52 08	 call	 DWORD PTR [edx+8]

; 142  : 			#endif
; 143  : 		}
; 144  : 	}

  0003c	8b 4d f4	 mov	 ecx, DWORD PTR __$EHRec$[ebp]
  0003f	64 89 0d 00 00
	00 00		 mov	 DWORD PTR fs:0, ecx
  00046	59		 pop	 ecx
  00047	8b e5		 mov	 esp, ebp
  00049	5d		 pop	 ebp
  0004a	c2 08 00	 ret	 8
$LN2@BindInstan:

; 135  : 		}
; 136  : 		else
; 137  : 		{
; 138  : 			#if defined( I3_DEBUG)
; 139  : 				return (i3ElementBase *) new( pBuf ) T;
; 140  : 			#else
; 141  : 				return (i3ElementBase *) new( pBuf ) T;

  0004d	ff 75 08	 push	 DWORD PTR _pBuf$[ebp]
  00050	68 b4 04 00 00	 push	 1204			; 000004b4H
  00055	e8 00 00 00 00	 call	 ??2i3ElementBase@@SAPAXIPAX@Z ; i3ElementBase::operator new
  0005a	83 c4 08	 add	 esp, 8
  0005d	89 45 0c	 mov	 DWORD PTR $T2[ebp], eax
  00060	c7 45 fc 00 00
	00 00		 mov	 DWORD PTR __$EHRec$[ebp+8], 0
  00067	85 c0		 test	 eax, eax
  00069	74 18		 je	 SHORT $LN5@BindInstan
  0006b	8b c8		 mov	 ecx, eax
  0006d	e8 00 00 00 00	 call	 ??0i3IniParser@@QAE@XZ	; i3IniParser::i3IniParser

; 142  : 			#endif
; 143  : 		}
; 144  : 	}

  00072	8b 4d f4	 mov	 ecx, DWORD PTR __$EHRec$[ebp]
  00075	64 89 0d 00 00
	00 00		 mov	 DWORD PTR fs:0, ecx
  0007c	59		 pop	 ecx
  0007d	8b e5		 mov	 esp, ebp
  0007f	5d		 pop	 ebp
  00080	c2 08 00	 ret	 8
$LN5@BindInstan:

; 135  : 		}
; 136  : 		else
; 137  : 		{
; 138  : 			#if defined( I3_DEBUG)
; 139  : 				return (i3ElementBase *) new( pBuf ) T;
; 140  : 			#else
; 141  : 				return (i3ElementBase *) new( pBuf ) T;

  00083	33 c0		 xor	 eax, eax

; 142  : 			#endif
; 143  : 		}
; 144  : 	}

  00085	8b 4d f4	 mov	 ecx, DWORD PTR __$EHRec$[ebp]
  00088	64 89 0d 00 00
	00 00		 mov	 DWORD PTR fs:0, ecx
  0008f	59		 pop	 ecx
  00090	8b e5		 mov	 esp, ebp
  00092	5d		 pop	 ebp
  00093	c2 08 00	 ret	 8
_TEXT	ENDS
;	COMDAT text$x
text$x	SEGMENT
__unwindfunclet$?BindInstance@?$i3MetaTemplate@Vi3IniParser@@@@UAEPAVi3ElementBase@@PAXW4I3_CLASSMETA_TYPE@@@Z$0:
  00000	8b 45 08	 mov	 eax, DWORD PTR _pBuf$[ebp]
  00003	50		 push	 eax
  00004	8b 45 0c	 mov	 eax, DWORD PTR $T2[ebp]
  00007	50		 push	 eax
  00008	e8 00 00 00 00	 call	 ??3i3ElementBase@@SAXPAX0@Z ; i3ElementBase::operator delete
  0000d	83 c4 08	 add	 esp, 8
  00010	c3		 ret	 0
  00011	cc		 int	 3
  00012	cc		 int	 3
  00013	cc		 int	 3
  00014	cc		 int	 3
  00015	cc		 int	 3
__ehhandler$?BindInstance@?$i3MetaTemplate@Vi3IniParser@@@@UAEPAVi3ElementBase@@PAXW4I3_CLASSMETA_TYPE@@@Z:
  00016	90		 npad	 1
  00017	90		 npad	 1
  00018	8b 54 24 08	 mov	 edx, DWORD PTR [esp+8]
  0001c	8d 42 0c	 lea	 eax, DWORD PTR [edx+12]
  0001f	8b 4a fc	 mov	 ecx, DWORD PTR [edx-4]
  00022	33 c8		 xor	 ecx, eax
  00024	e8 00 00 00 00	 call	 @__security_check_cookie@4
  00029	b8 00 00 00 00	 mov	 eax, OFFSET __ehfuncinfo$?BindInstance@?$i3MetaTemplate@Vi3IniParser@@@@UAEPAVi3ElementBase@@PAXW4I3_CLASSMETA_TYPE@@@Z
  0002e	e9 00 00 00 00	 jmp	 ___CxxFrameHandler3
text$x	ENDS
?BindInstance@?$i3MetaTemplate@Vi3IniParser@@@@UAEPAVi3ElementBase@@PAXW4I3_CLASSMETA_TYPE@@@Z ENDP ; i3MetaTemplate<i3IniParser>::BindInstance
; Function compile flags: /Ogtp
; File E:\Proyectos\JuegosOnlineproyectos\PB\pbblow\Piercing Blow Remake\i3Server\include\i3Base\i3MetaTemplate.h
; File E:\Proyectos\JuegosOnlineproyectos\PB\pbblow\Piercing Blow Remake\i3Server\include\i3Base\i3ElementBase.h
; File E:\Proyectos\JuegosOnlineproyectos\PB\pbblow\Piercing Blow Remake\i3Server\include\i3Base\i3MetaTemplate.h
; File E:\Proyectos\JuegosOnlineproyectos\PB\pbblow\Piercing Blow Remake\i3Server\include\i3Base\i3ElementBase.h
; File E:\Proyectos\JuegosOnlineproyectos\PB\pbblow\Piercing Blow Remake\i3Server\include\i3Base\i3MetaTemplate.h
;	COMDAT ?CreateInstance@?$i3MetaTemplate@Vi3IniParser@@@@UAEPAVi3ElementBase@@W4I3_CLASSMETA_TYPE@@@Z
_TEXT	SEGMENT
__$EHRec$ = -12						; size = 12
_type$ = 8						; size = 4
$T2 = 8							; size = 4
?CreateInstance@?$i3MetaTemplate@Vi3IniParser@@@@UAEPAVi3ElementBase@@W4I3_CLASSMETA_TYPE@@@Z PROC ; i3MetaTemplate<i3IniParser>::CreateInstance, COMDAT
; _this$ = ecx

; 97   : 	{

  00000	55		 push	 ebp
  00001	8b ec		 mov	 ebp, esp
  00003	6a ff		 push	 -1
  00005	68 00 00 00 00	 push	 __ehhandler$?CreateInstance@?$i3MetaTemplate@Vi3IniParser@@@@UAEPAVi3ElementBase@@W4I3_CLASSMETA_TYPE@@@Z
  0000a	64 a1 00 00 00
	00		 mov	 eax, DWORD PTR fs:0
  00010	50		 push	 eax
  00011	56		 push	 esi
  00012	57		 push	 edi
  00013	a1 00 00 00 00	 mov	 eax, DWORD PTR ___security_cookie
  00018	33 c5		 xor	 eax, ebp
  0001a	50		 push	 eax
  0001b	8d 45 f4	 lea	 eax, DWORD PTR __$EHRec$[ebp]
  0001e	64 a3 00 00 00
	00		 mov	 DWORD PTR fs:0, eax
  00024	8b f9		 mov	 edi, ecx

; 98   : 		if( m_ProxyCount > 0)

  00026	83 7f 30 00	 cmp	 DWORD PTR [edi+48], 0
  0002a	7e 28		 jle	 SHORT $LN3@CreateInst

; 99   : 		{
; 100  : 			i3ClassMeta * pMeta = GetConcreteClass( type);

  0002c	ff 75 08	 push	 DWORD PTR _type$[ebp]
  0002f	e8 00 00 00 00	 call	 ?GetConcreteClass@i3ClassMeta@@QAEPAV1@W4I3_CLASSMETA_TYPE@@@Z ; i3ClassMeta::GetConcreteClass

; 101  : 
; 102  : 			if( pMeta != NULL)

  00034	85 c0		 test	 eax, eax
  00036	74 1c		 je	 SHORT $LN3@CreateInst

; 103  : 				return pMeta->CreateInstance( I3_CLASSMETA_TYPE_GENERAL);

  00038	8b 10		 mov	 edx, DWORD PTR [eax]
  0003a	8b c8		 mov	 ecx, eax
  0003c	6a 00		 push	 0
  0003e	ff 52 04	 call	 DWORD PTR [edx+4]

; 125  : 	}

  00041	8b 4d f4	 mov	 ecx, DWORD PTR __$EHRec$[ebp]
  00044	64 89 0d 00 00
	00 00		 mov	 DWORD PTR fs:0, ecx
  0004b	59		 pop	 ecx
  0004c	5f		 pop	 edi
  0004d	5e		 pop	 esi
  0004e	8b e5		 mov	 esp, ebp
  00050	5d		 pop	 ebp
  00051	c2 04 00	 ret	 4
$LN3@CreateInst:

; 104  : 		}
; 105  : 
; 106  : 		{
; 107  : 			if( m_pPool == NULL)

  00054	8b 4f 34	 mov	 ecx, DWORD PTR [edi+52]
  00057	85 c9		 test	 ecx, ecx
  00059	75 4a		 jne	 SHORT $LN4@CreateInst

; 108  : 			{
; 109  : 				#if defined( I3_DEBUG)
; 110  : 					return (i3ElementBase *) new T;
; 111  : 				#else
; 112  : 					return (i3ElementBase *) new T;

  0005b	68 b4 04 00 00	 push	 1204			; 000004b4H
  00060	e8 00 00 00 00	 call	 ??2i3ElementBase@@SAPAXI@Z ; i3ElementBase::operator new
  00065	83 c4 04	 add	 esp, 4
  00068	89 45 08	 mov	 DWORD PTR $T2[ebp], eax
  0006b	c7 45 fc 00 00
	00 00		 mov	 DWORD PTR __$EHRec$[ebp+8], 0
  00072	85 c0		 test	 eax, eax
  00074	74 1a		 je	 SHORT $LN7@CreateInst
  00076	8b c8		 mov	 ecx, eax
  00078	e8 00 00 00 00	 call	 ??0i3IniParser@@QAE@XZ	; i3IniParser::i3IniParser

; 125  : 	}

  0007d	8b 4d f4	 mov	 ecx, DWORD PTR __$EHRec$[ebp]
  00080	64 89 0d 00 00
	00 00		 mov	 DWORD PTR fs:0, ecx
  00087	59		 pop	 ecx
  00088	5f		 pop	 edi
  00089	5e		 pop	 esi
  0008a	8b e5		 mov	 esp, ebp
  0008c	5d		 pop	 ebp
  0008d	c2 04 00	 ret	 4
$LN7@CreateInst:

; 108  : 			{
; 109  : 				#if defined( I3_DEBUG)
; 110  : 					return (i3ElementBase *) new T;
; 111  : 				#else
; 112  : 					return (i3ElementBase *) new T;

  00090	33 c0		 xor	 eax, eax

; 125  : 	}

  00092	8b 4d f4	 mov	 ecx, DWORD PTR __$EHRec$[ebp]
  00095	64 89 0d 00 00
	00 00		 mov	 DWORD PTR fs:0, ecx
  0009c	59		 pop	 ecx
  0009d	5f		 pop	 edi
  0009e	5e		 pop	 esi
  0009f	8b e5		 mov	 esp, ebp
  000a1	5d		 pop	 ebp
  000a2	c2 04 00	 ret	 4
$LN4@CreateInst:

; 113  : 				#endif
; 114  : 			}
; 115  : 			else
; 116  : 			{
; 117  : 				i3ElementBase * p = (i3ElementBase *) m_pPool->Alloc( sizeof(T), NULL, 0);

  000a5	8b 01		 mov	 eax, DWORD PTR [ecx]
  000a7	6a 00		 push	 0
  000a9	6a 00		 push	 0
  000ab	68 b4 04 00 00	 push	 1204			; 000004b4H
  000b0	ff 50 04	 call	 DWORD PTR [eax+4]

; 118  : 	
; 119  : 				BindInstance( p, type);

  000b3	ff 75 08	 push	 DWORD PTR _type$[ebp]
  000b6	8b 17		 mov	 edx, DWORD PTR [edi]
  000b8	8b f0		 mov	 esi, eax
  000ba	56		 push	 esi
  000bb	8b cf		 mov	 ecx, edi
  000bd	ff 52 08	 call	 DWORD PTR [edx+8]
; File E:\Proyectos\JuegosOnlineproyectos\PB\pbblow\Piercing Blow Remake\i3Server\include\i3Base\i3ElementBase.h

; 347  : 	void			__SetMemoryPool( i3MemoryPool * pPool)			{ m_pPool = pPool; }

  000c0	8b 4f 34	 mov	 ecx, DWORD PTR [edi+52]
; File E:\Proyectos\JuegosOnlineproyectos\PB\pbblow\Piercing Blow Remake\i3Server\include\i3Base\i3MetaTemplate.h

; 122  : 				return p;

  000c3	8b c6		 mov	 eax, esi
; File E:\Proyectos\JuegosOnlineproyectos\PB\pbblow\Piercing Blow Remake\i3Server\include\i3Base\i3ElementBase.h

; 347  : 	void			__SetMemoryPool( i3MemoryPool * pPool)			{ m_pPool = pPool; }

  000c5	89 4e 0c	 mov	 DWORD PTR [esi+12], ecx
; File E:\Proyectos\JuegosOnlineproyectos\PB\pbblow\Piercing Blow Remake\i3Server\include\i3Base\i3MetaTemplate.h

; 125  : 	}

  000c8	8b 4d f4	 mov	 ecx, DWORD PTR __$EHRec$[ebp]
  000cb	64 89 0d 00 00
	00 00		 mov	 DWORD PTR fs:0, ecx
  000d2	59		 pop	 ecx
  000d3	5f		 pop	 edi
  000d4	5e		 pop	 esi
  000d5	8b e5		 mov	 esp, ebp
  000d7	5d		 pop	 ebp
  000d8	c2 04 00	 ret	 4
_TEXT	ENDS
;	COMDAT text$x
text$x	SEGMENT
__unwindfunclet$?CreateInstance@?$i3MetaTemplate@Vi3IniParser@@@@UAEPAVi3ElementBase@@W4I3_CLASSMETA_TYPE@@@Z$0:
  00000	8b 45 08	 mov	 eax, DWORD PTR $T2[ebp]
  00003	50		 push	 eax
  00004	e8 00 00 00 00	 call	 ??3i3ElementBase@@SAXPAX@Z ; i3ElementBase::operator delete
  00009	59		 pop	 ecx
  0000a	c3		 ret	 0
  0000b	cc		 int	 3
  0000c	cc		 int	 3
  0000d	cc		 int	 3
  0000e	cc		 int	 3
  0000f	cc		 int	 3
__ehhandler$?CreateInstance@?$i3MetaTemplate@Vi3IniParser@@@@UAEPAVi3ElementBase@@W4I3_CLASSMETA_TYPE@@@Z:
  00010	90		 npad	 1
  00011	90		 npad	 1
  00012	8b 54 24 08	 mov	 edx, DWORD PTR [esp+8]
  00016	8d 42 0c	 lea	 eax, DWORD PTR [edx+12]
  00019	8b 4a f4	 mov	 ecx, DWORD PTR [edx-12]
  0001c	33 c8		 xor	 ecx, eax
  0001e	e8 00 00 00 00	 call	 @__security_check_cookie@4
  00023	b8 00 00 00 00	 mov	 eax, OFFSET __ehfuncinfo$?CreateInstance@?$i3MetaTemplate@Vi3IniParser@@@@UAEPAVi3ElementBase@@W4I3_CLASSMETA_TYPE@@@Z
  00028	e9 00 00 00 00	 jmp	 ___CxxFrameHandler3
text$x	ENDS
?CreateInstance@?$i3MetaTemplate@Vi3IniParser@@@@UAEPAVi3ElementBase@@W4I3_CLASSMETA_TYPE@@@Z ENDP ; i3MetaTemplate<i3IniParser>::CreateInstance
; Function compile flags: /Ogtp
; File E:\Proyectos\JuegosOnlineproyectos\PB\pbblow\Piercing Blow Remake\i3Server\include\i3Base\i3MetaTemplate.h
;	COMDAT ??0?$i3MetaTemplate@Vi3IniParser@@@@QAE@IPAD0W4I3_CLASSMETA_TYPE@@@Z
_TEXT	SEGMENT
_this$ = -4						; size = 4
_classSz$ = 8						; size = 4
_pszClassName$ = 12					; size = 4
_pszBaseClassName$ = 16					; size = 4
_type$ = 20						; size = 4
??0?$i3MetaTemplate@Vi3IniParser@@@@QAE@IPAD0W4I3_CLASSMETA_TYPE@@@Z PROC ; i3MetaTemplate<i3IniParser>::i3MetaTemplate<i3IniParser>, COMDAT
; _this$ = ecx

; 29   : {

  00000	55		 push	 ebp
  00001	8b ec		 mov	 ebp, esp
  00003	51		 push	 ecx
  00004	56		 push	 esi
  00005	ff 75 14	 push	 DWORD PTR _type$[ebp]
  00008	8b f1		 mov	 esi, ecx
  0000a	ff 75 10	 push	 DWORD PTR _pszBaseClassName$[ebp]
  0000d	89 75 fc	 mov	 DWORD PTR _this$[ebp], esi
  00010	ff 75 0c	 push	 DWORD PTR _pszClassName$[ebp]
  00013	ff 75 08	 push	 DWORD PTR _classSz$[ebp]
  00016	e8 00 00 00 00	 call	 ??0i3ClassMeta@@QAE@IPAD0W4I3_CLASSMETA_TYPE@@@Z ; i3ClassMeta::i3ClassMeta
  0001b	c7 06 00 00 00
	00		 mov	 DWORD PTR [esi], OFFSET ??_7?$i3MetaTemplate@Vi3IniParser@@@@6B@

; 30   : }

  00021	8b c6		 mov	 eax, esi
  00023	5e		 pop	 esi
  00024	8b e5		 mov	 esp, ebp
  00026	5d		 pop	 ebp
  00027	c2 10 00	 ret	 16			; 00000010H
??0?$i3MetaTemplate@Vi3IniParser@@@@QAE@IPAD0W4I3_CLASSMETA_TYPE@@@Z ENDP ; i3MetaTemplate<i3IniParser>::i3MetaTemplate<i3IniParser>
_TEXT	ENDS
; Function compile flags: /Ogtp
; File E:\Proyectos\JuegosOnlineproyectos\PB\pbblow\Piercing Blow Remake\i3Server\src\i3Base\i3IniParser.cpp
;	COMDAT ??_Ei3Timer@@UAEPAXI@Z
_TEXT	SEGMENT
__$EHRec$ = -12						; size = 12
___flags$ = 8						; size = 4
??_Ei3Timer@@UAEPAXI@Z PROC				; i3Timer::`vector deleting destructor', COMDAT
; _this$ = ecx
  00000	55		 push	 ebp
  00001	8b ec		 mov	 ebp, esp
  00003	6a ff		 push	 -1
  00005	68 00 00 00 00	 push	 __ehhandler$??_Ei3Timer@@UAEPAXI@Z
  0000a	64 a1 00 00 00
	00		 mov	 eax, DWORD PTR fs:0
  00010	50		 push	 eax
  00011	53		 push	 ebx
  00012	56		 push	 esi
  00013	57		 push	 edi
  00014	a1 00 00 00 00	 mov	 eax, DWORD PTR ___security_cookie
  00019	33 c5		 xor	 eax, ebp
  0001b	50		 push	 eax
  0001c	8d 45 f4	 lea	 eax, DWORD PTR __$EHRec$[ebp]
  0001f	64 a3 00 00 00
	00		 mov	 DWORD PTR fs:0, eax
  00025	8b f1		 mov	 esi, ecx
  00027	8b 5d 08	 mov	 ebx, DWORD PTR ___flags$[ebp]
  0002a	8b fb		 mov	 edi, ebx
  0002c	83 e7 01	 and	 edi, 1
  0002f	f6 c3 02	 test	 bl, 2
  00032	74 43		 je	 SHORT $LN2@vector
  00034	68 00 00 00 00	 push	 OFFSET ??1i3Timer@@UAE@XZ ; i3Timer::~i3Timer
  00039	ff 76 fc	 push	 DWORD PTR [esi-4]
  0003c	8d 5e fc	 lea	 ebx, DWORD PTR [esi-4]
  0003f	6a 28		 push	 40			; 00000028H
  00041	56		 push	 esi
  00042	e8 00 00 00 00	 call	 ??_M@YGXPAXIIP6EX0@Z@Z
  00047	85 ff		 test	 edi, edi
  00049	74 16		 je	 SHORT $LN3@vector
  0004b	8b 0b		 mov	 ecx, DWORD PTR [ebx]
  0004d	8d 0c 89	 lea	 ecx, DWORD PTR [ecx+ecx*4]
  00050	8d 0c cd 04 00
	00 00		 lea	 ecx, DWORD PTR [ecx*8+4]
  00057	51		 push	 ecx
  00058	53		 push	 ebx
  00059	e8 00 00 00 00	 call	 ??_V@YAXPAXI@Z		; operator delete[]
  0005e	83 c4 08	 add	 esp, 8
$LN3@vector:
  00061	8b c3		 mov	 eax, ebx
  00063	8b 4d f4	 mov	 ecx, DWORD PTR __$EHRec$[ebp]
  00066	64 89 0d 00 00
	00 00		 mov	 DWORD PTR fs:0, ecx
  0006d	59		 pop	 ecx
  0006e	5f		 pop	 edi
  0006f	5e		 pop	 esi
  00070	5b		 pop	 ebx
  00071	8b e5		 mov	 esp, ebp
  00073	5d		 pop	 ebp
  00074	c2 04 00	 ret	 4
$LN2@vector:
  00077	e8 00 00 00 00	 call	 ??1i3Timer@@UAE@XZ	; i3Timer::~i3Timer
  0007c	85 ff		 test	 edi, edi
  0007e	74 1b		 je	 SHORT $LN6@vector
  00080	f6 c3 04	 test	 bl, 4
  00083	75 0b		 jne	 SHORT $LN5@vector
  00085	56		 push	 esi
  00086	e8 00 00 00 00	 call	 ??3i3ElementBase@@SAXPAX@Z ; i3ElementBase::operator delete
  0008b	83 c4 04	 add	 esp, 4
  0008e	eb 0b		 jmp	 SHORT $LN6@vector
$LN5@vector:

  00090	6a 28		 push	 40			; 00000028H
  00092	56		 push	 esi
  00093	e8 00 00 00 00	 call	 ??3@YAXPAXI@Z		; operator delete
  00098	83 c4 08	 add	 esp, 8
$LN6@vector:
  0009b	8b c6		 mov	 eax, esi
  0009d	8b 4d f4	 mov	 ecx, DWORD PTR __$EHRec$[ebp]
  000a0	64 89 0d 00 00
	00 00		 mov	 DWORD PTR fs:0, ecx
  000a7	59		 pop	 ecx
  000a8	5f		 pop	 edi
  000a9	5e		 pop	 esi
  000aa	5b		 pop	 ebx
  000ab	8b e5		 mov	 esp, ebp
  000ad	5d		 pop	 ebp
  000ae	c2 04 00	 ret	 4
  000b1	cc		 int	 3
  000b2	cc		 int	 3
  000b3	cc		 int	 3
  000b4	cc		 int	 3
  000b5	cc		 int	 3
_TEXT	ENDS
;	COMDAT text$x
text$x	SEGMENT
__ehhandler$??_Ei3Timer@@UAEPAXI@Z:
  00000	90		 npad	 1
  00001	90		 npad	 1
  00002	8b 54 24 08	 mov	 edx, DWORD PTR [esp+8]
  00006	8d 42 0c	 lea	 eax, DWORD PTR [edx+12]
  00009	8b 4a f0	 mov	 ecx, DWORD PTR [edx-16]
  0000c	33 c8		 xor	 ecx, eax
  0000e	e8 00 00 00 00	 call	 @__security_check_cookie@4
  00013	b8 00 00 00 00	 mov	 eax, OFFSET __ehfuncinfo$??_Ei3Timer@@UAEPAXI@Z
  00018	e9 00 00 00 00	 jmp	 ___CxxFrameHandler3
text$x	ENDS
??_Ei3Timer@@UAEPAXI@Z ENDP				; i3Timer::`vector deleting destructor'
; Function compile flags: /Ogtp
; File E:\Proyectos\JuegosOnlineproyectos\PB\pbblow\Piercing Blow Remake\i3Server\src\i3Base\i3IniParser.cpp
;	COMDAT ??_Gi3Timer@@UAEPAXI@Z
_TEXT	SEGMENT
___flags$ = 8						; size = 4
??_Gi3Timer@@UAEPAXI@Z PROC				; i3Timer::`scalar deleting destructor', COMDAT
; _this$ = ecx
  00000	55		 push	 ebp
  00001	8b ec		 mov	 ebp, esp
  00003	56		 push	 esi
  00004	8b f1		 mov	 esi, ecx
  00006	e8 00 00 00 00	 call	 ??1i3Timer@@UAE@XZ	; i3Timer::~i3Timer
  0000b	8b 45 08	 mov	 eax, DWORD PTR ___flags$[ebp]
  0000e	a8 01		 test	 al, 1
  00010	74 1f		 je	 SHORT $LN10@scalar
  00012	a8 04		 test	 al, 4
  00014	75 10		 jne	 SHORT $LN3@scalar
  00016	56		 push	 esi
  00017	e8 00 00 00 00	 call	 ??3i3ElementBase@@SAXPAX@Z ; i3ElementBase::operator delete
  0001c	83 c4 04	 add	 esp, 4
  0001f	8b c6		 mov	 eax, esi
  00021	5e		 pop	 esi
  00022	5d		 pop	 ebp
  00023	c2 04 00	 ret	 4
$LN3@scalar:

  00026	6a 28		 push	 40			; 00000028H
  00028	56		 push	 esi
  00029	e8 00 00 00 00	 call	 ??3@YAXPAXI@Z		; operator delete
  0002e	83 c4 08	 add	 esp, 8
$LN10@scalar:
  00031	8b c6		 mov	 eax, esi
  00033	5e		 pop	 esi
  00034	5d		 pop	 ebp
  00035	c2 04 00	 ret	 4
??_Gi3Timer@@UAEPAXI@Z ENDP				; i3Timer::`scalar deleting destructor'
_TEXT	ENDS
; Function compile flags: /Ogtp
;	COMDAT ??4i3Timer@@QAEAAV0@ABV0@@Z
_TEXT	SEGMENT
___that$ = 8						; size = 4
??4i3Timer@@QAEAAV0@ABV0@@Z PROC			; i3Timer::operator=, COMDAT
; _this$ = ecx
  00000	55		 push	 ebp
  00001	8b ec		 mov	 ebp, esp
  00003	8b 55 08	 mov	 edx, DWORD PTR ___that$[ebp]
  00006	56		 push	 esi
  00007	8b f1		 mov	 esi, ecx
  00009	8b 42 04	 mov	 eax, DWORD PTR [edx+4]
  0000c	89 46 04	 mov	 DWORD PTR [esi+4], eax
  0000f	8b 42 08	 mov	 eax, DWORD PTR [edx+8]
  00012	89 46 08	 mov	 DWORD PTR [esi+8], eax
  00015	8b 42 0c	 mov	 eax, DWORD PTR [edx+12]
  00018	89 46 0c	 mov	 DWORD PTR [esi+12], eax
  0001b	8b 42 10	 mov	 eax, DWORD PTR [edx+16]
  0001e	89 46 10	 mov	 DWORD PTR [esi+16], eax
  00021	8b 42 18	 mov	 eax, DWORD PTR [edx+24]
  00024	8b 4a 1c	 mov	 ecx, DWORD PTR [edx+28]
  00027	89 46 18	 mov	 DWORD PTR [esi+24], eax
  0002a	89 4e 1c	 mov	 DWORD PTR [esi+28], ecx
  0002d	8b 42 20	 mov	 eax, DWORD PTR [edx+32]
  00030	89 46 20	 mov	 DWORD PTR [esi+32], eax
  00033	8b c6		 mov	 eax, esi
  00035	5e		 pop	 esi
  00036	5d		 pop	 ebp
  00037	c2 04 00	 ret	 4
??4i3Timer@@QAEAAV0@ABV0@@Z ENDP			; i3Timer::operator=
_TEXT	ENDS
; Function compile flags: /Ogtp
;	COMDAT ??0i3Timer@@QAE@ABV0@@Z
_TEXT	SEGMENT
___that$ = 8						; size = 4
??0i3Timer@@QAE@ABV0@@Z PROC				; i3Timer::i3Timer, COMDAT
; _this$ = ecx
  00000	55		 push	 ebp
  00001	8b ec		 mov	 ebp, esp
  00003	8b 55 08	 mov	 edx, DWORD PTR ___that$[ebp]
  00006	56		 push	 esi
  00007	8b f1		 mov	 esi, ecx
  00009	c7 06 00 00 00
	00		 mov	 DWORD PTR [esi], OFFSET ??_7i3ElementBase@@6B@
  0000f	8b 42 04	 mov	 eax, DWORD PTR [edx+4]
  00012	89 46 04	 mov	 DWORD PTR [esi+4], eax
  00015	8b 42 08	 mov	 eax, DWORD PTR [edx+8]
  00018	89 46 08	 mov	 DWORD PTR [esi+8], eax
  0001b	8b 42 0c	 mov	 eax, DWORD PTR [edx+12]
  0001e	89 46 0c	 mov	 DWORD PTR [esi+12], eax
  00021	c7 06 00 00 00
	00		 mov	 DWORD PTR [esi], OFFSET ??_7i3Timer@@6B@
  00027	8b 42 10	 mov	 eax, DWORD PTR [edx+16]
  0002a	89 46 10	 mov	 DWORD PTR [esi+16], eax
  0002d	8b 42 18	 mov	 eax, DWORD PTR [edx+24]
  00030	8b 4a 1c	 mov	 ecx, DWORD PTR [edx+28]
  00033	89 46 18	 mov	 DWORD PTR [esi+24], eax
  00036	89 4e 1c	 mov	 DWORD PTR [esi+28], ecx
  00039	8b 42 20	 mov	 eax, DWORD PTR [edx+32]
  0003c	89 46 20	 mov	 DWORD PTR [esi+32], eax
  0003f	8b c6		 mov	 eax, esi
  00041	5e		 pop	 esi
  00042	5d		 pop	 ebp
  00043	c2 04 00	 ret	 4
??0i3Timer@@QAE@ABV0@@Z ENDP				; i3Timer::i3Timer
_TEXT	ENDS
; Function compile flags: /Ogtp
; File E:\Proyectos\JuegosOnlineproyectos\PB\pbblow\Piercing Blow Remake\i3Server\include\i3Base\i3Timer.h
;	COMDAT ?GetClassMeta@i3Timer@@SAPAVi3ClassMeta@@XZ
_TEXT	SEGMENT
?GetClassMeta@i3Timer@@SAPAVi3ClassMeta@@XZ PROC	; i3Timer::GetClassMeta, COMDAT

; 9    : 	I3_CLASS_DEFINE( i3Timer);

  00000	a1 00 00 00 00	 mov	 eax, DWORD PTR ?s_pClassMetai3Timer@i3Timer@@2PAVi3ClassMeta@@A ; i3Timer::s_pClassMetai3Timer
  00005	c3		 ret	 0
?GetClassMeta@i3Timer@@SAPAVi3ClassMeta@@XZ ENDP	; i3Timer::GetClassMeta
_TEXT	ENDS
; Function compile flags: /Ogtp
; File E:\Proyectos\JuegosOnlineproyectos\PB\pbblow\Piercing Blow Remake\i3Server\src\i3Base\i3IniParser.cpp
;	COMDAT ??_Ei3SimpleLineLexer@@UAEPAXI@Z
_TEXT	SEGMENT
__$EHRec$ = -12						; size = 12
___flags$ = 8						; size = 4
??_Ei3SimpleLineLexer@@UAEPAXI@Z PROC			; i3SimpleLineLexer::`vector deleting destructor', COMDAT
; _this$ = ecx
  00000	55		 push	 ebp
  00001	8b ec		 mov	 ebp, esp
  00003	6a ff		 push	 -1
  00005	68 00 00 00 00	 push	 __ehhandler$??_Ei3SimpleLineLexer@@UAEPAXI@Z
  0000a	64 a1 00 00 00
	00		 mov	 eax, DWORD PTR fs:0
  00010	50		 push	 eax
  00011	53		 push	 ebx
  00012	56		 push	 esi
  00013	57		 push	 edi
  00014	a1 00 00 00 00	 mov	 eax, DWORD PTR ___security_cookie
  00019	33 c5		 xor	 eax, ebp
  0001b	50		 push	 eax
  0001c	8d 45 f4	 lea	 eax, DWORD PTR __$EHRec$[ebp]
  0001f	64 a3 00 00 00
	00		 mov	 DWORD PTR fs:0, eax
  00025	8b f1		 mov	 esi, ecx
  00027	8b 5d 08	 mov	 ebx, DWORD PTR ___flags$[ebp]
  0002a	8b fb		 mov	 edi, ebx
  0002c	83 e7 01	 and	 edi, 1
  0002f	f6 c3 02	 test	 bl, 2
  00032	74 43		 je	 SHORT $LN2@vector
  00034	68 00 00 00 00	 push	 OFFSET ??1i3SimpleLineLexer@@UAE@XZ ; i3SimpleLineLexer::~i3SimpleLineLexer
  00039	ff 76 fc	 push	 DWORD PTR [esi-4]
  0003c	8d 5e fc	 lea	 ebx, DWORD PTR [esi-4]
  0003f	6a 18		 push	 24			; 00000018H
  00041	56		 push	 esi
  00042	e8 00 00 00 00	 call	 ??_M@YGXPAXIIP6EX0@Z@Z
  00047	85 ff		 test	 edi, edi
  00049	74 16		 je	 SHORT $LN3@vector
  0004b	8b 0b		 mov	 ecx, DWORD PTR [ebx]
  0004d	8d 0c 49	 lea	 ecx, DWORD PTR [ecx+ecx*2]
  00050	8d 0c cd 04 00
	00 00		 lea	 ecx, DWORD PTR [ecx*8+4]
  00057	51		 push	 ecx
  00058	53		 push	 ebx
  00059	e8 00 00 00 00	 call	 ??_V@YAXPAXI@Z		; operator delete[]
  0005e	83 c4 08	 add	 esp, 8
$LN3@vector:
  00061	8b c3		 mov	 eax, ebx
  00063	8b 4d f4	 mov	 ecx, DWORD PTR __$EHRec$[ebp]
  00066	64 89 0d 00 00
	00 00		 mov	 DWORD PTR fs:0, ecx
  0006d	59		 pop	 ecx
  0006e	5f		 pop	 edi
  0006f	5e		 pop	 esi
  00070	5b		 pop	 ebx
  00071	8b e5		 mov	 esp, ebp
  00073	5d		 pop	 ebp
  00074	c2 04 00	 ret	 4
$LN2@vector:
  00077	e8 00 00 00 00	 call	 ??1i3SimpleLineLexer@@UAE@XZ ; i3SimpleLineLexer::~i3SimpleLineLexer
  0007c	85 ff		 test	 edi, edi
  0007e	74 1b		 je	 SHORT $LN6@vector
  00080	f6 c3 04	 test	 bl, 4
  00083	75 0b		 jne	 SHORT $LN5@vector
  00085	56		 push	 esi
  00086	e8 00 00 00 00	 call	 ??3i3ElementBase@@SAXPAX@Z ; i3ElementBase::operator delete
  0008b	83 c4 04	 add	 esp, 4
  0008e	eb 0b		 jmp	 SHORT $LN6@vector
$LN5@vector:

  00090	6a 18		 push	 24			; 00000018H
  00092	56		 push	 esi
  00093	e8 00 00 00 00	 call	 ??3@YAXPAXI@Z		; operator delete
  00098	83 c4 08	 add	 esp, 8
$LN6@vector:
  0009b	8b c6		 mov	 eax, esi
  0009d	8b 4d f4	 mov	 ecx, DWORD PTR __$EHRec$[ebp]
  000a0	64 89 0d 00 00
	00 00		 mov	 DWORD PTR fs:0, ecx
  000a7	59		 pop	 ecx
  000a8	5f		 pop	 edi
  000a9	5e		 pop	 esi
  000aa	5b		 pop	 ebx
  000ab	8b e5		 mov	 esp, ebp
  000ad	5d		 pop	 ebp
  000ae	c2 04 00	 ret	 4
  000b1	cc		 int	 3
  000b2	cc		 int	 3
  000b3	cc		 int	 3
  000b4	cc		 int	 3
  000b5	cc		 int	 3
_TEXT	ENDS
;	COMDAT text$x
text$x	SEGMENT
__ehhandler$??_Ei3SimpleLineLexer@@UAEPAXI@Z:
  00000	90		 npad	 1
  00001	90		 npad	 1
  00002	8b 54 24 08	 mov	 edx, DWORD PTR [esp+8]
  00006	8d 42 0c	 lea	 eax, DWORD PTR [edx+12]
  00009	8b 4a f0	 mov	 ecx, DWORD PTR [edx-16]
  0000c	33 c8		 xor	 ecx, eax
  0000e	e8 00 00 00 00	 call	 @__security_check_cookie@4
  00013	b8 00 00 00 00	 mov	 eax, OFFSET __ehfuncinfo$??_Ei3SimpleLineLexer@@UAEPAXI@Z
  00018	e9 00 00 00 00	 jmp	 ___CxxFrameHandler3
text$x	ENDS
??_Ei3SimpleLineLexer@@UAEPAXI@Z ENDP			; i3SimpleLineLexer::`vector deleting destructor'
; Function compile flags: /Ogtp
; File E:\Proyectos\JuegosOnlineproyectos\PB\pbblow\Piercing Blow Remake\i3Server\src\i3Base\i3IniParser.cpp
;	COMDAT ??_Gi3SimpleLineLexer@@UAEPAXI@Z
_TEXT	SEGMENT
___flags$ = 8						; size = 4
??_Gi3SimpleLineLexer@@UAEPAXI@Z PROC			; i3SimpleLineLexer::`scalar deleting destructor', COMDAT
; _this$ = ecx
  00000	55		 push	 ebp
  00001	8b ec		 mov	 ebp, esp
  00003	56		 push	 esi
  00004	8b f1		 mov	 esi, ecx
  00006	e8 00 00 00 00	 call	 ??1i3SimpleLineLexer@@UAE@XZ ; i3SimpleLineLexer::~i3SimpleLineLexer
  0000b	8b 45 08	 mov	 eax, DWORD PTR ___flags$[ebp]
  0000e	a8 01		 test	 al, 1
  00010	74 1f		 je	 SHORT $LN10@scalar
  00012	a8 04		 test	 al, 4
  00014	75 10		 jne	 SHORT $LN3@scalar
  00016	56		 push	 esi
  00017	e8 00 00 00 00	 call	 ??3i3ElementBase@@SAXPAX@Z ; i3ElementBase::operator delete
  0001c	83 c4 04	 add	 esp, 4
  0001f	8b c6		 mov	 eax, esi
  00021	5e		 pop	 esi
  00022	5d		 pop	 ebp
  00023	c2 04 00	 ret	 4
$LN3@scalar:

  00026	6a 18		 push	 24			; 00000018H
  00028	56		 push	 esi
  00029	e8 00 00 00 00	 call	 ??3@YAXPAXI@Z		; operator delete
  0002e	83 c4 08	 add	 esp, 8
$LN10@scalar:
  00031	8b c6		 mov	 eax, esi
  00033	5e		 pop	 esi
  00034	5d		 pop	 ebp
  00035	c2 04 00	 ret	 4
??_Gi3SimpleLineLexer@@UAEPAXI@Z ENDP			; i3SimpleLineLexer::`scalar deleting destructor'
_TEXT	ENDS
; Function compile flags: /Ogtp
;	COMDAT ??4i3SimpleLineLexer@@QAEAAV0@ABV0@@Z
_TEXT	SEGMENT
___that$ = 8						; size = 4
??4i3SimpleLineLexer@@QAEAAV0@ABV0@@Z PROC		; i3SimpleLineLexer::operator=, COMDAT
; _this$ = ecx
  00000	55		 push	 ebp
  00001	8b ec		 mov	 ebp, esp
  00003	8b 55 08	 mov	 edx, DWORD PTR ___that$[ebp]
  00006	8b 42 04	 mov	 eax, DWORD PTR [edx+4]
  00009	89 41 04	 mov	 DWORD PTR [ecx+4], eax
  0000c	8b 42 08	 mov	 eax, DWORD PTR [edx+8]
  0000f	89 41 08	 mov	 DWORD PTR [ecx+8], eax
  00012	8b 42 0c	 mov	 eax, DWORD PTR [edx+12]
  00015	89 41 0c	 mov	 DWORD PTR [ecx+12], eax
  00018	8b 42 10	 mov	 eax, DWORD PTR [edx+16]
  0001b	89 41 10	 mov	 DWORD PTR [ecx+16], eax
  0001e	8b 42 14	 mov	 eax, DWORD PTR [edx+20]
  00021	89 41 14	 mov	 DWORD PTR [ecx+20], eax
  00024	8b c1		 mov	 eax, ecx
  00026	5d		 pop	 ebp
  00027	c2 04 00	 ret	 4
??4i3SimpleLineLexer@@QAEAAV0@ABV0@@Z ENDP		; i3SimpleLineLexer::operator=
_TEXT	ENDS
; Function compile flags: /Ogtp
;	COMDAT ??0i3SimpleLineLexer@@QAE@ABV0@@Z
_TEXT	SEGMENT
___that$ = 8						; size = 4
??0i3SimpleLineLexer@@QAE@ABV0@@Z PROC			; i3SimpleLineLexer::i3SimpleLineLexer, COMDAT
; _this$ = ecx
  00000	55		 push	 ebp
  00001	8b ec		 mov	 ebp, esp
  00003	8b 55 08	 mov	 edx, DWORD PTR ___that$[ebp]
  00006	c7 01 00 00 00
	00		 mov	 DWORD PTR [ecx], OFFSET ??_7i3ElementBase@@6B@
  0000c	8b 42 04	 mov	 eax, DWORD PTR [edx+4]
  0000f	89 41 04	 mov	 DWORD PTR [ecx+4], eax
  00012	8b 42 08	 mov	 eax, DWORD PTR [edx+8]
  00015	89 41 08	 mov	 DWORD PTR [ecx+8], eax
  00018	8b 42 0c	 mov	 eax, DWORD PTR [edx+12]
  0001b	89 41 0c	 mov	 DWORD PTR [ecx+12], eax
  0001e	c7 01 00 00 00
	00		 mov	 DWORD PTR [ecx], OFFSET ??_7i3SimpleLineLexer@@6B@
  00024	8b 42 10	 mov	 eax, DWORD PTR [edx+16]
  00027	89 41 10	 mov	 DWORD PTR [ecx+16], eax
  0002a	8b 42 14	 mov	 eax, DWORD PTR [edx+20]
  0002d	89 41 14	 mov	 DWORD PTR [ecx+20], eax
  00030	8b c1		 mov	 eax, ecx
  00032	5d		 pop	 ebp
  00033	c2 04 00	 ret	 4
??0i3SimpleLineLexer@@QAE@ABV0@@Z ENDP			; i3SimpleLineLexer::i3SimpleLineLexer
_TEXT	ENDS
; Function compile flags: /Ogtp
; File E:\Proyectos\JuegosOnlineproyectos\PB\pbblow\Piercing Blow Remake\i3Server\include\i3Base\i3Lexer.h
;	COMDAT ?GetClassMeta@i3SimpleLineLexer@@SAPAVi3ClassMeta@@XZ
_TEXT	SEGMENT
?GetClassMeta@i3SimpleLineLexer@@SAPAVi3ClassMeta@@XZ PROC ; i3SimpleLineLexer::GetClassMeta, COMDAT

; 34   : 	I3_CLASS_DEFINE( i3SimpleLineLexer);

  00000	a1 00 00 00 00	 mov	 eax, DWORD PTR ?s_pClassMetai3SimpleLineLexer@i3SimpleLineLexer@@2PAVi3ClassMeta@@A ; i3SimpleLineLexer::s_pClassMetai3SimpleLineLexer
  00005	c3		 ret	 0
?GetClassMeta@i3SimpleLineLexer@@SAPAVi3ClassMeta@@XZ ENDP ; i3SimpleLineLexer::GetClassMeta
_TEXT	ENDS
; Function compile flags: /Ogtp
; File E:\Proyectos\JuegosOnlineproyectos\PB\pbblow\Piercing Blow Remake\i3Server\src\i3Base\i3IniParser.cpp
;	COMDAT ??_Ei3LineLexer@@UAEPAXI@Z
_TEXT	SEGMENT
__$EHRec$ = -12						; size = 12
___flags$ = 8						; size = 4
??_Ei3LineLexer@@UAEPAXI@Z PROC				; i3LineLexer::`vector deleting destructor', COMDAT
; _this$ = ecx
  00000	55		 push	 ebp
  00001	8b ec		 mov	 ebp, esp
  00003	6a ff		 push	 -1
  00005	68 00 00 00 00	 push	 __ehhandler$??_Ei3LineLexer@@UAEPAXI@Z
  0000a	64 a1 00 00 00
	00		 mov	 eax, DWORD PTR fs:0
  00010	50		 push	 eax
  00011	53		 push	 ebx
  00012	56		 push	 esi
  00013	57		 push	 edi
  00014	a1 00 00 00 00	 mov	 eax, DWORD PTR ___security_cookie
  00019	33 c5		 xor	 eax, ebp
  0001b	50		 push	 eax
  0001c	8d 45 f4	 lea	 eax, DWORD PTR __$EHRec$[ebp]
  0001f	64 a3 00 00 00
	00		 mov	 DWORD PTR fs:0, eax
  00025	8b f1		 mov	 esi, ecx
  00027	8b 5d 08	 mov	 ebx, DWORD PTR ___flags$[ebp]
  0002a	8b fb		 mov	 edi, ebx
  0002c	83 e7 01	 and	 edi, 1
  0002f	f6 c3 02	 test	 bl, 2
  00032	74 43		 je	 SHORT $LN2@vector
  00034	68 00 00 00 00	 push	 OFFSET ??1i3LineLexer@@UAE@XZ ; i3LineLexer::~i3LineLexer
  00039	ff 76 fc	 push	 DWORD PTR [esi-4]
  0003c	8d 5e fc	 lea	 ebx, DWORD PTR [esi-4]
  0003f	68 18 01 00 00	 push	 280			; 00000118H
  00044	56		 push	 esi
  00045	e8 00 00 00 00	 call	 ??_M@YGXPAXIIP6EX0@Z@Z
  0004a	85 ff		 test	 edi, edi
  0004c	74 13		 je	 SHORT $LN3@vector
  0004e	69 0b 18 01 00
	00		 imul	 ecx, DWORD PTR [ebx], 280
  00054	83 c1 04	 add	 ecx, 4
  00057	51		 push	 ecx
  00058	53		 push	 ebx
  00059	e8 00 00 00 00	 call	 ??_V@YAXPAXI@Z		; operator delete[]
  0005e	83 c4 08	 add	 esp, 8
$LN3@vector:
  00061	8b c3		 mov	 eax, ebx
  00063	8b 4d f4	 mov	 ecx, DWORD PTR __$EHRec$[ebp]
  00066	64 89 0d 00 00
	00 00		 mov	 DWORD PTR fs:0, ecx
  0006d	59		 pop	 ecx
  0006e	5f		 pop	 edi
  0006f	5e		 pop	 esi
  00070	5b		 pop	 ebx
  00071	8b e5		 mov	 esp, ebp
  00073	5d		 pop	 ebp
  00074	c2 04 00	 ret	 4
$LN2@vector:
  00077	e8 00 00 00 00	 call	 ??1i3LineLexer@@UAE@XZ	; i3LineLexer::~i3LineLexer
  0007c	85 ff		 test	 edi, edi
  0007e	74 1e		 je	 SHORT $LN6@vector
  00080	f6 c3 04	 test	 bl, 4
  00083	75 0b		 jne	 SHORT $LN5@vector
  00085	56		 push	 esi
  00086	e8 00 00 00 00	 call	 ??3i3ElementBase@@SAXPAX@Z ; i3ElementBase::operator delete
  0008b	83 c4 04	 add	 esp, 4
  0008e	eb 0e		 jmp	 SHORT $LN6@vector
$LN5@vector:

  00090	68 18 01 00 00	 push	 280			; 00000118H
  00095	56		 push	 esi
  00096	e8 00 00 00 00	 call	 ??3@YAXPAXI@Z		; operator delete
  0009b	83 c4 08	 add	 esp, 8
$LN6@vector:
  0009e	8b c6		 mov	 eax, esi
  000a0	8b 4d f4	 mov	 ecx, DWORD PTR __$EHRec$[ebp]
  000a3	64 89 0d 00 00
	00 00		 mov	 DWORD PTR fs:0, ecx
  000aa	59		 pop	 ecx
  000ab	5f		 pop	 edi
  000ac	5e		 pop	 esi
  000ad	5b		 pop	 ebx
  000ae	8b e5		 mov	 esp, ebp
  000b0	5d		 pop	 ebp
  000b1	c2 04 00	 ret	 4
  000b4	cc		 int	 3
  000b5	cc		 int	 3
  000b6	cc		 int	 3
  000b7	cc		 int	 3
  000b8	cc		 int	 3
_TEXT	ENDS
;	COMDAT text$x
text$x	SEGMENT
__ehhandler$??_Ei3LineLexer@@UAEPAXI@Z:
  00000	90		 npad	 1
  00001	90		 npad	 1
  00002	8b 54 24 08	 mov	 edx, DWORD PTR [esp+8]
  00006	8d 42 0c	 lea	 eax, DWORD PTR [edx+12]
  00009	8b 4a f0	 mov	 ecx, DWORD PTR [edx-16]
  0000c	33 c8		 xor	 ecx, eax
  0000e	e8 00 00 00 00	 call	 @__security_check_cookie@4
  00013	b8 00 00 00 00	 mov	 eax, OFFSET __ehfuncinfo$??_Ei3LineLexer@@UAEPAXI@Z
  00018	e9 00 00 00 00	 jmp	 ___CxxFrameHandler3
text$x	ENDS
??_Ei3LineLexer@@UAEPAXI@Z ENDP				; i3LineLexer::`vector deleting destructor'
; Function compile flags: /Ogtp
; File E:\Proyectos\JuegosOnlineproyectos\PB\pbblow\Piercing Blow Remake\i3Server\src\i3Base\i3IniParser.cpp
;	COMDAT ??_Gi3LineLexer@@UAEPAXI@Z
_TEXT	SEGMENT
___flags$ = 8						; size = 4
??_Gi3LineLexer@@UAEPAXI@Z PROC				; i3LineLexer::`scalar deleting destructor', COMDAT
; _this$ = ecx
  00000	55		 push	 ebp
  00001	8b ec		 mov	 ebp, esp
  00003	56		 push	 esi
  00004	8b f1		 mov	 esi, ecx
  00006	e8 00 00 00 00	 call	 ??1i3LineLexer@@UAE@XZ	; i3LineLexer::~i3LineLexer
  0000b	8b 45 08	 mov	 eax, DWORD PTR ___flags$[ebp]
  0000e	a8 01		 test	 al, 1
  00010	74 22		 je	 SHORT $LN10@scalar
  00012	a8 04		 test	 al, 4
  00014	75 10		 jne	 SHORT $LN3@scalar
  00016	56		 push	 esi
  00017	e8 00 00 00 00	 call	 ??3i3ElementBase@@SAXPAX@Z ; i3ElementBase::operator delete
  0001c	83 c4 04	 add	 esp, 4
  0001f	8b c6		 mov	 eax, esi
  00021	5e		 pop	 esi
  00022	5d		 pop	 ebp
  00023	c2 04 00	 ret	 4
$LN3@scalar:

  00026	68 18 01 00 00	 push	 280			; 00000118H
  0002b	56		 push	 esi
  0002c	e8 00 00 00 00	 call	 ??3@YAXPAXI@Z		; operator delete
  00031	83 c4 08	 add	 esp, 8
$LN10@scalar:
  00034	8b c6		 mov	 eax, esi
  00036	5e		 pop	 esi
  00037	5d		 pop	 ebp
  00038	c2 04 00	 ret	 4
??_Gi3LineLexer@@UAEPAXI@Z ENDP				; i3LineLexer::`scalar deleting destructor'
_TEXT	ENDS
; Function compile flags: /Ogtp
;	COMDAT ??4i3LineLexer@@QAEAAV0@ABV0@@Z
_TEXT	SEGMENT
___that$ = 8						; size = 4
??4i3LineLexer@@QAEAAV0@ABV0@@Z PROC			; i3LineLexer::operator=, COMDAT
; _this$ = ecx
  00000	55		 push	 ebp
  00001	8b ec		 mov	 ebp, esp
  00003	8b d1		 mov	 edx, ecx
  00005	56		 push	 esi
  00006	8b 75 08	 mov	 esi, DWORD PTR ___that$[ebp]
  00009	8b 46 04	 mov	 eax, DWORD PTR [esi+4]
  0000c	89 42 04	 mov	 DWORD PTR [edx+4], eax
  0000f	8b 46 08	 mov	 eax, DWORD PTR [esi+8]
  00012	89 42 08	 mov	 DWORD PTR [edx+8], eax
  00015	8b 46 0c	 mov	 eax, DWORD PTR [esi+12]
  00018	89 42 0c	 mov	 DWORD PTR [edx+12], eax
  0001b	8b 46 10	 mov	 eax, DWORD PTR [esi+16]
  0001e	89 42 10	 mov	 DWORD PTR [edx+16], eax
  00021	8b 46 14	 mov	 eax, DWORD PTR [esi+20]
  00024	89 42 14	 mov	 DWORD PTR [edx+20], eax
  00027	33 c0		 xor	 eax, eax
  00029	8d a4 24 00 00
	00 00		 npad	 7
$LL4@operator:
  00030	8a 4c 06 18	 mov	 cl, BYTE PTR [esi+eax+24]
  00034	88 4c 02 18	 mov	 BYTE PTR [edx+eax+24], cl
  00038	40		 inc	 eax
  00039	3d 00 01 00 00	 cmp	 eax, 256		; 00000100H
  0003e	72 f0		 jb	 SHORT $LL4@operator
  00040	5e		 pop	 esi
  00041	8b c2		 mov	 eax, edx
  00043	5d		 pop	 ebp
  00044	c2 04 00	 ret	 4
??4i3LineLexer@@QAEAAV0@ABV0@@Z ENDP			; i3LineLexer::operator=
_TEXT	ENDS
; Function compile flags: /Ogtp
;	COMDAT ??0i3LineLexer@@QAE@ABV0@@Z
_TEXT	SEGMENT
___that$ = 8						; size = 4
??0i3LineLexer@@QAE@ABV0@@Z PROC			; i3LineLexer::i3LineLexer, COMDAT
; _this$ = ecx
  00000	55		 push	 ebp
  00001	8b ec		 mov	 ebp, esp
  00003	8b d1		 mov	 edx, ecx
  00005	b9 40 00 00 00	 mov	 ecx, 64			; 00000040H
  0000a	56		 push	 esi
  0000b	8b 75 08	 mov	 esi, DWORD PTR ___that$[ebp]
  0000e	57		 push	 edi
  0000f	c7 02 00 00 00
	00		 mov	 DWORD PTR [edx], OFFSET ??_7i3ElementBase@@6B@
  00015	8d 7a 18	 lea	 edi, DWORD PTR [edx+24]
  00018	8b 46 04	 mov	 eax, DWORD PTR [esi+4]
  0001b	89 42 04	 mov	 DWORD PTR [edx+4], eax
  0001e	8b 46 08	 mov	 eax, DWORD PTR [esi+8]
  00021	89 42 08	 mov	 DWORD PTR [edx+8], eax
  00024	8b 46 0c	 mov	 eax, DWORD PTR [esi+12]
  00027	89 42 0c	 mov	 DWORD PTR [edx+12], eax
  0002a	c7 02 00 00 00
	00		 mov	 DWORD PTR [edx], OFFSET ??_7i3LineLexer@@6B@
  00030	8b 46 10	 mov	 eax, DWORD PTR [esi+16]
  00033	89 42 10	 mov	 DWORD PTR [edx+16], eax
  00036	8b 46 14	 mov	 eax, DWORD PTR [esi+20]
  00039	83 c6 18	 add	 esi, 24			; 00000018H
  0003c	89 42 14	 mov	 DWORD PTR [edx+20], eax
  0003f	8b c2		 mov	 eax, edx
  00041	f3 a5		 rep movsd
  00043	5f		 pop	 edi
  00044	5e		 pop	 esi
  00045	5d		 pop	 ebp
  00046	c2 04 00	 ret	 4
??0i3LineLexer@@QAE@ABV0@@Z ENDP			; i3LineLexer::i3LineLexer
_TEXT	ENDS
; Function compile flags: /Ogtp
; File E:\Proyectos\JuegosOnlineproyectos\PB\pbblow\Piercing Blow Remake\i3Server\include\i3Base\i3Lexer.h
;	COMDAT ?getCurrentPosition@i3LineLexer@@QAEPADXZ
_TEXT	SEGMENT
?getCurrentPosition@i3LineLexer@@QAEPADXZ PROC		; i3LineLexer::getCurrentPosition, COMDAT
; _this$ = ecx

; 25   : 	char *	getCurrentPosition(void)			{ return m_pszCur; }

  00000	8b 41 14	 mov	 eax, DWORD PTR [ecx+20]
  00003	c3		 ret	 0
?getCurrentPosition@i3LineLexer@@QAEPADXZ ENDP		; i3LineLexer::getCurrentPosition
_TEXT	ENDS
; Function compile flags: /Ogtp
; File E:\Proyectos\JuegosOnlineproyectos\PB\pbblow\Piercing Blow Remake\i3Server\include\i3Base\i3Lexer.h
;	COMDAT ?GetMasterString@i3LineLexer@@QAEPADXZ
_TEXT	SEGMENT
?GetMasterString@i3LineLexer@@QAEPADXZ PROC		; i3LineLexer::GetMasterString, COMDAT
; _this$ = ecx

; 23   : 	char *	GetMasterString(void)				{ return m_pszMaster; }

  00000	8b 41 10	 mov	 eax, DWORD PTR [ecx+16]
  00003	c3		 ret	 0
?GetMasterString@i3LineLexer@@QAEPADXZ ENDP		; i3LineLexer::GetMasterString
_TEXT	ENDS
; Function compile flags: /Ogtp
; File E:\Proyectos\JuegosOnlineproyectos\PB\pbblow\Piercing Blow Remake\i3Server\include\i3Base\i3Lexer.h
;	COMDAT ?GetClassMeta@i3LineLexer@@SAPAVi3ClassMeta@@XZ
_TEXT	SEGMENT
?GetClassMeta@i3LineLexer@@SAPAVi3ClassMeta@@XZ PROC	; i3LineLexer::GetClassMeta, COMDAT

; 10   : 	I3_CLASS_DEFINE( i3LineLexer);

  00000	a1 00 00 00 00	 mov	 eax, DWORD PTR ?s_pClassMetai3LineLexer@i3LineLexer@@2PAVi3ClassMeta@@A ; i3LineLexer::s_pClassMetai3LineLexer
  00005	c3		 ret	 0
?GetClassMeta@i3LineLexer@@SAPAVi3ClassMeta@@XZ ENDP	; i3LineLexer::GetClassMeta
_TEXT	ENDS
; Function compile flags: /Ogtp
; File E:\Proyectos\JuegosOnlineproyectos\PB\pbblow\Piercing Blow Remake\i3Server\src\i3Base\i3IniParser.cpp
;	COMDAT ??_Ei3IniParser@@UAEPAXI@Z
_TEXT	SEGMENT
__$EHRec$ = -12						; size = 12
___flags$ = 8						; size = 4
??_Ei3IniParser@@UAEPAXI@Z PROC				; i3IniParser::`vector deleting destructor', COMDAT
; _this$ = ecx
  00000	55		 push	 ebp
  00001	8b ec		 mov	 ebp, esp
  00003	6a ff		 push	 -1
  00005	68 00 00 00 00	 push	 __ehhandler$??_Ei3IniParser@@UAEPAXI@Z
  0000a	64 a1 00 00 00
	00		 mov	 eax, DWORD PTR fs:0
  00010	50		 push	 eax
  00011	53		 push	 ebx
  00012	56		 push	 esi
  00013	57		 push	 edi
  00014	a1 00 00 00 00	 mov	 eax, DWORD PTR ___security_cookie
  00019	33 c5		 xor	 eax, ebp
  0001b	50		 push	 eax
  0001c	8d 45 f4	 lea	 eax, DWORD PTR __$EHRec$[ebp]
  0001f	64 a3 00 00 00
	00		 mov	 DWORD PTR fs:0, eax
  00025	8b f1		 mov	 esi, ecx
  00027	8b 5d 08	 mov	 ebx, DWORD PTR ___flags$[ebp]
  0002a	f6 c3 02	 test	 bl, 2
  0002d	74 44		 je	 SHORT $LN2@vector
  0002f	68 00 00 00 00	 push	 OFFSET ??1i3IniParser@@UAE@XZ ; i3IniParser::~i3IniParser
  00034	ff 76 fc	 push	 DWORD PTR [esi-4]
  00037	8d 7e fc	 lea	 edi, DWORD PTR [esi-4]
  0003a	68 b4 04 00 00	 push	 1204			; 000004b4H
  0003f	56		 push	 esi
  00040	e8 00 00 00 00	 call	 ??_M@YGXPAXIIP6EX0@Z@Z
  00045	f6 c3 01	 test	 bl, 1
  00048	74 13		 je	 SHORT $LN3@vector
  0004a	69 0f b4 04 00
	00		 imul	 ecx, DWORD PTR [edi], 1204
  00050	83 c1 04	 add	 ecx, 4
  00053	51		 push	 ecx
  00054	57		 push	 edi
  00055	e8 00 00 00 00	 call	 ??_V@YAXPAXI@Z		; operator delete[]
  0005a	83 c4 08	 add	 esp, 8
$LN3@vector:
  0005d	8b c7		 mov	 eax, edi
  0005f	8b 4d f4	 mov	 ecx, DWORD PTR __$EHRec$[ebp]
  00062	64 89 0d 00 00
	00 00		 mov	 DWORD PTR fs:0, ecx
  00069	59		 pop	 ecx
  0006a	5f		 pop	 edi
  0006b	5e		 pop	 esi
  0006c	5b		 pop	 ebx
  0006d	8b e5		 mov	 esp, ebp
  0006f	5d		 pop	 ebp
  00070	c2 04 00	 ret	 4
$LN2@vector:

; 29   : 	Close();

  00073	8b ce		 mov	 ecx, esi
  00075	c7 45 fc 00 00
	00 00		 mov	 DWORD PTR __$EHRec$[ebp+8], 0
  0007c	c7 06 00 00 00
	00		 mov	 DWORD PTR [esi], OFFSET ??_7i3IniParser@@6B@
  00082	e8 00 00 00 00	 call	 ?Close@i3IniParser@@QAEXXZ ; i3IniParser::Close

; 30   : 	I3_SAFE_RELEASE(m_pSectionList);

  00087	8b 8e 1c 02 00
	00		 mov	 ecx, DWORD PTR [esi+540]
  0008d	85 c9		 test	 ecx, ecx
  0008f	74 0f		 je	 SHORT $LN11@vector
  00091	e8 00 00 00 00	 call	 ?Release@i3ElementBase@@QAEXXZ ; i3ElementBase::Release
  00096	c7 86 1c 02 00
	00 00 00 00 00	 mov	 DWORD PTR [esi+540], 0
$LN11@vector:

; 31   : }

  000a0	8b ce		 mov	 ecx, esi
  000a2	e8 00 00 00 00	 call	 ??1i3ElementBase@@UAE@XZ ; i3ElementBase::~i3ElementBase
  000a7	f6 c3 01	 test	 bl, 1
  000aa	74 1e		 je	 SHORT $LN6@vector
  000ac	f6 c3 04	 test	 bl, 4
  000af	75 0b		 jne	 SHORT $LN5@vector
  000b1	56		 push	 esi
  000b2	e8 00 00 00 00	 call	 ??3i3ElementBase@@SAXPAX@Z ; i3ElementBase::operator delete
  000b7	83 c4 04	 add	 esp, 4
  000ba	eb 0e		 jmp	 SHORT $LN6@vector
$LN5@vector:

  000bc	68 b4 04 00 00	 push	 1204			; 000004b4H
  000c1	56		 push	 esi
  000c2	e8 00 00 00 00	 call	 ??3@YAXPAXI@Z		; operator delete
  000c7	83 c4 08	 add	 esp, 8
$LN6@vector:
  000ca	8b c6		 mov	 eax, esi
  000cc	8b 4d f4	 mov	 ecx, DWORD PTR __$EHRec$[ebp]
  000cf	64 89 0d 00 00
	00 00		 mov	 DWORD PTR fs:0, ecx
  000d6	59		 pop	 ecx
  000d7	5f		 pop	 edi
  000d8	5e		 pop	 esi
  000d9	5b		 pop	 ebx
  000da	8b e5		 mov	 esp, ebp
  000dc	5d		 pop	 ebp
  000dd	c2 04 00	 ret	 4
  000e0	cc		 int	 3
  000e1	cc		 int	 3
  000e2	cc		 int	 3
  000e3	cc		 int	 3
  000e4	cc		 int	 3
_TEXT	ENDS
;	COMDAT text$x
text$x	SEGMENT
__ehhandler$??_Ei3IniParser@@UAEPAXI@Z:
  00000	90		 npad	 1
  00001	90		 npad	 1
  00002	8b 54 24 08	 mov	 edx, DWORD PTR [esp+8]
  00006	8d 42 0c	 lea	 eax, DWORD PTR [edx+12]
  00009	8b 4a f0	 mov	 ecx, DWORD PTR [edx-16]
  0000c	33 c8		 xor	 ecx, eax
  0000e	e8 00 00 00 00	 call	 @__security_check_cookie@4
  00013	b8 00 00 00 00	 mov	 eax, OFFSET __ehfuncinfo$??_Ei3IniParser@@UAEPAXI@Z
  00018	e9 00 00 00 00	 jmp	 ___CxxFrameHandler3
text$x	ENDS
??_Ei3IniParser@@UAEPAXI@Z ENDP				; i3IniParser::`vector deleting destructor'
; Function compile flags: /Ogtp
; File E:\Proyectos\JuegosOnlineproyectos\PB\pbblow\Piercing Blow Remake\i3Server\src\i3Base\i3IniParser.cpp
;	COMDAT ??_Gi3IniParser@@UAEPAXI@Z
_TEXT	SEGMENT
__$EHRec$ = -12						; size = 12
___flags$ = 8						; size = 4
??_Gi3IniParser@@UAEPAXI@Z PROC				; i3IniParser::`scalar deleting destructor', COMDAT
; _this$ = ecx
  00000	55		 push	 ebp
  00001	8b ec		 mov	 ebp, esp
  00003	6a ff		 push	 -1
  00005	68 00 00 00 00	 push	 __ehhandler$??_Gi3IniParser@@UAEPAXI@Z
  0000a	64 a1 00 00 00
	00		 mov	 eax, DWORD PTR fs:0
  00010	50		 push	 eax
  00011	56		 push	 esi
  00012	a1 00 00 00 00	 mov	 eax, DWORD PTR ___security_cookie
  00017	33 c5		 xor	 eax, ebp
  00019	50		 push	 eax
  0001a	8d 45 f4	 lea	 eax, DWORD PTR __$EHRec$[ebp]
  0001d	64 a3 00 00 00
	00		 mov	 DWORD PTR fs:0, eax
  00023	8b f1		 mov	 esi, ecx

; 28   : {

  00025	c7 45 fc 00 00
	00 00		 mov	 DWORD PTR __$EHRec$[ebp+8], 0
  0002c	c7 06 00 00 00
	00		 mov	 DWORD PTR [esi], OFFSET ??_7i3IniParser@@6B@

; 29   : 	Close();

  00032	e8 00 00 00 00	 call	 ?Close@i3IniParser@@QAEXXZ ; i3IniParser::Close

; 30   : 	I3_SAFE_RELEASE(m_pSectionList);

  00037	8b 8e 1c 02 00
	00		 mov	 ecx, DWORD PTR [esi+540]
  0003d	85 c9		 test	 ecx, ecx
  0003f	74 0f		 je	 SHORT $LN9@scalar
  00041	e8 00 00 00 00	 call	 ?Release@i3ElementBase@@QAEXXZ ; i3ElementBase::Release
  00046	c7 86 1c 02 00
	00 00 00 00 00	 mov	 DWORD PTR [esi+540], 0
$LN9@scalar:

; 31   : }

  00050	8b ce		 mov	 ecx, esi
  00052	e8 00 00 00 00	 call	 ??1i3ElementBase@@UAE@XZ ; i3ElementBase::~i3ElementBase
  00057	8b 45 08	 mov	 eax, DWORD PTR ___flags$[ebp]
  0005a	a8 01		 test	 al, 1
  0005c	74 2f		 je	 SHORT $LN16@scalar
  0005e	a8 04		 test	 al, 4
  00060	75 1d		 jne	 SHORT $LN3@scalar
  00062	56		 push	 esi
  00063	e8 00 00 00 00	 call	 ??3i3ElementBase@@SAXPAX@Z ; i3ElementBase::operator delete
  00068	83 c4 04	 add	 esp, 4
  0006b	8b c6		 mov	 eax, esi
  0006d	8b 4d f4	 mov	 ecx, DWORD PTR __$EHRec$[ebp]
  00070	64 89 0d 00 00
	00 00		 mov	 DWORD PTR fs:0, ecx
  00077	59		 pop	 ecx
  00078	5e		 pop	 esi
  00079	8b e5		 mov	 esp, ebp
  0007b	5d		 pop	 ebp
  0007c	c2 04 00	 ret	 4
$LN3@scalar:

  0007f	68 b4 04 00 00	 push	 1204			; 000004b4H
  00084	56		 push	 esi
  00085	e8 00 00 00 00	 call	 ??3@YAXPAXI@Z		; operator delete
  0008a	83 c4 08	 add	 esp, 8
$LN16@scalar:
  0008d	8b c6		 mov	 eax, esi
  0008f	8b 4d f4	 mov	 ecx, DWORD PTR __$EHRec$[ebp]
  00092	64 89 0d 00 00
	00 00		 mov	 DWORD PTR fs:0, ecx
  00099	59		 pop	 ecx
  0009a	5e		 pop	 esi
  0009b	8b e5		 mov	 esp, ebp
  0009d	5d		 pop	 ebp
  0009e	c2 04 00	 ret	 4
  000a1	cc		 int	 3
  000a2	cc		 int	 3
  000a3	cc		 int	 3
  000a4	cc		 int	 3
  000a5	cc		 int	 3
_TEXT	ENDS
;	COMDAT text$x
text$x	SEGMENT
__ehhandler$??_Gi3IniParser@@UAEPAXI@Z:
  00000	90		 npad	 1
  00001	90		 npad	 1
  00002	8b 54 24 08	 mov	 edx, DWORD PTR [esp+8]
  00006	8d 42 0c	 lea	 eax, DWORD PTR [edx+12]
  00009	8b 4a f8	 mov	 ecx, DWORD PTR [edx-8]
  0000c	33 c8		 xor	 ecx, eax
  0000e	e8 00 00 00 00	 call	 @__security_check_cookie@4
  00013	b8 00 00 00 00	 mov	 eax, OFFSET __ehfuncinfo$??_Gi3IniParser@@UAEPAXI@Z
  00018	e9 00 00 00 00	 jmp	 ___CxxFrameHandler3
text$x	ENDS
??_Gi3IniParser@@UAEPAXI@Z ENDP				; i3IniParser::`scalar deleting destructor'
; Function compile flags: /Ogtp
;	COMDAT ??4i3IniParser@@QAEAAV0@ABV0@@Z
_TEXT	SEGMENT
___that$ = 8						; size = 4
??4i3IniParser@@QAEAAV0@ABV0@@Z PROC			; i3IniParser::operator=, COMDAT
; _this$ = ecx
  00000	55		 push	 ebp
  00001	8b ec		 mov	 ebp, esp
  00003	56		 push	 esi
  00004	8b 75 08	 mov	 esi, DWORD PTR ___that$[ebp]
  00007	33 d2		 xor	 edx, edx
  00009	8b 46 04	 mov	 eax, DWORD PTR [esi+4]
  0000c	89 41 04	 mov	 DWORD PTR [ecx+4], eax
  0000f	8b 46 08	 mov	 eax, DWORD PTR [esi+8]
  00012	89 41 08	 mov	 DWORD PTR [ecx+8], eax
  00015	8b 46 0c	 mov	 eax, DWORD PTR [esi+12]
  00018	89 41 0c	 mov	 DWORD PTR [ecx+12], eax
  0001b	eb 03 8d 49 00	 npad	 5
$LL4@operator:
  00020	8a 44 16 10	 mov	 al, BYTE PTR [esi+edx+16]
  00024	88 44 11 10	 mov	 BYTE PTR [ecx+edx+16], al
  00028	42		 inc	 edx
  00029	81 fa 00 02 00
	00		 cmp	 edx, 512		; 00000200H
  0002f	72 ef		 jb	 SHORT $LL4@operator
  00031	8b 86 10 02 00
	00		 mov	 eax, DWORD PTR [esi+528]
  00037	33 d2		 xor	 edx, edx
  00039	89 81 10 02 00
	00		 mov	 DWORD PTR [ecx+528], eax
  0003f	8b 86 14 02 00
	00		 mov	 eax, DWORD PTR [esi+532]
  00045	89 81 14 02 00
	00		 mov	 DWORD PTR [ecx+532], eax
  0004b	8b 86 18 02 00
	00		 mov	 eax, DWORD PTR [esi+536]
  00051	89 81 18 02 00
	00		 mov	 DWORD PTR [ecx+536], eax
  00057	8b 86 1c 02 00
	00		 mov	 eax, DWORD PTR [esi+540]
  0005d	89 81 1c 02 00
	00		 mov	 DWORD PTR [ecx+540], eax
  00063	eb 0b 8d a4 24
	00 00 00 00 8d
	64 24 00	 npad	 13
$LL7@operator:
  00070	8a 84 16 20 02
	00 00		 mov	 al, BYTE PTR [esi+edx+544]
  00077	88 84 11 20 02
	00 00		 mov	 BYTE PTR [ecx+edx+544], al
  0007e	42		 inc	 edx
  0007f	81 fa 80 00 00
	00		 cmp	 edx, 128		; 00000080H
  00085	72 e9		 jb	 SHORT $LL7@operator
  00087	8b 86 a0 02 00
	00		 mov	 eax, DWORD PTR [esi+672]
  0008d	33 d2		 xor	 edx, edx
  0008f	89 81 a0 02 00
	00		 mov	 DWORD PTR [ecx+672], eax
  00095	8b 86 a4 02 00
	00		 mov	 eax, DWORD PTR [esi+676]
  0009b	89 81 a4 02 00
	00		 mov	 DWORD PTR [ecx+676], eax
  000a1	8a 86 a8 02 00
	00		 mov	 al, BYTE PTR [esi+680]
  000a7	88 81 a8 02 00
	00		 mov	 BYTE PTR [ecx+680], al
  000ad	8d 49 00	 npad	 3
$LL10@operator:
  000b0	8a 84 16 a9 02
	00 00		 mov	 al, BYTE PTR [esi+edx+681]
  000b7	88 84 11 a9 02
	00 00		 mov	 BYTE PTR [ecx+edx+681], al
  000be	42		 inc	 edx
  000bf	81 fa 04 01 00
	00		 cmp	 edx, 260		; 00000104H
  000c5	72 e9		 jb	 SHORT $LL10@operator
  000c7	33 d2		 xor	 edx, edx
  000c9	8d a4 24 00 00
	00 00		 npad	 7
$LL13@operator:
  000d0	8a 84 16 ad 03
	00 00		 mov	 al, BYTE PTR [esi+edx+941]
  000d7	88 84 11 ad 03
	00 00		 mov	 BYTE PTR [ecx+edx+941], al
  000de	42		 inc	 edx
  000df	81 fa 04 01 00
	00		 cmp	 edx, 260		; 00000104H
  000e5	72 e9		 jb	 SHORT $LL13@operator
  000e7	5e		 pop	 esi
  000e8	8b c1		 mov	 eax, ecx
  000ea	5d		 pop	 ebp
  000eb	c2 04 00	 ret	 4
??4i3IniParser@@QAEAAV0@ABV0@@Z ENDP			; i3IniParser::operator=
_TEXT	ENDS
; Function compile flags: /Ogtp
;	COMDAT ??0i3IniParser@@QAE@ABV0@@Z
_TEXT	SEGMENT
___that$ = 8						; size = 4
??0i3IniParser@@QAE@ABV0@@Z PROC			; i3IniParser::i3IniParser, COMDAT
; _this$ = ecx
  00000	55		 push	 ebp
  00001	8b ec		 mov	 ebp, esp
  00003	8b 55 08	 mov	 edx, DWORD PTR ___that$[ebp]
  00006	53		 push	 ebx
  00007	8b d9		 mov	 ebx, ecx
  00009	b9 80 00 00 00	 mov	 ecx, 128		; 00000080H
  0000e	56		 push	 esi
  0000f	57		 push	 edi
  00010	8d 72 10	 lea	 esi, DWORD PTR [edx+16]
  00013	c7 03 00 00 00
	00		 mov	 DWORD PTR [ebx], OFFSET ??_7i3ElementBase@@6B@
  00019	8d 7b 10	 lea	 edi, DWORD PTR [ebx+16]
  0001c	8b 42 04	 mov	 eax, DWORD PTR [edx+4]
  0001f	89 43 04	 mov	 DWORD PTR [ebx+4], eax
  00022	8b 42 08	 mov	 eax, DWORD PTR [edx+8]
  00025	89 43 08	 mov	 DWORD PTR [ebx+8], eax
  00028	8b 42 0c	 mov	 eax, DWORD PTR [edx+12]
  0002b	89 43 0c	 mov	 DWORD PTR [ebx+12], eax
  0002e	c7 03 00 00 00
	00		 mov	 DWORD PTR [ebx], OFFSET ??_7i3IniParser@@6B@
  00034	f3 a5		 rep movsd
  00036	8b 82 10 02 00
	00		 mov	 eax, DWORD PTR [edx+528]
  0003c	8d bb 20 02 00
	00		 lea	 edi, DWORD PTR [ebx+544]
  00042	89 83 10 02 00
	00		 mov	 DWORD PTR [ebx+528], eax
  00048	8d b2 20 02 00
	00		 lea	 esi, DWORD PTR [edx+544]
  0004e	8b 82 14 02 00
	00		 mov	 eax, DWORD PTR [edx+532]
  00054	b9 20 00 00 00	 mov	 ecx, 32			; 00000020H
  00059	89 83 14 02 00
	00		 mov	 DWORD PTR [ebx+532], eax
  0005f	8b 82 18 02 00
	00		 mov	 eax, DWORD PTR [edx+536]
  00065	89 83 18 02 00
	00		 mov	 DWORD PTR [ebx+536], eax
  0006b	8b 82 1c 02 00
	00		 mov	 eax, DWORD PTR [edx+540]
  00071	89 83 1c 02 00
	00		 mov	 DWORD PTR [ebx+540], eax
  00077	f3 a5		 rep movsd
  00079	8b 82 a0 02 00
	00		 mov	 eax, DWORD PTR [edx+672]
  0007f	8d bb a9 02 00
	00		 lea	 edi, DWORD PTR [ebx+681]
  00085	89 83 a0 02 00
	00		 mov	 DWORD PTR [ebx+672], eax
  0008b	8d b2 a9 02 00
	00		 lea	 esi, DWORD PTR [edx+681]
  00091	8b 82 a4 02 00
	00		 mov	 eax, DWORD PTR [edx+676]
  00097	b9 41 00 00 00	 mov	 ecx, 65			; 00000041H
  0009c	89 83 a4 02 00
	00		 mov	 DWORD PTR [ebx+676], eax
  000a2	8a 82 a8 02 00
	00		 mov	 al, BYTE PTR [edx+680]
  000a8	88 83 a8 02 00
	00		 mov	 BYTE PTR [ebx+680], al
  000ae	8b c3		 mov	 eax, ebx
  000b0	f3 a5		 rep movsd
  000b2	8d bb ad 03 00
	00		 lea	 edi, DWORD PTR [ebx+941]
  000b8	b9 41 00 00 00	 mov	 ecx, 65			; 00000041H
  000bd	8d b2 ad 03 00
	00		 lea	 esi, DWORD PTR [edx+941]
  000c3	f3 a5		 rep movsd
  000c5	5f		 pop	 edi
  000c6	5e		 pop	 esi
  000c7	5b		 pop	 ebx
  000c8	5d		 pop	 ebp
  000c9	c2 04 00	 ret	 4
??0i3IniParser@@QAE@ABV0@@Z ENDP			; i3IniParser::i3IniParser
_TEXT	ENDS
; Function compile flags: /Ogtp
; File E:\Proyectos\JuegosOnlineproyectos\PB\pbblow\Piercing Blow Remake\i3Server\src\i3Base\i3IniParser.cpp
;	COMDAT ?WriteValue@i3IniParser@@QAEHPBDN@Z
_TEXT	SEGMENT
_szLabel$ = 8						; size = 4
_rValue$ = 12						; size = 8
?WriteValue@i3IniParser@@QAEHPBDN@Z PROC		; i3IniParser::WriteValue, COMDAT
; _this$ = ecx

; 930  : {

  00000	55		 push	 ebp
  00001	8b ec		 mov	 ebp, esp

; 931  : 	return Write(szLabel, "%lf", rValue);

  00003	dd 45 0c	 fld	 QWORD PTR _rValue$[ebp]
  00006	83 ec 08	 sub	 esp, 8
  00009	dd 1c 24	 fstp	 QWORD PTR [esp]
  0000c	68 00 00 00 00	 push	 OFFSET ??_C@_03DLDNIBIK@?$CFlf@
  00011	ff 75 08	 push	 DWORD PTR _szLabel$[ebp]
  00014	51		 push	 ecx
  00015	e8 00 00 00 00	 call	 ?Write@i3IniParser@@QAAHPBD0ZZ ; i3IniParser::Write
  0001a	83 c4 14	 add	 esp, 20			; 00000014H

; 932  : }

  0001d	5d		 pop	 ebp
  0001e	c2 0c 00	 ret	 12			; 0000000cH
?WriteValue@i3IniParser@@QAEHPBDN@Z ENDP		; i3IniParser::WriteValue
_TEXT	ENDS
; Function compile flags: /Ogtp
; File E:\Proyectos\JuegosOnlineproyectos\PB\pbblow\Piercing Blow Remake\i3Server\src\i3Base\i3IniParser.cpp
;	COMDAT ?WriteValue@i3IniParser@@QAEHPBDM@Z
_TEXT	SEGMENT
_szLabel$ = 8						; size = 4
_rValue$ = 12						; size = 4
?WriteValue@i3IniParser@@QAEHPBDM@Z PROC		; i3IniParser::WriteValue, COMDAT
; _this$ = ecx

; 925  : {

  00000	55		 push	 ebp
  00001	8b ec		 mov	 ebp, esp

; 926  : 	return Write(szLabel, "%f", rValue);

  00003	d9 45 0c	 fld	 DWORD PTR _rValue$[ebp]
  00006	83 ec 08	 sub	 esp, 8
  00009	dd 1c 24	 fstp	 QWORD PTR [esp]
  0000c	68 00 00 00 00	 push	 OFFSET ??_C@_02NJPGOMH@?$CFf@
  00011	ff 75 08	 push	 DWORD PTR _szLabel$[ebp]
  00014	51		 push	 ecx
  00015	e8 00 00 00 00	 call	 ?Write@i3IniParser@@QAAHPBD0ZZ ; i3IniParser::Write
  0001a	83 c4 14	 add	 esp, 20			; 00000014H

; 927  : }

  0001d	5d		 pop	 ebp
  0001e	c2 08 00	 ret	 8
?WriteValue@i3IniParser@@QAEHPBDM@Z ENDP		; i3IniParser::WriteValue
_TEXT	ENDS
; Function compile flags: /Ogtp
; File E:\Proyectos\JuegosOnlineproyectos\PB\pbblow\Piercing Blow Remake\i3Server\src\i3Base\i3IniParser.cpp
;	COMDAT ?WriteValue@i3IniParser@@QAEHPBDI@Z
_TEXT	SEGMENT
_szLabel$ = 8						; size = 4
_nValue$ = 12						; size = 4
?WriteValue@i3IniParser@@QAEHPBDI@Z PROC		; i3IniParser::WriteValue, COMDAT
; _this$ = ecx

; 920  : {

  00000	55		 push	 ebp
  00001	8b ec		 mov	 ebp, esp

; 921  : 	return Write(szLabel, "%d", nValue);

  00003	ff 75 0c	 push	 DWORD PTR _nValue$[ebp]
  00006	68 00 00 00 00	 push	 OFFSET ??_C@_02DPKJAMEF@?$CFd@
  0000b	ff 75 08	 push	 DWORD PTR _szLabel$[ebp]
  0000e	51		 push	 ecx
  0000f	e8 00 00 00 00	 call	 ?Write@i3IniParser@@QAAHPBD0ZZ ; i3IniParser::Write
  00014	83 c4 10	 add	 esp, 16			; 00000010H

; 922  : }

  00017	5d		 pop	 ebp
  00018	c2 08 00	 ret	 8
?WriteValue@i3IniParser@@QAEHPBDI@Z ENDP		; i3IniParser::WriteValue
_TEXT	ENDS
; Function compile flags: /Ogtp
; File E:\Proyectos\JuegosOnlineproyectos\PB\pbblow\Piercing Blow Remake\i3Server\src\i3Base\i3IniParser.cpp
;	COMDAT ?WriteValue@i3IniParser@@QAEHPBDH@Z
_TEXT	SEGMENT
_szLabel$ = 8						; size = 4
_nValue$ = 12						; size = 4
?WriteValue@i3IniParser@@QAEHPBDH@Z PROC		; i3IniParser::WriteValue, COMDAT
; _this$ = ecx

; 915  : {

  00000	55		 push	 ebp
  00001	8b ec		 mov	 ebp, esp

; 916  : 	return Write(szLabel, "%d", nValue);

  00003	ff 75 0c	 push	 DWORD PTR _nValue$[ebp]
  00006	68 00 00 00 00	 push	 OFFSET ??_C@_02DPKJAMEF@?$CFd@
  0000b	ff 75 08	 push	 DWORD PTR _szLabel$[ebp]
  0000e	51		 push	 ecx
  0000f	e8 00 00 00 00	 call	 ?Write@i3IniParser@@QAAHPBD0ZZ ; i3IniParser::Write
  00014	83 c4 10	 add	 esp, 16			; 00000010H

; 917  : }

  00017	5d		 pop	 ebp
  00018	c2 08 00	 ret	 8
?WriteValue@i3IniParser@@QAEHPBDH@Z ENDP		; i3IniParser::WriteValue
_TEXT	ENDS
; Function compile flags: /Ogtp
; File E:\Proyectos\JuegosOnlineproyectos\PB\pbblow\Piercing Blow Remake\i3Server\src\i3Base\i3IniParser.cpp
;	COMDAT ?WriteValue@i3IniParser@@QAEHPBD0@Z
_TEXT	SEGMENT
_szBuf$ = -260						; size = 256
__$ArrayPad$ = -4					; size = 4
_szLabel$ = 8						; size = 4
_szValue$ = 12						; size = 4
?WriteValue@i3IniParser@@QAEHPBD0@Z PROC		; i3IniParser::WriteValue, COMDAT
; _this$ = ecx

; 904  : {

  00000	55		 push	 ebp
  00001	8b ec		 mov	 ebp, esp
  00003	81 ec 04 01 00
	00		 sub	 esp, 260		; 00000104H
  00009	a1 00 00 00 00	 mov	 eax, DWORD PTR ___security_cookie
  0000e	33 c5		 xor	 eax, ebp
  00010	89 45 fc	 mov	 DWORD PTR __$ArrayPad$[ebp], eax
  00013	8b 45 0c	 mov	 eax, DWORD PTR _szValue$[ebp]
  00016	56		 push	 esi
  00017	57		 push	 edi
  00018	8b 7d 08	 mov	 edi, DWORD PTR _szLabel$[ebp]
  0001b	8b f1		 mov	 esi, ecx

; 905  : 	char szBuf[256];
; 906  : 	if (!ProcessString(szBuf, szValue, 256))

  0001d	68 00 01 00 00	 push	 256			; 00000100H
  00022	50		 push	 eax
  00023	8d 85 fc fe ff
	ff		 lea	 eax, DWORD PTR _szBuf$[ebp]
  00029	50		 push	 eax
  0002a	e8 00 00 00 00	 call	 ?ProcessString@i3IniParser@@IAEHPADPBDH@Z ; i3IniParser::ProcessString
  0002f	85 c0		 test	 eax, eax
  00031	75 12		 jne	 SHORT $LN2@WriteValue

; 912  : }

  00033	5f		 pop	 edi
  00034	5e		 pop	 esi
  00035	8b 4d fc	 mov	 ecx, DWORD PTR __$ArrayPad$[ebp]
  00038	33 cd		 xor	 ecx, ebp
  0003a	e8 00 00 00 00	 call	 @__security_check_cookie@4
  0003f	8b e5		 mov	 esp, ebp
  00041	5d		 pop	 ebp
  00042	c2 08 00	 ret	 8
$LN2@WriteValue:

; 907  : 	{
; 908  : 		I3ASSERT_0;
; 909  : 		return FALSE;
; 910  : 	}
; 911  : 	return Write(szLabel, "\"%s\"", szBuf);

  00045	8d 85 fc fe ff
	ff		 lea	 eax, DWORD PTR _szBuf$[ebp]
  0004b	50		 push	 eax
  0004c	68 00 00 00 00	 push	 OFFSET ??_C@_04OEDFLLKD@?$CC?$CFs?$CC@
  00051	57		 push	 edi
  00052	56		 push	 esi
  00053	e8 00 00 00 00	 call	 ?Write@i3IniParser@@QAAHPBD0ZZ ; i3IniParser::Write

; 912  : }

  00058	8b 4d fc	 mov	 ecx, DWORD PTR __$ArrayPad$[ebp]
  0005b	83 c4 10	 add	 esp, 16			; 00000010H
  0005e	33 cd		 xor	 ecx, ebp
  00060	5f		 pop	 edi
  00061	5e		 pop	 esi
  00062	e8 00 00 00 00	 call	 @__security_check_cookie@4
  00067	8b e5		 mov	 esp, ebp
  00069	5d		 pop	 ebp
  0006a	c2 08 00	 ret	 8
?WriteValue@i3IniParser@@QAEHPBD0@Z ENDP		; i3IniParser::WriteValue
_TEXT	ENDS
; Function compile flags: /Ogtp
; File E:\Proyectos\JuegosOnlineproyectos\PB\pbblow\Piercing Blow Remake\i3Server\src\i3Base\i3IniParser.cpp
;	COMDAT ?WriteBool@i3IniParser@@QAEHPBDH@Z
_TEXT	SEGMENT
_szLabel$ = 8						; size = 4
_bTrue$ = 12						; size = 4
?WriteBool@i3IniParser@@QAEHPBDH@Z PROC			; i3IniParser::WriteBool, COMDAT
; _this$ = ecx

; 899  : {

  00000	55		 push	 ebp
  00001	8b ec		 mov	 ebp, esp

; 900  : 	return Write(szLabel, "%s", bTrue ? "True" : "False");

  00003	83 7d 0c 00	 cmp	 DWORD PTR _bTrue$[ebp], 0
  00007	ba 00 00 00 00	 mov	 edx, OFFSET ??_C@_05MKDOIIA@False@
  0000c	b8 00 00 00 00	 mov	 eax, OFFSET ??_C@_04HPMIDMKH@True@
  00011	0f 44 c2	 cmove	 eax, edx
  00014	50		 push	 eax
  00015	68 00 00 00 00	 push	 OFFSET ??_C@_02DKCKIIND@?$CFs@
  0001a	ff 75 08	 push	 DWORD PTR _szLabel$[ebp]
  0001d	51		 push	 ecx
  0001e	e8 00 00 00 00	 call	 ?Write@i3IniParser@@QAAHPBD0ZZ ; i3IniParser::Write
  00023	83 c4 10	 add	 esp, 16			; 00000010H

; 901  : }

  00026	5d		 pop	 ebp
  00027	c2 08 00	 ret	 8
?WriteBool@i3IniParser@@QAEHPBDH@Z ENDP			; i3IniParser::WriteBool
_TEXT	ENDS
; Function compile flags: /Ogtp
; File E:\Proyectos\JuegosOnlineproyectos\PB\pbblow\Piercing Blow Remake\i3Server\src\i3Base\i3IniParser.cpp
;	COMDAT ?WriteSectionName@i3IniParser@@QAEHPBD@Z
_TEXT	SEGMENT
_szName$ = 8						; size = 4
?WriteSectionName@i3IniParser@@QAEHPBD@Z PROC		; i3IniParser::WriteSectionName, COMDAT
; _this$ = ecx

; 894  : {

  00000	55		 push	 ebp
  00001	8b ec		 mov	 ebp, esp

; 895  : 	return Write(NULL, "[%s]", szName);

  00003	ff 75 08	 push	 DWORD PTR _szName$[ebp]
  00006	68 00 00 00 00	 push	 OFFSET ??_C@_04LIFAFMCE@?$FL?$CFs?$FN@
  0000b	6a 00		 push	 0
  0000d	51		 push	 ecx
  0000e	e8 00 00 00 00	 call	 ?Write@i3IniParser@@QAAHPBD0ZZ ; i3IniParser::Write
  00013	83 c4 10	 add	 esp, 16			; 00000010H

; 896  : }

  00016	5d		 pop	 ebp
  00017	c2 04 00	 ret	 4
?WriteSectionName@i3IniParser@@QAEHPBD@Z ENDP		; i3IniParser::WriteSectionName
_TEXT	ENDS
; Function compile flags: /Ogtp
; File E:\Proyectos\JuegosOnlineproyectos\PB\pbblow\Piercing Blow Remake\i3Server\src\i3Base\i3IniParser.cpp
; File C:\Program Files (x86)\Windows Kits\10\Include\10.0.26100.0\ucrt\stdio.h
; File E:\Proyectos\JuegosOnlineproyectos\PB\pbblow\Piercing Blow Remake\i3Server\src\i3Base\i3IniParser.cpp
; File C:\Program Files (x86)\Windows Kits\10\Include\10.0.26100.0\ucrt\stdio.h
; File E:\Proyectos\JuegosOnlineproyectos\PB\pbblow\Piercing Blow Remake\i3Server\src\i3Base\i3IniParser.cpp
; File C:\Program Files (x86)\Windows Kits\10\Include\10.0.26100.0\ucrt\stdio.h
; File E:\Proyectos\JuegosOnlineproyectos\PB\pbblow\Piercing Blow Remake\i3Server\src\i3Base\i3IniParser.cpp
; File C:\Program Files (x86)\Windows Kits\10\Include\10.0.26100.0\ucrt\stdio.h
; File E:\Proyectos\JuegosOnlineproyectos\PB\pbblow\Piercing Blow Remake\i3Server\src\i3Base\i3IniParser.cpp
;	COMDAT ?Write@i3IniParser@@QAAHPBD0ZZ
_TEXT	SEGMENT
_szPrintBuf$ = -516					; size = 512
__$ArrayPad$ = -4					; size = 4
_this$ = 8						; size = 4
_szLabel$ = 12						; size = 4
_szFmt$ = 16						; size = 4
?Write@i3IniParser@@QAAHPBD0ZZ PROC			; i3IniParser::Write, COMDAT

; 873  : {

  00000	55		 push	 ebp
  00001	8b ec		 mov	 ebp, esp
  00003	81 ec 04 02 00
	00		 sub	 esp, 516		; 00000204H
  00009	a1 00 00 00 00	 mov	 eax, DWORD PTR ___security_cookie
  0000e	33 c5		 xor	 eax, ebp
  00010	89 45 fc	 mov	 DWORD PTR __$ArrayPad$[ebp], eax
  00013	53		 push	 ebx
  00014	8b 5d 0c	 mov	 ebx, DWORD PTR _szLabel$[ebp]
; File C:\Program Files (x86)\Windows Kits\10\Include\10.0.26100.0\ucrt\stdio.h

; 1392 :         int const _Result = __stdio_common_vsprintf(

  00017	8d 45 14	 lea	 eax, DWORD PTR _szFmt$[ebp+4]
; File E:\Proyectos\JuegosOnlineproyectos\PB\pbblow\Piercing Blow Remake\i3Server\src\i3Base\i3IniParser.cpp

; 873  : {

  0001a	56		 push	 esi
  0001b	8b 75 08	 mov	 esi, DWORD PTR _this$[ebp]
  0001e	57		 push	 edi
; File C:\Program Files (x86)\Windows Kits\10\Include\10.0.26100.0\ucrt\stdio.h

; 1392 :         int const _Result = __stdio_common_vsprintf(

  0001f	50		 push	 eax
  00020	6a 00		 push	 0
  00022	ff 75 10	 push	 DWORD PTR _szFmt$[ebp]
; File E:\Proyectos\JuegosOnlineproyectos\PB\pbblow\Piercing Blow Remake\i3Server\src\i3Base\i3IniParser.cpp

; 875  : 	char* szBuf = m_szTemp;

  00025	8d 7e 10	 lea	 edi, DWORD PTR [esi+16]
; File C:\Program Files (x86)\Windows Kits\10\Include\10.0.26100.0\ucrt\stdio.h

; 1392 :         int const _Result = __stdio_common_vsprintf(

  00028	6a ff		 push	 -1
  0002a	57		 push	 edi
  0002b	e8 00 00 00 00	 call	 ___local_stdio_printf_options
  00030	8b 08		 mov	 ecx, DWORD PTR [eax]
  00032	ff 70 04	 push	 DWORD PTR [eax+4]
  00035	83 c9 01	 or	 ecx, 1
  00038	51		 push	 ecx
  00039	e8 00 00 00 00	 call	 ___stdio_common_vsprintf
  0003e	8b 8e 18 02 00
	00		 mov	 ecx, DWORD PTR [esi+536]
; File E:\Proyectos\JuegosOnlineproyectos\PB\pbblow\Piercing Blow Remake\i3Server\src\i3Base\i3IniParser.cpp

; 882  : 	if (szLabel == NULL)

  00044	8d 95 fc fd ff
	ff		 lea	 edx, DWORD PTR _szPrintBuf$[ebp]
; File C:\Program Files (x86)\Windows Kits\10\Include\10.0.26100.0\ucrt\stdio.h

; 1392 :         int const _Result = __stdio_common_vsprintf(

  0004a	83 c4 1c	 add	 esp, 28			; 0000001cH
; File E:\Proyectos\JuegosOnlineproyectos\PB\pbblow\Piercing Blow Remake\i3Server\src\i3Base\i3IniParser.cpp

; 882  : 	if (szLabel == NULL)

  0004d	8b 01		 mov	 eax, DWORD PTR [ecx]
  0004f	57		 push	 edi
  00050	85 db		 test	 ebx, ebx
  00052	75 0f		 jne	 SHORT $LN2@Write

; 883  : 	{
; 884  : 		m_pStream->Printf(szPrintBuf, "%s\r\n", szBuf);

  00054	68 00 00 00 00	 push	 OFFSET ??_C@_04LLEBNMDN@?$CFs?$AN?6@
  00059	52		 push	 edx
  0005a	51		 push	 ecx
  0005b	ff 50 44	 call	 DWORD PTR [eax+68]
  0005e	83 c4 10	 add	 esp, 16			; 00000010H

; 885  : 	}

  00061	eb 0e		 jmp	 SHORT $LN10@Write
$LN2@Write:

; 886  : 	else
; 887  : 	{
; 888  : 		m_pStream->Printf(szPrintBuf, "%s = %s\r\n", szLabel, szBuf);

  00063	53		 push	 ebx
  00064	68 00 00 00 00	 push	 OFFSET ??_C@_09MJNNNHCA@?$CFs?5?$DN?5?$CFs?$AN?6@
  00069	52		 push	 edx
  0006a	51		 push	 ecx
  0006b	ff 50 44	 call	 DWORD PTR [eax+68]
  0006e	83 c4 14	 add	 esp, 20			; 00000014H
$LN10@Write:

; 889  : 	}
; 890  : 	return TRUE;
; 891  : }

  00071	8b 4d fc	 mov	 ecx, DWORD PTR __$ArrayPad$[ebp]
  00074	b8 01 00 00 00	 mov	 eax, 1
  00079	5f		 pop	 edi
  0007a	5e		 pop	 esi
  0007b	33 cd		 xor	 ecx, ebp
  0007d	5b		 pop	 ebx
  0007e	e8 00 00 00 00	 call	 @__security_check_cookie@4
  00083	8b e5		 mov	 esp, ebp
  00085	5d		 pop	 ebp
  00086	c3		 ret	 0
?Write@i3IniParser@@QAAHPBD0ZZ ENDP			; i3IniParser::Write
_TEXT	ENDS
; Function compile flags: /Ogtp
; File E:\Proyectos\JuegosOnlineproyectos\PB\pbblow\Piercing Blow Remake\i3Server\src\i3Base\i3IniParser.cpp
;	COMDAT ?GetIndex@i3IniParser@@QAEHPBDQAPBDIAAHI@Z
_TEXT	SEGMENT
_szLabel$ = 8						; size = 4
_szIndexString$ = 12					; size = 4
_nDefault$ = 16						; size = 4
_nValue$ = 20						; size = 4
_nCount$ = 24						; size = 4
?GetIndex@i3IniParser@@QAEHPBDQAPBDIAAHI@Z PROC		; i3IniParser::GetIndex, COMDAT
; _this$ = ecx

; 844  : {

  00000	55		 push	 ebp
  00001	8b ec		 mov	 ebp, esp
  00003	53		 push	 ebx
  00004	56		 push	 esi
  00005	57		 push	 edi

; 845  : 	char* szBuf = m_szTemp;
; 846  : 
; 847  : 	if (GetValue(szLabel, szBuf, I3_INI_VALUE_SIZE))

  00006	68 00 01 00 00	 push	 256			; 00000100H
  0000b	8d 59 10	 lea	 ebx, DWORD PTR [ecx+16]
  0000e	53		 push	 ebx
  0000f	ff 75 08	 push	 DWORD PTR _szLabel$[ebp]
  00012	e8 00 00 00 00	 call	 ?GetValue@i3IniParser@@QAEHPBDPADH@Z ; i3IniParser::GetValue
  00017	85 c0		 test	 eax, eax
  00019	74 43		 je	 SHORT $LN5@GetIndex

; 848  : 	{
; 849  : 		UINT32 i;
; 850  : 		for (i = 0; i < nCount; i++)

  0001b	8b 7d 18	 mov	 edi, DWORD PTR _nCount$[ebp]
  0001e	33 f6		 xor	 esi, esi
  00020	85 ff		 test	 edi, edi
  00022	74 18		 je	 SHORT $LN3@GetIndex
$LL4@GetIndex:

; 851  : 		{
; 852  : 			if (i3String::Compare(szBuf, szIndexString[i]) == 0)

  00024	8b 45 0c	 mov	 eax, DWORD PTR _szIndexString$[ebp]
  00027	ff 34 b0	 push	 DWORD PTR [eax+esi*4]
  0002a	53		 push	 ebx
  0002b	e8 00 00 00 00	 call	 ?Compare@i3String@@YAHPBD0@Z ; i3String::Compare
  00030	83 c4 08	 add	 esp, 8
  00033	85 c0		 test	 eax, eax
  00035	74 16		 je	 SHORT $LN10@GetIndex

; 848  : 	{
; 849  : 		UINT32 i;
; 850  : 		for (i = 0; i < nCount; i++)

  00037	46		 inc	 esi
  00038	3b f7		 cmp	 esi, edi
  0003a	72 e8		 jb	 SHORT $LL4@GetIndex
$LN3@GetIndex:

; 856  : 			}
; 857  : 		}
; 858  : 		//I3TRACE( "ERROR : [i3IniParser::GetIndex] Unknown string found. Label = '%s', Value = '%s'\n", szLabel, szBuf );
; 859  : 		nValue = -1;
; 860  : 	}
; 861  : 	else
; 862  : 	{
; 863  : 		nValue = nDefault;
; 864  : 	}
; 865  : 
; 866  : 	return FALSE;

  0003c	8b 45 14	 mov	 eax, DWORD PTR _nValue$[ebp]
  0003f	83 c9 ff	 or	 ecx, -1
  00042	5f		 pop	 edi

; 867  : }

  00043	5e		 pop	 esi
  00044	5b		 pop	 ebx
  00045	89 08		 mov	 DWORD PTR [eax], ecx
  00047	33 c0		 xor	 eax, eax
  00049	5d		 pop	 ebp
  0004a	c2 14 00	 ret	 20			; 00000014H
$LN10@GetIndex:

; 853  : 			{
; 854  : 				nValue = i;

  0004d	8b 45 14	 mov	 eax, DWORD PTR _nValue$[ebp]
  00050	5f		 pop	 edi
  00051	89 30		 mov	 DWORD PTR [eax], esi

; 855  : 				return TRUE;

  00053	b8 01 00 00 00	 mov	 eax, 1

; 867  : }

  00058	5e		 pop	 esi
  00059	5b		 pop	 ebx
  0005a	5d		 pop	 ebp
  0005b	c2 14 00	 ret	 20			; 00000014H
$LN5@GetIndex:

; 856  : 			}
; 857  : 		}
; 858  : 		//I3TRACE( "ERROR : [i3IniParser::GetIndex] Unknown string found. Label = '%s', Value = '%s'\n", szLabel, szBuf );
; 859  : 		nValue = -1;
; 860  : 	}
; 861  : 	else
; 862  : 	{
; 863  : 		nValue = nDefault;
; 864  : 	}
; 865  : 
; 866  : 	return FALSE;

  0005e	8b 45 14	 mov	 eax, DWORD PTR _nValue$[ebp]
  00061	8b 4d 10	 mov	 ecx, DWORD PTR _nDefault$[ebp]
  00064	5f		 pop	 edi

; 867  : }

  00065	5e		 pop	 esi
  00066	89 08		 mov	 DWORD PTR [eax], ecx
  00068	33 c0		 xor	 eax, eax
  0006a	5b		 pop	 ebx
  0006b	5d		 pop	 ebp
  0006c	c2 14 00	 ret	 20			; 00000014H
?GetIndex@i3IniParser@@QAEHPBDQAPBDIAAHI@Z ENDP		; i3IniParser::GetIndex
_TEXT	ENDS
; Function compile flags: /Ogtp
; File E:\Proyectos\JuegosOnlineproyectos\PB\pbblow\Piercing Blow Remake\i3Server\src\i3Base\i3IniParser.cpp
;	COMDAT ?GetValues@i3IniParser@@QAEHPBDPAM1HH@Z
_TEXT	SEGMENT
_szLabel$ = 8						; size = 4
_rDefault$ = 12						; size = 4
_rValues$ = 16						; size = 4
_NumValues$ = 20					; size = 4
tv261 = 20						; size = 4
_nDelimiter$ = 24					; size = 4
?GetValues@i3IniParser@@QAEHPBDPAM1HH@Z PROC		; i3IniParser::GetValues, COMDAT
; _this$ = ecx

; 828  : {

  00000	55		 push	 ebp
  00001	8b ec		 mov	 ebp, esp
  00003	53		 push	 ebx
  00004	8b 5d 14	 mov	 ebx, DWORD PTR _NumValues$[ebp]
  00007	56		 push	 esi
  00008	8b 75 10	 mov	 esi, DWORD PTR _rValues$[ebp]
  0000b	57		 push	 edi

; 829  : 	INT32 nRead = GetValues(szLabel, rValues, NumValues, nDelimiter);

  0000c	ff 75 18	 push	 DWORD PTR _nDelimiter$[ebp]
  0000f	8b 7d 0c	 mov	 edi, DWORD PTR _rDefault$[ebp]
  00012	53		 push	 ebx
  00013	56		 push	 esi
  00014	ff 75 08	 push	 DWORD PTR _szLabel$[ebp]
  00017	e8 00 00 00 00	 call	 ?GetValues@i3IniParser@@QAEHPBDPAMHH@Z ; i3IniParser::GetValues

; 830  : 
; 831  : 	INT32 i;
; 832  : 	for (i = nRead; i < NumValues; i++)

  0001c	8b d0		 mov	 edx, eax
  0001e	3b c3		 cmp	 eax, ebx
  00020	7d 49		 jge	 SHORT $LN9@GetValues
  00022	8b cb		 mov	 ecx, ebx
  00024	2b c8		 sub	 ecx, eax
  00026	83 f9 04	 cmp	 ecx, 4
  00029	7c 35		 jl	 SHORT $LC4@GetValues
  0002b	8d 4b fd	 lea	 ecx, DWORD PTR [ebx-3]
  0002e	89 4d 14	 mov	 DWORD PTR tv261[ebp], ecx
$LL11@GetValues:

; 833  : 	{
; 834  : 		rValues[i] = rDefault[i];

  00031	d9 04 97	 fld	 DWORD PTR [edi+edx*4]
  00034	d9 1c 96	 fstp	 DWORD PTR [esi+edx*4]
  00037	d9 44 97 04	 fld	 DWORD PTR [edi+edx*4+4]
  0003b	d9 5c 96 04	 fstp	 DWORD PTR [esi+edx*4+4]
  0003f	d9 44 97 08	 fld	 DWORD PTR [edi+edx*4+8]
  00043	d9 5c 96 08	 fstp	 DWORD PTR [esi+edx*4+8]
  00047	d9 44 97 0c	 fld	 DWORD PTR [edi+edx*4+12]
  0004b	d9 5c 96 0c	 fstp	 DWORD PTR [esi+edx*4+12]
  0004f	83 c2 04	 add	 edx, 4
  00052	8b ca		 mov	 ecx, edx
  00054	3b 55 14	 cmp	 edx, DWORD PTR tv261[ebp]
  00057	7c d8		 jl	 SHORT $LL11@GetValues

; 830  : 
; 831  : 	INT32 i;
; 832  : 	for (i = nRead; i < NumValues; i++)

  00059	3b cb		 cmp	 ecx, ebx
  0005b	7d 0e		 jge	 SHORT $LN9@GetValues
  0005d	8d 49 00	 npad	 3
$LC4@GetValues:

; 833  : 	{
; 834  : 		rValues[i] = rDefault[i];

  00060	d9 04 97	 fld	 DWORD PTR [edi+edx*4]
  00063	d9 1c 96	 fstp	 DWORD PTR [esi+edx*4]
  00066	42		 inc	 edx
  00067	3b d3		 cmp	 edx, ebx
  00069	7c f5		 jl	 SHORT $LC4@GetValues
$LN9@GetValues:
  0006b	5f		 pop	 edi

; 835  : 	}
; 836  : 
; 837  : 	return nRead;
; 838  : }

  0006c	5e		 pop	 esi
  0006d	5b		 pop	 ebx
  0006e	5d		 pop	 ebp
  0006f	c2 14 00	 ret	 20			; 00000014H
?GetValues@i3IniParser@@QAEHPBDPAM1HH@Z ENDP		; i3IniParser::GetValues
_TEXT	ENDS
; Function compile flags: /Ogtp
; File E:\Proyectos\JuegosOnlineproyectos\PB\pbblow\Piercing Blow Remake\i3Server\src\i3Base\i3IniParser.cpp
;	COMDAT ?GetValues@i3IniParser@@QAEHPBDPAH1HH@Z
_TEXT	SEGMENT
_szLabel$ = 8						; size = 4
_nDefault$ = 12						; size = 4
_nValues$ = 16						; size = 4
_NumValues$ = 20					; size = 4
_nDelimiter$ = 24					; size = 4
?GetValues@i3IniParser@@QAEHPBDPAH1HH@Z PROC		; i3IniParser::GetValues, COMDAT
; _this$ = ecx

; 815  : {

  00000	55		 push	 ebp
  00001	8b ec		 mov	 ebp, esp
  00003	53		 push	 ebx
  00004	8b 5d 0c	 mov	 ebx, DWORD PTR _nDefault$[ebp]
  00007	56		 push	 esi

; 816  : 	INT32 nRead = GetValues(szLabel, nValues, NumValues, nDelimiter);

  00008	8b 75 14	 mov	 esi, DWORD PTR _NumValues$[ebp]
  0000b	57		 push	 edi
  0000c	ff 75 18	 push	 DWORD PTR _nDelimiter$[ebp]
  0000f	8b 7d 10	 mov	 edi, DWORD PTR _nValues$[ebp]
  00012	56		 push	 esi
  00013	57		 push	 edi
  00014	ff 75 08	 push	 DWORD PTR _szLabel$[ebp]
  00017	e8 00 00 00 00	 call	 ?GetValues@i3IniParser@@QAEHPBDPAHHH@Z ; i3IniParser::GetValues

; 817  : 
; 818  : 	INT32 i;
; 819  : 	for (i = nRead; i < NumValues; i++)

  0001c	8b c8		 mov	 ecx, eax
  0001e	3b c6		 cmp	 eax, esi
  00020	7d 0b		 jge	 SHORT $LN3@GetValues
$LL4@GetValues:

; 820  : 	{
; 821  : 		nValues[i] = nDefault[i];

  00022	8b 14 8b	 mov	 edx, DWORD PTR [ebx+ecx*4]
  00025	89 14 8f	 mov	 DWORD PTR [edi+ecx*4], edx
  00028	41		 inc	 ecx
  00029	3b ce		 cmp	 ecx, esi
  0002b	7c f5		 jl	 SHORT $LL4@GetValues
$LN3@GetValues:
  0002d	5f		 pop	 edi

; 822  : 	}
; 823  : 
; 824  : 	return nRead;
; 825  : }

  0002e	5e		 pop	 esi
  0002f	5b		 pop	 ebx
  00030	5d		 pop	 ebp
  00031	c2 14 00	 ret	 20			; 00000014H
?GetValues@i3IniParser@@QAEHPBDPAH1HH@Z ENDP		; i3IniParser::GetValues
_TEXT	ENDS
; Function compile flags: /Ogtp
; File E:\Proyectos\JuegosOnlineproyectos\PB\pbblow\Piercing Blow Remake\i3Server\src\i3Base\i3IniParser.cpp
;	COMDAT ?GetValues@i3IniParser@@QAEHPBDMPAMHH@Z
_TEXT	SEGMENT
_szLabel$ = 8						; size = 4
_rDefault$ = 12						; size = 4
tv85 = 12						; size = 4
_rValues$ = 16						; size = 4
_NumValues$ = 20					; size = 4
_nDelimiter$ = 24					; size = 4
?GetValues@i3IniParser@@QAEHPBDMPAMHH@Z PROC		; i3IniParser::GetValues, COMDAT
; _this$ = ecx

; 799  : {

  00000	55		 push	 ebp
  00001	8b ec		 mov	 ebp, esp
  00003	f3 0f 10 45 0c	 movss	 xmm0, DWORD PTR _rDefault$[ebp]
  00008	56		 push	 esi
  00009	8b 75 14	 mov	 esi, DWORD PTR _NumValues$[ebp]
  0000c	57		 push	 edi

; 800  : 	INT32 nRead = GetValues(szLabel, rValues, NumValues, nDelimiter);

  0000d	ff 75 18	 push	 DWORD PTR _nDelimiter$[ebp]
  00010	8b 7d 10	 mov	 edi, DWORD PTR _rValues$[ebp]
  00013	56		 push	 esi
  00014	57		 push	 edi
  00015	ff 75 08	 push	 DWORD PTR _szLabel$[ebp]
  00018	f3 0f 11 45 0c	 movss	 DWORD PTR tv85[ebp], xmm0
  0001d	e8 00 00 00 00	 call	 ?GetValues@i3IniParser@@QAEHPBDPAMHH@Z ; i3IniParser::GetValues
  00022	8b d0		 mov	 edx, eax

; 801  : 
; 802  : 	INT32 i;
; 803  : 	for (i = nRead; i < NumValues; i++)

  00024	3b d6		 cmp	 edx, esi
  00026	7d 0e		 jge	 SHORT $LL10@GetValues

; 804  : 	{
; 805  : 		rValues[i] = rDefault;

  00028	8b 45 0c	 mov	 eax, DWORD PTR tv85[ebp]
  0002b	8d 3c 97	 lea	 edi, DWORD PTR [edi+edx*4]
  0002e	2b f2		 sub	 esi, edx
  00030	8b ce		 mov	 ecx, esi
  00032	f3 ab		 rep stosd

; 806  : 	}
; 807  : 
; 808  : 	return nRead;

  00034	8b c2		 mov	 eax, edx
$LL10@GetValues:

; 809  : }

  00036	5f		 pop	 edi
  00037	5e		 pop	 esi
  00038	5d		 pop	 ebp
  00039	c2 14 00	 ret	 20			; 00000014H
?GetValues@i3IniParser@@QAEHPBDMPAMHH@Z ENDP		; i3IniParser::GetValues
_TEXT	ENDS
; Function compile flags: /Ogtp
; File E:\Proyectos\JuegosOnlineproyectos\PB\pbblow\Piercing Blow Remake\i3Server\src\i3Base\i3IniParser.cpp
;	COMDAT ?GetValues@i3IniParser@@QAEHPBDHPAHHH@Z
_TEXT	SEGMENT
_szLabel$ = 8						; size = 4
_nDefault$ = 12						; size = 4
_nValues$ = 16						; size = 4
_NumValues$ = 20					; size = 4
_nDelimiter$ = 24					; size = 4
?GetValues@i3IniParser@@QAEHPBDHPAHHH@Z PROC		; i3IniParser::GetValues, COMDAT
; _this$ = ecx

; 786  : {

  00000	55		 push	 ebp
  00001	8b ec		 mov	 ebp, esp
  00003	56		 push	 esi
  00004	8b 75 14	 mov	 esi, DWORD PTR _NumValues$[ebp]
  00007	57		 push	 edi

; 787  : 	INT32 nRead = GetValues(szLabel, nValues, NumValues, nDelimiter);

  00008	ff 75 18	 push	 DWORD PTR _nDelimiter$[ebp]
  0000b	8b 7d 10	 mov	 edi, DWORD PTR _nValues$[ebp]
  0000e	56		 push	 esi
  0000f	57		 push	 edi
  00010	ff 75 08	 push	 DWORD PTR _szLabel$[ebp]
  00013	e8 00 00 00 00	 call	 ?GetValues@i3IniParser@@QAEHPBDPAHHH@Z ; i3IniParser::GetValues
  00018	8b d0		 mov	 edx, eax

; 788  : 
; 789  : 	INT32 i;
; 790  : 	for (i = nRead; i < NumValues; i++)

  0001a	3b d6		 cmp	 edx, esi
  0001c	7d 12		 jge	 SHORT $LL10@GetValues

; 791  : 	{
; 792  : 		nValues[i] = nDefault;

  0001e	8b 45 0c	 mov	 eax, DWORD PTR _nDefault$[ebp]
  00021	8d 3c 97	 lea	 edi, DWORD PTR [edi+edx*4]
  00024	2b f2		 sub	 esi, edx
  00026	8b ce		 mov	 ecx, esi
  00028	f3 ab		 rep stosd

; 793  : 	}
; 794  : 
; 795  : 	return nRead;

  0002a	8b c2		 mov	 eax, edx
  0002c	8d 64 24 00	 npad	 4
$LL10@GetValues:

; 796  : }

  00030	5f		 pop	 edi
  00031	5e		 pop	 esi
  00032	5d		 pop	 ebp
  00033	c2 14 00	 ret	 20			; 00000014H
?GetValues@i3IniParser@@QAEHPBDHPAHHH@Z ENDP		; i3IniParser::GetValues
_TEXT	ENDS
; Function compile flags: /Ogtp
; File E:\Proyectos\JuegosOnlineproyectos\PB\pbblow\Piercing Blow Remake\i3Server\src\i3Base\i3IniParser.cpp
;	COMDAT ?GetValues@i3IniParser@@QAEHPBDPAMHH@Z
_TEXT	SEGMENT
_Lexer$2 = -36						; size = 24
__$EHRec$ = -12						; size = 12
_szLabel$ = 8						; size = 4
_rValues$ = 12						; size = 4
_NumValues$ = 16					; size = 4
_nDelimiter$ = 20					; size = 4
?GetValues@i3IniParser@@QAEHPBDPAMHH@Z PROC		; i3IniParser::GetValues, COMDAT
; _this$ = ecx

; 764  : {

  00000	55		 push	 ebp
  00001	8b ec		 mov	 ebp, esp
  00003	6a ff		 push	 -1
  00005	68 00 00 00 00	 push	 __ehhandler$?GetValues@i3IniParser@@QAEHPBDPAMHH@Z
  0000a	64 a1 00 00 00
	00		 mov	 eax, DWORD PTR fs:0
  00010	50		 push	 eax
  00011	83 ec 18	 sub	 esp, 24			; 00000018H
  00014	56		 push	 esi
  00015	a1 00 00 00 00	 mov	 eax, DWORD PTR ___security_cookie
  0001a	33 c5		 xor	 eax, ebp
  0001c	50		 push	 eax
  0001d	8d 45 f4	 lea	 eax, DWORD PTR __$EHRec$[ebp]
  00020	64 a3 00 00 00
	00		 mov	 DWORD PTR fs:0, eax

; 678  : 	if (GetValue(szLabel, szValue, nBufLength))

  00026	68 00 01 00 00	 push	 256			; 00000100H

; 765  : 	char* szBuf = m_szTemp;

  0002b	8d 71 10	 lea	 esi, DWORD PTR [ecx+16]

; 678  : 	if (GetValue(szLabel, szValue, nBufLength))

  0002e	56		 push	 esi
  0002f	ff 75 08	 push	 DWORD PTR _szLabel$[ebp]
  00032	e8 00 00 00 00	 call	 ?GetValue@i3IniParser@@QAEHPBDPADH@Z ; i3IniParser::GetValue
  00037	85 c0		 test	 eax, eax
  00039	74 07		 je	 SHORT $LN7@GetValues

; 679  : 	{
; 680  : 		return TRUE;

  0003b	b8 01 00 00 00	 mov	 eax, 1
  00040	eb 1e		 jmp	 SHORT $LN8@GetValues
$LN7@GetValues:

; 681  : 	}
; 682  : 	else
; 683  : 	{
; 684  : 		strcpy(szValue, szDefault);

  00042	b9 00 00 00 00	 mov	 ecx, OFFSET ??_C@_00CNPNBAHC@@
  00047	8b d6		 mov	 edx, esi
  00049	8d a4 24 00 00
	00 00		 npad	 7
$LL10@GetValues:
  00050	8a 01		 mov	 al, BYTE PTR [ecx]
  00052	8d 49 01	 lea	 ecx, DWORD PTR [ecx+1]
  00055	88 02		 mov	 BYTE PTR [edx], al
  00057	8d 52 01	 lea	 edx, DWORD PTR [edx+1]
  0005a	84 c0		 test	 al, al
  0005c	75 f2		 jne	 SHORT $LL10@GetValues

; 685  : 		return FALSE;

  0005e	33 c0		 xor	 eax, eax
$LN8@GetValues:

; 766  : 
; 767  : 	if (GetValue(szLabel, "", szBuf, I3_INI_VALUE_SIZE))

  00060	85 c0		 test	 eax, eax
  00062	74 3f		 je	 SHORT $LN2@GetValues

; 768  : 	{
; 769  : 		i3SimpleLineLexer Lexer;

  00064	8d 4d dc	 lea	 ecx, DWORD PTR _Lexer$2[ebp]
  00067	e8 00 00 00 00	 call	 ??0i3SimpleLineLexer@@QAE@XZ ; i3SimpleLineLexer::i3SimpleLineLexer

; 770  : 		INT32 nRead = Lexer.GetValuesFromString(rValues, NumValues, nDelimiter, szBuf);

  0006c	56		 push	 esi
  0006d	ff 75 14	 push	 DWORD PTR _nDelimiter$[ebp]
  00070	8d 4d dc	 lea	 ecx, DWORD PTR _Lexer$2[ebp]
  00073	c7 45 fc 00 00
	00 00		 mov	 DWORD PTR __$EHRec$[ebp+8], 0
  0007a	ff 75 10	 push	 DWORD PTR _NumValues$[ebp]
  0007d	ff 75 0c	 push	 DWORD PTR _rValues$[ebp]
  00080	e8 00 00 00 00	 call	 ?GetValuesFromString@i3SimpleLineLexer@@QAEHPAMHHPAD@Z ; i3SimpleLineLexer::GetValuesFromString

; 771  : 		if (nRead != NumValues)
; 772  : 		{
; 773  : 			I3TRACE("ERROR : '%s' must be specified with %d items.\n", szLabel, NumValues);
; 774  : 			I3ASSERT_0;
; 775  : 		}
; 776  : 		return nRead;

  00085	8d 4d dc	 lea	 ecx, DWORD PTR _Lexer$2[ebp]
  00088	8b f0		 mov	 esi, eax
  0008a	e8 00 00 00 00	 call	 ??1i3SimpleLineLexer@@UAE@XZ ; i3SimpleLineLexer::~i3SimpleLineLexer
  0008f	8b c6		 mov	 eax, esi

; 780  : }

  00091	8b 4d f4	 mov	 ecx, DWORD PTR __$EHRec$[ebp]
  00094	64 89 0d 00 00
	00 00		 mov	 DWORD PTR fs:0, ecx
  0009b	59		 pop	 ecx
  0009c	5e		 pop	 esi
  0009d	8b e5		 mov	 esp, ebp
  0009f	5d		 pop	 ebp
  000a0	c2 10 00	 ret	 16			; 00000010H
$LN2@GetValues:

; 777  : 	}
; 778  : 
; 779  : 	return 0;

  000a3	33 c0		 xor	 eax, eax

; 780  : }

  000a5	8b 4d f4	 mov	 ecx, DWORD PTR __$EHRec$[ebp]
  000a8	64 89 0d 00 00
	00 00		 mov	 DWORD PTR fs:0, ecx
  000af	59		 pop	 ecx
  000b0	5e		 pop	 esi
  000b1	8b e5		 mov	 esp, ebp
  000b3	5d		 pop	 ebp
  000b4	c2 10 00	 ret	 16			; 00000010H
_TEXT	ENDS
;	COMDAT text$x
text$x	SEGMENT
__unwindfunclet$?GetValues@i3IniParser@@QAEHPBDPAMHH@Z$0:
  00000	8d 4d dc	 lea	 ecx, DWORD PTR _Lexer$2[ebp]
  00003	e9 00 00 00 00	 jmp	 ??1i3SimpleLineLexer@@UAE@XZ ; i3SimpleLineLexer::~i3SimpleLineLexer
  00008	cc		 int	 3
  00009	cc		 int	 3
  0000a	cc		 int	 3
  0000b	cc		 int	 3
  0000c	cc		 int	 3
__ehhandler$?GetValues@i3IniParser@@QAEHPBDPAMHH@Z:
  0000d	90		 npad	 1
  0000e	90		 npad	 1
  0000f	8b 54 24 08	 mov	 edx, DWORD PTR [esp+8]
  00013	8d 42 0c	 lea	 eax, DWORD PTR [edx+12]
  00016	8b 4a e0	 mov	 ecx, DWORD PTR [edx-32]
  00019	33 c8		 xor	 ecx, eax
  0001b	e8 00 00 00 00	 call	 @__security_check_cookie@4
  00020	b8 00 00 00 00	 mov	 eax, OFFSET __ehfuncinfo$?GetValues@i3IniParser@@QAEHPBDPAMHH@Z
  00025	e9 00 00 00 00	 jmp	 ___CxxFrameHandler3
text$x	ENDS
?GetValues@i3IniParser@@QAEHPBDPAMHH@Z ENDP		; i3IniParser::GetValues
; Function compile flags: /Ogtp
; File E:\Proyectos\JuegosOnlineproyectos\PB\pbblow\Piercing Blow Remake\i3Server\src\i3Base\i3IniParser.cpp
;	COMDAT ?GetValues@i3IniParser@@QAEHPBDPAHHH@Z
_TEXT	SEGMENT
_Lexer$2 = -36						; size = 24
__$EHRec$ = -12						; size = 12
_szLabel$ = 8						; size = 4
_nValues$ = 12						; size = 4
_NumValues$ = 16					; size = 4
_nDelimiter$ = 20					; size = 4
?GetValues@i3IniParser@@QAEHPBDPAHHH@Z PROC		; i3IniParser::GetValues, COMDAT
; _this$ = ecx

; 745  : {

  00000	55		 push	 ebp
  00001	8b ec		 mov	 ebp, esp
  00003	6a ff		 push	 -1
  00005	68 00 00 00 00	 push	 __ehhandler$?GetValues@i3IniParser@@QAEHPBDPAHHH@Z
  0000a	64 a1 00 00 00
	00		 mov	 eax, DWORD PTR fs:0
  00010	50		 push	 eax
  00011	83 ec 18	 sub	 esp, 24			; 00000018H
  00014	56		 push	 esi
  00015	a1 00 00 00 00	 mov	 eax, DWORD PTR ___security_cookie
  0001a	33 c5		 xor	 eax, ebp
  0001c	50		 push	 eax
  0001d	8d 45 f4	 lea	 eax, DWORD PTR __$EHRec$[ebp]
  00020	64 a3 00 00 00
	00		 mov	 DWORD PTR fs:0, eax

; 678  : 	if (GetValue(szLabel, szValue, nBufLength))

  00026	68 00 01 00 00	 push	 256			; 00000100H

; 746  : 	char* szBuf = m_szTemp;

  0002b	8d 71 10	 lea	 esi, DWORD PTR [ecx+16]

; 678  : 	if (GetValue(szLabel, szValue, nBufLength))

  0002e	56		 push	 esi
  0002f	ff 75 08	 push	 DWORD PTR _szLabel$[ebp]
  00032	e8 00 00 00 00	 call	 ?GetValue@i3IniParser@@QAEHPBDPADH@Z ; i3IniParser::GetValue
  00037	85 c0		 test	 eax, eax
  00039	74 07		 je	 SHORT $LN7@GetValues

; 679  : 	{
; 680  : 		return TRUE;

  0003b	b8 01 00 00 00	 mov	 eax, 1
  00040	eb 1e		 jmp	 SHORT $LN8@GetValues
$LN7@GetValues:

; 681  : 	}
; 682  : 	else
; 683  : 	{
; 684  : 		strcpy(szValue, szDefault);

  00042	b9 00 00 00 00	 mov	 ecx, OFFSET ??_C@_00CNPNBAHC@@
  00047	8b d6		 mov	 edx, esi
  00049	8d a4 24 00 00
	00 00		 npad	 7
$LL10@GetValues:
  00050	8a 01		 mov	 al, BYTE PTR [ecx]
  00052	8d 49 01	 lea	 ecx, DWORD PTR [ecx+1]
  00055	88 02		 mov	 BYTE PTR [edx], al
  00057	8d 52 01	 lea	 edx, DWORD PTR [edx+1]
  0005a	84 c0		 test	 al, al
  0005c	75 f2		 jne	 SHORT $LL10@GetValues

; 685  : 		return FALSE;

  0005e	33 c0		 xor	 eax, eax
$LN8@GetValues:

; 747  : 
; 748  : 	if (GetValue(szLabel, "", szBuf, I3_INI_VALUE_SIZE))

  00060	85 c0		 test	 eax, eax
  00062	74 3f		 je	 SHORT $LN2@GetValues

; 749  : 	{
; 750  : 		i3SimpleLineLexer Lexer;

  00064	8d 4d dc	 lea	 ecx, DWORD PTR _Lexer$2[ebp]
  00067	e8 00 00 00 00	 call	 ??0i3SimpleLineLexer@@QAE@XZ ; i3SimpleLineLexer::i3SimpleLineLexer

; 751  : 		INT32 nRead = Lexer.GetValuesFromString(nValues, NumValues, nDelimiter, szBuf);

  0006c	56		 push	 esi
  0006d	ff 75 14	 push	 DWORD PTR _nDelimiter$[ebp]
  00070	8d 4d dc	 lea	 ecx, DWORD PTR _Lexer$2[ebp]
  00073	c7 45 fc 00 00
	00 00		 mov	 DWORD PTR __$EHRec$[ebp+8], 0
  0007a	ff 75 10	 push	 DWORD PTR _NumValues$[ebp]
  0007d	ff 75 0c	 push	 DWORD PTR _nValues$[ebp]
  00080	e8 00 00 00 00	 call	 ?GetValuesFromString@i3SimpleLineLexer@@QAEHPAHHHPAD@Z ; i3SimpleLineLexer::GetValuesFromString

; 752  : 		if (nRead != NumValues)
; 753  : 		{
; 754  : 			I3TRACE("ERROR : '%s' must be specified with %d items.\n", szLabel, NumValues);
; 755  : 			I3ASSERT_0;
; 756  : 		}
; 757  : 		return nRead;

  00085	8d 4d dc	 lea	 ecx, DWORD PTR _Lexer$2[ebp]
  00088	8b f0		 mov	 esi, eax
  0008a	e8 00 00 00 00	 call	 ??1i3SimpleLineLexer@@UAE@XZ ; i3SimpleLineLexer::~i3SimpleLineLexer
  0008f	8b c6		 mov	 eax, esi

; 761  : }

  00091	8b 4d f4	 mov	 ecx, DWORD PTR __$EHRec$[ebp]
  00094	64 89 0d 00 00
	00 00		 mov	 DWORD PTR fs:0, ecx
  0009b	59		 pop	 ecx
  0009c	5e		 pop	 esi
  0009d	8b e5		 mov	 esp, ebp
  0009f	5d		 pop	 ebp
  000a0	c2 10 00	 ret	 16			; 00000010H
$LN2@GetValues:

; 758  : 	}
; 759  : 
; 760  : 	return 0;

  000a3	33 c0		 xor	 eax, eax

; 761  : }

  000a5	8b 4d f4	 mov	 ecx, DWORD PTR __$EHRec$[ebp]
  000a8	64 89 0d 00 00
	00 00		 mov	 DWORD PTR fs:0, ecx
  000af	59		 pop	 ecx
  000b0	5e		 pop	 esi
  000b1	8b e5		 mov	 esp, ebp
  000b3	5d		 pop	 ebp
  000b4	c2 10 00	 ret	 16			; 00000010H
_TEXT	ENDS
;	COMDAT text$x
text$x	SEGMENT
__unwindfunclet$?GetValues@i3IniParser@@QAEHPBDPAHHH@Z$0:
  00000	8d 4d dc	 lea	 ecx, DWORD PTR _Lexer$2[ebp]
  00003	e9 00 00 00 00	 jmp	 ??1i3SimpleLineLexer@@UAE@XZ ; i3SimpleLineLexer::~i3SimpleLineLexer
  00008	cc		 int	 3
  00009	cc		 int	 3
  0000a	cc		 int	 3
  0000b	cc		 int	 3
  0000c	cc		 int	 3
__ehhandler$?GetValues@i3IniParser@@QAEHPBDPAHHH@Z:
  0000d	90		 npad	 1
  0000e	90		 npad	 1
  0000f	8b 54 24 08	 mov	 edx, DWORD PTR [esp+8]
  00013	8d 42 0c	 lea	 eax, DWORD PTR [edx+12]
  00016	8b 4a e0	 mov	 ecx, DWORD PTR [edx-32]
  00019	33 c8		 xor	 ecx, eax
  0001b	e8 00 00 00 00	 call	 @__security_check_cookie@4
  00020	b8 00 00 00 00	 mov	 eax, OFFSET __ehfuncinfo$?GetValues@i3IniParser@@QAEHPBDPAHHH@Z
  00025	e9 00 00 00 00	 jmp	 ___CxxFrameHandler3
text$x	ENDS
?GetValues@i3IniParser@@QAEHPBDPAHHH@Z ENDP		; i3IniParser::GetValues
; Function compile flags: /Ogtp
; File E:\Proyectos\JuegosOnlineproyectos\PB\pbblow\Piercing Blow Remake\i3Server\src\i3Base\i3IniParser.cpp
;	COMDAT ?GetValue@i3IniParser@@QAEHPBDNPAN@Z
_TEXT	SEGMENT
_szLabel$ = 8						; size = 4
_rDefault$ = 12						; size = 8
_rValue$ = 20						; size = 4
?GetValue@i3IniParser@@QAEHPBDNPAN@Z PROC		; i3IniParser::GetValue, COMDAT
; _this$ = ecx

; 729  : {

  00000	55		 push	 ebp
  00001	8b ec		 mov	 ebp, esp
  00003	56		 push	 esi

; 666  : 	if (GetValue(szLabel, szBuf, I3_INI_VALUE_SIZE))

  00004	68 00 01 00 00	 push	 256			; 00000100H
  00009	8d 71 10	 lea	 esi, DWORD PTR [ecx+16]
  0000c	56		 push	 esi
  0000d	ff 75 08	 push	 DWORD PTR _szLabel$[ebp]
  00010	e8 00 00 00 00	 call	 ?GetValue@i3IniParser@@QAEHPBDPADH@Z ; i3IniParser::GetValue
  00015	85 c0		 test	 eax, eax
  00017	74 18		 je	 SHORT $LN2@GetValue

; 667  : 	{
; 668  : 		*rValue = atof(szBuf);

  00019	56		 push	 esi
  0001a	e8 00 00 00 00	 call	 _atof
  0001f	8b 45 14	 mov	 eax, DWORD PTR _rValue$[ebp]
  00022	83 c4 04	 add	 esp, 4
  00025	dd 18		 fstp	 QWORD PTR [eax]

; 737  : 		return FALSE;
; 738  : 	}
; 739  : }

  00027	b8 01 00 00 00	 mov	 eax, 1
  0002c	5e		 pop	 esi
  0002d	5d		 pop	 ebp
  0002e	c2 10 00	 ret	 16			; 00000010H
$LN2@GetValue:

; 730  : 	if (GetValue(szLabel, rValue))
; 731  : 	{
; 732  : 		return TRUE;
; 733  : 	}
; 734  : 	else
; 735  : 	{
; 736  : 		*rValue = rDefault;

  00031	8b 45 14	 mov	 eax, DWORD PTR _rValue$[ebp]
  00034	dd 45 0c	 fld	 QWORD PTR _rDefault$[ebp]
  00037	5e		 pop	 esi
  00038	dd 18		 fstp	 QWORD PTR [eax]

; 737  : 		return FALSE;
; 738  : 	}
; 739  : }

  0003a	33 c0		 xor	 eax, eax
  0003c	5d		 pop	 ebp
  0003d	c2 10 00	 ret	 16			; 00000010H
?GetValue@i3IniParser@@QAEHPBDNPAN@Z ENDP		; i3IniParser::GetValue
_TEXT	ENDS
; Function compile flags: /Ogtp
; File E:\Proyectos\JuegosOnlineproyectos\PB\pbblow\Piercing Blow Remake\i3Server\src\i3Base\i3IniParser.cpp
;	COMDAT ?GetValue@i3IniParser@@QAEHPBDMPAM@Z
_TEXT	SEGMENT
_szLabel$ = 8						; size = 4
_rDefault$ = 12						; size = 4
_rValue$ = 16						; size = 4
?GetValue@i3IniParser@@QAEHPBDMPAM@Z PROC		; i3IniParser::GetValue, COMDAT
; _this$ = ecx

; 716  : {

  00000	55		 push	 ebp
  00001	8b ec		 mov	 ebp, esp
  00003	56		 push	 esi

; 653  : 	if (GetValue(szLabel, szBuf, I3_INI_VALUE_SIZE))

  00004	68 00 01 00 00	 push	 256			; 00000100H
  00009	8d 71 10	 lea	 esi, DWORD PTR [ecx+16]
  0000c	56		 push	 esi
  0000d	ff 75 08	 push	 DWORD PTR _szLabel$[ebp]
  00010	e8 00 00 00 00	 call	 ?GetValue@i3IniParser@@QAEHPBDPADH@Z ; i3IniParser::GetValue
  00015	85 c0		 test	 eax, eax
  00017	74 18		 je	 SHORT $LN2@GetValue

; 654  : 	{
; 655  : 		*rValue = (REAL32)atof(szBuf);

  00019	56		 push	 esi
  0001a	e8 00 00 00 00	 call	 _atof
  0001f	8b 45 10	 mov	 eax, DWORD PTR _rValue$[ebp]
  00022	83 c4 04	 add	 esp, 4
  00025	d9 18		 fstp	 DWORD PTR [eax]

; 724  : 		return FALSE;
; 725  : 	}
; 726  : }

  00027	b8 01 00 00 00	 mov	 eax, 1
  0002c	5e		 pop	 esi
  0002d	5d		 pop	 ebp
  0002e	c2 0c 00	 ret	 12			; 0000000cH
$LN2@GetValue:

; 717  : 	if (GetValue(szLabel, rValue))
; 718  : 	{
; 719  : 		return TRUE;
; 720  : 	}
; 721  : 	else
; 722  : 	{
; 723  : 		*rValue = rDefault;

  00031	8b 45 10	 mov	 eax, DWORD PTR _rValue$[ebp]
  00034	f3 0f 10 45 0c	 movss	 xmm0, DWORD PTR _rDefault$[ebp]
  00039	5e		 pop	 esi
  0003a	f3 0f 11 00	 movss	 DWORD PTR [eax], xmm0

; 724  : 		return FALSE;
; 725  : 	}
; 726  : }

  0003e	33 c0		 xor	 eax, eax
  00040	5d		 pop	 ebp
  00041	c2 0c 00	 ret	 12			; 0000000cH
?GetValue@i3IniParser@@QAEHPBDMPAM@Z ENDP		; i3IniParser::GetValue
_TEXT	ENDS
; Function compile flags: /Ogtp
; File E:\Proyectos\JuegosOnlineproyectos\PB\pbblow\Piercing Blow Remake\i3Server\src\i3Base\i3IniParser.cpp
;	COMDAT ?GetValue@i3IniParser@@QAEHPBDIPAI@Z
_TEXT	SEGMENT
_szLabel$ = 8						; size = 4
_nDefault$ = 12						; size = 4
_nValue$ = 16						; size = 4
?GetValue@i3IniParser@@QAEHPBDIPAI@Z PROC		; i3IniParser::GetValue, COMDAT
; _this$ = ecx

; 703  : {

  00000	55		 push	 ebp
  00001	8b ec		 mov	 ebp, esp
  00003	56		 push	 esi

; 704  : 	if (GetValue(szLabel, nValue))

  00004	8b 75 10	 mov	 esi, DWORD PTR _nValue$[ebp]
  00007	56		 push	 esi
  00008	ff 75 08	 push	 DWORD PTR _szLabel$[ebp]
  0000b	e8 00 00 00 00	 call	 ?GetValue@i3IniParser@@QAEHPBDPAI@Z ; i3IniParser::GetValue
  00010	85 c0		 test	 eax, eax
  00012	74 0a		 je	 SHORT $LN2@GetValue

; 711  : 		return FALSE;
; 712  : 	}
; 713  : }

  00014	b8 01 00 00 00	 mov	 eax, 1
  00019	5e		 pop	 esi
  0001a	5d		 pop	 ebp
  0001b	c2 0c 00	 ret	 12			; 0000000cH
$LN2@GetValue:

; 705  : 	{
; 706  : 		return TRUE;
; 707  : 	}
; 708  : 	else
; 709  : 	{
; 710  : 		*nValue = nDefault;

  0001e	8b 45 0c	 mov	 eax, DWORD PTR _nDefault$[ebp]
  00021	89 06		 mov	 DWORD PTR [esi], eax

; 711  : 		return FALSE;
; 712  : 	}
; 713  : }

  00023	33 c0		 xor	 eax, eax
  00025	5e		 pop	 esi
  00026	5d		 pop	 ebp
  00027	c2 0c 00	 ret	 12			; 0000000cH
?GetValue@i3IniParser@@QAEHPBDIPAI@Z ENDP		; i3IniParser::GetValue
_TEXT	ENDS
; Function compile flags: /Ogtp
; File E:\Proyectos\JuegosOnlineproyectos\PB\pbblow\Piercing Blow Remake\i3Server\src\i3Base\i3IniParser.cpp
;	COMDAT ?GetValue@i3IniParser@@QAEHPBDHPAH@Z
_TEXT	SEGMENT
_szLabel$ = 8						; size = 4
_nDefault$ = 12						; size = 4
_nValue$ = 16						; size = 4
?GetValue@i3IniParser@@QAEHPBDHPAH@Z PROC		; i3IniParser::GetValue, COMDAT
; _this$ = ecx

; 690  : {

  00000	55		 push	 ebp
  00001	8b ec		 mov	 ebp, esp
  00003	56		 push	 esi

; 691  : 	if (GetValue(szLabel, nValue))

  00004	8b 75 10	 mov	 esi, DWORD PTR _nValue$[ebp]
  00007	56		 push	 esi
  00008	ff 75 08	 push	 DWORD PTR _szLabel$[ebp]
  0000b	e8 00 00 00 00	 call	 ?GetValue@i3IniParser@@QAEHPBDPAH@Z ; i3IniParser::GetValue
  00010	85 c0		 test	 eax, eax
  00012	74 0a		 je	 SHORT $LN2@GetValue

; 698  : 		return FALSE;
; 699  : 	}
; 700  : }

  00014	b8 01 00 00 00	 mov	 eax, 1
  00019	5e		 pop	 esi
  0001a	5d		 pop	 ebp
  0001b	c2 0c 00	 ret	 12			; 0000000cH
$LN2@GetValue:

; 692  : 	{
; 693  : 		return TRUE;
; 694  : 	}
; 695  : 	else
; 696  : 	{
; 697  : 		*nValue = nDefault;

  0001e	8b 45 0c	 mov	 eax, DWORD PTR _nDefault$[ebp]
  00021	89 06		 mov	 DWORD PTR [esi], eax

; 698  : 		return FALSE;
; 699  : 	}
; 700  : }

  00023	33 c0		 xor	 eax, eax
  00025	5e		 pop	 esi
  00026	5d		 pop	 ebp
  00027	c2 0c 00	 ret	 12			; 0000000cH
?GetValue@i3IniParser@@QAEHPBDHPAH@Z ENDP		; i3IniParser::GetValue
_TEXT	ENDS
; Function compile flags: /Ogtp
; File E:\Proyectos\JuegosOnlineproyectos\PB\pbblow\Piercing Blow Remake\i3Server\src\i3Base\i3IniParser.cpp
;	COMDAT ?GetValue@i3IniParser@@QAEHPBD0PADH@Z
_TEXT	SEGMENT
_szLabel$ = 8						; size = 4
_szDefault$ = 12					; size = 4
_szValue$ = 16						; size = 4
_nBufLength$ = 20					; size = 4
?GetValue@i3IniParser@@QAEHPBD0PADH@Z PROC		; i3IniParser::GetValue, COMDAT
; _this$ = ecx

; 677  : {

  00000	55		 push	 ebp
  00001	8b ec		 mov	 ebp, esp
  00003	56		 push	 esi

; 678  : 	if (GetValue(szLabel, szValue, nBufLength))

  00004	ff 75 14	 push	 DWORD PTR _nBufLength$[ebp]
  00007	8b 75 10	 mov	 esi, DWORD PTR _szValue$[ebp]
  0000a	56		 push	 esi
  0000b	ff 75 08	 push	 DWORD PTR _szLabel$[ebp]
  0000e	e8 00 00 00 00	 call	 ?GetValue@i3IniParser@@QAEHPBDPADH@Z ; i3IniParser::GetValue
  00013	85 c0		 test	 eax, eax
  00015	74 0a		 je	 SHORT $LN2@GetValue

; 679  : 	{
; 680  : 		return TRUE;

  00017	b8 01 00 00 00	 mov	 eax, 1
  0001c	5e		 pop	 esi

; 686  : 	}
; 687  : }

  0001d	5d		 pop	 ebp
  0001e	c2 10 00	 ret	 16			; 00000010H
$LN2@GetValue:

; 681  : 	}
; 682  : 	else
; 683  : 	{
; 684  : 		strcpy(szValue, szDefault);

  00021	8b 45 0c	 mov	 eax, DWORD PTR _szDefault$[ebp]
$LL5@GetValue:
  00024	8a 08		 mov	 cl, BYTE PTR [eax]
  00026	8d 40 01	 lea	 eax, DWORD PTR [eax+1]
  00029	88 0e		 mov	 BYTE PTR [esi], cl
  0002b	8d 76 01	 lea	 esi, DWORD PTR [esi+1]
  0002e	84 c9		 test	 cl, cl
  00030	75 f2		 jne	 SHORT $LL5@GetValue

; 685  : 		return FALSE;

  00032	33 c0		 xor	 eax, eax
  00034	5e		 pop	 esi

; 686  : 	}
; 687  : }

  00035	5d		 pop	 ebp
  00036	c2 10 00	 ret	 16			; 00000010H
?GetValue@i3IniParser@@QAEHPBD0PADH@Z ENDP		; i3IniParser::GetValue
_TEXT	ENDS
; Function compile flags: /Ogtp
; File E:\Proyectos\JuegosOnlineproyectos\PB\pbblow\Piercing Blow Remake\i3Server\src\i3Base\i3IniParser.cpp
;	COMDAT ?GetValue@i3IniParser@@QAEHPBDPAN@Z
_TEXT	SEGMENT
_szLabel$ = 8						; size = 4
_rValue$ = 12						; size = 4
?GetValue@i3IniParser@@QAEHPBDPAN@Z PROC		; i3IniParser::GetValue, COMDAT
; _this$ = ecx

; 663  : {

  00000	55		 push	 ebp
  00001	8b ec		 mov	 ebp, esp
  00003	56		 push	 esi

; 664  : 	char* szBuf = m_szTemp;
; 665  : 
; 666  : 	if (GetValue(szLabel, szBuf, I3_INI_VALUE_SIZE))

  00004	68 00 01 00 00	 push	 256			; 00000100H
  00009	8d 71 10	 lea	 esi, DWORD PTR [ecx+16]
  0000c	56		 push	 esi
  0000d	ff 75 08	 push	 DWORD PTR _szLabel$[ebp]
  00010	e8 00 00 00 00	 call	 ?GetValue@i3IniParser@@QAEHPBDPADH@Z ; i3IniParser::GetValue
  00015	85 c0		 test	 eax, eax
  00017	74 18		 je	 SHORT $LN2@GetValue

; 667  : 	{
; 668  : 		*rValue = atof(szBuf);

  00019	56		 push	 esi
  0001a	e8 00 00 00 00	 call	 _atof
  0001f	8b 45 0c	 mov	 eax, DWORD PTR _rValue$[ebp]
  00022	83 c4 04	 add	 esp, 4
  00025	dd 18		 fstp	 QWORD PTR [eax]

; 669  : 		return TRUE;

  00027	b8 01 00 00 00	 mov	 eax, 1
  0002c	5e		 pop	 esi

; 673  : }

  0002d	5d		 pop	 ebp
  0002e	c2 08 00	 ret	 8
$LN2@GetValue:

; 670  : 	}
; 671  : 
; 672  : 	return FALSE;

  00031	33 c0		 xor	 eax, eax
  00033	5e		 pop	 esi

; 673  : }

  00034	5d		 pop	 ebp
  00035	c2 08 00	 ret	 8
?GetValue@i3IniParser@@QAEHPBDPAN@Z ENDP		; i3IniParser::GetValue
_TEXT	ENDS
; Function compile flags: /Ogtp
; File E:\Proyectos\JuegosOnlineproyectos\PB\pbblow\Piercing Blow Remake\i3Server\src\i3Base\i3IniParser.cpp
;	COMDAT ?GetValue@i3IniParser@@QAEHPBDPAM@Z
_TEXT	SEGMENT
_szLabel$ = 8						; size = 4
_rValue$ = 12						; size = 4
?GetValue@i3IniParser@@QAEHPBDPAM@Z PROC		; i3IniParser::GetValue, COMDAT
; _this$ = ecx

; 650  : {

  00000	55		 push	 ebp
  00001	8b ec		 mov	 ebp, esp
  00003	56		 push	 esi

; 651  : 	char* szBuf = m_szTemp;
; 652  : 
; 653  : 	if (GetValue(szLabel, szBuf, I3_INI_VALUE_SIZE))

  00004	68 00 01 00 00	 push	 256			; 00000100H
  00009	8d 71 10	 lea	 esi, DWORD PTR [ecx+16]
  0000c	56		 push	 esi
  0000d	ff 75 08	 push	 DWORD PTR _szLabel$[ebp]
  00010	e8 00 00 00 00	 call	 ?GetValue@i3IniParser@@QAEHPBDPADH@Z ; i3IniParser::GetValue
  00015	85 c0		 test	 eax, eax
  00017	74 18		 je	 SHORT $LN2@GetValue

; 654  : 	{
; 655  : 		*rValue = (REAL32)atof(szBuf);

  00019	56		 push	 esi
  0001a	e8 00 00 00 00	 call	 _atof
  0001f	8b 45 0c	 mov	 eax, DWORD PTR _rValue$[ebp]
  00022	83 c4 04	 add	 esp, 4
  00025	d9 18		 fstp	 DWORD PTR [eax]

; 656  : 		return TRUE;

  00027	b8 01 00 00 00	 mov	 eax, 1
  0002c	5e		 pop	 esi

; 660  : }

  0002d	5d		 pop	 ebp
  0002e	c2 08 00	 ret	 8
$LN2@GetValue:

; 657  : 	}
; 658  : 
; 659  : 	return FALSE;

  00031	33 c0		 xor	 eax, eax
  00033	5e		 pop	 esi

; 660  : }

  00034	5d		 pop	 ebp
  00035	c2 08 00	 ret	 8
?GetValue@i3IniParser@@QAEHPBDPAM@Z ENDP		; i3IniParser::GetValue
_TEXT	ENDS
; Function compile flags: /Ogtp
; File E:\Proyectos\JuegosOnlineproyectos\PB\pbblow\Piercing Blow Remake\i3Server\src\i3Base\i3IniParser.cpp
;	COMDAT ?GetValue@i3IniParser@@QAEHPBDPAI@Z
_TEXT	SEGMENT
_szLabel$ = 8						; size = 4
_nValue$ = 12						; size = 4
?GetValue@i3IniParser@@QAEHPBDPAI@Z PROC		; i3IniParser::GetValue, COMDAT
; _this$ = ecx

; 626  : {

  00000	55		 push	 ebp
  00001	8b ec		 mov	 ebp, esp
  00003	56		 push	 esi

; 627  : 	char* szBuf = m_szTemp;
; 628  : 
; 629  : 	if (GetValue(szLabel, szBuf, I3_INI_VALUE_SIZE))

  00004	68 00 01 00 00	 push	 256			; 00000100H
  00009	8d 71 10	 lea	 esi, DWORD PTR [ecx+16]
  0000c	56		 push	 esi
  0000d	ff 75 08	 push	 DWORD PTR _szLabel$[ebp]
  00010	e8 00 00 00 00	 call	 ?GetValue@i3IniParser@@QAEHPBDPADH@Z ; i3IniParser::GetValue
  00015	85 c0		 test	 eax, eax
  00017	0f 84 8a 00 00
	00		 je	 $LN2@GetValue

; 630  : 	{
; 631  : 		if ((i3String::NCompare(szBuf, "T", 1) == 0) || (i3String::NCompare(szBuf, "Y", 1) == 0))

  0001d	6a 01		 push	 1
  0001f	68 00 00 00 00	 push	 OFFSET ??_C@_01GAPBHFFA@T@
  00024	56		 push	 esi
  00025	e8 00 00 00 00	 call	 ?NCompare@i3String@@YAHPBD0H@Z ; i3String::NCompare
  0002a	83 c4 0c	 add	 esp, 12			; 0000000cH
  0002d	85 c0		 test	 eax, eax
  0002f	74 65		 je	 SHORT $LN5@GetValue
  00031	6a 01		 push	 1
  00033	68 00 00 00 00	 push	 OFFSET ??_C@_01NFFPALBN@Y@
  00038	56		 push	 esi
  00039	e8 00 00 00 00	 call	 ?NCompare@i3String@@YAHPBD0H@Z ; i3String::NCompare
  0003e	83 c4 0c	 add	 esp, 12			; 0000000cH
  00041	85 c0		 test	 eax, eax
  00043	74 51		 je	 SHORT $LN5@GetValue

; 632  : 		{
; 633  : 			*nValue = TRUE;
; 634  : 		}
; 635  : 		else if ((i3String::NCompare(szBuf, "F", 1) == 0) || (i3String::NCompare(szBuf, "N", 1) == 0))

  00045	6a 01		 push	 1
  00047	68 00 00 00 00	 push	 OFFSET ??_C@_01BIAFAFID@F@
  0004c	56		 push	 esi
  0004d	e8 00 00 00 00	 call	 ?NCompare@i3String@@YAHPBD0H@Z ; i3String::NCompare
  00052	83 c4 0c	 add	 esp, 12			; 0000000cH
  00055	85 c0		 test	 eax, eax
  00057	74 2e		 je	 SHORT $LN8@GetValue
  00059	6a 01		 push	 1
  0005b	68 00 00 00 00	 push	 OFFSET ??_C@_01NANMIPIL@N@
  00060	56		 push	 esi
  00061	e8 00 00 00 00	 call	 ?NCompare@i3String@@YAHPBD0H@Z ; i3String::NCompare
  00066	83 c4 0c	 add	 esp, 12			; 0000000cH
  00069	85 c0		 test	 eax, eax
  0006b	74 1a		 je	 SHORT $LN8@GetValue

; 636  : 		{
; 637  : 			*nValue = FALSE;
; 638  : 		}
; 639  : 		else
; 640  : 		{
; 641  : 			*nValue = i3String::ToInt(szBuf);

  0006d	56		 push	 esi
  0006e	e8 00 00 00 00	 call	 ?ToInt@i3String@@YAHPBD@Z ; i3String::ToInt
  00073	8b c8		 mov	 ecx, eax
  00075	83 c4 04	 add	 esp, 4

; 642  : 		}
; 643  : 		return TRUE;

  00078	8b 45 0c	 mov	 eax, DWORD PTR _nValue$[ebp]
  0007b	5e		 pop	 esi
  0007c	89 08		 mov	 DWORD PTR [eax], ecx
  0007e	b8 01 00 00 00	 mov	 eax, 1

; 647  : }

  00083	5d		 pop	 ebp
  00084	c2 08 00	 ret	 8
$LN8@GetValue:

; 642  : 		}
; 643  : 		return TRUE;

  00087	8b 45 0c	 mov	 eax, DWORD PTR _nValue$[ebp]
  0008a	33 c9		 xor	 ecx, ecx
  0008c	5e		 pop	 esi
  0008d	89 08		 mov	 DWORD PTR [eax], ecx
  0008f	8d 41 01	 lea	 eax, DWORD PTR [ecx+1]

; 647  : }

  00092	5d		 pop	 ebp
  00093	c2 08 00	 ret	 8
$LN5@GetValue:

; 642  : 		}
; 643  : 		return TRUE;

  00096	8b 45 0c	 mov	 eax, DWORD PTR _nValue$[ebp]
  00099	b9 01 00 00 00	 mov	 ecx, 1
  0009e	5e		 pop	 esi
  0009f	89 08		 mov	 DWORD PTR [eax], ecx
  000a1	8b c1		 mov	 eax, ecx

; 647  : }

  000a3	5d		 pop	 ebp
  000a4	c2 08 00	 ret	 8
$LN2@GetValue:

; 644  : 	}
; 645  : 
; 646  : 	return FALSE;

  000a7	33 c0		 xor	 eax, eax
  000a9	5e		 pop	 esi

; 647  : }

  000aa	5d		 pop	 ebp
  000ab	c2 08 00	 ret	 8
?GetValue@i3IniParser@@QAEHPBDPAI@Z ENDP		; i3IniParser::GetValue
_TEXT	ENDS
; Function compile flags: /Ogtp
; File E:\Proyectos\JuegosOnlineproyectos\PB\pbblow\Piercing Blow Remake\i3Server\src\i3Base\i3IniParser.cpp
;	COMDAT ?GetValue@i3IniParser@@QAEHPBDPAH@Z
_TEXT	SEGMENT
_szLabel$ = 8						; size = 4
_nValue$ = 12						; size = 4
?GetValue@i3IniParser@@QAEHPBDPAH@Z PROC		; i3IniParser::GetValue, COMDAT
; _this$ = ecx

; 602  : {

  00000	55		 push	 ebp
  00001	8b ec		 mov	 ebp, esp
  00003	56		 push	 esi

; 603  : 	char* szBuf = m_szTemp;
; 604  : 
; 605  : 	if (GetValue(szLabel, szBuf, I3_INI_VALUE_SIZE))

  00004	68 00 01 00 00	 push	 256			; 00000100H
  00009	8d 71 10	 lea	 esi, DWORD PTR [ecx+16]
  0000c	56		 push	 esi
  0000d	ff 75 08	 push	 DWORD PTR _szLabel$[ebp]
  00010	e8 00 00 00 00	 call	 ?GetValue@i3IniParser@@QAEHPBDPADH@Z ; i3IniParser::GetValue
  00015	85 c0		 test	 eax, eax
  00017	0f 84 8a 00 00
	00		 je	 $LN2@GetValue

; 606  : 	{
; 607  : 		if ((i3String::NCompare(szBuf, "T", 1) == 0) || (i3String::NCompare(szBuf, "Y", 1) == 0))

  0001d	6a 01		 push	 1
  0001f	68 00 00 00 00	 push	 OFFSET ??_C@_01GAPBHFFA@T@
  00024	56		 push	 esi
  00025	e8 00 00 00 00	 call	 ?NCompare@i3String@@YAHPBD0H@Z ; i3String::NCompare
  0002a	83 c4 0c	 add	 esp, 12			; 0000000cH
  0002d	85 c0		 test	 eax, eax
  0002f	74 65		 je	 SHORT $LN5@GetValue
  00031	6a 01		 push	 1
  00033	68 00 00 00 00	 push	 OFFSET ??_C@_01NFFPALBN@Y@
  00038	56		 push	 esi
  00039	e8 00 00 00 00	 call	 ?NCompare@i3String@@YAHPBD0H@Z ; i3String::NCompare
  0003e	83 c4 0c	 add	 esp, 12			; 0000000cH
  00041	85 c0		 test	 eax, eax
  00043	74 51		 je	 SHORT $LN5@GetValue

; 608  : 		{
; 609  : 			*nValue = TRUE;
; 610  : 		}
; 611  : 		else if ((i3String::NCompare(szBuf, "F", 1) == 0) || (i3String::NCompare(szBuf, "N", 1) == 0))

  00045	6a 01		 push	 1
  00047	68 00 00 00 00	 push	 OFFSET ??_C@_01BIAFAFID@F@
  0004c	56		 push	 esi
  0004d	e8 00 00 00 00	 call	 ?NCompare@i3String@@YAHPBD0H@Z ; i3String::NCompare
  00052	83 c4 0c	 add	 esp, 12			; 0000000cH
  00055	85 c0		 test	 eax, eax
  00057	74 2e		 je	 SHORT $LN8@GetValue
  00059	6a 01		 push	 1
  0005b	68 00 00 00 00	 push	 OFFSET ??_C@_01NANMIPIL@N@
  00060	56		 push	 esi
  00061	e8 00 00 00 00	 call	 ?NCompare@i3String@@YAHPBD0H@Z ; i3String::NCompare
  00066	83 c4 0c	 add	 esp, 12			; 0000000cH
  00069	85 c0		 test	 eax, eax
  0006b	74 1a		 je	 SHORT $LN8@GetValue

; 612  : 		{
; 613  : 			*nValue = FALSE;
; 614  : 		}
; 615  : 		else
; 616  : 		{
; 617  : 			*nValue = i3String::ToInt(szBuf);

  0006d	56		 push	 esi
  0006e	e8 00 00 00 00	 call	 ?ToInt@i3String@@YAHPBD@Z ; i3String::ToInt
  00073	8b c8		 mov	 ecx, eax
  00075	83 c4 04	 add	 esp, 4

; 618  : 		}
; 619  : 		return TRUE;

  00078	8b 45 0c	 mov	 eax, DWORD PTR _nValue$[ebp]
  0007b	5e		 pop	 esi
  0007c	89 08		 mov	 DWORD PTR [eax], ecx
  0007e	b8 01 00 00 00	 mov	 eax, 1

; 623  : }

  00083	5d		 pop	 ebp
  00084	c2 08 00	 ret	 8
$LN8@GetValue:

; 618  : 		}
; 619  : 		return TRUE;

  00087	8b 45 0c	 mov	 eax, DWORD PTR _nValue$[ebp]
  0008a	33 c9		 xor	 ecx, ecx
  0008c	5e		 pop	 esi
  0008d	89 08		 mov	 DWORD PTR [eax], ecx
  0008f	8d 41 01	 lea	 eax, DWORD PTR [ecx+1]

; 623  : }

  00092	5d		 pop	 ebp
  00093	c2 08 00	 ret	 8
$LN5@GetValue:

; 618  : 		}
; 619  : 		return TRUE;

  00096	8b 45 0c	 mov	 eax, DWORD PTR _nValue$[ebp]
  00099	b9 01 00 00 00	 mov	 ecx, 1
  0009e	5e		 pop	 esi
  0009f	89 08		 mov	 DWORD PTR [eax], ecx
  000a1	8b c1		 mov	 eax, ecx

; 623  : }

  000a3	5d		 pop	 ebp
  000a4	c2 08 00	 ret	 8
$LN2@GetValue:

; 620  : 	}
; 621  : 
; 622  : 	return FALSE;

  000a7	33 c0		 xor	 eax, eax
  000a9	5e		 pop	 esi

; 623  : }

  000aa	5d		 pop	 ebp
  000ab	c2 08 00	 ret	 8
?GetValue@i3IniParser@@QAEHPBDPAH@Z ENDP		; i3IniParser::GetValue
_TEXT	ENDS
; Function compile flags: /Ogtp
; File E:\Proyectos\JuegosOnlineproyectos\PB\pbblow\Piercing Blow Remake\i3Server\src\i3Base\i3IniParser.cpp
;	COMDAT ?GetValue@i3IniParser@@QAEHPBDPADH@Z
_TEXT	SEGMENT
_szLabel$ = 8						; size = 4
_Value$ = 12						; size = 4
_nBufLength$ = 16					; size = 4
?GetValue@i3IniParser@@QAEHPBDPADH@Z PROC		; i3IniParser::GetValue, COMDAT
; _this$ = ecx

; 563  : {

  00000	55		 push	 ebp
  00001	8b ec		 mov	 ebp, esp
  00003	57		 push	 edi
  00004	8b f9		 mov	 edi, ecx

; 564  : 	if (m_pValueTable == NULL)

  00006	83 bf a0 02 00
	00 00		 cmp	 DWORD PTR [edi+672], 0
  0000d	75 2a		 jne	 SHORT $LN5@GetValue

; 565  : 	{
; 566  : 		I3WARN("Value Table is not exist.\n");

  0000f	6a 01		 push	 1
  00011	68 00 00 00 00	 push	 OFFSET ??_C@_0DO@IJEJHCOG@int?5__thiscall?5i3IniParser?3?3Get@
  00016	68 36 02 00 00	 push	 566			; 00000236H
  0001b	68 00 00 00 00	 push	 OFFSET ??_C@_0GG@LIGOM@E?3?2Proyectos?2JuegosOnlineproyec@
  00020	e8 00 00 00 00	 call	 ?SetEnv@i3Error@@YAXPBDH0W4I3LOG_TYPE@@@Z ; i3Error::SetEnv
  00025	68 00 00 00 00	 push	 OFFSET ??_C@_0BL@IJNEAJGP@Value?5Table?5is?5not?5exist?4?6@
  0002a	e8 00 00 00 00	 call	 ?Log@i3Error@@YAXPBDZZ	; i3Error::Log
  0002f	83 c4 14	 add	 esp, 20			; 00000014H

; 567  : 		//I3TRACE( "%s : Value Table is not exist.\n", __FUNCTION__ );
; 568  : 		return FALSE;

  00032	33 c0		 xor	 eax, eax
  00034	5f		 pop	 edi

; 599  : }

  00035	5d		 pop	 ebp
  00036	c2 0c 00	 ret	 12			; 0000000cH
$LN5@GetValue:

; 569  : 	}
; 570  : 
; 571  : 	if (nBufLength == 0)

  00039	83 7d 10 00	 cmp	 DWORD PTR _nBufLength$[ebp], 0
  0003d	75 2a		 jne	 SHORT $LN6@GetValue

; 572  : 	{
; 573  : 		I3WARN("nBufLength is zero. \n");

  0003f	6a 01		 push	 1
  00041	68 00 00 00 00	 push	 OFFSET ??_C@_0DO@IJEJHCOG@int?5__thiscall?5i3IniParser?3?3Get@
  00046	68 3d 02 00 00	 push	 573			; 0000023dH
  0004b	68 00 00 00 00	 push	 OFFSET ??_C@_0GG@LIGOM@E?3?2Proyectos?2JuegosOnlineproyec@
  00050	e8 00 00 00 00	 call	 ?SetEnv@i3Error@@YAXPBDH0W4I3LOG_TYPE@@@Z ; i3Error::SetEnv
  00055	68 00 00 00 00	 push	 OFFSET ??_C@_0BG@NIGHIBJ@nBufLength?5is?5zero?4?5?6@
  0005a	e8 00 00 00 00	 call	 ?Log@i3Error@@YAXPBDZZ	; i3Error::Log
  0005f	83 c4 14	 add	 esp, 20			; 00000014H

; 574  : 		//I3TRACE( "%s : nBufLength is zero.\n", __FUNCTION__ );
; 575  : 		return FALSE;

  00062	33 c0		 xor	 eax, eax
  00064	5f		 pop	 edi

; 599  : }

  00065	5d		 pop	 ebp
  00066	c2 0c 00	 ret	 12			; 0000000cH
$LN6@GetValue:
  00069	53		 push	 ebx
  0006a	56		 push	 esi

; 576  : 	}
; 577  : 
; 578  : 	UINT32 i;
; 579  : 	for (i = 0; i < m_nNumValues; i++)

  0006b	33 f6		 xor	 esi, esi
  0006d	39 b7 a4 02 00
	00		 cmp	 DWORD PTR [edi+676], esi
  00073	76 32		 jbe	 SHORT $LN3@GetValue
  00075	eb 09 8d a4 24
	00 00 00 00 8b
	ff		 npad	 11
$LL4@GetValue:

; 580  : 	{
; 581  : 		if (i3String::Compare(szLabel, m_pValueTable[i].szLabel) == 0)

  00080	8b 87 a0 02 00
	00		 mov	 eax, DWORD PTR [edi+672]
  00086	69 de 84 01 00
	00		 imul	 ebx, esi, 388
  0008c	03 c3		 add	 eax, ebx
  0008e	50		 push	 eax
  0008f	ff 75 08	 push	 DWORD PTR _szLabel$[ebp]
  00092	e8 00 00 00 00	 call	 ?Compare@i3String@@YAHPBD0@Z ; i3String::Compare
  00097	83 c4 08	 add	 esp, 8
  0009a	85 c0		 test	 eax, eax
  0009c	74 12		 je	 SHORT $LN14@GetValue

; 576  : 	}
; 577  : 
; 578  : 	UINT32 i;
; 579  : 	for (i = 0; i < m_nNumValues; i++)

  0009e	46		 inc	 esi
  0009f	3b b7 a4 02 00
	00		 cmp	 esi, DWORD PTR [edi+676]
  000a5	72 d9		 jb	 SHORT $LL4@GetValue
$LN3@GetValue:
  000a7	5e		 pop	 esi
  000a8	5b		 pop	 ebx

; 593  : 			}
; 594  : 		}
; 595  : 	}
; 596  : 
; 597  : 	//I3TRACE( "%s : Could not find the label named '%s'.\n", __FUNCTION__, szLabel );
; 598  : 	return FALSE;

  000a9	33 c0		 xor	 eax, eax
  000ab	5f		 pop	 edi

; 599  : }

  000ac	5d		 pop	 ebp
  000ad	c2 0c 00	 ret	 12			; 0000000cH
$LN14@GetValue:

; 582  : 		{
; 583  : 			if ((nBufLength > 0) && (nBufLength <= m_pValueTable[i].nLength))

  000b0	8b 4d 10	 mov	 ecx, DWORD PTR _nBufLength$[ebp]
  000b3	85 c9		 test	 ecx, ecx
  000b5	7e 3b		 jle	 SHORT $LN21@GetValue
  000b7	8b 87 a0 02 00
	00		 mov	 eax, DWORD PTR [edi+672]
  000bd	3b 8c 18 80 01
	00 00		 cmp	 ecx, DWORD PTR [eax+ebx+384]
  000c4	7f 2c		 jg	 SHORT $LN21@GetValue

; 584  : 			{
; 585  : 				I3WARN("nBufLength is too short. \n");

  000c6	6a 01		 push	 1
  000c8	68 00 00 00 00	 push	 OFFSET ??_C@_0DO@IJEJHCOG@int?5__thiscall?5i3IniParser?3?3Get@
  000cd	68 49 02 00 00	 push	 585			; 00000249H
  000d2	68 00 00 00 00	 push	 OFFSET ??_C@_0GG@LIGOM@E?3?2Proyectos?2JuegosOnlineproyec@
  000d7	e8 00 00 00 00	 call	 ?SetEnv@i3Error@@YAXPBDH0W4I3LOG_TYPE@@@Z ; i3Error::SetEnv
  000dc	68 00 00 00 00	 push	 OFFSET ??_C@_0BL@OBHDNFFG@nBufLength?5is?5too?5short?4?5?6@
  000e1	e8 00 00 00 00	 call	 ?Log@i3Error@@YAXPBDZZ	; i3Error::Log
  000e6	83 c4 14	 add	 esp, 20			; 00000014H

; 593  : 			}
; 594  : 		}
; 595  : 	}
; 596  : 
; 597  : 	//I3TRACE( "%s : Could not find the label named '%s'.\n", __FUNCTION__, szLabel );
; 598  : 	return FALSE;

  000e9	33 c0		 xor	 eax, eax
  000eb	5e		 pop	 esi
  000ec	5b		 pop	 ebx
  000ed	5f		 pop	 edi

; 599  : }

  000ee	5d		 pop	 ebp
  000ef	c2 0c 00	 ret	 12			; 0000000cH
$LN21@GetValue:

; 586  : 				//I3TRACE( "%s : nBufLength is too short. (szLabel = %s)\n", __FUNCTION__, szLabel  );
; 587  : 				return FALSE;
; 588  : 			}
; 589  : 			else
; 590  : 			{
; 591  : 				strcpy(Value, m_pValueTable[i].szValue);

  000f2	8b 8f a0 02 00
	00		 mov	 ecx, DWORD PTR [edi+672]
  000f8	8b 55 0c	 mov	 edx, DWORD PTR _Value$[ebp]
  000fb	83 e9 80	 sub	 ecx, -128		; ffffff80H
  000fe	03 cb		 add	 ecx, ebx
$LL11@GetValue:
  00100	8a 01		 mov	 al, BYTE PTR [ecx]
  00102	8d 49 01	 lea	 ecx, DWORD PTR [ecx+1]
  00105	88 02		 mov	 BYTE PTR [edx], al
  00107	8d 52 01	 lea	 edx, DWORD PTR [edx+1]
  0010a	84 c0		 test	 al, al
  0010c	75 f2		 jne	 SHORT $LL11@GetValue

; 592  : 				return TRUE;

  0010e	5e		 pop	 esi
  0010f	5b		 pop	 ebx
  00110	b8 01 00 00 00	 mov	 eax, 1
  00115	5f		 pop	 edi

; 599  : }

  00116	5d		 pop	 ebp
  00117	c2 0c 00	 ret	 12			; 0000000cH
?GetValue@i3IniParser@@QAEHPBDPADH@Z ENDP		; i3IniParser::GetValue
_TEXT	ENDS
; Function compile flags: /Ogtp
; File E:\Proyectos\JuegosOnlineproyectos\PB\pbblow\Piercing Blow Remake\i3Server\src\i3Base\i3IniParser.cpp
;	COMDAT ?GetStringValue@i3IniParser@@QAEPBDPBD@Z
_TEXT	SEGMENT
_szLabel$ = 8						; size = 4
?GetStringValue@i3IniParser@@QAEPBDPBD@Z PROC		; i3IniParser::GetStringValue, COMDAT
; _this$ = ecx

; 541  : {

  00000	55		 push	 ebp
  00001	8b ec		 mov	 ebp, esp
  00003	57		 push	 edi
  00004	8b f9		 mov	 edi, ecx

; 542  : 	if (m_pValueTable == NULL)

  00006	83 bf a0 02 00
	00 00		 cmp	 DWORD PTR [edi+672], 0
  0000d	75 2a		 jne	 SHORT $LN5@GetStringV

; 543  : 	{
; 544  : 		I3WARN("Value Table is not exist. \n");

  0000f	6a 01		 push	 1
  00011	68 00 00 00 00	 push	 OFFSET ??_C@_0EB@LPNLFBLF@const?5char?5?$CK__thiscall?5i3IniPar@
  00016	68 20 02 00 00	 push	 544			; 00000220H
  0001b	68 00 00 00 00	 push	 OFFSET ??_C@_0GG@LIGOM@E?3?2Proyectos?2JuegosOnlineproyec@
  00020	e8 00 00 00 00	 call	 ?SetEnv@i3Error@@YAXPBDH0W4I3LOG_TYPE@@@Z ; i3Error::SetEnv
  00025	68 00 00 00 00	 push	 OFFSET ??_C@_0BM@BCLBIDHM@Value?5Table?5is?5not?5exist?4?5?6@
  0002a	e8 00 00 00 00	 call	 ?Log@i3Error@@YAXPBDZZ	; i3Error::Log
  0002f	83 c4 14	 add	 esp, 20			; 00000014H

; 545  : 		//I3TRACE( "%s : Value Table is not exist.\n", __FUNCTION__ );
; 546  : 		return NULL;

  00032	33 c0		 xor	 eax, eax
  00034	5f		 pop	 edi

; 560  : }

  00035	5d		 pop	 ebp
  00036	c2 04 00	 ret	 4
$LN5@GetStringV:
  00039	53		 push	 ebx
  0003a	56		 push	 esi

; 547  : 	}
; 548  : 
; 549  : 	UINT32 i;
; 550  : 	for (i = 0; i < m_nNumValues; i++)

  0003b	33 f6		 xor	 esi, esi
  0003d	39 b7 a4 02 00
	00		 cmp	 DWORD PTR [edi+676], esi
  00043	76 32		 jbe	 SHORT $LN3@GetStringV
  00045	eb 09 8d a4 24
	00 00 00 00 8b
	ff		 npad	 11
$LL4@GetStringV:

; 551  : 	{
; 552  : 		if (i3String::Compare(szLabel, m_pValueTable[i].szLabel) == 0)

  00050	8b 87 a0 02 00
	00		 mov	 eax, DWORD PTR [edi+672]
  00056	69 de 84 01 00
	00		 imul	 ebx, esi, 388
  0005c	03 c3		 add	 eax, ebx
  0005e	50		 push	 eax
  0005f	ff 75 08	 push	 DWORD PTR _szLabel$[ebp]
  00062	e8 00 00 00 00	 call	 ?Compare@i3String@@YAHPBD0@Z ; i3String::Compare
  00067	83 c4 08	 add	 esp, 8
  0006a	85 c0		 test	 eax, eax
  0006c	74 12		 je	 SHORT $LN9@GetStringV

; 547  : 	}
; 548  : 
; 549  : 	UINT32 i;
; 550  : 	for (i = 0; i < m_nNumValues; i++)

  0006e	46		 inc	 esi
  0006f	3b b7 a4 02 00
	00		 cmp	 esi, DWORD PTR [edi+676]
  00075	72 d9		 jb	 SHORT $LL4@GetStringV
$LN3@GetStringV:
  00077	5e		 pop	 esi
  00078	5b		 pop	 ebx

; 555  : 		}
; 556  : 	}
; 557  : 
; 558  : 	//I3TRACE( "%s : Could not find the label named '%s'.\n", __FUNCTION__, szLabel );
; 559  : 	return NULL;

  00079	33 c0		 xor	 eax, eax
  0007b	5f		 pop	 edi

; 560  : }

  0007c	5d		 pop	 ebp
  0007d	c2 04 00	 ret	 4
$LN9@GetStringV:

; 553  : 		{
; 554  : 			return m_pValueTable[i].szValue;

  00080	8b 87 a0 02 00
	00		 mov	 eax, DWORD PTR [edi+672]
  00086	83 e8 80	 sub	 eax, -128		; ffffff80H
  00089	5e		 pop	 esi
  0008a	03 c3		 add	 eax, ebx
  0008c	5b		 pop	 ebx
  0008d	5f		 pop	 edi

; 560  : }

  0008e	5d		 pop	 ebp
  0008f	c2 04 00	 ret	 4
?GetStringValue@i3IniParser@@QAEPBDPBD@Z ENDP		; i3IniParser::GetStringValue
_TEXT	ENDS
; Function compile flags: /Ogtp
; File E:\Proyectos\JuegosOnlineproyectos\PB\pbblow\Piercing Blow Remake\i3Server\include\i3Base\i3IniParser.h
;	COMDAT ?GetValueByIndex@i3IniParser@@QAEPAUi3IniValue@@H@Z
_TEXT	SEGMENT
_nIndex$ = 8						; size = 4
?GetValueByIndex@i3IniParser@@QAEPAUi3IniValue@@H@Z PROC ; i3IniParser::GetValueByIndex, COMDAT
; _this$ = ecx

; 91   : 	i3IniValue* GetValueByIndex(INT32 nIndex) { return &m_pValueTable[nIndex]; }

  00000	55		 push	 ebp
  00001	8b ec		 mov	 ebp, esp
  00003	69 45 08 84 01
	00 00		 imul	 eax, DWORD PTR _nIndex$[ebp], 388
  0000a	03 81 a0 02 00
	00		 add	 eax, DWORD PTR [ecx+672]
  00010	5d		 pop	 ebp
  00011	c2 04 00	 ret	 4
?GetValueByIndex@i3IniParser@@QAEPAUi3IniValue@@H@Z ENDP ; i3IniParser::GetValueByIndex
_TEXT	ENDS
; Function compile flags: /Ogtp
; File E:\Proyectos\JuegosOnlineproyectos\PB\pbblow\Piercing Blow Remake\i3Server\include\i3Base\i3IniParser.h
;	COMDAT ?GetValueCount@i3IniParser@@QAEIXZ
_TEXT	SEGMENT
?GetValueCount@i3IniParser@@QAEIXZ PROC			; i3IniParser::GetValueCount, COMDAT
; _this$ = ecx

; 90   : 	UINT32 GetValueCount() { return m_nNumValues; }

  00000	8b 81 a4 02 00
	00		 mov	 eax, DWORD PTR [ecx+676]
  00006	c3		 ret	 0
?GetValueCount@i3IniParser@@QAEIXZ ENDP			; i3IniParser::GetValueCount
_TEXT	ENDS
; Function compile flags: /Ogtp
; File E:\Proyectos\JuegosOnlineproyectos\PB\pbblow\Piercing Blow Remake\i3Server\src\i3Base\i3IniParser.cpp
; File C:\Program Files (x86)\Windows Kits\10\Include\10.0.26100.0\ucrt\string.h
; File E:\Proyectos\JuegosOnlineproyectos\PB\pbblow\Piercing Blow Remake\i3Server\src\i3Base\i3IniParser.cpp
;	COMDAT ?ReadSectionByInfo@i3IniParser@@QAEHPAUi3IniSectionInfo@@@Z
_TEXT	SEGMENT
_pInfo$GSCopy$1$ = -2060				; size = 4
_i$1$ = -2056						; size = 4
_szReadBuf$ = -2052					; size = 1024
_szBuf$ = -1028						; size = 1024
__$ArrayPad$ = -4					; size = 4
_pInfo$ = 8						; size = 4
?ReadSectionByInfo@i3IniParser@@QAEHPAUi3IniSectionInfo@@@Z PROC ; i3IniParser::ReadSectionByInfo, COMDAT
; _this$ = ecx

; 441  : {

  00000	55		 push	 ebp
  00001	8b ec		 mov	 ebp, esp
  00003	81 ec 0c 08 00
	00		 sub	 esp, 2060		; 0000080cH
  00009	a1 00 00 00 00	 mov	 eax, DWORD PTR ___security_cookie
  0000e	33 c5		 xor	 eax, ebp
  00010	89 45 fc	 mov	 DWORD PTR __$ArrayPad$[ebp], eax
  00013	53		 push	 ebx
  00014	8b d9		 mov	 ebx, ecx
  00016	56		 push	 esi
  00017	8b 75 08	 mov	 esi, DWORD PTR _pInfo$[ebp]

; 442  : 	m_szSectionName[0] = 0;

  0001a	8d 8b 20 02 00
	00		 lea	 ecx, DWORD PTR [ebx+544]
  00020	89 b5 f4 f7 ff
	ff		 mov	 DWORD PTR _pInfo$GSCopy$1$[ebp], esi

; 443  : 
; 444  : 	if (m_pStream == NULL)

  00026	83 bb 18 02 00
	00 00		 cmp	 DWORD PTR [ebx+536], 0
  0002d	c6 01 00	 mov	 BYTE PTR [ecx], 0
  00030	75 37		 jne	 SHORT $LN5@ReadSectio

; 445  : 	{
; 446  : 		I3WARN("m_pStream is NULL.\n");

  00032	6a 01		 push	 1
  00034	68 00 00 00 00	 push	 OFFSET ??_C@_0EJ@KOPGLENC@int?5__thiscall?5i3IniParser?3?3Rea@
  00039	68 be 01 00 00	 push	 446			; 000001beH
  0003e	68 00 00 00 00	 push	 OFFSET ??_C@_0GG@LIGOM@E?3?2Proyectos?2JuegosOnlineproyec@
  00043	e8 00 00 00 00	 call	 ?SetEnv@i3Error@@YAXPBDH0W4I3LOG_TYPE@@@Z ; i3Error::SetEnv
  00048	68 00 00 00 00	 push	 OFFSET ??_C@_0BE@DLJIIAFH@m_pStream?5is?5NULL?4?6@
  0004d	e8 00 00 00 00	 call	 ?Log@i3Error@@YAXPBDZZ	; i3Error::Log
  00052	83 c4 14	 add	 esp, 20			; 00000014H

; 447  : 		I3TRACE( "ERROR : [%s] m_pStream is NULL.\n", __FUNCTION__ );
; 448  : 		return FALSE;

  00055	33 c0		 xor	 eax, eax
  00057	5e		 pop	 esi

; 535  : 	}
; 536  : 
; 537  : 	return TRUE;
; 538  : }

  00058	5b		 pop	 ebx
  00059	8b 4d fc	 mov	 ecx, DWORD PTR __$ArrayPad$[ebp]
  0005c	33 cd		 xor	 ecx, ebp
  0005e	e8 00 00 00 00	 call	 @__security_check_cookie@4
  00063	8b e5		 mov	 esp, ebp
  00065	5d		 pop	 ebp
  00066	c2 04 00	 ret	 4
$LN5@ReadSectio:

; 449  : 	}
; 450  : 
; 451  : 	if (pInfo == NULL)

  00069	85 f6		 test	 esi, esi
  0006b	0f 85 92 00 00
	00		 jne	 $LN6@ReadSectio

; 452  : 	{
; 453  : 		I3WARN("pInfo is NULL.\n");

  00071	6a 01		 push	 1
  00073	68 00 00 00 00	 push	 OFFSET ??_C@_0EJ@KOPGLENC@int?5__thiscall?5i3IniParser?3?3Rea@
  00078	68 c5 01 00 00	 push	 453			; 000001c5H
  0007d	68 00 00 00 00	 push	 OFFSET ??_C@_0GG@LIGOM@E?3?2Proyectos?2JuegosOnlineproyec@
  00082	e8 00 00 00 00	 call	 ?SetEnv@i3Error@@YAXPBDH0W4I3LOG_TYPE@@@Z ; i3Error::SetEnv
  00087	68 00 00 00 00	 push	 OFFSET ??_C@_0BA@JEIBDMBE@pInfo?5is?5NULL?4?6@
  0008c	e8 00 00 00 00	 call	 ?Log@i3Error@@YAXPBDZZ	; i3Error::Log

; 454  : 		I3WARN( "ERROR : [%s] pInfo is NULL.\n", __FUNCTION__ );

  00091	6a 01		 push	 1
  00093	68 00 00 00 00	 push	 OFFSET ??_C@_0EJ@KOPGLENC@int?5__thiscall?5i3IniParser?3?3Rea@
  00098	68 c6 01 00 00	 push	 454			; 000001c6H
  0009d	68 00 00 00 00	 push	 OFFSET ??_C@_0GG@LIGOM@E?3?2Proyectos?2JuegosOnlineproyec@
  000a2	e8 00 00 00 00	 call	 ?SetEnv@i3Error@@YAXPBDH0W4I3LOG_TYPE@@@Z ; i3Error::SetEnv
  000a7	68 00 00 00 00	 push	 OFFSET ??_C@_0BP@CCBDLFBK@i3IniParser?3?3ReadSectionByInfo@
  000ac	68 00 00 00 00	 push	 OFFSET ??_C@_0BN@IFIOBCJG@ERROR?5?3?5?$FL?$CFs?$FN?5pInfo?5is?5NULL?4?6@
  000b1	e8 00 00 00 00	 call	 ?Log@i3Error@@YAXPBDZZ	; i3Error::Log

; 455  : 		I3WARN("ERROR: [ReadSectionByInfo] Section not found in '%s'\n", m_szi3INIFileNameExt[0] ? m_szi3INIFileNameExt : "Config.ini");

  000b6	6a 01		 push	 1
  000b8	68 00 00 00 00	 push	 OFFSET ??_C@_0EJ@KOPGLENC@int?5__thiscall?5i3IniParser?3?3Rea@
  000bd	68 c7 01 00 00	 push	 455			; 000001c7H
  000c2	68 00 00 00 00	 push	 OFFSET ??_C@_0GG@LIGOM@E?3?2Proyectos?2JuegosOnlineproyec@
  000c7	e8 00 00 00 00	 call	 ?SetEnv@i3Error@@YAXPBDH0W4I3LOG_TYPE@@@Z ; i3Error::SetEnv
  000cc	80 bb ad 03 00
	00 00		 cmp	 BYTE PTR [ebx+941], 0
  000d3	8d 83 ad 03 00
	00		 lea	 eax, DWORD PTR [ebx+941]
  000d9	b9 00 00 00 00	 mov	 ecx, OFFSET ??_C@_0L@LMGNLEPG@Config?4ini@
  000de	0f 45 c8	 cmovne	 ecx, eax
  000e1	51		 push	 ecx
  000e2	68 00 00 00 00	 push	 OFFSET ??_C@_0DG@CIBHBENN@ERROR?3?5?$FLReadSectionByInfo?$FN?5Sect@
  000e7	e8 00 00 00 00	 call	 ?Log@i3Error@@YAXPBDZZ	; i3Error::Log
  000ec	83 c4 44	 add	 esp, 68			; 00000044H

; 456  : 		return FALSE;

  000ef	33 c0		 xor	 eax, eax
  000f1	5e		 pop	 esi

; 535  : 	}
; 536  : 
; 537  : 	return TRUE;
; 538  : }

  000f2	5b		 pop	 ebx
  000f3	8b 4d fc	 mov	 ecx, DWORD PTR __$ArrayPad$[ebp]
  000f6	33 cd		 xor	 ecx, ebp
  000f8	e8 00 00 00 00	 call	 @__security_check_cookie@4
  000fd	8b e5		 mov	 esp, ebp
  000ff	5d		 pop	 ebp
  00100	c2 04 00	 ret	 4
$LN6@ReadSectio:

; 457  : 	}
; 458  : 
; 459  : 	strcpy(m_szSectionName, pInfo->Name);

  00103	8d 56 08	 lea	 edx, DWORD PTR [esi+8]
$LL19@ReadSectio:
  00106	8a 02		 mov	 al, BYTE PTR [edx]
  00108	8d 52 01	 lea	 edx, DWORD PTR [edx+1]
  0010b	88 01		 mov	 BYTE PTR [ecx], al
  0010d	8d 49 01	 lea	 ecx, DWORD PTR [ecx+1]
  00110	84 c0		 test	 al, al
  00112	75 f2		 jne	 SHORT $LL19@ReadSectio

; 460  : 
; 461  : 	// Value Table 준비
; 462  : 	I3MEM_SAFE_FREE_POINTER(m_pValueTable);

  00114	8b 83 a0 02 00
	00		 mov	 eax, DWORD PTR [ebx+672]
  0011a	85 c0		 test	 eax, eax
  0011c	74 1d		 je	 SHORT $LN7@ReadSectio
  0011e	68 ce 01 00 00	 push	 462			; 000001ceH
  00123	68 00 00 00 00	 push	 OFFSET ??_C@_0GG@LIGOM@E?3?2Proyectos?2JuegosOnlineproyec@
  00128	50		 push	 eax
  00129	e8 00 00 00 00	 call	 ?FreeTool@i3mem@@YAXPAXPBDH@Z ; i3mem::FreeTool
  0012e	83 c4 0c	 add	 esp, 12			; 0000000cH
  00131	c7 83 a0 02 00
	00 00 00 00 00	 mov	 DWORD PTR [ebx+672], 0
$LN7@ReadSectio:

; 463  : 	if (pInfo->NumLines <= 0)

  0013b	8b 46 04	 mov	 eax, DWORD PTR [esi+4]
  0013e	85 c0		 test	 eax, eax
  00140	0f 84 b3 01 00
	00		 je	 $LN3@ReadSectio

; 464  : 	{
; 465  : 		return TRUE;
; 466  : 	}
; 467  : 
; 468  : 	{
; 469  : 		//		I3HMEM hMem = i3MemAlloc( sizeof(i3IniValue) * pInfo->NumLines);
; 470  : 		m_pValueTable = (i3IniValue*)i3MemAlloc(sizeof(i3IniValue) * pInfo->NumLines);

  00146	68 d6 01 00 00	 push	 470			; 000001d6H
  0014b	68 00 00 00 00	 push	 OFFSET ??_C@_0GG@LIGOM@E?3?2Proyectos?2JuegosOnlineproyec@
  00150	69 c0 84 01 00
	00		 imul	 eax, eax, 388
  00156	6a 10		 push	 16			; 00000010H
  00158	6a 00		 push	 0
  0015a	50		 push	 eax
  0015b	e8 00 00 00 00	 call	 ?AllocTool@i3mem@@YAPAXHHHPBDH@Z ; i3mem::AllocTool

; 471  : 	}
; 472  : 
; 473  : 	char szReadBuf[1024];
; 474  : 	char szBuf[1024];
; 475  : 	UINT32 i;
; 476  : 
; 477  : 	// Section의 처음 위치로 이동
; 478  : 	m_pStream->SetPosition(pInfo->Position, STREAM_BEGIN);

  00160	8b 8b 18 02 00
	00		 mov	 ecx, DWORD PTR [ebx+536]
  00166	83 c4 14	 add	 esp, 20			; 00000014H
  00169	89 83 a0 02 00
	00		 mov	 DWORD PTR [ebx+672], eax
  0016f	8b 01		 mov	 eax, DWORD PTR [ecx]
  00171	6a 01		 push	 1
  00173	ff 36		 push	 DWORD PTR [esi]
  00175	ff 50 2c	 call	 DWORD PTR [eax+44]

; 479  : 
; 480  : 	m_nNumValues = 0;
; 481  : 
; 482  : 	for (i = 0; i < pInfo->NumLines; i++)

  00178	8b 85 f4 f7 ff
	ff		 mov	 eax, DWORD PTR _pInfo$GSCopy$1$[ebp]
  0017e	33 f6		 xor	 esi, esi
  00180	c7 83 a4 02 00
	00 00 00 00 00	 mov	 DWORD PTR [ebx+676], 0
  0018a	89 b5 f8 f7 ff
	ff		 mov	 DWORD PTR _i$1$[ebp], esi
  00190	39 70 04	 cmp	 DWORD PTR [eax+4], esi
  00193	0f 86 60 01 00
	00		 jbe	 $LN3@ReadSectio
  00199	57		 push	 edi
  0019a	8d 9b 00 00 00
	00		 npad	 6
$LL4@ReadSectio:

; 483  : 	{
; 484  : 		// 한줄 읽음
; 485  : 		_ReadLine(szReadBuf);

  001a0	8d 85 fc f7 ff
	ff		 lea	 eax, DWORD PTR _szReadBuf$[ebp]
  001a6	8b cb		 mov	 ecx, ebx
  001a8	50		 push	 eax
  001a9	e8 00 00 00 00	 call	 ?_ReadLine@i3IniParser@@IAEIPAD@Z ; i3IniParser::_ReadLine

; 486  : 
; 487  : 		RemoveWhiteSpace(szBuf, szReadBuf);

  001ae	8d 85 fc f7 ff
	ff		 lea	 eax, DWORD PTR _szReadBuf$[ebp]
  001b4	8b cb		 mov	 ecx, ebx
  001b6	50		 push	 eax
  001b7	8d 85 fc fb ff
	ff		 lea	 eax, DWORD PTR _szBuf$[ebp]
  001bd	50		 push	 eax
  001be	e8 00 00 00 00	 call	 ?RemoveWhiteSpace@i3IniParser@@IAEXPADPBD@Z ; i3IniParser::RemoveWhiteSpace

; 488  : 
; 489  : 		// 아무것도 없으면 스킵...
; 490  : 		if (szBuf[0] == '\0' || szBuf[0] == '=')

  001c3	8a 85 fc fb ff
	ff		 mov	 al, BYTE PTR _szBuf$[ebp]
  001c9	84 c0		 test	 al, al
  001cb	0f 84 11 01 00
	00		 je	 $LN2@ReadSectio
  001d1	3c 3d		 cmp	 al, 61			; 0000003dH
  001d3	0f 84 09 01 00
	00		 je	 $LN2@ReadSectio
; File C:\Program Files (x86)\Windows Kits\10\Include\10.0.26100.0\ucrt\string.h

; 502  :         return const_cast<char*>(strchr(static_cast<char const*>(_String), _Ch));

  001d9	8d 85 fc fb ff
	ff		 lea	 eax, DWORD PTR _szBuf$[ebp]
  001df	6a 3d		 push	 61			; 0000003dH
  001e1	50		 push	 eax
  001e2	e8 00 00 00 00	 call	 _strchr
  001e7	83 c4 08	 add	 esp, 8
; File E:\Proyectos\JuegosOnlineproyectos\PB\pbblow\Piercing Blow Remake\i3Server\src\i3Base\i3IniParser.cpp

; 497  : 		if (pSeperator == NULL)

  001ea	85 c0		 test	 eax, eax
  001ec	0f 84 f0 00 00
	00		 je	 $LN2@ReadSectio

; 498  : 		{
; 499  : 			continue;
; 500  : 		}
; 501  : 		*pSeperator = 0;
; 502  : 		char* pValue = pSeperator + 1;
; 503  : 
; 504  : 		// 라벨 길이 검사
; 505  : 		if (strlen(szBuf) >= I3_INI_NAME_SIZE)

  001f2	8d 8d fc fb ff
	ff		 lea	 ecx, DWORD PTR _szBuf$[ebp]
  001f8	c6 00 00	 mov	 BYTE PTR [eax], 0
  001fb	8d 78 01	 lea	 edi, DWORD PTR [eax+1]
  001fe	8d 51 01	 lea	 edx, DWORD PTR [ecx+1]
$LL38@ReadSectio:
  00201	8a 01		 mov	 al, BYTE PTR [ecx]
  00203	41		 inc	 ecx
  00204	84 c0		 test	 al, al
  00206	75 f9		 jne	 SHORT $LL38@ReadSectio
  00208	2b ca		 sub	 ecx, edx
  0020a	81 f9 80 00 00
	00		 cmp	 ecx, 128		; 00000080H
  00210	72 28		 jb	 SHORT $LN12@ReadSectio

; 506  : 		{
; 507  : 			// 너무 길면 스킵
; 508  : 			I3WARN("szLabel name is too long\n");

  00212	6a 01		 push	 1
  00214	68 00 00 00 00	 push	 OFFSET ??_C@_0EJ@KOPGLENC@int?5__thiscall?5i3IniParser?3?3Rea@
  00219	68 fc 01 00 00	 push	 508			; 000001fcH
  0021e	68 00 00 00 00	 push	 OFFSET ??_C@_0GG@LIGOM@E?3?2Proyectos?2JuegosOnlineproyec@
  00223	e8 00 00 00 00	 call	 ?SetEnv@i3Error@@YAXPBDH0W4I3LOG_TYPE@@@Z ; i3Error::SetEnv
  00228	68 00 00 00 00	 push	 OFFSET ??_C@_0BK@JNFPJABN@szLabel?5name?5is?5too?5long?6@
  0022d	e8 00 00 00 00	 call	 ?Log@i3Error@@YAXPBDZZ	; i3Error::Log
  00232	83 c4 14	 add	 esp, 20			; 00000014H

; 509  : 			//I3TRACE( "%s : szLabel name is too long (%s)\n", __FUNCTION__, szBuf );
; 510  : 			I3ASSERT_0;
; 511  : 			continue;

  00235	e9 a8 00 00 00	 jmp	 $LN2@ReadSectio
$LN12@ReadSectio:

; 512  : 		}
; 513  : 		else
; 514  : 		{
; 515  : 			INT32 nValueLength = strlen(pValue);

  0023a	8b c7		 mov	 eax, edi
  0023c	8d 50 01	 lea	 edx, DWORD PTR [eax+1]
  0023f	90		 npad	 1
$LL39@ReadSectio:
  00240	8a 08		 mov	 cl, BYTE PTR [eax]
  00242	40		 inc	 eax
  00243	84 c9		 test	 cl, cl
  00245	75 f9		 jne	 SHORT $LL39@ReadSectio
  00247	2b c2		 sub	 eax, edx

; 516  : 
; 517  : 			// 값의 길이 검사
; 518  : 			if (nValueLength >= I3_INI_VALUE_SIZE)

  00249	3d 00 01 00 00	 cmp	 eax, 256		; 00000100H
  0024e	7c 25		 jl	 SHORT $LN14@ReadSectio

; 519  : 			{
; 520  : 				// 너무 길면 스킵
; 521  : 				I3WARN("szLabel value string is too long \n");

  00250	6a 01		 push	 1
  00252	68 00 00 00 00	 push	 OFFSET ??_C@_0EJ@KOPGLENC@int?5__thiscall?5i3IniParser?3?3Rea@
  00257	68 09 02 00 00	 push	 521			; 00000209H
  0025c	68 00 00 00 00	 push	 OFFSET ??_C@_0GG@LIGOM@E?3?2Proyectos?2JuegosOnlineproyec@
  00261	e8 00 00 00 00	 call	 ?SetEnv@i3Error@@YAXPBDH0W4I3LOG_TYPE@@@Z ; i3Error::SetEnv
  00266	68 00 00 00 00	 push	 OFFSET ??_C@_0CD@CHADIGIF@szLabel?5value?5string?5is?5too?5lon@
  0026b	e8 00 00 00 00	 call	 ?Log@i3Error@@YAXPBDZZ	; i3Error::Log
  00270	83 c4 14	 add	 esp, 20			; 00000014H

; 522  : 				//I3TRACE( "%s : szLabel value string is too long (%s)\n", __FUNCTION__, pValue );
; 523  : 				I3ASSERT_0;
; 524  : 				continue;

  00273	eb 6d		 jmp	 SHORT $LN2@ReadSectio
$LN14@ReadSectio:

; 525  : 			}
; 526  : 			else
; 527  : 			{
; 528  : 				// 라벨과 값 문자열 복사
; 529  : 				strcpy(m_pValueTable[m_nNumValues].szLabel, szBuf);

  00275	69 93 a4 02 00
	00 84 01 00 00	 imul	 edx, DWORD PTR [ebx+676], 388
  0027f	8d b5 fc fb ff
	ff		 lea	 esi, DWORD PTR _szBuf$[ebp]
  00285	03 93 a0 02 00
	00		 add	 edx, DWORD PTR [ebx+672]
  0028b	eb 03 8d 49 00	 npad	 5
$LL20@ReadSectio:
  00290	8a 0e		 mov	 cl, BYTE PTR [esi]
  00292	8d 76 01	 lea	 esi, DWORD PTR [esi+1]
  00295	88 0a		 mov	 BYTE PTR [edx], cl
  00297	8d 52 01	 lea	 edx, DWORD PTR [edx+1]
  0029a	84 c9		 test	 cl, cl
  0029c	75 f2		 jne	 SHORT $LL20@ReadSectio

; 530  : 				strcpy(m_pValueTable[m_nNumValues].szValue, pValue);

  0029e	69 93 a4 02 00
	00 84 01 00 00	 imul	 edx, DWORD PTR [ebx+676], 388
  002a8	83 ea 80	 sub	 edx, -128		; ffffff80H
  002ab	03 93 a0 02 00
	00		 add	 edx, DWORD PTR [ebx+672]
$LL21@ReadSectio:
  002b1	8a 0f		 mov	 cl, BYTE PTR [edi]
  002b3	8d 7f 01	 lea	 edi, DWORD PTR [edi+1]
  002b6	88 0a		 mov	 BYTE PTR [edx], cl
  002b8	8d 52 01	 lea	 edx, DWORD PTR [edx+1]
  002bb	84 c9		 test	 cl, cl
  002bd	75 f2		 jne	 SHORT $LL21@ReadSectio

; 531  : 				m_pValueTable[m_nNumValues].nLength = nValueLength;

  002bf	69 93 a4 02 00
	00 84 01 00 00	 imul	 edx, DWORD PTR [ebx+676], 388
  002c9	8b 8b a0 02 00
	00		 mov	 ecx, DWORD PTR [ebx+672]
  002cf	8b b5 f8 f7 ff
	ff		 mov	 esi, DWORD PTR _i$1$[ebp]
  002d5	89 84 0a 80 01
	00 00		 mov	 DWORD PTR [edx+ecx+384], eax

; 532  : 			}
; 533  : 		}
; 534  : 		m_nNumValues++;

  002dc	ff 83 a4 02 00
	00		 inc	 DWORD PTR [ebx+676]
$LN2@ReadSectio:

; 479  : 
; 480  : 	m_nNumValues = 0;
; 481  : 
; 482  : 	for (i = 0; i < pInfo->NumLines; i++)

  002e2	8b 85 f4 f7 ff
	ff		 mov	 eax, DWORD PTR _pInfo$GSCopy$1$[ebp]
  002e8	46		 inc	 esi
  002e9	89 b5 f8 f7 ff
	ff		 mov	 DWORD PTR _i$1$[ebp], esi
  002ef	3b 70 04	 cmp	 esi, DWORD PTR [eax+4]
  002f2	0f 82 a8 fe ff
	ff		 jb	 $LL4@ReadSectio
  002f8	5f		 pop	 edi
$LN3@ReadSectio:

; 535  : 	}
; 536  : 
; 537  : 	return TRUE;
; 538  : }

  002f9	8b 4d fc	 mov	 ecx, DWORD PTR __$ArrayPad$[ebp]
  002fc	b8 01 00 00 00	 mov	 eax, 1
  00301	5e		 pop	 esi
  00302	33 cd		 xor	 ecx, ebp
  00304	5b		 pop	 ebx
  00305	e8 00 00 00 00	 call	 @__security_check_cookie@4
  0030a	8b e5		 mov	 esp, ebp
  0030c	5d		 pop	 ebp
  0030d	c2 04 00	 ret	 4
?ReadSectionByInfo@i3IniParser@@QAEHPAUi3IniSectionInfo@@@Z ENDP ; i3IniParser::ReadSectionByInfo
_TEXT	ENDS
; Function compile flags: /Ogtp
; File E:\Proyectos\JuegosOnlineproyectos\PB\pbblow\Piercing Blow Remake\i3Server\src\i3Base\i3IniParser.cpp
; File E:\Proyectos\JuegosOnlineproyectos\PB\pbblow\Piercing Blow Remake\i3Server\include\i3Base\i3List.h
; File E:\Proyectos\JuegosOnlineproyectos\PB\pbblow\Piercing Blow Remake\i3Server\src\i3Base\i3IniParser.cpp
; File E:\Proyectos\JuegosOnlineproyectos\PB\pbblow\Piercing Blow Remake\i3Server\include\i3Base\i3List.h
; File E:\Proyectos\JuegosOnlineproyectos\PB\pbblow\Piercing Blow Remake\i3Server\src\i3Base\i3IniParser.cpp
; File E:\Proyectos\JuegosOnlineproyectos\PB\pbblow\Piercing Blow Remake\i3Server\include\i3Base\i3List.h
; File E:\Proyectos\JuegosOnlineproyectos\PB\pbblow\Piercing Blow Remake\i3Server\src\i3Base\i3IniParser.cpp
;	COMDAT ?ReadSectionByIndex@i3IniParser@@QAEHH@Z
_TEXT	SEGMENT
_nIndex$ = 8						; size = 4
?ReadSectionByIndex@i3IniParser@@QAEHH@Z PROC		; i3IniParser::ReadSectionByIndex, COMDAT
; _this$ = ecx

; 430  : {

  00000	55		 push	 ebp
  00001	8b ec		 mov	 ebp, esp

; 431  : 	i3IniSectionInfo* pInfo = NULL;
; 432  : 	if (nIndex < m_pSectionList->GetCount())

  00003	8b 55 08	 mov	 edx, DWORD PTR _nIndex$[ebp]
  00006	33 c0		 xor	 eax, eax
  00008	56		 push	 esi
  00009	8b b1 1c 02 00
	00		 mov	 esi, DWORD PTR [ecx+540]
  0000f	3b 56 14	 cmp	 edx, DWORD PTR [esi+20]
  00012	7d 16		 jge	 SHORT $LN6@ReadSectio
; File E:\Proyectos\JuegosOnlineproyectos\PB\pbblow\Piercing Blow Remake\i3Server\include\i3Base\i3List.h

; 93   : 	void *	GetItem( INT32 idx)				{ if( idx >= GetCount() || idx < 0 )	return NULL;

  00014	85 d2		 test	 edx, edx
  00016	78 10		 js	 SHORT $LN7@ReadSectio

; 94   : 											  else									return Items[ idx];	 }

  00018	8b 46 24	 mov	 eax, DWORD PTR [esi+36]
; File E:\Proyectos\JuegosOnlineproyectos\PB\pbblow\Piercing Blow Remake\i3Server\src\i3Base\i3IniParser.cpp

; 436  : 	return ReadSectionByInfo(pInfo);

  0001b	5e		 pop	 esi
; File E:\Proyectos\JuegosOnlineproyectos\PB\pbblow\Piercing Blow Remake\i3Server\include\i3Base\i3List.h

; 94   : 											  else									return Items[ idx];	 }

  0001c	8b 04 90	 mov	 eax, DWORD PTR [eax+edx*4]
; File E:\Proyectos\JuegosOnlineproyectos\PB\pbblow\Piercing Blow Remake\i3Server\src\i3Base\i3IniParser.cpp

; 436  : 	return ReadSectionByInfo(pInfo);

  0001f	89 45 08	 mov	 DWORD PTR _nIndex$[ebp], eax

; 437  : }

  00022	5d		 pop	 ebp

; 436  : 	return ReadSectionByInfo(pInfo);

  00023	e9 00 00 00 00	 jmp	 ?ReadSectionByInfo@i3IniParser@@QAEHPAUi3IniSectionInfo@@@Z ; i3IniParser::ReadSectionByInfo
$LN7@ReadSectio:
; File E:\Proyectos\JuegosOnlineproyectos\PB\pbblow\Piercing Blow Remake\i3Server\include\i3Base\i3List.h

; 93   : 	void *	GetItem( INT32 idx)				{ if( idx >= GetCount() || idx < 0 )	return NULL;

  00028	33 c0		 xor	 eax, eax
$LN6@ReadSectio:
; File E:\Proyectos\JuegosOnlineproyectos\PB\pbblow\Piercing Blow Remake\i3Server\src\i3Base\i3IniParser.cpp

; 436  : 	return ReadSectionByInfo(pInfo);

  0002a	5e		 pop	 esi
  0002b	89 45 08	 mov	 DWORD PTR _nIndex$[ebp], eax

; 437  : }

  0002e	5d		 pop	 ebp

; 436  : 	return ReadSectionByInfo(pInfo);

  0002f	e9 00 00 00 00	 jmp	 ?ReadSectionByInfo@i3IniParser@@QAEHPAUi3IniSectionInfo@@@Z ; i3IniParser::ReadSectionByInfo
?ReadSectionByIndex@i3IniParser@@QAEHH@Z ENDP		; i3IniParser::ReadSectionByIndex
_TEXT	ENDS
; Function compile flags: /Ogtp
; File E:\Proyectos\JuegosOnlineproyectos\PB\pbblow\Piercing Blow Remake\i3Server\src\i3Base\i3IniParser.cpp
;	COMDAT ?ReadSection@i3IniParser@@QAEHPBD@Z
_TEXT	SEGMENT
_szName$ = 8						; size = 4
?ReadSection@i3IniParser@@QAEHPBD@Z PROC		; i3IniParser::ReadSection, COMDAT
; _this$ = ecx

; 422  : {

  00000	55		 push	 ebp
  00001	8b ec		 mov	 ebp, esp
  00003	56		 push	 esi

; 423  : 	// 섹션 찾기
; 424  : 	i3IniSectionInfo* pInfo = FindSection(szName);

  00004	ff 75 08	 push	 DWORD PTR _szName$[ebp]
  00007	8b f1		 mov	 esi, ecx
  00009	e8 00 00 00 00	 call	 ?FindSection@i3IniParser@@QAEPAUi3IniSectionInfo@@PBD@Z ; i3IniParser::FindSection

; 425  : 	return ReadSectionByInfo(pInfo);

  0000e	50		 push	 eax
  0000f	8b ce		 mov	 ecx, esi
  00011	e8 00 00 00 00	 call	 ?ReadSectionByInfo@i3IniParser@@QAEHPAUi3IniSectionInfo@@@Z ; i3IniParser::ReadSectionByInfo
  00016	5e		 pop	 esi

; 426  : }

  00017	5d		 pop	 ebp
  00018	c2 04 00	 ret	 4
?ReadSection@i3IniParser@@QAEHPBD@Z ENDP		; i3IniParser::ReadSection
_TEXT	ENDS
; Function compile flags: /Ogtp
; File E:\Proyectos\JuegosOnlineproyectos\PB\pbblow\Piercing Blow Remake\i3Server\include\i3Base\i3IniParser.h
;	COMDAT ?GetFileNameExt@i3IniParser@@QAEPBDXZ
_TEXT	SEGMENT
?GetFileNameExt@i3IniParser@@QAEPBDXZ PROC		; i3IniParser::GetFileNameExt, COMDAT
; _this$ = ecx

; 84   : 	const char* GetFileNameExt() { return m_szi3INIFileNameExt; }

  00000	8d 81 ad 03 00
	00		 lea	 eax, DWORD PTR [ecx+941]
  00006	c3		 ret	 0
?GetFileNameExt@i3IniParser@@QAEPBDXZ ENDP		; i3IniParser::GetFileNameExt
_TEXT	ENDS
; Function compile flags: /Ogtp
; File E:\Proyectos\JuegosOnlineproyectos\PB\pbblow\Piercing Blow Remake\i3Server\include\i3Base\i3IniParser.h
;	COMDAT ?GetFileName@i3IniParser@@QAEPBDXZ
_TEXT	SEGMENT
?GetFileName@i3IniParser@@QAEPBDXZ PROC			; i3IniParser::GetFileName, COMDAT
; _this$ = ecx

; 83   : 	const char* GetFileName() { return m_szi3INIFileName; }

  00000	8d 81 a9 02 00
	00		 lea	 eax, DWORD PTR [ecx+681]
  00006	c3		 ret	 0
?GetFileName@i3IniParser@@QAEPBDXZ ENDP			; i3IniParser::GetFileName
_TEXT	ENDS
; Function compile flags: /Ogtp
; File E:\Proyectos\JuegosOnlineproyectos\PB\pbblow\Piercing Blow Remake\i3Server\include\i3Base\i3IniParser.h
;	COMDAT ?GetCurSectionName@i3IniParser@@QAEPBDXZ
_TEXT	SEGMENT
?GetCurSectionName@i3IniParser@@QAEPBDXZ PROC		; i3IniParser::GetCurSectionName, COMDAT
; _this$ = ecx

; 82   : 	const char* GetCurSectionName() { return m_szSectionName; }

  00000	8d 81 20 02 00
	00		 lea	 eax, DWORD PTR [ecx+544]
  00006	c3		 ret	 0
?GetCurSectionName@i3IniParser@@QAEPBDXZ ENDP		; i3IniParser::GetCurSectionName
_TEXT	ENDS
; Function compile flags: /Ogtp
; File E:\Proyectos\JuegosOnlineproyectos\PB\pbblow\Piercing Blow Remake\i3Server\src\i3Base\i3IniParser.cpp
; File E:\Proyectos\JuegosOnlineproyectos\PB\pbblow\Piercing Blow Remake\i3Server\include\i3Base\i3List.h
; File E:\Proyectos\JuegosOnlineproyectos\PB\pbblow\Piercing Blow Remake\i3Server\src\i3Base\i3IniParser.cpp
;	COMDAT ?GetSectionIndex@i3IniParser@@QAEHPBD@Z
_TEXT	SEGMENT
_szName$ = 8						; size = 4
?GetSectionIndex@i3IniParser@@QAEHPBD@Z PROC		; i3IniParser::GetSectionIndex, COMDAT
; _this$ = ecx

; 403  : {

  00000	55		 push	 ebp
  00001	8b ec		 mov	 ebp, esp
  00003	53		 push	 ebx
  00004	8b d9		 mov	 ebx, ecx
  00006	56		 push	 esi
  00007	57		 push	 edi

; 404  : 	INT32 i, n = m_pSectionList->GetCount();
; 405  : 	for (i = 0; i < n; i++)

  00008	33 f6		 xor	 esi, esi
  0000a	8b 83 1c 02 00
	00		 mov	 eax, DWORD PTR [ebx+540]
  00010	8b 78 14	 mov	 edi, DWORD PTR [eax+20]
  00013	85 ff		 test	 edi, edi
  00015	7e 36		 jle	 SHORT $LN3@GetSection
  00017	eb 07 8d a4 24
	00 00 00 00	 npad	 9
$LL4@GetSection:

; 406  : 	{
; 407  : 		i3IniSectionInfo* pInfo = (i3IniSectionInfo*)m_pSectionList->GetItem(i);

  00020	8b 83 1c 02 00
	00		 mov	 eax, DWORD PTR [ebx+540]
; File E:\Proyectos\JuegosOnlineproyectos\PB\pbblow\Piercing Blow Remake\i3Server\include\i3Base\i3List.h

; 93   : 	void *	GetItem( INT32 idx)				{ if( idx >= GetCount() || idx < 0 )	return NULL;

  00026	3b 70 14	 cmp	 esi, DWORD PTR [eax+20]
  00029	7d 08		 jge	 SHORT $LN10@GetSection

; 94   : 											  else									return Items[ idx];	 }

  0002b	8b 40 24	 mov	 eax, DWORD PTR [eax+36]
  0002e	8b 04 b0	 mov	 eax, DWORD PTR [eax+esi*4]
  00031	eb 02		 jmp	 SHORT $LN9@GetSection
$LN10@GetSection:

; 93   : 	void *	GetItem( INT32 idx)				{ if( idx >= GetCount() || idx < 0 )	return NULL;

  00033	33 c0		 xor	 eax, eax
$LN9@GetSection:
; File E:\Proyectos\JuegosOnlineproyectos\PB\pbblow\Piercing Blow Remake\i3Server\src\i3Base\i3IniParser.cpp

; 408  : 		if (i3String::Compare(pInfo->Name, szName) == 0)

  00035	ff 75 08	 push	 DWORD PTR _szName$[ebp]
  00038	83 c0 08	 add	 eax, 8
  0003b	50		 push	 eax
  0003c	e8 00 00 00 00	 call	 ?Compare@i3String@@YAHPBD0@Z ; i3String::Compare
  00041	83 c4 08	 add	 esp, 8
  00044	85 c0		 test	 eax, eax
  00046	74 0f		 je	 SHORT $LN13@GetSection

; 404  : 	INT32 i, n = m_pSectionList->GetCount();
; 405  : 	for (i = 0; i < n; i++)

  00048	46		 inc	 esi
  00049	3b f7		 cmp	 esi, edi
  0004b	7c d3		 jl	 SHORT $LL4@GetSection
$LN3@GetSection:
  0004d	5f		 pop	 edi

; 411  : 		}
; 412  : 	}
; 413  : 	return -1;
; 414  : }

  0004e	5e		 pop	 esi
  0004f	83 c8 ff	 or	 eax, -1
  00052	5b		 pop	 ebx
  00053	5d		 pop	 ebp
  00054	c2 04 00	 ret	 4
$LN13@GetSection:
  00057	5f		 pop	 edi

; 409  : 		{
; 410  : 			return i;

  00058	8b c6		 mov	 eax, esi

; 411  : 		}
; 412  : 	}
; 413  : 	return -1;
; 414  : }

  0005a	5e		 pop	 esi
  0005b	5b		 pop	 ebx
  0005c	5d		 pop	 ebp
  0005d	c2 04 00	 ret	 4
?GetSectionIndex@i3IniParser@@QAEHPBD@Z ENDP		; i3IniParser::GetSectionIndex
_TEXT	ENDS
; Function compile flags: /Ogtp
; File E:\Proyectos\JuegosOnlineproyectos\PB\pbblow\Piercing Blow Remake\i3Server\src\i3Base\i3IniParser.cpp
; File E:\Proyectos\JuegosOnlineproyectos\PB\pbblow\Piercing Blow Remake\i3Server\include\i3Base\i3List.h
; File E:\Proyectos\JuegosOnlineproyectos\PB\pbblow\Piercing Blow Remake\i3Server\src\i3Base\i3IniParser.cpp
;	COMDAT ?FindSection@i3IniParser@@QAEPAUi3IniSectionInfo@@PBD@Z
_TEXT	SEGMENT
_this$1$ = -4						; size = 4
_szName$ = 8						; size = 4
?FindSection@i3IniParser@@QAEPAUi3IniSectionInfo@@PBD@Z PROC ; i3IniParser::FindSection, COMDAT
; _this$ = ecx

; 389  : {

  00000	55		 push	 ebp
  00001	8b ec		 mov	 ebp, esp
  00003	51		 push	 ecx

; 390  : 	INT32 i, n = m_pSectionList->GetCount();

  00004	8b 81 1c 02 00
	00		 mov	 eax, DWORD PTR [ecx+540]
  0000a	53		 push	 ebx
  0000b	56		 push	 esi

; 391  : 	for (i = 0; i < n; i++)

  0000c	33 f6		 xor	 esi, esi
  0000e	89 4d fc	 mov	 DWORD PTR _this$1$[ebp], ecx
  00011	8b 58 14	 mov	 ebx, DWORD PTR [eax+20]
  00014	57		 push	 edi
  00015	85 db		 test	 ebx, ebx
  00017	7e 37		 jle	 SHORT $LN3@FindSectio
  00019	8d a4 24 00 00
	00 00		 npad	 7
$LL4@FindSectio:

; 392  : 	{
; 393  : 		i3IniSectionInfo* pInfo = (i3IniSectionInfo*)m_pSectionList->GetItem(i);

  00020	8b 81 1c 02 00
	00		 mov	 eax, DWORD PTR [ecx+540]
; File E:\Proyectos\JuegosOnlineproyectos\PB\pbblow\Piercing Blow Remake\i3Server\include\i3Base\i3List.h

; 93   : 	void *	GetItem( INT32 idx)				{ if( idx >= GetCount() || idx < 0 )	return NULL;

  00026	3b 70 14	 cmp	 esi, DWORD PTR [eax+20]
  00029	7d 08		 jge	 SHORT $LN10@FindSectio

; 94   : 											  else									return Items[ idx];	 }

  0002b	8b 40 24	 mov	 eax, DWORD PTR [eax+36]
  0002e	8b 3c b0	 mov	 edi, DWORD PTR [eax+esi*4]
  00031	eb 02		 jmp	 SHORT $LN9@FindSectio
$LN10@FindSectio:

; 93   : 	void *	GetItem( INT32 idx)				{ if( idx >= GetCount() || idx < 0 )	return NULL;

  00033	33 ff		 xor	 edi, edi
$LN9@FindSectio:
; File E:\Proyectos\JuegosOnlineproyectos\PB\pbblow\Piercing Blow Remake\i3Server\src\i3Base\i3IniParser.cpp

; 394  : 		if (i3String::Compare(pInfo->Name, szName) == 0)

  00035	ff 75 08	 push	 DWORD PTR _szName$[ebp]
  00038	8d 47 08	 lea	 eax, DWORD PTR [edi+8]
  0003b	50		 push	 eax
  0003c	e8 00 00 00 00	 call	 ?Compare@i3String@@YAHPBD0@Z ; i3String::Compare
  00041	83 c4 08	 add	 esp, 8
  00044	85 c0		 test	 eax, eax
  00046	74 13		 je	 SHORT $LN13@FindSectio

; 391  : 	for (i = 0; i < n; i++)

  00048	8b 4d fc	 mov	 ecx, DWORD PTR _this$1$[ebp]
  0004b	46		 inc	 esi
  0004c	3b f3		 cmp	 esi, ebx
  0004e	7c d0		 jl	 SHORT $LL4@FindSectio
$LN3@FindSectio:
  00050	5f		 pop	 edi

; 397  : 		}
; 398  : 	}
; 399  : 	return FALSE;
; 400  : }

  00051	5e		 pop	 esi
  00052	33 c0		 xor	 eax, eax
  00054	5b		 pop	 ebx
  00055	8b e5		 mov	 esp, ebp
  00057	5d		 pop	 ebp
  00058	c2 04 00	 ret	 4
$LN13@FindSectio:

; 395  : 		{
; 396  : 			return pInfo;

  0005b	8b c7		 mov	 eax, edi
  0005d	5f		 pop	 edi

; 397  : 		}
; 398  : 	}
; 399  : 	return FALSE;
; 400  : }

  0005e	5e		 pop	 esi
  0005f	5b		 pop	 ebx
  00060	8b e5		 mov	 esp, ebp
  00062	5d		 pop	 ebp
  00063	c2 04 00	 ret	 4
?FindSection@i3IniParser@@QAEPAUi3IniSectionInfo@@PBD@Z ENDP ; i3IniParser::FindSection
_TEXT	ENDS
; Function compile flags: /Ogtp
; File E:\Proyectos\JuegosOnlineproyectos\PB\pbblow\Piercing Blow Remake\i3Server\include\i3Base\i3IniParser.h
; File E:\Proyectos\JuegosOnlineproyectos\PB\pbblow\Piercing Blow Remake\i3Server\include\i3Base\i3List.h
; File E:\Proyectos\JuegosOnlineproyectos\PB\pbblow\Piercing Blow Remake\i3Server\include\i3Base\i3IniParser.h
;	COMDAT ?GetSection@i3IniParser@@QAEPAUi3IniSectionInfo@@H@Z
_TEXT	SEGMENT
_nIndex$ = 8						; size = 4
?GetSection@i3IniParser@@QAEPAUi3IniSectionInfo@@H@Z PROC ; i3IniParser::GetSection, COMDAT
; _this$ = ecx

; 78   : 	i3IniSectionInfo* GetSection(INT32 nIndex) { return (i3IniSectionInfo*)m_pSectionList->GetItem(nIndex); }

  00000	55		 push	 ebp
  00001	8b ec		 mov	 ebp, esp
  00003	8b 81 1c 02 00
	00		 mov	 eax, DWORD PTR [ecx+540]
; File E:\Proyectos\JuegosOnlineproyectos\PB\pbblow\Piercing Blow Remake\i3Server\include\i3Base\i3List.h

; 93   : 	void *	GetItem( INT32 idx)				{ if( idx >= GetCount() || idx < 0 )	return NULL;

  00009	8b 4d 08	 mov	 ecx, DWORD PTR _nIndex$[ebp]
  0000c	3b 48 14	 cmp	 ecx, DWORD PTR [eax+20]
  0000f	7d 0e		 jge	 SHORT $LN6@GetSection
  00011	85 c9		 test	 ecx, ecx
  00013	78 0a		 js	 SHORT $LN6@GetSection

; 94   : 											  else									return Items[ idx];	 }

  00015	8b 40 24	 mov	 eax, DWORD PTR [eax+36]
; File E:\Proyectos\JuegosOnlineproyectos\PB\pbblow\Piercing Blow Remake\i3Server\include\i3Base\i3IniParser.h

; 78   : 	i3IniSectionInfo* GetSection(INT32 nIndex) { return (i3IniSectionInfo*)m_pSectionList->GetItem(nIndex); }

  00018	8b 04 88	 mov	 eax, DWORD PTR [eax+ecx*4]
  0001b	5d		 pop	 ebp
  0001c	c2 04 00	 ret	 4
$LN6@GetSection:
  0001f	33 c0		 xor	 eax, eax
  00021	5d		 pop	 ebp
  00022	c2 04 00	 ret	 4
?GetSection@i3IniParser@@QAEPAUi3IniSectionInfo@@H@Z ENDP ; i3IniParser::GetSection
_TEXT	ENDS
; Function compile flags: /Ogtp
; File E:\Proyectos\JuegosOnlineproyectos\PB\pbblow\Piercing Blow Remake\i3Server\include\i3Base\i3IniParser.h
;	COMDAT ?GetSectionCount@i3IniParser@@QAEHXZ
_TEXT	SEGMENT
?GetSectionCount@i3IniParser@@QAEHXZ PROC		; i3IniParser::GetSectionCount, COMDAT
; _this$ = ecx

; 77   : 	INT32 GetSectionCount() { return m_pSectionList->GetCount(); }

  00000	8b 81 1c 02 00
	00		 mov	 eax, DWORD PTR [ecx+540]
  00006	8b 40 14	 mov	 eax, DWORD PTR [eax+20]
  00009	c3		 ret	 0
?GetSectionCount@i3IniParser@@QAEHXZ ENDP		; i3IniParser::GetSectionCount
_TEXT	ENDS
; Function compile flags: /Ogtp
; File E:\Proyectos\JuegosOnlineproyectos\PB\pbblow\Piercing Blow Remake\i3Server\src\i3Base\i3IniParser.cpp
; File E:\Proyectos\JuegosOnlineproyectos\PB\pbblow\Piercing Blow Remake\i3Server\include\i3Base\i3ElementBase.h
; File E:\Proyectos\JuegosOnlineproyectos\PB\pbblow\Piercing Blow Remake\i3Server\src\i3Base\i3IniParser.cpp
;	COMDAT ?Open@i3IniParser@@QAEHPAVi3Stream@@HH@Z
_TEXT	SEGMENT
_code$ = -1548						; size = 2
tv368 = -1544						; size = 4
_pInfo$1$ = -1544					; size = 4
_szReadBuf$ = -1540					; size = 1024
_szBuf$ = -516						; size = 512
__$ArrayPad$ = -4					; size = 4
_pStream$ = 8						; size = 4
_bAllowDuplicatedSection$ = 12				; size = 4
_bFromFile$ = 16					; size = 4
?Open@i3IniParser@@QAEHPAVi3Stream@@HH@Z PROC		; i3IniParser::Open, COMDAT
; _this$ = ecx

; 134  : {

  00000	55		 push	 ebp
  00001	8b ec		 mov	 ebp, esp
  00003	81 ec 0c 06 00
	00		 sub	 esp, 1548		; 0000060cH
  00009	a1 00 00 00 00	 mov	 eax, DWORD PTR ___security_cookie
  0000e	33 c5		 xor	 eax, ebp
  00010	89 45 fc	 mov	 DWORD PTR __$ArrayPad$[ebp], eax
  00013	56		 push	 esi
  00014	57		 push	 edi
  00015	8b 7d 08	 mov	 edi, DWORD PTR _pStream$[ebp]
  00018	8b f1		 mov	 esi, ecx
; File E:\Proyectos\JuegosOnlineproyectos\PB\pbblow\Piercing Blow Remake\i3Server\include\i3Base\i3ElementBase.h

; 352  : 		return GetMeta()->IsExactTypeOf( pMeta);

  0001a	8b cf		 mov	 ecx, edi
  0001c	8b 07		 mov	 eax, DWORD PTR [edi]
  0001e	ff 10		 call	 DWORD PTR [eax]
; File E:\Proyectos\JuegosOnlineproyectos\PB\pbblow\Piercing Blow Remake\i3Server\src\i3Base\i3IniParser.cpp

; 139  : 	if (!bFromFile)

  00020	83 7d 10 00	 cmp	 DWORD PTR _bFromFile$[ebp], 0
  00024	75 07		 jne	 SHORT $LN5@Open

; 140  : 	{
; 141  : 		Close();

  00026	8b ce		 mov	 ecx, esi
  00028	e8 00 00 00 00	 call	 ?Close@i3IniParser@@QAEXXZ ; i3IniParser::Close
$LN5@Open:

; 142  : 	}
; 143  : 
; 144  : 	if (pStream == NULL)
; 145  : 	{
; 146  : 		I3WARN("Stream is NULL.\n");
; 147  : 
; 148  : 		//I3TRACE( "%s : Stream is NULL.\n", __FUNCTION__ );
; 149  : 		return FALSE;
; 150  : 	}
; 151  : 
; 152  : 	m_bAllowDuplicatedSection = bAllowDuplicatedSection;

  0002d	8b 45 0c	 mov	 eax, DWORD PTR _bAllowDuplicatedSection$[ebp]

; 153  : 	m_pStream = pStream;
; 154  : 
; 155  : 	UINT32 nPos = m_pStream->GetPosition();

  00030	8b cf		 mov	 ecx, edi
  00032	89 86 10 02 00
	00		 mov	 DWORD PTR [esi+528], eax
  00038	89 be 18 02 00
	00		 mov	 DWORD PTR [esi+536], edi
  0003e	8b 07		 mov	 eax, DWORD PTR [edi]
  00040	ff 50 30	 call	 DWORD PTR [eax+48]

; 156  : 
; 157  : 	WCHAR16 code;
; 158  : 	UINT32 rc = m_pStream->Read(&code, sizeof(WCHAR16));

  00043	8b 8e 18 02 00
	00		 mov	 ecx, DWORD PTR [esi+536]
  00049	8b f8		 mov	 edi, eax
  0004b	6a 02		 push	 2
  0004d	8d 85 f4 f9 ff
	ff		 lea	 eax, DWORD PTR _code$[ebp]
  00053	50		 push	 eax
  00054	8b 11		 mov	 edx, DWORD PTR [ecx]
  00056	ff 52 1c	 call	 DWORD PTR [edx+28]

; 159  : 	if (rc == STREAM_ERR)

  00059	83 f8 ff	 cmp	 eax, -1
  0005c	75 14		 jne	 SHORT $LN7@Open

; 160  : 	{
; 161  : 		return FALSE;

  0005e	5f		 pop	 edi
  0005f	33 c0		 xor	 eax, eax

; 249  : }

  00061	5e		 pop	 esi
  00062	8b 4d fc	 mov	 ecx, DWORD PTR __$ArrayPad$[ebp]
  00065	33 cd		 xor	 ecx, ebp
  00067	e8 00 00 00 00	 call	 @__security_check_cookie@4
  0006c	8b e5		 mov	 esp, ebp
  0006e	5d		 pop	 ebp
  0006f	c2 0c 00	 ret	 12			; 0000000cH
$LN7@Open:

; 162  : 	}
; 163  : 
; 164  : 	m_bUnicode = false;
; 165  : 	if (code == 0xfeff)

  00072	b8 ff fe 00 00	 mov	 eax, 65279		; 0000feffH
  00077	c6 86 a8 02 00
	00 00		 mov	 BYTE PTR [esi+680], 0
  0007e	66 39 85 f4 f9
	ff ff		 cmp	 WORD PTR _code$[ebp], ax
  00085	75 09		 jne	 SHORT $LN8@Open

; 166  : 	{
; 167  : 		m_bUnicode = true;

  00087	c6 86 a8 02 00
	00 01		 mov	 BYTE PTR [esi+680], 1

; 168  : 	}

  0008e	eb 0e		 jmp	 SHORT $LN9@Open
$LN8@Open:

; 169  : 	else
; 170  : 	{
; 171  : 		m_pStream->SetPosition(nPos, STREAM_BEGIN);

  00090	8b 8e 18 02 00
	00		 mov	 ecx, DWORD PTR [esi+536]
  00096	6a 01		 push	 1
  00098	57		 push	 edi
  00099	8b 01		 mov	 eax, DWORD PTR [ecx]
  0009b	ff 50 2c	 call	 DWORD PTR [eax+44]
$LN9@Open:

; 172  : 	}
; 173  : 
; 174  : 	char szReadBuf[READBUF_SIZE * 2] = "";

  0009e	53		 push	 ebx
  0009f	68 ff 03 00 00	 push	 1023			; 000003ffH
  000a4	8d 85 fd f9 ff
	ff		 lea	 eax, DWORD PTR _szReadBuf$[ebp+1]
  000aa	c6 85 fc f9 ff
	ff 00		 mov	 BYTE PTR _szReadBuf$[ebp], 0
  000b1	6a 00		 push	 0
  000b3	50		 push	 eax
  000b4	e8 00 00 00 00	 call	 _memset

; 175  : 	char szBuf[READBUF_SIZE] = "";

  000b9	68 ff 01 00 00	 push	 511			; 000001ffH
  000be	8d 85 fd fd ff
	ff		 lea	 eax, DWORD PTR _szBuf$[ebp+1]
  000c4	c6 85 fc fd ff
	ff 00		 mov	 BYTE PTR _szBuf$[ebp], 0
  000cb	6a 00		 push	 0
  000cd	50		 push	 eax
  000ce	e8 00 00 00 00	 call	 _memset
  000d3	83 c4 18	 add	 esp, 24			; 00000018H

; 176  : 	char* szCur = NULL;
; 177  : 
; 178  : 	i3IniSectionInfo* pPrevInfo = NULL;
; 179  : 	UINT32 nLineCount = 0;
; 180  : 
; 181  : 	// 한줄씩 읽는다.
; 182  : 	while (_ReadLine(szReadBuf))

  000d6	8d 85 fc f9 ff
	ff		 lea	 eax, DWORD PTR _szReadBuf$[ebp]
  000dc	8b ce		 mov	 ecx, esi
  000de	33 db		 xor	 ebx, ebx
  000e0	33 ff		 xor	 edi, edi
  000e2	50		 push	 eax
  000e3	e8 00 00 00 00	 call	 ?_ReadLine@i3IniParser@@IAEIPAD@Z ; i3IniParser::_ReadLine
  000e8	85 c0		 test	 eax, eax
  000ea	0f 84 3e 01 00
	00		 je	 $LN17@Open
$LL2@Open:

; 183  : 	{
; 184  : 		// 앞뒤로 공백 문자 제거
; 185  : 		RemoveWhiteSpace(szBuf, szReadBuf);

  000f0	8d 85 fc f9 ff
	ff		 lea	 eax, DWORD PTR _szReadBuf$[ebp]
  000f6	8b ce		 mov	 ecx, esi
  000f8	50		 push	 eax
  000f9	8d 85 fc fd ff
	ff		 lea	 eax, DWORD PTR _szBuf$[ebp]
  000ff	50		 push	 eax
  00100	e8 00 00 00 00	 call	 ?RemoveWhiteSpace@i3IniParser@@IAEXPADPBD@Z ; i3IniParser::RemoveWhiteSpace

; 186  : 
; 187  : 		// '['문자로 시작하고
; 188  : 		if (szBuf[0] == '[')

  00105	80 bd fc fd ff
	ff 5b		 cmp	 BYTE PTR _szBuf$[ebp], 91 ; 0000005bH
  0010c	0f 85 f2 00 00
	00		 jne	 $LN13@Open

; 189  : 		{
; 190  : 			INT32 nLastPos = i3String::Length(szBuf) - 1;

  00112	8d 85 fc fd ff
	ff		 lea	 eax, DWORD PTR _szBuf$[ebp]
  00118	50		 push	 eax
  00119	e8 00 00 00 00	 call	 ?Length@i3String@@YAHPBD@Z ; i3String::Length
  0011e	48		 dec	 eax
  0011f	83 c4 04	 add	 esp, 4

; 191  : 			// ']' 문자로 끝나면
; 192  : 			if (szBuf[nLastPos] == ']')

  00122	80 bc 05 fc fd
	ff ff 5d	 cmp	 BYTE PTR _szBuf$[ebp+eax], 93 ; 0000005dH
  0012a	0f 85 d4 00 00
	00		 jne	 $LN13@Open

; 193  : 			{
; 194  : 				// szCur 에 '['와']'사이의 문자열을 설정하고.
; 195  : 				szBuf[nLastPos] = '\0';

  00130	3d 00 02 00 00	 cmp	 eax, 512		; 00000200H
  00135	0f 83 43 01 00
	00		 jae	 $LN19@Open
  0013b	c6 84 05 fc fd
	ff ff 00	 mov	 BYTE PTR _szBuf$[ebp+eax], 0

; 196  : 				szCur = &szBuf[1];
; 197  : 
; 198  : 				// 문자열의 길이를 확인하고,
; 199  : 				if (i3String::Length(szCur) <= 0)

  00143	8d 85 fd fd ff
	ff		 lea	 eax, DWORD PTR _szBuf$[ebp+1]
  00149	50		 push	 eax
  0014a	e8 00 00 00 00	 call	 ?Length@i3String@@YAHPBD@Z ; i3String::Length
  0014f	83 c4 04	 add	 esp, 4
  00152	85 c0		 test	 eax, eax
  00154	7f 28		 jg	 SHORT $LN12@Open

; 200  : 				{
; 201  : 					I3WARN("Section name is NULL.\n");

  00156	6a 01		 push	 1
  00158	68 00 00 00 00	 push	 OFFSET ??_C@_0DL@KGJFMIKH@int?5__thiscall?5i3IniParser?3?3Ope@
  0015d	68 c9 00 00 00	 push	 201			; 000000c9H
  00162	68 00 00 00 00	 push	 OFFSET ??_C@_0GG@LIGOM@E?3?2Proyectos?2JuegosOnlineproyec@
  00167	e8 00 00 00 00	 call	 ?SetEnv@i3Error@@YAXPBDH0W4I3LOG_TYPE@@@Z ; i3Error::SetEnv
  0016c	68 00 00 00 00	 push	 OFFSET ??_C@_0BH@POMKDHLO@Section?5name?5is?5NULL?4?6@
  00171	e8 00 00 00 00	 call	 ?Log@i3Error@@YAXPBDZZ	; i3Error::Log
  00176	83 c4 14	 add	 esp, 20			; 00000014H

; 202  : 					//I3TRACE( "%s : Section name is NULL.\n", __FUNCTION__ );
; 203  : 					I3ASSERT_0;
; 204  : 				}

  00179	e9 86 00 00 00	 jmp	 $LN13@Open
$LN12@Open:

; 205  : 				else
; 206  : 				{
; 207  : 					if (!m_bAllowDuplicatedSection)

  0017e	83 be 10 02 00
	00 00		 cmp	 DWORD PTR [esi+528], 0
  00185	75 16		 jne	 SHORT $LN15@Open

; 208  : 					{
; 209  : 						// 똑같은 이름이 있는지 확인하고
; 210  : 						if (FindSection(szCur) != NULL)

  00187	8d 85 fd fd ff
	ff		 lea	 eax, DWORD PTR _szBuf$[ebp+1]
  0018d	8b ce		 mov	 ecx, esi
  0018f	50		 push	 eax
  00190	e8 00 00 00 00	 call	 ?FindSection@i3IniParser@@QAEPAUi3IniSectionInfo@@PBD@Z ; i3IniParser::FindSection
  00195	85 c0		 test	 eax, eax
  00197	0f 85 a9 00 00
	00		 jne	 $LN26@Open
$LN15@Open:

; 213  : 							//I3TRACE( "%s : Section name is duplicated(%s).\n", __FUNCTION__, szCur );
; 214  : 							I3ASSERT_0;
; 215  : 							return FALSE;
; 216  : 						}
; 217  : 					}
; 218  : 
; 219  : 					// 섹션 하나 추가
; 220  : 					//I3HMEM hMem = i3MemAlloc( sizeof(i3IniSectionInfo));
; 221  : 					i3IniSectionInfo* pInfo = (i3IniSectionInfo*)i3MemAlloc(sizeof(i3IniSectionInfo));

  0019d	68 dd 00 00 00	 push	 221			; 000000ddH
  001a2	68 00 00 00 00	 push	 OFFSET ??_C@_0GG@LIGOM@E?3?2Proyectos?2JuegosOnlineproyec@
  001a7	6a 10		 push	 16			; 00000010H
  001a9	6a 00		 push	 0
  001ab	68 88 00 00 00	 push	 136			; 00000088H
  001b0	e8 00 00 00 00	 call	 ?AllocTool@i3mem@@YAPAXHHHPBDH@Z ; i3mem::AllocTool

; 222  : 
; 223  : 					i3String::Copy(pInfo->Name, szCur, I3_INI_NAME_SIZE);		// 섹션 이름 저장

  001b5	68 80 00 00 00	 push	 128			; 00000080H
  001ba	8d 8d fd fd ff
	ff		 lea	 ecx, DWORD PTR _szBuf$[ebp+1]
  001c0	89 85 f8 f9 ff
	ff		 mov	 DWORD PTR _pInfo$1$[ebp], eax
  001c6	51		 push	 ecx
  001c7	8d 48 08	 lea	 ecx, DWORD PTR [eax+8]
  001ca	51		 push	 ecx
  001cb	e8 00 00 00 00	 call	 ?Copy@i3String@@YAXPADPBDH@Z ; i3String::Copy

; 224  : 					pInfo->Position = m_pStream->GetPosition(); // Stream 위치 저장

  001d0	8b 8e 18 02 00
	00		 mov	 ecx, DWORD PTR [esi+536]
  001d6	83 c4 20	 add	 esp, 32			; 00000020H
  001d9	8b 11		 mov	 edx, DWORD PTR [ecx]
  001db	ff 52 30	 call	 DWORD PTR [edx+48]
  001de	8b 95 f8 f9 ff
	ff		 mov	 edx, DWORD PTR _pInfo$1$[ebp]

; 225  : 					m_pSectionList->Add(pInfo);				// 리스트에 추가

  001e4	52		 push	 edx
  001e5	89 02		 mov	 DWORD PTR [edx], eax
  001e7	8b 8e 1c 02 00
	00		 mov	 ecx, DWORD PTR [esi+540]
  001ed	8b 01		 mov	 eax, DWORD PTR [ecx]
  001ef	ff 50 10	 call	 DWORD PTR [eax+16]

; 226  : 
; 227  : 					// 이전 섹션의 라인수 설정
; 228  : 					if (pPrevInfo != NULL)

  001f2	85 db		 test	 ebx, ebx
  001f4	74 06		 je	 SHORT $LN16@Open

; 229  : 					{
; 230  : 						pPrevInfo->NumLines = nLineCount - 1;

  001f6	8d 47 ff	 lea	 eax, DWORD PTR [edi-1]
  001f9	89 43 04	 mov	 DWORD PTR [ebx+4], eax
$LN16@Open:

; 231  : 					}
; 232  : 
; 233  : 					// 라인 카운트 초기화
; 234  : 					nLineCount = 0;
; 235  : 					pPrevInfo = pInfo;

  001fc	8b 9d f8 f9 ff
	ff		 mov	 ebx, DWORD PTR _pInfo$1$[ebp]
  00202	33 ff		 xor	 edi, edi
$LN13@Open:

; 236  : 				}
; 237  : 			}
; 238  : 		}
; 239  : 		nLineCount++;

  00204	8d 85 fc f9 ff
	ff		 lea	 eax, DWORD PTR _szReadBuf$[ebp]
  0020a	89 bd f8 f9 ff
	ff		 mov	 DWORD PTR tv368[ebp], edi
  00210	50		 push	 eax
  00211	8b ce		 mov	 ecx, esi
  00213	47		 inc	 edi
  00214	e8 00 00 00 00	 call	 ?_ReadLine@i3IniParser@@IAEIPAD@Z ; i3IniParser::_ReadLine
  00219	85 c0		 test	 eax, eax
  0021b	0f 85 cf fe ff
	ff		 jne	 $LL2@Open

; 240  : 	}
; 241  : 
; 242  : 	// 이전 섹션의 라인수 설정
; 243  : 	if (pPrevInfo != NULL)

  00221	85 db		 test	 ebx, ebx
  00223	74 09		 je	 SHORT $LN17@Open

; 244  : 	{
; 245  : 		pPrevInfo->NumLines = nLineCount - 1;

  00225	8b 85 f8 f9 ff
	ff		 mov	 eax, DWORD PTR tv368[ebp]
  0022b	89 43 04	 mov	 DWORD PTR [ebx+4], eax
$LN17@Open:

; 246  : 	}
; 247  : 
; 248  : 	return TRUE;

  0022e	5b		 pop	 ebx
  0022f	5f		 pop	 edi
  00230	b8 01 00 00 00	 mov	 eax, 1

; 249  : }

  00235	5e		 pop	 esi
  00236	8b 4d fc	 mov	 ecx, DWORD PTR __$ArrayPad$[ebp]
  00239	33 cd		 xor	 ecx, ebp
  0023b	e8 00 00 00 00	 call	 @__security_check_cookie@4
  00240	8b e5		 mov	 esp, ebp
  00242	5d		 pop	 ebp
  00243	c2 0c 00	 ret	 12			; 0000000cH
$LN26@Open:

; 211  : 						{
; 212  : 							I3WARN("Section name is duplicated\n");

  00246	6a 01		 push	 1
  00248	68 00 00 00 00	 push	 OFFSET ??_C@_0DL@KGJFMIKH@int?5__thiscall?5i3IniParser?3?3Ope@
  0024d	68 d4 00 00 00	 push	 212			; 000000d4H
  00252	68 00 00 00 00	 push	 OFFSET ??_C@_0GG@LIGOM@E?3?2Proyectos?2JuegosOnlineproyec@
  00257	e8 00 00 00 00	 call	 ?SetEnv@i3Error@@YAXPBDH0W4I3LOG_TYPE@@@Z ; i3Error::SetEnv
  0025c	68 00 00 00 00	 push	 OFFSET ??_C@_0BM@BLONCBOG@Section?5name?5is?5duplicated?6@
  00261	e8 00 00 00 00	 call	 ?Log@i3Error@@YAXPBDZZ	; i3Error::Log

; 249  : }

  00266	8b 4d fc	 mov	 ecx, DWORD PTR __$ArrayPad$[ebp]
  00269	83 c4 14	 add	 esp, 20			; 00000014H
  0026c	33 cd		 xor	 ecx, ebp
  0026e	33 c0		 xor	 eax, eax
  00270	5b		 pop	 ebx
  00271	5f		 pop	 edi
  00272	5e		 pop	 esi
  00273	e8 00 00 00 00	 call	 @__security_check_cookie@4
  00278	8b e5		 mov	 esp, ebp
  0027a	5d		 pop	 ebp
  0027b	c2 0c 00	 ret	 12			; 0000000cH
$LN19@Open:

; 193  : 			{
; 194  : 				// szCur 에 '['와']'사이의 문자열을 설정하고.
; 195  : 				szBuf[nLastPos] = '\0';

  0027e	e8 00 00 00 00	 call	 ___report_rangecheckfailure
$LN43@Open:
  00283	cc		 int	 3
?Open@i3IniParser@@QAEHPAVi3Stream@@HH@Z ENDP		; i3IniParser::Open
_TEXT	ENDS
; Function compile flags: /Ogtp
; File E:\Proyectos\JuegosOnlineproyectos\PB\pbblow\Piercing Blow Remake\i3Server\src\i3Base\i3IniParser.cpp
;	COMDAT ?OpenFromFile@i3IniParser@@QAEHPBDH@Z
_TEXT	SEGMENT
_szDrive$ = -784					; size = 260
_szPath$ = -524						; size = 260
_szExt$ = -264						; size = 260
__$ArrayPad$ = -4					; size = 4
_szFileName$ = 8					; size = 4
_bAllowDuplicatedSection$ = 12				; size = 4
?OpenFromFile@i3IniParser@@QAEHPBDH@Z PROC		; i3IniParser::OpenFromFile, COMDAT
; _this$ = ecx

; 54   : {

  00000	55		 push	 ebp
  00001	8b ec		 mov	 ebp, esp
  00003	81 ec 10 03 00
	00		 sub	 esp, 784		; 00000310H
  00009	a1 00 00 00 00	 mov	 eax, DWORD PTR ___security_cookie
  0000e	33 c5		 xor	 eax, ebp
  00010	89 45 fc	 mov	 DWORD PTR __$ArrayPad$[ebp], eax
  00013	53		 push	 ebx
  00014	8b 5d 08	 mov	 ebx, DWORD PTR _szFileName$[ebp]
  00017	56		 push	 esi
  00018	8b f1		 mov	 esi, ecx

; 55   : 	Close();

  0001a	e8 00 00 00 00	 call	 ?Close@i3IniParser@@QAEXXZ ; i3IniParser::Close

; 56   : 
; 57   : 	m_bFromFile = TRUE;

  0001f	c7 86 14 02 00
	00 01 00 00 00	 mov	 DWORD PTR [esi+532], 1

; 58   : 
; 59   : 	m_pStream = i3FileStream::NewObject();

  00029	e8 00 00 00 00	 call	 ?_NewObject@i3FileStream@@SAPAV1@XZ ; i3FileStream::_NewObject

; 60   : 
; 61   : 	if (!m_pStream->Open(szFileName, STREAM_READ | STREAM_SHAREREAD))

  0002e	6a 00		 push	 0
  00030	89 86 18 02 00
	00		 mov	 DWORD PTR [esi+536], eax
  00036	8b c8		 mov	 ecx, eax
  00038	6a 05		 push	 5
  0003a	8b 10		 mov	 edx, DWORD PTR [eax]
  0003c	53		 push	 ebx
  0003d	ff 52 14	 call	 DWORD PTR [edx+20]
  00040	85 c0		 test	 eax, eax
  00042	75 34		 jne	 SHORT $LN2@OpenFromFi

; 62   : 	{
; 63   : 		I3WARN("Could not open file.\n");

  00044	6a 01		 push	 1
  00046	68 00 00 00 00	 push	 OFFSET ??_C@_0DL@CHHOFFHM@int?5__thiscall?5i3IniParser?3?3Ope@
  0004b	6a 3f		 push	 63			; 0000003fH
  0004d	68 00 00 00 00	 push	 OFFSET ??_C@_0GG@LIGOM@E?3?2Proyectos?2JuegosOnlineproyec@
  00052	e8 00 00 00 00	 call	 ?SetEnv@i3Error@@YAXPBDH0W4I3LOG_TYPE@@@Z ; i3Error::SetEnv
  00057	68 00 00 00 00	 push	 OFFSET ??_C@_0BG@MILPOODI@Could?5not?5open?5file?4?6@
  0005c	e8 00 00 00 00	 call	 ?Log@i3Error@@YAXPBDZZ	; i3Error::Log
  00061	83 c4 14	 add	 esp, 20			; 00000014H

; 64   : 		//I3TRACE( "%s : Could not open file. (%s)\n", __FUNCTION__, szFileName );
; 65   : 		return FALSE;

  00064	33 c0		 xor	 eax, eax
  00066	5e		 pop	 esi

; 76   : 
; 77   : 	return TRUE;
; 78   : }

  00067	5b		 pop	 ebx
  00068	8b 4d fc	 mov	 ecx, DWORD PTR __$ArrayPad$[ebp]
  0006b	33 cd		 xor	 ecx, ebp
  0006d	e8 00 00 00 00	 call	 @__security_check_cookie@4
  00072	8b e5		 mov	 esp, ebp
  00074	5d		 pop	 ebp
  00075	c2 08 00	 ret	 8
$LN2@OpenFromFi:
  00078	57		 push	 edi

; 66   : 	}
; 67   : 
; 68   : 	Open(m_pStream, bAllowDuplicatedSection, TRUE);

  00079	6a 01		 push	 1
  0007b	ff 75 0c	 push	 DWORD PTR _bAllowDuplicatedSection$[ebp]
  0007e	8b ce		 mov	 ecx, esi
  00080	ff b6 18 02 00
	00		 push	 DWORD PTR [esi+536]
  00086	e8 00 00 00 00	 call	 ?Open@i3IniParser@@QAEHPAVi3Stream@@HH@Z ; i3IniParser::Open

; 69   : 
; 70   : 	char szDrive[MAX_PATH];
; 71   : 	char szPath[MAX_PATH];
; 72   : 	char szExt[MAX_PATH];
; 73   : 	_splitpath(szFileName, szDrive, szPath, m_szi3INIFileName, szExt);

  0008b	8d 85 f8 fe ff
	ff		 lea	 eax, DWORD PTR _szExt$[ebp]
  00091	50		 push	 eax
  00092	8d be a9 02 00
	00		 lea	 edi, DWORD PTR [esi+681]
  00098	57		 push	 edi
  00099	8d 85 f4 fd ff
	ff		 lea	 eax, DWORD PTR _szPath$[ebp]
  0009f	50		 push	 eax
  000a0	8d 85 f0 fc ff
	ff		 lea	 eax, DWORD PTR _szDrive$[ebp]
  000a6	50		 push	 eax
  000a7	53		 push	 ebx
  000a8	e8 00 00 00 00	 call	 __splitpath

; 74   : 	i3String::Copy(m_szi3INIFileNameExt, m_szi3INIFileName, MAX_PATH);

  000ad	68 04 01 00 00	 push	 260			; 00000104H
  000b2	81 c6 ad 03 00
	00		 add	 esi, 941		; 000003adH
  000b8	57		 push	 edi
  000b9	56		 push	 esi
  000ba	e8 00 00 00 00	 call	 ?Copy@i3String@@YAXPADPBDH@Z ; i3String::Copy

; 75   : 	i3String::Concat(m_szi3INIFileNameExt, szExt);

  000bf	8d 85 f8 fe ff
	ff		 lea	 eax, DWORD PTR _szExt$[ebp]
  000c5	50		 push	 eax
  000c6	56		 push	 esi
  000c7	e8 00 00 00 00	 call	 ?Concat@i3String@@YAXPADPBD@Z ; i3String::Concat

; 76   : 
; 77   : 	return TRUE;
; 78   : }

  000cc	8b 4d fc	 mov	 ecx, DWORD PTR __$ArrayPad$[ebp]
  000cf	83 c4 28	 add	 esp, 40			; 00000028H
  000d2	33 cd		 xor	 ecx, ebp
  000d4	b8 01 00 00 00	 mov	 eax, 1
  000d9	5f		 pop	 edi
  000da	5e		 pop	 esi
  000db	5b		 pop	 ebx
  000dc	e8 00 00 00 00	 call	 @__security_check_cookie@4
  000e1	8b e5		 mov	 esp, ebp
  000e3	5d		 pop	 ebp
  000e4	c2 08 00	 ret	 8
?OpenFromFile@i3IniParser@@QAEHPBDH@Z ENDP		; i3IniParser::OpenFromFile
_TEXT	ENDS
; Function compile flags: /Ogtp
; File E:\Proyectos\JuegosOnlineproyectos\PB\pbblow\Piercing Blow Remake\i3Server\include\i3Base\i3IniParser.h
;	COMDAT ?GetTempBuffer@i3IniParser@@QAEPADXZ
_TEXT	SEGMENT
?GetTempBuffer@i3IniParser@@QAEPADXZ PROC		; i3IniParser::GetTempBuffer, COMDAT
; _this$ = ecx

; 71   : 	char* GetTempBuffer() { return m_szTemp; }

  00000	8d 41 10	 lea	 eax, DWORD PTR [ecx+16]
  00003	c3		 ret	 0
?GetTempBuffer@i3IniParser@@QAEPADXZ ENDP		; i3IniParser::GetTempBuffer
_TEXT	ENDS
; Function compile flags: /Ogtp
; File E:\Proyectos\JuegosOnlineproyectos\PB\pbblow\Piercing Blow Remake\i3Server\src\i3Base\i3IniParser.cpp
;	COMDAT ?Create@i3IniParser@@QAEHPBD@Z
_TEXT	SEGMENT
_szFileName$ = 8					; size = 4
?Create@i3IniParser@@QAEHPBD@Z PROC			; i3IniParser::Create, COMDAT
; _this$ = ecx

; 35   : {

  00000	55		 push	 ebp
  00001	8b ec		 mov	 ebp, esp
  00003	56		 push	 esi
  00004	8b f1		 mov	 esi, ecx

; 36   : 	Close();

  00006	e8 00 00 00 00	 call	 ?Close@i3IniParser@@QAEXXZ ; i3IniParser::Close

; 37   : 
; 38   : 	m_bFromFile = TRUE;

  0000b	c7 86 14 02 00
	00 01 00 00 00	 mov	 DWORD PTR [esi+532], 1

; 39   : 
; 40   : 	m_pStream = i3FileStream::NewObject();

  00015	e8 00 00 00 00	 call	 ?_NewObject@i3FileStream@@SAPAV1@XZ ; i3FileStream::_NewObject

; 41   : 
; 42   : 	if (!m_pStream->Create(szFileName, STREAM_WRITE))

  0001a	6a 00		 push	 0
  0001c	89 86 18 02 00
	00		 mov	 DWORD PTR [esi+536], eax
  00022	8b c8		 mov	 ecx, eax
  00024	6a 02		 push	 2
  00026	8b 10		 mov	 edx, DWORD PTR [eax]
  00028	ff 75 08	 push	 DWORD PTR _szFileName$[ebp]
  0002b	ff 52 10	 call	 DWORD PTR [edx+16]
  0002e	5e		 pop	 esi
  0002f	85 c0		 test	 eax, eax
  00031	75 26		 jne	 SHORT $LN2@Create

; 43   : 	{
; 44   : 		I3WARN("Could not create file.\n");

  00033	6a 01		 push	 1
  00035	68 00 00 00 00	 push	 OFFSET ??_C@_0DB@ONEFMAII@int?5__thiscall?5i3IniParser?3?3Cre@
  0003a	6a 2c		 push	 44			; 0000002cH
  0003c	68 00 00 00 00	 push	 OFFSET ??_C@_0GG@LIGOM@E?3?2Proyectos?2JuegosOnlineproyec@
  00041	e8 00 00 00 00	 call	 ?SetEnv@i3Error@@YAXPBDH0W4I3LOG_TYPE@@@Z ; i3Error::SetEnv
  00046	68 00 00 00 00	 push	 OFFSET ??_C@_0BI@GMCEFIID@Could?5not?5create?5file?4?6@
  0004b	e8 00 00 00 00	 call	 ?Log@i3Error@@YAXPBDZZ	; i3Error::Log
  00050	83 c4 14	 add	 esp, 20			; 00000014H

; 45   : 		//I3TRACE( "%s : Could not create file. (%s)\n", __FUNCTION__, szFileName );
; 46   : 		return FALSE;

  00053	33 c0		 xor	 eax, eax

; 50   : }

  00055	5d		 pop	 ebp
  00056	c2 04 00	 ret	 4
$LN2@Create:

; 47   : 	}
; 48   : 
; 49   : 	return TRUE;

  00059	b8 01 00 00 00	 mov	 eax, 1

; 50   : }

  0005e	5d		 pop	 ebp
  0005f	c2 04 00	 ret	 4
?Create@i3IniParser@@QAEHPBD@Z ENDP			; i3IniParser::Create
_TEXT	ENDS
; Function compile flags: /Ogtp
; File E:\Proyectos\JuegosOnlineproyectos\PB\pbblow\Piercing Blow Remake\i3Server\src\i3Base\i3IniParser.cpp
;	COMDAT ?Close@i3IniParser@@QAEXXZ
_TEXT	SEGMENT
?Close@i3IniParser@@QAEXXZ PROC				; i3IniParser::Close, COMDAT
; _this$ = ecx

; 81   : {

  00000	56		 push	 esi
  00001	8b f1		 mov	 esi, ecx

; 82   : 	if (m_bFromFile)

  00003	83 be 14 02 00
	00 00		 cmp	 DWORD PTR [esi+532], 0
  0000a	74 19		 je	 SHORT $LN5@Close

; 83   : 	{
; 84   : 		m_bFromFile = FALSE;
; 85   : 		I3_SAFE_RELEASE(m_pStream);

  0000c	8b 8e 18 02 00
	00		 mov	 ecx, DWORD PTR [esi+536]
  00012	c7 86 14 02 00
	00 00 00 00 00	 mov	 DWORD PTR [esi+532], 0
  0001c	85 c9		 test	 ecx, ecx
  0001e	74 0f		 je	 SHORT $LN6@Close
  00020	e8 00 00 00 00	 call	 ?Release@i3ElementBase@@QAEXXZ ; i3ElementBase::Release
$LN5@Close:

; 86   : 	}
; 87   : 	else
; 88   : 	{
; 89   : 		m_pStream = NULL;
; 90   : 	}
; 91   : 
; 92   : 
; 93   : 	INT32 i;
; 94   : 
; 95   : 	for (i = 0; i < m_pSectionList->GetCount(); i++)

  00025	c7 86 18 02 00
	00 00 00 00 00	 mov	 DWORD PTR [esi+536], 0
$LN6@Close:
  0002f	8b 8e 1c 02 00
	00		 mov	 ecx, DWORD PTR [esi+540]
  00035	57		 push	 edi
  00036	33 ff		 xor	 edi, edi
  00038	39 79 14	 cmp	 DWORD PTR [ecx+20], edi
  0003b	7e 24		 jle	 SHORT $LN3@Close
  0003d	8d 49 00	 npad	 3
$LL4@Close:

; 96   : 	{
; 97   : 		void* p = m_pSectionList->Items[i];
; 98   : 
; 99   : 		i3MemFree(p);

  00040	8b 41 24	 mov	 eax, DWORD PTR [ecx+36]
  00043	6a 63		 push	 99			; 00000063H
  00045	68 00 00 00 00	 push	 OFFSET ??_C@_0GG@LIGOM@E?3?2Proyectos?2JuegosOnlineproyec@
  0004a	ff 34 b8	 push	 DWORD PTR [eax+edi*4]
  0004d	e8 00 00 00 00	 call	 ?FreeTool@i3mem@@YAXPAXPBDH@Z ; i3mem::FreeTool
  00052	8b 8e 1c 02 00
	00		 mov	 ecx, DWORD PTR [esi+540]
  00058	47		 inc	 edi
  00059	83 c4 0c	 add	 esp, 12			; 0000000cH
  0005c	3b 79 14	 cmp	 edi, DWORD PTR [ecx+20]
  0005f	7c df		 jl	 SHORT $LL4@Close
$LN3@Close:

; 100  : 	}
; 101  : 
; 102  : 	m_pSectionList->Clear();

  00061	8b 01		 mov	 eax, DWORD PTR [ecx]
  00063	6a 00		 push	 0
  00065	ff 50 20	 call	 DWORD PTR [eax+32]

; 103  : 	I3MEM_SAFE_FREE_POINTER(m_pValueTable);

  00068	8b 86 a0 02 00
	00		 mov	 eax, DWORD PTR [esi+672]
  0006e	5f		 pop	 edi
  0006f	85 c0		 test	 eax, eax
  00071	74 1a		 je	 SHORT $LN14@Close
  00073	6a 67		 push	 103			; 00000067H
  00075	68 00 00 00 00	 push	 OFFSET ??_C@_0GG@LIGOM@E?3?2Proyectos?2JuegosOnlineproyec@
  0007a	50		 push	 eax
  0007b	e8 00 00 00 00	 call	 ?FreeTool@i3mem@@YAXPAXPBDH@Z ; i3mem::FreeTool
  00080	83 c4 0c	 add	 esp, 12			; 0000000cH
  00083	c7 86 a0 02 00
	00 00 00 00 00	 mov	 DWORD PTR [esi+672], 0
$LN14@Close:

; 104  : 
; 105  : 	m_nNumValues = 0;
; 106  : }

  0008d	c7 86 a4 02 00
	00 00 00 00 00	 mov	 DWORD PTR [esi+676], 0
  00097	5e		 pop	 esi
  00098	c3		 ret	 0
?Close@i3IniParser@@QAEXXZ ENDP				; i3IniParser::Close
_TEXT	ENDS
; Function compile flags: /Ogtp
; File E:\Proyectos\JuegosOnlineproyectos\PB\pbblow\Piercing Blow Remake\i3Server\src\i3Base\i3IniParser.cpp
;	COMDAT ??1i3IniParser@@UAE@XZ
_TEXT	SEGMENT
__$EHRec$ = -12						; size = 12
??1i3IniParser@@UAE@XZ PROC				; i3IniParser::~i3IniParser, COMDAT
; _this$ = ecx

; 28   : {

  00000	55		 push	 ebp
  00001	8b ec		 mov	 ebp, esp
  00003	6a ff		 push	 -1
  00005	68 00 00 00 00	 push	 __ehhandler$??1i3IniParser@@UAE@XZ
  0000a	64 a1 00 00 00
	00		 mov	 eax, DWORD PTR fs:0
  00010	50		 push	 eax
  00011	56		 push	 esi
  00012	a1 00 00 00 00	 mov	 eax, DWORD PTR ___security_cookie
  00017	33 c5		 xor	 eax, ebp
  00019	50		 push	 eax
  0001a	8d 45 f4	 lea	 eax, DWORD PTR __$EHRec$[ebp]
  0001d	64 a3 00 00 00
	00		 mov	 DWORD PTR fs:0, eax
  00023	8b f1		 mov	 esi, ecx
  00025	c7 06 00 00 00
	00		 mov	 DWORD PTR [esi], OFFSET ??_7i3IniParser@@6B@

; 29   : 	Close();

  0002b	e8 00 00 00 00	 call	 ?Close@i3IniParser@@QAEXXZ ; i3IniParser::Close

; 30   : 	I3_SAFE_RELEASE(m_pSectionList);

  00030	8b 8e 1c 02 00
	00		 mov	 ecx, DWORD PTR [esi+540]
  00036	85 c9		 test	 ecx, ecx
  00038	74 0f		 je	 SHORT $LN2@i3IniParse
  0003a	e8 00 00 00 00	 call	 ?Release@i3ElementBase@@QAEXXZ ; i3ElementBase::Release
  0003f	c7 86 1c 02 00
	00 00 00 00 00	 mov	 DWORD PTR [esi+540], 0
$LN2@i3IniParse:

; 31   : }

  00049	8b ce		 mov	 ecx, esi
  0004b	e8 00 00 00 00	 call	 ??1i3ElementBase@@UAE@XZ ; i3ElementBase::~i3ElementBase
  00050	8b 4d f4	 mov	 ecx, DWORD PTR __$EHRec$[ebp]
  00053	64 89 0d 00 00
	00 00		 mov	 DWORD PTR fs:0, ecx
  0005a	59		 pop	 ecx
  0005b	5e		 pop	 esi
  0005c	8b e5		 mov	 esp, ebp
  0005e	5d		 pop	 ebp
  0005f	c3		 ret	 0
  00060	cc		 int	 3
  00061	cc		 int	 3
  00062	cc		 int	 3
  00063	cc		 int	 3
  00064	cc		 int	 3
_TEXT	ENDS
;	COMDAT text$x
text$x	SEGMENT
__ehhandler$??1i3IniParser@@UAE@XZ:
  00000	90		 npad	 1
  00001	90		 npad	 1
  00002	8b 54 24 08	 mov	 edx, DWORD PTR [esp+8]
  00006	8d 42 0c	 lea	 eax, DWORD PTR [edx+12]
  00009	8b 4a f8	 mov	 ecx, DWORD PTR [edx-8]
  0000c	33 c8		 xor	 ecx, eax
  0000e	e8 00 00 00 00	 call	 @__security_check_cookie@4
  00013	b8 00 00 00 00	 mov	 eax, OFFSET __ehfuncinfo$??1i3IniParser@@UAE@XZ
  00018	e9 00 00 00 00	 jmp	 ___CxxFrameHandler3
text$x	ENDS
??1i3IniParser@@UAE@XZ ENDP				; i3IniParser::~i3IniParser
; Function compile flags: /Ogtp
; File E:\Proyectos\JuegosOnlineproyectos\PB\pbblow\Piercing Blow Remake\i3Server\src\i3Base\i3IniParser.cpp
;	COMDAT ??0i3IniParser@@QAE@XZ
_TEXT	SEGMENT
_this$ = -16						; size = 4
__$EHRec$ = -12						; size = 12
??0i3IniParser@@QAE@XZ PROC				; i3IniParser::i3IniParser, COMDAT
; _this$ = ecx

; 15   : {

  00000	55		 push	 ebp
  00001	8b ec		 mov	 ebp, esp
  00003	6a ff		 push	 -1
  00005	68 00 00 00 00	 push	 __ehhandler$??0i3IniParser@@QAE@XZ
  0000a	64 a1 00 00 00
	00		 mov	 eax, DWORD PTR fs:0
  00010	50		 push	 eax
  00011	51		 push	 ecx
  00012	56		 push	 esi
  00013	a1 00 00 00 00	 mov	 eax, DWORD PTR ___security_cookie
  00018	33 c5		 xor	 eax, ebp
  0001a	50		 push	 eax
  0001b	8d 45 f4	 lea	 eax, DWORD PTR __$EHRec$[ebp]
  0001e	64 a3 00 00 00
	00		 mov	 DWORD PTR fs:0, eax
  00024	8b f1		 mov	 esi, ecx
  00026	89 75 f0	 mov	 DWORD PTR _this$[ebp], esi
  00029	e8 00 00 00 00	 call	 ??0i3ElementBase@@QAE@XZ ; i3ElementBase::i3ElementBase
  0002e	c7 45 fc 00 00
	00 00		 mov	 DWORD PTR __$EHRec$[ebp+8], 0
  00035	c7 06 00 00 00
	00		 mov	 DWORD PTR [esi], OFFSET ??_7i3IniParser@@6B@

; 16   : 	m_pStream = NULL;

  0003b	c7 86 18 02 00
	00 00 00 00 00	 mov	 DWORD PTR [esi+536], 0

; 17   : 	m_pSectionList = i3List::NewObject();

  00045	e8 00 00 00 00	 call	 ?_NewObject@i3List@@SAPAV1@XZ ; i3List::_NewObject
  0004a	89 86 1c 02 00
	00		 mov	 DWORD PTR [esi+540], eax

; 18   : 	m_pValueTable = NULL;
; 19   : 	m_nNumValues = 0;
; 20   : 	m_szSectionName[0] = 0;
; 21   : 	m_bFromFile = FALSE;
; 22   : 	m_bAllowDuplicatedSection = FALSE;
; 23   : 
; 24   : 	m_bUnicode = false;
; 25   : }

  00050	8b c6		 mov	 eax, esi
  00052	c7 86 a0 02 00
	00 00 00 00 00	 mov	 DWORD PTR [esi+672], 0
  0005c	c7 86 a4 02 00
	00 00 00 00 00	 mov	 DWORD PTR [esi+676], 0
  00066	c6 86 20 02 00
	00 00		 mov	 BYTE PTR [esi+544], 0
  0006d	c7 86 14 02 00
	00 00 00 00 00	 mov	 DWORD PTR [esi+532], 0
  00077	c7 86 10 02 00
	00 00 00 00 00	 mov	 DWORD PTR [esi+528], 0
  00081	c6 86 a8 02 00
	00 00		 mov	 BYTE PTR [esi+680], 0
  00088	8b 4d f4	 mov	 ecx, DWORD PTR __$EHRec$[ebp]
  0008b	64 89 0d 00 00
	00 00		 mov	 DWORD PTR fs:0, ecx
  00092	59		 pop	 ecx
  00093	5e		 pop	 esi
  00094	8b e5		 mov	 esp, ebp
  00096	5d		 pop	 ebp
  00097	c3		 ret	 0
_TEXT	ENDS
;	COMDAT text$x
text$x	SEGMENT
__unwindfunclet$??0i3IniParser@@QAE@XZ$0:
  00000	8b 4d f0	 mov	 ecx, DWORD PTR _this$[ebp]
  00003	e9 00 00 00 00	 jmp	 ??1i3ElementBase@@UAE@XZ ; i3ElementBase::~i3ElementBase
  00008	cc		 int	 3
  00009	cc		 int	 3
  0000a	cc		 int	 3
  0000b	cc		 int	 3
  0000c	cc		 int	 3
__ehhandler$??0i3IniParser@@QAE@XZ:
  0000d	90		 npad	 1
  0000e	90		 npad	 1
  0000f	8b 54 24 08	 mov	 edx, DWORD PTR [esp+8]
  00013	8d 42 0c	 lea	 eax, DWORD PTR [edx+12]
  00016	8b 4a f4	 mov	 ecx, DWORD PTR [edx-12]
  00019	33 c8		 xor	 ecx, eax
  0001b	e8 00 00 00 00	 call	 @__security_check_cookie@4
  00020	b8 00 00 00 00	 mov	 eax, OFFSET __ehfuncinfo$??0i3IniParser@@QAE@XZ
  00025	e9 00 00 00 00	 jmp	 ___CxxFrameHandler3
text$x	ENDS
??0i3IniParser@@QAE@XZ ENDP				; i3IniParser::i3IniParser
; Function compile flags: /Ogtp
; File E:\Proyectos\JuegosOnlineproyectos\PB\pbblow\Piercing Blow Remake\i3Server\src\i3Base\i3IniParser.cpp
; File E:\Proyectos\JuegosOnlineproyectos\PB\pbblow\Piercing Blow Remake\i3Server\include\i3Base\i3Memory.h
; File C:\Program Files (x86)\Windows Kits\10\Include\10.0.26100.0\um\winnt.h
; File E:\Proyectos\JuegosOnlineproyectos\PB\pbblow\Piercing Blow Remake\i3Server\src\i3Base\i3IniParser.cpp
;	COMDAT ?_ReadLine@i3IniParser@@IAEIPAD@Z
_TEXT	SEGMENT
_szReadLine$ = -1028					; size = 1024
__$ArrayPad$ = -4					; size = 4
_szLine$ = 8						; size = 4
?_ReadLine@i3IniParser@@IAEIPAD@Z PROC			; i3IniParser::_ReadLine, COMDAT
; _this$ = ecx

; 111  : {

  00000	55		 push	 ebp
  00001	8b ec		 mov	 ebp, esp
  00003	81 ec 04 04 00
	00		 sub	 esp, 1028		; 00000404H
  00009	a1 00 00 00 00	 mov	 eax, DWORD PTR ___security_cookie
  0000e	33 c5		 xor	 eax, ebp
  00010	89 45 fc	 mov	 DWORD PTR __$ArrayPad$[ebp], eax
  00013	56		 push	 esi
  00014	57		 push	 edi
  00015	8b 7d 08	 mov	 edi, DWORD PTR _szLine$[ebp]

; 112  : 	UINT32 readsize = 0;
; 113  : 	WCHAR16 szReadLine[READBUF_SIZE] = L"";

  00018	33 c0		 xor	 eax, eax
  0001a	68 fe 03 00 00	 push	 1022			; 000003feH
  0001f	50		 push	 eax
  00020	66 89 85 fc fb
	ff ff		 mov	 WORD PTR _szReadLine$[ebp], ax
  00027	8b f1		 mov	 esi, ecx
  00029	8d 85 fe fb ff
	ff		 lea	 eax, DWORD PTR _szReadLine$[ebp+2]
  0002f	50		 push	 eax
  00030	e8 00 00 00 00	 call	 _memset
  00035	83 c4 0c	 add	 esp, 12			; 0000000cH
; File E:\Proyectos\JuegosOnlineproyectos\PB\pbblow\Piercing Blow Remake\i3Server\include\i3Base\i3Memory.h

; 144  : 			::SecureZeroMemory( pDest, sz);

  00038	b9 00 04 00 00	 mov	 ecx, 1024		; 00000400H
; File C:\Program Files (x86)\Windows Kits\10\Include\10.0.26100.0\um\winnt.h

; 23413:     volatile char *vptr = (volatile char *)ptr;

  0003d	8b c7		 mov	 eax, edi
  0003f	90		 npad	 1
$LL8@ReadLine:

; 23414: 
; 23415: #if defined(_M_AMD64) && !defined(_M_ARM64EC)
; 23416: 
; 23417:     __stosb((PBYTE )((DWORD64)vptr), 0, cnt);
; 23418: 
; 23419: #else
; 23420: 
; 23421:     while (cnt) {
; 23422: 
; 23423: #if !defined(_M_CEE) && (defined(_M_ARM) || defined(_M_ARM64) || defined(_M_ARM64EC))
; 23424: 
; 23425:         __iso_volatile_store8(vptr, 0);
; 23426: 
; 23427: #else
; 23428: 
; 23429:         *vptr = 0;

  00040	c6 00 00	 mov	 BYTE PTR [eax], 0

; 23430: 
; 23431: #endif
; 23432: 
; 23433:         vptr++;

  00043	8d 40 01	 lea	 eax, DWORD PTR [eax+1]

; 23434:         cnt--;

  00046	83 e9 01	 sub	 ecx, 1
  00049	75 f5		 jne	 SHORT $LL8@ReadLine
; File E:\Proyectos\JuegosOnlineproyectos\PB\pbblow\Piercing Blow Remake\i3Server\src\i3Base\i3IniParser.cpp

; 116  : 	if (m_bUnicode)

  0004b	80 be a8 02 00
	00 00		 cmp	 BYTE PTR [esi+680], 0
  00052	8b 8e 18 02 00
	00		 mov	 ecx, DWORD PTR [esi+536]
  00058	8b 01		 mov	 eax, DWORD PTR [ecx]
  0005a	74 54		 je	 SHORT $LN2@ReadLine

; 117  : 	{
; 118  : 		readsize = m_pStream->ReadLineW(szReadLine, READBUF_SIZE);

  0005c	68 00 02 00 00	 push	 512			; 00000200H
  00061	8d 95 fc fb ff
	ff		 lea	 edx, DWORD PTR _szReadLine$[ebp]
  00067	52		 push	 edx
  00068	ff 50 38	 call	 DWORD PTR [eax+56]

; 119  : 
; 120  : 		WideCharToMultiByte(i3Language::GetCurrentCodePage(), 0, szReadLine, i3String::Length(szReadLine), szLine, READBUF_SIZE * 2, NULL, NULL);

  0006b	6a 00		 push	 0
  0006d	6a 00		 push	 0
  0006f	68 00 04 00 00	 push	 1024			; 00000400H
  00074	8b f0		 mov	 esi, eax
  00076	8d 85 fc fb ff
	ff		 lea	 eax, DWORD PTR _szReadLine$[ebp]
  0007c	57		 push	 edi
  0007d	50		 push	 eax
  0007e	e8 00 00 00 00	 call	 ?Length@i3String@@YAHPBG@Z ; i3String::Length
  00083	83 c4 04	 add	 esp, 4
  00086	50		 push	 eax
  00087	8d 85 fc fb ff
	ff		 lea	 eax, DWORD PTR _szReadLine$[ebp]
  0008d	50		 push	 eax
  0008e	6a 00		 push	 0
  00090	e8 00 00 00 00	 call	 ?GetCurrentCodePage@i3Language@@YAIXZ ; i3Language::GetCurrentCodePage
  00095	50		 push	 eax
  00096	ff 15 00 00 00
	00		 call	 DWORD PTR __imp__WideCharToMultiByte@32
  0009c	5f		 pop	 edi

; 127  : 	}
; 128  : 
; 129  : 	return readsize;

  0009d	8b c6		 mov	 eax, esi

; 130  : }

  0009f	5e		 pop	 esi
  000a0	8b 4d fc	 mov	 ecx, DWORD PTR __$ArrayPad$[ebp]
  000a3	33 cd		 xor	 ecx, ebp
  000a5	e8 00 00 00 00	 call	 @__security_check_cookie@4
  000aa	8b e5		 mov	 esp, ebp
  000ac	5d		 pop	 ebp
  000ad	c2 04 00	 ret	 4
$LN2@ReadLine:

; 121  : 
; 122  : 		I3ASSERT(i3String::Length(szLine) < READBUF_SIZE * 2);
; 123  : 	}
; 124  : 	else
; 125  : 	{
; 126  : 		readsize = m_pStream->ReadLine(szLine, READBUF_SIZE * 2);

  000b0	68 00 04 00 00	 push	 1024			; 00000400H
  000b5	57		 push	 edi
  000b6	ff 50 34	 call	 DWORD PTR [eax+52]

; 130  : }

  000b9	8b 4d fc	 mov	 ecx, DWORD PTR __$ArrayPad$[ebp]
  000bc	5f		 pop	 edi
  000bd	33 cd		 xor	 ecx, ebp
  000bf	5e		 pop	 esi
  000c0	e8 00 00 00 00	 call	 @__security_check_cookie@4
  000c5	8b e5		 mov	 esp, ebp
  000c7	5d		 pop	 ebp
  000c8	c2 04 00	 ret	 4
?_ReadLine@i3IniParser@@IAEIPAD@Z ENDP			; i3IniParser::_ReadLine
_TEXT	ENDS
; Function compile flags: /Ogtp
; File E:\Proyectos\JuegosOnlineproyectos\PB\pbblow\Piercing Blow Remake\i3Server\src\i3Base\i3IniParser.cpp
;	COMDAT ?DeleteAllValues@i3IniParser@@IAEXXZ
_TEXT	SEGMENT
?DeleteAllValues@i3IniParser@@IAEXXZ PROC		; i3IniParser::DeleteAllValues, COMDAT
; _this$ = ecx

; 418  : }

  00000	c2 00 00	 ret	 0
?DeleteAllValues@i3IniParser@@IAEXXZ ENDP		; i3IniParser::DeleteAllValues
_TEXT	ENDS
; Function compile flags: /Ogtp
; File E:\Proyectos\JuegosOnlineproyectos\PB\pbblow\Piercing Blow Remake\i3Server\src\i3Base\i3IniParser.cpp
;	COMDAT ?ProcessString@i3IniParser@@IAEHPADPBDH@Z
_TEXT	SEGMENT
_nLen$1$ = -4						; size = 4
_szOut$ = 8						; size = 4
_szInput$ = 12						; size = 4
_nOutBufLength$ = 16					; size = 4
?ProcessString@i3IniParser@@IAEHPADPBDH@Z PROC		; i3IniParser::ProcessString, COMDAT
; _this$ = ecx

; 338  : {

  00000	55		 push	 ebp
  00001	8b ec		 mov	 ebp, esp
  00003	51		 push	 ecx
  00004	53		 push	 ebx

; 339  : 	INT32 nLen = i3String::Length((char*)szInput);

  00005	8b 5d 0c	 mov	 ebx, DWORD PTR _szInput$[ebp]
  00008	56		 push	 esi
  00009	57		 push	 edi
  0000a	53		 push	 ebx
  0000b	e8 00 00 00 00	 call	 ?Length@i3String@@YAHPBD@Z ; i3String::Length

; 340  : 	INT32 nCur = 0;
; 341  : 
; 342  : 	I3ASSERT(nOutBufLength != 0);
; 343  : 
; 344  : 	for (INT32 i = 0; i < nLen; i++)

  00010	8b 55 10	 mov	 edx, DWORD PTR _nOutBufLength$[ebp]
  00013	83 c4 04	 add	 esp, 4
  00016	8b 7d 08	 mov	 edi, DWORD PTR _szOut$[ebp]
  00019	33 c9		 xor	 ecx, ecx
  0001b	33 f6		 xor	 esi, esi
  0001d	89 45 fc	 mov	 DWORD PTR _nLen$1$[ebp], eax
  00020	85 c0		 test	 eax, eax
  00022	7e 6d		 jle	 SHORT $LN3@ProcessStr
$LL4@ProcessStr:

; 345  : 	{
; 346  : 		//BOOL bCopy = TRUE;
; 347  : 
; 348  : 		switch (szInput[i])

  00024	8a 1c 33	 mov	 bl, BYTE PTR [ebx+esi]
  00027	0f be c3	 movsx	 eax, bl
  0002a	83 c0 f6	 add	 eax, -10		; fffffff6H
  0002d	83 f8 52	 cmp	 eax, 82			; 00000052H
  00030	77 4a		 ja	 SHORT $LN15@ProcessStr
  00032	0f b6 80 00 00
	00 00		 movzx	 eax, BYTE PTR $LN29@ProcessStr[eax]
  00039	ff 24 85 00 00
	00 00		 jmp	 DWORD PTR $LN30@ProcessStr[eax*4]
$LN7@ProcessStr:

; 349  : 		{
; 350  : 		case '\\':
; 351  : 		case '"':
; 352  : 		{
; 353  : 			if (nOutBufLength > 0 && nCur >= nOutBufLength) return FALSE;

  00040	85 d2		 test	 edx, edx
  00042	7e 04		 jle	 SHORT $LN9@ProcessStr
  00044	3b ca		 cmp	 ecx, edx
  00046	7d 51		 jge	 SHORT $LN28@ProcessStr
$LN9@ProcessStr:

; 354  : 			szOut[nCur++] = '\\';

  00048	c6 04 39 5c	 mov	 BYTE PTR [ecx+edi], 92	; 0000005cH
  0004c	41		 inc	 ecx

; 355  : 
; 356  : 			if (nOutBufLength > 0 && nCur >= nOutBufLength) return FALSE;

  0004d	85 d2		 test	 edx, edx
  0004f	7e 04		 jle	 SHORT $LN10@ProcessStr
  00051	3b ca		 cmp	 ecx, edx
  00053	7d 44		 jge	 SHORT $LN28@ProcessStr
$LN10@ProcessStr:

; 357  : 			szOut[nCur++] = szInput[i];

  00055	8b 5d 0c	 mov	 ebx, DWORD PTR _szInput$[ebp]
  00058	8a 04 33	 mov	 al, BYTE PTR [ebx+esi]
  0005b	88 04 39	 mov	 BYTE PTR [ecx+edi], al
  0005e	41		 inc	 ecx

; 358  : 		}
; 359  : 		break;

  0005f	eb 2a		 jmp	 SHORT $LN2@ProcessStr
$LN12@ProcessStr:

; 360  : 
; 361  : 		case '\r': continue;
; 362  : 
; 363  : 		case '\n':
; 364  : 		{
; 365  : 			if (nOutBufLength > 0 && nCur >= nOutBufLength) return FALSE;

  00061	85 d2		 test	 edx, edx
  00063	7e 04		 jle	 SHORT $LN13@ProcessStr
  00065	3b ca		 cmp	 ecx, edx
  00067	7d 30		 jge	 SHORT $LN28@ProcessStr
$LN13@ProcessStr:

; 366  : 			szOut[nCur++] = '\\';

  00069	c6 04 39 5c	 mov	 BYTE PTR [ecx+edi], 92	; 0000005cH
  0006d	41		 inc	 ecx

; 367  : 
; 368  : 			if (nOutBufLength > 0 && nCur >= nOutBufLength) return FALSE;

  0006e	85 d2		 test	 edx, edx
  00070	7e 04		 jle	 SHORT $LN14@ProcessStr
  00072	3b ca		 cmp	 ecx, edx
  00074	7d 23		 jge	 SHORT $LN28@ProcessStr
$LN14@ProcessStr:

; 369  : 			szOut[nCur++] = 'n';

  00076	c6 04 39 6e	 mov	 BYTE PTR [ecx+edi], 110	; 0000006eH

; 370  : 		}
; 371  : 		break;

  0007a	eb 0b		 jmp	 SHORT $LN40@ProcessStr
$LN15@ProcessStr:

; 372  : 
; 373  : 		default:
; 374  : 		{
; 375  : 			if (nOutBufLength > 0 && nCur >= nOutBufLength) return FALSE;

  0007c	85 d2		 test	 edx, edx
  0007e	7e 04		 jle	 SHORT $LN16@ProcessStr
  00080	3b ca		 cmp	 ecx, edx
  00082	7d 15		 jge	 SHORT $LN28@ProcessStr
$LN16@ProcessStr:

; 376  : 			szOut[nCur++] = szInput[i];

  00084	88 1c 39	 mov	 BYTE PTR [ecx+edi], bl
$LN40@ProcessStr:

; 340  : 	INT32 nCur = 0;
; 341  : 
; 342  : 	I3ASSERT(nOutBufLength != 0);
; 343  : 
; 344  : 	for (INT32 i = 0; i < nLen; i++)

  00087	41		 inc	 ecx
$LN31@ProcessStr:
  00088	8b 5d 0c	 mov	 ebx, DWORD PTR _szInput$[ebp]
$LN2@ProcessStr:
  0008b	46		 inc	 esi
  0008c	3b 75 fc	 cmp	 esi, DWORD PTR _nLen$1$[ebp]
  0008f	7c 93		 jl	 SHORT $LL4@ProcessStr
$LN3@ProcessStr:

; 377  : 		}
; 378  : 		break;
; 379  : 		}
; 380  : 	}
; 381  : 
; 382  : 	if (nOutBufLength > 0 && nCur >= nOutBufLength) return FALSE;

  00091	85 d2		 test	 edx, edx
  00093	7e 0f		 jle	 SHORT $LN17@ProcessStr
  00095	3b ca		 cmp	 ecx, edx
  00097	7c 0b		 jl	 SHORT $LN17@ProcessStr
$LN28@ProcessStr:
  00099	5f		 pop	 edi

; 386  : }

  0009a	5e		 pop	 esi
  0009b	33 c0		 xor	 eax, eax
  0009d	5b		 pop	 ebx
  0009e	8b e5		 mov	 esp, ebp
  000a0	5d		 pop	 ebp
  000a1	c2 0c 00	 ret	 12			; 0000000cH
$LN17@ProcessStr:

; 383  : 	szOut[nCur++] = '\0';

  000a4	c6 04 39 00	 mov	 BYTE PTR [ecx+edi], 0

; 384  : 
; 385  : 	return TRUE;

  000a8	b8 01 00 00 00	 mov	 eax, 1
  000ad	5f		 pop	 edi

; 386  : }

  000ae	5e		 pop	 esi
  000af	5b		 pop	 ebx
  000b0	8b e5		 mov	 esp, ebp
  000b2	5d		 pop	 ebp
  000b3	c2 0c 00	 ret	 12			; 0000000cH
  000b6	8b ff		 npad	 2
$LN30@ProcessStr:
  000b8	00 00 00 00	 DD	 $LN12@ProcessStr
  000bc	00 00 00 00	 DD	 $LN31@ProcessStr
  000c0	00 00 00 00	 DD	 $LN7@ProcessStr
  000c4	00 00 00 00	 DD	 $LN15@ProcessStr
$LN29@ProcessStr:
  000c8	00		 DB	 0
  000c9	03		 DB	 3
  000ca	03		 DB	 3
  000cb	01		 DB	 1
  000cc	03		 DB	 3
  000cd	03		 DB	 3
  000ce	03		 DB	 3
  000cf	03		 DB	 3
  000d0	03		 DB	 3
  000d1	03		 DB	 3
  000d2	03		 DB	 3
  000d3	03		 DB	 3
  000d4	03		 DB	 3
  000d5	03		 DB	 3
  000d6	03		 DB	 3
  000d7	03		 DB	 3
  000d8	03		 DB	 3
  000d9	03		 DB	 3
  000da	03		 DB	 3
  000db	03		 DB	 3
  000dc	03		 DB	 3
  000dd	03		 DB	 3
  000de	03		 DB	 3
  000df	03		 DB	 3
  000e0	02		 DB	 2
  000e1	03		 DB	 3
  000e2	03		 DB	 3
  000e3	03		 DB	 3
  000e4	03		 DB	 3
  000e5	03		 DB	 3
  000e6	03		 DB	 3
  000e7	03		 DB	 3
  000e8	03		 DB	 3
  000e9	03		 DB	 3
  000ea	03		 DB	 3
  000eb	03		 DB	 3
  000ec	03		 DB	 3
  000ed	03		 DB	 3
  000ee	03		 DB	 3
  000ef	03		 DB	 3
  000f0	03		 DB	 3
  000f1	03		 DB	 3
  000f2	03		 DB	 3
  000f3	03		 DB	 3
  000f4	03		 DB	 3
  000f5	03		 DB	 3
  000f6	03		 DB	 3
  000f7	03		 DB	 3
  000f8	03		 DB	 3
  000f9	03		 DB	 3
  000fa	03		 DB	 3
  000fb	03		 DB	 3
  000fc	03		 DB	 3
  000fd	03		 DB	 3
  000fe	03		 DB	 3
  000ff	03		 DB	 3
  00100	03		 DB	 3
  00101	03		 DB	 3
  00102	03		 DB	 3
  00103	03		 DB	 3
  00104	03		 DB	 3
  00105	03		 DB	 3
  00106	03		 DB	 3
  00107	03		 DB	 3
  00108	03		 DB	 3
  00109	03		 DB	 3
  0010a	03		 DB	 3
  0010b	03		 DB	 3
  0010c	03		 DB	 3
  0010d	03		 DB	 3
  0010e	03		 DB	 3
  0010f	03		 DB	 3
  00110	03		 DB	 3
  00111	03		 DB	 3
  00112	03		 DB	 3
  00113	03		 DB	 3
  00114	03		 DB	 3
  00115	03		 DB	 3
  00116	03		 DB	 3
  00117	03		 DB	 3
  00118	03		 DB	 3
  00119	03		 DB	 3
  0011a	02		 DB	 2
?ProcessString@i3IniParser@@IAEHPADPBDH@Z ENDP		; i3IniParser::ProcessString
_TEXT	ENDS
; Function compile flags: /Ogtp
; File E:\Proyectos\JuegosOnlineproyectos\PB\pbblow\Piercing Blow Remake\i3Server\src\i3Base\i3IniParser.cpp
;	COMDAT ?RemoveWhiteSpace@i3IniParser@@IAEXPADPBD@Z
_TEXT	SEGMENT
_bString$1$ = -8					; size = 4
_bSection$1$ = -4					; size = 4
_szOut$ = 8						; size = 4
_szInput$ = 12						; size = 4
_nLen$1$ = 12						; size = 4
?RemoveWhiteSpace@i3IniParser@@IAEXPADPBD@Z PROC	; i3IniParser::RemoveWhiteSpace, COMDAT
; _this$ = ecx

; 254  : {

  00000	55		 push	 ebp
  00001	8b ec		 mov	 ebp, esp
  00003	83 ec 08	 sub	 esp, 8
  00006	56		 push	 esi

; 255  : 	BOOL bString = FALSE, bSection = FALSE;
; 256  : 
; 257  : 	INT32 nLen = i3String::Length((char*)szInput);

  00007	8b 75 0c	 mov	 esi, DWORD PTR _szInput$[ebp]
  0000a	56		 push	 esi
  0000b	c7 45 f8 00 00
	00 00		 mov	 DWORD PTR _bString$1$[ebp], 0
  00012	c7 45 fc 00 00
	00 00		 mov	 DWORD PTR _bSection$1$[ebp], 0
  00019	e8 00 00 00 00	 call	 ?Length@i3String@@YAHPBD@Z ; i3String::Length
  0001e	83 c4 04	 add	 esp, 4
  00021	89 45 0c	 mov	 DWORD PTR _nLen$1$[ebp], eax

; 258  : 	INT32 nCur = 0;

  00024	33 d2		 xor	 edx, edx

; 259  : 
; 260  : 	for (INT32 i = 0; i < nLen; i++)

  00026	33 c9		 xor	 ecx, ecx
  00028	85 c0		 test	 eax, eax
  0002a	0f 8e a5 00 00
	00		 jle	 $LN31@RemoveWhit
  00030	57		 push	 edi
  00031	8b 7d 08	 mov	 edi, DWORD PTR _szOut$[ebp]
  00034	53		 push	 ebx
  00035	eb 09 8d a4 24
	00 00 00 00 8b
	ff		 npad	 11
$LL4@RemoveWhit:

; 261  : 	{
; 262  : 		BOOL bCopy = TRUE;
; 263  : 
; 264  : 		switch (szInput[i])

  00040	0f be 04 31	 movsx	 eax, BYTE PTR [ecx+esi]
  00044	bb 01 00 00 00	 mov	 ebx, 1
  00049	83 c0 f7	 add	 eax, -9			; fffffff7H
  0004c	83 f8 54	 cmp	 eax, 84			; 00000054H
  0004f	77 66		 ja	 SHORT $LN28@RemoveWhit
  00051	0f b6 80 00 00
	00 00		 movzx	 eax, BYTE PTR $LN29@RemoveWhit[eax]
  00058	ff 24 85 00 00
	00 00		 jmp	 DWORD PTR $LN30@RemoveWhit[eax*4]
$LN7@RemoveWhit:

; 265  : 		{
; 266  : 			// 섹션 구분
; 267  : 		case '[':
; 268  : 		{
; 269  : 			I3ASSERT(!bSection);
; 270  : 			bSection = TRUE;

  0005f	89 5d fc	 mov	 DWORD PTR _bSection$1$[ebp], ebx

; 271  : 		}
; 272  : 		break;

  00062	eb 53		 jmp	 SHORT $LN28@RemoveWhit
$LN8@RemoveWhit:

; 273  : 		case ']':
; 274  : 		{
; 275  : 			I3ASSERT(bSection);
; 276  : 			bSection = FALSE;

  00064	c7 45 fc 00 00
	00 00		 mov	 DWORD PTR _bSection$1$[ebp], 0

; 277  : 		}
; 278  : 		break;

  0006b	eb 4a		 jmp	 SHORT $LN28@RemoveWhit
$LN9@RemoveWhit:

; 279  : 
; 280  : 		// 제어문자. 문자열 내부에서 "나 \를 입력하고 싶을 때
; 281  : 		case '\\':
; 282  : 		{
; 283  : 			if (bString)
; 284  : 			{
; 285  : 				// 추가로 제어하고 싶은 문자가 잇으면 여기서 제어하면 됨.
; 286  : 				i++; // 다음 문자를 그대로 복사
; 287  : 			}
; 288  : 		}
; 289  : 		break;

  0006d	83 7d f8 00	 cmp	 DWORD PTR _bString$1$[ebp], 0
  00071	8d 41 01	 lea	 eax, DWORD PTR [ecx+1]
  00074	0f 44 c1	 cmove	 eax, ecx
  00077	8b c8		 mov	 ecx, eax
  00079	eb 3c		 jmp	 SHORT $LN28@RemoveWhit
$LN11@RemoveWhit:

; 290  : 
; 291  : 		// 문자열 구분
; 292  : 		case '\"':
; 293  : 		{
; 294  : 			if (!bSection)

  0007b	8b 45 fc	 mov	 eax, DWORD PTR _bSection$1$[ebp]
  0007e	85 c0		 test	 eax, eax
  00080	75 0c		 jne	 SHORT $LN12@RemoveWhit

; 295  : 			{
; 296  : 				bString = bString ? FALSE : TRUE;

  00082	39 45 f8	 cmp	 DWORD PTR _bString$1$[ebp], eax
  00085	0f 94 c0	 sete	 al
  00088	89 45 f8	 mov	 DWORD PTR _bString$1$[ebp], eax
  0008b	8b 45 fc	 mov	 eax, DWORD PTR _bSection$1$[ebp]
$LN12@RemoveWhit:

; 297  : 				bCopy = FALSE;
; 298  : 			}
; 299  : 		}
; 300  : 		break;

  0008e	33 db		 xor	 ebx, ebx
  00090	85 c0		 test	 eax, eax
  00092	0f 95 c3	 setne	 bl
  00095	eb 1c		 jmp	 SHORT $LN19@RemoveWhit
$LN13@RemoveWhit:

; 301  : 
; 302  : 		// White Space
; 303  : 		case ' ':
; 304  : 		case '\t':
; 305  : 		case '\n':
; 306  : 		case '\r':
; 307  : 		{
; 308  : 			if (!bSection && !bString)

  00097	83 7d fc 00	 cmp	 DWORD PTR _bSection$1$[ebp], 0
  0009b	75 1a		 jne	 SHORT $LN28@RemoveWhit
  0009d	83 7d f8 00	 cmp	 DWORD PTR _bString$1$[ebp], 0
  000a1	75 14		 jne	 SHORT $LN28@RemoveWhit

; 309  : 			{
; 310  : 				bCopy = FALSE;

  000a3	33 db		 xor	 ebx, ebx

; 311  : 			}
; 312  : 		}
; 313  : 		break;

  000a5	eb 0c		 jmp	 SHORT $LN19@RemoveWhit
$LN18@RemoveWhit:

; 314  : 
; 315  : 		// 주석 문자
; 316  : 		case ';':
; 317  : 		{
; 318  : 			if (!bSection && !bString)

  000a7	83 7d fc 00	 cmp	 DWORD PTR _bSection$1$[ebp], 0
  000ab	75 0a		 jne	 SHORT $LN28@RemoveWhit
  000ad	83 7d f8 00	 cmp	 DWORD PTR _bString$1$[ebp], 0
  000b1	74 15		 je	 SHORT $LN33@RemoveWhit
$LN19@RemoveWhit:

; 319  : 			{
; 320  : 				goto Exit;
; 321  : 			}
; 322  : 		}
; 323  : 		break;
; 324  : 		}
; 325  : 
; 326  : 		if (bCopy)

  000b3	85 db		 test	 ebx, ebx
  000b5	74 07		 je	 SHORT $LN2@RemoveWhit
$LN28@RemoveWhit:

; 327  : 		{
; 328  : 			szOut[nCur++] = szInput[i];

  000b7	8a 04 31	 mov	 al, BYTE PTR [ecx+esi]
  000ba	88 04 3a	 mov	 BYTE PTR [edx+edi], al
  000bd	42		 inc	 edx
$LN2@RemoveWhit:

; 259  : 
; 260  : 	for (INT32 i = 0; i < nLen; i++)

  000be	41		 inc	 ecx
  000bf	3b 4d 0c	 cmp	 ecx, DWORD PTR _nLen$1$[ebp]
  000c2	0f 8c 78 ff ff
	ff		 jl	 $LL4@RemoveWhit
$LN33@RemoveWhit:
  000c8	5b		 pop	 ebx

; 329  : 		}
; 330  : 	}
; 331  : 
; 332  : Exit:
; 333  : 
; 334  : 	szOut[nCur] = 0;

  000c9	c6 04 3a 00	 mov	 BYTE PTR [edx+edi], 0
  000cd	5f		 pop	 edi
$Exit$43:
  000ce	5e		 pop	 esi

; 335  : }

  000cf	8b e5		 mov	 esp, ebp
  000d1	5d		 pop	 ebp
  000d2	c2 08 00	 ret	 8
$LN31@RemoveWhit:

; 329  : 		}
; 330  : 	}
; 331  : 
; 332  : Exit:
; 333  : 
; 334  : 	szOut[nCur] = 0;

  000d5	8b 45 08	 mov	 eax, DWORD PTR _szOut$[ebp]
  000d8	5e		 pop	 esi
  000d9	88 0c 02	 mov	 BYTE PTR [edx+eax], cl

; 335  : }

  000dc	8b e5		 mov	 esp, ebp
  000de	5d		 pop	 ebp
  000df	c2 08 00	 ret	 8
  000e2	8b ff		 npad	 2
$LN30@RemoveWhit:
  000e4	00 00 00 00	 DD	 $LN13@RemoveWhit
  000e8	00 00 00 00	 DD	 $LN11@RemoveWhit
  000ec	00 00 00 00	 DD	 $LN18@RemoveWhit
  000f0	00 00 00 00	 DD	 $LN7@RemoveWhit
  000f4	00 00 00 00	 DD	 $LN9@RemoveWhit
  000f8	00 00 00 00	 DD	 $LN8@RemoveWhit
  000fc	00 00 00 00	 DD	 $LN28@RemoveWhit
$LN29@RemoveWhit:
  00100	00		 DB	 0
  00101	00		 DB	 0
  00102	06		 DB	 6
  00103	06		 DB	 6
  00104	00		 DB	 0
  00105	06		 DB	 6
  00106	06		 DB	 6
  00107	06		 DB	 6
  00108	06		 DB	 6
  00109	06		 DB	 6
  0010a	06		 DB	 6
  0010b	06		 DB	 6
  0010c	06		 DB	 6
  0010d	06		 DB	 6
  0010e	06		 DB	 6
  0010f	06		 DB	 6
  00110	06		 DB	 6
  00111	06		 DB	 6
  00112	06		 DB	 6
  00113	06		 DB	 6
  00114	06		 DB	 6
  00115	06		 DB	 6
  00116	06		 DB	 6
  00117	00		 DB	 0
  00118	06		 DB	 6
  00119	01		 DB	 1
  0011a	06		 DB	 6
  0011b	06		 DB	 6
  0011c	06		 DB	 6
  0011d	06		 DB	 6
  0011e	06		 DB	 6
  0011f	06		 DB	 6
  00120	06		 DB	 6
  00121	06		 DB	 6
  00122	06		 DB	 6
  00123	06		 DB	 6
  00124	06		 DB	 6
  00125	06		 DB	 6
  00126	06		 DB	 6
  00127	06		 DB	 6
  00128	06		 DB	 6
  00129	06		 DB	 6
  0012a	06		 DB	 6
  0012b	06		 DB	 6
  0012c	06		 DB	 6
  0012d	06		 DB	 6
  0012e	06		 DB	 6
  0012f	06		 DB	 6
  00130	06		 DB	 6
  00131	06		 DB	 6
  00132	02		 DB	 2
  00133	06		 DB	 6
  00134	06		 DB	 6
  00135	06		 DB	 6
  00136	06		 DB	 6
  00137	06		 DB	 6
  00138	06		 DB	 6
  00139	06		 DB	 6
  0013a	06		 DB	 6
  0013b	06		 DB	 6
  0013c	06		 DB	 6
  0013d	06		 DB	 6
  0013e	06		 DB	 6
  0013f	06		 DB	 6
  00140	06		 DB	 6
  00141	06		 DB	 6
  00142	06		 DB	 6
  00143	06		 DB	 6
  00144	06		 DB	 6
  00145	06		 DB	 6
  00146	06		 DB	 6
  00147	06		 DB	 6
  00148	06		 DB	 6
  00149	06		 DB	 6
  0014a	06		 DB	 6
  0014b	06		 DB	 6
  0014c	06		 DB	 6
  0014d	06		 DB	 6
  0014e	06		 DB	 6
  0014f	06		 DB	 6
  00150	06		 DB	 6
  00151	06		 DB	 6
  00152	03		 DB	 3
  00153	04		 DB	 4
  00154	05		 DB	 5
?RemoveWhiteSpace@i3IniParser@@IAEXPADPBD@Z ENDP	; i3IniParser::RemoveWhiteSpace
_TEXT	ENDS
; Function compile flags: /Ogtp
; File E:\Proyectos\JuegosOnlineproyectos\PB\pbblow\Piercing Blow Remake\i3Server\src\i3Base\i3IniParser.cpp
;	COMDAT ?_BindObjectRefByType@i3IniParser@@SAPAV1@PAXW4I3_CLASSMETA_TYPE@@@Z
_TEXT	SEGMENT
_pBuf$ = 8						; size = 4
_type$ = 12						; size = 4
?_BindObjectRefByType@i3IniParser@@SAPAV1@PAXW4I3_CLASSMETA_TYPE@@@Z PROC ; i3IniParser::_BindObjectRefByType, COMDAT

; 12   : I3_CLASS_INSTANCE(i3IniParser, i3ElementBase);

  00000	55		 push	 ebp
  00001	8b ec		 mov	 ebp, esp
  00003	8b 0d 00 00 00
	00		 mov	 ecx, DWORD PTR ?s_pClassMetai3IniParser@i3IniParser@@2PAVi3ClassMeta@@A ; i3IniParser::s_pClassMetai3IniParser
  00009	ff 75 0c	 push	 DWORD PTR _type$[ebp]
  0000c	ff 75 08	 push	 DWORD PTR _pBuf$[ebp]
  0000f	8b 01		 mov	 eax, DWORD PTR [ecx]
  00011	ff 50 08	 call	 DWORD PTR [eax+8]
  00014	5d		 pop	 ebp
  00015	c3		 ret	 0
?_BindObjectRefByType@i3IniParser@@SAPAV1@PAXW4I3_CLASSMETA_TYPE@@@Z ENDP ; i3IniParser::_BindObjectRefByType
_TEXT	ENDS
; Function compile flags: /Ogtp
; File E:\Proyectos\JuegosOnlineproyectos\PB\pbblow\Piercing Blow Remake\i3Server\src\i3Base\i3IniParser.cpp
; File E:\Proyectos\JuegosOnlineproyectos\PB\pbblow\Piercing Blow Remake\i3Server\include\i3Base\i3ElementBase.h
; File E:\Proyectos\JuegosOnlineproyectos\PB\pbblow\Piercing Blow Remake\i3Server\src\i3Base\i3IniParser.cpp
;	COMDAT ?_BindObjectByType@i3IniParser@@SAPAV1@PAXW4I3_CLASSMETA_TYPE@@@Z
_TEXT	SEGMENT
_pBuf$ = 8						; size = 4
_type$ = 12						; size = 4
?_BindObjectByType@i3IniParser@@SAPAV1@PAXW4I3_CLASSMETA_TYPE@@@Z PROC ; i3IniParser::_BindObjectByType, COMDAT

; 12   : I3_CLASS_INSTANCE(i3IniParser, i3ElementBase);

  00000	55		 push	 ebp
  00001	8b ec		 mov	 ebp, esp
  00003	8b 0d 00 00 00
	00		 mov	 ecx, DWORD PTR ?s_pClassMetai3IniParser@i3IniParser@@2PAVi3ClassMeta@@A ; i3IniParser::s_pClassMetai3IniParser
  00009	ff 75 0c	 push	 DWORD PTR _type$[ebp]
  0000c	ff 75 08	 push	 DWORD PTR _pBuf$[ebp]
  0000f	8b 01		 mov	 eax, DWORD PTR [ecx]
  00011	ff 50 08	 call	 DWORD PTR [eax+8]
; File E:\Proyectos\JuegosOnlineproyectos\PB\pbblow\Piercing Blow Remake\i3Server\include\i3Base\i3ElementBase.h

; 392  : 		m_RefCount++;

  00014	ff 40 04	 inc	 DWORD PTR [eax+4]
; File E:\Proyectos\JuegosOnlineproyectos\PB\pbblow\Piercing Blow Remake\i3Server\src\i3Base\i3IniParser.cpp

; 12   : I3_CLASS_INSTANCE(i3IniParser, i3ElementBase);

  00017	5d		 pop	 ebp
  00018	c3		 ret	 0
?_BindObjectByType@i3IniParser@@SAPAV1@PAXW4I3_CLASSMETA_TYPE@@@Z ENDP ; i3IniParser::_BindObjectByType
_TEXT	ENDS
; Function compile flags: /Ogtp
; File E:\Proyectos\JuegosOnlineproyectos\PB\pbblow\Piercing Blow Remake\i3Server\src\i3Base\i3IniParser.cpp
;	COMDAT ?_NewObjectRefByType@i3IniParser@@SAPAV1@W4I3_CLASSMETA_TYPE@@@Z
_TEXT	SEGMENT
_type$ = 8						; size = 4
?_NewObjectRefByType@i3IniParser@@SAPAV1@W4I3_CLASSMETA_TYPE@@@Z PROC ; i3IniParser::_NewObjectRefByType, COMDAT

; 12   : I3_CLASS_INSTANCE(i3IniParser, i3ElementBase);

  00000	55		 push	 ebp
  00001	8b ec		 mov	 ebp, esp
  00003	8b 0d 00 00 00
	00		 mov	 ecx, DWORD PTR ?s_pClassMetai3IniParser@i3IniParser@@2PAVi3ClassMeta@@A ; i3IniParser::s_pClassMetai3IniParser
  00009	ff 75 08	 push	 DWORD PTR _type$[ebp]
  0000c	8b 01		 mov	 eax, DWORD PTR [ecx]
  0000e	ff 50 04	 call	 DWORD PTR [eax+4]
  00011	5d		 pop	 ebp
  00012	c3		 ret	 0
?_NewObjectRefByType@i3IniParser@@SAPAV1@W4I3_CLASSMETA_TYPE@@@Z ENDP ; i3IniParser::_NewObjectRefByType
_TEXT	ENDS
; Function compile flags: /Ogtp
; File E:\Proyectos\JuegosOnlineproyectos\PB\pbblow\Piercing Blow Remake\i3Server\src\i3Base\i3IniParser.cpp
; File E:\Proyectos\JuegosOnlineproyectos\PB\pbblow\Piercing Blow Remake\i3Server\include\i3Base\i3ElementBase.h
; File E:\Proyectos\JuegosOnlineproyectos\PB\pbblow\Piercing Blow Remake\i3Server\src\i3Base\i3IniParser.cpp
;	COMDAT ?_NewObjectByType@i3IniParser@@SAPAV1@W4I3_CLASSMETA_TYPE@@@Z
_TEXT	SEGMENT
_type$ = 8						; size = 4
?_NewObjectByType@i3IniParser@@SAPAV1@W4I3_CLASSMETA_TYPE@@@Z PROC ; i3IniParser::_NewObjectByType, COMDAT

; 12   : I3_CLASS_INSTANCE(i3IniParser, i3ElementBase);

  00000	55		 push	 ebp
  00001	8b ec		 mov	 ebp, esp
  00003	8b 0d 00 00 00
	00		 mov	 ecx, DWORD PTR ?s_pClassMetai3IniParser@i3IniParser@@2PAVi3ClassMeta@@A ; i3IniParser::s_pClassMetai3IniParser
  00009	ff 75 08	 push	 DWORD PTR _type$[ebp]
  0000c	8b 01		 mov	 eax, DWORD PTR [ecx]
  0000e	ff 50 04	 call	 DWORD PTR [eax+4]
; File E:\Proyectos\JuegosOnlineproyectos\PB\pbblow\Piercing Blow Remake\i3Server\include\i3Base\i3ElementBase.h

; 392  : 		m_RefCount++;

  00011	ff 40 04	 inc	 DWORD PTR [eax+4]
; File E:\Proyectos\JuegosOnlineproyectos\PB\pbblow\Piercing Blow Remake\i3Server\src\i3Base\i3IniParser.cpp

; 12   : I3_CLASS_INSTANCE(i3IniParser, i3ElementBase);

  00014	5d		 pop	 ebp
  00015	c3		 ret	 0
?_NewObjectByType@i3IniParser@@SAPAV1@W4I3_CLASSMETA_TYPE@@@Z ENDP ; i3IniParser::_NewObjectByType
_TEXT	ENDS
; Function compile flags: /Ogtp
; File E:\Proyectos\JuegosOnlineproyectos\PB\pbblow\Piercing Blow Remake\i3Server\src\i3Base\i3IniParser.cpp
;	COMDAT ?_BindObjectRef@i3IniParser@@SAPAV1@PAX@Z
_TEXT	SEGMENT
_pBuf$ = 8						; size = 4
?_BindObjectRef@i3IniParser@@SAPAV1@PAX@Z PROC		; i3IniParser::_BindObjectRef, COMDAT

; 12   : I3_CLASS_INSTANCE(i3IniParser, i3ElementBase);

  00000	55		 push	 ebp
  00001	8b ec		 mov	 ebp, esp
  00003	8b 0d 00 00 00
	00		 mov	 ecx, DWORD PTR ?s_pClassMetai3IniParser@i3IniParser@@2PAVi3ClassMeta@@A ; i3IniParser::s_pClassMetai3IniParser
  00009	6a 00		 push	 0
  0000b	ff 75 08	 push	 DWORD PTR _pBuf$[ebp]
  0000e	8b 01		 mov	 eax, DWORD PTR [ecx]
  00010	ff 50 08	 call	 DWORD PTR [eax+8]
  00013	5d		 pop	 ebp
  00014	c3		 ret	 0
?_BindObjectRef@i3IniParser@@SAPAV1@PAX@Z ENDP		; i3IniParser::_BindObjectRef
_TEXT	ENDS
; Function compile flags: /Ogtp
; File E:\Proyectos\JuegosOnlineproyectos\PB\pbblow\Piercing Blow Remake\i3Server\src\i3Base\i3IniParser.cpp
; File E:\Proyectos\JuegosOnlineproyectos\PB\pbblow\Piercing Blow Remake\i3Server\include\i3Base\i3ElementBase.h
; File E:\Proyectos\JuegosOnlineproyectos\PB\pbblow\Piercing Blow Remake\i3Server\src\i3Base\i3IniParser.cpp
;	COMDAT ?_BindObject@i3IniParser@@SAPAV1@PAX@Z
_TEXT	SEGMENT
_pBuf$ = 8						; size = 4
?_BindObject@i3IniParser@@SAPAV1@PAX@Z PROC		; i3IniParser::_BindObject, COMDAT

; 12   : I3_CLASS_INSTANCE(i3IniParser, i3ElementBase);

  00000	55		 push	 ebp
  00001	8b ec		 mov	 ebp, esp
  00003	8b 0d 00 00 00
	00		 mov	 ecx, DWORD PTR ?s_pClassMetai3IniParser@i3IniParser@@2PAVi3ClassMeta@@A ; i3IniParser::s_pClassMetai3IniParser
  00009	6a 00		 push	 0
  0000b	ff 75 08	 push	 DWORD PTR _pBuf$[ebp]
  0000e	8b 01		 mov	 eax, DWORD PTR [ecx]
  00010	ff 50 08	 call	 DWORD PTR [eax+8]
; File E:\Proyectos\JuegosOnlineproyectos\PB\pbblow\Piercing Blow Remake\i3Server\include\i3Base\i3ElementBase.h

; 392  : 		m_RefCount++;

  00013	ff 40 04	 inc	 DWORD PTR [eax+4]
; File E:\Proyectos\JuegosOnlineproyectos\PB\pbblow\Piercing Blow Remake\i3Server\src\i3Base\i3IniParser.cpp

; 12   : I3_CLASS_INSTANCE(i3IniParser, i3ElementBase);

  00016	5d		 pop	 ebp
  00017	c3		 ret	 0
?_BindObject@i3IniParser@@SAPAV1@PAX@Z ENDP		; i3IniParser::_BindObject
_TEXT	ENDS
; Function compile flags: /Ogtp
; File E:\Proyectos\JuegosOnlineproyectos\PB\pbblow\Piercing Blow Remake\i3Server\src\i3Base\i3IniParser.cpp
;	COMDAT ?_NewObjectRef@i3IniParser@@SAPAV1@XZ
_TEXT	SEGMENT
?_NewObjectRef@i3IniParser@@SAPAV1@XZ PROC		; i3IniParser::_NewObjectRef, COMDAT

; 12   : I3_CLASS_INSTANCE(i3IniParser, i3ElementBase);

  00000	8b 0d 00 00 00
	00		 mov	 ecx, DWORD PTR ?s_pClassMetai3IniParser@i3IniParser@@2PAVi3ClassMeta@@A ; i3IniParser::s_pClassMetai3IniParser
  00006	6a 00		 push	 0
  00008	8b 01		 mov	 eax, DWORD PTR [ecx]
  0000a	ff 50 04	 call	 DWORD PTR [eax+4]
  0000d	c3		 ret	 0
?_NewObjectRef@i3IniParser@@SAPAV1@XZ ENDP		; i3IniParser::_NewObjectRef
_TEXT	ENDS
; Function compile flags: /Ogtp
; File E:\Proyectos\JuegosOnlineproyectos\PB\pbblow\Piercing Blow Remake\i3Server\src\i3Base\i3IniParser.cpp
; File E:\Proyectos\JuegosOnlineproyectos\PB\pbblow\Piercing Blow Remake\i3Server\include\i3Base\i3ElementBase.h
; File E:\Proyectos\JuegosOnlineproyectos\PB\pbblow\Piercing Blow Remake\i3Server\src\i3Base\i3IniParser.cpp
;	COMDAT ?_NewObject@i3IniParser@@SAPAV1@XZ
_TEXT	SEGMENT
?_NewObject@i3IniParser@@SAPAV1@XZ PROC			; i3IniParser::_NewObject, COMDAT

; 12   : I3_CLASS_INSTANCE(i3IniParser, i3ElementBase);

  00000	8b 0d 00 00 00
	00		 mov	 ecx, DWORD PTR ?s_pClassMetai3IniParser@i3IniParser@@2PAVi3ClassMeta@@A ; i3IniParser::s_pClassMetai3IniParser
  00006	6a 00		 push	 0
  00008	8b 01		 mov	 eax, DWORD PTR [ecx]
  0000a	ff 50 04	 call	 DWORD PTR [eax+4]
; File E:\Proyectos\JuegosOnlineproyectos\PB\pbblow\Piercing Blow Remake\i3Server\include\i3Base\i3ElementBase.h

; 392  : 		m_RefCount++;

  0000d	ff 40 04	 inc	 DWORD PTR [eax+4]
; File E:\Proyectos\JuegosOnlineproyectos\PB\pbblow\Piercing Blow Remake\i3Server\src\i3Base\i3IniParser.cpp

; 12   : I3_CLASS_INSTANCE(i3IniParser, i3ElementBase);

  00010	c3		 ret	 0
?_NewObject@i3IniParser@@SAPAV1@XZ ENDP			; i3IniParser::_NewObject
_TEXT	ENDS
; Function compile flags: /Ogtp
; File E:\Proyectos\JuegosOnlineproyectos\PB\pbblow\Piercing Blow Remake\i3Server\src\i3Base\i3IniParser.cpp
;	COMDAT ?SetGhostClass@i3IniParser@@SAXPAVi3ClassMeta@@@Z
_TEXT	SEGMENT
_pMeta$ = 8						; size = 4
?SetGhostClass@i3IniParser@@SAXPAVi3ClassMeta@@@Z PROC	; i3IniParser::SetGhostClass, COMDAT

; 12   : I3_CLASS_INSTANCE(i3IniParser, i3ElementBase);

  00000	55		 push	 ebp
  00001	8b ec		 mov	 ebp, esp
  00003	ff 75 08	 push	 DWORD PTR _pMeta$[ebp]
  00006	8b 0d 00 00 00
	00		 mov	 ecx, DWORD PTR ?s_pClassMetai3IniParser@i3IniParser@@2PAVi3ClassMeta@@A ; i3IniParser::s_pClassMetai3IniParser
  0000c	e8 00 00 00 00	 call	 ?SetGhostClass@i3ClassMeta@@QAEXPAV1@@Z ; i3ClassMeta::SetGhostClass
  00011	5d		 pop	 ebp
  00012	c3		 ret	 0
?SetGhostClass@i3IniParser@@SAXPAVi3ClassMeta@@@Z ENDP	; i3IniParser::SetGhostClass
_TEXT	ENDS
; Function compile flags: /Ogtp
; File E:\Proyectos\JuegosOnlineproyectos\PB\pbblow\Piercing Blow Remake\i3Server\src\i3Base\i3IniParser.cpp
;	COMDAT ?SetConcreteClass@i3IniParser@@SAXPAVi3ClassMeta@@@Z
_TEXT	SEGMENT
_pMeta$ = 8						; size = 4
?SetConcreteClass@i3IniParser@@SAXPAVi3ClassMeta@@@Z PROC ; i3IniParser::SetConcreteClass, COMDAT

; 12   : I3_CLASS_INSTANCE(i3IniParser, i3ElementBase);

  00000	55		 push	 ebp
  00001	8b ec		 mov	 ebp, esp
  00003	ff 75 08	 push	 DWORD PTR _pMeta$[ebp]
  00006	8b 0d 00 00 00
	00		 mov	 ecx, DWORD PTR ?s_pClassMetai3IniParser@i3IniParser@@2PAVi3ClassMeta@@A ; i3IniParser::s_pClassMetai3IniParser
  0000c	e8 00 00 00 00	 call	 ?SetConcreteClass@i3ClassMeta@@QAEXPAV1@@Z ; i3ClassMeta::SetConcreteClass
  00011	5d		 pop	 ebp
  00012	c3		 ret	 0
?SetConcreteClass@i3IniParser@@SAXPAVi3ClassMeta@@@Z ENDP ; i3IniParser::SetConcreteClass
_TEXT	ENDS
; Function compile flags: /Ogtp
; File E:\Proyectos\JuegosOnlineproyectos\PB\pbblow\Piercing Blow Remake\i3Server\src\i3Base\i3IniParser.cpp
;	COMDAT ?RegisterMeta@i3IniParser@@SAXXZ
_TEXT	SEGMENT
?RegisterMeta@i3IniParser@@SAXXZ PROC			; i3IniParser::RegisterMeta, COMDAT

; 12   : I3_CLASS_INSTANCE(i3IniParser, i3ElementBase);

  00000	8b 0d 00 00 00
	00		 mov	 ecx, DWORD PTR ?s_pClassMetai3IniParser@i3IniParser@@2PAVi3ClassMeta@@A ; i3IniParser::s_pClassMetai3IniParser
  00006	e9 00 00 00 00	 jmp	 ?Register@i3ClassMeta@@QAEXXZ ; i3ClassMeta::Register
?RegisterMeta@i3IniParser@@SAXXZ ENDP			; i3IniParser::RegisterMeta
_TEXT	ENDS
; Function compile flags: /Ogtp
; File E:\Proyectos\JuegosOnlineproyectos\PB\pbblow\Piercing Blow Remake\i3Server\src\i3Base\i3IniParser.cpp
;	COMDAT ?GetMeta@i3IniParser@@UAEPAVi3ClassMeta@@XZ
_TEXT	SEGMENT
?GetMeta@i3IniParser@@UAEPAVi3ClassMeta@@XZ PROC	; i3IniParser::GetMeta, COMDAT
; _this$ = ecx

; 12   : I3_CLASS_INSTANCE(i3IniParser, i3ElementBase);

  00000	a1 00 00 00 00	 mov	 eax, DWORD PTR ?s_pClassMetai3IniParser@i3IniParser@@2PAVi3ClassMeta@@A ; i3IniParser::s_pClassMetai3IniParser
  00005	c3		 ret	 0
?GetMeta@i3IniParser@@UAEPAVi3ClassMeta@@XZ ENDP	; i3IniParser::GetMeta
_TEXT	ENDS
; Function compile flags: /Ogtp
; File E:\Proyectos\JuegosOnlineproyectos\PB\pbblow\Piercing Blow Remake\i3Server\include\i3Base\i3IniParser.h
;	COMDAT ?GetClassMeta@i3IniParser@@SAPAVi3ClassMeta@@XZ
_TEXT	SEGMENT
?GetClassMeta@i3IniParser@@SAPAVi3ClassMeta@@XZ PROC	; i3IniParser::GetClassMeta, COMDAT

; 31   : 	I3_CLASS_DEFINE(i3IniParser);

  00000	a1 00 00 00 00	 mov	 eax, DWORD PTR ?s_pClassMetai3IniParser@i3IniParser@@2PAVi3ClassMeta@@A ; i3IniParser::s_pClassMetai3IniParser
  00005	c3		 ret	 0
?GetClassMeta@i3IniParser@@SAPAVi3ClassMeta@@XZ ENDP	; i3IniParser::GetClassMeta
_TEXT	ENDS
; Function compile flags: /Ogtp
; File E:\Proyectos\JuegosOnlineproyectos\PB\pbblow\Piercing Blow Remake\i3Server\src\i3Base\i3IniParser.cpp
;	COMDAT ??_Ei3StringList@@UAEPAXI@Z
_TEXT	SEGMENT
__$EHRec$ = -12						; size = 12
___flags$ = 8						; size = 4
??_Ei3StringList@@UAEPAXI@Z PROC			; i3StringList::`vector deleting destructor', COMDAT
; _this$ = ecx
  00000	55		 push	 ebp
  00001	8b ec		 mov	 ebp, esp
  00003	6a ff		 push	 -1
  00005	68 00 00 00 00	 push	 __ehhandler$??_Ei3StringList@@UAEPAXI@Z
  0000a	64 a1 00 00 00
	00		 mov	 eax, DWORD PTR fs:0
  00010	50		 push	 eax
  00011	53		 push	 ebx
  00012	56		 push	 esi
  00013	57		 push	 edi
  00014	a1 00 00 00 00	 mov	 eax, DWORD PTR ___security_cookie
  00019	33 c5		 xor	 eax, ebp
  0001b	50		 push	 eax
  0001c	8d 45 f4	 lea	 eax, DWORD PTR __$EHRec$[ebp]
  0001f	64 a3 00 00 00
	00		 mov	 DWORD PTR fs:0, eax
  00025	8b f1		 mov	 esi, ecx
  00027	8b 5d 08	 mov	 ebx, DWORD PTR ___flags$[ebp]
  0002a	8b fb		 mov	 edi, ebx
  0002c	83 e7 01	 and	 edi, 1
  0002f	f6 c3 02	 test	 bl, 2
  00032	74 43		 je	 SHORT $LN2@vector
  00034	68 00 00 00 00	 push	 OFFSET ??1i3StringList@@UAE@XZ ; i3StringList::~i3StringList
  00039	ff 76 fc	 push	 DWORD PTR [esi-4]
  0003c	8d 5e fc	 lea	 ebx, DWORD PTR [esi-4]
  0003f	6a 28		 push	 40			; 00000028H
  00041	56		 push	 esi
  00042	e8 00 00 00 00	 call	 ??_M@YGXPAXIIP6EX0@Z@Z
  00047	85 ff		 test	 edi, edi
  00049	74 16		 je	 SHORT $LN3@vector
  0004b	8b 0b		 mov	 ecx, DWORD PTR [ebx]
  0004d	8d 0c 89	 lea	 ecx, DWORD PTR [ecx+ecx*4]
  00050	8d 0c cd 04 00
	00 00		 lea	 ecx, DWORD PTR [ecx*8+4]
  00057	51		 push	 ecx
  00058	53		 push	 ebx
  00059	e8 00 00 00 00	 call	 ??_V@YAXPAXI@Z		; operator delete[]
  0005e	83 c4 08	 add	 esp, 8
$LN3@vector:
  00061	8b c3		 mov	 eax, ebx
  00063	8b 4d f4	 mov	 ecx, DWORD PTR __$EHRec$[ebp]
  00066	64 89 0d 00 00
	00 00		 mov	 DWORD PTR fs:0, ecx
  0006d	59		 pop	 ecx
  0006e	5f		 pop	 edi
  0006f	5e		 pop	 esi
  00070	5b		 pop	 ebx
  00071	8b e5		 mov	 esp, ebp
  00073	5d		 pop	 ebp
  00074	c2 04 00	 ret	 4
$LN2@vector:
  00077	e8 00 00 00 00	 call	 ??1i3StringList@@UAE@XZ	; i3StringList::~i3StringList
  0007c	85 ff		 test	 edi, edi
  0007e	74 1b		 je	 SHORT $LN6@vector
  00080	f6 c3 04	 test	 bl, 4
  00083	75 0b		 jne	 SHORT $LN5@vector
  00085	56		 push	 esi
  00086	e8 00 00 00 00	 call	 ??3i3ElementBase@@SAXPAX@Z ; i3ElementBase::operator delete
  0008b	83 c4 04	 add	 esp, 4
  0008e	eb 0b		 jmp	 SHORT $LN6@vector
$LN5@vector:

  00090	6a 28		 push	 40			; 00000028H
  00092	56		 push	 esi
  00093	e8 00 00 00 00	 call	 ??3@YAXPAXI@Z		; operator delete
  00098	83 c4 08	 add	 esp, 8
$LN6@vector:
  0009b	8b c6		 mov	 eax, esi
  0009d	8b 4d f4	 mov	 ecx, DWORD PTR __$EHRec$[ebp]
  000a0	64 89 0d 00 00
	00 00		 mov	 DWORD PTR fs:0, ecx
  000a7	59		 pop	 ecx
  000a8	5f		 pop	 edi
  000a9	5e		 pop	 esi
  000aa	5b		 pop	 ebx
  000ab	8b e5		 mov	 esp, ebp
  000ad	5d		 pop	 ebp
  000ae	c2 04 00	 ret	 4
  000b1	cc		 int	 3
  000b2	cc		 int	 3
  000b3	cc		 int	 3
  000b4	cc		 int	 3
  000b5	cc		 int	 3
_TEXT	ENDS
;	COMDAT text$x
text$x	SEGMENT
__ehhandler$??_Ei3StringList@@UAEPAXI@Z:
  00000	90		 npad	 1
  00001	90		 npad	 1
  00002	8b 54 24 08	 mov	 edx, DWORD PTR [esp+8]
  00006	8d 42 0c	 lea	 eax, DWORD PTR [edx+12]
  00009	8b 4a f0	 mov	 ecx, DWORD PTR [edx-16]
  0000c	33 c8		 xor	 ecx, eax
  0000e	e8 00 00 00 00	 call	 @__security_check_cookie@4
  00013	b8 00 00 00 00	 mov	 eax, OFFSET __ehfuncinfo$??_Ei3StringList@@UAEPAXI@Z
  00018	e9 00 00 00 00	 jmp	 ___CxxFrameHandler3
text$x	ENDS
??_Ei3StringList@@UAEPAXI@Z ENDP			; i3StringList::`vector deleting destructor'
; Function compile flags: /Ogtp
; File E:\Proyectos\JuegosOnlineproyectos\PB\pbblow\Piercing Blow Remake\i3Server\src\i3Base\i3IniParser.cpp
;	COMDAT ??_Gi3StringList@@UAEPAXI@Z
_TEXT	SEGMENT
___flags$ = 8						; size = 4
??_Gi3StringList@@UAEPAXI@Z PROC			; i3StringList::`scalar deleting destructor', COMDAT
; _this$ = ecx
  00000	55		 push	 ebp
  00001	8b ec		 mov	 ebp, esp
  00003	56		 push	 esi
  00004	8b f1		 mov	 esi, ecx
  00006	e8 00 00 00 00	 call	 ??1i3StringList@@UAE@XZ	; i3StringList::~i3StringList
  0000b	8b 45 08	 mov	 eax, DWORD PTR ___flags$[ebp]
  0000e	a8 01		 test	 al, 1
  00010	74 1f		 je	 SHORT $LN10@scalar
  00012	a8 04		 test	 al, 4
  00014	75 10		 jne	 SHORT $LN3@scalar
  00016	56		 push	 esi
  00017	e8 00 00 00 00	 call	 ??3i3ElementBase@@SAXPAX@Z ; i3ElementBase::operator delete
  0001c	83 c4 04	 add	 esp, 4
  0001f	8b c6		 mov	 eax, esi
  00021	5e		 pop	 esi
  00022	5d		 pop	 ebp
  00023	c2 04 00	 ret	 4
$LN3@scalar:

  00026	6a 28		 push	 40			; 00000028H
  00028	56		 push	 esi
  00029	e8 00 00 00 00	 call	 ??3@YAXPAXI@Z		; operator delete
  0002e	83 c4 08	 add	 esp, 8
$LN10@scalar:
  00031	8b c6		 mov	 eax, esi
  00033	5e		 pop	 esi
  00034	5d		 pop	 ebp
  00035	c2 04 00	 ret	 4
??_Gi3StringList@@UAEPAXI@Z ENDP			; i3StringList::`scalar deleting destructor'
_TEXT	ENDS
; Function compile flags: /Ogtp
;	COMDAT ??_Fi3StringList@@QAEXXZ
_TEXT	SEGMENT
??_Fi3StringList@@QAEXXZ PROC				; i3StringList::`default constructor closure', COMDAT
; _this$ = ecx
  00000	6a 10		 push	 16			; 00000010H
  00002	e8 00 00 00 00	 call	 ??0i3StringList@@QAE@H@Z ; i3StringList::i3StringList
  00007	c3		 ret	 0
??_Fi3StringList@@QAEXXZ ENDP				; i3StringList::`default constructor closure'
_TEXT	ENDS
; Function compile flags: /Ogtp
;	COMDAT ??4i3StringList@@QAEAAV0@ABV0@@Z
_TEXT	SEGMENT
___that$ = 8						; size = 4
??4i3StringList@@QAEAAV0@ABV0@@Z PROC			; i3StringList::operator=, COMDAT
; _this$ = ecx
  00000	55		 push	 ebp
  00001	8b ec		 mov	 ebp, esp
  00003	8b 55 08	 mov	 edx, DWORD PTR ___that$[ebp]
  00006	8b 42 04	 mov	 eax, DWORD PTR [edx+4]
  00009	89 41 04	 mov	 DWORD PTR [ecx+4], eax
  0000c	8b 42 08	 mov	 eax, DWORD PTR [edx+8]
  0000f	89 41 08	 mov	 DWORD PTR [ecx+8], eax
  00012	8b 42 0c	 mov	 eax, DWORD PTR [edx+12]
  00015	89 41 0c	 mov	 DWORD PTR [ecx+12], eax
  00018	8b 42 10	 mov	 eax, DWORD PTR [edx+16]
  0001b	89 41 10	 mov	 DWORD PTR [ecx+16], eax
  0001e	8b 42 14	 mov	 eax, DWORD PTR [edx+20]
  00021	89 41 14	 mov	 DWORD PTR [ecx+20], eax
  00024	8b 42 18	 mov	 eax, DWORD PTR [edx+24]
  00027	89 41 18	 mov	 DWORD PTR [ecx+24], eax
  0002a	8b 42 1c	 mov	 eax, DWORD PTR [edx+28]
  0002d	89 41 1c	 mov	 DWORD PTR [ecx+28], eax
  00030	8b 42 20	 mov	 eax, DWORD PTR [edx+32]
  00033	89 41 20	 mov	 DWORD PTR [ecx+32], eax
  00036	8b 42 24	 mov	 eax, DWORD PTR [edx+36]
  00039	89 41 24	 mov	 DWORD PTR [ecx+36], eax
  0003c	8b c1		 mov	 eax, ecx
  0003e	5d		 pop	 ebp
  0003f	c2 04 00	 ret	 4
??4i3StringList@@QAEAAV0@ABV0@@Z ENDP			; i3StringList::operator=
_TEXT	ENDS
; Function compile flags: /Ogtp
;	COMDAT ??0i3StringList@@QAE@ABV0@@Z
_TEXT	SEGMENT
___that$ = 8						; size = 4
??0i3StringList@@QAE@ABV0@@Z PROC			; i3StringList::i3StringList, COMDAT
; _this$ = ecx
  00000	55		 push	 ebp
  00001	8b ec		 mov	 ebp, esp
  00003	8b 55 08	 mov	 edx, DWORD PTR ___that$[ebp]
  00006	c7 01 00 00 00
	00		 mov	 DWORD PTR [ecx], OFFSET ??_7i3ElementBase@@6B@
  0000c	8b 42 04	 mov	 eax, DWORD PTR [edx+4]
  0000f	89 41 04	 mov	 DWORD PTR [ecx+4], eax
  00012	8b 42 08	 mov	 eax, DWORD PTR [edx+8]
  00015	89 41 08	 mov	 DWORD PTR [ecx+8], eax
  00018	8b 42 0c	 mov	 eax, DWORD PTR [edx+12]
  0001b	89 41 0c	 mov	 DWORD PTR [ecx+12], eax
  0001e	c7 01 00 00 00
	00		 mov	 DWORD PTR [ecx], OFFSET ??_7i3StringList@@6B@
  00024	8b 42 10	 mov	 eax, DWORD PTR [edx+16]
  00027	89 41 10	 mov	 DWORD PTR [ecx+16], eax
  0002a	8b 42 14	 mov	 eax, DWORD PTR [edx+20]
  0002d	89 41 14	 mov	 DWORD PTR [ecx+20], eax
  00030	8b 42 18	 mov	 eax, DWORD PTR [edx+24]
  00033	89 41 18	 mov	 DWORD PTR [ecx+24], eax
  00036	8b 42 1c	 mov	 eax, DWORD PTR [edx+28]
  00039	89 41 1c	 mov	 DWORD PTR [ecx+28], eax
  0003c	8b 42 20	 mov	 eax, DWORD PTR [edx+32]
  0003f	89 41 20	 mov	 DWORD PTR [ecx+32], eax
  00042	8b 42 24	 mov	 eax, DWORD PTR [edx+36]
  00045	89 41 24	 mov	 DWORD PTR [ecx+36], eax
  00048	8b c1		 mov	 eax, ecx
  0004a	5d		 pop	 ebp
  0004b	c2 04 00	 ret	 4
??0i3StringList@@QAE@ABV0@@Z ENDP			; i3StringList::i3StringList
_TEXT	ENDS
; Function compile flags: /Ogtp
; File E:\Proyectos\JuegosOnlineproyectos\PB\pbblow\Piercing Blow Remake\i3Server\include\i3Base\i3List.h
;	COMDAT ?SetOnceMode@i3StringList@@QAEXH@Z
_TEXT	SEGMENT
_bFlag$ = 8						; size = 4
?SetOnceMode@i3StringList@@QAEXH@Z PROC			; i3StringList::SetOnceMode, COMDAT
; _this$ = ecx

; 242  : 	void	SetOnceMode( BOOL bFlag)		{ m_bOnceMode = bFlag; }

  00000	55		 push	 ebp
  00001	8b ec		 mov	 ebp, esp
  00003	8b 45 08	 mov	 eax, DWORD PTR _bFlag$[ebp]
  00006	89 41 1c	 mov	 DWORD PTR [ecx+28], eax
  00009	5d		 pop	 ebp
  0000a	c2 04 00	 ret	 4
?SetOnceMode@i3StringList@@QAEXH@Z ENDP			; i3StringList::SetOnceMode
_TEXT	ENDS
; Function compile flags: /Ogtp
; File E:\Proyectos\JuegosOnlineproyectos\PB\pbblow\Piercing Blow Remake\i3Server\include\i3Base\i3List.h
;	COMDAT ?GetOnceMode@i3StringList@@QAEHXZ
_TEXT	SEGMENT
?GetOnceMode@i3StringList@@QAEHXZ PROC			; i3StringList::GetOnceMode, COMDAT
; _this$ = ecx

; 241  : 	BOOL	GetOnceMode(void)				{ return m_bOnceMode; }

  00000	8b 41 1c	 mov	 eax, DWORD PTR [ecx+28]
  00003	c3		 ret	 0
?GetOnceMode@i3StringList@@QAEHXZ ENDP			; i3StringList::GetOnceMode
_TEXT	ENDS
; Function compile flags: /Ogtp
; File E:\Proyectos\JuegosOnlineproyectos\PB\pbblow\Piercing Blow Remake\i3Server\include\i3Base\i3List.h
;	COMDAT ?GetLast@i3StringList@@QAEPADXZ
_TEXT	SEGMENT
?GetLast@i3StringList@@QAEPADXZ PROC			; i3StringList::GetLast, COMDAT
; _this$ = ecx

; 239  : 	char *	GetLast(void)					{ return Items[ m_Count-1]; }

  00000	8b 51 14	 mov	 edx, DWORD PTR [ecx+20]
  00003	8b 41 24	 mov	 eax, DWORD PTR [ecx+36]
  00006	8b 44 90 fc	 mov	 eax, DWORD PTR [eax+edx*4-4]
  0000a	c3		 ret	 0
?GetLast@i3StringList@@QAEPADXZ ENDP			; i3StringList::GetLast
_TEXT	ENDS
; Function compile flags: /Ogtp
; File E:\Proyectos\JuegosOnlineproyectos\PB\pbblow\Piercing Blow Remake\i3Server\include\i3Base\i3List.h
;	COMDAT ?GetFirst@i3StringList@@QAEPADXZ
_TEXT	SEGMENT
?GetFirst@i3StringList@@QAEPADXZ PROC			; i3StringList::GetFirst, COMDAT
; _this$ = ecx

; 238  : 	char *	GetFirst(void)					{ return Items[ 0]; }

  00000	8b 41 24	 mov	 eax, DWORD PTR [ecx+36]
  00003	8b 00		 mov	 eax, DWORD PTR [eax]
  00005	c3		 ret	 0
?GetFirst@i3StringList@@QAEPADXZ ENDP			; i3StringList::GetFirst
_TEXT	ENDS
; Function compile flags: /Ogtp
; File E:\Proyectos\JuegosOnlineproyectos\PB\pbblow\Piercing Blow Remake\i3Server\include\i3Base\i3List.h
;	COMDAT ?Find@i3StringList@@QAEHPAD@Z
_TEXT	SEGMENT
_p$ = 8							; size = 4
?Find@i3StringList@@QAEHPAD@Z PROC			; i3StringList::Find, COMDAT
; _this$ = ecx

; 236  : 	INT32	Find( char * p)					{ return IndexOf( p); }

  00000	55		 push	 ebp
  00001	8b ec		 mov	 ebp, esp
  00003	8b 01		 mov	 eax, DWORD PTR [ecx]
  00005	5d		 pop	 ebp
  00006	ff 60 0c	 jmp	 DWORD PTR [eax+12]
?Find@i3StringList@@QAEHPAD@Z ENDP			; i3StringList::Find
_TEXT	ENDS
; Function compile flags: /Ogtp
; File E:\Proyectos\JuegosOnlineproyectos\PB\pbblow\Piercing Blow Remake\i3Server\include\i3Base\i3List.h
;	COMDAT ?SetItem@i3StringList@@QAEXHPAD@Z
_TEXT	SEGMENT
_idx$ = 8						; size = 4
_p$ = 12						; size = 4
?SetItem@i3StringList@@QAEXHPAD@Z PROC			; i3StringList::SetItem, COMDAT
; _this$ = ecx

; 235  : 	void	SetItem( INT32 idx, char * p)		{ Items[idx] = p; }

  00000	55		 push	 ebp
  00001	8b ec		 mov	 ebp, esp
  00003	8b 51 24	 mov	 edx, DWORD PTR [ecx+36]
  00006	8b 45 08	 mov	 eax, DWORD PTR _idx$[ebp]
  00009	8b 4d 0c	 mov	 ecx, DWORD PTR _p$[ebp]
  0000c	89 0c 82	 mov	 DWORD PTR [edx+eax*4], ecx
  0000f	5d		 pop	 ebp
  00010	c2 08 00	 ret	 8
?SetItem@i3StringList@@QAEXHPAD@Z ENDP			; i3StringList::SetItem
_TEXT	ENDS
; Function compile flags: /Ogtp
; File E:\Proyectos\JuegosOnlineproyectos\PB\pbblow\Piercing Blow Remake\i3Server\include\i3Base\i3List.h
;	COMDAT ?GetItem@i3StringList@@QAEPAXH@Z
_TEXT	SEGMENT
_idx$ = 8						; size = 4
?GetItem@i3StringList@@QAEPAXH@Z PROC			; i3StringList::GetItem, COMDAT
; _this$ = ecx

; 233  : 	void *	GetItem( INT32 idx)				{ if( idx >= GetCount() || idx < 0 )	return NULL;

  00000	55		 push	 ebp
  00001	8b ec		 mov	 ebp, esp
  00003	8b 55 08	 mov	 edx, DWORD PTR _idx$[ebp]
  00006	3b 51 14	 cmp	 edx, DWORD PTR [ecx+20]
  00009	7d 0e		 jge	 SHORT $LN4@GetItem
  0000b	85 d2		 test	 edx, edx
  0000d	78 0a		 js	 SHORT $LN4@GetItem

; 234  : 											  else									return Items[ idx];	 }

  0000f	8b 41 24	 mov	 eax, DWORD PTR [ecx+36]
  00012	8b 04 90	 mov	 eax, DWORD PTR [eax+edx*4]
  00015	5d		 pop	 ebp
  00016	c2 04 00	 ret	 4
$LN4@GetItem:

; 233  : 	void *	GetItem( INT32 idx)				{ if( idx >= GetCount() || idx < 0 )	return NULL;

  00019	33 c0		 xor	 eax, eax

; 234  : 											  else									return Items[ idx];	 }

  0001b	5d		 pop	 ebp
  0001c	c2 04 00	 ret	 4
?GetItem@i3StringList@@QAEPAXH@Z ENDP			; i3StringList::GetItem
_TEXT	ENDS
; Function compile flags: /Ogtp
; File E:\Proyectos\JuegosOnlineproyectos\PB\pbblow\Piercing Blow Remake\i3Server\include\i3Base\i3List.h
;	COMDAT ?GetCount@i3StringList@@QBEHXZ
_TEXT	SEGMENT
?GetCount@i3StringList@@QBEHXZ PROC			; i3StringList::GetCount, COMDAT
; _this$ = ecx

; 232  : 	INT32	GetCount(void) const			{ return m_Count; }

  00000	8b 41 14	 mov	 eax, DWORD PTR [ecx+20]
  00003	c3		 ret	 0
?GetCount@i3StringList@@QBEHXZ ENDP			; i3StringList::GetCount
_TEXT	ENDS
; Function compile flags: /Ogtp
; File E:\Proyectos\JuegosOnlineproyectos\PB\pbblow\Piercing Blow Remake\i3Server\include\i3Base\i3List.h
;	COMDAT ?GetClassMeta@i3StringList@@SAPAVi3ClassMeta@@XZ
_TEXT	SEGMENT
?GetClassMeta@i3StringList@@SAPAVi3ClassMeta@@XZ PROC	; i3StringList::GetClassMeta, COMDAT

; 198  : 	I3_CLASS_DEFINE( i3StringList);

  00000	a1 00 00 00 00	 mov	 eax, DWORD PTR ?s_pClassMetai3StringList@i3StringList@@2PAVi3ClassMeta@@A ; i3StringList::s_pClassMetai3StringList
  00005	c3		 ret	 0
?GetClassMeta@i3StringList@@SAPAVi3ClassMeta@@XZ ENDP	; i3StringList::GetClassMeta
_TEXT	ENDS
; Function compile flags: /Ogtp
; File E:\Proyectos\JuegosOnlineproyectos\PB\pbblow\Piercing Blow Remake\i3Server\src\i3Base\i3IniParser.cpp
;	COMDAT ??_Ei3List@@UAEPAXI@Z
_TEXT	SEGMENT
__$EHRec$ = -12						; size = 12
___flags$ = 8						; size = 4
??_Ei3List@@UAEPAXI@Z PROC				; i3List::`vector deleting destructor', COMDAT
; _this$ = ecx
  00000	55		 push	 ebp
  00001	8b ec		 mov	 ebp, esp
  00003	6a ff		 push	 -1
  00005	68 00 00 00 00	 push	 __ehhandler$??_Ei3List@@UAEPAXI@Z
  0000a	64 a1 00 00 00
	00		 mov	 eax, DWORD PTR fs:0
  00010	50		 push	 eax
  00011	53		 push	 ebx
  00012	56		 push	 esi
  00013	57		 push	 edi
  00014	a1 00 00 00 00	 mov	 eax, DWORD PTR ___security_cookie
  00019	33 c5		 xor	 eax, ebp
  0001b	50		 push	 eax
  0001c	8d 45 f4	 lea	 eax, DWORD PTR __$EHRec$[ebp]
  0001f	64 a3 00 00 00
	00		 mov	 DWORD PTR fs:0, eax
  00025	8b f1		 mov	 esi, ecx
  00027	8b 5d 08	 mov	 ebx, DWORD PTR ___flags$[ebp]
  0002a	8b fb		 mov	 edi, ebx
  0002c	83 e7 01	 and	 edi, 1
  0002f	f6 c3 02	 test	 bl, 2
  00032	74 3d		 je	 SHORT $LN2@vector
  00034	68 00 00 00 00	 push	 OFFSET ??1i3List@@UAE@XZ ; i3List::~i3List
  00039	ff 76 fc	 push	 DWORD PTR [esi-4]
  0003c	8d 5e fc	 lea	 ebx, DWORD PTR [esi-4]
  0003f	6a 58		 push	 88			; 00000058H
  00041	56		 push	 esi
  00042	e8 00 00 00 00	 call	 ??_M@YGXPAXIIP6EX0@Z@Z
  00047	85 ff		 test	 edi, edi
  00049	74 10		 je	 SHORT $LN3@vector
  0004b	6b 0b 58	 imul	 ecx, DWORD PTR [ebx], 88
  0004e	83 c1 04	 add	 ecx, 4
  00051	51		 push	 ecx
  00052	53		 push	 ebx
  00053	e8 00 00 00 00	 call	 ??_V@YAXPAXI@Z		; operator delete[]
  00058	83 c4 08	 add	 esp, 8
$LN3@vector:
  0005b	8b c3		 mov	 eax, ebx
  0005d	8b 4d f4	 mov	 ecx, DWORD PTR __$EHRec$[ebp]
  00060	64 89 0d 00 00
	00 00		 mov	 DWORD PTR fs:0, ecx
  00067	59		 pop	 ecx
  00068	5f		 pop	 edi
  00069	5e		 pop	 esi
  0006a	5b		 pop	 ebx
  0006b	8b e5		 mov	 esp, ebp
  0006d	5d		 pop	 ebp
  0006e	c2 04 00	 ret	 4
$LN2@vector:
  00071	e8 00 00 00 00	 call	 ??1i3List@@UAE@XZ	; i3List::~i3List
  00076	85 ff		 test	 edi, edi
  00078	74 1b		 je	 SHORT $LN6@vector
  0007a	f6 c3 04	 test	 bl, 4
  0007d	75 0b		 jne	 SHORT $LN5@vector
  0007f	56		 push	 esi
  00080	e8 00 00 00 00	 call	 ??3i3ElementBase@@SAXPAX@Z ; i3ElementBase::operator delete
  00085	83 c4 04	 add	 esp, 4
  00088	eb 0b		 jmp	 SHORT $LN6@vector
$LN5@vector:

  0008a	6a 58		 push	 88			; 00000058H
  0008c	56		 push	 esi
  0008d	e8 00 00 00 00	 call	 ??3@YAXPAXI@Z		; operator delete
  00092	83 c4 08	 add	 esp, 8
$LN6@vector:
  00095	8b c6		 mov	 eax, esi
  00097	8b 4d f4	 mov	 ecx, DWORD PTR __$EHRec$[ebp]
  0009a	64 89 0d 00 00
	00 00		 mov	 DWORD PTR fs:0, ecx
  000a1	59		 pop	 ecx
  000a2	5f		 pop	 edi
  000a3	5e		 pop	 esi
  000a4	5b		 pop	 ebx
  000a5	8b e5		 mov	 esp, ebp
  000a7	5d		 pop	 ebp
  000a8	c2 04 00	 ret	 4
  000ab	cc		 int	 3
  000ac	cc		 int	 3
  000ad	cc		 int	 3
  000ae	cc		 int	 3
  000af	cc		 int	 3
_TEXT	ENDS
;	COMDAT text$x
text$x	SEGMENT
__ehhandler$??_Ei3List@@UAEPAXI@Z:
  00000	90		 npad	 1
  00001	90		 npad	 1
  00002	8b 54 24 08	 mov	 edx, DWORD PTR [esp+8]
  00006	8d 42 0c	 lea	 eax, DWORD PTR [edx+12]
  00009	8b 4a f0	 mov	 ecx, DWORD PTR [edx-16]
  0000c	33 c8		 xor	 ecx, eax
  0000e	e8 00 00 00 00	 call	 @__security_check_cookie@4
  00013	b8 00 00 00 00	 mov	 eax, OFFSET __ehfuncinfo$??_Ei3List@@UAEPAXI@Z
  00018	e9 00 00 00 00	 jmp	 ___CxxFrameHandler3
text$x	ENDS
??_Ei3List@@UAEPAXI@Z ENDP				; i3List::`vector deleting destructor'
; Function compile flags: /Ogtp
; File E:\Proyectos\JuegosOnlineproyectos\PB\pbblow\Piercing Blow Remake\i3Server\src\i3Base\i3IniParser.cpp
;	COMDAT ??_Gi3List@@UAEPAXI@Z
_TEXT	SEGMENT
___flags$ = 8						; size = 4
??_Gi3List@@UAEPAXI@Z PROC				; i3List::`scalar deleting destructor', COMDAT
; _this$ = ecx
  00000	55		 push	 ebp
  00001	8b ec		 mov	 ebp, esp
  00003	56		 push	 esi
  00004	8b f1		 mov	 esi, ecx
  00006	e8 00 00 00 00	 call	 ??1i3List@@UAE@XZ	; i3List::~i3List
  0000b	8b 45 08	 mov	 eax, DWORD PTR ___flags$[ebp]
  0000e	a8 01		 test	 al, 1
  00010	74 1f		 je	 SHORT $LN10@scalar
  00012	a8 04		 test	 al, 4
  00014	75 10		 jne	 SHORT $LN3@scalar
  00016	56		 push	 esi
  00017	e8 00 00 00 00	 call	 ??3i3ElementBase@@SAXPAX@Z ; i3ElementBase::operator delete
  0001c	83 c4 04	 add	 esp, 4
  0001f	8b c6		 mov	 eax, esi
  00021	5e		 pop	 esi
  00022	5d		 pop	 ebp
  00023	c2 04 00	 ret	 4
$LN3@scalar:

  00026	6a 58		 push	 88			; 00000058H
  00028	56		 push	 esi
  00029	e8 00 00 00 00	 call	 ??3@YAXPAXI@Z		; operator delete
  0002e	83 c4 08	 add	 esp, 8
$LN10@scalar:
  00031	8b c6		 mov	 eax, esi
  00033	5e		 pop	 esi
  00034	5d		 pop	 ebp
  00035	c2 04 00	 ret	 4
??_Gi3List@@UAEPAXI@Z ENDP				; i3List::`scalar deleting destructor'
_TEXT	ENDS
; Function compile flags: /Ogtp
;	COMDAT ??_Fi3List@@QAEXXZ
_TEXT	SEGMENT
??_Fi3List@@QAEXXZ PROC					; i3List::`default constructor closure', COMDAT
; _this$ = ecx
  00000	6a 08		 push	 8
  00002	e8 00 00 00 00	 call	 ??0i3List@@QAE@H@Z	; i3List::i3List
  00007	c3		 ret	 0
??_Fi3List@@QAEXXZ ENDP					; i3List::`default constructor closure'
_TEXT	ENDS
; Function compile flags: /Ogtp
;	COMDAT ??4i3List@@QAEAAV0@ABV0@@Z
_TEXT	SEGMENT
___that$ = 8						; size = 4
??4i3List@@QAEAAV0@ABV0@@Z PROC				; i3List::operator=, COMDAT
; _this$ = ecx
  00000	55		 push	 ebp
  00001	8b ec		 mov	 ebp, esp
  00003	8b 55 08	 mov	 edx, DWORD PTR ___that$[ebp]
  00006	8b 42 04	 mov	 eax, DWORD PTR [edx+4]
  00009	89 41 04	 mov	 DWORD PTR [ecx+4], eax
  0000c	8b 42 08	 mov	 eax, DWORD PTR [edx+8]
  0000f	89 41 08	 mov	 DWORD PTR [ecx+8], eax
  00012	8b 42 0c	 mov	 eax, DWORD PTR [edx+12]
  00015	89 41 0c	 mov	 DWORD PTR [ecx+12], eax
  00018	8b 42 10	 mov	 eax, DWORD PTR [edx+16]
  0001b	89 41 10	 mov	 DWORD PTR [ecx+16], eax
  0001e	8b 42 14	 mov	 eax, DWORD PTR [edx+20]
  00021	89 41 14	 mov	 DWORD PTR [ecx+20], eax
  00024	8b 42 18	 mov	 eax, DWORD PTR [edx+24]
  00027	89 41 18	 mov	 DWORD PTR [ecx+24], eax
  0002a	8b 42 1c	 mov	 eax, DWORD PTR [edx+28]
  0002d	89 41 1c	 mov	 DWORD PTR [ecx+28], eax
  00030	8b 42 20	 mov	 eax, DWORD PTR [edx+32]
  00033	89 41 20	 mov	 DWORD PTR [ecx+32], eax
  00036	8b 42 24	 mov	 eax, DWORD PTR [edx+36]
  00039	89 41 24	 mov	 DWORD PTR [ecx+36], eax
  0003c	8b 42 28	 mov	 eax, DWORD PTR [edx+40]
  0003f	89 41 28	 mov	 DWORD PTR [ecx+40], eax
  00042	8b 42 2c	 mov	 eax, DWORD PTR [edx+44]
  00045	89 41 2c	 mov	 DWORD PTR [ecx+44], eax
  00048	8b 42 30	 mov	 eax, DWORD PTR [edx+48]
  0004b	89 41 30	 mov	 DWORD PTR [ecx+48], eax
  0004e	8b 42 34	 mov	 eax, DWORD PTR [edx+52]
  00051	89 41 34	 mov	 DWORD PTR [ecx+52], eax
  00054	8b 42 38	 mov	 eax, DWORD PTR [edx+56]
  00057	89 41 38	 mov	 DWORD PTR [ecx+56], eax
  0005a	8b 42 3c	 mov	 eax, DWORD PTR [edx+60]
  0005d	89 41 3c	 mov	 DWORD PTR [ecx+60], eax
  00060	8b 42 40	 mov	 eax, DWORD PTR [edx+64]
  00063	89 41 40	 mov	 DWORD PTR [ecx+64], eax
  00066	8b 42 44	 mov	 eax, DWORD PTR [edx+68]
  00069	89 41 44	 mov	 DWORD PTR [ecx+68], eax
  0006c	8b 42 48	 mov	 eax, DWORD PTR [edx+72]
  0006f	89 41 48	 mov	 DWORD PTR [ecx+72], eax
  00072	8b 42 4c	 mov	 eax, DWORD PTR [edx+76]
  00075	89 41 4c	 mov	 DWORD PTR [ecx+76], eax
  00078	8b 42 50	 mov	 eax, DWORD PTR [edx+80]
  0007b	89 41 50	 mov	 DWORD PTR [ecx+80], eax
  0007e	8b 42 54	 mov	 eax, DWORD PTR [edx+84]
  00081	89 41 54	 mov	 DWORD PTR [ecx+84], eax
  00084	8b c1		 mov	 eax, ecx
  00086	5d		 pop	 ebp
  00087	c2 04 00	 ret	 4
??4i3List@@QAEAAV0@ABV0@@Z ENDP				; i3List::operator=
_TEXT	ENDS
; Function compile flags: /Ogtp
;	COMDAT ??0i3List@@QAE@ABV0@@Z
_TEXT	SEGMENT
___that$ = 8						; size = 4
??0i3List@@QAE@ABV0@@Z PROC				; i3List::i3List, COMDAT
; _this$ = ecx
  00000	55		 push	 ebp
  00001	8b ec		 mov	 ebp, esp
  00003	8b 55 08	 mov	 edx, DWORD PTR ___that$[ebp]
  00006	53		 push	 ebx
  00007	8b d9		 mov	 ebx, ecx
  00009	b9 08 00 00 00	 mov	 ecx, 8
  0000e	56		 push	 esi
  0000f	57		 push	 edi
  00010	8d 72 28	 lea	 esi, DWORD PTR [edx+40]
  00013	c7 03 00 00 00
	00		 mov	 DWORD PTR [ebx], OFFSET ??_7i3ElementBase@@6B@
  00019	8d 7b 28	 lea	 edi, DWORD PTR [ebx+40]
  0001c	8b 42 04	 mov	 eax, DWORD PTR [edx+4]
  0001f	89 43 04	 mov	 DWORD PTR [ebx+4], eax
  00022	8b 42 08	 mov	 eax, DWORD PTR [edx+8]
  00025	89 43 08	 mov	 DWORD PTR [ebx+8], eax
  00028	8b 42 0c	 mov	 eax, DWORD PTR [edx+12]
  0002b	89 43 0c	 mov	 DWORD PTR [ebx+12], eax
  0002e	c7 03 00 00 00
	00		 mov	 DWORD PTR [ebx], OFFSET ??_7i3List@@6B@
  00034	8b 42 10	 mov	 eax, DWORD PTR [edx+16]
  00037	89 43 10	 mov	 DWORD PTR [ebx+16], eax
  0003a	8b 42 14	 mov	 eax, DWORD PTR [edx+20]
  0003d	89 43 14	 mov	 DWORD PTR [ebx+20], eax
  00040	8b 42 18	 mov	 eax, DWORD PTR [edx+24]
  00043	89 43 18	 mov	 DWORD PTR [ebx+24], eax
  00046	8b 42 1c	 mov	 eax, DWORD PTR [edx+28]
  00049	89 43 1c	 mov	 DWORD PTR [ebx+28], eax
  0004c	8b 42 20	 mov	 eax, DWORD PTR [edx+32]
  0004f	89 43 20	 mov	 DWORD PTR [ebx+32], eax
  00052	8b 42 24	 mov	 eax, DWORD PTR [edx+36]
  00055	89 43 24	 mov	 DWORD PTR [ebx+36], eax
  00058	f3 a5		 rep movsd
  0005a	8b 42 48	 mov	 eax, DWORD PTR [edx+72]
  0005d	89 43 48	 mov	 DWORD PTR [ebx+72], eax
  00060	8b 42 4c	 mov	 eax, DWORD PTR [edx+76]
  00063	89 43 4c	 mov	 DWORD PTR [ebx+76], eax
  00066	8b 42 50	 mov	 eax, DWORD PTR [edx+80]
  00069	89 43 50	 mov	 DWORD PTR [ebx+80], eax
  0006c	8b 42 54	 mov	 eax, DWORD PTR [edx+84]
  0006f	5f		 pop	 edi
  00070	89 43 54	 mov	 DWORD PTR [ebx+84], eax
  00073	8b c3		 mov	 eax, ebx
  00075	5e		 pop	 esi
  00076	5b		 pop	 ebx
  00077	5d		 pop	 ebp
  00078	c2 04 00	 ret	 4
??0i3List@@QAE@ABV0@@Z ENDP				; i3List::i3List
_TEXT	ENDS
; Function compile flags: /Ogtp
; File E:\Proyectos\JuegosOnlineproyectos\PB\pbblow\Piercing Blow Remake\i3Server\include\i3Base\i3List.h
;	COMDAT ?SafeFreeAll@i3List@@QAEXXZ
_TEXT	SEGMENT
?SafeFreeAll@i3List@@QAEXXZ PROC			; i3List::SafeFreeAll, COMDAT
; _this$ = ecx

; 184  : 	{

  00000	53		 push	 ebx
  00001	56		 push	 esi
  00002	57		 push	 edi
  00003	8b f9		 mov	 edi, ecx

; 185  : 		INT32 Count = GetCount();

  00005	33 f6		 xor	 esi, esi
  00007	8b 5f 14	 mov	 ebx, DWORD PTR [edi+20]

; 186  : 		for (INT i = 0 ; i < Count ; ++i)

  0000a	85 db		 test	 ebx, ebx
  0000c	7e 29		 jle	 SHORT $LN3@SafeFreeAl
  0000e	8b ff		 npad	 2
$LL4@SafeFreeAl:

; 93   : 	void *	GetItem( INT32 idx)				{ if( idx >= GetCount() || idx < 0 )	return NULL;

  00010	3b 77 14	 cmp	 esi, DWORD PTR [edi+20]
  00013	7d 1d		 jge	 SHORT $LN2@SafeFreeAl

; 94   : 											  else									return Items[ idx];	 }

  00015	8b 47 24	 mov	 eax, DWORD PTR [edi+36]
  00018	8b 04 b0	 mov	 eax, DWORD PTR [eax+esi*4]

; 187  : 		{
; 188  : 			void * p = GetItem(i);
; 189  : 			if ( p )

  0001b	85 c0		 test	 eax, eax
  0001d	74 13		 je	 SHORT $LN2@SafeFreeAl

; 190  : 				i3MemFree(p);

  0001f	68 be 00 00 00	 push	 190			; 000000beH
  00024	68 00 00 00 00	 push	 OFFSET ??_C@_0GD@LNMGNFKI@E?3?2Proyectos?2JuegosOnlineproyec@
  00029	50		 push	 eax
  0002a	e8 00 00 00 00	 call	 ?FreeTool@i3mem@@YAXPAXPBDH@Z ; i3mem::FreeTool
  0002f	83 c4 0c	 add	 esp, 12			; 0000000cH
$LN2@SafeFreeAl:

; 186  : 		for (INT i = 0 ; i < Count ; ++i)

  00032	46		 inc	 esi
  00033	3b f3		 cmp	 esi, ebx
  00035	7c d9		 jl	 SHORT $LL4@SafeFreeAl
$LN3@SafeFreeAl:

; 191  : 		}
; 192  : 		Clear();

  00037	8b 07		 mov	 eax, DWORD PTR [edi]
  00039	8b cf		 mov	 ecx, edi
  0003b	6a 00		 push	 0
  0003d	ff 50 20	 call	 DWORD PTR [eax+32]
  00040	5f		 pop	 edi
  00041	5e		 pop	 esi
  00042	5b		 pop	 ebx

; 193  : 	}

  00043	c3		 ret	 0
?SafeFreeAll@i3List@@QAEXXZ ENDP			; i3List::SafeFreeAll
_TEXT	ENDS
; Function compile flags: /Ogtp
; File E:\Proyectos\JuegosOnlineproyectos\PB\pbblow\Piercing Blow Remake\i3Server\include\i3Base\i3List.h
;	COMDAT ?SafeReleaseAll@i3List@@QAEXXZ
_TEXT	SEGMENT
?SafeReleaseAll@i3List@@QAEXXZ PROC			; i3List::SafeReleaseAll, COMDAT
; _this$ = ecx

; 170  : 	{

  00000	53		 push	 ebx
  00001	56		 push	 esi
  00002	57		 push	 edi
  00003	8b f9		 mov	 edi, ecx

; 171  : 		INT32 i,n = GetCount();

  00005	33 f6		 xor	 esi, esi
  00007	8b 5f 14	 mov	 ebx, DWORD PTR [edi+20]

; 172  : 		for( i=0; i<n; i++)

  0000a	85 db		 test	 ebx, ebx
  0000c	7e 1b		 jle	 SHORT $LN3@SafeReleas
  0000e	8b ff		 npad	 2
$LL4@SafeReleas:

; 93   : 	void *	GetItem( INT32 idx)				{ if( idx >= GetCount() || idx < 0 )	return NULL;

  00010	3b 77 14	 cmp	 esi, DWORD PTR [edi+20]
  00013	7d 0f		 jge	 SHORT $LN2@SafeReleas

; 94   : 											  else									return Items[ idx];	 }

  00015	8b 47 24	 mov	 eax, DWORD PTR [edi+36]
  00018	8b 0c b0	 mov	 ecx, DWORD PTR [eax+esi*4]

; 173  : 		{
; 174  : 			i3ElementBase *pItem = (i3ElementBase*)GetItem(i);
; 175  : 			if( pItem != NULL )

  0001b	85 c9		 test	 ecx, ecx
  0001d	74 05		 je	 SHORT $LN2@SafeReleas

; 176  : 			{
; 177  : 				pItem->Release();

  0001f	e8 00 00 00 00	 call	 ?Release@i3ElementBase@@QAEXXZ ; i3ElementBase::Release
$LN2@SafeReleas:

; 172  : 		for( i=0; i<n; i++)

  00024	46		 inc	 esi
  00025	3b f3		 cmp	 esi, ebx
  00027	7c e7		 jl	 SHORT $LL4@SafeReleas
$LN3@SafeReleas:

; 178  : 			}
; 179  : 		}
; 180  : 		Clear();

  00029	8b 07		 mov	 eax, DWORD PTR [edi]
  0002b	8b cf		 mov	 ecx, edi
  0002d	6a 00		 push	 0
  0002f	ff 50 20	 call	 DWORD PTR [eax+32]
  00032	5f		 pop	 edi
  00033	5e		 pop	 esi
  00034	5b		 pop	 ebx

; 181  : 	}

  00035	c3		 ret	 0
?SafeReleaseAll@i3List@@QAEXXZ ENDP			; i3List::SafeReleaseAll
_TEXT	ENDS
; Function compile flags: /Ogtp
; File E:\Proyectos\JuegosOnlineproyectos\PB\pbblow\Piercing Blow Remake\i3Server\include\i3Base\i3List.h
;	COMDAT ?AddFromList@i3List@@QAEXPAV1@@Z
_TEXT	SEGMENT
_pSrcList$ = 8						; size = 4
?AddFromList@i3List@@QAEXPAV1@@Z PROC			; i3List::AddFromList, COMDAT
; _this$ = ecx

; 126  : 	{

  00000	55		 push	 ebp
  00001	8b ec		 mov	 ebp, esp
  00003	53		 push	 ebx
  00004	56		 push	 esi
  00005	57		 push	 edi
  00006	8b 7d 08	 mov	 edi, DWORD PTR _pSrcList$[ebp]

; 127  : 		INT32 i;
; 128  : 		for( i = 0; i  < pSrcList->GetCount(); i++)

  00009	33 f6		 xor	 esi, esi
  0000b	8b d9		 mov	 ebx, ecx
  0000d	39 77 14	 cmp	 DWORD PTR [edi+20], esi
  00010	7e 13		 jle	 SHORT $LN3@AddFromLis
$LL4@AddFromLis:

; 129  : 		{
; 130  : 			Add( pSrcList->Items[i]);

  00012	8b 47 24	 mov	 eax, DWORD PTR [edi+36]
  00015	8b cb		 mov	 ecx, ebx
  00017	8b 13		 mov	 edx, DWORD PTR [ebx]
  00019	ff 34 b0	 push	 DWORD PTR [eax+esi*4]
  0001c	ff 52 10	 call	 DWORD PTR [edx+16]
  0001f	46		 inc	 esi
  00020	3b 77 14	 cmp	 esi, DWORD PTR [edi+20]
  00023	7c ed		 jl	 SHORT $LL4@AddFromLis
$LN3@AddFromLis:
  00025	5f		 pop	 edi

; 131  : 		}
; 132  : 	}

  00026	5e		 pop	 esi
  00027	5b		 pop	 ebx
  00028	5d		 pop	 ebp
  00029	c2 04 00	 ret	 4
?AddFromList@i3List@@QAEXPAV1@@Z ENDP			; i3List::AddFromList
_TEXT	ENDS
; Function compile flags: /Ogtp
; File E:\Proyectos\JuegosOnlineproyectos\PB\pbblow\Piercing Blow Remake\i3Server\include\i3Base\i3List.h
;	COMDAT ?GetLast@i3List@@QAEPAXXZ
_TEXT	SEGMENT
?GetLast@i3List@@QAEPAXXZ PROC				; i3List::GetLast, COMDAT
; _this$ = ecx

; 114  : 	void *	GetLast(void)					{ return Items[ m_Count-1]; }

  00000	8b 51 14	 mov	 edx, DWORD PTR [ecx+20]
  00003	8b 41 24	 mov	 eax, DWORD PTR [ecx+36]
  00006	8b 44 90 fc	 mov	 eax, DWORD PTR [eax+edx*4-4]
  0000a	c3		 ret	 0
?GetLast@i3List@@QAEPAXXZ ENDP				; i3List::GetLast
_TEXT	ENDS
; Function compile flags: /Ogtp
; File E:\Proyectos\JuegosOnlineproyectos\PB\pbblow\Piercing Blow Remake\i3Server\include\i3Base\i3List.h
;	COMDAT ?GetFirst@i3List@@QAEPAXXZ
_TEXT	SEGMENT
?GetFirst@i3List@@QAEPAXXZ PROC				; i3List::GetFirst, COMDAT
; _this$ = ecx

; 113  : 	void *	GetFirst(void)					{ return Items[ 0]; }

  00000	8b 41 24	 mov	 eax, DWORD PTR [ecx+36]
  00003	8b 00		 mov	 eax, DWORD PTR [eax]
  00005	c3		 ret	 0
?GetFirst@i3List@@QAEPAXXZ ENDP				; i3List::GetFirst
_TEXT	ENDS
; Function compile flags: /Ogtp
; File E:\Proyectos\JuegosOnlineproyectos\PB\pbblow\Piercing Blow Remake\i3Server\include\i3Base\i3List.h
;	COMDAT ?Find@i3List@@QBEHPAX@Z
_TEXT	SEGMENT
_p$ = 8							; size = 4
?Find@i3List@@QBEHPAX@Z PROC				; i3List::Find, COMDAT
; _this$ = ecx

; 111  : 	INT32	Find( void * p) const			{ return IndexOf( p); }

  00000	55		 push	 ebp
  00001	8b ec		 mov	 ebp, esp
  00003	8b 01		 mov	 eax, DWORD PTR [ecx]
  00005	5d		 pop	 ebp
  00006	ff 60 0c	 jmp	 DWORD PTR [eax+12]
?Find@i3List@@QBEHPAX@Z ENDP				; i3List::Find
_TEXT	ENDS
; Function compile flags: /Ogtp
; File E:\Proyectos\JuegosOnlineproyectos\PB\pbblow\Piercing Blow Remake\i3Server\include\i3Base\i3List.h
;	COMDAT ?GetSafeItem@i3List@@QAEPAXH@Z
_TEXT	SEGMENT
_idx$ = 8						; size = 4
?GetSafeItem@i3List@@QAEPAXH@Z PROC			; i3List::GetSafeItem, COMDAT
; _this$ = ecx

; 107  : 	{

  00000	55		 push	 ebp
  00001	8b ec		 mov	 ebp, esp

; 102  : 		if ( idx >= 0 && idx < m_Count )

  00003	8b 55 08	 mov	 edx, DWORD PTR _idx$[ebp]
  00006	85 d2		 test	 edx, edx
  00008	78 0f		 js	 SHORT $LN4@GetSafeIte
  0000a	3b 51 14	 cmp	 edx, DWORD PTR [ecx+20]
  0000d	7d 0a		 jge	 SHORT $LN4@GetSafeIte

; 103  : 			return Items[ idx];

  0000f	8b 41 24	 mov	 eax, DWORD PTR [ecx+36]

; 108  : 		return const_cast<void *>(static_cast<const i3List &>(*this).GetSafeItem(idx));

  00012	8b 04 90	 mov	 eax, DWORD PTR [eax+edx*4]

; 109  : 	}

  00015	5d		 pop	 ebp
  00016	c2 04 00	 ret	 4
$LN4@GetSafeIte:

; 108  : 		return const_cast<void *>(static_cast<const i3List &>(*this).GetSafeItem(idx));

  00019	33 c0		 xor	 eax, eax

; 109  : 	}

  0001b	5d		 pop	 ebp
  0001c	c2 04 00	 ret	 4
?GetSafeItem@i3List@@QAEPAXH@Z ENDP			; i3List::GetSafeItem
_TEXT	ENDS
; Function compile flags: /Ogtp
; File E:\Proyectos\JuegosOnlineproyectos\PB\pbblow\Piercing Blow Remake\i3Server\include\i3Base\i3List.h
;	COMDAT ?GetSafeItem@i3List@@QBEPBXH@Z
_TEXT	SEGMENT
_idx$ = 8						; size = 4
?GetSafeItem@i3List@@QBEPBXH@Z PROC			; i3List::GetSafeItem, COMDAT
; _this$ = ecx

; 101  : 	{

  00000	55		 push	 ebp
  00001	8b ec		 mov	 ebp, esp

; 102  : 		if ( idx >= 0 && idx < m_Count )

  00003	8b 55 08	 mov	 edx, DWORD PTR _idx$[ebp]
  00006	85 d2		 test	 edx, edx
  00008	78 0f		 js	 SHORT $LN2@GetSafeIte
  0000a	3b 51 14	 cmp	 edx, DWORD PTR [ecx+20]
  0000d	7d 0a		 jge	 SHORT $LN2@GetSafeIte

; 103  : 			return Items[ idx];

  0000f	8b 41 24	 mov	 eax, DWORD PTR [ecx+36]
  00012	8b 04 90	 mov	 eax, DWORD PTR [eax+edx*4]

; 105  : 	}

  00015	5d		 pop	 ebp
  00016	c2 04 00	 ret	 4
$LN2@GetSafeIte:

; 104  : 		return NULL;

  00019	33 c0		 xor	 eax, eax

; 105  : 	}

  0001b	5d		 pop	 ebp
  0001c	c2 04 00	 ret	 4
?GetSafeItem@i3List@@QBEPBXH@Z ENDP			; i3List::GetSafeItem
_TEXT	ENDS
; Function compile flags: /Ogtp
; File E:\Proyectos\JuegosOnlineproyectos\PB\pbblow\Piercing Blow Remake\i3Server\include\i3Base\i3List.h
;	COMDAT ?GetItem@i3List@@QBEPBXH@Z
_TEXT	SEGMENT
_idx$ = 8						; size = 4
?GetItem@i3List@@QBEPBXH@Z PROC				; i3List::GetItem, COMDAT
; _this$ = ecx

; 97   : 	const void *	GetItem( INT32 idx) const	{ if( idx >= GetCount() || idx < 0 )	return NULL;

  00000	55		 push	 ebp
  00001	8b ec		 mov	 ebp, esp
  00003	8b 55 08	 mov	 edx, DWORD PTR _idx$[ebp]
  00006	3b 51 14	 cmp	 edx, DWORD PTR [ecx+20]
  00009	7d 0e		 jge	 SHORT $LN4@GetItem
  0000b	85 d2		 test	 edx, edx
  0000d	78 0a		 js	 SHORT $LN4@GetItem

; 98   : 												  else									return Items[ idx];	 }

  0000f	8b 41 24	 mov	 eax, DWORD PTR [ecx+36]
  00012	8b 04 90	 mov	 eax, DWORD PTR [eax+edx*4]
  00015	5d		 pop	 ebp
  00016	c2 04 00	 ret	 4
$LN4@GetItem:

; 97   : 	const void *	GetItem( INT32 idx) const	{ if( idx >= GetCount() || idx < 0 )	return NULL;

  00019	33 c0		 xor	 eax, eax

; 98   : 												  else									return Items[ idx];	 }

  0001b	5d		 pop	 ebp
  0001c	c2 04 00	 ret	 4
?GetItem@i3List@@QBEPBXH@Z ENDP				; i3List::GetItem
_TEXT	ENDS
; Function compile flags: /Ogtp
; File E:\Proyectos\JuegosOnlineproyectos\PB\pbblow\Piercing Blow Remake\i3Server\include\i3Base\i3List.h
;	COMDAT ?GetItem@i3List@@QAEPAXH@Z
_TEXT	SEGMENT
_idx$ = 8						; size = 4
?GetItem@i3List@@QAEPAXH@Z PROC				; i3List::GetItem, COMDAT
; _this$ = ecx

; 93   : 	void *	GetItem( INT32 idx)				{ if( idx >= GetCount() || idx < 0 )	return NULL;

  00000	55		 push	 ebp
  00001	8b ec		 mov	 ebp, esp
  00003	8b 55 08	 mov	 edx, DWORD PTR _idx$[ebp]
  00006	3b 51 14	 cmp	 edx, DWORD PTR [ecx+20]
  00009	7d 0e		 jge	 SHORT $LN4@GetItem
  0000b	85 d2		 test	 edx, edx
  0000d	78 0a		 js	 SHORT $LN4@GetItem

; 94   : 											  else									return Items[ idx];	 }

  0000f	8b 41 24	 mov	 eax, DWORD PTR [ecx+36]
  00012	8b 04 90	 mov	 eax, DWORD PTR [eax+edx*4]
  00015	5d		 pop	 ebp
  00016	c2 04 00	 ret	 4
$LN4@GetItem:

; 93   : 	void *	GetItem( INT32 idx)				{ if( idx >= GetCount() || idx < 0 )	return NULL;

  00019	33 c0		 xor	 eax, eax

; 94   : 											  else									return Items[ idx];	 }

  0001b	5d		 pop	 ebp
  0001c	c2 04 00	 ret	 4
?GetItem@i3List@@QAEPAXH@Z ENDP				; i3List::GetItem
_TEXT	ENDS
; Function compile flags: /Ogtp
; File E:\Proyectos\JuegosOnlineproyectos\PB\pbblow\Piercing Blow Remake\i3Server\include\i3Base\i3List.h
;	COMDAT ?GetCount@i3List@@QBEHXZ
_TEXT	SEGMENT
?GetCount@i3List@@QBEHXZ PROC				; i3List::GetCount, COMDAT
; _this$ = ecx

; 91   : 	INT32	GetCount(void) const			{ return m_Count; }

  00000	8b 41 14	 mov	 eax, DWORD PTR [ecx+20]
  00003	c3		 ret	 0
?GetCount@i3List@@QBEHXZ ENDP				; i3List::GetCount
_TEXT	ENDS
; Function compile flags: /Ogtp
; File E:\Proyectos\JuegosOnlineproyectos\PB\pbblow\Piercing Blow Remake\i3Server\include\i3Base\i3List.h
;	COMDAT ?SetOnceMode@i3List@@QAEXH@Z
_TEXT	SEGMENT
_bFlag$ = 8						; size = 4
?SetOnceMode@i3List@@QAEXH@Z PROC			; i3List::SetOnceMode, COMDAT
; _this$ = ecx

; 89   : 	void	SetOnceMode( BOOL bFlag = TRUE ){ m_bOnceMode = bFlag;	}

  00000	55		 push	 ebp
  00001	8b ec		 mov	 ebp, esp
  00003	8b 45 08	 mov	 eax, DWORD PTR _bFlag$[ebp]
  00006	89 41 20	 mov	 DWORD PTR [ecx+32], eax
  00009	5d		 pop	 ebp
  0000a	c2 04 00	 ret	 4
?SetOnceMode@i3List@@QAEXH@Z ENDP			; i3List::SetOnceMode
_TEXT	ENDS
; Function compile flags: /Ogtp
; File E:\Proyectos\JuegosOnlineproyectos\PB\pbblow\Piercing Blow Remake\i3Server\include\i3Base\i3List.h
;	COMDAT ?SetOptmizeEnableWhenClear@i3List@@QAEXH@Z
_TEXT	SEGMENT
_bFlag$ = 8						; size = 4
?SetOptmizeEnableWhenClear@i3List@@QAEXH@Z PROC		; i3List::SetOptmizeEnableWhenClear, COMDAT
; _this$ = ecx

; 85   : 	void	SetOptmizeEnableWhenClear( BOOL bFlag)				{ m_bOptimizeWhenClear = bFlag; }

  00000	55		 push	 ebp
  00001	8b ec		 mov	 ebp, esp
  00003	8b 45 08	 mov	 eax, DWORD PTR _bFlag$[ebp]
  00006	89 41 1c	 mov	 DWORD PTR [ecx+28], eax
  00009	5d		 pop	 ebp
  0000a	c2 04 00	 ret	 4
?SetOptmizeEnableWhenClear@i3List@@QAEXH@Z ENDP		; i3List::SetOptmizeEnableWhenClear
_TEXT	ENDS
; Function compile flags: /Ogtp
; File E:\Proyectos\JuegosOnlineproyectos\PB\pbblow\Piercing Blow Remake\i3Server\include\i3Base\i3List.h
;	COMDAT ?GetClassMeta@i3List@@SAPAVi3ClassMeta@@XZ
_TEXT	SEGMENT
?GetClassMeta@i3List@@SAPAVi3ClassMeta@@XZ PROC		; i3List::GetClassMeta, COMDAT

; 22   : 	I3_CLASS_DEFINE( i3List);

  00000	a1 00 00 00 00	 mov	 eax, DWORD PTR ?s_pClassMetai3List@i3List@@2PAVi3ClassMeta@@A ; i3List::s_pClassMetai3List
  00005	c3		 ret	 0
?GetClassMeta@i3List@@SAPAVi3ClassMeta@@XZ ENDP		; i3List::GetClassMeta
_TEXT	ENDS
; Function compile flags: /Ogtp
;	COMDAT ??_Ei3XMLElement@@UAEPAXI@Z
_TEXT	SEGMENT
__$EHRec$ = -12						; size = 12
___flags$ = 8						; size = 4
??_Ei3XMLElement@@UAEPAXI@Z PROC			; i3XMLElement::`vector deleting destructor', COMDAT
; _this$ = ecx
  00000	55		 push	 ebp
  00001	8b ec		 mov	 ebp, esp
  00003	6a ff		 push	 -1
  00005	68 00 00 00 00	 push	 __ehhandler$??_Ei3XMLElement@@UAEPAXI@Z
  0000a	64 a1 00 00 00
	00		 mov	 eax, DWORD PTR fs:0
  00010	50		 push	 eax
  00011	53		 push	 ebx
  00012	56		 push	 esi
  00013	57		 push	 edi
  00014	a1 00 00 00 00	 mov	 eax, DWORD PTR ___security_cookie
  00019	33 c5		 xor	 eax, ebp
  0001b	50		 push	 eax
  0001c	8d 45 f4	 lea	 eax, DWORD PTR __$EHRec$[ebp]
  0001f	64 a3 00 00 00
	00		 mov	 DWORD PTR fs:0, eax
  00025	8b f1		 mov	 esi, ecx
  00027	8b 45 08	 mov	 eax, DWORD PTR ___flags$[ebp]
  0002a	8b f8		 mov	 edi, eax
  0002c	83 e7 01	 and	 edi, 1
  0002f	a8 02		 test	 al, 2
  00031	74 42		 je	 SHORT $LN2@vector
  00033	68 00 00 00 00	 push	 OFFSET ??1i3XMLElement@@UAE@XZ ; i3XMLElement::~i3XMLElement
  00038	ff 76 fc	 push	 DWORD PTR [esi-4]
  0003b	8d 5e fc	 lea	 ebx, DWORD PTR [esi-4]
  0003e	6a 50		 push	 80			; 00000050H
  00040	56		 push	 esi
  00041	e8 00 00 00 00	 call	 ??_M@YGXPAXIIP6EX0@Z@Z
  00046	85 ff		 test	 edi, edi
  00048	74 15		 je	 SHORT $LN3@vector
  0004a	8b 0b		 mov	 ecx, DWORD PTR [ebx]
  0004c	8d 0c 89	 lea	 ecx, DWORD PTR [ecx+ecx*4]
  0004f	c1 e1 04	 shl	 ecx, 4
  00052	83 c1 04	 add	 ecx, 4
  00055	51		 push	 ecx
  00056	53		 push	 ebx
  00057	e8 00 00 00 00	 call	 ??_V@YAXPAXI@Z		; operator delete[]
  0005c	83 c4 08	 add	 esp, 8
$LN3@vector:
  0005f	8b c3		 mov	 eax, ebx
  00061	8b 4d f4	 mov	 ecx, DWORD PTR __$EHRec$[ebp]
  00064	64 89 0d 00 00
	00 00		 mov	 DWORD PTR fs:0, ecx
  0006b	59		 pop	 ecx
  0006c	5f		 pop	 edi
  0006d	5e		 pop	 esi
  0006e	5b		 pop	 ebx
  0006f	8b e5		 mov	 esp, ebp
  00071	5d		 pop	 ebp
  00072	c2 04 00	 ret	 4
$LN2@vector:
  00075	e8 00 00 00 00	 call	 ??1i3XMLElement@@UAE@XZ	; i3XMLElement::~i3XMLElement
  0007a	85 ff		 test	 edi, edi
  0007c	74 0b		 je	 SHORT $LN4@vector
  0007e	6a 50		 push	 80			; 00000050H
  00080	56		 push	 esi
  00081	e8 00 00 00 00	 call	 ??3@YAXPAXI@Z		; operator delete
  00086	83 c4 08	 add	 esp, 8
$LN4@vector:
  00089	8b c6		 mov	 eax, esi
  0008b	8b 4d f4	 mov	 ecx, DWORD PTR __$EHRec$[ebp]
  0008e	64 89 0d 00 00
	00 00		 mov	 DWORD PTR fs:0, ecx
  00095	59		 pop	 ecx
  00096	5f		 pop	 edi
  00097	5e		 pop	 esi
  00098	5b		 pop	 ebx
  00099	8b e5		 mov	 esp, ebp
  0009b	5d		 pop	 ebp
  0009c	c2 04 00	 ret	 4
  0009f	cc		 int	 3
  000a0	cc		 int	 3
  000a1	cc		 int	 3
  000a2	cc		 int	 3
  000a3	cc		 int	 3
_TEXT	ENDS
;	COMDAT text$x
text$x	SEGMENT
__ehhandler$??_Ei3XMLElement@@UAEPAXI@Z:
  00000	90		 npad	 1
  00001	90		 npad	 1
  00002	8b 54 24 08	 mov	 edx, DWORD PTR [esp+8]
  00006	8d 42 0c	 lea	 eax, DWORD PTR [edx+12]
  00009	8b 4a f0	 mov	 ecx, DWORD PTR [edx-16]
  0000c	33 c8		 xor	 ecx, eax
  0000e	e8 00 00 00 00	 call	 @__security_check_cookie@4
  00013	b8 00 00 00 00	 mov	 eax, OFFSET __ehfuncinfo$??_Ei3XMLElement@@UAEPAXI@Z
  00018	e9 00 00 00 00	 jmp	 ___CxxFrameHandler3
text$x	ENDS
??_Ei3XMLElement@@UAEPAXI@Z ENDP			; i3XMLElement::`vector deleting destructor'
; Function compile flags: /Ogtp
;	COMDAT ??_Gi3XMLElement@@UAEPAXI@Z
_TEXT	SEGMENT
___flags$ = 8						; size = 4
??_Gi3XMLElement@@UAEPAXI@Z PROC			; i3XMLElement::`scalar deleting destructor', COMDAT
; _this$ = ecx
  00000	55		 push	 ebp
  00001	8b ec		 mov	 ebp, esp
  00003	56		 push	 esi
  00004	8b f1		 mov	 esi, ecx
  00006	e8 00 00 00 00	 call	 ??1i3XMLElement@@UAE@XZ	; i3XMLElement::~i3XMLElement
  0000b	f6 45 08 01	 test	 BYTE PTR ___flags$[ebp], 1
  0000f	74 0b		 je	 SHORT $LN5@scalar
  00011	6a 50		 push	 80			; 00000050H
  00013	56		 push	 esi
  00014	e8 00 00 00 00	 call	 ??3@YAXPAXI@Z		; operator delete
  00019	83 c4 08	 add	 esp, 8
$LN5@scalar:
  0001c	8b c6		 mov	 eax, esi
  0001e	5e		 pop	 esi
  0001f	5d		 pop	 ebp
  00020	c2 04 00	 ret	 4
??_Gi3XMLElement@@UAEPAXI@Z ENDP			; i3XMLElement::`scalar deleting destructor'
_TEXT	ENDS
; Function compile flags: /Ogtp
;	COMDAT ??4i3XMLElement@@QAEAAV0@ABV0@@Z
_TEXT	SEGMENT
___that$ = 8						; size = 4
??4i3XMLElement@@QAEAAV0@ABV0@@Z PROC			; i3XMLElement::operator=, COMDAT
; _this$ = ecx
  00000	55		 push	 ebp
  00001	8b ec		 mov	 ebp, esp
  00003	56		 push	 esi
  00004	ff 75 08	 push	 DWORD PTR ___that$[ebp]
  00007	8b f1		 mov	 esi, ecx
  00009	e8 00 00 00 00	 call	 ??4TiXmlElement@@QAEXABV0@@Z ; TiXmlElement::operator=
  0000e	8b c6		 mov	 eax, esi
  00010	5e		 pop	 esi
  00011	5d		 pop	 ebp
  00012	c2 04 00	 ret	 4
??4i3XMLElement@@QAEAAV0@ABV0@@Z ENDP			; i3XMLElement::operator=
_TEXT	ENDS
; Function compile flags: /Ogtp
;	COMDAT ??0i3XMLElement@@QAE@ABV0@@Z
_TEXT	SEGMENT
_this$ = -4						; size = 4
___that$ = 8						; size = 4
??0i3XMLElement@@QAE@ABV0@@Z PROC			; i3XMLElement::i3XMLElement, COMDAT
; _this$ = ecx
  00000	55		 push	 ebp
  00001	8b ec		 mov	 ebp, esp
  00003	51		 push	 ecx
  00004	56		 push	 esi
  00005	ff 75 08	 push	 DWORD PTR ___that$[ebp]
  00008	8b f1		 mov	 esi, ecx
  0000a	89 75 fc	 mov	 DWORD PTR _this$[ebp], esi
  0000d	e8 00 00 00 00	 call	 ??0TiXmlElement@@QAE@ABV0@@Z ; TiXmlElement::TiXmlElement
  00012	c7 06 00 00 00
	00		 mov	 DWORD PTR [esi], OFFSET ??_7i3XMLElement@@6B@
  00018	8b c6		 mov	 eax, esi
  0001a	5e		 pop	 esi
  0001b	8b e5		 mov	 esp, ebp
  0001d	5d		 pop	 ebp
  0001e	c2 04 00	 ret	 4
??0i3XMLElement@@QAE@ABV0@@Z ENDP			; i3XMLElement::i3XMLElement
_TEXT	ENDS
; Function compile flags: /Ogtp
; File E:\Proyectos\JuegosOnlineproyectos\PB\pbblow\Piercing Blow Remake\i3Server\include\i3Base\i3XMLElement.h
;	COMDAT ?getAttr@i3XMLElement@@QAEPBDPBDPAG@Z
_TEXT	SEGMENT
_val$ = -4						; size = 4
_pszName$ = 8						; size = 4
_pVal$ = 12						; size = 4
?getAttr@i3XMLElement@@QAEPBDPBDPAG@Z PROC		; i3XMLElement::getAttr, COMDAT
; _this$ = ecx

; 39   : 	{

  00000	55		 push	 ebp
  00001	8b ec		 mov	 ebp, esp
  00003	51		 push	 ecx

; 40   : 		INT32 val;
; 41   : 		const char * pRv;
; 42   : 
; 43   : 		pRv = Attribute( pszName, &val);

  00004	8d 45 fc	 lea	 eax, DWORD PTR _val$[ebp]
  00007	50		 push	 eax
  00008	ff 75 08	 push	 DWORD PTR _pszName$[ebp]
  0000b	e8 00 00 00 00	 call	 ?Attribute@TiXmlElement@@QBEPBDPBDPAH@Z ; TiXmlElement::Attribute

; 44   : 
; 45   : 		*pVal = (UINT16) val;

  00010	8b 55 0c	 mov	 edx, DWORD PTR _pVal$[ebp]
  00013	66 8b 4d fc	 mov	 cx, WORD PTR _val$[ebp]
  00017	66 89 0a	 mov	 WORD PTR [edx], cx

; 46   : 
; 47   : 		return pRv;
; 48   : 	}

  0001a	8b e5		 mov	 esp, ebp
  0001c	5d		 pop	 ebp
  0001d	c2 08 00	 ret	 8
?getAttr@i3XMLElement@@QAEPBDPBDPAG@Z ENDP		; i3XMLElement::getAttr
_TEXT	ENDS
; Function compile flags: /Ogtp
; File E:\Proyectos\JuegosOnlineproyectos\PB\pbblow\Piercing Blow Remake\i3Server\include\i3Base\i3XMLElement.h
;	COMDAT ?getAttr@i3XMLElement@@QAEPBDPBDPAM@Z
_TEXT	SEGMENT
_val$ = -8						; size = 8
_pszName$ = 8						; size = 4
_pVal$ = 12						; size = 4
?getAttr@i3XMLElement@@QAEPBDPBDPAM@Z PROC		; i3XMLElement::getAttr, COMDAT
; _this$ = ecx

; 27   : 	{ 

  00000	55		 push	 ebp
  00001	8b ec		 mov	 ebp, esp
  00003	83 ec 08	 sub	 esp, 8

; 28   : 		const char * pRv;
; 29   : 		double val;
; 30   : 
; 31   : 		pRv = Attribute( pszName, &val);

  00006	8d 45 f8	 lea	 eax, DWORD PTR _val$[ebp]
  00009	50		 push	 eax
  0000a	ff 75 08	 push	 DWORD PTR _pszName$[ebp]
  0000d	e8 00 00 00 00	 call	 ?Attribute@TiXmlElement@@QBEPBDPBDPAN@Z ; TiXmlElement::Attribute

; 32   : 
; 33   : 		*pVal = (REAL32) val;

  00012	8b 4d 0c	 mov	 ecx, DWORD PTR _pVal$[ebp]
  00015	dd 45 f8	 fld	 QWORD PTR _val$[ebp]
  00018	d9 19		 fstp	 DWORD PTR [ecx]

; 34   : 
; 35   : 		return pRv; 
; 36   : 	}

  0001a	8b e5		 mov	 esp, ebp
  0001c	5d		 pop	 ebp
  0001d	c2 08 00	 ret	 8
?getAttr@i3XMLElement@@QAEPBDPBDPAM@Z ENDP		; i3XMLElement::getAttr
_TEXT	ENDS
; Function compile flags: /Ogtp
; File E:\Proyectos\JuegosOnlineproyectos\PB\pbblow\Piercing Blow Remake\i3Server\include\i3Base\i3XMLElement.h
;	COMDAT ?getAttr@i3XMLElement@@QAEPBDPBDPA_K@Z
_TEXT	SEGMENT
_pszName$ = 8						; size = 4
_pVal$ = 12						; size = 4
?getAttr@i3XMLElement@@QAEPBDPBDPA_K@Z PROC		; i3XMLElement::getAttr, COMDAT
; _this$ = ecx

; 25   : 	const char *	getAttr( const char * pszName, UINT64 * pVal)			{ return AttributeLong( pszName, (INT64 *) pVal); }

  00000	55		 push	 ebp
  00001	8b ec		 mov	 ebp, esp
  00003	5d		 pop	 ebp
  00004	e9 00 00 00 00	 jmp	 ?AttributeLong@TiXmlElement@@QBEPBDPBDPA_J@Z ; TiXmlElement::AttributeLong
?getAttr@i3XMLElement@@QAEPBDPBDPA_K@Z ENDP		; i3XMLElement::getAttr
_TEXT	ENDS
; Function compile flags: /Ogtp
; File E:\Proyectos\JuegosOnlineproyectos\PB\pbblow\Piercing Blow Remake\i3Server\include\i3Base\i3XMLElement.h
;	COMDAT ?getAttr@i3XMLElement@@QAEPBDPBDPA_J@Z
_TEXT	SEGMENT
_pszName$ = 8						; size = 4
_pVal$ = 12						; size = 4
?getAttr@i3XMLElement@@QAEPBDPBDPA_J@Z PROC		; i3XMLElement::getAttr, COMDAT
; _this$ = ecx

; 24   : 	const char *	getAttr( const char * pszName, INT64 * pVal)			{ return AttributeLong( pszName, pVal); }

  00000	55		 push	 ebp
  00001	8b ec		 mov	 ebp, esp
  00003	5d		 pop	 ebp
  00004	e9 00 00 00 00	 jmp	 ?AttributeLong@TiXmlElement@@QBEPBDPBDPA_J@Z ; TiXmlElement::AttributeLong
?getAttr@i3XMLElement@@QAEPBDPBDPA_J@Z ENDP		; i3XMLElement::getAttr
_TEXT	ENDS
; Function compile flags: /Ogtp
; File E:\Proyectos\JuegosOnlineproyectos\PB\pbblow\Piercing Blow Remake\i3Server\include\i3Base\i3XMLElement.h
;	COMDAT ?getAttr@i3XMLElement@@QAEPBDPBDPAI@Z
_TEXT	SEGMENT
_pszName$ = 8						; size = 4
_pVal$ = 12						; size = 4
?getAttr@i3XMLElement@@QAEPBDPBDPAI@Z PROC		; i3XMLElement::getAttr, COMDAT
; _this$ = ecx

; 23   : 	const char *	getAttr( const char * pszName, UINT32 * pVal)			{ return Attribute( pszName, (INT32 *) pVal); }

  00000	55		 push	 ebp
  00001	8b ec		 mov	 ebp, esp
  00003	5d		 pop	 ebp
  00004	e9 00 00 00 00	 jmp	 ?Attribute@TiXmlElement@@QBEPBDPBDPAH@Z ; TiXmlElement::Attribute
?getAttr@i3XMLElement@@QAEPBDPBDPAI@Z ENDP		; i3XMLElement::getAttr
_TEXT	ENDS
; Function compile flags: /Ogtp
; File E:\Proyectos\JuegosOnlineproyectos\PB\pbblow\Piercing Blow Remake\i3Server\include\i3Base\i3XMLElement.h
;	COMDAT ?getAttr@i3XMLElement@@QAEPBDPBDPAH@Z
_TEXT	SEGMENT
_pszName$ = 8						; size = 4
_pVal$ = 12						; size = 4
?getAttr@i3XMLElement@@QAEPBDPBDPAH@Z PROC		; i3XMLElement::getAttr, COMDAT
; _this$ = ecx

; 22   : 	const char *	getAttr( const char * pszName, INT32 * pVal)			{ return Attribute( pszName, pVal); }

  00000	55		 push	 ebp
  00001	8b ec		 mov	 ebp, esp
  00003	5d		 pop	 ebp
  00004	e9 00 00 00 00	 jmp	 ?Attribute@TiXmlElement@@QBEPBDPBDPAH@Z ; TiXmlElement::Attribute
?getAttr@i3XMLElement@@QAEPBDPBDPAH@Z ENDP		; i3XMLElement::getAttr
_TEXT	ENDS
; Function compile flags: /Ogtp
; File E:\Proyectos\JuegosOnlineproyectos\PB\pbblow\Piercing Blow Remake\i3Server\include\i3Base\i3XMLElement.h
;	COMDAT ?getAttr@i3XMLElement@@QAEPBDPBD@Z
_TEXT	SEGMENT
_pszName$ = 8						; size = 4
?getAttr@i3XMLElement@@QAEPBDPBD@Z PROC			; i3XMLElement::getAttr, COMDAT
; _this$ = ecx

; 21   : 	const char *	getAttr( const char * pszName)							{ return Attribute( pszName); }

  00000	55		 push	 ebp
  00001	8b ec		 mov	 ebp, esp
  00003	5d		 pop	 ebp
  00004	e9 00 00 00 00	 jmp	 ?Attribute@TiXmlElement@@QBEPBDPBD@Z ; TiXmlElement::Attribute
?getAttr@i3XMLElement@@QAEPBDPBD@Z ENDP			; i3XMLElement::getAttr
_TEXT	ENDS
; Function compile flags: /Ogtp
; File E:\Proyectos\JuegosOnlineproyectos\PB\pbblow\Piercing Blow Remake\i3Server\include\i3Base\i3XMLElement.h
;	COMDAT ?addAttr@i3XMLElement@@QAEXPBD_K@Z
_TEXT	SEGMENT
_pszName$ = 8						; size = 4
_val$ = 12						; size = 8
?addAttr@i3XMLElement@@QAEXPBD_K@Z PROC			; i3XMLElement::addAttr, COMDAT
; _this$ = ecx

; 19   : 	void		addAttr( const char * pszName, UINT64 val)					{	SetLongLongAttribute( pszName, (INT64)val); }

  00000	55		 push	 ebp
  00001	8b ec		 mov	 ebp, esp
  00003	ff 75 10	 push	 DWORD PTR _val$[ebp+4]
  00006	ff 75 0c	 push	 DWORD PTR _val$[ebp]
  00009	ff 75 08	 push	 DWORD PTR _pszName$[ebp]
  0000c	e8 00 00 00 00	 call	 ?SetLongLongAttribute@TiXmlElement@@QAEXPBD_J@Z ; TiXmlElement::SetLongLongAttribute
  00011	5d		 pop	 ebp
  00012	c2 0c 00	 ret	 12			; 0000000cH
?addAttr@i3XMLElement@@QAEXPBD_K@Z ENDP			; i3XMLElement::addAttr
_TEXT	ENDS
; Function compile flags: /Ogtp
; File E:\Proyectos\JuegosOnlineproyectos\PB\pbblow\Piercing Blow Remake\i3Server\include\i3Base\i3XMLElement.h
;	COMDAT ?addAttr@i3XMLElement@@QAEXPBD_J@Z
_TEXT	SEGMENT
_pszName$ = 8						; size = 4
_val$ = 12						; size = 8
?addAttr@i3XMLElement@@QAEXPBD_J@Z PROC			; i3XMLElement::addAttr, COMDAT
; _this$ = ecx

; 18   : 	void		addAttr( const char * pszName, INT64 val)					{	SetLongLongAttribute( pszName, val); }

  00000	55		 push	 ebp
  00001	8b ec		 mov	 ebp, esp
  00003	ff 75 10	 push	 DWORD PTR _val$[ebp+4]
  00006	ff 75 0c	 push	 DWORD PTR _val$[ebp]
  00009	ff 75 08	 push	 DWORD PTR _pszName$[ebp]
  0000c	e8 00 00 00 00	 call	 ?SetLongLongAttribute@TiXmlElement@@QAEXPBD_J@Z ; TiXmlElement::SetLongLongAttribute
  00011	5d		 pop	 ebp
  00012	c2 0c 00	 ret	 12			; 0000000cH
?addAttr@i3XMLElement@@QAEXPBD_J@Z ENDP			; i3XMLElement::addAttr
_TEXT	ENDS
; Function compile flags: /Ogtp
; File E:\Proyectos\JuegosOnlineproyectos\PB\pbblow\Piercing Blow Remake\i3Server\include\i3Base\i3XMLElement.h
;	COMDAT ?addAttr@i3XMLElement@@QAEXPBDM@Z
_TEXT	SEGMENT
_pszName$ = 8						; size = 4
_val$ = 12						; size = 4
?addAttr@i3XMLElement@@QAEXPBDM@Z PROC			; i3XMLElement::addAttr, COMDAT
; _this$ = ecx

; 17   : 	void		addAttr( const char * pszName, REAL32 val)					{	SetAttribute( pszName, val); }

  00000	55		 push	 ebp
  00001	8b ec		 mov	 ebp, esp
  00003	d9 45 0c	 fld	 DWORD PTR _val$[ebp]
  00006	51		 push	 ecx
  00007	d9 1c 24	 fstp	 DWORD PTR [esp]
  0000a	ff 75 08	 push	 DWORD PTR _pszName$[ebp]
  0000d	e8 00 00 00 00	 call	 ?SetAttribute@TiXmlElement@@QAEXPBDM@Z ; TiXmlElement::SetAttribute
  00012	5d		 pop	 ebp
  00013	c2 08 00	 ret	 8
?addAttr@i3XMLElement@@QAEXPBDM@Z ENDP			; i3XMLElement::addAttr
_TEXT	ENDS
; Function compile flags: /Ogtp
; File E:\Proyectos\JuegosOnlineproyectos\PB\pbblow\Piercing Blow Remake\i3Server\include\i3Base\i3XMLElement.h
;	COMDAT ?addAttr@i3XMLElement@@QAEXPBDI@Z
_TEXT	SEGMENT
_pszName$ = 8						; size = 4
_val$ = 12						; size = 4
?addAttr@i3XMLElement@@QAEXPBDI@Z PROC			; i3XMLElement::addAttr, COMDAT
; _this$ = ecx

; 16   : 	void		addAttr( const char * pszName, UINT32 val)					{	SetAttribute( pszName, (INT32) val); }

  00000	55		 push	 ebp
  00001	8b ec		 mov	 ebp, esp
  00003	5d		 pop	 ebp
  00004	e9 00 00 00 00	 jmp	 ?SetAttribute@TiXmlElement@@QAEXPBDH@Z ; TiXmlElement::SetAttribute
?addAttr@i3XMLElement@@QAEXPBDI@Z ENDP			; i3XMLElement::addAttr
_TEXT	ENDS
; Function compile flags: /Ogtp
; File E:\Proyectos\JuegosOnlineproyectos\PB\pbblow\Piercing Blow Remake\i3Server\include\i3Base\i3XMLElement.h
;	COMDAT ?addAttr@i3XMLElement@@QAEXPBDH@Z
_TEXT	SEGMENT
_pszName$ = 8						; size = 4
_val$ = 12						; size = 4
?addAttr@i3XMLElement@@QAEXPBDH@Z PROC			; i3XMLElement::addAttr, COMDAT
; _this$ = ecx

; 15   : 	void		addAttr( const char * pszName, INT32 val)					{	SetAttribute( pszName, val); }

  00000	55		 push	 ebp
  00001	8b ec		 mov	 ebp, esp
  00003	5d		 pop	 ebp
  00004	e9 00 00 00 00	 jmp	 ?SetAttribute@TiXmlElement@@QAEXPBDH@Z ; TiXmlElement::SetAttribute
?addAttr@i3XMLElement@@QAEXPBDH@Z ENDP			; i3XMLElement::addAttr
_TEXT	ENDS
; Function compile flags: /Ogtp
; File E:\Proyectos\JuegosOnlineproyectos\PB\pbblow\Piercing Blow Remake\i3Server\include\i3Base\i3XMLElement.h
;	COMDAT ?addAttr@i3XMLElement@@QAEXPBD0@Z
_TEXT	SEGMENT
_pszName$ = 8						; size = 4
_pszStr$ = 12						; size = 4
?addAttr@i3XMLElement@@QAEXPBD0@Z PROC			; i3XMLElement::addAttr, COMDAT
; _this$ = ecx

; 14   : 	void		addAttr( const char * pszName, const char * pszStr)			{	SetAttribute( pszName, pszStr); }

  00000	55		 push	 ebp
  00001	8b ec		 mov	 ebp, esp
  00003	5d		 pop	 ebp
  00004	e9 00 00 00 00	 jmp	 ?SetAttribute@TiXmlElement@@QAEXPBD0@Z ; TiXmlElement::SetAttribute
?addAttr@i3XMLElement@@QAEXPBD0@Z ENDP			; i3XMLElement::addAttr
_TEXT	ENDS
; Function compile flags: /Ogtp
; File E:\Proyectos\JuegosOnlineproyectos\PB\pbblow\Piercing Blow Remake\i3Server\include\i3Base\tinystr.h
;	COMDAT ??_ETiXmlPrinter@@UAEPAXI@Z
_TEXT	SEGMENT
__$EHRec$ = -12						; size = 12
___flags$ = 8						; size = 4
??_ETiXmlPrinter@@UAEPAXI@Z PROC			; TiXmlPrinter::`vector deleting destructor', COMDAT
; _this$ = ecx
  00000	55		 push	 ebp
  00001	8b ec		 mov	 ebp, esp
  00003	6a ff		 push	 -1
  00005	68 00 00 00 00	 push	 __ehhandler$??_ETiXmlPrinter@@UAEPAXI@Z
  0000a	64 a1 00 00 00
	00		 mov	 eax, DWORD PTR fs:0
  00010	50		 push	 eax
  00011	53		 push	 ebx
  00012	56		 push	 esi
  00013	57		 push	 edi
  00014	a1 00 00 00 00	 mov	 eax, DWORD PTR ___security_cookie
  00019	33 c5		 xor	 eax, ebp
  0001b	50		 push	 eax
  0001c	8d 45 f4	 lea	 eax, DWORD PTR __$EHRec$[ebp]
  0001f	64 a3 00 00 00
	00		 mov	 DWORD PTR fs:0, eax
  00025	8b f1		 mov	 esi, ecx
  00027	8b 5d 08	 mov	 ebx, DWORD PTR ___flags$[ebp]
  0002a	f6 c3 02	 test	 bl, 2
  0002d	74 44		 je	 SHORT $LN2@vector
  0002f	68 00 00 00 00	 push	 OFFSET ??1TiXmlPrinter@@UAE@XZ
  00034	ff 76 fc	 push	 DWORD PTR [esi-4]
  00037	8d 7e fc	 lea	 edi, DWORD PTR [esi-4]
  0003a	6a 18		 push	 24			; 00000018H
  0003c	56		 push	 esi
  0003d	e8 00 00 00 00	 call	 ??_M@YGXPAXIIP6EX0@Z@Z
  00042	f6 c3 01	 test	 bl, 1
  00045	74 16		 je	 SHORT $LN3@vector
  00047	8b 0f		 mov	 ecx, DWORD PTR [edi]
  00049	8d 0c 49	 lea	 ecx, DWORD PTR [ecx+ecx*2]
  0004c	8d 0c cd 04 00
	00 00		 lea	 ecx, DWORD PTR [ecx*8+4]
  00053	51		 push	 ecx
  00054	57		 push	 edi
  00055	e8 00 00 00 00	 call	 ??_V@YAXPAXI@Z		; operator delete[]
  0005a	83 c4 08	 add	 esp, 8
$LN3@vector:
  0005d	8b c7		 mov	 eax, edi
  0005f	8b 4d f4	 mov	 ecx, DWORD PTR __$EHRec$[ebp]
  00062	64 89 0d 00 00
	00 00		 mov	 DWORD PTR fs:0, ecx
  00069	59		 pop	 ecx
  0006a	5f		 pop	 edi
  0006b	5e		 pop	 esi
  0006c	5b		 pop	 ebx
  0006d	8b e5		 mov	 esp, ebp
  0006f	5d		 pop	 ebp
  00070	c2 04 00	 ret	 4
$LN2@vector:

; 257  : 		if (rep_ != &nullrep_)

  00073	8b 46 14	 mov	 eax, DWORD PTR [esi+20]
  00076	3d 00 00 00 00	 cmp	 eax, OFFSET ?nullrep_@TiXmlString@@0URep@1@A ; TiXmlString::nullrep_
  0007b	74 09		 je	 SHORT $LN16@vector

; 258  : 		{
; 259  : 			// The rep_ is really an array of ints. (see the allocator, above).
; 260  : 			// Cast it back before delete, so the compiler won't incorrectly call destructors.
; 261  : 			delete [] ( reinterpret_cast<int*>( rep_ ) );

  0007d	50		 push	 eax
  0007e	e8 00 00 00 00	 call	 ??_V@YAXPAX@Z		; operator delete[]
  00083	83 c4 04	 add	 esp, 4
$LN16@vector:

; 257  : 		if (rep_ != &nullrep_)

  00086	8b 46 10	 mov	 eax, DWORD PTR [esi+16]
  00089	3d 00 00 00 00	 cmp	 eax, OFFSET ?nullrep_@TiXmlString@@0URep@1@A ; TiXmlString::nullrep_
  0008e	74 09		 je	 SHORT $LN22@vector

; 258  : 		{
; 259  : 			// The rep_ is really an array of ints. (see the allocator, above).
; 260  : 			// Cast it back before delete, so the compiler won't incorrectly call destructors.
; 261  : 			delete [] ( reinterpret_cast<int*>( rep_ ) );

  00090	50		 push	 eax
  00091	e8 00 00 00 00	 call	 ??_V@YAXPAX@Z		; operator delete[]
  00096	83 c4 04	 add	 esp, 4
$LN22@vector:

; 257  : 		if (rep_ != &nullrep_)

  00099	8b 46 0c	 mov	 eax, DWORD PTR [esi+12]
  0009c	3d 00 00 00 00	 cmp	 eax, OFFSET ?nullrep_@TiXmlString@@0URep@1@A ; TiXmlString::nullrep_
  000a1	74 09		 je	 SHORT $LN28@vector

; 258  : 		{
; 259  : 			// The rep_ is really an array of ints. (see the allocator, above).
; 260  : 			// Cast it back before delete, so the compiler won't incorrectly call destructors.
; 261  : 			delete [] ( reinterpret_cast<int*>( rep_ ) );

  000a3	50		 push	 eax
  000a4	e8 00 00 00 00	 call	 ??_V@YAXPAX@Z		; operator delete[]
  000a9	83 c4 04	 add	 esp, 4
$LN28@vector:
  000ac	c7 06 00 00 00
	00		 mov	 DWORD PTR [esi], OFFSET ??_7TiXmlVisitor@@6B@
  000b2	f6 c3 01	 test	 bl, 1
  000b5	74 0b		 je	 SHORT $LN4@vector
  000b7	6a 18		 push	 24			; 00000018H
  000b9	56		 push	 esi
  000ba	e8 00 00 00 00	 call	 ??3@YAXPAXI@Z		; operator delete
  000bf	83 c4 08	 add	 esp, 8
$LN4@vector:
  000c2	8b c6		 mov	 eax, esi
  000c4	8b 4d f4	 mov	 ecx, DWORD PTR __$EHRec$[ebp]
  000c7	64 89 0d 00 00
	00 00		 mov	 DWORD PTR fs:0, ecx
  000ce	59		 pop	 ecx
  000cf	5f		 pop	 edi
  000d0	5e		 pop	 esi
  000d1	5b		 pop	 ebx
  000d2	8b e5		 mov	 esp, ebp
  000d4	5d		 pop	 ebp
  000d5	c2 04 00	 ret	 4
  000d8	cc		 int	 3
  000d9	cc		 int	 3
  000da	cc		 int	 3
  000db	cc		 int	 3
  000dc	cc		 int	 3
_TEXT	ENDS
;	COMDAT text$x
text$x	SEGMENT
__ehhandler$??_ETiXmlPrinter@@UAEPAXI@Z:
  00000	90		 npad	 1
  00001	90		 npad	 1
  00002	8b 54 24 08	 mov	 edx, DWORD PTR [esp+8]
  00006	8d 42 0c	 lea	 eax, DWORD PTR [edx+12]
  00009	8b 4a f0	 mov	 ecx, DWORD PTR [edx-16]
  0000c	33 c8		 xor	 ecx, eax
  0000e	e8 00 00 00 00	 call	 @__security_check_cookie@4
  00013	b8 00 00 00 00	 mov	 eax, OFFSET __ehfuncinfo$??_ETiXmlPrinter@@UAEPAXI@Z
  00018	e9 00 00 00 00	 jmp	 ___CxxFrameHandler3
text$x	ENDS
??_ETiXmlPrinter@@UAEPAXI@Z ENDP			; TiXmlPrinter::`vector deleting destructor'
; Function compile flags: /Ogtp
; File E:\Proyectos\JuegosOnlineproyectos\PB\pbblow\Piercing Blow Remake\i3Server\include\i3Base\tinystr.h
;	COMDAT ??_GTiXmlPrinter@@UAEPAXI@Z
_TEXT	SEGMENT
___flags$ = 8						; size = 4
??_GTiXmlPrinter@@UAEPAXI@Z PROC			; TiXmlPrinter::`scalar deleting destructor', COMDAT
; _this$ = ecx
  00000	55		 push	 ebp
  00001	8b ec		 mov	 ebp, esp

; 257  : 		if (rep_ != &nullrep_)

  00003	56		 push	 esi
  00004	8b f1		 mov	 esi, ecx
  00006	8b 46 14	 mov	 eax, DWORD PTR [esi+20]
  00009	3d 00 00 00 00	 cmp	 eax, OFFSET ?nullrep_@TiXmlString@@0URep@1@A ; TiXmlString::nullrep_
  0000e	74 09		 je	 SHORT $LN14@scalar

; 258  : 		{
; 259  : 			// The rep_ is really an array of ints. (see the allocator, above).
; 260  : 			// Cast it back before delete, so the compiler won't incorrectly call destructors.
; 261  : 			delete [] ( reinterpret_cast<int*>( rep_ ) );

  00010	50		 push	 eax
  00011	e8 00 00 00 00	 call	 ??_V@YAXPAX@Z		; operator delete[]
  00016	83 c4 04	 add	 esp, 4
$LN14@scalar:

; 257  : 		if (rep_ != &nullrep_)

  00019	8b 46 10	 mov	 eax, DWORD PTR [esi+16]
  0001c	3d 00 00 00 00	 cmp	 eax, OFFSET ?nullrep_@TiXmlString@@0URep@1@A ; TiXmlString::nullrep_
  00021	74 09		 je	 SHORT $LN20@scalar

; 258  : 		{
; 259  : 			// The rep_ is really an array of ints. (see the allocator, above).
; 260  : 			// Cast it back before delete, so the compiler won't incorrectly call destructors.
; 261  : 			delete [] ( reinterpret_cast<int*>( rep_ ) );

  00023	50		 push	 eax
  00024	e8 00 00 00 00	 call	 ??_V@YAXPAX@Z		; operator delete[]
  00029	83 c4 04	 add	 esp, 4
$LN20@scalar:

; 257  : 		if (rep_ != &nullrep_)

  0002c	8b 46 0c	 mov	 eax, DWORD PTR [esi+12]
  0002f	3d 00 00 00 00	 cmp	 eax, OFFSET ?nullrep_@TiXmlString@@0URep@1@A ; TiXmlString::nullrep_
  00034	74 09		 je	 SHORT $LN26@scalar

; 258  : 		{
; 259  : 			// The rep_ is really an array of ints. (see the allocator, above).
; 260  : 			// Cast it back before delete, so the compiler won't incorrectly call destructors.
; 261  : 			delete [] ( reinterpret_cast<int*>( rep_ ) );

  00036	50		 push	 eax
  00037	e8 00 00 00 00	 call	 ??_V@YAXPAX@Z		; operator delete[]
  0003c	83 c4 04	 add	 esp, 4
$LN26@scalar:
  0003f	f6 45 08 01	 test	 BYTE PTR ___flags$[ebp], 1
  00043	c7 06 00 00 00
	00		 mov	 DWORD PTR [esi], OFFSET ??_7TiXmlVisitor@@6B@
  00049	74 0b		 je	 SHORT $LN28@scalar
  0004b	6a 18		 push	 24			; 00000018H
  0004d	56		 push	 esi
  0004e	e8 00 00 00 00	 call	 ??3@YAXPAXI@Z		; operator delete
  00053	83 c4 08	 add	 esp, 8
$LN28@scalar:
  00056	8b c6		 mov	 eax, esi
  00058	5e		 pop	 esi
  00059	5d		 pop	 ebp
  0005a	c2 04 00	 ret	 4
??_GTiXmlPrinter@@UAEPAXI@Z ENDP			; TiXmlPrinter::`scalar deleting destructor'
_TEXT	ENDS
; Function compile flags: /Ogtp
; File E:\Proyectos\JuegosOnlineproyectos\PB\pbblow\Piercing Blow Remake\i3Server\include\i3Base\tinystr.h
;	COMDAT ??4TiXmlPrinter@@QAEAAV0@$$QAV0@@Z
_TEXT	SEGMENT
___that$ = 8						; size = 4
??4TiXmlPrinter@@QAEAAV0@$$QAV0@@Z PROC			; TiXmlPrinter::operator=, COMDAT
; _this$ = ecx
  00000	55		 push	 ebp
  00001	8b ec		 mov	 ebp, esp

; 150  : 	size_type length () const { return rep_->size; }

  00003	56		 push	 esi
  00004	8b 75 08	 mov	 esi, DWORD PTR ___that$[ebp]
  00007	57		 push	 edi
  00008	8b f9		 mov	 edi, ecx
  0000a	8b 46 04	 mov	 eax, DWORD PTR [esi+4]
  0000d	89 47 04	 mov	 DWORD PTR [edi+4], eax
  00010	8d 4f 0c	 lea	 ecx, DWORD PTR [edi+12]
  00013	8a 46 08	 mov	 al, BYTE PTR [esi+8]
  00016	88 47 08	 mov	 BYTE PTR [edi+8], al
  00019	8b 46 0c	 mov	 eax, DWORD PTR [esi+12]

; 120  : 		return assign(copy.start(), copy.length());

  0001c	ff 30		 push	 DWORD PTR [eax]

; 224  : 	char* start() const { return rep_->str; }

  0001e	83 c0 08	 add	 eax, 8

; 120  : 		return assign(copy.start(), copy.length());

  00021	50		 push	 eax
  00022	e8 00 00 00 00	 call	 ?assign@TiXmlString@@QAEAAV1@PBDI@Z ; TiXmlString::assign

; 150  : 	size_type length () const { return rep_->size; }

  00027	8b 46 10	 mov	 eax, DWORD PTR [esi+16]
  0002a	8d 4f 10	 lea	 ecx, DWORD PTR [edi+16]

; 120  : 		return assign(copy.start(), copy.length());

  0002d	ff 30		 push	 DWORD PTR [eax]

; 224  : 	char* start() const { return rep_->str; }

  0002f	83 c0 08	 add	 eax, 8

; 120  : 		return assign(copy.start(), copy.length());

  00032	50		 push	 eax
  00033	e8 00 00 00 00	 call	 ?assign@TiXmlString@@QAEAAV1@PBDI@Z ; TiXmlString::assign

; 150  : 	size_type length () const { return rep_->size; }

  00038	8b 46 14	 mov	 eax, DWORD PTR [esi+20]
  0003b	8d 4f 14	 lea	 ecx, DWORD PTR [edi+20]

; 120  : 		return assign(copy.start(), copy.length());

  0003e	ff 30		 push	 DWORD PTR [eax]

; 224  : 	char* start() const { return rep_->str; }

  00040	83 c0 08	 add	 eax, 8

; 120  : 		return assign(copy.start(), copy.length());

  00043	50		 push	 eax
  00044	e8 00 00 00 00	 call	 ?assign@TiXmlString@@QAEAAV1@PBDI@Z ; TiXmlString::assign
  00049	8b c7		 mov	 eax, edi
  0004b	5f		 pop	 edi
  0004c	5e		 pop	 esi
  0004d	5d		 pop	 ebp
  0004e	c2 04 00	 ret	 4
??4TiXmlPrinter@@QAEAAV0@$$QAV0@@Z ENDP			; TiXmlPrinter::operator=
_TEXT	ENDS
; Function compile flags: /Ogtp
; File E:\Proyectos\JuegosOnlineproyectos\PB\pbblow\Piercing Blow Remake\i3Server\include\i3Base\tinystr.h
;	COMDAT ??4TiXmlPrinter@@QAEAAV0@ABV0@@Z
_TEXT	SEGMENT
___that$ = 8						; size = 4
??4TiXmlPrinter@@QAEAAV0@ABV0@@Z PROC			; TiXmlPrinter::operator=, COMDAT
; _this$ = ecx
  00000	55		 push	 ebp
  00001	8b ec		 mov	 ebp, esp

; 150  : 	size_type length () const { return rep_->size; }

  00003	56		 push	 esi
  00004	8b 75 08	 mov	 esi, DWORD PTR ___that$[ebp]
  00007	57		 push	 edi
  00008	8b f9		 mov	 edi, ecx
  0000a	8b 46 04	 mov	 eax, DWORD PTR [esi+4]
  0000d	89 47 04	 mov	 DWORD PTR [edi+4], eax
  00010	8d 4f 0c	 lea	 ecx, DWORD PTR [edi+12]
  00013	8a 46 08	 mov	 al, BYTE PTR [esi+8]
  00016	88 47 08	 mov	 BYTE PTR [edi+8], al
  00019	8b 46 0c	 mov	 eax, DWORD PTR [esi+12]

; 120  : 		return assign(copy.start(), copy.length());

  0001c	ff 30		 push	 DWORD PTR [eax]

; 224  : 	char* start() const { return rep_->str; }

  0001e	83 c0 08	 add	 eax, 8

; 120  : 		return assign(copy.start(), copy.length());

  00021	50		 push	 eax
  00022	e8 00 00 00 00	 call	 ?assign@TiXmlString@@QAEAAV1@PBDI@Z ; TiXmlString::assign

; 150  : 	size_type length () const { return rep_->size; }

  00027	8b 46 10	 mov	 eax, DWORD PTR [esi+16]
  0002a	8d 4f 10	 lea	 ecx, DWORD PTR [edi+16]

; 120  : 		return assign(copy.start(), copy.length());

  0002d	ff 30		 push	 DWORD PTR [eax]

; 224  : 	char* start() const { return rep_->str; }

  0002f	83 c0 08	 add	 eax, 8

; 120  : 		return assign(copy.start(), copy.length());

  00032	50		 push	 eax
  00033	e8 00 00 00 00	 call	 ?assign@TiXmlString@@QAEAAV1@PBDI@Z ; TiXmlString::assign

; 150  : 	size_type length () const { return rep_->size; }

  00038	8b 46 14	 mov	 eax, DWORD PTR [esi+20]
  0003b	8d 4f 14	 lea	 ecx, DWORD PTR [edi+20]

; 120  : 		return assign(copy.start(), copy.length());

  0003e	ff 30		 push	 DWORD PTR [eax]

; 224  : 	char* start() const { return rep_->str; }

  00040	83 c0 08	 add	 eax, 8

; 120  : 		return assign(copy.start(), copy.length());

  00043	50		 push	 eax
  00044	e8 00 00 00 00	 call	 ?assign@TiXmlString@@QAEAAV1@PBDI@Z ; TiXmlString::assign
  00049	8b c7		 mov	 eax, edi
  0004b	5f		 pop	 edi
  0004c	5e		 pop	 esi
  0004d	5d		 pop	 ebp
  0004e	c2 04 00	 ret	 4
??4TiXmlPrinter@@QAEAAV0@ABV0@@Z ENDP			; TiXmlPrinter::operator=
_TEXT	ENDS
; Function compile flags: /Ogtp
;	COMDAT ??0TiXmlPrinter@@QAE@$$QAV0@@Z
_TEXT	SEGMENT
_this$ = -16						; size = 4
__$EHRec$ = -12						; size = 12
___that$ = 8						; size = 4
??0TiXmlPrinter@@QAE@$$QAV0@@Z PROC			; TiXmlPrinter::TiXmlPrinter, COMDAT
; _this$ = ecx
  00000	55		 push	 ebp
  00001	8b ec		 mov	 ebp, esp
  00003	6a ff		 push	 -1
  00005	68 00 00 00 00	 push	 __ehhandler$??0TiXmlPrinter@@QAE@$$QAV0@@Z
  0000a	64 a1 00 00 00
	00		 mov	 eax, DWORD PTR fs:0
  00010	50		 push	 eax
  00011	51		 push	 ecx
  00012	56		 push	 esi
  00013	57		 push	 edi
  00014	a1 00 00 00 00	 mov	 eax, DWORD PTR ___security_cookie
  00019	33 c5		 xor	 eax, ebp
  0001b	50		 push	 eax
  0001c	8d 45 f4	 lea	 eax, DWORD PTR __$EHRec$[ebp]
  0001f	64 a3 00 00 00
	00		 mov	 DWORD PTR fs:0, eax
  00025	8b f9		 mov	 edi, ecx
  00027	89 7d f0	 mov	 DWORD PTR _this$[ebp], edi
  0002a	8b 75 08	 mov	 esi, DWORD PTR ___that$[ebp]
  0002d	8d 4f 0c	 lea	 ecx, DWORD PTR [edi+12]
  00030	c7 07 00 00 00
	00		 mov	 DWORD PTR [edi], OFFSET ??_7TiXmlPrinter@@6B@
  00036	c7 45 fc 00 00
	00 00		 mov	 DWORD PTR __$EHRec$[ebp+8], 0
  0003d	8b 46 04	 mov	 eax, DWORD PTR [esi+4]
  00040	89 47 04	 mov	 DWORD PTR [edi+4], eax
  00043	8a 46 08	 mov	 al, BYTE PTR [esi+8]
  00046	88 47 08	 mov	 BYTE PTR [edi+8], al
  00049	8d 46 0c	 lea	 eax, DWORD PTR [esi+12]
  0004c	50		 push	 eax
  0004d	e8 00 00 00 00	 call	 ??0TiXmlString@@QAE@ABV0@@Z ; TiXmlString::TiXmlString
  00052	8d 46 10	 lea	 eax, DWORD PTR [esi+16]
  00055	c6 45 fc 01	 mov	 BYTE PTR __$EHRec$[ebp+8], 1
  00059	50		 push	 eax
  0005a	8d 4f 10	 lea	 ecx, DWORD PTR [edi+16]
  0005d	e8 00 00 00 00	 call	 ??0TiXmlString@@QAE@ABV0@@Z ; TiXmlString::TiXmlString
  00062	8d 46 14	 lea	 eax, DWORD PTR [esi+20]
  00065	c6 45 fc 02	 mov	 BYTE PTR __$EHRec$[ebp+8], 2
  00069	50		 push	 eax
  0006a	8d 4f 14	 lea	 ecx, DWORD PTR [edi+20]
  0006d	e8 00 00 00 00	 call	 ??0TiXmlString@@QAE@ABV0@@Z ; TiXmlString::TiXmlString
  00072	8b c7		 mov	 eax, edi
  00074	8b 4d f4	 mov	 ecx, DWORD PTR __$EHRec$[ebp]
  00077	64 89 0d 00 00
	00 00		 mov	 DWORD PTR fs:0, ecx
  0007e	59		 pop	 ecx
  0007f	5f		 pop	 edi
  00080	5e		 pop	 esi
  00081	8b e5		 mov	 esp, ebp
  00083	5d		 pop	 ebp
  00084	c2 04 00	 ret	 4
_TEXT	ENDS
;	COMDAT text$x
text$x	SEGMENT
__unwindfunclet$??0TiXmlPrinter@@QAE@$$QAV0@@Z$0:
  00000	8b 4d f0	 mov	 ecx, DWORD PTR _this$[ebp]
  00003	e9 00 00 00 00	 jmp	 ??1TiXmlVisitor@@UAE@XZ	; TiXmlVisitor::~TiXmlVisitor
__unwindfunclet$??0TiXmlPrinter@@QAE@$$QAV0@@Z$1:
  00008	8b 4d f0	 mov	 ecx, DWORD PTR _this$[ebp]
  0000b	83 c1 0c	 add	 ecx, 12			; 0000000cH
  0000e	e9 00 00 00 00	 jmp	 ??1TiXmlString@@QAE@XZ	; TiXmlString::~TiXmlString
__unwindfunclet$??0TiXmlPrinter@@QAE@$$QAV0@@Z$2:
  00013	8b 4d f0	 mov	 ecx, DWORD PTR _this$[ebp]
  00016	83 c1 10	 add	 ecx, 16			; 00000010H
  00019	e9 00 00 00 00	 jmp	 ??1TiXmlString@@QAE@XZ	; TiXmlString::~TiXmlString
  0001e	cc		 int	 3
  0001f	cc		 int	 3
  00020	cc		 int	 3
  00021	cc		 int	 3
  00022	cc		 int	 3
__ehhandler$??0TiXmlPrinter@@QAE@$$QAV0@@Z:
  00023	90		 npad	 1
  00024	90		 npad	 1
  00025	8b 54 24 08	 mov	 edx, DWORD PTR [esp+8]
  00029	8d 42 0c	 lea	 eax, DWORD PTR [edx+12]
  0002c	8b 4a f0	 mov	 ecx, DWORD PTR [edx-16]
  0002f	33 c8		 xor	 ecx, eax
  00031	e8 00 00 00 00	 call	 @__security_check_cookie@4
  00036	b8 00 00 00 00	 mov	 eax, OFFSET __ehfuncinfo$??0TiXmlPrinter@@QAE@$$QAV0@@Z
  0003b	e9 00 00 00 00	 jmp	 ___CxxFrameHandler3
text$x	ENDS
??0TiXmlPrinter@@QAE@$$QAV0@@Z ENDP			; TiXmlPrinter::TiXmlPrinter
; Function compile flags: /Ogtp
;	COMDAT ??0TiXmlPrinter@@QAE@ABV0@@Z
_TEXT	SEGMENT
_this$ = -16						; size = 4
__$EHRec$ = -12						; size = 12
___that$ = 8						; size = 4
??0TiXmlPrinter@@QAE@ABV0@@Z PROC			; TiXmlPrinter::TiXmlPrinter, COMDAT
; _this$ = ecx
  00000	55		 push	 ebp
  00001	8b ec		 mov	 ebp, esp
  00003	6a ff		 push	 -1
  00005	68 00 00 00 00	 push	 __ehhandler$??0TiXmlPrinter@@QAE@ABV0@@Z
  0000a	64 a1 00 00 00
	00		 mov	 eax, DWORD PTR fs:0
  00010	50		 push	 eax
  00011	51		 push	 ecx
  00012	56		 push	 esi
  00013	57		 push	 edi
  00014	a1 00 00 00 00	 mov	 eax, DWORD PTR ___security_cookie
  00019	33 c5		 xor	 eax, ebp
  0001b	50		 push	 eax
  0001c	8d 45 f4	 lea	 eax, DWORD PTR __$EHRec$[ebp]
  0001f	64 a3 00 00 00
	00		 mov	 DWORD PTR fs:0, eax
  00025	8b f9		 mov	 edi, ecx
  00027	89 7d f0	 mov	 DWORD PTR _this$[ebp], edi
  0002a	8b 75 08	 mov	 esi, DWORD PTR ___that$[ebp]
  0002d	8d 4f 0c	 lea	 ecx, DWORD PTR [edi+12]
  00030	c7 07 00 00 00
	00		 mov	 DWORD PTR [edi], OFFSET ??_7TiXmlPrinter@@6B@
  00036	c7 45 fc 00 00
	00 00		 mov	 DWORD PTR __$EHRec$[ebp+8], 0
  0003d	8b 46 04	 mov	 eax, DWORD PTR [esi+4]
  00040	89 47 04	 mov	 DWORD PTR [edi+4], eax
  00043	8a 46 08	 mov	 al, BYTE PTR [esi+8]
  00046	88 47 08	 mov	 BYTE PTR [edi+8], al
  00049	8d 46 0c	 lea	 eax, DWORD PTR [esi+12]
  0004c	50		 push	 eax
  0004d	e8 00 00 00 00	 call	 ??0TiXmlString@@QAE@ABV0@@Z ; TiXmlString::TiXmlString
  00052	8d 46 10	 lea	 eax, DWORD PTR [esi+16]
  00055	c6 45 fc 01	 mov	 BYTE PTR __$EHRec$[ebp+8], 1
  00059	50		 push	 eax
  0005a	8d 4f 10	 lea	 ecx, DWORD PTR [edi+16]
  0005d	e8 00 00 00 00	 call	 ??0TiXmlString@@QAE@ABV0@@Z ; TiXmlString::TiXmlString
  00062	8d 46 14	 lea	 eax, DWORD PTR [esi+20]
  00065	c6 45 fc 02	 mov	 BYTE PTR __$EHRec$[ebp+8], 2
  00069	50		 push	 eax
  0006a	8d 4f 14	 lea	 ecx, DWORD PTR [edi+20]
  0006d	e8 00 00 00 00	 call	 ??0TiXmlString@@QAE@ABV0@@Z ; TiXmlString::TiXmlString
  00072	8b c7		 mov	 eax, edi
  00074	8b 4d f4	 mov	 ecx, DWORD PTR __$EHRec$[ebp]
  00077	64 89 0d 00 00
	00 00		 mov	 DWORD PTR fs:0, ecx
  0007e	59		 pop	 ecx
  0007f	5f		 pop	 edi
  00080	5e		 pop	 esi
  00081	8b e5		 mov	 esp, ebp
  00083	5d		 pop	 ebp
  00084	c2 04 00	 ret	 4
_TEXT	ENDS
;	COMDAT text$x
text$x	SEGMENT
__unwindfunclet$??0TiXmlPrinter@@QAE@ABV0@@Z$0:
  00000	8b 4d f0	 mov	 ecx, DWORD PTR _this$[ebp]
  00003	e9 00 00 00 00	 jmp	 ??1TiXmlVisitor@@UAE@XZ	; TiXmlVisitor::~TiXmlVisitor
__unwindfunclet$??0TiXmlPrinter@@QAE@ABV0@@Z$1:
  00008	8b 4d f0	 mov	 ecx, DWORD PTR _this$[ebp]
  0000b	83 c1 0c	 add	 ecx, 12			; 0000000cH
  0000e	e9 00 00 00 00	 jmp	 ??1TiXmlString@@QAE@XZ	; TiXmlString::~TiXmlString
__unwindfunclet$??0TiXmlPrinter@@QAE@ABV0@@Z$2:
  00013	8b 4d f0	 mov	 ecx, DWORD PTR _this$[ebp]
  00016	83 c1 10	 add	 ecx, 16			; 00000010H
  00019	e9 00 00 00 00	 jmp	 ??1TiXmlString@@QAE@XZ	; TiXmlString::~TiXmlString
  0001e	cc		 int	 3
  0001f	cc		 int	 3
  00020	cc		 int	 3
  00021	cc		 int	 3
  00022	cc		 int	 3
__ehhandler$??0TiXmlPrinter@@QAE@ABV0@@Z:
  00023	90		 npad	 1
  00024	90		 npad	 1
  00025	8b 54 24 08	 mov	 edx, DWORD PTR [esp+8]
  00029	8d 42 0c	 lea	 eax, DWORD PTR [edx+12]
  0002c	8b 4a f0	 mov	 ecx, DWORD PTR [edx-16]
  0002f	33 c8		 xor	 ecx, eax
  00031	e8 00 00 00 00	 call	 @__security_check_cookie@4
  00036	b8 00 00 00 00	 mov	 eax, OFFSET __ehfuncinfo$??0TiXmlPrinter@@QAE@ABV0@@Z
  0003b	e9 00 00 00 00	 jmp	 ___CxxFrameHandler3
text$x	ENDS
??0TiXmlPrinter@@QAE@ABV0@@Z ENDP			; TiXmlPrinter::TiXmlPrinter
; Function compile flags: /Ogtp
; File E:\Proyectos\JuegosOnlineproyectos\PB\pbblow\Piercing Blow Remake\i3Server\include\i3Base\tinystr.h
;	COMDAT ??1TiXmlPrinter@@UAE@XZ
_TEXT	SEGMENT
??1TiXmlPrinter@@UAE@XZ PROC				; TiXmlPrinter::~TiXmlPrinter, COMDAT
; _this$ = ecx

; 257  : 		if (rep_ != &nullrep_)

  00000	56		 push	 esi
  00001	8b f1		 mov	 esi, ecx
  00003	8b 46 14	 mov	 eax, DWORD PTR [esi+20]
  00006	3d 00 00 00 00	 cmp	 eax, OFFSET ?nullrep_@TiXmlString@@0URep@1@A ; TiXmlString::nullrep_
  0000b	74 09		 je	 SHORT $LN8@TiXmlPrint

; 258  : 		{
; 259  : 			// The rep_ is really an array of ints. (see the allocator, above).
; 260  : 			// Cast it back before delete, so the compiler won't incorrectly call destructors.
; 261  : 			delete [] ( reinterpret_cast<int*>( rep_ ) );

  0000d	50		 push	 eax
  0000e	e8 00 00 00 00	 call	 ??_V@YAXPAX@Z		; operator delete[]
  00013	83 c4 04	 add	 esp, 4
$LN8@TiXmlPrint:

; 257  : 		if (rep_ != &nullrep_)

  00016	8b 46 10	 mov	 eax, DWORD PTR [esi+16]
  00019	3d 00 00 00 00	 cmp	 eax, OFFSET ?nullrep_@TiXmlString@@0URep@1@A ; TiXmlString::nullrep_
  0001e	74 09		 je	 SHORT $LN14@TiXmlPrint

; 258  : 		{
; 259  : 			// The rep_ is really an array of ints. (see the allocator, above).
; 260  : 			// Cast it back before delete, so the compiler won't incorrectly call destructors.
; 261  : 			delete [] ( reinterpret_cast<int*>( rep_ ) );

  00020	50		 push	 eax
  00021	e8 00 00 00 00	 call	 ??_V@YAXPAX@Z		; operator delete[]
  00026	83 c4 04	 add	 esp, 4
$LN14@TiXmlPrint:

; 257  : 		if (rep_ != &nullrep_)

  00029	8b 46 0c	 mov	 eax, DWORD PTR [esi+12]
  0002c	3d 00 00 00 00	 cmp	 eax, OFFSET ?nullrep_@TiXmlString@@0URep@1@A ; TiXmlString::nullrep_
  00031	74 09		 je	 SHORT $LN22@TiXmlPrint

; 258  : 		{
; 259  : 			// The rep_ is really an array of ints. (see the allocator, above).
; 260  : 			// Cast it back before delete, so the compiler won't incorrectly call destructors.
; 261  : 			delete [] ( reinterpret_cast<int*>( rep_ ) );

  00033	50		 push	 eax
  00034	e8 00 00 00 00	 call	 ??_V@YAXPAX@Z		; operator delete[]
  00039	83 c4 04	 add	 esp, 4
$LN22@TiXmlPrint:
  0003c	c7 06 00 00 00
	00		 mov	 DWORD PTR [esi], OFFSET ??_7TiXmlVisitor@@6B@
  00042	5e		 pop	 esi
  00043	c3		 ret	 0
??1TiXmlPrinter@@UAE@XZ ENDP				; TiXmlPrinter::~TiXmlPrinter
_TEXT	ENDS
; Function compile flags: /Ogtp
; File E:\Proyectos\JuegosOnlineproyectos\PB\pbblow\Piercing Blow Remake\i3Server\include\i3Base\tinyxml.h
; File E:\Proyectos\JuegosOnlineproyectos\PB\pbblow\Piercing Blow Remake\i3Server\include\i3Base\tinystr.h
; File E:\Proyectos\JuegosOnlineproyectos\PB\pbblow\Piercing Blow Remake\i3Server\include\i3Base\tinyxml.h
; File E:\Proyectos\JuegosOnlineproyectos\PB\pbblow\Piercing Blow Remake\i3Server\include\i3Base\tinystr.h
; File E:\Proyectos\JuegosOnlineproyectos\PB\pbblow\Piercing Blow Remake\i3Server\include\i3Base\tinyxml.h
;	COMDAT ?DoLineBreak@TiXmlPrinter@@AAEXXZ
_TEXT	SEGMENT
?DoLineBreak@TiXmlPrinter@@AAEXXZ PROC			; TiXmlPrinter::DoLineBreak, COMDAT
; _this$ = ecx
; File E:\Proyectos\JuegosOnlineproyectos\PB\pbblow\Piercing Blow Remake\i3Server\include\i3Base\tinystr.h

; 150  : 	size_type length () const { return rep_->size; }

  00000	8b 41 14	 mov	 eax, DWORD PTR [ecx+20]
; File E:\Proyectos\JuegosOnlineproyectos\PB\pbblow\Piercing Blow Remake\i3Server\include\i3Base\tinyxml.h

; 1801 : 		buffer += lineBreak;

  00003	83 c1 0c	 add	 ecx, 12			; 0000000cH
; File E:\Proyectos\JuegosOnlineproyectos\PB\pbblow\Piercing Blow Remake\i3Server\include\i3Base\tinystr.h

; 139  : 		return append(suffix.data(), suffix.length());

  00006	ff 30		 push	 DWORD PTR [eax]

; 147  : 	const char * data () const { return rep_->str; }

  00008	83 c0 08	 add	 eax, 8

; 139  : 		return append(suffix.data(), suffix.length());

  0000b	50		 push	 eax
  0000c	e8 00 00 00 00	 call	 ?append@TiXmlString@@QAEAAV1@PBDI@Z ; TiXmlString::append
; File E:\Proyectos\JuegosOnlineproyectos\PB\pbblow\Piercing Blow Remake\i3Server\include\i3Base\tinyxml.h

; 1802 : 	}

  00011	c3		 ret	 0
?DoLineBreak@TiXmlPrinter@@AAEXXZ ENDP			; TiXmlPrinter::DoLineBreak
_TEXT	ENDS
; Function compile flags: /Ogtp
; File E:\Proyectos\JuegosOnlineproyectos\PB\pbblow\Piercing Blow Remake\i3Server\include\i3Base\tinyxml.h
; File E:\Proyectos\JuegosOnlineproyectos\PB\pbblow\Piercing Blow Remake\i3Server\include\i3Base\tinystr.h
; File E:\Proyectos\JuegosOnlineproyectos\PB\pbblow\Piercing Blow Remake\i3Server\include\i3Base\tinyxml.h
;	COMDAT ?DoIndent@TiXmlPrinter@@AAEXXZ
_TEXT	SEGMENT
?DoIndent@TiXmlPrinter@@AAEXXZ PROC			; TiXmlPrinter::DoIndent, COMDAT
; _this$ = ecx

; 1796 : 	void DoIndent()	{

  00000	56		 push	 esi
  00001	57		 push	 edi
  00002	8b f9		 mov	 edi, ecx

; 1797 : 		for( int i=0; i<depth; ++i )

  00004	33 f6		 xor	 esi, esi
  00006	39 77 04	 cmp	 DWORD PTR [edi+4], esi
  00009	7e 1d		 jle	 SHORT $LN3@DoIndent
  0000b	53		 push	 ebx
  0000c	8d 64 24 00	 npad	 4
$LL4@DoIndent:
; File E:\Proyectos\JuegosOnlineproyectos\PB\pbblow\Piercing Blow Remake\i3Server\include\i3Base\tinystr.h

; 150  : 	size_type length () const { return rep_->size; }

  00010	8b 47 10	 mov	 eax, DWORD PTR [edi+16]

; 139  : 		return append(suffix.data(), suffix.length());

  00013	8d 4f 0c	 lea	 ecx, DWORD PTR [edi+12]
  00016	ff 30		 push	 DWORD PTR [eax]

; 147  : 	const char * data () const { return rep_->str; }

  00018	83 c0 08	 add	 eax, 8

; 139  : 		return append(suffix.data(), suffix.length());

  0001b	50		 push	 eax
  0001c	e8 00 00 00 00	 call	 ?append@TiXmlString@@QAEAAV1@PBDI@Z ; TiXmlString::append
; File E:\Proyectos\JuegosOnlineproyectos\PB\pbblow\Piercing Blow Remake\i3Server\include\i3Base\tinyxml.h

; 1797 : 		for( int i=0; i<depth; ++i )

  00021	46		 inc	 esi
  00022	3b 77 04	 cmp	 esi, DWORD PTR [edi+4]
  00025	7c e9		 jl	 SHORT $LL4@DoIndent
  00027	5b		 pop	 ebx
$LN3@DoIndent:
  00028	5f		 pop	 edi

; 1798 : 			buffer += indent;
; 1799 : 	}

  00029	5e		 pop	 esi
  0002a	c3		 ret	 0
?DoIndent@TiXmlPrinter@@AAEXXZ ENDP			; TiXmlPrinter::DoIndent
_TEXT	ENDS
; Function compile flags: /Ogtp
; File E:\Proyectos\JuegosOnlineproyectos\PB\pbblow\Piercing Blow Remake\i3Server\include\i3Base\tinyxml.h
; File E:\Proyectos\JuegosOnlineproyectos\PB\pbblow\Piercing Blow Remake\i3Server\include\i3Base\tinystr.h
; File E:\Proyectos\JuegosOnlineproyectos\PB\pbblow\Piercing Blow Remake\i3Server\include\i3Base\tinyxml.h
;	COMDAT ?Size@TiXmlPrinter@@QAEIXZ
_TEXT	SEGMENT
?Size@TiXmlPrinter@@QAEIXZ PROC				; TiXmlPrinter::Size, COMDAT
; _this$ = ecx
; File E:\Proyectos\JuegosOnlineproyectos\PB\pbblow\Piercing Blow Remake\i3Server\include\i3Base\tinystr.h

; 153  : 	size_type size () const { return rep_->size; }

  00000	8b 41 0c	 mov	 eax, DWORD PTR [ecx+12]
; File E:\Proyectos\JuegosOnlineproyectos\PB\pbblow\Piercing Blow Remake\i3Server\include\i3Base\tinyxml.h

; 1788 : 	size_t Size()									{ return buffer.size(); }

  00003	8b 00		 mov	 eax, DWORD PTR [eax]
  00005	c3		 ret	 0
?Size@TiXmlPrinter@@QAEIXZ ENDP				; TiXmlPrinter::Size
_TEXT	ENDS
; Function compile flags: /Ogtp
; File E:\Proyectos\JuegosOnlineproyectos\PB\pbblow\Piercing Blow Remake\i3Server\include\i3Base\tinyxml.h
; File E:\Proyectos\JuegosOnlineproyectos\PB\pbblow\Piercing Blow Remake\i3Server\include\i3Base\tinystr.h
; File E:\Proyectos\JuegosOnlineproyectos\PB\pbblow\Piercing Blow Remake\i3Server\include\i3Base\tinyxml.h
;	COMDAT ?CStr@TiXmlPrinter@@QAEPBDXZ
_TEXT	SEGMENT
?CStr@TiXmlPrinter@@QAEPBDXZ PROC			; TiXmlPrinter::CStr, COMDAT
; _this$ = ecx
; File E:\Proyectos\JuegosOnlineproyectos\PB\pbblow\Piercing Blow Remake\i3Server\include\i3Base\tinystr.h

; 144  : 	const char * c_str () const { return rep_->str; }

  00000	8b 41 0c	 mov	 eax, DWORD PTR [ecx+12]
  00003	83 c0 08	 add	 eax, 8
; File E:\Proyectos\JuegosOnlineproyectos\PB\pbblow\Piercing Blow Remake\i3Server\include\i3Base\tinyxml.h

; 1786 : 	const char* CStr()								{ return buffer.c_str(); }

  00006	c3		 ret	 0
?CStr@TiXmlPrinter@@QAEPBDXZ ENDP			; TiXmlPrinter::CStr
_TEXT	ENDS
; Function compile flags: /Ogtp
; File E:\Proyectos\JuegosOnlineproyectos\PB\pbblow\Piercing Blow Remake\i3Server\include\i3Base\tinyxml.h
; File E:\Proyectos\JuegosOnlineproyectos\PB\pbblow\Piercing Blow Remake\i3Server\include\i3Base\tinystr.h
; File E:\Proyectos\JuegosOnlineproyectos\PB\pbblow\Piercing Blow Remake\i3Server\include\i3Base\tinyxml.h
; File E:\Proyectos\JuegosOnlineproyectos\PB\pbblow\Piercing Blow Remake\i3Server\include\i3Base\tinystr.h
; File E:\Proyectos\JuegosOnlineproyectos\PB\pbblow\Piercing Blow Remake\i3Server\include\i3Base\tinyxml.h
; File E:\Proyectos\JuegosOnlineproyectos\PB\pbblow\Piercing Blow Remake\i3Server\include\i3Base\tinystr.h
; File E:\Proyectos\JuegosOnlineproyectos\PB\pbblow\Piercing Blow Remake\i3Server\include\i3Base\tinyxml.h
;	COMDAT ?SetStreamPrinting@TiXmlPrinter@@QAEXXZ
_TEXT	SEGMENT
?SetStreamPrinting@TiXmlPrinter@@QAEXXZ PROC		; TiXmlPrinter::SetStreamPrinting, COMDAT
; _this$ = ecx

; 1782 : 	void SetStreamPrinting()						{ indent = "";

  00000	56		 push	 esi
  00001	8b f1		 mov	 esi, ecx
; File E:\Proyectos\JuegosOnlineproyectos\PB\pbblow\Piercing Blow Remake\i3Server\include\i3Base\tinystr.h

; 114  : 		return assign( copy, (size_type)strlen(copy));

  00003	6a 00		 push	 0
  00005	68 00 00 00 00	 push	 OFFSET ??_C@_00CNPNBAHC@@
; File E:\Proyectos\JuegosOnlineproyectos\PB\pbblow\Piercing Blow Remake\i3Server\include\i3Base\tinyxml.h

; 1782 : 	void SetStreamPrinting()						{ indent = "";

  0000a	8d 4e 10	 lea	 ecx, DWORD PTR [esi+16]
; File E:\Proyectos\JuegosOnlineproyectos\PB\pbblow\Piercing Blow Remake\i3Server\include\i3Base\tinystr.h

; 114  : 		return assign( copy, (size_type)strlen(copy));

  0000d	e8 00 00 00 00	 call	 ?assign@TiXmlString@@QAEAAV1@PBDI@Z ; TiXmlString::assign
  00012	6a 00		 push	 0
  00014	68 00 00 00 00	 push	 OFFSET ??_C@_00CNPNBAHC@@
; File E:\Proyectos\JuegosOnlineproyectos\PB\pbblow\Piercing Blow Remake\i3Server\include\i3Base\tinyxml.h

; 1783 : 													  lineBreak = "";

  00019	8d 4e 14	 lea	 ecx, DWORD PTR [esi+20]
; File E:\Proyectos\JuegosOnlineproyectos\PB\pbblow\Piercing Blow Remake\i3Server\include\i3Base\tinystr.h

; 114  : 		return assign( copy, (size_type)strlen(copy));

  0001c	e8 00 00 00 00	 call	 ?assign@TiXmlString@@QAEAAV1@PBDI@Z ; TiXmlString::assign
  00021	5e		 pop	 esi
; File E:\Proyectos\JuegosOnlineproyectos\PB\pbblow\Piercing Blow Remake\i3Server\include\i3Base\tinyxml.h

; 1784 : 													}	

  00022	c3		 ret	 0
?SetStreamPrinting@TiXmlPrinter@@QAEXXZ ENDP		; TiXmlPrinter::SetStreamPrinting
_TEXT	ENDS
; Function compile flags: /Ogtp
; File E:\Proyectos\JuegosOnlineproyectos\PB\pbblow\Piercing Blow Remake\i3Server\include\i3Base\tinyxml.h
; File E:\Proyectos\JuegosOnlineproyectos\PB\pbblow\Piercing Blow Remake\i3Server\include\i3Base\tinystr.h
; File E:\Proyectos\JuegosOnlineproyectos\PB\pbblow\Piercing Blow Remake\i3Server\include\i3Base\tinyxml.h
;	COMDAT ?LineBreak@TiXmlPrinter@@QAEPBDXZ
_TEXT	SEGMENT
?LineBreak@TiXmlPrinter@@QAEPBDXZ PROC			; TiXmlPrinter::LineBreak, COMDAT
; _this$ = ecx
; File E:\Proyectos\JuegosOnlineproyectos\PB\pbblow\Piercing Blow Remake\i3Server\include\i3Base\tinystr.h

; 144  : 	const char * c_str () const { return rep_->str; }

  00000	8b 41 14	 mov	 eax, DWORD PTR [ecx+20]
  00003	83 c0 08	 add	 eax, 8
; File E:\Proyectos\JuegosOnlineproyectos\PB\pbblow\Piercing Blow Remake\i3Server\include\i3Base\tinyxml.h

; 1777 : 	const char* LineBreak()							{ return lineBreak.c_str(); }

  00006	c3		 ret	 0
?LineBreak@TiXmlPrinter@@QAEPBDXZ ENDP			; TiXmlPrinter::LineBreak
_TEXT	ENDS
; Function compile flags: /Ogtp
; File E:\Proyectos\JuegosOnlineproyectos\PB\pbblow\Piercing Blow Remake\i3Server\include\i3Base\tinyxml.h
; File E:\Proyectos\JuegosOnlineproyectos\PB\pbblow\Piercing Blow Remake\i3Server\include\i3Base\tinystr.h
; File E:\Proyectos\JuegosOnlineproyectos\PB\pbblow\Piercing Blow Remake\i3Server\include\i3Base\tinyxml.h
; File E:\Proyectos\JuegosOnlineproyectos\PB\pbblow\Piercing Blow Remake\i3Server\include\i3Base\tinystr.h
; File E:\Proyectos\JuegosOnlineproyectos\PB\pbblow\Piercing Blow Remake\i3Server\include\i3Base\tinyxml.h
; File E:\Proyectos\JuegosOnlineproyectos\PB\pbblow\Piercing Blow Remake\i3Server\include\i3Base\tinystr.h
; File E:\Proyectos\JuegosOnlineproyectos\PB\pbblow\Piercing Blow Remake\i3Server\include\i3Base\tinyxml.h
;	COMDAT ?SetLineBreak@TiXmlPrinter@@QAEXPBD@Z
_TEXT	SEGMENT
__lineBreak$ = 8					; size = 4
?SetLineBreak@TiXmlPrinter@@QAEXPBD@Z PROC		; TiXmlPrinter::SetLineBreak, COMDAT
; _this$ = ecx

; 1775 : 	void SetLineBreak( const char* _lineBreak )		{ lineBreak = _lineBreak ? _lineBreak : ""; }

  00000	55		 push	 ebp
  00001	8b ec		 mov	 ebp, esp
  00003	8b 45 08	 mov	 eax, DWORD PTR __lineBreak$[ebp]
  00006	ba 00 00 00 00	 mov	 edx, OFFSET ??_C@_00CNPNBAHC@@
  0000b	85 c0		 test	 eax, eax
  0000d	56		 push	 esi
  0000e	0f 45 d0	 cmovne	 edx, eax
  00011	8b f1		 mov	 esi, ecx
; File E:\Proyectos\JuegosOnlineproyectos\PB\pbblow\Piercing Blow Remake\i3Server\include\i3Base\tinystr.h

; 114  : 		return assign( copy, (size_type)strlen(copy));

  00013	8b c2		 mov	 eax, edx
; File E:\Proyectos\JuegosOnlineproyectos\PB\pbblow\Piercing Blow Remake\i3Server\include\i3Base\tinyxml.h

; 1775 : 	void SetLineBreak( const char* _lineBreak )		{ lineBreak = _lineBreak ? _lineBreak : ""; }

  00015	57		 push	 edi
; File E:\Proyectos\JuegosOnlineproyectos\PB\pbblow\Piercing Blow Remake\i3Server\include\i3Base\tinystr.h

; 114  : 		return assign( copy, (size_type)strlen(copy));

  00016	8d 78 01	 lea	 edi, DWORD PTR [eax+1]
  00019	8d a4 24 00 00
	00 00		 npad	 7
$LL5@SetLineBre:
  00020	8a 08		 mov	 cl, BYTE PTR [eax]
  00022	40		 inc	 eax
  00023	84 c9		 test	 cl, cl
  00025	75 f9		 jne	 SHORT $LL5@SetLineBre
  00027	2b c7		 sub	 eax, edi
; File E:\Proyectos\JuegosOnlineproyectos\PB\pbblow\Piercing Blow Remake\i3Server\include\i3Base\tinyxml.h

; 1775 : 	void SetLineBreak( const char* _lineBreak )		{ lineBreak = _lineBreak ? _lineBreak : ""; }

  00029	8d 4e 14	 lea	 ecx, DWORD PTR [esi+20]
; File E:\Proyectos\JuegosOnlineproyectos\PB\pbblow\Piercing Blow Remake\i3Server\include\i3Base\tinystr.h

; 114  : 		return assign( copy, (size_type)strlen(copy));

  0002c	50		 push	 eax
  0002d	52		 push	 edx
  0002e	e8 00 00 00 00	 call	 ?assign@TiXmlString@@QAEAAV1@PBDI@Z ; TiXmlString::assign
  00033	5f		 pop	 edi
  00034	5e		 pop	 esi
; File E:\Proyectos\JuegosOnlineproyectos\PB\pbblow\Piercing Blow Remake\i3Server\include\i3Base\tinyxml.h

; 1775 : 	void SetLineBreak( const char* _lineBreak )		{ lineBreak = _lineBreak ? _lineBreak : ""; }

  00035	5d		 pop	 ebp
  00036	c2 04 00	 ret	 4
?SetLineBreak@TiXmlPrinter@@QAEXPBD@Z ENDP		; TiXmlPrinter::SetLineBreak
_TEXT	ENDS
; Function compile flags: /Ogtp
; File E:\Proyectos\JuegosOnlineproyectos\PB\pbblow\Piercing Blow Remake\i3Server\include\i3Base\tinyxml.h
; File E:\Proyectos\JuegosOnlineproyectos\PB\pbblow\Piercing Blow Remake\i3Server\include\i3Base\tinystr.h
; File E:\Proyectos\JuegosOnlineproyectos\PB\pbblow\Piercing Blow Remake\i3Server\include\i3Base\tinyxml.h
;	COMDAT ?Indent@TiXmlPrinter@@QAEPBDXZ
_TEXT	SEGMENT
?Indent@TiXmlPrinter@@QAEPBDXZ PROC			; TiXmlPrinter::Indent, COMDAT
; _this$ = ecx
; File E:\Proyectos\JuegosOnlineproyectos\PB\pbblow\Piercing Blow Remake\i3Server\include\i3Base\tinystr.h

; 144  : 	const char * c_str () const { return rep_->str; }

  00000	8b 41 10	 mov	 eax, DWORD PTR [ecx+16]
  00003	83 c0 08	 add	 eax, 8
; File E:\Proyectos\JuegosOnlineproyectos\PB\pbblow\Piercing Blow Remake\i3Server\include\i3Base\tinyxml.h

; 1770 : 	const char* Indent()							{ return indent.c_str(); }

  00006	c3		 ret	 0
?Indent@TiXmlPrinter@@QAEPBDXZ ENDP			; TiXmlPrinter::Indent
_TEXT	ENDS
; Function compile flags: /Ogtp
; File E:\Proyectos\JuegosOnlineproyectos\PB\pbblow\Piercing Blow Remake\i3Server\include\i3Base\tinyxml.h
; File E:\Proyectos\JuegosOnlineproyectos\PB\pbblow\Piercing Blow Remake\i3Server\include\i3Base\tinystr.h
; File E:\Proyectos\JuegosOnlineproyectos\PB\pbblow\Piercing Blow Remake\i3Server\include\i3Base\tinyxml.h
; File E:\Proyectos\JuegosOnlineproyectos\PB\pbblow\Piercing Blow Remake\i3Server\include\i3Base\tinystr.h
; File E:\Proyectos\JuegosOnlineproyectos\PB\pbblow\Piercing Blow Remake\i3Server\include\i3Base\tinyxml.h
; File E:\Proyectos\JuegosOnlineproyectos\PB\pbblow\Piercing Blow Remake\i3Server\include\i3Base\tinystr.h
; File E:\Proyectos\JuegosOnlineproyectos\PB\pbblow\Piercing Blow Remake\i3Server\include\i3Base\tinyxml.h
;	COMDAT ?SetIndent@TiXmlPrinter@@QAEXPBD@Z
_TEXT	SEGMENT
__indent$ = 8						; size = 4
?SetIndent@TiXmlPrinter@@QAEXPBD@Z PROC			; TiXmlPrinter::SetIndent, COMDAT
; _this$ = ecx

; 1768 : 	void SetIndent( const char* _indent )			{ indent = _indent ? _indent : "" ; }

  00000	55		 push	 ebp
  00001	8b ec		 mov	 ebp, esp
  00003	8b 45 08	 mov	 eax, DWORD PTR __indent$[ebp]
  00006	ba 00 00 00 00	 mov	 edx, OFFSET ??_C@_00CNPNBAHC@@
  0000b	85 c0		 test	 eax, eax
  0000d	56		 push	 esi
  0000e	0f 45 d0	 cmovne	 edx, eax
  00011	8b f1		 mov	 esi, ecx
; File E:\Proyectos\JuegosOnlineproyectos\PB\pbblow\Piercing Blow Remake\i3Server\include\i3Base\tinystr.h

; 114  : 		return assign( copy, (size_type)strlen(copy));

  00013	8b c2		 mov	 eax, edx
; File E:\Proyectos\JuegosOnlineproyectos\PB\pbblow\Piercing Blow Remake\i3Server\include\i3Base\tinyxml.h

; 1768 : 	void SetIndent( const char* _indent )			{ indent = _indent ? _indent : "" ; }

  00015	57		 push	 edi
; File E:\Proyectos\JuegosOnlineproyectos\PB\pbblow\Piercing Blow Remake\i3Server\include\i3Base\tinystr.h

; 114  : 		return assign( copy, (size_type)strlen(copy));

  00016	8d 78 01	 lea	 edi, DWORD PTR [eax+1]
  00019	8d a4 24 00 00
	00 00		 npad	 7
$LL5@SetIndent:
  00020	8a 08		 mov	 cl, BYTE PTR [eax]
  00022	40		 inc	 eax
  00023	84 c9		 test	 cl, cl
  00025	75 f9		 jne	 SHORT $LL5@SetIndent
  00027	2b c7		 sub	 eax, edi
; File E:\Proyectos\JuegosOnlineproyectos\PB\pbblow\Piercing Blow Remake\i3Server\include\i3Base\tinyxml.h

; 1768 : 	void SetIndent( const char* _indent )			{ indent = _indent ? _indent : "" ; }

  00029	8d 4e 10	 lea	 ecx, DWORD PTR [esi+16]
; File E:\Proyectos\JuegosOnlineproyectos\PB\pbblow\Piercing Blow Remake\i3Server\include\i3Base\tinystr.h

; 114  : 		return assign( copy, (size_type)strlen(copy));

  0002c	50		 push	 eax
  0002d	52		 push	 edx
  0002e	e8 00 00 00 00	 call	 ?assign@TiXmlString@@QAEAAV1@PBDI@Z ; TiXmlString::assign
  00033	5f		 pop	 edi
  00034	5e		 pop	 esi
; File E:\Proyectos\JuegosOnlineproyectos\PB\pbblow\Piercing Blow Remake\i3Server\include\i3Base\tinyxml.h

; 1768 : 	void SetIndent( const char* _indent )			{ indent = _indent ? _indent : "" ; }

  00035	5d		 pop	 ebp
  00036	c2 04 00	 ret	 4
?SetIndent@TiXmlPrinter@@QAEXPBD@Z ENDP			; TiXmlPrinter::SetIndent
_TEXT	ENDS
; Function compile flags: /Ogtp
; File E:\Proyectos\JuegosOnlineproyectos\PB\pbblow\Piercing Blow Remake\i3Server\include\i3Base\tinyxml.h
; File E:\Proyectos\JuegosOnlineproyectos\PB\pbblow\Piercing Blow Remake\i3Server\include\i3Base\tinystr.h
; File E:\Proyectos\JuegosOnlineproyectos\PB\pbblow\Piercing Blow Remake\i3Server\include\i3Base\tinyxml.h
; File E:\Proyectos\JuegosOnlineproyectos\PB\pbblow\Piercing Blow Remake\i3Server\include\i3Base\tinystr.h
; File E:\Proyectos\JuegosOnlineproyectos\PB\pbblow\Piercing Blow Remake\i3Server\include\i3Base\tinyxml.h
; File E:\Proyectos\JuegosOnlineproyectos\PB\pbblow\Piercing Blow Remake\i3Server\include\i3Base\tinystr.h
; File E:\Proyectos\JuegosOnlineproyectos\PB\pbblow\Piercing Blow Remake\i3Server\include\i3Base\tinyxml.h
;	COMDAT ??0TiXmlPrinter@@QAE@XZ
_TEXT	SEGMENT
_this$ = -16						; size = 4
__$EHRec$ = -12						; size = 12
??0TiXmlPrinter@@QAE@XZ PROC				; TiXmlPrinter::TiXmlPrinter, COMDAT
; _this$ = ecx

; 1752 : 					 buffer(), indent( "    " ), lineBreak( "\n" ) {}

  00000	55		 push	 ebp
  00001	8b ec		 mov	 ebp, esp
  00003	6a ff		 push	 -1
  00005	68 00 00 00 00	 push	 __ehhandler$??0TiXmlPrinter@@QAE@XZ
  0000a	64 a1 00 00 00
	00		 mov	 eax, DWORD PTR fs:0
  00010	50		 push	 eax
  00011	51		 push	 ecx
  00012	56		 push	 esi
  00013	a1 00 00 00 00	 mov	 eax, DWORD PTR ___security_cookie
  00018	33 c5		 xor	 eax, ebp
  0001a	50		 push	 eax
  0001b	8d 45 f4	 lea	 eax, DWORD PTR __$EHRec$[ebp]
  0001e	64 a3 00 00 00
	00		 mov	 DWORD PTR fs:0, eax
  00024	8b f1		 mov	 esi, ecx
  00026	89 75 f0	 mov	 DWORD PTR _this$[ebp], esi
  00029	c7 06 00 00 00
	00		 mov	 DWORD PTR [esi], OFFSET ??_7TiXmlPrinter@@6B@
  0002f	c7 46 04 00 00
	00 00		 mov	 DWORD PTR [esi+4], 0
  00036	c6 46 08 00	 mov	 BYTE PTR [esi+8], 0
  0003a	c7 45 fc 00 00
	00 00		 mov	 DWORD PTR __$EHRec$[ebp+8], 0
; File E:\Proyectos\JuegosOnlineproyectos\PB\pbblow\Piercing Blow Remake\i3Server\include\i3Base\tinystr.h

; 80   : 	TiXmlString () : rep_(&nullrep_)

  00041	c7 46 0c 00 00
	00 00		 mov	 DWORD PTR [esi+12], OFFSET ?nullrep_@TiXmlString@@0URep@1@A ; TiXmlString::nullrep_

; 244  : 			rep_ = reinterpret_cast<Rep*>( new int[ intsNeeded ] );

  00048	6a 10		 push	 16			; 00000010H
; File E:\Proyectos\JuegosOnlineproyectos\PB\pbblow\Piercing Blow Remake\i3Server\include\i3Base\tinyxml.h

; 1752 : 					 buffer(), indent( "    " ), lineBreak( "\n" ) {}

  0004a	c6 45 fc 01	 mov	 BYTE PTR __$EHRec$[ebp+8], 1
; File E:\Proyectos\JuegosOnlineproyectos\PB\pbblow\Piercing Blow Remake\i3Server\include\i3Base\tinystr.h

; 92   : 	TIXML_EXPLICIT TiXmlString ( const char * copy) : rep_(0)

  0004e	c7 46 10 00 00
	00 00		 mov	 DWORD PTR [esi+16], 0

; 244  : 			rep_ = reinterpret_cast<Rep*>( new int[ intsNeeded ] );

  00055	e8 00 00 00 00	 call	 ??_U@YAPAXI@Z		; operator new[]
  0005a	89 46 10	 mov	 DWORD PTR [esi+16], eax

; 245  : 
; 246  : 			rep_->str[ rep_->size = sz ] = '\0';

  0005d	c7 00 04 00 00
	00		 mov	 DWORD PTR [eax], 4
  00063	8b 46 10	 mov	 eax, DWORD PTR [esi+16]
  00066	c6 40 0c 00	 mov	 BYTE PTR [eax+12], 0

; 247  : 			rep_->capacity = cap;

  0006a	8b 46 10	 mov	 eax, DWORD PTR [esi+16]
  0006d	c7 40 04 04 00
	00 00		 mov	 DWORD PTR [eax+4], 4

; 150  : 	size_type length () const { return rep_->size; }

  00074	8b 46 10	 mov	 eax, DWORD PTR [esi+16]

; 95   : 		memcpy(start(), copy, length());

  00077	ff 30		 push	 DWORD PTR [eax]

; 224  : 	char* start() const { return rep_->str; }

  00079	83 c0 08	 add	 eax, 8

; 95   : 		memcpy(start(), copy, length());

  0007c	68 00 00 00 00	 push	 OFFSET ??_C@_04PFOHOKJK@?5?5?5?5@
  00081	50		 push	 eax
  00082	e8 00 00 00 00	 call	 _memcpy

; 244  : 			rep_ = reinterpret_cast<Rep*>( new int[ intsNeeded ] );

  00087	6a 10		 push	 16			; 00000010H
; File E:\Proyectos\JuegosOnlineproyectos\PB\pbblow\Piercing Blow Remake\i3Server\include\i3Base\tinyxml.h

; 1752 : 					 buffer(), indent( "    " ), lineBreak( "\n" ) {}

  00089	c6 45 fc 02	 mov	 BYTE PTR __$EHRec$[ebp+8], 2
; File E:\Proyectos\JuegosOnlineproyectos\PB\pbblow\Piercing Blow Remake\i3Server\include\i3Base\tinystr.h

; 92   : 	TIXML_EXPLICIT TiXmlString ( const char * copy) : rep_(0)

  0008d	c7 46 14 00 00
	00 00		 mov	 DWORD PTR [esi+20], 0

; 244  : 			rep_ = reinterpret_cast<Rep*>( new int[ intsNeeded ] );

  00094	e8 00 00 00 00	 call	 ??_U@YAPAXI@Z		; operator new[]
  00099	89 46 14	 mov	 DWORD PTR [esi+20], eax

; 245  : 
; 246  : 			rep_->str[ rep_->size = sz ] = '\0';

  0009c	c7 00 01 00 00
	00		 mov	 DWORD PTR [eax], 1
  000a2	8b 46 14	 mov	 eax, DWORD PTR [esi+20]
  000a5	c6 40 09 00	 mov	 BYTE PTR [eax+9], 0

; 247  : 			rep_->capacity = cap;

  000a9	8b 46 14	 mov	 eax, DWORD PTR [esi+20]
  000ac	c7 40 04 01 00
	00 00		 mov	 DWORD PTR [eax+4], 1

; 150  : 	size_type length () const { return rep_->size; }

  000b3	8b 46 14	 mov	 eax, DWORD PTR [esi+20]

; 95   : 		memcpy(start(), copy, length());

  000b6	ff 30		 push	 DWORD PTR [eax]

; 224  : 	char* start() const { return rep_->str; }

  000b8	83 c0 08	 add	 eax, 8

; 95   : 		memcpy(start(), copy, length());

  000bb	68 00 00 00 00	 push	 OFFSET ??_C@_01EEMJAFIK@?6@
  000c0	50		 push	 eax
  000c1	e8 00 00 00 00	 call	 _memcpy
  000c6	83 c4 20	 add	 esp, 32			; 00000020H
; File E:\Proyectos\JuegosOnlineproyectos\PB\pbblow\Piercing Blow Remake\i3Server\include\i3Base\tinyxml.h

; 1752 : 					 buffer(), indent( "    " ), lineBreak( "\n" ) {}

  000c9	8b c6		 mov	 eax, esi
  000cb	8b 4d f4	 mov	 ecx, DWORD PTR __$EHRec$[ebp]
  000ce	64 89 0d 00 00
	00 00		 mov	 DWORD PTR fs:0, ecx
  000d5	59		 pop	 ecx
  000d6	5e		 pop	 esi
  000d7	8b e5		 mov	 esp, ebp
  000d9	5d		 pop	 ebp
  000da	c3		 ret	 0
_TEXT	ENDS
;	COMDAT text$x
text$x	SEGMENT
__unwindfunclet$??0TiXmlPrinter@@QAE@XZ$0:
  00000	8b 4d f0	 mov	 ecx, DWORD PTR _this$[ebp]
  00003	e9 00 00 00 00	 jmp	 ??1TiXmlVisitor@@UAE@XZ	; TiXmlVisitor::~TiXmlVisitor
__unwindfunclet$??0TiXmlPrinter@@QAE@XZ$1:
  00008	8b 4d f0	 mov	 ecx, DWORD PTR _this$[ebp]
  0000b	83 c1 0c	 add	 ecx, 12			; 0000000cH
  0000e	e9 00 00 00 00	 jmp	 ??1TiXmlString@@QAE@XZ	; TiXmlString::~TiXmlString
__unwindfunclet$??0TiXmlPrinter@@QAE@XZ$2:
  00013	8b 4d f0	 mov	 ecx, DWORD PTR _this$[ebp]
  00016	83 c1 10	 add	 ecx, 16			; 00000010H
  00019	e9 00 00 00 00	 jmp	 ??1TiXmlString@@QAE@XZ	; TiXmlString::~TiXmlString
  0001e	cc		 int	 3
  0001f	cc		 int	 3
  00020	cc		 int	 3
  00021	cc		 int	 3
  00022	cc		 int	 3
__ehhandler$??0TiXmlPrinter@@QAE@XZ:
  00023	90		 npad	 1
  00024	90		 npad	 1
  00025	8b 54 24 08	 mov	 edx, DWORD PTR [esp+8]
  00029	8d 42 0c	 lea	 eax, DWORD PTR [edx+12]
  0002c	8b 4a f4	 mov	 ecx, DWORD PTR [edx-12]
  0002f	33 c8		 xor	 ecx, eax
  00031	e8 00 00 00 00	 call	 @__security_check_cookie@4
  00036	b8 00 00 00 00	 mov	 eax, OFFSET __ehfuncinfo$??0TiXmlPrinter@@QAE@XZ
  0003b	e9 00 00 00 00	 jmp	 ___CxxFrameHandler3
text$x	ENDS
??0TiXmlPrinter@@QAE@XZ ENDP				; TiXmlPrinter::TiXmlPrinter
; Function compile flags: /Ogtp
; File E:\Proyectos\JuegosOnlineproyectos\PB\pbblow\Piercing Blow Remake\i3Server\include\i3Base\tinyxml.h
;	COMDAT ?Unknown@TiXmlHandle@@QBEPAVTiXmlUnknown@@XZ
_TEXT	SEGMENT
?Unknown@TiXmlHandle@@QBEPAVTiXmlUnknown@@XZ PROC	; TiXmlHandle::Unknown, COMDAT
; _this$ = ecx

; 1722 : 	TiXmlUnknown* Unknown() const	{ return ToUnknown(); }

  00000	56		 push	 esi
  00001	8b f1		 mov	 esi, ecx

; 1705 : 	TiXmlUnknown* ToUnknown() const		{ return ( ( node && node->ToUnknown() ) ? node->ToUnknown() : 0 ); }

  00003	8b 0e		 mov	 ecx, DWORD PTR [esi]
  00005	85 c9		 test	 ecx, ecx
  00007	74 11		 je	 SHORT $LN5@Unknown
  00009	8b 01		 mov	 eax, DWORD PTR [ecx]
  0000b	ff 50 24	 call	 DWORD PTR [eax+36]
  0000e	85 c0		 test	 eax, eax
  00010	74 08		 je	 SHORT $LN5@Unknown
  00012	8b 0e		 mov	 ecx, DWORD PTR [esi]
  00014	5e		 pop	 esi
  00015	8b 01		 mov	 eax, DWORD PTR [ecx]
  00017	ff 60 24	 jmp	 DWORD PTR [eax+36]
$LN5@Unknown:

; 1722 : 	TiXmlUnknown* Unknown() const	{ return ToUnknown(); }

  0001a	33 c0		 xor	 eax, eax
  0001c	5e		 pop	 esi
  0001d	c3		 ret	 0
?Unknown@TiXmlHandle@@QBEPAVTiXmlUnknown@@XZ ENDP	; TiXmlHandle::Unknown
_TEXT	ENDS
; Function compile flags: /Ogtp
; File E:\Proyectos\JuegosOnlineproyectos\PB\pbblow\Piercing Blow Remake\i3Server\include\i3Base\tinyxml.h
;	COMDAT ?Text@TiXmlHandle@@QBEPAVTiXmlText@@XZ
_TEXT	SEGMENT
?Text@TiXmlHandle@@QBEPAVTiXmlText@@XZ PROC		; TiXmlHandle::Text, COMDAT
; _this$ = ecx

; 1718 : 	TiXmlText* Text() const			{ return ToText(); }

  00000	56		 push	 esi
  00001	8b f1		 mov	 esi, ecx

; 1702 : 	TiXmlText* ToText() const			{ return ( ( node && node->ToText() ) ? node->ToText() : 0 ); }

  00003	8b 0e		 mov	 ecx, DWORD PTR [esi]
  00005	85 c9		 test	 ecx, ecx
  00007	74 11		 je	 SHORT $LN5@Text
  00009	8b 01		 mov	 eax, DWORD PTR [ecx]
  0000b	ff 50 2c	 call	 DWORD PTR [eax+44]
  0000e	85 c0		 test	 eax, eax
  00010	74 08		 je	 SHORT $LN5@Text
  00012	8b 0e		 mov	 ecx, DWORD PTR [esi]
  00014	5e		 pop	 esi
  00015	8b 01		 mov	 eax, DWORD PTR [ecx]
  00017	ff 60 2c	 jmp	 DWORD PTR [eax+44]
$LN5@Text:

; 1718 : 	TiXmlText* Text() const			{ return ToText(); }

  0001a	33 c0		 xor	 eax, eax
  0001c	5e		 pop	 esi
  0001d	c3		 ret	 0
?Text@TiXmlHandle@@QBEPAVTiXmlText@@XZ ENDP		; TiXmlHandle::Text
_TEXT	ENDS
; Function compile flags: /Ogtp
; File E:\Proyectos\JuegosOnlineproyectos\PB\pbblow\Piercing Blow Remake\i3Server\include\i3Base\tinyxml.h
;	COMDAT ?Element@TiXmlHandle@@QBEPAVTiXmlElement@@XZ
_TEXT	SEGMENT
?Element@TiXmlHandle@@QBEPAVTiXmlElement@@XZ PROC	; TiXmlHandle::Element, COMDAT
; _this$ = ecx

; 1714 : 	TiXmlElement* Element() const	{ return ToElement(); }

  00000	56		 push	 esi
  00001	8b f1		 mov	 esi, ecx

; 1699 : 	TiXmlElement* ToElement() const		{ return ( ( node && node->ToElement() ) ? node->ToElement() : 0 ); }

  00003	8b 0e		 mov	 ecx, DWORD PTR [esi]
  00005	85 c9		 test	 ecx, ecx
  00007	74 11		 je	 SHORT $LN5@Element
  00009	8b 01		 mov	 eax, DWORD PTR [ecx]
  0000b	ff 50 14	 call	 DWORD PTR [eax+20]
  0000e	85 c0		 test	 eax, eax
  00010	74 08		 je	 SHORT $LN5@Element
  00012	8b 0e		 mov	 ecx, DWORD PTR [esi]
  00014	5e		 pop	 esi
  00015	8b 01		 mov	 eax, DWORD PTR [ecx]
  00017	ff 60 14	 jmp	 DWORD PTR [eax+20]
$LN5@Element:

; 1714 : 	TiXmlElement* Element() const	{ return ToElement(); }

  0001a	33 c0		 xor	 eax, eax
  0001c	5e		 pop	 esi
  0001d	c3		 ret	 0
?Element@TiXmlHandle@@QBEPAVTiXmlElement@@XZ ENDP	; TiXmlHandle::Element
_TEXT	ENDS
; Function compile flags: /Ogtp
; File E:\Proyectos\JuegosOnlineproyectos\PB\pbblow\Piercing Blow Remake\i3Server\include\i3Base\tinyxml.h
;	COMDAT ?Node@TiXmlHandle@@QBEPAVTiXmlNode@@XZ
_TEXT	SEGMENT
?Node@TiXmlHandle@@QBEPAVTiXmlNode@@XZ PROC		; TiXmlHandle::Node, COMDAT
; _this$ = ecx

; 1710 : 	TiXmlNode* Node() const			{ return ToNode(); } 

  00000	8b 01		 mov	 eax, DWORD PTR [ecx]
  00002	c3		 ret	 0
?Node@TiXmlHandle@@QBEPAVTiXmlNode@@XZ ENDP		; TiXmlHandle::Node
_TEXT	ENDS
; Function compile flags: /Ogtp
; File E:\Proyectos\JuegosOnlineproyectos\PB\pbblow\Piercing Blow Remake\i3Server\include\i3Base\tinyxml.h
;	COMDAT ?ToUnknown@TiXmlHandle@@QBEPAVTiXmlUnknown@@XZ
_TEXT	SEGMENT
?ToUnknown@TiXmlHandle@@QBEPAVTiXmlUnknown@@XZ PROC	; TiXmlHandle::ToUnknown, COMDAT
; _this$ = ecx

; 1705 : 	TiXmlUnknown* ToUnknown() const		{ return ( ( node && node->ToUnknown() ) ? node->ToUnknown() : 0 ); }

  00000	56		 push	 esi
  00001	8b f1		 mov	 esi, ecx
  00003	8b 0e		 mov	 ecx, DWORD PTR [esi]
  00005	85 c9		 test	 ecx, ecx
  00007	74 11		 je	 SHORT $LN3@ToUnknown
  00009	8b 01		 mov	 eax, DWORD PTR [ecx]
  0000b	ff 50 24	 call	 DWORD PTR [eax+36]
  0000e	85 c0		 test	 eax, eax
  00010	74 08		 je	 SHORT $LN3@ToUnknown
  00012	8b 0e		 mov	 ecx, DWORD PTR [esi]
  00014	5e		 pop	 esi
  00015	8b 01		 mov	 eax, DWORD PTR [ecx]
  00017	ff 60 24	 jmp	 DWORD PTR [eax+36]
$LN3@ToUnknown:
  0001a	33 c0		 xor	 eax, eax
  0001c	5e		 pop	 esi
  0001d	c3		 ret	 0
?ToUnknown@TiXmlHandle@@QBEPAVTiXmlUnknown@@XZ ENDP	; TiXmlHandle::ToUnknown
_TEXT	ENDS
; Function compile flags: /Ogtp
; File E:\Proyectos\JuegosOnlineproyectos\PB\pbblow\Piercing Blow Remake\i3Server\include\i3Base\tinyxml.h
;	COMDAT ?ToText@TiXmlHandle@@QBEPAVTiXmlText@@XZ
_TEXT	SEGMENT
?ToText@TiXmlHandle@@QBEPAVTiXmlText@@XZ PROC		; TiXmlHandle::ToText, COMDAT
; _this$ = ecx

; 1702 : 	TiXmlText* ToText() const			{ return ( ( node && node->ToText() ) ? node->ToText() : 0 ); }

  00000	56		 push	 esi
  00001	8b f1		 mov	 esi, ecx
  00003	8b 0e		 mov	 ecx, DWORD PTR [esi]
  00005	85 c9		 test	 ecx, ecx
  00007	74 11		 je	 SHORT $LN3@ToText
  00009	8b 01		 mov	 eax, DWORD PTR [ecx]
  0000b	ff 50 2c	 call	 DWORD PTR [eax+44]
  0000e	85 c0		 test	 eax, eax
  00010	74 08		 je	 SHORT $LN3@ToText
  00012	8b 0e		 mov	 ecx, DWORD PTR [esi]
  00014	5e		 pop	 esi
  00015	8b 01		 mov	 eax, DWORD PTR [ecx]
  00017	ff 60 2c	 jmp	 DWORD PTR [eax+44]
$LN3@ToText:
  0001a	33 c0		 xor	 eax, eax
  0001c	5e		 pop	 esi
  0001d	c3		 ret	 0
?ToText@TiXmlHandle@@QBEPAVTiXmlText@@XZ ENDP		; TiXmlHandle::ToText
_TEXT	ENDS
; Function compile flags: /Ogtp
; File E:\Proyectos\JuegosOnlineproyectos\PB\pbblow\Piercing Blow Remake\i3Server\include\i3Base\tinyxml.h
;	COMDAT ?ToElement@TiXmlHandle@@QBEPAVTiXmlElement@@XZ
_TEXT	SEGMENT
?ToElement@TiXmlHandle@@QBEPAVTiXmlElement@@XZ PROC	; TiXmlHandle::ToElement, COMDAT
; _this$ = ecx

; 1699 : 	TiXmlElement* ToElement() const		{ return ( ( node && node->ToElement() ) ? node->ToElement() : 0 ); }

  00000	56		 push	 esi
  00001	8b f1		 mov	 esi, ecx
  00003	8b 0e		 mov	 ecx, DWORD PTR [esi]
  00005	85 c9		 test	 ecx, ecx
  00007	74 11		 je	 SHORT $LN3@ToElement
  00009	8b 01		 mov	 eax, DWORD PTR [ecx]
  0000b	ff 50 14	 call	 DWORD PTR [eax+20]
  0000e	85 c0		 test	 eax, eax
  00010	74 08		 je	 SHORT $LN3@ToElement
  00012	8b 0e		 mov	 ecx, DWORD PTR [esi]
  00014	5e		 pop	 esi
  00015	8b 01		 mov	 eax, DWORD PTR [ecx]
  00017	ff 60 14	 jmp	 DWORD PTR [eax+20]
$LN3@ToElement:
  0001a	33 c0		 xor	 eax, eax
  0001c	5e		 pop	 esi
  0001d	c3		 ret	 0
?ToElement@TiXmlHandle@@QBEPAVTiXmlElement@@XZ ENDP	; TiXmlHandle::ToElement
_TEXT	ENDS
; Function compile flags: /Ogtp
; File E:\Proyectos\JuegosOnlineproyectos\PB\pbblow\Piercing Blow Remake\i3Server\include\i3Base\tinyxml.h
;	COMDAT ?ToNode@TiXmlHandle@@QBEPAVTiXmlNode@@XZ
_TEXT	SEGMENT
?ToNode@TiXmlHandle@@QBEPAVTiXmlNode@@XZ PROC		; TiXmlHandle::ToNode, COMDAT
; _this$ = ecx

; 1696 : 	TiXmlNode* ToNode() const			{ return node; } 

  00000	8b 01		 mov	 eax, DWORD PTR [ecx]
  00002	c3		 ret	 0
?ToNode@TiXmlHandle@@QBEPAVTiXmlNode@@XZ ENDP		; TiXmlHandle::ToNode
_TEXT	ENDS
; Function compile flags: /Ogtp
; File E:\Proyectos\JuegosOnlineproyectos\PB\pbblow\Piercing Blow Remake\i3Server\include\i3Base\tinyxml.h
;	COMDAT ??4TiXmlHandle@@QAE?AV0@ABV0@@Z
_TEXT	SEGMENT
___$ReturnUdt$ = 8					; size = 4
_ref$ = 12						; size = 4
??4TiXmlHandle@@QAE?AV0@ABV0@@Z PROC			; TiXmlHandle::operator=, COMDAT
; _this$ = ecx

; 1656 : 	TiXmlHandle operator=( const TiXmlHandle& ref ) { this->node = ref.node; return *this; }

  00000	55		 push	 ebp
  00001	8b ec		 mov	 ebp, esp
  00003	8b 45 0c	 mov	 eax, DWORD PTR _ref$[ebp]
  00006	8b 10		 mov	 edx, DWORD PTR [eax]

; 1655 : 	TiXmlHandle( const TiXmlHandle& ref )			{ this->node = ref.node; }

  00008	8b 45 08	 mov	 eax, DWORD PTR ___$ReturnUdt$[ebp]

; 1656 : 	TiXmlHandle operator=( const TiXmlHandle& ref ) { this->node = ref.node; return *this; }

  0000b	89 11		 mov	 DWORD PTR [ecx], edx

; 1655 : 	TiXmlHandle( const TiXmlHandle& ref )			{ this->node = ref.node; }

  0000d	89 10		 mov	 DWORD PTR [eax], edx

; 1656 : 	TiXmlHandle operator=( const TiXmlHandle& ref ) { this->node = ref.node; return *this; }

  0000f	5d		 pop	 ebp
  00010	c2 08 00	 ret	 8
??4TiXmlHandle@@QAE?AV0@ABV0@@Z ENDP			; TiXmlHandle::operator=
_TEXT	ENDS
; Function compile flags: /Ogtp
; File E:\Proyectos\JuegosOnlineproyectos\PB\pbblow\Piercing Blow Remake\i3Server\include\i3Base\tinyxml.h
;	COMDAT ??0TiXmlHandle@@QAE@ABV0@@Z
_TEXT	SEGMENT
_ref$ = 8						; size = 4
??0TiXmlHandle@@QAE@ABV0@@Z PROC			; TiXmlHandle::TiXmlHandle, COMDAT
; _this$ = ecx

; 1655 : 	TiXmlHandle( const TiXmlHandle& ref )			{ this->node = ref.node; }

  00000	55		 push	 ebp
  00001	8b ec		 mov	 ebp, esp
  00003	8b 45 08	 mov	 eax, DWORD PTR _ref$[ebp]
  00006	8b 00		 mov	 eax, DWORD PTR [eax]
  00008	89 01		 mov	 DWORD PTR [ecx], eax
  0000a	8b c1		 mov	 eax, ecx
  0000c	5d		 pop	 ebp
  0000d	c2 04 00	 ret	 4
??0TiXmlHandle@@QAE@ABV0@@Z ENDP			; TiXmlHandle::TiXmlHandle
_TEXT	ENDS
; Function compile flags: /Ogtp
; File E:\Proyectos\JuegosOnlineproyectos\PB\pbblow\Piercing Blow Remake\i3Server\include\i3Base\tinyxml.h
;	COMDAT ??0TiXmlHandle@@QAE@PAVTiXmlNode@@@Z
_TEXT	SEGMENT
__node$ = 8						; size = 4
??0TiXmlHandle@@QAE@PAVTiXmlNode@@@Z PROC		; TiXmlHandle::TiXmlHandle, COMDAT
; _this$ = ecx

; 1653 : 	TiXmlHandle( TiXmlNode* _node )					{ this->node = _node; }

  00000	55		 push	 ebp
  00001	8b ec		 mov	 ebp, esp
  00003	8b 45 08	 mov	 eax, DWORD PTR __node$[ebp]
  00006	89 01		 mov	 DWORD PTR [ecx], eax
  00008	8b c1		 mov	 eax, ecx
  0000a	5d		 pop	 ebp
  0000b	c2 04 00	 ret	 4
??0TiXmlHandle@@QAE@PAVTiXmlNode@@@Z ENDP		; TiXmlHandle::TiXmlHandle
_TEXT	ENDS
; Function compile flags: /Ogtp
; File E:\Proyectos\JuegosOnlineproyectos\PB\pbblow\Piercing Blow Remake\i3Server\include\i3Base\tinyxml.h
; File E:\Proyectos\JuegosOnlineproyectos\PB\pbblow\Piercing Blow Remake\i3Server\include\i3Base\tinystr.h
; File E:\Proyectos\JuegosOnlineproyectos\PB\pbblow\Piercing Blow Remake\i3Server\include\i3Base\tinyxml.h
;	COMDAT ??_ETiXmlDocument@@UAEPAXI@Z
_TEXT	SEGMENT
__$EHRec$ = -12						; size = 12
___flags$ = 8						; size = 4
??_ETiXmlDocument@@UAEPAXI@Z PROC			; TiXmlDocument::`vector deleting destructor', COMDAT
; _this$ = ecx
  00000	55		 push	 ebp
  00001	8b ec		 mov	 ebp, esp
  00003	6a ff		 push	 -1
  00005	68 00 00 00 00	 push	 __ehhandler$??_ETiXmlDocument@@UAEPAXI@Z
  0000a	64 a1 00 00 00
	00		 mov	 eax, DWORD PTR fs:0
  00010	50		 push	 eax
  00011	53		 push	 ebx
  00012	56		 push	 esi
  00013	57		 push	 edi
  00014	a1 00 00 00 00	 mov	 eax, DWORD PTR ___security_cookie
  00019	33 c5		 xor	 eax, ebp
  0001b	50		 push	 eax
  0001c	8d 45 f4	 lea	 eax, DWORD PTR __$EHRec$[ebp]
  0001f	64 a3 00 00 00
	00		 mov	 DWORD PTR fs:0, eax
  00025	8b f1		 mov	 esi, ecx
  00027	8b 5d 08	 mov	 ebx, DWORD PTR ___flags$[ebp]
  0002a	f6 c3 02	 test	 bl, 2
  0002d	74 3e		 je	 SHORT $LN2@vector
  0002f	68 00 00 00 00	 push	 OFFSET ??1TiXmlDocument@@UAE@XZ ; TiXmlDocument::~TiXmlDocument
  00034	ff 76 fc	 push	 DWORD PTR [esi-4]
  00037	8d 7e fc	 lea	 edi, DWORD PTR [esi-4]
  0003a	6a 4c		 push	 76			; 0000004cH
  0003c	56		 push	 esi
  0003d	e8 00 00 00 00	 call	 ??_M@YGXPAXIIP6EX0@Z@Z
  00042	f6 c3 01	 test	 bl, 1
  00045	74 10		 je	 SHORT $LN3@vector
  00047	6b 0f 4c	 imul	 ecx, DWORD PTR [edi], 76
  0004a	83 c1 04	 add	 ecx, 4
  0004d	51		 push	 ecx
  0004e	57		 push	 edi
  0004f	e8 00 00 00 00	 call	 ??_V@YAXPAXI@Z		; operator delete[]
  00054	83 c4 08	 add	 esp, 8
$LN3@vector:
  00057	8b c7		 mov	 eax, edi
  00059	8b 4d f4	 mov	 ecx, DWORD PTR __$EHRec$[ebp]
  0005c	64 89 0d 00 00
	00 00		 mov	 DWORD PTR fs:0, ecx
  00063	59		 pop	 ecx
  00064	5f		 pop	 edi
  00065	5e		 pop	 esi
  00066	5b		 pop	 ebx
  00067	8b e5		 mov	 esp, ebp
  00069	5d		 pop	 ebp
  0006a	c2 04 00	 ret	 4
$LN2@vector:

; 1411 : 	virtual ~TiXmlDocument() {}

  0006d	c7 06 00 00 00
	00		 mov	 DWORD PTR [esi], OFFSET ??_7TiXmlDocument@@6B@
; File E:\Proyectos\JuegosOnlineproyectos\PB\pbblow\Piercing Blow Remake\i3Server\include\i3Base\tinystr.h

; 257  : 		if (rep_ != &nullrep_)

  00073	8b 46 34	 mov	 eax, DWORD PTR [esi+52]
  00076	3d 00 00 00 00	 cmp	 eax, OFFSET ?nullrep_@TiXmlString@@0URep@1@A ; TiXmlString::nullrep_
  0007b	74 09		 je	 SHORT $LN16@vector

; 258  : 		{
; 259  : 			// The rep_ is really an array of ints. (see the allocator, above).
; 260  : 			// Cast it back before delete, so the compiler won't incorrectly call destructors.
; 261  : 			delete [] ( reinterpret_cast<int*>( rep_ ) );

  0007d	50		 push	 eax
  0007e	e8 00 00 00 00	 call	 ??_V@YAXPAX@Z		; operator delete[]
  00083	83 c4 04	 add	 esp, 4
$LN16@vector:
; File E:\Proyectos\JuegosOnlineproyectos\PB\pbblow\Piercing Blow Remake\i3Server\include\i3Base\tinyxml.h

; 1411 : 	virtual ~TiXmlDocument() {}

  00086	8b ce		 mov	 ecx, esi
  00088	e8 00 00 00 00	 call	 ??1TiXmlNode@@UAE@XZ	; TiXmlNode::~TiXmlNode
  0008d	f6 c3 01	 test	 bl, 1
  00090	74 0b		 je	 SHORT $LN4@vector
  00092	6a 4c		 push	 76			; 0000004cH
  00094	56		 push	 esi
  00095	e8 00 00 00 00	 call	 ??3@YAXPAXI@Z		; operator delete
  0009a	83 c4 08	 add	 esp, 8
$LN4@vector:
  0009d	8b c6		 mov	 eax, esi
  0009f	8b 4d f4	 mov	 ecx, DWORD PTR __$EHRec$[ebp]
  000a2	64 89 0d 00 00
	00 00		 mov	 DWORD PTR fs:0, ecx
  000a9	59		 pop	 ecx
  000aa	5f		 pop	 edi
  000ab	5e		 pop	 esi
  000ac	5b		 pop	 ebx
  000ad	8b e5		 mov	 esp, ebp
  000af	5d		 pop	 ebp
  000b0	c2 04 00	 ret	 4
  000b3	cc		 int	 3
  000b4	cc		 int	 3
  000b5	cc		 int	 3
  000b6	cc		 int	 3
  000b7	cc		 int	 3
_TEXT	ENDS
;	COMDAT text$x
text$x	SEGMENT
__ehhandler$??_ETiXmlDocument@@UAEPAXI@Z:
  00000	90		 npad	 1
  00001	90		 npad	 1
  00002	8b 54 24 08	 mov	 edx, DWORD PTR [esp+8]
  00006	8d 42 0c	 lea	 eax, DWORD PTR [edx+12]
  00009	8b 4a f0	 mov	 ecx, DWORD PTR [edx-16]
  0000c	33 c8		 xor	 ecx, eax
  0000e	e8 00 00 00 00	 call	 @__security_check_cookie@4
  00013	b8 00 00 00 00	 mov	 eax, OFFSET __ehfuncinfo$??_ETiXmlDocument@@UAEPAXI@Z
  00018	e9 00 00 00 00	 jmp	 ___CxxFrameHandler3
text$x	ENDS
??_ETiXmlDocument@@UAEPAXI@Z ENDP			; TiXmlDocument::`vector deleting destructor'
; Function compile flags: /Ogtp
; File E:\Proyectos\JuegosOnlineproyectos\PB\pbblow\Piercing Blow Remake\i3Server\include\i3Base\tinyxml.h
; File E:\Proyectos\JuegosOnlineproyectos\PB\pbblow\Piercing Blow Remake\i3Server\include\i3Base\tinystr.h
; File E:\Proyectos\JuegosOnlineproyectos\PB\pbblow\Piercing Blow Remake\i3Server\include\i3Base\tinyxml.h
;	COMDAT ??_GTiXmlDocument@@UAEPAXI@Z
_TEXT	SEGMENT
___flags$ = 8						; size = 4
??_GTiXmlDocument@@UAEPAXI@Z PROC			; TiXmlDocument::`scalar deleting destructor', COMDAT
; _this$ = ecx
  00000	55		 push	 ebp
  00001	8b ec		 mov	 ebp, esp

; 1411 : 	virtual ~TiXmlDocument() {}

  00003	56		 push	 esi
  00004	8b f1		 mov	 esi, ecx
  00006	c7 06 00 00 00
	00		 mov	 DWORD PTR [esi], OFFSET ??_7TiXmlDocument@@6B@
; File E:\Proyectos\JuegosOnlineproyectos\PB\pbblow\Piercing Blow Remake\i3Server\include\i3Base\tinystr.h

; 257  : 		if (rep_ != &nullrep_)

  0000c	8b 46 34	 mov	 eax, DWORD PTR [esi+52]
  0000f	3d 00 00 00 00	 cmp	 eax, OFFSET ?nullrep_@TiXmlString@@0URep@1@A ; TiXmlString::nullrep_
  00014	74 09		 je	 SHORT $LN14@scalar

; 258  : 		{
; 259  : 			// The rep_ is really an array of ints. (see the allocator, above).
; 260  : 			// Cast it back before delete, so the compiler won't incorrectly call destructors.
; 261  : 			delete [] ( reinterpret_cast<int*>( rep_ ) );

  00016	50		 push	 eax
  00017	e8 00 00 00 00	 call	 ??_V@YAXPAX@Z		; operator delete[]
  0001c	83 c4 04	 add	 esp, 4
$LN14@scalar:
; File E:\Proyectos\JuegosOnlineproyectos\PB\pbblow\Piercing Blow Remake\i3Server\include\i3Base\tinyxml.h

; 1411 : 	virtual ~TiXmlDocument() {}

  0001f	8b ce		 mov	 ecx, esi
  00021	e8 00 00 00 00	 call	 ??1TiXmlNode@@UAE@XZ	; TiXmlNode::~TiXmlNode
  00026	f6 45 08 01	 test	 BYTE PTR ___flags$[ebp], 1
  0002a	74 0b		 je	 SHORT $LN16@scalar
  0002c	6a 4c		 push	 76			; 0000004cH
  0002e	56		 push	 esi
  0002f	e8 00 00 00 00	 call	 ??3@YAXPAXI@Z		; operator delete
  00034	83 c4 08	 add	 esp, 8
$LN16@scalar:
  00037	8b c6		 mov	 eax, esi
  00039	5e		 pop	 esi
  0003a	5d		 pop	 ebp
  0003b	c2 04 00	 ret	 4
??_GTiXmlDocument@@UAEPAXI@Z ENDP			; TiXmlDocument::`scalar deleting destructor'
_TEXT	ENDS
; Function compile flags: /Ogtp
; File E:\Proyectos\JuegosOnlineproyectos\PB\pbblow\Piercing Blow Remake\i3Server\include\i3Base\tinyxml.h
;	COMDAT ?GetSize@TiXmlDocument@@QAEIXZ
_TEXT	SEGMENT
?GetSize@TiXmlDocument@@QAEIXZ PROC			; TiXmlDocument::GetSize, COMDAT
; _this$ = ecx

; 1546 : 	UINT32 GetSize(void)		{ return fileSize;		}

  00000	8b 41 48	 mov	 eax, DWORD PTR [ecx+72]
  00003	c3		 ret	 0
?GetSize@TiXmlDocument@@QAEIXZ ENDP			; TiXmlDocument::GetSize
_TEXT	ENDS
; Function compile flags: /Ogtp
; File E:\Proyectos\JuegosOnlineproyectos\PB\pbblow\Piercing Blow Remake\i3Server\include\i3Base\tinyxml.h
;	COMDAT ?ToDocument@TiXmlDocument@@UAEPAV1@XZ
_TEXT	SEGMENT
?ToDocument@TiXmlDocument@@UAEPAV1@XZ PROC		; TiXmlDocument::ToDocument, COMDAT
; _this$ = ecx

; 1539 : 	virtual TiXmlDocument*          ToDocument()          { return this; } ///< Cast to a more defined type. Will return null not of the requested type.

  00000	8b c1		 mov	 eax, ecx
  00002	c3		 ret	 0
?ToDocument@TiXmlDocument@@UAEPAV1@XZ ENDP		; TiXmlDocument::ToDocument
_TEXT	ENDS
; Function compile flags: /Ogtp
; File E:\Proyectos\JuegosOnlineproyectos\PB\pbblow\Piercing Blow Remake\i3Server\include\i3Base\tinyxml.h
;	COMDAT ?ToDocument@TiXmlDocument@@UBEPBV1@XZ
_TEXT	SEGMENT
?ToDocument@TiXmlDocument@@UBEPBV1@XZ PROC		; TiXmlDocument::ToDocument, COMDAT
; _this$ = ecx

; 1538 : 	virtual const TiXmlDocument*    ToDocument()    const { return this; } ///< Cast to a more defined type. Will return null not of the requested type.

  00000	8b c1		 mov	 eax, ecx
  00002	c3		 ret	 0
?ToDocument@TiXmlDocument@@UBEPBV1@XZ ENDP		; TiXmlDocument::ToDocument
_TEXT	ENDS
; Function compile flags: /Ogtp
; File E:\Proyectos\JuegosOnlineproyectos\PB\pbblow\Piercing Blow Remake\i3Server\include\i3Base\tinyxml.h
; File E:\Proyectos\JuegosOnlineproyectos\PB\pbblow\Piercing Blow Remake\i3Server\include\i3Base\tinystr.h
; File E:\Proyectos\JuegosOnlineproyectos\PB\pbblow\Piercing Blow Remake\i3Server\include\i3Base\tinyxml.h
; File E:\Proyectos\JuegosOnlineproyectos\PB\pbblow\Piercing Blow Remake\i3Server\include\i3Base\tinystr.h
; File E:\Proyectos\JuegosOnlineproyectos\PB\pbblow\Piercing Blow Remake\i3Server\include\i3Base\tinyxml.h
;	COMDAT ?ClearError@TiXmlDocument@@QAEXXZ
_TEXT	SEGMENT
?ClearError@TiXmlDocument@@QAEXXZ PROC			; TiXmlDocument::ClearError, COMDAT
; _this$ = ecx

; 1517 : 	void ClearError()						{	error = false; 

  00000	56		 push	 esi
  00001	8b f1		 mov	 esi, ecx
; File E:\Proyectos\JuegosOnlineproyectos\PB\pbblow\Piercing Blow Remake\i3Server\include\i3Base\tinystr.h

; 114  : 		return assign( copy, (size_type)strlen(copy));

  00003	6a 00		 push	 0
  00005	68 00 00 00 00	 push	 OFFSET ??_C@_00CNPNBAHC@@
; File E:\Proyectos\JuegosOnlineproyectos\PB\pbblow\Piercing Blow Remake\i3Server\include\i3Base\tinyxml.h

; 1519 : 												errorDesc = ""; 

  0000a	8d 4e 34	 lea	 ecx, DWORD PTR [esi+52]
  0000d	c6 46 2c 00	 mov	 BYTE PTR [esi+44], 0
  00011	c7 46 30 00 00
	00 00		 mov	 DWORD PTR [esi+48], 0
; File E:\Proyectos\JuegosOnlineproyectos\PB\pbblow\Piercing Blow Remake\i3Server\include\i3Base\tinystr.h

; 114  : 		return assign( copy, (size_type)strlen(copy));

  00018	e8 00 00 00 00	 call	 ?assign@TiXmlString@@QAEAAV1@PBDI@Z ; TiXmlString::assign
; File E:\Proyectos\JuegosOnlineproyectos\PB\pbblow\Piercing Blow Remake\i3Server\include\i3Base\tinyxml.h

; 1520 : 												errorLocation.row = errorLocation.col = 0; 

  0001d	c7 46 40 00 00
	00 00		 mov	 DWORD PTR [esi+64], 0
  00024	c7 46 3c 00 00
	00 00		 mov	 DWORD PTR [esi+60], 0
  0002b	5e		 pop	 esi

; 1521 : 												//errorLocation.last = 0; 
; 1522 : 											}

  0002c	c3		 ret	 0
?ClearError@TiXmlDocument@@QAEXXZ ENDP			; TiXmlDocument::ClearError
_TEXT	ENDS
; Function compile flags: /Ogtp
; File E:\Proyectos\JuegosOnlineproyectos\PB\pbblow\Piercing Blow Remake\i3Server\include\i3Base\tinyxml.h
;	COMDAT ?TabSize@TiXmlDocument@@QBEHXZ
_TEXT	SEGMENT
?TabSize@TiXmlDocument@@QBEHXZ PROC			; TiXmlDocument::TabSize, COMDAT
; _this$ = ecx

; 1512 : 	int TabSize() const	{ return tabsize; }

  00000	8b 41 38	 mov	 eax, DWORD PTR [ecx+56]
  00003	c3		 ret	 0
?TabSize@TiXmlDocument@@QBEHXZ ENDP			; TiXmlDocument::TabSize
_TEXT	ENDS
; Function compile flags: /Ogtp
; File E:\Proyectos\JuegosOnlineproyectos\PB\pbblow\Piercing Blow Remake\i3Server\include\i3Base\tinyxml.h
;	COMDAT ?SetTabSize@TiXmlDocument@@QAEXH@Z
_TEXT	SEGMENT
__tabsize$ = 8						; size = 4
?SetTabSize@TiXmlDocument@@QAEXH@Z PROC			; TiXmlDocument::SetTabSize, COMDAT
; _this$ = ecx

; 1510 : 	void SetTabSize( int _tabsize )		{ tabsize = _tabsize; }

  00000	55		 push	 ebp
  00001	8b ec		 mov	 ebp, esp
  00003	8b 45 08	 mov	 eax, DWORD PTR __tabsize$[ebp]
  00006	89 41 38	 mov	 DWORD PTR [ecx+56], eax
  00009	5d		 pop	 ebp
  0000a	c2 04 00	 ret	 4
?SetTabSize@TiXmlDocument@@QAEXH@Z ENDP			; TiXmlDocument::SetTabSize
_TEXT	ENDS
; Function compile flags: /Ogtp
; File E:\Proyectos\JuegosOnlineproyectos\PB\pbblow\Piercing Blow Remake\i3Server\include\i3Base\tinyxml.h
;	COMDAT ?ErrorCol@TiXmlDocument@@QBEHXZ
_TEXT	SEGMENT
?ErrorCol@TiXmlDocument@@QBEHXZ PROC			; TiXmlDocument::ErrorCol, COMDAT
; _this$ = ecx

; 1484 : 	int ErrorCol() const	{ return errorLocation.col+1; }	///< The column where the error occured. See ErrorRow()

  00000	8b 41 40	 mov	 eax, DWORD PTR [ecx+64]
  00003	40		 inc	 eax
  00004	c3		 ret	 0
?ErrorCol@TiXmlDocument@@QBEHXZ ENDP			; TiXmlDocument::ErrorCol
_TEXT	ENDS
; Function compile flags: /Ogtp
; File E:\Proyectos\JuegosOnlineproyectos\PB\pbblow\Piercing Blow Remake\i3Server\include\i3Base\tinyxml.h
;	COMDAT ?ErrorRow@TiXmlDocument@@QBEHXZ
_TEXT	SEGMENT
?ErrorRow@TiXmlDocument@@QBEHXZ PROC			; TiXmlDocument::ErrorRow, COMDAT
; _this$ = ecx

; 1483 : 	int ErrorRow() const	{ return errorLocation.row+1; }

  00000	8b 41 3c	 mov	 eax, DWORD PTR [ecx+60]
  00003	40		 inc	 eax
  00004	c3		 ret	 0
?ErrorRow@TiXmlDocument@@QBEHXZ ENDP			; TiXmlDocument::ErrorRow
_TEXT	ENDS
; Function compile flags: /Ogtp
; File E:\Proyectos\JuegosOnlineproyectos\PB\pbblow\Piercing Blow Remake\i3Server\include\i3Base\tinyxml.h
;	COMDAT ?ErrorId@TiXmlDocument@@QBEHXZ
_TEXT	SEGMENT
?ErrorId@TiXmlDocument@@QBEHXZ PROC			; TiXmlDocument::ErrorId, COMDAT
; _this$ = ecx

; 1474 : 	int ErrorId()	const				{ return errorId; }

  00000	8b 41 30	 mov	 eax, DWORD PTR [ecx+48]
  00003	c3		 ret	 0
?ErrorId@TiXmlDocument@@QBEHXZ ENDP			; TiXmlDocument::ErrorId
_TEXT	ENDS
; Function compile flags: /Ogtp
; File E:\Proyectos\JuegosOnlineproyectos\PB\pbblow\Piercing Blow Remake\i3Server\include\i3Base\tinyxml.h
; File E:\Proyectos\JuegosOnlineproyectos\PB\pbblow\Piercing Blow Remake\i3Server\include\i3Base\tinystr.h
; File E:\Proyectos\JuegosOnlineproyectos\PB\pbblow\Piercing Blow Remake\i3Server\include\i3Base\tinyxml.h
;	COMDAT ?ErrorDesc@TiXmlDocument@@QBEPBDXZ
_TEXT	SEGMENT
?ErrorDesc@TiXmlDocument@@QBEPBDXZ PROC			; TiXmlDocument::ErrorDesc, COMDAT
; _this$ = ecx
; File E:\Proyectos\JuegosOnlineproyectos\PB\pbblow\Piercing Blow Remake\i3Server\include\i3Base\tinystr.h

; 144  : 	const char * c_str () const { return rep_->str; }

  00000	8b 41 34	 mov	 eax, DWORD PTR [ecx+52]
  00003	83 c0 08	 add	 eax, 8
; File E:\Proyectos\JuegosOnlineproyectos\PB\pbblow\Piercing Blow Remake\i3Server\include\i3Base\tinyxml.h

; 1469 : 	const char * ErrorDesc() const	{ return errorDesc.c_str (); }

  00006	c3		 ret	 0
?ErrorDesc@TiXmlDocument@@QBEPBDXZ ENDP			; TiXmlDocument::ErrorDesc
_TEXT	ENDS
; Function compile flags: /Ogtp
; File E:\Proyectos\JuegosOnlineproyectos\PB\pbblow\Piercing Blow Remake\i3Server\include\i3Base\tinyxml.h
;	COMDAT ?Error@TiXmlDocument@@QBE_NXZ
_TEXT	SEGMENT
?Error@TiXmlDocument@@QBE_NXZ PROC			; TiXmlDocument::Error, COMDAT
; _this$ = ecx

; 1466 : 	bool Error() const						{ return error; }

  00000	8a 41 2c	 mov	 al, BYTE PTR [ecx+44]
  00003	c3		 ret	 0
?Error@TiXmlDocument@@QBE_NXZ ENDP			; TiXmlDocument::Error
_TEXT	ENDS
; Function compile flags: /Ogtp
; File E:\Proyectos\JuegosOnlineproyectos\PB\pbblow\Piercing Blow Remake\i3Server\include\i3Base\tinyxml.h
;	COMDAT ?RootElement@TiXmlDocument@@QAEPAVTiXmlElement@@XZ
_TEXT	SEGMENT
?RootElement@TiXmlDocument@@QAEPAVTiXmlElement@@XZ PROC	; TiXmlDocument::RootElement, COMDAT
; _this$ = ecx

; 670  : 		return const_cast< TiXmlElement* >( (const_cast< const TiXmlNode* >(this))->FirstChildElement() );

  00000	e9 00 00 00 00	 jmp	 ?FirstChildElement@TiXmlNode@@QBEPBVTiXmlElement@@XZ ; TiXmlNode::FirstChildElement
?RootElement@TiXmlDocument@@QAEPAVTiXmlElement@@XZ ENDP	; TiXmlDocument::RootElement
_TEXT	ENDS
; Function compile flags: /Ogtp
; File E:\Proyectos\JuegosOnlineproyectos\PB\pbblow\Piercing Blow Remake\i3Server\include\i3Base\tinyxml.h
;	COMDAT ?RootElement@TiXmlDocument@@QBEPBVTiXmlElement@@XZ
_TEXT	SEGMENT
?RootElement@TiXmlDocument@@QBEPBVTiXmlElement@@XZ PROC	; TiXmlDocument::RootElement, COMDAT
; _this$ = ecx

; 1458 : 	const TiXmlElement* RootElement() const		{ return FirstChildElement(); }

  00000	e9 00 00 00 00	 jmp	 ?FirstChildElement@TiXmlNode@@QBEPBVTiXmlElement@@XZ ; TiXmlNode::FirstChildElement
?RootElement@TiXmlDocument@@QBEPBVTiXmlElement@@XZ ENDP	; TiXmlDocument::RootElement
_TEXT	ENDS
; Function compile flags: /Ogtp
; File E:\Proyectos\JuegosOnlineproyectos\PB\pbblow\Piercing Blow Remake\i3Server\include\i3Base\tinyxml.h
; File E:\Proyectos\JuegosOnlineproyectos\PB\pbblow\Piercing Blow Remake\i3Server\include\i3Base\tinystr.h
; File E:\Proyectos\JuegosOnlineproyectos\PB\pbblow\Piercing Blow Remake\i3Server\include\i3Base\tinyxml.h
;	COMDAT ??1TiXmlDocument@@UAE@XZ
_TEXT	SEGMENT
??1TiXmlDocument@@UAE@XZ PROC				; TiXmlDocument::~TiXmlDocument, COMDAT
; _this$ = ecx

; 1411 : 	virtual ~TiXmlDocument() {}

  00000	56		 push	 esi
  00001	8b f1		 mov	 esi, ecx
  00003	c7 06 00 00 00
	00		 mov	 DWORD PTR [esi], OFFSET ??_7TiXmlDocument@@6B@
; File E:\Proyectos\JuegosOnlineproyectos\PB\pbblow\Piercing Blow Remake\i3Server\include\i3Base\tinystr.h

; 257  : 		if (rep_ != &nullrep_)

  00009	8b 46 34	 mov	 eax, DWORD PTR [esi+52]
  0000c	3d 00 00 00 00	 cmp	 eax, OFFSET ?nullrep_@TiXmlString@@0URep@1@A ; TiXmlString::nullrep_
  00011	74 09		 je	 SHORT $LN8@TiXmlDocum

; 258  : 		{
; 259  : 			// The rep_ is really an array of ints. (see the allocator, above).
; 260  : 			// Cast it back before delete, so the compiler won't incorrectly call destructors.
; 261  : 			delete [] ( reinterpret_cast<int*>( rep_ ) );

  00013	50		 push	 eax
  00014	e8 00 00 00 00	 call	 ??_V@YAXPAX@Z		; operator delete[]
  00019	83 c4 04	 add	 esp, 4
$LN8@TiXmlDocum:
; File E:\Proyectos\JuegosOnlineproyectos\PB\pbblow\Piercing Blow Remake\i3Server\include\i3Base\tinyxml.h

; 1411 : 	virtual ~TiXmlDocument() {}

  0001c	8b ce		 mov	 ecx, esi
  0001e	5e		 pop	 esi
  0001f	e9 00 00 00 00	 jmp	 ??1TiXmlNode@@UAE@XZ	; TiXmlNode::~TiXmlNode
??1TiXmlDocument@@UAE@XZ ENDP				; TiXmlDocument::~TiXmlDocument
_TEXT	ENDS
; Function compile flags: /Ogtp
; File E:\Proyectos\JuegosOnlineproyectos\PB\pbblow\Piercing Blow Remake\i3Server\include\i3Base\tinyxml.h
;	COMDAT ??_ETiXmlUnknown@@UAEPAXI@Z
_TEXT	SEGMENT
__$EHRec$ = -12						; size = 12
___flags$ = 8						; size = 4
??_ETiXmlUnknown@@UAEPAXI@Z PROC			; TiXmlUnknown::`vector deleting destructor', COMDAT
; _this$ = ecx
  00000	55		 push	 ebp
  00001	8b ec		 mov	 ebp, esp
  00003	6a ff		 push	 -1
  00005	68 00 00 00 00	 push	 __ehhandler$??_ETiXmlUnknown@@UAEPAXI@Z
  0000a	64 a1 00 00 00
	00		 mov	 eax, DWORD PTR fs:0
  00010	50		 push	 eax
  00011	53		 push	 ebx
  00012	56		 push	 esi
  00013	57		 push	 edi
  00014	a1 00 00 00 00	 mov	 eax, DWORD PTR ___security_cookie
  00019	33 c5		 xor	 eax, ebp
  0001b	50		 push	 eax
  0001c	8d 45 f4	 lea	 eax, DWORD PTR __$EHRec$[ebp]
  0001f	64 a3 00 00 00
	00		 mov	 DWORD PTR fs:0, eax
  00025	8b f1		 mov	 esi, ecx
  00027	8b 45 08	 mov	 eax, DWORD PTR ___flags$[ebp]
  0002a	8b f8		 mov	 edi, eax
  0002c	83 e7 01	 and	 edi, 1
  0002f	a8 02		 test	 al, 2
  00031	74 3d		 je	 SHORT $LN2@vector
  00033	68 00 00 00 00	 push	 OFFSET ??1TiXmlUnknown@@UAE@XZ ; TiXmlUnknown::~TiXmlUnknown
  00038	ff 76 fc	 push	 DWORD PTR [esi-4]
  0003b	8d 5e fc	 lea	 ebx, DWORD PTR [esi-4]
  0003e	6a 2c		 push	 44			; 0000002cH
  00040	56		 push	 esi
  00041	e8 00 00 00 00	 call	 ??_M@YGXPAXIIP6EX0@Z@Z
  00046	85 ff		 test	 edi, edi
  00048	74 10		 je	 SHORT $LN3@vector
  0004a	6b 0b 2c	 imul	 ecx, DWORD PTR [ebx], 44
  0004d	83 c1 04	 add	 ecx, 4
  00050	51		 push	 ecx
  00051	53		 push	 ebx
  00052	e8 00 00 00 00	 call	 ??_V@YAXPAXI@Z		; operator delete[]
  00057	83 c4 08	 add	 esp, 8
$LN3@vector:
  0005a	8b c3		 mov	 eax, ebx
  0005c	8b 4d f4	 mov	 ecx, DWORD PTR __$EHRec$[ebp]
  0005f	64 89 0d 00 00
	00 00		 mov	 DWORD PTR fs:0, ecx
  00066	59		 pop	 ecx
  00067	5f		 pop	 edi
  00068	5e		 pop	 esi
  00069	5b		 pop	 ebx
  0006a	8b e5		 mov	 esp, ebp
  0006c	5d		 pop	 ebp
  0006d	c2 04 00	 ret	 4
$LN2@vector:

; 1360 : 	virtual ~TiXmlUnknown() {}

  00070	c7 06 00 00 00
	00		 mov	 DWORD PTR [esi], OFFSET ??_7TiXmlUnknown@@6B@
  00076	e8 00 00 00 00	 call	 ??1TiXmlNode@@UAE@XZ	; TiXmlNode::~TiXmlNode
  0007b	85 ff		 test	 edi, edi
  0007d	74 0b		 je	 SHORT $LN4@vector
  0007f	6a 2c		 push	 44			; 0000002cH
  00081	56		 push	 esi
  00082	e8 00 00 00 00	 call	 ??3@YAXPAXI@Z		; operator delete
  00087	83 c4 08	 add	 esp, 8
$LN4@vector:
  0008a	8b c6		 mov	 eax, esi
  0008c	8b 4d f4	 mov	 ecx, DWORD PTR __$EHRec$[ebp]
  0008f	64 89 0d 00 00
	00 00		 mov	 DWORD PTR fs:0, ecx
  00096	59		 pop	 ecx
  00097	5f		 pop	 edi
  00098	5e		 pop	 esi
  00099	5b		 pop	 ebx
  0009a	8b e5		 mov	 esp, ebp
  0009c	5d		 pop	 ebp
  0009d	c2 04 00	 ret	 4
  000a0	cc		 int	 3
  000a1	cc		 int	 3
  000a2	cc		 int	 3
  000a3	cc		 int	 3
  000a4	cc		 int	 3
_TEXT	ENDS
;	COMDAT text$x
text$x	SEGMENT
__ehhandler$??_ETiXmlUnknown@@UAEPAXI@Z:
  00000	90		 npad	 1
  00001	90		 npad	 1
  00002	8b 54 24 08	 mov	 edx, DWORD PTR [esp+8]
  00006	8d 42 0c	 lea	 eax, DWORD PTR [edx+12]
  00009	8b 4a f0	 mov	 ecx, DWORD PTR [edx-16]
  0000c	33 c8		 xor	 ecx, eax
  0000e	e8 00 00 00 00	 call	 @__security_check_cookie@4
  00013	b8 00 00 00 00	 mov	 eax, OFFSET __ehfuncinfo$??_ETiXmlUnknown@@UAEPAXI@Z
  00018	e9 00 00 00 00	 jmp	 ___CxxFrameHandler3
text$x	ENDS
??_ETiXmlUnknown@@UAEPAXI@Z ENDP			; TiXmlUnknown::`vector deleting destructor'
; Function compile flags: /Ogtp
; File E:\Proyectos\JuegosOnlineproyectos\PB\pbblow\Piercing Blow Remake\i3Server\include\i3Base\tinyxml.h
;	COMDAT ??_GTiXmlUnknown@@UAEPAXI@Z
_TEXT	SEGMENT
___flags$ = 8						; size = 4
??_GTiXmlUnknown@@UAEPAXI@Z PROC			; TiXmlUnknown::`scalar deleting destructor', COMDAT
; _this$ = ecx
  00000	55		 push	 ebp
  00001	8b ec		 mov	 ebp, esp

; 1360 : 	virtual ~TiXmlUnknown() {}

  00003	56		 push	 esi
  00004	8b f1		 mov	 esi, ecx
  00006	c7 06 00 00 00
	00		 mov	 DWORD PTR [esi], OFFSET ??_7TiXmlUnknown@@6B@
  0000c	e8 00 00 00 00	 call	 ??1TiXmlNode@@UAE@XZ	; TiXmlNode::~TiXmlNode
  00011	f6 45 08 01	 test	 BYTE PTR ___flags$[ebp], 1
  00015	74 0b		 je	 SHORT $LN10@scalar
  00017	6a 2c		 push	 44			; 0000002cH
  00019	56		 push	 esi
  0001a	e8 00 00 00 00	 call	 ??3@YAXPAXI@Z		; operator delete
  0001f	83 c4 08	 add	 esp, 8
$LN10@scalar:
  00022	8b c6		 mov	 eax, esi
  00024	5e		 pop	 esi
  00025	5d		 pop	 ebp
  00026	c2 04 00	 ret	 4
??_GTiXmlUnknown@@UAEPAXI@Z ENDP			; TiXmlUnknown::`scalar deleting destructor'
_TEXT	ENDS
; Function compile flags: /Ogtp
; File E:\Proyectos\JuegosOnlineproyectos\PB\pbblow\Piercing Blow Remake\i3Server\include\i3Base\tinyxml.h
;	COMDAT ?ToUnknown@TiXmlUnknown@@UAEPAV1@XZ
_TEXT	SEGMENT
?ToUnknown@TiXmlUnknown@@UAEPAV1@XZ PROC		; TiXmlUnknown::ToUnknown, COMDAT
; _this$ = ecx

; 1373 : 	virtual TiXmlUnknown*           ToUnknown()	    { return this; } ///< Cast to a more defined type. Will return null not of the requested type.

  00000	8b c1		 mov	 eax, ecx
  00002	c3		 ret	 0
?ToUnknown@TiXmlUnknown@@UAEPAV1@XZ ENDP		; TiXmlUnknown::ToUnknown
_TEXT	ENDS
; Function compile flags: /Ogtp
; File E:\Proyectos\JuegosOnlineproyectos\PB\pbblow\Piercing Blow Remake\i3Server\include\i3Base\tinyxml.h
;	COMDAT ?ToUnknown@TiXmlUnknown@@UBEPBV1@XZ
_TEXT	SEGMENT
?ToUnknown@TiXmlUnknown@@UBEPBV1@XZ PROC		; TiXmlUnknown::ToUnknown, COMDAT
; _this$ = ecx

; 1372 : 	virtual const TiXmlUnknown*     ToUnknown()     const { return this; } ///< Cast to a more defined type. Will return null not of the requested type.

  00000	8b c1		 mov	 eax, ecx
  00002	c3		 ret	 0
?ToUnknown@TiXmlUnknown@@UBEPBV1@XZ ENDP		; TiXmlUnknown::ToUnknown
_TEXT	ENDS
; Function compile flags: /Ogtp
; File E:\Proyectos\JuegosOnlineproyectos\PB\pbblow\Piercing Blow Remake\i3Server\include\i3Base\tinyxml.h
;	COMDAT ??4TiXmlUnknown@@QAEXABV0@@Z
_TEXT	SEGMENT
_copy$ = 8						; size = 4
??4TiXmlUnknown@@QAEXABV0@@Z PROC			; TiXmlUnknown::operator=, COMDAT
; _this$ = ecx

; 1363 : 	void operator=( const TiXmlUnknown& copy )										{ copy.CopyTo( this ); }

  00000	55		 push	 ebp
  00001	8b ec		 mov	 ebp, esp
  00003	51		 push	 ecx
  00004	8b 4d 08	 mov	 ecx, DWORD PTR _copy$[ebp]
  00007	e8 00 00 00 00	 call	 ?CopyTo@TiXmlUnknown@@IBEXPAV1@@Z ; TiXmlUnknown::CopyTo
  0000c	5d		 pop	 ebp
  0000d	c2 04 00	 ret	 4
??4TiXmlUnknown@@QAEXABV0@@Z ENDP			; TiXmlUnknown::operator=
_TEXT	ENDS
; Function compile flags: /Ogtp
; File E:\Proyectos\JuegosOnlineproyectos\PB\pbblow\Piercing Blow Remake\i3Server\include\i3Base\tinyxml.h
;	COMDAT ??0TiXmlUnknown@@QAE@ABV0@@Z
_TEXT	SEGMENT
_this$ = -16						; size = 4
__$EHRec$ = -12						; size = 12
_copy$ = 8						; size = 4
??0TiXmlUnknown@@QAE@ABV0@@Z PROC			; TiXmlUnknown::TiXmlUnknown, COMDAT
; _this$ = ecx

; 1362 : 	TiXmlUnknown( const TiXmlUnknown& copy ) : TiXmlNode( TiXmlNode::UNKNOWN )		{ copy.CopyTo( this ); }

  00000	55		 push	 ebp
  00001	8b ec		 mov	 ebp, esp
  00003	6a ff		 push	 -1
  00005	68 00 00 00 00	 push	 __ehhandler$??0TiXmlUnknown@@QAE@ABV0@@Z
  0000a	64 a1 00 00 00
	00		 mov	 eax, DWORD PTR fs:0
  00010	50		 push	 eax
  00011	51		 push	 ecx
  00012	56		 push	 esi
  00013	a1 00 00 00 00	 mov	 eax, DWORD PTR ___security_cookie
  00018	33 c5		 xor	 eax, ebp
  0001a	50		 push	 eax
  0001b	8d 45 f4	 lea	 eax, DWORD PTR __$EHRec$[ebp]
  0001e	64 a3 00 00 00
	00		 mov	 DWORD PTR fs:0, eax
  00024	8b f1		 mov	 esi, ecx
  00026	89 75 f0	 mov	 DWORD PTR _this$[ebp], esi
  00029	6a 03		 push	 3
  0002b	e8 00 00 00 00	 call	 ??0TiXmlNode@@IAE@W4NodeType@0@@Z ; TiXmlNode::TiXmlNode
  00030	8b 4d 08	 mov	 ecx, DWORD PTR _copy$[ebp]
  00033	56		 push	 esi
  00034	c7 45 fc 00 00
	00 00		 mov	 DWORD PTR __$EHRec$[ebp+8], 0
  0003b	c7 06 00 00 00
	00		 mov	 DWORD PTR [esi], OFFSET ??_7TiXmlUnknown@@6B@
  00041	e8 00 00 00 00	 call	 ?CopyTo@TiXmlUnknown@@IBEXPAV1@@Z ; TiXmlUnknown::CopyTo
  00046	8b c6		 mov	 eax, esi
  00048	8b 4d f4	 mov	 ecx, DWORD PTR __$EHRec$[ebp]
  0004b	64 89 0d 00 00
	00 00		 mov	 DWORD PTR fs:0, ecx
  00052	59		 pop	 ecx
  00053	5e		 pop	 esi
  00054	8b e5		 mov	 esp, ebp
  00056	5d		 pop	 ebp
  00057	c2 04 00	 ret	 4
_TEXT	ENDS
;	COMDAT text$x
text$x	SEGMENT
__unwindfunclet$??0TiXmlUnknown@@QAE@ABV0@@Z$0:
  00000	8b 4d f0	 mov	 ecx, DWORD PTR _this$[ebp]
  00003	e9 00 00 00 00	 jmp	 ??1TiXmlNode@@UAE@XZ	; TiXmlNode::~TiXmlNode
  00008	cc		 int	 3
  00009	cc		 int	 3
  0000a	cc		 int	 3
  0000b	cc		 int	 3
  0000c	cc		 int	 3
__ehhandler$??0TiXmlUnknown@@QAE@ABV0@@Z:
  0000d	90		 npad	 1
  0000e	90		 npad	 1
  0000f	8b 54 24 08	 mov	 edx, DWORD PTR [esp+8]
  00013	8d 42 0c	 lea	 eax, DWORD PTR [edx+12]
  00016	8b 4a f4	 mov	 ecx, DWORD PTR [edx-12]
  00019	33 c8		 xor	 ecx, eax
  0001b	e8 00 00 00 00	 call	 @__security_check_cookie@4
  00020	b8 00 00 00 00	 mov	 eax, OFFSET __ehfuncinfo$??0TiXmlUnknown@@QAE@ABV0@@Z
  00025	e9 00 00 00 00	 jmp	 ___CxxFrameHandler3
text$x	ENDS
??0TiXmlUnknown@@QAE@ABV0@@Z ENDP			; TiXmlUnknown::TiXmlUnknown
; Function compile flags: /Ogtp
; File E:\Proyectos\JuegosOnlineproyectos\PB\pbblow\Piercing Blow Remake\i3Server\include\i3Base\tinyxml.h
;	COMDAT ??1TiXmlUnknown@@UAE@XZ
_TEXT	SEGMENT
??1TiXmlUnknown@@UAE@XZ PROC				; TiXmlUnknown::~TiXmlUnknown, COMDAT
; _this$ = ecx

; 1360 : 	virtual ~TiXmlUnknown() {}

  00000	c7 01 00 00 00
	00		 mov	 DWORD PTR [ecx], OFFSET ??_7TiXmlUnknown@@6B@
  00006	e9 00 00 00 00	 jmp	 ??1TiXmlNode@@UAE@XZ	; TiXmlNode::~TiXmlNode
??1TiXmlUnknown@@UAE@XZ ENDP				; TiXmlUnknown::~TiXmlUnknown
_TEXT	ENDS
; Function compile flags: /Ogtp
; File E:\Proyectos\JuegosOnlineproyectos\PB\pbblow\Piercing Blow Remake\i3Server\include\i3Base\tinyxml.h
;	COMDAT ??0TiXmlUnknown@@QAE@XZ
_TEXT	SEGMENT
_this$ = -4						; size = 4
??0TiXmlUnknown@@QAE@XZ PROC				; TiXmlUnknown::TiXmlUnknown, COMDAT
; _this$ = ecx

; 1359 : 	TiXmlUnknown() : TiXmlNode( TiXmlNode::UNKNOWN )	{}

  00000	55		 push	 ebp
  00001	8b ec		 mov	 ebp, esp
  00003	51		 push	 ecx
  00004	56		 push	 esi
  00005	8b f1		 mov	 esi, ecx
  00007	6a 03		 push	 3
  00009	89 75 fc	 mov	 DWORD PTR _this$[ebp], esi
  0000c	e8 00 00 00 00	 call	 ??0TiXmlNode@@IAE@W4NodeType@0@@Z ; TiXmlNode::TiXmlNode
  00011	c7 06 00 00 00
	00		 mov	 DWORD PTR [esi], OFFSET ??_7TiXmlUnknown@@6B@
  00017	8b c6		 mov	 eax, esi
  00019	5e		 pop	 esi
  0001a	8b e5		 mov	 esp, ebp
  0001c	5d		 pop	 ebp
  0001d	c3		 ret	 0
??0TiXmlUnknown@@QAE@XZ ENDP				; TiXmlUnknown::TiXmlUnknown
_TEXT	ENDS
; Function compile flags: /Ogtp
; File E:\Proyectos\JuegosOnlineproyectos\PB\pbblow\Piercing Blow Remake\i3Server\include\i3Base\tinyxml.h
; File E:\Proyectos\JuegosOnlineproyectos\PB\pbblow\Piercing Blow Remake\i3Server\include\i3Base\tinystr.h
; File E:\Proyectos\JuegosOnlineproyectos\PB\pbblow\Piercing Blow Remake\i3Server\include\i3Base\tinyxml.h
;	COMDAT ??_ETiXmlDeclaration@@UAEPAXI@Z
_TEXT	SEGMENT
__$EHRec$ = -12						; size = 12
___flags$ = 8						; size = 4
??_ETiXmlDeclaration@@UAEPAXI@Z PROC			; TiXmlDeclaration::`vector deleting destructor', COMDAT
; _this$ = ecx
  00000	55		 push	 ebp
  00001	8b ec		 mov	 ebp, esp
  00003	6a ff		 push	 -1
  00005	68 00 00 00 00	 push	 __ehhandler$??_ETiXmlDeclaration@@UAEPAXI@Z
  0000a	64 a1 00 00 00
	00		 mov	 eax, DWORD PTR fs:0
  00010	50		 push	 eax
  00011	53		 push	 ebx
  00012	56		 push	 esi
  00013	57		 push	 edi
  00014	a1 00 00 00 00	 mov	 eax, DWORD PTR ___security_cookie
  00019	33 c5		 xor	 eax, ebp
  0001b	50		 push	 eax
  0001c	8d 45 f4	 lea	 eax, DWORD PTR __$EHRec$[ebp]
  0001f	64 a3 00 00 00
	00		 mov	 DWORD PTR fs:0, eax
  00025	8b f1		 mov	 esi, ecx
  00027	8b 5d 08	 mov	 ebx, DWORD PTR ___flags$[ebp]
  0002a	f6 c3 02	 test	 bl, 2
  0002d	74 4a		 je	 SHORT $LN2@vector
  0002f	68 00 00 00 00	 push	 OFFSET ??1TiXmlDeclaration@@UAE@XZ ; TiXmlDeclaration::~TiXmlDeclaration
  00034	ff 76 fc	 push	 DWORD PTR [esi-4]
  00037	8d 7e fc	 lea	 edi, DWORD PTR [esi-4]
  0003a	6a 38		 push	 56			; 00000038H
  0003c	56		 push	 esi
  0003d	e8 00 00 00 00	 call	 ??_M@YGXPAXIIP6EX0@Z@Z
  00042	f6 c3 01	 test	 bl, 1
  00045	74 1c		 je	 SHORT $LN3@vector
  00047	8b 0f		 mov	 ecx, DWORD PTR [edi]
  00049	8d 14 cd 00 00
	00 00		 lea	 edx, DWORD PTR [ecx*8]
  00050	2b d1		 sub	 edx, ecx
  00052	8d 0c d5 04 00
	00 00		 lea	 ecx, DWORD PTR [edx*8+4]
  00059	51		 push	 ecx
  0005a	57		 push	 edi
  0005b	e8 00 00 00 00	 call	 ??_V@YAXPAXI@Z		; operator delete[]
  00060	83 c4 08	 add	 esp, 8
$LN3@vector:
  00063	8b c7		 mov	 eax, edi
  00065	8b 4d f4	 mov	 ecx, DWORD PTR __$EHRec$[ebp]
  00068	64 89 0d 00 00
	00 00		 mov	 DWORD PTR fs:0, ecx
  0006f	59		 pop	 ecx
  00070	5f		 pop	 edi
  00071	5e		 pop	 esi
  00072	5b		 pop	 ebx
  00073	8b e5		 mov	 esp, ebp
  00075	5d		 pop	 ebp
  00076	c2 04 00	 ret	 4
$LN2@vector:

; 1308 : 	virtual ~TiXmlDeclaration()	{}

  00079	c7 06 00 00 00
	00		 mov	 DWORD PTR [esi], OFFSET ??_7TiXmlDeclaration@@6B@
; File E:\Proyectos\JuegosOnlineproyectos\PB\pbblow\Piercing Blow Remake\i3Server\include\i3Base\tinystr.h

; 257  : 		if (rep_ != &nullrep_)

  0007f	8b 46 34	 mov	 eax, DWORD PTR [esi+52]
  00082	3d 00 00 00 00	 cmp	 eax, OFFSET ?nullrep_@TiXmlString@@0URep@1@A ; TiXmlString::nullrep_
  00087	74 09		 je	 SHORT $LN16@vector

; 258  : 		{
; 259  : 			// The rep_ is really an array of ints. (see the allocator, above).
; 260  : 			// Cast it back before delete, so the compiler won't incorrectly call destructors.
; 261  : 			delete [] ( reinterpret_cast<int*>( rep_ ) );

  00089	50		 push	 eax
  0008a	e8 00 00 00 00	 call	 ??_V@YAXPAX@Z		; operator delete[]
  0008f	83 c4 04	 add	 esp, 4
$LN16@vector:

; 257  : 		if (rep_ != &nullrep_)

  00092	8b 46 30	 mov	 eax, DWORD PTR [esi+48]
  00095	3d 00 00 00 00	 cmp	 eax, OFFSET ?nullrep_@TiXmlString@@0URep@1@A ; TiXmlString::nullrep_
  0009a	74 09		 je	 SHORT $LN22@vector

; 258  : 		{
; 259  : 			// The rep_ is really an array of ints. (see the allocator, above).
; 260  : 			// Cast it back before delete, so the compiler won't incorrectly call destructors.
; 261  : 			delete [] ( reinterpret_cast<int*>( rep_ ) );

  0009c	50		 push	 eax
  0009d	e8 00 00 00 00	 call	 ??_V@YAXPAX@Z		; operator delete[]
  000a2	83 c4 04	 add	 esp, 4
$LN22@vector:

; 257  : 		if (rep_ != &nullrep_)

  000a5	8b 46 2c	 mov	 eax, DWORD PTR [esi+44]
  000a8	3d 00 00 00 00	 cmp	 eax, OFFSET ?nullrep_@TiXmlString@@0URep@1@A ; TiXmlString::nullrep_
  000ad	74 09		 je	 SHORT $LN28@vector

; 258  : 		{
; 259  : 			// The rep_ is really an array of ints. (see the allocator, above).
; 260  : 			// Cast it back before delete, so the compiler won't incorrectly call destructors.
; 261  : 			delete [] ( reinterpret_cast<int*>( rep_ ) );

  000af	50		 push	 eax
  000b0	e8 00 00 00 00	 call	 ??_V@YAXPAX@Z		; operator delete[]
  000b5	83 c4 04	 add	 esp, 4
$LN28@vector:
; File E:\Proyectos\JuegosOnlineproyectos\PB\pbblow\Piercing Blow Remake\i3Server\include\i3Base\tinyxml.h

; 1308 : 	virtual ~TiXmlDeclaration()	{}

  000b8	8b ce		 mov	 ecx, esi
  000ba	e8 00 00 00 00	 call	 ??1TiXmlNode@@UAE@XZ	; TiXmlNode::~TiXmlNode
  000bf	f6 c3 01	 test	 bl, 1
  000c2	74 0b		 je	 SHORT $LN4@vector
  000c4	6a 38		 push	 56			; 00000038H
  000c6	56		 push	 esi
  000c7	e8 00 00 00 00	 call	 ??3@YAXPAXI@Z		; operator delete
  000cc	83 c4 08	 add	 esp, 8
$LN4@vector:
  000cf	8b c6		 mov	 eax, esi
  000d1	8b 4d f4	 mov	 ecx, DWORD PTR __$EHRec$[ebp]
  000d4	64 89 0d 00 00
	00 00		 mov	 DWORD PTR fs:0, ecx
  000db	59		 pop	 ecx
  000dc	5f		 pop	 edi
  000dd	5e		 pop	 esi
  000de	5b		 pop	 ebx
  000df	8b e5		 mov	 esp, ebp
  000e1	5d		 pop	 ebp
  000e2	c2 04 00	 ret	 4
  000e5	cc		 int	 3
  000e6	cc		 int	 3
  000e7	cc		 int	 3
  000e8	cc		 int	 3
  000e9	cc		 int	 3
_TEXT	ENDS
;	COMDAT text$x
text$x	SEGMENT
__ehhandler$??_ETiXmlDeclaration@@UAEPAXI@Z:
  00000	90		 npad	 1
  00001	90		 npad	 1
  00002	8b 54 24 08	 mov	 edx, DWORD PTR [esp+8]
  00006	8d 42 0c	 lea	 eax, DWORD PTR [edx+12]
  00009	8b 4a f0	 mov	 ecx, DWORD PTR [edx-16]
  0000c	33 c8		 xor	 ecx, eax
  0000e	e8 00 00 00 00	 call	 @__security_check_cookie@4
  00013	b8 00 00 00 00	 mov	 eax, OFFSET __ehfuncinfo$??_ETiXmlDeclaration@@UAEPAXI@Z
  00018	e9 00 00 00 00	 jmp	 ___CxxFrameHandler3
text$x	ENDS
??_ETiXmlDeclaration@@UAEPAXI@Z ENDP			; TiXmlDeclaration::`vector deleting destructor'
; Function compile flags: /Ogtp
; File E:\Proyectos\JuegosOnlineproyectos\PB\pbblow\Piercing Blow Remake\i3Server\include\i3Base\tinyxml.h
; File E:\Proyectos\JuegosOnlineproyectos\PB\pbblow\Piercing Blow Remake\i3Server\include\i3Base\tinystr.h
; File E:\Proyectos\JuegosOnlineproyectos\PB\pbblow\Piercing Blow Remake\i3Server\include\i3Base\tinyxml.h
;	COMDAT ??_GTiXmlDeclaration@@UAEPAXI@Z
_TEXT	SEGMENT
___flags$ = 8						; size = 4
??_GTiXmlDeclaration@@UAEPAXI@Z PROC			; TiXmlDeclaration::`scalar deleting destructor', COMDAT
; _this$ = ecx
  00000	55		 push	 ebp
  00001	8b ec		 mov	 ebp, esp

; 1308 : 	virtual ~TiXmlDeclaration()	{}

  00003	56		 push	 esi
  00004	8b f1		 mov	 esi, ecx
  00006	c7 06 00 00 00
	00		 mov	 DWORD PTR [esi], OFFSET ??_7TiXmlDeclaration@@6B@
; File E:\Proyectos\JuegosOnlineproyectos\PB\pbblow\Piercing Blow Remake\i3Server\include\i3Base\tinystr.h

; 257  : 		if (rep_ != &nullrep_)

  0000c	8b 46 34	 mov	 eax, DWORD PTR [esi+52]
  0000f	3d 00 00 00 00	 cmp	 eax, OFFSET ?nullrep_@TiXmlString@@0URep@1@A ; TiXmlString::nullrep_
  00014	74 09		 je	 SHORT $LN14@scalar

; 258  : 		{
; 259  : 			// The rep_ is really an array of ints. (see the allocator, above).
; 260  : 			// Cast it back before delete, so the compiler won't incorrectly call destructors.
; 261  : 			delete [] ( reinterpret_cast<int*>( rep_ ) );

  00016	50		 push	 eax
  00017	e8 00 00 00 00	 call	 ??_V@YAXPAX@Z		; operator delete[]
  0001c	83 c4 04	 add	 esp, 4
$LN14@scalar:

; 257  : 		if (rep_ != &nullrep_)

  0001f	8b 46 30	 mov	 eax, DWORD PTR [esi+48]
  00022	3d 00 00 00 00	 cmp	 eax, OFFSET ?nullrep_@TiXmlString@@0URep@1@A ; TiXmlString::nullrep_
  00027	74 09		 je	 SHORT $LN20@scalar

; 258  : 		{
; 259  : 			// The rep_ is really an array of ints. (see the allocator, above).
; 260  : 			// Cast it back before delete, so the compiler won't incorrectly call destructors.
; 261  : 			delete [] ( reinterpret_cast<int*>( rep_ ) );

  00029	50		 push	 eax
  0002a	e8 00 00 00 00	 call	 ??_V@YAXPAX@Z		; operator delete[]
  0002f	83 c4 04	 add	 esp, 4
$LN20@scalar:

; 257  : 		if (rep_ != &nullrep_)

  00032	8b 46 2c	 mov	 eax, DWORD PTR [esi+44]
  00035	3d 00 00 00 00	 cmp	 eax, OFFSET ?nullrep_@TiXmlString@@0URep@1@A ; TiXmlString::nullrep_
  0003a	74 09		 je	 SHORT $LN26@scalar

; 258  : 		{
; 259  : 			// The rep_ is really an array of ints. (see the allocator, above).
; 260  : 			// Cast it back before delete, so the compiler won't incorrectly call destructors.
; 261  : 			delete [] ( reinterpret_cast<int*>( rep_ ) );

  0003c	50		 push	 eax
  0003d	e8 00 00 00 00	 call	 ??_V@YAXPAX@Z		; operator delete[]
  00042	83 c4 04	 add	 esp, 4
$LN26@scalar:
; File E:\Proyectos\JuegosOnlineproyectos\PB\pbblow\Piercing Blow Remake\i3Server\include\i3Base\tinyxml.h

; 1308 : 	virtual ~TiXmlDeclaration()	{}

  00045	8b ce		 mov	 ecx, esi
  00047	e8 00 00 00 00	 call	 ??1TiXmlNode@@UAE@XZ	; TiXmlNode::~TiXmlNode
  0004c	f6 45 08 01	 test	 BYTE PTR ___flags$[ebp], 1
  00050	74 0b		 je	 SHORT $LN28@scalar
  00052	6a 38		 push	 56			; 00000038H
  00054	56		 push	 esi
  00055	e8 00 00 00 00	 call	 ??3@YAXPAXI@Z		; operator delete
  0005a	83 c4 08	 add	 esp, 8
$LN28@scalar:
  0005d	8b c6		 mov	 eax, esi
  0005f	5e		 pop	 esi
  00060	5d		 pop	 ebp
  00061	c2 04 00	 ret	 4
??_GTiXmlDeclaration@@UAEPAXI@Z ENDP			; TiXmlDeclaration::`scalar deleting destructor'
_TEXT	ENDS
; Function compile flags: /Ogtp
; File E:\Proyectos\JuegosOnlineproyectos\PB\pbblow\Piercing Blow Remake\i3Server\include\i3Base\tinyxml.h
;	COMDAT ?ToDeclaration@TiXmlDeclaration@@UAEPAV1@XZ
_TEXT	SEGMENT
?ToDeclaration@TiXmlDeclaration@@UAEPAV1@XZ PROC	; TiXmlDeclaration::ToDeclaration, COMDAT
; _this$ = ecx

; 1328 : 	virtual TiXmlDeclaration*       ToDeclaration()       { return this; } ///< Cast to a more defined type. Will return null not of the requested type.

  00000	8b c1		 mov	 eax, ecx
  00002	c3		 ret	 0
?ToDeclaration@TiXmlDeclaration@@UAEPAV1@XZ ENDP	; TiXmlDeclaration::ToDeclaration
_TEXT	ENDS
; Function compile flags: /Ogtp
; File E:\Proyectos\JuegosOnlineproyectos\PB\pbblow\Piercing Blow Remake\i3Server\include\i3Base\tinyxml.h
;	COMDAT ?ToDeclaration@TiXmlDeclaration@@UBEPBV1@XZ
_TEXT	SEGMENT
?ToDeclaration@TiXmlDeclaration@@UBEPBV1@XZ PROC	; TiXmlDeclaration::ToDeclaration, COMDAT
; _this$ = ecx

; 1327 : 	virtual const TiXmlDeclaration* ToDeclaration() const { return this; } ///< Cast to a more defined type. Will return null not of the requested type.

  00000	8b c1		 mov	 eax, ecx
  00002	c3		 ret	 0
?ToDeclaration@TiXmlDeclaration@@UBEPBV1@XZ ENDP	; TiXmlDeclaration::ToDeclaration
_TEXT	ENDS
; Function compile flags: /Ogtp
; File E:\Proyectos\JuegosOnlineproyectos\PB\pbblow\Piercing Blow Remake\i3Server\include\i3Base\tinyxml.h
;	COMDAT ?Print@TiXmlDeclaration@@UBEXPAVi3FileStream@@H@Z
_TEXT	SEGMENT
_cfile$ = 8						; size = 4
_depth$ = 12						; size = 4
?Print@TiXmlDeclaration@@UBEXPAVi3FileStream@@H@Z PROC	; TiXmlDeclaration::Print, COMDAT
; _this$ = ecx

; 1321 : 	virtual void Print( i3FileStream* cfile, int depth ) const {

  00000	55		 push	 ebp
  00001	8b ec		 mov	 ebp, esp

; 1322 : 		Print( cfile, depth, 0 );

  00003	8b 01		 mov	 eax, DWORD PTR [ecx]
  00005	6a 00		 push	 0
  00007	ff 75 0c	 push	 DWORD PTR _depth$[ebp]
  0000a	ff 75 08	 push	 DWORD PTR _cfile$[ebp]
  0000d	ff 50 44	 call	 DWORD PTR [eax+68]

; 1323 : 	}

  00010	5d		 pop	 ebp
  00011	c2 08 00	 ret	 8
?Print@TiXmlDeclaration@@UBEXPAVi3FileStream@@H@Z ENDP	; TiXmlDeclaration::Print
_TEXT	ENDS
; Function compile flags: /Ogtp
; File E:\Proyectos\JuegosOnlineproyectos\PB\pbblow\Piercing Blow Remake\i3Server\include\i3Base\tinyxml.h
; File E:\Proyectos\JuegosOnlineproyectos\PB\pbblow\Piercing Blow Remake\i3Server\include\i3Base\tinystr.h
; File E:\Proyectos\JuegosOnlineproyectos\PB\pbblow\Piercing Blow Remake\i3Server\include\i3Base\tinyxml.h
;	COMDAT ?Standalone@TiXmlDeclaration@@QBEPBDXZ
_TEXT	SEGMENT
?Standalone@TiXmlDeclaration@@QBEPBDXZ PROC		; TiXmlDeclaration::Standalone, COMDAT
; _this$ = ecx
; File E:\Proyectos\JuegosOnlineproyectos\PB\pbblow\Piercing Blow Remake\i3Server\include\i3Base\tinystr.h

; 144  : 	const char * c_str () const { return rep_->str; }

  00000	8b 41 34	 mov	 eax, DWORD PTR [ecx+52]
  00003	83 c0 08	 add	 eax, 8
; File E:\Proyectos\JuegosOnlineproyectos\PB\pbblow\Piercing Blow Remake\i3Server\include\i3Base\tinyxml.h

; 1315 : 	const char *Standalone() const		{ return standalone.c_str (); }

  00006	c3		 ret	 0
?Standalone@TiXmlDeclaration@@QBEPBDXZ ENDP		; TiXmlDeclaration::Standalone
_TEXT	ENDS
; Function compile flags: /Ogtp
; File E:\Proyectos\JuegosOnlineproyectos\PB\pbblow\Piercing Blow Remake\i3Server\include\i3Base\tinyxml.h
; File E:\Proyectos\JuegosOnlineproyectos\PB\pbblow\Piercing Blow Remake\i3Server\include\i3Base\tinystr.h
; File E:\Proyectos\JuegosOnlineproyectos\PB\pbblow\Piercing Blow Remake\i3Server\include\i3Base\tinyxml.h
;	COMDAT ?Encoding@TiXmlDeclaration@@QBEPBDXZ
_TEXT	SEGMENT
?Encoding@TiXmlDeclaration@@QBEPBDXZ PROC		; TiXmlDeclaration::Encoding, COMDAT
; _this$ = ecx
; File E:\Proyectos\JuegosOnlineproyectos\PB\pbblow\Piercing Blow Remake\i3Server\include\i3Base\tinystr.h

; 144  : 	const char * c_str () const { return rep_->str; }

  00000	8b 41 30	 mov	 eax, DWORD PTR [ecx+48]
  00003	83 c0 08	 add	 eax, 8
; File E:\Proyectos\JuegosOnlineproyectos\PB\pbblow\Piercing Blow Remake\i3Server\include\i3Base\tinyxml.h

; 1313 : 	const char *Encoding() const		{ return encoding.c_str (); }

  00006	c3		 ret	 0
?Encoding@TiXmlDeclaration@@QBEPBDXZ ENDP		; TiXmlDeclaration::Encoding
_TEXT	ENDS
; Function compile flags: /Ogtp
; File E:\Proyectos\JuegosOnlineproyectos\PB\pbblow\Piercing Blow Remake\i3Server\include\i3Base\tinyxml.h
; File E:\Proyectos\JuegosOnlineproyectos\PB\pbblow\Piercing Blow Remake\i3Server\include\i3Base\tinystr.h
; File E:\Proyectos\JuegosOnlineproyectos\PB\pbblow\Piercing Blow Remake\i3Server\include\i3Base\tinyxml.h
;	COMDAT ?Version@TiXmlDeclaration@@QBEPBDXZ
_TEXT	SEGMENT
?Version@TiXmlDeclaration@@QBEPBDXZ PROC		; TiXmlDeclaration::Version, COMDAT
; _this$ = ecx
; File E:\Proyectos\JuegosOnlineproyectos\PB\pbblow\Piercing Blow Remake\i3Server\include\i3Base\tinystr.h

; 144  : 	const char * c_str () const { return rep_->str; }

  00000	8b 41 2c	 mov	 eax, DWORD PTR [ecx+44]
  00003	83 c0 08	 add	 eax, 8
; File E:\Proyectos\JuegosOnlineproyectos\PB\pbblow\Piercing Blow Remake\i3Server\include\i3Base\tinyxml.h

; 1311 : 	const char *Version() const			{ return version.c_str (); }

  00006	c3		 ret	 0
?Version@TiXmlDeclaration@@QBEPBDXZ ENDP		; TiXmlDeclaration::Version
_TEXT	ENDS
; Function compile flags: /Ogtp
; File E:\Proyectos\JuegosOnlineproyectos\PB\pbblow\Piercing Blow Remake\i3Server\include\i3Base\tinyxml.h
; File E:\Proyectos\JuegosOnlineproyectos\PB\pbblow\Piercing Blow Remake\i3Server\include\i3Base\tinystr.h
; File E:\Proyectos\JuegosOnlineproyectos\PB\pbblow\Piercing Blow Remake\i3Server\include\i3Base\tinyxml.h
;	COMDAT ??1TiXmlDeclaration@@UAE@XZ
_TEXT	SEGMENT
??1TiXmlDeclaration@@UAE@XZ PROC			; TiXmlDeclaration::~TiXmlDeclaration, COMDAT
; _this$ = ecx

; 1308 : 	virtual ~TiXmlDeclaration()	{}

  00000	56		 push	 esi
  00001	8b f1		 mov	 esi, ecx
  00003	c7 06 00 00 00
	00		 mov	 DWORD PTR [esi], OFFSET ??_7TiXmlDeclaration@@6B@
; File E:\Proyectos\JuegosOnlineproyectos\PB\pbblow\Piercing Blow Remake\i3Server\include\i3Base\tinystr.h

; 257  : 		if (rep_ != &nullrep_)

  00009	8b 46 34	 mov	 eax, DWORD PTR [esi+52]
  0000c	3d 00 00 00 00	 cmp	 eax, OFFSET ?nullrep_@TiXmlString@@0URep@1@A ; TiXmlString::nullrep_
  00011	74 09		 je	 SHORT $LN8@TiXmlDecla

; 258  : 		{
; 259  : 			// The rep_ is really an array of ints. (see the allocator, above).
; 260  : 			// Cast it back before delete, so the compiler won't incorrectly call destructors.
; 261  : 			delete [] ( reinterpret_cast<int*>( rep_ ) );

  00013	50		 push	 eax
  00014	e8 00 00 00 00	 call	 ??_V@YAXPAX@Z		; operator delete[]
  00019	83 c4 04	 add	 esp, 4
$LN8@TiXmlDecla:

; 257  : 		if (rep_ != &nullrep_)

  0001c	8b 46 30	 mov	 eax, DWORD PTR [esi+48]
  0001f	3d 00 00 00 00	 cmp	 eax, OFFSET ?nullrep_@TiXmlString@@0URep@1@A ; TiXmlString::nullrep_
  00024	74 09		 je	 SHORT $LN14@TiXmlDecla

; 258  : 		{
; 259  : 			// The rep_ is really an array of ints. (see the allocator, above).
; 260  : 			// Cast it back before delete, so the compiler won't incorrectly call destructors.
; 261  : 			delete [] ( reinterpret_cast<int*>( rep_ ) );

  00026	50		 push	 eax
  00027	e8 00 00 00 00	 call	 ??_V@YAXPAX@Z		; operator delete[]
  0002c	83 c4 04	 add	 esp, 4
$LN14@TiXmlDecla:

; 257  : 		if (rep_ != &nullrep_)

  0002f	8b 46 2c	 mov	 eax, DWORD PTR [esi+44]
  00032	3d 00 00 00 00	 cmp	 eax, OFFSET ?nullrep_@TiXmlString@@0URep@1@A ; TiXmlString::nullrep_
  00037	74 09		 je	 SHORT $LN20@TiXmlDecla

; 258  : 		{
; 259  : 			// The rep_ is really an array of ints. (see the allocator, above).
; 260  : 			// Cast it back before delete, so the compiler won't incorrectly call destructors.
; 261  : 			delete [] ( reinterpret_cast<int*>( rep_ ) );

  00039	50		 push	 eax
  0003a	e8 00 00 00 00	 call	 ??_V@YAXPAX@Z		; operator delete[]
  0003f	83 c4 04	 add	 esp, 4
$LN20@TiXmlDecla:
; File E:\Proyectos\JuegosOnlineproyectos\PB\pbblow\Piercing Blow Remake\i3Server\include\i3Base\tinyxml.h

; 1308 : 	virtual ~TiXmlDeclaration()	{}

  00042	8b ce		 mov	 ecx, esi
  00044	5e		 pop	 esi
  00045	e9 00 00 00 00	 jmp	 ??1TiXmlNode@@UAE@XZ	; TiXmlNode::~TiXmlNode
??1TiXmlDeclaration@@UAE@XZ ENDP			; TiXmlDeclaration::~TiXmlDeclaration
_TEXT	ENDS
; Function compile flags: /Ogtp
; File E:\Proyectos\JuegosOnlineproyectos\PB\pbblow\Piercing Blow Remake\i3Server\include\i3Base\tinyxml.h
; File E:\Proyectos\JuegosOnlineproyectos\PB\pbblow\Piercing Blow Remake\i3Server\include\i3Base\tinystr.h
; File E:\Proyectos\JuegosOnlineproyectos\PB\pbblow\Piercing Blow Remake\i3Server\include\i3Base\tinyxml.h
;	COMDAT ??0TiXmlDeclaration@@QAE@XZ
_TEXT	SEGMENT
_this$ = -4						; size = 4
??0TiXmlDeclaration@@QAE@XZ PROC			; TiXmlDeclaration::TiXmlDeclaration, COMDAT
; _this$ = ecx

; 1291 : 	TiXmlDeclaration()   : TiXmlNode( TiXmlNode::DECLARATION ) {}

  00000	55		 push	 ebp
  00001	8b ec		 mov	 ebp, esp
  00003	51		 push	 ecx
  00004	56		 push	 esi
  00005	8b f1		 mov	 esi, ecx
  00007	6a 05		 push	 5
  00009	89 75 fc	 mov	 DWORD PTR _this$[ebp], esi
  0000c	e8 00 00 00 00	 call	 ??0TiXmlNode@@IAE@W4NodeType@0@@Z ; TiXmlNode::TiXmlNode
  00011	c7 06 00 00 00
	00		 mov	 DWORD PTR [esi], OFFSET ??_7TiXmlDeclaration@@6B@
  00017	8b c6		 mov	 eax, esi
; File E:\Proyectos\JuegosOnlineproyectos\PB\pbblow\Piercing Blow Remake\i3Server\include\i3Base\tinystr.h

; 80   : 	TiXmlString () : rep_(&nullrep_)

  00019	c7 46 2c 00 00
	00 00		 mov	 DWORD PTR [esi+44], OFFSET ?nullrep_@TiXmlString@@0URep@1@A ; TiXmlString::nullrep_
  00020	c7 46 30 00 00
	00 00		 mov	 DWORD PTR [esi+48], OFFSET ?nullrep_@TiXmlString@@0URep@1@A ; TiXmlString::nullrep_
  00027	c7 46 34 00 00
	00 00		 mov	 DWORD PTR [esi+52], OFFSET ?nullrep_@TiXmlString@@0URep@1@A ; TiXmlString::nullrep_
; File E:\Proyectos\JuegosOnlineproyectos\PB\pbblow\Piercing Blow Remake\i3Server\include\i3Base\tinyxml.h

; 1291 : 	TiXmlDeclaration()   : TiXmlNode( TiXmlNode::DECLARATION ) {}

  0002e	5e		 pop	 esi
  0002f	8b e5		 mov	 esp, ebp
  00031	5d		 pop	 ebp
  00032	c3		 ret	 0
??0TiXmlDeclaration@@QAE@XZ ENDP			; TiXmlDeclaration::TiXmlDeclaration
_TEXT	ENDS
; Function compile flags: /Ogtp
; File E:\Proyectos\JuegosOnlineproyectos\PB\pbblow\Piercing Blow Remake\i3Server\include\i3Base\tinyxml.h
;	COMDAT ??_ETiXmlText@@UAEPAXI@Z
_TEXT	SEGMENT
__$EHRec$ = -12						; size = 12
___flags$ = 8						; size = 4
??_ETiXmlText@@UAEPAXI@Z PROC				; TiXmlText::`vector deleting destructor', COMDAT
; _this$ = ecx
  00000	55		 push	 ebp
  00001	8b ec		 mov	 ebp, esp
  00003	6a ff		 push	 -1
  00005	68 00 00 00 00	 push	 __ehhandler$??_ETiXmlText@@UAEPAXI@Z
  0000a	64 a1 00 00 00
	00		 mov	 eax, DWORD PTR fs:0
  00010	50		 push	 eax
  00011	53		 push	 ebx
  00012	56		 push	 esi
  00013	57		 push	 edi
  00014	a1 00 00 00 00	 mov	 eax, DWORD PTR ___security_cookie
  00019	33 c5		 xor	 eax, ebp
  0001b	50		 push	 eax
  0001c	8d 45 f4	 lea	 eax, DWORD PTR __$EHRec$[ebp]
  0001f	64 a3 00 00 00
	00		 mov	 DWORD PTR fs:0, eax
  00025	8b f1		 mov	 esi, ecx
  00027	8b 45 08	 mov	 eax, DWORD PTR ___flags$[ebp]
  0002a	8b f8		 mov	 edi, eax
  0002c	83 e7 01	 and	 edi, 1
  0002f	a8 02		 test	 al, 2
  00031	74 42		 je	 SHORT $LN2@vector
  00033	68 00 00 00 00	 push	 OFFSET ??1TiXmlText@@UAE@XZ ; TiXmlText::~TiXmlText
  00038	ff 76 fc	 push	 DWORD PTR [esi-4]
  0003b	8d 5e fc	 lea	 ebx, DWORD PTR [esi-4]
  0003e	6a 30		 push	 48			; 00000030H
  00040	56		 push	 esi
  00041	e8 00 00 00 00	 call	 ??_M@YGXPAXIIP6EX0@Z@Z
  00046	85 ff		 test	 edi, edi
  00048	74 15		 je	 SHORT $LN3@vector
  0004a	8b 0b		 mov	 ecx, DWORD PTR [ebx]
  0004c	8d 0c 49	 lea	 ecx, DWORD PTR [ecx+ecx*2]
  0004f	c1 e1 04	 shl	 ecx, 4
  00052	83 c1 04	 add	 ecx, 4
  00055	51		 push	 ecx
  00056	53		 push	 ebx
  00057	e8 00 00 00 00	 call	 ??_V@YAXPAXI@Z		; operator delete[]
  0005c	83 c4 08	 add	 esp, 8
$LN3@vector:
  0005f	8b c3		 mov	 eax, ebx
  00061	8b 4d f4	 mov	 ecx, DWORD PTR __$EHRec$[ebp]
  00064	64 89 0d 00 00
	00 00		 mov	 DWORD PTR fs:0, ecx
  0006b	59		 pop	 ecx
  0006c	5f		 pop	 edi
  0006d	5e		 pop	 esi
  0006e	5b		 pop	 ebx
  0006f	8b e5		 mov	 esp, ebp
  00071	5d		 pop	 ebp
  00072	c2 04 00	 ret	 4
$LN2@vector:

; 1227 : 	virtual ~TiXmlText() {}

  00075	c7 06 00 00 00
	00		 mov	 DWORD PTR [esi], OFFSET ??_7TiXmlText@@6B@
  0007b	e8 00 00 00 00	 call	 ??1TiXmlNode@@UAE@XZ	; TiXmlNode::~TiXmlNode
  00080	85 ff		 test	 edi, edi
  00082	74 0b		 je	 SHORT $LN4@vector
  00084	6a 30		 push	 48			; 00000030H
  00086	56		 push	 esi
  00087	e8 00 00 00 00	 call	 ??3@YAXPAXI@Z		; operator delete
  0008c	83 c4 08	 add	 esp, 8
$LN4@vector:
  0008f	8b c6		 mov	 eax, esi
  00091	8b 4d f4	 mov	 ecx, DWORD PTR __$EHRec$[ebp]
  00094	64 89 0d 00 00
	00 00		 mov	 DWORD PTR fs:0, ecx
  0009b	59		 pop	 ecx
  0009c	5f		 pop	 edi
  0009d	5e		 pop	 esi
  0009e	5b		 pop	 ebx
  0009f	8b e5		 mov	 esp, ebp
  000a1	5d		 pop	 ebp
  000a2	c2 04 00	 ret	 4
  000a5	cc		 int	 3
  000a6	cc		 int	 3
  000a7	cc		 int	 3
  000a8	cc		 int	 3
  000a9	cc		 int	 3
_TEXT	ENDS
;	COMDAT text$x
text$x	SEGMENT
__ehhandler$??_ETiXmlText@@UAEPAXI@Z:
  00000	90		 npad	 1
  00001	90		 npad	 1
  00002	8b 54 24 08	 mov	 edx, DWORD PTR [esp+8]
  00006	8d 42 0c	 lea	 eax, DWORD PTR [edx+12]
  00009	8b 4a f0	 mov	 ecx, DWORD PTR [edx-16]
  0000c	33 c8		 xor	 ecx, eax
  0000e	e8 00 00 00 00	 call	 @__security_check_cookie@4
  00013	b8 00 00 00 00	 mov	 eax, OFFSET __ehfuncinfo$??_ETiXmlText@@UAEPAXI@Z
  00018	e9 00 00 00 00	 jmp	 ___CxxFrameHandler3
text$x	ENDS
??_ETiXmlText@@UAEPAXI@Z ENDP				; TiXmlText::`vector deleting destructor'
; Function compile flags: /Ogtp
; File E:\Proyectos\JuegosOnlineproyectos\PB\pbblow\Piercing Blow Remake\i3Server\include\i3Base\tinyxml.h
;	COMDAT ??_GTiXmlText@@UAEPAXI@Z
_TEXT	SEGMENT
___flags$ = 8						; size = 4
??_GTiXmlText@@UAEPAXI@Z PROC				; TiXmlText::`scalar deleting destructor', COMDAT
; _this$ = ecx
  00000	55		 push	 ebp
  00001	8b ec		 mov	 ebp, esp

; 1227 : 	virtual ~TiXmlText() {}

  00003	56		 push	 esi
  00004	8b f1		 mov	 esi, ecx
  00006	c7 06 00 00 00
	00		 mov	 DWORD PTR [esi], OFFSET ??_7TiXmlText@@6B@
  0000c	e8 00 00 00 00	 call	 ??1TiXmlNode@@UAE@XZ	; TiXmlNode::~TiXmlNode
  00011	f6 45 08 01	 test	 BYTE PTR ___flags$[ebp], 1
  00015	74 0b		 je	 SHORT $LN10@scalar
  00017	6a 30		 push	 48			; 00000030H
  00019	56		 push	 esi
  0001a	e8 00 00 00 00	 call	 ??3@YAXPAXI@Z		; operator delete
  0001f	83 c4 08	 add	 esp, 8
$LN10@scalar:
  00022	8b c6		 mov	 eax, esi
  00024	5e		 pop	 esi
  00025	5d		 pop	 ebp
  00026	c2 04 00	 ret	 4
??_GTiXmlText@@UAEPAXI@Z ENDP				; TiXmlText::`scalar deleting destructor'
_TEXT	ENDS
; Function compile flags: /Ogtp
; File E:\Proyectos\JuegosOnlineproyectos\PB\pbblow\Piercing Blow Remake\i3Server\include\i3Base\tinyxml.h
;	COMDAT ?ToText@TiXmlText@@UAEPAV1@XZ
_TEXT	SEGMENT
?ToText@TiXmlText@@UAEPAV1@XZ PROC			; TiXmlText::ToText, COMDAT
; _this$ = ecx

; 1252 : 	virtual TiXmlText*       ToText()       { return this; } ///< Cast to a more defined type. Will return null not of the requested type.

  00000	8b c1		 mov	 eax, ecx
  00002	c3		 ret	 0
?ToText@TiXmlText@@UAEPAV1@XZ ENDP			; TiXmlText::ToText
_TEXT	ENDS
; Function compile flags: /Ogtp
; File E:\Proyectos\JuegosOnlineproyectos\PB\pbblow\Piercing Blow Remake\i3Server\include\i3Base\tinyxml.h
;	COMDAT ?ToText@TiXmlText@@UBEPBV1@XZ
_TEXT	SEGMENT
?ToText@TiXmlText@@UBEPBV1@XZ PROC			; TiXmlText::ToText, COMDAT
; _this$ = ecx

; 1251 : 	virtual const TiXmlText* ToText() const { return this; } ///< Cast to a more defined type. Will return null not of the requested type.

  00000	8b c1		 mov	 eax, ecx
  00002	c3		 ret	 0
?ToText@TiXmlText@@UBEPBV1@XZ ENDP			; TiXmlText::ToText
_TEXT	ENDS
; Function compile flags: /Ogtp
; File E:\Proyectos\JuegosOnlineproyectos\PB\pbblow\Piercing Blow Remake\i3Server\include\i3Base\tinyxml.h
;	COMDAT ?SetCDATA@TiXmlText@@QAEX_N@Z
_TEXT	SEGMENT
__cdata$ = 8						; size = 1
?SetCDATA@TiXmlText@@QAEX_N@Z PROC			; TiXmlText::SetCDATA, COMDAT
; _this$ = ecx

; 1247 : 	void SetCDATA( bool _cdata )	{ cdata = _cdata; }

  00000	55		 push	 ebp
  00001	8b ec		 mov	 ebp, esp
  00003	8a 45 08	 mov	 al, BYTE PTR __cdata$[ebp]
  00006	88 41 2c	 mov	 BYTE PTR [ecx+44], al
  00009	5d		 pop	 ebp
  0000a	c2 04 00	 ret	 4
?SetCDATA@TiXmlText@@QAEX_N@Z ENDP			; TiXmlText::SetCDATA
_TEXT	ENDS
; Function compile flags: /Ogtp
; File E:\Proyectos\JuegosOnlineproyectos\PB\pbblow\Piercing Blow Remake\i3Server\include\i3Base\tinyxml.h
;	COMDAT ?CDATA@TiXmlText@@QBE_NXZ
_TEXT	SEGMENT
?CDATA@TiXmlText@@QBE_NXZ PROC				; TiXmlText::CDATA, COMDAT
; _this$ = ecx

; 1245 : 	bool CDATA() const				{ return cdata; }

  00000	8a 41 2c	 mov	 al, BYTE PTR [ecx+44]
  00003	c3		 ret	 0
?CDATA@TiXmlText@@QBE_NXZ ENDP				; TiXmlText::CDATA
_TEXT	ENDS
; Function compile flags: /Ogtp
; File E:\Proyectos\JuegosOnlineproyectos\PB\pbblow\Piercing Blow Remake\i3Server\include\i3Base\tinyxml.h
;	COMDAT ??4TiXmlText@@QAEXABV0@@Z
_TEXT	SEGMENT
_base$ = 8						; size = 4
??4TiXmlText@@QAEXABV0@@Z PROC				; TiXmlText::operator=, COMDAT
; _this$ = ecx

; 1239 : 	void operator=( const TiXmlText& base )							 	{ base.CopyTo( this ); }

  00000	55		 push	 ebp
  00001	8b ec		 mov	 ebp, esp
  00003	51		 push	 ecx
  00004	8b 4d 08	 mov	 ecx, DWORD PTR _base$[ebp]
  00007	e8 00 00 00 00	 call	 ?CopyTo@TiXmlText@@IBEXPAV1@@Z ; TiXmlText::CopyTo
  0000c	5d		 pop	 ebp
  0000d	c2 04 00	 ret	 4
??4TiXmlText@@QAEXABV0@@Z ENDP				; TiXmlText::operator=
_TEXT	ENDS
; Function compile flags: /Ogtp
; File E:\Proyectos\JuegosOnlineproyectos\PB\pbblow\Piercing Blow Remake\i3Server\include\i3Base\tinyxml.h
;	COMDAT ??0TiXmlText@@QAE@ABV0@@Z
_TEXT	SEGMENT
_this$ = -16						; size = 4
__$EHRec$ = -12						; size = 12
_copy$ = 8						; size = 4
??0TiXmlText@@QAE@ABV0@@Z PROC				; TiXmlText::TiXmlText, COMDAT
; _this$ = ecx

; 1238 : 	TiXmlText( const TiXmlText& copy ) : TiXmlNode( TiXmlNode::TEXT )	{ copy.CopyTo( this ); }

  00000	55		 push	 ebp
  00001	8b ec		 mov	 ebp, esp
  00003	6a ff		 push	 -1
  00005	68 00 00 00 00	 push	 __ehhandler$??0TiXmlText@@QAE@ABV0@@Z
  0000a	64 a1 00 00 00
	00		 mov	 eax, DWORD PTR fs:0
  00010	50		 push	 eax
  00011	51		 push	 ecx
  00012	56		 push	 esi
  00013	a1 00 00 00 00	 mov	 eax, DWORD PTR ___security_cookie
  00018	33 c5		 xor	 eax, ebp
  0001a	50		 push	 eax
  0001b	8d 45 f4	 lea	 eax, DWORD PTR __$EHRec$[ebp]
  0001e	64 a3 00 00 00
	00		 mov	 DWORD PTR fs:0, eax
  00024	8b f1		 mov	 esi, ecx
  00026	89 75 f0	 mov	 DWORD PTR _this$[ebp], esi
  00029	6a 04		 push	 4
  0002b	e8 00 00 00 00	 call	 ??0TiXmlNode@@IAE@W4NodeType@0@@Z ; TiXmlNode::TiXmlNode
  00030	8b 4d 08	 mov	 ecx, DWORD PTR _copy$[ebp]
  00033	56		 push	 esi
  00034	c7 45 fc 00 00
	00 00		 mov	 DWORD PTR __$EHRec$[ebp+8], 0
  0003b	c7 06 00 00 00
	00		 mov	 DWORD PTR [esi], OFFSET ??_7TiXmlText@@6B@
  00041	e8 00 00 00 00	 call	 ?CopyTo@TiXmlText@@IBEXPAV1@@Z ; TiXmlText::CopyTo
  00046	8b c6		 mov	 eax, esi
  00048	8b 4d f4	 mov	 ecx, DWORD PTR __$EHRec$[ebp]
  0004b	64 89 0d 00 00
	00 00		 mov	 DWORD PTR fs:0, ecx
  00052	59		 pop	 ecx
  00053	5e		 pop	 esi
  00054	8b e5		 mov	 esp, ebp
  00056	5d		 pop	 ebp
  00057	c2 04 00	 ret	 4
_TEXT	ENDS
;	COMDAT text$x
text$x	SEGMENT
__unwindfunclet$??0TiXmlText@@QAE@ABV0@@Z$0:
  00000	8b 4d f0	 mov	 ecx, DWORD PTR _this$[ebp]
  00003	e9 00 00 00 00	 jmp	 ??1TiXmlNode@@UAE@XZ	; TiXmlNode::~TiXmlNode
  00008	cc		 int	 3
  00009	cc		 int	 3
  0000a	cc		 int	 3
  0000b	cc		 int	 3
  0000c	cc		 int	 3
__ehhandler$??0TiXmlText@@QAE@ABV0@@Z:
  0000d	90		 npad	 1
  0000e	90		 npad	 1
  0000f	8b 54 24 08	 mov	 edx, DWORD PTR [esp+8]
  00013	8d 42 0c	 lea	 eax, DWORD PTR [edx+12]
  00016	8b 4a f4	 mov	 ecx, DWORD PTR [edx-12]
  00019	33 c8		 xor	 ecx, eax
  0001b	e8 00 00 00 00	 call	 @__security_check_cookie@4
  00020	b8 00 00 00 00	 mov	 eax, OFFSET __ehfuncinfo$??0TiXmlText@@QAE@ABV0@@Z
  00025	e9 00 00 00 00	 jmp	 ___CxxFrameHandler3
text$x	ENDS
??0TiXmlText@@QAE@ABV0@@Z ENDP				; TiXmlText::TiXmlText
; Function compile flags: /Ogtp
; File E:\Proyectos\JuegosOnlineproyectos\PB\pbblow\Piercing Blow Remake\i3Server\include\i3Base\tinyxml.h
;	COMDAT ??1TiXmlText@@UAE@XZ
_TEXT	SEGMENT
??1TiXmlText@@UAE@XZ PROC				; TiXmlText::~TiXmlText, COMDAT
; _this$ = ecx

; 1227 : 	virtual ~TiXmlText() {}

  00000	c7 01 00 00 00
	00		 mov	 DWORD PTR [ecx], OFFSET ??_7TiXmlText@@6B@
  00006	e9 00 00 00 00	 jmp	 ??1TiXmlNode@@UAE@XZ	; TiXmlNode::~TiXmlNode
??1TiXmlText@@UAE@XZ ENDP				; TiXmlText::~TiXmlText
_TEXT	ENDS
; Function compile flags: /Ogtp
; File E:\Proyectos\JuegosOnlineproyectos\PB\pbblow\Piercing Blow Remake\i3Server\include\i3Base\tinyxml.h
; File E:\Proyectos\JuegosOnlineproyectos\PB\pbblow\Piercing Blow Remake\i3Server\include\i3Base\tinystr.h
; File E:\Proyectos\JuegosOnlineproyectos\PB\pbblow\Piercing Blow Remake\i3Server\include\i3Base\tinyxml.h
; File E:\Proyectos\JuegosOnlineproyectos\PB\pbblow\Piercing Blow Remake\i3Server\include\i3Base\tinystr.h
; File E:\Proyectos\JuegosOnlineproyectos\PB\pbblow\Piercing Blow Remake\i3Server\include\i3Base\tinyxml.h
; File E:\Proyectos\JuegosOnlineproyectos\PB\pbblow\Piercing Blow Remake\i3Server\include\i3Base\tinystr.h
; File E:\Proyectos\JuegosOnlineproyectos\PB\pbblow\Piercing Blow Remake\i3Server\include\i3Base\tinyxml.h
;	COMDAT ??0TiXmlText@@QAE@PBD@Z
_TEXT	SEGMENT
_this$ = -16						; size = 4
__$EHRec$ = -12						; size = 12
_initValue$ = 8						; size = 4
??0TiXmlText@@QAE@PBD@Z PROC				; TiXmlText::TiXmlText, COMDAT
; _this$ = ecx

; 1223 : 	{

  00000	55		 push	 ebp
  00001	8b ec		 mov	 ebp, esp
  00003	6a ff		 push	 -1
  00005	68 00 00 00 00	 push	 __ehhandler$??0TiXmlText@@QAE@PBD@Z
  0000a	64 a1 00 00 00
	00		 mov	 eax, DWORD PTR fs:0
  00010	50		 push	 eax
  00011	51		 push	 ecx
  00012	56		 push	 esi
  00013	57		 push	 edi
  00014	a1 00 00 00 00	 mov	 eax, DWORD PTR ___security_cookie
  00019	33 c5		 xor	 eax, ebp
  0001b	50		 push	 eax
  0001c	8d 45 f4	 lea	 eax, DWORD PTR __$EHRec$[ebp]
  0001f	64 a3 00 00 00
	00		 mov	 DWORD PTR fs:0, eax
  00025	8b f1		 mov	 esi, ecx
  00027	89 75 f0	 mov	 DWORD PTR _this$[ebp], esi

; 1222 : 	TiXmlText (const char * initValue ) : TiXmlNode (TiXmlNode::TEXT)

  0002a	6a 04		 push	 4
  0002c	e8 00 00 00 00	 call	 ??0TiXmlNode@@IAE@W4NodeType@0@@Z ; TiXmlNode::TiXmlNode
; File E:\Proyectos\JuegosOnlineproyectos\PB\pbblow\Piercing Blow Remake\i3Server\include\i3Base\tinystr.h

; 114  : 		return assign( copy, (size_type)strlen(copy));

  00031	8b 55 08	 mov	 edx, DWORD PTR _initValue$[ebp]
  00034	8b c2		 mov	 eax, edx
; File E:\Proyectos\JuegosOnlineproyectos\PB\pbblow\Piercing Blow Remake\i3Server\include\i3Base\tinyxml.h

; 1222 : 	TiXmlText (const char * initValue ) : TiXmlNode (TiXmlNode::TEXT)

  00036	c7 45 fc 00 00
	00 00		 mov	 DWORD PTR __$EHRec$[ebp+8], 0

; 1223 : 	{

  0003d	c7 06 00 00 00
	00		 mov	 DWORD PTR [esi], OFFSET ??_7TiXmlText@@6B@
; File E:\Proyectos\JuegosOnlineproyectos\PB\pbblow\Piercing Blow Remake\i3Server\include\i3Base\tinystr.h

; 114  : 		return assign( copy, (size_type)strlen(copy));

  00043	8d 78 01	 lea	 edi, DWORD PTR [eax+1]
$LL8@TiXmlText:
  00046	8a 08		 mov	 cl, BYTE PTR [eax]
  00048	40		 inc	 eax
  00049	84 c9		 test	 cl, cl
  0004b	75 f9		 jne	 SHORT $LL8@TiXmlText
  0004d	2b c7		 sub	 eax, edi
; File E:\Proyectos\JuegosOnlineproyectos\PB\pbblow\Piercing Blow Remake\i3Server\include\i3Base\tinyxml.h

; 512  : 	void SetValue(const char * _value) { value = _value;}

  0004f	8d 4e 20	 lea	 ecx, DWORD PTR [esi+32]
; File E:\Proyectos\JuegosOnlineproyectos\PB\pbblow\Piercing Blow Remake\i3Server\include\i3Base\tinystr.h

; 114  : 		return assign( copy, (size_type)strlen(copy));

  00052	50		 push	 eax
  00053	52		 push	 edx
  00054	e8 00 00 00 00	 call	 ?assign@TiXmlString@@QAEAAV1@PBDI@Z ; TiXmlString::assign
; File E:\Proyectos\JuegosOnlineproyectos\PB\pbblow\Piercing Blow Remake\i3Server\include\i3Base\tinyxml.h

; 1225 : 		cdata = false;

  00059	c6 46 2c 00	 mov	 BYTE PTR [esi+44], 0

; 1226 : 	}

  0005d	8b c6		 mov	 eax, esi
  0005f	8b 4d f4	 mov	 ecx, DWORD PTR __$EHRec$[ebp]
  00062	64 89 0d 00 00
	00 00		 mov	 DWORD PTR fs:0, ecx
  00069	59		 pop	 ecx
  0006a	5f		 pop	 edi
  0006b	5e		 pop	 esi
  0006c	8b e5		 mov	 esp, ebp
  0006e	5d		 pop	 ebp
  0006f	c2 04 00	 ret	 4
_TEXT	ENDS
;	COMDAT text$x
text$x	SEGMENT
__unwindfunclet$??0TiXmlText@@QAE@PBD@Z$0:
  00000	8b 4d f0	 mov	 ecx, DWORD PTR _this$[ebp]
  00003	e9 00 00 00 00	 jmp	 ??1TiXmlNode@@UAE@XZ	; TiXmlNode::~TiXmlNode
  00008	cc		 int	 3
  00009	cc		 int	 3
  0000a	cc		 int	 3
  0000b	cc		 int	 3
  0000c	cc		 int	 3
__ehhandler$??0TiXmlText@@QAE@PBD@Z:
  0000d	90		 npad	 1
  0000e	90		 npad	 1
  0000f	8b 54 24 08	 mov	 edx, DWORD PTR [esp+8]
  00013	8d 42 0c	 lea	 eax, DWORD PTR [edx+12]
  00016	8b 4a f0	 mov	 ecx, DWORD PTR [edx-16]
  00019	33 c8		 xor	 ecx, eax
  0001b	e8 00 00 00 00	 call	 @__security_check_cookie@4
  00020	b8 00 00 00 00	 mov	 eax, OFFSET __ehfuncinfo$??0TiXmlText@@QAE@PBD@Z
  00025	e9 00 00 00 00	 jmp	 ___CxxFrameHandler3
text$x	ENDS
??0TiXmlText@@QAE@PBD@Z ENDP				; TiXmlText::TiXmlText
; Function compile flags: /Ogtp
; File E:\Proyectos\JuegosOnlineproyectos\PB\pbblow\Piercing Blow Remake\i3Server\include\i3Base\tinyxml.h
;	COMDAT ??_ETiXmlComment@@UAEPAXI@Z
_TEXT	SEGMENT
__$EHRec$ = -12						; size = 12
___flags$ = 8						; size = 4
??_ETiXmlComment@@UAEPAXI@Z PROC			; TiXmlComment::`vector deleting destructor', COMDAT
; _this$ = ecx
  00000	55		 push	 ebp
  00001	8b ec		 mov	 ebp, esp
  00003	6a ff		 push	 -1
  00005	68 00 00 00 00	 push	 __ehhandler$??_ETiXmlComment@@UAEPAXI@Z
  0000a	64 a1 00 00 00
	00		 mov	 eax, DWORD PTR fs:0
  00010	50		 push	 eax
  00011	53		 push	 ebx
  00012	56		 push	 esi
  00013	57		 push	 edi
  00014	a1 00 00 00 00	 mov	 eax, DWORD PTR ___security_cookie
  00019	33 c5		 xor	 eax, ebp
  0001b	50		 push	 eax
  0001c	8d 45 f4	 lea	 eax, DWORD PTR __$EHRec$[ebp]
  0001f	64 a3 00 00 00
	00		 mov	 DWORD PTR fs:0, eax
  00025	8b f1		 mov	 esi, ecx
  00027	8b 45 08	 mov	 eax, DWORD PTR ___flags$[ebp]
  0002a	8b f8		 mov	 edi, eax
  0002c	83 e7 01	 and	 edi, 1
  0002f	a8 02		 test	 al, 2
  00031	74 3d		 je	 SHORT $LN2@vector
  00033	68 00 00 00 00	 push	 OFFSET ??1TiXmlComment@@UAE@XZ ; TiXmlComment::~TiXmlComment
  00038	ff 76 fc	 push	 DWORD PTR [esi-4]
  0003b	8d 5e fc	 lea	 ebx, DWORD PTR [esi-4]
  0003e	6a 2c		 push	 44			; 0000002cH
  00040	56		 push	 esi
  00041	e8 00 00 00 00	 call	 ??_M@YGXPAXIIP6EX0@Z@Z
  00046	85 ff		 test	 edi, edi
  00048	74 10		 je	 SHORT $LN3@vector
  0004a	6b 0b 2c	 imul	 ecx, DWORD PTR [ebx], 44
  0004d	83 c1 04	 add	 ecx, 4
  00050	51		 push	 ecx
  00051	53		 push	 ebx
  00052	e8 00 00 00 00	 call	 ??_V@YAXPAXI@Z		; operator delete[]
  00057	83 c4 08	 add	 esp, 8
$LN3@vector:
  0005a	8b c3		 mov	 eax, ebx
  0005c	8b 4d f4	 mov	 ecx, DWORD PTR __$EHRec$[ebp]
  0005f	64 89 0d 00 00
	00 00		 mov	 DWORD PTR fs:0, ecx
  00066	59		 pop	 ecx
  00067	5f		 pop	 edi
  00068	5e		 pop	 esi
  00069	5b		 pop	 ebx
  0006a	8b e5		 mov	 esp, ebp
  0006c	5d		 pop	 ebp
  0006d	c2 04 00	 ret	 4
$LN2@vector:

; 1176 : 	virtual ~TiXmlComment()	{}

  00070	c7 06 00 00 00
	00		 mov	 DWORD PTR [esi], OFFSET ??_7TiXmlComment@@6B@
  00076	e8 00 00 00 00	 call	 ??1TiXmlNode@@UAE@XZ	; TiXmlNode::~TiXmlNode
  0007b	85 ff		 test	 edi, edi
  0007d	74 0b		 je	 SHORT $LN4@vector
  0007f	6a 2c		 push	 44			; 0000002cH
  00081	56		 push	 esi
  00082	e8 00 00 00 00	 call	 ??3@YAXPAXI@Z		; operator delete
  00087	83 c4 08	 add	 esp, 8
$LN4@vector:
  0008a	8b c6		 mov	 eax, esi
  0008c	8b 4d f4	 mov	 ecx, DWORD PTR __$EHRec$[ebp]
  0008f	64 89 0d 00 00
	00 00		 mov	 DWORD PTR fs:0, ecx
  00096	59		 pop	 ecx
  00097	5f		 pop	 edi
  00098	5e		 pop	 esi
  00099	5b		 pop	 ebx
  0009a	8b e5		 mov	 esp, ebp
  0009c	5d		 pop	 ebp
  0009d	c2 04 00	 ret	 4
  000a0	cc		 int	 3
  000a1	cc		 int	 3
  000a2	cc		 int	 3
  000a3	cc		 int	 3
  000a4	cc		 int	 3
_TEXT	ENDS
;	COMDAT text$x
text$x	SEGMENT
__ehhandler$??_ETiXmlComment@@UAEPAXI@Z:
  00000	90		 npad	 1
  00001	90		 npad	 1
  00002	8b 54 24 08	 mov	 edx, DWORD PTR [esp+8]
  00006	8d 42 0c	 lea	 eax, DWORD PTR [edx+12]
  00009	8b 4a f0	 mov	 ecx, DWORD PTR [edx-16]
  0000c	33 c8		 xor	 ecx, eax
  0000e	e8 00 00 00 00	 call	 @__security_check_cookie@4
  00013	b8 00 00 00 00	 mov	 eax, OFFSET __ehfuncinfo$??_ETiXmlComment@@UAEPAXI@Z
  00018	e9 00 00 00 00	 jmp	 ___CxxFrameHandler3
text$x	ENDS
??_ETiXmlComment@@UAEPAXI@Z ENDP			; TiXmlComment::`vector deleting destructor'
; Function compile flags: /Ogtp
; File E:\Proyectos\JuegosOnlineproyectos\PB\pbblow\Piercing Blow Remake\i3Server\include\i3Base\tinyxml.h
;	COMDAT ??_GTiXmlComment@@UAEPAXI@Z
_TEXT	SEGMENT
___flags$ = 8						; size = 4
??_GTiXmlComment@@UAEPAXI@Z PROC			; TiXmlComment::`scalar deleting destructor', COMDAT
; _this$ = ecx
  00000	55		 push	 ebp
  00001	8b ec		 mov	 ebp, esp

; 1176 : 	virtual ~TiXmlComment()	{}

  00003	56		 push	 esi
  00004	8b f1		 mov	 esi, ecx
  00006	c7 06 00 00 00
	00		 mov	 DWORD PTR [esi], OFFSET ??_7TiXmlComment@@6B@
  0000c	e8 00 00 00 00	 call	 ??1TiXmlNode@@UAE@XZ	; TiXmlNode::~TiXmlNode
  00011	f6 45 08 01	 test	 BYTE PTR ___flags$[ebp], 1
  00015	74 0b		 je	 SHORT $LN10@scalar
  00017	6a 2c		 push	 44			; 0000002cH
  00019	56		 push	 esi
  0001a	e8 00 00 00 00	 call	 ??3@YAXPAXI@Z		; operator delete
  0001f	83 c4 08	 add	 esp, 8
$LN10@scalar:
  00022	8b c6		 mov	 eax, esi
  00024	5e		 pop	 esi
  00025	5d		 pop	 ebp
  00026	c2 04 00	 ret	 4
??_GTiXmlComment@@UAEPAXI@Z ENDP			; TiXmlComment::`scalar deleting destructor'
_TEXT	ENDS
; Function compile flags: /Ogtp
; File E:\Proyectos\JuegosOnlineproyectos\PB\pbblow\Piercing Blow Remake\i3Server\include\i3Base\tinyxml.h
;	COMDAT ?ToComment@TiXmlComment@@UAEPAV1@XZ
_TEXT	SEGMENT
?ToComment@TiXmlComment@@UAEPAV1@XZ PROC		; TiXmlComment::ToComment, COMDAT
; _this$ = ecx

; 1189 : 	virtual TiXmlComment*  ToComment() { return this; } ///< Cast to a more defined type. Will return null not of the requested type.

  00000	8b c1		 mov	 eax, ecx
  00002	c3		 ret	 0
?ToComment@TiXmlComment@@UAEPAV1@XZ ENDP		; TiXmlComment::ToComment
_TEXT	ENDS
; Function compile flags: /Ogtp
; File E:\Proyectos\JuegosOnlineproyectos\PB\pbblow\Piercing Blow Remake\i3Server\include\i3Base\tinyxml.h
;	COMDAT ?ToComment@TiXmlComment@@UBEPBV1@XZ
_TEXT	SEGMENT
?ToComment@TiXmlComment@@UBEPBV1@XZ PROC		; TiXmlComment::ToComment, COMDAT
; _this$ = ecx

; 1188 : 	virtual const TiXmlComment*  ToComment() const { return this; } ///< Cast to a more defined type. Will return null not of the requested type.

  00000	8b c1		 mov	 eax, ecx
  00002	c3		 ret	 0
?ToComment@TiXmlComment@@UBEPBV1@XZ ENDP		; TiXmlComment::ToComment
_TEXT	ENDS
; Function compile flags: /Ogtp
; File E:\Proyectos\JuegosOnlineproyectos\PB\pbblow\Piercing Blow Remake\i3Server\include\i3Base\tinyxml.h
;	COMDAT ??1TiXmlComment@@UAE@XZ
_TEXT	SEGMENT
??1TiXmlComment@@UAE@XZ PROC				; TiXmlComment::~TiXmlComment, COMDAT
; _this$ = ecx

; 1176 : 	virtual ~TiXmlComment()	{}

  00000	c7 01 00 00 00
	00		 mov	 DWORD PTR [ecx], OFFSET ??_7TiXmlComment@@6B@
  00006	e9 00 00 00 00	 jmp	 ??1TiXmlNode@@UAE@XZ	; TiXmlNode::~TiXmlNode
??1TiXmlComment@@UAE@XZ ENDP				; TiXmlComment::~TiXmlComment
_TEXT	ENDS
; Function compile flags: /Ogtp
; File E:\Proyectos\JuegosOnlineproyectos\PB\pbblow\Piercing Blow Remake\i3Server\include\i3Base\tinyxml.h
; File E:\Proyectos\JuegosOnlineproyectos\PB\pbblow\Piercing Blow Remake\i3Server\include\i3Base\tinystr.h
; File E:\Proyectos\JuegosOnlineproyectos\PB\pbblow\Piercing Blow Remake\i3Server\include\i3Base\tinyxml.h
; File E:\Proyectos\JuegosOnlineproyectos\PB\pbblow\Piercing Blow Remake\i3Server\include\i3Base\tinystr.h
; File E:\Proyectos\JuegosOnlineproyectos\PB\pbblow\Piercing Blow Remake\i3Server\include\i3Base\tinyxml.h
; File E:\Proyectos\JuegosOnlineproyectos\PB\pbblow\Piercing Blow Remake\i3Server\include\i3Base\tinystr.h
; File E:\Proyectos\JuegosOnlineproyectos\PB\pbblow\Piercing Blow Remake\i3Server\include\i3Base\tinyxml.h
;	COMDAT ??0TiXmlComment@@QAE@PBD@Z
_TEXT	SEGMENT
_this$ = -16						; size = 4
__$EHRec$ = -12						; size = 12
__value$ = 8						; size = 4
??0TiXmlComment@@QAE@PBD@Z PROC				; TiXmlComment::TiXmlComment, COMDAT
; _this$ = ecx

; 1170 : 	TiXmlComment( const char* _value ) : TiXmlNode( TiXmlNode::COMMENT ) {

  00000	55		 push	 ebp
  00001	8b ec		 mov	 ebp, esp
  00003	6a ff		 push	 -1
  00005	68 00 00 00 00	 push	 __ehhandler$??0TiXmlComment@@QAE@PBD@Z
  0000a	64 a1 00 00 00
	00		 mov	 eax, DWORD PTR fs:0
  00010	50		 push	 eax
  00011	51		 push	 ecx
  00012	56		 push	 esi
  00013	57		 push	 edi
  00014	a1 00 00 00 00	 mov	 eax, DWORD PTR ___security_cookie
  00019	33 c5		 xor	 eax, ebp
  0001b	50		 push	 eax
  0001c	8d 45 f4	 lea	 eax, DWORD PTR __$EHRec$[ebp]
  0001f	64 a3 00 00 00
	00		 mov	 DWORD PTR fs:0, eax
  00025	8b f1		 mov	 esi, ecx
  00027	89 75 f0	 mov	 DWORD PTR _this$[ebp], esi
  0002a	6a 02		 push	 2
  0002c	e8 00 00 00 00	 call	 ??0TiXmlNode@@IAE@W4NodeType@0@@Z ; TiXmlNode::TiXmlNode
; File E:\Proyectos\JuegosOnlineproyectos\PB\pbblow\Piercing Blow Remake\i3Server\include\i3Base\tinystr.h

; 114  : 		return assign( copy, (size_type)strlen(copy));

  00031	8b 55 08	 mov	 edx, DWORD PTR __value$[ebp]
  00034	8b c2		 mov	 eax, edx
; File E:\Proyectos\JuegosOnlineproyectos\PB\pbblow\Piercing Blow Remake\i3Server\include\i3Base\tinyxml.h

; 1170 : 	TiXmlComment( const char* _value ) : TiXmlNode( TiXmlNode::COMMENT ) {

  00036	c7 45 fc 00 00
	00 00		 mov	 DWORD PTR __$EHRec$[ebp+8], 0
  0003d	c7 06 00 00 00
	00		 mov	 DWORD PTR [esi], OFFSET ??_7TiXmlComment@@6B@
; File E:\Proyectos\JuegosOnlineproyectos\PB\pbblow\Piercing Blow Remake\i3Server\include\i3Base\tinystr.h

; 114  : 		return assign( copy, (size_type)strlen(copy));

  00043	8d 78 01	 lea	 edi, DWORD PTR [eax+1]
$LL8@TiXmlComme:
  00046	8a 08		 mov	 cl, BYTE PTR [eax]
  00048	40		 inc	 eax
  00049	84 c9		 test	 cl, cl
  0004b	75 f9		 jne	 SHORT $LL8@TiXmlComme
  0004d	2b c7		 sub	 eax, edi
; File E:\Proyectos\JuegosOnlineproyectos\PB\pbblow\Piercing Blow Remake\i3Server\include\i3Base\tinyxml.h

; 512  : 	void SetValue(const char * _value) { value = _value;}

  0004f	8d 4e 20	 lea	 ecx, DWORD PTR [esi+32]
; File E:\Proyectos\JuegosOnlineproyectos\PB\pbblow\Piercing Blow Remake\i3Server\include\i3Base\tinystr.h

; 114  : 		return assign( copy, (size_type)strlen(copy));

  00052	50		 push	 eax
  00053	52		 push	 edx
  00054	e8 00 00 00 00	 call	 ?assign@TiXmlString@@QAEAAV1@PBDI@Z ; TiXmlString::assign
; File E:\Proyectos\JuegosOnlineproyectos\PB\pbblow\Piercing Blow Remake\i3Server\include\i3Base\tinyxml.h

; 1172 : 	}

  00059	8b c6		 mov	 eax, esi
  0005b	8b 4d f4	 mov	 ecx, DWORD PTR __$EHRec$[ebp]
  0005e	64 89 0d 00 00
	00 00		 mov	 DWORD PTR fs:0, ecx
  00065	59		 pop	 ecx
  00066	5f		 pop	 edi
  00067	5e		 pop	 esi
  00068	8b e5		 mov	 esp, ebp
  0006a	5d		 pop	 ebp
  0006b	c2 04 00	 ret	 4
_TEXT	ENDS
;	COMDAT text$x
text$x	SEGMENT
__unwindfunclet$??0TiXmlComment@@QAE@PBD@Z$0:
  00000	8b 4d f0	 mov	 ecx, DWORD PTR _this$[ebp]
  00003	e9 00 00 00 00	 jmp	 ??1TiXmlNode@@UAE@XZ	; TiXmlNode::~TiXmlNode
  00008	cc		 int	 3
  00009	cc		 int	 3
  0000a	cc		 int	 3
  0000b	cc		 int	 3
  0000c	cc		 int	 3
__ehhandler$??0TiXmlComment@@QAE@PBD@Z:
  0000d	90		 npad	 1
  0000e	90		 npad	 1
  0000f	8b 54 24 08	 mov	 edx, DWORD PTR [esp+8]
  00013	8d 42 0c	 lea	 eax, DWORD PTR [edx+12]
  00016	8b 4a f0	 mov	 ecx, DWORD PTR [edx-16]
  00019	33 c8		 xor	 ecx, eax
  0001b	e8 00 00 00 00	 call	 @__security_check_cookie@4
  00020	b8 00 00 00 00	 mov	 eax, OFFSET __ehfuncinfo$??0TiXmlComment@@QAE@PBD@Z
  00025	e9 00 00 00 00	 jmp	 ___CxxFrameHandler3
text$x	ENDS
??0TiXmlComment@@QAE@PBD@Z ENDP				; TiXmlComment::TiXmlComment
; Function compile flags: /Ogtp
; File E:\Proyectos\JuegosOnlineproyectos\PB\pbblow\Piercing Blow Remake\i3Server\include\i3Base\tinyxml.h
;	COMDAT ??0TiXmlComment@@QAE@XZ
_TEXT	SEGMENT
_this$ = -4						; size = 4
??0TiXmlComment@@QAE@XZ PROC				; TiXmlComment::TiXmlComment, COMDAT
; _this$ = ecx

; 1168 : 	TiXmlComment() : TiXmlNode( TiXmlNode::COMMENT ) {}

  00000	55		 push	 ebp
  00001	8b ec		 mov	 ebp, esp
  00003	51		 push	 ecx
  00004	56		 push	 esi
  00005	8b f1		 mov	 esi, ecx
  00007	6a 02		 push	 2
  00009	89 75 fc	 mov	 DWORD PTR _this$[ebp], esi
  0000c	e8 00 00 00 00	 call	 ??0TiXmlNode@@IAE@W4NodeType@0@@Z ; TiXmlNode::TiXmlNode
  00011	c7 06 00 00 00
	00		 mov	 DWORD PTR [esi], OFFSET ??_7TiXmlComment@@6B@
  00017	8b c6		 mov	 eax, esi
  00019	5e		 pop	 esi
  0001a	8b e5		 mov	 esp, ebp
  0001c	5d		 pop	 ebp
  0001d	c3		 ret	 0
??0TiXmlComment@@QAE@XZ ENDP				; TiXmlComment::TiXmlComment
_TEXT	ENDS
; Function compile flags: /Ogtp
; File E:\Proyectos\JuegosOnlineproyectos\PB\pbblow\Piercing Blow Remake\i3Server\include\i3Base\tinyxml.h
;	COMDAT ?ToElement@TiXmlElement@@UAEPAV1@XZ
_TEXT	SEGMENT
?ToElement@TiXmlElement@@UAEPAV1@XZ PROC		; TiXmlElement::ToElement, COMDAT
; _this$ = ecx

; 1135 : 	virtual TiXmlElement*           ToElement()	          { return this; } ///< Cast to a more defined type. Will return null not of the requested type.

  00000	8b c1		 mov	 eax, ecx
  00002	c3		 ret	 0
?ToElement@TiXmlElement@@UAEPAV1@XZ ENDP		; TiXmlElement::ToElement
_TEXT	ENDS
; Function compile flags: /Ogtp
; File E:\Proyectos\JuegosOnlineproyectos\PB\pbblow\Piercing Blow Remake\i3Server\include\i3Base\tinyxml.h
;	COMDAT ?ToElement@TiXmlElement@@UBEPBV1@XZ
_TEXT	SEGMENT
?ToElement@TiXmlElement@@UBEPBV1@XZ PROC		; TiXmlElement::ToElement, COMDAT
; _this$ = ecx

; 1134 : 	virtual const TiXmlElement*     ToElement()     const { return this; } ///< Cast to a more defined type. Will return null not of the requested type.

  00000	8b c1		 mov	 eax, ecx
  00002	c3		 ret	 0
?ToElement@TiXmlElement@@UBEPBV1@XZ ENDP		; TiXmlElement::ToElement
_TEXT	ENDS
; Function compile flags: /Ogtp
; File E:\Proyectos\JuegosOnlineproyectos\PB\pbblow\Piercing Blow Remake\i3Server\include\i3Base\tinyxml.h
;	COMDAT ?LastAttribute@TiXmlElement@@QAEPAVTiXmlAttribute@@XZ
_TEXT	SEGMENT
?LastAttribute@TiXmlElement@@QAEPAVTiXmlAttribute@@XZ PROC ; TiXmlElement::LastAttribute, COMDAT
; _this$ = ecx

; 919  : 	TiXmlAttribute* Last()					{ return ( sentinel.prev == &sentinel ) ? 0 : sentinel.prev; }

  00000	8b 41 48	 mov	 eax, DWORD PTR [ecx+72]

; 1088 : 	TiXmlAttribute* LastAttribute()					{ return attributeSet.Last(); }

  00003	83 c1 2c	 add	 ecx, 44			; 0000002cH

; 919  : 	TiXmlAttribute* Last()					{ return ( sentinel.prev == &sentinel ) ? 0 : sentinel.prev; }

  00006	33 d2		 xor	 edx, edx
  00008	3b c1		 cmp	 eax, ecx
  0000a	0f 44 c2	 cmove	 eax, edx

; 1088 : 	TiXmlAttribute* LastAttribute()					{ return attributeSet.Last(); }

  0000d	c3		 ret	 0
?LastAttribute@TiXmlElement@@QAEPAVTiXmlAttribute@@XZ ENDP ; TiXmlElement::LastAttribute
_TEXT	ENDS
; Function compile flags: /Ogtp
; File E:\Proyectos\JuegosOnlineproyectos\PB\pbblow\Piercing Blow Remake\i3Server\include\i3Base\tinyxml.h
;	COMDAT ?LastAttribute@TiXmlElement@@QBEPBVTiXmlAttribute@@XZ
_TEXT	SEGMENT
?LastAttribute@TiXmlElement@@QBEPBVTiXmlAttribute@@XZ PROC ; TiXmlElement::LastAttribute, COMDAT
; _this$ = ecx

; 918  : 	const TiXmlAttribute* Last() const		{ return ( sentinel.prev == &sentinel ) ? 0 : sentinel.prev; }

  00000	8b 41 48	 mov	 eax, DWORD PTR [ecx+72]

; 1087 : 	const TiXmlAttribute* LastAttribute()	const 	{ return attributeSet.Last(); }		///< Access the last attribute in this element.

  00003	83 c1 2c	 add	 ecx, 44			; 0000002cH

; 918  : 	const TiXmlAttribute* Last() const		{ return ( sentinel.prev == &sentinel ) ? 0 : sentinel.prev; }

  00006	33 d2		 xor	 edx, edx
  00008	3b c1		 cmp	 eax, ecx
  0000a	0f 44 c2	 cmove	 eax, edx

; 1087 : 	const TiXmlAttribute* LastAttribute()	const 	{ return attributeSet.Last(); }		///< Access the last attribute in this element.

  0000d	c3		 ret	 0
?LastAttribute@TiXmlElement@@QBEPBVTiXmlAttribute@@XZ ENDP ; TiXmlElement::LastAttribute
_TEXT	ENDS
; Function compile flags: /Ogtp
; File E:\Proyectos\JuegosOnlineproyectos\PB\pbblow\Piercing Blow Remake\i3Server\include\i3Base\tinyxml.h
;	COMDAT ?FirstAttribute@TiXmlElement@@QAEPAVTiXmlAttribute@@XZ
_TEXT	SEGMENT
?FirstAttribute@TiXmlElement@@QAEPAVTiXmlAttribute@@XZ PROC ; TiXmlElement::FirstAttribute, COMDAT
; _this$ = ecx

; 917  : 	TiXmlAttribute* First()					{ return ( sentinel.next == &sentinel ) ? 0 : sentinel.next; }

  00000	8b 41 4c	 mov	 eax, DWORD PTR [ecx+76]

; 1086 : 	TiXmlAttribute* FirstAttribute() 				{ return attributeSet.First(); }

  00003	83 c1 2c	 add	 ecx, 44			; 0000002cH

; 917  : 	TiXmlAttribute* First()					{ return ( sentinel.next == &sentinel ) ? 0 : sentinel.next; }

  00006	33 d2		 xor	 edx, edx
  00008	3b c1		 cmp	 eax, ecx
  0000a	0f 44 c2	 cmove	 eax, edx

; 1086 : 	TiXmlAttribute* FirstAttribute() 				{ return attributeSet.First(); }

  0000d	c3		 ret	 0
?FirstAttribute@TiXmlElement@@QAEPAVTiXmlAttribute@@XZ ENDP ; TiXmlElement::FirstAttribute
_TEXT	ENDS
; Function compile flags: /Ogtp
; File E:\Proyectos\JuegosOnlineproyectos\PB\pbblow\Piercing Blow Remake\i3Server\include\i3Base\tinyxml.h
;	COMDAT ?FirstAttribute@TiXmlElement@@QBEPBVTiXmlAttribute@@XZ
_TEXT	SEGMENT
?FirstAttribute@TiXmlElement@@QBEPBVTiXmlAttribute@@XZ PROC ; TiXmlElement::FirstAttribute, COMDAT
; _this$ = ecx

; 916  : 	const TiXmlAttribute* First()	const	{ return ( sentinel.next == &sentinel ) ? 0 : sentinel.next; }

  00000	8b 41 4c	 mov	 eax, DWORD PTR [ecx+76]

; 1085 : 	const TiXmlAttribute* FirstAttribute() const	{ return attributeSet.First(); }		///< Access the first attribute in this element.

  00003	83 c1 2c	 add	 ecx, 44			; 0000002cH

; 916  : 	const TiXmlAttribute* First()	const	{ return ( sentinel.next == &sentinel ) ? 0 : sentinel.next; }

  00006	33 d2		 xor	 edx, edx
  00008	3b c1		 cmp	 eax, ecx
  0000a	0f 44 c2	 cmove	 eax, edx

; 1085 : 	const TiXmlAttribute* FirstAttribute() const	{ return attributeSet.First(); }		///< Access the first attribute in this element.

  0000d	c3		 ret	 0
?FirstAttribute@TiXmlElement@@QBEPBVTiXmlAttribute@@XZ ENDP ; TiXmlElement::FirstAttribute
_TEXT	ENDS
; Function compile flags: /Ogtp
; File E:\Proyectos\JuegosOnlineproyectos\PB\pbblow\Piercing Blow Remake\i3Server\include\i3Base\tinyxml.h
;	COMDAT ?QueryFloatAttribute@TiXmlElement@@QBEHPBDPAM@Z
_TEXT	SEGMENT
_d$ = -8						; size = 8
_name$ = 8						; size = 4
__value$ = 12						; size = 4
?QueryFloatAttribute@TiXmlElement@@QBEHPBDPAM@Z PROC	; TiXmlElement::QueryFloatAttribute, COMDAT
; _this$ = ecx

; 999  : 	int QueryFloatAttribute( const char* name, float* _value ) const {

  00000	55		 push	 ebp
  00001	8b ec		 mov	 ebp, esp
  00003	83 ec 08	 sub	 esp, 8

; 1000 : 		double d;
; 1001 : 		int result = QueryDoubleAttribute( name, &d );

  00006	8d 45 f8	 lea	 eax, DWORD PTR _d$[ebp]
  00009	50		 push	 eax
  0000a	ff 75 08	 push	 DWORD PTR _name$[ebp]
  0000d	e8 00 00 00 00	 call	 ?QueryDoubleAttribute@TiXmlElement@@QBEHPBDPAN@Z ; TiXmlElement::QueryDoubleAttribute

; 1002 : 		if ( result == TIXML_SUCCESS ) {

  00012	85 c0		 test	 eax, eax
  00014	75 08		 jne	 SHORT $LN2@QueryFloat

; 1003 : 			*_value = (float)d;

  00016	8b 4d 0c	 mov	 ecx, DWORD PTR __value$[ebp]
  00019	dd 45 f8	 fld	 QWORD PTR _d$[ebp]
  0001c	d9 19		 fstp	 DWORD PTR [ecx]
$LN2@QueryFloat:

; 1004 : 		}
; 1005 : 		return result;
; 1006 : 	}

  0001e	8b e5		 mov	 esp, ebp
  00020	5d		 pop	 ebp
  00021	c2 08 00	 ret	 8
?QueryFloatAttribute@TiXmlElement@@QBEHPBDPAM@Z ENDP	; TiXmlElement::QueryFloatAttribute
_TEXT	ENDS
; Function compile flags: /Ogtp
; File E:\Proyectos\JuegosOnlineproyectos\PB\pbblow\Piercing Blow Remake\i3Server\include\i3Base\tinyxml.h
;	COMDAT ?Find@TiXmlAttributeSet@@QAEPAVTiXmlAttribute@@PBD@Z
_TEXT	SEGMENT
__name$ = 8						; size = 4
?Find@TiXmlAttributeSet@@QAEPAVTiXmlAttribute@@PBD@Z PROC ; TiXmlAttributeSet::Find, COMDAT
; _this$ = ecx

; 922  : 	TiXmlAttribute*	Find( const char* _name ) {

  00000	55		 push	 ebp
  00001	8b ec		 mov	 ebp, esp

; 924  : 	}

  00003	5d		 pop	 ebp

; 923  : 		return const_cast< TiXmlAttribute* >( (const_cast< const TiXmlAttributeSet* >(this))->Find( _name ) );

  00004	e9 00 00 00 00	 jmp	 ?Find@TiXmlAttributeSet@@QBEPBVTiXmlAttribute@@PBD@Z ; TiXmlAttributeSet::Find
?Find@TiXmlAttributeSet@@QAEPAVTiXmlAttribute@@PBD@Z ENDP ; TiXmlAttributeSet::Find
_TEXT	ENDS
; Function compile flags: /Ogtp
; File E:\Proyectos\JuegosOnlineproyectos\PB\pbblow\Piercing Blow Remake\i3Server\include\i3Base\tinyxml.h
;	COMDAT ?Last@TiXmlAttributeSet@@QAEPAVTiXmlAttribute@@XZ
_TEXT	SEGMENT
?Last@TiXmlAttributeSet@@QAEPAVTiXmlAttribute@@XZ PROC	; TiXmlAttributeSet::Last, COMDAT
; _this$ = ecx

; 919  : 	TiXmlAttribute* Last()					{ return ( sentinel.prev == &sentinel ) ? 0 : sentinel.prev; }

  00000	8b 41 1c	 mov	 eax, DWORD PTR [ecx+28]
  00003	33 d2		 xor	 edx, edx
  00005	3b c1		 cmp	 eax, ecx
  00007	0f 44 c2	 cmove	 eax, edx
  0000a	c3		 ret	 0
?Last@TiXmlAttributeSet@@QAEPAVTiXmlAttribute@@XZ ENDP	; TiXmlAttributeSet::Last
_TEXT	ENDS
; Function compile flags: /Ogtp
; File E:\Proyectos\JuegosOnlineproyectos\PB\pbblow\Piercing Blow Remake\i3Server\include\i3Base\tinyxml.h
;	COMDAT ?Last@TiXmlAttributeSet@@QBEPBVTiXmlAttribute@@XZ
_TEXT	SEGMENT
?Last@TiXmlAttributeSet@@QBEPBVTiXmlAttribute@@XZ PROC	; TiXmlAttributeSet::Last, COMDAT
; _this$ = ecx

; 918  : 	const TiXmlAttribute* Last() const		{ return ( sentinel.prev == &sentinel ) ? 0 : sentinel.prev; }

  00000	8b 41 1c	 mov	 eax, DWORD PTR [ecx+28]
  00003	33 d2		 xor	 edx, edx
  00005	3b c1		 cmp	 eax, ecx
  00007	0f 44 c2	 cmove	 eax, edx
  0000a	c3		 ret	 0
?Last@TiXmlAttributeSet@@QBEPBVTiXmlAttribute@@XZ ENDP	; TiXmlAttributeSet::Last
_TEXT	ENDS
; Function compile flags: /Ogtp
; File E:\Proyectos\JuegosOnlineproyectos\PB\pbblow\Piercing Blow Remake\i3Server\include\i3Base\tinyxml.h
;	COMDAT ?First@TiXmlAttributeSet@@QAEPAVTiXmlAttribute@@XZ
_TEXT	SEGMENT
?First@TiXmlAttributeSet@@QAEPAVTiXmlAttribute@@XZ PROC	; TiXmlAttributeSet::First, COMDAT
; _this$ = ecx

; 917  : 	TiXmlAttribute* First()					{ return ( sentinel.next == &sentinel ) ? 0 : sentinel.next; }

  00000	8b 41 20	 mov	 eax, DWORD PTR [ecx+32]
  00003	33 d2		 xor	 edx, edx
  00005	3b c1		 cmp	 eax, ecx
  00007	0f 44 c2	 cmove	 eax, edx
  0000a	c3		 ret	 0
?First@TiXmlAttributeSet@@QAEPAVTiXmlAttribute@@XZ ENDP	; TiXmlAttributeSet::First
_TEXT	ENDS
; Function compile flags: /Ogtp
; File E:\Proyectos\JuegosOnlineproyectos\PB\pbblow\Piercing Blow Remake\i3Server\include\i3Base\tinyxml.h
;	COMDAT ?First@TiXmlAttributeSet@@QBEPBVTiXmlAttribute@@XZ
_TEXT	SEGMENT
?First@TiXmlAttributeSet@@QBEPBVTiXmlAttribute@@XZ PROC	; TiXmlAttributeSet::First, COMDAT
; _this$ = ecx

; 916  : 	const TiXmlAttribute* First()	const	{ return ( sentinel.next == &sentinel ) ? 0 : sentinel.next; }

  00000	8b 41 20	 mov	 eax, DWORD PTR [ecx+32]
  00003	33 d2		 xor	 edx, edx
  00005	3b c1		 cmp	 eax, ecx
  00007	0f 44 c2	 cmove	 eax, edx
  0000a	c3		 ret	 0
?First@TiXmlAttributeSet@@QBEPBVTiXmlAttribute@@XZ ENDP	; TiXmlAttributeSet::First
_TEXT	ENDS
; Function compile flags: /Ogtp
; File E:\Proyectos\JuegosOnlineproyectos\PB\pbblow\Piercing Blow Remake\i3Server\include\i3Base\tinystr.h
;	COMDAT ??_ETiXmlAttribute@@UAEPAXI@Z
_TEXT	SEGMENT
__$EHRec$ = -12						; size = 12
___flags$ = 8						; size = 4
??_ETiXmlAttribute@@UAEPAXI@Z PROC			; TiXmlAttribute::`vector deleting destructor', COMDAT
; _this$ = ecx
  00000	55		 push	 ebp
  00001	8b ec		 mov	 ebp, esp
  00003	6a ff		 push	 -1
  00005	68 00 00 00 00	 push	 __ehhandler$??_ETiXmlAttribute@@UAEPAXI@Z
  0000a	64 a1 00 00 00
	00		 mov	 eax, DWORD PTR fs:0
  00010	50		 push	 eax
  00011	53		 push	 ebx
  00012	56		 push	 esi
  00013	57		 push	 edi
  00014	a1 00 00 00 00	 mov	 eax, DWORD PTR ___security_cookie
  00019	33 c5		 xor	 eax, ebp
  0001b	50		 push	 eax
  0001c	8d 45 f4	 lea	 eax, DWORD PTR __$EHRec$[ebp]
  0001f	64 a3 00 00 00
	00		 mov	 DWORD PTR fs:0, eax
  00025	8b f1		 mov	 esi, ecx
  00027	8b 5d 08	 mov	 ebx, DWORD PTR ___flags$[ebp]
  0002a	f6 c3 02	 test	 bl, 2
  0002d	74 44		 je	 SHORT $LN2@vector
  0002f	68 00 00 00 00	 push	 OFFSET ??1TiXmlAttribute@@UAE@XZ
  00034	ff 76 fc	 push	 DWORD PTR [esi-4]
  00037	8d 7e fc	 lea	 edi, DWORD PTR [esi-4]
  0003a	6a 24		 push	 36			; 00000024H
  0003c	56		 push	 esi
  0003d	e8 00 00 00 00	 call	 ??_M@YGXPAXIIP6EX0@Z@Z
  00042	f6 c3 01	 test	 bl, 1
  00045	74 16		 je	 SHORT $LN3@vector
  00047	8b 0f		 mov	 ecx, DWORD PTR [edi]
  00049	8d 0c c9	 lea	 ecx, DWORD PTR [ecx+ecx*8]
  0004c	8d 0c 8d 04 00
	00 00		 lea	 ecx, DWORD PTR [ecx*4+4]
  00053	51		 push	 ecx
  00054	57		 push	 edi
  00055	e8 00 00 00 00	 call	 ??_V@YAXPAXI@Z		; operator delete[]
  0005a	83 c4 08	 add	 esp, 8
$LN3@vector:
  0005d	8b c7		 mov	 eax, edi
  0005f	8b 4d f4	 mov	 ecx, DWORD PTR __$EHRec$[ebp]
  00062	64 89 0d 00 00
	00 00		 mov	 DWORD PTR fs:0, ecx
  00069	59		 pop	 ecx
  0006a	5f		 pop	 edi
  0006b	5e		 pop	 esi
  0006c	5b		 pop	 ebx
  0006d	8b e5		 mov	 esp, ebp
  0006f	5d		 pop	 ebp
  00070	c2 04 00	 ret	 4
$LN2@vector:

; 257  : 		if (rep_ != &nullrep_)

  00073	8b 46 18	 mov	 eax, DWORD PTR [esi+24]
  00076	3d 00 00 00 00	 cmp	 eax, OFFSET ?nullrep_@TiXmlString@@0URep@1@A ; TiXmlString::nullrep_
  0007b	74 09		 je	 SHORT $LN16@vector

; 258  : 		{
; 259  : 			// The rep_ is really an array of ints. (see the allocator, above).
; 260  : 			// Cast it back before delete, so the compiler won't incorrectly call destructors.
; 261  : 			delete [] ( reinterpret_cast<int*>( rep_ ) );

  0007d	50		 push	 eax
  0007e	e8 00 00 00 00	 call	 ??_V@YAXPAX@Z		; operator delete[]
  00083	83 c4 04	 add	 esp, 4
$LN16@vector:

; 257  : 		if (rep_ != &nullrep_)

  00086	8b 46 14	 mov	 eax, DWORD PTR [esi+20]
  00089	3d 00 00 00 00	 cmp	 eax, OFFSET ?nullrep_@TiXmlString@@0URep@1@A ; TiXmlString::nullrep_
  0008e	74 09		 je	 SHORT $LN22@vector

; 258  : 		{
; 259  : 			// The rep_ is really an array of ints. (see the allocator, above).
; 260  : 			// Cast it back before delete, so the compiler won't incorrectly call destructors.
; 261  : 			delete [] ( reinterpret_cast<int*>( rep_ ) );

  00090	50		 push	 eax
  00091	e8 00 00 00 00	 call	 ??_V@YAXPAX@Z		; operator delete[]
  00096	83 c4 04	 add	 esp, 4
$LN22@vector:
  00099	c7 06 00 00 00
	00		 mov	 DWORD PTR [esi], OFFSET ??_7TiXmlBase@@6B@
  0009f	f6 c3 01	 test	 bl, 1
  000a2	74 0b		 je	 SHORT $LN4@vector
  000a4	6a 24		 push	 36			; 00000024H
  000a6	56		 push	 esi
  000a7	e8 00 00 00 00	 call	 ??3@YAXPAXI@Z		; operator delete
  000ac	83 c4 08	 add	 esp, 8
$LN4@vector:
  000af	8b c6		 mov	 eax, esi
  000b1	8b 4d f4	 mov	 ecx, DWORD PTR __$EHRec$[ebp]
  000b4	64 89 0d 00 00
	00 00		 mov	 DWORD PTR fs:0, ecx
  000bb	59		 pop	 ecx
  000bc	5f		 pop	 edi
  000bd	5e		 pop	 esi
  000be	5b		 pop	 ebx
  000bf	8b e5		 mov	 esp, ebp
  000c1	5d		 pop	 ebp
  000c2	c2 04 00	 ret	 4
  000c5	cc		 int	 3
  000c6	cc		 int	 3
  000c7	cc		 int	 3
  000c8	cc		 int	 3
  000c9	cc		 int	 3
_TEXT	ENDS
;	COMDAT text$x
text$x	SEGMENT
__ehhandler$??_ETiXmlAttribute@@UAEPAXI@Z:
  00000	90		 npad	 1
  00001	90		 npad	 1
  00002	8b 54 24 08	 mov	 edx, DWORD PTR [esp+8]
  00006	8d 42 0c	 lea	 eax, DWORD PTR [edx+12]
  00009	8b 4a f0	 mov	 ecx, DWORD PTR [edx-16]
  0000c	33 c8		 xor	 ecx, eax
  0000e	e8 00 00 00 00	 call	 @__security_check_cookie@4
  00013	b8 00 00 00 00	 mov	 eax, OFFSET __ehfuncinfo$??_ETiXmlAttribute@@UAEPAXI@Z
  00018	e9 00 00 00 00	 jmp	 ___CxxFrameHandler3
text$x	ENDS
??_ETiXmlAttribute@@UAEPAXI@Z ENDP			; TiXmlAttribute::`vector deleting destructor'
; Function compile flags: /Ogtp
; File E:\Proyectos\JuegosOnlineproyectos\PB\pbblow\Piercing Blow Remake\i3Server\include\i3Base\tinystr.h
;	COMDAT ??_GTiXmlAttribute@@UAEPAXI@Z
_TEXT	SEGMENT
___flags$ = 8						; size = 4
??_GTiXmlAttribute@@UAEPAXI@Z PROC			; TiXmlAttribute::`scalar deleting destructor', COMDAT
; _this$ = ecx
  00000	55		 push	 ebp
  00001	8b ec		 mov	 ebp, esp

; 257  : 		if (rep_ != &nullrep_)

  00003	56		 push	 esi
  00004	8b f1		 mov	 esi, ecx
  00006	8b 46 18	 mov	 eax, DWORD PTR [esi+24]
  00009	3d 00 00 00 00	 cmp	 eax, OFFSET ?nullrep_@TiXmlString@@0URep@1@A ; TiXmlString::nullrep_
  0000e	74 09		 je	 SHORT $LN14@scalar

; 258  : 		{
; 259  : 			// The rep_ is really an array of ints. (see the allocator, above).
; 260  : 			// Cast it back before delete, so the compiler won't incorrectly call destructors.
; 261  : 			delete [] ( reinterpret_cast<int*>( rep_ ) );

  00010	50		 push	 eax
  00011	e8 00 00 00 00	 call	 ??_V@YAXPAX@Z		; operator delete[]
  00016	83 c4 04	 add	 esp, 4
$LN14@scalar:

; 257  : 		if (rep_ != &nullrep_)

  00019	8b 46 14	 mov	 eax, DWORD PTR [esi+20]
  0001c	3d 00 00 00 00	 cmp	 eax, OFFSET ?nullrep_@TiXmlString@@0URep@1@A ; TiXmlString::nullrep_
  00021	74 09		 je	 SHORT $LN20@scalar

; 258  : 		{
; 259  : 			// The rep_ is really an array of ints. (see the allocator, above).
; 260  : 			// Cast it back before delete, so the compiler won't incorrectly call destructors.
; 261  : 			delete [] ( reinterpret_cast<int*>( rep_ ) );

  00023	50		 push	 eax
  00024	e8 00 00 00 00	 call	 ??_V@YAXPAX@Z		; operator delete[]
  00029	83 c4 04	 add	 esp, 4
$LN20@scalar:
  0002c	f6 45 08 01	 test	 BYTE PTR ___flags$[ebp], 1
  00030	c7 06 00 00 00
	00		 mov	 DWORD PTR [esi], OFFSET ??_7TiXmlBase@@6B@
  00036	74 0b		 je	 SHORT $LN22@scalar
  00038	6a 24		 push	 36			; 00000024H
  0003a	56		 push	 esi
  0003b	e8 00 00 00 00	 call	 ??3@YAXPAXI@Z		; operator delete
  00040	83 c4 08	 add	 esp, 8
$LN22@scalar:
  00043	8b c6		 mov	 eax, esi
  00045	5e		 pop	 esi
  00046	5d		 pop	 ebp
  00047	c2 04 00	 ret	 4
??_GTiXmlAttribute@@UAEPAXI@Z ENDP			; TiXmlAttribute::`scalar deleting destructor'
_TEXT	ENDS
; Function compile flags: /Ogtp
; File E:\Proyectos\JuegosOnlineproyectos\PB\pbblow\Piercing Blow Remake\i3Server\include\i3Base\tinystr.h
;	COMDAT ??1TiXmlAttribute@@UAE@XZ
_TEXT	SEGMENT
??1TiXmlAttribute@@UAE@XZ PROC				; TiXmlAttribute::~TiXmlAttribute, COMDAT
; _this$ = ecx

; 257  : 		if (rep_ != &nullrep_)

  00000	56		 push	 esi
  00001	8b f1		 mov	 esi, ecx
  00003	8b 46 18	 mov	 eax, DWORD PTR [esi+24]
  00006	3d 00 00 00 00	 cmp	 eax, OFFSET ?nullrep_@TiXmlString@@0URep@1@A ; TiXmlString::nullrep_
  0000b	74 09		 je	 SHORT $LN8@TiXmlAttri

; 258  : 		{
; 259  : 			// The rep_ is really an array of ints. (see the allocator, above).
; 260  : 			// Cast it back before delete, so the compiler won't incorrectly call destructors.
; 261  : 			delete [] ( reinterpret_cast<int*>( rep_ ) );

  0000d	50		 push	 eax
  0000e	e8 00 00 00 00	 call	 ??_V@YAXPAX@Z		; operator delete[]
  00013	83 c4 04	 add	 esp, 4
$LN8@TiXmlAttri:

; 257  : 		if (rep_ != &nullrep_)

  00016	8b 46 14	 mov	 eax, DWORD PTR [esi+20]
  00019	3d 00 00 00 00	 cmp	 eax, OFFSET ?nullrep_@TiXmlString@@0URep@1@A ; TiXmlString::nullrep_
  0001e	74 09		 je	 SHORT $LN16@TiXmlAttri

; 258  : 		{
; 259  : 			// The rep_ is really an array of ints. (see the allocator, above).
; 260  : 			// Cast it back before delete, so the compiler won't incorrectly call destructors.
; 261  : 			delete [] ( reinterpret_cast<int*>( rep_ ) );

  00020	50		 push	 eax
  00021	e8 00 00 00 00	 call	 ??_V@YAXPAX@Z		; operator delete[]
  00026	83 c4 04	 add	 esp, 4
$LN16@TiXmlAttri:
  00029	c7 06 00 00 00
	00		 mov	 DWORD PTR [esi], OFFSET ??_7TiXmlBase@@6B@
  0002f	5e		 pop	 esi
  00030	c3		 ret	 0
??1TiXmlAttribute@@UAE@XZ ENDP				; TiXmlAttribute::~TiXmlAttribute
_TEXT	ENDS
; Function compile flags: /Ogtp
; File E:\Proyectos\JuegosOnlineproyectos\PB\pbblow\Piercing Blow Remake\i3Server\include\i3Base\tinyxml.h
;	COMDAT ?SetDocument@TiXmlAttribute@@QAEXPAVTiXmlDocument@@@Z
_TEXT	SEGMENT
_doc$ = 8						; size = 4
?SetDocument@TiXmlAttribute@@QAEXPAVTiXmlDocument@@@Z PROC ; TiXmlAttribute::SetDocument, COMDAT
; _this$ = ecx

; 881  : 	void SetDocument( TiXmlDocument* doc )	{ document = doc; }

  00000	55		 push	 ebp
  00001	8b ec		 mov	 ebp, esp
  00003	8b 45 08	 mov	 eax, DWORD PTR _doc$[ebp]
  00006	89 41 10	 mov	 DWORD PTR [ecx+16], eax
  00009	5d		 pop	 ebp
  0000a	c2 04 00	 ret	 4
?SetDocument@TiXmlAttribute@@QAEXPAVTiXmlDocument@@@Z ENDP ; TiXmlAttribute::SetDocument
_TEXT	ENDS
; Function compile flags: /Ogtp
; File E:\Proyectos\JuegosOnlineproyectos\PB\pbblow\Piercing Blow Remake\i3Server\include\i3Base\tinyxml.h
;	COMDAT ?Print@TiXmlAttribute@@UBEXPAVi3FileStream@@H@Z
_TEXT	SEGMENT
_cfile$ = 8						; size = 4
_depth$ = 12						; size = 4
?Print@TiXmlAttribute@@UBEXPAVi3FileStream@@H@Z PROC	; TiXmlAttribute::Print, COMDAT
; _this$ = ecx

; 874  : 	virtual void Print( i3FileStream* cfile, int depth ) const {

  00000	55		 push	 ebp
  00001	8b ec		 mov	 ebp, esp

; 875  : 		Print( cfile, depth, 0 );

  00003	6a 00		 push	 0
  00005	ff 75 0c	 push	 DWORD PTR _depth$[ebp]
  00008	ff 75 08	 push	 DWORD PTR _cfile$[ebp]
  0000b	e8 00 00 00 00	 call	 ?Print@TiXmlAttribute@@QBEXPAVi3FileStream@@HPAVTiXmlString@@@Z ; TiXmlAttribute::Print

; 876  : 	}

  00010	5d		 pop	 ebp
  00011	c2 08 00	 ret	 8
?Print@TiXmlAttribute@@UBEXPAVi3FileStream@@H@Z ENDP	; TiXmlAttribute::Print
_TEXT	ENDS
; Function compile flags: /Ogtp
; File E:\Proyectos\JuegosOnlineproyectos\PB\pbblow\Piercing Blow Remake\i3Server\include\i3Base\tinyxml.h
; File E:\Proyectos\JuegosOnlineproyectos\PB\pbblow\Piercing Blow Remake\i3Server\include\i3Base\tinystr.h
; File E:\Proyectos\JuegosOnlineproyectos\PB\pbblow\Piercing Blow Remake\i3Server\include\i3Base\tinyxml.h
; File E:\Proyectos\JuegosOnlineproyectos\PB\pbblow\Piercing Blow Remake\i3Server\include\i3Base\tinystr.h
; File E:\Proyectos\JuegosOnlineproyectos\PB\pbblow\Piercing Blow Remake\i3Server\include\i3Base\tinyxml.h
;	COMDAT ??OTiXmlAttribute@@QBE_NABV0@@Z
_TEXT	SEGMENT
_rhs$ = 8						; size = 4
??OTiXmlAttribute@@QBE_NABV0@@Z PROC			; TiXmlAttribute::operator>, COMDAT
; _this$ = ecx

; 866  : 	bool operator>( const TiXmlAttribute& rhs )  const { return name > rhs.name; }

  00000	55		 push	 ebp
  00001	8b ec		 mov	 ebp, esp
; File E:\Proyectos\JuegosOnlineproyectos\PB\pbblow\Piercing Blow Remake\i3Server\include\i3Base\tinystr.h

; 144  : 	const char * c_str () const { return rep_->str; }

  00003	8b 41 14	 mov	 eax, DWORD PTR [ecx+20]
  00006	8b 4d 08	 mov	 ecx, DWORD PTR _rhs$[ebp]
  00009	83 c0 08	 add	 eax, 8
  0000c	8b 49 14	 mov	 ecx, DWORD PTR [ecx+20]
  0000f	83 c1 08	 add	 ecx, 8
$LL11@operator:

; 278  : 	return strcmp(a.c_str(), b.c_str()) < 0;

  00012	8a 11		 mov	 dl, BYTE PTR [ecx]
  00014	3a 10		 cmp	 dl, BYTE PTR [eax]
  00016	75 1f		 jne	 SHORT $LN12@operator
  00018	84 d2		 test	 dl, dl
  0001a	74 12		 je	 SHORT $LN13@operator
  0001c	8a 51 01	 mov	 dl, BYTE PTR [ecx+1]
  0001f	3a 50 01	 cmp	 dl, BYTE PTR [eax+1]
  00022	75 13		 jne	 SHORT $LN12@operator
  00024	83 c1 02	 add	 ecx, 2
  00027	83 c0 02	 add	 eax, 2
  0002a	84 d2		 test	 dl, dl
  0002c	75 e4		 jne	 SHORT $LL11@operator
$LN13@operator:
  0002e	b8 00 00 00 00	 mov	 eax, 0
; File E:\Proyectos\JuegosOnlineproyectos\PB\pbblow\Piercing Blow Remake\i3Server\include\i3Base\tinyxml.h

; 866  : 	bool operator>( const TiXmlAttribute& rhs )  const { return name > rhs.name; }

  00033	5d		 pop	 ebp
  00034	c2 04 00	 ret	 4
$LN12@operator:
; File E:\Proyectos\JuegosOnlineproyectos\PB\pbblow\Piercing Blow Remake\i3Server\include\i3Base\tinystr.h

; 278  : 	return strcmp(a.c_str(), b.c_str()) < 0;

  00037	1b c0		 sbb	 eax, eax
  00039	83 c8 01	 or	 eax, 1
  0003c	c1 e8 1f	 shr	 eax, 31			; 0000001fH
; File E:\Proyectos\JuegosOnlineproyectos\PB\pbblow\Piercing Blow Remake\i3Server\include\i3Base\tinyxml.h

; 866  : 	bool operator>( const TiXmlAttribute& rhs )  const { return name > rhs.name; }

  0003f	5d		 pop	 ebp
  00040	c2 04 00	 ret	 4
??OTiXmlAttribute@@QBE_NABV0@@Z ENDP			; TiXmlAttribute::operator>
_TEXT	ENDS
; Function compile flags: /Ogtp
; File E:\Proyectos\JuegosOnlineproyectos\PB\pbblow\Piercing Blow Remake\i3Server\include\i3Base\tinyxml.h
; File E:\Proyectos\JuegosOnlineproyectos\PB\pbblow\Piercing Blow Remake\i3Server\include\i3Base\tinystr.h
; File E:\Proyectos\JuegosOnlineproyectos\PB\pbblow\Piercing Blow Remake\i3Server\include\i3Base\tinyxml.h
; File E:\Proyectos\JuegosOnlineproyectos\PB\pbblow\Piercing Blow Remake\i3Server\include\i3Base\tinystr.h
; File E:\Proyectos\JuegosOnlineproyectos\PB\pbblow\Piercing Blow Remake\i3Server\include\i3Base\tinyxml.h
;	COMDAT ??MTiXmlAttribute@@QBE_NABV0@@Z
_TEXT	SEGMENT
_rhs$ = 8						; size = 4
??MTiXmlAttribute@@QBE_NABV0@@Z PROC			; TiXmlAttribute::operator<, COMDAT
; _this$ = ecx

; 865  : 	bool operator<( const TiXmlAttribute& rhs )	 const { return name < rhs.name; }

  00000	55		 push	 ebp
  00001	8b ec		 mov	 ebp, esp
; File E:\Proyectos\JuegosOnlineproyectos\PB\pbblow\Piercing Blow Remake\i3Server\include\i3Base\tinystr.h

; 144  : 	const char * c_str () const { return rep_->str; }

  00003	8b 45 08	 mov	 eax, DWORD PTR _rhs$[ebp]
  00006	8b 49 14	 mov	 ecx, DWORD PTR [ecx+20]
  00009	8b 40 14	 mov	 eax, DWORD PTR [eax+20]
  0000c	83 c0 08	 add	 eax, 8
  0000f	83 c1 08	 add	 ecx, 8
$LL9@operator:

; 278  : 	return strcmp(a.c_str(), b.c_str()) < 0;

  00012	8a 11		 mov	 dl, BYTE PTR [ecx]
  00014	3a 10		 cmp	 dl, BYTE PTR [eax]
  00016	75 1f		 jne	 SHORT $LN10@operator
  00018	84 d2		 test	 dl, dl
  0001a	74 12		 je	 SHORT $LN11@operator
  0001c	8a 51 01	 mov	 dl, BYTE PTR [ecx+1]
  0001f	3a 50 01	 cmp	 dl, BYTE PTR [eax+1]
  00022	75 13		 jne	 SHORT $LN10@operator
  00024	83 c1 02	 add	 ecx, 2
  00027	83 c0 02	 add	 eax, 2
  0002a	84 d2		 test	 dl, dl
  0002c	75 e4		 jne	 SHORT $LL9@operator
$LN11@operator:
  0002e	b8 00 00 00 00	 mov	 eax, 0
; File E:\Proyectos\JuegosOnlineproyectos\PB\pbblow\Piercing Blow Remake\i3Server\include\i3Base\tinyxml.h

; 865  : 	bool operator<( const TiXmlAttribute& rhs )	 const { return name < rhs.name; }

  00033	5d		 pop	 ebp
  00034	c2 04 00	 ret	 4
$LN10@operator:
; File E:\Proyectos\JuegosOnlineproyectos\PB\pbblow\Piercing Blow Remake\i3Server\include\i3Base\tinystr.h

; 278  : 	return strcmp(a.c_str(), b.c_str()) < 0;

  00037	1b c0		 sbb	 eax, eax
  00039	83 c8 01	 or	 eax, 1
  0003c	c1 e8 1f	 shr	 eax, 31			; 0000001fH
; File E:\Proyectos\JuegosOnlineproyectos\PB\pbblow\Piercing Blow Remake\i3Server\include\i3Base\tinyxml.h

; 865  : 	bool operator<( const TiXmlAttribute& rhs )	 const { return name < rhs.name; }

  0003f	5d		 pop	 ebp
  00040	c2 04 00	 ret	 4
??MTiXmlAttribute@@QBE_NABV0@@Z ENDP			; TiXmlAttribute::operator<
_TEXT	ENDS
; Function compile flags: /Ogtp
; File E:\Proyectos\JuegosOnlineproyectos\PB\pbblow\Piercing Blow Remake\i3Server\include\i3Base\tinyxml.h
; File E:\Proyectos\JuegosOnlineproyectos\PB\pbblow\Piercing Blow Remake\i3Server\include\i3Base\tinystr.h
; File E:\Proyectos\JuegosOnlineproyectos\PB\pbblow\Piercing Blow Remake\i3Server\include\i3Base\tinyxml.h
; File E:\Proyectos\JuegosOnlineproyectos\PB\pbblow\Piercing Blow Remake\i3Server\include\i3Base\tinystr.h
; File E:\Proyectos\JuegosOnlineproyectos\PB\pbblow\Piercing Blow Remake\i3Server\include\i3Base\tinyxml.h
;	COMDAT ??8TiXmlAttribute@@QBE_NABV0@@Z
_TEXT	SEGMENT
_rhs$ = 8						; size = 4
??8TiXmlAttribute@@QBE_NABV0@@Z PROC			; TiXmlAttribute::operator==, COMDAT
; _this$ = ecx

; 864  : 	bool operator==( const TiXmlAttribute& rhs ) const { return rhs.name == name; }

  00000	55		 push	 ebp
  00001	8b ec		 mov	 ebp, esp
; File E:\Proyectos\JuegosOnlineproyectos\PB\pbblow\Piercing Blow Remake\i3Server\include\i3Base\tinystr.h

; 150  : 	size_type length () const { return rep_->size; }

  00003	8b 45 08	 mov	 eax, DWORD PTR _rhs$[ebp]
  00006	8b 49 14	 mov	 ecx, DWORD PTR [ecx+20]
  00009	8b 50 14	 mov	 edx, DWORD PTR [eax+20]

; 273  : 	return    ( a.length() == b.length() )				// optimization on some platforms

  0000c	8b 02		 mov	 eax, DWORD PTR [edx]
  0000e	3b 01		 cmp	 eax, DWORD PTR [ecx]
  00010	75 35		 jne	 SHORT $LN5@operator

; 144  : 	const char * c_str () const { return rep_->str; }

  00012	83 c1 08	 add	 ecx, 8
  00015	8d 42 08	 lea	 eax, DWORD PTR [edx+8]
$LL15@operator:

; 273  : 	return    ( a.length() == b.length() )				// optimization on some platforms

  00018	8a 10		 mov	 dl, BYTE PTR [eax]
  0001a	3a 11		 cmp	 dl, BYTE PTR [ecx]
  0001c	75 1a		 jne	 SHORT $LN16@operator
  0001e	84 d2		 test	 dl, dl
  00020	74 12		 je	 SHORT $LN17@operator
  00022	8a 50 01	 mov	 dl, BYTE PTR [eax+1]
  00025	3a 51 01	 cmp	 dl, BYTE PTR [ecx+1]
  00028	75 0e		 jne	 SHORT $LN16@operator
  0002a	83 c0 02	 add	 eax, 2
  0002d	83 c1 02	 add	 ecx, 2
  00030	84 d2		 test	 dl, dl
  00032	75 e4		 jne	 SHORT $LL15@operator
$LN17@operator:
  00034	33 c0		 xor	 eax, eax
  00036	eb 05		 jmp	 SHORT $LN18@operator
$LN16@operator:
  00038	1b c0		 sbb	 eax, eax
  0003a	83 c8 01	 or	 eax, 1
$LN18@operator:
  0003d	85 c0		 test	 eax, eax
  0003f	75 06		 jne	 SHORT $LN5@operator
  00041	b0 01		 mov	 al, 1
; File E:\Proyectos\JuegosOnlineproyectos\PB\pbblow\Piercing Blow Remake\i3Server\include\i3Base\tinyxml.h

; 864  : 	bool operator==( const TiXmlAttribute& rhs ) const { return rhs.name == name; }

  00043	5d		 pop	 ebp
  00044	c2 04 00	 ret	 4
$LN5@operator:
; File E:\Proyectos\JuegosOnlineproyectos\PB\pbblow\Piercing Blow Remake\i3Server\include\i3Base\tinystr.h

; 273  : 	return    ( a.length() == b.length() )				// optimization on some platforms

  00047	32 c0		 xor	 al, al
; File E:\Proyectos\JuegosOnlineproyectos\PB\pbblow\Piercing Blow Remake\i3Server\include\i3Base\tinyxml.h

; 864  : 	bool operator==( const TiXmlAttribute& rhs ) const { return rhs.name == name; }

  00049	5d		 pop	 ebp
  0004a	c2 04 00	 ret	 4
??8TiXmlAttribute@@QBE_NABV0@@Z ENDP			; TiXmlAttribute::operator==
_TEXT	ENDS
; Function compile flags: /Ogtp
; File E:\Proyectos\JuegosOnlineproyectos\PB\pbblow\Piercing Blow Remake\i3Server\include\i3Base\tinyxml.h
;	COMDAT ?Previous@TiXmlAttribute@@QAEPAV1@XZ
_TEXT	SEGMENT
?Previous@TiXmlAttribute@@QAEPAV1@XZ PROC		; TiXmlAttribute::Previous, COMDAT
; _this$ = ecx

; 861  : 		return const_cast< TiXmlAttribute* >( (const_cast< const TiXmlAttribute* >(this))->Previous() ); 

  00000	e9 00 00 00 00	 jmp	 ?Previous@TiXmlAttribute@@QBEPBV1@XZ ; TiXmlAttribute::Previous
?Previous@TiXmlAttribute@@QAEPAV1@XZ ENDP		; TiXmlAttribute::Previous
_TEXT	ENDS
; Function compile flags: /Ogtp
; File E:\Proyectos\JuegosOnlineproyectos\PB\pbblow\Piercing Blow Remake\i3Server\include\i3Base\tinyxml.h
;	COMDAT ?Next@TiXmlAttribute@@QAEPAV1@XZ
_TEXT	SEGMENT
?Next@TiXmlAttribute@@QAEPAV1@XZ PROC			; TiXmlAttribute::Next, COMDAT
; _this$ = ecx

; 855  : 		return const_cast< TiXmlAttribute* >( (const_cast< const TiXmlAttribute* >(this))->Next() ); 

  00000	e9 00 00 00 00	 jmp	 ?Next@TiXmlAttribute@@QBEPBV1@XZ ; TiXmlAttribute::Next
?Next@TiXmlAttribute@@QAEPAV1@XZ ENDP			; TiXmlAttribute::Next
_TEXT	ENDS
; Function compile flags: /Ogtp
; File E:\Proyectos\JuegosOnlineproyectos\PB\pbblow\Piercing Blow Remake\i3Server\include\i3Base\tinyxml.h
; File E:\Proyectos\JuegosOnlineproyectos\PB\pbblow\Piercing Blow Remake\i3Server\include\i3Base\tinystr.h
; File E:\Proyectos\JuegosOnlineproyectos\PB\pbblow\Piercing Blow Remake\i3Server\include\i3Base\tinyxml.h
; File E:\Proyectos\JuegosOnlineproyectos\PB\pbblow\Piercing Blow Remake\i3Server\include\i3Base\tinystr.h
; File E:\Proyectos\JuegosOnlineproyectos\PB\pbblow\Piercing Blow Remake\i3Server\include\i3Base\tinyxml.h
; File E:\Proyectos\JuegosOnlineproyectos\PB\pbblow\Piercing Blow Remake\i3Server\include\i3Base\tinystr.h
; File E:\Proyectos\JuegosOnlineproyectos\PB\pbblow\Piercing Blow Remake\i3Server\include\i3Base\tinyxml.h
;	COMDAT ?SetValue@TiXmlAttribute@@QAEXPBD@Z
_TEXT	SEGMENT
__value$ = 8						; size = 4
?SetValue@TiXmlAttribute@@QAEXPBD@Z PROC		; TiXmlAttribute::SetValue, COMDAT
; _this$ = ecx

; 840  : 	void SetValue( const char* _value )	{ value = _value; }				///< Set the value.

  00000	55		 push	 ebp
  00001	8b ec		 mov	 ebp, esp
; File E:\Proyectos\JuegosOnlineproyectos\PB\pbblow\Piercing Blow Remake\i3Server\include\i3Base\tinystr.h

; 114  : 		return assign( copy, (size_type)strlen(copy));

  00003	8b 55 08	 mov	 edx, DWORD PTR __value$[ebp]
  00006	8b c2		 mov	 eax, edx
; File E:\Proyectos\JuegosOnlineproyectos\PB\pbblow\Piercing Blow Remake\i3Server\include\i3Base\tinyxml.h

; 840  : 	void SetValue( const char* _value )	{ value = _value; }				///< Set the value.

  00008	56		 push	 esi
  00009	57		 push	 edi
  0000a	8b f1		 mov	 esi, ecx
; File E:\Proyectos\JuegosOnlineproyectos\PB\pbblow\Piercing Blow Remake\i3Server\include\i3Base\tinystr.h

; 114  : 		return assign( copy, (size_type)strlen(copy));

  0000c	8d 78 01	 lea	 edi, DWORD PTR [eax+1]
  0000f	90		 npad	 1
$LL5@SetValue:
  00010	8a 08		 mov	 cl, BYTE PTR [eax]
  00012	40		 inc	 eax
  00013	84 c9		 test	 cl, cl
  00015	75 f9		 jne	 SHORT $LL5@SetValue
  00017	2b c7		 sub	 eax, edi
; File E:\Proyectos\JuegosOnlineproyectos\PB\pbblow\Piercing Blow Remake\i3Server\include\i3Base\tinyxml.h

; 840  : 	void SetValue( const char* _value )	{ value = _value; }				///< Set the value.

  00019	8d 4e 18	 lea	 ecx, DWORD PTR [esi+24]
; File E:\Proyectos\JuegosOnlineproyectos\PB\pbblow\Piercing Blow Remake\i3Server\include\i3Base\tinystr.h

; 114  : 		return assign( copy, (size_type)strlen(copy));

  0001c	50		 push	 eax
  0001d	52		 push	 edx
  0001e	e8 00 00 00 00	 call	 ?assign@TiXmlString@@QAEAAV1@PBDI@Z ; TiXmlString::assign
  00023	5f		 pop	 edi
  00024	5e		 pop	 esi
; File E:\Proyectos\JuegosOnlineproyectos\PB\pbblow\Piercing Blow Remake\i3Server\include\i3Base\tinyxml.h

; 840  : 	void SetValue( const char* _value )	{ value = _value; }				///< Set the value.

  00025	5d		 pop	 ebp
  00026	c2 04 00	 ret	 4
?SetValue@TiXmlAttribute@@QAEXPBD@Z ENDP		; TiXmlAttribute::SetValue
_TEXT	ENDS
; Function compile flags: /Ogtp
; File E:\Proyectos\JuegosOnlineproyectos\PB\pbblow\Piercing Blow Remake\i3Server\include\i3Base\tinyxml.h
; File E:\Proyectos\JuegosOnlineproyectos\PB\pbblow\Piercing Blow Remake\i3Server\include\i3Base\tinystr.h
; File E:\Proyectos\JuegosOnlineproyectos\PB\pbblow\Piercing Blow Remake\i3Server\include\i3Base\tinyxml.h
; File E:\Proyectos\JuegosOnlineproyectos\PB\pbblow\Piercing Blow Remake\i3Server\include\i3Base\tinystr.h
; File E:\Proyectos\JuegosOnlineproyectos\PB\pbblow\Piercing Blow Remake\i3Server\include\i3Base\tinyxml.h
; File E:\Proyectos\JuegosOnlineproyectos\PB\pbblow\Piercing Blow Remake\i3Server\include\i3Base\tinystr.h
; File E:\Proyectos\JuegosOnlineproyectos\PB\pbblow\Piercing Blow Remake\i3Server\include\i3Base\tinyxml.h
;	COMDAT ?SetName@TiXmlAttribute@@QAEXPBD@Z
_TEXT	SEGMENT
__name$ = 8						; size = 4
?SetName@TiXmlAttribute@@QAEXPBD@Z PROC			; TiXmlAttribute::SetName, COMDAT
; _this$ = ecx

; 839  : 	void SetName( const char* _name )	{ name = _name; }				///< Set the name of this attribute.

  00000	55		 push	 ebp
  00001	8b ec		 mov	 ebp, esp
; File E:\Proyectos\JuegosOnlineproyectos\PB\pbblow\Piercing Blow Remake\i3Server\include\i3Base\tinystr.h

; 114  : 		return assign( copy, (size_type)strlen(copy));

  00003	8b 55 08	 mov	 edx, DWORD PTR __name$[ebp]
  00006	8b c2		 mov	 eax, edx
; File E:\Proyectos\JuegosOnlineproyectos\PB\pbblow\Piercing Blow Remake\i3Server\include\i3Base\tinyxml.h

; 839  : 	void SetName( const char* _name )	{ name = _name; }				///< Set the name of this attribute.

  00008	56		 push	 esi
  00009	57		 push	 edi
  0000a	8b f1		 mov	 esi, ecx
; File E:\Proyectos\JuegosOnlineproyectos\PB\pbblow\Piercing Blow Remake\i3Server\include\i3Base\tinystr.h

; 114  : 		return assign( copy, (size_type)strlen(copy));

  0000c	8d 78 01	 lea	 edi, DWORD PTR [eax+1]
  0000f	90		 npad	 1
$LL5@SetName:
  00010	8a 08		 mov	 cl, BYTE PTR [eax]
  00012	40		 inc	 eax
  00013	84 c9		 test	 cl, cl
  00015	75 f9		 jne	 SHORT $LL5@SetName
  00017	2b c7		 sub	 eax, edi
; File E:\Proyectos\JuegosOnlineproyectos\PB\pbblow\Piercing Blow Remake\i3Server\include\i3Base\tinyxml.h

; 839  : 	void SetName( const char* _name )	{ name = _name; }				///< Set the name of this attribute.

  00019	8d 4e 14	 lea	 ecx, DWORD PTR [esi+20]
; File E:\Proyectos\JuegosOnlineproyectos\PB\pbblow\Piercing Blow Remake\i3Server\include\i3Base\tinystr.h

; 114  : 		return assign( copy, (size_type)strlen(copy));

  0001c	50		 push	 eax
  0001d	52		 push	 edx
  0001e	e8 00 00 00 00	 call	 ?assign@TiXmlString@@QAEAAV1@PBDI@Z ; TiXmlString::assign
  00023	5f		 pop	 edi
  00024	5e		 pop	 esi
; File E:\Proyectos\JuegosOnlineproyectos\PB\pbblow\Piercing Blow Remake\i3Server\include\i3Base\tinyxml.h

; 839  : 	void SetName( const char* _name )	{ name = _name; }				///< Set the name of this attribute.

  00025	5d		 pop	 ebp
  00026	c2 04 00	 ret	 4
?SetName@TiXmlAttribute@@QAEXPBD@Z ENDP			; TiXmlAttribute::SetName
_TEXT	ENDS
; Function compile flags: /Ogtp
; File E:\Proyectos\JuegosOnlineproyectos\PB\pbblow\Piercing Blow Remake\i3Server\include\i3Base\tinyxml.h
;	COMDAT ?NameTStr@TiXmlAttribute@@QBEABVTiXmlString@@XZ
_TEXT	SEGMENT
?NameTStr@TiXmlAttribute@@QBEABVTiXmlString@@XZ PROC	; TiXmlAttribute::NameTStr, COMDAT
; _this$ = ecx

; 824  : 	const TIXML_STRING& NameTStr() const { return name; }

  00000	8d 41 14	 lea	 eax, DWORD PTR [ecx+20]
  00003	c3		 ret	 0
?NameTStr@TiXmlAttribute@@QBEABVTiXmlString@@XZ ENDP	; TiXmlAttribute::NameTStr
_TEXT	ENDS
; Function compile flags: /Ogtp
; File E:\Proyectos\JuegosOnlineproyectos\PB\pbblow\Piercing Blow Remake\i3Server\include\i3Base\tinyxml.h
; File E:\Proyectos\JuegosOnlineproyectos\PB\pbblow\Piercing Blow Remake\i3Server\include\i3Base\tinystr.h
; File E:\Proyectos\JuegosOnlineproyectos\PB\pbblow\Piercing Blow Remake\i3Server\include\i3Base\tinyxml.h
;	COMDAT ?Value@TiXmlAttribute@@QBEPBDXZ
_TEXT	SEGMENT
?Value@TiXmlAttribute@@QBEPBDXZ PROC			; TiXmlAttribute::Value, COMDAT
; _this$ = ecx
; File E:\Proyectos\JuegosOnlineproyectos\PB\pbblow\Piercing Blow Remake\i3Server\include\i3Base\tinystr.h

; 144  : 	const char * c_str () const { return rep_->str; }

  00000	8b 41 18	 mov	 eax, DWORD PTR [ecx+24]
  00003	83 c0 08	 add	 eax, 8
; File E:\Proyectos\JuegosOnlineproyectos\PB\pbblow\Piercing Blow Remake\i3Server\include\i3Base\tinyxml.h

; 816  : 	const char*		Value() const		{ return value.c_str(); }		///< Return the value of this attribute.

  00006	c3		 ret	 0
?Value@TiXmlAttribute@@QBEPBDXZ ENDP			; TiXmlAttribute::Value
_TEXT	ENDS
; Function compile flags: /Ogtp
; File E:\Proyectos\JuegosOnlineproyectos\PB\pbblow\Piercing Blow Remake\i3Server\include\i3Base\tinyxml.h
; File E:\Proyectos\JuegosOnlineproyectos\PB\pbblow\Piercing Blow Remake\i3Server\include\i3Base\tinystr.h
; File E:\Proyectos\JuegosOnlineproyectos\PB\pbblow\Piercing Blow Remake\i3Server\include\i3Base\tinyxml.h
;	COMDAT ?Name@TiXmlAttribute@@QBEPBDXZ
_TEXT	SEGMENT
?Name@TiXmlAttribute@@QBEPBDXZ PROC			; TiXmlAttribute::Name, COMDAT
; _this$ = ecx
; File E:\Proyectos\JuegosOnlineproyectos\PB\pbblow\Piercing Blow Remake\i3Server\include\i3Base\tinystr.h

; 144  : 	const char * c_str () const { return rep_->str; }

  00000	8b 41 14	 mov	 eax, DWORD PTR [ecx+20]
  00003	83 c0 08	 add	 eax, 8
; File E:\Proyectos\JuegosOnlineproyectos\PB\pbblow\Piercing Blow Remake\i3Server\include\i3Base\tinyxml.h

; 815  : 	const char*		Name()  const		{ return name.c_str(); }		///< Return the name of this attribute.

  00006	c3		 ret	 0
?Name@TiXmlAttribute@@QBEPBDXZ ENDP			; TiXmlAttribute::Name
_TEXT	ENDS
; Function compile flags: /Ogtp
; File E:\Proyectos\JuegosOnlineproyectos\PB\pbblow\Piercing Blow Remake\i3Server\include\i3Base\tinyxml.h
; File E:\Proyectos\JuegosOnlineproyectos\PB\pbblow\Piercing Blow Remake\i3Server\include\i3Base\tinystr.h
; File E:\Proyectos\JuegosOnlineproyectos\PB\pbblow\Piercing Blow Remake\i3Server\include\i3Base\tinyxml.h
; File E:\Proyectos\JuegosOnlineproyectos\PB\pbblow\Piercing Blow Remake\i3Server\include\i3Base\tinystr.h
; File E:\Proyectos\JuegosOnlineproyectos\PB\pbblow\Piercing Blow Remake\i3Server\include\i3Base\tinyxml.h
;	COMDAT ??0TiXmlAttribute@@QAE@PBD0@Z
_TEXT	SEGMENT
_this$ = -16						; size = 4
__$EHRec$ = -12						; size = 12
__name$ = 8						; size = 4
tv85 = 8						; size = 4
__value$ = 12						; size = 4
??0TiXmlAttribute@@QAE@PBD0@Z PROC			; TiXmlAttribute::TiXmlAttribute, COMDAT
; _this$ = ecx

; 807  : 	TiXmlAttribute( const char * _name, const char * _value )

  00000	55		 push	 ebp
  00001	8b ec		 mov	 ebp, esp
  00003	6a ff		 push	 -1
  00005	68 00 00 00 00	 push	 __ehhandler$??0TiXmlAttribute@@QAE@PBD0@Z
  0000a	64 a1 00 00 00
	00		 mov	 eax, DWORD PTR fs:0
  00010	50		 push	 eax
  00011	51		 push	 ecx
  00012	53		 push	 ebx
  00013	56		 push	 esi
  00014	57		 push	 edi
  00015	a1 00 00 00 00	 mov	 eax, DWORD PTR ___security_cookie
  0001a	33 c5		 xor	 eax, ebp
  0001c	50		 push	 eax
  0001d	8d 45 f4	 lea	 eax, DWORD PTR __$EHRec$[ebp]
  00020	64 a3 00 00 00
	00		 mov	 DWORD PTR fs:0, eax
  00026	8b f1		 mov	 esi, ecx
  00028	89 75 f0	 mov	 DWORD PTR _this$[ebp], esi

; 107  : 	void Clear()		{ row = col = -1; }

  0002b	c7 46 08 ff ff
	ff ff		 mov	 DWORD PTR [esi+8], -1
  00032	c7 46 04 ff ff
	ff ff		 mov	 DWORD PTR [esi+4], -1

; 205  : 	TiXmlBase()	:	userData(0)		{}

  00039	c7 46 0c 00 00
	00 00		 mov	 DWORD PTR [esi+12], 0

; 808  : 	{

  00040	8d 4e 14	 lea	 ecx, DWORD PTR [esi+20]
  00043	c7 06 00 00 00
	00		 mov	 DWORD PTR [esi], OFFSET ??_7TiXmlAttribute@@6B@
  00049	c7 45 fc 00 00
	00 00		 mov	 DWORD PTR __$EHRec$[ebp+8], 0
; File E:\Proyectos\JuegosOnlineproyectos\PB\pbblow\Piercing Blow Remake\i3Server\include\i3Base\tinystr.h

; 80   : 	TiXmlString () : rep_(&nullrep_)

  00050	c7 01 00 00 00
	00		 mov	 DWORD PTR [ecx], OFFSET ?nullrep_@TiXmlString@@0URep@1@A ; TiXmlString::nullrep_
  00056	c7 46 18 00 00
	00 00		 mov	 DWORD PTR [esi+24], OFFSET ?nullrep_@TiXmlString@@0URep@1@A ; TiXmlString::nullrep_

; 114  : 		return assign( copy, (size_type)strlen(copy));

  0005d	8b 7d 08	 mov	 edi, DWORD PTR __name$[ebp]
  00060	8b d7		 mov	 edx, edi
; File E:\Proyectos\JuegosOnlineproyectos\PB\pbblow\Piercing Blow Remake\i3Server\include\i3Base\tinyxml.h

; 808  : 	{

  00062	c6 45 fc 02	 mov	 BYTE PTR __$EHRec$[ebp+8], 2
; File E:\Proyectos\JuegosOnlineproyectos\PB\pbblow\Piercing Blow Remake\i3Server\include\i3Base\tinystr.h

; 114  : 		return assign( copy, (size_type)strlen(copy));

  00066	8d 42 01	 lea	 eax, DWORD PTR [edx+1]
  00069	89 45 08	 mov	 DWORD PTR tv85[ebp], eax
  0006c	8d 64 24 00	 npad	 4
$LL20@TiXmlAttri:
  00070	8a 02		 mov	 al, BYTE PTR [edx]
  00072	42		 inc	 edx
  00073	84 c0		 test	 al, al
  00075	75 f9		 jne	 SHORT $LL20@TiXmlAttri
  00077	2b 55 08	 sub	 edx, DWORD PTR tv85[ebp]
  0007a	52		 push	 edx
  0007b	57		 push	 edi
  0007c	e8 00 00 00 00	 call	 ?assign@TiXmlString@@QAEAAV1@PBDI@Z ; TiXmlString::assign
  00081	8b 7d 0c	 mov	 edi, DWORD PTR __value$[ebp]
  00084	8b c7		 mov	 eax, edi
  00086	8d 48 01	 lea	 ecx, DWORD PTR [eax+1]
  00089	8d a4 24 00 00
	00 00		 npad	 7
$LL21@TiXmlAttri:
  00090	8a 10		 mov	 dl, BYTE PTR [eax]
  00092	40		 inc	 eax
  00093	84 d2		 test	 dl, dl
  00095	75 f9		 jne	 SHORT $LL21@TiXmlAttri
  00097	2b c1		 sub	 eax, ecx
  00099	8d 4e 18	 lea	 ecx, DWORD PTR [esi+24]
  0009c	50		 push	 eax
  0009d	57		 push	 edi
  0009e	e8 00 00 00 00	 call	 ?assign@TiXmlString@@QAEAAV1@PBDI@Z ; TiXmlString::assign
; File E:\Proyectos\JuegosOnlineproyectos\PB\pbblow\Piercing Blow Remake\i3Server\include\i3Base\tinyxml.h

; 811  : 		document = 0;

  000a3	c7 46 10 00 00
	00 00		 mov	 DWORD PTR [esi+16], 0

; 812  : 		prev = next = 0;
; 813  : 	}

  000aa	8b c6		 mov	 eax, esi
  000ac	c7 46 20 00 00
	00 00		 mov	 DWORD PTR [esi+32], 0
  000b3	c7 46 1c 00 00
	00 00		 mov	 DWORD PTR [esi+28], 0
  000ba	8b 4d f4	 mov	 ecx, DWORD PTR __$EHRec$[ebp]
  000bd	64 89 0d 00 00
	00 00		 mov	 DWORD PTR fs:0, ecx
  000c4	59		 pop	 ecx
  000c5	5f		 pop	 edi
  000c6	5e		 pop	 esi
  000c7	5b		 pop	 ebx
  000c8	8b e5		 mov	 esp, ebp
  000ca	5d		 pop	 ebp
  000cb	c2 08 00	 ret	 8
_TEXT	ENDS
;	COMDAT text$x
text$x	SEGMENT
__unwindfunclet$??0TiXmlAttribute@@QAE@PBD0@Z$0:
  00000	8b 4d f0	 mov	 ecx, DWORD PTR _this$[ebp]
  00003	e9 00 00 00 00	 jmp	 ??1TiXmlBase@@UAE@XZ	; TiXmlBase::~TiXmlBase
__unwindfunclet$??0TiXmlAttribute@@QAE@PBD0@Z$1:
  00008	8b 4d f0	 mov	 ecx, DWORD PTR _this$[ebp]
  0000b	83 c1 14	 add	 ecx, 20			; 00000014H
  0000e	e9 00 00 00 00	 jmp	 ??1TiXmlString@@QAE@XZ	; TiXmlString::~TiXmlString
__unwindfunclet$??0TiXmlAttribute@@QAE@PBD0@Z$2:
  00013	8b 4d f0	 mov	 ecx, DWORD PTR _this$[ebp]
  00016	83 c1 18	 add	 ecx, 24			; 00000018H
  00019	e9 00 00 00 00	 jmp	 ??1TiXmlString@@QAE@XZ	; TiXmlString::~TiXmlString
  0001e	cc		 int	 3
  0001f	cc		 int	 3
  00020	cc		 int	 3
  00021	cc		 int	 3
  00022	cc		 int	 3
__ehhandler$??0TiXmlAttribute@@QAE@PBD0@Z:
  00023	90		 npad	 1
  00024	90		 npad	 1
  00025	8b 54 24 08	 mov	 edx, DWORD PTR [esp+8]
  00029	8d 42 0c	 lea	 eax, DWORD PTR [edx+12]
  0002c	8b 4a ec	 mov	 ecx, DWORD PTR [edx-20]
  0002f	33 c8		 xor	 ecx, eax
  00031	e8 00 00 00 00	 call	 @__security_check_cookie@4
  00036	b8 00 00 00 00	 mov	 eax, OFFSET __ehfuncinfo$??0TiXmlAttribute@@QAE@PBD0@Z
  0003b	e9 00 00 00 00	 jmp	 ___CxxFrameHandler3
text$x	ENDS
??0TiXmlAttribute@@QAE@PBD0@Z ENDP			; TiXmlAttribute::TiXmlAttribute
; Function compile flags: /Ogtp
; File E:\Proyectos\JuegosOnlineproyectos\PB\pbblow\Piercing Blow Remake\i3Server\include\i3Base\tinyxml.h
; File E:\Proyectos\JuegosOnlineproyectos\PB\pbblow\Piercing Blow Remake\i3Server\include\i3Base\tinystr.h
; File E:\Proyectos\JuegosOnlineproyectos\PB\pbblow\Piercing Blow Remake\i3Server\include\i3Base\tinyxml.h
;	COMDAT ??0TiXmlAttribute@@QAE@XZ
_TEXT	SEGMENT
_this$ = -4						; size = 4
??0TiXmlAttribute@@QAE@XZ PROC				; TiXmlAttribute::TiXmlAttribute, COMDAT
; _this$ = ecx

; 790  : 	{

  00000	55		 push	 ebp
  00001	8b ec		 mov	 ebp, esp
  00003	51		 push	 ecx

; 107  : 	void Clear()		{ row = col = -1; }

  00004	c7 41 08 ff ff
	ff ff		 mov	 DWORD PTR [ecx+8], -1

; 793  : 	}

  0000b	8b c1		 mov	 eax, ecx

; 107  : 	void Clear()		{ row = col = -1; }

  0000d	c7 41 04 ff ff
	ff ff		 mov	 DWORD PTR [ecx+4], -1

; 205  : 	TiXmlBase()	:	userData(0)		{}

  00014	c7 41 0c 00 00
	00 00		 mov	 DWORD PTR [ecx+12], 0

; 790  : 	{

  0001b	c7 01 00 00 00
	00		 mov	 DWORD PTR [ecx], OFFSET ??_7TiXmlAttribute@@6B@
; File E:\Proyectos\JuegosOnlineproyectos\PB\pbblow\Piercing Blow Remake\i3Server\include\i3Base\tinystr.h

; 80   : 	TiXmlString () : rep_(&nullrep_)

  00021	c7 41 14 00 00
	00 00		 mov	 DWORD PTR [ecx+20], OFFSET ?nullrep_@TiXmlString@@0URep@1@A ; TiXmlString::nullrep_
  00028	c7 41 18 00 00
	00 00		 mov	 DWORD PTR [ecx+24], OFFSET ?nullrep_@TiXmlString@@0URep@1@A ; TiXmlString::nullrep_
; File E:\Proyectos\JuegosOnlineproyectos\PB\pbblow\Piercing Blow Remake\i3Server\include\i3Base\tinyxml.h

; 790  : 	{

  0002f	89 4d fc	 mov	 DWORD PTR _this$[ebp], ecx

; 791  : 		document = 0;

  00032	c7 41 10 00 00
	00 00		 mov	 DWORD PTR [ecx+16], 0

; 792  : 		prev = next = 0;

  00039	c7 41 20 00 00
	00 00		 mov	 DWORD PTR [ecx+32], 0
  00040	c7 41 1c 00 00
	00 00		 mov	 DWORD PTR [ecx+28], 0

; 793  : 	}

  00047	8b e5		 mov	 esp, ebp
  00049	5d		 pop	 ebp
  0004a	c3		 ret	 0
??0TiXmlAttribute@@QAE@XZ ENDP				; TiXmlAttribute::TiXmlAttribute
_TEXT	ENDS
; Function compile flags: /Ogtp
; File E:\Proyectos\JuegosOnlineproyectos\PB\pbblow\Piercing Blow Remake\i3Server\include\i3Base\tinyxml.h
;	COMDAT ?ToDeclaration@TiXmlNode@@UAEPAVTiXmlDeclaration@@XZ
_TEXT	SEGMENT
?ToDeclaration@TiXmlNode@@UAEPAVTiXmlDeclaration@@XZ PROC ; TiXmlNode::ToDeclaration, COMDAT
; _this$ = ecx

; 713  : 	virtual TiXmlDeclaration*       ToDeclaration() { return 0; } ///< Cast to a more defined type. Will return null if not of the requested type.

  00000	33 c0		 xor	 eax, eax
  00002	c3		 ret	 0
?ToDeclaration@TiXmlNode@@UAEPAVTiXmlDeclaration@@XZ ENDP ; TiXmlNode::ToDeclaration
_TEXT	ENDS
; Function compile flags: /Ogtp
; File E:\Proyectos\JuegosOnlineproyectos\PB\pbblow\Piercing Blow Remake\i3Server\include\i3Base\tinyxml.h
;	COMDAT ?ToText@TiXmlNode@@UAEPAVTiXmlText@@XZ
_TEXT	SEGMENT
?ToText@TiXmlNode@@UAEPAVTiXmlText@@XZ PROC		; TiXmlNode::ToText, COMDAT
; _this$ = ecx

; 712  : 	virtual TiXmlText*	            ToText()        { return 0; } ///< Cast to a more defined type. Will return null if not of the requested type.

  00000	33 c0		 xor	 eax, eax
  00002	c3		 ret	 0
?ToText@TiXmlNode@@UAEPAVTiXmlText@@XZ ENDP		; TiXmlNode::ToText
_TEXT	ENDS
; Function compile flags: /Ogtp
; File E:\Proyectos\JuegosOnlineproyectos\PB\pbblow\Piercing Blow Remake\i3Server\include\i3Base\tinyxml.h
;	COMDAT ?ToUnknown@TiXmlNode@@UAEPAVTiXmlUnknown@@XZ
_TEXT	SEGMENT
?ToUnknown@TiXmlNode@@UAEPAVTiXmlUnknown@@XZ PROC	; TiXmlNode::ToUnknown, COMDAT
; _this$ = ecx

; 711  : 	virtual TiXmlUnknown*           ToUnknown()	    { return 0; } ///< Cast to a more defined type. Will return null if not of the requested type.

  00000	33 c0		 xor	 eax, eax
  00002	c3		 ret	 0
?ToUnknown@TiXmlNode@@UAEPAVTiXmlUnknown@@XZ ENDP	; TiXmlNode::ToUnknown
_TEXT	ENDS
; Function compile flags: /Ogtp
; File E:\Proyectos\JuegosOnlineproyectos\PB\pbblow\Piercing Blow Remake\i3Server\include\i3Base\tinyxml.h
;	COMDAT ?ToComment@TiXmlNode@@UAEPAVTiXmlComment@@XZ
_TEXT	SEGMENT
?ToComment@TiXmlNode@@UAEPAVTiXmlComment@@XZ PROC	; TiXmlNode::ToComment, COMDAT
; _this$ = ecx

; 710  : 	virtual TiXmlComment*           ToComment()     { return 0; } ///< Cast to a more defined type. Will return null if not of the requested type.

  00000	33 c0		 xor	 eax, eax
  00002	c3		 ret	 0
?ToComment@TiXmlNode@@UAEPAVTiXmlComment@@XZ ENDP	; TiXmlNode::ToComment
_TEXT	ENDS
; Function compile flags: /Ogtp
; File E:\Proyectos\JuegosOnlineproyectos\PB\pbblow\Piercing Blow Remake\i3Server\include\i3Base\tinyxml.h
;	COMDAT ?ToElement@TiXmlNode@@UAEPAVTiXmlElement@@XZ
_TEXT	SEGMENT
?ToElement@TiXmlNode@@UAEPAVTiXmlElement@@XZ PROC	; TiXmlNode::ToElement, COMDAT
; _this$ = ecx

; 709  : 	virtual TiXmlElement*           ToElement()	    { return 0; } ///< Cast to a more defined type. Will return null if not of the requested type.

  00000	33 c0		 xor	 eax, eax
  00002	c3		 ret	 0
?ToElement@TiXmlNode@@UAEPAVTiXmlElement@@XZ ENDP	; TiXmlNode::ToElement
_TEXT	ENDS
; Function compile flags: /Ogtp
; File E:\Proyectos\JuegosOnlineproyectos\PB\pbblow\Piercing Blow Remake\i3Server\include\i3Base\tinyxml.h
;	COMDAT ?ToDocument@TiXmlNode@@UAEPAVTiXmlDocument@@XZ
_TEXT	SEGMENT
?ToDocument@TiXmlNode@@UAEPAVTiXmlDocument@@XZ PROC	; TiXmlNode::ToDocument, COMDAT
; _this$ = ecx

; 708  : 	virtual TiXmlDocument*          ToDocument()    { return 0; } ///< Cast to a more defined type. Will return null if not of the requested type.

  00000	33 c0		 xor	 eax, eax
  00002	c3		 ret	 0
?ToDocument@TiXmlNode@@UAEPAVTiXmlDocument@@XZ ENDP	; TiXmlNode::ToDocument
_TEXT	ENDS
; Function compile flags: /Ogtp
; File E:\Proyectos\JuegosOnlineproyectos\PB\pbblow\Piercing Blow Remake\i3Server\include\i3Base\tinyxml.h
;	COMDAT ?ToDeclaration@TiXmlNode@@UBEPBVTiXmlDeclaration@@XZ
_TEXT	SEGMENT
?ToDeclaration@TiXmlNode@@UBEPBVTiXmlDeclaration@@XZ PROC ; TiXmlNode::ToDeclaration, COMDAT
; _this$ = ecx

; 706  : 	virtual const TiXmlDeclaration* ToDeclaration() const { return 0; } ///< Cast to a more defined type. Will return null if not of the requested type.

  00000	33 c0		 xor	 eax, eax
  00002	c3		 ret	 0
?ToDeclaration@TiXmlNode@@UBEPBVTiXmlDeclaration@@XZ ENDP ; TiXmlNode::ToDeclaration
_TEXT	ENDS
; Function compile flags: /Ogtp
; File E:\Proyectos\JuegosOnlineproyectos\PB\pbblow\Piercing Blow Remake\i3Server\include\i3Base\tinyxml.h
;	COMDAT ?ToText@TiXmlNode@@UBEPBVTiXmlText@@XZ
_TEXT	SEGMENT
?ToText@TiXmlNode@@UBEPBVTiXmlText@@XZ PROC		; TiXmlNode::ToText, COMDAT
; _this$ = ecx

; 705  : 	virtual const TiXmlText*        ToText()        const { return 0; } ///< Cast to a more defined type. Will return null if not of the requested type.

  00000	33 c0		 xor	 eax, eax
  00002	c3		 ret	 0
?ToText@TiXmlNode@@UBEPBVTiXmlText@@XZ ENDP		; TiXmlNode::ToText
_TEXT	ENDS
; Function compile flags: /Ogtp
; File E:\Proyectos\JuegosOnlineproyectos\PB\pbblow\Piercing Blow Remake\i3Server\include\i3Base\tinyxml.h
;	COMDAT ?ToUnknown@TiXmlNode@@UBEPBVTiXmlUnknown@@XZ
_TEXT	SEGMENT
?ToUnknown@TiXmlNode@@UBEPBVTiXmlUnknown@@XZ PROC	; TiXmlNode::ToUnknown, COMDAT
; _this$ = ecx

; 704  : 	virtual const TiXmlUnknown*     ToUnknown()     const { return 0; } ///< Cast to a more defined type. Will return null if not of the requested type.

  00000	33 c0		 xor	 eax, eax
  00002	c3		 ret	 0
?ToUnknown@TiXmlNode@@UBEPBVTiXmlUnknown@@XZ ENDP	; TiXmlNode::ToUnknown
_TEXT	ENDS
; Function compile flags: /Ogtp
; File E:\Proyectos\JuegosOnlineproyectos\PB\pbblow\Piercing Blow Remake\i3Server\include\i3Base\tinyxml.h
;	COMDAT ?ToComment@TiXmlNode@@UBEPBVTiXmlComment@@XZ
_TEXT	SEGMENT
?ToComment@TiXmlNode@@UBEPBVTiXmlComment@@XZ PROC	; TiXmlNode::ToComment, COMDAT
; _this$ = ecx

; 703  : 	virtual const TiXmlComment*     ToComment()     const { return 0; } ///< Cast to a more defined type. Will return null if not of the requested type.

  00000	33 c0		 xor	 eax, eax
  00002	c3		 ret	 0
?ToComment@TiXmlNode@@UBEPBVTiXmlComment@@XZ ENDP	; TiXmlNode::ToComment
_TEXT	ENDS
; Function compile flags: /Ogtp
; File E:\Proyectos\JuegosOnlineproyectos\PB\pbblow\Piercing Blow Remake\i3Server\include\i3Base\tinyxml.h
;	COMDAT ?ToElement@TiXmlNode@@UBEPBVTiXmlElement@@XZ
_TEXT	SEGMENT
?ToElement@TiXmlNode@@UBEPBVTiXmlElement@@XZ PROC	; TiXmlNode::ToElement, COMDAT
; _this$ = ecx

; 702  : 	virtual const TiXmlElement*     ToElement()     const { return 0; } ///< Cast to a more defined type. Will return null if not of the requested type.

  00000	33 c0		 xor	 eax, eax
  00002	c3		 ret	 0
?ToElement@TiXmlNode@@UBEPBVTiXmlElement@@XZ ENDP	; TiXmlNode::ToElement
_TEXT	ENDS
; Function compile flags: /Ogtp
; File E:\Proyectos\JuegosOnlineproyectos\PB\pbblow\Piercing Blow Remake\i3Server\include\i3Base\tinyxml.h
;	COMDAT ?ToDocument@TiXmlNode@@UBEPBVTiXmlDocument@@XZ
_TEXT	SEGMENT
?ToDocument@TiXmlNode@@UBEPBVTiXmlDocument@@XZ PROC	; TiXmlNode::ToDocument, COMDAT
; _this$ = ecx

; 701  : 	virtual const TiXmlDocument*    ToDocument()    const { return 0; } ///< Cast to a more defined type. Will return null if not of the requested type.

  00000	33 c0		 xor	 eax, eax
  00002	c3		 ret	 0
?ToDocument@TiXmlNode@@UBEPBVTiXmlDocument@@XZ ENDP	; TiXmlNode::ToDocument
_TEXT	ENDS
; Function compile flags: /Ogtp
; File E:\Proyectos\JuegosOnlineproyectos\PB\pbblow\Piercing Blow Remake\i3Server\include\i3Base\tinyxml.h
;	COMDAT ?NoChildren@TiXmlNode@@QBE_NXZ
_TEXT	SEGMENT
?NoChildren@TiXmlNode@@QBE_NXZ PROC			; TiXmlNode::NoChildren, COMDAT
; _this$ = ecx

; 699  : 	bool NoChildren() const						{ return !firstChild; }

  00000	83 79 18 00	 cmp	 DWORD PTR [ecx+24], 0
  00004	0f 94 c0	 sete	 al
  00007	c3		 ret	 0
?NoChildren@TiXmlNode@@QBE_NXZ ENDP			; TiXmlNode::NoChildren
_TEXT	ENDS
; Function compile flags: /Ogtp
; File E:\Proyectos\JuegosOnlineproyectos\PB\pbblow\Piercing Blow Remake\i3Server\include\i3Base\tinyxml.h
;	COMDAT ?GetDocument@TiXmlNode@@QAEPAVTiXmlDocument@@XZ
_TEXT	SEGMENT
?GetDocument@TiXmlNode@@QAEPAVTiXmlDocument@@XZ PROC	; TiXmlNode::GetDocument, COMDAT
; _this$ = ecx

; 695  : 		return const_cast< TiXmlDocument* >( (const_cast< const TiXmlNode* >(this))->GetDocument() );

  00000	e9 00 00 00 00	 jmp	 ?GetDocument@TiXmlNode@@QBEPBVTiXmlDocument@@XZ ; TiXmlNode::GetDocument
?GetDocument@TiXmlNode@@QAEPAVTiXmlDocument@@XZ ENDP	; TiXmlNode::GetDocument
_TEXT	ENDS
; Function compile flags: /Ogtp
; File E:\Proyectos\JuegosOnlineproyectos\PB\pbblow\Piercing Blow Remake\i3Server\include\i3Base\tinyxml.h
;	COMDAT ?Type@TiXmlNode@@QBEHXZ
_TEXT	SEGMENT
?Type@TiXmlNode@@QBEHXZ PROC				; TiXmlNode::Type, COMDAT
; _this$ = ecx

; 688  : 	int Type() const	{ return type; }

  00000	8b 41 14	 mov	 eax, DWORD PTR [ecx+20]
  00003	c3		 ret	 0
?Type@TiXmlNode@@QBEHXZ ENDP				; TiXmlNode::Type
_TEXT	ENDS
; Function compile flags: /Ogtp
; File E:\Proyectos\JuegosOnlineproyectos\PB\pbblow\Piercing Blow Remake\i3Server\include\i3Base\tinyxml.h
;	COMDAT ?FirstChildElement@TiXmlNode@@QAEPAVTiXmlElement@@PBD@Z
_TEXT	SEGMENT
__value$ = 8						; size = 4
?FirstChildElement@TiXmlNode@@QAEPAVTiXmlElement@@PBD@Z PROC ; TiXmlNode::FirstChildElement, COMDAT
; _this$ = ecx

; 675  : 	TiXmlElement* FirstChildElement( const char * _value ) {

  00000	55		 push	 ebp
  00001	8b ec		 mov	 ebp, esp

; 677  : 	}

  00003	5d		 pop	 ebp

; 676  : 		return const_cast< TiXmlElement* >( (const_cast< const TiXmlNode* >(this))->FirstChildElement( _value ) );

  00004	e9 00 00 00 00	 jmp	 ?FirstChildElement@TiXmlNode@@QBEPBVTiXmlElement@@PBD@Z ; TiXmlNode::FirstChildElement
?FirstChildElement@TiXmlNode@@QAEPAVTiXmlElement@@PBD@Z ENDP ; TiXmlNode::FirstChildElement
_TEXT	ENDS
; Function compile flags: /Ogtp
; File E:\Proyectos\JuegosOnlineproyectos\PB\pbblow\Piercing Blow Remake\i3Server\include\i3Base\tinyxml.h
;	COMDAT ?FirstChildElement@TiXmlNode@@QAEPAVTiXmlElement@@XZ
_TEXT	SEGMENT
?FirstChildElement@TiXmlNode@@QAEPAVTiXmlElement@@XZ PROC ; TiXmlNode::FirstChildElement, COMDAT
; _this$ = ecx

; 670  : 		return const_cast< TiXmlElement* >( (const_cast< const TiXmlNode* >(this))->FirstChildElement() );

  00000	e9 00 00 00 00	 jmp	 ?FirstChildElement@TiXmlNode@@QBEPBVTiXmlElement@@XZ ; TiXmlNode::FirstChildElement
?FirstChildElement@TiXmlNode@@QAEPAVTiXmlElement@@XZ ENDP ; TiXmlNode::FirstChildElement
_TEXT	ENDS
; Function compile flags: /Ogtp
; File E:\Proyectos\JuegosOnlineproyectos\PB\pbblow\Piercing Blow Remake\i3Server\include\i3Base\tinyxml.h
;	COMDAT ?NextSiblingElement@TiXmlNode@@QAEPAVTiXmlElement@@PBD@Z
_TEXT	SEGMENT
__next$ = 8						; size = 4
?NextSiblingElement@TiXmlNode@@QAEPAVTiXmlElement@@PBD@Z PROC ; TiXmlNode::NextSiblingElement, COMDAT
; _this$ = ecx

; 658  : 	TiXmlElement* NextSiblingElement( const char *_next ) {

  00000	55		 push	 ebp
  00001	8b ec		 mov	 ebp, esp

; 660  : 	}

  00003	5d		 pop	 ebp

; 659  : 		return const_cast< TiXmlElement* >( (const_cast< const TiXmlNode* >(this))->NextSiblingElement( _next ) );

  00004	e9 00 00 00 00	 jmp	 ?NextSiblingElement@TiXmlNode@@QBEPBVTiXmlElement@@PBD@Z ; TiXmlNode::NextSiblingElement
?NextSiblingElement@TiXmlNode@@QAEPAVTiXmlElement@@PBD@Z ENDP ; TiXmlNode::NextSiblingElement
_TEXT	ENDS
; Function compile flags: /Ogtp
; File E:\Proyectos\JuegosOnlineproyectos\PB\pbblow\Piercing Blow Remake\i3Server\include\i3Base\tinyxml.h
;	COMDAT ?NextSiblingElement@TiXmlNode@@QAEPAVTiXmlElement@@XZ
_TEXT	SEGMENT
?NextSiblingElement@TiXmlNode@@QAEPAVTiXmlElement@@XZ PROC ; TiXmlNode::NextSiblingElement, COMDAT
; _this$ = ecx

; 650  : 		return const_cast< TiXmlElement* >( (const_cast< const TiXmlNode* >(this))->NextSiblingElement() );

  00000	e9 00 00 00 00	 jmp	 ?NextSiblingElement@TiXmlNode@@QBEPBVTiXmlElement@@XZ ; TiXmlNode::NextSiblingElement
?NextSiblingElement@TiXmlNode@@QAEPAVTiXmlElement@@XZ ENDP ; TiXmlNode::NextSiblingElement
_TEXT	ENDS
; Function compile flags: /Ogtp
; File E:\Proyectos\JuegosOnlineproyectos\PB\pbblow\Piercing Blow Remake\i3Server\include\i3Base\tinyxml.h
;	COMDAT ?NextSibling@TiXmlNode@@QAEPAV1@PBD@Z
_TEXT	SEGMENT
__next$ = 8						; size = 4
?NextSibling@TiXmlNode@@QAEPAV1@PBD@Z PROC		; TiXmlNode::NextSibling, COMDAT
; _this$ = ecx

; 640  : 	TiXmlNode* NextSibling( const char* _next ) {

  00000	55		 push	 ebp
  00001	8b ec		 mov	 ebp, esp

; 642  : 	}

  00003	5d		 pop	 ebp

; 641  : 		return const_cast< TiXmlNode* >( (const_cast< const TiXmlNode* >(this))->NextSibling( _next ) );

  00004	e9 00 00 00 00	 jmp	 ?NextSibling@TiXmlNode@@QBEPBV1@PBD@Z ; TiXmlNode::NextSibling
?NextSibling@TiXmlNode@@QAEPAV1@PBD@Z ENDP		; TiXmlNode::NextSibling
_TEXT	ENDS
; Function compile flags: /Ogtp
; File E:\Proyectos\JuegosOnlineproyectos\PB\pbblow\Piercing Blow Remake\i3Server\include\i3Base\tinyxml.h
;	COMDAT ?NextSibling@TiXmlNode@@QAEPAV1@XZ
_TEXT	SEGMENT
?NextSibling@TiXmlNode@@QAEPAV1@XZ PROC			; TiXmlNode::NextSibling, COMDAT
; _this$ = ecx

; 636  : 	TiXmlNode* NextSibling()							{ return next; }

  00000	8b 41 28	 mov	 eax, DWORD PTR [ecx+40]
  00003	c3		 ret	 0
?NextSibling@TiXmlNode@@QAEPAV1@XZ ENDP			; TiXmlNode::NextSibling
_TEXT	ENDS
; Function compile flags: /Ogtp
; File E:\Proyectos\JuegosOnlineproyectos\PB\pbblow\Piercing Blow Remake\i3Server\include\i3Base\tinyxml.h
;	COMDAT ?NextSibling@TiXmlNode@@QBEPBV1@XZ
_TEXT	SEGMENT
?NextSibling@TiXmlNode@@QBEPBV1@XZ PROC			; TiXmlNode::NextSibling, COMDAT
; _this$ = ecx

; 635  : 	const TiXmlNode* NextSibling() const				{ return next; }

  00000	8b 41 28	 mov	 eax, DWORD PTR [ecx+40]
  00003	c3		 ret	 0
?NextSibling@TiXmlNode@@QBEPBV1@XZ ENDP			; TiXmlNode::NextSibling
_TEXT	ENDS
; Function compile flags: /Ogtp
; File E:\Proyectos\JuegosOnlineproyectos\PB\pbblow\Piercing Blow Remake\i3Server\include\i3Base\tinyxml.h
;	COMDAT ?PreviousSibling@TiXmlNode@@QAEPAV1@PBD@Z
_TEXT	SEGMENT
__prev$ = 8						; size = 4
?PreviousSibling@TiXmlNode@@QAEPAV1@PBD@Z PROC		; TiXmlNode::PreviousSibling, COMDAT
; _this$ = ecx

; 623  : 	TiXmlNode* PreviousSibling( const char *_prev ) {

  00000	55		 push	 ebp
  00001	8b ec		 mov	 ebp, esp

; 625  : 	}

  00003	5d		 pop	 ebp

; 624  : 		return const_cast< TiXmlNode* >( (const_cast< const TiXmlNode* >(this))->PreviousSibling( _prev ) );

  00004	e9 00 00 00 00	 jmp	 ?PreviousSibling@TiXmlNode@@QBEPBV1@PBD@Z ; TiXmlNode::PreviousSibling
?PreviousSibling@TiXmlNode@@QAEPAV1@PBD@Z ENDP		; TiXmlNode::PreviousSibling
_TEXT	ENDS
; Function compile flags: /Ogtp
; File E:\Proyectos\JuegosOnlineproyectos\PB\pbblow\Piercing Blow Remake\i3Server\include\i3Base\tinyxml.h
;	COMDAT ?PreviousSibling@TiXmlNode@@QAEPAV1@XZ
_TEXT	SEGMENT
?PreviousSibling@TiXmlNode@@QAEPAV1@XZ PROC		; TiXmlNode::PreviousSibling, COMDAT
; _this$ = ecx

; 619  : 	TiXmlNode* PreviousSibling()						{ return prev; }

  00000	8b 41 24	 mov	 eax, DWORD PTR [ecx+36]
  00003	c3		 ret	 0
?PreviousSibling@TiXmlNode@@QAEPAV1@XZ ENDP		; TiXmlNode::PreviousSibling
_TEXT	ENDS
; Function compile flags: /Ogtp
; File E:\Proyectos\JuegosOnlineproyectos\PB\pbblow\Piercing Blow Remake\i3Server\include\i3Base\tinyxml.h
;	COMDAT ?PreviousSibling@TiXmlNode@@QBEPBV1@XZ
_TEXT	SEGMENT
?PreviousSibling@TiXmlNode@@QBEPBV1@XZ PROC		; TiXmlNode::PreviousSibling, COMDAT
; _this$ = ecx

; 618  : 	const TiXmlNode* PreviousSibling() const			{ return prev; }

  00000	8b 41 24	 mov	 eax, DWORD PTR [ecx+36]
  00003	c3		 ret	 0
?PreviousSibling@TiXmlNode@@QBEPBV1@XZ ENDP		; TiXmlNode::PreviousSibling
_TEXT	ENDS
; Function compile flags: /Ogtp
; File E:\Proyectos\JuegosOnlineproyectos\PB\pbblow\Piercing Blow Remake\i3Server\include\i3Base\tinyxml.h
;	COMDAT ?IterateChildren@TiXmlNode@@QAEPAV1@PBDPBV1@@Z
_TEXT	SEGMENT
__value$ = 8						; size = 4
_previous$ = 12						; size = 4
?IterateChildren@TiXmlNode@@QAEPAV1@PBDPBV1@@Z PROC	; TiXmlNode::IterateChildren, COMDAT
; _this$ = ecx

; 573  : 	TiXmlNode* IterateChildren( const char * _value, const TiXmlNode* previous ) {

  00000	55		 push	 ebp
  00001	8b ec		 mov	 ebp, esp

; 575  : 	}

  00003	5d		 pop	 ebp

; 574  : 		return const_cast< TiXmlNode* >( (const_cast< const TiXmlNode* >(this))->IterateChildren( _value, previous ) );

  00004	e9 00 00 00 00	 jmp	 ?IterateChildren@TiXmlNode@@QBEPBV1@PBDPBV1@@Z ; TiXmlNode::IterateChildren
?IterateChildren@TiXmlNode@@QAEPAV1@PBDPBV1@@Z ENDP	; TiXmlNode::IterateChildren
_TEXT	ENDS
; Function compile flags: /Ogtp
; File E:\Proyectos\JuegosOnlineproyectos\PB\pbblow\Piercing Blow Remake\i3Server\include\i3Base\tinyxml.h
;	COMDAT ?IterateChildren@TiXmlNode@@QAEPAV1@PBV1@@Z
_TEXT	SEGMENT
_previous$ = 8						; size = 4
?IterateChildren@TiXmlNode@@QAEPAV1@PBV1@@Z PROC	; TiXmlNode::IterateChildren, COMDAT
; _this$ = ecx

; 567  : 	TiXmlNode* IterateChildren( const TiXmlNode* previous ) {

  00000	55		 push	 ebp
  00001	8b ec		 mov	 ebp, esp

; 569  : 	}

  00003	5d		 pop	 ebp

; 568  : 		return const_cast< TiXmlNode* >( (const_cast< const TiXmlNode* >(this))->IterateChildren( previous ) );

  00004	e9 00 00 00 00	 jmp	 ?IterateChildren@TiXmlNode@@QBEPBV1@PBV1@@Z ; TiXmlNode::IterateChildren
?IterateChildren@TiXmlNode@@QAEPAV1@PBV1@@Z ENDP	; TiXmlNode::IterateChildren
_TEXT	ENDS
; Function compile flags: /Ogtp
; File E:\Proyectos\JuegosOnlineproyectos\PB\pbblow\Piercing Blow Remake\i3Server\include\i3Base\tinyxml.h
;	COMDAT ?LastChild@TiXmlNode@@QAEPAV1@PBD@Z
_TEXT	SEGMENT
__value$ = 8						; size = 4
?LastChild@TiXmlNode@@QAEPAV1@PBD@Z PROC		; TiXmlNode::LastChild, COMDAT
; _this$ = ecx

; 539  : 	TiXmlNode* LastChild( const char * _value ) {

  00000	55		 push	 ebp
  00001	8b ec		 mov	 ebp, esp

; 541  : 	}

  00003	5d		 pop	 ebp

; 540  : 		return const_cast< TiXmlNode* > ((const_cast< const TiXmlNode* >(this))->LastChild( _value ));

  00004	e9 00 00 00 00	 jmp	 ?LastChild@TiXmlNode@@QBEPBV1@PBD@Z ; TiXmlNode::LastChild
?LastChild@TiXmlNode@@QAEPAV1@PBD@Z ENDP		; TiXmlNode::LastChild
_TEXT	ENDS
; Function compile flags: /Ogtp
; File E:\Proyectos\JuegosOnlineproyectos\PB\pbblow\Piercing Blow Remake\i3Server\include\i3Base\tinyxml.h
;	COMDAT ?LastChild@TiXmlNode@@QAEPAV1@XZ
_TEXT	SEGMENT
?LastChild@TiXmlNode@@QAEPAV1@XZ PROC			; TiXmlNode::LastChild, COMDAT
; _this$ = ecx

; 536  : 	TiXmlNode* LastChild()	{ return lastChild; }

  00000	8b 41 1c	 mov	 eax, DWORD PTR [ecx+28]
  00003	c3		 ret	 0
?LastChild@TiXmlNode@@QAEPAV1@XZ ENDP			; TiXmlNode::LastChild
_TEXT	ENDS
; Function compile flags: /Ogtp
; File E:\Proyectos\JuegosOnlineproyectos\PB\pbblow\Piercing Blow Remake\i3Server\include\i3Base\tinyxml.h
;	COMDAT ?LastChild@TiXmlNode@@QBEPBV1@XZ
_TEXT	SEGMENT
?LastChild@TiXmlNode@@QBEPBV1@XZ PROC			; TiXmlNode::LastChild, COMDAT
; _this$ = ecx

; 535  : 	const TiXmlNode* LastChild() const	{ return lastChild; }		/// The last child of this node. Will be null if there are no children.

  00000	8b 41 1c	 mov	 eax, DWORD PTR [ecx+28]
  00003	c3		 ret	 0
?LastChild@TiXmlNode@@QBEPBV1@XZ ENDP			; TiXmlNode::LastChild
_TEXT	ENDS
; Function compile flags: /Ogtp
; File E:\Proyectos\JuegosOnlineproyectos\PB\pbblow\Piercing Blow Remake\i3Server\include\i3Base\tinyxml.h
;	COMDAT ?FirstChild@TiXmlNode@@QAEPAV1@PBD@Z
_TEXT	SEGMENT
__value$ = 8						; size = 4
?FirstChild@TiXmlNode@@QAEPAV1@PBD@Z PROC		; TiXmlNode::FirstChild, COMDAT
; _this$ = ecx

; 530  : 	TiXmlNode* FirstChild( const char * _value ) {

  00000	55		 push	 ebp
  00001	8b ec		 mov	 ebp, esp

; 534  : 	}

  00003	5d		 pop	 ebp

; 531  : 		// Call through to the const version - safe since nothing is changed. Exiting syntax: cast this to a const (always safe)
; 532  : 		// call the method, cast the return back to non-const.
; 533  : 		return const_cast< TiXmlNode* > ((const_cast< const TiXmlNode* >(this))->FirstChild( _value ));

  00004	e9 00 00 00 00	 jmp	 ?FirstChild@TiXmlNode@@QBEPBV1@PBD@Z ; TiXmlNode::FirstChild
?FirstChild@TiXmlNode@@QAEPAV1@PBD@Z ENDP		; TiXmlNode::FirstChild
_TEXT	ENDS
; Function compile flags: /Ogtp
; File E:\Proyectos\JuegosOnlineproyectos\PB\pbblow\Piercing Blow Remake\i3Server\include\i3Base\tinyxml.h
;	COMDAT ?FirstChild@TiXmlNode@@QAEPAV1@XZ
_TEXT	SEGMENT
?FirstChild@TiXmlNode@@QAEPAV1@XZ PROC			; TiXmlNode::FirstChild, COMDAT
; _this$ = ecx

; 527  : 	TiXmlNode* FirstChild()						{ return firstChild; }

  00000	8b 41 18	 mov	 eax, DWORD PTR [ecx+24]
  00003	c3		 ret	 0
?FirstChild@TiXmlNode@@QAEPAV1@XZ ENDP			; TiXmlNode::FirstChild
_TEXT	ENDS
; Function compile flags: /Ogtp
; File E:\Proyectos\JuegosOnlineproyectos\PB\pbblow\Piercing Blow Remake\i3Server\include\i3Base\tinyxml.h
;	COMDAT ?FirstChild@TiXmlNode@@QBEPBV1@XZ
_TEXT	SEGMENT
?FirstChild@TiXmlNode@@QBEPBV1@XZ PROC			; TiXmlNode::FirstChild, COMDAT
; _this$ = ecx

; 526  : 	const TiXmlNode* FirstChild()	const		{ return firstChild; }	///< The first child of this node. Will be null if there are no children.

  00000	8b 41 18	 mov	 eax, DWORD PTR [ecx+24]
  00003	c3		 ret	 0
?FirstChild@TiXmlNode@@QBEPBV1@XZ ENDP			; TiXmlNode::FirstChild
_TEXT	ENDS
; Function compile flags: /Ogtp
; File E:\Proyectos\JuegosOnlineproyectos\PB\pbblow\Piercing Blow Remake\i3Server\include\i3Base\tinyxml.h
;	COMDAT ?Parent@TiXmlNode@@QBEPBV1@XZ
_TEXT	SEGMENT
?Parent@TiXmlNode@@QBEPBV1@XZ PROC			; TiXmlNode::Parent, COMDAT
; _this$ = ecx

; 524  : 	const TiXmlNode* Parent() const				{ return parent; }

  00000	8b 41 10	 mov	 eax, DWORD PTR [ecx+16]
  00003	c3		 ret	 0
?Parent@TiXmlNode@@QBEPBV1@XZ ENDP			; TiXmlNode::Parent
_TEXT	ENDS
; Function compile flags: /Ogtp
; File E:\Proyectos\JuegosOnlineproyectos\PB\pbblow\Piercing Blow Remake\i3Server\include\i3Base\tinyxml.h
;	COMDAT ?Parent@TiXmlNode@@QAEPAV1@XZ
_TEXT	SEGMENT
?Parent@TiXmlNode@@QAEPAV1@XZ PROC			; TiXmlNode::Parent, COMDAT
; _this$ = ecx

; 523  : 	TiXmlNode* Parent()							{ return parent; }

  00000	8b 41 10	 mov	 eax, DWORD PTR [ecx+16]
  00003	c3		 ret	 0
?Parent@TiXmlNode@@QAEPAV1@XZ ENDP			; TiXmlNode::Parent
_TEXT	ENDS
; Function compile flags: /Ogtp
; File E:\Proyectos\JuegosOnlineproyectos\PB\pbblow\Piercing Blow Remake\i3Server\include\i3Base\tinyxml.h
; File E:\Proyectos\JuegosOnlineproyectos\PB\pbblow\Piercing Blow Remake\i3Server\include\i3Base\tinystr.h
; File E:\Proyectos\JuegosOnlineproyectos\PB\pbblow\Piercing Blow Remake\i3Server\include\i3Base\tinyxml.h
; File E:\Proyectos\JuegosOnlineproyectos\PB\pbblow\Piercing Blow Remake\i3Server\include\i3Base\tinystr.h
; File E:\Proyectos\JuegosOnlineproyectos\PB\pbblow\Piercing Blow Remake\i3Server\include\i3Base\tinyxml.h
; File E:\Proyectos\JuegosOnlineproyectos\PB\pbblow\Piercing Blow Remake\i3Server\include\i3Base\tinystr.h
; File E:\Proyectos\JuegosOnlineproyectos\PB\pbblow\Piercing Blow Remake\i3Server\include\i3Base\tinyxml.h
;	COMDAT ?SetValue@TiXmlNode@@QAEXPBD@Z
_TEXT	SEGMENT
__value$ = 8						; size = 4
?SetValue@TiXmlNode@@QAEXPBD@Z PROC			; TiXmlNode::SetValue, COMDAT
; _this$ = ecx

; 512  : 	void SetValue(const char * _value) { value = _value;}

  00000	55		 push	 ebp
  00001	8b ec		 mov	 ebp, esp
; File E:\Proyectos\JuegosOnlineproyectos\PB\pbblow\Piercing Blow Remake\i3Server\include\i3Base\tinystr.h

; 114  : 		return assign( copy, (size_type)strlen(copy));

  00003	8b 55 08	 mov	 edx, DWORD PTR __value$[ebp]
  00006	8b c2		 mov	 eax, edx
; File E:\Proyectos\JuegosOnlineproyectos\PB\pbblow\Piercing Blow Remake\i3Server\include\i3Base\tinyxml.h

; 512  : 	void SetValue(const char * _value) { value = _value;}

  00008	56		 push	 esi
  00009	57		 push	 edi
  0000a	8b f1		 mov	 esi, ecx
; File E:\Proyectos\JuegosOnlineproyectos\PB\pbblow\Piercing Blow Remake\i3Server\include\i3Base\tinystr.h

; 114  : 		return assign( copy, (size_type)strlen(copy));

  0000c	8d 78 01	 lea	 edi, DWORD PTR [eax+1]
  0000f	90		 npad	 1
$LL5@SetValue:
  00010	8a 08		 mov	 cl, BYTE PTR [eax]
  00012	40		 inc	 eax
  00013	84 c9		 test	 cl, cl
  00015	75 f9		 jne	 SHORT $LL5@SetValue
  00017	2b c7		 sub	 eax, edi
; File E:\Proyectos\JuegosOnlineproyectos\PB\pbblow\Piercing Blow Remake\i3Server\include\i3Base\tinyxml.h

; 512  : 	void SetValue(const char * _value) { value = _value;}

  00019	8d 4e 20	 lea	 ecx, DWORD PTR [esi+32]
; File E:\Proyectos\JuegosOnlineproyectos\PB\pbblow\Piercing Blow Remake\i3Server\include\i3Base\tinystr.h

; 114  : 		return assign( copy, (size_type)strlen(copy));

  0001c	50		 push	 eax
  0001d	52		 push	 edx
  0001e	e8 00 00 00 00	 call	 ?assign@TiXmlString@@QAEAAV1@PBDI@Z ; TiXmlString::assign
  00023	5f		 pop	 edi
  00024	5e		 pop	 esi
; File E:\Proyectos\JuegosOnlineproyectos\PB\pbblow\Piercing Blow Remake\i3Server\include\i3Base\tinyxml.h

; 512  : 	void SetValue(const char * _value) { value = _value;}

  00025	5d		 pop	 ebp
  00026	c2 04 00	 ret	 4
?SetValue@TiXmlNode@@QAEXPBD@Z ENDP			; TiXmlNode::SetValue
_TEXT	ENDS
; Function compile flags: /Ogtp
; File E:\Proyectos\JuegosOnlineproyectos\PB\pbblow\Piercing Blow Remake\i3Server\include\i3Base\tinyxml.h
;	COMDAT ?ValueTStr@TiXmlNode@@QBEABVTiXmlString@@XZ
_TEXT	SEGMENT
?ValueTStr@TiXmlNode@@QBEABVTiXmlString@@XZ PROC	; TiXmlNode::ValueTStr, COMDAT
; _this$ = ecx

; 501  : 	const TIXML_STRING& ValueTStr() const { return value; }

  00000	8d 41 20	 lea	 eax, DWORD PTR [ecx+32]
  00003	c3		 ret	 0
?ValueTStr@TiXmlNode@@QBEABVTiXmlString@@XZ ENDP	; TiXmlNode::ValueTStr
_TEXT	ENDS
; Function compile flags: /Ogtp
; File E:\Proyectos\JuegosOnlineproyectos\PB\pbblow\Piercing Blow Remake\i3Server\include\i3Base\tinyxml.h
; File E:\Proyectos\JuegosOnlineproyectos\PB\pbblow\Piercing Blow Remake\i3Server\include\i3Base\tinystr.h
; File E:\Proyectos\JuegosOnlineproyectos\PB\pbblow\Piercing Blow Remake\i3Server\include\i3Base\tinyxml.h
;	COMDAT ?Value@TiXmlNode@@QBEPBDXZ
_TEXT	SEGMENT
?Value@TiXmlNode@@QBEPBDXZ PROC				; TiXmlNode::Value, COMDAT
; _this$ = ecx
; File E:\Proyectos\JuegosOnlineproyectos\PB\pbblow\Piercing Blow Remake\i3Server\include\i3Base\tinystr.h

; 144  : 	const char * c_str () const { return rep_->str; }

  00000	8b 41 20	 mov	 eax, DWORD PTR [ecx+32]
  00003	83 c0 08	 add	 eax, 8
; File E:\Proyectos\JuegosOnlineproyectos\PB\pbblow\Piercing Blow Remake\i3Server\include\i3Base\tinyxml.h

; 491  : 	const char *Value() const { return value.c_str (); }

  00006	c3		 ret	 0
?Value@TiXmlNode@@QBEPBDXZ ENDP				; TiXmlNode::Value
_TEXT	ENDS
; Function compile flags: /Ogtp
;	COMDAT ??_ETiXmlBase@@UAEPAXI@Z
_TEXT	SEGMENT
__$EHRec$ = -12						; size = 12
___flags$ = 8						; size = 4
??_ETiXmlBase@@UAEPAXI@Z PROC				; TiXmlBase::`vector deleting destructor', COMDAT
; _this$ = ecx
  00000	55		 push	 ebp
  00001	8b ec		 mov	 ebp, esp
  00003	6a ff		 push	 -1
  00005	68 00 00 00 00	 push	 __ehhandler$??_ETiXmlBase@@UAEPAXI@Z
  0000a	64 a1 00 00 00
	00		 mov	 eax, DWORD PTR fs:0
  00010	50		 push	 eax
  00011	53		 push	 ebx
  00012	56		 push	 esi
  00013	57		 push	 edi
  00014	a1 00 00 00 00	 mov	 eax, DWORD PTR ___security_cookie
  00019	33 c5		 xor	 eax, ebp
  0001b	50		 push	 eax
  0001c	8d 45 f4	 lea	 eax, DWORD PTR __$EHRec$[ebp]
  0001f	64 a3 00 00 00
	00		 mov	 DWORD PTR fs:0, eax
  00025	8b f1		 mov	 esi, ecx
  00027	8b 45 08	 mov	 eax, DWORD PTR ___flags$[ebp]
  0002a	8b f8		 mov	 edi, eax
  0002c	83 e7 01	 and	 edi, 1
  0002f	a8 02		 test	 al, 2
  00031	74 3f		 je	 SHORT $LN2@vector
  00033	68 00 00 00 00	 push	 OFFSET ??1TiXmlBase@@UAE@XZ ; TiXmlBase::~TiXmlBase
  00038	ff 76 fc	 push	 DWORD PTR [esi-4]
  0003b	8d 5e fc	 lea	 ebx, DWORD PTR [esi-4]
  0003e	6a 10		 push	 16			; 00000010H
  00040	56		 push	 esi
  00041	e8 00 00 00 00	 call	 ??_M@YGXPAXIIP6EX0@Z@Z
  00046	85 ff		 test	 edi, edi
  00048	74 12		 je	 SHORT $LN3@vector
  0004a	8b 0b		 mov	 ecx, DWORD PTR [ebx]
  0004c	c1 e1 04	 shl	 ecx, 4
  0004f	83 c1 04	 add	 ecx, 4
  00052	51		 push	 ecx
  00053	53		 push	 ebx
  00054	e8 00 00 00 00	 call	 ??_V@YAXPAXI@Z		; operator delete[]
  00059	83 c4 08	 add	 esp, 8
$LN3@vector:
  0005c	8b c3		 mov	 eax, ebx
  0005e	8b 4d f4	 mov	 ecx, DWORD PTR __$EHRec$[ebp]
  00061	64 89 0d 00 00
	00 00		 mov	 DWORD PTR fs:0, ecx
  00068	59		 pop	 ecx
  00069	5f		 pop	 edi
  0006a	5e		 pop	 esi
  0006b	5b		 pop	 ebx
  0006c	8b e5		 mov	 esp, ebp
  0006e	5d		 pop	 ebp
  0006f	c2 04 00	 ret	 4
$LN2@vector:
  00072	c7 06 00 00 00
	00		 mov	 DWORD PTR [esi], OFFSET ??_7TiXmlBase@@6B@
  00078	85 ff		 test	 edi, edi
  0007a	74 0b		 je	 SHORT $LN4@vector
  0007c	6a 10		 push	 16			; 00000010H
  0007e	56		 push	 esi
  0007f	e8 00 00 00 00	 call	 ??3@YAXPAXI@Z		; operator delete
  00084	83 c4 08	 add	 esp, 8
$LN4@vector:
  00087	8b c6		 mov	 eax, esi
  00089	8b 4d f4	 mov	 ecx, DWORD PTR __$EHRec$[ebp]
  0008c	64 89 0d 00 00
	00 00		 mov	 DWORD PTR fs:0, ecx
  00093	59		 pop	 ecx
  00094	5f		 pop	 edi
  00095	5e		 pop	 esi
  00096	5b		 pop	 ebx
  00097	8b e5		 mov	 esp, ebp
  00099	5d		 pop	 ebp
  0009a	c2 04 00	 ret	 4
  0009d	cc		 int	 3
  0009e	cc		 int	 3
  0009f	cc		 int	 3
  000a0	cc		 int	 3
  000a1	cc		 int	 3
_TEXT	ENDS
;	COMDAT text$x
text$x	SEGMENT
__ehhandler$??_ETiXmlBase@@UAEPAXI@Z:
  00000	90		 npad	 1
  00001	90		 npad	 1
  00002	8b 54 24 08	 mov	 edx, DWORD PTR [esp+8]
  00006	8d 42 0c	 lea	 eax, DWORD PTR [edx+12]
  00009	8b 4a f0	 mov	 ecx, DWORD PTR [edx-16]
  0000c	33 c8		 xor	 ecx, eax
  0000e	e8 00 00 00 00	 call	 @__security_check_cookie@4
  00013	b8 00 00 00 00	 mov	 eax, OFFSET __ehfuncinfo$??_ETiXmlBase@@UAEPAXI@Z
  00018	e9 00 00 00 00	 jmp	 ___CxxFrameHandler3
text$x	ENDS
??_ETiXmlBase@@UAEPAXI@Z ENDP				; TiXmlBase::`vector deleting destructor'
; Function compile flags: /Ogtp
;	COMDAT ??_GTiXmlBase@@UAEPAXI@Z
_TEXT	SEGMENT
___flags$ = 8						; size = 4
??_GTiXmlBase@@UAEPAXI@Z PROC				; TiXmlBase::`scalar deleting destructor', COMDAT
; _this$ = ecx
  00000	55		 push	 ebp
  00001	8b ec		 mov	 ebp, esp
  00003	f6 45 08 01	 test	 BYTE PTR ___flags$[ebp], 1
  00007	56		 push	 esi
  00008	8b f1		 mov	 esi, ecx
  0000a	c7 06 00 00 00
	00		 mov	 DWORD PTR [esi], OFFSET ??_7TiXmlBase@@6B@
  00010	74 0b		 je	 SHORT $LN5@scalar
  00012	6a 10		 push	 16			; 00000010H
  00014	56		 push	 esi
  00015	e8 00 00 00 00	 call	 ??3@YAXPAXI@Z		; operator delete
  0001a	83 c4 08	 add	 esp, 8
$LN5@scalar:
  0001d	8b c6		 mov	 eax, esi
  0001f	5e		 pop	 esi
  00020	5d		 pop	 ebp
  00021	c2 04 00	 ret	 4
??_GTiXmlBase@@UAEPAXI@Z ENDP				; TiXmlBase::`scalar deleting destructor'
_TEXT	ENDS
; Function compile flags: /Ogtp
; File E:\Proyectos\JuegosOnlineproyectos\PB\pbblow\Piercing Blow Remake\i3Server\include\i3Base\tinyxml.h
;	COMDAT ?ToLower@TiXmlBase@@KAHHW4TiXmlEncoding@@@Z
_TEXT	SEGMENT
_v$ = 8							; size = 4
_encoding$ = 12						; size = 4
?ToLower@TiXmlBase@@KAHHW4TiXmlEncoding@@@Z PROC	; TiXmlBase::ToLower, COMDAT

; 387  : 	{

  00000	55		 push	 ebp
  00001	8b ec		 mov	 ebp, esp

; 388  : 		if ( encoding == TIXML_ENCODING_UTF8 )

  00003	83 7d 0c 01	 cmp	 DWORD PTR _encoding$[ebp], 1
  00007	75 15		 jne	 SHORT $LN2@ToLower

; 389  : 		{
; 390  : 			if ( v < 128 ) return tolower( v );

  00009	8b 45 08	 mov	 eax, DWORD PTR _v$[ebp]
  0000c	3d 80 00 00 00	 cmp	 eax, 128		; 00000080H
  00011	7d 16		 jge	 SHORT $LN3@ToLower
  00013	50		 push	 eax

; 396  : 		}
; 397  : 	}

  00014	e8 00 00 00 00	 call	 _tolower
  00019	83 c4 04	 add	 esp, 4
  0001c	5d		 pop	 ebp
  0001d	c3		 ret	 0
$LN2@ToLower:

; 391  : 			return v;
; 392  : 		}
; 393  : 		else
; 394  : 		{
; 395  : 			return tolower( v );

  0001e	ff 75 08	 push	 DWORD PTR _v$[ebp]

; 396  : 		}
; 397  : 	}

  00021	e8 00 00 00 00	 call	 _tolower
  00026	83 c4 04	 add	 esp, 4
$LN3@ToLower:
  00029	5d		 pop	 ebp
  0002a	c3		 ret	 0
?ToLower@TiXmlBase@@KAHHW4TiXmlEncoding@@@Z ENDP	; TiXmlBase::ToLower
_TEXT	ENDS
; Function compile flags: /Ogtp
; File E:\Proyectos\JuegosOnlineproyectos\PB\pbblow\Piercing Blow Remake\i3Server\include\i3Base\tinyxml.h
;	COMDAT ?GetChar@TiXmlBase@@KAPBDPBDPADPAHW4TiXmlEncoding@@@Z
_TEXT	SEGMENT
_p$ = 8							; size = 4
__value$ = 12						; size = 4
_length$ = 16						; size = 4
_encoding$ = 20						; size = 4
?GetChar@TiXmlBase@@KAPBDPBDPADPAHW4TiXmlEncoding@@@Z PROC ; TiXmlBase::GetChar, COMDAT

; 332  : 	{

  00000	55		 push	 ebp
  00001	8b ec		 mov	 ebp, esp

; 333  : 		I3ASSERT( p );
; 334  : 		if ( encoding == TIXML_ENCODING_UTF8 )

  00003	8b 4d 14	 mov	 ecx, DWORD PTR _encoding$[ebp]
  00006	8b 55 08	 mov	 edx, DWORD PTR _p$[ebp]
  00009	56		 push	 esi
  0000a	8b 75 10	 mov	 esi, DWORD PTR _length$[ebp]
  0000d	57		 push	 edi
  0000e	8b 7d 0c	 mov	 edi, DWORD PTR __value$[ebp]
  00011	83 f9 01	 cmp	 ecx, 1
  00014	75 39		 jne	 SHORT $LN5@GetChar

; 335  : 		{
; 336  : 			*length = utf8ByteTable[ *((const unsigned char*)p) ];

  00016	0f b6 02	 movzx	 eax, BYTE PTR [edx]
  00019	8b 04 85 00 00
	00 00		 mov	 eax, DWORD PTR ?utf8ByteTable@TiXmlBase@@2QBHB[eax*4]

; 342  : 		}
; 343  : 
; 344  : 		if ( *length == 1 )

  00020	89 06		 mov	 DWORD PTR [esi], eax
  00022	3b c1		 cmp	 eax, ecx
  00024	74 2f		 je	 SHORT $LN17@GetChar

; 350  : 		}
; 351  : 		else if ( *length )

  00026	85 c0		 test	 eax, eax
  00028	74 1f		 je	 SHORT $LN10@GetChar

; 352  : 		{
; 353  : 			//strncpy( _value, p, *length );	// lots of compilers don't like this function (unsafe),
; 354  : 												// and the null terminator isn't needed
; 355  : 			for( int i=0; p[i] && i<*length; ++i ) {

  0002a	33 c9		 xor	 ecx, ecx
  0002c	38 0a		 cmp	 BYTE PTR [edx], cl
  0002e	74 11		 je	 SHORT $LN18@GetChar
$LL4@GetChar:
  00030	3b 0e		 cmp	 ecx, DWORD PTR [esi]
  00032	7d 0d		 jge	 SHORT $LN18@GetChar

; 356  : 				_value[i] = p[i];

  00034	8a 04 0a	 mov	 al, BYTE PTR [edx+ecx]
  00037	88 04 39	 mov	 BYTE PTR [ecx+edi], al
  0003a	41		 inc	 ecx
  0003b	80 3c 0a 00	 cmp	 BYTE PTR [edx+ecx], 0
  0003f	75 ef		 jne	 SHORT $LL4@GetChar
$LN18@GetChar:

; 357  : 			}
; 358  : 			return p + (*length);

  00041	8b 06		 mov	 eax, DWORD PTR [esi]
  00043	5f		 pop	 edi
  00044	03 c2		 add	 eax, edx

; 364  : 		}
; 365  : 	}

  00046	5e		 pop	 esi
  00047	5d		 pop	 ebp
  00048	c3		 ret	 0
$LN10@GetChar:
  00049	5f		 pop	 edi

; 359  : 		}
; 360  : 		else
; 361  : 		{
; 362  : 			// Not valid text.
; 363  : 			return 0;

  0004a	33 c0		 xor	 eax, eax

; 364  : 		}
; 365  : 	}

  0004c	5e		 pop	 esi
  0004d	5d		 pop	 ebp
  0004e	c3		 ret	 0
$LN5@GetChar:

; 337  : 			I3ASSERT( *length >= 0 && *length < 5 );
; 338  : 		}
; 339  : 		else
; 340  : 		{
; 341  : 			*length = 1;

  0004f	c7 06 01 00 00
	00		 mov	 DWORD PTR [esi], 1
$LN17@GetChar:

; 345  : 		{
; 346  : 			if ( *p == '&' )

  00055	8a 02		 mov	 al, BYTE PTR [edx]
  00057	3c 26		 cmp	 al, 38			; 00000026H
  00059	75 10		 jne	 SHORT $LN9@GetChar

; 347  : 				return GetEntity( p, _value, length, encoding );

  0005b	51		 push	 ecx
  0005c	56		 push	 esi
  0005d	57		 push	 edi
  0005e	52		 push	 edx
  0005f	e8 00 00 00 00	 call	 ?GetEntity@TiXmlBase@@KAPBDPBDPADPAHW4TiXmlEncoding@@@Z ; TiXmlBase::GetEntity
  00064	83 c4 10	 add	 esp, 16			; 00000010H
  00067	5f		 pop	 edi

; 364  : 		}
; 365  : 	}

  00068	5e		 pop	 esi
  00069	5d		 pop	 ebp
  0006a	c3		 ret	 0
$LN9@GetChar:

; 348  : 			*_value = *p;

  0006b	88 07		 mov	 BYTE PTR [edi], al

; 349  : 			return p+1;

  0006d	8d 42 01	 lea	 eax, DWORD PTR [edx+1]
  00070	5f		 pop	 edi

; 364  : 		}
; 365  : 	}

  00071	5e		 pop	 esi
  00072	5d		 pop	 ebp
  00073	c3		 ret	 0
?GetChar@TiXmlBase@@KAPBDPBDPADPAHW4TiXmlEncoding@@@Z ENDP ; TiXmlBase::GetChar
_TEXT	ENDS
; Function compile flags: /Ogtp
; File E:\Proyectos\JuegosOnlineproyectos\PB\pbblow\Piercing Blow Remake\i3Server\include\i3Base\tinyxml.h
;	COMDAT ?IsWhiteSpace@TiXmlBase@@KA_NH@Z
_TEXT	SEGMENT
_c$ = 8							; size = 4
?IsWhiteSpace@TiXmlBase@@KA_NH@Z PROC			; TiXmlBase::IsWhiteSpace, COMDAT

; 299  : 	{

  00000	55		 push	 ebp
  00001	8b ec		 mov	 ebp, esp
  00003	53		 push	 ebx

; 300  : 		if ( c < 256 )

  00004	8b 5d 08	 mov	 ebx, DWORD PTR _c$[ebp]
  00007	81 fb 00 01 00
	00		 cmp	 ebx, 256		; 00000100H
  0000d	7d 1f		 jge	 SHORT $LN2@IsWhiteSpa

; 296  : 		return ( isspace( (unsigned char) c ) || c == '\n' || c == '\r' ); 

  0000f	0f b6 c3	 movzx	 eax, bl
  00012	50		 push	 eax
  00013	e8 00 00 00 00	 call	 _isspace
  00018	83 c4 04	 add	 esp, 4
  0001b	85 c0		 test	 eax, eax
  0001d	75 0a		 jne	 SHORT $LN6@IsWhiteSpa
  0001f	80 fb 0a	 cmp	 bl, 10			; 0000000aH
  00022	74 05		 je	 SHORT $LN6@IsWhiteSpa
  00024	80 fb 0d	 cmp	 bl, 13			; 0000000dH
  00027	75 05		 jne	 SHORT $LN2@IsWhiteSpa
$LN6@IsWhiteSpa:
  00029	b0 01		 mov	 al, 1
  0002b	5b		 pop	 ebx

; 301  : 			return IsWhiteSpace( (char) c );
; 302  : 		return false;	// Again, only truly correct for English/Latin...but usually works.
; 303  : 	}

  0002c	5d		 pop	 ebp
  0002d	c3		 ret	 0
$LN2@IsWhiteSpa:
  0002e	32 c0		 xor	 al, al
  00030	5b		 pop	 ebx
  00031	5d		 pop	 ebp
  00032	c3		 ret	 0
?IsWhiteSpace@TiXmlBase@@KA_NH@Z ENDP			; TiXmlBase::IsWhiteSpace
_TEXT	ENDS
; Function compile flags: /Ogtp
; File E:\Proyectos\JuegosOnlineproyectos\PB\pbblow\Piercing Blow Remake\i3Server\include\i3Base\tinyxml.h
;	COMDAT ?IsWhiteSpace@TiXmlBase@@KA_ND@Z
_TEXT	SEGMENT
_c$ = 8							; size = 1
?IsWhiteSpace@TiXmlBase@@KA_ND@Z PROC			; TiXmlBase::IsWhiteSpace, COMDAT

; 295  : 	{ 

  00000	55		 push	 ebp
  00001	8b ec		 mov	 ebp, esp
  00003	53		 push	 ebx

; 296  : 		return ( isspace( (unsigned char) c ) || c == '\n' || c == '\r' ); 

  00004	8a 5d 08	 mov	 bl, BYTE PTR _c$[ebp]
  00007	0f b6 c3	 movzx	 eax, bl
  0000a	50		 push	 eax
  0000b	e8 00 00 00 00	 call	 _isspace
  00010	83 c4 04	 add	 esp, 4
  00013	85 c0		 test	 eax, eax
  00015	75 0f		 jne	 SHORT $LN3@IsWhiteSpa
  00017	80 fb 0a	 cmp	 bl, 10			; 0000000aH
  0001a	74 0a		 je	 SHORT $LN3@IsWhiteSpa
  0001c	80 fb 0d	 cmp	 bl, 13			; 0000000dH
  0001f	74 05		 je	 SHORT $LN3@IsWhiteSpa
  00021	32 c0		 xor	 al, al
  00023	5b		 pop	 ebx

; 297  : 	}

  00024	5d		 pop	 ebp
  00025	c3		 ret	 0
$LN3@IsWhiteSpa:

; 296  : 		return ( isspace( (unsigned char) c ) || c == '\n' || c == '\r' ); 

  00026	b0 01		 mov	 al, 1
  00028	5b		 pop	 ebx

; 297  : 	}

  00029	5d		 pop	 ebp
  0002a	c3		 ret	 0
?IsWhiteSpace@TiXmlBase@@KA_ND@Z ENDP			; TiXmlBase::IsWhiteSpace
_TEXT	ENDS
; Function compile flags: /Ogtp
; File E:\Proyectos\JuegosOnlineproyectos\PB\pbblow\Piercing Blow Remake\i3Server\include\i3Base\tinyxml.h
;	COMDAT ?GetUserData@TiXmlBase@@QBEPBXXZ
_TEXT	SEGMENT
?GetUserData@TiXmlBase@@QBEPBXXZ PROC			; TiXmlBase::GetUserData, COMDAT
; _this$ = ecx

; 253  : 	const void* GetUserData() const 		{ return userData; }	///< Get a pointer to arbitrary user data.

  00000	8b 41 0c	 mov	 eax, DWORD PTR [ecx+12]
  00003	c3		 ret	 0
?GetUserData@TiXmlBase@@QBEPBXXZ ENDP			; TiXmlBase::GetUserData
_TEXT	ENDS
; Function compile flags: /Ogtp
; File E:\Proyectos\JuegosOnlineproyectos\PB\pbblow\Piercing Blow Remake\i3Server\include\i3Base\tinyxml.h
;	COMDAT ?GetUserData@TiXmlBase@@QAEPAXXZ
_TEXT	SEGMENT
?GetUserData@TiXmlBase@@QAEPAXXZ PROC			; TiXmlBase::GetUserData, COMDAT
; _this$ = ecx

; 252  : 	void* GetUserData()						{ return userData; }	///< Get a pointer to arbitrary user data.

  00000	8b 41 0c	 mov	 eax, DWORD PTR [ecx+12]
  00003	c3		 ret	 0
?GetUserData@TiXmlBase@@QAEPAXXZ ENDP			; TiXmlBase::GetUserData
_TEXT	ENDS
; Function compile flags: /Ogtp
; File E:\Proyectos\JuegosOnlineproyectos\PB\pbblow\Piercing Blow Remake\i3Server\include\i3Base\tinyxml.h
;	COMDAT ?SetUserData@TiXmlBase@@QAEXPAX@Z
_TEXT	SEGMENT
_user$ = 8						; size = 4
?SetUserData@TiXmlBase@@QAEXPAX@Z PROC			; TiXmlBase::SetUserData, COMDAT
; _this$ = ecx

; 251  : 	void  SetUserData( void* user )			{ userData = user; }	///< Set a pointer to arbitrary user data.

  00000	55		 push	 ebp
  00001	8b ec		 mov	 ebp, esp
  00003	8b 45 08	 mov	 eax, DWORD PTR _user$[ebp]
  00006	89 41 0c	 mov	 DWORD PTR [ecx+12], eax
  00009	5d		 pop	 ebp
  0000a	c2 04 00	 ret	 4
?SetUserData@TiXmlBase@@QAEXPAX@Z ENDP			; TiXmlBase::SetUserData
_TEXT	ENDS
; Function compile flags: /Ogtp
; File E:\Proyectos\JuegosOnlineproyectos\PB\pbblow\Piercing Blow Remake\i3Server\include\i3Base\tinyxml.h
;	COMDAT ?Column@TiXmlBase@@QBEHXZ
_TEXT	SEGMENT
?Column@TiXmlBase@@QBEHXZ PROC				; TiXmlBase::Column, COMDAT
; _this$ = ecx

; 249  : 	int Column() const		{ return location.col + 1; }	///< See Row()

  00000	8b 41 08	 mov	 eax, DWORD PTR [ecx+8]
  00003	40		 inc	 eax
  00004	c3		 ret	 0
?Column@TiXmlBase@@QBEHXZ ENDP				; TiXmlBase::Column
_TEXT	ENDS
; Function compile flags: /Ogtp
; File E:\Proyectos\JuegosOnlineproyectos\PB\pbblow\Piercing Blow Remake\i3Server\include\i3Base\tinyxml.h
;	COMDAT ?Row@TiXmlBase@@QBEHXZ
_TEXT	SEGMENT
?Row@TiXmlBase@@QBEHXZ PROC				; TiXmlBase::Row, COMDAT
; _this$ = ecx

; 248  : 	int Row() const			{ return location.row + 1; }

  00000	8b 41 04	 mov	 eax, DWORD PTR [ecx+4]
  00003	40		 inc	 eax
  00004	c3		 ret	 0
?Row@TiXmlBase@@QBEHXZ ENDP				; TiXmlBase::Row
_TEXT	ENDS
; Function compile flags: /Ogtp
; File E:\Proyectos\JuegosOnlineproyectos\PB\pbblow\Piercing Blow Remake\i3Server\include\i3Base\tinyxml.h
;	COMDAT ?IsWhiteSpaceCondensed@TiXmlBase@@SA_NXZ
_TEXT	SEGMENT
?IsWhiteSpaceCondensed@TiXmlBase@@SA_NXZ PROC		; TiXmlBase::IsWhiteSpaceCondensed, COMDAT

; 228  : 	static bool IsWhiteSpaceCondensed()						{ return condenseWhiteSpace; }

  00000	a0 00 00 00 00	 mov	 al, BYTE PTR ?condenseWhiteSpace@TiXmlBase@@0_NA ; TiXmlBase::condenseWhiteSpace
  00005	c3		 ret	 0
?IsWhiteSpaceCondensed@TiXmlBase@@SA_NXZ ENDP		; TiXmlBase::IsWhiteSpaceCondensed
_TEXT	ENDS
; Function compile flags: /Ogtp
; File E:\Proyectos\JuegosOnlineproyectos\PB\pbblow\Piercing Blow Remake\i3Server\include\i3Base\tinyxml.h
;	COMDAT ?SetCondenseWhiteSpace@TiXmlBase@@SAX_N@Z
_TEXT	SEGMENT
_condense$ = 8						; size = 1
?SetCondenseWhiteSpace@TiXmlBase@@SAX_N@Z PROC		; TiXmlBase::SetCondenseWhiteSpace, COMDAT

; 225  : 	static void SetCondenseWhiteSpace( bool condense )		{ condenseWhiteSpace = condense; }

  00000	55		 push	 ebp
  00001	8b ec		 mov	 ebp, esp
  00003	8a 45 08	 mov	 al, BYTE PTR _condense$[ebp]
  00006	a2 00 00 00 00	 mov	 BYTE PTR ?condenseWhiteSpace@TiXmlBase@@0_NA, al ; TiXmlBase::condenseWhiteSpace
  0000b	5d		 pop	 ebp
  0000c	c3		 ret	 0
?SetCondenseWhiteSpace@TiXmlBase@@SAX_N@Z ENDP		; TiXmlBase::SetCondenseWhiteSpace
_TEXT	ENDS
; Function compile flags: /Ogtp
; File E:\Proyectos\JuegosOnlineproyectos\PB\pbblow\Piercing Blow Remake\i3Server\include\i3Base\tinyxml.h
;	COMDAT ??1TiXmlBase@@UAE@XZ
_TEXT	SEGMENT
??1TiXmlBase@@UAE@XZ PROC				; TiXmlBase::~TiXmlBase, COMDAT
; _this$ = ecx

; 206  : 	virtual ~TiXmlBase()			{}

  00000	c7 01 00 00 00
	00		 mov	 DWORD PTR [ecx], OFFSET ??_7TiXmlBase@@6B@
  00006	c3		 ret	 0
??1TiXmlBase@@UAE@XZ ENDP				; TiXmlBase::~TiXmlBase
_TEXT	ENDS
; Function compile flags: /Ogtp
; File E:\Proyectos\JuegosOnlineproyectos\PB\pbblow\Piercing Blow Remake\i3Server\include\i3Base\tinyxml.h
;	COMDAT ??0TiXmlBase@@QAE@XZ
_TEXT	SEGMENT
??0TiXmlBase@@QAE@XZ PROC				; TiXmlBase::TiXmlBase, COMDAT
; _this$ = ecx

; 205  : 	TiXmlBase()	:	userData(0)		{}

  00000	c7 01 00 00 00
	00		 mov	 DWORD PTR [ecx], OFFSET ??_7TiXmlBase@@6B@
  00006	8b c1		 mov	 eax, ecx

; 107  : 	void Clear()		{ row = col = -1; }

  00008	c7 41 08 ff ff
	ff ff		 mov	 DWORD PTR [ecx+8], -1
  0000f	c7 41 04 ff ff
	ff ff		 mov	 DWORD PTR [ecx+4], -1

; 205  : 	TiXmlBase()	:	userData(0)		{}

  00016	c7 41 0c 00 00
	00 00		 mov	 DWORD PTR [ecx+12], 0
  0001d	c3		 ret	 0
??0TiXmlBase@@QAE@XZ ENDP				; TiXmlBase::TiXmlBase
_TEXT	ENDS
; Function compile flags: /Ogtp
;	COMDAT ??_ETiXmlVisitor@@UAEPAXI@Z
_TEXT	SEGMENT
__$EHRec$ = -12						; size = 12
___flags$ = 8						; size = 4
??_ETiXmlVisitor@@UAEPAXI@Z PROC			; TiXmlVisitor::`vector deleting destructor', COMDAT
; _this$ = ecx
  00000	55		 push	 ebp
  00001	8b ec		 mov	 ebp, esp
  00003	6a ff		 push	 -1
  00005	68 00 00 00 00	 push	 __ehhandler$??_ETiXmlVisitor@@UAEPAXI@Z
  0000a	64 a1 00 00 00
	00		 mov	 eax, DWORD PTR fs:0
  00010	50		 push	 eax
  00011	53		 push	 ebx
  00012	56		 push	 esi
  00013	57		 push	 edi
  00014	a1 00 00 00 00	 mov	 eax, DWORD PTR ___security_cookie
  00019	33 c5		 xor	 eax, ebp
  0001b	50		 push	 eax
  0001c	8d 45 f4	 lea	 eax, DWORD PTR __$EHRec$[ebp]
  0001f	64 a3 00 00 00
	00		 mov	 DWORD PTR fs:0, eax
  00025	8b f1		 mov	 esi, ecx
  00027	8b 45 08	 mov	 eax, DWORD PTR ___flags$[ebp]
  0002a	8b f8		 mov	 edi, eax
  0002c	83 e7 01	 and	 edi, 1
  0002f	a8 02		 test	 al, 2
  00031	74 40		 je	 SHORT $LN2@vector
  00033	68 00 00 00 00	 push	 OFFSET ??1TiXmlVisitor@@UAE@XZ ; TiXmlVisitor::~TiXmlVisitor
  00038	ff 76 fc	 push	 DWORD PTR [esi-4]
  0003b	8d 5e fc	 lea	 ebx, DWORD PTR [esi-4]
  0003e	6a 04		 push	 4
  00040	56		 push	 esi
  00041	e8 00 00 00 00	 call	 ??_M@YGXPAXIIP6EX0@Z@Z
  00046	85 ff		 test	 edi, edi
  00048	74 13		 je	 SHORT $LN3@vector
  0004a	8b 0b		 mov	 ecx, DWORD PTR [ebx]
  0004c	8d 0c 8d 04 00
	00 00		 lea	 ecx, DWORD PTR [ecx*4+4]
  00053	51		 push	 ecx
  00054	53		 push	 ebx
  00055	e8 00 00 00 00	 call	 ??_V@YAXPAXI@Z		; operator delete[]
  0005a	83 c4 08	 add	 esp, 8
$LN3@vector:
  0005d	8b c3		 mov	 eax, ebx
  0005f	8b 4d f4	 mov	 ecx, DWORD PTR __$EHRec$[ebp]
  00062	64 89 0d 00 00
	00 00		 mov	 DWORD PTR fs:0, ecx
  00069	59		 pop	 ecx
  0006a	5f		 pop	 edi
  0006b	5e		 pop	 esi
  0006c	5b		 pop	 ebx
  0006d	8b e5		 mov	 esp, ebp
  0006f	5d		 pop	 ebp
  00070	c2 04 00	 ret	 4
$LN2@vector:
  00073	c7 06 00 00 00
	00		 mov	 DWORD PTR [esi], OFFSET ??_7TiXmlVisitor@@6B@
  00079	85 ff		 test	 edi, edi
  0007b	74 0b		 je	 SHORT $LN4@vector
  0007d	6a 04		 push	 4
  0007f	56		 push	 esi
  00080	e8 00 00 00 00	 call	 ??3@YAXPAXI@Z		; operator delete
  00085	83 c4 08	 add	 esp, 8
$LN4@vector:
  00088	8b c6		 mov	 eax, esi
  0008a	8b 4d f4	 mov	 ecx, DWORD PTR __$EHRec$[ebp]
  0008d	64 89 0d 00 00
	00 00		 mov	 DWORD PTR fs:0, ecx
  00094	59		 pop	 ecx
  00095	5f		 pop	 edi
  00096	5e		 pop	 esi
  00097	5b		 pop	 ebx
  00098	8b e5		 mov	 esp, ebp
  0009a	5d		 pop	 ebp
  0009b	c2 04 00	 ret	 4
  0009e	cc		 int	 3
  0009f	cc		 int	 3
  000a0	cc		 int	 3
  000a1	cc		 int	 3
  000a2	cc		 int	 3
_TEXT	ENDS
;	COMDAT text$x
text$x	SEGMENT
__ehhandler$??_ETiXmlVisitor@@UAEPAXI@Z:
  00000	90		 npad	 1
  00001	90		 npad	 1
  00002	8b 54 24 08	 mov	 edx, DWORD PTR [esp+8]
  00006	8d 42 0c	 lea	 eax, DWORD PTR [edx+12]
  00009	8b 4a f0	 mov	 ecx, DWORD PTR [edx-16]
  0000c	33 c8		 xor	 ecx, eax
  0000e	e8 00 00 00 00	 call	 @__security_check_cookie@4
  00013	b8 00 00 00 00	 mov	 eax, OFFSET __ehfuncinfo$??_ETiXmlVisitor@@UAEPAXI@Z
  00018	e9 00 00 00 00	 jmp	 ___CxxFrameHandler3
text$x	ENDS
??_ETiXmlVisitor@@UAEPAXI@Z ENDP			; TiXmlVisitor::`vector deleting destructor'
; Function compile flags: /Ogtp
;	COMDAT ??_GTiXmlVisitor@@UAEPAXI@Z
_TEXT	SEGMENT
___flags$ = 8						; size = 4
??_GTiXmlVisitor@@UAEPAXI@Z PROC			; TiXmlVisitor::`scalar deleting destructor', COMDAT
; _this$ = ecx
  00000	55		 push	 ebp
  00001	8b ec		 mov	 ebp, esp
  00003	f6 45 08 01	 test	 BYTE PTR ___flags$[ebp], 1
  00007	56		 push	 esi
  00008	8b f1		 mov	 esi, ecx
  0000a	c7 06 00 00 00
	00		 mov	 DWORD PTR [esi], OFFSET ??_7TiXmlVisitor@@6B@
  00010	74 0b		 je	 SHORT $LN5@scalar
  00012	6a 04		 push	 4
  00014	56		 push	 esi
  00015	e8 00 00 00 00	 call	 ??3@YAXPAXI@Z		; operator delete
  0001a	83 c4 08	 add	 esp, 8
$LN5@scalar:
  0001d	8b c6		 mov	 eax, esi
  0001f	5e		 pop	 esi
  00020	5d		 pop	 ebp
  00021	c2 04 00	 ret	 4
??_GTiXmlVisitor@@UAEPAXI@Z ENDP			; TiXmlVisitor::`scalar deleting destructor'
_TEXT	ENDS
; Function compile flags: /Ogtp
;	COMDAT ??4TiXmlVisitor@@QAEAAV0@ABV0@@Z
_TEXT	SEGMENT
___that$ = 8						; size = 4
??4TiXmlVisitor@@QAEAAV0@ABV0@@Z PROC			; TiXmlVisitor::operator=, COMDAT
; _this$ = ecx
  00000	8b c1		 mov	 eax, ecx
  00002	c2 04 00	 ret	 4
??4TiXmlVisitor@@QAEAAV0@ABV0@@Z ENDP			; TiXmlVisitor::operator=
_TEXT	ENDS
; Function compile flags: /Ogtp
;	COMDAT ??0TiXmlVisitor@@QAE@ABV0@@Z
_TEXT	SEGMENT
___that$ = 8						; size = 4
??0TiXmlVisitor@@QAE@ABV0@@Z PROC			; TiXmlVisitor::TiXmlVisitor, COMDAT
; _this$ = ecx
  00000	c7 01 00 00 00
	00		 mov	 DWORD PTR [ecx], OFFSET ??_7TiXmlVisitor@@6B@
  00006	8b c1		 mov	 eax, ecx
  00008	c2 04 00	 ret	 4
??0TiXmlVisitor@@QAE@ABV0@@Z ENDP			; TiXmlVisitor::TiXmlVisitor
_TEXT	ENDS
; Function compile flags: /Ogtp
;	COMDAT ??0TiXmlVisitor@@QAE@XZ
_TEXT	SEGMENT
??0TiXmlVisitor@@QAE@XZ PROC				; TiXmlVisitor::TiXmlVisitor, COMDAT
; _this$ = ecx
  00000	c7 01 00 00 00
	00		 mov	 DWORD PTR [ecx], OFFSET ??_7TiXmlVisitor@@6B@
  00006	8b c1		 mov	 eax, ecx
  00008	c3		 ret	 0
??0TiXmlVisitor@@QAE@XZ ENDP				; TiXmlVisitor::TiXmlVisitor
_TEXT	ENDS
; Function compile flags: /Ogtp
; File E:\Proyectos\JuegosOnlineproyectos\PB\pbblow\Piercing Blow Remake\i3Server\include\i3Base\tinyxml.h
;	COMDAT ?Visit@TiXmlVisitor@@UAE_NABVTiXmlUnknown@@@Z
_TEXT	SEGMENT
___formal$ = 8						; size = 4
?Visit@TiXmlVisitor@@UAE_NABVTiXmlUnknown@@@Z PROC	; TiXmlVisitor::Visit, COMDAT
; _this$ = ecx

; 154  : 	virtual bool Visit( const TiXmlUnknown& /*unknown*/ )			{ return true; }

  00000	b0 01		 mov	 al, 1
  00002	c2 04 00	 ret	 4
?Visit@TiXmlVisitor@@UAE_NABVTiXmlUnknown@@@Z ENDP	; TiXmlVisitor::Visit
_TEXT	ENDS
; Function compile flags: /Ogtp
; File E:\Proyectos\JuegosOnlineproyectos\PB\pbblow\Piercing Blow Remake\i3Server\include\i3Base\tinyxml.h
;	COMDAT ?Visit@TiXmlVisitor@@UAE_NABVTiXmlComment@@@Z
_TEXT	SEGMENT
___formal$ = 8						; size = 4
?Visit@TiXmlVisitor@@UAE_NABVTiXmlComment@@@Z PROC	; TiXmlVisitor::Visit, COMDAT
; _this$ = ecx

; 152  : 	virtual bool Visit( const TiXmlComment& /*comment*/ )			{ return true; }

  00000	b0 01		 mov	 al, 1
  00002	c2 04 00	 ret	 4
?Visit@TiXmlVisitor@@UAE_NABVTiXmlComment@@@Z ENDP	; TiXmlVisitor::Visit
_TEXT	ENDS
; Function compile flags: /Ogtp
; File E:\Proyectos\JuegosOnlineproyectos\PB\pbblow\Piercing Blow Remake\i3Server\include\i3Base\tinyxml.h
;	COMDAT ?Visit@TiXmlVisitor@@UAE_NABVTiXmlText@@@Z
_TEXT	SEGMENT
___formal$ = 8						; size = 4
?Visit@TiXmlVisitor@@UAE_NABVTiXmlText@@@Z PROC		; TiXmlVisitor::Visit, COMDAT
; _this$ = ecx

; 150  : 	virtual bool Visit( const TiXmlText& /*text*/ )					{ return true; }

  00000	b0 01		 mov	 al, 1
  00002	c2 04 00	 ret	 4
?Visit@TiXmlVisitor@@UAE_NABVTiXmlText@@@Z ENDP		; TiXmlVisitor::Visit
_TEXT	ENDS
; Function compile flags: /Ogtp
; File E:\Proyectos\JuegosOnlineproyectos\PB\pbblow\Piercing Blow Remake\i3Server\include\i3Base\tinyxml.h
;	COMDAT ?Visit@TiXmlVisitor@@UAE_NABVTiXmlDeclaration@@@Z
_TEXT	SEGMENT
___formal$ = 8						; size = 4
?Visit@TiXmlVisitor@@UAE_NABVTiXmlDeclaration@@@Z PROC	; TiXmlVisitor::Visit, COMDAT
; _this$ = ecx

; 148  : 	virtual bool Visit( const TiXmlDeclaration& /*declaration*/ )	{ return true; }

  00000	b0 01		 mov	 al, 1
  00002	c2 04 00	 ret	 4
?Visit@TiXmlVisitor@@UAE_NABVTiXmlDeclaration@@@Z ENDP	; TiXmlVisitor::Visit
_TEXT	ENDS
; Function compile flags: /Ogtp
; File E:\Proyectos\JuegosOnlineproyectos\PB\pbblow\Piercing Blow Remake\i3Server\include\i3Base\tinyxml.h
;	COMDAT ?VisitExit@TiXmlVisitor@@UAE_NABVTiXmlElement@@@Z
_TEXT	SEGMENT
___formal$ = 8						; size = 4
?VisitExit@TiXmlVisitor@@UAE_NABVTiXmlElement@@@Z PROC	; TiXmlVisitor::VisitExit, COMDAT
; _this$ = ecx

; 145  : 	virtual bool VisitExit( const TiXmlElement& /*element*/ )		{ return true; }

  00000	b0 01		 mov	 al, 1
  00002	c2 04 00	 ret	 4
?VisitExit@TiXmlVisitor@@UAE_NABVTiXmlElement@@@Z ENDP	; TiXmlVisitor::VisitExit
_TEXT	ENDS
; Function compile flags: /Ogtp
; File E:\Proyectos\JuegosOnlineproyectos\PB\pbblow\Piercing Blow Remake\i3Server\include\i3Base\tinyxml.h
;	COMDAT ?VisitEnter@TiXmlVisitor@@UAE_NABVTiXmlElement@@PBVTiXmlAttribute@@@Z
_TEXT	SEGMENT
___formal$ = 8						; size = 4
___formal$ = 12						; size = 4
?VisitEnter@TiXmlVisitor@@UAE_NABVTiXmlElement@@PBVTiXmlAttribute@@@Z PROC ; TiXmlVisitor::VisitEnter, COMDAT
; _this$ = ecx

; 143  : 	virtual bool VisitEnter( const TiXmlElement& /*element*/, const TiXmlAttribute* /*firstAttribute*/ )	{ return true; }

  00000	b0 01		 mov	 al, 1
  00002	c2 08 00	 ret	 8
?VisitEnter@TiXmlVisitor@@UAE_NABVTiXmlElement@@PBVTiXmlAttribute@@@Z ENDP ; TiXmlVisitor::VisitEnter
_TEXT	ENDS
; Function compile flags: /Ogtp
; File E:\Proyectos\JuegosOnlineproyectos\PB\pbblow\Piercing Blow Remake\i3Server\include\i3Base\tinyxml.h
;	COMDAT ?VisitExit@TiXmlVisitor@@UAE_NABVTiXmlDocument@@@Z
_TEXT	SEGMENT
___formal$ = 8						; size = 4
?VisitExit@TiXmlVisitor@@UAE_NABVTiXmlDocument@@@Z PROC	; TiXmlVisitor::VisitExit, COMDAT
; _this$ = ecx

; 140  : 	virtual bool VisitExit( const TiXmlDocument& /*doc*/ )			{ return true; }

  00000	b0 01		 mov	 al, 1
  00002	c2 04 00	 ret	 4
?VisitExit@TiXmlVisitor@@UAE_NABVTiXmlDocument@@@Z ENDP	; TiXmlVisitor::VisitExit
_TEXT	ENDS
; Function compile flags: /Ogtp
; File E:\Proyectos\JuegosOnlineproyectos\PB\pbblow\Piercing Blow Remake\i3Server\include\i3Base\tinyxml.h
;	COMDAT ?VisitEnter@TiXmlVisitor@@UAE_NABVTiXmlDocument@@@Z
_TEXT	SEGMENT
___formal$ = 8						; size = 4
?VisitEnter@TiXmlVisitor@@UAE_NABVTiXmlDocument@@@Z PROC ; TiXmlVisitor::VisitEnter, COMDAT
; _this$ = ecx

; 138  : 	virtual bool VisitEnter( const TiXmlDocument& /*doc*/ )			{ return true; }

  00000	b0 01		 mov	 al, 1
  00002	c2 04 00	 ret	 4
?VisitEnter@TiXmlVisitor@@UAE_NABVTiXmlDocument@@@Z ENDP ; TiXmlVisitor::VisitEnter
_TEXT	ENDS
; Function compile flags: /Ogtp
; File E:\Proyectos\JuegosOnlineproyectos\PB\pbblow\Piercing Blow Remake\i3Server\include\i3Base\tinyxml.h
;	COMDAT ??1TiXmlVisitor@@UAE@XZ
_TEXT	SEGMENT
??1TiXmlVisitor@@UAE@XZ PROC				; TiXmlVisitor::~TiXmlVisitor, COMDAT
; _this$ = ecx

; 135  : 	virtual ~TiXmlVisitor() {}

  00000	c7 01 00 00 00
	00		 mov	 DWORD PTR [ecx], OFFSET ??_7TiXmlVisitor@@6B@
  00006	c3		 ret	 0
??1TiXmlVisitor@@UAE@XZ ENDP				; TiXmlVisitor::~TiXmlVisitor
_TEXT	ENDS
; Function compile flags: /Ogtp
;	COMDAT ??4TiXmlCursor@@QAEAAU0@$$QAU0@@Z
_TEXT	SEGMENT
___that$ = 8						; size = 4
??4TiXmlCursor@@QAEAAU0@$$QAU0@@Z PROC			; TiXmlCursor::operator=, COMDAT
; _this$ = ecx
  00000	55		 push	 ebp
  00001	8b ec		 mov	 ebp, esp
  00003	8b 55 08	 mov	 edx, DWORD PTR ___that$[ebp]
  00006	8b 02		 mov	 eax, DWORD PTR [edx]
  00008	89 01		 mov	 DWORD PTR [ecx], eax
  0000a	8b 42 04	 mov	 eax, DWORD PTR [edx+4]
  0000d	89 41 04	 mov	 DWORD PTR [ecx+4], eax
  00010	8b c1		 mov	 eax, ecx
  00012	5d		 pop	 ebp
  00013	c2 04 00	 ret	 4
??4TiXmlCursor@@QAEAAU0@$$QAU0@@Z ENDP			; TiXmlCursor::operator=
_TEXT	ENDS
; Function compile flags: /Ogtp
;	COMDAT ??4TiXmlCursor@@QAEAAU0@ABU0@@Z
_TEXT	SEGMENT
___that$ = 8						; size = 4
??4TiXmlCursor@@QAEAAU0@ABU0@@Z PROC			; TiXmlCursor::operator=, COMDAT
; _this$ = ecx
  00000	55		 push	 ebp
  00001	8b ec		 mov	 ebp, esp
  00003	8b 45 08	 mov	 eax, DWORD PTR ___that$[ebp]
  00006	8b 10		 mov	 edx, DWORD PTR [eax]
  00008	8b 40 04	 mov	 eax, DWORD PTR [eax+4]
  0000b	89 41 04	 mov	 DWORD PTR [ecx+4], eax
  0000e	8b c1		 mov	 eax, ecx
  00010	89 11		 mov	 DWORD PTR [ecx], edx
  00012	5d		 pop	 ebp
  00013	c2 04 00	 ret	 4
??4TiXmlCursor@@QAEAAU0@ABU0@@Z ENDP			; TiXmlCursor::operator=
_TEXT	ENDS
; Function compile flags: /Ogtp
; File E:\Proyectos\JuegosOnlineproyectos\PB\pbblow\Piercing Blow Remake\i3Server\include\i3Base\tinyxml.h
;	COMDAT ?Clear@TiXmlCursor@@QAEXXZ
_TEXT	SEGMENT
?Clear@TiXmlCursor@@QAEXXZ PROC				; TiXmlCursor::Clear, COMDAT
; _this$ = ecx

; 107  : 	void Clear()		{ row = col = -1; }

  00000	c7 41 04 ff ff
	ff ff		 mov	 DWORD PTR [ecx+4], -1
  00007	c7 01 ff ff ff
	ff		 mov	 DWORD PTR [ecx], -1
  0000d	c3		 ret	 0
?Clear@TiXmlCursor@@QAEXXZ ENDP				; TiXmlCursor::Clear
_TEXT	ENDS
; Function compile flags: /Ogtp
; File E:\Proyectos\JuegosOnlineproyectos\PB\pbblow\Piercing Blow Remake\i3Server\include\i3Base\tinyxml.h
;	COMDAT ??0TiXmlCursor@@QAE@XZ
_TEXT	SEGMENT
??0TiXmlCursor@@QAE@XZ PROC				; TiXmlCursor::TiXmlCursor, COMDAT
; _this$ = ecx

; 107  : 	void Clear()		{ row = col = -1; }

  00000	c7 41 04 ff ff
	ff ff		 mov	 DWORD PTR [ecx+4], -1

; 106  : 	TiXmlCursor()		{ Clear(); }

  00007	8b c1		 mov	 eax, ecx

; 107  : 	void Clear()		{ row = col = -1; }

  00009	c7 01 ff ff ff
	ff		 mov	 DWORD PTR [ecx], -1

; 106  : 	TiXmlCursor()		{ Clear(); }

  0000f	c3		 ret	 0
??0TiXmlCursor@@QAE@XZ ENDP				; TiXmlCursor::TiXmlCursor
_TEXT	ENDS
; Function compile flags: /Ogtp
; File E:\Proyectos\JuegosOnlineproyectos\PB\pbblow\Piercing Blow Remake\i3Server\include\i3Base\tinystr.h
;	COMDAT ?quit@TiXmlString@@AAEXXZ
_TEXT	SEGMENT
?quit@TiXmlString@@AAEXXZ PROC				; TiXmlString::quit, COMDAT
; _this$ = ecx

; 257  : 		if (rep_ != &nullrep_)

  00000	8b 01		 mov	 eax, DWORD PTR [ecx]
  00002	3d 00 00 00 00	 cmp	 eax, OFFSET ?nullrep_@TiXmlString@@0URep@1@A ; TiXmlString::nullrep_
  00007	74 07		 je	 SHORT $LN2@quit

; 258  : 		{
; 259  : 			// The rep_ is really an array of ints. (see the allocator, above).
; 260  : 			// Cast it back before delete, so the compiler won't incorrectly call destructors.
; 261  : 			delete [] ( reinterpret_cast<int*>( rep_ ) );

  00009	50		 push	 eax
  0000a	e8 00 00 00 00	 call	 ??_V@YAXPAX@Z		; operator delete[]
  0000f	59		 pop	 ecx
$LN2@quit:

; 262  : 		}
; 263  : 	}

  00010	c3		 ret	 0
?quit@TiXmlString@@AAEXXZ ENDP				; TiXmlString::quit
_TEXT	ENDS
; Function compile flags: /Ogtp
; File E:\Proyectos\JuegosOnlineproyectos\PB\pbblow\Piercing Blow Remake\i3Server\include\i3Base\tinystr.h
;	COMDAT ?init@TiXmlString@@AAEXII@Z
_TEXT	SEGMENT
_sz$ = 8						; size = 4
_cap$ = 12						; size = 4
?init@TiXmlString@@AAEXII@Z PROC			; TiXmlString::init, COMDAT
; _this$ = ecx

; 234  : 	{

  00000	55		 push	 ebp
  00001	8b ec		 mov	 ebp, esp
  00003	56		 push	 esi
  00004	57		 push	 edi

; 235  : 		if (cap)

  00005	8b 7d 0c	 mov	 edi, DWORD PTR _cap$[ebp]
  00008	8b f1		 mov	 esi, ecx
  0000a	85 ff		 test	 edi, edi
  0000c	74 37		 je	 SHORT $LN2@init

; 236  : 		{
; 237  : 			// Lee: the original form:
; 238  : 			//	rep_ = static_cast<Rep*>(operator new(sizeof(Rep) + cap));
; 239  : 			// doesn't work in some cases of new being overloaded. Switching
; 240  : 			// to the normal allocation, although use an 'int' for systems
; 241  : 			// that are overly picky about structure alignment.
; 242  : 			const size_type bytesNeeded = sizeof(Rep) + cap;
; 243  : 			const size_type intsNeeded = ( bytesNeeded + sizeof(int) - 1 ) / sizeof( int ); 

  0000e	8d 47 0f	 lea	 eax, DWORD PTR [edi+15]

; 244  : 			rep_ = reinterpret_cast<Rep*>( new int[ intsNeeded ] );

  00011	b9 04 00 00 00	 mov	 ecx, 4
  00016	c1 e8 02	 shr	 eax, 2
  00019	f7 e1		 mul	 ecx
  0001b	b9 ff ff ff ff	 mov	 ecx, -1
  00020	0f 42 c1	 cmovb	 eax, ecx
  00023	50		 push	 eax
  00024	e8 00 00 00 00	 call	 ??_U@YAPAXI@Z		; operator new[]

; 245  : 
; 246  : 			rep_->str[ rep_->size = sz ] = '\0';

  00029	8b 4d 08	 mov	 ecx, DWORD PTR _sz$[ebp]
  0002c	83 c4 04	 add	 esp, 4
  0002f	89 06		 mov	 DWORD PTR [esi], eax
  00031	89 08		 mov	 DWORD PTR [eax], ecx
  00033	8b 06		 mov	 eax, DWORD PTR [esi]
  00035	c6 44 08 08 00	 mov	 BYTE PTR [eax+ecx+8], 0

; 247  : 			rep_->capacity = cap;

  0003a	8b 06		 mov	 eax, DWORD PTR [esi]
  0003c	89 78 04	 mov	 DWORD PTR [eax+4], edi
  0003f	5f		 pop	 edi

; 252  : 		}
; 253  : 	}

  00040	5e		 pop	 esi
  00041	5d		 pop	 ebp
  00042	c2 08 00	 ret	 8
$LN2@init:
  00045	5f		 pop	 edi

; 248  : 		}
; 249  : 		else
; 250  : 		{
; 251  : 			rep_ = &nullrep_;

  00046	c7 06 00 00 00
	00		 mov	 DWORD PTR [esi], OFFSET ?nullrep_@TiXmlString@@0URep@1@A ; TiXmlString::nullrep_

; 252  : 		}
; 253  : 	}

  0004c	5e		 pop	 esi
  0004d	5d		 pop	 ebp
  0004e	c2 08 00	 ret	 8
?init@TiXmlString@@AAEXII@Z ENDP			; TiXmlString::init
_TEXT	ENDS
; Function compile flags: /Ogtp
; File E:\Proyectos\JuegosOnlineproyectos\PB\pbblow\Piercing Blow Remake\i3Server\include\i3Base\tinystr.h
;	COMDAT ?finish@TiXmlString@@ABEPADXZ
_TEXT	SEGMENT
?finish@TiXmlString@@ABEPADXZ PROC			; TiXmlString::finish, COMDAT
; _this$ = ecx

; 225  : 	char* finish() const { return rep_->str + rep_->size; }

  00000	8b 09		 mov	 ecx, DWORD PTR [ecx]
  00002	8b 01		 mov	 eax, DWORD PTR [ecx]
  00004	83 c0 08	 add	 eax, 8
  00007	03 c1		 add	 eax, ecx
  00009	c3		 ret	 0
?finish@TiXmlString@@ABEPADXZ ENDP			; TiXmlString::finish
_TEXT	ENDS
; Function compile flags: /Ogtp
; File E:\Proyectos\JuegosOnlineproyectos\PB\pbblow\Piercing Blow Remake\i3Server\include\i3Base\tinystr.h
;	COMDAT ?start@TiXmlString@@ABEPADXZ
_TEXT	SEGMENT
?start@TiXmlString@@ABEPADXZ PROC			; TiXmlString::start, COMDAT
; _this$ = ecx

; 224  : 	char* start() const { return rep_->str; }

  00000	8b 01		 mov	 eax, DWORD PTR [ecx]
  00002	83 c0 08	 add	 eax, 8
  00005	c3		 ret	 0
?start@TiXmlString@@ABEPADXZ ENDP			; TiXmlString::start
_TEXT	ENDS
; Function compile flags: /Ogtp
; File E:\Proyectos\JuegosOnlineproyectos\PB\pbblow\Piercing Blow Remake\i3Server\include\i3Base\tinystr.h
;	COMDAT ?set_size@TiXmlString@@AAEXI@Z
_TEXT	SEGMENT
_sz$ = 8						; size = 4
?set_size@TiXmlString@@AAEXI@Z PROC			; TiXmlString::set_size, COMDAT
; _this$ = ecx

; 223  : 	void set_size(size_type sz) { rep_->str[ rep_->size = sz ] = '\0'; }

  00000	55		 push	 ebp
  00001	8b ec		 mov	 ebp, esp
  00003	8b 01		 mov	 eax, DWORD PTR [ecx]
  00005	8b 55 08	 mov	 edx, DWORD PTR _sz$[ebp]
  00008	89 10		 mov	 DWORD PTR [eax], edx
  0000a	8b 01		 mov	 eax, DWORD PTR [ecx]
  0000c	c6 44 10 08 00	 mov	 BYTE PTR [eax+edx+8], 0
  00011	5d		 pop	 ebp
  00012	c2 04 00	 ret	 4
?set_size@TiXmlString@@AAEXI@Z ENDP			; TiXmlString::set_size
_TEXT	ENDS
; Function compile flags: /Ogtp
; File E:\Proyectos\JuegosOnlineproyectos\PB\pbblow\Piercing Blow Remake\i3Server\include\i3Base\tinystr.h
;	COMDAT ?init@TiXmlString@@AAEXI@Z
_TEXT	SEGMENT
_sz$ = 8						; size = 4
?init@TiXmlString@@AAEXI@Z PROC				; TiXmlString::init, COMDAT
; _this$ = ecx

; 222  : 	void init(size_type sz) { init(sz, sz); }

  00000	55		 push	 ebp
  00001	8b ec		 mov	 ebp, esp
  00003	56		 push	 esi

; 235  : 		if (cap)

  00004	8b 75 08	 mov	 esi, DWORD PTR _sz$[ebp]

; 222  : 	void init(size_type sz) { init(sz, sz); }

  00007	57		 push	 edi
  00008	8b f9		 mov	 edi, ecx

; 235  : 		if (cap)

  0000a	85 f6		 test	 esi, esi
  0000c	74 34		 je	 SHORT $LN4@init

; 236  : 		{
; 237  : 			// Lee: the original form:
; 238  : 			//	rep_ = static_cast<Rep*>(operator new(sizeof(Rep) + cap));
; 239  : 			// doesn't work in some cases of new being overloaded. Switching
; 240  : 			// to the normal allocation, although use an 'int' for systems
; 241  : 			// that are overly picky about structure alignment.
; 242  : 			const size_type bytesNeeded = sizeof(Rep) + cap;
; 243  : 			const size_type intsNeeded = ( bytesNeeded + sizeof(int) - 1 ) / sizeof( int ); 

  0000e	8d 46 0f	 lea	 eax, DWORD PTR [esi+15]

; 244  : 			rep_ = reinterpret_cast<Rep*>( new int[ intsNeeded ] );

  00011	b9 04 00 00 00	 mov	 ecx, 4
  00016	c1 e8 02	 shr	 eax, 2
  00019	f7 e1		 mul	 ecx
  0001b	b9 ff ff ff ff	 mov	 ecx, -1
  00020	0f 42 c1	 cmovb	 eax, ecx
  00023	50		 push	 eax
  00024	e8 00 00 00 00	 call	 ??_U@YAPAXI@Z		; operator new[]
  00029	89 07		 mov	 DWORD PTR [edi], eax
  0002b	83 c4 04	 add	 esp, 4

; 245  : 
; 246  : 			rep_->str[ rep_->size = sz ] = '\0';

  0002e	89 30		 mov	 DWORD PTR [eax], esi
  00030	8b 07		 mov	 eax, DWORD PTR [edi]
  00032	c6 44 30 08 00	 mov	 BYTE PTR [eax+esi+8], 0

; 247  : 			rep_->capacity = cap;

  00037	8b 07		 mov	 eax, DWORD PTR [edi]
  00039	5f		 pop	 edi
  0003a	89 70 04	 mov	 DWORD PTR [eax+4], esi

; 222  : 	void init(size_type sz) { init(sz, sz); }

  0003d	5e		 pop	 esi
  0003e	5d		 pop	 ebp
  0003f	c2 04 00	 ret	 4
$LN4@init:

; 251  : 			rep_ = &nullrep_;

  00042	c7 07 00 00 00
	00		 mov	 DWORD PTR [edi], OFFSET ?nullrep_@TiXmlString@@0URep@1@A ; TiXmlString::nullrep_
  00048	5f		 pop	 edi

; 222  : 	void init(size_type sz) { init(sz, sz); }

  00049	5e		 pop	 esi
  0004a	5d		 pop	 ebp
  0004b	c2 04 00	 ret	 4
?init@TiXmlString@@AAEXI@Z ENDP				; TiXmlString::init
_TEXT	ENDS
; Function compile flags: /Ogtp
; File E:\Proyectos\JuegosOnlineproyectos\PB\pbblow\Piercing Blow Remake\i3Server\include\i3Base\tinystr.h
;	COMDAT ?swap@TiXmlString@@QAEXAAV1@@Z
_TEXT	SEGMENT
_other$ = 8						; size = 4
?swap@TiXmlString@@QAEXAAV1@@Z PROC			; TiXmlString::swap, COMDAT
; _this$ = ecx

; 214  : 	{

  00000	55		 push	 ebp
  00001	8b ec		 mov	 ebp, esp

; 215  : 		Rep* r = rep_;
; 216  : 		rep_ = other.rep_;

  00003	8b 55 08	 mov	 edx, DWORD PTR _other$[ebp]
  00006	56		 push	 esi
  00007	8b 31		 mov	 esi, DWORD PTR [ecx]
  00009	8b 02		 mov	 eax, DWORD PTR [edx]
  0000b	89 01		 mov	 DWORD PTR [ecx], eax

; 217  : 		other.rep_ = r;

  0000d	89 32		 mov	 DWORD PTR [edx], esi
  0000f	5e		 pop	 esi

; 218  : 	}

  00010	5d		 pop	 ebp
  00011	c2 04 00	 ret	 4
?swap@TiXmlString@@QAEXAAV1@@Z ENDP			; TiXmlString::swap
_TEXT	ENDS
; Function compile flags: /Ogtp
; File E:\Proyectos\JuegosOnlineproyectos\PB\pbblow\Piercing Blow Remake\i3Server\include\i3Base\tinystr.h
;	COMDAT ?clear@TiXmlString@@QAEXXZ
_TEXT	SEGMENT
?clear@TiXmlString@@QAEXXZ PROC				; TiXmlString::clear, COMDAT
; _this$ = ecx

; 195  : 	{

  00000	56		 push	 esi
  00001	8b f1		 mov	 esi, ecx

; 257  : 		if (rep_ != &nullrep_)

  00003	8b 06		 mov	 eax, DWORD PTR [esi]
  00005	3d 00 00 00 00	 cmp	 eax, OFFSET ?nullrep_@TiXmlString@@0URep@1@A ; TiXmlString::nullrep_
  0000a	74 09		 je	 SHORT $LN10@clear

; 258  : 		{
; 259  : 			// The rep_ is really an array of ints. (see the allocator, above).
; 260  : 			// Cast it back before delete, so the compiler won't incorrectly call destructors.
; 261  : 			delete [] ( reinterpret_cast<int*>( rep_ ) );

  0000c	50		 push	 eax
  0000d	e8 00 00 00 00	 call	 ??_V@YAXPAX@Z		; operator delete[]
  00012	83 c4 04	 add	 esp, 4
$LN10@clear:

; 196  : 		//Lee:
; 197  : 		//The original was just too strange, though correct:
; 198  : 		//	TiXmlString().swap(*this);
; 199  : 		//Instead use the quit & re-init:
; 200  : 		quit();
; 201  : 		init(0,0);
; 202  : 	}

  00015	c7 06 00 00 00
	00		 mov	 DWORD PTR [esi], OFFSET ?nullrep_@TiXmlString@@0URep@1@A ; TiXmlString::nullrep_
  0001b	5e		 pop	 esi
  0001c	c3		 ret	 0
?clear@TiXmlString@@QAEXXZ ENDP				; TiXmlString::clear
_TEXT	ENDS
; Function compile flags: /Ogtp
; File E:\Proyectos\JuegosOnlineproyectos\PB\pbblow\Piercing Blow Remake\i3Server\include\i3Base\tinystr.h
;	COMDAT ?find@TiXmlString@@QBEIDI@Z
_TEXT	SEGMENT
_tofind$ = 8						; size = 1
_offset$ = 12						; size = 4
?find@TiXmlString@@QBEIDI@Z PROC			; TiXmlString::find, COMDAT
; _this$ = ecx

; 184  : 	{

  00000	55		 push	 ebp
  00001	8b ec		 mov	 ebp, esp

; 185  : 		if (offset >= length()) return npos;

  00003	8b 45 0c	 mov	 eax, DWORD PTR _offset$[ebp]
  00006	56		 push	 esi

; 150  : 	size_type length () const { return rep_->size; }

  00007	8b 31		 mov	 esi, DWORD PTR [ecx]

; 185  : 		if (offset >= length()) return npos;

  00009	3b 06		 cmp	 eax, DWORD PTR [esi]
  0000b	73 1f		 jae	 SHORT $LN3@find

; 186  : 
; 187  : 		for (const char* p = c_str() + offset; *p != '\0'; ++p)

  0000d	83 c0 08	 add	 eax, 8
  00010	03 c6		 add	 eax, esi
  00012	8a 08		 mov	 cl, BYTE PTR [eax]
  00014	84 c9		 test	 cl, cl
  00016	74 14		 je	 SHORT $LN3@find
  00018	8a 55 08	 mov	 dl, BYTE PTR _tofind$[ebp]
  0001b	eb 03 8d 49 00	 npad	 5
$LL4@find:

; 188  : 		{
; 189  : 		   if (*p == tofind) return static_cast< size_type >( p - c_str() );

  00020	3a ca		 cmp	 cl, dl
  00022	74 12		 je	 SHORT $LN15@find

; 186  : 
; 187  : 		for (const char* p = c_str() + offset; *p != '\0'; ++p)

  00024	8a 48 01	 mov	 cl, BYTE PTR [eax+1]
  00027	40		 inc	 eax
  00028	84 c9		 test	 cl, cl
  0002a	75 f4		 jne	 SHORT $LL4@find
$LN3@find:

; 190  : 		}
; 191  : 		return npos;

  0002c	a1 00 00 00 00	 mov	 eax, DWORD PTR ?npos@TiXmlString@@2IB ; TiXmlString::npos
  00031	5e		 pop	 esi

; 192  : 	}

  00032	5d		 pop	 ebp
  00033	c2 08 00	 ret	 8
$LN15@find:

; 188  : 		{
; 189  : 		   if (*p == tofind) return static_cast< size_type >( p - c_str() );

  00036	2b c6		 sub	 eax, esi
  00038	83 e8 08	 sub	 eax, 8
  0003b	5e		 pop	 esi

; 192  : 	}

  0003c	5d		 pop	 ebp
  0003d	c2 08 00	 ret	 8
?find@TiXmlString@@QBEIDI@Z ENDP			; TiXmlString::find
_TEXT	ENDS
; Function compile flags: /Ogtp
; File E:\Proyectos\JuegosOnlineproyectos\PB\pbblow\Piercing Blow Remake\i3Server\include\i3Base\tinystr.h
;	COMDAT ?find@TiXmlString@@QBEID@Z
_TEXT	SEGMENT
_lookup$ = 8						; size = 1
?find@TiXmlString@@QBEID@Z PROC				; TiXmlString::find, COMDAT
; _this$ = ecx

; 178  : 	{

  00000	55		 push	 ebp
  00001	8b ec		 mov	 ebp, esp
  00003	56		 push	 esi

; 150  : 	size_type length () const { return rep_->size; }

  00004	8b 31		 mov	 esi, DWORD PTR [ecx]

; 185  : 		if (offset >= length()) return npos;

  00006	83 3e 00	 cmp	 DWORD PTR [esi], 0
  00009	76 19		 jbe	 SHORT $LN5@find

; 186  : 
; 187  : 		for (const char* p = c_str() + offset; *p != '\0'; ++p)

  0000b	8a 4e 08	 mov	 cl, BYTE PTR [esi+8]

; 144  : 	const char * c_str () const { return rep_->str; }

  0000e	8d 46 08	 lea	 eax, DWORD PTR [esi+8]

; 187  : 		for (const char* p = c_str() + offset; *p != '\0'; ++p)

  00011	84 c9		 test	 cl, cl
  00013	74 0f		 je	 SHORT $LN5@find
  00015	8a 55 08	 mov	 dl, BYTE PTR _lookup$[ebp]
$LL6@find:

; 188  : 		{
; 189  : 		   if (*p == tofind) return static_cast< size_type >( p - c_str() );

  00018	3a ca		 cmp	 cl, dl
  0001a	74 12		 je	 SHORT $LN17@find

; 186  : 
; 187  : 		for (const char* p = c_str() + offset; *p != '\0'; ++p)

  0001c	8a 48 01	 mov	 cl, BYTE PTR [eax+1]
  0001f	40		 inc	 eax
  00020	84 c9		 test	 cl, cl
  00022	75 f4		 jne	 SHORT $LL6@find
$LN5@find:

; 179  : 		return find(lookup, 0);
; 180  : 	}

  00024	a1 00 00 00 00	 mov	 eax, DWORD PTR ?npos@TiXmlString@@2IB ; TiXmlString::npos
  00029	5e		 pop	 esi
  0002a	5d		 pop	 ebp
  0002b	c2 04 00	 ret	 4
$LN17@find:

; 189  : 		   if (*p == tofind) return static_cast< size_type >( p - c_str() );

  0002e	2b c6		 sub	 eax, esi
  00030	83 e8 08	 sub	 eax, 8
  00033	5e		 pop	 esi

; 179  : 		return find(lookup, 0);
; 180  : 	}

  00034	5d		 pop	 ebp
  00035	c2 04 00	 ret	 4
?find@TiXmlString@@QBEID@Z ENDP				; TiXmlString::find
_TEXT	ENDS
; Function compile flags: /Ogtp
; File E:\Proyectos\JuegosOnlineproyectos\PB\pbblow\Piercing Blow Remake\i3Server\include\i3Base\tinystr.h
;	COMDAT ??ATiXmlString@@QBEAADI@Z
_TEXT	SEGMENT
_index$ = 8						; size = 4
??ATiXmlString@@QBEAADI@Z PROC				; TiXmlString::operator[], COMDAT
; _this$ = ecx

; 171  : 	{

  00000	55		 push	 ebp
  00001	8b ec		 mov	 ebp, esp

; 172  : 		I3ASSERT( index < length() );
; 173  : 		return rep_->str[ index ];

  00003	8b 45 08	 mov	 eax, DWORD PTR _index$[ebp]
  00006	83 c0 08	 add	 eax, 8
  00009	03 01		 add	 eax, DWORD PTR [ecx]

; 174  : 	}

  0000b	5d		 pop	 ebp
  0000c	c2 04 00	 ret	 4
??ATiXmlString@@QBEAADI@Z ENDP				; TiXmlString::operator[]
_TEXT	ENDS
; Function compile flags: /Ogtp
; File E:\Proyectos\JuegosOnlineproyectos\PB\pbblow\Piercing Blow Remake\i3Server\include\i3Base\tinystr.h
;	COMDAT ?at@TiXmlString@@QBEABDI@Z
_TEXT	SEGMENT
_index$ = 8						; size = 4
?at@TiXmlString@@QBEABDI@Z PROC				; TiXmlString::at, COMDAT
; _this$ = ecx

; 164  : 	{

  00000	55		 push	 ebp
  00001	8b ec		 mov	 ebp, esp

; 165  : 		I3ASSERT( index < length() );
; 166  : 		return rep_->str[ index ];

  00003	8b 45 08	 mov	 eax, DWORD PTR _index$[ebp]
  00006	83 c0 08	 add	 eax, 8
  00009	03 01		 add	 eax, DWORD PTR [ecx]

; 167  : 	}

  0000b	5d		 pop	 ebp
  0000c	c2 04 00	 ret	 4
?at@TiXmlString@@QBEABDI@Z ENDP				; TiXmlString::at
_TEXT	ENDS
; Function compile flags: /Ogtp
; File E:\Proyectos\JuegosOnlineproyectos\PB\pbblow\Piercing Blow Remake\i3Server\include\i3Base\tinystr.h
;	COMDAT ?capacity@TiXmlString@@QBEIXZ
_TEXT	SEGMENT
?capacity@TiXmlString@@QBEIXZ PROC			; TiXmlString::capacity, COMDAT
; _this$ = ecx

; 159  : 	size_type capacity () const { return rep_->capacity; }

  00000	8b 01		 mov	 eax, DWORD PTR [ecx]
  00002	8b 40 04	 mov	 eax, DWORD PTR [eax+4]
  00005	c3		 ret	 0
?capacity@TiXmlString@@QBEIXZ ENDP			; TiXmlString::capacity
_TEXT	ENDS
; Function compile flags: /Ogtp
; File E:\Proyectos\JuegosOnlineproyectos\PB\pbblow\Piercing Blow Remake\i3Server\include\i3Base\tinystr.h
;	COMDAT ?empty@TiXmlString@@QBE_NXZ
_TEXT	SEGMENT
?empty@TiXmlString@@QBE_NXZ PROC			; TiXmlString::empty, COMDAT
; _this$ = ecx

; 156  : 	bool empty () const { return rep_->size == 0; }

  00000	8b 01		 mov	 eax, DWORD PTR [ecx]
  00002	83 38 00	 cmp	 DWORD PTR [eax], 0
  00005	0f 94 c0	 sete	 al
  00008	c3		 ret	 0
?empty@TiXmlString@@QBE_NXZ ENDP			; TiXmlString::empty
_TEXT	ENDS
; Function compile flags: /Ogtp
; File E:\Proyectos\JuegosOnlineproyectos\PB\pbblow\Piercing Blow Remake\i3Server\include\i3Base\tinystr.h
;	COMDAT ?size@TiXmlString@@QBEIXZ
_TEXT	SEGMENT
?size@TiXmlString@@QBEIXZ PROC				; TiXmlString::size, COMDAT
; _this$ = ecx

; 153  : 	size_type size () const { return rep_->size; }

  00000	8b 01		 mov	 eax, DWORD PTR [ecx]
  00002	8b 00		 mov	 eax, DWORD PTR [eax]
  00004	c3		 ret	 0
?size@TiXmlString@@QBEIXZ ENDP				; TiXmlString::size
_TEXT	ENDS
; Function compile flags: /Ogtp
; File E:\Proyectos\JuegosOnlineproyectos\PB\pbblow\Piercing Blow Remake\i3Server\include\i3Base\tinystr.h
;	COMDAT ?length@TiXmlString@@QBEIXZ
_TEXT	SEGMENT
?length@TiXmlString@@QBEIXZ PROC			; TiXmlString::length, COMDAT
; _this$ = ecx

; 150  : 	size_type length () const { return rep_->size; }

  00000	8b 01		 mov	 eax, DWORD PTR [ecx]
  00002	8b 00		 mov	 eax, DWORD PTR [eax]
  00004	c3		 ret	 0
?length@TiXmlString@@QBEIXZ ENDP			; TiXmlString::length
_TEXT	ENDS
; Function compile flags: /Ogtp
; File E:\Proyectos\JuegosOnlineproyectos\PB\pbblow\Piercing Blow Remake\i3Server\include\i3Base\tinystr.h
;	COMDAT ?data@TiXmlString@@QBEPBDXZ
_TEXT	SEGMENT
?data@TiXmlString@@QBEPBDXZ PROC			; TiXmlString::data, COMDAT
; _this$ = ecx

; 147  : 	const char * data () const { return rep_->str; }

  00000	8b 01		 mov	 eax, DWORD PTR [ecx]
  00002	83 c0 08	 add	 eax, 8
  00005	c3		 ret	 0
?data@TiXmlString@@QBEPBDXZ ENDP			; TiXmlString::data
_TEXT	ENDS
; Function compile flags: /Ogtp
; File E:\Proyectos\JuegosOnlineproyectos\PB\pbblow\Piercing Blow Remake\i3Server\include\i3Base\tinystr.h
;	COMDAT ?c_str@TiXmlString@@QBEPBDXZ
_TEXT	SEGMENT
?c_str@TiXmlString@@QBEPBDXZ PROC			; TiXmlString::c_str, COMDAT
; _this$ = ecx

; 144  : 	const char * c_str () const { return rep_->str; }

  00000	8b 01		 mov	 eax, DWORD PTR [ecx]
  00002	83 c0 08	 add	 eax, 8
  00005	c3		 ret	 0
?c_str@TiXmlString@@QBEPBDXZ ENDP			; TiXmlString::c_str
_TEXT	ENDS
; Function compile flags: /Ogtp
; File E:\Proyectos\JuegosOnlineproyectos\PB\pbblow\Piercing Blow Remake\i3Server\include\i3Base\tinystr.h
;	COMDAT ??YTiXmlString@@QAEAAV0@ABV0@@Z
_TEXT	SEGMENT
_suffix$ = 8						; size = 4
??YTiXmlString@@QAEAAV0@ABV0@@Z PROC			; TiXmlString::operator+=, COMDAT
; _this$ = ecx

; 138  : 	{

  00000	55		 push	 ebp
  00001	8b ec		 mov	 ebp, esp

; 150  : 	size_type length () const { return rep_->size; }

  00003	8b 45 08	 mov	 eax, DWORD PTR _suffix$[ebp]
  00006	8b 00		 mov	 eax, DWORD PTR [eax]

; 139  : 		return append(suffix.data(), suffix.length());

  00008	ff 30		 push	 DWORD PTR [eax]

; 147  : 	const char * data () const { return rep_->str; }

  0000a	83 c0 08	 add	 eax, 8

; 139  : 		return append(suffix.data(), suffix.length());

  0000d	50		 push	 eax
  0000e	e8 00 00 00 00	 call	 ?append@TiXmlString@@QAEAAV1@PBDI@Z ; TiXmlString::append

; 140  : 	}

  00013	5d		 pop	 ebp
  00014	c2 04 00	 ret	 4
??YTiXmlString@@QAEAAV0@ABV0@@Z ENDP			; TiXmlString::operator+=
_TEXT	ENDS
; Function compile flags: /Ogtp
; File E:\Proyectos\JuegosOnlineproyectos\PB\pbblow\Piercing Blow Remake\i3Server\include\i3Base\tinystr.h
;	COMDAT ??YTiXmlString@@QAEAAV0@D@Z
_TEXT	SEGMENT
_single$ = 8						; size = 1
??YTiXmlString@@QAEAAV0@D@Z PROC			; TiXmlString::operator+=, COMDAT
; _this$ = ecx

; 132  : 	{

  00000	55		 push	 ebp
  00001	8b ec		 mov	 ebp, esp

; 133  : 		return append(&single, 1);

  00003	6a 01		 push	 1
  00005	8d 45 08	 lea	 eax, DWORD PTR _single$[ebp]
  00008	50		 push	 eax
  00009	e8 00 00 00 00	 call	 ?append@TiXmlString@@QAEAAV1@PBDI@Z ; TiXmlString::append

; 134  : 	}

  0000e	5d		 pop	 ebp
  0000f	c2 04 00	 ret	 4
??YTiXmlString@@QAEAAV0@D@Z ENDP			; TiXmlString::operator+=
_TEXT	ENDS
; Function compile flags: /Ogtp
; File E:\Proyectos\JuegosOnlineproyectos\PB\pbblow\Piercing Blow Remake\i3Server\include\i3Base\tinystr.h
;	COMDAT ??YTiXmlString@@QAEAAV0@PBD@Z
_TEXT	SEGMENT
_suffix$ = 8						; size = 4
??YTiXmlString@@QAEAAV0@PBD@Z PROC			; TiXmlString::operator+=, COMDAT
; _this$ = ecx

; 126  : 	{

  00000	55		 push	 ebp
  00001	8b ec		 mov	 ebp, esp

; 127  : 		return append(suffix, static_cast<size_type>( strlen(suffix) ));

  00003	8b 55 08	 mov	 edx, DWORD PTR _suffix$[ebp]
  00006	8b c2		 mov	 eax, edx
  00008	56		 push	 esi
  00009	57		 push	 edi
  0000a	8b f1		 mov	 esi, ecx
  0000c	8d 78 01	 lea	 edi, DWORD PTR [eax+1]
  0000f	90		 npad	 1
$LL3@operator:
  00010	8a 08		 mov	 cl, BYTE PTR [eax]
  00012	40		 inc	 eax
  00013	84 c9		 test	 cl, cl
  00015	75 f9		 jne	 SHORT $LL3@operator
  00017	2b c7		 sub	 eax, edi
  00019	8b ce		 mov	 ecx, esi
  0001b	50		 push	 eax
  0001c	52		 push	 edx
  0001d	e8 00 00 00 00	 call	 ?append@TiXmlString@@QAEAAV1@PBDI@Z ; TiXmlString::append
  00022	5f		 pop	 edi
  00023	5e		 pop	 esi

; 128  : 	}

  00024	5d		 pop	 ebp
  00025	c2 04 00	 ret	 4
??YTiXmlString@@QAEAAV0@PBD@Z ENDP			; TiXmlString::operator+=
_TEXT	ENDS
; Function compile flags: /Ogtp
; File E:\Proyectos\JuegosOnlineproyectos\PB\pbblow\Piercing Blow Remake\i3Server\include\i3Base\tinystr.h
;	COMDAT ??4TiXmlString@@QAEAAV0@ABV0@@Z
_TEXT	SEGMENT
_copy$ = 8						; size = 4
??4TiXmlString@@QAEAAV0@ABV0@@Z PROC			; TiXmlString::operator=, COMDAT
; _this$ = ecx

; 119  : 	{

  00000	55		 push	 ebp
  00001	8b ec		 mov	 ebp, esp

; 150  : 	size_type length () const { return rep_->size; }

  00003	8b 45 08	 mov	 eax, DWORD PTR _copy$[ebp]
  00006	8b 00		 mov	 eax, DWORD PTR [eax]

; 120  : 		return assign(copy.start(), copy.length());

  00008	ff 30		 push	 DWORD PTR [eax]

; 224  : 	char* start() const { return rep_->str; }

  0000a	83 c0 08	 add	 eax, 8

; 120  : 		return assign(copy.start(), copy.length());

  0000d	50		 push	 eax
  0000e	e8 00 00 00 00	 call	 ?assign@TiXmlString@@QAEAAV1@PBDI@Z ; TiXmlString::assign

; 121  : 	}

  00013	5d		 pop	 ebp
  00014	c2 04 00	 ret	 4
??4TiXmlString@@QAEAAV0@ABV0@@Z ENDP			; TiXmlString::operator=
_TEXT	ENDS
; Function compile flags: /Ogtp
; File E:\Proyectos\JuegosOnlineproyectos\PB\pbblow\Piercing Blow Remake\i3Server\include\i3Base\tinystr.h
;	COMDAT ??4TiXmlString@@QAEAAV0@PBD@Z
_TEXT	SEGMENT
_copy$ = 8						; size = 4
??4TiXmlString@@QAEAAV0@PBD@Z PROC			; TiXmlString::operator=, COMDAT
; _this$ = ecx

; 113  : 	{

  00000	55		 push	 ebp
  00001	8b ec		 mov	 ebp, esp

; 114  : 		return assign( copy, (size_type)strlen(copy));

  00003	8b 55 08	 mov	 edx, DWORD PTR _copy$[ebp]
  00006	8b c2		 mov	 eax, edx
  00008	56		 push	 esi
  00009	57		 push	 edi
  0000a	8b f1		 mov	 esi, ecx
  0000c	8d 78 01	 lea	 edi, DWORD PTR [eax+1]
  0000f	90		 npad	 1
$LL3@operator:
  00010	8a 08		 mov	 cl, BYTE PTR [eax]
  00012	40		 inc	 eax
  00013	84 c9		 test	 cl, cl
  00015	75 f9		 jne	 SHORT $LL3@operator
  00017	2b c7		 sub	 eax, edi
  00019	8b ce		 mov	 ecx, esi
  0001b	50		 push	 eax
  0001c	52		 push	 edx
  0001d	e8 00 00 00 00	 call	 ?assign@TiXmlString@@QAEAAV1@PBDI@Z ; TiXmlString::assign
  00022	5f		 pop	 edi
  00023	5e		 pop	 esi

; 115  : 	}

  00024	5d		 pop	 ebp
  00025	c2 04 00	 ret	 4
??4TiXmlString@@QAEAAV0@PBD@Z ENDP			; TiXmlString::operator=
_TEXT	ENDS
; Function compile flags: /Ogtp
; File E:\Proyectos\JuegosOnlineproyectos\PB\pbblow\Piercing Blow Remake\i3Server\include\i3Base\tinystr.h
;	COMDAT ??1TiXmlString@@QAE@XZ
_TEXT	SEGMENT
??1TiXmlString@@QAE@XZ PROC				; TiXmlString::~TiXmlString, COMDAT
; _this$ = ecx

; 257  : 		if (rep_ != &nullrep_)

  00000	8b 01		 mov	 eax, DWORD PTR [ecx]
  00002	3d 00 00 00 00	 cmp	 eax, OFFSET ?nullrep_@TiXmlString@@0URep@1@A ; TiXmlString::nullrep_
  00007	74 07		 je	 SHORT $LN5@TiXmlStrin

; 258  : 		{
; 259  : 			// The rep_ is really an array of ints. (see the allocator, above).
; 260  : 			// Cast it back before delete, so the compiler won't incorrectly call destructors.
; 261  : 			delete [] ( reinterpret_cast<int*>( rep_ ) );

  00009	50		 push	 eax
  0000a	e8 00 00 00 00	 call	 ??_V@YAXPAX@Z		; operator delete[]
  0000f	59		 pop	 ecx
$LN5@TiXmlStrin:

; 108  : 		quit();
; 109  : 	}

  00010	c3		 ret	 0
??1TiXmlString@@QAE@XZ ENDP				; TiXmlString::~TiXmlString
_TEXT	ENDS
; Function compile flags: /Ogtp
; File E:\Proyectos\JuegosOnlineproyectos\PB\pbblow\Piercing Blow Remake\i3Server\include\i3Base\tinystr.h
;	COMDAT ??0TiXmlString@@QAE@PBDI@Z
_TEXT	SEGMENT
_str$ = 8						; size = 4
_len$ = 12						; size = 4
??0TiXmlString@@QAE@PBDI@Z PROC				; TiXmlString::TiXmlString, COMDAT
; _this$ = ecx

; 100  : 	{

  00000	55		 push	 ebp
  00001	8b ec		 mov	 ebp, esp
  00003	56		 push	 esi
  00004	8b f1		 mov	 esi, ecx
  00006	57		 push	 edi

; 235  : 		if (cap)

  00007	8b 7d 0c	 mov	 edi, DWORD PTR _len$[ebp]

; 99   : 	TIXML_EXPLICIT TiXmlString ( const char * str, size_type len) : rep_(0)

  0000a	c7 06 00 00 00
	00		 mov	 DWORD PTR [esi], 0

; 235  : 		if (cap)

  00010	85 ff		 test	 edi, edi
  00012	74 30		 je	 SHORT $LN6@TiXmlStrin

; 236  : 		{
; 237  : 			// Lee: the original form:
; 238  : 			//	rep_ = static_cast<Rep*>(operator new(sizeof(Rep) + cap));
; 239  : 			// doesn't work in some cases of new being overloaded. Switching
; 240  : 			// to the normal allocation, although use an 'int' for systems
; 241  : 			// that are overly picky about structure alignment.
; 242  : 			const size_type bytesNeeded = sizeof(Rep) + cap;
; 243  : 			const size_type intsNeeded = ( bytesNeeded + sizeof(int) - 1 ) / sizeof( int ); 

  00014	8d 47 0f	 lea	 eax, DWORD PTR [edi+15]

; 244  : 			rep_ = reinterpret_cast<Rep*>( new int[ intsNeeded ] );

  00017	b9 04 00 00 00	 mov	 ecx, 4
  0001c	c1 e8 02	 shr	 eax, 2
  0001f	f7 e1		 mul	 ecx
  00021	b9 ff ff ff ff	 mov	 ecx, -1
  00026	0f 42 c1	 cmovb	 eax, ecx
  00029	50		 push	 eax
  0002a	e8 00 00 00 00	 call	 ??_U@YAPAXI@Z		; operator new[]
  0002f	89 06		 mov	 DWORD PTR [esi], eax
  00031	83 c4 04	 add	 esp, 4

; 245  : 
; 246  : 			rep_->str[ rep_->size = sz ] = '\0';

  00034	89 38		 mov	 DWORD PTR [eax], edi
  00036	8b 06		 mov	 eax, DWORD PTR [esi]
  00038	c6 44 38 08 00	 mov	 BYTE PTR [eax+edi+8], 0

; 247  : 			rep_->capacity = cap;

  0003d	8b 06		 mov	 eax, DWORD PTR [esi]
  0003f	89 78 04	 mov	 DWORD PTR [eax+4], edi

; 248  : 		}

  00042	eb 06		 jmp	 SHORT $LN7@TiXmlStrin
$LN6@TiXmlStrin:

; 249  : 		else
; 250  : 		{
; 251  : 			rep_ = &nullrep_;

  00044	c7 06 00 00 00
	00		 mov	 DWORD PTR [esi], OFFSET ?nullrep_@TiXmlString@@0URep@1@A ; TiXmlString::nullrep_
$LN7@TiXmlStrin:

; 224  : 	char* start() const { return rep_->str; }

  0004a	8b 06		 mov	 eax, DWORD PTR [esi]

; 101  : 		init(len);
; 102  : 		memcpy(start(), str, len);

  0004c	57		 push	 edi
  0004d	ff 75 08	 push	 DWORD PTR _str$[ebp]

; 224  : 	char* start() const { return rep_->str; }

  00050	83 c0 08	 add	 eax, 8

; 101  : 		init(len);
; 102  : 		memcpy(start(), str, len);

  00053	50		 push	 eax
  00054	e8 00 00 00 00	 call	 _memcpy
  00059	83 c4 0c	 add	 esp, 12			; 0000000cH

; 103  : 	}

  0005c	8b c6		 mov	 eax, esi
  0005e	5f		 pop	 edi
  0005f	5e		 pop	 esi
  00060	5d		 pop	 ebp
  00061	c2 08 00	 ret	 8
??0TiXmlString@@QAE@PBDI@Z ENDP				; TiXmlString::TiXmlString
_TEXT	ENDS
; Function compile flags: /Ogtp
; File E:\Proyectos\JuegosOnlineproyectos\PB\pbblow\Piercing Blow Remake\i3Server\include\i3Base\tinystr.h
;	COMDAT ??0TiXmlString@@QAE@PBD@Z
_TEXT	SEGMENT
_copy$ = 8						; size = 4
??0TiXmlString@@QAE@PBD@Z PROC				; TiXmlString::TiXmlString, COMDAT
; _this$ = ecx

; 93   : 	{

  00000	55		 push	 ebp
  00001	8b ec		 mov	 ebp, esp
  00003	56		 push	 esi

; 94   : 		init( static_cast<size_type>( strlen(copy) ));

  00004	8b 75 08	 mov	 esi, DWORD PTR _copy$[ebp]
  00007	57		 push	 edi
  00008	8b f9		 mov	 edi, ecx
  0000a	8d 4e 01	 lea	 ecx, DWORD PTR [esi+1]
  0000d	c7 07 00 00 00
	00		 mov	 DWORD PTR [edi], 0
$LL13@TiXmlStrin:
  00013	8a 06		 mov	 al, BYTE PTR [esi]
  00015	46		 inc	 esi
  00016	84 c0		 test	 al, al
  00018	75 f9		 jne	 SHORT $LL13@TiXmlStrin
  0001a	2b f1		 sub	 esi, ecx

; 235  : 		if (cap)

  0001c	74 30		 je	 SHORT $LN6@TiXmlStrin

; 236  : 		{
; 237  : 			// Lee: the original form:
; 238  : 			//	rep_ = static_cast<Rep*>(operator new(sizeof(Rep) + cap));
; 239  : 			// doesn't work in some cases of new being overloaded. Switching
; 240  : 			// to the normal allocation, although use an 'int' for systems
; 241  : 			// that are overly picky about structure alignment.
; 242  : 			const size_type bytesNeeded = sizeof(Rep) + cap;
; 243  : 			const size_type intsNeeded = ( bytesNeeded + sizeof(int) - 1 ) / sizeof( int ); 

  0001e	8d 46 0f	 lea	 eax, DWORD PTR [esi+15]

; 244  : 			rep_ = reinterpret_cast<Rep*>( new int[ intsNeeded ] );

  00021	b9 04 00 00 00	 mov	 ecx, 4
  00026	c1 e8 02	 shr	 eax, 2
  00029	f7 e1		 mul	 ecx
  0002b	b9 ff ff ff ff	 mov	 ecx, -1
  00030	0f 42 c1	 cmovb	 eax, ecx
  00033	50		 push	 eax
  00034	e8 00 00 00 00	 call	 ??_U@YAPAXI@Z		; operator new[]
  00039	89 07		 mov	 DWORD PTR [edi], eax
  0003b	83 c4 04	 add	 esp, 4

; 245  : 
; 246  : 			rep_->str[ rep_->size = sz ] = '\0';

  0003e	89 30		 mov	 DWORD PTR [eax], esi
  00040	8b 07		 mov	 eax, DWORD PTR [edi]
  00042	c6 44 30 08 00	 mov	 BYTE PTR [eax+esi+8], 0

; 247  : 			rep_->capacity = cap;

  00047	8b 07		 mov	 eax, DWORD PTR [edi]
  00049	89 70 04	 mov	 DWORD PTR [eax+4], esi

; 248  : 		}

  0004c	eb 06		 jmp	 SHORT $LN7@TiXmlStrin
$LN6@TiXmlStrin:

; 249  : 		else
; 250  : 		{
; 251  : 			rep_ = &nullrep_;

  0004e	c7 07 00 00 00
	00		 mov	 DWORD PTR [edi], OFFSET ?nullrep_@TiXmlString@@0URep@1@A ; TiXmlString::nullrep_
$LN7@TiXmlStrin:

; 150  : 	size_type length () const { return rep_->size; }

  00054	8b 07		 mov	 eax, DWORD PTR [edi]

; 95   : 		memcpy(start(), copy, length());

  00056	ff 30		 push	 DWORD PTR [eax]

; 224  : 	char* start() const { return rep_->str; }

  00058	83 c0 08	 add	 eax, 8

; 95   : 		memcpy(start(), copy, length());

  0005b	ff 75 08	 push	 DWORD PTR _copy$[ebp]
  0005e	50		 push	 eax
  0005f	e8 00 00 00 00	 call	 _memcpy
  00064	83 c4 0c	 add	 esp, 12			; 0000000cH

; 96   : 	}

  00067	8b c7		 mov	 eax, edi
  00069	5f		 pop	 edi
  0006a	5e		 pop	 esi
  0006b	5d		 pop	 ebp
  0006c	c2 04 00	 ret	 4
??0TiXmlString@@QAE@PBD@Z ENDP				; TiXmlString::TiXmlString
_TEXT	ENDS
; Function compile flags: /Ogtp
; File E:\Proyectos\JuegosOnlineproyectos\PB\pbblow\Piercing Blow Remake\i3Server\include\i3Base\tinystr.h
;	COMDAT ??0TiXmlString@@QAE@ABV0@@Z
_TEXT	SEGMENT
_copy$ = 8						; size = 4
??0TiXmlString@@QAE@ABV0@@Z PROC			; TiXmlString::TiXmlString, COMDAT
; _this$ = ecx

; 86   : 	{

  00000	55		 push	 ebp
  00001	8b ec		 mov	 ebp, esp
  00003	53		 push	 ebx

; 150  : 	size_type length () const { return rep_->size; }

  00004	8b 5d 08	 mov	 ebx, DWORD PTR _copy$[ebp]

; 86   : 	{

  00007	56		 push	 esi
  00008	8b f1		 mov	 esi, ecx
  0000a	57		 push	 edi
  0000b	c7 06 00 00 00
	00		 mov	 DWORD PTR [esi], 0

; 150  : 	size_type length () const { return rep_->size; }

  00011	8b 03		 mov	 eax, DWORD PTR [ebx]

; 87   : 		init(copy.length());

  00013	8b 38		 mov	 edi, DWORD PTR [eax]

; 235  : 		if (cap)

  00015	85 ff		 test	 edi, edi
  00017	74 30		 je	 SHORT $LN8@TiXmlStrin

; 236  : 		{
; 237  : 			// Lee: the original form:
; 238  : 			//	rep_ = static_cast<Rep*>(operator new(sizeof(Rep) + cap));
; 239  : 			// doesn't work in some cases of new being overloaded. Switching
; 240  : 			// to the normal allocation, although use an 'int' for systems
; 241  : 			// that are overly picky about structure alignment.
; 242  : 			const size_type bytesNeeded = sizeof(Rep) + cap;
; 243  : 			const size_type intsNeeded = ( bytesNeeded + sizeof(int) - 1 ) / sizeof( int ); 

  00019	8d 47 0f	 lea	 eax, DWORD PTR [edi+15]

; 244  : 			rep_ = reinterpret_cast<Rep*>( new int[ intsNeeded ] );

  0001c	b9 04 00 00 00	 mov	 ecx, 4
  00021	c1 e8 02	 shr	 eax, 2
  00024	f7 e1		 mul	 ecx
  00026	b9 ff ff ff ff	 mov	 ecx, -1
  0002b	0f 42 c1	 cmovb	 eax, ecx
  0002e	50		 push	 eax
  0002f	e8 00 00 00 00	 call	 ??_U@YAPAXI@Z		; operator new[]
  00034	89 06		 mov	 DWORD PTR [esi], eax
  00036	83 c4 04	 add	 esp, 4

; 245  : 
; 246  : 			rep_->str[ rep_->size = sz ] = '\0';

  00039	89 38		 mov	 DWORD PTR [eax], edi
  0003b	8b 06		 mov	 eax, DWORD PTR [esi]
  0003d	c6 44 38 08 00	 mov	 BYTE PTR [eax+edi+8], 0

; 247  : 			rep_->capacity = cap;

  00042	8b 06		 mov	 eax, DWORD PTR [esi]
  00044	89 78 04	 mov	 DWORD PTR [eax+4], edi

; 248  : 		}

  00047	eb 06		 jmp	 SHORT $LN9@TiXmlStrin
$LN8@TiXmlStrin:

; 249  : 		else
; 250  : 		{
; 251  : 			rep_ = &nullrep_;

  00049	c7 06 00 00 00
	00		 mov	 DWORD PTR [esi], OFFSET ?nullrep_@TiXmlString@@0URep@1@A ; TiXmlString::nullrep_
$LN9@TiXmlStrin:

; 150  : 	size_type length () const { return rep_->size; }

  0004f	8b 0e		 mov	 ecx, DWORD PTR [esi]

; 147  : 	const char * data () const { return rep_->str; }

  00051	8b 03		 mov	 eax, DWORD PTR [ebx]
  00053	83 c0 08	 add	 eax, 8

; 88   : 		memcpy(start(), copy.data(), length());

  00056	ff 31		 push	 DWORD PTR [ecx]
  00058	50		 push	 eax

; 224  : 	char* start() const { return rep_->str; }

  00059	8d 41 08	 lea	 eax, DWORD PTR [ecx+8]

; 88   : 		memcpy(start(), copy.data(), length());

  0005c	50		 push	 eax
  0005d	e8 00 00 00 00	 call	 _memcpy
  00062	83 c4 0c	 add	 esp, 12			; 0000000cH

; 89   : 	}

  00065	8b c6		 mov	 eax, esi
  00067	5f		 pop	 edi
  00068	5e		 pop	 esi
  00069	5b		 pop	 ebx
  0006a	5d		 pop	 ebp
  0006b	c2 04 00	 ret	 4
??0TiXmlString@@QAE@ABV0@@Z ENDP			; TiXmlString::TiXmlString
_TEXT	ENDS
; Function compile flags: /Ogtp
; File E:\Proyectos\JuegosOnlineproyectos\PB\pbblow\Piercing Blow Remake\i3Server\include\i3Base\tinystr.h
;	COMDAT ??0TiXmlString@@QAE@XZ
_TEXT	SEGMENT
??0TiXmlString@@QAE@XZ PROC				; TiXmlString::TiXmlString, COMDAT
; _this$ = ecx

; 80   : 	TiXmlString () : rep_(&nullrep_)

  00000	c7 01 00 00 00
	00		 mov	 DWORD PTR [ecx], OFFSET ?nullrep_@TiXmlString@@0URep@1@A ; TiXmlString::nullrep_

; 82   : 	}

  00006	8b c1		 mov	 eax, ecx
  00008	c3		 ret	 0
??0TiXmlString@@QAE@XZ ENDP				; TiXmlString::TiXmlString
_TEXT	ENDS
; Function compile flags: /Ogtp
; File E:\Proyectos\JuegosOnlineproyectos\PB\pbblow\Piercing Blow Remake\i3Server\src\i3Base\i3IniParser.cpp
;	COMDAT ??_Ei3FileStream@@UAEPAXI@Z
_TEXT	SEGMENT
__$EHRec$ = -12						; size = 12
___flags$ = 8						; size = 4
??_Ei3FileStream@@UAEPAXI@Z PROC			; i3FileStream::`vector deleting destructor', COMDAT
; _this$ = ecx
  00000	55		 push	 ebp
  00001	8b ec		 mov	 ebp, esp
  00003	6a ff		 push	 -1
  00005	68 00 00 00 00	 push	 __ehhandler$??_Ei3FileStream@@UAEPAXI@Z
  0000a	64 a1 00 00 00
	00		 mov	 eax, DWORD PTR fs:0
  00010	50		 push	 eax
  00011	53		 push	 ebx
  00012	56		 push	 esi
  00013	57		 push	 edi
  00014	a1 00 00 00 00	 mov	 eax, DWORD PTR ___security_cookie
  00019	33 c5		 xor	 eax, ebp
  0001b	50		 push	 eax
  0001c	8d 45 f4	 lea	 eax, DWORD PTR __$EHRec$[ebp]
  0001f	64 a3 00 00 00
	00		 mov	 DWORD PTR fs:0, eax
  00025	8b f1		 mov	 esi, ecx
  00027	8b 5d 08	 mov	 ebx, DWORD PTR ___flags$[ebp]
  0002a	8b fb		 mov	 edi, ebx
  0002c	83 e7 01	 and	 edi, 1
  0002f	f6 c3 02	 test	 bl, 2
  00032	74 43		 je	 SHORT $LN2@vector
  00034	68 00 00 00 00	 push	 OFFSET ??1i3FileStream@@UAE@XZ ; i3FileStream::~i3FileStream
  00039	ff 76 fc	 push	 DWORD PTR [esi-4]
  0003c	8d 5e fc	 lea	 ebx, DWORD PTR [esi-4]
  0003f	68 38 01 00 00	 push	 312			; 00000138H
  00044	56		 push	 esi
  00045	e8 00 00 00 00	 call	 ??_M@YGXPAXIIP6EX0@Z@Z
  0004a	85 ff		 test	 edi, edi
  0004c	74 13		 je	 SHORT $LN3@vector
  0004e	69 0b 38 01 00
	00		 imul	 ecx, DWORD PTR [ebx], 312
  00054	83 c1 04	 add	 ecx, 4
  00057	51		 push	 ecx
  00058	53		 push	 ebx
  00059	e8 00 00 00 00	 call	 ??_V@YAXPAXI@Z		; operator delete[]
  0005e	83 c4 08	 add	 esp, 8
$LN3@vector:
  00061	8b c3		 mov	 eax, ebx
  00063	8b 4d f4	 mov	 ecx, DWORD PTR __$EHRec$[ebp]
  00066	64 89 0d 00 00
	00 00		 mov	 DWORD PTR fs:0, ecx
  0006d	59		 pop	 ecx
  0006e	5f		 pop	 edi
  0006f	5e		 pop	 esi
  00070	5b		 pop	 ebx
  00071	8b e5		 mov	 esp, ebp
  00073	5d		 pop	 ebp
  00074	c2 04 00	 ret	 4
$LN2@vector:
  00077	e8 00 00 00 00	 call	 ??1i3FileStream@@UAE@XZ	; i3FileStream::~i3FileStream
  0007c	85 ff		 test	 edi, edi
  0007e	74 1e		 je	 SHORT $LN6@vector
  00080	f6 c3 04	 test	 bl, 4
  00083	75 0b		 jne	 SHORT $LN5@vector
  00085	56		 push	 esi
  00086	e8 00 00 00 00	 call	 ??3i3ElementBase@@SAXPAX@Z ; i3ElementBase::operator delete
  0008b	83 c4 04	 add	 esp, 4
  0008e	eb 0e		 jmp	 SHORT $LN6@vector
$LN5@vector:

  00090	68 38 01 00 00	 push	 312			; 00000138H
  00095	56		 push	 esi
  00096	e8 00 00 00 00	 call	 ??3@YAXPAXI@Z		; operator delete
  0009b	83 c4 08	 add	 esp, 8
$LN6@vector:
  0009e	8b c6		 mov	 eax, esi
  000a0	8b 4d f4	 mov	 ecx, DWORD PTR __$EHRec$[ebp]
  000a3	64 89 0d 00 00
	00 00		 mov	 DWORD PTR fs:0, ecx
  000aa	59		 pop	 ecx
  000ab	5f		 pop	 edi
  000ac	5e		 pop	 esi
  000ad	5b		 pop	 ebx
  000ae	8b e5		 mov	 esp, ebp
  000b0	5d		 pop	 ebp
  000b1	c2 04 00	 ret	 4
  000b4	cc		 int	 3
  000b5	cc		 int	 3
  000b6	cc		 int	 3
  000b7	cc		 int	 3
  000b8	cc		 int	 3
_TEXT	ENDS
;	COMDAT text$x
text$x	SEGMENT
__ehhandler$??_Ei3FileStream@@UAEPAXI@Z:
  00000	90		 npad	 1
  00001	90		 npad	 1
  00002	8b 54 24 08	 mov	 edx, DWORD PTR [esp+8]
  00006	8d 42 0c	 lea	 eax, DWORD PTR [edx+12]
  00009	8b 4a f0	 mov	 ecx, DWORD PTR [edx-16]
  0000c	33 c8		 xor	 ecx, eax
  0000e	e8 00 00 00 00	 call	 @__security_check_cookie@4
  00013	b8 00 00 00 00	 mov	 eax, OFFSET __ehfuncinfo$??_Ei3FileStream@@UAEPAXI@Z
  00018	e9 00 00 00 00	 jmp	 ___CxxFrameHandler3
text$x	ENDS
??_Ei3FileStream@@UAEPAXI@Z ENDP			; i3FileStream::`vector deleting destructor'
; Function compile flags: /Ogtp
; File E:\Proyectos\JuegosOnlineproyectos\PB\pbblow\Piercing Blow Remake\i3Server\src\i3Base\i3IniParser.cpp
;	COMDAT ??_Gi3FileStream@@UAEPAXI@Z
_TEXT	SEGMENT
___flags$ = 8						; size = 4
??_Gi3FileStream@@UAEPAXI@Z PROC			; i3FileStream::`scalar deleting destructor', COMDAT
; _this$ = ecx
  00000	55		 push	 ebp
  00001	8b ec		 mov	 ebp, esp
  00003	56		 push	 esi
  00004	8b f1		 mov	 esi, ecx
  00006	e8 00 00 00 00	 call	 ??1i3FileStream@@UAE@XZ	; i3FileStream::~i3FileStream
  0000b	8b 45 08	 mov	 eax, DWORD PTR ___flags$[ebp]
  0000e	a8 01		 test	 al, 1
  00010	74 22		 je	 SHORT $LN10@scalar
  00012	a8 04		 test	 al, 4
  00014	75 10		 jne	 SHORT $LN3@scalar
  00016	56		 push	 esi
  00017	e8 00 00 00 00	 call	 ??3i3ElementBase@@SAXPAX@Z ; i3ElementBase::operator delete
  0001c	83 c4 04	 add	 esp, 4
  0001f	8b c6		 mov	 eax, esi
  00021	5e		 pop	 esi
  00022	5d		 pop	 ebp
  00023	c2 04 00	 ret	 4
$LN3@scalar:

  00026	68 38 01 00 00	 push	 312			; 00000138H
  0002b	56		 push	 esi
  0002c	e8 00 00 00 00	 call	 ??3@YAXPAXI@Z		; operator delete
  00031	83 c4 08	 add	 esp, 8
$LN10@scalar:
  00034	8b c6		 mov	 eax, esi
  00036	5e		 pop	 esi
  00037	5d		 pop	 ebp
  00038	c2 04 00	 ret	 4
??_Gi3FileStream@@UAEPAXI@Z ENDP			; i3FileStream::`scalar deleting destructor'
_TEXT	ENDS
; Function compile flags: /Ogtp
;	COMDAT ??4i3FileStream@@QAEAAV0@ABV0@@Z
_TEXT	SEGMENT
___that$ = 8						; size = 4
??4i3FileStream@@QAEAAV0@ABV0@@Z PROC			; i3FileStream::operator=, COMDAT
; _this$ = ecx
  00000	55		 push	 ebp
  00001	8b ec		 mov	 ebp, esp
  00003	8b d1		 mov	 edx, ecx
  00005	56		 push	 esi
  00006	8b 75 08	 mov	 esi, DWORD PTR ___that$[ebp]
  00009	8b 46 04	 mov	 eax, DWORD PTR [esi+4]
  0000c	89 42 04	 mov	 DWORD PTR [edx+4], eax
  0000f	8b 46 08	 mov	 eax, DWORD PTR [esi+8]
  00012	89 42 08	 mov	 DWORD PTR [edx+8], eax
  00015	8b 46 0c	 mov	 eax, DWORD PTR [esi+12]
  00018	89 42 0c	 mov	 DWORD PTR [edx+12], eax
  0001b	8b 46 10	 mov	 eax, DWORD PTR [esi+16]
  0001e	89 42 10	 mov	 DWORD PTR [edx+16], eax
  00021	8b 46 14	 mov	 eax, DWORD PTR [esi+20]
  00024	89 42 14	 mov	 DWORD PTR [edx+20], eax
  00027	8b 46 18	 mov	 eax, DWORD PTR [esi+24]
  0002a	89 42 18	 mov	 DWORD PTR [edx+24], eax
  0002d	8b 46 1c	 mov	 eax, DWORD PTR [esi+28]
  00030	89 42 1c	 mov	 DWORD PTR [edx+28], eax
  00033	8b 46 20	 mov	 eax, DWORD PTR [esi+32]
  00036	89 42 20	 mov	 DWORD PTR [edx+32], eax
  00039	8b 46 24	 mov	 eax, DWORD PTR [esi+36]
  0003c	89 42 24	 mov	 DWORD PTR [edx+36], eax
  0003f	8b 46 28	 mov	 eax, DWORD PTR [esi+40]
  00042	89 42 28	 mov	 DWORD PTR [edx+40], eax
  00045	8b 46 2c	 mov	 eax, DWORD PTR [esi+44]
  00048	89 42 2c	 mov	 DWORD PTR [edx+44], eax
  0004b	8b 46 30	 mov	 eax, DWORD PTR [esi+48]
  0004e	89 42 30	 mov	 DWORD PTR [edx+48], eax
  00051	33 c0		 xor	 eax, eax
$LL4@operator:
  00053	8a 4c 06 34	 mov	 cl, BYTE PTR [esi+eax+52]
  00057	88 4c 02 34	 mov	 BYTE PTR [edx+eax+52], cl
  0005b	40		 inc	 eax
  0005c	3d 04 01 00 00	 cmp	 eax, 260		; 00000104H
  00061	72 f0		 jb	 SHORT $LL4@operator
  00063	5e		 pop	 esi
  00064	8b c2		 mov	 eax, edx
  00066	5d		 pop	 ebp
  00067	c2 04 00	 ret	 4
??4i3FileStream@@QAEAAV0@ABV0@@Z ENDP			; i3FileStream::operator=
_TEXT	ENDS
; Function compile flags: /Ogtp
;	COMDAT ??0i3FileStream@@QAE@ABV0@@Z
_TEXT	SEGMENT
___that$ = 8						; size = 4
??0i3FileStream@@QAE@ABV0@@Z PROC			; i3FileStream::i3FileStream, COMDAT
; _this$ = ecx
  00000	55		 push	 ebp
  00001	8b ec		 mov	 ebp, esp
  00003	8b d1		 mov	 edx, ecx
  00005	b9 41 00 00 00	 mov	 ecx, 65			; 00000041H
  0000a	56		 push	 esi
  0000b	8b 75 08	 mov	 esi, DWORD PTR ___that$[ebp]
  0000e	57		 push	 edi
  0000f	c7 02 00 00 00
	00		 mov	 DWORD PTR [edx], OFFSET ??_7i3ElementBase@@6B@
  00015	8d 7a 34	 lea	 edi, DWORD PTR [edx+52]
  00018	8b 46 04	 mov	 eax, DWORD PTR [esi+4]
  0001b	89 42 04	 mov	 DWORD PTR [edx+4], eax
  0001e	8b 46 08	 mov	 eax, DWORD PTR [esi+8]
  00021	89 42 08	 mov	 DWORD PTR [edx+8], eax
  00024	8b 46 0c	 mov	 eax, DWORD PTR [esi+12]
  00027	89 42 0c	 mov	 DWORD PTR [edx+12], eax
  0002a	c7 02 00 00 00
	00		 mov	 DWORD PTR [edx], OFFSET ??_7i3Stream@@6B@
  00030	8b 46 10	 mov	 eax, DWORD PTR [esi+16]
  00033	89 42 10	 mov	 DWORD PTR [edx+16], eax
  00036	8b 46 14	 mov	 eax, DWORD PTR [esi+20]
  00039	89 42 14	 mov	 DWORD PTR [edx+20], eax
  0003c	8b 46 18	 mov	 eax, DWORD PTR [esi+24]
  0003f	89 42 18	 mov	 DWORD PTR [edx+24], eax
  00042	8b 46 1c	 mov	 eax, DWORD PTR [esi+28]
  00045	89 42 1c	 mov	 DWORD PTR [edx+28], eax
  00048	8b 46 20	 mov	 eax, DWORD PTR [esi+32]
  0004b	89 42 20	 mov	 DWORD PTR [edx+32], eax
  0004e	c7 02 00 00 00
	00		 mov	 DWORD PTR [edx], OFFSET ??_7i3FileStream@@6B@
  00054	8b 46 24	 mov	 eax, DWORD PTR [esi+36]
  00057	89 42 24	 mov	 DWORD PTR [edx+36], eax
  0005a	8b 46 28	 mov	 eax, DWORD PTR [esi+40]
  0005d	89 42 28	 mov	 DWORD PTR [edx+40], eax
  00060	8b 46 2c	 mov	 eax, DWORD PTR [esi+44]
  00063	89 42 2c	 mov	 DWORD PTR [edx+44], eax
  00066	8b 46 30	 mov	 eax, DWORD PTR [esi+48]
  00069	83 c6 34	 add	 esi, 52			; 00000034H
  0006c	89 42 30	 mov	 DWORD PTR [edx+48], eax
  0006f	8b c2		 mov	 eax, edx
  00071	f3 a5		 rep movsd
  00073	5f		 pop	 edi
  00074	5e		 pop	 esi
  00075	5d		 pop	 ebp
  00076	c2 04 00	 ret	 4
??0i3FileStream@@QAE@ABV0@@Z ENDP			; i3FileStream::i3FileStream
_TEXT	ENDS
; Function compile flags: /Ogtp
; File E:\Proyectos\JuegosOnlineproyectos\PB\pbblow\Piercing Blow Remake\i3Server\include\i3Base\i3StreamFile.h
;	COMDAT ?IsCaseSensitive@i3FileStream@@SAHXZ
_TEXT	SEGMENT
?IsCaseSensitive@i3FileStream@@SAHXZ PROC		; i3FileStream::IsCaseSensitive, COMDAT

; 45   : 	static BOOL	IsCaseSensitive()						{ return m_bCaseSensitive; }

  00000	a1 00 00 00 00	 mov	 eax, DWORD PTR ?m_bCaseSensitive@i3FileStream@@1HA ; i3FileStream::m_bCaseSensitive
  00005	c3		 ret	 0
?IsCaseSensitive@i3FileStream@@SAHXZ ENDP		; i3FileStream::IsCaseSensitive
_TEXT	ENDS
; Function compile flags: /Ogtp
; File E:\Proyectos\JuegosOnlineproyectos\PB\pbblow\Piercing Blow Remake\i3Server\include\i3Base\i3StreamFile.h
;	COMDAT ?SetCaseSensitive@i3FileStream@@SAXH@Z
_TEXT	SEGMENT
_bTrue$ = 8						; size = 4
?SetCaseSensitive@i3FileStream@@SAXH@Z PROC		; i3FileStream::SetCaseSensitive, COMDAT

; 44   : 	static void	SetCaseSensitive( BOOL bTrue = TRUE )	{ m_bCaseSensitive = bTrue; }

  00000	55		 push	 ebp
  00001	8b ec		 mov	 ebp, esp
  00003	8b 45 08	 mov	 eax, DWORD PTR _bTrue$[ebp]
  00006	a3 00 00 00 00	 mov	 DWORD PTR ?m_bCaseSensitive@i3FileStream@@1HA, eax ; i3FileStream::m_bCaseSensitive
  0000b	5d		 pop	 ebp
  0000c	c3		 ret	 0
?SetCaseSensitive@i3FileStream@@SAXH@Z ENDP		; i3FileStream::SetCaseSensitive
_TEXT	ENDS
; Function compile flags: /Ogtp
; File E:\Proyectos\JuegosOnlineproyectos\PB\pbblow\Piercing Blow Remake\i3Server\include\i3Base\i3StreamFile.h
;	COMDAT ?GetFileName@i3FileStream@@QAEPADXZ
_TEXT	SEGMENT
?GetFileName@i3FileStream@@QAEPADXZ PROC		; i3FileStream::GetFileName, COMDAT
; _this$ = ecx

; 41   : 	char *  GetFileName(void)			{ return FileName; }

  00000	8d 41 34	 lea	 eax, DWORD PTR [ecx+52]
  00003	c3		 ret	 0
?GetFileName@i3FileStream@@QAEPADXZ ENDP		; i3FileStream::GetFileName
_TEXT	ENDS
; Function compile flags: /Ogtp
; File E:\Proyectos\JuegosOnlineproyectos\PB\pbblow\Piercing Blow Remake\i3Server\include\i3Base\i3StreamFile.h
;	COMDAT ?GetHandle@i3FileStream@@UAEPAXXZ
_TEXT	SEGMENT
?GetHandle@i3FileStream@@UAEPAXXZ PROC			; i3FileStream::GetHandle, COMDAT
; _this$ = ecx

; 39   : 	void * GetHandle(void)				{ return (void *)m_pHandle; }

  00000	8b 41 20	 mov	 eax, DWORD PTR [ecx+32]
  00003	c3		 ret	 0
?GetHandle@i3FileStream@@UAEPAXXZ ENDP			; i3FileStream::GetHandle
_TEXT	ENDS
; Function compile flags: /Ogtp
; File E:\Proyectos\JuegosOnlineproyectos\PB\pbblow\Piercing Blow Remake\i3Server\include\i3Base\i3StreamFile.h
;	COMDAT ?GetClassMeta@i3FileStream@@SAPAVi3ClassMeta@@XZ
_TEXT	SEGMENT
?GetClassMeta@i3FileStream@@SAPAVi3ClassMeta@@XZ PROC	; i3FileStream::GetClassMeta, COMDAT

; 20   : 	I3_CLASS_DEFINE( i3FileStream);

  00000	a1 00 00 00 00	 mov	 eax, DWORD PTR ?s_pClassMetai3FileStream@i3FileStream@@2PAVi3ClassMeta@@A ; i3FileStream::s_pClassMetai3FileStream
  00005	c3		 ret	 0
?GetClassMeta@i3FileStream@@SAPAVi3ClassMeta@@XZ ENDP	; i3FileStream::GetClassMeta
_TEXT	ENDS
; Function compile flags: /Ogtp
; File E:\Proyectos\JuegosOnlineproyectos\PB\pbblow\Piercing Blow Remake\i3Server\src\i3Base\i3IniParser.cpp
;	COMDAT ??_Ei3Stream@@UAEPAXI@Z
_TEXT	SEGMENT
__$EHRec$ = -12						; size = 12
___flags$ = 8						; size = 4
??_Ei3Stream@@UAEPAXI@Z PROC				; i3Stream::`vector deleting destructor', COMDAT
; _this$ = ecx
  00000	55		 push	 ebp
  00001	8b ec		 mov	 ebp, esp
  00003	6a ff		 push	 -1
  00005	68 00 00 00 00	 push	 __ehhandler$??_Ei3Stream@@UAEPAXI@Z
  0000a	64 a1 00 00 00
	00		 mov	 eax, DWORD PTR fs:0
  00010	50		 push	 eax
  00011	53		 push	 ebx
  00012	56		 push	 esi
  00013	57		 push	 edi
  00014	a1 00 00 00 00	 mov	 eax, DWORD PTR ___security_cookie
  00019	33 c5		 xor	 eax, ebp
  0001b	50		 push	 eax
  0001c	8d 45 f4	 lea	 eax, DWORD PTR __$EHRec$[ebp]
  0001f	64 a3 00 00 00
	00		 mov	 DWORD PTR fs:0, eax
  00025	8b f1		 mov	 esi, ecx
  00027	8b 5d 08	 mov	 ebx, DWORD PTR ___flags$[ebp]
  0002a	8b fb		 mov	 edi, ebx
  0002c	83 e7 01	 and	 edi, 1
  0002f	f6 c3 02	 test	 bl, 2
  00032	74 43		 je	 SHORT $LN2@vector
  00034	68 00 00 00 00	 push	 OFFSET ??1i3Stream@@UAE@XZ ; i3Stream::~i3Stream
  00039	ff 76 fc	 push	 DWORD PTR [esi-4]
  0003c	8d 5e fc	 lea	 ebx, DWORD PTR [esi-4]
  0003f	6a 24		 push	 36			; 00000024H
  00041	56		 push	 esi
  00042	e8 00 00 00 00	 call	 ??_M@YGXPAXIIP6EX0@Z@Z
  00047	85 ff		 test	 edi, edi
  00049	74 16		 je	 SHORT $LN3@vector
  0004b	8b 0b		 mov	 ecx, DWORD PTR [ebx]
  0004d	8d 0c c9	 lea	 ecx, DWORD PTR [ecx+ecx*8]
  00050	8d 0c 8d 04 00
	00 00		 lea	 ecx, DWORD PTR [ecx*4+4]
  00057	51		 push	 ecx
  00058	53		 push	 ebx
  00059	e8 00 00 00 00	 call	 ??_V@YAXPAXI@Z		; operator delete[]
  0005e	83 c4 08	 add	 esp, 8
$LN3@vector:
  00061	8b c3		 mov	 eax, ebx
  00063	8b 4d f4	 mov	 ecx, DWORD PTR __$EHRec$[ebp]
  00066	64 89 0d 00 00
	00 00		 mov	 DWORD PTR fs:0, ecx
  0006d	59		 pop	 ecx
  0006e	5f		 pop	 edi
  0006f	5e		 pop	 esi
  00070	5b		 pop	 ebx
  00071	8b e5		 mov	 esp, ebp
  00073	5d		 pop	 ebp
  00074	c2 04 00	 ret	 4
$LN2@vector:
  00077	e8 00 00 00 00	 call	 ??1i3Stream@@UAE@XZ	; i3Stream::~i3Stream
  0007c	85 ff		 test	 edi, edi
  0007e	74 1b		 je	 SHORT $LN6@vector
  00080	f6 c3 04	 test	 bl, 4
  00083	75 0b		 jne	 SHORT $LN5@vector
  00085	56		 push	 esi
  00086	e8 00 00 00 00	 call	 ??3i3ElementBase@@SAXPAX@Z ; i3ElementBase::operator delete
  0008b	83 c4 04	 add	 esp, 4
  0008e	eb 0b		 jmp	 SHORT $LN6@vector
$LN5@vector:

  00090	6a 24		 push	 36			; 00000024H
  00092	56		 push	 esi
  00093	e8 00 00 00 00	 call	 ??3@YAXPAXI@Z		; operator delete
  00098	83 c4 08	 add	 esp, 8
$LN6@vector:
  0009b	8b c6		 mov	 eax, esi
  0009d	8b 4d f4	 mov	 ecx, DWORD PTR __$EHRec$[ebp]
  000a0	64 89 0d 00 00
	00 00		 mov	 DWORD PTR fs:0, ecx
  000a7	59		 pop	 ecx
  000a8	5f		 pop	 edi
  000a9	5e		 pop	 esi
  000aa	5b		 pop	 ebx
  000ab	8b e5		 mov	 esp, ebp
  000ad	5d		 pop	 ebp
  000ae	c2 04 00	 ret	 4
  000b1	cc		 int	 3
  000b2	cc		 int	 3
  000b3	cc		 int	 3
  000b4	cc		 int	 3
  000b5	cc		 int	 3
_TEXT	ENDS
;	COMDAT text$x
text$x	SEGMENT
__ehhandler$??_Ei3Stream@@UAEPAXI@Z:
  00000	90		 npad	 1
  00001	90		 npad	 1
  00002	8b 54 24 08	 mov	 edx, DWORD PTR [esp+8]
  00006	8d 42 0c	 lea	 eax, DWORD PTR [edx+12]
  00009	8b 4a f0	 mov	 ecx, DWORD PTR [edx-16]
  0000c	33 c8		 xor	 ecx, eax
  0000e	e8 00 00 00 00	 call	 @__security_check_cookie@4
  00013	b8 00 00 00 00	 mov	 eax, OFFSET __ehfuncinfo$??_Ei3Stream@@UAEPAXI@Z
  00018	e9 00 00 00 00	 jmp	 ___CxxFrameHandler3
text$x	ENDS
??_Ei3Stream@@UAEPAXI@Z ENDP				; i3Stream::`vector deleting destructor'
; Function compile flags: /Ogtp
; File E:\Proyectos\JuegosOnlineproyectos\PB\pbblow\Piercing Blow Remake\i3Server\src\i3Base\i3IniParser.cpp
;	COMDAT ??_Gi3Stream@@UAEPAXI@Z
_TEXT	SEGMENT
___flags$ = 8						; size = 4
??_Gi3Stream@@UAEPAXI@Z PROC				; i3Stream::`scalar deleting destructor', COMDAT
; _this$ = ecx
  00000	55		 push	 ebp
  00001	8b ec		 mov	 ebp, esp
  00003	56		 push	 esi
  00004	8b f1		 mov	 esi, ecx
  00006	e8 00 00 00 00	 call	 ??1i3Stream@@UAE@XZ	; i3Stream::~i3Stream
  0000b	8b 45 08	 mov	 eax, DWORD PTR ___flags$[ebp]
  0000e	a8 01		 test	 al, 1
  00010	74 1f		 je	 SHORT $LN10@scalar
  00012	a8 04		 test	 al, 4
  00014	75 10		 jne	 SHORT $LN3@scalar
  00016	56		 push	 esi
  00017	e8 00 00 00 00	 call	 ??3i3ElementBase@@SAXPAX@Z ; i3ElementBase::operator delete
  0001c	83 c4 04	 add	 esp, 4
  0001f	8b c6		 mov	 eax, esi
  00021	5e		 pop	 esi
  00022	5d		 pop	 ebp
  00023	c2 04 00	 ret	 4
$LN3@scalar:

  00026	6a 24		 push	 36			; 00000024H
  00028	56		 push	 esi
  00029	e8 00 00 00 00	 call	 ??3@YAXPAXI@Z		; operator delete
  0002e	83 c4 08	 add	 esp, 8
$LN10@scalar:
  00031	8b c6		 mov	 eax, esi
  00033	5e		 pop	 esi
  00034	5d		 pop	 ebp
  00035	c2 04 00	 ret	 4
??_Gi3Stream@@UAEPAXI@Z ENDP				; i3Stream::`scalar deleting destructor'
_TEXT	ENDS
; Function compile flags: /Ogtp
;	COMDAT ??4i3Stream@@QAEAAV0@ABV0@@Z
_TEXT	SEGMENT
___that$ = 8						; size = 4
??4i3Stream@@QAEAAV0@ABV0@@Z PROC			; i3Stream::operator=, COMDAT
; _this$ = ecx
  00000	55		 push	 ebp
  00001	8b ec		 mov	 ebp, esp
  00003	8b 55 08	 mov	 edx, DWORD PTR ___that$[ebp]
  00006	8b 42 04	 mov	 eax, DWORD PTR [edx+4]
  00009	89 41 04	 mov	 DWORD PTR [ecx+4], eax
  0000c	8b 42 08	 mov	 eax, DWORD PTR [edx+8]
  0000f	89 41 08	 mov	 DWORD PTR [ecx+8], eax
  00012	8b 42 0c	 mov	 eax, DWORD PTR [edx+12]
  00015	89 41 0c	 mov	 DWORD PTR [ecx+12], eax
  00018	8b 42 10	 mov	 eax, DWORD PTR [edx+16]
  0001b	89 41 10	 mov	 DWORD PTR [ecx+16], eax
  0001e	8b 42 14	 mov	 eax, DWORD PTR [edx+20]
  00021	89 41 14	 mov	 DWORD PTR [ecx+20], eax
  00024	8b 42 18	 mov	 eax, DWORD PTR [edx+24]
  00027	89 41 18	 mov	 DWORD PTR [ecx+24], eax
  0002a	8b 42 1c	 mov	 eax, DWORD PTR [edx+28]
  0002d	89 41 1c	 mov	 DWORD PTR [ecx+28], eax
  00030	8b 42 20	 mov	 eax, DWORD PTR [edx+32]
  00033	89 41 20	 mov	 DWORD PTR [ecx+32], eax
  00036	8b c1		 mov	 eax, ecx
  00038	5d		 pop	 ebp
  00039	c2 04 00	 ret	 4
??4i3Stream@@QAEAAV0@ABV0@@Z ENDP			; i3Stream::operator=
_TEXT	ENDS
; Function compile flags: /Ogtp
;	COMDAT ??0i3Stream@@QAE@ABV0@@Z
_TEXT	SEGMENT
___that$ = 8						; size = 4
??0i3Stream@@QAE@ABV0@@Z PROC				; i3Stream::i3Stream, COMDAT
; _this$ = ecx
  00000	55		 push	 ebp
  00001	8b ec		 mov	 ebp, esp
  00003	8b 55 08	 mov	 edx, DWORD PTR ___that$[ebp]
  00006	c7 01 00 00 00
	00		 mov	 DWORD PTR [ecx], OFFSET ??_7i3ElementBase@@6B@
  0000c	8b 42 04	 mov	 eax, DWORD PTR [edx+4]
  0000f	89 41 04	 mov	 DWORD PTR [ecx+4], eax
  00012	8b 42 08	 mov	 eax, DWORD PTR [edx+8]
  00015	89 41 08	 mov	 DWORD PTR [ecx+8], eax
  00018	8b 42 0c	 mov	 eax, DWORD PTR [edx+12]
  0001b	89 41 0c	 mov	 DWORD PTR [ecx+12], eax
  0001e	c7 01 00 00 00
	00		 mov	 DWORD PTR [ecx], OFFSET ??_7i3Stream@@6B@
  00024	8b 42 10	 mov	 eax, DWORD PTR [edx+16]
  00027	89 41 10	 mov	 DWORD PTR [ecx+16], eax
  0002a	8b 42 14	 mov	 eax, DWORD PTR [edx+20]
  0002d	89 41 14	 mov	 DWORD PTR [ecx+20], eax
  00030	8b 42 18	 mov	 eax, DWORD PTR [edx+24]
  00033	89 41 18	 mov	 DWORD PTR [ecx+24], eax
  00036	8b 42 1c	 mov	 eax, DWORD PTR [edx+28]
  00039	89 41 1c	 mov	 DWORD PTR [ecx+28], eax
  0003c	8b 42 20	 mov	 eax, DWORD PTR [edx+32]
  0003f	89 41 20	 mov	 DWORD PTR [ecx+32], eax
  00042	8b c1		 mov	 eax, ecx
  00044	5d		 pop	 ebp
  00045	c2 04 00	 ret	 4
??0i3Stream@@QAE@ABV0@@Z ENDP				; i3Stream::i3Stream
_TEXT	ENDS
; Function compile flags: /Ogtp
; File E:\Proyectos\JuegosOnlineproyectos\PB\pbblow\Piercing Blow Remake\i3Server\include\i3Base\i3Stream.h
;	COMDAT ?GetRecordSize@i3Stream@@QAEIXZ
_TEXT	SEGMENT
?GetRecordSize@i3Stream@@QAEIXZ PROC			; i3Stream::GetRecordSize, COMDAT
; _this$ = ecx

; 58   : 	UINT32	GetRecordSize(void)							{ return m_RecordSize; }

  00000	8b 41 14	 mov	 eax, DWORD PTR [ecx+20]
  00003	c3		 ret	 0
?GetRecordSize@i3Stream@@QAEIXZ ENDP			; i3Stream::GetRecordSize
_TEXT	ENDS
; Function compile flags: /Ogtp
; File E:\Proyectos\JuegosOnlineproyectos\PB\pbblow\Piercing Blow Remake\i3Server\include\i3Base\i3Stream.h
;	COMDAT ?BeginRecord@i3Stream@@QAEXXZ
_TEXT	SEGMENT
?BeginRecord@i3Stream@@QAEXXZ PROC			; i3Stream::BeginRecord, COMDAT
; _this$ = ecx

; 57   : 	void	BeginRecord(void)							{ m_RecordSize = 0; }

  00000	c7 41 14 00 00
	00 00		 mov	 DWORD PTR [ecx+20], 0
  00007	c3		 ret	 0
?BeginRecord@i3Stream@@QAEXXZ ENDP			; i3Stream::BeginRecord
_TEXT	ENDS
; Function compile flags: /Ogtp
; File E:\Proyectos\JuegosOnlineproyectos\PB\pbblow\Piercing Blow Remake\i3Server\include\i3Base\i3Stream.h
;	COMDAT ?GetHandle@i3Stream@@UAEPAXXZ
_TEXT	SEGMENT
?GetHandle@i3Stream@@UAEPAXXZ PROC			; i3Stream::GetHandle, COMDAT
; _this$ = ecx

; 55   : 	virtual void *			GetHandle(void)				{ return m_pHandle; }

  00000	8b 41 20	 mov	 eax, DWORD PTR [ecx+32]
  00003	c3		 ret	 0
?GetHandle@i3Stream@@UAEPAXXZ ENDP			; i3Stream::GetHandle
_TEXT	ENDS
; Function compile flags: /Ogtp
; File E:\Proyectos\JuegosOnlineproyectos\PB\pbblow\Piercing Blow Remake\i3Server\include\i3Base\i3Stream.h
;	COMDAT ?GetAccessMode@i3Stream@@QAEHXZ
_TEXT	SEGMENT
?GetAccessMode@i3Stream@@QAEHXZ PROC			; i3Stream::GetAccessMode, COMDAT
; _this$ = ecx

; 53   : 	INT32			GetAccessMode(void)					{ return m_Access; }

  00000	8b 41 1c	 mov	 eax, DWORD PTR [ecx+28]
  00003	c3		 ret	 0
?GetAccessMode@i3Stream@@QAEHXZ ENDP			; i3Stream::GetAccessMode
_TEXT	ENDS
; Function compile flags: /Ogtp
; File E:\Proyectos\JuegosOnlineproyectos\PB\pbblow\Piercing Blow Remake\i3Server\include\i3Base\i3Stream.h
;	COMDAT ?GetLastError@i3Stream@@QAE?AW4STREAMCODE@1@XZ
_TEXT	SEGMENT
?GetLastError@i3Stream@@QAE?AW4STREAMCODE@1@XZ PROC	; i3Stream::GetLastError, COMDAT
; _this$ = ecx

; 52   : 	STREAMCODE		GetLastError(void)					{ return m_LastCode; }

  00000	8b 41 18	 mov	 eax, DWORD PTR [ecx+24]
  00003	c3		 ret	 0
?GetLastError@i3Stream@@QAE?AW4STREAMCODE@1@XZ ENDP	; i3Stream::GetLastError
_TEXT	ENDS
; Function compile flags: /Ogtp
; File E:\Proyectos\JuegosOnlineproyectos\PB\pbblow\Piercing Blow Remake\i3Server\include\i3Base\i3Stream.h
;	COMDAT ?GetSize@i3Stream@@QAEIXZ
_TEXT	SEGMENT
?GetSize@i3Stream@@QAEIXZ PROC				; i3Stream::GetSize, COMDAT
; _this$ = ecx

; 51   : 	UINT32			GetSize(void)						{ return m_Size; }

  00000	8b 41 10	 mov	 eax, DWORD PTR [ecx+16]
  00003	c3		 ret	 0
?GetSize@i3Stream@@QAEIXZ ENDP				; i3Stream::GetSize
_TEXT	ENDS
; Function compile flags: /Ogtp
; File E:\Proyectos\JuegosOnlineproyectos\PB\pbblow\Piercing Blow Remake\i3Server\include\i3Base\i3Stream.h
;	COMDAT ?GetClassMeta@i3Stream@@SAPAVi3ClassMeta@@XZ
_TEXT	SEGMENT
?GetClassMeta@i3Stream@@SAPAVi3ClassMeta@@XZ PROC	; i3Stream::GetClassMeta, COMDAT

; 24   : 	I3_ABSTRACT_CLASS_DEFINE( i3Stream);

  00000	a1 00 00 00 00	 mov	 eax, DWORD PTR ?s_pClassMetai3Stream@i3Stream@@2PAVi3ClassMeta@@A ; i3Stream::s_pClassMetai3Stream
  00005	c3		 ret	 0
?GetClassMeta@i3Stream@@SAPAVi3ClassMeta@@XZ ENDP	; i3Stream::GetClassMeta
_TEXT	ENDS
; Function compile flags: /Ogtp
;	COMDAT ??_Ei3MemoryPool@@UAEPAXI@Z
_TEXT	SEGMENT
__$EHRec$ = -12						; size = 12
___flags$ = 8						; size = 4
??_Ei3MemoryPool@@UAEPAXI@Z PROC			; i3MemoryPool::`vector deleting destructor', COMDAT
; _this$ = ecx
  00000	55		 push	 ebp
  00001	8b ec		 mov	 ebp, esp
  00003	6a ff		 push	 -1
  00005	68 00 00 00 00	 push	 __ehhandler$??_Ei3MemoryPool@@UAEPAXI@Z
  0000a	64 a1 00 00 00
	00		 mov	 eax, DWORD PTR fs:0
  00010	50		 push	 eax
  00011	53		 push	 ebx
  00012	56		 push	 esi
  00013	57		 push	 edi
  00014	a1 00 00 00 00	 mov	 eax, DWORD PTR ___security_cookie
  00019	33 c5		 xor	 eax, ebp
  0001b	50		 push	 eax
  0001c	8d 45 f4	 lea	 eax, DWORD PTR __$EHRec$[ebp]
  0001f	64 a3 00 00 00
	00		 mov	 DWORD PTR fs:0, eax
  00025	8b f1		 mov	 esi, ecx
  00027	8b 45 08	 mov	 eax, DWORD PTR ___flags$[ebp]
  0002a	8b f8		 mov	 edi, eax
  0002c	83 e7 01	 and	 edi, 1
  0002f	a8 02		 test	 al, 2
  00031	74 40		 je	 SHORT $LN2@vector
  00033	68 00 00 00 00	 push	 OFFSET ??1i3MemoryPool@@UAE@XZ ; i3MemoryPool::~i3MemoryPool
  00038	ff 76 fc	 push	 DWORD PTR [esi-4]
  0003b	8d 5e fc	 lea	 ebx, DWORD PTR [esi-4]
  0003e	6a 04		 push	 4
  00040	56		 push	 esi
  00041	e8 00 00 00 00	 call	 ??_M@YGXPAXIIP6EX0@Z@Z
  00046	85 ff		 test	 edi, edi
  00048	74 13		 je	 SHORT $LN3@vector
  0004a	8b 0b		 mov	 ecx, DWORD PTR [ebx]
  0004c	8d 0c 8d 04 00
	00 00		 lea	 ecx, DWORD PTR [ecx*4+4]
  00053	51		 push	 ecx
  00054	53		 push	 ebx
  00055	e8 00 00 00 00	 call	 ??_V@YAXPAXI@Z		; operator delete[]
  0005a	83 c4 08	 add	 esp, 8
$LN3@vector:
  0005d	8b c3		 mov	 eax, ebx
  0005f	8b 4d f4	 mov	 ecx, DWORD PTR __$EHRec$[ebp]
  00062	64 89 0d 00 00
	00 00		 mov	 DWORD PTR fs:0, ecx
  00069	59		 pop	 ecx
  0006a	5f		 pop	 edi
  0006b	5e		 pop	 esi
  0006c	5b		 pop	 ebx
  0006d	8b e5		 mov	 esp, ebp
  0006f	5d		 pop	 ebp
  00070	c2 04 00	 ret	 4
$LN2@vector:
  00073	e8 00 00 00 00	 call	 ??1i3MemoryPool@@UAE@XZ	; i3MemoryPool::~i3MemoryPool
  00078	85 ff		 test	 edi, edi
  0007a	74 0b		 je	 SHORT $LN4@vector
  0007c	6a 04		 push	 4
  0007e	56		 push	 esi
  0007f	e8 00 00 00 00	 call	 ??3@YAXPAXI@Z		; operator delete
  00084	83 c4 08	 add	 esp, 8
$LN4@vector:
  00087	8b c6		 mov	 eax, esi
  00089	8b 4d f4	 mov	 ecx, DWORD PTR __$EHRec$[ebp]
  0008c	64 89 0d 00 00
	00 00		 mov	 DWORD PTR fs:0, ecx
  00093	59		 pop	 ecx
  00094	5f		 pop	 edi
  00095	5e		 pop	 esi
  00096	5b		 pop	 ebx
  00097	8b e5		 mov	 esp, ebp
  00099	5d		 pop	 ebp
  0009a	c2 04 00	 ret	 4
  0009d	cc		 int	 3
  0009e	cc		 int	 3
  0009f	cc		 int	 3
  000a0	cc		 int	 3
  000a1	cc		 int	 3
_TEXT	ENDS
;	COMDAT text$x
text$x	SEGMENT
__ehhandler$??_Ei3MemoryPool@@UAEPAXI@Z:
  00000	90		 npad	 1
  00001	90		 npad	 1
  00002	8b 54 24 08	 mov	 edx, DWORD PTR [esp+8]
  00006	8d 42 0c	 lea	 eax, DWORD PTR [edx+12]
  00009	8b 4a f0	 mov	 ecx, DWORD PTR [edx-16]
  0000c	33 c8		 xor	 ecx, eax
  0000e	e8 00 00 00 00	 call	 @__security_check_cookie@4
  00013	b8 00 00 00 00	 mov	 eax, OFFSET __ehfuncinfo$??_Ei3MemoryPool@@UAEPAXI@Z
  00018	e9 00 00 00 00	 jmp	 ___CxxFrameHandler3
text$x	ENDS
??_Ei3MemoryPool@@UAEPAXI@Z ENDP			; i3MemoryPool::`vector deleting destructor'
; Function compile flags: /Ogtp
;	COMDAT ??_Gi3MemoryPool@@UAEPAXI@Z
_TEXT	SEGMENT
___flags$ = 8						; size = 4
??_Gi3MemoryPool@@UAEPAXI@Z PROC			; i3MemoryPool::`scalar deleting destructor', COMDAT
; _this$ = ecx
  00000	55		 push	 ebp
  00001	8b ec		 mov	 ebp, esp
  00003	56		 push	 esi
  00004	8b f1		 mov	 esi, ecx
  00006	e8 00 00 00 00	 call	 ??1i3MemoryPool@@UAE@XZ	; i3MemoryPool::~i3MemoryPool
  0000b	f6 45 08 01	 test	 BYTE PTR ___flags$[ebp], 1
  0000f	74 0b		 je	 SHORT $LN5@scalar
  00011	6a 04		 push	 4
  00013	56		 push	 esi
  00014	e8 00 00 00 00	 call	 ??3@YAXPAXI@Z		; operator delete
  00019	83 c4 08	 add	 esp, 8
$LN5@scalar:
  0001c	8b c6		 mov	 eax, esi
  0001e	5e		 pop	 esi
  0001f	5d		 pop	 ebp
  00020	c2 04 00	 ret	 4
??_Gi3MemoryPool@@UAEPAXI@Z ENDP			; i3MemoryPool::`scalar deleting destructor'
_TEXT	ENDS
; Function compile flags: /Ogtp
;	COMDAT ??4i3MemoryPool@@QAEAAV0@ABV0@@Z
_TEXT	SEGMENT
___that$ = 8						; size = 4
??4i3MemoryPool@@QAEAAV0@ABV0@@Z PROC			; i3MemoryPool::operator=, COMDAT
; _this$ = ecx
  00000	8b c1		 mov	 eax, ecx
  00002	c2 04 00	 ret	 4
??4i3MemoryPool@@QAEAAV0@ABV0@@Z ENDP			; i3MemoryPool::operator=
_TEXT	ENDS
; Function compile flags: /Ogtp
;	COMDAT ??0i3MemoryPool@@QAE@ABV0@@Z
_TEXT	SEGMENT
___that$ = 8						; size = 4
??0i3MemoryPool@@QAE@ABV0@@Z PROC			; i3MemoryPool::i3MemoryPool, COMDAT
; _this$ = ecx
  00000	c7 01 00 00 00
	00		 mov	 DWORD PTR [ecx], OFFSET ??_7i3MemoryPool@@6B@
  00006	8b c1		 mov	 eax, ecx
  00008	c2 04 00	 ret	 4
??0i3MemoryPool@@QAE@ABV0@@Z ENDP			; i3MemoryPool::i3MemoryPool
_TEXT	ENDS
; Function compile flags: /Ogtp
; File E:\Proyectos\JuegosOnlineproyectos\PB\pbblow\Piercing Blow Remake\i3Server\src\i3Base\i3IniParser.cpp
;	COMDAT ??_Ei3ElementBase@@UAEPAXI@Z
_TEXT	SEGMENT
__$EHRec$ = -12						; size = 12
___flags$ = 8						; size = 4
??_Ei3ElementBase@@UAEPAXI@Z PROC			; i3ElementBase::`vector deleting destructor', COMDAT
; _this$ = ecx
  00000	55		 push	 ebp
  00001	8b ec		 mov	 ebp, esp
  00003	6a ff		 push	 -1
  00005	68 00 00 00 00	 push	 __ehhandler$??_Ei3ElementBase@@UAEPAXI@Z
  0000a	64 a1 00 00 00
	00		 mov	 eax, DWORD PTR fs:0
  00010	50		 push	 eax
  00011	53		 push	 ebx
  00012	56		 push	 esi
  00013	57		 push	 edi
  00014	a1 00 00 00 00	 mov	 eax, DWORD PTR ___security_cookie
  00019	33 c5		 xor	 eax, ebp
  0001b	50		 push	 eax
  0001c	8d 45 f4	 lea	 eax, DWORD PTR __$EHRec$[ebp]
  0001f	64 a3 00 00 00
	00		 mov	 DWORD PTR fs:0, eax
  00025	8b f1		 mov	 esi, ecx
  00027	8b 5d 08	 mov	 ebx, DWORD PTR ___flags$[ebp]
  0002a	8b fb		 mov	 edi, ebx
  0002c	83 e7 01	 and	 edi, 1
  0002f	f6 c3 02	 test	 bl, 2
  00032	74 3f		 je	 SHORT $LN2@vector
  00034	68 00 00 00 00	 push	 OFFSET ??1i3ElementBase@@UAE@XZ ; i3ElementBase::~i3ElementBase
  00039	ff 76 fc	 push	 DWORD PTR [esi-4]
  0003c	8d 5e fc	 lea	 ebx, DWORD PTR [esi-4]
  0003f	6a 10		 push	 16			; 00000010H
  00041	56		 push	 esi
  00042	e8 00 00 00 00	 call	 ??_M@YGXPAXIIP6EX0@Z@Z
  00047	85 ff		 test	 edi, edi
  00049	74 12		 je	 SHORT $LN3@vector
  0004b	8b 0b		 mov	 ecx, DWORD PTR [ebx]
  0004d	c1 e1 04	 shl	 ecx, 4
  00050	83 c1 04	 add	 ecx, 4
  00053	51		 push	 ecx
  00054	53		 push	 ebx
  00055	e8 00 00 00 00	 call	 ??_V@YAXPAXI@Z		; operator delete[]
  0005a	83 c4 08	 add	 esp, 8
$LN3@vector:
  0005d	8b c3		 mov	 eax, ebx
  0005f	8b 4d f4	 mov	 ecx, DWORD PTR __$EHRec$[ebp]
  00062	64 89 0d 00 00
	00 00		 mov	 DWORD PTR fs:0, ecx
  00069	59		 pop	 ecx
  0006a	5f		 pop	 edi
  0006b	5e		 pop	 esi
  0006c	5b		 pop	 ebx
  0006d	8b e5		 mov	 esp, ebp
  0006f	5d		 pop	 ebp
  00070	c2 04 00	 ret	 4
$LN2@vector:
  00073	e8 00 00 00 00	 call	 ??1i3ElementBase@@UAE@XZ ; i3ElementBase::~i3ElementBase
  00078	85 ff		 test	 edi, edi
  0007a	74 1b		 je	 SHORT $LN6@vector
  0007c	f6 c3 04	 test	 bl, 4
  0007f	75 0b		 jne	 SHORT $LN5@vector
  00081	56		 push	 esi
  00082	e8 00 00 00 00	 call	 ??3i3ElementBase@@SAXPAX@Z ; i3ElementBase::operator delete
  00087	83 c4 04	 add	 esp, 4
  0008a	eb 0b		 jmp	 SHORT $LN6@vector
$LN5@vector:

  0008c	6a 10		 push	 16			; 00000010H
  0008e	56		 push	 esi
  0008f	e8 00 00 00 00	 call	 ??3@YAXPAXI@Z		; operator delete
  00094	83 c4 08	 add	 esp, 8
$LN6@vector:
  00097	8b c6		 mov	 eax, esi
  00099	8b 4d f4	 mov	 ecx, DWORD PTR __$EHRec$[ebp]
  0009c	64 89 0d 00 00
	00 00		 mov	 DWORD PTR fs:0, ecx
  000a3	59		 pop	 ecx
  000a4	5f		 pop	 edi
  000a5	5e		 pop	 esi
  000a6	5b		 pop	 ebx
  000a7	8b e5		 mov	 esp, ebp
  000a9	5d		 pop	 ebp
  000aa	c2 04 00	 ret	 4
  000ad	cc		 int	 3
  000ae	cc		 int	 3
  000af	cc		 int	 3
  000b0	cc		 int	 3
  000b1	cc		 int	 3
_TEXT	ENDS
;	COMDAT text$x
text$x	SEGMENT
__ehhandler$??_Ei3ElementBase@@UAEPAXI@Z:
  00000	90		 npad	 1
  00001	90		 npad	 1
  00002	8b 54 24 08	 mov	 edx, DWORD PTR [esp+8]
  00006	8d 42 0c	 lea	 eax, DWORD PTR [edx+12]
  00009	8b 4a f0	 mov	 ecx, DWORD PTR [edx-16]
  0000c	33 c8		 xor	 ecx, eax
  0000e	e8 00 00 00 00	 call	 @__security_check_cookie@4
  00013	b8 00 00 00 00	 mov	 eax, OFFSET __ehfuncinfo$??_Ei3ElementBase@@UAEPAXI@Z
  00018	e9 00 00 00 00	 jmp	 ___CxxFrameHandler3
text$x	ENDS
??_Ei3ElementBase@@UAEPAXI@Z ENDP			; i3ElementBase::`vector deleting destructor'
; Function compile flags: /Ogtp
; File E:\Proyectos\JuegosOnlineproyectos\PB\pbblow\Piercing Blow Remake\i3Server\src\i3Base\i3IniParser.cpp
;	COMDAT ??_Gi3ElementBase@@UAEPAXI@Z
_TEXT	SEGMENT
___flags$ = 8						; size = 4
??_Gi3ElementBase@@UAEPAXI@Z PROC			; i3ElementBase::`scalar deleting destructor', COMDAT
; _this$ = ecx
  00000	55		 push	 ebp
  00001	8b ec		 mov	 ebp, esp
  00003	56		 push	 esi
  00004	8b f1		 mov	 esi, ecx
  00006	e8 00 00 00 00	 call	 ??1i3ElementBase@@UAE@XZ ; i3ElementBase::~i3ElementBase
  0000b	8b 45 08	 mov	 eax, DWORD PTR ___flags$[ebp]
  0000e	a8 01		 test	 al, 1
  00010	74 1f		 je	 SHORT $LN10@scalar
  00012	a8 04		 test	 al, 4
  00014	75 10		 jne	 SHORT $LN3@scalar
  00016	56		 push	 esi
  00017	e8 00 00 00 00	 call	 ??3i3ElementBase@@SAXPAX@Z ; i3ElementBase::operator delete
  0001c	83 c4 04	 add	 esp, 4
  0001f	8b c6		 mov	 eax, esi
  00021	5e		 pop	 esi
  00022	5d		 pop	 ebp
  00023	c2 04 00	 ret	 4
$LN3@scalar:

  00026	6a 10		 push	 16			; 00000010H
  00028	56		 push	 esi
  00029	e8 00 00 00 00	 call	 ??3@YAXPAXI@Z		; operator delete
  0002e	83 c4 08	 add	 esp, 8
$LN10@scalar:
  00031	8b c6		 mov	 eax, esi
  00033	5e		 pop	 esi
  00034	5d		 pop	 ebp
  00035	c2 04 00	 ret	 4
??_Gi3ElementBase@@UAEPAXI@Z ENDP			; i3ElementBase::`scalar deleting destructor'
_TEXT	ENDS
; Function compile flags: /Ogtp
;	COMDAT ??4i3ElementBase@@QAEAAV0@ABV0@@Z
_TEXT	SEGMENT
___that$ = 8						; size = 4
??4i3ElementBase@@QAEAAV0@ABV0@@Z PROC			; i3ElementBase::operator=, COMDAT
; _this$ = ecx
  00000	55		 push	 ebp
  00001	8b ec		 mov	 ebp, esp
  00003	8b 55 08	 mov	 edx, DWORD PTR ___that$[ebp]
  00006	8b 42 04	 mov	 eax, DWORD PTR [edx+4]
  00009	89 41 04	 mov	 DWORD PTR [ecx+4], eax
  0000c	8b 42 08	 mov	 eax, DWORD PTR [edx+8]
  0000f	89 41 08	 mov	 DWORD PTR [ecx+8], eax
  00012	8b 42 0c	 mov	 eax, DWORD PTR [edx+12]
  00015	89 41 0c	 mov	 DWORD PTR [ecx+12], eax
  00018	8b c1		 mov	 eax, ecx
  0001a	5d		 pop	 ebp
  0001b	c2 04 00	 ret	 4
??4i3ElementBase@@QAEAAV0@ABV0@@Z ENDP			; i3ElementBase::operator=
_TEXT	ENDS
; Function compile flags: /Ogtp
;	COMDAT ??0i3ElementBase@@QAE@ABV0@@Z
_TEXT	SEGMENT
___that$ = 8						; size = 4
??0i3ElementBase@@QAE@ABV0@@Z PROC			; i3ElementBase::i3ElementBase, COMDAT
; _this$ = ecx
  00000	55		 push	 ebp
  00001	8b ec		 mov	 ebp, esp
  00003	8b 55 08	 mov	 edx, DWORD PTR ___that$[ebp]
  00006	c7 01 00 00 00
	00		 mov	 DWORD PTR [ecx], OFFSET ??_7i3ElementBase@@6B@
  0000c	8b 42 04	 mov	 eax, DWORD PTR [edx+4]
  0000f	89 41 04	 mov	 DWORD PTR [ecx+4], eax
  00012	8b 42 08	 mov	 eax, DWORD PTR [edx+8]
  00015	89 41 08	 mov	 DWORD PTR [ecx+8], eax
  00018	8b 42 0c	 mov	 eax, DWORD PTR [edx+12]
  0001b	89 41 0c	 mov	 DWORD PTR [ecx+12], eax
  0001e	8b c1		 mov	 eax, ecx
  00020	5d		 pop	 ebp
  00021	c2 04 00	 ret	 4
??0i3ElementBase@@QAE@ABV0@@Z ENDP			; i3ElementBase::i3ElementBase
_TEXT	ENDS
; Function compile flags: /Ogtp
; File E:\Proyectos\JuegosOnlineproyectos\PB\pbblow\Piercing Blow Remake\i3Server\include\i3Base\i3ElementBase.h
;	COMDAT ?_internal_SetRefCount@i3ElementBase@@QAEXH@Z
_TEXT	SEGMENT
_cnt$ = 8						; size = 4
?_internal_SetRefCount@i3ElementBase@@QAEXH@Z PROC	; i3ElementBase::_internal_SetRefCount, COMDAT
; _this$ = ecx

; 401  : 	{

  00000	55		 push	 ebp
  00001	8b ec		 mov	 ebp, esp

; 402  : 		m_RefCount = cnt;

  00003	8b 45 08	 mov	 eax, DWORD PTR _cnt$[ebp]
  00006	89 41 04	 mov	 DWORD PTR [ecx+4], eax

; 403  : 	}

  00009	5d		 pop	 ebp
  0000a	c2 04 00	 ret	 4
?_internal_SetRefCount@i3ElementBase@@QAEXH@Z ENDP	; i3ElementBase::_internal_SetRefCount
_TEXT	ENDS
; Function compile flags: /Ogtp
; File E:\Proyectos\JuegosOnlineproyectos\PB\pbblow\Piercing Blow Remake\i3Server\include\i3Base\i3ElementBase.h
;	COMDAT ?AddRef@i3ElementBase@@QAEHXZ
_TEXT	SEGMENT
?AddRef@i3ElementBase@@QAEHXZ PROC			; i3ElementBase::AddRef, COMDAT
; _this$ = ecx

; 392  : 		m_RefCount++;

  00000	ff 41 04	 inc	 DWORD PTR [ecx+4]

; 393  : 
; 394  : 		return m_RefCount;

  00003	8b 41 04	 mov	 eax, DWORD PTR [ecx+4]

; 395  : 	}

  00006	c3		 ret	 0
?AddRef@i3ElementBase@@QAEHXZ ENDP			; i3ElementBase::AddRef
_TEXT	ENDS
; Function compile flags: /Ogtp
; File E:\Proyectos\JuegosOnlineproyectos\PB\pbblow\Piercing Blow Remake\i3Server\include\i3Base\i3ElementBase.h
;	COMDAT ?IsTypeOf@i3ElementBase@@QAE_NPAVi3ClassMeta@@@Z
_TEXT	SEGMENT
_pMeta$ = 8						; size = 4
?IsTypeOf@i3ElementBase@@QAE_NPAVi3ClassMeta@@@Z PROC	; i3ElementBase::IsTypeOf, COMDAT
; _this$ = ecx

; 356  : 	{

  00000	55		 push	 ebp
  00001	8b ec		 mov	 ebp, esp

; 357  : 		return GetMeta()->IsTypeOf( pMeta);

  00003	8b 01		 mov	 eax, DWORD PTR [ecx]
  00005	ff 75 08	 push	 DWORD PTR _pMeta$[ebp]
  00008	ff 10		 call	 DWORD PTR [eax]
  0000a	8b c8		 mov	 ecx, eax
  0000c	e8 00 00 00 00	 call	 ?IsTypeOf@i3ClassMeta@@QAE_NPAV1@@Z ; i3ClassMeta::IsTypeOf

; 358  : 	}

  00011	5d		 pop	 ebp
  00012	c2 04 00	 ret	 4
?IsTypeOf@i3ElementBase@@QAE_NPAVi3ClassMeta@@@Z ENDP	; i3ElementBase::IsTypeOf
_TEXT	ENDS
; Function compile flags: /Ogtp
; File E:\Proyectos\JuegosOnlineproyectos\PB\pbblow\Piercing Blow Remake\i3Server\include\i3Base\i3ElementBase.h
; File E:\Proyectos\JuegosOnlineproyectos\PB\pbblow\Piercing Blow Remake\i3Server\include\i3Base\i3ClassMeta.h
; File E:\Proyectos\JuegosOnlineproyectos\PB\pbblow\Piercing Blow Remake\i3Server\include\i3Base\i3ElementBase.h
;	COMDAT ?IsExactTypeOf@i3ElementBase@@QAE_NPAVi3ClassMeta@@@Z
_TEXT	SEGMENT
_pMeta$ = 8						; size = 4
?IsExactTypeOf@i3ElementBase@@QAE_NPAVi3ClassMeta@@@Z PROC ; i3ElementBase::IsExactTypeOf, COMDAT
; _this$ = ecx

; 351  : 	{

  00000	55		 push	 ebp
  00001	8b ec		 mov	 ebp, esp

; 352  : 		return GetMeta()->IsExactTypeOf( pMeta);

  00003	8b 01		 mov	 eax, DWORD PTR [ecx]
  00005	ff 10		 call	 DWORD PTR [eax]
; File E:\Proyectos\JuegosOnlineproyectos\PB\pbblow\Piercing Blow Remake\i3Server\include\i3Base\i3ClassMeta.h

; 90   : 		return pMeta == this;

  00007	39 45 08	 cmp	 DWORD PTR _pMeta$[ebp], eax
  0000a	0f 94 c0	 sete	 al
; File E:\Proyectos\JuegosOnlineproyectos\PB\pbblow\Piercing Blow Remake\i3Server\include\i3Base\i3ElementBase.h

; 353  : 	}

  0000d	5d		 pop	 ebp
  0000e	c2 04 00	 ret	 4
?IsExactTypeOf@i3ElementBase@@QAE_NPAVi3ClassMeta@@@Z ENDP ; i3ElementBase::IsExactTypeOf
_TEXT	ENDS
; Function compile flags: /Ogtp
; File E:\Proyectos\JuegosOnlineproyectos\PB\pbblow\Piercing Blow Remake\i3Server\include\i3Base\i3ElementBase.h
;	COMDAT ?__GetMemoryPool@i3ElementBase@@QAEPAVi3MemoryPool@@XZ
_TEXT	SEGMENT
?__GetMemoryPool@i3ElementBase@@QAEPAVi3MemoryPool@@XZ PROC ; i3ElementBase::__GetMemoryPool, COMDAT
; _this$ = ecx

; 348  : 	i3MemoryPool *	__GetMemoryPool(void)							{ return m_pPool; }

  00000	8b 41 0c	 mov	 eax, DWORD PTR [ecx+12]
  00003	c3		 ret	 0
?__GetMemoryPool@i3ElementBase@@QAEPAVi3MemoryPool@@XZ ENDP ; i3ElementBase::__GetMemoryPool
_TEXT	ENDS
; Function compile flags: /Ogtp
; File E:\Proyectos\JuegosOnlineproyectos\PB\pbblow\Piercing Blow Remake\i3Server\include\i3Base\i3ElementBase.h
;	COMDAT ?__SetMemoryPool@i3ElementBase@@QAEXPAVi3MemoryPool@@@Z
_TEXT	SEGMENT
_pPool$ = 8						; size = 4
?__SetMemoryPool@i3ElementBase@@QAEXPAVi3MemoryPool@@@Z PROC ; i3ElementBase::__SetMemoryPool, COMDAT
; _this$ = ecx

; 347  : 	void			__SetMemoryPool( i3MemoryPool * pPool)			{ m_pPool = pPool; }

  00000	55		 push	 ebp
  00001	8b ec		 mov	 ebp, esp
  00003	8b 45 08	 mov	 eax, DWORD PTR _pPool$[ebp]
  00006	89 41 0c	 mov	 DWORD PTR [ecx+12], eax
  00009	5d		 pop	 ebp
  0000a	c2 04 00	 ret	 4
?__SetMemoryPool@i3ElementBase@@QAEXPAVi3MemoryPool@@@Z ENDP ; i3ElementBase::__SetMemoryPool
_TEXT	ENDS
; Function compile flags: /Ogtp
; File E:\Proyectos\JuegosOnlineproyectos\PB\pbblow\Piercing Blow Remake\i3Server\include\i3Base\i3ElementBase.h
;	COMDAT ?GetRefCount@i3ElementBase@@QAEHXZ
_TEXT	SEGMENT
?GetRefCount@i3ElementBase@@QAEHXZ PROC			; i3ElementBase::GetRefCount, COMDAT
; _this$ = ecx

; 344  : 		return m_RefCount;

  00000	8b 41 04	 mov	 eax, DWORD PTR [ecx+4]

; 345  : 	}

  00003	c3		 ret	 0
?GetRefCount@i3ElementBase@@QAEHXZ ENDP			; i3ElementBase::GetRefCount
_TEXT	ENDS
; Function compile flags: /Ogtp
; File E:\Proyectos\JuegosOnlineproyectos\PB\pbblow\Piercing Blow Remake\i3Server\include\i3Base\i3ElementBase.h
;	COMDAT ?GetClassMeta@i3ElementBase@@SAPAVi3ClassMeta@@XZ
_TEXT	SEGMENT
?GetClassMeta@i3ElementBase@@SAPAVi3ClassMeta@@XZ PROC	; i3ElementBase::GetClassMeta, COMDAT

; 314  : 	I3_ABSTRACT_CLASS_DEFINE( i3ElementBase);

  00000	a1 00 00 00 00	 mov	 eax, DWORD PTR ?s_pClassMetai3ElementBase@i3ElementBase@@2PAVi3ClassMeta@@A ; i3ElementBase::s_pClassMetai3ElementBase
  00005	c3		 ret	 0
?GetClassMeta@i3ElementBase@@SAPAVi3ClassMeta@@XZ ENDP	; i3ElementBase::GetClassMeta
_TEXT	ENDS
; Function compile flags: /Ogtp
;	COMDAT ??_Ei3ClassMeta@@UAEPAXI@Z
_TEXT	SEGMENT
__$EHRec$ = -12						; size = 12
___flags$ = 8						; size = 4
??_Ei3ClassMeta@@UAEPAXI@Z PROC				; i3ClassMeta::`vector deleting destructor', COMDAT
; _this$ = ecx
  00000	55		 push	 ebp
  00001	8b ec		 mov	 ebp, esp
  00003	6a ff		 push	 -1
  00005	68 00 00 00 00	 push	 __ehhandler$??_Ei3ClassMeta@@UAEPAXI@Z
  0000a	64 a1 00 00 00
	00		 mov	 eax, DWORD PTR fs:0
  00010	50		 push	 eax
  00011	53		 push	 ebx
  00012	56		 push	 esi
  00013	57		 push	 edi
  00014	a1 00 00 00 00	 mov	 eax, DWORD PTR ___security_cookie
  00019	33 c5		 xor	 eax, ebp
  0001b	50		 push	 eax
  0001c	8d 45 f4	 lea	 eax, DWORD PTR __$EHRec$[ebp]
  0001f	64 a3 00 00 00
	00		 mov	 DWORD PTR fs:0, eax
  00025	8b f1		 mov	 esi, ecx
  00027	8b 45 08	 mov	 eax, DWORD PTR ___flags$[ebp]
  0002a	8b f8		 mov	 edi, eax
  0002c	83 e7 01	 and	 edi, 1
  0002f	a8 02		 test	 al, 2
  00031	74 49		 je	 SHORT $LN2@vector
  00033	68 00 00 00 00	 push	 OFFSET ??1i3ClassMeta@@UAE@XZ ; i3ClassMeta::~i3ClassMeta
  00038	ff 76 fc	 push	 DWORD PTR [esi-4]
  0003b	8d 5e fc	 lea	 ebx, DWORD PTR [esi-4]
  0003e	6a 38		 push	 56			; 00000038H
  00040	56		 push	 esi
  00041	e8 00 00 00 00	 call	 ??_M@YGXPAXIIP6EX0@Z@Z
  00046	85 ff		 test	 edi, edi
  00048	74 1c		 je	 SHORT $LN3@vector
  0004a	8b 0b		 mov	 ecx, DWORD PTR [ebx]
  0004c	8d 14 cd 00 00
	00 00		 lea	 edx, DWORD PTR [ecx*8]
  00053	2b d1		 sub	 edx, ecx
  00055	8d 0c d5 04 00
	00 00		 lea	 ecx, DWORD PTR [edx*8+4]
  0005c	51		 push	 ecx
  0005d	53		 push	 ebx
  0005e	e8 00 00 00 00	 call	 ??_V@YAXPAXI@Z		; operator delete[]
  00063	83 c4 08	 add	 esp, 8
$LN3@vector:
  00066	8b c3		 mov	 eax, ebx
  00068	8b 4d f4	 mov	 ecx, DWORD PTR __$EHRec$[ebp]
  0006b	64 89 0d 00 00
	00 00		 mov	 DWORD PTR fs:0, ecx
  00072	59		 pop	 ecx
  00073	5f		 pop	 edi
  00074	5e		 pop	 esi
  00075	5b		 pop	 ebx
  00076	8b e5		 mov	 esp, ebp
  00078	5d		 pop	 ebp
  00079	c2 04 00	 ret	 4
$LN2@vector:
  0007c	e8 00 00 00 00	 call	 ??1i3ClassMeta@@UAE@XZ	; i3ClassMeta::~i3ClassMeta
  00081	85 ff		 test	 edi, edi
  00083	74 0b		 je	 SHORT $LN4@vector
  00085	6a 38		 push	 56			; 00000038H
  00087	56		 push	 esi
  00088	e8 00 00 00 00	 call	 ??3@YAXPAXI@Z		; operator delete
  0008d	83 c4 08	 add	 esp, 8
$LN4@vector:
  00090	8b c6		 mov	 eax, esi
  00092	8b 4d f4	 mov	 ecx, DWORD PTR __$EHRec$[ebp]
  00095	64 89 0d 00 00
	00 00		 mov	 DWORD PTR fs:0, ecx
  0009c	59		 pop	 ecx
  0009d	5f		 pop	 edi
  0009e	5e		 pop	 esi
  0009f	5b		 pop	 ebx
  000a0	8b e5		 mov	 esp, ebp
  000a2	5d		 pop	 ebp
  000a3	c2 04 00	 ret	 4
  000a6	cc		 int	 3
  000a7	cc		 int	 3
  000a8	cc		 int	 3
  000a9	cc		 int	 3
  000aa	cc		 int	 3
_TEXT	ENDS
;	COMDAT text$x
text$x	SEGMENT
__ehhandler$??_Ei3ClassMeta@@UAEPAXI@Z:
  00000	90		 npad	 1
  00001	90		 npad	 1
  00002	8b 54 24 08	 mov	 edx, DWORD PTR [esp+8]
  00006	8d 42 0c	 lea	 eax, DWORD PTR [edx+12]
  00009	8b 4a f0	 mov	 ecx, DWORD PTR [edx-16]
  0000c	33 c8		 xor	 ecx, eax
  0000e	e8 00 00 00 00	 call	 @__security_check_cookie@4
  00013	b8 00 00 00 00	 mov	 eax, OFFSET __ehfuncinfo$??_Ei3ClassMeta@@UAEPAXI@Z
  00018	e9 00 00 00 00	 jmp	 ___CxxFrameHandler3
text$x	ENDS
??_Ei3ClassMeta@@UAEPAXI@Z ENDP				; i3ClassMeta::`vector deleting destructor'
; Function compile flags: /Ogtp
;	COMDAT ??_Gi3ClassMeta@@UAEPAXI@Z
_TEXT	SEGMENT
___flags$ = 8						; size = 4
??_Gi3ClassMeta@@UAEPAXI@Z PROC				; i3ClassMeta::`scalar deleting destructor', COMDAT
; _this$ = ecx
  00000	55		 push	 ebp
  00001	8b ec		 mov	 ebp, esp
  00003	56		 push	 esi
  00004	8b f1		 mov	 esi, ecx
  00006	e8 00 00 00 00	 call	 ??1i3ClassMeta@@UAE@XZ	; i3ClassMeta::~i3ClassMeta
  0000b	f6 45 08 01	 test	 BYTE PTR ___flags$[ebp], 1
  0000f	74 0b		 je	 SHORT $LN5@scalar
  00011	6a 38		 push	 56			; 00000038H
  00013	56		 push	 esi
  00014	e8 00 00 00 00	 call	 ??3@YAXPAXI@Z		; operator delete
  00019	83 c4 08	 add	 esp, 8
$LN5@scalar:
  0001c	8b c6		 mov	 eax, esi
  0001e	5e		 pop	 esi
  0001f	5d		 pop	 ebp
  00020	c2 04 00	 ret	 4
??_Gi3ClassMeta@@UAEPAXI@Z ENDP				; i3ClassMeta::`scalar deleting destructor'
_TEXT	ENDS
; Function compile flags: /Ogtp
;	COMDAT ??4i3ClassMeta@@QAEAAV0@ABV0@@Z
_TEXT	SEGMENT
___that$ = 8						; size = 4
??4i3ClassMeta@@QAEAAV0@ABV0@@Z PROC			; i3ClassMeta::operator=, COMDAT
; _this$ = ecx
  00000	55		 push	 ebp
  00001	8b ec		 mov	 ebp, esp
  00003	8b 55 08	 mov	 edx, DWORD PTR ___that$[ebp]
  00006	8b 42 04	 mov	 eax, DWORD PTR [edx+4]
  00009	89 41 04	 mov	 DWORD PTR [ecx+4], eax
  0000c	8b 42 08	 mov	 eax, DWORD PTR [edx+8]
  0000f	89 41 08	 mov	 DWORD PTR [ecx+8], eax
  00012	8b 42 0c	 mov	 eax, DWORD PTR [edx+12]
  00015	89 41 0c	 mov	 DWORD PTR [ecx+12], eax
  00018	8b 42 10	 mov	 eax, DWORD PTR [edx+16]
  0001b	89 41 10	 mov	 DWORD PTR [ecx+16], eax
  0001e	8b 42 14	 mov	 eax, DWORD PTR [edx+20]
  00021	89 41 14	 mov	 DWORD PTR [ecx+20], eax
  00024	8b 42 18	 mov	 eax, DWORD PTR [edx+24]
  00027	89 41 18	 mov	 DWORD PTR [ecx+24], eax
  0002a	8b 42 1c	 mov	 eax, DWORD PTR [edx+28]
  0002d	89 41 1c	 mov	 DWORD PTR [ecx+28], eax
  00030	8b 42 20	 mov	 eax, DWORD PTR [edx+32]
  00033	89 41 20	 mov	 DWORD PTR [ecx+32], eax
  00036	8b 42 24	 mov	 eax, DWORD PTR [edx+36]
  00039	89 41 24	 mov	 DWORD PTR [ecx+36], eax
  0003c	8b 42 28	 mov	 eax, DWORD PTR [edx+40]
  0003f	89 41 28	 mov	 DWORD PTR [ecx+40], eax
  00042	8b 42 2c	 mov	 eax, DWORD PTR [edx+44]
  00045	89 41 2c	 mov	 DWORD PTR [ecx+44], eax
  00048	8b 42 30	 mov	 eax, DWORD PTR [edx+48]
  0004b	89 41 30	 mov	 DWORD PTR [ecx+48], eax
  0004e	8b 42 34	 mov	 eax, DWORD PTR [edx+52]
  00051	89 41 34	 mov	 DWORD PTR [ecx+52], eax
  00054	8b c1		 mov	 eax, ecx
  00056	5d		 pop	 ebp
  00057	c2 04 00	 ret	 4
??4i3ClassMeta@@QAEAAV0@ABV0@@Z ENDP			; i3ClassMeta::operator=
_TEXT	ENDS
; Function compile flags: /Ogtp
;	COMDAT ??0i3ClassMeta@@QAE@ABV0@@Z
_TEXT	SEGMENT
___that$ = 8						; size = 4
??0i3ClassMeta@@QAE@ABV0@@Z PROC			; i3ClassMeta::i3ClassMeta, COMDAT
; _this$ = ecx
  00000	55		 push	 ebp
  00001	8b ec		 mov	 ebp, esp
  00003	8b 55 08	 mov	 edx, DWORD PTR ___that$[ebp]
  00006	c7 01 00 00 00
	00		 mov	 DWORD PTR [ecx], OFFSET ??_7i3ClassMeta@@6B@
  0000c	8b 42 04	 mov	 eax, DWORD PTR [edx+4]
  0000f	89 41 04	 mov	 DWORD PTR [ecx+4], eax
  00012	8b 42 08	 mov	 eax, DWORD PTR [edx+8]
  00015	89 41 08	 mov	 DWORD PTR [ecx+8], eax
  00018	8b 42 0c	 mov	 eax, DWORD PTR [edx+12]
  0001b	89 41 0c	 mov	 DWORD PTR [ecx+12], eax
  0001e	8b 42 10	 mov	 eax, DWORD PTR [edx+16]
  00021	89 41 10	 mov	 DWORD PTR [ecx+16], eax
  00024	8b 42 14	 mov	 eax, DWORD PTR [edx+20]
  00027	89 41 14	 mov	 DWORD PTR [ecx+20], eax
  0002a	8b 42 18	 mov	 eax, DWORD PTR [edx+24]
  0002d	89 41 18	 mov	 DWORD PTR [ecx+24], eax
  00030	8b 42 1c	 mov	 eax, DWORD PTR [edx+28]
  00033	89 41 1c	 mov	 DWORD PTR [ecx+28], eax
  00036	8b 42 20	 mov	 eax, DWORD PTR [edx+32]
  00039	89 41 20	 mov	 DWORD PTR [ecx+32], eax
  0003c	8b 42 24	 mov	 eax, DWORD PTR [edx+36]
  0003f	89 41 24	 mov	 DWORD PTR [ecx+36], eax
  00042	8b 42 28	 mov	 eax, DWORD PTR [edx+40]
  00045	89 41 28	 mov	 DWORD PTR [ecx+40], eax
  00048	8b 42 2c	 mov	 eax, DWORD PTR [edx+44]
  0004b	89 41 2c	 mov	 DWORD PTR [ecx+44], eax
  0004e	8b 42 30	 mov	 eax, DWORD PTR [edx+48]
  00051	89 41 30	 mov	 DWORD PTR [ecx+48], eax
  00054	8b 42 34	 mov	 eax, DWORD PTR [edx+52]
  00057	89 41 34	 mov	 DWORD PTR [ecx+52], eax
  0005a	8b c1		 mov	 eax, ecx
  0005c	5d		 pop	 ebp
  0005d	c2 04 00	 ret	 4
??0i3ClassMeta@@QAE@ABV0@@Z ENDP			; i3ClassMeta::i3ClassMeta
_TEXT	ENDS
; Function compile flags: /Ogtp
; File E:\Proyectos\JuegosOnlineproyectos\PB\pbblow\Piercing Blow Remake\i3Server\include\i3Base\i3ClassMeta.h
;	COMDAT ?getHashCode@i3ClassMeta@@QAEIXZ
_TEXT	SEGMENT
?getHashCode@i3ClassMeta@@QAEIXZ PROC			; i3ClassMeta::getHashCode, COMDAT
; _this$ = ecx

; 112  : 	UINT32			getHashCode(void)						{ return m_HashCode; }

  00000	8b 41 18	 mov	 eax, DWORD PTR [ecx+24]
  00003	c3		 ret	 0
?getHashCode@i3ClassMeta@@QAEIXZ ENDP			; i3ClassMeta::getHashCode
_TEXT	ENDS
; Function compile flags: /Ogtp
; File E:\Proyectos\JuegosOnlineproyectos\PB\pbblow\Piercing Blow Remake\i3Server\include\i3Base\i3ClassMeta.h
;	COMDAT ?GetBaseClassMeta@i3ClassMeta@@QAEPAV1@XZ
_TEXT	SEGMENT
?GetBaseClassMeta@i3ClassMeta@@QAEPAV1@XZ PROC		; i3ClassMeta::GetBaseClassMeta, COMDAT
; _this$ = ecx

; 107  : 	i3ClassMeta *	GetBaseClassMeta(void)					{ return m_pBaseClass; }

  00000	8b 41 1c	 mov	 eax, DWORD PTR [ecx+28]
  00003	c3		 ret	 0
?GetBaseClassMeta@i3ClassMeta@@QAEPAV1@XZ ENDP		; i3ClassMeta::GetBaseClassMeta
_TEXT	ENDS
; Function compile flags: /Ogtp
; File E:\Proyectos\JuegosOnlineproyectos\PB\pbblow\Piercing Blow Remake\i3Server\include\i3Base\i3ClassMeta.h
;	COMDAT ?IsConcreteClass@i3ClassMeta@@QAEHXZ
_TEXT	SEGMENT
?IsConcreteClass@i3ClassMeta@@QAEHXZ PROC		; i3ClassMeta::IsConcreteClass, COMDAT
; _this$ = ecx

; 102  : 	BOOL			IsStyle( UINT32 style)					{ return (m_Style & style) == style; }

  00000	8b 41 14	 mov	 eax, DWORD PTR [ecx+20]
  00003	d1 e8		 shr	 eax, 1
  00005	83 e0 01	 and	 eax, 1

; 105  : 	BOOL			IsConcreteClass(void)					{ return IsStyle( I3_CLASSMETA_STYLE_CONCRETE); }

  00008	c3		 ret	 0
?IsConcreteClass@i3ClassMeta@@QAEHXZ ENDP		; i3ClassMeta::IsConcreteClass
_TEXT	ENDS
; Function compile flags: /Ogtp
; File E:\Proyectos\JuegosOnlineproyectos\PB\pbblow\Piercing Blow Remake\i3Server\include\i3Base\i3ClassMeta.h
;	COMDAT ?IsAbstractClass@i3ClassMeta@@QAEHXZ
_TEXT	SEGMENT
?IsAbstractClass@i3ClassMeta@@QAEHXZ PROC		; i3ClassMeta::IsAbstractClass, COMDAT
; _this$ = ecx

; 102  : 	BOOL			IsStyle( UINT32 style)					{ return (m_Style & style) == style; }

  00000	8b 41 14	 mov	 eax, DWORD PTR [ecx+20]
  00003	83 e0 01	 and	 eax, 1

; 104  : 	BOOL			IsAbstractClass(void)					{ return IsStyle( I3_CLASSMETA_STYLE_ABSTRACT); }

  00006	c3		 ret	 0
?IsAbstractClass@i3ClassMeta@@QAEHXZ ENDP		; i3ClassMeta::IsAbstractClass
_TEXT	ENDS
; Function compile flags: /Ogtp
; File E:\Proyectos\JuegosOnlineproyectos\PB\pbblow\Piercing Blow Remake\i3Server\include\i3Base\i3ClassMeta.h
;	COMDAT ?IsStyle@i3ClassMeta@@QAEHI@Z
_TEXT	SEGMENT
_style$ = 8						; size = 4
?IsStyle@i3ClassMeta@@QAEHI@Z PROC			; i3ClassMeta::IsStyle, COMDAT
; _this$ = ecx

; 102  : 	BOOL			IsStyle( UINT32 style)					{ return (m_Style & style) == style; }

  00000	55		 push	 ebp
  00001	8b ec		 mov	 ebp, esp
  00003	8b 51 14	 mov	 edx, DWORD PTR [ecx+20]
  00006	33 c0		 xor	 eax, eax
  00008	23 55 08	 and	 edx, DWORD PTR _style$[ebp]
  0000b	3b 55 08	 cmp	 edx, DWORD PTR _style$[ebp]
  0000e	0f 94 c0	 sete	 al
  00011	5d		 pop	 ebp
  00012	c2 04 00	 ret	 4
?IsStyle@i3ClassMeta@@QAEHI@Z ENDP			; i3ClassMeta::IsStyle
_TEXT	ENDS
; Function compile flags: /Ogtp
; File E:\Proyectos\JuegosOnlineproyectos\PB\pbblow\Piercing Blow Remake\i3Server\include\i3Base\i3ClassMeta.h
;	COMDAT ?RemoveStyle@i3ClassMeta@@QAEXI@Z
_TEXT	SEGMENT
_style$ = 8						; size = 4
?RemoveStyle@i3ClassMeta@@QAEXI@Z PROC			; i3ClassMeta::RemoveStyle, COMDAT
; _this$ = ecx

; 101  : 	void			RemoveStyle( UINT32 style)				{ m_Style &= ~style; }

  00000	55		 push	 ebp
  00001	8b ec		 mov	 ebp, esp
  00003	8b 45 08	 mov	 eax, DWORD PTR _style$[ebp]
  00006	f7 d0		 not	 eax
  00008	21 41 14	 and	 DWORD PTR [ecx+20], eax
  0000b	5d		 pop	 ebp
  0000c	c2 04 00	 ret	 4
?RemoveStyle@i3ClassMeta@@QAEXI@Z ENDP			; i3ClassMeta::RemoveStyle
_TEXT	ENDS
; Function compile flags: /Ogtp
; File E:\Proyectos\JuegosOnlineproyectos\PB\pbblow\Piercing Blow Remake\i3Server\include\i3Base\i3ClassMeta.h
;	COMDAT ?AddStyle@i3ClassMeta@@QAEXI@Z
_TEXT	SEGMENT
_style$ = 8						; size = 4
?AddStyle@i3ClassMeta@@QAEXI@Z PROC			; i3ClassMeta::AddStyle, COMDAT
; _this$ = ecx

; 100  : 	void			AddStyle( UINT32 style)					{ m_Style |= style; }

  00000	55		 push	 ebp
  00001	8b ec		 mov	 ebp, esp
  00003	8b 45 08	 mov	 eax, DWORD PTR _style$[ebp]
  00006	09 41 14	 or	 DWORD PTR [ecx+20], eax
  00009	5d		 pop	 ebp
  0000a	c2 04 00	 ret	 4
?AddStyle@i3ClassMeta@@QAEXI@Z ENDP			; i3ClassMeta::AddStyle
_TEXT	ENDS
; Function compile flags: /Ogtp
; File E:\Proyectos\JuegosOnlineproyectos\PB\pbblow\Piercing Blow Remake\i3Server\include\i3Base\i3ClassMeta.h
;	COMDAT ?GetStyle@i3ClassMeta@@QAEIXZ
_TEXT	SEGMENT
?GetStyle@i3ClassMeta@@QAEIXZ PROC			; i3ClassMeta::GetStyle, COMDAT
; _this$ = ecx

; 99   : 	UINT32			GetStyle(void)							{ return m_Style; }

  00000	8b 41 14	 mov	 eax, DWORD PTR [ecx+20]
  00003	c3		 ret	 0
?GetStyle@i3ClassMeta@@QAEIXZ ENDP			; i3ClassMeta::GetStyle
_TEXT	ENDS
; Function compile flags: /Ogtp
; File E:\Proyectos\JuegosOnlineproyectos\PB\pbblow\Piercing Blow Remake\i3Server\include\i3Base\i3ClassMeta.h
;	COMDAT ?SetStyle@i3ClassMeta@@QAEXI@Z
_TEXT	SEGMENT
_style$ = 8						; size = 4
?SetStyle@i3ClassMeta@@QAEXI@Z PROC			; i3ClassMeta::SetStyle, COMDAT
; _this$ = ecx

; 98   : 	void			SetStyle( UINT32 style)					{ m_Style = style; }

  00000	55		 push	 ebp
  00001	8b ec		 mov	 ebp, esp
  00003	8b 45 08	 mov	 eax, DWORD PTR _style$[ebp]
  00006	89 41 14	 mov	 DWORD PTR [ecx+20], eax
  00009	5d		 pop	 ebp
  0000a	c2 04 00	 ret	 4
?SetStyle@i3ClassMeta@@QAEXI@Z ENDP			; i3ClassMeta::SetStyle
_TEXT	ENDS
; Function compile flags: /Ogtp
; File E:\Proyectos\JuegosOnlineproyectos\PB\pbblow\Piercing Blow Remake\i3Server\include\i3Base\i3ClassMeta.h
;	COMDAT ?IsExactTypeOf@i3ClassMeta@@QAE_NPAV1@@Z
_TEXT	SEGMENT
_pMeta$ = 8						; size = 4
?IsExactTypeOf@i3ClassMeta@@QAE_NPAV1@@Z PROC		; i3ClassMeta::IsExactTypeOf, COMDAT
; _this$ = ecx

; 89   : 	{

  00000	55		 push	 ebp
  00001	8b ec		 mov	 ebp, esp

; 90   : 		return pMeta == this;

  00003	39 4d 08	 cmp	 DWORD PTR _pMeta$[ebp], ecx
  00006	0f 94 c0	 sete	 al

; 91   : 	}

  00009	5d		 pop	 ebp
  0000a	c2 04 00	 ret	 4
?IsExactTypeOf@i3ClassMeta@@QAE_NPAV1@@Z ENDP		; i3ClassMeta::IsExactTypeOf
_TEXT	ENDS
; Function compile flags: /Ogtp
; File E:\Proyectos\JuegosOnlineproyectos\PB\pbblow\Piercing Blow Remake\i3Server\include\i3Base\i3ClassMeta.h
;	COMDAT ?GetClassNameA@i3ClassMeta@@QAEPADXZ
_TEXT	SEGMENT
?GetClassNameA@i3ClassMeta@@QAEPADXZ PROC		; i3ClassMeta::GetClassNameA, COMDAT
; _this$ = ecx

; 83   : 		return m_pszClassName;

  00000	8b 41 0c	 mov	 eax, DWORD PTR [ecx+12]

; 84   : 	}

  00003	c3		 ret	 0
?GetClassNameA@i3ClassMeta@@QAEPADXZ ENDP		; i3ClassMeta::GetClassNameA
_TEXT	ENDS
; Function compile flags: /Ogtp
; File E:\Proyectos\JuegosOnlineproyectos\PB\pbblow\Piercing Blow Remake\i3Server\include\i3Base\i3ClassMeta.h
;	COMDAT ?GetClassSize@i3ClassMeta@@QAEIXZ
_TEXT	SEGMENT
?GetClassSize@i3ClassMeta@@QAEIXZ PROC			; i3ClassMeta::GetClassSize, COMDAT
; _this$ = ecx

; 78   : 		return m_ClassSize;

  00000	8b 41 08	 mov	 eax, DWORD PTR [ecx+8]

; 79   : 	}

  00003	c3		 ret	 0
?GetClassSize@i3ClassMeta@@QAEIXZ ENDP			; i3ClassMeta::GetClassSize
_TEXT	ENDS
; Function compile flags: /Ogtp
; File E:\Proyectos\JuegosOnlineproyectos\PB\pbblow\Piercing Blow Remake\i3Server\include\i3Base\i3ClassMeta.h
;	COMDAT ?SetMemoryPool@i3ClassMeta@@QAEXPAVi3MemoryPool@@@Z
_TEXT	SEGMENT
_pPool$ = 8						; size = 4
?SetMemoryPool@i3ClassMeta@@QAEXPAVi3MemoryPool@@@Z PROC ; i3ClassMeta::SetMemoryPool, COMDAT
; _this$ = ecx

; 66   : 	void			SetMemoryPool( i3MemoryPool * pPool)		{ m_pPool = pPool; }

  00000	55		 push	 ebp
  00001	8b ec		 mov	 ebp, esp
  00003	8b 45 08	 mov	 eax, DWORD PTR _pPool$[ebp]
  00006	89 41 34	 mov	 DWORD PTR [ecx+52], eax
  00009	5d		 pop	 ebp
  0000a	c2 04 00	 ret	 4
?SetMemoryPool@i3ClassMeta@@QAEXPAVi3MemoryPool@@@Z ENDP ; i3ClassMeta::SetMemoryPool
_TEXT	ENDS
; Function compile flags: /Ogtp
; File E:\Proyectos\JuegosOnlineproyectos\PB\pbblow\Piercing Blow Remake\i3Server\include\i3Base\i3ClassMeta.h
;	COMDAT ?GetMemoryPool@i3ClassMeta@@QAEPAVi3MemoryPool@@XZ
_TEXT	SEGMENT
?GetMemoryPool@i3ClassMeta@@QAEPAVi3MemoryPool@@XZ PROC	; i3ClassMeta::GetMemoryPool, COMDAT
; _this$ = ecx

; 65   : 	i3MemoryPool *	GetMemoryPool(void)							{ return m_pPool; }

  00000	8b 41 34	 mov	 eax, DWORD PTR [ecx+52]
  00003	c3		 ret	 0
?GetMemoryPool@i3ClassMeta@@QAEPAVi3MemoryPool@@XZ ENDP	; i3ClassMeta::GetMemoryPool
_TEXT	ENDS
; Function compile flags: /Ogtp
; File C:\Program Files (x86)\Windows Kits\10\Include\10.0.26100.0\ucrt\corecrt_stdio_config.h
;	COMDAT ___local_stdio_printf_options
_TEXT	SEGMENT
___local_stdio_printf_options PROC			; COMDAT

; 91   :         static unsigned __int64 _OptionsStorage;
; 92   :         return &_OptionsStorage;

  00000	b8 00 00 00 00	 mov	 eax, OFFSET ?_OptionsStorage@?1??__local_stdio_printf_options@@9@4_KA ; `__local_stdio_printf_options'::`2'::_OptionsStorage

; 93   :     }

  00005	c3		 ret	 0
___local_stdio_printf_options ENDP
_TEXT	ENDS
; Function compile flags: /Ogtp
; File E:\Proyectos\JuegosOnlineproyectos\PB\pbblow\Piercing Blow Remake\i3Server\src\i3Base\i3IniParser.cpp
;	COMDAT ?__global_array_delete@@YAXPAXI@Z
_TEXT	SEGMENT
_p$ = 8							; size = 4
_sz$ = 12						; size = 4
?__global_array_delete@@YAXPAXI@Z PROC			; __global_array_delete, COMDAT

  00000	e9 00 00 00 00	 jmp	 ??_V@YAXPAXI@Z		; operator delete[]
?__global_array_delete@@YAXPAXI@Z ENDP			; __global_array_delete
_TEXT	ENDS
; Function compile flags: /Ogtp
; File E:\Proyectos\JuegosOnlineproyectos\PB\pbblow\Piercing Blow Remake\i3Server\src\i3Base\i3IniParser.cpp
;	COMDAT ?__global_array_delete@@YAXPAX@Z
_TEXT	SEGMENT
_p$ = 8							; size = 4
?__global_array_delete@@YAXPAX@Z PROC			; __global_array_delete, COMDAT

  00000	e9 00 00 00 00	 jmp	 ??_V@YAXPAX@Z		; operator delete[]
?__global_array_delete@@YAXPAX@Z ENDP			; __global_array_delete
_TEXT	ENDS
; Function compile flags: /Ogtp
; File E:\Proyectos\JuegosOnlineproyectos\PB\pbblow\Piercing Blow Remake\i3Server\src\i3Base\i3IniParser.cpp
;	COMDAT ?__global_delete@@YAXPAXI@Z
_TEXT	SEGMENT
_p$ = 8							; size = 4
_sz$ = 12						; size = 4
?__global_delete@@YAXPAXI@Z PROC			; __global_delete, COMDAT

  00000	e9 00 00 00 00	 jmp	 ??3@YAXPAXI@Z		; operator delete
?__global_delete@@YAXPAXI@Z ENDP			; __global_delete
_TEXT	ENDS
; Function compile flags: /Ogtp
; File E:\Proyectos\JuegosOnlineproyectos\PB\pbblow\Piercing Blow Remake\i3Server\src\i3Base\i3IniParser.cpp
;	COMDAT ?__empty_global_delete@@YAXPAXI@Z
_TEXT	SEGMENT
___formal$ = 8						; size = 4
___formal$ = 12						; size = 4
?__empty_global_delete@@YAXPAXI@Z PROC			; __empty_global_delete, COMDAT

  00000	c2 00 00	 ret	 0
?__empty_global_delete@@YAXPAXI@Z ENDP			; __empty_global_delete
_TEXT	ENDS
; Function compile flags: /Ogtp
; File E:\Proyectos\JuegosOnlineproyectos\PB\pbblow\Piercing Blow Remake\i3Server\src\i3Base\i3IniParser.cpp
;	COMDAT ?__global_delete@@YAXPAX@Z
_TEXT	SEGMENT
_p$ = 8							; size = 4
?__global_delete@@YAXPAX@Z PROC				; __global_delete, COMDAT

  00000	e9 00 00 00 00	 jmp	 ??3@YAXPAX@Z		; operator delete
?__global_delete@@YAXPAX@Z ENDP				; __global_delete
_TEXT	ENDS
; Function compile flags: /Ogtp
; File E:\Proyectos\JuegosOnlineproyectos\PB\pbblow\Piercing Blow Remake\i3Server\src\i3Base\i3IniParser.cpp
;	COMDAT ?__empty_global_delete@@YAXPAX@Z
_TEXT	SEGMENT
___formal$ = 8						; size = 4
?__empty_global_delete@@YAXPAX@Z PROC			; __empty_global_delete, COMDAT

  00000	c2 00 00	 ret	 0
?__empty_global_delete@@YAXPAX@Z ENDP			; __empty_global_delete
_TEXT	ENDS
END
