; Listing generated by Microsoft (R) Optimizing Compiler Version 19.50.35727.0 

	TITLE	E:\Proyectos\JuegosOnlineproyectos\PB\pbblow\Piercing Blow Remake\i3Server\Project\I3_DX\i3Server\x86\Release\i3IniParser.obj
	.686P
	.XMM
	include listing.inc
	.model	flat

INCLUDELIB LIBCMT
INCLUDELIB OLDNAMES

PUBLIC	?s_pClassMetai3IniParser@i3IniParser@@2PAVi3ClassMeta@@A ; i3IniParser::s_pClassMetai3IniParser
PUBLIC	?CreateInstance@?$i3MetaTemplate@Vi3IniParser@@@@UAEPAVi3ElementBase@@W4I3_CLASSMETA_TYPE@@@Z ; i3MetaTemplate<i3IniParser>::CreateInstance
PUBLIC	?BindInstance@?$i3MetaTemplate@Vi3IniParser@@@@UAEPAVi3ElementBase@@PAXW4I3_CLASSMETA_TYPE@@@Z ; i3MetaTemplate<i3IniParser>::BindInstance
PUBLIC	??_7?$i3MetaTemplate@Vi3IniParser@@@@6B@	; i3MetaTemplate<i3IniParser>::`vftable'
PUBLIC	??_G?$i3MetaTemplate@Vi3IniParser@@@@UAEPAXI@Z	; i3MetaTemplate<i3IniParser>::`scalar deleting destructor'
PUBLIC	??_C@_0O@OCDFBOHM@i3ElementBase@		; `string'
PUBLIC	??_C@_0M@PAADBEPC@i3IniParser@			; `string'
PUBLIC	__Avx2WmemEnabledWeakValue
PUBLIC	??_R0?AVi3ClassMeta@@@8				; i3ClassMeta `RTTI Type Descriptor'
PUBLIC	??_R3i3ClassMeta@@8				; i3ClassMeta::`RTTI Class Hierarchy Descriptor'
PUBLIC	??_R2i3ClassMeta@@8				; i3ClassMeta::`RTTI Base Class Array'
PUBLIC	??_R1A@?0A@EA@i3ClassMeta@@8			; i3ClassMeta::`RTTI Base Class Descriptor at (0,-1,0,64)'
PUBLIC	??_R4?$i3MetaTemplate@Vi3IniParser@@@@6B@	; i3MetaTemplate<i3IniParser>::`RTTI Complete Object Locator'
PUBLIC	??_R0?AV?$i3MetaTemplate@Vi3IniParser@@@@@8	; i3MetaTemplate<i3IniParser> `RTTI Type Descriptor'
PUBLIC	??_R3?$i3MetaTemplate@Vi3IniParser@@@@8		; i3MetaTemplate<i3IniParser>::`RTTI Class Hierarchy Descriptor'
PUBLIC	??_R2?$i3MetaTemplate@Vi3IniParser@@@@8		; i3MetaTemplate<i3IniParser>::`RTTI Base Class Array'
PUBLIC	??_R1A@?0A@EA@?$i3MetaTemplate@Vi3IniParser@@@@8 ; i3MetaTemplate<i3IniParser>::`RTTI Base Class Descriptor at (0,-1,0,64)'
EXTRN	??_7type_info@@6B@:QWORD			; type_info::`vftable'
EXTRN	??_E?$i3MetaTemplate@Vi3IniParser@@@@UAEPAXI@Z:PROC ; i3MetaTemplate<i3IniParser>::`vector deleting destructor'
;	COMDAT __Avx2WmemEnabledWeakValue
_BSS	SEGMENT
__Avx2WmemEnabledWeakValue DD 01H DUP (?)
_BSS	ENDS
;	COMDAT ??_R1A@?0A@EA@?$i3MetaTemplate@Vi3IniParser@@@@8
rdata$r	SEGMENT
??_R1A@?0A@EA@?$i3MetaTemplate@Vi3IniParser@@@@8 DD FLAT:??_R0?AV?$i3MetaTemplate@Vi3IniParser@@@@@8 ; i3MetaTemplate<i3IniParser>::`RTTI Base Class Descriptor at (0,-1,0,64)'
	DD	01H
	DD	00H
	DD	0ffffffffH
	DD	00H
	DD	040H
	DD	FLAT:??_R3?$i3MetaTemplate@Vi3IniParser@@@@8
rdata$r	ENDS
;	COMDAT ??_R2?$i3MetaTemplate@Vi3IniParser@@@@8
rdata$r	SEGMENT
??_R2?$i3MetaTemplate@Vi3IniParser@@@@8 DD FLAT:??_R1A@?0A@EA@?$i3MetaTemplate@Vi3IniParser@@@@8 ; i3MetaTemplate<i3IniParser>::`RTTI Base Class Array'
	DD	FLAT:??_R1A@?0A@EA@i3ClassMeta@@8
rdata$r	ENDS
;	COMDAT ??_R3?$i3MetaTemplate@Vi3IniParser@@@@8
rdata$r	SEGMENT
??_R3?$i3MetaTemplate@Vi3IniParser@@@@8 DD 00H		; i3MetaTemplate<i3IniParser>::`RTTI Class Hierarchy Descriptor'
	DD	00H
	DD	02H
	DD	FLAT:??_R2?$i3MetaTemplate@Vi3IniParser@@@@8
rdata$r	ENDS
;	COMDAT ??_R0?AV?$i3MetaTemplate@Vi3IniParser@@@@@8
data$rs	SEGMENT
??_R0?AV?$i3MetaTemplate@Vi3IniParser@@@@@8 DD FLAT:??_7type_info@@6B@ ; i3MetaTemplate<i3IniParser> `RTTI Type Descriptor'
	DD	00H
	DB	'.?AV?$i3MetaTemplate@Vi3IniParser@@@@', 00H
data$rs	ENDS
;	COMDAT ??_R4?$i3MetaTemplate@Vi3IniParser@@@@6B@
rdata$r	SEGMENT
??_R4?$i3MetaTemplate@Vi3IniParser@@@@6B@ DD 00H	; i3MetaTemplate<i3IniParser>::`RTTI Complete Object Locator'
	DD	00H
	DD	00H
	DD	FLAT:??_R0?AV?$i3MetaTemplate@Vi3IniParser@@@@@8
	DD	FLAT:??_R3?$i3MetaTemplate@Vi3IniParser@@@@8
rdata$r	ENDS
;	COMDAT ??_R1A@?0A@EA@i3ClassMeta@@8
rdata$r	SEGMENT
??_R1A@?0A@EA@i3ClassMeta@@8 DD FLAT:??_R0?AVi3ClassMeta@@@8 ; i3ClassMeta::`RTTI Base Class Descriptor at (0,-1,0,64)'
	DD	00H
	DD	00H
	DD	0ffffffffH
	DD	00H
	DD	040H
	DD	FLAT:??_R3i3ClassMeta@@8
rdata$r	ENDS
;	COMDAT ??_R2i3ClassMeta@@8
rdata$r	SEGMENT
??_R2i3ClassMeta@@8 DD FLAT:??_R1A@?0A@EA@i3ClassMeta@@8 ; i3ClassMeta::`RTTI Base Class Array'
rdata$r	ENDS
;	COMDAT ??_R3i3ClassMeta@@8
rdata$r	SEGMENT
??_R3i3ClassMeta@@8 DD 00H				; i3ClassMeta::`RTTI Class Hierarchy Descriptor'
	DD	00H
	DD	01H
	DD	FLAT:??_R2i3ClassMeta@@8
rdata$r	ENDS
;	COMDAT ??_R0?AVi3ClassMeta@@@8
data$rs	SEGMENT
??_R0?AVi3ClassMeta@@@8 DD FLAT:??_7type_info@@6B@	; i3ClassMeta `RTTI Type Descriptor'
	DD	00H
	DB	'.?AVi3ClassMeta@@', 00H
data$rs	ENDS
;	COMDAT ??_C@_0M@PAADBEPC@i3IniParser@
CONST	SEGMENT
??_C@_0M@PAADBEPC@i3IniParser@ DB 'i3IniParser', 00H	; `string'
CONST	ENDS
;	COMDAT ??_C@_0O@OCDFBOHM@i3ElementBase@
CONST	SEGMENT
??_C@_0O@OCDFBOHM@i3ElementBase@ DB 'i3ElementBase', 00H ; `string'
CONST	ENDS
;	COMDAT ??_7?$i3MetaTemplate@Vi3IniParser@@@@6B@
CONST	SEGMENT
??_7?$i3MetaTemplate@Vi3IniParser@@@@6B@ DD FLAT:??_R4?$i3MetaTemplate@Vi3IniParser@@@@6B@ ; i3MetaTemplate<i3IniParser>::`vftable'
	DD	FLAT:??_E?$i3MetaTemplate@Vi3IniParser@@@@UAEPAXI@Z
	DD	FLAT:?CreateInstance@?$i3MetaTemplate@Vi3IniParser@@@@UAEPAVi3ElementBase@@W4I3_CLASSMETA_TYPE@@@Z
	DD	FLAT:?BindInstance@?$i3MetaTemplate@Vi3IniParser@@@@UAEPAVi3ElementBase@@PAXW4I3_CLASSMETA_TYPE@@@Z
CONST	ENDS
_DATA	SEGMENT
?s_pClassMetai3IniParser@i3IniParser@@2PAVi3ClassMeta@@A DD FLAT:?s_ClassMetai3IniParser@@3V?$i3MetaTemplate@Vi3IniParser@@@@A ; i3IniParser::s_pClassMetai3IniParser
_DATA	ENDS
PUBLIC	?__empty_global_delete@@YAXPAX@Z		; __empty_global_delete
PUBLIC	?__global_delete@@YAXPAX@Z			; __global_delete
PUBLIC	?__empty_global_delete@@YAXPAXI@Z		; __empty_global_delete
PUBLIC	?__global_delete@@YAXPAXI@Z			; __global_delete
PUBLIC	?__global_array_delete@@YAXPAX@Z		; __global_array_delete
PUBLIC	?__global_array_delete@@YAXPAXI@Z		; __global_array_delete
PUBLIC	___local_stdio_printf_options
PUBLIC	?GetMemoryPool@i3ClassMeta@@QAEPAVi3MemoryPool@@XZ ; i3ClassMeta::GetMemoryPool
PUBLIC	?SetMemoryPool@i3ClassMeta@@QAEXPAVi3MemoryPool@@@Z ; i3ClassMeta::SetMemoryPool
PUBLIC	?GetClassSize@i3ClassMeta@@QAEIXZ		; i3ClassMeta::GetClassSize
PUBLIC	?GetClassNameA@i3ClassMeta@@QAEPADXZ		; i3ClassMeta::GetClassNameA
PUBLIC	?IsExactTypeOf@i3ClassMeta@@QAE_NPAV1@@Z	; i3ClassMeta::IsExactTypeOf
PUBLIC	?SetStyle@i3ClassMeta@@QAEXI@Z			; i3ClassMeta::SetStyle
PUBLIC	?GetStyle@i3ClassMeta@@QAEIXZ			; i3ClassMeta::GetStyle
PUBLIC	?AddStyle@i3ClassMeta@@QAEXI@Z			; i3ClassMeta::AddStyle
PUBLIC	?RemoveStyle@i3ClassMeta@@QAEXI@Z		; i3ClassMeta::RemoveStyle
PUBLIC	?IsStyle@i3ClassMeta@@QAEHI@Z			; i3ClassMeta::IsStyle
PUBLIC	?IsAbstractClass@i3ClassMeta@@QAEHXZ		; i3ClassMeta::IsAbstractClass
PUBLIC	?IsConcreteClass@i3ClassMeta@@QAEHXZ		; i3ClassMeta::IsConcreteClass
PUBLIC	?GetBaseClassMeta@i3ClassMeta@@QAEPAV1@XZ	; i3ClassMeta::GetBaseClassMeta
PUBLIC	?getHashCode@i3ClassMeta@@QAEIXZ		; i3ClassMeta::getHashCode
PUBLIC	??0i3ClassMeta@@QAE@ABV0@@Z			; i3ClassMeta::i3ClassMeta
PUBLIC	??4i3ClassMeta@@QAEAAV0@ABV0@@Z			; i3ClassMeta::operator=
PUBLIC	??_Gi3ClassMeta@@UAEPAXI@Z			; i3ClassMeta::`scalar deleting destructor'
PUBLIC	??_Ei3ClassMeta@@UAEPAXI@Z			; i3ClassMeta::`vector deleting destructor'
PUBLIC	?GetClassMeta@i3ElementBase@@SAPAVi3ClassMeta@@XZ ; i3ElementBase::GetClassMeta
PUBLIC	?GetRefCount@i3ElementBase@@QAEHXZ		; i3ElementBase::GetRefCount
PUBLIC	?__SetMemoryPool@i3ElementBase@@QAEXPAVi3MemoryPool@@@Z ; i3ElementBase::__SetMemoryPool
PUBLIC	?__GetMemoryPool@i3ElementBase@@QAEPAVi3MemoryPool@@XZ ; i3ElementBase::__GetMemoryPool
PUBLIC	?IsExactTypeOf@i3ElementBase@@QAE_NPAVi3ClassMeta@@@Z ; i3ElementBase::IsExactTypeOf
PUBLIC	?IsTypeOf@i3ElementBase@@QAE_NPAVi3ClassMeta@@@Z ; i3ElementBase::IsTypeOf
PUBLIC	?AddRef@i3ElementBase@@QAEHXZ			; i3ElementBase::AddRef
PUBLIC	?_internal_SetRefCount@i3ElementBase@@QAEXH@Z	; i3ElementBase::_internal_SetRefCount
PUBLIC	??0i3ElementBase@@QAE@ABV0@@Z			; i3ElementBase::i3ElementBase
PUBLIC	??4i3ElementBase@@QAEAAV0@ABV0@@Z		; i3ElementBase::operator=
PUBLIC	??_Gi3ElementBase@@UAEPAXI@Z			; i3ElementBase::`scalar deleting destructor'
PUBLIC	??_Ei3ElementBase@@UAEPAXI@Z			; i3ElementBase::`vector deleting destructor'
PUBLIC	??0i3MemoryPool@@QAE@ABV0@@Z			; i3MemoryPool::i3MemoryPool
PUBLIC	??4i3MemoryPool@@QAEAAV0@ABV0@@Z		; i3MemoryPool::operator=
PUBLIC	??_Gi3MemoryPool@@UAEPAXI@Z			; i3MemoryPool::`scalar deleting destructor'
PUBLIC	??_Ei3MemoryPool@@UAEPAXI@Z			; i3MemoryPool::`vector deleting destructor'
PUBLIC	?GetClassMeta@i3Stream@@SAPAVi3ClassMeta@@XZ	; i3Stream::GetClassMeta
PUBLIC	?GetSize@i3Stream@@QAEIXZ			; i3Stream::GetSize
PUBLIC	?GetLastError@i3Stream@@QAE?AW4STREAMCODE@1@XZ	; i3Stream::GetLastError
PUBLIC	?GetAccessMode@i3Stream@@QAEHXZ			; i3Stream::GetAccessMode
PUBLIC	?GetHandle@i3Stream@@UAEPAXXZ			; i3Stream::GetHandle
PUBLIC	?BeginRecord@i3Stream@@QAEXXZ			; i3Stream::BeginRecord
PUBLIC	?GetRecordSize@i3Stream@@QAEIXZ			; i3Stream::GetRecordSize
PUBLIC	??0i3Stream@@QAE@ABV0@@Z			; i3Stream::i3Stream
PUBLIC	??4i3Stream@@QAEAAV0@ABV0@@Z			; i3Stream::operator=
PUBLIC	??_Gi3Stream@@UAEPAXI@Z				; i3Stream::`scalar deleting destructor'
PUBLIC	??_Ei3Stream@@UAEPAXI@Z				; i3Stream::`vector deleting destructor'
PUBLIC	?GetClassMeta@i3FileStream@@SAPAVi3ClassMeta@@XZ ; i3FileStream::GetClassMeta
PUBLIC	?GetHandle@i3FileStream@@UAEPAXXZ		; i3FileStream::GetHandle
PUBLIC	?GetFileName@i3FileStream@@QAEPADXZ		; i3FileStream::GetFileName
PUBLIC	?SetCaseSensitive@i3FileStream@@SAXH@Z		; i3FileStream::SetCaseSensitive
PUBLIC	?IsCaseSensitive@i3FileStream@@SAHXZ		; i3FileStream::IsCaseSensitive
PUBLIC	??0i3FileStream@@QAE@ABV0@@Z			; i3FileStream::i3FileStream
PUBLIC	??4i3FileStream@@QAEAAV0@ABV0@@Z		; i3FileStream::operator=
PUBLIC	??_Gi3FileStream@@UAEPAXI@Z			; i3FileStream::`scalar deleting destructor'
PUBLIC	??_Ei3FileStream@@UAEPAXI@Z			; i3FileStream::`vector deleting destructor'
PUBLIC	??0TiXmlString@@QAE@XZ				; TiXmlString::TiXmlString
PUBLIC	??0TiXmlString@@QAE@ABV0@@Z			; TiXmlString::TiXmlString
PUBLIC	??0TiXmlString@@QAE@PBD@Z			; TiXmlString::TiXmlString
PUBLIC	??0TiXmlString@@QAE@PBDI@Z			; TiXmlString::TiXmlString
PUBLIC	??1TiXmlString@@QAE@XZ				; TiXmlString::~TiXmlString
PUBLIC	??4TiXmlString@@QAEAAV0@PBD@Z			; TiXmlString::operator=
PUBLIC	??4TiXmlString@@QAEAAV0@ABV0@@Z			; TiXmlString::operator=
PUBLIC	??YTiXmlString@@QAEAAV0@PBD@Z			; TiXmlString::operator+=
PUBLIC	??YTiXmlString@@QAEAAV0@D@Z			; TiXmlString::operator+=
PUBLIC	??YTiXmlString@@QAEAAV0@ABV0@@Z			; TiXmlString::operator+=
PUBLIC	?c_str@TiXmlString@@QBEPBDXZ			; TiXmlString::c_str
PUBLIC	?data@TiXmlString@@QBEPBDXZ			; TiXmlString::data
PUBLIC	?length@TiXmlString@@QBEIXZ			; TiXmlString::length
PUBLIC	?size@TiXmlString@@QBEIXZ			; TiXmlString::size
PUBLIC	?empty@TiXmlString@@QBE_NXZ			; TiXmlString::empty
PUBLIC	?capacity@TiXmlString@@QBEIXZ			; TiXmlString::capacity
PUBLIC	?at@TiXmlString@@QBEABDI@Z			; TiXmlString::at
PUBLIC	??ATiXmlString@@QBEAADI@Z			; TiXmlString::operator[]
PUBLIC	?find@TiXmlString@@QBEID@Z			; TiXmlString::find
PUBLIC	?find@TiXmlString@@QBEIDI@Z			; TiXmlString::find
PUBLIC	?clear@TiXmlString@@QAEXXZ			; TiXmlString::clear
PUBLIC	?swap@TiXmlString@@QAEXAAV1@@Z			; TiXmlString::swap
PUBLIC	?init@TiXmlString@@AAEXI@Z			; TiXmlString::init
PUBLIC	?set_size@TiXmlString@@AAEXI@Z			; TiXmlString::set_size
PUBLIC	?start@TiXmlString@@ABEPADXZ			; TiXmlString::start
PUBLIC	?finish@TiXmlString@@ABEPADXZ			; TiXmlString::finish
PUBLIC	?init@TiXmlString@@AAEXII@Z			; TiXmlString::init
PUBLIC	?quit@TiXmlString@@AAEXXZ			; TiXmlString::quit
PUBLIC	??0TiXmlCursor@@QAE@XZ				; TiXmlCursor::TiXmlCursor
PUBLIC	?Clear@TiXmlCursor@@QAEXXZ			; TiXmlCursor::Clear
PUBLIC	??4TiXmlCursor@@QAEAAU0@ABU0@@Z			; TiXmlCursor::operator=
PUBLIC	??4TiXmlCursor@@QAEAAU0@$$QAU0@@Z		; TiXmlCursor::operator=
PUBLIC	??1TiXmlVisitor@@UAE@XZ				; TiXmlVisitor::~TiXmlVisitor
PUBLIC	?VisitEnter@TiXmlVisitor@@UAE_NABVTiXmlDocument@@@Z ; TiXmlVisitor::VisitEnter
PUBLIC	?VisitExit@TiXmlVisitor@@UAE_NABVTiXmlDocument@@@Z ; TiXmlVisitor::VisitExit
PUBLIC	?VisitEnter@TiXmlVisitor@@UAE_NABVTiXmlElement@@PBVTiXmlAttribute@@@Z ; TiXmlVisitor::VisitEnter
PUBLIC	?VisitExit@TiXmlVisitor@@UAE_NABVTiXmlElement@@@Z ; TiXmlVisitor::VisitExit
PUBLIC	?Visit@TiXmlVisitor@@UAE_NABVTiXmlDeclaration@@@Z ; TiXmlVisitor::Visit
PUBLIC	?Visit@TiXmlVisitor@@UAE_NABVTiXmlText@@@Z	; TiXmlVisitor::Visit
PUBLIC	?Visit@TiXmlVisitor@@UAE_NABVTiXmlComment@@@Z	; TiXmlVisitor::Visit
PUBLIC	?Visit@TiXmlVisitor@@UAE_NABVTiXmlUnknown@@@Z	; TiXmlVisitor::Visit
PUBLIC	??0TiXmlVisitor@@QAE@XZ				; TiXmlVisitor::TiXmlVisitor
PUBLIC	??0TiXmlVisitor@@QAE@ABV0@@Z			; TiXmlVisitor::TiXmlVisitor
PUBLIC	??4TiXmlVisitor@@QAEAAV0@ABV0@@Z		; TiXmlVisitor::operator=
PUBLIC	??_GTiXmlVisitor@@UAEPAXI@Z			; TiXmlVisitor::`scalar deleting destructor'
PUBLIC	??_ETiXmlVisitor@@UAEPAXI@Z			; TiXmlVisitor::`vector deleting destructor'
PUBLIC	??0TiXmlBase@@QAE@XZ				; TiXmlBase::TiXmlBase
PUBLIC	??1TiXmlBase@@UAE@XZ				; TiXmlBase::~TiXmlBase
PUBLIC	?SetCondenseWhiteSpace@TiXmlBase@@SAX_N@Z	; TiXmlBase::SetCondenseWhiteSpace
PUBLIC	?IsWhiteSpaceCondensed@TiXmlBase@@SA_NXZ	; TiXmlBase::IsWhiteSpaceCondensed
PUBLIC	?Row@TiXmlBase@@QBEHXZ				; TiXmlBase::Row
PUBLIC	?Column@TiXmlBase@@QBEHXZ			; TiXmlBase::Column
PUBLIC	?SetUserData@TiXmlBase@@QAEXPAX@Z		; TiXmlBase::SetUserData
PUBLIC	?GetUserData@TiXmlBase@@QAEPAXXZ		; TiXmlBase::GetUserData
PUBLIC	?GetUserData@TiXmlBase@@QBEPBXXZ		; TiXmlBase::GetUserData
PUBLIC	?IsWhiteSpace@TiXmlBase@@KA_ND@Z		; TiXmlBase::IsWhiteSpace
PUBLIC	?IsWhiteSpace@TiXmlBase@@KA_NH@Z		; TiXmlBase::IsWhiteSpace
PUBLIC	?GetChar@TiXmlBase@@KAPBDPBDPADPAHW4TiXmlEncoding@@@Z ; TiXmlBase::GetChar
PUBLIC	?ToLower@TiXmlBase@@KAHHW4TiXmlEncoding@@@Z	; TiXmlBase::ToLower
PUBLIC	??_GTiXmlBase@@UAEPAXI@Z			; TiXmlBase::`scalar deleting destructor'
PUBLIC	??_ETiXmlBase@@UAEPAXI@Z			; TiXmlBase::`vector deleting destructor'
PUBLIC	?Value@TiXmlNode@@QBEPBDXZ			; TiXmlNode::Value
PUBLIC	?ValueTStr@TiXmlNode@@QBEABVTiXmlString@@XZ	; TiXmlNode::ValueTStr
PUBLIC	?SetValue@TiXmlNode@@QAEXPBD@Z			; TiXmlNode::SetValue
PUBLIC	?Parent@TiXmlNode@@QAEPAV1@XZ			; TiXmlNode::Parent
PUBLIC	?Parent@TiXmlNode@@QBEPBV1@XZ			; TiXmlNode::Parent
PUBLIC	?FirstChild@TiXmlNode@@QBEPBV1@XZ		; TiXmlNode::FirstChild
PUBLIC	?FirstChild@TiXmlNode@@QAEPAV1@XZ		; TiXmlNode::FirstChild
PUBLIC	?FirstChild@TiXmlNode@@QAEPAV1@PBD@Z		; TiXmlNode::FirstChild
PUBLIC	?LastChild@TiXmlNode@@QBEPBV1@XZ		; TiXmlNode::LastChild
PUBLIC	?LastChild@TiXmlNode@@QAEPAV1@XZ		; TiXmlNode::LastChild
PUBLIC	?LastChild@TiXmlNode@@QAEPAV1@PBD@Z		; TiXmlNode::LastChild
PUBLIC	?IterateChildren@TiXmlNode@@QAEPAV1@PBV1@@Z	; TiXmlNode::IterateChildren
PUBLIC	?IterateChildren@TiXmlNode@@QAEPAV1@PBDPBV1@@Z	; TiXmlNode::IterateChildren
PUBLIC	?PreviousSibling@TiXmlNode@@QBEPBV1@XZ		; TiXmlNode::PreviousSibling
PUBLIC	?PreviousSibling@TiXmlNode@@QAEPAV1@XZ		; TiXmlNode::PreviousSibling
PUBLIC	?PreviousSibling@TiXmlNode@@QAEPAV1@PBD@Z	; TiXmlNode::PreviousSibling
PUBLIC	?NextSibling@TiXmlNode@@QBEPBV1@XZ		; TiXmlNode::NextSibling
PUBLIC	?NextSibling@TiXmlNode@@QAEPAV1@XZ		; TiXmlNode::NextSibling
PUBLIC	?NextSibling@TiXmlNode@@QAEPAV1@PBD@Z		; TiXmlNode::NextSibling
PUBLIC	?NextSiblingElement@TiXmlNode@@QAEPAVTiXmlElement@@XZ ; TiXmlNode::NextSiblingElement
PUBLIC	?NextSiblingElement@TiXmlNode@@QAEPAVTiXmlElement@@PBD@Z ; TiXmlNode::NextSiblingElement
PUBLIC	?FirstChildElement@TiXmlNode@@QAEPAVTiXmlElement@@XZ ; TiXmlNode::FirstChildElement
PUBLIC	?FirstChildElement@TiXmlNode@@QAEPAVTiXmlElement@@PBD@Z ; TiXmlNode::FirstChildElement
PUBLIC	?Type@TiXmlNode@@QBEHXZ				; TiXmlNode::Type
PUBLIC	?GetDocument@TiXmlNode@@QAEPAVTiXmlDocument@@XZ	; TiXmlNode::GetDocument
PUBLIC	?NoChildren@TiXmlNode@@QBE_NXZ			; TiXmlNode::NoChildren
PUBLIC	?ToDocument@TiXmlNode@@UBEPBVTiXmlDocument@@XZ	; TiXmlNode::ToDocument
PUBLIC	?ToElement@TiXmlNode@@UBEPBVTiXmlElement@@XZ	; TiXmlNode::ToElement
PUBLIC	?ToComment@TiXmlNode@@UBEPBVTiXmlComment@@XZ	; TiXmlNode::ToComment
PUBLIC	?ToUnknown@TiXmlNode@@UBEPBVTiXmlUnknown@@XZ	; TiXmlNode::ToUnknown
PUBLIC	?ToText@TiXmlNode@@UBEPBVTiXmlText@@XZ		; TiXmlNode::ToText
PUBLIC	?ToDeclaration@TiXmlNode@@UBEPBVTiXmlDeclaration@@XZ ; TiXmlNode::ToDeclaration
PUBLIC	?ToDocument@TiXmlNode@@UAEPAVTiXmlDocument@@XZ	; TiXmlNode::ToDocument
PUBLIC	?ToElement@TiXmlNode@@UAEPAVTiXmlElement@@XZ	; TiXmlNode::ToElement
PUBLIC	?ToComment@TiXmlNode@@UAEPAVTiXmlComment@@XZ	; TiXmlNode::ToComment
PUBLIC	?ToUnknown@TiXmlNode@@UAEPAVTiXmlUnknown@@XZ	; TiXmlNode::ToUnknown
PUBLIC	?ToText@TiXmlNode@@UAEPAVTiXmlText@@XZ		; TiXmlNode::ToText
PUBLIC	?ToDeclaration@TiXmlNode@@UAEPAVTiXmlDeclaration@@XZ ; TiXmlNode::ToDeclaration
PUBLIC	??0TiXmlAttribute@@QAE@XZ			; TiXmlAttribute::TiXmlAttribute
PUBLIC	??0TiXmlAttribute@@QAE@PBD0@Z			; TiXmlAttribute::TiXmlAttribute
PUBLIC	?Name@TiXmlAttribute@@QBEPBDXZ			; TiXmlAttribute::Name
PUBLIC	?Value@TiXmlAttribute@@QBEPBDXZ			; TiXmlAttribute::Value
PUBLIC	?NameTStr@TiXmlAttribute@@QBEABVTiXmlString@@XZ	; TiXmlAttribute::NameTStr
PUBLIC	?SetName@TiXmlAttribute@@QAEXPBD@Z		; TiXmlAttribute::SetName
PUBLIC	?SetValue@TiXmlAttribute@@QAEXPBD@Z		; TiXmlAttribute::SetValue
PUBLIC	?Next@TiXmlAttribute@@QAEPAV1@XZ		; TiXmlAttribute::Next
PUBLIC	?Previous@TiXmlAttribute@@QAEPAV1@XZ		; TiXmlAttribute::Previous
PUBLIC	??8TiXmlAttribute@@QBE_NABV0@@Z			; TiXmlAttribute::operator==
PUBLIC	??MTiXmlAttribute@@QBE_NABV0@@Z			; TiXmlAttribute::operator<
PUBLIC	??OTiXmlAttribute@@QBE_NABV0@@Z			; TiXmlAttribute::operator>
PUBLIC	?Print@TiXmlAttribute@@UBEXPAVi3FileStream@@H@Z	; TiXmlAttribute::Print
PUBLIC	?SetDocument@TiXmlAttribute@@QAEXPAVTiXmlDocument@@@Z ; TiXmlAttribute::SetDocument
PUBLIC	??1TiXmlAttribute@@UAE@XZ			; TiXmlAttribute::~TiXmlAttribute
PUBLIC	??_GTiXmlAttribute@@UAEPAXI@Z			; TiXmlAttribute::`scalar deleting destructor'
PUBLIC	??_ETiXmlAttribute@@UAEPAXI@Z			; TiXmlAttribute::`vector deleting destructor'
PUBLIC	?First@TiXmlAttributeSet@@QBEPBVTiXmlAttribute@@XZ ; TiXmlAttributeSet::First
PUBLIC	?First@TiXmlAttributeSet@@QAEPAVTiXmlAttribute@@XZ ; TiXmlAttributeSet::First
PUBLIC	?Last@TiXmlAttributeSet@@QBEPBVTiXmlAttribute@@XZ ; TiXmlAttributeSet::Last
PUBLIC	?Last@TiXmlAttributeSet@@QAEPAVTiXmlAttribute@@XZ ; TiXmlAttributeSet::Last
PUBLIC	?Find@TiXmlAttributeSet@@QAEPAVTiXmlAttribute@@PBD@Z ; TiXmlAttributeSet::Find
PUBLIC	?QueryFloatAttribute@TiXmlElement@@QBEHPBDPAM@Z	; TiXmlElement::QueryFloatAttribute
PUBLIC	?FirstAttribute@TiXmlElement@@QBEPBVTiXmlAttribute@@XZ ; TiXmlElement::FirstAttribute
PUBLIC	?FirstAttribute@TiXmlElement@@QAEPAVTiXmlAttribute@@XZ ; TiXmlElement::FirstAttribute
PUBLIC	?LastAttribute@TiXmlElement@@QBEPBVTiXmlAttribute@@XZ ; TiXmlElement::LastAttribute
PUBLIC	?LastAttribute@TiXmlElement@@QAEPAVTiXmlAttribute@@XZ ; TiXmlElement::LastAttribute
PUBLIC	?ToElement@TiXmlElement@@UBEPBV1@XZ		; TiXmlElement::ToElement
PUBLIC	?ToElement@TiXmlElement@@UAEPAV1@XZ		; TiXmlElement::ToElement
PUBLIC	??0TiXmlComment@@QAE@XZ				; TiXmlComment::TiXmlComment
PUBLIC	??0TiXmlComment@@QAE@PBD@Z			; TiXmlComment::TiXmlComment
PUBLIC	??1TiXmlComment@@UAE@XZ				; TiXmlComment::~TiXmlComment
PUBLIC	?ToComment@TiXmlComment@@UBEPBV1@XZ		; TiXmlComment::ToComment
PUBLIC	?ToComment@TiXmlComment@@UAEPAV1@XZ		; TiXmlComment::ToComment
PUBLIC	??_GTiXmlComment@@UAEPAXI@Z			; TiXmlComment::`scalar deleting destructor'
PUBLIC	??_ETiXmlComment@@UAEPAXI@Z			; TiXmlComment::`vector deleting destructor'
PUBLIC	??0TiXmlText@@QAE@PBD@Z				; TiXmlText::TiXmlText
PUBLIC	??1TiXmlText@@UAE@XZ				; TiXmlText::~TiXmlText
PUBLIC	??0TiXmlText@@QAE@ABV0@@Z			; TiXmlText::TiXmlText
PUBLIC	??4TiXmlText@@QAEXABV0@@Z			; TiXmlText::operator=
PUBLIC	?CDATA@TiXmlText@@QBE_NXZ			; TiXmlText::CDATA
PUBLIC	?SetCDATA@TiXmlText@@QAEX_N@Z			; TiXmlText::SetCDATA
PUBLIC	?ToText@TiXmlText@@UBEPBV1@XZ			; TiXmlText::ToText
PUBLIC	?ToText@TiXmlText@@UAEPAV1@XZ			; TiXmlText::ToText
PUBLIC	??_GTiXmlText@@UAEPAXI@Z			; TiXmlText::`scalar deleting destructor'
PUBLIC	??_ETiXmlText@@UAEPAXI@Z			; TiXmlText::`vector deleting destructor'
PUBLIC	??0TiXmlDeclaration@@QAE@XZ			; TiXmlDeclaration::TiXmlDeclaration
PUBLIC	??1TiXmlDeclaration@@UAE@XZ			; TiXmlDeclaration::~TiXmlDeclaration
PUBLIC	?Version@TiXmlDeclaration@@QBEPBDXZ		; TiXmlDeclaration::Version
PUBLIC	?Encoding@TiXmlDeclaration@@QBEPBDXZ		; TiXmlDeclaration::Encoding
PUBLIC	?Standalone@TiXmlDeclaration@@QBEPBDXZ		; TiXmlDeclaration::Standalone
PUBLIC	?Print@TiXmlDeclaration@@UBEXPAVi3FileStream@@H@Z ; TiXmlDeclaration::Print
PUBLIC	?ToDeclaration@TiXmlDeclaration@@UBEPBV1@XZ	; TiXmlDeclaration::ToDeclaration
PUBLIC	?ToDeclaration@TiXmlDeclaration@@UAEPAV1@XZ	; TiXmlDeclaration::ToDeclaration
PUBLIC	??_GTiXmlDeclaration@@UAEPAXI@Z			; TiXmlDeclaration::`scalar deleting destructor'
PUBLIC	??_ETiXmlDeclaration@@UAEPAXI@Z			; TiXmlDeclaration::`vector deleting destructor'
PUBLIC	??0TiXmlUnknown@@QAE@XZ				; TiXmlUnknown::TiXmlUnknown
PUBLIC	??1TiXmlUnknown@@UAE@XZ				; TiXmlUnknown::~TiXmlUnknown
PUBLIC	??0TiXmlUnknown@@QAE@ABV0@@Z			; TiXmlUnknown::TiXmlUnknown
PUBLIC	??4TiXmlUnknown@@QAEXABV0@@Z			; TiXmlUnknown::operator=
PUBLIC	?ToUnknown@TiXmlUnknown@@UBEPBV1@XZ		; TiXmlUnknown::ToUnknown
PUBLIC	?ToUnknown@TiXmlUnknown@@UAEPAV1@XZ		; TiXmlUnknown::ToUnknown
PUBLIC	??_GTiXmlUnknown@@UAEPAXI@Z			; TiXmlUnknown::`scalar deleting destructor'
PUBLIC	??_ETiXmlUnknown@@UAEPAXI@Z			; TiXmlUnknown::`vector deleting destructor'
PUBLIC	??1TiXmlDocument@@UAE@XZ			; TiXmlDocument::~TiXmlDocument
PUBLIC	?RootElement@TiXmlDocument@@QBEPBVTiXmlElement@@XZ ; TiXmlDocument::RootElement
PUBLIC	?RootElement@TiXmlDocument@@QAEPAVTiXmlElement@@XZ ; TiXmlDocument::RootElement
PUBLIC	?Error@TiXmlDocument@@QBE_NXZ			; TiXmlDocument::Error
PUBLIC	?ErrorDesc@TiXmlDocument@@QBEPBDXZ		; TiXmlDocument::ErrorDesc
PUBLIC	?ErrorId@TiXmlDocument@@QBEHXZ			; TiXmlDocument::ErrorId
PUBLIC	?ErrorRow@TiXmlDocument@@QBEHXZ			; TiXmlDocument::ErrorRow
PUBLIC	?ErrorCol@TiXmlDocument@@QBEHXZ			; TiXmlDocument::ErrorCol
PUBLIC	?SetTabSize@TiXmlDocument@@QAEXH@Z		; TiXmlDocument::SetTabSize
PUBLIC	?TabSize@TiXmlDocument@@QBEHXZ			; TiXmlDocument::TabSize
PUBLIC	?ClearError@TiXmlDocument@@QAEXXZ		; TiXmlDocument::ClearError
PUBLIC	?ToDocument@TiXmlDocument@@UBEPBV1@XZ		; TiXmlDocument::ToDocument
PUBLIC	?ToDocument@TiXmlDocument@@UAEPAV1@XZ		; TiXmlDocument::ToDocument
PUBLIC	?GetSize@TiXmlDocument@@QAEIXZ			; TiXmlDocument::GetSize
PUBLIC	??_GTiXmlDocument@@UAEPAXI@Z			; TiXmlDocument::`scalar deleting destructor'
PUBLIC	??_ETiXmlDocument@@UAEPAXI@Z			; TiXmlDocument::`vector deleting destructor'
PUBLIC	??0TiXmlHandle@@QAE@PAVTiXmlNode@@@Z		; TiXmlHandle::TiXmlHandle
PUBLIC	??0TiXmlHandle@@QAE@ABV0@@Z			; TiXmlHandle::TiXmlHandle
PUBLIC	??4TiXmlHandle@@QAE?AV0@ABV0@@Z			; TiXmlHandle::operator=
PUBLIC	?ToNode@TiXmlHandle@@QBEPAVTiXmlNode@@XZ	; TiXmlHandle::ToNode
PUBLIC	?ToElement@TiXmlHandle@@QBEPAVTiXmlElement@@XZ	; TiXmlHandle::ToElement
PUBLIC	?ToText@TiXmlHandle@@QBEPAVTiXmlText@@XZ	; TiXmlHandle::ToText
PUBLIC	?ToUnknown@TiXmlHandle@@QBEPAVTiXmlUnknown@@XZ	; TiXmlHandle::ToUnknown
PUBLIC	?Node@TiXmlHandle@@QBEPAVTiXmlNode@@XZ		; TiXmlHandle::Node
PUBLIC	?Element@TiXmlHandle@@QBEPAVTiXmlElement@@XZ	; TiXmlHandle::Element
PUBLIC	?Text@TiXmlHandle@@QBEPAVTiXmlText@@XZ		; TiXmlHandle::Text
PUBLIC	?Unknown@TiXmlHandle@@QBEPAVTiXmlUnknown@@XZ	; TiXmlHandle::Unknown
PUBLIC	??0TiXmlPrinter@@QAE@XZ				; TiXmlPrinter::TiXmlPrinter
PUBLIC	?SetIndent@TiXmlPrinter@@QAEXPBD@Z		; TiXmlPrinter::SetIndent
PUBLIC	?Indent@TiXmlPrinter@@QAEPBDXZ			; TiXmlPrinter::Indent
PUBLIC	?SetLineBreak@TiXmlPrinter@@QAEXPBD@Z		; TiXmlPrinter::SetLineBreak
PUBLIC	?LineBreak@TiXmlPrinter@@QAEPBDXZ		; TiXmlPrinter::LineBreak
PUBLIC	?SetStreamPrinting@TiXmlPrinter@@QAEXXZ		; TiXmlPrinter::SetStreamPrinting
PUBLIC	?CStr@TiXmlPrinter@@QAEPBDXZ			; TiXmlPrinter::CStr
PUBLIC	?Size@TiXmlPrinter@@QAEIXZ			; TiXmlPrinter::Size
PUBLIC	?DoIndent@TiXmlPrinter@@AAEXXZ			; TiXmlPrinter::DoIndent
PUBLIC	?DoLineBreak@TiXmlPrinter@@AAEXXZ		; TiXmlPrinter::DoLineBreak
PUBLIC	??1TiXmlPrinter@@UAE@XZ				; TiXmlPrinter::~TiXmlPrinter
PUBLIC	??0TiXmlPrinter@@QAE@ABV0@@Z			; TiXmlPrinter::TiXmlPrinter
PUBLIC	??0TiXmlPrinter@@QAE@$$QAV0@@Z			; TiXmlPrinter::TiXmlPrinter
PUBLIC	??4TiXmlPrinter@@QAEAAV0@ABV0@@Z		; TiXmlPrinter::operator=
PUBLIC	??4TiXmlPrinter@@QAEAAV0@$$QAV0@@Z		; TiXmlPrinter::operator=
PUBLIC	??_GTiXmlPrinter@@UAEPAXI@Z			; TiXmlPrinter::`scalar deleting destructor'
PUBLIC	??_ETiXmlPrinter@@UAEPAXI@Z			; TiXmlPrinter::`vector deleting destructor'
PUBLIC	?addAttr@i3XMLElement@@QAEXPBD0@Z		; i3XMLElement::addAttr
PUBLIC	?addAttr@i3XMLElement@@QAEXPBDH@Z		; i3XMLElement::addAttr
PUBLIC	?addAttr@i3XMLElement@@QAEXPBDI@Z		; i3XMLElement::addAttr
PUBLIC	?addAttr@i3XMLElement@@QAEXPBDM@Z		; i3XMLElement::addAttr
PUBLIC	?addAttr@i3XMLElement@@QAEXPBD_J@Z		; i3XMLElement::addAttr
PUBLIC	?addAttr@i3XMLElement@@QAEXPBD_K@Z		; i3XMLElement::addAttr
PUBLIC	?getAttr@i3XMLElement@@QAEPBDPBD@Z		; i3XMLElement::getAttr
PUBLIC	?getAttr@i3XMLElement@@QAEPBDPBDPAH@Z		; i3XMLElement::getAttr
PUBLIC	?getAttr@i3XMLElement@@QAEPBDPBDPAI@Z		; i3XMLElement::getAttr
PUBLIC	?getAttr@i3XMLElement@@QAEPBDPBDPA_J@Z		; i3XMLElement::getAttr
PUBLIC	?getAttr@i3XMLElement@@QAEPBDPBDPA_K@Z		; i3XMLElement::getAttr
PUBLIC	?getAttr@i3XMLElement@@QAEPBDPBDPAM@Z		; i3XMLElement::getAttr
PUBLIC	?getAttr@i3XMLElement@@QAEPBDPBDPAG@Z		; i3XMLElement::getAttr
PUBLIC	??0i3XMLElement@@QAE@ABV0@@Z			; i3XMLElement::i3XMLElement
PUBLIC	??4i3XMLElement@@QAEAAV0@ABV0@@Z		; i3XMLElement::operator=
PUBLIC	??_Gi3XMLElement@@UAEPAXI@Z			; i3XMLElement::`scalar deleting destructor'
PUBLIC	??_Ei3XMLElement@@UAEPAXI@Z			; i3XMLElement::`vector deleting destructor'
PUBLIC	?GetClassMeta@i3List@@SAPAVi3ClassMeta@@XZ	; i3List::GetClassMeta
PUBLIC	?SetOptmizeEnableWhenClear@i3List@@QAEXH@Z	; i3List::SetOptmizeEnableWhenClear
PUBLIC	?SetOnceMode@i3List@@QAEXH@Z			; i3List::SetOnceMode
PUBLIC	?GetCount@i3List@@QBEHXZ			; i3List::GetCount
PUBLIC	?GetItem@i3List@@QAEPAXH@Z			; i3List::GetItem
PUBLIC	?GetItem@i3List@@QBEPBXH@Z			; i3List::GetItem
PUBLIC	?GetSafeItem@i3List@@QBEPBXH@Z			; i3List::GetSafeItem
PUBLIC	?GetSafeItem@i3List@@QAEPAXH@Z			; i3List::GetSafeItem
PUBLIC	?Find@i3List@@QBEHPAX@Z				; i3List::Find
PUBLIC	?GetFirst@i3List@@QAEPAXXZ			; i3List::GetFirst
PUBLIC	?GetLast@i3List@@QAEPAXXZ			; i3List::GetLast
PUBLIC	?AddFromList@i3List@@QAEXPAV1@@Z		; i3List::AddFromList
PUBLIC	?SafeReleaseAll@i3List@@QAEXXZ			; i3List::SafeReleaseAll
PUBLIC	?SafeFreeAll@i3List@@QAEXXZ			; i3List::SafeFreeAll
PUBLIC	??0i3List@@QAE@ABV0@@Z				; i3List::i3List
PUBLIC	??4i3List@@QAEAAV0@ABV0@@Z			; i3List::operator=
PUBLIC	??_Fi3List@@QAEXXZ				; i3List::`default constructor closure'
PUBLIC	??_Gi3List@@UAEPAXI@Z				; i3List::`scalar deleting destructor'
PUBLIC	??_Ei3List@@UAEPAXI@Z				; i3List::`vector deleting destructor'
PUBLIC	?GetClassMeta@i3StringList@@SAPAVi3ClassMeta@@XZ ; i3StringList::GetClassMeta
PUBLIC	?GetCount@i3StringList@@QBEHXZ			; i3StringList::GetCount
PUBLIC	?GetItem@i3StringList@@QAEPAXH@Z		; i3StringList::GetItem
PUBLIC	?SetItem@i3StringList@@QAEXHPAD@Z		; i3StringList::SetItem
PUBLIC	?Find@i3StringList@@QAEHPAD@Z			; i3StringList::Find
PUBLIC	?GetFirst@i3StringList@@QAEPADXZ		; i3StringList::GetFirst
PUBLIC	?GetLast@i3StringList@@QAEPADXZ			; i3StringList::GetLast
PUBLIC	?GetOnceMode@i3StringList@@QAEHXZ		; i3StringList::GetOnceMode
PUBLIC	?SetOnceMode@i3StringList@@QAEXH@Z		; i3StringList::SetOnceMode
PUBLIC	??0i3StringList@@QAE@ABV0@@Z			; i3StringList::i3StringList
PUBLIC	??4i3StringList@@QAEAAV0@ABV0@@Z		; i3StringList::operator=
PUBLIC	??_Fi3StringList@@QAEXXZ			; i3StringList::`default constructor closure'
PUBLIC	??_Gi3StringList@@UAEPAXI@Z			; i3StringList::`scalar deleting destructor'
PUBLIC	??_Ei3StringList@@UAEPAXI@Z			; i3StringList::`vector deleting destructor'
PUBLIC	?GetClassMeta@i3IniParser@@SAPAVi3ClassMeta@@XZ	; i3IniParser::GetClassMeta
PUBLIC	?GetMeta@i3IniParser@@UAEPAVi3ClassMeta@@XZ	; i3IniParser::GetMeta
PUBLIC	?RegisterMeta@i3IniParser@@SAXXZ		; i3IniParser::RegisterMeta
PUBLIC	?SetConcreteClass@i3IniParser@@SAXPAVi3ClassMeta@@@Z ; i3IniParser::SetConcreteClass
PUBLIC	?SetGhostClass@i3IniParser@@SAXPAVi3ClassMeta@@@Z ; i3IniParser::SetGhostClass
PUBLIC	?_NewObject@i3IniParser@@SAPAV1@XZ		; i3IniParser::_NewObject
PUBLIC	?_NewObjectRef@i3IniParser@@SAPAV1@XZ		; i3IniParser::_NewObjectRef
PUBLIC	?_BindObject@i3IniParser@@SAPAV1@PAX@Z		; i3IniParser::_BindObject
PUBLIC	?_BindObjectRef@i3IniParser@@SAPAV1@PAX@Z	; i3IniParser::_BindObjectRef
PUBLIC	?_NewObjectByType@i3IniParser@@SAPAV1@W4I3_CLASSMETA_TYPE@@@Z ; i3IniParser::_NewObjectByType
PUBLIC	?_NewObjectRefByType@i3IniParser@@SAPAV1@W4I3_CLASSMETA_TYPE@@@Z ; i3IniParser::_NewObjectRefByType
PUBLIC	?_BindObjectByType@i3IniParser@@SAPAV1@PAXW4I3_CLASSMETA_TYPE@@@Z ; i3IniParser::_BindObjectByType
PUBLIC	?_BindObjectRefByType@i3IniParser@@SAPAV1@PAXW4I3_CLASSMETA_TYPE@@@Z ; i3IniParser::_BindObjectRefByType
PUBLIC	?RemoveWhiteSpace@i3IniParser@@IAEXPADPBD@Z	; i3IniParser::RemoveWhiteSpace
PUBLIC	?ProcessString@i3IniParser@@IAEHPADPBDH@Z	; i3IniParser::ProcessString
PUBLIC	?DeleteAllValues@i3IniParser@@IAEXXZ		; i3IniParser::DeleteAllValues
PUBLIC	?_ReadLine@i3IniParser@@IAEIPAD@Z		; i3IniParser::_ReadLine
PUBLIC	??0i3IniParser@@QAE@XZ				; i3IniParser::i3IniParser
PUBLIC	??1i3IniParser@@UAE@XZ				; i3IniParser::~i3IniParser
PUBLIC	?Close@i3IniParser@@QAEXXZ			; i3IniParser::Close
PUBLIC	?Create@i3IniParser@@QAEHPBD@Z			; i3IniParser::Create
PUBLIC	?GetTempBuffer@i3IniParser@@QAEPADXZ		; i3IniParser::GetTempBuffer
PUBLIC	?OpenFromFile@i3IniParser@@QAEHPBDH@Z		; i3IniParser::OpenFromFile
PUBLIC	?Open@i3IniParser@@QAEHPAVi3Stream@@HH@Z	; i3IniParser::Open
PUBLIC	?GetSectionCount@i3IniParser@@QAEHXZ		; i3IniParser::GetSectionCount
PUBLIC	?GetSection@i3IniParser@@QAEPAUi3IniSectionInfo@@H@Z ; i3IniParser::GetSection
PUBLIC	?FindSection@i3IniParser@@QAEPAUi3IniSectionInfo@@PBD@Z ; i3IniParser::FindSection
PUBLIC	?GetSectionIndex@i3IniParser@@QAEHPBD@Z		; i3IniParser::GetSectionIndex
PUBLIC	?GetCurSectionName@i3IniParser@@QAEPBDXZ	; i3IniParser::GetCurSectionName
PUBLIC	?GetFileName@i3IniParser@@QAEPBDXZ		; i3IniParser::GetFileName
PUBLIC	?GetFileNameExt@i3IniParser@@QAEPBDXZ		; i3IniParser::GetFileNameExt
PUBLIC	?ReadSection@i3IniParser@@QAEHPBD@Z		; i3IniParser::ReadSection
PUBLIC	?ReadSectionByIndex@i3IniParser@@QAEHH@Z	; i3IniParser::ReadSectionByIndex
PUBLIC	?ReadSectionByInfo@i3IniParser@@QAEHPAUi3IniSectionInfo@@@Z ; i3IniParser::ReadSectionByInfo
PUBLIC	?GetValueCount@i3IniParser@@QAEIXZ		; i3IniParser::GetValueCount
PUBLIC	?GetValueByIndex@i3IniParser@@QAEPAUi3IniValue@@H@Z ; i3IniParser::GetValueByIndex
PUBLIC	?GetStringValue@i3IniParser@@QAEPBDPBD@Z	; i3IniParser::GetStringValue
PUBLIC	?GetValue@i3IniParser@@QAEHPBDPADH@Z		; i3IniParser::GetValue
PUBLIC	?GetValue@i3IniParser@@QAEHPBDPAH@Z		; i3IniParser::GetValue
PUBLIC	?GetValue@i3IniParser@@QAEHPBDPAI@Z		; i3IniParser::GetValue
PUBLIC	?GetValue@i3IniParser@@QAEHPBDPAM@Z		; i3IniParser::GetValue
PUBLIC	?GetValue@i3IniParser@@QAEHPBDPAN@Z		; i3IniParser::GetValue
PUBLIC	?GetValue@i3IniParser@@QAEHPBD0PADH@Z		; i3IniParser::GetValue
PUBLIC	?GetValue@i3IniParser@@QAEHPBDHPAH@Z		; i3IniParser::GetValue
PUBLIC	?GetValue@i3IniParser@@QAEHPBDIPAI@Z		; i3IniParser::GetValue
PUBLIC	?GetValue@i3IniParser@@QAEHPBDMPAM@Z		; i3IniParser::GetValue
PUBLIC	?GetValue@i3IniParser@@QAEHPBDNPAN@Z		; i3IniParser::GetValue
PUBLIC	?GetValues@i3IniParser@@QAEHPBDPAHHH@Z		; i3IniParser::GetValues
PUBLIC	?GetValues@i3IniParser@@QAEHPBDPAMHH@Z		; i3IniParser::GetValues
PUBLIC	?GetValues@i3IniParser@@QAEHPBDHPAHHH@Z		; i3IniParser::GetValues
PUBLIC	?GetValues@i3IniParser@@QAEHPBDMPAMHH@Z		; i3IniParser::GetValues
PUBLIC	?GetValues@i3IniParser@@QAEHPBDPAH1HH@Z		; i3IniParser::GetValues
PUBLIC	?GetValues@i3IniParser@@QAEHPBDPAM1HH@Z		; i3IniParser::GetValues
PUBLIC	?GetIndex@i3IniParser@@QAEHPBDQAPBDIAAHI@Z	; i3IniParser::GetIndex
PUBLIC	?Write@i3IniParser@@QAAHPBD0ZZ			; i3IniParser::Write
PUBLIC	?WriteSectionName@i3IniParser@@QAEHPBD@Z	; i3IniParser::WriteSectionName
PUBLIC	?WriteBool@i3IniParser@@QAEHPBDH@Z		; i3IniParser::WriteBool
PUBLIC	?WriteValue@i3IniParser@@QAEHPBD0@Z		; i3IniParser::WriteValue
PUBLIC	?WriteValue@i3IniParser@@QAEHPBDH@Z		; i3IniParser::WriteValue
PUBLIC	?WriteValue@i3IniParser@@QAEHPBDI@Z		; i3IniParser::WriteValue
PUBLIC	?WriteValue@i3IniParser@@QAEHPBDM@Z		; i3IniParser::WriteValue
PUBLIC	?WriteValue@i3IniParser@@QAEHPBDN@Z		; i3IniParser::WriteValue
PUBLIC	??0i3IniParser@@QAE@ABV0@@Z			; i3IniParser::i3IniParser
PUBLIC	??4i3IniParser@@QAEAAV0@ABV0@@Z			; i3IniParser::operator=
PUBLIC	??_Gi3IniParser@@UAEPAXI@Z			; i3IniParser::`scalar deleting destructor'
PUBLIC	??_Ei3IniParser@@UAEPAXI@Z			; i3IniParser::`vector deleting destructor'
PUBLIC	?GetClassMeta@i3LineLexer@@SAPAVi3ClassMeta@@XZ	; i3LineLexer::GetClassMeta
PUBLIC	?GetMasterString@i3LineLexer@@QAEPADXZ		; i3LineLexer::GetMasterString
PUBLIC	?getCurrentPosition@i3LineLexer@@QAEPADXZ	; i3LineLexer::getCurrentPosition
PUBLIC	??0i3LineLexer@@QAE@ABV0@@Z			; i3LineLexer::i3LineLexer
PUBLIC	??4i3LineLexer@@QAEAAV0@ABV0@@Z			; i3LineLexer::operator=
PUBLIC	??_Gi3LineLexer@@UAEPAXI@Z			; i3LineLexer::`scalar deleting destructor'
PUBLIC	??_Ei3LineLexer@@UAEPAXI@Z			; i3LineLexer::`vector deleting destructor'
PUBLIC	?GetClassMeta@i3SimpleLineLexer@@SAPAVi3ClassMeta@@XZ ; i3SimpleLineLexer::GetClassMeta
PUBLIC	??0i3SimpleLineLexer@@QAE@ABV0@@Z		; i3SimpleLineLexer::i3SimpleLineLexer
PUBLIC	??4i3SimpleLineLexer@@QAEAAV0@ABV0@@Z		; i3SimpleLineLexer::operator=
PUBLIC	??_Gi3SimpleLineLexer@@UAEPAXI@Z		; i3SimpleLineLexer::`scalar deleting destructor'
PUBLIC	??_Ei3SimpleLineLexer@@UAEPAXI@Z		; i3SimpleLineLexer::`vector deleting destructor'
PUBLIC	?GetClassMeta@i3Timer@@SAPAVi3ClassMeta@@XZ	; i3Timer::GetClassMeta
PUBLIC	??0i3Timer@@QAE@ABV0@@Z				; i3Timer::i3Timer
PUBLIC	??4i3Timer@@QAEAAV0@ABV0@@Z			; i3Timer::operator=
PUBLIC	??_Gi3Timer@@UAEPAXI@Z				; i3Timer::`scalar deleting destructor'
PUBLIC	??_Ei3Timer@@UAEPAXI@Z				; i3Timer::`vector deleting destructor'
PUBLIC	??0?$i3MetaTemplate@Vi3IniParser@@@@QAE@IPAD0W4I3_CLASSMETA_TYPE@@@Z ; i3MetaTemplate<i3IniParser>::i3MetaTemplate<i3IniParser>
PUBLIC	?_OptionsStorage@?1??__local_stdio_printf_options@@9@4_KA ; `__local_stdio_printf_options'::`2'::_OptionsStorage
PUBLIC	??_7i3ClassMeta@@6B@				; i3ClassMeta::`vftable'
PUBLIC	??_7i3ElementBase@@6B@				; i3ElementBase::`vftable'
PUBLIC	??_7i3MemoryPool@@6B@				; i3MemoryPool::`vftable'
PUBLIC	??_7i3Stream@@6B@				; i3Stream::`vftable'
PUBLIC	??_7i3FileStream@@6B@				; i3FileStream::`vftable'
PUBLIC	??_7TiXmlVisitor@@6B@				; TiXmlVisitor::`vftable'
PUBLIC	??_7TiXmlBase@@6B@				; TiXmlBase::`vftable'
PUBLIC	??_7TiXmlAttribute@@6B@				; TiXmlAttribute::`vftable'
PUBLIC	??_7TiXmlComment@@6B@				; TiXmlComment::`vftable'
PUBLIC	??_7TiXmlText@@6B@				; TiXmlText::`vftable'
PUBLIC	??_7TiXmlDeclaration@@6B@			; TiXmlDeclaration::`vftable'
PUBLIC	??_7TiXmlUnknown@@6B@				; TiXmlUnknown::`vftable'
PUBLIC	??_7TiXmlDocument@@6B@				; TiXmlDocument::`vftable'
PUBLIC	??_C@_00CNPNBAHC@@				; `string'
PUBLIC	??_7TiXmlPrinter@@6B@				; TiXmlPrinter::`vftable'
PUBLIC	??_C@_04PFOHOKJK@?5?5?5?5@			; `string'
PUBLIC	??_C@_01EEMJAFIK@?6@				; `string'
PUBLIC	??_7i3XMLElement@@6B@				; i3XMLElement::`vftable'
PUBLIC	??_7i3List@@6B@					; i3List::`vftable'
PUBLIC	??_C@_0GD@LNMGNFKI@E?3?2Proyectos?2JuegosOnlineproyec@ ; `string'
PUBLIC	??_7i3StringList@@6B@				; i3StringList::`vftable'
PUBLIC	??_7i3IniParser@@6B@				; i3IniParser::`vftable'
PUBLIC	??_7i3LineLexer@@6B@				; i3LineLexer::`vftable'
PUBLIC	??_7i3SimpleLineLexer@@6B@			; i3SimpleLineLexer::`vftable'
PUBLIC	??_7i3Timer@@6B@				; i3Timer::`vftable'
PUBLIC	??_C@_0DB@ONEFMAII@int?5__thiscall?5i3IniParser?3?3Cre@ ; `string'
PUBLIC	??_C@_0GG@LIGOM@E?3?2Proyectos?2JuegosOnlineproyec@ ; `string'
PUBLIC	??_C@_0BI@GMCEFIID@Could?5not?5create?5file?4?6@ ; `string'
PUBLIC	??_C@_0DL@CHHOFFHM@int?5__thiscall?5i3IniParser?3?3Ope@ ; `string'
PUBLIC	??_C@_0BG@MILPOODI@Could?5not?5open?5file?4?6@	; `string'
PUBLIC	??_C@_0DL@KGJFMIKH@int?5__thiscall?5i3IniParser?3?3Ope@ ; `string'
PUBLIC	??_C@_0BH@POMKDHLO@Section?5name?5is?5NULL?4?6@	; `string'
PUBLIC	??_C@_0BM@BLONCBOG@Section?5name?5is?5duplicated?6@ ; `string'
PUBLIC	??_C@_0EJ@KOPGLENC@int?5__thiscall?5i3IniParser?3?3Rea@ ; `string'
PUBLIC	??_C@_0BE@DLJIIAFH@m_pStream?5is?5NULL?4?6@	; `string'
PUBLIC	??_C@_0BA@JEIBDMBE@pInfo?5is?5NULL?4?6@		; `string'
PUBLIC	??_C@_0BP@CCBDLFBK@i3IniParser?3?3ReadSectionByInfo@ ; `string'
PUBLIC	??_C@_0BN@IFIOBCJG@ERROR?5?3?5?$FL?$CFs?$FN?5pInfo?5is?5NULL?4?6@ ; `string'
PUBLIC	??_C@_0L@LMGNLEPG@Config?4ini@			; `string'
PUBLIC	??_C@_0DG@CIBHBENN@ERROR?3?5?$FLReadSectionByInfo?$FN?5Sect@ ; `string'
PUBLIC	??_C@_0BK@JNFPJABN@szLabel?5name?5is?5too?5long?6@ ; `string'
PUBLIC	??_C@_0CD@CHADIGIF@szLabel?5value?5string?5is?5too?5lon@ ; `string'
PUBLIC	??_C@_0EB@LPNLFBLF@const?5char?5?$CK__thiscall?5i3IniPar@ ; `string'
PUBLIC	??_C@_0BM@BCLBIDHM@Value?5Table?5is?5not?5exist?4?5?6@ ; `string'
PUBLIC	??_C@_0DO@IJEJHCOG@int?5__thiscall?5i3IniParser?3?3Get@ ; `string'
PUBLIC	??_C@_0BL@IJNEAJGP@Value?5Table?5is?5not?5exist?4?6@ ; `string'
PUBLIC	??_C@_0BG@NIGHIBJ@nBufLength?5is?5zero?4?5?6@	; `string'
PUBLIC	??_C@_0BL@OBHDNFFG@nBufLength?5is?5too?5short?4?5?6@ ; `string'
PUBLIC	??_C@_01GAPBHFFA@T@				; `string'
PUBLIC	??_C@_01NFFPALBN@Y@				; `string'
PUBLIC	??_C@_01BIAFAFID@F@				; `string'
PUBLIC	??_C@_01NANMIPIL@N@				; `string'
PUBLIC	??_C@_04LLEBNMDN@?$CFs?$AN?6@			; `string'
PUBLIC	??_C@_09MJNNNHCA@?$CFs?5?$DN?5?$CFs?$AN?6@	; `string'
PUBLIC	??_C@_04LIFAFMCE@?$FL?$CFs?$FN@			; `string'
PUBLIC	??_C@_04HPMIDMKH@True@				; `string'
PUBLIC	??_C@_05MKDOIIA@False@				; `string'
PUBLIC	??_C@_02DKCKIIND@?$CFs@				; `string'
PUBLIC	??_C@_04OEDFLLKD@?$CC?$CFs?$CC@			; `string'
PUBLIC	??_C@_02DPKJAMEF@?$CFd@				; `string'
PUBLIC	??_C@_02NJPGOMH@?$CFf@				; `string'
PUBLIC	??_C@_03DLDNIBIK@?$CFlf@			; `string'
PUBLIC	??_R4i3ElementBase@@6B@				; i3ElementBase::`RTTI Complete Object Locator'
PUBLIC	??_R0?AVi3ElementBase@@@8			; i3ElementBase `RTTI Type Descriptor'
PUBLIC	??_R3i3ElementBase@@8				; i3ElementBase::`RTTI Class Hierarchy Descriptor'
PUBLIC	??_R2i3ElementBase@@8				; i3ElementBase::`RTTI Base Class Array'
PUBLIC	??_R1A@?0A@EA@i3ElementBase@@8			; i3ElementBase::`RTTI Base Class Descriptor at (0,-1,0,64)'
PUBLIC	??_R4i3List@@6B@				; i3List::`RTTI Complete Object Locator'
PUBLIC	??_R0?AVi3List@@@8				; i3List `RTTI Type Descriptor'
PUBLIC	??_R3i3List@@8					; i3List::`RTTI Class Hierarchy Descriptor'
PUBLIC	??_R2i3List@@8					; i3List::`RTTI Base Class Array'
PUBLIC	??_R1A@?0A@EA@i3List@@8				; i3List::`RTTI Base Class Descriptor at (0,-1,0,64)'
PUBLIC	??_R4i3MemoryPool@@6B@				; i3MemoryPool::`RTTI Complete Object Locator'
PUBLIC	??_R0?AVi3MemoryPool@@@8			; i3MemoryPool `RTTI Type Descriptor'
PUBLIC	??_R3i3MemoryPool@@8				; i3MemoryPool::`RTTI Class Hierarchy Descriptor'
PUBLIC	??_R2i3MemoryPool@@8				; i3MemoryPool::`RTTI Base Class Array'
PUBLIC	??_R1A@?0A@EA@i3MemoryPool@@8			; i3MemoryPool::`RTTI Base Class Descriptor at (0,-1,0,64)'
PUBLIC	??_R4i3ClassMeta@@6B@				; i3ClassMeta::`RTTI Complete Object Locator'
PUBLIC	??_R4i3StringList@@6B@				; i3StringList::`RTTI Complete Object Locator'
PUBLIC	??_R0?AVi3StringList@@@8			; i3StringList `RTTI Type Descriptor'
PUBLIC	??_R3i3StringList@@8				; i3StringList::`RTTI Class Hierarchy Descriptor'
PUBLIC	??_R2i3StringList@@8				; i3StringList::`RTTI Base Class Array'
PUBLIC	??_R1A@?0A@EA@i3StringList@@8			; i3StringList::`RTTI Base Class Descriptor at (0,-1,0,64)'
PUBLIC	??_R4i3Stream@@6B@				; i3Stream::`RTTI Complete Object Locator'
PUBLIC	??_R0?AVi3Stream@@@8				; i3Stream `RTTI Type Descriptor'
PUBLIC	??_R3i3Stream@@8				; i3Stream::`RTTI Class Hierarchy Descriptor'
PUBLIC	??_R2i3Stream@@8				; i3Stream::`RTTI Base Class Array'
PUBLIC	??_R1A@?0A@EA@i3Stream@@8			; i3Stream::`RTTI Base Class Descriptor at (0,-1,0,64)'
PUBLIC	??_R4i3FileStream@@6B@				; i3FileStream::`RTTI Complete Object Locator'
PUBLIC	??_R0?AVi3FileStream@@@8			; i3FileStream `RTTI Type Descriptor'
PUBLIC	??_R3i3FileStream@@8				; i3FileStream::`RTTI Class Hierarchy Descriptor'
PUBLIC	??_R2i3FileStream@@8				; i3FileStream::`RTTI Base Class Array'
PUBLIC	??_R1A@?0A@EA@i3FileStream@@8			; i3FileStream::`RTTI Base Class Descriptor at (0,-1,0,64)'
PUBLIC	??_R4TiXmlDocument@@6B@				; TiXmlDocument::`RTTI Complete Object Locator'
PUBLIC	??_R0?AVTiXmlDocument@@@8			; TiXmlDocument `RTTI Type Descriptor'
PUBLIC	??_R3TiXmlDocument@@8				; TiXmlDocument::`RTTI Class Hierarchy Descriptor'
PUBLIC	??_R2TiXmlDocument@@8				; TiXmlDocument::`RTTI Base Class Array'
PUBLIC	??_R1A@?0A@EA@TiXmlDocument@@8			; TiXmlDocument::`RTTI Base Class Descriptor at (0,-1,0,64)'
PUBLIC	??_R1A@?0A@EA@TiXmlNode@@8			; TiXmlNode::`RTTI Base Class Descriptor at (0,-1,0,64)'
PUBLIC	??_R0?AVTiXmlNode@@@8				; TiXmlNode `RTTI Type Descriptor'
PUBLIC	??_R3TiXmlNode@@8				; TiXmlNode::`RTTI Class Hierarchy Descriptor'
PUBLIC	??_R2TiXmlNode@@8				; TiXmlNode::`RTTI Base Class Array'
PUBLIC	??_R1A@?0A@EA@TiXmlBase@@8			; TiXmlBase::`RTTI Base Class Descriptor at (0,-1,0,64)'
PUBLIC	??_R0?AVTiXmlBase@@@8				; TiXmlBase `RTTI Type Descriptor'
PUBLIC	??_R3TiXmlBase@@8				; TiXmlBase::`RTTI Class Hierarchy Descriptor'
PUBLIC	??_R2TiXmlBase@@8				; TiXmlBase::`RTTI Base Class Array'
PUBLIC	??_R4TiXmlComment@@6B@				; TiXmlComment::`RTTI Complete Object Locator'
PUBLIC	??_R0?AVTiXmlComment@@@8			; TiXmlComment `RTTI Type Descriptor'
PUBLIC	??_R3TiXmlComment@@8				; TiXmlComment::`RTTI Class Hierarchy Descriptor'
PUBLIC	??_R2TiXmlComment@@8				; TiXmlComment::`RTTI Base Class Array'
PUBLIC	??_R1A@?0A@EA@TiXmlComment@@8			; TiXmlComment::`RTTI Base Class Descriptor at (0,-1,0,64)'
PUBLIC	??_R4TiXmlUnknown@@6B@				; TiXmlUnknown::`RTTI Complete Object Locator'
PUBLIC	??_R0?AVTiXmlUnknown@@@8			; TiXmlUnknown `RTTI Type Descriptor'
PUBLIC	??_R3TiXmlUnknown@@8				; TiXmlUnknown::`RTTI Class Hierarchy Descriptor'
PUBLIC	??_R2TiXmlUnknown@@8				; TiXmlUnknown::`RTTI Base Class Array'
PUBLIC	??_R1A@?0A@EA@TiXmlUnknown@@8			; TiXmlUnknown::`RTTI Base Class Descriptor at (0,-1,0,64)'
PUBLIC	??_R4TiXmlAttribute@@6B@			; TiXmlAttribute::`RTTI Complete Object Locator'
PUBLIC	??_R0?AVTiXmlAttribute@@@8			; TiXmlAttribute `RTTI Type Descriptor'
PUBLIC	??_R3TiXmlAttribute@@8				; TiXmlAttribute::`RTTI Class Hierarchy Descriptor'
PUBLIC	??_R2TiXmlAttribute@@8				; TiXmlAttribute::`RTTI Base Class Array'
PUBLIC	??_R1A@?0A@EA@TiXmlAttribute@@8			; TiXmlAttribute::`RTTI Base Class Descriptor at (0,-1,0,64)'
PUBLIC	??_R4TiXmlText@@6B@				; TiXmlText::`RTTI Complete Object Locator'
PUBLIC	??_R0?AVTiXmlText@@@8				; TiXmlText `RTTI Type Descriptor'
PUBLIC	??_R3TiXmlText@@8				; TiXmlText::`RTTI Class Hierarchy Descriptor'
PUBLIC	??_R2TiXmlText@@8				; TiXmlText::`RTTI Base Class Array'
PUBLIC	??_R1A@?0A@EA@TiXmlText@@8			; TiXmlText::`RTTI Base Class Descriptor at (0,-1,0,64)'
PUBLIC	??_R4TiXmlDeclaration@@6B@			; TiXmlDeclaration::`RTTI Complete Object Locator'
PUBLIC	??_R0?AVTiXmlDeclaration@@@8			; TiXmlDeclaration `RTTI Type Descriptor'
PUBLIC	??_R3TiXmlDeclaration@@8			; TiXmlDeclaration::`RTTI Class Hierarchy Descriptor'
PUBLIC	??_R2TiXmlDeclaration@@8			; TiXmlDeclaration::`RTTI Base Class Array'
PUBLIC	??_R1A@?0A@EA@TiXmlDeclaration@@8		; TiXmlDeclaration::`RTTI Base Class Descriptor at (0,-1,0,64)'
PUBLIC	??_R4TiXmlVisitor@@6B@				; TiXmlVisitor::`RTTI Complete Object Locator'
PUBLIC	??_R0?AVTiXmlVisitor@@@8			; TiXmlVisitor `RTTI Type Descriptor'
PUBLIC	??_R3TiXmlVisitor@@8				; TiXmlVisitor::`RTTI Class Hierarchy Descriptor'
PUBLIC	??_R2TiXmlVisitor@@8				; TiXmlVisitor::`RTTI Base Class Array'
PUBLIC	??_R1A@?0A@EA@TiXmlVisitor@@8			; TiXmlVisitor::`RTTI Base Class Descriptor at (0,-1,0,64)'
PUBLIC	??_R4TiXmlBase@@6B@				; TiXmlBase::`RTTI Complete Object Locator'
PUBLIC	??_R4TiXmlPrinter@@6B@				; TiXmlPrinter::`RTTI Complete Object Locator'
PUBLIC	??_R0?AVTiXmlPrinter@@@8			; TiXmlPrinter `RTTI Type Descriptor'
PUBLIC	??_R3TiXmlPrinter@@8				; TiXmlPrinter::`RTTI Class Hierarchy Descriptor'
PUBLIC	??_R2TiXmlPrinter@@8				; TiXmlPrinter::`RTTI Base Class Array'
PUBLIC	??_R1A@?0A@EA@TiXmlPrinter@@8			; TiXmlPrinter::`RTTI Base Class Descriptor at (0,-1,0,64)'
PUBLIC	??_R4i3XMLElement@@6B@				; i3XMLElement::`RTTI Complete Object Locator'
PUBLIC	??_R0?AVi3XMLElement@@@8			; i3XMLElement `RTTI Type Descriptor'
PUBLIC	??_R3i3XMLElement@@8				; i3XMLElement::`RTTI Class Hierarchy Descriptor'
PUBLIC	??_R2i3XMLElement@@8				; i3XMLElement::`RTTI Base Class Array'
PUBLIC	??_R1A@?0A@EA@i3XMLElement@@8			; i3XMLElement::`RTTI Base Class Descriptor at (0,-1,0,64)'
PUBLIC	??_R1A@?0A@EA@TiXmlElement@@8			; TiXmlElement::`RTTI Base Class Descriptor at (0,-1,0,64)'
PUBLIC	??_R0?AVTiXmlElement@@@8			; TiXmlElement `RTTI Type Descriptor'
PUBLIC	??_R3TiXmlElement@@8				; TiXmlElement::`RTTI Class Hierarchy Descriptor'
PUBLIC	??_R2TiXmlElement@@8				; TiXmlElement::`RTTI Base Class Array'
PUBLIC	??_R4i3IniParser@@6B@				; i3IniParser::`RTTI Complete Object Locator'
PUBLIC	??_R0?AVi3IniParser@@@8				; i3IniParser `RTTI Type Descriptor'
PUBLIC	??_R3i3IniParser@@8				; i3IniParser::`RTTI Class Hierarchy Descriptor'
PUBLIC	??_R2i3IniParser@@8				; i3IniParser::`RTTI Base Class Array'
PUBLIC	??_R1A@?0A@EA@i3IniParser@@8			; i3IniParser::`RTTI Base Class Descriptor at (0,-1,0,64)'
PUBLIC	??_R4i3LineLexer@@6B@				; i3LineLexer::`RTTI Complete Object Locator'
PUBLIC	??_R0?AVi3LineLexer@@@8				; i3LineLexer `RTTI Type Descriptor'
PUBLIC	??_R3i3LineLexer@@8				; i3LineLexer::`RTTI Class Hierarchy Descriptor'
PUBLIC	??_R2i3LineLexer@@8				; i3LineLexer::`RTTI Base Class Array'
PUBLIC	??_R1A@?0A@EA@i3LineLexer@@8			; i3LineLexer::`RTTI Base Class Descriptor at (0,-1,0,64)'
PUBLIC	??_R4i3SimpleLineLexer@@6B@			; i3SimpleLineLexer::`RTTI Complete Object Locator'
PUBLIC	??_R0?AVi3SimpleLineLexer@@@8			; i3SimpleLineLexer `RTTI Type Descriptor'
PUBLIC	??_R3i3SimpleLineLexer@@8			; i3SimpleLineLexer::`RTTI Class Hierarchy Descriptor'
PUBLIC	??_R2i3SimpleLineLexer@@8			; i3SimpleLineLexer::`RTTI Base Class Array'
PUBLIC	??_R1A@?0A@EA@i3SimpleLineLexer@@8		; i3SimpleLineLexer::`RTTI Base Class Descriptor at (0,-1,0,64)'
PUBLIC	??_R4i3Timer@@6B@				; i3Timer::`RTTI Complete Object Locator'
PUBLIC	??_R0?AVi3Timer@@@8				; i3Timer `RTTI Type Descriptor'
PUBLIC	??_R3i3Timer@@8					; i3Timer::`RTTI Class Hierarchy Descriptor'
PUBLIC	??_R2i3Timer@@8					; i3Timer::`RTTI Base Class Array'
PUBLIC	??_R1A@?0A@EA@i3Timer@@8			; i3Timer::`RTTI Base Class Descriptor at (0,-1,0,64)'
EXTRN	??_M@YGXPAXIIP6EX0@Z@Z:PROC			; `eh vector destructor iterator'
EXTRN	__purecall:PROC
EXTRN	??3@YAXPAX@Z:PROC				; operator delete
EXTRN	??3@YAXPAXI@Z:PROC				; operator delete
EXTRN	??_U@YAPAXI@Z:PROC				; operator new[]
EXTRN	??_V@YAXPAX@Z:PROC				; operator delete[]
EXTRN	??_V@YAXPAXI@Z:PROC				; operator delete[]
EXTRN	_atexit:PROC
EXTRN	___report_rangecheckfailure:PROC
EXTRN	___std_terminate:PROC
EXTRN	_isspace:PROC
EXTRN	_tolower:PROC
EXTRN	_strchr:PROC
EXTRN	__imp__WideCharToMultiByte@32:PROC
EXTRN	___stdio_common_vsprintf:PROC
EXTRN	_atof:PROC
EXTRN	__splitpath:PROC
EXTRN	?SetEnv@i3Error@@YAXPBDH0W4I3LOG_TYPE@@@Z:PROC	; i3Error::SetEnv
EXTRN	?Log@i3Error@@YAXPBDZZ:PROC			; i3Error::Log
EXTRN	?AllocTool@i3mem@@YAPAXHHHPBDH@Z:PROC		; i3mem::AllocTool
EXTRN	?FreeTool@i3mem@@YAXPAXPBDH@Z:PROC		; i3mem::FreeTool
EXTRN	??0i3ClassMeta@@QAE@IPAD0W4I3_CLASSMETA_TYPE@@@Z:PROC ; i3ClassMeta::i3ClassMeta
EXTRN	??1i3ClassMeta@@UAE@XZ:PROC			; i3ClassMeta::~i3ClassMeta
EXTRN	?CreateInstance@i3ClassMeta@@UAEPAVi3ElementBase@@W4I3_CLASSMETA_TYPE@@@Z:PROC ; i3ClassMeta::CreateInstance
EXTRN	?BindInstance@i3ClassMeta@@UAEPAVi3ElementBase@@PAXW4I3_CLASSMETA_TYPE@@@Z:PROC ; i3ClassMeta::BindInstance
EXTRN	?IsTypeOf@i3ClassMeta@@QAE_NPAV1@@Z:PROC	; i3ClassMeta::IsTypeOf
EXTRN	?Register@i3ClassMeta@@QAEXXZ:PROC		; i3ClassMeta::Register
EXTRN	?GetConcreteClass@i3ClassMeta@@QAEPAV1@W4I3_CLASSMETA_TYPE@@@Z:PROC ; i3ClassMeta::GetConcreteClass
EXTRN	?SetConcreteClass@i3ClassMeta@@QAEXPAV1@@Z:PROC	; i3ClassMeta::SetConcreteClass
EXTRN	?SetGhostClass@i3ClassMeta@@QAEXPAV1@@Z:PROC	; i3ClassMeta::SetGhostClass
EXTRN	?GetMeta@i3ElementBase@@UAEPAVi3ClassMeta@@XZ:PROC ; i3ElementBase::GetMeta
EXTRN	??0i3ElementBase@@QAE@XZ:PROC			; i3ElementBase::i3ElementBase
EXTRN	??1i3ElementBase@@UAE@XZ:PROC			; i3ElementBase::~i3ElementBase
EXTRN	??2i3ElementBase@@SAPAXI@Z:PROC			; i3ElementBase::operator new
EXTRN	??2i3ElementBase@@SAPAXIPAX@Z:PROC		; i3ElementBase::operator new
EXTRN	??3i3ElementBase@@SAXPAX@Z:PROC			; i3ElementBase::operator delete
EXTRN	??3i3ElementBase@@SAXPAX0@Z:PROC		; i3ElementBase::operator delete
EXTRN	?Release@i3ElementBase@@QAEXXZ:PROC		; i3ElementBase::Release
EXTRN	?CopyTo@i3ElementBase@@UAEXPAV1@W4I3_COPY_METHOD@@@Z:PROC ; i3ElementBase::CopyTo
EXTRN	??1i3MemoryPool@@UAE@XZ:PROC			; i3MemoryPool::~i3MemoryPool
EXTRN	?GetMeta@i3Stream@@UAEPAVi3ClassMeta@@XZ:PROC	; i3Stream::GetMeta
EXTRN	??1i3Stream@@UAE@XZ:PROC			; i3Stream::~i3Stream
EXTRN	?CopyTo@i3Stream@@UAEIPAV1@I@Z:PROC		; i3Stream::CopyTo
EXTRN	?CopyFrom@i3Stream@@UAEIPAV1@I@Z:PROC		; i3Stream::CopyFrom
EXTRN	?ReadLine@i3Stream@@UAEIPADH@Z:PROC		; i3Stream::ReadLine
EXTRN	?ReadLineW@i3Stream@@UAEIPAGH@Z:PROC		; i3Stream::ReadLineW
EXTRN	?WriteLine@i3Stream@@UAEIPBD@Z:PROC		; i3Stream::WriteLine
EXTRN	?WriteLineW@i3Stream@@UAEIPBG@Z:PROC		; i3Stream::WriteLineW
EXTRN	?Printf@i3Stream@@UAAIPADPBDZZ:PROC		; i3Stream::Printf
EXTRN	?GetMeta@i3FileStream@@UAEPAVi3ClassMeta@@XZ:PROC ; i3FileStream::GetMeta
EXTRN	?_NewObject@i3FileStream@@SAPAV1@XZ:PROC	; i3FileStream::_NewObject
EXTRN	??1i3FileStream@@UAE@XZ:PROC			; i3FileStream::~i3FileStream
EXTRN	?Create@i3FileStream@@UAEHPBDHI@Z:PROC		; i3FileStream::Create
EXTRN	?Open@i3FileStream@@UAEHPBDHI@Z:PROC		; i3FileStream::Open
EXTRN	?Close@i3FileStream@@UAEHXZ:PROC		; i3FileStream::Close
EXTRN	?Read@i3FileStream@@UAEIPAXH@Z:PROC		; i3FileStream::Read
EXTRN	?Write@i3FileStream@@UAEIPBXH@Z:PROC		; i3FileStream::Write
EXTRN	?SetPosition@i3FileStream@@UAEIHH@Z:PROC	; i3FileStream::SetPosition
EXTRN	?GetPosition@i3FileStream@@UAEIXZ:PROC		; i3FileStream::GetPosition
EXTRN	?assign@TiXmlString@@QAEAAV1@PBDI@Z:PROC	; TiXmlString::assign
EXTRN	?append@TiXmlString@@QAEAAV1@PBDI@Z:PROC	; TiXmlString::append
EXTRN	?GetEntity@TiXmlBase@@KAPBDPBDPADPAHW4TiXmlEncoding@@@Z:PROC ; TiXmlBase::GetEntity
EXTRN	??1TiXmlNode@@UAE@XZ:PROC			; TiXmlNode::~TiXmlNode
EXTRN	?FirstChild@TiXmlNode@@QBEPBV1@PBD@Z:PROC	; TiXmlNode::FirstChild
EXTRN	?LastChild@TiXmlNode@@QBEPBV1@PBD@Z:PROC	; TiXmlNode::LastChild
EXTRN	?IterateChildren@TiXmlNode@@QBEPBV1@PBV1@@Z:PROC ; TiXmlNode::IterateChildren
EXTRN	?IterateChildren@TiXmlNode@@QBEPBV1@PBDPBV1@@Z:PROC ; TiXmlNode::IterateChildren
EXTRN	?PreviousSibling@TiXmlNode@@QBEPBV1@PBD@Z:PROC	; TiXmlNode::PreviousSibling
EXTRN	?NextSibling@TiXmlNode@@QBEPBV1@PBD@Z:PROC	; TiXmlNode::NextSibling
EXTRN	?NextSiblingElement@TiXmlNode@@QBEPBVTiXmlElement@@XZ:PROC ; TiXmlNode::NextSiblingElement
EXTRN	?NextSiblingElement@TiXmlNode@@QBEPBVTiXmlElement@@PBD@Z:PROC ; TiXmlNode::NextSiblingElement
EXTRN	?FirstChildElement@TiXmlNode@@QBEPBVTiXmlElement@@XZ:PROC ; TiXmlNode::FirstChildElement
EXTRN	?FirstChildElement@TiXmlNode@@QBEPBVTiXmlElement@@PBD@Z:PROC ; TiXmlNode::FirstChildElement
EXTRN	?GetDocument@TiXmlNode@@QBEPBVTiXmlDocument@@XZ:PROC ; TiXmlNode::GetDocument
EXTRN	??0TiXmlNode@@IAE@W4NodeType@0@@Z:PROC		; TiXmlNode::TiXmlNode
EXTRN	?Next@TiXmlAttribute@@QBEPBV1@XZ:PROC		; TiXmlAttribute::Next
EXTRN	?Previous@TiXmlAttribute@@QBEPBV1@XZ:PROC	; TiXmlAttribute::Previous
EXTRN	?Parse@TiXmlAttribute@@UAEPBDPBDPAVTiXmlParsingData@@W4TiXmlEncoding@@@Z:PROC ; TiXmlAttribute::Parse
EXTRN	?Print@TiXmlAttribute@@QBEXPAVi3FileStream@@HPAVTiXmlString@@@Z:PROC ; TiXmlAttribute::Print
EXTRN	?Find@TiXmlAttributeSet@@QBEPBVTiXmlAttribute@@PBD@Z:PROC ; TiXmlAttributeSet::Find
EXTRN	??0TiXmlElement@@QAE@ABV0@@Z:PROC		; TiXmlElement::TiXmlElement
EXTRN	??4TiXmlElement@@QAEXABV0@@Z:PROC		; TiXmlElement::operator=
EXTRN	?Attribute@TiXmlElement@@QBEPBDPBD@Z:PROC	; TiXmlElement::Attribute
EXTRN	?Attribute@TiXmlElement@@QBEPBDPBDPAH@Z:PROC	; TiXmlElement::Attribute
EXTRN	?AttributeLong@TiXmlElement@@QBEPBDPBDPA_J@Z:PROC ; TiXmlElement::AttributeLong
EXTRN	?Attribute@TiXmlElement@@QBEPBDPBDPAN@Z:PROC	; TiXmlElement::Attribute
EXTRN	?QueryDoubleAttribute@TiXmlElement@@QBEHPBDPAN@Z:PROC ; TiXmlElement::QueryDoubleAttribute
EXTRN	?SetAttribute@TiXmlElement@@QAEXPBD0@Z:PROC	; TiXmlElement::SetAttribute
EXTRN	?SetAttribute@TiXmlElement@@QAEXPBDH@Z:PROC	; TiXmlElement::SetAttribute
EXTRN	?SetLongLongAttribute@TiXmlElement@@QAEXPBD_J@Z:PROC ; TiXmlElement::SetLongLongAttribute
EXTRN	?SetAttribute@TiXmlElement@@QAEXPBDM@Z:PROC	; TiXmlElement::SetAttribute
EXTRN	?Clone@TiXmlElement@@UBEPAVTiXmlNode@@XZ:PROC	; TiXmlElement::Clone
EXTRN	?Print@TiXmlElement@@UBEXPAVi3FileStream@@H@Z:PROC ; TiXmlElement::Print
EXTRN	?Parse@TiXmlElement@@UAEPBDPBDPAVTiXmlParsingData@@W4TiXmlEncoding@@@Z:PROC ; TiXmlElement::Parse
EXTRN	?Accept@TiXmlElement@@UBE_NPAVTiXmlVisitor@@@Z:PROC ; TiXmlElement::Accept
EXTRN	?Clone@TiXmlComment@@UBEPAVTiXmlNode@@XZ:PROC	; TiXmlComment::Clone
EXTRN	?Print@TiXmlComment@@UBEXPAVi3FileStream@@H@Z:PROC ; TiXmlComment::Print
EXTRN	?Parse@TiXmlComment@@UAEPBDPBDPAVTiXmlParsingData@@W4TiXmlEncoding@@@Z:PROC ; TiXmlComment::Parse
EXTRN	?Accept@TiXmlComment@@UBE_NPAVTiXmlVisitor@@@Z:PROC ; TiXmlComment::Accept
EXTRN	?Print@TiXmlText@@UBEXPAVi3FileStream@@H@Z:PROC	; TiXmlText::Print
EXTRN	?Parse@TiXmlText@@UAEPBDPBDPAVTiXmlParsingData@@W4TiXmlEncoding@@@Z:PROC ; TiXmlText::Parse
EXTRN	?Accept@TiXmlText@@UBE_NPAVTiXmlVisitor@@@Z:PROC ; TiXmlText::Accept
EXTRN	?Clone@TiXmlText@@MBEPAVTiXmlNode@@XZ:PROC	; TiXmlText::Clone
EXTRN	?CopyTo@TiXmlText@@IBEXPAV1@@Z:PROC		; TiXmlText::CopyTo
EXTRN	?Clone@TiXmlDeclaration@@UBEPAVTiXmlNode@@XZ:PROC ; TiXmlDeclaration::Clone
EXTRN	?Print@TiXmlDeclaration@@UBEXPAVi3FileStream@@HPAVTiXmlString@@@Z:PROC ; TiXmlDeclaration::Print
EXTRN	?Parse@TiXmlDeclaration@@UAEPBDPBDPAVTiXmlParsingData@@W4TiXmlEncoding@@@Z:PROC ; TiXmlDeclaration::Parse
EXTRN	?Accept@TiXmlDeclaration@@UBE_NPAVTiXmlVisitor@@@Z:PROC ; TiXmlDeclaration::Accept
EXTRN	?Clone@TiXmlUnknown@@UBEPAVTiXmlNode@@XZ:PROC	; TiXmlUnknown::Clone
EXTRN	?Print@TiXmlUnknown@@UBEXPAVi3FileStream@@H@Z:PROC ; TiXmlUnknown::Print
EXTRN	?Parse@TiXmlUnknown@@UAEPBDPBDPAVTiXmlParsingData@@W4TiXmlEncoding@@@Z:PROC ; TiXmlUnknown::Parse
EXTRN	?Accept@TiXmlUnknown@@UBE_NPAVTiXmlVisitor@@@Z:PROC ; TiXmlUnknown::Accept
EXTRN	?CopyTo@TiXmlUnknown@@IBEXPAV1@@Z:PROC		; TiXmlUnknown::CopyTo
EXTRN	?Parse@TiXmlDocument@@UAEPBDPBDPAVTiXmlParsingData@@W4TiXmlEncoding@@@Z:PROC ; TiXmlDocument::Parse
EXTRN	?Print@TiXmlDocument@@UBEXPAVi3FileStream@@H@Z:PROC ; TiXmlDocument::Print
EXTRN	?Accept@TiXmlDocument@@UBE_NPAVTiXmlVisitor@@@Z:PROC ; TiXmlDocument::Accept
EXTRN	?Clone@TiXmlDocument@@MBEPAVTiXmlNode@@XZ:PROC	; TiXmlDocument::Clone
EXTRN	?VisitEnter@TiXmlPrinter@@UAE_NABVTiXmlDocument@@@Z:PROC ; TiXmlPrinter::VisitEnter
EXTRN	?VisitExit@TiXmlPrinter@@UAE_NABVTiXmlDocument@@@Z:PROC ; TiXmlPrinter::VisitExit
EXTRN	?VisitEnter@TiXmlPrinter@@UAE_NABVTiXmlElement@@PBVTiXmlAttribute@@@Z:PROC ; TiXmlPrinter::VisitEnter
EXTRN	?VisitExit@TiXmlPrinter@@UAE_NABVTiXmlElement@@@Z:PROC ; TiXmlPrinter::VisitExit
EXTRN	?Visit@TiXmlPrinter@@UAE_NABVTiXmlDeclaration@@@Z:PROC ; TiXmlPrinter::Visit
EXTRN	?Visit@TiXmlPrinter@@UAE_NABVTiXmlText@@@Z:PROC	; TiXmlPrinter::Visit
EXTRN	?Visit@TiXmlPrinter@@UAE_NABVTiXmlComment@@@Z:PROC ; TiXmlPrinter::Visit
EXTRN	?Visit@TiXmlPrinter@@UAE_NABVTiXmlUnknown@@@Z:PROC ; TiXmlPrinter::Visit
EXTRN	??1i3XMLElement@@UAE@XZ:PROC			; i3XMLElement::~i3XMLElement
EXTRN	?GetMeta@i3List@@UAEPAVi3ClassMeta@@XZ:PROC	; i3List::GetMeta
EXTRN	?_NewObject@i3List@@SAPAV1@XZ:PROC		; i3List::_NewObject
EXTRN	??0i3List@@QAE@H@Z:PROC				; i3List::i3List
EXTRN	??1i3List@@UAE@XZ:PROC				; i3List::~i3List
EXTRN	?IndexOf@i3List@@UBEHPBX@Z:PROC			; i3List::IndexOf
EXTRN	?Add@i3List@@UAEHPAX@Z:PROC			; i3List::Add
EXTRN	?Insert@i3List@@UAEHHPAX@Z:PROC			; i3List::Insert
EXTRN	?Delete@i3List@@UAEHH@Z:PROC			; i3List::Delete
EXTRN	?Remove@i3List@@UAEHPAX@Z:PROC			; i3List::Remove
EXTRN	?Clear@i3List@@UAEXH@Z:PROC			; i3List::Clear
EXTRN	?GetMeta@i3StringList@@UAEPAVi3ClassMeta@@XZ:PROC ; i3StringList::GetMeta
EXTRN	??0i3StringList@@QAE@H@Z:PROC			; i3StringList::i3StringList
EXTRN	??1i3StringList@@UAE@XZ:PROC			; i3StringList::~i3StringList
EXTRN	?IndexOf@i3StringList@@UBEHPAD@Z:PROC		; i3StringList::IndexOf
EXTRN	?Add@i3StringList@@UAEHPADH@Z:PROC		; i3StringList::Add
EXTRN	?Insert@i3StringList@@UAEHHPADH@Z:PROC		; i3StringList::Insert
EXTRN	?Delete@i3StringList@@UAEHH@Z:PROC		; i3StringList::Delete
EXTRN	?Remove@i3StringList@@UAEHPAD@Z:PROC		; i3StringList::Remove
EXTRN	?Clear@i3StringList@@UAEXXZ:PROC		; i3StringList::Clear
EXTRN	?Compare@i3String@@YAHPBD0@Z:PROC		; i3String::Compare
EXTRN	?NCompare@i3String@@YAHPBD0H@Z:PROC		; i3String::NCompare
EXTRN	?Copy@i3String@@YAXPADPBDH@Z:PROC		; i3String::Copy
EXTRN	?Length@i3String@@YAHPBD@Z:PROC			; i3String::Length
EXTRN	?Length@i3String@@YAHPBG@Z:PROC			; i3String::Length
EXTRN	?Concat@i3String@@YAXPADPBD@Z:PROC		; i3String::Concat
EXTRN	?ToInt@i3String@@YAHPBD@Z:PROC			; i3String::ToInt
EXTRN	?GetMeta@i3LineLexer@@UAEPAVi3ClassMeta@@XZ:PROC ; i3LineLexer::GetMeta
EXTRN	??1i3LineLexer@@UAE@XZ:PROC			; i3LineLexer::~i3LineLexer
EXTRN	?GetMeta@i3SimpleLineLexer@@UAEPAVi3ClassMeta@@XZ:PROC ; i3SimpleLineLexer::GetMeta
EXTRN	??0i3SimpleLineLexer@@QAE@XZ:PROC		; i3SimpleLineLexer::i3SimpleLineLexer
EXTRN	??1i3SimpleLineLexer@@UAE@XZ:PROC		; i3SimpleLineLexer::~i3SimpleLineLexer
EXTRN	?GetValuesFromString@i3SimpleLineLexer@@QAEHPAHHHPAD@Z:PROC ; i3SimpleLineLexer::GetValuesFromString
EXTRN	?GetValuesFromString@i3SimpleLineLexer@@QAEHPAMHHPAD@Z:PROC ; i3SimpleLineLexer::GetValuesFromString
EXTRN	?GetMeta@i3Timer@@UAEPAVi3ClassMeta@@XZ:PROC	; i3Timer::GetMeta
EXTRN	??1i3Timer@@UAE@XZ:PROC				; i3Timer::~i3Timer
EXTRN	?GetCurrentCodePage@i3Language@@YAIXZ:PROC	; i3Language::GetCurrentCodePage
EXTRN	@__security_check_cookie@4:PROC
EXTRN	___CxxFrameHandler3:PROC
EXTRN	_memcpy:PROC
EXTRN	_memset:PROC
EXTRN	?s_pClassMetai3ElementBase@i3ElementBase@@2PAVi3ClassMeta@@A:DWORD ; i3ElementBase::s_pClassMetai3ElementBase
EXTRN	?s_pClassMetai3Stream@i3Stream@@2PAVi3ClassMeta@@A:DWORD ; i3Stream::s_pClassMetai3Stream
EXTRN	?s_pClassMetai3FileStream@i3FileStream@@2PAVi3ClassMeta@@A:DWORD ; i3FileStream::s_pClassMetai3FileStream
EXTRN	?m_bCaseSensitive@i3FileStream@@1HA:DWORD	; i3FileStream::m_bCaseSensitive
EXTRN	?npos@TiXmlString@@2IB:DWORD			; TiXmlString::npos
EXTRN	?nullrep_@TiXmlString@@0URep@1@A:BYTE		; TiXmlString::nullrep_
EXTRN	?utf8ByteTable@TiXmlBase@@2QBHB:BYTE		; TiXmlBase::utf8ByteTable
EXTRN	?condenseWhiteSpace@TiXmlBase@@0_NA:BYTE	; TiXmlBase::condenseWhiteSpace
EXTRN	?s_pClassMetai3List@i3List@@2PAVi3ClassMeta@@A:DWORD ; i3List::s_pClassMetai3List
EXTRN	?s_pClassMetai3StringList@i3StringList@@2PAVi3ClassMeta@@A:DWORD ; i3StringList::s_pClassMetai3StringList
EXTRN	?s_pClassMetai3LineLexer@i3LineLexer@@2PAVi3ClassMeta@@A:DWORD ; i3LineLexer::s_pClassMetai3LineLexer
EXTRN	?s_pClassMetai3SimpleLineLexer@i3SimpleLineLexer@@2PAVi3ClassMeta@@A:DWORD ; i3SimpleLineLexer::s_pClassMetai3SimpleLineLexer
EXTRN	?s_pClassMetai3Timer@i3Timer@@2PAVi3ClassMeta@@A:DWORD ; i3Timer::s_pClassMetai3Timer
EXTRN	___security_cookie:DWORD
EXTRN	__fltused:DWORD
;	COMDAT ?_OptionsStorage@?1??__local_stdio_printf_options@@9@4_KA
_BSS	SEGMENT
?_OptionsStorage@?1??__local_stdio_printf_options@@9@4_KA DQ 01H DUP (?) ; `__local_stdio_printf_options'::`2'::_OptionsStorage
_BSS	ENDS
_BSS	SEGMENT
?s_ClassMetai3IniParser@@3V?$i3MetaTemplate@Vi3IniParser@@@@A DB 038H DUP (?) ; s_ClassMetai3IniParser
_BSS	ENDS
CRT$XCU	SEGMENT
?s_ClassMetai3IniParser$initializer$@@3P6AXXZA DD FLAT:??__Es_ClassMetai3IniParser@@YAXXZ ; s_ClassMetai3IniParser$initializer$
CRT$XCU	ENDS
;	COMDAT ??_R1A@?0A@EA@i3Timer@@8
rdata$r	SEGMENT
??_R1A@?0A@EA@i3Timer@@8 DD FLAT:??_R0?AVi3Timer@@@8	; i3Timer::`RTTI Base Class Descriptor at (0,-1,0,64)'
	DD	01H
	DD	00H
	DD	0ffffffffH
	DD	00H
	DD	040H
	DD	FLAT:??_R3i3Timer@@8
rdata$r	ENDS
;	COMDAT ??_R2i3Timer@@8
rdata$r	SEGMENT
??_R2i3Timer@@8 DD FLAT:??_R1A@?0A@EA@i3Timer@@8	; i3Timer::`RTTI Base Class Array'
	DD	FLAT:??_R1A@?0A@EA@i3ElementBase@@8
rdata$r	ENDS
;	COMDAT ??_R3i3Timer@@8
rdata$r	SEGMENT
??_R3i3Timer@@8 DD 00H					; i3Timer::`RTTI Class Hierarchy Descriptor'
	DD	00H
	DD	02H
	DD	FLAT:??_R2i3Timer@@8
rdata$r	ENDS
;	COMDAT ??_R0?AVi3Timer@@@8
data$rs	SEGMENT
??_R0?AVi3Timer@@@8 DD FLAT:??_7type_info@@6B@		; i3Timer `RTTI Type Descriptor'
	DD	00H
	DB	'.?AVi3Timer@@', 00H
data$rs	ENDS
;	COMDAT ??_R4i3Timer@@6B@
rdata$r	SEGMENT
??_R4i3Timer@@6B@ DD 00H				; i3Timer::`RTTI Complete Object Locator'
	DD	00H
	DD	00H
	DD	FLAT:??_R0?AVi3Timer@@@8
	DD	FLAT:??_R3i3Timer@@8
rdata$r	ENDS
;	COMDAT ??_R1A@?0A@EA@i3SimpleLineLexer@@8
rdata$r	SEGMENT
??_R1A@?0A@EA@i3SimpleLineLexer@@8 DD FLAT:??_R0?AVi3SimpleLineLexer@@@8 ; i3SimpleLineLexer::`RTTI Base Class Descriptor at (0,-1,0,64)'
	DD	01H
	DD	00H
	DD	0ffffffffH
	DD	00H
	DD	040H
	DD	FLAT:??_R3i3SimpleLineLexer@@8
rdata$r	ENDS
;	COMDAT ??_R2i3SimpleLineLexer@@8
rdata$r	SEGMENT
??_R2i3SimpleLineLexer@@8 DD FLAT:??_R1A@?0A@EA@i3SimpleLineLexer@@8 ; i3SimpleLineLexer::`RTTI Base Class Array'
	DD	FLAT:??_R1A@?0A@EA@i3ElementBase@@8
rdata$r	ENDS
;	COMDAT ??_R3i3SimpleLineLexer@@8
rdata$r	SEGMENT
??_R3i3SimpleLineLexer@@8 DD 00H			; i3SimpleLineLexer::`RTTI Class Hierarchy Descriptor'
	DD	00H
	DD	02H
	DD	FLAT:??_R2i3SimpleLineLexer@@8
rdata$r	ENDS
;	COMDAT ??_R0?AVi3SimpleLineLexer@@@8
data$rs	SEGMENT
??_R0?AVi3SimpleLineLexer@@@8 DD FLAT:??_7type_info@@6B@ ; i3SimpleLineLexer `RTTI Type Descriptor'
	DD	00H
	DB	'.?AVi3SimpleLineLexer@@', 00H
data$rs	ENDS
;	COMDAT ??_R4i3SimpleLineLexer@@6B@
rdata$r	SEGMENT
??_R4i3SimpleLineLexer@@6B@ DD 00H			; i3SimpleLineLexer::`RTTI Complete Object Locator'
	DD	00H
	DD	00H
	DD	FLAT:??_R0?AVi3SimpleLineLexer@@@8
	DD	FLAT:??_R3i3SimpleLineLexer@@8
rdata$r	ENDS
;	COMDAT ??_R1A@?0A@EA@i3LineLexer@@8
rdata$r	SEGMENT
??_R1A@?0A@EA@i3LineLexer@@8 DD FLAT:??_R0?AVi3LineLexer@@@8 ; i3LineLexer::`RTTI Base Class Descriptor at (0,-1,0,64)'
	DD	01H
	DD	00H
	DD	0ffffffffH
	DD	00H
	DD	040H
	DD	FLAT:??_R3i3LineLexer@@8
rdata$r	ENDS
;	COMDAT ??_R2i3LineLexer@@8
rdata$r	SEGMENT
??_R2i3LineLexer@@8 DD FLAT:??_R1A@?0A@EA@i3LineLexer@@8 ; i3LineLexer::`RTTI Base Class Array'
	DD	FLAT:??_R1A@?0A@EA@i3ElementBase@@8
rdata$r	ENDS
;	COMDAT ??_R3i3LineLexer@@8
rdata$r	SEGMENT
??_R3i3LineLexer@@8 DD 00H				; i3LineLexer::`RTTI Class Hierarchy Descriptor'
	DD	00H
	DD	02H
	DD	FLAT:??_R2i3LineLexer@@8
rdata$r	ENDS
;	COMDAT ??_R0?AVi3LineLexer@@@8
data$rs	SEGMENT
??_R0?AVi3LineLexer@@@8 DD FLAT:??_7type_info@@6B@	; i3LineLexer `RTTI Type Descriptor'
	DD	00H
	DB	'.?AVi3LineLexer@@', 00H
data$rs	ENDS
;	COMDAT ??_R4i3LineLexer@@6B@
rdata$r	SEGMENT
??_R4i3LineLexer@@6B@ DD 00H				; i3LineLexer::`RTTI Complete Object Locator'
	DD	00H
	DD	00H
	DD	FLAT:??_R0?AVi3LineLexer@@@8
	DD	FLAT:??_R3i3LineLexer@@8
rdata$r	ENDS
;	COMDAT ??_R1A@?0A@EA@i3IniParser@@8
rdata$r	SEGMENT
??_R1A@?0A@EA@i3IniParser@@8 DD FLAT:??_R0?AVi3IniParser@@@8 ; i3IniParser::`RTTI Base Class Descriptor at (0,-1,0,64)'
	DD	01H
	DD	00H
	DD	0ffffffffH
	DD	00H
	DD	040H
	DD	FLAT:??_R3i3IniParser@@8
rdata$r	ENDS
;	COMDAT ??_R2i3IniParser@@8
rdata$r	SEGMENT
??_R2i3IniParser@@8 DD FLAT:??_R1A@?0A@EA@i3IniParser@@8 ; i3IniParser::`RTTI Base Class Array'
	DD	FLAT:??_R1A@?0A@EA@i3ElementBase@@8
rdata$r	ENDS
;	COMDAT ??_R3i3IniParser@@8
rdata$r	SEGMENT
??_R3i3IniParser@@8 DD 00H				; i3IniParser::`RTTI Class Hierarchy Descriptor'
	DD	00H
	DD	02H
	DD	FLAT:??_R2i3IniParser@@8
rdata$r	ENDS
;	COMDAT ??_R0?AVi3IniParser@@@8
data$rs	SEGMENT
??_R0?AVi3IniParser@@@8 DD FLAT:??_7type_info@@6B@	; i3IniParser `RTTI Type Descriptor'
	DD	00H
	DB	'.?AVi3IniParser@@', 00H
data$rs	ENDS
;	COMDAT ??_R4i3IniParser@@6B@
rdata$r	SEGMENT
??_R4i3IniParser@@6B@ DD 00H				; i3IniParser::`RTTI Complete Object Locator'
	DD	00H
	DD	00H
	DD	FLAT:??_R0?AVi3IniParser@@@8
	DD	FLAT:??_R3i3IniParser@@8
rdata$r	ENDS
;	COMDAT ??_R2TiXmlElement@@8
rdata$r	SEGMENT
??_R2TiXmlElement@@8 DD FLAT:??_R1A@?0A@EA@TiXmlElement@@8 ; TiXmlElement::`RTTI Base Class Array'
	DD	FLAT:??_R1A@?0A@EA@TiXmlNode@@8
	DD	FLAT:??_R1A@?0A@EA@TiXmlBase@@8
rdata$r	ENDS
;	COMDAT ??_R3TiXmlElement@@8
rdata$r	SEGMENT
??_R3TiXmlElement@@8 DD 00H				; TiXmlElement::`RTTI Class Hierarchy Descriptor'
	DD	00H
	DD	03H
	DD	FLAT:??_R2TiXmlElement@@8
rdata$r	ENDS
;	COMDAT ??_R0?AVTiXmlElement@@@8
data$rs	SEGMENT
??_R0?AVTiXmlElement@@@8 DD FLAT:??_7type_info@@6B@	; TiXmlElement `RTTI Type Descriptor'
	DD	00H
	DB	'.?AVTiXmlElement@@', 00H
data$rs	ENDS
;	COMDAT ??_R1A@?0A@EA@TiXmlElement@@8
rdata$r	SEGMENT
??_R1A@?0A@EA@TiXmlElement@@8 DD FLAT:??_R0?AVTiXmlElement@@@8 ; TiXmlElement::`RTTI Base Class Descriptor at (0,-1,0,64)'
	DD	02H
	DD	00H
	DD	0ffffffffH
	DD	00H
	DD	040H
	DD	FLAT:??_R3TiXmlElement@@8
rdata$r	ENDS
;	COMDAT ??_R1A@?0A@EA@i3XMLElement@@8
rdata$r	SEGMENT
??_R1A@?0A@EA@i3XMLElement@@8 DD FLAT:??_R0?AVi3XMLElement@@@8 ; i3XMLElement::`RTTI Base Class Descriptor at (0,-1,0,64)'
	DD	03H
	DD	00H
	DD	0ffffffffH
	DD	00H
	DD	040H
	DD	FLAT:??_R3i3XMLElement@@8
rdata$r	ENDS
;	COMDAT ??_R2i3XMLElement@@8
rdata$r	SEGMENT
??_R2i3XMLElement@@8 DD FLAT:??_R1A@?0A@EA@i3XMLElement@@8 ; i3XMLElement::`RTTI Base Class Array'
	DD	FLAT:??_R1A@?0A@EA@TiXmlElement@@8
	DD	FLAT:??_R1A@?0A@EA@TiXmlNode@@8
	DD	FLAT:??_R1A@?0A@EA@TiXmlBase@@8
rdata$r	ENDS
;	COMDAT ??_R3i3XMLElement@@8
rdata$r	SEGMENT
??_R3i3XMLElement@@8 DD 00H				; i3XMLElement::`RTTI Class Hierarchy Descriptor'
	DD	00H
	DD	04H
	DD	FLAT:??_R2i3XMLElement@@8
rdata$r	ENDS
;	COMDAT ??_R0?AVi3XMLElement@@@8
data$rs	SEGMENT
??_R0?AVi3XMLElement@@@8 DD FLAT:??_7type_info@@6B@	; i3XMLElement `RTTI Type Descriptor'
	DD	00H
	DB	'.?AVi3XMLElement@@', 00H
data$rs	ENDS
;	COMDAT ??_R4i3XMLElement@@6B@
rdata$r	SEGMENT
??_R4i3XMLElement@@6B@ DD 00H				; i3XMLElement::`RTTI Complete Object Locator'
	DD	00H
	DD	00H
	DD	FLAT:??_R0?AVi3XMLElement@@@8
	DD	FLAT:??_R3i3XMLElement@@8
rdata$r	ENDS
;	COMDAT ??_R1A@?0A@EA@TiXmlPrinter@@8
rdata$r	SEGMENT
??_R1A@?0A@EA@TiXmlPrinter@@8 DD FLAT:??_R0?AVTiXmlPrinter@@@8 ; TiXmlPrinter::`RTTI Base Class Descriptor at (0,-1,0,64)'
	DD	01H
	DD	00H
	DD	0ffffffffH
	DD	00H
	DD	040H
	DD	FLAT:??_R3TiXmlPrinter@@8
rdata$r	ENDS
;	COMDAT ??_R2TiXmlPrinter@@8
rdata$r	SEGMENT
??_R2TiXmlPrinter@@8 DD FLAT:??_R1A@?0A@EA@TiXmlPrinter@@8 ; TiXmlPrinter::`RTTI Base Class Array'
	DD	FLAT:??_R1A@?0A@EA@TiXmlVisitor@@8
rdata$r	ENDS
;	COMDAT ??_R3TiXmlPrinter@@8
rdata$r	SEGMENT
??_R3TiXmlPrinter@@8 DD 00H				; TiXmlPrinter::`RTTI Class Hierarchy Descriptor'
	DD	00H
	DD	02H
	DD	FLAT:??_R2TiXmlPrinter@@8
rdata$r	ENDS
;	COMDAT ??_R0?AVTiXmlPrinter@@@8
data$rs	SEGMENT
??_R0?AVTiXmlPrinter@@@8 DD FLAT:??_7type_info@@6B@	; TiXmlPrinter `RTTI Type Descriptor'
	DD	00H
	DB	'.?AVTiXmlPrinter@@', 00H
data$rs	ENDS
;	COMDAT ??_R4TiXmlPrinter@@6B@
rdata$r	SEGMENT
??_R4TiXmlPrinter@@6B@ DD 00H				; TiXmlPrinter::`RTTI Complete Object Locator'
	DD	00H
	DD	00H
	DD	FLAT:??_R0?AVTiXmlPrinter@@@8
	DD	FLAT:??_R3TiXmlPrinter@@8
rdata$r	ENDS
;	COMDAT ??_R4TiXmlBase@@6B@
rdata$r	SEGMENT
??_R4TiXmlBase@@6B@ DD 00H				; TiXmlBase::`RTTI Complete Object Locator'
	DD	00H
	DD	00H
	DD	FLAT:??_R0?AVTiXmlBase@@@8
	DD	FLAT:??_R3TiXmlBase@@8
rdata$r	ENDS
;	COMDAT ??_R1A@?0A@EA@TiXmlVisitor@@8
rdata$r	SEGMENT
??_R1A@?0A@EA@TiXmlVisitor@@8 DD FLAT:??_R0?AVTiXmlVisitor@@@8 ; TiXmlVisitor::`RTTI Base Class Descriptor at (0,-1,0,64)'
	DD	00H
	DD	00H
	DD	0ffffffffH
	DD	00H
	DD	040H
	DD	FLAT:??_R3TiXmlVisitor@@8
rdata$r	ENDS
;	COMDAT ??_R2TiXmlVisitor@@8
rdata$r	SEGMENT
??_R2TiXmlVisitor@@8 DD FLAT:??_R1A@?0A@EA@TiXmlVisitor@@8 ; TiXmlVisitor::`RTTI Base Class Array'
rdata$r	ENDS
;	COMDAT ??_R3TiXmlVisitor@@8
rdata$r	SEGMENT
??_R3TiXmlVisitor@@8 DD 00H				; TiXmlVisitor::`RTTI Class Hierarchy Descriptor'
	DD	00H
	DD	01H
	DD	FLAT:??_R2TiXmlVisitor@@8
rdata$r	ENDS
;	COMDAT ??_R0?AVTiXmlVisitor@@@8
data$rs	SEGMENT
??_R0?AVTiXmlVisitor@@@8 DD FLAT:??_7type_info@@6B@	; TiXmlVisitor `RTTI Type Descriptor'
	DD	00H
	DB	'.?AVTiXmlVisitor@@', 00H
data$rs	ENDS
;	COMDAT ??_R4TiXmlVisitor@@6B@
rdata$r	SEGMENT
??_R4TiXmlVisitor@@6B@ DD 00H				; TiXmlVisitor::`RTTI Complete Object Locator'
	DD	00H
	DD	00H
	DD	FLAT:??_R0?AVTiXmlVisitor@@@8
	DD	FLAT:??_R3TiXmlVisitor@@8
rdata$r	ENDS
;	COMDAT ??_R1A@?0A@EA@TiXmlDeclaration@@8
rdata$r	SEGMENT
??_R1A@?0A@EA@TiXmlDeclaration@@8 DD FLAT:??_R0?AVTiXmlDeclaration@@@8 ; TiXmlDeclaration::`RTTI Base Class Descriptor at (0,-1,0,64)'
	DD	02H
	DD	00H
	DD	0ffffffffH
	DD	00H
	DD	040H
	DD	FLAT:??_R3TiXmlDeclaration@@8
rdata$r	ENDS
;	COMDAT ??_R2TiXmlDeclaration@@8
rdata$r	SEGMENT
??_R2TiXmlDeclaration@@8 DD FLAT:??_R1A@?0A@EA@TiXmlDeclaration@@8 ; TiXmlDeclaration::`RTTI Base Class Array'
	DD	FLAT:??_R1A@?0A@EA@TiXmlNode@@8
	DD	FLAT:??_R1A@?0A@EA@TiXmlBase@@8
rdata$r	ENDS
;	COMDAT ??_R3TiXmlDeclaration@@8
rdata$r	SEGMENT
??_R3TiXmlDeclaration@@8 DD 00H				; TiXmlDeclaration::`RTTI Class Hierarchy Descriptor'
	DD	00H
	DD	03H
	DD	FLAT:??_R2TiXmlDeclaration@@8
rdata$r	ENDS
;	COMDAT ??_R0?AVTiXmlDeclaration@@@8
data$rs	SEGMENT
??_R0?AVTiXmlDeclaration@@@8 DD FLAT:??_7type_info@@6B@	; TiXmlDeclaration `RTTI Type Descriptor'
	DD	00H
	DB	'.?AVTiXmlDeclaration@@', 00H
data$rs	ENDS
;	COMDAT ??_R4TiXmlDeclaration@@6B@
rdata$r	SEGMENT
??_R4TiXmlDeclaration@@6B@ DD 00H			; TiXmlDeclaration::`RTTI Complete Object Locator'
	DD	00H
	DD	00H
	DD	FLAT:??_R0?AVTiXmlDeclaration@@@8
	DD	FLAT:??_R3TiXmlDeclaration@@8
rdata$r	ENDS
;	COMDAT ??_R1A@?0A@EA@TiXmlText@@8
rdata$r	SEGMENT
??_R1A@?0A@EA@TiXmlText@@8 DD FLAT:??_R0?AVTiXmlText@@@8 ; TiXmlText::`RTTI Base Class Descriptor at (0,-1,0,64)'
	DD	02H
	DD	00H
	DD	0ffffffffH
	DD	00H
	DD	040H
	DD	FLAT:??_R3TiXmlText@@8
rdata$r	ENDS
;	COMDAT ??_R2TiXmlText@@8
rdata$r	SEGMENT
??_R2TiXmlText@@8 DD FLAT:??_R1A@?0A@EA@TiXmlText@@8	; TiXmlText::`RTTI Base Class Array'
	DD	FLAT:??_R1A@?0A@EA@TiXmlNode@@8
	DD	FLAT:??_R1A@?0A@EA@TiXmlBase@@8
rdata$r	ENDS
;	COMDAT ??_R3TiXmlText@@8
rdata$r	SEGMENT
??_R3TiXmlText@@8 DD 00H				; TiXmlText::`RTTI Class Hierarchy Descriptor'
	DD	00H
	DD	03H
	DD	FLAT:??_R2TiXmlText@@8
rdata$r	ENDS
;	COMDAT ??_R0?AVTiXmlText@@@8
data$rs	SEGMENT
??_R0?AVTiXmlText@@@8 DD FLAT:??_7type_info@@6B@	; TiXmlText `RTTI Type Descriptor'
	DD	00H
	DB	'.?AVTiXmlText@@', 00H
data$rs	ENDS
;	COMDAT ??_R4TiXmlText@@6B@
rdata$r	SEGMENT
??_R4TiXmlText@@6B@ DD 00H				; TiXmlText::`RTTI Complete Object Locator'
	DD	00H
	DD	00H
	DD	FLAT:??_R0?AVTiXmlText@@@8
	DD	FLAT:??_R3TiXmlText@@8
rdata$r	ENDS
;	COMDAT ??_R1A@?0A@EA@TiXmlAttribute@@8
rdata$r	SEGMENT
??_R1A@?0A@EA@TiXmlAttribute@@8 DD FLAT:??_R0?AVTiXmlAttribute@@@8 ; TiXmlAttribute::`RTTI Base Class Descriptor at (0,-1,0,64)'
	DD	01H
	DD	00H
	DD	0ffffffffH
	DD	00H
	DD	040H
	DD	FLAT:??_R3TiXmlAttribute@@8
rdata$r	ENDS
;	COMDAT ??_R2TiXmlAttribute@@8
rdata$r	SEGMENT
??_R2TiXmlAttribute@@8 DD FLAT:??_R1A@?0A@EA@TiXmlAttribute@@8 ; TiXmlAttribute::`RTTI Base Class Array'
	DD	FLAT:??_R1A@?0A@EA@TiXmlBase@@8
rdata$r	ENDS
;	COMDAT ??_R3TiXmlAttribute@@8
rdata$r	SEGMENT
??_R3TiXmlAttribute@@8 DD 00H				; TiXmlAttribute::`RTTI Class Hierarchy Descriptor'
	DD	00H
	DD	02H
	DD	FLAT:??_R2TiXmlAttribute@@8
rdata$r	ENDS
;	COMDAT ??_R0?AVTiXmlAttribute@@@8
data$rs	SEGMENT
??_R0?AVTiXmlAttribute@@@8 DD FLAT:??_7type_info@@6B@	; TiXmlAttribute `RTTI Type Descriptor'
	DD	00H
	DB	'.?AVTiXmlAttribute@@', 00H
data$rs	ENDS
;	COMDAT ??_R4TiXmlAttribute@@6B@
rdata$r	SEGMENT
??_R4TiXmlAttribute@@6B@ DD 00H				; TiXmlAttribute::`RTTI Complete Object Locator'
	DD	00H
	DD	00H
	DD	FLAT:??_R0?AVTiXmlAttribute@@@8
	DD	FLAT:??_R3TiXmlAttribute@@8
rdata$r	ENDS
;	COMDAT ??_R1A@?0A@EA@TiXmlUnknown@@8
rdata$r	SEGMENT
??_R1A@?0A@EA@TiXmlUnknown@@8 DD FLAT:??_R0?AVTiXmlUnknown@@@8 ; TiXmlUnknown::`RTTI Base Class Descriptor at (0,-1,0,64)'
	DD	02H
	DD	00H
	DD	0ffffffffH
	DD	00H
	DD	040H
	DD	FLAT:??_R3TiXmlUnknown@@8
rdata$r	ENDS
;	COMDAT ??_R2TiXmlUnknown@@8
rdata$r	SEGMENT
??_R2TiXmlUnknown@@8 DD FLAT:??_R1A@?0A@EA@TiXmlUnknown@@8 ; TiXmlUnknown::`RTTI Base Class Array'
	DD	FLAT:??_R1A@?0A@EA@TiXmlNode@@8
	DD	FLAT:??_R1A@?0A@EA@TiXmlBase@@8
rdata$r	ENDS
;	COMDAT ??_R3TiXmlUnknown@@8
rdata$r	SEGMENT
??_R3TiXmlUnknown@@8 DD 00H				; TiXmlUnknown::`RTTI Class Hierarchy Descriptor'
	DD	00H
	DD	03H
	DD	FLAT:??_R2TiXmlUnknown@@8
rdata$r	ENDS
;	COMDAT ??_R0?AVTiXmlUnknown@@@8
data$rs	SEGMENT
??_R0?AVTiXmlUnknown@@@8 DD FLAT:??_7type_info@@6B@	; TiXmlUnknown `RTTI Type Descriptor'
	DD	00H
	DB	'.?AVTiXmlUnknown@@', 00H
data$rs	ENDS
;	COMDAT ??_R4TiXmlUnknown@@6B@
rdata$r	SEGMENT
??_R4TiXmlUnknown@@6B@ DD 00H				; TiXmlUnknown::`RTTI Complete Object Locator'
	DD	00H
	DD	00H
	DD	FLAT:??_R0?AVTiXmlUnknown@@@8
	DD	FLAT:??_R3TiXmlUnknown@@8
rdata$r	ENDS
;	COMDAT ??_R1A@?0A@EA@TiXmlComment@@8
rdata$r	SEGMENT
??_R1A@?0A@EA@TiXmlComment@@8 DD FLAT:??_R0?AVTiXmlComment@@@8 ; TiXmlComment::`RTTI Base Class Descriptor at (0,-1,0,64)'
	DD	02H
	DD	00H
	DD	0ffffffffH
	DD	00H
	DD	040H
	DD	FLAT:??_R3TiXmlComment@@8
rdata$r	ENDS
;	COMDAT ??_R2TiXmlComment@@8
rdata$r	SEGMENT
??_R2TiXmlComment@@8 DD FLAT:??_R1A@?0A@EA@TiXmlComment@@8 ; TiXmlComment::`RTTI Base Class Array'
	DD	FLAT:??_R1A@?0A@EA@TiXmlNode@@8
	DD	FLAT:??_R1A@?0A@EA@TiXmlBase@@8
rdata$r	ENDS
;	COMDAT ??_R3TiXmlComment@@8
rdata$r	SEGMENT
??_R3TiXmlComment@@8 DD 00H				; TiXmlComment::`RTTI Class Hierarchy Descriptor'
	DD	00H
	DD	03H
	DD	FLAT:??_R2TiXmlComment@@8
rdata$r	ENDS
;	COMDAT ??_R0?AVTiXmlComment@@@8
data$rs	SEGMENT
??_R0?AVTiXmlComment@@@8 DD FLAT:??_7type_info@@6B@	; TiXmlComment `RTTI Type Descriptor'
	DD	00H
	DB	'.?AVTiXmlComment@@', 00H
data$rs	ENDS
;	COMDAT ??_R4TiXmlComment@@6B@
rdata$r	SEGMENT
??_R4TiXmlComment@@6B@ DD 00H				; TiXmlComment::`RTTI Complete Object Locator'
	DD	00H
	DD	00H
	DD	FLAT:??_R0?AVTiXmlComment@@@8
	DD	FLAT:??_R3TiXmlComment@@8
rdata$r	ENDS
;	COMDAT ??_R2TiXmlBase@@8
rdata$r	SEGMENT
??_R2TiXmlBase@@8 DD FLAT:??_R1A@?0A@EA@TiXmlBase@@8	; TiXmlBase::`RTTI Base Class Array'
rdata$r	ENDS
;	COMDAT ??_R3TiXmlBase@@8
rdata$r	SEGMENT
??_R3TiXmlBase@@8 DD 00H				; TiXmlBase::`RTTI Class Hierarchy Descriptor'
	DD	00H
	DD	01H
	DD	FLAT:??_R2TiXmlBase@@8
rdata$r	ENDS
;	COMDAT ??_R0?AVTiXmlBase@@@8
data$rs	SEGMENT
??_R0?AVTiXmlBase@@@8 DD FLAT:??_7type_info@@6B@	; TiXmlBase `RTTI Type Descriptor'
	DD	00H
	DB	'.?AVTiXmlBase@@', 00H
data$rs	ENDS
;	COMDAT ??_R1A@?0A@EA@TiXmlBase@@8
rdata$r	SEGMENT
??_R1A@?0A@EA@TiXmlBase@@8 DD FLAT:??_R0?AVTiXmlBase@@@8 ; TiXmlBase::`RTTI Base Class Descriptor at (0,-1,0,64)'
	DD	00H
	DD	00H
	DD	0ffffffffH
	DD	00H
	DD	040H
	DD	FLAT:??_R3TiXmlBase@@8
rdata$r	ENDS
;	COMDAT ??_R2TiXmlNode@@8
rdata$r	SEGMENT
??_R2TiXmlNode@@8 DD FLAT:??_R1A@?0A@EA@TiXmlNode@@8	; TiXmlNode::`RTTI Base Class Array'
	DD	FLAT:??_R1A@?0A@EA@TiXmlBase@@8
rdata$r	ENDS
;	COMDAT ??_R3TiXmlNode@@8
rdata$r	SEGMENT
??_R3TiXmlNode@@8 DD 00H				; TiXmlNode::`RTTI Class Hierarchy Descriptor'
	DD	00H
	DD	02H
	DD	FLAT:??_R2TiXmlNode@@8
rdata$r	ENDS
;	COMDAT ??_R0?AVTiXmlNode@@@8
data$rs	SEGMENT
??_R0?AVTiXmlNode@@@8 DD FLAT:??_7type_info@@6B@	; TiXmlNode `RTTI Type Descriptor'
	DD	00H
	DB	'.?AVTiXmlNode@@', 00H
data$rs	ENDS
;	COMDAT ??_R1A@?0A@EA@TiXmlNode@@8
rdata$r	SEGMENT
??_R1A@?0A@EA@TiXmlNode@@8 DD FLAT:??_R0?AVTiXmlNode@@@8 ; TiXmlNode::`RTTI Base Class Descriptor at (0,-1,0,64)'
	DD	01H
	DD	00H
	DD	0ffffffffH
	DD	00H
	DD	040H
	DD	FLAT:??_R3TiXmlNode@@8
rdata$r	ENDS
;	COMDAT ??_R1A@?0A@EA@TiXmlDocument@@8
rdata$r	SEGMENT
??_R1A@?0A@EA@TiXmlDocument@@8 DD FLAT:??_R0?AVTiXmlDocument@@@8 ; TiXmlDocument::`RTTI Base Class Descriptor at (0,-1,0,64)'
	DD	02H
	DD	00H
	DD	0ffffffffH
	DD	00H
	DD	040H
	DD	FLAT:??_R3TiXmlDocument@@8
rdata$r	ENDS
;	COMDAT ??_R2TiXmlDocument@@8
rdata$r	SEGMENT
??_R2TiXmlDocument@@8 DD FLAT:??_R1A@?0A@EA@TiXmlDocument@@8 ; TiXmlDocument::`RTTI Base Class Array'
	DD	FLAT:??_R1A@?0A@EA@TiXmlNode@@8
	DD	FLAT:??_R1A@?0A@EA@TiXmlBase@@8
rdata$r	ENDS
;	COMDAT ??_R3TiXmlDocument@@8
rdata$r	SEGMENT
??_R3TiXmlDocument@@8 DD 00H				; TiXmlDocument::`RTTI Class Hierarchy Descriptor'
	DD	00H
	DD	03H
	DD	FLAT:??_R2TiXmlDocument@@8
rdata$r	ENDS
;	COMDAT ??_R0?AVTiXmlDocument@@@8
data$rs	SEGMENT
??_R0?AVTiXmlDocument@@@8 DD FLAT:??_7type_info@@6B@	; TiXmlDocument `RTTI Type Descriptor'
	DD	00H
	DB	'.?AVTiXmlDocument@@', 00H
data$rs	ENDS
;	COMDAT ??_R4TiXmlDocument@@6B@
rdata$r	SEGMENT
??_R4TiXmlDocument@@6B@ DD 00H				; TiXmlDocument::`RTTI Complete Object Locator'
	DD	00H
	DD	00H
	DD	FLAT:??_R0?AVTiXmlDocument@@@8
	DD	FLAT:??_R3TiXmlDocument@@8
rdata$r	ENDS
;	COMDAT ??_R1A@?0A@EA@i3FileStream@@8
rdata$r	SEGMENT
??_R1A@?0A@EA@i3FileStream@@8 DD FLAT:??_R0?AVi3FileStream@@@8 ; i3FileStream::`RTTI Base Class Descriptor at (0,-1,0,64)'
	DD	02H
	DD	00H
	DD	0ffffffffH
	DD	00H
	DD	040H
	DD	FLAT:??_R3i3FileStream@@8
rdata$r	ENDS
;	COMDAT ??_R2i3FileStream@@8
rdata$r	SEGMENT
??_R2i3FileStream@@8 DD FLAT:??_R1A@?0A@EA@i3FileStream@@8 ; i3FileStream::`RTTI Base Class Array'
	DD	FLAT:??_R1A@?0A@EA@i3Stream@@8
	DD	FLAT:??_R1A@?0A@EA@i3ElementBase@@8
rdata$r	ENDS
;	COMDAT ??_R3i3FileStream@@8
rdata$r	SEGMENT
??_R3i3FileStream@@8 DD 00H				; i3FileStream::`RTTI Class Hierarchy Descriptor'
	DD	00H
	DD	03H
	DD	FLAT:??_R2i3FileStream@@8
rdata$r	ENDS
;	COMDAT ??_R0?AVi3FileStream@@@8
data$rs	SEGMENT
??_R0?AVi3FileStream@@@8 DD FLAT:??_7type_info@@6B@	; i3FileStream `RTTI Type Descriptor'
	DD	00H
	DB	'.?AVi3FileStream@@', 00H
data$rs	ENDS
;	COMDAT ??_R4i3FileStream@@6B@
rdata$r	SEGMENT
??_R4i3FileStream@@6B@ DD 00H				; i3FileStream::`RTTI Complete Object Locator'
	DD	00H
	DD	00H
	DD	FLAT:??_R0?AVi3FileStream@@@8
	DD	FLAT:??_R3i3FileStream@@8
rdata$r	ENDS
;	COMDAT ??_R1A@?0A@EA@i3Stream@@8
rdata$r	SEGMENT
??_R1A@?0A@EA@i3Stream@@8 DD FLAT:??_R0?AVi3Stream@@@8	; i3Stream::`RTTI Base Class Descriptor at (0,-1,0,64)'
	DD	01H
	DD	00H
	DD	0ffffffffH
	DD	00H
	DD	040H
	DD	FLAT:??_R3i3Stream@@8
rdata$r	ENDS
;	COMDAT ??_R2i3Stream@@8
rdata$r	SEGMENT
??_R2i3Stream@@8 DD FLAT:??_R1A@?0A@EA@i3Stream@@8	; i3Stream::`RTTI Base Class Array'
	DD	FLAT:??_R1A@?0A@EA@i3ElementBase@@8
rdata$r	ENDS
;	COMDAT ??_R3i3Stream@@8
rdata$r	SEGMENT
??_R3i3Stream@@8 DD 00H					; i3Stream::`RTTI Class Hierarchy Descriptor'
	DD	00H
	DD	02H
	DD	FLAT:??_R2i3Stream@@8
rdata$r	ENDS
;	COMDAT ??_R0?AVi3Stream@@@8
data$rs	SEGMENT
??_R0?AVi3Stream@@@8 DD FLAT:??_7type_info@@6B@		; i3Stream `RTTI Type Descriptor'
	DD	00H
	DB	'.?AVi3Stream@@', 00H
data$rs	ENDS
;	COMDAT ??_R4i3Stream@@6B@
rdata$r	SEGMENT
??_R4i3Stream@@6B@ DD 00H				; i3Stream::`RTTI Complete Object Locator'
	DD	00H
	DD	00H
	DD	FLAT:??_R0?AVi3Stream@@@8
	DD	FLAT:??_R3i3Stream@@8
rdata$r	ENDS
;	COMDAT ??_R1A@?0A@EA@i3StringList@@8
rdata$r	SEGMENT
??_R1A@?0A@EA@i3StringList@@8 DD FLAT:??_R0?AVi3StringList@@@8 ; i3StringList::`RTTI Base Class Descriptor at (0,-1,0,64)'
	DD	01H
	DD	00H
	DD	0ffffffffH
	DD	00H
	DD	040H
	DD	FLAT:??_R3i3StringList@@8
rdata$r	ENDS
;	COMDAT ??_R2i3StringList@@8
rdata$r	SEGMENT
??_R2i3StringList@@8 DD FLAT:??_R1A@?0A@EA@i3StringList@@8 ; i3StringList::`RTTI Base Class Array'
	DD	FLAT:??_R1A@?0A@EA@i3ElementBase@@8
rdata$r	ENDS
;	COMDAT ??_R3i3StringList@@8
rdata$r	SEGMENT
??_R3i3StringList@@8 DD 00H				; i3StringList::`RTTI Class Hierarchy Descriptor'
	DD	00H
	DD	02H
	DD	FLAT:??_R2i3StringList@@8
rdata$r	ENDS
;	COMDAT ??_R0?AVi3StringList@@@8
data$rs	SEGMENT
??_R0?AVi3StringList@@@8 DD FLAT:??_7type_info@@6B@	; i3StringList `RTTI Type Descriptor'
	DD	00H
	DB	'.?AVi3StringList@@', 00H
data$rs	ENDS
;	COMDAT ??_R4i3StringList@@6B@
rdata$r	SEGMENT
??_R4i3StringList@@6B@ DD 00H				; i3StringList::`RTTI Complete Object Locator'
	DD	00H
	DD	00H
	DD	FLAT:??_R0?AVi3StringList@@@8
	DD	FLAT:??_R3i3StringList@@8
rdata$r	ENDS
;	COMDAT ??_R4i3ClassMeta@@6B@
rdata$r	SEGMENT
??_R4i3ClassMeta@@6B@ DD 00H				; i3ClassMeta::`RTTI Complete Object Locator'
	DD	00H
	DD	00H
	DD	FLAT:??_R0?AVi3ClassMeta@@@8
	DD	FLAT:??_R3i3ClassMeta@@8
rdata$r	ENDS
;	COMDAT ??_R1A@?0A@EA@i3MemoryPool@@8
rdata$r	SEGMENT
??_R1A@?0A@EA@i3MemoryPool@@8 DD FLAT:??_R0?AVi3MemoryPool@@@8 ; i3MemoryPool::`RTTI Base Class Descriptor at (0,-1,0,64)'
	DD	00H
	DD	00H
	DD	0ffffffffH
	DD	00H
	DD	040H
	DD	FLAT:??_R3i3MemoryPool@@8
rdata$r	ENDS
;	COMDAT ??_R2i3MemoryPool@@8
rdata$r	SEGMENT
??_R2i3MemoryPool@@8 DD FLAT:??_R1A@?0A@EA@i3MemoryPool@@8 ; i3MemoryPool::`RTTI Base Class Array'
rdata$r	ENDS
;	COMDAT ??_R3i3MemoryPool@@8
rdata$r	SEGMENT
??_R3i3MemoryPool@@8 DD 00H				; i3MemoryPool::`RTTI Class Hierarchy Descriptor'
	DD	00H
	DD	01H
	DD	FLAT:??_R2i3MemoryPool@@8
rdata$r	ENDS
;	COMDAT ??_R0?AVi3MemoryPool@@@8
data$rs	SEGMENT
??_R0?AVi3MemoryPool@@@8 DD FLAT:??_7type_info@@6B@	; i3MemoryPool `RTTI Type Descriptor'
	DD	00H
	DB	'.?AVi3MemoryPool@@', 00H
data$rs	ENDS
;	COMDAT ??_R4i3MemoryPool@@6B@
rdata$r	SEGMENT
??_R4i3MemoryPool@@6B@ DD 00H				; i3MemoryPool::`RTTI Complete Object Locator'
	DD	00H
	DD	00H
	DD	FLAT:??_R0?AVi3MemoryPool@@@8
	DD	FLAT:??_R3i3MemoryPool@@8
rdata$r	ENDS
;	COMDAT ??_R1A@?0A@EA@i3List@@8
rdata$r	SEGMENT
??_R1A@?0A@EA@i3List@@8 DD FLAT:??_R0?AVi3List@@@8	; i3List::`RTTI Base Class Descriptor at (0,-1,0,64)'
	DD	01H
	DD	00H
	DD	0ffffffffH
	DD	00H
	DD	040H
	DD	FLAT:??_R3i3List@@8
rdata$r	ENDS
;	COMDAT ??_R2i3List@@8
rdata$r	SEGMENT
??_R2i3List@@8 DD FLAT:??_R1A@?0A@EA@i3List@@8		; i3List::`RTTI Base Class Array'
	DD	FLAT:??_R1A@?0A@EA@i3ElementBase@@8
rdata$r	ENDS
;	COMDAT ??_R3i3List@@8
rdata$r	SEGMENT
??_R3i3List@@8 DD 00H					; i3List::`RTTI Class Hierarchy Descriptor'
	DD	00H
	DD	02H
	DD	FLAT:??_R2i3List@@8
rdata$r	ENDS
;	COMDAT ??_R0?AVi3List@@@8
data$rs	SEGMENT
??_R0?AVi3List@@@8 DD FLAT:??_7type_info@@6B@		; i3List `RTTI Type Descriptor'
	DD	00H
	DB	'.?AVi3List@@', 00H
data$rs	ENDS
;	COMDAT ??_R4i3List@@6B@
rdata$r	SEGMENT
??_R4i3List@@6B@ DD 00H					; i3List::`RTTI Complete Object Locator'
	DD	00H
	DD	00H
	DD	FLAT:??_R0?AVi3List@@@8
	DD	FLAT:??_R3i3List@@8
rdata$r	ENDS
;	COMDAT ??_R1A@?0A@EA@i3ElementBase@@8
rdata$r	SEGMENT
??_R1A@?0A@EA@i3ElementBase@@8 DD FLAT:??_R0?AVi3ElementBase@@@8 ; i3ElementBase::`RTTI Base Class Descriptor at (0,-1,0,64)'
	DD	00H
	DD	00H
	DD	0ffffffffH
	DD	00H
	DD	040H
	DD	FLAT:??_R3i3ElementBase@@8
rdata$r	ENDS
;	COMDAT ??_R2i3ElementBase@@8
rdata$r	SEGMENT
??_R2i3ElementBase@@8 DD FLAT:??_R1A@?0A@EA@i3ElementBase@@8 ; i3ElementBase::`RTTI Base Class Array'
rdata$r	ENDS
;	COMDAT ??_R3i3ElementBase@@8
rdata$r	SEGMENT
??_R3i3ElementBase@@8 DD 00H				; i3ElementBase::`RTTI Class Hierarchy Descriptor'
	DD	00H
	DD	01H
	DD	FLAT:??_R2i3ElementBase@@8
rdata$r	ENDS
;	COMDAT ??_R0?AVi3ElementBase@@@8
data$rs	SEGMENT
??_R0?AVi3ElementBase@@@8 DD FLAT:??_7type_info@@6B@	; i3ElementBase `RTTI Type Descriptor'
	DD	00H
	DB	'.?AVi3ElementBase@@', 00H
data$rs	ENDS
;	COMDAT ??_R4i3ElementBase@@6B@
rdata$r	SEGMENT
??_R4i3ElementBase@@6B@ DD 00H				; i3ElementBase::`RTTI Complete Object Locator'
	DD	00H
	DD	00H
	DD	FLAT:??_R0?AVi3ElementBase@@@8
	DD	FLAT:??_R3i3ElementBase@@8
rdata$r	ENDS
;	COMDAT ??_C@_03DLDNIBIK@?$CFlf@
CONST	SEGMENT
??_C@_03DLDNIBIK@?$CFlf@ DB '%lf', 00H			; `string'
CONST	ENDS
;	COMDAT ??_C@_02NJPGOMH@?$CFf@
CONST	SEGMENT
??_C@_02NJPGOMH@?$CFf@ DB '%f', 00H			; `string'
CONST	ENDS
;	COMDAT ??_C@_02DPKJAMEF@?$CFd@
CONST	SEGMENT
??_C@_02DPKJAMEF@?$CFd@ DB '%d', 00H			; `string'
CONST	ENDS
;	COMDAT ??_C@_04OEDFLLKD@?$CC?$CFs?$CC@
CONST	SEGMENT
??_C@_04OEDFLLKD@?$CC?$CFs?$CC@ DB '"%s"', 00H		; `string'
CONST	ENDS
;	COMDAT ??_C@_02DKCKIIND@?$CFs@
CONST	SEGMENT
??_C@_02DKCKIIND@?$CFs@ DB '%s', 00H			; `string'
CONST	ENDS
;	COMDAT ??_C@_05MKDOIIA@False@
CONST	SEGMENT
??_C@_05MKDOIIA@False@ DB 'False', 00H			; `string'
CONST	ENDS
;	COMDAT ??_C@_04HPMIDMKH@True@
CONST	SEGMENT
??_C@_04HPMIDMKH@True@ DB 'True', 00H			; `string'
CONST	ENDS
;	COMDAT ??_C@_04LIFAFMCE@?$FL?$CFs?$FN@
CONST	SEGMENT
??_C@_04LIFAFMCE@?$FL?$CFs?$FN@ DB '[%s]', 00H		; `string'
CONST	ENDS
;	COMDAT ??_C@_09MJNNNHCA@?$CFs?5?$DN?5?$CFs?$AN?6@
CONST	SEGMENT
??_C@_09MJNNNHCA@?$CFs?5?$DN?5?$CFs?$AN?6@ DB '%s = %s', 0dH, 0aH, 00H ; `string'
CONST	ENDS
;	COMDAT ??_C@_04LLEBNMDN@?$CFs?$AN?6@
CONST	SEGMENT
??_C@_04LLEBNMDN@?$CFs?$AN?6@ DB '%s', 0dH, 0aH, 00H	; `string'
CONST	ENDS
;	COMDAT ??_C@_01NANMIPIL@N@
CONST	SEGMENT
??_C@_01NANMIPIL@N@ DB 'N', 00H				; `string'
CONST	ENDS
;	COMDAT ??_C@_01BIAFAFID@F@
CONST	SEGMENT
??_C@_01BIAFAFID@F@ DB 'F', 00H				; `string'
CONST	ENDS
;	COMDAT ??_C@_01NFFPALBN@Y@
CONST	SEGMENT
??_C@_01NFFPALBN@Y@ DB 'Y', 00H				; `string'
CONST	ENDS
;	COMDAT ??_C@_01GAPBHFFA@T@
CONST	SEGMENT
??_C@_01GAPBHFFA@T@ DB 'T', 00H				; `string'
CONST	ENDS
;	COMDAT ??_C@_0BL@OBHDNFFG@nBufLength?5is?5too?5short?4?5?6@
CONST	SEGMENT
??_C@_0BL@OBHDNFFG@nBufLength?5is?5too?5short?4?5?6@ DB 'nBufLength is to'
	DB	'o short. ', 0aH, 00H			; `string'
CONST	ENDS
;	COMDAT ??_C@_0BG@NIGHIBJ@nBufLength?5is?5zero?4?5?6@
CONST	SEGMENT
??_C@_0BG@NIGHIBJ@nBufLength?5is?5zero?4?5?6@ DB 'nBufLength is zero. ', 0aH
	DB	00H						; `string'
CONST	ENDS
;	COMDAT ??_C@_0BL@IJNEAJGP@Value?5Table?5is?5not?5exist?4?6@
CONST	SEGMENT
??_C@_0BL@IJNEAJGP@Value?5Table?5is?5not?5exist?4?6@ DB 'Value Table is n'
	DB	'ot exist.', 0aH, 00H			; `string'
CONST	ENDS
;	COMDAT ??_C@_0DO@IJEJHCOG@int?5__thiscall?5i3IniParser?3?3Get@
CONST	SEGMENT
??_C@_0DO@IJEJHCOG@int?5__thiscall?5i3IniParser?3?3Get@ DB 'int __thiscal'
	DB	'l i3IniParser::GetValue(const char *,char *,int)', 00H ; `string'
CONST	ENDS
;	COMDAT ??_C@_0BM@BCLBIDHM@Value?5Table?5is?5not?5exist?4?5?6@
CONST	SEGMENT
??_C@_0BM@BCLBIDHM@Value?5Table?5is?5not?5exist?4?5?6@ DB 'Value Table is'
	DB	' not exist. ', 0aH, 00H			; `string'
CONST	ENDS
;	COMDAT ??_C@_0EB@LPNLFBLF@const?5char?5?$CK__thiscall?5i3IniPar@
CONST	SEGMENT
??_C@_0EB@LPNLFBLF@const?5char?5?$CK__thiscall?5i3IniPar@ DB 'const char '
	DB	'*__thiscall i3IniParser::GetStringValue(const char *)', 00H ; `string'
CONST	ENDS
;	COMDAT ??_C@_0CD@CHADIGIF@szLabel?5value?5string?5is?5too?5lon@
CONST	SEGMENT
??_C@_0CD@CHADIGIF@szLabel?5value?5string?5is?5too?5lon@ DB 'szLabel valu'
	DB	'e string is too long ', 0aH, 00H		; `string'
CONST	ENDS
;	COMDAT ??_C@_0BK@JNFPJABN@szLabel?5name?5is?5too?5long?6@
CONST	SEGMENT
??_C@_0BK@JNFPJABN@szLabel?5name?5is?5too?5long?6@ DB 'szLabel name is to'
	DB	'o long', 0aH, 00H				; `string'
CONST	ENDS
;	COMDAT ??_C@_0DG@CIBHBENN@ERROR?3?5?$FLReadSectionByInfo?$FN?5Sect@
CONST	SEGMENT
??_C@_0DG@CIBHBENN@ERROR?3?5?$FLReadSectionByInfo?$FN?5Sect@ DB 'ERROR: ['
	DB	'ReadSectionByInfo] Section not found in ''%s''', 0aH, 00H ; `string'
CONST	ENDS
;	COMDAT ??_C@_0L@LMGNLEPG@Config?4ini@
CONST	SEGMENT
??_C@_0L@LMGNLEPG@Config?4ini@ DB 'Config.ini', 00H	; `string'
CONST	ENDS
;	COMDAT ??_C@_0BN@IFIOBCJG@ERROR?5?3?5?$FL?$CFs?$FN?5pInfo?5is?5NULL?4?6@
CONST	SEGMENT
??_C@_0BN@IFIOBCJG@ERROR?5?3?5?$FL?$CFs?$FN?5pInfo?5is?5NULL?4?6@ DB 'ERR'
	DB	'OR : [%s] pInfo is NULL.', 0aH, 00H		; `string'
CONST	ENDS
;	COMDAT ??_C@_0BP@CCBDLFBK@i3IniParser?3?3ReadSectionByInfo@
CONST	SEGMENT
??_C@_0BP@CCBDLFBK@i3IniParser?3?3ReadSectionByInfo@ DB 'i3IniParser::Rea'
	DB	'dSectionByInfo', 00H			; `string'
CONST	ENDS
;	COMDAT ??_C@_0BA@JEIBDMBE@pInfo?5is?5NULL?4?6@
CONST	SEGMENT
??_C@_0BA@JEIBDMBE@pInfo?5is?5NULL?4?6@ DB 'pInfo is NULL.', 0aH, 00H ; `string'
CONST	ENDS
;	COMDAT ??_C@_0BE@DLJIIAFH@m_pStream?5is?5NULL?4?6@
CONST	SEGMENT
??_C@_0BE@DLJIIAFH@m_pStream?5is?5NULL?4?6@ DB 'm_pStream is NULL.', 0aH, 00H ; `string'
CONST	ENDS
;	COMDAT ??_C@_0EJ@KOPGLENC@int?5__thiscall?5i3IniParser?3?3Rea@
CONST	SEGMENT
??_C@_0EJ@KOPGLENC@int?5__thiscall?5i3IniParser?3?3Rea@ DB 'int __thiscal'
	DB	'l i3IniParser::ReadSectionByInfo(struct i3IniSectionInfo *)', 00H ; `string'
CONST	ENDS
;	COMDAT ??_C@_0BM@BLONCBOG@Section?5name?5is?5duplicated?6@
CONST	SEGMENT
??_C@_0BM@BLONCBOG@Section?5name?5is?5duplicated?6@ DB 'Section name is d'
	DB	'uplicated', 0aH, 00H			; `string'
CONST	ENDS
;	COMDAT ??_C@_0BH@POMKDHLO@Section?5name?5is?5NULL?4?6@
CONST	SEGMENT
??_C@_0BH@POMKDHLO@Section?5name?5is?5NULL?4?6@ DB 'Section name is NULL.'
	DB	0aH, 00H					; `string'
CONST	ENDS
;	COMDAT ??_C@_0DL@KGJFMIKH@int?5__thiscall?5i3IniParser?3?3Ope@
CONST	SEGMENT
??_C@_0DL@KGJFMIKH@int?5__thiscall?5i3IniParser?3?3Ope@ DB 'int __thiscal'
	DB	'l i3IniParser::Open(class i3Stream *,int,int)', 00H ; `string'
CONST	ENDS
;	COMDAT ??_C@_0BG@MILPOODI@Could?5not?5open?5file?4?6@
CONST	SEGMENT
??_C@_0BG@MILPOODI@Could?5not?5open?5file?4?6@ DB 'Could not open file.', 0aH
	DB	00H						; `string'
CONST	ENDS
;	COMDAT ??_C@_0DL@CHHOFFHM@int?5__thiscall?5i3IniParser?3?3Ope@
CONST	SEGMENT
??_C@_0DL@CHHOFFHM@int?5__thiscall?5i3IniParser?3?3Ope@ DB 'int __thiscal'
	DB	'l i3IniParser::OpenFromFile(const char *,int)', 00H ; `string'
CONST	ENDS
;	COMDAT ??_C@_0BI@GMCEFIID@Could?5not?5create?5file?4?6@
CONST	SEGMENT
??_C@_0BI@GMCEFIID@Could?5not?5create?5file?4?6@ DB 'Could not create fil'
	DB	'e.', 0aH, 00H				; `string'
CONST	ENDS
;	COMDAT ??_C@_0GG@LIGOM@E?3?2Proyectos?2JuegosOnlineproyec@
CONST	SEGMENT
??_C@_0GG@LIGOM@E?3?2Proyectos?2JuegosOnlineproyec@ DB 'E:\Proyectos\Jueg'
	DB	'osOnlineproyectos\PB\pbblow\Piercing Blow Remake\i3Server\src'
	DB	'\i3Base\i3IniParser.cpp', 00H		; `string'
CONST	ENDS
;	COMDAT ??_C@_0DB@ONEFMAII@int?5__thiscall?5i3IniParser?3?3Cre@
CONST	SEGMENT
??_C@_0DB@ONEFMAII@int?5__thiscall?5i3IniParser?3?3Cre@ DB 'int __thiscal'
	DB	'l i3IniParser::Create(const char *)', 00H	; `string'
CONST	ENDS
;	COMDAT ??_7i3Timer@@6B@
CONST	SEGMENT
??_7i3Timer@@6B@ DD FLAT:??_R4i3Timer@@6B@		; i3Timer::`vftable'
	DD	FLAT:?GetMeta@i3Timer@@UAEPAVi3ClassMeta@@XZ
	DD	FLAT:??_Ei3Timer@@UAEPAXI@Z
	DD	FLAT:?CopyTo@i3ElementBase@@UAEXPAV1@W4I3_COPY_METHOD@@@Z
CONST	ENDS
;	COMDAT ??_7i3SimpleLineLexer@@6B@
CONST	SEGMENT
??_7i3SimpleLineLexer@@6B@ DD FLAT:??_R4i3SimpleLineLexer@@6B@ ; i3SimpleLineLexer::`vftable'
	DD	FLAT:?GetMeta@i3SimpleLineLexer@@UAEPAVi3ClassMeta@@XZ
	DD	FLAT:??_Ei3SimpleLineLexer@@UAEPAXI@Z
	DD	FLAT:?CopyTo@i3ElementBase@@UAEXPAV1@W4I3_COPY_METHOD@@@Z
CONST	ENDS
;	COMDAT ??_7i3LineLexer@@6B@
CONST	SEGMENT
??_7i3LineLexer@@6B@ DD FLAT:??_R4i3LineLexer@@6B@	; i3LineLexer::`vftable'
	DD	FLAT:?GetMeta@i3LineLexer@@UAEPAVi3ClassMeta@@XZ
	DD	FLAT:??_Ei3LineLexer@@UAEPAXI@Z
	DD	FLAT:?CopyTo@i3ElementBase@@UAEXPAV1@W4I3_COPY_METHOD@@@Z
CONST	ENDS
;	COMDAT ??_7i3IniParser@@6B@
CONST	SEGMENT
??_7i3IniParser@@6B@ DD FLAT:??_R4i3IniParser@@6B@	; i3IniParser::`vftable'
	DD	FLAT:?GetMeta@i3IniParser@@UAEPAVi3ClassMeta@@XZ
	DD	FLAT:??_Ei3IniParser@@UAEPAXI@Z
	DD	FLAT:?CopyTo@i3ElementBase@@UAEXPAV1@W4I3_COPY_METHOD@@@Z
CONST	ENDS
;	COMDAT ??_7i3StringList@@6B@
CONST	SEGMENT
??_7i3StringList@@6B@ DD FLAT:??_R4i3StringList@@6B@	; i3StringList::`vftable'
	DD	FLAT:?GetMeta@i3StringList@@UAEPAVi3ClassMeta@@XZ
	DD	FLAT:??_Ei3StringList@@UAEPAXI@Z
	DD	FLAT:?CopyTo@i3ElementBase@@UAEXPAV1@W4I3_COPY_METHOD@@@Z
	DD	FLAT:?IndexOf@i3StringList@@UBEHPAD@Z
	DD	FLAT:?Add@i3StringList@@UAEHPADH@Z
	DD	FLAT:?Insert@i3StringList@@UAEHHPADH@Z
	DD	FLAT:?Delete@i3StringList@@UAEHH@Z
	DD	FLAT:?Remove@i3StringList@@UAEHPAD@Z
	DD	FLAT:?Clear@i3StringList@@UAEXXZ
CONST	ENDS
;	COMDAT ??_C@_0GD@LNMGNFKI@E?3?2Proyectos?2JuegosOnlineproyec@
CONST	SEGMENT
??_C@_0GD@LNMGNFKI@E?3?2Proyectos?2JuegosOnlineproyec@ DB 'E:\Proyectos\J'
	DB	'uegosOnlineproyectos\PB\pbblow\Piercing Blow Remake\i3Server\'
	DB	'include\i3Base\i3List.h', 00H		; `string'
CONST	ENDS
;	COMDAT ??_7i3List@@6B@
CONST	SEGMENT
??_7i3List@@6B@ DD FLAT:??_R4i3List@@6B@		; i3List::`vftable'
	DD	FLAT:?GetMeta@i3List@@UAEPAVi3ClassMeta@@XZ
	DD	FLAT:??_Ei3List@@UAEPAXI@Z
	DD	FLAT:?CopyTo@i3ElementBase@@UAEXPAV1@W4I3_COPY_METHOD@@@Z
	DD	FLAT:?IndexOf@i3List@@UBEHPBX@Z
	DD	FLAT:?Add@i3List@@UAEHPAX@Z
	DD	FLAT:?Insert@i3List@@UAEHHPAX@Z
	DD	FLAT:?Delete@i3List@@UAEHH@Z
	DD	FLAT:?Remove@i3List@@UAEHPAX@Z
	DD	FLAT:?Clear@i3List@@UAEXH@Z
CONST	ENDS
;	COMDAT ??_7i3XMLElement@@6B@
CONST	SEGMENT
??_7i3XMLElement@@6B@ DD FLAT:??_R4i3XMLElement@@6B@	; i3XMLElement::`vftable'
	DD	FLAT:??_Ei3XMLElement@@UAEPAXI@Z
	DD	FLAT:?Print@TiXmlElement@@UBEXPAVi3FileStream@@H@Z
	DD	FLAT:?Parse@TiXmlElement@@UAEPBDPBDPAVTiXmlParsingData@@W4TiXmlEncoding@@@Z
	DD	FLAT:?ToDocument@TiXmlNode@@UAEPAVTiXmlDocument@@XZ
	DD	FLAT:?ToDocument@TiXmlNode@@UBEPBVTiXmlDocument@@XZ
	DD	FLAT:?ToElement@TiXmlElement@@UAEPAV1@XZ
	DD	FLAT:?ToElement@TiXmlElement@@UBEPBV1@XZ
	DD	FLAT:?ToComment@TiXmlNode@@UAEPAVTiXmlComment@@XZ
	DD	FLAT:?ToComment@TiXmlNode@@UBEPBVTiXmlComment@@XZ
	DD	FLAT:?ToUnknown@TiXmlNode@@UAEPAVTiXmlUnknown@@XZ
	DD	FLAT:?ToUnknown@TiXmlNode@@UBEPBVTiXmlUnknown@@XZ
	DD	FLAT:?ToText@TiXmlNode@@UAEPAVTiXmlText@@XZ
	DD	FLAT:?ToText@TiXmlNode@@UBEPBVTiXmlText@@XZ
	DD	FLAT:?ToDeclaration@TiXmlNode@@UAEPAVTiXmlDeclaration@@XZ
	DD	FLAT:?ToDeclaration@TiXmlNode@@UBEPBVTiXmlDeclaration@@XZ
	DD	FLAT:?Clone@TiXmlElement@@UBEPAVTiXmlNode@@XZ
	DD	FLAT:?Accept@TiXmlElement@@UBE_NPAVTiXmlVisitor@@@Z
CONST	ENDS
;	COMDAT ??_C@_01EEMJAFIK@?6@
CONST	SEGMENT
??_C@_01EEMJAFIK@?6@ DB 0aH, 00H			; `string'
CONST	ENDS
;	COMDAT ??_C@_04PFOHOKJK@?5?5?5?5@
CONST	SEGMENT
??_C@_04PFOHOKJK@?5?5?5?5@ DB '    ', 00H		; `string'
CONST	ENDS
;	COMDAT ??_7TiXmlPrinter@@6B@
CONST	SEGMENT
??_7TiXmlPrinter@@6B@ DD FLAT:??_R4TiXmlPrinter@@6B@	; TiXmlPrinter::`vftable'
	DD	FLAT:??_ETiXmlPrinter@@UAEPAXI@Z
	DD	FLAT:?VisitEnter@TiXmlPrinter@@UAE_NABVTiXmlElement@@PBVTiXmlAttribute@@@Z
	DD	FLAT:?VisitEnter@TiXmlPrinter@@UAE_NABVTiXmlDocument@@@Z
	DD	FLAT:?VisitExit@TiXmlPrinter@@UAE_NABVTiXmlElement@@@Z
	DD	FLAT:?VisitExit@TiXmlPrinter@@UAE_NABVTiXmlDocument@@@Z
	DD	FLAT:?Visit@TiXmlPrinter@@UAE_NABVTiXmlUnknown@@@Z
	DD	FLAT:?Visit@TiXmlPrinter@@UAE_NABVTiXmlComment@@@Z
	DD	FLAT:?Visit@TiXmlPrinter@@UAE_NABVTiXmlText@@@Z
	DD	FLAT:?Visit@TiXmlPrinter@@UAE_NABVTiXmlDeclaration@@@Z
CONST	ENDS
;	COMDAT ??_C@_00CNPNBAHC@@
CONST	SEGMENT
??_C@_00CNPNBAHC@@ DB 00H				; `string'
CONST	ENDS
;	COMDAT ??_7TiXmlDocument@@6B@
CONST	SEGMENT
??_7TiXmlDocument@@6B@ DD FLAT:??_R4TiXmlDocument@@6B@	; TiXmlDocument::`vftable'
	DD	FLAT:??_ETiXmlDocument@@UAEPAXI@Z
	DD	FLAT:?Print@TiXmlDocument@@UBEXPAVi3FileStream@@H@Z
	DD	FLAT:?Parse@TiXmlDocument@@UAEPBDPBDPAVTiXmlParsingData@@W4TiXmlEncoding@@@Z
	DD	FLAT:?ToDocument@TiXmlDocument@@UAEPAV1@XZ
	DD	FLAT:?ToDocument@TiXmlDocument@@UBEPBV1@XZ
	DD	FLAT:?ToElement@TiXmlNode@@UAEPAVTiXmlElement@@XZ
	DD	FLAT:?ToElement@TiXmlNode@@UBEPBVTiXmlElement@@XZ
	DD	FLAT:?ToComment@TiXmlNode@@UAEPAVTiXmlComment@@XZ
	DD	FLAT:?ToComment@TiXmlNode@@UBEPBVTiXmlComment@@XZ
	DD	FLAT:?ToUnknown@TiXmlNode@@UAEPAVTiXmlUnknown@@XZ
	DD	FLAT:?ToUnknown@TiXmlNode@@UBEPBVTiXmlUnknown@@XZ
	DD	FLAT:?ToText@TiXmlNode@@UAEPAVTiXmlText@@XZ
	DD	FLAT:?ToText@TiXmlNode@@UBEPBVTiXmlText@@XZ
	DD	FLAT:?ToDeclaration@TiXmlNode@@UAEPAVTiXmlDeclaration@@XZ
	DD	FLAT:?ToDeclaration@TiXmlNode@@UBEPBVTiXmlDeclaration@@XZ
	DD	FLAT:?Clone@TiXmlDocument@@MBEPAVTiXmlNode@@XZ
	DD	FLAT:?Accept@TiXmlDocument@@UBE_NPAVTiXmlVisitor@@@Z
CONST	ENDS
;	COMDAT ??_7TiXmlUnknown@@6B@
CONST	SEGMENT
??_7TiXmlUnknown@@6B@ DD FLAT:??_R4TiXmlUnknown@@6B@	; TiXmlUnknown::`vftable'
	DD	FLAT:??_ETiXmlUnknown@@UAEPAXI@Z
	DD	FLAT:?Print@TiXmlUnknown@@UBEXPAVi3FileStream@@H@Z
	DD	FLAT:?Parse@TiXmlUnknown@@UAEPBDPBDPAVTiXmlParsingData@@W4TiXmlEncoding@@@Z
	DD	FLAT:?ToDocument@TiXmlNode@@UAEPAVTiXmlDocument@@XZ
	DD	FLAT:?ToDocument@TiXmlNode@@UBEPBVTiXmlDocument@@XZ
	DD	FLAT:?ToElement@TiXmlNode@@UAEPAVTiXmlElement@@XZ
	DD	FLAT:?ToElement@TiXmlNode@@UBEPBVTiXmlElement@@XZ
	DD	FLAT:?ToComment@TiXmlNode@@UAEPAVTiXmlComment@@XZ
	DD	FLAT:?ToComment@TiXmlNode@@UBEPBVTiXmlComment@@XZ
	DD	FLAT:?ToUnknown@TiXmlUnknown@@UAEPAV1@XZ
	DD	FLAT:?ToUnknown@TiXmlUnknown@@UBEPBV1@XZ
	DD	FLAT:?ToText@TiXmlNode@@UAEPAVTiXmlText@@XZ
	DD	FLAT:?ToText@TiXmlNode@@UBEPBVTiXmlText@@XZ
	DD	FLAT:?ToDeclaration@TiXmlNode@@UAEPAVTiXmlDeclaration@@XZ
	DD	FLAT:?ToDeclaration@TiXmlNode@@UBEPBVTiXmlDeclaration@@XZ
	DD	FLAT:?Clone@TiXmlUnknown@@UBEPAVTiXmlNode@@XZ
	DD	FLAT:?Accept@TiXmlUnknown@@UBE_NPAVTiXmlVisitor@@@Z
CONST	ENDS
;	COMDAT ??_7TiXmlDeclaration@@6B@
CONST	SEGMENT
??_7TiXmlDeclaration@@6B@ DD FLAT:??_R4TiXmlDeclaration@@6B@ ; TiXmlDeclaration::`vftable'
	DD	FLAT:??_ETiXmlDeclaration@@UAEPAXI@Z
	DD	FLAT:?Print@TiXmlDeclaration@@UBEXPAVi3FileStream@@H@Z
	DD	FLAT:?Parse@TiXmlDeclaration@@UAEPBDPBDPAVTiXmlParsingData@@W4TiXmlEncoding@@@Z
	DD	FLAT:?ToDocument@TiXmlNode@@UAEPAVTiXmlDocument@@XZ
	DD	FLAT:?ToDocument@TiXmlNode@@UBEPBVTiXmlDocument@@XZ
	DD	FLAT:?ToElement@TiXmlNode@@UAEPAVTiXmlElement@@XZ
	DD	FLAT:?ToElement@TiXmlNode@@UBEPBVTiXmlElement@@XZ
	DD	FLAT:?ToComment@TiXmlNode@@UAEPAVTiXmlComment@@XZ
	DD	FLAT:?ToComment@TiXmlNode@@UBEPBVTiXmlComment@@XZ
	DD	FLAT:?ToUnknown@TiXmlNode@@UAEPAVTiXmlUnknown@@XZ
	DD	FLAT:?ToUnknown@TiXmlNode@@UBEPBVTiXmlUnknown@@XZ
	DD	FLAT:?ToText@TiXmlNode@@UAEPAVTiXmlText@@XZ
	DD	FLAT:?ToText@TiXmlNode@@UBEPBVTiXmlText@@XZ
	DD	FLAT:?ToDeclaration@TiXmlDeclaration@@UAEPAV1@XZ
	DD	FLAT:?ToDeclaration@TiXmlDeclaration@@UBEPBV1@XZ
	DD	FLAT:?Clone@TiXmlDeclaration@@UBEPAVTiXmlNode@@XZ
	DD	FLAT:?Accept@TiXmlDeclaration@@UBE_NPAVTiXmlVisitor@@@Z
	DD	FLAT:?Print@TiXmlDeclaration@@UBEXPAVi3FileStream@@HPAVTiXmlString@@@Z
CONST	ENDS
;	COMDAT ??_7TiXmlText@@6B@
CONST	SEGMENT
??_7TiXmlText@@6B@ DD FLAT:??_R4TiXmlText@@6B@		; TiXmlText::`vftable'
	DD	FLAT:??_ETiXmlText@@UAEPAXI@Z
	DD	FLAT:?Print@TiXmlText@@UBEXPAVi3FileStream@@H@Z
	DD	FLAT:?Parse@TiXmlText@@UAEPBDPBDPAVTiXmlParsingData@@W4TiXmlEncoding@@@Z
	DD	FLAT:?ToDocument@TiXmlNode@@UAEPAVTiXmlDocument@@XZ
	DD	FLAT:?ToDocument@TiXmlNode@@UBEPBVTiXmlDocument@@XZ
	DD	FLAT:?ToElement@TiXmlNode@@UAEPAVTiXmlElement@@XZ
	DD	FLAT:?ToElement@TiXmlNode@@UBEPBVTiXmlElement@@XZ
	DD	FLAT:?ToComment@TiXmlNode@@UAEPAVTiXmlComment@@XZ
	DD	FLAT:?ToComment@TiXmlNode@@UBEPBVTiXmlComment@@XZ
	DD	FLAT:?ToUnknown@TiXmlNode@@UAEPAVTiXmlUnknown@@XZ
	DD	FLAT:?ToUnknown@TiXmlNode@@UBEPBVTiXmlUnknown@@XZ
	DD	FLAT:?ToText@TiXmlText@@UAEPAV1@XZ
	DD	FLAT:?ToText@TiXmlText@@UBEPBV1@XZ
	DD	FLAT:?ToDeclaration@TiXmlNode@@UAEPAVTiXmlDeclaration@@XZ
	DD	FLAT:?ToDeclaration@TiXmlNode@@UBEPBVTiXmlDeclaration@@XZ
	DD	FLAT:?Clone@TiXmlText@@MBEPAVTiXmlNode@@XZ
	DD	FLAT:?Accept@TiXmlText@@UBE_NPAVTiXmlVisitor@@@Z
CONST	ENDS
;	COMDAT ??_7TiXmlComment@@6B@
CONST	SEGMENT
??_7TiXmlComment@@6B@ DD FLAT:??_R4TiXmlComment@@6B@	; TiXmlComment::`vftable'
	DD	FLAT:??_ETiXmlComment@@UAEPAXI@Z
	DD	FLAT:?Print@TiXmlComment@@UBEXPAVi3FileStream@@H@Z
	DD	FLAT:?Parse@TiXmlComment@@UAEPBDPBDPAVTiXmlParsingData@@W4TiXmlEncoding@@@Z
	DD	FLAT:?ToDocument@TiXmlNode@@UAEPAVTiXmlDocument@@XZ
	DD	FLAT:?ToDocument@TiXmlNode@@UBEPBVTiXmlDocument@@XZ
	DD	FLAT:?ToElement@TiXmlNode@@UAEPAVTiXmlElement@@XZ
	DD	FLAT:?ToElement@TiXmlNode@@UBEPBVTiXmlElement@@XZ
	DD	FLAT:?ToComment@TiXmlComment@@UAEPAV1@XZ
	DD	FLAT:?ToComment@TiXmlComment@@UBEPBV1@XZ
	DD	FLAT:?ToUnknown@TiXmlNode@@UAEPAVTiXmlUnknown@@XZ
	DD	FLAT:?ToUnknown@TiXmlNode@@UBEPBVTiXmlUnknown@@XZ
	DD	FLAT:?ToText@TiXmlNode@@UAEPAVTiXmlText@@XZ
	DD	FLAT:?ToText@TiXmlNode@@UBEPBVTiXmlText@@XZ
	DD	FLAT:?ToDeclaration@TiXmlNode@@UAEPAVTiXmlDeclaration@@XZ
	DD	FLAT:?ToDeclaration@TiXmlNode@@UBEPBVTiXmlDeclaration@@XZ
	DD	FLAT:?Clone@TiXmlComment@@UBEPAVTiXmlNode@@XZ
	DD	FLAT:?Accept@TiXmlComment@@UBE_NPAVTiXmlVisitor@@@Z
CONST	ENDS
;	COMDAT ??_7TiXmlAttribute@@6B@
CONST	SEGMENT
??_7TiXmlAttribute@@6B@ DD FLAT:??_R4TiXmlAttribute@@6B@ ; TiXmlAttribute::`vftable'
	DD	FLAT:??_ETiXmlAttribute@@UAEPAXI@Z
	DD	FLAT:?Print@TiXmlAttribute@@UBEXPAVi3FileStream@@H@Z
	DD	FLAT:?Parse@TiXmlAttribute@@UAEPBDPBDPAVTiXmlParsingData@@W4TiXmlEncoding@@@Z
CONST	ENDS
;	COMDAT ??_7TiXmlBase@@6B@
CONST	SEGMENT
??_7TiXmlBase@@6B@ DD FLAT:??_R4TiXmlBase@@6B@		; TiXmlBase::`vftable'
	DD	FLAT:??_ETiXmlBase@@UAEPAXI@Z
	DD	FLAT:__purecall
	DD	FLAT:__purecall
CONST	ENDS
;	COMDAT ??_7TiXmlVisitor@@6B@
CONST	SEGMENT
??_7TiXmlVisitor@@6B@ DD FLAT:??_R4TiXmlVisitor@@6B@	; TiXmlVisitor::`vftable'
	DD	FLAT:??_ETiXmlVisitor@@UAEPAXI@Z
	DD	FLAT:?VisitEnter@TiXmlVisitor@@UAE_NABVTiXmlElement@@PBVTiXmlAttribute@@@Z
	DD	FLAT:?VisitEnter@TiXmlVisitor@@UAE_NABVTiXmlDocument@@@Z
	DD	FLAT:?VisitExit@TiXmlVisitor@@UAE_NABVTiXmlElement@@@Z
	DD	FLAT:?VisitExit@TiXmlVisitor@@UAE_NABVTiXmlDocument@@@Z
	DD	FLAT:?Visit@TiXmlVisitor@@UAE_NABVTiXmlUnknown@@@Z
	DD	FLAT:?Visit@TiXmlVisitor@@UAE_NABVTiXmlComment@@@Z
	DD	FLAT:?Visit@TiXmlVisitor@@UAE_NABVTiXmlText@@@Z
	DD	FLAT:?Visit@TiXmlVisitor@@UAE_NABVTiXmlDeclaration@@@Z
CONST	ENDS
;	COMDAT ??_7i3FileStream@@6B@
CONST	SEGMENT
??_7i3FileStream@@6B@ DD FLAT:??_R4i3FileStream@@6B@	; i3FileStream::`vftable'
	DD	FLAT:?GetMeta@i3FileStream@@UAEPAVi3ClassMeta@@XZ
	DD	FLAT:??_Ei3FileStream@@UAEPAXI@Z
	DD	FLAT:?CopyTo@i3ElementBase@@UAEXPAV1@W4I3_COPY_METHOD@@@Z
	DD	FLAT:?GetHandle@i3FileStream@@UAEPAXXZ
	DD	FLAT:?Create@i3FileStream@@UAEHPBDHI@Z
	DD	FLAT:?Open@i3FileStream@@UAEHPBDHI@Z
	DD	FLAT:?Close@i3FileStream@@UAEHXZ
	DD	FLAT:?Read@i3FileStream@@UAEIPAXH@Z
	DD	FLAT:?CopyTo@i3Stream@@UAEIPAV1@I@Z
	DD	FLAT:?Write@i3FileStream@@UAEIPBXH@Z
	DD	FLAT:?CopyFrom@i3Stream@@UAEIPAV1@I@Z
	DD	FLAT:?SetPosition@i3FileStream@@UAEIHH@Z
	DD	FLAT:?GetPosition@i3FileStream@@UAEIXZ
	DD	FLAT:?ReadLine@i3Stream@@UAEIPADH@Z
	DD	FLAT:?ReadLineW@i3Stream@@UAEIPAGH@Z
	DD	FLAT:?WriteLine@i3Stream@@UAEIPBD@Z
	DD	FLAT:?WriteLineW@i3Stream@@UAEIPBG@Z
	DD	FLAT:?Printf@i3Stream@@UAAIPADPBDZZ
CONST	ENDS
;	COMDAT ??_7i3Stream@@6B@
CONST	SEGMENT
??_7i3Stream@@6B@ DD FLAT:??_R4i3Stream@@6B@		; i3Stream::`vftable'
	DD	FLAT:?GetMeta@i3Stream@@UAEPAVi3ClassMeta@@XZ
	DD	FLAT:??_Ei3Stream@@UAEPAXI@Z
	DD	FLAT:?CopyTo@i3ElementBase@@UAEXPAV1@W4I3_COPY_METHOD@@@Z
	DD	FLAT:?GetHandle@i3Stream@@UAEPAXXZ
	DD	FLAT:__purecall
	DD	FLAT:__purecall
	DD	FLAT:__purecall
	DD	FLAT:__purecall
	DD	FLAT:?CopyTo@i3Stream@@UAEIPAV1@I@Z
	DD	FLAT:__purecall
	DD	FLAT:?CopyFrom@i3Stream@@UAEIPAV1@I@Z
	DD	FLAT:__purecall
	DD	FLAT:__purecall
	DD	FLAT:?ReadLine@i3Stream@@UAEIPADH@Z
	DD	FLAT:?ReadLineW@i3Stream@@UAEIPAGH@Z
	DD	FLAT:?WriteLine@i3Stream@@UAEIPBD@Z
	DD	FLAT:?WriteLineW@i3Stream@@UAEIPBG@Z
	DD	FLAT:?Printf@i3Stream@@UAAIPADPBDZZ
CONST	ENDS
;	COMDAT ??_7i3MemoryPool@@6B@
CONST	SEGMENT
??_7i3MemoryPool@@6B@ DD FLAT:??_R4i3MemoryPool@@6B@	; i3MemoryPool::`vftable'
	DD	FLAT:??_Ei3MemoryPool@@UAEPAXI@Z
	DD	FLAT:__purecall
	DD	FLAT:__purecall
CONST	ENDS
;	COMDAT ??_7i3ElementBase@@6B@
CONST	SEGMENT
??_7i3ElementBase@@6B@ DD FLAT:??_R4i3ElementBase@@6B@	; i3ElementBase::`vftable'
	DD	FLAT:?GetMeta@i3ElementBase@@UAEPAVi3ClassMeta@@XZ
	DD	FLAT:??_Ei3ElementBase@@UAEPAXI@Z
	DD	FLAT:?CopyTo@i3ElementBase@@UAEXPAV1@W4I3_COPY_METHOD@@@Z
CONST	ENDS
;	COMDAT ??_7i3ClassMeta@@6B@
CONST	SEGMENT
??_7i3ClassMeta@@6B@ DD FLAT:??_R4i3ClassMeta@@6B@	; i3ClassMeta::`vftable'
	DD	FLAT:??_Ei3ClassMeta@@UAEPAXI@Z
	DD	FLAT:?CreateInstance@i3ClassMeta@@UAEPAVi3ElementBase@@W4I3_CLASSMETA_TYPE@@@Z
	DD	FLAT:?BindInstance@i3ClassMeta@@UAEPAVi3ElementBase@@PAXW4I3_CLASSMETA_TYPE@@@Z
CONST	ENDS
;	COMDAT xdata$x
xdata$x	SEGMENT
__unwindtable$?BindInstance@?$i3MetaTemplate@Vi3IniParser@@@@UAEPAVi3ElementBase@@PAXW4I3_CLASSMETA_TYPE@@@Z DD 0ffffffffH
	DD	FLAT:__unwindfunclet$?BindInstance@?$i3MetaTemplate@Vi3IniParser@@@@UAEPAVi3ElementBase@@PAXW4I3_CLASSMETA_TYPE@@@Z$0
__ehfuncinfo$?BindInstance@?$i3MetaTemplate@Vi3IniParser@@@@UAEPAVi3ElementBase@@PAXW4I3_CLASSMETA_TYPE@@@Z DD 019930522H
	DD	01H
	DD	FLAT:__unwindtable$?BindInstance@?$i3MetaTemplate@Vi3IniParser@@@@UAEPAVi3ElementBase@@PAXW4I3_CLASSMETA_TYPE@@@Z
	DD	2 DUP(00H)
	DD	2 DUP(00H)
	DD	00H
	DD	01H
xdata$x	ENDS
;	COMDAT xdata$x
xdata$x	SEGMENT
__unwindtable$?CreateInstance@?$i3MetaTemplate@Vi3IniParser@@@@UAEPAVi3ElementBase@@W4I3_CLASSMETA_TYPE@@@Z DD 0ffffffffH
	DD	FLAT:__unwindfunclet$?CreateInstance@?$i3MetaTemplate@Vi3IniParser@@@@UAEPAVi3ElementBase@@W4I3_CLASSMETA_TYPE@@@Z$0
__ehfuncinfo$?CreateInstance@?$i3MetaTemplate@Vi3IniParser@@@@UAEPAVi3ElementBase@@W4I3_CLASSMETA_TYPE@@@Z DD 019930522H
	DD	01H
	DD	FLAT:__unwindtable$?CreateInstance@?$i3MetaTemplate@Vi3IniParser@@@@UAEPAVi3ElementBase@@W4I3_CLASSMETA_TYPE@@@Z
	DD	2 DUP(00H)
	DD	2 DUP(00H)
	DD	00H
	DD	01H
xdata$x	ENDS
;	COMDAT xdata$x
xdata$x	SEGMENT
__ehfuncinfo$??_Ei3Timer@@UAEPAXI@Z DD 019930522H
	DD	00H
	DD	00H
	DD	2 DUP(00H)
	DD	2 DUP(00H)
	DD	00H
	DD	05H
xdata$x	ENDS
;	COMDAT xdata$x
xdata$x	SEGMENT
__ehfuncinfo$??_Ei3SimpleLineLexer@@UAEPAXI@Z DD 019930522H
	DD	00H
	DD	00H
	DD	2 DUP(00H)
	DD	2 DUP(00H)
	DD	00H
	DD	05H
xdata$x	ENDS
;	COMDAT xdata$x
xdata$x	SEGMENT
__ehfuncinfo$??_Ei3LineLexer@@UAEPAXI@Z DD 019930522H
	DD	00H
	DD	00H
	DD	2 DUP(00H)
	DD	2 DUP(00H)
	DD	00H
	DD	05H
xdata$x	ENDS
;	COMDAT xdata$x
xdata$x	SEGMENT
__unwindtable$??_Ei3IniParser@@UAEPAXI@Z DD 0ffffffffH
	DD	FLAT:___std_terminate
__ehfuncinfo$??_Ei3IniParser@@UAEPAXI@Z DD 019930522H
	DD	01H
	DD	FLAT:__unwindtable$??_Ei3IniParser@@UAEPAXI@Z
	DD	2 DUP(00H)
	DD	2 DUP(00H)
	DD	00H
	DD	05H
xdata$x	ENDS
;	COMDAT xdata$x
xdata$x	SEGMENT
__unwindtable$??_Gi3IniParser@@UAEPAXI@Z DD 0ffffffffH
	DD	FLAT:___std_terminate
__ehfuncinfo$??_Gi3IniParser@@UAEPAXI@Z DD 019930522H
	DD	01H
	DD	FLAT:__unwindtable$??_Gi3IniParser@@UAEPAXI@Z
	DD	2 DUP(00H)
	DD	2 DUP(00H)
	DD	00H
	DD	05H
xdata$x	ENDS
;	COMDAT xdata$x
xdata$x	SEGMENT
__unwindtable$?GetValues@i3IniParser@@QAEHPBDPAMHH@Z DD 0ffffffffH
	DD	FLAT:__unwindfunclet$?GetValues@i3IniParser@@QAEHPBDPAMHH@Z$0
__ehfuncinfo$?GetValues@i3IniParser@@QAEHPBDPAMHH@Z DD 019930522H
	DD	01H
	DD	FLAT:__unwindtable$?GetValues@i3IniParser@@QAEHPBDPAMHH@Z
	DD	2 DUP(00H)
	DD	2 DUP(00H)
	DD	00H
	DD	01H
xdata$x	ENDS
;	COMDAT xdata$x
xdata$x	SEGMENT
__unwindtable$?GetValues@i3IniParser@@QAEHPBDPAHHH@Z DD 0ffffffffH
	DD	FLAT:__unwindfunclet$?GetValues@i3IniParser@@QAEHPBDPAHHH@Z$0
__ehfuncinfo$?GetValues@i3IniParser@@QAEHPBDPAHHH@Z DD 019930522H
	DD	01H
	DD	FLAT:__unwindtable$?GetValues@i3IniParser@@QAEHPBDPAHHH@Z
	DD	2 DUP(00H)
	DD	2 DUP(00H)
	DD	00H
	DD	01H
xdata$x	ENDS
;	COMDAT xdata$x
xdata$x	SEGMENT
__ehfuncinfo$??1i3IniParser@@UAE@XZ DD 019930522H
	DD	00H
	DD	00H
	DD	2 DUP(00H)
	DD	2 DUP(00H)
	DD	00H
	DD	05H
xdata$x	ENDS
;	COMDAT xdata$x
xdata$x	SEGMENT
__unwindtable$??0i3IniParser@@QAE@XZ DD 0ffffffffH
	DD	FLAT:__unwindfunclet$??0i3IniParser@@QAE@XZ$0
__ehfuncinfo$??0i3IniParser@@QAE@XZ DD 019930522H
	DD	01H
	DD	FLAT:__unwindtable$??0i3IniParser@@QAE@XZ
	DD	2 DUP(00H)
	DD	2 DUP(00H)
	DD	00H
	DD	01H
xdata$x	ENDS
;	COMDAT voltbl
voltbl	SEGMENT
_volmd	DB	040H
voltbl	ENDS
;	COMDAT xdata$x
xdata$x	SEGMENT
__ehfuncinfo$??_Ei3StringList@@UAEPAXI@Z DD 019930522H
	DD	00H
	DD	00H
	DD	2 DUP(00H)
	DD	2 DUP(00H)
	DD	00H
	DD	05H
xdata$x	ENDS
;	COMDAT xdata$x
xdata$x	SEGMENT
__ehfuncinfo$??_Ei3List@@UAEPAXI@Z DD 019930522H
	DD	00H
	DD	00H
	DD	2 DUP(00H)
	DD	2 DUP(00H)
	DD	00H
	DD	05H
xdata$x	ENDS
;	COMDAT xdata$x
xdata$x	SEGMENT
__ehfuncinfo$??_Ei3XMLElement@@UAEPAXI@Z DD 019930522H
	DD	00H
	DD	00H
	DD	2 DUP(00H)
	DD	2 DUP(00H)
	DD	00H
	DD	05H
xdata$x	ENDS
;	COMDAT xdata$x
xdata$x	SEGMENT
__ehfuncinfo$??_ETiXmlPrinter@@UAEPAXI@Z DD 019930522H
	DD	00H
	DD	00H
	DD	2 DUP(00H)
	DD	2 DUP(00H)
	DD	00H
	DD	05H
xdata$x	ENDS
;	COMDAT xdata$x
xdata$x	SEGMENT
__unwindtable$??0TiXmlPrinter@@QAE@$$QAV0@@Z DD 0ffffffffH
	DD	FLAT:__unwindfunclet$??0TiXmlPrinter@@QAE@$$QAV0@@Z$0
	DD	00H
	DD	FLAT:__unwindfunclet$??0TiXmlPrinter@@QAE@$$QAV0@@Z$1
	DD	01H
	DD	FLAT:__unwindfunclet$??0TiXmlPrinter@@QAE@$$QAV0@@Z$2
__ehfuncinfo$??0TiXmlPrinter@@QAE@$$QAV0@@Z DD 019930522H
	DD	03H
	DD	FLAT:__unwindtable$??0TiXmlPrinter@@QAE@$$QAV0@@Z
	DD	2 DUP(00H)
	DD	2 DUP(00H)
	DD	00H
	DD	01H
xdata$x	ENDS
;	COMDAT xdata$x
xdata$x	SEGMENT
__unwindtable$??0TiXmlPrinter@@QAE@ABV0@@Z DD 0ffffffffH
	DD	FLAT:__unwindfunclet$??0TiXmlPrinter@@QAE@ABV0@@Z$0
	DD	00H
	DD	FLAT:__unwindfunclet$??0TiXmlPrinter@@QAE@ABV0@@Z$1
	DD	01H
	DD	FLAT:__unwindfunclet$??0TiXmlPrinter@@QAE@ABV0@@Z$2
__ehfuncinfo$??0TiXmlPrinter@@QAE@ABV0@@Z DD 019930522H
	DD	03H
	DD	FLAT:__unwindtable$??0TiXmlPrinter@@QAE@ABV0@@Z
	DD	2 DUP(00H)
	DD	2 DUP(00H)
	DD	00H
	DD	01H
xdata$x	ENDS
;	COMDAT xdata$x
xdata$x	SEGMENT
__unwindtable$??0TiXmlPrinter@@QAE@XZ DD 0ffffffffH
	DD	FLAT:__unwindfunclet$??0TiXmlPrinter@@QAE@XZ$0
	DD	00H
	DD	FLAT:__unwindfunclet$??0TiXmlPrinter@@QAE@XZ$1
	DD	01H
	DD	FLAT:__unwindfunclet$??0TiXmlPrinter@@QAE@XZ$2
__ehfuncinfo$??0TiXmlPrinter@@QAE@XZ DD 019930522H
	DD	03H
	DD	FLAT:__unwindtable$??0TiXmlPrinter@@QAE@XZ
	DD	2 DUP(00H)
	DD	2 DUP(00H)
	DD	00H
	DD	01H
xdata$x	ENDS
;	COMDAT xdata$x
xdata$x	SEGMENT
__ehfuncinfo$??_ETiXmlDocument@@UAEPAXI@Z DD 019930522H
	DD	00H
	DD	00H
	DD	2 DUP(00H)
	DD	2 DUP(00H)
	DD	00H
	DD	05H
xdata$x	ENDS
;	COMDAT xdata$x
xdata$x	SEGMENT
__ehfuncinfo$??_ETiXmlUnknown@@UAEPAXI@Z DD 019930522H
	DD	00H
	DD	00H
	DD	2 DUP(00H)
	DD	2 DUP(00H)
	DD	00H
	DD	05H
xdata$x	ENDS
;	COMDAT xdata$x
xdata$x	SEGMENT
__unwindtable$??0TiXmlUnknown@@QAE@ABV0@@Z DD 0ffffffffH
	DD	FLAT:__unwindfunclet$??0TiXmlUnknown@@QAE@ABV0@@Z$0
__ehfuncinfo$??0TiXmlUnknown@@QAE@ABV0@@Z DD 019930522H
	DD	01H
	DD	FLAT:__unwindtable$??0TiXmlUnknown@@QAE@ABV0@@Z
	DD	2 DUP(00H)
	DD	2 DUP(00H)
	DD	00H
	DD	01H
xdata$x	ENDS
;	COMDAT xdata$x
xdata$x	SEGMENT
__ehfuncinfo$??_ETiXmlDeclaration@@UAEPAXI@Z DD 019930522H
	DD	00H
	DD	00H
	DD	2 DUP(00H)
	DD	2 DUP(00H)
	DD	00H
	DD	05H
xdata$x	ENDS
;	COMDAT xdata$x
xdata$x	SEGMENT
__ehfuncinfo$??_ETiXmlText@@UAEPAXI@Z DD 019930522H
	DD	00H
	DD	00H
	DD	2 DUP(00H)
	DD	2 DUP(00H)
	DD	00H
	DD	05H
xdata$x	ENDS
;	COMDAT xdata$x
xdata$x	SEGMENT
__unwindtable$??0TiXmlText@@QAE@ABV0@@Z DD 0ffffffffH
	DD	FLAT:__unwindfunclet$??0TiXmlText@@QAE@ABV0@@Z$0
__ehfuncinfo$??0TiXmlText@@QAE@ABV0@@Z DD 019930522H
	DD	01H
	DD	FLAT:__unwindtable$??0TiXmlText@@QAE@ABV0@@Z
	DD	2 DUP(00H)
	DD	2 DUP(00H)
	DD	00H
	DD	01H
xdata$x	ENDS
;	COMDAT xdata$x
xdata$x	SEGMENT
__unwindtable$??0TiXmlText@@QAE@PBD@Z DD 0ffffffffH
	DD	FLAT:__unwindfunclet$??0TiXmlText@@QAE@PBD@Z$0
__ehfuncinfo$??0TiXmlText@@QAE@PBD@Z DD 019930522H
	DD	01H
	DD	FLAT:__unwindtable$??0TiXmlText@@QAE@PBD@Z
	DD	2 DUP(00H)
	DD	2 DUP(00H)
	DD	00H
	DD	01H
xdata$x	ENDS
;	COMDAT xdata$x
xdata$x	SEGMENT
__ehfuncinfo$??_ETiXmlComment@@UAEPAXI@Z DD 019930522H
	DD	00H
	DD	00H
	DD	2 DUP(00H)
	DD	2 DUP(00H)
	DD	00H
	DD	05H
xdata$x	ENDS
;	COMDAT xdata$x
xdata$x	SEGMENT
__unwindtable$??0TiXmlComment@@QAE@PBD@Z DD 0ffffffffH
	DD	FLAT:__unwindfunclet$??0TiXmlComment@@QAE@PBD@Z$0
__ehfuncinfo$??0TiXmlComment@@QAE@PBD@Z DD 019930522H
	DD	01H
	DD	FLAT:__unwindtable$??0TiXmlComment@@QAE@PBD@Z
	DD	2 DUP(00H)
	DD	2 DUP(00H)
	DD	00H
	DD	01H
xdata$x	ENDS
;	COMDAT xdata$x
xdata$x	SEGMENT
__ehfuncinfo$??_ETiXmlAttribute@@UAEPAXI@Z DD 019930522H
	DD	00H
	DD	00H
	DD	2 DUP(00H)
	DD	2 DUP(00H)
	DD	00H
	DD	05H
xdata$x	ENDS
;	COMDAT xdata$x
xdata$x	SEGMENT
__unwindtable$??0TiXmlAttribute@@QAE@PBD0@Z DD 0ffffffffH
	DD	FLAT:__unwindfunclet$??0TiXmlAttribute@@QAE@PBD0@Z$0
	DD	00H
	DD	FLAT:__unwindfunclet$??0TiXmlAttribute@@QAE@PBD0@Z$1
	DD	01H
	DD	FLAT:__unwindfunclet$??0TiXmlAttribute@@QAE@PBD0@Z$2
__ehfuncinfo$??0TiXmlAttribute@@QAE@PBD0@Z DD 019930522H
	DD	03H
	DD	FLAT:__unwindtable$??0TiXmlAttribute@@QAE@PBD0@Z
	DD	2 DUP(00H)
	DD	2 DUP(00H)
	DD	00H
	DD	01H
xdata$x	ENDS
;	COMDAT xdata$x
xdata$x	SEGMENT
__ehfuncinfo$??_ETiXmlBase@@UAEPAXI@Z DD 019930522H
	DD	00H
	DD	00H
	DD	2 DUP(00H)
	DD	2 DUP(00H)
	DD	00H
	DD	05H
xdata$x	ENDS
;	COMDAT xdata$x
xdata$x	SEGMENT
__ehfuncinfo$??_ETiXmlVisitor@@UAEPAXI@Z DD 019930522H
	DD	00H
	DD	00H
	DD	2 DUP(00H)
	DD	2 DUP(00H)
	DD	00H
	DD	05H
xdata$x	ENDS
;	COMDAT xdata$x
xdata$x	SEGMENT
__ehfuncinfo$??_Ei3FileStream@@UAEPAXI@Z DD 019930522H
	DD	00H
	DD	00H
	DD	2 DUP(00H)
	DD	2 DUP(00H)
	DD	00H
	DD	05H
xdata$x	ENDS
;	COMDAT xdata$x
xdata$x	SEGMENT
__ehfuncinfo$??_Ei3Stream@@UAEPAXI@Z DD 019930522H
	DD	00H
	DD	00H
	DD	2 DUP(00H)
	DD	2 DUP(00H)
	DD	00H
	DD	05H
xdata$x	ENDS
;	COMDAT xdata$x
xdata$x	SEGMENT
__ehfuncinfo$??_Ei3MemoryPool@@UAEPAXI@Z DD 019930522H
	DD	00H
	DD	00H
	DD	2 DUP(00H)
	DD	2 DUP(00H)
	DD	00H
	DD	05H
xdata$x	ENDS
;	COMDAT xdata$x
xdata$x	SEGMENT
__ehfuncinfo$??_Ei3ElementBase@@UAEPAXI@Z DD 019930522H
	DD	00H
	DD	00H
	DD	2 DUP(00H)
	DD	2 DUP(00H)
	DD	00H
	DD	05H
xdata$x	ENDS
;	COMDAT xdata$x
xdata$x	SEGMENT
__ehfuncinfo$??_Ei3ClassMeta@@UAEPAXI@Z DD 019930522H
	DD	00H
	DD	00H
	DD	2 DUP(00H)
	DD	2 DUP(00H)
	DD	00H
	DD	05H
xdata$x	ENDS
;	COMDAT voltbl
voltbl	SEGMENT
_volmd	DB	010H
voltbl	ENDS
;	COMDAT voltbl
voltbl	SEGMENT
_volmd	DB	010H
voltbl	ENDS
; Function compile flags: /Ogtp
;	COMDAT ??__Fs_ClassMetai3IniParser@@YAXXZ
text$yd	SEGMENT
??__Fs_ClassMetai3IniParser@@YAXXZ PROC			; `dynamic atexit destructor for 's_ClassMetai3IniParser'', COMDAT
  00000	b9 00 00 00 00	 mov	 ecx, OFFSET ?s_ClassMetai3IniParser@@3V?$i3MetaTemplate@Vi3IniParser@@@@A
  00005	e9 00 00 00 00	 jmp	 ??1i3ClassMeta@@UAE@XZ	; i3ClassMeta::~i3ClassMeta
??__Fs_ClassMetai3IniParser@@YAXXZ ENDP			; `dynamic atexit destructor for 's_ClassMetai3IniParser''
text$yd	ENDS
; Function compile flags: /Ogtp
; File E:\Proyectos\JuegosOnlineproyectos\PB\pbblow\Piercing Blow Remake\i3Server\src\i3Base\i3IniParser.cpp
; File E:\Proyectos\JuegosOnlineproyectos\PB\pbblow\Piercing Blow Remake\i3Server\include\i3Base\i3MetaTemplate.h
; File E:\Proyectos\JuegosOnlineproyectos\PB\pbblow\Piercing Blow Remake\i3Server\src\i3Base\i3IniParser.cpp
; File E:\Proyectos\JuegosOnlineproyectos\PB\pbblow\Piercing Blow Remake\i3Server\include\i3Base\i3MetaTemplate.h
; File E:\Proyectos\JuegosOnlineproyectos\PB\pbblow\Piercing Blow Remake\i3Server\src\i3Base\i3IniParser.cpp
;	COMDAT ??__Es_ClassMetai3IniParser@@YAXXZ
text$di	SEGMENT
??__Es_ClassMetai3IniParser@@YAXXZ PROC			; `dynamic initializer for 's_ClassMetai3IniParser'', COMDAT
; File E:\Proyectos\JuegosOnlineproyectos\PB\pbblow\Piercing Blow Remake\i3Server\include\i3Base\i3MetaTemplate.h

; 28   : : i3ClassMeta( classSz, pszClassName, pszBaseClassName, type)

  00000	6a 00		 push	 0
  00002	68 00 00 00 00	 push	 OFFSET ??_C@_0O@OCDFBOHM@i3ElementBase@
  00007	68 00 00 00 00	 push	 OFFSET ??_C@_0M@PAADBEPC@i3IniParser@
  0000c	68 b4 04 00 00	 push	 1204			; 000004b4H
  00011	b9 00 00 00 00	 mov	 ecx, OFFSET ?s_ClassMetai3IniParser@@3V?$i3MetaTemplate@Vi3IniParser@@@@A
  00016	e8 00 00 00 00	 call	 ??0i3ClassMeta@@QAE@IPAD0W4I3_CLASSMETA_TYPE@@@Z ; i3ClassMeta::i3ClassMeta
; File E:\Proyectos\JuegosOnlineproyectos\PB\pbblow\Piercing Blow Remake\i3Server\src\i3Base\i3IniParser.cpp

; 12   : I3_CLASS_INSTANCE(i3IniParser, i3ElementBase);

  0001b	68 00 00 00 00	 push	 OFFSET ??__Fs_ClassMetai3IniParser@@YAXXZ ; `dynamic atexit destructor for 's_ClassMetai3IniParser''
; File E:\Proyectos\JuegosOnlineproyectos\PB\pbblow\Piercing Blow Remake\i3Server\include\i3Base\i3MetaTemplate.h

; 29   : {

  00020	c7 05 00 00 00
	00 00 00 00 00	 mov	 DWORD PTR ?s_ClassMetai3IniParser@@3V?$i3MetaTemplate@Vi3IniParser@@@@A, OFFSET ??_7?$i3MetaTemplate@Vi3IniParser@@@@6B@
; File E:\Proyectos\JuegosOnlineproyectos\PB\pbblow\Piercing Blow Remake\i3Server\src\i3Base\i3IniParser.cpp

; 12   : I3_CLASS_INSTANCE(i3IniParser, i3ElementBase);

  0002a	e8 00 00 00 00	 call	 _atexit
  0002f	59		 pop	 ecx
  00030	c3		 ret	 0
??__Es_ClassMetai3IniParser@@YAXXZ ENDP			; `dynamic initializer for 's_ClassMetai3IniParser''
text$di	ENDS
; Function compile flags: /Ogtp
;	COMDAT ??_G?$i3MetaTemplate@Vi3IniParser@@@@UAEPAXI@Z
_TEXT	SEGMENT
___flags$ = 8						; size = 4
??_G?$i3MetaTemplate@Vi3IniParser@@@@UAEPAXI@Z PROC	; i3MetaTemplate<i3IniParser>::`scalar deleting destructor', COMDAT
; _this$ = ecx
  00000	55		 push	 ebp
  00001	8b ec		 mov	 ebp, esp
  00003	56		 push	 esi
  00004	8b f1		 mov	 esi, ecx
  00006	e8 00 00 00 00	 call	 ??1i3ClassMeta@@UAE@XZ	; i3ClassMeta::~i3ClassMeta
  0000b	f6 45 08 01	 test	 BYTE PTR ___flags$[ebp], 1
  0000f	74 0b		 je	 SHORT $LN10@scalar
  00011	6a 38		 push	 56			; 00000038H
  00013	56		 push	 esi
  00014	e8 00 00 00 00	 call	 ??3@YAXPAXI@Z		; operator delete
  00019	83 c4 08	 add	 esp, 8
$LN10@scalar:
  0001c	8b c6		 mov	 eax, esi
  0001e	5e		 pop	 esi
  0001f	5d		 pop	 ebp
  00020	c2 04 00	 ret	 4
??_G?$i3MetaTemplate@Vi3IniParser@@@@UAEPAXI@Z ENDP	; i3MetaTemplate<i3IniParser>::`scalar deleting destructor'
_TEXT	ENDS
; Function compile flags: /Ogtp
; File E:\Proyectos\JuegosOnlineproyectos\PB\pbblow\Piercing Blow Remake\i3Server\include\i3Base\i3MetaTemplate.h
;	COMDAT ?BindInstance@?$i3MetaTemplate@Vi3IniParser@@@@UAEPAVi3ElementBase@@PAXW4I3_CLASSMETA_TYPE@@@Z
_TEXT	SEGMENT
__$EHRec$ = -12						; size = 12
_pBuf$ = 8						; size = 4
_type$ = 12						; size = 4
$T2 = 12						; size = 4
?BindInstance@?$i3MetaTemplate@Vi3IniParser@@@@UAEPAVi3ElementBase@@PAXW4I3_CLASSMETA_TYPE@@@Z PROC ; i3MetaTemplate<i3IniParser>::BindInstance, COMDAT
; _this$ = ecx

; 129  : 	{

  00000	55		 push	 ebp
  00001	8b ec		 mov	 ebp, esp
  00003	6a ff		 push	 -1
  00005	68 00 00 00 00	 push	 __ehhandler$?BindInstance@?$i3MetaTemplate@Vi3IniParser@@@@UAEPAVi3ElementBase@@PAXW4I3_CLASSMETA_TYPE@@@Z
  0000a	64 a1 00 00 00
	00		 mov	 eax, DWORD PTR fs:0
  00010	50		 push	 eax
  00011	a1 00 00 00 00	 mov	 eax, DWORD PTR ___security_cookie
  00016	33 c5		 xor	 eax, ebp
  00018	50		 push	 eax
  00019	8d 45 f4	 lea	 eax, DWORD PTR __$EHRec$[ebp]
  0001c	64 a3 00 00 00
	00		 mov	 DWORD PTR fs:0, eax

; 130  : 		if( m_ProxyCount > 0)

  00022	83 79 30 00	 cmp	 DWORD PTR [ecx+48], 0
  00026	7e 25		 jle	 SHORT $LN2@BindInstan

; 131  : 		{
; 132  : 			i3ClassMeta * pMeta = GetConcreteClass( type);

  00028	ff 75 0c	 push	 DWORD PTR _type$[ebp]
  0002b	e8 00 00 00 00	 call	 ?GetConcreteClass@i3ClassMeta@@QAEPAV1@W4I3_CLASSMETA_TYPE@@@Z ; i3ClassMeta::GetConcreteClass

; 133  : 
; 134  : 			return pMeta->BindInstance( pBuf, I3_CLASSMETA_TYPE_GENERAL);

  00030	6a 00		 push	 0
  00032	ff 75 08	 push	 DWORD PTR _pBuf$[ebp]
  00035	8b c8		 mov	 ecx, eax
  00037	8b 10		 mov	 edx, DWORD PTR [eax]
  00039	ff 52 08	 call	 DWORD PTR [edx+8]

; 142  : 			#endif
; 143  : 		}
; 144  : 	}

  0003c	8b 4d f4	 mov	 ecx, DWORD PTR __$EHRec$[ebp]
  0003f	64 89 0d 00 00
	00 00		 mov	 DWORD PTR fs:0, ecx
  00046	59		 pop	 ecx
  00047	8b e5		 mov	 esp, ebp
  00049	5d		 pop	 ebp
  0004a	c2 08 00	 ret	 8
$LN2@BindInstan:

; 135  : 		}
; 136  : 		else
; 137  : 		{
; 138  : 			#if defined( I3_DEBUG)
; 139  : 				return (i3ElementBase *) new( pBuf ) T;
; 140  : 			#else
; 141  : 				return (i3ElementBase *) new( pBuf ) T;

  0004d	ff 75 08	 push	 DWORD PTR _pBuf$[ebp]
  00050	68 b4 04 00 00	 push	 1204			; 000004b4H
  00055	e8 00 00 00 00	 call	 ??2i3ElementBase@@SAPAXIPAX@Z ; i3ElementBase::operator new
  0005a	83 c4 08	 add	 esp, 8
  0005d	89 45 0c	 mov	 DWORD PTR $T2[ebp], eax
  00060	c7 45 fc 00 00
	00 00		 mov	 DWORD PTR __$EHRec$[ebp+8], 0
  00067	85 c0		 test	 eax, eax
  00069	74 18		 je	 SHORT $LN5@BindInstan
  0006b	8b c8		 mov	 ecx, eax
  0006d	e8 00 00 00 00	 call	 ??0i3IniParser@@QAE@XZ	; i3IniParser::i3IniParser

; 142  : 			#endif
; 143  : 		}
; 144  : 	}

  00072	8b 4d f4	 mov	 ecx, DWORD PTR __$EHRec$[ebp]
  00075	64 89 0d 00 00
	00 00		 mov	 DWORD PTR fs:0, ecx
  0007c	59		 pop	 ecx
  0007d	8b e5		 mov	 esp, ebp
  0007f	5d		 pop	 ebp
  00080	c2 08 00	 ret	 8
$LN5@BindInstan:

; 135  : 		}
; 136  : 		else
; 137  : 		{
; 138  : 			#if defined( I3_DEBUG)
; 139  : 				return (i3ElementBase *) new( pBuf ) T;
; 140  : 			#else
; 141  : 				return (i3ElementBase *) new( pBuf ) T;

  00083	33 c0		 xor	 eax, eax

; 142  : 			#endif
; 143  : 		}
; 144  : 	}

  00085	8b 4d f4	 mov	 ecx, DWORD PTR __$EHRec$[ebp]
  00088	64 89 0d 00 00
	00 00		 mov	 DWORD PTR fs:0, ecx
  0008f	59		 pop	 ecx
  00090	8b e5		 mov	 esp, ebp
  00092	5d		 pop	 ebp
  00093	c2 08 00	 ret	 8
_TEXT	ENDS
;	COMDAT text$x
text$x	SEGMENT
__unwindfunclet$?BindInstance@?$i3MetaTemplate@Vi3IniParser@@@@UAEPAVi3ElementBase@@PAXW4I3_CLASSMETA_TYPE@@@Z$0:
  00000	8b 45 08	 mov	 eax, DWORD PTR _pBuf$[ebp]
  00003	50		 push	 eax
  00004	8b 45 0c	 mov	 eax, DWORD PTR $T2[ebp]
  00007	50		 push	 eax
  00008	e8 00 00 00 00	 call	 ??3i3ElementBase@@SAXPAX0@Z ; i3ElementBase::operator delete
  0000d	83 c4 08	 add	 esp, 8
  00010	c3		 ret	 0
  00011	cc		 int	 3
  00012	cc		 int	 3
  00013	cc		 int	 3
  00014	cc		 int	 3
  00015	cc		 int	 3
__ehhandler$?BindInstance@?$i3MetaTemplate@Vi3IniParser@@@@UAEPAVi3ElementBase@@PAXW4I3_CLASSMETA_TYPE@@@Z:
  00016	90		 npad	 1
  00017	90		 npad	 1
  00018	8b 54 24 08	 mov	 edx, DWORD PTR [esp+8]
  0001c	8d 42 0c	 lea	 eax, DWORD PTR [edx+12]
  0001f	8b 4a fc	 mov	 ecx, DWORD PTR [edx-4]
  00022	33 c8		 xor	 ecx, eax
  00024	e8 00 00 00 00	 call	 @__security_check_cookie@4
  00029	b8 00 00 00 00	 mov	 eax, OFFSET __ehfuncinfo$?BindInstance@?$i3MetaTemplate@Vi3IniParser@@@@UAEPAVi3ElementBase@@PAXW4I3_CLASSMETA_TYPE@@@Z
  0002e	e9 00 00 00 00	 jmp	 ___CxxFrameHandler3
text$x	ENDS
?BindInstance@?$i3MetaTemplate@Vi3IniParser@@@@UAEPAVi3ElementBase@@PAXW4I3_CLASSMETA_TYPE@@@Z ENDP ; i3MetaTemplate<i3IniParser>::BindInstance
; Function compile flags: /Ogtp
; File E:\Proyectos\JuegosOnlineproyectos\PB\pbblow\Piercing Blow Remake\i3Server\include\i3Base\i3MetaTemplate.h
; File E:\Proyectos\JuegosOnlineproyectos\PB\pbblow\Piercing Blow Remake\i3Server\include\i3Base\i3ElementBase.h
; File E:\Proyectos\JuegosOnlineproyectos\PB\pbblow\Piercing Blow Remake\i3Server\include\i3Base\i3MetaTemplate.h
; File E:\Proyectos\JuegosOnlineproyectos\PB\pbblow\Piercing Blow Remake\i3Server\include\i3Base\i3ElementBase.h
; File E:\Proyectos\JuegosOnlineproyectos\PB\pbblow\Piercing Blow Remake\i3Server\include\i3Base\i3MetaTemplate.h
;	COMDAT ?CreateInstance@?$i3MetaTemplate@Vi3IniParser@@@@UAEPAVi3ElementBase@@W4I3_CLASSMETA_TYPE@@@Z
_TEXT	SEGMENT
__$EHRec$ = -12						; size = 12
_type$ = 8						; size = 4
$T2 = 8							; size = 4
?CreateInstance@?$i3MetaTemplate@Vi3IniParser@@@@UAEPAVi3ElementBase@@W4I3_CLASSMETA_TYPE@@@Z PROC ; i3MetaTemplate<i3IniParser>::CreateInstance, COMDAT
; _this$ = ecx

; 97   : 	{

  00000	55		 push	 ebp
  00001	8b ec		 mov	 ebp, esp
  00003	6a ff		 push	 -1
  00005	68 00 00 00 00	 push	 __ehhandler$?CreateInstance@?$i3MetaTemplate@Vi3IniParser@@@@UAEPAVi3ElementBase@@W4I3_CLASSMETA_TYPE@@@Z
  0000a	64 a1 00 00 00
	00		 mov	 eax, DWORD PTR fs:0
  00010	50		 push	 eax
  00011	56		 push	 esi
  00012	57		 push	 edi
  00013	a1 00 00 00 00	 mov	 eax, DWORD PTR ___security_cookie
  00018	33 c5		 xor	 eax, ebp
  0001a	50		 push	 eax
  0001b	8d 45 f4	 lea	 eax, DWORD PTR __$EHRec$[ebp]
  0001e	64 a3 00 00 00
	00		 mov	 DWORD PTR fs:0, eax
  00024	8b f9		 mov	 edi, ecx

; 98   : 		if( m_ProxyCount > 0)

  00026	83 7f 30 00	 cmp	 DWORD PTR [edi+48], 0
  0002a	7e 28		 jle	 SHORT $LN3@CreateInst

; 99   : 		{
; 100  : 			i3ClassMeta * pMeta = GetConcreteClass( type);

  0002c	ff 75 08	 push	 DWORD PTR _type$[ebp]
  0002f	e8 00 00 00 00	 call	 ?GetConcreteClass@i3ClassMeta@@QAEPAV1@W4I3_CLASSMETA_TYPE@@@Z ; i3ClassMeta::GetConcreteClass

; 101  : 
; 102  : 			if( pMeta != NULL)

  00034	85 c0		 test	 eax, eax
  00036	74 1c		 je	 SHORT $LN3@CreateInst

; 103  : 				return pMeta->CreateInstance( I3_CLASSMETA_TYPE_GENERAL);

  00038	8b 10		 mov	 edx, DWORD PTR [eax]
  0003a	8b c8		 mov	 ecx, eax
  0003c	6a 00		 push	 0
  0003e	ff 52 04	 call	 DWORD PTR [edx+4]

; 125  : 	}

  00041	8b 4d f4	 mov	 ecx, DWORD PTR __$EHRec$[ebp]
  00044	64 89 0d 00 00
	00 00		 mov	 DWORD PTR fs:0, ecx
  0004b	59		 pop	 ecx
  0004c	5f		 pop	 edi
  0004d	5e		 pop	 esi
  0004e	8b e5		 mov	 esp, ebp
  00050	5d		 pop	 ebp
  00051	c2 04 00	 ret	 4
$LN3@CreateInst:

; 104  : 		}
; 105  : 
; 106  : 		{
; 107  : 			if( m_pPool == NULL)

  00054	8b 4f 34	 mov	 ecx, DWORD PTR [edi+52]
  00057	85 c9		 test	 ecx, ecx
  00059	75 4a		 jne	 SHORT $LN4@CreateInst

; 108  : 			{
; 109  : 				#if defined( I3_DEBUG)
; 110  : 					return (i3ElementBase *) new T;
; 111  : 				#else
; 112  : 					return (i3ElementBase *) new T;

  0005b	68 b4 04 00 00	 push	 1204			; 000004b4H
  00060	e8 00 00 00 00	 call	 ??2i3ElementBase@@SAPAXI@Z ; i3ElementBase::operator new
  00065	83 c4 04	 add	 esp, 4
  00068	89 45 08	 mov	 DWORD PTR $T2[ebp], eax
  0006b	c7 45 fc 00 00
	00 00		 mov	 DWORD PTR __$EHRec$[ebp+8], 0
  00072	85 c0		 test	 eax, eax
  00074	74 1a		 je	 SHORT $LN7@CreateInst
  00076	8b c8		 mov	 ecx, eax
  00078	e8 00 00 00 00	 call	 ??0i3IniParser@@QAE@XZ	; i3IniParser::i3IniParser

; 125  : 	}

  0007d	8b 4d f4	 mov	 ecx, DWORD PTR __$EHRec$[ebp]
  00080	64 89 0d 00 00
	00 00		 mov	 DWORD PTR fs:0, ecx
  00087	59		 pop	 ecx
  00088	5f		 pop	 edi
  00089	5e		 pop	 esi
  0008a	8b e5		 mov	 esp, ebp
  0008c	5d		 pop	 ebp
  0008d	c2 04 00	 ret	 4
$LN7@CreateInst:

; 108  : 			{
; 109  : 				#if defined( I3_DEBUG)
; 110  : 					return (i3ElementBase *) new T;
; 111  : 				#else
; 112  : 					return (i3ElementBase *) new T;

  00090	33 c0		 xor	 eax, eax

; 125  : 	}

  00092	8b 4d f4	 mov	 ecx, DWORD PTR __$EHRec$[ebp]
  00095	64 89 0d 00 00
	00 00		 mov	 DWORD PTR fs:0, ecx
  0009c	59		 pop	 ecx
  0009d	5f		 pop	 edi
  0009e	5e		 pop	 esi
  0009f	8b e5		 mov	 esp, ebp
  000a1	5d		 pop	 ebp
  000a2	c2 04 00	 ret	 4
$LN4@CreateInst:

; 113  : 				#endif
; 114  : 			}
; 115  : 			else
; 116  : 			{
; 117  : 				i3ElementBase * p = (i3ElementBase *) m_pPool->Alloc( sizeof(T), NULL, 0);

  000a5	8b 01		 mov	 eax, DWORD PTR [ecx]
  000a7	6a 00		 push	 0
  000a9	6a 00		 push	 0
  000ab	68 b4 04 00 00	 push	 1204			; 000004b4H
  000b0	ff 50 04	 call	 DWORD PTR [eax+4]

; 118  : 	
; 119  : 				BindInstance( p, type);

  000b3	ff 75 08	 push	 DWORD PTR _type$[ebp]
  000b6	8b 17		 mov	 edx, DWORD PTR [edi]
  000b8	8b f0		 mov	 esi, eax
  000ba	56		 push	 esi
  000bb	8b cf		 mov	 ecx, edi
  000bd	ff 52 08	 call	 DWORD PTR [edx+8]
; File E:\Proyectos\JuegosOnlineproyectos\PB\pbblow\Piercing Blow Remake\i3Server\include\i3Base\i3ElementBase.h

; 347  : 	void			__SetMemoryPool( i3MemoryPool * pPool)			{ m_pPool = pPool; }

  000c0	8b 4f 34	 mov	 ecx, DWORD PTR [edi+52]
; File E:\Proyectos\JuegosOnlineproyectos\PB\pbblow\Piercing Blow Remake\i3Server\include\i3Base\i3MetaTemplate.h

; 122  : 				return p;

  000c3	8b c6		 mov	 eax, esi
; File E:\Proyectos\JuegosOnlineproyectos\PB\pbblow\Piercing Blow Remake\i3Server\include\i3Base\i3ElementBase.h

; 347  : 	void			__SetMemoryPool( i3MemoryPool * pPool)			{ m_pPool = pPool; }

  000c5	89 4e 0c	 mov	 DWORD PTR [esi+12], ecx
; File E:\Proyectos\JuegosOnlineproyectos\PB\pbblow\Piercing Blow Remake\i3Server\include\i3Base\i3MetaTemplate.h

; 125  : 	}

  000c8	8b 4d f4	 mov	 ecx, DWORD PTR __$EHRec$[ebp]
  000cb	64 89 0d 00 00
	00 00		 mov	 DWORD PTR fs:0, ecx
  000d2	59		 pop	 ecx
  000d3	5f		 pop	 edi
  000d4	5e		 pop	 esi
  000d5	8b e5		 mov	 esp, ebp
  000d7	5d		 pop	 ebp
  000d8	c2 04 00	 ret	 4
_TEXT	ENDS
;	COMDAT text$x
text$x	SEGMENT
__unwindfunclet$?CreateInstance@?$i3MetaTemplate@Vi3IniParser@@@@UAEPAVi3ElementBase@@W4I3_CLASSMETA_TYPE@@@Z$0:
  00000	8b 45 08	 mov	 eax, DWORD PTR $T2[ebp]
  00003	50		 push	 eax
  00004	e8 00 00 00 00	 call	 ??3i3ElementBase@@SAXPAX@Z ; i3ElementBase::operator delete
  00009	59		 pop	 ecx
  0000a	c3		 ret	 0
  0000b	cc		 int	 3
  0000c	cc		 int	 3
  0000d	cc		 int	 3
  0000e	cc		 int	 3
  0000f	cc		 int	 3
__ehhandler$?CreateInstance@?$i3MetaTemplate@Vi3IniParser@@@@UAEPAVi3ElementBase@@W4I3_CLASSMETA_TYPE@@@Z:
  00010	90		 npad	 1
  00011	90		 npad	 1
  00012	8b 54 24 08	 mov	 edx, DWORD PTR [esp+8]
  00016	8d 42 0c	 lea	 eax, DWORD PTR [edx+12]
  00019	8b 4a f4	 mov	 ecx, DWORD PTR [edx-12]
  0001c	33 c8		 xor	 ecx, eax
  0001e	e8 00 00 00 00	 call	 @__security_check_cookie@4
  00023	b8 00 00 00 00	 mov	 eax, OFFSET __ehfuncinfo$?CreateInstance@?$i3MetaTemplate@Vi3IniParser@@@@UAEPAVi3ElementBase@@W4I3_CLASSMETA_TYPE@@@Z
  00028	e9 00 00 00 00	 jmp	 ___CxxFrameHandler3
text$x	ENDS
?CreateInstance@?$i3MetaTemplate@Vi3IniParser@@@@UAEPAVi3ElementBase@@W4I3_CLASSMETA_TYPE@@@Z ENDP ; i3MetaTemplate<i3IniParser>::CreateInstance
; Function compile flags: /Ogtp
; File E:\Proyectos\JuegosOnlineproyectos\PB\pbblow\Piercing Blow Remake\i3Server\include\i3Base\i3MetaTemplate.h
;	COMDAT ??0?$i3MetaTemplate@Vi3IniParser@@@@QAE@IPAD0W4I3_CLASSMETA_TYPE@@@Z
_TEXT	SEGMENT
_this$ = -4						; size = 4
_classSz$ = 8						; size = 4
_pszClassName$ = 12					; size = 4
_pszBaseClassName$ = 16					; size = 4
_type$ = 20						; size = 4
??0?$i3MetaTemplate@Vi3IniParser@@@@QAE@IPAD0W4I3_CLASSMETA_TYPE@@@Z PROC ; i3MetaTemplate<i3IniParser>::i3MetaTemplate<i3IniParser>, COMDAT
; _this$ = ecx

; 29   : {

  00000	55		 push	 ebp
  00001	8b ec		 mov	 ebp, esp
  00003	51		 push	 ecx
  00004	56		 push	 esi
  00005	ff 75 14	 push	 DWORD PTR _type$[ebp]
  00008	8b f1		 mov	 esi, ecx
  0000a	ff 75 10	 push	 DWORD PTR _pszBaseClassName$[ebp]
  0000d	89 75 fc	 mov	 DWORD PTR _this$[ebp], esi
  00010	ff 75 0c	 push	 DWORD PTR _pszClassName$[ebp]
  00013	ff 75 08	 push	 DWORD PTR _classSz$[ebp]
  00016	e8 00 00 00 00	 call	 ??0i3ClassMeta@@QAE@IPAD0W4I3_CLASSMETA_TYPE@@@Z ; i3ClassMeta::i3ClassMeta
  0001b	c7 06 00 00 00
	00		 mov	 DWORD PTR [esi], OFFSET ??_7?$i3MetaTemplate@Vi3IniParser@@@@6B@

; 30   : }

  00021	8b c6		 mov	 eax, esi
  00023	5e		 pop	 esi
  00024	8b e5		 mov	 esp, ebp
  00026	5d		 pop	 ebp
  00027	c2 10 00	 ret	 16			; 00000010H
??0?$i3MetaTemplate@Vi3IniParser@@@@QAE@IPAD0W4I3_CLASSMETA_TYPE@@@Z ENDP ; i3MetaTemplate<i3IniParser>::i3MetaTemplate<i3IniParser>
_TEXT	ENDS
; Function compile flags: /Ogtp
; File E:\Proyectos\JuegosOnlineproyectos\PB\pbblow\Piercing Blow Remake\i3Server\src\i3Base\i3IniParser.cpp
;	COMDAT ??_Ei3Timer@@UAEPAXI@Z
_TEXT	SEGMENT
__$EHRec$ = -12						; size = 12
___flags$ = 8						; size = 4
??_Ei3Timer@@UAEPAXI@Z PROC				; i3Timer::`vector deleting destructor', COMDAT
; _this$ = ecx
  00000	55		 push	 ebp
  00001	8b ec		 mov	 ebp, esp
  00003	6a ff		 push	 -1
  00005	68 00 00 00 00	 push	 __ehhandler$??_Ei3Timer@@UAEPAXI@Z
  0000a	64 a1 00 00 00
	00		 mov	 eax, DWORD PTR fs:0
  00010	50		 push	 eax
  00011	53		 push	 ebx
  00012	56		 push	 esi
  00013	57		 push	 edi
  00014	a1 00 00 00 00	 mov	 eax, DWORD PTR ___security_cookie
  00019	33 c5		 xor	 eax, ebp
  0001b	50		 push	 eax
  0001c	8d 45 f4	 lea	 eax, DWORD PTR __$EHRec$[ebp]
  0001f	64 a3 00 00 00
	00		 mov	 DWORD PTR fs:0, eax
  00025	8b f1		 mov	 esi, ecx
  00027	8b 5d 08	 mov	 ebx, DWORD PTR ___flags$[ebp]
  0002a	8b fb		 mov	 edi, ebx
  0002c	83 e7 01	 and	 edi, 1
  0002f	f6 c3 02	 test	 bl, 2
  00032	74 43		 je	 SHORT $LN2@vector
  00034	68 00 00 00 00	 push	 OFFSET ??1i3Timer@@UAE@XZ ; i3Timer::~i3Timer
  00039	ff 76 fc	 push	 DWORD PTR [esi-4]
  0003c	8d 5e fc	 lea	 ebx, DWORD PTR [esi-4]
  0003f	6a 28		 push	 40			; 00000028H
  00041	56		 push	 esi
  00042	e8 00 00 00 00	 call	 ??_M@YGXPAXIIP6EX0@Z@Z
  00047	85 ff		 test	 edi, edi
  00049	74 16		 je	 SHORT $LN3@vector
  0004b	8b 0b		 mov	 ecx, DWORD PTR [ebx]
  0004d	8d 0c 89	 lea	 ecx, DWORD PTR [ecx+ecx*4]
  00050	8d 0c cd 04 00
	00 00		 lea	 ecx, DWORD PTR [ecx*8+4]
  00057	51		 push	 ecx
  00058	53		 push	 ebx
  00059	e8 00 00 00 00	 call	 ??_V@YAXPAXI@Z		; operator delete[]
  0005e	83 c4 08	 add	 esp, 8
$LN3@vector:
  00061	8b c3		 mov	 eax, ebx
  00063	8b 4d f4	 mov	 ecx, DWORD PTR __$EHRec$[ebp]
  00066	64 89 0d 00 00
	00 00		 mov	 DWORD PTR fs:0, ecx
  0006d	59		 pop	 ecx
  0006e	5f		 pop	 edi
  0006f	5e		 pop	 esi
  00070	5b		 pop	 ebx
  00071	8b e5		 mov	 esp, ebp
  00073	5d		 pop	 ebp
  00074	c2 04 00	 ret	 4
$LN2@vector:
  00077	e8 00 00 00 00	 call	 ??1i3Timer@@UAE@XZ	; i3Timer::~i3Timer
  0007c	85 ff		 test	 edi, edi
  0007e	74 1b		 je	 SHORT $LN6@vector
  00080	f6 c3 04	 test	 bl, 4
  00083	75 0b		 jne	 SHORT $LN5@vector
  00085	56		 push	 esi
  00086	e8 00 00 00 00	 call	 ??3i3ElementBase@@SAXPAX@Z ; i3ElementBase::operator delete
  0008b	83 c4 04	 add	 esp, 4
  0008e	eb 0b		 jmp	 SHORT $LN6@vector
$LN5@vector:

  00090	6a 28		 push	 40			; 00000028H
  00092	56		 push	 esi
  00093	e8 00 00 00 00	 call	 ??3@YAXPAXI@Z		; operator delete
  00098	83 c4 08	 add	 esp, 8
$LN6@vector:
  0009b	8b c6		 mov	 eax, esi
  0009d	8b 4d f4	 mov	 ecx, DWORD PTR __$EHRec$[ebp]
  000a0	64 89 0d 00 00
	00 00		 mov	 DWORD PTR fs:0, ecx
  000a7	59		 pop	 ecx
  000a8	5f		 pop	 edi
  000a9	5e		 pop	 esi
  000aa	5b		 pop	 ebx
  000ab	8b e5		 mov	 esp, ebp
  000ad	5d		 pop	 ebp
  000ae	c2 04 00	 ret	 4
  000b1	cc		 int	 3
  000b2	cc		 int	 3
  000b3	cc		 int	 3
  000b4	cc		 int	 3
  000b5	cc		 int	 3
_TEXT	ENDS
;	COMDAT text$x
text$x	SEGMENT
__ehhandler$??_Ei3Timer@@UAEPAXI@Z:
  00000	90		 npad	 1
  00001	90		 npad	 1
  00002	8b 54 24 08	 mov	 edx, DWORD PTR [esp+8]
  00006	8d 42 0c	 lea	 eax, DWORD PTR [edx+12]
  00009	8b 4a f0	 mov	 ecx, DWORD PTR [edx-16]
  0000c	33 c8		 xor	 ecx, eax
  0000e	e8 00 00 00 00	 call	 @__security_check_cookie@4
  00013	b8 00 00 00 00	 mov	 eax, OFFSET __ehfuncinfo$??_Ei3Timer@@UAEPAXI@Z
  00018	e9 00 00 00 00	 jmp	 ___CxxFrameHandler3
text$x	ENDS
??_Ei3Timer@@UAEPAXI@Z ENDP				; i3Timer::`vector deleting destructor'
; Function compile flags: /Ogtp
; File E:\Proyectos\JuegosOnlineproyectos\PB\pbblow\Piercing Blow Remake\i3Server\src\i3Base\i3IniParser.cpp
;	COMDAT ??_Gi3Timer@@UAEPAXI@Z
_TEXT	SEGMENT
___flags$ = 8						; size = 4
??_Gi3Timer@@UAEPAXI@Z PROC				; i3Timer::`scalar deleting destructor', COMDAT
; _this$ = ecx
  00000	55		 push	 ebp
  00001	8b ec		 mov	 ebp, esp
  00003	56		 push	 esi
  00004	8b f1		 mov	 esi, ecx
  00006	e8 00 00 00 00	 call	 ??1i3Timer@@UAE@XZ	; i3Timer::~i3Timer
  0000b	8b 45 08	 mov	 eax, DWORD PTR ___flags$[ebp]
  0000e	a8 01		 test	 al, 1
  00010	74 1f		 je	 SHORT $LN10@scalar
  00012	a8 04		 test	 al, 4
  00014	75 10		 jne	 SHORT $LN3@scalar
  00016	56		 push	 esi
  00017	e8 00 00 00 00	 call	 ??3i3ElementBase@@SAXPAX@Z ; i3ElementBase::operator delete
  0001c	83 c4 04	 add	 esp, 4
  0001f	8b c6		 mov	 eax, esi
  00021	5e		 pop	 esi
  00022	5d		 pop	 ebp
  00023	c2 04 00	 ret	 4
$LN3@scalar:

  00026	6a 28		 push	 40			; 00000028H
  00028	56		 push	 esi
  00029	e8 00 00 00 00	 call	 ??3@YAXPAXI@Z		; operator delete
  0002e	83 c4 08	 add	 esp, 8
$LN10@scalar:
  00031	8b c6		 mov	 eax, esi
  00033	5e		 pop	 esi
  00034	5d		 pop	 ebp
  00035	c2 04 00	 ret	 4
??_Gi3Timer@@UAEPAXI@Z ENDP				; i3Timer::`scalar deleting destructor'
_TEXT	ENDS
; Function compile flags: /Ogtp
;	COMDAT ??4i3Timer@@QAEAAV0@ABV0@@Z
_TEXT	SEGMENT
___that$ = 8						; size = 4
??4i3Timer@@QAEAAV0@ABV0@@Z PROC			; i3Timer::operator=, COMDAT
; _this$ = ecx
  00000	55		 push	 ebp
  00001	8b ec		 mov	 ebp, esp
  00003	8b 55 08	 mov	 edx, DWORD PTR ___that$[ebp]
  00006	56		 push	 esi
  00007	8b f1		 mov	 esi, ecx
  00009	8b 42 04	 mov	 eax, DWORD PTR [edx+4]
  0000c	89 46 04	 mov	 DWORD PTR [esi+4], eax
  0000f	8b 42 08	 mov	 eax, DWORD PTR [edx+8]
  00012	89 46 08	 mov	 DWORD PTR [esi+8], eax
  00015	8b 42 0c	 mov	 eax, DWORD PTR [edx+12]
  00018	89 46 0c	 mov	 DWORD PTR [esi+12], eax
  0001b	8b 42 10	 mov	 eax, DWORD PTR [edx+16]
  0001e	89 46 10	 mov	 DWORD PTR [esi+16], eax
  00021	8b 42 18	 mov	 eax, DWORD PTR [edx+24]
  00024	8b 4a 1c	 mov	 ecx, DWORD PTR [edx+28]
  00027	89 46 18	 mov	 DWORD PTR [esi+24], eax
  0002a	89 4e 1c	 mov	 DWORD PTR [esi+28], ecx
  0002d	8b 42 20	 mov	 eax, DWORD PTR [edx+32]
  00030	89 46 20	 mov	 DWORD PTR [esi+32], eax
  00033	8b c6		 mov	 eax, esi
  00035	5e		 pop	 esi
  00036	5d		 pop	 ebp
  00037	c2 04 00	 ret	 4
??4i3Timer@@QAEAAV0@ABV0@@Z ENDP			; i3Timer::operator=
_TEXT	ENDS
; Function compile flags: /Ogtp
;	COMDAT ??0i3Timer@@QAE@ABV0@@Z
_TEXT	SEGMENT
___that$ = 8						; size = 4
??0i3Timer@@QAE@ABV0@@Z PROC				; i3Timer::i3Timer, COMDAT
; _this$ = ecx
  00000	55		 push	 ebp
  00001	8b ec		 mov	 ebp, esp
  00003	8b 55 08	 mov	 edx, DWORD PTR ___that$[ebp]
  00006	56		 push	 esi
  00007	8b f1		 mov	 esi, ecx
  00009	c7 06 00 00 00
	00		 mov	 DWORD PTR [esi], OFFSET ??_7i3ElementBase@@6B@
  0000f	8b 42 04	 mov	 eax, DWORD PTR [edx+4]
  00012	89 46 04	 mov	 DWORD PTR [esi+4], eax
  00015	8b 42 08	 mov	 eax, DWORD PTR [edx+8]
  00018	89 46 08	 mov	 DWORD PTR [esi+8], eax
  0001b	8b 42 0c	 mov	 eax, DWORD PTR [edx+12]
  0001e	89 46 0c	 mov	 DWORD PTR [esi+12], eax
  00021	c7 06 00 00 00
	00		 mov	 DWORD PTR [esi], OFFSET ??_7i3Timer@@6B@
  00027	8b 42 10	 mov	 eax, DWORD PTR [edx+16]
  0002a	89 46 10	 mov	 DWORD PTR [esi+16], eax
  0002d	8b 42 18	 mov	 eax, DWORD PTR [edx+24]
  00030	8b 4a 1c	 mov	 ecx, DWORD PTR [edx+28]
  00033	89 46 18	 mov	 DWORD PTR [esi+24], eax
  00036	89 4e 1c	 mov	 DWORD PTR [esi+28], ecx
  00039	8b 42 20	 mov	 eax, DWORD PTR [edx+32]
  0003c	89 46 20	 mov	 DWORD PTR [esi+32], eax
  0003f	8b c6		 mov	 eax, esi
  00041	5e		 pop	 esi
  00042	5d		 pop	 ebp
  00043	c2 04 00	 ret	 4
??0i3Timer@@QAE@ABV0@@Z ENDP				; i3Timer::i3Timer
_TEXT	ENDS
; Function compile flags: /Ogtp
; File E:\Proyectos\JuegosOnlineproyectos\PB\pbblow\Piercing Blow Remake\i3Server\include\i3Base\i3Timer.h
;	COMDAT ?GetClassMeta@i3Timer@@SAPAVi3ClassMeta@@XZ
_TEXT	SEGMENT
?GetClassMeta@i3Timer@@SAPAVi3ClassMeta@@XZ PROC	; i3Timer::GetClassMeta, COMDAT

; 9    : 	I3_CLASS_DEFINE( i3Timer);

  00000	a1 00 00 00 00	 mov	 eax, DWORD PTR ?s_pClassMetai3Timer@i3Timer@@2PAVi3ClassMeta@@A ; i3Timer::s_pClassMetai3Timer
  00005	c3		 ret	 0
?GetClassMeta@i3Timer@@SAPAVi3ClassMeta@@XZ ENDP	; i3Timer::GetClassMeta
_TEXT	ENDS
; Function compile flags: /Ogtp
; File E:\Proyectos\JuegosOnlineproyectos\PB\pbblow\Piercing Blow Remake\i3Server\src\i3Base\i3IniParser.cpp
;	COMDAT ??_Ei3SimpleLineLexer@@UAEPAXI@Z
_TEXT	SEGMENT
__$EHRec$ = -12						; size = 12
___flags$ = 8						; size = 4
??_Ei3SimpleLineLexer@@UAEPAXI@Z PROC			; i3SimpleLineLexer::`vector deleting destructor', COMDAT
; _this$ = ecx
  00000	55		 push	 ebp
  00001	8b ec		 mov	 ebp, esp
  00003	6a ff		 push	 -1
  00005	68 00 00 00 00	 push	 __ehhandler$??_Ei3SimpleLineLexer@@UAEPAXI@Z
  0000a	64 a1 00 00 00
	00		 mov	 eax, DWORD PTR fs:0
  00010	50		 push	 eax
  00011	53		 push	 ebx
  00012	56		 push	 esi
  00013	57		 push	 edi
  00014	a1 00 00 00 00	 mov	 eax, DWORD PTR ___security_cookie
  00019	33 c5		 xor	 eax, ebp
  0001b	50		 push	 eax
  0001c	8d 45 f4	 lea	 eax, DWORD PTR __$EHRec$[ebp]
  0001f	64 a3 00 00 00
	00		 mov	 DWORD PTR fs:0, eax
  00025	8b f1		 mov	 esi, ecx
  00027	8b 5d 08	 mov	 ebx, DWORD PTR ___flags$[ebp]
  0002a	8b fb		 mov	 edi, ebx
  0002c	83 e7 01	 and	 edi, 1
  0002f	f6 c3 02	 test	 bl, 2
  00032	74 43		 je	 SHORT $LN2@vector
  00034	68 00 00 00 00	 push	 OFFSET ??1i3SimpleLineLexer@@UAE@XZ ; i3SimpleLineLexer::~i3SimpleLineLexer
  00039	ff 76 fc	 push	 DWORD PTR [esi-4]
  0003c	8d 5e fc	 lea	 ebx, DWORD PTR [esi-4]
  0003f	6a 18		 push	 24			; 00000018H
  00041	56		 push	 esi
  00042	e8 00 00 00 00	 call	 ??_M@YGXPAXIIP6EX0@Z@Z
  00047	85 ff		 test	 edi, edi
  00049	74 16		 je	 SHORT $LN3@vector
  0004b	8b 0b		 mov	 ecx, DWORD PTR [ebx]
  0004d	8d 0c 49	 lea	 ecx, DWORD PTR [ecx+ecx*2]
  00050	8d 0c cd 04 00
	00 00		 lea	 ecx, DWORD PTR [ecx*8+4]
  00057	51		 push	 ecx
  00058	53		 push	 ebx
  00059	e8 00 00 00 00	 call	 ??_V@YAXPAXI@Z		; operator delete[]
  0005e	83 c4 08	 add	 esp, 8
$LN3@vector:
  00061	8b c3		 mov	 eax, ebx
  00063	8b 4d f4	 mov	 ecx, DWORD PTR __$EHRec$[ebp]
  00066	64 89 0d 00 00
	00 00		 mov	 DWORD PTR fs:0, ecx
  0006d	59		 pop	 ecx
  0006e	5f		 pop	 edi
  0006f	5e		 pop	 esi
  00070	5b		 pop	 ebx
  00071	8b e5		 mov	 esp, ebp
  00073	5d		 pop	 ebp
  00074	c2 04 00	 ret	 4
$LN2@vector:
  00077	e8 00 00 00 00	 call	 ??1i3SimpleLineLexer@@UAE@XZ ; i3SimpleLineLexer::~i3SimpleLineLexer
  0007c	85 ff		 test	 edi, edi
  0007e	74 1b		 je	 SHORT $LN6@vector
  00080	f6 c3 04	 test	 bl, 4
  00083	75 0b		 jne	 SHORT $LN5@vector
  00085	56		 push	 esi
  00086	e8 00 00 00 00	 call	 ??3i3ElementBase@@SAXPAX@Z ; i3ElementBase::operator delete
  0008b	83 c4 04	 add	 esp, 4
  0008e	eb 0b		 jmp	 SHORT $LN6@vector
$LN5@vector:

  00090	6a 18		 push	 24			; 00000018H
  00092	56		 push	 esi
  00093	e8 00 00 00 00	 call	 ??3@YAXPAXI@Z		; operator delete
  00098	83 c4 08	 add	 esp, 8
$LN6@vector:
  0009b	8b c6		 mov	 eax, esi
  0009d	8b 4d f4	 mov	 ecx, DWORD PTR __$EHRec$[ebp]
  000a0	64 89 0d 00 00
	00 00		 mov	 DWORD PTR fs:0, ecx
  000a7	59		 pop	 ecx
  000a8	5f		 pop	 edi
  000a9	5e		 pop	 esi
  000aa	5b		 pop	 ebx
  000ab	8b e5		 mov	 esp, ebp
  000ad	5d		 pop	 ebp
  000ae	c2 04 00	 ret	 4
  000b1	cc		 int	 3
  000b2	cc		 int	 3
  000b3	cc		 int	 3
  000b4	cc		 int	 3
  000b5	cc		 int	 3
_TEXT	ENDS
;	COMDAT text$x
text$x	SEGMENT
__ehhandler$??_Ei3SimpleLineLexer@@UAEPAXI@Z:
  00000	90		 npad	 1
  00001	90		 npad	 1
  00002	8b 54 24 08	 mov	 edx, DWORD PTR [esp+8]
  00006	8d 42 0c	 lea	 eax, DWORD PTR [edx+12]
  00009	8b 4a f0	 mov	 ecx, DWORD PTR [edx-16]
  0000c	33 c8		 xor	 ecx, eax
  0000e	e8 00 00 00 00	 call	 @__security_check_cookie@4
  00013	b8 00 00 00 00	 mov	 eax, OFFSET __ehfuncinfo$??_Ei3SimpleLineLexer@@UAEPAXI@Z
  00018	e9 00 00 00 00	 jmp	 ___CxxFrameHandler3
text$x	ENDS
??_Ei3SimpleLineLexer@@UAEPAXI@Z ENDP			; i3SimpleLineLexer::`vector deleting destructor'
; Function compile flags: /Ogtp
; File E:\Proyectos\JuegosOnlineproyectos\PB\pbblow\Piercing Blow Remake\i3Server\src\i3Base\i3IniParser.cpp
;	COMDAT ??_Gi3SimpleLineLexer@@UAEPAXI@Z
_TEXT	SEGMENT
___flags$ = 8						; size = 4
??_Gi3SimpleLineLexer@@UAEPAXI@Z PROC			; i3SimpleLineLexer::`scalar deleting destructor', COMDAT
; _this$ = ecx
  00000	55		 push	 ebp
  00001	8b ec		 mov	 ebp, esp
  00003	56		 push	 esi
  00004	8b f1		 mov	 esi, ecx
  00006	e8 00 00 00 00	 call	 ??1i3SimpleLineLexer@@UAE@XZ ; i3SimpleLineLexer::~i3SimpleLineLexer
  0000b	8b 45 08	 mov	 eax, DWORD PTR ___flags$[ebp]
  0000e	a8 01		 test	 al, 1
  00010	74 1f		 je	 SHORT $LN10@scalar
  00012	a8 04		 test	 al, 4
  00014	75 10		 jne	 SHORT $LN3@scalar
  00016	56		 push	 esi
  00017	e8 00 00 00 00	 call	 ??3i3ElementBase@@SAXPAX@Z ; i3ElementBase::operator delete
  0001c	83 c4 04	 add	 esp, 4
  0001f	8b c6		 mov	 eax, esi
  00021	5e		 pop	 esi
  00022	5d		 pop	 ebp
  00023	c2 04 00	 ret	 4
$LN3@scalar:

  00026	6a 18		 push	 24			; 00000018H
  00028	56		 push	 esi
  00029	e8 00 00 00 00	 call	 ??3@YAXPAXI@Z		; operator delete
  0002e	83 c4 08	 add	 esp, 8
$LN10@scalar:
  00031	8b c6		 mov	 eax, esi
  00033	5e		 pop	 esi
  00034	5d		 pop	 ebp
  00035	c2 04 00	 ret	 4
??_Gi3SimpleLineLexer@@UAEPAXI@Z ENDP			; i3SimpleLineLexer::`scalar deleting destructor'
_TEXT	ENDS
; Function compile flags: /Ogtp
;	COMDAT ??4i3SimpleLineLexer@@QAEAAV0@ABV0@@Z
_TEXT	SEGMENT
___that$ = 8						; size = 4
??4i3SimpleLineLexer@@QAEAAV0@ABV0@@Z PROC		; i3SimpleLineLexer::operator=, COMDAT
; _this$ = ecx
  00000	55		 push	 ebp
  00001	8b ec		 mov	 ebp, esp
  00003	8b 55 08	 mov	 edx, DWORD PTR ___that$[ebp]
  00006	8b 42 04	 mov	 eax, DWORD PTR [edx+4]
  00009	89 41 04	 mov	 DWORD PTR [ecx+4], eax
  0000c	8b 42 08	 mov	 eax, DWORD PTR [edx+8]
  0000f	89 41 08	 mov	 DWORD PTR [ecx+8], eax
  00012	8b 42 0c	 mov	 eax, DWORD PTR [edx+12]
  00015	89 41 0c	 mov	 DWORD PTR [ecx+12], eax
  00018	8b 42 10	 mov	 eax, DWORD PTR [edx+16]
  0001b	89 41 10	 mov	 DWORD PTR [ecx+16], eax
  0001e	8b 42 14	 mov	 eax, DWORD PTR [edx+20]
  00021	89 41 14	 mov	 DWORD PTR [ecx+20], eax
  00024	8b c1		 mov	 eax, ecx
  00026	5d		 pop	 ebp
  00027	c2 04 00	 ret	 4
??4i3SimpleLineLexer@@QAEAAV0@ABV0@@Z ENDP		; i3SimpleLineLexer::operator=
_TEXT	ENDS
; Function compile flags: /Ogtp
;	COMDAT ??0i3SimpleLineLexer@@QAE@ABV0@@Z
_TEXT	SEGMENT
___that$ = 8						; size = 4
??0i3SimpleLineLexer@@QAE@ABV0@@Z PROC			; i3SimpleLineLexer::i3SimpleLineLexer, COMDAT
; _this$ = ecx
  00000	55		 push	 ebp
  00001	8b ec		 mov	 ebp, esp
  00003	8b 55 08	 mov	 edx, DWORD PTR ___that$[ebp]
  00006	c7 01 00 00 00
	00		 mov	 DWORD PTR [ecx], OFFSET ??_7i3ElementBase@@6B@
  0000c	8b 42 04	 mov	 eax, DWORD PTR [edx+4]
  0000f	89 41 04	 mov	 DWORD PTR [ecx+4], eax
  00012	8b 42 08	 mov	 eax, DWORD PTR [edx+8]
  00015	89 41 08	 mov	 DWORD PTR [ecx+8], eax
  00018	8b 42 0c	 mov	 eax, DWORD PTR [edx+12]
  0001b	89 41 0c	 mov	 DWORD PTR [ecx+12], eax
  0001e	c7 01 00 00 00
	00		 mov	 DWORD PTR [ecx], OFFSET ??_7i3SimpleLineLexer@@6B@
  00024	8b 42 10	 mov	 eax, DWORD PTR [edx+16]
  00027	89 41 10	 mov	 DWORD PTR [ecx+16], eax
  0002a	8b 42 14	 mov	 eax, DWORD PTR [edx+20]
  0002d	89 41 14	 mov	 DWORD PTR [ecx+20], eax
  00030	8b c1		 mov	 eax, ecx
  00032	5d		 pop	 ebp
  00033	c2 04 00	 ret	 4
??0i3SimpleLineLexer@@QAE@ABV0@@Z ENDP			; i3SimpleLineLexer::i3SimpleLineLexer
_TEXT	ENDS
; Function compile flags: /Ogtp
; File E:\Proyectos\JuegosOnlineproyectos\PB\pbblow\Piercing Blow Remake\i3Server\include\i3Base\i3Lexer.h
;	COMDAT ?GetClassMeta@i3SimpleLineLexer@@SAPAVi3ClassMeta@@XZ
_TEXT	SEGMENT
?GetClassMeta@i3SimpleLineLexer@@SAPAVi3ClassMeta@@XZ PROC ; i3SimpleLineLexer::GetClassMeta, COMDAT

; 34   : 	I3_CLASS_DEFINE( i3SimpleLineLexer);

  00000	a1 00 00 00 00	 mov	 eax, DWORD PTR ?s_pClassMetai3SimpleLineLexer@i3SimpleLineLexer@@2PAVi3ClassMeta@@A ; i3SimpleLineLexer::s_pClassMetai3SimpleLineLexer
  00005	c3		 ret	 0
?GetClassMeta@i3SimpleLineLexer@@SAPAVi3ClassMeta@@XZ ENDP ; i3SimpleLineLexer::GetClassMeta
_TEXT	ENDS
; Function compile flags: /Ogtp
; File E:\Proyectos\JuegosOnlineproyectos\PB\pbblow\Piercing Blow Remake\i3Server\src\i3Base\i3IniParser.cpp
;	COMDAT ??_Ei3LineLexer@@UAEPAXI@Z
_TEXT	SEGMENT
__$EHRec$ = -12						; size = 12
___flags$ = 8						; size = 4
??_Ei3LineLexer@@UAEPAXI@Z PROC				; i3LineLexer::`vector deleting destructor', COMDAT
; _this$ = ecx
  00000	55		 push	 ebp
  00001	8b ec		 mov	 ebp, esp
  00003	6a ff		 push	 -1
  00005	68 00 00 00 00	 push	 __ehhandler$??_Ei3LineLexer@@UAEPAXI@Z
  0000a	64 a1 00 00 00
	00		 mov	 eax, DWORD PTR fs:0
  00010	50		 push	 eax
  00011	53		 push	 ebx
  00012	56		 push	 esi
  00013	57		 push	 edi
  00014	a1 00 00 00 00	 mov	 eax, DWORD PTR ___security_cookie
  00019	33 c5		 xor	 eax, ebp
  0001b	50		 push	 eax
  0001c	8d 45 f4	 lea	 eax, DWORD PTR __$EHRec$[ebp]
  0001f	64 a3 00 00 00
	00		 mov	 DWORD PTR fs:0, eax
  00025	8b f1		 mov	 esi, ecx
  00027	8b 5d 08	 mov	 ebx, DWORD PTR ___flags$[ebp]
  0002a	8b fb		 mov	 edi, ebx
  0002c	83 e7 01	 and	 edi, 1
  0002f	f6 c3 02	 test	 bl, 2
  00032	74 43		 je	 SHORT $LN2@vector
  00034	68 00 00 00 00	 push	 OFFSET ??1i3LineLexer@@UAE@XZ ; i3LineLexer::~i3LineLexer
  00039	ff 76 fc	 push	 DWORD PTR [esi-4]
  0003c	8d 5e fc	 lea	 ebx, DWORD PTR [esi-4]
  0003f	68 18 01 00 00	 push	 280			; 00000118H
  00044	56		 push	 esi
  00045	e8 00 00 00 00	 call	 ??_M@YGXPAXIIP6EX0@Z@Z
  0004a	85 ff		 test	 edi, edi
  0004c	74 13		 je	 SHORT $LN3@vector
  0004e	69 0b 18 01 00
	00		 imul	 ecx, DWORD PTR [ebx], 280
  00054	83 c1 04	 add	 ecx, 4
  00057	51		 push	 ecx
  00058	53		 push	 ebx
  00059	e8 00 00 00 00	 call	 ??_V@YAXPAXI@Z		; operator delete[]
  0005e	83 c4 08	 add	 esp, 8
$LN3@vector:
  00061	8b c3		 mov	 eax, ebx
  00063	8b 4d f4	 mov	 ecx, DWORD PTR __$EHRec$[ebp]
  00066	64 89 0d 00 00
	00 00		 mov	 DWORD PTR fs:0, ecx
  0006d	59		 pop	 ecx
  0006e	5f		 pop	 edi
  0006f	5e		 pop	 esi
  00070	5b		 pop	 ebx
  00071	8b e5		 mov	 esp, ebp
  00073	5d		 pop	 ebp
  00074	c2 04 00	 ret	 4
$LN2@vector:
  00077	e8 00 00 00 00	 call	 ??1i3LineLexer@@UAE@XZ	; i3LineLexer::~i3LineLexer
  0007c	85 ff		 test	 edi, edi
  0007e	74 1e		 je	 SHORT $LN6@vector
  00080	f6 c3 04	 test	 bl, 4
  00083	75 0b		 jne	 SHORT $LN5@vector
  00085	56		 push	 esi
  00086	e8 00 00 00 00	 call	 ??3i3ElementBase@@SAXPAX@Z ; i3ElementBase::operator delete
  0008b	83 c4 04	 add	 esp, 4
  0008e	eb 0e		 jmp	 SHORT $LN6@vector
$LN5@vector:

  00090	68 18 01 00 00	 push	 280			; 00000118H
  00095	56		 push	 esi
  00096	e8 00 00 00 00	 call	 ??3@YAXPAXI@Z		; operator delete
  0009b	83 c4 08	 add	 esp, 8
$LN6@vector:
  0009e	8b c6		 mov	 eax, esi
  000a0	8b 4d f4	 mov	 ecx, DWORD PTR __$EHRec$[ebp]
  000a3	64 89 0d 00 00
	00 00		 mov	 DWORD PTR fs:0, ecx
  000aa	59		 pop	 ecx
  000ab	5f		 pop	 edi
  000ac	5e		 pop	 esi
  000ad	5b		 pop	 ebx
  000ae	8b e5		 mov	 esp, ebp
  000b0	5d		 pop	 ebp
  000b1	c2 04 00	 ret	 4
  000b4	cc		 int	 3
  000b5	cc		 int	 3
  000b6	cc		 int	 3
  000b7	cc		 int	 3
  000b8	cc		 int	 3
_TEXT	ENDS
;	COMDAT text$x
text$x	SEGMENT
__ehhandler$??_Ei3LineLexer@@UAEPAXI@Z:
  00000	90		 npad	 1
  00001	90		 npad	 1
  00002	8b 54 24 08	 mov	 edx, DWORD PTR [esp+8]
  00006	8d 42 0c	 lea	 eax, DWORD PTR [edx+12]
  00009	8b 4a f0	 mov	 ecx, DWORD PTR [edx-16]
  0000c	33 c8		 xor	 ecx, eax
  0000e	e8 00 00 00 00	 call	 @__security_check_cookie@4
  00013	b8 00 00 00 00	 mov	 eax, OFFSET __ehfuncinfo$??_Ei3LineLexer@@UAEPAXI@Z
  00018	e9 00 00 00 00	 jmp	 ___CxxFrameHandler3
text$x	ENDS
??_Ei3LineLexer@@UAEPAXI@Z ENDP				; i3LineLexer::`vector deleting destructor'
; Function compile flags: /Ogtp
; File E:\Proyectos\JuegosOnlineproyectos\PB\pbblow\Piercing Blow Remake\i3Server\src\i3Base\i3IniParser.cpp
;	COMDAT ??_Gi3LineLexer@@UAEPAXI@Z
_TEXT	SEGMENT
___flags$ = 8						; size = 4
??_Gi3LineLexer@@UAEPAXI@Z PROC				; i3LineLexer::`scalar deleting destructor', COMDAT
; _this$ = ecx
  00000	55		 push	 ebp
  00001	8b ec		 mov	 ebp, esp
  00003	56		 push	 esi
  00004	8b f1		 mov	 esi, ecx
  00006	e8 00 00 00 00	 call	 ??1i3LineLexer@@UAE@XZ	; i3LineLexer::~i3LineLexer
  0000b	8b 45 08	 mov	 eax, DWORD PTR ___flags$[ebp]
  0000e	a8 01		 test	 al, 1
  00010	74 22		 je	 SHORT $LN10@scalar
  00012	a8 04		 test	 al, 4
  00014	75 10		 jne	 SHORT $LN3@scalar
  00016	56		 push	 esi
  00017	e8 00 00 00 00	 call	 ??3i3ElementBase@@SAXPAX@Z ; i3ElementBase::operator delete
  0001c	83 c4 04	 add	 esp, 4
  0001f	8b c6		 mov	 eax, esi
  00021	5e		 pop	 esi
  00022	5d		 pop	 ebp
  00023	c2 04 00	 ret	 4
$LN3@scalar:

  00026	68 18 01 00 00	 push	 280			; 00000118H
  0002b	56		 push	 esi
  0002c	e8 00 00 00 00	 call	 ??3@YAXPAXI@Z		; operator delete
  00031	83 c4 08	 add	 esp, 8
$LN10@scalar:
  00034	8b c6		 mov	 eax, esi
  00036	5e		 pop	 esi
  00037	5d		 pop	 ebp
  00038	c2 04 00	 ret	 4
??_Gi3LineLexer@@UAEPAXI@Z ENDP				; i3LineLexer::`scalar deleting destructor'
_TEXT	ENDS
; Function compile flags: /Ogtp
;	COMDAT ??4i3LineLexer@@QAEAAV0@ABV0@@Z
_TEXT	SEGMENT
___that$ = 8						; size = 4
??4i3LineLexer@@QAEAAV0@ABV0@@Z PROC			; i3LineLexer::operator=, COMDAT
; _this$ = ecx
  00000	55		 push	 ebp
  00001	8b ec		 mov	 ebp, esp
  00003	8b d1		 mov	 edx, ecx
  00005	56		 push	 esi
  00006	8b 75 08	 mov	 esi, DWORD PTR ___that$[ebp]
  00009	8b 46 04	 mov	 eax, DWORD PTR [esi+4]
  0000c	89 42 04	 mov	 DWORD PTR [edx+4], eax
  0000f	8b 46 08	 mov	 eax, DWORD PTR [esi+8]
  00012	89 42 08	 mov	 DWORD PTR [edx+8], eax
  00015	8b 46 0c	 mov	 eax, DWORD PTR [esi+12]
  00018	89 42 0c	 mov	 DWORD PTR [edx+12], eax
  0001b	8b 46 10	 mov	 eax, DWORD PTR [esi+16]
  0001e	89 42 10	 mov	 DWORD PTR [edx+16], eax
  00021	8b 46 14	 mov	 eax, DWORD PTR [esi+20]
  00024	89 42 14	 mov	 DWORD PTR [edx+20], eax
  00027	33 c0		 xor	 eax, eax
  00029	8d a4 24 00 00
	00 00		 npad	 7
$LL4@operator:
  00030	8a 4c 06 18	 mov	 cl, BYTE PTR [esi+eax+24]
  00034	88 4c 02 18	 mov	 BYTE PTR [edx+eax+24], cl
  00038	40		 inc	 eax
  00039	3d 00 01 00 00	 cmp	 eax, 256		; 00000100H
  0003e	72 f0		 jb	 SHORT $LL4@operator
  00040	5e		 pop	 esi
  00041	8b c2		 mov	 eax, edx
  00043	5d		 pop	 ebp
  00044	c2 04 00	 ret	 4
??4i3LineLexer@@QAEAAV0@ABV0@@Z ENDP			; i3LineLexer::operator=
_TEXT	ENDS
; Function compile flags: /Ogtp
;	COMDAT ??0i3LineLexer@@QAE@ABV0@@Z
_TEXT	SEGMENT
___that$ = 8						; size = 4
??0i3LineLexer@@QAE@ABV0@@Z PROC			; i3LineLexer::i3LineLexer, COMDAT
; _this$ = ecx
  00000	55		 push	 ebp
  00001	8b ec		 mov	 ebp, esp
  00003	8b d1		 mov	 edx, ecx
  00005	b9 40 00 00 00	 mov	 ecx, 64			; 00000040H
  0000a	56		 push	 esi
  0000b	8b 75 08	 mov	 esi, DWORD PTR ___that$[ebp]
  0000e	57		 push	 edi
  0000f	c7 02 00 00 00
	00		 mov	 DWORD PTR [edx], OFFSET ??_7i3ElementBase@@6B@
  00015	8d 7a 18	 lea	 edi, DWORD PTR [edx+24]
  00018	8b 46 04	 mov	 eax, DWORD PTR [esi+4]
  0001b	89 42 04	 mov	 DWORD PTR [edx+4], eax
  0001e	8b 46 08	 mov	 eax, DWORD PTR [esi+8]
  00021	89 42 08	 mov	 DWORD PTR [edx+8], eax
  00024	8b 46 0c	 mov	 eax, DWORD PTR [esi+12]
  00027	89 42 0c	 mov	 DWORD PTR [edx+12], eax
  0002a	c7 02 00 00 00
	00		 mov	 DWORD PTR [edx], OFFSET ??_7i3LineLexer@@6B@
  00030	8b 46 10	 mov	 eax, DWORD PTR [esi+16]
  00033	89 42 10	 mov	 DWORD PTR [edx+16], eax
  00036	8b 46 14	 mov	 eax, DWORD PTR [esi+20]
  00039	83 c6 18	 add	 esi, 24			; 00000018H
  0003c	89 42 14	 mov	 DWORD PTR [edx+20], eax
  0003f	8b c2		 mov	 eax, edx
  00041	f3 a5		 rep movsd
  00043	5f		 pop	 edi
  00044	5e		 pop	 esi
  00045	5d		 pop	 ebp
  00046	c2 04 00	 ret	 4
??0i3LineLexer@@QAE@ABV0@@Z ENDP			; i3LineLexer::i3LineLexer
_TEXT	ENDS
; Function compile flags: /Ogtp
; File E:\Proyectos\JuegosOnlineproyectos\PB\pbblow\Piercing Blow Remake\i3Server\include\i3Base\i3Lexer.h
;	COMDAT ?getCurrentPosition@i3LineLexer@@QAEPADXZ
_TEXT	SEGMENT
?getCurrentPosition@i3LineLexer@@QAEPADXZ PROC		; i3LineLexer::getCurrentPosition, COMDAT
; _this$ = ecx

; 25   : 	char *	getCurrentPosition(void)			{ return m_pszCur; }

  00000	8b 41 14	 mov	 eax, DWORD PTR [ecx+20]
  00003	c3		 ret	 0
?getCurrentPosition@i3LineLexer@@QAEPADXZ ENDP		; i3LineLexer::getCurrentPosition
_TEXT	ENDS
; Function compile flags: /Ogtp
; File E:\Proyectos\JuegosOnlineproyectos\PB\pbblow\Piercing Blow Remake\i3Server\include\i3Base\i3Lexer.h
;	COMDAT ?GetMasterString@i3LineLexer@@QAEPADXZ
_TEXT	SEGMENT
?GetMasterString@i3LineLexer@@QAEPADXZ PROC		; i3LineLexer::GetMasterString, COMDAT
; _this$ = ecx

; 23   : 	char *	GetMasterString(void)				{ return m_pszMaster; }

  00000	8b 41 10	 mov	 eax, DWORD PTR [ecx+16]
  00003	c3		 ret	 0
?GetMasterString@i3LineLexer@@QAEPADXZ ENDP		; i3LineLexer::GetMasterString
_TEXT	ENDS
; Function compile flags: /Ogtp
; File E:\Proyectos\JuegosOnlineproyectos\PB\pbblow\Piercing Blow Remake\i3Server\include\i3Base\i3Lexer.h
;	COMDAT ?GetClassMeta@i3LineLexer@@SAPAVi3ClassMeta@@XZ
_TEXT	SEGMENT
?GetClassMeta@i3LineLexer@@SAPAVi3ClassMeta@@XZ PROC	; i3LineLexer::GetClassMeta, COMDAT

; 10   : 	I3_CLASS_DEFINE( i3LineLexer);

  00000	a1 00 00 00 00	 mov	 eax, DWORD PTR ?s_pClassMetai3LineLexer@i3LineLexer@@2PAVi3ClassMeta@@A ; i3LineLexer::s_pClassMetai3LineLexer
  00005	c3		 ret	 0
?GetClassMeta@i3LineLexer@@SAPAVi3ClassMeta@@XZ ENDP	; i3LineLexer::GetClassMeta
_TEXT	ENDS
; Function compile flags: /Ogtp
; File E:\Proyectos\JuegosOnlineproyectos\PB\pbblow\Piercing Blow Remake\i3Server\src\i3Base\i3IniParser.cpp
;	COMDAT ??_Ei3IniParser@@UAEPAXI@Z
_TEXT	SEGMENT
__$EHRec$ = -12						; size = 12
___flags$ = 8						; size = 4
??_Ei3IniParser@@UAEPAXI@Z PROC				; i3IniParser::`vector deleting destructor', COMDAT
; _this$ = ecx
  00000	55		 push	 ebp
  00001	8b ec		 mov	 ebp, esp
  00003	6a ff		 push	 -1
  00005	68 00 00 00 00	 push	 __ehhandler$??_Ei3IniParser@@UAEPAXI@Z
  0000a	64 a1 00 00 00
	00		 mov	 eax, DWORD PTR fs:0
  00010	50		 push	 eax
  00011	53		 push	 ebx
  00012	56		 push	 esi
  00013	57		 push	 edi
  00014	a1 00 00 00 00	 mov	 eax, DWORD PTR ___security_cookie
  00019	33 c5		 xor	 eax, ebp
  0001b	50		 push	 eax
  0001c	8d 45 f4	 lea	 eax, DWORD PTR __$EHRec$[ebp]
  0001f	64 a3 00 00 00
	00		 mov	 DWORD PTR fs:0, eax
  00025	8b f1		 mov	 esi, ecx
  00027	8b 5d 08	 mov	 ebx, DWORD PTR ___flags$[ebp]
  0002a	f6 c3 02	 test	 bl, 2
  0002d	74 44		 je	 SHORT $LN2@vector
  0002f	68 00 00 00 00	 push	 OFFSET ??1i3IniParser@@UAE@XZ ; i3IniParser::~i3IniParser
  00034	ff 76 fc	 push	 DWORD PTR [esi-4]
  00037	8d 7e fc	 lea	 edi, DWORD PTR [esi-4]
  0003a	68 b4 04 00 00	 push	 1204			; 000004b4H
  0003f	56		 push	 esi
  00040	e8 00 00 00 00	 call	 ??_M@YGXPAXIIP6EX0@Z@Z
  00045	f6 c3 01	 test	 bl, 1
  00048	74 13		 je	 SHORT $LN3@vector
  0004a	69 0f b4 04 00
	00		 imul	 ecx, DWORD PTR [edi], 1204
  00050	83 c1 04	 add	 ecx, 4
  00053	51		 push	 ecx
  00054	57		 push	 edi
  00055	e8 00 00 00 00	 call	 ??_V@YAXPAXI@Z		; operator delete[]
  0005a	83 c4 08	 add	 esp, 8
$LN3@vector:
  0005d	8b c7		 mov	 eax, edi
  0005f	8b 4d f4	 mov	 ecx, DWORD PTR __$EHRec$[ebp]
  00062	64 89 0d 00 00
	00 00		 mov	 DWORD PTR fs:0, ecx
  00069	59		 pop	 ecx
  0006a	5f		 pop	 edi
  0006b	5e		 pop	 esi
  0006c	5b		 pop	 ebx
  0006d	8b e5		 mov	 esp, ebp
  0006f	5d		 pop	 ebp
  00070	c2 04 00	 ret	 4
$LN2@vector:

; 29   : 	Close();

  00073	8b ce		 mov	 ecx, esi
  00075	c7 45 fc 00 00
	00 00		 mov	 DWORD PTR __$EHRec$[ebp+8], 0
  0007c	c7 06 00 00 00
	00		 mov	 DWORD PTR [esi], OFFSET ??_7i3IniParser@@6B@
  00082	e8 00 00 00 00	 call	 ?Close@i3IniParser@@QAEXXZ ; i3IniParser::Close

; 30   : 	I3_SAFE_RELEASE(m_pSectionList);

  00087	8b 8e 1c 02 00
	00		 mov	 ecx, DWORD PTR [esi+540]
  0008d	85 c9		 test	 ecx, ecx
  0008f	74 0f		 je	 SHORT $LN11@vector
  00091	e8 00 00 00 00	 call	 ?Release@i3ElementBase@@QAEXXZ ; i3ElementBase::Release
  00096	c7 86 1c 02 00
	00 00 00 00 00	 mov	 DWORD PTR [esi+540], 0
$LN11@vector:

; 31   : }

  000a0	8b ce		 mov	 ecx, esi
  000a2	e8 00 00 00 00	 call	 ??1i3ElementBase@@UAE@XZ ; i3ElementBase::~i3ElementBase
  000a7	f6 c3 01	 test	 bl, 1
  000aa	74 1e		 je	 SHORT $LN6@vector
  000ac	f6 c3 04	 test	 bl, 4
  000af	75 0b		 jne	 SHORT $LN5@vector
  000b1	56		 push	 esi
  000b2	e8 00 00 00 00	 call	 ??3i3ElementBase@@SAXPAX@Z ; i3ElementBase::operator delete
  000b7	83 c4 04	 add	 esp, 4
  000ba	eb 0e		 jmp	 SHORT $LN6@vector
$LN5@vector:

  000bc	68 b4 04 00 00	 push	 1204			; 000004b4H
  000c1	56		 push	 esi
  000c2	e8 00 00 00 00	 call	 ??3@YAXPAXI@Z		; operator delete
  000c7	83 c4 08	 add	 esp, 8
$LN6@vector:
  000ca	8b c6		 mov	 eax, esi
  000cc	8b 4d f4	 mov	 ecx, DWORD PTR __$EHRec$[ebp]
  000cf	64 89 0d 00 00
	00 00		 mov	 DWORD PTR fs:0, ecx
  000d6	59		 pop	 ecx
  000d7	5f		 pop	 edi
  000d8	5e		 pop	 esi
  000d9	5b		 pop	 ebx
  000da	8b e5		 mov	 esp, ebp
  000dc	5d		 pop	 ebp
  000dd	c2 04 00	 ret	 4
  000e0	cc		 int	 3
  000e1	cc		 int	 3
  000e2	cc		 int	 3
  000e3	cc		 int	 3
  000e4	cc		 int	 3
_TEXT	ENDS
;	COMDAT text$x
text$x	SEGMENT
__ehhandler$??_Ei3IniParser@@UAEPAXI@Z:
  00000	90		 npad	 1
  00001	90		 npad	 1
  00002	8b 54 24 08	 mov	 edx, DWORD PTR [esp+8]
  00006	8d 42 0c	 lea	 eax, DWORD PTR [edx+12]
  00009	8b 4a f0	 mov	 ecx, DWORD PTR [edx-16]
  0000c	33 c8		 xor	 ecx, eax
  0000e	e8 00 00 00 00	 call	 @__security_check_cookie@4
  00013	b8 00 00 00 00	 mov	 eax, OFFSET __ehfuncinfo$??_Ei3IniParser@@UAEPAXI@Z
  00018	e9 00 00 00 00	 jmp	 ___CxxFrameHandler3
text$x	ENDS
??_Ei3IniParser@@UAEPAXI@Z ENDP				; i3IniParser::`vector deleting destructor'
; Function compile flags: /Ogtp
; File E:\Proyectos\JuegosOnlineproyectos\PB\pbblow\Piercing Blow Remake\i3Server\src\i3Base\i3IniParser.cpp
;	COMDAT ??_Gi3IniParser@@UAEPAXI@Z
_TEXT	SEGMENT
__$EHRec$ = -12						; size = 12
___flags$ = 8						; size = 4
??_Gi3IniParser@@UAEPAXI@Z PROC				; i3IniParser::`scalar deleting destructor', COMDAT
; _this$ = ecx
  00000	55		 push	 ebp
  00001	8b ec		 mov	 ebp, esp
  00003	6a ff		 push	 -1
  00005	68 00 00 00 00	 push	 __ehhandler$??_Gi3IniParser@@UAEPAXI@Z
  0000a	64 a1 00 00 00
	00		 mov	 eax, DWORD PTR fs:0
  00010	50		 push	 eax
  00011	56		 push	 esi
  00012	a1 00 00 00 00	 mov	 eax, DWORD PTR ___security_cookie
  00017	33 c5		 xor	 eax, ebp
  00019	50		 push	 eax
  0001a	8d 45 f4	 lea	 eax, DWORD PTR __$EHRec$[ebp]
  0001d	64 a3 00 00 00
	00		 mov	 DWORD PTR fs:0, eax
  00023	8b f1		 mov	 esi, ecx

; 28   : {

  00025	c7 45 fc 00 00
	00 00		 mov	 DWORD PTR __$EHRec$[ebp+8], 0
  0002c	c7 06 00 00 00
	00		 mov	 DWORD PTR [esi], OFFSET ??_7i3IniParser@@6B@

; 29   : 	Close();

  00032	e8 00 00 00 00	 call	 ?Close@i3IniParser@@QAEXXZ ; i3IniParser::Close

; 30   : 	I3_SAFE_RELEASE(m_pSectionList);

  00037	8b 8e 1c 02 00
	00		 mov	 ecx, DWORD PTR [esi+540]
  0003d	85 c9		 test	 ecx, ecx
  0003f	74 0f		 je	 SHORT $LN9@scalar
  00041	e8 00 00 00 00	 call	 ?Release@i3ElementBase@@QAEXXZ ; i3ElementBase::Release
  00046	c7 86 1c 02 00
	00 00 00 00 00	 mov	 DWORD PTR [esi+540], 0
$LN9@scalar:

; 31   : }

  00050	8b ce		 mov	 ecx, esi
  00052	e8 00 00 00 00	 call	 ??1i3ElementBase@@UAE@XZ ; i3ElementBase::~i3ElementBase
  00057	8b 45 08	 mov	 eax, DWORD PTR ___flags$[ebp]
  0005a	a8 01		 test	 al, 1
  0005c	74 2f		 je	 SHORT $LN16@scalar
  0005e	a8 04		 test	 al, 4
  00060	75 1d		 jne	 SHORT $LN3@scalar
  00062	56		 push	 esi
  00063	e8 00 00 00 00	 call	 ??3i3ElementBase@@SAXPAX@Z ; i3ElementBase::operator delete
  00068	83 c4 04	 add	 esp, 4
  0006b	8b c6		 mov	 eax, esi
  0006d	8b 4d f4	 mov	 ecx, DWORD PTR __$EHRec$[ebp]
  00070	64 89 0d 00 00
	00 00		 mov	 DWORD PTR fs:0, ecx
  00077	59		 pop	 ecx
  00078	5e		 pop	 esi
  00079	8b e5		 mov	 esp, ebp
  0007b	5d		 pop	 ebp
  0007c	c2 04 00	 ret	 4
$LN3@scalar:

  0007f	68 b4 04 00 00	 push	 1204			; 000004b4H
  00084	56		 push	 esi
  00085	e8 00 00 00 00	 call	 ??3@YAXPAXI@Z		; operator delete
  0008a	83 c4 08	 add	 esp, 8
$LN16@scalar:
  0008d	8b c6		 mov	 eax, esi
  0008f	8b 4d f4	 mov	 ecx, DWORD PTR __$EHRec$[ebp]
  00092	64 89 0d 00 00
	00 00		 mov	 DWORD PTR fs:0, ecx
  00099	59		 pop	 ecx
  0009a	5e		 pop	 esi
  0009b	8b e5		 mov	 esp, ebp
  0009d	5d		 pop	 ebp
  0009e	c2 04 00	 ret	 4
  000a1	cc		 int	 3
  000a2	cc		 int	 3
  000a3	cc		 int	 3
  000a4	cc		 int	 3
  000a5	cc		 int	 3
_TEXT	ENDS
;	COMDAT text$x
text$x	SEGMENT
__ehhandler$??_Gi3IniParser@@UAEPAXI@Z:
  00000	90		 npad	 1
  00001	90		 npad	 1
  00002	8b 54 24 08	 mov	 edx, DWORD PTR [esp+8]
  00006	8d 42 0c	 lea	 eax, DWORD PTR [edx+12]
  00009	8b 4a f8	 mov	 ecx, DWORD PTR [edx-8]
  0000c	33 c8		 xor	 ecx, eax
  0000e	e8 00 00 00 00	 call	 @__security_check_cookie@4
  00013	b8 00 00 00 00	 mov	 eax, OFFSET __ehfuncinfo$??_Gi3IniParser@@UAEPAXI@Z
  00018	e9 00 00 00 00	 jmp	 ___CxxFrameHandler3
text$x	ENDS
??_Gi3IniParser@@UAEPAXI@Z ENDP				; i3IniParser::`scalar deleting destructor'
; Function compile flags: /Ogtp
;	COMDAT ??4i3IniParser@@QAEAAV0@ABV0@@Z
_TEXT	SEGMENT
___that$ = 8						; size = 4
??4i3IniParser@@QAEAAV0@ABV0@@Z PROC			; i3IniParser::operator=, COMDAT
; _this$ = ecx
  00000	55		 push	 ebp
  00001	8b ec		 mov	 ebp, esp
  00003	56		 push	 esi
  00004	8b 75 08	 mov	 esi, DWORD PTR ___that$[ebp]
  00007	33 d2		 xor	 edx, edx
  00009	8b 46 04	 mov	 eax, DWORD PTR [esi+4]
  0000c	89 41 04	 mov	 DWORD PTR [ecx+4], eax
  0000f	8b 46 08	 mov	 eax, DWORD PTR [esi+8]
  00012	89 41 08	 mov	 DWORD PTR [ecx+8], eax
  00015	8b 46 0c	 mov	 eax, DWORD PTR [esi+12]
  00018	89 41 0c	 mov	 DWORD PTR [ecx+12], eax
  0001b	eb 03 8d 49 00	 npad	 5
$LL4@operator:
  00020	8a 44 16 10	 mov	 al, BYTE PTR [esi+edx+16]
  00024	88 44 11 10	 mov	 BYTE PTR [ecx+edx+16], al
  00028	42		 inc	 edx
  00029	81 fa 00 02 00
	00		 cmp	 edx, 512		; 00000200H
  0002f	72 ef		 jb	 SHORT $LL4@operator
  00031	8b 86 10 02 00
	00		 mov	 eax, DWORD PTR [esi+528]
  00037	33 d2		 xor	 edx, edx
  00039	89 81 10 02 00
	00		 mov	 DWORD PTR [ecx+528], eax
  0003f	8b 86 14 02 00
	00		 mov	 eax, DWORD PTR [esi+532]
  00045	89 81 14 02 00
	00		 mov	 DWORD PTR [ecx+532], eax
  0004b	8b 86 18 02 00
	00		 mov	 eax, DWORD PTR [esi+536]
  00051	89 81 18 02 00
	00		 mov	 DWORD PTR [ecx+536], eax
  00057	8b 86 1c 02 00
	00		 mov	 eax, DWORD PTR [esi+540]
  0005d	89 81 1c 02 00
	00		 mov	 DWORD PTR [ecx+540], eax
  00063	eb 0b 8d a4 24
	00 00 00 00 8d
	64 24 00	 npad	 13
$LL7@operator:
  00070	8a 84 16 20 02
	00 00		 mov	 al, BYTE PTR [esi+edx+544]
  00077	88 84 11 20 02
	00 00		 mov	 BYTE PTR [ecx+edx+544], al
  0007e	42		 inc	 edx
  0007f	81 fa 80 00 00
	00		 cmp	 edx, 128		; 00000080H
  00085	72 e9		 jb	 SHORT $LL7@operator
  00087	8b 86 a0 02 00
	00		 mov	 eax, DWORD PTR [esi+672]
  0008d	33 d2		 xor	 edx, edx
  0008f	89 81 a0 02 00
	00		 mov	 DWORD PTR [ecx+672], eax
  00095	8b 86 a4 02 00
	00		 mov	 eax, DWORD PTR [esi+676]
  0009b	89 81 a4 02 00
	00		 mov	 DWORD PTR [ecx+676], eax
  000a1	8a 86 a8 02 00
	00		 mov	 al, BYTE PTR [esi+680]
  000a7	88 81 a8 02 00
	00		 mov	 BYTE PTR [ecx+680], al
  000ad	8d 49 00	 npad	 3
$LL10@operator:
  000b0	8a 84 16 a9 02
	00 00		 mov	 al, BYTE PTR [esi+edx+681]
  000b7	88 84 11 a9 02
	00 00		 mov	 BYTE PTR [ecx+edx+681], al
  000be	42		 inc	 edx
  000bf	81 fa 04 01 00
	00		 cmp	 edx, 260		; 00000104H
  000c5	72 e9		 jb	 SHORT $LL10@operator
  000c7	33 d2		 xor	 edx, edx
  000c9	8d a4 24 00 00
	00 00		 npad	 7
$LL13@operator:
  000d0	8a 84 16 ad 03
	00 00		 mov	 al, BYTE PTR [esi+edx+941]
  000d7	88 84 11 ad 03
	00 00		 mov	 BYTE PTR [ecx+edx+941], al
  000de	42		 inc	 edx
  000df	81 fa 04 01 00
	00		 cmp	 edx, 260		; 00000104H
  000e5	72 e9		 jb	 SHORT $LL13@operator
  000e7	5e		 pop	 esi
  000e8	8b c1		 mov	 eax, ecx
  000ea	5d		 pop	 ebp
  000eb	c2 04 00	 ret	 4
??4i3IniParser@@QAEAAV0@ABV0@@Z ENDP			; i3IniParser::operator=
_TEXT	ENDS
; Function compile flags: /Ogtp
;	COMDAT ??0i3IniParser@@QAE@ABV0@@Z
_TEXT	SEGMENT
___that$ = 8						; size = 4
??0i3IniParser@@QAE@ABV0@@Z PROC			; i3IniParser::i3IniParser, COMDAT
; _this$ = ecx
  00000	55		 push	 ebp
  00001	8b ec		 mov	 ebp, esp
  00003	8b 55 08	 mov	 edx, DWORD PTR ___that$[ebp]
  00006	53		 push	 ebx
  00007	8b d9		 mov	 ebx, ecx
  00009	b9 80 00 00 00	 mov	 ecx, 128		; 00000080H
  0000e	56		 push	 esi
  0000f	57		 push	 edi
  00010	8d 72 10	 lea	 esi, DWORD PTR [edx+16]
  00013	c7 03 00 00 00
	00		 mov	 DWORD PTR [ebx], OFFSET ??_7i3ElementBase@@6B@
  00019	8d 7b 10	 lea	 edi, DWORD PTR [ebx+16]
  0001c	8b 42 04	 mov	 eax, DWORD PTR [edx+4]
  0001f	89 43 04	 mov	 DWORD PTR [ebx+4], eax
  00022	8b 42 08	 mov	 eax, DWORD PTR [edx+8]
  00025	89 43 08	 mov	 DWORD PTR [ebx+8], eax
  00028	8b 42 0c	 mov	 eax, DWORD PTR [edx+12]
  0002b	89 43 0c	 mov	 DWORD PTR [ebx+12], eax
  0002e	c7 03 00 00 00
	00		 mov	 DWORD PTR [ebx], OFFSET ??_7i3IniParser@@6B@
  00034	f3 a5		 rep movsd
  00036	8b 82 10 02 00
	00		 mov	 eax, DWORD PTR [edx+528]
  0003c	8d bb 20 02 00
	00		 lea	 edi, DWORD PTR [ebx+544]
  00042	89 83 10 02 00
	00		 mov	 DWORD PTR [ebx+528], eax
  00048	8d b2 20 02 00
	00		 lea	 esi, DWORD PTR [edx+544]
  0004e	8b 82 14 02 00
	00		 mov	 eax, DWORD PTR [edx+532]
  00054	b9 20 00 00 00	 mov	 ecx, 32			; 00000020H
  00059	89 83 14 02 00
	00		 mov	 DWORD PTR [ebx+532], eax
  0005f	8b 82 18 02 00
	00		 mov	 eax, DWORD PTR [edx+536]
  00065	89 83 18 02 00
	00		 mov	 DWORD PTR [ebx+536], eax
  0006b	8b 82 1c 02 00
	00		 mov	 eax, DWORD PTR [edx+540]
  00071	89 83 1c 02 00
	00		 mov	 DWORD PTR [ebx+540], eax
  00077	f3 a5		 rep movsd
  00079	8b 82 a0 02 00
	00		 mov	 eax, DWORD PTR [edx+672]
  0007f	8d bb a9 02 00
	00		 lea	 edi, DWORD PTR [ebx+681]
  00085	89 83 a0 02 00
	00		 mov	 DWORD PTR [ebx+672], eax
  0008b	8d b2 a9 02 00
	00		 lea	 esi, DWORD PTR [edx+681]
  00091	8b 82 a4 02 00
	00		 mov	 eax, DWORD PTR [edx+676]
  00097	b9 41 00 00 00	 mov	 ecx, 65			; 00000041H
  0009c	89 83 a4 02 00
	00		 mov	 DWORD PTR [ebx+676], eax
  000a2	8a 82 a8 02 00
	00		 mov	 al, BYTE PTR [edx+680]
  000a8	88 83 a8 02 00
	00		 mov	 BYTE PTR [ebx+680], al
  000ae	8b c3		 mov	 eax, ebx
  000b0	f3 a5		 rep movsd
  000b2	8d bb ad 03 00
	00		 lea	 edi, DWORD PTR [ebx+941]
  000b8	b9 41 00 00 00	 mov	 ecx, 65			; 00000041H
  000bd	8d b2 ad 03 00
	00		 lea	 esi, DWORD PTR [edx+941]
  000c3	f3 a5		 rep movsd
  000c5	5f		 pop	 edi
  000c6	5e		 pop	 esi
  000c7	5b		 pop	 ebx
  000c8	5d		 pop	 ebp
  000c9	c2 04 00	 ret	 4
??0i3IniParser@@QAE@ABV0@@Z ENDP			; i3IniParser::i3IniParser
_TEXT	ENDS
; Function compile flags: /Ogtp
; File E:\Proyectos\JuegosOnlineproyectos\PB\pbblow\Piercing Blow Remake\i3Server\src\i3Base\i3IniParser.cpp
;	COMDAT ?WriteValue@i3IniParser@@QAEHPBDN@Z
_TEXT	SEGMENT
_szLabel$ = 8						; size = 4
_rValue$ = 12						; size = 8
?WriteValue@i3IniParser@@QAEHPBDN@Z PROC		; i3IniParser::WriteValue, COMDAT
; _this$ = ecx

; 930  : {

  00000	55		 push	 ebp
  00001	8b ec		 mov	 ebp, esp

; 931  : 	return Write(szLabel, "%lf", rValue);

  00003	dd 45 0c	 fld	 QWORD PTR _rValue$[ebp]
  00006	83 ec 08	 sub	 esp, 8
  00009	dd 1c 24	 fstp	 QWORD PTR [esp]
  0000c	68 00 00 00 00	 push	 OFFSET ??_C@_03DLDNIBIK@?$CFlf@
  00011	ff 75 08	 push	 DWORD PTR _szLabel$[ebp]
  00014	51		 push	 ecx
  00015	e8 00 00 00 00	 call	 ?Write@i3IniParser@@QAAHPBD0ZZ ; i3IniParser::Write
  0001a	83 c4 14	 add	 esp, 20			; 00000014H

; 932  : }

  0001d	5d		 pop	 ebp
  0001e	c2 0c 00	 ret	 12			; 0000000cH
?WriteValue@i3IniParser@@QAEHPBDN@Z ENDP		; i3IniParser::WriteValue
_TEXT	ENDS
; Function compile flags: /Ogtp
; File E:\Proyectos\JuegosOnlineproyectos\PB\pbblow\Piercing Blow Remake\i3Server\src\i3Base\i3IniParser.cpp
;	COMDAT ?WriteValue@i3IniParser@@QAEHPBDM@Z
_TEXT	SEGMENT
_szLabel$ = 8						; size = 4
_rValue$ = 12						; size = 4
?WriteValue@i3IniParser@@QAEHPBDM@Z PROC		; i3IniParser::WriteValue, COMDAT
; _this$ = ecx

; 925  : {

  00000	55		 push	 ebp
  00001	8b ec		 mov	 ebp, esp

; 926  : 	return Write(szLabel, "%f", rValue);

  00003	d9 45 0c	 fld	 DWORD PTR _rValue$[ebp]
  00006	83 ec 08	 sub	 esp, 8
  00009	dd 1c 24	 fstp	 QWORD PTR [esp]
  0000c	68 00 00 00 00	 push	 OFFSET ??_C@_02NJPGOMH@?$CFf@
  00011	ff 75 08	 push	 DWORD PTR _szLabel$[ebp]
  00014	51		 push	 ecx
  00015	e8 00 00 00 00	 call	 ?Write@i3IniParser@@QAAHPBD0ZZ ; i3IniParser::Write
  0001a	83 c4 14	 add	 esp, 20			; 00000014H

; 927  : }

  0001d	5d		 pop	 ebp
  0001e	c2 08 00	 ret	 8
?WriteValue@i3IniParser@@QAEHPBDM@Z ENDP		; i3IniParser::WriteValue
_TEXT	ENDS
; Function compile flags: /Ogtp
; File E:\Proyectos\JuegosOnlineproyectos\PB\pbblow\Piercing Blow Remake\i3Server\src\i3Base\i3IniParser.cpp
;	COMDAT ?WriteValue@i3IniParser@@QAEHPBDI@Z
_TEXT	SEGMENT
_szLabel$ = 8						; size = 4
_nValue$ = 12						; size = 4
?WriteValue@i3IniParser@@QAEHPBDI@Z PROC		; i3IniParser::WriteValue, COMDAT
; _this$ = ecx

; 920  : {

  00000	55		 push	 ebp
  00001	8b ec		 mov	 ebp, esp

; 921  : 	return Write(szLabel, "%d", nValue);

  00003	ff 75 0c	 push	 DWORD PTR _nValue$[ebp]
  00006	68 00 00 00 00	 push	 OFFSET ??_C@_02DPKJAMEF@?$CFd@
  0000b	ff 75 08	 push	 DWORD PTR _szLabel$[ebp]
  0000e	51		 push	 ecx
  0000f	e8 00 00 00 00	 call	 ?Write@i3IniParser@@QAAHPBD0ZZ ; i3IniParser::Write
  00014	83 c4 10	 add	 esp, 16			; 00000010H

; 922  : }

  00017	5d		 pop	 ebp
  00018	c2 08 00	 ret	 8
?WriteValue@i3IniParser@@QAEHPBDI@Z ENDP		; i3IniParser::WriteValue
_TEXT	ENDS
; Function compile flags: /Ogtp
; File E:\Proyectos\JuegosOnlineproyectos\PB\pbblow\Piercing Blow Remake\i3Server\src\i3Base\i3IniParser.cpp
;	COMDAT ?WriteValue@i3IniParser@@QAEHPBDH@Z
_TEXT	SEGMENT
_szLabel$ = 8						; size = 4
_nValue$ = 12						; size = 4
?WriteValue@i3IniParser@@QAEHPBDH@Z PROC		; i3IniParser::WriteValue, COMDAT
; _this$ = ecx

; 915  : {

  00000	55		 push	 ebp
  00001	8b ec		 mov	 ebp, esp

; 916  : 	return Write(szLabel, "%d", nValue);

  00003	ff 75 0c	 push	 DWORD PTR _nValue$[ebp]
  00006	68 00 00 00 00	 push	 OFFSET ??_C@_02DPKJAMEF@?$CFd@
  0000b	ff 75 08	 push	 DWORD PTR _szLabel$[ebp]
  0000e	51		 push	 ecx
  0000f	e8 00 00 00 00	 call	 ?Write@i3IniParser@@QAAHPBD0ZZ ; i3IniParser::Write
  00014	83 c4 10	 add	 esp, 16			; 00000010H

; 917  : }

  00017	5d		 pop	 ebp
  00018	c2 08 00	 ret	 8
?WriteValue@i3IniParser@@QAEHPBDH@Z ENDP		; i3IniParser::WriteValue
_TEXT	ENDS
; Function compile flags: /Ogtp
; File E:\Proyectos\JuegosOnlineproyectos\PB\pbblow\Piercing Blow Remake\i3Server\src\i3Base\i3IniParser.cpp
;	COMDAT ?WriteValue@i3IniParser@@QAEHPBD0@Z
_TEXT	SEGMENT
_szBuf$ = -260						; size = 256
__$ArrayPad$ = -4					; size = 4
_szLabel$ = 8						; size = 4
_szValue$ = 12						; size = 4
?WriteValue@i3IniParser@@QAEHPBD0@Z PROC		; i3IniParser::WriteValue, COMDAT
; _this$ = ecx

; 904  : {

  00000	55		 push	 ebp
  00001	8b ec		 mov	 ebp, esp
  00003	81 ec 04 01 00
	00		 sub	 esp, 260		; 00000104H
  00009	a1 00 00 00 00	 mov	 eax, DWORD PTR ___security_cookie
  0000e	33 c5		 xor	 eax, ebp
  00010	89 45 fc	 mov	 DWORD PTR __$ArrayPad$[ebp], eax
  00013	8b 45 0c	 mov	 eax, DWORD PTR _szValue$[ebp]
  00016	56		 push	 esi
  00017	57		 push	 edi
  00018	8b 7d 08	 mov	 edi, DWORD PTR _szLabel$[ebp]
  0001b	8b f1		 mov	 esi, ecx

; 905  : 	char szBuf[256];
; 906  : 	if (!ProcessString(szBuf, szValue, 256))

  0001d	68 00 01 00 00	 push	 256			; 00000100H
  00022	50		 push	 eax
  00023	8d 85 fc fe ff
	ff		 lea	 eax, DWORD PTR _szBuf$[ebp]
  00029	50		 push	 eax
  0002a	e8 00 00 00 00	 call	 ?ProcessString@i3IniParser@@IAEHPADPBDH@Z ; i3IniParser::ProcessString
  0002f	85 c0		 test	 eax, eax
  00031	75 12		 jne	 SHORT $LN2@WriteValue

; 912  : }

  00033	5f		 pop	 edi
  00034	5e		 pop	 esi
  00035	8b 4d fc	 mov	 ecx, DWORD PTR __$ArrayPad$[ebp]
  00038	33 cd		 xor	 ecx, ebp
  0003a	e8 00 00 00 00	 call	 @__security_check_cookie@4
  0003f	8b e5		 mov	 esp, ebp
  00041	5d		 pop	 ebp
  00042	c2 08 00	 ret	 8
$LN2@WriteValue:

; 907  : 	{
; 908  : 		I3ASSERT_0;
; 909  : 		return FALSE;
; 910  : 	}
; 911  : 	return Write(szLabel, "\"%s\"", szBuf);

  00045	8d 85 fc fe ff
	ff		 lea	 eax, DWORD PTR _szBuf$[ebp]
  0004b	50		 push	 eax
  0004c	68 00 00 00 00	 push	 OFFSET ??_C@_04OEDFLLKD@?$CC?$CFs?$CC@
  00051	57		 push	 edi
  00052	56		 push	 esi
  00053	e8 00 00 00 00	 call	 ?Write@i3IniParser@@QAAHPBD0ZZ ; i3IniParser::Write

; 912  : }

  00058	8b 4d fc	 mov	 ecx, DWORD PTR __$ArrayPad$[ebp]
  0005b	83 c4 10	 add	 esp, 16			; 00000010H
  0005e	33 cd		 xor	 ecx, ebp
  00060	5f		 pop	 edi
  00061	5e		 pop	 esi
  00062	e8 00 00 00 00	 call	 @__security_check_cookie@4
  00067	8b e5		 mov	 esp, ebp
  00069	5d		 pop	 ebp
  0006a	c2 08 00	 ret	 8
?WriteValue@i3IniParser@@QAEHPBD0@Z ENDP		; i3IniParser::WriteValue
_TEXT	ENDS
; Function compile flags: /Ogtp
; File E:\Proyectos\JuegosOnlineproyectos\PB\pbblow\Piercing Blow Remake\i3Server\src\i3Base\i3IniParser.cpp
;	COMDAT ?WriteBool@i3IniParser@@QAEHPBDH@Z
_TEXT	SEGMENT
_szLabel$ = 8						; size = 4
_bTrue$ = 12						; size = 4
?WriteBool@i3IniParser@@QAEHPBDH@Z PROC			; i3IniParser::WriteBool, COMDAT
; _this$ = ecx

; 899  : {

  00000	55		 push	 ebp
  00001	8b ec		 mov	 ebp, esp

; 900  : 	return Write(szLabel, "%s", bTrue ? "True" : "False");

  00003	83 7d 0c 00	 cmp	 DWORD PTR _bTrue$[ebp], 0
  00007	ba 00 00 00 00	 mov	 edx, OFFSET ??_C@_05MKDOIIA@False@
  0000c	b8 00 00 00 00	 mov	 eax, OFFSET ??_C@_04HPMIDMKH@True@
  00011	0f 44 c2	 cmove	 eax, edx
  00014	50		 push	 eax
  00015	68 00 00 00 00	 push	 OFFSET ??_C@_02DKCKIIND@?$CFs@
  0001a	ff 75 08	 push	 DWORD PTR _szLabel$[ebp]
  0001d	51		 push	 ecx
  0001e	e8 00 00 00 00	 call	 ?Write@i3IniParser@@QAAHPBD0ZZ ; i3IniParser::Write
  00023	83 c4 10	 add	 esp, 16			; 00000010H

; 901  : }

  00026	5d		 pop	 ebp
  00027	c2 08 00	 ret	 8
?WriteBool@i3IniParser@@QAEHPBDH@Z ENDP			; i3IniParser::WriteBool
_TEXT	ENDS
; Function compile flags: /Ogtp
; File E:\Proyectos\JuegosOnlineproyectos\PB\pbblow\Piercing Blow Remake\i3Server\src\i3Base\i3IniParser.cpp
;	COMDAT ?WriteSectionName@i3IniParser@@QAEHPBD@Z
_TEXT	SEGMENT
_szName$ = 8						; size = 4
?WriteSectionName@i3IniParser@@QAEHPBD@Z PROC		; i3IniParser::WriteSectionName, COMDAT
; _this$ = ecx

; 894  : {

  00000	55		 push	 ebp
  00001	8b ec		 mov	 ebp, esp

; 895  : 	return Write(NULL, "[%s]", szName);

  00003	ff 75 08	 push	 DWORD PTR _szName$[ebp]
  00006	68 00 00 00 00	 push	 OFFSET ??_C@_04LIFAFMCE@?$FL?$CFs?$FN@
  0000b	6a 00		 push	 0
  0000d	51		 push	 ecx
  0000e	e8 00 00 00 00	 call	 ?Write@i3IniParser@@QAAHPBD0ZZ ; i3IniParser::Write
  00013	83 c4 10	 add	 esp, 16			; 00000010H

; 896  : }

  00016	5d		 pop	 ebp
  00017	c2 04 00	 ret	 4
?WriteSectionName@i3IniParser@@QAEHPBD@Z ENDP		; i3IniParser::WriteSectionName
_TEXT	ENDS
; Function compile flags: /Ogtp
; File E:\Proyectos\JuegosOnlineproyectos\PB\pbblow\Piercing Blow Remake\i3Server\src\i3Base\i3IniParser.cpp
; File C:\Program Files (x86)\Windows Kits\10\Include\10.0.26100.0\ucrt\stdio.h
; File E:\Proyectos\JuegosOnlineproyectos\PB\pbblow\Piercing Blow Remake\i3Server\src\i3Base\i3IniParser.cpp
; File C:\Program Files (x86)\Windows Kits\10\Include\10.0.26100.0\ucrt\stdio.h
; File E:\Proyectos\JuegosOnlineproyectos\PB\pbblow\Piercing Blow Remake\i3Server\src\i3Base\i3IniParser.cpp
; File C:\Program Files (x86)\Windows Kits\10\Include\10.0.26100.0\ucrt\stdio.h
; File E:\Proyectos\JuegosOnlineproyectos\PB\pbblow\Piercing Blow Remake\i3Server\src\i3Base\i3IniParser.cpp
; File C:\Program Files (x86)\Windows Kits\10\Include\10.0.26100.0\ucrt\stdio.h
; File E:\Proyectos\JuegosOnlineproyectos\PB\pbblow\Piercing Blow Remake\i3Server\src\i3Base\i3IniParser.cpp
;	COMDAT ?Write@i3IniParser@@QAAHPBD0ZZ
_TEXT	SEGMENT
_szPrintBuf$ = -516					; size = 512
__$ArrayPad$ = -4					; size = 4
_this$ = 8						; size = 4
_szLabel$ = 12						; size = 4
_szFmt$ = 16						; size = 4
?Write@i3IniParser@@QAAHPBD0ZZ PROC			; i3IniParser::Write, COMDAT

; 873  : {

  00000	55		 push	 ebp
  00001	8b ec		 mov	 ebp, esp
  00003	81 ec 04 02 00
	00		 sub	 esp, 516		; 00000204H
  00009	a1 00 00 00 00	 mov	 eax, DWORD PTR ___security_cookie
  0000e	33 c5		 xor	 eax, ebp
  00010	89 45 fc	 mov	 DWORD PTR __$ArrayPad$[ebp], eax
  00013	53		 push	 ebx
  00014	8b 5d 0c	 mov	 ebx, DWORD PTR _szLabel$[ebp]
; File C:\Program Files (x86)\Windows Kits\10\Include\10.0.26100.0\ucrt\stdio.h

; 1392 :         int const _Result = __stdio_common_vsprintf(

  00017	8d 45 14	 lea	 eax, DWORD PTR _szFmt$[ebp+4]
; File E:\Proyectos\JuegosOnlineproyectos\PB\pbblow\Piercing Blow Remake\i3Server\src\i3Base\i3IniParser.cpp

; 873  : {

  0001a	56		 push	 esi
  0001b	8b 75 08	 mov	 esi, DWORD PTR _this$[ebp]
  0001e	57		 push	 edi
; File C:\Program Files (x86)\Windows Kits\10\Include\10.0.26100.0\ucrt\stdio.h

; 1392 :         int const _Result = __stdio_common_vsprintf(

  0001f	50		 push	 eax
  00020	6a 00		 push	 0
  00022	ff 75 10	 push	 DWORD PTR _szFmt$[ebp]
; File E:\Proyectos\JuegosOnlineproyectos\PB\pbblow\Piercing Blow Remake\i3Server\src\i3Base\i3IniParser.cpp

; 875  : 	char* szBuf = m_szTemp;

  00025	8d 7e 10	 lea	 edi, DWORD PTR [esi+16]
; File C:\Program Files (x86)\Windows Kits\10\Include\10.0.26100.0\ucrt\stdio.h

; 1392 :         int const _Result = __stdio_common_vsprintf(

  00028	6a ff		 push	 -1
  0002a	57		 push	 edi
  0002b	e8 00 00 00 00	 call	 ___local_stdio_printf_options
  00030	8b 08		 mov	 ecx, DWORD PTR [eax]
  00032	ff 70 04	 push	 DWORD PTR [eax+4]
  00035	83 c9 01	 or	 ecx, 1
  00038	51		 push	 ecx
  00039	e8 00 00 00 00	 call	 ___stdio_common_vsprintf
  0003e	8b 8e 18 02 00
	00		 mov	 ecx, DWORD PTR [esi+536]
; File E:\Proyectos\JuegosOnlineproyectos\PB\pbblow\Piercing Blow Remake\i3Server\src\i3Base\i3IniParser.cpp

; 882  : 	if (szLabel == NULL)

  00044	8d 95 fc fd ff
	ff		 lea	 edx, DWORD PTR _szPrintBuf$[ebp]
; File C:\Program Files (x86)\Windows Kits\10\Include\10.0.26100.0\ucrt\stdio.h

; 1392 :         int const _Result = __stdio_common_vsprintf(

  0004a	83 c4 1c	 add	 esp, 28			; 0000001cH
; File E:\Proyectos\JuegosOnlineproyectos\PB\pbblow\Piercing Blow Remake\i3Server\src\i3Base\i3IniParser.cpp

; 882  : 	if (szLabel == NULL)

  0004d	8b 01		 mov	 eax, DWORD PTR [ecx]
  0004f	57		 push	 edi
  00050	85 db		 test	 ebx, ebx
  00052	75 0f		 jne	 SHORT $LN2@Write

; 883  : 	{
; 884  : 		m_pStream->Printf(szPrintBuf, "%s\r\n", szBuf);

  00054	68 00 00 00 00	 push	 OFFSET ??_C@_04LLEBNMDN@?$CFs?$AN?6@
  00059	52		 push	 edx
  0005a	51		 push	 ecx
  0005b	ff 50 44	 call	 DWORD PTR [eax+68]
  0005e	83 c4 10	 add	 esp, 16			; 00000010H

; 885  : 	}

  00061	eb 0e		 jmp	 SHORT $LN10@Write
$LN2@Write:

; 886  : 	else
; 887  : 	{
; 888  : 		m_pStream->Printf(szPrintBuf, "%s = %s\r\n", szLabel, szBuf);

  00063	53		 push	 ebx
  00064	68 00 00 00 00	 push	 OFFSET ??_C@_09MJNNNHCA@?$CFs?5?$DN?5?$CFs?$AN?6@
  00069	52		 push	 edx
  0006a	51		 push	 ecx
  0006b	ff 50 44	 call	 DWORD PTR [eax+68]
  0006e	83 c4 14	 add	 esp, 20			; 00000014H
$LN10@Write:

; 889  : 	}
; 890  : 	return TRUE;
; 891  : }

  00071	8b 4d fc	 mov	 ecx, DWORD PTR __$ArrayPad$[ebp]
  00074	b8 01 00 00 00	 mov	 eax, 1
  00079	5f		 pop	 edi
  0007a	5e		 pop	 esi
  0007b	33 cd		 xor	 ecx, ebp
  0007d	5b		 pop	 ebx
  0007e	e8 00 00 00 00	 call	 @__security_check_cookie@4
  00083	8b e5		 mov	 esp, ebp
  00085	5d		 pop	 ebp
  00086	c3		 ret	 0
?Write@i3IniParser@@QAAHPBD0ZZ ENDP			; i3IniParser::Write
_TEXT	ENDS
; Function compile flags: /Ogtp
; File E:\Proyectos\JuegosOnlineproyectos\PB\pbblow\Piercing Blow Remake\i3Server\src\i3Base\i3IniParser.cpp
;	COMDAT ?GetIndex@i3IniParser@@QAEHPBDQAPBDIAAHI@Z
_TEXT	SEGMENT
_szLabel$ = 8						; size = 4
_szIndexString$ = 12					; size = 4
_nDefault$ = 16						; size = 4
_nValue$ = 20						; size = 4
_nCount$ = 24						; size = 4
?GetIndex@i3IniParser@@QAEHPBDQAPBDIAAHI@Z PROC		; i3IniParser::GetIndex, COMDAT
; _this$ = ecx

; 844  : {

  00000	55		 push	 ebp
  00001	8b ec		 mov	 ebp, esp
  00003	53		 push	 ebx
  00004	56		 push	 esi
  00005	57		 push	 edi

; 845  : 	char* szBuf = m_szTemp;
; 846  : 
; 847  : 	if (GetValue(szLabel, szBuf, I3_INI_VALUE_SIZE))

  00006	68 00 01 00 00	 push	 256			; 00000100H
  0000b	8d 59 10	 lea	 ebx, DWORD PTR [ecx+16]
  0000e	53		 push	 ebx
  0000f	ff 75 08	 push	 DWORD PTR _szLabel$[ebp]
  00012	e8 00 00 00 00	 call	 ?GetValue@i3IniParser@@QAEHPBDPADH@Z ; i3IniParser::GetValue
  00017	85 c0		 test	 eax, eax
  00019	74 43		 je	 SHORT $LN5@GetIndex

; 848  : 	{
; 849  : 		UINT32 i;
; 850  : 		for (i = 0; i < nCount; i++)

  0001b	8b 7d 18	 mov	 edi, DWORD PTR _nCount$[ebp]
  0001e	33 f6		 xor	 esi, esi
  00020	85 ff		 test	 edi, edi
  00022	74 18		 je	 SHORT $LN3@GetIndex
$LL4@GetIndex:

; 851  : 		{
; 852  : 			if (i3String::Compare(szBuf, szIndexString[i]) == 0)

  00024	8b 45 0c	 mov	 eax, DWORD PTR _szIndexString$[ebp]
  00027	ff 34 b0	 push	 DWORD PTR [eax+esi*4]
  0002a	53		 push	 ebx
  0002b	e8 00 00 00 00	 call	 ?Compare@i3String@@YAHPBD0@Z ; i3String::Compare
  00030	83 c4 08	 add	 esp, 8
  00033	85 c0		 test	 eax, eax
  00035	74 16		 je	 SHORT $LN10@GetIndex

; 848  : 	{
; 849  : 		UINT32 i;
; 850  : 		for (i = 0; i < nCount; i++)

  00037	46		 inc	 esi
  00038	3b f7		 cmp	 esi, edi
  0003a	72 e8		 jb	 SHORT $LL4@GetIndex
$LN3@GetIndex:

; 856  : 			}
; 857  : 		}
; 858  : 		//I3TRACE( "ERROR : [i3IniParser::GetIndex] Unknown string found. Label = '%s', Value = '%s'\n", szLabel, szBuf );
; 859  : 		nValue = -1;
; 860  : 	}
; 861  : 	else
; 862  : 	{
; 863  : 		nValue = nDefault;
; 864  : 	}
; 865  : 
; 866  : 	return FALSE;

  0003c	8b 45 14	 mov	 eax, DWORD PTR _nValue$[ebp]
  0003f	83 c9 ff	 or	 ecx, -1
  00042	5f		 pop	 edi

; 867  : }

  00043	5e		 pop	 esi
  00044	5b		 pop	 ebx
  00045	89 08		 mov	 DWORD PTR [eax], ecx
  00047	33 c0		 xor	 eax, eax
  00049	5d		 pop	 ebp
  0004a	c2 14 00	 ret	 20			; 00000014H
$LN10@GetIndex:

; 853  : 			{
; 854  : 				nValue = i;

  0004d	8b 45 14	 mov	 eax, DWORD PTR _nValue$[ebp]
  00050	5f		 pop	 edi
  00051	89 30		 mov	 DWORD PTR [eax], esi

; 855  : 				return TRUE;

  00053	b8 01 00 00 00	 mov	 eax, 1

; 867  : }

  00058	5e		 pop	 esi
  00059	5b		 pop	 ebx
  0005a	5d		 pop	 ebp
  0005b	c2 14 00	 ret	 20			; 00000014H
$LN5@GetIndex:

; 856  : 			}
; 857  : 		}
; 858  : 		//I3TRACE( "ERROR : [i3IniParser::GetIndex] Unknown string found. Label = '%s', Value = '%s'\n", szLabel, szBuf );
; 859  : 		nValue = -1;
; 860  : 	}
; 861  : 	else
; 862  : 	{
; 863  : 		nValue = nDefault;
; 864  : 	}
; 865  : 
; 866  : 	return FALSE;

  0005e	8b 45 14	 mov	 eax, DWORD PTR _nValue$[ebp]
  00061	8b 4d 10	 mov	 ecx, DWORD PTR _nDefault$[ebp]
  00064	5f		 pop	 edi

; 867  : }

  00065	5e		 pop	 esi
  00066	89 08		 mov	 DWORD PTR [eax], ecx
  00068	33 c0		 xor	 eax, eax
  0006a	5b		 pop	 ebx
  0006b	5d		 pop	 ebp
  0006c	c2 14 00	 ret	 20			; 00000014H
?GetIndex@i3IniParser@@QAEHPBDQAPBDIAAHI@Z ENDP		; i3IniParser::GetIndex
_TEXT	ENDS
; Function compile flags: /Ogtp
; File E:\Proyectos\JuegosOnlineproyectos\PB\pbblow\Piercing Blow Remake\i3Server\src\i3Base\i3IniParser.cpp
;	COMDAT ?GetValues@i3IniParser@@QAEHPBDPAM1HH@Z
_TEXT	SEGMENT
_szLabel$ = 8						; size = 4
_rDefault$ = 12						; size = 4
_rValues$ = 16						; size = 4
_NumValues$ = 20					; size = 4
tv261 = 20						; size = 4
_nDelimiter$ = 24					; size = 4
?GetValues@i3IniParser@@QAEHPBDPAM1HH@Z PROC		; i3IniParser::GetValues, COMDAT
; _this$ = ecx

; 828  : {

  00000	55		 push	 ebp
  00001	8b ec		 mov	 ebp, esp
  00003	53		 push	 ebx
  00004	8b 5d 14	 mov	 ebx, DWORD PTR _NumValues$[ebp]
  00007	56		 push	 esi
  00008	8b 75 10	 mov	 esi, DWORD PTR _rValues$[ebp]
  0000b	57		 push	 edi

; 829  : 	INT32 nRead = GetValues(szLabel, rValues, NumValues, nDelimiter);

  0000c	ff 75 18	 push	 DWORD PTR _nDelimiter$[ebp]
  0000f	8b 7d 0c	 mov	 edi, DWORD PTR _rDefault$[ebp]
  00012	53		 push	 ebx
  00013	56		 push	 esi
  00014	ff 75 08	 push	 DWORD PTR _szLabel$[ebp]
  00017	e8 00 00 00 00	 call	 ?GetValues@i3IniParser@@QAEHPBDPAMHH@Z ; i3IniParser::GetValues

; 830  : 
; 831  : 	INT32 i;
; 832  : 	for (i = nRead; i < NumValues; i++)

  0001c	8b d0		 mov	 edx, eax
  0001e	3b c3		 cmp	 eax, ebx
  00020	7d 49		 jge	 SHORT $LN9@GetValues
  00022	8b cb		 mov	 ecx, ebx
  00024	2b c8		 sub	 ecx, eax
  00026	83 f9 04	 cmp	 ecx, 4
  00029	7c 35		 jl	 SHORT $LC4@GetValues
  0002b	8d 4b fd	 lea	 ecx, DWORD PTR [ebx-3]
  0002e	89 4d 14	 mov	 DWORD PTR tv261[ebp], ecx
$LL11@GetValues:

; 833  : 	{
; 834  : 		rValues[i] = rDefault[i];

  00031	d9 04 97	 fld	 DWORD PTR [edi+edx*4]
  00034	d9 1c 96	 fstp	 DWORD PTR [esi+edx*4]
  00037	d9 44 97 04	 fld	 DWORD PTR [edi+edx*4+4]
  0003b	d9 5c 96 04	 fstp	 DWORD PTR [esi+edx*4+4]
  0003f	d9 44 97 08	 fld	 DWORD PTR [edi+edx*4+8]
  00043	d9 5c 96 08	 fstp	 DWORD PTR [esi+edx*4+8]
  00047	d9 44 97 0c	 fld	 DWORD PTR [edi+edx*4+12]
  0004b	d9 5c 96 0c	 fstp	 DWORD PTR [esi+edx*4+12]
  0004f	83 c2 04	 add	 edx, 4
  00052	8b ca		 mov	 ecx, edx
  00054	3b 55 14	 cmp	 edx, DWORD PTR tv261[ebp]
  00057	7c d8		 jl	 SHORT $LL11@GetValues

; 830  : 
; 831  : 	INT32 i;
; 832  : 	for (i = nRead; i < NumValues; i++)

  00059	3b cb		 cmp	 ecx, ebx
  0005b	7d 0e		 jge	 SHORT $LN9@GetValues
  0005d	8d 49 00	 npad	 3
$LC4@GetValues:

; 833  : 	{
; 834  : 		rValues[i] = rDefault[i];

  00060	d9 04 97	 fld	 DWORD PTR [edi+edx*4]
  00063	d9 1c 96	 fstp	 DWORD PTR [esi+edx*4]
  00066	42		 inc	 edx
  00067	3b d3		 cmp	 edx, ebx
  00069	7c f5		 jl	 SHORT $LC4@GetValues
$LN9@GetValues:
  0006b	5f		 pop	 edi

; 835  : 	}
; 836  : 
; 837  : 	return nRead;
; 838  : }

  0006c	5e		 pop	 esi
  0006d	5b		 pop	 ebx
  0006e	5d		 pop	 ebp
  0006f	c2 14 00	 ret	 20			; 00000014H
?GetValues@i3IniParser@@QAEHPBDPAM1HH@Z ENDP		; i3IniParser::GetValues
_TEXT	ENDS
; Function compile flags: /Ogtp
; File E:\Proyectos\JuegosOnlineproyectos\PB\pbblow\Piercing Blow Remake\i3Server\src\i3Base\i3IniParser.cpp
;	COMDAT ?GetValues@i3IniParser@@QAEHPBDPAH1HH@Z
_TEXT	SEGMENT
_szLabel$ = 8						; size = 4
_nDefault$ = 12						; size = 4
_nValues$ = 16						; size = 4
_NumValues$ = 20					; size = 4
_nDelimiter$ = 24					; size = 4
?GetValues@i3IniParser@@QAEHPBDPAH1HH@Z PROC		; i3IniParser::GetValues, COMDAT
; _this$ = ecx

; 815  : {

  00000	55		 push	 ebp
  00001	8b ec		 mov	 ebp, esp
  00003	53		 push	 ebx
  00004	8b 5d 0c	 mov	 ebx, DWORD PTR _nDefault$[ebp]
  00007	56		 push	 esi

; 816  : 	INT32 nRead = GetValues(szLabel, nValues, NumValues, nDelimiter);

  00008	8b 75 14	 mov	 esi, DWORD PTR _NumValues$[ebp]
  0000b	57		 push	 edi
  0000c	ff 75 18	 push	 DWORD PTR _nDelimiter$[ebp]
  0000f	8b 7d 10	 mov	 edi, DWORD PTR _nValues$[ebp]
  00012	56		 push	 esi
  00013	57		 push	 edi
  00014	ff 75 08	 push	 DWORD PTR _szLabel$[ebp]
  00017	e8 00 00 00 00	 call	 ?GetValues@i3IniParser@@QAEHPBDPAHHH@Z ; i3IniParser::GetValues

; 817  : 
; 818  : 	INT32 i;
; 819  : 	for (i = nRead; i < NumValues; i++)

  0001c	8b c8		 mov	 ecx, eax
  0001e	3b c6		 cmp	 eax, esi
  00020	7d 0b		 jge	 SHORT $LN3@GetValues
$LL4@GetValues:

; 820  : 	{
; 821  : 		nValues[i] = nDefault[i];

  00022	8b 14 8b	 mov	 edx, DWORD PTR [ebx+ecx*4]
  00025	89 14 8f	 mov	 DWORD PTR [edi+ecx*4], edx
  00028	41		 inc	 ecx
  00029	3b ce		 cmp	 ecx, esi
  0002b	7c f5		 jl	 SHORT $LL4@GetValues
$LN3@GetValues:
  0002d	5f		 pop	 edi

; 822  : 	}
; 823  : 
; 824  : 	return nRead;
; 825  : }

  0002e	5e		 pop	 esi
  0002f	5b		 pop	 ebx
  00030	5d		 pop	 ebp
  00031	c2 14 00	 ret	 20			; 00000014H
?GetValues@i3IniParser@@QAEHPBDPAH1HH@Z ENDP		; i3IniParser::GetValues
_TEXT	ENDS
; Function compile flags: /Ogtp
; File E:\Proyectos\JuegosOnlineproyectos\PB\pbblow\Piercing Blow Remake\i3Server\src\i3Base\i3IniParser.cpp
;	COMDAT ?GetValues@i3IniParser@@QAEHPBDMPAMHH@Z
_TEXT	SEGMENT
_szLabel$ = 8						; size = 4
_rDefault$ = 12						; size = 4
tv85 = 12						; size = 4
_rValues$ = 16						; size = 4
_NumValues$ = 20					; size = 4
_nDelimiter$ = 24					; size = 4
?GetValues@i3IniParser@@QAEHPBDMPAMHH@Z PROC		; i3IniParser::GetValues, COMDAT
; _this$ = ecx

; 799  : {

  00000	55		 push	 ebp
  00001	8b ec		 mov	 ebp, esp
  00003	f3 0f 10 45 0c	 movss	 xmm0, DWORD PTR _rDefault$[ebp]
  00008	56		 push	 esi
  00009	8b 75 14	 mov	 esi, DWORD PTR _NumValues$[ebp]
  0000c	57		 push	 edi

; 800  : 	INT32 nRead = GetValues(szLabel, rValues, NumValues, nDelimiter);

  0000d	ff 75 18	 push	 DWORD PTR _nDelimiter$[ebp]
  00010	8b 7d 10	 mov	 edi, DWORD PTR _rValues$[ebp]
  00013	56		 push	 esi
  00014	57		 push	 edi
  00015	ff 75 08	 push	 DWORD PTR _szLabel$[ebp]
  00018	f3 0f 11 45 0c	 movss	 DWORD PTR tv85[ebp], xmm0
  0001d	e8 00 00 00 00	 call	 ?GetValues@i3IniParser@@QAEHPBDPAMHH@Z ; i3IniParser::GetValues
  00022	8b d0		 mov	 edx, eax

; 801  : 
; 802  : 	INT32 i;
; 803  : 	for (i = nRead; i < NumValues; i++)

  00024	3b d6		 cmp	 edx, esi
  00026	7d 0e		 jge	 SHORT $LL10@GetValues

; 804  : 	{
; 805  : 		rValues[i] = rDefault;

  00028	8b 45 0c	 mov	 eax, DWORD PTR tv85[ebp]
  0002b	8d 3c 97	 lea	 edi, DWORD PTR [edi+edx*4]
  0002e	2b f2		 sub	 esi, edx
  00030	8b ce		 mov	 ecx, esi
  00032	f3 ab		 rep stosd

; 806  : 	}
; 807  : 
; 808  : 	return nRead;

  00034	8b c2		 mov	 eax, edx
$LL10@GetValues:

; 809  : }

  00036	5f		 pop	 edi
  00037	5e		 pop	 esi
  00038	5d		 pop	 ebp
  00039	c2 14 00	 ret	 20			; 00000014H
?GetValues@i3IniParser@@QAEHPBDMPAMHH@Z ENDP		; i3IniParser::GetValues
_TEXT	ENDS
; Function compile flags: /Ogtp
; File E:\Proyectos\JuegosOnlineproyectos\PB\pbblow\Piercing Blow Remake\i3Server\src\i3Base\i3IniParser.cpp
;	COMDAT ?GetValues@i3IniParser@@QAEHPBDHPAHHH@Z
_TEXT	SEGMENT
_szLabel$ = 8						; size = 4
_nDefault$ = 12						; size = 4
_nValues$ = 16						; size = 4
_NumValues$ = 20					; size = 4
_nDelimiter$ = 24					; size = 4
?GetValues@i3IniParser@@QAEHPBDHPAHHH@Z PROC		; i3IniParser::GetValues, COMDAT
; _this$ = ecx

; 786  : {

  00000	55		 push	 ebp
  00001	8b ec		 mov	 ebp, esp
  00003	56		 push	 esi
  00004	8b 75 14	 mov	 esi, DWORD PTR _NumValues$[ebp]
  00007	57		 push	 edi

; 787  : 	INT32 nRead = GetValues(szLabel, nValues, NumValues, nDelimiter);

  00008	ff 75 18	 push	 DWORD PTR _nDelimiter$[ebp]
  0000b	8b 7d 10	 mov	 edi, DWORD PTR _nValues$[ebp]
  0000e	56		 push	 esi
  0000f	57		 push	 edi
  00010	ff 75 08	 push	 DWORD PTR _szLabel$[ebp]
  00013	e8 00 00 00 00	 call	 ?GetValues@i3IniParser@@QAEHPBDPAHHH@Z ; i3IniParser::GetValues
  00018	8b d0		 mov	 edx, eax

; 788  : 
; 789  : 	INT32 i;
; 790  : 	for (i = nRead; i < NumValues; i++)

  0001a	3b d6		 cmp	 edx, esi
  0001c	7d 12		 jge	 SHORT $LL10@GetValues

; 791  : 	{
; 792  : 		nValues[i] = nDefault;

  0001e	8b 45 0c	 mov	 eax, DWORD PTR _nDefault$[ebp]
  00021	8d 3c 97	 lea	 edi, DWORD PTR [edi+edx*4]
  00024	2b f2		 sub	 esi, edx
  00026	8b ce		 mov	 ecx, esi
  00028	f3 ab		 rep stosd

; 793  : 	}
; 794  : 
; 795  : 	return nRead;

  0002a	8b c2		 mov	 eax, edx
  0002c	8d 64 24 00	 npad	 4
$LL10@GetValues:

; 796  : }

  00030	5f		 pop	 edi
  00031	5e		 pop	 esi
  00032	5d		 pop	 ebp
  00033	c2 14 00	 ret	 20			; 00000014H
?GetValues@i3IniParser@@QAEHPBDHPAHHH@Z ENDP		; i3IniParser::GetValues
_TEXT	ENDS
; Function compile flags: /Ogtp
; File E:\Proyectos\JuegosOnlineproyectos\PB\pbblow\Piercing Blow Remake\i3Server\src\i3Base\i3IniParser.cpp
;	COMDAT ?GetValues@i3IniParser@@QAEHPBDPAMHH@Z
_TEXT	SEGMENT
_Lexer$2 = -36						; size = 24
__$EHRec$ = -12						; size = 12
_szLabel$ = 8						; size = 4
_rValues$ = 12						; size = 4
_NumValues$ = 16					; size = 4
_nDelimiter$ = 20					; size = 4
?GetValues@i3IniParser@@QAEHPBDPAMHH@Z PROC		; i3IniParser::GetValues, COMDAT
; _this$ = ecx

; 764  : {

  00000	55		 push	 ebp
  00001	8b ec		 mov	 ebp, esp
  00003	6a ff		 push	 -1
  00005	68 00 00 00 00	 push	 __ehhandler$?GetValues@i3IniParser@@QAEHPBDPAMHH@Z
  0000a	64 a1 00 00 00
	00		 mov	 eax, DWORD PTR fs:0
  00010	50		 push	 eax
  00011	83 ec 18	 sub	 esp, 24			; 00000018H
  00014	56		 push	 esi
  00015	a1 00 00 00 00	 mov	 eax, DWORD PTR ___security_cookie
  0001a	33 c5		 xor	 eax, ebp
  0001c	50		 push	 eax
  0001d	8d 45 f4	 lea	 eax, DWORD PTR __$EHRec$[ebp]
  00020	64 a3 00 00 00
	00		 mov	 DWORD PTR fs:0, eax

; 678  : 	if (GetValue(szLabel, szValue, nBufLength))

  00026	68 00 01 00 00	 push	 256			; 00000100H

; 765  : 	char* szBuf = m_szTemp;

  0002b	8d 71 10	 lea	 esi, DWORD PTR [ecx+16]

; 678  : 	if (GetValue(szLabel, szValue, nBufLength))

  0002e	56		 push	 esi
  0002f	ff 75 08	 push	 DWORD PTR _szLabel$[ebp]
  00032	e8 00 00 00 00	 call	 ?GetValue@i3IniParser@@QAEHPBDPADH@Z ; i3IniParser::GetValue
  00037	85 c0		 test	 eax, eax
  00039	74 07		 je	 SHORT $LN7@GetValues

; 679  : 	{
; 680  : 		return TRUE;

  0003b	b8 01 00 00 00	 mov	 eax, 1
  00040	eb 1e		 jmp	 SHORT $LN8@GetValues
$LN7@GetValues:

; 681  : 	}
; 682  : 	else
; 683  : 	{
; 684  : 		strcpy(szValue, szDefault);

  00042	b9 00 00 00 00	 mov	 ecx, OFFSET ??_C@_00CNPNBAHC@@
  00047	8b d6		 mov	 edx, esi
  00049	8d a4 24 00 00
	00 00		 npad	 7
$LL10@GetValues:
  00050	8a 01		 mov	 al, BYTE PTR [ecx]
  00052	8d 49 01	 lea	 ecx, DWORD PTR [ecx+1]
  00055	88 02		 mov	 BYTE PTR [edx], al
  00057	8d 52 01	 lea	 edx, DWORD PTR [edx+1]
  0005a	84 c0		 test	 al, al
  0005c	75 f2		 jne	 SHORT $LL10@GetValues

; 685  : 		return FALSE;

  0005e	33 c0		 xor	 eax, eax
$LN8@GetValues:

; 766  : 
; 767  : 	if (GetValue(szLabel, "", szBuf, I3_INI_VALUE_SIZE))

  00060	85 c0		 test	 eax, eax
  00062	74 3f		 je	 SHORT $LN2@GetValues

; 768  : 	{
; 769  : 		i3SimpleLineLexer Lexer;

  00064	8d 4d dc	 lea	 ecx, DWORD PTR _Lexer$2[ebp]
  00067	e8 00 00 00 00	 call	 ??0i3SimpleLineLexer@@QAE@XZ ; i3SimpleLineLexer::i3SimpleLineLexer

; 770  : 		INT32 nRead = Lexer.GetValuesFromString(rValues, NumValues, nDelimiter, szBuf);

  0006c	56		 push	 esi
  0006d	ff 75 14	 push	 DWORD PTR _nDelimiter$[ebp]
  00070	8d 4d dc	 lea	 ecx, DWORD PTR _Lexer$2[ebp]
  00073	c7 45 fc 00 00
	00 00		 mov	 DWORD PTR __$EHRec$[ebp+8], 0
  0007a	ff 75 10	 push	 DWORD PTR _NumValues$[ebp]
  0007d	ff 75 0c	 push	 DWORD PTR _rValues$[ebp]
  00080	e8 00 00 00 00	 call	 ?GetValuesFromString@i3SimpleLineLexer@@QAEHPAMHHPAD@Z ; i3SimpleLineLexer::GetValuesFromString

; 771  : 		if (nRead != NumValues)
; 772  : 		{
; 773  : 			I3TRACE("ERROR : '%s' must be specified with %d items.\n", szLabel, NumValues);
; 774  : 			I3ASSERT_0;
; 775  : 		}
; 776  : 		return nRead;

  00085	8d 4d dc	 lea	 ecx, DWORD PTR _Lexer$2[ebp]
  00088	8b f0		 mov	 esi, eax
  0008a	e8 00 00 00 00	 call	 ??1i3SimpleLineLexer@@UAE@XZ ; i3SimpleLineLexer::~i3SimpleLineLexer
  0008f	8b c6		 mov	 eax, esi

; 780  : }

  00091	8b 4d f4	 mov	 ecx, DWORD PTR __$EHRec$[ebp]
  00094	64 89 0d 00 00
	00 00		 mov	 DWORD PTR fs:0, ecx
  0009b	59		 pop	 ecx
  0009c	5e		 pop	 esi
  0009d	8b e5		 mov	 esp, ebp
  0009f	5d		 pop	 ebp
  000a0	c2 10 00	 ret	 16			; 00000010H
$LN2@GetValues:

; 777  : 	}
; 778  : 
; 779  : 	return 0;

  000a3	33 c0		 xor	 eax, eax

; 780  : }

  000a5	8b 4d f4	 mov	 ecx, DWORD PTR __$EHRec$[ebp]
  000a8	64 89 0d 00 00
	00 00		 mov	 DWORD PTR fs:0, ecx
  000af	59		 pop	 ecx
  000b0	5e		 pop	 esi
  000b1	8b e5		 mov	 esp, ebp
  000b3	5d		 pop	 ebp
  000b4	c2 10 00	 ret	 16			; 00000010H
_TEXT	ENDS
;	COMDAT text$x
text$x	SEGMENT
__unwindfunclet$?GetValues@i3IniParser@@QAEHPBDPAMHH@Z$0:
  00000	8d 4d dc	 lea	 ecx, DWORD PTR _Lexer$2[ebp]
  00003	e9 00 00 00 00	 jmp	 ??1i3SimpleLineLexer@@UAE@XZ ; i3SimpleLineLexer::~i3SimpleLineLexer
  00008	cc		 int	 3
  00009	cc		 int	 3
  0000a	cc		 int	 3
  0000b	cc		 int	 3
  0000c	cc		 int	 3
__ehhandler$?GetValues@i3IniParser@@QAEHPBDPAMHH@Z:
  0000d	90		 npad	 1
  0000e	90		 npad	 1
  0000f	8b 54 24 08	 mov	 edx, DWORD PTR [esp+8]
  00013	8d 42 0c	 lea	 eax, DWORD PTR [edx+12]
  00016	8b 4a e0	 mov	 ecx, DWORD PTR [edx-32]
  00019	33 c8		 xor	 ecx, eax
  0001b	e8 00 00 00 00	 call	 @__security_check_cookie@4
  00020	b8 00 00 00 00	 mov	 eax, OFFSET __ehfuncinfo$?GetValues@i3IniParser@@QAEHPBDPAMHH@Z
  00025	e9 00 00 00 00	 jmp	 ___CxxFrameHandler3
text$x	ENDS
?GetValues@i3IniParser@@QAEHPBDPAMHH@Z ENDP		; i3IniParser::GetValues
; Function compile flags: /Ogtp
; File E:\Proyectos\JuegosOnlineproyectos\PB\pbblow\Piercing Blow Remake\i3Server\src\i3Base\i3IniParser.cpp
;	COMDAT ?GetValues@i3IniParser@@QAEHPBDPAHHH@Z
_TEXT	SEGMENT
_Lexer$2 = -36						; size = 24
__$EHRec$ = -12						; size = 12
_szLabel$ = 8						; size = 4
_nValues$ = 12						; size = 4
_NumValues$ = 16					; size = 4
_nDelimiter$ = 20					; size = 4
?GetValues@i3IniParser@@QAEHPBDPAHHH@Z PROC		; i3IniParser::GetValues, COMDAT
; _this$ = ecx

; 745  : {

  00000	55		 push	 ebp
  00001	8b ec		 mov	 ebp, esp
  00003	6a ff		 push	 -1
  00005	68 00 00 00 00	 push	 __ehhandler$?GetValues@i3IniParser@@QAEHPBDPAHHH@Z
  0000a	64 a1 00 00 00
	00		 mov	 eax, DWORD PTR fs:0
  00010	50		 push	 eax
  00011	83 ec 18	 sub	 esp, 24			; 00000018H
  00014	56		 push	 esi
  00015	a1 00 00 00 00	 mov	 eax, DWORD PTR ___security_cookie
  0001a	33 c5		 xor	 eax, ebp
  0001c	50		 push	 eax
  0001d	8d 45 f4	 lea	 eax, DWORD PTR __$EHRec$[ebp]
  00020	64 a3 00 00 00
	00		 mov	 DWORD PTR fs:0, eax

; 678  : 	if (GetValue(szLabel, szValue, nBufLength))

  00026	68 00 01 00 00	 push	 256			; 00000100H

; 746  : 	char* szBuf = m_szTemp;

  0002b	8d 71 10	 lea	 esi, DWORD PTR [ecx+16]

; 678  : 	if (GetValue(szLabel, szValue, nBufLength))

  0002e	56		 push	 esi
  0002f	ff 75 08	 push	 DWORD PTR _szLabel$[ebp]
  00032	e8 00 00 00 00	 call	 ?GetValue@i3IniParser@@QAEHPBDPADH@Z ; i3IniParser::GetValue
  00037	85 c0		 test	 eax, eax
  00039	74 07		 je	 SHORT $LN7@GetValues

; 679  : 	{
; 680  : 		return TRUE;

  0003b	b8 01 00 00 00	 mov	 eax, 1
  00040	eb 1e		 jmp	 SHORT $LN8@GetValues
$LN7@GetValues:

; 681  : 	}
; 682  : 	else
; 683  : 	{
; 684  : 		strcpy(szValue, szDefault);

  00042	b9 00 00 00 00	 mov	 ecx, OFFSET ??_C@_00CNPNBAHC@@
  00047	8b d6		 mov	 edx, esi
  00049	8d a4 24 00 00
	00 00		 npad	 7
$LL10@GetValues:
  00050	8a 01		 mov	 al, BYTE PTR [ecx]
  00052	8d 49 01	 lea	 ecx, DWORD PTR [ecx+1]
  00055	88 02		 mov	 BYTE PTR [edx], al
  00057	8d 52 01	 lea	 edx, DWORD PTR [edx+1]
  0005a	84 c0		 test	 al, al
  0005c	75 f2		 jne	 SHORT $LL10@GetValues

; 685  : 		return FALSE;

  0005e	33 c0		 xor	 eax, eax
$LN8@GetValues:

; 747  : 
; 748  : 	if (GetValue(szLabel, "", szBuf, I3_INI_VALUE_SIZE))

  00060	85 c0		 test	 eax, eax
  00062	74 3f		 je	 SHORT $LN2@GetValues

; 749  : 	{
; 750  : 		i3SimpleLineLexer Lexer;

  00064	8d 4d dc	 lea	 ecx, DWORD PTR _Lexer$2[ebp]
  00067	e8 00 00 00 00	 call	 ??0i3SimpleLineLexer@@QAE@XZ ; i3SimpleLineLexer::i3SimpleLineLexer

; 751  : 		INT32 nRead = Lexer.GetValuesFromString(nValues, NumValues, nDelimiter, szBuf);

  0006c	56		 push	 esi
  0006d	ff 75 14	 push	 DWORD PTR _nDelimiter$[ebp]
  00070	8d 4d dc	 lea	 ecx, DWORD PTR _Lexer$2[ebp]
  00073	c7 45 fc 00 00
	00 00		 mov	 DWORD PTR __$EHRec$[ebp+8], 0
  0007a	ff 75 10	 push	 DWORD PTR _NumValues$[ebp]
  0007d	ff 75 0c	 push	 DWORD PTR _nValues$[ebp]
  00080	e8 00 00 00 00	 call	 ?GetValuesFromString@i3SimpleLineLexer@@QAEHPAHHHPAD@Z ; i3SimpleLineLexer::GetValuesFromString

; 752  : 		if (nRead != NumValues)
; 753  : 		{
; 754  : 			I3TRACE("ERROR : '%s' must be specified with %d items.\n", szLabel, NumValues);
; 755  : 			I3ASSERT_0;
; 756  : 		}
; 757  : 		return nRead;

  00085	8d 4d dc	 lea	 ecx, DWORD PTR _Lexer$2[ebp]
  00088	8b f0		 mov	 esi, eax
  0008a	e8 00 00 00 00	 call	 ??1i3SimpleLineLexer@@UAE@XZ ; i3SimpleLineLexer::~i3SimpleLineLexer
  0008f	8b c6		 mov	 eax, esi

; 761  : }

  00091	8b 4d f4	 mov	 ecx, DWORD PTR __$EHRec$[ebp]
  00094	64 89 0d 00 00
	00 00		 mov	 DWORD PTR fs:0, ecx
  0009b	59		 pop	 ecx
  0009c	5e		 pop	 esi
  0009d	8b e5		 mov	 esp, ebp
  0009f	5d		 pop	 ebp
  000a0	c2 10 00	 ret	 16			; 00000010H
$LN2@GetValues:

; 758  : 	}
; 759  : 
; 760  : 	return 0;

  000a3	33 c0		 xor	 eax, eax

; 761  : }

  000a5	8b 4d f4	 mov	 ecx, DWORD PTR __$EHRec$[ebp]
  000a8	64 89 0d 00 00
	00 00		 mov	 DWORD PTR fs:0, ecx
  000af	59		 pop	 ecx
  000b0	5e		 pop	 esi
  000b1	8b e5		 mov	 esp, ebp
  000b3	5d		 pop	 ebp
  000b4	c2 10 00	 ret	 16			; 00000010H
_TEXT	ENDS
;	COMDAT text$x
text$x	SEGMENT
__unwindfunclet$?GetValues@i3IniParser@@QAEHPBDPAHHH@Z$0:
  00000	8d 4d dc	 lea	 ecx, DWORD PTR _Lexer$2[ebp]
  00003	e9 00 00 00 00	 jmp	 ??1i3SimpleLineLexer@@UAE@XZ ; i3SimpleLineLexer::~i3SimpleLineLexer
  00008	cc		 int	 3
  00009	cc		 int	 3
  0000a	cc		 int	 3
  0000b	cc		 int	 3
  0000c	cc		 int	 3
__ehhandler$?GetValues@i3IniParser@@QAEHPBDPAHHH@Z:
  0000d	90		 npad	 1
  0000e	90		 npad	 1
  0000f	8b 54 24 08	 mov	 edx, DWORD PTR [esp+8]
  00013	8d 42 0c	 lea	 eax, DWORD PTR [edx+12]
  00016	8b 4a e0	 mov	 ecx, DWORD PTR [edx-32]
  00019	33 c8		 xor	 ecx, eax
  0001b	e8 00 00 00 00	 call	 @__security_check_cookie@4
  00020	b8 00 00 00 00	 mov	 eax, OFFSET __ehfuncinfo$?GetValues@i3IniParser@@QAEHPBDPAHHH@Z
  00025	e9 00 00 00 00	 jmp	 ___CxxFrameHandler3
text$x	ENDS
?GetValues@i3IniParser@@QAEHPBDPAHHH@Z ENDP		; i3IniParser::GetValues
; Function compile flags: /Ogtp
; File E:\Proyectos\JuegosOnlineproyectos\PB\pbblow\Piercing Blow Remake\i3Server\src\i3Base\i3IniParser.cpp
;	COMDAT ?GetValue@i3IniParser@@QAEHPBDNPAN@Z
_TEXT	SEGMENT
_szLabel$ = 8						; size = 4
_rDefault$ = 12						; size = 8
_rValue$ = 20						; size = 4
?GetValue@i3IniParser@@QAEHPBDNPAN@Z PROC		; i3IniParser::GetValue, COMDAT
; _this$ = ecx

; 729  : {

  00000	55		 push	 ebp
  00001	8b ec		 mov	 ebp, esp
  00003	56		 push	 esi

; 666  : 	if (GetValue(szLabel, szBuf, I3_INI_VALUE_SIZE))

  00004	68 00 01 00 00	 push	 256			; 00000100H
  00009	8d 71 10	 lea	 esi, DWORD PTR [ecx+16]
  0000c	56		 push	 esi
  0000d	ff 75 08	 push	 DWORD PTR _szLabel$[ebp]
  00010	e8 00 00 00 00	 call	 ?GetValue@i3IniParser@@QAEHPBDPADH@Z ; i3IniParser::GetValue
  00015	85 c0		 test	 eax, eax
  00017	74 18		 je	 SHORT $LN2@GetValue

; 667  : 	{
; 668  : 		*rValue = atof(szBuf);

  00019	56		 push	 esi
  0001a	e8 00 00 00 00	 call	 _atof
  0001f	8b 45 14	 mov	 eax, DWORD PTR _rValue$[ebp]
  00022	83 c4 04	 add	 esp, 4
  00025	dd 18		 fstp	 QWORD PTR [eax]

; 737  : 		return FALSE;
; 738  : 	}
; 739  : }

  00027	b8 01 00 00 00	 mov	 eax, 1
  0002c	5e		 pop	 esi
  0002d	5d		 pop	 ebp
  0002e	c2 10 00	 ret	 16			; 00000010H
$LN2@GetValue:

; 730  : 	if (GetValue(szLabel, rValue))
; 731  : 	{
; 732  : 		return TRUE;
; 733  : 	}
; 734  : 	else
; 735  : 	{
; 736  : 		*rValue = rDefault;

  00031	8b 45 14	 mov	 eax, DWORD PTR _rValue$[ebp]
  00034	dd 45 0c	 fld	 QWORD PTR _rDefault$[ebp]
  00037	5e		 pop	 esi
  00038	dd 18		 fstp	 QWORD PTR [eax]

; 737  : 		return FALSE;
; 738  : 	}
; 739  : }

  0003a	33 c0		 xor	 eax, eax
  0003c	5d		 pop	 ebp
  0003d	c2 10 00	 ret	 16			; 00000010H
?GetValue@i3IniParser@@QAEHPBDNPAN@Z ENDP		; i3IniParser::GetValue
_TEXT	ENDS
; Function compile flags: /Ogtp
; File E:\Proyectos\JuegosOnlineproyectos\PB\pbblow\Piercing Blow Remake\i3Server\src\i3Base\i3IniParser.cpp
;	COMDAT ?GetValue@i3IniParser@@QAEHPBDMPAM@Z
_TEXT	SEGMENT
_szLabel$ = 8						; size = 4
_rDefault$ = 12						; size = 4
_rValue$ = 16						; size = 4
?GetValue@i3IniParser@@QAEHPBDMPAM@Z PROC		; i3IniParser::GetValue, COMDAT
; _this$ = ecx

; 716  : {

  00000	55		 push	 ebp
  00001	8b ec		 mov	 ebp, esp
  00003	56		 push	 esi

; 653  : 	if (GetValue(szLabel, szBuf, I3_INI_VALUE_SIZE))

  00004	68 00 01 00 00	 push	 256			; 00000100H
  00009	8d 71 10	 lea	 esi, DWORD PTR [ecx+16]
  0000c	56		 push	 esi
  0000d	ff 75 08	 push	 DWORD PTR _szLabel$[ebp]
  00010	e8 00 00 00 00	 call	 ?GetValue@i3IniParser@@QAEHPBDPADH@Z ; i3IniParser::GetValue
  00015	85 c0		 test	 eax, eax
  00017	74 18		 je	 SHORT $LN2@GetValue

; 654  : 	{
; 655  : 		*rValue = (REAL32)atof(szBuf);

  00019	56		 push	 esi
  0001a	e8 00 00 00 00	 call	 _atof
  0001f	8b 45 10	 mov	 eax, DWORD PTR _rValue$[ebp]
  00022	83 c4 04	 add	 esp, 4
  00025	d9 18		 fstp	 DWORD PTR [eax]

; 724  : 		return FALSE;
; 725  : 	}
; 726  : }

  00027	b8 01 00 00 00	 mov	 eax, 1
  0002c	5e		 pop	 esi
  0002d	5d		 pop	 ebp
  0002e	c2 0c 00	 ret	 12			; 0000000cH
$LN2@GetValue:

; 717  : 	if (GetValue(szLabel, rValue))
; 718  : 	{
; 719  : 		return TRUE;
; 720  : 	}
; 721  : 	else
; 722  : 	{
; 723  : 		*rValue = rDefault;

  00031	8b 45 10	 mov	 eax, DWORD PTR _rValue$[ebp]
  00034	f3 0f 10 45 0c	 movss	 xmm0, DWORD PTR _rDefault$[ebp]
  00039	5e		 pop	 esi
  0003a	f3 0f 11 00	 movss	 DWORD PTR [eax], xmm0

; 724  : 		return FALSE;
; 725  : 	}
; 726  : }

  0003e	33 c0		 xor	 eax, eax
  00040	5d		 pop	 ebp
  00041	c2 0c 00	 ret	 12			; 0000000cH
?GetValue@i3IniParser@@QAEHPBDMPAM@Z ENDP		; i3IniParser::GetValue
_TEXT	ENDS
; Function compile flags: /Ogtp
; File E:\Proyectos\JuegosOnlineproyectos\PB\pbblow\Piercing Blow Remake\i3Server\src\i3Base\i3IniParser.cpp
;	COMDAT ?GetValue@i3IniParser@@QAEHPBDIPAI@Z
_TEXT	SEGMENT
_szLabel$ = 8						; size = 4
_nDefault$ = 12						; size = 4
_nValue$ = 16						; size = 4
?GetValue@i3IniParser@@QAEHPBDIPAI@Z PROC		; i3IniParser::GetValue, COMDAT
; _this$ = ecx

; 703  : {

  00000	55		 push	 ebp
  00001	8b ec		 mov	 ebp, esp
  00003	56		 push	 esi

; 704  : 	if (GetValue(szLabel, nValue))

  00004	8b 75 10	 mov	 esi, DWORD PTR _nValue$[ebp]
  00007	56		 push	 esi
  00008	ff 75 08	 push	 DWORD PTR _szLabel$[ebp]
  0000b	e8 00 00 00 00	 call	 ?GetValue@i3IniParser@@QAEHPBDPAI@Z ; i3IniParser::GetValue
  00010	85 c0		 test	 eax, eax
  00012	74 0a		 je	 SHORT $LN2@GetValue

; 711  : 		return FALSE;
; 712  : 	}
; 713  : }

  00014	b8 01 00 00 00	 mov	 eax, 1
  00019	5e		 pop	 esi
  0001a	5d		 pop	 ebp
  0001b	c2 0c 00	 ret	 12			; 0000000cH
$LN2@GetValue:

; 705  : 	{
; 706  : 		return TRUE;
; 707  : 	}
; 708  : 	else
; 709  : 	{
; 710  : 		*nValue = nDefault;

  0001e	8b 45 0c	 mov	 eax, DWORD PTR _nDefault$[ebp]
  00021	89 06		 mov	 DWORD PTR [esi], eax

; 711  : 		return FALSE;
; 712  : 	}
; 713  : }

  00023	33 c0		 xor	 eax, eax
  00025	5e		 pop	 esi
  00026	5d		 pop	 ebp
  00027	c2 0c 00	 ret	 12			; 0000000cH
?GetValue@i3IniParser@@QAEHPBDIPAI@Z ENDP		; i3IniParser::GetValue
_TEXT	ENDS
; Function compile flags: /Ogtp
; File E:\Proyectos\JuegosOnlineproyectos\PB\pbblow\Piercing Blow Remake\i3Server\src\i3Base\i3IniParser.cpp
;	COMDAT ?GetValue@i3IniParser@@QAEHPBDHPAH@Z
_TEXT	SEGMENT
_szLabel$ = 8						; size = 4
_nDefault$ = 12						; size = 4
_nValue$ = 16						; size = 4
?GetValue@i3IniParser@@QAEHPBDHPAH@Z PROC		; i3IniParser::GetValue, COMDAT
; _this$ = ecx

; 690  : {

  00000	55		 push	 ebp
  00001	8b ec		 mov	 ebp, esp
  00003	56		 push	 esi

; 691  : 	if (GetValue(szLabel, nValue))

  00004	8b 75 10	 mov	 esi, DWORD PTR _nValue$[ebp]
  00007	56		 push	 esi
  00008	ff 75 08	 push	 DWORD PTR _szLabel$[ebp]
  0000b	e8 00 00 00 00	 call	 ?GetValue@i3IniParser@@QAEHPBDPAH@Z ; i3IniParser::GetValue
  00010	85 c0		 test	 eax, eax
  00012	74 0a		 je	 SHORT $LN2@GetValue

; 698  : 		return FALSE;
; 699  : 	}
; 700  : }

  00014	b8 01 00 00 00	 mov	 eax, 1
  00019	5e		 pop	 esi
  0001a	5d		 pop	 ebp
  0001b	c2 0c 00	 ret	 12			; 0000000cH
$LN2@GetValue:

; 692  : 	{
; 693  : 		return TRUE;
; 694  : 	}
; 695  : 	else
; 696  : 	{
; 697  : 		*nValue = nDefault;

  0001e	8b 45 0c	 mov	 eax, DWORD PTR _nDefault$[ebp]
  00021	89 06		 mov	 DWORD PTR [esi], eax

; 698  : 		return FALSE;
; 699  : 	}
; 700  : }

  00023	33 c0		 xor	 eax, eax
  00025	5e		 pop	 esi
  00026	5d		 pop	 ebp
  00027	c2 0c 00	 ret	 12			; 0000000cH
?GetValue@i3IniParser@@QAEHPBDHPAH@Z ENDP		; i3IniParser::GetValue
_TEXT	ENDS
; Function compile flags: /Ogtp
; File E:\Proyectos\JuegosOnlineproyectos\PB\pbblow\Piercing Blow Remake\i3Server\src\i3Base\i3IniParser.cpp
;	COMDAT ?GetValue@i3IniParser@@QAEHPBD0PADH@Z
_TEXT	SEGMENT
_szLabel$ = 8						; size = 4
_szDefault$ = 12					; size = 4
_szValue$ = 16						; size = 4
_nBufLength$ = 20					; size = 4
?GetValue@i3IniParser@@QAEHPBD0PADH@Z PROC		; i3IniParser::GetValue, COMDAT
; _this$ = ecx

; 677  : {

  00000	55		 push	 ebp
  00001	8b ec		 mov	 ebp, esp
  00003	56		 push	 esi

; 678  : 	if (GetValue(szLabel, szValue, nBufLength))

  00004	ff 75 14	 push	 DWORD PTR _nBufLength$[ebp]
  00007	8b 75 10	 mov	 esi, DWORD PTR _szValue$[ebp]
  0000a	56		 push	 esi
  0000b	ff 75 08	 push	 DWORD PTR _szLabel$[ebp]
  0000e	e8 00 00 00 00	 call	 ?GetValue@i3IniParser@@QAEHPBDPADH@Z ; i3IniParser::GetValue
  00013	85 c0		 test	 eax, eax
  00015	74 0a		 je	 SHORT $LN2@GetValue

; 679  : 	{
; 680  : 		return TRUE;

  00017	b8 01 00 00 00	 mov	 eax, 1
  0001c	5e		 pop	 esi

; 686  : 	}
; 687  : }

  0001d	5d		 pop	 ebp
  0001e	c2 10 00	 ret	 16			; 00000010H
$LN2@GetValue:

; 681  : 	}
; 682  : 	else
; 683  : 	{
; 684  : 		strcpy(szValue, szDefault);

  00021	8b 45 0c	 mov	 eax, DWORD PTR _szDefault$[ebp]
$LL5@GetValue:
  00024	8a 08		 mov	 cl, BYTE PTR [eax]
  00026	8d 40 01	 lea	 eax, DWORD PTR [eax+1]
  00029	88 0e		 mov	 BYTE PTR [esi], cl
  0002b	8d 76 01	 lea	 esi, DWORD PTR [esi+1]
  0002e	84 c9		 test	 cl, cl
  00030	75 f2		 jne	 SHORT $LL5@GetValue

; 685  : 		return FALSE;

  00032	33 c0		 xor	 eax, eax
  00034	5e		 pop	 esi

; 686  : 	}
; 687  : }

  00035	5d		 pop	 ebp
  00036	c2 10 00	 ret	 16			; 00000010H
?GetValue@i3IniParser@@QAEHPBD0PADH@Z ENDP		; i3IniParser::GetValue
_TEXT	ENDS
; Function compile flags: /Ogtp
; File E:\Proyectos\JuegosOnlineproyectos\PB\pbblow\Piercing Blow Remake\i3Server\src\i3Base\i3IniParser.cpp
;	COMDAT ?GetValue@i3IniParser@@QAEHPBDPAN@Z
_TEXT	SEGMENT
_szLabel$ = 8						; size = 4
_rValue$ = 12						; size = 4
?GetValue@i3IniParser@@QAEHPBDPAN@Z PROC		; i3IniParser::GetValue, COMDAT
; _this$ = ecx

; 663  : {

  00000	55		 push	 ebp
  00001	8b ec		 mov	 ebp, esp
  00003	56		 push	 esi

; 664  : 	char* szBuf = m_szTemp;
; 665  : 
; 666  : 	if (GetValue(szLabel, szBuf, I3_INI_VALUE_SIZE))

  00004	68 00 01 00 00	 push	 256			; 00000100H
  00009	8d 71 10	 lea	 esi, DWORD PTR [ecx+16]
  0000c	56		 push	 esi
  0000d	ff 75 08	 push	 DWORD PTR _szLabel$[ebp]
  00010	e8 00 00 00 00	 call	 ?GetValue@i3IniParser@@QAEHPBDPADH@Z ; i3IniParser::GetValue
  00015	85 c0		 test	 eax, eax
  00017	74 18		 je	 SHORT $LN2@GetValue

; 667  : 	{
; 668  : 		*rValue = atof(szBuf);

  00019	56		 push	 esi
  0001a	e8 00 00 00 00	 call	 _atof
  0001f	8b 45 0c	 mov	 eax, DWORD PTR _rValue$[ebp]
  00022	83 c4 04	 add	 esp, 4
  00025	dd 18		 fstp	 QWORD PTR [eax]

; 669  : 		return TRUE;

  00027	b8 01 00 00 00	 mov	 eax, 1
  0002c	5e		 pop	 esi

; 673  : }

  0002d	5d		 pop	 ebp
  0002e	c2 08 00	 ret	 8
$LN2@GetValue:

; 670  : 	}
; 671  : 
; 672  : 	return FALSE;

  00031	33 c0		 xor	 eax, eax
  00033	5e		 pop	 esi

; 673  : }

  00034	5d		 pop	 ebp
  00035	c2 08 00	 ret	 8
?GetValue@i3IniParser@@QAEHPBDPAN@Z ENDP		; i3IniParser::GetValue
_TEXT	ENDS
; Function compile flags: /Ogtp
; File E:\Proyectos\JuegosOnlineproyectos\PB\pbblow\Piercing Blow Remake\i3Server\src\i3Base\i3IniParser.cpp
;	COMDAT ?GetValue@i3IniParser@@QAEHPBDPAM@Z
_TEXT	SEGMENT
_szLabel$ = 8						; size = 4
_rValue$ = 12						; size = 4
?GetValue@i3IniParser@@QAEHPBDPAM@Z PROC		; i3IniParser::GetValue, COMDAT
; _this$ = ecx

; 650  : {

  00000	55		 push	 ebp
  00001	8b ec		 mov	 ebp, esp
  00003	56		 push	 esi

; 651  : 	char* szBuf = m_szTemp;
; 652  : 
; 653  : 	if (GetValue(szLabel, szBuf, I3_INI_VALUE_SIZE))

  00004	68 00 01 00 00	 push	 256			; 00000100H
  00009	8d 71 10	 lea	 esi, DWORD PTR [ecx+16]
  0000c	56		 push	 esi
  0000d	ff 75 08	 push	 DWORD PTR _szLabel$[ebp]
  00010	e8 00 00 00 00	 call	 ?GetValue@i3IniParser@@QAEHPBDPADH@Z ; i3IniParser::GetValue
  00015	85 c0		 test	 eax, eax
  00017	74 18		 je	 SHORT $LN2@GetValue

; 654  : 	{
; 655  : 		*rValue = (REAL32)atof(szBuf);

  00019	56		 push	 esi
  0001a	e8 00 00 00 00	 call	 _atof
  0001f	8b 45 0c	 mov	 eax, DWORD PTR _rValue$[ebp]
  00022	83 c4 04	 add	 esp, 4
  00025	d9 18		 fstp	 DWORD PTR [eax]

; 656  : 		return TRUE;

  00027	b8 01 00 00 00	 mov	 eax, 1
  0002c	5e		 pop	 esi

; 660  : }

  0002d	5d		 pop	 ebp
  0002e	c2 08 00	 ret	 8
$LN2@GetValue:

; 657  : 	}
; 658  : 
; 659  : 	return FALSE;

  00031	33 c0		 xor	 eax, eax
  00033	5e		 pop	 esi

; 660  : }

  00034	5d		 pop	 ebp
  00035	c2 08 00	 ret	 8
?GetValue@i3IniParser@@QAEHPBDPAM@Z ENDP		; i3IniParser::GetValue
_TEXT	ENDS
; Function compile flags: /Ogtp
; File E:\Proyectos\JuegosOnlineproyectos\PB\pbblow\Piercing Blow Remake\i3Server\src\i3Base\i3IniParser.cpp
;	COMDAT ?GetValue@i3IniParser@@QAEHPBDPAI@Z
_TEXT	SEGMENT
_szLabel$ = 8						; size = 4
_nValue$ = 12						; size = 4
?GetValue@i3IniParser@@QAEHPBDPAI@Z PROC		; i3IniParser::GetValue, COMDAT
; _this$ = ecx

; 626  : {

  00000	55		 push	 ebp
  00001	8b ec		 mov	 ebp, esp
  00003	56		 push	 esi

; 627  : 	char* szBuf = m_szTemp;
; 628  : 
; 629  : 	if (GetValue(szLabel, szBuf, I3_INI_VALUE_SIZE))

  00004	68 00 01 00 00	 push	 256			; 00000100H
  00009	8d 71 10	 lea	 esi, DWORD PTR [ecx+16]
  0000c	56		 push	 esi
  0000d	ff 75 08	 push	 DWORD PTR _szLabel$[ebp]
  00010	e8 00 00 00 00	 call	 ?GetValue@i3IniParser@@QAEHPBDPADH@Z ; i3IniParser::GetValue
  00015	85 c0		 test	 eax, eax
  00017	0f 84 8a 00 00
	00		 je	 $LN2@GetValue

; 630  : 	{
; 631  : 		if ((i3String::NCompare(szBuf, "T", 1) == 0) || (i3String::NCompare(szBuf, "Y", 1) == 0))

  0001d	6a 01		 push	 1
  0001f	68 00 00 00 00	 push	 OFFSET ??_C@_01GAPBHFFA@T@
  00024	56		 push	 esi
  00025	e8 00 00 00 00	 call	 ?NCompare@i3String@@YAHPBD0H@Z ; i3String::NCompare
  0002a	83 c4 0c	 add	 esp, 12			; 0000000cH
  0002d	85 c0		 test	 eax, eax
  0002f	74 65		 je	 SHORT $LN5@GetValue
  00031	6a 01		 push	 1
  00033	68 00 00 00 00	 push	 OFFSET ??_C@_01NFFPALBN@Y@
  00038	56		 push	 esi
  00039	e8 00 00 00 00	 call	 ?NCompare@i3String@@YAHPBD0H@Z ; i3String::NCompare
  0003e	83 c4 0c	 add	 esp, 12			; 0000000cH
  00041	85 c0		 test	 eax, eax
  00043	74 51		 je	 SHORT $LN5@GetValue

; 632  : 		{
; 633  : 			*nValue = TRUE;
; 634  : 		}
; 635  : 		else if ((i3String::NCompare(szBuf, "F", 1) == 0) || (i3String::NCompare(szBuf, "N", 1) == 0))

  00045	6a 01		 push	 1
  00047	68 00 00 00 00	 push	 OFFSET ??_C@_01BIAFAFID@F@
  0004c	56		 push	 esi
  0004d	e8 00 00 00 00	 call	 ?NCompare@i3String@@YAHPBD0H@Z ; i3String::NCompare
  00052	83 c4 0c	 add	 esp, 12			; 0000000cH
  00055	85 c0		 test	 eax, eax
  00057	74 2e		 je	 SHORT $LN8@GetValue
  00059	6a 01		 push	 1
  0005b	68 00 00 00 00	 push	 OFFSET ??_C@_01NANMIPIL@N@
  00060	56		 push	 esi
  00061	e8 00 00 00 00	 call	 ?NCompare@i3String@@YAHPBD0H@Z ; i3String::NCompare
  00066	83 c4 0c	 add	 esp, 12			; 0000000cH
  00069	85 c0		 test	 eax, eax
  0006b	74 1a		 je	 SHORT $LN8@GetValue

; 636  : 		{
; 637  : 			*nValue = FALSE;
; 638  : 		}
; 639  : 		else
; 640  : 		{
; 641  : 			*nValue = i3String::ToInt(szBuf);

  0006d	56		 push	 esi
  0006e	e8 00 00 00 00	 call	 ?ToInt@i3String@@YAHPBD@Z ; i3String::ToInt
  00073	8b c8		 mov	 ecx, eax
  00075	83 c4 04	 add	 esp, 4

; 642  : 		}
; 643  : 		return TRUE;

  00078	8b 45 0c	 mov	 eax, DWORD PTR _nValue$[ebp]
  0007b	5e		 pop	 esi
  0007c	89 08		 mov	 DWORD PTR [eax], ecx
  0007e	b8 01 00 00 00	 mov	 eax, 1

; 647  : }

  00083	5d		 pop	 ebp
  00084	c2 08 00	 ret	 8
$LN8@GetValue:

; 642  : 		}
; 643  : 		return TRUE;

  00087	8b 45 0c	 mov	 eax, DWORD PTR _nValue$[ebp]
  0008a	33 c9		 xor	 ecx, ecx
  0008c	5e		 pop	 esi
  0008d	89 08		 mov	 DWORD PTR [eax], ecx
  0008f	8d 41 01	 lea	 eax, DWORD PTR [ecx+1]

; 647  : }

  00092	5d		 pop	 ebp
  00093	c2 08 00	 ret	 8
$LN5@GetValue:

; 642  : 		}
; 643  : 		return TRUE;

  00096	8b 45 0c	 mov	 eax, DWORD PTR _nValue$[ebp]
  00099	b9 01 00 00 00	 mov	 ecx, 1
  0009e	5e		 pop	 esi
  0009f	89 08		 mov	 DWORD PTR [eax], ecx
  000a1	8b c1		 mov	 eax, ecx

; 647  : }

  000a3	5d		 pop	 ebp
  000a4	c2 08 00	 ret	 8
$LN2@GetValue:

; 644  : 	}
; 645  : 
; 646  : 	return FALSE;

  000a7	33 c0		 xor	 eax, eax
  000a9	5e		 pop	 esi

; 647  : }

  000aa	5d		 pop	 ebp
  000ab	c2 08 00	 ret	 8
?GetValue@i3IniParser@@QAEHPBDPAI@Z ENDP		; i3IniParser::GetValue
_TEXT	ENDS
; Function compile flags: /Ogtp
; File E:\Proyectos\JuegosOnlineproyectos\PB\pbblow\Piercing Blow Remake\i3Server\src\i3Base\i3IniParser.cpp
;	COMDAT ?GetValue@i3IniParser@@QAEHPBDPAH@Z
_TEXT	SEGMENT
_szLabel$ = 8						; size = 4
_nValue$ = 12						; size = 4
?GetValue@i3IniParser@@QAEHPBDPAH@Z PROC		; i3IniParser::GetValue, COMDAT
; _this$ = ecx

; 602  : {

  00000	55		 push	 ebp
  00001	8b ec		 mov	 ebp, esp
  00003	56		 push	 esi

; 603  : 	char* szBuf = m_szTemp;
; 604  : 
; 605  : 	if (GetValue(szLabel, szBuf, I3_INI_VALUE_SIZE))

  00004	68 00 01 00 00	 push	 256			; 00000100H
  00009	8d 71 10	 lea	 esi, DWORD PTR [ecx+16]
  0000c	56		 push	 esi
  0000d	ff 75 08	 push	 DWORD PTR _szLabel$[ebp]
  00010	e8 00 00 00 00	 call	 ?GetValue@i3IniParser@@QAEHPBDPADH@Z ; i3IniParser::GetValue
  00015	85 c0		 test	 eax, eax
  00017	0f 84 8a 00 00
	00		 je	 $LN2@GetValue

; 606  : 	{
; 607  : 		if ((i3String::NCompare(szBuf, "T", 1) == 0) || (i3String::NCompare(szBuf, "Y", 1) == 0))

  0001d	6a 01		 push	 1
  0001f	68 00 00 00 00	 push	 OFFSET ??_C@_01GAPBHFFA@T@
  00024	56		 push	 esi
  00025	e8 00 00 00 00	 call	 ?NCompare@i3String@@YAHPBD0H@Z ; i3String::NCompare
  0002a	83 c4 0c	 add	 esp, 12			; 0000000cH
  0002d	85 c0		 test	 eax, eax
  0002f	74 65		 je	 SHORT $LN5@GetValue
  00031	6a 01		 push	 1
  00033	68 00 00 00 00	 push	 OFFSET ??_C@_01NFFPALBN@Y@
  00038	56		 push	 esi
  00039	e8 00 00 00 00	 call	 ?NCompare@i3String@@YAHPBD0H@Z ; i3String::NCompare
  0003e	83 c4 0c	 add	 esp, 12			; 0000000cH
  00041	85 c0		 test	 eax, eax
  00043	74 51		 je	 SHORT $LN5@GetValue

; 608  : 		{
; 609  : 			*nValue = TRUE;
; 610  : 		}
; 611  : 		else if ((i3String::NCompare(szBuf, "F", 1) == 0) || (i3String::NCompare(szBuf, "N", 1) == 0))

  00045	6a 01		 push	 1
  00047	68 00 00 00 00	 push	 OFFSET ??_C@_01BIAFAFID@F@
  0004c	56		 push	 esi
  0004d	e8 00 00 00 00	 call	 ?NCompare@i3String@@YAHPBD0H@Z ; i3String::NCompare
  00052	83 c4 0c	 add	 esp, 12			; 0000000cH
  00055	85 c0		 test	 eax, eax
  00057	74 2e		 je	 SHORT $LN8@GetValue
  00059	6a 01		 push	 1
  0005b	68 00 00 00 00	 push	 OFFSET ??_C@_01NANMIPIL@N@
  00060	56		 push	 esi
  00061	e8 00 00 00 00	 call	 ?NCompare@i3String@@YAHPBD0H@Z ; i3String::NCompare
  00066	83 c4 0c	 add	 esp, 12			; 0000000cH
  00069	85 c0		 test	 eax, eax
  0006b	74 1a		 je	 SHORT $LN8@GetValue

; 612  : 		{
; 613  : 			*nValue = FALSE;
; 614  : 		}
; 615  : 		else
; 616  : 		{
; 617  : 			*nValue = i3String::ToInt(szBuf);

  0006d	56		 push	 esi
  0006e	e8 00 00 00 00	 call	 ?ToInt@i3String@@YAHPBD@Z ; i3String::ToInt
  00073	8b c8		 mov	 ecx, eax
  00075	83 c4 04	 add	 esp, 4

; 618  : 		}
; 619  : 		return TRUE;

  00078	8b 45 0c	 mov	 eax, DWORD PTR _nValue$[ebp]
  0007b	5e		 pop	 esi
  0007c	89 08		 mov	 DWORD PTR [eax], ecx
  0007e	b8 01 00 00 00	 mov	 eax, 1

; 623  : }

  00083	5d		 pop	 ebp
  00084	c2 08 00	 ret	 8
$LN8@GetValue:

; 618  : 		}
; 619  : 		return TRUE;

  00087	8b 45 0c	 mov	 eax, DWORD PTR _nValue$[ebp]
  0008a	33 c9		 xor	 ecx, ecx
  0008c	5e		 pop	 esi
  0008d	89 08		 mov	 DWORD PTR [eax], ecx
  0008f	8d 41 01	 lea	 eax, DWORD PTR [ecx+1]

; 623  : }

  00092	5d		 pop	 ebp
  00093	c2 08 00	 ret	 8
$LN5@GetValue:

; 618  : 		}
; 619  : 		return TRUE;

  00096	8b 45 0c	 mov	 eax, DWORD PTR _nValue$[ebp]
  00099	b9 01 00 00 00	 mov	 ecx, 1
  0009e	5e		 pop	 esi
  0009f	89 08		 mov	 DWORD PTR [eax], ecx
  000a1	8b c1		 mov	 eax, ecx

; 623  : }

  000a3	5d		 pop	 ebp
  000a4	c2 08 00	 ret	 8
$LN2@GetValue:

; 620  : 	}
; 621  : 
; 622  : 	return FALSE;

  000a7	33 c0		 xor	 eax, eax
  000a9	5e		 pop	 esi

; 623  : }

  000aa	5d		 pop	 ebp
  000ab	c2 08 00	 ret	 8
?GetValue@i3IniParser@@QAEHPBDPAH@Z ENDP		; i3IniParser::GetValue
_TEXT	ENDS
; Function compile flags: /Ogtp
; File E:\Proyectos\JuegosOnlineproyectos\PB\pbblow\Piercing Blow Remake\i3Server\src\i3Base\i3IniParser.cpp
;	COMDAT ?GetValue@i3IniParser@@QAEHPBDPADH@Z
_TEXT	SEGMENT
_szLabel$ = 8						; size = 4
_Value$ = 12						; size = 4
_nBufLength$ = 16					; size = 4
?GetValue@i3IniParser@@QAEHPBDPADH@Z PROC		; i3IniParser::GetValue, COMDAT
; _this$ = ecx

; 563  : {

  00000	55		 push	 ebp
  00001	8b ec		 mov	 ebp, esp
  00003	57		 push	 edi
  00004	8b f9		 mov	 edi, ecx

; 564  : 	if (m_pValueTable == NULL)

  00006	83 bf a0 02 00
	00 00		 cmp	 DWORD PTR [edi+672], 0
  0000d	75 2a		 jne	 SHORT $LN5@GetValue

; 565  : 	{
; 566  : 		I3WARN("Value Table is not exist.\n");

  0000f	6a 01		 push	 1
  00011	68 00 00 00 00	 push	 OFFSET ??_C@_0DO@IJEJHCOG@int?5__thiscall?5i3IniParser?3?3Get@
  00016	68 36 02 00 00	 push	 566			; 00000236H
  0001b	68 00 00 00 00	 push	 OFFSET ??_C@_0GG@LIGOM@E?3?2Proyectos?2JuegosOnlineproyec@
  00020	e8 00 00 00 00	 call	 ?SetEnv@i3Error@@YAXPBDH0W4I3LOG_TYPE@@@Z ; i3Error::SetEnv
  00025	68 00 00 00 00	 push	 OFFSET ??_C@_0BL@IJNEAJGP@Value?5Table?5is?5not?5exist?4?6@
  0002a	e8 00 00 00 00	 call	 ?Log@i3Error@@YAXPBDZZ	; i3Error::Log
  0002f	83 c4 14	 add	 esp, 20			; 00000014H

; 567  : 		//I3TRACE( "%s : Value Table is not exist.\n", __FUNCTION__ );
; 568  : 		return FALSE;

  00032	33 c0		 xor	 eax, eax
  00034	5f		 pop	 edi

; 599  : }

  00035	5d		 pop	 ebp
  00036	c2 0c 00	 ret	 12			; 0000000cH
$LN5@GetValue:

; 569  : 	}
; 570  : 
; 571  : 	if (nBufLength == 0)

  00039	83 7d 10 00	 cmp	 DWORD PTR _nBufLength$[ebp], 0
  0003d	75 2a		 jne	 SHORT $LN6@GetValue

; 572  : 	{
; 573  : 		I3WARN("nBufLength is zero. \n");

  0003f	6a 01		 push	 1
  00041	68 00 00 00 00	 push	 OFFSET ??_C@_0DO@IJEJHCOG@int?5__thiscall?5i3IniParser?3?3Get@
  00046	68 3d 02 00 00	 push	 573			; 0000023dH
  0004b	68 00 00 00 00	 push	 OFFSET ??_C@_0GG@LIGOM@E?3?2Proyectos?2JuegosOnlineproyec@
  00050	e8 00 00 00 00	 call	 ?SetEnv@i3Error@@YAXPBDH0W4I3LOG_TYPE@@@Z ; i3Error::SetEnv
  00055	68 00 00 00 00	 push	 OFFSET ??_C@_0BG@NIGHIBJ@nBufLength?5is?5zero?4?5?6@
  0005a	e8 00 00 00 00	 call	 ?Log@i3Error@@YAXPBDZZ	; i3Error::Log
  0005f	83 c4 14	 add	 esp, 20			; 00000014H

; 574  : 		//I3TRACE( "%s : nBufLength is zero.\n", __FUNCTION__ );
; 575  : 		return FALSE;

  00062	33 c0		 xor	 eax, eax
  00064	5f		 pop	 edi

; 599  : }

  00065	5d		 pop	 ebp
  00066	c2 0c 00	 ret	 12			; 0000000cH
$LN6@GetValue:
  00069	53		 push	 ebx
  0006a	56		 push	 esi

; 576  : 	}
; 577  : 
; 578  : 	UINT32 i;
; 579  : 	for (i = 0; i < m_nNumValues; i++)

  0006b	33 f6		 xor	 esi, esi
  0006d	39 b7 a4 02 00
	00		 cmp	 DWORD PTR [edi+676], esi
  00073	76 32		 jbe	 SHORT $LN3@GetValue
  00075	eb 09 8d a4 24
	00 00 00 00 8b
	ff		 npad	 11
$LL4@GetValue:

; 580  : 	{
; 581  : 		if (i3String::Compare(szLabel, m_pValueTable[i].szLabel) == 0)

  00080	8b 87 a0 02 00
	00		 mov	 eax, DWORD PTR [edi+672]
  00086	69 de 84 01 00
	00		 imul	 ebx, esi, 388
  0008c	03 c3		 add	 eax, ebx
  0008e	50		 push	 eax
  0008f	ff 75 08	 push	 DWORD PTR _szLabel$[ebp]
  00092	e8 00 00 00 00	 call	 ?Compare@i3String@@YAHPBD0@Z ; i3String::Compare
  00097	83 c4 08	 add	 esp, 8
  0009a	85 c0		 test	 eax, eax
  0009c	74 12		 je	 SHORT $LN14@GetValue

; 576  : 	}
; 577  : 
; 578  : 	UINT32 i;
; 579  : 	for (i = 0; i < m_nNumValues; i++)

  0009e	46		 inc	 esi
  0009f	3b b7 a4 02 00
	00		 cmp	 esi, DWORD PTR [edi+676]
  000a5	72 d9		 jb	 SHORT $LL4@GetValue
$LN3@GetValue:
  000a7	5e		 pop	 esi
  000a8	5b		 pop	 ebx

; 593  : 			}
; 594  : 		}
; 595  : 	}
; 596  : 
; 597  : 	//I3TRACE( "%s : Could not find the label named '%s'.\n", __FUNCTION__, szLabel );
; 598  : 	return FALSE;

  000a9	33 c0		 xor	 eax, eax
  000ab	5f		 pop	 edi

; 599  : }

  000ac	5d		 pop	 ebp
  000ad	c2 0c 00	 ret	 12			; 0000000cH
$LN14@GetValue:

; 582  : 		{
; 583  : 			if ((nBufLength > 0) && (nBufLength <= m_pValueTable[i].nLength))

  000b0	8b 4d 10	 mov	 ecx, DWORD PTR _nBufLength$[ebp]
  000b3	85 c9		 test	 ecx, ecx
  000b5	7e 3b		 jle	 SHORT $LN21@GetValue
  000b7	8b 87 a0 02 00
	00		 mov	 eax, DWORD PTR [edi+672]
  000bd	3b 8c 18 80 01
	00 00		 cmp	 ecx, DWORD PTR [eax+ebx+384]
  000c4	7f 2c		 jg	 SHORT $LN21@GetValue

; 584  : 			{
; 585  : 				I3WARN("nBufLength is too short. \n");

  000c6	6a 01		 push	 1
  000c8	68 00 00 00 00	 push	 OFFSET ??_C@_0DO@IJEJHCOG@int?5__thiscall?5i3IniParser?3?3Get@
  000cd	68 49 02 00 00	 push	 585			; 00000249H
  000d2	68 00 00 00 00	 push	 OFFSET ??_C@_0GG@LIGOM@E?3?2Proyectos?2JuegosOnlineproyec@
  000d7	e8 00 00 00 00	 call	 ?SetEnv@i3Error@@YAXPBDH0W4I3LOG_TYPE@@@Z ; i3Error::SetEnv
  000dc	68 00 00 00 00	 push	 OFFSET ??_C@_0BL@OBHDNFFG@nBufLength?5is?5too?5short?4?5?6@
  000e1	e8 00 00 00 00	 call	 ?Log@i3Error@@YAXPBDZZ	; i3Error::Log
  000e6	83 c4 14	 add	 esp, 20			; 00000014H

; 593  : 			}
; 594  : 		}
; 595  : 	}
; 596  : 
; 597  : 	//I3TRACE( "%s : Could not find the label named '%s'.\n", __FUNCTION__, szLabel );
; 598  : 	return FALSE;

  000e9	33 c0		 xor	 eax, eax
  000eb	5e		 pop	 esi
  000ec	5b		 pop	 ebx
  000ed	5f		 pop	 edi

; 599  : }

  000ee	5d		 pop	 ebp
  000ef	c2 0c 00	 ret	 12			; 0000000cH
$LN21@GetValue:

; 586  : 				//I3TRACE( "%s : nBufLength is too short. (szLabel = %s)\n", __FUNCTION__, szLabel  );
; 587  : 				return FALSE;
; 588  : 			}
; 589  : 			else
; 590  : 			{
; 591  : 				strcpy(Value, m_pValueTable[i].szValue);

  000f2	8b 8f a0 02 00
	00		 mov	 ecx, DWORD PTR [edi+672]
  000f8	8b 55 0c	 mov	 edx, DWORD PTR _Value$[ebp]
  000fb	83 e9 80	 sub	 ecx, -128		; ffffff80H
  000fe	03 cb		 add	 ecx, ebx
$LL11@GetValue:
  00100	8a 01		 mov	 al, BYTE PTR [ecx]
  00102	8d 49 01	 lea	 ecx, DWORD PTR [ecx+1]
  00105	88 02		 mov	 BYTE PTR [edx], al
  00107	8d 52 01	 lea	 edx, DWORD PTR [edx+1]
  0010a	84 c0		 test	 al, al
  0010c	75 f2		 jne	 SHORT $LL11@GetValue

; 592  : 				return TRUE;

  0010e	5e		 pop	 esi
  0010f	5b		 pop	 ebx
  00110	b8 01 00 00 00	 mov	 eax, 1
  00115	5f		 pop	 edi

; 599  : }

  00116	5d		 pop	 ebp
  00117	c2 0c 00	 ret	 12			; 0000000cH
?GetValue@i3IniParser@@QAEHPBDPADH@Z ENDP		; i3IniParser::GetValue
_TEXT	ENDS
; Function compile flags: /Ogtp
; File E:\Proyectos\JuegosOnlineproyectos\PB\pbblow\Piercing Blow Remake\i3Server\src\i3Base\i3IniParser.cpp
;	COMDAT ?GetStringValue@i3IniParser@@QAEPBDPBD@Z
_TEXT	SEGMENT
_szLabel$ = 8						; size = 4
?GetStringValue@i3IniParser@@QAEPBDPBD@Z PROC		; i3IniParser::GetStringValue, COMDAT
; _this$ = ecx

; 541  : {

  00000	55		 push	 ebp
  00001	8b ec		 mov	 ebp, esp
  00003	57		 push	 edi
  00004	8b f9		 mov	 edi, ecx

; 542  : 	if (m_pValueTable == NULL)

  00006	83 bf a0 02 00
	00 00		 cmp	 DWORD PTR [edi+672], 0
  0000d	75 2a		 jne	 SHORT $LN5@GetStringV

; 543  : 	{
; 544  : 		I3WARN("Value Table is not exist. \n");

  0000f	6a 01		 push	 1
  00011	68 00 00 00 00	 push	 OFFSET ??_C@_0EB@LPNLFBLF@const?5char?5?$CK__thiscall?5i3IniPar@
  00016	68 20 02 00 00	 push	 544			; 00000220H
  0001b	68 00 00 00 00	 push	 OFFSET ??_C@_0GG@LIGOM@E?3?2Proyectos?2JuegosOnlineproyec@
  00020	e8 00 00 00 00	 call	 ?SetEnv@i3Error@@YAXPBDH0W4I3LOG_TYPE@@@Z ; i3Error::SetEnv
  00025	68 00 00 00 00	 push	 OFFSET ??_C@_0BM@BCLBIDHM@Value?5Table?5is?5not?5exist?4?5?6@
  0002a	e8 00 00 00 00	 call	 ?Log@i3Error@@YAXPBDZZ	; i3Error::Log
  0002f	83 c4 14	 add	 esp, 20			; 00000014H

; 545  : 		//I3TRACE( "%s : Value Table is not exist.\n", __FUNCTION__ );
; 546  : 		return NULL;

  00032	33 c0		 xor	 eax, eax
  00034	5f		 pop	 edi

; 560  : }

  00035	5d		 pop	 ebp
  00036	c2 04 00	 ret	 4
$LN5@GetStringV:
  00039	53		 push	 ebx
  0003a	56		 push	 esi

; 547  : 	}
; 548  : 
; 549  : 	UINT32 i;
; 550  : 	for (i = 0; i < m_nNumValues; i++)

  0003b	33 f6		 xor	 esi, esi
  0003d	39 b7 a4 02 00
	00		 cmp	 DWORD PTR [edi+676], esi
  00043	76 32		 jbe	 SHORT $LN3@GetStringV
  00045	eb 09 8d a4 24
	00 00 00 00 8b
	ff		 npad	 11
$LL4@GetStringV:

; 551  : 	{
; 552  : 		if (i3String::Compare(szLabel, m_pValueTable[i].szLabel) == 0)

  00050	8b 87 a0 02 00
	00		 mov	 eax, DWORD PTR [edi+672]
  00056	69 de 84 01 00
	00		 imul	 ebx, esi, 388
  0005c	03 c3		 add	 eax, ebx
  0005e	50		 push	 eax
  0005f	ff 75 08	 push	 DWORD PTR _szLabel$[ebp]
  00062	e8 00 00 00 00	 call	 ?Compare@i3String@@YAHPBD0@Z ; i3String::Compare
  00067	83 c4 08	 add	 esp, 8
  0006a	85 c0		 test	 eax, eax
  0006c	74 12		 je	 SHORT $LN9@GetStringV

; 547  : 	}
; 548  : 
; 549  : 	UINT32 i;
; 550  : 	for (i = 0; i < m_nNumValues; i++)

  0006e	46		 inc	 esi
  0006f	3b b7 a4 02 00
	00		 cmp	 esi, DWORD PTR [edi+676]
  00075	72 d9		 jb	 SHORT $LL4@GetStringV
$LN3@GetStringV:
  00077	5e		 pop	 esi
  00078	5b		 pop	 ebx

; 555  : 		}
; 556  : 	}
; 557  : 
; 558  : 	//I3TRACE( "%s : Could not find the label named '%s'.\n", __FUNCTION__, szLabel );
; 559  : 	return NULL;

  00079	33 c0		 xor	 eax, eax
  0007b	5f		 pop	 edi

; 560  : }

  0007c	5d		 pop	 ebp
  0007d	c2 04 00	 ret	 4
$LN9@GetStringV:

; 553  : 		{
; 554  : 			return m_pValueTable[i].szValue;

  00080	8b 87 a0 02 00
	00		 mov	 eax, DWORD PTR [edi+672]
  00086	83 e8 80	 sub	 eax, -128		; ffffff80H
  00089	5e		 pop	 esi
  0008a	03 c3		 add	 eax, ebx
  0008c	5b		 pop	 ebx
  0008d	5f		 pop	 edi

; 560  : }

  0008e	5d		 pop	 ebp
  0008f	c2 04 00	 ret	 4
?GetStringValue@i3IniParser@@QAEPBDPBD@Z ENDP		; i3IniParser::GetStringValue
_TEXT	ENDS
; Function compile flags: /Ogtp
; File E:\Proyectos\JuegosOnlineproyectos\PB\pbblow\Piercing Blow Remake\i3Server\include\i3Base\i3IniParser.h
;	COMDAT ?GetValueByIndex@i3IniParser@@QAEPAUi3IniValue@@H@Z
_TEXT	SEGMENT
_nIndex$ = 8						; size = 4
?GetValueByIndex@i3IniParser@@QAEPAUi3IniValue@@H@Z PROC ; i3IniParser::GetValueByIndex, COMDAT
; _this$ = ecx

; 91   : 	i3IniValue* GetValueByIndex(INT32 nIndex) { return &m_pValueTable[nIndex]; }

  00000	55		 push	 ebp
  00001	8b ec		 mov	 ebp, esp
  00003	69 45 08 84 01
	00 00		 imul	 eax, DWORD PTR _nIndex$[ebp], 388
  0000a	03 81 a0 02 00
	00		 add	 eax, DWORD PTR [ecx+672]
  00010	5d		 pop	 ebp
  00011	c2 04 00	 ret	 4
?GetValueByIndex@i3IniParser@@QAEPAUi3IniValue@@H@Z ENDP ; i3IniParser::GetValueByIndex
_TEXT	ENDS
; Function compile flags: /Ogtp
; File E:\Proyectos\JuegosOnlineproyectos\PB\pbblow\Piercing Blow Remake\i3Server\include\i3Base\i3IniParser.h
;	COMDAT ?GetValueCount@i3IniParser@@QAEIXZ
_TEXT	SEGMENT
?GetValueCount@i3IniParser@@QAEIXZ PROC			; i3IniParser::GetValueCount, COMDAT
; _this$ = ecx

; 90   : 	UINT32 GetValueCount() { return m_nNumValues; }

  00000	8b 81 a4 02 00
	00		 mov	 eax, DWORD PTR [ecx+676]
  00006	c3		 ret	 0
?GetValueCount@i3IniParser@@QAEIXZ ENDP			; i3IniParser::GetValueCount
_TEXT	ENDS
; Function compile flags: /Ogtp
; File E:\Proyectos\JuegosOnlineproyectos\PB\pbblow\Piercing Blow Remake\i3Server\src\i3Base\i3IniParser.cpp
; File C:\Program Files (x86)\Windows Kits\10\Include\10.0.26100.0\ucrt\string.h
; File E:\Proyectos\JuegosOnlineproyectos\PB\pbblow\Piercing Blow Remake\i3Server\src\i3Base\i3IniParser.cpp
;	COMDAT ?ReadSectionByInfo@i3IniParser@@QAEHPAUi3IniSectionInfo@@@Z
_TEXT	SEGMENT
_pInfo$GSCopy$1$ = -2060				; size = 4
_i$1$ = -2056						; size = 4
_szReadBuf$ = -2052					; size = 1024
_szBuf$ = -1028						; size = 1024
__$ArrayPad$ = -4					; size = 4
_pInfo$ = 8						; size = 4
?ReadSectionByInfo@i3IniParser@@QAEHPAUi3IniSectionInfo@@@Z PROC ; i3IniParser::ReadSectionByInfo, COMDAT
; _this$ = ecx

; 441  : {

  00000	55		 push	 ebp
  00001	8b ec		 mov	 ebp, esp
  00003	81 ec 0c 08 00
	00		 sub	 esp, 2060		; 0000080cH
  00009	a1 00 00 00 00	 mov	 eax, DWORD PTR ___security_cookie
  0000e	33 c5		 xor	 eax, ebp
  00010	89 45 fc	 mov	 DWORD PTR __$ArrayPad$[ebp], eax
  00013	53		 push	 ebx
  00014	8b d9		 mov	 ebx, ecx
  00016	56		 push	 esi
  00017	8b 75 08	 mov	 esi, DWORD PTR _pInfo$[ebp]

; 442  : 	m_szSectionName[0] = 0;

  0001a	8d 8b 20 02 00
	00		 lea	 ecx, DWORD PTR [ebx+544]
  00020	89 b5 f4 f7 ff
	ff		 mov	 DWORD PTR _pInfo$GSCopy$1$[ebp], esi

; 443  : 
; 444  : 	if (m_pStream == NULL)

  00026	83 bb 18 02 00
	00 00		 cmp	 DWORD PTR [ebx+536], 0
  0002d	c6 01 00	 mov	 BYTE PTR [ecx], 0
  00030	75 37		 jne	 SHORT $LN5@ReadSectio

; 445  : 	{
; 446  : 		I3WARN("m_pStream is NULL.\n");

  00032	6a 01		 push	 1
  00034	68 00 00 00 00	 push	 OFFSET ??_C@_0EJ@KOPGLENC@int?5__thiscall?5i3IniParser?3?3Rea@
  00039	68 be 01 00 00	 push	 446			; 000001beH
  0003e	68 00 00 00 00	 push	 OFFSET ??_C@_0GG@LIGOM@E?3?2Proyectos?2JuegosOnlineproyec@
  00043	e8 00 00 00 00	 call	 ?SetEnv@i3Error@@YAXPBDH0W4I3LOG_TYPE@@@Z ; i3Error::SetEnv
  00048	68 00 00 00 00	 push	 OFFSET ??_C@_0BE@DLJIIAFH@m_pStream?5is?5NULL?4?6@
  0004d	e8 00 00 00 00	 call	 ?Log@i3Error@@YAXPBDZZ	; i3Error::Log
  00052	83 c4 14	 add	 esp, 20			; 00000014H

; 447  : 		I3TRACE( "ERROR : [%s] m_pStream is NULL.\n", __FUNCTION__ );
; 448  : 		return FALSE;

  00055	33 c0		 xor	 eax, eax
  00057	5e		 pop	 esi

; 535  : 	}
; 536  : 
; 537  : 	return TRUE;
; 538  : }

  00058	5b		 pop	 ebx
  00059	8b 4d fc	 mov	 ecx, DWORD PTR __$ArrayPad$[ebp]
  0005c	33 cd		 xor	 ecx, ebp
  0005e	e8 00 00 00 00	 call	 @__security_check_cookie@4
  00063	8b e5		 mov	 esp, ebp
  00065	5d		 pop	 ebp
  00066	c2 04 00	 ret	 4
$LN5@ReadSectio:

; 449  : 	}
; 450  : 
; 451  : 	if (pInfo == NULL)

  00069	85 f6		 test	 esi, esi
  0006b	0f 85 92 00 00
	00		 jne	 $LN6@ReadSectio

; 452  : 	{
; 453  : 		I3WARN("pInfo is NULL.\n");

  00071	6a 01		 push	 1
  00073	68 00 00 00 00	 push	 OFFSET ??_C@_0EJ@KOPGLENC@int?5__thiscall?5i3IniParser?3?3Rea@
  00078	68 c5 01 00 00	 push	 453			; 000001c5H
  0007d	68 00 00 00 00	 push	 OFFSET ??_C@_0GG@LIGOM@E?3?2Proyectos?2JuegosOnlineproyec@
  00082	e8 00 00 00 00	 call	 ?SetEnv@i3Error@@YAXPBDH0W4I3LOG_TYPE@@@Z ; i3Error::SetEnv
  00087	68 00 00 00 00	 push	 OFFSET ??_C@_0BA@JEIBDMBE@pInfo?5is?5NULL?4?6@
  0008c	e8 00 00 00 00	 call	 ?Log@i3Error@@YAXPBDZZ	; i3Error::Log

; 454  : 		I3WARN( "ERROR : [%s] pInfo is NULL.\n", __FUNCTION__ );

  00091	6a 01		 push	 1
  00093	68 00 00 00 00	 push	 OFFSET ??_C@_0EJ@KOPGLENC@int?5__thiscall?5i3IniParser?3?3Rea@
  00098	68 c6 01 00 00	 push	 454			; 000001c6H
  0009d	68 00 00 00 00	 push	 OFFSET ??_C@_0GG@LIGOM@E?3?2Proyectos?2JuegosOnlineproyec@
  000a2	e8 00 00 00 00	 call	 ?SetEnv@i3Error@@YAXPBDH0W4I3LOG_TYPE@@@Z ; i3Error::SetEnv
  000a7	68 00 00 00 00	 push	 OFFSET ??_C@_0BP@CCBDLFBK@i3IniParser?3?3ReadSectionByInfo@
  000ac	68 00 00 00 00	 push	 OFFSET ??_C@_0BN@IFIOBCJG@ERROR?5?3?5?$FL?$CFs?$FN?5pInfo?5is?5NULL?4?6@
  000b1	e8 00 00 00 00	 call	 ?Log@i3Error@@YAXPBDZZ	; i3Error::Log

; 455  : 		I3WARN("ERROR: [ReadSectionByInfo] Section not found in '%s'\n", m_szi3INIFileNameExt[0] ? m_szi3INIFileNameExt : "Config.ini");

  000b6	6a 01		 push	 1
  000b8	68 00 00 00 00	 push	 OFFSET ??_C@_0EJ@KOPGLENC@int?5__thiscall?5i3IniParser?3?3Rea@
  000bd	68 c7 01 00 00	 push	 455			; 000001c7H
  000c2	68 00 00 00 00	 push	 OFFSET ??_C@_0GG@LIGOM@E?3?2Proyectos?2JuegosOnlineproyec@
  000c7	e8 00 00 00 00	 call	 ?SetEnv@i3Error@@YAXPBDH0W4I3LOG_TYPE@@@Z ; i3Error::SetEnv
  000cc	80 bb ad 03 00
	00 00		 cmp	 BYTE PTR [ebx+941], 0
  000d3	8d 83 ad 03 00
	00		 lea	 eax, DWORD PTR [ebx+941]
  000d9	b9 00 00 00 00	 mov	 ecx, OFFSET ??_C@_0L@LMGNLEPG@Config?4ini@
  000de	0f 45 c8	 cmovne	 ecx, eax
  000e1	51		 push	 ecx
  000e2	68 00 00 00 00	 push	 OFFSET ??_C@_0DG@CIBHBENN@ERROR?3?5?$FLReadSectionByInfo?$FN?5Sect@
  000e7	e8 00 00 00 00	 call	 ?Log@i3Error@@YAXPBDZZ	; i3Error::Log
  000ec	83 c4 44	 add	 esp, 68			; 00000044H

; 456  : 		return FALSE;

  000ef	33 c0		 xor	 eax, eax
  000f1	5e		 pop	 esi

; 535  : 	}
; 536  : 
; 537  : 	return TRUE;
; 538  : }

  000f2	5b		 pop	 ebx
  000f3	8b 4d fc	 mov	 ecx, DWORD PTR __$ArrayPad$[ebp]
  000f6	33 cd		 xor	 ecx, ebp
  000f8	e8 00 00 00 00	 call	 @__security_check_cookie@4
  000fd	8b e5		 mov	 esp, ebp
  000ff	5d		 pop	 ebp
  00100	c2 04 00	 ret	 4
$LN6@ReadSectio:

; 457  : 	}
; 458  : 
; 459  : 	strcpy(m_szSectionName, pInfo->Name);

  00103	8d 56 08	 lea	 edx, DWORD PTR [esi+8]
$LL19@ReadSectio:
  00106	8a 02		 mov	 al, BYTE PTR [edx]
  00108	8d 52 01	 lea	 edx, DWORD PTR [edx+1]
  0010b	88 01		 mov	 BYTE PTR [ecx], al
  0010d	8d 49 01	 lea	 ecx, DWORD PTR [ecx+1]
  00110	84 c0		 test	 al, al
  00112	75 f2		 jne	 SHORT $LL19@ReadSectio

; 460  : 
; 461  : 	// Value Table 준비
; 462  : 	I3MEM_SAFE_FREE_POINTER(m_pValueTable);

  00114	8b 83 a0 02 00
	00		 mov	 eax, DWORD PTR [ebx+672]
  0011a	85 c0		 test	 eax, eax
  0011c	74 1d		 je	 SHORT $LN7@ReadSectio
  0011e	68 ce 01 00 00	 push	 462			; 000001ceH
  00123	68 00 00 00 00	 push	 OFFSET ??_C@_0GG@LIGOM@E?3?2Proyectos?2JuegosOnlineproyec@
  00128	50		 push	 eax
  00129	e8 00 00 00 00	 call	 ?FreeTool@i3mem@@YAXPAXPBDH@Z ; i3mem::FreeTool
  0012e	83 c4 0c	 add	 esp, 12			; 0000000cH
  00131	c7 83 a0 02 00
	00 00 00 00 00	 mov	 DWORD PTR [ebx+672], 0
$LN7@ReadSectio:

; 463  : 	if (pInfo->NumLines <= 0)

  0013b	8b 46 04	 mov	 eax, DWORD PTR [esi+4]
  0013e	85 c0		 test	 eax, eax
  00140	0f 84 b3 01 00
	00		 je	 $LN3@ReadSectio

; 464  : 	{
; 465  : 		return TRUE;
; 466  : 	}
; 467  : 
; 468  : 	{
; 469  : 		//		I3HMEM hMem = i3MemAlloc( sizeof(i3IniValue) * pInfo->NumLines);
; 470  : 		m_pValueTable = (i3IniValue*)i3MemAlloc(sizeof(i3IniValue) * pInfo->NumLines);

  00146	68 d6 01 00 00	 push	 470			; 000001d6H
  0014b	68 00 00 00 00	 push	 OFFSET ??_C@_0GG@LIGOM@E?3?2Proyectos?2JuegosOnlineproyec@
  00150	69 c0 84 01 00
	00		 imul	 eax, eax, 388
  00156	6a 10		 push	 16			; 00000010H
  00158	6a 00		 push	 0
  0015a	50		 push	 eax
  0015b	e8 00 00 00 00	 call	 ?AllocTool@i3mem@@YAPAXHHHPBDH@Z ; i3mem::AllocTool

; 471  : 	}
; 472  : 
; 473  : 	char szReadBuf[1024];
; 474  : 	char szBuf[1024];
; 475  : 	UINT32 i;
; 476  : 
; 477  : 	// Section의 처음 위치로 이동
; 478  : 	m_pStream->SetPosition(pInfo->Position, STREAM_BEGIN);

  00160	8b 8b 18 02 00
	00		 mov	 ecx, DWORD PTR [ebx+536]
  00166	83 c4 14	 add	 esp, 20			; 00000014H
  00169	89 83 a0 02 00
	00		 mov	 DWORD PTR [ebx+672], eax
  0016f	8b 01		 mov	 eax, DWORD PTR [ecx]
  00171	6a 01		 push	 1
  00173	ff 36		 push	 DWORD PTR [esi]
  00175	ff 50 2c	 call	 DWORD PTR [eax+44]

; 479  : 
; 480  : 	m_nNumValues = 0;
; 481  : 
; 482  : 	for (i = 0; i < pInfo->NumLines; i++)

  00178	8b 85 f4 f7 ff
	ff		 mov	 eax, DWORD PTR _pInfo$GSCopy$1$[ebp]
  0017e	33 f6		 xor	 esi, esi
  00180	c7 83 a4 02 00
	00 00 00 00 00	 mov	 DWORD PTR [ebx+676], 0
  0018a	89 b5 f8 f7 ff
	ff		 mov	 DWORD PTR _i$1$[ebp], esi
  00190	39 70 04	 cmp	 DWORD PTR [eax+4], esi
  00193	0f 86 60 01 00
	00		 jbe	 $LN3@ReadSectio
  00199	57		 push	 edi
  0019a	8d 9b 00 00 00
	00		 npad	 6
$LL4@ReadSectio:

; 483  : 	{
; 484  : 		// 한줄 읽음
; 485  : 		_ReadLine(szReadBuf);

  001a0	8d 85 fc f7 ff
	ff		 lea	 eax, DWORD PTR _szReadBuf$[ebp]
  001a6	8b cb		 mov	 ecx, ebx
  001a8	50		 push	 eax
  001a9	e8 00 00 00 00	 call	 ?_ReadLine@i3IniParser@@IAEIPAD@Z ; i3IniParser::_ReadLine

; 486  : 
; 487  : 		RemoveWhiteSpace(szBuf, szReadBuf);

  001ae	8d 85 fc f7 ff
	ff		 lea	 eax, DWORD PTR _szReadBuf$[ebp]
  001b4	8b cb		 mov	 ecx, ebx
  001b6	50		 push	 eax
  001b7	8d 85 fc fb ff
	ff		 lea	 eax, DWORD PTR _szBuf$[ebp]
  001bd	50		 push	 eax
  001be	e8 00 00 00 00	 call	 ?RemoveWhiteSpace@i3IniParser@@IAEXPADPBD@Z ; i3IniParser::RemoveWhiteSpace

; 488  : 
; 489  : 		// 아무것도 없으면 스킵...
; 490  : 		if (szBuf[0] == '\0' || szBuf[0] == '=')

  001c3	8a 85 fc fb ff
	ff		 mov	 al, BYTE PTR _szBuf$[ebp]
  001c9	84 c0		 test	 al, al
  001cb	0f 84 11 01 00
	00		 je	 $LN2@ReadSectio
  001d1	3c 3d		 cmp	 al, 61			; 0000003dH
  001d3	0f 84 09 01 00
	00		 je	 $LN2@ReadSectio
; File C:\Program Files (x86)\Windows Kits\10\Include\10.0.26100.0\ucrt\string.h

; 502  :         return const_cast<char*>(strchr(static_cast<char const*>(_String), _Ch));

  001d9	8d 85 fc fb ff
	ff		 lea	 eax, DWORD PTR _szBuf$[ebp]
  001df	6a 3d		 push	 61			; 0000003dH
  001e1	50		 push	 eax
  001e2	e8 00 00 00 00	 call	 _strchr
  001e7	83 c4 08	 add	 esp, 8
; File E:\Proyectos\JuegosOnlineproyectos\PB\pbblow\Piercing Blow Remake\i3Server\src\i3Base\i3IniParser.cpp

; 497  : 		if (pSeperator == NULL)

  001ea	85 c0		 test	 eax, eax
  001ec	0f 84 f0 00 00
	00		 je	 $LN2@ReadSectio

; 498  : 		{
; 499  : 			continue;
; 500  : 		}
; 501  : 		*pSeperator = 0;
; 502  : 		char* pValue = pSeperator + 1;
; 503  : 
; 504  : 		// 라벨 길이 검사
; 505  : 		if (strlen(szBuf) >= I3_INI_NAME_SIZE)

  001f2	8d 8d fc fb ff
	ff		 lea	 ecx, DWORD PTR _szBuf$[ebp]
  001f8	c6 00 00	 mov	 BYTE PTR [eax], 0
  001fb	8d 78 01	 lea	 edi, DWORD PTR [eax+1]
  001fe	8d 51 01	 lea	 edx, DWORD PTR [ecx+1]
$LL38@ReadSectio:
  00201	8a 01		 mov	 al, BYTE PTR [ecx]
  00203	41		 inc	 ecx
  00204	84 c0		 test	 al, al
  00206	75 f9		 jne	 SHORT $LL38@ReadSectio
  00208	2b ca		 sub	 ecx, edx
  0020a	81 f9 80 00 00
	00		 cmp	 ecx, 128		; 00000080H
  00210	72 28		 jb	 SHORT $LN12@ReadSectio

; 506  : 		{
; 507  : 			// 너무 길면 스킵
; 508  : 			I3WARN("szLabel name is too long\n");

  00212	6a 01		 push	 1
  00214	68 00 00 00 00	 push	 OFFSET ??_C@_0EJ@KOPGLENC@int?5__thiscall?5i3IniParser?3?3Rea@
  00219	68 fc 01 00 00	 push	 508			; 000001fcH
  0021e	68 00 00 00 00	 push	 OFFSET ??_C@_0GG@LIGOM@E?3?2Proyectos?2JuegosOnlineproyec@
  00223	e8 00 00 00 00	 call	 ?SetEnv@i3Error@@YAXPBDH0W4I3LOG_TYPE@@@Z ; i3Error::SetEnv
  00228	68 00 00 00 00	 push	 OFFSET ??_C@_0BK@JNFPJABN@szLabel?5name?5is?5too?5long?6@
  0022d	e8 00 00 00 00	 call	 ?Log@i3Error@@YAXPBDZZ	; i3Error::Log
  00232	83 c4 14	 add	 esp, 20			; 00000014H

; 509  : 			//I3TRACE( "%s : szLabel name is too long (%s)\n", __FUNCTION__, szBuf );
; 510  : 			I3ASSERT_0;
; 511  : 			continue;

  00235	e9 a8 00 00 00	 jmp	 $LN2@ReadSectio
$LN12@ReadSectio:

; 512  : 		}
; 513  : 		else
; 514  : 		{
; 515  : 			INT32 nValueLength = strlen(pValue);

  0023a	8b c7		 mov	 eax, edi
  0023c	8d 50 01	 lea	 edx, DWORD PTR [eax+1]
  0023f	90		 npad	 1
$LL39@ReadSectio:
  00240	8a 08		 mov	 cl, BYTE PTR [eax]
  00242	40		 inc	 eax
  00243	84 c9		 test	 cl, cl
  00245	75 f9		 jne	 SHORT $LL39@ReadSectio
  00247	2b c2		 sub	 eax, edx

; 516  : 
; 517  : 			// 값의 길이 검사
; 518  : 			if (nValueLength >= I3_INI_VALUE_SIZE)

  00249	3d 00 01 00 00	 cmp	 eax, 256		; 00000100H
  0024e	7c 25		 jl	 SHORT $LN14@ReadSectio

; 519  : 			{
; 520  : 				// 너무 길면 스킵
; 521  : 				I3WARN("szLabel value string is too long \n");

  00250	6a 01		 push	 1
  00252	68 00 00 00 00	 push	 OFFSET ??_C@_0EJ@KOPGLENC@int?5__thiscall?5i3IniParser?3?3Rea@
  00257	68 09 02 00 00	 push	 521			; 00000209H
  0025c	68 00 00 00 00	 push	 OFFSET ??_C@_0GG@LIGOM@E?3?2Proyectos?2JuegosOnlineproyec@
  00261	e8 00 00 00 00	 call	 ?SetEnv@i3Error@@YAXPBDH0W4I3LOG_TYPE@@@Z ; i3Error::SetEnv
  00266	68 00 00 00 00	 push	 OFFSET ??_C@_0CD@CHADIGIF@szLabel?5value?5string?5is?5too?5lon@
  0026b	e8 00 00 00 00	 call	 ?Log@i3Error@@YAXPBDZZ	; i3Error::Log
  00270	83 c4 14	 add	 esp, 20			; 00000014H

; 522  : 				//I3TRACE( "%s : szLabel value string is too long (%s)\n", __FUNCTION__, pValue );
; 523  : 				I3ASSERT_0;
; 524  : 				continue;

  00273	eb 6d		 jmp	 SHORT $LN2@ReadSectio
$LN14@ReadSectio:

; 525  : 			}
; 526  : 			else
; 527  : 			{
; 528  : 				// 라벨과 값 문자열 복사
; 529  : 				strcpy(m_pValueTable[m_nNumValues].szLabel, szBuf);

  00275	69 93 a4 02 00
	00 84 01 00 00	 imul	 edx, DWORD PTR [ebx+676], 388
  0027f	8d b5 fc fb ff
	ff		 lea	 esi, DWORD PTR _szBuf$[ebp]
  00285	03 93 a0 02 00
	00		 add	 edx, DWORD PTR [ebx+672]
  0028b	eb 03 8d 49 00	 npad	 5
$LL20@ReadSectio:
  00290	8a 0e		 mov	 cl, BYTE PTR [esi]
  00292	8d 76 01	 lea	 esi, DWORD PTR [esi+1]
  00295	88 0a		 mov	 BYTE PTR [edx], cl
  00297	8d 52 01	 lea	 edx, DWORD PTR [edx+1]
  0029a	84 c9		 test	 cl, cl
  0029c	75 f2		 jne	 SHORT $LL20@ReadSectio

; 530  : 				strcpy(m_pValueTable[m_nNumValues].szValue, pValue);

  0029e	69 93 a4 02 00
	00 84 01 00 00	 imul	 edx, DWORD PTR [ebx+676], 388
  002a8	83 ea 80	 sub	 edx, -128		; ffffff80H
  002ab	03 93 a0 02 00
	00		 add	 edx, DWORD PTR [ebx+672]
$LL21@ReadSectio:
  002b1	8a 0f		 mov	 cl, BYTE PTR [edi]
  002b3	8d 7f 01	 lea	 edi, DWORD PTR [edi+1]
  002b6	88 0a		 mov	 BYTE PTR [edx], cl
  002b8	8d 52 01	 lea	 edx, DWORD PTR [edx+1]
  002bb	84 c9		 test	 cl, cl
  002bd	75 f2		 jne	 SHORT $LL21@ReadSectio

; 531  : 				m_pValueTable[m_nNumValues].nLength = nValueLength;

  002bf	69 93 a4 02 00
	00 84 01 00 00	 imul	 edx, DWORD PTR [ebx+676], 388
  002c9	8b 8b a0 02 00
	00		 mov	 ecx, DWORD PTR [ebx+672]
  002cf	8b b5 f8 f7 ff
	ff		 mov	 esi, DWORD PTR _i$1$[ebp]
  002d5	89 84 0a 80 01
	00 00		 mov	 DWORD PTR [edx+ecx+384], eax

; 532  : 			}
; 533  : 		}
; 534  : 		m_nNumValues++;

  002dc	ff 83 a4 02 00
	00		 inc	 DWORD PTR [ebx+676]
$LN2@ReadSectio:

; 479  : 
; 480  : 	m_nNumValues = 0;
; 481  : 
; 482  : 	for (i = 0; i < pInfo->NumLines; i++)

  002e2	8b 85 f4 f7 ff
	ff		 mov	 eax, DWORD PTR _pInfo$GSCopy$1$[ebp]
  002e8	46		 inc	 esi
  002e9	89 b5 f8 f7 ff
	ff		 mov	 DWORD PTR _i$1$[ebp], esi
  002ef	3b 70 04	 cmp	 esi, DWORD PTR [eax+4]
  002f2	0f 82 a8 fe ff
	ff		 jb	 $LL4@ReadSectio
  002f8	5f		 pop	 edi
$LN3@ReadSectio:

; 535  : 	}
; 536  : 
; 537  : 	return TRUE;
; 538  : }

  002f9	8b 4d fc	 mov	 ecx, DWORD PTR __$ArrayPad$[ebp]
  002fc	b8 01 00 00 00	 mov	 eax, 1
  00301	5e		 pop	 esi
  00302	33 cd		 xor	 ecx, ebp
  00304	5b		 pop	 ebx
  00305	e8 00 00 00 00	 call	 @__security_check_cookie@4
  0030a	8b e5		 mov	 esp, ebp
  0030c	5d		 pop	 ebp
  0030d	c2 04 00	 ret	 4
?ReadSectionByInfo@i3IniParser@@QAEHPAUi3IniSectionInfo@@@Z ENDP ; i3IniParser::ReadSectionByInfo
_TEXT	ENDS
; Function compile flags: /Ogtp
; File E:\Proyectos\JuegosOnlineproyectos\PB\pbblow\Piercing Blow Remake\i3Server\src\i3Base\i3IniParser.cpp
; File E:\Proyectos\JuegosOnlineproyectos\PB\pbblow\Piercing Blow Remake\i3Server\include\i3Base\i3List.h
; File E:\Proyectos\JuegosOnlineproyectos\PB\pbblow\Piercing Blow Remake\i3Server\src\i3Base\i3IniParser.cpp
; File E:\Proyectos\JuegosOnlineproyectos\PB\pbblow\Piercing Blow Remake\i3Server\include\i3Base\i3List.h
; File E:\Proyectos\JuegosOnlineproyectos\PB\pbblow\Piercing Blow Remake\i3Server\src\i3Base\i3IniParser.cpp
; File E:\Proyectos\JuegosOnlineproyectos\PB\pbblow\Piercing Blow Remake\i3Server\include\i3Base\i3List.h
; File E:\Proyectos\JuegosOnlineproyectos\PB\pbblow\Piercing Blow Remake\i3Server\src\i3Base\i3IniParser.cpp
;	COMDAT ?ReadSectionByIndex@i3IniParser@@QAEHH@Z
_TEXT	SEGMENT
_nIndex$ = 8						; size = 4
?ReadSectionByIndex@i3IniParser@@QAEHH@Z PROC		; i3IniParser::ReadSectionByIndex, COMDAT
; _this$ = ecx

; 430  : {

  00000	55		 push	 ebp
  00001	8b ec		 mov	 ebp, esp

; 431  : 	i3IniSectionInfo* pInfo = NULL;
; 432  : 	if (nIndex < m_pSectionList->GetCount())

  00003	8b 55 08	 mov	 edx, DWORD PTR _nIndex$[ebp]
  00006	33 c0		 xor	 eax, eax
  00008	56		 push	 esi
  00009	8b b1 1c 02 00
	00		 mov	 esi, DWORD PTR [ecx+540]
  0000f	3b 56 14	 cmp	 edx, DWORD PTR [esi+20]
  00012	7d 16		 jge	 SHORT $LN6@ReadSectio
; File E:\Proyectos\JuegosOnlineproyectos\PB\pbblow\Piercing Blow Remake\i3Server\include\i3Base\i3List.h

; 93   : 	void *	GetItem( INT32 idx)				{ if( idx >= GetCount() || idx < 0 )	return NULL;

  00014	85 d2		 test	 edx, edx
  00016	78 10		 js	 SHORT $LN7@ReadSectio

; 94   : 											  else									return Items[ idx];	 }

  00018	8b 46 24	 mov	 eax, DWORD PTR [esi+36]
; File E:\Proyectos\JuegosOnlineproyectos\PB\pbblow\Piercing Blow Remake\i3Server\src\i3Base\i3IniParser.cpp

; 436  : 	return ReadSectionByInfo(pInfo);

  0001b	5e		 pop	 esi
; File E:\Proyectos\JuegosOnlineproyectos\PB\pbblow\Piercing Blow Remake\i3Server\include\i3Base\i3List.h

; 94   : 											  else									return Items[ idx];	 }

  0001c	8b 04 90	 mov	 eax, DWORD PTR [eax+edx*4]
; File E:\Proyectos\JuegosOnlineproyectos\PB\pbblow\Piercing Blow Remake\i3Server\src\i3Base\i3IniParser.cpp

; 436  : 	return ReadSectionByInfo(pInfo);

  0001f	89 45 08	 mov	 DWORD PTR _nIndex$[ebp], eax

; 437  : }

  00022	5d		 pop	 ebp

; 436  : 	return ReadSectionByInfo(pInfo);

  00023	e9 00 00 00 00	 jmp	 ?ReadSectionByInfo@i3IniParser@@QAEHPAUi3IniSectionInfo@@@Z ; i3IniParser::ReadSectionByInfo
$LN7@ReadSectio:
; File E:\Proyectos\JuegosOnlineproyectos\PB\pbblow\Piercing Blow Remake\i3Server\include\i3Base\i3List.h

; 93   : 	void *	GetItem( INT32 idx)				{ if( idx >= GetCount() || idx < 0 )	return NULL;

  00028	33 c0		 xor	 eax, eax
$LN6@ReadSectio:
; File E:\Proyectos\JuegosOnlineproyectos\PB\pbblow\Piercing Blow Remake\i3Server\src\i3Base\i3IniParser.cpp

; 436  : 	return ReadSectionByInfo(pInfo);

  0002a	5e		 pop	 esi
  0002b	89 45 08	 mov	 DWORD PTR _nIndex$[ebp], eax

; 437  : }

  0002e	5d		 pop	 ebp

; 436  : 	return ReadSectionByInfo(pInfo);

  0002f	e9 00 00 00 00	 jmp	 ?ReadSectionByInfo@i3IniParser@@QAEHPAUi3IniSectionInfo@@@Z ; i3IniParser::ReadSectionByInfo
?ReadSectionByIndex@i3IniParser@@QAEHH@Z ENDP		; i3IniParser::ReadSectionByIndex
_TEXT	ENDS
; Function compile flags: /Ogtp
; File E:\Proyectos\JuegosOnlineproyectos\PB\pbblow\Piercing Blow Remake\i3Server\src\i3Base\i3IniParser.cpp
;	COMDAT ?ReadSection@i3IniParser@@QAEHPBD@Z
_TEXT	SEGMENT
_szName$ = 8						; size = 4
?ReadSection@i3IniParser@@QAEHPBD@Z PROC		; i3IniParser::ReadSection, COMDAT
; _this$ = ecx

; 422  : {

  00000	55		 push	 ebp
  00001	8b ec		 mov	 ebp, esp
  00003	56		 push	 esi

; 423  : 	// 섹션 찾기
; 424  : 	i3IniSectionInfo* pInfo = FindSection(szName);

  00004	ff 75 08	 push	 DWORD PTR _szName$[ebp]
