; Listing generated by Microsoft (R) Optimizing Compiler Version 19.50.35727.0 

	TITLE	E:\Proyectos\JuegosOnlineproyectos\PB\pbblow\Piercing Blow Remake\i3Server\Project\I3_DX\i3Server\x86\Release\i3Inet.obj
	.686P
	.XMM
	include listing.inc
	.model	flat

INCLUDELIB LIBCMT
INCLUDELIB OLDNAMES

PUBLIC	?s_pClassMetai3Udp@i3Udp@@2PAVi3ClassMeta@@A	; i3Udp::s_pClassMetai3Udp
PUBLIC	?s_pClassMetai3Tcp@i3Tcp@@2PAVi3ClassMeta@@A	; i3Tcp::s_pClassMetai3Tcp
PUBLIC	?CreateInstance@?$i3MetaTemplate@Vi3Udp@@@@UAEPAVi3ElementBase@@W4I3_CLASSMETA_TYPE@@@Z ; i3MetaTemplate<i3Udp>::CreateInstance
PUBLIC	?BindInstance@?$i3MetaTemplate@Vi3Udp@@@@UAEPAVi3ElementBase@@PAXW4I3_CLASSMETA_TYPE@@@Z ; i3MetaTemplate<i3Udp>::BindInstance
PUBLIC	??_7?$i3MetaTemplate@Vi3Udp@@@@6B@		; i3MetaTemplate<i3Udp>::`vftable'
PUBLIC	??_G?$i3MetaTemplate@Vi3Udp@@@@UAEPAXI@Z	; i3MetaTemplate<i3Udp>::`scalar deleting destructor'
PUBLIC	??_C@_0O@OCDFBOHM@i3ElementBase@		; `string'
PUBLIC	??_C@_05BLHFCHAC@i3Udp@				; `string'
PUBLIC	?CreateInstance@?$i3MetaTemplate@Vi3Tcp@@@@UAEPAVi3ElementBase@@W4I3_CLASSMETA_TYPE@@@Z ; i3MetaTemplate<i3Tcp>::CreateInstance
PUBLIC	?BindInstance@?$i3MetaTemplate@Vi3Tcp@@@@UAEPAVi3ElementBase@@PAXW4I3_CLASSMETA_TYPE@@@Z ; i3MetaTemplate<i3Tcp>::BindInstance
PUBLIC	??_7?$i3MetaTemplate@Vi3Tcp@@@@6B@		; i3MetaTemplate<i3Tcp>::`vftable'
PUBLIC	??_G?$i3MetaTemplate@Vi3Tcp@@@@UAEPAXI@Z	; i3MetaTemplate<i3Tcp>::`scalar deleting destructor'
PUBLIC	??_C@_05KGIGFGOC@i3Tcp@				; `string'
PUBLIC	??_R0?AVi3ClassMeta@@@8				; i3ClassMeta `RTTI Type Descriptor'
PUBLIC	??_R3i3ClassMeta@@8				; i3ClassMeta::`RTTI Class Hierarchy Descriptor'
PUBLIC	??_R2i3ClassMeta@@8				; i3ClassMeta::`RTTI Base Class Array'
PUBLIC	??_R1A@?0A@EA@i3ClassMeta@@8			; i3ClassMeta::`RTTI Base Class Descriptor at (0,-1,0,64)'
PUBLIC	??_R4?$i3MetaTemplate@Vi3Udp@@@@6B@		; i3MetaTemplate<i3Udp>::`RTTI Complete Object Locator'
PUBLIC	??_R0?AV?$i3MetaTemplate@Vi3Udp@@@@@8		; i3MetaTemplate<i3Udp> `RTTI Type Descriptor'
PUBLIC	??_R3?$i3MetaTemplate@Vi3Udp@@@@8		; i3MetaTemplate<i3Udp>::`RTTI Class Hierarchy Descriptor'
PUBLIC	??_R2?$i3MetaTemplate@Vi3Udp@@@@8		; i3MetaTemplate<i3Udp>::`RTTI Base Class Array'
PUBLIC	??_R1A@?0A@EA@?$i3MetaTemplate@Vi3Udp@@@@8	; i3MetaTemplate<i3Udp>::`RTTI Base Class Descriptor at (0,-1,0,64)'
PUBLIC	??_R4?$i3MetaTemplate@Vi3Tcp@@@@6B@		; i3MetaTemplate<i3Tcp>::`RTTI Complete Object Locator'
PUBLIC	??_R0?AV?$i3MetaTemplate@Vi3Tcp@@@@@8		; i3MetaTemplate<i3Tcp> `RTTI Type Descriptor'
PUBLIC	??_R3?$i3MetaTemplate@Vi3Tcp@@@@8		; i3MetaTemplate<i3Tcp>::`RTTI Class Hierarchy Descriptor'
PUBLIC	??_R2?$i3MetaTemplate@Vi3Tcp@@@@8		; i3MetaTemplate<i3Tcp>::`RTTI Base Class Array'
PUBLIC	??_R1A@?0A@EA@?$i3MetaTemplate@Vi3Tcp@@@@8	; i3MetaTemplate<i3Tcp>::`RTTI Base Class Descriptor at (0,-1,0,64)'
PUBLIC	__Avx2WmemEnabledWeakValue
EXTRN	??_E?$i3MetaTemplate@Vi3Udp@@@@UAEPAXI@Z:PROC	; i3MetaTemplate<i3Udp>::`vector deleting destructor'
EXTRN	??_E?$i3MetaTemplate@Vi3Tcp@@@@UAEPAXI@Z:PROC	; i3MetaTemplate<i3Tcp>::`vector deleting destructor'
EXTRN	??_7type_info@@6B@:QWORD			; type_info::`vftable'
;	COMDAT __Avx2WmemEnabledWeakValue
_BSS	SEGMENT
__Avx2WmemEnabledWeakValue DD 01H DUP (?)
_BSS	ENDS
;	COMDAT ??_R1A@?0A@EA@?$i3MetaTemplate@Vi3Tcp@@@@8
rdata$r	SEGMENT
??_R1A@?0A@EA@?$i3MetaTemplate@Vi3Tcp@@@@8 DD FLAT:??_R0?AV?$i3MetaTemplate@Vi3Tcp@@@@@8 ; i3MetaTemplate<i3Tcp>::`RTTI Base Class Descriptor at (0,-1,0,64)'
	DD	01H
	DD	00H
	DD	0ffffffffH
	DD	00H
	DD	040H
	DD	FLAT:??_R3?$i3MetaTemplate@Vi3Tcp@@@@8
rdata$r	ENDS
;	COMDAT ??_R2?$i3MetaTemplate@Vi3Tcp@@@@8
rdata$r	SEGMENT
??_R2?$i3MetaTemplate@Vi3Tcp@@@@8 DD FLAT:??_R1A@?0A@EA@?$i3MetaTemplate@Vi3Tcp@@@@8 ; i3MetaTemplate<i3Tcp>::`RTTI Base Class Array'
	DD	FLAT:??_R1A@?0A@EA@i3ClassMeta@@8
rdata$r	ENDS
;	COMDAT ??_R3?$i3MetaTemplate@Vi3Tcp@@@@8
rdata$r	SEGMENT
??_R3?$i3MetaTemplate@Vi3Tcp@@@@8 DD 00H		; i3MetaTemplate<i3Tcp>::`RTTI Class Hierarchy Descriptor'
	DD	00H
	DD	02H
	DD	FLAT:??_R2?$i3MetaTemplate@Vi3Tcp@@@@8
rdata$r	ENDS
;	COMDAT ??_R0?AV?$i3MetaTemplate@Vi3Tcp@@@@@8
data$rs	SEGMENT
??_R0?AV?$i3MetaTemplate@Vi3Tcp@@@@@8 DD FLAT:??_7type_info@@6B@ ; i3MetaTemplate<i3Tcp> `RTTI Type Descriptor'
	DD	00H
	DB	'.?AV?$i3MetaTemplate@Vi3Tcp@@@@', 00H
data$rs	ENDS
;	COMDAT ??_R4?$i3MetaTemplate@Vi3Tcp@@@@6B@
rdata$r	SEGMENT
??_R4?$i3MetaTemplate@Vi3Tcp@@@@6B@ DD 00H		; i3MetaTemplate<i3Tcp>::`RTTI Complete Object Locator'
	DD	00H
	DD	00H
	DD	FLAT:??_R0?AV?$i3MetaTemplate@Vi3Tcp@@@@@8
	DD	FLAT:??_R3?$i3MetaTemplate@Vi3Tcp@@@@8
rdata$r	ENDS
;	COMDAT ??_R1A@?0A@EA@?$i3MetaTemplate@Vi3Udp@@@@8
rdata$r	SEGMENT
??_R1A@?0A@EA@?$i3MetaTemplate@Vi3Udp@@@@8 DD FLAT:??_R0?AV?$i3MetaTemplate@Vi3Udp@@@@@8 ; i3MetaTemplate<i3Udp>::`RTTI Base Class Descriptor at (0,-1,0,64)'
	DD	01H
	DD	00H
	DD	0ffffffffH
	DD	00H
	DD	040H
	DD	FLAT:??_R3?$i3MetaTemplate@Vi3Udp@@@@8
rdata$r	ENDS
;	COMDAT ??_R2?$i3MetaTemplate@Vi3Udp@@@@8
rdata$r	SEGMENT
??_R2?$i3MetaTemplate@Vi3Udp@@@@8 DD FLAT:??_R1A@?0A@EA@?$i3MetaTemplate@Vi3Udp@@@@8 ; i3MetaTemplate<i3Udp>::`RTTI Base Class Array'
	DD	FLAT:??_R1A@?0A@EA@i3ClassMeta@@8
rdata$r	ENDS
;	COMDAT ??_R3?$i3MetaTemplate@Vi3Udp@@@@8
rdata$r	SEGMENT
??_R3?$i3MetaTemplate@Vi3Udp@@@@8 DD 00H		; i3MetaTemplate<i3Udp>::`RTTI Class Hierarchy Descriptor'
	DD	00H
	DD	02H
	DD	FLAT:??_R2?$i3MetaTemplate@Vi3Udp@@@@8
rdata$r	ENDS
;	COMDAT ??_R0?AV?$i3MetaTemplate@Vi3Udp@@@@@8
data$rs	SEGMENT
??_R0?AV?$i3MetaTemplate@Vi3Udp@@@@@8 DD FLAT:??_7type_info@@6B@ ; i3MetaTemplate<i3Udp> `RTTI Type Descriptor'
	DD	00H
	DB	'.?AV?$i3MetaTemplate@Vi3Udp@@@@', 00H
data$rs	ENDS
;	COMDAT ??_R4?$i3MetaTemplate@Vi3Udp@@@@6B@
rdata$r	SEGMENT
??_R4?$i3MetaTemplate@Vi3Udp@@@@6B@ DD 00H		; i3MetaTemplate<i3Udp>::`RTTI Complete Object Locator'
	DD	00H
	DD	00H
	DD	FLAT:??_R0?AV?$i3MetaTemplate@Vi3Udp@@@@@8
	DD	FLAT:??_R3?$i3MetaTemplate@Vi3Udp@@@@8
rdata$r	ENDS
;	COMDAT ??_R1A@?0A@EA@i3ClassMeta@@8
rdata$r	SEGMENT
??_R1A@?0A@EA@i3ClassMeta@@8 DD FLAT:??_R0?AVi3ClassMeta@@@8 ; i3ClassMeta::`RTTI Base Class Descriptor at (0,-1,0,64)'
	DD	00H
	DD	00H
	DD	0ffffffffH
	DD	00H
	DD	040H
	DD	FLAT:??_R3i3ClassMeta@@8
rdata$r	ENDS
;	COMDAT ??_R2i3ClassMeta@@8
rdata$r	SEGMENT
??_R2i3ClassMeta@@8 DD FLAT:??_R1A@?0A@EA@i3ClassMeta@@8 ; i3ClassMeta::`RTTI Base Class Array'
rdata$r	ENDS
;	COMDAT ??_R3i3ClassMeta@@8
rdata$r	SEGMENT
??_R3i3ClassMeta@@8 DD 00H				; i3ClassMeta::`RTTI Class Hierarchy Descriptor'
	DD	00H
	DD	01H
	DD	FLAT:??_R2i3ClassMeta@@8
rdata$r	ENDS
;	COMDAT ??_R0?AVi3ClassMeta@@@8
data$rs	SEGMENT
??_R0?AVi3ClassMeta@@@8 DD FLAT:??_7type_info@@6B@	; i3ClassMeta `RTTI Type Descriptor'
	DD	00H
	DB	'.?AVi3ClassMeta@@', 00H
data$rs	ENDS
;	COMDAT ??_C@_05KGIGFGOC@i3Tcp@
CONST	SEGMENT
??_C@_05KGIGFGOC@i3Tcp@ DB 'i3Tcp', 00H			; `string'
CONST	ENDS
;	COMDAT ??_7?$i3MetaTemplate@Vi3Tcp@@@@6B@
CONST	SEGMENT
??_7?$i3MetaTemplate@Vi3Tcp@@@@6B@ DD FLAT:??_R4?$i3MetaTemplate@Vi3Tcp@@@@6B@ ; i3MetaTemplate<i3Tcp>::`vftable'
	DD	FLAT:??_E?$i3MetaTemplate@Vi3Tcp@@@@UAEPAXI@Z
	DD	FLAT:?CreateInstance@?$i3MetaTemplate@Vi3Tcp@@@@UAEPAVi3ElementBase@@W4I3_CLASSMETA_TYPE@@@Z
	DD	FLAT:?BindInstance@?$i3MetaTemplate@Vi3Tcp@@@@UAEPAVi3ElementBase@@PAXW4I3_CLASSMETA_TYPE@@@Z
CONST	ENDS
;	COMDAT ??_C@_05BLHFCHAC@i3Udp@
CONST	SEGMENT
??_C@_05BLHFCHAC@i3Udp@ DB 'i3Udp', 00H			; `string'
CONST	ENDS
;	COMDAT ??_C@_0O@OCDFBOHM@i3ElementBase@
CONST	SEGMENT
??_C@_0O@OCDFBOHM@i3ElementBase@ DB 'i3ElementBase', 00H ; `string'
CONST	ENDS
;	COMDAT ??_7?$i3MetaTemplate@Vi3Udp@@@@6B@
CONST	SEGMENT
??_7?$i3MetaTemplate@Vi3Udp@@@@6B@ DD FLAT:??_R4?$i3MetaTemplate@Vi3Udp@@@@6B@ ; i3MetaTemplate<i3Udp>::`vftable'
	DD	FLAT:??_E?$i3MetaTemplate@Vi3Udp@@@@UAEPAXI@Z
	DD	FLAT:?CreateInstance@?$i3MetaTemplate@Vi3Udp@@@@UAEPAVi3ElementBase@@W4I3_CLASSMETA_TYPE@@@Z
	DD	FLAT:?BindInstance@?$i3MetaTemplate@Vi3Udp@@@@UAEPAVi3ElementBase@@PAXW4I3_CLASSMETA_TYPE@@@Z
CONST	ENDS
_DATA	SEGMENT
?s_pClassMetai3Udp@i3Udp@@2PAVi3ClassMeta@@A DD FLAT:?s_ClassMetai3Udp@@3V?$i3MetaTemplate@Vi3Udp@@@@A ; i3Udp::s_pClassMetai3Udp
?s_pClassMetai3Tcp@i3Tcp@@2PAVi3ClassMeta@@A DD FLAT:?s_ClassMetai3Tcp@@3V?$i3MetaTemplate@Vi3Tcp@@@@A ; i3Tcp::s_pClassMetai3Tcp
_DATA	ENDS
PUBLIC	?__empty_global_delete@@YAXPAX@Z		; __empty_global_delete
PUBLIC	?__global_delete@@YAXPAX@Z			; __global_delete
PUBLIC	?__empty_global_delete@@YAXPAXI@Z		; __empty_global_delete
PUBLIC	?__global_delete@@YAXPAXI@Z			; __global_delete
PUBLIC	?__global_array_delete@@YAXPAX@Z		; __global_array_delete
PUBLIC	?__global_array_delete@@YAXPAXI@Z		; __global_array_delete
PUBLIC	?GetMemoryPool@i3ClassMeta@@QAEPAVi3MemoryPool@@XZ ; i3ClassMeta::GetMemoryPool
PUBLIC	?SetMemoryPool@i3ClassMeta@@QAEXPAVi3MemoryPool@@@Z ; i3ClassMeta::SetMemoryPool
PUBLIC	?GetClassSize@i3ClassMeta@@QAEIXZ		; i3ClassMeta::GetClassSize
PUBLIC	?GetClassNameA@i3ClassMeta@@QAEPADXZ		; i3ClassMeta::GetClassNameA
PUBLIC	?IsExactTypeOf@i3ClassMeta@@QAE_NPAV1@@Z	; i3ClassMeta::IsExactTypeOf
PUBLIC	?SetStyle@i3ClassMeta@@QAEXI@Z			; i3ClassMeta::SetStyle
PUBLIC	?GetStyle@i3ClassMeta@@QAEIXZ			; i3ClassMeta::GetStyle
PUBLIC	?AddStyle@i3ClassMeta@@QAEXI@Z			; i3ClassMeta::AddStyle
PUBLIC	?RemoveStyle@i3ClassMeta@@QAEXI@Z		; i3ClassMeta::RemoveStyle
PUBLIC	?IsStyle@i3ClassMeta@@QAEHI@Z			; i3ClassMeta::IsStyle
PUBLIC	?IsAbstractClass@i3ClassMeta@@QAEHXZ		; i3ClassMeta::IsAbstractClass
PUBLIC	?IsConcreteClass@i3ClassMeta@@QAEHXZ		; i3ClassMeta::IsConcreteClass
PUBLIC	?GetBaseClassMeta@i3ClassMeta@@QAEPAV1@XZ	; i3ClassMeta::GetBaseClassMeta
PUBLIC	?getHashCode@i3ClassMeta@@QAEIXZ		; i3ClassMeta::getHashCode
PUBLIC	??0i3ClassMeta@@QAE@ABV0@@Z			; i3ClassMeta::i3ClassMeta
PUBLIC	??4i3ClassMeta@@QAEAAV0@ABV0@@Z			; i3ClassMeta::operator=
PUBLIC	??_Gi3ClassMeta@@UAEPAXI@Z			; i3ClassMeta::`scalar deleting destructor'
PUBLIC	??_Ei3ClassMeta@@UAEPAXI@Z			; i3ClassMeta::`vector deleting destructor'
PUBLIC	?GetClassMeta@i3ElementBase@@SAPAVi3ClassMeta@@XZ ; i3ElementBase::GetClassMeta
PUBLIC	?GetRefCount@i3ElementBase@@QAEHXZ		; i3ElementBase::GetRefCount
PUBLIC	?__SetMemoryPool@i3ElementBase@@QAEXPAVi3MemoryPool@@@Z ; i3ElementBase::__SetMemoryPool
PUBLIC	?__GetMemoryPool@i3ElementBase@@QAEPAVi3MemoryPool@@XZ ; i3ElementBase::__GetMemoryPool
PUBLIC	?IsExactTypeOf@i3ElementBase@@QAE_NPAVi3ClassMeta@@@Z ; i3ElementBase::IsExactTypeOf
PUBLIC	?IsTypeOf@i3ElementBase@@QAE_NPAVi3ClassMeta@@@Z ; i3ElementBase::IsTypeOf
PUBLIC	?AddRef@i3ElementBase@@QAEHXZ			; i3ElementBase::AddRef
PUBLIC	?_internal_SetRefCount@i3ElementBase@@QAEXH@Z	; i3ElementBase::_internal_SetRefCount
PUBLIC	??0i3ElementBase@@QAE@ABV0@@Z			; i3ElementBase::i3ElementBase
PUBLIC	??4i3ElementBase@@QAEAAV0@ABV0@@Z		; i3ElementBase::operator=
PUBLIC	??_Gi3ElementBase@@UAEPAXI@Z			; i3ElementBase::`scalar deleting destructor'
PUBLIC	??_Ei3ElementBase@@UAEPAXI@Z			; i3ElementBase::`vector deleting destructor'
PUBLIC	??0i3MemoryPool@@QAE@ABV0@@Z			; i3MemoryPool::i3MemoryPool
PUBLIC	??4i3MemoryPool@@QAEAAV0@ABV0@@Z		; i3MemoryPool::operator=
PUBLIC	??_Gi3MemoryPool@@UAEPAXI@Z			; i3MemoryPool::`scalar deleting destructor'
PUBLIC	??_Ei3MemoryPool@@UAEPAXI@Z			; i3MemoryPool::`vector deleting destructor'
PUBLIC	?Init@i3Net@@YAHXZ				; i3Net::Init
PUBLIC	?Create@i3Net@@YAHXZ				; i3Net::Create
PUBLIC	?Destroy@i3Net@@YAXXZ				; i3Net::Destroy
PUBLIC	?GetMyAddress@i3Net@@YAHPAD@Z			; i3Net::GetMyAddress
PUBLIC	?DestroySocket@i3Net@@YAXI@Z			; i3Net::DestroySocket
PUBLIC	?GetMyAddressList@i3Net@@YAPADPAH@Z		; i3Net::GetMyAddressList
PUBLIC	?GetName@i3Net@@YAXHPAUsockaddr_in@@@Z		; i3Net::GetName
PUBLIC	?GetMACAddress@i3Net@@YAHPA_KH@Z		; i3Net::GetMACAddress
PUBLIC	?GetError@i3Net@@YAHPAD@Z			; i3Net::GetError
PUBLIC	?GetIPToLongA@i3Net@@YAPADIPAD@Z		; i3Net::GetIPToLongA
PUBLIC	?GetIPToLongW@i3Net@@YAPAGIPAG@Z		; i3Net::GetIPToLongW
PUBLIC	?GetIPToSockA@i3Net@@YAPADPAUsockaddr_in@@PAD@Z	; i3Net::GetIPToSockA
PUBLIC	?GetIPToSockW@i3Net@@YAPAGPAUsockaddr_in@@PAG@Z	; i3Net::GetIPToSockW
PUBLIC	?GetClassMeta@i3Udp@@SAPAVi3ClassMeta@@XZ	; i3Udp::GetClassMeta
PUBLIC	?GetMeta@i3Udp@@UAEPAVi3ClassMeta@@XZ		; i3Udp::GetMeta
PUBLIC	?RegisterMeta@i3Udp@@SAXXZ			; i3Udp::RegisterMeta
PUBLIC	?SetConcreteClass@i3Udp@@SAXPAVi3ClassMeta@@@Z	; i3Udp::SetConcreteClass
PUBLIC	?SetGhostClass@i3Udp@@SAXPAVi3ClassMeta@@@Z	; i3Udp::SetGhostClass
PUBLIC	?_NewObject@i3Udp@@SAPAV1@XZ			; i3Udp::_NewObject
PUBLIC	?_NewObjectRef@i3Udp@@SAPAV1@XZ			; i3Udp::_NewObjectRef
PUBLIC	?_BindObject@i3Udp@@SAPAV1@PAX@Z		; i3Udp::_BindObject
PUBLIC	?_BindObjectRef@i3Udp@@SAPAV1@PAX@Z		; i3Udp::_BindObjectRef
PUBLIC	?_NewObjectByType@i3Udp@@SAPAV1@W4I3_CLASSMETA_TYPE@@@Z ; i3Udp::_NewObjectByType
PUBLIC	?_NewObjectRefByType@i3Udp@@SAPAV1@W4I3_CLASSMETA_TYPE@@@Z ; i3Udp::_NewObjectRefByType
PUBLIC	?_BindObjectByType@i3Udp@@SAPAV1@PAXW4I3_CLASSMETA_TYPE@@@Z ; i3Udp::_BindObjectByType
PUBLIC	?_BindObjectRefByType@i3Udp@@SAPAV1@PAXW4I3_CLASSMETA_TYPE@@@Z ; i3Udp::_BindObjectRefByType
PUBLIC	??0i3Udp@@QAE@XZ				; i3Udp::i3Udp
PUBLIC	??1i3Udp@@UAE@XZ				; i3Udp::~i3Udp
PUBLIC	?CreateSocket@i3Udp@@QAEIXZ			; i3Udp::CreateSocket
PUBLIC	?DeleteSocket@i3Udp@@QAEXXZ			; i3Udp::DeleteSocket
PUBLIC	?BindAny@i3Udp@@QAEXG@Z				; i3Udp::BindAny
PUBLIC	?Bind@i3Udp@@QAEXIG@Z				; i3Udp::Bind
PUBLIC	?Send@i3Udp@@QAEXPBDHIGH@Z			; i3Udp::Send
PUBLIC	?Recv@i3Udp@@QAEHPADHHPAUsockaddr@@PAH@Z	; i3Udp::Recv
PUBLIC	?GetOption@i3Udp@@QAEHHHPADPAH@Z		; i3Udp::GetOption
PUBLIC	?SetOption@i3Udp@@QAEHHHPBDH@Z			; i3Udp::SetOption
PUBLIC	?GetName@i3Udp@@QAEXPAUsockaddr@@@Z		; i3Udp::GetName
PUBLIC	?getSocketHandle@i3Udp@@QAEIXZ			; i3Udp::getSocketHandle
PUBLIC	??0i3Udp@@QAE@ABV0@@Z				; i3Udp::i3Udp
PUBLIC	??4i3Udp@@QAEAAV0@ABV0@@Z			; i3Udp::operator=
PUBLIC	??_Gi3Udp@@UAEPAXI@Z				; i3Udp::`scalar deleting destructor'
PUBLIC	??_Ei3Udp@@UAEPAXI@Z				; i3Udp::`vector deleting destructor'
PUBLIC	?GetClassMeta@i3Tcp@@SAPAVi3ClassMeta@@XZ	; i3Tcp::GetClassMeta
PUBLIC	?GetMeta@i3Tcp@@UAEPAVi3ClassMeta@@XZ		; i3Tcp::GetMeta
PUBLIC	?RegisterMeta@i3Tcp@@SAXXZ			; i3Tcp::RegisterMeta
PUBLIC	?SetConcreteClass@i3Tcp@@SAXPAVi3ClassMeta@@@Z	; i3Tcp::SetConcreteClass
PUBLIC	?SetGhostClass@i3Tcp@@SAXPAVi3ClassMeta@@@Z	; i3Tcp::SetGhostClass
PUBLIC	?_NewObject@i3Tcp@@SAPAV1@XZ			; i3Tcp::_NewObject
PUBLIC	?_NewObjectRef@i3Tcp@@SAPAV1@XZ			; i3Tcp::_NewObjectRef
PUBLIC	?_BindObject@i3Tcp@@SAPAV1@PAX@Z		; i3Tcp::_BindObject
PUBLIC	?_BindObjectRef@i3Tcp@@SAPAV1@PAX@Z		; i3Tcp::_BindObjectRef
PUBLIC	?_NewObjectByType@i3Tcp@@SAPAV1@W4I3_CLASSMETA_TYPE@@@Z ; i3Tcp::_NewObjectByType
PUBLIC	?_NewObjectRefByType@i3Tcp@@SAPAV1@W4I3_CLASSMETA_TYPE@@@Z ; i3Tcp::_NewObjectRefByType
PUBLIC	?_BindObjectByType@i3Tcp@@SAPAV1@PAXW4I3_CLASSMETA_TYPE@@@Z ; i3Tcp::_BindObjectByType
PUBLIC	?_BindObjectRefByType@i3Tcp@@SAPAV1@PAXW4I3_CLASSMETA_TYPE@@@Z ; i3Tcp::_BindObjectRefByType
PUBLIC	?CreateSocket@i3Tcp@@IAEIXZ			; i3Tcp::CreateSocket
PUBLIC	?DeleteSocket@i3Tcp@@IAEXXZ			; i3Tcp::DeleteSocket
PUBLIC	??0i3Tcp@@QAE@XZ				; i3Tcp::i3Tcp
PUBLIC	??1i3Tcp@@UAE@XZ				; i3Tcp::~i3Tcp
PUBLIC	?Connect@i3Tcp@@QAEHPBDG@Z			; i3Tcp::Connect
PUBLIC	?Connect@i3Tcp@@QAEHIG@Z			; i3Tcp::Connect
PUBLIC	?Send@i3Tcp@@QAEHPBDHH@Z			; i3Tcp::Send
PUBLIC	?Recv@i3Tcp@@QAEHPADHH@Z			; i3Tcp::Recv
PUBLIC	?GetName@i3Tcp@@QAEXPAUsockaddr@@@Z		; i3Tcp::GetName
PUBLIC	??0i3Tcp@@QAE@ABV0@@Z				; i3Tcp::i3Tcp
PUBLIC	??4i3Tcp@@QAEAAV0@ABV0@@Z			; i3Tcp::operator=
PUBLIC	??_Gi3Tcp@@UAEPAXI@Z				; i3Tcp::`scalar deleting destructor'
PUBLIC	??_Ei3Tcp@@UAEPAXI@Z				; i3Tcp::`vector deleting destructor'
PUBLIC	??0?$i3MetaTemplate@Vi3Udp@@@@QAE@IPAD0W4I3_CLASSMETA_TYPE@@@Z ; i3MetaTemplate<i3Udp>::i3MetaTemplate<i3Udp>
PUBLIC	??0?$i3MetaTemplate@Vi3Tcp@@@@QAE@IPAD0W4I3_CLASSMETA_TYPE@@@Z ; i3MetaTemplate<i3Tcp>::i3MetaTemplate<i3Tcp>
PUBLIC	??_7i3ClassMeta@@6B@				; i3ClassMeta::`vftable'
PUBLIC	??_7i3ElementBase@@6B@				; i3ElementBase::`vftable'
PUBLIC	??_7i3MemoryPool@@6B@				; i3MemoryPool::`vftable'
PUBLIC	??_7i3Udp@@6B@					; i3Udp::`vftable'
PUBLIC	??_7i3Tcp@@6B@					; i3Tcp::`vftable'
PUBLIC	??_C@_0GB@PPDLENMJ@E?3?2Proyectos?2JuegosOnlineproyec@ ; `string'
PUBLIC	??_R4i3ElementBase@@6B@				; i3ElementBase::`RTTI Complete Object Locator'
PUBLIC	??_R0?AVi3ElementBase@@@8			; i3ElementBase `RTTI Type Descriptor'
PUBLIC	??_R3i3ElementBase@@8				; i3ElementBase::`RTTI Class Hierarchy Descriptor'
PUBLIC	??_R2i3ElementBase@@8				; i3ElementBase::`RTTI Base Class Array'
PUBLIC	??_R1A@?0A@EA@i3ElementBase@@8			; i3ElementBase::`RTTI Base Class Descriptor at (0,-1,0,64)'
PUBLIC	??_R4i3MemoryPool@@6B@				; i3MemoryPool::`RTTI Complete Object Locator'
PUBLIC	??_R0?AVi3MemoryPool@@@8			; i3MemoryPool `RTTI Type Descriptor'
PUBLIC	??_R3i3MemoryPool@@8				; i3MemoryPool::`RTTI Class Hierarchy Descriptor'
PUBLIC	??_R2i3MemoryPool@@8				; i3MemoryPool::`RTTI Base Class Array'
PUBLIC	??_R1A@?0A@EA@i3MemoryPool@@8			; i3MemoryPool::`RTTI Base Class Descriptor at (0,-1,0,64)'
PUBLIC	??_R4i3ClassMeta@@6B@				; i3ClassMeta::`RTTI Complete Object Locator'
PUBLIC	??_R4i3Udp@@6B@					; i3Udp::`RTTI Complete Object Locator'
PUBLIC	??_R0?AVi3Udp@@@8				; i3Udp `RTTI Type Descriptor'
PUBLIC	??_R3i3Udp@@8					; i3Udp::`RTTI Class Hierarchy Descriptor'
PUBLIC	??_R2i3Udp@@8					; i3Udp::`RTTI Base Class Array'
PUBLIC	??_R1A@?0A@EA@i3Udp@@8				; i3Udp::`RTTI Base Class Descriptor at (0,-1,0,64)'
PUBLIC	??_R4i3Tcp@@6B@					; i3Tcp::`RTTI Complete Object Locator'
PUBLIC	??_R0?AVi3Tcp@@@8				; i3Tcp `RTTI Type Descriptor'
PUBLIC	??_R3i3Tcp@@8					; i3Tcp::`RTTI Class Hierarchy Descriptor'
PUBLIC	??_R2i3Tcp@@8					; i3Tcp::`RTTI Base Class Array'
PUBLIC	??_R1A@?0A@EA@i3Tcp@@8				; i3Tcp::`RTTI Base Class Descriptor at (0,-1,0,64)'
EXTRN	??_M@YGXPAXIIP6EX0@Z@Z:PROC			; `eh vector destructor iterator'
EXTRN	__purecall:PROC
EXTRN	??3@YAXPAX@Z:PROC				; operator delete
EXTRN	??3@YAXPAXI@Z:PROC				; operator delete
EXTRN	??_V@YAXPAX@Z:PROC				; operator delete[]
EXTRN	??_V@YAXPAXI@Z:PROC				; operator delete[]
EXTRN	_atexit:PROC
EXTRN	__imp__bind@12:PROC
EXTRN	__imp__closesocket@4:PROC
EXTRN	__imp__connect@12:PROC
EXTRN	__imp__getsockname@12:PROC
EXTRN	__imp__getsockopt@20:PROC
EXTRN	__imp__htonl@4:PROC
EXTRN	__imp__htons@4:PROC
EXTRN	__imp__inet_addr@4:PROC
EXTRN	__imp__recv@16:PROC
EXTRN	__imp__recvfrom@24:PROC
EXTRN	__imp__send@16:PROC
EXTRN	__imp__sendto@24:PROC
EXTRN	__imp__setsockopt@20:PROC
EXTRN	__imp__shutdown@8:PROC
EXTRN	__imp__socket@12:PROC
EXTRN	__imp__gethostbyname@4:PROC
EXTRN	__imp__gethostname@8:PROC
EXTRN	__imp__WSAStartup@8:PROC
EXTRN	__imp__WSACleanup@0:PROC
EXTRN	__imp__WSAGetLastError@0:PROC
EXTRN	?AllocTool@i3mem@@YAPAXHHHPBDH@Z:PROC		; i3mem::AllocTool
EXTRN	??0i3ClassMeta@@QAE@IPAD0W4I3_CLASSMETA_TYPE@@@Z:PROC ; i3ClassMeta::i3ClassMeta
EXTRN	??1i3ClassMeta@@UAE@XZ:PROC			; i3ClassMeta::~i3ClassMeta
EXTRN	?CreateInstance@i3ClassMeta@@UAEPAVi3ElementBase@@W4I3_CLASSMETA_TYPE@@@Z:PROC ; i3ClassMeta::CreateInstance
EXTRN	?BindInstance@i3ClassMeta@@UAEPAVi3ElementBase@@PAXW4I3_CLASSMETA_TYPE@@@Z:PROC ; i3ClassMeta::BindInstance
EXTRN	?IsTypeOf@i3ClassMeta@@QAE_NPAV1@@Z:PROC	; i3ClassMeta::IsTypeOf
EXTRN	?Register@i3ClassMeta@@QAEXXZ:PROC		; i3ClassMeta::Register
EXTRN	?GetConcreteClass@i3ClassMeta@@QAEPAV1@W4I3_CLASSMETA_TYPE@@@Z:PROC ; i3ClassMeta::GetConcreteClass
EXTRN	?SetConcreteClass@i3ClassMeta@@QAEXPAV1@@Z:PROC	; i3ClassMeta::SetConcreteClass
EXTRN	?SetGhostClass@i3ClassMeta@@QAEXPAV1@@Z:PROC	; i3ClassMeta::SetGhostClass
EXTRN	?GetMeta@i3ElementBase@@UAEPAVi3ClassMeta@@XZ:PROC ; i3ElementBase::GetMeta
EXTRN	??0i3ElementBase@@QAE@XZ:PROC			; i3ElementBase::i3ElementBase
EXTRN	??1i3ElementBase@@UAE@XZ:PROC			; i3ElementBase::~i3ElementBase
EXTRN	??2i3ElementBase@@SAPAXI@Z:PROC			; i3ElementBase::operator new
EXTRN	??2i3ElementBase@@SAPAXIPAX@Z:PROC		; i3ElementBase::operator new
EXTRN	??3i3ElementBase@@SAXPAX@Z:PROC			; i3ElementBase::operator delete
EXTRN	??3i3ElementBase@@SAXPAX0@Z:PROC		; i3ElementBase::operator delete
EXTRN	?CopyTo@i3ElementBase@@UAEXPAV1@W4I3_COPY_METHOD@@@Z:PROC ; i3ElementBase::CopyTo
EXTRN	??1i3MemoryPool@@UAE@XZ:PROC			; i3MemoryPool::~i3MemoryPool
EXTRN	__imp__GetAdaptersInfo@8:PROC
EXTRN	@__security_check_cookie@4:PROC
EXTRN	___CxxFrameHandler3:PROC
EXTRN	__chkstk:PROC
EXTRN	_memcpy:PROC
EXTRN	?s_pClassMetai3ElementBase@i3ElementBase@@2PAVi3ClassMeta@@A:DWORD ; i3ElementBase::s_pClassMetai3ElementBase
EXTRN	___security_cookie:DWORD
_BSS	SEGMENT
?s_ClassMetai3Udp@@3V?$i3MetaTemplate@Vi3Udp@@@@A DB 038H DUP (?) ; s_ClassMetai3Udp
?s_ClassMetai3Tcp@@3V?$i3MetaTemplate@Vi3Tcp@@@@A DB 038H DUP (?) ; s_ClassMetai3Tcp
?s_bInetInited@@3_NA DB 01H DUP (?)			; s_bInetInited
_BSS	ENDS
CRT$XCU	SEGMENT
?s_ClassMetai3Udp$initializer$@@3P6AXXZA DD FLAT:??__Es_ClassMetai3Udp@@YAXXZ ; s_ClassMetai3Udp$initializer$
CRT$XCU	ENDS
;	COMDAT ??_R1A@?0A@EA@i3Tcp@@8
rdata$r	SEGMENT
??_R1A@?0A@EA@i3Tcp@@8 DD FLAT:??_R0?AVi3Tcp@@@8	; i3Tcp::`RTTI Base Class Descriptor at (0,-1,0,64)'
	DD	01H
	DD	00H
	DD	0ffffffffH
	DD	00H
	DD	040H
	DD	FLAT:??_R3i3Tcp@@8
rdata$r	ENDS
;	COMDAT ??_R2i3Tcp@@8
rdata$r	SEGMENT
??_R2i3Tcp@@8 DD FLAT:??_R1A@?0A@EA@i3Tcp@@8		; i3Tcp::`RTTI Base Class Array'
	DD	FLAT:??_R1A@?0A@EA@i3ElementBase@@8
rdata$r	ENDS
;	COMDAT ??_R3i3Tcp@@8
rdata$r	SEGMENT
??_R3i3Tcp@@8 DD 00H					; i3Tcp::`RTTI Class Hierarchy Descriptor'
	DD	00H
	DD	02H
	DD	FLAT:??_R2i3Tcp@@8
rdata$r	ENDS
;	COMDAT ??_R0?AVi3Tcp@@@8
data$rs	SEGMENT
??_R0?AVi3Tcp@@@8 DD FLAT:??_7type_info@@6B@		; i3Tcp `RTTI Type Descriptor'
	DD	00H
	DB	'.?AVi3Tcp@@', 00H
data$rs	ENDS
;	COMDAT ??_R4i3Tcp@@6B@
rdata$r	SEGMENT
??_R4i3Tcp@@6B@ DD 00H					; i3Tcp::`RTTI Complete Object Locator'
	DD	00H
	DD	00H
	DD	FLAT:??_R0?AVi3Tcp@@@8
	DD	FLAT:??_R3i3Tcp@@8
rdata$r	ENDS
;	COMDAT ??_R1A@?0A@EA@i3Udp@@8
rdata$r	SEGMENT
??_R1A@?0A@EA@i3Udp@@8 DD FLAT:??_R0?AVi3Udp@@@8	; i3Udp::`RTTI Base Class Descriptor at (0,-1,0,64)'
	DD	01H
	DD	00H
	DD	0ffffffffH
	DD	00H
	DD	040H
	DD	FLAT:??_R3i3Udp@@8
rdata$r	ENDS
;	COMDAT ??_R2i3Udp@@8
rdata$r	SEGMENT
??_R2i3Udp@@8 DD FLAT:??_R1A@?0A@EA@i3Udp@@8		; i3Udp::`RTTI Base Class Array'
	DD	FLAT:??_R1A@?0A@EA@i3ElementBase@@8
rdata$r	ENDS
;	COMDAT ??_R3i3Udp@@8
rdata$r	SEGMENT
??_R3i3Udp@@8 DD 00H					; i3Udp::`RTTI Class Hierarchy Descriptor'
	DD	00H
	DD	02H
	DD	FLAT:??_R2i3Udp@@8
rdata$r	ENDS
;	COMDAT ??_R0?AVi3Udp@@@8
data$rs	SEGMENT
??_R0?AVi3Udp@@@8 DD FLAT:??_7type_info@@6B@		; i3Udp `RTTI Type Descriptor'
	DD	00H
	DB	'.?AVi3Udp@@', 00H
data$rs	ENDS
;	COMDAT ??_R4i3Udp@@6B@
rdata$r	SEGMENT
??_R4i3Udp@@6B@ DD 00H					; i3Udp::`RTTI Complete Object Locator'
	DD	00H
	DD	00H
	DD	FLAT:??_R0?AVi3Udp@@@8
	DD	FLAT:??_R3i3Udp@@8
rdata$r	ENDS
;	COMDAT ??_R4i3ClassMeta@@6B@
rdata$r	SEGMENT
??_R4i3ClassMeta@@6B@ DD 00H				; i3ClassMeta::`RTTI Complete Object Locator'
	DD	00H
	DD	00H
	DD	FLAT:??_R0?AVi3ClassMeta@@@8
	DD	FLAT:??_R3i3ClassMeta@@8
rdata$r	ENDS
;	COMDAT ??_R1A@?0A@EA@i3MemoryPool@@8
rdata$r	SEGMENT
??_R1A@?0A@EA@i3MemoryPool@@8 DD FLAT:??_R0?AVi3MemoryPool@@@8 ; i3MemoryPool::`RTTI Base Class Descriptor at (0,-1,0,64)'
	DD	00H
	DD	00H
	DD	0ffffffffH
	DD	00H
	DD	040H
	DD	FLAT:??_R3i3MemoryPool@@8
rdata$r	ENDS
;	COMDAT ??_R2i3MemoryPool@@8
rdata$r	SEGMENT
??_R2i3MemoryPool@@8 DD FLAT:??_R1A@?0A@EA@i3MemoryPool@@8 ; i3MemoryPool::`RTTI Base Class Array'
rdata$r	ENDS
;	COMDAT ??_R3i3MemoryPool@@8
rdata$r	SEGMENT
??_R3i3MemoryPool@@8 DD 00H				; i3MemoryPool::`RTTI Class Hierarchy Descriptor'
	DD	00H
	DD	01H
	DD	FLAT:??_R2i3MemoryPool@@8
rdata$r	ENDS
;	COMDAT ??_R0?AVi3MemoryPool@@@8
data$rs	SEGMENT
??_R0?AVi3MemoryPool@@@8 DD FLAT:??_7type_info@@6B@	; i3MemoryPool `RTTI Type Descriptor'
	DD	00H
	DB	'.?AVi3MemoryPool@@', 00H
data$rs	ENDS
;	COMDAT ??_R4i3MemoryPool@@6B@
rdata$r	SEGMENT
??_R4i3MemoryPool@@6B@ DD 00H				; i3MemoryPool::`RTTI Complete Object Locator'
	DD	00H
	DD	00H
	DD	FLAT:??_R0?AVi3MemoryPool@@@8
	DD	FLAT:??_R3i3MemoryPool@@8
rdata$r	ENDS
;	COMDAT ??_R1A@?0A@EA@i3ElementBase@@8
rdata$r	SEGMENT
??_R1A@?0A@EA@i3ElementBase@@8 DD FLAT:??_R0?AVi3ElementBase@@@8 ; i3ElementBase::`RTTI Base Class Descriptor at (0,-1,0,64)'
	DD	00H
	DD	00H
	DD	0ffffffffH
	DD	00H
	DD	040H
	DD	FLAT:??_R3i3ElementBase@@8
rdata$r	ENDS
;	COMDAT ??_R2i3ElementBase@@8
rdata$r	SEGMENT
??_R2i3ElementBase@@8 DD FLAT:??_R1A@?0A@EA@i3ElementBase@@8 ; i3ElementBase::`RTTI Base Class Array'
rdata$r	ENDS
;	COMDAT ??_R3i3ElementBase@@8
rdata$r	SEGMENT
??_R3i3ElementBase@@8 DD 00H				; i3ElementBase::`RTTI Class Hierarchy Descriptor'
	DD	00H
	DD	01H
	DD	FLAT:??_R2i3ElementBase@@8
rdata$r	ENDS
;	COMDAT ??_R0?AVi3ElementBase@@@8
data$rs	SEGMENT
??_R0?AVi3ElementBase@@@8 DD FLAT:??_7type_info@@6B@	; i3ElementBase `RTTI Type Descriptor'
	DD	00H
	DB	'.?AVi3ElementBase@@', 00H
data$rs	ENDS
;	COMDAT ??_R4i3ElementBase@@6B@
rdata$r	SEGMENT
??_R4i3ElementBase@@6B@ DD 00H				; i3ElementBase::`RTTI Complete Object Locator'
	DD	00H
	DD	00H
	DD	FLAT:??_R0?AVi3ElementBase@@@8
	DD	FLAT:??_R3i3ElementBase@@8
rdata$r	ENDS
;	COMDAT ??_C@_0GB@PPDLENMJ@E?3?2Proyectos?2JuegosOnlineproyec@
CONST	SEGMENT
??_C@_0GB@PPDLENMJ@E?3?2Proyectos?2JuegosOnlineproyec@ DB 'E:\Proyectos\J'
	DB	'uegosOnlineproyectos\PB\pbblow\Piercing Blow Remake\i3Server\'
	DB	'src\i3Base\i3Inet.cpp', 00H			; `string'
CONST	ENDS
;	COMDAT ??_7i3Tcp@@6B@
CONST	SEGMENT
??_7i3Tcp@@6B@ DD FLAT:??_R4i3Tcp@@6B@			; i3Tcp::`vftable'
	DD	FLAT:?GetMeta@i3Tcp@@UAEPAVi3ClassMeta@@XZ
	DD	FLAT:??_Ei3Tcp@@UAEPAXI@Z
	DD	FLAT:?CopyTo@i3ElementBase@@UAEXPAV1@W4I3_COPY_METHOD@@@Z
CONST	ENDS
;	COMDAT ??_7i3Udp@@6B@
CONST	SEGMENT
??_7i3Udp@@6B@ DD FLAT:??_R4i3Udp@@6B@			; i3Udp::`vftable'
	DD	FLAT:?GetMeta@i3Udp@@UAEPAVi3ClassMeta@@XZ
	DD	FLAT:??_Ei3Udp@@UAEPAXI@Z
	DD	FLAT:?CopyTo@i3ElementBase@@UAEXPAV1@W4I3_COPY_METHOD@@@Z
CONST	ENDS
;	COMDAT ??_7i3MemoryPool@@6B@
CONST	SEGMENT
??_7i3MemoryPool@@6B@ DD FLAT:??_R4i3MemoryPool@@6B@	; i3MemoryPool::`vftable'
	DD	FLAT:??_Ei3MemoryPool@@UAEPAXI@Z
	DD	FLAT:__purecall
	DD	FLAT:__purecall
CONST	ENDS
;	COMDAT ??_7i3ElementBase@@6B@
CONST	SEGMENT
??_7i3ElementBase@@6B@ DD FLAT:??_R4i3ElementBase@@6B@	; i3ElementBase::`vftable'
	DD	FLAT:?GetMeta@i3ElementBase@@UAEPAVi3ClassMeta@@XZ
	DD	FLAT:??_Ei3ElementBase@@UAEPAXI@Z
	DD	FLAT:?CopyTo@i3ElementBase@@UAEXPAV1@W4I3_COPY_METHOD@@@Z
CONST	ENDS
;	COMDAT ??_7i3ClassMeta@@6B@
CONST	SEGMENT
??_7i3ClassMeta@@6B@ DD FLAT:??_R4i3ClassMeta@@6B@	; i3ClassMeta::`vftable'
	DD	FLAT:??_Ei3ClassMeta@@UAEPAXI@Z
	DD	FLAT:?CreateInstance@i3ClassMeta@@UAEPAVi3ElementBase@@W4I3_CLASSMETA_TYPE@@@Z
	DD	FLAT:?BindInstance@i3ClassMeta@@UAEPAVi3ElementBase@@PAXW4I3_CLASSMETA_TYPE@@@Z
CONST	ENDS
;	COMDAT xdata$x
xdata$x	SEGMENT
__unwindtable$?BindInstance@?$i3MetaTemplate@Vi3Tcp@@@@UAEPAVi3ElementBase@@PAXW4I3_CLASSMETA_TYPE@@@Z DD 0ffffffffH
	DD	FLAT:__unwindfunclet$?BindInstance@?$i3MetaTemplate@Vi3Tcp@@@@UAEPAVi3ElementBase@@PAXW4I3_CLASSMETA_TYPE@@@Z$0
__ehfuncinfo$?BindInstance@?$i3MetaTemplate@Vi3Tcp@@@@UAEPAVi3ElementBase@@PAXW4I3_CLASSMETA_TYPE@@@Z DD 019930522H
	DD	01H
	DD	FLAT:__unwindtable$?BindInstance@?$i3MetaTemplate@Vi3Tcp@@@@UAEPAVi3ElementBase@@PAXW4I3_CLASSMETA_TYPE@@@Z
	DD	2 DUP(00H)
	DD	2 DUP(00H)
	DD	00H
	DD	01H
xdata$x	ENDS
;	COMDAT xdata$x
xdata$x	SEGMENT
__unwindtable$?CreateInstance@?$i3MetaTemplate@Vi3Tcp@@@@UAEPAVi3ElementBase@@W4I3_CLASSMETA_TYPE@@@Z DD 0ffffffffH
	DD	FLAT:__unwindfunclet$?CreateInstance@?$i3MetaTemplate@Vi3Tcp@@@@UAEPAVi3ElementBase@@W4I3_CLASSMETA_TYPE@@@Z$0
__ehfuncinfo$?CreateInstance@?$i3MetaTemplate@Vi3Tcp@@@@UAEPAVi3ElementBase@@W4I3_CLASSMETA_TYPE@@@Z DD 019930522H
	DD	01H
	DD	FLAT:__unwindtable$?CreateInstance@?$i3MetaTemplate@Vi3Tcp@@@@UAEPAVi3ElementBase@@W4I3_CLASSMETA_TYPE@@@Z
	DD	2 DUP(00H)
	DD	2 DUP(00H)
	DD	00H
	DD	01H
xdata$x	ENDS
;	COMDAT xdata$x
xdata$x	SEGMENT
__unwindtable$?BindInstance@?$i3MetaTemplate@Vi3Udp@@@@UAEPAVi3ElementBase@@PAXW4I3_CLASSMETA_TYPE@@@Z DD 0ffffffffH
	DD	FLAT:__unwindfunclet$?BindInstance@?$i3MetaTemplate@Vi3Udp@@@@UAEPAVi3ElementBase@@PAXW4I3_CLASSMETA_TYPE@@@Z$0
__ehfuncinfo$?BindInstance@?$i3MetaTemplate@Vi3Udp@@@@UAEPAVi3ElementBase@@PAXW4I3_CLASSMETA_TYPE@@@Z DD 019930522H
	DD	01H
	DD	FLAT:__unwindtable$?BindInstance@?$i3MetaTemplate@Vi3Udp@@@@UAEPAVi3ElementBase@@PAXW4I3_CLASSMETA_TYPE@@@Z
	DD	2 DUP(00H)
	DD	2 DUP(00H)
	DD	00H
	DD	01H
xdata$x	ENDS
;	COMDAT xdata$x
xdata$x	SEGMENT
__unwindtable$?CreateInstance@?$i3MetaTemplate@Vi3Udp@@@@UAEPAVi3ElementBase@@W4I3_CLASSMETA_TYPE@@@Z DD 0ffffffffH
	DD	FLAT:__unwindfunclet$?CreateInstance@?$i3MetaTemplate@Vi3Udp@@@@UAEPAVi3ElementBase@@W4I3_CLASSMETA_TYPE@@@Z$0
__ehfuncinfo$?CreateInstance@?$i3MetaTemplate@Vi3Udp@@@@UAEPAVi3ElementBase@@W4I3_CLASSMETA_TYPE@@@Z DD 019930522H
	DD	01H
	DD	FLAT:__unwindtable$?CreateInstance@?$i3MetaTemplate@Vi3Udp@@@@UAEPAVi3ElementBase@@W4I3_CLASSMETA_TYPE@@@Z
	DD	2 DUP(00H)
	DD	2 DUP(00H)
	DD	00H
	DD	01H
xdata$x	ENDS
;	COMDAT xdata$x
xdata$x	SEGMENT
__ehfuncinfo$??_Ei3Tcp@@UAEPAXI@Z DD 019930522H
	DD	00H
	DD	00H
	DD	2 DUP(00H)
	DD	2 DUP(00H)
	DD	00H
	DD	05H
xdata$x	ENDS
;	COMDAT voltbl
voltbl	SEGMENT
_volmd	DB	020H
voltbl	ENDS
;	COMDAT voltbl
voltbl	SEGMENT
_volmd	DB	020H
voltbl	ENDS
;	COMDAT xdata$x
xdata$x	SEGMENT
__ehfuncinfo$??_Ei3Udp@@UAEPAXI@Z DD 019930522H
	DD	00H
	DD	00H
	DD	2 DUP(00H)
	DD	2 DUP(00H)
	DD	00H
	DD	05H
xdata$x	ENDS
;	COMDAT xdata$x
xdata$x	SEGMENT
__ehfuncinfo$??_Ei3MemoryPool@@UAEPAXI@Z DD 019930522H
	DD	00H
	DD	00H
	DD	2 DUP(00H)
	DD	2 DUP(00H)
	DD	00H
	DD	05H
xdata$x	ENDS
;	COMDAT xdata$x
xdata$x	SEGMENT
__ehfuncinfo$??_Ei3ElementBase@@UAEPAXI@Z DD 019930522H
	DD	00H
	DD	00H
	DD	2 DUP(00H)
	DD	2 DUP(00H)
	DD	00H
	DD	05H
xdata$x	ENDS
;	COMDAT xdata$x
xdata$x	SEGMENT
__ehfuncinfo$??_Ei3ClassMeta@@UAEPAXI@Z DD 019930522H
	DD	00H
	DD	00H
	DD	2 DUP(00H)
	DD	2 DUP(00H)
	DD	00H
	DD	05H
xdata$x	ENDS
;	COMDAT voltbl
voltbl	SEGMENT
_volmd	DB	010H
voltbl	ENDS
;	COMDAT voltbl
voltbl	SEGMENT
_volmd	DB	010H
voltbl	ENDS
CRT$XCU	SEGMENT
?s_ClassMetai3Tcp$initializer$@@3P6AXXZA DD FLAT:??__Es_ClassMetai3Tcp@@YAXXZ ; s_ClassMetai3Tcp$initializer$
CRT$XCU	ENDS
; Function compile flags: /Ogtp
;	COMDAT ??__Fs_ClassMetai3Tcp@@YAXXZ
text$yd	SEGMENT
??__Fs_ClassMetai3Tcp@@YAXXZ PROC			; `dynamic atexit destructor for 's_ClassMetai3Tcp'', COMDAT
  00000	b9 00 00 00 00	 mov	 ecx, OFFSET ?s_ClassMetai3Tcp@@3V?$i3MetaTemplate@Vi3Tcp@@@@A
  00005	e9 00 00 00 00	 jmp	 ??1i3ClassMeta@@UAE@XZ	; i3ClassMeta::~i3ClassMeta
??__Fs_ClassMetai3Tcp@@YAXXZ ENDP			; `dynamic atexit destructor for 's_ClassMetai3Tcp''
text$yd	ENDS
; Function compile flags: /Ogtp
; File E:\Proyectos\JuegosOnlineproyectos\PB\pbblow\Piercing Blow Remake\i3Server\src\i3Base\i3Inet.cpp
; File E:\Proyectos\JuegosOnlineproyectos\PB\pbblow\Piercing Blow Remake\i3Server\include\i3Base\i3MetaTemplate.h
; File E:\Proyectos\JuegosOnlineproyectos\PB\pbblow\Piercing Blow Remake\i3Server\src\i3Base\i3Inet.cpp
; File E:\Proyectos\JuegosOnlineproyectos\PB\pbblow\Piercing Blow Remake\i3Server\include\i3Base\i3MetaTemplate.h
; File E:\Proyectos\JuegosOnlineproyectos\PB\pbblow\Piercing Blow Remake\i3Server\src\i3Base\i3Inet.cpp
;	COMDAT ??__Es_ClassMetai3Tcp@@YAXXZ
text$di	SEGMENT
??__Es_ClassMetai3Tcp@@YAXXZ PROC			; `dynamic initializer for 's_ClassMetai3Tcp'', COMDAT
; File E:\Proyectos\JuegosOnlineproyectos\PB\pbblow\Piercing Blow Remake\i3Server\include\i3Base\i3MetaTemplate.h

; 28   : : i3ClassMeta( classSz, pszClassName, pszBaseClassName, type)

  00000	6a 00		 push	 0
  00002	68 00 00 00 00	 push	 OFFSET ??_C@_0O@OCDFBOHM@i3ElementBase@
  00007	68 00 00 00 00	 push	 OFFSET ??_C@_05KGIGFGOC@i3Tcp@
  0000c	6a 14		 push	 20			; 00000014H
  0000e	b9 00 00 00 00	 mov	 ecx, OFFSET ?s_ClassMetai3Tcp@@3V?$i3MetaTemplate@Vi3Tcp@@@@A
  00013	e8 00 00 00 00	 call	 ??0i3ClassMeta@@QAE@IPAD0W4I3_CLASSMETA_TYPE@@@Z ; i3ClassMeta::i3ClassMeta
; File E:\Proyectos\JuegosOnlineproyectos\PB\pbblow\Piercing Blow Remake\i3Server\src\i3Base\i3Inet.cpp

; 5    : I3_CLASS_INSTANCE( i3Tcp, i3ElementBase);

  00018	68 00 00 00 00	 push	 OFFSET ??__Fs_ClassMetai3Tcp@@YAXXZ ; `dynamic atexit destructor for 's_ClassMetai3Tcp''
; File E:\Proyectos\JuegosOnlineproyectos\PB\pbblow\Piercing Blow Remake\i3Server\include\i3Base\i3MetaTemplate.h

; 29   : {

  0001d	c7 05 00 00 00
	00 00 00 00 00	 mov	 DWORD PTR ?s_ClassMetai3Tcp@@3V?$i3MetaTemplate@Vi3Tcp@@@@A, OFFSET ??_7?$i3MetaTemplate@Vi3Tcp@@@@6B@
; File E:\Proyectos\JuegosOnlineproyectos\PB\pbblow\Piercing Blow Remake\i3Server\src\i3Base\i3Inet.cpp

; 5    : I3_CLASS_INSTANCE( i3Tcp, i3ElementBase);

  00027	e8 00 00 00 00	 call	 _atexit
  0002c	59		 pop	 ecx
  0002d	c3		 ret	 0
??__Es_ClassMetai3Tcp@@YAXXZ ENDP			; `dynamic initializer for 's_ClassMetai3Tcp''
text$di	ENDS
; Function compile flags: /Ogtp
;	COMDAT ??_G?$i3MetaTemplate@Vi3Tcp@@@@UAEPAXI@Z
_TEXT	SEGMENT
___flags$ = 8						; size = 4
??_G?$i3MetaTemplate@Vi3Tcp@@@@UAEPAXI@Z PROC		; i3MetaTemplate<i3Tcp>::`scalar deleting destructor', COMDAT
; _this$ = ecx
  00000	55		 push	 ebp
  00001	8b ec		 mov	 ebp, esp
  00003	56		 push	 esi
  00004	8b f1		 mov	 esi, ecx
  00006	e8 00 00 00 00	 call	 ??1i3ClassMeta@@UAE@XZ	; i3ClassMeta::~i3ClassMeta
  0000b	f6 45 08 01	 test	 BYTE PTR ___flags$[ebp], 1
  0000f	74 0b		 je	 SHORT $LN10@scalar
  00011	6a 38		 push	 56			; 00000038H
  00013	56		 push	 esi
  00014	e8 00 00 00 00	 call	 ??3@YAXPAXI@Z		; operator delete
  00019	83 c4 08	 add	 esp, 8
$LN10@scalar:
  0001c	8b c6		 mov	 eax, esi
  0001e	5e		 pop	 esi
  0001f	5d		 pop	 ebp
  00020	c2 04 00	 ret	 4
??_G?$i3MetaTemplate@Vi3Tcp@@@@UAEPAXI@Z ENDP		; i3MetaTemplate<i3Tcp>::`scalar deleting destructor'
_TEXT	ENDS
; Function compile flags: /Ogtp
; File E:\Proyectos\JuegosOnlineproyectos\PB\pbblow\Piercing Blow Remake\i3Server\include\i3Base\i3MetaTemplate.h
; File E:\Proyectos\JuegosOnlineproyectos\PB\pbblow\Piercing Blow Remake\i3Server\src\i3Base\i3Inet.cpp
; File E:\Proyectos\JuegosOnlineproyectos\PB\pbblow\Piercing Blow Remake\i3Server\include\i3Base\i3MetaTemplate.h
;	COMDAT ?BindInstance@?$i3MetaTemplate@Vi3Tcp@@@@UAEPAVi3ElementBase@@PAXW4I3_CLASSMETA_TYPE@@@Z
_TEXT	SEGMENT
__$EHRec$ = -12						; size = 12
_pBuf$ = 8						; size = 4
_type$ = 12						; size = 4
$T2 = 12						; size = 4
?BindInstance@?$i3MetaTemplate@Vi3Tcp@@@@UAEPAVi3ElementBase@@PAXW4I3_CLASSMETA_TYPE@@@Z PROC ; i3MetaTemplate<i3Tcp>::BindInstance, COMDAT
; _this$ = ecx

; 129  : 	{

  00000	55		 push	 ebp
  00001	8b ec		 mov	 ebp, esp
  00003	6a ff		 push	 -1
  00005	68 00 00 00 00	 push	 __ehhandler$?BindInstance@?$i3MetaTemplate@Vi3Tcp@@@@UAEPAVi3ElementBase@@PAXW4I3_CLASSMETA_TYPE@@@Z
  0000a	64 a1 00 00 00
	00		 mov	 eax, DWORD PTR fs:0
  00010	50		 push	 eax
  00011	56		 push	 esi
  00012	a1 00 00 00 00	 mov	 eax, DWORD PTR ___security_cookie
  00017	33 c5		 xor	 eax, ebp
  00019	50		 push	 eax
  0001a	8d 45 f4	 lea	 eax, DWORD PTR __$EHRec$[ebp]
  0001d	64 a3 00 00 00
	00		 mov	 DWORD PTR fs:0, eax

; 130  : 		if( m_ProxyCount > 0)

  00023	83 79 30 00	 cmp	 DWORD PTR [ecx+48], 0
  00027	7e 26		 jle	 SHORT $LN2@BindInstan

; 131  : 		{
; 132  : 			i3ClassMeta * pMeta = GetConcreteClass( type);

  00029	ff 75 0c	 push	 DWORD PTR _type$[ebp]
  0002c	e8 00 00 00 00	 call	 ?GetConcreteClass@i3ClassMeta@@QAEPAV1@W4I3_CLASSMETA_TYPE@@@Z ; i3ClassMeta::GetConcreteClass

; 133  : 
; 134  : 			return pMeta->BindInstance( pBuf, I3_CLASSMETA_TYPE_GENERAL);

  00031	6a 00		 push	 0
  00033	ff 75 08	 push	 DWORD PTR _pBuf$[ebp]
  00036	8b c8		 mov	 ecx, eax
  00038	8b 10		 mov	 edx, DWORD PTR [eax]
  0003a	ff 52 08	 call	 DWORD PTR [edx+8]

; 142  : 			#endif
; 143  : 		}
; 144  : 	}

  0003d	8b 4d f4	 mov	 ecx, DWORD PTR __$EHRec$[ebp]
  00040	64 89 0d 00 00
	00 00		 mov	 DWORD PTR fs:0, ecx
  00047	59		 pop	 ecx
  00048	5e		 pop	 esi
  00049	8b e5		 mov	 esp, ebp
  0004b	5d		 pop	 ebp
  0004c	c2 08 00	 ret	 8
$LN2@BindInstan:

; 141  : 				return (i3ElementBase *) new( pBuf ) T;

  0004f	ff 75 08	 push	 DWORD PTR _pBuf$[ebp]
  00052	6a 14		 push	 20			; 00000014H
  00054	e8 00 00 00 00	 call	 ??2i3ElementBase@@SAPAXIPAX@Z ; i3ElementBase::operator new
  00059	8b f0		 mov	 esi, eax
  0005b	83 c4 08	 add	 esp, 8
  0005e	89 75 0c	 mov	 DWORD PTR $T2[ebp], esi
  00061	c7 45 fc 00 00
	00 00		 mov	 DWORD PTR __$EHRec$[ebp+8], 0
  00068	85 f6		 test	 esi, esi
  0006a	74 37		 je	 SHORT $LN5@BindInstan
; File E:\Proyectos\JuegosOnlineproyectos\PB\pbblow\Piercing Blow Remake\i3Server\src\i3Base\i3Inet.cpp

; 490  : {

  0006c	8b ce		 mov	 ecx, esi
  0006e	e8 00 00 00 00	 call	 ??0i3ElementBase@@QAE@XZ ; i3ElementBase::i3ElementBase

; 510  : 	m_Socket = ::socket(AF_INET, SOCK_STREAM, 0); 

  00073	6a 00		 push	 0
  00075	6a 01		 push	 1
  00077	6a 02		 push	 2

; 490  : {

  00079	c7 06 00 00 00
	00		 mov	 DWORD PTR [esi], OFFSET ??_7i3Tcp@@6B@

; 491  : 	m_Socket = INVALID_SOCKET; 

  0007f	c7 46 10 ff ff
	ff ff		 mov	 DWORD PTR [esi+16], -1

; 510  : 	m_Socket = ::socket(AF_INET, SOCK_STREAM, 0); 

  00086	ff 15 00 00 00
	00		 call	 DWORD PTR __imp__socket@12
  0008c	89 46 10	 mov	 DWORD PTR [esi+16], eax
; File E:\Proyectos\JuegosOnlineproyectos\PB\pbblow\Piercing Blow Remake\i3Server\include\i3Base\i3MetaTemplate.h

; 141  : 				return (i3ElementBase *) new( pBuf ) T;

  0008f	8b c6		 mov	 eax, esi

; 142  : 			#endif
; 143  : 		}
; 144  : 	}

  00091	8b 4d f4	 mov	 ecx, DWORD PTR __$EHRec$[ebp]
  00094	64 89 0d 00 00
	00 00		 mov	 DWORD PTR fs:0, ecx
  0009b	59		 pop	 ecx
  0009c	5e		 pop	 esi
  0009d	8b e5		 mov	 esp, ebp
  0009f	5d		 pop	 ebp
  000a0	c2 08 00	 ret	 8
$LN5@BindInstan:

; 141  : 				return (i3ElementBase *) new( pBuf ) T;

  000a3	33 f6		 xor	 esi, esi
  000a5	8b c6		 mov	 eax, esi

; 142  : 			#endif
; 143  : 		}
; 144  : 	}

  000a7	8b 4d f4	 mov	 ecx, DWORD PTR __$EHRec$[ebp]
  000aa	64 89 0d 00 00
	00 00		 mov	 DWORD PTR fs:0, ecx
  000b1	59		 pop	 ecx
  000b2	5e		 pop	 esi
  000b3	8b e5		 mov	 esp, ebp
  000b5	5d		 pop	 ebp
  000b6	c2 08 00	 ret	 8
_TEXT	ENDS
;	COMDAT text$x
text$x	SEGMENT
__unwindfunclet$?BindInstance@?$i3MetaTemplate@Vi3Tcp@@@@UAEPAVi3ElementBase@@PAXW4I3_CLASSMETA_TYPE@@@Z$0:
  00000	8b 45 08	 mov	 eax, DWORD PTR _pBuf$[ebp]
  00003	50		 push	 eax
  00004	8b 45 0c	 mov	 eax, DWORD PTR $T2[ebp]
  00007	50		 push	 eax
  00008	e8 00 00 00 00	 call	 ??3i3ElementBase@@SAXPAX0@Z ; i3ElementBase::operator delete
  0000d	83 c4 08	 add	 esp, 8
  00010	c3		 ret	 0
  00011	cc		 int	 3
  00012	cc		 int	 3
  00013	cc		 int	 3
  00014	cc		 int	 3
  00015	cc		 int	 3
__ehhandler$?BindInstance@?$i3MetaTemplate@Vi3Tcp@@@@UAEPAVi3ElementBase@@PAXW4I3_CLASSMETA_TYPE@@@Z:
  00016	90		 npad	 1
  00017	90		 npad	 1
  00018	8b 54 24 08	 mov	 edx, DWORD PTR [esp+8]
  0001c	8d 42 0c	 lea	 eax, DWORD PTR [edx+12]
  0001f	8b 4a f8	 mov	 ecx, DWORD PTR [edx-8]
  00022	33 c8		 xor	 ecx, eax
  00024	e8 00 00 00 00	 call	 @__security_check_cookie@4
  00029	b8 00 00 00 00	 mov	 eax, OFFSET __ehfuncinfo$?BindInstance@?$i3MetaTemplate@Vi3Tcp@@@@UAEPAVi3ElementBase@@PAXW4I3_CLASSMETA_TYPE@@@Z
  0002e	e9 00 00 00 00	 jmp	 ___CxxFrameHandler3
text$x	ENDS
?BindInstance@?$i3MetaTemplate@Vi3Tcp@@@@UAEPAVi3ElementBase@@PAXW4I3_CLASSMETA_TYPE@@@Z ENDP ; i3MetaTemplate<i3Tcp>::BindInstance
; Function compile flags: /Ogtp
; File E:\Proyectos\JuegosOnlineproyectos\PB\pbblow\Piercing Blow Remake\i3Server\include\i3Base\i3MetaTemplate.h
; File E:\Proyectos\JuegosOnlineproyectos\PB\pbblow\Piercing Blow Remake\i3Server\src\i3Base\i3Inet.cpp
; File E:\Proyectos\JuegosOnlineproyectos\PB\pbblow\Piercing Blow Remake\i3Server\include\i3Base\i3MetaTemplate.h
; File E:\Proyectos\JuegosOnlineproyectos\PB\pbblow\Piercing Blow Remake\i3Server\include\i3Base\i3ElementBase.h
; File E:\Proyectos\JuegosOnlineproyectos\PB\pbblow\Piercing Blow Remake\i3Server\include\i3Base\i3MetaTemplate.h
;	COMDAT ?CreateInstance@?$i3MetaTemplate@Vi3Tcp@@@@UAEPAVi3ElementBase@@W4I3_CLASSMETA_TYPE@@@Z
_TEXT	SEGMENT
__$EHRec$ = -12						; size = 12
_type$ = 8						; size = 4
$T2 = 8							; size = 4
?CreateInstance@?$i3MetaTemplate@Vi3Tcp@@@@UAEPAVi3ElementBase@@W4I3_CLASSMETA_TYPE@@@Z PROC ; i3MetaTemplate<i3Tcp>::CreateInstance, COMDAT
; _this$ = ecx

; 97   : 	{

  00000	55		 push	 ebp
  00001	8b ec		 mov	 ebp, esp
  00003	6a ff		 push	 -1
  00005	68 00 00 00 00	 push	 __ehhandler$?CreateInstance@?$i3MetaTemplate@Vi3Tcp@@@@UAEPAVi3ElementBase@@W4I3_CLASSMETA_TYPE@@@Z
  0000a	64 a1 00 00 00
	00		 mov	 eax, DWORD PTR fs:0
  00010	50		 push	 eax
  00011	56		 push	 esi
  00012	57		 push	 edi
  00013	a1 00 00 00 00	 mov	 eax, DWORD PTR ___security_cookie
  00018	33 c5		 xor	 eax, ebp
  0001a	50		 push	 eax
  0001b	8d 45 f4	 lea	 eax, DWORD PTR __$EHRec$[ebp]
  0001e	64 a3 00 00 00
	00		 mov	 DWORD PTR fs:0, eax
  00024	8b f9		 mov	 edi, ecx

; 98   : 		if( m_ProxyCount > 0)

  00026	83 7f 30 00	 cmp	 DWORD PTR [edi+48], 0
  0002a	7e 28		 jle	 SHORT $LN3@CreateInst

; 99   : 		{
; 100  : 			i3ClassMeta * pMeta = GetConcreteClass( type);

  0002c	ff 75 08	 push	 DWORD PTR _type$[ebp]
  0002f	e8 00 00 00 00	 call	 ?GetConcreteClass@i3ClassMeta@@QAEPAV1@W4I3_CLASSMETA_TYPE@@@Z ; i3ClassMeta::GetConcreteClass

; 101  : 
; 102  : 			if( pMeta != NULL)

  00034	85 c0		 test	 eax, eax
  00036	74 1c		 je	 SHORT $LN3@CreateInst

; 103  : 				return pMeta->CreateInstance( I3_CLASSMETA_TYPE_GENERAL);

  00038	8b 10		 mov	 edx, DWORD PTR [eax]
  0003a	8b c8		 mov	 ecx, eax
  0003c	6a 00		 push	 0
  0003e	ff 52 04	 call	 DWORD PTR [edx+4]

; 125  : 	}

  00041	8b 4d f4	 mov	 ecx, DWORD PTR __$EHRec$[ebp]
  00044	64 89 0d 00 00
	00 00		 mov	 DWORD PTR fs:0, ecx
  0004b	59		 pop	 ecx
  0004c	5f		 pop	 edi
  0004d	5e		 pop	 esi
  0004e	8b e5		 mov	 esp, ebp
  00050	5d		 pop	 ebp
  00051	c2 04 00	 ret	 4
$LN3@CreateInst:

; 104  : 		}
; 105  : 
; 106  : 		{
; 107  : 			if( m_pPool == NULL)

  00054	8b 4f 34	 mov	 ecx, DWORD PTR [edi+52]
  00057	85 c9		 test	 ecx, ecx
  00059	75 43		 jne	 SHORT $LN4@CreateInst

; 112  : 					return (i3ElementBase *) new T;

  0005b	6a 14		 push	 20			; 00000014H
  0005d	e8 00 00 00 00	 call	 ??2i3ElementBase@@SAPAXI@Z ; i3ElementBase::operator new
  00062	8b f0		 mov	 esi, eax
  00064	83 c4 04	 add	 esp, 4
  00067	89 75 08	 mov	 DWORD PTR $T2[ebp], esi
  0006a	c7 45 fc 00 00
	00 00		 mov	 DWORD PTR __$EHRec$[ebp+8], 0
  00071	85 f6		 test	 esi, esi
  00073	74 25		 je	 SHORT $LN7@CreateInst
; File E:\Proyectos\JuegosOnlineproyectos\PB\pbblow\Piercing Blow Remake\i3Server\src\i3Base\i3Inet.cpp

; 490  : {

  00075	8b ce		 mov	 ecx, esi
  00077	e8 00 00 00 00	 call	 ??0i3ElementBase@@QAE@XZ ; i3ElementBase::i3ElementBase

; 510  : 	m_Socket = ::socket(AF_INET, SOCK_STREAM, 0); 

  0007c	6a 00		 push	 0
  0007e	6a 01		 push	 1
  00080	6a 02		 push	 2

; 490  : {

  00082	c7 06 00 00 00
	00		 mov	 DWORD PTR [esi], OFFSET ??_7i3Tcp@@6B@

; 491  : 	m_Socket = INVALID_SOCKET; 

  00088	c7 46 10 ff ff
	ff ff		 mov	 DWORD PTR [esi+16], -1

; 510  : 	m_Socket = ::socket(AF_INET, SOCK_STREAM, 0); 

  0008f	ff 15 00 00 00
	00		 call	 DWORD PTR __imp__socket@12
  00095	89 46 10	 mov	 DWORD PTR [esi+16], eax
; File E:\Proyectos\JuegosOnlineproyectos\PB\pbblow\Piercing Blow Remake\i3Server\include\i3Base\i3MetaTemplate.h

; 112  : 					return (i3ElementBase *) new T;

  00098	eb 22		 jmp	 SHORT $LN8@CreateInst
$LN7@CreateInst:
  0009a	33 f6		 xor	 esi, esi
  0009c	eb 1e		 jmp	 SHORT $LN8@CreateInst
$LN4@CreateInst:

; 113  : 				#endif
; 114  : 			}
; 115  : 			else
; 116  : 			{
; 117  : 				i3ElementBase * p = (i3ElementBase *) m_pPool->Alloc( sizeof(T), NULL, 0);

  0009e	8b 01		 mov	 eax, DWORD PTR [ecx]
  000a0	6a 00		 push	 0
  000a2	6a 00		 push	 0
  000a4	6a 14		 push	 20			; 00000014H
  000a6	ff 50 04	 call	 DWORD PTR [eax+4]

; 118  : 	
; 119  : 				BindInstance( p, type);

  000a9	ff 75 08	 push	 DWORD PTR _type$[ebp]
  000ac	8b 17		 mov	 edx, DWORD PTR [edi]
  000ae	8b f0		 mov	 esi, eax
  000b0	56		 push	 esi
  000b1	8b cf		 mov	 ecx, edi
  000b3	ff 52 08	 call	 DWORD PTR [edx+8]
; File E:\Proyectos\JuegosOnlineproyectos\PB\pbblow\Piercing Blow Remake\i3Server\include\i3Base\i3ElementBase.h

; 347  : 	void			__SetMemoryPool( i3MemoryPool * pPool)			{ m_pPool = pPool; }

  000b6	8b 4f 34	 mov	 ecx, DWORD PTR [edi+52]
  000b9	89 4e 0c	 mov	 DWORD PTR [esi+12], ecx
$LN8@CreateInst:
; File E:\Proyectos\JuegosOnlineproyectos\PB\pbblow\Piercing Blow Remake\i3Server\include\i3Base\i3MetaTemplate.h

; 125  : 	}

  000bc	8b c6		 mov	 eax, esi
  000be	8b 4d f4	 mov	 ecx, DWORD PTR __$EHRec$[ebp]
  000c1	64 89 0d 00 00
	00 00		 mov	 DWORD PTR fs:0, ecx
  000c8	59		 pop	 ecx
  000c9	5f		 pop	 edi
  000ca	5e		 pop	 esi
  000cb	8b e5		 mov	 esp, ebp
  000cd	5d		 pop	 ebp
  000ce	c2 04 00	 ret	 4
_TEXT	ENDS
;	COMDAT text$x
text$x	SEGMENT
__unwindfunclet$?CreateInstance@?$i3MetaTemplate@Vi3Tcp@@@@UAEPAVi3ElementBase@@W4I3_CLASSMETA_TYPE@@@Z$0:
  00000	8b 45 08	 mov	 eax, DWORD PTR $T2[ebp]
  00003	50		 push	 eax
  00004	e8 00 00 00 00	 call	 ??3i3ElementBase@@SAXPAX@Z ; i3ElementBase::operator delete
  00009	59		 pop	 ecx
  0000a	c3		 ret	 0
  0000b	cc		 int	 3
  0000c	cc		 int	 3
  0000d	cc		 int	 3
  0000e	cc		 int	 3
  0000f	cc		 int	 3
__ehhandler$?CreateInstance@?$i3MetaTemplate@Vi3Tcp@@@@UAEPAVi3ElementBase@@W4I3_CLASSMETA_TYPE@@@Z:
  00010	90		 npad	 1
  00011	90		 npad	 1
  00012	8b 54 24 08	 mov	 edx, DWORD PTR [esp+8]
  00016	8d 42 0c	 lea	 eax, DWORD PTR [edx+12]
  00019	8b 4a f4	 mov	 ecx, DWORD PTR [edx-12]
  0001c	33 c8		 xor	 ecx, eax
  0001e	e8 00 00 00 00	 call	 @__security_check_cookie@4
  00023	b8 00 00 00 00	 mov	 eax, OFFSET __ehfuncinfo$?CreateInstance@?$i3MetaTemplate@Vi3Tcp@@@@UAEPAVi3ElementBase@@W4I3_CLASSMETA_TYPE@@@Z
  00028	e9 00 00 00 00	 jmp	 ___CxxFrameHandler3
text$x	ENDS
?CreateInstance@?$i3MetaTemplate@Vi3Tcp@@@@UAEPAVi3ElementBase@@W4I3_CLASSMETA_TYPE@@@Z ENDP ; i3MetaTemplate<i3Tcp>::CreateInstance
; Function compile flags: /Ogtp
; File E:\Proyectos\JuegosOnlineproyectos\PB\pbblow\Piercing Blow Remake\i3Server\include\i3Base\i3MetaTemplate.h
;	COMDAT ??0?$i3MetaTemplate@Vi3Tcp@@@@QAE@IPAD0W4I3_CLASSMETA_TYPE@@@Z
_TEXT	SEGMENT
_this$ = -4						; size = 4
_classSz$ = 8						; size = 4
_pszClassName$ = 12					; size = 4
_pszBaseClassName$ = 16					; size = 4
_type$ = 20						; size = 4
??0?$i3MetaTemplate@Vi3Tcp@@@@QAE@IPAD0W4I3_CLASSMETA_TYPE@@@Z PROC ; i3MetaTemplate<i3Tcp>::i3MetaTemplate<i3Tcp>, COMDAT
; _this$ = ecx

; 29   : {

  00000	55		 push	 ebp
  00001	8b ec		 mov	 ebp, esp
  00003	51		 push	 ecx
  00004	56		 push	 esi
  00005	ff 75 14	 push	 DWORD PTR _type$[ebp]
  00008	8b f1		 mov	 esi, ecx
  0000a	ff 75 10	 push	 DWORD PTR _pszBaseClassName$[ebp]
  0000d	89 75 fc	 mov	 DWORD PTR _this$[ebp], esi
  00010	ff 75 0c	 push	 DWORD PTR _pszClassName$[ebp]
  00013	ff 75 08	 push	 DWORD PTR _classSz$[ebp]
  00016	e8 00 00 00 00	 call	 ??0i3ClassMeta@@QAE@IPAD0W4I3_CLASSMETA_TYPE@@@Z ; i3ClassMeta::i3ClassMeta
  0001b	c7 06 00 00 00
	00		 mov	 DWORD PTR [esi], OFFSET ??_7?$i3MetaTemplate@Vi3Tcp@@@@6B@

; 30   : }

  00021	8b c6		 mov	 eax, esi
  00023	5e		 pop	 esi
  00024	8b e5		 mov	 esp, ebp
  00026	5d		 pop	 ebp
  00027	c2 10 00	 ret	 16			; 00000010H
??0?$i3MetaTemplate@Vi3Tcp@@@@QAE@IPAD0W4I3_CLASSMETA_TYPE@@@Z ENDP ; i3MetaTemplate<i3Tcp>::i3MetaTemplate<i3Tcp>
_TEXT	ENDS
; Function compile flags: /Ogtp
;	COMDAT ??__Fs_ClassMetai3Udp@@YAXXZ
text$yd	SEGMENT
??__Fs_ClassMetai3Udp@@YAXXZ PROC			; `dynamic atexit destructor for 's_ClassMetai3Udp'', COMDAT
  00000	b9 00 00 00 00	 mov	 ecx, OFFSET ?s_ClassMetai3Udp@@3V?$i3MetaTemplate@Vi3Udp@@@@A
  00005	e9 00 00 00 00	 jmp	 ??1i3ClassMeta@@UAE@XZ	; i3ClassMeta::~i3ClassMeta
??__Fs_ClassMetai3Udp@@YAXXZ ENDP			; `dynamic atexit destructor for 's_ClassMetai3Udp''
text$yd	ENDS
; Function compile flags: /Ogtp
; File E:\Proyectos\JuegosOnlineproyectos\PB\pbblow\Piercing Blow Remake\i3Server\src\i3Base\i3Inet.cpp
; File E:\Proyectos\JuegosOnlineproyectos\PB\pbblow\Piercing Blow Remake\i3Server\include\i3Base\i3MetaTemplate.h
; File E:\Proyectos\JuegosOnlineproyectos\PB\pbblow\Piercing Blow Remake\i3Server\src\i3Base\i3Inet.cpp
; File E:\Proyectos\JuegosOnlineproyectos\PB\pbblow\Piercing Blow Remake\i3Server\include\i3Base\i3MetaTemplate.h
; File E:\Proyectos\JuegosOnlineproyectos\PB\pbblow\Piercing Blow Remake\i3Server\src\i3Base\i3Inet.cpp
;	COMDAT ??__Es_ClassMetai3Udp@@YAXXZ
text$di	SEGMENT
??__Es_ClassMetai3Udp@@YAXXZ PROC			; `dynamic initializer for 's_ClassMetai3Udp'', COMDAT
; File E:\Proyectos\JuegosOnlineproyectos\PB\pbblow\Piercing Blow Remake\i3Server\include\i3Base\i3MetaTemplate.h

; 28   : : i3ClassMeta( classSz, pszClassName, pszBaseClassName, type)

  00000	6a 00		 push	 0
  00002	68 00 00 00 00	 push	 OFFSET ??_C@_0O@OCDFBOHM@i3ElementBase@
  00007	68 00 00 00 00	 push	 OFFSET ??_C@_05BLHFCHAC@i3Udp@
  0000c	6a 14		 push	 20			; 00000014H
  0000e	b9 00 00 00 00	 mov	 ecx, OFFSET ?s_ClassMetai3Udp@@3V?$i3MetaTemplate@Vi3Udp@@@@A
  00013	e8 00 00 00 00	 call	 ??0i3ClassMeta@@QAE@IPAD0W4I3_CLASSMETA_TYPE@@@Z ; i3ClassMeta::i3ClassMeta
; File E:\Proyectos\JuegosOnlineproyectos\PB\pbblow\Piercing Blow Remake\i3Server\src\i3Base\i3Inet.cpp

; 4    : I3_CLASS_INSTANCE( i3Udp, i3ElementBase);

  00018	68 00 00 00 00	 push	 OFFSET ??__Fs_ClassMetai3Udp@@YAXXZ ; `dynamic atexit destructor for 's_ClassMetai3Udp''
; File E:\Proyectos\JuegosOnlineproyectos\PB\pbblow\Piercing Blow Remake\i3Server\include\i3Base\i3MetaTemplate.h

; 29   : {

  0001d	c7 05 00 00 00
	00 00 00 00 00	 mov	 DWORD PTR ?s_ClassMetai3Udp@@3V?$i3MetaTemplate@Vi3Udp@@@@A, OFFSET ??_7?$i3MetaTemplate@Vi3Udp@@@@6B@
; File E:\Proyectos\JuegosOnlineproyectos\PB\pbblow\Piercing Blow Remake\i3Server\src\i3Base\i3Inet.cpp

; 4    : I3_CLASS_INSTANCE( i3Udp, i3ElementBase);

  00027	e8 00 00 00 00	 call	 _atexit
  0002c	59		 pop	 ecx
  0002d	c3		 ret	 0
??__Es_ClassMetai3Udp@@YAXXZ ENDP			; `dynamic initializer for 's_ClassMetai3Udp''
text$di	ENDS
; Function compile flags: /Ogtp
;	COMDAT ??_G?$i3MetaTemplate@Vi3Udp@@@@UAEPAXI@Z
_TEXT	SEGMENT
___flags$ = 8						; size = 4
??_G?$i3MetaTemplate@Vi3Udp@@@@UAEPAXI@Z PROC		; i3MetaTemplate<i3Udp>::`scalar deleting destructor', COMDAT
; _this$ = ecx
  00000	55		 push	 ebp
  00001	8b ec		 mov	 ebp, esp
  00003	56		 push	 esi
  00004	8b f1		 mov	 esi, ecx
  00006	e8 00 00 00 00	 call	 ??1i3ClassMeta@@UAE@XZ	; i3ClassMeta::~i3ClassMeta
  0000b	f6 45 08 01	 test	 BYTE PTR ___flags$[ebp], 1
  0000f	74 0b		 je	 SHORT $LN10@scalar
  00011	6a 38		 push	 56			; 00000038H
  00013	56		 push	 esi
  00014	e8 00 00 00 00	 call	 ??3@YAXPAXI@Z		; operator delete
  00019	83 c4 08	 add	 esp, 8
$LN10@scalar:
  0001c	8b c6		 mov	 eax, esi
  0001e	5e		 pop	 esi
  0001f	5d		 pop	 ebp
  00020	c2 04 00	 ret	 4
??_G?$i3MetaTemplate@Vi3Udp@@@@UAEPAXI@Z ENDP		; i3MetaTemplate<i3Udp>::`scalar deleting destructor'
_TEXT	ENDS
; Function compile flags: /Ogtp
; File E:\Proyectos\JuegosOnlineproyectos\PB\pbblow\Piercing Blow Remake\i3Server\include\i3Base\i3MetaTemplate.h
; File E:\Proyectos\JuegosOnlineproyectos\PB\pbblow\Piercing Blow Remake\i3Server\src\i3Base\i3Inet.cpp
; File E:\Proyectos\JuegosOnlineproyectos\PB\pbblow\Piercing Blow Remake\i3Server\include\i3Base\i3MetaTemplate.h
; File E:\Proyectos\JuegosOnlineproyectos\PB\pbblow\Piercing Blow Remake\i3Server\src\i3Base\i3Inet.cpp
; File E:\Proyectos\JuegosOnlineproyectos\PB\pbblow\Piercing Blow Remake\i3Server\include\i3Base\i3MetaTemplate.h
;	COMDAT ?BindInstance@?$i3MetaTemplate@Vi3Udp@@@@UAEPAVi3ElementBase@@PAXW4I3_CLASSMETA_TYPE@@@Z
_TEXT	SEGMENT
__$EHRec$ = -12						; size = 12
_pBuf$ = 8						; size = 4
_type$ = 12						; size = 4
$T2 = 12						; size = 4
?BindInstance@?$i3MetaTemplate@Vi3Udp@@@@UAEPAVi3ElementBase@@PAXW4I3_CLASSMETA_TYPE@@@Z PROC ; i3MetaTemplate<i3Udp>::BindInstance, COMDAT
; _this$ = ecx

; 129  : 	{

  00000	55		 push	 ebp
  00001	8b ec		 mov	 ebp, esp
  00003	6a ff		 push	 -1
  00005	68 00 00 00 00	 push	 __ehhandler$?BindInstance@?$i3MetaTemplate@Vi3Udp@@@@UAEPAVi3ElementBase@@PAXW4I3_CLASSMETA_TYPE@@@Z
  0000a	64 a1 00 00 00
	00		 mov	 eax, DWORD PTR fs:0
  00010	50		 push	 eax
  00011	56		 push	 esi
  00012	a1 00 00 00 00	 mov	 eax, DWORD PTR ___security_cookie
  00017	33 c5		 xor	 eax, ebp
  00019	50		 push	 eax
  0001a	8d 45 f4	 lea	 eax, DWORD PTR __$EHRec$[ebp]
  0001d	64 a3 00 00 00
	00		 mov	 DWORD PTR fs:0, eax

; 130  : 		if( m_ProxyCount > 0)

  00023	83 79 30 00	 cmp	 DWORD PTR [ecx+48], 0
  00027	7e 26		 jle	 SHORT $LN2@BindInstan

; 131  : 		{
; 132  : 			i3ClassMeta * pMeta = GetConcreteClass( type);

  00029	ff 75 0c	 push	 DWORD PTR _type$[ebp]
  0002c	e8 00 00 00 00	 call	 ?GetConcreteClass@i3ClassMeta@@QAEPAV1@W4I3_CLASSMETA_TYPE@@@Z ; i3ClassMeta::GetConcreteClass

; 133  : 
; 134  : 			return pMeta->BindInstance( pBuf, I3_CLASSMETA_TYPE_GENERAL);

  00031	6a 00		 push	 0
  00033	ff 75 08	 push	 DWORD PTR _pBuf$[ebp]
  00036	8b c8		 mov	 ecx, eax
  00038	8b 10		 mov	 edx, DWORD PTR [eax]
  0003a	ff 52 08	 call	 DWORD PTR [edx+8]

; 144  : 	}

  0003d	8b 4d f4	 mov	 ecx, DWORD PTR __$EHRec$[ebp]
  00040	64 89 0d 00 00
	00 00		 mov	 DWORD PTR fs:0, ecx
  00047	59		 pop	 ecx
  00048	5e		 pop	 esi
  00049	8b e5		 mov	 esp, ebp
  0004b	5d		 pop	 ebp
  0004c	c2 08 00	 ret	 8
$LN2@BindInstan:

; 141  : 				return (i3ElementBase *) new( pBuf ) T;

  0004f	ff 75 08	 push	 DWORD PTR _pBuf$[ebp]
  00052	6a 14		 push	 20			; 00000014H
  00054	e8 00 00 00 00	 call	 ??2i3ElementBase@@SAPAXIPAX@Z ; i3ElementBase::operator new
  00059	8b f0		 mov	 esi, eax
  0005b	83 c4 08	 add	 esp, 8
  0005e	89 75 0c	 mov	 DWORD PTR $T2[ebp], esi
  00061	c7 45 fc 00 00
	00 00		 mov	 DWORD PTR __$EHRec$[ebp+8], 0
  00068	85 f6		 test	 esi, esi
  0006a	74 28		 je	 SHORT $LN5@BindInstan
; File E:\Proyectos\JuegosOnlineproyectos\PB\pbblow\Piercing Blow Remake\i3Server\src\i3Base\i3Inet.cpp

; 339  : {

  0006c	8b ce		 mov	 ecx, esi
  0006e	e8 00 00 00 00	 call	 ??0i3ElementBase@@QAE@XZ ; i3ElementBase::i3ElementBase
  00073	c7 06 00 00 00
	00		 mov	 DWORD PTR [esi], OFFSET ??_7i3Udp@@6B@
; File E:\Proyectos\JuegosOnlineproyectos\PB\pbblow\Piercing Blow Remake\i3Server\include\i3Base\i3MetaTemplate.h

; 141  : 				return (i3ElementBase *) new( pBuf ) T;

  00079	8b c6		 mov	 eax, esi
; File E:\Proyectos\JuegosOnlineproyectos\PB\pbblow\Piercing Blow Remake\i3Server\src\i3Base\i3Inet.cpp

; 340  : 	m_Socket = INVALID_SOCKET;

  0007b	c7 46 10 ff ff
	ff ff		 mov	 DWORD PTR [esi+16], -1
; File E:\Proyectos\JuegosOnlineproyectos\PB\pbblow\Piercing Blow Remake\i3Server\include\i3Base\i3MetaTemplate.h

; 144  : 	}

  00082	8b 4d f4	 mov	 ecx, DWORD PTR __$EHRec$[ebp]
  00085	64 89 0d 00 00
	00 00		 mov	 DWORD PTR fs:0, ecx
  0008c	59		 pop	 ecx
  0008d	5e		 pop	 esi
  0008e	8b e5		 mov	 esp, ebp
  00090	5d		 pop	 ebp
  00091	c2 08 00	 ret	 8
$LN5@BindInstan:

; 141  : 				return (i3ElementBase *) new( pBuf ) T;

  00094	33 f6		 xor	 esi, esi
  00096	8b c6		 mov	 eax, esi

; 144  : 	}

  00098	8b 4d f4	 mov	 ecx, DWORD PTR __$EHRec$[ebp]
  0009b	64 89 0d 00 00
	00 00		 mov	 DWORD PTR fs:0, ecx
  000a2	59		 pop	 ecx
  000a3	5e		 pop	 esi
  000a4	8b e5		 mov	 esp, ebp
  000a6	5d		 pop	 ebp
  000a7	c2 08 00	 ret	 8
_TEXT	ENDS
;	COMDAT text$x
text$x	SEGMENT
__unwindfunclet$?BindInstance@?$i3MetaTemplate@Vi3Udp@@@@UAEPAVi3ElementBase@@PAXW4I3_CLASSMETA_TYPE@@@Z$0:
  00000	8b 45 08	 mov	 eax, DWORD PTR _pBuf$[ebp]
  00003	50		 push	 eax
  00004	8b 45 0c	 mov	 eax, DWORD PTR $T2[ebp]
  00007	50		 push	 eax
  00008	e8 00 00 00 00	 call	 ??3i3ElementBase@@SAXPAX0@Z ; i3ElementBase::operator delete
  0000d	83 c4 08	 add	 esp, 8
  00010	c3		 ret	 0
  00011	cc		 int	 3
  00012	cc		 int	 3
  00013	cc		 int	 3
  00014	cc		 int	 3
  00015	cc		 int	 3
__ehhandler$?BindInstance@?$i3MetaTemplate@Vi3Udp@@@@UAEPAVi3ElementBase@@PAXW4I3_CLASSMETA_TYPE@@@Z:
  00016	90		 npad	 1
  00017	90		 npad	 1
  00018	8b 54 24 08	 mov	 edx, DWORD PTR [esp+8]
  0001c	8d 42 0c	 lea	 eax, DWORD PTR [edx+12]
  0001f	8b 4a f8	 mov	 ecx, DWORD PTR [edx-8]
  00022	33 c8		 xor	 ecx, eax
  00024	e8 00 00 00 00	 call	 @__security_check_cookie@4
  00029	b8 00 00 00 00	 mov	 eax, OFFSET __ehfuncinfo$?BindInstance@?$i3MetaTemplate@Vi3Udp@@@@UAEPAVi3ElementBase@@PAXW4I3_CLASSMETA_TYPE@@@Z
  0002e	e9 00 00 00 00	 jmp	 ___CxxFrameHandler3
text$x	ENDS
?BindInstance@?$i3MetaTemplate@Vi3Udp@@@@UAEPAVi3ElementBase@@PAXW4I3_CLASSMETA_TYPE@@@Z ENDP ; i3MetaTemplate<i3Udp>::BindInstance
; Function compile flags: /Ogtp
; File E:\Proyectos\JuegosOnlineproyectos\PB\pbblow\Piercing Blow Remake\i3Server\include\i3Base\i3MetaTemplate.h
; File E:\Proyectos\JuegosOnlineproyectos\PB\pbblow\Piercing Blow Remake\i3Server\src\i3Base\i3Inet.cpp
; File E:\Proyectos\JuegosOnlineproyectos\PB\pbblow\Piercing Blow Remake\i3Server\include\i3Base\i3MetaTemplate.h
; File E:\Proyectos\JuegosOnlineproyectos\PB\pbblow\Piercing Blow Remake\i3Server\include\i3Base\i3ElementBase.h
; File E:\Proyectos\JuegosOnlineproyectos\PB\pbblow\Piercing Blow Remake\i3Server\include\i3Base\i3MetaTemplate.h
;	COMDAT ?CreateInstance@?$i3MetaTemplate@Vi3Udp@@@@UAEPAVi3ElementBase@@W4I3_CLASSMETA_TYPE@@@Z
_TEXT	SEGMENT
__$EHRec$ = -12						; size = 12
_type$ = 8						; size = 4
$T2 = 8							; size = 4
?CreateInstance@?$i3MetaTemplate@Vi3Udp@@@@UAEPAVi3ElementBase@@W4I3_CLASSMETA_TYPE@@@Z PROC ; i3MetaTemplate<i3Udp>::CreateInstance, COMDAT
; _this$ = ecx

; 97   : 	{

  00000	55		 push	 ebp
  00001	8b ec		 mov	 ebp, esp
  00003	6a ff		 push	 -1
  00005	68 00 00 00 00	 push	 __ehhandler$?CreateInstance@?$i3MetaTemplate@Vi3Udp@@@@UAEPAVi3ElementBase@@W4I3_CLASSMETA_TYPE@@@Z
  0000a	64 a1 00 00 00
	00		 mov	 eax, DWORD PTR fs:0
  00010	50		 push	 eax
  00011	56		 push	 esi
  00012	57		 push	 edi
  00013	a1 00 00 00 00	 mov	 eax, DWORD PTR ___security_cookie
  00018	33 c5		 xor	 eax, ebp
  0001a	50		 push	 eax
  0001b	8d 45 f4	 lea	 eax, DWORD PTR __$EHRec$[ebp]
  0001e	64 a3 00 00 00
	00		 mov	 DWORD PTR fs:0, eax
  00024	8b f9		 mov	 edi, ecx

; 98   : 		if( m_ProxyCount > 0)

  00026	83 7f 30 00	 cmp	 DWORD PTR [edi+48], 0
  0002a	7e 28		 jle	 SHORT $LN3@CreateInst

; 99   : 		{
; 100  : 			i3ClassMeta * pMeta = GetConcreteClass( type);

  0002c	ff 75 08	 push	 DWORD PTR _type$[ebp]
  0002f	e8 00 00 00 00	 call	 ?GetConcreteClass@i3ClassMeta@@QAEPAV1@W4I3_CLASSMETA_TYPE@@@Z ; i3ClassMeta::GetConcreteClass

; 101  : 
; 102  : 			if( pMeta != NULL)

  00034	85 c0		 test	 eax, eax
  00036	74 1c		 je	 SHORT $LN3@CreateInst

; 103  : 				return pMeta->CreateInstance( I3_CLASSMETA_TYPE_GENERAL);

  00038	8b 10		 mov	 edx, DWORD PTR [eax]
  0003a	8b c8		 mov	 ecx, eax
  0003c	6a 00		 push	 0
  0003e	ff 52 04	 call	 DWORD PTR [edx+4]

; 125  : 	}

  00041	8b 4d f4	 mov	 ecx, DWORD PTR __$EHRec$[ebp]
  00044	64 89 0d 00 00
	00 00		 mov	 DWORD PTR fs:0, ecx
  0004b	59		 pop	 ecx
  0004c	5f		 pop	 edi
  0004d	5e		 pop	 esi
  0004e	8b e5		 mov	 esp, ebp
  00050	5d		 pop	 ebp
  00051	c2 04 00	 ret	 4
$LN3@CreateInst:

; 104  : 		}
; 105  : 
; 106  : 		{
; 107  : 			if( m_pPool == NULL)

  00054	8b 4f 34	 mov	 ecx, DWORD PTR [edi+52]
  00057	85 c9		 test	 ecx, ecx
  00059	75 34		 jne	 SHORT $LN4@CreateInst

; 112  : 					return (i3ElementBase *) new T;

  0005b	6a 14		 push	 20			; 00000014H
  0005d	e8 00 00 00 00	 call	 ??2i3ElementBase@@SAPAXI@Z ; i3ElementBase::operator new
  00062	8b f0		 mov	 esi, eax
  00064	83 c4 04	 add	 esp, 4
  00067	89 75 08	 mov	 DWORD PTR $T2[ebp], esi
  0006a	c7 45 fc 00 00
	00 00		 mov	 DWORD PTR __$EHRec$[ebp+8], 0
  00071	85 f6		 test	 esi, esi
  00073	74 16		 je	 SHORT $LN7@CreateInst
; File E:\Proyectos\JuegosOnlineproyectos\PB\pbblow\Piercing Blow Remake\i3Server\src\i3Base\i3Inet.cpp

; 339  : {

  00075	8b ce		 mov	 ecx, esi
  00077	e8 00 00 00 00	 call	 ??0i3ElementBase@@QAE@XZ ; i3ElementBase::i3ElementBase
  0007c	c7 06 00 00 00
	00		 mov	 DWORD PTR [esi], OFFSET ??_7i3Udp@@6B@

; 340  : 	m_Socket = INVALID_SOCKET;

  00082	c7 46 10 ff ff
	ff ff		 mov	 DWORD PTR [esi+16], -1
; File E:\Proyectos\JuegosOnlineproyectos\PB\pbblow\Piercing Blow Remake\i3Server\include\i3Base\i3MetaTemplate.h

; 112  : 					return (i3ElementBase *) new T;

  00089	eb 22		 jmp	 SHORT $LN8@CreateInst
$LN7@CreateInst:
  0008b	33 f6		 xor	 esi, esi
  0008d	eb 1e		 jmp	 SHORT $LN8@CreateInst
$LN4@CreateInst:

; 113  : 				#endif
; 114  : 			}
; 115  : 			else
; 116  : 			{
; 117  : 				i3ElementBase * p = (i3ElementBase *) m_pPool->Alloc( sizeof(T), NULL, 0);

  0008f	8b 01		 mov	 eax, DWORD PTR [ecx]
  00091	6a 00		 push	 0
  00093	6a 00		 push	 0
  00095	6a 14		 push	 20			; 00000014H
  00097	ff 50 04	 call	 DWORD PTR [eax+4]

; 118  : 	
; 119  : 				BindInstance( p, type);

  0009a	ff 75 08	 push	 DWORD PTR _type$[ebp]
  0009d	8b 17		 mov	 edx, DWORD PTR [edi]
  0009f	8b f0		 mov	 esi, eax
  000a1	56		 push	 esi
  000a2	8b cf		 mov	 ecx, edi
  000a4	ff 52 08	 call	 DWORD PTR [edx+8]
; File E:\Proyectos\JuegosOnlineproyectos\PB\pbblow\Piercing Blow Remake\i3Server\include\i3Base\i3ElementBase.h

; 347  : 	void			__SetMemoryPool( i3MemoryPool * pPool)			{ m_pPool = pPool; }

  000a7	8b 4f 34	 mov	 ecx, DWORD PTR [edi+52]
  000aa	89 4e 0c	 mov	 DWORD PTR [esi+12], ecx
$LN8@CreateInst:
; File E:\Proyectos\JuegosOnlineproyectos\PB\pbblow\Piercing Blow Remake\i3Server\include\i3Base\i3MetaTemplate.h

; 125  : 	}

  000ad	8b c6		 mov	 eax, esi
  000af	8b 4d f4	 mov	 ecx, DWORD PTR __$EHRec$[ebp]
  000b2	64 89 0d 00 00
	00 00		 mov	 DWORD PTR fs:0, ecx
  000b9	59		 pop	 ecx
  000ba	5f		 pop	 edi
  000bb	5e		 pop	 esi
  000bc	8b e5		 mov	 esp, ebp
  000be	5d		 pop	 ebp
  000bf	c2 04 00	 ret	 4
_TEXT	ENDS
;	COMDAT text$x
text$x	SEGMENT
__unwindfunclet$?CreateInstance@?$i3MetaTemplate@Vi3Udp@@@@UAEPAVi3ElementBase@@W4I3_CLASSMETA_TYPE@@@Z$0:
  00000	8b 45 08	 mov	 eax, DWORD PTR $T2[ebp]
  00003	50		 push	 eax
  00004	e8 00 00 00 00	 call	 ??3i3ElementBase@@SAXPAX@Z ; i3ElementBase::operator delete
  00009	59		 pop	 ecx
  0000a	c3		 ret	 0
  0000b	cc		 int	 3
  0000c	cc		 int	 3
  0000d	cc		 int	 3
  0000e	cc		 int	 3
  0000f	cc		 int	 3
__ehhandler$?CreateInstance@?$i3MetaTemplate@Vi3Udp@@@@UAEPAVi3ElementBase@@W4I3_CLASSMETA_TYPE@@@Z:
  00010	90		 npad	 1
  00011	90		 npad	 1
  00012	8b 54 24 08	 mov	 edx, DWORD PTR [esp+8]
  00016	8d 42 0c	 lea	 eax, DWORD PTR [edx+12]
  00019	8b 4a f4	 mov	 ecx, DWORD PTR [edx-12]
  0001c	33 c8		 xor	 ecx, eax
  0001e	e8 00 00 00 00	 call	 @__security_check_cookie@4
  00023	b8 00 00 00 00	 mov	 eax, OFFSET __ehfuncinfo$?CreateInstance@?$i3MetaTemplate@Vi3Udp@@@@UAEPAVi3ElementBase@@W4I3_CLASSMETA_TYPE@@@Z
  00028	e9 00 00 00 00	 jmp	 ___CxxFrameHandler3
text$x	ENDS
?CreateInstance@?$i3MetaTemplate@Vi3Udp@@@@UAEPAVi3ElementBase@@W4I3_CLASSMETA_TYPE@@@Z ENDP ; i3MetaTemplate<i3Udp>::CreateInstance
; Function compile flags: /Ogtp
; File E:\Proyectos\JuegosOnlineproyectos\PB\pbblow\Piercing Blow Remake\i3Server\include\i3Base\i3MetaTemplate.h
;	COMDAT ??0?$i3MetaTemplate@Vi3Udp@@@@QAE@IPAD0W4I3_CLASSMETA_TYPE@@@Z
_TEXT	SEGMENT
_this$ = -4						; size = 4
_classSz$ = 8						; size = 4
_pszClassName$ = 12					; size = 4
_pszBaseClassName$ = 16					; size = 4
_type$ = 20						; size = 4
??0?$i3MetaTemplate@Vi3Udp@@@@QAE@IPAD0W4I3_CLASSMETA_TYPE@@@Z PROC ; i3MetaTemplate<i3Udp>::i3MetaTemplate<i3Udp>, COMDAT
; _this$ = ecx

; 29   : {

  00000	55		 push	 ebp
  00001	8b ec		 mov	 ebp, esp
  00003	51		 push	 ecx
  00004	56		 push	 esi
  00005	ff 75 14	 push	 DWORD PTR _type$[ebp]
  00008	8b f1		 mov	 esi, ecx
  0000a	ff 75 10	 push	 DWORD PTR _pszBaseClassName$[ebp]
  0000d	89 75 fc	 mov	 DWORD PTR _this$[ebp], esi
  00010	ff 75 0c	 push	 DWORD PTR _pszClassName$[ebp]
  00013	ff 75 08	 push	 DWORD PTR _classSz$[ebp]
  00016	e8 00 00 00 00	 call	 ??0i3ClassMeta@@QAE@IPAD0W4I3_CLASSMETA_TYPE@@@Z ; i3ClassMeta::i3ClassMeta
  0001b	c7 06 00 00 00
	00		 mov	 DWORD PTR [esi], OFFSET ??_7?$i3MetaTemplate@Vi3Udp@@@@6B@

; 30   : }

  00021	8b c6		 mov	 eax, esi
  00023	5e		 pop	 esi
  00024	8b e5		 mov	 esp, ebp
  00026	5d		 pop	 ebp
  00027	c2 10 00	 ret	 16			; 00000010H
??0?$i3MetaTemplate@Vi3Udp@@@@QAE@IPAD0W4I3_CLASSMETA_TYPE@@@Z ENDP ; i3MetaTemplate<i3Udp>::i3MetaTemplate<i3Udp>
_TEXT	ENDS
; Function compile flags: /Ogtp
; File E:\Proyectos\JuegosOnlineproyectos\PB\pbblow\Piercing Blow Remake\i3Server\src\i3Base\i3Inet.cpp
;	COMDAT ??_Ei3Tcp@@UAEPAXI@Z
_TEXT	SEGMENT
__$EHRec$ = -12						; size = 12
___flags$ = 8						; size = 4
??_Ei3Tcp@@UAEPAXI@Z PROC				; i3Tcp::`vector deleting destructor', COMDAT
; _this$ = ecx
  00000	55		 push	 ebp
  00001	8b ec		 mov	 ebp, esp
  00003	6a ff		 push	 -1
  00005	68 00 00 00 00	 push	 __ehhandler$??_Ei3Tcp@@UAEPAXI@Z
  0000a	64 a1 00 00 00
	00		 mov	 eax, DWORD PTR fs:0
  00010	50		 push	 eax
  00011	53		 push	 ebx
  00012	56		 push	 esi
  00013	57		 push	 edi
  00014	a1 00 00 00 00	 mov	 eax, DWORD PTR ___security_cookie
  00019	33 c5		 xor	 eax, ebp
  0001b	50		 push	 eax
  0001c	8d 45 f4	 lea	 eax, DWORD PTR __$EHRec$[ebp]
  0001f	64 a3 00 00 00
	00		 mov	 DWORD PTR fs:0, eax
  00025	8b f1		 mov	 esi, ecx
  00027	8b 5d 08	 mov	 ebx, DWORD PTR ___flags$[ebp]
  0002a	f6 c3 02	 test	 bl, 2
  0002d	74 44		 je	 SHORT $LN2@vector
  0002f	68 00 00 00 00	 push	 OFFSET ??1i3Tcp@@UAE@XZ	; i3Tcp::~i3Tcp
  00034	ff 76 fc	 push	 DWORD PTR [esi-4]
  00037	8d 7e fc	 lea	 edi, DWORD PTR [esi-4]
  0003a	6a 14		 push	 20			; 00000014H
  0003c	56		 push	 esi
  0003d	e8 00 00 00 00	 call	 ??_M@YGXPAXIIP6EX0@Z@Z
  00042	f6 c3 01	 test	 bl, 1
  00045	74 16		 je	 SHORT $LN3@vector
  00047	8b 0f		 mov	 ecx, DWORD PTR [edi]
  00049	8d 0c 89	 lea	 ecx, DWORD PTR [ecx+ecx*4]
  0004c	8d 0c 8d 04 00
	00 00		 lea	 ecx, DWORD PTR [ecx*4+4]
  00053	51		 push	 ecx
  00054	57		 push	 edi
  00055	e8 00 00 00 00	 call	 ??_V@YAXPAXI@Z		; operator delete[]
  0005a	83 c4 08	 add	 esp, 8
$LN3@vector:
  0005d	8b c7		 mov	 eax, edi
  0005f	8b 4d f4	 mov	 ecx, DWORD PTR __$EHRec$[ebp]
  00062	64 89 0d 00 00
	00 00		 mov	 DWORD PTR fs:0, ecx
  00069	59		 pop	 ecx
  0006a	5f		 pop	 edi
  0006b	5e		 pop	 esi
  0006c	5b		 pop	 ebx
  0006d	8b e5		 mov	 esp, ebp
  0006f	5d		 pop	 ebp
  00070	c2 04 00	 ret	 4
$LN2@vector:

; 497  : 	if( m_Socket != INVALID_SOCKET)

  00073	8b 46 10	 mov	 eax, DWORD PTR [esi+16]
  00076	c7 06 00 00 00
	00		 mov	 DWORD PTR [esi], OFFSET ??_7i3Tcp@@6B@
  0007c	83 f8 ff	 cmp	 eax, -1
  0007f	74 19		 je	 SHORT $LN11@vector

; 518  : 	::shutdown( m_Socket, SD_BOTH); 

  00081	6a 02		 push	 2
  00083	50		 push	 eax
  00084	ff 15 00 00 00
	00		 call	 DWORD PTR __imp__shutdown@8

; 519  : 	::closesocket( m_Socket );

  0008a	ff 76 10	 push	 DWORD PTR [esi+16]
  0008d	ff 15 00 00 00
	00		 call	 DWORD PTR __imp__closesocket@4

; 520  : 	m_Socket = INVALID_SOCKET; 

  00093	c7 46 10 ff ff
	ff ff		 mov	 DWORD PTR [esi+16], -1
$LN11@vector:

; 501  : }

  0009a	8b ce		 mov	 ecx, esi
  0009c	e8 00 00 00 00	 call	 ??1i3ElementBase@@UAE@XZ ; i3ElementBase::~i3ElementBase
  000a1	f6 c3 01	 test	 bl, 1
  000a4	74 1b		 je	 SHORT $LN6@vector
  000a6	f6 c3 04	 test	 bl, 4
  000a9	75 0b		 jne	 SHORT $LN5@vector
  000ab	56		 push	 esi
  000ac	e8 00 00 00 00	 call	 ??3i3ElementBase@@SAXPAX@Z ; i3ElementBase::operator delete
  000b1	83 c4 04	 add	 esp, 4
  000b4	eb 0b		 jmp	 SHORT $LN6@vector
$LN5@vector:

  000b6	6a 14		 push	 20			; 00000014H
  000b8	56		 push	 esi
  000b9	e8 00 00 00 00	 call	 ??3@YAXPAXI@Z		; operator delete
  000be	83 c4 08	 add	 esp, 8
$LN6@vector:
  000c1	8b c6		 mov	 eax, esi
  000c3	8b 4d f4	 mov	 ecx, DWORD PTR __$EHRec$[ebp]
  000c6	64 89 0d 00 00
	00 00		 mov	 DWORD PTR fs:0, ecx
  000cd	59		 pop	 ecx
  000ce	5f		 pop	 edi
  000cf	5e		 pop	 esi
  000d0	5b		 pop	 ebx
  000d1	8b e5		 mov	 esp, ebp
  000d3	5d		 pop	 ebp
  000d4	c2 04 00	 ret	 4
  000d7	cc		 int	 3
  000d8	cc		 int	 3
  000d9	cc		 int	 3
  000da	cc		 int	 3
  000db	cc		 int	 3
_TEXT	ENDS
;	COMDAT text$x
text$x	SEGMENT
__ehhandler$??_Ei3Tcp@@UAEPAXI@Z:
  00000	90		 npad	 1
  00001	90		 npad	 1
  00002	8b 54 24 08	 mov	 edx, DWORD PTR [esp+8]
  00006	8d 42 0c	 lea	 eax, DWORD PTR [edx+12]
  00009	8b 4a f0	 mov	 ecx, DWORD PTR [edx-16]
  0000c	33 c8		 xor	 ecx, eax
  0000e	e8 00 00 00 00	 call	 @__security_check_cookie@4
  00013	b8 00 00 00 00	 mov	 eax, OFFSET __ehfuncinfo$??_Ei3Tcp@@UAEPAXI@Z
  00018	e9 00 00 00 00	 jmp	 ___CxxFrameHandler3
text$x	ENDS
??_Ei3Tcp@@UAEPAXI@Z ENDP				; i3Tcp::`vector deleting destructor'
; Function compile flags: /Ogtp
; File E:\Proyectos\JuegosOnlineproyectos\PB\pbblow\Piercing Blow Remake\i3Server\src\i3Base\i3Inet.cpp
;	COMDAT ??_Gi3Tcp@@UAEPAXI@Z
_TEXT	SEGMENT
___flags$ = 8						; size = 4
??_Gi3Tcp@@UAEPAXI@Z PROC				; i3Tcp::`scalar deleting destructor', COMDAT
; _this$ = ecx
  00000	55		 push	 ebp
  00001	8b ec		 mov	 ebp, esp

; 496  : {

  00003	56		 push	 esi
  00004	8b f1		 mov	 esi, ecx

; 497  : 	if( m_Socket != INVALID_SOCKET)

  00006	8b 46 10	 mov	 eax, DWORD PTR [esi+16]
  00009	c7 06 00 00 00
	00		 mov	 DWORD PTR [esi], OFFSET ??_7i3Tcp@@6B@
  0000f	83 f8 ff	 cmp	 eax, -1
  00012	74 19		 je	 SHORT $LN9@scalar

; 518  : 	::shutdown( m_Socket, SD_BOTH); 

  00014	6a 02		 push	 2
  00016	50		 push	 eax
  00017	ff 15 00 00 00
	00		 call	 DWORD PTR __imp__shutdown@8

; 519  : 	::closesocket( m_Socket );

  0001d	ff 76 10	 push	 DWORD PTR [esi+16]
  00020	ff 15 00 00 00
	00		 call	 DWORD PTR __imp__closesocket@4

; 520  : 	m_Socket = INVALID_SOCKET; 

  00026	c7 46 10 ff ff
	ff ff		 mov	 DWORD PTR [esi+16], -1
$LN9@scalar:

; 501  : }

  0002d	8b ce		 mov	 ecx, esi
  0002f	e8 00 00 00 00	 call	 ??1i3ElementBase@@UAE@XZ ; i3ElementBase::~i3ElementBase
  00034	8b 45 08	 mov	 eax, DWORD PTR ___flags$[ebp]
  00037	a8 01		 test	 al, 1
  00039	74 1f		 je	 SHORT $LN18@scalar
  0003b	a8 04		 test	 al, 4
  0003d	75 10		 jne	 SHORT $LN3@scalar
  0003f	56		 push	 esi
  00040	e8 00 00 00 00	 call	 ??3i3ElementBase@@SAXPAX@Z ; i3ElementBase::operator delete
  00045	83 c4 04	 add	 esp, 4
  00048	8b c6		 mov	 eax, esi
  0004a	5e		 pop	 esi
  0004b	5d		 pop	 ebp
  0004c	c2 04 00	 ret	 4
$LN3@scalar:

  0004f	6a 14		 push	 20			; 00000014H
  00051	56		 push	 esi
  00052	e8 00 00 00 00	 call	 ??3@YAXPAXI@Z		; operator delete
  00057	83 c4 08	 add	 esp, 8
$LN18@scalar:
  0005a	8b c6		 mov	 eax, esi
  0005c	5e		 pop	 esi
  0005d	5d		 pop	 ebp
  0005e	c2 04 00	 ret	 4
??_Gi3Tcp@@UAEPAXI@Z ENDP				; i3Tcp::`scalar deleting destructor'
_TEXT	ENDS
; Function compile flags: /Ogtp
;	COMDAT ??4i3Tcp@@QAEAAV0@ABV0@@Z
_TEXT	SEGMENT
___that$ = 8						; size = 4
??4i3Tcp@@QAEAAV0@ABV0@@Z PROC				; i3Tcp::operator=, COMDAT
; _this$ = ecx
  00000	55		 push	 ebp
  00001	8b ec		 mov	 ebp, esp
  00003	8b 55 08	 mov	 edx, DWORD PTR ___that$[ebp]
  00006	8b 42 04	 mov	 eax, DWORD PTR [edx+4]
  00009	89 41 04	 mov	 DWORD PTR [ecx+4], eax
  0000c	8b 42 08	 mov	 eax, DWORD PTR [edx+8]
  0000f	89 41 08	 mov	 DWORD PTR [ecx+8], eax
  00012	8b 42 0c	 mov	 eax, DWORD PTR [edx+12]
  00015	89 41 0c	 mov	 DWORD PTR [ecx+12], eax
  00018	8b 42 10	 mov	 eax, DWORD PTR [edx+16]
  0001b	89 41 10	 mov	 DWORD PTR [ecx+16], eax
  0001e	8b c1		 mov	 eax, ecx
  00020	5d		 pop	 ebp
  00021	c2 04 00	 ret	 4
??4i3Tcp@@QAEAAV0@ABV0@@Z ENDP				; i3Tcp::operator=
_TEXT	ENDS
; Function compile flags: /Ogtp
;	COMDAT ??0i3Tcp@@QAE@ABV0@@Z
_TEXT	SEGMENT
___that$ = 8						; size = 4
??0i3Tcp@@QAE@ABV0@@Z PROC				; i3Tcp::i3Tcp, COMDAT
; _this$ = ecx
  00000	55		 push	 ebp
  00001	8b ec		 mov	 ebp, esp
  00003	8b 55 08	 mov	 edx, DWORD PTR ___that$[ebp]
  00006	c7 01 00 00 00
	00		 mov	 DWORD PTR [ecx], OFFSET ??_7i3ElementBase@@6B@
  0000c	8b 42 04	 mov	 eax, DWORD PTR [edx+4]
  0000f	89 41 04	 mov	 DWORD PTR [ecx+4], eax
  00012	8b 42 08	 mov	 eax, DWORD PTR [edx+8]
  00015	89 41 08	 mov	 DWORD PTR [ecx+8], eax
  00018	8b 42 0c	 mov	 eax, DWORD PTR [edx+12]
  0001b	89 41 0c	 mov	 DWORD PTR [ecx+12], eax
  0001e	c7 01 00 00 00
	00		 mov	 DWORD PTR [ecx], OFFSET ??_7i3Tcp@@6B@
  00024	8b 42 10	 mov	 eax, DWORD PTR [edx+16]
  00027	89 41 10	 mov	 DWORD PTR [ecx+16], eax
  0002a	8b c1		 mov	 eax, ecx
  0002c	5d		 pop	 ebp
  0002d	c2 04 00	 ret	 4
??0i3Tcp@@QAE@ABV0@@Z ENDP				; i3Tcp::i3Tcp
_TEXT	ENDS
; Function compile flags: /Ogtp
; File E:\Proyectos\JuegosOnlineproyectos\PB\pbblow\Piercing Blow Remake\i3Server\src\i3Base\i3Inet.cpp
; File E:\Proyectos\JuegosOnlineproyectos\PB\pbblow\Piercing Blow Remake\i3Server\include\i3Base\i3Memory.h
; File E:\Proyectos\JuegosOnlineproyectos\PB\pbblow\Piercing Blow Remake\i3Server\src\i3Base\i3Inet.cpp
; File E:\Proyectos\JuegosOnlineproyectos\PB\pbblow\Piercing Blow Remake\i3Server\include\i3Base\i3Memory.h
; File E:\Proyectos\JuegosOnlineproyectos\PB\pbblow\Piercing Blow Remake\i3Server\src\i3Base\i3Inet.cpp
; File E:\Proyectos\JuegosOnlineproyectos\PB\pbblow\Piercing Blow Remake\i3Server\include\i3Base\i3Memory.h
; File E:\Proyectos\JuegosOnlineproyectos\PB\pbblow\Piercing Blow Remake\i3Server\src\i3Base\i3Inet.cpp
;	COMDAT ?GetName@i3Tcp@@QAEXPAUsockaddr@@@Z
_TEXT	SEGMENT
_len$ = -24						; size = 4
_addr$ = -20						; size = 16
__$ArrayPad$ = -4					; size = 4
_pLocal$ = 8						; size = 4
?GetName@i3Tcp@@QAEXPAUsockaddr@@@Z PROC		; i3Tcp::GetName, COMDAT
; _this$ = ecx

; 591  : {

  00000	55		 push	 ebp
  00001	8b ec		 mov	 ebp, esp
  00003	83 ec 18	 sub	 esp, 24			; 00000018H
  00006	a1 00 00 00 00	 mov	 eax, DWORD PTR ___security_cookie
  0000b	33 c5		 xor	 eax, ebp
  0000d	89 45 fc	 mov	 DWORD PTR __$ArrayPad$[ebp], eax
  00010	56		 push	 esi
  00011	8b 75 08	 mov	 esi, DWORD PTR _pLocal$[ebp]

; 592  : #ifdef I3_WINDOWS
; 593  : 	sockaddr	addr;
; 594  : 	INT32	len = sizeof( sockaddr );
; 595  : 
; 596  : 	if( ::getsockname( m_Socket, &addr, &len ) < 0 )

  00014	8d 45 e8	 lea	 eax, DWORD PTR _len$[ebp]
  00017	50		 push	 eax
  00018	8d 45 ec	 lea	 eax, DWORD PTR _addr$[ebp]
  0001b	c7 45 e8 10 00
	00 00		 mov	 DWORD PTR _len$[ebp], 16 ; 00000010H
  00022	50		 push	 eax
  00023	ff 71 10	 push	 DWORD PTR [ecx+16]
  00026	ff 15 00 00 00
	00		 call	 DWORD PTR __imp__getsockname@12
  0002c	85 c0		 test	 eax, eax
  0002e	79 06		 jns	 SHORT $LN2@GetName

; 181  : 	ErrorId = WSAGetLastError();

  00030	ff 15 00 00 00
	00		 call	 DWORD PTR __imp__WSAGetLastError@0
$LN2@GetName:
; File E:\Proyectos\JuegosOnlineproyectos\PB\pbblow\Piercing Blow Remake\i3Server\include\i3Base\i3Memory.h

; 134  : 			::CopyMemory( pDest, pSrc, sz);

  00036	8b 45 ec	 mov	 eax, DWORD PTR _addr$[ebp]
; File E:\Proyectos\JuegosOnlineproyectos\PB\pbblow\Piercing Blow Remake\i3Server\src\i3Base\i3Inet.cpp

; 604  : }

  00039	8b 4d fc	 mov	 ecx, DWORD PTR __$ArrayPad$[ebp]
; File E:\Proyectos\JuegosOnlineproyectos\PB\pbblow\Piercing Blow Remake\i3Server\include\i3Base\i3Memory.h

; 134  : 			::CopyMemory( pDest, pSrc, sz);

  0003c	89 06		 mov	 DWORD PTR [esi], eax
; File E:\Proyectos\JuegosOnlineproyectos\PB\pbblow\Piercing Blow Remake\i3Server\src\i3Base\i3Inet.cpp

; 604  : }

  0003e	33 cd		 xor	 ecx, ebp
; File E:\Proyectos\JuegosOnlineproyectos\PB\pbblow\Piercing Blow Remake\i3Server\include\i3Base\i3Memory.h

; 134  : 			::CopyMemory( pDest, pSrc, sz);

  00040	8b 45 f0	 mov	 eax, DWORD PTR _addr$[ebp+4]
  00043	89 46 04	 mov	 DWORD PTR [esi+4], eax
  00046	8b 45 f4	 mov	 eax, DWORD PTR _addr$[ebp+8]
  00049	89 46 08	 mov	 DWORD PTR [esi+8], eax
  0004c	8b 45 f8	 mov	 eax, DWORD PTR _addr$[ebp+12]
  0004f	89 46 0c	 mov	 DWORD PTR [esi+12], eax
  00052	5e		 pop	 esi
; File E:\Proyectos\JuegosOnlineproyectos\PB\pbblow\Piercing Blow Remake\i3Server\src\i3Base\i3Inet.cpp

; 604  : }

  00053	e8 00 00 00 00	 call	 @__security_check_cookie@4
  00058	8b e5		 mov	 esp, ebp
  0005a	5d		 pop	 ebp
  0005b	c2 04 00	 ret	 4
?GetName@i3Tcp@@QAEXPAUsockaddr@@@Z ENDP		; i3Tcp::GetName
_TEXT	ENDS
; Function compile flags: /Ogtp
; File E:\Proyectos\JuegosOnlineproyectos\PB\pbblow\Piercing Blow Remake\i3Server\src\i3Base\i3Inet.cpp
;	COMDAT ?Recv@i3Tcp@@QAEHPADHH@Z
_TEXT	SEGMENT
_pBuffer$ = 8						; size = 4
_Byte$ = 12						; size = 4
_flags$ = 16						; size = 4
?Recv@i3Tcp@@QAEHPADHH@Z PROC				; i3Tcp::Recv, COMDAT
; _this$ = ecx

; 582  : {

  00000	55		 push	 ebp
  00001	8b ec		 mov	 ebp, esp

; 583  : 	INT32 Rv = -1; 
; 584  : #ifdef I3_WINDOWS
; 585  : 	Rv = ::recv(m_Socket, pBuffer, Byte, flags); 

  00003	ff 75 10	 push	 DWORD PTR _flags$[ebp]
  00006	ff 75 0c	 push	 DWORD PTR _Byte$[ebp]
  00009	ff 75 08	 push	 DWORD PTR _pBuffer$[ebp]
  0000c	ff 71 10	 push	 DWORD PTR [ecx+16]
  0000f	ff 15 00 00 00
	00		 call	 DWORD PTR __imp__recv@16

; 586  : #endif
; 587  : 	return Rv; 
; 588  : }

  00015	5d		 pop	 ebp
  00016	c2 0c 00	 ret	 12			; 0000000cH
?Recv@i3Tcp@@QAEHPADHH@Z ENDP				; i3Tcp::Recv
_TEXT	ENDS
; Function compile flags: /Ogtp
; File E:\Proyectos\JuegosOnlineproyectos\PB\pbblow\Piercing Blow Remake\i3Server\src\i3Base\i3Inet.cpp
;	COMDAT ?Send@i3Tcp@@QAEHPBDHH@Z
_TEXT	SEGMENT
_pBuffer$ = 8						; size = 4
_Byte$ = 12						; size = 4
_flags$ = 16						; size = 4
?Send@i3Tcp@@QAEHPBDHH@Z PROC				; i3Tcp::Send, COMDAT
; _this$ = ecx

; 573  : {

  00000	55		 push	 ebp
  00001	8b ec		 mov	 ebp, esp

; 574  : 	INT32 i32Rv = -1;
; 575  : #ifdef I3_WINDOWS
; 576  : 	i32Rv = ::send(m_Socket, pBuffer, Byte, flags); 

  00003	ff 75 10	 push	 DWORD PTR _flags$[ebp]
  00006	ff 75 0c	 push	 DWORD PTR _Byte$[ebp]
  00009	ff 75 08	 push	 DWORD PTR _pBuffer$[ebp]
  0000c	ff 71 10	 push	 DWORD PTR [ecx+16]
  0000f	ff 15 00 00 00
	00		 call	 DWORD PTR __imp__send@16

; 577  : #endif
; 578  : 	return i32Rv; 
; 579  : }

  00015	5d		 pop	 ebp
  00016	c2 0c 00	 ret	 12			; 0000000cH
?Send@i3Tcp@@QAEHPBDHH@Z ENDP				; i3Tcp::Send
_TEXT	ENDS
; Function compile flags: /Ogtp
; File E:\Proyectos\JuegosOnlineproyectos\PB\pbblow\Piercing Blow Remake\i3Server\src\i3Base\i3Inet.cpp
; File C:\Program Files (x86)\Windows Kits\10\Include\10.0.26100.0\um\winnt.h
; File E:\Proyectos\JuegosOnlineproyectos\PB\pbblow\Piercing Blow Remake\i3Server\include\i3Base\i3Memory.h
; File C:\Program Files (x86)\Windows Kits\10\Include\10.0.26100.0\um\winnt.h
; File E:\Proyectos\JuegosOnlineproyectos\PB\pbblow\Piercing Blow Remake\i3Server\src\i3Base\i3Inet.cpp
;	COMDAT ?Connect@i3Tcp@@QAEHIG@Z
_TEXT	SEGMENT
_serv_addr$ = -20					; size = 16
__$ArrayPad$ = -4					; size = 4
_Address$ = 8						; size = 4
_PortNo$ = 12						; size = 2
?Connect@i3Tcp@@QAEHIG@Z PROC				; i3Tcp::Connect, COMDAT
; _this$ = ecx

; 549  : {

  00000	55		 push	 ebp
  00001	8b ec		 mov	 ebp, esp
  00003	83 ec 14	 sub	 esp, 20			; 00000014H
  00006	a1 00 00 00 00	 mov	 eax, DWORD PTR ___security_cookie
  0000b	33 c5		 xor	 eax, ebp
  0000d	89 45 fc	 mov	 DWORD PTR __$ArrayPad$[ebp], eax
  00010	56		 push	 esi
  00011	8b f1		 mov	 esi, ecx
; File C:\Program Files (x86)\Windows Kits\10\Include\10.0.26100.0\um\winnt.h

; 23413:     volatile char *vptr = (volatile char *)ptr;

  00013	8d 45 ec	 lea	 eax, DWORD PTR _serv_addr$[ebp]
; File E:\Proyectos\JuegosOnlineproyectos\PB\pbblow\Piercing Blow Remake\i3Server\include\i3Base\i3Memory.h

; 144  : 			::SecureZeroMemory( pDest, sz);

  00016	ba 10 00 00 00	 mov	 edx, 16			; 00000010H
  0001b	eb 03 8d 49 00	 npad	 5
$LL7@Connect:
; File C:\Program Files (x86)\Windows Kits\10\Include\10.0.26100.0\um\winnt.h

; 23429:         *vptr = 0;

  00020	c6 00 00	 mov	 BYTE PTR [eax], 0

; 23430: 
; 23431: #endif
; 23432: 
; 23433:         vptr++;

  00023	8d 40 01	 lea	 eax, DWORD PTR [eax+1]

; 23434:         cnt--;

  00026	83 ea 01	 sub	 edx, 1
  00029	75 f5		 jne	 SHORT $LL7@Connect
; File E:\Proyectos\JuegosOnlineproyectos\PB\pbblow\Piercing Blow Remake\i3Server\src\i3Base\i3Inet.cpp

; 557  : 	serv_addr.sin_family		= AF_INET; 

  0002b	ff 75 0c	 push	 DWORD PTR _PortNo$[ebp]
  0002e	b8 02 00 00 00	 mov	 eax, 2
  00033	66 89 45 ec	 mov	 WORD PTR _serv_addr$[ebp], ax

; 558  : 	serv_addr.sin_addr.s_addr	= Address; 

  00037	8b 45 08	 mov	 eax, DWORD PTR _Address$[ebp]
  0003a	89 45 f0	 mov	 DWORD PTR _serv_addr$[ebp+4], eax

; 559  : 	serv_addr.sin_port			= htons( PortNo ); 

  0003d	ff 15 00 00 00
	00		 call	 DWORD PTR __imp__htons@4
  00043	66 89 45 ee	 mov	 WORD PTR _serv_addr$[ebp+2], ax

; 560  : 
; 561  : 	if( ::connect(m_Socket, (struct sockaddr *)&serv_addr, sizeof(serv_addr) ) != 0)

  00047	8d 45 ec	 lea	 eax, DWORD PTR _serv_addr$[ebp]
  0004a	6a 10		 push	 16			; 00000010H
  0004c	50		 push	 eax
  0004d	ff 76 10	 push	 DWORD PTR [esi+16]
  00050	ff 15 00 00 00
	00		 call	 DWORD PTR __imp__connect@12
  00056	5e		 pop	 esi
  00057	85 c0		 test	 eax, eax
  00059	74 18		 je	 SHORT $LN2@Connect

; 181  : 	ErrorId = WSAGetLastError();

  0005b	ff 15 00 00 00
	00		 call	 DWORD PTR __imp__WSAGetLastError@0

; 562  : 	{
; 563  : 		i3Net::GetError("[i3Tcp::Connect] Connect Failed");
; 564  : 		return FALSE;
; 565  : 	}
; 566  : #endif
; 567  : 
; 568  : 	return TRUE; 
; 569  : }

  00061	33 c0		 xor	 eax, eax
  00063	8b 4d fc	 mov	 ecx, DWORD PTR __$ArrayPad$[ebp]
  00066	33 cd		 xor	 ecx, ebp
  00068	e8 00 00 00 00	 call	 @__security_check_cookie@4
  0006d	8b e5		 mov	 esp, ebp
  0006f	5d		 pop	 ebp
  00070	c2 08 00	 ret	 8
$LN2@Connect:
  00073	8b 4d fc	 mov	 ecx, DWORD PTR __$ArrayPad$[ebp]
  00076	b8 01 00 00 00	 mov	 eax, 1
  0007b	33 cd		 xor	 ecx, ebp
  0007d	e8 00 00 00 00	 call	 @__security_check_cookie@4
  00082	8b e5		 mov	 esp, ebp
  00084	5d		 pop	 ebp
  00085	c2 08 00	 ret	 8
?Connect@i3Tcp@@QAEHIG@Z ENDP				; i3Tcp::Connect
_TEXT	ENDS
; Function compile flags: /Ogtp
; File E:\Proyectos\JuegosOnlineproyectos\PB\pbblow\Piercing Blow Remake\i3Server\src\i3Base\i3Inet.cpp
; File C:\Program Files (x86)\Windows Kits\10\Include\10.0.26100.0\um\winnt.h
; File E:\Proyectos\JuegosOnlineproyectos\PB\pbblow\Piercing Blow Remake\i3Server\src\i3Base\i3Inet.cpp
; File E:\Proyectos\JuegosOnlineproyectos\PB\pbblow\Piercing Blow Remake\i3Server\include\i3Base\i3Memory.h
; File C:\Program Files (x86)\Windows Kits\10\Include\10.0.26100.0\um\winnt.h
; File E:\Proyectos\JuegosOnlineproyectos\PB\pbblow\Piercing Blow Remake\i3Server\src\i3Base\i3Inet.cpp
;	COMDAT ?Connect@i3Tcp@@QAEHPBDG@Z
_TEXT	SEGMENT
_serv_addr$ = -20					; size = 16
__$ArrayPad$ = -4					; size = 4
_pAddress$ = 8						; size = 4
_PortNo$ = 12						; size = 2
?Connect@i3Tcp@@QAEHPBDG@Z PROC				; i3Tcp::Connect, COMDAT
; _this$ = ecx

; 526  : {

  00000	55		 push	 ebp
  00001	8b ec		 mov	 ebp, esp
  00003	83 ec 14	 sub	 esp, 20			; 00000014H
  00006	a1 00 00 00 00	 mov	 eax, DWORD PTR ___security_cookie
  0000b	33 c5		 xor	 eax, ebp
  0000d	89 45 fc	 mov	 DWORD PTR __$ArrayPad$[ebp], eax
  00010	56		 push	 esi
  00011	8b f1		 mov	 esi, ecx
; File C:\Program Files (x86)\Windows Kits\10\Include\10.0.26100.0\um\winnt.h

; 23413:     volatile char *vptr = (volatile char *)ptr;

  00013	8d 45 ec	 lea	 eax, DWORD PTR _serv_addr$[ebp]
; File E:\Proyectos\JuegosOnlineproyectos\PB\pbblow\Piercing Blow Remake\i3Server\src\i3Base\i3Inet.cpp

; 526  : {

  00016	8b 4d 08	 mov	 ecx, DWORD PTR _pAddress$[ebp]
; File E:\Proyectos\JuegosOnlineproyectos\PB\pbblow\Piercing Blow Remake\i3Server\include\i3Base\i3Memory.h

; 144  : 			::SecureZeroMemory( pDest, sz);

  00019	ba 10 00 00 00	 mov	 edx, 16			; 00000010H
  0001e	8b ff		 npad	 2
$LL7@Connect:
; File C:\Program Files (x86)\Windows Kits\10\Include\10.0.26100.0\um\winnt.h

; 23429:         *vptr = 0;

  00020	c6 00 00	 mov	 BYTE PTR [eax], 0

; 23430: 
; 23431: #endif
; 23432: 
; 23433:         vptr++;

  00023	8d 40 01	 lea	 eax, DWORD PTR [eax+1]

; 23434:         cnt--;

  00026	83 ea 01	 sub	 edx, 1
  00029	75 f5		 jne	 SHORT $LL7@Connect
; File E:\Proyectos\JuegosOnlineproyectos\PB\pbblow\Piercing Blow Remake\i3Server\src\i3Base\i3Inet.cpp

; 535  : 	serv_addr.sin_addr.s_addr	= ::inet_addr(pAddress); 

  0002b	b8 02 00 00 00	 mov	 eax, 2
  00030	51		 push	 ecx
  00031	66 89 45 ec	 mov	 WORD PTR _serv_addr$[ebp], ax
  00035	ff 15 00 00 00
	00		 call	 DWORD PTR __imp__inet_addr@4

; 536  : 	serv_addr.sin_port			= htons( PortNo ); 

  0003b	ff 75 0c	 push	 DWORD PTR _PortNo$[ebp]
  0003e	89 45 f0	 mov	 DWORD PTR _serv_addr$[ebp+4], eax
  00041	ff 15 00 00 00
	00		 call	 DWORD PTR __imp__htons@4
  00047	66 89 45 ee	 mov	 WORD PTR _serv_addr$[ebp+2], ax

; 537  : 
; 538  : 	if( ::connect(m_Socket, (struct sockaddr *)&serv_addr, sizeof(serv_addr) ) != 0)

  0004b	8d 45 ec	 lea	 eax, DWORD PTR _serv_addr$[ebp]
  0004e	6a 10		 push	 16			; 00000010H
  00050	50		 push	 eax
  00051	ff 76 10	 push	 DWORD PTR [esi+16]
  00054	ff 15 00 00 00
	00		 call	 DWORD PTR __imp__connect@12
  0005a	5e		 pop	 esi
  0005b	85 c0		 test	 eax, eax
  0005d	74 18		 je	 SHORT $LN2@Connect

; 181  : 	ErrorId = WSAGetLastError();

  0005f	ff 15 00 00 00
	00		 call	 DWORD PTR __imp__WSAGetLastError@0

; 539  : 	{
; 540  : 		i3Net::GetError("[i3Tcp::Connect] Connect Failed");
; 541  : 		return FALSE;
; 542  : 	}
; 543  : #endif
; 544  : 
; 545  : 	return TRUE; 
; 546  : }

  00065	33 c0		 xor	 eax, eax
  00067	8b 4d fc	 mov	 ecx, DWORD PTR __$ArrayPad$[ebp]
  0006a	33 cd		 xor	 ecx, ebp
  0006c	e8 00 00 00 00	 call	 @__security_check_cookie@4
  00071	8b e5		 mov	 esp, ebp
  00073	5d		 pop	 ebp
  00074	c2 08 00	 ret	 8
$LN2@Connect:
  00077	8b 4d fc	 mov	 ecx, DWORD PTR __$ArrayPad$[ebp]
  0007a	b8 01 00 00 00	 mov	 eax, 1
  0007f	33 cd		 xor	 ecx, ebp
  00081	e8 00 00 00 00	 call	 @__security_check_cookie@4
  00086	8b e5		 mov	 esp, ebp
  00088	5d		 pop	 ebp
  00089	c2 08 00	 ret	 8
?Connect@i3Tcp@@QAEHPBDG@Z ENDP				; i3Tcp::Connect
_TEXT	ENDS
; Function compile flags: /Ogtp
; File E:\Proyectos\JuegosOnlineproyectos\PB\pbblow\Piercing Blow Remake\i3Server\src\i3Base\i3Inet.cpp
;	COMDAT ??1i3Tcp@@UAE@XZ
_TEXT	SEGMENT
??1i3Tcp@@UAE@XZ PROC					; i3Tcp::~i3Tcp, COMDAT
; _this$ = ecx

; 496  : {

  00000	56		 push	 esi
  00001	8b f1		 mov	 esi, ecx

; 497  : 	if( m_Socket != INVALID_SOCKET)

  00003	8b 46 10	 mov	 eax, DWORD PTR [esi+16]
  00006	c7 06 00 00 00
	00		 mov	 DWORD PTR [esi], OFFSET ??_7i3Tcp@@6B@
  0000c	83 f8 ff	 cmp	 eax, -1
  0000f	74 19		 je	 SHORT $LN2@i3Tcp

; 518  : 	::shutdown( m_Socket, SD_BOTH); 

  00011	6a 02		 push	 2
  00013	50		 push	 eax
  00014	ff 15 00 00 00
	00		 call	 DWORD PTR __imp__shutdown@8

; 519  : 	::closesocket( m_Socket );

  0001a	ff 76 10	 push	 DWORD PTR [esi+16]
  0001d	ff 15 00 00 00
	00		 call	 DWORD PTR __imp__closesocket@4

; 520  : 	m_Socket = INVALID_SOCKET; 

  00023	c7 46 10 ff ff
	ff ff		 mov	 DWORD PTR [esi+16], -1
$LN2@i3Tcp:

; 498  : 	{
; 499  : 		DeleteSocket();
; 500  : 	}
; 501  : }

  0002a	8b ce		 mov	 ecx, esi
  0002c	5e		 pop	 esi
  0002d	e9 00 00 00 00	 jmp	 ??1i3ElementBase@@UAE@XZ ; i3ElementBase::~i3ElementBase
??1i3Tcp@@UAE@XZ ENDP					; i3Tcp::~i3Tcp
_TEXT	ENDS
; Function compile flags: /Ogtp
; File E:\Proyectos\JuegosOnlineproyectos\PB\pbblow\Piercing Blow Remake\i3Server\src\i3Base\i3Inet.cpp
;	COMDAT ??0i3Tcp@@QAE@XZ
_TEXT	SEGMENT
_this$ = -4						; size = 4
??0i3Tcp@@QAE@XZ PROC					; i3Tcp::i3Tcp, COMDAT
; _this$ = ecx

; 490  : {

  00000	55		 push	 ebp
  00001	8b ec		 mov	 ebp, esp
  00003	51		 push	 ecx
  00004	56		 push	 esi
  00005	8b f1		 mov	 esi, ecx
  00007	89 75 fc	 mov	 DWORD PTR _this$[ebp], esi
  0000a	e8 00 00 00 00	 call	 ??0i3ElementBase@@QAE@XZ ; i3ElementBase::i3ElementBase

; 510  : 	m_Socket = ::socket(AF_INET, SOCK_STREAM, 0); 

  0000f	6a 00		 push	 0
  00011	6a 01		 push	 1
  00013	6a 02		 push	 2

; 490  : {

  00015	c7 06 00 00 00
	00		 mov	 DWORD PTR [esi], OFFSET ??_7i3Tcp@@6B@

; 491  : 	m_Socket = INVALID_SOCKET; 

  0001b	c7 46 10 ff ff
	ff ff		 mov	 DWORD PTR [esi+16], -1

; 510  : 	m_Socket = ::socket(AF_INET, SOCK_STREAM, 0); 

  00022	ff 15 00 00 00
	00		 call	 DWORD PTR __imp__socket@12
  00028	89 46 10	 mov	 DWORD PTR [esi+16], eax

; 492  : 	CreateSocket(); 
; 493  : }

  0002b	8b c6		 mov	 eax, esi
  0002d	5e		 pop	 esi
  0002e	8b e5		 mov	 esp, ebp
  00030	5d		 pop	 ebp
  00031	c3		 ret	 0
??0i3Tcp@@QAE@XZ ENDP					; i3Tcp::i3Tcp
_TEXT	ENDS
; Function compile flags: /Ogtp
; File E:\Proyectos\JuegosOnlineproyectos\PB\pbblow\Piercing Blow Remake\i3Server\src\i3Base\i3Inet.cpp
;	COMDAT ?DeleteSocket@i3Tcp@@IAEXXZ
_TEXT	SEGMENT
?DeleteSocket@i3Tcp@@IAEXXZ PROC			; i3Tcp::DeleteSocket, COMDAT
; _this$ = ecx

; 516  : {

  00000	56		 push	 esi
  00001	8b f1		 mov	 esi, ecx

; 517  : #ifdef I3_WINDOWS
; 518  : 	::shutdown( m_Socket, SD_BOTH); 

  00003	6a 02		 push	 2
  00005	ff 76 10	 push	 DWORD PTR [esi+16]
  00008	ff 15 00 00 00
	00		 call	 DWORD PTR __imp__shutdown@8

; 519  : 	::closesocket( m_Socket );

  0000e	ff 76 10	 push	 DWORD PTR [esi+16]
  00011	ff 15 00 00 00
	00		 call	 DWORD PTR __imp__closesocket@4

; 520  : 	m_Socket = INVALID_SOCKET; 

  00017	c7 46 10 ff ff
	ff ff		 mov	 DWORD PTR [esi+16], -1
  0001e	5e		 pop	 esi

; 521  : #endif
; 522  : 	return; 
; 523  : }

  0001f	c3		 ret	 0
?DeleteSocket@i3Tcp@@IAEXXZ ENDP			; i3Tcp::DeleteSocket
_TEXT	ENDS
; Function compile flags: /Ogtp
; File E:\Proyectos\JuegosOnlineproyectos\PB\pbblow\Piercing Blow Remake\i3Server\src\i3Base\i3Inet.cpp
;	COMDAT ?CreateSocket@i3Tcp@@IAEIXZ
_TEXT	SEGMENT
?CreateSocket@i3Tcp@@IAEIXZ PROC			; i3Tcp::CreateSocket, COMDAT
; _this$ = ecx

; 504  : {

  00000	56		 push	 esi

; 505  : #ifdef I3_WINDOWS
; 506  : 	#ifdef I3_DEBUG
; 507  : 	if(m_Socket != INVALID_SOCKET)I3ASSERT_0; 	
; 508  : 	#endif
; 509  : 
; 510  : 	m_Socket = ::socket(AF_INET, SOCK_STREAM, 0); 

  00001	6a 00		 push	 0
  00003	6a 01		 push	 1
  00005	6a 02		 push	 2
  00007	8b f1		 mov	 esi, ecx
  00009	ff 15 00 00 00
	00		 call	 DWORD PTR __imp__socket@12
  0000f	89 46 10	 mov	 DWORD PTR [esi+16], eax

; 511  : #endif
; 512  : 	return m_Socket; 

  00012	5e		 pop	 esi

; 513  : }

  00013	c3		 ret	 0
?CreateSocket@i3Tcp@@IAEIXZ ENDP			; i3Tcp::CreateSocket
_TEXT	ENDS
; Function compile flags: /Ogtp
; File E:\Proyectos\JuegosOnlineproyectos\PB\pbblow\Piercing Blow Remake\i3Server\src\i3Base\i3Inet.cpp
;	COMDAT ?_BindObjectRefByType@i3Tcp@@SAPAV1@PAXW4I3_CLASSMETA_TYPE@@@Z
_TEXT	SEGMENT
_pBuf$ = 8						; size = 4
_type$ = 12						; size = 4
?_BindObjectRefByType@i3Tcp@@SAPAV1@PAXW4I3_CLASSMETA_TYPE@@@Z PROC ; i3Tcp::_BindObjectRefByType, COMDAT

; 5    : I3_CLASS_INSTANCE( i3Tcp, i3ElementBase);

  00000	55		 push	 ebp
  00001	8b ec		 mov	 ebp, esp
  00003	8b 0d 00 00 00
	00		 mov	 ecx, DWORD PTR ?s_pClassMetai3Tcp@i3Tcp@@2PAVi3ClassMeta@@A ; i3Tcp::s_pClassMetai3Tcp
  00009	ff 75 0c	 push	 DWORD PTR _type$[ebp]
  0000c	ff 75 08	 push	 DWORD PTR _pBuf$[ebp]
  0000f	8b 01		 mov	 eax, DWORD PTR [ecx]
  00011	ff 50 08	 call	 DWORD PTR [eax+8]
  00014	5d		 pop	 ebp
  00015	c3		 ret	 0
?_BindObjectRefByType@i3Tcp@@SAPAV1@PAXW4I3_CLASSMETA_TYPE@@@Z ENDP ; i3Tcp::_BindObjectRefByType
_TEXT	ENDS
; Function compile flags: /Ogtp
; File E:\Proyectos\JuegosOnlineproyectos\PB\pbblow\Piercing Blow Remake\i3Server\src\i3Base\i3Inet.cpp
; File E:\Proyectos\JuegosOnlineproyectos\PB\pbblow\Piercing Blow Remake\i3Server\include\i3Base\i3ElementBase.h
; File E:\Proyectos\JuegosOnlineproyectos\PB\pbblow\Piercing Blow Remake\i3Server\src\i3Base\i3Inet.cpp
;	COMDAT ?_BindObjectByType@i3Tcp@@SAPAV1@PAXW4I3_CLASSMETA_TYPE@@@Z
_TEXT	SEGMENT
_pBuf$ = 8						; size = 4
_type$ = 12						; size = 4
?_BindObjectByType@i3Tcp@@SAPAV1@PAXW4I3_CLASSMETA_TYPE@@@Z PROC ; i3Tcp::_BindObjectByType, COMDAT

; 5    : I3_CLASS_INSTANCE( i3Tcp, i3ElementBase);

  00000	55		 push	 ebp
  00001	8b ec		 mov	 ebp, esp
  00003	8b 0d 00 00 00
	00		 mov	 ecx, DWORD PTR ?s_pClassMetai3Tcp@i3Tcp@@2PAVi3ClassMeta@@A ; i3Tcp::s_pClassMetai3Tcp
  00009	ff 75 0c	 push	 DWORD PTR _type$[ebp]
  0000c	ff 75 08	 push	 DWORD PTR _pBuf$[ebp]
  0000f	8b 01		 mov	 eax, DWORD PTR [ecx]
  00011	ff 50 08	 call	 DWORD PTR [eax+8]
; File E:\Proyectos\JuegosOnlineproyectos\PB\pbblow\Piercing Blow Remake\i3Server\include\i3Base\i3ElementBase.h

; 392  : 		m_RefCount++;

  00014	ff 40 04	 inc	 DWORD PTR [eax+4]
; File E:\Proyectos\JuegosOnlineproyectos\PB\pbblow\Piercing Blow Remake\i3Server\src\i3Base\i3Inet.cpp

; 5    : I3_CLASS_INSTANCE( i3Tcp, i3ElementBase);

  00017	5d		 pop	 ebp
  00018	c3		 ret	 0
?_BindObjectByType@i3Tcp@@SAPAV1@PAXW4I3_CLASSMETA_TYPE@@@Z ENDP ; i3Tcp::_BindObjectByType
_TEXT	ENDS
; Function compile flags: /Ogtp
; File E:\Proyectos\JuegosOnlineproyectos\PB\pbblow\Piercing Blow Remake\i3Server\src\i3Base\i3Inet.cpp
;	COMDAT ?_NewObjectRefByType@i3Tcp@@SAPAV1@W4I3_CLASSMETA_TYPE@@@Z
_TEXT	SEGMENT
_type$ = 8						; size = 4
?_NewObjectRefByType@i3Tcp@@SAPAV1@W4I3_CLASSMETA_TYPE@@@Z PROC ; i3Tcp::_NewObjectRefByType, COMDAT

; 5    : I3_CLASS_INSTANCE( i3Tcp, i3ElementBase);

  00000	55		 push	 ebp
  00001	8b ec		 mov	 ebp, esp
  00003	8b 0d 00 00 00
	00		 mov	 ecx, DWORD PTR ?s_pClassMetai3Tcp@i3Tcp@@2PAVi3ClassMeta@@A ; i3Tcp::s_pClassMetai3Tcp
  00009	ff 75 08	 push	 DWORD PTR _type$[ebp]
  0000c	8b 01		 mov	 eax, DWORD PTR [ecx]
  0000e	ff 50 04	 call	 DWORD PTR [eax+4]
  00011	5d		 pop	 ebp
  00012	c3		 ret	 0
?_NewObjectRefByType@i3Tcp@@SAPAV1@W4I3_CLASSMETA_TYPE@@@Z ENDP ; i3Tcp::_NewObjectRefByType
_TEXT	ENDS
; Function compile flags: /Ogtp
; File E:\Proyectos\JuegosOnlineproyectos\PB\pbblow\Piercing Blow Remake\i3Server\src\i3Base\i3Inet.cpp
; File E:\Proyectos\JuegosOnlineproyectos\PB\pbblow\Piercing Blow Remake\i3Server\include\i3Base\i3ElementBase.h
; File E:\Proyectos\JuegosOnlineproyectos\PB\pbblow\Piercing Blow Remake\i3Server\src\i3Base\i3Inet.cpp
;	COMDAT ?_NewObjectByType@i3Tcp@@SAPAV1@W4I3_CLASSMETA_TYPE@@@Z
_TEXT	SEGMENT
_type$ = 8						; size = 4
?_NewObjectByType@i3Tcp@@SAPAV1@W4I3_CLASSMETA_TYPE@@@Z PROC ; i3Tcp::_NewObjectByType, COMDAT

; 5    : I3_CLASS_INSTANCE( i3Tcp, i3ElementBase);

  00000	55		 push	 ebp
  00001	8b ec		 mov	 ebp, esp
  00003	8b 0d 00 00 00
	00		 mov	 ecx, DWORD PTR ?s_pClassMetai3Tcp@i3Tcp@@2PAVi3ClassMeta@@A ; i3Tcp::s_pClassMetai3Tcp
  00009	ff 75 08	 push	 DWORD PTR _type$[ebp]
  0000c	8b 01		 mov	 eax, DWORD PTR [ecx]
  0000e	ff 50 04	 call	 DWORD PTR [eax+4]
; File E:\Proyectos\JuegosOnlineproyectos\PB\pbblow\Piercing Blow Remake\i3Server\include\i3Base\i3ElementBase.h

; 392  : 		m_RefCount++;

  00011	ff 40 04	 inc	 DWORD PTR [eax+4]
; File E:\Proyectos\JuegosOnlineproyectos\PB\pbblow\Piercing Blow Remake\i3Server\src\i3Base\i3Inet.cpp

; 5    : I3_CLASS_INSTANCE( i3Tcp, i3ElementBase);

  00014	5d		 pop	 ebp
  00015	c3		 ret	 0
?_NewObjectByType@i3Tcp@@SAPAV1@W4I3_CLASSMETA_TYPE@@@Z ENDP ; i3Tcp::_NewObjectByType
_TEXT	ENDS
; Function compile flags: /Ogtp
; File E:\Proyectos\JuegosOnlineproyectos\PB\pbblow\Piercing Blow Remake\i3Server\src\i3Base\i3Inet.cpp
;	COMDAT ?_BindObjectRef@i3Tcp@@SAPAV1@PAX@Z
_TEXT	SEGMENT
_pBuf$ = 8						; size = 4
?_BindObjectRef@i3Tcp@@SAPAV1@PAX@Z PROC		; i3Tcp::_BindObjectRef, COMDAT

; 5    : I3_CLASS_INSTANCE( i3Tcp, i3ElementBase);

  00000	55		 push	 ebp
  00001	8b ec		 mov	 ebp, esp
  00003	8b 0d 00 00 00
	00		 mov	 ecx, DWORD PTR ?s_pClassMetai3Tcp@i3Tcp@@2PAVi3ClassMeta@@A ; i3Tcp::s_pClassMetai3Tcp
  00009	6a 00		 push	 0
  0000b	ff 75 08	 push	 DWORD PTR _pBuf$[ebp]
  0000e	8b 01		 mov	 eax, DWORD PTR [ecx]
  00010	ff 50 08	 call	 DWORD PTR [eax+8]
  00013	5d		 pop	 ebp
  00014	c3		 ret	 0
?_BindObjectRef@i3Tcp@@SAPAV1@PAX@Z ENDP		; i3Tcp::_BindObjectRef
_TEXT	ENDS
; Function compile flags: /Ogtp
; File E:\Proyectos\JuegosOnlineproyectos\PB\pbblow\Piercing Blow Remake\i3Server\src\i3Base\i3Inet.cpp
; File E:\Proyectos\JuegosOnlineproyectos\PB\pbblow\Piercing Blow Remake\i3Server\include\i3Base\i3ElementBase.h
; File E:\Proyectos\JuegosOnlineproyectos\PB\pbblow\Piercing Blow Remake\i3Server\src\i3Base\i3Inet.cpp
;	COMDAT ?_BindObject@i3Tcp@@SAPAV1@PAX@Z
_TEXT	SEGMENT
_pBuf$ = 8						; size = 4
?_BindObject@i3Tcp@@SAPAV1@PAX@Z PROC			; i3Tcp::_BindObject, COMDAT

; 5    : I3_CLASS_INSTANCE( i3Tcp, i3ElementBase);

  00000	55		 push	 ebp
  00001	8b ec		 mov	 ebp, esp
  00003	8b 0d 00 00 00
	00		 mov	 ecx, DWORD PTR ?s_pClassMetai3Tcp@i3Tcp@@2PAVi3ClassMeta@@A ; i3Tcp::s_pClassMetai3Tcp
  00009	6a 00		 push	 0
  0000b	ff 75 08	 push	 DWORD PTR _pBuf$[ebp]
  0000e	8b 01		 mov	 eax, DWORD PTR [ecx]
  00010	ff 50 08	 call	 DWORD PTR [eax+8]
; File E:\Proyectos\JuegosOnlineproyectos\PB\pbblow\Piercing Blow Remake\i3Server\include\i3Base\i3ElementBase.h

; 392  : 		m_RefCount++;

  00013	ff 40 04	 inc	 DWORD PTR [eax+4]
; File E:\Proyectos\JuegosOnlineproyectos\PB\pbblow\Piercing Blow Remake\i3Server\src\i3Base\i3Inet.cpp

; 5    : I3_CLASS_INSTANCE( i3Tcp, i3ElementBase);

  00016	5d		 pop	 ebp
  00017	c3		 ret	 0
?_BindObject@i3Tcp@@SAPAV1@PAX@Z ENDP			; i3Tcp::_BindObject
_TEXT	ENDS
; Function compile flags: /Ogtp
; File E:\Proyectos\JuegosOnlineproyectos\PB\pbblow\Piercing Blow Remake\i3Server\src\i3Base\i3Inet.cpp
;	COMDAT ?_NewObjectRef@i3Tcp@@SAPAV1@XZ
_TEXT	SEGMENT
?_NewObjectRef@i3Tcp@@SAPAV1@XZ PROC			; i3Tcp::_NewObjectRef, COMDAT

; 5    : I3_CLASS_INSTANCE( i3Tcp, i3ElementBase);

  00000	8b 0d 00 00 00
	00		 mov	 ecx, DWORD PTR ?s_pClassMetai3Tcp@i3Tcp@@2PAVi3ClassMeta@@A ; i3Tcp::s_pClassMetai3Tcp
  00006	6a 00		 push	 0
  00008	8b 01		 mov	 eax, DWORD PTR [ecx]
  0000a	ff 50 04	 call	 DWORD PTR [eax+4]
  0000d	c3		 ret	 0
?_NewObjectRef@i3Tcp@@SAPAV1@XZ ENDP			; i3Tcp::_NewObjectRef
_TEXT	ENDS
; Function compile flags: /Ogtp
; File E:\Proyectos\JuegosOnlineproyectos\PB\pbblow\Piercing Blow Remake\i3Server\src\i3Base\i3Inet.cpp
; File E:\Proyectos\JuegosOnlineproyectos\PB\pbblow\Piercing Blow Remake\i3Server\include\i3Base\i3ElementBase.h
; File E:\Proyectos\JuegosOnlineproyectos\PB\pbblow\Piercing Blow Remake\i3Server\src\i3Base\i3Inet.cpp
;	COMDAT ?_NewObject@i3Tcp@@SAPAV1@XZ
_TEXT	SEGMENT
?_NewObject@i3Tcp@@SAPAV1@XZ PROC			; i3Tcp::_NewObject, COMDAT

; 5    : I3_CLASS_INSTANCE( i3Tcp, i3ElementBase);

  00000	8b 0d 00 00 00
	00		 mov	 ecx, DWORD PTR ?s_pClassMetai3Tcp@i3Tcp@@2PAVi3ClassMeta@@A ; i3Tcp::s_pClassMetai3Tcp
  00006	6a 00		 push	 0
  00008	8b 01		 mov	 eax, DWORD PTR [ecx]
  0000a	ff 50 04	 call	 DWORD PTR [eax+4]
; File E:\Proyectos\JuegosOnlineproyectos\PB\pbblow\Piercing Blow Remake\i3Server\include\i3Base\i3ElementBase.h

; 392  : 		m_RefCount++;

  0000d	ff 40 04	 inc	 DWORD PTR [eax+4]
; File E:\Proyectos\JuegosOnlineproyectos\PB\pbblow\Piercing Blow Remake\i3Server\src\i3Base\i3Inet.cpp

; 5    : I3_CLASS_INSTANCE( i3Tcp, i3ElementBase);

  00010	c3		 ret	 0
?_NewObject@i3Tcp@@SAPAV1@XZ ENDP			; i3Tcp::_NewObject
_TEXT	ENDS
; Function compile flags: /Ogtp
; File E:\Proyectos\JuegosOnlineproyectos\PB\pbblow\Piercing Blow Remake\i3Server\src\i3Base\i3Inet.cpp
;	COMDAT ?SetGhostClass@i3Tcp@@SAXPAVi3ClassMeta@@@Z
_TEXT	SEGMENT
_pMeta$ = 8						; size = 4
?SetGhostClass@i3Tcp@@SAXPAVi3ClassMeta@@@Z PROC	; i3Tcp::SetGhostClass, COMDAT

; 5    : I3_CLASS_INSTANCE( i3Tcp, i3ElementBase);

  00000	55		 push	 ebp
  00001	8b ec		 mov	 ebp, esp
  00003	ff 75 08	 push	 DWORD PTR _pMeta$[ebp]
  00006	8b 0d 00 00 00
	00		 mov	 ecx, DWORD PTR ?s_pClassMetai3Tcp@i3Tcp@@2PAVi3ClassMeta@@A ; i3Tcp::s_pClassMetai3Tcp
  0000c	e8 00 00 00 00	 call	 ?SetGhostClass@i3ClassMeta@@QAEXPAV1@@Z ; i3ClassMeta::SetGhostClass
  00011	5d		 pop	 ebp
  00012	c3		 ret	 0
?SetGhostClass@i3Tcp@@SAXPAVi3ClassMeta@@@Z ENDP	; i3Tcp::SetGhostClass
_TEXT	ENDS
; Function compile flags: /Ogtp
; File E:\Proyectos\JuegosOnlineproyectos\PB\pbblow\Piercing Blow Remake\i3Server\src\i3Base\i3Inet.cpp
;	COMDAT ?SetConcreteClass@i3Tcp@@SAXPAVi3ClassMeta@@@Z
_TEXT	SEGMENT
_pMeta$ = 8						; size = 4
?SetConcreteClass@i3Tcp@@SAXPAVi3ClassMeta@@@Z PROC	; i3Tcp::SetConcreteClass, COMDAT

; 5    : I3_CLASS_INSTANCE( i3Tcp, i3ElementBase);

  00000	55		 push	 ebp
  00001	8b ec		 mov	 ebp, esp
  00003	ff 75 08	 push	 DWORD PTR _pMeta$[ebp]
  00006	8b 0d 00 00 00
	00		 mov	 ecx, DWORD PTR ?s_pClassMetai3Tcp@i3Tcp@@2PAVi3ClassMeta@@A ; i3Tcp::s_pClassMetai3Tcp
  0000c	e8 00 00 00 00	 call	 ?SetConcreteClass@i3ClassMeta@@QAEXPAV1@@Z ; i3ClassMeta::SetConcreteClass
  00011	5d		 pop	 ebp
  00012	c3		 ret	 0
?SetConcreteClass@i3Tcp@@SAXPAVi3ClassMeta@@@Z ENDP	; i3Tcp::SetConcreteClass
_TEXT	ENDS
; Function compile flags: /Ogtp
; File E:\Proyectos\JuegosOnlineproyectos\PB\pbblow\Piercing Blow Remake\i3Server\src\i3Base\i3Inet.cpp
;	COMDAT ?RegisterMeta@i3Tcp@@SAXXZ
_TEXT	SEGMENT
?RegisterMeta@i3Tcp@@SAXXZ PROC				; i3Tcp::RegisterMeta, COMDAT

; 5    : I3_CLASS_INSTANCE( i3Tcp, i3ElementBase);

  00000	8b 0d 00 00 00
	00		 mov	 ecx, DWORD PTR ?s_pClassMetai3Tcp@i3Tcp@@2PAVi3ClassMeta@@A ; i3Tcp::s_pClassMetai3Tcp
  00006	e9 00 00 00 00	 jmp	 ?Register@i3ClassMeta@@QAEXXZ ; i3ClassMeta::Register
?RegisterMeta@i3Tcp@@SAXXZ ENDP				; i3Tcp::RegisterMeta
_TEXT	ENDS
; Function compile flags: /Ogtp
; File E:\Proyectos\JuegosOnlineproyectos\PB\pbblow\Piercing Blow Remake\i3Server\src\i3Base\i3Inet.cpp
;	COMDAT ?GetMeta@i3Tcp@@UAEPAVi3ClassMeta@@XZ
_TEXT	SEGMENT
?GetMeta@i3Tcp@@UAEPAVi3ClassMeta@@XZ PROC		; i3Tcp::GetMeta, COMDAT
; _this$ = ecx

; 5    : I3_CLASS_INSTANCE( i3Tcp, i3ElementBase);

  00000	a1 00 00 00 00	 mov	 eax, DWORD PTR ?s_pClassMetai3Tcp@i3Tcp@@2PAVi3ClassMeta@@A ; i3Tcp::s_pClassMetai3Tcp
  00005	c3		 ret	 0
?GetMeta@i3Tcp@@UAEPAVi3ClassMeta@@XZ ENDP		; i3Tcp::GetMeta
_TEXT	ENDS
; Function compile flags: /Ogtp
; File E:\Proyectos\JuegosOnlineproyectos\PB\pbblow\Piercing Blow Remake\i3Server\include\i3Base\i3Inet.h
;	COMDAT ?GetClassMeta@i3Tcp@@SAPAVi3ClassMeta@@XZ
_TEXT	SEGMENT
?GetClassMeta@i3Tcp@@SAPAVi3ClassMeta@@XZ PROC		; i3Tcp::GetClassMeta, COMDAT

; 85   : 	I3_CLASS_DEFINE( i3Tcp );

  00000	a1 00 00 00 00	 mov	 eax, DWORD PTR ?s_pClassMetai3Tcp@i3Tcp@@2PAVi3ClassMeta@@A ; i3Tcp::s_pClassMetai3Tcp
  00005	c3		 ret	 0
?GetClassMeta@i3Tcp@@SAPAVi3ClassMeta@@XZ ENDP		; i3Tcp::GetClassMeta
_TEXT	ENDS
; Function compile flags: /Ogtp
; File E:\Proyectos\JuegosOnlineproyectos\PB\pbblow\Piercing Blow Remake\i3Server\src\i3Base\i3Inet.cpp
;	COMDAT ??_Ei3Udp@@UAEPAXI@Z
_TEXT	SEGMENT
__$EHRec$ = -12						; size = 12
___flags$ = 8						; size = 4
??_Ei3Udp@@UAEPAXI@Z PROC				; i3Udp::`vector deleting destructor', COMDAT
; _this$ = ecx
  00000	55		 push	 ebp
  00001	8b ec		 mov	 ebp, esp
  00003	6a ff		 push	 -1
  00005	68 00 00 00 00	 push	 __ehhandler$??_Ei3Udp@@UAEPAXI@Z
  0000a	64 a1 00 00 00
	00		 mov	 eax, DWORD PTR fs:0
  00010	50		 push	 eax
  00011	53		 push	 ebx
  00012	56		 push	 esi
  00013	57		 push	 edi
  00014	a1 00 00 00 00	 mov	 eax, DWORD PTR ___security_cookie
  00019	33 c5		 xor	 eax, ebp
  0001b	50		 push	 eax
  0001c	8d 45 f4	 lea	 eax, DWORD PTR __$EHRec$[ebp]
  0001f	64 a3 00 00 00
	00		 mov	 DWORD PTR fs:0, eax
  00025	8b f1		 mov	 esi, ecx
  00027	8b 5d 08	 mov	 ebx, DWORD PTR ___flags$[ebp]
  0002a	f6 c3 02	 test	 bl, 2
  0002d	74 44		 je	 SHORT $LN2@vector
  0002f	68 00 00 00 00	 push	 OFFSET ??1i3Udp@@UAE@XZ	; i3Udp::~i3Udp
  00034	ff 76 fc	 push	 DWORD PTR [esi-4]
  00037	8d 7e fc	 lea	 edi, DWORD PTR [esi-4]
  0003a	6a 14		 push	 20			; 00000014H
  0003c	56		 push	 esi
  0003d	e8 00 00 00 00	 call	 ??_M@YGXPAXIIP6EX0@Z@Z
  00042	f6 c3 01	 test	 bl, 1
  00045	74 16		 je	 SHORT $LN3@vector
  00047	8b 0f		 mov	 ecx, DWORD PTR [edi]
  00049	8d 0c 89	 lea	 ecx, DWORD PTR [ecx+ecx*4]
  0004c	8d 0c 8d 04 00
	00 00		 lea	 ecx, DWORD PTR [ecx*4+4]
  00053	51		 push	 ecx
  00054	57		 push	 edi
  00055	e8 00 00 00 00	 call	 ??_V@YAXPAXI@Z		; operator delete[]
  0005a	83 c4 08	 add	 esp, 8
$LN3@vector:
  0005d	8b c7		 mov	 eax, edi
  0005f	8b 4d f4	 mov	 ecx, DWORD PTR __$EHRec$[ebp]
  00062	64 89 0d 00 00
	00 00		 mov	 DWORD PTR fs:0, ecx
  00069	59		 pop	 ecx
  0006a	5f		 pop	 edi
  0006b	5e		 pop	 esi
  0006c	5b		 pop	 ebx
  0006d	8b e5		 mov	 esp, ebp
  0006f	5d		 pop	 ebp
  00070	c2 04 00	 ret	 4
$LN2@vector:

; 345  : 	if( m_Socket != INVALID_SOCKET)

  00073	8b 46 10	 mov	 eax, DWORD PTR [esi+16]
  00076	c7 06 00 00 00
	00		 mov	 DWORD PTR [esi], OFFSET ??_7i3Udp@@6B@
  0007c	83 f8 ff	 cmp	 eax, -1
  0007f	74 19		 je	 SHORT $LN11@vector

; 377  : 	::shutdown( m_Socket, 0); 

  00081	6a 00		 push	 0
  00083	50		 push	 eax
  00084	ff 15 00 00 00
	00		 call	 DWORD PTR __imp__shutdown@8

; 378  : 	::closesocket( m_Socket ); 

  0008a	ff 76 10	 push	 DWORD PTR [esi+16]
  0008d	ff 15 00 00 00
	00		 call	 DWORD PTR __imp__closesocket@4

; 379  : 	m_Socket = INVALID_SOCKET; 

  00093	c7 46 10 ff ff
	ff ff		 mov	 DWORD PTR [esi+16], -1
$LN11@vector:

; 349  : }

  0009a	8b ce		 mov	 ecx, esi
  0009c	e8 00 00 00 00	 call	 ??1i3ElementBase@@UAE@XZ ; i3ElementBase::~i3ElementBase
  000a1	f6 c3 01	 test	 bl, 1
  000a4	74 1b		 je	 SHORT $LN6@vector
  000a6	f6 c3 04	 test	 bl, 4
  000a9	75 0b		 jne	 SHORT $LN5@vector
  000ab	56		 push	 esi
  000ac	e8 00 00 00 00	 call	 ??3i3ElementBase@@SAXPAX@Z ; i3ElementBase::operator delete
  000b1	83 c4 04	 add	 esp, 4
  000b4	eb 0b		 jmp	 SHORT $LN6@vector
$LN5@vector:

  000b6	6a 14		 push	 20			; 00000014H
  000b8	56		 push	 esi
  000b9	e8 00 00 00 00	 call	 ??3@YAXPAXI@Z		; operator delete
  000be	83 c4 08	 add	 esp, 8
$LN6@vector:
  000c1	8b c6		 mov	 eax, esi
  000c3	8b 4d f4	 mov	 ecx, DWORD PTR __$EHRec$[ebp]
  000c6	64 89 0d 00 00
	00 00		 mov	 DWORD PTR fs:0, ecx
  000cd	59		 pop	 ecx
  000ce	5f		 pop	 edi
  000cf	5e		 pop	 esi
  000d0	5b		 pop	 ebx
  000d1	8b e5		 mov	 esp, ebp
  000d3	5d		 pop	 ebp
  000d4	c2 04 00	 ret	 4
  000d7	cc		 int	 3
  000d8	cc		 int	 3
  000d9	cc		 int	 3
  000da	cc		 int	 3
  000db	cc		 int	 3
_TEXT	ENDS
;	COMDAT text$x
text$x	SEGMENT
__ehhandler$??_Ei3Udp@@UAEPAXI@Z:
  00000	90		 npad	 1
  00001	90		 npad	 1
  00002	8b 54 24 08	 mov	 edx, DWORD PTR [esp+8]
  00006	8d 42 0c	 lea	 eax, DWORD PTR [edx+12]
  00009	8b 4a f0	 mov	 ecx, DWORD PTR [edx-16]
  0000c	33 c8		 xor	 ecx, eax
  0000e	e8 00 00 00 00	 call	 @__security_check_cookie@4
  00013	b8 00 00 00 00	 mov	 eax, OFFSET __ehfuncinfo$??_Ei3Udp@@UAEPAXI@Z
  00018	e9 00 00 00 00	 jmp	 ___CxxFrameHandler3
text$x	ENDS
??_Ei3Udp@@UAEPAXI@Z ENDP				; i3Udp::`vector deleting destructor'
; Function compile flags: /Ogtp
; File E:\Proyectos\JuegosOnlineproyectos\PB\pbblow\Piercing Blow Remake\i3Server\src\i3Base\i3Inet.cpp
;	COMDAT ??_Gi3Udp@@UAEPAXI@Z
_TEXT	SEGMENT
___flags$ = 8						; size = 4
??_Gi3Udp@@UAEPAXI@Z PROC				; i3Udp::`scalar deleting destructor', COMDAT
; _this$ = ecx
  00000	55		 push	 ebp
  00001	8b ec		 mov	 ebp, esp

; 344  : {

  00003	56		 push	 esi
  00004	8b f1		 mov	 esi, ecx

; 345  : 	if( m_Socket != INVALID_SOCKET)

  00006	8b 46 10	 mov	 eax, DWORD PTR [esi+16]
  00009	c7 06 00 00 00
	00		 mov	 DWORD PTR [esi], OFFSET ??_7i3Udp@@6B@
  0000f	83 f8 ff	 cmp	 eax, -1
  00012	74 19		 je	 SHORT $LN9@scalar

; 377  : 	::shutdown( m_Socket, 0); 

  00014	6a 00		 push	 0
  00016	50		 push	 eax
  00017	ff 15 00 00 00
	00		 call	 DWORD PTR __imp__shutdown@8

; 378  : 	::closesocket( m_Socket ); 

  0001d	ff 76 10	 push	 DWORD PTR [esi+16]
  00020	ff 15 00 00 00
	00		 call	 DWORD PTR __imp__closesocket@4

; 379  : 	m_Socket = INVALID_SOCKET; 

  00026	c7 46 10 ff ff
	ff ff		 mov	 DWORD PTR [esi+16], -1
$LN9@scalar:

; 349  : }

  0002d	8b ce		 mov	 ecx, esi
  0002f	e8 00 00 00 00	 call	 ??1i3ElementBase@@UAE@XZ ; i3ElementBase::~i3ElementBase
  00034	8b 45 08	 mov	 eax, DWORD PTR ___flags$[ebp]
  00037	a8 01		 test	 al, 1
  00039	74 1f		 je	 SHORT $LN18@scalar
  0003b	a8 04		 test	 al, 4
  0003d	75 10		 jne	 SHORT $LN3@scalar
  0003f	56		 push	 esi
  00040	e8 00 00 00 00	 call	 ??3i3ElementBase@@SAXPAX@Z ; i3ElementBase::operator delete
  00045	83 c4 04	 add	 esp, 4
  00048	8b c6		 mov	 eax, esi
  0004a	5e		 pop	 esi
  0004b	5d		 pop	 ebp
  0004c	c2 04 00	 ret	 4
$LN3@scalar:

  0004f	6a 14		 push	 20			; 00000014H
  00051	56		 push	 esi
  00052	e8 00 00 00 00	 call	 ??3@YAXPAXI@Z		; operator delete
  00057	83 c4 08	 add	 esp, 8
$LN18@scalar:
  0005a	8b c6		 mov	 eax, esi
  0005c	5e		 pop	 esi
  0005d	5d		 pop	 ebp
  0005e	c2 04 00	 ret	 4
??_Gi3Udp@@UAEPAXI@Z ENDP				; i3Udp::`scalar deleting destructor'
_TEXT	ENDS
; Function compile flags: /Ogtp
;	COMDAT ??4i3Udp@@QAEAAV0@ABV0@@Z
_TEXT	SEGMENT
___that$ = 8						; size = 4
??4i3Udp@@QAEAAV0@ABV0@@Z PROC				; i3Udp::operator=, COMDAT
; _this$ = ecx
  00000	55		 push	 ebp
  00001	8b ec		 mov	 ebp, esp
  00003	8b 55 08	 mov	 edx, DWORD PTR ___that$[ebp]
  00006	8b 42 04	 mov	 eax, DWORD PTR [edx+4]
  00009	89 41 04	 mov	 DWORD PTR [ecx+4], eax
  0000c	8b 42 08	 mov	 eax, DWORD PTR [edx+8]
  0000f	89 41 08	 mov	 DWORD PTR [ecx+8], eax
  00012	8b 42 0c	 mov	 eax, DWORD PTR [edx+12]
  00015	89 41 0c	 mov	 DWORD PTR [ecx+12], eax
  00018	8b 42 10	 mov	 eax, DWORD PTR [edx+16]
  0001b	89 41 10	 mov	 DWORD PTR [ecx+16], eax
  0001e	8b c1		 mov	 eax, ecx
  00020	5d		 pop	 ebp
  00021	c2 04 00	 ret	 4
??4i3Udp@@QAEAAV0@ABV0@@Z ENDP				; i3Udp::operator=
_TEXT	ENDS
; Function compile flags: /Ogtp
;	COMDAT ??0i3Udp@@QAE@ABV0@@Z
_TEXT	SEGMENT
___that$ = 8						; size = 4
??0i3Udp@@QAE@ABV0@@Z PROC				; i3Udp::i3Udp, COMDAT
; _this$ = ecx
  00000	55		 push	 ebp
  00001	8b ec		 mov	 ebp, esp
  00003	8b 55 08	 mov	 edx, DWORD PTR ___that$[ebp]
  00006	c7 01 00 00 00
	00		 mov	 DWORD PTR [ecx], OFFSET ??_7i3ElementBase@@6B@
  0000c	8b 42 04	 mov	 eax, DWORD PTR [edx+4]
  0000f	89 41 04	 mov	 DWORD PTR [ecx+4], eax
  00012	8b 42 08	 mov	 eax, DWORD PTR [edx+8]
  00015	89 41 08	 mov	 DWORD PTR [ecx+8], eax
  00018	8b 42 0c	 mov	 eax, DWORD PTR [edx+12]
  0001b	89 41 0c	 mov	 DWORD PTR [ecx+12], eax
  0001e	c7 01 00 00 00
	00		 mov	 DWORD PTR [ecx], OFFSET ??_7i3Udp@@6B@
  00024	8b 42 10	 mov	 eax, DWORD PTR [edx+16]
  00027	89 41 10	 mov	 DWORD PTR [ecx+16], eax
  0002a	8b c1		 mov	 eax, ecx
  0002c	5d		 pop	 ebp
  0002d	c2 04 00	 ret	 4
??0i3Udp@@QAE@ABV0@@Z ENDP				; i3Udp::i3Udp
_TEXT	ENDS
; Function compile flags: /Ogtp
; File E:\Proyectos\JuegosOnlineproyectos\PB\pbblow\Piercing Blow Remake\i3Server\include\i3Base\i3Inet.h
;	COMDAT ?getSocketHandle@i3Udp@@QAEIXZ
_TEXT	SEGMENT
?getSocketHandle@i3Udp@@QAEIXZ PROC			; i3Udp::getSocketHandle, COMDAT
; _this$ = ecx

; 80   : 	SOCKET	getSocketHandle( void )				{ return m_Socket; }

  00000	8b 41 10	 mov	 eax, DWORD PTR [ecx+16]
  00003	c3		 ret	 0
?getSocketHandle@i3Udp@@QAEIXZ ENDP			; i3Udp::getSocketHandle
_TEXT	ENDS
; Function compile flags: /Ogtp
; File E:\Proyectos\JuegosOnlineproyectos\PB\pbblow\Piercing Blow Remake\i3Server\src\i3Base\i3Inet.cpp
; File E:\Proyectos\JuegosOnlineproyectos\PB\pbblow\Piercing Blow Remake\i3Server\include\i3Base\i3Memory.h
; File E:\Proyectos\JuegosOnlineproyectos\PB\pbblow\Piercing Blow Remake\i3Server\src\i3Base\i3Inet.cpp
; File E:\Proyectos\JuegosOnlineproyectos\PB\pbblow\Piercing Blow Remake\i3Server\include\i3Base\i3Memory.h
; File E:\Proyectos\JuegosOnlineproyectos\PB\pbblow\Piercing Blow Remake\i3Server\src\i3Base\i3Inet.cpp
; File E:\Proyectos\JuegosOnlineproyectos\PB\pbblow\Piercing Blow Remake\i3Server\include\i3Base\i3Memory.h
; File E:\Proyectos\JuegosOnlineproyectos\PB\pbblow\Piercing Blow Remake\i3Server\src\i3Base\i3Inet.cpp
;	COMDAT ?GetName@i3Udp@@QAEXPAUsockaddr@@@Z
_TEXT	SEGMENT
_len$ = -24						; size = 4
_addr$ = -20						; size = 16
__$ArrayPad$ = -4					; size = 4
_pLocal$ = 8						; size = 4
?GetName@i3Udp@@QAEXPAUsockaddr@@@Z PROC		; i3Udp::GetName, COMDAT
; _this$ = ecx

; 468  : {	

  00000	55		 push	 ebp
  00001	8b ec		 mov	 ebp, esp
  00003	83 ec 18	 sub	 esp, 24			; 00000018H
  00006	a1 00 00 00 00	 mov	 eax, DWORD PTR ___security_cookie
  0000b	33 c5		 xor	 eax, ebp
  0000d	89 45 fc	 mov	 DWORD PTR __$ArrayPad$[ebp], eax
  00010	56		 push	 esi
  00011	8b 75 08	 mov	 esi, DWORD PTR _pLocal$[ebp]

; 469  : #if defined( I3_WINDOWS )
; 470  : 	sockaddr	addr;
; 471  : 	INT32		len;
; 472  : 
; 473  : 	len = sizeof( sockaddr );
; 474  : 
; 475  : 	if( ::getsockname( m_Socket, &addr, &len ) < 0 )

  00014	8d 45 e8	 lea	 eax, DWORD PTR _len$[ebp]
  00017	50		 push	 eax
  00018	8d 45 ec	 lea	 eax, DWORD PTR _addr$[ebp]
  0001b	c7 45 e8 10 00
	00 00		 mov	 DWORD PTR _len$[ebp], 16 ; 00000010H
  00022	50		 push	 eax
  00023	ff 71 10	 push	 DWORD PTR [ecx+16]
  00026	ff 15 00 00 00
	00		 call	 DWORD PTR __imp__getsockname@12
  0002c	85 c0		 test	 eax, eax
  0002e	79 06		 jns	 SHORT $LN2@GetName

; 181  : 	ErrorId = WSAGetLastError();

  00030	ff 15 00 00 00
	00		 call	 DWORD PTR __imp__WSAGetLastError@0
$LN2@GetName:
; File E:\Proyectos\JuegosOnlineproyectos\PB\pbblow\Piercing Blow Remake\i3Server\include\i3Base\i3Memory.h

; 134  : 			::CopyMemory( pDest, pSrc, sz);

  00036	8b 45 ec	 mov	 eax, DWORD PTR _addr$[ebp]
; File E:\Proyectos\JuegosOnlineproyectos\PB\pbblow\Piercing Blow Remake\i3Server\src\i3Base\i3Inet.cpp

; 483  : }

  00039	8b 4d fc	 mov	 ecx, DWORD PTR __$ArrayPad$[ebp]
; File E:\Proyectos\JuegosOnlineproyectos\PB\pbblow\Piercing Blow Remake\i3Server\include\i3Base\i3Memory.h

; 134  : 			::CopyMemory( pDest, pSrc, sz);

  0003c	89 06		 mov	 DWORD PTR [esi], eax
; File E:\Proyectos\JuegosOnlineproyectos\PB\pbblow\Piercing Blow Remake\i3Server\src\i3Base\i3Inet.cpp

; 483  : }

  0003e	33 cd		 xor	 ecx, ebp
; File E:\Proyectos\JuegosOnlineproyectos\PB\pbblow\Piercing Blow Remake\i3Server\include\i3Base\i3Memory.h

; 134  : 			::CopyMemory( pDest, pSrc, sz);

  00040	8b 45 f0	 mov	 eax, DWORD PTR _addr$[ebp+4]
  00043	89 46 04	 mov	 DWORD PTR [esi+4], eax
  00046	8b 45 f4	 mov	 eax, DWORD PTR _addr$[ebp+8]
  00049	89 46 08	 mov	 DWORD PTR [esi+8], eax
  0004c	8b 45 f8	 mov	 eax, DWORD PTR _addr$[ebp+12]
  0004f	89 46 0c	 mov	 DWORD PTR [esi+12], eax
  00052	5e		 pop	 esi
; File E:\Proyectos\JuegosOnlineproyectos\PB\pbblow\Piercing Blow Remake\i3Server\src\i3Base\i3Inet.cpp

; 483  : }

  00053	e8 00 00 00 00	 call	 @__security_check_cookie@4
  00058	8b e5		 mov	 esp, ebp
  0005a	5d		 pop	 ebp
  0005b	c2 04 00	 ret	 4
?GetName@i3Udp@@QAEXPAUsockaddr@@@Z ENDP		; i3Udp::GetName
_TEXT	ENDS
; Function compile flags: /Ogtp
; File E:\Proyectos\JuegosOnlineproyectos\PB\pbblow\Piercing Blow Remake\i3Server\src\i3Base\i3Inet.cpp
;	COMDAT ?SetOption@i3Udp@@QAEHHHPBDH@Z
_TEXT	SEGMENT
_nLevel$ = 8						; size = 4
_nOption$ = 12						; size = 4
_pszValue$ = 16						; size = 4
_nSize$ = 20						; size = 4
?SetOption@i3Udp@@QAEHHHPBDH@Z PROC			; i3Udp::SetOption, COMDAT
; _this$ = ecx

; 459  : {

  00000	55		 push	 ebp
  00001	8b ec		 mov	 ebp, esp

; 460  : 	INT32	Rv = -1;
; 461  : #if defined( I3_WINDOWS )
; 462  : 	Rv = ::setsockopt( m_Socket, nLevel, nOption, pszValue, nSize );

  00003	ff 75 14	 push	 DWORD PTR _nSize$[ebp]
  00006	ff 75 10	 push	 DWORD PTR _pszValue$[ebp]
  00009	ff 75 0c	 push	 DWORD PTR _nOption$[ebp]
  0000c	ff 75 08	 push	 DWORD PTR _nLevel$[ebp]
  0000f	ff 71 10	 push	 DWORD PTR [ecx+16]
  00012	ff 15 00 00 00
	00		 call	 DWORD PTR __imp__setsockopt@20

; 463  : #endif
; 464  : 	return Rv;
; 465  : }

  00018	5d		 pop	 ebp
  00019	c2 10 00	 ret	 16			; 00000010H
?SetOption@i3Udp@@QAEHHHPBDH@Z ENDP			; i3Udp::SetOption
_TEXT	ENDS
; Function compile flags: /Ogtp
; File E:\Proyectos\JuegosOnlineproyectos\PB\pbblow\Piercing Blow Remake\i3Server\src\i3Base\i3Inet.cpp
;	COMDAT ?GetOption@i3Udp@@QAEHHHPADPAH@Z
_TEXT	SEGMENT
_nLevel$ = 8						; size = 4
_nOption$ = 12						; size = 4
_pOut$ = 16						; size = 4
_pReturnSize$ = 20					; size = 4
?GetOption@i3Udp@@QAEHHHPADPAH@Z PROC			; i3Udp::GetOption, COMDAT
; _this$ = ecx

; 450  : {

  00000	55		 push	 ebp
  00001	8b ec		 mov	 ebp, esp

; 451  : 	INT32	Rv = -1;
; 452  : #if defined( I3_WINDOWS )
; 453  : 	Rv = ::getsockopt( m_Socket, nLevel, nOption, pOut, pReturnSize );

  00003	ff 75 14	 push	 DWORD PTR _pReturnSize$[ebp]
  00006	ff 75 10	 push	 DWORD PTR _pOut$[ebp]
  00009	ff 75 0c	 push	 DWORD PTR _nOption$[ebp]
  0000c	ff 75 08	 push	 DWORD PTR _nLevel$[ebp]
  0000f	ff 71 10	 push	 DWORD PTR [ecx+16]
  00012	ff 15 00 00 00
	00		 call	 DWORD PTR __imp__getsockopt@20

; 454  : #endif
; 455  : 	return Rv;
; 456  : }

  00018	5d		 pop	 ebp
  00019	c2 10 00	 ret	 16			; 00000010H
?GetOption@i3Udp@@QAEHHHPADPAH@Z ENDP			; i3Udp::GetOption
_TEXT	ENDS
; Function compile flags: /Ogtp
; File E:\Proyectos\JuegosOnlineproyectos\PB\pbblow\Piercing Blow Remake\i3Server\src\i3Base\i3Inet.cpp
;	COMDAT ?Recv@i3Udp@@QAEHPADHHPAUsockaddr@@PAH@Z
_TEXT	SEGMENT
_pBuffer$ = 8						; size = 4
_Byte$ = 12						; size = 4
_flags$ = 16						; size = 4
_pFrom$ = 20						; size = 4
_pFromlen$ = 24						; size = 4
?Recv@i3Udp@@QAEHPADHHPAUsockaddr@@PAH@Z PROC		; i3Udp::Recv, COMDAT
; _this$ = ecx

; 440  : {	

  00000	55		 push	 ebp
  00001	8b ec		 mov	 ebp, esp
  00003	56		 push	 esi

; 441  : 	INT32 Rv = -1; 
; 442  : #ifdef I3_WINDOWS
; 443  : 	Rv = recvfrom(m_Socket, pBuffer, Byte, flags, pFrom, pFromlen);

  00004	ff 75 18	 push	 DWORD PTR _pFromlen$[ebp]
  00007	ff 75 14	 push	 DWORD PTR _pFrom$[ebp]
  0000a	ff 75 10	 push	 DWORD PTR _flags$[ebp]
  0000d	ff 75 0c	 push	 DWORD PTR _Byte$[ebp]
  00010	ff 75 08	 push	 DWORD PTR _pBuffer$[ebp]
  00013	ff 71 10	 push	 DWORD PTR [ecx+16]
  00016	ff 15 00 00 00
	00		 call	 DWORD PTR __imp__recvfrom@24
  0001c	8b f0		 mov	 esi, eax

; 444  : 	if(Rv < 0)i3Net::GetError("[i3Udp::Recv]");	

  0001e	85 f6		 test	 esi, esi
  00020	79 08		 jns	 SHORT $LN2@Recv

; 181  : 	ErrorId = WSAGetLastError();

  00022	ff 15 00 00 00
	00		 call	 DWORD PTR __imp__WSAGetLastError@0

; 445  : #endif
; 446  : 	return Rv; 

  00028	8b c6		 mov	 eax, esi
$LN2@Recv:
  0002a	5e		 pop	 esi

; 447  : }

  0002b	5d		 pop	 ebp
  0002c	c2 14 00	 ret	 20			; 00000014H
?Recv@i3Udp@@QAEHPADHHPAUsockaddr@@PAH@Z ENDP		; i3Udp::Recv
_TEXT	ENDS
; Function compile flags: /Ogtp
; File E:\Proyectos\JuegosOnlineproyectos\PB\pbblow\Piercing Blow Remake\i3Server\src\i3Base\i3Inet.cpp
;	COMDAT ?Send@i3Udp@@QAEXPBDHIGH@Z
_TEXT	SEGMENT
_cast$ = -20						; size = 16
__$ArrayPad$ = -4					; size = 4
_pBuffer$ = 8						; size = 4
_Byte$ = 12						; size = 4
_Ip$ = 16						; size = 4
_Port$ = 20						; size = 2
_flag$ = 24						; size = 4
?Send@i3Udp@@QAEXPBDHIGH@Z PROC				; i3Udp::Send, COMDAT
; _this$ = ecx

; 423  : {

  00000	55		 push	 ebp
  00001	8b ec		 mov	 ebp, esp
  00003	83 ec 14	 sub	 esp, 20			; 00000014H
  00006	a1 00 00 00 00	 mov	 eax, DWORD PTR ___security_cookie
  0000b	33 c5		 xor	 eax, ebp
  0000d	89 45 fc	 mov	 DWORD PTR __$ArrayPad$[ebp], eax
  00010	56		 push	 esi
  00011	8b 75 08	 mov	 esi, DWORD PTR _pBuffer$[ebp]

; 424  : #ifdef I3_WINDOWS
; 425  : 	SOCKADDR_IN cast; 
; 426  :        
; 427  : 	cast.sin_family			= AF_INET;

  00014	b8 02 00 00 00	 mov	 eax, 2
  00019	57		 push	 edi

; 428  : 	cast.sin_addr.s_addr	= Ip; 
; 429  : 	cast.sin_port			= htons(Port);

  0001a	ff 75 14	 push	 DWORD PTR _Port$[ebp]
  0001d	66 89 45 ec	 mov	 WORD PTR _cast$[ebp], ax
  00021	8b f9		 mov	 edi, ecx
  00023	8b 45 10	 mov	 eax, DWORD PTR _Ip$[ebp]
  00026	89 45 f0	 mov	 DWORD PTR _cast$[ebp+4], eax
  00029	ff 15 00 00 00
	00		 call	 DWORD PTR __imp__htons@4

; 430  : 
; 431  : 	if( sendto(m_Socket, pBuffer, Byte, flag, (const sockaddr *)&cast, sizeof(sockaddr) ) == SOCKET_ERROR )

  0002f	6a 10		 push	 16			; 00000010H
  00031	66 89 45 ee	 mov	 WORD PTR _cast$[ebp+2], ax
  00035	8d 45 ec	 lea	 eax, DWORD PTR _cast$[ebp]
  00038	50		 push	 eax
  00039	ff 75 18	 push	 DWORD PTR _flag$[ebp]
  0003c	ff 75 0c	 push	 DWORD PTR _Byte$[ebp]
  0003f	56		 push	 esi
  00040	ff 77 10	 push	 DWORD PTR [edi+16]
  00043	ff 15 00 00 00
	00		 call	 DWORD PTR __imp__sendto@24
  00049	5f		 pop	 edi
  0004a	5e		 pop	 esi
  0004b	83 f8 ff	 cmp	 eax, -1
  0004e	75 06		 jne	 SHORT $LN2@Send

; 181  : 	ErrorId = WSAGetLastError();

  00050	ff 15 00 00 00
	00		 call	 DWORD PTR __imp__WSAGetLastError@0
$LN2@Send:

; 432  : 	{
; 433  : 		i3Net::GetError("[i3Udp::Send] Connect Failed");
; 434  : 	}
; 435  : #endif
; 436  : 	return; 
; 437  : }

  00056	8b 4d fc	 mov	 ecx, DWORD PTR __$ArrayPad$[ebp]
  00059	33 cd		 xor	 ecx, ebp
  0005b	e8 00 00 00 00	 call	 @__security_check_cookie@4
  00060	8b e5		 mov	 esp, ebp
  00062	5d		 pop	 ebp
  00063	c2 14 00	 ret	 20			; 00000014H
?Send@i3Udp@@QAEXPBDHIGH@Z ENDP				; i3Udp::Send
_TEXT	ENDS
; Function compile flags: /Ogtp
; File E:\Proyectos\JuegosOnlineproyectos\PB\pbblow\Piercing Blow Remake\i3Server\src\i3Base\i3Inet.cpp
;	COMDAT ?Bind@i3Udp@@QAEXIG@Z
_TEXT	SEGMENT
_serveraddr$ = -20					; size = 16
__$ArrayPad$ = -4					; size = 4
_Ip$ = 8						; size = 4
_Port$ = 12						; size = 2
?Bind@i3Udp@@QAEXIG@Z PROC				; i3Udp::Bind, COMDAT
; _this$ = ecx

; 385  : {

  00000	55		 push	 ebp
  00001	8b ec		 mov	 ebp, esp
  00003	83 ec 14	 sub	 esp, 20			; 00000014H
  00006	a1 00 00 00 00	 mov	 eax, DWORD PTR ___security_cookie
  0000b	33 c5		 xor	 eax, ebp
  0000d	89 45 fc	 mov	 DWORD PTR __$ArrayPad$[ebp], eax

; 386  : #ifdef I3_WINDOWS
; 387  : 	struct sockaddr_in serveraddr; 
; 388  : 	memset(&serveraddr, 0, sizeof(serveraddr));

  00010	33 c0		 xor	 eax, eax
  00012	89 45 ec	 mov	 DWORD PTR _serveraddr$[ebp], eax
  00015	89 45 f4	 mov	 DWORD PTR _serveraddr$[ebp+8], eax
  00018	89 45 f8	 mov	 DWORD PTR _serveraddr$[ebp+12], eax

; 389  : 
; 390  : 	serveraddr.sin_family		= AF_INET;

  0001b	b8 02 00 00 00	 mov	 eax, 2
  00020	56		 push	 esi

; 391  : 	serveraddr.sin_addr.s_addr	= Ip; 
; 392  : 	serveraddr.sin_port			= htons(Port);

  00021	ff 75 0c	 push	 DWORD PTR _Port$[ebp]
  00024	66 89 45 ec	 mov	 WORD PTR _serveraddr$[ebp], ax
  00028	8b f1		 mov	 esi, ecx
  0002a	8b 45 08	 mov	 eax, DWORD PTR _Ip$[ebp]
  0002d	89 45 f0	 mov	 DWORD PTR _serveraddr$[ebp+4], eax
  00030	ff 15 00 00 00
	00		 call	 DWORD PTR __imp__htons@4
  00036	66 89 45 ee	 mov	 WORD PTR _serveraddr$[ebp+2], ax

; 393  : 
; 394  : 	if( bind(m_Socket, (struct sockaddr *)&serveraddr, sizeof(serveraddr)) < 0)

  0003a	8d 45 ec	 lea	 eax, DWORD PTR _serveraddr$[ebp]
  0003d	6a 10		 push	 16			; 00000010H
  0003f	50		 push	 eax
  00040	ff 76 10	 push	 DWORD PTR [esi+16]
  00043	ff 15 00 00 00
	00		 call	 DWORD PTR __imp__bind@12
  00049	5e		 pop	 esi
  0004a	85 c0		 test	 eax, eax
  0004c	79 06		 jns	 SHORT $LN2@Bind

; 181  : 	ErrorId = WSAGetLastError();

  0004e	ff 15 00 00 00
	00		 call	 DWORD PTR __imp__WSAGetLastError@0
$LN2@Bind:

; 395  : 	{
; 396  : 		i3Net::GetError("[i3Udp::Bind] Connect Failed");
; 397  : 	}
; 398  : 
; 399  : #endif 
; 400  : 	return; 
; 401  : }

  00054	8b 4d fc	 mov	 ecx, DWORD PTR __$ArrayPad$[ebp]
  00057	33 cd		 xor	 ecx, ebp
  00059	e8 00 00 00 00	 call	 @__security_check_cookie@4
  0005e	8b e5		 mov	 esp, ebp
  00060	5d		 pop	 ebp
  00061	c2 08 00	 ret	 8
?Bind@i3Udp@@QAEXIG@Z ENDP				; i3Udp::Bind
_TEXT	ENDS
; Function compile flags: /Ogtp
; File E:\Proyectos\JuegosOnlineproyectos\PB\pbblow\Piercing Blow Remake\i3Server\src\i3Base\i3Inet.cpp
;	COMDAT ?BindAny@i3Udp@@QAEXG@Z
_TEXT	SEGMENT
_serveraddr$ = -20					; size = 16
__$ArrayPad$ = -4					; size = 4
_Port$ = 8						; size = 2
?BindAny@i3Udp@@QAEXG@Z PROC				; i3Udp::BindAny, COMDAT
; _this$ = ecx

; 404  : {

  00000	55		 push	 ebp
  00001	8b ec		 mov	 ebp, esp
  00003	83 ec 14	 sub	 esp, 20			; 00000014H
  00006	a1 00 00 00 00	 mov	 eax, DWORD PTR ___security_cookie
  0000b	33 c5		 xor	 eax, ebp
  0000d	89 45 fc	 mov	 DWORD PTR __$ArrayPad$[ebp], eax

; 405  : #ifdef I3_WINDOWS
; 406  : 	struct sockaddr_in serveraddr; 
; 407  : 	
; 408  : 	memset(&serveraddr, 0, sizeof(serveraddr));

  00010	33 c0		 xor	 eax, eax
  00012	56		 push	 esi
  00013	89 45 ec	 mov	 DWORD PTR _serveraddr$[ebp], eax
  00016	8b f1		 mov	 esi, ecx
  00018	89 45 f0	 mov	 DWORD PTR _serveraddr$[ebp+4], eax
  0001b	89 45 f4	 mov	 DWORD PTR _serveraddr$[ebp+8], eax
  0001e	89 45 f8	 mov	 DWORD PTR _serveraddr$[ebp+12], eax

; 409  : 
; 410  : 	serveraddr.sin_family		= AF_INET;

  00021	b8 02 00 00 00	 mov	 eax, 2

; 411  : 	serveraddr.sin_addr.s_addr	= htonl(INADDR_ANY); 

  00026	6a 00		 push	 0
  00028	66 89 45 ec	 mov	 WORD PTR _serveraddr$[ebp], ax
  0002c	ff 15 00 00 00
	00		 call	 DWORD PTR __imp__htonl@4

; 412  : 	serveraddr.sin_port			= htons(Port);

  00032	ff 75 08	 push	 DWORD PTR _Port$[ebp]
  00035	89 45 f0	 mov	 DWORD PTR _serveraddr$[ebp+4], eax
  00038	ff 15 00 00 00
	00		 call	 DWORD PTR __imp__htons@4
  0003e	66 89 45 ee	 mov	 WORD PTR _serveraddr$[ebp+2], ax

; 413  : 	
; 414  : 	if( bind(m_Socket, (struct sockaddr *)&serveraddr, sizeof(serveraddr)) < 0)

  00042	8d 45 ec	 lea	 eax, DWORD PTR _serveraddr$[ebp]
  00045	6a 10		 push	 16			; 00000010H
  00047	50		 push	 eax
  00048	ff 76 10	 push	 DWORD PTR [esi+16]
  0004b	ff 15 00 00 00
	00		 call	 DWORD PTR __imp__bind@12
  00051	5e		 pop	 esi
  00052	85 c0		 test	 eax, eax
  00054	79 06		 jns	 SHORT $LN2@BindAny

; 181  : 	ErrorId = WSAGetLastError();

  00056	ff 15 00 00 00
	00		 call	 DWORD PTR __imp__WSAGetLastError@0
$LN2@BindAny:

; 415  : 	{
; 416  : 		i3Net::GetError("[i3Udp::BindAny] Connect Failed");
; 417  : 	}
; 418  : #endif
; 419  : 	return; 
; 420  : }

  0005c	8b 4d fc	 mov	 ecx, DWORD PTR __$ArrayPad$[ebp]
  0005f	33 cd		 xor	 ecx, ebp
  00061	e8 00 00 00 00	 call	 @__security_check_cookie@4
  00066	8b e5		 mov	 esp, ebp
  00068	5d		 pop	 ebp
  00069	c2 04 00	 ret	 4
?BindAny@i3Udp@@QAEXG@Z ENDP				; i3Udp::BindAny
_TEXT	ENDS
; Function compile flags: /Ogtp
; File E:\Proyectos\JuegosOnlineproyectos\PB\pbblow\Piercing Blow Remake\i3Server\src\i3Base\i3Inet.cpp
;	COMDAT ?DeleteSocket@i3Udp@@QAEXXZ
_TEXT	SEGMENT
?DeleteSocket@i3Udp@@QAEXXZ PROC			; i3Udp::DeleteSocket, COMDAT
; _this$ = ecx

; 375  : {

  00000	56		 push	 esi
  00001	8b f1		 mov	 esi, ecx

; 376  : #ifdef I3_WINDOWS
; 377  : 	::shutdown( m_Socket, 0); 

  00003	6a 00		 push	 0
  00005	ff 76 10	 push	 DWORD PTR [esi+16]
  00008	ff 15 00 00 00
	00		 call	 DWORD PTR __imp__shutdown@8

; 378  : 	::closesocket( m_Socket ); 

  0000e	ff 76 10	 push	 DWORD PTR [esi+16]
  00011	ff 15 00 00 00
	00		 call	 DWORD PTR __imp__closesocket@4

; 379  : 	m_Socket = INVALID_SOCKET; 

  00017	c7 46 10 ff ff
	ff ff		 mov	 DWORD PTR [esi+16], -1
  0001e	5e		 pop	 esi

; 380  : #endif
; 381  : 	return; 
; 382  : }

  0001f	c3		 ret	 0
?DeleteSocket@i3Udp@@QAEXXZ ENDP			; i3Udp::DeleteSocket
_TEXT	ENDS
; Function compile flags: /Ogtp
; File E:\Proyectos\JuegosOnlineproyectos\PB\pbblow\Piercing Blow Remake\i3Server\src\i3Base\i3Inet.cpp
;	COMDAT ?CreateSocket@i3Udp@@QAEIXZ
_TEXT	SEGMENT
_bufsz$1 = -408						; size = 4
_wsaData$2 = -404					; size = 400
__$ArrayPad$ = -4					; size = 4
?CreateSocket@i3Udp@@QAEIXZ PROC			; i3Udp::CreateSocket, COMDAT
; _this$ = ecx

; 352  : {

  00000	55		 push	 ebp
  00001	8b ec		 mov	 ebp, esp
  00003	81 ec 98 01 00
	00		 sub	 esp, 408		; 00000198H
  00009	a1 00 00 00 00	 mov	 eax, DWORD PTR ___security_cookie
  0000e	33 c5		 xor	 eax, ebp
  00010	89 45 fc	 mov	 DWORD PTR __$ArrayPad$[ebp], eax

; 353  : 	if( s_bInetInited == false)i3Net::Init();

  00013	80 3d 00 00 00
	00 00		 cmp	 BYTE PTR ?s_bInetInited@@3_NA, 0
  0001a	57		 push	 edi
  0001b	8b f9		 mov	 edi, ecx
  0001d	75 33		 jne	 SHORT $LN8@CreateSock

; 20   : 	if( ::WSAStartup( MAKEWORD(2,2), &wsaData ) != 0 )

  0001f	8d 85 6c fe ff
	ff		 lea	 eax, DWORD PTR _wsaData$2[ebp]
  00025	50		 push	 eax
  00026	68 02 02 00 00	 push	 514			; 00000202H
  0002b	ff 15 00 00 00
	00		 call	 DWORD PTR __imp__WSAStartup@8
  00031	85 c0		 test	 eax, eax
  00033	75 1d		 jne	 SHORT $LN8@CreateSock

; 21   : 	{
; 22   : 		I3TRACE("WSAStartup Failed. \n");
; 23   : 		return FALSE; 
; 24   : 	}
; 25   : 
; 26   : 	if( wsaData.wVersion != MAKEWORD(2,2) )

  00035	b8 02 02 00 00	 mov	 eax, 514		; 00000202H
  0003a	66 39 85 6c fe
	ff ff		 cmp	 WORD PTR _wsaData$2[ebp], ax
  00041	74 08		 je	 SHORT $LN10@CreateSock

; 27   : 	{
; 28   : 		::WSACleanup();

  00043	ff 15 00 00 00
	00		 call	 DWORD PTR __imp__WSACleanup@0

; 29   : 		I3TRACE("WSAStart Version Failed. \n");
; 30   : 		return FALSE; 

  00049	eb 07		 jmp	 SHORT $LN8@CreateSock
$LN10@CreateSock:

; 31   : 	}
; 32   : #endif
; 33   : 
; 34   : 	s_bInetInited = true;

  0004b	c6 05 00 00 00
	00 01		 mov	 BYTE PTR ?s_bInetInited@@3_NA, 1
$LN8@CreateSock:

; 354  : 
; 355  : #ifdef I3_WINDOWS
; 356  : 	#ifdef I3_DEBUG
; 357  : 	if(m_Socket != INVALID_SOCKET)	I3ASSERT_0; 	
; 358  : 	#endif
; 359  : 	m_Socket = ::socket(AF_INET, SOCK_DGRAM, IPPROTO_UDP);

  00052	6a 11		 push	 17			; 00000011H
  00054	6a 02		 push	 2
  00056	6a 02		 push	 2
  00058	ff 15 00 00 00
	00		 call	 DWORD PTR __imp__socket@12
  0005e	89 47 10	 mov	 DWORD PTR [edi+16], eax

; 360  : 	if( INVALID_SOCKET == m_Socket )	return INVALID_SOCKET;

  00061	83 f8 ff	 cmp	 eax, -1
  00064	75 11		 jne	 SHORT $LN3@CreateSock
  00066	0b c0		 or	 eax, eax
  00068	5f		 pop	 edi

; 368  : 	}
; 369  : #endif
; 370  : 
; 371  : 	return m_Socket; 
; 372  : }

  00069	8b 4d fc	 mov	 ecx, DWORD PTR __$ArrayPad$[ebp]
  0006c	33 cd		 xor	 ecx, ebp
  0006e	e8 00 00 00 00	 call	 @__security_check_cookie@4
  00073	8b e5		 mov	 esp, ebp
  00075	5d		 pop	 ebp
  00076	c3		 ret	 0
$LN3@CreateSock:

; 361  : 
; 362  : 	if( m_Socket != INVALID_SOCKET)
; 363  : 	{
; 364  : 		int bufsz = 0xFFFF;
; 365  : 
; 366  : 		::setsockopt( m_Socket, IPPROTO_UDP, SO_RCVBUF, (const char *) &bufsz, sizeof(int));

  00077	6a 04		 push	 4
  00079	8d 8d 68 fe ff
	ff		 lea	 ecx, DWORD PTR _bufsz$1[ebp]
  0007f	c7 85 68 fe ff
	ff ff ff 00 00	 mov	 DWORD PTR _bufsz$1[ebp], 65535 ; 0000ffffH
  00089	51		 push	 ecx
  0008a	68 02 10 00 00	 push	 4098			; 00001002H
  0008f	6a 11		 push	 17			; 00000011H
  00091	50		 push	 eax
  00092	ff 15 00 00 00
	00		 call	 DWORD PTR __imp__setsockopt@20

; 367  : 		::setsockopt( m_Socket, IPPROTO_UDP, SO_SNDBUF, (const char *) &bufsz, sizeof(int));

  00098	6a 04		 push	 4
  0009a	8d 85 68 fe ff
	ff		 lea	 eax, DWORD PTR _bufsz$1[ebp]
  000a0	50		 push	 eax
  000a1	68 01 10 00 00	 push	 4097			; 00001001H
  000a6	6a 11		 push	 17			; 00000011H
  000a8	ff 77 10	 push	 DWORD PTR [edi+16]
  000ab	ff 15 00 00 00
	00		 call	 DWORD PTR __imp__setsockopt@20

; 368  : 	}
; 369  : #endif
; 370  : 
; 371  : 	return m_Socket; 
; 372  : }

  000b1	8b 4d fc	 mov	 ecx, DWORD PTR __$ArrayPad$[ebp]
  000b4	8b 47 10	 mov	 eax, DWORD PTR [edi+16]
  000b7	33 cd		 xor	 ecx, ebp
  000b9	5f		 pop	 edi
  000ba	e8 00 00 00 00	 call	 @__security_check_cookie@4
  000bf	8b e5		 mov	 esp, ebp
  000c1	5d		 pop	 ebp
  000c2	c3		 ret	 0
?CreateSocket@i3Udp@@QAEIXZ ENDP			; i3Udp::CreateSocket
_TEXT	ENDS
; Function compile flags: /Ogtp
; File E:\Proyectos\JuegosOnlineproyectos\PB\pbblow\Piercing Blow Remake\i3Server\src\i3Base\i3Inet.cpp
;	COMDAT ??1i3Udp@@UAE@XZ
_TEXT	SEGMENT
??1i3Udp@@UAE@XZ PROC					; i3Udp::~i3Udp, COMDAT
; _this$ = ecx

; 344  : {

  00000	56		 push	 esi
  00001	8b f1		 mov	 esi, ecx

; 345  : 	if( m_Socket != INVALID_SOCKET)

  00003	8b 46 10	 mov	 eax, DWORD PTR [esi+16]
  00006	c7 06 00 00 00
	00		 mov	 DWORD PTR [esi], OFFSET ??_7i3Udp@@6B@
  0000c	83 f8 ff	 cmp	 eax, -1
  0000f	74 19		 je	 SHORT $LN2@i3Udp

; 377  : 	::shutdown( m_Socket, 0); 

  00011	6a 00		 push	 0
  00013	50		 push	 eax
  00014	ff 15 00 00 00
	00		 call	 DWORD PTR __imp__shutdown@8

; 378  : 	::closesocket( m_Socket ); 

  0001a	ff 76 10	 push	 DWORD PTR [esi+16]
  0001d	ff 15 00 00 00
	00		 call	 DWORD PTR __imp__closesocket@4

; 379  : 	m_Socket = INVALID_SOCKET; 

  00023	c7 46 10 ff ff
	ff ff		 mov	 DWORD PTR [esi+16], -1
$LN2@i3Udp:

; 346  : 	{
; 347  : 		DeleteSocket();
; 348  : 	}
; 349  : }

  0002a	8b ce		 mov	 ecx, esi
  0002c	5e		 pop	 esi
  0002d	e9 00 00 00 00	 jmp	 ??1i3ElementBase@@UAE@XZ ; i3ElementBase::~i3ElementBase
??1i3Udp@@UAE@XZ ENDP					; i3Udp::~i3Udp
_TEXT	ENDS
; Function compile flags: /Ogtp
; File E:\Proyectos\JuegosOnlineproyectos\PB\pbblow\Piercing Blow Remake\i3Server\src\i3Base\i3Inet.cpp
;	COMDAT ??0i3Udp@@QAE@XZ
_TEXT	SEGMENT
_this$ = -4						; size = 4
??0i3Udp@@QAE@XZ PROC					; i3Udp::i3Udp, COMDAT
; _this$ = ecx

; 339  : {

  00000	55		 push	 ebp
  00001	8b ec		 mov	 ebp, esp
  00003	51		 push	 ecx
  00004	56		 push	 esi
  00005	8b f1		 mov	 esi, ecx
  00007	89 75 fc	 mov	 DWORD PTR _this$[ebp], esi
  0000a	e8 00 00 00 00	 call	 ??0i3ElementBase@@QAE@XZ ; i3ElementBase::i3ElementBase
  0000f	c7 06 00 00 00
	00		 mov	 DWORD PTR [esi], OFFSET ??_7i3Udp@@6B@

; 340  : 	m_Socket = INVALID_SOCKET;
; 341  : }

  00015	8b c6		 mov	 eax, esi
  00017	c7 46 10 ff ff
	ff ff		 mov	 DWORD PTR [esi+16], -1
  0001e	5e		 pop	 esi
  0001f	8b e5		 mov	 esp, ebp
  00021	5d		 pop	 ebp
  00022	c3		 ret	 0
??0i3Udp@@QAE@XZ ENDP					; i3Udp::i3Udp
_TEXT	ENDS
; Function compile flags: /Ogtp
; File E:\Proyectos\JuegosOnlineproyectos\PB\pbblow\Piercing Blow Remake\i3Server\src\i3Base\i3Inet.cpp
;	COMDAT ?_BindObjectRefByType@i3Udp@@SAPAV1@PAXW4I3_CLASSMETA_TYPE@@@Z
_TEXT	SEGMENT
_pBuf$ = 8						; size = 4
_type$ = 12						; size = 4
?_BindObjectRefByType@i3Udp@@SAPAV1@PAXW4I3_CLASSMETA_TYPE@@@Z PROC ; i3Udp::_BindObjectRefByType, COMDAT

; 4    : I3_CLASS_INSTANCE( i3Udp, i3ElementBase);

  00000	55		 push	 ebp
  00001	8b ec		 mov	 ebp, esp
  00003	8b 0d 00 00 00
	00		 mov	 ecx, DWORD PTR ?s_pClassMetai3Udp@i3Udp@@2PAVi3ClassMeta@@A ; i3Udp::s_pClassMetai3Udp
  00009	ff 75 0c	 push	 DWORD PTR _type$[ebp]
  0000c	ff 75 08	 push	 DWORD PTR _pBuf$[ebp]
  0000f	8b 01		 mov	 eax, DWORD PTR [ecx]
  00011	ff 50 08	 call	 DWORD PTR [eax+8]
  00014	5d		 pop	 ebp
  00015	c3		 ret	 0
?_BindObjectRefByType@i3Udp@@SAPAV1@PAXW4I3_CLASSMETA_TYPE@@@Z ENDP ; i3Udp::_BindObjectRefByType
_TEXT	ENDS
; Function compile flags: /Ogtp
; File E:\Proyectos\JuegosOnlineproyectos\PB\pbblow\Piercing Blow Remake\i3Server\src\i3Base\i3Inet.cpp
; File E:\Proyectos\JuegosOnlineproyectos\PB\pbblow\Piercing Blow Remake\i3Server\include\i3Base\i3ElementBase.h
; File E:\Proyectos\JuegosOnlineproyectos\PB\pbblow\Piercing Blow Remake\i3Server\src\i3Base\i3Inet.cpp
;	COMDAT ?_BindObjectByType@i3Udp@@SAPAV1@PAXW4I3_CLASSMETA_TYPE@@@Z
_TEXT	SEGMENT
_pBuf$ = 8						; size = 4
_type$ = 12						; size = 4
?_BindObjectByType@i3Udp@@SAPAV1@PAXW4I3_CLASSMETA_TYPE@@@Z PROC ; i3Udp::_BindObjectByType, COMDAT

; 4    : I3_CLASS_INSTANCE( i3Udp, i3ElementBase);

  00000	55		 push	 ebp
  00001	8b ec		 mov	 ebp, esp
  00003	8b 0d 00 00 00
	00		 mov	 ecx, DWORD PTR ?s_pClassMetai3Udp@i3Udp@@2PAVi3ClassMeta@@A ; i3Udp::s_pClassMetai3Udp
  00009	ff 75 0c	 push	 DWORD PTR _type$[ebp]
  0000c	ff 75 08	 push	 DWORD PTR _pBuf$[ebp]
  0000f	8b 01		 mov	 eax, DWORD PTR [ecx]
  00011	ff 50 08	 call	 DWORD PTR [eax+8]
; File E:\Proyectos\JuegosOnlineproyectos\PB\pbblow\Piercing Blow Remake\i3Server\include\i3Base\i3ElementBase.h

; 392  : 		m_RefCount++;

  00014	ff 40 04	 inc	 DWORD PTR [eax+4]
; File E:\Proyectos\JuegosOnlineproyectos\PB\pbblow\Piercing Blow Remake\i3Server\src\i3Base\i3Inet.cpp

; 4    : I3_CLASS_INSTANCE( i3Udp, i3ElementBase);

  00017	5d		 pop	 ebp
  00018	c3		 ret	 0
?_BindObjectByType@i3Udp@@SAPAV1@PAXW4I3_CLASSMETA_TYPE@@@Z ENDP ; i3Udp::_BindObjectByType
_TEXT	ENDS
; Function compile flags: /Ogtp
; File E:\Proyectos\JuegosOnlineproyectos\PB\pbblow\Piercing Blow Remake\i3Server\src\i3Base\i3Inet.cpp
;	COMDAT ?_NewObjectRefByType@i3Udp@@SAPAV1@W4I3_CLASSMETA_TYPE@@@Z
_TEXT	SEGMENT
_type$ = 8						; size = 4
?_NewObjectRefByType@i3Udp@@SAPAV1@W4I3_CLASSMETA_TYPE@@@Z PROC ; i3Udp::_NewObjectRefByType, COMDAT

; 4    : I3_CLASS_INSTANCE( i3Udp, i3ElementBase);

  00000	55		 push	 ebp
  00001	8b ec		 mov	 ebp, esp
  00003	8b 0d 00 00 00
	00		 mov	 ecx, DWORD PTR ?s_pClassMetai3Udp@i3Udp@@2PAVi3ClassMeta@@A ; i3Udp::s_pClassMetai3Udp
  00009	ff 75 08	 push	 DWORD PTR _type$[ebp]
  0000c	8b 01		 mov	 eax, DWORD PTR [ecx]
  0000e	ff 50 04	 call	 DWORD PTR [eax+4]
  00011	5d		 pop	 ebp
  00012	c3		 ret	 0
?_NewObjectRefByType@i3Udp@@SAPAV1@W4I3_CLASSMETA_TYPE@@@Z ENDP ; i3Udp::_NewObjectRefByType
_TEXT	ENDS
; Function compile flags: /Ogtp
; File E:\Proyectos\JuegosOnlineproyectos\PB\pbblow\Piercing Blow Remake\i3Server\src\i3Base\i3Inet.cpp
; File E:\Proyectos\JuegosOnlineproyectos\PB\pbblow\Piercing Blow Remake\i3Server\include\i3Base\i3ElementBase.h
; File E:\Proyectos\JuegosOnlineproyectos\PB\pbblow\Piercing Blow Remake\i3Server\src\i3Base\i3Inet.cpp
;	COMDAT ?_NewObjectByType@i3Udp@@SAPAV1@W4I3_CLASSMETA_TYPE@@@Z
_TEXT	SEGMENT
_type$ = 8						; size = 4
?_NewObjectByType@i3Udp@@SAPAV1@W4I3_CLASSMETA_TYPE@@@Z PROC ; i3Udp::_NewObjectByType, COMDAT

; 4    : I3_CLASS_INSTANCE( i3Udp, i3ElementBase);

  00000	55		 push	 ebp
  00001	8b ec		 mov	 ebp, esp
  00003	8b 0d 00 00 00
	00		 mov	 ecx, DWORD PTR ?s_pClassMetai3Udp@i3Udp@@2PAVi3ClassMeta@@A ; i3Udp::s_pClassMetai3Udp
  00009	ff 75 08	 push	 DWORD PTR _type$[ebp]
  0000c	8b 01		 mov	 eax, DWORD PTR [ecx]
  0000e	ff 50 04	 call	 DWORD PTR [eax+4]
; File E:\Proyectos\JuegosOnlineproyectos\PB\pbblow\Piercing Blow Remake\i3Server\include\i3Base\i3ElementBase.h

; 392  : 		m_RefCount++;

  00011	ff 40 04	 inc	 DWORD PTR [eax+4]
; File E:\Proyectos\JuegosOnlineproyectos\PB\pbblow\Piercing Blow Remake\i3Server\src\i3Base\i3Inet.cpp

; 4    : I3_CLASS_INSTANCE( i3Udp, i3ElementBase);

  00014	5d		 pop	 ebp
  00015	c3		 ret	 0
?_NewObjectByType@i3Udp@@SAPAV1@W4I3_CLASSMETA_TYPE@@@Z ENDP ; i3Udp::_NewObjectByType
_TEXT	ENDS
; Function compile flags: /Ogtp
; File E:\Proyectos\JuegosOnlineproyectos\PB\pbblow\Piercing Blow Remake\i3Server\src\i3Base\i3Inet.cpp
;	COMDAT ?_BindObjectRef@i3Udp@@SAPAV1@PAX@Z
_TEXT	SEGMENT
_pBuf$ = 8						; size = 4
?_BindObjectRef@i3Udp@@SAPAV1@PAX@Z PROC		; i3Udp::_BindObjectRef, COMDAT

; 4    : I3_CLASS_INSTANCE( i3Udp, i3ElementBase);

  00000	55		 push	 ebp
  00001	8b ec		 mov	 ebp, esp
  00003	8b 0d 00 00 00
	00		 mov	 ecx, DWORD PTR ?s_pClassMetai3Udp@i3Udp@@2PAVi3ClassMeta@@A ; i3Udp::s_pClassMetai3Udp
  00009	6a 00		 push	 0
  0000b	ff 75 08	 push	 DWORD PTR _pBuf$[ebp]
  0000e	8b 01		 mov	 eax, DWORD PTR [ecx]
  00010	ff 50 08	 call	 DWORD PTR [eax+8]
  00013	5d		 pop	 ebp
  00014	c3		 ret	 0
?_BindObjectRef@i3Udp@@SAPAV1@PAX@Z ENDP		; i3Udp::_BindObjectRef
_TEXT	ENDS
; Function compile flags: /Ogtp
; File E:\Proyectos\JuegosOnlineproyectos\PB\pbblow\Piercing Blow Remake\i3Server\src\i3Base\i3Inet.cpp
; File E:\Proyectos\JuegosOnlineproyectos\PB\pbblow\Piercing Blow Remake\i3Server\include\i3Base\i3ElementBase.h
; File E:\Proyectos\JuegosOnlineproyectos\PB\pbblow\Piercing Blow Remake\i3Server\src\i3Base\i3Inet.cpp
;	COMDAT ?_BindObject@i3Udp@@SAPAV1@PAX@Z
_TEXT	SEGMENT
_pBuf$ = 8						; size = 4
?_BindObject@i3Udp@@SAPAV1@PAX@Z PROC			; i3Udp::_BindObject, COMDAT

; 4    : I3_CLASS_INSTANCE( i3Udp, i3ElementBase);

  00000	55		 push	 ebp
  00001	8b ec		 mov	 ebp, esp
  00003	8b 0d 00 00 00
	00		 mov	 ecx, DWORD PTR ?s_pClassMetai3Udp@i3Udp@@2PAVi3ClassMeta@@A ; i3Udp::s_pClassMetai3Udp
  00009	6a 00		 push	 0
  0000b	ff 75 08	 push	 DWORD PTR _pBuf$[ebp]
  0000e	8b 01		 mov	 eax, DWORD PTR [ecx]
  00010	ff 50 08	 call	 DWORD PTR [eax+8]
; File E:\Proyectos\JuegosOnlineproyectos\PB\pbblow\Piercing Blow Remake\i3Server\include\i3Base\i3ElementBase.h

; 392  : 		m_RefCount++;

  00013	ff 40 04	 inc	 DWORD PTR [eax+4]
; File E:\Proyectos\JuegosOnlineproyectos\PB\pbblow\Piercing Blow Remake\i3Server\src\i3Base\i3Inet.cpp

; 4    : I3_CLASS_INSTANCE( i3Udp, i3ElementBase);

  00016	5d		 pop	 ebp
  00017	c3		 ret	 0
?_BindObject@i3Udp@@SAPAV1@PAX@Z ENDP			; i3Udp::_BindObject
_TEXT	ENDS
; Function compile flags: /Ogtp
; File E:\Proyectos\JuegosOnlineproyectos\PB\pbblow\Piercing Blow Remake\i3Server\src\i3Base\i3Inet.cpp
;	COMDAT ?_NewObjectRef@i3Udp@@SAPAV1@XZ
_TEXT	SEGMENT
?_NewObjectRef@i3Udp@@SAPAV1@XZ PROC			; i3Udp::_NewObjectRef, COMDAT

; 4    : I3_CLASS_INSTANCE( i3Udp, i3ElementBase);

  00000	8b 0d 00 00 00
	00		 mov	 ecx, DWORD PTR ?s_pClassMetai3Udp@i3Udp@@2PAVi3ClassMeta@@A ; i3Udp::s_pClassMetai3Udp
  00006	6a 00		 push	 0
  00008	8b 01		 mov	 eax, DWORD PTR [ecx]
  0000a	ff 50 04	 call	 DWORD PTR [eax+4]
  0000d	c3		 ret	 0
?_NewObjectRef@i3Udp@@SAPAV1@XZ ENDP			; i3Udp::_NewObjectRef
_TEXT	ENDS
; Function compile flags: /Ogtp
; File E:\Proyectos\JuegosOnlineproyectos\PB\pbblow\Piercing Blow Remake\i3Server\src\i3Base\i3Inet.cpp
; File E:\Proyectos\JuegosOnlineproyectos\PB\pbblow\Piercing Blow Remake\i3Server\include\i3Base\i3ElementBase.h
; File E:\Proyectos\JuegosOnlineproyectos\PB\pbblow\Piercing Blow Remake\i3Server\src\i3Base\i3Inet.cpp
;	COMDAT ?_NewObject@i3Udp@@SAPAV1@XZ
_TEXT	SEGMENT
?_NewObject@i3Udp@@SAPAV1@XZ PROC			; i3Udp::_NewObject, COMDAT

; 4    : I3_CLASS_INSTANCE( i3Udp, i3ElementBase);

  00000	8b 0d 00 00 00
	00		 mov	 ecx, DWORD PTR ?s_pClassMetai3Udp@i3Udp@@2PAVi3ClassMeta@@A ; i3Udp::s_pClassMetai3Udp
  00006	6a 00		 push	 0
  00008	8b 01		 mov	 eax, DWORD PTR [ecx]
  0000a	ff 50 04	 call	 DWORD PTR [eax+4]
; File E:\Proyectos\JuegosOnlineproyectos\PB\pbblow\Piercing Blow Remake\i3Server\include\i3Base\i3ElementBase.h

; 392  : 		m_RefCount++;

  0000d	ff 40 04	 inc	 DWORD PTR [eax+4]
; File E:\Proyectos\JuegosOnlineproyectos\PB\pbblow\Piercing Blow Remake\i3Server\src\i3Base\i3Inet.cpp

; 4    : I3_CLASS_INSTANCE( i3Udp, i3ElementBase);

  00010	c3		 ret	 0
?_NewObject@i3Udp@@SAPAV1@XZ ENDP			; i3Udp::_NewObject
_TEXT	ENDS
; Function compile flags: /Ogtp
; File E:\Proyectos\JuegosOnlineproyectos\PB\pbblow\Piercing Blow Remake\i3Server\src\i3Base\i3Inet.cpp
;	COMDAT ?SetGhostClass@i3Udp@@SAXPAVi3ClassMeta@@@Z
_TEXT	SEGMENT
_pMeta$ = 8						; size = 4
?SetGhostClass@i3Udp@@SAXPAVi3ClassMeta@@@Z PROC	; i3Udp::SetGhostClass, COMDAT

; 4    : I3_CLASS_INSTANCE( i3Udp, i3ElementBase);

  00000	55		 push	 ebp
  00001	8b ec		 mov	 ebp, esp
  00003	ff 75 08	 push	 DWORD PTR _pMeta$[ebp]
  00006	8b 0d 00 00 00
	00		 mov	 ecx, DWORD PTR ?s_pClassMetai3Udp@i3Udp@@2PAVi3ClassMeta@@A ; i3Udp::s_pClassMetai3Udp
  0000c	e8 00 00 00 00	 call	 ?SetGhostClass@i3ClassMeta@@QAEXPAV1@@Z ; i3ClassMeta::SetGhostClass
  00011	5d		 pop	 ebp
  00012	c3		 ret	 0
?SetGhostClass@i3Udp@@SAXPAVi3ClassMeta@@@Z ENDP	; i3Udp::SetGhostClass
_TEXT	ENDS
; Function compile flags: /Ogtp
; File E:\Proyectos\JuegosOnlineproyectos\PB\pbblow\Piercing Blow Remake\i3Server\src\i3Base\i3Inet.cpp
;	COMDAT ?SetConcreteClass@i3Udp@@SAXPAVi3ClassMeta@@@Z
_TEXT	SEGMENT
_pMeta$ = 8						; size = 4
?SetConcreteClass@i3Udp@@SAXPAVi3ClassMeta@@@Z PROC	; i3Udp::SetConcreteClass, COMDAT

; 4    : I3_CLASS_INSTANCE( i3Udp, i3ElementBase);

  00000	55		 push	 ebp
  00001	8b ec		 mov	 ebp, esp
  00003	ff 75 08	 push	 DWORD PTR _pMeta$[ebp]
  00006	8b 0d 00 00 00
	00		 mov	 ecx, DWORD PTR ?s_pClassMetai3Udp@i3Udp@@2PAVi3ClassMeta@@A ; i3Udp::s_pClassMetai3Udp
  0000c	e8 00 00 00 00	 call	 ?SetConcreteClass@i3ClassMeta@@QAEXPAV1@@Z ; i3ClassMeta::SetConcreteClass
  00011	5d		 pop	 ebp
  00012	c3		 ret	 0
?SetConcreteClass@i3Udp@@SAXPAVi3ClassMeta@@@Z ENDP	; i3Udp::SetConcreteClass
_TEXT	ENDS
; Function compile flags: /Ogtp
; File E:\Proyectos\JuegosOnlineproyectos\PB\pbblow\Piercing Blow Remake\i3Server\src\i3Base\i3Inet.cpp
;	COMDAT ?RegisterMeta@i3Udp@@SAXXZ
_TEXT	SEGMENT
?RegisterMeta@i3Udp@@SAXXZ PROC				; i3Udp::RegisterMeta, COMDAT

; 4    : I3_CLASS_INSTANCE( i3Udp, i3ElementBase);

  00000	8b 0d 00 00 00
	00		 mov	 ecx, DWORD PTR ?s_pClassMetai3Udp@i3Udp@@2PAVi3ClassMeta@@A ; i3Udp::s_pClassMetai3Udp
  00006	e9 00 00 00 00	 jmp	 ?Register@i3ClassMeta@@QAEXXZ ; i3ClassMeta::Register
?RegisterMeta@i3Udp@@SAXXZ ENDP				; i3Udp::RegisterMeta
_TEXT	ENDS
; Function compile flags: /Ogtp
; File E:\Proyectos\JuegosOnlineproyectos\PB\pbblow\Piercing Blow Remake\i3Server\src\i3Base\i3Inet.cpp
;	COMDAT ?GetMeta@i3Udp@@UAEPAVi3ClassMeta@@XZ
_TEXT	SEGMENT
?GetMeta@i3Udp@@UAEPAVi3ClassMeta@@XZ PROC		; i3Udp::GetMeta, COMDAT
; _this$ = ecx

; 4    : I3_CLASS_INSTANCE( i3Udp, i3ElementBase);

  00000	a1 00 00 00 00	 mov	 eax, DWORD PTR ?s_pClassMetai3Udp@i3Udp@@2PAVi3ClassMeta@@A ; i3Udp::s_pClassMetai3Udp
  00005	c3		 ret	 0
?GetMeta@i3Udp@@UAEPAVi3ClassMeta@@XZ ENDP		; i3Udp::GetMeta
_TEXT	ENDS
; Function compile flags: /Ogtp
; File E:\Proyectos\JuegosOnlineproyectos\PB\pbblow\Piercing Blow Remake\i3Server\include\i3Base\i3Inet.h
;	COMDAT ?GetClassMeta@i3Udp@@SAPAVi3ClassMeta@@XZ
_TEXT	SEGMENT
?GetClassMeta@i3Udp@@SAPAVi3ClassMeta@@XZ PROC		; i3Udp::GetClassMeta, COMDAT

; 60   : 	I3_CLASS_DEFINE( i3Udp );

  00000	a1 00 00 00 00	 mov	 eax, DWORD PTR ?s_pClassMetai3Udp@i3Udp@@2PAVi3ClassMeta@@A ; i3Udp::s_pClassMetai3Udp
  00005	c3		 ret	 0
?GetClassMeta@i3Udp@@SAPAVi3ClassMeta@@XZ ENDP		; i3Udp::GetClassMeta
_TEXT	ENDS
; Function compile flags: /Ogtp
; File E:\Proyectos\JuegosOnlineproyectos\PB\pbblow\Piercing Blow Remake\i3Server\src\i3Base\i3Inet.cpp
;	COMDAT ?GetIPToSockW@i3Net@@YAPAGPAUsockaddr_in@@PAG@Z
_TEXT	SEGMENT
_pSockAddr$ = 8						; size = 4
_wstrIP$ = 12						; size = 4
?GetIPToSockW@i3Net@@YAPAGPAUsockaddr_in@@PAG@Z PROC	; i3Net::GetIPToSockW, COMDAT

; 266  : {

  00000	55		 push	 ebp
  00001	8b ec		 mov	 ebp, esp

; 267  : 	return GetIPToLongW( pSockAddr->sin_addr.S_un.S_addr, wstrIP );

  00003	8b 45 08	 mov	 eax, DWORD PTR _pSockAddr$[ebp]
  00006	ff 75 0c	 push	 DWORD PTR _wstrIP$[ebp]
  00009	ff 70 04	 push	 DWORD PTR [eax+4]
  0000c	e8 00 00 00 00	 call	 ?GetIPToLongW@i3Net@@YAPAGIPAG@Z ; i3Net::GetIPToLongW
  00011	83 c4 08	 add	 esp, 8

; 268  : }

  00014	5d		 pop	 ebp
  00015	c3		 ret	 0
?GetIPToSockW@i3Net@@YAPAGPAUsockaddr_in@@PAG@Z ENDP	; i3Net::GetIPToSockW
_TEXT	ENDS
; Function compile flags: /Ogtp
; File E:\Proyectos\JuegosOnlineproyectos\PB\pbblow\Piercing Blow Remake\i3Server\src\i3Base\i3Inet.cpp
;	COMDAT ?GetIPToSockA@i3Net@@YAPADPAUsockaddr_in@@PAD@Z
_TEXT	SEGMENT
_pSockAddr$ = 8						; size = 4
_strIP$ = 12						; size = 4
?GetIPToSockA@i3Net@@YAPADPAUsockaddr_in@@PAD@Z PROC	; i3Net::GetIPToSockA, COMDAT

; 261  : {

  00000	55		 push	 ebp
  00001	8b ec		 mov	 ebp, esp

; 262  : 	return GetIPToLongA( pSockAddr->sin_addr.S_un.S_addr, strIP );	

  00003	8b 45 08	 mov	 eax, DWORD PTR _pSockAddr$[ebp]
  00006	ff 75 0c	 push	 DWORD PTR _strIP$[ebp]
  00009	ff 70 04	 push	 DWORD PTR [eax+4]
  0000c	e8 00 00 00 00	 call	 ?GetIPToLongA@i3Net@@YAPADIPAD@Z ; i3Net::GetIPToLongA
  00011	83 c4 08	 add	 esp, 8

; 263  : }

  00014	5d		 pop	 ebp
  00015	c3		 ret	 0
?GetIPToSockA@i3Net@@YAPADPAUsockaddr_in@@PAD@Z ENDP	; i3Net::GetIPToSockA
_TEXT	ENDS
; Function compile flags: /Ogtp
; File E:\Proyectos\JuegosOnlineproyectos\PB\pbblow\Piercing Blow Remake\i3Server\src\i3Base\i3Inet.cpp
;	COMDAT ?GetIPToLongW@i3Net@@YAPAGIPAG@Z
_TEXT	SEGMENT
_i$1$ = -16						; size = 4
_wstrTemp$ = -12					; size = 8
__$ArrayPad$ = -4					; size = 4
_ui32IP$ = 8						; size = 4
_wstrIP$ = 12						; size = 4
?GetIPToLongW@i3Net@@YAPAGIPAG@Z PROC			; i3Net::GetIPToLongW, COMDAT

; 304  : {

  00000	55		 push	 ebp
  00001	8b ec		 mov	 ebp, esp
  00003	83 ec 10	 sub	 esp, 16			; 00000010H
  00006	a1 00 00 00 00	 mov	 eax, DWORD PTR ___security_cookie
  0000b	33 c5		 xor	 eax, ebp
  0000d	89 45 fc	 mov	 DWORD PTR __$ArrayPad$[ebp], eax
  00010	53		 push	 ebx
  00011	8b 5d 0c	 mov	 ebx, DWORD PTR _wstrIP$[ebp]
  00014	56		 push	 esi

; 305  : 	INT32 i32Count = 0;

  00015	33 f6		 xor	 esi, esi
  00017	33 c0		 xor	 eax, eax
  00019	89 45 f0	 mov	 DWORD PTR _i$1$[ebp], eax
  0001c	57		 push	 edi
  0001d	8d 49 00	 npad	 3
$LL4@GetIPToLon:

; 306  : 	INT32 i32Count2;
; 307  : 	UINT32 ui32Temp;
; 308  : 	wchar_t wstrTemp[ 4 ];
; 309  : 
; 310  : 	for( INT32 i = 0 ; i < 4 ; i++ )
; 311  : 	{
; 312  : 		ui32Temp = (ui32IP >> (8 * i)) & 0x000000FF;

  00020	8d 0c c5 00 00
	00 00		 lea	 ecx, DWORD PTR [eax*8]
  00027	8b 45 08	 mov	 eax, DWORD PTR _ui32IP$[ebp]
  0002a	d3 e8		 shr	 eax, cl

; 313  : 
; 314  : 		i32Count2 = 0;

  0002c	33 c9		 xor	 ecx, ecx
  0002e	0f b6 f8	 movzx	 edi, al
$LL7@GetIPToLon:

; 315  : 		do
; 316  : 		{
; 317  : 			wstrTemp[ i32Count2 ] = (ui32Temp % 10) + L'0';

  00031	b8 cd cc cc cc	 mov	 eax, -858993459		; cccccccdH
  00036	f7 e7		 mul	 edi
  00038	c1 ea 03	 shr	 edx, 3
  0003b	8d 04 92	 lea	 eax, DWORD PTR [edx+edx*4]
  0003e	03 c0		 add	 eax, eax
  00040	2b f8		 sub	 edi, eax
  00042	83 c7 30	 add	 edi, 48			; 00000030H
  00045	66 89 7c 4d f4	 mov	 WORD PTR _wstrTemp$[ebp+ecx*2], di

; 318  : 			ui32Temp /= 10;

  0004a	8b fa		 mov	 edi, edx

; 319  : 			i32Count2++;

  0004c	41		 inc	 ecx

; 320  : 		} while( 0 < ui32Temp );

  0004d	85 ff		 test	 edi, edi
  0004f	75 e0		 jne	 SHORT $LL7@GetIPToLon
$LL19@GetIPToLon:

; 321  : 		
; 322  : 		do
; 323  : 		{
; 324  : 			i32Count2--;
; 325  : 			wstrIP[ i32Count ] = wstrTemp[ i32Count2 ];

  00051	66 8b 44 4d f2	 mov	 ax, WORD PTR _wstrTemp$[ebp+ecx*2-2]
  00056	49		 dec	 ecx
  00057	66 89 04 73	 mov	 WORD PTR [ebx+esi*2], ax

; 326  : 			i32Count++;

  0005b	46		 inc	 esi

; 327  : 		} while( 0 < i32Count2 );

  0005c	85 c9		 test	 ecx, ecx
  0005e	7f f1		 jg	 SHORT $LL19@GetIPToLon

; 328  : 		wstrIP[ i32Count ] = '.';

  00060	b8 2e 00 00 00	 mov	 eax, 46			; 0000002eH
  00065	66 89 04 73	 mov	 WORD PTR [ebx+esi*2], ax

; 329  : 		i32Count++;

  00069	46		 inc	 esi
  0006a	8b 45 f0	 mov	 eax, DWORD PTR _i$1$[ebp]
  0006d	40		 inc	 eax
  0006e	89 45 f0	 mov	 DWORD PTR _i$1$[ebp], eax
  00071	83 f8 04	 cmp	 eax, 4
  00074	7c aa		 jl	 SHORT $LL4@GetIPToLon

; 330  : 	}
; 331  : 	wstrIP[ i32Count-1 ] = L'\0';
; 332  : 
; 333  : 	return wstrIP;
; 334  : }

  00076	8b 4d fc	 mov	 ecx, DWORD PTR __$ArrayPad$[ebp]
  00079	33 c0		 xor	 eax, eax
  0007b	5f		 pop	 edi
  0007c	66 89 44 73 fe	 mov	 WORD PTR [ebx+esi*2-2], ax
  00081	33 cd		 xor	 ecx, ebp
  00083	5e		 pop	 esi
  00084	8b c3		 mov	 eax, ebx
  00086	5b		 pop	 ebx
  00087	e8 00 00 00 00	 call	 @__security_check_cookie@4
  0008c	8b e5		 mov	 esp, ebp
  0008e	5d		 pop	 ebp
  0008f	c3		 ret	 0
?GetIPToLongW@i3Net@@YAPAGIPAG@Z ENDP			; i3Net::GetIPToLongW
_TEXT	ENDS
; Function compile flags: /Ogtp
; File E:\Proyectos\JuegosOnlineproyectos\PB\pbblow\Piercing Blow Remake\i3Server\src\i3Base\i3Inet.cpp
;	COMDAT ?GetIPToLongA@i3Net@@YAPADIPAD@Z
_TEXT	SEGMENT
_strTemp$ = -8						; size = 4
_i$1$ = -4						; size = 4
_ui32IP$ = 8						; size = 4
_strIP$ = 12						; size = 4
_ui32Temp$1$ = 12					; size = 4
?GetIPToLongA@i3Net@@YAPADIPAD@Z PROC			; i3Net::GetIPToLongA, COMDAT

; 271  : {

  00000	55		 push	 ebp
  00001	8b ec		 mov	 ebp, esp
  00003	83 ec 08	 sub	 esp, 8
  00006	56		 push	 esi
  00007	57		 push	 edi
  00008	8b 7d 0c	 mov	 edi, DWORD PTR _strIP$[ebp]

; 272  : 	INT32 i32Count = 0;

  0000b	33 f6		 xor	 esi, esi
  0000d	33 c0		 xor	 eax, eax
  0000f	89 45 fc	 mov	 DWORD PTR _i$1$[ebp], eax
  00012	53		 push	 ebx
$LL4@GetIPToLon:

; 273  : 	INT32 i32Count2;
; 274  : 	UINT32 ui32Temp;
; 275  : 	char strTemp[ 4 ];
; 276  : 
; 277  : 	for( INT32 i = 0 ; i < 4 ; i++ )
; 278  : 	{
; 279  : 		ui32Temp = (ui32IP >> (8 * i)) & 0x000000FF;

  00013	8d 0c c5 00 00
	00 00		 lea	 ecx, DWORD PTR [eax*8]
  0001a	8b 45 08	 mov	 eax, DWORD PTR _ui32IP$[ebp]
  0001d	d3 e8		 shr	 eax, cl

; 280  : 
; 281  : 		i32Count2 = 0;

  0001f	33 c9		 xor	 ecx, ecx
  00021	0f b6 d0	 movzx	 edx, al
  00024	89 55 0c	 mov	 DWORD PTR _ui32Temp$1$[ebp], edx
  00027	eb 07 8d a4 24
	00 00 00 00	 npad	 9
$LL7@GetIPToLon:

; 282  : 		do
; 283  : 		{
; 284  : 			strTemp[ i32Count2 ] = (ui32Temp % 10) + L'0';

  00030	b8 cd cc cc cc	 mov	 eax, -858993459		; cccccccdH
  00035	f7 e2		 mul	 edx
  00037	c1 ea 03	 shr	 edx, 3
  0003a	8a c2		 mov	 al, dl
  0003c	c0 e0 02	 shl	 al, 2
  0003f	8d 1c 10	 lea	 ebx, DWORD PTR [eax+edx]
  00042	8b 45 0c	 mov	 eax, DWORD PTR _ui32Temp$1$[ebp]
  00045	02 db		 add	 bl, bl
  00047	2a c3		 sub	 al, bl
  00049	04 30		 add	 al, 48			; 00000030H
  0004b	88 44 0d f8	 mov	 BYTE PTR _strTemp$[ebp+ecx], al

; 285  : 			ui32Temp /= 10;

  0004f	8b c2		 mov	 eax, edx

; 286  : 			i32Count2++;

  00051	41		 inc	 ecx
  00052	89 45 0c	 mov	 DWORD PTR _ui32Temp$1$[ebp], eax

; 287  : 		} while( 0 < ui32Temp );

  00055	85 c0		 test	 eax, eax
  00057	75 d7		 jne	 SHORT $LL7@GetIPToLon
  00059	8d a4 24 00 00
	00 00		 npad	 7
$LL19@GetIPToLon:

; 288  : 		
; 289  : 		do
; 290  : 		{
; 291  : 			i32Count2--;
; 292  : 			strIP[ i32Count ] = strTemp[ i32Count2 ];

  00060	8a 44 0d f7	 mov	 al, BYTE PTR _strTemp$[ebp+ecx-1]
  00064	49		 dec	 ecx
  00065	8b d6		 mov	 edx, esi

; 293  : 			i32Count++;

  00067	46		 inc	 esi
  00068	88 04 17	 mov	 BYTE PTR [edi+edx], al

; 294  : 		} while( 0 < i32Count2 );

  0006b	85 c9		 test	 ecx, ecx
  0006d	7f f1		 jg	 SHORT $LL19@GetIPToLon

; 295  : 		strIP[ i32Count ] = '.';
; 296  : 		i32Count++;

  0006f	8b 45 fc	 mov	 eax, DWORD PTR _i$1$[ebp]
  00072	46		 inc	 esi
  00073	40		 inc	 eax
  00074	c6 44 17 01 2e	 mov	 BYTE PTR [edi+edx+1], 46 ; 0000002eH
  00079	89 45 fc	 mov	 DWORD PTR _i$1$[ebp], eax
  0007c	83 f8 04	 cmp	 eax, 4
  0007f	7c 92		 jl	 SHORT $LL4@GetIPToLon

; 297  : 	}
; 298  : 	strIP[ i32Count-1 ] = L'\0';

  00081	5b		 pop	 ebx
  00082	c6 44 3e ff 00	 mov	 BYTE PTR [esi+edi-1], 0

; 299  : 
; 300  : 	return strIP;

  00087	8b c7		 mov	 eax, edi
  00089	5f		 pop	 edi
  0008a	5e		 pop	 esi

; 301  : }

  0008b	8b e5		 mov	 esp, ebp
  0008d	5d		 pop	 ebp
  0008e	c3		 ret	 0
?GetIPToLongA@i3Net@@YAPADIPAD@Z ENDP			; i3Net::GetIPToLongA
_TEXT	ENDS
; Function compile flags: /Ogtp
; File E:\Proyectos\JuegosOnlineproyectos\PB\pbblow\Piercing Blow Remake\i3Server\src\i3Base\i3Inet.cpp
;	COMDAT ?GetError@i3Net@@YAHPAD@Z
_TEXT	SEGMENT
_pString$ = 8						; size = 4
?GetError@i3Net@@YAHPAD@Z PROC				; i3Net::GetError, COMDAT

; 179  : 	INT32 ErrorId; 
; 180  : #if defined( I3_WINDOWS )// || defined( I3_WINCE )
; 181  : 	ErrorId = WSAGetLastError();

  00000	ff 25 00 00 00
	00		 jmp	 DWORD PTR __imp__WSAGetLastError@0
?GetError@i3Net@@YAHPAD@Z ENDP				; i3Net::GetError
_TEXT	ENDS
; Function compile flags: /Ogtp
; File E:\Proyectos\JuegosOnlineproyectos\PB\pbblow\Piercing Blow Remake\i3Server\src\i3Base\i3Inet.cpp
; File E:\Proyectos\JuegosOnlineproyectos\PB\pbblow\Piercing Blow Remake\i3Server\include\i3Base\i3Memory.h
; File E:\Proyectos\JuegosOnlineproyectos\PB\pbblow\Piercing Blow Remake\i3Server\src\i3Base\i3Inet.cpp
; File E:\Proyectos\JuegosOnlineproyectos\PB\pbblow\Piercing Blow Remake\i3Server\include\i3Base\i3Memory.h
; File E:\Proyectos\JuegosOnlineproyectos\PB\pbblow\Piercing Blow Remake\i3Server\src\i3Base\i3Inet.cpp
;	COMDAT ?GetMACAddress@i3Net@@YAHPA_KH@Z
_TEXT	SEGMENT
tv152 = -10380						; size = 4
_ulOutBufLen$ = -10376					; size = 4
_AdapterInfo$ = -10372					; size = 10368
__$ArrayPad$ = -4					; size = 4
_pMAC$ = 8						; size = 4
_nNICCount$ = 12					; size = 4
?GetMACAddress@i3Net@@YAHPA_KH@Z PROC			; i3Net::GetMACAddress, COMDAT

; 141  : {

  00000	55		 push	 ebp
  00001	8b ec		 mov	 ebp, esp
  00003	b8 8c 28 00 00	 mov	 eax, 10380		; 0000288cH
  00008	e8 00 00 00 00	 call	 __chkstk
  0000d	a1 00 00 00 00	 mov	 eax, DWORD PTR ___security_cookie
  00012	33 c5		 xor	 eax, ebp
  00014	89 45 fc	 mov	 DWORD PTR __$ArrayPad$[ebp], eax
  00017	53		 push	 ebx
  00018	8b 5d 08	 mov	 ebx, DWORD PTR _pMAC$[ebp]

; 142  : 	INT32 nAdapterCount = 0;
; 143  : 
; 144  : #if defined( I3_WINDOWS )
; 145  : 	if( 16 < nNICCount) nNICCount = 16;
; 146  : 
; 147  : 	IP_ADAPTER_INFO AdapterInfo[16];	// NICs 16°ł±îÁö	Á¦ÇŃ
; 148  : 	PIP_ADAPTER_INFO pAdapter = NULL;
; 149  : 	ULONG ulOutBufLen = sizeof(AdapterInfo);
; 150  : 
; 151  : 	if( ::GetAdaptersInfo(AdapterInfo, &ulOutBufLen) == ERROR_SUCCESS ) 

  0001b	8d 85 78 d7 ff
	ff		 lea	 eax, DWORD PTR _ulOutBufLen$[ebp]
  00021	56		 push	 esi
  00022	57		 push	 edi
  00023	be 10 00 00 00	 mov	 esi, 16			; 00000010H
  00028	c7 85 78 d7 ff
	ff 80 28 00 00	 mov	 DWORD PTR _ulOutBufLen$[ebp], 10368 ; 00002880H
  00032	33 ff		 xor	 edi, edi
  00034	39 75 0c	 cmp	 DWORD PTR _nNICCount$[ebp], esi
  00037	50		 push	 eax
  00038	0f 4e 75 0c	 cmovle	 esi, DWORD PTR _nNICCount$[ebp]
  0003c	8d 85 7c d7 ff
	ff		 lea	 eax, DWORD PTR _AdapterInfo$[ebp]
  00042	50		 push	 eax
  00043	89 b5 74 d7 ff
	ff		 mov	 DWORD PTR tv152[ebp], esi
  00049	ff 15 00 00 00
	00		 call	 DWORD PTR __imp__GetAdaptersInfo@8
  0004f	85 c0		 test	 eax, eax
  00051	75 32		 jne	 SHORT $LN14@GetMACAddr

; 152  : 	{
; 153  : 		pAdapter = AdapterInfo;

  00053	8d 8d 7c d7 ff
	ff		 lea	 ecx, DWORD PTR _AdapterInfo$[ebp]
  00059	8d a4 24 00 00
	00 00		 npad	 7
$LL2@GetMACAddr:

; 154  : 		while(pAdapter && nAdapterCount < nNICCount)

  00060	3b fe		 cmp	 edi, esi
  00062	7d 21		 jge	 SHORT $LN14@GetMACAddr
; File E:\Proyectos\JuegosOnlineproyectos\PB\pbblow\Piercing Blow Remake\i3Server\include\i3Base\i3Memory.h

; 134  : 			::CopyMemory( pDest, pSrc, sz);

  00064	8b b1 98 01 00
	00		 mov	 esi, DWORD PTR [ecx+408]
; File E:\Proyectos\JuegosOnlineproyectos\PB\pbblow\Piercing Blow Remake\i3Server\src\i3Base\i3Inet.cpp

; 156  : 			nAdapterCount++;

  0006a	47		 inc	 edi
; File E:\Proyectos\JuegosOnlineproyectos\PB\pbblow\Piercing Blow Remake\i3Server\include\i3Base\i3Memory.h

; 134  : 			::CopyMemory( pDest, pSrc, sz);

  0006b	8b 91 94 01 00
	00		 mov	 edx, DWORD PTR [ecx+404]
  00071	89 13		 mov	 DWORD PTR [ebx], edx
  00073	89 73 04	 mov	 DWORD PTR [ebx+4], esi
; File E:\Proyectos\JuegosOnlineproyectos\PB\pbblow\Piercing Blow Remake\i3Server\src\i3Base\i3Inet.cpp

; 161  : 			pMAC++;

  00076	83 c3 08	 add	 ebx, 8
  00079	8b 09		 mov	 ecx, DWORD PTR [ecx]
  0007b	8b b5 74 d7 ff
	ff		 mov	 esi, DWORD PTR tv152[ebp]
  00081	85 c9		 test	 ecx, ecx
  00083	75 db		 jne	 SHORT $LL2@GetMACAddr
$LN14@GetMACAddr:

; 162  : 		}
; 163  : 	}
; 164  : #endif
; 165  : 
; 166  : 	return nAdapterCount;	// ľňľîł˝ MAC address Ľö
; 167  : }

  00085	8b 4d fc	 mov	 ecx, DWORD PTR __$ArrayPad$[ebp]
  00088	8b c7		 mov	 eax, edi
  0008a	5f		 pop	 edi
  0008b	5e		 pop	 esi
  0008c	33 cd		 xor	 ecx, ebp
  0008e	5b		 pop	 ebx
  0008f	e8 00 00 00 00	 call	 @__security_check_cookie@4
  00094	8b e5		 mov	 esp, ebp
  00096	5d		 pop	 ebp
  00097	c3		 ret	 0
?GetMACAddress@i3Net@@YAHPA_KH@Z ENDP			; i3Net::GetMACAddress
_TEXT	ENDS
; Function compile flags: /Ogtp
; File E:\Proyectos\JuegosOnlineproyectos\PB\pbblow\Piercing Blow Remake\i3Server\src\i3Base\i3Inet.cpp
; File E:\Proyectos\JuegosOnlineproyectos\PB\pbblow\Piercing Blow Remake\i3Server\include\i3Base\i3Memory.h
; File E:\Proyectos\JuegosOnlineproyectos\PB\pbblow\Piercing Blow Remake\i3Server\src\i3Base\i3Inet.cpp
; File E:\Proyectos\JuegosOnlineproyectos\PB\pbblow\Piercing Blow Remake\i3Server\include\i3Base\i3Memory.h
; File E:\Proyectos\JuegosOnlineproyectos\PB\pbblow\Piercing Blow Remake\i3Server\src\i3Base\i3Inet.cpp
; File E:\Proyectos\JuegosOnlineproyectos\PB\pbblow\Piercing Blow Remake\i3Server\include\i3Base\i3Memory.h
; File E:\Proyectos\JuegosOnlineproyectos\PB\pbblow\Piercing Blow Remake\i3Server\src\i3Base\i3Inet.cpp
;	COMDAT ?GetName@i3Net@@YAXHPAUsockaddr_in@@@Z
_TEXT	SEGMENT
_len$ = -24						; size = 4
_addr$ = -20						; size = 16
__$ArrayPad$ = -4					; size = 4
_Socket$ = 8						; size = 4
_plocaladdr$ = 12					; size = 4
?GetName@i3Net@@YAXHPAUsockaddr_in@@@Z PROC		; i3Net::GetName, COMDAT

; 102  : {

  00000	55		 push	 ebp
  00001	8b ec		 mov	 ebp, esp
  00003	83 ec 18	 sub	 esp, 24			; 00000018H
  00006	a1 00 00 00 00	 mov	 eax, DWORD PTR ___security_cookie
  0000b	33 c5		 xor	 eax, ebp
  0000d	89 45 fc	 mov	 DWORD PTR __$ArrayPad$[ebp], eax
  00010	56		 push	 esi
  00011	8b 75 0c	 mov	 esi, DWORD PTR _plocaladdr$[ebp]

; 103  : #if defined( I3_WINDOWS )// || defined( I3_WINCE )
; 104  : 	sockaddr	addr;
; 105  : 	INT32		len = sizeof( sockaddr );
; 106  : 	::getsockname( Socket, &addr, &len );

  00014	8d 45 e8	 lea	 eax, DWORD PTR _len$[ebp]
  00017	50		 push	 eax
  00018	8d 45 ec	 lea	 eax, DWORD PTR _addr$[ebp]
  0001b	c7 45 e8 10 00
	00 00		 mov	 DWORD PTR _len$[ebp], 16 ; 00000010H
  00022	50		 push	 eax
  00023	ff 75 08	 push	 DWORD PTR _Socket$[ebp]
  00026	ff 15 00 00 00
	00		 call	 DWORD PTR __imp__getsockname@12
; File E:\Proyectos\JuegosOnlineproyectos\PB\pbblow\Piercing Blow Remake\i3Server\include\i3Base\i3Memory.h

; 134  : 			::CopyMemory( pDest, pSrc, sz);

  0002c	8b 45 ec	 mov	 eax, DWORD PTR _addr$[ebp]
; File E:\Proyectos\JuegosOnlineproyectos\PB\pbblow\Piercing Blow Remake\i3Server\src\i3Base\i3Inet.cpp

; 109  : }

  0002f	8b 4d fc	 mov	 ecx, DWORD PTR __$ArrayPad$[ebp]
; File E:\Proyectos\JuegosOnlineproyectos\PB\pbblow\Piercing Blow Remake\i3Server\include\i3Base\i3Memory.h

; 134  : 			::CopyMemory( pDest, pSrc, sz);

  00032	89 06		 mov	 DWORD PTR [esi], eax
; File E:\Proyectos\JuegosOnlineproyectos\PB\pbblow\Piercing Blow Remake\i3Server\src\i3Base\i3Inet.cpp

; 109  : }

  00034	33 cd		 xor	 ecx, ebp
; File E:\Proyectos\JuegosOnlineproyectos\PB\pbblow\Piercing Blow Remake\i3Server\include\i3Base\i3Memory.h

; 134  : 			::CopyMemory( pDest, pSrc, sz);

  00036	8b 45 f0	 mov	 eax, DWORD PTR _addr$[ebp+4]
  00039	89 46 04	 mov	 DWORD PTR [esi+4], eax
  0003c	8b 45 f4	 mov	 eax, DWORD PTR _addr$[ebp+8]
  0003f	89 46 08	 mov	 DWORD PTR [esi+8], eax
  00042	8b 45 f8	 mov	 eax, DWORD PTR _addr$[ebp+12]
  00045	89 46 0c	 mov	 DWORD PTR [esi+12], eax
  00048	5e		 pop	 esi
; File E:\Proyectos\JuegosOnlineproyectos\PB\pbblow\Piercing Blow Remake\i3Server\src\i3Base\i3Inet.cpp

; 109  : }

  00049	e8 00 00 00 00	 call	 @__security_check_cookie@4
  0004e	8b e5		 mov	 esp, ebp
  00050	5d		 pop	 ebp
  00051	c3		 ret	 0
?GetName@i3Net@@YAXHPAUsockaddr_in@@@Z ENDP		; i3Net::GetName
_TEXT	ENDS
; Function compile flags: /Ogtp
; File E:\Proyectos\JuegosOnlineproyectos\PB\pbblow\Piercing Blow Remake\i3Server\src\i3Base\i3Inet.cpp
;	COMDAT ?GetMyAddressList@i3Net@@YAPADPAH@Z
_TEXT	SEGMENT
_pOutCount$GSCopy$1$ = -44				; size = 4
_pAddress$1$ = -40					; size = 4
_szHostName$ = -36					; size = 30
__$ArrayPad$ = -4					; size = 4
_pOutCount$ = 8						; size = 4
?GetMyAddressList@i3Net@@YAPADPAH@Z PROC		; i3Net::GetMyAddressList, COMDAT

; 67   : {

  00000	55		 push	 ebp
  00001	8b ec		 mov	 ebp, esp
  00003	83 ec 2c	 sub	 esp, 44			; 0000002cH
  00006	a1 00 00 00 00	 mov	 eax, DWORD PTR ___security_cookie
  0000b	33 c5		 xor	 eax, ebp
  0000d	89 45 fc	 mov	 DWORD PTR __$ArrayPad$[ebp], eax
  00010	8b 45 08	 mov	 eax, DWORD PTR _pOutCount$[ebp]
  00013	53		 push	 ebx
  00014	89 45 d4	 mov	 DWORD PTR _pOutCount$GSCopy$1$[ebp], eax

; 68   : #if defined( I3_WINDOWS )
; 69   : 	struct	hostent *pHosten = NULL;
; 70   : 	char	szHostName[30];
; 71   : 	if( SOCKET_ERROR != gethostname(szHostName,30) )

  00017	8d 45 dc	 lea	 eax, DWORD PTR _szHostName$[ebp]
  0001a	6a 1e		 push	 30			; 0000001eH
  0001c	50		 push	 eax
  0001d	ff 15 00 00 00
	00		 call	 DWORD PTR __imp__gethostname@8
  00023	83 f8 ff	 cmp	 eax, -1
  00026	74 7a		 je	 SHORT $LN7@GetMyAddre

; 72   : 	{
; 73   : 		pHosten = gethostbyname((const char FAR*)szHostName);

  00028	8d 45 dc	 lea	 eax, DWORD PTR _szHostName$[ebp]
  0002b	50		 push	 eax
  0002c	ff 15 00 00 00
	00		 call	 DWORD PTR __imp__gethostbyname@4
  00032	8b d8		 mov	 ebx, eax

; 74   : 		if( pHosten)

  00034	85 db		 test	 ebx, ebx
  00036	74 6a		 je	 SHORT $LN7@GetMyAddre

; 75   : 		{
; 76   : 			INT32 i = 0;
; 77   : 			INT32 count = 0;
; 78   : 
; 79   : 			while( pHosten->h_addr_list[ count] != NULL)

  00038	8b 4b 0c	 mov	 ecx, DWORD PTR [ebx+12]
  0003b	56		 push	 esi
  0003c	57		 push	 edi
  0003d	33 f6		 xor	 esi, esi
  0003f	33 ff		 xor	 edi, edi
  00041	39 31		 cmp	 DWORD PTR [ecx], esi
  00043	74 06		 je	 SHORT $LN3@GetMyAddre
$LL2@GetMyAddre:

; 80   : 				count++;

  00045	46		 inc	 esi
  00046	39 3c b1	 cmp	 DWORD PTR [ecx+esi*4], edi
  00049	75 fa		 jne	 SHORT $LL2@GetMyAddre
$LN3@GetMyAddre:

; 81   : 
; 82   : 			char * pAddress = (char*) i3MemAlloc( sizeof(char) * 4 * count);

  0004b	6a 52		 push	 82			; 00000052H
  0004d	68 00 00 00 00	 push	 OFFSET ??_C@_0GB@PPDLENMJ@E?3?2Proyectos?2JuegosOnlineproyec@
  00052	6a 10		 push	 16			; 00000010H
  00054	8d 04 b5 00 00
	00 00		 lea	 eax, DWORD PTR [esi*4]
  0005b	6a 00		 push	 0
  0005d	50		 push	 eax
  0005e	e8 00 00 00 00	 call	 ?AllocTool@i3mem@@YAPAXHHHPBDH@Z ; i3mem::AllocTool

; 83   : 			char * pTemp = pAddress;
; 84   : 
; 85   : 			while( pHosten->h_addr_list[ i] != NULL)

  00063	8b 4b 0c	 mov	 ecx, DWORD PTR [ebx+12]
  00066	83 c4 14	 add	 esp, 20			; 00000014H
  00069	89 45 d8	 mov	 DWORD PTR _pAddress$1$[ebp], eax
  0006c	8b d0		 mov	 edx, eax
  0006e	39 39		 cmp	 DWORD PTR [ecx], edi
  00070	74 1a		 je	 SHORT $LN5@GetMyAddre
$LL4@GetMyAddre:

; 86   : 			{	
; 87   : 				memcpy( pTemp, pHosten->h_addr_list[i++], 4);

  00072	8b 04 b9	 mov	 eax, DWORD PTR [ecx+edi*4]
  00075	8d 7f 01	 lea	 edi, DWORD PTR [edi+1]

; 88   : 				pTemp += 4;

  00078	8d 52 04	 lea	 edx, DWORD PTR [edx+4]
  0007b	8b 00		 mov	 eax, DWORD PTR [eax]
  0007d	89 42 fc	 mov	 DWORD PTR [edx-4], eax
  00080	8b 4b 0c	 mov	 ecx, DWORD PTR [ebx+12]
  00083	83 3c b9 00	 cmp	 DWORD PTR [ecx+edi*4], 0
  00087	75 e9		 jne	 SHORT $LL4@GetMyAddre
  00089	8b 45 d8	 mov	 eax, DWORD PTR _pAddress$1$[ebp]
$LN5@GetMyAddre:

; 89   : 			}
; 90   : 
; 91   : 			*pOutCount = count;

  0008c	8b 4d d4	 mov	 ecx, DWORD PTR _pOutCount$GSCopy$1$[ebp]

; 92   : 
; 93   : 			return pAddress;

  0008f	5f		 pop	 edi
  00090	89 31		 mov	 DWORD PTR [ecx], esi
  00092	5e		 pop	 esi
  00093	5b		 pop	 ebx

; 94   : 		}
; 95   : 	}
; 96   : #endif
; 97   : 
; 98   : 	return NULL;
; 99   : }

  00094	8b 4d fc	 mov	 ecx, DWORD PTR __$ArrayPad$[ebp]
  00097	33 cd		 xor	 ecx, ebp
  00099	e8 00 00 00 00	 call	 @__security_check_cookie@4
  0009e	8b e5		 mov	 esp, ebp
  000a0	5d		 pop	 ebp
  000a1	c3		 ret	 0
$LN7@GetMyAddre:
  000a2	8b 4d fc	 mov	 ecx, DWORD PTR __$ArrayPad$[ebp]
  000a5	33 c0		 xor	 eax, eax
  000a7	33 cd		 xor	 ecx, ebp
  000a9	5b		 pop	 ebx
  000aa	e8 00 00 00 00	 call	 @__security_check_cookie@4
  000af	8b e5		 mov	 esp, ebp
  000b1	5d		 pop	 ebp
  000b2	c3		 ret	 0
?GetMyAddressList@i3Net@@YAPADPAH@Z ENDP		; i3Net::GetMyAddressList
_TEXT	ENDS
; Function compile flags: /Ogtp
; File E:\Proyectos\JuegosOnlineproyectos\PB\pbblow\Piercing Blow Remake\i3Server\src\i3Base\i3Inet.cpp
;	COMDAT ?DestroySocket@i3Net@@YAXI@Z
_TEXT	SEGMENT
_hSocket$ = 8						; size = 4
?DestroySocket@i3Net@@YAXI@Z PROC			; i3Net::DestroySocket, COMDAT

; 57   : {

  00000	55		 push	 ebp
  00001	8b ec		 mov	 ebp, esp
  00003	56		 push	 esi

; 58   : 	if( INVALID_SOCKET != hSocket )

  00004	8b 75 08	 mov	 esi, DWORD PTR _hSocket$[ebp]
  00007	83 fe ff	 cmp	 esi, -1
  0000a	74 10		 je	 SHORT $LN2@DestroySoc

; 59   : 	{
; 60   : 		::shutdown(hSocket, SD_BOTH);

  0000c	6a 02		 push	 2
  0000e	56		 push	 esi
  0000f	ff 15 00 00 00
	00		 call	 DWORD PTR __imp__shutdown@8

; 61   : 		::closesocket(hSocket);

  00015	56		 push	 esi
  00016	ff 15 00 00 00
	00		 call	 DWORD PTR __imp__closesocket@4
$LN2@DestroySoc:
  0001c	5e		 pop	 esi

; 62   : 		hSocket = INVALID_SOCKET;
; 63   : 	}
; 64   : }

  0001d	5d		 pop	 ebp
  0001e	c3		 ret	 0
?DestroySocket@i3Net@@YAXI@Z ENDP			; i3Net::DestroySocket
_TEXT	ENDS
; Function compile flags: /Ogtp
; File E:\Proyectos\JuegosOnlineproyectos\PB\pbblow\Piercing Blow Remake\i3Server\src\i3Base\i3Inet.cpp
;	COMDAT ?GetMyAddress@i3Net@@YAHPAD@Z
_TEXT	SEGMENT
_szHostName$ = -36					; size = 30
__$ArrayPad$ = -4					; size = 4
_pAdress$ = 8						; size = 4
?GetMyAddress@i3Net@@YAHPAD@Z PROC			; i3Net::GetMyAddress, COMDAT

; 40   : {

  00000	55		 push	 ebp
  00001	8b ec		 mov	 ebp, esp
  00003	83 ec 24	 sub	 esp, 36			; 00000024H
  00006	a1 00 00 00 00	 mov	 eax, DWORD PTR ___security_cookie
  0000b	33 c5		 xor	 eax, ebp
  0000d	89 45 fc	 mov	 DWORD PTR __$ArrayPad$[ebp], eax
  00010	56		 push	 esi
  00011	8b 75 08	 mov	 esi, DWORD PTR _pAdress$[ebp]

; 41   : #if defined( I3_WINDOWS )// || defined( I3_WINCE )
; 42   : 	struct	hostent *pHosten = NULL;
; 43   : 	char	szHostName[30];
; 44   : 	if( SOCKET_ERROR != gethostname(szHostName,30) )

  00014	8d 45 dc	 lea	 eax, DWORD PTR _szHostName$[ebp]
  00017	6a 1e		 push	 30			; 0000001eH
  00019	50		 push	 eax
  0001a	ff 15 00 00 00
	00		 call	 DWORD PTR __imp__gethostname@8
  00020	83 f8 ff	 cmp	 eax, -1
  00023	74 2b		 je	 SHORT $LN2@GetMyAddre

; 45   : 	{
; 46   : 		pHosten = gethostbyname((const char FAR*)szHostName);

  00025	8d 45 dc	 lea	 eax, DWORD PTR _szHostName$[ebp]
  00028	50		 push	 eax
  00029	ff 15 00 00 00
	00		 call	 DWORD PTR __imp__gethostbyname@4

; 47   : 		if(pHosten)

  0002f	85 c0		 test	 eax, eax
  00031	74 1d		 je	 SHORT $LN2@GetMyAddre

; 48   : 		{	
; 49   : 			memcpy( pAdress ,pHosten->h_addr,4);

  00033	8b 40 0c	 mov	 eax, DWORD PTR [eax+12]
  00036	8b 00		 mov	 eax, DWORD PTR [eax]
  00038	8b 00		 mov	 eax, DWORD PTR [eax]
  0003a	89 06		 mov	 DWORD PTR [esi], eax

; 50   : 		}else return FALSE; 
; 51   : 	}else return FALSE; 
; 52   : #endif
; 53   : 	return TRUE; 

  0003c	b8 01 00 00 00	 mov	 eax, 1
  00041	5e		 pop	 esi

; 54   : }

  00042	8b 4d fc	 mov	 ecx, DWORD PTR __$ArrayPad$[ebp]
  00045	33 cd		 xor	 ecx, ebp
  00047	e8 00 00 00 00	 call	 @__security_check_cookie@4
  0004c	8b e5		 mov	 esp, ebp
  0004e	5d		 pop	 ebp
  0004f	c3		 ret	 0
$LN2@GetMyAddre:
  00050	8b 4d fc	 mov	 ecx, DWORD PTR __$ArrayPad$[ebp]
  00053	33 c0		 xor	 eax, eax
  00055	33 cd		 xor	 ecx, ebp
  00057	5e		 pop	 esi
  00058	e8 00 00 00 00	 call	 @__security_check_cookie@4
  0005d	8b e5		 mov	 esp, ebp
  0005f	5d		 pop	 ebp
  00060	c3		 ret	 0
?GetMyAddress@i3Net@@YAHPAD@Z ENDP			; i3Net::GetMyAddress
_TEXT	ENDS
; Function compile flags: /Ogtp
; File E:\Proyectos\JuegosOnlineproyectos\PB\pbblow\Piercing Blow Remake\i3Server\src\i3Base\i3Inet.cpp
;	COMDAT ?Destroy@i3Net@@YAXXZ
_TEXT	SEGMENT
?Destroy@i3Net@@YAXXZ PROC				; i3Net::Destroy, COMDAT

; 171  : #if defined( I3_WINDOWS )// || defined( I3_WINCE )
; 172  : 	::WSACleanup();

  00000	ff 25 00 00 00
	00		 jmp	 DWORD PTR __imp__WSACleanup@0
?Destroy@i3Net@@YAXXZ ENDP				; i3Net::Destroy
_TEXT	ENDS
; Function compile flags: /Ogtp
; File E:\Proyectos\JuegosOnlineproyectos\PB\pbblow\Piercing Blow Remake\i3Server\src\i3Base\i3Inet.cpp
;	COMDAT ?Create@i3Net@@YAHXZ
_TEXT	SEGMENT
_wsaData$ = -404					; size = 400
__$ArrayPad$ = -4					; size = 4
?Create@i3Net@@YAHXZ PROC				; i3Net::Create, COMDAT

; 17   : {

  00000	55		 push	 ebp
  00001	8b ec		 mov	 ebp, esp
  00003	81 ec 94 01 00
	00		 sub	 esp, 404		; 00000194H
  00009	a1 00 00 00 00	 mov	 eax, DWORD PTR ___security_cookie
  0000e	33 c5		 xor	 eax, ebp
  00010	89 45 fc	 mov	 DWORD PTR __$ArrayPad$[ebp], eax

; 18   : #if defined( I3_WINDOWS )// || defined( I3_WINCE )
; 19   : 	WSADATA wsaData;		
; 20   : 	if( ::WSAStartup( MAKEWORD(2,2), &wsaData ) != 0 )

  00013	8d 85 6c fe ff
	ff		 lea	 eax, DWORD PTR _wsaData$[ebp]
  00019	50		 push	 eax
  0001a	68 02 02 00 00	 push	 514			; 00000202H
  0001f	ff 15 00 00 00
	00		 call	 DWORD PTR __imp__WSAStartup@8
  00025	85 c0		 test	 eax, eax
  00027	75 14		 jne	 SHORT $LN5@Create

; 21   : 	{
; 22   : 		I3TRACE("WSAStartup Failed. \n");
; 23   : 		return FALSE; 
; 24   : 	}
; 25   : 
; 26   : 	if( wsaData.wVersion != MAKEWORD(2,2) )

  00029	b8 02 02 00 00	 mov	 eax, 514		; 00000202H
  0002e	66 39 85 6c fe
	ff ff		 cmp	 WORD PTR _wsaData$[ebp], ax
  00035	74 16		 je	 SHORT $LN3@Create

; 27   : 	{
; 28   : 		::WSACleanup();

  00037	ff 15 00 00 00
	00		 call	 DWORD PTR __imp__WSACleanup@0
$LN5@Create:

; 29   : 		I3TRACE("WSAStart Version Failed. \n");
; 30   : 		return FALSE; 
; 31   : 	}
; 32   : #endif
; 33   : 
; 34   : 	s_bInetInited = true;
; 35   : 
; 36   : 	return TRUE; 
; 37   : }

  0003d	33 c0		 xor	 eax, eax
  0003f	8b 4d fc	 mov	 ecx, DWORD PTR __$ArrayPad$[ebp]
  00042	33 cd		 xor	 ecx, ebp
  00044	e8 00 00 00 00	 call	 @__security_check_cookie@4
  00049	8b e5		 mov	 esp, ebp
  0004b	5d		 pop	 ebp
  0004c	c3		 ret	 0
$LN3@Create:
  0004d	8b 4d fc	 mov	 ecx, DWORD PTR __$ArrayPad$[ebp]
  00050	b8 01 00 00 00	 mov	 eax, 1
  00055	33 cd		 xor	 ecx, ebp
  00057	c6 05 00 00 00
	00 01		 mov	 BYTE PTR ?s_bInetInited@@3_NA, 1
  0005e	e8 00 00 00 00	 call	 @__security_check_cookie@4
  00063	8b e5		 mov	 esp, ebp
  00065	5d		 pop	 ebp
  00066	c3		 ret	 0
?Create@i3Net@@YAHXZ ENDP				; i3Net::Create
_TEXT	ENDS
; Function compile flags: /Ogtp
; File E:\Proyectos\JuegosOnlineproyectos\PB\pbblow\Piercing Blow Remake\i3Server\src\i3Base\i3Inet.cpp
;	COMDAT ?Init@i3Net@@YAHXZ
_TEXT	SEGMENT
_wsaData$1 = -404					; size = 400
__$ArrayPad$ = -4					; size = 4
?Init@i3Net@@YAHXZ PROC					; i3Net::Init, COMDAT

; 12   : {

  00000	55		 push	 ebp
  00001	8b ec		 mov	 ebp, esp
  00003	81 ec 94 01 00
	00		 sub	 esp, 404		; 00000194H
  00009	a1 00 00 00 00	 mov	 eax, DWORD PTR ___security_cookie
  0000e	33 c5		 xor	 eax, ebp
  00010	89 45 fc	 mov	 DWORD PTR __$ArrayPad$[ebp], eax

; 20   : 	if( ::WSAStartup( MAKEWORD(2,2), &wsaData ) != 0 )

  00013	8d 85 6c fe ff
	ff		 lea	 eax, DWORD PTR _wsaData$1[ebp]
  00019	50		 push	 eax
  0001a	68 02 02 00 00	 push	 514			; 00000202H
  0001f	ff 15 00 00 00
	00		 call	 DWORD PTR __imp__WSAStartup@8
  00025	85 c0		 test	 eax, eax
  00027	75 14		 jne	 SHORT $LN7@Init

; 21   : 	{
; 22   : 		I3TRACE("WSAStartup Failed. \n");
; 23   : 		return FALSE; 
; 24   : 	}
; 25   : 
; 26   : 	if( wsaData.wVersion != MAKEWORD(2,2) )

  00029	b8 02 02 00 00	 mov	 eax, 514		; 00000202H
  0002e	66 39 85 6c fe
	ff ff		 cmp	 WORD PTR _wsaData$1[ebp], ax
  00035	74 16		 je	 SHORT $LN5@Init

; 27   : 	{
; 28   : 		::WSACleanup();

  00037	ff 15 00 00 00
	00		 call	 DWORD PTR __imp__WSACleanup@0
$LN7@Init:

; 13   : 	return i3Net::Create(); 
; 14   : }

  0003d	33 c0		 xor	 eax, eax
  0003f	8b 4d fc	 mov	 ecx, DWORD PTR __$ArrayPad$[ebp]
  00042	33 cd		 xor	 ecx, ebp
  00044	e8 00 00 00 00	 call	 @__security_check_cookie@4
  00049	8b e5		 mov	 esp, ebp
  0004b	5d		 pop	 ebp
  0004c	c3		 ret	 0
$LN5@Init:
  0004d	8b 4d fc	 mov	 ecx, DWORD PTR __$ArrayPad$[ebp]
  00050	b8 01 00 00 00	 mov	 eax, 1
  00055	33 cd		 xor	 ecx, ebp

; 34   : 	s_bInetInited = true;

  00057	c6 05 00 00 00
	00 01		 mov	 BYTE PTR ?s_bInetInited@@3_NA, 1

; 13   : 	return i3Net::Create(); 
; 14   : }

  0005e	e8 00 00 00 00	 call	 @__security_check_cookie@4
  00063	8b e5		 mov	 esp, ebp
  00065	5d		 pop	 ebp
  00066	c3		 ret	 0
?Init@i3Net@@YAHXZ ENDP					; i3Net::Init
_TEXT	ENDS
; Function compile flags: /Ogtp
;	COMDAT ??_Ei3MemoryPool@@UAEPAXI@Z
_TEXT	SEGMENT
__$EHRec$ = -12						; size = 12
___flags$ = 8						; size = 4
??_Ei3MemoryPool@@UAEPAXI@Z PROC			; i3MemoryPool::`vector deleting destructor', COMDAT
; _this$ = ecx
  00000	55		 push	 ebp
  00001	8b ec		 mov	 ebp, esp
  00003	6a ff		 push	 -1
  00005	68 00 00 00 00	 push	 __ehhandler$??_Ei3MemoryPool@@UAEPAXI@Z
  0000a	64 a1 00 00 00
	00		 mov	 eax, DWORD PTR fs:0
  00010	50		 push	 eax
  00011	53		 push	 ebx
  00012	56		 push	 esi
  00013	57		 push	 edi
  00014	a1 00 00 00 00	 mov	 eax, DWORD PTR ___security_cookie
  00019	33 c5		 xor	 eax, ebp
  0001b	50		 push	 eax
  0001c	8d 45 f4	 lea	 eax, DWORD PTR __$EHRec$[ebp]
  0001f	64 a3 00 00 00
	00		 mov	 DWORD PTR fs:0, eax
  00025	8b f1		 mov	 esi, ecx
  00027	8b 45 08	 mov	 eax, DWORD PTR ___flags$[ebp]
  0002a	8b f8		 mov	 edi, eax
  0002c	83 e7 01	 and	 edi, 1
  0002f	a8 02		 test	 al, 2
  00031	74 40		 je	 SHORT $LN2@vector
  00033	68 00 00 00 00	 push	 OFFSET ??1i3MemoryPool@@UAE@XZ ; i3MemoryPool::~i3MemoryPool
  00038	ff 76 fc	 push	 DWORD PTR [esi-4]
  0003b	8d 5e fc	 lea	 ebx, DWORD PTR [esi-4]
  0003e	6a 04		 push	 4
  00040	56		 push	 esi
  00041	e8 00 00 00 00	 call	 ??_M@YGXPAXIIP6EX0@Z@Z
  00046	85 ff		 test	 edi, edi
  00048	74 13		 je	 SHORT $LN3@vector
  0004a	8b 0b		 mov	 ecx, DWORD PTR [ebx]
  0004c	8d 0c 8d 04 00
	00 00		 lea	 ecx, DWORD PTR [ecx*4+4]
  00053	51		 push	 ecx
  00054	53		 push	 ebx
  00055	e8 00 00 00 00	 call	 ??_V@YAXPAXI@Z		; operator delete[]
  0005a	83 c4 08	 add	 esp, 8
$LN3@vector:
  0005d	8b c3		 mov	 eax, ebx
  0005f	8b 4d f4	 mov	 ecx, DWORD PTR __$EHRec$[ebp]
  00062	64 89 0d 00 00
	00 00		 mov	 DWORD PTR fs:0, ecx
  00069	59		 pop	 ecx
  0006a	5f		 pop	 edi
  0006b	5e		 pop	 esi
  0006c	5b		 pop	 ebx
  0006d	8b e5		 mov	 esp, ebp
  0006f	5d		 pop	 ebp
  00070	c2 04 00	 ret	 4
$LN2@vector:
  00073	e8 00 00 00 00	 call	 ??1i3MemoryPool@@UAE@XZ	; i3MemoryPool::~i3MemoryPool
  00078	85 ff		 test	 edi, edi
  0007a	74 0b		 je	 SHORT $LN4@vector
  0007c	6a 04		 push	 4
  0007e	56		 push	 esi
  0007f	e8 00 00 00 00	 call	 ??3@YAXPAXI@Z		; operator delete
  00084	83 c4 08	 add	 esp, 8
$LN4@vector:
  00087	8b c6		 mov	 eax, esi
  00089	8b 4d f4	 mov	 ecx, DWORD PTR __$EHRec$[ebp]
  0008c	64 89 0d 00 00
	00 00		 mov	 DWORD PTR fs:0, ecx
  00093	59		 pop	 ecx
  00094	5f		 pop	 edi
  00095	5e		 pop	 esi
  00096	5b		 pop	 ebx
  00097	8b e5		 mov	 esp, ebp
  00099	5d		 pop	 ebp
  0009a	c2 04 00	 ret	 4
  0009d	cc		 int	 3
  0009e	cc		 int	 3
  0009f	cc		 int	 3
  000a0	cc		 int	 3
  000a1	cc		 int	 3
_TEXT	ENDS
;	COMDAT text$x
text$x	SEGMENT
__ehhandler$??_Ei3MemoryPool@@UAEPAXI@Z:
  00000	90		 npad	 1
  00001	90		 npad	 1
  00002	8b 54 24 08	 mov	 edx, DWORD PTR [esp+8]
  00006	8d 42 0c	 lea	 eax, DWORD PTR [edx+12]
  00009	8b 4a f0	 mov	 ecx, DWORD PTR [edx-16]
  0000c	33 c8		 xor	 ecx, eax
  0000e	e8 00 00 00 00	 call	 @__security_check_cookie@4
  00013	b8 00 00 00 00	 mov	 eax, OFFSET __ehfuncinfo$??_Ei3MemoryPool@@UAEPAXI@Z
  00018	e9 00 00 00 00	 jmp	 ___CxxFrameHandler3
text$x	ENDS
??_Ei3MemoryPool@@UAEPAXI@Z ENDP			; i3MemoryPool::`vector deleting destructor'
; Function compile flags: /Ogtp
;	COMDAT ??_Gi3MemoryPool@@UAEPAXI@Z
_TEXT	SEGMENT
___flags$ = 8						; size = 4
??_Gi3MemoryPool@@UAEPAXI@Z PROC			; i3MemoryPool::`scalar deleting destructor', COMDAT
; _this$ = ecx
  00000	55		 push	 ebp
  00001	8b ec		 mov	 ebp, esp
  00003	56		 push	 esi
  00004	8b f1		 mov	 esi, ecx
  00006	e8 00 00 00 00	 call	 ??1i3MemoryPool@@UAE@XZ	; i3MemoryPool::~i3MemoryPool
  0000b	f6 45 08 01	 test	 BYTE PTR ___flags$[ebp], 1
  0000f	74 0b		 je	 SHORT $LN5@scalar
  00011	6a 04		 push	 4
  00013	56		 push	 esi
  00014	e8 00 00 00 00	 call	 ??3@YAXPAXI@Z		; operator delete
  00019	83 c4 08	 add	 esp, 8
$LN5@scalar:
  0001c	8b c6		 mov	 eax, esi
  0001e	5e		 pop	 esi
  0001f	5d		 pop	 ebp
  00020	c2 04 00	 ret	 4
??_Gi3MemoryPool@@UAEPAXI@Z ENDP			; i3MemoryPool::`scalar deleting destructor'
_TEXT	ENDS
; Function compile flags: /Ogtp
;	COMDAT ??4i3MemoryPool@@QAEAAV0@ABV0@@Z
_TEXT	SEGMENT
___that$ = 8						; size = 4
??4i3MemoryPool@@QAEAAV0@ABV0@@Z PROC			; i3MemoryPool::operator=, COMDAT
; _this$ = ecx
  00000	8b c1		 mov	 eax, ecx
  00002	c2 04 00	 ret	 4
??4i3MemoryPool@@QAEAAV0@ABV0@@Z ENDP			; i3MemoryPool::operator=
_TEXT	ENDS
; Function compile flags: /Ogtp
;	COMDAT ??0i3MemoryPool@@QAE@ABV0@@Z
_TEXT	SEGMENT
___that$ = 8						; size = 4
??0i3MemoryPool@@QAE@ABV0@@Z PROC			; i3MemoryPool::i3MemoryPool, COMDAT
; _this$ = ecx
  00000	c7 01 00 00 00
	00		 mov	 DWORD PTR [ecx], OFFSET ??_7i3MemoryPool@@6B@
  00006	8b c1		 mov	 eax, ecx
  00008	c2 04 00	 ret	 4
??0i3MemoryPool@@QAE@ABV0@@Z ENDP			; i3MemoryPool::i3MemoryPool
_TEXT	ENDS
; Function compile flags: /Ogtp
; File E:\Proyectos\JuegosOnlineproyectos\PB\pbblow\Piercing Blow Remake\i3Server\src\i3Base\i3Inet.cpp
;	COMDAT ??_Ei3ElementBase@@UAEPAXI@Z
_TEXT	SEGMENT
__$EHRec$ = -12						; size = 12
___flags$ = 8						; size = 4
??_Ei3ElementBase@@UAEPAXI@Z PROC			; i3ElementBase::`vector deleting destructor', COMDAT
; _this$ = ecx
  00000	55		 push	 ebp
  00001	8b ec		 mov	 ebp, esp
  00003	6a ff		 push	 -1
  00005	68 00 00 00 00	 push	 __ehhandler$??_Ei3ElementBase@@UAEPAXI@Z
  0000a	64 a1 00 00 00
	00		 mov	 eax, DWORD PTR fs:0
  00010	50		 push	 eax
  00011	53		 push	 ebx
  00012	56		 push	 esi
  00013	57		 push	 edi
  00014	a1 00 00 00 00	 mov	 eax, DWORD PTR ___security_cookie
  00019	33 c5		 xor	 eax, ebp
  0001b	50		 push	 eax
  0001c	8d 45 f4	 lea	 eax, DWORD PTR __$EHRec$[ebp]
  0001f	64 a3 00 00 00
	00		 mov	 DWORD PTR fs:0, eax
  00025	8b f1		 mov	 esi, ecx
  00027	8b 5d 08	 mov	 ebx, DWORD PTR ___flags$[ebp]
  0002a	8b fb		 mov	 edi, ebx
  0002c	83 e7 01	 and	 edi, 1
  0002f	f6 c3 02	 test	 bl, 2
  00032	74 3f		 je	 SHORT $LN2@vector
  00034	68 00 00 00 00	 push	 OFFSET ??1i3ElementBase@@UAE@XZ ; i3ElementBase::~i3ElementBase
  00039	ff 76 fc	 push	 DWORD PTR [esi-4]
  0003c	8d 5e fc	 lea	 ebx, DWORD PTR [esi-4]
  0003f	6a 10		 push	 16			; 00000010H
  00041	56		 push	 esi
  00042	e8 00 00 00 00	 call	 ??_M@YGXPAXIIP6EX0@Z@Z
  00047	85 ff		 test	 edi, edi
  00049	74 12		 je	 SHORT $LN3@vector
  0004b	8b 0b		 mov	 ecx, DWORD PTR [ebx]
  0004d	c1 e1 04	 shl	 ecx, 4
  00050	83 c1 04	 add	 ecx, 4
  00053	51		 push	 ecx
  00054	53		 push	 ebx
  00055	e8 00 00 00 00	 call	 ??_V@YAXPAXI@Z		; operator delete[]
  0005a	83 c4 08	 add	 esp, 8
$LN3@vector:
  0005d	8b c3		 mov	 eax, ebx
  0005f	8b 4d f4	 mov	 ecx, DWORD PTR __$EHRec$[ebp]
  00062	64 89 0d 00 00
	00 00		 mov	 DWORD PTR fs:0, ecx
  00069	59		 pop	 ecx
  0006a	5f		 pop	 edi
  0006b	5e		 pop	 esi
  0006c	5b		 pop	 ebx
  0006d	8b e5		 mov	 esp, ebp
  0006f	5d		 pop	 ebp
  00070	c2 04 00	 ret	 4
$LN2@vector:
  00073	e8 00 00 00 00	 call	 ??1i3ElementBase@@UAE@XZ ; i3ElementBase::~i3ElementBase
  00078	85 ff		 test	 edi, edi
  0007a	74 1b		 je	 SHORT $LN6@vector
  0007c	f6 c3 04	 test	 bl, 4
  0007f	75 0b		 jne	 SHORT $LN5@vector
  00081	56		 push	 esi
  00082	e8 00 00 00 00	 call	 ??3i3ElementBase@@SAXPAX@Z ; i3ElementBase::operator delete
  00087	83 c4 04	 add	 esp, 4
  0008a	eb 0b		 jmp	 SHORT $LN6@vector
$LN5@vector:

  0008c	6a 10		 push	 16			; 00000010H
  0008e	56		 push	 esi
  0008f	e8 00 00 00 00	 call	 ??3@YAXPAXI@Z		; operator delete
  00094	83 c4 08	 add	 esp, 8
$LN6@vector:
  00097	8b c6		 mov	 eax, esi
  00099	8b 4d f4	 mov	 ecx, DWORD PTR __$EHRec$[ebp]
  0009c	64 89 0d 00 00
	00 00		 mov	 DWORD PTR fs:0, ecx
  000a3	59		 pop	 ecx
  000a4	5f		 pop	 edi
  000a5	5e		 pop	 esi
  000a6	5b		 pop	 ebx
  000a7	8b e5		 mov	 esp, ebp
  000a9	5d		 pop	 ebp
  000aa	c2 04 00	 ret	 4
  000ad	cc		 int	 3
  000ae	cc		 int	 3
  000af	cc		 int	 3
  000b0	cc		 int	 3
  000b1	cc		 int	 3
_TEXT	ENDS
;	COMDAT text$x
text$x	SEGMENT
__ehhandler$??_Ei3ElementBase@@UAEPAXI@Z:
  00000	90		 npad	 1
  00001	90		 npad	 1
  00002	8b 54 24 08	 mov	 edx, DWORD PTR [esp+8]
  00006	8d 42 0c	 lea	 eax, DWORD PTR [edx+12]
  00009	8b 4a f0	 mov	 ecx, DWORD PTR [edx-16]
  0000c	33 c8		 xor	 ecx, eax
  0000e	e8 00 00 00 00	 call	 @__security_check_cookie@4
  00013	b8 00 00 00 00	 mov	 eax, OFFSET __ehfuncinfo$??_Ei3ElementBase@@UAEPAXI@Z
  00018	e9 00 00 00 00	 jmp	 ___CxxFrameHandler3
text$x	ENDS
??_Ei3ElementBase@@UAEPAXI@Z ENDP			; i3ElementBase::`vector deleting destructor'
; Function compile flags: /Ogtp
; File E:\Proyectos\JuegosOnlineproyectos\PB\pbblow\Piercing Blow Remake\i3Server\src\i3Base\i3Inet.cpp
;	COMDAT ??_Gi3ElementBase@@UAEPAXI@Z
_TEXT	SEGMENT
___flags$ = 8						; size = 4
??_Gi3ElementBase@@UAEPAXI@Z PROC			; i3ElementBase::`scalar deleting destructor', COMDAT
; _this$ = ecx
  00000	55		 push	 ebp
  00001	8b ec		 mov	 ebp, esp
  00003	56		 push	 esi
  00004	8b f1		 mov	 esi, ecx
  00006	e8 00 00 00 00	 call	 ??1i3ElementBase@@UAE@XZ ; i3ElementBase::~i3ElementBase
  0000b	8b 45 08	 mov	 eax, DWORD PTR ___flags$[ebp]
  0000e	a8 01		 test	 al, 1
  00010	74 1f		 je	 SHORT $LN10@scalar
  00012	a8 04		 test	 al, 4
  00014	75 10		 jne	 SHORT $LN3@scalar
  00016	56		 push	 esi
  00017	e8 00 00 00 00	 call	 ??3i3ElementBase@@SAXPAX@Z ; i3ElementBase::operator delete
  0001c	83 c4 04	 add	 esp, 4
  0001f	8b c6		 mov	 eax, esi
  00021	5e		 pop	 esi
  00022	5d		 pop	 ebp
  00023	c2 04 00	 ret	 4
$LN3@scalar:

  00026	6a 10		 push	 16			; 00000010H
  00028	56		 push	 esi
  00029	e8 00 00 00 00	 call	 ??3@YAXPAXI@Z		; operator delete
  0002e	83 c4 08	 add	 esp, 8
$LN10@scalar:
  00031	8b c6		 mov	 eax, esi
  00033	5e		 pop	 esi
  00034	5d		 pop	 ebp
  00035	c2 04 00	 ret	 4
??_Gi3ElementBase@@UAEPAXI@Z ENDP			; i3ElementBase::`scalar deleting destructor'
_TEXT	ENDS
; Function compile flags: /Ogtp
;	COMDAT ??4i3ElementBase@@QAEAAV0@ABV0@@Z
_TEXT	SEGMENT
___that$ = 8						; size = 4
??4i3ElementBase@@QAEAAV0@ABV0@@Z PROC			; i3ElementBase::operator=, COMDAT
; _this$ = ecx
  00000	55		 push	 ebp
  00001	8b ec		 mov	 ebp, esp
  00003	8b 55 08	 mov	 edx, DWORD PTR ___that$[ebp]
  00006	8b 42 04	 mov	 eax, DWORD PTR [edx+4]
  00009	89 41 04	 mov	 DWORD PTR [ecx+4], eax
  0000c	8b 42 08	 mov	 eax, DWORD PTR [edx+8]
  0000f	89 41 08	 mov	 DWORD PTR [ecx+8], eax
  00012	8b 42 0c	 mov	 eax, DWORD PTR [edx+12]
  00015	89 41 0c	 mov	 DWORD PTR [ecx+12], eax
  00018	8b c1		 mov	 eax, ecx
  0001a	5d		 pop	 ebp
  0001b	c2 04 00	 ret	 4
??4i3ElementBase@@QAEAAV0@ABV0@@Z ENDP			; i3ElementBase::operator=
_TEXT	ENDS
; Function compile flags: /Ogtp
;	COMDAT ??0i3ElementBase@@QAE@ABV0@@Z
_TEXT	SEGMENT
___that$ = 8						; size = 4
??0i3ElementBase@@QAE@ABV0@@Z PROC			; i3ElementBase::i3ElementBase, COMDAT
; _this$ = ecx
  00000	55		 push	 ebp
  00001	8b ec		 mov	 ebp, esp
  00003	8b 55 08	 mov	 edx, DWORD PTR ___that$[ebp]
  00006	c7 01 00 00 00
	00		 mov	 DWORD PTR [ecx], OFFSET ??_7i3ElementBase@@6B@
  0000c	8b 42 04	 mov	 eax, DWORD PTR [edx+4]
  0000f	89 41 04	 mov	 DWORD PTR [ecx+4], eax
  00012	8b 42 08	 mov	 eax, DWORD PTR [edx+8]
  00015	89 41 08	 mov	 DWORD PTR [ecx+8], eax
  00018	8b 42 0c	 mov	 eax, DWORD PTR [edx+12]
  0001b	89 41 0c	 mov	 DWORD PTR [ecx+12], eax
  0001e	8b c1		 mov	 eax, ecx
  00020	5d		 pop	 ebp
  00021	c2 04 00	 ret	 4
??0i3ElementBase@@QAE@ABV0@@Z ENDP			; i3ElementBase::i3ElementBase
_TEXT	ENDS
; Function compile flags: /Ogtp
; File E:\Proyectos\JuegosOnlineproyectos\PB\pbblow\Piercing Blow Remake\i3Server\include\i3Base\i3ElementBase.h
;	COMDAT ?_internal_SetRefCount@i3ElementBase@@QAEXH@Z
_TEXT	SEGMENT
_cnt$ = 8						; size = 4
?_internal_SetRefCount@i3ElementBase@@QAEXH@Z PROC	; i3ElementBase::_internal_SetRefCount, COMDAT
; _this$ = ecx

; 401  : 	{

  00000	55		 push	 ebp
  00001	8b ec		 mov	 ebp, esp

; 402  : 		m_RefCount = cnt;

  00003	8b 45 08	 mov	 eax, DWORD PTR _cnt$[ebp]
  00006	89 41 04	 mov	 DWORD PTR [ecx+4], eax

; 403  : 	}

  00009	5d		 pop	 ebp
  0000a	c2 04 00	 ret	 4
?_internal_SetRefCount@i3ElementBase@@QAEXH@Z ENDP	; i3ElementBase::_internal_SetRefCount
_TEXT	ENDS
; Function compile flags: /Ogtp
; File E:\Proyectos\JuegosOnlineproyectos\PB\pbblow\Piercing Blow Remake\i3Server\include\i3Base\i3ElementBase.h
;	COMDAT ?AddRef@i3ElementBase@@QAEHXZ
_TEXT	SEGMENT
?AddRef@i3ElementBase@@QAEHXZ PROC			; i3ElementBase::AddRef, COMDAT
; _this$ = ecx

; 392  : 		m_RefCount++;

  00000	ff 41 04	 inc	 DWORD PTR [ecx+4]

; 393  : 
; 394  : 		return m_RefCount;

  00003	8b 41 04	 mov	 eax, DWORD PTR [ecx+4]

; 395  : 	}

  00006	c3		 ret	 0
?AddRef@i3ElementBase@@QAEHXZ ENDP			; i3ElementBase::AddRef
_TEXT	ENDS
; Function compile flags: /Ogtp
; File E:\Proyectos\JuegosOnlineproyectos\PB\pbblow\Piercing Blow Remake\i3Server\include\i3Base\i3ElementBase.h
;	COMDAT ?IsTypeOf@i3ElementBase@@QAE_NPAVi3ClassMeta@@@Z
_TEXT	SEGMENT
_pMeta$ = 8						; size = 4
?IsTypeOf@i3ElementBase@@QAE_NPAVi3ClassMeta@@@Z PROC	; i3ElementBase::IsTypeOf, COMDAT
; _this$ = ecx

; 356  : 	{

  00000	55		 push	 ebp
  00001	8b ec		 mov	 ebp, esp

; 357  : 		return GetMeta()->IsTypeOf( pMeta);

  00003	8b 01		 mov	 eax, DWORD PTR [ecx]
  00005	ff 75 08	 push	 DWORD PTR _pMeta$[ebp]
  00008	ff 10		 call	 DWORD PTR [eax]
  0000a	8b c8		 mov	 ecx, eax
  0000c	e8 00 00 00 00	 call	 ?IsTypeOf@i3ClassMeta@@QAE_NPAV1@@Z ; i3ClassMeta::IsTypeOf

; 358  : 	}

  00011	5d		 pop	 ebp
  00012	c2 04 00	 ret	 4
?IsTypeOf@i3ElementBase@@QAE_NPAVi3ClassMeta@@@Z ENDP	; i3ElementBase::IsTypeOf
_TEXT	ENDS
; Function compile flags: /Ogtp
; File E:\Proyectos\JuegosOnlineproyectos\PB\pbblow\Piercing Blow Remake\i3Server\include\i3Base\i3ElementBase.h
; File E:\Proyectos\JuegosOnlineproyectos\PB\pbblow\Piercing Blow Remake\i3Server\include\i3Base\i3ClassMeta.h
; File E:\Proyectos\JuegosOnlineproyectos\PB\pbblow\Piercing Blow Remake\i3Server\include\i3Base\i3ElementBase.h
;	COMDAT ?IsExactTypeOf@i3ElementBase@@QAE_NPAVi3ClassMeta@@@Z
_TEXT	SEGMENT
_pMeta$ = 8						; size = 4
?IsExactTypeOf@i3ElementBase@@QAE_NPAVi3ClassMeta@@@Z PROC ; i3ElementBase::IsExactTypeOf, COMDAT
; _this$ = ecx

; 351  : 	{

  00000	55		 push	 ebp
  00001	8b ec		 mov	 ebp, esp

; 352  : 		return GetMeta()->IsExactTypeOf( pMeta);

  00003	8b 01		 mov	 eax, DWORD PTR [ecx]
  00005	ff 10		 call	 DWORD PTR [eax]
; File E:\Proyectos\JuegosOnlineproyectos\PB\pbblow\Piercing Blow Remake\i3Server\include\i3Base\i3ClassMeta.h

; 90   : 		return pMeta == this;

  00007	39 45 08	 cmp	 DWORD PTR _pMeta$[ebp], eax
  0000a	0f 94 c0	 sete	 al
; File E:\Proyectos\JuegosOnlineproyectos\PB\pbblow\Piercing Blow Remake\i3Server\include\i3Base\i3ElementBase.h

; 353  : 	}

  0000d	5d		 pop	 ebp
  0000e	c2 04 00	 ret	 4
?IsExactTypeOf@i3ElementBase@@QAE_NPAVi3ClassMeta@@@Z ENDP ; i3ElementBase::IsExactTypeOf
_TEXT	ENDS
; Function compile flags: /Ogtp
; File E:\Proyectos\JuegosOnlineproyectos\PB\pbblow\Piercing Blow Remake\i3Server\include\i3Base\i3ElementBase.h
;	COMDAT ?__GetMemoryPool@i3ElementBase@@QAEPAVi3MemoryPool@@XZ
_TEXT	SEGMENT
?__GetMemoryPool@i3ElementBase@@QAEPAVi3MemoryPool@@XZ PROC ; i3ElementBase::__GetMemoryPool, COMDAT
; _this$ = ecx

; 348  : 	i3MemoryPool *	__GetMemoryPool(void)							{ return m_pPool; }

  00000	8b 41 0c	 mov	 eax, DWORD PTR [ecx+12]
  00003	c3		 ret	 0
?__GetMemoryPool@i3ElementBase@@QAEPAVi3MemoryPool@@XZ ENDP ; i3ElementBase::__GetMemoryPool
_TEXT	ENDS
; Function compile flags: /Ogtp
; File E:\Proyectos\JuegosOnlineproyectos\PB\pbblow\Piercing Blow Remake\i3Server\include\i3Base\i3ElementBase.h
;	COMDAT ?__SetMemoryPool@i3ElementBase@@QAEXPAVi3MemoryPool@@@Z
_TEXT	SEGMENT
_pPool$ = 8						; size = 4
?__SetMemoryPool@i3ElementBase@@QAEXPAVi3MemoryPool@@@Z PROC ; i3ElementBase::__SetMemoryPool, COMDAT
; _this$ = ecx

; 347  : 	void			__SetMemoryPool( i3MemoryPool * pPool)			{ m_pPool = pPool; }

  00000	55		 push	 ebp
  00001	8b ec		 mov	 ebp, esp
  00003	8b 45 08	 mov	 eax, DWORD PTR _pPool$[ebp]
  00006	89 41 0c	 mov	 DWORD PTR [ecx+12], eax
  00009	5d		 pop	 ebp
  0000a	c2 04 00	 ret	 4
?__SetMemoryPool@i3ElementBase@@QAEXPAVi3MemoryPool@@@Z ENDP ; i3ElementBase::__SetMemoryPool
_TEXT	ENDS
; Function compile flags: /Ogtp
; File E:\Proyectos\JuegosOnlineproyectos\PB\pbblow\Piercing Blow Remake\i3Server\include\i3Base\i3ElementBase.h
;	COMDAT ?GetRefCount@i3ElementBase@@QAEHXZ
_TEXT	SEGMENT
?GetRefCount@i3ElementBase@@QAEHXZ PROC			; i3ElementBase::GetRefCount, COMDAT
; _this$ = ecx

; 344  : 		return m_RefCount;

  00000	8b 41 04	 mov	 eax, DWORD PTR [ecx+4]

; 345  : 	}

  00003	c3		 ret	 0
?GetRefCount@i3ElementBase@@QAEHXZ ENDP			; i3ElementBase::GetRefCount
_TEXT	ENDS
; Function compile flags: /Ogtp
; File E:\Proyectos\JuegosOnlineproyectos\PB\pbblow\Piercing Blow Remake\i3Server\include\i3Base\i3ElementBase.h
;	COMDAT ?GetClassMeta@i3ElementBase@@SAPAVi3ClassMeta@@XZ
_TEXT	SEGMENT
?GetClassMeta@i3ElementBase@@SAPAVi3ClassMeta@@XZ PROC	; i3ElementBase::GetClassMeta, COMDAT

; 314  : 	I3_ABSTRACT_CLASS_DEFINE( i3ElementBase);

  00000	a1 00 00 00 00	 mov	 eax, DWORD PTR ?s_pClassMetai3ElementBase@i3ElementBase@@2PAVi3ClassMeta@@A ; i3ElementBase::s_pClassMetai3ElementBase
  00005	c3		 ret	 0
?GetClassMeta@i3ElementBase@@SAPAVi3ClassMeta@@XZ ENDP	; i3ElementBase::GetClassMeta
_TEXT	ENDS
; Function compile flags: /Ogtp
;	COMDAT ??_Ei3ClassMeta@@UAEPAXI@Z
_TEXT	SEGMENT
__$EHRec$ = -12						; size = 12
___flags$ = 8						; size = 4
??_Ei3ClassMeta@@UAEPAXI@Z PROC				; i3ClassMeta::`vector deleting destructor', COMDAT
; _this$ = ecx
  00000	55		 push	 ebp
  00001	8b ec		 mov	 ebp, esp
  00003	6a ff		 push	 -1
  00005	68 00 00 00 00	 push	 __ehhandler$??_Ei3ClassMeta@@UAEPAXI@Z
  0000a	64 a1 00 00 00
	00		 mov	 eax, DWORD PTR fs:0
  00010	50		 push	 eax
  00011	53		 push	 ebx
  00012	56		 push	 esi
  00013	57		 push	 edi
  00014	a1 00 00 00 00	 mov	 eax, DWORD PTR ___security_cookie
  00019	33 c5		 xor	 eax, ebp
  0001b	50		 push	 eax
  0001c	8d 45 f4	 lea	 eax, DWORD PTR __$EHRec$[ebp]
  0001f	64 a3 00 00 00
	00		 mov	 DWORD PTR fs:0, eax
  00025	8b f1		 mov	 esi, ecx
  00027	8b 45 08	 mov	 eax, DWORD PTR ___flags$[ebp]
  0002a	8b f8		 mov	 edi, eax
  0002c	83 e7 01	 and	 edi, 1
  0002f	a8 02		 test	 al, 2
  00031	74 49		 je	 SHORT $LN2@vector
  00033	68 00 00 00 00	 push	 OFFSET ??1i3ClassMeta@@UAE@XZ ; i3ClassMeta::~i3ClassMeta
  00038	ff 76 fc	 push	 DWORD PTR [esi-4]
  0003b	8d 5e fc	 lea	 ebx, DWORD PTR [esi-4]
  0003e	6a 38		 push	 56			; 00000038H
  00040	56		 push	 esi
  00041	e8 00 00 00 00	 call	 ??_M@YGXPAXIIP6EX0@Z@Z
  00046	85 ff		 test	 edi, edi
  00048	74 1c		 je	 SHORT $LN3@vector
  0004a	8b 0b		 mov	 ecx, DWORD PTR [ebx]
  0004c	8d 14 cd 00 00
	00 00		 lea	 edx, DWORD PTR [ecx*8]
  00053	2b d1		 sub	 edx, ecx
  00055	8d 0c d5 04 00
	00 00		 lea	 ecx, DWORD PTR [edx*8+4]
  0005c	51		 push	 ecx
  0005d	53		 push	 ebx
  0005e	e8 00 00 00 00	 call	 ??_V@YAXPAXI@Z		; operator delete[]
  00063	83 c4 08	 add	 esp, 8
$LN3@vector:
  00066	8b c3		 mov	 eax, ebx
  00068	8b 4d f4	 mov	 ecx, DWORD PTR __$EHRec$[ebp]
  0006b	64 89 0d 00 00
	00 00		 mov	 DWORD PTR fs:0, ecx
  00072	59		 pop	 ecx
  00073	5f		 pop	 edi
  00074	5e		 pop	 esi
  00075	5b		 pop	 ebx
  00076	8b e5		 mov	 esp, ebp
  00078	5d		 pop	 ebp
  00079	c2 04 00	 ret	 4
$LN2@vector:
  0007c	e8 00 00 00 00	 call	 ??1i3ClassMeta@@UAE@XZ	; i3ClassMeta::~i3ClassMeta
  00081	85 ff		 test	 edi, edi
  00083	74 0b		 je	 SHORT $LN4@vector
  00085	6a 38		 push	 56			; 00000038H
  00087	56		 push	 esi
  00088	e8 00 00 00 00	 call	 ??3@YAXPAXI@Z		; operator delete
  0008d	83 c4 08	 add	 esp, 8
$LN4@vector:
  00090	8b c6		 mov	 eax, esi
  00092	8b 4d f4	 mov	 ecx, DWORD PTR __$EHRec$[ebp]
  00095	64 89 0d 00 00
	00 00		 mov	 DWORD PTR fs:0, ecx
  0009c	59		 pop	 ecx
  0009d	5f		 pop	 edi
  0009e	5e		 pop	 esi
  0009f	5b		 pop	 ebx
  000a0	8b e5		 mov	 esp, ebp
  000a2	5d		 pop	 ebp
  000a3	c2 04 00	 ret	 4
  000a6	cc		 int	 3
  000a7	cc		 int	 3
  000a8	cc		 int	 3
  000a9	cc		 int	 3
  000aa	cc		 int	 3
_TEXT	ENDS
;	COMDAT text$x
text$x	SEGMENT
__ehhandler$??_Ei3ClassMeta@@UAEPAXI@Z:
  00000	90		 npad	 1
  00001	90		 npad	 1
  00002	8b 54 24 08	 mov	 edx, DWORD PTR [esp+8]
  00006	8d 42 0c	 lea	 eax, DWORD PTR [edx+12]
  00009	8b 4a f0	 mov	 ecx, DWORD PTR [edx-16]
  0000c	33 c8		 xor	 ecx, eax
  0000e	e8 00 00 00 00	 call	 @__security_check_cookie@4
  00013	b8 00 00 00 00	 mov	 eax, OFFSET __ehfuncinfo$??_Ei3ClassMeta@@UAEPAXI@Z
  00018	e9 00 00 00 00	 jmp	 ___CxxFrameHandler3
text$x	ENDS
??_Ei3ClassMeta@@UAEPAXI@Z ENDP				; i3ClassMeta::`vector deleting destructor'
; Function compile flags: /Ogtp
;	COMDAT ??_Gi3ClassMeta@@UAEPAXI@Z
_TEXT	SEGMENT
___flags$ = 8						; size = 4
??_Gi3ClassMeta@@UAEPAXI@Z PROC				; i3ClassMeta::`scalar deleting destructor', COMDAT
; _this$ = ecx
  00000	55		 push	 ebp
  00001	8b ec		 mov	 ebp, esp
  00003	56		 push	 esi
  00004	8b f1		 mov	 esi, ecx
  00006	e8 00 00 00 00	 call	 ??1i3ClassMeta@@UAE@XZ	; i3ClassMeta::~i3ClassMeta
  0000b	f6 45 08 01	 test	 BYTE PTR ___flags$[ebp], 1
  0000f	74 0b		 je	 SHORT $LN5@scalar
  00011	6a 38		 push	 56			; 00000038H
  00013	56		 push	 esi
  00014	e8 00 00 00 00	 call	 ??3@YAXPAXI@Z		; operator delete
  00019	83 c4 08	 add	 esp, 8
$LN5@scalar:
  0001c	8b c6		 mov	 eax, esi
  0001e	5e		 pop	 esi
  0001f	5d		 pop	 ebp
  00020	c2 04 00	 ret	 4
??_Gi3ClassMeta@@UAEPAXI@Z ENDP				; i3ClassMeta::`scalar deleting destructor'
_TEXT	ENDS
; Function compile flags: /Ogtp
;	COMDAT ??4i3ClassMeta@@QAEAAV0@ABV0@@Z
_TEXT	SEGMENT
___that$ = 8						; size = 4
??4i3ClassMeta@@QAEAAV0@ABV0@@Z PROC			; i3ClassMeta::operator=, COMDAT
; _this$ = ecx
  00000	55		 push	 ebp
  00001	8b ec		 mov	 ebp, esp
  00003	8b 55 08	 mov	 edx, DWORD PTR ___that$[ebp]
  00006	8b 42 04	 mov	 eax, DWORD PTR [edx+4]
  00009	89 41 04	 mov	 DWORD PTR [ecx+4], eax
  0000c	8b 42 08	 mov	 eax, DWORD PTR [edx+8]
  0000f	89 41 08	 mov	 DWORD PTR [ecx+8], eax
  00012	8b 42 0c	 mov	 eax, DWORD PTR [edx+12]
  00015	89 41 0c	 mov	 DWORD PTR [ecx+12], eax
  00018	8b 42 10	 mov	 eax, DWORD PTR [edx+16]
  0001b	89 41 10	 mov	 DWORD PTR [ecx+16], eax
  0001e	8b 42 14	 mov	 eax, DWORD PTR [edx+20]
  00021	89 41 14	 mov	 DWORD PTR [ecx+20], eax
  00024	8b 42 18	 mov	 eax, DWORD PTR [edx+24]
  00027	89 41 18	 mov	 DWORD PTR [ecx+24], eax
  0002a	8b 42 1c	 mov	 eax, DWORD PTR [edx+28]
  0002d	89 41 1c	 mov	 DWORD PTR [ecx+28], eax
  00030	8b 42 20	 mov	 eax, DWORD PTR [edx+32]
  00033	89 41 20	 mov	 DWORD PTR [ecx+32], eax
  00036	8b 42 24	 mov	 eax, DWORD PTR [edx+36]
  00039	89 41 24	 mov	 DWORD PTR [ecx+36], eax
  0003c	8b 42 28	 mov	 eax, DWORD PTR [edx+40]
  0003f	89 41 28	 mov	 DWORD PTR [ecx+40], eax
  00042	8b 42 2c	 mov	 eax, DWORD PTR [edx+44]
  00045	89 41 2c	 mov	 DWORD PTR [ecx+44], eax
  00048	8b 42 30	 mov	 eax, DWORD PTR [edx+48]
  0004b	89 41 30	 mov	 DWORD PTR [ecx+48], eax
  0004e	8b 42 34	 mov	 eax, DWORD PTR [edx+52]
  00051	89 41 34	 mov	 DWORD PTR [ecx+52], eax
  00054	8b c1		 mov	 eax, ecx
  00056	5d		 pop	 ebp
  00057	c2 04 00	 ret	 4
??4i3ClassMeta@@QAEAAV0@ABV0@@Z ENDP			; i3ClassMeta::operator=
_TEXT	ENDS
; Function compile flags: /Ogtp
;	COMDAT ??0i3ClassMeta@@QAE@ABV0@@Z
_TEXT	SEGMENT
___that$ = 8						; size = 4
??0i3ClassMeta@@QAE@ABV0@@Z PROC			; i3ClassMeta::i3ClassMeta, COMDAT
; _this$ = ecx
  00000	55		 push	 ebp
  00001	8b ec		 mov	 ebp, esp
  00003	8b 55 08	 mov	 edx, DWORD PTR ___that$[ebp]
  00006	c7 01 00 00 00
	00		 mov	 DWORD PTR [ecx], OFFSET ??_7i3ClassMeta@@6B@
  0000c	8b 42 04	 mov	 eax, DWORD PTR [edx+4]
  0000f	89 41 04	 mov	 DWORD PTR [ecx+4], eax
  00012	8b 42 08	 mov	 eax, DWORD PTR [edx+8]
  00015	89 41 08	 mov	 DWORD PTR [ecx+8], eax
  00018	8b 42 0c	 mov	 eax, DWORD PTR [edx+12]
  0001b	89 41 0c	 mov	 DWORD PTR [ecx+12], eax
  0001e	8b 42 10	 mov	 eax, DWORD PTR [edx+16]
  00021	89 41 10	 mov	 DWORD PTR [ecx+16], eax
  00024	8b 42 14	 mov	 eax, DWORD PTR [edx+20]
  00027	89 41 14	 mov	 DWORD PTR [ecx+20], eax
  0002a	8b 42 18	 mov	 eax, DWORD PTR [edx+24]
  0002d	89 41 18	 mov	 DWORD PTR [ecx+24], eax
  00030	8b 42 1c	 mov	 eax, DWORD PTR [edx+28]
  00033	89 41 1c	 mov	 DWORD PTR [ecx+28], eax
  00036	8b 42 20	 mov	 eax, DWORD PTR [edx+32]
  00039	89 41 20	 mov	 DWORD PTR [ecx+32], eax
  0003c	8b 42 24	 mov	 eax, DWORD PTR [edx+36]
  0003f	89 41 24	 mov	 DWORD PTR [ecx+36], eax
  00042	8b 42 28	 mov	 eax, DWORD PTR [edx+40]
  00045	89 41 28	 mov	 DWORD PTR [ecx+40], eax
  00048	8b 42 2c	 mov	 eax, DWORD PTR [edx+44]
  0004b	89 41 2c	 mov	 DWORD PTR [ecx+44], eax
  0004e	8b 42 30	 mov	 eax, DWORD PTR [edx+48]
  00051	89 41 30	 mov	 DWORD PTR [ecx+48], eax
  00054	8b 42 34	 mov	 eax, DWORD PTR [edx+52]
  00057	89 41 34	 mov	 DWORD PTR [ecx+52], eax
  0005a	8b c1		 mov	 eax, ecx
  0005c	5d		 pop	 ebp
  0005d	c2 04 00	 ret	 4
??0i3ClassMeta@@QAE@ABV0@@Z ENDP			; i3ClassMeta::i3ClassMeta
_TEXT	ENDS
; Function compile flags: /Ogtp
; File E:\Proyectos\JuegosOnlineproyectos\PB\pbblow\Piercing Blow Remake\i3Server\include\i3Base\i3ClassMeta.h
;	COMDAT ?getHashCode@i3ClassMeta@@QAEIXZ
_TEXT	SEGMENT
?getHashCode@i3ClassMeta@@QAEIXZ PROC			; i3ClassMeta::getHashCode, COMDAT
; _this$ = ecx

; 112  : 	UINT32			getHashCode(void)						{ return m_HashCode; }

  00000	8b 41 18	 mov	 eax, DWORD PTR [ecx+24]
  00003	c3		 ret	 0
?getHashCode@i3ClassMeta@@QAEIXZ ENDP			; i3ClassMeta::getHashCode
_TEXT	ENDS
; Function compile flags: /Ogtp
; File E:\Proyectos\JuegosOnlineproyectos\PB\pbblow\Piercing Blow Remake\i3Server\include\i3Base\i3ClassMeta.h
;	COMDAT ?GetBaseClassMeta@i3ClassMeta@@QAEPAV1@XZ
_TEXT	SEGMENT
?GetBaseClassMeta@i3ClassMeta@@QAEPAV1@XZ PROC		; i3ClassMeta::GetBaseClassMeta, COMDAT
; _this$ = ecx

; 107  : 	i3ClassMeta *	GetBaseClassMeta(void)					{ return m_pBaseClass; }

  00000	8b 41 1c	 mov	 eax, DWORD PTR [ecx+28]
  00003	c3		 ret	 0
?GetBaseClassMeta@i3ClassMeta@@QAEPAV1@XZ ENDP		; i3ClassMeta::GetBaseClassMeta
_TEXT	ENDS
; Function compile flags: /Ogtp
; File E:\Proyectos\JuegosOnlineproyectos\PB\pbblow\Piercing Blow Remake\i3Server\include\i3Base\i3ClassMeta.h
;	COMDAT ?IsConcreteClass@i3ClassMeta@@QAEHXZ
_TEXT	SEGMENT
?IsConcreteClass@i3ClassMeta@@QAEHXZ PROC		; i3ClassMeta::IsConcreteClass, COMDAT
; _this$ = ecx

; 102  : 	BOOL			IsStyle( UINT32 style)					{ return (m_Style & style) == style; }

  00000	8b 41 14	 mov	 eax, DWORD PTR [ecx+20]
  00003	d1 e8		 shr	 eax, 1
  00005	83 e0 01	 and	 eax, 1

; 105  : 	BOOL			IsConcreteClass(void)					{ return IsStyle( I3_CLASSMETA_STYLE_CONCRETE); }

  00008	c3		 ret	 0
?IsConcreteClass@i3ClassMeta@@QAEHXZ ENDP		; i3ClassMeta::IsConcreteClass
_TEXT	ENDS
; Function compile flags: /Ogtp
; File E:\Proyectos\JuegosOnlineproyectos\PB\pbblow\Piercing Blow Remake\i3Server\include\i3Base\i3ClassMeta.h
;	COMDAT ?IsAbstractClass@i3ClassMeta@@QAEHXZ
_TEXT	SEGMENT
?IsAbstractClass@i3ClassMeta@@QAEHXZ PROC		; i3ClassMeta::IsAbstractClass, COMDAT
; _this$ = ecx

; 102  : 	BOOL			IsStyle( UINT32 style)					{ return (m_Style & style) == style; }

  00000	8b 41 14	 mov	 eax, DWORD PTR [ecx+20]
  00003	83 e0 01	 and	 eax, 1

; 104  : 	BOOL			IsAbstractClass(void)					{ return IsStyle( I3_CLASSMETA_STYLE_ABSTRACT); }

  00006	c3		 ret	 0
?IsAbstractClass@i3ClassMeta@@QAEHXZ ENDP		; i3ClassMeta::IsAbstractClass
_TEXT	ENDS
; Function compile flags: /Ogtp
; File E:\Proyectos\JuegosOnlineproyectos\PB\pbblow\Piercing Blow Remake\i3Server\include\i3Base\i3ClassMeta.h
;	COMDAT ?IsStyle@i3ClassMeta@@QAEHI@Z
_TEXT	SEGMENT
_style$ = 8						; size = 4
?IsStyle@i3ClassMeta@@QAEHI@Z PROC			; i3ClassMeta::IsStyle, COMDAT
; _this$ = ecx

; 102  : 	BOOL			IsStyle( UINT32 style)					{ return (m_Style & style) == style; }

  00000	55		 push	 ebp
  00001	8b ec		 mov	 ebp, esp
  00003	8b 51 14	 mov	 edx, DWORD PTR [ecx+20]
  00006	33 c0		 xor	 eax, eax
  00008	23 55 08	 and	 edx, DWORD PTR _style$[ebp]
  0000b	3b 55 08	 cmp	 edx, DWORD PTR _style$[ebp]
  0000e	0f 94 c0	 sete	 al
  00011	5d		 pop	 ebp
  00012	c2 04 00	 ret	 4
?IsStyle@i3ClassMeta@@QAEHI@Z ENDP			; i3ClassMeta::IsStyle
_TEXT	ENDS
; Function compile flags: /Ogtp
; File E:\Proyectos\JuegosOnlineproyectos\PB\pbblow\Piercing Blow Remake\i3Server\include\i3Base\i3ClassMeta.h
;	COMDAT ?RemoveStyle@i3ClassMeta@@QAEXI@Z
_TEXT	SEGMENT
_style$ = 8						; size = 4
?RemoveStyle@i3ClassMeta@@QAEXI@Z PROC			; i3ClassMeta::RemoveStyle, COMDAT
; _this$ = ecx

; 101  : 	void			RemoveStyle( UINT32 style)				{ m_Style &= ~style; }

  00000	55		 push	 ebp
  00001	8b ec		 mov	 ebp, esp
  00003	8b 45 08	 mov	 eax, DWORD PTR _style$[ebp]
  00006	f7 d0		 not	 eax
  00008	21 41 14	 and	 DWORD PTR [ecx+20], eax
  0000b	5d		 pop	 ebp
  0000c	c2 04 00	 ret	 4
?RemoveStyle@i3ClassMeta@@QAEXI@Z ENDP			; i3ClassMeta::RemoveStyle
_TEXT	ENDS
; Function compile flags: /Ogtp
; File E:\Proyectos\JuegosOnlineproyectos\PB\pbblow\Piercing Blow Remake\i3Server\include\i3Base\i3ClassMeta.h
;	COMDAT ?AddStyle@i3ClassMeta@@QAEXI@Z
_TEXT	SEGMENT
_style$ = 8						; size = 4
?AddStyle@i3ClassMeta@@QAEXI@Z PROC			; i3ClassMeta::AddStyle, COMDAT
; _this$ = ecx

; 100  : 	void			AddStyle( UINT32 style)					{ m_Style |= style; }

  00000	55		 push	 ebp
  00001	8b ec		 mov	 ebp, esp
  00003	8b 45 08	 mov	 eax, DWORD PTR _style$[ebp]
  00006	09 41 14	 or	 DWORD PTR [ecx+20], eax
  00009	5d		 pop	 ebp
  0000a	c2 04 00	 ret	 4
?AddStyle@i3ClassMeta@@QAEXI@Z ENDP			; i3ClassMeta::AddStyle
_TEXT	ENDS
; Function compile flags: /Ogtp
; File E:\Proyectos\JuegosOnlineproyectos\PB\pbblow\Piercing Blow Remake\i3Server\include\i3Base\i3ClassMeta.h
;	COMDAT ?GetStyle@i3ClassMeta@@QAEIXZ
_TEXT	SEGMENT
?GetStyle@i3ClassMeta@@QAEIXZ PROC			; i3ClassMeta::GetStyle, COMDAT
; _this$ = ecx

; 99   : 	UINT32			GetStyle(void)							{ return m_Style; }

  00000	8b 41 14	 mov	 eax, DWORD PTR [ecx+20]
  00003	c3		 ret	 0
?GetStyle@i3ClassMeta@@QAEIXZ ENDP			; i3ClassMeta::GetStyle
_TEXT	ENDS
; Function compile flags: /Ogtp
; File E:\Proyectos\JuegosOnlineproyectos\PB\pbblow\Piercing Blow Remake\i3Server\include\i3Base\i3ClassMeta.h
;	COMDAT ?SetStyle@i3ClassMeta@@QAEXI@Z
_TEXT	SEGMENT
_style$ = 8						; size = 4
?SetStyle@i3ClassMeta@@QAEXI@Z PROC			; i3ClassMeta::SetStyle, COMDAT
; _this$ = ecx

; 98   : 	void			SetStyle( UINT32 style)					{ m_Style = style; }

  00000	55		 push	 ebp
  00001	8b ec		 mov	 ebp, esp
  00003	8b 45 08	 mov	 eax, DWORD PTR _style$[ebp]
  00006	89 41 14	 mov	 DWORD PTR [ecx+20], eax
  00009	5d		 pop	 ebp
  0000a	c2 04 00	 ret	 4
?SetStyle@i3ClassMeta@@QAEXI@Z ENDP			; i3ClassMeta::SetStyle
_TEXT	ENDS
; Function compile flags: /Ogtp
; File E:\Proyectos\JuegosOnlineproyectos\PB\pbblow\Piercing Blow Remake\i3Server\include\i3Base\i3ClassMeta.h
;	COMDAT ?IsExactTypeOf@i3ClassMeta@@QAE_NPAV1@@Z
_TEXT	SEGMENT
_pMeta$ = 8						; size = 4
?IsExactTypeOf@i3ClassMeta@@QAE_NPAV1@@Z PROC		; i3ClassMeta::IsExactTypeOf, COMDAT
; _this$ = ecx

; 89   : 	{

  00000	55		 push	 ebp
  00001	8b ec		 mov	 ebp, esp

; 90   : 		return pMeta == this;

  00003	39 4d 08	 cmp	 DWORD PTR _pMeta$[ebp], ecx
  00006	0f 94 c0	 sete	 al

; 91   : 	}

  00009	5d		 pop	 ebp
  0000a	c2 04 00	 ret	 4
?IsExactTypeOf@i3ClassMeta@@QAE_NPAV1@@Z ENDP		; i3ClassMeta::IsExactTypeOf
_TEXT	ENDS
; Function compile flags: /Ogtp
; File E:\Proyectos\JuegosOnlineproyectos\PB\pbblow\Piercing Blow Remake\i3Server\include\i3Base\i3ClassMeta.h
;	COMDAT ?GetClassNameA@i3ClassMeta@@QAEPADXZ
_TEXT	SEGMENT
?GetClassNameA@i3ClassMeta@@QAEPADXZ PROC		; i3ClassMeta::GetClassNameA, COMDAT
; _this$ = ecx

; 83   : 		return m_pszClassName;

  00000	8b 41 0c	 mov	 eax, DWORD PTR [ecx+12]

; 84   : 	}

  00003	c3		 ret	 0
?GetClassNameA@i3ClassMeta@@QAEPADXZ ENDP		; i3ClassMeta::GetClassNameA
_TEXT	ENDS
; Function compile flags: /Ogtp
; File E:\Proyectos\JuegosOnlineproyectos\PB\pbblow\Piercing Blow Remake\i3Server\include\i3Base\i3ClassMeta.h
;	COMDAT ?GetClassSize@i3ClassMeta@@QAEIXZ
_TEXT	SEGMENT
?GetClassSize@i3ClassMeta@@QAEIXZ PROC			; i3ClassMeta::GetClassSize, COMDAT
; _this$ = ecx

; 78   : 		return m_ClassSize;

  00000	8b 41 08	 mov	 eax, DWORD PTR [ecx+8]

; 79   : 	}

  00003	c3		 ret	 0
?GetClassSize@i3ClassMeta@@QAEIXZ ENDP			; i3ClassMeta::GetClassSize
_TEXT	ENDS
; Function compile flags: /Ogtp
; File E:\Proyectos\JuegosOnlineproyectos\PB\pbblow\Piercing Blow Remake\i3Server\include\i3Base\i3ClassMeta.h
;	COMDAT ?SetMemoryPool@i3ClassMeta@@QAEXPAVi3MemoryPool@@@Z
_TEXT	SEGMENT
_pPool$ = 8						; size = 4
?SetMemoryPool@i3ClassMeta@@QAEXPAVi3MemoryPool@@@Z PROC ; i3ClassMeta::SetMemoryPool, COMDAT
; _this$ = ecx

; 66   : 	void			SetMemoryPool( i3MemoryPool * pPool)		{ m_pPool = pPool; }

  00000	55		 push	 ebp
  00001	8b ec		 mov	 ebp, esp
  00003	8b 45 08	 mov	 eax, DWORD PTR _pPool$[ebp]
  00006	89 41 34	 mov	 DWORD PTR [ecx+52], eax
  00009	5d		 pop	 ebp
  0000a	c2 04 00	 ret	 4
?SetMemoryPool@i3ClassMeta@@QAEXPAVi3MemoryPool@@@Z ENDP ; i3ClassMeta::SetMemoryPool
_TEXT	ENDS
; Function compile flags: /Ogtp
; File E:\Proyectos\JuegosOnlineproyectos\PB\pbblow\Piercing Blow Remake\i3Server\include\i3Base\i3ClassMeta.h
;	COMDAT ?GetMemoryPool@i3ClassMeta@@QAEPAVi3MemoryPool@@XZ
_TEXT	SEGMENT
?GetMemoryPool@i3ClassMeta@@QAEPAVi3MemoryPool@@XZ PROC	; i3ClassMeta::GetMemoryPool, COMDAT
; _this$ = ecx

; 65   : 	i3MemoryPool *	GetMemoryPool(void)							{ return m_pPool; }

  00000	8b 41 34	 mov	 eax, DWORD PTR [ecx+52]
  00003	c3		 ret	 0
?GetMemoryPool@i3ClassMeta@@QAEPAVi3MemoryPool@@XZ ENDP	; i3ClassMeta::GetMemoryPool
_TEXT	ENDS
; Function compile flags: /Ogtp
; File E:\Proyectos\JuegosOnlineproyectos\PB\pbblow\Piercing Blow Remake\i3Server\src\i3Base\i3Inet.cpp
;	COMDAT ?__global_array_delete@@YAXPAXI@Z
_TEXT	SEGMENT
_p$ = 8							; size = 4
_sz$ = 12						; size = 4
?__global_array_delete@@YAXPAXI@Z PROC			; __global_array_delete, COMDAT

  00000	e9 00 00 00 00	 jmp	 ??_V@YAXPAXI@Z		; operator delete[]
?__global_array_delete@@YAXPAXI@Z ENDP			; __global_array_delete
_TEXT	ENDS
; Function compile flags: /Ogtp
; File E:\Proyectos\JuegosOnlineproyectos\PB\pbblow\Piercing Blow Remake\i3Server\src\i3Base\i3Inet.cpp
;	COMDAT ?__global_array_delete@@YAXPAX@Z
_TEXT	SEGMENT
_p$ = 8							; size = 4
?__global_array_delete@@YAXPAX@Z PROC			; __global_array_delete, COMDAT

  00000	e9 00 00 00 00	 jmp	 ??_V@YAXPAX@Z		; operator delete[]
?__global_array_delete@@YAXPAX@Z ENDP			; __global_array_delete
_TEXT	ENDS
; Function compile flags: /Ogtp
; File E:\Proyectos\JuegosOnlineproyectos\PB\pbblow\Piercing Blow Remake\i3Server\src\i3Base\i3Inet.cpp
;	COMDAT ?__global_delete@@YAXPAXI@Z
_TEXT	SEGMENT
_p$ = 8							; size = 4
_sz$ = 12						; size = 4
?__global_delete@@YAXPAXI@Z PROC			; __global_delete, COMDAT

  00000	e9 00 00 00 00	 jmp	 ??3@YAXPAXI@Z		; operator delete
?__global_delete@@YAXPAXI@Z ENDP			; __global_delete
_TEXT	ENDS
; Function compile flags: /Ogtp
; File E:\Proyectos\JuegosOnlineproyectos\PB\pbblow\Piercing Blow Remake\i3Server\src\i3Base\i3Inet.cpp
;	COMDAT ?__empty_global_delete@@YAXPAXI@Z
_TEXT	SEGMENT
___formal$ = 8						; size = 4
___formal$ = 12						; size = 4
?__empty_global_delete@@YAXPAXI@Z PROC			; __empty_global_delete, COMDAT

  00000	c2 00 00	 ret	 0
?__empty_global_delete@@YAXPAXI@Z ENDP			; __empty_global_delete
_TEXT	ENDS
; Function compile flags: /Ogtp
; File E:\Proyectos\JuegosOnlineproyectos\PB\pbblow\Piercing Blow Remake\i3Server\src\i3Base\i3Inet.cpp
;	COMDAT ?__global_delete@@YAXPAX@Z
_TEXT	SEGMENT
_p$ = 8							; size = 4
?__global_delete@@YAXPAX@Z PROC				; __global_delete, COMDAT

  00000	e9 00 00 00 00	 jmp	 ??3@YAXPAX@Z		; operator delete
?__global_delete@@YAXPAX@Z ENDP				; __global_delete
_TEXT	ENDS
; Function compile flags: /Ogtp
; File E:\Proyectos\JuegosOnlineproyectos\PB\pbblow\Piercing Blow Remake\i3Server\src\i3Base\i3Inet.cpp
;	COMDAT ?__empty_global_delete@@YAXPAX@Z
_TEXT	SEGMENT
___formal$ = 8						; size = 4
?__empty_global_delete@@YAXPAX@Z PROC			; __empty_global_delete, COMDAT

  00000	c2 00 00	 ret	 0
?__empty_global_delete@@YAXPAX@Z ENDP			; __empty_global_delete
_TEXT	ENDS
END
