; Listing generated by Microsoft (R) Optimizing Compiler Version 19.50.35727.0 

	TITLE	E:\Proyectos\JuegosOnlineproyectos\PB\pbblow\Piercing Blow Remake\i3Server\Project\I3_DX\i3Server\x86\Release\i3Lexer.obj
	.686P
	.XMM
	include listing.inc
	.model	flat

INCLUDELIB LIBCMT
INCLUDELIB OLDNAMES

PUBLIC	?s_pClassMetai3LineLexer@i3LineLexer@@2PAVi3ClassMeta@@A ; i3LineLexer::s_pClassMetai3LineLexer
PUBLIC	?s_pClassMetai3SimpleLineLexer@i3SimpleLineLexer@@2PAVi3ClassMeta@@A ; i3SimpleLineLexer::s_pClassMetai3SimpleLineLexer
PUBLIC	?CreateInstance@?$i3MetaTemplate@Vi3LineLexer@@@@UAEPAVi3ElementBase@@W4I3_CLASSMETA_TYPE@@@Z ; i3MetaTemplate<i3LineLexer>::CreateInstance
PUBLIC	?BindInstance@?$i3MetaTemplate@Vi3LineLexer@@@@UAEPAVi3ElementBase@@PAXW4I3_CLASSMETA_TYPE@@@Z ; i3MetaTemplate<i3LineLexer>::BindInstance
PUBLIC	??_7?$i3MetaTemplate@Vi3LineLexer@@@@6B@	; i3MetaTemplate<i3LineLexer>::`vftable'
PUBLIC	??_G?$i3MetaTemplate@Vi3LineLexer@@@@UAEPAXI@Z	; i3MetaTemplate<i3LineLexer>::`scalar deleting destructor'
PUBLIC	??_C@_0O@OCDFBOHM@i3ElementBase@		; `string'
PUBLIC	??_C@_0M@DMCGOLOI@i3LineLexer@			; `string'
PUBLIC	?CreateInstance@?$i3MetaTemplate@Vi3SimpleLineLexer@@@@UAEPAVi3ElementBase@@W4I3_CLASSMETA_TYPE@@@Z ; i3MetaTemplate<i3SimpleLineLexer>::CreateInstance
PUBLIC	?BindInstance@?$i3MetaTemplate@Vi3SimpleLineLexer@@@@UAEPAVi3ElementBase@@PAXW4I3_CLASSMETA_TYPE@@@Z ; i3MetaTemplate<i3SimpleLineLexer>::BindInstance
PUBLIC	??_7?$i3MetaTemplate@Vi3SimpleLineLexer@@@@6B@	; i3MetaTemplate<i3SimpleLineLexer>::`vftable'
PUBLIC	??_G?$i3MetaTemplate@Vi3SimpleLineLexer@@@@UAEPAXI@Z ; i3MetaTemplate<i3SimpleLineLexer>::`scalar deleting destructor'
PUBLIC	??_C@_0BC@JOOAPOP@i3SimpleLineLexer@		; `string'
PUBLIC	??_R0?AVi3ClassMeta@@@8				; i3ClassMeta `RTTI Type Descriptor'
PUBLIC	??_R3i3ClassMeta@@8				; i3ClassMeta::`RTTI Class Hierarchy Descriptor'
PUBLIC	??_R2i3ClassMeta@@8				; i3ClassMeta::`RTTI Base Class Array'
PUBLIC	??_R1A@?0A@EA@i3ClassMeta@@8			; i3ClassMeta::`RTTI Base Class Descriptor at (0,-1,0,64)'
PUBLIC	??_R4?$i3MetaTemplate@Vi3LineLexer@@@@6B@	; i3MetaTemplate<i3LineLexer>::`RTTI Complete Object Locator'
PUBLIC	??_R0?AV?$i3MetaTemplate@Vi3LineLexer@@@@@8	; i3MetaTemplate<i3LineLexer> `RTTI Type Descriptor'
PUBLIC	??_R3?$i3MetaTemplate@Vi3LineLexer@@@@8		; i3MetaTemplate<i3LineLexer>::`RTTI Class Hierarchy Descriptor'
PUBLIC	??_R2?$i3MetaTemplate@Vi3LineLexer@@@@8		; i3MetaTemplate<i3LineLexer>::`RTTI Base Class Array'
PUBLIC	??_R1A@?0A@EA@?$i3MetaTemplate@Vi3LineLexer@@@@8 ; i3MetaTemplate<i3LineLexer>::`RTTI Base Class Descriptor at (0,-1,0,64)'
PUBLIC	??_R4?$i3MetaTemplate@Vi3SimpleLineLexer@@@@6B@	; i3MetaTemplate<i3SimpleLineLexer>::`RTTI Complete Object Locator'
PUBLIC	??_R0?AV?$i3MetaTemplate@Vi3SimpleLineLexer@@@@@8 ; i3MetaTemplate<i3SimpleLineLexer> `RTTI Type Descriptor'
PUBLIC	??_R3?$i3MetaTemplate@Vi3SimpleLineLexer@@@@8	; i3MetaTemplate<i3SimpleLineLexer>::`RTTI Class Hierarchy Descriptor'
PUBLIC	??_R2?$i3MetaTemplate@Vi3SimpleLineLexer@@@@8	; i3MetaTemplate<i3SimpleLineLexer>::`RTTI Base Class Array'
PUBLIC	??_R1A@?0A@EA@?$i3MetaTemplate@Vi3SimpleLineLexer@@@@8 ; i3MetaTemplate<i3SimpleLineLexer>::`RTTI Base Class Descriptor at (0,-1,0,64)'
PUBLIC	__Avx2WmemEnabledWeakValue
EXTRN	??_E?$i3MetaTemplate@Vi3LineLexer@@@@UAEPAXI@Z:PROC ; i3MetaTemplate<i3LineLexer>::`vector deleting destructor'
EXTRN	??_E?$i3MetaTemplate@Vi3SimpleLineLexer@@@@UAEPAXI@Z:PROC ; i3MetaTemplate<i3SimpleLineLexer>::`vector deleting destructor'
EXTRN	??_7type_info@@6B@:QWORD			; type_info::`vftable'
;	COMDAT __Avx2WmemEnabledWeakValue
_BSS	SEGMENT
__Avx2WmemEnabledWeakValue DD 01H DUP (?)
_BSS	ENDS
;	COMDAT ??_R1A@?0A@EA@?$i3MetaTemplate@Vi3SimpleLineLexer@@@@8
rdata$r	SEGMENT
??_R1A@?0A@EA@?$i3MetaTemplate@Vi3SimpleLineLexer@@@@8 DD FLAT:??_R0?AV?$i3MetaTemplate@Vi3SimpleLineLexer@@@@@8 ; i3MetaTemplate<i3SimpleLineLexer>::`RTTI Base Class Descriptor at (0,-1,0,64)'
	DD	01H
	DD	00H
	DD	0ffffffffH
	DD	00H
	DD	040H
	DD	FLAT:??_R3?$i3MetaTemplate@Vi3SimpleLineLexer@@@@8
rdata$r	ENDS
;	COMDAT ??_R2?$i3MetaTemplate@Vi3SimpleLineLexer@@@@8
rdata$r	SEGMENT
??_R2?$i3MetaTemplate@Vi3SimpleLineLexer@@@@8 DD FLAT:??_R1A@?0A@EA@?$i3MetaTemplate@Vi3SimpleLineLexer@@@@8 ; i3MetaTemplate<i3SimpleLineLexer>::`RTTI Base Class Array'
	DD	FLAT:??_R1A@?0A@EA@i3ClassMeta@@8
rdata$r	ENDS
;	COMDAT ??_R3?$i3MetaTemplate@Vi3SimpleLineLexer@@@@8
rdata$r	SEGMENT
??_R3?$i3MetaTemplate@Vi3SimpleLineLexer@@@@8 DD 00H	; i3MetaTemplate<i3SimpleLineLexer>::`RTTI Class Hierarchy Descriptor'
	DD	00H
	DD	02H
	DD	FLAT:??_R2?$i3MetaTemplate@Vi3SimpleLineLexer@@@@8
rdata$r	ENDS
;	COMDAT ??_R0?AV?$i3MetaTemplate@Vi3SimpleLineLexer@@@@@8
data$rs	SEGMENT
??_R0?AV?$i3MetaTemplate@Vi3SimpleLineLexer@@@@@8 DD FLAT:??_7type_info@@6B@ ; i3MetaTemplate<i3SimpleLineLexer> `RTTI Type Descriptor'
	DD	00H
	DB	'.?AV?$i3MetaTemplate@Vi3SimpleLineLexer@@@@', 00H
data$rs	ENDS
;	COMDAT ??_R4?$i3MetaTemplate@Vi3SimpleLineLexer@@@@6B@
rdata$r	SEGMENT
??_R4?$i3MetaTemplate@Vi3SimpleLineLexer@@@@6B@ DD 00H	; i3MetaTemplate<i3SimpleLineLexer>::`RTTI Complete Object Locator'
	DD	00H
	DD	00H
	DD	FLAT:??_R0?AV?$i3MetaTemplate@Vi3SimpleLineLexer@@@@@8
	DD	FLAT:??_R3?$i3MetaTemplate@Vi3SimpleLineLexer@@@@8
rdata$r	ENDS
;	COMDAT ??_R1A@?0A@EA@?$i3MetaTemplate@Vi3LineLexer@@@@8
rdata$r	SEGMENT
??_R1A@?0A@EA@?$i3MetaTemplate@Vi3LineLexer@@@@8 DD FLAT:??_R0?AV?$i3MetaTemplate@Vi3LineLexer@@@@@8 ; i3MetaTemplate<i3LineLexer>::`RTTI Base Class Descriptor at (0,-1,0,64)'
	DD	01H
	DD	00H
	DD	0ffffffffH
	DD	00H
	DD	040H
	DD	FLAT:??_R3?$i3MetaTemplate@Vi3LineLexer@@@@8
rdata$r	ENDS
;	COMDAT ??_R2?$i3MetaTemplate@Vi3LineLexer@@@@8
rdata$r	SEGMENT
??_R2?$i3MetaTemplate@Vi3LineLexer@@@@8 DD FLAT:??_R1A@?0A@EA@?$i3MetaTemplate@Vi3LineLexer@@@@8 ; i3MetaTemplate<i3LineLexer>::`RTTI Base Class Array'
	DD	FLAT:??_R1A@?0A@EA@i3ClassMeta@@8
rdata$r	ENDS
;	COMDAT ??_R3?$i3MetaTemplate@Vi3LineLexer@@@@8
rdata$r	SEGMENT
??_R3?$i3MetaTemplate@Vi3LineLexer@@@@8 DD 00H		; i3MetaTemplate<i3LineLexer>::`RTTI Class Hierarchy Descriptor'
	DD	00H
	DD	02H
	DD	FLAT:??_R2?$i3MetaTemplate@Vi3LineLexer@@@@8
rdata$r	ENDS
;	COMDAT ??_R0?AV?$i3MetaTemplate@Vi3LineLexer@@@@@8
data$rs	SEGMENT
??_R0?AV?$i3MetaTemplate@Vi3LineLexer@@@@@8 DD FLAT:??_7type_info@@6B@ ; i3MetaTemplate<i3LineLexer> `RTTI Type Descriptor'
	DD	00H
	DB	'.?AV?$i3MetaTemplate@Vi3LineLexer@@@@', 00H
data$rs	ENDS
;	COMDAT ??_R4?$i3MetaTemplate@Vi3LineLexer@@@@6B@
rdata$r	SEGMENT
??_R4?$i3MetaTemplate@Vi3LineLexer@@@@6B@ DD 00H	; i3MetaTemplate<i3LineLexer>::`RTTI Complete Object Locator'
	DD	00H
	DD	00H
	DD	FLAT:??_R0?AV?$i3MetaTemplate@Vi3LineLexer@@@@@8
	DD	FLAT:??_R3?$i3MetaTemplate@Vi3LineLexer@@@@8
rdata$r	ENDS
;	COMDAT ??_R1A@?0A@EA@i3ClassMeta@@8
rdata$r	SEGMENT
??_R1A@?0A@EA@i3ClassMeta@@8 DD FLAT:??_R0?AVi3ClassMeta@@@8 ; i3ClassMeta::`RTTI Base Class Descriptor at (0,-1,0,64)'
	DD	00H
	DD	00H
	DD	0ffffffffH
	DD	00H
	DD	040H
	DD	FLAT:??_R3i3ClassMeta@@8
rdata$r	ENDS
;	COMDAT ??_R2i3ClassMeta@@8
rdata$r	SEGMENT
??_R2i3ClassMeta@@8 DD FLAT:??_R1A@?0A@EA@i3ClassMeta@@8 ; i3ClassMeta::`RTTI Base Class Array'
rdata$r	ENDS
;	COMDAT ??_R3i3ClassMeta@@8
rdata$r	SEGMENT
??_R3i3ClassMeta@@8 DD 00H				; i3ClassMeta::`RTTI Class Hierarchy Descriptor'
	DD	00H
	DD	01H
	DD	FLAT:??_R2i3ClassMeta@@8
rdata$r	ENDS
;	COMDAT ??_R0?AVi3ClassMeta@@@8
data$rs	SEGMENT
??_R0?AVi3ClassMeta@@@8 DD FLAT:??_7type_info@@6B@	; i3ClassMeta `RTTI Type Descriptor'
	DD	00H
	DB	'.?AVi3ClassMeta@@', 00H
data$rs	ENDS
;	COMDAT ??_C@_0BC@JOOAPOP@i3SimpleLineLexer@
CONST	SEGMENT
??_C@_0BC@JOOAPOP@i3SimpleLineLexer@ DB 'i3SimpleLineLexer', 00H ; `string'
CONST	ENDS
;	COMDAT ??_7?$i3MetaTemplate@Vi3SimpleLineLexer@@@@6B@
CONST	SEGMENT
??_7?$i3MetaTemplate@Vi3SimpleLineLexer@@@@6B@ DD FLAT:??_R4?$i3MetaTemplate@Vi3SimpleLineLexer@@@@6B@ ; i3MetaTemplate<i3SimpleLineLexer>::`vftable'
	DD	FLAT:??_E?$i3MetaTemplate@Vi3SimpleLineLexer@@@@UAEPAXI@Z
	DD	FLAT:?CreateInstance@?$i3MetaTemplate@Vi3SimpleLineLexer@@@@UAEPAVi3ElementBase@@W4I3_CLASSMETA_TYPE@@@Z
	DD	FLAT:?BindInstance@?$i3MetaTemplate@Vi3SimpleLineLexer@@@@UAEPAVi3ElementBase@@PAXW4I3_CLASSMETA_TYPE@@@Z
CONST	ENDS
;	COMDAT ??_C@_0M@DMCGOLOI@i3LineLexer@
CONST	SEGMENT
??_C@_0M@DMCGOLOI@i3LineLexer@ DB 'i3LineLexer', 00H	; `string'
CONST	ENDS
;	COMDAT ??_C@_0O@OCDFBOHM@i3ElementBase@
CONST	SEGMENT
??_C@_0O@OCDFBOHM@i3ElementBase@ DB 'i3ElementBase', 00H ; `string'
CONST	ENDS
;	COMDAT ??_7?$i3MetaTemplate@Vi3LineLexer@@@@6B@
CONST	SEGMENT
??_7?$i3MetaTemplate@Vi3LineLexer@@@@6B@ DD FLAT:??_R4?$i3MetaTemplate@Vi3LineLexer@@@@6B@ ; i3MetaTemplate<i3LineLexer>::`vftable'
	DD	FLAT:??_E?$i3MetaTemplate@Vi3LineLexer@@@@UAEPAXI@Z
	DD	FLAT:?CreateInstance@?$i3MetaTemplate@Vi3LineLexer@@@@UAEPAVi3ElementBase@@W4I3_CLASSMETA_TYPE@@@Z
	DD	FLAT:?BindInstance@?$i3MetaTemplate@Vi3LineLexer@@@@UAEPAVi3ElementBase@@PAXW4I3_CLASSMETA_TYPE@@@Z
CONST	ENDS
_DATA	SEGMENT
?s_pClassMetai3LineLexer@i3LineLexer@@2PAVi3ClassMeta@@A DD FLAT:?s_ClassMetai3LineLexer@@3V?$i3MetaTemplate@Vi3LineLexer@@@@A ; i3LineLexer::s_pClassMetai3LineLexer
?s_pClassMetai3SimpleLineLexer@i3SimpleLineLexer@@2PAVi3ClassMeta@@A DD FLAT:?s_ClassMetai3SimpleLineLexer@@3V?$i3MetaTemplate@Vi3SimpleLineLexer@@@@A ; i3SimpleLineLexer::s_pClassMetai3SimpleLineLexer
_DATA	ENDS
PUBLIC	?__empty_global_delete@@YAXPAX@Z		; __empty_global_delete
PUBLIC	?__global_delete@@YAXPAX@Z			; __global_delete
PUBLIC	?__empty_global_delete@@YAXPAXI@Z		; __empty_global_delete
PUBLIC	?__global_delete@@YAXPAXI@Z			; __global_delete
PUBLIC	?__global_array_delete@@YAXPAX@Z		; __global_array_delete
PUBLIC	?__global_array_delete@@YAXPAXI@Z		; __global_array_delete
PUBLIC	___local_stdio_printf_options
PUBLIC	_sprintf
PUBLIC	?GetMemoryPool@i3ClassMeta@@QAEPAVi3MemoryPool@@XZ ; i3ClassMeta::GetMemoryPool
PUBLIC	?SetMemoryPool@i3ClassMeta@@QAEXPAVi3MemoryPool@@@Z ; i3ClassMeta::SetMemoryPool
PUBLIC	?GetClassSize@i3ClassMeta@@QAEIXZ		; i3ClassMeta::GetClassSize
PUBLIC	?GetClassNameA@i3ClassMeta@@QAEPADXZ		; i3ClassMeta::GetClassNameA
PUBLIC	?IsExactTypeOf@i3ClassMeta@@QAE_NPAV1@@Z	; i3ClassMeta::IsExactTypeOf
PUBLIC	?SetStyle@i3ClassMeta@@QAEXI@Z			; i3ClassMeta::SetStyle
PUBLIC	?GetStyle@i3ClassMeta@@QAEIXZ			; i3ClassMeta::GetStyle
PUBLIC	?AddStyle@i3ClassMeta@@QAEXI@Z			; i3ClassMeta::AddStyle
PUBLIC	?RemoveStyle@i3ClassMeta@@QAEXI@Z		; i3ClassMeta::RemoveStyle
PUBLIC	?IsStyle@i3ClassMeta@@QAEHI@Z			; i3ClassMeta::IsStyle
PUBLIC	?IsAbstractClass@i3ClassMeta@@QAEHXZ		; i3ClassMeta::IsAbstractClass
PUBLIC	?IsConcreteClass@i3ClassMeta@@QAEHXZ		; i3ClassMeta::IsConcreteClass
PUBLIC	?GetBaseClassMeta@i3ClassMeta@@QAEPAV1@XZ	; i3ClassMeta::GetBaseClassMeta
PUBLIC	?getHashCode@i3ClassMeta@@QAEIXZ		; i3ClassMeta::getHashCode
PUBLIC	??0i3ClassMeta@@QAE@ABV0@@Z			; i3ClassMeta::i3ClassMeta
PUBLIC	??4i3ClassMeta@@QAEAAV0@ABV0@@Z			; i3ClassMeta::operator=
PUBLIC	??_Gi3ClassMeta@@UAEPAXI@Z			; i3ClassMeta::`scalar deleting destructor'
PUBLIC	??_Ei3ClassMeta@@UAEPAXI@Z			; i3ClassMeta::`vector deleting destructor'
PUBLIC	?GetClassMeta@i3ElementBase@@SAPAVi3ClassMeta@@XZ ; i3ElementBase::GetClassMeta
PUBLIC	?GetRefCount@i3ElementBase@@QAEHXZ		; i3ElementBase::GetRefCount
PUBLIC	?__SetMemoryPool@i3ElementBase@@QAEXPAVi3MemoryPool@@@Z ; i3ElementBase::__SetMemoryPool
PUBLIC	?__GetMemoryPool@i3ElementBase@@QAEPAVi3MemoryPool@@XZ ; i3ElementBase::__GetMemoryPool
PUBLIC	?IsExactTypeOf@i3ElementBase@@QAE_NPAVi3ClassMeta@@@Z ; i3ElementBase::IsExactTypeOf
PUBLIC	?IsTypeOf@i3ElementBase@@QAE_NPAVi3ClassMeta@@@Z ; i3ElementBase::IsTypeOf
PUBLIC	?AddRef@i3ElementBase@@QAEHXZ			; i3ElementBase::AddRef
PUBLIC	?_internal_SetRefCount@i3ElementBase@@QAEXH@Z	; i3ElementBase::_internal_SetRefCount
PUBLIC	??0i3ElementBase@@QAE@ABV0@@Z			; i3ElementBase::i3ElementBase
PUBLIC	??4i3ElementBase@@QAEAAV0@ABV0@@Z		; i3ElementBase::operator=
PUBLIC	??_Gi3ElementBase@@UAEPAXI@Z			; i3ElementBase::`scalar deleting destructor'
PUBLIC	??_Ei3ElementBase@@UAEPAXI@Z			; i3ElementBase::`vector deleting destructor'
PUBLIC	??0i3MemoryPool@@QAE@ABV0@@Z			; i3MemoryPool::i3MemoryPool
PUBLIC	??4i3MemoryPool@@QAEAAV0@ABV0@@Z		; i3MemoryPool::operator=
PUBLIC	??_Gi3MemoryPool@@UAEPAXI@Z			; i3MemoryPool::`scalar deleting destructor'
PUBLIC	??_Ei3MemoryPool@@UAEPAXI@Z			; i3MemoryPool::`vector deleting destructor'
PUBLIC	?GetClassMeta@i3LineLexer@@SAPAVi3ClassMeta@@XZ	; i3LineLexer::GetClassMeta
PUBLIC	?GetMeta@i3LineLexer@@UAEPAVi3ClassMeta@@XZ	; i3LineLexer::GetMeta
PUBLIC	?RegisterMeta@i3LineLexer@@SAXXZ		; i3LineLexer::RegisterMeta
PUBLIC	?SetConcreteClass@i3LineLexer@@SAXPAVi3ClassMeta@@@Z ; i3LineLexer::SetConcreteClass
PUBLIC	?SetGhostClass@i3LineLexer@@SAXPAVi3ClassMeta@@@Z ; i3LineLexer::SetGhostClass
PUBLIC	?_NewObject@i3LineLexer@@SAPAV1@XZ		; i3LineLexer::_NewObject
PUBLIC	?_NewObjectRef@i3LineLexer@@SAPAV1@XZ		; i3LineLexer::_NewObjectRef
PUBLIC	?_BindObject@i3LineLexer@@SAPAV1@PAX@Z		; i3LineLexer::_BindObject
PUBLIC	?_BindObjectRef@i3LineLexer@@SAPAV1@PAX@Z	; i3LineLexer::_BindObjectRef
PUBLIC	?_NewObjectByType@i3LineLexer@@SAPAV1@W4I3_CLASSMETA_TYPE@@@Z ; i3LineLexer::_NewObjectByType
PUBLIC	?_NewObjectRefByType@i3LineLexer@@SAPAV1@W4I3_CLASSMETA_TYPE@@@Z ; i3LineLexer::_NewObjectRefByType
PUBLIC	?_BindObjectByType@i3LineLexer@@SAPAV1@PAXW4I3_CLASSMETA_TYPE@@@Z ; i3LineLexer::_BindObjectByType
PUBLIC	?_BindObjectRefByType@i3LineLexer@@SAPAV1@PAXW4I3_CLASSMETA_TYPE@@@Z ; i3LineLexer::_BindObjectRefByType
PUBLIC	?IsWhiteCode@i3LineLexer@@QAE_ND@Z		; i3LineLexer::IsWhiteCode
PUBLIC	?IsSeparator@i3LineLexer@@QAE_NDPAD@Z		; i3LineLexer::IsSeparator
PUBLIC	??0i3LineLexer@@QAE@XZ				; i3LineLexer::i3LineLexer
PUBLIC	??1i3LineLexer@@UAE@XZ				; i3LineLexer::~i3LineLexer
PUBLIC	?SetMasterString@i3LineLexer@@QAEXPAD@Z		; i3LineLexer::SetMasterString
PUBLIC	?GetMasterString@i3LineLexer@@QAEPADXZ		; i3LineLexer::GetMasterString
PUBLIC	?getCurrentPosition@i3LineLexer@@QAEPADXZ	; i3LineLexer::getCurrentPosition
PUBLIC	?GetNextToken@i3LineLexer@@QAEHPAD00@Z		; i3LineLexer::GetNextToken
PUBLIC	?GetNextTokenWithoutWhite@i3LineLexer@@QAEHPAD0@Z ; i3LineLexer::GetNextTokenWithoutWhite
PUBLIC	??0i3LineLexer@@QAE@ABV0@@Z			; i3LineLexer::i3LineLexer
PUBLIC	??4i3LineLexer@@QAEAAV0@ABV0@@Z			; i3LineLexer::operator=
PUBLIC	??_Gi3LineLexer@@UAEPAXI@Z			; i3LineLexer::`scalar deleting destructor'
PUBLIC	??_Ei3LineLexer@@UAEPAXI@Z			; i3LineLexer::`vector deleting destructor'
PUBLIC	?GetClassMeta@i3SimpleLineLexer@@SAPAVi3ClassMeta@@XZ ; i3SimpleLineLexer::GetClassMeta
PUBLIC	?GetMeta@i3SimpleLineLexer@@UAEPAVi3ClassMeta@@XZ ; i3SimpleLineLexer::GetMeta
PUBLIC	?RegisterMeta@i3SimpleLineLexer@@SAXXZ		; i3SimpleLineLexer::RegisterMeta
PUBLIC	?SetConcreteClass@i3SimpleLineLexer@@SAXPAVi3ClassMeta@@@Z ; i3SimpleLineLexer::SetConcreteClass
PUBLIC	?SetGhostClass@i3SimpleLineLexer@@SAXPAVi3ClassMeta@@@Z ; i3SimpleLineLexer::SetGhostClass
PUBLIC	?_NewObject@i3SimpleLineLexer@@SAPAV1@XZ	; i3SimpleLineLexer::_NewObject
PUBLIC	?_NewObjectRef@i3SimpleLineLexer@@SAPAV1@XZ	; i3SimpleLineLexer::_NewObjectRef
PUBLIC	?_BindObject@i3SimpleLineLexer@@SAPAV1@PAX@Z	; i3SimpleLineLexer::_BindObject
PUBLIC	?_BindObjectRef@i3SimpleLineLexer@@SAPAV1@PAX@Z	; i3SimpleLineLexer::_BindObjectRef
PUBLIC	?_NewObjectByType@i3SimpleLineLexer@@SAPAV1@W4I3_CLASSMETA_TYPE@@@Z ; i3SimpleLineLexer::_NewObjectByType
PUBLIC	?_NewObjectRefByType@i3SimpleLineLexer@@SAPAV1@W4I3_CLASSMETA_TYPE@@@Z ; i3SimpleLineLexer::_NewObjectRefByType
PUBLIC	?_BindObjectByType@i3SimpleLineLexer@@SAPAV1@PAXW4I3_CLASSMETA_TYPE@@@Z ; i3SimpleLineLexer::_BindObjectByType
PUBLIC	?_BindObjectRefByType@i3SimpleLineLexer@@SAPAV1@PAXW4I3_CLASSMETA_TYPE@@@Z ; i3SimpleLineLexer::_BindObjectRefByType
PUBLIC	??0i3SimpleLineLexer@@QAE@XZ			; i3SimpleLineLexer::i3SimpleLineLexer
PUBLIC	??1i3SimpleLineLexer@@UAE@XZ			; i3SimpleLineLexer::~i3SimpleLineLexer
PUBLIC	?SetText@i3SimpleLineLexer@@QAEXPAD@Z		; i3SimpleLineLexer::SetText
PUBLIC	?GetNextToken@i3SimpleLineLexer@@QAEPADH@Z	; i3SimpleLineLexer::GetNextToken
PUBLIC	?GetValuesFromString@i3SimpleLineLexer@@QAEHPAHHHPAD@Z ; i3SimpleLineLexer::GetValuesFromString
PUBLIC	?GetValuesFromString@i3SimpleLineLexer@@QAEHPAMHHPAD@Z ; i3SimpleLineLexer::GetValuesFromString
PUBLIC	??0i3SimpleLineLexer@@QAE@ABV0@@Z		; i3SimpleLineLexer::i3SimpleLineLexer
PUBLIC	??4i3SimpleLineLexer@@QAEAAV0@ABV0@@Z		; i3SimpleLineLexer::operator=
PUBLIC	??_Gi3SimpleLineLexer@@UAEPAXI@Z		; i3SimpleLineLexer::`scalar deleting destructor'
PUBLIC	??_Ei3SimpleLineLexer@@UAEPAXI@Z		; i3SimpleLineLexer::`vector deleting destructor'
PUBLIC	??0?$i3MetaTemplate@Vi3LineLexer@@@@QAE@IPAD0W4I3_CLASSMETA_TYPE@@@Z ; i3MetaTemplate<i3LineLexer>::i3MetaTemplate<i3LineLexer>
PUBLIC	??0?$i3MetaTemplate@Vi3SimpleLineLexer@@@@QAE@IPAD0W4I3_CLASSMETA_TYPE@@@Z ; i3MetaTemplate<i3SimpleLineLexer>::i3MetaTemplate<i3SimpleLineLexer>
PUBLIC	?_OptionsStorage@?1??__local_stdio_printf_options@@9@4_KA ; `__local_stdio_printf_options'::`2'::_OptionsStorage
PUBLIC	??_7i3ClassMeta@@6B@				; i3ClassMeta::`vftable'
PUBLIC	??_7i3ElementBase@@6B@				; i3ElementBase::`vftable'
PUBLIC	??_7i3MemoryPool@@6B@				; i3MemoryPool::`vftable'
PUBLIC	??_7i3LineLexer@@6B@				; i3LineLexer::`vftable'
PUBLIC	??_7i3SimpleLineLexer@@6B@			; i3SimpleLineLexer::`vftable'
PUBLIC	??_C@_04HDOCAJNK@?$CFs?$CFs@			; `string'
PUBLIC	??_C@_02DKCKIIND@?$CFs@				; `string'
PUBLIC	??_R4i3ElementBase@@6B@				; i3ElementBase::`RTTI Complete Object Locator'
PUBLIC	??_R0?AVi3ElementBase@@@8			; i3ElementBase `RTTI Type Descriptor'
PUBLIC	??_R3i3ElementBase@@8				; i3ElementBase::`RTTI Class Hierarchy Descriptor'
PUBLIC	??_R2i3ElementBase@@8				; i3ElementBase::`RTTI Base Class Array'
PUBLIC	??_R1A@?0A@EA@i3ElementBase@@8			; i3ElementBase::`RTTI Base Class Descriptor at (0,-1,0,64)'
PUBLIC	??_R4i3MemoryPool@@6B@				; i3MemoryPool::`RTTI Complete Object Locator'
PUBLIC	??_R0?AVi3MemoryPool@@@8			; i3MemoryPool `RTTI Type Descriptor'
PUBLIC	??_R3i3MemoryPool@@8				; i3MemoryPool::`RTTI Class Hierarchy Descriptor'
PUBLIC	??_R2i3MemoryPool@@8				; i3MemoryPool::`RTTI Base Class Array'
PUBLIC	??_R1A@?0A@EA@i3MemoryPool@@8			; i3MemoryPool::`RTTI Base Class Descriptor at (0,-1,0,64)'
PUBLIC	??_R4i3ClassMeta@@6B@				; i3ClassMeta::`RTTI Complete Object Locator'
PUBLIC	??_R4i3LineLexer@@6B@				; i3LineLexer::`RTTI Complete Object Locator'
PUBLIC	??_R0?AVi3LineLexer@@@8				; i3LineLexer `RTTI Type Descriptor'
PUBLIC	??_R3i3LineLexer@@8				; i3LineLexer::`RTTI Class Hierarchy Descriptor'
PUBLIC	??_R2i3LineLexer@@8				; i3LineLexer::`RTTI Base Class Array'
PUBLIC	??_R1A@?0A@EA@i3LineLexer@@8			; i3LineLexer::`RTTI Base Class Descriptor at (0,-1,0,64)'
PUBLIC	??_R4i3SimpleLineLexer@@6B@			; i3SimpleLineLexer::`RTTI Complete Object Locator'
PUBLIC	??_R0?AVi3SimpleLineLexer@@@8			; i3SimpleLineLexer `RTTI Type Descriptor'
PUBLIC	??_R3i3SimpleLineLexer@@8			; i3SimpleLineLexer::`RTTI Class Hierarchy Descriptor'
PUBLIC	??_R2i3SimpleLineLexer@@8			; i3SimpleLineLexer::`RTTI Base Class Array'
PUBLIC	??_R1A@?0A@EA@i3SimpleLineLexer@@8		; i3SimpleLineLexer::`RTTI Base Class Descriptor at (0,-1,0,64)'
EXTRN	??_M@YGXPAXIIP6EX0@Z@Z:PROC			; `eh vector destructor iterator'
EXTRN	__purecall:PROC
EXTRN	??3@YAXPAX@Z:PROC				; operator delete
EXTRN	??3@YAXPAXI@Z:PROC				; operator delete
EXTRN	??_V@YAXPAX@Z:PROC				; operator delete[]
EXTRN	??_V@YAXPAXI@Z:PROC				; operator delete[]
EXTRN	_atexit:PROC
EXTRN	_strchr:PROC
EXTRN	___stdio_common_vsprintf:PROC
EXTRN	_atof:PROC
EXTRN	_strtol:PROC
EXTRN	??0i3ClassMeta@@QAE@IPAD0W4I3_CLASSMETA_TYPE@@@Z:PROC ; i3ClassMeta::i3ClassMeta
EXTRN	??1i3ClassMeta@@UAE@XZ:PROC			; i3ClassMeta::~i3ClassMeta
EXTRN	?CreateInstance@i3ClassMeta@@UAEPAVi3ElementBase@@W4I3_CLASSMETA_TYPE@@@Z:PROC ; i3ClassMeta::CreateInstance
EXTRN	?BindInstance@i3ClassMeta@@UAEPAVi3ElementBase@@PAXW4I3_CLASSMETA_TYPE@@@Z:PROC ; i3ClassMeta::BindInstance
EXTRN	?IsTypeOf@i3ClassMeta@@QAE_NPAV1@@Z:PROC	; i3ClassMeta::IsTypeOf
EXTRN	?Register@i3ClassMeta@@QAEXXZ:PROC		; i3ClassMeta::Register
EXTRN	?GetConcreteClass@i3ClassMeta@@QAEPAV1@W4I3_CLASSMETA_TYPE@@@Z:PROC ; i3ClassMeta::GetConcreteClass
EXTRN	?SetConcreteClass@i3ClassMeta@@QAEXPAV1@@Z:PROC	; i3ClassMeta::SetConcreteClass
EXTRN	?SetGhostClass@i3ClassMeta@@QAEXPAV1@@Z:PROC	; i3ClassMeta::SetGhostClass
EXTRN	?GetMeta@i3ElementBase@@UAEPAVi3ClassMeta@@XZ:PROC ; i3ElementBase::GetMeta
EXTRN	??0i3ElementBase@@QAE@XZ:PROC			; i3ElementBase::i3ElementBase
EXTRN	??1i3ElementBase@@UAE@XZ:PROC			; i3ElementBase::~i3ElementBase
EXTRN	??2i3ElementBase@@SAPAXI@Z:PROC			; i3ElementBase::operator new
EXTRN	??2i3ElementBase@@SAPAXIPAX@Z:PROC		; i3ElementBase::operator new
EXTRN	??3i3ElementBase@@SAXPAX@Z:PROC			; i3ElementBase::operator delete
EXTRN	??3i3ElementBase@@SAXPAX0@Z:PROC		; i3ElementBase::operator delete
EXTRN	?CopyTo@i3ElementBase@@UAEXPAV1@W4I3_COPY_METHOD@@@Z:PROC ; i3ElementBase::CopyTo
EXTRN	??1i3MemoryPool@@UAE@XZ:PROC			; i3MemoryPool::~i3MemoryPool
EXTRN	@__security_check_cookie@4:PROC
EXTRN	___CxxFrameHandler3:PROC
EXTRN	?s_pClassMetai3ElementBase@i3ElementBase@@2PAVi3ClassMeta@@A:DWORD ; i3ElementBase::s_pClassMetai3ElementBase
EXTRN	___security_cookie:DWORD
EXTRN	__fltused:DWORD
;	COMDAT ?_OptionsStorage@?1??__local_stdio_printf_options@@9@4_KA
_BSS	SEGMENT
?_OptionsStorage@?1??__local_stdio_printf_options@@9@4_KA DQ 01H DUP (?) ; `__local_stdio_printf_options'::`2'::_OptionsStorage
_BSS	ENDS
_BSS	SEGMENT
?s_ClassMetai3LineLexer@@3V?$i3MetaTemplate@Vi3LineLexer@@@@A DB 038H DUP (?) ; s_ClassMetai3LineLexer
?s_ClassMetai3SimpleLineLexer@@3V?$i3MetaTemplate@Vi3SimpleLineLexer@@@@A DB 038H DUP (?) ; s_ClassMetai3SimpleLineLexer
_BSS	ENDS
CRT$XCU	SEGMENT
?s_ClassMetai3LineLexer$initializer$@@3P6AXXZA DD FLAT:??__Es_ClassMetai3LineLexer@@YAXXZ ; s_ClassMetai3LineLexer$initializer$
CRT$XCU	ENDS
;	COMDAT ??_R1A@?0A@EA@i3SimpleLineLexer@@8
rdata$r	SEGMENT
??_R1A@?0A@EA@i3SimpleLineLexer@@8 DD FLAT:??_R0?AVi3SimpleLineLexer@@@8 ; i3SimpleLineLexer::`RTTI Base Class Descriptor at (0,-1,0,64)'
	DD	01H
	DD	00H
	DD	0ffffffffH
	DD	00H
	DD	040H
	DD	FLAT:??_R3i3SimpleLineLexer@@8
rdata$r	ENDS
;	COMDAT ??_R2i3SimpleLineLexer@@8
rdata$r	SEGMENT
??_R2i3SimpleLineLexer@@8 DD FLAT:??_R1A@?0A@EA@i3SimpleLineLexer@@8 ; i3SimpleLineLexer::`RTTI Base Class Array'
	DD	FLAT:??_R1A@?0A@EA@i3ElementBase@@8
rdata$r	ENDS
;	COMDAT ??_R3i3SimpleLineLexer@@8
rdata$r	SEGMENT
??_R3i3SimpleLineLexer@@8 DD 00H			; i3SimpleLineLexer::`RTTI Class Hierarchy Descriptor'
	DD	00H
	DD	02H
	DD	FLAT:??_R2i3SimpleLineLexer@@8
rdata$r	ENDS
;	COMDAT ??_R0?AVi3SimpleLineLexer@@@8
data$rs	SEGMENT
??_R0?AVi3SimpleLineLexer@@@8 DD FLAT:??_7type_info@@6B@ ; i3SimpleLineLexer `RTTI Type Descriptor'
	DD	00H
	DB	'.?AVi3SimpleLineLexer@@', 00H
data$rs	ENDS
;	COMDAT ??_R4i3SimpleLineLexer@@6B@
rdata$r	SEGMENT
??_R4i3SimpleLineLexer@@6B@ DD 00H			; i3SimpleLineLexer::`RTTI Complete Object Locator'
	DD	00H
	DD	00H
	DD	FLAT:??_R0?AVi3SimpleLineLexer@@@8
	DD	FLAT:??_R3i3SimpleLineLexer@@8
rdata$r	ENDS
;	COMDAT ??_R1A@?0A@EA@i3LineLexer@@8
rdata$r	SEGMENT
??_R1A@?0A@EA@i3LineLexer@@8 DD FLAT:??_R0?AVi3LineLexer@@@8 ; i3LineLexer::`RTTI Base Class Descriptor at (0,-1,0,64)'
	DD	01H
	DD	00H
	DD	0ffffffffH
	DD	00H
	DD	040H
	DD	FLAT:??_R3i3LineLexer@@8
rdata$r	ENDS
;	COMDAT ??_R2i3LineLexer@@8
rdata$r	SEGMENT
??_R2i3LineLexer@@8 DD FLAT:??_R1A@?0A@EA@i3LineLexer@@8 ; i3LineLexer::`RTTI Base Class Array'
	DD	FLAT:??_R1A@?0A@EA@i3ElementBase@@8
rdata$r	ENDS
;	COMDAT ??_R3i3LineLexer@@8
rdata$r	SEGMENT
??_R3i3LineLexer@@8 DD 00H				; i3LineLexer::`RTTI Class Hierarchy Descriptor'
	DD	00H
	DD	02H
	DD	FLAT:??_R2i3LineLexer@@8
rdata$r	ENDS
;	COMDAT ??_R0?AVi3LineLexer@@@8
data$rs	SEGMENT
??_R0?AVi3LineLexer@@@8 DD FLAT:??_7type_info@@6B@	; i3LineLexer `RTTI Type Descriptor'
	DD	00H
	DB	'.?AVi3LineLexer@@', 00H
data$rs	ENDS
;	COMDAT ??_R4i3LineLexer@@6B@
rdata$r	SEGMENT
??_R4i3LineLexer@@6B@ DD 00H				; i3LineLexer::`RTTI Complete Object Locator'
	DD	00H
	DD	00H
	DD	FLAT:??_R0?AVi3LineLexer@@@8
	DD	FLAT:??_R3i3LineLexer@@8
rdata$r	ENDS
;	COMDAT ??_R4i3ClassMeta@@6B@
rdata$r	SEGMENT
??_R4i3ClassMeta@@6B@ DD 00H				; i3ClassMeta::`RTTI Complete Object Locator'
	DD	00H
	DD	00H
	DD	FLAT:??_R0?AVi3ClassMeta@@@8
	DD	FLAT:??_R3i3ClassMeta@@8
rdata$r	ENDS
;	COMDAT ??_R1A@?0A@EA@i3MemoryPool@@8
rdata$r	SEGMENT
??_R1A@?0A@EA@i3MemoryPool@@8 DD FLAT:??_R0?AVi3MemoryPool@@@8 ; i3MemoryPool::`RTTI Base Class Descriptor at (0,-1,0,64)'
	DD	00H
	DD	00H
	DD	0ffffffffH
	DD	00H
	DD	040H
	DD	FLAT:??_R3i3MemoryPool@@8
rdata$r	ENDS
;	COMDAT ??_R2i3MemoryPool@@8
rdata$r	SEGMENT
??_R2i3MemoryPool@@8 DD FLAT:??_R1A@?0A@EA@i3MemoryPool@@8 ; i3MemoryPool::`RTTI Base Class Array'
rdata$r	ENDS
;	COMDAT ??_R3i3MemoryPool@@8
rdata$r	SEGMENT
??_R3i3MemoryPool@@8 DD 00H				; i3MemoryPool::`RTTI Class Hierarchy Descriptor'
	DD	00H
	DD	01H
	DD	FLAT:??_R2i3MemoryPool@@8
rdata$r	ENDS
;	COMDAT ??_R0?AVi3MemoryPool@@@8
data$rs	SEGMENT
??_R0?AVi3MemoryPool@@@8 DD FLAT:??_7type_info@@6B@	; i3MemoryPool `RTTI Type Descriptor'
	DD	00H
	DB	'.?AVi3MemoryPool@@', 00H
data$rs	ENDS
;	COMDAT ??_R4i3MemoryPool@@6B@
rdata$r	SEGMENT
??_R4i3MemoryPool@@6B@ DD 00H				; i3MemoryPool::`RTTI Complete Object Locator'
	DD	00H
	DD	00H
	DD	FLAT:??_R0?AVi3MemoryPool@@@8
	DD	FLAT:??_R3i3MemoryPool@@8
rdata$r	ENDS
;	COMDAT ??_R1A@?0A@EA@i3ElementBase@@8
rdata$r	SEGMENT
??_R1A@?0A@EA@i3ElementBase@@8 DD FLAT:??_R0?AVi3ElementBase@@@8 ; i3ElementBase::`RTTI Base Class Descriptor at (0,-1,0,64)'
	DD	00H
	DD	00H
	DD	0ffffffffH
	DD	00H
	DD	040H
	DD	FLAT:??_R3i3ElementBase@@8
rdata$r	ENDS
;	COMDAT ??_R2i3ElementBase@@8
rdata$r	SEGMENT
??_R2i3ElementBase@@8 DD FLAT:??_R1A@?0A@EA@i3ElementBase@@8 ; i3ElementBase::`RTTI Base Class Array'
rdata$r	ENDS
;	COMDAT ??_R3i3ElementBase@@8
rdata$r	SEGMENT
??_R3i3ElementBase@@8 DD 00H				; i3ElementBase::`RTTI Class Hierarchy Descriptor'
	DD	00H
	DD	01H
	DD	FLAT:??_R2i3ElementBase@@8
rdata$r	ENDS
;	COMDAT ??_R0?AVi3ElementBase@@@8
data$rs	SEGMENT
??_R0?AVi3ElementBase@@@8 DD FLAT:??_7type_info@@6B@	; i3ElementBase `RTTI Type Descriptor'
	DD	00H
	DB	'.?AVi3ElementBase@@', 00H
data$rs	ENDS
;	COMDAT ??_R4i3ElementBase@@6B@
rdata$r	SEGMENT
??_R4i3ElementBase@@6B@ DD 00H				; i3ElementBase::`RTTI Complete Object Locator'
	DD	00H
	DD	00H
	DD	FLAT:??_R0?AVi3ElementBase@@@8
	DD	FLAT:??_R3i3ElementBase@@8
rdata$r	ENDS
;	COMDAT ??_C@_02DKCKIIND@?$CFs@
CONST	SEGMENT
??_C@_02DKCKIIND@?$CFs@ DB '%s', 00H			; `string'
CONST	ENDS
;	COMDAT ??_C@_04HDOCAJNK@?$CFs?$CFs@
CONST	SEGMENT
??_C@_04HDOCAJNK@?$CFs?$CFs@ DB '%s%s', 00H		; `string'
CONST	ENDS
_DATA	SEGMENT
?_DefaultWhiteCode@@3PADA DB 020H			; _DefaultWhiteCode
	DB	0aH
	DB	0dH
	DB	09H
	DB	08H
	DB	00H
_DATA	ENDS
;	COMDAT ??_7i3SimpleLineLexer@@6B@
CONST	SEGMENT
??_7i3SimpleLineLexer@@6B@ DD FLAT:??_R4i3SimpleLineLexer@@6B@ ; i3SimpleLineLexer::`vftable'
	DD	FLAT:?GetMeta@i3SimpleLineLexer@@UAEPAVi3ClassMeta@@XZ
	DD	FLAT:??_Ei3SimpleLineLexer@@UAEPAXI@Z
	DD	FLAT:?CopyTo@i3ElementBase@@UAEXPAV1@W4I3_COPY_METHOD@@@Z
CONST	ENDS
;	COMDAT ??_7i3LineLexer@@6B@
CONST	SEGMENT
??_7i3LineLexer@@6B@ DD FLAT:??_R4i3LineLexer@@6B@	; i3LineLexer::`vftable'
	DD	FLAT:?GetMeta@i3LineLexer@@UAEPAVi3ClassMeta@@XZ
	DD	FLAT:??_Ei3LineLexer@@UAEPAXI@Z
	DD	FLAT:?CopyTo@i3ElementBase@@UAEXPAV1@W4I3_COPY_METHOD@@@Z
CONST	ENDS
;	COMDAT ??_7i3MemoryPool@@6B@
CONST	SEGMENT
??_7i3MemoryPool@@6B@ DD FLAT:??_R4i3MemoryPool@@6B@	; i3MemoryPool::`vftable'
	DD	FLAT:??_Ei3MemoryPool@@UAEPAXI@Z
	DD	FLAT:__purecall
	DD	FLAT:__purecall
CONST	ENDS
;	COMDAT ??_7i3ElementBase@@6B@
CONST	SEGMENT
??_7i3ElementBase@@6B@ DD FLAT:??_R4i3ElementBase@@6B@	; i3ElementBase::`vftable'
	DD	FLAT:?GetMeta@i3ElementBase@@UAEPAVi3ClassMeta@@XZ
	DD	FLAT:??_Ei3ElementBase@@UAEPAXI@Z
	DD	FLAT:?CopyTo@i3ElementBase@@UAEXPAV1@W4I3_COPY_METHOD@@@Z
CONST	ENDS
;	COMDAT ??_7i3ClassMeta@@6B@
CONST	SEGMENT
??_7i3ClassMeta@@6B@ DD FLAT:??_R4i3ClassMeta@@6B@	; i3ClassMeta::`vftable'
	DD	FLAT:??_Ei3ClassMeta@@UAEPAXI@Z
	DD	FLAT:?CreateInstance@i3ClassMeta@@UAEPAVi3ElementBase@@W4I3_CLASSMETA_TYPE@@@Z
	DD	FLAT:?BindInstance@i3ClassMeta@@UAEPAVi3ElementBase@@PAXW4I3_CLASSMETA_TYPE@@@Z
CONST	ENDS
;	COMDAT xdata$x
xdata$x	SEGMENT
__unwindtable$?BindInstance@?$i3MetaTemplate@Vi3SimpleLineLexer@@@@UAEPAVi3ElementBase@@PAXW4I3_CLASSMETA_TYPE@@@Z DD 0ffffffffH
	DD	FLAT:__unwindfunclet$?BindInstance@?$i3MetaTemplate@Vi3SimpleLineLexer@@@@UAEPAVi3ElementBase@@PAXW4I3_CLASSMETA_TYPE@@@Z$0
__ehfuncinfo$?BindInstance@?$i3MetaTemplate@Vi3SimpleLineLexer@@@@UAEPAVi3ElementBase@@PAXW4I3_CLASSMETA_TYPE@@@Z DD 019930522H
	DD	01H
	DD	FLAT:__unwindtable$?BindInstance@?$i3MetaTemplate@Vi3SimpleLineLexer@@@@UAEPAVi3ElementBase@@PAXW4I3_CLASSMETA_TYPE@@@Z
	DD	2 DUP(00H)
	DD	2 DUP(00H)
	DD	00H
	DD	01H
xdata$x	ENDS
;	COMDAT xdata$x
xdata$x	SEGMENT
__unwindtable$?CreateInstance@?$i3MetaTemplate@Vi3SimpleLineLexer@@@@UAEPAVi3ElementBase@@W4I3_CLASSMETA_TYPE@@@Z DD 0ffffffffH
	DD	FLAT:__unwindfunclet$?CreateInstance@?$i3MetaTemplate@Vi3SimpleLineLexer@@@@UAEPAVi3ElementBase@@W4I3_CLASSMETA_TYPE@@@Z$0
__ehfuncinfo$?CreateInstance@?$i3MetaTemplate@Vi3SimpleLineLexer@@@@UAEPAVi3ElementBase@@W4I3_CLASSMETA_TYPE@@@Z DD 019930522H
	DD	01H
	DD	FLAT:__unwindtable$?CreateInstance@?$i3MetaTemplate@Vi3SimpleLineLexer@@@@UAEPAVi3ElementBase@@W4I3_CLASSMETA_TYPE@@@Z
	DD	2 DUP(00H)
	DD	2 DUP(00H)
	DD	00H
	DD	01H
xdata$x	ENDS
;	COMDAT xdata$x
xdata$x	SEGMENT
__unwindtable$?BindInstance@?$i3MetaTemplate@Vi3LineLexer@@@@UAEPAVi3ElementBase@@PAXW4I3_CLASSMETA_TYPE@@@Z DD 0ffffffffH
	DD	FLAT:__unwindfunclet$?BindInstance@?$i3MetaTemplate@Vi3LineLexer@@@@UAEPAVi3ElementBase@@PAXW4I3_CLASSMETA_TYPE@@@Z$0
__ehfuncinfo$?BindInstance@?$i3MetaTemplate@Vi3LineLexer@@@@UAEPAVi3ElementBase@@PAXW4I3_CLASSMETA_TYPE@@@Z DD 019930522H
	DD	01H
	DD	FLAT:__unwindtable$?BindInstance@?$i3MetaTemplate@Vi3LineLexer@@@@UAEPAVi3ElementBase@@PAXW4I3_CLASSMETA_TYPE@@@Z
	DD	2 DUP(00H)
	DD	2 DUP(00H)
	DD	00H
	DD	01H
xdata$x	ENDS
;	COMDAT xdata$x
xdata$x	SEGMENT
__unwindtable$?CreateInstance@?$i3MetaTemplate@Vi3LineLexer@@@@UAEPAVi3ElementBase@@W4I3_CLASSMETA_TYPE@@@Z DD 0ffffffffH
	DD	FLAT:__unwindfunclet$?CreateInstance@?$i3MetaTemplate@Vi3LineLexer@@@@UAEPAVi3ElementBase@@W4I3_CLASSMETA_TYPE@@@Z$0
__ehfuncinfo$?CreateInstance@?$i3MetaTemplate@Vi3LineLexer@@@@UAEPAVi3ElementBase@@W4I3_CLASSMETA_TYPE@@@Z DD 019930522H
	DD	01H
	DD	FLAT:__unwindtable$?CreateInstance@?$i3MetaTemplate@Vi3LineLexer@@@@UAEPAVi3ElementBase@@W4I3_CLASSMETA_TYPE@@@Z
	DD	2 DUP(00H)
	DD	2 DUP(00H)
	DD	00H
	DD	01H
xdata$x	ENDS
;	COMDAT xdata$x
xdata$x	SEGMENT
__ehfuncinfo$??_Ei3SimpleLineLexer@@UAEPAXI@Z DD 019930522H
	DD	00H
	DD	00H
	DD	2 DUP(00H)
	DD	2 DUP(00H)
	DD	00H
	DD	05H
xdata$x	ENDS
;	COMDAT xdata$x
xdata$x	SEGMENT
__ehfuncinfo$??_Ei3LineLexer@@UAEPAXI@Z DD 019930522H
	DD	00H
	DD	00H
	DD	2 DUP(00H)
	DD	2 DUP(00H)
	DD	00H
	DD	05H
xdata$x	ENDS
;	COMDAT xdata$x
xdata$x	SEGMENT
__ehfuncinfo$??_Ei3MemoryPool@@UAEPAXI@Z DD 019930522H
	DD	00H
	DD	00H
	DD	2 DUP(00H)
	DD	2 DUP(00H)
	DD	00H
	DD	05H
xdata$x	ENDS
;	COMDAT xdata$x
xdata$x	SEGMENT
__ehfuncinfo$??_Ei3ElementBase@@UAEPAXI@Z DD 019930522H
	DD	00H
	DD	00H
	DD	2 DUP(00H)
	DD	2 DUP(00H)
	DD	00H
	DD	05H
xdata$x	ENDS
;	COMDAT xdata$x
xdata$x	SEGMENT
__ehfuncinfo$??_Ei3ClassMeta@@UAEPAXI@Z DD 019930522H
	DD	00H
	DD	00H
	DD	2 DUP(00H)
	DD	2 DUP(00H)
	DD	00H
	DD	05H
xdata$x	ENDS
CRT$XCU	SEGMENT
?s_ClassMetai3SimpleLineLexer$initializer$@@3P6AXXZA DD FLAT:??__Es_ClassMetai3SimpleLineLexer@@YAXXZ ; s_ClassMetai3SimpleLineLexer$initializer$
CRT$XCU	ENDS
; Function compile flags: /Ogtp
;	COMDAT ??__Fs_ClassMetai3SimpleLineLexer@@YAXXZ
text$yd	SEGMENT
??__Fs_ClassMetai3SimpleLineLexer@@YAXXZ PROC		; `dynamic atexit destructor for 's_ClassMetai3SimpleLineLexer'', COMDAT
  00000	b9 00 00 00 00	 mov	 ecx, OFFSET ?s_ClassMetai3SimpleLineLexer@@3V?$i3MetaTemplate@Vi3SimpleLineLexer@@@@A
  00005	e9 00 00 00 00	 jmp	 ??1i3ClassMeta@@UAE@XZ	; i3ClassMeta::~i3ClassMeta
??__Fs_ClassMetai3SimpleLineLexer@@YAXXZ ENDP		; `dynamic atexit destructor for 's_ClassMetai3SimpleLineLexer''
text$yd	ENDS
; Function compile flags: /Ogtp
; File E:\Proyectos\JuegosOnlineproyectos\PB\pbblow\Piercing Blow Remake\i3Server\src\i3Base\i3Lexer.cpp
; File E:\Proyectos\JuegosOnlineproyectos\PB\pbblow\Piercing Blow Remake\i3Server\include\i3Base\i3MetaTemplate.h
; File E:\Proyectos\JuegosOnlineproyectos\PB\pbblow\Piercing Blow Remake\i3Server\src\i3Base\i3Lexer.cpp
; File E:\Proyectos\JuegosOnlineproyectos\PB\pbblow\Piercing Blow Remake\i3Server\include\i3Base\i3MetaTemplate.h
; File E:\Proyectos\JuegosOnlineproyectos\PB\pbblow\Piercing Blow Remake\i3Server\src\i3Base\i3Lexer.cpp
;	COMDAT ??__Es_ClassMetai3SimpleLineLexer@@YAXXZ
text$di	SEGMENT
??__Es_ClassMetai3SimpleLineLexer@@YAXXZ PROC		; `dynamic initializer for 's_ClassMetai3SimpleLineLexer'', COMDAT
; File E:\Proyectos\JuegosOnlineproyectos\PB\pbblow\Piercing Blow Remake\i3Server\include\i3Base\i3MetaTemplate.h

; 28   : : i3ClassMeta( classSz, pszClassName, pszBaseClassName, type)

  00000	6a 00		 push	 0
  00002	68 00 00 00 00	 push	 OFFSET ??_C@_0O@OCDFBOHM@i3ElementBase@
  00007	68 00 00 00 00	 push	 OFFSET ??_C@_0BC@JOOAPOP@i3SimpleLineLexer@
  0000c	6a 18		 push	 24			; 00000018H
  0000e	b9 00 00 00 00	 mov	 ecx, OFFSET ?s_ClassMetai3SimpleLineLexer@@3V?$i3MetaTemplate@Vi3SimpleLineLexer@@@@A
  00013	e8 00 00 00 00	 call	 ??0i3ClassMeta@@QAE@IPAD0W4I3_CLASSMETA_TYPE@@@Z ; i3ClassMeta::i3ClassMeta
; File E:\Proyectos\JuegosOnlineproyectos\PB\pbblow\Piercing Blow Remake\i3Server\src\i3Base\i3Lexer.cpp

; 155  : I3_CLASS_INSTANCE( i3SimpleLineLexer, i3ElementBase);

  00018	68 00 00 00 00	 push	 OFFSET ??__Fs_ClassMetai3SimpleLineLexer@@YAXXZ ; `dynamic atexit destructor for 's_ClassMetai3SimpleLineLexer''
; File E:\Proyectos\JuegosOnlineproyectos\PB\pbblow\Piercing Blow Remake\i3Server\include\i3Base\i3MetaTemplate.h

; 29   : {

  0001d	c7 05 00 00 00
	00 00 00 00 00	 mov	 DWORD PTR ?s_ClassMetai3SimpleLineLexer@@3V?$i3MetaTemplate@Vi3SimpleLineLexer@@@@A, OFFSET ??_7?$i3MetaTemplate@Vi3SimpleLineLexer@@@@6B@
; File E:\Proyectos\JuegosOnlineproyectos\PB\pbblow\Piercing Blow Remake\i3Server\src\i3Base\i3Lexer.cpp

; 155  : I3_CLASS_INSTANCE( i3SimpleLineLexer, i3ElementBase);

  00027	e8 00 00 00 00	 call	 _atexit
  0002c	59		 pop	 ecx
  0002d	c3		 ret	 0
??__Es_ClassMetai3SimpleLineLexer@@YAXXZ ENDP		; `dynamic initializer for 's_ClassMetai3SimpleLineLexer''
text$di	ENDS
; Function compile flags: /Ogtp
;	COMDAT ??_G?$i3MetaTemplate@Vi3SimpleLineLexer@@@@UAEPAXI@Z
_TEXT	SEGMENT
___flags$ = 8						; size = 4
??_G?$i3MetaTemplate@Vi3SimpleLineLexer@@@@UAEPAXI@Z PROC ; i3MetaTemplate<i3SimpleLineLexer>::`scalar deleting destructor', COMDAT
; _this$ = ecx
  00000	55		 push	 ebp
  00001	8b ec		 mov	 ebp, esp
  00003	56		 push	 esi
  00004	8b f1		 mov	 esi, ecx
  00006	e8 00 00 00 00	 call	 ??1i3ClassMeta@@UAE@XZ	; i3ClassMeta::~i3ClassMeta
  0000b	f6 45 08 01	 test	 BYTE PTR ___flags$[ebp], 1
  0000f	74 0b		 je	 SHORT $LN10@scalar
  00011	6a 38		 push	 56			; 00000038H
  00013	56		 push	 esi
  00014	e8 00 00 00 00	 call	 ??3@YAXPAXI@Z		; operator delete
  00019	83 c4 08	 add	 esp, 8
$LN10@scalar:
  0001c	8b c6		 mov	 eax, esi
  0001e	5e		 pop	 esi
  0001f	5d		 pop	 ebp
  00020	c2 04 00	 ret	 4
??_G?$i3MetaTemplate@Vi3SimpleLineLexer@@@@UAEPAXI@Z ENDP ; i3MetaTemplate<i3SimpleLineLexer>::`scalar deleting destructor'
_TEXT	ENDS
; Function compile flags: /Ogtp
; File E:\Proyectos\JuegosOnlineproyectos\PB\pbblow\Piercing Blow Remake\i3Server\include\i3Base\i3MetaTemplate.h
; File E:\Proyectos\JuegosOnlineproyectos\PB\pbblow\Piercing Blow Remake\i3Server\src\i3Base\i3Lexer.cpp
; File E:\Proyectos\JuegosOnlineproyectos\PB\pbblow\Piercing Blow Remake\i3Server\include\i3Base\i3MetaTemplate.h
;	COMDAT ?BindInstance@?$i3MetaTemplate@Vi3SimpleLineLexer@@@@UAEPAVi3ElementBase@@PAXW4I3_CLASSMETA_TYPE@@@Z
_TEXT	SEGMENT
__$EHRec$ = -12						; size = 12
_pBuf$ = 8						; size = 4
_type$ = 12						; size = 4
$T2 = 12						; size = 4
?BindInstance@?$i3MetaTemplate@Vi3SimpleLineLexer@@@@UAEPAVi3ElementBase@@PAXW4I3_CLASSMETA_TYPE@@@Z PROC ; i3MetaTemplate<i3SimpleLineLexer>::BindInstance, COMDAT
; _this$ = ecx

; 129  : 	{

  00000	55		 push	 ebp
  00001	8b ec		 mov	 ebp, esp
  00003	6a ff		 push	 -1
  00005	68 00 00 00 00	 push	 __ehhandler$?BindInstance@?$i3MetaTemplate@Vi3SimpleLineLexer@@@@UAEPAVi3ElementBase@@PAXW4I3_CLASSMETA_TYPE@@@Z
  0000a	64 a1 00 00 00
	00		 mov	 eax, DWORD PTR fs:0
  00010	50		 push	 eax
  00011	56		 push	 esi
  00012	a1 00 00 00 00	 mov	 eax, DWORD PTR ___security_cookie
  00017	33 c5		 xor	 eax, ebp
  00019	50		 push	 eax
  0001a	8d 45 f4	 lea	 eax, DWORD PTR __$EHRec$[ebp]
  0001d	64 a3 00 00 00
	00		 mov	 DWORD PTR fs:0, eax

; 130  : 		if( m_ProxyCount > 0)

  00023	83 79 30 00	 cmp	 DWORD PTR [ecx+48], 0
  00027	7e 26		 jle	 SHORT $LN2@BindInstan

; 131  : 		{
; 132  : 			i3ClassMeta * pMeta = GetConcreteClass( type);

  00029	ff 75 0c	 push	 DWORD PTR _type$[ebp]
  0002c	e8 00 00 00 00	 call	 ?GetConcreteClass@i3ClassMeta@@QAEPAV1@W4I3_CLASSMETA_TYPE@@@Z ; i3ClassMeta::GetConcreteClass

; 133  : 
; 134  : 			return pMeta->BindInstance( pBuf, I3_CLASSMETA_TYPE_GENERAL);

  00031	6a 00		 push	 0
  00033	ff 75 08	 push	 DWORD PTR _pBuf$[ebp]
  00036	8b c8		 mov	 ecx, eax
  00038	8b 10		 mov	 edx, DWORD PTR [eax]
  0003a	ff 52 08	 call	 DWORD PTR [edx+8]

; 142  : 			#endif
; 143  : 		}
; 144  : 	}

  0003d	8b 4d f4	 mov	 ecx, DWORD PTR __$EHRec$[ebp]
  00040	64 89 0d 00 00
	00 00		 mov	 DWORD PTR fs:0, ecx
  00047	59		 pop	 ecx
  00048	5e		 pop	 esi
  00049	8b e5		 mov	 esp, ebp
  0004b	5d		 pop	 ebp
  0004c	c2 08 00	 ret	 8
$LN2@BindInstan:

; 141  : 				return (i3ElementBase *) new( pBuf ) T;

  0004f	ff 75 08	 push	 DWORD PTR _pBuf$[ebp]
  00052	6a 18		 push	 24			; 00000018H
  00054	e8 00 00 00 00	 call	 ??2i3ElementBase@@SAPAXIPAX@Z ; i3ElementBase::operator new
  00059	8b f0		 mov	 esi, eax
  0005b	83 c4 08	 add	 esp, 8
  0005e	89 75 0c	 mov	 DWORD PTR $T2[ebp], esi
  00061	c7 45 fc 00 00
	00 00		 mov	 DWORD PTR __$EHRec$[ebp+8], 0
  00068	85 f6		 test	 esi, esi
  0006a	74 21		 je	 SHORT $LN5@BindInstan
; File E:\Proyectos\JuegosOnlineproyectos\PB\pbblow\Piercing Blow Remake\i3Server\src\i3Base\i3Lexer.cpp

; 157  : i3SimpleLineLexer::i3SimpleLineLexer(){}

  0006c	8b ce		 mov	 ecx, esi
  0006e	e8 00 00 00 00	 call	 ??0i3ElementBase@@QAE@XZ ; i3ElementBase::i3ElementBase
  00073	c7 06 00 00 00
	00		 mov	 DWORD PTR [esi], OFFSET ??_7i3SimpleLineLexer@@6B@
; File E:\Proyectos\JuegosOnlineproyectos\PB\pbblow\Piercing Blow Remake\i3Server\include\i3Base\i3MetaTemplate.h

; 141  : 				return (i3ElementBase *) new( pBuf ) T;

  00079	8b c6		 mov	 eax, esi

; 142  : 			#endif
; 143  : 		}
; 144  : 	}

  0007b	8b 4d f4	 mov	 ecx, DWORD PTR __$EHRec$[ebp]
  0007e	64 89 0d 00 00
	00 00		 mov	 DWORD PTR fs:0, ecx
  00085	59		 pop	 ecx
  00086	5e		 pop	 esi
  00087	8b e5		 mov	 esp, ebp
  00089	5d		 pop	 ebp
  0008a	c2 08 00	 ret	 8
$LN5@BindInstan:

; 141  : 				return (i3ElementBase *) new( pBuf ) T;

  0008d	33 f6		 xor	 esi, esi
  0008f	8b c6		 mov	 eax, esi

; 142  : 			#endif
; 143  : 		}
; 144  : 	}

  00091	8b 4d f4	 mov	 ecx, DWORD PTR __$EHRec$[ebp]
  00094	64 89 0d 00 00
	00 00		 mov	 DWORD PTR fs:0, ecx
  0009b	59		 pop	 ecx
  0009c	5e		 pop	 esi
  0009d	8b e5		 mov	 esp, ebp
  0009f	5d		 pop	 ebp
  000a0	c2 08 00	 ret	 8
_TEXT	ENDS
;	COMDAT text$x
text$x	SEGMENT
__unwindfunclet$?BindInstance@?$i3MetaTemplate@Vi3SimpleLineLexer@@@@UAEPAVi3ElementBase@@PAXW4I3_CLASSMETA_TYPE@@@Z$0:
  00000	8b 45 08	 mov	 eax, DWORD PTR _pBuf$[ebp]
  00003	50		 push	 eax
  00004	8b 45 0c	 mov	 eax, DWORD PTR $T2[ebp]
  00007	50		 push	 eax
  00008	e8 00 00 00 00	 call	 ??3i3ElementBase@@SAXPAX0@Z ; i3ElementBase::operator delete
  0000d	83 c4 08	 add	 esp, 8
  00010	c3		 ret	 0
  00011	cc		 int	 3
  00012	cc		 int	 3
  00013	cc		 int	 3
  00014	cc		 int	 3
  00015	cc		 int	 3
__ehhandler$?BindInstance@?$i3MetaTemplate@Vi3SimpleLineLexer@@@@UAEPAVi3ElementBase@@PAXW4I3_CLASSMETA_TYPE@@@Z:
  00016	90		 npad	 1
  00017	90		 npad	 1
  00018	8b 54 24 08	 mov	 edx, DWORD PTR [esp+8]
  0001c	8d 42 0c	 lea	 eax, DWORD PTR [edx+12]
  0001f	8b 4a f8	 mov	 ecx, DWORD PTR [edx-8]
  00022	33 c8		 xor	 ecx, eax
  00024	e8 00 00 00 00	 call	 @__security_check_cookie@4
  00029	b8 00 00 00 00	 mov	 eax, OFFSET __ehfuncinfo$?BindInstance@?$i3MetaTemplate@Vi3SimpleLineLexer@@@@UAEPAVi3ElementBase@@PAXW4I3_CLASSMETA_TYPE@@@Z
  0002e	e9 00 00 00 00	 jmp	 ___CxxFrameHandler3
text$x	ENDS
?BindInstance@?$i3MetaTemplate@Vi3SimpleLineLexer@@@@UAEPAVi3ElementBase@@PAXW4I3_CLASSMETA_TYPE@@@Z ENDP ; i3MetaTemplate<i3SimpleLineLexer>::BindInstance
; Function compile flags: /Ogtp
; File E:\Proyectos\JuegosOnlineproyectos\PB\pbblow\Piercing Blow Remake\i3Server\include\i3Base\i3MetaTemplate.h
; File E:\Proyectos\JuegosOnlineproyectos\PB\pbblow\Piercing Blow Remake\i3Server\src\i3Base\i3Lexer.cpp
; File E:\Proyectos\JuegosOnlineproyectos\PB\pbblow\Piercing Blow Remake\i3Server\include\i3Base\i3MetaTemplate.h
; File E:\Proyectos\JuegosOnlineproyectos\PB\pbblow\Piercing Blow Remake\i3Server\include\i3Base\i3ElementBase.h
; File E:\Proyectos\JuegosOnlineproyectos\PB\pbblow\Piercing Blow Remake\i3Server\include\i3Base\i3MetaTemplate.h
;	COMDAT ?CreateInstance@?$i3MetaTemplate@Vi3SimpleLineLexer@@@@UAEPAVi3ElementBase@@W4I3_CLASSMETA_TYPE@@@Z
_TEXT	SEGMENT
__$EHRec$ = -12						; size = 12
_type$ = 8						; size = 4
$T2 = 8							; size = 4
?CreateInstance@?$i3MetaTemplate@Vi3SimpleLineLexer@@@@UAEPAVi3ElementBase@@W4I3_CLASSMETA_TYPE@@@Z PROC ; i3MetaTemplate<i3SimpleLineLexer>::CreateInstance, COMDAT
; _this$ = ecx

; 97   : 	{

  00000	55		 push	 ebp
  00001	8b ec		 mov	 ebp, esp
  00003	6a ff		 push	 -1
  00005	68 00 00 00 00	 push	 __ehhandler$?CreateInstance@?$i3MetaTemplate@Vi3SimpleLineLexer@@@@UAEPAVi3ElementBase@@W4I3_CLASSMETA_TYPE@@@Z
  0000a	64 a1 00 00 00
	00		 mov	 eax, DWORD PTR fs:0
  00010	50		 push	 eax
  00011	56		 push	 esi
  00012	57		 push	 edi
  00013	a1 00 00 00 00	 mov	 eax, DWORD PTR ___security_cookie
  00018	33 c5		 xor	 eax, ebp
  0001a	50		 push	 eax
  0001b	8d 45 f4	 lea	 eax, DWORD PTR __$EHRec$[ebp]
  0001e	64 a3 00 00 00
	00		 mov	 DWORD PTR fs:0, eax
  00024	8b f9		 mov	 edi, ecx

; 98   : 		if( m_ProxyCount > 0)

  00026	83 7f 30 00	 cmp	 DWORD PTR [edi+48], 0
  0002a	7e 28		 jle	 SHORT $LN3@CreateInst

; 99   : 		{
; 100  : 			i3ClassMeta * pMeta = GetConcreteClass( type);

  0002c	ff 75 08	 push	 DWORD PTR _type$[ebp]
  0002f	e8 00 00 00 00	 call	 ?GetConcreteClass@i3ClassMeta@@QAEPAV1@W4I3_CLASSMETA_TYPE@@@Z ; i3ClassMeta::GetConcreteClass

; 101  : 
; 102  : 			if( pMeta != NULL)

  00034	85 c0		 test	 eax, eax
  00036	74 1c		 je	 SHORT $LN3@CreateInst

; 103  : 				return pMeta->CreateInstance( I3_CLASSMETA_TYPE_GENERAL);

  00038	8b 10		 mov	 edx, DWORD PTR [eax]
  0003a	8b c8		 mov	 ecx, eax
  0003c	6a 00		 push	 0
  0003e	ff 52 04	 call	 DWORD PTR [edx+4]

; 125  : 	}

  00041	8b 4d f4	 mov	 ecx, DWORD PTR __$EHRec$[ebp]
  00044	64 89 0d 00 00
	00 00		 mov	 DWORD PTR fs:0, ecx
  0004b	59		 pop	 ecx
  0004c	5f		 pop	 edi
  0004d	5e		 pop	 esi
  0004e	8b e5		 mov	 esp, ebp
  00050	5d		 pop	 ebp
  00051	c2 04 00	 ret	 4
$LN3@CreateInst:

; 104  : 		}
; 105  : 
; 106  : 		{
; 107  : 			if( m_pPool == NULL)

  00054	8b 4f 34	 mov	 ecx, DWORD PTR [edi+52]
  00057	85 c9		 test	 ecx, ecx
  00059	75 2d		 jne	 SHORT $LN4@CreateInst

; 112  : 					return (i3ElementBase *) new T;

  0005b	6a 18		 push	 24			; 00000018H
  0005d	e8 00 00 00 00	 call	 ??2i3ElementBase@@SAPAXI@Z ; i3ElementBase::operator new
  00062	8b f0		 mov	 esi, eax
  00064	83 c4 04	 add	 esp, 4
  00067	89 75 08	 mov	 DWORD PTR $T2[ebp], esi
  0006a	c7 45 fc 00 00
	00 00		 mov	 DWORD PTR __$EHRec$[ebp+8], 0
  00071	85 f6		 test	 esi, esi
  00073	74 0f		 je	 SHORT $LN7@CreateInst
; File E:\Proyectos\JuegosOnlineproyectos\PB\pbblow\Piercing Blow Remake\i3Server\src\i3Base\i3Lexer.cpp

; 157  : i3SimpleLineLexer::i3SimpleLineLexer(){}

  00075	8b ce		 mov	 ecx, esi
  00077	e8 00 00 00 00	 call	 ??0i3ElementBase@@QAE@XZ ; i3ElementBase::i3ElementBase
  0007c	c7 06 00 00 00
	00		 mov	 DWORD PTR [esi], OFFSET ??_7i3SimpleLineLexer@@6B@
; File E:\Proyectos\JuegosOnlineproyectos\PB\pbblow\Piercing Blow Remake\i3Server\include\i3Base\i3MetaTemplate.h

; 112  : 					return (i3ElementBase *) new T;

  00082	eb 22		 jmp	 SHORT $LN8@CreateInst
$LN7@CreateInst:
  00084	33 f6		 xor	 esi, esi
  00086	eb 1e		 jmp	 SHORT $LN8@CreateInst
$LN4@CreateInst:

; 113  : 				#endif
; 114  : 			}
; 115  : 			else
; 116  : 			{
; 117  : 				i3ElementBase * p = (i3ElementBase *) m_pPool->Alloc( sizeof(T), NULL, 0);

  00088	8b 01		 mov	 eax, DWORD PTR [ecx]
  0008a	6a 00		 push	 0
  0008c	6a 00		 push	 0
  0008e	6a 18		 push	 24			; 00000018H
  00090	ff 50 04	 call	 DWORD PTR [eax+4]

; 118  : 	
; 119  : 				BindInstance( p, type);

  00093	ff 75 08	 push	 DWORD PTR _type$[ebp]
  00096	8b 17		 mov	 edx, DWORD PTR [edi]
  00098	8b f0		 mov	 esi, eax
  0009a	56		 push	 esi
  0009b	8b cf		 mov	 ecx, edi
  0009d	ff 52 08	 call	 DWORD PTR [edx+8]
; File E:\Proyectos\JuegosOnlineproyectos\PB\pbblow\Piercing Blow Remake\i3Server\include\i3Base\i3ElementBase.h

; 347  : 	void			__SetMemoryPool( i3MemoryPool * pPool)			{ m_pPool = pPool; }

  000a0	8b 4f 34	 mov	 ecx, DWORD PTR [edi+52]
  000a3	89 4e 0c	 mov	 DWORD PTR [esi+12], ecx
$LN8@CreateInst:
; File E:\Proyectos\JuegosOnlineproyectos\PB\pbblow\Piercing Blow Remake\i3Server\include\i3Base\i3MetaTemplate.h

; 125  : 	}

  000a6	8b c6		 mov	 eax, esi
  000a8	8b 4d f4	 mov	 ecx, DWORD PTR __$EHRec$[ebp]
  000ab	64 89 0d 00 00
	00 00		 mov	 DWORD PTR fs:0, ecx
  000b2	59		 pop	 ecx
  000b3	5f		 pop	 edi
  000b4	5e		 pop	 esi
  000b5	8b e5		 mov	 esp, ebp
  000b7	5d		 pop	 ebp
  000b8	c2 04 00	 ret	 4
_TEXT	ENDS
;	COMDAT text$x
text$x	SEGMENT
__unwindfunclet$?CreateInstance@?$i3MetaTemplate@Vi3SimpleLineLexer@@@@UAEPAVi3ElementBase@@W4I3_CLASSMETA_TYPE@@@Z$0:
  00000	8b 45 08	 mov	 eax, DWORD PTR $T2[ebp]
  00003	50		 push	 eax
  00004	e8 00 00 00 00	 call	 ??3i3ElementBase@@SAXPAX@Z ; i3ElementBase::operator delete
  00009	59		 pop	 ecx
  0000a	c3		 ret	 0
  0000b	cc		 int	 3
  0000c	cc		 int	 3
  0000d	cc		 int	 3
  0000e	cc		 int	 3
  0000f	cc		 int	 3
__ehhandler$?CreateInstance@?$i3MetaTemplate@Vi3SimpleLineLexer@@@@UAEPAVi3ElementBase@@W4I3_CLASSMETA_TYPE@@@Z:
  00010	90		 npad	 1
  00011	90		 npad	 1
  00012	8b 54 24 08	 mov	 edx, DWORD PTR [esp+8]
  00016	8d 42 0c	 lea	 eax, DWORD PTR [edx+12]
  00019	8b 4a f4	 mov	 ecx, DWORD PTR [edx-12]
  0001c	33 c8		 xor	 ecx, eax
  0001e	e8 00 00 00 00	 call	 @__security_check_cookie@4
  00023	b8 00 00 00 00	 mov	 eax, OFFSET __ehfuncinfo$?CreateInstance@?$i3MetaTemplate@Vi3SimpleLineLexer@@@@UAEPAVi3ElementBase@@W4I3_CLASSMETA_TYPE@@@Z
  00028	e9 00 00 00 00	 jmp	 ___CxxFrameHandler3
text$x	ENDS
?CreateInstance@?$i3MetaTemplate@Vi3SimpleLineLexer@@@@UAEPAVi3ElementBase@@W4I3_CLASSMETA_TYPE@@@Z ENDP ; i3MetaTemplate<i3SimpleLineLexer>::CreateInstance
; Function compile flags: /Ogtp
; File E:\Proyectos\JuegosOnlineproyectos\PB\pbblow\Piercing Blow Remake\i3Server\include\i3Base\i3MetaTemplate.h
;	COMDAT ??0?$i3MetaTemplate@Vi3SimpleLineLexer@@@@QAE@IPAD0W4I3_CLASSMETA_TYPE@@@Z
_TEXT	SEGMENT
_this$ = -4						; size = 4
_classSz$ = 8						; size = 4
_pszClassName$ = 12					; size = 4
_pszBaseClassName$ = 16					; size = 4
_type$ = 20						; size = 4
??0?$i3MetaTemplate@Vi3SimpleLineLexer@@@@QAE@IPAD0W4I3_CLASSMETA_TYPE@@@Z PROC ; i3MetaTemplate<i3SimpleLineLexer>::i3MetaTemplate<i3SimpleLineLexer>, COMDAT
; _this$ = ecx

; 29   : {

  00000	55		 push	 ebp
  00001	8b ec		 mov	 ebp, esp
  00003	51		 push	 ecx
  00004	56		 push	 esi
  00005	ff 75 14	 push	 DWORD PTR _type$[ebp]
  00008	8b f1		 mov	 esi, ecx
  0000a	ff 75 10	 push	 DWORD PTR _pszBaseClassName$[ebp]
  0000d	89 75 fc	 mov	 DWORD PTR _this$[ebp], esi
  00010	ff 75 0c	 push	 DWORD PTR _pszClassName$[ebp]
  00013	ff 75 08	 push	 DWORD PTR _classSz$[ebp]
  00016	e8 00 00 00 00	 call	 ??0i3ClassMeta@@QAE@IPAD0W4I3_CLASSMETA_TYPE@@@Z ; i3ClassMeta::i3ClassMeta
  0001b	c7 06 00 00 00
	00		 mov	 DWORD PTR [esi], OFFSET ??_7?$i3MetaTemplate@Vi3SimpleLineLexer@@@@6B@

; 30   : }

  00021	8b c6		 mov	 eax, esi
  00023	5e		 pop	 esi
  00024	8b e5		 mov	 esp, ebp
  00026	5d		 pop	 ebp
  00027	c2 10 00	 ret	 16			; 00000010H
??0?$i3MetaTemplate@Vi3SimpleLineLexer@@@@QAE@IPAD0W4I3_CLASSMETA_TYPE@@@Z ENDP ; i3MetaTemplate<i3SimpleLineLexer>::i3MetaTemplate<i3SimpleLineLexer>
_TEXT	ENDS
; Function compile flags: /Ogtp
;	COMDAT ??__Fs_ClassMetai3LineLexer@@YAXXZ
text$yd	SEGMENT
??__Fs_ClassMetai3LineLexer@@YAXXZ PROC			; `dynamic atexit destructor for 's_ClassMetai3LineLexer'', COMDAT
  00000	b9 00 00 00 00	 mov	 ecx, OFFSET ?s_ClassMetai3LineLexer@@3V?$i3MetaTemplate@Vi3LineLexer@@@@A
  00005	e9 00 00 00 00	 jmp	 ??1i3ClassMeta@@UAE@XZ	; i3ClassMeta::~i3ClassMeta
??__Fs_ClassMetai3LineLexer@@YAXXZ ENDP			; `dynamic atexit destructor for 's_ClassMetai3LineLexer''
text$yd	ENDS
; Function compile flags: /Ogtp
; File E:\Proyectos\JuegosOnlineproyectos\PB\pbblow\Piercing Blow Remake\i3Server\src\i3Base\i3Lexer.cpp
; File E:\Proyectos\JuegosOnlineproyectos\PB\pbblow\Piercing Blow Remake\i3Server\include\i3Base\i3MetaTemplate.h
; File E:\Proyectos\JuegosOnlineproyectos\PB\pbblow\Piercing Blow Remake\i3Server\src\i3Base\i3Lexer.cpp
; File E:\Proyectos\JuegosOnlineproyectos\PB\pbblow\Piercing Blow Remake\i3Server\include\i3Base\i3MetaTemplate.h
; File E:\Proyectos\JuegosOnlineproyectos\PB\pbblow\Piercing Blow Remake\i3Server\src\i3Base\i3Lexer.cpp
;	COMDAT ??__Es_ClassMetai3LineLexer@@YAXXZ
text$di	SEGMENT
??__Es_ClassMetai3LineLexer@@YAXXZ PROC			; `dynamic initializer for 's_ClassMetai3LineLexer'', COMDAT
; File E:\Proyectos\JuegosOnlineproyectos\PB\pbblow\Piercing Blow Remake\i3Server\include\i3Base\i3MetaTemplate.h

; 28   : : i3ClassMeta( classSz, pszClassName, pszBaseClassName, type)

  00000	6a 00		 push	 0
  00002	68 00 00 00 00	 push	 OFFSET ??_C@_0O@OCDFBOHM@i3ElementBase@
  00007	68 00 00 00 00	 push	 OFFSET ??_C@_0M@DMCGOLOI@i3LineLexer@
  0000c	68 18 01 00 00	 push	 280			; 00000118H
  00011	b9 00 00 00 00	 mov	 ecx, OFFSET ?s_ClassMetai3LineLexer@@3V?$i3MetaTemplate@Vi3LineLexer@@@@A
  00016	e8 00 00 00 00	 call	 ??0i3ClassMeta@@QAE@IPAD0W4I3_CLASSMETA_TYPE@@@Z ; i3ClassMeta::i3ClassMeta
; File E:\Proyectos\JuegosOnlineproyectos\PB\pbblow\Piercing Blow Remake\i3Server\src\i3Base\i3Lexer.cpp

; 6    : I3_CLASS_INSTANCE( i3LineLexer, i3ElementBase);

  0001b	68 00 00 00 00	 push	 OFFSET ??__Fs_ClassMetai3LineLexer@@YAXXZ ; `dynamic atexit destructor for 's_ClassMetai3LineLexer''
; File E:\Proyectos\JuegosOnlineproyectos\PB\pbblow\Piercing Blow Remake\i3Server\include\i3Base\i3MetaTemplate.h

; 29   : {

  00020	c7 05 00 00 00
	00 00 00 00 00	 mov	 DWORD PTR ?s_ClassMetai3LineLexer@@3V?$i3MetaTemplate@Vi3LineLexer@@@@A, OFFSET ??_7?$i3MetaTemplate@Vi3LineLexer@@@@6B@
; File E:\Proyectos\JuegosOnlineproyectos\PB\pbblow\Piercing Blow Remake\i3Server\src\i3Base\i3Lexer.cpp

; 6    : I3_CLASS_INSTANCE( i3LineLexer, i3ElementBase);

  0002a	e8 00 00 00 00	 call	 _atexit
  0002f	59		 pop	 ecx
  00030	c3		 ret	 0
??__Es_ClassMetai3LineLexer@@YAXXZ ENDP			; `dynamic initializer for 's_ClassMetai3LineLexer''
text$di	ENDS
; Function compile flags: /Ogtp
;	COMDAT ??_G?$i3MetaTemplate@Vi3LineLexer@@@@UAEPAXI@Z
_TEXT	SEGMENT
___flags$ = 8						; size = 4
??_G?$i3MetaTemplate@Vi3LineLexer@@@@UAEPAXI@Z PROC	; i3MetaTemplate<i3LineLexer>::`scalar deleting destructor', COMDAT
; _this$ = ecx
  00000	55		 push	 ebp
  00001	8b ec		 mov	 ebp, esp
  00003	56		 push	 esi
  00004	8b f1		 mov	 esi, ecx
  00006	e8 00 00 00 00	 call	 ??1i3ClassMeta@@UAE@XZ	; i3ClassMeta::~i3ClassMeta
  0000b	f6 45 08 01	 test	 BYTE PTR ___flags$[ebp], 1
  0000f	74 0b		 je	 SHORT $LN10@scalar
  00011	6a 38		 push	 56			; 00000038H
  00013	56		 push	 esi
  00014	e8 00 00 00 00	 call	 ??3@YAXPAXI@Z		; operator delete
  00019	83 c4 08	 add	 esp, 8
$LN10@scalar:
  0001c	8b c6		 mov	 eax, esi
  0001e	5e		 pop	 esi
  0001f	5d		 pop	 ebp
  00020	c2 04 00	 ret	 4
??_G?$i3MetaTemplate@Vi3LineLexer@@@@UAEPAXI@Z ENDP	; i3MetaTemplate<i3LineLexer>::`scalar deleting destructor'
_TEXT	ENDS
; Function compile flags: /Ogtp
; File E:\Proyectos\JuegosOnlineproyectos\PB\pbblow\Piercing Blow Remake\i3Server\include\i3Base\i3MetaTemplate.h
;	COMDAT ?BindInstance@?$i3MetaTemplate@Vi3LineLexer@@@@UAEPAVi3ElementBase@@PAXW4I3_CLASSMETA_TYPE@@@Z
_TEXT	SEGMENT
__$EHRec$ = -12						; size = 12
_pBuf$ = 8						; size = 4
_type$ = 12						; size = 4
$T2 = 12						; size = 4
?BindInstance@?$i3MetaTemplate@Vi3LineLexer@@@@UAEPAVi3ElementBase@@PAXW4I3_CLASSMETA_TYPE@@@Z PROC ; i3MetaTemplate<i3LineLexer>::BindInstance, COMDAT
; _this$ = ecx

; 129  : 	{

  00000	55		 push	 ebp
  00001	8b ec		 mov	 ebp, esp
  00003	6a ff		 push	 -1
  00005	68 00 00 00 00	 push	 __ehhandler$?BindInstance@?$i3MetaTemplate@Vi3LineLexer@@@@UAEPAVi3ElementBase@@PAXW4I3_CLASSMETA_TYPE@@@Z
  0000a	64 a1 00 00 00
	00		 mov	 eax, DWORD PTR fs:0
  00010	50		 push	 eax
  00011	a1 00 00 00 00	 mov	 eax, DWORD PTR ___security_cookie
  00016	33 c5		 xor	 eax, ebp
  00018	50		 push	 eax
  00019	8d 45 f4	 lea	 eax, DWORD PTR __$EHRec$[ebp]
  0001c	64 a3 00 00 00
	00		 mov	 DWORD PTR fs:0, eax

; 130  : 		if( m_ProxyCount > 0)

  00022	83 79 30 00	 cmp	 DWORD PTR [ecx+48], 0
  00026	7e 25		 jle	 SHORT $LN2@BindInstan

; 131  : 		{
; 132  : 			i3ClassMeta * pMeta = GetConcreteClass( type);

  00028	ff 75 0c	 push	 DWORD PTR _type$[ebp]
  0002b	e8 00 00 00 00	 call	 ?GetConcreteClass@i3ClassMeta@@QAEPAV1@W4I3_CLASSMETA_TYPE@@@Z ; i3ClassMeta::GetConcreteClass

; 133  : 
; 134  : 			return pMeta->BindInstance( pBuf, I3_CLASSMETA_TYPE_GENERAL);

  00030	6a 00		 push	 0
  00032	ff 75 08	 push	 DWORD PTR _pBuf$[ebp]
  00035	8b c8		 mov	 ecx, eax
  00037	8b 10		 mov	 edx, DWORD PTR [eax]
  00039	ff 52 08	 call	 DWORD PTR [edx+8]

; 142  : 			#endif
; 143  : 		}
; 144  : 	}

  0003c	8b 4d f4	 mov	 ecx, DWORD PTR __$EHRec$[ebp]
  0003f	64 89 0d 00 00
	00 00		 mov	 DWORD PTR fs:0, ecx
  00046	59		 pop	 ecx
  00047	8b e5		 mov	 esp, ebp
  00049	5d		 pop	 ebp
  0004a	c2 08 00	 ret	 8
$LN2@BindInstan:

; 135  : 		}
; 136  : 		else
; 137  : 		{
; 138  : 			#if defined( I3_DEBUG)
; 139  : 				return (i3ElementBase *) new( pBuf ) T;
; 140  : 			#else
; 141  : 				return (i3ElementBase *) new( pBuf ) T;

  0004d	ff 75 08	 push	 DWORD PTR _pBuf$[ebp]
  00050	68 18 01 00 00	 push	 280			; 00000118H
  00055	e8 00 00 00 00	 call	 ??2i3ElementBase@@SAPAXIPAX@Z ; i3ElementBase::operator new
  0005a	83 c4 08	 add	 esp, 8
  0005d	89 45 0c	 mov	 DWORD PTR $T2[ebp], eax
  00060	c7 45 fc 00 00
	00 00		 mov	 DWORD PTR __$EHRec$[ebp+8], 0
  00067	85 c0		 test	 eax, eax
  00069	74 18		 je	 SHORT $LN5@BindInstan
  0006b	8b c8		 mov	 ecx, eax
  0006d	e8 00 00 00 00	 call	 ??0i3LineLexer@@QAE@XZ	; i3LineLexer::i3LineLexer

; 142  : 			#endif
; 143  : 		}
; 144  : 	}

  00072	8b 4d f4	 mov	 ecx, DWORD PTR __$EHRec$[ebp]
  00075	64 89 0d 00 00
	00 00		 mov	 DWORD PTR fs:0, ecx
  0007c	59		 pop	 ecx
  0007d	8b e5		 mov	 esp, ebp
  0007f	5d		 pop	 ebp
  00080	c2 08 00	 ret	 8
$LN5@BindInstan:

; 135  : 		}
; 136  : 		else
; 137  : 		{
; 138  : 			#if defined( I3_DEBUG)
; 139  : 				return (i3ElementBase *) new( pBuf ) T;
; 140  : 			#else
; 141  : 				return (i3ElementBase *) new( pBuf ) T;

  00083	33 c0		 xor	 eax, eax

; 142  : 			#endif
; 143  : 		}
; 144  : 	}

  00085	8b 4d f4	 mov	 ecx, DWORD PTR __$EHRec$[ebp]
  00088	64 89 0d 00 00
	00 00		 mov	 DWORD PTR fs:0, ecx
  0008f	59		 pop	 ecx
  00090	8b e5		 mov	 esp, ebp
  00092	5d		 pop	 ebp
  00093	c2 08 00	 ret	 8
_TEXT	ENDS
;	COMDAT text$x
text$x	SEGMENT
__unwindfunclet$?BindInstance@?$i3MetaTemplate@Vi3LineLexer@@@@UAEPAVi3ElementBase@@PAXW4I3_CLASSMETA_TYPE@@@Z$0:
  00000	8b 45 08	 mov	 eax, DWORD PTR _pBuf$[ebp]
  00003	50		 push	 eax
  00004	8b 45 0c	 mov	 eax, DWORD PTR $T2[ebp]
  00007	50		 push	 eax
  00008	e8 00 00 00 00	 call	 ??3i3ElementBase@@SAXPAX0@Z ; i3ElementBase::operator delete
  0000d	83 c4 08	 add	 esp, 8
  00010	c3		 ret	 0
  00011	cc		 int	 3
  00012	cc		 int	 3
  00013	cc		 int	 3
  00014	cc		 int	 3
  00015	cc		 int	 3
__ehhandler$?BindInstance@?$i3MetaTemplate@Vi3LineLexer@@@@UAEPAVi3ElementBase@@PAXW4I3_CLASSMETA_TYPE@@@Z:
  00016	90		 npad	 1
  00017	90		 npad	 1
  00018	8b 54 24 08	 mov	 edx, DWORD PTR [esp+8]
  0001c	8d 42 0c	 lea	 eax, DWORD PTR [edx+12]
  0001f	8b 4a fc	 mov	 ecx, DWORD PTR [edx-4]
  00022	33 c8		 xor	 ecx, eax
  00024	e8 00 00 00 00	 call	 @__security_check_cookie@4
  00029	b8 00 00 00 00	 mov	 eax, OFFSET __ehfuncinfo$?BindInstance@?$i3MetaTemplate@Vi3LineLexer@@@@UAEPAVi3ElementBase@@PAXW4I3_CLASSMETA_TYPE@@@Z
  0002e	e9 00 00 00 00	 jmp	 ___CxxFrameHandler3
text$x	ENDS
?BindInstance@?$i3MetaTemplate@Vi3LineLexer@@@@UAEPAVi3ElementBase@@PAXW4I3_CLASSMETA_TYPE@@@Z ENDP ; i3MetaTemplate<i3LineLexer>::BindInstance
; Function compile flags: /Ogtp
; File E:\Proyectos\JuegosOnlineproyectos\PB\pbblow\Piercing Blow Remake\i3Server\include\i3Base\i3MetaTemplate.h
; File E:\Proyectos\JuegosOnlineproyectos\PB\pbblow\Piercing Blow Remake\i3Server\include\i3Base\i3ElementBase.h
; File E:\Proyectos\JuegosOnlineproyectos\PB\pbblow\Piercing Blow Remake\i3Server\include\i3Base\i3MetaTemplate.h
; File E:\Proyectos\JuegosOnlineproyectos\PB\pbblow\Piercing Blow Remake\i3Server\include\i3Base\i3ElementBase.h
; File E:\Proyectos\JuegosOnlineproyectos\PB\pbblow\Piercing Blow Remake\i3Server\include\i3Base\i3MetaTemplate.h
;	COMDAT ?CreateInstance@?$i3MetaTemplate@Vi3LineLexer@@@@UAEPAVi3ElementBase@@W4I3_CLASSMETA_TYPE@@@Z
_TEXT	SEGMENT
__$EHRec$ = -12						; size = 12
_type$ = 8						; size = 4
$T2 = 8							; size = 4
?CreateInstance@?$i3MetaTemplate@Vi3LineLexer@@@@UAEPAVi3ElementBase@@W4I3_CLASSMETA_TYPE@@@Z PROC ; i3MetaTemplate<i3LineLexer>::CreateInstance, COMDAT
; _this$ = ecx

; 97   : 	{

  00000	55		 push	 ebp
  00001	8b ec		 mov	 ebp, esp
  00003	6a ff		 push	 -1
  00005	68 00 00 00 00	 push	 __ehhandler$?CreateInstance@?$i3MetaTemplate@Vi3LineLexer@@@@UAEPAVi3ElementBase@@W4I3_CLASSMETA_TYPE@@@Z
  0000a	64 a1 00 00 00
	00		 mov	 eax, DWORD PTR fs:0
  00010	50		 push	 eax
  00011	56		 push	 esi
  00012	57		 push	 edi
  00013	a1 00 00 00 00	 mov	 eax, DWORD PTR ___security_cookie
  00018	33 c5		 xor	 eax, ebp
  0001a	50		 push	 eax
  0001b	8d 45 f4	 lea	 eax, DWORD PTR __$EHRec$[ebp]
  0001e	64 a3 00 00 00
	00		 mov	 DWORD PTR fs:0, eax
  00024	8b f9		 mov	 edi, ecx

; 98   : 		if( m_ProxyCount > 0)

  00026	83 7f 30 00	 cmp	 DWORD PTR [edi+48], 0
  0002a	7e 28		 jle	 SHORT $LN3@CreateInst

; 99   : 		{
; 100  : 			i3ClassMeta * pMeta = GetConcreteClass( type);

  0002c	ff 75 08	 push	 DWORD PTR _type$[ebp]
  0002f	e8 00 00 00 00	 call	 ?GetConcreteClass@i3ClassMeta@@QAEPAV1@W4I3_CLASSMETA_TYPE@@@Z ; i3ClassMeta::GetConcreteClass

; 101  : 
; 102  : 			if( pMeta != NULL)

  00034	85 c0		 test	 eax, eax
  00036	74 1c		 je	 SHORT $LN3@CreateInst

; 103  : 				return pMeta->CreateInstance( I3_CLASSMETA_TYPE_GENERAL);

  00038	8b 10		 mov	 edx, DWORD PTR [eax]
  0003a	8b c8		 mov	 ecx, eax
  0003c	6a 00		 push	 0
  0003e	ff 52 04	 call	 DWORD PTR [edx+4]

; 125  : 	}

  00041	8b 4d f4	 mov	 ecx, DWORD PTR __$EHRec$[ebp]
  00044	64 89 0d 00 00
	00 00		 mov	 DWORD PTR fs:0, ecx
  0004b	59		 pop	 ecx
  0004c	5f		 pop	 edi
  0004d	5e		 pop	 esi
  0004e	8b e5		 mov	 esp, ebp
  00050	5d		 pop	 ebp
  00051	c2 04 00	 ret	 4
$LN3@CreateInst:

; 104  : 		}
; 105  : 
; 106  : 		{
; 107  : 			if( m_pPool == NULL)

  00054	8b 4f 34	 mov	 ecx, DWORD PTR [edi+52]
  00057	85 c9		 test	 ecx, ecx
  00059	75 4a		 jne	 SHORT $LN4@CreateInst

; 108  : 			{
; 109  : 				#if defined( I3_DEBUG)
; 110  : 					return (i3ElementBase *) new T;
; 111  : 				#else
; 112  : 					return (i3ElementBase *) new T;

  0005b	68 18 01 00 00	 push	 280			; 00000118H
  00060	e8 00 00 00 00	 call	 ??2i3ElementBase@@SAPAXI@Z ; i3ElementBase::operator new
  00065	83 c4 04	 add	 esp, 4
  00068	89 45 08	 mov	 DWORD PTR $T2[ebp], eax
  0006b	c7 45 fc 00 00
	00 00		 mov	 DWORD PTR __$EHRec$[ebp+8], 0
  00072	85 c0		 test	 eax, eax
  00074	74 1a		 je	 SHORT $LN7@CreateInst
  00076	8b c8		 mov	 ecx, eax
  00078	e8 00 00 00 00	 call	 ??0i3LineLexer@@QAE@XZ	; i3LineLexer::i3LineLexer

; 125  : 	}

  0007d	8b 4d f4	 mov	 ecx, DWORD PTR __$EHRec$[ebp]
  00080	64 89 0d 00 00
	00 00		 mov	 DWORD PTR fs:0, ecx
  00087	59		 pop	 ecx
  00088	5f		 pop	 edi
  00089	5e		 pop	 esi
  0008a	8b e5		 mov	 esp, ebp
  0008c	5d		 pop	 ebp
  0008d	c2 04 00	 ret	 4
$LN7@CreateInst:

; 108  : 			{
; 109  : 				#if defined( I3_DEBUG)
; 110  : 					return (i3ElementBase *) new T;
; 111  : 				#else
; 112  : 					return (i3ElementBase *) new T;

  00090	33 c0		 xor	 eax, eax

; 125  : 	}

  00092	8b 4d f4	 mov	 ecx, DWORD PTR __$EHRec$[ebp]
  00095	64 89 0d 00 00
	00 00		 mov	 DWORD PTR fs:0, ecx
  0009c	59		 pop	 ecx
  0009d	5f		 pop	 edi
  0009e	5e		 pop	 esi
  0009f	8b e5		 mov	 esp, ebp
  000a1	5d		 pop	 ebp
  000a2	c2 04 00	 ret	 4
$LN4@CreateInst:

; 113  : 				#endif
; 114  : 			}
; 115  : 			else
; 116  : 			{
; 117  : 				i3ElementBase * p = (i3ElementBase *) m_pPool->Alloc( sizeof(T), NULL, 0);

  000a5	8b 01		 mov	 eax, DWORD PTR [ecx]
  000a7	6a 00		 push	 0
  000a9	6a 00		 push	 0
  000ab	68 18 01 00 00	 push	 280			; 00000118H
  000b0	ff 50 04	 call	 DWORD PTR [eax+4]

; 118  : 	
; 119  : 				BindInstance( p, type);

  000b3	ff 75 08	 push	 DWORD PTR _type$[ebp]
  000b6	8b 17		 mov	 edx, DWORD PTR [edi]
  000b8	8b f0		 mov	 esi, eax
  000ba	56		 push	 esi
  000bb	8b cf		 mov	 ecx, edi
  000bd	ff 52 08	 call	 DWORD PTR [edx+8]
; File E:\Proyectos\JuegosOnlineproyectos\PB\pbblow\Piercing Blow Remake\i3Server\include\i3Base\i3ElementBase.h

; 347  : 	void			__SetMemoryPool( i3MemoryPool * pPool)			{ m_pPool = pPool; }

  000c0	8b 4f 34	 mov	 ecx, DWORD PTR [edi+52]
; File E:\Proyectos\JuegosOnlineproyectos\PB\pbblow\Piercing Blow Remake\i3Server\include\i3Base\i3MetaTemplate.h

; 122  : 				return p;

  000c3	8b c6		 mov	 eax, esi
; File E:\Proyectos\JuegosOnlineproyectos\PB\pbblow\Piercing Blow Remake\i3Server\include\i3Base\i3ElementBase.h

; 347  : 	void			__SetMemoryPool( i3MemoryPool * pPool)			{ m_pPool = pPool; }

  000c5	89 4e 0c	 mov	 DWORD PTR [esi+12], ecx
; File E:\Proyectos\JuegosOnlineproyectos\PB\pbblow\Piercing Blow Remake\i3Server\include\i3Base\i3MetaTemplate.h

; 125  : 	}

  000c8	8b 4d f4	 mov	 ecx, DWORD PTR __$EHRec$[ebp]
  000cb	64 89 0d 00 00
	00 00		 mov	 DWORD PTR fs:0, ecx
  000d2	59		 pop	 ecx
  000d3	5f		 pop	 edi
  000d4	5e		 pop	 esi
  000d5	8b e5		 mov	 esp, ebp
  000d7	5d		 pop	 ebp
  000d8	c2 04 00	 ret	 4
_TEXT	ENDS
;	COMDAT text$x
text$x	SEGMENT
__unwindfunclet$?CreateInstance@?$i3MetaTemplate@Vi3LineLexer@@@@UAEPAVi3ElementBase@@W4I3_CLASSMETA_TYPE@@@Z$0:
  00000	8b 45 08	 mov	 eax, DWORD PTR $T2[ebp]
  00003	50		 push	 eax
  00004	e8 00 00 00 00	 call	 ??3i3ElementBase@@SAXPAX@Z ; i3ElementBase::operator delete
  00009	59		 pop	 ecx
  0000a	c3		 ret	 0
  0000b	cc		 int	 3
  0000c	cc		 int	 3
  0000d	cc		 int	 3
  0000e	cc		 int	 3
  0000f	cc		 int	 3
__ehhandler$?CreateInstance@?$i3MetaTemplate@Vi3LineLexer@@@@UAEPAVi3ElementBase@@W4I3_CLASSMETA_TYPE@@@Z:
  00010	90		 npad	 1
  00011	90		 npad	 1
  00012	8b 54 24 08	 mov	 edx, DWORD PTR [esp+8]
  00016	8d 42 0c	 lea	 eax, DWORD PTR [edx+12]
  00019	8b 4a f4	 mov	 ecx, DWORD PTR [edx-12]
  0001c	33 c8		 xor	 ecx, eax
  0001e	e8 00 00 00 00	 call	 @__security_check_cookie@4
  00023	b8 00 00 00 00	 mov	 eax, OFFSET __ehfuncinfo$?CreateInstance@?$i3MetaTemplate@Vi3LineLexer@@@@UAEPAVi3ElementBase@@W4I3_CLASSMETA_TYPE@@@Z
  00028	e9 00 00 00 00	 jmp	 ___CxxFrameHandler3
text$x	ENDS
?CreateInstance@?$i3MetaTemplate@Vi3LineLexer@@@@UAEPAVi3ElementBase@@W4I3_CLASSMETA_TYPE@@@Z ENDP ; i3MetaTemplate<i3LineLexer>::CreateInstance
; Function compile flags: /Ogtp
; File E:\Proyectos\JuegosOnlineproyectos\PB\pbblow\Piercing Blow Remake\i3Server\include\i3Base\i3MetaTemplate.h
;	COMDAT ??0?$i3MetaTemplate@Vi3LineLexer@@@@QAE@IPAD0W4I3_CLASSMETA_TYPE@@@Z
_TEXT	SEGMENT
_this$ = -4						; size = 4
_classSz$ = 8						; size = 4
_pszClassName$ = 12					; size = 4
_pszBaseClassName$ = 16					; size = 4
_type$ = 20						; size = 4
??0?$i3MetaTemplate@Vi3LineLexer@@@@QAE@IPAD0W4I3_CLASSMETA_TYPE@@@Z PROC ; i3MetaTemplate<i3LineLexer>::i3MetaTemplate<i3LineLexer>, COMDAT
; _this$ = ecx

; 29   : {

  00000	55		 push	 ebp
  00001	8b ec		 mov	 ebp, esp
  00003	51		 push	 ecx
  00004	56		 push	 esi
  00005	ff 75 14	 push	 DWORD PTR _type$[ebp]
  00008	8b f1		 mov	 esi, ecx
  0000a	ff 75 10	 push	 DWORD PTR _pszBaseClassName$[ebp]
  0000d	89 75 fc	 mov	 DWORD PTR _this$[ebp], esi
  00010	ff 75 0c	 push	 DWORD PTR _pszClassName$[ebp]
  00013	ff 75 08	 push	 DWORD PTR _classSz$[ebp]
  00016	e8 00 00 00 00	 call	 ??0i3ClassMeta@@QAE@IPAD0W4I3_CLASSMETA_TYPE@@@Z ; i3ClassMeta::i3ClassMeta
  0001b	c7 06 00 00 00
	00		 mov	 DWORD PTR [esi], OFFSET ??_7?$i3MetaTemplate@Vi3LineLexer@@@@6B@

; 30   : }

  00021	8b c6		 mov	 eax, esi
  00023	5e		 pop	 esi
  00024	8b e5		 mov	 esp, ebp
  00026	5d		 pop	 ebp
  00027	c2 10 00	 ret	 16			; 00000010H
??0?$i3MetaTemplate@Vi3LineLexer@@@@QAE@IPAD0W4I3_CLASSMETA_TYPE@@@Z ENDP ; i3MetaTemplate<i3LineLexer>::i3MetaTemplate<i3LineLexer>
_TEXT	ENDS
; Function compile flags: /Ogtp
; File E:\Proyectos\JuegosOnlineproyectos\PB\pbblow\Piercing Blow Remake\i3Server\src\i3Base\i3Lexer.cpp
;	COMDAT ??_Ei3SimpleLineLexer@@UAEPAXI@Z
_TEXT	SEGMENT
__$EHRec$ = -12						; size = 12
___flags$ = 8						; size = 4
??_Ei3SimpleLineLexer@@UAEPAXI@Z PROC			; i3SimpleLineLexer::`vector deleting destructor', COMDAT
; _this$ = ecx
  00000	55		 push	 ebp
  00001	8b ec		 mov	 ebp, esp
  00003	6a ff		 push	 -1
  00005	68 00 00 00 00	 push	 __ehhandler$??_Ei3SimpleLineLexer@@UAEPAXI@Z
  0000a	64 a1 00 00 00
	00		 mov	 eax, DWORD PTR fs:0
  00010	50		 push	 eax
  00011	53		 push	 ebx
  00012	56		 push	 esi
  00013	57		 push	 edi
  00014	a1 00 00 00 00	 mov	 eax, DWORD PTR ___security_cookie
  00019	33 c5		 xor	 eax, ebp
  0001b	50		 push	 eax
  0001c	8d 45 f4	 lea	 eax, DWORD PTR __$EHRec$[ebp]
  0001f	64 a3 00 00 00
	00		 mov	 DWORD PTR fs:0, eax
  00025	8b f1		 mov	 esi, ecx
  00027	8b 5d 08	 mov	 ebx, DWORD PTR ___flags$[ebp]
  0002a	8b fb		 mov	 edi, ebx
  0002c	83 e7 01	 and	 edi, 1
  0002f	f6 c3 02	 test	 bl, 2
  00032	74 43		 je	 SHORT $LN2@vector
  00034	68 00 00 00 00	 push	 OFFSET ??1i3SimpleLineLexer@@UAE@XZ ; i3SimpleLineLexer::~i3SimpleLineLexer
  00039	ff 76 fc	 push	 DWORD PTR [esi-4]
  0003c	8d 5e fc	 lea	 ebx, DWORD PTR [esi-4]
  0003f	6a 18		 push	 24			; 00000018H
  00041	56		 push	 esi
  00042	e8 00 00 00 00	 call	 ??_M@YGXPAXIIP6EX0@Z@Z
  00047	85 ff		 test	 edi, edi
  00049	74 16		 je	 SHORT $LN3@vector
  0004b	8b 0b		 mov	 ecx, DWORD PTR [ebx]
  0004d	8d 0c 49	 lea	 ecx, DWORD PTR [ecx+ecx*2]
  00050	8d 0c cd 04 00
	00 00		 lea	 ecx, DWORD PTR [ecx*8+4]
  00057	51		 push	 ecx
  00058	53		 push	 ebx
  00059	e8 00 00 00 00	 call	 ??_V@YAXPAXI@Z		; operator delete[]
  0005e	83 c4 08	 add	 esp, 8
$LN3@vector:
  00061	8b c3		 mov	 eax, ebx
  00063	8b 4d f4	 mov	 ecx, DWORD PTR __$EHRec$[ebp]
  00066	64 89 0d 00 00
	00 00		 mov	 DWORD PTR fs:0, ecx
  0006d	59		 pop	 ecx
  0006e	5f		 pop	 edi
  0006f	5e		 pop	 esi
  00070	5b		 pop	 ebx
  00071	8b e5		 mov	 esp, ebp
  00073	5d		 pop	 ebp
  00074	c2 04 00	 ret	 4
$LN2@vector:

; 158  : i3SimpleLineLexer::~i3SimpleLineLexer(){}

  00077	c7 06 00 00 00
	00		 mov	 DWORD PTR [esi], OFFSET ??_7i3SimpleLineLexer@@6B@
  0007d	e8 00 00 00 00	 call	 ??1i3ElementBase@@UAE@XZ ; i3ElementBase::~i3ElementBase
  00082	85 ff		 test	 edi, edi
  00084	74 1b		 je	 SHORT $LN6@vector
  00086	f6 c3 04	 test	 bl, 4
  00089	75 0b		 jne	 SHORT $LN5@vector
  0008b	56		 push	 esi
  0008c	e8 00 00 00 00	 call	 ??3i3ElementBase@@SAXPAX@Z ; i3ElementBase::operator delete
  00091	83 c4 04	 add	 esp, 4
  00094	eb 0b		 jmp	 SHORT $LN6@vector
$LN5@vector:

  00096	6a 18		 push	 24			; 00000018H
  00098	56		 push	 esi
  00099	e8 00 00 00 00	 call	 ??3@YAXPAXI@Z		; operator delete
  0009e	83 c4 08	 add	 esp, 8
$LN6@vector:
  000a1	8b c6		 mov	 eax, esi
  000a3	8b 4d f4	 mov	 ecx, DWORD PTR __$EHRec$[ebp]
  000a6	64 89 0d 00 00
	00 00		 mov	 DWORD PTR fs:0, ecx
  000ad	59		 pop	 ecx
  000ae	5f		 pop	 edi
  000af	5e		 pop	 esi
  000b0	5b		 pop	 ebx
  000b1	8b e5		 mov	 esp, ebp
  000b3	5d		 pop	 ebp
  000b4	c2 04 00	 ret	 4
  000b7	cc		 int	 3
  000b8	cc		 int	 3
  000b9	cc		 int	 3
  000ba	cc		 int	 3
  000bb	cc		 int	 3
_TEXT	ENDS
;	COMDAT text$x
text$x	SEGMENT
__ehhandler$??_Ei3SimpleLineLexer@@UAEPAXI@Z:
  00000	90		 npad	 1
  00001	90		 npad	 1
  00002	8b 54 24 08	 mov	 edx, DWORD PTR [esp+8]
  00006	8d 42 0c	 lea	 eax, DWORD PTR [edx+12]
  00009	8b 4a f0	 mov	 ecx, DWORD PTR [edx-16]
  0000c	33 c8		 xor	 ecx, eax
  0000e	e8 00 00 00 00	 call	 @__security_check_cookie@4
  00013	b8 00 00 00 00	 mov	 eax, OFFSET __ehfuncinfo$??_Ei3SimpleLineLexer@@UAEPAXI@Z
  00018	e9 00 00 00 00	 jmp	 ___CxxFrameHandler3
text$x	ENDS
??_Ei3SimpleLineLexer@@UAEPAXI@Z ENDP			; i3SimpleLineLexer::`vector deleting destructor'
; Function compile flags: /Ogtp
; File E:\Proyectos\JuegosOnlineproyectos\PB\pbblow\Piercing Blow Remake\i3Server\src\i3Base\i3Lexer.cpp
;	COMDAT ??_Gi3SimpleLineLexer@@UAEPAXI@Z
_TEXT	SEGMENT
___flags$ = 8						; size = 4
??_Gi3SimpleLineLexer@@UAEPAXI@Z PROC			; i3SimpleLineLexer::`scalar deleting destructor', COMDAT
; _this$ = ecx
  00000	55		 push	 ebp
  00001	8b ec		 mov	 ebp, esp

; 158  : i3SimpleLineLexer::~i3SimpleLineLexer(){}

  00003	56		 push	 esi
  00004	8b f1		 mov	 esi, ecx
  00006	c7 06 00 00 00
	00		 mov	 DWORD PTR [esi], OFFSET ??_7i3SimpleLineLexer@@6B@
  0000c	e8 00 00 00 00	 call	 ??1i3ElementBase@@UAE@XZ ; i3ElementBase::~i3ElementBase
  00011	8b 45 08	 mov	 eax, DWORD PTR ___flags$[ebp]
  00014	a8 01		 test	 al, 1
  00016	74 1f		 je	 SHORT $LN15@scalar
  00018	a8 04		 test	 al, 4
  0001a	75 10		 jne	 SHORT $LN3@scalar
  0001c	56		 push	 esi
  0001d	e8 00 00 00 00	 call	 ??3i3ElementBase@@SAXPAX@Z ; i3ElementBase::operator delete
  00022	83 c4 04	 add	 esp, 4
  00025	8b c6		 mov	 eax, esi
  00027	5e		 pop	 esi
  00028	5d		 pop	 ebp
  00029	c2 04 00	 ret	 4
$LN3@scalar:

  0002c	6a 18		 push	 24			; 00000018H
  0002e	56		 push	 esi
  0002f	e8 00 00 00 00	 call	 ??3@YAXPAXI@Z		; operator delete
  00034	83 c4 08	 add	 esp, 8
$LN15@scalar:
  00037	8b c6		 mov	 eax, esi
  00039	5e		 pop	 esi
  0003a	5d		 pop	 ebp
  0003b	c2 04 00	 ret	 4
??_Gi3SimpleLineLexer@@UAEPAXI@Z ENDP			; i3SimpleLineLexer::`scalar deleting destructor'
_TEXT	ENDS
; Function compile flags: /Ogtp
;	COMDAT ??4i3SimpleLineLexer@@QAEAAV0@ABV0@@Z
_TEXT	SEGMENT
___that$ = 8						; size = 4
??4i3SimpleLineLexer@@QAEAAV0@ABV0@@Z PROC		; i3SimpleLineLexer::operator=, COMDAT
; _this$ = ecx
  00000	55		 push	 ebp
  00001	8b ec		 mov	 ebp, esp
  00003	8b 55 08	 mov	 edx, DWORD PTR ___that$[ebp]
  00006	8b 42 04	 mov	 eax, DWORD PTR [edx+4]
  00009	89 41 04	 mov	 DWORD PTR [ecx+4], eax
  0000c	8b 42 08	 mov	 eax, DWORD PTR [edx+8]
  0000f	89 41 08	 mov	 DWORD PTR [ecx+8], eax
  00012	8b 42 0c	 mov	 eax, DWORD PTR [edx+12]
  00015	89 41 0c	 mov	 DWORD PTR [ecx+12], eax
  00018	8b 42 10	 mov	 eax, DWORD PTR [edx+16]
  0001b	89 41 10	 mov	 DWORD PTR [ecx+16], eax
  0001e	8b 42 14	 mov	 eax, DWORD PTR [edx+20]
  00021	89 41 14	 mov	 DWORD PTR [ecx+20], eax
  00024	8b c1		 mov	 eax, ecx
  00026	5d		 pop	 ebp
  00027	c2 04 00	 ret	 4
??4i3SimpleLineLexer@@QAEAAV0@ABV0@@Z ENDP		; i3SimpleLineLexer::operator=
_TEXT	ENDS
; Function compile flags: /Ogtp
;	COMDAT ??0i3SimpleLineLexer@@QAE@ABV0@@Z
_TEXT	SEGMENT
___that$ = 8						; size = 4
??0i3SimpleLineLexer@@QAE@ABV0@@Z PROC			; i3SimpleLineLexer::i3SimpleLineLexer, COMDAT
; _this$ = ecx
  00000	55		 push	 ebp
  00001	8b ec		 mov	 ebp, esp
  00003	8b 55 08	 mov	 edx, DWORD PTR ___that$[ebp]
  00006	c7 01 00 00 00
	00		 mov	 DWORD PTR [ecx], OFFSET ??_7i3ElementBase@@6B@
  0000c	8b 42 04	 mov	 eax, DWORD PTR [edx+4]
  0000f	89 41 04	 mov	 DWORD PTR [ecx+4], eax
  00012	8b 42 08	 mov	 eax, DWORD PTR [edx+8]
  00015	89 41 08	 mov	 DWORD PTR [ecx+8], eax
  00018	8b 42 0c	 mov	 eax, DWORD PTR [edx+12]
  0001b	89 41 0c	 mov	 DWORD PTR [ecx+12], eax
  0001e	c7 01 00 00 00
	00		 mov	 DWORD PTR [ecx], OFFSET ??_7i3SimpleLineLexer@@6B@
  00024	8b 42 10	 mov	 eax, DWORD PTR [edx+16]
  00027	89 41 10	 mov	 DWORD PTR [ecx+16], eax
  0002a	8b 42 14	 mov	 eax, DWORD PTR [edx+20]
  0002d	89 41 14	 mov	 DWORD PTR [ecx+20], eax
  00030	8b c1		 mov	 eax, ecx
  00032	5d		 pop	 ebp
  00033	c2 04 00	 ret	 4
??0i3SimpleLineLexer@@QAE@ABV0@@Z ENDP			; i3SimpleLineLexer::i3SimpleLineLexer
_TEXT	ENDS
; Function compile flags: /Ogtp
; File E:\Proyectos\JuegosOnlineproyectos\PB\pbblow\Piercing Blow Remake\i3Server\src\i3Base\i3Lexer.cpp
; File C:\Program Files (x86)\Windows Kits\10\Include\10.0.26100.0\ucrt\string.h
; File E:\Proyectos\JuegosOnlineproyectos\PB\pbblow\Piercing Blow Remake\i3Server\src\i3Base\i3Lexer.cpp
; File C:\Program Files (x86)\Windows Kits\10\Include\10.0.26100.0\ucrt\string.h
; File E:\Proyectos\JuegosOnlineproyectos\PB\pbblow\Piercing Blow Remake\i3Server\src\i3Base\i3Lexer.cpp
;	COMDAT ?GetValuesFromString@i3SimpleLineLexer@@QAEHPAMHHPAD@Z
_TEXT	SEGMENT
_pReal$ = 8						; size = 4
_nNum$ = 12						; size = 4
_nDelimiter$ = 16					; size = 4
_szBuf$ = 20						; size = 4
?GetValuesFromString@i3SimpleLineLexer@@QAEHPAMHHPAD@Z PROC ; i3SimpleLineLexer::GetValuesFromString, COMDAT
; _this$ = ecx

; 223  : {

  00000	55		 push	 ebp
  00001	8b ec		 mov	 ebp, esp

; 224  : 	if( szBuf == NULL )

  00003	8b 55 14	 mov	 edx, DWORD PTR _szBuf$[ebp]
  00006	56		 push	 esi
  00007	8b f1		 mov	 esi, ecx
  00009	85 d2		 test	 edx, edx
  0000b	75 07		 jne	 SHORT $LN5@GetValuesF

; 225  : 	{
; 226  : 		return FALSE;

  0000d	33 c0		 xor	 eax, eax
  0000f	5e		 pop	 esi

; 245  : }

  00010	5d		 pop	 ebp
  00011	c2 10 00	 ret	 16			; 00000010H
$LN5@GetValuesF:

; 162  : 	m_szNextText = ( strlen( szText ) > 0 ) ? szText : NULL;

  00014	8b ca		 mov	 ecx, edx
  00016	57		 push	 edi
  00017	8d 79 01	 lea	 edi, DWORD PTR [ecx+1]
  0001a	8d 9b 00 00 00
	00		 npad	 6
$LL32@GetValuesF:
  00020	8a 01		 mov	 al, BYTE PTR [ecx]
  00022	41		 inc	 ecx
  00023	84 c0		 test	 al, al
  00025	75 f9		 jne	 SHORT $LL32@GetValuesF
  00027	33 c0		 xor	 eax, eax
  00029	2b cf		 sub	 ecx, edi
  0002b	3b c1		 cmp	 eax, ecx
  0002d	53		 push	 ebx
  0002e	1b c0		 sbb	 eax, eax

; 227  : 	}
; 228  : 
; 229  : 	SetText( szBuf );
; 230  : 
; 231  : 	INT32 i;
; 232  : 	for( i = 0; i < nNum; i ++ )

  00030	33 db		 xor	 ebx, ebx

; 162  : 	m_szNextText = ( strlen( szText ) > 0 ) ? szText : NULL;

  00032	23 c2		 and	 eax, edx
  00034	89 46 14	 mov	 DWORD PTR [esi+20], eax

; 227  : 	}
; 228  : 
; 229  : 	SetText( szBuf );
; 230  : 
; 231  : 	INT32 i;
; 232  : 	for( i = 0; i < nNum; i ++ )

  00037	39 5d 0c	 cmp	 DWORD PTR _nNum$[ebp], ebx
  0003a	7e 6b		 jle	 SHORT $LN3@GetValuesF
  0003c	8b 7d 10	 mov	 edi, DWORD PTR _nDelimiter$[ebp]
  0003f	90		 npad	 1
$LL4@GetValuesF:

; 168  : 	if( m_szNextText == NULL )

  00040	8b 46 14	 mov	 eax, DWORD PTR [esi+20]
  00043	85 c0		 test	 eax, eax
  00045	74 60		 je	 SHORT $LN3@GetValuesF
; File C:\Program Files (x86)\Windows Kits\10\Include\10.0.26100.0\ucrt\string.h

; 502  :         return const_cast<char*>(strchr(static_cast<char const*>(_String), _Ch));

  00047	57		 push	 edi
  00048	50		 push	 eax
; File E:\Proyectos\JuegosOnlineproyectos\PB\pbblow\Piercing Blow Remake\i3Server\src\i3Base\i3Lexer.cpp

; 173  : 	m_szText = m_szNextText;

  00049	89 46 10	 mov	 DWORD PTR [esi+16], eax
; File C:\Program Files (x86)\Windows Kits\10\Include\10.0.26100.0\ucrt\string.h

; 502  :         return const_cast<char*>(strchr(static_cast<char const*>(_String), _Ch));

  0004c	e8 00 00 00 00	 call	 _strchr
  00051	83 c4 08	 add	 esp, 8
; File E:\Proyectos\JuegosOnlineproyectos\PB\pbblow\Piercing Blow Remake\i3Server\src\i3Base\i3Lexer.cpp

; 174  : 	m_szNextText = strchr( m_szText, nDelimiter );

  00054	89 46 14	 mov	 DWORD PTR [esi+20], eax

; 175  : 
; 176  : 	if( m_szNextText != NULL )

  00057	85 c0		 test	 eax, eax
  00059	74 30		 je	 SHORT $LN13@GetValuesF

; 177  : 	{
; 178  : 		*m_szNextText = '\0';

  0005b	c6 00 00	 mov	 BYTE PTR [eax], 0

; 179  : 		m_szNextText++;

  0005e	8b 4e 14	 mov	 ecx, DWORD PTR [esi+20]
  00061	41		 inc	 ecx
  00062	89 4e 14	 mov	 DWORD PTR [esi+20], ecx

; 180  : 		if ( m_szNextText[0] == 0)

  00065	8a 01		 mov	 al, BYTE PTR [ecx]
  00067	84 c0		 test	 al, al
  00069	75 09		 jne	 SHORT $LN22@GetValuesF

; 181  : 		{
; 182  : 			m_szNextText = NULL;

  0006b	c7 46 14 00 00
	00 00		 mov	 DWORD PTR [esi+20], 0

; 183  : 		}

  00072	eb 17		 jmp	 SHORT $LN13@GetValuesF
$LN22@GetValuesF:

; 184  : 		else
; 185  : 		{
; 186  : 			while( nDelimiter == (INT32)m_szNextText[0] )

  00074	0f be c0	 movsx	 eax, al
  00077	3b f8		 cmp	 edi, eax
  00079	75 10		 jne	 SHORT $LN13@GetValuesF
  0007b	eb 03 8d 49 00	 npad	 5
$LL12@GetValuesF:

; 187  : 			{
; 188  : 				m_szNextText++;

  00080	41		 inc	 ecx
  00081	89 4e 14	 mov	 DWORD PTR [esi+20], ecx
  00084	0f be 01	 movsx	 eax, BYTE PTR [ecx]
  00087	3b f8		 cmp	 edi, eax
  00089	74 f5		 je	 SHORT $LL12@GetValuesF
$LN13@GetValuesF:

; 189  : 			}
; 190  : 		}
; 191  : 	}
; 192  : 
; 193  :    return m_szText;

  0008b	8b 46 10	 mov	 eax, DWORD PTR [esi+16]

; 233  : 	{
; 234  : 		char *pToken = GetNextToken( nDelimiter );
; 235  : 		if( pToken == NULL )

  0008e	85 c0		 test	 eax, eax
  00090	74 15		 je	 SHORT $LN3@GetValuesF

; 236  : 		{
; 237  : 			return i;
; 238  : 		}
; 239  : 		else
; 240  : 		{
; 241  : 			pReal[i] = (REAL32)atof( pToken );

  00092	50		 push	 eax
  00093	e8 00 00 00 00	 call	 _atof
  00098	8b 45 08	 mov	 eax, DWORD PTR _pReal$[ebp]
  0009b	83 c4 04	 add	 esp, 4
  0009e	d9 1c 98	 fstp	 DWORD PTR [eax+ebx*4]
  000a1	43		 inc	 ebx
  000a2	3b 5d 0c	 cmp	 ebx, DWORD PTR _nNum$[ebp]
  000a5	7c 99		 jl	 SHORT $LL4@GetValuesF
$LN3@GetValuesF:

; 242  : 		}		
; 243  : 	}
; 244  : 	return i;

  000a7	8b c3		 mov	 eax, ebx
  000a9	5b		 pop	 ebx
  000aa	5f		 pop	 edi
  000ab	5e		 pop	 esi

; 245  : }

  000ac	5d		 pop	 ebp
  000ad	c2 10 00	 ret	 16			; 00000010H
?GetValuesFromString@i3SimpleLineLexer@@QAEHPAMHHPAD@Z ENDP ; i3SimpleLineLexer::GetValuesFromString
_TEXT	ENDS
; Function compile flags: /Ogtp
; File E:\Proyectos\JuegosOnlineproyectos\PB\pbblow\Piercing Blow Remake\i3Server\src\i3Base\i3Lexer.cpp
; File C:\Program Files (x86)\Windows Kits\10\Include\10.0.26100.0\ucrt\string.h
; File E:\Proyectos\JuegosOnlineproyectos\PB\pbblow\Piercing Blow Remake\i3Server\src\i3Base\i3Lexer.cpp
; File C:\Program Files (x86)\Windows Kits\10\Include\10.0.26100.0\ucrt\string.h
; File E:\Proyectos\JuegosOnlineproyectos\PB\pbblow\Piercing Blow Remake\i3Server\src\i3Base\i3Lexer.cpp
;	COMDAT ?GetValuesFromString@i3SimpleLineLexer@@QAEHPAHHHPAD@Z
_TEXT	SEGMENT
_pInt$ = 8						; size = 4
_nNum$ = 12						; size = 4
_nDelimiter$ = 16					; size = 4
_szBuf$ = 20						; size = 4
_endptr$1 = 20						; size = 4
?GetValuesFromString@i3SimpleLineLexer@@QAEHPAHHHPAD@Z PROC ; i3SimpleLineLexer::GetValuesFromString, COMDAT
; _this$ = ecx

; 197  : {

  00000	55		 push	 ebp
  00001	8b ec		 mov	 ebp, esp

; 198  : 	if( szBuf == NULL )

  00003	8b 55 14	 mov	 edx, DWORD PTR _szBuf$[ebp]
  00006	56		 push	 esi
  00007	8b f1		 mov	 esi, ecx
  00009	85 d2		 test	 edx, edx
  0000b	75 07		 jne	 SHORT $LN5@GetValuesF

; 199  : 	{
; 200  : 		return FALSE;

  0000d	33 c0		 xor	 eax, eax
  0000f	5e		 pop	 esi

; 220  : }

  00010	5d		 pop	 ebp
  00011	c2 10 00	 ret	 16			; 00000010H
$LN5@GetValuesF:

; 162  : 	m_szNextText = ( strlen( szText ) > 0 ) ? szText : NULL;

  00014	8b ca		 mov	 ecx, edx
  00016	57		 push	 edi
  00017	8d 79 01	 lea	 edi, DWORD PTR [ecx+1]
  0001a	8d 9b 00 00 00
	00		 npad	 6
$LL32@GetValuesF:
  00020	8a 01		 mov	 al, BYTE PTR [ecx]
  00022	41		 inc	 ecx
  00023	84 c0		 test	 al, al
  00025	75 f9		 jne	 SHORT $LL32@GetValuesF
  00027	33 c0		 xor	 eax, eax
  00029	2b cf		 sub	 ecx, edi
  0002b	3b c1		 cmp	 eax, ecx
  0002d	53		 push	 ebx
  0002e	1b c0		 sbb	 eax, eax

; 201  : 	}
; 202  : 
; 203  : 	SetText( szBuf );
; 204  : 
; 205  : 	INT32 i;
; 206  : 	for( i = 0; i < nNum; i ++ )

  00030	33 db		 xor	 ebx, ebx

; 162  : 	m_szNextText = ( strlen( szText ) > 0 ) ? szText : NULL;

  00032	23 c2		 and	 eax, edx
  00034	89 46 14	 mov	 DWORD PTR [esi+20], eax

; 201  : 	}
; 202  : 
; 203  : 	SetText( szBuf );
; 204  : 
; 205  : 	INT32 i;
; 206  : 	for( i = 0; i < nNum; i ++ )

  00037	39 5d 0c	 cmp	 DWORD PTR _nNum$[ebp], ebx
  0003a	7e 71		 jle	 SHORT $LN3@GetValuesF
  0003c	8b 7d 10	 mov	 edi, DWORD PTR _nDelimiter$[ebp]
  0003f	90		 npad	 1
$LL4@GetValuesF:

; 168  : 	if( m_szNextText == NULL )

  00040	8b 46 14	 mov	 eax, DWORD PTR [esi+20]
  00043	85 c0		 test	 eax, eax
  00045	74 66		 je	 SHORT $LN3@GetValuesF
; File C:\Program Files (x86)\Windows Kits\10\Include\10.0.26100.0\ucrt\string.h

; 502  :         return const_cast<char*>(strchr(static_cast<char const*>(_String), _Ch));

  00047	57		 push	 edi
  00048	50		 push	 eax
; File E:\Proyectos\JuegosOnlineproyectos\PB\pbblow\Piercing Blow Remake\i3Server\src\i3Base\i3Lexer.cpp

; 173  : 	m_szText = m_szNextText;

  00049	89 46 10	 mov	 DWORD PTR [esi+16], eax
; File C:\Program Files (x86)\Windows Kits\10\Include\10.0.26100.0\ucrt\string.h

; 502  :         return const_cast<char*>(strchr(static_cast<char const*>(_String), _Ch));

  0004c	e8 00 00 00 00	 call	 _strchr
  00051	83 c4 08	 add	 esp, 8
; File E:\Proyectos\JuegosOnlineproyectos\PB\pbblow\Piercing Blow Remake\i3Server\src\i3Base\i3Lexer.cpp

; 174  : 	m_szNextText = strchr( m_szText, nDelimiter );

  00054	89 46 14	 mov	 DWORD PTR [esi+20], eax

; 175  : 
; 176  : 	if( m_szNextText != NULL )

  00057	85 c0		 test	 eax, eax
  00059	74 30		 je	 SHORT $LN13@GetValuesF

; 177  : 	{
; 178  : 		*m_szNextText = '\0';

  0005b	c6 00 00	 mov	 BYTE PTR [eax], 0

; 179  : 		m_szNextText++;

  0005e	8b 46 14	 mov	 eax, DWORD PTR [esi+20]
  00061	40		 inc	 eax
  00062	89 46 14	 mov	 DWORD PTR [esi+20], eax

; 180  : 		if ( m_szNextText[0] == 0)

  00065	8a 08		 mov	 cl, BYTE PTR [eax]
  00067	84 c9		 test	 cl, cl
  00069	75 09		 jne	 SHORT $LN22@GetValuesF

; 181  : 		{
; 182  : 			m_szNextText = NULL;

  0006b	c7 46 14 00 00
	00 00		 mov	 DWORD PTR [esi+20], 0

; 183  : 		}

  00072	eb 17		 jmp	 SHORT $LN13@GetValuesF
$LN22@GetValuesF:

; 184  : 		else
; 185  : 		{
; 186  : 			while( nDelimiter == (INT32)m_szNextText[0] )

  00074	0f be c9	 movsx	 ecx, cl
  00077	3b f9		 cmp	 edi, ecx
  00079	75 10		 jne	 SHORT $LN13@GetValuesF
  0007b	eb 03 8d 49 00	 npad	 5
$LL12@GetValuesF:

; 187  : 			{
; 188  : 				m_szNextText++;

  00080	40		 inc	 eax
  00081	89 46 14	 mov	 DWORD PTR [esi+20], eax
  00084	0f be 08	 movsx	 ecx, BYTE PTR [eax]
  00087	3b f9		 cmp	 edi, ecx
  00089	74 f5		 je	 SHORT $LL12@GetValuesF
$LN13@GetValuesF:

; 189  : 			}
; 190  : 		}
; 191  : 	}
; 192  : 
; 193  :    return m_szText;

  0008b	8b 46 10	 mov	 eax, DWORD PTR [esi+16]

; 207  : 	{
; 208  : 		char *pToken = GetNextToken( nDelimiter );
; 209  : 		if( pToken == NULL )

  0008e	85 c0		 test	 eax, eax
  00090	74 1b		 je	 SHORT $LN3@GetValuesF

; 210  : 		{
; 211  : 			return i;
; 212  : 		}
; 213  : 		else
; 214  : 		{
; 215  : 			char *endptr;
; 216  : 			pInt[i] = (INT32)strtol( pToken, &endptr, 0 );

  00092	6a 00		 push	 0
  00094	8d 4d 14	 lea	 ecx, DWORD PTR _endptr$1[ebp]
  00097	51		 push	 ecx
  00098	50		 push	 eax
  00099	e8 00 00 00 00	 call	 _strtol
  0009e	8b 4d 08	 mov	 ecx, DWORD PTR _pInt$[ebp]
  000a1	83 c4 0c	 add	 esp, 12			; 0000000cH
  000a4	89 04 99	 mov	 DWORD PTR [ecx+ebx*4], eax
  000a7	43		 inc	 ebx
  000a8	3b 5d 0c	 cmp	 ebx, DWORD PTR _nNum$[ebp]
  000ab	7c 93		 jl	 SHORT $LL4@GetValuesF
$LN3@GetValuesF:

; 217  : 		}		
; 218  : 	}
; 219  : 	return i;

  000ad	8b c3		 mov	 eax, ebx
  000af	5b		 pop	 ebx
  000b0	5f		 pop	 edi
  000b1	5e		 pop	 esi

; 220  : }

  000b2	5d		 pop	 ebp
  000b3	c2 10 00	 ret	 16			; 00000010H
?GetValuesFromString@i3SimpleLineLexer@@QAEHPAHHHPAD@Z ENDP ; i3SimpleLineLexer::GetValuesFromString
_TEXT	ENDS
; Function compile flags: /Ogtp
; File E:\Proyectos\JuegosOnlineproyectos\PB\pbblow\Piercing Blow Remake\i3Server\src\i3Base\i3Lexer.cpp
; File C:\Program Files (x86)\Windows Kits\10\Include\10.0.26100.0\ucrt\string.h
; File E:\Proyectos\JuegosOnlineproyectos\PB\pbblow\Piercing Blow Remake\i3Server\src\i3Base\i3Lexer.cpp
; File C:\Program Files (x86)\Windows Kits\10\Include\10.0.26100.0\ucrt\string.h
; File E:\Proyectos\JuegosOnlineproyectos\PB\pbblow\Piercing Blow Remake\i3Server\src\i3Base\i3Lexer.cpp
;	COMDAT ?GetNextToken@i3SimpleLineLexer@@QAEPADH@Z
_TEXT	SEGMENT
_nDelimiter$ = 8					; size = 4
?GetNextToken@i3SimpleLineLexer@@QAEPADH@Z PROC		; i3SimpleLineLexer::GetNextToken, COMDAT
; _this$ = ecx

; 166  : {

  00000	55		 push	 ebp
  00001	8b ec		 mov	 ebp, esp
  00003	56		 push	 esi
  00004	8b f1		 mov	 esi, ecx

; 167  : 	I3ASSERT( nDelimiter != 0 );
; 168  : 	if( m_szNextText == NULL )

  00006	8b 46 14	 mov	 eax, DWORD PTR [esi+20]
  00009	85 c0		 test	 eax, eax
  0000b	75 05		 jne	 SHORT $LN4@GetNextTok
  0000d	5e		 pop	 esi

; 194  : }

  0000e	5d		 pop	 ebp
  0000f	c2 04 00	 ret	 4
$LN4@GetNextTok:
  00012	57		 push	 edi
; File C:\Program Files (x86)\Windows Kits\10\Include\10.0.26100.0\ucrt\string.h

; 502  :         return const_cast<char*>(strchr(static_cast<char const*>(_String), _Ch));

  00013	8b 7d 08	 mov	 edi, DWORD PTR _nDelimiter$[ebp]
  00016	57		 push	 edi
  00017	50		 push	 eax
; File E:\Proyectos\JuegosOnlineproyectos\PB\pbblow\Piercing Blow Remake\i3Server\src\i3Base\i3Lexer.cpp

; 173  : 	m_szText = m_szNextText;

  00018	89 46 10	 mov	 DWORD PTR [esi+16], eax
; File C:\Program Files (x86)\Windows Kits\10\Include\10.0.26100.0\ucrt\string.h

; 502  :         return const_cast<char*>(strchr(static_cast<char const*>(_String), _Ch));

  0001b	e8 00 00 00 00	 call	 _strchr
  00020	83 c4 08	 add	 esp, 8
; File E:\Proyectos\JuegosOnlineproyectos\PB\pbblow\Piercing Blow Remake\i3Server\src\i3Base\i3Lexer.cpp

; 174  : 	m_szNextText = strchr( m_szText, nDelimiter );

  00023	89 46 14	 mov	 DWORD PTR [esi+20], eax

; 175  : 
; 176  : 	if( m_szNextText != NULL )

  00026	85 c0		 test	 eax, eax
  00028	74 32		 je	 SHORT $LN3@GetNextTok

; 177  : 	{
; 178  : 		*m_szNextText = '\0';

  0002a	c6 00 00	 mov	 BYTE PTR [eax], 0

; 179  : 		m_szNextText++;

  0002d	8b 4e 14	 mov	 ecx, DWORD PTR [esi+20]
  00030	41		 inc	 ecx
  00031	89 4e 14	 mov	 DWORD PTR [esi+20], ecx

; 180  : 		if ( m_szNextText[0] == 0)

  00034	8a 01		 mov	 al, BYTE PTR [ecx]
  00036	84 c0		 test	 al, al
  00038	75 10		 jne	 SHORT $LN11@GetNextTok

; 189  : 			}
; 190  : 		}
; 191  : 	}
; 192  : 
; 193  :    return m_szText;

  0003a	8b 46 10	 mov	 eax, DWORD PTR [esi+16]
  0003d	5f		 pop	 edi
  0003e	c7 46 14 00 00
	00 00		 mov	 DWORD PTR [esi+20], 0
  00045	5e		 pop	 esi

; 194  : }

  00046	5d		 pop	 ebp
  00047	c2 04 00	 ret	 4
$LN11@GetNextTok:

; 181  : 		{
; 182  : 			m_szNextText = NULL;
; 183  : 		}
; 184  : 		else
; 185  : 		{
; 186  : 			while( nDelimiter == (INT32)m_szNextText[0] )

  0004a	0f be c0	 movsx	 eax, al
  0004d	3b f8		 cmp	 edi, eax
  0004f	75 0b		 jne	 SHORT $LN3@GetNextTok
$LL2@GetNextTok:

; 187  : 			{
; 188  : 				m_szNextText++;

  00051	41		 inc	 ecx
  00052	89 4e 14	 mov	 DWORD PTR [esi+20], ecx
  00055	0f be 01	 movsx	 eax, BYTE PTR [ecx]
  00058	3b f8		 cmp	 edi, eax
  0005a	74 f5		 je	 SHORT $LL2@GetNextTok
$LN3@GetNextTok:

; 189  : 			}
; 190  : 		}
; 191  : 	}
; 192  : 
; 193  :    return m_szText;

  0005c	8b 46 10	 mov	 eax, DWORD PTR [esi+16]
  0005f	5f		 pop	 edi
  00060	5e		 pop	 esi

; 194  : }

  00061	5d		 pop	 ebp
  00062	c2 04 00	 ret	 4
?GetNextToken@i3SimpleLineLexer@@QAEPADH@Z ENDP		; i3SimpleLineLexer::GetNextToken
_TEXT	ENDS
; Function compile flags: /Ogtp
; File E:\Proyectos\JuegosOnlineproyectos\PB\pbblow\Piercing Blow Remake\i3Server\src\i3Base\i3Lexer.cpp
;	COMDAT ?SetText@i3SimpleLineLexer@@QAEXPAD@Z
_TEXT	SEGMENT
_szText$ = 8						; size = 4
?SetText@i3SimpleLineLexer@@QAEXPAD@Z PROC		; i3SimpleLineLexer::SetText, COMDAT
; _this$ = ecx

; 161  : {

  00000	55		 push	 ebp
  00001	8b ec		 mov	 ebp, esp

; 162  : 	m_szNextText = ( strlen( szText ) > 0 ) ? szText : NULL;

  00003	8b 55 08	 mov	 edx, DWORD PTR _szText$[ebp]
  00006	8b c2		 mov	 eax, edx
  00008	56		 push	 esi
  00009	57		 push	 edi
  0000a	8b f1		 mov	 esi, ecx
  0000c	8d 78 01	 lea	 edi, DWORD PTR [eax+1]
  0000f	90		 npad	 1
$LL3@SetText:
  00010	8a 08		 mov	 cl, BYTE PTR [eax]
  00012	40		 inc	 eax
  00013	84 c9		 test	 cl, cl
  00015	75 f9		 jne	 SHORT $LL3@SetText
  00017	2b c7		 sub	 eax, edi
  00019	33 c9		 xor	 ecx, ecx
  0001b	3b c8		 cmp	 ecx, eax
  0001d	5f		 pop	 edi
  0001e	1b c0		 sbb	 eax, eax
  00020	23 c2		 and	 eax, edx
  00022	89 46 14	 mov	 DWORD PTR [esi+20], eax
  00025	5e		 pop	 esi

; 163  : }

  00026	5d		 pop	 ebp
  00027	c2 04 00	 ret	 4
?SetText@i3SimpleLineLexer@@QAEXPAD@Z ENDP		; i3SimpleLineLexer::SetText
_TEXT	ENDS
; Function compile flags: /Ogtp
; File E:\Proyectos\JuegosOnlineproyectos\PB\pbblow\Piercing Blow Remake\i3Server\src\i3Base\i3Lexer.cpp
;	COMDAT ??1i3SimpleLineLexer@@UAE@XZ
_TEXT	SEGMENT
??1i3SimpleLineLexer@@UAE@XZ PROC			; i3SimpleLineLexer::~i3SimpleLineLexer, COMDAT
; _this$ = ecx

; 158  : i3SimpleLineLexer::~i3SimpleLineLexer(){}

  00000	c7 01 00 00 00
	00		 mov	 DWORD PTR [ecx], OFFSET ??_7i3SimpleLineLexer@@6B@
  00006	e9 00 00 00 00	 jmp	 ??1i3ElementBase@@UAE@XZ ; i3ElementBase::~i3ElementBase
??1i3SimpleLineLexer@@UAE@XZ ENDP			; i3SimpleLineLexer::~i3SimpleLineLexer
_TEXT	ENDS
; Function compile flags: /Ogtp
; File E:\Proyectos\JuegosOnlineproyectos\PB\pbblow\Piercing Blow Remake\i3Server\src\i3Base\i3Lexer.cpp
;	COMDAT ??0i3SimpleLineLexer@@QAE@XZ
_TEXT	SEGMENT
_this$ = -4						; size = 4
??0i3SimpleLineLexer@@QAE@XZ PROC			; i3SimpleLineLexer::i3SimpleLineLexer, COMDAT
; _this$ = ecx

; 157  : i3SimpleLineLexer::i3SimpleLineLexer(){}

  00000	55		 push	 ebp
  00001	8b ec		 mov	 ebp, esp
  00003	51		 push	 ecx
  00004	56		 push	 esi
  00005	8b f1		 mov	 esi, ecx
  00007	89 75 fc	 mov	 DWORD PTR _this$[ebp], esi
  0000a	e8 00 00 00 00	 call	 ??0i3ElementBase@@QAE@XZ ; i3ElementBase::i3ElementBase
  0000f	c7 06 00 00 00
	00		 mov	 DWORD PTR [esi], OFFSET ??_7i3SimpleLineLexer@@6B@
  00015	8b c6		 mov	 eax, esi
  00017	5e		 pop	 esi
  00018	8b e5		 mov	 esp, ebp
  0001a	5d		 pop	 ebp
  0001b	c3		 ret	 0
??0i3SimpleLineLexer@@QAE@XZ ENDP			; i3SimpleLineLexer::i3SimpleLineLexer
_TEXT	ENDS
; Function compile flags: /Ogtp
; File E:\Proyectos\JuegosOnlineproyectos\PB\pbblow\Piercing Blow Remake\i3Server\src\i3Base\i3Lexer.cpp
;	COMDAT ?_BindObjectRefByType@i3SimpleLineLexer@@SAPAV1@PAXW4I3_CLASSMETA_TYPE@@@Z
_TEXT	SEGMENT
_pBuf$ = 8						; size = 4
_type$ = 12						; size = 4
?_BindObjectRefByType@i3SimpleLineLexer@@SAPAV1@PAXW4I3_CLASSMETA_TYPE@@@Z PROC ; i3SimpleLineLexer::_BindObjectRefByType, COMDAT

; 155  : I3_CLASS_INSTANCE( i3SimpleLineLexer, i3ElementBase);

  00000	55		 push	 ebp
  00001	8b ec		 mov	 ebp, esp
  00003	8b 0d 00 00 00
	00		 mov	 ecx, DWORD PTR ?s_pClassMetai3SimpleLineLexer@i3SimpleLineLexer@@2PAVi3ClassMeta@@A ; i3SimpleLineLexer::s_pClassMetai3SimpleLineLexer
  00009	ff 75 0c	 push	 DWORD PTR _type$[ebp]
  0000c	ff 75 08	 push	 DWORD PTR _pBuf$[ebp]
  0000f	8b 01		 mov	 eax, DWORD PTR [ecx]
  00011	ff 50 08	 call	 DWORD PTR [eax+8]
  00014	5d		 pop	 ebp
  00015	c3		 ret	 0
?_BindObjectRefByType@i3SimpleLineLexer@@SAPAV1@PAXW4I3_CLASSMETA_TYPE@@@Z ENDP ; i3SimpleLineLexer::_BindObjectRefByType
_TEXT	ENDS
; Function compile flags: /Ogtp
; File E:\Proyectos\JuegosOnlineproyectos\PB\pbblow\Piercing Blow Remake\i3Server\src\i3Base\i3Lexer.cpp
; File E:\Proyectos\JuegosOnlineproyectos\PB\pbblow\Piercing Blow Remake\i3Server\include\i3Base\i3ElementBase.h
; File E:\Proyectos\JuegosOnlineproyectos\PB\pbblow\Piercing Blow Remake\i3Server\src\i3Base\i3Lexer.cpp
;	COMDAT ?_BindObjectByType@i3SimpleLineLexer@@SAPAV1@PAXW4I3_CLASSMETA_TYPE@@@Z
_TEXT	SEGMENT
_pBuf$ = 8						; size = 4
_type$ = 12						; size = 4
?_BindObjectByType@i3SimpleLineLexer@@SAPAV1@PAXW4I3_CLASSMETA_TYPE@@@Z PROC ; i3SimpleLineLexer::_BindObjectByType, COMDAT

; 155  : I3_CLASS_INSTANCE( i3SimpleLineLexer, i3ElementBase);

  00000	55		 push	 ebp
  00001	8b ec		 mov	 ebp, esp
  00003	8b 0d 00 00 00
	00		 mov	 ecx, DWORD PTR ?s_pClassMetai3SimpleLineLexer@i3SimpleLineLexer@@2PAVi3ClassMeta@@A ; i3SimpleLineLexer::s_pClassMetai3SimpleLineLexer
  00009	ff 75 0c	 push	 DWORD PTR _type$[ebp]
  0000c	ff 75 08	 push	 DWORD PTR _pBuf$[ebp]
  0000f	8b 01		 mov	 eax, DWORD PTR [ecx]
  00011	ff 50 08	 call	 DWORD PTR [eax+8]
; File E:\Proyectos\JuegosOnlineproyectos\PB\pbblow\Piercing Blow Remake\i3Server\include\i3Base\i3ElementBase.h

; 392  : 		m_RefCount++;

  00014	ff 40 04	 inc	 DWORD PTR [eax+4]
; File E:\Proyectos\JuegosOnlineproyectos\PB\pbblow\Piercing Blow Remake\i3Server\src\i3Base\i3Lexer.cpp

; 155  : I3_CLASS_INSTANCE( i3SimpleLineLexer, i3ElementBase);

  00017	5d		 pop	 ebp
  00018	c3		 ret	 0
?_BindObjectByType@i3SimpleLineLexer@@SAPAV1@PAXW4I3_CLASSMETA_TYPE@@@Z ENDP ; i3SimpleLineLexer::_BindObjectByType
_TEXT	ENDS
; Function compile flags: /Ogtp
; File E:\Proyectos\JuegosOnlineproyectos\PB\pbblow\Piercing Blow Remake\i3Server\src\i3Base\i3Lexer.cpp
;	COMDAT ?_NewObjectRefByType@i3SimpleLineLexer@@SAPAV1@W4I3_CLASSMETA_TYPE@@@Z
_TEXT	SEGMENT
_type$ = 8						; size = 4
?_NewObjectRefByType@i3SimpleLineLexer@@SAPAV1@W4I3_CLASSMETA_TYPE@@@Z PROC ; i3SimpleLineLexer::_NewObjectRefByType, COMDAT

; 155  : I3_CLASS_INSTANCE( i3SimpleLineLexer, i3ElementBase);

  00000	55		 push	 ebp
  00001	8b ec		 mov	 ebp, esp
  00003	8b 0d 00 00 00
	00		 mov	 ecx, DWORD PTR ?s_pClassMetai3SimpleLineLexer@i3SimpleLineLexer@@2PAVi3ClassMeta@@A ; i3SimpleLineLexer::s_pClassMetai3SimpleLineLexer
  00009	ff 75 08	 push	 DWORD PTR _type$[ebp]
  0000c	8b 01		 mov	 eax, DWORD PTR [ecx]
  0000e	ff 50 04	 call	 DWORD PTR [eax+4]
  00011	5d		 pop	 ebp
  00012	c3		 ret	 0
?_NewObjectRefByType@i3SimpleLineLexer@@SAPAV1@W4I3_CLASSMETA_TYPE@@@Z ENDP ; i3SimpleLineLexer::_NewObjectRefByType
_TEXT	ENDS
; Function compile flags: /Ogtp
; File E:\Proyectos\JuegosOnlineproyectos\PB\pbblow\Piercing Blow Remake\i3Server\src\i3Base\i3Lexer.cpp
; File E:\Proyectos\JuegosOnlineproyectos\PB\pbblow\Piercing Blow Remake\i3Server\include\i3Base\i3ElementBase.h
; File E:\Proyectos\JuegosOnlineproyectos\PB\pbblow\Piercing Blow Remake\i3Server\src\i3Base\i3Lexer.cpp
;	COMDAT ?_NewObjectByType@i3SimpleLineLexer@@SAPAV1@W4I3_CLASSMETA_TYPE@@@Z
_TEXT	SEGMENT
_type$ = 8						; size = 4
?_NewObjectByType@i3SimpleLineLexer@@SAPAV1@W4I3_CLASSMETA_TYPE@@@Z PROC ; i3SimpleLineLexer::_NewObjectByType, COMDAT

; 155  : I3_CLASS_INSTANCE( i3SimpleLineLexer, i3ElementBase);

  00000	55		 push	 ebp
  00001	8b ec		 mov	 ebp, esp
  00003	8b 0d 00 00 00
	00		 mov	 ecx, DWORD PTR ?s_pClassMetai3SimpleLineLexer@i3SimpleLineLexer@@2PAVi3ClassMeta@@A ; i3SimpleLineLexer::s_pClassMetai3SimpleLineLexer
  00009	ff 75 08	 push	 DWORD PTR _type$[ebp]
  0000c	8b 01		 mov	 eax, DWORD PTR [ecx]
  0000e	ff 50 04	 call	 DWORD PTR [eax+4]
; File E:\Proyectos\JuegosOnlineproyectos\PB\pbblow\Piercing Blow Remake\i3Server\include\i3Base\i3ElementBase.h

; 392  : 		m_RefCount++;

  00011	ff 40 04	 inc	 DWORD PTR [eax+4]
; File E:\Proyectos\JuegosOnlineproyectos\PB\pbblow\Piercing Blow Remake\i3Server\src\i3Base\i3Lexer.cpp

; 155  : I3_CLASS_INSTANCE( i3SimpleLineLexer, i3ElementBase);

  00014	5d		 pop	 ebp
  00015	c3		 ret	 0
?_NewObjectByType@i3SimpleLineLexer@@SAPAV1@W4I3_CLASSMETA_TYPE@@@Z ENDP ; i3SimpleLineLexer::_NewObjectByType
_TEXT	ENDS
; Function compile flags: /Ogtp
; File E:\Proyectos\JuegosOnlineproyectos\PB\pbblow\Piercing Blow Remake\i3Server\src\i3Base\i3Lexer.cpp
;	COMDAT ?_BindObjectRef@i3SimpleLineLexer@@SAPAV1@PAX@Z
_TEXT	SEGMENT
_pBuf$ = 8						; size = 4
?_BindObjectRef@i3SimpleLineLexer@@SAPAV1@PAX@Z PROC	; i3SimpleLineLexer::_BindObjectRef, COMDAT

; 155  : I3_CLASS_INSTANCE( i3SimpleLineLexer, i3ElementBase);

  00000	55		 push	 ebp
  00001	8b ec		 mov	 ebp, esp
  00003	8b 0d 00 00 00
	00		 mov	 ecx, DWORD PTR ?s_pClassMetai3SimpleLineLexer@i3SimpleLineLexer@@2PAVi3ClassMeta@@A ; i3SimpleLineLexer::s_pClassMetai3SimpleLineLexer
  00009	6a 00		 push	 0
  0000b	ff 75 08	 push	 DWORD PTR _pBuf$[ebp]
  0000e	8b 01		 mov	 eax, DWORD PTR [ecx]
  00010	ff 50 08	 call	 DWORD PTR [eax+8]
  00013	5d		 pop	 ebp
  00014	c3		 ret	 0
?_BindObjectRef@i3SimpleLineLexer@@SAPAV1@PAX@Z ENDP	; i3SimpleLineLexer::_BindObjectRef
_TEXT	ENDS
; Function compile flags: /Ogtp
; File E:\Proyectos\JuegosOnlineproyectos\PB\pbblow\Piercing Blow Remake\i3Server\src\i3Base\i3Lexer.cpp
; File E:\Proyectos\JuegosOnlineproyectos\PB\pbblow\Piercing Blow Remake\i3Server\include\i3Base\i3ElementBase.h
; File E:\Proyectos\JuegosOnlineproyectos\PB\pbblow\Piercing Blow Remake\i3Server\src\i3Base\i3Lexer.cpp
;	COMDAT ?_BindObject@i3SimpleLineLexer@@SAPAV1@PAX@Z
_TEXT	SEGMENT
_pBuf$ = 8						; size = 4
?_BindObject@i3SimpleLineLexer@@SAPAV1@PAX@Z PROC	; i3SimpleLineLexer::_BindObject, COMDAT

; 155  : I3_CLASS_INSTANCE( i3SimpleLineLexer, i3ElementBase);

  00000	55		 push	 ebp
  00001	8b ec		 mov	 ebp, esp
  00003	8b 0d 00 00 00
	00		 mov	 ecx, DWORD PTR ?s_pClassMetai3SimpleLineLexer@i3SimpleLineLexer@@2PAVi3ClassMeta@@A ; i3SimpleLineLexer::s_pClassMetai3SimpleLineLexer
  00009	6a 00		 push	 0
  0000b	ff 75 08	 push	 DWORD PTR _pBuf$[ebp]
  0000e	8b 01		 mov	 eax, DWORD PTR [ecx]
  00010	ff 50 08	 call	 DWORD PTR [eax+8]
; File E:\Proyectos\JuegosOnlineproyectos\PB\pbblow\Piercing Blow Remake\i3Server\include\i3Base\i3ElementBase.h

; 392  : 		m_RefCount++;

  00013	ff 40 04	 inc	 DWORD PTR [eax+4]
; File E:\Proyectos\JuegosOnlineproyectos\PB\pbblow\Piercing Blow Remake\i3Server\src\i3Base\i3Lexer.cpp

; 155  : I3_CLASS_INSTANCE( i3SimpleLineLexer, i3ElementBase);

  00016	5d		 pop	 ebp
  00017	c3		 ret	 0
?_BindObject@i3SimpleLineLexer@@SAPAV1@PAX@Z ENDP	; i3SimpleLineLexer::_BindObject
_TEXT	ENDS
; Function compile flags: /Ogtp
; File E:\Proyectos\JuegosOnlineproyectos\PB\pbblow\Piercing Blow Remake\i3Server\src\i3Base\i3Lexer.cpp
;	COMDAT ?_NewObjectRef@i3SimpleLineLexer@@SAPAV1@XZ
_TEXT	SEGMENT
?_NewObjectRef@i3SimpleLineLexer@@SAPAV1@XZ PROC	; i3SimpleLineLexer::_NewObjectRef, COMDAT

; 155  : I3_CLASS_INSTANCE( i3SimpleLineLexer, i3ElementBase);

  00000	8b 0d 00 00 00
	00		 mov	 ecx, DWORD PTR ?s_pClassMetai3SimpleLineLexer@i3SimpleLineLexer@@2PAVi3ClassMeta@@A ; i3SimpleLineLexer::s_pClassMetai3SimpleLineLexer
  00006	6a 00		 push	 0
  00008	8b 01		 mov	 eax, DWORD PTR [ecx]
  0000a	ff 50 04	 call	 DWORD PTR [eax+4]
  0000d	c3		 ret	 0
?_NewObjectRef@i3SimpleLineLexer@@SAPAV1@XZ ENDP	; i3SimpleLineLexer::_NewObjectRef
_TEXT	ENDS
; Function compile flags: /Ogtp
; File E:\Proyectos\JuegosOnlineproyectos\PB\pbblow\Piercing Blow Remake\i3Server\src\i3Base\i3Lexer.cpp
; File E:\Proyectos\JuegosOnlineproyectos\PB\pbblow\Piercing Blow Remake\i3Server\include\i3Base\i3ElementBase.h
; File E:\Proyectos\JuegosOnlineproyectos\PB\pbblow\Piercing Blow Remake\i3Server\src\i3Base\i3Lexer.cpp
;	COMDAT ?_NewObject@i3SimpleLineLexer@@SAPAV1@XZ
_TEXT	SEGMENT
?_NewObject@i3SimpleLineLexer@@SAPAV1@XZ PROC		; i3SimpleLineLexer::_NewObject, COMDAT

; 155  : I3_CLASS_INSTANCE( i3SimpleLineLexer, i3ElementBase);

  00000	8b 0d 00 00 00
	00		 mov	 ecx, DWORD PTR ?s_pClassMetai3SimpleLineLexer@i3SimpleLineLexer@@2PAVi3ClassMeta@@A ; i3SimpleLineLexer::s_pClassMetai3SimpleLineLexer
  00006	6a 00		 push	 0
  00008	8b 01		 mov	 eax, DWORD PTR [ecx]
  0000a	ff 50 04	 call	 DWORD PTR [eax+4]
; File E:\Proyectos\JuegosOnlineproyectos\PB\pbblow\Piercing Blow Remake\i3Server\include\i3Base\i3ElementBase.h

; 392  : 		m_RefCount++;

  0000d	ff 40 04	 inc	 DWORD PTR [eax+4]
; File E:\Proyectos\JuegosOnlineproyectos\PB\pbblow\Piercing Blow Remake\i3Server\src\i3Base\i3Lexer.cpp

; 155  : I3_CLASS_INSTANCE( i3SimpleLineLexer, i3ElementBase);

  00010	c3		 ret	 0
?_NewObject@i3SimpleLineLexer@@SAPAV1@XZ ENDP		; i3SimpleLineLexer::_NewObject
_TEXT	ENDS
; Function compile flags: /Ogtp
; File E:\Proyectos\JuegosOnlineproyectos\PB\pbblow\Piercing Blow Remake\i3Server\src\i3Base\i3Lexer.cpp
;	COMDAT ?SetGhostClass@i3SimpleLineLexer@@SAXPAVi3ClassMeta@@@Z
_TEXT	SEGMENT
_pMeta$ = 8						; size = 4
?SetGhostClass@i3SimpleLineLexer@@SAXPAVi3ClassMeta@@@Z PROC ; i3SimpleLineLexer::SetGhostClass, COMDAT

; 155  : I3_CLASS_INSTANCE( i3SimpleLineLexer, i3ElementBase);

  00000	55		 push	 ebp
  00001	8b ec		 mov	 ebp, esp
  00003	ff 75 08	 push	 DWORD PTR _pMeta$[ebp]
  00006	8b 0d 00 00 00
	00		 mov	 ecx, DWORD PTR ?s_pClassMetai3SimpleLineLexer@i3SimpleLineLexer@@2PAVi3ClassMeta@@A ; i3SimpleLineLexer::s_pClassMetai3SimpleLineLexer
  0000c	e8 00 00 00 00	 call	 ?SetGhostClass@i3ClassMeta@@QAEXPAV1@@Z ; i3ClassMeta::SetGhostClass
  00011	5d		 pop	 ebp
  00012	c3		 ret	 0
?SetGhostClass@i3SimpleLineLexer@@SAXPAVi3ClassMeta@@@Z ENDP ; i3SimpleLineLexer::SetGhostClass
_TEXT	ENDS
; Function compile flags: /Ogtp
; File E:\Proyectos\JuegosOnlineproyectos\PB\pbblow\Piercing Blow Remake\i3Server\src\i3Base\i3Lexer.cpp
;	COMDAT ?SetConcreteClass@i3SimpleLineLexer@@SAXPAVi3ClassMeta@@@Z
_TEXT	SEGMENT
_pMeta$ = 8						; size = 4
?SetConcreteClass@i3SimpleLineLexer@@SAXPAVi3ClassMeta@@@Z PROC ; i3SimpleLineLexer::SetConcreteClass, COMDAT

; 155  : I3_CLASS_INSTANCE( i3SimpleLineLexer, i3ElementBase);

  00000	55		 push	 ebp
  00001	8b ec		 mov	 ebp, esp
  00003	ff 75 08	 push	 DWORD PTR _pMeta$[ebp]
  00006	8b 0d 00 00 00
	00		 mov	 ecx, DWORD PTR ?s_pClassMetai3SimpleLineLexer@i3SimpleLineLexer@@2PAVi3ClassMeta@@A ; i3SimpleLineLexer::s_pClassMetai3SimpleLineLexer
  0000c	e8 00 00 00 00	 call	 ?SetConcreteClass@i3ClassMeta@@QAEXPAV1@@Z ; i3ClassMeta::SetConcreteClass
  00011	5d		 pop	 ebp
  00012	c3		 ret	 0
?SetConcreteClass@i3SimpleLineLexer@@SAXPAVi3ClassMeta@@@Z ENDP ; i3SimpleLineLexer::SetConcreteClass
_TEXT	ENDS
; Function compile flags: /Ogtp
; File E:\Proyectos\JuegosOnlineproyectos\PB\pbblow\Piercing Blow Remake\i3Server\src\i3Base\i3Lexer.cpp
;	COMDAT ?RegisterMeta@i3SimpleLineLexer@@SAXXZ
_TEXT	SEGMENT
?RegisterMeta@i3SimpleLineLexer@@SAXXZ PROC		; i3SimpleLineLexer::RegisterMeta, COMDAT

; 155  : I3_CLASS_INSTANCE( i3SimpleLineLexer, i3ElementBase);

  00000	8b 0d 00 00 00
	00		 mov	 ecx, DWORD PTR ?s_pClassMetai3SimpleLineLexer@i3SimpleLineLexer@@2PAVi3ClassMeta@@A ; i3SimpleLineLexer::s_pClassMetai3SimpleLineLexer
  00006	e9 00 00 00 00	 jmp	 ?Register@i3ClassMeta@@QAEXXZ ; i3ClassMeta::Register
?RegisterMeta@i3SimpleLineLexer@@SAXXZ ENDP		; i3SimpleLineLexer::RegisterMeta
_TEXT	ENDS
; Function compile flags: /Ogtp
; File E:\Proyectos\JuegosOnlineproyectos\PB\pbblow\Piercing Blow Remake\i3Server\src\i3Base\i3Lexer.cpp
;	COMDAT ?GetMeta@i3SimpleLineLexer@@UAEPAVi3ClassMeta@@XZ
_TEXT	SEGMENT
?GetMeta@i3SimpleLineLexer@@UAEPAVi3ClassMeta@@XZ PROC	; i3SimpleLineLexer::GetMeta, COMDAT
; _this$ = ecx

; 155  : I3_CLASS_INSTANCE( i3SimpleLineLexer, i3ElementBase);

  00000	a1 00 00 00 00	 mov	 eax, DWORD PTR ?s_pClassMetai3SimpleLineLexer@i3SimpleLineLexer@@2PAVi3ClassMeta@@A ; i3SimpleLineLexer::s_pClassMetai3SimpleLineLexer
  00005	c3		 ret	 0
?GetMeta@i3SimpleLineLexer@@UAEPAVi3ClassMeta@@XZ ENDP	; i3SimpleLineLexer::GetMeta
_TEXT	ENDS
; Function compile flags: /Ogtp
; File E:\Proyectos\JuegosOnlineproyectos\PB\pbblow\Piercing Blow Remake\i3Server\include\i3Base\i3Lexer.h
;	COMDAT ?GetClassMeta@i3SimpleLineLexer@@SAPAVi3ClassMeta@@XZ
_TEXT	SEGMENT
?GetClassMeta@i3SimpleLineLexer@@SAPAVi3ClassMeta@@XZ PROC ; i3SimpleLineLexer::GetClassMeta, COMDAT

; 34   : 	I3_CLASS_DEFINE( i3SimpleLineLexer);

  00000	a1 00 00 00 00	 mov	 eax, DWORD PTR ?s_pClassMetai3SimpleLineLexer@i3SimpleLineLexer@@2PAVi3ClassMeta@@A ; i3SimpleLineLexer::s_pClassMetai3SimpleLineLexer
  00005	c3		 ret	 0
?GetClassMeta@i3SimpleLineLexer@@SAPAVi3ClassMeta@@XZ ENDP ; i3SimpleLineLexer::GetClassMeta
_TEXT	ENDS
; Function compile flags: /Ogtp
; File E:\Proyectos\JuegosOnlineproyectos\PB\pbblow\Piercing Blow Remake\i3Server\src\i3Base\i3Lexer.cpp
;	COMDAT ??_Ei3LineLexer@@UAEPAXI@Z
_TEXT	SEGMENT
__$EHRec$ = -12						; size = 12
___flags$ = 8						; size = 4
??_Ei3LineLexer@@UAEPAXI@Z PROC				; i3LineLexer::`vector deleting destructor', COMDAT
; _this$ = ecx
  00000	55		 push	 ebp
  00001	8b ec		 mov	 ebp, esp
  00003	6a ff		 push	 -1
  00005	68 00 00 00 00	 push	 __ehhandler$??_Ei3LineLexer@@UAEPAXI@Z
  0000a	64 a1 00 00 00
	00		 mov	 eax, DWORD PTR fs:0
  00010	50		 push	 eax
  00011	53		 push	 ebx
  00012	56		 push	 esi
  00013	57		 push	 edi
  00014	a1 00 00 00 00	 mov	 eax, DWORD PTR ___security_cookie
  00019	33 c5		 xor	 eax, ebp
  0001b	50		 push	 eax
  0001c	8d 45 f4	 lea	 eax, DWORD PTR __$EHRec$[ebp]
  0001f	64 a3 00 00 00
	00		 mov	 DWORD PTR fs:0, eax
  00025	8b f1		 mov	 esi, ecx
  00027	8b 5d 08	 mov	 ebx, DWORD PTR ___flags$[ebp]
  0002a	8b fb		 mov	 edi, ebx
  0002c	83 e7 01	 and	 edi, 1
  0002f	f6 c3 02	 test	 bl, 2
  00032	74 43		 je	 SHORT $LN2@vector
  00034	68 00 00 00 00	 push	 OFFSET ??1i3LineLexer@@UAE@XZ ; i3LineLexer::~i3LineLexer
  00039	ff 76 fc	 push	 DWORD PTR [esi-4]
  0003c	8d 5e fc	 lea	 ebx, DWORD PTR [esi-4]
  0003f	68 18 01 00 00	 push	 280			; 00000118H
  00044	56		 push	 esi
  00045	e8 00 00 00 00	 call	 ??_M@YGXPAXIIP6EX0@Z@Z
  0004a	85 ff		 test	 edi, edi
  0004c	74 13		 je	 SHORT $LN3@vector
  0004e	69 0b 18 01 00
	00		 imul	 ecx, DWORD PTR [ebx], 280
  00054	83 c1 04	 add	 ecx, 4
  00057	51		 push	 ecx
  00058	53		 push	 ebx
  00059	e8 00 00 00 00	 call	 ??_V@YAXPAXI@Z		; operator delete[]
  0005e	83 c4 08	 add	 esp, 8
$LN3@vector:
  00061	8b c3		 mov	 eax, ebx
  00063	8b 4d f4	 mov	 ecx, DWORD PTR __$EHRec$[ebp]
  00066	64 89 0d 00 00
	00 00		 mov	 DWORD PTR fs:0, ecx
  0006d	59		 pop	 ecx
  0006e	5f		 pop	 edi
  0006f	5e		 pop	 esi
  00070	5b		 pop	 ebx
  00071	8b e5		 mov	 esp, ebp
  00073	5d		 pop	 ebp
  00074	c2 04 00	 ret	 4
$LN2@vector:

; 18   : {

  00077	c7 06 00 00 00
	00		 mov	 DWORD PTR [esi], OFFSET ??_7i3LineLexer@@6B@

; 19   : }

  0007d	e8 00 00 00 00	 call	 ??1i3ElementBase@@UAE@XZ ; i3ElementBase::~i3ElementBase
  00082	85 ff		 test	 edi, edi
  00084	74 1e		 je	 SHORT $LN6@vector
  00086	f6 c3 04	 test	 bl, 4
  00089	75 0b		 jne	 SHORT $LN5@vector
  0008b	56		 push	 esi
  0008c	e8 00 00 00 00	 call	 ??3i3ElementBase@@SAXPAX@Z ; i3ElementBase::operator delete
  00091	83 c4 04	 add	 esp, 4
  00094	eb 0e		 jmp	 SHORT $LN6@vector
$LN5@vector:

  00096	68 18 01 00 00	 push	 280			; 00000118H
  0009b	56		 push	 esi
  0009c	e8 00 00 00 00	 call	 ??3@YAXPAXI@Z		; operator delete
  000a1	83 c4 08	 add	 esp, 8
$LN6@vector:
  000a4	8b c6		 mov	 eax, esi
  000a6	8b 4d f4	 mov	 ecx, DWORD PTR __$EHRec$[ebp]
  000a9	64 89 0d 00 00
	00 00		 mov	 DWORD PTR fs:0, ecx
  000b0	59		 pop	 ecx
  000b1	5f		 pop	 edi
  000b2	5e		 pop	 esi
  000b3	5b		 pop	 ebx
  000b4	8b e5		 mov	 esp, ebp
  000b6	5d		 pop	 ebp
  000b7	c2 04 00	 ret	 4
  000ba	cc		 int	 3
  000bb	cc		 int	 3
  000bc	cc		 int	 3
  000bd	cc		 int	 3
  000be	cc		 int	 3
_TEXT	ENDS
;	COMDAT text$x
text$x	SEGMENT
__ehhandler$??_Ei3LineLexer@@UAEPAXI@Z:
  00000	90		 npad	 1
  00001	90		 npad	 1
  00002	8b 54 24 08	 mov	 edx, DWORD PTR [esp+8]
  00006	8d 42 0c	 lea	 eax, DWORD PTR [edx+12]
  00009	8b 4a f0	 mov	 ecx, DWORD PTR [edx-16]
  0000c	33 c8		 xor	 ecx, eax
  0000e	e8 00 00 00 00	 call	 @__security_check_cookie@4
  00013	b8 00 00 00 00	 mov	 eax, OFFSET __ehfuncinfo$??_Ei3LineLexer@@UAEPAXI@Z
  00018	e9 00 00 00 00	 jmp	 ___CxxFrameHandler3
text$x	ENDS
??_Ei3LineLexer@@UAEPAXI@Z ENDP				; i3LineLexer::`vector deleting destructor'
; Function compile flags: /Ogtp
; File E:\Proyectos\JuegosOnlineproyectos\PB\pbblow\Piercing Blow Remake\i3Server\src\i3Base\i3Lexer.cpp
;	COMDAT ??_Gi3LineLexer@@UAEPAXI@Z
_TEXT	SEGMENT
___flags$ = 8						; size = 4
??_Gi3LineLexer@@UAEPAXI@Z PROC				; i3LineLexer::`scalar deleting destructor', COMDAT
; _this$ = ecx
  00000	55		 push	 ebp
  00001	8b ec		 mov	 ebp, esp

; 18   : {

  00003	56		 push	 esi
  00004	8b f1		 mov	 esi, ecx
  00006	c7 06 00 00 00
	00		 mov	 DWORD PTR [esi], OFFSET ??_7i3LineLexer@@6B@

; 19   : }

  0000c	e8 00 00 00 00	 call	 ??1i3ElementBase@@UAE@XZ ; i3ElementBase::~i3ElementBase
  00011	8b 45 08	 mov	 eax, DWORD PTR ___flags$[ebp]
  00014	a8 01		 test	 al, 1
  00016	74 22		 je	 SHORT $LN15@scalar
  00018	a8 04		 test	 al, 4
  0001a	75 10		 jne	 SHORT $LN3@scalar
  0001c	56		 push	 esi
  0001d	e8 00 00 00 00	 call	 ??3i3ElementBase@@SAXPAX@Z ; i3ElementBase::operator delete
  00022	83 c4 04	 add	 esp, 4
  00025	8b c6		 mov	 eax, esi
  00027	5e		 pop	 esi
  00028	5d		 pop	 ebp
  00029	c2 04 00	 ret	 4
$LN3@scalar:

  0002c	68 18 01 00 00	 push	 280			; 00000118H
  00031	56		 push	 esi
  00032	e8 00 00 00 00	 call	 ??3@YAXPAXI@Z		; operator delete
  00037	83 c4 08	 add	 esp, 8
$LN15@scalar:
  0003a	8b c6		 mov	 eax, esi
  0003c	5e		 pop	 esi
  0003d	5d		 pop	 ebp
  0003e	c2 04 00	 ret	 4
??_Gi3LineLexer@@UAEPAXI@Z ENDP				; i3LineLexer::`scalar deleting destructor'
_TEXT	ENDS
; Function compile flags: /Ogtp
;	COMDAT ??4i3LineLexer@@QAEAAV0@ABV0@@Z
_TEXT	SEGMENT
___that$ = 8						; size = 4
??4i3LineLexer@@QAEAAV0@ABV0@@Z PROC			; i3LineLexer::operator=, COMDAT
; _this$ = ecx
  00000	55		 push	 ebp
  00001	8b ec		 mov	 ebp, esp
  00003	8b d1		 mov	 edx, ecx
  00005	56		 push	 esi
  00006	8b 75 08	 mov	 esi, DWORD PTR ___that$[ebp]
  00009	8b 46 04	 mov	 eax, DWORD PTR [esi+4]
  0000c	89 42 04	 mov	 DWORD PTR [edx+4], eax
  0000f	8b 46 08	 mov	 eax, DWORD PTR [esi+8]
  00012	89 42 08	 mov	 DWORD PTR [edx+8], eax
  00015	8b 46 0c	 mov	 eax, DWORD PTR [esi+12]
  00018	89 42 0c	 mov	 DWORD PTR [edx+12], eax
  0001b	8b 46 10	 mov	 eax, DWORD PTR [esi+16]
  0001e	89 42 10	 mov	 DWORD PTR [edx+16], eax
  00021	8b 46 14	 mov	 eax, DWORD PTR [esi+20]
  00024	89 42 14	 mov	 DWORD PTR [edx+20], eax
  00027	33 c0		 xor	 eax, eax
  00029	8d a4 24 00 00
	00 00		 npad	 7
$LL4@operator:
  00030	8a 4c 06 18	 mov	 cl, BYTE PTR [esi+eax+24]
  00034	88 4c 02 18	 mov	 BYTE PTR [edx+eax+24], cl
  00038	40		 inc	 eax
  00039	3d 00 01 00 00	 cmp	 eax, 256		; 00000100H
  0003e	72 f0		 jb	 SHORT $LL4@operator
  00040	5e		 pop	 esi
  00041	8b c2		 mov	 eax, edx
  00043	5d		 pop	 ebp
  00044	c2 04 00	 ret	 4
??4i3LineLexer@@QAEAAV0@ABV0@@Z ENDP			; i3LineLexer::operator=
_TEXT	ENDS
; Function compile flags: /Ogtp
;	COMDAT ??0i3LineLexer@@QAE@ABV0@@Z
_TEXT	SEGMENT
___that$ = 8						; size = 4
??0i3LineLexer@@QAE@ABV0@@Z PROC			; i3LineLexer::i3LineLexer, COMDAT
; _this$ = ecx
  00000	55		 push	 ebp
  00001	8b ec		 mov	 ebp, esp
  00003	8b d1		 mov	 edx, ecx
  00005	b9 40 00 00 00	 mov	 ecx, 64			; 00000040H
  0000a	56		 push	 esi
  0000b	8b 75 08	 mov	 esi, DWORD PTR ___that$[ebp]
  0000e	57		 push	 edi
  0000f	c7 02 00 00 00
	00		 mov	 DWORD PTR [edx], OFFSET ??_7i3ElementBase@@6B@
  00015	8d 7a 18	 lea	 edi, DWORD PTR [edx+24]
  00018	8b 46 04	 mov	 eax, DWORD PTR [esi+4]
  0001b	89 42 04	 mov	 DWORD PTR [edx+4], eax
  0001e	8b 46 08	 mov	 eax, DWORD PTR [esi+8]
  00021	89 42 08	 mov	 DWORD PTR [edx+8], eax
  00024	8b 46 0c	 mov	 eax, DWORD PTR [esi+12]
  00027	89 42 0c	 mov	 DWORD PTR [edx+12], eax
  0002a	c7 02 00 00 00
	00		 mov	 DWORD PTR [edx], OFFSET ??_7i3LineLexer@@6B@
  00030	8b 46 10	 mov	 eax, DWORD PTR [esi+16]
  00033	89 42 10	 mov	 DWORD PTR [edx+16], eax
  00036	8b 46 14	 mov	 eax, DWORD PTR [esi+20]
  00039	83 c6 18	 add	 esi, 24			; 00000018H
  0003c	89 42 14	 mov	 DWORD PTR [edx+20], eax
  0003f	8b c2		 mov	 eax, edx
  00041	f3 a5		 rep movsd
  00043	5f		 pop	 edi
  00044	5e		 pop	 esi
  00045	5d		 pop	 ebp
  00046	c2 04 00	 ret	 4
??0i3LineLexer@@QAE@ABV0@@Z ENDP			; i3LineLexer::i3LineLexer
_TEXT	ENDS
; Function compile flags: /Ogtp
; File E:\Proyectos\JuegosOnlineproyectos\PB\pbblow\Piercing Blow Remake\i3Server\src\i3Base\i3Lexer.cpp
;	COMDAT ?GetNextTokenWithoutWhite@i3LineLexer@@QAEHPAD0@Z
_TEXT	SEGMENT
_Count$1$ = -4						; size = 4
_Buf$ = 8						; size = 4
_Seperator$ = 12					; size = 4
?GetNextTokenWithoutWhite@i3LineLexer@@QAEHPAD0@Z PROC	; i3LineLexer::GetNextTokenWithoutWhite, COMDAT
; _this$ = ecx

; 126  : {

  00000	55		 push	 ebp
  00001	8b ec		 mov	 ebp, esp
  00003	51		 push	 ecx
  00004	56		 push	 esi
  00005	8b f1		 mov	 esi, ecx

; 127  : 	INT32 Count = 0;

  00007	c7 45 fc 00 00
	00 00		 mov	 DWORD PTR _Count$1$[ebp], 0
  0000e	57		 push	 edi

; 128  : 
; 129  : 	// Skip white space
; 130  : 	while((*m_pszCur) && (IsWhiteCode( *m_pszCur) == true)) {

  0000f	8b 56 14	 mov	 edx, DWORD PTR [esi+20]
  00012	80 3a 00	 cmp	 BYTE PTR [edx], 0
  00015	74 26		 je	 SHORT $LN40@GetNextTok
$LL2@GetNextTok:

; 37   : 	while( *pTemp) {

  00017	8a 46 18	 mov	 al, BYTE PTR [esi+24]
  0001a	8d 4e 18	 lea	 ecx, DWORD PTR [esi+24]
  0001d	84 c0		 test	 al, al
  0001f	74 1c		 je	 SHORT $LN40@GetNextTok

; 38   : 		if( *pTemp == Code)

  00021	8a 12		 mov	 dl, BYTE PTR [edx]
$LL9@GetNextTok:
  00023	3a c2		 cmp	 al, dl
  00025	74 0a		 je	 SHORT $LN22@GetNextTok

; 39   : 			return true;
; 40   : 
; 41   : 		pTemp++;

  00027	8a 41 01	 mov	 al, BYTE PTR [ecx+1]
  0002a	41		 inc	 ecx
  0002b	84 c0		 test	 al, al
  0002d	75 f4		 jne	 SHORT $LL9@GetNextTok

; 28   : 	}
; 29   : 
; 30   : 	return false;
; 31   : }
; 32   : 
; 33   : bool i3LineLexer::IsWhiteCode( char Code)
; 34   : {
; 35   : 	char *pTemp = m_WhiteCodes;
; 36   : 
; 37   : 	while( *pTemp) {

  0002f	eb 0c		 jmp	 SHORT $LN40@GetNextTok
$LN22@GetNextTok:

; 131  : 		m_pszCur++;

  00031	8b 56 14	 mov	 edx, DWORD PTR [esi+20]
  00034	42		 inc	 edx
  00035	89 56 14	 mov	 DWORD PTR [esi+20], edx
  00038	80 3a 00	 cmp	 BYTE PTR [edx], 0
  0003b	75 da		 jne	 SHORT $LL2@GetNextTok
$LN40@GetNextTok:

; 132  : 	}
; 133  : 
; 134  : 	if( *m_pszCur == 0)

  0003d	8b 46 14	 mov	 eax, DWORD PTR [esi+20]
  00040	80 38 00	 cmp	 BYTE PTR [eax], 0
  00043	75 0a		 jne	 SHORT $LN6@GetNextTok

; 135  : 		return 0;

  00045	5f		 pop	 edi
  00046	33 c0		 xor	 eax, eax

; 150  : }

  00048	5e		 pop	 esi
  00049	8b e5		 mov	 esp, ebp
  0004b	5d		 pop	 ebp
  0004c	c2 08 00	 ret	 8
$LN6@GetNextTok:
  0004f	53		 push	 ebx

; 136  : 
; 137  : 	sprintf( (PSTR)m_WhiteCodes, (PSTR)"%s",Seperator);

  00050	ff 75 0c	 push	 DWORD PTR _Seperator$[ebp]
  00053	8d 5e 18	 lea	 ebx, DWORD PTR [esi+24]
  00056	68 00 00 00 00	 push	 OFFSET ??_C@_02DKCKIIND@?$CFs@
  0005b	53		 push	 ebx
  0005c	e8 00 00 00 00	 call	 _sprintf

; 138  : 	while(( *m_pszCur != 0) && (IsSeparator( *m_pszCur, m_WhiteCodes) == false)) 

  00061	8b 56 14	 mov	 edx, DWORD PTR [esi+20]
  00064	83 c4 0c	 add	 esp, 12			; 0000000cH
  00067	8b 7d 08	 mov	 edi, DWORD PTR _Buf$[ebp]
  0006a	80 3a 00	 cmp	 BYTE PTR [edx], 0
  0006d	74 44		 je	 SHORT $LN39@GetNextTok
  0006f	90		 npad	 1
$LL4@GetNextTok:
  00070	8b cb		 mov	 ecx, ebx

; 23   : 	while(*SepArr != 0) {

  00072	8a 01		 mov	 al, BYTE PTR [ecx]
  00074	84 c0		 test	 al, al
  00076	74 14		 je	 SHORT $LN15@GetNextTok

; 24   : 		if( *SepArr == Code)

  00078	8a 12		 mov	 dl, BYTE PTR [edx]
  0007a	8d 9b 00 00 00
	00		 npad	 6
$LL14@GetNextTok:
  00080	3a c2		 cmp	 al, dl
  00082	74 3c		 je	 SHORT $LN41@GetNextTok

; 25   : 			return true;
; 26   : 
; 27   : 		SepArr++;

  00084	8a 41 01	 mov	 al, BYTE PTR [ecx+1]
  00087	41		 inc	 ecx
  00088	84 c0		 test	 al, al
  0008a	75 f4		 jne	 SHORT $LL14@GetNextTok
$LN15@GetNextTok:

; 139  : 	{
; 140  : 		*Buf = *m_pszCur;

  0008c	8b 46 14	 mov	 eax, DWORD PTR [esi+20]
  0008f	8a 00		 mov	 al, BYTE PTR [eax]
  00091	88 07		 mov	 BYTE PTR [edi], al

; 141  : 
; 142  : 		Buf++;

  00093	47		 inc	 edi

; 143  : 		m_pszCur++;

  00094	8b 56 14	 mov	 edx, DWORD PTR [esi+20]

; 144  : 		Count++;

  00097	8b 45 fc	 mov	 eax, DWORD PTR _Count$1$[ebp]
  0009a	42		 inc	 edx
  0009b	40		 inc	 eax
  0009c	89 56 14	 mov	 DWORD PTR [esi+20], edx
  0009f	89 45 fc	 mov	 DWORD PTR _Count$1$[ebp], eax
  000a2	80 3a 00	 cmp	 BYTE PTR [edx], 0
  000a5	75 c9		 jne	 SHORT $LL4@GetNextTok

; 145  : 	}
; 146  : 
; 147  : 	*Buf = 0;
; 148  : 
; 149  : 	return Count;

  000a7	5b		 pop	 ebx
  000a8	c6 07 00	 mov	 BYTE PTR [edi], 0
  000ab	5f		 pop	 edi

; 150  : }

  000ac	5e		 pop	 esi
  000ad	8b e5		 mov	 esp, ebp
  000af	5d		 pop	 ebp
  000b0	c2 08 00	 ret	 8
$LN39@GetNextTok:

; 138  : 	while(( *m_pszCur != 0) && (IsSeparator( *m_pszCur, m_WhiteCodes) == false)) 

  000b3	33 c0		 xor	 eax, eax

; 145  : 	}
; 146  : 
; 147  : 	*Buf = 0;
; 148  : 
; 149  : 	return Count;

  000b5	5b		 pop	 ebx
  000b6	88 07		 mov	 BYTE PTR [edi], al
  000b8	5f		 pop	 edi

; 150  : }

  000b9	5e		 pop	 esi
  000ba	8b e5		 mov	 esp, ebp
  000bc	5d		 pop	 ebp
  000bd	c2 08 00	 ret	 8
$LN41@GetNextTok:

; 24   : 		if( *SepArr == Code)

  000c0	8b 45 fc	 mov	 eax, DWORD PTR _Count$1$[ebp]

; 145  : 	}
; 146  : 
; 147  : 	*Buf = 0;
; 148  : 
; 149  : 	return Count;

  000c3	5b		 pop	 ebx
  000c4	c6 07 00	 mov	 BYTE PTR [edi], 0
  000c7	5f		 pop	 edi

; 150  : }

  000c8	5e		 pop	 esi
  000c9	8b e5		 mov	 esp, ebp
  000cb	5d		 pop	 ebp
  000cc	c2 08 00	 ret	 8
?GetNextTokenWithoutWhite@i3LineLexer@@QAEHPAD0@Z ENDP	; i3LineLexer::GetNextTokenWithoutWhite
_TEXT	ENDS
; Function compile flags: /Ogtp
; File E:\Proyectos\JuegosOnlineproyectos\PB\pbblow\Piercing Blow Remake\i3Server\src\i3Base\i3Lexer.cpp
;	COMDAT ?GetNextToken@i3LineLexer@@QAEHPAD00@Z
_TEXT	SEGMENT
_Count$1$ = -4						; size = 4
_Buf$ = 8						; size = 4
_pchSep$ = 12						; size = 4
_Seperator$ = 16					; size = 4
?GetNextToken@i3LineLexer@@QAEHPAD00@Z PROC		; i3LineLexer::GetNextToken, COMDAT
; _this$ = ecx

; 55   : {

  00000	55		 push	 ebp
  00001	8b ec		 mov	 ebp, esp
  00003	51		 push	 ecx
  00004	53		 push	 ebx
  00005	56		 push	 esi
  00006	8b f1		 mov	 esi, ecx

; 56   : 		int Count = 0;

  00008	c7 45 fc 00 00
	00 00		 mov	 DWORD PTR _Count$1$[ebp], 0

; 57   : 	unsigned short code;
; 58   : 
; 59   : 	// Skip white space
; 60   : 	strcpy( m_WhiteCodes, _DefaultWhiteCode);

  0000f	b9 00 00 00 00	 mov	 ecx, OFFSET ?_DefaultWhiteCode@@3PADA
  00014	8d 5e 18	 lea	 ebx, DWORD PTR [esi+24]
  00017	8b d3		 mov	 edx, ebx
  00019	8d a4 24 00 00
	00 00		 npad	 7
$LL16@GetNextTok:
  00020	8a 01		 mov	 al, BYTE PTR [ecx]
  00022	8d 49 01	 lea	 ecx, DWORD PTR [ecx+1]
  00025	88 02		 mov	 BYTE PTR [edx], al
  00027	8d 52 01	 lea	 edx, DWORD PTR [edx+1]
  0002a	84 c0		 test	 al, al
  0002c	75 f2		 jne	 SHORT $LL16@GetNextTok

; 61   : 	while(( *m_pszCur != 0))

  0002e	8b 46 14	 mov	 eax, DWORD PTR [esi+20]
  00031	8a 10		 mov	 dl, BYTE PTR [eax]
  00033	84 d2		 test	 dl, dl
  00035	74 24		 je	 SHORT $LN65@GetNextTok
$LN81@GetNextTok:

; 62   : 	{
; 63   : 		code = *m_pszCur;
; 64   : 
; 65   : 		if( code & 0x80)

  00037	78 22		 js	 SHORT $LN65@GetNextTok

; 35   : 	char *pTemp = m_WhiteCodes;

  00039	8b cb		 mov	 ecx, ebx

; 36   : 
; 37   : 	while( *pTemp) {

  0003b	8a 01		 mov	 al, BYTE PTR [ecx]
  0003d	84 c0		 test	 al, al
  0003f	74 1a		 je	 SHORT $LN65@GetNextTok
$LL18@GetNextTok:

; 38   : 		if( *pTemp == Code)

  00041	3a c2		 cmp	 al, dl
  00043	74 0a		 je	 SHORT $LN38@GetNextTok

; 39   : 			return true;
; 40   : 
; 41   : 		pTemp++;

  00045	8a 41 01	 mov	 al, BYTE PTR [ecx+1]
  00048	41		 inc	 ecx
  00049	84 c0		 test	 al, al
  0004b	75 f4		 jne	 SHORT $LL18@GetNextTok

; 36   : 
; 37   : 	while( *pTemp) {

  0004d	eb 0c		 jmp	 SHORT $LN65@GetNextTok
$LN38@GetNextTok:

; 66   : 		{
; 67   : 			break;
; 68   : 		}
; 69   : 		else
; 70   : 		{
; 71   : 			if( IsWhiteCode( (char )code) != true)
; 72   : 				break;
; 73   : 		}
; 74   : 
; 75   : 		m_pszCur++;

  0004f	ff 46 14	 inc	 DWORD PTR [esi+20]
  00052	8b 46 14	 mov	 eax, DWORD PTR [esi+20]
  00055	8a 10		 mov	 dl, BYTE PTR [eax]
  00057	84 d2		 test	 dl, dl
  00059	75 dc		 jne	 SHORT $LN81@GetNextTok
$LN65@GetNextTok:

; 76   : 	}
; 77   : 
; 78   : 	if( *m_pszCur == 0)

  0005b	8b 46 14	 mov	 eax, DWORD PTR [esi+20]
  0005e	80 38 00	 cmp	 BYTE PTR [eax], 0
  00061	75 11		 jne	 SHORT $LN9@GetNextTok

; 79   : 	{
; 80   : 		*pchSep = 0;

  00063	8b 45 0c	 mov	 eax, DWORD PTR _pchSep$[ebp]
  00066	5e		 pop	 esi

; 123  : }

  00067	5b		 pop	 ebx
  00068	c6 00 00	 mov	 BYTE PTR [eax], 0
  0006b	83 c8 ff	 or	 eax, -1
  0006e	8b e5		 mov	 esp, ebp
  00070	5d		 pop	 ebp
  00071	c2 0c 00	 ret	 12			; 0000000cH
$LN9@GetNextTok:
  00074	57		 push	 edi

; 81   : 		return -1;
; 82   : 	}
; 83   : 
; 84   : 
; 85   : 	sprintf( (PSTR)m_WhiteCodes, (PSTR)"%s%s", _DefaultWhiteCode, Seperator);

  00075	8b 7d 10	 mov	 edi, DWORD PTR _Seperator$[ebp]
  00078	57		 push	 edi
  00079	68 00 00 00 00	 push	 OFFSET ?_DefaultWhiteCode@@3PADA
  0007e	68 00 00 00 00	 push	 OFFSET ??_C@_04HDOCAJNK@?$CFs?$CFs@
  00083	53		 push	 ebx
  00084	e8 00 00 00 00	 call	 _sprintf

; 86   : 	while( *m_pszCur != 0)

  00089	8b 5e 14	 mov	 ebx, DWORD PTR [esi+20]
  0008c	83 c4 10	 add	 esp, 16			; 00000010H
  0008f	8b 55 08	 mov	 edx, DWORD PTR _Buf$[ebp]
  00092	8a 03		 mov	 al, BYTE PTR [ebx]
  00094	84 c0		 test	 al, al
  00096	74 3d		 je	 SHORT $LN41@GetNextTok
$LN82@GetNextTok:

; 87   : 	{
; 88   : 		if( *m_pszCur & 0x80)

  00098	79 0b		 jns	 SHORT $LN10@GetNextTok

; 89   : 		{
; 90   : 			*Buf = *m_pszCur;

  0009a	88 02		 mov	 BYTE PTR [edx], al

; 91   : 
; 92   : 			m_pszCur++;
; 93   : 			Buf++;

  0009c	42		 inc	 edx
  0009d	ff 46 14	 inc	 DWORD PTR [esi+20]

; 94   : 			Count++;

  000a0	ff 45 fc	 inc	 DWORD PTR _Count$1$[ebp]

; 95   : 		}

  000a3	eb 17		 jmp	 SHORT $LN24@GetNextTok
$LN10@GetNextTok:

; 23   : 	while(*SepArr != 0) {

  000a5	8a 07		 mov	 al, BYTE PTR [edi]

; 96   : 		else
; 97   : 		{
; 98   : 			if( IsSeparator( *m_pszCur, Seperator) == true)

  000a7	8b cf		 mov	 ecx, edi

; 23   : 	while(*SepArr != 0) {

  000a9	84 c0		 test	 al, al
  000ab	74 0f		 je	 SHORT $LN24@GetNextTok

; 24   : 		if( *SepArr == Code)

  000ad	8a 1b		 mov	 bl, BYTE PTR [ebx]
  000af	90		 npad	 1
$LL23@GetNextTok:
  000b0	3a c3		 cmp	 al, bl
  000b2	74 21		 je	 SHORT $LN41@GetNextTok

; 25   : 			return true;
; 26   : 
; 27   : 		SepArr++;

  000b4	8a 41 01	 mov	 al, BYTE PTR [ecx+1]
  000b7	41		 inc	 ecx
  000b8	84 c0		 test	 al, al
  000ba	75 f4		 jne	 SHORT $LL23@GetNextTok
$LN24@GetNextTok:

; 99   : 				break;
; 100  : 		}
; 101  : 
; 102  : 		*Buf = *m_pszCur;

  000bc	8b 46 14	 mov	 eax, DWORD PTR [esi+20]

; 103  : 
; 104  : 		Buf++;
; 105  : 		m_pszCur++;
; 106  : 		Count++;

  000bf	ff 45 fc	 inc	 DWORD PTR _Count$1$[ebp]
  000c2	0f b6 00	 movzx	 eax, BYTE PTR [eax]
  000c5	88 02		 mov	 BYTE PTR [edx], al
  000c7	42		 inc	 edx
  000c8	8b 5e 14	 mov	 ebx, DWORD PTR [esi+20]
  000cb	43		 inc	 ebx
  000cc	89 5e 14	 mov	 DWORD PTR [esi+20], ebx
  000cf	8a 03		 mov	 al, BYTE PTR [ebx]
  000d1	84 c0		 test	 al, al
  000d3	75 c3		 jne	 SHORT $LN82@GetNextTok
$LN41@GetNextTok:

; 107  : 	}
; 108  : 
; 109  : 	*Buf = 0;

  000d5	c6 02 00	 mov	 BYTE PTR [edx], 0

; 23   : 	while(*SepArr != 0) {

  000d8	8a 0f		 mov	 cl, BYTE PTR [edi]
  000da	84 c9		 test	 cl, cl
  000dc	74 11		 je	 SHORT $LN13@GetNextTok

; 110  : 
; 111  : 	if( IsSeparator( *m_pszCur, Seperator) == true)

  000de	8b 46 14	 mov	 eax, DWORD PTR [esi+20]

; 24   : 		if( *SepArr == Code)

  000e1	8a 10		 mov	 dl, BYTE PTR [eax]
$LL28@GetNextTok:
  000e3	3a ca		 cmp	 cl, dl
  000e5	74 1a		 je	 SHORT $LN62@GetNextTok

; 25   : 			return true;
; 26   : 
; 27   : 		SepArr++;

  000e7	8a 4f 01	 mov	 cl, BYTE PTR [edi+1]
  000ea	47		 inc	 edi
  000eb	84 c9		 test	 cl, cl
  000ed	75 f4		 jne	 SHORT $LL28@GetNextTok
$LN13@GetNextTok:

; 114  : 		m_pszCur++;
; 115  : 		Count ++;
; 116  : 	}
; 117  : 	else
; 118  : 	{
; 119  : 		*pchSep = 0;

  000ef	8b 4d 0c	 mov	 ecx, DWORD PTR _pchSep$[ebp]
  000f2	8b 45 fc	 mov	 eax, DWORD PTR _Count$1$[ebp]

; 120  : 	}
; 121  : 
; 122  : 	return Count;

  000f5	5f		 pop	 edi
  000f6	5e		 pop	 esi
  000f7	c6 01 00	 mov	 BYTE PTR [ecx], 0

; 123  : }

  000fa	5b		 pop	 ebx
  000fb	8b e5		 mov	 esp, ebp
  000fd	5d		 pop	 ebp
  000fe	c2 0c 00	 ret	 12			; 0000000cH
$LN62@GetNextTok:

; 112  : 	{
; 113  : 		*pchSep = *m_pszCur;

  00101	8b 45 0c	 mov	 eax, DWORD PTR _pchSep$[ebp]

; 120  : 	}
; 121  : 
; 122  : 	return Count;

  00104	5f		 pop	 edi
  00105	88 10		 mov	 BYTE PTR [eax], dl
  00107	ff 46 14	 inc	 DWORD PTR [esi+20]
  0010a	8b 45 fc	 mov	 eax, DWORD PTR _Count$1$[ebp]
  0010d	5e		 pop	 esi
  0010e	40		 inc	 eax

; 123  : }

  0010f	5b		 pop	 ebx
  00110	8b e5		 mov	 esp, ebp
  00112	5d		 pop	 ebp
  00113	c2 0c 00	 ret	 12			; 0000000cH
?GetNextToken@i3LineLexer@@QAEHPAD00@Z ENDP		; i3LineLexer::GetNextToken
_TEXT	ENDS
; Function compile flags: /Ogtp
; File E:\Proyectos\JuegosOnlineproyectos\PB\pbblow\Piercing Blow Remake\i3Server\include\i3Base\i3Lexer.h
;	COMDAT ?getCurrentPosition@i3LineLexer@@QAEPADXZ
_TEXT	SEGMENT
?getCurrentPosition@i3LineLexer@@QAEPADXZ PROC		; i3LineLexer::getCurrentPosition, COMDAT
; _this$ = ecx

; 25   : 	char *	getCurrentPosition(void)			{ return m_pszCur; }

  00000	8b 41 14	 mov	 eax, DWORD PTR [ecx+20]
  00003	c3		 ret	 0
?getCurrentPosition@i3LineLexer@@QAEPADXZ ENDP		; i3LineLexer::getCurrentPosition
_TEXT	ENDS
; Function compile flags: /Ogtp
; File E:\Proyectos\JuegosOnlineproyectos\PB\pbblow\Piercing Blow Remake\i3Server\include\i3Base\i3Lexer.h
;	COMDAT ?GetMasterString@i3LineLexer@@QAEPADXZ
_TEXT	SEGMENT
?GetMasterString@i3LineLexer@@QAEPADXZ PROC		; i3LineLexer::GetMasterString, COMDAT
; _this$ = ecx

; 23   : 	char *	GetMasterString(void)				{ return m_pszMaster; }

  00000	8b 41 10	 mov	 eax, DWORD PTR [ecx+16]
  00003	c3		 ret	 0
?GetMasterString@i3LineLexer@@QAEPADXZ ENDP		; i3LineLexer::GetMasterString
_TEXT	ENDS
; Function compile flags: /Ogtp
; File E:\Proyectos\JuegosOnlineproyectos\PB\pbblow\Piercing Blow Remake\i3Server\src\i3Base\i3Lexer.cpp
;	COMDAT ?SetMasterString@i3LineLexer@@QAEXPAD@Z
_TEXT	SEGMENT
_str$ = 8						; size = 4
?SetMasterString@i3LineLexer@@QAEXPAD@Z PROC		; i3LineLexer::SetMasterString, COMDAT
; _this$ = ecx

; 48   : {

  00000	55		 push	 ebp
  00001	8b ec		 mov	 ebp, esp

; 49   : 	m_pszCur = m_pszMaster = str;

  00003	8b 45 08	 mov	 eax, DWORD PTR _str$[ebp]

; 50   : 
; 51   : 	strcpy( (char *)m_WhiteCodes, (char *)_DefaultWhiteCode);

  00006	ba 00 00 00 00	 mov	 edx, OFFSET ?_DefaultWhiteCode@@3PADA
  0000b	89 41 10	 mov	 DWORD PTR [ecx+16], eax
  0000e	89 41 14	 mov	 DWORD PTR [ecx+20], eax
  00011	8d 41 18	 lea	 eax, DWORD PTR [ecx+24]
$LL3@SetMasterS:
  00014	8a 0a		 mov	 cl, BYTE PTR [edx]
  00016	8d 52 01	 lea	 edx, DWORD PTR [edx+1]
  00019	88 08		 mov	 BYTE PTR [eax], cl
  0001b	8d 40 01	 lea	 eax, DWORD PTR [eax+1]
  0001e	84 c9		 test	 cl, cl
  00020	75 f2		 jne	 SHORT $LL3@SetMasterS

; 52   : }

  00022	5d		 pop	 ebp
  00023	c2 04 00	 ret	 4
?SetMasterString@i3LineLexer@@QAEXPAD@Z ENDP		; i3LineLexer::SetMasterString
_TEXT	ENDS
; Function compile flags: /Ogtp
; File E:\Proyectos\JuegosOnlineproyectos\PB\pbblow\Piercing Blow Remake\i3Server\src\i3Base\i3Lexer.cpp
;	COMDAT ??1i3LineLexer@@UAE@XZ
_TEXT	SEGMENT
??1i3LineLexer@@UAE@XZ PROC				; i3LineLexer::~i3LineLexer, COMDAT
; _this$ = ecx

; 18   : {

  00000	c7 01 00 00 00
	00		 mov	 DWORD PTR [ecx], OFFSET ??_7i3LineLexer@@6B@

; 19   : }

  00006	e9 00 00 00 00	 jmp	 ??1i3ElementBase@@UAE@XZ ; i3ElementBase::~i3ElementBase
??1i3LineLexer@@UAE@XZ ENDP				; i3LineLexer::~i3LineLexer
_TEXT	ENDS
; Function compile flags: /Ogtp
; File E:\Proyectos\JuegosOnlineproyectos\PB\pbblow\Piercing Blow Remake\i3Server\src\i3Base\i3Lexer.cpp
;	COMDAT ??0i3LineLexer@@QAE@XZ
_TEXT	SEGMENT
_this$ = -4						; size = 4
??0i3LineLexer@@QAE@XZ PROC				; i3LineLexer::i3LineLexer, COMDAT
; _this$ = ecx

; 11   : {

  00000	55		 push	 ebp
  00001	8b ec		 mov	 ebp, esp
  00003	51		 push	 ecx
  00004	56		 push	 esi
  00005	8b f1		 mov	 esi, ecx
  00007	89 75 fc	 mov	 DWORD PTR _this$[ebp], esi
  0000a	e8 00 00 00 00	 call	 ??0i3ElementBase@@QAE@XZ ; i3ElementBase::i3ElementBase
  0000f	c7 06 00 00 00
	00		 mov	 DWORD PTR [esi], OFFSET ??_7i3LineLexer@@6B@

; 12   : 	m_pszMaster = NULL;
; 13   : 	m_pszCur = NULL;
; 14   : 	strcpy( (char *)m_WhiteCodes, _DefaultWhiteCode);

  00015	8d 46 18	 lea	 eax, DWORD PTR [esi+24]
  00018	c7 46 10 00 00
	00 00		 mov	 DWORD PTR [esi+16], 0
  0001f	ba 00 00 00 00	 mov	 edx, OFFSET ?_DefaultWhiteCode@@3PADA
  00024	c7 46 14 00 00
	00 00		 mov	 DWORD PTR [esi+20], 0
  0002b	eb 03 8d 49 00	 npad	 5
$LL3@i3LineLexe:
  00030	8a 0a		 mov	 cl, BYTE PTR [edx]
  00032	8d 52 01	 lea	 edx, DWORD PTR [edx+1]
  00035	88 08		 mov	 BYTE PTR [eax], cl
  00037	8d 40 01	 lea	 eax, DWORD PTR [eax+1]
  0003a	84 c9		 test	 cl, cl
  0003c	75 f2		 jne	 SHORT $LL3@i3LineLexe

; 15   : }

  0003e	8b c6		 mov	 eax, esi
  00040	5e		 pop	 esi
  00041	8b e5		 mov	 esp, ebp
  00043	5d		 pop	 ebp
  00044	c3		 ret	 0
??0i3LineLexer@@QAE@XZ ENDP				; i3LineLexer::i3LineLexer
_TEXT	ENDS
; Function compile flags: /Ogtp
; File E:\Proyectos\JuegosOnlineproyectos\PB\pbblow\Piercing Blow Remake\i3Server\src\i3Base\i3Lexer.cpp
;	COMDAT ?IsSeparator@i3LineLexer@@QAE_NDPAD@Z
_TEXT	SEGMENT
_Code$ = 8						; size = 1
_SepArr$ = 12						; size = 4
?IsSeparator@i3LineLexer@@QAE_NDPAD@Z PROC		; i3LineLexer::IsSeparator, COMDAT
; _this$ = ecx

; 22   : {

  00000	55		 push	 ebp
  00001	8b ec		 mov	 ebp, esp

; 23   : 	while(*SepArr != 0) {

  00003	8b 4d 0c	 mov	 ecx, DWORD PTR _SepArr$[ebp]
  00006	8a 01		 mov	 al, BYTE PTR [ecx]
  00008	84 c0		 test	 al, al
  0000a	74 10		 je	 SHORT $LN3@IsSeparato
  0000c	8a 55 08	 mov	 dl, BYTE PTR _Code$[ebp]
  0000f	90		 npad	 1
$LL2@IsSeparato:

; 24   : 		if( *SepArr == Code)

  00010	3a c2		 cmp	 al, dl
  00012	74 0e		 je	 SHORT $LN7@IsSeparato

; 26   : 
; 27   : 		SepArr++;

  00014	8a 41 01	 mov	 al, BYTE PTR [ecx+1]
  00017	41		 inc	 ecx
  00018	84 c0		 test	 al, al
  0001a	75 f4		 jne	 SHORT $LL2@IsSeparato
$LN3@IsSeparato:

; 28   : 	}
; 29   : 
; 30   : 	return false;

  0001c	32 c0		 xor	 al, al

; 31   : }

  0001e	5d		 pop	 ebp
  0001f	c2 08 00	 ret	 8
$LN7@IsSeparato:

; 25   : 			return true;

  00022	b0 01		 mov	 al, 1

; 31   : }

  00024	5d		 pop	 ebp
  00025	c2 08 00	 ret	 8
?IsSeparator@i3LineLexer@@QAE_NDPAD@Z ENDP		; i3LineLexer::IsSeparator
_TEXT	ENDS
; Function compile flags: /Ogtp
; File E:\Proyectos\JuegosOnlineproyectos\PB\pbblow\Piercing Blow Remake\i3Server\src\i3Base\i3Lexer.cpp
;	COMDAT ?IsWhiteCode@i3LineLexer@@QAE_ND@Z
_TEXT	SEGMENT
_Code$ = 8						; size = 1
?IsWhiteCode@i3LineLexer@@QAE_ND@Z PROC			; i3LineLexer::IsWhiteCode, COMDAT
; _this$ = ecx

; 34   : {

  00000	55		 push	 ebp
  00001	8b ec		 mov	 ebp, esp

; 35   : 	char *pTemp = m_WhiteCodes;
; 36   : 
; 37   : 	while( *pTemp) {

  00003	8a 41 18	 mov	 al, BYTE PTR [ecx+24]
  00006	83 c1 18	 add	 ecx, 24			; 00000018H
  00009	84 c0		 test	 al, al
  0000b	74 0f		 je	 SHORT $LN3@IsWhiteCod
  0000d	8a 55 08	 mov	 dl, BYTE PTR _Code$[ebp]
$LL2@IsWhiteCod:

; 38   : 		if( *pTemp == Code)

  00010	3a c2		 cmp	 al, dl
  00012	74 0e		 je	 SHORT $LN7@IsWhiteCod

; 40   : 
; 41   : 		pTemp++;

  00014	8a 41 01	 mov	 al, BYTE PTR [ecx+1]
  00017	41		 inc	 ecx
  00018	84 c0		 test	 al, al
  0001a	75 f4		 jne	 SHORT $LL2@IsWhiteCod
$LN3@IsWhiteCod:

; 42   : 	}
; 43   : 
; 44   : 	return false;

  0001c	32 c0		 xor	 al, al

; 45   : }

  0001e	5d		 pop	 ebp
  0001f	c2 04 00	 ret	 4
$LN7@IsWhiteCod:

; 39   : 			return true;

  00022	b0 01		 mov	 al, 1

; 45   : }

  00024	5d		 pop	 ebp
  00025	c2 04 00	 ret	 4
?IsWhiteCode@i3LineLexer@@QAE_ND@Z ENDP			; i3LineLexer::IsWhiteCode
_TEXT	ENDS
; Function compile flags: /Ogtp
; File E:\Proyectos\JuegosOnlineproyectos\PB\pbblow\Piercing Blow Remake\i3Server\src\i3Base\i3Lexer.cpp
;	COMDAT ?_BindObjectRefByType@i3LineLexer@@SAPAV1@PAXW4I3_CLASSMETA_TYPE@@@Z
_TEXT	SEGMENT
_pBuf$ = 8						; size = 4
_type$ = 12						; size = 4
?_BindObjectRefByType@i3LineLexer@@SAPAV1@PAXW4I3_CLASSMETA_TYPE@@@Z PROC ; i3LineLexer::_BindObjectRefByType, COMDAT

; 6    : I3_CLASS_INSTANCE( i3LineLexer, i3ElementBase);

  00000	55		 push	 ebp
  00001	8b ec		 mov	 ebp, esp
  00003	8b 0d 00 00 00
	00		 mov	 ecx, DWORD PTR ?s_pClassMetai3LineLexer@i3LineLexer@@2PAVi3ClassMeta@@A ; i3LineLexer::s_pClassMetai3LineLexer
  00009	ff 75 0c	 push	 DWORD PTR _type$[ebp]
  0000c	ff 75 08	 push	 DWORD PTR _pBuf$[ebp]
  0000f	8b 01		 mov	 eax, DWORD PTR [ecx]
  00011	ff 50 08	 call	 DWORD PTR [eax+8]
  00014	5d		 pop	 ebp
  00015	c3		 ret	 0
?_BindObjectRefByType@i3LineLexer@@SAPAV1@PAXW4I3_CLASSMETA_TYPE@@@Z ENDP ; i3LineLexer::_BindObjectRefByType
_TEXT	ENDS
; Function compile flags: /Ogtp
; File E:\Proyectos\JuegosOnlineproyectos\PB\pbblow\Piercing Blow Remake\i3Server\src\i3Base\i3Lexer.cpp
; File E:\Proyectos\JuegosOnlineproyectos\PB\pbblow\Piercing Blow Remake\i3Server\include\i3Base\i3ElementBase.h
; File E:\Proyectos\JuegosOnlineproyectos\PB\pbblow\Piercing Blow Remake\i3Server\src\i3Base\i3Lexer.cpp
;	COMDAT ?_BindObjectByType@i3LineLexer@@SAPAV1@PAXW4I3_CLASSMETA_TYPE@@@Z
_TEXT	SEGMENT
_pBuf$ = 8						; size = 4
_type$ = 12						; size = 4
?_BindObjectByType@i3LineLexer@@SAPAV1@PAXW4I3_CLASSMETA_TYPE@@@Z PROC ; i3LineLexer::_BindObjectByType, COMDAT

; 6    : I3_CLASS_INSTANCE( i3LineLexer, i3ElementBase);

  00000	55		 push	 ebp
  00001	8b ec		 mov	 ebp, esp
  00003	8b 0d 00 00 00
	00		 mov	 ecx, DWORD PTR ?s_pClassMetai3LineLexer@i3LineLexer@@2PAVi3ClassMeta@@A ; i3LineLexer::s_pClassMetai3LineLexer
  00009	ff 75 0c	 push	 DWORD PTR _type$[ebp]
  0000c	ff 75 08	 push	 DWORD PTR _pBuf$[ebp]
  0000f	8b 01		 mov	 eax, DWORD PTR [ecx]
  00011	ff 50 08	 call	 DWORD PTR [eax+8]
; File E:\Proyectos\JuegosOnlineproyectos\PB\pbblow\Piercing Blow Remake\i3Server\include\i3Base\i3ElementBase.h

; 392  : 		m_RefCount++;

  00014	ff 40 04	 inc	 DWORD PTR [eax+4]
; File E:\Proyectos\JuegosOnlineproyectos\PB\pbblow\Piercing Blow Remake\i3Server\src\i3Base\i3Lexer.cpp

; 6    : I3_CLASS_INSTANCE( i3LineLexer, i3ElementBase);

  00017	5d		 pop	 ebp
  00018	c3		 ret	 0
?_BindObjectByType@i3LineLexer@@SAPAV1@PAXW4I3_CLASSMETA_TYPE@@@Z ENDP ; i3LineLexer::_BindObjectByType
_TEXT	ENDS
; Function compile flags: /Ogtp
; File E:\Proyectos\JuegosOnlineproyectos\PB\pbblow\Piercing Blow Remake\i3Server\src\i3Base\i3Lexer.cpp
;	COMDAT ?_NewObjectRefByType@i3LineLexer@@SAPAV1@W4I3_CLASSMETA_TYPE@@@Z
_TEXT	SEGMENT
_type$ = 8						; size = 4
?_NewObjectRefByType@i3LineLexer@@SAPAV1@W4I3_CLASSMETA_TYPE@@@Z PROC ; i3LineLexer::_NewObjectRefByType, COMDAT

; 6    : I3_CLASS_INSTANCE( i3LineLexer, i3ElementBase);

  00000	55		 push	 ebp
  00001	8b ec		 mov	 ebp, esp
  00003	8b 0d 00 00 00
	00		 mov	 ecx, DWORD PTR ?s_pClassMetai3LineLexer@i3LineLexer@@2PAVi3ClassMeta@@A ; i3LineLexer::s_pClassMetai3LineLexer
  00009	ff 75 08	 push	 DWORD PTR _type$[ebp]
  0000c	8b 01		 mov	 eax, DWORD PTR [ecx]
  0000e	ff 50 04	 call	 DWORD PTR [eax+4]
  00011	5d		 pop	 ebp
  00012	c3		 ret	 0
?_NewObjectRefByType@i3LineLexer@@SAPAV1@W4I3_CLASSMETA_TYPE@@@Z ENDP ; i3LineLexer::_NewObjectRefByType
_TEXT	ENDS
; Function compile flags: /Ogtp
; File E:\Proyectos\JuegosOnlineproyectos\PB\pbblow\Piercing Blow Remake\i3Server\src\i3Base\i3Lexer.cpp
; File E:\Proyectos\JuegosOnlineproyectos\PB\pbblow\Piercing Blow Remake\i3Server\include\i3Base\i3ElementBase.h
; File E:\Proyectos\JuegosOnlineproyectos\PB\pbblow\Piercing Blow Remake\i3Server\src\i3Base\i3Lexer.cpp
;	COMDAT ?_NewObjectByType@i3LineLexer@@SAPAV1@W4I3_CLASSMETA_TYPE@@@Z
_TEXT	SEGMENT
_type$ = 8						; size = 4
?_NewObjectByType@i3LineLexer@@SAPAV1@W4I3_CLASSMETA_TYPE@@@Z PROC ; i3LineLexer::_NewObjectByType, COMDAT

; 6    : I3_CLASS_INSTANCE( i3LineLexer, i3ElementBase);

  00000	55		 push	 ebp
  00001	8b ec		 mov	 ebp, esp
  00003	8b 0d 00 00 00
	00		 mov	 ecx, DWORD PTR ?s_pClassMetai3LineLexer@i3LineLexer@@2PAVi3ClassMeta@@A ; i3LineLexer::s_pClassMetai3LineLexer
  00009	ff 75 08	 push	 DWORD PTR _type$[ebp]
  0000c	8b 01		 mov	 eax, DWORD PTR [ecx]
  0000e	ff 50 04	 call	 DWORD PTR [eax+4]
; File E:\Proyectos\JuegosOnlineproyectos\PB\pbblow\Piercing Blow Remake\i3Server\include\i3Base\i3ElementBase.h

; 392  : 		m_RefCount++;

  00011	ff 40 04	 inc	 DWORD PTR [eax+4]
; File E:\Proyectos\JuegosOnlineproyectos\PB\pbblow\Piercing Blow Remake\i3Server\src\i3Base\i3Lexer.cpp

; 6    : I3_CLASS_INSTANCE( i3LineLexer, i3ElementBase);

  00014	5d		 pop	 ebp
  00015	c3		 ret	 0
?_NewObjectByType@i3LineLexer@@SAPAV1@W4I3_CLASSMETA_TYPE@@@Z ENDP ; i3LineLexer::_NewObjectByType
_TEXT	ENDS
; Function compile flags: /Ogtp
; File E:\Proyectos\JuegosOnlineproyectos\PB\pbblow\Piercing Blow Remake\i3Server\src\i3Base\i3Lexer.cpp
;	COMDAT ?_BindObjectRef@i3LineLexer@@SAPAV1@PAX@Z
_TEXT	SEGMENT
_pBuf$ = 8						; size = 4
?_BindObjectRef@i3LineLexer@@SAPAV1@PAX@Z PROC		; i3LineLexer::_BindObjectRef, COMDAT

; 6    : I3_CLASS_INSTANCE( i3LineLexer, i3ElementBase);

  00000	55		 push	 ebp
  00001	8b ec		 mov	 ebp, esp
  00003	8b 0d 00 00 00
	00		 mov	 ecx, DWORD PTR ?s_pClassMetai3LineLexer@i3LineLexer@@2PAVi3ClassMeta@@A ; i3LineLexer::s_pClassMetai3LineLexer
  00009	6a 00		 push	 0
  0000b	ff 75 08	 push	 DWORD PTR _pBuf$[ebp]
  0000e	8b 01		 mov	 eax, DWORD PTR [ecx]
  00010	ff 50 08	 call	 DWORD PTR [eax+8]
  00013	5d		 pop	 ebp
  00014	c3		 ret	 0
?_BindObjectRef@i3LineLexer@@SAPAV1@PAX@Z ENDP		; i3LineLexer::_BindObjectRef
_TEXT	ENDS
; Function compile flags: /Ogtp
; File E:\Proyectos\JuegosOnlineproyectos\PB\pbblow\Piercing Blow Remake\i3Server\src\i3Base\i3Lexer.cpp
; File E:\Proyectos\JuegosOnlineproyectos\PB\pbblow\Piercing Blow Remake\i3Server\include\i3Base\i3ElementBase.h
; File E:\Proyectos\JuegosOnlineproyectos\PB\pbblow\Piercing Blow Remake\i3Server\src\i3Base\i3Lexer.cpp
;	COMDAT ?_BindObject@i3LineLexer@@SAPAV1@PAX@Z
_TEXT	SEGMENT
_pBuf$ = 8						; size = 4
?_BindObject@i3LineLexer@@SAPAV1@PAX@Z PROC		; i3LineLexer::_BindObject, COMDAT

; 6    : I3_CLASS_INSTANCE( i3LineLexer, i3ElementBase);

  00000	55		 push	 ebp
  00001	8b ec		 mov	 ebp, esp
  00003	8b 0d 00 00 00
	00		 mov	 ecx, DWORD PTR ?s_pClassMetai3LineLexer@i3LineLexer@@2PAVi3ClassMeta@@A ; i3LineLexer::s_pClassMetai3LineLexer
  00009	6a 00		 push	 0
  0000b	ff 75 08	 push	 DWORD PTR _pBuf$[ebp]
  0000e	8b 01		 mov	 eax, DWORD PTR [ecx]
  00010	ff 50 08	 call	 DWORD PTR [eax+8]
; File E:\Proyectos\JuegosOnlineproyectos\PB\pbblow\Piercing Blow Remake\i3Server\include\i3Base\i3ElementBase.h

; 392  : 		m_RefCount++;

  00013	ff 40 04	 inc	 DWORD PTR [eax+4]
; File E:\Proyectos\JuegosOnlineproyectos\PB\pbblow\Piercing Blow Remake\i3Server\src\i3Base\i3Lexer.cpp

; 6    : I3_CLASS_INSTANCE( i3LineLexer, i3ElementBase);

  00016	5d		 pop	 ebp
  00017	c3		 ret	 0
?_BindObject@i3LineLexer@@SAPAV1@PAX@Z ENDP		; i3LineLexer::_BindObject
_TEXT	ENDS
; Function compile flags: /Ogtp
; File E:\Proyectos\JuegosOnlineproyectos\PB\pbblow\Piercing Blow Remake\i3Server\src\i3Base\i3Lexer.cpp
;	COMDAT ?_NewObjectRef@i3LineLexer@@SAPAV1@XZ
_TEXT	SEGMENT
?_NewObjectRef@i3LineLexer@@SAPAV1@XZ PROC		; i3LineLexer::_NewObjectRef, COMDAT

; 6    : I3_CLASS_INSTANCE( i3LineLexer, i3ElementBase);

  00000	8b 0d 00 00 00
	00		 mov	 ecx, DWORD PTR ?s_pClassMetai3LineLexer@i3LineLexer@@2PAVi3ClassMeta@@A ; i3LineLexer::s_pClassMetai3LineLexer
  00006	6a 00		 push	 0
  00008	8b 01		 mov	 eax, DWORD PTR [ecx]
  0000a	ff 50 04	 call	 DWORD PTR [eax+4]
  0000d	c3		 ret	 0
?_NewObjectRef@i3LineLexer@@SAPAV1@XZ ENDP		; i3LineLexer::_NewObjectRef
_TEXT	ENDS
; Function compile flags: /Ogtp
; File E:\Proyectos\JuegosOnlineproyectos\PB\pbblow\Piercing Blow Remake\i3Server\src\i3Base\i3Lexer.cpp
; File E:\Proyectos\JuegosOnlineproyectos\PB\pbblow\Piercing Blow Remake\i3Server\include\i3Base\i3ElementBase.h
; File E:\Proyectos\JuegosOnlineproyectos\PB\pbblow\Piercing Blow Remake\i3Server\src\i3Base\i3Lexer.cpp
;	COMDAT ?_NewObject@i3LineLexer@@SAPAV1@XZ
_TEXT	SEGMENT
?_NewObject@i3LineLexer@@SAPAV1@XZ PROC			; i3LineLexer::_NewObject, COMDAT

; 6    : I3_CLASS_INSTANCE( i3LineLexer, i3ElementBase);

  00000	8b 0d 00 00 00
	00		 mov	 ecx, DWORD PTR ?s_pClassMetai3LineLexer@i3LineLexer@@2PAVi3ClassMeta@@A ; i3LineLexer::s_pClassMetai3LineLexer
  00006	6a 00		 push	 0
  00008	8b 01		 mov	 eax, DWORD PTR [ecx]
  0000a	ff 50 04	 call	 DWORD PTR [eax+4]
; File E:\Proyectos\JuegosOnlineproyectos\PB\pbblow\Piercing Blow Remake\i3Server\include\i3Base\i3ElementBase.h

; 392  : 		m_RefCount++;

  0000d	ff 40 04	 inc	 DWORD PTR [eax+4]
; File E:\Proyectos\JuegosOnlineproyectos\PB\pbblow\Piercing Blow Remake\i3Server\src\i3Base\i3Lexer.cpp

; 6    : I3_CLASS_INSTANCE( i3LineLexer, i3ElementBase);

  00010	c3		 ret	 0
?_NewObject@i3LineLexer@@SAPAV1@XZ ENDP			; i3LineLexer::_NewObject
_TEXT	ENDS
; Function compile flags: /Ogtp
; File E:\Proyectos\JuegosOnlineproyectos\PB\pbblow\Piercing Blow Remake\i3Server\src\i3Base\i3Lexer.cpp
;	COMDAT ?SetGhostClass@i3LineLexer@@SAXPAVi3ClassMeta@@@Z
_TEXT	SEGMENT
_pMeta$ = 8						; size = 4
?SetGhostClass@i3LineLexer@@SAXPAVi3ClassMeta@@@Z PROC	; i3LineLexer::SetGhostClass, COMDAT

; 6    : I3_CLASS_INSTANCE( i3LineLexer, i3ElementBase);

  00000	55		 push	 ebp
  00001	8b ec		 mov	 ebp, esp
  00003	ff 75 08	 push	 DWORD PTR _pMeta$[ebp]
  00006	8b 0d 00 00 00
	00		 mov	 ecx, DWORD PTR ?s_pClassMetai3LineLexer@i3LineLexer@@2PAVi3ClassMeta@@A ; i3LineLexer::s_pClassMetai3LineLexer
  0000c	e8 00 00 00 00	 call	 ?SetGhostClass@i3ClassMeta@@QAEXPAV1@@Z ; i3ClassMeta::SetGhostClass
  00011	5d		 pop	 ebp
  00012	c3		 ret	 0
?SetGhostClass@i3LineLexer@@SAXPAVi3ClassMeta@@@Z ENDP	; i3LineLexer::SetGhostClass
_TEXT	ENDS
; Function compile flags: /Ogtp
; File E:\Proyectos\JuegosOnlineproyectos\PB\pbblow\Piercing Blow Remake\i3Server\src\i3Base\i3Lexer.cpp
;	COMDAT ?SetConcreteClass@i3LineLexer@@SAXPAVi3ClassMeta@@@Z
_TEXT	SEGMENT
_pMeta$ = 8						; size = 4
?SetConcreteClass@i3LineLexer@@SAXPAVi3ClassMeta@@@Z PROC ; i3LineLexer::SetConcreteClass, COMDAT

; 6    : I3_CLASS_INSTANCE( i3LineLexer, i3ElementBase);

  00000	55		 push	 ebp
  00001	8b ec		 mov	 ebp, esp
  00003	ff 75 08	 push	 DWORD PTR _pMeta$[ebp]
  00006	8b 0d 00 00 00
	00		 mov	 ecx, DWORD PTR ?s_pClassMetai3LineLexer@i3LineLexer@@2PAVi3ClassMeta@@A ; i3LineLexer::s_pClassMetai3LineLexer
  0000c	e8 00 00 00 00	 call	 ?SetConcreteClass@i3ClassMeta@@QAEXPAV1@@Z ; i3ClassMeta::SetConcreteClass
  00011	5d		 pop	 ebp
  00012	c3		 ret	 0
?SetConcreteClass@i3LineLexer@@SAXPAVi3ClassMeta@@@Z ENDP ; i3LineLexer::SetConcreteClass
_TEXT	ENDS
; Function compile flags: /Ogtp
; File E:\Proyectos\JuegosOnlineproyectos\PB\pbblow\Piercing Blow Remake\i3Server\src\i3Base\i3Lexer.cpp
;	COMDAT ?RegisterMeta@i3LineLexer@@SAXXZ
_TEXT	SEGMENT
?RegisterMeta@i3LineLexer@@SAXXZ PROC			; i3LineLexer::RegisterMeta, COMDAT

; 6    : I3_CLASS_INSTANCE( i3LineLexer, i3ElementBase);

  00000	8b 0d 00 00 00
	00		 mov	 ecx, DWORD PTR ?s_pClassMetai3LineLexer@i3LineLexer@@2PAVi3ClassMeta@@A ; i3LineLexer::s_pClassMetai3LineLexer
  00006	e9 00 00 00 00	 jmp	 ?Register@i3ClassMeta@@QAEXXZ ; i3ClassMeta::Register
?RegisterMeta@i3LineLexer@@SAXXZ ENDP			; i3LineLexer::RegisterMeta
_TEXT	ENDS
; Function compile flags: /Ogtp
; File E:\Proyectos\JuegosOnlineproyectos\PB\pbblow\Piercing Blow Remake\i3Server\src\i3Base\i3Lexer.cpp
;	COMDAT ?GetMeta@i3LineLexer@@UAEPAVi3ClassMeta@@XZ
_TEXT	SEGMENT
?GetMeta@i3LineLexer@@UAEPAVi3ClassMeta@@XZ PROC	; i3LineLexer::GetMeta, COMDAT
; _this$ = ecx

; 6    : I3_CLASS_INSTANCE( i3LineLexer, i3ElementBase);

  00000	a1 00 00 00 00	 mov	 eax, DWORD PTR ?s_pClassMetai3LineLexer@i3LineLexer@@2PAVi3ClassMeta@@A ; i3LineLexer::s_pClassMetai3LineLexer
  00005	c3		 ret	 0
?GetMeta@i3LineLexer@@UAEPAVi3ClassMeta@@XZ ENDP	; i3LineLexer::GetMeta
_TEXT	ENDS
; Function compile flags: /Ogtp
; File E:\Proyectos\JuegosOnlineproyectos\PB\pbblow\Piercing Blow Remake\i3Server\include\i3Base\i3Lexer.h
;	COMDAT ?GetClassMeta@i3LineLexer@@SAPAVi3ClassMeta@@XZ
_TEXT	SEGMENT
?GetClassMeta@i3LineLexer@@SAPAVi3ClassMeta@@XZ PROC	; i3LineLexer::GetClassMeta, COMDAT

; 10   : 	I3_CLASS_DEFINE( i3LineLexer);

  00000	a1 00 00 00 00	 mov	 eax, DWORD PTR ?s_pClassMetai3LineLexer@i3LineLexer@@2PAVi3ClassMeta@@A ; i3LineLexer::s_pClassMetai3LineLexer
  00005	c3		 ret	 0
?GetClassMeta@i3LineLexer@@SAPAVi3ClassMeta@@XZ ENDP	; i3LineLexer::GetClassMeta
_TEXT	ENDS
; Function compile flags: /Ogtp
;	COMDAT ??_Ei3MemoryPool@@UAEPAXI@Z
_TEXT	SEGMENT
__$EHRec$ = -12						; size = 12
___flags$ = 8						; size = 4
??_Ei3MemoryPool@@UAEPAXI@Z PROC			; i3MemoryPool::`vector deleting destructor', COMDAT
; _this$ = ecx
  00000	55		 push	 ebp
  00001	8b ec		 mov	 ebp, esp
  00003	6a ff		 push	 -1
  00005	68 00 00 00 00	 push	 __ehhandler$??_Ei3MemoryPool@@UAEPAXI@Z
  0000a	64 a1 00 00 00
	00		 mov	 eax, DWORD PTR fs:0
  00010	50		 push	 eax
  00011	53		 push	 ebx
  00012	56		 push	 esi
  00013	57		 push	 edi
  00014	a1 00 00 00 00	 mov	 eax, DWORD PTR ___security_cookie
  00019	33 c5		 xor	 eax, ebp
  0001b	50		 push	 eax
  0001c	8d 45 f4	 lea	 eax, DWORD PTR __$EHRec$[ebp]
  0001f	64 a3 00 00 00
	00		 mov	 DWORD PTR fs:0, eax
  00025	8b f1		 mov	 esi, ecx
  00027	8b 45 08	 mov	 eax, DWORD PTR ___flags$[ebp]
  0002a	8b f8		 mov	 edi, eax
  0002c	83 e7 01	 and	 edi, 1
  0002f	a8 02		 test	 al, 2
  00031	74 40		 je	 SHORT $LN2@vector
  00033	68 00 00 00 00	 push	 OFFSET ??1i3MemoryPool@@UAE@XZ ; i3MemoryPool::~i3MemoryPool
  00038	ff 76 fc	 push	 DWORD PTR [esi-4]
  0003b	8d 5e fc	 lea	 ebx, DWORD PTR [esi-4]
  0003e	6a 04		 push	 4
  00040	56		 push	 esi
  00041	e8 00 00 00 00	 call	 ??_M@YGXPAXIIP6EX0@Z@Z
  00046	85 ff		 test	 edi, edi
  00048	74 13		 je	 SHORT $LN3@vector
  0004a	8b 0b		 mov	 ecx, DWORD PTR [ebx]
  0004c	8d 0c 8d 04 00
	00 00		 lea	 ecx, DWORD PTR [ecx*4+4]
  00053	51		 push	 ecx
  00054	53		 push	 ebx
  00055	e8 00 00 00 00	 call	 ??_V@YAXPAXI@Z		; operator delete[]
  0005a	83 c4 08	 add	 esp, 8
$LN3@vector:
  0005d	8b c3		 mov	 eax, ebx
  0005f	8b 4d f4	 mov	 ecx, DWORD PTR __$EHRec$[ebp]
  00062	64 89 0d 00 00
	00 00		 mov	 DWORD PTR fs:0, ecx
  00069	59		 pop	 ecx
  0006a	5f		 pop	 edi
  0006b	5e		 pop	 esi
  0006c	5b		 pop	 ebx
  0006d	8b e5		 mov	 esp, ebp
  0006f	5d		 pop	 ebp
  00070	c2 04 00	 ret	 4
$LN2@vector:
  00073	e8 00 00 00 00	 call	 ??1i3MemoryPool@@UAE@XZ	; i3MemoryPool::~i3MemoryPool
  00078	85 ff		 test	 edi, edi
  0007a	74 0b		 je	 SHORT $LN4@vector
  0007c	6a 04		 push	 4
  0007e	56		 push	 esi
  0007f	e8 00 00 00 00	 call	 ??3@YAXPAXI@Z		; operator delete
  00084	83 c4 08	 add	 esp, 8
$LN4@vector:
  00087	8b c6		 mov	 eax, esi
  00089	8b 4d f4	 mov	 ecx, DWORD PTR __$EHRec$[ebp]
  0008c	64 89 0d 00 00
	00 00		 mov	 DWORD PTR fs:0, ecx
  00093	59		 pop	 ecx
  00094	5f		 pop	 edi
  00095	5e		 pop	 esi
  00096	5b		 pop	 ebx
  00097	8b e5		 mov	 esp, ebp
  00099	5d		 pop	 ebp
  0009a	c2 04 00	 ret	 4
  0009d	cc		 int	 3
  0009e	cc		 int	 3
  0009f	cc		 int	 3
  000a0	cc		 int	 3
  000a1	cc		 int	 3
_TEXT	ENDS
;	COMDAT text$x
text$x	SEGMENT
__ehhandler$??_Ei3MemoryPool@@UAEPAXI@Z:
  00000	90		 npad	 1
  00001	90		 npad	 1
  00002	8b 54 24 08	 mov	 edx, DWORD PTR [esp+8]
  00006	8d 42 0c	 lea	 eax, DWORD PTR [edx+12]
  00009	8b 4a f0	 mov	 ecx, DWORD PTR [edx-16]
  0000c	33 c8		 xor	 ecx, eax
  0000e	e8 00 00 00 00	 call	 @__security_check_cookie@4
  00013	b8 00 00 00 00	 mov	 eax, OFFSET __ehfuncinfo$??_Ei3MemoryPool@@UAEPAXI@Z
  00018	e9 00 00 00 00	 jmp	 ___CxxFrameHandler3
text$x	ENDS
??_Ei3MemoryPool@@UAEPAXI@Z ENDP			; i3MemoryPool::`vector deleting destructor'
; Function compile flags: /Ogtp
;	COMDAT ??_Gi3MemoryPool@@UAEPAXI@Z
_TEXT	SEGMENT
___flags$ = 8						; size = 4
??_Gi3MemoryPool@@UAEPAXI@Z PROC			; i3MemoryPool::`scalar deleting destructor', COMDAT
; _this$ = ecx
  00000	55		 push	 ebp
  00001	8b ec		 mov	 ebp, esp
  00003	56		 push	 esi
  00004	8b f1		 mov	 esi, ecx
  00006	e8 00 00 00 00	 call	 ??1i3MemoryPool@@UAE@XZ	; i3MemoryPool::~i3MemoryPool
  0000b	f6 45 08 01	 test	 BYTE PTR ___flags$[ebp], 1
  0000f	74 0b		 je	 SHORT $LN5@scalar
  00011	6a 04		 push	 4
  00013	56		 push	 esi
  00014	e8 00 00 00 00	 call	 ??3@YAXPAXI@Z		; operator delete
  00019	83 c4 08	 add	 esp, 8
$LN5@scalar:
  0001c	8b c6		 mov	 eax, esi
  0001e	5e		 pop	 esi
  0001f	5d		 pop	 ebp
  00020	c2 04 00	 ret	 4
??_Gi3MemoryPool@@UAEPAXI@Z ENDP			; i3MemoryPool::`scalar deleting destructor'
_TEXT	ENDS
; Function compile flags: /Ogtp
;	COMDAT ??4i3MemoryPool@@QAEAAV0@ABV0@@Z
_TEXT	SEGMENT
___that$ = 8						; size = 4
??4i3MemoryPool@@QAEAAV0@ABV0@@Z PROC			; i3MemoryPool::operator=, COMDAT
; _this$ = ecx
  00000	8b c1		 mov	 eax, ecx
  00002	c2 04 00	 ret	 4
??4i3MemoryPool@@QAEAAV0@ABV0@@Z ENDP			; i3MemoryPool::operator=
_TEXT	ENDS
; Function compile flags: /Ogtp
;	COMDAT ??0i3MemoryPool@@QAE@ABV0@@Z
_TEXT	SEGMENT
___that$ = 8						; size = 4
??0i3MemoryPool@@QAE@ABV0@@Z PROC			; i3MemoryPool::i3MemoryPool, COMDAT
; _this$ = ecx
  00000	c7 01 00 00 00
	00		 mov	 DWORD PTR [ecx], OFFSET ??_7i3MemoryPool@@6B@
  00006	8b c1		 mov	 eax, ecx
  00008	c2 04 00	 ret	 4
??0i3MemoryPool@@QAE@ABV0@@Z ENDP			; i3MemoryPool::i3MemoryPool
_TEXT	ENDS
; Function compile flags: /Ogtp
; File E:\Proyectos\JuegosOnlineproyectos\PB\pbblow\Piercing Blow Remake\i3Server\src\i3Base\i3Lexer.cpp
;	COMDAT ??_Ei3ElementBase@@UAEPAXI@Z
_TEXT	SEGMENT
__$EHRec$ = -12						; size = 12
___flags$ = 8						; size = 4
??_Ei3ElementBase@@UAEPAXI@Z PROC			; i3ElementBase::`vector deleting destructor', COMDAT
; _this$ = ecx
  00000	55		 push	 ebp
  00001	8b ec		 mov	 ebp, esp
  00003	6a ff		 push	 -1
  00005	68 00 00 00 00	 push	 __ehhandler$??_Ei3ElementBase@@UAEPAXI@Z
  0000a	64 a1 00 00 00
	00		 mov	 eax, DWORD PTR fs:0
  00010	50		 push	 eax
  00011	53		 push	 ebx
  00012	56		 push	 esi
  00013	57		 push	 edi
  00014	a1 00 00 00 00	 mov	 eax, DWORD PTR ___security_cookie
  00019	33 c5		 xor	 eax, ebp
  0001b	50		 push	 eax
  0001c	8d 45 f4	 lea	 eax, DWORD PTR __$EHRec$[ebp]
  0001f	64 a3 00 00 00
	00		 mov	 DWORD PTR fs:0, eax
  00025	8b f1		 mov	 esi, ecx
  00027	8b 5d 08	 mov	 ebx, DWORD PTR ___flags$[ebp]
  0002a	8b fb		 mov	 edi, ebx
  0002c	83 e7 01	 and	 edi, 1
  0002f	f6 c3 02	 test	 bl, 2
  00032	74 3f		 je	 SHORT $LN2@vector
  00034	68 00 00 00 00	 push	 OFFSET ??1i3ElementBase@@UAE@XZ ; i3ElementBase::~i3ElementBase
  00039	ff 76 fc	 push	 DWORD PTR [esi-4]
  0003c	8d 5e fc	 lea	 ebx, DWORD PTR [esi-4]
  0003f	6a 10		 push	 16			; 00000010H
  00041	56		 push	 esi
  00042	e8 00 00 00 00	 call	 ??_M@YGXPAXIIP6EX0@Z@Z
  00047	85 ff		 test	 edi, edi
  00049	74 12		 je	 SHORT $LN3@vector
  0004b	8b 0b		 mov	 ecx, DWORD PTR [ebx]
  0004d	c1 e1 04	 shl	 ecx, 4
  00050	83 c1 04	 add	 ecx, 4
  00053	51		 push	 ecx
  00054	53		 push	 ebx
  00055	e8 00 00 00 00	 call	 ??_V@YAXPAXI@Z		; operator delete[]
  0005a	83 c4 08	 add	 esp, 8
$LN3@vector:
  0005d	8b c3		 mov	 eax, ebx
  0005f	8b 4d f4	 mov	 ecx, DWORD PTR __$EHRec$[ebp]
  00062	64 89 0d 00 00
	00 00		 mov	 DWORD PTR fs:0, ecx
  00069	59		 pop	 ecx
  0006a	5f		 pop	 edi
  0006b	5e		 pop	 esi
  0006c	5b		 pop	 ebx
  0006d	8b e5		 mov	 esp, ebp
  0006f	5d		 pop	 ebp
  00070	c2 04 00	 ret	 4
$LN2@vector:
  00073	e8 00 00 00 00	 call	 ??1i3ElementBase@@UAE@XZ ; i3ElementBase::~i3ElementBase
  00078	85 ff		 test	 edi, edi
  0007a	74 1b		 je	 SHORT $LN6@vector
  0007c	f6 c3 04	 test	 bl, 4
  0007f	75 0b		 jne	 SHORT $LN5@vector
  00081	56		 push	 esi
  00082	e8 00 00 00 00	 call	 ??3i3ElementBase@@SAXPAX@Z ; i3ElementBase::operator delete
  00087	83 c4 04	 add	 esp, 4
  0008a	eb 0b		 jmp	 SHORT $LN6@vector
$LN5@vector:

  0008c	6a 10		 push	 16			; 00000010H
  0008e	56		 push	 esi
  0008f	e8 00 00 00 00	 call	 ??3@YAXPAXI@Z		; operator delete
  00094	83 c4 08	 add	 esp, 8
$LN6@vector:
  00097	8b c6		 mov	 eax, esi
  00099	8b 4d f4	 mov	 ecx, DWORD PTR __$EHRec$[ebp]
  0009c	64 89 0d 00 00
	00 00		 mov	 DWORD PTR fs:0, ecx
  000a3	59		 pop	 ecx
  000a4	5f		 pop	 edi
  000a5	5e		 pop	 esi
  000a6	5b		 pop	 ebx
  000a7	8b e5		 mov	 esp, ebp
  000a9	5d		 pop	 ebp
  000aa	c2 04 00	 ret	 4
  000ad	cc		 int	 3
  000ae	cc		 int	 3
  000af	cc		 int	 3
  000b0	cc		 int	 3
  000b1	cc		 int	 3
_TEXT	ENDS
;	COMDAT text$x
text$x	SEGMENT
__ehhandler$??_Ei3ElementBase@@UAEPAXI@Z:
  00000	90		 npad	 1
  00001	90		 npad	 1
  00002	8b 54 24 08	 mov	 edx, DWORD PTR [esp+8]
  00006	8d 42 0c	 lea	 eax, DWORD PTR [edx+12]
  00009	8b 4a f0	 mov	 ecx, DWORD PTR [edx-16]
  0000c	33 c8		 xor	 ecx, eax
  0000e	e8 00 00 00 00	 call	 @__security_check_cookie@4
  00013	b8 00 00 00 00	 mov	 eax, OFFSET __ehfuncinfo$??_Ei3ElementBase@@UAEPAXI@Z
  00018	e9 00 00 00 00	 jmp	 ___CxxFrameHandler3
text$x	ENDS
??_Ei3ElementBase@@UAEPAXI@Z ENDP			; i3ElementBase::`vector deleting destructor'
; Function compile flags: /Ogtp
; File E:\Proyectos\JuegosOnlineproyectos\PB\pbblow\Piercing Blow Remake\i3Server\src\i3Base\i3Lexer.cpp
;	COMDAT ??_Gi3ElementBase@@UAEPAXI@Z
_TEXT	SEGMENT
___flags$ = 8						; size = 4
??_Gi3ElementBase@@UAEPAXI@Z PROC			; i3ElementBase::`scalar deleting destructor', COMDAT
; _this$ = ecx
  00000	55		 push	 ebp
  00001	8b ec		 mov	 ebp, esp
  00003	56		 push	 esi
  00004	8b f1		 mov	 esi, ecx
  00006	e8 00 00 00 00	 call	 ??1i3ElementBase@@UAE@XZ ; i3ElementBase::~i3ElementBase
  0000b	8b 45 08	 mov	 eax, DWORD PTR ___flags$[ebp]
  0000e	a8 01		 test	 al, 1
  00010	74 1f		 je	 SHORT $LN10@scalar
  00012	a8 04		 test	 al, 4
  00014	75 10		 jne	 SHORT $LN3@scalar
  00016	56		 push	 esi
  00017	e8 00 00 00 00	 call	 ??3i3ElementBase@@SAXPAX@Z ; i3ElementBase::operator delete
  0001c	83 c4 04	 add	 esp, 4
  0001f	8b c6		 mov	 eax, esi
  00021	5e		 pop	 esi
  00022	5d		 pop	 ebp
  00023	c2 04 00	 ret	 4
$LN3@scalar:

  00026	6a 10		 push	 16			; 00000010H
  00028	56		 push	 esi
  00029	e8 00 00 00 00	 call	 ??3@YAXPAXI@Z		; operator delete
  0002e	83 c4 08	 add	 esp, 8
$LN10@scalar:
  00031	8b c6		 mov	 eax, esi
  00033	5e		 pop	 esi
  00034	5d		 pop	 ebp
  00035	c2 04 00	 ret	 4
??_Gi3ElementBase@@UAEPAXI@Z ENDP			; i3ElementBase::`scalar deleting destructor'
_TEXT	ENDS
; Function compile flags: /Ogtp
;	COMDAT ??4i3ElementBase@@QAEAAV0@ABV0@@Z
_TEXT	SEGMENT
___that$ = 8						; size = 4
??4i3ElementBase@@QAEAAV0@ABV0@@Z PROC			; i3ElementBase::operator=, COMDAT
; _this$ = ecx
  00000	55		 push	 ebp
  00001	8b ec		 mov	 ebp, esp
  00003	8b 55 08	 mov	 edx, DWORD PTR ___that$[ebp]
  00006	8b 42 04	 mov	 eax, DWORD PTR [edx+4]
  00009	89 41 04	 mov	 DWORD PTR [ecx+4], eax
  0000c	8b 42 08	 mov	 eax, DWORD PTR [edx+8]
  0000f	89 41 08	 mov	 DWORD PTR [ecx+8], eax
  00012	8b 42 0c	 mov	 eax, DWORD PTR [edx+12]
  00015	89 41 0c	 mov	 DWORD PTR [ecx+12], eax
  00018	8b c1		 mov	 eax, ecx
  0001a	5d		 pop	 ebp
  0001b	c2 04 00	 ret	 4
??4i3ElementBase@@QAEAAV0@ABV0@@Z ENDP			; i3ElementBase::operator=
_TEXT	ENDS
; Function compile flags: /Ogtp
;	COMDAT ??0i3ElementBase@@QAE@ABV0@@Z
_TEXT	SEGMENT
___that$ = 8						; size = 4
??0i3ElementBase@@QAE@ABV0@@Z PROC			; i3ElementBase::i3ElementBase, COMDAT
; _this$ = ecx
  00000	55		 push	 ebp
  00001	8b ec		 mov	 ebp, esp
  00003	8b 55 08	 mov	 edx, DWORD PTR ___that$[ebp]
  00006	c7 01 00 00 00
	00		 mov	 DWORD PTR [ecx], OFFSET ??_7i3ElementBase@@6B@
  0000c	8b 42 04	 mov	 eax, DWORD PTR [edx+4]
  0000f	89 41 04	 mov	 DWORD PTR [ecx+4], eax
  00012	8b 42 08	 mov	 eax, DWORD PTR [edx+8]
  00015	89 41 08	 mov	 DWORD PTR [ecx+8], eax
  00018	8b 42 0c	 mov	 eax, DWORD PTR [edx+12]
  0001b	89 41 0c	 mov	 DWORD PTR [ecx+12], eax
  0001e	8b c1		 mov	 eax, ecx
  00020	5d		 pop	 ebp
  00021	c2 04 00	 ret	 4
??0i3ElementBase@@QAE@ABV0@@Z ENDP			; i3ElementBase::i3ElementBase
_TEXT	ENDS
; Function compile flags: /Ogtp
; File E:\Proyectos\JuegosOnlineproyectos\PB\pbblow\Piercing Blow Remake\i3Server\include\i3Base\i3ElementBase.h
;	COMDAT ?_internal_SetRefCount@i3ElementBase@@QAEXH@Z
_TEXT	SEGMENT
_cnt$ = 8						; size = 4
?_internal_SetRefCount@i3ElementBase@@QAEXH@Z PROC	; i3ElementBase::_internal_SetRefCount, COMDAT
; _this$ = ecx

; 401  : 	{

  00000	55		 push	 ebp
  00001	8b ec		 mov	 ebp, esp

; 402  : 		m_RefCount = cnt;

  00003	8b 45 08	 mov	 eax, DWORD PTR _cnt$[ebp]
  00006	89 41 04	 mov	 DWORD PTR [ecx+4], eax

; 403  : 	}

  00009	5d		 pop	 ebp
  0000a	c2 04 00	 ret	 4
?_internal_SetRefCount@i3ElementBase@@QAEXH@Z ENDP	; i3ElementBase::_internal_SetRefCount
_TEXT	ENDS
; Function compile flags: /Ogtp
; File E:\Proyectos\JuegosOnlineproyectos\PB\pbblow\Piercing Blow Remake\i3Server\include\i3Base\i3ElementBase.h
;	COMDAT ?AddRef@i3ElementBase@@QAEHXZ
_TEXT	SEGMENT
?AddRef@i3ElementBase@@QAEHXZ PROC			; i3ElementBase::AddRef, COMDAT
; _this$ = ecx

; 392  : 		m_RefCount++;

  00000	ff 41 04	 inc	 DWORD PTR [ecx+4]

; 393  : 
; 394  : 		return m_RefCount;

  00003	8b 41 04	 mov	 eax, DWORD PTR [ecx+4]

; 395  : 	}

  00006	c3		 ret	 0
?AddRef@i3ElementBase@@QAEHXZ ENDP			; i3ElementBase::AddRef
_TEXT	ENDS
; Function compile flags: /Ogtp
; File E:\Proyectos\JuegosOnlineproyectos\PB\pbblow\Piercing Blow Remake\i3Server\include\i3Base\i3ElementBase.h
;	COMDAT ?IsTypeOf@i3ElementBase@@QAE_NPAVi3ClassMeta@@@Z
_TEXT	SEGMENT
_pMeta$ = 8						; size = 4
?IsTypeOf@i3ElementBase@@QAE_NPAVi3ClassMeta@@@Z PROC	; i3ElementBase::IsTypeOf, COMDAT
; _this$ = ecx

; 356  : 	{

  00000	55		 push	 ebp
  00001	8b ec		 mov	 ebp, esp

; 357  : 		return GetMeta()->IsTypeOf( pMeta);

  00003	8b 01		 mov	 eax, DWORD PTR [ecx]
  00005	ff 75 08	 push	 DWORD PTR _pMeta$[ebp]
  00008	ff 10		 call	 DWORD PTR [eax]
  0000a	8b c8		 mov	 ecx, eax
  0000c	e8 00 00 00 00	 call	 ?IsTypeOf@i3ClassMeta@@QAE_NPAV1@@Z ; i3ClassMeta::IsTypeOf

; 358  : 	}

  00011	5d		 pop	 ebp
  00012	c2 04 00	 ret	 4
?IsTypeOf@i3ElementBase@@QAE_NPAVi3ClassMeta@@@Z ENDP	; i3ElementBase::IsTypeOf
_TEXT	ENDS
; Function compile flags: /Ogtp
; File E:\Proyectos\JuegosOnlineproyectos\PB\pbblow\Piercing Blow Remake\i3Server\include\i3Base\i3ElementBase.h
; File E:\Proyectos\JuegosOnlineproyectos\PB\pbblow\Piercing Blow Remake\i3Server\include\i3Base\i3ClassMeta.h
; File E:\Proyectos\JuegosOnlineproyectos\PB\pbblow\Piercing Blow Remake\i3Server\include\i3Base\i3ElementBase.h
;	COMDAT ?IsExactTypeOf@i3ElementBase@@QAE_NPAVi3ClassMeta@@@Z
_TEXT	SEGMENT
_pMeta$ = 8						; size = 4
?IsExactTypeOf@i3ElementBase@@QAE_NPAVi3ClassMeta@@@Z PROC ; i3ElementBase::IsExactTypeOf, COMDAT
; _this$ = ecx

; 351  : 	{

  00000	55		 push	 ebp
  00001	8b ec		 mov	 ebp, esp

; 352  : 		return GetMeta()->IsExactTypeOf( pMeta);

  00003	8b 01		 mov	 eax, DWORD PTR [ecx]
  00005	ff 10		 call	 DWORD PTR [eax]
; File E:\Proyectos\JuegosOnlineproyectos\PB\pbblow\Piercing Blow Remake\i3Server\include\i3Base\i3ClassMeta.h

; 90   : 		return pMeta == this;

  00007	39 45 08	 cmp	 DWORD PTR _pMeta$[ebp], eax
  0000a	0f 94 c0	 sete	 al
; File E:\Proyectos\JuegosOnlineproyectos\PB\pbblow\Piercing Blow Remake\i3Server\include\i3Base\i3ElementBase.h

; 353  : 	}

  0000d	5d		 pop	 ebp
  0000e	c2 04 00	 ret	 4
?IsExactTypeOf@i3ElementBase@@QAE_NPAVi3ClassMeta@@@Z ENDP ; i3ElementBase::IsExactTypeOf
_TEXT	ENDS
; Function compile flags: /Ogtp
; File E:\Proyectos\JuegosOnlineproyectos\PB\pbblow\Piercing Blow Remake\i3Server\include\i3Base\i3ElementBase.h
;	COMDAT ?__GetMemoryPool@i3ElementBase@@QAEPAVi3MemoryPool@@XZ
_TEXT	SEGMENT
?__GetMemoryPool@i3ElementBase@@QAEPAVi3MemoryPool@@XZ PROC ; i3ElementBase::__GetMemoryPool, COMDAT
; _this$ = ecx

; 348  : 	i3MemoryPool *	__GetMemoryPool(void)							{ return m_pPool; }

  00000	8b 41 0c	 mov	 eax, DWORD PTR [ecx+12]
  00003	c3		 ret	 0
?__GetMemoryPool@i3ElementBase@@QAEPAVi3MemoryPool@@XZ ENDP ; i3ElementBase::__GetMemoryPool
_TEXT	ENDS
; Function compile flags: /Ogtp
; File E:\Proyectos\JuegosOnlineproyectos\PB\pbblow\Piercing Blow Remake\i3Server\include\i3Base\i3ElementBase.h
;	COMDAT ?__SetMemoryPool@i3ElementBase@@QAEXPAVi3MemoryPool@@@Z
_TEXT	SEGMENT
_pPool$ = 8						; size = 4
?__SetMemoryPool@i3ElementBase@@QAEXPAVi3MemoryPool@@@Z PROC ; i3ElementBase::__SetMemoryPool, COMDAT
; _this$ = ecx

; 347  : 	void			__SetMemoryPool( i3MemoryPool * pPool)			{ m_pPool = pPool; }

  00000	55		 push	 ebp
  00001	8b ec		 mov	 ebp, esp
  00003	8b 45 08	 mov	 eax, DWORD PTR _pPool$[ebp]
  00006	89 41 0c	 mov	 DWORD PTR [ecx+12], eax
  00009	5d		 pop	 ebp
  0000a	c2 04 00	 ret	 4
?__SetMemoryPool@i3ElementBase@@QAEXPAVi3MemoryPool@@@Z ENDP ; i3ElementBase::__SetMemoryPool
_TEXT	ENDS
; Function compile flags: /Ogtp
; File E:\Proyectos\JuegosOnlineproyectos\PB\pbblow\Piercing Blow Remake\i3Server\include\i3Base\i3ElementBase.h
;	COMDAT ?GetRefCount@i3ElementBase@@QAEHXZ
_TEXT	SEGMENT
?GetRefCount@i3ElementBase@@QAEHXZ PROC			; i3ElementBase::GetRefCount, COMDAT
; _this$ = ecx

; 344  : 		return m_RefCount;

  00000	8b 41 04	 mov	 eax, DWORD PTR [ecx+4]

; 345  : 	}

  00003	c3		 ret	 0
?GetRefCount@i3ElementBase@@QAEHXZ ENDP			; i3ElementBase::GetRefCount
_TEXT	ENDS
; Function compile flags: /Ogtp
; File E:\Proyectos\JuegosOnlineproyectos\PB\pbblow\Piercing Blow Remake\i3Server\include\i3Base\i3ElementBase.h
;	COMDAT ?GetClassMeta@i3ElementBase@@SAPAVi3ClassMeta@@XZ
_TEXT	SEGMENT
?GetClassMeta@i3ElementBase@@SAPAVi3ClassMeta@@XZ PROC	; i3ElementBase::GetClassMeta, COMDAT

; 314  : 	I3_ABSTRACT_CLASS_DEFINE( i3ElementBase);

  00000	a1 00 00 00 00	 mov	 eax, DWORD PTR ?s_pClassMetai3ElementBase@i3ElementBase@@2PAVi3ClassMeta@@A ; i3ElementBase::s_pClassMetai3ElementBase
  00005	c3		 ret	 0
?GetClassMeta@i3ElementBase@@SAPAVi3ClassMeta@@XZ ENDP	; i3ElementBase::GetClassMeta
_TEXT	ENDS
; Function compile flags: /Ogtp
;	COMDAT ??_Ei3ClassMeta@@UAEPAXI@Z
_TEXT	SEGMENT
__$EHRec$ = -12						; size = 12
___flags$ = 8						; size = 4
??_Ei3ClassMeta@@UAEPAXI@Z PROC				; i3ClassMeta::`vector deleting destructor', COMDAT
; _this$ = ecx
  00000	55		 push	 ebp
  00001	8b ec		 mov	 ebp, esp
  00003	6a ff		 push	 -1
  00005	68 00 00 00 00	 push	 __ehhandler$??_Ei3ClassMeta@@UAEPAXI@Z
  0000a	64 a1 00 00 00
	00		 mov	 eax, DWORD PTR fs:0
  00010	50		 push	 eax
  00011	53		 push	 ebx
  00012	56		 push	 esi
  00013	57		 push	 edi
  00014	a1 00 00 00 00	 mov	 eax, DWORD PTR ___security_cookie
  00019	33 c5		 xor	 eax, ebp
  0001b	50		 push	 eax
  0001c	8d 45 f4	 lea	 eax, DWORD PTR __$EHRec$[ebp]
  0001f	64 a3 00 00 00
	00		 mov	 DWORD PTR fs:0, eax
  00025	8b f1		 mov	 esi, ecx
  00027	8b 45 08	 mov	 eax, DWORD PTR ___flags$[ebp]
  0002a	8b f8		 mov	 edi, eax
  0002c	83 e7 01	 and	 edi, 1
  0002f	a8 02		 test	 al, 2
  00031	74 49		 je	 SHORT $LN2@vector
  00033	68 00 00 00 00	 push	 OFFSET ??1i3ClassMeta@@UAE@XZ ; i3ClassMeta::~i3ClassMeta
  00038	ff 76 fc	 push	 DWORD PTR [esi-4]
  0003b	8d 5e fc	 lea	 ebx, DWORD PTR [esi-4]
  0003e	6a 38		 push	 56			; 00000038H
  00040	56		 push	 esi
  00041	e8 00 00 00 00	 call	 ??_M@YGXPAXIIP6EX0@Z@Z
  00046	85 ff		 test	 edi, edi
  00048	74 1c		 je	 SHORT $LN3@vector
  0004a	8b 0b		 mov	 ecx, DWORD PTR [ebx]
  0004c	8d 14 cd 00 00
	00 00		 lea	 edx, DWORD PTR [ecx*8]
  00053	2b d1		 sub	 edx, ecx
  00055	8d 0c d5 04 00
	00 00		 lea	 ecx, DWORD PTR [edx*8+4]
  0005c	51		 push	 ecx
  0005d	53		 push	 ebx
  0005e	e8 00 00 00 00	 call	 ??_V@YAXPAXI@Z		; operator delete[]
  00063	83 c4 08	 add	 esp, 8
$LN3@vector:
  00066	8b c3		 mov	 eax, ebx
  00068	8b 4d f4	 mov	 ecx, DWORD PTR __$EHRec$[ebp]
  0006b	64 89 0d 00 00
	00 00		 mov	 DWORD PTR fs:0, ecx
  00072	59		 pop	 ecx
  00073	5f		 pop	 edi
  00074	5e		 pop	 esi
  00075	5b		 pop	 ebx
  00076	8b e5		 mov	 esp, ebp
  00078	5d		 pop	 ebp
  00079	c2 04 00	 ret	 4
$LN2@vector:
  0007c	e8 00 00 00 00	 call	 ??1i3ClassMeta@@UAE@XZ	; i3ClassMeta::~i3ClassMeta
  00081	85 ff		 test	 edi, edi
  00083	74 0b		 je	 SHORT $LN4@vector
  00085	6a 38		 push	 56			; 00000038H
  00087	56		 push	 esi
  00088	e8 00 00 00 00	 call	 ??3@YAXPAXI@Z		; operator delete
  0008d	83 c4 08	 add	 esp, 8
$LN4@vector:
  00090	8b c6		 mov	 eax, esi
  00092	8b 4d f4	 mov	 ecx, DWORD PTR __$EHRec$[ebp]
  00095	64 89 0d 00 00
	00 00		 mov	 DWORD PTR fs:0, ecx
  0009c	59		 pop	 ecx
  0009d	5f		 pop	 edi
  0009e	5e		 pop	 esi
  0009f	5b		 pop	 ebx
  000a0	8b e5		 mov	 esp, ebp
  000a2	5d		 pop	 ebp
  000a3	c2 04 00	 ret	 4
  000a6	cc		 int	 3
  000a7	cc		 int	 3
  000a8	cc		 int	 3
  000a9	cc		 int	 3
  000aa	cc		 int	 3
_TEXT	ENDS
;	COMDAT text$x
text$x	SEGMENT
__ehhandler$??_Ei3ClassMeta@@UAEPAXI@Z:
  00000	90		 npad	 1
  00001	90		 npad	 1
  00002	8b 54 24 08	 mov	 edx, DWORD PTR [esp+8]
  00006	8d 42 0c	 lea	 eax, DWORD PTR [edx+12]
  00009	8b 4a f0	 mov	 ecx, DWORD PTR [edx-16]
  0000c	33 c8		 xor	 ecx, eax
  0000e	e8 00 00 00 00	 call	 @__security_check_cookie@4
  00013	b8 00 00 00 00	 mov	 eax, OFFSET __ehfuncinfo$??_Ei3ClassMeta@@UAEPAXI@Z
  00018	e9 00 00 00 00	 jmp	 ___CxxFrameHandler3
text$x	ENDS
??_Ei3ClassMeta@@UAEPAXI@Z ENDP				; i3ClassMeta::`vector deleting destructor'
; Function compile flags: /Ogtp
;	COMDAT ??_Gi3ClassMeta@@UAEPAXI@Z
_TEXT	SEGMENT
___flags$ = 8						; size = 4
??_Gi3ClassMeta@@UAEPAXI@Z PROC				; i3ClassMeta::`scalar deleting destructor', COMDAT
; _this$ = ecx
  00000	55		 push	 ebp
  00001	8b ec		 mov	 ebp, esp
  00003	56		 push	 esi
  00004	8b f1		 mov	 esi, ecx
  00006	e8 00 00 00 00	 call	 ??1i3ClassMeta@@UAE@XZ	; i3ClassMeta::~i3ClassMeta
  0000b	f6 45 08 01	 test	 BYTE PTR ___flags$[ebp], 1
  0000f	74 0b		 je	 SHORT $LN5@scalar
  00011	6a 38		 push	 56			; 00000038H
  00013	56		 push	 esi
  00014	e8 00 00 00 00	 call	 ??3@YAXPAXI@Z		; operator delete
  00019	83 c4 08	 add	 esp, 8
$LN5@scalar:
  0001c	8b c6		 mov	 eax, esi
  0001e	5e		 pop	 esi
  0001f	5d		 pop	 ebp
  00020	c2 04 00	 ret	 4
??_Gi3ClassMeta@@UAEPAXI@Z ENDP				; i3ClassMeta::`scalar deleting destructor'
_TEXT	ENDS
; Function compile flags: /Ogtp
;	COMDAT ??4i3ClassMeta@@QAEAAV0@ABV0@@Z
_TEXT	SEGMENT
___that$ = 8						; size = 4
??4i3ClassMeta@@QAEAAV0@ABV0@@Z PROC			; i3ClassMeta::operator=, COMDAT
; _this$ = ecx
  00000	55		 push	 ebp
  00001	8b ec		 mov	 ebp, esp
  00003	8b 55 08	 mov	 edx, DWORD PTR ___that$[ebp]
  00006	8b 42 04	 mov	 eax, DWORD PTR [edx+4]
  00009	89 41 04	 mov	 DWORD PTR [ecx+4], eax
  0000c	8b 42 08	 mov	 eax, DWORD PTR [edx+8]
  0000f	89 41 08	 mov	 DWORD PTR [ecx+8], eax
  00012	8b 42 0c	 mov	 eax, DWORD PTR [edx+12]
  00015	89 41 0c	 mov	 DWORD PTR [ecx+12], eax
  00018	8b 42 10	 mov	 eax, DWORD PTR [edx+16]
  0001b	89 41 10	 mov	 DWORD PTR [ecx+16], eax
  0001e	8b 42 14	 mov	 eax, DWORD PTR [edx+20]
  00021	89 41 14	 mov	 DWORD PTR [ecx+20], eax
  00024	8b 42 18	 mov	 eax, DWORD PTR [edx+24]
  00027	89 41 18	 mov	 DWORD PTR [ecx+24], eax
  0002a	8b 42 1c	 mov	 eax, DWORD PTR [edx+28]
  0002d	89 41 1c	 mov	 DWORD PTR [ecx+28], eax
  00030	8b 42 20	 mov	 eax, DWORD PTR [edx+32]
  00033	89 41 20	 mov	 DWORD PTR [ecx+32], eax
  00036	8b 42 24	 mov	 eax, DWORD PTR [edx+36]
  00039	89 41 24	 mov	 DWORD PTR [ecx+36], eax
  0003c	8b 42 28	 mov	 eax, DWORD PTR [edx+40]
  0003f	89 41 28	 mov	 DWORD PTR [ecx+40], eax
  00042	8b 42 2c	 mov	 eax, DWORD PTR [edx+44]
  00045	89 41 2c	 mov	 DWORD PTR [ecx+44], eax
  00048	8b 42 30	 mov	 eax, DWORD PTR [edx+48]
  0004b	89 41 30	 mov	 DWORD PTR [ecx+48], eax
  0004e	8b 42 34	 mov	 eax, DWORD PTR [edx+52]
  00051	89 41 34	 mov	 DWORD PTR [ecx+52], eax
  00054	8b c1		 mov	 eax, ecx
  00056	5d		 pop	 ebp
  00057	c2 04 00	 ret	 4
??4i3ClassMeta@@QAEAAV0@ABV0@@Z ENDP			; i3ClassMeta::operator=
_TEXT	ENDS
; Function compile flags: /Ogtp
;	COMDAT ??0i3ClassMeta@@QAE@ABV0@@Z
_TEXT	SEGMENT
___that$ = 8						; size = 4
??0i3ClassMeta@@QAE@ABV0@@Z PROC			; i3ClassMeta::i3ClassMeta, COMDAT
; _this$ = ecx
  00000	55		 push	 ebp
  00001	8b ec		 mov	 ebp, esp
  00003	8b 55 08	 mov	 edx, DWORD PTR ___that$[ebp]
  00006	c7 01 00 00 00
	00		 mov	 DWORD PTR [ecx], OFFSET ??_7i3ClassMeta@@6B@
  0000c	8b 42 04	 mov	 eax, DWORD PTR [edx+4]
  0000f	89 41 04	 mov	 DWORD PTR [ecx+4], eax
  00012	8b 42 08	 mov	 eax, DWORD PTR [edx+8]
  00015	89 41 08	 mov	 DWORD PTR [ecx+8], eax
  00018	8b 42 0c	 mov	 eax, DWORD PTR [edx+12]
  0001b	89 41 0c	 mov	 DWORD PTR [ecx+12], eax
  0001e	8b 42 10	 mov	 eax, DWORD PTR [edx+16]
  00021	89 41 10	 mov	 DWORD PTR [ecx+16], eax
  00024	8b 42 14	 mov	 eax, DWORD PTR [edx+20]
  00027	89 41 14	 mov	 DWORD PTR [ecx+20], eax
  0002a	8b 42 18	 mov	 eax, DWORD PTR [edx+24]
  0002d	89 41 18	 mov	 DWORD PTR [ecx+24], eax
  00030	8b 42 1c	 mov	 eax, DWORD PTR [edx+28]
  00033	89 41 1c	 mov	 DWORD PTR [ecx+28], eax
  00036	8b 42 20	 mov	 eax, DWORD PTR [edx+32]
  00039	89 41 20	 mov	 DWORD PTR [ecx+32], eax
  0003c	8b 42 24	 mov	 eax, DWORD PTR [edx+36]
  0003f	89 41 24	 mov	 DWORD PTR [ecx+36], eax
  00042	8b 42 28	 mov	 eax, DWORD PTR [edx+40]
  00045	89 41 28	 mov	 DWORD PTR [ecx+40], eax
  00048	8b 42 2c	 mov	 eax, DWORD PTR [edx+44]
  0004b	89 41 2c	 mov	 DWORD PTR [ecx+44], eax
  0004e	8b 42 30	 mov	 eax, DWORD PTR [edx+48]
  00051	89 41 30	 mov	 DWORD PTR [ecx+48], eax
  00054	8b 42 34	 mov	 eax, DWORD PTR [edx+52]
  00057	89 41 34	 mov	 DWORD PTR [ecx+52], eax
  0005a	8b c1		 mov	 eax, ecx
  0005c	5d		 pop	 ebp
  0005d	c2 04 00	 ret	 4
??0i3ClassMeta@@QAE@ABV0@@Z ENDP			; i3ClassMeta::i3ClassMeta
_TEXT	ENDS
; Function compile flags: /Ogtp
; File E:\Proyectos\JuegosOnlineproyectos\PB\pbblow\Piercing Blow Remake\i3Server\include\i3Base\i3ClassMeta.h
;	COMDAT ?getHashCode@i3ClassMeta@@QAEIXZ
_TEXT	SEGMENT
?getHashCode@i3ClassMeta@@QAEIXZ PROC			; i3ClassMeta::getHashCode, COMDAT
; _this$ = ecx

; 112  : 	UINT32			getHashCode(void)						{ return m_HashCode; }

  00000	8b 41 18	 mov	 eax, DWORD PTR [ecx+24]
  00003	c3		 ret	 0
?getHashCode@i3ClassMeta@@QAEIXZ ENDP			; i3ClassMeta::getHashCode
_TEXT	ENDS
; Function compile flags: /Ogtp
; File E:\Proyectos\JuegosOnlineproyectos\PB\pbblow\Piercing Blow Remake\i3Server\include\i3Base\i3ClassMeta.h
;	COMDAT ?GetBaseClassMeta@i3ClassMeta@@QAEPAV1@XZ
_TEXT	SEGMENT
?GetBaseClassMeta@i3ClassMeta@@QAEPAV1@XZ PROC		; i3ClassMeta::GetBaseClassMeta, COMDAT
; _this$ = ecx

; 107  : 	i3ClassMeta *	GetBaseClassMeta(void)					{ return m_pBaseClass; }

  00000	8b 41 1c	 mov	 eax, DWORD PTR [ecx+28]
  00003	c3		 ret	 0
?GetBaseClassMeta@i3ClassMeta@@QAEPAV1@XZ ENDP		; i3ClassMeta::GetBaseClassMeta
_TEXT	ENDS
; Function compile flags: /Ogtp
; File E:\Proyectos\JuegosOnlineproyectos\PB\pbblow\Piercing Blow Remake\i3Server\include\i3Base\i3ClassMeta.h
;	COMDAT ?IsConcreteClass@i3ClassMeta@@QAEHXZ
_TEXT	SEGMENT
?IsConcreteClass@i3ClassMeta@@QAEHXZ PROC		; i3ClassMeta::IsConcreteClass, COMDAT
; _this$ = ecx

; 102  : 	BOOL			IsStyle( UINT32 style)					{ return (m_Style & style) == style; }

  00000	8b 41 14	 mov	 eax, DWORD PTR [ecx+20]
  00003	d1 e8		 shr	 eax, 1
  00005	83 e0 01	 and	 eax, 1

; 105  : 	BOOL			IsConcreteClass(void)					{ return IsStyle( I3_CLASSMETA_STYLE_CONCRETE); }

  00008	c3		 ret	 0
?IsConcreteClass@i3ClassMeta@@QAEHXZ ENDP		; i3ClassMeta::IsConcreteClass
_TEXT	ENDS
; Function compile flags: /Ogtp
; File E:\Proyectos\JuegosOnlineproyectos\PB\pbblow\Piercing Blow Remake\i3Server\include\i3Base\i3ClassMeta.h
;	COMDAT ?IsAbstractClass@i3ClassMeta@@QAEHXZ
_TEXT	SEGMENT
?IsAbstractClass@i3ClassMeta@@QAEHXZ PROC		; i3ClassMeta::IsAbstractClass, COMDAT
; _this$ = ecx

; 102  : 	BOOL			IsStyle( UINT32 style)					{ return (m_Style & style) == style; }

  00000	8b 41 14	 mov	 eax, DWORD PTR [ecx+20]
  00003	83 e0 01	 and	 eax, 1

; 104  : 	BOOL			IsAbstractClass(void)					{ return IsStyle( I3_CLASSMETA_STYLE_ABSTRACT); }

  00006	c3		 ret	 0
?IsAbstractClass@i3ClassMeta@@QAEHXZ ENDP		; i3ClassMeta::IsAbstractClass
_TEXT	ENDS
; Function compile flags: /Ogtp
; File E:\Proyectos\JuegosOnlineproyectos\PB\pbblow\Piercing Blow Remake\i3Server\include\i3Base\i3ClassMeta.h
;	COMDAT ?IsStyle@i3ClassMeta@@QAEHI@Z
_TEXT	SEGMENT
_style$ = 8						; size = 4
?IsStyle@i3ClassMeta@@QAEHI@Z PROC			; i3ClassMeta::IsStyle, COMDAT
; _this$ = ecx

; 102  : 	BOOL			IsStyle( UINT32 style)					{ return (m_Style & style) == style; }

  00000	55		 push	 ebp
  00001	8b ec		 mov	 ebp, esp
  00003	8b 51 14	 mov	 edx, DWORD PTR [ecx+20]
  00006	33 c0		 xor	 eax, eax
  00008	23 55 08	 and	 edx, DWORD PTR _style$[ebp]
  0000b	3b 55 08	 cmp	 edx, DWORD PTR _style$[ebp]
  0000e	0f 94 c0	 sete	 al
  00011	5d		 pop	 ebp
  00012	c2 04 00	 ret	 4
?IsStyle@i3ClassMeta@@QAEHI@Z ENDP			; i3ClassMeta::IsStyle
_TEXT	ENDS
; Function compile flags: /Ogtp
; File E:\Proyectos\JuegosOnlineproyectos\PB\pbblow\Piercing Blow Remake\i3Server\include\i3Base\i3ClassMeta.h
;	COMDAT ?RemoveStyle@i3ClassMeta@@QAEXI@Z
_TEXT	SEGMENT
_style$ = 8						; size = 4
?RemoveStyle@i3ClassMeta@@QAEXI@Z PROC			; i3ClassMeta::RemoveStyle, COMDAT
; _this$ = ecx

; 101  : 	void			RemoveStyle( UINT32 style)				{ m_Style &= ~style; }

  00000	55		 push	 ebp
  00001	8b ec		 mov	 ebp, esp
  00003	8b 45 08	 mov	 eax, DWORD PTR _style$[ebp]
  00006	f7 d0		 not	 eax
  00008	21 41 14	 and	 DWORD PTR [ecx+20], eax
  0000b	5d		 pop	 ebp
  0000c	c2 04 00	 ret	 4
?RemoveStyle@i3ClassMeta@@QAEXI@Z ENDP			; i3ClassMeta::RemoveStyle
_TEXT	ENDS
; Function compile flags: /Ogtp
; File E:\Proyectos\JuegosOnlineproyectos\PB\pbblow\Piercing Blow Remake\i3Server\include\i3Base\i3ClassMeta.h
;	COMDAT ?AddStyle@i3ClassMeta@@QAEXI@Z
_TEXT	SEGMENT
_style$ = 8						; size = 4
?AddStyle@i3ClassMeta@@QAEXI@Z PROC			; i3ClassMeta::AddStyle, COMDAT
; _this$ = ecx

; 100  : 	void			AddStyle( UINT32 style)					{ m_Style |= style; }

  00000	55		 push	 ebp
  00001	8b ec		 mov	 ebp, esp
  00003	8b 45 08	 mov	 eax, DWORD PTR _style$[ebp]
  00006	09 41 14	 or	 DWORD PTR [ecx+20], eax
  00009	5d		 pop	 ebp
  0000a	c2 04 00	 ret	 4
?AddStyle@i3ClassMeta@@QAEXI@Z ENDP			; i3ClassMeta::AddStyle
_TEXT	ENDS
; Function compile flags: /Ogtp
; File E:\Proyectos\JuegosOnlineproyectos\PB\pbblow\Piercing Blow Remake\i3Server\include\i3Base\i3ClassMeta.h
;	COMDAT ?GetStyle@i3ClassMeta@@QAEIXZ
_TEXT	SEGMENT
?GetStyle@i3ClassMeta@@QAEIXZ PROC			; i3ClassMeta::GetStyle, COMDAT
; _this$ = ecx

; 99   : 	UINT32			GetStyle(void)							{ return m_Style; }

  00000	8b 41 14	 mov	 eax, DWORD PTR [ecx+20]
  00003	c3		 ret	 0
?GetStyle@i3ClassMeta@@QAEIXZ ENDP			; i3ClassMeta::GetStyle
_TEXT	ENDS
; Function compile flags: /Ogtp
; File E:\Proyectos\JuegosOnlineproyectos\PB\pbblow\Piercing Blow Remake\i3Server\include\i3Base\i3ClassMeta.h
;	COMDAT ?SetStyle@i3ClassMeta@@QAEXI@Z
_TEXT	SEGMENT
_style$ = 8						; size = 4
?SetStyle@i3ClassMeta@@QAEXI@Z PROC			; i3ClassMeta::SetStyle, COMDAT
; _this$ = ecx

; 98   : 	void			SetStyle( UINT32 style)					{ m_Style = style; }

  00000	55		 push	 ebp
  00001	8b ec		 mov	 ebp, esp
  00003	8b 45 08	 mov	 eax, DWORD PTR _style$[ebp]
  00006	89 41 14	 mov	 DWORD PTR [ecx+20], eax
  00009	5d		 pop	 ebp
  0000a	c2 04 00	 ret	 4
?SetStyle@i3ClassMeta@@QAEXI@Z ENDP			; i3ClassMeta::SetStyle
_TEXT	ENDS
; Function compile flags: /Ogtp
; File E:\Proyectos\JuegosOnlineproyectos\PB\pbblow\Piercing Blow Remake\i3Server\include\i3Base\i3ClassMeta.h
;	COMDAT ?IsExactTypeOf@i3ClassMeta@@QAE_NPAV1@@Z
_TEXT	SEGMENT
_pMeta$ = 8						; size = 4
?IsExactTypeOf@i3ClassMeta@@QAE_NPAV1@@Z PROC		; i3ClassMeta::IsExactTypeOf, COMDAT
; _this$ = ecx

; 89   : 	{

  00000	55		 push	 ebp
  00001	8b ec		 mov	 ebp, esp

; 90   : 		return pMeta == this;

  00003	39 4d 08	 cmp	 DWORD PTR _pMeta$[ebp], ecx
  00006	0f 94 c0	 sete	 al

; 91   : 	}

  00009	5d		 pop	 ebp
  0000a	c2 04 00	 ret	 4
?IsExactTypeOf@i3ClassMeta@@QAE_NPAV1@@Z ENDP		; i3ClassMeta::IsExactTypeOf
_TEXT	ENDS
; Function compile flags: /Ogtp
; File E:\Proyectos\JuegosOnlineproyectos\PB\pbblow\Piercing Blow Remake\i3Server\include\i3Base\i3ClassMeta.h
;	COMDAT ?GetClassNameA@i3ClassMeta@@QAEPADXZ
_TEXT	SEGMENT
?GetClassNameA@i3ClassMeta@@QAEPADXZ PROC		; i3ClassMeta::GetClassNameA, COMDAT
; _this$ = ecx

; 83   : 		return m_pszClassName;

  00000	8b 41 0c	 mov	 eax, DWORD PTR [ecx+12]

; 84   : 	}

  00003	c3		 ret	 0
?GetClassNameA@i3ClassMeta@@QAEPADXZ ENDP		; i3ClassMeta::GetClassNameA
_TEXT	ENDS
; Function compile flags: /Ogtp
; File E:\Proyectos\JuegosOnlineproyectos\PB\pbblow\Piercing Blow Remake\i3Server\include\i3Base\i3ClassMeta.h
;	COMDAT ?GetClassSize@i3ClassMeta@@QAEIXZ
_TEXT	SEGMENT
?GetClassSize@i3ClassMeta@@QAEIXZ PROC			; i3ClassMeta::GetClassSize, COMDAT
; _this$ = ecx

; 78   : 		return m_ClassSize;

  00000	8b 41 08	 mov	 eax, DWORD PTR [ecx+8]

; 79   : 	}

  00003	c3		 ret	 0
?GetClassSize@i3ClassMeta@@QAEIXZ ENDP			; i3ClassMeta::GetClassSize
_TEXT	ENDS
; Function compile flags: /Ogtp
; File E:\Proyectos\JuegosOnlineproyectos\PB\pbblow\Piercing Blow Remake\i3Server\include\i3Base\i3ClassMeta.h
;	COMDAT ?SetMemoryPool@i3ClassMeta@@QAEXPAVi3MemoryPool@@@Z
_TEXT	SEGMENT
_pPool$ = 8						; size = 4
?SetMemoryPool@i3ClassMeta@@QAEXPAVi3MemoryPool@@@Z PROC ; i3ClassMeta::SetMemoryPool, COMDAT
; _this$ = ecx

; 66   : 	void			SetMemoryPool( i3MemoryPool * pPool)		{ m_pPool = pPool; }

  00000	55		 push	 ebp
  00001	8b ec		 mov	 ebp, esp
  00003	8b 45 08	 mov	 eax, DWORD PTR _pPool$[ebp]
  00006	89 41 34	 mov	 DWORD PTR [ecx+52], eax
  00009	5d		 pop	 ebp
  0000a	c2 04 00	 ret	 4
?SetMemoryPool@i3ClassMeta@@QAEXPAVi3MemoryPool@@@Z ENDP ; i3ClassMeta::SetMemoryPool
_TEXT	ENDS
; Function compile flags: /Ogtp
; File E:\Proyectos\JuegosOnlineproyectos\PB\pbblow\Piercing Blow Remake\i3Server\include\i3Base\i3ClassMeta.h
;	COMDAT ?GetMemoryPool@i3ClassMeta@@QAEPAVi3MemoryPool@@XZ
_TEXT	SEGMENT
?GetMemoryPool@i3ClassMeta@@QAEPAVi3MemoryPool@@XZ PROC	; i3ClassMeta::GetMemoryPool, COMDAT
; _this$ = ecx

; 65   : 	i3MemoryPool *	GetMemoryPool(void)							{ return m_pPool; }

  00000	8b 41 34	 mov	 eax, DWORD PTR [ecx+52]
  00003	c3		 ret	 0
?GetMemoryPool@i3ClassMeta@@QAEPAVi3MemoryPool@@XZ ENDP	; i3ClassMeta::GetMemoryPool
_TEXT	ENDS
; Function compile flags: /Ogtp
; File C:\Program Files (x86)\Windows Kits\10\Include\10.0.26100.0\ucrt\stdio.h
;	COMDAT _sprintf
_TEXT	SEGMENT
__Buffer$ = 8						; size = 4
__Format$ = 12						; size = 4
_sprintf PROC						; COMDAT

; 1771 :     {

  00000	55		 push	 ebp
  00001	8b ec		 mov	 ebp, esp

; 1392 :         int const _Result = __stdio_common_vsprintf(

  00003	8d 45 10	 lea	 eax, DWORD PTR __Format$[ebp+4]
  00006	50		 push	 eax
  00007	6a 00		 push	 0
  00009	ff 75 0c	 push	 DWORD PTR __Format$[ebp]
  0000c	6a ff		 push	 -1
  0000e	ff 75 08	 push	 DWORD PTR __Buffer$[ebp]
  00011	e8 00 00 00 00	 call	 ___local_stdio_printf_options
  00016	8b 08		 mov	 ecx, DWORD PTR [eax]
  00018	ff 70 04	 push	 DWORD PTR [eax+4]
  0001b	83 c9 01	 or	 ecx, 1
  0001e	51		 push	 ecx
  0001f	e8 00 00 00 00	 call	 ___stdio_common_vsprintf

; 1393 :             _CRT_INTERNAL_LOCAL_PRINTF_OPTIONS | _CRT_INTERNAL_PRINTF_LEGACY_VSPRINTF_NULL_TERMINATION,
; 1394 :             _Buffer, _BufferCount, _Format, _Locale, _ArgList);
; 1395 : 
; 1396 :         return _Result < 0 ? -1 : _Result;

  00024	83 c9 ff	 or	 ecx, -1
  00027	83 c4 1c	 add	 esp, 28			; 0000001cH
  0002a	85 c0		 test	 eax, eax
  0002c	0f 48 c1	 cmovs	 eax, ecx

; 1772 :         int _Result;
; 1773 :         va_list _ArgList;
; 1774 :         __crt_va_start(_ArgList, _Format);
; 1775 : 
; 1776 :         _Result = _vsprintf_l(_Buffer, _Format, NULL, _ArgList);
; 1777 : 
; 1778 :         __crt_va_end(_ArgList);
; 1779 :         return _Result;
; 1780 :     }

  0002f	5d		 pop	 ebp
  00030	c3		 ret	 0
_sprintf ENDP
_TEXT	ENDS
; Function compile flags: /Ogtp
; File C:\Program Files (x86)\Windows Kits\10\Include\10.0.26100.0\ucrt\corecrt_stdio_config.h
;	COMDAT ___local_stdio_printf_options
_TEXT	SEGMENT
___local_stdio_printf_options PROC			; COMDAT

; 91   :         static unsigned __int64 _OptionsStorage;
; 92   :         return &_OptionsStorage;

  00000	b8 00 00 00 00	 mov	 eax, OFFSET ?_OptionsStorage@?1??__local_stdio_printf_options@@9@4_KA ; `__local_stdio_printf_options'::`2'::_OptionsStorage

; 93   :     }

  00005	c3		 ret	 0
___local_stdio_printf_options ENDP
_TEXT	ENDS
; Function compile flags: /Ogtp
; File E:\Proyectos\JuegosOnlineproyectos\PB\pbblow\Piercing Blow Remake\i3Server\src\i3Base\i3Lexer.cpp
;	COMDAT ?__global_array_delete@@YAXPAXI@Z
_TEXT	SEGMENT
_p$ = 8							; size = 4
_sz$ = 12						; size = 4
?__global_array_delete@@YAXPAXI@Z PROC			; __global_array_delete, COMDAT

  00000	e9 00 00 00 00	 jmp	 ??_V@YAXPAXI@Z		; operator delete[]
?__global_array_delete@@YAXPAXI@Z ENDP			; __global_array_delete
_TEXT	ENDS
; Function compile flags: /Ogtp
; File E:\Proyectos\JuegosOnlineproyectos\PB\pbblow\Piercing Blow Remake\i3Server\src\i3Base\i3Lexer.cpp
;	COMDAT ?__global_array_delete@@YAXPAX@Z
_TEXT	SEGMENT
_p$ = 8							; size = 4
?__global_array_delete@@YAXPAX@Z PROC			; __global_array_delete, COMDAT

  00000	e9 00 00 00 00	 jmp	 ??_V@YAXPAX@Z		; operator delete[]
?__global_array_delete@@YAXPAX@Z ENDP			; __global_array_delete
_TEXT	ENDS
; Function compile flags: /Ogtp
; File E:\Proyectos\JuegosOnlineproyectos\PB\pbblow\Piercing Blow Remake\i3Server\src\i3Base\i3Lexer.cpp
;	COMDAT ?__global_delete@@YAXPAXI@Z
_TEXT	SEGMENT
_p$ = 8							; size = 4
_sz$ = 12						; size = 4
?__global_delete@@YAXPAXI@Z PROC			; __global_delete, COMDAT

  00000	e9 00 00 00 00	 jmp	 ??3@YAXPAXI@Z		; operator delete
?__global_delete@@YAXPAXI@Z ENDP			; __global_delete
_TEXT	ENDS
; Function compile flags: /Ogtp
; File E:\Proyectos\JuegosOnlineproyectos\PB\pbblow\Piercing Blow Remake\i3Server\src\i3Base\i3Lexer.cpp
;	COMDAT ?__empty_global_delete@@YAXPAXI@Z
_TEXT	SEGMENT
___formal$ = 8						; size = 4
___formal$ = 12						; size = 4
?__empty_global_delete@@YAXPAXI@Z PROC			; __empty_global_delete, COMDAT

  00000	c2 00 00	 ret	 0
?__empty_global_delete@@YAXPAXI@Z ENDP			; __empty_global_delete
_TEXT	ENDS
; Function compile flags: /Ogtp
; File E:\Proyectos\JuegosOnlineproyectos\PB\pbblow\Piercing Blow Remake\i3Server\src\i3Base\i3Lexer.cpp
;	COMDAT ?__global_delete@@YAXPAX@Z
_TEXT	SEGMENT
_p$ = 8							; size = 4
?__global_delete@@YAXPAX@Z PROC				; __global_delete, COMDAT

  00000	e9 00 00 00 00	 jmp	 ??3@YAXPAX@Z		; operator delete
?__global_delete@@YAXPAX@Z ENDP				; __global_delete
_TEXT	ENDS
; Function compile flags: /Ogtp
; File E:\Proyectos\JuegosOnlineproyectos\PB\pbblow\Piercing Blow Remake\i3Server\src\i3Base\i3Lexer.cpp
;	COMDAT ?__empty_global_delete@@YAXPAX@Z
_TEXT	SEGMENT
___formal$ = 8						; size = 4
?__empty_global_delete@@YAXPAX@Z PROC			; __empty_global_delete, COMDAT

  00000	c2 00 00	 ret	 0
?__empty_global_delete@@YAXPAX@Z ENDP			; __empty_global_delete
_TEXT	ENDS
END
