; Listing generated by Microsoft (R) Optimizing Compiler Version 19.50.35727.0 

	TITLE	E:\Proyectos\JuegosOnlineproyectos\PB\pbblow\Piercing Blow Remake\i3Server\Project\I3_DX\i3Server\x86\Release\i3LogFileA.obj
	.686P
	.XMM
	include listing.inc
	.model	flat

INCLUDELIB LIBCMT
INCLUDELIB OLDNAMES

PUBLIC	?s_pClassMetai3LogFileA@i3LogFileA@@2PAVi3ClassMeta@@A ; i3LogFileA::s_pClassMetai3LogFileA
PUBLIC	?CreateInstance@?$i3MetaTemplate@Vi3LogFileA@@@@UAEPAVi3ElementBase@@W4I3_CLASSMETA_TYPE@@@Z ; i3MetaTemplate<i3LogFileA>::CreateInstance
PUBLIC	?BindInstance@?$i3MetaTemplate@Vi3LogFileA@@@@UAEPAVi3ElementBase@@PAXW4I3_CLASSMETA_TYPE@@@Z ; i3MetaTemplate<i3LogFileA>::BindInstance
PUBLIC	??_7?$i3MetaTemplate@Vi3LogFileA@@@@6B@		; i3MetaTemplate<i3LogFileA>::`vftable'
PUBLIC	??_G?$i3MetaTemplate@Vi3LogFileA@@@@UAEPAXI@Z	; i3MetaTemplate<i3LogFileA>::`scalar deleting destructor'
PUBLIC	??_C@_0O@OKJFFLPH@i3LogFileBase@		; `string'
PUBLIC	??_C@_0L@NIPECMID@i3LogFileA@			; `string'
PUBLIC	??_R0?AVi3ClassMeta@@@8				; i3ClassMeta `RTTI Type Descriptor'
PUBLIC	??_R3i3ClassMeta@@8				; i3ClassMeta::`RTTI Class Hierarchy Descriptor'
PUBLIC	??_R2i3ClassMeta@@8				; i3ClassMeta::`RTTI Base Class Array'
PUBLIC	??_R1A@?0A@EA@i3ClassMeta@@8			; i3ClassMeta::`RTTI Base Class Descriptor at (0,-1,0,64)'
PUBLIC	??_R4?$i3MetaTemplate@Vi3LogFileA@@@@6B@	; i3MetaTemplate<i3LogFileA>::`RTTI Complete Object Locator'
PUBLIC	??_R0?AV?$i3MetaTemplate@Vi3LogFileA@@@@@8	; i3MetaTemplate<i3LogFileA> `RTTI Type Descriptor'
PUBLIC	??_R3?$i3MetaTemplate@Vi3LogFileA@@@@8		; i3MetaTemplate<i3LogFileA>::`RTTI Class Hierarchy Descriptor'
PUBLIC	??_R2?$i3MetaTemplate@Vi3LogFileA@@@@8		; i3MetaTemplate<i3LogFileA>::`RTTI Base Class Array'
PUBLIC	??_R1A@?0A@EA@?$i3MetaTemplate@Vi3LogFileA@@@@8	; i3MetaTemplate<i3LogFileA>::`RTTI Base Class Descriptor at (0,-1,0,64)'
PUBLIC	__Avx2WmemEnabledWeakValue
EXTRN	??_E?$i3MetaTemplate@Vi3LogFileA@@@@UAEPAXI@Z:PROC ; i3MetaTemplate<i3LogFileA>::`vector deleting destructor'
EXTRN	??_7type_info@@6B@:QWORD			; type_info::`vftable'
;	COMDAT __Avx2WmemEnabledWeakValue
_BSS	SEGMENT
__Avx2WmemEnabledWeakValue DD 01H DUP (?)
_BSS	ENDS
;	COMDAT ??_R1A@?0A@EA@?$i3MetaTemplate@Vi3LogFileA@@@@8
rdata$r	SEGMENT
??_R1A@?0A@EA@?$i3MetaTemplate@Vi3LogFileA@@@@8 DD FLAT:??_R0?AV?$i3MetaTemplate@Vi3LogFileA@@@@@8 ; i3MetaTemplate<i3LogFileA>::`RTTI Base Class Descriptor at (0,-1,0,64)'
	DD	01H
	DD	00H
	DD	0ffffffffH
	DD	00H
	DD	040H
	DD	FLAT:??_R3?$i3MetaTemplate@Vi3LogFileA@@@@8
rdata$r	ENDS
;	COMDAT ??_R2?$i3MetaTemplate@Vi3LogFileA@@@@8
rdata$r	SEGMENT
??_R2?$i3MetaTemplate@Vi3LogFileA@@@@8 DD FLAT:??_R1A@?0A@EA@?$i3MetaTemplate@Vi3LogFileA@@@@8 ; i3MetaTemplate<i3LogFileA>::`RTTI Base Class Array'
	DD	FLAT:??_R1A@?0A@EA@i3ClassMeta@@8
rdata$r	ENDS
;	COMDAT ??_R3?$i3MetaTemplate@Vi3LogFileA@@@@8
rdata$r	SEGMENT
??_R3?$i3MetaTemplate@Vi3LogFileA@@@@8 DD 00H		; i3MetaTemplate<i3LogFileA>::`RTTI Class Hierarchy Descriptor'
	DD	00H
	DD	02H
	DD	FLAT:??_R2?$i3MetaTemplate@Vi3LogFileA@@@@8
rdata$r	ENDS
;	COMDAT ??_R0?AV?$i3MetaTemplate@Vi3LogFileA@@@@@8
data$rs	SEGMENT
??_R0?AV?$i3MetaTemplate@Vi3LogFileA@@@@@8 DD FLAT:??_7type_info@@6B@ ; i3MetaTemplate<i3LogFileA> `RTTI Type Descriptor'
	DD	00H
	DB	'.?AV?$i3MetaTemplate@Vi3LogFileA@@@@', 00H
data$rs	ENDS
;	COMDAT ??_R4?$i3MetaTemplate@Vi3LogFileA@@@@6B@
rdata$r	SEGMENT
??_R4?$i3MetaTemplate@Vi3LogFileA@@@@6B@ DD 00H		; i3MetaTemplate<i3LogFileA>::`RTTI Complete Object Locator'
	DD	00H
	DD	00H
	DD	FLAT:??_R0?AV?$i3MetaTemplate@Vi3LogFileA@@@@@8
	DD	FLAT:??_R3?$i3MetaTemplate@Vi3LogFileA@@@@8
rdata$r	ENDS
;	COMDAT ??_R1A@?0A@EA@i3ClassMeta@@8
rdata$r	SEGMENT
??_R1A@?0A@EA@i3ClassMeta@@8 DD FLAT:??_R0?AVi3ClassMeta@@@8 ; i3ClassMeta::`RTTI Base Class Descriptor at (0,-1,0,64)'
	DD	00H
	DD	00H
	DD	0ffffffffH
	DD	00H
	DD	040H
	DD	FLAT:??_R3i3ClassMeta@@8
rdata$r	ENDS
;	COMDAT ??_R2i3ClassMeta@@8
rdata$r	SEGMENT
??_R2i3ClassMeta@@8 DD FLAT:??_R1A@?0A@EA@i3ClassMeta@@8 ; i3ClassMeta::`RTTI Base Class Array'
rdata$r	ENDS
;	COMDAT ??_R3i3ClassMeta@@8
rdata$r	SEGMENT
??_R3i3ClassMeta@@8 DD 00H				; i3ClassMeta::`RTTI Class Hierarchy Descriptor'
	DD	00H
	DD	01H
	DD	FLAT:??_R2i3ClassMeta@@8
rdata$r	ENDS
;	COMDAT ??_R0?AVi3ClassMeta@@@8
data$rs	SEGMENT
??_R0?AVi3ClassMeta@@@8 DD FLAT:??_7type_info@@6B@	; i3ClassMeta `RTTI Type Descriptor'
	DD	00H
	DB	'.?AVi3ClassMeta@@', 00H
data$rs	ENDS
;	COMDAT ??_C@_0L@NIPECMID@i3LogFileA@
CONST	SEGMENT
??_C@_0L@NIPECMID@i3LogFileA@ DB 'i3LogFileA', 00H	; `string'
CONST	ENDS
;	COMDAT ??_C@_0O@OKJFFLPH@i3LogFileBase@
CONST	SEGMENT
??_C@_0O@OKJFFLPH@i3LogFileBase@ DB 'i3LogFileBase', 00H ; `string'
CONST	ENDS
;	COMDAT ??_7?$i3MetaTemplate@Vi3LogFileA@@@@6B@
CONST	SEGMENT
??_7?$i3MetaTemplate@Vi3LogFileA@@@@6B@ DD FLAT:??_R4?$i3MetaTemplate@Vi3LogFileA@@@@6B@ ; i3MetaTemplate<i3LogFileA>::`vftable'
	DD	FLAT:??_E?$i3MetaTemplate@Vi3LogFileA@@@@UAEPAXI@Z
	DD	FLAT:?CreateInstance@?$i3MetaTemplate@Vi3LogFileA@@@@UAEPAVi3ElementBase@@W4I3_CLASSMETA_TYPE@@@Z
	DD	FLAT:?BindInstance@?$i3MetaTemplate@Vi3LogFileA@@@@UAEPAVi3ElementBase@@PAXW4I3_CLASSMETA_TYPE@@@Z
CONST	ENDS
_DATA	SEGMENT
?s_pClassMetai3LogFileA@i3LogFileA@@2PAVi3ClassMeta@@A DD FLAT:?s_ClassMetai3LogFileA@@3V?$i3MetaTemplate@Vi3LogFileA@@@@A ; i3LogFileA::s_pClassMetai3LogFileA
_DATA	ENDS
PUBLIC	?__empty_global_delete@@YAXPAX@Z		; __empty_global_delete
PUBLIC	?__global_delete@@YAXPAX@Z			; __global_delete
PUBLIC	?__empty_global_delete@@YAXPAXI@Z		; __empty_global_delete
PUBLIC	?__global_delete@@YAXPAXI@Z			; __global_delete
PUBLIC	?__global_array_delete@@YAXPAX@Z		; __global_array_delete
PUBLIC	?__global_array_delete@@YAXPAXI@Z		; __global_array_delete
PUBLIC	___local_stdio_printf_options
PUBLIC	_printf
PUBLIC	?GetMemoryPool@i3ClassMeta@@QAEPAVi3MemoryPool@@XZ ; i3ClassMeta::GetMemoryPool
PUBLIC	?SetMemoryPool@i3ClassMeta@@QAEXPAVi3MemoryPool@@@Z ; i3ClassMeta::SetMemoryPool
PUBLIC	?GetClassSize@i3ClassMeta@@QAEIXZ		; i3ClassMeta::GetClassSize
PUBLIC	?GetClassNameA@i3ClassMeta@@QAEPADXZ		; i3ClassMeta::GetClassNameA
PUBLIC	?IsExactTypeOf@i3ClassMeta@@QAE_NPAV1@@Z	; i3ClassMeta::IsExactTypeOf
PUBLIC	?SetStyle@i3ClassMeta@@QAEXI@Z			; i3ClassMeta::SetStyle
PUBLIC	?GetStyle@i3ClassMeta@@QAEIXZ			; i3ClassMeta::GetStyle
PUBLIC	?AddStyle@i3ClassMeta@@QAEXI@Z			; i3ClassMeta::AddStyle
PUBLIC	?RemoveStyle@i3ClassMeta@@QAEXI@Z		; i3ClassMeta::RemoveStyle
PUBLIC	?IsStyle@i3ClassMeta@@QAEHI@Z			; i3ClassMeta::IsStyle
PUBLIC	?IsAbstractClass@i3ClassMeta@@QAEHXZ		; i3ClassMeta::IsAbstractClass
PUBLIC	?IsConcreteClass@i3ClassMeta@@QAEHXZ		; i3ClassMeta::IsConcreteClass
PUBLIC	?GetBaseClassMeta@i3ClassMeta@@QAEPAV1@XZ	; i3ClassMeta::GetBaseClassMeta
PUBLIC	?getHashCode@i3ClassMeta@@QAEIXZ		; i3ClassMeta::getHashCode
PUBLIC	??0i3ClassMeta@@QAE@ABV0@@Z			; i3ClassMeta::i3ClassMeta
PUBLIC	??4i3ClassMeta@@QAEAAV0@ABV0@@Z			; i3ClassMeta::operator=
PUBLIC	??_Gi3ClassMeta@@UAEPAXI@Z			; i3ClassMeta::`scalar deleting destructor'
PUBLIC	??_Ei3ClassMeta@@UAEPAXI@Z			; i3ClassMeta::`vector deleting destructor'
PUBLIC	?GetClassMeta@i3ElementBase@@SAPAVi3ClassMeta@@XZ ; i3ElementBase::GetClassMeta
PUBLIC	?GetRefCount@i3ElementBase@@QAEHXZ		; i3ElementBase::GetRefCount
PUBLIC	?__SetMemoryPool@i3ElementBase@@QAEXPAVi3MemoryPool@@@Z ; i3ElementBase::__SetMemoryPool
PUBLIC	?__GetMemoryPool@i3ElementBase@@QAEPAVi3MemoryPool@@XZ ; i3ElementBase::__GetMemoryPool
PUBLIC	?IsExactTypeOf@i3ElementBase@@QAE_NPAVi3ClassMeta@@@Z ; i3ElementBase::IsExactTypeOf
PUBLIC	?IsTypeOf@i3ElementBase@@QAE_NPAVi3ClassMeta@@@Z ; i3ElementBase::IsTypeOf
PUBLIC	?AddRef@i3ElementBase@@QAEHXZ			; i3ElementBase::AddRef
PUBLIC	?_internal_SetRefCount@i3ElementBase@@QAEXH@Z	; i3ElementBase::_internal_SetRefCount
PUBLIC	??0i3ElementBase@@QAE@ABV0@@Z			; i3ElementBase::i3ElementBase
PUBLIC	??4i3ElementBase@@QAEAAV0@ABV0@@Z		; i3ElementBase::operator=
PUBLIC	??_Gi3ElementBase@@UAEPAXI@Z			; i3ElementBase::`scalar deleting destructor'
PUBLIC	??_Ei3ElementBase@@UAEPAXI@Z			; i3ElementBase::`vector deleting destructor'
PUBLIC	??0i3MemoryPool@@QAE@ABV0@@Z			; i3MemoryPool::i3MemoryPool
PUBLIC	??4i3MemoryPool@@QAEAAV0@ABV0@@Z		; i3MemoryPool::operator=
PUBLIC	??_Gi3MemoryPool@@UAEPAXI@Z			; i3MemoryPool::`scalar deleting destructor'
PUBLIC	??_Ei3MemoryPool@@UAEPAXI@Z			; i3MemoryPool::`vector deleting destructor'
PUBLIC	?GetClassMeta@i3Mutex@@SAPAVi3ClassMeta@@XZ	; i3Mutex::GetClassMeta
PUBLIC	??0i3Mutex@@QAE@ABV0@@Z				; i3Mutex::i3Mutex
PUBLIC	??4i3Mutex@@QAEAAV0@ABV0@@Z			; i3Mutex::operator=
PUBLIC	??_Gi3Mutex@@UAEPAXI@Z				; i3Mutex::`scalar deleting destructor'
PUBLIC	??_Ei3Mutex@@UAEPAXI@Z				; i3Mutex::`vector deleting destructor'
PUBLIC	??4i3Mutex2@@QAEAAV0@ABV0@@Z			; i3Mutex2::operator=
PUBLIC	??4i3Monitor2@@QAEAAV0@ABV0@@Z			; i3Monitor2::operator=
PUBLIC	?GetClassMeta@i3RingBuffer@@SAPAVi3ClassMeta@@XZ ; i3RingBuffer::GetClassMeta
PUBLIC	??0i3RingBuffer@@QAE@ABV0@@Z			; i3RingBuffer::i3RingBuffer
PUBLIC	??4i3RingBuffer@@QAEAAV0@ABV0@@Z		; i3RingBuffer::operator=
PUBLIC	??_Gi3RingBuffer@@UAEPAXI@Z			; i3RingBuffer::`scalar deleting destructor'
PUBLIC	??_Ei3RingBuffer@@UAEPAXI@Z			; i3RingBuffer::`vector deleting destructor'
PUBLIC	??4i3Warning@@QAEAAV0@ABV0@@Z			; i3Warning::operator=
PUBLIC	?GetClassMeta@i3LogFileBase@@SAPAVi3ClassMeta@@XZ ; i3LogFileBase::GetClassMeta
PUBLIC	?_UpdateTime@i3LogFileBase@@IAEXXZ		; i3LogFileBase::_UpdateTime
PUBLIC	?GetWarning@i3LogFileBase@@QAE?AVi3Warning@@XZ	; i3LogFileBase::GetWarning
PUBLIC	??0i3LogFileBase@@QAE@ABV0@@Z			; i3LogFileBase::i3LogFileBase
PUBLIC	??4i3LogFileBase@@QAEAAV0@ABV0@@Z		; i3LogFileBase::operator=
PUBLIC	??_Gi3LogFileBase@@UAEPAXI@Z			; i3LogFileBase::`scalar deleting destructor'
PUBLIC	??_Ei3LogFileBase@@UAEPAXI@Z			; i3LogFileBase::`vector deleting destructor'
PUBLIC	?GetClassMeta@i3LogFileA@@SAPAVi3ClassMeta@@XZ	; i3LogFileA::GetClassMeta
PUBLIC	?GetMeta@i3LogFileA@@UAEPAVi3ClassMeta@@XZ	; i3LogFileA::GetMeta
PUBLIC	?RegisterMeta@i3LogFileA@@SAXXZ			; i3LogFileA::RegisterMeta
PUBLIC	?SetConcreteClass@i3LogFileA@@SAXPAVi3ClassMeta@@@Z ; i3LogFileA::SetConcreteClass
PUBLIC	?SetGhostClass@i3LogFileA@@SAXPAVi3ClassMeta@@@Z ; i3LogFileA::SetGhostClass
PUBLIC	?_NewObject@i3LogFileA@@SAPAV1@XZ		; i3LogFileA::_NewObject
PUBLIC	?_NewObjectRef@i3LogFileA@@SAPAV1@XZ		; i3LogFileA::_NewObjectRef
PUBLIC	?_BindObject@i3LogFileA@@SAPAV1@PAX@Z		; i3LogFileA::_BindObject
PUBLIC	?_BindObjectRef@i3LogFileA@@SAPAV1@PAX@Z	; i3LogFileA::_BindObjectRef
PUBLIC	?_NewObjectByType@i3LogFileA@@SAPAV1@W4I3_CLASSMETA_TYPE@@@Z ; i3LogFileA::_NewObjectByType
PUBLIC	?_NewObjectRefByType@i3LogFileA@@SAPAV1@W4I3_CLASSMETA_TYPE@@@Z ; i3LogFileA::_NewObjectRefByType
PUBLIC	?_BindObjectByType@i3LogFileA@@SAPAV1@PAXW4I3_CLASSMETA_TYPE@@@Z ; i3LogFileA::_BindObjectByType
PUBLIC	?_BindObjectRefByType@i3LogFileA@@SAPAV1@PAXW4I3_CLASSMETA_TYPE@@@Z ; i3LogFileA::_BindObjectRefByType
PUBLIC	?_CreateFile@i3LogFileA@@MAEHXZ			; i3LogFileA::_CreateFile
PUBLIC	?_WriteLogFile@i3LogFileA@@IAEXPAD@Z		; i3LogFileA::_WriteLogFile
PUBLIC	?_Working@i3LogFileA@@MAEHXZ			; i3LogFileA::_Working
PUBLIC	?_WriteLog@i3LogFileA@@IAEXPAD@Z		; i3LogFileA::_WriteLog
PUBLIC	??0i3LogFileA@@QAE@XZ				; i3LogFileA::i3LogFileA
PUBLIC	??1i3LogFileA@@UAE@XZ				; i3LogFileA::~i3LogFileA
PUBLIC	?Create@i3LogFileA@@QAEHPAD0HHH@Z		; i3LogFileA::Create
PUBLIC	?Destroy@i3LogFileA@@QAEXXZ			; i3LogFileA::Destroy
PUBLIC	?AddLogThread@i3LogFileA@@QAEHPADHK@Z		; i3LogFileA::AddLogThread
PUBLIC	?WriteLog@i3LogFileA@@QAAXPADZZ			; i3LogFileA::WriteLog
PUBLIC	?WriteLog@i3LogFileA@@QAAXHHPADZZ		; i3LogFileA::WriteLog
PUBLIC	??0i3LogFileA@@QAE@ABV0@@Z			; i3LogFileA::i3LogFileA
PUBLIC	??4i3LogFileA@@QAEAAV0@ABV0@@Z			; i3LogFileA::operator=
PUBLIC	??_Gi3LogFileA@@UAEPAXI@Z			; i3LogFileA::`scalar deleting destructor'
PUBLIC	??_Ei3LogFileA@@UAEPAXI@Z			; i3LogFileA::`vector deleting destructor'
PUBLIC	??0?$i3MetaTemplate@Vi3LogFileA@@@@QAE@IPAD0W4I3_CLASSMETA_TYPE@@@Z ; i3MetaTemplate<i3LogFileA>::i3MetaTemplate<i3LogFileA>
PUBLIC	?_OptionsStorage@?1??__local_stdio_printf_options@@9@4_KA ; `__local_stdio_printf_options'::`2'::_OptionsStorage
PUBLIC	??_7i3ClassMeta@@6B@				; i3ClassMeta::`vftable'
PUBLIC	??_7i3ElementBase@@6B@				; i3ElementBase::`vftable'
PUBLIC	??_7i3MemoryPool@@6B@				; i3MemoryPool::`vftable'
PUBLIC	??_7i3Mutex@@6B@				; i3Mutex::`vftable'
PUBLIC	??_7i3RingBuffer@@6B@				; i3RingBuffer::`vftable'
PUBLIC	??_7i3LogFileBase@@6B@				; i3LogFileBase::`vftable'
PUBLIC	??_7i3LogFileA@@6B@				; i3LogFileA::`vftable'
PUBLIC	??_C@_05BMGBEOOC@?$CFs?2?$CFs@			; `string'
PUBLIC	??_C@_08PDOIDENO@19?305?327@			; `string'
PUBLIC	??_C@_0M@GNMHGPLF@Mar?517?52026@		; `string'
PUBLIC	??_C@_0FM@JPNPCLLK@?9?9?5COMPILE?5DATE?5?3?5Ver?3?$CFd?4?$CFd?4?$CFd?4@ ; `string'
PUBLIC	??_C@_0L@HGIEDNJL@Log?5?3?5?$CFls?6@		; `string'
PUBLIC	??_C@_0BJ@FOGCPFMO@?$FL?$CF02d?3?$CF02d?3?$CF02d?$FN?$FL?$CFs?$FN?$CFs?$AN?6@ ; `string'
PUBLIC	??_C@_0BL@EDDEFHCJ@?$CFs_?$CF02d_?$CF02d_?$CF02d_?$CF02d?4txt@ ; `string'
PUBLIC	??_R4i3ElementBase@@6B@				; i3ElementBase::`RTTI Complete Object Locator'
PUBLIC	??_R0?AVi3ElementBase@@@8			; i3ElementBase `RTTI Type Descriptor'
PUBLIC	??_R3i3ElementBase@@8				; i3ElementBase::`RTTI Class Hierarchy Descriptor'
PUBLIC	??_R2i3ElementBase@@8				; i3ElementBase::`RTTI Base Class Array'
PUBLIC	??_R1A@?0A@EA@i3ElementBase@@8			; i3ElementBase::`RTTI Base Class Descriptor at (0,-1,0,64)'
PUBLIC	??_R4i3MemoryPool@@6B@				; i3MemoryPool::`RTTI Complete Object Locator'
PUBLIC	??_R0?AVi3MemoryPool@@@8			; i3MemoryPool `RTTI Type Descriptor'
PUBLIC	??_R3i3MemoryPool@@8				; i3MemoryPool::`RTTI Class Hierarchy Descriptor'
PUBLIC	??_R2i3MemoryPool@@8				; i3MemoryPool::`RTTI Base Class Array'
PUBLIC	??_R1A@?0A@EA@i3MemoryPool@@8			; i3MemoryPool::`RTTI Base Class Descriptor at (0,-1,0,64)'
PUBLIC	??_R4i3ClassMeta@@6B@				; i3ClassMeta::`RTTI Complete Object Locator'
PUBLIC	??_R4i3Mutex@@6B@				; i3Mutex::`RTTI Complete Object Locator'
PUBLIC	??_R0?AVi3Mutex@@@8				; i3Mutex `RTTI Type Descriptor'
PUBLIC	??_R3i3Mutex@@8					; i3Mutex::`RTTI Class Hierarchy Descriptor'
PUBLIC	??_R2i3Mutex@@8					; i3Mutex::`RTTI Base Class Array'
PUBLIC	??_R1A@?0A@EA@i3Mutex@@8			; i3Mutex::`RTTI Base Class Descriptor at (0,-1,0,64)'
PUBLIC	??_R4i3RingBuffer@@6B@				; i3RingBuffer::`RTTI Complete Object Locator'
PUBLIC	??_R0?AVi3RingBuffer@@@8			; i3RingBuffer `RTTI Type Descriptor'
PUBLIC	??_R3i3RingBuffer@@8				; i3RingBuffer::`RTTI Class Hierarchy Descriptor'
PUBLIC	??_R2i3RingBuffer@@8				; i3RingBuffer::`RTTI Base Class Array'
PUBLIC	??_R1A@?0A@EA@i3RingBuffer@@8			; i3RingBuffer::`RTTI Base Class Descriptor at (0,-1,0,64)'
PUBLIC	??_R4i3LogFileBase@@6B@				; i3LogFileBase::`RTTI Complete Object Locator'
PUBLIC	??_R0?AVi3LogFileBase@@@8			; i3LogFileBase `RTTI Type Descriptor'
PUBLIC	??_R3i3LogFileBase@@8				; i3LogFileBase::`RTTI Class Hierarchy Descriptor'
PUBLIC	??_R2i3LogFileBase@@8				; i3LogFileBase::`RTTI Base Class Array'
PUBLIC	??_R1A@?0A@EA@i3LogFileBase@@8			; i3LogFileBase::`RTTI Base Class Descriptor at (0,-1,0,64)'
PUBLIC	??_R4i3LogFileA@@6B@				; i3LogFileA::`RTTI Complete Object Locator'
PUBLIC	??_R0?AVi3LogFileA@@@8				; i3LogFileA `RTTI Type Descriptor'
PUBLIC	??_R3i3LogFileA@@8				; i3LogFileA::`RTTI Class Hierarchy Descriptor'
PUBLIC	??_R2i3LogFileA@@8				; i3LogFileA::`RTTI Base Class Array'
PUBLIC	??_R1A@?0A@EA@i3LogFileA@@8			; i3LogFileA::`RTTI Base Class Descriptor at (0,-1,0,64)'
EXTRN	??_M@YGXPAXIIP6EX0@Z@Z:PROC			; `eh vector destructor iterator'
EXTRN	__purecall:PROC
EXTRN	??3@YAXPAX@Z:PROC				; operator delete
EXTRN	??3@YAXPAXI@Z:PROC				; operator delete
EXTRN	??_V@YAXPAX@Z:PROC				; operator delete[]
EXTRN	??_V@YAXPAXI@Z:PROC				; operator delete[]
EXTRN	_atexit:PROC
EXTRN	__imp__CreateFileA@28:PROC
EXTRN	__imp__SetFilePointer@16:PROC
EXTRN	__imp__WriteFile@20:PROC
EXTRN	__imp__CloseHandle@4:PROC
EXTRN	__imp__GetLocalTime@4:PROC
EXTRN	___acrt_iob_func:PROC
EXTRN	___stdio_common_vfprintf:PROC
EXTRN	___stdio_common_vsprintf:PROC
EXTRN	??0i3ClassMeta@@QAE@IPAD0W4I3_CLASSMETA_TYPE@@@Z:PROC ; i3ClassMeta::i3ClassMeta
EXTRN	??1i3ClassMeta@@UAE@XZ:PROC			; i3ClassMeta::~i3ClassMeta
EXTRN	?CreateInstance@i3ClassMeta@@UAEPAVi3ElementBase@@W4I3_CLASSMETA_TYPE@@@Z:PROC ; i3ClassMeta::CreateInstance
EXTRN	?BindInstance@i3ClassMeta@@UAEPAVi3ElementBase@@PAXW4I3_CLASSMETA_TYPE@@@Z:PROC ; i3ClassMeta::BindInstance
EXTRN	?IsTypeOf@i3ClassMeta@@QAE_NPAV1@@Z:PROC	; i3ClassMeta::IsTypeOf
EXTRN	?Register@i3ClassMeta@@QAEXXZ:PROC		; i3ClassMeta::Register
EXTRN	?GetConcreteClass@i3ClassMeta@@QAEPAV1@W4I3_CLASSMETA_TYPE@@@Z:PROC ; i3ClassMeta::GetConcreteClass
EXTRN	?SetConcreteClass@i3ClassMeta@@QAEXPAV1@@Z:PROC	; i3ClassMeta::SetConcreteClass
EXTRN	?SetGhostClass@i3ClassMeta@@QAEXPAV1@@Z:PROC	; i3ClassMeta::SetGhostClass
EXTRN	?GetMeta@i3ElementBase@@UAEPAVi3ClassMeta@@XZ:PROC ; i3ElementBase::GetMeta
EXTRN	??1i3ElementBase@@UAE@XZ:PROC			; i3ElementBase::~i3ElementBase
EXTRN	??2i3ElementBase@@SAPAXI@Z:PROC			; i3ElementBase::operator new
EXTRN	??2i3ElementBase@@SAPAXIPAX@Z:PROC		; i3ElementBase::operator new
EXTRN	??3i3ElementBase@@SAXPAX@Z:PROC			; i3ElementBase::operator delete
EXTRN	??3i3ElementBase@@SAXPAX0@Z:PROC		; i3ElementBase::operator delete
EXTRN	?CopyTo@i3ElementBase@@UAEXPAV1@W4I3_COPY_METHOD@@@Z:PROC ; i3ElementBase::CopyTo
EXTRN	??1i3MemoryPool@@UAE@XZ:PROC			; i3MemoryPool::~i3MemoryPool
EXTRN	?GetMeta@i3Mutex@@UAEPAVi3ClassMeta@@XZ:PROC	; i3Mutex::GetMeta
EXTRN	??1i3Mutex@@UAE@XZ:PROC				; i3Mutex::~i3Mutex
EXTRN	?Enter@i3Mutex@@QAEXXZ:PROC			; i3Mutex::Enter
EXTRN	?Leave@i3Mutex@@QAEXXZ:PROC			; i3Mutex::Leave
EXTRN	?GetMeta@i3RingBuffer@@UAEPAVi3ClassMeta@@XZ:PROC ; i3RingBuffer::GetMeta
EXTRN	?_NewObject@i3RingBuffer@@SAPAV1@XZ:PROC	; i3RingBuffer::_NewObject
EXTRN	??1i3RingBuffer@@UAE@XZ:PROC			; i3RingBuffer::~i3RingBuffer
EXTRN	?Create@i3RingBuffer@@QAEHHH@Z:PROC		; i3RingBuffer::Create
EXTRN	?GetBufferCount@i3RingBuffer@@QAEHXZ:PROC	; i3RingBuffer::GetBufferCount
EXTRN	?PushPointer@i3RingBuffer@@QAEPAXXZ:PROC	; i3RingBuffer::PushPointer
EXTRN	?PushPointerIdx@i3RingBuffer@@QAEXXZ:PROC	; i3RingBuffer::PushPointerIdx
EXTRN	?Pop@i3RingBuffer@@QAEPAXXZ:PROC		; i3RingBuffer::Pop
EXTRN	?PopIdx@i3RingBuffer@@QAEXXZ:PROC		; i3RingBuffer::PopIdx
EXTRN	?SetWarningInfo@i3Warning@@QAEHHH@Z:PROC	; i3Warning::SetWarningInfo
EXTRN	?GetMeta@i3LogFileBase@@UAEPAVi3ClassMeta@@XZ:PROC ; i3LogFileBase::GetMeta
EXTRN	?_Create@i3LogFileBase@@IAEHHHH@Z:PROC		; i3LogFileBase::_Create
EXTRN	?_FindWorkIdx@i3LogFileBase@@IAEHXZ:PROC	; i3LogFileBase::_FindWorkIdx
EXTRN	?_FindWorkIdx@i3LogFileBase@@IAEHK@Z:PROC	; i3LogFileBase::_FindWorkIdx
EXTRN	?_CreateFile@i3LogFileBase@@MAEHXZ:PROC		; i3LogFileBase::_CreateFile
EXTRN	?_Working@i3LogFileBase@@MAEHXZ:PROC		; i3LogFileBase::_Working
EXTRN	??0i3LogFileBase@@QAE@XZ:PROC			; i3LogFileBase::i3LogFileBase
EXTRN	??1i3LogFileBase@@UAE@XZ:PROC			; i3LogFileBase::~i3LogFileBase
EXTRN	?Copy@i3String@@YAXPADPBDH@Z:PROC		; i3String::Copy
EXTRN	?Length@i3String@@YAHPBD@Z:PROC			; i3String::Length
EXTRN	?Format@i3String@@YAHPADHPBDZZ:PROC		; i3String::Format
EXTRN	@__security_check_cookie@4:PROC
EXTRN	___CxxFrameHandler3:PROC
EXTRN	?s_pClassMetai3ElementBase@i3ElementBase@@2PAVi3ClassMeta@@A:DWORD ; i3ElementBase::s_pClassMetai3ElementBase
EXTRN	?s_pClassMetai3Mutex@i3Mutex@@2PAVi3ClassMeta@@A:DWORD ; i3Mutex::s_pClassMetai3Mutex
EXTRN	?s_pClassMetai3RingBuffer@i3RingBuffer@@2PAVi3ClassMeta@@A:DWORD ; i3RingBuffer::s_pClassMetai3RingBuffer
EXTRN	?s_pClassMetai3LogFileBase@i3LogFileBase@@2PAVi3ClassMeta@@A:DWORD ; i3LogFileBase::s_pClassMetai3LogFileBase
EXTRN	___security_cookie:DWORD
;	COMDAT ?_OptionsStorage@?1??__local_stdio_printf_options@@9@4_KA
_BSS	SEGMENT
?_OptionsStorage@?1??__local_stdio_printf_options@@9@4_KA DQ 01H DUP (?) ; `__local_stdio_printf_options'::`2'::_OptionsStorage
_BSS	ENDS
_BSS	SEGMENT
?s_ClassMetai3LogFileA@@3V?$i3MetaTemplate@Vi3LogFileA@@@@A DB 038H DUP (?) ; s_ClassMetai3LogFileA
_BSS	ENDS
CRT$XCU	SEGMENT
?s_ClassMetai3LogFileA$initializer$@@3P6AXXZA DD FLAT:??__Es_ClassMetai3LogFileA@@YAXXZ ; s_ClassMetai3LogFileA$initializer$
CRT$XCU	ENDS
;	COMDAT ??_R1A@?0A@EA@i3LogFileA@@8
rdata$r	SEGMENT
??_R1A@?0A@EA@i3LogFileA@@8 DD FLAT:??_R0?AVi3LogFileA@@@8 ; i3LogFileA::`RTTI Base Class Descriptor at (0,-1,0,64)'
	DD	02H
	DD	00H
	DD	0ffffffffH
	DD	00H
	DD	040H
	DD	FLAT:??_R3i3LogFileA@@8
rdata$r	ENDS
;	COMDAT ??_R2i3LogFileA@@8
rdata$r	SEGMENT
??_R2i3LogFileA@@8 DD FLAT:??_R1A@?0A@EA@i3LogFileA@@8	; i3LogFileA::`RTTI Base Class Array'
	DD	FLAT:??_R1A@?0A@EA@i3LogFileBase@@8
	DD	FLAT:??_R1A@?0A@EA@i3ElementBase@@8
rdata$r	ENDS
;	COMDAT ??_R3i3LogFileA@@8
rdata$r	SEGMENT
??_R3i3LogFileA@@8 DD 00H				; i3LogFileA::`RTTI Class Hierarchy Descriptor'
	DD	00H
	DD	03H
	DD	FLAT:??_R2i3LogFileA@@8
rdata$r	ENDS
;	COMDAT ??_R0?AVi3LogFileA@@@8
data$rs	SEGMENT
??_R0?AVi3LogFileA@@@8 DD FLAT:??_7type_info@@6B@	; i3LogFileA `RTTI Type Descriptor'
	DD	00H
	DB	'.?AVi3LogFileA@@', 00H
data$rs	ENDS
;	COMDAT ??_R4i3LogFileA@@6B@
rdata$r	SEGMENT
??_R4i3LogFileA@@6B@ DD 00H				; i3LogFileA::`RTTI Complete Object Locator'
	DD	00H
	DD	00H
	DD	FLAT:??_R0?AVi3LogFileA@@@8
	DD	FLAT:??_R3i3LogFileA@@8
rdata$r	ENDS
;	COMDAT ??_R1A@?0A@EA@i3LogFileBase@@8
rdata$r	SEGMENT
??_R1A@?0A@EA@i3LogFileBase@@8 DD FLAT:??_R0?AVi3LogFileBase@@@8 ; i3LogFileBase::`RTTI Base Class Descriptor at (0,-1,0,64)'
	DD	01H
	DD	00H
	DD	0ffffffffH
	DD	00H
	DD	040H
	DD	FLAT:??_R3i3LogFileBase@@8
rdata$r	ENDS
;	COMDAT ??_R2i3LogFileBase@@8
rdata$r	SEGMENT
??_R2i3LogFileBase@@8 DD FLAT:??_R1A@?0A@EA@i3LogFileBase@@8 ; i3LogFileBase::`RTTI Base Class Array'
	DD	FLAT:??_R1A@?0A@EA@i3ElementBase@@8
rdata$r	ENDS
;	COMDAT ??_R3i3LogFileBase@@8
rdata$r	SEGMENT
??_R3i3LogFileBase@@8 DD 00H				; i3LogFileBase::`RTTI Class Hierarchy Descriptor'
	DD	00H
	DD	02H
	DD	FLAT:??_R2i3LogFileBase@@8
rdata$r	ENDS
;	COMDAT ??_R0?AVi3LogFileBase@@@8
data$rs	SEGMENT
??_R0?AVi3LogFileBase@@@8 DD FLAT:??_7type_info@@6B@	; i3LogFileBase `RTTI Type Descriptor'
	DD	00H
	DB	'.?AVi3LogFileBase@@', 00H
data$rs	ENDS
;	COMDAT ??_R4i3LogFileBase@@6B@
rdata$r	SEGMENT
??_R4i3LogFileBase@@6B@ DD 00H				; i3LogFileBase::`RTTI Complete Object Locator'
	DD	00H
	DD	00H
	DD	FLAT:??_R0?AVi3LogFileBase@@@8
	DD	FLAT:??_R3i3LogFileBase@@8
rdata$r	ENDS
;	COMDAT ??_R1A@?0A@EA@i3RingBuffer@@8
rdata$r	SEGMENT
??_R1A@?0A@EA@i3RingBuffer@@8 DD FLAT:??_R0?AVi3RingBuffer@@@8 ; i3RingBuffer::`RTTI Base Class Descriptor at (0,-1,0,64)'
	DD	01H
	DD	00H
	DD	0ffffffffH
	DD	00H
	DD	040H
	DD	FLAT:??_R3i3RingBuffer@@8
rdata$r	ENDS
;	COMDAT ??_R2i3RingBuffer@@8
rdata$r	SEGMENT
??_R2i3RingBuffer@@8 DD FLAT:??_R1A@?0A@EA@i3RingBuffer@@8 ; i3RingBuffer::`RTTI Base Class Array'
	DD	FLAT:??_R1A@?0A@EA@i3ElementBase@@8
rdata$r	ENDS
;	COMDAT ??_R3i3RingBuffer@@8
rdata$r	SEGMENT
??_R3i3RingBuffer@@8 DD 00H				; i3RingBuffer::`RTTI Class Hierarchy Descriptor'
	DD	00H
	DD	02H
	DD	FLAT:??_R2i3RingBuffer@@8
rdata$r	ENDS
;	COMDAT ??_R0?AVi3RingBuffer@@@8
data$rs	SEGMENT
??_R0?AVi3RingBuffer@@@8 DD FLAT:??_7type_info@@6B@	; i3RingBuffer `RTTI Type Descriptor'
	DD	00H
	DB	'.?AVi3RingBuffer@@', 00H
data$rs	ENDS
;	COMDAT ??_R4i3RingBuffer@@6B@
rdata$r	SEGMENT
??_R4i3RingBuffer@@6B@ DD 00H				; i3RingBuffer::`RTTI Complete Object Locator'
	DD	00H
	DD	00H
	DD	FLAT:??_R0?AVi3RingBuffer@@@8
	DD	FLAT:??_R3i3RingBuffer@@8
rdata$r	ENDS
;	COMDAT ??_R1A@?0A@EA@i3Mutex@@8
rdata$r	SEGMENT
??_R1A@?0A@EA@i3Mutex@@8 DD FLAT:??_R0?AVi3Mutex@@@8	; i3Mutex::`RTTI Base Class Descriptor at (0,-1,0,64)'
	DD	01H
	DD	00H
	DD	0ffffffffH
	DD	00H
	DD	040H
	DD	FLAT:??_R3i3Mutex@@8
rdata$r	ENDS
;	COMDAT ??_R2i3Mutex@@8
rdata$r	SEGMENT
??_R2i3Mutex@@8 DD FLAT:??_R1A@?0A@EA@i3Mutex@@8	; i3Mutex::`RTTI Base Class Array'
	DD	FLAT:??_R1A@?0A@EA@i3ElementBase@@8
rdata$r	ENDS
;	COMDAT ??_R3i3Mutex@@8
rdata$r	SEGMENT
??_R3i3Mutex@@8 DD 00H					; i3Mutex::`RTTI Class Hierarchy Descriptor'
	DD	00H
	DD	02H
	DD	FLAT:??_R2i3Mutex@@8
rdata$r	ENDS
;	COMDAT ??_R0?AVi3Mutex@@@8
data$rs	SEGMENT
??_R0?AVi3Mutex@@@8 DD FLAT:??_7type_info@@6B@		; i3Mutex `RTTI Type Descriptor'
	DD	00H
	DB	'.?AVi3Mutex@@', 00H
data$rs	ENDS
;	COMDAT ??_R4i3Mutex@@6B@
rdata$r	SEGMENT
??_R4i3Mutex@@6B@ DD 00H				; i3Mutex::`RTTI Complete Object Locator'
	DD	00H
	DD	00H
	DD	FLAT:??_R0?AVi3Mutex@@@8
	DD	FLAT:??_R3i3Mutex@@8
rdata$r	ENDS
;	COMDAT ??_R4i3ClassMeta@@6B@
rdata$r	SEGMENT
??_R4i3ClassMeta@@6B@ DD 00H				; i3ClassMeta::`RTTI Complete Object Locator'
	DD	00H
	DD	00H
	DD	FLAT:??_R0?AVi3ClassMeta@@@8
	DD	FLAT:??_R3i3ClassMeta@@8
rdata$r	ENDS
;	COMDAT ??_R1A@?0A@EA@i3MemoryPool@@8
rdata$r	SEGMENT
??_R1A@?0A@EA@i3MemoryPool@@8 DD FLAT:??_R0?AVi3MemoryPool@@@8 ; i3MemoryPool::`RTTI Base Class Descriptor at (0,-1,0,64)'
	DD	00H
	DD	00H
	DD	0ffffffffH
	DD	00H
	DD	040H
	DD	FLAT:??_R3i3MemoryPool@@8
rdata$r	ENDS
;	COMDAT ??_R2i3MemoryPool@@8
rdata$r	SEGMENT
??_R2i3MemoryPool@@8 DD FLAT:??_R1A@?0A@EA@i3MemoryPool@@8 ; i3MemoryPool::`RTTI Base Class Array'
rdata$r	ENDS
;	COMDAT ??_R3i3MemoryPool@@8
rdata$r	SEGMENT
??_R3i3MemoryPool@@8 DD 00H				; i3MemoryPool::`RTTI Class Hierarchy Descriptor'
	DD	00H
	DD	01H
	DD	FLAT:??_R2i3MemoryPool@@8
rdata$r	ENDS
;	COMDAT ??_R0?AVi3MemoryPool@@@8
data$rs	SEGMENT
??_R0?AVi3MemoryPool@@@8 DD FLAT:??_7type_info@@6B@	; i3MemoryPool `RTTI Type Descriptor'
	DD	00H
	DB	'.?AVi3MemoryPool@@', 00H
data$rs	ENDS
;	COMDAT ??_R4i3MemoryPool@@6B@
rdata$r	SEGMENT
??_R4i3MemoryPool@@6B@ DD 00H				; i3MemoryPool::`RTTI Complete Object Locator'
	DD	00H
	DD	00H
	DD	FLAT:??_R0?AVi3MemoryPool@@@8
	DD	FLAT:??_R3i3MemoryPool@@8
rdata$r	ENDS
;	COMDAT ??_R1A@?0A@EA@i3ElementBase@@8
rdata$r	SEGMENT
??_R1A@?0A@EA@i3ElementBase@@8 DD FLAT:??_R0?AVi3ElementBase@@@8 ; i3ElementBase::`RTTI Base Class Descriptor at (0,-1,0,64)'
	DD	00H
	DD	00H
	DD	0ffffffffH
	DD	00H
	DD	040H
	DD	FLAT:??_R3i3ElementBase@@8
rdata$r	ENDS
;	COMDAT ??_R2i3ElementBase@@8
rdata$r	SEGMENT
??_R2i3ElementBase@@8 DD FLAT:??_R1A@?0A@EA@i3ElementBase@@8 ; i3ElementBase::`RTTI Base Class Array'
rdata$r	ENDS
;	COMDAT ??_R3i3ElementBase@@8
rdata$r	SEGMENT
??_R3i3ElementBase@@8 DD 00H				; i3ElementBase::`RTTI Class Hierarchy Descriptor'
	DD	00H
	DD	01H
	DD	FLAT:??_R2i3ElementBase@@8
rdata$r	ENDS
;	COMDAT ??_R0?AVi3ElementBase@@@8
data$rs	SEGMENT
??_R0?AVi3ElementBase@@@8 DD FLAT:??_7type_info@@6B@	; i3ElementBase `RTTI Type Descriptor'
	DD	00H
	DB	'.?AVi3ElementBase@@', 00H
data$rs	ENDS
;	COMDAT ??_R4i3ElementBase@@6B@
rdata$r	SEGMENT
??_R4i3ElementBase@@6B@ DD 00H				; i3ElementBase::`RTTI Complete Object Locator'
	DD	00H
	DD	00H
	DD	FLAT:??_R0?AVi3ElementBase@@@8
	DD	FLAT:??_R3i3ElementBase@@8
rdata$r	ENDS
;	COMDAT ??_C@_0BL@EDDEFHCJ@?$CFs_?$CF02d_?$CF02d_?$CF02d_?$CF02d?4txt@
CONST	SEGMENT
??_C@_0BL@EDDEFHCJ@?$CFs_?$CF02d_?$CF02d_?$CF02d_?$CF02d?4txt@ DB '%s_%02'
	DB	'd_%02d_%02d_%02d.txt', 00H			; `string'
CONST	ENDS
;	COMDAT ??_C@_0BJ@FOGCPFMO@?$FL?$CF02d?3?$CF02d?3?$CF02d?$FN?$FL?$CFs?$FN?$CFs?$AN?6@
CONST	SEGMENT
??_C@_0BJ@FOGCPFMO@?$FL?$CF02d?3?$CF02d?3?$CF02d?$FN?$FL?$CFs?$FN?$CFs?$AN?6@ DB '['
	DB	'%02d:%02d:%02d][%s]%s', 0dH, 0aH, 00H	; `string'
CONST	ENDS
;	COMDAT ??_C@_0L@HGIEDNJL@Log?5?3?5?$CFls?6@
CONST	SEGMENT
??_C@_0L@HGIEDNJL@Log?5?3?5?$CFls?6@ DB 'Log : %ls', 0aH, 00H ; `string'
CONST	ENDS
;	COMDAT ??_C@_0FM@JPNPCLLK@?9?9?5COMPILE?5DATE?5?3?5Ver?3?$CFd?4?$CFd?4?$CFd?4@
CONST	SEGMENT
??_C@_0FM@JPNPCLLK@?9?9?5COMPILE?5DATE?5?3?5Ver?3?$CFd?4?$CFd?4?$CFd?4@ DB '-'
	DB	'- COMPILE DATE : Ver:%d.%d.%d.%d, BuildDate:%s %s, StartDate:'
	DB	'%04d-%02d-%02d %02d:%02d --', 0dH, 0aH, 00H	; `string'
CONST	ENDS
;	COMDAT ??_C@_0M@GNMHGPLF@Mar?517?52026@
CONST	SEGMENT
??_C@_0M@GNMHGPLF@Mar?517?52026@ DB 'Mar 17 2026', 00H	; `string'
CONST	ENDS
;	COMDAT ??_C@_08PDOIDENO@19?305?327@
CONST	SEGMENT
??_C@_08PDOIDENO@19?305?327@ DB '19:05:27', 00H		; `string'
CONST	ENDS
;	COMDAT ??_C@_05BMGBEOOC@?$CFs?2?$CFs@
CONST	SEGMENT
??_C@_05BMGBEOOC@?$CFs?2?$CFs@ DB '%s\%s', 00H		; `string'
CONST	ENDS
;	COMDAT ??_7i3LogFileA@@6B@
CONST	SEGMENT
??_7i3LogFileA@@6B@ DD FLAT:??_R4i3LogFileA@@6B@	; i3LogFileA::`vftable'
	DD	FLAT:?GetMeta@i3LogFileA@@UAEPAVi3ClassMeta@@XZ
	DD	FLAT:??_Ei3LogFileA@@UAEPAXI@Z
	DD	FLAT:?CopyTo@i3ElementBase@@UAEXPAV1@W4I3_COPY_METHOD@@@Z
	DD	FLAT:?_CreateFile@i3LogFileA@@MAEHXZ
	DD	FLAT:?_Working@i3LogFileA@@MAEHXZ
CONST	ENDS
;	COMDAT ??_7i3LogFileBase@@6B@
CONST	SEGMENT
??_7i3LogFileBase@@6B@ DD FLAT:??_R4i3LogFileBase@@6B@	; i3LogFileBase::`vftable'
	DD	FLAT:?GetMeta@i3LogFileBase@@UAEPAVi3ClassMeta@@XZ
	DD	FLAT:??_Ei3LogFileBase@@UAEPAXI@Z
	DD	FLAT:?CopyTo@i3ElementBase@@UAEXPAV1@W4I3_COPY_METHOD@@@Z
	DD	FLAT:?_CreateFile@i3LogFileBase@@MAEHXZ
	DD	FLAT:?_Working@i3LogFileBase@@MAEHXZ
CONST	ENDS
;	COMDAT ??_7i3RingBuffer@@6B@
CONST	SEGMENT
??_7i3RingBuffer@@6B@ DD FLAT:??_R4i3RingBuffer@@6B@	; i3RingBuffer::`vftable'
	DD	FLAT:?GetMeta@i3RingBuffer@@UAEPAVi3ClassMeta@@XZ
	DD	FLAT:??_Ei3RingBuffer@@UAEPAXI@Z
	DD	FLAT:?CopyTo@i3ElementBase@@UAEXPAV1@W4I3_COPY_METHOD@@@Z
CONST	ENDS
;	COMDAT ??_7i3Mutex@@6B@
CONST	SEGMENT
??_7i3Mutex@@6B@ DD FLAT:??_R4i3Mutex@@6B@		; i3Mutex::`vftable'
	DD	FLAT:?GetMeta@i3Mutex@@UAEPAVi3ClassMeta@@XZ
	DD	FLAT:??_Ei3Mutex@@UAEPAXI@Z
	DD	FLAT:?CopyTo@i3ElementBase@@UAEXPAV1@W4I3_COPY_METHOD@@@Z
CONST	ENDS
;	COMDAT ??_7i3MemoryPool@@6B@
CONST	SEGMENT
??_7i3MemoryPool@@6B@ DD FLAT:??_R4i3MemoryPool@@6B@	; i3MemoryPool::`vftable'
	DD	FLAT:??_Ei3MemoryPool@@UAEPAXI@Z
	DD	FLAT:__purecall
	DD	FLAT:__purecall
CONST	ENDS
;	COMDAT ??_7i3ElementBase@@6B@
CONST	SEGMENT
??_7i3ElementBase@@6B@ DD FLAT:??_R4i3ElementBase@@6B@	; i3ElementBase::`vftable'
	DD	FLAT:?GetMeta@i3ElementBase@@UAEPAVi3ClassMeta@@XZ
	DD	FLAT:??_Ei3ElementBase@@UAEPAXI@Z
	DD	FLAT:?CopyTo@i3ElementBase@@UAEXPAV1@W4I3_COPY_METHOD@@@Z
CONST	ENDS
;	COMDAT ??_7i3ClassMeta@@6B@
CONST	SEGMENT
??_7i3ClassMeta@@6B@ DD FLAT:??_R4i3ClassMeta@@6B@	; i3ClassMeta::`vftable'
	DD	FLAT:??_Ei3ClassMeta@@UAEPAXI@Z
	DD	FLAT:?CreateInstance@i3ClassMeta@@UAEPAVi3ElementBase@@W4I3_CLASSMETA_TYPE@@@Z
	DD	FLAT:?BindInstance@i3ClassMeta@@UAEPAVi3ElementBase@@PAXW4I3_CLASSMETA_TYPE@@@Z
CONST	ENDS
;	COMDAT xdata$x
xdata$x	SEGMENT
__unwindtable$?BindInstance@?$i3MetaTemplate@Vi3LogFileA@@@@UAEPAVi3ElementBase@@PAXW4I3_CLASSMETA_TYPE@@@Z DD 0ffffffffH
	DD	FLAT:__unwindfunclet$?BindInstance@?$i3MetaTemplate@Vi3LogFileA@@@@UAEPAVi3ElementBase@@PAXW4I3_CLASSMETA_TYPE@@@Z$0
__ehfuncinfo$?BindInstance@?$i3MetaTemplate@Vi3LogFileA@@@@UAEPAVi3ElementBase@@PAXW4I3_CLASSMETA_TYPE@@@Z DD 019930522H
	DD	01H
	DD	FLAT:__unwindtable$?BindInstance@?$i3MetaTemplate@Vi3LogFileA@@@@UAEPAVi3ElementBase@@PAXW4I3_CLASSMETA_TYPE@@@Z
	DD	2 DUP(00H)
	DD	2 DUP(00H)
	DD	00H
	DD	01H
xdata$x	ENDS
;	COMDAT xdata$x
xdata$x	SEGMENT
__unwindtable$?CreateInstance@?$i3MetaTemplate@Vi3LogFileA@@@@UAEPAVi3ElementBase@@W4I3_CLASSMETA_TYPE@@@Z DD 0ffffffffH
	DD	FLAT:__unwindfunclet$?CreateInstance@?$i3MetaTemplate@Vi3LogFileA@@@@UAEPAVi3ElementBase@@W4I3_CLASSMETA_TYPE@@@Z$0
__ehfuncinfo$?CreateInstance@?$i3MetaTemplate@Vi3LogFileA@@@@UAEPAVi3ElementBase@@W4I3_CLASSMETA_TYPE@@@Z DD 019930522H
	DD	01H
	DD	FLAT:__unwindtable$?CreateInstance@?$i3MetaTemplate@Vi3LogFileA@@@@UAEPAVi3ElementBase@@W4I3_CLASSMETA_TYPE@@@Z
	DD	2 DUP(00H)
	DD	2 DUP(00H)
	DD	00H
	DD	01H
xdata$x	ENDS
;	COMDAT xdata$x
xdata$x	SEGMENT
__ehfuncinfo$??_Ei3LogFileA@@UAEPAXI@Z DD 019930522H
	DD	00H
	DD	00H
	DD	2 DUP(00H)
	DD	2 DUP(00H)
	DD	00H
	DD	05H
xdata$x	ENDS
;	COMDAT voltbl
voltbl	SEGMENT
_volmd	DB	010H
voltbl	ENDS
;	COMDAT xdata$x
xdata$x	SEGMENT
__ehfuncinfo$??_Ei3LogFileBase@@UAEPAXI@Z DD 019930522H
	DD	00H
	DD	00H
	DD	2 DUP(00H)
	DD	2 DUP(00H)
	DD	00H
	DD	05H
xdata$x	ENDS
;	COMDAT xdata$x
xdata$x	SEGMENT
__ehfuncinfo$??_Ei3RingBuffer@@UAEPAXI@Z DD 019930522H
	DD	00H
	DD	00H
	DD	2 DUP(00H)
	DD	2 DUP(00H)
	DD	00H
	DD	05H
xdata$x	ENDS
;	COMDAT xdata$x
xdata$x	SEGMENT
__ehfuncinfo$??_Ei3Mutex@@UAEPAXI@Z DD 019930522H
	DD	00H
	DD	00H
	DD	2 DUP(00H)
	DD	2 DUP(00H)
	DD	00H
	DD	05H
xdata$x	ENDS
;	COMDAT xdata$x
xdata$x	SEGMENT
__ehfuncinfo$??_Ei3MemoryPool@@UAEPAXI@Z DD 019930522H
	DD	00H
	DD	00H
	DD	2 DUP(00H)
	DD	2 DUP(00H)
	DD	00H
	DD	05H
xdata$x	ENDS
;	COMDAT xdata$x
xdata$x	SEGMENT
__ehfuncinfo$??_Ei3ElementBase@@UAEPAXI@Z DD 019930522H
	DD	00H
	DD	00H
	DD	2 DUP(00H)
	DD	2 DUP(00H)
	DD	00H
	DD	05H
xdata$x	ENDS
;	COMDAT xdata$x
xdata$x	SEGMENT
__ehfuncinfo$??_Ei3ClassMeta@@UAEPAXI@Z DD 019930522H
	DD	00H
	DD	00H
	DD	2 DUP(00H)
	DD	2 DUP(00H)
	DD	00H
	DD	05H
xdata$x	ENDS
;	COMDAT voltbl
voltbl	SEGMENT
_volmd	DB	010H
voltbl	ENDS
;	COMDAT voltbl
voltbl	SEGMENT
_volmd	DB	010H
voltbl	ENDS
; Function compile flags: /Ogtp
;	COMDAT ??__Fs_ClassMetai3LogFileA@@YAXXZ
text$yd	SEGMENT
??__Fs_ClassMetai3LogFileA@@YAXXZ PROC			; `dynamic atexit destructor for 's_ClassMetai3LogFileA'', COMDAT
  00000	b9 00 00 00 00	 mov	 ecx, OFFSET ?s_ClassMetai3LogFileA@@3V?$i3MetaTemplate@Vi3LogFileA@@@@A
  00005	e9 00 00 00 00	 jmp	 ??1i3ClassMeta@@UAE@XZ	; i3ClassMeta::~i3ClassMeta
??__Fs_ClassMetai3LogFileA@@YAXXZ ENDP			; `dynamic atexit destructor for 's_ClassMetai3LogFileA''
text$yd	ENDS
; Function compile flags: /Ogtp
; File E:\Proyectos\JuegosOnlineproyectos\PB\pbblow\Piercing Blow Remake\i3Server\src\i3Base\i3LogFileA.cpp
; File E:\Proyectos\JuegosOnlineproyectos\PB\pbblow\Piercing Blow Remake\i3Server\include\i3Base\i3MetaTemplate.h
; File E:\Proyectos\JuegosOnlineproyectos\PB\pbblow\Piercing Blow Remake\i3Server\src\i3Base\i3LogFileA.cpp
; File E:\Proyectos\JuegosOnlineproyectos\PB\pbblow\Piercing Blow Remake\i3Server\include\i3Base\i3MetaTemplate.h
; File E:\Proyectos\JuegosOnlineproyectos\PB\pbblow\Piercing Blow Remake\i3Server\src\i3Base\i3LogFileA.cpp
;	COMDAT ??__Es_ClassMetai3LogFileA@@YAXXZ
text$di	SEGMENT
??__Es_ClassMetai3LogFileA@@YAXXZ PROC			; `dynamic initializer for 's_ClassMetai3LogFileA'', COMDAT
; File E:\Proyectos\JuegosOnlineproyectos\PB\pbblow\Piercing Blow Remake\i3Server\include\i3Base\i3MetaTemplate.h

; 28   : : i3ClassMeta( classSz, pszClassName, pszBaseClassName, type)

  00000	6a 00		 push	 0
  00002	68 00 00 00 00	 push	 OFFSET ??_C@_0O@OKJFFLPH@i3LogFileBase@
  00007	68 00 00 00 00	 push	 OFFSET ??_C@_0L@NIPECMID@i3LogFileA@
  0000c	68 f4 0f 00 00	 push	 4084			; 00000ff4H
  00011	b9 00 00 00 00	 mov	 ecx, OFFSET ?s_ClassMetai3LogFileA@@3V?$i3MetaTemplate@Vi3LogFileA@@@@A
  00016	e8 00 00 00 00	 call	 ??0i3ClassMeta@@QAE@IPAD0W4I3_CLASSMETA_TYPE@@@Z ; i3ClassMeta::i3ClassMeta
; File E:\Proyectos\JuegosOnlineproyectos\PB\pbblow\Piercing Blow Remake\i3Server\src\i3Base\i3LogFileA.cpp

; 6    : I3_CLASS_INSTANCE( i3LogFileA, i3LogFileBase );

  0001b	68 00 00 00 00	 push	 OFFSET ??__Fs_ClassMetai3LogFileA@@YAXXZ ; `dynamic atexit destructor for 's_ClassMetai3LogFileA''
; File E:\Proyectos\JuegosOnlineproyectos\PB\pbblow\Piercing Blow Remake\i3Server\include\i3Base\i3MetaTemplate.h

; 29   : {

  00020	c7 05 00 00 00
	00 00 00 00 00	 mov	 DWORD PTR ?s_ClassMetai3LogFileA@@3V?$i3MetaTemplate@Vi3LogFileA@@@@A, OFFSET ??_7?$i3MetaTemplate@Vi3LogFileA@@@@6B@
; File E:\Proyectos\JuegosOnlineproyectos\PB\pbblow\Piercing Blow Remake\i3Server\src\i3Base\i3LogFileA.cpp

; 6    : I3_CLASS_INSTANCE( i3LogFileA, i3LogFileBase );

  0002a	e8 00 00 00 00	 call	 _atexit
  0002f	59		 pop	 ecx
  00030	c3		 ret	 0
??__Es_ClassMetai3LogFileA@@YAXXZ ENDP			; `dynamic initializer for 's_ClassMetai3LogFileA''
text$di	ENDS
; Function compile flags: /Ogtp
;	COMDAT ??_G?$i3MetaTemplate@Vi3LogFileA@@@@UAEPAXI@Z
_TEXT	SEGMENT
___flags$ = 8						; size = 4
??_G?$i3MetaTemplate@Vi3LogFileA@@@@UAEPAXI@Z PROC	; i3MetaTemplate<i3LogFileA>::`scalar deleting destructor', COMDAT
; _this$ = ecx
  00000	55		 push	 ebp
  00001	8b ec		 mov	 ebp, esp
  00003	56		 push	 esi
  00004	8b f1		 mov	 esi, ecx
  00006	e8 00 00 00 00	 call	 ??1i3ClassMeta@@UAE@XZ	; i3ClassMeta::~i3ClassMeta
  0000b	f6 45 08 01	 test	 BYTE PTR ___flags$[ebp], 1
  0000f	74 0b		 je	 SHORT $LN10@scalar
  00011	6a 38		 push	 56			; 00000038H
  00013	56		 push	 esi
  00014	e8 00 00 00 00	 call	 ??3@YAXPAXI@Z		; operator delete
  00019	83 c4 08	 add	 esp, 8
$LN10@scalar:
  0001c	8b c6		 mov	 eax, esi
  0001e	5e		 pop	 esi
  0001f	5d		 pop	 ebp
  00020	c2 04 00	 ret	 4
??_G?$i3MetaTemplate@Vi3LogFileA@@@@UAEPAXI@Z ENDP	; i3MetaTemplate<i3LogFileA>::`scalar deleting destructor'
_TEXT	ENDS
; Function compile flags: /Ogtp
; File E:\Proyectos\JuegosOnlineproyectos\PB\pbblow\Piercing Blow Remake\i3Server\include\i3Base\i3MetaTemplate.h
; File E:\Proyectos\JuegosOnlineproyectos\PB\pbblow\Piercing Blow Remake\i3Server\src\i3Base\i3LogFileA.cpp
; File E:\Proyectos\JuegosOnlineproyectos\PB\pbblow\Piercing Blow Remake\i3Server\include\i3Base\i3MetaTemplate.h
; File E:\Proyectos\JuegosOnlineproyectos\PB\pbblow\Piercing Blow Remake\i3Server\src\i3Base\i3LogFileA.cpp
; File E:\Proyectos\JuegosOnlineproyectos\PB\pbblow\Piercing Blow Remake\i3Server\include\i3Base\i3MetaTemplate.h
;	COMDAT ?BindInstance@?$i3MetaTemplate@Vi3LogFileA@@@@UAEPAVi3ElementBase@@PAXW4I3_CLASSMETA_TYPE@@@Z
_TEXT	SEGMENT
__$EHRec$ = -12						; size = 12
_pBuf$ = 8						; size = 4
_type$ = 12						; size = 4
$T2 = 12						; size = 4
?BindInstance@?$i3MetaTemplate@Vi3LogFileA@@@@UAEPAVi3ElementBase@@PAXW4I3_CLASSMETA_TYPE@@@Z PROC ; i3MetaTemplate<i3LogFileA>::BindInstance, COMDAT
; _this$ = ecx

; 129  : 	{

  00000	55		 push	 ebp
  00001	8b ec		 mov	 ebp, esp
  00003	6a ff		 push	 -1
  00005	68 00 00 00 00	 push	 __ehhandler$?BindInstance@?$i3MetaTemplate@Vi3LogFileA@@@@UAEPAVi3ElementBase@@PAXW4I3_CLASSMETA_TYPE@@@Z
  0000a	64 a1 00 00 00
	00		 mov	 eax, DWORD PTR fs:0
  00010	50		 push	 eax
  00011	56		 push	 esi
  00012	a1 00 00 00 00	 mov	 eax, DWORD PTR ___security_cookie
  00017	33 c5		 xor	 eax, ebp
  00019	50		 push	 eax
  0001a	8d 45 f4	 lea	 eax, DWORD PTR __$EHRec$[ebp]
  0001d	64 a3 00 00 00
	00		 mov	 DWORD PTR fs:0, eax

; 130  : 		if( m_ProxyCount > 0)

  00023	83 79 30 00	 cmp	 DWORD PTR [ecx+48], 0
  00027	7e 26		 jle	 SHORT $LN2@BindInstan

; 131  : 		{
; 132  : 			i3ClassMeta * pMeta = GetConcreteClass( type);

  00029	ff 75 0c	 push	 DWORD PTR _type$[ebp]
  0002c	e8 00 00 00 00	 call	 ?GetConcreteClass@i3ClassMeta@@QAEPAV1@W4I3_CLASSMETA_TYPE@@@Z ; i3ClassMeta::GetConcreteClass

; 133  : 
; 134  : 			return pMeta->BindInstance( pBuf, I3_CLASSMETA_TYPE_GENERAL);

  00031	6a 00		 push	 0
  00033	ff 75 08	 push	 DWORD PTR _pBuf$[ebp]
  00036	8b c8		 mov	 ecx, eax
  00038	8b 10		 mov	 edx, DWORD PTR [eax]
  0003a	ff 52 08	 call	 DWORD PTR [edx+8]

; 144  : 	}

  0003d	8b 4d f4	 mov	 ecx, DWORD PTR __$EHRec$[ebp]
  00040	64 89 0d 00 00
	00 00		 mov	 DWORD PTR fs:0, ecx
  00047	59		 pop	 ecx
  00048	5e		 pop	 esi
  00049	8b e5		 mov	 esp, ebp
  0004b	5d		 pop	 ebp
  0004c	c2 08 00	 ret	 8
$LN2@BindInstan:

; 141  : 				return (i3ElementBase *) new( pBuf ) T;

  0004f	ff 75 08	 push	 DWORD PTR _pBuf$[ebp]
  00052	68 f4 0f 00 00	 push	 4084			; 00000ff4H
  00057	e8 00 00 00 00	 call	 ??2i3ElementBase@@SAPAXIPAX@Z ; i3ElementBase::operator new
  0005c	8b f0		 mov	 esi, eax
  0005e	83 c4 08	 add	 esp, 8
  00061	89 75 0c	 mov	 DWORD PTR $T2[ebp], esi
  00064	c7 45 fc 00 00
	00 00		 mov	 DWORD PTR __$EHRec$[ebp+8], 0
  0006b	85 f6		 test	 esi, esi
  0006d	74 2f		 je	 SHORT $LN5@BindInstan
; File E:\Proyectos\JuegosOnlineproyectos\PB\pbblow\Piercing Blow Remake\i3Server\src\i3Base\i3LogFileA.cpp

; 14   : {

  0006f	8b ce		 mov	 ecx, esi
  00071	e8 00 00 00 00	 call	 ??0i3LogFileBase@@QAE@XZ ; i3LogFileBase::i3LogFileBase
  00076	c7 06 00 00 00
	00		 mov	 DWORD PTR [esi], OFFSET ??_7i3LogFileA@@6B@
; File E:\Proyectos\JuegosOnlineproyectos\PB\pbblow\Piercing Blow Remake\i3Server\include\i3Base\i3MetaTemplate.h

; 141  : 				return (i3ElementBase *) new( pBuf ) T;

  0007c	8b c6		 mov	 eax, esi
; File E:\Proyectos\JuegosOnlineproyectos\PB\pbblow\Piercing Blow Remake\i3Server\src\i3Base\i3LogFileA.cpp

; 15   : 	m_strFileName[0]	= '\0'; 

  0007e	c6 86 0c 04 00
	00 00		 mov	 BYTE PTR [esi+1036], 0

; 16   : 	m_strStartText[0]	= '\0';

  00085	c6 86 f4 0b 00
	00 00		 mov	 BYTE PTR [esi+3060], 0
; File E:\Proyectos\JuegosOnlineproyectos\PB\pbblow\Piercing Blow Remake\i3Server\include\i3Base\i3MetaTemplate.h

; 144  : 	}

  0008c	8b 4d f4	 mov	 ecx, DWORD PTR __$EHRec$[ebp]
  0008f	64 89 0d 00 00
	00 00		 mov	 DWORD PTR fs:0, ecx
  00096	59		 pop	 ecx
  00097	5e		 pop	 esi
  00098	8b e5		 mov	 esp, ebp
  0009a	5d		 pop	 ebp
  0009b	c2 08 00	 ret	 8
$LN5@BindInstan:

; 141  : 				return (i3ElementBase *) new( pBuf ) T;

  0009e	33 f6		 xor	 esi, esi
  000a0	8b c6		 mov	 eax, esi

; 144  : 	}

  000a2	8b 4d f4	 mov	 ecx, DWORD PTR __$EHRec$[ebp]
  000a5	64 89 0d 00 00
	00 00		 mov	 DWORD PTR fs:0, ecx
  000ac	59		 pop	 ecx
  000ad	5e		 pop	 esi
  000ae	8b e5		 mov	 esp, ebp
  000b0	5d		 pop	 ebp
  000b1	c2 08 00	 ret	 8
_TEXT	ENDS
;	COMDAT text$x
text$x	SEGMENT
__unwindfunclet$?BindInstance@?$i3MetaTemplate@Vi3LogFileA@@@@UAEPAVi3ElementBase@@PAXW4I3_CLASSMETA_TYPE@@@Z$0:
  00000	8b 45 08	 mov	 eax, DWORD PTR _pBuf$[ebp]
  00003	50		 push	 eax
  00004	8b 45 0c	 mov	 eax, DWORD PTR $T2[ebp]
  00007	50		 push	 eax
  00008	e8 00 00 00 00	 call	 ??3i3ElementBase@@SAXPAX0@Z ; i3ElementBase::operator delete
  0000d	83 c4 08	 add	 esp, 8
  00010	c3		 ret	 0
  00011	cc		 int	 3
  00012	cc		 int	 3
  00013	cc		 int	 3
  00014	cc		 int	 3
  00015	cc		 int	 3
__ehhandler$?BindInstance@?$i3MetaTemplate@Vi3LogFileA@@@@UAEPAVi3ElementBase@@PAXW4I3_CLASSMETA_TYPE@@@Z:
  00016	90		 npad	 1
  00017	90		 npad	 1
  00018	8b 54 24 08	 mov	 edx, DWORD PTR [esp+8]
  0001c	8d 42 0c	 lea	 eax, DWORD PTR [edx+12]
  0001f	8b 4a f8	 mov	 ecx, DWORD PTR [edx-8]
  00022	33 c8		 xor	 ecx, eax
  00024	e8 00 00 00 00	 call	 @__security_check_cookie@4
  00029	b8 00 00 00 00	 mov	 eax, OFFSET __ehfuncinfo$?BindInstance@?$i3MetaTemplate@Vi3LogFileA@@@@UAEPAVi3ElementBase@@PAXW4I3_CLASSMETA_TYPE@@@Z
  0002e	e9 00 00 00 00	 jmp	 ___CxxFrameHandler3
text$x	ENDS
?BindInstance@?$i3MetaTemplate@Vi3LogFileA@@@@UAEPAVi3ElementBase@@PAXW4I3_CLASSMETA_TYPE@@@Z ENDP ; i3MetaTemplate<i3LogFileA>::BindInstance
; Function compile flags: /Ogtp
; File E:\Proyectos\JuegosOnlineproyectos\PB\pbblow\Piercing Blow Remake\i3Server\include\i3Base\i3MetaTemplate.h
; File E:\Proyectos\JuegosOnlineproyectos\PB\pbblow\Piercing Blow Remake\i3Server\src\i3Base\i3LogFileA.cpp
; File E:\Proyectos\JuegosOnlineproyectos\PB\pbblow\Piercing Blow Remake\i3Server\include\i3Base\i3MetaTemplate.h
; File E:\Proyectos\JuegosOnlineproyectos\PB\pbblow\Piercing Blow Remake\i3Server\include\i3Base\i3ElementBase.h
; File E:\Proyectos\JuegosOnlineproyectos\PB\pbblow\Piercing Blow Remake\i3Server\include\i3Base\i3MetaTemplate.h
;	COMDAT ?CreateInstance@?$i3MetaTemplate@Vi3LogFileA@@@@UAEPAVi3ElementBase@@W4I3_CLASSMETA_TYPE@@@Z
_TEXT	SEGMENT
__$EHRec$ = -12						; size = 12
_type$ = 8						; size = 4
$T2 = 8							; size = 4
?CreateInstance@?$i3MetaTemplate@Vi3LogFileA@@@@UAEPAVi3ElementBase@@W4I3_CLASSMETA_TYPE@@@Z PROC ; i3MetaTemplate<i3LogFileA>::CreateInstance, COMDAT
; _this$ = ecx

; 97   : 	{

  00000	55		 push	 ebp
  00001	8b ec		 mov	 ebp, esp
  00003	6a ff		 push	 -1
  00005	68 00 00 00 00	 push	 __ehhandler$?CreateInstance@?$i3MetaTemplate@Vi3LogFileA@@@@UAEPAVi3ElementBase@@W4I3_CLASSMETA_TYPE@@@Z
  0000a	64 a1 00 00 00
	00		 mov	 eax, DWORD PTR fs:0
  00010	50		 push	 eax
  00011	56		 push	 esi
  00012	57		 push	 edi
  00013	a1 00 00 00 00	 mov	 eax, DWORD PTR ___security_cookie
  00018	33 c5		 xor	 eax, ebp
  0001a	50		 push	 eax
  0001b	8d 45 f4	 lea	 eax, DWORD PTR __$EHRec$[ebp]
  0001e	64 a3 00 00 00
	00		 mov	 DWORD PTR fs:0, eax
  00024	8b f9		 mov	 edi, ecx

; 98   : 		if( m_ProxyCount > 0)

  00026	83 7f 30 00	 cmp	 DWORD PTR [edi+48], 0
  0002a	7e 28		 jle	 SHORT $LN3@CreateInst

; 99   : 		{
; 100  : 			i3ClassMeta * pMeta = GetConcreteClass( type);

  0002c	ff 75 08	 push	 DWORD PTR _type$[ebp]
  0002f	e8 00 00 00 00	 call	 ?GetConcreteClass@i3ClassMeta@@QAEPAV1@W4I3_CLASSMETA_TYPE@@@Z ; i3ClassMeta::GetConcreteClass

; 101  : 
; 102  : 			if( pMeta != NULL)

  00034	85 c0		 test	 eax, eax
  00036	74 1c		 je	 SHORT $LN3@CreateInst

; 103  : 				return pMeta->CreateInstance( I3_CLASSMETA_TYPE_GENERAL);

  00038	8b 10		 mov	 edx, DWORD PTR [eax]
  0003a	8b c8		 mov	 ecx, eax
  0003c	6a 00		 push	 0
  0003e	ff 52 04	 call	 DWORD PTR [edx+4]

; 125  : 	}

  00041	8b 4d f4	 mov	 ecx, DWORD PTR __$EHRec$[ebp]
  00044	64 89 0d 00 00
	00 00		 mov	 DWORD PTR fs:0, ecx
  0004b	59		 pop	 ecx
  0004c	5f		 pop	 edi
  0004d	5e		 pop	 esi
  0004e	8b e5		 mov	 esp, ebp
  00050	5d		 pop	 ebp
  00051	c2 04 00	 ret	 4
$LN3@CreateInst:

; 104  : 		}
; 105  : 
; 106  : 		{
; 107  : 			if( m_pPool == NULL)

  00054	8b 4f 34	 mov	 ecx, DWORD PTR [edi+52]
  00057	85 c9		 test	 ecx, ecx
  00059	75 3e		 jne	 SHORT $LN4@CreateInst

; 112  : 					return (i3ElementBase *) new T;

  0005b	68 f4 0f 00 00	 push	 4084			; 00000ff4H
  00060	e8 00 00 00 00	 call	 ??2i3ElementBase@@SAPAXI@Z ; i3ElementBase::operator new
  00065	8b f0		 mov	 esi, eax
  00067	83 c4 04	 add	 esp, 4
  0006a	89 75 08	 mov	 DWORD PTR $T2[ebp], esi
  0006d	c7 45 fc 00 00
	00 00		 mov	 DWORD PTR __$EHRec$[ebp+8], 0
  00074	85 f6		 test	 esi, esi
  00076	74 1d		 je	 SHORT $LN7@CreateInst
; File E:\Proyectos\JuegosOnlineproyectos\PB\pbblow\Piercing Blow Remake\i3Server\src\i3Base\i3LogFileA.cpp

; 14   : {

  00078	8b ce		 mov	 ecx, esi
  0007a	e8 00 00 00 00	 call	 ??0i3LogFileBase@@QAE@XZ ; i3LogFileBase::i3LogFileBase
  0007f	c7 06 00 00 00
	00		 mov	 DWORD PTR [esi], OFFSET ??_7i3LogFileA@@6B@

; 15   : 	m_strFileName[0]	= '\0'; 

  00085	c6 86 0c 04 00
	00 00		 mov	 BYTE PTR [esi+1036], 0

; 16   : 	m_strStartText[0]	= '\0';

  0008c	c6 86 f4 0b 00
	00 00		 mov	 BYTE PTR [esi+3060], 0
; File E:\Proyectos\JuegosOnlineproyectos\PB\pbblow\Piercing Blow Remake\i3Server\include\i3Base\i3MetaTemplate.h

; 112  : 					return (i3ElementBase *) new T;

  00093	eb 25		 jmp	 SHORT $LN8@CreateInst
$LN7@CreateInst:
  00095	33 f6		 xor	 esi, esi
  00097	eb 21		 jmp	 SHORT $LN8@CreateInst
$LN4@CreateInst:

; 113  : 				#endif
; 114  : 			}
; 115  : 			else
; 116  : 			{
; 117  : 				i3ElementBase * p = (i3ElementBase *) m_pPool->Alloc( sizeof(T), NULL, 0);

  00099	8b 01		 mov	 eax, DWORD PTR [ecx]
  0009b	6a 00		 push	 0
  0009d	6a 00		 push	 0
  0009f	68 f4 0f 00 00	 push	 4084			; 00000ff4H
  000a4	ff 50 04	 call	 DWORD PTR [eax+4]

; 118  : 	
; 119  : 				BindInstance( p, type);

  000a7	ff 75 08	 push	 DWORD PTR _type$[ebp]
  000aa	8b 17		 mov	 edx, DWORD PTR [edi]
  000ac	8b f0		 mov	 esi, eax
  000ae	56		 push	 esi
  000af	8b cf		 mov	 ecx, edi
  000b1	ff 52 08	 call	 DWORD PTR [edx+8]
; File E:\Proyectos\JuegosOnlineproyectos\PB\pbblow\Piercing Blow Remake\i3Server\include\i3Base\i3ElementBase.h

; 347  : 	void			__SetMemoryPool( i3MemoryPool * pPool)			{ m_pPool = pPool; }

  000b4	8b 4f 34	 mov	 ecx, DWORD PTR [edi+52]
  000b7	89 4e 0c	 mov	 DWORD PTR [esi+12], ecx
$LN8@CreateInst:
; File E:\Proyectos\JuegosOnlineproyectos\PB\pbblow\Piercing Blow Remake\i3Server\include\i3Base\i3MetaTemplate.h

; 125  : 	}

  000ba	8b c6		 mov	 eax, esi
  000bc	8b 4d f4	 mov	 ecx, DWORD PTR __$EHRec$[ebp]
  000bf	64 89 0d 00 00
	00 00		 mov	 DWORD PTR fs:0, ecx
  000c6	59		 pop	 ecx
  000c7	5f		 pop	 edi
  000c8	5e		 pop	 esi
  000c9	8b e5		 mov	 esp, ebp
  000cb	5d		 pop	 ebp
  000cc	c2 04 00	 ret	 4
_TEXT	ENDS
;	COMDAT text$x
text$x	SEGMENT
__unwindfunclet$?CreateInstance@?$i3MetaTemplate@Vi3LogFileA@@@@UAEPAVi3ElementBase@@W4I3_CLASSMETA_TYPE@@@Z$0:
  00000	8b 45 08	 mov	 eax, DWORD PTR $T2[ebp]
  00003	50		 push	 eax
  00004	e8 00 00 00 00	 call	 ??3i3ElementBase@@SAXPAX@Z ; i3ElementBase::operator delete
  00009	59		 pop	 ecx
  0000a	c3		 ret	 0
  0000b	cc		 int	 3
  0000c	cc		 int	 3
  0000d	cc		 int	 3
  0000e	cc		 int	 3
  0000f	cc		 int	 3
__ehhandler$?CreateInstance@?$i3MetaTemplate@Vi3LogFileA@@@@UAEPAVi3ElementBase@@W4I3_CLASSMETA_TYPE@@@Z:
  00010	90		 npad	 1
  00011	90		 npad	 1
  00012	8b 54 24 08	 mov	 edx, DWORD PTR [esp+8]
  00016	8d 42 0c	 lea	 eax, DWORD PTR [edx+12]
  00019	8b 4a f4	 mov	 ecx, DWORD PTR [edx-12]
  0001c	33 c8		 xor	 ecx, eax
  0001e	e8 00 00 00 00	 call	 @__security_check_cookie@4
  00023	b8 00 00 00 00	 mov	 eax, OFFSET __ehfuncinfo$?CreateInstance@?$i3MetaTemplate@Vi3LogFileA@@@@UAEPAVi3ElementBase@@W4I3_CLASSMETA_TYPE@@@Z
  00028	e9 00 00 00 00	 jmp	 ___CxxFrameHandler3
text$x	ENDS
?CreateInstance@?$i3MetaTemplate@Vi3LogFileA@@@@UAEPAVi3ElementBase@@W4I3_CLASSMETA_TYPE@@@Z ENDP ; i3MetaTemplate<i3LogFileA>::CreateInstance
; Function compile flags: /Ogtp
; File E:\Proyectos\JuegosOnlineproyectos\PB\pbblow\Piercing Blow Remake\i3Server\include\i3Base\i3MetaTemplate.h
;	COMDAT ??0?$i3MetaTemplate@Vi3LogFileA@@@@QAE@IPAD0W4I3_CLASSMETA_TYPE@@@Z
_TEXT	SEGMENT
_this$ = -4						; size = 4
_classSz$ = 8						; size = 4
_pszClassName$ = 12					; size = 4
_pszBaseClassName$ = 16					; size = 4
_type$ = 20						; size = 4
??0?$i3MetaTemplate@Vi3LogFileA@@@@QAE@IPAD0W4I3_CLASSMETA_TYPE@@@Z PROC ; i3MetaTemplate<i3LogFileA>::i3MetaTemplate<i3LogFileA>, COMDAT
; _this$ = ecx

; 29   : {

  00000	55		 push	 ebp
  00001	8b ec		 mov	 ebp, esp
  00003	51		 push	 ecx
  00004	56		 push	 esi
  00005	ff 75 14	 push	 DWORD PTR _type$[ebp]
  00008	8b f1		 mov	 esi, ecx
  0000a	ff 75 10	 push	 DWORD PTR _pszBaseClassName$[ebp]
  0000d	89 75 fc	 mov	 DWORD PTR _this$[ebp], esi
  00010	ff 75 0c	 push	 DWORD PTR _pszClassName$[ebp]
  00013	ff 75 08	 push	 DWORD PTR _classSz$[ebp]
  00016	e8 00 00 00 00	 call	 ??0i3ClassMeta@@QAE@IPAD0W4I3_CLASSMETA_TYPE@@@Z ; i3ClassMeta::i3ClassMeta
  0001b	c7 06 00 00 00
	00		 mov	 DWORD PTR [esi], OFFSET ??_7?$i3MetaTemplate@Vi3LogFileA@@@@6B@

; 30   : }

  00021	8b c6		 mov	 eax, esi
  00023	5e		 pop	 esi
  00024	8b e5		 mov	 esp, ebp
  00026	5d		 pop	 ebp
  00027	c2 10 00	 ret	 16			; 00000010H
??0?$i3MetaTemplate@Vi3LogFileA@@@@QAE@IPAD0W4I3_CLASSMETA_TYPE@@@Z ENDP ; i3MetaTemplate<i3LogFileA>::i3MetaTemplate<i3LogFileA>
_TEXT	ENDS
; Function compile flags: /Ogtp
; File E:\Proyectos\JuegosOnlineproyectos\PB\pbblow\Piercing Blow Remake\i3Server\src\i3Base\i3LogFileA.cpp
;	COMDAT ??_Ei3LogFileA@@UAEPAXI@Z
_TEXT	SEGMENT
__$EHRec$ = -12						; size = 12
___flags$ = 8						; size = 4
??_Ei3LogFileA@@UAEPAXI@Z PROC				; i3LogFileA::`vector deleting destructor', COMDAT
; _this$ = ecx
  00000	55		 push	 ebp
  00001	8b ec		 mov	 ebp, esp
  00003	6a ff		 push	 -1
  00005	68 00 00 00 00	 push	 __ehhandler$??_Ei3LogFileA@@UAEPAXI@Z
  0000a	64 a1 00 00 00
	00		 mov	 eax, DWORD PTR fs:0
  00010	50		 push	 eax
  00011	53		 push	 ebx
  00012	56		 push	 esi
  00013	57		 push	 edi
  00014	a1 00 00 00 00	 mov	 eax, DWORD PTR ___security_cookie
  00019	33 c5		 xor	 eax, ebp
  0001b	50		 push	 eax
  0001c	8d 45 f4	 lea	 eax, DWORD PTR __$EHRec$[ebp]
  0001f	64 a3 00 00 00
	00		 mov	 DWORD PTR fs:0, eax
  00025	8b f1		 mov	 esi, ecx
  00027	8b 5d 08	 mov	 ebx, DWORD PTR ___flags$[ebp]
  0002a	8b fb		 mov	 edi, ebx
  0002c	83 e7 01	 and	 edi, 1
  0002f	f6 c3 02	 test	 bl, 2
  00032	74 43		 je	 SHORT $LN2@vector
  00034	68 00 00 00 00	 push	 OFFSET ??1i3LogFileA@@UAE@XZ ; i3LogFileA::~i3LogFileA
  00039	ff 76 fc	 push	 DWORD PTR [esi-4]
  0003c	8d 5e fc	 lea	 ebx, DWORD PTR [esi-4]
  0003f	68 f4 0f 00 00	 push	 4084			; 00000ff4H
  00044	56		 push	 esi
  00045	e8 00 00 00 00	 call	 ??_M@YGXPAXIIP6EX0@Z@Z
  0004a	85 ff		 test	 edi, edi
  0004c	74 13		 je	 SHORT $LN3@vector
  0004e	69 0b f4 0f 00
	00		 imul	 ecx, DWORD PTR [ebx], 4084
  00054	83 c1 04	 add	 ecx, 4
  00057	51		 push	 ecx
  00058	53		 push	 ebx
  00059	e8 00 00 00 00	 call	 ??_V@YAXPAXI@Z		; operator delete[]
  0005e	83 c4 08	 add	 esp, 8
$LN3@vector:
  00061	8b c3		 mov	 eax, ebx
  00063	8b 4d f4	 mov	 ecx, DWORD PTR __$EHRec$[ebp]
  00066	64 89 0d 00 00
	00 00		 mov	 DWORD PTR fs:0, ecx
  0006d	59		 pop	 ecx
  0006e	5f		 pop	 edi
  0006f	5e		 pop	 esi
  00070	5b		 pop	 ebx
  00071	8b e5		 mov	 esp, ebp
  00073	5d		 pop	 ebp
  00074	c2 04 00	 ret	 4
$LN2@vector:

; 20   : {

  00077	c7 06 00 00 00
	00		 mov	 DWORD PTR [esi], OFFSET ??_7i3LogFileA@@6B@

; 21   : 	Destroy(); 
; 22   : }

  0007d	e8 00 00 00 00	 call	 ??1i3LogFileBase@@UAE@XZ ; i3LogFileBase::~i3LogFileBase
  00082	85 ff		 test	 edi, edi
  00084	74 1e		 je	 SHORT $LN6@vector
  00086	f6 c3 04	 test	 bl, 4
  00089	75 0b		 jne	 SHORT $LN5@vector
  0008b	56		 push	 esi
  0008c	e8 00 00 00 00	 call	 ??3i3ElementBase@@SAXPAX@Z ; i3ElementBase::operator delete
  00091	83 c4 04	 add	 esp, 4
  00094	eb 0e		 jmp	 SHORT $LN6@vector
$LN5@vector:

  00096	68 f4 0f 00 00	 push	 4084			; 00000ff4H
  0009b	56		 push	 esi
  0009c	e8 00 00 00 00	 call	 ??3@YAXPAXI@Z		; operator delete
  000a1	83 c4 08	 add	 esp, 8
$LN6@vector:
  000a4	8b c6		 mov	 eax, esi
  000a6	8b 4d f4	 mov	 ecx, DWORD PTR __$EHRec$[ebp]
  000a9	64 89 0d 00 00
	00 00		 mov	 DWORD PTR fs:0, ecx
  000b0	59		 pop	 ecx
  000b1	5f		 pop	 edi
  000b2	5e		 pop	 esi
  000b3	5b		 pop	 ebx
  000b4	8b e5		 mov	 esp, ebp
  000b6	5d		 pop	 ebp
  000b7	c2 04 00	 ret	 4
  000ba	cc		 int	 3
  000bb	cc		 int	 3
  000bc	cc		 int	 3
  000bd	cc		 int	 3
  000be	cc		 int	 3
_TEXT	ENDS
;	COMDAT text$x
text$x	SEGMENT
__ehhandler$??_Ei3LogFileA@@UAEPAXI@Z:
  00000	90		 npad	 1
  00001	90		 npad	 1
  00002	8b 54 24 08	 mov	 edx, DWORD PTR [esp+8]
  00006	8d 42 0c	 lea	 eax, DWORD PTR [edx+12]
  00009	8b 4a f0	 mov	 ecx, DWORD PTR [edx-16]
  0000c	33 c8		 xor	 ecx, eax
  0000e	e8 00 00 00 00	 call	 @__security_check_cookie@4
  00013	b8 00 00 00 00	 mov	 eax, OFFSET __ehfuncinfo$??_Ei3LogFileA@@UAEPAXI@Z
  00018	e9 00 00 00 00	 jmp	 ___CxxFrameHandler3
text$x	ENDS
??_Ei3LogFileA@@UAEPAXI@Z ENDP				; i3LogFileA::`vector deleting destructor'
; Function compile flags: /Ogtp
; File E:\Proyectos\JuegosOnlineproyectos\PB\pbblow\Piercing Blow Remake\i3Server\src\i3Base\i3LogFileA.cpp
;	COMDAT ??_Gi3LogFileA@@UAEPAXI@Z
_TEXT	SEGMENT
___flags$ = 8						; size = 4
??_Gi3LogFileA@@UAEPAXI@Z PROC				; i3LogFileA::`scalar deleting destructor', COMDAT
; _this$ = ecx
  00000	55		 push	 ebp
  00001	8b ec		 mov	 ebp, esp

; 20   : {

  00003	56		 push	 esi
  00004	8b f1		 mov	 esi, ecx
  00006	c7 06 00 00 00
	00		 mov	 DWORD PTR [esi], OFFSET ??_7i3LogFileA@@6B@

; 21   : 	Destroy(); 
; 22   : }

  0000c	e8 00 00 00 00	 call	 ??1i3LogFileBase@@UAE@XZ ; i3LogFileBase::~i3LogFileBase
  00011	8b 45 08	 mov	 eax, DWORD PTR ___flags$[ebp]
  00014	a8 01		 test	 al, 1
  00016	74 22		 je	 SHORT $LN15@scalar
  00018	a8 04		 test	 al, 4
  0001a	75 10		 jne	 SHORT $LN3@scalar
  0001c	56		 push	 esi
  0001d	e8 00 00 00 00	 call	 ??3i3ElementBase@@SAXPAX@Z ; i3ElementBase::operator delete
  00022	83 c4 04	 add	 esp, 4
  00025	8b c6		 mov	 eax, esi
  00027	5e		 pop	 esi
  00028	5d		 pop	 ebp
  00029	c2 04 00	 ret	 4
$LN3@scalar:

  0002c	68 f4 0f 00 00	 push	 4084			; 00000ff4H
  00031	56		 push	 esi
  00032	e8 00 00 00 00	 call	 ??3@YAXPAXI@Z		; operator delete
  00037	83 c4 08	 add	 esp, 8
$LN15@scalar:
  0003a	8b c6		 mov	 eax, esi
  0003c	5e		 pop	 esi
  0003d	5d		 pop	 ebp
  0003e	c2 04 00	 ret	 4
??_Gi3LogFileA@@UAEPAXI@Z ENDP				; i3LogFileA::`scalar deleting destructor'
_TEXT	ENDS
; Function compile flags: /Ogtp
;	COMDAT ??4i3LogFileA@@QAEAAV0@ABV0@@Z
_TEXT	SEGMENT
___that$ = 8						; size = 4
??4i3LogFileA@@QAEAAV0@ABV0@@Z PROC			; i3LogFileA::operator=, COMDAT
; _this$ = ecx
  00000	55		 push	 ebp
  00001	8b ec		 mov	 ebp, esp
  00003	56		 push	 esi
  00004	57		 push	 edi
  00005	8b 7d 08	 mov	 edi, DWORD PTR ___that$[ebp]
  00008	8b f1		 mov	 esi, ecx
  0000a	57		 push	 edi
  0000b	e8 00 00 00 00	 call	 ??4i3LogFileBase@@QAEAAV0@ABV0@@Z
  00010	33 d2		 xor	 edx, edx
  00012	eb 0c 8d a4 24
	00 00 00 00 eb
	03 8d 49 00	 npad	 14
$LL4@operator:
  00020	8a 84 17 0c 04
	00 00		 mov	 al, BYTE PTR [edi+edx+1036]
  00027	88 84 16 0c 04
	00 00		 mov	 BYTE PTR [esi+edx+1036], al
  0002e	42		 inc	 edx
  0002f	81 fa 00 04 00
	00		 cmp	 edx, 1024		; 00000400H
  00035	72 e9		 jb	 SHORT $LL4@operator
  00037	33 c9		 xor	 ecx, ecx
  00039	8d a4 24 00 00
	00 00		 npad	 7
$LL7@operator:
  00040	8a 84 0f 0c 08
	00 00		 mov	 al, BYTE PTR [edi+ecx+2060]
  00047	88 84 0e 0c 08
	00 00		 mov	 BYTE PTR [esi+ecx+2060], al
  0004e	41		 inc	 ecx
  0004f	81 f9 e8 03 00
	00		 cmp	 ecx, 1000		; 000003e8H
  00055	72 e9		 jb	 SHORT $LL7@operator
  00057	33 c0		 xor	 eax, eax
  00059	8d a4 24 00 00
	00 00		 npad	 7
$LL10@operator:
  00060	8a 8c 07 f4 0b
	00 00		 mov	 cl, BYTE PTR [edi+eax+3060]
  00067	88 8c 06 f4 0b
	00 00		 mov	 BYTE PTR [esi+eax+3060], cl
  0006e	40		 inc	 eax
  0006f	3d 00 04 00 00	 cmp	 eax, 1024		; 00000400H
  00074	72 ea		 jb	 SHORT $LL10@operator
  00076	5f		 pop	 edi
  00077	8b c6		 mov	 eax, esi
  00079	5e		 pop	 esi
  0007a	5d		 pop	 ebp
  0007b	c2 04 00	 ret	 4
??4i3LogFileA@@QAEAAV0@ABV0@@Z ENDP			; i3LogFileA::operator=
_TEXT	ENDS
; Function compile flags: /Ogtp
;	COMDAT ??0i3LogFileA@@QAE@ABV0@@Z
_TEXT	SEGMENT
_this$1$ = -4						; size = 4
___that$ = 8						; size = 4
??0i3LogFileA@@QAE@ABV0@@Z PROC				; i3LogFileA::i3LogFileA, COMDAT
; _this$ = ecx
  00000	55		 push	 ebp
  00001	8b ec		 mov	 ebp, esp
  00003	51		 push	 ecx
  00004	53		 push	 ebx
  00005	8b 5d 08	 mov	 ebx, DWORD PTR ___that$[ebp]
  00008	56		 push	 esi
  00009	57		 push	 edi
  0000a	53		 push	 ebx
  0000b	89 4d fc	 mov	 DWORD PTR _this$1$[ebp], ecx
  0000e	e8 00 00 00 00	 call	 ??0i3LogFileBase@@QAE@ABV0@@Z
  00013	8b 45 fc	 mov	 eax, DWORD PTR _this$1$[ebp]
  00016	8d b3 0c 04 00
	00		 lea	 esi, DWORD PTR [ebx+1036]
  0001c	b9 00 01 00 00	 mov	 ecx, 256		; 00000100H
  00021	c7 00 00 00 00
	00		 mov	 DWORD PTR [eax], OFFSET ??_7i3LogFileA@@6B@
  00027	8d b8 0c 04 00
	00		 lea	 edi, DWORD PTR [eax+1036]
  0002d	f3 a5		 rep movsd
  0002f	8d b3 0c 08 00
	00		 lea	 esi, DWORD PTR [ebx+2060]
  00035	b9 fa 00 00 00	 mov	 ecx, 250		; 000000faH
  0003a	8d b8 0c 08 00
	00		 lea	 edi, DWORD PTR [eax+2060]
  00040	f3 a5		 rep movsd
  00042	8d b3 f4 0b 00
	00		 lea	 esi, DWORD PTR [ebx+3060]
  00048	b9 00 01 00 00	 mov	 ecx, 256		; 00000100H
  0004d	8d b8 f4 0b 00
	00		 lea	 edi, DWORD PTR [eax+3060]
  00053	f3 a5		 rep movsd
  00055	5f		 pop	 edi
  00056	5e		 pop	 esi
  00057	5b		 pop	 ebx
  00058	8b e5		 mov	 esp, ebp
  0005a	5d		 pop	 ebp
  0005b	c2 04 00	 ret	 4
??0i3LogFileA@@QAE@ABV0@@Z ENDP				; i3LogFileA::i3LogFileA
_TEXT	ENDS
; Function compile flags: /Ogtp
; File E:\Proyectos\JuegosOnlineproyectos\PB\pbblow\Piercing Blow Remake\i3Server\src\i3Base\i3LogFileA.cpp
; File C:\Program Files (x86)\Windows Kits\10\Include\10.0.26100.0\ucrt\stdio.h
; File E:\Proyectos\JuegosOnlineproyectos\PB\pbblow\Piercing Blow Remake\i3Server\src\i3Base\i3LogFileA.cpp
;	COMDAT ?WriteLog@i3LogFileA@@QAAXHHPADZZ
_TEXT	SEGMENT
_strTemp$ = -1028					; size = 1024
__$ArrayPad$ = -4					; size = 4
_this$ = 8						; size = 4
_i32WarningType$ = 12					; size = 4
_i32WarningLevel$ = 16					; size = 4
_strLogString$ = 20					; size = 4
?WriteLog@i3LogFileA@@QAAXHHPADZZ PROC			; i3LogFileA::WriteLog, COMDAT

; 136  : {

  00000	55		 push	 ebp
  00001	8b ec		 mov	 ebp, esp
  00003	81 ec 04 04 00
	00		 sub	 esp, 1028		; 00000404H
  00009	a1 00 00 00 00	 mov	 eax, DWORD PTR ___security_cookie
  0000e	33 c5		 xor	 eax, ebp
  00010	89 45 fc	 mov	 DWORD PTR __$ArrayPad$[ebp], eax
  00013	56		 push	 esi
  00014	8b 75 08	 mov	 esi, DWORD PTR _this$[ebp]

; 137  : 	m_Warning.SetWarningInfo(i32WarningType,i32WarningLevel);

  00017	ff 75 10	 push	 DWORD PTR _i32WarningLevel$[ebp]
  0001a	ff 75 0c	 push	 DWORD PTR _i32WarningType$[ebp]
  0001d	8d 8e ac 03 00
	00		 lea	 ecx, DWORD PTR [esi+940]
  00023	e8 00 00 00 00	 call	 ?SetWarningInfo@i3Warning@@QAEHHH@Z ; i3Warning::SetWarningInfo
; File C:\Program Files (x86)\Windows Kits\10\Include\10.0.26100.0\ucrt\stdio.h

; 1392 :         int const _Result = __stdio_common_vsprintf(

  00028	8d 45 18	 lea	 eax, DWORD PTR _strLogString$[ebp+4]
  0002b	50		 push	 eax
  0002c	6a 00		 push	 0
  0002e	ff 75 14	 push	 DWORD PTR _strLogString$[ebp]
  00031	8d 85 fc fb ff
	ff		 lea	 eax, DWORD PTR _strTemp$[ebp]
  00037	68 00 04 00 00	 push	 1024			; 00000400H
  0003c	50		 push	 eax
  0003d	e8 00 00 00 00	 call	 ___local_stdio_printf_options
  00042	8b 08		 mov	 ecx, DWORD PTR [eax]
  00044	ff 70 04	 push	 DWORD PTR [eax+4]
  00047	83 c9 01	 or	 ecx, 1
  0004a	51		 push	 ecx
  0004b	e8 00 00 00 00	 call	 ___stdio_common_vsprintf
; File E:\Proyectos\JuegosOnlineproyectos\PB\pbblow\Piercing Blow Remake\i3Server\src\i3Base\i3LogFileA.cpp

; 145  : 	printf("Log : %ls\n", strTemp);

  00050	8d 85 fc fb ff
	ff		 lea	 eax, DWORD PTR _strTemp$[ebp]
  00056	50		 push	 eax
  00057	68 00 00 00 00	 push	 OFFSET ??_C@_0L@HGIEDNJL@Log?5?3?5?$CFls?6@
  0005c	e8 00 00 00 00	 call	 _printf
  00061	83 c4 24	 add	 esp, 36			; 00000024H

; 146  : 	_WriteLog( strTemp );

  00064	8d 85 fc fb ff
	ff		 lea	 eax, DWORD PTR _strTemp$[ebp]
  0006a	8b ce		 mov	 ecx, esi
  0006c	50		 push	 eax
  0006d	e8 00 00 00 00	 call	 ?_WriteLog@i3LogFileA@@IAEXPAD@Z ; i3LogFileA::_WriteLog

; 147  : }

  00072	8b 4d fc	 mov	 ecx, DWORD PTR __$ArrayPad$[ebp]
  00075	33 cd		 xor	 ecx, ebp
  00077	5e		 pop	 esi
  00078	e8 00 00 00 00	 call	 @__security_check_cookie@4
  0007d	8b e5		 mov	 esp, ebp
  0007f	5d		 pop	 ebp
  00080	c3		 ret	 0
?WriteLog@i3LogFileA@@QAAXHHPADZZ ENDP			; i3LogFileA::WriteLog
_TEXT	ENDS
; Function compile flags: /Ogtp
; File E:\Proyectos\JuegosOnlineproyectos\PB\pbblow\Piercing Blow Remake\i3Server\src\i3Base\i3LogFileA.cpp
; File C:\Program Files (x86)\Windows Kits\10\Include\10.0.26100.0\ucrt\stdio.h
; File E:\Proyectos\JuegosOnlineproyectos\PB\pbblow\Piercing Blow Remake\i3Server\src\i3Base\i3LogFileA.cpp
;	COMDAT ?WriteLog@i3LogFileA@@QAAXPADZZ
_TEXT	SEGMENT
_strTemp$ = -1028					; size = 1024
__$ArrayPad$ = -4					; size = 4
_this$ = 8						; size = 4
_strLogString$ = 12					; size = 4
?WriteLog@i3LogFileA@@QAAXPADZZ PROC			; i3LogFileA::WriteLog, COMDAT

; 124  : {

  00000	55		 push	 ebp
  00001	8b ec		 mov	 ebp, esp
  00003	81 ec 04 04 00
	00		 sub	 esp, 1028		; 00000404H
  00009	a1 00 00 00 00	 mov	 eax, DWORD PTR ___security_cookie
  0000e	33 c5		 xor	 eax, ebp
  00010	89 45 fc	 mov	 DWORD PTR __$ArrayPad$[ebp], eax
  00013	56		 push	 esi
  00014	8b 75 08	 mov	 esi, DWORD PTR _this$[ebp]
; File C:\Program Files (x86)\Windows Kits\10\Include\10.0.26100.0\ucrt\stdio.h

; 1392 :         int const _Result = __stdio_common_vsprintf(

  00017	8d 45 10	 lea	 eax, DWORD PTR _strLogString$[ebp+4]
  0001a	50		 push	 eax
  0001b	6a 00		 push	 0
  0001d	ff 75 0c	 push	 DWORD PTR _strLogString$[ebp]
  00020	8d 85 fc fb ff
	ff		 lea	 eax, DWORD PTR _strTemp$[ebp]
  00026	68 00 04 00 00	 push	 1024			; 00000400H
  0002b	50		 push	 eax
  0002c	e8 00 00 00 00	 call	 ___local_stdio_printf_options
  00031	8b 08		 mov	 ecx, DWORD PTR [eax]
  00033	ff 70 04	 push	 DWORD PTR [eax+4]
  00036	83 c9 01	 or	 ecx, 1
  00039	51		 push	 ecx
  0003a	e8 00 00 00 00	 call	 ___stdio_common_vsprintf
; File E:\Proyectos\JuegosOnlineproyectos\PB\pbblow\Piercing Blow Remake\i3Server\src\i3Base\i3LogFileA.cpp

; 131  : 	printf("Log : %ls\n", strTemp);

  0003f	8d 85 fc fb ff
	ff		 lea	 eax, DWORD PTR _strTemp$[ebp]
  00045	50		 push	 eax
  00046	68 00 00 00 00	 push	 OFFSET ??_C@_0L@HGIEDNJL@Log?5?3?5?$CFls?6@
  0004b	e8 00 00 00 00	 call	 _printf
  00050	83 c4 24	 add	 esp, 36			; 00000024H

; 132  : 	_WriteLog( strTemp );

  00053	8d 85 fc fb ff
	ff		 lea	 eax, DWORD PTR _strTemp$[ebp]
  00059	8b ce		 mov	 ecx, esi
  0005b	50		 push	 eax
  0005c	e8 00 00 00 00	 call	 ?_WriteLog@i3LogFileA@@IAEXPAD@Z ; i3LogFileA::_WriteLog

; 133  : }

  00061	8b 4d fc	 mov	 ecx, DWORD PTR __$ArrayPad$[ebp]
  00064	33 cd		 xor	 ecx, ebp
  00066	5e		 pop	 esi
  00067	e8 00 00 00 00	 call	 @__security_check_cookie@4
  0006c	8b e5		 mov	 esp, ebp
  0006e	5d		 pop	 ebp
  0006f	c3		 ret	 0
?WriteLog@i3LogFileA@@QAAXPADZZ ENDP			; i3LogFileA::WriteLog
_TEXT	ENDS
; Function compile flags: /Ogtp
; File E:\Proyectos\JuegosOnlineproyectos\PB\pbblow\Piercing Blow Remake\i3Server\src\i3Base\i3LogFileA.cpp
;	COMDAT ?AddLogThread@i3LogFileA@@QAEHPADHK@Z
_TEXT	SEGMENT
_strPreString$ = 8					; size = 4
_iType$ = 12						; size = 4
_dwThreadID$ = 16					; size = 4
?AddLogThread@i3LogFileA@@QAEHPADHK@Z PROC		; i3LogFileA::AddLogThread, COMDAT
; _this$ = ecx

; 54   : {	iType;

  00000	55		 push	 ebp
  00001	8b ec		 mov	 ebp, esp
  00003	53		 push	 ebx
  00004	56		 push	 esi
  00005	57		 push	 edi
  00006	8b f9		 mov	 edi, ecx

; 55   : 
; 56   : 	INT32 i32Rv = RV_ADD_FAIL; 
; 57   : 
; 58   : 	m_AddCs.Enter(); 

  00008	8d 8f 50 03 00
	00		 lea	 ecx, DWORD PTR [edi+848]
  0000e	e8 00 00 00 00	 call	 ?Enter@i3Mutex@@QAEXXZ	; i3Mutex::Enter

; 59   : 	{
; 60   : 		#ifdef USE_THREAD_ID
; 61   : 		i32Rv = _FindWorkIdx( dwThreadID );

  00013	ff 75 10	 push	 DWORD PTR _dwThreadID$[ebp]
  00016	8b cf		 mov	 ecx, edi
  00018	e8 00 00 00 00	 call	 ?_FindWorkIdx@i3LogFileBase@@IAEHK@Z ; i3LogFileBase::_FindWorkIdx
  0001d	8b f0		 mov	 esi, eax

; 62   : 
; 63   : 		if( RV_ADD_FAIL != i32Rv )

  0001f	81 fe 01 00 00
	80		 cmp	 esi, -2147483647	; 80000001H
  00025	0f 85 98 00 00
	00		 jne	 $LN16@AddLogThre

; 64   : 		{
; 65   : 			m_AddCs.Leave();
; 66   : 			return i32Rv;
; 67   : 		}
; 68   : 		#endif
; 69   : 
; 70   : 		if( LOG_BUFFER_MAX_COUNTER <= m_ui32WorkCounter )

  0002b	83 bf b8 01 00
	00 64		 cmp	 DWORD PTR [edi+440], 100 ; 00000064H
  00032	73 48		 jae	 SHORT $LN7@AddLogThre

; 71   : 		{	// ´őŔĚ»ó ·Î±× ĆÄŔĎŔ» »ýĽş ÇŇ Ľö ľř˝Ŕ´Ď´Ů.
; 72   : 			m_AddCs.Leave();
; 73   : 			return RV_ADD_FAIL;
; 74   : 		}
; 75   : 
; 76   : 		m_ppLogBuffer[ m_ui32WorkCounter  ] = i3RingBuffer::NewObject();

  00034	8b 87 b8 01 00
	00		 mov	 eax, DWORD PTR [edi+440]
  0003a	8d 34 87	 lea	 esi, DWORD PTR [edi+eax*4]
  0003d	e8 00 00 00 00	 call	 ?_NewObject@i3RingBuffer@@SAPAV1@XZ ; i3RingBuffer::_NewObject
  00042	89 46 28	 mov	 DWORD PTR [esi+40], eax

; 77   : 		if( NULL == m_ppLogBuffer[ m_ui32WorkCounter ] )

  00045	8b 87 b8 01 00
	00		 mov	 eax, DWORD PTR [edi+440]
  0004b	8b 4c 87 28	 mov	 ecx, DWORD PTR [edi+eax*4+40]
  0004f	85 c9		 test	 ecx, ecx
  00051	74 29		 je	 SHORT $LN7@AddLogThre

; 78   : 		{	// ¸Ţ¸đ¸® ÇŇ´çżˇ ˝ÇĆĐ Çß˝Ŕ´Ď´Ů.
; 79   : 			m_AddCs.Leave();
; 80   : 			return RV_ADD_FAIL;
; 81   : 		}
; 82   : 
; 83   : 		if( false == m_ppLogBuffer[ m_ui32WorkCounter ]->Create( sizeof(LOG_FILE_BUFFER), m_iBufferCount ) )

  00053	ff b7 bc 01 00
	00		 push	 DWORD PTR [edi+444]
  00059	68 00 04 00 00	 push	 1024			; 00000400H
  0005e	e8 00 00 00 00	 call	 ?Create@i3RingBuffer@@QAEHHH@Z ; i3RingBuffer::Create
  00063	8b 8f b8 01 00
	00		 mov	 ecx, DWORD PTR [edi+440]
  00069	85 c0		 test	 eax, eax
  0006b	75 26		 jne	 SHORT $LN5@AddLogThre

; 84   : 		{	// Ring Buffer ¸Ţ¸đ¸® ÇŇ´ç ˝ÇĆĐ
; 85   : 			delete m_ppLogBuffer[ m_ui32WorkCounter  ];

  0006d	8b 4c 8f 28	 mov	 ecx, DWORD PTR [edi+ecx*4+40]
  00071	85 c9		 test	 ecx, ecx
  00073	74 07		 je	 SHORT $LN7@AddLogThre
  00075	8b 01		 mov	 eax, DWORD PTR [ecx]
  00077	6a 01		 push	 1
  00079	ff 50 04	 call	 DWORD PTR [eax+4]
$LN7@AddLogThre:

; 86   : 			m_AddCs.Leave();

  0007c	8d 8f 50 03 00
	00		 lea	 ecx, DWORD PTR [edi+848]
  00082	e8 00 00 00 00	 call	 ?Leave@i3Mutex@@QAEXXZ	; i3Mutex::Leave
  00087	5f		 pop	 edi

; 96   : 	}
; 97   : 	m_AddCs.Leave(); 
; 98   : 
; 99   : 	return i32Rv; 
; 100  : }

  00088	5e		 pop	 esi
  00089	b8 01 00 00 80	 mov	 eax, -2147483647	; 80000001H
  0008e	5b		 pop	 ebx
  0008f	5d		 pop	 ebp
  00090	c2 0c 00	 ret	 12			; 0000000cH
$LN5@AddLogThre:

; 87   : 			return RV_ADD_FAIL;
; 88   : 		}
; 89   : 		
; 90   : 		i3String::Copy( m_astrLogInit[ m_ui32WorkCounter ], strPreString, LOG_INIT_STRING );

  00093	81 c1 ce 00 00
	00		 add	 ecx, 206		; 000000ceH
  00099	6a 0a		 push	 10			; 0000000aH
  0009b	ff 75 08	 push	 DWORD PTR _strPreString$[ebp]
  0009e	8d 04 89	 lea	 eax, DWORD PTR [ecx+ecx*4]
  000a1	8d 04 47	 lea	 eax, DWORD PTR [edi+eax*2]
  000a4	50		 push	 eax
  000a5	e8 00 00 00 00	 call	 ?Copy@i3String@@YAXPADPBDH@Z ; i3String::Copy

; 91   : 		i32Rv = m_ui32WorkCounter;

  000aa	8b b7 b8 01 00
	00		 mov	 esi, DWORD PTR [edi+440]
  000b0	83 c4 0c	 add	 esp, 12			; 0000000cH

; 92   : 
; 93   : 		m_adwThreadID[m_ui32WorkCounter] = dwThreadID;

  000b3	8b 45 10	 mov	 eax, DWORD PTR _dwThreadID$[ebp]
  000b6	89 84 b7 c0 01
	00 00		 mov	 DWORD PTR [edi+esi*4+448], eax

; 94   : 
; 95   : 		m_ui32WorkCounter++;

  000bd	ff 87 b8 01 00
	00		 inc	 DWORD PTR [edi+440]
$LN16@AddLogThre:

; 96   : 	}
; 97   : 	m_AddCs.Leave(); 
; 98   : 
; 99   : 	return i32Rv; 
; 100  : }

  000c3	8d 8f 50 03 00
	00		 lea	 ecx, DWORD PTR [edi+848]
  000c9	e8 00 00 00 00	 call	 ?Leave@i3Mutex@@QAEXXZ	; i3Mutex::Leave
  000ce	5f		 pop	 edi
  000cf	8b c6		 mov	 eax, esi
  000d1	5e		 pop	 esi
  000d2	5b		 pop	 ebx
  000d3	5d		 pop	 ebp
  000d4	c2 0c 00	 ret	 12			; 0000000cH
?AddLogThread@i3LogFileA@@QAEHPADHK@Z ENDP		; i3LogFileA::AddLogThread
_TEXT	ENDS
; Function compile flags: /Ogtp
; File E:\Proyectos\JuegosOnlineproyectos\PB\pbblow\Piercing Blow Remake\i3Server\src\i3Base\i3LogFileA.cpp
;	COMDAT ?Destroy@i3LogFileA@@QAEXXZ
_TEXT	SEGMENT
?Destroy@i3LogFileA@@QAEXXZ PROC			; i3LogFileA::Destroy, COMDAT
; _this$ = ecx

; 44   : }

  00000	c2 00 00	 ret	 0
?Destroy@i3LogFileA@@QAEXXZ ENDP			; i3LogFileA::Destroy
_TEXT	ENDS
; Function compile flags: /Ogtp
; File E:\Proyectos\JuegosOnlineproyectos\PB\pbblow\Piercing Blow Remake\i3Server\src\i3Base\i3LogFileA.cpp
; File E:\Proyectos\JuegosOnlineproyectos\PB\pbblow\Piercing Blow Remake\i3Server\include\i3Base\i3Memory.h
; File E:\Proyectos\JuegosOnlineproyectos\PB\pbblow\Piercing Blow Remake\i3Server\src\i3Base\i3LogFileA.cpp
; File C:\Program Files (x86)\Windows Kits\10\Include\10.0.26100.0\um\winnt.h
; File E:\Proyectos\JuegosOnlineproyectos\PB\pbblow\Piercing Blow Remake\i3Server\src\i3Base\i3LogFileA.cpp
;	COMDAT ?Create@i3LogFileA@@QAEHPAD0HHH@Z
_TEXT	SEGMENT
_wstrPathName$ = 8					; size = 4
_wstrFileName$ = 12					; size = 4
_iSaveType$ = 16					; size = 4
_iLogBufferCount$ = 20					; size = 4
_iThreadPri$ = 24					; size = 4
?Create@i3LogFileA@@QAEHPAD0HHH@Z PROC			; i3LogFileA::Create, COMDAT
; _this$ = ecx

; 25   : {

  00000	55		 push	 ebp
  00001	8b ec		 mov	 ebp, esp
  00003	56		 push	 esi
  00004	8b f1		 mov	 esi, ecx
; File E:\Proyectos\JuegosOnlineproyectos\PB\pbblow\Piercing Blow Remake\i3Server\include\i3Base\i3Memory.h

; 144  : 			::SecureZeroMemory( pDest, sz);

  00006	ba 90 01 00 00	 mov	 edx, 400		; 00000190H
; File E:\Proyectos\JuegosOnlineproyectos\PB\pbblow\Piercing Blow Remake\i3Server\src\i3Base\i3LogFileA.cpp

; 27   : 	i3mem::FillZero( m_ppLogBuffer, sizeof(m_ppLogBuffer) );

  0000b	8d 46 28	 lea	 eax, DWORD PTR [esi+40]
  0000e	8b ff		 npad	 2
$LL7@Create:
; File C:\Program Files (x86)\Windows Kits\10\Include\10.0.26100.0\um\winnt.h

; 23429:         *vptr = 0;

  00010	c6 00 00	 mov	 BYTE PTR [eax], 0

; 23430: 
; 23431: #endif
; 23432: 
; 23433:         vptr++;

  00013	8d 40 01	 lea	 eax, DWORD PTR [eax+1]

; 23434:         cnt--;

  00016	83 ea 01	 sub	 edx, 1
  00019	75 f5		 jne	 SHORT $LL7@Create
; File E:\Proyectos\JuegosOnlineproyectos\PB\pbblow\Piercing Blow Remake\i3Server\src\i3Base\i3LogFileA.cpp

; 29   : 	i3String::Format( m_strFileName, LOG_STRING_MAX, "%s\\%s", wstrPathName, wstrFileName ); 

  0001b	ff 75 0c	 push	 DWORD PTR _wstrFileName$[ebp]
  0001e	8d 86 0c 04 00
	00		 lea	 eax, DWORD PTR [esi+1036]
  00024	ff 75 08	 push	 DWORD PTR _wstrPathName$[ebp]
  00027	68 00 00 00 00	 push	 OFFSET ??_C@_05BMGBEOOC@?$CFs?2?$CFs@
  0002c	68 00 04 00 00	 push	 1024			; 00000400H
  00031	50		 push	 eax
  00032	e8 00 00 00 00	 call	 ?Format@i3String@@YAHPADHPBDZZ ; i3String::Format
  00037	83 c4 14	 add	 esp, 20			; 00000014H

; 30   : 		
; 31   : 	_UpdateTime();

  0003a	8b ce		 mov	 ecx, esi
  0003c	e8 00 00 00 00	 call	 ?_UpdateTime@i3LogFileBase@@IAEXXZ ; i3LogFileBase::_UpdateTime

; 32   : 
; 33   : 	i3String::Format( m_strStartText, LOG_STRING_MAX, "-- COMPILE DATE : Ver:%d.%d.%d.%d, BuildDate:%s %s, StartDate:%04d-%02d-%02d %02d:%02d --\r\n", 

  00041	ff b6 98 03 00
	00		 push	 DWORD PTR [esi+920]
  00047	0f b7 86 a2 03
	00 00		 movzx	 eax, WORD PTR [esi+930]
  0004e	ff b6 94 03 00
	00		 push	 DWORD PTR [esi+916]
  00054	ff b6 90 03 00
	00		 push	 DWORD PTR [esi+912]
  0005a	ff b6 8c 03 00
	00		 push	 DWORD PTR [esi+908]
  00060	ff b6 88 03 00
	00		 push	 DWORD PTR [esi+904]
  00066	68 00 00 00 00	 push	 OFFSET ??_C@_08PDOIDENO@19?305?327@
  0006b	68 00 00 00 00	 push	 OFFSET ??_C@_0M@GNMHGPLF@Mar?517?52026@
  00070	ff b6 a8 03 00
	00		 push	 DWORD PTR [esi+936]
  00076	ff b6 a4 03 00
	00		 push	 DWORD PTR [esi+932]
  0007c	50		 push	 eax
  0007d	0f b7 86 a0 03
	00 00		 movzx	 eax, WORD PTR [esi+928]
  00084	50		 push	 eax
  00085	68 00 00 00 00	 push	 OFFSET ??_C@_0FM@JPNPCLLK@?9?9?5COMPILE?5DATE?5?3?5Ver?3?$CFd?4?$CFd?4?$CFd?4@
  0008a	8d 86 f4 0b 00
	00		 lea	 eax, DWORD PTR [esi+3060]
  00090	68 00 04 00 00	 push	 1024			; 00000400H
  00095	50		 push	 eax
  00096	e8 00 00 00 00	 call	 ?Format@i3String@@YAHPADHPBDZZ ; i3String::Format

; 34   : 		m_ui16Ver01, m_ui16Ver02, m_ui32Ver03, m_ui32Ver04, __DATE__, __TIME__, m_iYear, m_iMonth, m_iDay, m_iHour, m_iMinute );
; 35   : 
; 36   : 	//Create File 
; 37   : 	if( false == _CreateFile() )								return FALSE; 

  0009b	8b 06		 mov	 eax, DWORD PTR [esi]
  0009d	83 c4 38	 add	 esp, 56			; 00000038H
  000a0	8b ce		 mov	 ecx, esi
  000a2	ff 50 0c	 call	 DWORD PTR [eax+12]
  000a5	85 c0		 test	 eax, eax
  000a7	75 05		 jne	 SHORT $LN2@Create
  000a9	5e		 pop	 esi

; 40   : }

  000aa	5d		 pop	 ebp
  000ab	c2 14 00	 ret	 20			; 00000014H
$LN2@Create:

; 38   : 
; 39   : 	return i3LogFileBase::_Create( iSaveType, iLogBufferCount, iThreadPri ); 

  000ae	ff 75 18	 push	 DWORD PTR _iThreadPri$[ebp]
  000b1	8b ce		 mov	 ecx, esi
  000b3	ff 75 14	 push	 DWORD PTR _iLogBufferCount$[ebp]
  000b6	ff 75 10	 push	 DWORD PTR _iSaveType$[ebp]
  000b9	e8 00 00 00 00	 call	 ?_Create@i3LogFileBase@@IAEHHHH@Z ; i3LogFileBase::_Create
  000be	5e		 pop	 esi

; 40   : }

  000bf	5d		 pop	 ebp
  000c0	c2 14 00	 ret	 20			; 00000014H
?Create@i3LogFileA@@QAEHPAD0HHH@Z ENDP			; i3LogFileA::Create
_TEXT	ENDS
; Function compile flags: /Ogtp
; File E:\Proyectos\JuegosOnlineproyectos\PB\pbblow\Piercing Blow Remake\i3Server\src\i3Base\i3LogFileA.cpp
;	COMDAT ??1i3LogFileA@@UAE@XZ
_TEXT	SEGMENT
??1i3LogFileA@@UAE@XZ PROC				; i3LogFileA::~i3LogFileA, COMDAT
; _this$ = ecx

; 20   : {

  00000	c7 01 00 00 00
	00		 mov	 DWORD PTR [ecx], OFFSET ??_7i3LogFileA@@6B@

; 21   : 	Destroy(); 
; 22   : }

  00006	e9 00 00 00 00	 jmp	 ??1i3LogFileBase@@UAE@XZ ; i3LogFileBase::~i3LogFileBase
??1i3LogFileA@@UAE@XZ ENDP				; i3LogFileA::~i3LogFileA
_TEXT	ENDS
; Function compile flags: /Ogtp
; File E:\Proyectos\JuegosOnlineproyectos\PB\pbblow\Piercing Blow Remake\i3Server\src\i3Base\i3LogFileA.cpp
;	COMDAT ??0i3LogFileA@@QAE@XZ
_TEXT	SEGMENT
_this$ = -4						; size = 4
??0i3LogFileA@@QAE@XZ PROC				; i3LogFileA::i3LogFileA, COMDAT
; _this$ = ecx

; 14   : {

  00000	55		 push	 ebp
  00001	8b ec		 mov	 ebp, esp
  00003	51		 push	 ecx
  00004	56		 push	 esi
  00005	8b f1		 mov	 esi, ecx
  00007	89 75 fc	 mov	 DWORD PTR _this$[ebp], esi
  0000a	e8 00 00 00 00	 call	 ??0i3LogFileBase@@QAE@XZ ; i3LogFileBase::i3LogFileBase
  0000f	c7 06 00 00 00
	00		 mov	 DWORD PTR [esi], OFFSET ??_7i3LogFileA@@6B@

; 15   : 	m_strFileName[0]	= '\0'; 
; 16   : 	m_strStartText[0]	= '\0';
; 17   : }

  00015	8b c6		 mov	 eax, esi
  00017	c6 86 0c 04 00
	00 00		 mov	 BYTE PTR [esi+1036], 0
  0001e	c6 86 f4 0b 00
	00 00		 mov	 BYTE PTR [esi+3060], 0
  00025	5e		 pop	 esi
  00026	8b e5		 mov	 esp, ebp
  00028	5d		 pop	 ebp
  00029	c3		 ret	 0
??0i3LogFileA@@QAE@XZ ENDP				; i3LogFileA::i3LogFileA
_TEXT	ENDS
; Function compile flags: /Ogtp
; File E:\Proyectos\JuegosOnlineproyectos\PB\pbblow\Piercing Blow Remake\i3Server\src\i3Base\i3LogFileA.cpp
;	COMDAT ?_WriteLog@i3LogFileA@@IAEXPAD@Z
_TEXT	SEGMENT
_strLog$ = 8						; size = 4
?_WriteLog@i3LogFileA@@IAEXPAD@Z PROC			; i3LogFileA::_WriteLog, COMDAT
; _this$ = ecx

; 150  : {

  00000	55		 push	 ebp
  00001	8b ec		 mov	 ebp, esp
  00003	56		 push	 esi
  00004	57		 push	 edi
  00005	8b f1		 mov	 esi, ecx

; 151  : #ifdef USE_THREAD_ID
; 152  : 	INT32 i32WorkIdx = _FindWorkIdx();

  00007	e8 00 00 00 00	 call	 ?_FindWorkIdx@i3LogFileBase@@IAEHXZ ; i3LogFileBase::_FindWorkIdx
  0000c	8b f8		 mov	 edi, eax

; 153  : 
; 154  : 	if( RV_ADD_FAIL == i32WorkIdx )

  0000e	81 ff 01 00 00
	80		 cmp	 edi, -2147483647	; 80000001H
  00014	74 4d		 je	 SHORT $LN3@WriteLog

; 155  : 	{	
; 156  : 		#ifdef I3_DEBUG
; 157  : 		I3FATAL("Invalid Thread ID : %d\n", GetCurrentThreadId());
; 158  : 		#endif
; 159  : 		return;
; 160  : 	}
; 161  : #endif
; 162  : 
; 163  : 	//Make PreString
; 164  : 	i3RingBuffer*		pRingBuffer = m_ppLogBuffer[i32WorkIdx]; 

  00016	53		 push	 ebx
  00017	8b 5c be 28	 mov	 ebx, DWORD PTR [esi+edi*4+40]

; 165  : 	LOG_FILE_BUFFER*	pLogBuffer	= (LOG_FILE_BUFFER*)pRingBuffer->PushPointer();

  0001b	8b cb		 mov	 ecx, ebx
  0001d	e8 00 00 00 00	 call	 ?PushPointer@i3RingBuffer@@QAEPAXXZ ; i3RingBuffer::PushPointer

; 166  : 
; 167  : 	if( pLogBuffer != NULL)

  00022	85 c0		 test	 eax, eax
  00024	74 3c		 je	 SHORT $LN7@WriteLog

; 168  : 	{
; 169  : 		i3String::Format( pLogBuffer->_strMessage, LOG_STRING_MAX, "[%02d:%02d:%02d][%s]%s\r\n", m_iHour, m_iMinute, m_iSecond, m_astrLogInit[i32WorkIdx], strLog );

  00026	ff 75 08	 push	 DWORD PTR _strLog$[ebp]
  00029	8d 8f ce 00 00
	00		 lea	 ecx, DWORD PTR [edi+206]
  0002f	8d 0c 89	 lea	 ecx, DWORD PTR [ecx+ecx*4]
  00032	8d 0c 4e	 lea	 ecx, DWORD PTR [esi+ecx*2]
  00035	51		 push	 ecx
  00036	ff b6 9c 03 00
	00		 push	 DWORD PTR [esi+924]
  0003c	ff b6 98 03 00
	00		 push	 DWORD PTR [esi+920]
  00042	ff b6 94 03 00
	00		 push	 DWORD PTR [esi+916]
  00048	68 00 00 00 00	 push	 OFFSET ??_C@_0BJ@FOGCPFMO@?$FL?$CF02d?3?$CF02d?3?$CF02d?$FN?$FL?$CFs?$FN?$CFs?$AN?6@
  0004d	68 00 04 00 00	 push	 1024			; 00000400H
  00052	50		 push	 eax
  00053	e8 00 00 00 00	 call	 ?Format@i3String@@YAHPADHPBDZZ ; i3String::Format
  00058	83 c4 20	 add	 esp, 32			; 00000020H

; 170  : 		pRingBuffer->PushPointerIdx();

  0005b	8b cb		 mov	 ecx, ebx
  0005d	e8 00 00 00 00	 call	 ?PushPointerIdx@i3RingBuffer@@QAEXXZ ; i3RingBuffer::PushPointerIdx
$LN7@WriteLog:
  00062	5b		 pop	 ebx
$LN3@WriteLog:
  00063	5f		 pop	 edi

; 171  : 	}
; 172  : }

  00064	5e		 pop	 esi
  00065	5d		 pop	 ebp
  00066	c2 04 00	 ret	 4
?_WriteLog@i3LogFileA@@IAEXPAD@Z ENDP			; i3LogFileA::_WriteLog
_TEXT	ENDS
; Function compile flags: /Ogtp
; File E:\Proyectos\JuegosOnlineproyectos\PB\pbblow\Piercing Blow Remake\i3Server\src\i3Base\i3LogFileA.cpp
;	COMDAT ?_Working@i3LogFileA@@MAEHXZ
_TEXT	SEGMENT
_iLogCount$1$ = -16					; size = 4
_this$1$ = -12						; size = 4
_i32Length$1 = -8					; size = 4
_bWorking$1$ = -4					; size = 4
?_Working@i3LogFileA@@MAEHXZ PROC			; i3LogFileA::_Working, COMDAT
; _this$ = ecx

; 103  : {

  00000	55		 push	 ebp
  00001	8b ec		 mov	 ebp, esp
  00003	83 ec 10	 sub	 esp, 16			; 00000010H
  00006	53		 push	 ebx
  00007	57		 push	 edi
  00008	8b f9		 mov	 edi, ecx

; 104  : 	INT32 iLogCount; 
; 105  : 	LOG_FILE_BUFFER * pLogBuffer;	
; 106  : 	BOOL bWorking = FALSE; 

  0000a	33 c0		 xor	 eax, eax

; 107  : 
; 108  : 	//Write Log 
; 109  : 	for(UINT32 j = 0; j < m_ui32WorkCounter; j++)

  0000c	33 db		 xor	 ebx, ebx
  0000e	89 7d f4	 mov	 DWORD PTR _this$1$[ebp], edi
  00011	89 45 fc	 mov	 DWORD PTR _bWorking$1$[ebp], eax
  00014	39 87 b8 01 00
	00		 cmp	 DWORD PTR [edi+440], eax
  0001a	76 67		 jbe	 SHORT $LN3@Working
  0001c	56		 push	 esi
  0001d	8d 49 00	 npad	 3
$LL4@Working:

; 110  : 	{
; 111  : 		iLogCount = m_ppLogBuffer[j]->GetBufferCount(); 

  00020	8b 4c 9f 28	 mov	 ecx, DWORD PTR [edi+ebx*4+40]
  00024	e8 00 00 00 00	 call	 ?GetBufferCount@i3RingBuffer@@QAEHXZ ; i3RingBuffer::GetBufferCount
  00029	33 f6		 xor	 esi, esi
  0002b	89 45 f0	 mov	 DWORD PTR _iLogCount$1$[ebp], eax

; 112  : 		for(INT32 i = 0; i < iLogCount; i++)

  0002e	85 c0		 test	 eax, eax
  00030	7e 44		 jle	 SHORT $LN20@Working
$LL7@Working:

; 113  : 		{
; 114  : 			pLogBuffer = (LOG_FILE_BUFFER *) m_ppLogBuffer[j]->Pop();

  00032	8b 4c 9f 28	 mov	 ecx, DWORD PTR [edi+ebx*4+40]
  00036	e8 00 00 00 00	 call	 ?Pop@i3RingBuffer@@QAEPAXXZ ; i3RingBuffer::Pop

; 115  : 			_WriteLogFile( pLogBuffer->_strMessage ); 

  0003b	8b f8		 mov	 edi, eax

; 48   : 	INT32 i32Length = (INT32)i3String::Length( wstrLog ); 

  0003d	57		 push	 edi
  0003e	e8 00 00 00 00	 call	 ?Length@i3String@@YAHPBD@Z ; i3String::Length
  00043	83 c4 04	 add	 esp, 4
  00046	89 45 f8	 mov	 DWORD PTR _i32Length$1[ebp], eax

; 49   : 	::WriteFile( m_hFile, wstrLog, i32Length, (LPDWORD)&i32Length, NULL ); 

  00049	8d 4d f8	 lea	 ecx, DWORD PTR _i32Length$1[ebp]
  0004c	6a 00		 push	 0
  0004e	51		 push	 ecx
  0004f	50		 push	 eax
  00050	57		 push	 edi
  00051	8b 7d f4	 mov	 edi, DWORD PTR _this$1$[ebp]
  00054	ff 77 18	 push	 DWORD PTR [edi+24]
  00057	ff 15 00 00 00
	00		 call	 DWORD PTR __imp__WriteFile@20

; 116  : 			m_ppLogBuffer[j]->PopIdx();

  0005d	8b 4c 9f 28	 mov	 ecx, DWORD PTR [edi+ebx*4+40]
  00061	e8 00 00 00 00	 call	 ?PopIdx@i3RingBuffer@@QAEXXZ ; i3RingBuffer::PopIdx
  00066	46		 inc	 esi

; 117  : 			bWorking = TRUE; 

  00067	b8 01 00 00 00	 mov	 eax, 1
  0006c	89 45 fc	 mov	 DWORD PTR _bWorking$1$[ebp], eax
  0006f	3b 75 f0	 cmp	 esi, DWORD PTR _iLogCount$1$[ebp]
  00072	7c be		 jl	 SHORT $LL7@Working

; 112  : 		for(INT32 i = 0; i < iLogCount; i++)

  00074	eb 03		 jmp	 SHORT $LN2@Working
$LN20@Working:
  00076	8b 45 fc	 mov	 eax, DWORD PTR _bWorking$1$[ebp]
$LN2@Working:

; 107  : 
; 108  : 	//Write Log 
; 109  : 	for(UINT32 j = 0; j < m_ui32WorkCounter; j++)

  00079	43		 inc	 ebx
  0007a	3b 9f b8 01 00
	00		 cmp	 ebx, DWORD PTR [edi+440]
  00080	72 9e		 jb	 SHORT $LL4@Working
  00082	5e		 pop	 esi
$LN3@Working:
  00083	5f		 pop	 edi

; 118  : 		}
; 119  : 	}
; 120  : 	return bWorking;
; 121  : }

  00084	5b		 pop	 ebx
  00085	8b e5		 mov	 esp, ebp
  00087	5d		 pop	 ebp
  00088	c3		 ret	 0
?_Working@i3LogFileA@@MAEHXZ ENDP			; i3LogFileA::_Working
_TEXT	ENDS
; Function compile flags: /Ogtp
; File E:\Proyectos\JuegosOnlineproyectos\PB\pbblow\Piercing Blow Remake\i3Server\src\i3Base\i3LogFileA.cpp
;	COMDAT ?_WriteLogFile@i3LogFileA@@IAEXPAD@Z
_TEXT	SEGMENT
_i32Length$ = -4					; size = 4
_wstrLog$ = 8						; size = 4
?_WriteLogFile@i3LogFileA@@IAEXPAD@Z PROC		; i3LogFileA::_WriteLogFile, COMDAT
; _this$ = ecx

; 47   : {

  00000	55		 push	 ebp
  00001	8b ec		 mov	 ebp, esp
  00003	51		 push	 ecx
  00004	57		 push	 edi

; 48   : 	INT32 i32Length = (INT32)i3String::Length( wstrLog ); 

  00005	ff 75 08	 push	 DWORD PTR _wstrLog$[ebp]
  00008	8b f9		 mov	 edi, ecx
  0000a	e8 00 00 00 00	 call	 ?Length@i3String@@YAHPBD@Z ; i3String::Length
  0000f	83 c4 04	 add	 esp, 4
  00012	89 45 fc	 mov	 DWORD PTR _i32Length$[ebp], eax

; 49   : 	::WriteFile( m_hFile, wstrLog, i32Length, (LPDWORD)&i32Length, NULL ); 

  00015	8d 4d fc	 lea	 ecx, DWORD PTR _i32Length$[ebp]
  00018	6a 00		 push	 0
  0001a	51		 push	 ecx
  0001b	50		 push	 eax
  0001c	ff 75 08	 push	 DWORD PTR _wstrLog$[ebp]
  0001f	ff 77 18	 push	 DWORD PTR [edi+24]
  00022	ff 15 00 00 00
	00		 call	 DWORD PTR __imp__WriteFile@20
  00028	5f		 pop	 edi

; 50   : 	I3TRACE( wstrLog );
; 51   : }

  00029	8b e5		 mov	 esp, ebp
  0002b	5d		 pop	 ebp
  0002c	c2 04 00	 ret	 4
?_WriteLogFile@i3LogFileA@@IAEXPAD@Z ENDP		; i3LogFileA::_WriteLogFile
_TEXT	ENDS
; Function compile flags: /Ogtp
; File E:\Proyectos\JuegosOnlineproyectos\PB\pbblow\Piercing Blow Remake\i3Server\src\i3Base\i3LogFileA.cpp
;	COMDAT ?_CreateFile@i3LogFileA@@MAEHXZ
_TEXT	SEGMENT
_i32Length$1 = -268					; size = 4
_wstrFileName$ = -264					; size = 260
__$ArrayPad$ = -4					; size = 4
?_CreateFile@i3LogFileA@@MAEHXZ PROC			; i3LogFileA::_CreateFile, COMDAT
; _this$ = ecx

; 175  : {

  00000	55		 push	 ebp
  00001	8b ec		 mov	 ebp, esp
  00003	81 ec 0c 01 00
	00		 sub	 esp, 268		; 0000010cH
  00009	a1 00 00 00 00	 mov	 eax, DWORD PTR ___security_cookie
  0000e	33 c5		 xor	 eax, ebp
  00010	89 45 fc	 mov	 DWORD PTR __$ArrayPad$[ebp], eax
  00013	56		 push	 esi
  00014	57		 push	 edi
  00015	8b f9		 mov	 edi, ecx

; 176  : 	BOOL Rv = TRUE; 
; 177  : 	TCHAR wstrFileName[ MAX_PATH ]; 
; 178  : 	i3String::Format( wstrFileName, MAX_PATH, "%s_%02d_%02d_%02d_%02d.txt", m_strFileName, m_iYear, m_iMonth, m_iDay, m_iHour);

  00017	ff b7 94 03 00
	00		 push	 DWORD PTR [edi+916]
  0001d	8d 87 0c 04 00
	00		 lea	 eax, DWORD PTR [edi+1036]
  00023	ff b7 90 03 00
	00		 push	 DWORD PTR [edi+912]
  00029	ff b7 8c 03 00
	00		 push	 DWORD PTR [edi+908]
  0002f	ff b7 88 03 00
	00		 push	 DWORD PTR [edi+904]
  00035	50		 push	 eax
  00036	68 00 00 00 00	 push	 OFFSET ??_C@_0BL@EDDEFHCJ@?$CFs_?$CF02d_?$CF02d_?$CF02d_?$CF02d?4txt@
  0003b	8d 85 f8 fe ff
	ff		 lea	 eax, DWORD PTR _wstrFileName$[ebp]
  00041	68 04 01 00 00	 push	 260			; 00000104H
  00046	50		 push	 eax
  00047	e8 00 00 00 00	 call	 ?Format@i3String@@YAHPADHPBDZZ ; i3String::Format

; 179  : 
; 180  : 	//Close Old File 
; 181  : 	if( m_hFile != INVALID_HANDLE_VALUE)

  0004c	8b 47 18	 mov	 eax, DWORD PTR [edi+24]
  0004f	83 c4 20	 add	 esp, 32			; 00000020H
  00052	8b 35 00 00 00
	00		 mov	 esi, DWORD PTR __imp__CloseHandle@4
  00058	83 f8 ff	 cmp	 eax, -1
  0005b	74 0a		 je	 SHORT $LN2@CreateFile

; 182  : 	{
; 183  : 		::CloseHandle( m_hFile );

  0005d	50		 push	 eax
  0005e	ff d6		 call	 esi

; 184  : 		m_hFile = INVALID_HANDLE_VALUE; 

  00060	c7 47 18 ff ff
	ff ff		 mov	 DWORD PTR [edi+24], -1
$LN2@CreateFile:

; 185  : 	}
; 186  : 
; 187  : 	// Create New File
; 188  : 	m_hFile = ::CreateFile( wstrFileName, GENERIC_WRITE, FILE_SHARE_WRITE | FILE_SHARE_READ, NULL, OPEN_ALWAYS, FILE_ATTRIBUTE_NORMAL, NULL );

  00067	6a 00		 push	 0
  00069	68 80 00 00 00	 push	 128			; 00000080H
  0006e	6a 04		 push	 4
  00070	6a 00		 push	 0
  00072	6a 03		 push	 3
  00074	68 00 00 00 40	 push	 1073741824		; 40000000H
  00079	8d 85 f8 fe ff
	ff		 lea	 eax, DWORD PTR _wstrFileName$[ebp]
  0007f	50		 push	 eax
  00080	ff 15 00 00 00
	00		 call	 DWORD PTR __imp__CreateFileA@28
  00086	89 47 18	 mov	 DWORD PTR [edi+24], eax

; 189  : 
; 190  : 	if(m_hFile == INVALID_HANDLE_VALUE)

  00089	83 f8 ff	 cmp	 eax, -1
  0008c	75 1c		 jne	 SHORT $LN3@CreateFile

; 191  : 	{			
; 192  : 		::CloseHandle( m_hFile );

  0008e	50		 push	 eax
  0008f	ff d6		 call	 esi

; 193  : 		m_hFile = INVALID_HANDLE_VALUE; 

  00091	c7 47 18 ff ff
	ff ff		 mov	 DWORD PTR [edi+24], -1

; 204  : 	}
; 205  : 
; 206  : 	return Rv;

  00098	33 c0		 xor	 eax, eax
  0009a	5f		 pop	 edi

; 207  : }

  0009b	5e		 pop	 esi
  0009c	8b 4d fc	 mov	 ecx, DWORD PTR __$ArrayPad$[ebp]
  0009f	33 cd		 xor	 ecx, ebp
  000a1	e8 00 00 00 00	 call	 @__security_check_cookie@4
  000a6	8b e5		 mov	 esp, ebp
  000a8	5d		 pop	 ebp
  000a9	c3		 ret	 0
$LN3@CreateFile:

; 194  : 		Rv = FALSE; 
; 195  : 	}
; 196  : 	else
; 197  : 	{
; 198  : 		SetFilePointer( m_hFile, 0, NULL, FILE_END);

  000aa	6a 02		 push	 2
  000ac	6a 00		 push	 0
  000ae	6a 00		 push	 0
  000b0	50		 push	 eax
  000b1	ff 15 00 00 00
	00		 call	 DWORD PTR __imp__SetFilePointer@16

; 199  : 
; 200  : 		m_ui32FileHour	= m_iHour;

  000b7	8b 87 94 03 00
	00		 mov	 eax, DWORD PTR [edi+916]

; 202  : 				
; 203  : 		_WriteLogFile( m_strStartText ); 

  000bd	8d b7 f4 0b 00
	00		 lea	 esi, DWORD PTR [edi+3060]
  000c3	89 47 20	 mov	 DWORD PTR [edi+32], eax
  000c6	8b 87 90 03 00
	00		 mov	 eax, DWORD PTR [edi+912]

; 48   : 	INT32 i32Length = (INT32)i3String::Length( wstrLog ); 

  000cc	56		 push	 esi

; 201  : 		m_ui32FileDay	= m_iDay; 

  000cd	89 47 24	 mov	 DWORD PTR [edi+36], eax

; 48   : 	INT32 i32Length = (INT32)i3String::Length( wstrLog ); 

  000d0	e8 00 00 00 00	 call	 ?Length@i3String@@YAHPBD@Z ; i3String::Length
  000d5	83 c4 04	 add	 esp, 4
  000d8	89 85 f4 fe ff
	ff		 mov	 DWORD PTR _i32Length$1[ebp], eax

; 49   : 	::WriteFile( m_hFile, wstrLog, i32Length, (LPDWORD)&i32Length, NULL ); 

  000de	8d 8d f4 fe ff
	ff		 lea	 ecx, DWORD PTR _i32Length$1[ebp]
  000e4	6a 00		 push	 0
  000e6	51		 push	 ecx
  000e7	50		 push	 eax
  000e8	56		 push	 esi
  000e9	ff 77 18	 push	 DWORD PTR [edi+24]
  000ec	ff 15 00 00 00
	00		 call	 DWORD PTR __imp__WriteFile@20

; 207  : }

  000f2	8b 4d fc	 mov	 ecx, DWORD PTR __$ArrayPad$[ebp]
  000f5	b8 01 00 00 00	 mov	 eax, 1
  000fa	5f		 pop	 edi
  000fb	33 cd		 xor	 ecx, ebp
  000fd	5e		 pop	 esi
  000fe	e8 00 00 00 00	 call	 @__security_check_cookie@4
  00103	8b e5		 mov	 esp, ebp
  00105	5d		 pop	 ebp
  00106	c3		 ret	 0
?_CreateFile@i3LogFileA@@MAEHXZ ENDP			; i3LogFileA::_CreateFile
_TEXT	ENDS
; Function compile flags: /Ogtp
; File E:\Proyectos\JuegosOnlineproyectos\PB\pbblow\Piercing Blow Remake\i3Server\src\i3Base\i3LogFileA.cpp
;	COMDAT ?_BindObjectRefByType@i3LogFileA@@SAPAV1@PAXW4I3_CLASSMETA_TYPE@@@Z
_TEXT	SEGMENT
_pBuf$ = 8						; size = 4
_type$ = 12						; size = 4
?_BindObjectRefByType@i3LogFileA@@SAPAV1@PAXW4I3_CLASSMETA_TYPE@@@Z PROC ; i3LogFileA::_BindObjectRefByType, COMDAT

; 6    : I3_CLASS_INSTANCE( i3LogFileA, i3LogFileBase );

  00000	55		 push	 ebp
  00001	8b ec		 mov	 ebp, esp
  00003	8b 0d 00 00 00
	00		 mov	 ecx, DWORD PTR ?s_pClassMetai3LogFileA@i3LogFileA@@2PAVi3ClassMeta@@A ; i3LogFileA::s_pClassMetai3LogFileA
  00009	ff 75 0c	 push	 DWORD PTR _type$[ebp]
  0000c	ff 75 08	 push	 DWORD PTR _pBuf$[ebp]
  0000f	8b 01		 mov	 eax, DWORD PTR [ecx]
  00011	ff 50 08	 call	 DWORD PTR [eax+8]
  00014	5d		 pop	 ebp
  00015	c3		 ret	 0
?_BindObjectRefByType@i3LogFileA@@SAPAV1@PAXW4I3_CLASSMETA_TYPE@@@Z ENDP ; i3LogFileA::_BindObjectRefByType
_TEXT	ENDS
; Function compile flags: /Ogtp
; File E:\Proyectos\JuegosOnlineproyectos\PB\pbblow\Piercing Blow Remake\i3Server\src\i3Base\i3LogFileA.cpp
; File E:\Proyectos\JuegosOnlineproyectos\PB\pbblow\Piercing Blow Remake\i3Server\include\i3Base\i3ElementBase.h
; File E:\Proyectos\JuegosOnlineproyectos\PB\pbblow\Piercing Blow Remake\i3Server\src\i3Base\i3LogFileA.cpp
;	COMDAT ?_BindObjectByType@i3LogFileA@@SAPAV1@PAXW4I3_CLASSMETA_TYPE@@@Z
_TEXT	SEGMENT
_pBuf$ = 8						; size = 4
_type$ = 12						; size = 4
?_BindObjectByType@i3LogFileA@@SAPAV1@PAXW4I3_CLASSMETA_TYPE@@@Z PROC ; i3LogFileA::_BindObjectByType, COMDAT

; 6    : I3_CLASS_INSTANCE( i3LogFileA, i3LogFileBase );

  00000	55		 push	 ebp
  00001	8b ec		 mov	 ebp, esp
  00003	8b 0d 00 00 00
	00		 mov	 ecx, DWORD PTR ?s_pClassMetai3LogFileA@i3LogFileA@@2PAVi3ClassMeta@@A ; i3LogFileA::s_pClassMetai3LogFileA
  00009	ff 75 0c	 push	 DWORD PTR _type$[ebp]
  0000c	ff 75 08	 push	 DWORD PTR _pBuf$[ebp]
  0000f	8b 01		 mov	 eax, DWORD PTR [ecx]
  00011	ff 50 08	 call	 DWORD PTR [eax+8]
; File E:\Proyectos\JuegosOnlineproyectos\PB\pbblow\Piercing Blow Remake\i3Server\include\i3Base\i3ElementBase.h

; 392  : 		m_RefCount++;

  00014	ff 40 04	 inc	 DWORD PTR [eax+4]
; File E:\Proyectos\JuegosOnlineproyectos\PB\pbblow\Piercing Blow Remake\i3Server\src\i3Base\i3LogFileA.cpp

; 6    : I3_CLASS_INSTANCE( i3LogFileA, i3LogFileBase );

  00017	5d		 pop	 ebp
  00018	c3		 ret	 0
?_BindObjectByType@i3LogFileA@@SAPAV1@PAXW4I3_CLASSMETA_TYPE@@@Z ENDP ; i3LogFileA::_BindObjectByType
_TEXT	ENDS
; Function compile flags: /Ogtp
; File E:\Proyectos\JuegosOnlineproyectos\PB\pbblow\Piercing Blow Remake\i3Server\src\i3Base\i3LogFileA.cpp
;	COMDAT ?_NewObjectRefByType@i3LogFileA@@SAPAV1@W4I3_CLASSMETA_TYPE@@@Z
_TEXT	SEGMENT
_type$ = 8						; size = 4
?_NewObjectRefByType@i3LogFileA@@SAPAV1@W4I3_CLASSMETA_TYPE@@@Z PROC ; i3LogFileA::_NewObjectRefByType, COMDAT

; 6    : I3_CLASS_INSTANCE( i3LogFileA, i3LogFileBase );

  00000	55		 push	 ebp
  00001	8b ec		 mov	 ebp, esp
  00003	8b 0d 00 00 00
	00		 mov	 ecx, DWORD PTR ?s_pClassMetai3LogFileA@i3LogFileA@@2PAVi3ClassMeta@@A ; i3LogFileA::s_pClassMetai3LogFileA
  00009	ff 75 08	 push	 DWORD PTR _type$[ebp]
  0000c	8b 01		 mov	 eax, DWORD PTR [ecx]
  0000e	ff 50 04	 call	 DWORD PTR [eax+4]
  00011	5d		 pop	 ebp
  00012	c3		 ret	 0
?_NewObjectRefByType@i3LogFileA@@SAPAV1@W4I3_CLASSMETA_TYPE@@@Z ENDP ; i3LogFileA::_NewObjectRefByType
_TEXT	ENDS
; Function compile flags: /Ogtp
; File E:\Proyectos\JuegosOnlineproyectos\PB\pbblow\Piercing Blow Remake\i3Server\src\i3Base\i3LogFileA.cpp
; File E:\Proyectos\JuegosOnlineproyectos\PB\pbblow\Piercing Blow Remake\i3Server\include\i3Base\i3ElementBase.h
; File E:\Proyectos\JuegosOnlineproyectos\PB\pbblow\Piercing Blow Remake\i3Server\src\i3Base\i3LogFileA.cpp
;	COMDAT ?_NewObjectByType@i3LogFileA@@SAPAV1@W4I3_CLASSMETA_TYPE@@@Z
_TEXT	SEGMENT
_type$ = 8						; size = 4
?_NewObjectByType@i3LogFileA@@SAPAV1@W4I3_CLASSMETA_TYPE@@@Z PROC ; i3LogFileA::_NewObjectByType, COMDAT

; 6    : I3_CLASS_INSTANCE( i3LogFileA, i3LogFileBase );

  00000	55		 push	 ebp
  00001	8b ec		 mov	 ebp, esp
  00003	8b 0d 00 00 00
	00		 mov	 ecx, DWORD PTR ?s_pClassMetai3LogFileA@i3LogFileA@@2PAVi3ClassMeta@@A ; i3LogFileA::s_pClassMetai3LogFileA
  00009	ff 75 08	 push	 DWORD PTR _type$[ebp]
  0000c	8b 01		 mov	 eax, DWORD PTR [ecx]
  0000e	ff 50 04	 call	 DWORD PTR [eax+4]
; File E:\Proyectos\JuegosOnlineproyectos\PB\pbblow\Piercing Blow Remake\i3Server\include\i3Base\i3ElementBase.h

; 392  : 		m_RefCount++;

  00011	ff 40 04	 inc	 DWORD PTR [eax+4]
; File E:\Proyectos\JuegosOnlineproyectos\PB\pbblow\Piercing Blow Remake\i3Server\src\i3Base\i3LogFileA.cpp

; 6    : I3_CLASS_INSTANCE( i3LogFileA, i3LogFileBase );

  00014	5d		 pop	 ebp
  00015	c3		 ret	 0
?_NewObjectByType@i3LogFileA@@SAPAV1@W4I3_CLASSMETA_TYPE@@@Z ENDP ; i3LogFileA::_NewObjectByType
_TEXT	ENDS
; Function compile flags: /Ogtp
; File E:\Proyectos\JuegosOnlineproyectos\PB\pbblow\Piercing Blow Remake\i3Server\src\i3Base\i3LogFileA.cpp
;	COMDAT ?_BindObjectRef@i3LogFileA@@SAPAV1@PAX@Z
_TEXT	SEGMENT
_pBuf$ = 8						; size = 4
?_BindObjectRef@i3LogFileA@@SAPAV1@PAX@Z PROC		; i3LogFileA::_BindObjectRef, COMDAT

; 6    : I3_CLASS_INSTANCE( i3LogFileA, i3LogFileBase );

  00000	55		 push	 ebp
  00001	8b ec		 mov	 ebp, esp
  00003	8b 0d 00 00 00
	00		 mov	 ecx, DWORD PTR ?s_pClassMetai3LogFileA@i3LogFileA@@2PAVi3ClassMeta@@A ; i3LogFileA::s_pClassMetai3LogFileA
  00009	6a 00		 push	 0
  0000b	ff 75 08	 push	 DWORD PTR _pBuf$[ebp]
  0000e	8b 01		 mov	 eax, DWORD PTR [ecx]
  00010	ff 50 08	 call	 DWORD PTR [eax+8]
  00013	5d		 pop	 ebp
  00014	c3		 ret	 0
?_BindObjectRef@i3LogFileA@@SAPAV1@PAX@Z ENDP		; i3LogFileA::_BindObjectRef
_TEXT	ENDS
; Function compile flags: /Ogtp
; File E:\Proyectos\JuegosOnlineproyectos\PB\pbblow\Piercing Blow Remake\i3Server\src\i3Base\i3LogFileA.cpp
; File E:\Proyectos\JuegosOnlineproyectos\PB\pbblow\Piercing Blow Remake\i3Server\include\i3Base\i3ElementBase.h
; File E:\Proyectos\JuegosOnlineproyectos\PB\pbblow\Piercing Blow Remake\i3Server\src\i3Base\i3LogFileA.cpp
;	COMDAT ?_BindObject@i3LogFileA@@SAPAV1@PAX@Z
_TEXT	SEGMENT
_pBuf$ = 8						; size = 4
?_BindObject@i3LogFileA@@SAPAV1@PAX@Z PROC		; i3LogFileA::_BindObject, COMDAT

; 6    : I3_CLASS_INSTANCE( i3LogFileA, i3LogFileBase );

  00000	55		 push	 ebp
  00001	8b ec		 mov	 ebp, esp
  00003	8b 0d 00 00 00
	00		 mov	 ecx, DWORD PTR ?s_pClassMetai3LogFileA@i3LogFileA@@2PAVi3ClassMeta@@A ; i3LogFileA::s_pClassMetai3LogFileA
  00009	6a 00		 push	 0
  0000b	ff 75 08	 push	 DWORD PTR _pBuf$[ebp]
  0000e	8b 01		 mov	 eax, DWORD PTR [ecx]
  00010	ff 50 08	 call	 DWORD PTR [eax+8]
; File E:\Proyectos\JuegosOnlineproyectos\PB\pbblow\Piercing Blow Remake\i3Server\include\i3Base\i3ElementBase.h

; 392  : 		m_RefCount++;

  00013	ff 40 04	 inc	 DWORD PTR [eax+4]
; File E:\Proyectos\JuegosOnlineproyectos\PB\pbblow\Piercing Blow Remake\i3Server\src\i3Base\i3LogFileA.cpp

; 6    : I3_CLASS_INSTANCE( i3LogFileA, i3LogFileBase );

  00016	5d		 pop	 ebp
  00017	c3		 ret	 0
?_BindObject@i3LogFileA@@SAPAV1@PAX@Z ENDP		; i3LogFileA::_BindObject
_TEXT	ENDS
; Function compile flags: /Ogtp
; File E:\Proyectos\JuegosOnlineproyectos\PB\pbblow\Piercing Blow Remake\i3Server\src\i3Base\i3LogFileA.cpp
;	COMDAT ?_NewObjectRef@i3LogFileA@@SAPAV1@XZ
_TEXT	SEGMENT
?_NewObjectRef@i3LogFileA@@SAPAV1@XZ PROC		; i3LogFileA::_NewObjectRef, COMDAT

; 6    : I3_CLASS_INSTANCE( i3LogFileA, i3LogFileBase );

  00000	8b 0d 00 00 00
	00		 mov	 ecx, DWORD PTR ?s_pClassMetai3LogFileA@i3LogFileA@@2PAVi3ClassMeta@@A ; i3LogFileA::s_pClassMetai3LogFileA
  00006	6a 00		 push	 0
  00008	8b 01		 mov	 eax, DWORD PTR [ecx]
  0000a	ff 50 04	 call	 DWORD PTR [eax+4]
  0000d	c3		 ret	 0
?_NewObjectRef@i3LogFileA@@SAPAV1@XZ ENDP		; i3LogFileA::_NewObjectRef
_TEXT	ENDS
; Function compile flags: /Ogtp
; File E:\Proyectos\JuegosOnlineproyectos\PB\pbblow\Piercing Blow Remake\i3Server\src\i3Base\i3LogFileA.cpp
; File E:\Proyectos\JuegosOnlineproyectos\PB\pbblow\Piercing Blow Remake\i3Server\include\i3Base\i3ElementBase.h
; File E:\Proyectos\JuegosOnlineproyectos\PB\pbblow\Piercing Blow Remake\i3Server\src\i3Base\i3LogFileA.cpp
;	COMDAT ?_NewObject@i3LogFileA@@SAPAV1@XZ
_TEXT	SEGMENT
?_NewObject@i3LogFileA@@SAPAV1@XZ PROC			; i3LogFileA::_NewObject, COMDAT

; 6    : I3_CLASS_INSTANCE( i3LogFileA, i3LogFileBase );

  00000	8b 0d 00 00 00
	00		 mov	 ecx, DWORD PTR ?s_pClassMetai3LogFileA@i3LogFileA@@2PAVi3ClassMeta@@A ; i3LogFileA::s_pClassMetai3LogFileA
  00006	6a 00		 push	 0
  00008	8b 01		 mov	 eax, DWORD PTR [ecx]
  0000a	ff 50 04	 call	 DWORD PTR [eax+4]
; File E:\Proyectos\JuegosOnlineproyectos\PB\pbblow\Piercing Blow Remake\i3Server\include\i3Base\i3ElementBase.h

; 392  : 		m_RefCount++;

  0000d	ff 40 04	 inc	 DWORD PTR [eax+4]
; File E:\Proyectos\JuegosOnlineproyectos\PB\pbblow\Piercing Blow Remake\i3Server\src\i3Base\i3LogFileA.cpp

; 6    : I3_CLASS_INSTANCE( i3LogFileA, i3LogFileBase );

  00010	c3		 ret	 0
?_NewObject@i3LogFileA@@SAPAV1@XZ ENDP			; i3LogFileA::_NewObject
_TEXT	ENDS
; Function compile flags: /Ogtp
; File E:\Proyectos\JuegosOnlineproyectos\PB\pbblow\Piercing Blow Remake\i3Server\src\i3Base\i3LogFileA.cpp
;	COMDAT ?SetGhostClass@i3LogFileA@@SAXPAVi3ClassMeta@@@Z
_TEXT	SEGMENT
_pMeta$ = 8						; size = 4
?SetGhostClass@i3LogFileA@@SAXPAVi3ClassMeta@@@Z PROC	; i3LogFileA::SetGhostClass, COMDAT

; 6    : I3_CLASS_INSTANCE( i3LogFileA, i3LogFileBase );

  00000	55		 push	 ebp
  00001	8b ec		 mov	 ebp, esp
  00003	ff 75 08	 push	 DWORD PTR _pMeta$[ebp]
  00006	8b 0d 00 00 00
	00		 mov	 ecx, DWORD PTR ?s_pClassMetai3LogFileA@i3LogFileA@@2PAVi3ClassMeta@@A ; i3LogFileA::s_pClassMetai3LogFileA
  0000c	e8 00 00 00 00	 call	 ?SetGhostClass@i3ClassMeta@@QAEXPAV1@@Z ; i3ClassMeta::SetGhostClass
  00011	5d		 pop	 ebp
  00012	c3		 ret	 0
?SetGhostClass@i3LogFileA@@SAXPAVi3ClassMeta@@@Z ENDP	; i3LogFileA::SetGhostClass
_TEXT	ENDS
; Function compile flags: /Ogtp
; File E:\Proyectos\JuegosOnlineproyectos\PB\pbblow\Piercing Blow Remake\i3Server\src\i3Base\i3LogFileA.cpp
;	COMDAT ?SetConcreteClass@i3LogFileA@@SAXPAVi3ClassMeta@@@Z
_TEXT	SEGMENT
_pMeta$ = 8						; size = 4
?SetConcreteClass@i3LogFileA@@SAXPAVi3ClassMeta@@@Z PROC ; i3LogFileA::SetConcreteClass, COMDAT

; 6    : I3_CLASS_INSTANCE( i3LogFileA, i3LogFileBase );

  00000	55		 push	 ebp
  00001	8b ec		 mov	 ebp, esp
  00003	ff 75 08	 push	 DWORD PTR _pMeta$[ebp]
  00006	8b 0d 00 00 00
	00		 mov	 ecx, DWORD PTR ?s_pClassMetai3LogFileA@i3LogFileA@@2PAVi3ClassMeta@@A ; i3LogFileA::s_pClassMetai3LogFileA
  0000c	e8 00 00 00 00	 call	 ?SetConcreteClass@i3ClassMeta@@QAEXPAV1@@Z ; i3ClassMeta::SetConcreteClass
  00011	5d		 pop	 ebp
  00012	c3		 ret	 0
?SetConcreteClass@i3LogFileA@@SAXPAVi3ClassMeta@@@Z ENDP ; i3LogFileA::SetConcreteClass
_TEXT	ENDS
; Function compile flags: /Ogtp
; File E:\Proyectos\JuegosOnlineproyectos\PB\pbblow\Piercing Blow Remake\i3Server\src\i3Base\i3LogFileA.cpp
;	COMDAT ?RegisterMeta@i3LogFileA@@SAXXZ
_TEXT	SEGMENT
?RegisterMeta@i3LogFileA@@SAXXZ PROC			; i3LogFileA::RegisterMeta, COMDAT

; 6    : I3_CLASS_INSTANCE( i3LogFileA, i3LogFileBase );

  00000	8b 0d 00 00 00
	00		 mov	 ecx, DWORD PTR ?s_pClassMetai3LogFileA@i3LogFileA@@2PAVi3ClassMeta@@A ; i3LogFileA::s_pClassMetai3LogFileA
  00006	e9 00 00 00 00	 jmp	 ?Register@i3ClassMeta@@QAEXXZ ; i3ClassMeta::Register
?RegisterMeta@i3LogFileA@@SAXXZ ENDP			; i3LogFileA::RegisterMeta
_TEXT	ENDS
; Function compile flags: /Ogtp
; File E:\Proyectos\JuegosOnlineproyectos\PB\pbblow\Piercing Blow Remake\i3Server\src\i3Base\i3LogFileA.cpp
;	COMDAT ?GetMeta@i3LogFileA@@UAEPAVi3ClassMeta@@XZ
_TEXT	SEGMENT
?GetMeta@i3LogFileA@@UAEPAVi3ClassMeta@@XZ PROC		; i3LogFileA::GetMeta, COMDAT
; _this$ = ecx

; 6    : I3_CLASS_INSTANCE( i3LogFileA, i3LogFileBase );

  00000	a1 00 00 00 00	 mov	 eax, DWORD PTR ?s_pClassMetai3LogFileA@i3LogFileA@@2PAVi3ClassMeta@@A ; i3LogFileA::s_pClassMetai3LogFileA
  00005	c3		 ret	 0
?GetMeta@i3LogFileA@@UAEPAVi3ClassMeta@@XZ ENDP		; i3LogFileA::GetMeta
_TEXT	ENDS
; Function compile flags: /Ogtp
; File E:\Proyectos\JuegosOnlineproyectos\PB\pbblow\Piercing Blow Remake\i3Server\include\i3Base\i3LogFileA.h
;	COMDAT ?GetClassMeta@i3LogFileA@@SAPAVi3ClassMeta@@XZ
_TEXT	SEGMENT
?GetClassMeta@i3LogFileA@@SAPAVi3ClassMeta@@XZ PROC	; i3LogFileA::GetClassMeta, COMDAT

; 8    : 	I3_CLASS_DEFINE( i3LogFileA );

  00000	a1 00 00 00 00	 mov	 eax, DWORD PTR ?s_pClassMetai3LogFileA@i3LogFileA@@2PAVi3ClassMeta@@A ; i3LogFileA::s_pClassMetai3LogFileA
  00005	c3		 ret	 0
?GetClassMeta@i3LogFileA@@SAPAVi3ClassMeta@@XZ ENDP	; i3LogFileA::GetClassMeta
_TEXT	ENDS
; Function compile flags: /Ogtp
; File E:\Proyectos\JuegosOnlineproyectos\PB\pbblow\Piercing Blow Remake\i3Server\src\i3Base\i3LogFileA.cpp
;	COMDAT ??_Ei3LogFileBase@@UAEPAXI@Z
_TEXT	SEGMENT
__$EHRec$ = -12						; size = 12
___flags$ = 8						; size = 4
??_Ei3LogFileBase@@UAEPAXI@Z PROC			; i3LogFileBase::`vector deleting destructor', COMDAT
; _this$ = ecx
  00000	55		 push	 ebp
  00001	8b ec		 mov	 ebp, esp
  00003	6a ff		 push	 -1
  00005	68 00 00 00 00	 push	 __ehhandler$??_Ei3LogFileBase@@UAEPAXI@Z
  0000a	64 a1 00 00 00
	00		 mov	 eax, DWORD PTR fs:0
  00010	50		 push	 eax
  00011	53		 push	 ebx
  00012	56		 push	 esi
  00013	57		 push	 edi
  00014	a1 00 00 00 00	 mov	 eax, DWORD PTR ___security_cookie
  00019	33 c5		 xor	 eax, ebp
  0001b	50		 push	 eax
  0001c	8d 45 f4	 lea	 eax, DWORD PTR __$EHRec$[ebp]
  0001f	64 a3 00 00 00
	00		 mov	 DWORD PTR fs:0, eax
  00025	8b f1		 mov	 esi, ecx
  00027	8b 5d 08	 mov	 ebx, DWORD PTR ___flags$[ebp]
  0002a	8b fb		 mov	 edi, ebx
  0002c	83 e7 01	 and	 edi, 1
  0002f	f6 c3 02	 test	 bl, 2
  00032	74 43		 je	 SHORT $LN2@vector
  00034	68 00 00 00 00	 push	 OFFSET ??1i3LogFileBase@@UAE@XZ ; i3LogFileBase::~i3LogFileBase
  00039	ff 76 fc	 push	 DWORD PTR [esi-4]
  0003c	8d 5e fc	 lea	 ebx, DWORD PTR [esi-4]
  0003f	68 0c 04 00 00	 push	 1036			; 0000040cH
  00044	56		 push	 esi
  00045	e8 00 00 00 00	 call	 ??_M@YGXPAXIIP6EX0@Z@Z
  0004a	85 ff		 test	 edi, edi
  0004c	74 13		 je	 SHORT $LN3@vector
  0004e	69 0b 0c 04 00
	00		 imul	 ecx, DWORD PTR [ebx], 1036
  00054	83 c1 04	 add	 ecx, 4
  00057	51		 push	 ecx
  00058	53		 push	 ebx
  00059	e8 00 00 00 00	 call	 ??_V@YAXPAXI@Z		; operator delete[]
  0005e	83 c4 08	 add	 esp, 8
$LN3@vector:
  00061	8b c3		 mov	 eax, ebx
  00063	8b 4d f4	 mov	 ecx, DWORD PTR __$EHRec$[ebp]
  00066	64 89 0d 00 00
	00 00		 mov	 DWORD PTR fs:0, ecx
  0006d	59		 pop	 ecx
  0006e	5f		 pop	 edi
  0006f	5e		 pop	 esi
  00070	5b		 pop	 ebx
  00071	8b e5		 mov	 esp, ebp
  00073	5d		 pop	 ebp
  00074	c2 04 00	 ret	 4
$LN2@vector:
  00077	e8 00 00 00 00	 call	 ??1i3LogFileBase@@UAE@XZ ; i3LogFileBase::~i3LogFileBase
  0007c	85 ff		 test	 edi, edi
  0007e	74 1e		 je	 SHORT $LN6@vector
  00080	f6 c3 04	 test	 bl, 4
  00083	75 0b		 jne	 SHORT $LN5@vector
  00085	56		 push	 esi
  00086	e8 00 00 00 00	 call	 ??3i3ElementBase@@SAXPAX@Z ; i3ElementBase::operator delete
  0008b	83 c4 04	 add	 esp, 4
  0008e	eb 0e		 jmp	 SHORT $LN6@vector
$LN5@vector:

  00090	68 0c 04 00 00	 push	 1036			; 0000040cH
  00095	56		 push	 esi
  00096	e8 00 00 00 00	 call	 ??3@YAXPAXI@Z		; operator delete
  0009b	83 c4 08	 add	 esp, 8
$LN6@vector:
  0009e	8b c6		 mov	 eax, esi
  000a0	8b 4d f4	 mov	 ecx, DWORD PTR __$EHRec$[ebp]
  000a3	64 89 0d 00 00
	00 00		 mov	 DWORD PTR fs:0, ecx
  000aa	59		 pop	 ecx
  000ab	5f		 pop	 edi
  000ac	5e		 pop	 esi
  000ad	5b		 pop	 ebx
  000ae	8b e5		 mov	 esp, ebp
  000b0	5d		 pop	 ebp
  000b1	c2 04 00	 ret	 4
  000b4	cc		 int	 3
  000b5	cc		 int	 3
  000b6	cc		 int	 3
  000b7	cc		 int	 3
  000b8	cc		 int	 3
_TEXT	ENDS
;	COMDAT text$x
text$x	SEGMENT
__ehhandler$??_Ei3LogFileBase@@UAEPAXI@Z:
  00000	90		 npad	 1
  00001	90		 npad	 1
  00002	8b 54 24 08	 mov	 edx, DWORD PTR [esp+8]
  00006	8d 42 0c	 lea	 eax, DWORD PTR [edx+12]
  00009	8b 4a f0	 mov	 ecx, DWORD PTR [edx-16]
  0000c	33 c8		 xor	 ecx, eax
  0000e	e8 00 00 00 00	 call	 @__security_check_cookie@4
  00013	b8 00 00 00 00	 mov	 eax, OFFSET __ehfuncinfo$??_Ei3LogFileBase@@UAEPAXI@Z
  00018	e9 00 00 00 00	 jmp	 ___CxxFrameHandler3
text$x	ENDS
??_Ei3LogFileBase@@UAEPAXI@Z ENDP			; i3LogFileBase::`vector deleting destructor'
; Function compile flags: /Ogtp
; File E:\Proyectos\JuegosOnlineproyectos\PB\pbblow\Piercing Blow Remake\i3Server\src\i3Base\i3LogFileA.cpp
;	COMDAT ??_Gi3LogFileBase@@UAEPAXI@Z
_TEXT	SEGMENT
___flags$ = 8						; size = 4
??_Gi3LogFileBase@@UAEPAXI@Z PROC			; i3LogFileBase::`scalar deleting destructor', COMDAT
; _this$ = ecx
  00000	55		 push	 ebp
  00001	8b ec		 mov	 ebp, esp
  00003	56		 push	 esi
  00004	8b f1		 mov	 esi, ecx
  00006	e8 00 00 00 00	 call	 ??1i3LogFileBase@@UAE@XZ ; i3LogFileBase::~i3LogFileBase
  0000b	8b 45 08	 mov	 eax, DWORD PTR ___flags$[ebp]
  0000e	a8 01		 test	 al, 1
  00010	74 22		 je	 SHORT $LN10@scalar
  00012	a8 04		 test	 al, 4
  00014	75 10		 jne	 SHORT $LN3@scalar
  00016	56		 push	 esi
  00017	e8 00 00 00 00	 call	 ??3i3ElementBase@@SAXPAX@Z ; i3ElementBase::operator delete
  0001c	83 c4 04	 add	 esp, 4
  0001f	8b c6		 mov	 eax, esi
  00021	5e		 pop	 esi
  00022	5d		 pop	 ebp
  00023	c2 04 00	 ret	 4
$LN3@scalar:

  00026	68 0c 04 00 00	 push	 1036			; 0000040cH
  0002b	56		 push	 esi
  0002c	e8 00 00 00 00	 call	 ??3@YAXPAXI@Z		; operator delete
  00031	83 c4 08	 add	 esp, 8
$LN10@scalar:
  00034	8b c6		 mov	 eax, esi
  00036	5e		 pop	 esi
  00037	5d		 pop	 ebp
  00038	c2 04 00	 ret	 4
??_Gi3LogFileBase@@UAEPAXI@Z ENDP			; i3LogFileBase::`scalar deleting destructor'
_TEXT	ENDS
; Function compile flags: /Ogtp
;	COMDAT ??4i3LogFileBase@@QAEAAV0@ABV0@@Z
_TEXT	SEGMENT
___that$ = 8						; size = 4
??4i3LogFileBase@@QAEAAV0@ABV0@@Z PROC			; i3LogFileBase::operator=, COMDAT
; _this$ = ecx
  00000	55		 push	 ebp
  00001	8b ec		 mov	 ebp, esp
  00003	8b c1		 mov	 eax, ecx
  00005	ba 0a 00 00 00	 mov	 edx, 10			; 0000000aH
  0000a	56		 push	 esi
  0000b	8b 75 08	 mov	 esi, DWORD PTR ___that$[ebp]
  0000e	57		 push	 edi
  0000f	bf 64 00 00 00	 mov	 edi, 100		; 00000064H
  00014	8b 4e 04	 mov	 ecx, DWORD PTR [esi+4]
  00017	89 48 04	 mov	 DWORD PTR [eax+4], ecx
  0001a	8b 4e 08	 mov	 ecx, DWORD PTR [esi+8]
  0001d	89 48 08	 mov	 DWORD PTR [eax+8], ecx
  00020	8b 4e 0c	 mov	 ecx, DWORD PTR [esi+12]
  00023	89 48 0c	 mov	 DWORD PTR [eax+12], ecx
  00026	8b 4e 10	 mov	 ecx, DWORD PTR [esi+16]
  00029	89 48 10	 mov	 DWORD PTR [eax+16], ecx
  0002c	8b 4e 14	 mov	 ecx, DWORD PTR [esi+20]
  0002f	89 48 14	 mov	 DWORD PTR [eax+20], ecx
  00032	8b 4e 18	 mov	 ecx, DWORD PTR [esi+24]
  00035	89 48 18	 mov	 DWORD PTR [eax+24], ecx
  00038	8b 4e 1c	 mov	 ecx, DWORD PTR [esi+28]
  0003b	89 48 1c	 mov	 DWORD PTR [eax+28], ecx
  0003e	8b 4e 20	 mov	 ecx, DWORD PTR [esi+32]
  00041	89 48 20	 mov	 DWORD PTR [eax+32], ecx
  00044	8b 4e 24	 mov	 ecx, DWORD PTR [esi+36]
  00047	89 48 24	 mov	 DWORD PTR [eax+36], ecx
  0004a	8d 9b 00 00 00
	00		 npad	 6
$LL4@operator:
  00050	8b 0c 96	 mov	 ecx, DWORD PTR [esi+edx*4]
  00053	8d 52 01	 lea	 edx, DWORD PTR [edx+1]
  00056	89 4c 90 fc	 mov	 DWORD PTR [eax+edx*4-4], ecx
  0005a	83 ef 01	 sub	 edi, 1
  0005d	75 f1		 jne	 SHORT $LL4@operator
  0005f	8b 8e b8 01 00
	00		 mov	 ecx, DWORD PTR [esi+440]
  00065	ba 70 00 00 00	 mov	 edx, 112		; 00000070H
  0006a	89 88 b8 01 00
	00		 mov	 DWORD PTR [eax+440], ecx
  00070	bf 64 00 00 00	 mov	 edi, 100		; 00000064H
  00075	8b 8e bc 01 00
	00		 mov	 ecx, DWORD PTR [esi+444]
  0007b	89 88 bc 01 00
	00		 mov	 DWORD PTR [eax+444], ecx
$LL7@operator:
  00081	8b 0c 96	 mov	 ecx, DWORD PTR [esi+edx*4]
  00084	8d 52 01	 lea	 edx, DWORD PTR [edx+1]
  00087	89 4c 90 fc	 mov	 DWORD PTR [eax+edx*4-4], ecx
  0008b	83 ef 01	 sub	 edi, 1
  0008e	75 f1		 jne	 SHORT $LL7@operator
  00090	8b 8e 54 03 00
	00		 mov	 ecx, DWORD PTR [esi+852]
  00096	8d b8 ac 03 00
	00		 lea	 edi, DWORD PTR [eax+940]
  0009c	89 88 54 03 00
	00		 mov	 DWORD PTR [eax+852], ecx
  000a2	8b 8e 58 03 00
	00		 mov	 ecx, DWORD PTR [esi+856]
  000a8	89 88 58 03 00
	00		 mov	 DWORD PTR [eax+856], ecx
  000ae	8b 8e 5c 03 00
	00		 mov	 ecx, DWORD PTR [esi+860]
  000b4	89 88 5c 03 00
	00		 mov	 DWORD PTR [eax+860], ecx
  000ba	8b 8e 60 03 00
	00		 mov	 ecx, DWORD PTR [esi+864]
  000c0	89 88 60 03 00
	00		 mov	 DWORD PTR [eax+864], ecx
  000c6	8b 8e 64 03 00
	00		 mov	 ecx, DWORD PTR [esi+868]
  000cc	89 88 64 03 00
	00		 mov	 DWORD PTR [eax+868], ecx
  000d2	8b 8e 68 03 00
	00		 mov	 ecx, DWORD PTR [esi+872]
  000d8	89 88 68 03 00
	00		 mov	 DWORD PTR [eax+872], ecx
  000de	8b 8e 6c 03 00
	00		 mov	 ecx, DWORD PTR [esi+876]
  000e4	89 88 6c 03 00
	00		 mov	 DWORD PTR [eax+876], ecx
  000ea	8b 8e 70 03 00
	00		 mov	 ecx, DWORD PTR [esi+880]
  000f0	89 88 70 03 00
	00		 mov	 DWORD PTR [eax+880], ecx
  000f6	8b 8e 74 03 00
	00		 mov	 ecx, DWORD PTR [esi+884]
  000fc	89 88 74 03 00
	00		 mov	 DWORD PTR [eax+884], ecx
  00102	8b 8e 78 03 00
	00		 mov	 ecx, DWORD PTR [esi+888]
  00108	89 88 78 03 00
	00		 mov	 DWORD PTR [eax+888], ecx
  0010e	8b 8e 7c 03 00
	00		 mov	 ecx, DWORD PTR [esi+892]
  00114	89 88 7c 03 00
	00		 mov	 DWORD PTR [eax+892], ecx
  0011a	8b 8e 80 03 00
	00		 mov	 ecx, DWORD PTR [esi+896]
  00120	89 88 80 03 00
	00		 mov	 DWORD PTR [eax+896], ecx
  00126	8b 8e 84 03 00
	00		 mov	 ecx, DWORD PTR [esi+900]
  0012c	89 88 84 03 00
	00		 mov	 DWORD PTR [eax+900], ecx
  00132	8b 8e 88 03 00
	00		 mov	 ecx, DWORD PTR [esi+904]
  00138	89 88 88 03 00
	00		 mov	 DWORD PTR [eax+904], ecx
  0013e	8b 8e 8c 03 00
	00		 mov	 ecx, DWORD PTR [esi+908]
  00144	89 88 8c 03 00
	00		 mov	 DWORD PTR [eax+908], ecx
  0014a	8b 8e 90 03 00
	00		 mov	 ecx, DWORD PTR [esi+912]
  00150	89 88 90 03 00
	00		 mov	 DWORD PTR [eax+912], ecx
  00156	8b 8e 94 03 00
	00		 mov	 ecx, DWORD PTR [esi+916]
  0015c	89 88 94 03 00
	00		 mov	 DWORD PTR [eax+916], ecx
  00162	8b 8e 98 03 00
	00		 mov	 ecx, DWORD PTR [esi+920]
  00168	89 88 98 03 00
	00		 mov	 DWORD PTR [eax+920], ecx
  0016e	8b 8e 9c 03 00
	00		 mov	 ecx, DWORD PTR [esi+924]
  00174	89 88 9c 03 00
	00		 mov	 DWORD PTR [eax+924], ecx
  0017a	0f b7 8e a0 03
	00 00		 movzx	 ecx, WORD PTR [esi+928]
  00181	66 89 88 a0 03
	00 00		 mov	 WORD PTR [eax+928], cx
  00188	0f b7 8e a2 03
	00 00		 movzx	 ecx, WORD PTR [esi+930]
  0018f	66 89 88 a2 03
	00 00		 mov	 WORD PTR [eax+930], cx
  00196	8b 8e a4 03 00
	00		 mov	 ecx, DWORD PTR [esi+932]
  0019c	89 88 a4 03 00
	00		 mov	 DWORD PTR [eax+932], ecx
  001a2	8b 8e a8 03 00
	00		 mov	 ecx, DWORD PTR [esi+936]
  001a8	81 c6 ac 03 00
	00		 add	 esi, 940		; 000003acH
  001ae	89 88 a8 03 00
	00		 mov	 DWORD PTR [eax+936], ecx
  001b4	b9 18 00 00 00	 mov	 ecx, 24			; 00000018H
  001b9	f3 a5		 rep movsd
  001bb	5f		 pop	 edi
  001bc	5e		 pop	 esi
  001bd	5d		 pop	 ebp
  001be	c2 04 00	 ret	 4
??4i3LogFileBase@@QAEAAV0@ABV0@@Z ENDP			; i3LogFileBase::operator=
_TEXT	ENDS
; Function compile flags: /Ogtp
;	COMDAT ??0i3LogFileBase@@QAE@ABV0@@Z
_TEXT	SEGMENT
___that$ = 8						; size = 4
??0i3LogFileBase@@QAE@ABV0@@Z PROC			; i3LogFileBase::i3LogFileBase, COMDAT
; _this$ = ecx
  00000	55		 push	 ebp
  00001	8b ec		 mov	 ebp, esp
  00003	8b 55 08	 mov	 edx, DWORD PTR ___that$[ebp]
  00006	53		 push	 ebx
  00007	8b d9		 mov	 ebx, ecx
  00009	b9 64 00 00 00	 mov	 ecx, 100		; 00000064H
  0000e	56		 push	 esi
  0000f	57		 push	 edi
  00010	8d 72 28	 lea	 esi, DWORD PTR [edx+40]
  00013	c7 03 00 00 00
	00		 mov	 DWORD PTR [ebx], OFFSET ??_7i3ElementBase@@6B@
  00019	8d 7b 28	 lea	 edi, DWORD PTR [ebx+40]
  0001c	8b 42 04	 mov	 eax, DWORD PTR [edx+4]
  0001f	89 43 04	 mov	 DWORD PTR [ebx+4], eax
  00022	8b 42 08	 mov	 eax, DWORD PTR [edx+8]
  00025	89 43 08	 mov	 DWORD PTR [ebx+8], eax
  00028	8b 42 0c	 mov	 eax, DWORD PTR [edx+12]
  0002b	89 43 0c	 mov	 DWORD PTR [ebx+12], eax
  0002e	c7 03 00 00 00
	00		 mov	 DWORD PTR [ebx], OFFSET ??_7i3LogFileBase@@6B@
  00034	8b 42 10	 mov	 eax, DWORD PTR [edx+16]
  00037	89 43 10	 mov	 DWORD PTR [ebx+16], eax
  0003a	8b 42 14	 mov	 eax, DWORD PTR [edx+20]
  0003d	89 43 14	 mov	 DWORD PTR [ebx+20], eax
  00040	8b 42 18	 mov	 eax, DWORD PTR [edx+24]
  00043	89 43 18	 mov	 DWORD PTR [ebx+24], eax
  00046	8b 42 1c	 mov	 eax, DWORD PTR [edx+28]
  00049	89 43 1c	 mov	 DWORD PTR [ebx+28], eax
  0004c	8b 42 20	 mov	 eax, DWORD PTR [edx+32]
  0004f	89 43 20	 mov	 DWORD PTR [ebx+32], eax
  00052	8b 42 24	 mov	 eax, DWORD PTR [edx+36]
  00055	89 43 24	 mov	 DWORD PTR [ebx+36], eax
  00058	f3 a5		 rep movsd
  0005a	8b 82 b8 01 00
	00		 mov	 eax, DWORD PTR [edx+440]
  00060	8d b2 c0 01 00
	00		 lea	 esi, DWORD PTR [edx+448]
  00066	89 83 b8 01 00
	00		 mov	 DWORD PTR [ebx+440], eax
  0006c	8d bb c0 01 00
	00		 lea	 edi, DWORD PTR [ebx+448]
  00072	8b 82 bc 01 00
	00		 mov	 eax, DWORD PTR [edx+444]
  00078	b9 64 00 00 00	 mov	 ecx, 100		; 00000064H
  0007d	89 83 bc 01 00
	00		 mov	 DWORD PTR [ebx+444], eax
  00083	f3 a5		 rep movsd
  00085	c7 83 50 03 00
	00 00 00 00 00	 mov	 DWORD PTR [ebx+848], OFFSET ??_7i3ElementBase@@6B@
  0008f	8b 82 54 03 00
	00		 mov	 eax, DWORD PTR [edx+852]
  00095	89 83 54 03 00
	00		 mov	 DWORD PTR [ebx+852], eax
  0009b	8b 82 58 03 00
	00		 mov	 eax, DWORD PTR [edx+856]
  000a1	89 83 58 03 00
	00		 mov	 DWORD PTR [ebx+856], eax
  000a7	8b 82 5c 03 00
	00		 mov	 eax, DWORD PTR [edx+860]
  000ad	89 83 5c 03 00
	00		 mov	 DWORD PTR [ebx+860], eax
  000b3	c7 83 50 03 00
	00 00 00 00 00	 mov	 DWORD PTR [ebx+848], OFFSET ??_7i3Mutex@@6B@
  000bd	8b 82 60 03 00
	00		 mov	 eax, DWORD PTR [edx+864]
  000c3	89 83 60 03 00
	00		 mov	 DWORD PTR [ebx+864], eax
  000c9	8b 82 64 03 00
	00		 mov	 eax, DWORD PTR [edx+868]
  000cf	89 83 64 03 00
	00		 mov	 DWORD PTR [ebx+868], eax
  000d5	8b 82 68 03 00
	00		 mov	 eax, DWORD PTR [edx+872]
  000db	89 83 68 03 00
	00		 mov	 DWORD PTR [ebx+872], eax
  000e1	8b 82 6c 03 00
	00		 mov	 eax, DWORD PTR [edx+876]
  000e7	89 83 6c 03 00
	00		 mov	 DWORD PTR [ebx+876], eax
  000ed	8b 82 70 03 00
	00		 mov	 eax, DWORD PTR [edx+880]
  000f3	89 83 70 03 00
	00		 mov	 DWORD PTR [ebx+880], eax
  000f9	8b 82 74 03 00
	00		 mov	 eax, DWORD PTR [edx+884]
  000ff	89 83 74 03 00
	00		 mov	 DWORD PTR [ebx+884], eax
  00105	8b 82 78 03 00
	00		 mov	 eax, DWORD PTR [edx+888]
  0010b	89 83 78 03 00
	00		 mov	 DWORD PTR [ebx+888], eax
  00111	8b 82 7c 03 00
	00		 mov	 eax, DWORD PTR [edx+892]
  00117	89 83 7c 03 00
	00		 mov	 DWORD PTR [ebx+892], eax
  0011d	8b 82 80 03 00
	00		 mov	 eax, DWORD PTR [edx+896]
  00123	89 83 80 03 00
	00		 mov	 DWORD PTR [ebx+896], eax
  00129	8b 82 84 03 00
	00		 mov	 eax, DWORD PTR [edx+900]
  0012f	89 83 84 03 00
	00		 mov	 DWORD PTR [ebx+900], eax
  00135	8b 82 88 03 00
	00		 mov	 eax, DWORD PTR [edx+904]
  0013b	89 83 88 03 00
	00		 mov	 DWORD PTR [ebx+904], eax
  00141	8b 82 8c 03 00
	00		 mov	 eax, DWORD PTR [edx+908]
  00147	89 83 8c 03 00
	00		 mov	 DWORD PTR [ebx+908], eax
  0014d	8b 82 90 03 00
	00		 mov	 eax, DWORD PTR [edx+912]
  00153	89 83 90 03 00
	00		 mov	 DWORD PTR [ebx+912], eax
  00159	8b 82 94 03 00
	00		 mov	 eax, DWORD PTR [edx+916]
  0015f	89 83 94 03 00
	00		 mov	 DWORD PTR [ebx+916], eax
  00165	8b 82 98 03 00
	00		 mov	 eax, DWORD PTR [edx+920]
  0016b	89 83 98 03 00
	00		 mov	 DWORD PTR [ebx+920], eax
  00171	8b 82 9c 03 00
	00		 mov	 eax, DWORD PTR [edx+924]
  00177	89 83 9c 03 00
	00		 mov	 DWORD PTR [ebx+924], eax
  0017d	0f b7 82 a0 03
	00 00		 movzx	 eax, WORD PTR [edx+928]
  00184	66 89 83 a0 03
	00 00		 mov	 WORD PTR [ebx+928], ax
  0018b	0f b7 82 a2 03
	00 00		 movzx	 eax, WORD PTR [edx+930]
  00192	66 89 83 a2 03
	00 00		 mov	 WORD PTR [ebx+930], ax
  00199	8b 82 a4 03 00
	00		 mov	 eax, DWORD PTR [edx+932]
  0019f	8d bb ac 03 00
	00		 lea	 edi, DWORD PTR [ebx+940]
  001a5	89 83 a4 03 00
	00		 mov	 DWORD PTR [ebx+932], eax
  001ab	8d b2 ac 03 00
	00		 lea	 esi, DWORD PTR [edx+940]
  001b1	8b 82 a8 03 00
	00		 mov	 eax, DWORD PTR [edx+936]
  001b7	b9 18 00 00 00	 mov	 ecx, 24			; 00000018H
  001bc	89 83 a8 03 00
	00		 mov	 DWORD PTR [ebx+936], eax
  001c2	8b c3		 mov	 eax, ebx
  001c4	f3 a5		 rep movsd
  001c6	5f		 pop	 edi
  001c7	5e		 pop	 esi
  001c8	5b		 pop	 ebx
  001c9	5d		 pop	 ebp
  001ca	c2 04 00	 ret	 4
??0i3LogFileBase@@QAE@ABV0@@Z ENDP			; i3LogFileBase::i3LogFileBase
_TEXT	ENDS
; Function compile flags: /Ogtp
; File E:\Proyectos\JuegosOnlineproyectos\PB\pbblow\Piercing Blow Remake\i3Server\include\i3Base\i3LogFileBase.h
;	COMDAT ?GetWarning@i3LogFileBase@@QAE?AVi3Warning@@XZ
_TEXT	SEGMENT
___$ReturnUdt$ = 8					; size = 4
?GetWarning@i3LogFileBase@@QAE?AVi3Warning@@XZ PROC	; i3LogFileBase::GetWarning, COMDAT
; _this$ = ecx

; 94   : 	i3Warning				GetWarning() { return m_Warning; }

  00000	55		 push	 ebp
  00001	8b ec		 mov	 ebp, esp
  00003	51		 push	 ecx
  00004	8b 45 08	 mov	 eax, DWORD PTR ___$ReturnUdt$[ebp]
  00007	56		 push	 esi
  00008	57		 push	 edi
  00009	8d b1 ac 03 00
	00		 lea	 esi, DWORD PTR [ecx+940]
  0000f	8b f8		 mov	 edi, eax
  00011	b9 18 00 00 00	 mov	 ecx, 24			; 00000018H
  00016	f3 a5		 rep movsd
  00018	5f		 pop	 edi
  00019	5e		 pop	 esi
  0001a	8b e5		 mov	 esp, ebp
  0001c	5d		 pop	 ebp
  0001d	c2 04 00	 ret	 4
?GetWarning@i3LogFileBase@@QAE?AVi3Warning@@XZ ENDP	; i3LogFileBase::GetWarning
_TEXT	ENDS
; Function compile flags: /Ogtp
; File E:\Proyectos\JuegosOnlineproyectos\PB\pbblow\Piercing Blow Remake\i3Server\include\i3Base\i3LogFileBase.h
;	COMDAT ?_UpdateTime@i3LogFileBase@@IAEXXZ
_TEXT	SEGMENT
?_UpdateTime@i3LogFileBase@@IAEXXZ PROC			; i3LogFileBase::_UpdateTime, COMDAT
; _this$ = ecx

; 69   : 	{

  00000	56		 push	 esi
  00001	57		 push	 edi
  00002	8b f9		 mov	 edi, ecx

; 70   : 		::GetLocalTime( &m_SystemTime );

  00004	8d b7 78 03 00
	00		 lea	 esi, DWORD PTR [edi+888]
  0000a	56		 push	 esi
  0000b	ff 15 00 00 00
	00		 call	 DWORD PTR __imp__GetLocalTime@4

; 71   : 		m_iYear		= m_SystemTime.wYear; 

  00011	0f b7 06	 movzx	 eax, WORD PTR [esi]
  00014	89 87 88 03 00
	00		 mov	 DWORD PTR [edi+904], eax

; 72   : 		m_iMonth	= m_SystemTime.wMonth; 

  0001a	0f b7 87 7a 03
	00 00		 movzx	 eax, WORD PTR [edi+890]
  00021	89 87 8c 03 00
	00		 mov	 DWORD PTR [edi+908], eax

; 73   : 		m_iDay		= m_SystemTime.wDay; 	

  00027	0f b7 87 7e 03
	00 00		 movzx	 eax, WORD PTR [edi+894]
  0002e	89 87 90 03 00
	00		 mov	 DWORD PTR [edi+912], eax

; 74   : 		m_iHour		= m_SystemTime.wHour; 

  00034	0f b7 87 80 03
	00 00		 movzx	 eax, WORD PTR [edi+896]
  0003b	89 87 94 03 00
	00		 mov	 DWORD PTR [edi+916], eax

; 75   : 		m_iMinute	= m_SystemTime.wMinute; 

  00041	0f b7 87 82 03
	00 00		 movzx	 eax, WORD PTR [edi+898]
  00048	89 87 98 03 00
	00		 mov	 DWORD PTR [edi+920], eax

; 76   : 		m_iSecond	= m_SystemTime.wSecond;

  0004e	0f b7 87 84 03
	00 00		 movzx	 eax, WORD PTR [edi+900]
  00055	89 87 9c 03 00
	00		 mov	 DWORD PTR [edi+924], eax
  0005b	5f		 pop	 edi
  0005c	5e		 pop	 esi

; 77   : 		return; 
; 78   : 	}

  0005d	c3		 ret	 0
?_UpdateTime@i3LogFileBase@@IAEXXZ ENDP			; i3LogFileBase::_UpdateTime
_TEXT	ENDS
; Function compile flags: /Ogtp
; File E:\Proyectos\JuegosOnlineproyectos\PB\pbblow\Piercing Blow Remake\i3Server\include\i3Base\i3LogFileBase.h
;	COMDAT ?GetClassMeta@i3LogFileBase@@SAPAVi3ClassMeta@@XZ
_TEXT	SEGMENT
?GetClassMeta@i3LogFileBase@@SAPAVi3ClassMeta@@XZ PROC	; i3LogFileBase::GetClassMeta, COMDAT

; 23   : 	I3_CLASS_DEFINE( i3LogFileBase );

  00000	a1 00 00 00 00	 mov	 eax, DWORD PTR ?s_pClassMetai3LogFileBase@i3LogFileBase@@2PAVi3ClassMeta@@A ; i3LogFileBase::s_pClassMetai3LogFileBase
  00005	c3		 ret	 0
?GetClassMeta@i3LogFileBase@@SAPAVi3ClassMeta@@XZ ENDP	; i3LogFileBase::GetClassMeta
_TEXT	ENDS
; Function compile flags: /Ogtp
;	COMDAT ??4i3Warning@@QAEAAV0@ABV0@@Z
_TEXT	SEGMENT
___that$ = 8						; size = 4
??4i3Warning@@QAEAAV0@ABV0@@Z PROC			; i3Warning::operator=, COMDAT
; _this$ = ecx
  00000	55		 push	 ebp
  00001	8b ec		 mov	 ebp, esp
  00003	56		 push	 esi
  00004	8b 75 08	 mov	 esi, DWORD PTR ___that$[ebp]
  00007	8b c1		 mov	 eax, ecx
  00009	57		 push	 edi
  0000a	b9 18 00 00 00	 mov	 ecx, 24			; 00000018H
  0000f	8b f8		 mov	 edi, eax
  00011	f3 a5		 rep movsd
  00013	5f		 pop	 edi
  00014	5e		 pop	 esi
  00015	5d		 pop	 ebp
  00016	c2 04 00	 ret	 4
??4i3Warning@@QAEAAV0@ABV0@@Z ENDP			; i3Warning::operator=
_TEXT	ENDS
; Function compile flags: /Ogtp
; File E:\Proyectos\JuegosOnlineproyectos\PB\pbblow\Piercing Blow Remake\i3Server\src\i3Base\i3LogFileA.cpp
;	COMDAT ??_Ei3RingBuffer@@UAEPAXI@Z
_TEXT	SEGMENT
__$EHRec$ = -12						; size = 12
___flags$ = 8						; size = 4
??_Ei3RingBuffer@@UAEPAXI@Z PROC			; i3RingBuffer::`vector deleting destructor', COMDAT
; _this$ = ecx
  00000	55		 push	 ebp
  00001	8b ec		 mov	 ebp, esp
  00003	6a ff		 push	 -1
  00005	68 00 00 00 00	 push	 __ehhandler$??_Ei3RingBuffer@@UAEPAXI@Z
  0000a	64 a1 00 00 00
	00		 mov	 eax, DWORD PTR fs:0
  00010	50		 push	 eax
  00011	53		 push	 ebx
  00012	56		 push	 esi
  00013	57		 push	 edi
  00014	a1 00 00 00 00	 mov	 eax, DWORD PTR ___security_cookie
  00019	33 c5		 xor	 eax, ebp
  0001b	50		 push	 eax
  0001c	8d 45 f4	 lea	 eax, DWORD PTR __$EHRec$[ebp]
  0001f	64 a3 00 00 00
	00		 mov	 DWORD PTR fs:0, eax
  00025	8b f1		 mov	 esi, ecx
  00027	8b 5d 08	 mov	 ebx, DWORD PTR ___flags$[ebp]
  0002a	8b fb		 mov	 edi, ebx
  0002c	83 e7 01	 and	 edi, 1
  0002f	f6 c3 02	 test	 bl, 2
  00032	74 43		 je	 SHORT $LN2@vector
  00034	68 00 00 00 00	 push	 OFFSET ??1i3RingBuffer@@UAE@XZ ; i3RingBuffer::~i3RingBuffer
  00039	ff 76 fc	 push	 DWORD PTR [esi-4]
  0003c	8d 5e fc	 lea	 ebx, DWORD PTR [esi-4]
  0003f	6a 24		 push	 36			; 00000024H
  00041	56		 push	 esi
  00042	e8 00 00 00 00	 call	 ??_M@YGXPAXIIP6EX0@Z@Z
  00047	85 ff		 test	 edi, edi
  00049	74 16		 je	 SHORT $LN3@vector
  0004b	8b 0b		 mov	 ecx, DWORD PTR [ebx]
  0004d	8d 0c c9	 lea	 ecx, DWORD PTR [ecx+ecx*8]
  00050	8d 0c 8d 04 00
	00 00		 lea	 ecx, DWORD PTR [ecx*4+4]
  00057	51		 push	 ecx
  00058	53		 push	 ebx
  00059	e8 00 00 00 00	 call	 ??_V@YAXPAXI@Z		; operator delete[]
  0005e	83 c4 08	 add	 esp, 8
$LN3@vector:
  00061	8b c3		 mov	 eax, ebx
  00063	8b 4d f4	 mov	 ecx, DWORD PTR __$EHRec$[ebp]
  00066	64 89 0d 00 00
	00 00		 mov	 DWORD PTR fs:0, ecx
  0006d	59		 pop	 ecx
  0006e	5f		 pop	 edi
  0006f	5e		 pop	 esi
  00070	5b		 pop	 ebx
  00071	8b e5		 mov	 esp, ebp
  00073	5d		 pop	 ebp
  00074	c2 04 00	 ret	 4
$LN2@vector:
  00077	e8 00 00 00 00	 call	 ??1i3RingBuffer@@UAE@XZ	; i3RingBuffer::~i3RingBuffer
  0007c	85 ff		 test	 edi, edi
  0007e	74 1b		 je	 SHORT $LN6@vector
  00080	f6 c3 04	 test	 bl, 4
  00083	75 0b		 jne	 SHORT $LN5@vector
  00085	56		 push	 esi
  00086	e8 00 00 00 00	 call	 ??3i3ElementBase@@SAXPAX@Z ; i3ElementBase::operator delete
  0008b	83 c4 04	 add	 esp, 4
  0008e	eb 0b		 jmp	 SHORT $LN6@vector
$LN5@vector:

  00090	6a 24		 push	 36			; 00000024H
  00092	56		 push	 esi
  00093	e8 00 00 00 00	 call	 ??3@YAXPAXI@Z		; operator delete
  00098	83 c4 08	 add	 esp, 8
$LN6@vector:
  0009b	8b c6		 mov	 eax, esi
  0009d	8b 4d f4	 mov	 ecx, DWORD PTR __$EHRec$[ebp]
  000a0	64 89 0d 00 00
	00 00		 mov	 DWORD PTR fs:0, ecx
  000a7	59		 pop	 ecx
  000a8	5f		 pop	 edi
  000a9	5e		 pop	 esi
  000aa	5b		 pop	 ebx
  000ab	8b e5		 mov	 esp, ebp
  000ad	5d		 pop	 ebp
  000ae	c2 04 00	 ret	 4
  000b1	cc		 int	 3
  000b2	cc		 int	 3
  000b3	cc		 int	 3
  000b4	cc		 int	 3
  000b5	cc		 int	 3
_TEXT	ENDS
;	COMDAT text$x
text$x	SEGMENT
__ehhandler$??_Ei3RingBuffer@@UAEPAXI@Z:
  00000	90		 npad	 1
  00001	90		 npad	 1
  00002	8b 54 24 08	 mov	 edx, DWORD PTR [esp+8]
  00006	8d 42 0c	 lea	 eax, DWORD PTR [edx+12]
  00009	8b 4a f0	 mov	 ecx, DWORD PTR [edx-16]
  0000c	33 c8		 xor	 ecx, eax
  0000e	e8 00 00 00 00	 call	 @__security_check_cookie@4
  00013	b8 00 00 00 00	 mov	 eax, OFFSET __ehfuncinfo$??_Ei3RingBuffer@@UAEPAXI@Z
  00018	e9 00 00 00 00	 jmp	 ___CxxFrameHandler3
text$x	ENDS
??_Ei3RingBuffer@@UAEPAXI@Z ENDP			; i3RingBuffer::`vector deleting destructor'
; Function compile flags: /Ogtp
; File E:\Proyectos\JuegosOnlineproyectos\PB\pbblow\Piercing Blow Remake\i3Server\src\i3Base\i3LogFileA.cpp
;	COMDAT ??_Gi3RingBuffer@@UAEPAXI@Z
_TEXT	SEGMENT
___flags$ = 8						; size = 4
??_Gi3RingBuffer@@UAEPAXI@Z PROC			; i3RingBuffer::`scalar deleting destructor', COMDAT
; _this$ = ecx
  00000	55		 push	 ebp
  00001	8b ec		 mov	 ebp, esp
  00003	56		 push	 esi
  00004	8b f1		 mov	 esi, ecx
  00006	e8 00 00 00 00	 call	 ??1i3RingBuffer@@UAE@XZ	; i3RingBuffer::~i3RingBuffer
  0000b	8b 45 08	 mov	 eax, DWORD PTR ___flags$[ebp]
  0000e	a8 01		 test	 al, 1
  00010	74 1f		 je	 SHORT $LN10@scalar
  00012	a8 04		 test	 al, 4
  00014	75 10		 jne	 SHORT $LN3@scalar
  00016	56		 push	 esi
  00017	e8 00 00 00 00	 call	 ??3i3ElementBase@@SAXPAX@Z ; i3ElementBase::operator delete
  0001c	83 c4 04	 add	 esp, 4
  0001f	8b c6		 mov	 eax, esi
  00021	5e		 pop	 esi
  00022	5d		 pop	 ebp
  00023	c2 04 00	 ret	 4
$LN3@scalar:

  00026	6a 24		 push	 36			; 00000024H
  00028	56		 push	 esi
  00029	e8 00 00 00 00	 call	 ??3@YAXPAXI@Z		; operator delete
  0002e	83 c4 08	 add	 esp, 8
$LN10@scalar:
  00031	8b c6		 mov	 eax, esi
  00033	5e		 pop	 esi
  00034	5d		 pop	 ebp
  00035	c2 04 00	 ret	 4
??_Gi3RingBuffer@@UAEPAXI@Z ENDP			; i3RingBuffer::`scalar deleting destructor'
_TEXT	ENDS
; Function compile flags: /Ogtp
;	COMDAT ??4i3RingBuffer@@QAEAAV0@ABV0@@Z
_TEXT	SEGMENT
___that$ = 8						; size = 4
??4i3RingBuffer@@QAEAAV0@ABV0@@Z PROC			; i3RingBuffer::operator=, COMDAT
; _this$ = ecx
  00000	55		 push	 ebp
  00001	8b ec		 mov	 ebp, esp
  00003	8b 55 08	 mov	 edx, DWORD PTR ___that$[ebp]
  00006	8b 42 04	 mov	 eax, DWORD PTR [edx+4]
  00009	89 41 04	 mov	 DWORD PTR [ecx+4], eax
  0000c	8b 42 08	 mov	 eax, DWORD PTR [edx+8]
  0000f	89 41 08	 mov	 DWORD PTR [ecx+8], eax
  00012	8b 42 0c	 mov	 eax, DWORD PTR [edx+12]
  00015	89 41 0c	 mov	 DWORD PTR [ecx+12], eax
  00018	8b 42 10	 mov	 eax, DWORD PTR [edx+16]
  0001b	89 41 10	 mov	 DWORD PTR [ecx+16], eax
  0001e	8b 42 14	 mov	 eax, DWORD PTR [edx+20]
  00021	89 41 14	 mov	 DWORD PTR [ecx+20], eax
  00024	8b 42 18	 mov	 eax, DWORD PTR [edx+24]
  00027	89 41 18	 mov	 DWORD PTR [ecx+24], eax
  0002a	8b 42 1c	 mov	 eax, DWORD PTR [edx+28]
  0002d	89 41 1c	 mov	 DWORD PTR [ecx+28], eax
  00030	8b 42 20	 mov	 eax, DWORD PTR [edx+32]
  00033	89 41 20	 mov	 DWORD PTR [ecx+32], eax
  00036	8b c1		 mov	 eax, ecx
  00038	5d		 pop	 ebp
  00039	c2 04 00	 ret	 4
??4i3RingBuffer@@QAEAAV0@ABV0@@Z ENDP			; i3RingBuffer::operator=
_TEXT	ENDS
; Function compile flags: /Ogtp
;	COMDAT ??0i3RingBuffer@@QAE@ABV0@@Z
_TEXT	SEGMENT
___that$ = 8						; size = 4
??0i3RingBuffer@@QAE@ABV0@@Z PROC			; i3RingBuffer::i3RingBuffer, COMDAT
; _this$ = ecx
  00000	55		 push	 ebp
  00001	8b ec		 mov	 ebp, esp
  00003	8b 55 08	 mov	 edx, DWORD PTR ___that$[ebp]
  00006	c7 01 00 00 00
	00		 mov	 DWORD PTR [ecx], OFFSET ??_7i3ElementBase@@6B@
  0000c	8b 42 04	 mov	 eax, DWORD PTR [edx+4]
  0000f	89 41 04	 mov	 DWORD PTR [ecx+4], eax
  00012	8b 42 08	 mov	 eax, DWORD PTR [edx+8]
  00015	89 41 08	 mov	 DWORD PTR [ecx+8], eax
  00018	8b 42 0c	 mov	 eax, DWORD PTR [edx+12]
  0001b	89 41 0c	 mov	 DWORD PTR [ecx+12], eax
  0001e	c7 01 00 00 00
	00		 mov	 DWORD PTR [ecx], OFFSET ??_7i3RingBuffer@@6B@
  00024	8b 42 10	 mov	 eax, DWORD PTR [edx+16]
  00027	89 41 10	 mov	 DWORD PTR [ecx+16], eax
  0002a	8b 42 14	 mov	 eax, DWORD PTR [edx+20]
  0002d	89 41 14	 mov	 DWORD PTR [ecx+20], eax
  00030	8b 42 18	 mov	 eax, DWORD PTR [edx+24]
  00033	89 41 18	 mov	 DWORD PTR [ecx+24], eax
  00036	8b 42 1c	 mov	 eax, DWORD PTR [edx+28]
  00039	89 41 1c	 mov	 DWORD PTR [ecx+28], eax
  0003c	8b 42 20	 mov	 eax, DWORD PTR [edx+32]
  0003f	89 41 20	 mov	 DWORD PTR [ecx+32], eax
  00042	8b c1		 mov	 eax, ecx
  00044	5d		 pop	 ebp
  00045	c2 04 00	 ret	 4
??0i3RingBuffer@@QAE@ABV0@@Z ENDP			; i3RingBuffer::i3RingBuffer
_TEXT	ENDS
; Function compile flags: /Ogtp
; File E:\Proyectos\JuegosOnlineproyectos\PB\pbblow\Piercing Blow Remake\i3Server\include\i3Base\i3RingBuffer.h
;	COMDAT ?GetClassMeta@i3RingBuffer@@SAPAVi3ClassMeta@@XZ
_TEXT	SEGMENT
?GetClassMeta@i3RingBuffer@@SAPAVi3ClassMeta@@XZ PROC	; i3RingBuffer::GetClassMeta, COMDAT

; 16   : 	I3_CLASS_DEFINE( i3RingBuffer );

  00000	a1 00 00 00 00	 mov	 eax, DWORD PTR ?s_pClassMetai3RingBuffer@i3RingBuffer@@2PAVi3ClassMeta@@A ; i3RingBuffer::s_pClassMetai3RingBuffer
  00005	c3		 ret	 0
?GetClassMeta@i3RingBuffer@@SAPAVi3ClassMeta@@XZ ENDP	; i3RingBuffer::GetClassMeta
_TEXT	ENDS
; Function compile flags: /Ogtp
;	COMDAT ??4i3Monitor2@@QAEAAV0@ABV0@@Z
_TEXT	SEGMENT
___that$ = 8						; size = 4
??4i3Monitor2@@QAEAAV0@ABV0@@Z PROC			; i3Monitor2::operator=, COMDAT
; _this$ = ecx
  00000	55		 push	 ebp
  00001	8b ec		 mov	 ebp, esp
  00003	8b 45 08	 mov	 eax, DWORD PTR ___that$[ebp]
  00006	8b 00		 mov	 eax, DWORD PTR [eax]
  00008	89 01		 mov	 DWORD PTR [ecx], eax
  0000a	8b c1		 mov	 eax, ecx
  0000c	5d		 pop	 ebp
  0000d	c2 04 00	 ret	 4
??4i3Monitor2@@QAEAAV0@ABV0@@Z ENDP			; i3Monitor2::operator=
_TEXT	ENDS
; Function compile flags: /Ogtp
;	COMDAT ??4i3Mutex2@@QAEAAV0@ABV0@@Z
_TEXT	SEGMENT
___that$ = 8						; size = 4
??4i3Mutex2@@QAEAAV0@ABV0@@Z PROC			; i3Mutex2::operator=, COMDAT
; _this$ = ecx
  00000	55		 push	 ebp
  00001	8b ec		 mov	 ebp, esp
  00003	8b 55 08	 mov	 edx, DWORD PTR ___that$[ebp]
  00006	8b 02		 mov	 eax, DWORD PTR [edx]
  00008	89 01		 mov	 DWORD PTR [ecx], eax
  0000a	8b 42 04	 mov	 eax, DWORD PTR [edx+4]
  0000d	89 41 04	 mov	 DWORD PTR [ecx+4], eax
  00010	8b 42 08	 mov	 eax, DWORD PTR [edx+8]
  00013	89 41 08	 mov	 DWORD PTR [ecx+8], eax
  00016	8b 42 0c	 mov	 eax, DWORD PTR [edx+12]
  00019	89 41 0c	 mov	 DWORD PTR [ecx+12], eax
  0001c	8b 42 10	 mov	 eax, DWORD PTR [edx+16]
  0001f	89 41 10	 mov	 DWORD PTR [ecx+16], eax
  00022	8b 42 14	 mov	 eax, DWORD PTR [edx+20]
  00025	89 41 14	 mov	 DWORD PTR [ecx+20], eax
  00028	8b c1		 mov	 eax, ecx
  0002a	5d		 pop	 ebp
  0002b	c2 04 00	 ret	 4
??4i3Mutex2@@QAEAAV0@ABV0@@Z ENDP			; i3Mutex2::operator=
_TEXT	ENDS
; Function compile flags: /Ogtp
; File E:\Proyectos\JuegosOnlineproyectos\PB\pbblow\Piercing Blow Remake\i3Server\src\i3Base\i3LogFileA.cpp
;	COMDAT ??_Ei3Mutex@@UAEPAXI@Z
_TEXT	SEGMENT
__$EHRec$ = -12						; size = 12
___flags$ = 8						; size = 4
??_Ei3Mutex@@UAEPAXI@Z PROC				; i3Mutex::`vector deleting destructor', COMDAT
; _this$ = ecx
  00000	55		 push	 ebp
  00001	8b ec		 mov	 ebp, esp
  00003	6a ff		 push	 -1
  00005	68 00 00 00 00	 push	 __ehhandler$??_Ei3Mutex@@UAEPAXI@Z
  0000a	64 a1 00 00 00
	00		 mov	 eax, DWORD PTR fs:0
  00010	50		 push	 eax
  00011	53		 push	 ebx
  00012	56		 push	 esi
  00013	57		 push	 edi
  00014	a1 00 00 00 00	 mov	 eax, DWORD PTR ___security_cookie
  00019	33 c5		 xor	 eax, ebp
  0001b	50		 push	 eax
  0001c	8d 45 f4	 lea	 eax, DWORD PTR __$EHRec$[ebp]
  0001f	64 a3 00 00 00
	00		 mov	 DWORD PTR fs:0, eax
  00025	8b f1		 mov	 esi, ecx
  00027	8b 5d 08	 mov	 ebx, DWORD PTR ___flags$[ebp]
  0002a	8b fb		 mov	 edi, ebx
  0002c	83 e7 01	 and	 edi, 1
  0002f	f6 c3 02	 test	 bl, 2
  00032	74 43		 je	 SHORT $LN2@vector
  00034	68 00 00 00 00	 push	 OFFSET ??1i3Mutex@@UAE@XZ ; i3Mutex::~i3Mutex
  00039	ff 76 fc	 push	 DWORD PTR [esi-4]
  0003c	8d 5e fc	 lea	 ebx, DWORD PTR [esi-4]
  0003f	6a 28		 push	 40			; 00000028H
  00041	56		 push	 esi
  00042	e8 00 00 00 00	 call	 ??_M@YGXPAXIIP6EX0@Z@Z
  00047	85 ff		 test	 edi, edi
  00049	74 16		 je	 SHORT $LN3@vector
  0004b	8b 0b		 mov	 ecx, DWORD PTR [ebx]
  0004d	8d 0c 89	 lea	 ecx, DWORD PTR [ecx+ecx*4]
  00050	8d 0c cd 04 00
	00 00		 lea	 ecx, DWORD PTR [ecx*8+4]
  00057	51		 push	 ecx
  00058	53		 push	 ebx
  00059	e8 00 00 00 00	 call	 ??_V@YAXPAXI@Z		; operator delete[]
  0005e	83 c4 08	 add	 esp, 8
$LN3@vector:
  00061	8b c3		 mov	 eax, ebx
  00063	8b 4d f4	 mov	 ecx, DWORD PTR __$EHRec$[ebp]
  00066	64 89 0d 00 00
	00 00		 mov	 DWORD PTR fs:0, ecx
  0006d	59		 pop	 ecx
  0006e	5f		 pop	 edi
  0006f	5e		 pop	 esi
  00070	5b		 pop	 ebx
  00071	8b e5		 mov	 esp, ebp
  00073	5d		 pop	 ebp
  00074	c2 04 00	 ret	 4
$LN2@vector:
  00077	e8 00 00 00 00	 call	 ??1i3Mutex@@UAE@XZ	; i3Mutex::~i3Mutex
  0007c	85 ff		 test	 edi, edi
  0007e	74 1b		 je	 SHORT $LN6@vector
  00080	f6 c3 04	 test	 bl, 4
  00083	75 0b		 jne	 SHORT $LN5@vector
  00085	56		 push	 esi
  00086	e8 00 00 00 00	 call	 ??3i3ElementBase@@SAXPAX@Z ; i3ElementBase::operator delete
  0008b	83 c4 04	 add	 esp, 4
  0008e	eb 0b		 jmp	 SHORT $LN6@vector
$LN5@vector:

  00090	6a 28		 push	 40			; 00000028H
  00092	56		 push	 esi
  00093	e8 00 00 00 00	 call	 ??3@YAXPAXI@Z		; operator delete
  00098	83 c4 08	 add	 esp, 8
$LN6@vector:
  0009b	8b c6		 mov	 eax, esi
  0009d	8b 4d f4	 mov	 ecx, DWORD PTR __$EHRec$[ebp]
  000a0	64 89 0d 00 00
	00 00		 mov	 DWORD PTR fs:0, ecx
  000a7	59		 pop	 ecx
  000a8	5f		 pop	 edi
  000a9	5e		 pop	 esi
  000aa	5b		 pop	 ebx
  000ab	8b e5		 mov	 esp, ebp
  000ad	5d		 pop	 ebp
  000ae	c2 04 00	 ret	 4
  000b1	cc		 int	 3
  000b2	cc		 int	 3
  000b3	cc		 int	 3
  000b4	cc		 int	 3
  000b5	cc		 int	 3
_TEXT	ENDS
;	COMDAT text$x
text$x	SEGMENT
__ehhandler$??_Ei3Mutex@@UAEPAXI@Z:
  00000	90		 npad	 1
  00001	90		 npad	 1
  00002	8b 54 24 08	 mov	 edx, DWORD PTR [esp+8]
  00006	8d 42 0c	 lea	 eax, DWORD PTR [edx+12]
  00009	8b 4a f0	 mov	 ecx, DWORD PTR [edx-16]
  0000c	33 c8		 xor	 ecx, eax
  0000e	e8 00 00 00 00	 call	 @__security_check_cookie@4
  00013	b8 00 00 00 00	 mov	 eax, OFFSET __ehfuncinfo$??_Ei3Mutex@@UAEPAXI@Z
  00018	e9 00 00 00 00	 jmp	 ___CxxFrameHandler3
text$x	ENDS
??_Ei3Mutex@@UAEPAXI@Z ENDP				; i3Mutex::`vector deleting destructor'
; Function compile flags: /Ogtp
; File E:\Proyectos\JuegosOnlineproyectos\PB\pbblow\Piercing Blow Remake\i3Server\src\i3Base\i3LogFileA.cpp
;	COMDAT ??_Gi3Mutex@@UAEPAXI@Z
_TEXT	SEGMENT
___flags$ = 8						; size = 4
??_Gi3Mutex@@UAEPAXI@Z PROC				; i3Mutex::`scalar deleting destructor', COMDAT
; _this$ = ecx
  00000	55		 push	 ebp
  00001	8b ec		 mov	 ebp, esp
  00003	56		 push	 esi
  00004	8b f1		 mov	 esi, ecx
  00006	e8 00 00 00 00	 call	 ??1i3Mutex@@UAE@XZ	; i3Mutex::~i3Mutex
  0000b	8b 45 08	 mov	 eax, DWORD PTR ___flags$[ebp]
  0000e	a8 01		 test	 al, 1
  00010	74 1f		 je	 SHORT $LN10@scalar
  00012	a8 04		 test	 al, 4
  00014	75 10		 jne	 SHORT $LN3@scalar
  00016	56		 push	 esi
  00017	e8 00 00 00 00	 call	 ??3i3ElementBase@@SAXPAX@Z ; i3ElementBase::operator delete
  0001c	83 c4 04	 add	 esp, 4
  0001f	8b c6		 mov	 eax, esi
  00021	5e		 pop	 esi
  00022	5d		 pop	 ebp
  00023	c2 04 00	 ret	 4
$LN3@scalar:

  00026	6a 28		 push	 40			; 00000028H
  00028	56		 push	 esi
  00029	e8 00 00 00 00	 call	 ??3@YAXPAXI@Z		; operator delete
  0002e	83 c4 08	 add	 esp, 8
$LN10@scalar:
  00031	8b c6		 mov	 eax, esi
  00033	5e		 pop	 esi
  00034	5d		 pop	 ebp
  00035	c2 04 00	 ret	 4
??_Gi3Mutex@@UAEPAXI@Z ENDP				; i3Mutex::`scalar deleting destructor'
_TEXT	ENDS
; Function compile flags: /Ogtp
;	COMDAT ??4i3Mutex@@QAEAAV0@ABV0@@Z
_TEXT	SEGMENT
___that$ = 8						; size = 4
??4i3Mutex@@QAEAAV0@ABV0@@Z PROC			; i3Mutex::operator=, COMDAT
; _this$ = ecx
  00000	55		 push	 ebp
  00001	8b ec		 mov	 ebp, esp
  00003	8b 55 08	 mov	 edx, DWORD PTR ___that$[ebp]
  00006	8b 42 04	 mov	 eax, DWORD PTR [edx+4]
  00009	89 41 04	 mov	 DWORD PTR [ecx+4], eax
  0000c	8b 42 08	 mov	 eax, DWORD PTR [edx+8]
  0000f	89 41 08	 mov	 DWORD PTR [ecx+8], eax
  00012	8b 42 0c	 mov	 eax, DWORD PTR [edx+12]
  00015	89 41 0c	 mov	 DWORD PTR [ecx+12], eax
  00018	8b 42 10	 mov	 eax, DWORD PTR [edx+16]
  0001b	89 41 10	 mov	 DWORD PTR [ecx+16], eax
  0001e	8b 42 14	 mov	 eax, DWORD PTR [edx+20]
  00021	89 41 14	 mov	 DWORD PTR [ecx+20], eax
  00024	8b 42 18	 mov	 eax, DWORD PTR [edx+24]
  00027	89 41 18	 mov	 DWORD PTR [ecx+24], eax
  0002a	8b 42 1c	 mov	 eax, DWORD PTR [edx+28]
  0002d	89 41 1c	 mov	 DWORD PTR [ecx+28], eax
  00030	8b 42 20	 mov	 eax, DWORD PTR [edx+32]
  00033	89 41 20	 mov	 DWORD PTR [ecx+32], eax
  00036	8b 42 24	 mov	 eax, DWORD PTR [edx+36]
  00039	89 41 24	 mov	 DWORD PTR [ecx+36], eax
  0003c	8b c1		 mov	 eax, ecx
  0003e	5d		 pop	 ebp
  0003f	c2 04 00	 ret	 4
??4i3Mutex@@QAEAAV0@ABV0@@Z ENDP			; i3Mutex::operator=
_TEXT	ENDS
; Function compile flags: /Ogtp
;	COMDAT ??0i3Mutex@@QAE@ABV0@@Z
_TEXT	SEGMENT
___that$ = 8						; size = 4
??0i3Mutex@@QAE@ABV0@@Z PROC				; i3Mutex::i3Mutex, COMDAT
; _this$ = ecx
  00000	55		 push	 ebp
  00001	8b ec		 mov	 ebp, esp
  00003	8b 55 08	 mov	 edx, DWORD PTR ___that$[ebp]
  00006	c7 01 00 00 00
	00		 mov	 DWORD PTR [ecx], OFFSET ??_7i3ElementBase@@6B@
  0000c	8b 42 04	 mov	 eax, DWORD PTR [edx+4]
  0000f	89 41 04	 mov	 DWORD PTR [ecx+4], eax
  00012	8b 42 08	 mov	 eax, DWORD PTR [edx+8]
  00015	89 41 08	 mov	 DWORD PTR [ecx+8], eax
  00018	8b 42 0c	 mov	 eax, DWORD PTR [edx+12]
  0001b	89 41 0c	 mov	 DWORD PTR [ecx+12], eax
  0001e	c7 01 00 00 00
	00		 mov	 DWORD PTR [ecx], OFFSET ??_7i3Mutex@@6B@
  00024	8b 42 10	 mov	 eax, DWORD PTR [edx+16]
  00027	89 41 10	 mov	 DWORD PTR [ecx+16], eax
  0002a	8b 42 14	 mov	 eax, DWORD PTR [edx+20]
  0002d	89 41 14	 mov	 DWORD PTR [ecx+20], eax
  00030	8b 42 18	 mov	 eax, DWORD PTR [edx+24]
  00033	89 41 18	 mov	 DWORD PTR [ecx+24], eax
  00036	8b 42 1c	 mov	 eax, DWORD PTR [edx+28]
  00039	89 41 1c	 mov	 DWORD PTR [ecx+28], eax
  0003c	8b 42 20	 mov	 eax, DWORD PTR [edx+32]
  0003f	89 41 20	 mov	 DWORD PTR [ecx+32], eax
  00042	8b 42 24	 mov	 eax, DWORD PTR [edx+36]
  00045	89 41 24	 mov	 DWORD PTR [ecx+36], eax
  00048	8b c1		 mov	 eax, ecx
  0004a	5d		 pop	 ebp
  0004b	c2 04 00	 ret	 4
??0i3Mutex@@QAE@ABV0@@Z ENDP				; i3Mutex::i3Mutex
_TEXT	ENDS
; Function compile flags: /Ogtp
; File E:\Proyectos\JuegosOnlineproyectos\PB\pbblow\Piercing Blow Remake\i3Server\include\i3Base\i3Mutex.h
;	COMDAT ?GetClassMeta@i3Mutex@@SAPAVi3ClassMeta@@XZ
_TEXT	SEGMENT
?GetClassMeta@i3Mutex@@SAPAVi3ClassMeta@@XZ PROC	; i3Mutex::GetClassMeta, COMDAT

; 23   :     I3_CLASS_DEFINE(i3Mutex);

  00000	a1 00 00 00 00	 mov	 eax, DWORD PTR ?s_pClassMetai3Mutex@i3Mutex@@2PAVi3ClassMeta@@A ; i3Mutex::s_pClassMetai3Mutex
  00005	c3		 ret	 0
?GetClassMeta@i3Mutex@@SAPAVi3ClassMeta@@XZ ENDP	; i3Mutex::GetClassMeta
_TEXT	ENDS
; Function compile flags: /Ogtp
;	COMDAT ??_Ei3MemoryPool@@UAEPAXI@Z
_TEXT	SEGMENT
__$EHRec$ = -12						; size = 12
___flags$ = 8						; size = 4
??_Ei3MemoryPool@@UAEPAXI@Z PROC			; i3MemoryPool::`vector deleting destructor', COMDAT
; _this$ = ecx
  00000	55		 push	 ebp
  00001	8b ec		 mov	 ebp, esp
  00003	6a ff		 push	 -1
  00005	68 00 00 00 00	 push	 __ehhandler$??_Ei3MemoryPool@@UAEPAXI@Z
  0000a	64 a1 00 00 00
	00		 mov	 eax, DWORD PTR fs:0
  00010	50		 push	 eax
  00011	53		 push	 ebx
  00012	56		 push	 esi
  00013	57		 push	 edi
  00014	a1 00 00 00 00	 mov	 eax, DWORD PTR ___security_cookie
  00019	33 c5		 xor	 eax, ebp
  0001b	50		 push	 eax
  0001c	8d 45 f4	 lea	 eax, DWORD PTR __$EHRec$[ebp]
  0001f	64 a3 00 00 00
	00		 mov	 DWORD PTR fs:0, eax
  00025	8b f1		 mov	 esi, ecx
  00027	8b 45 08	 mov	 eax, DWORD PTR ___flags$[ebp]
  0002a	8b f8		 mov	 edi, eax
  0002c	83 e7 01	 and	 edi, 1
  0002f	a8 02		 test	 al, 2
  00031	74 40		 je	 SHORT $LN2@vector
  00033	68 00 00 00 00	 push	 OFFSET ??1i3MemoryPool@@UAE@XZ ; i3MemoryPool::~i3MemoryPool
  00038	ff 76 fc	 push	 DWORD PTR [esi-4]
  0003b	8d 5e fc	 lea	 ebx, DWORD PTR [esi-4]
  0003e	6a 04		 push	 4
  00040	56		 push	 esi
  00041	e8 00 00 00 00	 call	 ??_M@YGXPAXIIP6EX0@Z@Z
  00046	85 ff		 test	 edi, edi
  00048	74 13		 je	 SHORT $LN3@vector
  0004a	8b 0b		 mov	 ecx, DWORD PTR [ebx]
  0004c	8d 0c 8d 04 00
	00 00		 lea	 ecx, DWORD PTR [ecx*4+4]
  00053	51		 push	 ecx
  00054	53		 push	 ebx
  00055	e8 00 00 00 00	 call	 ??_V@YAXPAXI@Z		; operator delete[]
  0005a	83 c4 08	 add	 esp, 8
$LN3@vector:
  0005d	8b c3		 mov	 eax, ebx
  0005f	8b 4d f4	 mov	 ecx, DWORD PTR __$EHRec$[ebp]
  00062	64 89 0d 00 00
	00 00		 mov	 DWORD PTR fs:0, ecx
  00069	59		 pop	 ecx
  0006a	5f		 pop	 edi
  0006b	5e		 pop	 esi
  0006c	5b		 pop	 ebx
  0006d	8b e5		 mov	 esp, ebp
  0006f	5d		 pop	 ebp
  00070	c2 04 00	 ret	 4
$LN2@vector:
  00073	e8 00 00 00 00	 call	 ??1i3MemoryPool@@UAE@XZ	; i3MemoryPool::~i3MemoryPool
  00078	85 ff		 test	 edi, edi
  0007a	74 0b		 je	 SHORT $LN4@vector
  0007c	6a 04		 push	 4
  0007e	56		 push	 esi
  0007f	e8 00 00 00 00	 call	 ??3@YAXPAXI@Z		; operator delete
  00084	83 c4 08	 add	 esp, 8
$LN4@vector:
  00087	8b c6		 mov	 eax, esi
  00089	8b 4d f4	 mov	 ecx, DWORD PTR __$EHRec$[ebp]
  0008c	64 89 0d 00 00
	00 00		 mov	 DWORD PTR fs:0, ecx
  00093	59		 pop	 ecx
  00094	5f		 pop	 edi
  00095	5e		 pop	 esi
  00096	5b		 pop	 ebx
  00097	8b e5		 mov	 esp, ebp
  00099	5d		 pop	 ebp
  0009a	c2 04 00	 ret	 4
  0009d	cc		 int	 3
  0009e	cc		 int	 3
  0009f	cc		 int	 3
  000a0	cc		 int	 3
  000a1	cc		 int	 3
_TEXT	ENDS
;	COMDAT text$x
text$x	SEGMENT
__ehhandler$??_Ei3MemoryPool@@UAEPAXI@Z:
  00000	90		 npad	 1
  00001	90		 npad	 1
  00002	8b 54 24 08	 mov	 edx, DWORD PTR [esp+8]
  00006	8d 42 0c	 lea	 eax, DWORD PTR [edx+12]
  00009	8b 4a f0	 mov	 ecx, DWORD PTR [edx-16]
  0000c	33 c8		 xor	 ecx, eax
  0000e	e8 00 00 00 00	 call	 @__security_check_cookie@4
  00013	b8 00 00 00 00	 mov	 eax, OFFSET __ehfuncinfo$??_Ei3MemoryPool@@UAEPAXI@Z
  00018	e9 00 00 00 00	 jmp	 ___CxxFrameHandler3
text$x	ENDS
??_Ei3MemoryPool@@UAEPAXI@Z ENDP			; i3MemoryPool::`vector deleting destructor'
; Function compile flags: /Ogtp
;	COMDAT ??_Gi3MemoryPool@@UAEPAXI@Z
_TEXT	SEGMENT
___flags$ = 8						; size = 4
??_Gi3MemoryPool@@UAEPAXI@Z PROC			; i3MemoryPool::`scalar deleting destructor', COMDAT
; _this$ = ecx
  00000	55		 push	 ebp
  00001	8b ec		 mov	 ebp, esp
  00003	56		 push	 esi
  00004	8b f1		 mov	 esi, ecx
  00006	e8 00 00 00 00	 call	 ??1i3MemoryPool@@UAE@XZ	; i3MemoryPool::~i3MemoryPool
  0000b	f6 45 08 01	 test	 BYTE PTR ___flags$[ebp], 1
  0000f	74 0b		 je	 SHORT $LN5@scalar
  00011	6a 04		 push	 4
  00013	56		 push	 esi
  00014	e8 00 00 00 00	 call	 ??3@YAXPAXI@Z		; operator delete
  00019	83 c4 08	 add	 esp, 8
$LN5@scalar:
  0001c	8b c6		 mov	 eax, esi
  0001e	5e		 pop	 esi
  0001f	5d		 pop	 ebp
  00020	c2 04 00	 ret	 4
??_Gi3MemoryPool@@UAEPAXI@Z ENDP			; i3MemoryPool::`scalar deleting destructor'
_TEXT	ENDS
; Function compile flags: /Ogtp
;	COMDAT ??4i3MemoryPool@@QAEAAV0@ABV0@@Z
_TEXT	SEGMENT
___that$ = 8						; size = 4
??4i3MemoryPool@@QAEAAV0@ABV0@@Z PROC			; i3MemoryPool::operator=, COMDAT
; _this$ = ecx
  00000	8b c1		 mov	 eax, ecx
  00002	c2 04 00	 ret	 4
??4i3MemoryPool@@QAEAAV0@ABV0@@Z ENDP			; i3MemoryPool::operator=
_TEXT	ENDS
; Function compile flags: /Ogtp
;	COMDAT ??0i3MemoryPool@@QAE@ABV0@@Z
_TEXT	SEGMENT
___that$ = 8						; size = 4
??0i3MemoryPool@@QAE@ABV0@@Z PROC			; i3MemoryPool::i3MemoryPool, COMDAT
; _this$ = ecx
  00000	c7 01 00 00 00
	00		 mov	 DWORD PTR [ecx], OFFSET ??_7i3MemoryPool@@6B@
  00006	8b c1		 mov	 eax, ecx
  00008	c2 04 00	 ret	 4
??0i3MemoryPool@@QAE@ABV0@@Z ENDP			; i3MemoryPool::i3MemoryPool
_TEXT	ENDS
; Function compile flags: /Ogtp
; File E:\Proyectos\JuegosOnlineproyectos\PB\pbblow\Piercing Blow Remake\i3Server\src\i3Base\i3LogFileA.cpp
;	COMDAT ??_Ei3ElementBase@@UAEPAXI@Z
_TEXT	SEGMENT
__$EHRec$ = -12						; size = 12
___flags$ = 8						; size = 4
??_Ei3ElementBase@@UAEPAXI@Z PROC			; i3ElementBase::`vector deleting destructor', COMDAT
; _this$ = ecx
  00000	55		 push	 ebp
  00001	8b ec		 mov	 ebp, esp
  00003	6a ff		 push	 -1
  00005	68 00 00 00 00	 push	 __ehhandler$??_Ei3ElementBase@@UAEPAXI@Z
  0000a	64 a1 00 00 00
	00		 mov	 eax, DWORD PTR fs:0
  00010	50		 push	 eax
  00011	53		 push	 ebx
  00012	56		 push	 esi
  00013	57		 push	 edi
  00014	a1 00 00 00 00	 mov	 eax, DWORD PTR ___security_cookie
  00019	33 c5		 xor	 eax, ebp
  0001b	50		 push	 eax
  0001c	8d 45 f4	 lea	 eax, DWORD PTR __$EHRec$[ebp]
  0001f	64 a3 00 00 00
	00		 mov	 DWORD PTR fs:0, eax
  00025	8b f1		 mov	 esi, ecx
  00027	8b 5d 08	 mov	 ebx, DWORD PTR ___flags$[ebp]
  0002a	8b fb		 mov	 edi, ebx
  0002c	83 e7 01	 and	 edi, 1
  0002f	f6 c3 02	 test	 bl, 2
  00032	74 3f		 je	 SHORT $LN2@vector
  00034	68 00 00 00 00	 push	 OFFSET ??1i3ElementBase@@UAE@XZ ; i3ElementBase::~i3ElementBase
  00039	ff 76 fc	 push	 DWORD PTR [esi-4]
  0003c	8d 5e fc	 lea	 ebx, DWORD PTR [esi-4]
  0003f	6a 10		 push	 16			; 00000010H
  00041	56		 push	 esi
  00042	e8 00 00 00 00	 call	 ??_M@YGXPAXIIP6EX0@Z@Z
  00047	85 ff		 test	 edi, edi
  00049	74 12		 je	 SHORT $LN3@vector
  0004b	8b 0b		 mov	 ecx, DWORD PTR [ebx]
  0004d	c1 e1 04	 shl	 ecx, 4
  00050	83 c1 04	 add	 ecx, 4
  00053	51		 push	 ecx
  00054	53		 push	 ebx
  00055	e8 00 00 00 00	 call	 ??_V@YAXPAXI@Z		; operator delete[]
  0005a	83 c4 08	 add	 esp, 8
$LN3@vector:
  0005d	8b c3		 mov	 eax, ebx
  0005f	8b 4d f4	 mov	 ecx, DWORD PTR __$EHRec$[ebp]
  00062	64 89 0d 00 00
	00 00		 mov	 DWORD PTR fs:0, ecx
  00069	59		 pop	 ecx
  0006a	5f		 pop	 edi
  0006b	5e		 pop	 esi
  0006c	5b		 pop	 ebx
  0006d	8b e5		 mov	 esp, ebp
  0006f	5d		 pop	 ebp
  00070	c2 04 00	 ret	 4
$LN2@vector:
  00073	e8 00 00 00 00	 call	 ??1i3ElementBase@@UAE@XZ ; i3ElementBase::~i3ElementBase
  00078	85 ff		 test	 edi, edi
  0007a	74 1b		 je	 SHORT $LN6@vector
  0007c	f6 c3 04	 test	 bl, 4
  0007f	75 0b		 jne	 SHORT $LN5@vector
  00081	56		 push	 esi
  00082	e8 00 00 00 00	 call	 ??3i3ElementBase@@SAXPAX@Z ; i3ElementBase::operator delete
  00087	83 c4 04	 add	 esp, 4
  0008a	eb 0b		 jmp	 SHORT $LN6@vector
$LN5@vector:

  0008c	6a 10		 push	 16			; 00000010H
  0008e	56		 push	 esi
  0008f	e8 00 00 00 00	 call	 ??3@YAXPAXI@Z		; operator delete
  00094	83 c4 08	 add	 esp, 8
$LN6@vector:
  00097	8b c6		 mov	 eax, esi
  00099	8b 4d f4	 mov	 ecx, DWORD PTR __$EHRec$[ebp]
  0009c	64 89 0d 00 00
	00 00		 mov	 DWORD PTR fs:0, ecx
  000a3	59		 pop	 ecx
  000a4	5f		 pop	 edi
  000a5	5e		 pop	 esi
  000a6	5b		 pop	 ebx
  000a7	8b e5		 mov	 esp, ebp
  000a9	5d		 pop	 ebp
  000aa	c2 04 00	 ret	 4
  000ad	cc		 int	 3
  000ae	cc		 int	 3
  000af	cc		 int	 3
  000b0	cc		 int	 3
  000b1	cc		 int	 3
_TEXT	ENDS
;	COMDAT text$x
text$x	SEGMENT
__ehhandler$??_Ei3ElementBase@@UAEPAXI@Z:
  00000	90		 npad	 1
  00001	90		 npad	 1
  00002	8b 54 24 08	 mov	 edx, DWORD PTR [esp+8]
  00006	8d 42 0c	 lea	 eax, DWORD PTR [edx+12]
  00009	8b 4a f0	 mov	 ecx, DWORD PTR [edx-16]
  0000c	33 c8		 xor	 ecx, eax
  0000e	e8 00 00 00 00	 call	 @__security_check_cookie@4
  00013	b8 00 00 00 00	 mov	 eax, OFFSET __ehfuncinfo$??_Ei3ElementBase@@UAEPAXI@Z
  00018	e9 00 00 00 00	 jmp	 ___CxxFrameHandler3
text$x	ENDS
??_Ei3ElementBase@@UAEPAXI@Z ENDP			; i3ElementBase::`vector deleting destructor'
; Function compile flags: /Ogtp
; File E:\Proyectos\JuegosOnlineproyectos\PB\pbblow\Piercing Blow Remake\i3Server\src\i3Base\i3LogFileA.cpp
;	COMDAT ??_Gi3ElementBase@@UAEPAXI@Z
_TEXT	SEGMENT
___flags$ = 8						; size = 4
??_Gi3ElementBase@@UAEPAXI@Z PROC			; i3ElementBase::`scalar deleting destructor', COMDAT
; _this$ = ecx
  00000	55		 push	 ebp
  00001	8b ec		 mov	 ebp, esp
  00003	56		 push	 esi
  00004	8b f1		 mov	 esi, ecx
  00006	e8 00 00 00 00	 call	 ??1i3ElementBase@@UAE@XZ ; i3ElementBase::~i3ElementBase
  0000b	8b 45 08	 mov	 eax, DWORD PTR ___flags$[ebp]
  0000e	a8 01		 test	 al, 1
  00010	74 1f		 je	 SHORT $LN10@scalar
  00012	a8 04		 test	 al, 4
  00014	75 10		 jne	 SHORT $LN3@scalar
  00016	56		 push	 esi
  00017	e8 00 00 00 00	 call	 ??3i3ElementBase@@SAXPAX@Z ; i3ElementBase::operator delete
  0001c	83 c4 04	 add	 esp, 4
  0001f	8b c6		 mov	 eax, esi
  00021	5e		 pop	 esi
  00022	5d		 pop	 ebp
  00023	c2 04 00	 ret	 4
$LN3@scalar:

  00026	6a 10		 push	 16			; 00000010H
  00028	56		 push	 esi
  00029	e8 00 00 00 00	 call	 ??3@YAXPAXI@Z		; operator delete
  0002e	83 c4 08	 add	 esp, 8
$LN10@scalar:
  00031	8b c6		 mov	 eax, esi
  00033	5e		 pop	 esi
  00034	5d		 pop	 ebp
  00035	c2 04 00	 ret	 4
??_Gi3ElementBase@@UAEPAXI@Z ENDP			; i3ElementBase::`scalar deleting destructor'
_TEXT	ENDS
; Function compile flags: /Ogtp
;	COMDAT ??4i3ElementBase@@QAEAAV0@ABV0@@Z
_TEXT	SEGMENT
___that$ = 8						; size = 4
??4i3ElementBase@@QAEAAV0@ABV0@@Z PROC			; i3ElementBase::operator=, COMDAT
; _this$ = ecx
  00000	55		 push	 ebp
  00001	8b ec		 mov	 ebp, esp
  00003	8b 55 08	 mov	 edx, DWORD PTR ___that$[ebp]
  00006	8b 42 04	 mov	 eax, DWORD PTR [edx+4]
  00009	89 41 04	 mov	 DWORD PTR [ecx+4], eax
  0000c	8b 42 08	 mov	 eax, DWORD PTR [edx+8]
  0000f	89 41 08	 mov	 DWORD PTR [ecx+8], eax
  00012	8b 42 0c	 mov	 eax, DWORD PTR [edx+12]
  00015	89 41 0c	 mov	 DWORD PTR [ecx+12], eax
  00018	8b c1		 mov	 eax, ecx
  0001a	5d		 pop	 ebp
  0001b	c2 04 00	 ret	 4
??4i3ElementBase@@QAEAAV0@ABV0@@Z ENDP			; i3ElementBase::operator=
_TEXT	ENDS
; Function compile flags: /Ogtp
;	COMDAT ??0i3ElementBase@@QAE@ABV0@@Z
_TEXT	SEGMENT
___that$ = 8						; size = 4
??0i3ElementBase@@QAE@ABV0@@Z PROC			; i3ElementBase::i3ElementBase, COMDAT
; _this$ = ecx
  00000	55		 push	 ebp
  00001	8b ec		 mov	 ebp, esp
  00003	8b 55 08	 mov	 edx, DWORD PTR ___that$[ebp]
  00006	c7 01 00 00 00
	00		 mov	 DWORD PTR [ecx], OFFSET ??_7i3ElementBase@@6B@
  0000c	8b 42 04	 mov	 eax, DWORD PTR [edx+4]
  0000f	89 41 04	 mov	 DWORD PTR [ecx+4], eax
  00012	8b 42 08	 mov	 eax, DWORD PTR [edx+8]
  00015	89 41 08	 mov	 DWORD PTR [ecx+8], eax
  00018	8b 42 0c	 mov	 eax, DWORD PTR [edx+12]
  0001b	89 41 0c	 mov	 DWORD PTR [ecx+12], eax
  0001e	8b c1		 mov	 eax, ecx
  00020	5d		 pop	 ebp
  00021	c2 04 00	 ret	 4
??0i3ElementBase@@QAE@ABV0@@Z ENDP			; i3ElementBase::i3ElementBase
_TEXT	ENDS
; Function compile flags: /Ogtp
; File E:\Proyectos\JuegosOnlineproyectos\PB\pbblow\Piercing Blow Remake\i3Server\include\i3Base\i3ElementBase.h
;	COMDAT ?_internal_SetRefCount@i3ElementBase@@QAEXH@Z
_TEXT	SEGMENT
_cnt$ = 8						; size = 4
?_internal_SetRefCount@i3ElementBase@@QAEXH@Z PROC	; i3ElementBase::_internal_SetRefCount, COMDAT
; _this$ = ecx

; 401  : 	{

  00000	55		 push	 ebp
  00001	8b ec		 mov	 ebp, esp

; 402  : 		m_RefCount = cnt;

  00003	8b 45 08	 mov	 eax, DWORD PTR _cnt$[ebp]
  00006	89 41 04	 mov	 DWORD PTR [ecx+4], eax

; 403  : 	}

  00009	5d		 pop	 ebp
  0000a	c2 04 00	 ret	 4
?_internal_SetRefCount@i3ElementBase@@QAEXH@Z ENDP	; i3ElementBase::_internal_SetRefCount
_TEXT	ENDS
; Function compile flags: /Ogtp
; File E:\Proyectos\JuegosOnlineproyectos\PB\pbblow\Piercing Blow Remake\i3Server\include\i3Base\i3ElementBase.h
;	COMDAT ?AddRef@i3ElementBase@@QAEHXZ
_TEXT	SEGMENT
?AddRef@i3ElementBase@@QAEHXZ PROC			; i3ElementBase::AddRef, COMDAT
; _this$ = ecx

; 392  : 		m_RefCount++;

  00000	ff 41 04	 inc	 DWORD PTR [ecx+4]

; 393  : 
; 394  : 		return m_RefCount;

  00003	8b 41 04	 mov	 eax, DWORD PTR [ecx+4]

; 395  : 	}

  00006	c3		 ret	 0
?AddRef@i3ElementBase@@QAEHXZ ENDP			; i3ElementBase::AddRef
_TEXT	ENDS
; Function compile flags: /Ogtp
; File E:\Proyectos\JuegosOnlineproyectos\PB\pbblow\Piercing Blow Remake\i3Server\include\i3Base\i3ElementBase.h
;	COMDAT ?IsTypeOf@i3ElementBase@@QAE_NPAVi3ClassMeta@@@Z
_TEXT	SEGMENT
_pMeta$ = 8						; size = 4
?IsTypeOf@i3ElementBase@@QAE_NPAVi3ClassMeta@@@Z PROC	; i3ElementBase::IsTypeOf, COMDAT
; _this$ = ecx

; 356  : 	{

  00000	55		 push	 ebp
  00001	8b ec		 mov	 ebp, esp

; 357  : 		return GetMeta()->IsTypeOf( pMeta);

  00003	8b 01		 mov	 eax, DWORD PTR [ecx]
  00005	ff 75 08	 push	 DWORD PTR _pMeta$[ebp]
  00008	ff 10		 call	 DWORD PTR [eax]
  0000a	8b c8		 mov	 ecx, eax
  0000c	e8 00 00 00 00	 call	 ?IsTypeOf@i3ClassMeta@@QAE_NPAV1@@Z ; i3ClassMeta::IsTypeOf

; 358  : 	}

  00011	5d		 pop	 ebp
  00012	c2 04 00	 ret	 4
?IsTypeOf@i3ElementBase@@QAE_NPAVi3ClassMeta@@@Z ENDP	; i3ElementBase::IsTypeOf
_TEXT	ENDS
; Function compile flags: /Ogtp
; File E:\Proyectos\JuegosOnlineproyectos\PB\pbblow\Piercing Blow Remake\i3Server\include\i3Base\i3ElementBase.h
; File E:\Proyectos\JuegosOnlineproyectos\PB\pbblow\Piercing Blow Remake\i3Server\include\i3Base\i3ClassMeta.h
; File E:\Proyectos\JuegosOnlineproyectos\PB\pbblow\Piercing Blow Remake\i3Server\include\i3Base\i3ElementBase.h
;	COMDAT ?IsExactTypeOf@i3ElementBase@@QAE_NPAVi3ClassMeta@@@Z
_TEXT	SEGMENT
_pMeta$ = 8						; size = 4
?IsExactTypeOf@i3ElementBase@@QAE_NPAVi3ClassMeta@@@Z PROC ; i3ElementBase::IsExactTypeOf, COMDAT
; _this$ = ecx

; 351  : 	{

  00000	55		 push	 ebp
  00001	8b ec		 mov	 ebp, esp

; 352  : 		return GetMeta()->IsExactTypeOf( pMeta);

  00003	8b 01		 mov	 eax, DWORD PTR [ecx]
  00005	ff 10		 call	 DWORD PTR [eax]
; File E:\Proyectos\JuegosOnlineproyectos\PB\pbblow\Piercing Blow Remake\i3Server\include\i3Base\i3ClassMeta.h

; 90   : 		return pMeta == this;

  00007	39 45 08	 cmp	 DWORD PTR _pMeta$[ebp], eax
  0000a	0f 94 c0	 sete	 al
; File E:\Proyectos\JuegosOnlineproyectos\PB\pbblow\Piercing Blow Remake\i3Server\include\i3Base\i3ElementBase.h

; 353  : 	}

  0000d	5d		 pop	 ebp
  0000e	c2 04 00	 ret	 4
?IsExactTypeOf@i3ElementBase@@QAE_NPAVi3ClassMeta@@@Z ENDP ; i3ElementBase::IsExactTypeOf
_TEXT	ENDS
; Function compile flags: /Ogtp
; File E:\Proyectos\JuegosOnlineproyectos\PB\pbblow\Piercing Blow Remake\i3Server\include\i3Base\i3ElementBase.h
;	COMDAT ?__GetMemoryPool@i3ElementBase@@QAEPAVi3MemoryPool@@XZ
_TEXT	SEGMENT
?__GetMemoryPool@i3ElementBase@@QAEPAVi3MemoryPool@@XZ PROC ; i3ElementBase::__GetMemoryPool, COMDAT
; _this$ = ecx

; 348  : 	i3MemoryPool *	__GetMemoryPool(void)							{ return m_pPool; }

  00000	8b 41 0c	 mov	 eax, DWORD PTR [ecx+12]
  00003	c3		 ret	 0
?__GetMemoryPool@i3ElementBase@@QAEPAVi3MemoryPool@@XZ ENDP ; i3ElementBase::__GetMemoryPool
_TEXT	ENDS
; Function compile flags: /Ogtp
; File E:\Proyectos\JuegosOnlineproyectos\PB\pbblow\Piercing Blow Remake\i3Server\include\i3Base\i3ElementBase.h
;	COMDAT ?__SetMemoryPool@i3ElementBase@@QAEXPAVi3MemoryPool@@@Z
_TEXT	SEGMENT
_pPool$ = 8						; size = 4
?__SetMemoryPool@i3ElementBase@@QAEXPAVi3MemoryPool@@@Z PROC ; i3ElementBase::__SetMemoryPool, COMDAT
; _this$ = ecx

; 347  : 	void			__SetMemoryPool( i3MemoryPool * pPool)			{ m_pPool = pPool; }

  00000	55		 push	 ebp
  00001	8b ec		 mov	 ebp, esp
  00003	8b 45 08	 mov	 eax, DWORD PTR _pPool$[ebp]
  00006	89 41 0c	 mov	 DWORD PTR [ecx+12], eax
  00009	5d		 pop	 ebp
  0000a	c2 04 00	 ret	 4
?__SetMemoryPool@i3ElementBase@@QAEXPAVi3MemoryPool@@@Z ENDP ; i3ElementBase::__SetMemoryPool
_TEXT	ENDS
; Function compile flags: /Ogtp
; File E:\Proyectos\JuegosOnlineproyectos\PB\pbblow\Piercing Blow Remake\i3Server\include\i3Base\i3ElementBase.h
;	COMDAT ?GetRefCount@i3ElementBase@@QAEHXZ
_TEXT	SEGMENT
?GetRefCount@i3ElementBase@@QAEHXZ PROC			; i3ElementBase::GetRefCount, COMDAT
; _this$ = ecx

; 344  : 		return m_RefCount;

  00000	8b 41 04	 mov	 eax, DWORD PTR [ecx+4]

; 345  : 	}

  00003	c3		 ret	 0
?GetRefCount@i3ElementBase@@QAEHXZ ENDP			; i3ElementBase::GetRefCount
_TEXT	ENDS
; Function compile flags: /Ogtp
; File E:\Proyectos\JuegosOnlineproyectos\PB\pbblow\Piercing Blow Remake\i3Server\include\i3Base\i3ElementBase.h
;	COMDAT ?GetClassMeta@i3ElementBase@@SAPAVi3ClassMeta@@XZ
_TEXT	SEGMENT
?GetClassMeta@i3ElementBase@@SAPAVi3ClassMeta@@XZ PROC	; i3ElementBase::GetClassMeta, COMDAT

; 314  : 	I3_ABSTRACT_CLASS_DEFINE( i3ElementBase);

  00000	a1 00 00 00 00	 mov	 eax, DWORD PTR ?s_pClassMetai3ElementBase@i3ElementBase@@2PAVi3ClassMeta@@A ; i3ElementBase::s_pClassMetai3ElementBase
  00005	c3		 ret	 0
?GetClassMeta@i3ElementBase@@SAPAVi3ClassMeta@@XZ ENDP	; i3ElementBase::GetClassMeta
_TEXT	ENDS
; Function compile flags: /Ogtp
;	COMDAT ??_Ei3ClassMeta@@UAEPAXI@Z
_TEXT	SEGMENT
__$EHRec$ = -12						; size = 12
___flags$ = 8						; size = 4
??_Ei3ClassMeta@@UAEPAXI@Z PROC				; i3ClassMeta::`vector deleting destructor', COMDAT
; _this$ = ecx
  00000	55		 push	 ebp
  00001	8b ec		 mov	 ebp, esp
  00003	6a ff		 push	 -1
  00005	68 00 00 00 00	 push	 __ehhandler$??_Ei3ClassMeta@@UAEPAXI@Z
  0000a	64 a1 00 00 00
	00		 mov	 eax, DWORD PTR fs:0
  00010	50		 push	 eax
  00011	53		 push	 ebx
  00012	56		 push	 esi
  00013	57		 push	 edi
  00014	a1 00 00 00 00	 mov	 eax, DWORD PTR ___security_cookie
  00019	33 c5		 xor	 eax, ebp
  0001b	50		 push	 eax
  0001c	8d 45 f4	 lea	 eax, DWORD PTR __$EHRec$[ebp]
  0001f	64 a3 00 00 00
	00		 mov	 DWORD PTR fs:0, eax
  00025	8b f1		 mov	 esi, ecx
  00027	8b 45 08	 mov	 eax, DWORD PTR ___flags$[ebp]
  0002a	8b f8		 mov	 edi, eax
  0002c	83 e7 01	 and	 edi, 1
  0002f	a8 02		 test	 al, 2
  00031	74 49		 je	 SHORT $LN2@vector
  00033	68 00 00 00 00	 push	 OFFSET ??1i3ClassMeta@@UAE@XZ ; i3ClassMeta::~i3ClassMeta
  00038	ff 76 fc	 push	 DWORD PTR [esi-4]
  0003b	8d 5e fc	 lea	 ebx, DWORD PTR [esi-4]
  0003e	6a 38		 push	 56			; 00000038H
  00040	56		 push	 esi
  00041	e8 00 00 00 00	 call	 ??_M@YGXPAXIIP6EX0@Z@Z
  00046	85 ff		 test	 edi, edi
  00048	74 1c		 je	 SHORT $LN3@vector
  0004a	8b 0b		 mov	 ecx, DWORD PTR [ebx]
  0004c	8d 14 cd 00 00
	00 00		 lea	 edx, DWORD PTR [ecx*8]
  00053	2b d1		 sub	 edx, ecx
  00055	8d 0c d5 04 00
	00 00		 lea	 ecx, DWORD PTR [edx*8+4]
  0005c	51		 push	 ecx
  0005d	53		 push	 ebx
  0005e	e8 00 00 00 00	 call	 ??_V@YAXPAXI@Z		; operator delete[]
  00063	83 c4 08	 add	 esp, 8
$LN3@vector:
  00066	8b c3		 mov	 eax, ebx
  00068	8b 4d f4	 mov	 ecx, DWORD PTR __$EHRec$[ebp]
  0006b	64 89 0d 00 00
	00 00		 mov	 DWORD PTR fs:0, ecx
  00072	59		 pop	 ecx
  00073	5f		 pop	 edi
  00074	5e		 pop	 esi
  00075	5b		 pop	 ebx
  00076	8b e5		 mov	 esp, ebp
  00078	5d		 pop	 ebp
  00079	c2 04 00	 ret	 4
$LN2@vector:
  0007c	e8 00 00 00 00	 call	 ??1i3ClassMeta@@UAE@XZ	; i3ClassMeta::~i3ClassMeta
  00081	85 ff		 test	 edi, edi
  00083	74 0b		 je	 SHORT $LN4@vector
  00085	6a 38		 push	 56			; 00000038H
  00087	56		 push	 esi
  00088	e8 00 00 00 00	 call	 ??3@YAXPAXI@Z		; operator delete
  0008d	83 c4 08	 add	 esp, 8
$LN4@vector:
  00090	8b c6		 mov	 eax, esi
  00092	8b 4d f4	 mov	 ecx, DWORD PTR __$EHRec$[ebp]
  00095	64 89 0d 00 00
	00 00		 mov	 DWORD PTR fs:0, ecx
  0009c	59		 pop	 ecx
  0009d	5f		 pop	 edi
  0009e	5e		 pop	 esi
  0009f	5b		 pop	 ebx
  000a0	8b e5		 mov	 esp, ebp
  000a2	5d		 pop	 ebp
  000a3	c2 04 00	 ret	 4
  000a6	cc		 int	 3
  000a7	cc		 int	 3
  000a8	cc		 int	 3
  000a9	cc		 int	 3
  000aa	cc		 int	 3
_TEXT	ENDS
;	COMDAT text$x
text$x	SEGMENT
__ehhandler$??_Ei3ClassMeta@@UAEPAXI@Z:
  00000	90		 npad	 1
  00001	90		 npad	 1
  00002	8b 54 24 08	 mov	 edx, DWORD PTR [esp+8]
  00006	8d 42 0c	 lea	 eax, DWORD PTR [edx+12]
  00009	8b 4a f0	 mov	 ecx, DWORD PTR [edx-16]
  0000c	33 c8		 xor	 ecx, eax
  0000e	e8 00 00 00 00	 call	 @__security_check_cookie@4
  00013	b8 00 00 00 00	 mov	 eax, OFFSET __ehfuncinfo$??_Ei3ClassMeta@@UAEPAXI@Z
  00018	e9 00 00 00 00	 jmp	 ___CxxFrameHandler3
text$x	ENDS
??_Ei3ClassMeta@@UAEPAXI@Z ENDP				; i3ClassMeta::`vector deleting destructor'
; Function compile flags: /Ogtp
;	COMDAT ??_Gi3ClassMeta@@UAEPAXI@Z
_TEXT	SEGMENT
___flags$ = 8						; size = 4
??_Gi3ClassMeta@@UAEPAXI@Z PROC				; i3ClassMeta::`scalar deleting destructor', COMDAT
; _this$ = ecx
  00000	55		 push	 ebp
  00001	8b ec		 mov	 ebp, esp
  00003	56		 push	 esi
  00004	8b f1		 mov	 esi, ecx
  00006	e8 00 00 00 00	 call	 ??1i3ClassMeta@@UAE@XZ	; i3ClassMeta::~i3ClassMeta
  0000b	f6 45 08 01	 test	 BYTE PTR ___flags$[ebp], 1
  0000f	74 0b		 je	 SHORT $LN5@scalar
  00011	6a 38		 push	 56			; 00000038H
  00013	56		 push	 esi
  00014	e8 00 00 00 00	 call	 ??3@YAXPAXI@Z		; operator delete
  00019	83 c4 08	 add	 esp, 8
$LN5@scalar:
  0001c	8b c6		 mov	 eax, esi
  0001e	5e		 pop	 esi
  0001f	5d		 pop	 ebp
  00020	c2 04 00	 ret	 4
??_Gi3ClassMeta@@UAEPAXI@Z ENDP				; i3ClassMeta::`scalar deleting destructor'
_TEXT	ENDS
; Function compile flags: /Ogtp
;	COMDAT ??4i3ClassMeta@@QAEAAV0@ABV0@@Z
_TEXT	SEGMENT
___that$ = 8						; size = 4
??4i3ClassMeta@@QAEAAV0@ABV0@@Z PROC			; i3ClassMeta::operator=, COMDAT
; _this$ = ecx
  00000	55		 push	 ebp
  00001	8b ec		 mov	 ebp, esp
  00003	8b 55 08	 mov	 edx, DWORD PTR ___that$[ebp]
  00006	8b 42 04	 mov	 eax, DWORD PTR [edx+4]
  00009	89 41 04	 mov	 DWORD PTR [ecx+4], eax
  0000c	8b 42 08	 mov	 eax, DWORD PTR [edx+8]
  0000f	89 41 08	 mov	 DWORD PTR [ecx+8], eax
  00012	8b 42 0c	 mov	 eax, DWORD PTR [edx+12]
  00015	89 41 0c	 mov	 DWORD PTR [ecx+12], eax
  00018	8b 42 10	 mov	 eax, DWORD PTR [edx+16]
  0001b	89 41 10	 mov	 DWORD PTR [ecx+16], eax
  0001e	8b 42 14	 mov	 eax, DWORD PTR [edx+20]
  00021	89 41 14	 mov	 DWORD PTR [ecx+20], eax
  00024	8b 42 18	 mov	 eax, DWORD PTR [edx+24]
  00027	89 41 18	 mov	 DWORD PTR [ecx+24], eax
  0002a	8b 42 1c	 mov	 eax, DWORD PTR [edx+28]
  0002d	89 41 1c	 mov	 DWORD PTR [ecx+28], eax
  00030	8b 42 20	 mov	 eax, DWORD PTR [edx+32]
  00033	89 41 20	 mov	 DWORD PTR [ecx+32], eax
  00036	8b 42 24	 mov	 eax, DWORD PTR [edx+36]
  00039	89 41 24	 mov	 DWORD PTR [ecx+36], eax
  0003c	8b 42 28	 mov	 eax, DWORD PTR [edx+40]
  0003f	89 41 28	 mov	 DWORD PTR [ecx+40], eax
  00042	8b 42 2c	 mov	 eax, DWORD PTR [edx+44]
  00045	89 41 2c	 mov	 DWORD PTR [ecx+44], eax
  00048	8b 42 30	 mov	 eax, DWORD PTR [edx+48]
  0004b	89 41 30	 mov	 DWORD PTR [ecx+48], eax
  0004e	8b 42 34	 mov	 eax, DWORD PTR [edx+52]
  00051	89 41 34	 mov	 DWORD PTR [ecx+52], eax
  00054	8b c1		 mov	 eax, ecx
  00056	5d		 pop	 ebp
  00057	c2 04 00	 ret	 4
??4i3ClassMeta@@QAEAAV0@ABV0@@Z ENDP			; i3ClassMeta::operator=
_TEXT	ENDS
; Function compile flags: /Ogtp
;	COMDAT ??0i3ClassMeta@@QAE@ABV0@@Z
_TEXT	SEGMENT
___that$ = 8						; size = 4
??0i3ClassMeta@@QAE@ABV0@@Z PROC			; i3ClassMeta::i3ClassMeta, COMDAT
; _this$ = ecx
  00000	55		 push	 ebp
  00001	8b ec		 mov	 ebp, esp
  00003	8b 55 08	 mov	 edx, DWORD PTR ___that$[ebp]
  00006	c7 01 00 00 00
	00		 mov	 DWORD PTR [ecx], OFFSET ??_7i3ClassMeta@@6B@
  0000c	8b 42 04	 mov	 eax, DWORD PTR [edx+4]
  0000f	89 41 04	 mov	 DWORD PTR [ecx+4], eax
  00012	8b 42 08	 mov	 eax, DWORD PTR [edx+8]
  00015	89 41 08	 mov	 DWORD PTR [ecx+8], eax
  00018	8b 42 0c	 mov	 eax, DWORD PTR [edx+12]
  0001b	89 41 0c	 mov	 DWORD PTR [ecx+12], eax
  0001e	8b 42 10	 mov	 eax, DWORD PTR [edx+16]
  00021	89 41 10	 mov	 DWORD PTR [ecx+16], eax
  00024	8b 42 14	 mov	 eax, DWORD PTR [edx+20]
  00027	89 41 14	 mov	 DWORD PTR [ecx+20], eax
  0002a	8b 42 18	 mov	 eax, DWORD PTR [edx+24]
  0002d	89 41 18	 mov	 DWORD PTR [ecx+24], eax
  00030	8b 42 1c	 mov	 eax, DWORD PTR [edx+28]
  00033	89 41 1c	 mov	 DWORD PTR [ecx+28], eax
  00036	8b 42 20	 mov	 eax, DWORD PTR [edx+32]
  00039	89 41 20	 mov	 DWORD PTR [ecx+32], eax
  0003c	8b 42 24	 mov	 eax, DWORD PTR [edx+36]
  0003f	89 41 24	 mov	 DWORD PTR [ecx+36], eax
  00042	8b 42 28	 mov	 eax, DWORD PTR [edx+40]
  00045	89 41 28	 mov	 DWORD PTR [ecx+40], eax
  00048	8b 42 2c	 mov	 eax, DWORD PTR [edx+44]
  0004b	89 41 2c	 mov	 DWORD PTR [ecx+44], eax
  0004e	8b 42 30	 mov	 eax, DWORD PTR [edx+48]
  00051	89 41 30	 mov	 DWORD PTR [ecx+48], eax
  00054	8b 42 34	 mov	 eax, DWORD PTR [edx+52]
  00057	89 41 34	 mov	 DWORD PTR [ecx+52], eax
  0005a	8b c1		 mov	 eax, ecx
  0005c	5d		 pop	 ebp
  0005d	c2 04 00	 ret	 4
??0i3ClassMeta@@QAE@ABV0@@Z ENDP			; i3ClassMeta::i3ClassMeta
_TEXT	ENDS
; Function compile flags: /Ogtp
; File E:\Proyectos\JuegosOnlineproyectos\PB\pbblow\Piercing Blow Remake\i3Server\include\i3Base\i3ClassMeta.h
;	COMDAT ?getHashCode@i3ClassMeta@@QAEIXZ
_TEXT	SEGMENT
?getHashCode@i3ClassMeta@@QAEIXZ PROC			; i3ClassMeta::getHashCode, COMDAT
; _this$ = ecx

; 112  : 	UINT32			getHashCode(void)						{ return m_HashCode; }

  00000	8b 41 18	 mov	 eax, DWORD PTR [ecx+24]
  00003	c3		 ret	 0
?getHashCode@i3ClassMeta@@QAEIXZ ENDP			; i3ClassMeta::getHashCode
_TEXT	ENDS
; Function compile flags: /Ogtp
; File E:\Proyectos\JuegosOnlineproyectos\PB\pbblow\Piercing Blow Remake\i3Server\include\i3Base\i3ClassMeta.h
;	COMDAT ?GetBaseClassMeta@i3ClassMeta@@QAEPAV1@XZ
_TEXT	SEGMENT
?GetBaseClassMeta@i3ClassMeta@@QAEPAV1@XZ PROC		; i3ClassMeta::GetBaseClassMeta, COMDAT
; _this$ = ecx

; 107  : 	i3ClassMeta *	GetBaseClassMeta(void)					{ return m_pBaseClass; }

  00000	8b 41 1c	 mov	 eax, DWORD PTR [ecx+28]
  00003	c3		 ret	 0
?GetBaseClassMeta@i3ClassMeta@@QAEPAV1@XZ ENDP		; i3ClassMeta::GetBaseClassMeta
_TEXT	ENDS
; Function compile flags: /Ogtp
; File E:\Proyectos\JuegosOnlineproyectos\PB\pbblow\Piercing Blow Remake\i3Server\include\i3Base\i3ClassMeta.h
;	COMDAT ?IsConcreteClass@i3ClassMeta@@QAEHXZ
_TEXT	SEGMENT
?IsConcreteClass@i3ClassMeta@@QAEHXZ PROC		; i3ClassMeta::IsConcreteClass, COMDAT
; _this$ = ecx

; 102  : 	BOOL			IsStyle( UINT32 style)					{ return (m_Style & style) == style; }

  00000	8b 41 14	 mov	 eax, DWORD PTR [ecx+20]
  00003	d1 e8		 shr	 eax, 1
  00005	83 e0 01	 and	 eax, 1

; 105  : 	BOOL			IsConcreteClass(void)					{ return IsStyle( I3_CLASSMETA_STYLE_CONCRETE); }

  00008	c3		 ret	 0
?IsConcreteClass@i3ClassMeta@@QAEHXZ ENDP		; i3ClassMeta::IsConcreteClass
_TEXT	ENDS
; Function compile flags: /Ogtp
; File E:\Proyectos\JuegosOnlineproyectos\PB\pbblow\Piercing Blow Remake\i3Server\include\i3Base\i3ClassMeta.h
;	COMDAT ?IsAbstractClass@i3ClassMeta@@QAEHXZ
_TEXT	SEGMENT
?IsAbstractClass@i3ClassMeta@@QAEHXZ PROC		; i3ClassMeta::IsAbstractClass, COMDAT
; _this$ = ecx

; 102  : 	BOOL			IsStyle( UINT32 style)					{ return (m_Style & style) == style; }

  00000	8b 41 14	 mov	 eax, DWORD PTR [ecx+20]
  00003	83 e0 01	 and	 eax, 1

; 104  : 	BOOL			IsAbstractClass(void)					{ return IsStyle( I3_CLASSMETA_STYLE_ABSTRACT); }

  00006	c3		 ret	 0
?IsAbstractClass@i3ClassMeta@@QAEHXZ ENDP		; i3ClassMeta::IsAbstractClass
_TEXT	ENDS
; Function compile flags: /Ogtp
; File E:\Proyectos\JuegosOnlineproyectos\PB\pbblow\Piercing Blow Remake\i3Server\include\i3Base\i3ClassMeta.h
;	COMDAT ?IsStyle@i3ClassMeta@@QAEHI@Z
_TEXT	SEGMENT
_style$ = 8						; size = 4
?IsStyle@i3ClassMeta@@QAEHI@Z PROC			; i3ClassMeta::IsStyle, COMDAT
; _this$ = ecx

; 102  : 	BOOL			IsStyle( UINT32 style)					{ return (m_Style & style) == style; }

  00000	55		 push	 ebp
  00001	8b ec		 mov	 ebp, esp
  00003	8b 51 14	 mov	 edx, DWORD PTR [ecx+20]
  00006	33 c0		 xor	 eax, eax
  00008	23 55 08	 and	 edx, DWORD PTR _style$[ebp]
  0000b	3b 55 08	 cmp	 edx, DWORD PTR _style$[ebp]
  0000e	0f 94 c0	 sete	 al
  00011	5d		 pop	 ebp
  00012	c2 04 00	 ret	 4
?IsStyle@i3ClassMeta@@QAEHI@Z ENDP			; i3ClassMeta::IsStyle
_TEXT	ENDS
; Function compile flags: /Ogtp
; File E:\Proyectos\JuegosOnlineproyectos\PB\pbblow\Piercing Blow Remake\i3Server\include\i3Base\i3ClassMeta.h
;	COMDAT ?RemoveStyle@i3ClassMeta@@QAEXI@Z
_TEXT	SEGMENT
_style$ = 8						; size = 4
?RemoveStyle@i3ClassMeta@@QAEXI@Z PROC			; i3ClassMeta::RemoveStyle, COMDAT
; _this$ = ecx

; 101  : 	void			RemoveStyle( UINT32 style)				{ m_Style &= ~style; }

  00000	55		 push	 ebp
  00001	8b ec		 mov	 ebp, esp
  00003	8b 45 08	 mov	 eax, DWORD PTR _style$[ebp]
  00006	f7 d0		 not	 eax
  00008	21 41 14	 and	 DWORD PTR [ecx+20], eax
  0000b	5d		 pop	 ebp
  0000c	c2 04 00	 ret	 4
?RemoveStyle@i3ClassMeta@@QAEXI@Z ENDP			; i3ClassMeta::RemoveStyle
_TEXT	ENDS
; Function compile flags: /Ogtp
; File E:\Proyectos\JuegosOnlineproyectos\PB\pbblow\Piercing Blow Remake\i3Server\include\i3Base\i3ClassMeta.h
;	COMDAT ?AddStyle@i3ClassMeta@@QAEXI@Z
_TEXT	SEGMENT
_style$ = 8						; size = 4
?AddStyle@i3ClassMeta@@QAEXI@Z PROC			; i3ClassMeta::AddStyle, COMDAT
; _this$ = ecx

; 100  : 	void			AddStyle( UINT32 style)					{ m_Style |= style; }

  00000	55		 push	 ebp
  00001	8b ec		 mov	 ebp, esp
  00003	8b 45 08	 mov	 eax, DWORD PTR _style$[ebp]
  00006	09 41 14	 or	 DWORD PTR [ecx+20], eax
  00009	5d		 pop	 ebp
  0000a	c2 04 00	 ret	 4
?AddStyle@i3ClassMeta@@QAEXI@Z ENDP			; i3ClassMeta::AddStyle
_TEXT	ENDS
; Function compile flags: /Ogtp
; File E:\Proyectos\JuegosOnlineproyectos\PB\pbblow\Piercing Blow Remake\i3Server\include\i3Base\i3ClassMeta.h
;	COMDAT ?GetStyle@i3ClassMeta@@QAEIXZ
_TEXT	SEGMENT
?GetStyle@i3ClassMeta@@QAEIXZ PROC			; i3ClassMeta::GetStyle, COMDAT
; _this$ = ecx

; 99   : 	UINT32			GetStyle(void)							{ return m_Style; }

  00000	8b 41 14	 mov	 eax, DWORD PTR [ecx+20]
  00003	c3		 ret	 0
?GetStyle@i3ClassMeta@@QAEIXZ ENDP			; i3ClassMeta::GetStyle
_TEXT	ENDS
; Function compile flags: /Ogtp
; File E:\Proyectos\JuegosOnlineproyectos\PB\pbblow\Piercing Blow Remake\i3Server\include\i3Base\i3ClassMeta.h
;	COMDAT ?SetStyle@i3ClassMeta@@QAEXI@Z
_TEXT	SEGMENT
_style$ = 8						; size = 4
?SetStyle@i3ClassMeta@@QAEXI@Z PROC			; i3ClassMeta::SetStyle, COMDAT
; _this$ = ecx

; 98   : 	void			SetStyle( UINT32 style)					{ m_Style = style; }

  00000	55		 push	 ebp
  00001	8b ec		 mov	 ebp, esp
  00003	8b 45 08	 mov	 eax, DWORD PTR _style$[ebp]
  00006	89 41 14	 mov	 DWORD PTR [ecx+20], eax
  00009	5d		 pop	 ebp
  0000a	c2 04 00	 ret	 4
?SetStyle@i3ClassMeta@@QAEXI@Z ENDP			; i3ClassMeta::SetStyle
_TEXT	ENDS
; Function compile flags: /Ogtp
; File E:\Proyectos\JuegosOnlineproyectos\PB\pbblow\Piercing Blow Remake\i3Server\include\i3Base\i3ClassMeta.h
;	COMDAT ?IsExactTypeOf@i3ClassMeta@@QAE_NPAV1@@Z
_TEXT	SEGMENT
_pMeta$ = 8						; size = 4
?IsExactTypeOf@i3ClassMeta@@QAE_NPAV1@@Z PROC		; i3ClassMeta::IsExactTypeOf, COMDAT
; _this$ = ecx

; 89   : 	{

  00000	55		 push	 ebp
  00001	8b ec		 mov	 ebp, esp

; 90   : 		return pMeta == this;

  00003	39 4d 08	 cmp	 DWORD PTR _pMeta$[ebp], ecx
  00006	0f 94 c0	 sete	 al

; 91   : 	}

  00009	5d		 pop	 ebp
  0000a	c2 04 00	 ret	 4
?IsExactTypeOf@i3ClassMeta@@QAE_NPAV1@@Z ENDP		; i3ClassMeta::IsExactTypeOf
_TEXT	ENDS
; Function compile flags: /Ogtp
; File E:\Proyectos\JuegosOnlineproyectos\PB\pbblow\Piercing Blow Remake\i3Server\include\i3Base\i3ClassMeta.h
;	COMDAT ?GetClassNameA@i3ClassMeta@@QAEPADXZ
_TEXT	SEGMENT
?GetClassNameA@i3ClassMeta@@QAEPADXZ PROC		; i3ClassMeta::GetClassNameA, COMDAT
; _this$ = ecx

; 83   : 		return m_pszClassName;

  00000	8b 41 0c	 mov	 eax, DWORD PTR [ecx+12]

; 84   : 	}

  00003	c3		 ret	 0
?GetClassNameA@i3ClassMeta@@QAEPADXZ ENDP		; i3ClassMeta::GetClassNameA
_TEXT	ENDS
; Function compile flags: /Ogtp
; File E:\Proyectos\JuegosOnlineproyectos\PB\pbblow\Piercing Blow Remake\i3Server\include\i3Base\i3ClassMeta.h
;	COMDAT ?GetClassSize@i3ClassMeta@@QAEIXZ
_TEXT	SEGMENT
?GetClassSize@i3ClassMeta@@QAEIXZ PROC			; i3ClassMeta::GetClassSize, COMDAT
; _this$ = ecx

; 78   : 		return m_ClassSize;

  00000	8b 41 08	 mov	 eax, DWORD PTR [ecx+8]

; 79   : 	}

  00003	c3		 ret	 0
?GetClassSize@i3ClassMeta@@QAEIXZ ENDP			; i3ClassMeta::GetClassSize
_TEXT	ENDS
; Function compile flags: /Ogtp
; File E:\Proyectos\JuegosOnlineproyectos\PB\pbblow\Piercing Blow Remake\i3Server\include\i3Base\i3ClassMeta.h
;	COMDAT ?SetMemoryPool@i3ClassMeta@@QAEXPAVi3MemoryPool@@@Z
_TEXT	SEGMENT
_pPool$ = 8						; size = 4
?SetMemoryPool@i3ClassMeta@@QAEXPAVi3MemoryPool@@@Z PROC ; i3ClassMeta::SetMemoryPool, COMDAT
; _this$ = ecx

; 66   : 	void			SetMemoryPool( i3MemoryPool * pPool)		{ m_pPool = pPool; }

  00000	55		 push	 ebp
  00001	8b ec		 mov	 ebp, esp
  00003	8b 45 08	 mov	 eax, DWORD PTR _pPool$[ebp]
  00006	89 41 34	 mov	 DWORD PTR [ecx+52], eax
  00009	5d		 pop	 ebp
  0000a	c2 04 00	 ret	 4
?SetMemoryPool@i3ClassMeta@@QAEXPAVi3MemoryPool@@@Z ENDP ; i3ClassMeta::SetMemoryPool
_TEXT	ENDS
; Function compile flags: /Ogtp
; File E:\Proyectos\JuegosOnlineproyectos\PB\pbblow\Piercing Blow Remake\i3Server\include\i3Base\i3ClassMeta.h
;	COMDAT ?GetMemoryPool@i3ClassMeta@@QAEPAVi3MemoryPool@@XZ
_TEXT	SEGMENT
?GetMemoryPool@i3ClassMeta@@QAEPAVi3MemoryPool@@XZ PROC	; i3ClassMeta::GetMemoryPool, COMDAT
; _this$ = ecx

; 65   : 	i3MemoryPool *	GetMemoryPool(void)							{ return m_pPool; }

  00000	8b 41 34	 mov	 eax, DWORD PTR [ecx+52]
  00003	c3		 ret	 0
?GetMemoryPool@i3ClassMeta@@QAEPAVi3MemoryPool@@XZ ENDP	; i3ClassMeta::GetMemoryPool
_TEXT	ENDS
; Function compile flags: /Ogtp
; File C:\Program Files (x86)\Windows Kits\10\Include\10.0.26100.0\ucrt\stdio.h
;	COMDAT _printf
_TEXT	SEGMENT
__Format$ = 8						; size = 4
_printf	PROC						; COMDAT

; 956  :     {

  00000	55		 push	 ebp
  00001	8b ec		 mov	 ebp, esp
  00003	56		 push	 esi

; 957  :         int _Result;
; 958  :         va_list _ArgList;
; 959  :         __crt_va_start(_ArgList, _Format);
; 960  :         _Result = _vfprintf_l(stdout, _Format, NULL, _ArgList);

  00004	8b 75 08	 mov	 esi, DWORD PTR __Format$[ebp]
  00007	6a 01		 push	 1
  00009	e8 00 00 00 00	 call	 ___acrt_iob_func
  0000e	83 c4 04	 add	 esp, 4

; 645  :         return __stdio_common_vfprintf(_CRT_INTERNAL_LOCAL_PRINTF_OPTIONS, _Stream, _Format, _Locale, _ArgList);

  00011	8d 4d 0c	 lea	 ecx, DWORD PTR __Format$[ebp+4]
  00014	51		 push	 ecx
  00015	6a 00		 push	 0
  00017	56		 push	 esi
  00018	50		 push	 eax
  00019	e8 00 00 00 00	 call	 ___local_stdio_printf_options
  0001e	ff 70 04	 push	 DWORD PTR [eax+4]
  00021	ff 30		 push	 DWORD PTR [eax]
  00023	e8 00 00 00 00	 call	 ___stdio_common_vfprintf
  00028	83 c4 18	 add	 esp, 24			; 00000018H

; 961  :         __crt_va_end(_ArgList);
; 962  :         return _Result;

  0002b	5e		 pop	 esi

; 963  :     }

  0002c	5d		 pop	 ebp
  0002d	c3		 ret	 0
_printf	ENDP
_TEXT	ENDS
; Function compile flags: /Ogtp
; File C:\Program Files (x86)\Windows Kits\10\Include\10.0.26100.0\ucrt\corecrt_stdio_config.h
;	COMDAT ___local_stdio_printf_options
_TEXT	SEGMENT
___local_stdio_printf_options PROC			; COMDAT

; 91   :         static unsigned __int64 _OptionsStorage;
; 92   :         return &_OptionsStorage;

  00000	b8 00 00 00 00	 mov	 eax, OFFSET ?_OptionsStorage@?1??__local_stdio_printf_options@@9@4_KA ; `__local_stdio_printf_options'::`2'::_OptionsStorage

; 93   :     }

  00005	c3		 ret	 0
___local_stdio_printf_options ENDP
_TEXT	ENDS
; Function compile flags: /Ogtp
; File E:\Proyectos\JuegosOnlineproyectos\PB\pbblow\Piercing Blow Remake\i3Server\src\i3Base\i3LogFileA.cpp
;	COMDAT ?__global_array_delete@@YAXPAXI@Z
_TEXT	SEGMENT
_p$ = 8							; size = 4
_sz$ = 12						; size = 4
?__global_array_delete@@YAXPAXI@Z PROC			; __global_array_delete, COMDAT

  00000	e9 00 00 00 00	 jmp	 ??_V@YAXPAXI@Z		; operator delete[]
?__global_array_delete@@YAXPAXI@Z ENDP			; __global_array_delete
_TEXT	ENDS
; Function compile flags: /Ogtp
; File E:\Proyectos\JuegosOnlineproyectos\PB\pbblow\Piercing Blow Remake\i3Server\src\i3Base\i3LogFileA.cpp
;	COMDAT ?__global_array_delete@@YAXPAX@Z
_TEXT	SEGMENT
_p$ = 8							; size = 4
?__global_array_delete@@YAXPAX@Z PROC			; __global_array_delete, COMDAT

  00000	e9 00 00 00 00	 jmp	 ??_V@YAXPAX@Z		; operator delete[]
?__global_array_delete@@YAXPAX@Z ENDP			; __global_array_delete
_TEXT	ENDS
; Function compile flags: /Ogtp
; File E:\Proyectos\JuegosOnlineproyectos\PB\pbblow\Piercing Blow Remake\i3Server\src\i3Base\i3LogFileA.cpp
;	COMDAT ?__global_delete@@YAXPAXI@Z
_TEXT	SEGMENT
_p$ = 8							; size = 4
_sz$ = 12						; size = 4
?__global_delete@@YAXPAXI@Z PROC			; __global_delete, COMDAT

  00000	e9 00 00 00 00	 jmp	 ??3@YAXPAXI@Z		; operator delete
?__global_delete@@YAXPAXI@Z ENDP			; __global_delete
_TEXT	ENDS
; Function compile flags: /Ogtp
; File E:\Proyectos\JuegosOnlineproyectos\PB\pbblow\Piercing Blow Remake\i3Server\src\i3Base\i3LogFileA.cpp
;	COMDAT ?__empty_global_delete@@YAXPAXI@Z
_TEXT	SEGMENT
___formal$ = 8						; size = 4
___formal$ = 12						; size = 4
?__empty_global_delete@@YAXPAXI@Z PROC			; __empty_global_delete, COMDAT

  00000	c2 00 00	 ret	 0
?__empty_global_delete@@YAXPAXI@Z ENDP			; __empty_global_delete
_TEXT	ENDS
; Function compile flags: /Ogtp
; File E:\Proyectos\JuegosOnlineproyectos\PB\pbblow\Piercing Blow Remake\i3Server\src\i3Base\i3LogFileA.cpp
;	COMDAT ?__global_delete@@YAXPAX@Z
_TEXT	SEGMENT
_p$ = 8							; size = 4
?__global_delete@@YAXPAX@Z PROC				; __global_delete, COMDAT

  00000	e9 00 00 00 00	 jmp	 ??3@YAXPAX@Z		; operator delete
?__global_delete@@YAXPAX@Z ENDP				; __global_delete
_TEXT	ENDS
; Function compile flags: /Ogtp
; File E:\Proyectos\JuegosOnlineproyectos\PB\pbblow\Piercing Blow Remake\i3Server\src\i3Base\i3LogFileA.cpp
;	COMDAT ?__empty_global_delete@@YAXPAX@Z
_TEXT	SEGMENT
___formal$ = 8						; size = 4
?__empty_global_delete@@YAXPAX@Z PROC			; __empty_global_delete, COMDAT

  00000	c2 00 00	 ret	 0
?__empty_global_delete@@YAXPAX@Z ENDP			; __empty_global_delete
_TEXT	ENDS
END
