; Listing generated by Microsoft (R) Optimizing Compiler Version 19.50.35727.0 

	TITLE	E:\Proyectos\JuegosOnlineproyectos\PB\pbblow\Piercing Blow Remake\i3Server\Project\I3_DX\i3Server\x86\Release\i3MapFileParser.obj
	.686P
	.XMM
	include listing.inc
	.model	flat

INCLUDELIB LIBCMT
INCLUDELIB OLDNAMES

PUBLIC	___local_stdio_printf_options
PUBLIC	___local_stdio_scanf_options
PUBLIC	_sprintf
PUBLIC	_sscanf
PUBLIC	??0i3MapFileParser@@QAE@XZ			; i3MapFileParser::i3MapFileParser
PUBLIC	??1i3MapFileParser@@QAE@XZ			; i3MapFileParser::~i3MapFileParser
PUBLIC	?CheckExpection@i3MapFileParser@@QAEHPBD0@Z	; i3MapFileParser::CheckExpection
PUBLIC	?CheckExpection@i3MapFileParser@@QAEHPBDK@Z	; i3MapFileParser::CheckExpection
PUBLIC	?CheckExpection@i3MapFileParser@@QAEHPBDPAX@Z	; i3MapFileParser::CheckExpection
PUBLIC	?SetCheckExpection@i3MapFileParser@@QAEHPBDK@Z	; i3MapFileParser::SetCheckExpection
PUBLIC	?GetStartAddress@i3MapFileParser@@QAEHPAU_iobuf@@PAK@Z ; i3MapFileParser::GetStartAddress
PUBLIC	?GetAddressInfo@i3MapFileParser@@QAEHPAU_iobuf@@KPAD11@Z ; i3MapFileParser::GetAddressInfo
PUBLIC	?GetAddressInfoReal@i3MapFileParser@@QAEHPAU_iobuf@@KPAD11@Z ; i3MapFileParser::GetAddressInfoReal
PUBLIC	?GetLineInfo@i3MapFileParser@@QAEHPAU_iobuf@@KPBD1PAHPAD@Z ; i3MapFileParser::GetLineInfo
PUBLIC	?GetLineClassName@i3MapFileParser@@QAEXPBDPAD@Z	; i3MapFileParser::GetLineClassName
PUBLIC	?GetLineReal@i3MapFileParser@@QAEHPAU_iobuf@@KPBDPAH@Z ; i3MapFileParser::GetLineReal
PUBLIC	?GetFunctionName@i3MapFileParser@@QAEXPAD0@Z	; i3MapFileParser::GetFunctionName
PUBLIC	?GetObjectName@i3MapFileParser@@QAEXPAD0@Z	; i3MapFileParser::GetObjectName
PUBLIC	?GetHexValue@i3MapFileParser@@QAEKPBD@Z		; i3MapFileParser::GetHexValue
PUBLIC	?GetHexConvert@i3MapFileParser@@QAEHD@Z		; i3MapFileParser::GetHexConvert
PUBLIC	?GetHexMult@i3MapFileParser@@QAEHH@Z		; i3MapFileParser::GetHexMult
PUBLIC	?GetSourceLine@i3MapFileParser@@QAEHXZ		; i3MapFileParser::GetSourceLine
PUBLIC	?GetFunctionName@i3MapFileParser@@QAEPADXZ	; i3MapFileParser::GetFunctionName
PUBLIC	?GetClassNameA@i3MapFileParser@@QAEPADXZ	; i3MapFileParser::GetClassNameA
PUBLIC	??4i3MapFileParser@@QAEAAV0@ABV0@@Z		; i3MapFileParser::operator=
PUBLIC	?_OptionsStorage@?1??__local_stdio_printf_options@@9@4_KA ; `__local_stdio_printf_options'::`2'::_OptionsStorage
PUBLIC	?_OptionsStorage@?1??__local_stdio_scanf_options@@9@4_KA ; `__local_stdio_scanf_options'::`2'::_OptionsStorage
PUBLIC	??_C@_02EMFKHFLK@?$CFX@				; `string'
PUBLIC	??_C@_02BMJICGCB@rt@				; `string'
PUBLIC	??_C@_0BL@MLMKNPDC@Preferred?5load?5address?5is?5@ ; `string'
PUBLIC	??_C@_0BM@FNJILPPN@Preferred?5load?5address?5is?5?5@ ; `string'
PUBLIC	??_C@_08IAFDHKLG@Rva?$CLBase@			; `string'
PUBLIC	??_C@_0P@BNEDFJAM@entry?5point?5at@		; `string'
PUBLIC	??_C@_08EPEHIMMI@?$CFs?5?$CFs?5?$CFs@		; `string'
PUBLIC	??_C@_05DNIIFBMG@?$CFs?5?$CFs@			; `string'
PUBLIC	??_C@_02DKCKIIND@?$CFs@				; `string'
PUBLIC	??_C@_0BB@PJOHBANM@Line?5numbers?5for@		; `string'
PUBLIC	??_C@_0BI@CMMDNKC@?$CFd?5?$CFs?5?$CFd?5?$CFs?5?$CFd?5?$CFs?5?$CFd?5?$CFs@ ; `string'
EXTRN	_fclose:PROC
EXTRN	_feof:PROC
EXTRN	_fgets:PROC
EXTRN	_fopen:PROC
EXTRN	___stdio_common_vsprintf:PROC
EXTRN	___stdio_common_vsscanf:PROC
EXTRN	?NCopy@i3String@@YAXPADPBDH@Z:PROC		; i3String::NCopy
EXTRN	?Length@i3String@@YAHPBD@Z:PROC			; i3String::Length
EXTRN	?Contain@i3String@@YAHPBD0@Z:PROC		; i3String::Contain
EXTRN	@__security_check_cookie@4:PROC
EXTRN	__chkstk:PROC
EXTRN	_memset:PROC
EXTRN	___security_cookie:DWORD
;	COMDAT ?_OptionsStorage@?1??__local_stdio_printf_options@@9@4_KA
_BSS	SEGMENT
?_OptionsStorage@?1??__local_stdio_printf_options@@9@4_KA DQ 01H DUP (?) ; `__local_stdio_printf_options'::`2'::_OptionsStorage
_BSS	ENDS
;	COMDAT ?_OptionsStorage@?1??__local_stdio_scanf_options@@9@4_KA
_BSS	SEGMENT
?_OptionsStorage@?1??__local_stdio_scanf_options@@9@4_KA DQ 01H DUP (?) ; `__local_stdio_scanf_options'::`2'::_OptionsStorage
_BSS	ENDS
;	COMDAT ??_C@_0BI@CMMDNKC@?$CFd?5?$CFs?5?$CFd?5?$CFs?5?$CFd?5?$CFs?5?$CFd?5?$CFs@
CONST	SEGMENT
??_C@_0BI@CMMDNKC@?$CFd?5?$CFs?5?$CFd?5?$CFs?5?$CFd?5?$CFs?5?$CFd?5?$CFs@ DB '%'
	DB	'd %s %d %s %d %s %d %s', 00H		; `string'
CONST	ENDS
;	COMDAT ??_C@_0BB@PJOHBANM@Line?5numbers?5for@
CONST	SEGMENT
??_C@_0BB@PJOHBANM@Line?5numbers?5for@ DB 'Line numbers for', 00H ; `string'
CONST	ENDS
;	COMDAT ??_C@_02DKCKIIND@?$CFs@
CONST	SEGMENT
??_C@_02DKCKIIND@?$CFs@ DB '%s', 00H			; `string'
CONST	ENDS
;	COMDAT ??_C@_05DNIIFBMG@?$CFs?5?$CFs@
CONST	SEGMENT
??_C@_05DNIIFBMG@?$CFs?5?$CFs@ DB '%s %s', 00H		; `string'
CONST	ENDS
;	COMDAT ??_C@_08EPEHIMMI@?$CFs?5?$CFs?5?$CFs@
CONST	SEGMENT
??_C@_08EPEHIMMI@?$CFs?5?$CFs?5?$CFs@ DB '%s %s %s', 00H ; `string'
CONST	ENDS
;	COMDAT ??_C@_0P@BNEDFJAM@entry?5point?5at@
CONST	SEGMENT
??_C@_0P@BNEDFJAM@entry?5point?5at@ DB 'entry point at', 00H ; `string'
CONST	ENDS
;	COMDAT ??_C@_08IAFDHKLG@Rva?$CLBase@
CONST	SEGMENT
??_C@_08IAFDHKLG@Rva?$CLBase@ DB 'Rva+Base', 00H	; `string'
CONST	ENDS
;	COMDAT ??_C@_0BM@FNJILPPN@Preferred?5load?5address?5is?5?5@
CONST	SEGMENT
??_C@_0BM@FNJILPPN@Preferred?5load?5address?5is?5?5@ DB 'Preferred load a'
	DB	'ddress is  ', 00H				; `string'
CONST	ENDS
;	COMDAT ??_C@_0BL@MLMKNPDC@Preferred?5load?5address?5is?5@
CONST	SEGMENT
??_C@_0BL@MLMKNPDC@Preferred?5load?5address?5is?5@ DB 'Preferred load add'
	DB	'ress is ', 00H				; `string'
CONST	ENDS
;	COMDAT ??_C@_02BMJICGCB@rt@
CONST	SEGMENT
??_C@_02BMJICGCB@rt@ DB 'rt', 00H			; `string'
CONST	ENDS
;	COMDAT ??_C@_02EMFKHFLK@?$CFX@
CONST	SEGMENT
??_C@_02EMFKHFLK@?$CFX@ DB '%X', 00H			; `string'
CONST	ENDS
; Function compile flags: /Ogtp
;	COMDAT ??4i3MapFileParser@@QAEAAV0@ABV0@@Z
_TEXT	SEGMENT
___that$ = 8						; size = 4
??4i3MapFileParser@@QAEAAV0@ABV0@@Z PROC		; i3MapFileParser::operator=, COMDAT
; _this$ = ecx
  00000	55		 push	 ebp
  00001	8b ec		 mov	 ebp, esp
  00003	56		 push	 esi
  00004	8b 75 08	 mov	 esi, DWORD PTR ___that$[ebp]
  00007	8b c1		 mov	 eax, ecx
  00009	57		 push	 edi
  0000a	b9 01 02 00 00	 mov	 ecx, 513		; 00000201H
  0000f	8b f8		 mov	 edi, eax
  00011	f3 a5		 rep movsd
  00013	5f		 pop	 edi
  00014	5e		 pop	 esi
  00015	5d		 pop	 ebp
  00016	c2 04 00	 ret	 4
??4i3MapFileParser@@QAEAAV0@ABV0@@Z ENDP		; i3MapFileParser::operator=
_TEXT	ENDS
; Function compile flags: /Ogtp
; File E:\Proyectos\JuegosOnlineproyectos\PB\pbblow\Piercing Blow Remake\i3Server\include\i3Base\i3MapFileParser.h
;	COMDAT ?GetClassNameA@i3MapFileParser@@QAEPADXZ
_TEXT	SEGMENT
?GetClassNameA@i3MapFileParser@@QAEPADXZ PROC		; i3MapFileParser::GetClassNameA, COMDAT
; _this$ = ecx

; 43   : 	char*			GetClassName()							{	return m_szClassName;		};

  00000	8d 81 04 04 00
	00		 lea	 eax, DWORD PTR [ecx+1028]
  00006	c3		 ret	 0
?GetClassNameA@i3MapFileParser@@QAEPADXZ ENDP		; i3MapFileParser::GetClassNameA
_TEXT	ENDS
; Function compile flags: /Ogtp
; File E:\Proyectos\JuegosOnlineproyectos\PB\pbblow\Piercing Blow Remake\i3Server\include\i3Base\i3MapFileParser.h
;	COMDAT ?GetFunctionName@i3MapFileParser@@QAEPADXZ
_TEXT	SEGMENT
?GetFunctionName@i3MapFileParser@@QAEPADXZ PROC		; i3MapFileParser::GetFunctionName, COMDAT
; _this$ = ecx

; 42   : 	char*			GetFunctionName()						{	return m_szFunctionName;	};

  00000	8d 41 04	 lea	 eax, DWORD PTR [ecx+4]
  00003	c3		 ret	 0
?GetFunctionName@i3MapFileParser@@QAEPADXZ ENDP		; i3MapFileParser::GetFunctionName
_TEXT	ENDS
; Function compile flags: /Ogtp
; File E:\Proyectos\JuegosOnlineproyectos\PB\pbblow\Piercing Blow Remake\i3Server\include\i3Base\i3MapFileParser.h
;	COMDAT ?GetSourceLine@i3MapFileParser@@QAEHXZ
_TEXT	SEGMENT
?GetSourceLine@i3MapFileParser@@QAEHXZ PROC		; i3MapFileParser::GetSourceLine, COMDAT
; _this$ = ecx

; 41   : 	INT32			GetSourceLine()							{	return m_nSourceLine;		};

  00000	8b 01		 mov	 eax, DWORD PTR [ecx]
  00002	c3		 ret	 0
?GetSourceLine@i3MapFileParser@@QAEHXZ ENDP		; i3MapFileParser::GetSourceLine
_TEXT	ENDS
; Function compile flags: /Ogtp
; File E:\Proyectos\JuegosOnlineproyectos\PB\pbblow\Piercing Blow Remake\i3Server\src\i3Base\i3MapFileParser.cpp
;	COMDAT ?GetHexMult@i3MapFileParser@@QAEHH@Z
_TEXT	SEGMENT
_nMult$ = 8						; size = 4
?GetHexMult@i3MapFileParser@@QAEHH@Z PROC		; i3MapFileParser::GetHexMult, COMDAT
; _this$ = ecx

; 379  : {

  00000	55		 push	 ebp
  00001	8b ec		 mov	 ebp, esp

; 380  : 	if(nMult == 0)		return 1;

  00003	8b 45 08	 mov	 eax, DWORD PTR _nMult$[ebp]
  00006	85 c0		 test	 eax, eax
  00008	75 09		 jne	 SHORT $LN2@GetHexMult
  0000a	b8 01 00 00 00	 mov	 eax, 1

; 383  : }

  0000f	5d		 pop	 ebp
  00010	c2 04 00	 ret	 4
$LN2@GetHexMult:

; 381  : 
; 382  : 	return 16 * GetHexMult( nMult - 1 );

  00013	48		 dec	 eax
  00014	50		 push	 eax
  00015	e8 00 00 00 00	 call	 ?GetHexMult@i3MapFileParser@@QAEHH@Z ; i3MapFileParser::GetHexMult
  0001a	c1 e0 04	 shl	 eax, 4

; 383  : }

  0001d	5d		 pop	 ebp
  0001e	c2 04 00	 ret	 4
?GetHexMult@i3MapFileParser@@QAEHH@Z ENDP		; i3MapFileParser::GetHexMult
_TEXT	ENDS
; Function compile flags: /Ogtp
; File E:\Proyectos\JuegosOnlineproyectos\PB\pbblow\Piercing Blow Remake\i3Server\src\i3Base\i3MapFileParser.cpp
;	COMDAT ?GetHexConvert@i3MapFileParser@@QAEHD@Z
_TEXT	SEGMENT
_cHex$ = 8						; size = 1
?GetHexConvert@i3MapFileParser@@QAEHD@Z PROC		; i3MapFileParser::GetHexConvert, COMDAT
; _this$ = ecx

; 361  : {

  00000	55		 push	 ebp
  00001	8b ec		 mov	 ebp, esp

; 362  : 	if('a' <= cHex && cHex <= 'f') 

  00003	8a 4d 08	 mov	 cl, BYTE PTR _cHex$[ebp]
  00006	8d 41 9f	 lea	 eax, DWORD PTR [ecx-97]
  00009	3c 05		 cmp	 al, 5
  0000b	77 0a		 ja	 SHORT $LN2@GetHexConv

; 363  : 		return (cHex - 'a') + 10;

  0000d	0f be c1	 movsx	 eax, cl
  00010	83 e8 57	 sub	 eax, 87			; 00000057H

; 372  : }

  00013	5d		 pop	 ebp
  00014	c2 04 00	 ret	 4
$LN2@GetHexConv:

; 364  : 
; 365  : 	else if('A' <= cHex && cHex <= 'F') 

  00017	8d 41 bf	 lea	 eax, DWORD PTR [ecx-65]
  0001a	3c 05		 cmp	 al, 5
  0001c	77 0a		 ja	 SHORT $LN4@GetHexConv

; 366  : 		return (cHex - 'A') + 10;

  0001e	0f be c1	 movsx	 eax, cl
  00021	83 e8 37	 sub	 eax, 55			; 00000037H

; 372  : }

  00024	5d		 pop	 ebp
  00025	c2 04 00	 ret	 4
$LN4@GetHexConv:

; 367  : 
; 368  : 	else if('0' <= cHex && cHex <= '9')

  00028	8d 41 d0	 lea	 eax, DWORD PTR [ecx-48]
  0002b	3c 09		 cmp	 al, 9
  0002d	77 0a		 ja	 SHORT $LN6@GetHexConv

; 369  : 		return cHex - '0';

  0002f	0f be c1	 movsx	 eax, cl
  00032	83 e8 30	 sub	 eax, 48			; 00000030H

; 372  : }

  00035	5d		 pop	 ebp
  00036	c2 04 00	 ret	 4
$LN6@GetHexConv:

; 370  : 
; 371  : 	return 0;

  00039	33 c0		 xor	 eax, eax

; 372  : }

  0003b	5d		 pop	 ebp
  0003c	c2 04 00	 ret	 4
?GetHexConvert@i3MapFileParser@@QAEHD@Z ENDP		; i3MapFileParser::GetHexConvert
_TEXT	ENDS
; Function compile flags: /Ogtp
; File E:\Proyectos\JuegosOnlineproyectos\PB\pbblow\Piercing Blow Remake\i3Server\src\i3Base\i3MapFileParser.cpp
;	COMDAT ?GetHexValue@i3MapFileParser@@QAEKPBD@Z
_TEXT	SEGMENT
_this$1$ = -8						; size = 4
_nHexSum$1$ = -4					; size = 4
_pszHex$ = 8						; size = 4
?GetHexValue@i3MapFileParser@@QAEKPBD@Z PROC		; i3MapFileParser::GetHexValue, COMDAT
; _this$ = ecx

; 340  : {

  00000	55		 push	 ebp
  00001	8b ec		 mov	 ebp, esp
  00003	83 ec 08	 sub	 esp, 8
  00006	53		 push	 ebx
  00007	56		 push	 esi

; 341  : 	INT32	i = 0, nHexSum = 0;
; 342  :  
; 343  : 	while( *(pszHex+1) != '\0' && *(pszHex+1) ) pszHex++;

  00008	8b 75 08	 mov	 esi, DWORD PTR _pszHex$[ebp]
  0000b	33 d2		 xor	 edx, edx
  0000d	33 db		 xor	 ebx, ebx
  0000f	89 4d f8	 mov	 DWORD PTR _this$1$[ebp], ecx
  00012	57		 push	 edi
  00013	89 55 fc	 mov	 DWORD PTR _nHexSum$1$[ebp], edx
  00016	38 56 01	 cmp	 BYTE PTR [esi+1], dl
  00019	74 06		 je	 SHORT $LN29@GetHexValu
$LN39@GetHexValu:
  0001b	46		 inc	 esi
  0001c	38 56 01	 cmp	 BYTE PTR [esi+1], dl
  0001f	75 fa		 jne	 SHORT $LN39@GetHexValu
$LN29@GetHexValu:
  00021	8a 06		 mov	 al, BYTE PTR [esi]
$LL6@GetHexValu:

; 362  : 	if('a' <= cHex && cHex <= 'f') 

  00023	8d 48 9f	 lea	 ecx, DWORD PTR [eax-97]
  00026	80 f9 05	 cmp	 cl, 5
  00029	77 08		 ja	 SHORT $LN26@GetHexValu

; 363  : 		return (cHex - 'a') + 10;

  0002b	0f be f8	 movsx	 edi, al
  0002e	83 c7 a9	 add	 edi, -87		; ffffffa9H
  00031	eb 22		 jmp	 SHORT $LN8@GetHexValu
$LN26@GetHexValu:

; 364  : 
; 365  : 	else if('A' <= cHex && cHex <= 'F') 

  00033	8d 48 bf	 lea	 ecx, DWORD PTR [eax-65]
  00036	80 f9 05	 cmp	 cl, 5
  00039	77 08		 ja	 SHORT $LN11@GetHexValu

; 366  : 		return (cHex - 'A') + 10;

  0003b	0f be f8	 movsx	 edi, al
  0003e	83 c7 c9	 add	 edi, -55		; ffffffc9H
  00041	eb 12		 jmp	 SHORT $LN8@GetHexValu
$LN11@GetHexValu:

; 367  : 
; 368  : 	else if('0' <= cHex && cHex <= '9')

  00043	8d 48 d0	 lea	 ecx, DWORD PTR [eax-48]
  00046	80 f9 09	 cmp	 cl, 9
  00049	77 08		 ja	 SHORT $LN13@GetHexValu

; 369  : 		return cHex - '0';

  0004b	0f be f8	 movsx	 edi, al
  0004e	83 c7 d0	 add	 edi, -48		; ffffffd0H
  00051	eb 02		 jmp	 SHORT $LN8@GetHexValu
$LN13@GetHexValu:

; 370  : 
; 371  : 	return 0;

  00053	33 ff		 xor	 edi, edi
$LN8@GetHexValu:

; 380  : 	if(nMult == 0)		return 1;

  00055	85 db		 test	 ebx, ebx
  00057	75 05		 jne	 SHORT $LN16@GetHexValu
  00059	8d 43 01	 lea	 eax, DWORD PTR [ebx+1]
  0005c	eb 12		 jmp	 SHORT $LN15@GetHexValu
$LN16@GetHexValu:

; 381  : 
; 382  : 	return 16 * GetHexMult( nMult - 1 );

  0005e	8b 4d f8	 mov	 ecx, DWORD PTR _this$1$[ebp]
  00061	8d 43 ff	 lea	 eax, DWORD PTR [ebx-1]
  00064	50		 push	 eax
  00065	e8 00 00 00 00	 call	 ?GetHexMult@i3MapFileParser@@QAEHH@Z ; i3MapFileParser::GetHexMult
  0006a	8b 55 fc	 mov	 edx, DWORD PTR _nHexSum$1$[ebp]
  0006d	c1 e0 04	 shl	 eax, 4
$LN15@GetHexValu:

; 344  : 	
; 345  : 	do {
; 346  : 		nHexSum += GetHexConvert( *pszHex ) * GetHexMult( i );		

  00070	0f af c7	 imul	 eax, edi

; 347  : 		i++;
; 348  : 	} while( *(--pszHex) );

  00073	4e		 dec	 esi
  00074	43		 inc	 ebx
  00075	03 d0		 add	 edx, eax
  00077	8a 06		 mov	 al, BYTE PTR [esi]
  00079	89 55 fc	 mov	 DWORD PTR _nHexSum$1$[ebp], edx
  0007c	84 c0		 test	 al, al
  0007e	75 a3		 jne	 SHORT $LL6@GetHexValu
  00080	5f		 pop	 edi
  00081	5e		 pop	 esi
  00082	5b		 pop	 ebx

; 349  : /*
; 350  : 	for( INT32 i = nHexLen - 1 ; i >= 0 ; i-- )
; 351  : 		nHexSum += GetHexConvert( pszHex[i] ) * GetHexMult( (nHexLen - 1) - i );
; 352  : */
; 353  : 	return nHexSum;

  00083	8b c2		 mov	 eax, edx

; 354  : }

  00085	8b e5		 mov	 esp, ebp
  00087	5d		 pop	 ebp
  00088	c2 04 00	 ret	 4
?GetHexValue@i3MapFileParser@@QAEKPBD@Z ENDP		; i3MapFileParser::GetHexValue
_TEXT	ENDS
; Function compile flags: /Ogtp
; File E:\Proyectos\JuegosOnlineproyectos\PB\pbblow\Piercing Blow Remake\i3Server\src\i3Base\i3MapFileParser.cpp
;	COMDAT ?GetObjectName@i3MapFileParser@@QAEXPAD0@Z
_TEXT	SEGMENT
_pszPreLineSave$ = 8					; size = 4
_pszClassName$ = 12					; size = 4
?GetObjectName@i3MapFileParser@@QAEXPAD0@Z PROC		; i3MapFileParser::GetObjectName, COMDAT
; _this$ = ecx

; 318  : {

  00000	55		 push	 ebp
  00001	8b ec		 mov	 ebp, esp
  00003	56		 push	 esi
  00004	8b 75 08	 mov	 esi, DWORD PTR _pszPreLineSave$[ebp]

; 319  : 	INT32 nLen = i3String::Length( pszPreLineSave );

  00007	56		 push	 esi
  00008	e8 00 00 00 00	 call	 ?Length@i3String@@YAHPBD@Z ; i3String::Length
  0000d	83 c4 04	 add	 esp, 4

; 320  : 	INT32 nStart;
; 321  : 
; 322  : 	nStart = nLen - 1;
; 323  : 	while(pszPreLineSave[ nStart ] != ' ') {

  00010	80 7c 30 ff 20	 cmp	 BYTE PTR [eax+esi-1], 32 ; 00000020H
  00015	8d 50 ff	 lea	 edx, DWORD PTR [eax-1]
  00018	74 10		 je	 SHORT $LN3@GetObjectN
  0001a	8d 9b 00 00 00
	00		 npad	 6
$LL2@GetObjectN:

; 324  : 		nStart--;

  00020	8b ca		 mov	 ecx, edx
  00022	4a		 dec	 edx
  00023	80 7c 31 ff 20	 cmp	 BYTE PTR [ecx+esi-1], 32 ; 00000020H
  00028	75 f6		 jne	 SHORT $LL2@GetObjectN
$LN3@GetObjectN:

; 325  : 	}
; 326  : 
; 327  : 	nStart++;

  0002a	42		 inc	 edx

; 328  : 
; 329  : 	i3String::NCopy( pszClassName, pszPreLineSave + nStart, nLen - 1 - nStart );

  0002b	2b c2		 sub	 eax, edx
  0002d	48		 dec	 eax
  0002e	50		 push	 eax
  0002f	8d 04 32	 lea	 eax, DWORD PTR [edx+esi]
  00032	8b 75 0c	 mov	 esi, DWORD PTR _pszClassName$[ebp]
  00035	50		 push	 eax
  00036	56		 push	 esi
  00037	e8 00 00 00 00	 call	 ?NCopy@i3String@@YAXPADPBDH@Z ; i3String::NCopy
  0003c	83 c4 0c	 add	 esp, 12			; 0000000cH

; 330  : 
; 331  : 	while( *pszClassName ) pszClassName++;

  0003f	80 3e 00	 cmp	 BYTE PTR [esi], 0
  00042	74 09		 je	 SHORT $LN17@GetObjectN
$LL4@GetObjectN:
  00044	80 7e 01 00	 cmp	 BYTE PTR [esi+1], 0
  00048	8d 76 01	 lea	 esi, DWORD PTR [esi+1]
  0004b	75 f7		 jne	 SHORT $LL4@GetObjectN
$LN17@GetObjectN:

; 332  : 	*pszClassName = '\0';
; 333  : }

  0004d	c6 06 00	 mov	 BYTE PTR [esi], 0
  00050	5e		 pop	 esi
  00051	5d		 pop	 ebp
  00052	c2 08 00	 ret	 8
?GetObjectName@i3MapFileParser@@QAEXPAD0@Z ENDP		; i3MapFileParser::GetObjectName
_TEXT	ENDS
; Function compile flags: /Ogtp
; File E:\Proyectos\JuegosOnlineproyectos\PB\pbblow\Piercing Blow Remake\i3Server\src\i3Base\i3MapFileParser.cpp
;	COMDAT ?GetFunctionName@i3MapFileParser@@QAEXPAD0@Z
_TEXT	SEGMENT
_pszLine$ = 8						; size = 4
_pszFunctionName$ = 12					; size = 4
?GetFunctionName@i3MapFileParser@@QAEXPAD0@Z PROC	; i3MapFileParser::GetFunctionName, COMDAT
; _this$ = ecx

; 297  : {

  00000	55		 push	 ebp
  00001	8b ec		 mov	 ebp, esp

; 298  : 	pszFunctionName;
; 299  : 
; 300  : 	INT32 i = 0;
; 301  : 	while( *pszLine != '\0' ) {

  00003	8b 45 08	 mov	 eax, DWORD PTR _pszLine$[ebp]
  00006	8a 10		 mov	 dl, BYTE PTR [eax]
  00008	84 d2		 test	 dl, dl
  0000a	74 16		 je	 SHORT $LN3@GetFunctio
  0000c	8d 64 24 00	 npad	 4
$LL2@GetFunctio:

; 302  : 		if( *pszLine == '@' || *pszLine == ' ' ) {

  00010	80 fa 40	 cmp	 dl, 64			; 00000040H
  00013	74 22		 je	 SHORT $LN13@GetFunctio
  00015	80 38 20	 cmp	 BYTE PTR [eax], 32	; 00000020H
  00018	74 1d		 je	 SHORT $LN13@GetFunctio

; 306  : 			return;
; 307  : 		}
; 308  : 		pszLine++;

  0001a	8a 50 01	 mov	 dl, BYTE PTR [eax+1]
  0001d	40		 inc	 eax
  0001e	84 d2		 test	 dl, dl
  00020	75 ee		 jne	 SHORT $LL2@GetFunctio
$LN3@GetFunctio:

; 309  : 	}
; 310  : 	strcpy( m_szFunctionName, pszLine );

  00022	8d 51 04	 lea	 edx, DWORD PTR [ecx+4]
$LL9@GetFunctio:
  00025	8a 08		 mov	 cl, BYTE PTR [eax]
  00027	8d 40 01	 lea	 eax, DWORD PTR [eax+1]
  0002a	88 0a		 mov	 BYTE PTR [edx], cl
  0002c	8d 52 01	 lea	 edx, DWORD PTR [edx+1]
  0002f	84 c9		 test	 cl, cl
  00031	75 f2		 jne	 SHORT $LL9@GetFunctio

; 311  : }

  00033	5d		 pop	 ebp
  00034	c2 08 00	 ret	 8
$LN13@GetFunctio:
  00037	56		 push	 esi

; 303  : 			i3String::NCopy( pszFunctionName, pszLine, i );

  00038	8b 75 0c	 mov	 esi, DWORD PTR _pszFunctionName$[ebp]
  0003b	6a 00		 push	 0
  0003d	50		 push	 eax
  0003e	56		 push	 esi
  0003f	e8 00 00 00 00	 call	 ?NCopy@i3String@@YAXPADPBDH@Z ; i3String::NCopy
  00044	83 c4 0c	 add	 esp, 12			; 0000000cH

; 304  : 			while( *pszFunctionName ) pszFunctionName++;

  00047	80 3e 00	 cmp	 BYTE PTR [esi], 0
  0004a	74 0a		 je	 SHORT $LN5@GetFunctio
  0004c	8d 64 24 00	 npad	 4
$LL4@GetFunctio:
  00050	46		 inc	 esi
  00051	80 3e 00	 cmp	 BYTE PTR [esi], 0
  00054	75 fa		 jne	 SHORT $LL4@GetFunctio
$LN5@GetFunctio:

; 305  : 			*pszFunctionName = '\0';

  00056	c6 06 00	 mov	 BYTE PTR [esi], 0
  00059	5e		 pop	 esi

; 311  : }

  0005a	5d		 pop	 ebp
  0005b	c2 08 00	 ret	 8
?GetFunctionName@i3MapFileParser@@QAEXPAD0@Z ENDP	; i3MapFileParser::GetFunctionName
_TEXT	ENDS
; Function compile flags: /Ogtp
; File E:\Proyectos\JuegosOnlineproyectos\PB\pbblow\Piercing Blow Remake\i3Server\src\i3Base\i3MapFileParser.cpp
;	COMDAT ?GetLineReal@i3MapFileParser@@QAEHPAU_iobuf@@KPBDPAH@Z
_TEXT	SEGMENT
_fp$GSCopy$1$ = -1580					; size = 4
_pnLine$GSCopy$1$ = -1576				; size = 4
_bLink$1$ = -1572					; size = 4
_this$GSCopy$1$ = -1568					; size = 4
_pszAddress$GSCopy$1$ = -1564				; size = 4
_nTemp$1$ = -1560					; size = 4
_nLine$ = -1556						; size = 16
_szLine$ = -1540					; size = 1024
_szAddressTemp$1 = -516					; size = 256
_szAddress$ = -260					; size = 256
__$ArrayPad$ = -4					; size = 4
_fp$ = 8						; size = 4
_dwAddress$ = 12					; size = 4
_pszAddress$ = 16					; size = 4
_pnLine$ = 20						; size = 4
?GetLineReal@i3MapFileParser@@QAEHPAU_iobuf@@KPBDPAH@Z PROC ; i3MapFileParser::GetLineReal, COMDAT
; _this$ = ecx

; 249  : {

  00000	55		 push	 ebp
  00001	8b ec		 mov	 ebp, esp
  00003	81 ec 2c 06 00
	00		 sub	 esp, 1580		; 0000062cH
  00009	a1 00 00 00 00	 mov	 eax, DWORD PTR ___security_cookie
  0000e	33 c5		 xor	 eax, ebp
  00010	89 45 fc	 mov	 DWORD PTR __$ArrayPad$[ebp], eax
  00013	8b 45 10	 mov	 eax, DWORD PTR _pszAddress$[ebp]
  00016	53		 push	 ebx
  00017	56		 push	 esi
  00018	89 85 e4 f9 ff
	ff		 mov	 DWORD PTR _pszAddress$GSCopy$1$[ebp], eax
  0001e	8b 45 14	 mov	 eax, DWORD PTR _pnLine$[ebp]
  00021	57		 push	 edi
  00022	8b 7d 08	 mov	 edi, DWORD PTR _fp$[ebp]
  00025	89 85 d8 f9 ff
	ff		 mov	 DWORD PTR _pnLine$GSCopy$1$[ebp], eax

; 250  : 	char	szLine[1024];
; 251  : 	INT32	nLine[4] = {-1, };

  0002b	33 c0		 xor	 eax, eax

; 252  : 	char	szAddress[4][64] = {0, };

  0002d	68 00 01 00 00	 push	 256			; 00000100H
  00032	50		 push	 eax
  00033	89 85 f0 f9 ff
	ff		 mov	 DWORD PTR _nLine$[ebp+4], eax
  00039	89 85 f4 f9 ff
	ff		 mov	 DWORD PTR _nLine$[ebp+8], eax
  0003f	89 85 f8 f9 ff
	ff		 mov	 DWORD PTR _nLine$[ebp+12], eax
  00045	8d 85 fc fe ff
	ff		 lea	 eax, DWORD PTR _szAddress$[ebp]
  0004b	50		 push	 eax
  0004c	89 8d e0 f9 ff
	ff		 mov	 DWORD PTR _this$GSCopy$1$[ebp], ecx
  00052	89 bd d4 f9 ff
	ff		 mov	 DWORD PTR _fp$GSCopy$1$[ebp], edi
  00058	c7 85 ec f9 ff
	ff ff ff ff ff	 mov	 DWORD PTR _nLine$[ebp], -1
  00062	e8 00 00 00 00	 call	 _memset

; 253  : 	BOOL	bLink = FALSE;
; 254  : 	INT32	nTemp = 0;

  00067	33 f6		 xor	 esi, esi
  00069	33 db		 xor	 ebx, ebx

; 255  : 	
; 256  : 	while ( !feof(fp) )

  0006b	57		 push	 edi
  0006c	89 b5 e8 f9 ff
	ff		 mov	 DWORD PTR _nTemp$1$[ebp], esi
  00072	e8 00 00 00 00	 call	 _feof
  00077	83 c4 10	 add	 esp, 16			; 00000010H
  0007a	85 c0		 test	 eax, eax
  0007c	0f 85 5f 01 00
	00		 jne	 $LN27@GetLineRea
$LL2@GetLineRea:

; 257  : 	{
; 258  : 		fgets(szLine, 1024, fp);

  00082	57		 push	 edi
  00083	8d 85 fc f9 ff
	ff		 lea	 eax, DWORD PTR _szLine$[ebp]
  00089	68 00 04 00 00	 push	 1024			; 00000400H
  0008e	50		 push	 eax
  0008f	e8 00 00 00 00	 call	 _fgets

; 259  : 
; 260  : 		if( i3String::Length(szLine) > 1) {

  00094	8d 85 fc f9 ff
	ff		 lea	 eax, DWORD PTR _szLine$[ebp]
  0009a	50		 push	 eax
  0009b	e8 00 00 00 00	 call	 ?Length@i3String@@YAHPBD@Z ; i3String::Length
  000a0	83 c4 10	 add	 esp, 16			; 00000010H
  000a3	83 f8 01	 cmp	 eax, 1
  000a6	0f 8e 18 01 00
	00		 jle	 $LN7@GetLineRea

; 261  : 			// 라인씩 검사하는 방법으로..
; 262  : 			if( -1 < i3String::Contain( szLine, "Line numbers for" ) )	return FALSE;

  000ac	8d 85 fc f9 ff
	ff		 lea	 eax, DWORD PTR _szLine$[ebp]
  000b2	68 00 00 00 00	 push	 OFFSET ??_C@_0BB@PJOHBANM@Line?5numbers?5for@
  000b7	50		 push	 eax
  000b8	e8 00 00 00 00	 call	 ?Contain@i3String@@YAHPBD0@Z ; i3String::Contain
  000bd	83 c4 08	 add	 esp, 8
  000c0	83 f8 ff	 cmp	 eax, -1
  000c3	0f 8f 18 01 00
	00		 jg	 $LN27@GetLineRea

; 263  : 
; 264  : 			if( -1 < i3String::Contain( szLine, pszAddress ))			bLink = TRUE;

  000c9	ff b5 e4 f9 ff
	ff		 push	 DWORD PTR _pszAddress$GSCopy$1$[ebp]
  000cf	8d 85 fc f9 ff
	ff		 lea	 eax, DWORD PTR _szLine$[ebp]
  000d5	50		 push	 eax
  000d6	e8 00 00 00 00	 call	 ?Contain@i3String@@YAHPBD0@Z ; i3String::Contain
  000db	83 f8 ff	 cmp	 eax, -1
  000de	b8 01 00 00 00	 mov	 eax, 1
  000e3	0f 4f d8	 cmovg	 ebx, eax

; 265  : 
; 266  : 			sscanf( szLine, "%d %s %d %s %d %s %d %s", 

  000e6	8d 45 bc	 lea	 eax, DWORD PTR _szAddress$[ebp+192]
  000e9	50		 push	 eax
  000ea	8d 85 f8 f9 ff
	ff		 lea	 eax, DWORD PTR _nLine$[ebp+12]
  000f0	89 9d dc f9 ff
	ff		 mov	 DWORD PTR _bLink$1$[ebp], ebx
  000f6	50		 push	 eax
  000f7	8d 85 7c ff ff
	ff		 lea	 eax, DWORD PTR _szAddress$[ebp+128]
  000fd	50		 push	 eax
  000fe	8d 85 f4 f9 ff
	ff		 lea	 eax, DWORD PTR _nLine$[ebp+8]
  00104	50		 push	 eax
  00105	8d 85 3c ff ff
	ff		 lea	 eax, DWORD PTR _szAddress$[ebp+64]
  0010b	50		 push	 eax
  0010c	8d 85 f0 f9 ff
	ff		 lea	 eax, DWORD PTR _nLine$[ebp+4]
  00112	50		 push	 eax
  00113	8d 85 fc fe ff
	ff		 lea	 eax, DWORD PTR _szAddress$[ebp]
  00119	50		 push	 eax
  0011a	8d 85 ec f9 ff
	ff		 lea	 eax, DWORD PTR _nLine$[ebp]
  00120	50		 push	 eax
  00121	8d 85 fc f9 ff
	ff		 lea	 eax, DWORD PTR _szLine$[ebp]
  00127	68 00 00 00 00	 push	 OFFSET ??_C@_0BI@CMMDNKC@?$CFd?5?$CFs?5?$CFd?5?$CFs?5?$CFd?5?$CFs?5?$CFd?5?$CFs@
  0012c	50		 push	 eax
  0012d	e8 00 00 00 00	 call	 _sscanf
  00132	83 c4 30	 add	 esp, 48			; 00000030H

; 267  : 				&nLine[0], szAddress[0], &nLine[1], szAddress[1], &nLine[2], szAddress[2], &nLine[3], szAddress[3] );
; 268  : 
; 269  : 			for( INT32 i = 0 ; i < 4 ; i++ ) {

  00135	33 f6		 xor	 esi, esi
  00137	eb 07 8d a4 24
	00 00 00 00	 npad	 9
$LL6@GetLineRea:

; 270  : 				if(nLine[i] > -1 ) {

  00140	83 bc b5 ec f9
	ff ff ff	 cmp	 DWORD PTR _nLine$[ebp+esi*4], -1
  00148	7e 66		 jle	 SHORT $LN4@GetLineRea

; 271  : 					if( bLink) {

  0014a	85 db		 test	 ebx, ebx
  0014c	74 53		 je	 SHORT $LN13@GetLineRea

; 272  : 						char	szAddressTemp[4][64] = {0, };

  0014e	68 00 01 00 00	 push	 256			; 00000100H
  00153	8d 85 fc fd ff
	ff		 lea	 eax, DWORD PTR _szAddressTemp$1[ebp]
  00159	6a 00		 push	 0
  0015b	50		 push	 eax
  0015c	e8 00 00 00 00	 call	 _memset

; 273  : 						i3String::NCopy( szAddressTemp[i], szAddress[i] + 5, 8 );

  00161	8b de		 mov	 ebx, esi
  00163	8d 85 01 ff ff
	ff		 lea	 eax, DWORD PTR _szAddress$[ebp+5]
  00169	c1 e3 06	 shl	 ebx, 6
  0016c	8d bd fc fd ff
	ff		 lea	 edi, DWORD PTR _szAddressTemp$1[ebp]
  00172	6a 08		 push	 8
  00174	03 c3		 add	 eax, ebx
  00176	03 fb		 add	 edi, ebx
  00178	50		 push	 eax
  00179	57		 push	 edi
  0017a	e8 00 00 00 00	 call	 ?NCopy@i3String@@YAXPADPBDH@Z ; i3String::NCopy

; 274  : 						szAddressTemp[i][8] = '\0';
; 275  : 
; 276  : 						DWORD dwHex = GetHexValue( szAddressTemp[i] );

  0017f	8b 8d e0 f9 ff
	ff		 mov	 ecx, DWORD PTR _this$GSCopy$1$[ebp]
  00185	83 c4 18	 add	 esp, 24			; 00000018H
  00188	c6 84 1d 04 fe
	ff ff 00	 mov	 BYTE PTR _szAddressTemp$1[ebp+ebx+8], 0
  00190	57		 push	 edi
  00191	e8 00 00 00 00	 call	 ?GetHexValue@i3MapFileParser@@QAEKPBD@Z ; i3MapFileParser::GetHexValue

; 277  : 
; 278  : 						if( dwAddress <= dwHex ) {	// 이부분이 라인부분				

  00196	39 45 0c	 cmp	 DWORD PTR _dwAddress$[ebp], eax
  00199	76 5b		 jbe	 SHORT $LN18@GetLineRea
  0019b	8b 9d dc f9 ff
	ff		 mov	 ebx, DWORD PTR _bLink$1$[ebp]
$LN13@GetLineRea:

; 279  : 							return TRUE;
; 280  : 						}
; 281  : 					}
; 282  : 					*pnLine = nLine[i];

  001a1	8b 8d d8 f9 ff
	ff		 mov	 ecx, DWORD PTR _pnLine$GSCopy$1$[ebp]
  001a7	8b 84 b5 ec f9
	ff ff		 mov	 eax, DWORD PTR _nLine$[ebp+esi*4]
  001ae	89 01		 mov	 DWORD PTR [ecx], eax
$LN4@GetLineRea:

; 267  : 				&nLine[0], szAddress[0], &nLine[1], szAddress[1], &nLine[2], szAddress[2], &nLine[3], szAddress[3] );
; 268  : 
; 269  : 			for( INT32 i = 0 ; i < 4 ; i++ ) {

  001b0	46		 inc	 esi
  001b1	83 fe 04	 cmp	 esi, 4
  001b4	7c 8a		 jl	 SHORT $LL6@GetLineRea

; 283  : 				}
; 284  : 			}
; 285  : 		}

  001b6	8b b5 e8 f9 ff
	ff		 mov	 esi, DWORD PTR _nTemp$1$[ebp]
  001bc	8b bd d4 f9 ff
	ff		 mov	 edi, DWORD PTR _fp$GSCopy$1$[ebp]
  001c2	eb 07		 jmp	 SHORT $LN8@GetLineRea
$LN7@GetLineRea:

; 286  : 		else nTemp++;

  001c4	46		 inc	 esi
  001c5	89 b5 e8 f9 ff
	ff		 mov	 DWORD PTR _nTemp$1$[ebp], esi
$LN8@GetLineRea:

; 287  : 
; 288  : 		if(nTemp >= 2) return FALSE;

  001cb	83 fe 02	 cmp	 esi, 2
  001ce	7d 11		 jge	 SHORT $LN27@GetLineRea

; 255  : 	
; 256  : 	while ( !feof(fp) )

  001d0	57		 push	 edi
  001d1	e8 00 00 00 00	 call	 _feof
  001d6	83 c4 04	 add	 esp, 4
  001d9	85 c0		 test	 eax, eax
  001db	0f 84 a1 fe ff
	ff		 je	 $LL2@GetLineRea
$LN27@GetLineRea:
  001e1	5f		 pop	 edi

; 289  : 	}
; 290  : 	return FALSE;
; 291  : }

  001e2	5e		 pop	 esi
  001e3	33 c0		 xor	 eax, eax
  001e5	5b		 pop	 ebx
  001e6	8b 4d fc	 mov	 ecx, DWORD PTR __$ArrayPad$[ebp]
  001e9	33 cd		 xor	 ecx, ebp
  001eb	e8 00 00 00 00	 call	 @__security_check_cookie@4
  001f0	8b e5		 mov	 esp, ebp
  001f2	5d		 pop	 ebp
  001f3	c2 10 00	 ret	 16			; 00000010H
$LN18@GetLineRea:
  001f6	8b 4d fc	 mov	 ecx, DWORD PTR __$ArrayPad$[ebp]
  001f9	b8 01 00 00 00	 mov	 eax, 1
  001fe	5f		 pop	 edi
  001ff	5e		 pop	 esi
  00200	33 cd		 xor	 ecx, ebp
  00202	5b		 pop	 ebx
  00203	e8 00 00 00 00	 call	 @__security_check_cookie@4
  00208	8b e5		 mov	 esp, ebp
  0020a	5d		 pop	 ebp
  0020b	c2 10 00	 ret	 16			; 00000010H
?GetLineReal@i3MapFileParser@@QAEHPAU_iobuf@@KPBDPAH@Z ENDP ; i3MapFileParser::GetLineReal
_TEXT	ENDS
; Function compile flags: /Ogtp
; File E:\Proyectos\JuegosOnlineproyectos\PB\pbblow\Piercing Blow Remake\i3Server\src\i3Base\i3MapFileParser.cpp
;	COMDAT ?GetLineClassName@i3MapFileParser@@QAEXPBDPAD@Z
_TEXT	SEGMENT
_szLine$ = 8						; size = 4
_pszClassName$ = 12					; size = 4
?GetLineClassName@i3MapFileParser@@QAEXPBDPAD@Z PROC	; i3MapFileParser::GetLineClassName, COMDAT
; _this$ = ecx

; 219  : {

  00000	55		 push	 ebp
  00001	8b ec		 mov	 ebp, esp
  00003	8b 55 08	 mov	 edx, DWORD PTR _szLine$[ebp]

; 220  : 	INT32 i = 0, nStart = 0, nEnd = 0;

  00006	33 c0		 xor	 eax, eax
  00008	56		 push	 esi
  00009	57		 push	 edi
  0000a	33 f6		 xor	 esi, esi
  0000c	33 ff		 xor	 edi, edi

; 221  : 
; 222  : 	while( szLine[i] != '\0') {		

  0000e	38 02		 cmp	 BYTE PTR [edx], al
  00010	74 1d		 je	 SHORT $LN3@GetLineCla
$LL2@GetLineCla:

; 223  : 
; 224  : 		if( szLine[i] == '\\' ) {

  00012	8a 0c 02	 mov	 cl, BYTE PTR [edx+eax]
  00015	80 f9 5c	 cmp	 cl, 92			; 0000005cH
  00018	75 05		 jne	 SHORT $LN6@GetLineCla

; 225  : 			nStart = i + 1;

  0001a	40		 inc	 eax
  0001b	8b f0		 mov	 esi, eax

; 226  : 		}

  0001d	eb 06		 jmp	 SHORT $LN8@GetLineCla
$LN6@GetLineCla:

; 227  : 		else if( szLine[i] == ')' ) {

  0001f	80 f9 29	 cmp	 cl, 41			; 00000029H
  00022	74 09		 je	 SHORT $LN12@GetLineCla
  00024	40		 inc	 eax
$LN8@GetLineCla:

; 221  : 
; 222  : 	while( szLine[i] != '\0') {		

  00025	80 3c 02 00	 cmp	 BYTE PTR [edx+eax], 0
  00029	75 e7		 jne	 SHORT $LL2@GetLineCla

; 227  : 		else if( szLine[i] == ')' ) {

  0002b	eb 02		 jmp	 SHORT $LN3@GetLineCla
$LN12@GetLineCla:

; 228  : 			nEnd = i;

  0002d	8b f8		 mov	 edi, eax
$LN3@GetLineCla:

; 229  : 			break;
; 230  : 		}
; 231  : 		i++;
; 232  : 	}
; 233  : 
; 234  : 	//i3mem::FillZero( m_szClassName, sizeof(m_szClassName) );
; 235  : 	//i3String::NCopy( m_szClassName, szLine + nStart, nEnd - nStart);
; 236  : 
; 237  : 	i3String::NCopy( pszClassName, szLine + nStart, nEnd - nStart);

  0002f	2b fe		 sub	 edi, esi
  00031	8d 04 16	 lea	 eax, DWORD PTR [esi+edx]
  00034	8b 75 0c	 mov	 esi, DWORD PTR _pszClassName$[ebp]
  00037	57		 push	 edi
  00038	50		 push	 eax
  00039	56		 push	 esi
  0003a	e8 00 00 00 00	 call	 ?NCopy@i3String@@YAXPADPBDH@Z ; i3String::NCopy
  0003f	83 c4 0c	 add	 esp, 12			; 0000000cH

; 238  : 	while( *pszClassName ) pszClassName++;

  00042	80 3e 00	 cmp	 BYTE PTR [esi], 0
  00045	74 09		 je	 SHORT $LN21@GetLineCla
$LL4@GetLineCla:
  00047	80 7e 01 00	 cmp	 BYTE PTR [esi+1], 0
  0004b	8d 76 01	 lea	 esi, DWORD PTR [esi+1]
  0004e	75 f7		 jne	 SHORT $LL4@GetLineCla
$LN21@GetLineCla:
  00050	5f		 pop	 edi

; 239  : 	*pszClassName = '\0';
; 240  : }

  00051	c6 06 00	 mov	 BYTE PTR [esi], 0
  00054	5e		 pop	 esi
  00055	5d		 pop	 ebp
  00056	c2 08 00	 ret	 8
?GetLineClassName@i3MapFileParser@@QAEXPBDPAD@Z ENDP	; i3MapFileParser::GetLineClassName
_TEXT	ENDS
; Function compile flags: /Ogtp
; File E:\Proyectos\JuegosOnlineproyectos\PB\pbblow\Piercing Blow Remake\i3Server\src\i3Base\i3MapFileParser.cpp
;	COMDAT ?GetLineInfo@i3MapFileParser@@QAEHPAU_iobuf@@KPBD1PAHPAD@Z
_TEXT	SEGMENT
_pszAddress$GSCopy$1$ = -1040				; size = 4
_pnLine$GSCopy$1$ = -1036				; size = 4
_pszClassName$GSCopy$1$ = -1032				; size = 4
_szLine$ = -1028					; size = 1024
__$ArrayPad$ = -4					; size = 4
_fp$ = 8						; size = 4
_dwAddress$ = 12					; size = 4
_pObeName$ = 16						; size = 4
_pszAddress$ = 20					; size = 4
_pnLine$ = 24						; size = 4
_pszClassName$ = 28					; size = 4
?GetLineInfo@i3MapFileParser@@QAEHPAU_iobuf@@KPBD1PAHPAD@Z PROC ; i3MapFileParser::GetLineInfo, COMDAT
; _this$ = ecx

; 191  : {

  00000	55		 push	 ebp
  00001	8b ec		 mov	 ebp, esp
  00003	81 ec 10 04 00
	00		 sub	 esp, 1040		; 00000410H
  00009	a1 00 00 00 00	 mov	 eax, DWORD PTR ___security_cookie
  0000e	33 c5		 xor	 eax, ebp
  00010	89 45 fc	 mov	 DWORD PTR __$ArrayPad$[ebp], eax
  00013	8b 45 14	 mov	 eax, DWORD PTR _pszAddress$[ebp]
  00016	53		 push	 ebx
  00017	8b 5d 10	 mov	 ebx, DWORD PTR _pObeName$[ebp]
  0001a	56		 push	 esi
  0001b	8b 75 08	 mov	 esi, DWORD PTR _fp$[ebp]
  0001e	89 85 f0 fb ff
	ff		 mov	 DWORD PTR _pszAddress$GSCopy$1$[ebp], eax
  00024	8b 45 18	 mov	 eax, DWORD PTR _pnLine$[ebp]
  00027	57		 push	 edi
  00028	89 85 f4 fb ff
	ff		 mov	 DWORD PTR _pnLine$GSCopy$1$[ebp], eax
  0002e	8b f9		 mov	 edi, ecx
  00030	8b 45 1c	 mov	 eax, DWORD PTR _pszClassName$[ebp]

; 192  : 	char szLine[1024];
; 193  : 	// Line numbers for까지 포인터 이동
; 194  : 	while ( !feof(fp) )

  00033	56		 push	 esi
  00034	89 85 f8 fb ff
	ff		 mov	 DWORD PTR _pszClassName$GSCopy$1$[ebp], eax
  0003a	e8 00 00 00 00	 call	 _feof
  0003f	83 c4 04	 add	 esp, 4
  00042	85 c0		 test	 eax, eax
  00044	0f 85 82 00 00
	00		 jne	 $LN12@GetLineInf
  0004a	8d 9b 00 00 00
	00		 npad	 6
$LL2@GetLineInf:

; 195  : 	{
; 196  : 		fgets(szLine, 1024, fp);

  00050	56		 push	 esi
  00051	8d 85 fc fb ff
	ff		 lea	 eax, DWORD PTR _szLine$[ebp]
  00057	68 00 04 00 00	 push	 1024			; 00000400H
  0005c	50		 push	 eax
  0005d	e8 00 00 00 00	 call	 _fgets

; 197  : 
; 198  : 		if( -1 < i3String::Contain( szLine, "Line numbers for" ) ) {								// "Line numbers for"  단까지 뽑아낸다.

  00062	8d 85 fc fb ff
	ff		 lea	 eax, DWORD PTR _szLine$[ebp]
  00068	68 00 00 00 00	 push	 OFFSET ??_C@_0BB@PJOHBANM@Line?5numbers?5for@
  0006d	50		 push	 eax
  0006e	e8 00 00 00 00	 call	 ?Contain@i3String@@YAHPBD0@Z ; i3String::Contain
  00073	83 c4 14	 add	 esp, 20			; 00000014H
  00076	83 f8 ff	 cmp	 eax, -1
  00079	7e 44		 jle	 SHORT $LN6@GetLineInf

; 199  : 
; 200  : 			if( -1 < i3String::Contain( szLine, pObeName ) ) {									// 클래스 명이 같은것이 있는지를 체크

  0007b	8d 85 fc fb ff
	ff		 lea	 eax, DWORD PTR _szLine$[ebp]
  00081	53		 push	 ebx
  00082	50		 push	 eax
  00083	e8 00 00 00 00	 call	 ?Contain@i3String@@YAHPBD0@Z ; i3String::Contain
  00088	83 c4 08	 add	 esp, 8
  0008b	83 f8 ff	 cmp	 eax, -1
  0008e	7e 2f		 jle	 SHORT $LN6@GetLineInf

; 201  : 
; 202  : 				GetLineClassName( szLine, pszClassName );								// 클래스 명을 얻어온다.

  00090	ff b5 f8 fb ff
	ff		 push	 DWORD PTR _pszClassName$GSCopy$1$[ebp]
  00096	8d 85 fc fb ff
	ff		 lea	 eax, DWORD PTR _szLine$[ebp]
  0009c	8b cf		 mov	 ecx, edi
  0009e	50		 push	 eax
  0009f	e8 00 00 00 00	 call	 ?GetLineClassName@i3MapFileParser@@QAEXPBDPAD@Z ; i3MapFileParser::GetLineClassName

; 203  : 
; 204  : 				if( GetLineReal( fp, dwAddress, pszAddress, pnLine ) ) {	

  000a4	ff b5 f4 fb ff
	ff		 push	 DWORD PTR _pnLine$GSCopy$1$[ebp]
  000aa	8b cf		 mov	 ecx, edi
  000ac	ff b5 f0 fb ff
	ff		 push	 DWORD PTR _pszAddress$GSCopy$1$[ebp]
  000b2	ff 75 0c	 push	 DWORD PTR _dwAddress$[ebp]
  000b5	56		 push	 esi
  000b6	e8 00 00 00 00	 call	 ?GetLineReal@i3MapFileParser@@QAEHPAU_iobuf@@KPBDPAH@Z ; i3MapFileParser::GetLineReal
  000bb	85 c0		 test	 eax, eax
  000bd	75 22		 jne	 SHORT $LN9@GetLineInf
$LN6@GetLineInf:

; 192  : 	char szLine[1024];
; 193  : 	// Line numbers for까지 포인터 이동
; 194  : 	while ( !feof(fp) )

  000bf	56		 push	 esi
  000c0	e8 00 00 00 00	 call	 _feof
  000c5	83 c4 04	 add	 esp, 4
  000c8	85 c0		 test	 eax, eax
  000ca	74 84		 je	 SHORT $LL2@GetLineInf
$LN12@GetLineInf:
  000cc	5f		 pop	 edi

; 205  : 					return TRUE;														// 라인을 얻어온다.
; 206  : 				}				
; 207  : 				
; 208  : 			}
; 209  : 		}
; 210  : 	}	
; 211  : 	return FALSE;
; 212  : }

  000cd	5e		 pop	 esi
  000ce	33 c0		 xor	 eax, eax
  000d0	5b		 pop	 ebx
  000d1	8b 4d fc	 mov	 ecx, DWORD PTR __$ArrayPad$[ebp]
  000d4	33 cd		 xor	 ecx, ebp
  000d6	e8 00 00 00 00	 call	 @__security_check_cookie@4
  000db	8b e5		 mov	 esp, ebp
  000dd	5d		 pop	 ebp
  000de	c2 18 00	 ret	 24			; 00000018H
$LN9@GetLineInf:
  000e1	8b 4d fc	 mov	 ecx, DWORD PTR __$ArrayPad$[ebp]
  000e4	b8 01 00 00 00	 mov	 eax, 1
  000e9	5f		 pop	 edi
  000ea	5e		 pop	 esi
  000eb	33 cd		 xor	 ecx, ebp
  000ed	5b		 pop	 ebx
  000ee	e8 00 00 00 00	 call	 @__security_check_cookie@4
  000f3	8b e5		 mov	 esp, ebp
  000f5	5d		 pop	 ebp
  000f6	c2 18 00	 ret	 24			; 00000018H
?GetLineInfo@i3MapFileParser@@QAEHPAU_iobuf@@KPBD1PAHPAD@Z ENDP ; i3MapFileParser::GetLineInfo
_TEXT	ENDS
; Function compile flags: /Ogtp
; File E:\Proyectos\JuegosOnlineproyectos\PB\pbblow\Piercing Blow Remake\i3Server\src\i3Base\i3MapFileParser.cpp
;	COMDAT ?GetAddressInfoReal@i3MapFileParser@@QAEHPAU_iobuf@@KPAD11@Z
_TEXT	SEGMENT
_pszAddress$GSCopy$1$ = -5136				; size = 4
_pszClassName$GSCopy$1$ = -5132				; size = 4
_pszFunctionName$GSCopy$1$ = -5128			; size = 4
_szAddress$ = -5124					; size = 1024
_szRva$ = -4100						; size = 1024
_szValue$ = -3076					; size = 1024
_szPreLineSave$ = -2052					; size = 1024
_szLine$ = -1028					; size = 1024
__$ArrayPad$ = -4					; size = 4
_fp$ = 8						; size = 4
_dwExceptionAddress$ = 12				; size = 4
_pszFunctionName$ = 16					; size = 4
_pszAddress$ = 20					; size = 4
_pszClassName$ = 24					; size = 4
?GetAddressInfoReal@i3MapFileParser@@QAEHPAU_iobuf@@KPAD11@Z PROC ; i3MapFileParser::GetAddressInfoReal, COMDAT
; _this$ = ecx

; 145  : {	

  00000	55		 push	 ebp
  00001	8b ec		 mov	 ebp, esp
  00003	b8 10 14 00 00	 mov	 eax, 5136		; 00001410H
  00008	e8 00 00 00 00	 call	 __chkstk
  0000d	a1 00 00 00 00	 mov	 eax, DWORD PTR ___security_cookie
  00012	33 c5		 xor	 eax, ebp
  00014	89 45 fc	 mov	 DWORD PTR __$ArrayPad$[ebp], eax
  00017	8b 45 10	 mov	 eax, DWORD PTR _pszFunctionName$[ebp]
  0001a	53		 push	 ebx
  0001b	56		 push	 esi
  0001c	8b 75 08	 mov	 esi, DWORD PTR _fp$[ebp]
  0001f	89 85 f8 eb ff
	ff		 mov	 DWORD PTR _pszFunctionName$GSCopy$1$[ebp], eax
  00025	8b 45 14	 mov	 eax, DWORD PTR _pszAddress$[ebp]
  00028	57		 push	 edi
  00029	89 85 f0 eb ff
	ff		 mov	 DWORD PTR _pszAddress$GSCopy$1$[ebp], eax
  0002f	8b f9		 mov	 edi, ecx
  00031	8b 45 18	 mov	 eax, DWORD PTR _pszClassName$[ebp]

; 146  : 	char szLine[1024];
; 147  : 	char szPreLineSave[1024] = { 0, };

  00034	68 00 04 00 00	 push	 1024			; 00000400H
  00039	89 85 f4 eb ff
	ff		 mov	 DWORD PTR _pszClassName$GSCopy$1$[ebp], eax
  0003f	8d 85 fc f7 ff
	ff		 lea	 eax, DWORD PTR _szPreLineSave$[ebp]
  00045	6a 00		 push	 0
  00047	50		 push	 eax
  00048	e8 00 00 00 00	 call	 _memset

; 148  : 	char szAddress[1024 ];
; 149  : 	char szValue[1024];
; 150  : 	char szRva[1024];
; 151  : 
; 152  : 	while ( !feof(fp) )	{

  0004d	56		 push	 esi
  0004e	e8 00 00 00 00	 call	 _feof
  00053	83 c4 10	 add	 esp, 16			; 00000010H
  00056	85 c0		 test	 eax, eax
  00058	0f 85 a8 00 00
	00		 jne	 $LN18@GetAddress
  0005e	8b 5d 0c	 mov	 ebx, DWORD PTR _dwExceptionAddress$[ebp]
$LL2@GetAddress:

; 153  : 
; 154  : 		fgets(szLine, 1024, fp);

  00061	56		 push	 esi
  00062	8d 85 fc fb ff
	ff		 lea	 eax, DWORD PTR _szLine$[ebp]
  00068	68 00 04 00 00	 push	 1024			; 00000400H
  0006d	50		 push	 eax
  0006e	e8 00 00 00 00	 call	 _fgets

; 155  : 
; 156  : 		if( -1 < i3String::Contain( szLine, "entry point at" ) ) 

  00073	8d 85 fc fb ff
	ff		 lea	 eax, DWORD PTR _szLine$[ebp]
  00079	68 00 00 00 00	 push	 OFFSET ??_C@_0P@BNEDFJAM@entry?5point?5at@
  0007e	50		 push	 eax
  0007f	e8 00 00 00 00	 call	 ?Contain@i3String@@YAHPBD0@Z ; i3String::Contain
  00084	83 c4 14	 add	 esp, 20			; 00000014H
  00087	83 f8 ff	 cmp	 eax, -1
  0008a	7f 7a		 jg	 SHORT $LN18@GetAddress

; 157  : 			return FALSE;		// entry point at 부분에서 자동 리턴 
; 158  : 
; 159  : 		if( i3String::Length(szLine) > 1 ) {

  0008c	8d 85 fc fb ff
	ff		 lea	 eax, DWORD PTR _szLine$[ebp]
  00092	50		 push	 eax
  00093	e8 00 00 00 00	 call	 ?Length@i3String@@YAHPBD@Z ; i3String::Length
  00098	83 c4 04	 add	 esp, 4
  0009b	83 f8 01	 cmp	 eax, 1
  0009e	7e 3b		 jle	 SHORT $LN6@GetAddress

; 160  : 
; 161  : 			// 라인의 정보를 뽑아낸다.
; 162  : 			sscanf(szLine, "%s %s %s", szAddress, szValue, szRva );

  000a0	8d 85 fc ef ff
	ff		 lea	 eax, DWORD PTR _szRva$[ebp]
  000a6	50		 push	 eax
  000a7	8d 85 fc f3 ff
	ff		 lea	 eax, DWORD PTR _szValue$[ebp]
  000ad	50		 push	 eax
  000ae	8d 85 fc eb ff
	ff		 lea	 eax, DWORD PTR _szAddress$[ebp]
  000b4	50		 push	 eax
  000b5	8d 85 fc fb ff
	ff		 lea	 eax, DWORD PTR _szLine$[ebp]
  000bb	68 00 00 00 00	 push	 OFFSET ??_C@_08EPEHIMMI@?$CFs?5?$CFs?5?$CFs@
  000c0	50		 push	 eax
  000c1	e8 00 00 00 00	 call	 _sscanf
  000c6	83 c4 14	 add	 esp, 20			; 00000014H

; 163  : 
; 164  : 			DWORD dwAddress = GetHexValue( szRva );

  000c9	8d 85 fc ef ff
	ff		 lea	 eax, DWORD PTR _szRva$[ebp]
  000cf	8b cf		 mov	 ecx, edi
  000d1	50		 push	 eax
  000d2	e8 00 00 00 00	 call	 ?GetHexValue@i3MapFileParser@@QAEKPBD@Z ; i3MapFileParser::GetHexValue

; 165  : 
; 166  : 			if( dwAddress > dwExceptionAddress ) {

  000d7	3b c3		 cmp	 eax, ebx
  000d9	77 40		 ja	 SHORT $LN12@GetAddress
$LN6@GetAddress:

; 175  : 
; 176  : 				return TRUE;					
; 177  : 			}
; 178  : 		}
; 179  : 		// 주소를 넘어가면 지난줄의 주소값이 해당주소가 되기때문에 지난번 값을 저장
; 180  : 		strcpy( szPreLineSave, szLine );

  000db	8d 95 fc fb ff
	ff		 lea	 edx, DWORD PTR _szLine$[ebp]
  000e1	8d 85 fc f7 ff
	ff		 lea	 eax, DWORD PTR _szPreLineSave$[ebp]
$LL8@GetAddress:
  000e7	8a 0a		 mov	 cl, BYTE PTR [edx]
  000e9	8d 52 01	 lea	 edx, DWORD PTR [edx+1]
  000ec	88 08		 mov	 BYTE PTR [eax], cl
  000ee	8d 40 01	 lea	 eax, DWORD PTR [eax+1]
  000f1	84 c9		 test	 cl, cl
  000f3	75 f2		 jne	 SHORT $LL8@GetAddress

; 148  : 	char szAddress[1024 ];
; 149  : 	char szValue[1024];
; 150  : 	char szRva[1024];
; 151  : 
; 152  : 	while ( !feof(fp) )	{

  000f5	56		 push	 esi
  000f6	e8 00 00 00 00	 call	 _feof
  000fb	83 c4 04	 add	 esp, 4
  000fe	85 c0		 test	 eax, eax
  00100	0f 84 5b ff ff
	ff		 je	 $LL2@GetAddress
$LN18@GetAddress:
  00106	5f		 pop	 edi

; 181  : 	}
; 182  : 
; 183  : 	return FALSE;
; 184  : }

  00107	5e		 pop	 esi
  00108	33 c0		 xor	 eax, eax
  0010a	5b		 pop	 ebx
  0010b	8b 4d fc	 mov	 ecx, DWORD PTR __$ArrayPad$[ebp]
  0010e	33 cd		 xor	 ecx, ebp
  00110	e8 00 00 00 00	 call	 @__security_check_cookie@4
  00115	8b e5		 mov	 esp, ebp
  00117	5d		 pop	 ebp
  00118	c2 14 00	 ret	 20			; 00000014H
$LN12@GetAddress:

; 167  : 
; 168  : 				sscanf( szPreLineSave, "%s %s", szAddress, szValue );

  0011b	8d 85 fc f3 ff
	ff		 lea	 eax, DWORD PTR _szValue$[ebp]
  00121	50		 push	 eax
  00122	8d 85 fc eb ff
	ff		 lea	 eax, DWORD PTR _szAddress$[ebp]
  00128	50		 push	 eax
  00129	8d 85 fc f7 ff
	ff		 lea	 eax, DWORD PTR _szPreLineSave$[ebp]
  0012f	68 00 00 00 00	 push	 OFFSET ??_C@_05DNIIFBMG@?$CFs?5?$CFs@
  00134	50		 push	 eax
  00135	e8 00 00 00 00	 call	 _sscanf
  0013a	83 c4 10	 add	 esp, 16			; 00000010H

; 169  : 
; 170  : 				GetFunctionName( szValue, pszFunctionName );

  0013d	8d 85 fc f3 ff
	ff		 lea	 eax, DWORD PTR _szValue$[ebp]
  00143	8b cf		 mov	 ecx, edi
  00145	ff b5 f8 eb ff
	ff		 push	 DWORD PTR _pszFunctionName$GSCopy$1$[ebp]
  0014b	50		 push	 eax
  0014c	e8 00 00 00 00	 call	 ?GetFunctionName@i3MapFileParser@@QAEXPAD0@Z ; i3MapFileParser::GetFunctionName

; 171  : 
; 172  : 				GetObjectName( szPreLineSave, pszClassName );

  00151	ff b5 f4 eb ff
	ff		 push	 DWORD PTR _pszClassName$GSCopy$1$[ebp]
  00157	8d 85 fc f7 ff
	ff		 lea	 eax, DWORD PTR _szPreLineSave$[ebp]
  0015d	8b cf		 mov	 ecx, edi
  0015f	50		 push	 eax
  00160	e8 00 00 00 00	 call	 ?GetObjectName@i3MapFileParser@@QAEXPAD0@Z ; i3MapFileParser::GetObjectName

; 173  : 
; 174  : 				sscanf(szPreLineSave, "%s", pszAddress );

  00165	ff b5 f0 eb ff
	ff		 push	 DWORD PTR _pszAddress$GSCopy$1$[ebp]
  0016b	8d 85 fc f7 ff
	ff		 lea	 eax, DWORD PTR _szPreLineSave$[ebp]
  00171	68 00 00 00 00	 push	 OFFSET ??_C@_02DKCKIIND@?$CFs@
  00176	50		 push	 eax
  00177	e8 00 00 00 00	 call	 _sscanf

; 181  : 	}
; 182  : 
; 183  : 	return FALSE;
; 184  : }

  0017c	8b 4d fc	 mov	 ecx, DWORD PTR __$ArrayPad$[ebp]
  0017f	83 c4 0c	 add	 esp, 12			; 0000000cH
  00182	33 cd		 xor	 ecx, ebp
  00184	b8 01 00 00 00	 mov	 eax, 1
  00189	5f		 pop	 edi
  0018a	5e		 pop	 esi
  0018b	5b		 pop	 ebx
  0018c	e8 00 00 00 00	 call	 @__security_check_cookie@4
  00191	8b e5		 mov	 esp, ebp
  00193	5d		 pop	 ebp
  00194	c2 14 00	 ret	 20			; 00000014H
?GetAddressInfoReal@i3MapFileParser@@QAEHPAU_iobuf@@KPAD11@Z ENDP ; i3MapFileParser::GetAddressInfoReal
_TEXT	ENDS
; Function compile flags: /Ogtp
; File E:\Proyectos\JuegosOnlineproyectos\PB\pbblow\Piercing Blow Remake\i3Server\src\i3Base\i3MapFileParser.cpp
;	COMDAT ?GetAddressInfo@i3MapFileParser@@QAEHPAU_iobuf@@KPAD11@Z
_TEXT	SEGMENT
_pszAddress$GSCopy$1$ = -1036				; size = 4
_pszClassName$GSCopy$1$ = -1032				; size = 4
_szLine$ = -1028					; size = 1024
__$ArrayPad$ = -4					; size = 4
_fp$ = 8						; size = 4
_dwExceptionAddress$ = 12				; size = 4
_pszFunctionName$ = 16					; size = 4
_pszAddress$ = 20					; size = 4
_pszClassName$ = 24					; size = 4
?GetAddressInfo@i3MapFileParser@@QAEHPAU_iobuf@@KPAD11@Z PROC ; i3MapFileParser::GetAddressInfo, COMDAT
; _this$ = ecx

; 124  : {

  00000	55		 push	 ebp
  00001	8b ec		 mov	 ebp, esp
  00003	81 ec 0c 04 00
	00		 sub	 esp, 1036		; 0000040cH
  00009	a1 00 00 00 00	 mov	 eax, DWORD PTR ___security_cookie
  0000e	33 c5		 xor	 eax, ebp
  00010	89 45 fc	 mov	 DWORD PTR __$ArrayPad$[ebp], eax
  00013	8b 45 14	 mov	 eax, DWORD PTR _pszAddress$[ebp]
  00016	53		 push	 ebx
  00017	8b 5d 10	 mov	 ebx, DWORD PTR _pszFunctionName$[ebp]
  0001a	56		 push	 esi
  0001b	8b 75 08	 mov	 esi, DWORD PTR _fp$[ebp]
  0001e	57		 push	 edi
  0001f	89 85 f4 fb ff
	ff		 mov	 DWORD PTR _pszAddress$GSCopy$1$[ebp], eax
  00025	8b f9		 mov	 edi, ecx
  00027	8b 45 18	 mov	 eax, DWORD PTR _pszClassName$[ebp]

; 125  : 	char szLine[1024];
; 126  : 
; 127  : 	while ( !feof(fp) )	{

  0002a	56		 push	 esi
  0002b	89 85 f8 fb ff
	ff		 mov	 DWORD PTR _pszClassName$GSCopy$1$[ebp], eax
  00031	e8 00 00 00 00	 call	 _feof
  00036	83 c4 04	 add	 esp, 4
  00039	85 c0		 test	 eax, eax
  0003b	75 3b		 jne	 SHORT $LN3@GetAddress
  0003d	8d 49 00	 npad	 3
$LL2@GetAddress:

; 128  : 		fgets(szLine, 1024, fp);

  00040	56		 push	 esi
  00041	8d 85 fc fb ff
	ff		 lea	 eax, DWORD PTR _szLine$[ebp]
  00047	68 00 04 00 00	 push	 1024			; 00000400H
  0004c	50		 push	 eax
  0004d	e8 00 00 00 00	 call	 _fgets

; 129  : 
; 130  : 		if( -1 < i3String::Contain( szLine, "Rva+Base" ) ) {		// "Rva+Base" 있는곳 까지 우선 찾는다.

  00052	8d 85 fc fb ff
	ff		 lea	 eax, DWORD PTR _szLine$[ebp]
  00058	68 00 00 00 00	 push	 OFFSET ??_C@_08IAFDHKLG@Rva?$CLBase@
  0005d	50		 push	 eax
  0005e	e8 00 00 00 00	 call	 ?Contain@i3String@@YAHPBD0@Z ; i3String::Contain
  00063	83 c4 14	 add	 esp, 20			; 00000014H
  00066	83 f8 ff	 cmp	 eax, -1
  00069	7f 22		 jg	 SHORT $LN8@GetAddress

; 125  : 	char szLine[1024];
; 126  : 
; 127  : 	while ( !feof(fp) )	{

  0006b	56		 push	 esi
  0006c	e8 00 00 00 00	 call	 _feof
  00071	83 c4 04	 add	 esp, 4
  00074	85 c0		 test	 eax, eax
  00076	74 c8		 je	 SHORT $LL2@GetAddress
$LN3@GetAddress:
  00078	5f		 pop	 edi

; 133  : 
; 134  : 			return FALSE;
; 135  : 		}
; 136  : 	}
; 137  : 	return FALSE;
; 138  : }

  00079	5e		 pop	 esi
  0007a	33 c0		 xor	 eax, eax
  0007c	5b		 pop	 ebx
  0007d	8b 4d fc	 mov	 ecx, DWORD PTR __$ArrayPad$[ebp]
  00080	33 cd		 xor	 ecx, ebp
  00082	e8 00 00 00 00	 call	 @__security_check_cookie@4
  00087	8b e5		 mov	 esp, ebp
  00089	5d		 pop	 ebp
  0008a	c2 14 00	 ret	 20			; 00000014H
$LN8@GetAddress:

; 131  : 
; 132  : 			if(GetAddressInfoReal( fp, dwExceptionAddress, pszFunctionName, pszAddress, pszClassName )) return TRUE;

  0008d	ff b5 f8 fb ff
	ff		 push	 DWORD PTR _pszClassName$GSCopy$1$[ebp]
  00093	8b cf		 mov	 ecx, edi
  00095	ff b5 f4 fb ff
	ff		 push	 DWORD PTR _pszAddress$GSCopy$1$[ebp]
  0009b	53		 push	 ebx
  0009c	ff 75 0c	 push	 DWORD PTR _dwExceptionAddress$[ebp]
  0009f	56		 push	 esi
  000a0	e8 00 00 00 00	 call	 ?GetAddressInfoReal@i3MapFileParser@@QAEHPAU_iobuf@@KPAD11@Z ; i3MapFileParser::GetAddressInfoReal
  000a5	85 c0		 test	 eax, eax
  000a7	74 cf		 je	 SHORT $LN3@GetAddress

; 133  : 
; 134  : 			return FALSE;
; 135  : 		}
; 136  : 	}
; 137  : 	return FALSE;
; 138  : }

  000a9	8b 4d fc	 mov	 ecx, DWORD PTR __$ArrayPad$[ebp]
  000ac	b8 01 00 00 00	 mov	 eax, 1
  000b1	5f		 pop	 edi
  000b2	5e		 pop	 esi
  000b3	33 cd		 xor	 ecx, ebp
  000b5	5b		 pop	 ebx
  000b6	e8 00 00 00 00	 call	 @__security_check_cookie@4
  000bb	8b e5		 mov	 esp, ebp
  000bd	5d		 pop	 ebp
  000be	c2 14 00	 ret	 20			; 00000014H
?GetAddressInfo@i3MapFileParser@@QAEHPAU_iobuf@@KPAD11@Z ENDP ; i3MapFileParser::GetAddressInfo
_TEXT	ENDS
; Function compile flags: /Ogtp
; File E:\Proyectos\JuegosOnlineproyectos\PB\pbblow\Piercing Blow Remake\i3Server\src\i3Base\i3MapFileParser.cpp
;	COMDAT ?GetStartAddress@i3MapFileParser@@QAEHPAU_iobuf@@PAK@Z
_TEXT	SEGMENT
_szLine$ = -1156					; size = 1024
_szValue$1 = -132					; size = 128
__$ArrayPad$ = -4					; size = 4
_fp$ = 8						; size = 4
_pdwStartAddress$ = 12					; size = 4
?GetStartAddress@i3MapFileParser@@QAEHPAU_iobuf@@PAK@Z PROC ; i3MapFileParser::GetStartAddress, COMDAT
; _this$ = ecx

; 100  : {

  00000	55		 push	 ebp
  00001	8b ec		 mov	 ebp, esp
  00003	81 ec 84 04 00
	00		 sub	 esp, 1156		; 00000484H
  00009	a1 00 00 00 00	 mov	 eax, DWORD PTR ___security_cookie
  0000e	33 c5		 xor	 eax, ebp
  00010	89 45 fc	 mov	 DWORD PTR __$ArrayPad$[ebp], eax
  00013	53		 push	 ebx
  00014	8b 5d 0c	 mov	 ebx, DWORD PTR _pdwStartAddress$[ebp]
  00017	56		 push	 esi
  00018	8b 75 08	 mov	 esi, DWORD PTR _fp$[ebp]
  0001b	57		 push	 edi

; 101  : 	char szLine[1024];
; 102  : 	while ( !feof(fp) )

  0001c	56		 push	 esi
  0001d	8b f9		 mov	 edi, ecx
  0001f	e8 00 00 00 00	 call	 _feof
  00024	83 c4 04	 add	 esp, 4
  00027	85 c0		 test	 eax, eax
  00029	75 3d		 jne	 SHORT $LN3@GetStartAd
  0002b	eb 03 8d 49 00	 npad	 5
$LL2@GetStartAd:

; 103  : 	{
; 104  : 		fgets(szLine, 1024, fp);

  00030	56		 push	 esi
  00031	8d 85 7c fb ff
	ff		 lea	 eax, DWORD PTR _szLine$[ebp]
  00037	68 00 04 00 00	 push	 1024			; 00000400H
  0003c	50		 push	 eax
  0003d	e8 00 00 00 00	 call	 _fgets

; 105  : 		if( -1 < i3String::Contain( szLine, "Preferred load address is ") )

  00042	8d 85 7c fb ff
	ff		 lea	 eax, DWORD PTR _szLine$[ebp]
  00048	68 00 00 00 00	 push	 OFFSET ??_C@_0BL@MLMKNPDC@Preferred?5load?5address?5is?5@
  0004d	50		 push	 eax
  0004e	e8 00 00 00 00	 call	 ?Contain@i3String@@YAHPBD0@Z ; i3String::Contain
  00053	83 c4 14	 add	 esp, 20			; 00000014H
  00056	83 f8 ff	 cmp	 eax, -1
  00059	7f 22		 jg	 SHORT $LN9@GetStartAd

; 101  : 	char szLine[1024];
; 102  : 	while ( !feof(fp) )

  0005b	56		 push	 esi
  0005c	e8 00 00 00 00	 call	 _feof
  00061	83 c4 04	 add	 esp, 4
  00064	85 c0		 test	 eax, eax
  00066	74 c8		 je	 SHORT $LL2@GetStartAd
$LN3@GetStartAd:
  00068	5f		 pop	 edi

; 113  : 			return true;
; 114  : 		}
; 115  : 	}
; 116  : 	return false;
; 117  : }

  00069	5e		 pop	 esi
  0006a	33 c0		 xor	 eax, eax
  0006c	5b		 pop	 ebx
  0006d	8b 4d fc	 mov	 ecx, DWORD PTR __$ArrayPad$[ebp]
  00070	33 cd		 xor	 ecx, ebp
  00072	e8 00 00 00 00	 call	 @__security_check_cookie@4
  00077	8b e5		 mov	 esp, ebp
  00079	5d		 pop	 ebp
  0007a	c2 08 00	 ret	 8
$LN9@GetStartAd:

; 106  : 		{
; 107  : 			char szValue[128] = {0, };

  0007d	68 80 00 00 00	 push	 128			; 00000080H
  00082	8d 85 7c ff ff
	ff		 lea	 eax, DWORD PTR _szValue$1[ebp]
  00088	6a 00		 push	 0
  0008a	50		 push	 eax
  0008b	e8 00 00 00 00	 call	 _memset

; 108  : 			INT32 nStringLen = i3String::Length("Preferred load address is  ");

  00090	68 00 00 00 00	 push	 OFFSET ??_C@_0BM@FNJILPPN@Preferred?5load?5address?5is?5?5@
  00095	e8 00 00 00 00	 call	 ?Length@i3String@@YAHPBD@Z ; i3String::Length

; 109  : 			i3String::NCopy( szValue, szLine + nStringLen, 8 );

  0009a	8d 8d 7c fb ff
	ff		 lea	 ecx, DWORD PTR _szLine$[ebp]
  000a0	03 c1		 add	 eax, ecx
  000a2	6a 08		 push	 8
  000a4	50		 push	 eax
  000a5	8d 85 7c ff ff
	ff		 lea	 eax, DWORD PTR _szValue$1[ebp]
  000ab	50		 push	 eax
  000ac	e8 00 00 00 00	 call	 ?NCopy@i3String@@YAXPADPBDH@Z ; i3String::NCopy
  000b1	83 c4 1c	 add	 esp, 28			; 0000001cH

; 110  : 			szValue[8] = '\0';

  000b4	c6 45 84 00	 mov	 BYTE PTR _szValue$1[ebp+8], 0

; 111  : 
; 112  : 			*pdwStartAddress = GetHexValue(szValue);

  000b8	8d 85 7c ff ff
	ff		 lea	 eax, DWORD PTR _szValue$1[ebp]
  000be	8b cf		 mov	 ecx, edi
  000c0	50		 push	 eax
  000c1	e8 00 00 00 00	 call	 ?GetHexValue@i3MapFileParser@@QAEKPBD@Z ; i3MapFileParser::GetHexValue

; 113  : 			return true;
; 114  : 		}
; 115  : 	}
; 116  : 	return false;
; 117  : }

  000c6	8b 4d fc	 mov	 ecx, DWORD PTR __$ArrayPad$[ebp]
  000c9	5f		 pop	 edi
  000ca	89 03		 mov	 DWORD PTR [ebx], eax
  000cc	33 cd		 xor	 ecx, ebp
  000ce	5e		 pop	 esi
  000cf	b8 01 00 00 00	 mov	 eax, 1
  000d4	5b		 pop	 ebx
  000d5	e8 00 00 00 00	 call	 @__security_check_cookie@4
  000da	8b e5		 mov	 esp, ebp
  000dc	5d		 pop	 ebp
  000dd	c2 08 00	 ret	 8
?GetStartAddress@i3MapFileParser@@QAEHPAU_iobuf@@PAK@Z ENDP ; i3MapFileParser::GetStartAddress
_TEXT	ENDS
; Function compile flags: /Ogtp
; File E:\Proyectos\JuegosOnlineproyectos\PB\pbblow\Piercing Blow Remake\i3Server\src\i3Base\i3MapFileParser.cpp
;	COMDAT ?SetCheckExpection@i3MapFileParser@@QAEHPBDK@Z
_TEXT	SEGMENT
_bError$1$ = -268					; size = 4
_dwStartAddress$ = -264					; size = 4
_szObjName$ = -260					; size = 128
_szAddress$ = -132					; size = 128
__$ArrayPad$ = -4					; size = 4
_pszMapFile$ = 8					; size = 4
_dwExceptionAddress$ = 12				; size = 4
?SetCheckExpection@i3MapFileParser@@QAEHPBDK@Z PROC	; i3MapFileParser::SetCheckExpection, COMDAT
; _this$ = ecx

; 52   : {

  00000	55		 push	 ebp
  00001	8b ec		 mov	 ebp, esp
  00003	81 ec 0c 01 00
	00		 sub	 esp, 268		; 0000010cH
  00009	a1 00 00 00 00	 mov	 eax, DWORD PTR ___security_cookie
  0000e	33 c5		 xor	 eax, ebp
  00010	89 45 fc	 mov	 DWORD PTR __$ArrayPad$[ebp], eax
  00013	53		 push	 ebx
  00014	56		 push	 esi
  00015	8b 75 08	 mov	 esi, DWORD PTR _pszMapFile$[ebp]

; 53   : 	BOOL	bError = FALSE;
; 54   : 	char	szAddress[128] = {0, };

  00018	8d 85 7c ff ff
	ff		 lea	 eax, DWORD PTR _szAddress$[ebp]
  0001e	57		 push	 edi
  0001f	68 80 00 00 00	 push	 128			; 00000080H
  00024	6a 00		 push	 0
  00026	50		 push	 eax
  00027	8b f9		 mov	 edi, ecx
  00029	c7 85 f4 fe ff
	ff 00 00 00 00	 mov	 DWORD PTR _bError$1$[ebp], 0
  00033	e8 00 00 00 00	 call	 _memset

; 55   : 	char	szObjName[128] = {0, };

  00038	68 80 00 00 00	 push	 128			; 00000080H
  0003d	8d 85 fc fe ff
	ff		 lea	 eax, DWORD PTR _szObjName$[ebp]
  00043	6a 00		 push	 0
  00045	50		 push	 eax
  00046	e8 00 00 00 00	 call	 _memset

; 56   : 
; 57   : 	m_nSourceLine = 0;
; 58   : 	memset( m_szClassName, 0, 128 );

  0004b	68 80 00 00 00	 push	 128			; 00000080H
  00050	8d 87 04 04 00
	00		 lea	 eax, DWORD PTR [edi+1028]
  00056	c7 07 00 00 00
	00		 mov	 DWORD PTR [edi], 0
  0005c	6a 00		 push	 0
  0005e	50		 push	 eax
  0005f	e8 00 00 00 00	 call	 _memset

; 59   : 	memset( m_szFunctionName, 0, 128);	

  00064	68 80 00 00 00	 push	 128			; 00000080H
  00069	8d 5f 04	 lea	 ebx, DWORD PTR [edi+4]
  0006c	6a 00		 push	 0
  0006e	53		 push	 ebx
  0006f	e8 00 00 00 00	 call	 _memset

; 60   : 
; 61   : 	FILE *fp = NULL;
; 62   : 	fp = fopen( pszMapFile , "rt" );

  00074	68 00 00 00 00	 push	 OFFSET ??_C@_02BMJICGCB@rt@
  00079	56		 push	 esi
  0007a	e8 00 00 00 00	 call	 _fopen
  0007f	8b f0		 mov	 esi, eax
  00081	83 c4 38	 add	 esp, 56			; 00000038H

; 63   : 	if( NULL == fp )		return FALSE;

  00084	85 f6		 test	 esi, esi
  00086	75 13		 jne	 SHORT $LN2@SetCheckEx

; 91   : 
; 92   : 	return bError;
; 93   : }

  00088	5f		 pop	 edi
  00089	5e		 pop	 esi
  0008a	5b		 pop	 ebx
  0008b	8b 4d fc	 mov	 ecx, DWORD PTR __$ArrayPad$[ebp]
  0008e	33 cd		 xor	 ecx, ebp
  00090	e8 00 00 00 00	 call	 @__security_check_cookie@4
  00095	8b e5		 mov	 esp, ebp
  00097	5d		 pop	 ebp
  00098	c2 08 00	 ret	 8
$LN2@SetCheckEx:

; 64   : 
; 65   : 	// Preferred load address is
; 66   : 	DWORD dwStartAddress = 0;
; 67   : 
; 68   : 	// 시작주소 얻어오기.
; 69   : 	if( false == GetStartAddress( fp, &dwStartAddress ) )	{

  0009b	8d 85 f8 fe ff
	ff		 lea	 eax, DWORD PTR _dwStartAddress$[ebp]
  000a1	c7 85 f8 fe ff
	ff 00 00 00 00	 mov	 DWORD PTR _dwStartAddress$[ebp], 0
  000ab	50		 push	 eax
  000ac	56		 push	 esi
  000ad	8b cf		 mov	 ecx, edi
  000af	e8 00 00 00 00	 call	 ?GetStartAddress@i3MapFileParser@@QAEHPAU_iobuf@@PAK@Z ; i3MapFileParser::GetStartAddress
  000b4	85 c0		 test	 eax, eax
  000b6	74 5c		 je	 SHORT $go_Exit$14

; 70   : 		goto go_Exit;
; 71   : 	}
; 72   : 
; 73   : 	// 체크하기	
; 74   : 	if( false == GetAddressInfo( fp, dwExceptionAddress, m_szFunctionName, szAddress, szObjName ))	{

  000b8	8d 85 fc fe ff
	ff		 lea	 eax, DWORD PTR _szObjName$[ebp]
  000be	8b cf		 mov	 ecx, edi
  000c0	50		 push	 eax
  000c1	8d 85 7c ff ff
	ff		 lea	 eax, DWORD PTR _szAddress$[ebp]
  000c7	50		 push	 eax
  000c8	53		 push	 ebx
  000c9	8b 5d 0c	 mov	 ebx, DWORD PTR _dwExceptionAddress$[ebp]
  000cc	53		 push	 ebx
  000cd	56		 push	 esi
  000ce	e8 00 00 00 00	 call	 ?GetAddressInfo@i3MapFileParser@@QAEHPAU_iobuf@@KPAD11@Z ; i3MapFileParser::GetAddressInfo
  000d3	85 c0		 test	 eax, eax
  000d5	74 3d		 je	 SHORT $go_Exit$14

; 75   : 		goto go_Exit;
; 76   : 	}
; 77   : 			
; 78   : 	// 충돌 라인은 충돌 주소 - 시작주소 - 0x00001000
; 79   :  	DWORD dwLine = dwExceptionAddress - dwStartAddress - 4096;
; 80   : 
; 81   : 	if( false == GetLineInfo( fp, dwLine, szObjName, szAddress, &m_nSourceLine, m_szClassName ) )  {

  000d7	2b 9d f8 fe ff
	ff		 sub	 ebx, DWORD PTR _dwStartAddress$[ebp]
  000dd	8d 87 04 04 00
	00		 lea	 eax, DWORD PTR [edi+1028]
  000e3	50		 push	 eax
  000e4	57		 push	 edi
  000e5	8d 85 7c ff ff
	ff		 lea	 eax, DWORD PTR _szAddress$[ebp]
  000eb	81 eb 00 10 00
	00		 sub	 ebx, 4096		; 00001000H
  000f1	50		 push	 eax
  000f2	8d 85 fc fe ff
	ff		 lea	 eax, DWORD PTR _szObjName$[ebp]
  000f8	8b cf		 mov	 ecx, edi
  000fa	50		 push	 eax
  000fb	53		 push	 ebx
  000fc	56		 push	 esi
  000fd	e8 00 00 00 00	 call	 ?GetLineInfo@i3MapFileParser@@QAEHPAU_iobuf@@KPBD1PAHPAD@Z ; i3MapFileParser::GetLineInfo
  00102	33 c9		 xor	 ecx, ecx
  00104	ba 01 00 00 00	 mov	 edx, 1
  00109	85 c0		 test	 eax, eax
  0010b	0f 45 ca	 cmovne	 ecx, edx
  0010e	89 8d f4 fe ff
	ff		 mov	 DWORD PTR _bError$1$[ebp], ecx
$go_Exit$14:

; 82   : 		goto go_Exit;
; 83   : 	}	
; 84   : 
; 85   : 	bError = TRUE;
; 86   : 
; 87   : 
; 88   : go_Exit:
; 89   : 	
; 90   : 	fclose(fp);

  00114	56		 push	 esi
  00115	e8 00 00 00 00	 call	 _fclose

; 91   : 
; 92   : 	return bError;
; 93   : }

  0011a	8b 4d fc	 mov	 ecx, DWORD PTR __$ArrayPad$[ebp]
  0011d	83 c4 04	 add	 esp, 4
  00120	8b 85 f4 fe ff
	ff		 mov	 eax, DWORD PTR _bError$1$[ebp]
  00126	33 cd		 xor	 ecx, ebp
  00128	5f		 pop	 edi
  00129	5e		 pop	 esi
  0012a	5b		 pop	 ebx
  0012b	e8 00 00 00 00	 call	 @__security_check_cookie@4
  00130	8b e5		 mov	 esp, ebp
  00132	5d		 pop	 ebp
  00133	c2 08 00	 ret	 8
?SetCheckExpection@i3MapFileParser@@QAEHPBDK@Z ENDP	; i3MapFileParser::SetCheckExpection
_TEXT	ENDS
; Function compile flags: /Ogtp
; File E:\Proyectos\JuegosOnlineproyectos\PB\pbblow\Piercing Blow Remake\i3Server\src\i3Base\i3MapFileParser.cpp
;	COMDAT ?CheckExpection@i3MapFileParser@@QAEHPBDPAX@Z
_TEXT	SEGMENT
_szAddress$ = -264					; size = 260
__$ArrayPad$ = -4					; size = 4
_pszMapFile$ = 8					; size = 4
_pAddress$ = 12						; size = 4
?CheckExpection@i3MapFileParser@@QAEHPBDPAX@Z PROC	; i3MapFileParser::CheckExpection, COMDAT
; _this$ = ecx

; 37   : {

  00000	55		 push	 ebp
  00001	8b ec		 mov	 ebp, esp
  00003	81 ec 08 01 00
	00		 sub	 esp, 264		; 00000108H
  00009	a1 00 00 00 00	 mov	 eax, DWORD PTR ___security_cookie
  0000e	33 c5		 xor	 eax, ebp
  00010	89 45 fc	 mov	 DWORD PTR __$ArrayPad$[ebp], eax
  00013	8b 45 0c	 mov	 eax, DWORD PTR _pAddress$[ebp]
  00016	56		 push	 esi
  00017	8b 75 08	 mov	 esi, DWORD PTR _pszMapFile$[ebp]
  0001a	57		 push	 edi

; 38   : 	char szAddress[260];
; 39   : 	sprintf(szAddress, "%X", pAddress);

  0001b	50		 push	 eax
  0001c	8d 85 f8 fe ff
	ff		 lea	 eax, DWORD PTR _szAddress$[ebp]
  00022	8b f9		 mov	 edi, ecx
  00024	68 00 00 00 00	 push	 OFFSET ??_C@_02EMFKHFLK@?$CFX@
  00029	50		 push	 eax
  0002a	e8 00 00 00 00	 call	 _sprintf
  0002f	83 c4 0c	 add	 esp, 12			; 0000000cH

; 40   : 
; 41   : 	DWORD dwAddress = GetHexValue( szAddress );

  00032	8d 85 f8 fe ff
	ff		 lea	 eax, DWORD PTR _szAddress$[ebp]
  00038	8b cf		 mov	 ecx, edi
  0003a	50		 push	 eax
  0003b	e8 00 00 00 00	 call	 ?GetHexValue@i3MapFileParser@@QAEKPBD@Z ; i3MapFileParser::GetHexValue

; 42   : 
; 43   : 	if(SetCheckExpection( pszMapFile, dwAddress )) return TRUE;

  00040	50		 push	 eax
  00041	56		 push	 esi
  00042	8b cf		 mov	 ecx, edi
  00044	e8 00 00 00 00	 call	 ?SetCheckExpection@i3MapFileParser@@QAEHPBDK@Z ; i3MapFileParser::SetCheckExpection

; 44   : 
; 45   : 	return FALSE;
; 46   : }

  00049	8b 4d fc	 mov	 ecx, DWORD PTR __$ArrayPad$[ebp]
  0004c	f7 d8		 neg	 eax
  0004e	5f		 pop	 edi
  0004f	1b c0		 sbb	 eax, eax
  00051	33 cd		 xor	 ecx, ebp
  00053	f7 d8		 neg	 eax
  00055	5e		 pop	 esi
  00056	e8 00 00 00 00	 call	 @__security_check_cookie@4
  0005b	8b e5		 mov	 esp, ebp
  0005d	5d		 pop	 ebp
  0005e	c2 08 00	 ret	 8
?CheckExpection@i3MapFileParser@@QAEHPBDPAX@Z ENDP	; i3MapFileParser::CheckExpection
_TEXT	ENDS
; Function compile flags: /Ogtp
; File E:\Proyectos\JuegosOnlineproyectos\PB\pbblow\Piercing Blow Remake\i3Server\src\i3Base\i3MapFileParser.cpp
;	COMDAT ?CheckExpection@i3MapFileParser@@QAEHPBDK@Z
_TEXT	SEGMENT
_pszMapFile$ = 8					; size = 4
_dwAddress$ = 12					; size = 4
?CheckExpection@i3MapFileParser@@QAEHPBDK@Z PROC	; i3MapFileParser::CheckExpection, COMDAT
; _this$ = ecx

; 29   : {

  00000	55		 push	 ebp
  00001	8b ec		 mov	 ebp, esp

; 30   : 	// 오류를 뽑아낸다.
; 31   : 	if(SetCheckExpection( pszMapFile, dwAddress )) return TRUE;

  00003	ff 75 0c	 push	 DWORD PTR _dwAddress$[ebp]
  00006	ff 75 08	 push	 DWORD PTR _pszMapFile$[ebp]
  00009	e8 00 00 00 00	 call	 ?SetCheckExpection@i3MapFileParser@@QAEHPBDK@Z ; i3MapFileParser::SetCheckExpection

; 32   : 
; 33   : 	return FALSE;
; 34   : }

  0000e	f7 d8		 neg	 eax
  00010	1b c0		 sbb	 eax, eax
  00012	f7 d8		 neg	 eax
  00014	5d		 pop	 ebp
  00015	c2 08 00	 ret	 8
?CheckExpection@i3MapFileParser@@QAEHPBDK@Z ENDP	; i3MapFileParser::CheckExpection
_TEXT	ENDS
; Function compile flags: /Ogtp
; File E:\Proyectos\JuegosOnlineproyectos\PB\pbblow\Piercing Blow Remake\i3Server\src\i3Base\i3MapFileParser.cpp
;	COMDAT ?CheckExpection@i3MapFileParser@@QAEHPBD0@Z
_TEXT	SEGMENT
_pszMapFile$ = 8					; size = 4
_pszExceptionAddress$ = 12				; size = 4
?CheckExpection@i3MapFileParser@@QAEHPBD0@Z PROC	; i3MapFileParser::CheckExpection, COMDAT
; _this$ = ecx

; 19   : {

  00000	55		 push	 ebp
  00001	8b ec		 mov	 ebp, esp
  00003	56		 push	 esi

; 20   : 	DWORD dwAddress = GetHexValue( pszExceptionAddress );

  00004	ff 75 0c	 push	 DWORD PTR _pszExceptionAddress$[ebp]
  00007	8b f1		 mov	 esi, ecx
  00009	e8 00 00 00 00	 call	 ?GetHexValue@i3MapFileParser@@QAEKPBD@Z ; i3MapFileParser::GetHexValue

; 21   : 
; 22   : 	// 오류를 뽑아낸다.
; 23   : 	if(SetCheckExpection( pszMapFile, dwAddress )) return TRUE;

  0000e	50		 push	 eax
  0000f	ff 75 08	 push	 DWORD PTR _pszMapFile$[ebp]
  00012	8b ce		 mov	 ecx, esi
  00014	e8 00 00 00 00	 call	 ?SetCheckExpection@i3MapFileParser@@QAEHPBDK@Z ; i3MapFileParser::SetCheckExpection

; 24   : 
; 25   : 	return FALSE;
; 26   : }

  00019	f7 d8		 neg	 eax
  0001b	5e		 pop	 esi
  0001c	1b c0		 sbb	 eax, eax
  0001e	f7 d8		 neg	 eax
  00020	5d		 pop	 ebp
  00021	c2 08 00	 ret	 8
?CheckExpection@i3MapFileParser@@QAEHPBD0@Z ENDP	; i3MapFileParser::CheckExpection
_TEXT	ENDS
; Function compile flags: /Ogtp
; File E:\Proyectos\JuegosOnlineproyectos\PB\pbblow\Piercing Blow Remake\i3Server\include\i3Base\i3MapFileParser.h
;	COMDAT ??1i3MapFileParser@@QAE@XZ
_TEXT	SEGMENT
??1i3MapFileParser@@QAE@XZ PROC				; i3MapFileParser::~i3MapFileParser, COMDAT
; _this$ = ecx

; 16   : 	~i3MapFileParser()	{};

  00000	c2 00 00	 ret	 0
??1i3MapFileParser@@QAE@XZ ENDP				; i3MapFileParser::~i3MapFileParser
_TEXT	ENDS
; Function compile flags: /Ogtp
; File E:\Proyectos\JuegosOnlineproyectos\PB\pbblow\Piercing Blow Remake\i3Server\include\i3Base\i3MapFileParser.h
;	COMDAT ??0i3MapFileParser@@QAE@XZ
_TEXT	SEGMENT
??0i3MapFileParser@@QAE@XZ PROC				; i3MapFileParser::i3MapFileParser, COMDAT
; _this$ = ecx

; 15   : 	i3MapFileParser()	{};

  00000	8b c1		 mov	 eax, ecx
  00002	c3		 ret	 0
??0i3MapFileParser@@QAE@XZ ENDP				; i3MapFileParser::i3MapFileParser
_TEXT	ENDS
; Function compile flags: /Ogtp
; File C:\Program Files (x86)\Windows Kits\10\Include\10.0.26100.0\ucrt\stdio.h
;	COMDAT _sscanf
_TEXT	SEGMENT
__Buffer$ = 8						; size = 4
__Format$ = 12						; size = 4
_sscanf	PROC						; COMDAT

; 2247 :     {

  00000	55		 push	 ebp
  00001	8b ec		 mov	 ebp, esp

; 2153 :         return __stdio_common_vsscanf(

  00003	8d 45 10	 lea	 eax, DWORD PTR __Format$[ebp+4]
  00006	50		 push	 eax
  00007	6a 00		 push	 0
  00009	ff 75 0c	 push	 DWORD PTR __Format$[ebp]
  0000c	6a ff		 push	 -1
  0000e	ff 75 08	 push	 DWORD PTR __Buffer$[ebp]
  00011	e8 00 00 00 00	 call	 ___local_stdio_scanf_options
  00016	ff 70 04	 push	 DWORD PTR [eax+4]
  00019	ff 30		 push	 DWORD PTR [eax]
  0001b	e8 00 00 00 00	 call	 ___stdio_common_vsscanf
  00020	83 c4 1c	 add	 esp, 28			; 0000001cH

; 2248 :         int _Result;
; 2249 :         va_list _ArgList;
; 2250 :         __crt_va_start(_ArgList, _Format);
; 2251 :         _Result = _vsscanf_l(_Buffer, _Format, NULL, _ArgList);
; 2252 :         __crt_va_end(_ArgList);
; 2253 :         return _Result;
; 2254 :     }

  00023	5d		 pop	 ebp
  00024	c3		 ret	 0
_sscanf	ENDP
_TEXT	ENDS
; Function compile flags: /Ogtp
; File C:\Program Files (x86)\Windows Kits\10\Include\10.0.26100.0\ucrt\stdio.h
;	COMDAT _sprintf
_TEXT	SEGMENT
__Buffer$ = 8						; size = 4
__Format$ = 12						; size = 4
_sprintf PROC						; COMDAT

; 1771 :     {

  00000	55		 push	 ebp
  00001	8b ec		 mov	 ebp, esp

; 1392 :         int const _Result = __stdio_common_vsprintf(

  00003	8d 45 10	 lea	 eax, DWORD PTR __Format$[ebp+4]
  00006	50		 push	 eax
  00007	6a 00		 push	 0
  00009	ff 75 0c	 push	 DWORD PTR __Format$[ebp]
  0000c	6a ff		 push	 -1
  0000e	ff 75 08	 push	 DWORD PTR __Buffer$[ebp]
  00011	e8 00 00 00 00	 call	 ___local_stdio_printf_options
  00016	8b 08		 mov	 ecx, DWORD PTR [eax]
  00018	ff 70 04	 push	 DWORD PTR [eax+4]
  0001b	83 c9 01	 or	 ecx, 1
  0001e	51		 push	 ecx
  0001f	e8 00 00 00 00	 call	 ___stdio_common_vsprintf

; 1393 :             _CRT_INTERNAL_LOCAL_PRINTF_OPTIONS | _CRT_INTERNAL_PRINTF_LEGACY_VSPRINTF_NULL_TERMINATION,
; 1394 :             _Buffer, _BufferCount, _Format, _Locale, _ArgList);
; 1395 : 
; 1396 :         return _Result < 0 ? -1 : _Result;

  00024	83 c9 ff	 or	 ecx, -1
  00027	83 c4 1c	 add	 esp, 28			; 0000001cH
  0002a	85 c0		 test	 eax, eax
  0002c	0f 48 c1	 cmovs	 eax, ecx

; 1772 :         int _Result;
; 1773 :         va_list _ArgList;
; 1774 :         __crt_va_start(_ArgList, _Format);
; 1775 : 
; 1776 :         _Result = _vsprintf_l(_Buffer, _Format, NULL, _ArgList);
; 1777 : 
; 1778 :         __crt_va_end(_ArgList);
; 1779 :         return _Result;
; 1780 :     }

  0002f	5d		 pop	 ebp
  00030	c3		 ret	 0
_sprintf ENDP
_TEXT	ENDS
; Function compile flags: /Ogtp
; File C:\Program Files (x86)\Windows Kits\10\Include\10.0.26100.0\ucrt\corecrt_stdio_config.h
;	COMDAT ___local_stdio_scanf_options
_TEXT	SEGMENT
___local_stdio_scanf_options PROC			; COMDAT

; 101  :         static unsigned __int64 _OptionsStorage;
; 102  :         return &_OptionsStorage;

  00000	b8 00 00 00 00	 mov	 eax, OFFSET ?_OptionsStorage@?1??__local_stdio_scanf_options@@9@4_KA ; `__local_stdio_scanf_options'::`2'::_OptionsStorage

; 103  :     }

  00005	c3		 ret	 0
___local_stdio_scanf_options ENDP
_TEXT	ENDS
; Function compile flags: /Ogtp
; File C:\Program Files (x86)\Windows Kits\10\Include\10.0.26100.0\ucrt\corecrt_stdio_config.h
;	COMDAT ___local_stdio_printf_options
_TEXT	SEGMENT
___local_stdio_printf_options PROC			; COMDAT

; 91   :         static unsigned __int64 _OptionsStorage;
; 92   :         return &_OptionsStorage;

  00000	b8 00 00 00 00	 mov	 eax, OFFSET ?_OptionsStorage@?1??__local_stdio_printf_options@@9@4_KA ; `__local_stdio_printf_options'::`2'::_OptionsStorage

; 93   :     }

  00005	c3		 ret	 0
___local_stdio_printf_options ENDP
_TEXT	ENDS
END
