; Listing generated by Microsoft (R) Optimizing Compiler Version 19.50.35727.0 

	TITLE	E:\Proyectos\JuegosOnlineproyectos\PB\pbblow\Piercing Blow Remake\i3Server\Project\I3_DX\i3Server\x86\Release\i3MD5.obj
	.686P
	.XMM
	include listing.inc
	.model	flat

INCLUDELIB LIBCMT
INCLUDELIB OLDNAMES

CONST	SEGMENT
?md5_padding@@3QBEB DB 080H				; md5_padding
	DB	00H
	DB	00H
	DB	00H
	DB	00H
	DB	00H
	DB	00H
	DB	00H
	DB	00H
	DB	00H
	DB	00H
	DB	00H
	DB	00H
	DB	00H
	DB	00H
	DB	00H
	DB	00H
	DB	00H
	DB	00H
	DB	00H
	DB	00H
	DB	00H
	DB	00H
	DB	00H
	DB	00H
	DB	00H
	DB	00H
	DB	00H
	DB	00H
	DB	00H
	DB	00H
	DB	00H
	DB	00H
	DB	00H
	DB	00H
	DB	00H
	DB	00H
	DB	00H
	DB	00H
	DB	00H
	DB	00H
	DB	00H
	DB	00H
	DB	00H
	DB	00H
	DB	00H
	DB	00H
	DB	00H
	DB	00H
	DB	00H
	DB	00H
	DB	00H
	DB	00H
	DB	00H
	DB	00H
	DB	00H
	DB	00H
	DB	00H
	DB	00H
	DB	00H
	DB	00H
	DB	00H
	DB	00H
	DB	00H
CONST	ENDS
PUBLIC	___local_stdio_printf_options
PUBLIC	_sprintf
PUBLIC	??AUINT128@@QBE?B_KH@Z				; UINT128::operator[]
PUBLIC	_md5_starts
PUBLIC	_md5_update
PUBLIC	_md5_finish
PUBLIC	_md5
PUBLIC	_md5_file
PUBLIC	_md5_hmac_starts
PUBLIC	_md5_hmac_update
PUBLIC	_md5_hmac_finish
PUBLIC	_md5_hmac
PUBLIC	?Gen@i3MD5@@YAXPADHQAD@Z			; i3MD5::Gen
PUBLIC	?GenHMAC@i3MD5@@YAXPADH0HQAD@Z			; i3MD5::GenHMAC
PUBLIC	?HMAC_Start@i3MD5@@YAXPAUmd5_context@@PADH@Z	; i3MD5::HMAC_Start
PUBLIC	?HMAC_Update@i3MD5@@YAXPAUmd5_context@@PADH@Z	; i3MD5::HMAC_Update
PUBLIC	?HMAC_Finish@i3MD5@@YAXPAUmd5_context@@QAD@Z	; i3MD5::HMAC_Finish
PUBLIC	?GetMD5String@i3MD5@@YAXPADVUINT128@@@Z		; i3MD5::GetMD5String
PUBLIC	?Getmd5_file@i3MD5@@YAHPADQAE@Z			; i3MD5::Getmd5_file
PUBLIC	?_OptionsStorage@?1??__local_stdio_printf_options@@9@4_KA ; `__local_stdio_printf_options'::`2'::_OptionsStorage
PUBLIC	??_C@_02JDPG@rb@				; `string'
PUBLIC	??_C@_04NOJCDH@?$CF02x@				; `string'
EXTRN	_fclose:PROC
EXTRN	_ferror:PROC
EXTRN	_fopen:PROC
EXTRN	_fread:PROC
EXTRN	___stdio_common_vsprintf:PROC
EXTRN	@__security_check_cookie@4:PROC
EXTRN	_memcpy:PROC
EXTRN	_memset:PROC
EXTRN	___security_cookie:DWORD
;	COMDAT ?_OptionsStorage@?1??__local_stdio_printf_options@@9@4_KA
_BSS	SEGMENT
?_OptionsStorage@?1??__local_stdio_printf_options@@9@4_KA DQ 01H DUP (?) ; `__local_stdio_printf_options'::`2'::_OptionsStorage
_BSS	ENDS
;	COMDAT ??_C@_04NOJCDH@?$CF02x@
CONST	SEGMENT
??_C@_04NOJCDH@?$CF02x@ DB '%02x', 00H			; `string'
CONST	ENDS
;	COMDAT ??_C@_02JDPG@rb@
CONST	SEGMENT
??_C@_02JDPG@rb@ DB 'rb', 00H				; `string'
CONST	ENDS
; Function compile flags: /Ogtp
; File E:\Proyectos\JuegosOnlineproyectos\PB\pbblow\Piercing Blow Remake\i3Server\src\i3Base\i3MD5.cpp
;	COMDAT ?md5_process@@YAXPAUmd5_context@@QAE@Z
_TEXT	SEGMENT
_B$8$ = -64						; size = 4
tv3607 = -60						; size = 4
tv3612 = -56						; size = 4
tv3619 = -52						; size = 4
tv3610 = -48						; size = 4
tv3617 = -44						; size = 4
tv3608 = -40						; size = 4
tv3615 = -36						; size = 4
tv3606 = -32						; size = 4
tv3613 = -28						; size = 4
tv3620 = -24						; size = 4
tv3611 = -20						; size = 4
tv3618 = -16						; size = 4
tv3609 = -12						; size = 4
tv3616 = -8						; size = 4
tv3614 = -4						; size = 4
_ctx$ = 8						; size = 4
_data$ = 12						; size = 4
tv3621 = 12						; size = 4
_B$16$ = 12						; size = 4
?md5_process@@YAXPAUmd5_context@@QAE@Z PROC		; md5_process, COMDAT

; 77   : {

  00000	55		 push	 ebp
  00001	8b ec		 mov	 ebp, esp
  00003	83 ec 40	 sub	 esp, 64			; 00000040H

; 78   :     unsigned long X[16], A, B, C, D;
; 79   : 
; 80   :     GET_ULONG_LE( X[ 0], data,  0 );

  00006	8b 4d 0c	 mov	 ecx, DWORD PTR _data$[ebp]
  00009	53		 push	 ebx
  0000a	56		 push	 esi
  0000b	57		 push	 edi
  0000c	0f b6 51 03	 movzx	 edx, BYTE PTR [ecx+3]
  00010	c1 e2 08	 shl	 edx, 8
  00013	0f b6 41 02	 movzx	 eax, BYTE PTR [ecx+2]
  00017	0b d0		 or	 edx, eax
  00019	0f b6 41 01	 movzx	 eax, BYTE PTR [ecx+1]
  0001d	c1 e2 08	 shl	 edx, 8
  00020	0b d0		 or	 edx, eax
  00022	0f b6 01	 movzx	 eax, BYTE PTR [ecx]
  00025	c1 e2 08	 shl	 edx, 8
  00028	0b d0		 or	 edx, eax

; 81   :     GET_ULONG_LE( X[ 1], data,  4 );

  0002a	0f b6 41 06	 movzx	 eax, BYTE PTR [ecx+6]
  0002e	89 55 0c	 mov	 DWORD PTR tv3621[ebp], edx
  00031	0f b6 51 07	 movzx	 edx, BYTE PTR [ecx+7]
  00035	c1 e2 08	 shl	 edx, 8
  00038	0b d0		 or	 edx, eax
  0003a	0f b6 41 05	 movzx	 eax, BYTE PTR [ecx+5]
  0003e	c1 e2 08	 shl	 edx, 8
  00041	0b d0		 or	 edx, eax
  00043	0f b6 41 04	 movzx	 eax, BYTE PTR [ecx+4]
  00047	c1 e2 08	 shl	 edx, 8
  0004a	0b d0		 or	 edx, eax

; 82   :     GET_ULONG_LE( X[ 2], data,  8 );

  0004c	0f b6 41 0a	 movzx	 eax, BYTE PTR [ecx+10]
  00050	89 55 e8	 mov	 DWORD PTR tv3620[ebp], edx
  00053	0f b6 51 0b	 movzx	 edx, BYTE PTR [ecx+11]
  00057	c1 e2 08	 shl	 edx, 8
  0005a	0b d0		 or	 edx, eax
  0005c	0f b6 41 09	 movzx	 eax, BYTE PTR [ecx+9]
  00060	c1 e2 08	 shl	 edx, 8
  00063	0b d0		 or	 edx, eax
  00065	0f b6 41 08	 movzx	 eax, BYTE PTR [ecx+8]
  00069	c1 e2 08	 shl	 edx, 8
  0006c	0b d0		 or	 edx, eax

; 83   :     GET_ULONG_LE( X[ 3], data, 12 );

  0006e	0f b6 41 0e	 movzx	 eax, BYTE PTR [ecx+14]
  00072	89 55 cc	 mov	 DWORD PTR tv3619[ebp], edx
  00075	0f b6 51 0f	 movzx	 edx, BYTE PTR [ecx+15]
  00079	c1 e2 08	 shl	 edx, 8
  0007c	0b d0		 or	 edx, eax
  0007e	0f b6 41 0d	 movzx	 eax, BYTE PTR [ecx+13]
  00082	c1 e2 08	 shl	 edx, 8
  00085	0b d0		 or	 edx, eax
  00087	0f b6 41 0c	 movzx	 eax, BYTE PTR [ecx+12]
  0008b	c1 e2 08	 shl	 edx, 8
  0008e	0b d0		 or	 edx, eax

; 84   :     GET_ULONG_LE( X[ 4], data, 16 );

  00090	0f b6 41 12	 movzx	 eax, BYTE PTR [ecx+18]
  00094	89 55 f0	 mov	 DWORD PTR tv3618[ebp], edx
  00097	0f b6 51 13	 movzx	 edx, BYTE PTR [ecx+19]
  0009b	c1 e2 08	 shl	 edx, 8
  0009e	0b d0		 or	 edx, eax
  000a0	0f b6 41 11	 movzx	 eax, BYTE PTR [ecx+17]
  000a4	c1 e2 08	 shl	 edx, 8
  000a7	0b d0		 or	 edx, eax
  000a9	0f b6 41 10	 movzx	 eax, BYTE PTR [ecx+16]
  000ad	c1 e2 08	 shl	 edx, 8
  000b0	0b d0		 or	 edx, eax

; 85   :     GET_ULONG_LE( X[ 5], data, 20 );

  000b2	0f b6 41 16	 movzx	 eax, BYTE PTR [ecx+22]
  000b6	89 55 d4	 mov	 DWORD PTR tv3617[ebp], edx
  000b9	0f b6 51 17	 movzx	 edx, BYTE PTR [ecx+23]
  000bd	c1 e2 08	 shl	 edx, 8
  000c0	0b d0		 or	 edx, eax
  000c2	0f b6 41 15	 movzx	 eax, BYTE PTR [ecx+21]
  000c6	c1 e2 08	 shl	 edx, 8
  000c9	0b d0		 or	 edx, eax
  000cb	0f b6 41 14	 movzx	 eax, BYTE PTR [ecx+20]
  000cf	c1 e2 08	 shl	 edx, 8
  000d2	0b d0		 or	 edx, eax

; 86   :     GET_ULONG_LE( X[ 6], data, 24 );

  000d4	0f b6 41 1a	 movzx	 eax, BYTE PTR [ecx+26]
  000d8	89 55 f8	 mov	 DWORD PTR tv3616[ebp], edx
  000db	0f b6 51 1b	 movzx	 edx, BYTE PTR [ecx+27]
  000df	c1 e2 08	 shl	 edx, 8
  000e2	0b d0		 or	 edx, eax
  000e4	0f b6 41 19	 movzx	 eax, BYTE PTR [ecx+25]
  000e8	c1 e2 08	 shl	 edx, 8
  000eb	0b d0		 or	 edx, eax
  000ed	0f b6 41 18	 movzx	 eax, BYTE PTR [ecx+24]
  000f1	c1 e2 08	 shl	 edx, 8
  000f4	0b d0		 or	 edx, eax
  000f6	89 55 dc	 mov	 DWORD PTR tv3615[ebp], edx

; 87   :     GET_ULONG_LE( X[ 7], data, 28 );

  000f9	0f b6 51 1f	 movzx	 edx, BYTE PTR [ecx+31]
  000fd	c1 e2 08	 shl	 edx, 8
  00100	0f b6 41 1e	 movzx	 eax, BYTE PTR [ecx+30]
  00104	0b d0		 or	 edx, eax

; 88   :     GET_ULONG_LE( X[ 8], data, 32 );
; 89   :     GET_ULONG_LE( X[ 9], data, 36 );
; 90   :     GET_ULONG_LE( X[10], data, 40 );
; 91   :     GET_ULONG_LE( X[11], data, 44 );
; 92   :     GET_ULONG_LE( X[12], data, 48 );
; 93   :     GET_ULONG_LE( X[13], data, 52 );
; 94   :     GET_ULONG_LE( X[14], data, 56 );

  00106	0f b6 59 3b	 movzx	 ebx, BYTE PTR [ecx+59]
  0010a	c1 e2 08	 shl	 edx, 8
  0010d	0f b6 41 1d	 movzx	 eax, BYTE PTR [ecx+29]
  00111	0b d0		 or	 edx, eax
  00113	c1 e3 08	 shl	 ebx, 8
  00116	c1 e2 08	 shl	 edx, 8
  00119	0f b6 41 1c	 movzx	 eax, BYTE PTR [ecx+28]
  0011d	0b d0		 or	 edx, eax
  0011f	0f b6 41 22	 movzx	 eax, BYTE PTR [ecx+34]
  00123	89 55 fc	 mov	 DWORD PTR tv3614[ebp], edx
  00126	0f b6 51 23	 movzx	 edx, BYTE PTR [ecx+35]
  0012a	c1 e2 08	 shl	 edx, 8
  0012d	0b d0		 or	 edx, eax
  0012f	0f b6 41 21	 movzx	 eax, BYTE PTR [ecx+33]
  00133	c1 e2 08	 shl	 edx, 8
  00136	0b d0		 or	 edx, eax
  00138	0f b6 41 20	 movzx	 eax, BYTE PTR [ecx+32]
  0013c	c1 e2 08	 shl	 edx, 8
  0013f	0b d0		 or	 edx, eax
  00141	0f b6 41 26	 movzx	 eax, BYTE PTR [ecx+38]
  00145	89 55 e4	 mov	 DWORD PTR tv3613[ebp], edx
  00148	0f b6 51 27	 movzx	 edx, BYTE PTR [ecx+39]
  0014c	c1 e2 08	 shl	 edx, 8
  0014f	0b d0		 or	 edx, eax
  00151	0f b6 41 25	 movzx	 eax, BYTE PTR [ecx+37]
  00155	c1 e2 08	 shl	 edx, 8
  00158	0b d0		 or	 edx, eax
  0015a	0f b6 41 24	 movzx	 eax, BYTE PTR [ecx+36]
  0015e	c1 e2 08	 shl	 edx, 8
  00161	0b d0		 or	 edx, eax
  00163	0f b6 41 2a	 movzx	 eax, BYTE PTR [ecx+42]
  00167	89 55 c8	 mov	 DWORD PTR tv3612[ebp], edx
  0016a	0f b6 51 2b	 movzx	 edx, BYTE PTR [ecx+43]
  0016e	c1 e2 08	 shl	 edx, 8
  00171	0b d0		 or	 edx, eax
  00173	0f b6 41 29	 movzx	 eax, BYTE PTR [ecx+41]
  00177	c1 e2 08	 shl	 edx, 8
  0017a	0b d0		 or	 edx, eax
  0017c	0f b6 41 28	 movzx	 eax, BYTE PTR [ecx+40]
  00180	c1 e2 08	 shl	 edx, 8
  00183	0b d0		 or	 edx, eax
  00185	0f b6 41 2e	 movzx	 eax, BYTE PTR [ecx+46]
  00189	89 55 ec	 mov	 DWORD PTR tv3611[ebp], edx
  0018c	0f b6 51 2f	 movzx	 edx, BYTE PTR [ecx+47]
  00190	c1 e2 08	 shl	 edx, 8
  00193	0b d0		 or	 edx, eax
  00195	0f b6 41 2d	 movzx	 eax, BYTE PTR [ecx+45]
  00199	c1 e2 08	 shl	 edx, 8
  0019c	0b d0		 or	 edx, eax
  0019e	0f b6 41 2c	 movzx	 eax, BYTE PTR [ecx+44]
  001a2	c1 e2 08	 shl	 edx, 8
  001a5	0b d0		 or	 edx, eax
  001a7	0f b6 41 32	 movzx	 eax, BYTE PTR [ecx+50]
  001ab	89 55 d0	 mov	 DWORD PTR tv3610[ebp], edx
  001ae	0f b6 51 33	 movzx	 edx, BYTE PTR [ecx+51]
  001b2	c1 e2 08	 shl	 edx, 8
  001b5	0b d0		 or	 edx, eax
  001b7	0f b6 41 31	 movzx	 eax, BYTE PTR [ecx+49]
  001bb	c1 e2 08	 shl	 edx, 8
  001be	0b d0		 or	 edx, eax
  001c0	0f b6 41 30	 movzx	 eax, BYTE PTR [ecx+48]
  001c4	c1 e2 08	 shl	 edx, 8
  001c7	0b d0		 or	 edx, eax
  001c9	0f b6 41 36	 movzx	 eax, BYTE PTR [ecx+54]
  001cd	89 55 f4	 mov	 DWORD PTR tv3609[ebp], edx
  001d0	0f b6 51 37	 movzx	 edx, BYTE PTR [ecx+55]
  001d4	c1 e2 08	 shl	 edx, 8
  001d7	0b d0		 or	 edx, eax
  001d9	0f b6 41 35	 movzx	 eax, BYTE PTR [ecx+53]
  001dd	c1 e2 08	 shl	 edx, 8
  001e0	0b d0		 or	 edx, eax
  001e2	0f b6 41 34	 movzx	 eax, BYTE PTR [ecx+52]
  001e6	c1 e2 08	 shl	 edx, 8
  001e9	0b d0		 or	 edx, eax
  001eb	0f b6 41 3a	 movzx	 eax, BYTE PTR [ecx+58]
  001ef	89 55 d8	 mov	 DWORD PTR tv3608[ebp], edx
  001f2	0b d8		 or	 ebx, eax
  001f4	0f b6 41 39	 movzx	 eax, BYTE PTR [ecx+57]

; 95   :     GET_ULONG_LE( X[15], data, 60 );

  001f8	0f b6 51 3f	 movzx	 edx, BYTE PTR [ecx+63]
  001fc	c1 e2 08	 shl	 edx, 8
  001ff	c1 e3 08	 shl	 ebx, 8
  00202	0b d8		 or	 ebx, eax
  00204	0f b6 41 38	 movzx	 eax, BYTE PTR [ecx+56]
  00208	c1 e3 08	 shl	 ebx, 8
  0020b	0b d8		 or	 ebx, eax
  0020d	0f b6 41 3e	 movzx	 eax, BYTE PTR [ecx+62]
  00211	0b d0		 or	 edx, eax
  00213	89 5d c4	 mov	 DWORD PTR tv3607[ebp], ebx
  00216	0f b6 41 3d	 movzx	 eax, BYTE PTR [ecx+61]
  0021a	c1 e2 08	 shl	 edx, 8
  0021d	0b d0		 or	 edx, eax
  0021f	0f b6 41 3c	 movzx	 eax, BYTE PTR [ecx+60]

; 96   : 
; 97   : #define S(x,n) ((x << n) | ((x & 0xFFFFFFFF) >> (32 - n)))
; 98   : 
; 99   : #define P(a,b,c,d,k,s,t)                                \
; 100  : {                                                       \
; 101  :     a += F(b,c,d) + X[k] + t; a = S(a,s) + b;           \
; 102  : }
; 103  : 
; 104  :     A = ctx->state[0];
; 105  :     B = ctx->state[1];

  00223	8b 4d 08	 mov	 ecx, DWORD PTR _ctx$[ebp]
  00226	c1 e2 08	 shl	 edx, 8
  00229	0b d0		 or	 edx, eax
  0022b	89 55 e0	 mov	 DWORD PTR tv3606[ebp], edx

; 106  :     C = ctx->state[2];
; 107  :     D = ctx->state[3];

  0022e	8b 51 14	 mov	 edx, DWORD PTR [ecx+20]

; 108  : 
; 109  : #define F(x,y,z) (z ^ (x & (y ^ z)))
; 110  : 
; 111  :     P( A, B, C, D,  0,  7, 0xD76AA478 );

  00231	8b c2		 mov	 eax, edx
  00233	8b 71 10	 mov	 esi, DWORD PTR [ecx+16]
  00236	33 c6		 xor	 eax, esi
  00238	8b 79 0c	 mov	 edi, DWORD PTR [ecx+12]
  0023b	23 c7		 and	 eax, edi
  0023d	33 c2		 xor	 eax, edx

; 112  :     P( D, A, B, C,  1, 12, 0xE8C7B756 );

  0023f	81 c2 56 b7 c7
	e8		 add	 edx, -389564586		; e8c7b756H
  00245	03 41 08	 add	 eax, DWORD PTR [ecx+8]
  00248	8b 4d 0c	 mov	 ecx, DWORD PTR tv3621[ebp]
  0024b	81 c1 78 a4 6a
	d7		 add	 ecx, -680876936		; d76aa478H
  00251	03 c8		 add	 ecx, eax
  00253	8b c6		 mov	 eax, esi
  00255	33 c7		 xor	 eax, edi
  00257	c1 c9 19	 ror	 ecx, 25			; 00000019H
  0025a	03 cf		 add	 ecx, edi
  0025c	23 c1		 and	 eax, ecx
  0025e	33 c6		 xor	 eax, esi

; 113  :     P( C, D, A, B,  2, 17, 0x242070DB );

  00260	81 c6 db 70 20
	24		 add	 esi, 606105819		; 242070dbH
  00266	03 45 e8	 add	 eax, DWORD PTR tv3620[ebp]
  00269	03 d0		 add	 edx, eax
  0026b	8b c7		 mov	 eax, edi
  0026d	33 c1		 xor	 eax, ecx
  0026f	c1 ca 14	 ror	 edx, 20			; 00000014H
  00272	03 d1		 add	 edx, ecx
  00274	23 c2		 and	 eax, edx
  00276	33 c7		 xor	 eax, edi

; 114  :     P( B, C, D, A,  3, 22, 0xC1BDCEEE );

  00278	81 c7 ee ce bd
	c1		 add	 edi, -1044525330	; c1bdceeeH
  0027e	03 45 cc	 add	 eax, DWORD PTR tv3619[ebp]
  00281	03 f0		 add	 esi, eax
  00283	8b c2		 mov	 eax, edx
  00285	33 c1		 xor	 eax, ecx
  00287	c1 ce 0f	 ror	 esi, 15			; 0000000fH
  0028a	03 f2		 add	 esi, edx
  0028c	23 c6		 and	 eax, esi
  0028e	33 c1		 xor	 eax, ecx
  00290	03 45 f0	 add	 eax, DWORD PTR tv3618[ebp]
  00293	03 f8		 add	 edi, eax

; 115  :     P( A, B, C, D,  4,  7, 0xF57C0FAF );

  00295	8b c2		 mov	 eax, edx
  00297	33 c6		 xor	 eax, esi
  00299	c1 cf 0a	 ror	 edi, 10			; 0000000aH
  0029c	03 fe		 add	 edi, esi
  0029e	23 c7		 and	 eax, edi
  002a0	33 c2		 xor	 eax, edx
  002a2	05 af 0f 7c f5	 add	 eax, -176418897		; f57c0fafH
  002a7	03 45 d4	 add	 eax, DWORD PTR tv3617[ebp]
  002aa	03 c8		 add	 ecx, eax

; 116  :     P( D, A, B, C,  5, 12, 0x4787C62A );

  002ac	8b c6		 mov	 eax, esi
  002ae	33 c7		 xor	 eax, edi
  002b0	c1 c9 19	 ror	 ecx, 25			; 00000019H
  002b3	03 cf		 add	 ecx, edi
  002b5	23 c1		 and	 eax, ecx
  002b7	33 c6		 xor	 eax, esi
  002b9	05 2a c6 87 47	 add	 eax, 1200080426		; 4787c62aH
  002be	03 45 f8	 add	 eax, DWORD PTR tv3616[ebp]
  002c1	03 d0		 add	 edx, eax

; 117  :     P( C, D, A, B,  6, 17, 0xA8304613 );

  002c3	8b c7		 mov	 eax, edi
  002c5	c1 ca 14	 ror	 edx, 20			; 00000014H
  002c8	33 c1		 xor	 eax, ecx
  002ca	03 d1		 add	 edx, ecx
  002cc	23 c2		 and	 eax, edx
  002ce	33 c7		 xor	 eax, edi
  002d0	05 13 46 30 a8	 add	 eax, -1473231341	; a8304613H
  002d5	03 45 dc	 add	 eax, DWORD PTR tv3615[ebp]
  002d8	03 f0		 add	 esi, eax

; 118  :     P( B, C, D, A,  7, 22, 0xFD469501 );

  002da	8b c2		 mov	 eax, edx
  002dc	33 c1		 xor	 eax, ecx
  002de	c1 ce 0f	 ror	 esi, 15			; 0000000fH
  002e1	03 f2		 add	 esi, edx
  002e3	23 c6		 and	 eax, esi
  002e5	33 c1		 xor	 eax, ecx
  002e7	05 01 95 46 fd	 add	 eax, -45705983		; fd469501H
  002ec	03 45 fc	 add	 eax, DWORD PTR tv3614[ebp]
  002ef	03 f8		 add	 edi, eax

; 119  :     P( A, B, C, D,  8,  7, 0x698098D8 );

  002f1	8b c2		 mov	 eax, edx
  002f3	33 c6		 xor	 eax, esi
  002f5	c1 cf 0a	 ror	 edi, 10			; 0000000aH
  002f8	03 fe		 add	 edi, esi
  002fa	23 c7		 and	 eax, edi
  002fc	33 c2		 xor	 eax, edx
  002fe	05 d8 98 80 69	 add	 eax, 1770035416		; 698098d8H
  00303	03 45 e4	 add	 eax, DWORD PTR tv3613[ebp]
  00306	03 c8		 add	 ecx, eax

; 120  :     P( D, A, B, C,  9, 12, 0x8B44F7AF );

  00308	8b c6		 mov	 eax, esi
  0030a	33 c7		 xor	 eax, edi
  0030c	c1 c9 19	 ror	 ecx, 25			; 00000019H
  0030f	03 cf		 add	 ecx, edi
  00311	23 c1		 and	 eax, ecx
  00313	33 c6		 xor	 eax, esi
  00315	05 af f7 44 8b	 add	 eax, -1958414417	; 8b44f7afH
  0031a	03 45 c8	 add	 eax, DWORD PTR tv3612[ebp]
  0031d	03 d0		 add	 edx, eax

; 121  :     P( C, D, A, B, 10, 17, 0xFFFF5BB1 );

  0031f	8b c7		 mov	 eax, edi
  00321	33 c1		 xor	 eax, ecx
  00323	c1 ca 14	 ror	 edx, 20			; 00000014H
  00326	03 d1		 add	 edx, ecx
  00328	23 c2		 and	 eax, edx
  0032a	33 c7		 xor	 eax, edi
  0032c	05 b1 5b ff ff	 add	 eax, -42063		; ffff5bb1H
  00331	03 45 ec	 add	 eax, DWORD PTR tv3611[ebp]
  00334	03 f0		 add	 esi, eax

; 122  :     P( B, C, D, A, 11, 22, 0x895CD7BE );

  00336	8b c2		 mov	 eax, edx
  00338	33 c1		 xor	 eax, ecx
  0033a	c1 ce 0f	 ror	 esi, 15			; 0000000fH
  0033d	03 f2		 add	 esi, edx
  0033f	23 c6		 and	 eax, esi
  00341	33 c1		 xor	 eax, ecx
  00343	05 be d7 5c 89	 add	 eax, -1990404162	; 895cd7beH
  00348	03 45 d0	 add	 eax, DWORD PTR tv3610[ebp]
  0034b	03 f8		 add	 edi, eax

; 123  :     P( A, B, C, D, 12,  7, 0x6B901122 );

  0034d	8b c2		 mov	 eax, edx
  0034f	33 c6		 xor	 eax, esi
  00351	c1 cf 0a	 ror	 edi, 10			; 0000000aH
  00354	03 fe		 add	 edi, esi
  00356	23 c7		 and	 eax, edi
  00358	33 c2		 xor	 eax, edx
  0035a	05 22 11 90 6b	 add	 eax, 1804603682		; 6b901122H
  0035f	03 45 f4	 add	 eax, DWORD PTR tv3609[ebp]
  00362	03 c8		 add	 ecx, eax

; 124  :     P( D, A, B, C, 13, 12, 0xFD987193 );

  00364	8b c6		 mov	 eax, esi
  00366	33 c7		 xor	 eax, edi
  00368	c1 c9 19	 ror	 ecx, 25			; 00000019H
  0036b	03 cf		 add	 ecx, edi
  0036d	23 c1		 and	 eax, ecx
  0036f	33 c6		 xor	 eax, esi
  00371	05 93 71 98 fd	 add	 eax, -40341101		; fd987193H
  00376	03 45 d8	 add	 eax, DWORD PTR tv3608[ebp]
  00379	03 d0		 add	 edx, eax

; 125  :     P( C, D, A, B, 14, 17, 0xA679438E );

  0037b	8b c7		 mov	 eax, edi
  0037d	33 c1		 xor	 eax, ecx
  0037f	c1 ca 14	 ror	 edx, 20			; 00000014H
  00382	03 d1		 add	 edx, ecx
  00384	23 c2		 and	 eax, edx
  00386	33 c7		 xor	 eax, edi
  00388	05 8e 43 79 a6	 add	 eax, -1502002290	; a679438eH
  0038d	03 c3		 add	 eax, ebx
  0038f	03 f0		 add	 esi, eax

; 126  :     P( B, C, D, A, 15, 22, 0x49B40821 );

  00391	8b c2		 mov	 eax, edx
  00393	c1 ce 0f	 ror	 esi, 15			; 0000000fH
  00396	33 c1		 xor	 eax, ecx
  00398	03 f2		 add	 esi, edx
  0039a	23 c6		 and	 eax, esi
  0039c	33 c1		 xor	 eax, ecx
  0039e	05 21 08 b4 49	 add	 eax, 1236535329		; 49b40821H
  003a3	03 45 e0	 add	 eax, DWORD PTR tv3606[ebp]
  003a6	03 f8		 add	 edi, eax

; 127  : 
; 128  : #undef F
; 129  : 
; 130  : #define F(x,y,z) (y ^ (z & (x ^ y)))
; 131  : 
; 132  :     P( A, B, C, D,  1,  5, 0xF61E2562 );

  003a8	8b c6		 mov	 eax, esi
  003aa	c1 cf 0a	 ror	 edi, 10			; 0000000aH
  003ad	03 fe		 add	 edi, esi
  003af	33 c7		 xor	 eax, edi
  003b1	23 c2		 and	 eax, edx
  003b3	33 c6		 xor	 eax, esi
  003b5	05 62 25 1e f6	 add	 eax, -165796510		; f61e2562H
  003ba	03 45 e8	 add	 eax, DWORD PTR tv3620[ebp]
  003bd	03 c8		 add	 ecx, eax

; 133  :     P( D, A, B, C,  6,  9, 0xC040B340 );

  003bf	8b c7		 mov	 eax, edi
  003c1	c1 c9 1b	 ror	 ecx, 27			; 0000001bH
  003c4	03 cf		 add	 ecx, edi
  003c6	33 c1		 xor	 eax, ecx
  003c8	23 c6		 and	 eax, esi
  003ca	33 c7		 xor	 eax, edi
  003cc	05 40 b3 40 c0	 add	 eax, -1069501632	; c040b340H
  003d1	03 45 dc	 add	 eax, DWORD PTR tv3615[ebp]
  003d4	03 d0		 add	 edx, eax
  003d6	c1 ca 17	 ror	 edx, 23			; 00000017H
  003d9	03 d1		 add	 edx, ecx

; 134  :     P( C, D, A, B, 11, 14, 0x265E5A51 );

  003db	8b c2		 mov	 eax, edx
  003dd	33 c1		 xor	 eax, ecx
  003df	23 c7		 and	 eax, edi
  003e1	33 c1		 xor	 eax, ecx
  003e3	05 51 5a 5e 26	 add	 eax, 643717713		; 265e5a51H
  003e8	03 45 d0	 add	 eax, DWORD PTR tv3610[ebp]
  003eb	03 f0		 add	 esi, eax

; 135  :     P( B, C, D, A,  0, 20, 0xE9B6C7AA );

  003ed	8b c2		 mov	 eax, edx
  003ef	c1 ce 12	 ror	 esi, 18			; 00000012H
  003f2	03 f2		 add	 esi, edx
  003f4	33 c6		 xor	 eax, esi
  003f6	23 c1		 and	 eax, ecx
  003f8	33 c2		 xor	 eax, edx
  003fa	05 aa c7 b6 e9	 add	 eax, -373897302		; e9b6c7aaH
  003ff	03 45 0c	 add	 eax, DWORD PTR tv3621[ebp]
  00402	03 f8		 add	 edi, eax

; 136  :     P( A, B, C, D,  5,  5, 0xD62F105D );

  00404	8b c6		 mov	 eax, esi
  00406	c1 cf 0c	 ror	 edi, 12			; 0000000cH
  00409	03 fe		 add	 edi, esi
  0040b	33 c7		 xor	 eax, edi
  0040d	23 c2		 and	 eax, edx
  0040f	33 c6		 xor	 eax, esi
  00411	05 5d 10 2f d6	 add	 eax, -701558691		; d62f105dH
  00416	03 45 f8	 add	 eax, DWORD PTR tv3616[ebp]
  00419	03 c8		 add	 ecx, eax

; 137  :     P( D, A, B, C, 10,  9, 0x02441453 );

  0041b	8b c7		 mov	 eax, edi
  0041d	c1 c9 1b	 ror	 ecx, 27			; 0000001bH
  00420	03 cf		 add	 ecx, edi
  00422	33 c1		 xor	 eax, ecx
  00424	23 c6		 and	 eax, esi
  00426	33 c7		 xor	 eax, edi
  00428	05 53 14 44 02	 add	 eax, 38016083		; 02441453H
  0042d	03 45 ec	 add	 eax, DWORD PTR tv3611[ebp]
  00430	03 d0		 add	 edx, eax
  00432	c1 ca 17	 ror	 edx, 23			; 00000017H
  00435	03 d1		 add	 edx, ecx

; 138  :     P( C, D, A, B, 15, 14, 0xD8A1E681 );

  00437	8b c2		 mov	 eax, edx
  00439	33 c1		 xor	 eax, ecx
  0043b	23 c7		 and	 eax, edi
  0043d	33 c1		 xor	 eax, ecx
  0043f	05 81 e6 a1 d8	 add	 eax, -660478335		; d8a1e681H
  00444	03 45 e0	 add	 eax, DWORD PTR tv3606[ebp]
  00447	03 f0		 add	 esi, eax

; 139  :     P( B, C, D, A,  4, 20, 0xE7D3FBC8 );

  00449	8b c2		 mov	 eax, edx
  0044b	c1 ce 12	 ror	 esi, 18			; 00000012H
  0044e	03 f2		 add	 esi, edx
  00450	33 c6		 xor	 eax, esi
  00452	23 c1		 and	 eax, ecx
  00454	33 c2		 xor	 eax, edx
  00456	05 c8 fb d3 e7	 add	 eax, -405537848		; e7d3fbc8H
  0045b	03 45 d4	 add	 eax, DWORD PTR tv3617[ebp]
  0045e	03 f8		 add	 edi, eax

; 140  :     P( A, B, C, D,  9,  5, 0x21E1CDE6 );

  00460	8b c6		 mov	 eax, esi
  00462	c1 cf 0c	 ror	 edi, 12			; 0000000cH
  00465	03 fe		 add	 edi, esi
  00467	33 c7		 xor	 eax, edi
  00469	23 c2		 and	 eax, edx
  0046b	33 c6		 xor	 eax, esi
  0046d	05 e6 cd e1 21	 add	 eax, 568446438		; 21e1cde6H

; 141  :     P( D, A, B, C, 14,  9, 0xC33707D6 );

  00472	81 c3 d6 07 37
	c3		 add	 ebx, -1019803690	; c33707d6H
  00478	03 45 c8	 add	 eax, DWORD PTR tv3612[ebp]
  0047b	03 c8		 add	 ecx, eax
  0047d	8b c7		 mov	 eax, edi
  0047f	c1 c9 1b	 ror	 ecx, 27			; 0000001bH
  00482	03 cf		 add	 ecx, edi
  00484	33 c1		 xor	 eax, ecx
  00486	23 c6		 and	 eax, esi
  00488	33 c7		 xor	 eax, edi
  0048a	03 c3		 add	 eax, ebx

; 142  :     P( C, D, A, B,  3, 14, 0xF4D50D87 );

  0048c	8d 9e 87 0d d5
	f4		 lea	 ebx, DWORD PTR [esi-187363961]
  00492	03 d0		 add	 edx, eax

; 143  :     P( B, C, D, A,  8, 20, 0x455A14ED );
; 144  :     P( A, B, C, D, 13,  5, 0xA9E3E905 );

  00494	8d b1 05 e9 e3
	a9		 lea	 esi, DWORD PTR [ecx-1444681467]
  0049a	c1 ca 17	 ror	 edx, 23			; 00000017H
  0049d	03 d1		 add	 edx, ecx
  0049f	8b c2		 mov	 eax, edx
  004a1	33 c1		 xor	 eax, ecx
  004a3	23 c7		 and	 eax, edi
  004a5	33 c1		 xor	 eax, ecx
  004a7	03 45 f0	 add	 eax, DWORD PTR tv3618[ebp]
  004aa	03 d8		 add	 ebx, eax
  004ac	8b c2		 mov	 eax, edx
  004ae	c1 cb 12	 ror	 ebx, 18			; 00000012H
  004b1	03 da		 add	 ebx, edx
  004b3	33 c3		 xor	 eax, ebx
  004b5	23 c1		 and	 eax, ecx
  004b7	33 c2		 xor	 eax, edx
  004b9	05 ed 14 5a 45	 add	 eax, 1163531501		; 455a14edH
  004be	03 45 e4	 add	 eax, DWORD PTR tv3613[ebp]
  004c1	03 f8		 add	 edi, eax
  004c3	8b c3		 mov	 eax, ebx
  004c5	c1 cf 0c	 ror	 edi, 12			; 0000000cH
  004c8	03 fb		 add	 edi, ebx
  004ca	33 c7		 xor	 eax, edi
  004cc	89 7d c0	 mov	 DWORD PTR _B$8$[ebp], edi
  004cf	23 c2		 and	 eax, edx
  004d1	33 c3		 xor	 eax, ebx
  004d3	03 45 d8	 add	 eax, DWORD PTR tv3608[ebp]
  004d6	03 f0		 add	 esi, eax

; 145  :     P( D, A, B, C,  2,  9, 0xFCEFA3F8 );

  004d8	8b c7		 mov	 eax, edi
  004da	c1 ce 1b	 ror	 esi, 27			; 0000001bH
  004dd	03 f7		 add	 esi, edi
  004df	33 c6		 xor	 eax, esi
  004e1	23 c3		 and	 eax, ebx
  004e3	33 c7		 xor	 eax, edi
  004e5	8d ba f8 a3 ef
	fc		 lea	 edi, DWORD PTR [edx-51403784]
  004eb	03 45 cc	 add	 eax, DWORD PTR tv3619[ebp]

; 146  :     P( C, D, A, B,  7, 14, 0x676F02D9 );

  004ee	8b 55 c0	 mov	 edx, DWORD PTR _B$8$[ebp]
  004f1	03 f8		 add	 edi, eax
  004f3	c1 cf 17	 ror	 edi, 23			; 00000017H
  004f6	03 fe		 add	 edi, esi
  004f8	8b c7		 mov	 eax, edi

; 147  :     P( B, C, D, A, 12, 20, 0x8D2A4C8A );

  004fa	8b cf		 mov	 ecx, edi
  004fc	33 c6		 xor	 eax, esi
  004fe	23 c2		 and	 eax, edx
  00500	81 c2 8a 4c 2a
	8d		 add	 edx, -1926607734	; 8d2a4c8aH
  00506	33 c6		 xor	 eax, esi
  00508	05 d9 02 6f 67	 add	 eax, 1735328473		; 676f02d9H
  0050d	03 45 fc	 add	 eax, DWORD PTR tv3614[ebp]
  00510	03 d8		 add	 ebx, eax
  00512	c1 cb 12	 ror	 ebx, 18			; 00000012H
  00515	03 df		 add	 ebx, edi
  00517	33 cb		 xor	 ecx, ebx
  00519	8b c1		 mov	 eax, ecx
  0051b	23 c6		 and	 eax, esi
  0051d	33 c7		 xor	 eax, edi
  0051f	03 45 f4	 add	 eax, DWORD PTR tv3609[ebp]
  00522	03 d0		 add	 edx, eax

; 148  : 
; 149  : #undef F
; 150  :     
; 151  : #define F(x,y,z) (x ^ y ^ z)
; 152  : 
; 153  :     P( A, B, C, D,  5,  4, 0xFFFA3942 );
; 154  :     P( D, A, B, C,  8, 11, 0x8771F681 );

  00524	8b c3		 mov	 eax, ebx
  00526	c1 ca 0c	 ror	 edx, 12			; 0000000cH
  00529	03 d3		 add	 edx, ebx
  0052b	33 ca		 xor	 ecx, edx
  0052d	33 c2		 xor	 eax, edx
  0052f	81 c1 42 39 fa
	ff		 add	 ecx, -378558		; fffa3942H
  00535	03 4d f8	 add	 ecx, DWORD PTR tv3616[ebp]
  00538	03 f1		 add	 esi, ecx
  0053a	c1 ce 1c	 ror	 esi, 28			; 0000001cH
  0053d	03 f2		 add	 esi, edx
  0053f	33 c6		 xor	 eax, esi
  00541	05 81 f6 71 87	 add	 eax, -2022574463	; 8771f681H
  00546	03 45 e4	 add	 eax, DWORD PTR tv3613[ebp]
  00549	03 f8		 add	 edi, eax
  0054b	c1 cf 15	 ror	 edi, 21			; 00000015H
  0054e	03 fe		 add	 edi, esi

; 155  :     P( C, D, A, B, 11, 16, 0x6D9D6122 );

  00550	8b c7		 mov	 eax, edi

; 156  :     P( B, C, D, A, 14, 23, 0xFDE5380C );

  00552	8b cf		 mov	 ecx, edi
  00554	33 c2		 xor	 eax, edx
  00556	33 c6		 xor	 eax, esi
  00558	05 22 61 9d 6d	 add	 eax, 1839030562		; 6d9d6122H
  0055d	03 45 d0	 add	 eax, DWORD PTR tv3610[ebp]
  00560	03 d8		 add	 ebx, eax
  00562	c1 cb 10	 ror	 ebx, 16			; 00000010H
  00565	03 df		 add	 ebx, edi
  00567	33 cb		 xor	 ecx, ebx
  00569	8b c1		 mov	 eax, ecx
  0056b	33 c6		 xor	 eax, esi
  0056d	05 0c 38 e5 fd	 add	 eax, -35309556		; fde5380cH
  00572	03 45 c4	 add	 eax, DWORD PTR tv3607[ebp]
  00575	03 d0		 add	 edx, eax

; 157  :     P( A, B, C, D,  1,  4, 0xA4BEEA44 );
; 158  :     P( D, A, B, C,  4, 11, 0x4BDECFA9 );

  00577	8b c3		 mov	 eax, ebx
  00579	c1 ca 09	 ror	 edx, 9
  0057c	03 d3		 add	 edx, ebx
  0057e	33 c2		 xor	 eax, edx
  00580	33 ca		 xor	 ecx, edx
  00582	81 c1 44 ea be
	a4		 add	 ecx, -1530992060	; a4beea44H
  00588	03 4d e8	 add	 ecx, DWORD PTR tv3620[ebp]
  0058b	03 f1		 add	 esi, ecx
  0058d	c1 ce 1c	 ror	 esi, 28			; 0000001cH
  00590	03 f2		 add	 esi, edx
  00592	33 c6		 xor	 eax, esi
  00594	05 a9 cf de 4b	 add	 eax, 1272893353		; 4bdecfa9H
  00599	03 45 d4	 add	 eax, DWORD PTR tv3617[ebp]
  0059c	03 f8		 add	 edi, eax
  0059e	c1 cf 15	 ror	 edi, 21			; 00000015H
  005a1	03 fe		 add	 edi, esi

; 159  :     P( C, D, A, B,  7, 16, 0xF6BB4B60 );

  005a3	8b c7		 mov	 eax, edi

; 160  :     P( B, C, D, A, 10, 23, 0xBEBFBC70 );

  005a5	8b cf		 mov	 ecx, edi
  005a7	33 c2		 xor	 eax, edx
  005a9	33 c6		 xor	 eax, esi
  005ab	05 60 4b bb f6	 add	 eax, -155497632		; f6bb4b60H
  005b0	03 45 fc	 add	 eax, DWORD PTR tv3614[ebp]
  005b3	03 d8		 add	 ebx, eax
  005b5	c1 cb 10	 ror	 ebx, 16			; 00000010H
  005b8	03 df		 add	 ebx, edi
  005ba	33 cb		 xor	 ecx, ebx
  005bc	8b c1		 mov	 eax, ecx
  005be	33 c6		 xor	 eax, esi
  005c0	05 70 bc bf be	 add	 eax, -1094730640	; bebfbc70H
  005c5	03 45 ec	 add	 eax, DWORD PTR tv3611[ebp]
  005c8	03 d0		 add	 edx, eax

; 161  :     P( A, B, C, D, 13,  4, 0x289B7EC6 );
; 162  :     P( D, A, B, C,  0, 11, 0xEAA127FA );

  005ca	8b c3		 mov	 eax, ebx
  005cc	c1 ca 09	 ror	 edx, 9
  005cf	03 d3		 add	 edx, ebx
  005d1	33 ca		 xor	 ecx, edx
  005d3	33 c2		 xor	 eax, edx
  005d5	81 c1 c6 7e 9b
	28		 add	 ecx, 681279174		; 289b7ec6H
  005db	03 4d d8	 add	 ecx, DWORD PTR tv3608[ebp]
  005de	03 f1		 add	 esi, ecx
  005e0	c1 ce 1c	 ror	 esi, 28			; 0000001cH
  005e3	03 f2		 add	 esi, edx
  005e5	33 c6		 xor	 eax, esi
  005e7	05 fa 27 a1 ea	 add	 eax, -358537222		; eaa127faH
  005ec	03 45 0c	 add	 eax, DWORD PTR tv3621[ebp]
  005ef	03 f8		 add	 edi, eax
  005f1	c1 cf 15	 ror	 edi, 21			; 00000015H
  005f4	03 fe		 add	 edi, esi

; 163  :     P( C, D, A, B,  3, 16, 0xD4EF3085 );

  005f6	8b c7		 mov	 eax, edi

; 164  :     P( B, C, D, A,  6, 23, 0x04881D05 );

  005f8	8b cf		 mov	 ecx, edi
  005fa	33 c2		 xor	 eax, edx
  005fc	33 c6		 xor	 eax, esi
  005fe	05 85 30 ef d4	 add	 eax, -722521979		; d4ef3085H
  00603	03 45 f0	 add	 eax, DWORD PTR tv3618[ebp]
  00606	03 d8		 add	 ebx, eax
  00608	c1 cb 10	 ror	 ebx, 16			; 00000010H
  0060b	03 df		 add	 ebx, edi
  0060d	33 cb		 xor	 ecx, ebx
  0060f	8b c1		 mov	 eax, ecx
  00611	33 c6		 xor	 eax, esi
  00613	05 05 1d 88 04	 add	 eax, 76029189		; 04881d05H
  00618	03 45 dc	 add	 eax, DWORD PTR tv3615[ebp]
  0061b	03 d0		 add	 edx, eax
  0061d	c1 ca 09	 ror	 edx, 9

; 165  :     P( A, B, C, D,  9,  4, 0xD9D4D039 );

  00620	81 c6 39 d0 d4
	d9		 add	 esi, -640364487		; d9d4d039H
  00626	03 d3		 add	 edx, ebx

; 166  :     P( D, A, B, C, 12, 11, 0xE6DB99E5 );

  00628	8b c3		 mov	 eax, ebx
  0062a	33 c2		 xor	 eax, edx
  0062c	33 ca		 xor	 ecx, edx
  0062e	03 4d c8	 add	 ecx, DWORD PTR tv3612[ebp]
  00631	03 ce		 add	 ecx, esi
  00633	8d b7 e5 99 db
	e6		 lea	 esi, DWORD PTR [edi-421815835]
  00639	c1 c9 1c	 ror	 ecx, 28			; 0000001cH
  0063c	03 ca		 add	 ecx, edx
  0063e	33 c1		 xor	 eax, ecx
  00640	03 45 f4	 add	 eax, DWORD PTR tv3609[ebp]
  00643	03 f0		 add	 esi, eax
  00645	c1 ce 15	 ror	 esi, 21			; 00000015H
  00648	03 f1		 add	 esi, ecx

; 167  :     P( C, D, A, B, 15, 16, 0x1FA27CF8 );

  0064a	8b fe		 mov	 edi, esi

; 168  :     P( B, C, D, A,  2, 23, 0xC4AC5665 );

  0064c	8b c6		 mov	 eax, esi
  0064e	33 fa		 xor	 edi, edx
  00650	33 f9		 xor	 edi, ecx
  00652	81 c7 f8 7c a2
	1f		 add	 edi, 530742520		; 1fa27cf8H
  00658	03 7d e0	 add	 edi, DWORD PTR tv3606[ebp]
  0065b	03 fb		 add	 edi, ebx
  0065d	c1 cf 10	 ror	 edi, 16			; 00000010H
  00660	03 fe		 add	 edi, esi
  00662	33 c7		 xor	 eax, edi
  00664	33 c1		 xor	 eax, ecx
  00666	05 65 56 ac c4	 add	 eax, -995338651		; c4ac5665H
  0066b	03 45 cc	 add	 eax, DWORD PTR tv3619[ebp]
  0066e	03 d0		 add	 edx, eax

; 169  : 
; 170  : #undef F
; 171  : 
; 172  : #define F(x,y,z) (y ^ (x | ~z))
; 173  : 
; 174  :     P( A, B, C, D,  0,  6, 0xF4292244 );

  00670	8b c6		 mov	 eax, esi
  00672	f7 d0		 not	 eax
  00674	c1 ca 09	 ror	 edx, 9
  00677	03 d7		 add	 edx, edi
  00679	0b c2		 or	 eax, edx
  0067b	33 c7		 xor	 eax, edi
  0067d	05 44 22 29 f4	 add	 eax, -198630844		; f4292244H
  00682	03 45 0c	 add	 eax, DWORD PTR tv3621[ebp]
  00685	03 c8		 add	 ecx, eax

; 175  :     P( D, A, B, C,  7, 10, 0x432AFF97 );

  00687	8b c7		 mov	 eax, edi
  00689	f7 d0		 not	 eax
  0068b	c1 c9 1a	 ror	 ecx, 26			; 0000001aH
  0068e	03 ca		 add	 ecx, edx
  00690	0b c1		 or	 eax, ecx
  00692	33 c2		 xor	 eax, edx
  00694	05 97 ff 2a 43	 add	 eax, 1126891415		; 432aff97H
  00699	03 45 fc	 add	 eax, DWORD PTR tv3614[ebp]
  0069c	03 f0		 add	 esi, eax

; 176  :     P( C, D, A, B, 14, 15, 0xAB9423A7 );

  0069e	8b c2		 mov	 eax, edx
  006a0	f7 d0		 not	 eax
  006a2	c1 ce 16	 ror	 esi, 22			; 00000016H
  006a5	03 f1		 add	 esi, ecx
  006a7	0b c6		 or	 eax, esi
  006a9	33 c1		 xor	 eax, ecx
  006ab	05 a7 23 94 ab	 add	 eax, -1416354905	; ab9423a7H
  006b0	03 45 c4	 add	 eax, DWORD PTR tv3607[ebp]
  006b3	03 f8		 add	 edi, eax

; 177  :     P( B, C, D, A,  5, 21, 0xFC93A039 );

  006b5	8b c1		 mov	 eax, ecx
  006b7	f7 d0		 not	 eax
  006b9	c1 cf 11	 ror	 edi, 17			; 00000011H
  006bc	03 fe		 add	 edi, esi
  006be	0b c7		 or	 eax, edi
  006c0	33 c6		 xor	 eax, esi
  006c2	05 39 a0 93 fc	 add	 eax, -57434055		; fc93a039H
  006c7	03 45 f8	 add	 eax, DWORD PTR tv3616[ebp]
  006ca	03 d0		 add	 edx, eax

; 178  :     P( A, B, C, D, 12,  6, 0x655B59C3 );

  006cc	8b c6		 mov	 eax, esi
  006ce	f7 d0		 not	 eax
  006d0	c1 ca 0b	 ror	 edx, 11			; 0000000bH
  006d3	03 d7		 add	 edx, edi
  006d5	0b c2		 or	 eax, edx
  006d7	33 c7		 xor	 eax, edi
  006d9	05 c3 59 5b 65	 add	 eax, 1700485571		; 655b59c3H
  006de	03 45 f4	 add	 eax, DWORD PTR tv3609[ebp]
  006e1	03 c8		 add	 ecx, eax

; 179  :     P( D, A, B, C,  3, 10, 0x8F0CCC92 );

  006e3	8b c7		 mov	 eax, edi
  006e5	c1 c9 1a	 ror	 ecx, 26			; 0000001aH
  006e8	f7 d0		 not	 eax
  006ea	03 ca		 add	 ecx, edx
  006ec	0b c1		 or	 eax, ecx
  006ee	33 c2		 xor	 eax, edx
  006f0	05 92 cc 0c 8f	 add	 eax, -1894986606	; 8f0ccc92H
  006f5	03 45 f0	 add	 eax, DWORD PTR tv3618[ebp]
  006f8	03 f0		 add	 esi, eax

; 180  :     P( C, D, A, B, 10, 15, 0xFFEFF47D );

  006fa	8b c2		 mov	 eax, edx
  006fc	f7 d0		 not	 eax
  006fe	c1 ce 16	 ror	 esi, 22			; 00000016H
  00701	03 f1		 add	 esi, ecx
  00703	0b c6		 or	 eax, esi
  00705	33 c1		 xor	 eax, ecx
  00707	05 7d f4 ef ff	 add	 eax, -1051523		; ffeff47dH
  0070c	03 45 ec	 add	 eax, DWORD PTR tv3611[ebp]

; 181  :     P( B, C, D, A,  1, 21, 0x85845DD1 );
; 182  :     P( A, B, C, D,  8,  6, 0x6FA87E4F );
; 183  :     P( D, A, B, C, 15, 10, 0xFE2CE6E0 );

  0070f	8d 9e e0 e6 2c
	fe		 lea	 ebx, DWORD PTR [esi-30611744]
  00715	03 f8		 add	 edi, eax
  00717	8b c1		 mov	 eax, ecx
  00719	f7 d0		 not	 eax
  0071b	c1 cf 11	 ror	 edi, 17			; 00000011H
  0071e	03 fe		 add	 edi, esi
  00720	0b c7		 or	 eax, edi
  00722	33 c6		 xor	 eax, esi
  00724	05 d1 5d 84 85	 add	 eax, -2054922799	; 85845dd1H
  00729	03 45 e8	 add	 eax, DWORD PTR tv3620[ebp]
  0072c	03 d0		 add	 edx, eax
  0072e	8b c6		 mov	 eax, esi
  00730	f7 d0		 not	 eax
  00732	c1 ca 0b	 ror	 edx, 11			; 0000000bH
  00735	03 d7		 add	 edx, edi
  00737	0b c2		 or	 eax, edx
  00739	33 c7		 xor	 eax, edi
  0073b	05 4f 7e a8 6f	 add	 eax, 1873313359		; 6fa87e4fH
  00740	03 45 e4	 add	 eax, DWORD PTR tv3613[ebp]
  00743	03 c8		 add	 ecx, eax
  00745	8b c7		 mov	 eax, edi
  00747	f7 d0		 not	 eax
  00749	c1 c9 1a	 ror	 ecx, 26			; 0000001aH
  0074c	03 ca		 add	 ecx, edx
  0074e	0b c1		 or	 eax, ecx
  00750	33 c2		 xor	 eax, edx
  00752	03 45 e0	 add	 eax, DWORD PTR tv3606[ebp]
  00755	03 d8		 add	 ebx, eax

; 184  :     P( C, D, A, B,  6, 15, 0xA3014314 );
; 185  :     P( B, C, D, A, 13, 21, 0x4E0811A1 );
; 186  :     P( A, B, C, D,  4,  6, 0xF7537E82 );

  00757	8d b1 82 7e 53
	f7		 lea	 esi, DWORD PTR [ecx-145523070]
  0075d	8b c2		 mov	 eax, edx
  0075f	c1 cb 16	 ror	 ebx, 22			; 00000016H
  00762	f7 d0		 not	 eax
  00764	03 d9		 add	 ebx, ecx
  00766	0b c3		 or	 eax, ebx
  00768	33 c1		 xor	 eax, ecx
  0076a	05 14 43 01 a3	 add	 eax, -1560198380	; a3014314H
  0076f	03 45 dc	 add	 eax, DWORD PTR tv3615[ebp]
  00772	03 f8		 add	 edi, eax
  00774	8b c1		 mov	 eax, ecx
  00776	f7 d0		 not	 eax
  00778	c1 cf 11	 ror	 edi, 17			; 00000011H
  0077b	03 fb		 add	 edi, ebx
  0077d	0b c7		 or	 eax, edi
  0077f	33 c3		 xor	 eax, ebx
  00781	05 a1 11 08 4e	 add	 eax, 1309151649		; 4e0811a1H
  00786	03 45 d8	 add	 eax, DWORD PTR tv3608[ebp]
  00789	03 d0		 add	 edx, eax
  0078b	8b c3		 mov	 eax, ebx
  0078d	f7 d0		 not	 eax
  0078f	c1 ca 0b	 ror	 edx, 11			; 0000000bH
  00792	03 d7		 add	 edx, edi
  00794	0b c2		 or	 eax, edx
  00796	89 55 0c	 mov	 DWORD PTR _B$16$[ebp], edx
  00799	33 c7		 xor	 eax, edi
  0079b	03 45 d4	 add	 eax, DWORD PTR tv3617[ebp]
  0079e	03 f0		 add	 esi, eax

; 187  :     P( D, A, B, C, 11, 10, 0xBD3AF235 );

  007a0	8b c7		 mov	 eax, edi
  007a2	f7 d0		 not	 eax
  007a4	c1 ce 1a	 ror	 esi, 26			; 0000001aH
  007a7	03 f2		 add	 esi, edx
  007a9	0b c6		 or	 eax, esi
  007ab	33 c2		 xor	 eax, edx
  007ad	8d 93 35 f2 3a
	bd		 lea	 edx, DWORD PTR [ebx-1120210379]
  007b3	03 45 d0	 add	 eax, DWORD PTR tv3610[ebp]

; 188  :     P( C, D, A, B,  2, 15, 0x2AD7D2BB );

  007b6	8b 5d 0c	 mov	 ebx, DWORD PTR _B$16$[ebp]
  007b9	03 d0		 add	 edx, eax
  007bb	c1 ca 16	 ror	 edx, 22			; 00000016H
  007be	8b c3		 mov	 eax, ebx
  007c0	03 d6		 add	 edx, esi
  007c2	f7 d0		 not	 eax
  007c4	0b c2		 or	 eax, edx
  007c6	8d 8f bb d2 d7
	2a		 lea	 ecx, DWORD PTR [edi+718787259]

; 189  :     P( B, C, D, A,  9, 21, 0xEB86D391 );
; 190  : 
; 191  : #undef F
; 192  : 
; 193  :     ctx->state[0] += A;

  007cc	8b 7d 08	 mov	 edi, DWORD PTR _ctx$[ebp]
  007cf	33 c6		 xor	 eax, esi
  007d1	03 45 cc	 add	 eax, DWORD PTR tv3619[ebp]
  007d4	03 c8		 add	 ecx, eax
  007d6	8d 83 91 d3 86
	eb		 lea	 eax, DWORD PTR [ebx-343485551]
  007dc	c1 c9 11	 ror	 ecx, 17			; 00000011H
  007df	01 77 08	 add	 DWORD PTR [edi+8], esi
  007e2	03 ca		 add	 ecx, edx

; 194  :     ctx->state[1] += B;
; 195  :     ctx->state[2] += C;

  007e4	01 4f 10	 add	 DWORD PTR [edi+16], ecx
  007e7	f7 d6		 not	 esi
  007e9	0b f1		 or	 esi, ecx
  007eb	33 f2		 xor	 esi, edx
  007ed	03 75 c8	 add	 esi, DWORD PTR tv3612[ebp]
  007f0	03 c6		 add	 eax, esi
  007f2	c1 c8 0b	 ror	 eax, 11			; 0000000bH
  007f5	03 47 0c	 add	 eax, DWORD PTR [edi+12]
  007f8	03 c1		 add	 eax, ecx

; 196  :     ctx->state[3] += D;

  007fa	01 57 14	 add	 DWORD PTR [edi+20], edx
  007fd	89 47 0c	 mov	 DWORD PTR [edi+12], eax
  00800	5f		 pop	 edi
  00801	5e		 pop	 esi
  00802	5b		 pop	 ebx

; 197  : }

  00803	8b e5		 mov	 esp, ebp
  00805	5d		 pop	 ebp
  00806	c3		 ret	 0
?md5_process@@YAXPAUmd5_context@@QAE@Z ENDP		; md5_process
_TEXT	ENDS
; Function compile flags: /Ogtp
; File E:\Proyectos\JuegosOnlineproyectos\PB\pbblow\Piercing Blow Remake\i3Server\src\i3Base\i3MD5.cpp
;	COMDAT ?Getmd5_file@i3MD5@@YAHPADQAE@Z
_TEXT	SEGMENT
_ctx$1 = -1244						; size = 216
_buf$2 = -1028						; size = 1024
__$ArrayPad$ = -4					; size = 4
_path$ = 8						; size = 4
_output$ = 12						; size = 4
?Getmd5_file@i3MD5@@YAHPADQAE@Z PROC			; i3MD5::Getmd5_file, COMDAT

; 626  : {

  00000	55		 push	 ebp
  00001	8b ec		 mov	 ebp, esp
  00003	81 ec dc 04 00
	00		 sub	 esp, 1244		; 000004dcH
  00009	a1 00 00 00 00	 mov	 eax, DWORD PTR ___security_cookie
  0000e	33 c5		 xor	 eax, ebp
  00010	89 45 fc	 mov	 DWORD PTR __$ArrayPad$[ebp], eax
  00013	8b 45 08	 mov	 eax, DWORD PTR _path$[ebp]
  00016	56		 push	 esi
  00017	57		 push	 edi
  00018	8b 7d 0c	 mov	 edi, DWORD PTR _output$[ebp]

; 303  :     if( ( f = fopen( path, "rb" ) ) == NULL )

  0001b	68 00 00 00 00	 push	 OFFSET ??_C@_02JDPG@rb@
  00020	50		 push	 eax
  00021	e8 00 00 00 00	 call	 _fopen
  00026	8b f0		 mov	 esi, eax
  00028	83 c4 08	 add	 esp, 8
  0002b	85 f6		 test	 esi, esi
  0002d	75 13		 jne	 SHORT $LN6@Getmd5_fil

; 627  :     return md5_file(path,output);

  0002f	5f		 pop	 edi
  00030	8d 46 01	 lea	 eax, DWORD PTR [esi+1]

; 628  : }

  00033	5e		 pop	 esi
  00034	8b 4d fc	 mov	 ecx, DWORD PTR __$ArrayPad$[ebp]
  00037	33 cd		 xor	 ecx, ebp
  00039	e8 00 00 00 00	 call	 @__security_check_cookie@4
  0003e	8b e5		 mov	 esp, ebp
  00040	5d		 pop	 ebp
  00041	c3		 ret	 0
$LN6@Getmd5_fil:

; 308  :     while( ( n = fread( buf, 1, sizeof( buf ), f ) ) > 0 )

  00042	56		 push	 esi
  00043	68 00 04 00 00	 push	 1024			; 00000400H
  00048	8d 85 fc fb ff
	ff		 lea	 eax, DWORD PTR _buf$2[ebp]

; 67   :     ctx->total[0] = 0;

  0004e	c7 85 24 fb ff
	ff 00 00 00 00	 mov	 DWORD PTR _ctx$1[ebp], 0

; 308  :     while( ( n = fread( buf, 1, sizeof( buf ), f ) ) > 0 )

  00058	6a 01		 push	 1
  0005a	50		 push	 eax

; 68   :     ctx->total[1] = 0;

  0005b	c7 85 28 fb ff
	ff 00 00 00 00	 mov	 DWORD PTR _ctx$1[ebp+4], 0

; 69   : 
; 70   :     ctx->state[0] = 0x67452301;

  00065	c7 85 2c fb ff
	ff 01 23 45 67	 mov	 DWORD PTR _ctx$1[ebp+8], 1732584193 ; 67452301H

; 71   :     ctx->state[1] = 0xEFCDAB89;

  0006f	c7 85 30 fb ff
	ff 89 ab cd ef	 mov	 DWORD PTR _ctx$1[ebp+12], -271733879 ; efcdab89H

; 72   :     ctx->state[2] = 0x98BADCFE;

  00079	c7 85 34 fb ff
	ff fe dc ba 98	 mov	 DWORD PTR _ctx$1[ebp+16], -1732584194 ; 98badcfeH

; 73   :     ctx->state[3] = 0x10325476;

  00083	c7 85 38 fb ff
	ff 76 54 32 10	 mov	 DWORD PTR _ctx$1[ebp+20], 271733878 ; 10325476H

; 308  :     while( ( n = fread( buf, 1, sizeof( buf ), f ) ) > 0 )

  0008d	e8 00 00 00 00	 call	 _fread
  00092	83 c4 10	 add	 esp, 16			; 00000010H
  00095	85 c0		 test	 eax, eax
  00097	74 36		 je	 SHORT $LN5@Getmd5_fil
  00099	8d a4 24 00 00
	00 00		 npad	 7
$LL4@Getmd5_fil:

; 309  :         md5_update( &ctx, buf, (int) n );

  000a0	50		 push	 eax
  000a1	8d 85 fc fb ff
	ff		 lea	 eax, DWORD PTR _buf$2[ebp]
  000a7	50		 push	 eax
  000a8	8d 85 24 fb ff
	ff		 lea	 eax, DWORD PTR _ctx$1[ebp]
  000ae	50		 push	 eax
  000af	e8 00 00 00 00	 call	 _md5_update
  000b4	56		 push	 esi
  000b5	68 00 04 00 00	 push	 1024			; 00000400H
  000ba	8d 85 fc fb ff
	ff		 lea	 eax, DWORD PTR _buf$2[ebp]
  000c0	6a 01		 push	 1
  000c2	50		 push	 eax
  000c3	e8 00 00 00 00	 call	 _fread
  000c8	83 c4 1c	 add	 esp, 28			; 0000001cH
  000cb	85 c0		 test	 eax, eax
  000cd	75 d1		 jne	 SHORT $LL4@Getmd5_fil
$LN5@Getmd5_fil:

; 310  : 
; 311  :     md5_finish( &ctx, output );

  000cf	8d 85 24 fb ff
	ff		 lea	 eax, DWORD PTR _ctx$1[ebp]
  000d5	57		 push	 edi
  000d6	50		 push	 eax
  000d7	e8 00 00 00 00	 call	 _md5_finish

; 312  : 
; 313  :     memset( &ctx, 0, sizeof( md5_context ) );
; 314  : 
; 315  :     if( ferror( f ) != 0 )

  000dc	56		 push	 esi
  000dd	e8 00 00 00 00	 call	 _ferror
  000e2	83 c4 0c	 add	 esp, 12			; 0000000cH
  000e5	56		 push	 esi
  000e6	85 c0		 test	 eax, eax
  000e8	74 1d		 je	 SHORT $LN7@Getmd5_fil

; 316  :     {
; 317  :         fclose( f );

  000ea	e8 00 00 00 00	 call	 _fclose
  000ef	83 c4 04	 add	 esp, 4

; 627  :     return md5_file(path,output);

  000f2	b8 02 00 00 00	 mov	 eax, 2
  000f7	5f		 pop	 edi

; 628  : }

  000f8	5e		 pop	 esi
  000f9	8b 4d fc	 mov	 ecx, DWORD PTR __$ArrayPad$[ebp]
  000fc	33 cd		 xor	 ecx, ebp
  000fe	e8 00 00 00 00	 call	 @__security_check_cookie@4
  00103	8b e5		 mov	 esp, ebp
  00105	5d		 pop	 ebp
  00106	c3		 ret	 0
$LN7@Getmd5_fil:

; 321  :     fclose( f );

  00107	e8 00 00 00 00	 call	 _fclose

; 628  : }

  0010c	8b 4d fc	 mov	 ecx, DWORD PTR __$ArrayPad$[ebp]

; 321  :     fclose( f );

  0010f	83 c4 04	 add	 esp, 4

; 628  : }

  00112	33 cd		 xor	 ecx, ebp
  00114	33 c0		 xor	 eax, eax
  00116	5f		 pop	 edi
  00117	5e		 pop	 esi
  00118	e8 00 00 00 00	 call	 @__security_check_cookie@4
  0011d	8b e5		 mov	 esp, ebp
  0011f	5d		 pop	 ebp
  00120	c3		 ret	 0
?Getmd5_file@i3MD5@@YAHPADQAE@Z ENDP			; i3MD5::Getmd5_file
_TEXT	ENDS
; Function compile flags: /Ogtp
; File E:\Proyectos\JuegosOnlineproyectos\PB\pbblow\Piercing Blow Remake\i3Server\src\i3Base\i3MD5.cpp
;	COMDAT ?GetMD5String@i3MD5@@YAXPADVUINT128@@@Z
_TEXT	SEGMENT
_pOutputString$GSCopy$1$ = -284				; size = 4
_Value_8$ = -280					; size = 16
_Temp$ = -264						; size = 260
__$ArrayPad$ = -4					; size = 4
_pOutputString$ = 8					; size = 4
_Val$ = 12						; size = 16
?GetMD5String@i3MD5@@YAXPADVUINT128@@@Z PROC		; i3MD5::GetMD5String, COMDAT

; 595  : {

  00000	55		 push	 ebp
  00001	8b ec		 mov	 ebp, esp
  00003	81 ec 1c 01 00
	00		 sub	 esp, 284		; 0000011cH
  00009	a1 00 00 00 00	 mov	 eax, DWORD PTR ___security_cookie
  0000e	33 c5		 xor	 eax, ebp
  00010	89 45 fc	 mov	 DWORD PTR __$ArrayPad$[ebp], eax

; 600  : 	Value_8[1] = (UINT8)((Val[0] & 0x000000000000ff00) >> 8);

  00013	53		 push	 ebx

; 614  : 	Value_8[14] = (UINT8)((Val[1] & 0x00ff000000000000) >> 48);

  00014	56		 push	 esi

; 615  : 	Value_8[15] = (UINT8)((Val[1] & 0xff00000000000000) >> 56);

  00015	57		 push	 edi

; 596  : 	UINT8 Value_8[16];
; 597  : 	char Temp[MAX_PATH];
; 598  : 
; 599  : 	Value_8[0] = (UINT8)(Val[0] & 0x00000000000000ff);

  00016	8b 55 0c	 mov	 edx, DWORD PTR _Val$[ebp]

; 600  : 	Value_8[1] = (UINT8)((Val[0] & 0x000000000000ff00) >> 8);

  00019	8b ca		 mov	 ecx, edx
  0001b	8b 5d 10	 mov	 ebx, DWORD PTR _Val$[ebp+4]
  0001e	8b c3		 mov	 eax, ebx
  00020	0f ac c1 08	 shrd	 ecx, eax, 8

; 601  : 	Value_8[2] = (UINT8)((Val[0] & 0x0000000000ff0000) >> 16);

  00024	8b c3		 mov	 eax, ebx
  00026	88 95 e8 fe ff
	ff		 mov	 BYTE PTR _Value_8$[ebp], dl
  0002c	88 8d e9 fe ff
	ff		 mov	 BYTE PTR _Value_8$[ebp+1], cl
  00032	8b ca		 mov	 ecx, edx
  00034	0f ac c1 10	 shrd	 ecx, eax, 16

; 602  : 	Value_8[3] = (UINT8)((Val[0] & 0x00000000ff000000) >> 24);

  00038	8b c3		 mov	 eax, ebx

; 603  : 	Value_8[4] = (UINT8)((Val[0] & 0x000000ff00000000) >> 32);

  0003a	88 9d ec fe ff
	ff		 mov	 BYTE PTR _Value_8$[ebp+4], bl
  00040	0f ac c2 18	 shrd	 edx, eax, 24

; 604  : 	Value_8[5] = (UINT8)((Val[0] & 0x0000ff0000000000) >> 40);

  00044	8b c3		 mov	 eax, ebx
  00046	88 8d ea fe ff
	ff		 mov	 BYTE PTR _Value_8$[ebp+2], cl
  0004c	c1 e8 08	 shr	 eax, 8
  0004f	88 85 ed fe ff
	ff		 mov	 BYTE PTR _Value_8$[ebp+5], al

; 605  : 	Value_8[6] = (UINT8)((Val[0] & 0x00ff000000000000) >> 48);

  00055	8b c3		 mov	 eax, ebx
  00057	c1 e8 10	 shr	 eax, 16			; 00000010H
  0005a	88 85 ee fe ff
	ff		 mov	 BYTE PTR _Value_8$[ebp+6], al

; 606  : 	Value_8[7] = (UINT8)((Val[0] & 0xff00000000000000) >> 56);

  00060	c1 eb 18	 shr	 ebx, 24			; 00000018H
  00063	88 9d ef fe ff
	ff		 mov	 BYTE PTR _Value_8$[ebp+7], bl

; 607  : 
; 608  : 	Value_8[8] = (UINT8)(Val[1] & 0x00000000000000ff);
; 609  : 	Value_8[9] = (UINT8)((Val[1] & 0x000000000000ff00) >> 8);

  00069	8b 5d 18	 mov	 ebx, DWORD PTR _Val$[ebp+12]
  0006c	8b c3		 mov	 eax, ebx
  0006e	88 95 eb fe ff
	ff		 mov	 BYTE PTR _Value_8$[ebp+3], dl
  00074	8b 55 14	 mov	 edx, DWORD PTR _Val$[ebp+8]
  00077	8b ca		 mov	 ecx, edx
  00079	0f ac c1 08	 shrd	 ecx, eax, 8

; 610  : 	Value_8[10] = (UINT8)((Val[1] & 0x0000000000ff0000) >> 16);

  0007d	8b c3		 mov	 eax, ebx
  0007f	88 95 f0 fe ff
	ff		 mov	 BYTE PTR _Value_8$[ebp+8], dl
  00085	88 8d f1 fe ff
	ff		 mov	 BYTE PTR _Value_8$[ebp+9], cl
  0008b	8b ca		 mov	 ecx, edx
  0008d	0f ac c1 10	 shrd	 ecx, eax, 16

; 611  : 	Value_8[11] = (UINT8)((Val[1] & 0x00000000ff000000) >> 24);

  00091	8b c3		 mov	 eax, ebx

; 612  : 	Value_8[12] = (UINT8)((Val[1] & 0x000000ff00000000) >> 32);

  00093	88 9d f4 fe ff
	ff		 mov	 BYTE PTR _Value_8$[ebp+12], bl
  00099	0f ac c2 18	 shrd	 edx, eax, 24

; 613  : 	Value_8[13] = (UINT8)((Val[1] & 0x0000ff0000000000) >> 40);

  0009d	8b c3		 mov	 eax, ebx
  0009f	88 8d f2 fe ff
	ff		 mov	 BYTE PTR _Value_8$[ebp+10], cl
  000a5	c1 e8 08	 shr	 eax, 8
  000a8	88 85 f5 fe ff
	ff		 mov	 BYTE PTR _Value_8$[ebp+13], al

; 614  : 	Value_8[14] = (UINT8)((Val[1] & 0x00ff000000000000) >> 48);

  000ae	8b c3		 mov	 eax, ebx

; 615  : 	Value_8[15] = (UINT8)((Val[1] & 0xff00000000000000) >> 56);

  000b0	c1 eb 18	 shr	 ebx, 24			; 00000018H
  000b3	c1 e8 10	 shr	 eax, 16			; 00000010H
  000b6	8b 7d 08	 mov	 edi, DWORD PTR _pOutputString$[ebp]
  000b9	88 9d f7 fe ff
	ff		 mov	 BYTE PTR _Value_8$[ebp+15], bl
  000bf	33 db		 xor	 ebx, ebx
  000c1	89 bd e4 fe ff
	ff		 mov	 DWORD PTR _pOutputString$GSCopy$1$[ebp], edi
  000c7	88 95 f3 fe ff
	ff		 mov	 BYTE PTR _Value_8$[ebp+11], dl
  000cd	88 85 f6 fe ff
	ff		 mov	 BYTE PTR _Value_8$[ebp+14], al
  000d3	eb 0b 8d a4 24
	00 00 00 00 8d
	64 24 00	 npad	 13
$LL4@GetMD5Stri:

; 616  : 
; 617  : 	for( INT32 i=0; i<16; i++)
; 618  : 	{	
; 619  : 		sprintf( Temp, "%02x", Value_8[i]);

  000e0	0f b6 84 1d e8
	fe ff ff	 movzx	 eax, BYTE PTR _Value_8$[ebp+ebx]
  000e8	50		 push	 eax
  000e9	8d 85 f8 fe ff
	ff		 lea	 eax, DWORD PTR _Temp$[ebp]
  000ef	68 00 00 00 00	 push	 OFFSET ??_C@_04NOJCDH@?$CF02x@
  000f4	50		 push	 eax
  000f5	e8 00 00 00 00	 call	 _sprintf
  000fa	83 c4 0c	 add	 esp, 12			; 0000000cH

; 620  : 		if( i==0)	strcpy( pOutputString, Temp);

  000fd	85 db		 test	 ebx, ebx
  000ff	75 20		 jne	 SHORT $LN5@GetMD5Stri
  00101	8d 8d f8 fe ff
	ff		 lea	 ecx, DWORD PTR _Temp$[ebp]
  00107	8b d7		 mov	 edx, edi
  00109	8d a4 24 00 00
	00 00		 npad	 7
$LL8@GetMD5Stri:
  00110	8a 01		 mov	 al, BYTE PTR [ecx]
  00112	8d 49 01	 lea	 ecx, DWORD PTR [ecx+1]
  00115	88 02		 mov	 BYTE PTR [edx], al
  00117	8d 52 01	 lea	 edx, DWORD PTR [edx+1]
  0011a	84 c0		 test	 al, al
  0011c	75 f2		 jne	 SHORT $LL8@GetMD5Stri
  0011e	43		 inc	 ebx
  0011f	eb bf		 jmp	 SHORT $LL4@GetMD5Stri
$LN5@GetMD5Stri:

; 621  : 		else		strcat( pOutputString, Temp);

  00121	8d 85 f8 fe ff
	ff		 lea	 eax, DWORD PTR _Temp$[ebp]
  00127	8b f0		 mov	 esi, eax
  00129	8d a4 24 00 00
	00 00		 npad	 7
$LL48@GetMD5Stri:
  00130	8a 08		 mov	 cl, BYTE PTR [eax]
  00132	40		 inc	 eax
  00133	84 c9		 test	 cl, cl
  00135	75 f9		 jne	 SHORT $LL48@GetMD5Stri
  00137	2b c6		 sub	 eax, esi
  00139	4f		 dec	 edi
  0013a	8d 9b 00 00 00
	00		 npad	 6
$LL49@GetMD5Stri:
  00140	8a 4f 01	 mov	 cl, BYTE PTR [edi+1]
  00143	47		 inc	 edi
  00144	84 c9		 test	 cl, cl
  00146	75 f8		 jne	 SHORT $LL49@GetMD5Stri
  00148	8b c8		 mov	 ecx, eax
  0014a	43		 inc	 ebx
  0014b	c1 e9 02	 shr	 ecx, 2
  0014e	f3 a5		 rep movsd
  00150	8b c8		 mov	 ecx, eax
  00152	83 e1 03	 and	 ecx, 3
  00155	f3 a4		 rep movsb
  00157	8b bd e4 fe ff
	ff		 mov	 edi, DWORD PTR _pOutputString$GSCopy$1$[ebp]
  0015d	83 fb 10	 cmp	 ebx, 16			; 00000010H
  00160	0f 8c 7a ff ff
	ff		 jl	 $LL4@GetMD5Stri

; 622  : 	}
; 623  : }

  00166	8b 4d fc	 mov	 ecx, DWORD PTR __$ArrayPad$[ebp]
  00169	5f		 pop	 edi
  0016a	5e		 pop	 esi
  0016b	33 cd		 xor	 ecx, ebp
  0016d	5b		 pop	 ebx
  0016e	e8 00 00 00 00	 call	 @__security_check_cookie@4
  00173	8b e5		 mov	 esp, ebp
  00175	5d		 pop	 ebp
  00176	c3		 ret	 0
?GetMD5String@i3MD5@@YAXPADVUINT128@@@Z ENDP		; i3MD5::GetMD5String
_TEXT	ENDS
; Function compile flags: /Ogtp
; File E:\Proyectos\JuegosOnlineproyectos\PB\pbblow\Piercing Blow Remake\i3Server\src\i3Base\i3MD5.cpp
;	COMDAT ?HMAC_Finish@i3MD5@@YAXPAUmd5_context@@QAD@Z
_TEXT	SEGMENT
_pCtx$ = 8						; size = 4
_code$ = 12						; size = 4
?HMAC_Finish@i3MD5@@YAXPAUmd5_context@@QAD@Z PROC	; i3MD5::HMAC_Finish, COMDAT

; 591  : 	md5_hmac_finish( pCtx, (unsigned char *) code);

  00000	e9 00 00 00 00	 jmp	 _md5_hmac_finish
?HMAC_Finish@i3MD5@@YAXPAUmd5_context@@QAD@Z ENDP	; i3MD5::HMAC_Finish
_TEXT	ENDS
; Function compile flags: /Ogtp
; File E:\Proyectos\JuegosOnlineproyectos\PB\pbblow\Piercing Blow Remake\i3Server\src\i3Base\i3MD5.cpp
;	COMDAT ?HMAC_Update@i3MD5@@YAXPAUmd5_context@@PADH@Z
_TEXT	SEGMENT
_pCtx$ = 8						; size = 4
_pData$ = 12						; size = 4
_len$ = 16						; size = 4
?HMAC_Update@i3MD5@@YAXPAUmd5_context@@PADH@Z PROC	; i3MD5::HMAC_Update, COMDAT

; 360  :     md5_update( ctx, input, ilen );

  00000	e9 00 00 00 00	 jmp	 _md5_update
?HMAC_Update@i3MD5@@YAXPAUmd5_context@@PADH@Z ENDP	; i3MD5::HMAC_Update
_TEXT	ENDS
; Function compile flags: /Ogtp
; File E:\Proyectos\JuegosOnlineproyectos\PB\pbblow\Piercing Blow Remake\i3Server\src\i3Base\i3MD5.cpp
;	COMDAT ?HMAC_Start@i3MD5@@YAXPAUmd5_context@@PADH@Z
_TEXT	SEGMENT
_pCtx$ = 8						; size = 4
_pKey$ = 12						; size = 4
_keylen$ = 16						; size = 4
?HMAC_Start@i3MD5@@YAXPAUmd5_context@@PADH@Z PROC	; i3MD5::HMAC_Start, COMDAT

; 581  : 	md5_hmac_starts( pCtx, (unsigned char *) pKey, keylen);

  00000	e9 00 00 00 00	 jmp	 _md5_hmac_starts
?HMAC_Start@i3MD5@@YAXPAUmd5_context@@PADH@Z ENDP	; i3MD5::HMAC_Start
_TEXT	ENDS
; Function compile flags: /Ogtp
; File E:\Proyectos\JuegosOnlineproyectos\PB\pbblow\Piercing Blow Remake\i3Server\src\i3Base\i3MD5.cpp
;	COMDAT ?GenHMAC@i3MD5@@YAXPADH0HQAD@Z
_TEXT	SEGMENT
_ctx$1 = -236						; size = 216
_tmpbuf$2 = -20						; size = 16
__$ArrayPad$ = -4					; size = 4
_pKey$ = 8						; size = 4
_lenKey$ = 12						; size = 4
_input$ = 16						; size = 4
_len$ = 20						; size = 4
_code$ = 24						; size = 4
?GenHMAC@i3MD5@@YAXPADH0HQAD@Z PROC			; i3MD5::GenHMAC, COMDAT

; 575  : {

  00000	55		 push	 ebp
  00001	8b ec		 mov	 ebp, esp
  00003	81 ec ec 00 00
	00		 sub	 esp, 236		; 000000ecH
  00009	a1 00 00 00 00	 mov	 eax, DWORD PTR ___security_cookie
  0000e	33 c5		 xor	 eax, ebp
  00010	89 45 fc	 mov	 DWORD PTR __$ArrayPad$[ebp], eax
  00013	8b 45 08	 mov	 eax, DWORD PTR _pKey$[ebp]
  00016	56		 push	 esi
  00017	8b 75 10	 mov	 esi, DWORD PTR _input$[ebp]
  0001a	57		 push	 edi

; 387  :     md5_hmac_starts( &ctx, key, keylen );

  0001b	ff 75 0c	 push	 DWORD PTR _lenKey$[ebp]

; 575  : {

  0001e	8b 7d 18	 mov	 edi, DWORD PTR _code$[ebp]

; 387  :     md5_hmac_starts( &ctx, key, keylen );

  00021	50		 push	 eax
  00022	8d 85 14 ff ff
	ff		 lea	 eax, DWORD PTR _ctx$1[ebp]
  00028	50		 push	 eax
  00029	e8 00 00 00 00	 call	 _md5_hmac_starts

; 360  :     md5_update( ctx, input, ilen );

  0002e	ff 75 14	 push	 DWORD PTR _len$[ebp]
  00031	8d 85 14 ff ff
	ff		 lea	 eax, DWORD PTR _ctx$1[ebp]
  00037	56		 push	 esi
  00038	50		 push	 eax
  00039	e8 00 00 00 00	 call	 _md5_update

; 370  :     md5_finish( ctx, tmpbuf );

  0003e	8d 45 ec	 lea	 eax, DWORD PTR _tmpbuf$2[ebp]
  00041	50		 push	 eax
  00042	8d 85 14 ff ff
	ff		 lea	 eax, DWORD PTR _ctx$1[ebp]
  00048	50		 push	 eax
  00049	e8 00 00 00 00	 call	 _md5_finish

; 371  :     md5_starts( ctx );
; 372  :     md5_update( ctx, ctx->opad, 64 );

  0004e	6a 40		 push	 64			; 00000040H
  00050	8d 45 ac	 lea	 eax, DWORD PTR _ctx$1[ebp+152]

; 67   :     ctx->total[0] = 0;

  00053	c7 85 14 ff ff
	ff 00 00 00 00	 mov	 DWORD PTR _ctx$1[ebp], 0

; 372  :     md5_update( ctx, ctx->opad, 64 );

  0005d	50		 push	 eax
  0005e	8d 85 14 ff ff
	ff		 lea	 eax, DWORD PTR _ctx$1[ebp]

; 68   :     ctx->total[1] = 0;

  00064	c7 85 18 ff ff
	ff 00 00 00 00	 mov	 DWORD PTR _ctx$1[ebp+4], 0

; 372  :     md5_update( ctx, ctx->opad, 64 );

  0006e	50		 push	 eax

; 70   :     ctx->state[0] = 0x67452301;

  0006f	c7 85 1c ff ff
	ff 01 23 45 67	 mov	 DWORD PTR _ctx$1[ebp+8], 1732584193 ; 67452301H

; 71   :     ctx->state[1] = 0xEFCDAB89;

  00079	c7 85 20 ff ff
	ff 89 ab cd ef	 mov	 DWORD PTR _ctx$1[ebp+12], -271733879 ; efcdab89H

; 72   :     ctx->state[2] = 0x98BADCFE;

  00083	c7 85 24 ff ff
	ff fe dc ba 98	 mov	 DWORD PTR _ctx$1[ebp+16], -1732584194 ; 98badcfeH

; 73   :     ctx->state[3] = 0x10325476;

  0008d	c7 85 28 ff ff
	ff 76 54 32 10	 mov	 DWORD PTR _ctx$1[ebp+20], 271733878 ; 10325476H

; 372  :     md5_update( ctx, ctx->opad, 64 );

  00097	e8 00 00 00 00	 call	 _md5_update

; 373  :     md5_update( ctx, tmpbuf, 16 );

  0009c	6a 10		 push	 16			; 00000010H
  0009e	8d 45 ec	 lea	 eax, DWORD PTR _tmpbuf$2[ebp]
  000a1	50		 push	 eax
  000a2	8d 85 14 ff ff
	ff		 lea	 eax, DWORD PTR _ctx$1[ebp]
  000a8	50		 push	 eax
  000a9	e8 00 00 00 00	 call	 _md5_update

; 374  :     md5_finish( ctx, output );

  000ae	8d 85 14 ff ff
	ff		 lea	 eax, DWORD PTR _ctx$1[ebp]
  000b4	57		 push	 edi
  000b5	50		 push	 eax
  000b6	e8 00 00 00 00	 call	 _md5_finish

; 576  : 	md5_hmac( (unsigned char *) pKey, lenKey, (unsigned char *) input, len, (unsigned char *) code);
; 577  : }

  000bb	8b 4d fc	 mov	 ecx, DWORD PTR __$ArrayPad$[ebp]

; 374  :     md5_finish( ctx, output );

  000be	83 c4 40	 add	 esp, 64			; 00000040H

; 576  : 	md5_hmac( (unsigned char *) pKey, lenKey, (unsigned char *) input, len, (unsigned char *) code);
; 577  : }

  000c1	33 cd		 xor	 ecx, ebp

; 374  :     md5_finish( ctx, output );

  000c3	5f		 pop	 edi
  000c4	5e		 pop	 esi

; 576  : 	md5_hmac( (unsigned char *) pKey, lenKey, (unsigned char *) input, len, (unsigned char *) code);
; 577  : }

  000c5	e8 00 00 00 00	 call	 @__security_check_cookie@4
  000ca	8b e5		 mov	 esp, ebp
  000cc	5d		 pop	 ebp
  000cd	c3		 ret	 0
?GenHMAC@i3MD5@@YAXPADH0HQAD@Z ENDP			; i3MD5::GenHMAC
_TEXT	ENDS
; Function compile flags: /Ogtp
; File E:\Proyectos\JuegosOnlineproyectos\PB\pbblow\Piercing Blow Remake\i3Server\src\i3Base\i3MD5.cpp
;	COMDAT ?Gen@i3MD5@@YAXPADHQAD@Z
_TEXT	SEGMENT
_input$ = 8						; size = 4
_len$ = 12						; size = 4
_code$ = 16						; size = 4
?Gen@i3MD5@@YAXPADHQAD@Z PROC				; i3MD5::Gen, COMDAT

; 571  : 	md5( (unsigned char *) input, len, (unsigned char *) code);

  00000	e9 00 00 00 00	 jmp	 _md5
?Gen@i3MD5@@YAXPADHQAD@Z ENDP				; i3MD5::Gen
_TEXT	ENDS
; Function compile flags: /Ogtp
; File E:\Proyectos\JuegosOnlineproyectos\PB\pbblow\Piercing Blow Remake\i3Server\src\i3Base\i3MD5.cpp
;	COMDAT _md5_hmac
_TEXT	SEGMENT
_ctx$ = -236						; size = 216
_tmpbuf$1 = -20						; size = 16
__$ArrayPad$ = -4					; size = 4
_key$ = 8						; size = 4
_keylen$ = 12						; size = 4
_input$ = 16						; size = 4
_ilen$ = 20						; size = 4
_output$ = 24						; size = 4
_md5_hmac PROC						; COMDAT

; 384  : {

  00000	55		 push	 ebp
  00001	8b ec		 mov	 ebp, esp
  00003	81 ec ec 00 00
	00		 sub	 esp, 236		; 000000ecH
  00009	a1 00 00 00 00	 mov	 eax, DWORD PTR ___security_cookie
  0000e	33 c5		 xor	 eax, ebp
  00010	89 45 fc	 mov	 DWORD PTR __$ArrayPad$[ebp], eax
  00013	8b 45 08	 mov	 eax, DWORD PTR _key$[ebp]
  00016	56		 push	 esi
  00017	8b 75 10	 mov	 esi, DWORD PTR _input$[ebp]
  0001a	57		 push	 edi

; 385  :     md5_context ctx;
; 386  : 
; 387  :     md5_hmac_starts( &ctx, key, keylen );

  0001b	ff 75 0c	 push	 DWORD PTR _keylen$[ebp]
  0001e	8b 7d 18	 mov	 edi, DWORD PTR _output$[ebp]
  00021	50		 push	 eax
  00022	8d 85 14 ff ff
	ff		 lea	 eax, DWORD PTR _ctx$[ebp]
  00028	50		 push	 eax
  00029	e8 00 00 00 00	 call	 _md5_hmac_starts

; 360  :     md5_update( ctx, input, ilen );

  0002e	ff 75 14	 push	 DWORD PTR _ilen$[ebp]
  00031	8d 85 14 ff ff
	ff		 lea	 eax, DWORD PTR _ctx$[ebp]
  00037	56		 push	 esi
  00038	50		 push	 eax
  00039	e8 00 00 00 00	 call	 _md5_update

; 370  :     md5_finish( ctx, tmpbuf );

  0003e	8d 45 ec	 lea	 eax, DWORD PTR _tmpbuf$1[ebp]
  00041	50		 push	 eax
  00042	8d 85 14 ff ff
	ff		 lea	 eax, DWORD PTR _ctx$[ebp]
  00048	50		 push	 eax
  00049	e8 00 00 00 00	 call	 _md5_finish

; 371  :     md5_starts( ctx );
; 372  :     md5_update( ctx, ctx->opad, 64 );

  0004e	6a 40		 push	 64			; 00000040H
  00050	8d 45 ac	 lea	 eax, DWORD PTR _ctx$[ebp+152]

; 67   :     ctx->total[0] = 0;

  00053	c7 85 14 ff ff
	ff 00 00 00 00	 mov	 DWORD PTR _ctx$[ebp], 0

; 372  :     md5_update( ctx, ctx->opad, 64 );

  0005d	50		 push	 eax
  0005e	8d 85 14 ff ff
	ff		 lea	 eax, DWORD PTR _ctx$[ebp]

; 68   :     ctx->total[1] = 0;

  00064	c7 85 18 ff ff
	ff 00 00 00 00	 mov	 DWORD PTR _ctx$[ebp+4], 0

; 372  :     md5_update( ctx, ctx->opad, 64 );

  0006e	50		 push	 eax

; 70   :     ctx->state[0] = 0x67452301;

  0006f	c7 85 1c ff ff
	ff 01 23 45 67	 mov	 DWORD PTR _ctx$[ebp+8], 1732584193 ; 67452301H

; 71   :     ctx->state[1] = 0xEFCDAB89;

  00079	c7 85 20 ff ff
	ff 89 ab cd ef	 mov	 DWORD PTR _ctx$[ebp+12], -271733879 ; efcdab89H

; 72   :     ctx->state[2] = 0x98BADCFE;

  00083	c7 85 24 ff ff
	ff fe dc ba 98	 mov	 DWORD PTR _ctx$[ebp+16], -1732584194 ; 98badcfeH

; 73   :     ctx->state[3] = 0x10325476;

  0008d	c7 85 28 ff ff
	ff 76 54 32 10	 mov	 DWORD PTR _ctx$[ebp+20], 271733878 ; 10325476H

; 372  :     md5_update( ctx, ctx->opad, 64 );

  00097	e8 00 00 00 00	 call	 _md5_update

; 373  :     md5_update( ctx, tmpbuf, 16 );

  0009c	6a 10		 push	 16			; 00000010H
  0009e	8d 45 ec	 lea	 eax, DWORD PTR _tmpbuf$1[ebp]
  000a1	50		 push	 eax
  000a2	8d 85 14 ff ff
	ff		 lea	 eax, DWORD PTR _ctx$[ebp]
  000a8	50		 push	 eax
  000a9	e8 00 00 00 00	 call	 _md5_update

; 374  :     md5_finish( ctx, output );

  000ae	8d 85 14 ff ff
	ff		 lea	 eax, DWORD PTR _ctx$[ebp]
  000b4	57		 push	 edi
  000b5	50		 push	 eax
  000b6	e8 00 00 00 00	 call	 _md5_finish

; 388  :     md5_hmac_update( &ctx, input, ilen );
; 389  :     md5_hmac_finish( &ctx, output );
; 390  : 
; 391  :     memset( &ctx, 0, sizeof( md5_context ) );
; 392  : }

  000bb	8b 4d fc	 mov	 ecx, DWORD PTR __$ArrayPad$[ebp]

; 374  :     md5_finish( ctx, output );

  000be	83 c4 40	 add	 esp, 64			; 00000040H

; 388  :     md5_hmac_update( &ctx, input, ilen );
; 389  :     md5_hmac_finish( &ctx, output );
; 390  : 
; 391  :     memset( &ctx, 0, sizeof( md5_context ) );
; 392  : }

  000c1	33 cd		 xor	 ecx, ebp

; 374  :     md5_finish( ctx, output );

  000c3	5f		 pop	 edi
  000c4	5e		 pop	 esi

; 388  :     md5_hmac_update( &ctx, input, ilen );
; 389  :     md5_hmac_finish( &ctx, output );
; 390  : 
; 391  :     memset( &ctx, 0, sizeof( md5_context ) );
; 392  : }

  000c5	e8 00 00 00 00	 call	 @__security_check_cookie@4
  000ca	8b e5		 mov	 esp, ebp
  000cc	5d		 pop	 ebp
  000cd	c3		 ret	 0
_md5_hmac ENDP
_TEXT	ENDS
; Function compile flags: /Ogtp
; File E:\Proyectos\JuegosOnlineproyectos\PB\pbblow\Piercing Blow Remake\i3Server\src\i3Base\i3MD5.cpp
;	COMDAT _md5_hmac_finish
_TEXT	SEGMENT
_tmpbuf$ = -20						; size = 16
__$ArrayPad$ = -4					; size = 4
_ctx$ = 8						; size = 4
_output$ = 12						; size = 4
_md5_hmac_finish PROC					; COMDAT

; 367  : {

  00000	55		 push	 ebp
  00001	8b ec		 mov	 ebp, esp
  00003	83 ec 14	 sub	 esp, 20			; 00000014H
  00006	a1 00 00 00 00	 mov	 eax, DWORD PTR ___security_cookie
  0000b	33 c5		 xor	 eax, ebp
  0000d	89 45 fc	 mov	 DWORD PTR __$ArrayPad$[ebp], eax
  00010	56		 push	 esi
  00011	8b 75 0c	 mov	 esi, DWORD PTR _output$[ebp]

; 368  :     unsigned char tmpbuf[16];
; 369  : 
; 370  :     md5_finish( ctx, tmpbuf );

  00014	8d 45 ec	 lea	 eax, DWORD PTR _tmpbuf$[ebp]
  00017	57		 push	 edi
  00018	8b 7d 08	 mov	 edi, DWORD PTR _ctx$[ebp]
  0001b	50		 push	 eax
  0001c	57		 push	 edi
  0001d	e8 00 00 00 00	 call	 _md5_finish

; 371  :     md5_starts( ctx );
; 372  :     md5_update( ctx, ctx->opad, 64 );

  00022	6a 40		 push	 64			; 00000040H
  00024	8d 87 98 00 00
	00		 lea	 eax, DWORD PTR [edi+152]

; 67   :     ctx->total[0] = 0;

  0002a	c7 07 00 00 00
	00		 mov	 DWORD PTR [edi], 0

; 371  :     md5_starts( ctx );
; 372  :     md5_update( ctx, ctx->opad, 64 );

  00030	50		 push	 eax
  00031	57		 push	 edi

; 68   :     ctx->total[1] = 0;

  00032	c7 47 04 00 00
	00 00		 mov	 DWORD PTR [edi+4], 0

; 69   : 
; 70   :     ctx->state[0] = 0x67452301;

  00039	c7 47 08 01 23
	45 67		 mov	 DWORD PTR [edi+8], 1732584193 ; 67452301H

; 71   :     ctx->state[1] = 0xEFCDAB89;

  00040	c7 47 0c 89 ab
	cd ef		 mov	 DWORD PTR [edi+12], -271733879 ; efcdab89H

; 72   :     ctx->state[2] = 0x98BADCFE;

  00047	c7 47 10 fe dc
	ba 98		 mov	 DWORD PTR [edi+16], -1732584194 ; 98badcfeH

; 73   :     ctx->state[3] = 0x10325476;

  0004e	c7 47 14 76 54
	32 10		 mov	 DWORD PTR [edi+20], 271733878 ; 10325476H

; 371  :     md5_starts( ctx );
; 372  :     md5_update( ctx, ctx->opad, 64 );

  00055	e8 00 00 00 00	 call	 _md5_update

; 373  :     md5_update( ctx, tmpbuf, 16 );

  0005a	6a 10		 push	 16			; 00000010H
  0005c	8d 45 ec	 lea	 eax, DWORD PTR _tmpbuf$[ebp]
  0005f	50		 push	 eax
  00060	57		 push	 edi
  00061	e8 00 00 00 00	 call	 _md5_update

; 374  :     md5_finish( ctx, output );

  00066	56		 push	 esi
  00067	57		 push	 edi
  00068	e8 00 00 00 00	 call	 _md5_finish

; 375  : 
; 376  :     memset( tmpbuf, 0, sizeof( tmpbuf ) );
; 377  : }

  0006d	8b 4d fc	 mov	 ecx, DWORD PTR __$ArrayPad$[ebp]
  00070	83 c4 28	 add	 esp, 40			; 00000028H
  00073	33 cd		 xor	 ecx, ebp
  00075	5f		 pop	 edi
  00076	5e		 pop	 esi
  00077	e8 00 00 00 00	 call	 @__security_check_cookie@4
  0007c	8b e5		 mov	 esp, ebp
  0007e	5d		 pop	 ebp
  0007f	c3		 ret	 0
_md5_hmac_finish ENDP
_TEXT	ENDS
; Function compile flags: /Ogtp
; File E:\Proyectos\JuegosOnlineproyectos\PB\pbblow\Piercing Blow Remake\i3Server\src\i3Base\i3MD5.cpp
;	COMDAT _md5_hmac_update
_TEXT	SEGMENT
_ctx$ = 8						; size = 4
_input$ = 12						; size = 4
_ilen$ = 16						; size = 4
_md5_hmac_update PROC					; COMDAT

; 360  :     md5_update( ctx, input, ilen );

  00000	e9 00 00 00 00	 jmp	 _md5_update
_md5_hmac_update ENDP
_TEXT	ENDS
; Function compile flags: /Ogtp
; File E:\Proyectos\JuegosOnlineproyectos\PB\pbblow\Piercing Blow Remake\i3Server\src\i3Base\i3MD5.cpp
;	COMDAT _md5_hmac_starts
_TEXT	SEGMENT
_sum$ = -16						; size = 16
_ctx$ = 8						; size = 4
_key$ = 12						; size = 4
_keylen$ = 16						; size = 4
_md5_hmac_starts PROC					; COMDAT

; 329  : {

  00000	55		 push	 ebp
  00001	8b ec		 mov	 ebp, esp
  00003	83 ec 10	 sub	 esp, 16			; 00000010H
  00006	53		 push	 ebx
  00007	8b 5d 0c	 mov	 ebx, DWORD PTR _key$[ebp]
  0000a	56		 push	 esi
  0000b	8b 75 08	 mov	 esi, DWORD PTR _ctx$[ebp]
  0000e	57		 push	 edi

; 330  :     int i;
; 331  :     unsigned char sum[16];
; 332  : 
; 333  :     if( keylen > 64 )

  0000f	8b 7d 10	 mov	 edi, DWORD PTR _keylen$[ebp]
  00012	83 ff 40	 cmp	 edi, 64			; 00000040H
  00015	7e 16		 jle	 SHORT $LN5@md5_hmac_s

; 334  :     {
; 335  :         md5( key, keylen, sum );

  00017	8d 45 f0	 lea	 eax, DWORD PTR _sum$[ebp]
  0001a	50		 push	 eax
  0001b	57		 push	 edi
  0001c	53		 push	 ebx
  0001d	e8 00 00 00 00	 call	 _md5
  00022	83 c4 0c	 add	 esp, 12			; 0000000cH

; 336  :         keylen = 16;
; 337  :         key = sum;

  00025	8d 5d f0	 lea	 ebx, DWORD PTR _sum$[ebp]
  00028	bf 10 00 00 00	 mov	 edi, 16			; 00000010H
$LN5@md5_hmac_s:

; 338  :     }
; 339  : 
; 340  :     memset( ctx->ipad, 0x36, 64 );

  0002d	6a 40		 push	 64			; 00000040H
  0002f	8d 46 58	 lea	 eax, DWORD PTR [esi+88]
  00032	6a 36		 push	 54			; 00000036H
  00034	50		 push	 eax
  00035	e8 00 00 00 00	 call	 _memset

; 341  :     memset( ctx->opad, 0x5C, 64 );

  0003a	6a 40		 push	 64			; 00000040H
  0003c	8d 86 98 00 00
	00		 lea	 eax, DWORD PTR [esi+152]
  00042	6a 5c		 push	 92			; 0000005cH
  00044	50		 push	 eax
  00045	e8 00 00 00 00	 call	 _memset
  0004a	83 c4 18	 add	 esp, 24			; 00000018H
  0004d	33 c9		 xor	 ecx, ecx

; 342  : 
; 343  :     for( i = 0; i < keylen; i++ )

  0004f	85 ff		 test	 edi, edi
  00051	7e 18		 jle	 SHORT $LN3@md5_hmac_s
$LL4@md5_hmac_s:

; 344  :     {
; 345  :         ctx->ipad[i] = (unsigned char)( ctx->ipad[i] ^ key[i] );

  00053	0f b6 04 19	 movzx	 eax, BYTE PTR [ecx+ebx]
  00057	30 44 0e 58	 xor	 BYTE PTR [esi+ecx+88], al

; 346  :         ctx->opad[i] = (unsigned char)( ctx->opad[i] ^ key[i] );

  0005b	0f b6 04 19	 movzx	 eax, BYTE PTR [ecx+ebx]
  0005f	30 84 0e 98 00
	00 00		 xor	 BYTE PTR [esi+ecx+152], al
  00066	41		 inc	 ecx
  00067	3b cf		 cmp	 ecx, edi
  00069	7c e8		 jl	 SHORT $LL4@md5_hmac_s
$LN3@md5_hmac_s:

; 347  :     }
; 348  : 
; 349  :     md5_starts( ctx );
; 350  :     md5_update( ctx, ctx->ipad, 64 );

  0006b	6a 40		 push	 64			; 00000040H
  0006d	8d 46 58	 lea	 eax, DWORD PTR [esi+88]

; 67   :     ctx->total[0] = 0;

  00070	c7 06 00 00 00
	00		 mov	 DWORD PTR [esi], 0

; 347  :     }
; 348  : 
; 349  :     md5_starts( ctx );
; 350  :     md5_update( ctx, ctx->ipad, 64 );

  00076	50		 push	 eax
  00077	56		 push	 esi

; 68   :     ctx->total[1] = 0;

  00078	c7 46 04 00 00
	00 00		 mov	 DWORD PTR [esi+4], 0

; 69   : 
; 70   :     ctx->state[0] = 0x67452301;

  0007f	c7 46 08 01 23
	45 67		 mov	 DWORD PTR [esi+8], 1732584193 ; 67452301H

; 71   :     ctx->state[1] = 0xEFCDAB89;

  00086	c7 46 0c 89 ab
	cd ef		 mov	 DWORD PTR [esi+12], -271733879 ; efcdab89H

; 72   :     ctx->state[2] = 0x98BADCFE;

  0008d	c7 46 10 fe dc
	ba 98		 mov	 DWORD PTR [esi+16], -1732584194 ; 98badcfeH

; 73   :     ctx->state[3] = 0x10325476;

  00094	c7 46 14 76 54
	32 10		 mov	 DWORD PTR [esi+20], 271733878 ; 10325476H

; 347  :     }
; 348  : 
; 349  :     md5_starts( ctx );
; 350  :     md5_update( ctx, ctx->ipad, 64 );

  0009b	e8 00 00 00 00	 call	 _md5_update
  000a0	83 c4 0c	 add	 esp, 12			; 0000000cH
  000a3	5f		 pop	 edi
  000a4	5e		 pop	 esi
  000a5	5b		 pop	 ebx

; 351  : 
; 352  :     memset( sum, 0, sizeof( sum ) );
; 353  : }

  000a6	8b e5		 mov	 esp, ebp
  000a8	5d		 pop	 ebp
  000a9	c3		 ret	 0
_md5_hmac_starts ENDP
_TEXT	ENDS
; Function compile flags: /Ogtp
; File E:\Proyectos\JuegosOnlineproyectos\PB\pbblow\Piercing Blow Remake\i3Server\src\i3Base\i3MD5.cpp
;	COMDAT _md5_file
_TEXT	SEGMENT
_ctx$ = -1244						; size = 216
_buf$ = -1028						; size = 1024
__$ArrayPad$ = -4					; size = 4
_path$ = 8						; size = 4
_output$ = 12						; size = 4
_md5_file PROC						; COMDAT

; 297  : {

  00000	55		 push	 ebp
  00001	8b ec		 mov	 ebp, esp
  00003	81 ec dc 04 00
	00		 sub	 esp, 1244		; 000004dcH
  00009	a1 00 00 00 00	 mov	 eax, DWORD PTR ___security_cookie
  0000e	33 c5		 xor	 eax, ebp
  00010	89 45 fc	 mov	 DWORD PTR __$ArrayPad$[ebp], eax
  00013	8b 45 08	 mov	 eax, DWORD PTR _path$[ebp]
  00016	56		 push	 esi
  00017	57		 push	 edi
  00018	8b 7d 0c	 mov	 edi, DWORD PTR _output$[ebp]

; 298  :     FILE *f;
; 299  :     size_t n;
; 300  :     md5_context ctx;
; 301  :     unsigned char buf[1024];
; 302  : 
; 303  :     if( ( f = fopen( path, "rb" ) ) == NULL )

  0001b	68 00 00 00 00	 push	 OFFSET ??_C@_02JDPG@rb@
  00020	50		 push	 eax
  00021	e8 00 00 00 00	 call	 _fopen
  00026	8b f0		 mov	 esi, eax
  00028	83 c4 08	 add	 esp, 8
  0002b	85 f6		 test	 esi, esi
  0002d	75 13		 jne	 SHORT $LN4@md5_file

; 304  :         return( 1 );

  0002f	5f		 pop	 edi
  00030	8d 46 01	 lea	 eax, DWORD PTR [esi+1]

; 322  :     return( 0 );
; 323  : }

  00033	5e		 pop	 esi
  00034	8b 4d fc	 mov	 ecx, DWORD PTR __$ArrayPad$[ebp]
  00037	33 cd		 xor	 ecx, ebp
  00039	e8 00 00 00 00	 call	 @__security_check_cookie@4
  0003e	8b e5		 mov	 esp, ebp
  00040	5d		 pop	 ebp
  00041	c3		 ret	 0
$LN4@md5_file:

; 305  : 
; 306  :     md5_starts( &ctx );
; 307  : 
; 308  :     while( ( n = fread( buf, 1, sizeof( buf ), f ) ) > 0 )

  00042	56		 push	 esi
  00043	68 00 04 00 00	 push	 1024			; 00000400H
  00048	8d 85 fc fb ff
	ff		 lea	 eax, DWORD PTR _buf$[ebp]

; 67   :     ctx->total[0] = 0;

  0004e	c7 85 24 fb ff
	ff 00 00 00 00	 mov	 DWORD PTR _ctx$[ebp], 0

; 305  : 
; 306  :     md5_starts( &ctx );
; 307  : 
; 308  :     while( ( n = fread( buf, 1, sizeof( buf ), f ) ) > 0 )

  00058	6a 01		 push	 1
  0005a	50		 push	 eax

; 68   :     ctx->total[1] = 0;

  0005b	c7 85 28 fb ff
	ff 00 00 00 00	 mov	 DWORD PTR _ctx$[ebp+4], 0

; 69   : 
; 70   :     ctx->state[0] = 0x67452301;

  00065	c7 85 2c fb ff
	ff 01 23 45 67	 mov	 DWORD PTR _ctx$[ebp+8], 1732584193 ; 67452301H

; 71   :     ctx->state[1] = 0xEFCDAB89;

  0006f	c7 85 30 fb ff
	ff 89 ab cd ef	 mov	 DWORD PTR _ctx$[ebp+12], -271733879 ; efcdab89H

; 72   :     ctx->state[2] = 0x98BADCFE;

  00079	c7 85 34 fb ff
	ff fe dc ba 98	 mov	 DWORD PTR _ctx$[ebp+16], -1732584194 ; 98badcfeH

; 73   :     ctx->state[3] = 0x10325476;

  00083	c7 85 38 fb ff
	ff 76 54 32 10	 mov	 DWORD PTR _ctx$[ebp+20], 271733878 ; 10325476H

; 305  : 
; 306  :     md5_starts( &ctx );
; 307  : 
; 308  :     while( ( n = fread( buf, 1, sizeof( buf ), f ) ) > 0 )

  0008d	e8 00 00 00 00	 call	 _fread
  00092	83 c4 10	 add	 esp, 16			; 00000010H
  00095	85 c0		 test	 eax, eax
  00097	74 36		 je	 SHORT $LN3@md5_file
  00099	8d a4 24 00 00
	00 00		 npad	 7
$LL2@md5_file:

; 309  :         md5_update( &ctx, buf, (int) n );

  000a0	50		 push	 eax
  000a1	8d 85 fc fb ff
	ff		 lea	 eax, DWORD PTR _buf$[ebp]
  000a7	50		 push	 eax
  000a8	8d 85 24 fb ff
	ff		 lea	 eax, DWORD PTR _ctx$[ebp]
  000ae	50		 push	 eax
  000af	e8 00 00 00 00	 call	 _md5_update
  000b4	56		 push	 esi
  000b5	68 00 04 00 00	 push	 1024			; 00000400H
  000ba	8d 85 fc fb ff
	ff		 lea	 eax, DWORD PTR _buf$[ebp]
  000c0	6a 01		 push	 1
  000c2	50		 push	 eax
  000c3	e8 00 00 00 00	 call	 _fread
  000c8	83 c4 1c	 add	 esp, 28			; 0000001cH
  000cb	85 c0		 test	 eax, eax
  000cd	75 d1		 jne	 SHORT $LL2@md5_file
$LN3@md5_file:

; 310  : 
; 311  :     md5_finish( &ctx, output );

  000cf	8d 85 24 fb ff
	ff		 lea	 eax, DWORD PTR _ctx$[ebp]
  000d5	57		 push	 edi
  000d6	50		 push	 eax
  000d7	e8 00 00 00 00	 call	 _md5_finish

; 312  : 
; 313  :     memset( &ctx, 0, sizeof( md5_context ) );
; 314  : 
; 315  :     if( ferror( f ) != 0 )

  000dc	56		 push	 esi
  000dd	e8 00 00 00 00	 call	 _ferror
  000e2	83 c4 0c	 add	 esp, 12			; 0000000cH
  000e5	56		 push	 esi
  000e6	85 c0		 test	 eax, eax
  000e8	74 1d		 je	 SHORT $LN5@md5_file

; 316  :     {
; 317  :         fclose( f );

  000ea	e8 00 00 00 00	 call	 _fclose
  000ef	83 c4 04	 add	 esp, 4

; 318  :         return( 2 );

  000f2	b8 02 00 00 00	 mov	 eax, 2
  000f7	5f		 pop	 edi

; 322  :     return( 0 );
; 323  : }

  000f8	5e		 pop	 esi
  000f9	8b 4d fc	 mov	 ecx, DWORD PTR __$ArrayPad$[ebp]
  000fc	33 cd		 xor	 ecx, ebp
  000fe	e8 00 00 00 00	 call	 @__security_check_cookie@4
  00103	8b e5		 mov	 esp, ebp
  00105	5d		 pop	 ebp
  00106	c3		 ret	 0
$LN5@md5_file:

; 319  :     }
; 320  : 
; 321  :     fclose( f );

  00107	e8 00 00 00 00	 call	 _fclose

; 322  :     return( 0 );
; 323  : }

  0010c	8b 4d fc	 mov	 ecx, DWORD PTR __$ArrayPad$[ebp]
  0010f	83 c4 04	 add	 esp, 4
  00112	33 cd		 xor	 ecx, ebp
  00114	33 c0		 xor	 eax, eax
  00116	5f		 pop	 edi
  00117	5e		 pop	 esi
  00118	e8 00 00 00 00	 call	 @__security_check_cookie@4
  0011d	8b e5		 mov	 esp, ebp
  0011f	5d		 pop	 ebp
  00120	c3		 ret	 0
_md5_file ENDP
_TEXT	ENDS
; Function compile flags: /Ogtp
; File E:\Proyectos\JuegosOnlineproyectos\PB\pbblow\Piercing Blow Remake\i3Server\src\i3Base\i3MD5.cpp
;	COMDAT _md5
_TEXT	SEGMENT
_ctx$ = -220						; size = 216
__$ArrayPad$ = -4					; size = 4
_input$ = 8						; size = 4
_ilen$ = 12						; size = 4
_output$ = 16						; size = 4
_md5	PROC						; COMDAT

; 283  : {

  00000	55		 push	 ebp
  00001	8b ec		 mov	 ebp, esp
  00003	81 ec dc 00 00
	00		 sub	 esp, 220		; 000000dcH
  00009	a1 00 00 00 00	 mov	 eax, DWORD PTR ___security_cookie
  0000e	33 c5		 xor	 eax, ebp
  00010	89 45 fc	 mov	 DWORD PTR __$ArrayPad$[ebp], eax
  00013	8b 45 08	 mov	 eax, DWORD PTR _input$[ebp]
  00016	56		 push	 esi

; 284  :     md5_context ctx;
; 285  : 
; 286  :     md5_starts( &ctx );
; 287  :     md5_update( &ctx, input, ilen );

  00017	ff 75 0c	 push	 DWORD PTR _ilen$[ebp]
  0001a	8b 75 10	 mov	 esi, DWORD PTR _output$[ebp]
  0001d	50		 push	 eax
  0001e	8d 85 24 ff ff
	ff		 lea	 eax, DWORD PTR _ctx$[ebp]

; 67   :     ctx->total[0] = 0;

  00024	c7 85 24 ff ff
	ff 00 00 00 00	 mov	 DWORD PTR _ctx$[ebp], 0

; 284  :     md5_context ctx;
; 285  : 
; 286  :     md5_starts( &ctx );
; 287  :     md5_update( &ctx, input, ilen );

  0002e	50		 push	 eax

; 68   :     ctx->total[1] = 0;

  0002f	c7 85 28 ff ff
	ff 00 00 00 00	 mov	 DWORD PTR _ctx$[ebp+4], 0

; 69   : 
; 70   :     ctx->state[0] = 0x67452301;

  00039	c7 85 2c ff ff
	ff 01 23 45 67	 mov	 DWORD PTR _ctx$[ebp+8], 1732584193 ; 67452301H

; 71   :     ctx->state[1] = 0xEFCDAB89;

  00043	c7 85 30 ff ff
	ff 89 ab cd ef	 mov	 DWORD PTR _ctx$[ebp+12], -271733879 ; efcdab89H

; 72   :     ctx->state[2] = 0x98BADCFE;

  0004d	c7 85 34 ff ff
	ff fe dc ba 98	 mov	 DWORD PTR _ctx$[ebp+16], -1732584194 ; 98badcfeH

; 73   :     ctx->state[3] = 0x10325476;

  00057	c7 85 38 ff ff
	ff 76 54 32 10	 mov	 DWORD PTR _ctx$[ebp+20], 271733878 ; 10325476H

; 284  :     md5_context ctx;
; 285  : 
; 286  :     md5_starts( &ctx );
; 287  :     md5_update( &ctx, input, ilen );

  00061	e8 00 00 00 00	 call	 _md5_update

; 288  :     md5_finish( &ctx, output );

  00066	8d 85 24 ff ff
	ff		 lea	 eax, DWORD PTR _ctx$[ebp]
  0006c	56		 push	 esi
  0006d	50		 push	 eax
  0006e	e8 00 00 00 00	 call	 _md5_finish

; 289  : 
; 290  :     memset( &ctx, 0, sizeof( md5_context ) );
; 291  : }

  00073	8b 4d fc	 mov	 ecx, DWORD PTR __$ArrayPad$[ebp]
  00076	83 c4 14	 add	 esp, 20			; 00000014H
  00079	33 cd		 xor	 ecx, ebp
  0007b	5e		 pop	 esi
  0007c	e8 00 00 00 00	 call	 @__security_check_cookie@4
  00081	8b e5		 mov	 esp, ebp
  00083	5d		 pop	 ebp
  00084	c3		 ret	 0
_md5	ENDP
_TEXT	ENDS
; Function compile flags: /Ogtp
; File E:\Proyectos\JuegosOnlineproyectos\PB\pbblow\Piercing Blow Remake\i3Server\src\i3Base\i3MD5.cpp
;	COMDAT _md5_finish
_TEXT	SEGMENT
_msglen$ = -12						; size = 8
__$ArrayPad$ = -4					; size = 4
_ctx$ = 8						; size = 4
_output$ = 12						; size = 4
_md5_finish PROC					; COMDAT

; 255  : {

  00000	55		 push	 ebp
  00001	8b ec		 mov	 ebp, esp
  00003	83 ec 0c	 sub	 esp, 12			; 0000000cH
  00006	a1 00 00 00 00	 mov	 eax, DWORD PTR ___security_cookie
  0000b	33 c5		 xor	 eax, ebp
  0000d	89 45 fc	 mov	 DWORD PTR __$ArrayPad$[ebp], eax
  00010	53		 push	 ebx
  00011	56		 push	 esi
  00012	57		 push	 edi
  00013	8b 7d 08	 mov	 edi, DWORD PTR _ctx$[ebp]
  00016	8b 5d 0c	 mov	 ebx, DWORD PTR _output$[ebp]

; 256  :     unsigned long last, padn;
; 257  :     unsigned long high, low;
; 258  :     unsigned char msglen[8];
; 259  : 
; 260  :     high = ( ctx->total[0] >> 29 )

  00019	8b 37		 mov	 esi, DWORD PTR [edi]
  0001b	8b c6		 mov	 eax, esi
  0001d	8b 57 04	 mov	 edx, DWORD PTR [edi+4]
  00020	c1 e8 1d	 shr	 eax, 29			; 0000001dH
  00023	c1 e2 03	 shl	 edx, 3
  00026	0b d0		 or	 edx, eax

; 261  :          | ( ctx->total[1] <<  3 );
; 262  :     low  = ( ctx->total[0] <<  3 );

  00028	8d 0c f5 00 00
	00 00		 lea	 ecx, DWORD PTR [esi*8]

; 263  : 
; 264  :     PUT_ULONG_LE( low,  msglen, 0 );

  0002f	8b c1		 mov	 eax, ecx
  00031	88 4d f4	 mov	 BYTE PTR _msglen$[ebp], cl
  00034	c1 e8 08	 shr	 eax, 8

; 265  :     PUT_ULONG_LE( high, msglen, 4 );
; 266  : 
; 267  :     last = ctx->total[0] & 0x3F;

  00037	83 e6 3f	 and	 esi, 63			; 0000003fH
  0003a	88 45 f5	 mov	 BYTE PTR _msglen$[ebp+1], al
  0003d	8b c1		 mov	 eax, ecx
  0003f	c1 e8 10	 shr	 eax, 16			; 00000010H
  00042	88 45 f6	 mov	 BYTE PTR _msglen$[ebp+2], al
  00045	8b c2		 mov	 eax, edx
  00047	c1 e8 08	 shr	 eax, 8
  0004a	88 45 f9	 mov	 BYTE PTR _msglen$[ebp+5], al
  0004d	8b c2		 mov	 eax, edx
  0004f	c1 e8 10	 shr	 eax, 16			; 00000010H
  00052	c1 e9 18	 shr	 ecx, 24			; 00000018H
  00055	88 45 fa	 mov	 BYTE PTR _msglen$[ebp+6], al

; 268  :     padn = ( last < 56 ) ? ( 56 - last ) : ( 120 - last );
; 269  : 
; 270  :     md5_update( ctx, (unsigned char *) md5_padding, padn );

  00058	b8 38 00 00 00	 mov	 eax, 56			; 00000038H
  0005d	88 4d f7	 mov	 BYTE PTR _msglen$[ebp+3], cl
  00060	2b c6		 sub	 eax, esi
  00062	88 55 f8	 mov	 BYTE PTR _msglen$[ebp+4], dl
  00065	b9 78 00 00 00	 mov	 ecx, 120		; 00000078H
  0006a	c1 ea 18	 shr	 edx, 24			; 00000018H
  0006d	2b ce		 sub	 ecx, esi
  0006f	83 fe 38	 cmp	 esi, 56			; 00000038H
  00072	88 55 fb	 mov	 BYTE PTR _msglen$[ebp+7], dl
  00075	0f 43 c1	 cmovae	 eax, ecx
  00078	50		 push	 eax
  00079	68 00 00 00 00	 push	 OFFSET ?md5_padding@@3QBEB
  0007e	57		 push	 edi
  0007f	e8 00 00 00 00	 call	 _md5_update

; 271  :     md5_update( ctx, msglen, 8 );

  00084	6a 08		 push	 8
  00086	8d 45 f4	 lea	 eax, DWORD PTR _msglen$[ebp]
  00089	50		 push	 eax
  0008a	57		 push	 edi
  0008b	e8 00 00 00 00	 call	 _md5_update

; 272  : 
; 273  :     PUT_ULONG_LE( ctx->state[0], output,  0 );

  00090	0f b6 47 08	 movzx	 eax, BYTE PTR [edi+8]
  00094	83 c4 18	 add	 esp, 24			; 00000018H
  00097	88 03		 mov	 BYTE PTR [ebx], al
  00099	0f b6 47 09	 movzx	 eax, BYTE PTR [edi+9]
  0009d	88 43 01	 mov	 BYTE PTR [ebx+1], al
  000a0	0f b6 47 0a	 movzx	 eax, BYTE PTR [edi+10]
  000a4	88 43 02	 mov	 BYTE PTR [ebx+2], al
  000a7	0f b6 47 0b	 movzx	 eax, BYTE PTR [edi+11]
  000ab	88 43 03	 mov	 BYTE PTR [ebx+3], al

; 274  :     PUT_ULONG_LE( ctx->state[1], output,  4 );

  000ae	0f b6 47 0c	 movzx	 eax, BYTE PTR [edi+12]
  000b2	88 43 04	 mov	 BYTE PTR [ebx+4], al
  000b5	0f b6 47 0d	 movzx	 eax, BYTE PTR [edi+13]
  000b9	88 43 05	 mov	 BYTE PTR [ebx+5], al
  000bc	0f b6 47 0e	 movzx	 eax, BYTE PTR [edi+14]
  000c0	88 43 06	 mov	 BYTE PTR [ebx+6], al
  000c3	0f b6 47 0f	 movzx	 eax, BYTE PTR [edi+15]
  000c7	88 43 07	 mov	 BYTE PTR [ebx+7], al

; 275  :     PUT_ULONG_LE( ctx->state[2], output,  8 );

  000ca	0f b6 47 10	 movzx	 eax, BYTE PTR [edi+16]
  000ce	88 43 08	 mov	 BYTE PTR [ebx+8], al
  000d1	0f b6 47 11	 movzx	 eax, BYTE PTR [edi+17]
  000d5	88 43 09	 mov	 BYTE PTR [ebx+9], al
  000d8	0f b6 47 12	 movzx	 eax, BYTE PTR [edi+18]
  000dc	88 43 0a	 mov	 BYTE PTR [ebx+10], al
  000df	0f b6 47 13	 movzx	 eax, BYTE PTR [edi+19]
  000e3	88 43 0b	 mov	 BYTE PTR [ebx+11], al

; 276  :     PUT_ULONG_LE( ctx->state[3], output, 12 );

  000e6	0f b6 47 14	 movzx	 eax, BYTE PTR [edi+20]
  000ea	88 43 0c	 mov	 BYTE PTR [ebx+12], al
  000ed	0f b6 47 15	 movzx	 eax, BYTE PTR [edi+21]
  000f1	88 43 0d	 mov	 BYTE PTR [ebx+13], al
  000f4	0f b6 47 16	 movzx	 eax, BYTE PTR [edi+22]
  000f8	88 43 0e	 mov	 BYTE PTR [ebx+14], al
  000fb	0f b6 47 17	 movzx	 eax, BYTE PTR [edi+23]
  000ff	5f		 pop	 edi
  00100	88 43 0f	 mov	 BYTE PTR [ebx+15], al
  00103	5e		 pop	 esi

; 277  : }

  00104	8b 4d fc	 mov	 ecx, DWORD PTR __$ArrayPad$[ebp]
  00107	33 cd		 xor	 ecx, ebp
  00109	5b		 pop	 ebx
  0010a	e8 00 00 00 00	 call	 @__security_check_cookie@4
  0010f	8b e5		 mov	 esp, ebp
  00111	5d		 pop	 ebp
  00112	c3		 ret	 0
_md5_finish ENDP
_TEXT	ENDS
; Function compile flags: /Ogtp
; File E:\Proyectos\JuegosOnlineproyectos\PB\pbblow\Piercing Blow Remake\i3Server\src\i3Base\i3MD5.cpp
;	COMDAT _md5_update
_TEXT	SEGMENT
_fill$1$ = -4						; size = 4
_ctx$ = 8						; size = 4
_input$ = 12						; size = 4
_ilen$ = 16						; size = 4
_left$1$ = 16						; size = 4
_md5_update PROC					; COMDAT

; 203  : {

  00000	55		 push	 ebp
  00001	8b ec		 mov	 ebp, esp
  00003	51		 push	 ecx
  00004	56		 push	 esi

; 204  :     int fill;
; 205  :     unsigned long left;
; 206  : 
; 207  :     if( ilen <= 0 )

  00005	8b 75 10	 mov	 esi, DWORD PTR _ilen$[ebp]
  00008	85 f6		 test	 esi, esi
  0000a	0f 8e 8e 00 00
	00		 jle	 $LN7@md5_update

; 208  :         return;
; 209  : 
; 210  :     left = ctx->total[0] & 0x3F;

  00010	53		 push	 ebx
  00011	8b 5d 08	 mov	 ebx, DWORD PTR _ctx$[ebp]

; 211  :     fill = 64 - left;

  00014	ba 40 00 00 00	 mov	 edx, 64			; 00000040H
  00019	8b 03		 mov	 eax, DWORD PTR [ebx]
  0001b	8b c8		 mov	 ecx, eax
  0001d	83 e1 3f	 and	 ecx, 63			; 0000003fH

; 212  : 
; 213  :     ctx->total[0] += ilen;

  00020	03 c6		 add	 eax, esi
  00022	2b d1		 sub	 edx, ecx
  00024	89 4d 10	 mov	 DWORD PTR _left$1$[ebp], ecx
  00027	89 55 fc	 mov	 DWORD PTR _fill$1$[ebp], edx

; 214  :     ctx->total[0] &= 0xFFFFFFFF;

  0002a	89 03		 mov	 DWORD PTR [ebx], eax

; 215  : 
; 216  :     if( ctx->total[0] < (unsigned long) ilen )

  0002c	3b c6		 cmp	 eax, esi
  0002e	73 03		 jae	 SHORT $LN5@md5_update

; 217  :         ctx->total[1]++;

  00030	ff 43 04	 inc	 DWORD PTR [ebx+4]
$LN5@md5_update:
  00033	57		 push	 edi

; 218  : 
; 219  :     if( left && ilen >= fill )

  00034	85 c9		 test	 ecx, ecx
  00036	74 30		 je	 SHORT $LN13@md5_update
  00038	3b f2		 cmp	 esi, edx
  0003a	7c 2c		 jl	 SHORT $LN13@md5_update

; 220  :     {
; 221  :         memcpy( (void *) (ctx->buffer + left),

  0003c	8b 7d 0c	 mov	 edi, DWORD PTR _input$[ebp]
  0003f	8d 43 18	 lea	 eax, DWORD PTR [ebx+24]
  00042	52		 push	 edx
  00043	03 c1		 add	 eax, ecx
  00045	57		 push	 edi
  00046	50		 push	 eax
  00047	e8 00 00 00 00	 call	 _memcpy

; 222  :                 (void *) input, fill );
; 223  :         md5_process( ctx, ctx->buffer );

  0004c	8d 43 18	 lea	 eax, DWORD PTR [ebx+24]
  0004f	50		 push	 eax
  00050	53		 push	 ebx
  00051	e8 00 00 00 00	 call	 ?md5_process@@YAXPAUmd5_context@@QAE@Z ; md5_process

; 224  :         input += fill;

  00056	03 7d fc	 add	 edi, DWORD PTR _fill$1$[ebp]
  00059	83 c4 14	 add	 esp, 20			; 00000014H

; 225  :         ilen  -= fill;

  0005c	2b 75 fc	 sub	 esi, DWORD PTR _fill$1$[ebp]

; 226  :         left = 0;

  0005f	c7 45 10 00 00
	00 00		 mov	 DWORD PTR _left$1$[ebp], 0
  00066	eb 03		 jmp	 SHORT $LN9@md5_update
$LN13@md5_update:

; 218  : 
; 219  :     if( left && ilen >= fill )

  00068	8b 7d 0c	 mov	 edi, DWORD PTR _input$[ebp]
$LN9@md5_update:

; 227  :     }
; 228  : 
; 229  :     while( ilen >= 64 )

  0006b	83 fe 40	 cmp	 esi, 64			; 00000040H
  0006e	7c 15		 jl	 SHORT $LN3@md5_update
$LL2@md5_update:

; 230  :     {
; 231  :         md5_process( ctx, input );

  00070	57		 push	 edi
  00071	53		 push	 ebx
  00072	e8 00 00 00 00	 call	 ?md5_process@@YAXPAUmd5_context@@QAE@Z ; md5_process

; 232  :         input += 64;
; 233  :         ilen  -= 64;

  00077	83 ee 40	 sub	 esi, 64			; 00000040H
  0007a	83 c4 08	 add	 esp, 8
  0007d	83 c7 40	 add	 edi, 64			; 00000040H
  00080	83 fe 40	 cmp	 esi, 64			; 00000040H
  00083	7d eb		 jge	 SHORT $LL2@md5_update
$LN3@md5_update:

; 234  :     }
; 235  : 
; 236  :     if( ilen > 0 )

  00085	85 f6		 test	 esi, esi
  00087	7e 13		 jle	 SHORT $LN21@md5_update

; 237  :     {
; 238  :         memcpy( (void *) (ctx->buffer + left),

  00089	8b 45 10	 mov	 eax, DWORD PTR _left$1$[ebp]
  0008c	56		 push	 esi
  0008d	83 c0 18	 add	 eax, 24			; 00000018H
  00090	03 c3		 add	 eax, ebx
  00092	57		 push	 edi
  00093	50		 push	 eax
  00094	e8 00 00 00 00	 call	 _memcpy
  00099	83 c4 0c	 add	 esp, 12			; 0000000cH
$LN21@md5_update:
  0009c	5f		 pop	 edi
  0009d	5b		 pop	 ebx
$LN7@md5_update:
  0009e	5e		 pop	 esi

; 239  :                 (void *) input, ilen );
; 240  :     }
; 241  : }

  0009f	8b e5		 mov	 esp, ebp
  000a1	5d		 pop	 ebp
  000a2	c3		 ret	 0
_md5_update ENDP
_TEXT	ENDS
; Function compile flags: /Ogtp
; File E:\Proyectos\JuegosOnlineproyectos\PB\pbblow\Piercing Blow Remake\i3Server\src\i3Base\i3MD5.cpp
;	COMDAT _md5_starts
_TEXT	SEGMENT
_ctx$ = 8						; size = 4
_md5_starts PROC					; COMDAT

; 66   : {

  00000	55		 push	 ebp
  00001	8b ec		 mov	 ebp, esp

; 67   :     ctx->total[0] = 0;

  00003	8b 45 08	 mov	 eax, DWORD PTR _ctx$[ebp]
  00006	c7 00 00 00 00
	00		 mov	 DWORD PTR [eax], 0

; 68   :     ctx->total[1] = 0;

  0000c	c7 40 04 00 00
	00 00		 mov	 DWORD PTR [eax+4], 0

; 69   : 
; 70   :     ctx->state[0] = 0x67452301;

  00013	c7 40 08 01 23
	45 67		 mov	 DWORD PTR [eax+8], 1732584193 ; 67452301H

; 71   :     ctx->state[1] = 0xEFCDAB89;

  0001a	c7 40 0c 89 ab
	cd ef		 mov	 DWORD PTR [eax+12], -271733879 ; efcdab89H

; 72   :     ctx->state[2] = 0x98BADCFE;

  00021	c7 40 10 fe dc
	ba 98		 mov	 DWORD PTR [eax+16], -1732584194 ; 98badcfeH

; 73   :     ctx->state[3] = 0x10325476;

  00028	c7 40 14 76 54
	32 10		 mov	 DWORD PTR [eax+20], 271733878 ; 10325476H

; 74   : }

  0002f	5d		 pop	 ebp
  00030	c3		 ret	 0
_md5_starts ENDP
_TEXT	ENDS
; Function compile flags: /Ogtp
; File E:\Proyectos\JuegosOnlineproyectos\PB\pbblow\Piercing Blow Remake\i3Server\include\i3Base\UINT128.h
;	COMDAT ??AUINT128@@QBE?B_KH@Z
_TEXT	SEGMENT
_index$ = 8						; size = 4
??AUINT128@@QBE?B_KH@Z PROC				; UINT128::operator[], COMDAT
; _this$ = ecx

; 69   : 	{

  00000	55		 push	 ebp
  00001	8b ec		 mov	 ebp, esp

; 70   : 		return v[index];

  00003	8b 55 08	 mov	 edx, DWORD PTR _index$[ebp]
  00006	8b 04 d1	 mov	 eax, DWORD PTR [ecx+edx*8]
  00009	8b 54 d1 04	 mov	 edx, DWORD PTR [ecx+edx*8+4]

; 71   : 	}

  0000d	5d		 pop	 ebp
  0000e	c2 04 00	 ret	 4
??AUINT128@@QBE?B_KH@Z ENDP				; UINT128::operator[]
_TEXT	ENDS
; Function compile flags: /Ogtp
; File C:\Program Files (x86)\Windows Kits\10\Include\10.0.26100.0\ucrt\stdio.h
;	COMDAT _sprintf
_TEXT	SEGMENT
__Buffer$ = 8						; size = 4
__Format$ = 12						; size = 4
_sprintf PROC						; COMDAT

; 1771 :     {

  00000	55		 push	 ebp
  00001	8b ec		 mov	 ebp, esp

; 1392 :         int const _Result = __stdio_common_vsprintf(

  00003	8d 45 10	 lea	 eax, DWORD PTR __Format$[ebp+4]
  00006	50		 push	 eax
  00007	6a 00		 push	 0
  00009	ff 75 0c	 push	 DWORD PTR __Format$[ebp]
  0000c	6a ff		 push	 -1
  0000e	ff 75 08	 push	 DWORD PTR __Buffer$[ebp]
  00011	e8 00 00 00 00	 call	 ___local_stdio_printf_options
  00016	8b 08		 mov	 ecx, DWORD PTR [eax]
  00018	ff 70 04	 push	 DWORD PTR [eax+4]
  0001b	83 c9 01	 or	 ecx, 1
  0001e	51		 push	 ecx
  0001f	e8 00 00 00 00	 call	 ___stdio_common_vsprintf

; 1393 :             _CRT_INTERNAL_LOCAL_PRINTF_OPTIONS | _CRT_INTERNAL_PRINTF_LEGACY_VSPRINTF_NULL_TERMINATION,
; 1394 :             _Buffer, _BufferCount, _Format, _Locale, _ArgList);
; 1395 : 
; 1396 :         return _Result < 0 ? -1 : _Result;

  00024	83 c9 ff	 or	 ecx, -1
  00027	83 c4 1c	 add	 esp, 28			; 0000001cH
  0002a	85 c0		 test	 eax, eax
  0002c	0f 48 c1	 cmovs	 eax, ecx

; 1772 :         int _Result;
; 1773 :         va_list _ArgList;
; 1774 :         __crt_va_start(_ArgList, _Format);
; 1775 : 
; 1776 :         _Result = _vsprintf_l(_Buffer, _Format, NULL, _ArgList);
; 1777 : 
; 1778 :         __crt_va_end(_ArgList);
; 1779 :         return _Result;
; 1780 :     }

  0002f	5d		 pop	 ebp
  00030	c3		 ret	 0
_sprintf ENDP
_TEXT	ENDS
; Function compile flags: /Ogtp
; File C:\Program Files (x86)\Windows Kits\10\Include\10.0.26100.0\ucrt\corecrt_stdio_config.h
;	COMDAT ___local_stdio_printf_options
_TEXT	SEGMENT
___local_stdio_printf_options PROC			; COMDAT

; 91   :         static unsigned __int64 _OptionsStorage;
; 92   :         return &_OptionsStorage;

  00000	b8 00 00 00 00	 mov	 eax, OFFSET ?_OptionsStorage@?1??__local_stdio_printf_options@@9@4_KA ; `__local_stdio_printf_options'::`2'::_OptionsStorage

; 93   :     }

  00005	c3		 ret	 0
___local_stdio_printf_options ENDP
_TEXT	ENDS
END
