; Listing generated by Microsoft (R) Optimizing Compiler Version 19.50.35727.0 

	TITLE	E:\Proyectos\JuegosOnlineproyectos\PB\pbblow\Piercing Blow Remake\i3Server\Project\I3_DX\i3Server\x86\Release\i3Memory.obj
	.686P
	.XMM
	include listing.inc
	.model	flat

INCLUDELIB LIBCMT
INCLUDELIB OLDNAMES

PUBLIC	__Avx2WmemEnabledWeakValue
PUBLIC	?Alloc@i3mem@@3P6APAXHHHPBDH@ZA			; i3mem::Alloc
PUBLIC	?Realloc@i3mem@@3P6APAXPAXHHPBDH@ZA		; i3mem::Realloc
PUBLIC	?Free@i3mem@@3P6AXPAXPBDH@ZA			; i3mem::Free
PUBLIC	?Compact@i3mem@@3P6AXXZA			; i3mem::Compact
;	COMDAT __Avx2WmemEnabledWeakValue
_BSS	SEGMENT
__Avx2WmemEnabledWeakValue DD 01H DUP (?)
_BSS	ENDS
_BSS	SEGMENT
?Alloc@i3mem@@3P6APAXHHHPBDH@ZA DD 01H DUP (?)		; i3mem::Alloc
?Realloc@i3mem@@3P6APAXPAXHHPBDH@ZA DD 01H DUP (?)	; i3mem::Realloc
?Free@i3mem@@3P6AXPAXPBDH@ZA DD 01H DUP (?)		; i3mem::Free
?Compact@i3mem@@3P6AXXZA DD 01H DUP (?)			; i3mem::Compact
_BSS	ENDS
PUBLIC	?__empty_global_delete@@YAXPAX@Z		; __empty_global_delete
PUBLIC	?__global_delete@@YAXPAX@Z			; __global_delete
PUBLIC	?__empty_global_delete@@YAXPAXI@Z		; __empty_global_delete
PUBLIC	?__global_delete@@YAXPAXI@Z			; __global_delete
PUBLIC	?__global_array_delete@@YAXPAX@Z		; __global_array_delete
PUBLIC	?__global_array_delete@@YAXPAXI@Z		; __global_array_delete
PUBLIC	___local_stdio_printf_options
PUBLIC	_sprintf
PUBLIC	?Create@i3mem@@YAXHHPAD@Z			; i3mem::Create
PUBLIC	?Destroy@i3mem@@YAXXZ				; i3mem::Destroy
PUBLIC	?AllocGame@i3mem@@YAPAXHHHPBDH@Z		; i3mem::AllocGame
PUBLIC	?AllocTool@i3mem@@YAPAXHHHPBDH@Z		; i3mem::AllocTool
PUBLIC	?ReallocGame@i3mem@@YAPAXPAXHHPBDH@Z		; i3mem::ReallocGame
PUBLIC	?ReallocTool@i3mem@@YAPAXPAXHHPBDH@Z		; i3mem::ReallocTool
PUBLIC	?FreeGame@i3mem@@YAXPAXPBDH@Z			; i3mem::FreeGame
PUBLIC	?FreeTool@i3mem@@YAXPAXPBDH@Z			; i3mem::FreeTool
PUBLIC	?SetState@i3mem@@YAXPAX@Z			; i3mem::SetState
PUBLIC	?GetState@i3mem@@YAHPAX@Z			; i3mem::GetState
PUBLIC	?GetAllocSize@i3mem@@YAIXZ			; i3mem::GetAllocSize
PUBLIC	?GetAllocCount@i3mem@@YAHXZ			; i3mem::GetAllocCount
PUBLIC	?Dump@i3mem@@YAXH@Z				; i3mem::Dump
PUBLIC	?Enum@i3mem@@YAXP6A_NPAUI3MEMBLOCK@@PAX@Z1@Z	; i3mem::Enum
PUBLIC	?CompactGame@i3mem@@YAXXZ			; i3mem::CompactGame
PUBLIC	?CompactTool@i3mem@@YAXXZ			; i3mem::CompactTool
PUBLIC	?SetDumpEnable@i3mem@@YAXH@Z			; i3mem::SetDumpEnable
PUBLIC	?i3MemoryInit@@YAXIPAD@Z			; i3MemoryInit
PUBLIC	?GetMemoryPool@i3ClassMeta@@QAEPAVi3MemoryPool@@XZ ; i3ClassMeta::GetMemoryPool
PUBLIC	?SetMemoryPool@i3ClassMeta@@QAEXPAVi3MemoryPool@@@Z ; i3ClassMeta::SetMemoryPool
PUBLIC	?GetClassSize@i3ClassMeta@@QAEIXZ		; i3ClassMeta::GetClassSize
PUBLIC	?GetClassNameA@i3ClassMeta@@QAEPADXZ		; i3ClassMeta::GetClassNameA
PUBLIC	?IsExactTypeOf@i3ClassMeta@@QAE_NPAV1@@Z	; i3ClassMeta::IsExactTypeOf
PUBLIC	?SetStyle@i3ClassMeta@@QAEXI@Z			; i3ClassMeta::SetStyle
PUBLIC	?GetStyle@i3ClassMeta@@QAEIXZ			; i3ClassMeta::GetStyle
PUBLIC	?AddStyle@i3ClassMeta@@QAEXI@Z			; i3ClassMeta::AddStyle
PUBLIC	?RemoveStyle@i3ClassMeta@@QAEXI@Z		; i3ClassMeta::RemoveStyle
PUBLIC	?IsStyle@i3ClassMeta@@QAEHI@Z			; i3ClassMeta::IsStyle
PUBLIC	?IsAbstractClass@i3ClassMeta@@QAEHXZ		; i3ClassMeta::IsAbstractClass
PUBLIC	?IsConcreteClass@i3ClassMeta@@QAEHXZ		; i3ClassMeta::IsConcreteClass
PUBLIC	?GetBaseClassMeta@i3ClassMeta@@QAEPAV1@XZ	; i3ClassMeta::GetBaseClassMeta
PUBLIC	?getHashCode@i3ClassMeta@@QAEIXZ		; i3ClassMeta::getHashCode
PUBLIC	??0i3ClassMeta@@QAE@ABV0@@Z			; i3ClassMeta::i3ClassMeta
PUBLIC	??4i3ClassMeta@@QAEAAV0@ABV0@@Z			; i3ClassMeta::operator=
PUBLIC	??_Gi3ClassMeta@@UAEPAXI@Z			; i3ClassMeta::`scalar deleting destructor'
PUBLIC	??_Ei3ClassMeta@@UAEPAXI@Z			; i3ClassMeta::`vector deleting destructor'
PUBLIC	?GetClassMeta@i3ElementBase@@SAPAVi3ClassMeta@@XZ ; i3ElementBase::GetClassMeta
PUBLIC	?GetRefCount@i3ElementBase@@QAEHXZ		; i3ElementBase::GetRefCount
PUBLIC	?__SetMemoryPool@i3ElementBase@@QAEXPAVi3MemoryPool@@@Z ; i3ElementBase::__SetMemoryPool
PUBLIC	?__GetMemoryPool@i3ElementBase@@QAEPAVi3MemoryPool@@XZ ; i3ElementBase::__GetMemoryPool
PUBLIC	?IsExactTypeOf@i3ElementBase@@QAE_NPAVi3ClassMeta@@@Z ; i3ElementBase::IsExactTypeOf
PUBLIC	?IsTypeOf@i3ElementBase@@QAE_NPAVi3ClassMeta@@@Z ; i3ElementBase::IsTypeOf
PUBLIC	?AddRef@i3ElementBase@@QAEHXZ			; i3ElementBase::AddRef
PUBLIC	?_internal_SetRefCount@i3ElementBase@@QAEXH@Z	; i3ElementBase::_internal_SetRefCount
PUBLIC	??0i3ElementBase@@QAE@ABV0@@Z			; i3ElementBase::i3ElementBase
PUBLIC	??4i3ElementBase@@QAEAAV0@ABV0@@Z		; i3ElementBase::operator=
PUBLIC	??_Gi3ElementBase@@UAEPAXI@Z			; i3ElementBase::`scalar deleting destructor'
PUBLIC	??_Ei3ElementBase@@UAEPAXI@Z			; i3ElementBase::`vector deleting destructor'
PUBLIC	??0i3MemoryPool@@QAE@ABV0@@Z			; i3MemoryPool::i3MemoryPool
PUBLIC	??4i3MemoryPool@@QAEAAV0@ABV0@@Z		; i3MemoryPool::operator=
PUBLIC	??_Gi3MemoryPool@@UAEPAXI@Z			; i3MemoryPool::`scalar deleting destructor'
PUBLIC	??_Ei3MemoryPool@@UAEPAXI@Z			; i3MemoryPool::`vector deleting destructor'
PUBLIC	?GetClassMeta@i3Stream@@SAPAVi3ClassMeta@@XZ	; i3Stream::GetClassMeta
PUBLIC	?GetSize@i3Stream@@QAEIXZ			; i3Stream::GetSize
PUBLIC	?GetLastError@i3Stream@@QAE?AW4STREAMCODE@1@XZ	; i3Stream::GetLastError
PUBLIC	?GetAccessMode@i3Stream@@QAEHXZ			; i3Stream::GetAccessMode
PUBLIC	?GetHandle@i3Stream@@UAEPAXXZ			; i3Stream::GetHandle
PUBLIC	?BeginRecord@i3Stream@@QAEXXZ			; i3Stream::BeginRecord
PUBLIC	?GetRecordSize@i3Stream@@QAEIXZ			; i3Stream::GetRecordSize
PUBLIC	??0i3Stream@@QAE@ABV0@@Z			; i3Stream::i3Stream
PUBLIC	??4i3Stream@@QAEAAV0@ABV0@@Z			; i3Stream::operator=
PUBLIC	??_Gi3Stream@@UAEPAXI@Z				; i3Stream::`scalar deleting destructor'
PUBLIC	??_Ei3Stream@@UAEPAXI@Z				; i3Stream::`vector deleting destructor'
PUBLIC	?GetClassMeta@i3FileStream@@SAPAVi3ClassMeta@@XZ ; i3FileStream::GetClassMeta
PUBLIC	?GetHandle@i3FileStream@@UAEPAXXZ		; i3FileStream::GetHandle
PUBLIC	?GetFileName@i3FileStream@@QAEPADXZ		; i3FileStream::GetFileName
PUBLIC	?SetCaseSensitive@i3FileStream@@SAXH@Z		; i3FileStream::SetCaseSensitive
PUBLIC	?IsCaseSensitive@i3FileStream@@SAHXZ		; i3FileStream::IsCaseSensitive
PUBLIC	??0i3FileStream@@QAE@ABV0@@Z			; i3FileStream::i3FileStream
PUBLIC	??4i3FileStream@@QAEAAV0@ABV0@@Z		; i3FileStream::operator=
PUBLIC	??_Gi3FileStream@@UAEPAXI@Z			; i3FileStream::`scalar deleting destructor'
PUBLIC	??_Ei3FileStream@@UAEPAXI@Z			; i3FileStream::`vector deleting destructor'
PUBLIC	?GetClassMeta@i3Timer@@SAPAVi3ClassMeta@@XZ	; i3Timer::GetClassMeta
PUBLIC	??0i3Timer@@QAE@ABV0@@Z				; i3Timer::i3Timer
PUBLIC	??4i3Timer@@QAEAAV0@ABV0@@Z			; i3Timer::operator=
PUBLIC	??_Gi3Timer@@UAEPAXI@Z				; i3Timer::`scalar deleting destructor'
PUBLIC	??_Ei3Timer@@UAEPAXI@Z				; i3Timer::`vector deleting destructor'
PUBLIC	?GetClassMeta@i3Mutex@@SAPAVi3ClassMeta@@XZ	; i3Mutex::GetClassMeta
PUBLIC	??0i3Mutex@@QAE@ABV0@@Z				; i3Mutex::i3Mutex
PUBLIC	??4i3Mutex@@QAEAAV0@ABV0@@Z			; i3Mutex::operator=
PUBLIC	??_Gi3Mutex@@UAEPAXI@Z				; i3Mutex::`scalar deleting destructor'
PUBLIC	??_Ei3Mutex@@UAEPAXI@Z				; i3Mutex::`vector deleting destructor'
PUBLIC	??4i3Mutex2@@QAEAAV0@ABV0@@Z			; i3Mutex2::operator=
PUBLIC	??4i3Monitor2@@QAEAAV0@ABV0@@Z			; i3Monitor2::operator=
PUBLIC	?_OptionsStorage@?1??__local_stdio_printf_options@@9@4_KA ; `__local_stdio_printf_options'::`2'::_OptionsStorage
PUBLIC	??_7i3ClassMeta@@6B@				; i3ClassMeta::`vftable'
PUBLIC	??_7i3ElementBase@@6B@				; i3ElementBase::`vftable'
PUBLIC	??_7i3MemoryPool@@6B@				; i3MemoryPool::`vftable'
PUBLIC	??_7i3Stream@@6B@				; i3Stream::`vftable'
PUBLIC	??_7i3FileStream@@6B@				; i3FileStream::`vftable'
PUBLIC	??_7i3Timer@@6B@				; i3Timer::`vftable'
PUBLIC	??_7i3Mutex@@6B@				; i3Mutex::`vftable'
PUBLIC	??_C@_0CN@MCILIPOL@?$FLi3mem?3?3Alloc?$FN?5Not?5Enough?5Memor@ ; `string'
PUBLIC	??_C@_0P@HCMEEKFH@c?3?2MemDump?4i3m@		; `string'
PUBLIC	??_C@_0BJ@JNCBAGB@Total?5Memory?5Size?5?3?5?$CFs?5?6@ ; `string'
PUBLIC	??_C@_0DA@KFNLPDNL@Use?5Block?5Count?5ALL?5?$DN?5?$CFd?5ALLOC?5@ ; `string'
PUBLIC	??_C@_0CD@KOBAKLHO@Memory?5Size?5Alloc?5?$DN?5?$CFd?5Free?5?$DN?5?$CF@ ; `string'
PUBLIC	??_R4i3ElementBase@@6B@				; i3ElementBase::`RTTI Complete Object Locator'
PUBLIC	??_R0?AVi3ElementBase@@@8			; i3ElementBase `RTTI Type Descriptor'
PUBLIC	??_R3i3ElementBase@@8				; i3ElementBase::`RTTI Class Hierarchy Descriptor'
PUBLIC	??_R2i3ElementBase@@8				; i3ElementBase::`RTTI Base Class Array'
PUBLIC	??_R1A@?0A@EA@i3ElementBase@@8			; i3ElementBase::`RTTI Base Class Descriptor at (0,-1,0,64)'
PUBLIC	??_R4i3MemoryPool@@6B@				; i3MemoryPool::`RTTI Complete Object Locator'
PUBLIC	??_R0?AVi3MemoryPool@@@8			; i3MemoryPool `RTTI Type Descriptor'
PUBLIC	??_R3i3MemoryPool@@8				; i3MemoryPool::`RTTI Class Hierarchy Descriptor'
PUBLIC	??_R2i3MemoryPool@@8				; i3MemoryPool::`RTTI Base Class Array'
PUBLIC	??_R1A@?0A@EA@i3MemoryPool@@8			; i3MemoryPool::`RTTI Base Class Descriptor at (0,-1,0,64)'
PUBLIC	??_R4i3ClassMeta@@6B@				; i3ClassMeta::`RTTI Complete Object Locator'
PUBLIC	??_R0?AVi3ClassMeta@@@8				; i3ClassMeta `RTTI Type Descriptor'
PUBLIC	??_R3i3ClassMeta@@8				; i3ClassMeta::`RTTI Class Hierarchy Descriptor'
PUBLIC	??_R2i3ClassMeta@@8				; i3ClassMeta::`RTTI Base Class Array'
PUBLIC	??_R1A@?0A@EA@i3ClassMeta@@8			; i3ClassMeta::`RTTI Base Class Descriptor at (0,-1,0,64)'
PUBLIC	??_R4i3Stream@@6B@				; i3Stream::`RTTI Complete Object Locator'
PUBLIC	??_R0?AVi3Stream@@@8				; i3Stream `RTTI Type Descriptor'
PUBLIC	??_R3i3Stream@@8				; i3Stream::`RTTI Class Hierarchy Descriptor'
PUBLIC	??_R2i3Stream@@8				; i3Stream::`RTTI Base Class Array'
PUBLIC	??_R1A@?0A@EA@i3Stream@@8			; i3Stream::`RTTI Base Class Descriptor at (0,-1,0,64)'
PUBLIC	??_R4i3FileStream@@6B@				; i3FileStream::`RTTI Complete Object Locator'
PUBLIC	??_R0?AVi3FileStream@@@8			; i3FileStream `RTTI Type Descriptor'
PUBLIC	??_R3i3FileStream@@8				; i3FileStream::`RTTI Class Hierarchy Descriptor'
PUBLIC	??_R2i3FileStream@@8				; i3FileStream::`RTTI Base Class Array'
PUBLIC	??_R1A@?0A@EA@i3FileStream@@8			; i3FileStream::`RTTI Base Class Descriptor at (0,-1,0,64)'
PUBLIC	??_R4i3Timer@@6B@				; i3Timer::`RTTI Complete Object Locator'
PUBLIC	??_R0?AVi3Timer@@@8				; i3Timer `RTTI Type Descriptor'
PUBLIC	??_R3i3Timer@@8					; i3Timer::`RTTI Class Hierarchy Descriptor'
PUBLIC	??_R2i3Timer@@8					; i3Timer::`RTTI Base Class Array'
PUBLIC	??_R1A@?0A@EA@i3Timer@@8			; i3Timer::`RTTI Base Class Descriptor at (0,-1,0,64)'
PUBLIC	??_R4i3Mutex@@6B@				; i3Mutex::`RTTI Complete Object Locator'
PUBLIC	??_R0?AVi3Mutex@@@8				; i3Mutex `RTTI Type Descriptor'
PUBLIC	??_R3i3Mutex@@8					; i3Mutex::`RTTI Class Hierarchy Descriptor'
PUBLIC	??_R2i3Mutex@@8					; i3Mutex::`RTTI Base Class Array'
PUBLIC	??_R1A@?0A@EA@i3Mutex@@8			; i3Mutex::`RTTI Base Class Descriptor at (0,-1,0,64)'
EXTRN	??_M@YGXPAXIIP6EX0@Z@Z:PROC			; `eh vector destructor iterator'
EXTRN	__purecall:PROC
EXTRN	??3@YAXPAX@Z:PROC				; operator delete
EXTRN	??3@YAXPAXI@Z:PROC				; operator delete
EXTRN	??_V@YAXPAX@Z:PROC				; operator delete[]
EXTRN	??_V@YAXPAXI@Z:PROC				; operator delete[]
EXTRN	_atexit:PROC
EXTRN	__imp__LocalAlloc@8:PROC
EXTRN	__imp__LocalFree@4:PROC
EXTRN	___stdio_common_vsprintf:PROC
EXTRN	_free:PROC
EXTRN	_malloc:PROC
EXTRN	_realloc:PROC
EXTRN	??1i3ClassMeta@@UAE@XZ:PROC			; i3ClassMeta::~i3ClassMeta
EXTRN	?CreateInstance@i3ClassMeta@@UAEPAVi3ElementBase@@W4I3_CLASSMETA_TYPE@@@Z:PROC ; i3ClassMeta::CreateInstance
EXTRN	?BindInstance@i3ClassMeta@@UAEPAVi3ElementBase@@PAXW4I3_CLASSMETA_TYPE@@@Z:PROC ; i3ClassMeta::BindInstance
EXTRN	?IsTypeOf@i3ClassMeta@@QAE_NPAV1@@Z:PROC	; i3ClassMeta::IsTypeOf
EXTRN	?GetMeta@i3ElementBase@@UAEPAVi3ClassMeta@@XZ:PROC ; i3ElementBase::GetMeta
EXTRN	??1i3ElementBase@@UAE@XZ:PROC			; i3ElementBase::~i3ElementBase
EXTRN	??3i3ElementBase@@SAXPAX@Z:PROC			; i3ElementBase::operator delete
EXTRN	?CopyTo@i3ElementBase@@UAEXPAV1@W4I3_COPY_METHOD@@@Z:PROC ; i3ElementBase::CopyTo
EXTRN	??1i3MemoryPool@@UAE@XZ:PROC			; i3MemoryPool::~i3MemoryPool
EXTRN	?GetMeta@i3Stream@@UAEPAVi3ClassMeta@@XZ:PROC	; i3Stream::GetMeta
EXTRN	??1i3Stream@@UAE@XZ:PROC			; i3Stream::~i3Stream
EXTRN	?CopyTo@i3Stream@@UAEIPAV1@I@Z:PROC		; i3Stream::CopyTo
EXTRN	?CopyFrom@i3Stream@@UAEIPAV1@I@Z:PROC		; i3Stream::CopyFrom
EXTRN	?ReadLine@i3Stream@@UAEIPADH@Z:PROC		; i3Stream::ReadLine
EXTRN	?ReadLineW@i3Stream@@UAEIPAGH@Z:PROC		; i3Stream::ReadLineW
EXTRN	?WriteLine@i3Stream@@UAEIPBD@Z:PROC		; i3Stream::WriteLine
EXTRN	?WriteLineW@i3Stream@@UAEIPBG@Z:PROC		; i3Stream::WriteLineW
EXTRN	?Printf@i3Stream@@UAAIPADPBDZZ:PROC		; i3Stream::Printf
EXTRN	?GetMeta@i3FileStream@@UAEPAVi3ClassMeta@@XZ:PROC ; i3FileStream::GetMeta
EXTRN	??0i3FileStream@@QAE@XZ:PROC			; i3FileStream::i3FileStream
EXTRN	??1i3FileStream@@UAE@XZ:PROC			; i3FileStream::~i3FileStream
EXTRN	?Create@i3FileStream@@UAEHPBDHI@Z:PROC		; i3FileStream::Create
EXTRN	?Open@i3FileStream@@UAEHPBDHI@Z:PROC		; i3FileStream::Open
EXTRN	?Close@i3FileStream@@UAEHXZ:PROC		; i3FileStream::Close
EXTRN	?Read@i3FileStream@@UAEIPAXH@Z:PROC		; i3FileStream::Read
EXTRN	?Write@i3FileStream@@UAEIPBXH@Z:PROC		; i3FileStream::Write
EXTRN	?SetPosition@i3FileStream@@UAEIHH@Z:PROC	; i3FileStream::SetPosition
EXTRN	?GetPosition@i3FileStream@@UAEIXZ:PROC		; i3FileStream::GetPosition
EXTRN	?ValueToStr@i3String@@YAHHPADH@Z:PROC		; i3String::ValueToStr
EXTRN	?GetMeta@i3Timer@@UAEPAVi3ClassMeta@@XZ:PROC	; i3Timer::GetMeta
EXTRN	??1i3Timer@@UAE@XZ:PROC				; i3Timer::~i3Timer
EXTRN	?GetMeta@i3Mutex@@UAEPAVi3ClassMeta@@XZ:PROC	; i3Mutex::GetMeta
EXTRN	??1i3Mutex@@UAE@XZ:PROC				; i3Mutex::~i3Mutex
EXTRN	??0i3Mutex2@@QAE@XZ:PROC			; i3Mutex2::i3Mutex2
EXTRN	??1i3Mutex2@@QAE@XZ:PROC			; i3Mutex2::~i3Mutex2
EXTRN	?Enter@i3Mutex2@@QAEXXZ:PROC			; i3Mutex2::Enter
EXTRN	?Leave@i3Mutex2@@QAEXXZ:PROC			; i3Mutex2::Leave
EXTRN	@__security_check_cookie@4:PROC
EXTRN	___CxxFrameHandler3:PROC
EXTRN	_memcpy:PROC
EXTRN	??_7type_info@@6B@:QWORD			; type_info::`vftable'
EXTRN	?s_pClassMetai3ElementBase@i3ElementBase@@2PAVi3ClassMeta@@A:DWORD ; i3ElementBase::s_pClassMetai3ElementBase
EXTRN	?s_pClassMetai3Stream@i3Stream@@2PAVi3ClassMeta@@A:DWORD ; i3Stream::s_pClassMetai3Stream
EXTRN	?s_pClassMetai3FileStream@i3FileStream@@2PAVi3ClassMeta@@A:DWORD ; i3FileStream::s_pClassMetai3FileStream
EXTRN	?m_bCaseSensitive@i3FileStream@@1HA:DWORD	; i3FileStream::m_bCaseSensitive
EXTRN	?s_pClassMetai3Timer@i3Timer@@2PAVi3ClassMeta@@A:DWORD ; i3Timer::s_pClassMetai3Timer
EXTRN	?s_pClassMetai3Mutex@i3Mutex@@2PAVi3ClassMeta@@A:DWORD ; i3Mutex::s_pClassMetai3Mutex
EXTRN	___security_cookie:DWORD
;	COMDAT ?_OptionsStorage@?1??__local_stdio_printf_options@@9@4_KA
_BSS	SEGMENT
?_OptionsStorage@?1??__local_stdio_printf_options@@9@4_KA DQ 01H DUP (?) ; `__local_stdio_printf_options'::`2'::_OptionsStorage
_BSS	ENDS
_BSS	SEGMENT
?s_pAllocBlockHead@@3PAUI3MEMBLOCK@@A DD 01H DUP (?)	; s_pAllocBlockHead
?s_pFreeBlockHead@@3PAUI3MEMBLOCK@@A DD 01H DUP (?)	; s_pFreeBlockHead
?s_pBuffer@@3PADA DD 01H DUP (?)			; s_pBuffer
?s_pPointer@@3PAPADA DD 02H DUP (?)			; s_pPointer
?s_pMovePointer@@3PAPADA DD 02H DUP (?)			; s_pMovePointer
?s_GatherCount@@3HA DD 01H DUP (?)			; s_GatherCount
?s_bMemoryInit@@3_NA DB 01H DUP (?)			; s_bMemoryInit
	ALIGN	4

?TempChar@@3PADA DB 0100H DUP (?)			; TempChar
?s_MemoryCs@@3Vi3Mutex2@@A DB 018H DUP (?)		; s_MemoryCs
_BSS	ENDS
CRT$XCU	SEGMENT
?s_MemoryCs$initializer$@@3P6AXXZA DD FLAT:??__Es_MemoryCs@@YAXXZ ; s_MemoryCs$initializer$
CRT$XCU	ENDS
;	COMDAT ??_R1A@?0A@EA@i3Mutex@@8
rdata$r	SEGMENT
??_R1A@?0A@EA@i3Mutex@@8 DD FLAT:??_R0?AVi3Mutex@@@8	; i3Mutex::`RTTI Base Class Descriptor at (0,-1,0,64)'
	DD	01H
	DD	00H
	DD	0ffffffffH
	DD	00H
	DD	040H
	DD	FLAT:??_R3i3Mutex@@8
rdata$r	ENDS
;	COMDAT ??_R2i3Mutex@@8
rdata$r	SEGMENT
??_R2i3Mutex@@8 DD FLAT:??_R1A@?0A@EA@i3Mutex@@8	; i3Mutex::`RTTI Base Class Array'
	DD	FLAT:??_R1A@?0A@EA@i3ElementBase@@8
rdata$r	ENDS
;	COMDAT ??_R3i3Mutex@@8
rdata$r	SEGMENT
??_R3i3Mutex@@8 DD 00H					; i3Mutex::`RTTI Class Hierarchy Descriptor'
	DD	00H
	DD	02H
	DD	FLAT:??_R2i3Mutex@@8
rdata$r	ENDS
;	COMDAT ??_R0?AVi3Mutex@@@8
data$rs	SEGMENT
??_R0?AVi3Mutex@@@8 DD FLAT:??_7type_info@@6B@		; i3Mutex `RTTI Type Descriptor'
	DD	00H
	DB	'.?AVi3Mutex@@', 00H
data$rs	ENDS
;	COMDAT ??_R4i3Mutex@@6B@
rdata$r	SEGMENT
??_R4i3Mutex@@6B@ DD 00H				; i3Mutex::`RTTI Complete Object Locator'
	DD	00H
	DD	00H
	DD	FLAT:??_R0?AVi3Mutex@@@8
	DD	FLAT:??_R3i3Mutex@@8
rdata$r	ENDS
;	COMDAT ??_R1A@?0A@EA@i3Timer@@8
rdata$r	SEGMENT
??_R1A@?0A@EA@i3Timer@@8 DD FLAT:??_R0?AVi3Timer@@@8	; i3Timer::`RTTI Base Class Descriptor at (0,-1,0,64)'
	DD	01H
	DD	00H
	DD	0ffffffffH
	DD	00H
	DD	040H
	DD	FLAT:??_R3i3Timer@@8
rdata$r	ENDS
;	COMDAT ??_R2i3Timer@@8
rdata$r	SEGMENT
??_R2i3Timer@@8 DD FLAT:??_R1A@?0A@EA@i3Timer@@8	; i3Timer::`RTTI Base Class Array'
	DD	FLAT:??_R1A@?0A@EA@i3ElementBase@@8
rdata$r	ENDS
;	COMDAT ??_R3i3Timer@@8
rdata$r	SEGMENT
??_R3i3Timer@@8 DD 00H					; i3Timer::`RTTI Class Hierarchy Descriptor'
	DD	00H
	DD	02H
	DD	FLAT:??_R2i3Timer@@8
rdata$r	ENDS
;	COMDAT ??_R0?AVi3Timer@@@8
data$rs	SEGMENT
??_R0?AVi3Timer@@@8 DD FLAT:??_7type_info@@6B@		; i3Timer `RTTI Type Descriptor'
	DD	00H
	DB	'.?AVi3Timer@@', 00H
data$rs	ENDS
;	COMDAT ??_R4i3Timer@@6B@
rdata$r	SEGMENT
??_R4i3Timer@@6B@ DD 00H				; i3Timer::`RTTI Complete Object Locator'
	DD	00H
	DD	00H
	DD	FLAT:??_R0?AVi3Timer@@@8
	DD	FLAT:??_R3i3Timer@@8
rdata$r	ENDS
;	COMDAT ??_R1A@?0A@EA@i3FileStream@@8
rdata$r	SEGMENT
??_R1A@?0A@EA@i3FileStream@@8 DD FLAT:??_R0?AVi3FileStream@@@8 ; i3FileStream::`RTTI Base Class Descriptor at (0,-1,0,64)'
	DD	02H
	DD	00H
	DD	0ffffffffH
	DD	00H
	DD	040H
	DD	FLAT:??_R3i3FileStream@@8
rdata$r	ENDS
;	COMDAT ??_R2i3FileStream@@8
rdata$r	SEGMENT
??_R2i3FileStream@@8 DD FLAT:??_R1A@?0A@EA@i3FileStream@@8 ; i3FileStream::`RTTI Base Class Array'
	DD	FLAT:??_R1A@?0A@EA@i3Stream@@8
	DD	FLAT:??_R1A@?0A@EA@i3ElementBase@@8
rdata$r	ENDS
;	COMDAT ??_R3i3FileStream@@8
rdata$r	SEGMENT
??_R3i3FileStream@@8 DD 00H				; i3FileStream::`RTTI Class Hierarchy Descriptor'
	DD	00H
	DD	03H
	DD	FLAT:??_R2i3FileStream@@8
rdata$r	ENDS
;	COMDAT ??_R0?AVi3FileStream@@@8
data$rs	SEGMENT
??_R0?AVi3FileStream@@@8 DD FLAT:??_7type_info@@6B@	; i3FileStream `RTTI Type Descriptor'
	DD	00H
	DB	'.?AVi3FileStream@@', 00H
data$rs	ENDS
;	COMDAT ??_R4i3FileStream@@6B@
rdata$r	SEGMENT
??_R4i3FileStream@@6B@ DD 00H				; i3FileStream::`RTTI Complete Object Locator'
	DD	00H
	DD	00H
	DD	FLAT:??_R0?AVi3FileStream@@@8
	DD	FLAT:??_R3i3FileStream@@8
rdata$r	ENDS
;	COMDAT ??_R1A@?0A@EA@i3Stream@@8
rdata$r	SEGMENT
??_R1A@?0A@EA@i3Stream@@8 DD FLAT:??_R0?AVi3Stream@@@8	; i3Stream::`RTTI Base Class Descriptor at (0,-1,0,64)'
	DD	01H
	DD	00H
	DD	0ffffffffH
	DD	00H
	DD	040H
	DD	FLAT:??_R3i3Stream@@8
rdata$r	ENDS
;	COMDAT ??_R2i3Stream@@8
rdata$r	SEGMENT
??_R2i3Stream@@8 DD FLAT:??_R1A@?0A@EA@i3Stream@@8	; i3Stream::`RTTI Base Class Array'
	DD	FLAT:??_R1A@?0A@EA@i3ElementBase@@8
rdata$r	ENDS
;	COMDAT ??_R3i3Stream@@8
rdata$r	SEGMENT
??_R3i3Stream@@8 DD 00H					; i3Stream::`RTTI Class Hierarchy Descriptor'
	DD	00H
	DD	02H
	DD	FLAT:??_R2i3Stream@@8
rdata$r	ENDS
;	COMDAT ??_R0?AVi3Stream@@@8
data$rs	SEGMENT
??_R0?AVi3Stream@@@8 DD FLAT:??_7type_info@@6B@		; i3Stream `RTTI Type Descriptor'
	DD	00H
	DB	'.?AVi3Stream@@', 00H
data$rs	ENDS
;	COMDAT ??_R4i3Stream@@6B@
rdata$r	SEGMENT
??_R4i3Stream@@6B@ DD 00H				; i3Stream::`RTTI Complete Object Locator'
	DD	00H
	DD	00H
	DD	FLAT:??_R0?AVi3Stream@@@8
	DD	FLAT:??_R3i3Stream@@8
rdata$r	ENDS
;	COMDAT ??_R1A@?0A@EA@i3ClassMeta@@8
rdata$r	SEGMENT
??_R1A@?0A@EA@i3ClassMeta@@8 DD FLAT:??_R0?AVi3ClassMeta@@@8 ; i3ClassMeta::`RTTI Base Class Descriptor at (0,-1,0,64)'
	DD	00H
	DD	00H
	DD	0ffffffffH
	DD	00H
	DD	040H
	DD	FLAT:??_R3i3ClassMeta@@8
rdata$r	ENDS
;	COMDAT ??_R2i3ClassMeta@@8
rdata$r	SEGMENT
??_R2i3ClassMeta@@8 DD FLAT:??_R1A@?0A@EA@i3ClassMeta@@8 ; i3ClassMeta::`RTTI Base Class Array'
rdata$r	ENDS
;	COMDAT ??_R3i3ClassMeta@@8
rdata$r	SEGMENT
??_R3i3ClassMeta@@8 DD 00H				; i3ClassMeta::`RTTI Class Hierarchy Descriptor'
	DD	00H
	DD	01H
	DD	FLAT:??_R2i3ClassMeta@@8
rdata$r	ENDS
;	COMDAT ??_R0?AVi3ClassMeta@@@8
data$rs	SEGMENT
??_R0?AVi3ClassMeta@@@8 DD FLAT:??_7type_info@@6B@	; i3ClassMeta `RTTI Type Descriptor'
	DD	00H
	DB	'.?AVi3ClassMeta@@', 00H
data$rs	ENDS
;	COMDAT ??_R4i3ClassMeta@@6B@
rdata$r	SEGMENT
??_R4i3ClassMeta@@6B@ DD 00H				; i3ClassMeta::`RTTI Complete Object Locator'
	DD	00H
	DD	00H
	DD	FLAT:??_R0?AVi3ClassMeta@@@8
	DD	FLAT:??_R3i3ClassMeta@@8
rdata$r	ENDS
;	COMDAT ??_R1A@?0A@EA@i3MemoryPool@@8
rdata$r	SEGMENT
??_R1A@?0A@EA@i3MemoryPool@@8 DD FLAT:??_R0?AVi3MemoryPool@@@8 ; i3MemoryPool::`RTTI Base Class Descriptor at (0,-1,0,64)'
	DD	00H
	DD	00H
	DD	0ffffffffH
	DD	00H
	DD	040H
	DD	FLAT:??_R3i3MemoryPool@@8
rdata$r	ENDS
;	COMDAT ??_R2i3MemoryPool@@8
rdata$r	SEGMENT
??_R2i3MemoryPool@@8 DD FLAT:??_R1A@?0A@EA@i3MemoryPool@@8 ; i3MemoryPool::`RTTI Base Class Array'
rdata$r	ENDS
;	COMDAT ??_R3i3MemoryPool@@8
rdata$r	SEGMENT
??_R3i3MemoryPool@@8 DD 00H				; i3MemoryPool::`RTTI Class Hierarchy Descriptor'
	DD	00H
	DD	01H
	DD	FLAT:??_R2i3MemoryPool@@8
rdata$r	ENDS
;	COMDAT ??_R0?AVi3MemoryPool@@@8
data$rs	SEGMENT
??_R0?AVi3MemoryPool@@@8 DD FLAT:??_7type_info@@6B@	; i3MemoryPool `RTTI Type Descriptor'
	DD	00H
	DB	'.?AVi3MemoryPool@@', 00H
data$rs	ENDS
;	COMDAT ??_R4i3MemoryPool@@6B@
rdata$r	SEGMENT
??_R4i3MemoryPool@@6B@ DD 00H				; i3MemoryPool::`RTTI Complete Object Locator'
	DD	00H
	DD	00H
	DD	FLAT:??_R0?AVi3MemoryPool@@@8
	DD	FLAT:??_R3i3MemoryPool@@8
rdata$r	ENDS
;	COMDAT ??_R1A@?0A@EA@i3ElementBase@@8
rdata$r	SEGMENT
??_R1A@?0A@EA@i3ElementBase@@8 DD FLAT:??_R0?AVi3ElementBase@@@8 ; i3ElementBase::`RTTI Base Class Descriptor at (0,-1,0,64)'
	DD	00H
	DD	00H
	DD	0ffffffffH
	DD	00H
	DD	040H
	DD	FLAT:??_R3i3ElementBase@@8
rdata$r	ENDS
;	COMDAT ??_R2i3ElementBase@@8
rdata$r	SEGMENT
??_R2i3ElementBase@@8 DD FLAT:??_R1A@?0A@EA@i3ElementBase@@8 ; i3ElementBase::`RTTI Base Class Array'
rdata$r	ENDS
;	COMDAT ??_R3i3ElementBase@@8
rdata$r	SEGMENT
??_R3i3ElementBase@@8 DD 00H				; i3ElementBase::`RTTI Class Hierarchy Descriptor'
	DD	00H
	DD	01H
	DD	FLAT:??_R2i3ElementBase@@8
rdata$r	ENDS
;	COMDAT ??_R0?AVi3ElementBase@@@8
data$rs	SEGMENT
??_R0?AVi3ElementBase@@@8 DD FLAT:??_7type_info@@6B@	; i3ElementBase `RTTI Type Descriptor'
	DD	00H
	DB	'.?AVi3ElementBase@@', 00H
data$rs	ENDS
;	COMDAT ??_R4i3ElementBase@@6B@
rdata$r	SEGMENT
??_R4i3ElementBase@@6B@ DD 00H				; i3ElementBase::`RTTI Complete Object Locator'
	DD	00H
	DD	00H
	DD	FLAT:??_R0?AVi3ElementBase@@@8
	DD	FLAT:??_R3i3ElementBase@@8
rdata$r	ENDS
;	COMDAT ??_C@_0CD@KOBAKLHO@Memory?5Size?5Alloc?5?$DN?5?$CFd?5Free?5?$DN?5?$CF@
CONST	SEGMENT
??_C@_0CD@KOBAKLHO@Memory?5Size?5Alloc?5?$DN?5?$CFd?5Free?5?$DN?5?$CF@ DB 'M'
	DB	'emory Size Alloc = %d Free = %d ', 0aH, 00H	; `string'
CONST	ENDS
;	COMDAT ??_C@_0DA@KFNLPDNL@Use?5Block?5Count?5ALL?5?$DN?5?$CFd?5ALLOC?5@
CONST	SEGMENT
??_C@_0DA@KFNLPDNL@Use?5Block?5Count?5ALL?5?$DN?5?$CFd?5ALLOC?5@ DB 'Use '
	DB	'Block Count ALL = %d ALLOC = %d FREE = %d ', 0aH, 00H ; `string'
CONST	ENDS
;	COMDAT ??_C@_0BJ@JNCBAGB@Total?5Memory?5Size?5?3?5?$CFs?5?6@
CONST	SEGMENT
??_C@_0BJ@JNCBAGB@Total?5Memory?5Size?5?3?5?$CFs?5?6@ DB 'Total Memory Si'
	DB	'ze : %s ', 0aH, 00H				; `string'
CONST	ENDS
;	COMDAT ??_C@_0P@HCMEEKFH@c?3?2MemDump?4i3m@
CONST	SEGMENT
??_C@_0P@HCMEEKFH@c?3?2MemDump?4i3m@ DB 'c:\MemDump.i3m', 00H ; `string'
CONST	ENDS
;	COMDAT ??_C@_0CN@MCILIPOL@?$FLi3mem?3?3Alloc?$FN?5Not?5Enough?5Memor@
CONST	SEGMENT
??_C@_0CN@MCILIPOL@?$FLi3mem?3?3Alloc?$FN?5Not?5Enough?5Memor@ DB '[i3mem'
	DB	'::Alloc] Not Enough Memory Size = %d ', 0aH, 00H ; `string'
CONST	ENDS
_DATA	SEGMENT
?s_Size@@3HA DD	0ffffffffH				; s_Size
?s_IsGame@@3HA DD 01H					; s_IsGame
_DATA	ENDS
;	COMDAT ??_7i3Mutex@@6B@
CONST	SEGMENT
??_7i3Mutex@@6B@ DD FLAT:??_R4i3Mutex@@6B@		; i3Mutex::`vftable'
	DD	FLAT:?GetMeta@i3Mutex@@UAEPAVi3ClassMeta@@XZ
	DD	FLAT:??_Ei3Mutex@@UAEPAXI@Z
	DD	FLAT:?CopyTo@i3ElementBase@@UAEXPAV1@W4I3_COPY_METHOD@@@Z
CONST	ENDS
;	COMDAT ??_7i3Timer@@6B@
CONST	SEGMENT
??_7i3Timer@@6B@ DD FLAT:??_R4i3Timer@@6B@		; i3Timer::`vftable'
	DD	FLAT:?GetMeta@i3Timer@@UAEPAVi3ClassMeta@@XZ
	DD	FLAT:??_Ei3Timer@@UAEPAXI@Z
	DD	FLAT:?CopyTo@i3ElementBase@@UAEXPAV1@W4I3_COPY_METHOD@@@Z
CONST	ENDS
;	COMDAT ??_7i3FileStream@@6B@
CONST	SEGMENT
??_7i3FileStream@@6B@ DD FLAT:??_R4i3FileStream@@6B@	; i3FileStream::`vftable'
	DD	FLAT:?GetMeta@i3FileStream@@UAEPAVi3ClassMeta@@XZ
	DD	FLAT:??_Ei3FileStream@@UAEPAXI@Z
	DD	FLAT:?CopyTo@i3ElementBase@@UAEXPAV1@W4I3_COPY_METHOD@@@Z
	DD	FLAT:?GetHandle@i3FileStream@@UAEPAXXZ
	DD	FLAT:?Create@i3FileStream@@UAEHPBDHI@Z
	DD	FLAT:?Open@i3FileStream@@UAEHPBDHI@Z
	DD	FLAT:?Close@i3FileStream@@UAEHXZ
	DD	FLAT:?Read@i3FileStream@@UAEIPAXH@Z
	DD	FLAT:?CopyTo@i3Stream@@UAEIPAV1@I@Z
	DD	FLAT:?Write@i3FileStream@@UAEIPBXH@Z
	DD	FLAT:?CopyFrom@i3Stream@@UAEIPAV1@I@Z
	DD	FLAT:?SetPosition@i3FileStream@@UAEIHH@Z
	DD	FLAT:?GetPosition@i3FileStream@@UAEIXZ
	DD	FLAT:?ReadLine@i3Stream@@UAEIPADH@Z
	DD	FLAT:?ReadLineW@i3Stream@@UAEIPAGH@Z
	DD	FLAT:?WriteLine@i3Stream@@UAEIPBD@Z
	DD	FLAT:?WriteLineW@i3Stream@@UAEIPBG@Z
	DD	FLAT:?Printf@i3Stream@@UAAIPADPBDZZ
CONST	ENDS
;	COMDAT ??_7i3Stream@@6B@
CONST	SEGMENT
??_7i3Stream@@6B@ DD FLAT:??_R4i3Stream@@6B@		; i3Stream::`vftable'
	DD	FLAT:?GetMeta@i3Stream@@UAEPAVi3ClassMeta@@XZ
	DD	FLAT:??_Ei3Stream@@UAEPAXI@Z
	DD	FLAT:?CopyTo@i3ElementBase@@UAEXPAV1@W4I3_COPY_METHOD@@@Z
	DD	FLAT:?GetHandle@i3Stream@@UAEPAXXZ
	DD	FLAT:__purecall
	DD	FLAT:__purecall
	DD	FLAT:__purecall
	DD	FLAT:__purecall
	DD	FLAT:?CopyTo@i3Stream@@UAEIPAV1@I@Z
	DD	FLAT:__purecall
	DD	FLAT:?CopyFrom@i3Stream@@UAEIPAV1@I@Z
	DD	FLAT:__purecall
	DD	FLAT:__purecall
	DD	FLAT:?ReadLine@i3Stream@@UAEIPADH@Z
	DD	FLAT:?ReadLineW@i3Stream@@UAEIPAGH@Z
	DD	FLAT:?WriteLine@i3Stream@@UAEIPBD@Z
	DD	FLAT:?WriteLineW@i3Stream@@UAEIPBG@Z
	DD	FLAT:?Printf@i3Stream@@UAAIPADPBDZZ
CONST	ENDS
;	COMDAT ??_7i3MemoryPool@@6B@
CONST	SEGMENT
??_7i3MemoryPool@@6B@ DD FLAT:??_R4i3MemoryPool@@6B@	; i3MemoryPool::`vftable'
	DD	FLAT:??_Ei3MemoryPool@@UAEPAXI@Z
	DD	FLAT:__purecall
	DD	FLAT:__purecall
CONST	ENDS
;	COMDAT ??_7i3ElementBase@@6B@
CONST	SEGMENT
??_7i3ElementBase@@6B@ DD FLAT:??_R4i3ElementBase@@6B@	; i3ElementBase::`vftable'
	DD	FLAT:?GetMeta@i3ElementBase@@UAEPAVi3ClassMeta@@XZ
	DD	FLAT:??_Ei3ElementBase@@UAEPAXI@Z
	DD	FLAT:?CopyTo@i3ElementBase@@UAEXPAV1@W4I3_COPY_METHOD@@@Z
CONST	ENDS
;	COMDAT ??_7i3ClassMeta@@6B@
CONST	SEGMENT
??_7i3ClassMeta@@6B@ DD FLAT:??_R4i3ClassMeta@@6B@	; i3ClassMeta::`vftable'
	DD	FLAT:??_Ei3ClassMeta@@UAEPAXI@Z
	DD	FLAT:?CreateInstance@i3ClassMeta@@UAEPAVi3ElementBase@@W4I3_CLASSMETA_TYPE@@@Z
	DD	FLAT:?BindInstance@i3ClassMeta@@UAEPAVi3ElementBase@@PAXW4I3_CLASSMETA_TYPE@@@Z
CONST	ENDS
;	COMDAT xdata$x
xdata$x	SEGMENT
__ehfuncinfo$??_Ei3Mutex@@UAEPAXI@Z DD 019930522H
	DD	00H
	DD	00H
	DD	2 DUP(00H)
	DD	2 DUP(00H)
	DD	00H
	DD	05H
xdata$x	ENDS
;	COMDAT xdata$x
xdata$x	SEGMENT
__ehfuncinfo$??_Ei3Timer@@UAEPAXI@Z DD 019930522H
	DD	00H
	DD	00H
	DD	2 DUP(00H)
	DD	2 DUP(00H)
	DD	00H
	DD	05H
xdata$x	ENDS
;	COMDAT xdata$x
xdata$x	SEGMENT
__ehfuncinfo$??_Ei3FileStream@@UAEPAXI@Z DD 019930522H
	DD	00H
	DD	00H
	DD	2 DUP(00H)
	DD	2 DUP(00H)
	DD	00H
	DD	05H
xdata$x	ENDS
;	COMDAT xdata$x
xdata$x	SEGMENT
__ehfuncinfo$??_Ei3Stream@@UAEPAXI@Z DD 019930522H
	DD	00H
	DD	00H
	DD	2 DUP(00H)
	DD	2 DUP(00H)
	DD	00H
	DD	05H
xdata$x	ENDS
;	COMDAT xdata$x
xdata$x	SEGMENT
__ehfuncinfo$??_Ei3MemoryPool@@UAEPAXI@Z DD 019930522H
	DD	00H
	DD	00H
	DD	2 DUP(00H)
	DD	2 DUP(00H)
	DD	00H
	DD	05H
xdata$x	ENDS
;	COMDAT xdata$x
xdata$x	SEGMENT
__ehfuncinfo$??_Ei3ElementBase@@UAEPAXI@Z DD 019930522H
	DD	00H
	DD	00H
	DD	2 DUP(00H)
	DD	2 DUP(00H)
	DD	00H
	DD	05H
xdata$x	ENDS
;	COMDAT xdata$x
xdata$x	SEGMENT
__ehfuncinfo$??_Ei3ClassMeta@@UAEPAXI@Z DD 019930522H
	DD	00H
	DD	00H
	DD	2 DUP(00H)
	DD	2 DUP(00H)
	DD	00H
	DD	05H
xdata$x	ENDS
;	COMDAT voltbl
voltbl	SEGMENT
_volmd	DB	010H
voltbl	ENDS
;	COMDAT xdata$x
xdata$x	SEGMENT
__unwindtable$?Dump@i3mem@@YAXH@Z DD 0ffffffffH
	DD	FLAT:__unwindfunclet$?Dump@i3mem@@YAXH@Z$0
__ehfuncinfo$?Dump@i3mem@@YAXH@Z DD 019930522H
	DD	01H
	DD	FLAT:__unwindtable$?Dump@i3mem@@YAXH@Z
	DD	2 DUP(00H)
	DD	2 DUP(00H)
	DD	00H
	DD	01H
xdata$x	ENDS
;	COMDAT voltbl
voltbl	SEGMENT
_volmd	DB	035H
voltbl	ENDS
;	COMDAT voltbl
voltbl	SEGMENT
_volmd	DW	0183H
voltbl	ENDS
;	COMDAT voltbl
voltbl	SEGMENT
_volmd	DB	055H
voltbl	ENDS
;	COMDAT voltbl
voltbl	SEGMENT
_volmd	DB	010H
voltbl	ENDS
; Function compile flags: /Ogtp
;	COMDAT ??__Fs_MemoryCs@@YAXXZ
text$yd	SEGMENT
??__Fs_MemoryCs@@YAXXZ PROC				; `dynamic atexit destructor for 's_MemoryCs'', COMDAT
  00000	b9 00 00 00 00	 mov	 ecx, OFFSET ?s_MemoryCs@@3Vi3Mutex2@@A
  00005	e9 00 00 00 00	 jmp	 ??1i3Mutex2@@QAE@XZ	; i3Mutex2::~i3Mutex2
??__Fs_MemoryCs@@YAXXZ ENDP				; `dynamic atexit destructor for 's_MemoryCs''
text$yd	ENDS
; Function compile flags: /Ogtp
; File E:\Proyectos\JuegosOnlineproyectos\PB\pbblow\Piercing Blow Remake\i3Server\src\i3Base\i3Memory.cpp
;	COMDAT ??__Es_MemoryCs@@YAXXZ
text$di	SEGMENT
??__Es_MemoryCs@@YAXXZ PROC				; `dynamic initializer for 's_MemoryCs'', COMDAT

; 49   : static i3Mutex2				s_MemoryCs; 

  00000	b9 00 00 00 00	 mov	 ecx, OFFSET ?s_MemoryCs@@3Vi3Mutex2@@A
  00005	e8 00 00 00 00	 call	 ??0i3Mutex2@@QAE@XZ	; i3Mutex2::i3Mutex2
  0000a	68 00 00 00 00	 push	 OFFSET ??__Fs_MemoryCs@@YAXXZ ; `dynamic atexit destructor for 's_MemoryCs''
  0000f	e8 00 00 00 00	 call	 _atexit
  00014	59		 pop	 ecx
  00015	c3		 ret	 0
??__Es_MemoryCs@@YAXXZ ENDP				; `dynamic initializer for 's_MemoryCs''
text$di	ENDS
; Function compile flags: /Ogtp
;	COMDAT ??4i3Monitor2@@QAEAAV0@ABV0@@Z
_TEXT	SEGMENT
___that$ = 8						; size = 4
??4i3Monitor2@@QAEAAV0@ABV0@@Z PROC			; i3Monitor2::operator=, COMDAT
; _this$ = ecx
  00000	55		 push	 ebp
  00001	8b ec		 mov	 ebp, esp
  00003	8b 45 08	 mov	 eax, DWORD PTR ___that$[ebp]
  00006	8b 00		 mov	 eax, DWORD PTR [eax]
  00008	89 01		 mov	 DWORD PTR [ecx], eax
  0000a	8b c1		 mov	 eax, ecx
  0000c	5d		 pop	 ebp
  0000d	c2 04 00	 ret	 4
??4i3Monitor2@@QAEAAV0@ABV0@@Z ENDP			; i3Monitor2::operator=
_TEXT	ENDS
; Function compile flags: /Ogtp
;	COMDAT ??4i3Mutex2@@QAEAAV0@ABV0@@Z
_TEXT	SEGMENT
___that$ = 8						; size = 4
??4i3Mutex2@@QAEAAV0@ABV0@@Z PROC			; i3Mutex2::operator=, COMDAT
; _this$ = ecx
  00000	55		 push	 ebp
  00001	8b ec		 mov	 ebp, esp
  00003	8b 55 08	 mov	 edx, DWORD PTR ___that$[ebp]
  00006	8b 02		 mov	 eax, DWORD PTR [edx]
  00008	89 01		 mov	 DWORD PTR [ecx], eax
  0000a	8b 42 04	 mov	 eax, DWORD PTR [edx+4]
  0000d	89 41 04	 mov	 DWORD PTR [ecx+4], eax
  00010	8b 42 08	 mov	 eax, DWORD PTR [edx+8]
  00013	89 41 08	 mov	 DWORD PTR [ecx+8], eax
  00016	8b 42 0c	 mov	 eax, DWORD PTR [edx+12]
  00019	89 41 0c	 mov	 DWORD PTR [ecx+12], eax
  0001c	8b 42 10	 mov	 eax, DWORD PTR [edx+16]
  0001f	89 41 10	 mov	 DWORD PTR [ecx+16], eax
  00022	8b 42 14	 mov	 eax, DWORD PTR [edx+20]
  00025	89 41 14	 mov	 DWORD PTR [ecx+20], eax
  00028	8b c1		 mov	 eax, ecx
  0002a	5d		 pop	 ebp
  0002b	c2 04 00	 ret	 4
??4i3Mutex2@@QAEAAV0@ABV0@@Z ENDP			; i3Mutex2::operator=
_TEXT	ENDS
; Function compile flags: /Ogtp
; File E:\Proyectos\JuegosOnlineproyectos\PB\pbblow\Piercing Blow Remake\i3Server\src\i3Base\i3Memory.cpp
;	COMDAT ??_Ei3Mutex@@UAEPAXI@Z
_TEXT	SEGMENT
__$EHRec$ = -12						; size = 12
___flags$ = 8						; size = 4
??_Ei3Mutex@@UAEPAXI@Z PROC				; i3Mutex::`vector deleting destructor', COMDAT
; _this$ = ecx
  00000	55		 push	 ebp
  00001	8b ec		 mov	 ebp, esp
  00003	6a ff		 push	 -1
  00005	68 00 00 00 00	 push	 __ehhandler$??_Ei3Mutex@@UAEPAXI@Z
  0000a	64 a1 00 00 00
	00		 mov	 eax, DWORD PTR fs:0
  00010	50		 push	 eax
  00011	53		 push	 ebx
  00012	56		 push	 esi
  00013	57		 push	 edi
  00014	a1 00 00 00 00	 mov	 eax, DWORD PTR ___security_cookie
  00019	33 c5		 xor	 eax, ebp
  0001b	50		 push	 eax
  0001c	8d 45 f4	 lea	 eax, DWORD PTR __$EHRec$[ebp]
  0001f	64 a3 00 00 00
	00		 mov	 DWORD PTR fs:0, eax
  00025	8b f1		 mov	 esi, ecx
  00027	8b 5d 08	 mov	 ebx, DWORD PTR ___flags$[ebp]
  0002a	8b fb		 mov	 edi, ebx
  0002c	83 e7 01	 and	 edi, 1
  0002f	f6 c3 02	 test	 bl, 2
  00032	74 43		 je	 SHORT $LN2@vector
  00034	68 00 00 00 00	 push	 OFFSET ??1i3Mutex@@UAE@XZ ; i3Mutex::~i3Mutex
  00039	ff 76 fc	 push	 DWORD PTR [esi-4]
  0003c	8d 5e fc	 lea	 ebx, DWORD PTR [esi-4]
  0003f	6a 28		 push	 40			; 00000028H
  00041	56		 push	 esi
  00042	e8 00 00 00 00	 call	 ??_M@YGXPAXIIP6EX0@Z@Z
  00047	85 ff		 test	 edi, edi
  00049	74 16		 je	 SHORT $LN3@vector
  0004b	8b 0b		 mov	 ecx, DWORD PTR [ebx]
  0004d	8d 0c 89	 lea	 ecx, DWORD PTR [ecx+ecx*4]
  00050	8d 0c cd 04 00
	00 00		 lea	 ecx, DWORD PTR [ecx*8+4]
  00057	51		 push	 ecx
  00058	53		 push	 ebx
  00059	e8 00 00 00 00	 call	 ??_V@YAXPAXI@Z		; operator delete[]
  0005e	83 c4 08	 add	 esp, 8
$LN3@vector:
  00061	8b c3		 mov	 eax, ebx
  00063	8b 4d f4	 mov	 ecx, DWORD PTR __$EHRec$[ebp]
  00066	64 89 0d 00 00
	00 00		 mov	 DWORD PTR fs:0, ecx
  0006d	59		 pop	 ecx
  0006e	5f		 pop	 edi
  0006f	5e		 pop	 esi
  00070	5b		 pop	 ebx
  00071	8b e5		 mov	 esp, ebp
  00073	5d		 pop	 ebp
  00074	c2 04 00	 ret	 4
$LN2@vector:
  00077	e8 00 00 00 00	 call	 ??1i3Mutex@@UAE@XZ	; i3Mutex::~i3Mutex
  0007c	85 ff		 test	 edi, edi
  0007e	74 1b		 je	 SHORT $LN6@vector
  00080	f6 c3 04	 test	 bl, 4
  00083	75 0b		 jne	 SHORT $LN5@vector
  00085	56		 push	 esi
  00086	e8 00 00 00 00	 call	 ??3i3ElementBase@@SAXPAX@Z ; i3ElementBase::operator delete
  0008b	83 c4 04	 add	 esp, 4
  0008e	eb 0b		 jmp	 SHORT $LN6@vector
$LN5@vector:

  00090	6a 28		 push	 40			; 00000028H
  00092	56		 push	 esi
  00093	e8 00 00 00 00	 call	 ??3@YAXPAXI@Z		; operator delete
  00098	83 c4 08	 add	 esp, 8
$LN6@vector:
  0009b	8b c6		 mov	 eax, esi
  0009d	8b 4d f4	 mov	 ecx, DWORD PTR __$EHRec$[ebp]
  000a0	64 89 0d 00 00
	00 00		 mov	 DWORD PTR fs:0, ecx
  000a7	59		 pop	 ecx
  000a8	5f		 pop	 edi
  000a9	5e		 pop	 esi
  000aa	5b		 pop	 ebx
  000ab	8b e5		 mov	 esp, ebp
  000ad	5d		 pop	 ebp
  000ae	c2 04 00	 ret	 4
  000b1	cc		 int	 3
  000b2	cc		 int	 3
  000b3	cc		 int	 3
  000b4	cc		 int	 3
  000b5	cc		 int	 3
_TEXT	ENDS
;	COMDAT text$x
text$x	SEGMENT
__ehhandler$??_Ei3Mutex@@UAEPAXI@Z:
  00000	90		 npad	 1
  00001	90		 npad	 1
  00002	8b 54 24 08	 mov	 edx, DWORD PTR [esp+8]
  00006	8d 42 0c	 lea	 eax, DWORD PTR [edx+12]
  00009	8b 4a f0	 mov	 ecx, DWORD PTR [edx-16]
  0000c	33 c8		 xor	 ecx, eax
  0000e	e8 00 00 00 00	 call	 @__security_check_cookie@4
  00013	b8 00 00 00 00	 mov	 eax, OFFSET __ehfuncinfo$??_Ei3Mutex@@UAEPAXI@Z
  00018	e9 00 00 00 00	 jmp	 ___CxxFrameHandler3
text$x	ENDS
??_Ei3Mutex@@UAEPAXI@Z ENDP				; i3Mutex::`vector deleting destructor'
; Function compile flags: /Ogtp
; File E:\Proyectos\JuegosOnlineproyectos\PB\pbblow\Piercing Blow Remake\i3Server\src\i3Base\i3Memory.cpp
;	COMDAT ??_Gi3Mutex@@UAEPAXI@Z
_TEXT	SEGMENT
___flags$ = 8						; size = 4
??_Gi3Mutex@@UAEPAXI@Z PROC				; i3Mutex::`scalar deleting destructor', COMDAT
; _this$ = ecx
  00000	55		 push	 ebp
  00001	8b ec		 mov	 ebp, esp
  00003	56		 push	 esi
  00004	8b f1		 mov	 esi, ecx
  00006	e8 00 00 00 00	 call	 ??1i3Mutex@@UAE@XZ	; i3Mutex::~i3Mutex
  0000b	8b 45 08	 mov	 eax, DWORD PTR ___flags$[ebp]
  0000e	a8 01		 test	 al, 1
  00010	74 1f		 je	 SHORT $LN10@scalar
  00012	a8 04		 test	 al, 4
  00014	75 10		 jne	 SHORT $LN3@scalar
  00016	56		 push	 esi
  00017	e8 00 00 00 00	 call	 ??3i3ElementBase@@SAXPAX@Z ; i3ElementBase::operator delete
  0001c	83 c4 04	 add	 esp, 4
  0001f	8b c6		 mov	 eax, esi
  00021	5e		 pop	 esi
  00022	5d		 pop	 ebp
  00023	c2 04 00	 ret	 4
$LN3@scalar:

  00026	6a 28		 push	 40			; 00000028H
  00028	56		 push	 esi
  00029	e8 00 00 00 00	 call	 ??3@YAXPAXI@Z		; operator delete
  0002e	83 c4 08	 add	 esp, 8
$LN10@scalar:
  00031	8b c6		 mov	 eax, esi
  00033	5e		 pop	 esi
  00034	5d		 pop	 ebp
  00035	c2 04 00	 ret	 4
??_Gi3Mutex@@UAEPAXI@Z ENDP				; i3Mutex::`scalar deleting destructor'
_TEXT	ENDS
; Function compile flags: /Ogtp
;	COMDAT ??4i3Mutex@@QAEAAV0@ABV0@@Z
_TEXT	SEGMENT
___that$ = 8						; size = 4
??4i3Mutex@@QAEAAV0@ABV0@@Z PROC			; i3Mutex::operator=, COMDAT
; _this$ = ecx
  00000	55		 push	 ebp
  00001	8b ec		 mov	 ebp, esp
  00003	8b 55 08	 mov	 edx, DWORD PTR ___that$[ebp]
  00006	8b 42 04	 mov	 eax, DWORD PTR [edx+4]
  00009	89 41 04	 mov	 DWORD PTR [ecx+4], eax
  0000c	8b 42 08	 mov	 eax, DWORD PTR [edx+8]
  0000f	89 41 08	 mov	 DWORD PTR [ecx+8], eax
  00012	8b 42 0c	 mov	 eax, DWORD PTR [edx+12]
  00015	89 41 0c	 mov	 DWORD PTR [ecx+12], eax
  00018	8b 42 10	 mov	 eax, DWORD PTR [edx+16]
  0001b	89 41 10	 mov	 DWORD PTR [ecx+16], eax
  0001e	8b 42 14	 mov	 eax, DWORD PTR [edx+20]
  00021	89 41 14	 mov	 DWORD PTR [ecx+20], eax
  00024	8b 42 18	 mov	 eax, DWORD PTR [edx+24]
  00027	89 41 18	 mov	 DWORD PTR [ecx+24], eax
  0002a	8b 42 1c	 mov	 eax, DWORD PTR [edx+28]
  0002d	89 41 1c	 mov	 DWORD PTR [ecx+28], eax
  00030	8b 42 20	 mov	 eax, DWORD PTR [edx+32]
  00033	89 41 20	 mov	 DWORD PTR [ecx+32], eax
  00036	8b 42 24	 mov	 eax, DWORD PTR [edx+36]
  00039	89 41 24	 mov	 DWORD PTR [ecx+36], eax
  0003c	8b c1		 mov	 eax, ecx
  0003e	5d		 pop	 ebp
  0003f	c2 04 00	 ret	 4
??4i3Mutex@@QAEAAV0@ABV0@@Z ENDP			; i3Mutex::operator=
_TEXT	ENDS
; Function compile flags: /Ogtp
;	COMDAT ??0i3Mutex@@QAE@ABV0@@Z
_TEXT	SEGMENT
___that$ = 8						; size = 4
??0i3Mutex@@QAE@ABV0@@Z PROC				; i3Mutex::i3Mutex, COMDAT
; _this$ = ecx
  00000	55		 push	 ebp
  00001	8b ec		 mov	 ebp, esp
  00003	8b 55 08	 mov	 edx, DWORD PTR ___that$[ebp]
  00006	c7 01 00 00 00
	00		 mov	 DWORD PTR [ecx], OFFSET ??_7i3ElementBase@@6B@
  0000c	8b 42 04	 mov	 eax, DWORD PTR [edx+4]
  0000f	89 41 04	 mov	 DWORD PTR [ecx+4], eax
  00012	8b 42 08	 mov	 eax, DWORD PTR [edx+8]
  00015	89 41 08	 mov	 DWORD PTR [ecx+8], eax
  00018	8b 42 0c	 mov	 eax, DWORD PTR [edx+12]
  0001b	89 41 0c	 mov	 DWORD PTR [ecx+12], eax
  0001e	c7 01 00 00 00
	00		 mov	 DWORD PTR [ecx], OFFSET ??_7i3Mutex@@6B@
  00024	8b 42 10	 mov	 eax, DWORD PTR [edx+16]
  00027	89 41 10	 mov	 DWORD PTR [ecx+16], eax
  0002a	8b 42 14	 mov	 eax, DWORD PTR [edx+20]
  0002d	89 41 14	 mov	 DWORD PTR [ecx+20], eax
  00030	8b 42 18	 mov	 eax, DWORD PTR [edx+24]
  00033	89 41 18	 mov	 DWORD PTR [ecx+24], eax
  00036	8b 42 1c	 mov	 eax, DWORD PTR [edx+28]
  00039	89 41 1c	 mov	 DWORD PTR [ecx+28], eax
  0003c	8b 42 20	 mov	 eax, DWORD PTR [edx+32]
  0003f	89 41 20	 mov	 DWORD PTR [ecx+32], eax
  00042	8b 42 24	 mov	 eax, DWORD PTR [edx+36]
  00045	89 41 24	 mov	 DWORD PTR [ecx+36], eax
  00048	8b c1		 mov	 eax, ecx
  0004a	5d		 pop	 ebp
  0004b	c2 04 00	 ret	 4
??0i3Mutex@@QAE@ABV0@@Z ENDP				; i3Mutex::i3Mutex
_TEXT	ENDS
; Function compile flags: /Ogtp
; File E:\Proyectos\JuegosOnlineproyectos\PB\pbblow\Piercing Blow Remake\i3Server\include\i3Base\i3Mutex.h
;	COMDAT ?GetClassMeta@i3Mutex@@SAPAVi3ClassMeta@@XZ
_TEXT	SEGMENT
?GetClassMeta@i3Mutex@@SAPAVi3ClassMeta@@XZ PROC	; i3Mutex::GetClassMeta, COMDAT

; 23   :     I3_CLASS_DEFINE(i3Mutex);

  00000	a1 00 00 00 00	 mov	 eax, DWORD PTR ?s_pClassMetai3Mutex@i3Mutex@@2PAVi3ClassMeta@@A ; i3Mutex::s_pClassMetai3Mutex
  00005	c3		 ret	 0
?GetClassMeta@i3Mutex@@SAPAVi3ClassMeta@@XZ ENDP	; i3Mutex::GetClassMeta
_TEXT	ENDS
; Function compile flags: /Ogtp
; File E:\Proyectos\JuegosOnlineproyectos\PB\pbblow\Piercing Blow Remake\i3Server\src\i3Base\i3Memory.cpp
;	COMDAT ??_Ei3Timer@@UAEPAXI@Z
_TEXT	SEGMENT
__$EHRec$ = -12						; size = 12
___flags$ = 8						; size = 4
??_Ei3Timer@@UAEPAXI@Z PROC				; i3Timer::`vector deleting destructor', COMDAT
; _this$ = ecx
  00000	55		 push	 ebp
  00001	8b ec		 mov	 ebp, esp
  00003	6a ff		 push	 -1
  00005	68 00 00 00 00	 push	 __ehhandler$??_Ei3Timer@@UAEPAXI@Z
  0000a	64 a1 00 00 00
	00		 mov	 eax, DWORD PTR fs:0
  00010	50		 push	 eax
  00011	53		 push	 ebx
  00012	56		 push	 esi
  00013	57		 push	 edi
  00014	a1 00 00 00 00	 mov	 eax, DWORD PTR ___security_cookie
  00019	33 c5		 xor	 eax, ebp
  0001b	50		 push	 eax
  0001c	8d 45 f4	 lea	 eax, DWORD PTR __$EHRec$[ebp]
  0001f	64 a3 00 00 00
	00		 mov	 DWORD PTR fs:0, eax
  00025	8b f1		 mov	 esi, ecx
  00027	8b 5d 08	 mov	 ebx, DWORD PTR ___flags$[ebp]
  0002a	8b fb		 mov	 edi, ebx
  0002c	83 e7 01	 and	 edi, 1
  0002f	f6 c3 02	 test	 bl, 2
  00032	74 43		 je	 SHORT $LN2@vector
  00034	68 00 00 00 00	 push	 OFFSET ??1i3Timer@@UAE@XZ ; i3Timer::~i3Timer
  00039	ff 76 fc	 push	 DWORD PTR [esi-4]
  0003c	8d 5e fc	 lea	 ebx, DWORD PTR [esi-4]
  0003f	6a 28		 push	 40			; 00000028H
  00041	56		 push	 esi
  00042	e8 00 00 00 00	 call	 ??_M@YGXPAXIIP6EX0@Z@Z
  00047	85 ff		 test	 edi, edi
  00049	74 16		 je	 SHORT $LN3@vector
  0004b	8b 0b		 mov	 ecx, DWORD PTR [ebx]
  0004d	8d 0c 89	 lea	 ecx, DWORD PTR [ecx+ecx*4]
  00050	8d 0c cd 04 00
	00 00		 lea	 ecx, DWORD PTR [ecx*8+4]
  00057	51		 push	 ecx
  00058	53		 push	 ebx
  00059	e8 00 00 00 00	 call	 ??_V@YAXPAXI@Z		; operator delete[]
  0005e	83 c4 08	 add	 esp, 8
$LN3@vector:
  00061	8b c3		 mov	 eax, ebx
  00063	8b 4d f4	 mov	 ecx, DWORD PTR __$EHRec$[ebp]
  00066	64 89 0d 00 00
	00 00		 mov	 DWORD PTR fs:0, ecx
  0006d	59		 pop	 ecx
  0006e	5f		 pop	 edi
  0006f	5e		 pop	 esi
  00070	5b		 pop	 ebx
  00071	8b e5		 mov	 esp, ebp
  00073	5d		 pop	 ebp
  00074	c2 04 00	 ret	 4
$LN2@vector:
  00077	e8 00 00 00 00	 call	 ??1i3Timer@@UAE@XZ	; i3Timer::~i3Timer
  0007c	85 ff		 test	 edi, edi
  0007e	74 1b		 je	 SHORT $LN6@vector
  00080	f6 c3 04	 test	 bl, 4
  00083	75 0b		 jne	 SHORT $LN5@vector
  00085	56		 push	 esi
  00086	e8 00 00 00 00	 call	 ??3i3ElementBase@@SAXPAX@Z ; i3ElementBase::operator delete
  0008b	83 c4 04	 add	 esp, 4
  0008e	eb 0b		 jmp	 SHORT $LN6@vector
$LN5@vector:

  00090	6a 28		 push	 40			; 00000028H
  00092	56		 push	 esi
  00093	e8 00 00 00 00	 call	 ??3@YAXPAXI@Z		; operator delete
  00098	83 c4 08	 add	 esp, 8
$LN6@vector:
  0009b	8b c6		 mov	 eax, esi
  0009d	8b 4d f4	 mov	 ecx, DWORD PTR __$EHRec$[ebp]
  000a0	64 89 0d 00 00
	00 00		 mov	 DWORD PTR fs:0, ecx
  000a7	59		 pop	 ecx
  000a8	5f		 pop	 edi
  000a9	5e		 pop	 esi
  000aa	5b		 pop	 ebx
  000ab	8b e5		 mov	 esp, ebp
  000ad	5d		 pop	 ebp
  000ae	c2 04 00	 ret	 4
  000b1	cc		 int	 3
  000b2	cc		 int	 3
  000b3	cc		 int	 3
  000b4	cc		 int	 3
  000b5	cc		 int	 3
_TEXT	ENDS
;	COMDAT text$x
text$x	SEGMENT
__ehhandler$??_Ei3Timer@@UAEPAXI@Z:
  00000	90		 npad	 1
  00001	90		 npad	 1
  00002	8b 54 24 08	 mov	 edx, DWORD PTR [esp+8]
  00006	8d 42 0c	 lea	 eax, DWORD PTR [edx+12]
  00009	8b 4a f0	 mov	 ecx, DWORD PTR [edx-16]
  0000c	33 c8		 xor	 ecx, eax
  0000e	e8 00 00 00 00	 call	 @__security_check_cookie@4
  00013	b8 00 00 00 00	 mov	 eax, OFFSET __ehfuncinfo$??_Ei3Timer@@UAEPAXI@Z
  00018	e9 00 00 00 00	 jmp	 ___CxxFrameHandler3
text$x	ENDS
??_Ei3Timer@@UAEPAXI@Z ENDP				; i3Timer::`vector deleting destructor'
; Function compile flags: /Ogtp
; File E:\Proyectos\JuegosOnlineproyectos\PB\pbblow\Piercing Blow Remake\i3Server\src\i3Base\i3Memory.cpp
;	COMDAT ??_Gi3Timer@@UAEPAXI@Z
_TEXT	SEGMENT
___flags$ = 8						; size = 4
??_Gi3Timer@@UAEPAXI@Z PROC				; i3Timer::`scalar deleting destructor', COMDAT
; _this$ = ecx
  00000	55		 push	 ebp
  00001	8b ec		 mov	 ebp, esp
  00003	56		 push	 esi
  00004	8b f1		 mov	 esi, ecx
  00006	e8 00 00 00 00	 call	 ??1i3Timer@@UAE@XZ	; i3Timer::~i3Timer
  0000b	8b 45 08	 mov	 eax, DWORD PTR ___flags$[ebp]
  0000e	a8 01		 test	 al, 1
  00010	74 1f		 je	 SHORT $LN10@scalar
  00012	a8 04		 test	 al, 4
  00014	75 10		 jne	 SHORT $LN3@scalar
  00016	56		 push	 esi
  00017	e8 00 00 00 00	 call	 ??3i3ElementBase@@SAXPAX@Z ; i3ElementBase::operator delete
  0001c	83 c4 04	 add	 esp, 4
  0001f	8b c6		 mov	 eax, esi
  00021	5e		 pop	 esi
  00022	5d		 pop	 ebp
  00023	c2 04 00	 ret	 4
$LN3@scalar:

  00026	6a 28		 push	 40			; 00000028H
  00028	56		 push	 esi
  00029	e8 00 00 00 00	 call	 ??3@YAXPAXI@Z		; operator delete
  0002e	83 c4 08	 add	 esp, 8
$LN10@scalar:
  00031	8b c6		 mov	 eax, esi
  00033	5e		 pop	 esi
  00034	5d		 pop	 ebp
  00035	c2 04 00	 ret	 4
??_Gi3Timer@@UAEPAXI@Z ENDP				; i3Timer::`scalar deleting destructor'
_TEXT	ENDS
; Function compile flags: /Ogtp
;	COMDAT ??4i3Timer@@QAEAAV0@ABV0@@Z
_TEXT	SEGMENT
___that$ = 8						; size = 4
??4i3Timer@@QAEAAV0@ABV0@@Z PROC			; i3Timer::operator=, COMDAT
; _this$ = ecx
  00000	55		 push	 ebp
  00001	8b ec		 mov	 ebp, esp
  00003	8b 55 08	 mov	 edx, DWORD PTR ___that$[ebp]
  00006	56		 push	 esi
  00007	8b f1		 mov	 esi, ecx
  00009	8b 42 04	 mov	 eax, DWORD PTR [edx+4]
  0000c	89 46 04	 mov	 DWORD PTR [esi+4], eax
  0000f	8b 42 08	 mov	 eax, DWORD PTR [edx+8]
  00012	89 46 08	 mov	 DWORD PTR [esi+8], eax
  00015	8b 42 0c	 mov	 eax, DWORD PTR [edx+12]
  00018	89 46 0c	 mov	 DWORD PTR [esi+12], eax
  0001b	8b 42 10	 mov	 eax, DWORD PTR [edx+16]
  0001e	89 46 10	 mov	 DWORD PTR [esi+16], eax
  00021	8b 42 18	 mov	 eax, DWORD PTR [edx+24]
  00024	8b 4a 1c	 mov	 ecx, DWORD PTR [edx+28]
  00027	89 46 18	 mov	 DWORD PTR [esi+24], eax
  0002a	89 4e 1c	 mov	 DWORD PTR [esi+28], ecx
  0002d	8b 42 20	 mov	 eax, DWORD PTR [edx+32]
  00030	89 46 20	 mov	 DWORD PTR [esi+32], eax
  00033	8b c6		 mov	 eax, esi
  00035	5e		 pop	 esi
  00036	5d		 pop	 ebp
  00037	c2 04 00	 ret	 4
??4i3Timer@@QAEAAV0@ABV0@@Z ENDP			; i3Timer::operator=
_TEXT	ENDS
; Function compile flags: /Ogtp
;	COMDAT ??0i3Timer@@QAE@ABV0@@Z
_TEXT	SEGMENT
___that$ = 8						; size = 4
??0i3Timer@@QAE@ABV0@@Z PROC				; i3Timer::i3Timer, COMDAT
; _this$ = ecx
  00000	55		 push	 ebp
  00001	8b ec		 mov	 ebp, esp
  00003	8b 55 08	 mov	 edx, DWORD PTR ___that$[ebp]
  00006	56		 push	 esi
  00007	8b f1		 mov	 esi, ecx
  00009	c7 06 00 00 00
	00		 mov	 DWORD PTR [esi], OFFSET ??_7i3ElementBase@@6B@
  0000f	8b 42 04	 mov	 eax, DWORD PTR [edx+4]
  00012	89 46 04	 mov	 DWORD PTR [esi+4], eax
  00015	8b 42 08	 mov	 eax, DWORD PTR [edx+8]
  00018	89 46 08	 mov	 DWORD PTR [esi+8], eax
  0001b	8b 42 0c	 mov	 eax, DWORD PTR [edx+12]
  0001e	89 46 0c	 mov	 DWORD PTR [esi+12], eax
  00021	c7 06 00 00 00
	00		 mov	 DWORD PTR [esi], OFFSET ??_7i3Timer@@6B@
  00027	8b 42 10	 mov	 eax, DWORD PTR [edx+16]
  0002a	89 46 10	 mov	 DWORD PTR [esi+16], eax
  0002d	8b 42 18	 mov	 eax, DWORD PTR [edx+24]
  00030	8b 4a 1c	 mov	 ecx, DWORD PTR [edx+28]
  00033	89 46 18	 mov	 DWORD PTR [esi+24], eax
  00036	89 4e 1c	 mov	 DWORD PTR [esi+28], ecx
  00039	8b 42 20	 mov	 eax, DWORD PTR [edx+32]
  0003c	89 46 20	 mov	 DWORD PTR [esi+32], eax
  0003f	8b c6		 mov	 eax, esi
  00041	5e		 pop	 esi
  00042	5d		 pop	 ebp
  00043	c2 04 00	 ret	 4
??0i3Timer@@QAE@ABV0@@Z ENDP				; i3Timer::i3Timer
_TEXT	ENDS
; Function compile flags: /Ogtp
; File E:\Proyectos\JuegosOnlineproyectos\PB\pbblow\Piercing Blow Remake\i3Server\include\i3Base\i3Timer.h
;	COMDAT ?GetClassMeta@i3Timer@@SAPAVi3ClassMeta@@XZ
_TEXT	SEGMENT
?GetClassMeta@i3Timer@@SAPAVi3ClassMeta@@XZ PROC	; i3Timer::GetClassMeta, COMDAT

; 9    : 	I3_CLASS_DEFINE( i3Timer);

  00000	a1 00 00 00 00	 mov	 eax, DWORD PTR ?s_pClassMetai3Timer@i3Timer@@2PAVi3ClassMeta@@A ; i3Timer::s_pClassMetai3Timer
  00005	c3		 ret	 0
?GetClassMeta@i3Timer@@SAPAVi3ClassMeta@@XZ ENDP	; i3Timer::GetClassMeta
_TEXT	ENDS
; Function compile flags: /Ogtp
; File E:\Proyectos\JuegosOnlineproyectos\PB\pbblow\Piercing Blow Remake\i3Server\src\i3Base\i3Memory.cpp
;	COMDAT ??_Ei3FileStream@@UAEPAXI@Z
_TEXT	SEGMENT
__$EHRec$ = -12						; size = 12
___flags$ = 8						; size = 4
??_Ei3FileStream@@UAEPAXI@Z PROC			; i3FileStream::`vector deleting destructor', COMDAT
; _this$ = ecx
  00000	55		 push	 ebp
  00001	8b ec		 mov	 ebp, esp
  00003	6a ff		 push	 -1
  00005	68 00 00 00 00	 push	 __ehhandler$??_Ei3FileStream@@UAEPAXI@Z
  0000a	64 a1 00 00 00
	00		 mov	 eax, DWORD PTR fs:0
  00010	50		 push	 eax
  00011	53		 push	 ebx
  00012	56		 push	 esi
  00013	57		 push	 edi
  00014	a1 00 00 00 00	 mov	 eax, DWORD PTR ___security_cookie
  00019	33 c5		 xor	 eax, ebp
  0001b	50		 push	 eax
  0001c	8d 45 f4	 lea	 eax, DWORD PTR __$EHRec$[ebp]
  0001f	64 a3 00 00 00
	00		 mov	 DWORD PTR fs:0, eax
  00025	8b f1		 mov	 esi, ecx
  00027	8b 5d 08	 mov	 ebx, DWORD PTR ___flags$[ebp]
  0002a	8b fb		 mov	 edi, ebx
  0002c	83 e7 01	 and	 edi, 1
  0002f	f6 c3 02	 test	 bl, 2
  00032	74 43		 je	 SHORT $LN2@vector
  00034	68 00 00 00 00	 push	 OFFSET ??1i3FileStream@@UAE@XZ ; i3FileStream::~i3FileStream
  00039	ff 76 fc	 push	 DWORD PTR [esi-4]
  0003c	8d 5e fc	 lea	 ebx, DWORD PTR [esi-4]
  0003f	68 38 01 00 00	 push	 312			; 00000138H
  00044	56		 push	 esi
  00045	e8 00 00 00 00	 call	 ??_M@YGXPAXIIP6EX0@Z@Z
  0004a	85 ff		 test	 edi, edi
  0004c	74 13		 je	 SHORT $LN3@vector
  0004e	69 0b 38 01 00
	00		 imul	 ecx, DWORD PTR [ebx], 312
  00054	83 c1 04	 add	 ecx, 4
  00057	51		 push	 ecx
  00058	53		 push	 ebx
  00059	e8 00 00 00 00	 call	 ??_V@YAXPAXI@Z		; operator delete[]
  0005e	83 c4 08	 add	 esp, 8
$LN3@vector:
  00061	8b c3		 mov	 eax, ebx
  00063	8b 4d f4	 mov	 ecx, DWORD PTR __$EHRec$[ebp]
  00066	64 89 0d 00 00
	00 00		 mov	 DWORD PTR fs:0, ecx
  0006d	59		 pop	 ecx
  0006e	5f		 pop	 edi
  0006f	5e		 pop	 esi
  00070	5b		 pop	 ebx
  00071	8b e5		 mov	 esp, ebp
  00073	5d		 pop	 ebp
  00074	c2 04 00	 ret	 4
$LN2@vector:
  00077	e8 00 00 00 00	 call	 ??1i3FileStream@@UAE@XZ	; i3FileStream::~i3FileStream
  0007c	85 ff		 test	 edi, edi
  0007e	74 1e		 je	 SHORT $LN6@vector
  00080	f6 c3 04	 test	 bl, 4
  00083	75 0b		 jne	 SHORT $LN5@vector
  00085	56		 push	 esi
  00086	e8 00 00 00 00	 call	 ??3i3ElementBase@@SAXPAX@Z ; i3ElementBase::operator delete
  0008b	83 c4 04	 add	 esp, 4
  0008e	eb 0e		 jmp	 SHORT $LN6@vector
$LN5@vector:

  00090	68 38 01 00 00	 push	 312			; 00000138H
  00095	56		 push	 esi
  00096	e8 00 00 00 00	 call	 ??3@YAXPAXI@Z		; operator delete
  0009b	83 c4 08	 add	 esp, 8
$LN6@vector:
  0009e	8b c6		 mov	 eax, esi
  000a0	8b 4d f4	 mov	 ecx, DWORD PTR __$EHRec$[ebp]
  000a3	64 89 0d 00 00
	00 00		 mov	 DWORD PTR fs:0, ecx
  000aa	59		 pop	 ecx
  000ab	5f		 pop	 edi
  000ac	5e		 pop	 esi
  000ad	5b		 pop	 ebx
  000ae	8b e5		 mov	 esp, ebp
  000b0	5d		 pop	 ebp
  000b1	c2 04 00	 ret	 4
  000b4	cc		 int	 3
  000b5	cc		 int	 3
  000b6	cc		 int	 3
  000b7	cc		 int	 3
  000b8	cc		 int	 3
_TEXT	ENDS
;	COMDAT text$x
text$x	SEGMENT
__ehhandler$??_Ei3FileStream@@UAEPAXI@Z:
  00000	90		 npad	 1
  00001	90		 npad	 1
  00002	8b 54 24 08	 mov	 edx, DWORD PTR [esp+8]
  00006	8d 42 0c	 lea	 eax, DWORD PTR [edx+12]
  00009	8b 4a f0	 mov	 ecx, DWORD PTR [edx-16]
  0000c	33 c8		 xor	 ecx, eax
  0000e	e8 00 00 00 00	 call	 @__security_check_cookie@4
  00013	b8 00 00 00 00	 mov	 eax, OFFSET __ehfuncinfo$??_Ei3FileStream@@UAEPAXI@Z
  00018	e9 00 00 00 00	 jmp	 ___CxxFrameHandler3
text$x	ENDS
??_Ei3FileStream@@UAEPAXI@Z ENDP			; i3FileStream::`vector deleting destructor'
; Function compile flags: /Ogtp
; File E:\Proyectos\JuegosOnlineproyectos\PB\pbblow\Piercing Blow Remake\i3Server\src\i3Base\i3Memory.cpp
;	COMDAT ??_Gi3FileStream@@UAEPAXI@Z
_TEXT	SEGMENT
___flags$ = 8						; size = 4
??_Gi3FileStream@@UAEPAXI@Z PROC			; i3FileStream::`scalar deleting destructor', COMDAT
; _this$ = ecx
  00000	55		 push	 ebp
  00001	8b ec		 mov	 ebp, esp
  00003	56		 push	 esi
  00004	8b f1		 mov	 esi, ecx
  00006	e8 00 00 00 00	 call	 ??1i3FileStream@@UAE@XZ	; i3FileStream::~i3FileStream
  0000b	8b 45 08	 mov	 eax, DWORD PTR ___flags$[ebp]
  0000e	a8 01		 test	 al, 1
  00010	74 22		 je	 SHORT $LN10@scalar
  00012	a8 04		 test	 al, 4
  00014	75 10		 jne	 SHORT $LN3@scalar
  00016	56		 push	 esi
  00017	e8 00 00 00 00	 call	 ??3i3ElementBase@@SAXPAX@Z ; i3ElementBase::operator delete
  0001c	83 c4 04	 add	 esp, 4
  0001f	8b c6		 mov	 eax, esi
  00021	5e		 pop	 esi
  00022	5d		 pop	 ebp
  00023	c2 04 00	 ret	 4
$LN3@scalar:

  00026	68 38 01 00 00	 push	 312			; 00000138H
  0002b	56		 push	 esi
  0002c	e8 00 00 00 00	 call	 ??3@YAXPAXI@Z		; operator delete
  00031	83 c4 08	 add	 esp, 8
$LN10@scalar:
  00034	8b c6		 mov	 eax, esi
  00036	5e		 pop	 esi
  00037	5d		 pop	 ebp
  00038	c2 04 00	 ret	 4
??_Gi3FileStream@@UAEPAXI@Z ENDP			; i3FileStream::`scalar deleting destructor'
_TEXT	ENDS
; Function compile flags: /Ogtp
;	COMDAT ??4i3FileStream@@QAEAAV0@ABV0@@Z
_TEXT	SEGMENT
___that$ = 8						; size = 4
??4i3FileStream@@QAEAAV0@ABV0@@Z PROC			; i3FileStream::operator=, COMDAT
; _this$ = ecx
  00000	55		 push	 ebp
  00001	8b ec		 mov	 ebp, esp
  00003	8b d1		 mov	 edx, ecx
  00005	56		 push	 esi
  00006	8b 75 08	 mov	 esi, DWORD PTR ___that$[ebp]
  00009	8b 46 04	 mov	 eax, DWORD PTR [esi+4]
  0000c	89 42 04	 mov	 DWORD PTR [edx+4], eax
  0000f	8b 46 08	 mov	 eax, DWORD PTR [esi+8]
  00012	89 42 08	 mov	 DWORD PTR [edx+8], eax
  00015	8b 46 0c	 mov	 eax, DWORD PTR [esi+12]
  00018	89 42 0c	 mov	 DWORD PTR [edx+12], eax
  0001b	8b 46 10	 mov	 eax, DWORD PTR [esi+16]
  0001e	89 42 10	 mov	 DWORD PTR [edx+16], eax
  00021	8b 46 14	 mov	 eax, DWORD PTR [esi+20]
  00024	89 42 14	 mov	 DWORD PTR [edx+20], eax
  00027	8b 46 18	 mov	 eax, DWORD PTR [esi+24]
  0002a	89 42 18	 mov	 DWORD PTR [edx+24], eax
  0002d	8b 46 1c	 mov	 eax, DWORD PTR [esi+28]
  00030	89 42 1c	 mov	 DWORD PTR [edx+28], eax
  00033	8b 46 20	 mov	 eax, DWORD PTR [esi+32]
  00036	89 42 20	 mov	 DWORD PTR [edx+32], eax
  00039	8b 46 24	 mov	 eax, DWORD PTR [esi+36]
  0003c	89 42 24	 mov	 DWORD PTR [edx+36], eax
  0003f	8b 46 28	 mov	 eax, DWORD PTR [esi+40]
  00042	89 42 28	 mov	 DWORD PTR [edx+40], eax
  00045	8b 46 2c	 mov	 eax, DWORD PTR [esi+44]
  00048	89 42 2c	 mov	 DWORD PTR [edx+44], eax
  0004b	8b 46 30	 mov	 eax, DWORD PTR [esi+48]
  0004e	89 42 30	 mov	 DWORD PTR [edx+48], eax
  00051	33 c0		 xor	 eax, eax
$LL4@operator:
  00053	8a 4c 06 34	 mov	 cl, BYTE PTR [esi+eax+52]
  00057	88 4c 02 34	 mov	 BYTE PTR [edx+eax+52], cl
  0005b	40		 inc	 eax
  0005c	3d 04 01 00 00	 cmp	 eax, 260		; 00000104H
  00061	72 f0		 jb	 SHORT $LL4@operator
  00063	5e		 pop	 esi
  00064	8b c2		 mov	 eax, edx
  00066	5d		 pop	 ebp
  00067	c2 04 00	 ret	 4
??4i3FileStream@@QAEAAV0@ABV0@@Z ENDP			; i3FileStream::operator=
_TEXT	ENDS
; Function compile flags: /Ogtp
;	COMDAT ??0i3FileStream@@QAE@ABV0@@Z
_TEXT	SEGMENT
___that$ = 8						; size = 4
??0i3FileStream@@QAE@ABV0@@Z PROC			; i3FileStream::i3FileStream, COMDAT
; _this$ = ecx
  00000	55		 push	 ebp
  00001	8b ec		 mov	 ebp, esp
  00003	8b d1		 mov	 edx, ecx
  00005	b9 41 00 00 00	 mov	 ecx, 65			; 00000041H
  0000a	56		 push	 esi
  0000b	8b 75 08	 mov	 esi, DWORD PTR ___that$[ebp]
  0000e	57		 push	 edi
  0000f	c7 02 00 00 00
	00		 mov	 DWORD PTR [edx], OFFSET ??_7i3ElementBase@@6B@
  00015	8d 7a 34	 lea	 edi, DWORD PTR [edx+52]
  00018	8b 46 04	 mov	 eax, DWORD PTR [esi+4]
  0001b	89 42 04	 mov	 DWORD PTR [edx+4], eax
  0001e	8b 46 08	 mov	 eax, DWORD PTR [esi+8]
  00021	89 42 08	 mov	 DWORD PTR [edx+8], eax
  00024	8b 46 0c	 mov	 eax, DWORD PTR [esi+12]
  00027	89 42 0c	 mov	 DWORD PTR [edx+12], eax
  0002a	c7 02 00 00 00
	00		 mov	 DWORD PTR [edx], OFFSET ??_7i3Stream@@6B@
  00030	8b 46 10	 mov	 eax, DWORD PTR [esi+16]
  00033	89 42 10	 mov	 DWORD PTR [edx+16], eax
  00036	8b 46 14	 mov	 eax, DWORD PTR [esi+20]
  00039	89 42 14	 mov	 DWORD PTR [edx+20], eax
  0003c	8b 46 18	 mov	 eax, DWORD PTR [esi+24]
  0003f	89 42 18	 mov	 DWORD PTR [edx+24], eax
  00042	8b 46 1c	 mov	 eax, DWORD PTR [esi+28]
  00045	89 42 1c	 mov	 DWORD PTR [edx+28], eax
  00048	8b 46 20	 mov	 eax, DWORD PTR [esi+32]
  0004b	89 42 20	 mov	 DWORD PTR [edx+32], eax
  0004e	c7 02 00 00 00
	00		 mov	 DWORD PTR [edx], OFFSET ??_7i3FileStream@@6B@
  00054	8b 46 24	 mov	 eax, DWORD PTR [esi+36]
  00057	89 42 24	 mov	 DWORD PTR [edx+36], eax
  0005a	8b 46 28	 mov	 eax, DWORD PTR [esi+40]
  0005d	89 42 28	 mov	 DWORD PTR [edx+40], eax
  00060	8b 46 2c	 mov	 eax, DWORD PTR [esi+44]
  00063	89 42 2c	 mov	 DWORD PTR [edx+44], eax
  00066	8b 46 30	 mov	 eax, DWORD PTR [esi+48]
  00069	83 c6 34	 add	 esi, 52			; 00000034H
  0006c	89 42 30	 mov	 DWORD PTR [edx+48], eax
  0006f	8b c2		 mov	 eax, edx
  00071	f3 a5		 rep movsd
  00073	5f		 pop	 edi
  00074	5e		 pop	 esi
  00075	5d		 pop	 ebp
  00076	c2 04 00	 ret	 4
??0i3FileStream@@QAE@ABV0@@Z ENDP			; i3FileStream::i3FileStream
_TEXT	ENDS
; Function compile flags: /Ogtp
; File E:\Proyectos\JuegosOnlineproyectos\PB\pbblow\Piercing Blow Remake\i3Server\include\i3Base\i3StreamFile.h
;	COMDAT ?IsCaseSensitive@i3FileStream@@SAHXZ
_TEXT	SEGMENT
?IsCaseSensitive@i3FileStream@@SAHXZ PROC		; i3FileStream::IsCaseSensitive, COMDAT

; 45   : 	static BOOL	IsCaseSensitive()						{ return m_bCaseSensitive; }

  00000	a1 00 00 00 00	 mov	 eax, DWORD PTR ?m_bCaseSensitive@i3FileStream@@1HA ; i3FileStream::m_bCaseSensitive
  00005	c3		 ret	 0
?IsCaseSensitive@i3FileStream@@SAHXZ ENDP		; i3FileStream::IsCaseSensitive
_TEXT	ENDS
; Function compile flags: /Ogtp
; File E:\Proyectos\JuegosOnlineproyectos\PB\pbblow\Piercing Blow Remake\i3Server\include\i3Base\i3StreamFile.h
;	COMDAT ?SetCaseSensitive@i3FileStream@@SAXH@Z
_TEXT	SEGMENT
_bTrue$ = 8						; size = 4
?SetCaseSensitive@i3FileStream@@SAXH@Z PROC		; i3FileStream::SetCaseSensitive, COMDAT

; 44   : 	static void	SetCaseSensitive( BOOL bTrue = TRUE )	{ m_bCaseSensitive = bTrue; }

  00000	55		 push	 ebp
  00001	8b ec		 mov	 ebp, esp
  00003	8b 45 08	 mov	 eax, DWORD PTR _bTrue$[ebp]
  00006	a3 00 00 00 00	 mov	 DWORD PTR ?m_bCaseSensitive@i3FileStream@@1HA, eax ; i3FileStream::m_bCaseSensitive
  0000b	5d		 pop	 ebp
  0000c	c3		 ret	 0
?SetCaseSensitive@i3FileStream@@SAXH@Z ENDP		; i3FileStream::SetCaseSensitive
_TEXT	ENDS
; Function compile flags: /Ogtp
; File E:\Proyectos\JuegosOnlineproyectos\PB\pbblow\Piercing Blow Remake\i3Server\include\i3Base\i3StreamFile.h
;	COMDAT ?GetFileName@i3FileStream@@QAEPADXZ
_TEXT	SEGMENT
?GetFileName@i3FileStream@@QAEPADXZ PROC		; i3FileStream::GetFileName, COMDAT
; _this$ = ecx

; 41   : 	char *  GetFileName(void)			{ return FileName; }

  00000	8d 41 34	 lea	 eax, DWORD PTR [ecx+52]
  00003	c3		 ret	 0
?GetFileName@i3FileStream@@QAEPADXZ ENDP		; i3FileStream::GetFileName
_TEXT	ENDS
; Function compile flags: /Ogtp
; File E:\Proyectos\JuegosOnlineproyectos\PB\pbblow\Piercing Blow Remake\i3Server\include\i3Base\i3StreamFile.h
;	COMDAT ?GetHandle@i3FileStream@@UAEPAXXZ
_TEXT	SEGMENT
?GetHandle@i3FileStream@@UAEPAXXZ PROC			; i3FileStream::GetHandle, COMDAT
; _this$ = ecx

; 39   : 	void * GetHandle(void)				{ return (void *)m_pHandle; }

  00000	8b 41 20	 mov	 eax, DWORD PTR [ecx+32]
  00003	c3		 ret	 0
?GetHandle@i3FileStream@@UAEPAXXZ ENDP			; i3FileStream::GetHandle
_TEXT	ENDS
; Function compile flags: /Ogtp
; File E:\Proyectos\JuegosOnlineproyectos\PB\pbblow\Piercing Blow Remake\i3Server\include\i3Base\i3StreamFile.h
;	COMDAT ?GetClassMeta@i3FileStream@@SAPAVi3ClassMeta@@XZ
_TEXT	SEGMENT
?GetClassMeta@i3FileStream@@SAPAVi3ClassMeta@@XZ PROC	; i3FileStream::GetClassMeta, COMDAT

; 20   : 	I3_CLASS_DEFINE( i3FileStream);

  00000	a1 00 00 00 00	 mov	 eax, DWORD PTR ?s_pClassMetai3FileStream@i3FileStream@@2PAVi3ClassMeta@@A ; i3FileStream::s_pClassMetai3FileStream
  00005	c3		 ret	 0
?GetClassMeta@i3FileStream@@SAPAVi3ClassMeta@@XZ ENDP	; i3FileStream::GetClassMeta
_TEXT	ENDS
; Function compile flags: /Ogtp
; File E:\Proyectos\JuegosOnlineproyectos\PB\pbblow\Piercing Blow Remake\i3Server\src\i3Base\i3Memory.cpp
;	COMDAT ??_Ei3Stream@@UAEPAXI@Z
_TEXT	SEGMENT
__$EHRec$ = -12						; size = 12
___flags$ = 8						; size = 4
??_Ei3Stream@@UAEPAXI@Z PROC				; i3Stream::`vector deleting destructor', COMDAT
; _this$ = ecx
  00000	55		 push	 ebp
  00001	8b ec		 mov	 ebp, esp
  00003	6a ff		 push	 -1
  00005	68 00 00 00 00	 push	 __ehhandler$??_Ei3Stream@@UAEPAXI@Z
  0000a	64 a1 00 00 00
	00		 mov	 eax, DWORD PTR fs:0
  00010	50		 push	 eax
  00011	53		 push	 ebx
  00012	56		 push	 esi
  00013	57		 push	 edi
  00014	a1 00 00 00 00	 mov	 eax, DWORD PTR ___security_cookie
  00019	33 c5		 xor	 eax, ebp
  0001b	50		 push	 eax
  0001c	8d 45 f4	 lea	 eax, DWORD PTR __$EHRec$[ebp]
  0001f	64 a3 00 00 00
	00		 mov	 DWORD PTR fs:0, eax
  00025	8b f1		 mov	 esi, ecx
  00027	8b 5d 08	 mov	 ebx, DWORD PTR ___flags$[ebp]
  0002a	8b fb		 mov	 edi, ebx
  0002c	83 e7 01	 and	 edi, 1
  0002f	f6 c3 02	 test	 bl, 2
  00032	74 43		 je	 SHORT $LN2@vector
  00034	68 00 00 00 00	 push	 OFFSET ??1i3Stream@@UAE@XZ ; i3Stream::~i3Stream
  00039	ff 76 fc	 push	 DWORD PTR [esi-4]
  0003c	8d 5e fc	 lea	 ebx, DWORD PTR [esi-4]
  0003f	6a 24		 push	 36			; 00000024H
  00041	56		 push	 esi
  00042	e8 00 00 00 00	 call	 ??_M@YGXPAXIIP6EX0@Z@Z
  00047	85 ff		 test	 edi, edi
  00049	74 16		 je	 SHORT $LN3@vector
  0004b	8b 0b		 mov	 ecx, DWORD PTR [ebx]
  0004d	8d 0c c9	 lea	 ecx, DWORD PTR [ecx+ecx*8]
  00050	8d 0c 8d 04 00
	00 00		 lea	 ecx, DWORD PTR [ecx*4+4]
  00057	51		 push	 ecx
  00058	53		 push	 ebx
  00059	e8 00 00 00 00	 call	 ??_V@YAXPAXI@Z		; operator delete[]
  0005e	83 c4 08	 add	 esp, 8
$LN3@vector:
  00061	8b c3		 mov	 eax, ebx
  00063	8b 4d f4	 mov	 ecx, DWORD PTR __$EHRec$[ebp]
  00066	64 89 0d 00 00
	00 00		 mov	 DWORD PTR fs:0, ecx
  0006d	59		 pop	 ecx
  0006e	5f		 pop	 edi
  0006f	5e		 pop	 esi
  00070	5b		 pop	 ebx
  00071	8b e5		 mov	 esp, ebp
  00073	5d		 pop	 ebp
  00074	c2 04 00	 ret	 4
$LN2@vector:
  00077	e8 00 00 00 00	 call	 ??1i3Stream@@UAE@XZ	; i3Stream::~i3Stream
  0007c	85 ff		 test	 edi, edi
  0007e	74 1b		 je	 SHORT $LN6@vector
  00080	f6 c3 04	 test	 bl, 4
  00083	75 0b		 jne	 SHORT $LN5@vector
  00085	56		 push	 esi
  00086	e8 00 00 00 00	 call	 ??3i3ElementBase@@SAXPAX@Z ; i3ElementBase::operator delete
  0008b	83 c4 04	 add	 esp, 4
  0008e	eb 0b		 jmp	 SHORT $LN6@vector
$LN5@vector:

  00090	6a 24		 push	 36			; 00000024H
  00092	56		 push	 esi
  00093	e8 00 00 00 00	 call	 ??3@YAXPAXI@Z		; operator delete
  00098	83 c4 08	 add	 esp, 8
$LN6@vector:
  0009b	8b c6		 mov	 eax, esi
  0009d	8b 4d f4	 mov	 ecx, DWORD PTR __$EHRec$[ebp]
  000a0	64 89 0d 00 00
	00 00		 mov	 DWORD PTR fs:0, ecx
  000a7	59		 pop	 ecx
  000a8	5f		 pop	 edi
  000a9	5e		 pop	 esi
  000aa	5b		 pop	 ebx
  000ab	8b e5		 mov	 esp, ebp
  000ad	5d		 pop	 ebp
  000ae	c2 04 00	 ret	 4
  000b1	cc		 int	 3
  000b2	cc		 int	 3
  000b3	cc		 int	 3
  000b4	cc		 int	 3
  000b5	cc		 int	 3
_TEXT	ENDS
;	COMDAT text$x
text$x	SEGMENT
__ehhandler$??_Ei3Stream@@UAEPAXI@Z:
  00000	90		 npad	 1
  00001	90		 npad	 1
  00002	8b 54 24 08	 mov	 edx, DWORD PTR [esp+8]
  00006	8d 42 0c	 lea	 eax, DWORD PTR [edx+12]
  00009	8b 4a f0	 mov	 ecx, DWORD PTR [edx-16]
  0000c	33 c8		 xor	 ecx, eax
  0000e	e8 00 00 00 00	 call	 @__security_check_cookie@4
  00013	b8 00 00 00 00	 mov	 eax, OFFSET __ehfuncinfo$??_Ei3Stream@@UAEPAXI@Z
  00018	e9 00 00 00 00	 jmp	 ___CxxFrameHandler3
text$x	ENDS
??_Ei3Stream@@UAEPAXI@Z ENDP				; i3Stream::`vector deleting destructor'
; Function compile flags: /Ogtp
; File E:\Proyectos\JuegosOnlineproyectos\PB\pbblow\Piercing Blow Remake\i3Server\src\i3Base\i3Memory.cpp
;	COMDAT ??_Gi3Stream@@UAEPAXI@Z
_TEXT	SEGMENT
___flags$ = 8						; size = 4
??_Gi3Stream@@UAEPAXI@Z PROC				; i3Stream::`scalar deleting destructor', COMDAT
; _this$ = ecx
  00000	55		 push	 ebp
  00001	8b ec		 mov	 ebp, esp
  00003	56		 push	 esi
  00004	8b f1		 mov	 esi, ecx
  00006	e8 00 00 00 00	 call	 ??1i3Stream@@UAE@XZ	; i3Stream::~i3Stream
  0000b	8b 45 08	 mov	 eax, DWORD PTR ___flags$[ebp]
  0000e	a8 01		 test	 al, 1
  00010	74 1f		 je	 SHORT $LN10@scalar
  00012	a8 04		 test	 al, 4
  00014	75 10		 jne	 SHORT $LN3@scalar
  00016	56		 push	 esi
  00017	e8 00 00 00 00	 call	 ??3i3ElementBase@@SAXPAX@Z ; i3ElementBase::operator delete
  0001c	83 c4 04	 add	 esp, 4
  0001f	8b c6		 mov	 eax, esi
  00021	5e		 pop	 esi
  00022	5d		 pop	 ebp
  00023	c2 04 00	 ret	 4
$LN3@scalar:

  00026	6a 24		 push	 36			; 00000024H
  00028	56		 push	 esi
  00029	e8 00 00 00 00	 call	 ??3@YAXPAXI@Z		; operator delete
  0002e	83 c4 08	 add	 esp, 8
$LN10@scalar:
  00031	8b c6		 mov	 eax, esi
  00033	5e		 pop	 esi
  00034	5d		 pop	 ebp
  00035	c2 04 00	 ret	 4
??_Gi3Stream@@UAEPAXI@Z ENDP				; i3Stream::`scalar deleting destructor'
_TEXT	ENDS
; Function compile flags: /Ogtp
;	COMDAT ??4i3Stream@@QAEAAV0@ABV0@@Z
_TEXT	SEGMENT
___that$ = 8						; size = 4
??4i3Stream@@QAEAAV0@ABV0@@Z PROC			; i3Stream::operator=, COMDAT
; _this$ = ecx
  00000	55		 push	 ebp
  00001	8b ec		 mov	 ebp, esp
  00003	8b 55 08	 mov	 edx, DWORD PTR ___that$[ebp]
  00006	8b 42 04	 mov	 eax, DWORD PTR [edx+4]
  00009	89 41 04	 mov	 DWORD PTR [ecx+4], eax
  0000c	8b 42 08	 mov	 eax, DWORD PTR [edx+8]
  0000f	89 41 08	 mov	 DWORD PTR [ecx+8], eax
  00012	8b 42 0c	 mov	 eax, DWORD PTR [edx+12]
  00015	89 41 0c	 mov	 DWORD PTR [ecx+12], eax
  00018	8b 42 10	 mov	 eax, DWORD PTR [edx+16]
  0001b	89 41 10	 mov	 DWORD PTR [ecx+16], eax
  0001e	8b 42 14	 mov	 eax, DWORD PTR [edx+20]
  00021	89 41 14	 mov	 DWORD PTR [ecx+20], eax
  00024	8b 42 18	 mov	 eax, DWORD PTR [edx+24]
  00027	89 41 18	 mov	 DWORD PTR [ecx+24], eax
  0002a	8b 42 1c	 mov	 eax, DWORD PTR [edx+28]
  0002d	89 41 1c	 mov	 DWORD PTR [ecx+28], eax
  00030	8b 42 20	 mov	 eax, DWORD PTR [edx+32]
  00033	89 41 20	 mov	 DWORD PTR [ecx+32], eax
  00036	8b c1		 mov	 eax, ecx
  00038	5d		 pop	 ebp
  00039	c2 04 00	 ret	 4
??4i3Stream@@QAEAAV0@ABV0@@Z ENDP			; i3Stream::operator=
_TEXT	ENDS
; Function compile flags: /Ogtp
;	COMDAT ??0i3Stream@@QAE@ABV0@@Z
_TEXT	SEGMENT
___that$ = 8						; size = 4
??0i3Stream@@QAE@ABV0@@Z PROC				; i3Stream::i3Stream, COMDAT
; _this$ = ecx
  00000	55		 push	 ebp
  00001	8b ec		 mov	 ebp, esp
  00003	8b 55 08	 mov	 edx, DWORD PTR ___that$[ebp]
  00006	c7 01 00 00 00
	00		 mov	 DWORD PTR [ecx], OFFSET ??_7i3ElementBase@@6B@
  0000c	8b 42 04	 mov	 eax, DWORD PTR [edx+4]
  0000f	89 41 04	 mov	 DWORD PTR [ecx+4], eax
  00012	8b 42 08	 mov	 eax, DWORD PTR [edx+8]
  00015	89 41 08	 mov	 DWORD PTR [ecx+8], eax
  00018	8b 42 0c	 mov	 eax, DWORD PTR [edx+12]
  0001b	89 41 0c	 mov	 DWORD PTR [ecx+12], eax
  0001e	c7 01 00 00 00
	00		 mov	 DWORD PTR [ecx], OFFSET ??_7i3Stream@@6B@
  00024	8b 42 10	 mov	 eax, DWORD PTR [edx+16]
  00027	89 41 10	 mov	 DWORD PTR [ecx+16], eax
  0002a	8b 42 14	 mov	 eax, DWORD PTR [edx+20]
  0002d	89 41 14	 mov	 DWORD PTR [ecx+20], eax
  00030	8b 42 18	 mov	 eax, DWORD PTR [edx+24]
  00033	89 41 18	 mov	 DWORD PTR [ecx+24], eax
  00036	8b 42 1c	 mov	 eax, DWORD PTR [edx+28]
  00039	89 41 1c	 mov	 DWORD PTR [ecx+28], eax
  0003c	8b 42 20	 mov	 eax, DWORD PTR [edx+32]
  0003f	89 41 20	 mov	 DWORD PTR [ecx+32], eax
  00042	8b c1		 mov	 eax, ecx
  00044	5d		 pop	 ebp
  00045	c2 04 00	 ret	 4
??0i3Stream@@QAE@ABV0@@Z ENDP				; i3Stream::i3Stream
_TEXT	ENDS
; Function compile flags: /Ogtp
; File E:\Proyectos\JuegosOnlineproyectos\PB\pbblow\Piercing Blow Remake\i3Server\include\i3Base\i3Stream.h
;	COMDAT ?GetRecordSize@i3Stream@@QAEIXZ
_TEXT	SEGMENT
?GetRecordSize@i3Stream@@QAEIXZ PROC			; i3Stream::GetRecordSize, COMDAT
; _this$ = ecx

; 58   : 	UINT32	GetRecordSize(void)							{ return m_RecordSize; }

  00000	8b 41 14	 mov	 eax, DWORD PTR [ecx+20]
  00003	c3		 ret	 0
?GetRecordSize@i3Stream@@QAEIXZ ENDP			; i3Stream::GetRecordSize
_TEXT	ENDS
; Function compile flags: /Ogtp
; File E:\Proyectos\JuegosOnlineproyectos\PB\pbblow\Piercing Blow Remake\i3Server\include\i3Base\i3Stream.h
;	COMDAT ?BeginRecord@i3Stream@@QAEXXZ
_TEXT	SEGMENT
?BeginRecord@i3Stream@@QAEXXZ PROC			; i3Stream::BeginRecord, COMDAT
; _this$ = ecx

; 57   : 	void	BeginRecord(void)							{ m_RecordSize = 0; }

  00000	c7 41 14 00 00
	00 00		 mov	 DWORD PTR [ecx+20], 0
  00007	c3		 ret	 0
?BeginRecord@i3Stream@@QAEXXZ ENDP			; i3Stream::BeginRecord
_TEXT	ENDS
; Function compile flags: /Ogtp
; File E:\Proyectos\JuegosOnlineproyectos\PB\pbblow\Piercing Blow Remake\i3Server\include\i3Base\i3Stream.h
;	COMDAT ?GetHandle@i3Stream@@UAEPAXXZ
_TEXT	SEGMENT
?GetHandle@i3Stream@@UAEPAXXZ PROC			; i3Stream::GetHandle, COMDAT
; _this$ = ecx

; 55   : 	virtual void *			GetHandle(void)				{ return m_pHandle; }

  00000	8b 41 20	 mov	 eax, DWORD PTR [ecx+32]
  00003	c3		 ret	 0
?GetHandle@i3Stream@@UAEPAXXZ ENDP			; i3Stream::GetHandle
_TEXT	ENDS
; Function compile flags: /Ogtp
; File E:\Proyectos\JuegosOnlineproyectos\PB\pbblow\Piercing Blow Remake\i3Server\include\i3Base\i3Stream.h
;	COMDAT ?GetAccessMode@i3Stream@@QAEHXZ
_TEXT	SEGMENT
?GetAccessMode@i3Stream@@QAEHXZ PROC			; i3Stream::GetAccessMode, COMDAT
; _this$ = ecx

; 53   : 	INT32			GetAccessMode(void)					{ return m_Access; }

  00000	8b 41 1c	 mov	 eax, DWORD PTR [ecx+28]
  00003	c3		 ret	 0
?GetAccessMode@i3Stream@@QAEHXZ ENDP			; i3Stream::GetAccessMode
_TEXT	ENDS
; Function compile flags: /Ogtp
; File E:\Proyectos\JuegosOnlineproyectos\PB\pbblow\Piercing Blow Remake\i3Server\include\i3Base\i3Stream.h
;	COMDAT ?GetLastError@i3Stream@@QAE?AW4STREAMCODE@1@XZ
_TEXT	SEGMENT
?GetLastError@i3Stream@@QAE?AW4STREAMCODE@1@XZ PROC	; i3Stream::GetLastError, COMDAT
; _this$ = ecx

; 52   : 	STREAMCODE		GetLastError(void)					{ return m_LastCode; }

  00000	8b 41 18	 mov	 eax, DWORD PTR [ecx+24]
  00003	c3		 ret	 0
?GetLastError@i3Stream@@QAE?AW4STREAMCODE@1@XZ ENDP	; i3Stream::GetLastError
_TEXT	ENDS
; Function compile flags: /Ogtp
; File E:\Proyectos\JuegosOnlineproyectos\PB\pbblow\Piercing Blow Remake\i3Server\include\i3Base\i3Stream.h
;	COMDAT ?GetSize@i3Stream@@QAEIXZ
_TEXT	SEGMENT
?GetSize@i3Stream@@QAEIXZ PROC				; i3Stream::GetSize, COMDAT
; _this$ = ecx

; 51   : 	UINT32			GetSize(void)						{ return m_Size; }

  00000	8b 41 10	 mov	 eax, DWORD PTR [ecx+16]
  00003	c3		 ret	 0
?GetSize@i3Stream@@QAEIXZ ENDP				; i3Stream::GetSize
_TEXT	ENDS
; Function compile flags: /Ogtp
; File E:\Proyectos\JuegosOnlineproyectos\PB\pbblow\Piercing Blow Remake\i3Server\include\i3Base\i3Stream.h
;	COMDAT ?GetClassMeta@i3Stream@@SAPAVi3ClassMeta@@XZ
_TEXT	SEGMENT
?GetClassMeta@i3Stream@@SAPAVi3ClassMeta@@XZ PROC	; i3Stream::GetClassMeta, COMDAT

; 24   : 	I3_ABSTRACT_CLASS_DEFINE( i3Stream);

  00000	a1 00 00 00 00	 mov	 eax, DWORD PTR ?s_pClassMetai3Stream@i3Stream@@2PAVi3ClassMeta@@A ; i3Stream::s_pClassMetai3Stream
  00005	c3		 ret	 0
?GetClassMeta@i3Stream@@SAPAVi3ClassMeta@@XZ ENDP	; i3Stream::GetClassMeta
_TEXT	ENDS
; Function compile flags: /Ogtp
;	COMDAT ??_Ei3MemoryPool@@UAEPAXI@Z
_TEXT	SEGMENT
__$EHRec$ = -12						; size = 12
___flags$ = 8						; size = 4
??_Ei3MemoryPool@@UAEPAXI@Z PROC			; i3MemoryPool::`vector deleting destructor', COMDAT
; _this$ = ecx
  00000	55		 push	 ebp
  00001	8b ec		 mov	 ebp, esp
  00003	6a ff		 push	 -1
  00005	68 00 00 00 00	 push	 __ehhandler$??_Ei3MemoryPool@@UAEPAXI@Z
  0000a	64 a1 00 00 00
	00		 mov	 eax, DWORD PTR fs:0
  00010	50		 push	 eax
  00011	53		 push	 ebx
  00012	56		 push	 esi
  00013	57		 push	 edi
  00014	a1 00 00 00 00	 mov	 eax, DWORD PTR ___security_cookie
  00019	33 c5		 xor	 eax, ebp
  0001b	50		 push	 eax
  0001c	8d 45 f4	 lea	 eax, DWORD PTR __$EHRec$[ebp]
  0001f	64 a3 00 00 00
	00		 mov	 DWORD PTR fs:0, eax
  00025	8b f1		 mov	 esi, ecx
  00027	8b 45 08	 mov	 eax, DWORD PTR ___flags$[ebp]
  0002a	8b f8		 mov	 edi, eax
  0002c	83 e7 01	 and	 edi, 1
  0002f	a8 02		 test	 al, 2
  00031	74 40		 je	 SHORT $LN2@vector
  00033	68 00 00 00 00	 push	 OFFSET ??1i3MemoryPool@@UAE@XZ ; i3MemoryPool::~i3MemoryPool
  00038	ff 76 fc	 push	 DWORD PTR [esi-4]
  0003b	8d 5e fc	 lea	 ebx, DWORD PTR [esi-4]
  0003e	6a 04		 push	 4
  00040	56		 push	 esi
  00041	e8 00 00 00 00	 call	 ??_M@YGXPAXIIP6EX0@Z@Z
  00046	85 ff		 test	 edi, edi
  00048	74 13		 je	 SHORT $LN3@vector
  0004a	8b 0b		 mov	 ecx, DWORD PTR [ebx]
  0004c	8d 0c 8d 04 00
	00 00		 lea	 ecx, DWORD PTR [ecx*4+4]
  00053	51		 push	 ecx
  00054	53		 push	 ebx
  00055	e8 00 00 00 00	 call	 ??_V@YAXPAXI@Z		; operator delete[]
  0005a	83 c4 08	 add	 esp, 8
$LN3@vector:
  0005d	8b c3		 mov	 eax, ebx
  0005f	8b 4d f4	 mov	 ecx, DWORD PTR __$EHRec$[ebp]
  00062	64 89 0d 00 00
	00 00		 mov	 DWORD PTR fs:0, ecx
  00069	59		 pop	 ecx
  0006a	5f		 pop	 edi
  0006b	5e		 pop	 esi
  0006c	5b		 pop	 ebx
  0006d	8b e5		 mov	 esp, ebp
  0006f	5d		 pop	 ebp
  00070	c2 04 00	 ret	 4
$LN2@vector:
  00073	e8 00 00 00 00	 call	 ??1i3MemoryPool@@UAE@XZ	; i3MemoryPool::~i3MemoryPool
  00078	85 ff		 test	 edi, edi
  0007a	74 0b		 je	 SHORT $LN4@vector
  0007c	6a 04		 push	 4
  0007e	56		 push	 esi
  0007f	e8 00 00 00 00	 call	 ??3@YAXPAXI@Z		; operator delete
  00084	83 c4 08	 add	 esp, 8
$LN4@vector:
  00087	8b c6		 mov	 eax, esi
  00089	8b 4d f4	 mov	 ecx, DWORD PTR __$EHRec$[ebp]
  0008c	64 89 0d 00 00
	00 00		 mov	 DWORD PTR fs:0, ecx
  00093	59		 pop	 ecx
  00094	5f		 pop	 edi
  00095	5e		 pop	 esi
  00096	5b		 pop	 ebx
  00097	8b e5		 mov	 esp, ebp
  00099	5d		 pop	 ebp
  0009a	c2 04 00	 ret	 4
  0009d	cc		 int	 3
  0009e	cc		 int	 3
  0009f	cc		 int	 3
  000a0	cc		 int	 3
  000a1	cc		 int	 3
_TEXT	ENDS
;	COMDAT text$x
text$x	SEGMENT
__ehhandler$??_Ei3MemoryPool@@UAEPAXI@Z:
  00000	90		 npad	 1
  00001	90		 npad	 1
  00002	8b 54 24 08	 mov	 edx, DWORD PTR [esp+8]
  00006	8d 42 0c	 lea	 eax, DWORD PTR [edx+12]
  00009	8b 4a f0	 mov	 ecx, DWORD PTR [edx-16]
  0000c	33 c8		 xor	 ecx, eax
  0000e	e8 00 00 00 00	 call	 @__security_check_cookie@4
  00013	b8 00 00 00 00	 mov	 eax, OFFSET __ehfuncinfo$??_Ei3MemoryPool@@UAEPAXI@Z
  00018	e9 00 00 00 00	 jmp	 ___CxxFrameHandler3
text$x	ENDS
??_Ei3MemoryPool@@UAEPAXI@Z ENDP			; i3MemoryPool::`vector deleting destructor'
; Function compile flags: /Ogtp
;	COMDAT ??_Gi3MemoryPool@@UAEPAXI@Z
_TEXT	SEGMENT
___flags$ = 8						; size = 4
??_Gi3MemoryPool@@UAEPAXI@Z PROC			; i3MemoryPool::`scalar deleting destructor', COMDAT
; _this$ = ecx
  00000	55		 push	 ebp
  00001	8b ec		 mov	 ebp, esp
  00003	56		 push	 esi
  00004	8b f1		 mov	 esi, ecx
  00006	e8 00 00 00 00	 call	 ??1i3MemoryPool@@UAE@XZ	; i3MemoryPool::~i3MemoryPool
  0000b	f6 45 08 01	 test	 BYTE PTR ___flags$[ebp], 1
  0000f	74 0b		 je	 SHORT $LN5@scalar
  00011	6a 04		 push	 4
  00013	56		 push	 esi
  00014	e8 00 00 00 00	 call	 ??3@YAXPAXI@Z		; operator delete
  00019	83 c4 08	 add	 esp, 8
$LN5@scalar:
  0001c	8b c6		 mov	 eax, esi
  0001e	5e		 pop	 esi
  0001f	5d		 pop	 ebp
  00020	c2 04 00	 ret	 4
??_Gi3MemoryPool@@UAEPAXI@Z ENDP			; i3MemoryPool::`scalar deleting destructor'
_TEXT	ENDS
; Function compile flags: /Ogtp
;	COMDAT ??4i3MemoryPool@@QAEAAV0@ABV0@@Z
_TEXT	SEGMENT
___that$ = 8						; size = 4
??4i3MemoryPool@@QAEAAV0@ABV0@@Z PROC			; i3MemoryPool::operator=, COMDAT
; _this$ = ecx
  00000	8b c1		 mov	 eax, ecx
  00002	c2 04 00	 ret	 4
??4i3MemoryPool@@QAEAAV0@ABV0@@Z ENDP			; i3MemoryPool::operator=
_TEXT	ENDS
; Function compile flags: /Ogtp
;	COMDAT ??0i3MemoryPool@@QAE@ABV0@@Z
_TEXT	SEGMENT
___that$ = 8						; size = 4
??0i3MemoryPool@@QAE@ABV0@@Z PROC			; i3MemoryPool::i3MemoryPool, COMDAT
; _this$ = ecx
  00000	c7 01 00 00 00
	00		 mov	 DWORD PTR [ecx], OFFSET ??_7i3MemoryPool@@6B@
  00006	8b c1		 mov	 eax, ecx
  00008	c2 04 00	 ret	 4
??0i3MemoryPool@@QAE@ABV0@@Z ENDP			; i3MemoryPool::i3MemoryPool
_TEXT	ENDS
; Function compile flags: /Ogtp
; File E:\Proyectos\JuegosOnlineproyectos\PB\pbblow\Piercing Blow Remake\i3Server\src\i3Base\i3Memory.cpp
;	COMDAT ??_Ei3ElementBase@@UAEPAXI@Z
_TEXT	SEGMENT
__$EHRec$ = -12						; size = 12
___flags$ = 8						; size = 4
??_Ei3ElementBase@@UAEPAXI@Z PROC			; i3ElementBase::`vector deleting destructor', COMDAT
; _this$ = ecx
  00000	55		 push	 ebp
  00001	8b ec		 mov	 ebp, esp
  00003	6a ff		 push	 -1
  00005	68 00 00 00 00	 push	 __ehhandler$??_Ei3ElementBase@@UAEPAXI@Z
  0000a	64 a1 00 00 00
	00		 mov	 eax, DWORD PTR fs:0
  00010	50		 push	 eax
  00011	53		 push	 ebx
  00012	56		 push	 esi
  00013	57		 push	 edi
  00014	a1 00 00 00 00	 mov	 eax, DWORD PTR ___security_cookie
  00019	33 c5		 xor	 eax, ebp
  0001b	50		 push	 eax
  0001c	8d 45 f4	 lea	 eax, DWORD PTR __$EHRec$[ebp]
  0001f	64 a3 00 00 00
	00		 mov	 DWORD PTR fs:0, eax
  00025	8b f1		 mov	 esi, ecx
  00027	8b 5d 08	 mov	 ebx, DWORD PTR ___flags$[ebp]
  0002a	8b fb		 mov	 edi, ebx
  0002c	83 e7 01	 and	 edi, 1
  0002f	f6 c3 02	 test	 bl, 2
  00032	74 3f		 je	 SHORT $LN2@vector
  00034	68 00 00 00 00	 push	 OFFSET ??1i3ElementBase@@UAE@XZ ; i3ElementBase::~i3ElementBase
  00039	ff 76 fc	 push	 DWORD PTR [esi-4]
  0003c	8d 5e fc	 lea	 ebx, DWORD PTR [esi-4]
  0003f	6a 10		 push	 16			; 00000010H
  00041	56		 push	 esi
  00042	e8 00 00 00 00	 call	 ??_M@YGXPAXIIP6EX0@Z@Z
  00047	85 ff		 test	 edi, edi
  00049	74 12		 je	 SHORT $LN3@vector
  0004b	8b 0b		 mov	 ecx, DWORD PTR [ebx]
  0004d	c1 e1 04	 shl	 ecx, 4
  00050	83 c1 04	 add	 ecx, 4
  00053	51		 push	 ecx
  00054	53		 push	 ebx
  00055	e8 00 00 00 00	 call	 ??_V@YAXPAXI@Z		; operator delete[]
  0005a	83 c4 08	 add	 esp, 8
$LN3@vector:
  0005d	8b c3		 mov	 eax, ebx
  0005f	8b 4d f4	 mov	 ecx, DWORD PTR __$EHRec$[ebp]
  00062	64 89 0d 00 00
	00 00		 mov	 DWORD PTR fs:0, ecx
  00069	59		 pop	 ecx
  0006a	5f		 pop	 edi
  0006b	5e		 pop	 esi
  0006c	5b		 pop	 ebx
  0006d	8b e5		 mov	 esp, ebp
  0006f	5d		 pop	 ebp
  00070	c2 04 00	 ret	 4
$LN2@vector:
  00073	e8 00 00 00 00	 call	 ??1i3ElementBase@@UAE@XZ ; i3ElementBase::~i3ElementBase
  00078	85 ff		 test	 edi, edi
  0007a	74 1b		 je	 SHORT $LN6@vector
  0007c	f6 c3 04	 test	 bl, 4
  0007f	75 0b		 jne	 SHORT $LN5@vector
  00081	56		 push	 esi
  00082	e8 00 00 00 00	 call	 ??3i3ElementBase@@SAXPAX@Z ; i3ElementBase::operator delete
  00087	83 c4 04	 add	 esp, 4
  0008a	eb 0b		 jmp	 SHORT $LN6@vector
$LN5@vector:

  0008c	6a 10		 push	 16			; 00000010H
  0008e	56		 push	 esi
  0008f	e8 00 00 00 00	 call	 ??3@YAXPAXI@Z		; operator delete
  00094	83 c4 08	 add	 esp, 8
$LN6@vector:
  00097	8b c6		 mov	 eax, esi
  00099	8b 4d f4	 mov	 ecx, DWORD PTR __$EHRec$[ebp]
  0009c	64 89 0d 00 00
	00 00		 mov	 DWORD PTR fs:0, ecx
  000a3	59		 pop	 ecx
  000a4	5f		 pop	 edi
  000a5	5e		 pop	 esi
  000a6	5b		 pop	 ebx
  000a7	8b e5		 mov	 esp, ebp
  000a9	5d		 pop	 ebp
  000aa	c2 04 00	 ret	 4
  000ad	cc		 int	 3
  000ae	cc		 int	 3
  000af	cc		 int	 3
  000b0	cc		 int	 3
  000b1	cc		 int	 3
_TEXT	ENDS
;	COMDAT text$x
text$x	SEGMENT
__ehhandler$??_Ei3ElementBase@@UAEPAXI@Z:
  00000	90		 npad	 1
  00001	90		 npad	 1
  00002	8b 54 24 08	 mov	 edx, DWORD PTR [esp+8]
  00006	8d 42 0c	 lea	 eax, DWORD PTR [edx+12]
  00009	8b 4a f0	 mov	 ecx, DWORD PTR [edx-16]
  0000c	33 c8		 xor	 ecx, eax
  0000e	e8 00 00 00 00	 call	 @__security_check_cookie@4
  00013	b8 00 00 00 00	 mov	 eax, OFFSET __ehfuncinfo$??_Ei3ElementBase@@UAEPAXI@Z
  00018	e9 00 00 00 00	 jmp	 ___CxxFrameHandler3
text$x	ENDS
??_Ei3ElementBase@@UAEPAXI@Z ENDP			; i3ElementBase::`vector deleting destructor'
; Function compile flags: /Ogtp
; File E:\Proyectos\JuegosOnlineproyectos\PB\pbblow\Piercing Blow Remake\i3Server\src\i3Base\i3Memory.cpp
;	COMDAT ??_Gi3ElementBase@@UAEPAXI@Z
_TEXT	SEGMENT
___flags$ = 8						; size = 4
??_Gi3ElementBase@@UAEPAXI@Z PROC			; i3ElementBase::`scalar deleting destructor', COMDAT
; _this$ = ecx
  00000	55		 push	 ebp
  00001	8b ec		 mov	 ebp, esp
  00003	56		 push	 esi
  00004	8b f1		 mov	 esi, ecx
  00006	e8 00 00 00 00	 call	 ??1i3ElementBase@@UAE@XZ ; i3ElementBase::~i3ElementBase
  0000b	8b 45 08	 mov	 eax, DWORD PTR ___flags$[ebp]
  0000e	a8 01		 test	 al, 1
  00010	74 1f		 je	 SHORT $LN10@scalar
  00012	a8 04		 test	 al, 4
  00014	75 10		 jne	 SHORT $LN3@scalar
  00016	56		 push	 esi
  00017	e8 00 00 00 00	 call	 ??3i3ElementBase@@SAXPAX@Z ; i3ElementBase::operator delete
  0001c	83 c4 04	 add	 esp, 4
  0001f	8b c6		 mov	 eax, esi
  00021	5e		 pop	 esi
  00022	5d		 pop	 ebp
  00023	c2 04 00	 ret	 4
$LN3@scalar:

  00026	6a 10		 push	 16			; 00000010H
  00028	56		 push	 esi
  00029	e8 00 00 00 00	 call	 ??3@YAXPAXI@Z		; operator delete
  0002e	83 c4 08	 add	 esp, 8
$LN10@scalar:
  00031	8b c6		 mov	 eax, esi
  00033	5e		 pop	 esi
  00034	5d		 pop	 ebp
  00035	c2 04 00	 ret	 4
??_Gi3ElementBase@@UAEPAXI@Z ENDP			; i3ElementBase::`scalar deleting destructor'
_TEXT	ENDS
; Function compile flags: /Ogtp
;	COMDAT ??4i3ElementBase@@QAEAAV0@ABV0@@Z
_TEXT	SEGMENT
___that$ = 8						; size = 4
??4i3ElementBase@@QAEAAV0@ABV0@@Z PROC			; i3ElementBase::operator=, COMDAT
; _this$ = ecx
  00000	55		 push	 ebp
  00001	8b ec		 mov	 ebp, esp
  00003	8b 55 08	 mov	 edx, DWORD PTR ___that$[ebp]
  00006	8b 42 04	 mov	 eax, DWORD PTR [edx+4]
  00009	89 41 04	 mov	 DWORD PTR [ecx+4], eax
  0000c	8b 42 08	 mov	 eax, DWORD PTR [edx+8]
  0000f	89 41 08	 mov	 DWORD PTR [ecx+8], eax
  00012	8b 42 0c	 mov	 eax, DWORD PTR [edx+12]
  00015	89 41 0c	 mov	 DWORD PTR [ecx+12], eax
  00018	8b c1		 mov	 eax, ecx
  0001a	5d		 pop	 ebp
  0001b	c2 04 00	 ret	 4
??4i3ElementBase@@QAEAAV0@ABV0@@Z ENDP			; i3ElementBase::operator=
_TEXT	ENDS
; Function compile flags: /Ogtp
;	COMDAT ??0i3ElementBase@@QAE@ABV0@@Z
_TEXT	SEGMENT
___that$ = 8						; size = 4
??0i3ElementBase@@QAE@ABV0@@Z PROC			; i3ElementBase::i3ElementBase, COMDAT
; _this$ = ecx
  00000	55		 push	 ebp
  00001	8b ec		 mov	 ebp, esp
  00003	8b 55 08	 mov	 edx, DWORD PTR ___that$[ebp]
  00006	c7 01 00 00 00
	00		 mov	 DWORD PTR [ecx], OFFSET ??_7i3ElementBase@@6B@
  0000c	8b 42 04	 mov	 eax, DWORD PTR [edx+4]
  0000f	89 41 04	 mov	 DWORD PTR [ecx+4], eax
  00012	8b 42 08	 mov	 eax, DWORD PTR [edx+8]
  00015	89 41 08	 mov	 DWORD PTR [ecx+8], eax
  00018	8b 42 0c	 mov	 eax, DWORD PTR [edx+12]
  0001b	89 41 0c	 mov	 DWORD PTR [ecx+12], eax
  0001e	8b c1		 mov	 eax, ecx
  00020	5d		 pop	 ebp
  00021	c2 04 00	 ret	 4
??0i3ElementBase@@QAE@ABV0@@Z ENDP			; i3ElementBase::i3ElementBase
_TEXT	ENDS
; Function compile flags: /Ogtp
; File E:\Proyectos\JuegosOnlineproyectos\PB\pbblow\Piercing Blow Remake\i3Server\include\i3Base\i3ElementBase.h
;	COMDAT ?_internal_SetRefCount@i3ElementBase@@QAEXH@Z
_TEXT	SEGMENT
_cnt$ = 8						; size = 4
?_internal_SetRefCount@i3ElementBase@@QAEXH@Z PROC	; i3ElementBase::_internal_SetRefCount, COMDAT
; _this$ = ecx

; 401  : 	{

  00000	55		 push	 ebp
  00001	8b ec		 mov	 ebp, esp

; 402  : 		m_RefCount = cnt;

  00003	8b 45 08	 mov	 eax, DWORD PTR _cnt$[ebp]
  00006	89 41 04	 mov	 DWORD PTR [ecx+4], eax

; 403  : 	}

  00009	5d		 pop	 ebp
  0000a	c2 04 00	 ret	 4
?_internal_SetRefCount@i3ElementBase@@QAEXH@Z ENDP	; i3ElementBase::_internal_SetRefCount
_TEXT	ENDS
; Function compile flags: /Ogtp
; File E:\Proyectos\JuegosOnlineproyectos\PB\pbblow\Piercing Blow Remake\i3Server\include\i3Base\i3ElementBase.h
;	COMDAT ?AddRef@i3ElementBase@@QAEHXZ
_TEXT	SEGMENT
?AddRef@i3ElementBase@@QAEHXZ PROC			; i3ElementBase::AddRef, COMDAT
; _this$ = ecx

; 392  : 		m_RefCount++;

  00000	ff 41 04	 inc	 DWORD PTR [ecx+4]

; 393  : 
; 394  : 		return m_RefCount;

  00003	8b 41 04	 mov	 eax, DWORD PTR [ecx+4]

; 395  : 	}

  00006	c3		 ret	 0
?AddRef@i3ElementBase@@QAEHXZ ENDP			; i3ElementBase::AddRef
_TEXT	ENDS
; Function compile flags: /Ogtp
; File E:\Proyectos\JuegosOnlineproyectos\PB\pbblow\Piercing Blow Remake\i3Server\include\i3Base\i3ElementBase.h
;	COMDAT ?IsTypeOf@i3ElementBase@@QAE_NPAVi3ClassMeta@@@Z
_TEXT	SEGMENT
_pMeta$ = 8						; size = 4
?IsTypeOf@i3ElementBase@@QAE_NPAVi3ClassMeta@@@Z PROC	; i3ElementBase::IsTypeOf, COMDAT
; _this$ = ecx

; 356  : 	{

  00000	55		 push	 ebp
  00001	8b ec		 mov	 ebp, esp

; 357  : 		return GetMeta()->IsTypeOf( pMeta);

  00003	8b 01		 mov	 eax, DWORD PTR [ecx]
  00005	ff 75 08	 push	 DWORD PTR _pMeta$[ebp]
  00008	ff 10		 call	 DWORD PTR [eax]
  0000a	8b c8		 mov	 ecx, eax
  0000c	e8 00 00 00 00	 call	 ?IsTypeOf@i3ClassMeta@@QAE_NPAV1@@Z ; i3ClassMeta::IsTypeOf

; 358  : 	}

  00011	5d		 pop	 ebp
  00012	c2 04 00	 ret	 4
?IsTypeOf@i3ElementBase@@QAE_NPAVi3ClassMeta@@@Z ENDP	; i3ElementBase::IsTypeOf
_TEXT	ENDS
; Function compile flags: /Ogtp
; File E:\Proyectos\JuegosOnlineproyectos\PB\pbblow\Piercing Blow Remake\i3Server\include\i3Base\i3ElementBase.h
; File E:\Proyectos\JuegosOnlineproyectos\PB\pbblow\Piercing Blow Remake\i3Server\include\i3Base\i3ClassMeta.h
; File E:\Proyectos\JuegosOnlineproyectos\PB\pbblow\Piercing Blow Remake\i3Server\include\i3Base\i3ElementBase.h
;	COMDAT ?IsExactTypeOf@i3ElementBase@@QAE_NPAVi3ClassMeta@@@Z
_TEXT	SEGMENT
_pMeta$ = 8						; size = 4
?IsExactTypeOf@i3ElementBase@@QAE_NPAVi3ClassMeta@@@Z PROC ; i3ElementBase::IsExactTypeOf, COMDAT
; _this$ = ecx

; 351  : 	{

  00000	55		 push	 ebp
  00001	8b ec		 mov	 ebp, esp

; 352  : 		return GetMeta()->IsExactTypeOf( pMeta);

  00003	8b 01		 mov	 eax, DWORD PTR [ecx]
  00005	ff 10		 call	 DWORD PTR [eax]
; File E:\Proyectos\JuegosOnlineproyectos\PB\pbblow\Piercing Blow Remake\i3Server\include\i3Base\i3ClassMeta.h

; 90   : 		return pMeta == this;

  00007	39 45 08	 cmp	 DWORD PTR _pMeta$[ebp], eax
  0000a	0f 94 c0	 sete	 al
; File E:\Proyectos\JuegosOnlineproyectos\PB\pbblow\Piercing Blow Remake\i3Server\include\i3Base\i3ElementBase.h

; 353  : 	}

  0000d	5d		 pop	 ebp
  0000e	c2 04 00	 ret	 4
?IsExactTypeOf@i3ElementBase@@QAE_NPAVi3ClassMeta@@@Z ENDP ; i3ElementBase::IsExactTypeOf
_TEXT	ENDS
; Function compile flags: /Ogtp
; File E:\Proyectos\JuegosOnlineproyectos\PB\pbblow\Piercing Blow Remake\i3Server\include\i3Base\i3ElementBase.h
;	COMDAT ?__GetMemoryPool@i3ElementBase@@QAEPAVi3MemoryPool@@XZ
_TEXT	SEGMENT
?__GetMemoryPool@i3ElementBase@@QAEPAVi3MemoryPool@@XZ PROC ; i3ElementBase::__GetMemoryPool, COMDAT
; _this$ = ecx

; 348  : 	i3MemoryPool *	__GetMemoryPool(void)							{ return m_pPool; }

  00000	8b 41 0c	 mov	 eax, DWORD PTR [ecx+12]
  00003	c3		 ret	 0
?__GetMemoryPool@i3ElementBase@@QAEPAVi3MemoryPool@@XZ ENDP ; i3ElementBase::__GetMemoryPool
_TEXT	ENDS
; Function compile flags: /Ogtp
; File E:\Proyectos\JuegosOnlineproyectos\PB\pbblow\Piercing Blow Remake\i3Server\include\i3Base\i3ElementBase.h
;	COMDAT ?__SetMemoryPool@i3ElementBase@@QAEXPAVi3MemoryPool@@@Z
_TEXT	SEGMENT
_pPool$ = 8						; size = 4
?__SetMemoryPool@i3ElementBase@@QAEXPAVi3MemoryPool@@@Z PROC ; i3ElementBase::__SetMemoryPool, COMDAT
; _this$ = ecx

; 347  : 	void			__SetMemoryPool( i3MemoryPool * pPool)			{ m_pPool = pPool; }

  00000	55		 push	 ebp
  00001	8b ec		 mov	 ebp, esp
  00003	8b 45 08	 mov	 eax, DWORD PTR _pPool$[ebp]
  00006	89 41 0c	 mov	 DWORD PTR [ecx+12], eax
  00009	5d		 pop	 ebp
  0000a	c2 04 00	 ret	 4
?__SetMemoryPool@i3ElementBase@@QAEXPAVi3MemoryPool@@@Z ENDP ; i3ElementBase::__SetMemoryPool
_TEXT	ENDS
; Function compile flags: /Ogtp
; File E:\Proyectos\JuegosOnlineproyectos\PB\pbblow\Piercing Blow Remake\i3Server\include\i3Base\i3ElementBase.h
;	COMDAT ?GetRefCount@i3ElementBase@@QAEHXZ
_TEXT	SEGMENT
?GetRefCount@i3ElementBase@@QAEHXZ PROC			; i3ElementBase::GetRefCount, COMDAT
; _this$ = ecx

; 344  : 		return m_RefCount;

  00000	8b 41 04	 mov	 eax, DWORD PTR [ecx+4]

; 345  : 	}

  00003	c3		 ret	 0
?GetRefCount@i3ElementBase@@QAEHXZ ENDP			; i3ElementBase::GetRefCount
_TEXT	ENDS
; Function compile flags: /Ogtp
; File E:\Proyectos\JuegosOnlineproyectos\PB\pbblow\Piercing Blow Remake\i3Server\include\i3Base\i3ElementBase.h
;	COMDAT ?GetClassMeta@i3ElementBase@@SAPAVi3ClassMeta@@XZ
_TEXT	SEGMENT
?GetClassMeta@i3ElementBase@@SAPAVi3ClassMeta@@XZ PROC	; i3ElementBase::GetClassMeta, COMDAT

; 314  : 	I3_ABSTRACT_CLASS_DEFINE( i3ElementBase);

  00000	a1 00 00 00 00	 mov	 eax, DWORD PTR ?s_pClassMetai3ElementBase@i3ElementBase@@2PAVi3ClassMeta@@A ; i3ElementBase::s_pClassMetai3ElementBase
  00005	c3		 ret	 0
?GetClassMeta@i3ElementBase@@SAPAVi3ClassMeta@@XZ ENDP	; i3ElementBase::GetClassMeta
_TEXT	ENDS
; Function compile flags: /Ogtp
;	COMDAT ??_Ei3ClassMeta@@UAEPAXI@Z
_TEXT	SEGMENT
__$EHRec$ = -12						; size = 12
___flags$ = 8						; size = 4
??_Ei3ClassMeta@@UAEPAXI@Z PROC				; i3ClassMeta::`vector deleting destructor', COMDAT
; _this$ = ecx
  00000	55		 push	 ebp
  00001	8b ec		 mov	 ebp, esp
  00003	6a ff		 push	 -1
  00005	68 00 00 00 00	 push	 __ehhandler$??_Ei3ClassMeta@@UAEPAXI@Z
  0000a	64 a1 00 00 00
	00		 mov	 eax, DWORD PTR fs:0
  00010	50		 push	 eax
  00011	53		 push	 ebx
  00012	56		 push	 esi
  00013	57		 push	 edi
  00014	a1 00 00 00 00	 mov	 eax, DWORD PTR ___security_cookie
  00019	33 c5		 xor	 eax, ebp
  0001b	50		 push	 eax
  0001c	8d 45 f4	 lea	 eax, DWORD PTR __$EHRec$[ebp]
  0001f	64 a3 00 00 00
	00		 mov	 DWORD PTR fs:0, eax
  00025	8b f1		 mov	 esi, ecx
  00027	8b 45 08	 mov	 eax, DWORD PTR ___flags$[ebp]
  0002a	8b f8		 mov	 edi, eax
  0002c	83 e7 01	 and	 edi, 1
  0002f	a8 02		 test	 al, 2
  00031	74 49		 je	 SHORT $LN2@vector
  00033	68 00 00 00 00	 push	 OFFSET ??1i3ClassMeta@@UAE@XZ ; i3ClassMeta::~i3ClassMeta
  00038	ff 76 fc	 push	 DWORD PTR [esi-4]
  0003b	8d 5e fc	 lea	 ebx, DWORD PTR [esi-4]
  0003e	6a 38		 push	 56			; 00000038H
  00040	56		 push	 esi
  00041	e8 00 00 00 00	 call	 ??_M@YGXPAXIIP6EX0@Z@Z
  00046	85 ff		 test	 edi, edi
  00048	74 1c		 je	 SHORT $LN3@vector
  0004a	8b 0b		 mov	 ecx, DWORD PTR [ebx]
  0004c	8d 14 cd 00 00
	00 00		 lea	 edx, DWORD PTR [ecx*8]
  00053	2b d1		 sub	 edx, ecx
  00055	8d 0c d5 04 00
	00 00		 lea	 ecx, DWORD PTR [edx*8+4]
  0005c	51		 push	 ecx
  0005d	53		 push	 ebx
  0005e	e8 00 00 00 00	 call	 ??_V@YAXPAXI@Z		; operator delete[]
  00063	83 c4 08	 add	 esp, 8
$LN3@vector:
  00066	8b c3		 mov	 eax, ebx
  00068	8b 4d f4	 mov	 ecx, DWORD PTR __$EHRec$[ebp]
  0006b	64 89 0d 00 00
	00 00		 mov	 DWORD PTR fs:0, ecx
  00072	59		 pop	 ecx
  00073	5f		 pop	 edi
  00074	5e		 pop	 esi
  00075	5b		 pop	 ebx
  00076	8b e5		 mov	 esp, ebp
  00078	5d		 pop	 ebp
  00079	c2 04 00	 ret	 4
$LN2@vector:
  0007c	e8 00 00 00 00	 call	 ??1i3ClassMeta@@UAE@XZ	; i3ClassMeta::~i3ClassMeta
  00081	85 ff		 test	 edi, edi
  00083	74 0b		 je	 SHORT $LN4@vector
  00085	6a 38		 push	 56			; 00000038H
  00087	56		 push	 esi
  00088	e8 00 00 00 00	 call	 ??3@YAXPAXI@Z		; operator delete
  0008d	83 c4 08	 add	 esp, 8
$LN4@vector:
  00090	8b c6		 mov	 eax, esi
  00092	8b 4d f4	 mov	 ecx, DWORD PTR __$EHRec$[ebp]
  00095	64 89 0d 00 00
	00 00		 mov	 DWORD PTR fs:0, ecx
  0009c	59		 pop	 ecx
  0009d	5f		 pop	 edi
  0009e	5e		 pop	 esi
  0009f	5b		 pop	 ebx
  000a0	8b e5		 mov	 esp, ebp
  000a2	5d		 pop	 ebp
  000a3	c2 04 00	 ret	 4
  000a6	cc		 int	 3
  000a7	cc		 int	 3
  000a8	cc		 int	 3
  000a9	cc		 int	 3
  000aa	cc		 int	 3
_TEXT	ENDS
;	COMDAT text$x
text$x	SEGMENT
__ehhandler$??_Ei3ClassMeta@@UAEPAXI@Z:
  00000	90		 npad	 1
  00001	90		 npad	 1
  00002	8b 54 24 08	 mov	 edx, DWORD PTR [esp+8]
  00006	8d 42 0c	 lea	 eax, DWORD PTR [edx+12]
  00009	8b 4a f0	 mov	 ecx, DWORD PTR [edx-16]
  0000c	33 c8		 xor	 ecx, eax
  0000e	e8 00 00 00 00	 call	 @__security_check_cookie@4
  00013	b8 00 00 00 00	 mov	 eax, OFFSET __ehfuncinfo$??_Ei3ClassMeta@@UAEPAXI@Z
  00018	e9 00 00 00 00	 jmp	 ___CxxFrameHandler3
text$x	ENDS
??_Ei3ClassMeta@@UAEPAXI@Z ENDP				; i3ClassMeta::`vector deleting destructor'
; Function compile flags: /Ogtp
;	COMDAT ??_Gi3ClassMeta@@UAEPAXI@Z
_TEXT	SEGMENT
___flags$ = 8						; size = 4
??_Gi3ClassMeta@@UAEPAXI@Z PROC				; i3ClassMeta::`scalar deleting destructor', COMDAT
; _this$ = ecx
  00000	55		 push	 ebp
  00001	8b ec		 mov	 ebp, esp
  00003	56		 push	 esi
  00004	8b f1		 mov	 esi, ecx
  00006	e8 00 00 00 00	 call	 ??1i3ClassMeta@@UAE@XZ	; i3ClassMeta::~i3ClassMeta
  0000b	f6 45 08 01	 test	 BYTE PTR ___flags$[ebp], 1
  0000f	74 0b		 je	 SHORT $LN5@scalar
  00011	6a 38		 push	 56			; 00000038H
  00013	56		 push	 esi
  00014	e8 00 00 00 00	 call	 ??3@YAXPAXI@Z		; operator delete
  00019	83 c4 08	 add	 esp, 8
$LN5@scalar:
  0001c	8b c6		 mov	 eax, esi
  0001e	5e		 pop	 esi
  0001f	5d		 pop	 ebp
  00020	c2 04 00	 ret	 4
??_Gi3ClassMeta@@UAEPAXI@Z ENDP				; i3ClassMeta::`scalar deleting destructor'
_TEXT	ENDS
; Function compile flags: /Ogtp
;	COMDAT ??4i3ClassMeta@@QAEAAV0@ABV0@@Z
_TEXT	SEGMENT
___that$ = 8						; size = 4
??4i3ClassMeta@@QAEAAV0@ABV0@@Z PROC			; i3ClassMeta::operator=, COMDAT
; _this$ = ecx
  00000	55		 push	 ebp
  00001	8b ec		 mov	 ebp, esp
  00003	8b 55 08	 mov	 edx, DWORD PTR ___that$[ebp]
  00006	8b 42 04	 mov	 eax, DWORD PTR [edx+4]
  00009	89 41 04	 mov	 DWORD PTR [ecx+4], eax
  0000c	8b 42 08	 mov	 eax, DWORD PTR [edx+8]
  0000f	89 41 08	 mov	 DWORD PTR [ecx+8], eax
  00012	8b 42 0c	 mov	 eax, DWORD PTR [edx+12]
  00015	89 41 0c	 mov	 DWORD PTR [ecx+12], eax
  00018	8b 42 10	 mov	 eax, DWORD PTR [edx+16]
  0001b	89 41 10	 mov	 DWORD PTR [ecx+16], eax
  0001e	8b 42 14	 mov	 eax, DWORD PTR [edx+20]
  00021	89 41 14	 mov	 DWORD PTR [ecx+20], eax
  00024	8b 42 18	 mov	 eax, DWORD PTR [edx+24]
  00027	89 41 18	 mov	 DWORD PTR [ecx+24], eax
  0002a	8b 42 1c	 mov	 eax, DWORD PTR [edx+28]
  0002d	89 41 1c	 mov	 DWORD PTR [ecx+28], eax
  00030	8b 42 20	 mov	 eax, DWORD PTR [edx+32]
  00033	89 41 20	 mov	 DWORD PTR [ecx+32], eax
  00036	8b 42 24	 mov	 eax, DWORD PTR [edx+36]
  00039	89 41 24	 mov	 DWORD PTR [ecx+36], eax
  0003c	8b 42 28	 mov	 eax, DWORD PTR [edx+40]
  0003f	89 41 28	 mov	 DWORD PTR [ecx+40], eax
  00042	8b 42 2c	 mov	 eax, DWORD PTR [edx+44]
  00045	89 41 2c	 mov	 DWORD PTR [ecx+44], eax
  00048	8b 42 30	 mov	 eax, DWORD PTR [edx+48]
  0004b	89 41 30	 mov	 DWORD PTR [ecx+48], eax
  0004e	8b 42 34	 mov	 eax, DWORD PTR [edx+52]
  00051	89 41 34	 mov	 DWORD PTR [ecx+52], eax
  00054	8b c1		 mov	 eax, ecx
  00056	5d		 pop	 ebp
  00057	c2 04 00	 ret	 4
??4i3ClassMeta@@QAEAAV0@ABV0@@Z ENDP			; i3ClassMeta::operator=
_TEXT	ENDS
; Function compile flags: /Ogtp
;	COMDAT ??0i3ClassMeta@@QAE@ABV0@@Z
_TEXT	SEGMENT
___that$ = 8						; size = 4
??0i3ClassMeta@@QAE@ABV0@@Z PROC			; i3ClassMeta::i3ClassMeta, COMDAT
; _this$ = ecx
  00000	55		 push	 ebp
  00001	8b ec		 mov	 ebp, esp
  00003	8b 55 08	 mov	 edx, DWORD PTR ___that$[ebp]
  00006	c7 01 00 00 00
	00		 mov	 DWORD PTR [ecx], OFFSET ??_7i3ClassMeta@@6B@
  0000c	8b 42 04	 mov	 eax, DWORD PTR [edx+4]
  0000f	89 41 04	 mov	 DWORD PTR [ecx+4], eax
  00012	8b 42 08	 mov	 eax, DWORD PTR [edx+8]
  00015	89 41 08	 mov	 DWORD PTR [ecx+8], eax
  00018	8b 42 0c	 mov	 eax, DWORD PTR [edx+12]
  0001b	89 41 0c	 mov	 DWORD PTR [ecx+12], eax
  0001e	8b 42 10	 mov	 eax, DWORD PTR [edx+16]
  00021	89 41 10	 mov	 DWORD PTR [ecx+16], eax
  00024	8b 42 14	 mov	 eax, DWORD PTR [edx+20]
  00027	89 41 14	 mov	 DWORD PTR [ecx+20], eax
  0002a	8b 42 18	 mov	 eax, DWORD PTR [edx+24]
  0002d	89 41 18	 mov	 DWORD PTR [ecx+24], eax
  00030	8b 42 1c	 mov	 eax, DWORD PTR [edx+28]
  00033	89 41 1c	 mov	 DWORD PTR [ecx+28], eax
  00036	8b 42 20	 mov	 eax, DWORD PTR [edx+32]
  00039	89 41 20	 mov	 DWORD PTR [ecx+32], eax
  0003c	8b 42 24	 mov	 eax, DWORD PTR [edx+36]
  0003f	89 41 24	 mov	 DWORD PTR [ecx+36], eax
  00042	8b 42 28	 mov	 eax, DWORD PTR [edx+40]
  00045	89 41 28	 mov	 DWORD PTR [ecx+40], eax
  00048	8b 42 2c	 mov	 eax, DWORD PTR [edx+44]
  0004b	89 41 2c	 mov	 DWORD PTR [ecx+44], eax
  0004e	8b 42 30	 mov	 eax, DWORD PTR [edx+48]
  00051	89 41 30	 mov	 DWORD PTR [ecx+48], eax
  00054	8b 42 34	 mov	 eax, DWORD PTR [edx+52]
  00057	89 41 34	 mov	 DWORD PTR [ecx+52], eax
  0005a	8b c1		 mov	 eax, ecx
  0005c	5d		 pop	 ebp
  0005d	c2 04 00	 ret	 4
??0i3ClassMeta@@QAE@ABV0@@Z ENDP			; i3ClassMeta::i3ClassMeta
_TEXT	ENDS
; Function compile flags: /Ogtp
; File E:\Proyectos\JuegosOnlineproyectos\PB\pbblow\Piercing Blow Remake\i3Server\include\i3Base\i3ClassMeta.h
;	COMDAT ?getHashCode@i3ClassMeta@@QAEIXZ
_TEXT	SEGMENT
?getHashCode@i3ClassMeta@@QAEIXZ PROC			; i3ClassMeta::getHashCode, COMDAT
; _this$ = ecx

; 112  : 	UINT32			getHashCode(void)						{ return m_HashCode; }

  00000	8b 41 18	 mov	 eax, DWORD PTR [ecx+24]
  00003	c3		 ret	 0
?getHashCode@i3ClassMeta@@QAEIXZ ENDP			; i3ClassMeta::getHashCode
_TEXT	ENDS
; Function compile flags: /Ogtp
; File E:\Proyectos\JuegosOnlineproyectos\PB\pbblow\Piercing Blow Remake\i3Server\include\i3Base\i3ClassMeta.h
;	COMDAT ?GetBaseClassMeta@i3ClassMeta@@QAEPAV1@XZ
_TEXT	SEGMENT
?GetBaseClassMeta@i3ClassMeta@@QAEPAV1@XZ PROC		; i3ClassMeta::GetBaseClassMeta, COMDAT
; _this$ = ecx

; 107  : 	i3ClassMeta *	GetBaseClassMeta(void)					{ return m_pBaseClass; }

  00000	8b 41 1c	 mov	 eax, DWORD PTR [ecx+28]
  00003	c3		 ret	 0
?GetBaseClassMeta@i3ClassMeta@@QAEPAV1@XZ ENDP		; i3ClassMeta::GetBaseClassMeta
_TEXT	ENDS
; Function compile flags: /Ogtp
; File E:\Proyectos\JuegosOnlineproyectos\PB\pbblow\Piercing Blow Remake\i3Server\include\i3Base\i3ClassMeta.h
;	COMDAT ?IsConcreteClass@i3ClassMeta@@QAEHXZ
_TEXT	SEGMENT
?IsConcreteClass@i3ClassMeta@@QAEHXZ PROC		; i3ClassMeta::IsConcreteClass, COMDAT
; _this$ = ecx

; 102  : 	BOOL			IsStyle( UINT32 style)					{ return (m_Style & style) == style; }

  00000	8b 41 14	 mov	 eax, DWORD PTR [ecx+20]
  00003	d1 e8		 shr	 eax, 1
  00005	83 e0 01	 and	 eax, 1

; 105  : 	BOOL			IsConcreteClass(void)					{ return IsStyle( I3_CLASSMETA_STYLE_CONCRETE); }

  00008	c3		 ret	 0
?IsConcreteClass@i3ClassMeta@@QAEHXZ ENDP		; i3ClassMeta::IsConcreteClass
_TEXT	ENDS
; Function compile flags: /Ogtp
; File E:\Proyectos\JuegosOnlineproyectos\PB\pbblow\Piercing Blow Remake\i3Server\include\i3Base\i3ClassMeta.h
;	COMDAT ?IsAbstractClass@i3ClassMeta@@QAEHXZ
_TEXT	SEGMENT
?IsAbstractClass@i3ClassMeta@@QAEHXZ PROC		; i3ClassMeta::IsAbstractClass, COMDAT
; _this$ = ecx

; 102  : 	BOOL			IsStyle( UINT32 style)					{ return (m_Style & style) == style; }

  00000	8b 41 14	 mov	 eax, DWORD PTR [ecx+20]
  00003	83 e0 01	 and	 eax, 1

; 104  : 	BOOL			IsAbstractClass(void)					{ return IsStyle( I3_CLASSMETA_STYLE_ABSTRACT); }

  00006	c3		 ret	 0
?IsAbstractClass@i3ClassMeta@@QAEHXZ ENDP		; i3ClassMeta::IsAbstractClass
_TEXT	ENDS
; Function compile flags: /Ogtp
; File E:\Proyectos\JuegosOnlineproyectos\PB\pbblow\Piercing Blow Remake\i3Server\include\i3Base\i3ClassMeta.h
;	COMDAT ?IsStyle@i3ClassMeta@@QAEHI@Z
_TEXT	SEGMENT
_style$ = 8						; size = 4
?IsStyle@i3ClassMeta@@QAEHI@Z PROC			; i3ClassMeta::IsStyle, COMDAT
; _this$ = ecx

; 102  : 	BOOL			IsStyle( UINT32 style)					{ return (m_Style & style) == style; }

  00000	55		 push	 ebp
  00001	8b ec		 mov	 ebp, esp
  00003	8b 51 14	 mov	 edx, DWORD PTR [ecx+20]
  00006	33 c0		 xor	 eax, eax
  00008	23 55 08	 and	 edx, DWORD PTR _style$[ebp]
  0000b	3b 55 08	 cmp	 edx, DWORD PTR _style$[ebp]
  0000e	0f 94 c0	 sete	 al
  00011	5d		 pop	 ebp
  00012	c2 04 00	 ret	 4
?IsStyle@i3ClassMeta@@QAEHI@Z ENDP			; i3ClassMeta::IsStyle
_TEXT	ENDS
; Function compile flags: /Ogtp
; File E:\Proyectos\JuegosOnlineproyectos\PB\pbblow\Piercing Blow Remake\i3Server\include\i3Base\i3ClassMeta.h
;	COMDAT ?RemoveStyle@i3ClassMeta@@QAEXI@Z
_TEXT	SEGMENT
_style$ = 8						; size = 4
?RemoveStyle@i3ClassMeta@@QAEXI@Z PROC			; i3ClassMeta::RemoveStyle, COMDAT
; _this$ = ecx

; 101  : 	void			RemoveStyle( UINT32 style)				{ m_Style &= ~style; }

  00000	55		 push	 ebp
  00001	8b ec		 mov	 ebp, esp
  00003	8b 45 08	 mov	 eax, DWORD PTR _style$[ebp]
  00006	f7 d0		 not	 eax
  00008	21 41 14	 and	 DWORD PTR [ecx+20], eax
  0000b	5d		 pop	 ebp
  0000c	c2 04 00	 ret	 4
?RemoveStyle@i3ClassMeta@@QAEXI@Z ENDP			; i3ClassMeta::RemoveStyle
_TEXT	ENDS
; Function compile flags: /Ogtp
; File E:\Proyectos\JuegosOnlineproyectos\PB\pbblow\Piercing Blow Remake\i3Server\include\i3Base\i3ClassMeta.h
;	COMDAT ?AddStyle@i3ClassMeta@@QAEXI@Z
_TEXT	SEGMENT
_style$ = 8						; size = 4
?AddStyle@i3ClassMeta@@QAEXI@Z PROC			; i3ClassMeta::AddStyle, COMDAT
; _this$ = ecx

; 100  : 	void			AddStyle( UINT32 style)					{ m_Style |= style; }

  00000	55		 push	 ebp
  00001	8b ec		 mov	 ebp, esp
  00003	8b 45 08	 mov	 eax, DWORD PTR _style$[ebp]
  00006	09 41 14	 or	 DWORD PTR [ecx+20], eax
  00009	5d		 pop	 ebp
  0000a	c2 04 00	 ret	 4
?AddStyle@i3ClassMeta@@QAEXI@Z ENDP			; i3ClassMeta::AddStyle
_TEXT	ENDS
; Function compile flags: /Ogtp
; File E:\Proyectos\JuegosOnlineproyectos\PB\pbblow\Piercing Blow Remake\i3Server\include\i3Base\i3ClassMeta.h
;	COMDAT ?GetStyle@i3ClassMeta@@QAEIXZ
_TEXT	SEGMENT
?GetStyle@i3ClassMeta@@QAEIXZ PROC			; i3ClassMeta::GetStyle, COMDAT
; _this$ = ecx

; 99   : 	UINT32			GetStyle(void)							{ return m_Style; }

  00000	8b 41 14	 mov	 eax, DWORD PTR [ecx+20]
  00003	c3		 ret	 0
?GetStyle@i3ClassMeta@@QAEIXZ ENDP			; i3ClassMeta::GetStyle
_TEXT	ENDS
; Function compile flags: /Ogtp
; File E:\Proyectos\JuegosOnlineproyectos\PB\pbblow\Piercing Blow Remake\i3Server\include\i3Base\i3ClassMeta.h
;	COMDAT ?SetStyle@i3ClassMeta@@QAEXI@Z
_TEXT	SEGMENT
_style$ = 8						; size = 4
?SetStyle@i3ClassMeta@@QAEXI@Z PROC			; i3ClassMeta::SetStyle, COMDAT
; _this$ = ecx

; 98   : 	void			SetStyle( UINT32 style)					{ m_Style = style; }

  00000	55		 push	 ebp
  00001	8b ec		 mov	 ebp, esp
  00003	8b 45 08	 mov	 eax, DWORD PTR _style$[ebp]
  00006	89 41 14	 mov	 DWORD PTR [ecx+20], eax
  00009	5d		 pop	 ebp
  0000a	c2 04 00	 ret	 4
?SetStyle@i3ClassMeta@@QAEXI@Z ENDP			; i3ClassMeta::SetStyle
_TEXT	ENDS
; Function compile flags: /Ogtp
; File E:\Proyectos\JuegosOnlineproyectos\PB\pbblow\Piercing Blow Remake\i3Server\include\i3Base\i3ClassMeta.h
;	COMDAT ?IsExactTypeOf@i3ClassMeta@@QAE_NPAV1@@Z
_TEXT	SEGMENT
_pMeta$ = 8						; size = 4
?IsExactTypeOf@i3ClassMeta@@QAE_NPAV1@@Z PROC		; i3ClassMeta::IsExactTypeOf, COMDAT
; _this$ = ecx

; 89   : 	{

  00000	55		 push	 ebp
  00001	8b ec		 mov	 ebp, esp

; 90   : 		return pMeta == this;

  00003	39 4d 08	 cmp	 DWORD PTR _pMeta$[ebp], ecx
  00006	0f 94 c0	 sete	 al

; 91   : 	}

  00009	5d		 pop	 ebp
  0000a	c2 04 00	 ret	 4
?IsExactTypeOf@i3ClassMeta@@QAE_NPAV1@@Z ENDP		; i3ClassMeta::IsExactTypeOf
_TEXT	ENDS
; Function compile flags: /Ogtp
; File E:\Proyectos\JuegosOnlineproyectos\PB\pbblow\Piercing Blow Remake\i3Server\include\i3Base\i3ClassMeta.h
;	COMDAT ?GetClassNameA@i3ClassMeta@@QAEPADXZ
_TEXT	SEGMENT
?GetClassNameA@i3ClassMeta@@QAEPADXZ PROC		; i3ClassMeta::GetClassNameA, COMDAT
; _this$ = ecx

; 83   : 		return m_pszClassName;

  00000	8b 41 0c	 mov	 eax, DWORD PTR [ecx+12]

; 84   : 	}

  00003	c3		 ret	 0
?GetClassNameA@i3ClassMeta@@QAEPADXZ ENDP		; i3ClassMeta::GetClassNameA
_TEXT	ENDS
; Function compile flags: /Ogtp
; File E:\Proyectos\JuegosOnlineproyectos\PB\pbblow\Piercing Blow Remake\i3Server\include\i3Base\i3ClassMeta.h
;	COMDAT ?GetClassSize@i3ClassMeta@@QAEIXZ
_TEXT	SEGMENT
?GetClassSize@i3ClassMeta@@QAEIXZ PROC			; i3ClassMeta::GetClassSize, COMDAT
; _this$ = ecx

; 78   : 		return m_ClassSize;

  00000	8b 41 08	 mov	 eax, DWORD PTR [ecx+8]

; 79   : 	}

  00003	c3		 ret	 0
?GetClassSize@i3ClassMeta@@QAEIXZ ENDP			; i3ClassMeta::GetClassSize
_TEXT	ENDS
; Function compile flags: /Ogtp
; File E:\Proyectos\JuegosOnlineproyectos\PB\pbblow\Piercing Blow Remake\i3Server\include\i3Base\i3ClassMeta.h
;	COMDAT ?SetMemoryPool@i3ClassMeta@@QAEXPAVi3MemoryPool@@@Z
_TEXT	SEGMENT
_pPool$ = 8						; size = 4
?SetMemoryPool@i3ClassMeta@@QAEXPAVi3MemoryPool@@@Z PROC ; i3ClassMeta::SetMemoryPool, COMDAT
; _this$ = ecx

; 66   : 	void			SetMemoryPool( i3MemoryPool * pPool)		{ m_pPool = pPool; }

  00000	55		 push	 ebp
  00001	8b ec		 mov	 ebp, esp
  00003	8b 45 08	 mov	 eax, DWORD PTR _pPool$[ebp]
  00006	89 41 34	 mov	 DWORD PTR [ecx+52], eax
  00009	5d		 pop	 ebp
  0000a	c2 04 00	 ret	 4
?SetMemoryPool@i3ClassMeta@@QAEXPAVi3MemoryPool@@@Z ENDP ; i3ClassMeta::SetMemoryPool
_TEXT	ENDS
; Function compile flags: /Ogtp
; File E:\Proyectos\JuegosOnlineproyectos\PB\pbblow\Piercing Blow Remake\i3Server\include\i3Base\i3ClassMeta.h
;	COMDAT ?GetMemoryPool@i3ClassMeta@@QAEPAVi3MemoryPool@@XZ
_TEXT	SEGMENT
?GetMemoryPool@i3ClassMeta@@QAEPAVi3MemoryPool@@XZ PROC	; i3ClassMeta::GetMemoryPool, COMDAT
; _this$ = ecx

; 65   : 	i3MemoryPool *	GetMemoryPool(void)							{ return m_pPool; }

  00000	8b 41 34	 mov	 eax, DWORD PTR [ecx+52]
  00003	c3		 ret	 0
?GetMemoryPool@i3ClassMeta@@QAEPAVi3MemoryPool@@XZ ENDP	; i3ClassMeta::GetMemoryPool
_TEXT	ENDS
; Function compile flags: /Ogtp
; File E:\Proyectos\JuegosOnlineproyectos\PB\pbblow\Piercing Blow Remake\i3Server\src\i3Base\i3Memory.cpp
;	COMDAT ?i3MemoryInit@@YAXIPAD@Z
_TEXT	SEGMENT
_nMB$ = 8						; size = 4
_pMemoryName$ = 12					; size = 4
?i3MemoryInit@@YAXIPAD@Z PROC				; i3MemoryInit, COMDAT

; 69   : {

  00000	55		 push	 ebp
  00001	8b ec		 mov	 ebp, esp

; 70   : 	if( s_bMemoryInit == false)

  00003	80 3d 00 00 00
	00 00		 cmp	 BYTE PTR ?s_bMemoryInit@@3_NA, 0
  0000a	8b 4d 08	 mov	 ecx, DWORD PTR _nMB$[ebp]
  0000d	75 26		 jne	 SHORT $LN2@i3MemoryIn

; 71   : 	{
; 72   : 		if( nMB == 0 )
; 73   : 		{
; 74   : 			i3mem::Create(0, FALSE , pMemoryName);
; 75   : 		}else
; 76   : 		{
; 77   : 			i3mem::Create(1024 * 1024 * nMB,  TRUE, pMemoryName);
; 78   : 		}
; 79   : 
; 80   : 		s_bMemoryInit = true;

  0000f	ff 75 0c	 push	 DWORD PTR _pMemoryName$[ebp]
  00012	33 c0		 xor	 eax, eax
  00014	85 c9		 test	 ecx, ecx
  00016	0f 95 c0	 setne	 al
  00019	50		 push	 eax
  0001a	8b c1		 mov	 eax, ecx
  0001c	c1 e0 14	 shl	 eax, 20			; 00000014H
  0001f	f7 d9		 neg	 ecx
  00021	1b c9		 sbb	 ecx, ecx
  00023	23 c8		 and	 ecx, eax
  00025	51		 push	 ecx
  00026	e8 00 00 00 00	 call	 ?Create@i3mem@@YAXHHPAD@Z ; i3mem::Create
  0002b	83 c4 0c	 add	 esp, 12			; 0000000cH
  0002e	c6 05 00 00 00
	00 01		 mov	 BYTE PTR ?s_bMemoryInit@@3_NA, 1
$LN2@i3MemoryIn:

; 81   : 	}
; 82   : }

  00035	5d		 pop	 ebp
  00036	c3		 ret	 0
?i3MemoryInit@@YAXIPAD@Z ENDP				; i3MemoryInit
_TEXT	ENDS
; Function compile flags: /Ogtp
; File E:\Proyectos\JuegosOnlineproyectos\PB\pbblow\Piercing Blow Remake\i3Server\src\i3Base\i3Memory.cpp
;	COMDAT ?SetDumpEnable@i3mem@@YAXH@Z
_TEXT	SEGMENT
_bEnable$ = 8						; size = 4
?SetDumpEnable@i3mem@@YAXH@Z PROC			; i3mem::SetDumpEnable, COMDAT

; 164  : #if defined(I3_MEM_NET_DUMP)
; 165  : 	s_bNetDump	= bEnable; 	
; 166  : #endif
; 167  : }

  00000	c2 00 00	 ret	 0
?SetDumpEnable@i3mem@@YAXH@Z ENDP			; i3mem::SetDumpEnable
_TEXT	ENDS
; Function compile flags: /Ogtp
; File E:\Proyectos\JuegosOnlineproyectos\PB\pbblow\Piercing Blow Remake\i3Server\src\i3Base\i3Memory.cpp
;	COMDAT ?CompactTool@i3mem@@YAXXZ
_TEXT	SEGMENT
?CompactTool@i3mem@@YAXXZ PROC				; i3mem::CompactTool, COMDAT

; 1062 : 	s_MemoryCs.Enter(); 

  00000	b9 00 00 00 00	 mov	 ecx, OFFSET ?s_MemoryCs@@3Vi3Mutex2@@A
  00005	e8 00 00 00 00	 call	 ?Enter@i3Mutex2@@QAEXXZ	; i3Mutex2::Enter

; 1063 : 
; 1064 : 	#if defined( I3_WINDOWS) && defined( USE_WIN32_HEAP)
; 1065 : 		::HeapCompact( s_hHeap, 0);
; 1066 : 	#endif
; 1067 : 
; 1068 : 	s_MemoryCs.Leave(); 

  0000a	b9 00 00 00 00	 mov	 ecx, OFFSET ?s_MemoryCs@@3Vi3Mutex2@@A
  0000f	e9 00 00 00 00	 jmp	 ?Leave@i3Mutex2@@QAEXXZ	; i3Mutex2::Leave
?CompactTool@i3mem@@YAXXZ ENDP				; i3mem::CompactTool
_TEXT	ENDS
; Function compile flags: /Ogtp
; File E:\Proyectos\JuegosOnlineproyectos\PB\pbblow\Piercing Blow Remake\i3Server\src\i3Base\i3Memory.cpp
;	COMDAT ?CompactGame@i3mem@@YAXXZ
_TEXT	SEGMENT
tv421 = -20						; size = 4
_pNowBlock$1$ = -16					; size = 4
tv423 = -16						; size = 4
_pBlock$3$ = -12					; size = 4
_Count$1$ = -8						; size = 4
_i$1$ = -8						; size = 4
?s_pFreeBlockHead@@3PAUI3MEMBLOCK@@A$1 = -4		; size = 4
?CompactGame@i3mem@@YAXXZ PROC				; i3mem::CompactGame, COMDAT

; 555  : {

  00000	55		 push	 ebp
  00001	8b ec		 mov	 ebp, esp
  00003	83 ec 14	 sub	 esp, 20			; 00000014H

; 556  : 	I3MEMBLOCK * pBlock;
; 557  : 	INT32		i; 
; 558  : 
; 559  : 	//ÇĎłŞ¸¸ ŔÖ±â ¶§ą®żˇ ÇŇ ÇĘżäľř´Ů. 
; 560  : 	if(s_pFreeBlockHead->m_Next == NULL)return;

  00006	8b 15 00 00 00
	00		 mov	 edx, DWORD PTR ?s_pFreeBlockHead@@3PAUI3MEMBLOCK@@A
  0000c	89 55 fc	 mov	 DWORD PTR ?s_pFreeBlockHead@@3PAUI3MEMBLOCK@@A$1[ebp], edx
  0000f	8b 4a 08	 mov	 ecx, DWORD PTR [edx+8]
  00012	89 4d f0	 mov	 DWORD PTR tv423[ebp], ecx
  00015	85 c9		 test	 ecx, ecx
  00017	0f 84 05 01 00
	00		 je	 $LN39@CompactGam

; 561  : 
; 562  : 	//Sort by Pointer 	
; 563  : 	{
; 564  : 		I3MEMBLOCK	* pStartBlock;
; 565  : 		I3MEMBLOCK	* pSelBlock; 
; 566  : 		I3MEMBLOCK	* pSelPreBlock; 
; 567  : 		I3MEMBLOCK	* pPreBlock;
; 568  : 		INT32		  Count; 
; 569  : 
; 570  : 		pSelPreBlock	= NULL; 
; 571  : 		pPreBlock		= NULL; 
; 572  : 		pSelBlock		= s_pFreeBlockHead;

  0001d	53		 push	 ebx
  0001e	56		 push	 esi
  0001f	8b c2		 mov	 eax, edx
  00021	33 db		 xor	 ebx, ebx
  00023	57		 push	 edi
  00024	33 ff		 xor	 edi, edi
  00026	89 45 f4	 mov	 DWORD PTR _pBlock$3$[ebp], eax

; 573  : 		pBlock			= s_pFreeBlockHead;
; 574  : 		Count			= 0; 

  00029	33 f6		 xor	 esi, esi

; 575  : 
; 576  : 		//Find Start 
; 577  : 		while(pBlock != NULL)

  0002b	85 c0		 test	 eax, eax
  0002d	74 2e		 je	 SHORT $LN3@CompactGam
  0002f	8b c8		 mov	 ecx, eax
  00031	33 d2		 xor	 edx, edx
$LL2@CompactGam:

; 578  : 		{
; 579  : 			if( pSelBlock > pBlock )
; 580  : 			{
; 581  : 				pSelPreBlock = pPreBlock; 
; 582  : 				pSelBlock	 = pBlock;				
; 583  : 			}
; 584  : 			pPreBlock	= pBlock; 

  00033	3b c1		 cmp	 eax, ecx
  00035	8b f1		 mov	 esi, ecx
  00037	0f 46 fb	 cmovbe	 edi, ebx
  0003a	0f 46 f0	 cmovbe	 esi, eax
  0003d	8b df		 mov	 ebx, edi

; 585  : 			pBlock		= pBlock->m_Next;
; 586  : 			Count++;

  0003f	42		 inc	 edx
  00040	8b f9		 mov	 edi, ecx
  00042	8b c6		 mov	 eax, esi
  00044	8b 49 08	 mov	 ecx, DWORD PTR [ecx+8]
  00047	85 c9		 test	 ecx, ecx
  00049	75 e8		 jne	 SHORT $LL2@CompactGam
  0004b	8b 4d f0	 mov	 ecx, DWORD PTR tv423[ebp]
  0004e	89 55 f8	 mov	 DWORD PTR _Count$1$[ebp], edx
  00051	8b 15 00 00 00
	00		 mov	 edx, DWORD PTR ?s_pFreeBlockHead@@3PAUI3MEMBLOCK@@A
  00057	8b 75 f8	 mov	 esi, DWORD PTR _Count$1$[ebp]
  0005a	89 45 f4	 mov	 DWORD PTR _pBlock$3$[ebp], eax
$LN3@CompactGam:

; 587  : 		}
; 588  : 
; 589  : 		pStartBlock = pSelBlock;
; 590  : 		if( s_pFreeBlockHead == pStartBlock )

  0005d	3b d0		 cmp	 edx, eax
  0005f	75 05		 jne	 SHORT $LN13@CompactGam

; 591  : 		{
; 592  : 			s_pFreeBlockHead = s_pFreeBlockHead->m_Next;

  00061	89 4d fc	 mov	 DWORD PTR ?s_pFreeBlockHead@@3PAUI3MEMBLOCK@@A$1[ebp], ecx

; 593  : 		}

  00064	eb 0c		 jmp	 SHORT $LN14@CompactGam
$LN13@CompactGam:

; 594  : 		else 
; 595  : 		{
; 596  : 			I3ASSERT( pSelPreBlock != NULL);
; 597  : 
; 598  : 			pSelPreBlock->m_Next = pStartBlock->m_Next;

  00066	8b 48 08	 mov	 ecx, DWORD PTR [eax+8]
  00069	89 4b 08	 mov	 DWORD PTR [ebx+8], ecx
  0006c	8b 0d 00 00 00
	00		 mov	 ecx, DWORD PTR ?s_pFreeBlockHead@@3PAUI3MEMBLOCK@@A
$LN14@CompactGam:

; 599  : 		}
; 600  : 		pStartBlock->m_Next = NULL; 
; 601  : 	
; 602  : 		//Sort Free List 
; 603  : 		I3MEMBLOCK	* pNowBlock = pStartBlock;
; 604  : 		for( i = 0; i < (Count - 1); i++)

  00072	8d 56 ff	 lea	 edx, DWORD PTR [esi-1]
  00075	c7 40 08 00 00
	00 00		 mov	 DWORD PTR [eax+8], 0
  0007c	89 45 f0	 mov	 DWORD PTR _pNowBlock$1$[ebp], eax
  0007f	89 55 ec	 mov	 DWORD PTR tv421[ebp], edx
  00082	c7 45 f8 00 00
	00 00		 mov	 DWORD PTR _i$1$[ebp], 0
  00089	85 d2		 test	 edx, edx
  0008b	7e 5d		 jle	 SHORT $LN5@CompactGam
  0008d	8d 49 00	 npad	 3
$LL6@CompactGam:

; 605  : 		{
; 606  : 			pSelPreBlock = NULL;
; 607  : 			pPreBlock	 = NULL;			
; 608  : 			pSelBlock	 = s_pFreeBlockHead;

  00090	8b d1		 mov	 edx, ecx
  00092	33 db		 xor	 ebx, ebx
  00094	33 ff		 xor	 edi, edi

; 609  : 			pBlock		 = s_pFreeBlockHead;
; 610  : 
; 611  : 			while(pBlock !=NULL)

  00096	85 d2		 test	 edx, edx
  00098	74 20		 je	 SHORT $LN8@CompactGam
  0009a	8d 9b 00 00 00
	00		 npad	 6
$LL7@CompactGam:

; 612  : 			{
; 613  : 				if( pSelBlock > pBlock )
; 614  : 				{
; 615  : 					pSelPreBlock = pPreBlock; 
; 616  : 					pSelBlock	 = pBlock;
; 617  : 				}
; 618  : 				pPreBlock = pBlock;

  000a0	3b d1		 cmp	 edx, ecx
  000a2	8b f1		 mov	 esi, ecx
  000a4	0f 46 fb	 cmovbe	 edi, ebx
  000a7	0f 46 f2	 cmovbe	 esi, edx
  000aa	8b df		 mov	 ebx, edi

; 619  : 				pBlock	  = pBlock->m_Next; 

  000ac	8b d6		 mov	 edx, esi
  000ae	8b f9		 mov	 edi, ecx
  000b0	8b 49 08	 mov	 ecx, DWORD PTR [ecx+8]
  000b3	85 c9		 test	 ecx, ecx
  000b5	75 e9		 jne	 SHORT $LL7@CompactGam
  000b7	8b 4d fc	 mov	 ecx, DWORD PTR ?s_pFreeBlockHead@@3PAUI3MEMBLOCK@@A$1[ebp]
$LN8@CompactGam:

; 620  : 			}
; 621  : 
; 622  : 			if( s_pFreeBlockHead == pSelBlock )

  000ba	3b ca		 cmp	 ecx, edx
  000bc	75 08		 jne	 SHORT $LN16@CompactGam

; 623  : 			{
; 624  : 				s_pFreeBlockHead = s_pFreeBlockHead->m_Next;

  000be	8b 49 08	 mov	 ecx, DWORD PTR [ecx+8]
  000c1	89 4d fc	 mov	 DWORD PTR ?s_pFreeBlockHead@@3PAUI3MEMBLOCK@@A$1[ebp], ecx

; 625  : 			}

  000c4	eb 09		 jmp	 SHORT $LN17@CompactGam
$LN16@CompactGam:

; 626  : 			else 
; 627  : 			{
; 628  : 				I3ASSERT( pSelPreBlock != NULL);
; 629  : 				pSelPreBlock->m_Next = pSelBlock->m_Next;

  000c6	8b 4a 08	 mov	 ecx, DWORD PTR [edx+8]
  000c9	89 4b 08	 mov	 DWORD PTR [ebx+8], ecx
  000cc	8b 4d fc	 mov	 ecx, DWORD PTR ?s_pFreeBlockHead@@3PAUI3MEMBLOCK@@A$1[ebp]
$LN17@CompactGam:

; 599  : 		}
; 600  : 		pStartBlock->m_Next = NULL; 
; 601  : 	
; 602  : 		//Sort Free List 
; 603  : 		I3MEMBLOCK	* pNowBlock = pStartBlock;
; 604  : 		for( i = 0; i < (Count - 1); i++)

  000cf	8b 75 f8	 mov	 esi, DWORD PTR _i$1$[ebp]
  000d2	46		 inc	 esi

; 630  : 			}
; 631  : 
; 632  : 			pNowBlock->m_Next = pSelBlock; 

  000d3	89 50 08	 mov	 DWORD PTR [eax+8], edx

; 633  : 			pNowBlock = pSelBlock; 

  000d6	8b c2		 mov	 eax, edx

; 634  : 			pNowBlock->m_Next = NULL;

  000d8	c7 42 08 00 00
	00 00		 mov	 DWORD PTR [edx+8], 0
  000df	89 75 f8	 mov	 DWORD PTR _i$1$[ebp], esi
  000e2	3b 75 ec	 cmp	 esi, DWORD PTR tv421[ebp]
  000e5	7c a9		 jl	 SHORT $LL6@CompactGam
  000e7	8b 45 f4	 mov	 eax, DWORD PTR _pBlock$3$[ebp]
$LN5@CompactGam:

; 635  : 		}
; 636  : 		s_pFreeBlockHead = pStartBlock; 

  000ea	a3 00 00 00 00	 mov	 DWORD PTR ?s_pFreeBlockHead@@3PAUI3MEMBLOCK@@A, eax

; 637  : 	}
; 638  : 	
; 639  : 	//Gather Free Block 
; 640  : 	{
; 641  : 		I3MEMBLOCK * pNextBlock; 
; 642  : 		pBlock = s_pFreeBlockHead;		
; 643  : 		while(pBlock != NULL)

  000ef	85 c0		 test	 eax, eax
  000f1	74 2c		 je	 SHORT $LN52@CompactGam
$LL9@CompactGam:

; 644  : 		{
; 645  : 			if(pBlock->m_Next != NULL)

  000f3	8b 50 08	 mov	 edx, DWORD PTR [eax+8]
  000f6	85 d2		 test	 edx, edx
  000f8	74 25		 je	 SHORT $LN52@CompactGam

; 646  : 			{
; 647  : 				pNextBlock = pBlock->m_Next; 
; 648  : 				if( ((LPI3MEM)pBlock + pBlock->m_Size + sizeof(I3MEMBLOCK) + INFO_SIZE) == (LPI3MEM)pNextBlock )

  000fa	8b 70 0c	 mov	 esi, DWORD PTR [eax+12]
  000fd	8d 4e 18	 lea	 ecx, DWORD PTR [esi+24]
  00100	03 c8		 add	 ecx, eax
  00102	3b ca		 cmp	 ecx, edx
  00104	75 13		 jne	 SHORT $LN20@CompactGam

; 649  : 				{
; 650  : 					pBlock->m_Size = pBlock->m_Size + pNextBlock->m_Size + sizeof(I3MEMBLOCK) + INFO_SIZE; 

  00106	8b 4a 0c	 mov	 ecx, DWORD PTR [edx+12]
  00109	83 c1 18	 add	 ecx, 24			; 00000018H
  0010c	03 ce		 add	 ecx, esi
  0010e	89 48 0c	 mov	 DWORD PTR [eax+12], ecx

; 651  : 					pBlock->m_Next = pNextBlock->m_Next; 

  00111	8b 4a 08	 mov	 ecx, DWORD PTR [edx+8]
  00114	89 48 08	 mov	 DWORD PTR [eax+8], ecx

; 652  : 				}else

  00117	eb 02		 jmp	 SHORT $LN21@CompactGam
$LN20@CompactGam:

; 653  : 				{
; 654  : 					pBlock = pBlock->m_Next;

  00119	8b c2		 mov	 eax, edx
$LN21@CompactGam:

; 637  : 	}
; 638  : 	
; 639  : 	//Gather Free Block 
; 640  : 	{
; 641  : 		I3MEMBLOCK * pNextBlock; 
; 642  : 		pBlock = s_pFreeBlockHead;		
; 643  : 		while(pBlock != NULL)

  0011b	85 c0		 test	 eax, eax
  0011d	75 d4		 jne	 SHORT $LL9@CompactGam
$LN52@CompactGam:
  0011f	5f		 pop	 edi
  00120	5e		 pop	 esi
  00121	5b		 pop	 ebx
$LN39@CompactGam:

; 655  : 				}
; 656  : 
; 657  : 			}else
; 658  : 			{
; 659  : 				pBlock = pBlock->m_Next;
; 660  : 			}
; 661  : 		}		
; 662  : 	}
; 663  : 
; 664  : 	return; 
; 665  : }

  00122	8b e5		 mov	 esp, ebp
  00124	5d		 pop	 ebp
  00125	c3		 ret	 0
?CompactGame@i3mem@@YAXXZ ENDP				; i3mem::CompactGame
_TEXT	ENDS
; Function compile flags: /Ogtp
; File E:\Proyectos\JuegosOnlineproyectos\PB\pbblow\Piercing Blow Remake\i3Server\src\i3Base\i3Memory.cpp
;	COMDAT ?Enum@i3mem@@YAXP6A_NPAUI3MEMBLOCK@@PAX@Z1@Z
_TEXT	SEGMENT
_pUserProc$ = 8						; size = 4
_pUserData$ = 12					; size = 4
?Enum@i3mem@@YAXP6A_NPAUI3MEMBLOCK@@PAX@Z1@Z PROC	; i3mem::Enum, COMDAT

; 834  : {

  00000	55		 push	 ebp
  00001	8b ec		 mov	 ebp, esp
  00003	56		 push	 esi

; 835  : 	s_MemoryCs.Enter();

  00004	b9 00 00 00 00	 mov	 ecx, OFFSET ?s_MemoryCs@@3Vi3Mutex2@@A
  00009	e8 00 00 00 00	 call	 ?Enter@i3Mutex2@@QAEXXZ	; i3Mutex2::Enter

; 836  : 
; 837  : 	I3MEMBLOCK	* pBlock = s_pAllocBlockHead;

  0000e	8b 35 00 00 00
	00		 mov	 esi, DWORD PTR ?s_pAllocBlockHead@@3PAUI3MEMBLOCK@@A

; 838  : 
; 839  : 	while( pBlock != NULL)

  00014	85 f6		 test	 esi, esi
  00016	74 1c		 je	 SHORT $LN11@Enum
  00018	53		 push	 ebx
  00019	8b 5d 08	 mov	 ebx, DWORD PTR _pUserProc$[ebp]
  0001c	57		 push	 edi
  0001d	8b 7d 0c	 mov	 edi, DWORD PTR _pUserData$[ebp]
$LL2@Enum:

; 840  : 	{
; 841  : 		if( pUserProc( pBlock, pUserData) == false)

  00020	57		 push	 edi
  00021	56		 push	 esi
  00022	ff d3		 call	 ebx
  00024	83 c4 08	 add	 esp, 8
  00027	84 c0		 test	 al, al
  00029	74 07		 je	 SHORT $LN14@Enum

; 842  : 			break;
; 843  : 
; 844  : 		pBlock = pBlock->m_Prev;

  0002b	8b 76 04	 mov	 esi, DWORD PTR [esi+4]
  0002e	85 f6		 test	 esi, esi
  00030	75 ee		 jne	 SHORT $LL2@Enum
$LN14@Enum:
  00032	5f		 pop	 edi
  00033	5b		 pop	 ebx
$LN11@Enum:

; 845  : 	}
; 846  : 
; 847  : 	s_MemoryCs.Leave();

  00034	b9 00 00 00 00	 mov	 ecx, OFFSET ?s_MemoryCs@@3Vi3Mutex2@@A
  00039	5e		 pop	 esi

; 848  : }

  0003a	5d		 pop	 ebp

; 845  : 	}
; 846  : 
; 847  : 	s_MemoryCs.Leave();

  0003b	e9 00 00 00 00	 jmp	 ?Leave@i3Mutex2@@QAEXXZ	; i3Mutex2::Leave
?Enum@i3mem@@YAXP6A_NPAUI3MEMBLOCK@@PAX@Z1@Z ENDP	; i3mem::Enum
_TEXT	ENDS
; Function compile flags: /Ogtp
; File E:\Proyectos\JuegosOnlineproyectos\PB\pbblow\Piercing Blow Remake\i3Server\src\i3Base\i3Memory.cpp
;	COMDAT ?Dump@i3mem@@YAXH@Z
_TEXT	SEGMENT
_DumpFile$2 = -584					; size = 312
_conv$3 = -272						; size = 256
_conv$4 = -272						; size = 256
_conv$5 = -144						; size = 128
__$ArrayPad$ = -16					; size = 4
__$EHRec$ = -12						; size = 12
_Type$ = 8						; size = 4
?Dump@i3mem@@YAXH@Z PROC				; i3mem::Dump, COMDAT

; 729  : {

  00000	55		 push	 ebp
  00001	8b ec		 mov	 ebp, esp
  00003	6a ff		 push	 -1
  00005	68 00 00 00 00	 push	 __ehhandler$?Dump@i3mem@@YAXH@Z
  0000a	64 a1 00 00 00
	00		 mov	 eax, DWORD PTR fs:0
  00010	50		 push	 eax
  00011	81 ec 3c 02 00
	00		 sub	 esp, 572		; 0000023cH
  00017	a1 00 00 00 00	 mov	 eax, DWORD PTR ___security_cookie
  0001c	33 c5		 xor	 eax, ebp
  0001e	89 45 f0	 mov	 DWORD PTR __$ArrayPad$[ebp], eax
  00021	53		 push	 ebx
  00022	56		 push	 esi
  00023	57		 push	 edi
  00024	50		 push	 eax
  00025	8d 45 f4	 lea	 eax, DWORD PTR __$EHRec$[ebp]
  00028	64 a3 00 00 00
	00		 mov	 DWORD PTR fs:0, eax

; 730  : 	BOOL OutText	= FALSE; 
; 731  : 	BOOL OutFile	= FALSE; 
; 732  : 	BOOL OutSum		= FALSE; 
; 733  : 	BOOL OutEach	= FALSE; 	
; 734  : 
; 735  : 	OutFile  = ( Type & I3MEMORY_DEBUG_FILE  ) ? TRUE : FALSE; 

  0002e	8b 5d 08	 mov	 ebx, DWORD PTR _Type$[ebp]
  00031	f6 c3 01	 test	 bl, 1

; 736  : 	OutText  = ( Type & I3MEMORY_DEBUG_TEXT  ) ? TRUE : FALSE; 
; 737  : 	OutSum	 = ( Type & I3MEMORY_DEBUG_SUM   ) ? TRUE : FALSE; 
; 738  : 	OutEach  = ( Type & I3MEMORY_DEBUG_EACH  ) ? TRUE : FALSE;
; 739  : 	
; 740  : 	//-----------------------------------------------------------------------------------------
; 741  : 	//ĆÄŔĎ·Î ´ýÇÁ ÇŐ´Ď´Ů. 
; 742  : 	if(OutFile)

  00034	74 51		 je	 SHORT $LN10@Dump

; 743  : 	{
; 744  : 		i3FileStream			DumpFile;

  00036	8d 8d b8 fd ff
	ff		 lea	 ecx, DWORD PTR _DumpFile$2[ebp]
  0003c	e8 00 00 00 00	 call	 ??0i3FileStream@@QAE@XZ	; i3FileStream::i3FileStream

; 745  : 
; 746  : 		if( DumpFile.Create("c:\\MemDump.i3m", STREAM_WRITE) == FALSE)

  00041	6a 00		 push	 0
  00043	6a 02		 push	 2
  00045	68 00 00 00 00	 push	 OFFSET ??_C@_0P@HCMEEKFH@c?3?2MemDump?4i3m@
  0004a	8d 8d b8 fd ff
	ff		 lea	 ecx, DWORD PTR _DumpFile$2[ebp]
  00050	c7 45 fc 00 00
	00 00		 mov	 DWORD PTR __$EHRec$[ebp+8], 0
  00057	e8 00 00 00 00	 call	 ?Create@i3FileStream@@UAEHPBDHI@Z ; i3FileStream::Create
  0005c	8d 8d b8 fd ff
	ff		 lea	 ecx, DWORD PTR _DumpFile$2[ebp]
  00062	85 c0		 test	 eax, eax
  00064	75 0a		 jne	 SHORT $LN3@Dump

; 747  : 		{
; 748  : 			I3TRACE( "Could not create a memory dump file (c:\\MemDump.i3m)\n");
; 749  : 			return;

  00066	e8 00 00 00 00	 call	 ??1i3FileStream@@UAE@XZ	; i3FileStream::~i3FileStream
  0006b	e9 bc 00 00 00	 jmp	 $LN9@Dump
$LN3@Dump:

; 750  : 		}
; 751  : 
; 752  : 		if(OutEach)
; 753  : 		{
; 754  : 			I3TRACE("Memory File Dump Start\n");		
; 755  : 			I3MEMBLOCK	* pBlockPointer = s_pAllocBlockHead;
; 756  : 			while(pBlockPointer != NULL)
; 757  : 			{
; 758  : #if defined( I3_DEBUG)
; 759  : 				sprintf( (PSTR) TempChar, (PSTR)"0x%p\t%s\t%d\t%d\n", pBlockPointer, pBlockPointer->m_pAllocPos, pBlockPointer->m_Line, pBlockPointer->m_Size); 
; 760  : 				
; 761  : 				DumpFile.WriteLine( TempChar );
; 762  : #endif
; 763  : 				pBlockPointer = pBlockPointer->m_Prev;
; 764  : 			}
; 765  : 			I3TRACE("Memory File Dump End\n");		
; 766  : 		}
; 767  : 
; 768  : 		DumpFile.Close(); 

  00070	e8 00 00 00 00	 call	 ?Close@i3FileStream@@UAEHXZ ; i3FileStream::Close

; 769  : 	}

  00075	8d 8d b8 fd ff
	ff		 lea	 ecx, DWORD PTR _DumpFile$2[ebp]
  0007b	c7 45 fc ff ff
	ff ff		 mov	 DWORD PTR __$EHRec$[ebp+8], -1
  00082	e8 00 00 00 00	 call	 ??1i3FileStream@@UAE@XZ	; i3FileStream::~i3FileStream
$LN10@Dump:

; 770  : 	
; 771  : 	//-----------------------------------------------------------------------------------------
; 772  : 	//Trace·Î ´ýÇÁÇŐ´Ď´Ů. 
; 773  : 	if(OutText)

  00087	f6 c3 02	 test	 bl, 2
  0008a	0f 84 9c 00 00
	00		 je	 $LN9@Dump

; 774  : 	{		
; 775  : 		if(OutSum)

  00090	f6 c3 04	 test	 bl, 4
  00093	0f 84 93 00 00
	00		 je	 $LN9@Dump

; 776  : 		{
; 777  : 			I3TRACE("====================== SUM MEMORY ==================================\n"); 
; 778  : 			i3String::ValueToStr((INT32)(s_pPointer[1] - s_pPointer[0]), TempChar, 128); 

  00099	a1 04 00 00 00	 mov	 eax, DWORD PTR ?s_pPointer@@3PAPADA+4
  0009e	2b 05 00 00 00
	00		 sub	 eax, DWORD PTR ?s_pPointer@@3PAPADA
  000a4	68 80 00 00 00	 push	 128			; 00000080H
  000a9	68 00 00 00 00	 push	 OFFSET ?TempChar@@3PADA
  000ae	50		 push	 eax
  000af	e8 00 00 00 00	 call	 ?ValueToStr@i3String@@YAHHPADH@Z ; i3String::ValueToStr

; 779  : 			I3TRACE1("Total Memory Size : %s \n", TempChar);

  000b4	68 00 00 00 00	 push	 OFFSET ?TempChar@@3PADA
  000b9	8d 85 70 ff ff
	ff		 lea	 eax, DWORD PTR _conv$5[ebp]
  000bf	68 00 00 00 00	 push	 OFFSET ??_C@_0BJ@JNCBAGB@Total?5Memory?5Size?5?3?5?$CFs?5?6@
  000c4	50		 push	 eax
  000c5	e8 00 00 00 00	 call	 _sprintf

; 780  : 
; 781  : 			I3MEMBLOCK	* pBlock;
; 782  : 			INT32	AllocBlock	= 0; 
; 783  : 			INT32	FreeBlock	= 0; 
; 784  : 			INT32	AllocMemSize = 0; 
; 785  : 			INT32	FreeMemSize	 = 0; 
; 786  : 			pBlock = s_pAllocBlockHead;

  000ca	a1 00 00 00 00	 mov	 eax, DWORD PTR ?s_pAllocBlockHead@@3PAUI3MEMBLOCK@@A
  000cf	83 c4 18	 add	 esp, 24			; 00000018H
  000d2	33 c9		 xor	 ecx, ecx
  000d4	33 d2		 xor	 edx, edx
  000d6	33 f6		 xor	 esi, esi
  000d8	33 ff		 xor	 edi, edi

; 787  : 			while(pBlock != NULL)

  000da	85 c0		 test	 eax, eax
  000dc	74 0d		 je	 SHORT $LN5@Dump
  000de	8b ff		 npad	 2
$LL4@Dump:

; 788  : 			{
; 789  : 				AllocMemSize = AllocMemSize + pBlock->m_Size; 

  000e0	03 70 0c	 add	 esi, DWORD PTR [eax+12]

; 790  : 				AllocBlock++; 

  000e3	41		 inc	 ecx

; 791  : 				pBlock = pBlock->m_Prev; 

  000e4	8b 40 04	 mov	 eax, DWORD PTR [eax+4]
  000e7	85 c0		 test	 eax, eax
  000e9	75 f5		 jne	 SHORT $LL4@Dump
$LN5@Dump:

; 792  : 			}
; 793  : 
; 794  : 			pBlock = s_pFreeBlockHead;

  000eb	a1 00 00 00 00	 mov	 eax, DWORD PTR ?s_pFreeBlockHead@@3PAUI3MEMBLOCK@@A

; 795  : 			while(pBlock != NULL)

  000f0	85 c0		 test	 eax, eax
  000f2	74 0b		 je	 SHORT $LN7@Dump
$LL6@Dump:

; 796  : 			{			
; 797  : 				FreeMemSize = FreeMemSize + pBlock->m_Size; 

  000f4	03 78 0c	 add	 edi, DWORD PTR [eax+12]

; 798  : 				FreeBlock++;

  000f7	42		 inc	 edx

; 799  : 				pBlock = pBlock->m_Next; 

  000f8	8b 40 08	 mov	 eax, DWORD PTR [eax+8]
  000fb	85 c0		 test	 eax, eax
  000fd	75 f5		 jne	 SHORT $LL6@Dump
$LN7@Dump:

; 800  : 			}
; 801  : 
; 802  : 			I3TRACE3("Use Block Count ALL = %d ALLOC = %d FREE = %d \n",(AllocBlock + FreeBlock), AllocBlock, FreeBlock);

  000ff	52		 push	 edx
  00100	51		 push	 ecx
  00101	8d 04 0a	 lea	 eax, DWORD PTR [edx+ecx]
  00104	50		 push	 eax
  00105	8d 85 f0 fe ff
	ff		 lea	 eax, DWORD PTR _conv$3[ebp]
  0010b	68 00 00 00 00	 push	 OFFSET ??_C@_0DA@KFNLPDNL@Use?5Block?5Count?5ALL?5?$DN?5?$CFd?5ALLOC?5@
  00110	50		 push	 eax
  00111	e8 00 00 00 00	 call	 _sprintf

; 803  : 			I3TRACE2("Memory Size Alloc = %d Free = %d \n",AllocMemSize ,FreeMemSize);

  00116	57		 push	 edi
  00117	56		 push	 esi
  00118	8d 85 f0 fe ff
	ff		 lea	 eax, DWORD PTR _conv$4[ebp]
  0011e	68 00 00 00 00	 push	 OFFSET ??_C@_0CD@KOBAKLHO@Memory?5Size?5Alloc?5?$DN?5?$CFd?5Free?5?$DN?5?$CF@
  00123	50		 push	 eax
  00124	e8 00 00 00 00	 call	 _sprintf
  00129	83 c4 24	 add	 esp, 36			; 00000024H
$LN9@Dump:

; 804  : #if defined( I3_DEBUG)
; 805  : 			I3TRACE( "Memory Alloc Count = %d\n", s_AllocCount);
; 806  : 			I3TRACE( "Memory Alloc Size  = %d\n", s_AllocSize);
; 807  : #endif
; 808  : 
; 809  : 
; 810  : 			I3TRACE("====================================================================\n"); 
; 811  : 		}
; 812  : 		
; 813  : 		if(OutEach)
; 814  : 		{
; 815  : 			I3TRACE("====================== SUM MEMORY ==================================\n");		
; 816  : 			I3MEMBLOCK	* pBlockPointer = s_pAllocBlockHead;
; 817  : 			while(pBlockPointer != NULL)
; 818  : 			{
; 819  : #if defined( I3_DEBUG)
; 820  : 				sprintf( (PSTR) TempChar, (PSTR)"FileName %s %d\n",pBlockPointer->m_pAllocPos, pBlockPointer->m_Line); 
; 821  : 				I3TRACE( TempChar );
; 822  : #endif
; 823  : 				
; 824  : 				pBlockPointer = pBlockPointer->m_Prev;
; 825  : 			}
; 826  : 
; 827  : 			I3TRACE("====================================================================\n");
; 828  : 		}
; 829  : 	}
; 830  : 	return; 
; 831  : }

  0012c	8b 4d f4	 mov	 ecx, DWORD PTR __$EHRec$[ebp]
  0012f	64 89 0d 00 00
	00 00		 mov	 DWORD PTR fs:0, ecx
  00136	59		 pop	 ecx
  00137	5f		 pop	 edi
  00138	5e		 pop	 esi
  00139	5b		 pop	 ebx
  0013a	8b 4d f0	 mov	 ecx, DWORD PTR __$ArrayPad$[ebp]
  0013d	33 cd		 xor	 ecx, ebp
  0013f	e8 00 00 00 00	 call	 @__security_check_cookie@4
  00144	8b e5		 mov	 esp, ebp
  00146	5d		 pop	 ebp
  00147	c3		 ret	 0
_TEXT	ENDS
;	COMDAT text$x
text$x	SEGMENT
__unwindfunclet$?Dump@i3mem@@YAXH@Z$0:
  00000	8d 8d b8 fd ff
	ff		 lea	 ecx, DWORD PTR _DumpFile$2[ebp]
  00006	e9 00 00 00 00	 jmp	 ??1i3FileStream@@UAE@XZ	; i3FileStream::~i3FileStream
  0000b	cc		 int	 3
  0000c	cc		 int	 3
  0000d	cc		 int	 3
  0000e	cc		 int	 3
  0000f	cc		 int	 3
__ehhandler$?Dump@i3mem@@YAXH@Z:
  00010	90		 npad	 1
  00011	90		 npad	 1
  00012	8b 54 24 08	 mov	 edx, DWORD PTR [esp+8]
  00016	8d 42 0c	 lea	 eax, DWORD PTR [edx+12]
  00019	8b 8a b4 fd ff
	ff		 mov	 ecx, DWORD PTR [edx-588]
  0001f	33 c8		 xor	 ecx, eax
  00021	e8 00 00 00 00	 call	 @__security_check_cookie@4
  00026	8b 4a fc	 mov	 ecx, DWORD PTR [edx-4]
  00029	33 c8		 xor	 ecx, eax
  0002b	e8 00 00 00 00	 call	 @__security_check_cookie@4
  00030	b8 00 00 00 00	 mov	 eax, OFFSET __ehfuncinfo$?Dump@i3mem@@YAXH@Z
  00035	e9 00 00 00 00	 jmp	 ___CxxFrameHandler3
text$x	ENDS
?Dump@i3mem@@YAXH@Z ENDP				; i3mem::Dump
; Function compile flags: /Ogtp
; File E:\Proyectos\JuegosOnlineproyectos\PB\pbblow\Piercing Blow Remake\i3Server\src\i3Base\i3Memory.cpp
;	COMDAT ?GetAllocCount@i3mem@@YAHXZ
_TEXT	SEGMENT
?GetAllocCount@i3mem@@YAHXZ PROC			; i3mem::GetAllocCount, COMDAT

; 1073 : #if defined( I3_DEBUG)
; 1074 : 	return s_AllocCount;
; 1075 : #else
; 1076 : 	return 0;

  00000	33 c0		 xor	 eax, eax

; 1077 : #endif
; 1078 : }

  00002	c3		 ret	 0
?GetAllocCount@i3mem@@YAHXZ ENDP			; i3mem::GetAllocCount
_TEXT	ENDS
; Function compile flags: /Ogtp
; File E:\Proyectos\JuegosOnlineproyectos\PB\pbblow\Piercing Blow Remake\i3Server\src\i3Base\i3Memory.cpp
;	COMDAT ?GetAllocSize@i3mem@@YAIXZ
_TEXT	SEGMENT
?GetAllocSize@i3mem@@YAIXZ PROC				; i3mem::GetAllocSize, COMDAT

; 1086 : #if defined( I3_DEBUG)
; 1087 : 	return s_AllocSize; 
; 1088 : #else
; 1089 : 	return 0;

  00000	33 c0		 xor	 eax, eax

; 1090 : #endif
; 1091 : }

  00002	c3		 ret	 0
?GetAllocSize@i3mem@@YAIXZ ENDP				; i3mem::GetAllocSize
_TEXT	ENDS
; Function compile flags: /Ogtp
; File E:\Proyectos\JuegosOnlineproyectos\PB\pbblow\Piercing Blow Remake\i3Server\src\i3Base\i3Memory.cpp
;	COMDAT ?GetState@i3mem@@YAHPAX@Z
_TEXT	SEGMENT
_pPoint$ = 8						; size = 4
?GetState@i3mem@@YAHPAX@Z PROC				; i3mem::GetState, COMDAT

; 720  : 	pPoint = NULL;
; 721  : 	return -1; 

  00000	83 c8 ff	 or	 eax, -1

; 722  : }

  00003	c3		 ret	 0
?GetState@i3mem@@YAHPAX@Z ENDP				; i3mem::GetState
_TEXT	ENDS
; Function compile flags: /Ogtp
; File E:\Proyectos\JuegosOnlineproyectos\PB\pbblow\Piercing Blow Remake\i3Server\src\i3Base\i3Memory.cpp
;	COMDAT ?SetState@i3mem@@YAXPAX@Z
_TEXT	SEGMENT
_pPoint$ = 8						; size = 4
?SetState@i3mem@@YAXPAX@Z PROC				; i3mem::SetState, COMDAT

; 710  : 	pPoint = NULL;
; 711  : 	return; 
; 712  : }

  00000	c2 00 00	 ret	 0
?SetState@i3mem@@YAXPAX@Z ENDP				; i3mem::SetState
_TEXT	ENDS
; Function compile flags: /Ogtp
; File E:\Proyectos\JuegosOnlineproyectos\PB\pbblow\Piercing Blow Remake\i3Server\src\i3Base\i3Memory.cpp
;	COMDAT ?FreeTool@i3mem@@YAXPAXPBDH@Z
_TEXT	SEGMENT
_pPointer$ = 8						; size = 4
_pszFile$ = 12						; size = 4
_line$ = 16						; size = 4
?FreeTool@i3mem@@YAXPAXPBDH@Z PROC			; i3mem::FreeTool, COMDAT

; 943  : {

  00000	55		 push	 ebp
  00001	8b ec		 mov	 ebp, esp

; 944  : 	s_MemoryCs.Enter(); 

  00003	b9 00 00 00 00	 mov	 ecx, OFFSET ?s_MemoryCs@@3Vi3Mutex2@@A
  00008	e8 00 00 00 00	 call	 ?Enter@i3Mutex2@@QAEXXZ	; i3Mutex2::Enter

; 945  : 	I3ASSERT( pPointer != NULL);
; 946  : 	I3MEMBLOCK * pBlock;
; 947  : 
; 948  : #if defined( I3_DEBUG)
; 949  : 	pBlock = (I3MEMBLOCK *) (((char *) pPointer) - sizeof(I3MEMBLOCK));
; 950  : 
; 951  : 	I3MEMBLOCK * pPrev, * pNext;
; 952  : 
; 953  : 	pPrev = pBlock->m_Prev;
; 954  : 	pNext = pBlock->m_Next;
; 955  : 
; 956  : 	if( pPrev != NULL)
; 957  : 		pPrev->m_Next = pNext;
; 958  : 
; 959  : 	if( pNext != NULL)
; 960  : 		pNext->m_Prev = pPrev;
; 961  : 
; 962  : 	if( s_pAllocBlockHead == pBlock)
; 963  : 		s_pAllocBlockHead = pPrev;
; 964  : 
; 965  : 	s_AllocCount--;
; 966  : 	s_AllocSize -= pBlock->m_Size;
; 967  : #else
; 968  : 	pBlock = (I3MEMBLOCK *) pPointer;
; 969  : #endif
; 970  : 
; 971  : 	#if defined( USE_WIN32_HEAP)
; 972  : 		HeapFree( s_hHeap, 0, pBlock);
; 973  : 	#else
; 974  : 		#if defined( I3_DEBUG)
; 975  : 			_free_dbg( pBlock, _NORMAL_BLOCK);
; 976  : 		#else
; 977  : 			free( pBlock);

  0000d	ff 75 08	 push	 DWORD PTR _pPointer$[ebp]
  00010	e8 00 00 00 00	 call	 _free
  00015	83 c4 04	 add	 esp, 4

; 978  : 		#endif
; 979  : 	#endif
; 980  : 
; 981  : #if defined(I3_MEM_NET_DUMP)
; 982  : 	if(s_bNetDump)
; 983  : 	{
; 984  : 		MEM_NET_ALLOC_INFO SendBuffer; 
; 985  : 		SendBuffer._Size	= 0;
; 986  : 		SendBuffer._Address = (UINT32)pPointer; 				
; 987  : 		sprintf( SendBuffer._String, "%s - %d", pszFile, line); 
; 988  : 		DumpWriteFileBuffer( &SendBuffer );
; 989  : 	}
; 990  : #endif	
; 991  : 
; 992  : 	s_MemoryCs.Leave(); 

  00018	b9 00 00 00 00	 mov	 ecx, OFFSET ?s_MemoryCs@@3Vi3Mutex2@@A

; 993  : 
; 994  : 	return;
; 995  : }

  0001d	5d		 pop	 ebp

; 978  : 		#endif
; 979  : 	#endif
; 980  : 
; 981  : #if defined(I3_MEM_NET_DUMP)
; 982  : 	if(s_bNetDump)
; 983  : 	{
; 984  : 		MEM_NET_ALLOC_INFO SendBuffer; 
; 985  : 		SendBuffer._Size	= 0;
; 986  : 		SendBuffer._Address = (UINT32)pPointer; 				
; 987  : 		sprintf( SendBuffer._String, "%s - %d", pszFile, line); 
; 988  : 		DumpWriteFileBuffer( &SendBuffer );
; 989  : 	}
; 990  : #endif	
; 991  : 
; 992  : 	s_MemoryCs.Leave(); 

  0001e	e9 00 00 00 00	 jmp	 ?Leave@i3Mutex2@@QAEXXZ	; i3Mutex2::Leave
?FreeTool@i3mem@@YAXPAXPBDH@Z ENDP			; i3mem::FreeTool
_TEXT	ENDS
; Function compile flags: /Ogtp
; File E:\Proyectos\JuegosOnlineproyectos\PB\pbblow\Piercing Blow Remake\i3Server\src\i3Base\i3Memory.cpp
;	COMDAT ?FreeGame@i3mem@@YAXPAXPBDH@Z
_TEXT	SEGMENT
_pPointer$ = 8						; size = 4
_pszFile$ = 12						; size = 4
_line$ = 16						; size = 4
?FreeGame@i3mem@@YAXPAXPBDH@Z PROC			; i3mem::FreeGame, COMDAT

; 502  : {	

  00000	55		 push	 ebp
  00001	8b ec		 mov	 ebp, esp
  00003	56		 push	 esi

; 503  : 	if(pPointer == NULL)return; 

  00004	8b 75 08	 mov	 esi, DWORD PTR _pPointer$[ebp]
  00007	85 f6		 test	 esi, esi
  00009	0f 84 9c 00 00
	00		 je	 $LN1@FreeGame

; 504  : 
; 505  : 	s_MemoryCs.Enter(); 

  0000f	b9 00 00 00 00	 mov	 ecx, OFFSET ?s_MemoryCs@@3Vi3Mutex2@@A
  00014	e8 00 00 00 00	 call	 ?Enter@i3Mutex2@@QAEXXZ	; i3Mutex2::Enter

; 506  : 	I3MEMBLOCK	*	pMemBlock;	
; 507  : 
; 508  : 	//Get Memory Info Block And Set Memory Info 
; 509  : 	memcpy( &pMemBlock, ((LPI3MEM)pPointer - INFO_SIZE), INFO_SIZE );

  00019	8b 56 fc	 mov	 edx, DWORD PTR [esi-4]

; 510  : 
; 511  : #if defined( I3_DEBUG)
; 512  : 	s_AllocSize = s_AllocSize - pMemBlock->m_Size; 
; 513  : 	s_AllocCount--;
; 514  : #endif
; 515  : 
; 516  : 	pMemBlock->m_pPointer	= NULL;

  0001c	c7 02 00 00 00
	00		 mov	 DWORD PTR [edx], 0

; 517  : 	pMemBlock->m_StateAlign = 0x00000000;

  00022	c7 42 10 00 00
	00 00		 mov	 DWORD PTR [edx+16], 0

; 107  : 	if(s_pAllocBlockHead == pBlock)

  00029	39 15 00 00 00
	00		 cmp	 DWORD PTR ?s_pAllocBlockHead@@3PAUI3MEMBLOCK@@A, edx
  0002f	75 18		 jne	 SHORT $LN6@FreeGame

; 108  : 	{
; 109  : 		s_pAllocBlockHead = pBlock->m_Prev;

  00031	8b 42 04	 mov	 eax, DWORD PTR [edx+4]
  00034	a3 00 00 00 00	 mov	 DWORD PTR ?s_pAllocBlockHead@@3PAUI3MEMBLOCK@@A, eax
  00039	85 c0		 test	 eax, eax

; 110  : 		if( s_pAllocBlockHead != NULL)

  0003b	74 07		 je	 SHORT $LN8@FreeGame

; 111  : 			s_pAllocBlockHead->m_Next = NULL;

  0003d	c7 40 08 00 00
	00 00		 mov	 DWORD PTR [eax+8], 0
$LN8@FreeGame:

; 112  : 	}else

  00044	8d 4a 08	 lea	 ecx, DWORD PTR [edx+8]
  00047	eb 1b		 jmp	 SHORT $LN10@FreeGame
$LN6@FreeGame:

; 113  : 	{		
; 114  : 		if(pBlock->m_Prev != NULL)

  00049	8b 72 04	 mov	 esi, DWORD PTR [edx+4]
  0004c	8d 4a 08	 lea	 ecx, DWORD PTR [edx+8]
  0004f	85 f6		 test	 esi, esi
  00051	74 05		 je	 SHORT $LN12@FreeGame

; 115  : 		{
; 116  : 			pTempBlock			= pBlock->m_Prev; 
; 117  : 			pTempBlock->m_Next	= pBlock->m_Next; 

  00053	8b 01		 mov	 eax, DWORD PTR [ecx]
  00055	89 46 08	 mov	 DWORD PTR [esi+8], eax
$LN12@FreeGame:

; 118  : 		}
; 119  : 
; 120  : 		if(pBlock->m_Next != NULL)

  00058	8b 31		 mov	 esi, DWORD PTR [ecx]
  0005a	85 f6		 test	 esi, esi
  0005c	74 06		 je	 SHORT $LN10@FreeGame

; 121  : 		{
; 122  : 			pTempBlock			= pBlock->m_Next; 
; 123  : 			pTempBlock->m_Prev  = pBlock->m_Prev; 

  0005e	8b 42 04	 mov	 eax, DWORD PTR [edx+4]
  00061	89 46 04	 mov	 DWORD PTR [esi+4], eax
$LN10@FreeGame:

; 518  : 
; 519  : 	PopAllocList( pMemBlock ); 
; 520  : 
; 521  : 	//Set FreeBlock 
; 522  : 	pMemBlock->m_Next	= s_pFreeBlockHead;

  00064	a1 00 00 00 00	 mov	 eax, DWORD PTR ?s_pFreeBlockHead@@3PAUI3MEMBLOCK@@A

; 127  : 	pBlock->m_Next = NULL;

  00069	c7 01 00 00 00
	00		 mov	 DWORD PTR [ecx], 0

; 518  : 
; 519  : 	PopAllocList( pMemBlock ); 
; 520  : 
; 521  : 	//Set FreeBlock 
; 522  : 	pMemBlock->m_Next	= s_pFreeBlockHead;

  0006f	89 01		 mov	 DWORD PTR [ecx], eax

; 524  : 
; 525  : 
; 526  : 	s_GatherCount++; 

  00071	a1 00 00 00 00	 mov	 eax, DWORD PTR ?s_GatherCount@@3HA
  00076	40		 inc	 eax

; 126  : 	pBlock->m_Prev = NULL;

  00077	c7 42 04 00 00
	00 00		 mov	 DWORD PTR [edx+4], 0

; 523  : 	s_pFreeBlockHead	= pMemBlock;

  0007e	89 15 00 00 00
	00		 mov	 DWORD PTR ?s_pFreeBlockHead@@3PAUI3MEMBLOCK@@A, edx

; 524  : 
; 525  : 
; 526  : 	s_GatherCount++; 

  00084	a3 00 00 00 00	 mov	 DWORD PTR ?s_GatherCount@@3HA, eax
  00089	3d e8 03 00 00	 cmp	 eax, 1000		; 000003e8H

; 527  : 	if( s_GatherCount > GATHER_COUNT)

  0008e	7e 0f		 jle	 SHORT $LN3@FreeGame

; 528  : 	{
; 529  : 		CompactGame(); 

  00090	e8 00 00 00 00	 call	 ?CompactGame@i3mem@@YAXXZ ; i3mem::CompactGame

; 530  : 		s_GatherCount = 0; 

  00095	c7 05 00 00 00
	00 00 00 00 00	 mov	 DWORD PTR ?s_GatherCount@@3HA, 0
$LN3@FreeGame:

; 531  : 	}
; 532  : 
; 533  : #if defined(I3_MEM_NET_DUMP)
; 534  : 	if(s_bNetDump)
; 535  : 	{
; 536  : 		MEM_NET_ALLOC_INFO SendBuffer; 
; 537  : 		SendBuffer._Size	= 0;
; 538  : 		SendBuffer._Address = (UINT32)pPointer; 				
; 539  : 		sprintf( SendBuffer._String, "%s - %d", pszFile, line); 
; 540  : 		DumpWriteFileBuffer( &SendBuffer );  
; 541  : 		//s_pDumpUdp->Send((char*)&SendBuffer, 8, ::inet_addr("127.0.0.1"), MEM_DUMP_PORT);
; 542  : 	}
; 543  : #endif
; 544  : 
; 545  : 	s_MemoryCs.Leave(); 

  0009f	b9 00 00 00 00	 mov	 ecx, OFFSET ?s_MemoryCs@@3Vi3Mutex2@@A
  000a4	5e		 pop	 esi

; 546  : 	
; 547  : 	return;
; 548  : } 

  000a5	5d		 pop	 ebp

; 531  : 	}
; 532  : 
; 533  : #if defined(I3_MEM_NET_DUMP)
; 534  : 	if(s_bNetDump)
; 535  : 	{
; 536  : 		MEM_NET_ALLOC_INFO SendBuffer; 
; 537  : 		SendBuffer._Size	= 0;
; 538  : 		SendBuffer._Address = (UINT32)pPointer; 				
; 539  : 		sprintf( SendBuffer._String, "%s - %d", pszFile, line); 
; 540  : 		DumpWriteFileBuffer( &SendBuffer );  
; 541  : 		//s_pDumpUdp->Send((char*)&SendBuffer, 8, ::inet_addr("127.0.0.1"), MEM_DUMP_PORT);
; 542  : 	}
; 543  : #endif
; 544  : 
; 545  : 	s_MemoryCs.Leave(); 

  000a6	e9 00 00 00 00	 jmp	 ?Leave@i3Mutex2@@QAEXXZ	; i3Mutex2::Leave
$LN1@FreeGame:
  000ab	5e		 pop	 esi

; 546  : 	
; 547  : 	return;
; 548  : } 

  000ac	5d		 pop	 ebp
  000ad	c3		 ret	 0
?FreeGame@i3mem@@YAXPAXPBDH@Z ENDP			; i3mem::FreeGame
_TEXT	ENDS
; Function compile flags: /Ogtp
; File E:\Proyectos\JuegosOnlineproyectos\PB\pbblow\Piercing Blow Remake\i3Server\src\i3Base\i3Memory.cpp
;	COMDAT ?ReallocTool@i3mem@@YAPAXPAXHHPBDH@Z
_TEXT	SEGMENT
_pPointer$ = 8						; size = 4
_nBytes$ = 12						; size = 4
_Align$ = 16						; size = 4
_FileName$ = 20						; size = 4
_Line$ = 24						; size = 4
?ReallocTool@i3mem@@YAPAXPAXHHPBDH@Z PROC		; i3mem::ReallocTool, COMDAT

; 1002 : {	

  00000	55		 push	 ebp
  00001	8b ec		 mov	 ebp, esp
  00003	56		 push	 esi

; 1003 : 	if(pPointer == NULL) return Alloc(nBytes, 0, Align, FileName, Line); 

  00004	8b 75 08	 mov	 esi, DWORD PTR _pPointer$[ebp]
  00007	85 f6		 test	 esi, esi
  00009	75 19		 jne	 SHORT $LN2@ReallocToo
  0000b	ff 75 18	 push	 DWORD PTR _Line$[ebp]
  0000e	ff 75 14	 push	 DWORD PTR _FileName$[ebp]
  00011	ff 75 10	 push	 DWORD PTR _Align$[ebp]
  00014	56		 push	 esi
  00015	ff 75 0c	 push	 DWORD PTR _nBytes$[ebp]
  00018	ff 15 00 00 00
	00		 call	 DWORD PTR ?Alloc@i3mem@@3P6APAXHHHPBDH@ZA ; i3mem::Alloc
  0001e	83 c4 14	 add	 esp, 20			; 00000014H
  00021	5e		 pop	 esi

; 1058 : }

  00022	5d		 pop	 ebp
  00023	c3		 ret	 0
$LN2@ReallocToo:

; 1004 : 
; 1005 : 	s_MemoryCs.Enter(); 

  00024	b9 00 00 00 00	 mov	 ecx, OFFSET ?s_MemoryCs@@3Vi3Mutex2@@A
  00029	e8 00 00 00 00	 call	 ?Enter@i3Mutex2@@QAEXXZ	; i3Mutex2::Enter

; 1006 : 	void * pRv; 
; 1007 : 	I3MEMBLOCK * pNewBlock = NULL; 	
; 1008 : 	INT32 allocSz = nBytes;
; 1009 : 	I3MEMBLOCK * pBlock;
; 1010 : #if defined( I3_DEBUG)
; 1011 : 	I3MEMBLOCK * pNext, * pPrev;
; 1012 : #endif
; 1013 : 	
; 1014 : 
; 1015 : #if defined( I3_DEBUG)
; 1016 : 	allocSz += sizeof(I3MEMBLOCK);
; 1017 : 
; 1018 : 	pBlock = (I3MEMBLOCK *) (((char *) pPointer) - sizeof(I3MEMBLOCK));
; 1019 : 	pNext = pBlock->m_Next;
; 1020 : 	pPrev = pBlock->m_Prev;
; 1021 : 
; 1022 : 	s_AllocSize -= pBlock->m_Size;
; 1023 : 	s_AllocSize += nBytes;
; 1024 : #else
; 1025 : 	pBlock = (I3MEMBLOCK *) pPointer;
; 1026 : #endif
; 1027 : 
; 1028 : 	#if defined( USE_WIN32_HEAP)
; 1029 : 		pNewBlock = (I3MEMBLOCK *) HeapReAlloc( s_hHeap, 0, pBlock, allocSz);
; 1030 : 	#else
; 1031 : 		#if defined( I3_DEBUG)
; 1032 : 			pNewBlock = (I3MEMBLOCK *) _realloc_dbg( pBlock, (size_t) allocSz, _NORMAL_BLOCK, FileName, Line);
; 1033 : 		#else
; 1034 : 			pNewBlock = (I3MEMBLOCK *) realloc( pBlock, (size_t) allocSz);

  0002e	ff 75 0c	 push	 DWORD PTR _nBytes$[ebp]
  00031	56		 push	 esi
  00032	e8 00 00 00 00	 call	 _realloc
  00037	83 c4 08	 add	 esp, 8

; 1035 : 		#endif
; 1036 : 	#endif
; 1037 : 
; 1038 : 	I3ASSERT( pNewBlock != NULL);
; 1039 : 
; 1040 : #if defined( I3_DEBUG)
; 1041 : 	if( pPrev != NULL)
; 1042 : 		pPrev->m_Next = pNewBlock;
; 1043 : 
; 1044 : 	if( pNext != NULL)
; 1045 : 		pNext->m_Prev = pNewBlock;
; 1046 : 
; 1047 : 	if( s_pAllocBlockHead == pBlock)
; 1048 : 		s_pAllocBlockHead = pNewBlock;
; 1049 : 
; 1050 : 	pRv = (void *)(((char *) pNewBlock) + sizeof(I3MEMBLOCK));
; 1051 : #else
; 1052 : 	pRv = (void *) pNewBlock;
; 1053 : #endif
; 1054 : 
; 1055 : 	s_MemoryCs.Leave(); 

  0003a	b9 00 00 00 00	 mov	 ecx, OFFSET ?s_MemoryCs@@3Vi3Mutex2@@A
  0003f	8b f0		 mov	 esi, eax
  00041	e8 00 00 00 00	 call	 ?Leave@i3Mutex2@@QAEXXZ	; i3Mutex2::Leave

; 1056 : 
; 1057 : 	return pRv; 

  00046	8b c6		 mov	 eax, esi
  00048	5e		 pop	 esi

; 1058 : }

  00049	5d		 pop	 ebp
  0004a	c3		 ret	 0
?ReallocTool@i3mem@@YAPAXPAXHHPBDH@Z ENDP		; i3mem::ReallocTool
_TEXT	ENDS
; Function compile flags: /Ogtp
; File E:\Proyectos\JuegosOnlineproyectos\PB\pbblow\Piercing Blow Remake\i3Server\src\i3Base\i3Memory.cpp
; File E:\Proyectos\JuegosOnlineproyectos\PB\pbblow\Piercing Blow Remake\i3Server\include\i3Base\i3Memory.h
; File E:\Proyectos\JuegosOnlineproyectos\PB\pbblow\Piercing Blow Remake\i3Server\src\i3Base\i3Memory.cpp
;	COMDAT ?ReallocGame@i3mem@@YAPAXPAXHHPBDH@Z
_TEXT	SEGMENT
_pOldMemBlock$1$ = -4					; size = 4
_pPointer$ = 8						; size = 4
_nBytes$ = 12						; size = 4
_Align$ = 16						; size = 4
_FileName$ = 20						; size = 4
_Line$ = 24						; size = 4
?ReallocGame@i3mem@@YAPAXPAXHHPBDH@Z PROC		; i3mem::ReallocGame, COMDAT

; 672  : {	

  00000	55		 push	 ebp
  00001	8b ec		 mov	 ebp, esp
  00003	51		 push	 ecx

; 673  : 	I3MEMBLOCK	*	pOldMemBlock; 
; 674  : 	void		*	pNewPointer;  
; 675  : 
; 676  : 	memcpy( &pOldMemBlock, ((LPI3MEM)pPointer - INFO_SIZE), INFO_SIZE );	

  00004	8b 45 08	 mov	 eax, DWORD PTR _pPointer$[ebp]

; 677  : 
; 678  : 	if(Align == -1)Align = ( pOldMemBlock->m_StateAlign & I3_MEMORY_ALIGN );

  00007	8b 4d 10	 mov	 ecx, DWORD PTR _Align$[ebp]
  0000a	8b 40 fc	 mov	 eax, DWORD PTR [eax-4]
  0000d	89 45 fc	 mov	 DWORD PTR _pOldMemBlock$1$[ebp], eax
  00010	83 f9 ff	 cmp	 ecx, -1
  00013	75 04		 jne	 SHORT $LN9@ReallocGam
  00015	0f b7 48 10	 movzx	 ecx, WORD PTR [eax+16]
$LN9@ReallocGam:

; 679  : 
; 680  : 	pNewPointer = AllocGame(nBytes, (pOldMemBlock->m_StateAlign & I3_MEMORY_STATE), Align, FileName, Line);

  00019	8b 40 10	 mov	 eax, DWORD PTR [eax+16]
  0001c	56		 push	 esi
  0001d	8b 75 0c	 mov	 esi, DWORD PTR _nBytes$[ebp]
  00020	25 00 00 ff ff	 and	 eax, -65536		; ffff0000H
  00025	57		 push	 edi
  00026	ff 75 18	 push	 DWORD PTR _Line$[ebp]
  00029	ff 75 14	 push	 DWORD PTR _FileName$[ebp]
  0002c	51		 push	 ecx
  0002d	50		 push	 eax
  0002e	56		 push	 esi
  0002f	e8 00 00 00 00	 call	 ?AllocGame@i3mem@@YAPAXHHHPBDH@Z ; i3mem::AllocGame

; 681  : 	i3mem::Copy(pNewPointer, pPointer, (INT32) MIN(nBytes, pOldMemBlock->m_Size) );

  00034	8b 4d fc	 mov	 ecx, DWORD PTR _pOldMemBlock$1$[ebp]
  00037	8b f8		 mov	 edi, eax
  00039	3b 71 0c	 cmp	 esi, DWORD PTR [ecx+12]
  0003c	0f 4f 71 0c	 cmovg	 esi, DWORD PTR [ecx+12]
; File E:\Proyectos\JuegosOnlineproyectos\PB\pbblow\Piercing Blow Remake\i3Server\include\i3Base\i3Memory.h

; 134  : 			::CopyMemory( pDest, pSrc, sz);

  00040	56		 push	 esi
  00041	8b 75 08	 mov	 esi, DWORD PTR _pPointer$[ebp]
  00044	56		 push	 esi
  00045	57		 push	 edi
  00046	e8 00 00 00 00	 call	 _memcpy
; File E:\Proyectos\JuegosOnlineproyectos\PB\pbblow\Piercing Blow Remake\i3Server\src\i3Base\i3Memory.cpp

; 682  : 	FreeGame(pPointer, FileName, Line);

  0004b	ff 75 18	 push	 DWORD PTR _Line$[ebp]
  0004e	ff 75 14	 push	 DWORD PTR _FileName$[ebp]
  00051	56		 push	 esi
  00052	e8 00 00 00 00	 call	 ?FreeGame@i3mem@@YAXPAXPBDH@Z ; i3mem::FreeGame
  00057	83 c4 2c	 add	 esp, 44			; 0000002cH

; 683  : #if defined(I3_MEM_NET_DUMP)
; 684  : 	if(s_bNetDump)
; 685  : 	{
; 686  : 		MEM_NET_ALLOC_INFO SendBuffer; 
; 687  : 		SendBuffer._Size	= 0;
; 688  : 		SendBuffer._Address = (UINT32)pPointer; 		
; 689  : 		sprintf( SendBuffer._String, "%s - %d", FileName, Line); 		
; 690  : 		DumpWriteFileBuffer( &SendBuffer );  		
; 691  : 	}
; 692  : 	if(s_bNetDump)
; 693  : 	{
; 694  : 		MEM_NET_ALLOC_INFO SendBuffer; 
; 695  : 		SendBuffer._Size	= nBytes;
; 696  : 		SendBuffer._Address = (UINT32)pNewPointer; 				
; 697  : 		sprintf( SendBuffer._String, "%s - %d", FileName, Line); 
; 698  : 		DumpWriteFileBuffer( &SendBuffer ); 
; 699  : 	}
; 700  : #endif
; 701  : 	return pNewPointer; 

  0005a	8b c7		 mov	 eax, edi
  0005c	5f		 pop	 edi
  0005d	5e		 pop	 esi

; 702  : }

  0005e	8b e5		 mov	 esp, ebp
  00060	5d		 pop	 ebp
  00061	c3		 ret	 0
?ReallocGame@i3mem@@YAPAXPAXHHPBDH@Z ENDP		; i3mem::ReallocGame
_TEXT	ENDS
; Function compile flags: /Ogtp
; File E:\Proyectos\JuegosOnlineproyectos\PB\pbblow\Piercing Blow Remake\i3Server\src\i3Base\i3Memory.cpp
; File C:\Program Files (x86)\Windows Kits\10\Include\10.0.26100.0\um\winnt.h
; File E:\Proyectos\JuegosOnlineproyectos\PB\pbblow\Piercing Blow Remake\i3Server\src\i3Base\i3Memory.cpp
;	COMDAT ?AllocTool@i3mem@@YAPAXHHHPBDH@Z
_TEXT	SEGMENT
_nBytes$ = 8						; size = 4
_State$ = 12						; size = 4
_Align$ = 16						; size = 4
_FileName$ = 20						; size = 4
_Line$ = 24						; size = 4
?AllocTool@i3mem@@YAPAXHHHPBDH@Z PROC			; i3mem::AllocTool, COMDAT

; 855  : {

  00000	55		 push	 ebp
  00001	8b ec		 mov	 ebp, esp
  00003	56		 push	 esi
  00004	57		 push	 edi

; 856  : 	s_MemoryCs.Enter(); 

  00005	b9 00 00 00 00	 mov	 ecx, OFFSET ?s_MemoryCs@@3Vi3Mutex2@@A
  0000a	e8 00 00 00 00	 call	 ?Enter@i3Mutex2@@QAEXXZ	; i3Mutex2::Enter

; 857  : 	INT32 allocSz = nBytes;
; 858  : 	I3MEMBLOCK * pBlock;
; 859  : 	void * pRv; 
; 860  : 
; 861  : 	I3ASSERT(nBytes != 0); 
; 862  : 
; 863  : 	#if defined( I3_DEBUG)
; 864  : 		allocSz += sizeof(I3MEMBLOCK);
; 865  : 	#endif
; 866  : 
; 867  : 	#if defined(I3_WINDOWS) || defined( I3_WINCE )
; 868  : 
; 869  : 		#if defined( USE_WIN32_HEAP)
; 870  : 			pBlock = (I3MEMBLOCK *)::HeapAlloc( s_hHeap, 0, allocSz);
; 871  : 		#else
; 872  : 			#if defined( I3_DEBUG)
; 873  : 				pBlock = (I3MEMBLOCK *) _malloc_dbg( allocSz, _NORMAL_BLOCK, FileName, Line);
; 874  : 			#else
; 875  : 				pBlock = (I3MEMBLOCK *) malloc( allocSz);

  0000f	8b 75 08	 mov	 esi, DWORD PTR _nBytes$[ebp]
  00012	56		 push	 esi
  00013	e8 00 00 00 00	 call	 _malloc
  00018	8b f8		 mov	 edi, eax
  0001a	83 c4 04	 add	 esp, 4

; 876  : 			#endif
; 877  : 		#endif
; 878  : 
; 879  : 		if( pBlock == NULL)

  0001d	85 ff		 test	 edi, edi
  0001f	75 10		 jne	 SHORT $LN2@AllocTool

; 880  : 		{
; 881  : 			s_MemoryCs.Leave();

  00021	b9 00 00 00 00	 mov	 ecx, OFFSET ?s_MemoryCs@@3Vi3Mutex2@@A
  00026	e8 00 00 00 00	 call	 ?Leave@i3Mutex2@@QAEXXZ	; i3Mutex2::Leave
  0002b	5f		 pop	 edi

; 882  : 			return NULL;

  0002c	33 c0		 xor	 eax, eax

; 936  : }

  0002e	5e		 pop	 esi
  0002f	5d		 pop	 ebp
  00030	c3		 ret	 0
$LN2@AllocTool:
; File C:\Program Files (x86)\Windows Kits\10\Include\10.0.26100.0\um\winnt.h

; 23421:     while (cnt) {

  00031	85 f6		 test	 esi, esi
  00033	74 0b		 je	 SHORT $LN8@AllocTool
$LL7@AllocTool:

; 23422: 
; 23423: #if !defined(_M_CEE) && (defined(_M_ARM) || defined(_M_ARM64) || defined(_M_ARM64EC))
; 23424: 
; 23425:         __iso_volatile_store8(vptr, 0);
; 23426: 
; 23427: #else
; 23428: 
; 23429:         *vptr = 0;

  00035	c6 00 00	 mov	 BYTE PTR [eax], 0

; 23430: 
; 23431: #endif
; 23432: 
; 23433:         vptr++;

  00038	8d 40 01	 lea	 eax, DWORD PTR [eax+1]

; 23434:         cnt--;

  0003b	83 ee 01	 sub	 esi, 1
  0003e	75 f5		 jne	 SHORT $LL7@AllocTool
$LN8@AllocTool:
; File E:\Proyectos\JuegosOnlineproyectos\PB\pbblow\Piercing Blow Remake\i3Server\src\i3Base\i3Memory.cpp

; 933  : 	s_MemoryCs.Leave(); 

  00040	b9 00 00 00 00	 mov	 ecx, OFFSET ?s_MemoryCs@@3Vi3Mutex2@@A
  00045	e8 00 00 00 00	 call	 ?Leave@i3Mutex2@@QAEXXZ	; i3Mutex2::Leave

; 934  : 
; 935  : 	return pRv; 

  0004a	8b c7		 mov	 eax, edi
  0004c	5f		 pop	 edi

; 936  : }

  0004d	5e		 pop	 esi
  0004e	5d		 pop	 ebp
  0004f	c3		 ret	 0
?AllocTool@i3mem@@YAPAXHHHPBDH@Z ENDP			; i3mem::AllocTool
_TEXT	ENDS
; Function compile flags: /Ogtp
; File E:\Proyectos\JuegosOnlineproyectos\PB\pbblow\Piercing Blow Remake\i3Server\src\i3Base\i3Memory.cpp
; File C:\Program Files (x86)\Windows Kits\10\Include\10.0.26100.0\um\winnt.h
; File E:\Proyectos\JuegosOnlineproyectos\PB\pbblow\Piercing Blow Remake\i3Server\src\i3Base\i3Memory.cpp
; File E:\Proyectos\JuegosOnlineproyectos\PB\pbblow\Piercing Blow Remake\i3Server\include\i3Base\i3Memory.h
; File C:\Program Files (x86)\Windows Kits\10\Include\10.0.26100.0\um\winnt.h
; File E:\Proyectos\JuegosOnlineproyectos\PB\pbblow\Piercing Blow Remake\i3Server\src\i3Base\i3Memory.cpp
;	COMDAT ?AllocGame@i3mem@@YAPAXHHHPBDH@Z
_TEXT	SEGMENT
tv525 = -140						; size = 4
_Align$GSCopy$1$ = -136					; size = 4
_conv$1 = -132						; size = 128
__$ArrayPad$ = -4					; size = 4
_nBytes$ = 8						; size = 4
_State$ = 12						; size = 4
_Align$ = 16						; size = 4
_FileName$ = 20						; size = 4
_Line$ = 24						; size = 4
?AllocGame@i3mem@@YAPAXHHHPBDH@Z PROC			; i3mem::AllocGame, COMDAT

; 361  : {

  00000	55		 push	 ebp
  00001	8b ec		 mov	 ebp, esp
  00003	81 ec 8c 00 00
	00		 sub	 esp, 140		; 0000008cH
  00009	a1 00 00 00 00	 mov	 eax, DWORD PTR ___security_cookie
  0000e	33 c5		 xor	 eax, ebp
  00010	89 45 fc	 mov	 DWORD PTR __$ArrayPad$[ebp], eax
  00013	8b 45 10	 mov	 eax, DWORD PTR _Align$[ebp]

; 362  : 	s_MemoryCs.Enter(); 

  00016	b9 00 00 00 00	 mov	 ecx, OFFSET ?s_MemoryCs@@3Vi3Mutex2@@A
  0001b	53		 push	 ebx
  0001c	56		 push	 esi
  0001d	57		 push	 edi
  0001e	8b 7d 08	 mov	 edi, DWORD PTR _nBytes$[ebp]
  00021	89 85 78 ff ff
	ff		 mov	 DWORD PTR _Align$GSCopy$1$[ebp], eax
  00027	e8 00 00 00 00	 call	 ?Enter@i3Mutex2@@QAEXXZ	; i3Mutex2::Enter

; 363  : 
; 364  : 	I3MEMBLOCK	* pBlockPointer;
; 365  : 	I3MEMBLOCK	* pPreBlock; 
; 366  : 	LPI3MEM  pTempPointer; 
; 367  : 	LPI3MEM  pMemPointer; 
; 368  : 	I3ASSERT(nBytes != 0); 
; 369  : 
; 370  : 	nBytes		= ALIGNUP( nBytes, Align);

  0002c	8b 8d 78 ff ff
	ff		 mov	 ecx, DWORD PTR _Align$GSCopy$1$[ebp]
  00032	4f		 dec	 edi

; 371  : 	
; 372  : 	pBlockPointer = s_pFreeBlockHead;

  00033	8b 35 00 00 00
	00		 mov	 esi, DWORD PTR ?s_pFreeBlockHead@@3PAUI3MEMBLOCK@@A
  00039	03 f9		 add	 edi, ecx

; 373  : 	pPreBlock		= NULL; 

  0003b	33 db		 xor	 ebx, ebx
  0003d	8d 41 ff	 lea	 eax, DWORD PTR [ecx-1]
  00040	f7 d0		 not	 eax
  00042	23 f8		 and	 edi, eax
  00044	89 85 74 ff ff
	ff		 mov	 DWORD PTR tv525[ebp], eax

; 374  : 	
; 375  : 	//First Fit 
; 376  : 	while(pBlockPointer != NULL)

  0004a	85 f6		 test	 esi, esi
  0004c	74 31		 je	 SHORT $LN41@AllocGame
  0004e	8b ff		 npad	 2
$LL2@AllocGame:

; 377  : 	{		
; 378  : 		if( (pBlockPointer->m_pPointer == NULL ) &&  (pBlockPointer->m_Size >= nBytes) )

  00050	83 3e 00	 cmp	 DWORD PTR [esi], 0
  00053	75 21		 jne	 SHORT $LN7@AllocGame
  00055	8b 56 0c	 mov	 edx, DWORD PTR [esi+12]
  00058	3b d7		 cmp	 edx, edi
  0005a	7c 1a		 jl	 SHORT $LN7@AllocGame

; 379  : 		{
; 380  : 			pTempPointer = (LPI3MEM)pBlockPointer + sizeof(I3MEMBLOCK) + INFO_SIZE;
; 381  : 			pMemPointer = (LPI3MEM)ALIGNUP( pTempPointer , Align);
; 382  : 			if( pBlockPointer->m_Size >= ( (pMemPointer - pTempPointer) + nBytes) )

  0005c	49		 dec	 ecx
  0005d	8d 46 18	 lea	 eax, DWORD PTR [esi+24]
  00060	03 c8		 add	 ecx, eax
  00062	23 8d 74 ff ff
	ff		 and	 ecx, DWORD PTR tv525[ebp]
  00068	2b c8		 sub	 ecx, eax
  0006a	03 cf		 add	 ecx, edi
  0006c	3b d1		 cmp	 edx, ecx
  0006e	7d 6b		 jge	 SHORT $LN11@AllocGame
  00070	8b 8d 78 ff ff
	ff		 mov	 ecx, DWORD PTR _Align$GSCopy$1$[ebp]
$LN7@AllocGame:

; 383  : 				break;
; 384  : 		}
; 385  : 		pPreBlock		= pBlockPointer;

  00076	8b de		 mov	 ebx, esi

; 386  : 		pBlockPointer	= pBlockPointer->m_Next;

  00078	8b 76 08	 mov	 esi, DWORD PTR [esi+8]
  0007b	85 f6		 test	 esi, esi
  0007d	75 d1		 jne	 SHORT $LL2@AllocGame
$LN41@AllocGame:

; 387  : 	}
; 388  : 	
; 389  : 	if(pBlockPointer == NULL)
; 390  : 	{
; 391  : 	#ifdef I3_DEBUG
; 392  : 		Dump(); 
; 393  : 		I3TRACE1("[i3mem::Alloc] Not Enough Memory Size = %d, So Gather Free Memory Block \n", nBytes); 		
; 394  : 	#endif
; 395  : 		CompactGame();

  0007f	e8 00 00 00 00	 call	 ?CompactGame@i3mem@@YAXXZ ; i3mem::CompactGame

; 396  : 		pBlockPointer = s_pFreeBlockHead;

  00084	8b 35 00 00 00
	00		 mov	 esi, DWORD PTR ?s_pFreeBlockHead@@3PAUI3MEMBLOCK@@A

; 397  : 		pPreBlock		= NULL; 

  0008a	33 db		 xor	 ebx, ebx

; 398  : 		
; 399  : 		//First Fit 
; 400  : 		while(pBlockPointer != NULL)

  0008c	85 f6		 test	 esi, esi
  0008e	74 2f		 je	 SHORT $LN42@AllocGame
$LL4@AllocGame:

; 401  : 		{		
; 402  : 			if( (pBlockPointer->m_pPointer == NULL ) &&  (pBlockPointer->m_Size >= nBytes) )

  00090	83 3e 00	 cmp	 DWORD PTR [esi], 0
  00093	75 21		 jne	 SHORT $LN10@AllocGame
  00095	8b 56 0c	 mov	 edx, DWORD PTR [esi+12]
  00098	3b d7		 cmp	 edx, edi
  0009a	7c 1a		 jl	 SHORT $LN10@AllocGame

; 403  : 			{
; 404  : 				pTempPointer = (LPI3MEM)pBlockPointer + sizeof(I3MEMBLOCK) + INFO_SIZE;
; 405  : 				pMemPointer = (LPI3MEM)ALIGNUP( pTempPointer , Align);			
; 406  : 				if( pBlockPointer->m_Size >= ( (pMemPointer - pTempPointer) + nBytes) )

  0009c	8b 8d 78 ff ff
	ff		 mov	 ecx, DWORD PTR _Align$GSCopy$1$[ebp]
  000a2	8d 46 18	 lea	 eax, DWORD PTR [esi+24]
  000a5	49		 dec	 ecx
  000a6	03 c8		 add	 ecx, eax
  000a8	23 8d 74 ff ff
	ff		 and	 ecx, DWORD PTR tv525[ebp]
  000ae	2b c8		 sub	 ecx, eax
  000b0	03 cf		 add	 ecx, edi
  000b2	3b d1		 cmp	 edx, ecx
  000b4	7d 25		 jge	 SHORT $LN11@AllocGame
$LN10@AllocGame:

; 407  : 					break;
; 408  : 			}
; 409  : 			pPreBlock		= pBlockPointer; 

  000b6	8b de		 mov	 ebx, esi

; 410  : 			pBlockPointer	= pBlockPointer->m_Next;		

  000b8	8b 76 08	 mov	 esi, DWORD PTR [esi+8]
  000bb	85 f6		 test	 esi, esi
  000bd	75 d1		 jne	 SHORT $LL4@AllocGame
$LN42@AllocGame:

; 411  : 		}	
; 412  : 		
; 413  : 		if(pBlockPointer == NULL)
; 414  : 		{			
; 415  : 			I3TRACE1("[i3mem::Alloc] Not Enough Memory Size = %d \n", nBytes); 

  000bf	57		 push	 edi
  000c0	8d 85 7c ff ff
	ff		 lea	 eax, DWORD PTR _conv$1[ebp]
  000c6	68 00 00 00 00	 push	 OFFSET ??_C@_0CN@MCILIPOL@?$FLi3mem?3?3Alloc?$FN?5Not?5Enough?5Memor@
  000cb	50		 push	 eax
  000cc	e8 00 00 00 00	 call	 _sprintf

; 416  : 			Dump(); 

  000d1	6a 06		 push	 6
  000d3	e8 00 00 00 00	 call	 ?Dump@i3mem@@YAXH@Z	; i3mem::Dump
  000d8	83 c4 10	 add	 esp, 16			; 00000010H
$LN11@AllocGame:

; 417  : 			I3ASSERT_0; 
; 418  : 		}
; 419  : 	}
; 420  : 
; 421  : 	//Free BlockżˇĽ­ »čÁ¦.
; 422  : 	if( s_pFreeBlockHead == pBlockPointer)	s_pFreeBlockHead = pBlockPointer->m_Next;

  000db	8b 46 08	 mov	 eax, DWORD PTR [esi+8]
  000de	39 35 00 00 00
	00		 cmp	 DWORD PTR ?s_pFreeBlockHead@@3PAUI3MEMBLOCK@@A, esi
  000e4	75 07		 jne	 SHORT $LN12@AllocGame
  000e6	a3 00 00 00 00	 mov	 DWORD PTR ?s_pFreeBlockHead@@3PAUI3MEMBLOCK@@A, eax
  000eb	eb 03		 jmp	 SHORT $LN13@AllocGame
$LN12@AllocGame:

; 423  : 	else
; 424  : 	{
; 425  : 		I3ASSERT( pPreBlock != NULL);
; 426  : 
; 427  : 		pPreBlock->m_Next = pBlockPointer->m_Next;

  000ed	89 43 08	 mov	 DWORD PTR [ebx+8], eax
$LN13@AllocGame:

; 428  : 	}
; 429  : 
; 430  : 	pTempPointer = (LPI3MEM)pBlockPointer + sizeof(I3MEMBLOCK) + INFO_SIZE;
; 431  : 	pMemPointer  = (LPI3MEM)ALIGNUP( pTempPointer , Align );

  000f0	8b 8d 78 ff ff
	ff		 mov	 ecx, DWORD PTR _Align$GSCopy$1$[ebp]

; 432  : 
; 433  : 	//Set New Size 
; 434  : 	pBlockPointer->m_pPointer = pMemPointer; 
; 435  : 	pBlockPointer->m_StateAlign	= (Align & I3_MEMORY_ALIGN) | (State & I3_MEMORY_STATE);		

  000f6	8b c1		 mov	 eax, ecx
  000f8	33 45 0c	 xor	 eax, DWORD PTR _State$[ebp]
  000fb	25 00 00 ff ff	 and	 eax, -65536		; ffff0000H
  00100	33 c1		 xor	 eax, ecx
  00102	8d 59 17	 lea	 ebx, DWORD PTR [ecx+23]
  00105	89 46 10	 mov	 DWORD PTR [esi+16], eax
  00108	03 de		 add	 ebx, esi

; 436  : 
; 437  : 	//Set Memory Info 
; 438  : 	#if defined( I3_DEBUG)
; 439  : 	pBlockPointer->m_pAllocPos = FileName;
; 440  : 	pBlockPointer->m_Line = Line;
; 441  : 	#endif
; 442  : 
; 443  : 	//Set Info Pointer
; 444  : 	LPI3MEM pInfoPointer = (LPI3MEM)(pMemPointer - INFO_SIZE);
; 445  : 	memcpy( pInfoPointer, &pBlockPointer, INFO_SIZE );
; 446  : 
; 447  : 	if( pBlockPointer->m_Size > (INT32)( ( nBytes + sizeof(I3MEMBLOCK) + INFO_SIZE) + DIVIDE_SIZE ) )

  0010a	8d 87 18 04 00
	00		 lea	 eax, DWORD PTR [edi+1048]
  00110	23 9d 74 ff ff
	ff		 and	 ebx, DWORD PTR tv525[ebp]
  00116	89 1e		 mov	 DWORD PTR [esi], ebx
  00118	89 73 fc	 mov	 DWORD PTR [ebx-4], esi
  0011b	8b 56 0c	 mov	 edx, DWORD PTR [esi+12]
  0011e	3b d0		 cmp	 edx, eax
  00120	7e 37		 jle	 SHORT $LN14@AllocGame

; 448  : 	{
; 449  : 		I3MEMBLOCK	* pNewFreeBlock;
; 450  : 		LPI3MEM		pStartPointer;
; 451  : 		LPI3MEM		pCenterPointer; 
; 452  : 		LPI3MEM		pEndPointer;
; 453  : 		
; 454  : 		pStartPointer	= (LPI3MEM)pBlockPointer; 
; 455  : 		pCenterPointer	= pBlockPointer->m_pPointer + nBytes;

  00122	8b 0e		 mov	 ecx, DWORD PTR [esi]
  00124	03 cf		 add	 ecx, edi

; 456  : 		pEndPointer		= (pStartPointer + INFO_SIZE + sizeof(I3MEMBLOCK) + pBlockPointer->m_Size ); 
; 457  : 
; 458  : 		//Set New Block Memory size; 
; 459  : 		pBlockPointer->m_Size = (pCenterPointer - pStartPointer) - (INFO_SIZE + sizeof(I3MEMBLOCK)); 

  00126	8b c1		 mov	 eax, ecx

; 460  : 
; 461  : 		//Set New Free Block Memory;
; 462  : 		pNewFreeBlock = (I3MEMBLOCK	* )pCenterPointer;
; 463  : 		pNewFreeBlock->m_pPointer	= NULL; 
; 464  : 		pNewFreeBlock->m_Prev		= NULL; 
; 465  : 		pNewFreeBlock->m_Next		= NULL;
; 466  : 		pNewFreeBlock->m_Size		= (pEndPointer - pCenterPointer) - (INFO_SIZE + sizeof(I3MEMBLOCK)); 

  00128	2b d1		 sub	 edx, ecx
  0012a	2b c6		 sub	 eax, esi
  0012c	83 e8 18	 sub	 eax, 24			; 00000018H
  0012f	03 d6		 add	 edx, esi
  00131	89 46 0c	 mov	 DWORD PTR [esi+12], eax

; 467  : 		pNewFreeBlock->m_StateAlign = 0; 
; 468  : 
; 469  : 		//Set FreeBlock 
; 470  : 		pNewFreeBlock->m_Next	= s_pFreeBlockHead;

  00134	a1 00 00 00 00	 mov	 eax, DWORD PTR ?s_pFreeBlockHead@@3PAUI3MEMBLOCK@@A
  00139	c7 01 00 00 00
	00		 mov	 DWORD PTR [ecx], 0
  0013f	c7 41 04 00 00
	00 00		 mov	 DWORD PTR [ecx+4], 0
  00146	89 51 0c	 mov	 DWORD PTR [ecx+12], edx
  00149	c7 41 10 00 00
	00 00		 mov	 DWORD PTR [ecx+16], 0
  00150	89 41 08	 mov	 DWORD PTR [ecx+8], eax

; 471  : 		s_pFreeBlockHead		= pNewFreeBlock;

  00153	89 0d 00 00 00
	00		 mov	 DWORD PTR ?s_pFreeBlockHead@@3PAUI3MEMBLOCK@@A, ecx
$LN14@AllocGame:

; 91   : 	if(s_pAllocBlockHead == NULL)

  00159	a1 00 00 00 00	 mov	 eax, DWORD PTR ?s_pAllocBlockHead@@3PAUI3MEMBLOCK@@A
  0015e	85 c0		 test	 eax, eax
  00160	75 05		 jne	 SHORT $LN17@AllocGame

; 92   : 	{			
; 93   : 		pBlock->m_Next	= NULL;		
; 94   : 		pBlock->m_Prev	= NULL; 

  00162	89 46 04	 mov	 DWORD PTR [esi+4], eax

; 95   : 	}else

  00165	eb 06		 jmp	 SHORT $LN18@AllocGame
$LN17@AllocGame:

; 96   : 	{		
; 97   : 		s_pAllocBlockHead->m_Next	= pBlock;

  00167	89 70 08	 mov	 DWORD PTR [eax+8], esi

; 98   : 		pBlock->m_Prev				= s_pAllocBlockHead; 

  0016a	89 46 04	 mov	 DWORD PTR [esi+4], eax
$LN18@AllocGame:

; 101  : 	s_pAllocBlockHead = pBlock;

  0016d	c7 46 08 00 00
	00 00		 mov	 DWORD PTR [esi+8], 0
; File C:\Program Files (x86)\Windows Kits\10\Include\10.0.26100.0\um\winnt.h

; 23413:     volatile char *vptr = (volatile char *)ptr;

  00174	8b d3		 mov	 edx, ebx
; File E:\Proyectos\JuegosOnlineproyectos\PB\pbblow\Piercing Blow Remake\i3Server\src\i3Base\i3Memory.cpp

; 101  : 	s_pAllocBlockHead = pBlock;

  00176	89 35 00 00 00
	00		 mov	 DWORD PTR ?s_pAllocBlockHead@@3PAUI3MEMBLOCK@@A, esi
; File E:\Proyectos\JuegosOnlineproyectos\PB\pbblow\Piercing Blow Remake\i3Server\include\i3Base\i3Memory.h

; 144  : 			::SecureZeroMemory( pDest, sz);

  0017c	8b 76 0c	 mov	 esi, DWORD PTR [esi+12]
; File C:\Program Files (x86)\Windows Kits\10\Include\10.0.26100.0\um\winnt.h

; 23421:     while (cnt) {

  0017f	85 f6		 test	 esi, esi
  00181	74 0b		 je	 SHORT $LN24@AllocGame
$LL23@AllocGame:

; 23422: 
; 23423: #if !defined(_M_CEE) && (defined(_M_ARM) || defined(_M_ARM64) || defined(_M_ARM64EC))
; 23424: 
; 23425:         __iso_volatile_store8(vptr, 0);
; 23426: 
; 23427: #else
; 23428: 
; 23429:         *vptr = 0;

  00183	c6 02 00	 mov	 BYTE PTR [edx], 0

; 23430: 
; 23431: #endif
; 23432: 
; 23433:         vptr++;

  00186	8d 52 01	 lea	 edx, DWORD PTR [edx+1]

; 23434:         cnt--;

  00189	83 ee 01	 sub	 esi, 1
  0018c	75 f5		 jne	 SHORT $LL23@AllocGame
$LN24@AllocGame:
; File E:\Proyectos\JuegosOnlineproyectos\PB\pbblow\Piercing Blow Remake\i3Server\src\i3Base\i3Memory.cpp

; 492  : 	s_MemoryCs.Leave(); 

  0018e	b9 00 00 00 00	 mov	 ecx, OFFSET ?s_MemoryCs@@3Vi3Mutex2@@A
  00193	e8 00 00 00 00	 call	 ?Leave@i3Mutex2@@QAEXXZ	; i3Mutex2::Leave

; 493  : 
; 494  : 	return pMemPointer; 
; 495  : }

  00198	8b 4d fc	 mov	 ecx, DWORD PTR __$ArrayPad$[ebp]
  0019b	8b c3		 mov	 eax, ebx
  0019d	5f		 pop	 edi
  0019e	5e		 pop	 esi
  0019f	33 cd		 xor	 ecx, ebp
  001a1	5b		 pop	 ebx
  001a2	e8 00 00 00 00	 call	 @__security_check_cookie@4
  001a7	8b e5		 mov	 esp, ebp
  001a9	5d		 pop	 ebp
  001aa	c3		 ret	 0
?AllocGame@i3mem@@YAPAXHHHPBDH@Z ENDP			; i3mem::AllocGame
_TEXT	ENDS
; Function compile flags: /Ogtp
; File E:\Proyectos\JuegosOnlineproyectos\PB\pbblow\Piercing Blow Remake\i3Server\src\i3Base\i3Memory.cpp
;	COMDAT ?Destroy@i3mem@@YAXXZ
_TEXT	SEGMENT
?Destroy@i3mem@@YAXXZ PROC				; i3mem::Destroy, COMDAT

; 315  : 	//Delete Memory
; 316  : 	if (s_pBuffer == NULL)

  00000	a1 00 00 00 00	 mov	 eax, DWORD PTR ?s_pBuffer@@3PADA
  00005	85 c0		 test	 eax, eax
  00007	74 43		 je	 SHORT $LN1@Destroy

; 317  : 	{
; 318  : 		I3TRACE("[i3mem::Destroy] s_pBuffer is NULL \n"); 
; 319  : 		return; 
; 320  : 	}
; 321  : 
; 322  : #ifdef I3_PSP
; 323  : 	free( s_pBuffer);
; 324  : #elif defined( I3_WINDOWS ) || defined( I3_WINCE )
; 325  : 	if( s_pBuffer != NULL)
; 326  : 	{
; 327  : 		::LocalFree( s_pBuffer);

  00009	50		 push	 eax
  0000a	ff 15 00 00 00
	00		 call	 DWORD PTR __imp__LocalFree@4

; 328  : 	}
; 329  : 
; 330  : 	#if defined( USE_WIN32_HEAP)
; 331  : 		if( s_hHeap != NULL)
; 332  : 		{
; 333  : 			::HeapDestroy( s_hHeap);
; 334  : 			s_hHeap = NULL;
; 335  : 		}
; 336  : 	#endif
; 337  : 
; 338  : #elif defined( I3_WIPI)
; 339  : 	MC_knlFree( s_hMem ); 	
; 340  : #else
; 341  : 	free( s_pBuffer );
; 342  : #endif
; 343  : 
; 344  : 	//Set Value 
; 345  : 	s_Size				= -1;

  00010	c7 05 00 00 00
	00 ff ff ff ff	 mov	 DWORD PTR ?s_Size@@3HA, -1

; 346  : 	s_pBuffer			= NULL;

  0001a	c7 05 00 00 00
	00 00 00 00 00	 mov	 DWORD PTR ?s_pBuffer@@3PADA, 0

; 347  : 	s_pPointer[0]		= s_pPointer[1]		= NULL;	

  00024	c7 05 04 00 00
	00 00 00 00 00	 mov	 DWORD PTR ?s_pPointer@@3PAPADA+4, 0
  0002e	c7 05 00 00 00
	00 00 00 00 00	 mov	 DWORD PTR ?s_pPointer@@3PAPADA, 0

; 348  : 	s_pMovePointer[0]	= s_pMovePointer[1] = NULL;

  00038	c7 05 04 00 00
	00 00 00 00 00	 mov	 DWORD PTR ?s_pMovePointer@@3PAPADA+4, 0
  00042	c7 05 00 00 00
	00 00 00 00 00	 mov	 DWORD PTR ?s_pMovePointer@@3PAPADA, 0
$LN1@Destroy:

; 349  : 
; 350  : #if defined(I3_MEM_NET_DUMP)
; 351  : 	CloseHandle( s_hFile ); 
; 352  : #endif
; 353  : 	return;
; 354  : }

  0004c	c3		 ret	 0
?Destroy@i3mem@@YAXXZ ENDP				; i3mem::Destroy
_TEXT	ENDS
; Function compile flags: /Ogtp
; File E:\Proyectos\JuegosOnlineproyectos\PB\pbblow\Piercing Blow Remake\i3Server\src\i3Base\i3Memory.cpp
; File E:\Proyectos\JuegosOnlineproyectos\PB\pbblow\Piercing Blow Remake\i3Server\include\i3Base\i3Memory.h
; File E:\Proyectos\JuegosOnlineproyectos\PB\pbblow\Piercing Blow Remake\i3Server\src\i3Base\i3Memory.cpp
; File C:\Program Files (x86)\Windows Kits\10\Include\10.0.26100.0\um\winnt.h
; File E:\Proyectos\JuegosOnlineproyectos\PB\pbblow\Piercing Blow Remake\i3Server\src\i3Base\i3Memory.cpp
;	COMDAT ?Create@i3mem@@YAXHHPAD@Z
_TEXT	SEGMENT
_Size$ = 8						; size = 4
_IsGame$ = 12						; size = 4
_pMemoryName$ = 16					; size = 4
?Create@i3mem@@YAXHHPAD@Z PROC				; i3mem::Create, COMDAT

; 174  : {

  00000	55		 push	 ebp
  00001	8b ec		 mov	 ebp, esp
  00003	53		 push	 ebx

; 175  : //#if defined( I3_DEBUG)
; 176  : //	_CrtSetDbgFlag( _CRTDBG_CHECK_ALWAYS_DF);
; 177  : //#endif
; 178  : 
; 179  : 	
; 180  : 	if(IsGame)

  00004	8b 5d 0c	 mov	 ebx, DWORD PTR _IsGame$[ebp]
  00007	56		 push	 esi
  00008	8b 75 08	 mov	 esi, DWORD PTR _Size$[ebp]
  0000b	85 db		 test	 ebx, ebx
  0000d	0f 84 82 00 00
	00		 je	 $LN2@Create

; 191  : 		s_pBuffer = (LPI3MEM)::LocalAlloc( LPTR, Size );

  00013	57		 push	 edi
  00014	56		 push	 esi
  00015	6a 40		 push	 64			; 00000040H
  00017	c7 05 00 00 00
	00 00 00 00 00	 mov	 DWORD PTR ?Alloc@i3mem@@3P6APAXHHHPBDH@ZA, OFFSET ?AllocGame@i3mem@@YAPAXHHHPBDH@Z ; i3mem::Alloc, i3mem::AllocGame
  00021	c7 05 00 00 00
	00 00 00 00 00	 mov	 DWORD PTR ?Realloc@i3mem@@3P6APAXPAXHHPBDH@ZA, OFFSET ?ReallocGame@i3mem@@YAPAXPAXHHPBDH@Z ; i3mem::Realloc, i3mem::ReallocGame
  0002b	c7 05 00 00 00
	00 00 00 00 00	 mov	 DWORD PTR ?Free@i3mem@@3P6AXPAXPBDH@ZA, OFFSET ?FreeGame@i3mem@@YAXPAXPBDH@Z ; i3mem::Free, i3mem::FreeGame
  00035	c7 05 00 00 00
	00 00 00 00 00	 mov	 DWORD PTR ?Compact@i3mem@@3P6AXXZA, OFFSET ?CompactGame@i3mem@@YAXXZ ; i3mem::Compact, i3mem::CompactGame
  0003f	ff 15 00 00 00
	00		 call	 DWORD PTR __imp__LocalAlloc@8
  00045	8b f8		 mov	 edi, eax
; File E:\Proyectos\JuegosOnlineproyectos\PB\pbblow\Piercing Blow Remake\i3Server\include\i3Base\i3Memory.h

; 144  : 			::SecureZeroMemory( pDest, sz);

  00047	8b d6		 mov	 edx, esi
; File E:\Proyectos\JuegosOnlineproyectos\PB\pbblow\Piercing Blow Remake\i3Server\src\i3Base\i3Memory.cpp

; 191  : 		s_pBuffer = (LPI3MEM)::LocalAlloc( LPTR, Size );

  00049	89 3d 00 00 00
	00		 mov	 DWORD PTR ?s_pBuffer@@3PADA, edi
; File C:\Program Files (x86)\Windows Kits\10\Include\10.0.26100.0\um\winnt.h

; 23421:     while (cnt) {

  0004f	85 f6		 test	 esi, esi
  00051	74 0d		 je	 SHORT $LN9@Create
  00053	8b cf		 mov	 ecx, edi
$LL8@Create:

; 23422: 
; 23423: #if !defined(_M_CEE) && (defined(_M_ARM) || defined(_M_ARM64) || defined(_M_ARM64EC))
; 23424: 
; 23425:         __iso_volatile_store8(vptr, 0);
; 23426: 
; 23427: #else
; 23428: 
; 23429:         *vptr = 0;

  00055	c6 01 00	 mov	 BYTE PTR [ecx], 0

; 23430: 
; 23431: #endif
; 23432: 
; 23433:         vptr++;

  00058	8d 49 01	 lea	 ecx, DWORD PTR [ecx+1]

; 23434:         cnt--;

  0005b	83 ea 01	 sub	 edx, 1
  0005e	75 f5		 jne	 SHORT $LL8@Create
$LN9@Create:
; File E:\Proyectos\JuegosOnlineproyectos\PB\pbblow\Piercing Blow Remake\i3Server\src\i3Base\i3Memory.cpp

; 209  : 		s_pPointer[0]	= s_pMovePointer[0] = &s_pBuffer[0]; 

  00060	8d 04 37	 lea	 eax, DWORD PTR [edi+esi]
  00063	89 3d 00 00 00
	00		 mov	 DWORD PTR ?s_pMovePointer@@3PAPADA, edi

; 210  : 		s_pPointer[1]	= s_pMovePointer[1] = &s_pBuffer[Size];

  00069	a3 04 00 00 00	 mov	 DWORD PTR ?s_pMovePointer@@3PAPADA+4, eax
  0006e	a3 04 00 00 00	 mov	 DWORD PTR ?s_pPointer@@3PAPADA+4, eax

; 211  : 		s_Size			= Size;
; 212  : #if defined( I3_DEBUG)
; 213  : 		s_AllocSize		= 0;
; 214  : 		s_AllocCount	= 0; 
; 215  : #endif
; 216  : 		//Set Free Block 
; 217  : 		s_pAllocBlockHead	= NULL;
; 218  : 		s_pFreeBlockHead	= NULL;
; 219  : 
; 220  : 		//Make Free Block 
; 221  : 		s_pFreeBlockHead	= (I3MEMBLOCK *)s_pBuffer; 
; 222  : 		s_pFreeBlockHead->m_pPointer	= NULL;

  00073	8d 46 e8	 lea	 eax, DWORD PTR [esi-24]
  00076	89 3d 00 00 00
	00		 mov	 DWORD PTR ?s_pPointer@@3PAPADA, edi
  0007c	89 3d 00 00 00
	00		 mov	 DWORD PTR ?s_pFreeBlockHead@@3PAUI3MEMBLOCK@@A, edi
  00082	c7 07 00 00 00
	00		 mov	 DWORD PTR [edi], 0

; 223  : 		s_pFreeBlockHead->m_Size		= s_Size - ( sizeof(I3MEMBLOCK) + INFO_SIZE ); 

  00088	89 47 0c	 mov	 DWORD PTR [edi+12], eax

; 224  : 		s_pFreeBlockHead->m_StateAlign	= 0;

  0008b	c7 47 10 00 00
	00 00		 mov	 DWORD PTR [edi+16], 0
  00092	5f		 pop	 edi

; 225  : 
; 226  : 	#ifdef I3_DEBUG
; 227  : 		I3TRACE2("[i3mem::Create] Create Memory Size = %d Pointer 0x%x \n", s_Size, s_pBuffer);
; 228  : 	#endif
; 229  : 	}

  00093	eb 5c		 jmp	 SHORT $LN3@Create
$LN2@Create:

; 230  : 	else
; 231  : 	{
; 232  : 		//ĹřżëŔ¸·Î »çżëÇŇ¶§ 
; 233  : 		Alloc				= AllocTool; 

  00095	c7 05 00 00 00
	00 00 00 00 00	 mov	 DWORD PTR ?Alloc@i3mem@@3P6APAXHHHPBDH@ZA, OFFSET ?AllocTool@i3mem@@YAPAXHHHPBDH@Z ; i3mem::Alloc, i3mem::AllocTool

; 234  : 		Realloc				= ReallocTool;
; 235  : 		Free				= FreeTool;
; 236  : 		Compact				= CompactTool; 
; 237  : 
; 238  : 		s_pPointer[0]		= s_pMovePointer[0] = NULL; 
; 239  : 		s_pPointer[1]		= s_pMovePointer[1] = NULL;
; 240  : 		s_Size				= 0;
; 241  : #if defined( I3_DEBUG)
; 242  : 		s_AllocSize			= 0;		
; 243  : 		s_AllocCount		= 0; 
; 244  : #endif
; 245  : 		s_pAllocBlockHead	= NULL;
; 246  : 		s_pFreeBlockHead	= NULL;

  0009f	33 f6		 xor	 esi, esi
  000a1	c7 05 00 00 00
	00 00 00 00 00	 mov	 DWORD PTR ?Realloc@i3mem@@3P6APAXPAXHHPBDH@ZA, OFFSET ?ReallocTool@i3mem@@YAPAXPAXHHPBDH@Z ; i3mem::Realloc, i3mem::ReallocTool
  000ab	c7 05 00 00 00
	00 00 00 00 00	 mov	 DWORD PTR ?Free@i3mem@@3P6AXPAXPBDH@ZA, OFFSET ?FreeTool@i3mem@@YAXPAXPBDH@Z ; i3mem::Free, i3mem::FreeTool
  000b5	c7 05 00 00 00
	00 00 00 00 00	 mov	 DWORD PTR ?Compact@i3mem@@3P6AXXZA, OFFSET ?CompactTool@i3mem@@YAXXZ ; i3mem::Compact, i3mem::CompactTool
  000bf	c7 05 00 00 00
	00 00 00 00 00	 mov	 DWORD PTR ?s_pMovePointer@@3PAPADA, 0
  000c9	c7 05 00 00 00
	00 00 00 00 00	 mov	 DWORD PTR ?s_pPointer@@3PAPADA, 0
  000d3	c7 05 04 00 00
	00 00 00 00 00	 mov	 DWORD PTR ?s_pMovePointer@@3PAPADA+4, 0
  000dd	c7 05 04 00 00
	00 00 00 00 00	 mov	 DWORD PTR ?s_pPointer@@3PAPADA+4, 0
  000e7	c7 05 00 00 00
	00 00 00 00 00	 mov	 DWORD PTR ?s_pFreeBlockHead@@3PAUI3MEMBLOCK@@A, 0
$LN3@Create:

; 247  : 
; 248  : 		#if defined( I3_WINDOWS)
; 249  : 		{
; 250  : 			#if defined( USE_WIN32_HEAP)
; 251  : 				s_hHeap = HeapCreate( HEAP_NO_SERIALIZE, 0, 0);
; 252  : 				I3ASSERT( s_hHeap != NULL);
; 253  : 
; 254  : 			/*
; 255  : 			{
; 256  : 				ULONG data = 2;
; 257  : 				HeapSetInformation( s_hHeap, HeapCompatibilityInformation, (PVOID) &data, sizeof(data));
; 258  : 			}
; 259  : 			*/
; 260  : 			#endif
; 261  : 		}
; 262  : 		#endif
; 263  : 
; 264  : 		#ifdef I3_DEBUG
; 265  : 		I3TRACE("[i3mem::Create] Tool Create Memory \n");
; 266  : 		#endif
; 267  : 	}
; 268  : 
; 269  : #if defined(I3_MEM_NET_DUMP)
; 270  : 	if(pMemoryName != NULL)
; 271  : 	{
; 272  : 		INT32 DumpCount = I3_MEM_BUFFER_MAX_COUNT; 
; 273  : 		INT32 DumpMemSize = sizeof(MEM_NET_ALLOC_INFO) * I3_MEM_BUFFER_MAX_COUNT; 
; 274  : 
; 275  : 		s_hFile = ::OpenFileMapping(FILE_MAP_WRITE, FALSE, pMemoryName);	
; 276  : 
; 277  : 		if( !s_hFile ) 
; 278  : 		{
; 279  : 			s_hFile = ::CreateFileMapping(INVALID_HANDLE_VALUE, NULL, PAGE_READWRITE, 0, DumpMemSize,  pMemoryName);
; 280  : 			if(s_hFile)
; 281  : 			{
; 282  : 				s_pMappingHeader = (FILE_MAPPING_HEADER*) ::MapViewOfFile(s_hFile, FILE_MAP_ALL_ACCESS, 0, 0, 0);
; 283  : 				s_pMappingHeader->_size = DumpCount; 
; 284  : 				s_pMappingHeader->_idxWrite = 0; 
; 285  : 				s_pMappingHeader->_idxRead  = 0;
; 286  : 				s_pNetAllocInfo = (MEM_NET_ALLOC_INFO*) ((char*)s_pMappingHeader + sizeof(FILE_MAPPING_HEADER) ); 
; 287  : 			}
; 288  : 			else 
; 289  : 			{
; 290  : 				I3TRACE("[i3mem::Init] Error I3_MEM_NET_DUMP Failed \n");
; 291  : 			}
; 292  : 		}
; 293  : 		else
; 294  : 		{
; 295  : 			s_pMappingHeader = (FILE_MAPPING_HEADER*) ::MapViewOfFile(s_hFile, FILE_MAP_ALL_ACCESS, 0, 0, 0);	
; 296  : 			s_pNetAllocInfo  = (MEM_NET_ALLOC_INFO*) ((char*)s_pMappingHeader + sizeof(FILE_MAPPING_HEADER) ); 
; 297  : 		}
; 298  : 	}
; 299  : 	else
; 300  : 	{
; 301  : 		s_pMappingHeader = NULL; 		
; 302  : 	}
; 303  : #endif
; 304  : 
; 305  : 	s_IsGame = IsGame; 

  000f1	89 35 00 00 00
	00		 mov	 DWORD PTR ?s_Size@@3HA, esi
  000f7	5e		 pop	 esi
  000f8	89 1d 00 00 00
	00		 mov	 DWORD PTR ?s_IsGame@@3HA, ebx
  000fe	c7 05 00 00 00
	00 00 00 00 00	 mov	 DWORD PTR ?s_pAllocBlockHead@@3PAUI3MEMBLOCK@@A, 0
  00108	5b		 pop	 ebx

; 306  : 	return;  
; 307  : }

  00109	5d		 pop	 ebp
  0010a	c3		 ret	 0
?Create@i3mem@@YAXHHPAD@Z ENDP				; i3mem::Create
_TEXT	ENDS
; Function compile flags: /Ogtp
; File C:\Program Files (x86)\Windows Kits\10\Include\10.0.26100.0\ucrt\stdio.h
;	COMDAT _sprintf
_TEXT	SEGMENT
__Buffer$ = 8						; size = 4
__Format$ = 12						; size = 4
_sprintf PROC						; COMDAT

; 1771 :     {

  00000	55		 push	 ebp
  00001	8b ec		 mov	 ebp, esp

; 1392 :         int const _Result = __stdio_common_vsprintf(

  00003	8d 45 10	 lea	 eax, DWORD PTR __Format$[ebp+4]
  00006	50		 push	 eax
  00007	6a 00		 push	 0
  00009	ff 75 0c	 push	 DWORD PTR __Format$[ebp]
  0000c	6a ff		 push	 -1
  0000e	ff 75 08	 push	 DWORD PTR __Buffer$[ebp]
  00011	e8 00 00 00 00	 call	 ___local_stdio_printf_options
  00016	8b 08		 mov	 ecx, DWORD PTR [eax]
  00018	ff 70 04	 push	 DWORD PTR [eax+4]
  0001b	83 c9 01	 or	 ecx, 1
  0001e	51		 push	 ecx
  0001f	e8 00 00 00 00	 call	 ___stdio_common_vsprintf

; 1393 :             _CRT_INTERNAL_LOCAL_PRINTF_OPTIONS | _CRT_INTERNAL_PRINTF_LEGACY_VSPRINTF_NULL_TERMINATION,
; 1394 :             _Buffer, _BufferCount, _Format, _Locale, _ArgList);
; 1395 : 
; 1396 :         return _Result < 0 ? -1 : _Result;

  00024	83 c9 ff	 or	 ecx, -1
  00027	83 c4 1c	 add	 esp, 28			; 0000001cH
  0002a	85 c0		 test	 eax, eax
  0002c	0f 48 c1	 cmovs	 eax, ecx

; 1772 :         int _Result;
; 1773 :         va_list _ArgList;
; 1774 :         __crt_va_start(_ArgList, _Format);
; 1775 : 
; 1776 :         _Result = _vsprintf_l(_Buffer, _Format, NULL, _ArgList);
; 1777 : 
; 1778 :         __crt_va_end(_ArgList);
; 1779 :         return _Result;
; 1780 :     }

  0002f	5d		 pop	 ebp
  00030	c3		 ret	 0
_sprintf ENDP
_TEXT	ENDS
; Function compile flags: /Ogtp
; File C:\Program Files (x86)\Windows Kits\10\Include\10.0.26100.0\ucrt\corecrt_stdio_config.h
;	COMDAT ___local_stdio_printf_options
_TEXT	SEGMENT
___local_stdio_printf_options PROC			; COMDAT

; 91   :         static unsigned __int64 _OptionsStorage;
; 92   :         return &_OptionsStorage;

  00000	b8 00 00 00 00	 mov	 eax, OFFSET ?_OptionsStorage@?1??__local_stdio_printf_options@@9@4_KA ; `__local_stdio_printf_options'::`2'::_OptionsStorage

; 93   :     }

  00005	c3		 ret	 0
___local_stdio_printf_options ENDP
_TEXT	ENDS
; Function compile flags: /Ogtp
; File E:\Proyectos\JuegosOnlineproyectos\PB\pbblow\Piercing Blow Remake\i3Server\src\i3Base\i3Memory.cpp
;	COMDAT ?__global_array_delete@@YAXPAXI@Z
_TEXT	SEGMENT
_p$ = 8							; size = 4
_sz$ = 12						; size = 4
?__global_array_delete@@YAXPAXI@Z PROC			; __global_array_delete, COMDAT

  00000	e9 00 00 00 00	 jmp	 ??_V@YAXPAXI@Z		; operator delete[]
?__global_array_delete@@YAXPAXI@Z ENDP			; __global_array_delete
_TEXT	ENDS
; Function compile flags: /Ogtp
; File E:\Proyectos\JuegosOnlineproyectos\PB\pbblow\Piercing Blow Remake\i3Server\src\i3Base\i3Memory.cpp
;	COMDAT ?__global_array_delete@@YAXPAX@Z
_TEXT	SEGMENT
_p$ = 8							; size = 4
?__global_array_delete@@YAXPAX@Z PROC			; __global_array_delete, COMDAT

  00000	e9 00 00 00 00	 jmp	 ??_V@YAXPAX@Z		; operator delete[]
?__global_array_delete@@YAXPAX@Z ENDP			; __global_array_delete
_TEXT	ENDS
; Function compile flags: /Ogtp
; File E:\Proyectos\JuegosOnlineproyectos\PB\pbblow\Piercing Blow Remake\i3Server\src\i3Base\i3Memory.cpp
;	COMDAT ?__global_delete@@YAXPAXI@Z
_TEXT	SEGMENT
_p$ = 8							; size = 4
_sz$ = 12						; size = 4
?__global_delete@@YAXPAXI@Z PROC			; __global_delete, COMDAT

  00000	e9 00 00 00 00	 jmp	 ??3@YAXPAXI@Z		; operator delete
?__global_delete@@YAXPAXI@Z ENDP			; __global_delete
_TEXT	ENDS
; Function compile flags: /Ogtp
; File E:\Proyectos\JuegosOnlineproyectos\PB\pbblow\Piercing Blow Remake\i3Server\src\i3Base\i3Memory.cpp
;	COMDAT ?__empty_global_delete@@YAXPAXI@Z
_TEXT	SEGMENT
___formal$ = 8						; size = 4
___formal$ = 12						; size = 4
?__empty_global_delete@@YAXPAXI@Z PROC			; __empty_global_delete, COMDAT

  00000	c2 00 00	 ret	 0
?__empty_global_delete@@YAXPAXI@Z ENDP			; __empty_global_delete
_TEXT	ENDS
; Function compile flags: /Ogtp
; File E:\Proyectos\JuegosOnlineproyectos\PB\pbblow\Piercing Blow Remake\i3Server\src\i3Base\i3Memory.cpp
;	COMDAT ?__global_delete@@YAXPAX@Z
_TEXT	SEGMENT
_p$ = 8							; size = 4
?__global_delete@@YAXPAX@Z PROC				; __global_delete, COMDAT

  00000	e9 00 00 00 00	 jmp	 ??3@YAXPAX@Z		; operator delete
?__global_delete@@YAXPAX@Z ENDP				; __global_delete
_TEXT	ENDS
; Function compile flags: /Ogtp
; File E:\Proyectos\JuegosOnlineproyectos\PB\pbblow\Piercing Blow Remake\i3Server\src\i3Base\i3Memory.cpp
;	COMDAT ?__empty_global_delete@@YAXPAX@Z
_TEXT	SEGMENT
___formal$ = 8						; size = 4
?__empty_global_delete@@YAXPAX@Z PROC			; __empty_global_delete, COMDAT

  00000	c2 00 00	 ret	 0
?__empty_global_delete@@YAXPAX@Z ENDP			; __empty_global_delete
_TEXT	ENDS
END
