; Listing generated by Microsoft (R) Optimizing Compiler Version 19.50.35727.0 

	TITLE	E:\Proyectos\JuegosOnlineproyectos\PB\pbblow\Piercing Blow Remake\i3Server\Project\I3_DX\i3Server\x86\Release\i3NetworkClientSocket2.obj
	.686P
	.XMM
	include listing.inc
	.model	flat

INCLUDELIB LIBCMT
INCLUDELIB OLDNAMES

PUBLIC	?CreateInstance@?$i3MetaTemplate@Vi3NetworkClientSocket2@@@@UAEPAVi3ElementBase@@W4I3_CLASSMETA_TYPE@@@Z ; i3MetaTemplate<i3NetworkClientSocket2>::CreateInstance
PUBLIC	?BindInstance@?$i3MetaTemplate@Vi3NetworkClientSocket2@@@@UAEPAVi3ElementBase@@PAXW4I3_CLASSMETA_TYPE@@@Z ; i3MetaTemplate<i3NetworkClientSocket2>::BindInstance
PUBLIC	??_7?$i3MetaTemplate@Vi3NetworkClientSocket2@@@@6B@ ; i3MetaTemplate<i3NetworkClientSocket2>::`vftable'
PUBLIC	??_G?$i3MetaTemplate@Vi3NetworkClientSocket2@@@@UAEPAXI@Z ; i3MetaTemplate<i3NetworkClientSocket2>::`scalar deleting destructor'
PUBLIC	??_C@_0O@OCDFBOHM@i3ElementBase@		; `string'
PUBLIC	??_C@_0BH@MJKMELBP@i3NetworkClientSocket2@	; `string'
PUBLIC	??_R0?AVi3ClassMeta@@@8				; i3ClassMeta `RTTI Type Descriptor'
PUBLIC	??_R3i3ClassMeta@@8				; i3ClassMeta::`RTTI Class Hierarchy Descriptor'
PUBLIC	??_R2i3ClassMeta@@8				; i3ClassMeta::`RTTI Base Class Array'
PUBLIC	??_R1A@?0A@EA@i3ClassMeta@@8			; i3ClassMeta::`RTTI Base Class Descriptor at (0,-1,0,64)'
PUBLIC	??_R4?$i3MetaTemplate@Vi3NetworkClientSocket2@@@@6B@ ; i3MetaTemplate<i3NetworkClientSocket2>::`RTTI Complete Object Locator'
PUBLIC	??_R0?AV?$i3MetaTemplate@Vi3NetworkClientSocket2@@@@@8 ; i3MetaTemplate<i3NetworkClientSocket2> `RTTI Type Descriptor'
PUBLIC	??_R3?$i3MetaTemplate@Vi3NetworkClientSocket2@@@@8 ; i3MetaTemplate<i3NetworkClientSocket2>::`RTTI Class Hierarchy Descriptor'
PUBLIC	??_R2?$i3MetaTemplate@Vi3NetworkClientSocket2@@@@8 ; i3MetaTemplate<i3NetworkClientSocket2>::`RTTI Base Class Array'
PUBLIC	??_R1A@?0A@EA@?$i3MetaTemplate@Vi3NetworkClientSocket2@@@@8 ; i3MetaTemplate<i3NetworkClientSocket2>::`RTTI Base Class Descriptor at (0,-1,0,64)'
PUBLIC	?s_pClassMetai3NetworkClientSocket2@i3NetworkClientSocket2@@2PAVi3ClassMeta@@A ; i3NetworkClientSocket2::s_pClassMetai3NetworkClientSocket2
PUBLIC	__Avx2WmemEnabledWeakValue
EXTRN	??_E?$i3MetaTemplate@Vi3NetworkClientSocket2@@@@UAEPAXI@Z:PROC ; i3MetaTemplate<i3NetworkClientSocket2>::`vector deleting destructor'
EXTRN	??_7type_info@@6B@:QWORD			; type_info::`vftable'
;	COMDAT __Avx2WmemEnabledWeakValue
_BSS	SEGMENT
__Avx2WmemEnabledWeakValue DD 01H DUP (?)
_BSS	ENDS
_DATA	SEGMENT
?s_pClassMetai3NetworkClientSocket2@i3NetworkClientSocket2@@2PAVi3ClassMeta@@A DD FLAT:?s_ClassMetai3NetworkClientSocket2@@3V?$i3MetaTemplate@Vi3NetworkClientSocket2@@@@A ; i3NetworkClientSocket2::s_pClassMetai3NetworkClientSocket2
_DATA	ENDS
;	COMDAT ??_R1A@?0A@EA@?$i3MetaTemplate@Vi3NetworkClientSocket2@@@@8
rdata$r	SEGMENT
??_R1A@?0A@EA@?$i3MetaTemplate@Vi3NetworkClientSocket2@@@@8 DD FLAT:??_R0?AV?$i3MetaTemplate@Vi3NetworkClientSocket2@@@@@8 ; i3MetaTemplate<i3NetworkClientSocket2>::`RTTI Base Class Descriptor at (0,-1,0,64)'
	DD	01H
	DD	00H
	DD	0ffffffffH
	DD	00H
	DD	040H
	DD	FLAT:??_R3?$i3MetaTemplate@Vi3NetworkClientSocket2@@@@8
rdata$r	ENDS
;	COMDAT ??_R2?$i3MetaTemplate@Vi3NetworkClientSocket2@@@@8
rdata$r	SEGMENT
??_R2?$i3MetaTemplate@Vi3NetworkClientSocket2@@@@8 DD FLAT:??_R1A@?0A@EA@?$i3MetaTemplate@Vi3NetworkClientSocket2@@@@8 ; i3MetaTemplate<i3NetworkClientSocket2>::`RTTI Base Class Array'
	DD	FLAT:??_R1A@?0A@EA@i3ClassMeta@@8
rdata$r	ENDS
;	COMDAT ??_R3?$i3MetaTemplate@Vi3NetworkClientSocket2@@@@8
rdata$r	SEGMENT
??_R3?$i3MetaTemplate@Vi3NetworkClientSocket2@@@@8 DD 00H ; i3MetaTemplate<i3NetworkClientSocket2>::`RTTI Class Hierarchy Descriptor'
	DD	00H
	DD	02H
	DD	FLAT:??_R2?$i3MetaTemplate@Vi3NetworkClientSocket2@@@@8
rdata$r	ENDS
;	COMDAT ??_R0?AV?$i3MetaTemplate@Vi3NetworkClientSocket2@@@@@8
data$rs	SEGMENT
??_R0?AV?$i3MetaTemplate@Vi3NetworkClientSocket2@@@@@8 DD FLAT:??_7type_info@@6B@ ; i3MetaTemplate<i3NetworkClientSocket2> `RTTI Type Descriptor'
	DD	00H
	DB	'.?AV?$i3MetaTemplate@Vi3NetworkClientSocket2@@@@', 00H
data$rs	ENDS
;	COMDAT ??_R4?$i3MetaTemplate@Vi3NetworkClientSocket2@@@@6B@
rdata$r	SEGMENT
??_R4?$i3MetaTemplate@Vi3NetworkClientSocket2@@@@6B@ DD 00H ; i3MetaTemplate<i3NetworkClientSocket2>::`RTTI Complete Object Locator'
	DD	00H
	DD	00H
	DD	FLAT:??_R0?AV?$i3MetaTemplate@Vi3NetworkClientSocket2@@@@@8
	DD	FLAT:??_R3?$i3MetaTemplate@Vi3NetworkClientSocket2@@@@8
rdata$r	ENDS
;	COMDAT ??_R1A@?0A@EA@i3ClassMeta@@8
rdata$r	SEGMENT
??_R1A@?0A@EA@i3ClassMeta@@8 DD FLAT:??_R0?AVi3ClassMeta@@@8 ; i3ClassMeta::`RTTI Base Class Descriptor at (0,-1,0,64)'
	DD	00H
	DD	00H
	DD	0ffffffffH
	DD	00H
	DD	040H
	DD	FLAT:??_R3i3ClassMeta@@8
rdata$r	ENDS
;	COMDAT ??_R2i3ClassMeta@@8
rdata$r	SEGMENT
??_R2i3ClassMeta@@8 DD FLAT:??_R1A@?0A@EA@i3ClassMeta@@8 ; i3ClassMeta::`RTTI Base Class Array'
rdata$r	ENDS
;	COMDAT ??_R3i3ClassMeta@@8
rdata$r	SEGMENT
??_R3i3ClassMeta@@8 DD 00H				; i3ClassMeta::`RTTI Class Hierarchy Descriptor'
	DD	00H
	DD	01H
	DD	FLAT:??_R2i3ClassMeta@@8
rdata$r	ENDS
;	COMDAT ??_R0?AVi3ClassMeta@@@8
data$rs	SEGMENT
??_R0?AVi3ClassMeta@@@8 DD FLAT:??_7type_info@@6B@	; i3ClassMeta `RTTI Type Descriptor'
	DD	00H
	DB	'.?AVi3ClassMeta@@', 00H
data$rs	ENDS
;	COMDAT ??_C@_0BH@MJKMELBP@i3NetworkClientSocket2@
CONST	SEGMENT
??_C@_0BH@MJKMELBP@i3NetworkClientSocket2@ DB 'i3NetworkClientSocket2', 00H ; `string'
CONST	ENDS
;	COMDAT ??_C@_0O@OCDFBOHM@i3ElementBase@
CONST	SEGMENT
??_C@_0O@OCDFBOHM@i3ElementBase@ DB 'i3ElementBase', 00H ; `string'
CONST	ENDS
;	COMDAT ??_7?$i3MetaTemplate@Vi3NetworkClientSocket2@@@@6B@
CONST	SEGMENT
??_7?$i3MetaTemplate@Vi3NetworkClientSocket2@@@@6B@ DD FLAT:??_R4?$i3MetaTemplate@Vi3NetworkClientSocket2@@@@6B@ ; i3MetaTemplate<i3NetworkClientSocket2>::`vftable'
	DD	FLAT:??_E?$i3MetaTemplate@Vi3NetworkClientSocket2@@@@UAEPAXI@Z
	DD	FLAT:?CreateInstance@?$i3MetaTemplate@Vi3NetworkClientSocket2@@@@UAEPAVi3ElementBase@@W4I3_CLASSMETA_TYPE@@@Z
	DD	FLAT:?BindInstance@?$i3MetaTemplate@Vi3NetworkClientSocket2@@@@UAEPAVi3ElementBase@@PAXW4I3_CLASSMETA_TYPE@@@Z
CONST	ENDS
PUBLIC	?__empty_global_delete@@YAXPAX@Z		; __empty_global_delete
PUBLIC	?__global_delete@@YAXPAX@Z			; __global_delete
PUBLIC	?__empty_global_delete@@YAXPAXI@Z		; __empty_global_delete
PUBLIC	?__global_delete@@YAXPAXI@Z			; __global_delete
PUBLIC	?__global_array_delete@@YAXPAX@Z		; __global_array_delete
PUBLIC	?__global_array_delete@@YAXPAXI@Z		; __global_array_delete
PUBLIC	___local_stdio_printf_options
PUBLIC	_sprintf
PUBLIC	?GetMemoryPool@i3ClassMeta@@QAEPAVi3MemoryPool@@XZ ; i3ClassMeta::GetMemoryPool
PUBLIC	?SetMemoryPool@i3ClassMeta@@QAEXPAVi3MemoryPool@@@Z ; i3ClassMeta::SetMemoryPool
PUBLIC	?GetClassSize@i3ClassMeta@@QAEIXZ		; i3ClassMeta::GetClassSize
PUBLIC	?GetClassNameA@i3ClassMeta@@QAEPADXZ		; i3ClassMeta::GetClassNameA
PUBLIC	?IsExactTypeOf@i3ClassMeta@@QAE_NPAV1@@Z	; i3ClassMeta::IsExactTypeOf
PUBLIC	?SetStyle@i3ClassMeta@@QAEXI@Z			; i3ClassMeta::SetStyle
PUBLIC	?GetStyle@i3ClassMeta@@QAEIXZ			; i3ClassMeta::GetStyle
PUBLIC	?AddStyle@i3ClassMeta@@QAEXI@Z			; i3ClassMeta::AddStyle
PUBLIC	?RemoveStyle@i3ClassMeta@@QAEXI@Z		; i3ClassMeta::RemoveStyle
PUBLIC	?IsStyle@i3ClassMeta@@QAEHI@Z			; i3ClassMeta::IsStyle
PUBLIC	?IsAbstractClass@i3ClassMeta@@QAEHXZ		; i3ClassMeta::IsAbstractClass
PUBLIC	?IsConcreteClass@i3ClassMeta@@QAEHXZ		; i3ClassMeta::IsConcreteClass
PUBLIC	?GetBaseClassMeta@i3ClassMeta@@QAEPAV1@XZ	; i3ClassMeta::GetBaseClassMeta
PUBLIC	?getHashCode@i3ClassMeta@@QAEIXZ		; i3ClassMeta::getHashCode
PUBLIC	??0i3ClassMeta@@QAE@ABV0@@Z			; i3ClassMeta::i3ClassMeta
PUBLIC	??4i3ClassMeta@@QAEAAV0@ABV0@@Z			; i3ClassMeta::operator=
PUBLIC	??_Gi3ClassMeta@@UAEPAXI@Z			; i3ClassMeta::`scalar deleting destructor'
PUBLIC	??_Ei3ClassMeta@@UAEPAXI@Z			; i3ClassMeta::`vector deleting destructor'
PUBLIC	?GetClassMeta@i3ElementBase@@SAPAVi3ClassMeta@@XZ ; i3ElementBase::GetClassMeta
PUBLIC	?GetRefCount@i3ElementBase@@QAEHXZ		; i3ElementBase::GetRefCount
PUBLIC	?__SetMemoryPool@i3ElementBase@@QAEXPAVi3MemoryPool@@@Z ; i3ElementBase::__SetMemoryPool
PUBLIC	?__GetMemoryPool@i3ElementBase@@QAEPAVi3MemoryPool@@XZ ; i3ElementBase::__GetMemoryPool
PUBLIC	?IsExactTypeOf@i3ElementBase@@QAE_NPAVi3ClassMeta@@@Z ; i3ElementBase::IsExactTypeOf
PUBLIC	?IsTypeOf@i3ElementBase@@QAE_NPAVi3ClassMeta@@@Z ; i3ElementBase::IsTypeOf
PUBLIC	?AddRef@i3ElementBase@@QAEHXZ			; i3ElementBase::AddRef
PUBLIC	?_internal_SetRefCount@i3ElementBase@@QAEXH@Z	; i3ElementBase::_internal_SetRefCount
PUBLIC	??0i3ElementBase@@QAE@ABV0@@Z			; i3ElementBase::i3ElementBase
PUBLIC	??4i3ElementBase@@QAEAAV0@ABV0@@Z		; i3ElementBase::operator=
PUBLIC	??_Gi3ElementBase@@UAEPAXI@Z			; i3ElementBase::`scalar deleting destructor'
PUBLIC	??_Ei3ElementBase@@UAEPAXI@Z			; i3ElementBase::`vector deleting destructor'
PUBLIC	??0i3MemoryPool@@QAE@ABV0@@Z			; i3MemoryPool::i3MemoryPool
PUBLIC	??4i3MemoryPool@@QAEAAV0@ABV0@@Z		; i3MemoryPool::operator=
PUBLIC	??_Gi3MemoryPool@@UAEPAXI@Z			; i3MemoryPool::`scalar deleting destructor'
PUBLIC	??_Ei3MemoryPool@@UAEPAXI@Z			; i3MemoryPool::`vector deleting destructor'
PUBLIC	?GetClassMeta@i3NetworkClientSocket2@@SAPAVi3ClassMeta@@XZ ; i3NetworkClientSocket2::GetClassMeta
PUBLIC	?GetMeta@i3NetworkClientSocket2@@UAEPAVi3ClassMeta@@XZ ; i3NetworkClientSocket2::GetMeta
PUBLIC	?RegisterMeta@i3NetworkClientSocket2@@SAXXZ	; i3NetworkClientSocket2::RegisterMeta
PUBLIC	?SetConcreteClass@i3NetworkClientSocket2@@SAXPAVi3ClassMeta@@@Z ; i3NetworkClientSocket2::SetConcreteClass
PUBLIC	?SetGhostClass@i3NetworkClientSocket2@@SAXPAVi3ClassMeta@@@Z ; i3NetworkClientSocket2::SetGhostClass
PUBLIC	?_NewObject@i3NetworkClientSocket2@@SAPAV1@XZ	; i3NetworkClientSocket2::_NewObject
PUBLIC	?_NewObjectRef@i3NetworkClientSocket2@@SAPAV1@XZ ; i3NetworkClientSocket2::_NewObjectRef
PUBLIC	?_BindObject@i3NetworkClientSocket2@@SAPAV1@PAX@Z ; i3NetworkClientSocket2::_BindObject
PUBLIC	?_BindObjectRef@i3NetworkClientSocket2@@SAPAV1@PAX@Z ; i3NetworkClientSocket2::_BindObjectRef
PUBLIC	?_NewObjectByType@i3NetworkClientSocket2@@SAPAV1@W4I3_CLASSMETA_TYPE@@@Z ; i3NetworkClientSocket2::_NewObjectByType
PUBLIC	?_NewObjectRefByType@i3NetworkClientSocket2@@SAPAV1@W4I3_CLASSMETA_TYPE@@@Z ; i3NetworkClientSocket2::_NewObjectRefByType
PUBLIC	?_BindObjectByType@i3NetworkClientSocket2@@SAPAV1@PAXW4I3_CLASSMETA_TYPE@@@Z ; i3NetworkClientSocket2::_BindObjectByType
PUBLIC	?_BindObjectRefByType@i3NetworkClientSocket2@@SAPAV1@PAXW4I3_CLASSMETA_TYPE@@@Z ; i3NetworkClientSocket2::_BindObjectRefByType
PUBLIC	?_Create@i3NetworkClientSocket2@@AAEHIGP6AHPAXPADH@Z0@Z ; i3NetworkClientSocket2::_Create
PUBLIC	?GetSocket@i3NetworkClientSocket2@@IAEIXZ	; i3NetworkClientSocket2::GetSocket
PUBLIC	?GetRecvBuffer@i3NetworkClientSocket2@@IAEPADXZ	; i3NetworkClientSocket2::GetRecvBuffer
PUBLIC	??0i3NetworkClientSocket2@@QAE@XZ		; i3NetworkClientSocket2::i3NetworkClientSocket2
PUBLIC	??1i3NetworkClientSocket2@@UAE@XZ		; i3NetworkClientSocket2::~i3NetworkClientSocket2
PUBLIC	?OnCreate@i3NetworkClientSocket2@@QAEHPADGP6AHPAX0H@Z1@Z ; i3NetworkClientSocket2::OnCreate
PUBLIC	?OnCreate@i3NetworkClientSocket2@@QAEHIGP6AHPAXPADH@Z0@Z ; i3NetworkClientSocket2::OnCreate
PUBLIC	?SetSocket@i3NetworkClientSocket2@@QAEHI@Z	; i3NetworkClientSocket2::SetSocket
PUBLIC	?OnReceive@i3NetworkClientSocket2@@UAEHXZ	; i3NetworkClientSocket2::OnReceive
PUBLIC	?OnDestroy@i3NetworkClientSocket2@@UAEXXZ	; i3NetworkClientSocket2::OnDestroy
PUBLIC	?PacketParsing@i3NetworkClientSocket2@@UAEHPADH@Z ; i3NetworkClientSocket2::PacketParsing
PUBLIC	?SendPacketMessage@i3NetworkClientSocket2@@UAEHPAVi3NetworkPacket@@@Z ; i3NetworkClientSocket2::SendPacketMessage
PUBLIC	?SendPacketMessage@i3NetworkClientSocket2@@UAEHPBDH@Z ; i3NetworkClientSocket2::SendPacketMessage
PUBLIC	?SelectEvent@i3NetworkClientSocket2@@QAEHXZ	; i3NetworkClientSocket2::SelectEvent
PUBLIC	?IsConnected@i3NetworkClientSocket2@@QBEHXZ	; i3NetworkClientSocket2::IsConnected
PUBLIC	?DisConnect@i3NetworkClientSocket2@@UAEXXZ	; i3NetworkClientSocket2::DisConnect
PUBLIC	??0i3NetworkClientSocket2@@QAE@ABV0@@Z		; i3NetworkClientSocket2::i3NetworkClientSocket2
PUBLIC	??4i3NetworkClientSocket2@@QAEAAV0@ABV0@@Z	; i3NetworkClientSocket2::operator=
PUBLIC	??_Gi3NetworkClientSocket2@@UAEPAXI@Z		; i3NetworkClientSocket2::`scalar deleting destructor'
PUBLIC	??_Ei3NetworkClientSocket2@@UAEPAXI@Z		; i3NetworkClientSocket2::`vector deleting destructor'
PUBLIC	?GetClassMeta@i3NetworkPacket@@SAPAVi3ClassMeta@@XZ ; i3NetworkPacket::GetClassMeta
PUBLIC	?SetProtocol@i3NetworkPacket@@QAEXG@Z		; i3NetworkPacket::SetProtocol
PUBLIC	?GetPacketSize@i3NetworkPacket@@QAEHXZ		; i3NetworkPacket::GetPacketSize
PUBLIC	?GetReceivedSize@i3NetworkPacket@@QAEHXZ	; i3NetworkPacket::GetReceivedSize
PUBLIC	?GetProtocolID@i3NetworkPacket@@QAEGXZ		; i3NetworkPacket::GetProtocolID
PUBLIC	?GetDataFieldSize@i3NetworkPacket@@QAEGXZ	; i3NetworkPacket::GetDataFieldSize
PUBLIC	?GetPacketBuffer@i3NetworkPacket@@QAEPADXZ	; i3NetworkPacket::GetPacketBuffer
PUBLIC	?GetFieldBuffer@i3NetworkPacket@@QAEPADXZ	; i3NetworkPacket::GetFieldBuffer
PUBLIC	??0i3NetworkPacket@@QAE@ABV0@@Z			; i3NetworkPacket::i3NetworkPacket
PUBLIC	??4i3NetworkPacket@@QAEAAV0@ABV0@@Z		; i3NetworkPacket::operator=
PUBLIC	??_Gi3NetworkPacket@@UAEPAXI@Z			; i3NetworkPacket::`scalar deleting destructor'
PUBLIC	??_Ei3NetworkPacket@@UAEPAXI@Z			; i3NetworkPacket::`vector deleting destructor'
PUBLIC	?GetClassMeta@i3Udp@@SAPAVi3ClassMeta@@XZ	; i3Udp::GetClassMeta
PUBLIC	?getSocketHandle@i3Udp@@QAEIXZ			; i3Udp::getSocketHandle
PUBLIC	??0i3Udp@@QAE@ABV0@@Z				; i3Udp::i3Udp
PUBLIC	??4i3Udp@@QAEAAV0@ABV0@@Z			; i3Udp::operator=
PUBLIC	??_Gi3Udp@@UAEPAXI@Z				; i3Udp::`scalar deleting destructor'
PUBLIC	??_Ei3Udp@@UAEPAXI@Z				; i3Udp::`vector deleting destructor'
PUBLIC	?GetClassMeta@i3Tcp@@SAPAVi3ClassMeta@@XZ	; i3Tcp::GetClassMeta
PUBLIC	??0i3Tcp@@QAE@ABV0@@Z				; i3Tcp::i3Tcp
PUBLIC	??4i3Tcp@@QAEAAV0@ABV0@@Z			; i3Tcp::operator=
PUBLIC	??_Gi3Tcp@@UAEPAXI@Z				; i3Tcp::`scalar deleting destructor'
PUBLIC	??_Ei3Tcp@@UAEPAXI@Z				; i3Tcp::`vector deleting destructor'
PUBLIC	??0?$i3MetaTemplate@Vi3NetworkClientSocket2@@@@QAE@IPAD0W4I3_CLASSMETA_TYPE@@@Z ; i3MetaTemplate<i3NetworkClientSocket2>::i3MetaTemplate<i3NetworkClientSocket2>
PUBLIC	?_OptionsStorage@?1??__local_stdio_printf_options@@9@4_KA ; `__local_stdio_printf_options'::`2'::_OptionsStorage
PUBLIC	??_7i3ClassMeta@@6B@				; i3ClassMeta::`vftable'
PUBLIC	??_7i3ElementBase@@6B@				; i3ElementBase::`vftable'
PUBLIC	??_7i3MemoryPool@@6B@				; i3MemoryPool::`vftable'
PUBLIC	??_7i3NetworkClientSocket2@@6B@			; i3NetworkClientSocket2::`vftable'
PUBLIC	??_7i3NetworkPacket@@6B@			; i3NetworkPacket::`vftable'
PUBLIC	??_7i3Udp@@6B@					; i3Udp::`vftable'
PUBLIC	??_7i3Tcp@@6B@					; i3Tcp::`vftable'
PUBLIC	??_C@_0DD@OKMCMGMM@?$FLi3NetworkClientSocket2?3?3OnRece@ ; `string'
PUBLIC	??_C@_0DL@KEBPBEJM@?$FLi3NetworkClientSocket2?3?3SendPa@ ; `string'
PUBLIC	??_C@_0DF@KLHFGFKP@?$FLi3NetworkClientSocket2?3?3Select@ ; `string'
PUBLIC	??_C@_0CG@GBCNHJEG@?$FLi3NetworkClientSocket2?3?3OnConn@ ; `string'
PUBLIC	??_R4i3ElementBase@@6B@				; i3ElementBase::`RTTI Complete Object Locator'
PUBLIC	??_R0?AVi3ElementBase@@@8			; i3ElementBase `RTTI Type Descriptor'
PUBLIC	??_R3i3ElementBase@@8				; i3ElementBase::`RTTI Class Hierarchy Descriptor'
PUBLIC	??_R2i3ElementBase@@8				; i3ElementBase::`RTTI Base Class Array'
PUBLIC	??_R1A@?0A@EA@i3ElementBase@@8			; i3ElementBase::`RTTI Base Class Descriptor at (0,-1,0,64)'
PUBLIC	??_R4i3MemoryPool@@6B@				; i3MemoryPool::`RTTI Complete Object Locator'
PUBLIC	??_R0?AVi3MemoryPool@@@8			; i3MemoryPool `RTTI Type Descriptor'
PUBLIC	??_R3i3MemoryPool@@8				; i3MemoryPool::`RTTI Class Hierarchy Descriptor'
PUBLIC	??_R2i3MemoryPool@@8				; i3MemoryPool::`RTTI Base Class Array'
PUBLIC	??_R1A@?0A@EA@i3MemoryPool@@8			; i3MemoryPool::`RTTI Base Class Descriptor at (0,-1,0,64)'
PUBLIC	??_R4i3ClassMeta@@6B@				; i3ClassMeta::`RTTI Complete Object Locator'
PUBLIC	??_R4i3NetworkPacket@@6B@			; i3NetworkPacket::`RTTI Complete Object Locator'
PUBLIC	??_R0?AVi3NetworkPacket@@@8			; i3NetworkPacket `RTTI Type Descriptor'
PUBLIC	??_R3i3NetworkPacket@@8				; i3NetworkPacket::`RTTI Class Hierarchy Descriptor'
PUBLIC	??_R2i3NetworkPacket@@8				; i3NetworkPacket::`RTTI Base Class Array'
PUBLIC	??_R1A@?0A@EA@i3NetworkPacket@@8		; i3NetworkPacket::`RTTI Base Class Descriptor at (0,-1,0,64)'
PUBLIC	??_R4i3NetworkClientSocket2@@6B@		; i3NetworkClientSocket2::`RTTI Complete Object Locator'
PUBLIC	??_R0?AVi3NetworkClientSocket2@@@8		; i3NetworkClientSocket2 `RTTI Type Descriptor'
PUBLIC	??_R3i3NetworkClientSocket2@@8			; i3NetworkClientSocket2::`RTTI Class Hierarchy Descriptor'
PUBLIC	??_R2i3NetworkClientSocket2@@8			; i3NetworkClientSocket2::`RTTI Base Class Array'
PUBLIC	??_R1A@?0A@EA@i3NetworkClientSocket2@@8		; i3NetworkClientSocket2::`RTTI Base Class Descriptor at (0,-1,0,64)'
PUBLIC	??_R4i3Udp@@6B@					; i3Udp::`RTTI Complete Object Locator'
PUBLIC	??_R0?AVi3Udp@@@8				; i3Udp `RTTI Type Descriptor'
PUBLIC	??_R3i3Udp@@8					; i3Udp::`RTTI Class Hierarchy Descriptor'
PUBLIC	??_R2i3Udp@@8					; i3Udp::`RTTI Base Class Array'
PUBLIC	??_R1A@?0A@EA@i3Udp@@8				; i3Udp::`RTTI Base Class Descriptor at (0,-1,0,64)'
PUBLIC	??_R4i3Tcp@@6B@					; i3Tcp::`RTTI Complete Object Locator'
PUBLIC	??_R0?AVi3Tcp@@@8				; i3Tcp `RTTI Type Descriptor'
PUBLIC	??_R3i3Tcp@@8					; i3Tcp::`RTTI Class Hierarchy Descriptor'
PUBLIC	??_R2i3Tcp@@8					; i3Tcp::`RTTI Base Class Array'
PUBLIC	??_R1A@?0A@EA@i3Tcp@@8				; i3Tcp::`RTTI Base Class Descriptor at (0,-1,0,64)'
EXTRN	??_M@YGXPAXIIP6EX0@Z@Z:PROC			; `eh vector destructor iterator'
EXTRN	__purecall:PROC
EXTRN	??3@YAXPAX@Z:PROC				; operator delete
EXTRN	??3@YAXPAXI@Z:PROC				; operator delete
EXTRN	??_V@YAXPAX@Z:PROC				; operator delete[]
EXTRN	??_V@YAXPAXI@Z:PROC				; operator delete[]
EXTRN	_atexit:PROC
EXTRN	___std_terminate:PROC
EXTRN	___stdio_common_vsprintf:PROC
EXTRN	__imp__closesocket@4:PROC
EXTRN	__imp__connect@12:PROC
EXTRN	__imp__htons@4:PROC
EXTRN	__imp__inet_addr@4:PROC
EXTRN	__imp__recv@16:PROC
EXTRN	__imp__send@16:PROC
EXTRN	__imp__shutdown@8:PROC
EXTRN	__imp__socket@12:PROC
EXTRN	__imp__WSAGetLastError@0:PROC
EXTRN	__imp__WSACloseEvent@4:PROC
EXTRN	__imp__WSACreateEvent@0:PROC
EXTRN	__imp__WSAEnumNetworkEvents@12:PROC
EXTRN	__imp__WSAEventSelect@12:PROC
EXTRN	??0i3ClassMeta@@QAE@IPAD0W4I3_CLASSMETA_TYPE@@@Z:PROC ; i3ClassMeta::i3ClassMeta
EXTRN	??1i3ClassMeta@@UAE@XZ:PROC			; i3ClassMeta::~i3ClassMeta
EXTRN	?CreateInstance@i3ClassMeta@@UAEPAVi3ElementBase@@W4I3_CLASSMETA_TYPE@@@Z:PROC ; i3ClassMeta::CreateInstance
EXTRN	?BindInstance@i3ClassMeta@@UAEPAVi3ElementBase@@PAXW4I3_CLASSMETA_TYPE@@@Z:PROC ; i3ClassMeta::BindInstance
EXTRN	?IsTypeOf@i3ClassMeta@@QAE_NPAV1@@Z:PROC	; i3ClassMeta::IsTypeOf
EXTRN	?Register@i3ClassMeta@@QAEXXZ:PROC		; i3ClassMeta::Register
EXTRN	?GetConcreteClass@i3ClassMeta@@QAEPAV1@W4I3_CLASSMETA_TYPE@@@Z:PROC ; i3ClassMeta::GetConcreteClass
EXTRN	?SetConcreteClass@i3ClassMeta@@QAEXPAV1@@Z:PROC	; i3ClassMeta::SetConcreteClass
EXTRN	?SetGhostClass@i3ClassMeta@@QAEXPAV1@@Z:PROC	; i3ClassMeta::SetGhostClass
EXTRN	?GetMeta@i3ElementBase@@UAEPAVi3ClassMeta@@XZ:PROC ; i3ElementBase::GetMeta
EXTRN	??0i3ElementBase@@QAE@XZ:PROC			; i3ElementBase::i3ElementBase
EXTRN	??1i3ElementBase@@UAE@XZ:PROC			; i3ElementBase::~i3ElementBase
EXTRN	??2i3ElementBase@@SAPAXI@Z:PROC			; i3ElementBase::operator new
EXTRN	??2i3ElementBase@@SAPAXIPAX@Z:PROC		; i3ElementBase::operator new
EXTRN	??3i3ElementBase@@SAXPAX@Z:PROC			; i3ElementBase::operator delete
EXTRN	??3i3ElementBase@@SAXPAX0@Z:PROC		; i3ElementBase::operator delete
EXTRN	?CopyTo@i3ElementBase@@UAEXPAV1@W4I3_COPY_METHOD@@@Z:PROC ; i3ElementBase::CopyTo
EXTRN	??1i3MemoryPool@@UAE@XZ:PROC			; i3MemoryPool::~i3MemoryPool
EXTRN	?GetMeta@i3NetworkPacket@@UAEPAVi3ClassMeta@@XZ:PROC ; i3NetworkPacket::GetMeta
EXTRN	??1i3NetworkPacket@@UAE@XZ:PROC			; i3NetworkPacket::~i3NetworkPacket
EXTRN	?GetError@i3Net@@YAHPAD@Z:PROC			; i3Net::GetError
EXTRN	?GetMeta@i3Udp@@UAEPAVi3ClassMeta@@XZ:PROC	; i3Udp::GetMeta
EXTRN	??1i3Udp@@UAE@XZ:PROC				; i3Udp::~i3Udp
EXTRN	?GetMeta@i3Tcp@@UAEPAVi3ClassMeta@@XZ:PROC	; i3Tcp::GetMeta
EXTRN	??1i3Tcp@@UAE@XZ:PROC				; i3Tcp::~i3Tcp
EXTRN	@__security_check_cookie@4:PROC
EXTRN	___CxxFrameHandler3:PROC
EXTRN	_memcpy:PROC
EXTRN	_memmove:PROC
EXTRN	?s_pClassMetai3ElementBase@i3ElementBase@@2PAVi3ClassMeta@@A:DWORD ; i3ElementBase::s_pClassMetai3ElementBase
EXTRN	?s_pClassMetai3NetworkPacket@i3NetworkPacket@@2PAVi3ClassMeta@@A:DWORD ; i3NetworkPacket::s_pClassMetai3NetworkPacket
EXTRN	?s_pClassMetai3Udp@i3Udp@@2PAVi3ClassMeta@@A:DWORD ; i3Udp::s_pClassMetai3Udp
EXTRN	?s_pClassMetai3Tcp@i3Tcp@@2PAVi3ClassMeta@@A:DWORD ; i3Tcp::s_pClassMetai3Tcp
EXTRN	___security_cookie:DWORD
;	COMDAT ?_OptionsStorage@?1??__local_stdio_printf_options@@9@4_KA
_BSS	SEGMENT
?_OptionsStorage@?1??__local_stdio_printf_options@@9@4_KA DQ 01H DUP (?) ; `__local_stdio_printf_options'::`2'::_OptionsStorage
_BSS	ENDS
_BSS	SEGMENT
?s_ClassMetai3NetworkClientSocket2@@3V?$i3MetaTemplate@Vi3NetworkClientSocket2@@@@A DB 038H DUP (?) ; s_ClassMetai3NetworkClientSocket2
_BSS	ENDS
CRT$XCU	SEGMENT
?s_ClassMetai3NetworkClientSocket2$initializer$@@3P6AXXZA DD FLAT:??__Es_ClassMetai3NetworkClientSocket2@@YAXXZ ; s_ClassMetai3NetworkClientSocket2$initializer$
CRT$XCU	ENDS
;	COMDAT ??_R1A@?0A@EA@i3Tcp@@8
rdata$r	SEGMENT
??_R1A@?0A@EA@i3Tcp@@8 DD FLAT:??_R0?AVi3Tcp@@@8	; i3Tcp::`RTTI Base Class Descriptor at (0,-1,0,64)'
	DD	01H
	DD	00H
	DD	0ffffffffH
	DD	00H
	DD	040H
	DD	FLAT:??_R3i3Tcp@@8
rdata$r	ENDS
;	COMDAT ??_R2i3Tcp@@8
rdata$r	SEGMENT
??_R2i3Tcp@@8 DD FLAT:??_R1A@?0A@EA@i3Tcp@@8		; i3Tcp::`RTTI Base Class Array'
	DD	FLAT:??_R1A@?0A@EA@i3ElementBase@@8
rdata$r	ENDS
;	COMDAT ??_R3i3Tcp@@8
rdata$r	SEGMENT
??_R3i3Tcp@@8 DD 00H					; i3Tcp::`RTTI Class Hierarchy Descriptor'
	DD	00H
	DD	02H
	DD	FLAT:??_R2i3Tcp@@8
rdata$r	ENDS
;	COMDAT ??_R0?AVi3Tcp@@@8
data$rs	SEGMENT
??_R0?AVi3Tcp@@@8 DD FLAT:??_7type_info@@6B@		; i3Tcp `RTTI Type Descriptor'
	DD	00H
	DB	'.?AVi3Tcp@@', 00H
data$rs	ENDS
;	COMDAT ??_R4i3Tcp@@6B@
rdata$r	SEGMENT
??_R4i3Tcp@@6B@ DD 00H					; i3Tcp::`RTTI Complete Object Locator'
	DD	00H
	DD	00H
	DD	FLAT:??_R0?AVi3Tcp@@@8
	DD	FLAT:??_R3i3Tcp@@8
rdata$r	ENDS
;	COMDAT ??_R1A@?0A@EA@i3Udp@@8
rdata$r	SEGMENT
??_R1A@?0A@EA@i3Udp@@8 DD FLAT:??_R0?AVi3Udp@@@8	; i3Udp::`RTTI Base Class Descriptor at (0,-1,0,64)'
	DD	01H
	DD	00H
	DD	0ffffffffH
	DD	00H
	DD	040H
	DD	FLAT:??_R3i3Udp@@8
rdata$r	ENDS
;	COMDAT ??_R2i3Udp@@8
rdata$r	SEGMENT
??_R2i3Udp@@8 DD FLAT:??_R1A@?0A@EA@i3Udp@@8		; i3Udp::`RTTI Base Class Array'
	DD	FLAT:??_R1A@?0A@EA@i3ElementBase@@8
rdata$r	ENDS
;	COMDAT ??_R3i3Udp@@8
rdata$r	SEGMENT
??_R3i3Udp@@8 DD 00H					; i3Udp::`RTTI Class Hierarchy Descriptor'
	DD	00H
	DD	02H
	DD	FLAT:??_R2i3Udp@@8
rdata$r	ENDS
;	COMDAT ??_R0?AVi3Udp@@@8
data$rs	SEGMENT
??_R0?AVi3Udp@@@8 DD FLAT:??_7type_info@@6B@		; i3Udp `RTTI Type Descriptor'
	DD	00H
	DB	'.?AVi3Udp@@', 00H
data$rs	ENDS
;	COMDAT ??_R4i3Udp@@6B@
rdata$r	SEGMENT
??_R4i3Udp@@6B@ DD 00H					; i3Udp::`RTTI Complete Object Locator'
	DD	00H
	DD	00H
	DD	FLAT:??_R0?AVi3Udp@@@8
	DD	FLAT:??_R3i3Udp@@8
rdata$r	ENDS
;	COMDAT ??_R1A@?0A@EA@i3NetworkClientSocket2@@8
rdata$r	SEGMENT
??_R1A@?0A@EA@i3NetworkClientSocket2@@8 DD FLAT:??_R0?AVi3NetworkClientSocket2@@@8 ; i3NetworkClientSocket2::`RTTI Base Class Descriptor at (0,-1,0,64)'
	DD	01H
	DD	00H
	DD	0ffffffffH
	DD	00H
	DD	040H
	DD	FLAT:??_R3i3NetworkClientSocket2@@8
rdata$r	ENDS
;	COMDAT ??_R2i3NetworkClientSocket2@@8
rdata$r	SEGMENT
??_R2i3NetworkClientSocket2@@8 DD FLAT:??_R1A@?0A@EA@i3NetworkClientSocket2@@8 ; i3NetworkClientSocket2::`RTTI Base Class Array'
	DD	FLAT:??_R1A@?0A@EA@i3ElementBase@@8
rdata$r	ENDS
;	COMDAT ??_R3i3NetworkClientSocket2@@8
rdata$r	SEGMENT
??_R3i3NetworkClientSocket2@@8 DD 00H			; i3NetworkClientSocket2::`RTTI Class Hierarchy Descriptor'
	DD	00H
	DD	02H
	DD	FLAT:??_R2i3NetworkClientSocket2@@8
rdata$r	ENDS
;	COMDAT ??_R0?AVi3NetworkClientSocket2@@@8
data$rs	SEGMENT
??_R0?AVi3NetworkClientSocket2@@@8 DD FLAT:??_7type_info@@6B@ ; i3NetworkClientSocket2 `RTTI Type Descriptor'
	DD	00H
	DB	'.?AVi3NetworkClientSocket2@@', 00H
data$rs	ENDS
;	COMDAT ??_R4i3NetworkClientSocket2@@6B@
rdata$r	SEGMENT
??_R4i3NetworkClientSocket2@@6B@ DD 00H			; i3NetworkClientSocket2::`RTTI Complete Object Locator'
	DD	00H
	DD	00H
	DD	FLAT:??_R0?AVi3NetworkClientSocket2@@@8
	DD	FLAT:??_R3i3NetworkClientSocket2@@8
rdata$r	ENDS
;	COMDAT ??_R1A@?0A@EA@i3NetworkPacket@@8
rdata$r	SEGMENT
??_R1A@?0A@EA@i3NetworkPacket@@8 DD FLAT:??_R0?AVi3NetworkPacket@@@8 ; i3NetworkPacket::`RTTI Base Class Descriptor at (0,-1,0,64)'
	DD	01H
	DD	00H
	DD	0ffffffffH
	DD	00H
	DD	040H
	DD	FLAT:??_R3i3NetworkPacket@@8
rdata$r	ENDS
;	COMDAT ??_R2i3NetworkPacket@@8
rdata$r	SEGMENT
??_R2i3NetworkPacket@@8 DD FLAT:??_R1A@?0A@EA@i3NetworkPacket@@8 ; i3NetworkPacket::`RTTI Base Class Array'
	DD	FLAT:??_R1A@?0A@EA@i3ElementBase@@8
rdata$r	ENDS
;	COMDAT ??_R3i3NetworkPacket@@8
rdata$r	SEGMENT
??_R3i3NetworkPacket@@8 DD 00H				; i3NetworkPacket::`RTTI Class Hierarchy Descriptor'
	DD	00H
	DD	02H
	DD	FLAT:??_R2i3NetworkPacket@@8
rdata$r	ENDS
;	COMDAT ??_R0?AVi3NetworkPacket@@@8
data$rs	SEGMENT
??_R0?AVi3NetworkPacket@@@8 DD FLAT:??_7type_info@@6B@	; i3NetworkPacket `RTTI Type Descriptor'
	DD	00H
	DB	'.?AVi3NetworkPacket@@', 00H
data$rs	ENDS
;	COMDAT ??_R4i3NetworkPacket@@6B@
rdata$r	SEGMENT
??_R4i3NetworkPacket@@6B@ DD 00H			; i3NetworkPacket::`RTTI Complete Object Locator'
	DD	00H
	DD	00H
	DD	FLAT:??_R0?AVi3NetworkPacket@@@8
	DD	FLAT:??_R3i3NetworkPacket@@8
rdata$r	ENDS
;	COMDAT ??_R4i3ClassMeta@@6B@
rdata$r	SEGMENT
??_R4i3ClassMeta@@6B@ DD 00H				; i3ClassMeta::`RTTI Complete Object Locator'
	DD	00H
	DD	00H
	DD	FLAT:??_R0?AVi3ClassMeta@@@8
	DD	FLAT:??_R3i3ClassMeta@@8
rdata$r	ENDS
;	COMDAT ??_R1A@?0A@EA@i3MemoryPool@@8
rdata$r	SEGMENT
??_R1A@?0A@EA@i3MemoryPool@@8 DD FLAT:??_R0?AVi3MemoryPool@@@8 ; i3MemoryPool::`RTTI Base Class Descriptor at (0,-1,0,64)'
	DD	00H
	DD	00H
	DD	0ffffffffH
	DD	00H
	DD	040H
	DD	FLAT:??_R3i3MemoryPool@@8
rdata$r	ENDS
;	COMDAT ??_R2i3MemoryPool@@8
rdata$r	SEGMENT
??_R2i3MemoryPool@@8 DD FLAT:??_R1A@?0A@EA@i3MemoryPool@@8 ; i3MemoryPool::`RTTI Base Class Array'
rdata$r	ENDS
;	COMDAT ??_R3i3MemoryPool@@8
rdata$r	SEGMENT
??_R3i3MemoryPool@@8 DD 00H				; i3MemoryPool::`RTTI Class Hierarchy Descriptor'
	DD	00H
	DD	01H
	DD	FLAT:??_R2i3MemoryPool@@8
rdata$r	ENDS
;	COMDAT ??_R0?AVi3MemoryPool@@@8
data$rs	SEGMENT
??_R0?AVi3MemoryPool@@@8 DD FLAT:??_7type_info@@6B@	; i3MemoryPool `RTTI Type Descriptor'
	DD	00H
	DB	'.?AVi3MemoryPool@@', 00H
data$rs	ENDS
;	COMDAT ??_R4i3MemoryPool@@6B@
rdata$r	SEGMENT
??_R4i3MemoryPool@@6B@ DD 00H				; i3MemoryPool::`RTTI Complete Object Locator'
	DD	00H
	DD	00H
	DD	FLAT:??_R0?AVi3MemoryPool@@@8
	DD	FLAT:??_R3i3MemoryPool@@8
rdata$r	ENDS
;	COMDAT ??_R1A@?0A@EA@i3ElementBase@@8
rdata$r	SEGMENT
??_R1A@?0A@EA@i3ElementBase@@8 DD FLAT:??_R0?AVi3ElementBase@@@8 ; i3ElementBase::`RTTI Base Class Descriptor at (0,-1,0,64)'
	DD	00H
	DD	00H
	DD	0ffffffffH
	DD	00H
	DD	040H
	DD	FLAT:??_R3i3ElementBase@@8
rdata$r	ENDS
;	COMDAT ??_R2i3ElementBase@@8
rdata$r	SEGMENT
??_R2i3ElementBase@@8 DD FLAT:??_R1A@?0A@EA@i3ElementBase@@8 ; i3ElementBase::`RTTI Base Class Array'
rdata$r	ENDS
;	COMDAT ??_R3i3ElementBase@@8
rdata$r	SEGMENT
??_R3i3ElementBase@@8 DD 00H				; i3ElementBase::`RTTI Class Hierarchy Descriptor'
	DD	00H
	DD	01H
	DD	FLAT:??_R2i3ElementBase@@8
rdata$r	ENDS
;	COMDAT ??_R0?AVi3ElementBase@@@8
data$rs	SEGMENT
??_R0?AVi3ElementBase@@@8 DD FLAT:??_7type_info@@6B@	; i3ElementBase `RTTI Type Descriptor'
	DD	00H
	DB	'.?AVi3ElementBase@@', 00H
data$rs	ENDS
;	COMDAT ??_R4i3ElementBase@@6B@
rdata$r	SEGMENT
??_R4i3ElementBase@@6B@ DD 00H				; i3ElementBase::`RTTI Complete Object Locator'
	DD	00H
	DD	00H
	DD	FLAT:??_R0?AVi3ElementBase@@@8
	DD	FLAT:??_R3i3ElementBase@@8
rdata$r	ENDS
;	COMDAT ??_C@_0CG@GBCNHJEG@?$FLi3NetworkClientSocket2?3?3OnConn@
CONST	SEGMENT
??_C@_0CG@GBCNHJEG@?$FLi3NetworkClientSocket2?3?3OnConn@ DB '[i3NetworkCl'
	DB	'ientSocket2::OnConnectTo]', 00H		; `string'
CONST	ENDS
;	COMDAT ??_C@_0DF@KLHFGFKP@?$FLi3NetworkClientSocket2?3?3Select@
CONST	SEGMENT
??_C@_0DF@KLHFGFKP@?$FLi3NetworkClientSocket2?3?3Select@ DB '[i3NetworkCl'
	DB	'ientSocket2::SelectEvent] lastError = %d', 00H ; `string'
CONST	ENDS
;	COMDAT ??_C@_0DL@KEBPBEJM@?$FLi3NetworkClientSocket2?3?3SendPa@
CONST	SEGMENT
??_C@_0DL@KEBPBEJM@?$FLi3NetworkClientSocket2?3?3SendPa@ DB '[i3NetworkCl'
	DB	'ientSocket2::SendPacketMessage] lastError = %d', 00H ; `string'
CONST	ENDS
;	COMDAT ??_C@_0DD@OKMCMGMM@?$FLi3NetworkClientSocket2?3?3OnRece@
CONST	SEGMENT
??_C@_0DD@OKMCMGMM@?$FLi3NetworkClientSocket2?3?3OnRece@ DB '[i3NetworkCl'
	DB	'ientSocket2::OnReceive] lastError = %d', 00H ; `string'
CONST	ENDS
;	COMDAT ??_7i3Tcp@@6B@
CONST	SEGMENT
??_7i3Tcp@@6B@ DD FLAT:??_R4i3Tcp@@6B@			; i3Tcp::`vftable'
	DD	FLAT:?GetMeta@i3Tcp@@UAEPAVi3ClassMeta@@XZ
	DD	FLAT:??_Ei3Tcp@@UAEPAXI@Z
	DD	FLAT:?CopyTo@i3ElementBase@@UAEXPAV1@W4I3_COPY_METHOD@@@Z
CONST	ENDS
;	COMDAT ??_7i3Udp@@6B@
CONST	SEGMENT
??_7i3Udp@@6B@ DD FLAT:??_R4i3Udp@@6B@			; i3Udp::`vftable'
	DD	FLAT:?GetMeta@i3Udp@@UAEPAVi3ClassMeta@@XZ
	DD	FLAT:??_Ei3Udp@@UAEPAXI@Z
	DD	FLAT:?CopyTo@i3ElementBase@@UAEXPAV1@W4I3_COPY_METHOD@@@Z
CONST	ENDS
;	COMDAT ??_7i3NetworkPacket@@6B@
CONST	SEGMENT
??_7i3NetworkPacket@@6B@ DD FLAT:??_R4i3NetworkPacket@@6B@ ; i3NetworkPacket::`vftable'
	DD	FLAT:?GetMeta@i3NetworkPacket@@UAEPAVi3ClassMeta@@XZ
	DD	FLAT:??_Ei3NetworkPacket@@UAEPAXI@Z
	DD	FLAT:?CopyTo@i3ElementBase@@UAEXPAV1@W4I3_COPY_METHOD@@@Z
CONST	ENDS
;	COMDAT ??_7i3NetworkClientSocket2@@6B@
CONST	SEGMENT
??_7i3NetworkClientSocket2@@6B@ DD FLAT:??_R4i3NetworkClientSocket2@@6B@ ; i3NetworkClientSocket2::`vftable'
	DD	FLAT:?GetMeta@i3NetworkClientSocket2@@UAEPAVi3ClassMeta@@XZ
	DD	FLAT:??_Ei3NetworkClientSocket2@@UAEPAXI@Z
	DD	FLAT:?CopyTo@i3ElementBase@@UAEXPAV1@W4I3_COPY_METHOD@@@Z
	DD	FLAT:?OnReceive@i3NetworkClientSocket2@@UAEHXZ
	DD	FLAT:?OnDestroy@i3NetworkClientSocket2@@UAEXXZ
	DD	FLAT:?PacketParsing@i3NetworkClientSocket2@@UAEHPADH@Z
	DD	FLAT:?SendPacketMessage@i3NetworkClientSocket2@@UAEHPBDH@Z
	DD	FLAT:?SendPacketMessage@i3NetworkClientSocket2@@UAEHPAVi3NetworkPacket@@@Z
	DD	FLAT:?DisConnect@i3NetworkClientSocket2@@UAEXXZ
CONST	ENDS
;	COMDAT ??_7i3MemoryPool@@6B@
CONST	SEGMENT
??_7i3MemoryPool@@6B@ DD FLAT:??_R4i3MemoryPool@@6B@	; i3MemoryPool::`vftable'
	DD	FLAT:??_Ei3MemoryPool@@UAEPAXI@Z
	DD	FLAT:__purecall
	DD	FLAT:__purecall
CONST	ENDS
;	COMDAT ??_7i3ElementBase@@6B@
CONST	SEGMENT
??_7i3ElementBase@@6B@ DD FLAT:??_R4i3ElementBase@@6B@	; i3ElementBase::`vftable'
	DD	FLAT:?GetMeta@i3ElementBase@@UAEPAVi3ClassMeta@@XZ
	DD	FLAT:??_Ei3ElementBase@@UAEPAXI@Z
	DD	FLAT:?CopyTo@i3ElementBase@@UAEXPAV1@W4I3_COPY_METHOD@@@Z
CONST	ENDS
;	COMDAT ??_7i3ClassMeta@@6B@
CONST	SEGMENT
??_7i3ClassMeta@@6B@ DD FLAT:??_R4i3ClassMeta@@6B@	; i3ClassMeta::`vftable'
	DD	FLAT:??_Ei3ClassMeta@@UAEPAXI@Z
	DD	FLAT:?CreateInstance@i3ClassMeta@@UAEPAVi3ElementBase@@W4I3_CLASSMETA_TYPE@@@Z
	DD	FLAT:?BindInstance@i3ClassMeta@@UAEPAVi3ElementBase@@PAXW4I3_CLASSMETA_TYPE@@@Z
CONST	ENDS
;	COMDAT xdata$x
xdata$x	SEGMENT
__unwindtable$?BindInstance@?$i3MetaTemplate@Vi3NetworkClientSocket2@@@@UAEPAVi3ElementBase@@PAXW4I3_CLASSMETA_TYPE@@@Z DD 0ffffffffH
	DD	FLAT:__unwindfunclet$?BindInstance@?$i3MetaTemplate@Vi3NetworkClientSocket2@@@@UAEPAVi3ElementBase@@PAXW4I3_CLASSMETA_TYPE@@@Z$0
__ehfuncinfo$?BindInstance@?$i3MetaTemplate@Vi3NetworkClientSocket2@@@@UAEPAVi3ElementBase@@PAXW4I3_CLASSMETA_TYPE@@@Z DD 019930522H
	DD	01H
	DD	FLAT:__unwindtable$?BindInstance@?$i3MetaTemplate@Vi3NetworkClientSocket2@@@@UAEPAVi3ElementBase@@PAXW4I3_CLASSMETA_TYPE@@@Z
	DD	2 DUP(00H)
	DD	2 DUP(00H)
	DD	00H
	DD	01H
xdata$x	ENDS
;	COMDAT xdata$x
xdata$x	SEGMENT
__unwindtable$?CreateInstance@?$i3MetaTemplate@Vi3NetworkClientSocket2@@@@UAEPAVi3ElementBase@@W4I3_CLASSMETA_TYPE@@@Z DD 0ffffffffH
	DD	FLAT:__unwindfunclet$?CreateInstance@?$i3MetaTemplate@Vi3NetworkClientSocket2@@@@UAEPAVi3ElementBase@@W4I3_CLASSMETA_TYPE@@@Z$0
__ehfuncinfo$?CreateInstance@?$i3MetaTemplate@Vi3NetworkClientSocket2@@@@UAEPAVi3ElementBase@@W4I3_CLASSMETA_TYPE@@@Z DD 019930522H
	DD	01H
	DD	FLAT:__unwindtable$?CreateInstance@?$i3MetaTemplate@Vi3NetworkClientSocket2@@@@UAEPAVi3ElementBase@@W4I3_CLASSMETA_TYPE@@@Z
	DD	2 DUP(00H)
	DD	2 DUP(00H)
	DD	00H
	DD	01H
xdata$x	ENDS
;	COMDAT xdata$x
xdata$x	SEGMENT
__ehfuncinfo$??_Ei3Tcp@@UAEPAXI@Z DD 019930522H
	DD	00H
	DD	00H
	DD	2 DUP(00H)
	DD	2 DUP(00H)
	DD	00H
	DD	05H
xdata$x	ENDS
;	COMDAT xdata$x
xdata$x	SEGMENT
__ehfuncinfo$??_Ei3Udp@@UAEPAXI@Z DD 019930522H
	DD	00H
	DD	00H
	DD	2 DUP(00H)
	DD	2 DUP(00H)
	DD	00H
	DD	05H
xdata$x	ENDS
;	COMDAT xdata$x
xdata$x	SEGMENT
__ehfuncinfo$??_Ei3NetworkPacket@@UAEPAXI@Z DD 019930522H
	DD	00H
	DD	00H
	DD	2 DUP(00H)
	DD	2 DUP(00H)
	DD	00H
	DD	05H
xdata$x	ENDS
;	COMDAT xdata$x
xdata$x	SEGMENT
__unwindtable$??_Ei3NetworkClientSocket2@@UAEPAXI@Z DD 0ffffffffH
	DD	FLAT:___std_terminate
__ehfuncinfo$??_Ei3NetworkClientSocket2@@UAEPAXI@Z DD 019930522H
	DD	01H
	DD	FLAT:__unwindtable$??_Ei3NetworkClientSocket2@@UAEPAXI@Z
	DD	2 DUP(00H)
	DD	2 DUP(00H)
	DD	00H
	DD	05H
xdata$x	ENDS
;	COMDAT xdata$x
xdata$x	SEGMENT
__unwindtable$??_Gi3NetworkClientSocket2@@UAEPAXI@Z DD 0ffffffffH
	DD	FLAT:___std_terminate
__ehfuncinfo$??_Gi3NetworkClientSocket2@@UAEPAXI@Z DD 019930522H
	DD	01H
	DD	FLAT:__unwindtable$??_Gi3NetworkClientSocket2@@UAEPAXI@Z
	DD	2 DUP(00H)
	DD	2 DUP(00H)
	DD	00H
	DD	05H
xdata$x	ENDS
;	COMDAT voltbl
voltbl	SEGMENT
_volmd	DB	024H
voltbl	ENDS
;	COMDAT xdata$x
xdata$x	SEGMENT
__ehfuncinfo$??1i3NetworkClientSocket2@@UAE@XZ DD 019930522H
	DD	00H
	DD	00H
	DD	2 DUP(00H)
	DD	2 DUP(00H)
	DD	00H
	DD	05H
xdata$x	ENDS
;	COMDAT voltbl
voltbl	SEGMENT
_volmd	DB	032H
voltbl	ENDS
;	COMDAT voltbl
voltbl	SEGMENT
_volmd	DB	040H
voltbl	ENDS
;	COMDAT xdata$x
xdata$x	SEGMENT
__ehfuncinfo$??_Ei3MemoryPool@@UAEPAXI@Z DD 019930522H
	DD	00H
	DD	00H
	DD	2 DUP(00H)
	DD	2 DUP(00H)
	DD	00H
	DD	05H
xdata$x	ENDS
;	COMDAT xdata$x
xdata$x	SEGMENT
__ehfuncinfo$??_Ei3ElementBase@@UAEPAXI@Z DD 019930522H
	DD	00H
	DD	00H
	DD	2 DUP(00H)
	DD	2 DUP(00H)
	DD	00H
	DD	05H
xdata$x	ENDS
;	COMDAT xdata$x
xdata$x	SEGMENT
__ehfuncinfo$??_Ei3ClassMeta@@UAEPAXI@Z DD 019930522H
	DD	00H
	DD	00H
	DD	2 DUP(00H)
	DD	2 DUP(00H)
	DD	00H
	DD	05H
xdata$x	ENDS
;	COMDAT voltbl
voltbl	SEGMENT
_volmd	DB	010H
voltbl	ENDS
;	COMDAT voltbl
voltbl	SEGMENT
_volmd	DB	010H
voltbl	ENDS
; Function compile flags: /Ogtp
;	COMDAT ??__Fs_ClassMetai3NetworkClientSocket2@@YAXXZ
text$yd	SEGMENT
??__Fs_ClassMetai3NetworkClientSocket2@@YAXXZ PROC	; `dynamic atexit destructor for 's_ClassMetai3NetworkClientSocket2'', COMDAT
  00000	b9 00 00 00 00	 mov	 ecx, OFFSET ?s_ClassMetai3NetworkClientSocket2@@3V?$i3MetaTemplate@Vi3NetworkClientSocket2@@@@A
  00005	e9 00 00 00 00	 jmp	 ??1i3ClassMeta@@UAE@XZ	; i3ClassMeta::~i3ClassMeta
??__Fs_ClassMetai3NetworkClientSocket2@@YAXXZ ENDP	; `dynamic atexit destructor for 's_ClassMetai3NetworkClientSocket2''
text$yd	ENDS
; Function compile flags: /Ogtp
; File E:\Proyectos\JuegosOnlineproyectos\PB\pbblow\Piercing Blow Remake\i3Server\src\i3Base\i3NetworkClientSocket2.cpp
; File E:\Proyectos\JuegosOnlineproyectos\PB\pbblow\Piercing Blow Remake\i3Server\include\i3Base\i3MetaTemplate.h
; File E:\Proyectos\JuegosOnlineproyectos\PB\pbblow\Piercing Blow Remake\i3Server\src\i3Base\i3NetworkClientSocket2.cpp
; File E:\Proyectos\JuegosOnlineproyectos\PB\pbblow\Piercing Blow Remake\i3Server\include\i3Base\i3MetaTemplate.h
; File E:\Proyectos\JuegosOnlineproyectos\PB\pbblow\Piercing Blow Remake\i3Server\src\i3Base\i3NetworkClientSocket2.cpp
;	COMDAT ??__Es_ClassMetai3NetworkClientSocket2@@YAXXZ
text$di	SEGMENT
??__Es_ClassMetai3NetworkClientSocket2@@YAXXZ PROC	; `dynamic initializer for 's_ClassMetai3NetworkClientSocket2'', COMDAT
; File E:\Proyectos\JuegosOnlineproyectos\PB\pbblow\Piercing Blow Remake\i3Server\include\i3Base\i3MetaTemplate.h

; 28   : : i3ClassMeta( classSz, pszClassName, pszBaseClassName, type)

  00000	6a 00		 push	 0
  00002	68 00 00 00 00	 push	 OFFSET ??_C@_0O@OCDFBOHM@i3ElementBase@
  00007	68 00 00 00 00	 push	 OFFSET ??_C@_0BH@MJKMELBP@i3NetworkClientSocket2@
  0000c	68 94 68 00 00	 push	 26772			; 00006894H
  00011	b9 00 00 00 00	 mov	 ecx, OFFSET ?s_ClassMetai3NetworkClientSocket2@@3V?$i3MetaTemplate@Vi3NetworkClientSocket2@@@@A
  00016	e8 00 00 00 00	 call	 ??0i3ClassMeta@@QAE@IPAD0W4I3_CLASSMETA_TYPE@@@Z ; i3ClassMeta::i3ClassMeta
; File E:\Proyectos\JuegosOnlineproyectos\PB\pbblow\Piercing Blow Remake\i3Server\src\i3Base\i3NetworkClientSocket2.cpp

; 6    : I3_CLASS_INSTANCE(i3NetworkClientSocket2, i3ElementBase); 

  0001b	68 00 00 00 00	 push	 OFFSET ??__Fs_ClassMetai3NetworkClientSocket2@@YAXXZ ; `dynamic atexit destructor for 's_ClassMetai3NetworkClientSocket2''
; File E:\Proyectos\JuegosOnlineproyectos\PB\pbblow\Piercing Blow Remake\i3Server\include\i3Base\i3MetaTemplate.h

; 29   : {

  00020	c7 05 00 00 00
	00 00 00 00 00	 mov	 DWORD PTR ?s_ClassMetai3NetworkClientSocket2@@3V?$i3MetaTemplate@Vi3NetworkClientSocket2@@@@A, OFFSET ??_7?$i3MetaTemplate@Vi3NetworkClientSocket2@@@@6B@
; File E:\Proyectos\JuegosOnlineproyectos\PB\pbblow\Piercing Blow Remake\i3Server\src\i3Base\i3NetworkClientSocket2.cpp

; 6    : I3_CLASS_INSTANCE(i3NetworkClientSocket2, i3ElementBase); 

  0002a	e8 00 00 00 00	 call	 _atexit
  0002f	59		 pop	 ecx
  00030	c3		 ret	 0
??__Es_ClassMetai3NetworkClientSocket2@@YAXXZ ENDP	; `dynamic initializer for 's_ClassMetai3NetworkClientSocket2''
text$di	ENDS
; Function compile flags: /Ogtp
;	COMDAT ??_G?$i3MetaTemplate@Vi3NetworkClientSocket2@@@@UAEPAXI@Z
_TEXT	SEGMENT
___flags$ = 8						; size = 4
??_G?$i3MetaTemplate@Vi3NetworkClientSocket2@@@@UAEPAXI@Z PROC ; i3MetaTemplate<i3NetworkClientSocket2>::`scalar deleting destructor', COMDAT
; _this$ = ecx
  00000	55		 push	 ebp
  00001	8b ec		 mov	 ebp, esp
  00003	56		 push	 esi
  00004	8b f1		 mov	 esi, ecx
  00006	e8 00 00 00 00	 call	 ??1i3ClassMeta@@UAE@XZ	; i3ClassMeta::~i3ClassMeta
  0000b	f6 45 08 01	 test	 BYTE PTR ___flags$[ebp], 1
  0000f	74 0b		 je	 SHORT $LN10@scalar
  00011	6a 38		 push	 56			; 00000038H
  00013	56		 push	 esi
  00014	e8 00 00 00 00	 call	 ??3@YAXPAXI@Z		; operator delete
  00019	83 c4 08	 add	 esp, 8
$LN10@scalar:
  0001c	8b c6		 mov	 eax, esi
  0001e	5e		 pop	 esi
  0001f	5d		 pop	 ebp
  00020	c2 04 00	 ret	 4
??_G?$i3MetaTemplate@Vi3NetworkClientSocket2@@@@UAEPAXI@Z ENDP ; i3MetaTemplate<i3NetworkClientSocket2>::`scalar deleting destructor'
_TEXT	ENDS
; Function compile flags: /Ogtp
; File E:\Proyectos\JuegosOnlineproyectos\PB\pbblow\Piercing Blow Remake\i3Server\include\i3Base\i3MetaTemplate.h
;	COMDAT ?BindInstance@?$i3MetaTemplate@Vi3NetworkClientSocket2@@@@UAEPAVi3ElementBase@@PAXW4I3_CLASSMETA_TYPE@@@Z
_TEXT	SEGMENT
__$EHRec$ = -12						; size = 12
_pBuf$ = 8						; size = 4
_type$ = 12						; size = 4
$T2 = 12						; size = 4
?BindInstance@?$i3MetaTemplate@Vi3NetworkClientSocket2@@@@UAEPAVi3ElementBase@@PAXW4I3_CLASSMETA_TYPE@@@Z PROC ; i3MetaTemplate<i3NetworkClientSocket2>::BindInstance, COMDAT
; _this$ = ecx

; 129  : 	{

  00000	55		 push	 ebp
  00001	8b ec		 mov	 ebp, esp
  00003	6a ff		 push	 -1
  00005	68 00 00 00 00	 push	 __ehhandler$?BindInstance@?$i3MetaTemplate@Vi3NetworkClientSocket2@@@@UAEPAVi3ElementBase@@PAXW4I3_CLASSMETA_TYPE@@@Z
  0000a	64 a1 00 00 00
	00		 mov	 eax, DWORD PTR fs:0
  00010	50		 push	 eax
  00011	a1 00 00 00 00	 mov	 eax, DWORD PTR ___security_cookie
  00016	33 c5		 xor	 eax, ebp
  00018	50		 push	 eax
  00019	8d 45 f4	 lea	 eax, DWORD PTR __$EHRec$[ebp]
  0001c	64 a3 00 00 00
	00		 mov	 DWORD PTR fs:0, eax

; 130  : 		if( m_ProxyCount > 0)

  00022	83 79 30 00	 cmp	 DWORD PTR [ecx+48], 0
  00026	7e 25		 jle	 SHORT $LN2@BindInstan

; 131  : 		{
; 132  : 			i3ClassMeta * pMeta = GetConcreteClass( type);

  00028	ff 75 0c	 push	 DWORD PTR _type$[ebp]
  0002b	e8 00 00 00 00	 call	 ?GetConcreteClass@i3ClassMeta@@QAEPAV1@W4I3_CLASSMETA_TYPE@@@Z ; i3ClassMeta::GetConcreteClass

; 133  : 
; 134  : 			return pMeta->BindInstance( pBuf, I3_CLASSMETA_TYPE_GENERAL);

  00030	6a 00		 push	 0
  00032	ff 75 08	 push	 DWORD PTR _pBuf$[ebp]
  00035	8b c8		 mov	 ecx, eax
  00037	8b 10		 mov	 edx, DWORD PTR [eax]
  00039	ff 52 08	 call	 DWORD PTR [edx+8]

; 142  : 			#endif
; 143  : 		}
; 144  : 	}

  0003c	8b 4d f4	 mov	 ecx, DWORD PTR __$EHRec$[ebp]
  0003f	64 89 0d 00 00
	00 00		 mov	 DWORD PTR fs:0, ecx
  00046	59		 pop	 ecx
  00047	8b e5		 mov	 esp, ebp
  00049	5d		 pop	 ebp
  0004a	c2 08 00	 ret	 8
$LN2@BindInstan:

; 135  : 		}
; 136  : 		else
; 137  : 		{
; 138  : 			#if defined( I3_DEBUG)
; 139  : 				return (i3ElementBase *) new( pBuf ) T;
; 140  : 			#else
; 141  : 				return (i3ElementBase *) new( pBuf ) T;

  0004d	ff 75 08	 push	 DWORD PTR _pBuf$[ebp]
  00050	68 94 68 00 00	 push	 26772			; 00006894H
  00055	e8 00 00 00 00	 call	 ??2i3ElementBase@@SAPAXIPAX@Z ; i3ElementBase::operator new
  0005a	83 c4 08	 add	 esp, 8
  0005d	89 45 0c	 mov	 DWORD PTR $T2[ebp], eax
  00060	c7 45 fc 00 00
	00 00		 mov	 DWORD PTR __$EHRec$[ebp+8], 0
  00067	85 c0		 test	 eax, eax
  00069	74 18		 je	 SHORT $LN5@BindInstan
  0006b	8b c8		 mov	 ecx, eax
  0006d	e8 00 00 00 00	 call	 ??0i3NetworkClientSocket2@@QAE@XZ ; i3NetworkClientSocket2::i3NetworkClientSocket2

; 142  : 			#endif
; 143  : 		}
; 144  : 	}

  00072	8b 4d f4	 mov	 ecx, DWORD PTR __$EHRec$[ebp]
  00075	64 89 0d 00 00
	00 00		 mov	 DWORD PTR fs:0, ecx
  0007c	59		 pop	 ecx
  0007d	8b e5		 mov	 esp, ebp
  0007f	5d		 pop	 ebp
  00080	c2 08 00	 ret	 8
$LN5@BindInstan:

; 135  : 		}
; 136  : 		else
; 137  : 		{
; 138  : 			#if defined( I3_DEBUG)
; 139  : 				return (i3ElementBase *) new( pBuf ) T;
; 140  : 			#else
; 141  : 				return (i3ElementBase *) new( pBuf ) T;

  00083	33 c0		 xor	 eax, eax

; 142  : 			#endif
; 143  : 		}
; 144  : 	}

  00085	8b 4d f4	 mov	 ecx, DWORD PTR __$EHRec$[ebp]
  00088	64 89 0d 00 00
	00 00		 mov	 DWORD PTR fs:0, ecx
  0008f	59		 pop	 ecx
  00090	8b e5		 mov	 esp, ebp
  00092	5d		 pop	 ebp
  00093	c2 08 00	 ret	 8
_TEXT	ENDS
;	COMDAT text$x
text$x	SEGMENT
__unwindfunclet$?BindInstance@?$i3MetaTemplate@Vi3NetworkClientSocket2@@@@UAEPAVi3ElementBase@@PAXW4I3_CLASSMETA_TYPE@@@Z$0:
  00000	8b 45 08	 mov	 eax, DWORD PTR _pBuf$[ebp]
  00003	50		 push	 eax
  00004	8b 45 0c	 mov	 eax, DWORD PTR $T2[ebp]
  00007	50		 push	 eax
  00008	e8 00 00 00 00	 call	 ??3i3ElementBase@@SAXPAX0@Z ; i3ElementBase::operator delete
  0000d	83 c4 08	 add	 esp, 8
  00010	c3		 ret	 0
  00011	cc		 int	 3
  00012	cc		 int	 3
  00013	cc		 int	 3
  00014	cc		 int	 3
  00015	cc		 int	 3
__ehhandler$?BindInstance@?$i3MetaTemplate@Vi3NetworkClientSocket2@@@@UAEPAVi3ElementBase@@PAXW4I3_CLASSMETA_TYPE@@@Z:
  00016	90		 npad	 1
  00017	90		 npad	 1
  00018	8b 54 24 08	 mov	 edx, DWORD PTR [esp+8]
  0001c	8d 42 0c	 lea	 eax, DWORD PTR [edx+12]
  0001f	8b 4a fc	 mov	 ecx, DWORD PTR [edx-4]
  00022	33 c8		 xor	 ecx, eax
  00024	e8 00 00 00 00	 call	 @__security_check_cookie@4
  00029	b8 00 00 00 00	 mov	 eax, OFFSET __ehfuncinfo$?BindInstance@?$i3MetaTemplate@Vi3NetworkClientSocket2@@@@UAEPAVi3ElementBase@@PAXW4I3_CLASSMETA_TYPE@@@Z
  0002e	e9 00 00 00 00	 jmp	 ___CxxFrameHandler3
text$x	ENDS
?BindInstance@?$i3MetaTemplate@Vi3NetworkClientSocket2@@@@UAEPAVi3ElementBase@@PAXW4I3_CLASSMETA_TYPE@@@Z ENDP ; i3MetaTemplate<i3NetworkClientSocket2>::BindInstance
; Function compile flags: /Ogtp
; File E:\Proyectos\JuegosOnlineproyectos\PB\pbblow\Piercing Blow Remake\i3Server\include\i3Base\i3MetaTemplate.h
; File E:\Proyectos\JuegosOnlineproyectos\PB\pbblow\Piercing Blow Remake\i3Server\include\i3Base\i3ElementBase.h
; File E:\Proyectos\JuegosOnlineproyectos\PB\pbblow\Piercing Blow Remake\i3Server\include\i3Base\i3MetaTemplate.h
; File E:\Proyectos\JuegosOnlineproyectos\PB\pbblow\Piercing Blow Remake\i3Server\include\i3Base\i3ElementBase.h
; File E:\Proyectos\JuegosOnlineproyectos\PB\pbblow\Piercing Blow Remake\i3Server\include\i3Base\i3MetaTemplate.h
;	COMDAT ?CreateInstance@?$i3MetaTemplate@Vi3NetworkClientSocket2@@@@UAEPAVi3ElementBase@@W4I3_CLASSMETA_TYPE@@@Z
_TEXT	SEGMENT
__$EHRec$ = -12						; size = 12
_type$ = 8						; size = 4
$T2 = 8							; size = 4
?CreateInstance@?$i3MetaTemplate@Vi3NetworkClientSocket2@@@@UAEPAVi3ElementBase@@W4I3_CLASSMETA_TYPE@@@Z PROC ; i3MetaTemplate<i3NetworkClientSocket2>::CreateInstance, COMDAT
; _this$ = ecx

; 97   : 	{

  00000	55		 push	 ebp
  00001	8b ec		 mov	 ebp, esp
  00003	6a ff		 push	 -1
  00005	68 00 00 00 00	 push	 __ehhandler$?CreateInstance@?$i3MetaTemplate@Vi3NetworkClientSocket2@@@@UAEPAVi3ElementBase@@W4I3_CLASSMETA_TYPE@@@Z
  0000a	64 a1 00 00 00
	00		 mov	 eax, DWORD PTR fs:0
  00010	50		 push	 eax
  00011	56		 push	 esi
  00012	57		 push	 edi
  00013	a1 00 00 00 00	 mov	 eax, DWORD PTR ___security_cookie
  00018	33 c5		 xor	 eax, ebp
  0001a	50		 push	 eax
  0001b	8d 45 f4	 lea	 eax, DWORD PTR __$EHRec$[ebp]
  0001e	64 a3 00 00 00
	00		 mov	 DWORD PTR fs:0, eax
  00024	8b f9		 mov	 edi, ecx

; 98   : 		if( m_ProxyCount > 0)

  00026	83 7f 30 00	 cmp	 DWORD PTR [edi+48], 0
  0002a	7e 28		 jle	 SHORT $LN3@CreateInst

; 99   : 		{
; 100  : 			i3ClassMeta * pMeta = GetConcreteClass( type);

  0002c	ff 75 08	 push	 DWORD PTR _type$[ebp]
  0002f	e8 00 00 00 00	 call	 ?GetConcreteClass@i3ClassMeta@@QAEPAV1@W4I3_CLASSMETA_TYPE@@@Z ; i3ClassMeta::GetConcreteClass

; 101  : 
; 102  : 			if( pMeta != NULL)

  00034	85 c0		 test	 eax, eax
  00036	74 1c		 je	 SHORT $LN3@CreateInst

; 103  : 				return pMeta->CreateInstance( I3_CLASSMETA_TYPE_GENERAL);

  00038	8b 10		 mov	 edx, DWORD PTR [eax]
  0003a	8b c8		 mov	 ecx, eax
  0003c	6a 00		 push	 0
  0003e	ff 52 04	 call	 DWORD PTR [edx+4]

; 125  : 	}

  00041	8b 4d f4	 mov	 ecx, DWORD PTR __$EHRec$[ebp]
  00044	64 89 0d 00 00
	00 00		 mov	 DWORD PTR fs:0, ecx
  0004b	59		 pop	 ecx
  0004c	5f		 pop	 edi
  0004d	5e		 pop	 esi
  0004e	8b e5		 mov	 esp, ebp
  00050	5d		 pop	 ebp
  00051	c2 04 00	 ret	 4
$LN3@CreateInst:

; 104  : 		}
; 105  : 
; 106  : 		{
; 107  : 			if( m_pPool == NULL)

  00054	8b 4f 34	 mov	 ecx, DWORD PTR [edi+52]
  00057	85 c9		 test	 ecx, ecx
  00059	75 4a		 jne	 SHORT $LN4@CreateInst

; 108  : 			{
; 109  : 				#if defined( I3_DEBUG)
; 110  : 					return (i3ElementBase *) new T;
; 111  : 				#else
; 112  : 					return (i3ElementBase *) new T;

  0005b	68 94 68 00 00	 push	 26772			; 00006894H
  00060	e8 00 00 00 00	 call	 ??2i3ElementBase@@SAPAXI@Z ; i3ElementBase::operator new
  00065	83 c4 04	 add	 esp, 4
  00068	89 45 08	 mov	 DWORD PTR $T2[ebp], eax
  0006b	c7 45 fc 00 00
	00 00		 mov	 DWORD PTR __$EHRec$[ebp+8], 0
  00072	85 c0		 test	 eax, eax
  00074	74 1a		 je	 SHORT $LN7@CreateInst
  00076	8b c8		 mov	 ecx, eax
  00078	e8 00 00 00 00	 call	 ??0i3NetworkClientSocket2@@QAE@XZ ; i3NetworkClientSocket2::i3NetworkClientSocket2

; 125  : 	}

  0007d	8b 4d f4	 mov	 ecx, DWORD PTR __$EHRec$[ebp]
  00080	64 89 0d 00 00
	00 00		 mov	 DWORD PTR fs:0, ecx
  00087	59		 pop	 ecx
  00088	5f		 pop	 edi
  00089	5e		 pop	 esi
  0008a	8b e5		 mov	 esp, ebp
  0008c	5d		 pop	 ebp
  0008d	c2 04 00	 ret	 4
$LN7@CreateInst:

; 108  : 			{
; 109  : 				#if defined( I3_DEBUG)
; 110  : 					return (i3ElementBase *) new T;
; 111  : 				#else
; 112  : 					return (i3ElementBase *) new T;

  00090	33 c0		 xor	 eax, eax

; 125  : 	}

  00092	8b 4d f4	 mov	 ecx, DWORD PTR __$EHRec$[ebp]
  00095	64 89 0d 00 00
	00 00		 mov	 DWORD PTR fs:0, ecx
  0009c	59		 pop	 ecx
  0009d	5f		 pop	 edi
  0009e	5e		 pop	 esi
  0009f	8b e5		 mov	 esp, ebp
  000a1	5d		 pop	 ebp
  000a2	c2 04 00	 ret	 4
$LN4@CreateInst:

; 113  : 				#endif
; 114  : 			}
; 115  : 			else
; 116  : 			{
; 117  : 				i3ElementBase * p = (i3ElementBase *) m_pPool->Alloc( sizeof(T), NULL, 0);

  000a5	8b 01		 mov	 eax, DWORD PTR [ecx]
  000a7	6a 00		 push	 0
  000a9	6a 00		 push	 0
  000ab	68 94 68 00 00	 push	 26772			; 00006894H
  000b0	ff 50 04	 call	 DWORD PTR [eax+4]

; 118  : 	
; 119  : 				BindInstance( p, type);

  000b3	ff 75 08	 push	 DWORD PTR _type$[ebp]
  000b6	8b 17		 mov	 edx, DWORD PTR [edi]
  000b8	8b f0		 mov	 esi, eax
  000ba	56		 push	 esi
  000bb	8b cf		 mov	 ecx, edi
  000bd	ff 52 08	 call	 DWORD PTR [edx+8]
; File E:\Proyectos\JuegosOnlineproyectos\PB\pbblow\Piercing Blow Remake\i3Server\include\i3Base\i3ElementBase.h

; 347  : 	void			__SetMemoryPool( i3MemoryPool * pPool)			{ m_pPool = pPool; }

  000c0	8b 4f 34	 mov	 ecx, DWORD PTR [edi+52]
; File E:\Proyectos\JuegosOnlineproyectos\PB\pbblow\Piercing Blow Remake\i3Server\include\i3Base\i3MetaTemplate.h

; 122  : 				return p;

  000c3	8b c6		 mov	 eax, esi
; File E:\Proyectos\JuegosOnlineproyectos\PB\pbblow\Piercing Blow Remake\i3Server\include\i3Base\i3ElementBase.h

; 347  : 	void			__SetMemoryPool( i3MemoryPool * pPool)			{ m_pPool = pPool; }

  000c5	89 4e 0c	 mov	 DWORD PTR [esi+12], ecx
; File E:\Proyectos\JuegosOnlineproyectos\PB\pbblow\Piercing Blow Remake\i3Server\include\i3Base\i3MetaTemplate.h

; 125  : 	}

  000c8	8b 4d f4	 mov	 ecx, DWORD PTR __$EHRec$[ebp]
  000cb	64 89 0d 00 00
	00 00		 mov	 DWORD PTR fs:0, ecx
  000d2	59		 pop	 ecx
  000d3	5f		 pop	 edi
  000d4	5e		 pop	 esi
  000d5	8b e5		 mov	 esp, ebp
  000d7	5d		 pop	 ebp
  000d8	c2 04 00	 ret	 4
_TEXT	ENDS
;	COMDAT text$x
text$x	SEGMENT
__unwindfunclet$?CreateInstance@?$i3MetaTemplate@Vi3NetworkClientSocket2@@@@UAEPAVi3ElementBase@@W4I3_CLASSMETA_TYPE@@@Z$0:
  00000	8b 45 08	 mov	 eax, DWORD PTR $T2[ebp]
  00003	50		 push	 eax
  00004	e8 00 00 00 00	 call	 ??3i3ElementBase@@SAXPAX@Z ; i3ElementBase::operator delete
  00009	59		 pop	 ecx
  0000a	c3		 ret	 0
  0000b	cc		 int	 3
  0000c	cc		 int	 3
  0000d	cc		 int	 3
  0000e	cc		 int	 3
  0000f	cc		 int	 3
__ehhandler$?CreateInstance@?$i3MetaTemplate@Vi3NetworkClientSocket2@@@@UAEPAVi3ElementBase@@W4I3_CLASSMETA_TYPE@@@Z:
  00010	90		 npad	 1
  00011	90		 npad	 1
  00012	8b 54 24 08	 mov	 edx, DWORD PTR [esp+8]
  00016	8d 42 0c	 lea	 eax, DWORD PTR [edx+12]
  00019	8b 4a f4	 mov	 ecx, DWORD PTR [edx-12]
  0001c	33 c8		 xor	 ecx, eax
  0001e	e8 00 00 00 00	 call	 @__security_check_cookie@4
  00023	b8 00 00 00 00	 mov	 eax, OFFSET __ehfuncinfo$?CreateInstance@?$i3MetaTemplate@Vi3NetworkClientSocket2@@@@UAEPAVi3ElementBase@@W4I3_CLASSMETA_TYPE@@@Z
  00028	e9 00 00 00 00	 jmp	 ___CxxFrameHandler3
text$x	ENDS
?CreateInstance@?$i3MetaTemplate@Vi3NetworkClientSocket2@@@@UAEPAVi3ElementBase@@W4I3_CLASSMETA_TYPE@@@Z ENDP ; i3MetaTemplate<i3NetworkClientSocket2>::CreateInstance
; Function compile flags: /Ogtp
; File E:\Proyectos\JuegosOnlineproyectos\PB\pbblow\Piercing Blow Remake\i3Server\include\i3Base\i3MetaTemplate.h
;	COMDAT ??0?$i3MetaTemplate@Vi3NetworkClientSocket2@@@@QAE@IPAD0W4I3_CLASSMETA_TYPE@@@Z
_TEXT	SEGMENT
_this$ = -4						; size = 4
_classSz$ = 8						; size = 4
_pszClassName$ = 12					; size = 4
_pszBaseClassName$ = 16					; size = 4
_type$ = 20						; size = 4
??0?$i3MetaTemplate@Vi3NetworkClientSocket2@@@@QAE@IPAD0W4I3_CLASSMETA_TYPE@@@Z PROC ; i3MetaTemplate<i3NetworkClientSocket2>::i3MetaTemplate<i3NetworkClientSocket2>, COMDAT
; _this$ = ecx

; 29   : {

  00000	55		 push	 ebp
  00001	8b ec		 mov	 ebp, esp
  00003	51		 push	 ecx
  00004	56		 push	 esi
  00005	ff 75 14	 push	 DWORD PTR _type$[ebp]
  00008	8b f1		 mov	 esi, ecx
  0000a	ff 75 10	 push	 DWORD PTR _pszBaseClassName$[ebp]
  0000d	89 75 fc	 mov	 DWORD PTR _this$[ebp], esi
  00010	ff 75 0c	 push	 DWORD PTR _pszClassName$[ebp]
  00013	ff 75 08	 push	 DWORD PTR _classSz$[ebp]
  00016	e8 00 00 00 00	 call	 ??0i3ClassMeta@@QAE@IPAD0W4I3_CLASSMETA_TYPE@@@Z ; i3ClassMeta::i3ClassMeta
  0001b	c7 06 00 00 00
	00		 mov	 DWORD PTR [esi], OFFSET ??_7?$i3MetaTemplate@Vi3NetworkClientSocket2@@@@6B@

; 30   : }

  00021	8b c6		 mov	 eax, esi
  00023	5e		 pop	 esi
  00024	8b e5		 mov	 esp, ebp
  00026	5d		 pop	 ebp
  00027	c2 10 00	 ret	 16			; 00000010H
??0?$i3MetaTemplate@Vi3NetworkClientSocket2@@@@QAE@IPAD0W4I3_CLASSMETA_TYPE@@@Z ENDP ; i3MetaTemplate<i3NetworkClientSocket2>::i3MetaTemplate<i3NetworkClientSocket2>
_TEXT	ENDS
; Function compile flags: /Ogtp
; File E:\Proyectos\JuegosOnlineproyectos\PB\pbblow\Piercing Blow Remake\i3Server\src\i3Base\i3NetworkClientSocket2.cpp
;	COMDAT ??_Ei3Tcp@@UAEPAXI@Z
_TEXT	SEGMENT
__$EHRec$ = -12						; size = 12
___flags$ = 8						; size = 4
??_Ei3Tcp@@UAEPAXI@Z PROC				; i3Tcp::`vector deleting destructor', COMDAT
; _this$ = ecx
  00000	55		 push	 ebp
  00001	8b ec		 mov	 ebp, esp
  00003	6a ff		 push	 -1
  00005	68 00 00 00 00	 push	 __ehhandler$??_Ei3Tcp@@UAEPAXI@Z
  0000a	64 a1 00 00 00
	00		 mov	 eax, DWORD PTR fs:0
  00010	50		 push	 eax
  00011	53		 push	 ebx
  00012	56		 push	 esi
  00013	57		 push	 edi
  00014	a1 00 00 00 00	 mov	 eax, DWORD PTR ___security_cookie
  00019	33 c5		 xor	 eax, ebp
  0001b	50		 push	 eax
  0001c	8d 45 f4	 lea	 eax, DWORD PTR __$EHRec$[ebp]
  0001f	64 a3 00 00 00
	00		 mov	 DWORD PTR fs:0, eax
  00025	8b f1		 mov	 esi, ecx
  00027	8b 5d 08	 mov	 ebx, DWORD PTR ___flags$[ebp]
  0002a	8b fb		 mov	 edi, ebx
  0002c	83 e7 01	 and	 edi, 1
  0002f	f6 c3 02	 test	 bl, 2
  00032	74 43		 je	 SHORT $LN2@vector
  00034	68 00 00 00 00	 push	 OFFSET ??1i3Tcp@@UAE@XZ	; i3Tcp::~i3Tcp
  00039	ff 76 fc	 push	 DWORD PTR [esi-4]
  0003c	8d 5e fc	 lea	 ebx, DWORD PTR [esi-4]
  0003f	6a 14		 push	 20			; 00000014H
  00041	56		 push	 esi
  00042	e8 00 00 00 00	 call	 ??_M@YGXPAXIIP6EX0@Z@Z
  00047	85 ff		 test	 edi, edi
  00049	74 16		 je	 SHORT $LN3@vector
  0004b	8b 0b		 mov	 ecx, DWORD PTR [ebx]
  0004d	8d 0c 89	 lea	 ecx, DWORD PTR [ecx+ecx*4]
  00050	8d 0c 8d 04 00
	00 00		 lea	 ecx, DWORD PTR [ecx*4+4]
  00057	51		 push	 ecx
  00058	53		 push	 ebx
  00059	e8 00 00 00 00	 call	 ??_V@YAXPAXI@Z		; operator delete[]
  0005e	83 c4 08	 add	 esp, 8
$LN3@vector:
  00061	8b c3		 mov	 eax, ebx
  00063	8b 4d f4	 mov	 ecx, DWORD PTR __$EHRec$[ebp]
  00066	64 89 0d 00 00
	00 00		 mov	 DWORD PTR fs:0, ecx
  0006d	59		 pop	 ecx
  0006e	5f		 pop	 edi
  0006f	5e		 pop	 esi
  00070	5b		 pop	 ebx
  00071	8b e5		 mov	 esp, ebp
  00073	5d		 pop	 ebp
  00074	c2 04 00	 ret	 4
$LN2@vector:
  00077	e8 00 00 00 00	 call	 ??1i3Tcp@@UAE@XZ	; i3Tcp::~i3Tcp
  0007c	85 ff		 test	 edi, edi
  0007e	74 1b		 je	 SHORT $LN6@vector
  00080	f6 c3 04	 test	 bl, 4
  00083	75 0b		 jne	 SHORT $LN5@vector
  00085	56		 push	 esi
  00086	e8 00 00 00 00	 call	 ??3i3ElementBase@@SAXPAX@Z ; i3ElementBase::operator delete
  0008b	83 c4 04	 add	 esp, 4
  0008e	eb 0b		 jmp	 SHORT $LN6@vector
$LN5@vector:

  00090	6a 14		 push	 20			; 00000014H
  00092	56		 push	 esi
  00093	e8 00 00 00 00	 call	 ??3@YAXPAXI@Z		; operator delete
  00098	83 c4 08	 add	 esp, 8
$LN6@vector:
  0009b	8b c6		 mov	 eax, esi
  0009d	8b 4d f4	 mov	 ecx, DWORD PTR __$EHRec$[ebp]
  000a0	64 89 0d 00 00
	00 00		 mov	 DWORD PTR fs:0, ecx
  000a7	59		 pop	 ecx
  000a8	5f		 pop	 edi
  000a9	5e		 pop	 esi
  000aa	5b		 pop	 ebx
  000ab	8b e5		 mov	 esp, ebp
  000ad	5d		 pop	 ebp
  000ae	c2 04 00	 ret	 4
  000b1	cc		 int	 3
  000b2	cc		 int	 3
  000b3	cc		 int	 3
  000b4	cc		 int	 3
  000b5	cc		 int	 3
_TEXT	ENDS
;	COMDAT text$x
text$x	SEGMENT
__ehhandler$??_Ei3Tcp@@UAEPAXI@Z:
  00000	90		 npad	 1
  00001	90		 npad	 1
  00002	8b 54 24 08	 mov	 edx, DWORD PTR [esp+8]
  00006	8d 42 0c	 lea	 eax, DWORD PTR [edx+12]
  00009	8b 4a f0	 mov	 ecx, DWORD PTR [edx-16]
  0000c	33 c8		 xor	 ecx, eax
  0000e	e8 00 00 00 00	 call	 @__security_check_cookie@4
  00013	b8 00 00 00 00	 mov	 eax, OFFSET __ehfuncinfo$??_Ei3Tcp@@UAEPAXI@Z
  00018	e9 00 00 00 00	 jmp	 ___CxxFrameHandler3
text$x	ENDS
??_Ei3Tcp@@UAEPAXI@Z ENDP				; i3Tcp::`vector deleting destructor'
; Function compile flags: /Ogtp
; File E:\Proyectos\JuegosOnlineproyectos\PB\pbblow\Piercing Blow Remake\i3Server\src\i3Base\i3NetworkClientSocket2.cpp
;	COMDAT ??_Gi3Tcp@@UAEPAXI@Z
_TEXT	SEGMENT
___flags$ = 8						; size = 4
??_Gi3Tcp@@UAEPAXI@Z PROC				; i3Tcp::`scalar deleting destructor', COMDAT
; _this$ = ecx
  00000	55		 push	 ebp
  00001	8b ec		 mov	 ebp, esp
  00003	56		 push	 esi
  00004	8b f1		 mov	 esi, ecx
  00006	e8 00 00 00 00	 call	 ??1i3Tcp@@UAE@XZ	; i3Tcp::~i3Tcp
  0000b	8b 45 08	 mov	 eax, DWORD PTR ___flags$[ebp]
  0000e	a8 01		 test	 al, 1
  00010	74 1f		 je	 SHORT $LN10@scalar
  00012	a8 04		 test	 al, 4
  00014	75 10		 jne	 SHORT $LN3@scalar
  00016	56		 push	 esi
  00017	e8 00 00 00 00	 call	 ??3i3ElementBase@@SAXPAX@Z ; i3ElementBase::operator delete
  0001c	83 c4 04	 add	 esp, 4
  0001f	8b c6		 mov	 eax, esi
  00021	5e		 pop	 esi
  00022	5d		 pop	 ebp
  00023	c2 04 00	 ret	 4
$LN3@scalar:

  00026	6a 14		 push	 20			; 00000014H
  00028	56		 push	 esi
  00029	e8 00 00 00 00	 call	 ??3@YAXPAXI@Z		; operator delete
  0002e	83 c4 08	 add	 esp, 8
$LN10@scalar:
  00031	8b c6		 mov	 eax, esi
  00033	5e		 pop	 esi
  00034	5d		 pop	 ebp
  00035	c2 04 00	 ret	 4
??_Gi3Tcp@@UAEPAXI@Z ENDP				; i3Tcp::`scalar deleting destructor'
_TEXT	ENDS
; Function compile flags: /Ogtp
;	COMDAT ??4i3Tcp@@QAEAAV0@ABV0@@Z
_TEXT	SEGMENT
___that$ = 8						; size = 4
??4i3Tcp@@QAEAAV0@ABV0@@Z PROC				; i3Tcp::operator=, COMDAT
; _this$ = ecx
  00000	55		 push	 ebp
  00001	8b ec		 mov	 ebp, esp
  00003	8b 55 08	 mov	 edx, DWORD PTR ___that$[ebp]
  00006	8b 42 04	 mov	 eax, DWORD PTR [edx+4]
  00009	89 41 04	 mov	 DWORD PTR [ecx+4], eax
  0000c	8b 42 08	 mov	 eax, DWORD PTR [edx+8]
  0000f	89 41 08	 mov	 DWORD PTR [ecx+8], eax
  00012	8b 42 0c	 mov	 eax, DWORD PTR [edx+12]
  00015	89 41 0c	 mov	 DWORD PTR [ecx+12], eax
  00018	8b 42 10	 mov	 eax, DWORD PTR [edx+16]
  0001b	89 41 10	 mov	 DWORD PTR [ecx+16], eax
  0001e	8b c1		 mov	 eax, ecx
  00020	5d		 pop	 ebp
  00021	c2 04 00	 ret	 4
??4i3Tcp@@QAEAAV0@ABV0@@Z ENDP				; i3Tcp::operator=
_TEXT	ENDS
; Function compile flags: /Ogtp
;	COMDAT ??0i3Tcp@@QAE@ABV0@@Z
_TEXT	SEGMENT
___that$ = 8						; size = 4
??0i3Tcp@@QAE@ABV0@@Z PROC				; i3Tcp::i3Tcp, COMDAT
; _this$ = ecx
  00000	55		 push	 ebp
  00001	8b ec		 mov	 ebp, esp
  00003	8b 55 08	 mov	 edx, DWORD PTR ___that$[ebp]
  00006	c7 01 00 00 00
	00		 mov	 DWORD PTR [ecx], OFFSET ??_7i3ElementBase@@6B@
  0000c	8b 42 04	 mov	 eax, DWORD PTR [edx+4]
  0000f	89 41 04	 mov	 DWORD PTR [ecx+4], eax
  00012	8b 42 08	 mov	 eax, DWORD PTR [edx+8]
  00015	89 41 08	 mov	 DWORD PTR [ecx+8], eax
  00018	8b 42 0c	 mov	 eax, DWORD PTR [edx+12]
  0001b	89 41 0c	 mov	 DWORD PTR [ecx+12], eax
  0001e	c7 01 00 00 00
	00		 mov	 DWORD PTR [ecx], OFFSET ??_7i3Tcp@@6B@
  00024	8b 42 10	 mov	 eax, DWORD PTR [edx+16]
  00027	89 41 10	 mov	 DWORD PTR [ecx+16], eax
  0002a	8b c1		 mov	 eax, ecx
  0002c	5d		 pop	 ebp
  0002d	c2 04 00	 ret	 4
??0i3Tcp@@QAE@ABV0@@Z ENDP				; i3Tcp::i3Tcp
_TEXT	ENDS
; Function compile flags: /Ogtp
; File E:\Proyectos\JuegosOnlineproyectos\PB\pbblow\Piercing Blow Remake\i3Server\include\i3Base\i3Inet.h
;	COMDAT ?GetClassMeta@i3Tcp@@SAPAVi3ClassMeta@@XZ
_TEXT	SEGMENT
?GetClassMeta@i3Tcp@@SAPAVi3ClassMeta@@XZ PROC		; i3Tcp::GetClassMeta, COMDAT

; 85   : 	I3_CLASS_DEFINE( i3Tcp );

  00000	a1 00 00 00 00	 mov	 eax, DWORD PTR ?s_pClassMetai3Tcp@i3Tcp@@2PAVi3ClassMeta@@A ; i3Tcp::s_pClassMetai3Tcp
  00005	c3		 ret	 0
?GetClassMeta@i3Tcp@@SAPAVi3ClassMeta@@XZ ENDP		; i3Tcp::GetClassMeta
_TEXT	ENDS
; Function compile flags: /Ogtp
; File E:\Proyectos\JuegosOnlineproyectos\PB\pbblow\Piercing Blow Remake\i3Server\src\i3Base\i3NetworkClientSocket2.cpp
;	COMDAT ??_Ei3Udp@@UAEPAXI@Z
_TEXT	SEGMENT
__$EHRec$ = -12						; size = 12
___flags$ = 8						; size = 4
??_Ei3Udp@@UAEPAXI@Z PROC				; i3Udp::`vector deleting destructor', COMDAT
; _this$ = ecx
  00000	55		 push	 ebp
  00001	8b ec		 mov	 ebp, esp
  00003	6a ff		 push	 -1
  00005	68 00 00 00 00	 push	 __ehhandler$??_Ei3Udp@@UAEPAXI@Z
  0000a	64 a1 00 00 00
	00		 mov	 eax, DWORD PTR fs:0
  00010	50		 push	 eax
  00011	53		 push	 ebx
  00012	56		 push	 esi
  00013	57		 push	 edi
  00014	a1 00 00 00 00	 mov	 eax, DWORD PTR ___security_cookie
  00019	33 c5		 xor	 eax, ebp
  0001b	50		 push	 eax
  0001c	8d 45 f4	 lea	 eax, DWORD PTR __$EHRec$[ebp]
  0001f	64 a3 00 00 00
	00		 mov	 DWORD PTR fs:0, eax
  00025	8b f1		 mov	 esi, ecx
  00027	8b 5d 08	 mov	 ebx, DWORD PTR ___flags$[ebp]
  0002a	8b fb		 mov	 edi, ebx
  0002c	83 e7 01	 and	 edi, 1
  0002f	f6 c3 02	 test	 bl, 2
  00032	74 43		 je	 SHORT $LN2@vector
  00034	68 00 00 00 00	 push	 OFFSET ??1i3Udp@@UAE@XZ	; i3Udp::~i3Udp
  00039	ff 76 fc	 push	 DWORD PTR [esi-4]
  0003c	8d 5e fc	 lea	 ebx, DWORD PTR [esi-4]
  0003f	6a 14		 push	 20			; 00000014H
  00041	56		 push	 esi
  00042	e8 00 00 00 00	 call	 ??_M@YGXPAXIIP6EX0@Z@Z
  00047	85 ff		 test	 edi, edi
  00049	74 16		 je	 SHORT $LN3@vector
  0004b	8b 0b		 mov	 ecx, DWORD PTR [ebx]
  0004d	8d 0c 89	 lea	 ecx, DWORD PTR [ecx+ecx*4]
  00050	8d 0c 8d 04 00
	00 00		 lea	 ecx, DWORD PTR [ecx*4+4]
  00057	51		 push	 ecx
  00058	53		 push	 ebx
  00059	e8 00 00 00 00	 call	 ??_V@YAXPAXI@Z		; operator delete[]
  0005e	83 c4 08	 add	 esp, 8
$LN3@vector:
  00061	8b c3		 mov	 eax, ebx
  00063	8b 4d f4	 mov	 ecx, DWORD PTR __$EHRec$[ebp]
  00066	64 89 0d 00 00
	00 00		 mov	 DWORD PTR fs:0, ecx
  0006d	59		 pop	 ecx
  0006e	5f		 pop	 edi
  0006f	5e		 pop	 esi
  00070	5b		 pop	 ebx
  00071	8b e5		 mov	 esp, ebp
  00073	5d		 pop	 ebp
  00074	c2 04 00	 ret	 4
$LN2@vector:
  00077	e8 00 00 00 00	 call	 ??1i3Udp@@UAE@XZ	; i3Udp::~i3Udp
  0007c	85 ff		 test	 edi, edi
  0007e	74 1b		 je	 SHORT $LN6@vector
  00080	f6 c3 04	 test	 bl, 4
  00083	75 0b		 jne	 SHORT $LN5@vector
  00085	56		 push	 esi
  00086	e8 00 00 00 00	 call	 ??3i3ElementBase@@SAXPAX@Z ; i3ElementBase::operator delete
  0008b	83 c4 04	 add	 esp, 4
  0008e	eb 0b		 jmp	 SHORT $LN6@vector
$LN5@vector:

  00090	6a 14		 push	 20			; 00000014H
  00092	56		 push	 esi
  00093	e8 00 00 00 00	 call	 ??3@YAXPAXI@Z		; operator delete
  00098	83 c4 08	 add	 esp, 8
$LN6@vector:
  0009b	8b c6		 mov	 eax, esi
  0009d	8b 4d f4	 mov	 ecx, DWORD PTR __$EHRec$[ebp]
  000a0	64 89 0d 00 00
	00 00		 mov	 DWORD PTR fs:0, ecx
  000a7	59		 pop	 ecx
  000a8	5f		 pop	 edi
  000a9	5e		 pop	 esi
  000aa	5b		 pop	 ebx
  000ab	8b e5		 mov	 esp, ebp
  000ad	5d		 pop	 ebp
  000ae	c2 04 00	 ret	 4
  000b1	cc		 int	 3
  000b2	cc		 int	 3
  000b3	cc		 int	 3
  000b4	cc		 int	 3
  000b5	cc		 int	 3
_TEXT	ENDS
;	COMDAT text$x
text$x	SEGMENT
__ehhandler$??_Ei3Udp@@UAEPAXI@Z:
  00000	90		 npad	 1
  00001	90		 npad	 1
  00002	8b 54 24 08	 mov	 edx, DWORD PTR [esp+8]
  00006	8d 42 0c	 lea	 eax, DWORD PTR [edx+12]
  00009	8b 4a f0	 mov	 ecx, DWORD PTR [edx-16]
  0000c	33 c8		 xor	 ecx, eax
  0000e	e8 00 00 00 00	 call	 @__security_check_cookie@4
  00013	b8 00 00 00 00	 mov	 eax, OFFSET __ehfuncinfo$??_Ei3Udp@@UAEPAXI@Z
  00018	e9 00 00 00 00	 jmp	 ___CxxFrameHandler3
text$x	ENDS
??_Ei3Udp@@UAEPAXI@Z ENDP				; i3Udp::`vector deleting destructor'
; Function compile flags: /Ogtp
; File E:\Proyectos\JuegosOnlineproyectos\PB\pbblow\Piercing Blow Remake\i3Server\src\i3Base\i3NetworkClientSocket2.cpp
;	COMDAT ??_Gi3Udp@@UAEPAXI@Z
_TEXT	SEGMENT
___flags$ = 8						; size = 4
??_Gi3Udp@@UAEPAXI@Z PROC				; i3Udp::`scalar deleting destructor', COMDAT
; _this$ = ecx
  00000	55		 push	 ebp
  00001	8b ec		 mov	 ebp, esp
  00003	56		 push	 esi
  00004	8b f1		 mov	 esi, ecx
  00006	e8 00 00 00 00	 call	 ??1i3Udp@@UAE@XZ	; i3Udp::~i3Udp
  0000b	8b 45 08	 mov	 eax, DWORD PTR ___flags$[ebp]
  0000e	a8 01		 test	 al, 1
  00010	74 1f		 je	 SHORT $LN10@scalar
  00012	a8 04		 test	 al, 4
  00014	75 10		 jne	 SHORT $LN3@scalar
  00016	56		 push	 esi
  00017	e8 00 00 00 00	 call	 ??3i3ElementBase@@SAXPAX@Z ; i3ElementBase::operator delete
  0001c	83 c4 04	 add	 esp, 4
  0001f	8b c6		 mov	 eax, esi
  00021	5e		 pop	 esi
  00022	5d		 pop	 ebp
  00023	c2 04 00	 ret	 4
$LN3@scalar:

  00026	6a 14		 push	 20			; 00000014H
  00028	56		 push	 esi
  00029	e8 00 00 00 00	 call	 ??3@YAXPAXI@Z		; operator delete
  0002e	83 c4 08	 add	 esp, 8
$LN10@scalar:
  00031	8b c6		 mov	 eax, esi
  00033	5e		 pop	 esi
  00034	5d		 pop	 ebp
  00035	c2 04 00	 ret	 4
??_Gi3Udp@@UAEPAXI@Z ENDP				; i3Udp::`scalar deleting destructor'
_TEXT	ENDS
; Function compile flags: /Ogtp
;	COMDAT ??4i3Udp@@QAEAAV0@ABV0@@Z
_TEXT	SEGMENT
___that$ = 8						; size = 4
??4i3Udp@@QAEAAV0@ABV0@@Z PROC				; i3Udp::operator=, COMDAT
; _this$ = ecx
  00000	55		 push	 ebp
  00001	8b ec		 mov	 ebp, esp
  00003	8b 55 08	 mov	 edx, DWORD PTR ___that$[ebp]
  00006	8b 42 04	 mov	 eax, DWORD PTR [edx+4]
  00009	89 41 04	 mov	 DWORD PTR [ecx+4], eax
  0000c	8b 42 08	 mov	 eax, DWORD PTR [edx+8]
  0000f	89 41 08	 mov	 DWORD PTR [ecx+8], eax
  00012	8b 42 0c	 mov	 eax, DWORD PTR [edx+12]
  00015	89 41 0c	 mov	 DWORD PTR [ecx+12], eax
  00018	8b 42 10	 mov	 eax, DWORD PTR [edx+16]
  0001b	89 41 10	 mov	 DWORD PTR [ecx+16], eax
  0001e	8b c1		 mov	 eax, ecx
  00020	5d		 pop	 ebp
  00021	c2 04 00	 ret	 4
??4i3Udp@@QAEAAV0@ABV0@@Z ENDP				; i3Udp::operator=
_TEXT	ENDS
; Function compile flags: /Ogtp
;	COMDAT ??0i3Udp@@QAE@ABV0@@Z
_TEXT	SEGMENT
___that$ = 8						; size = 4
??0i3Udp@@QAE@ABV0@@Z PROC				; i3Udp::i3Udp, COMDAT
; _this$ = ecx
  00000	55		 push	 ebp
  00001	8b ec		 mov	 ebp, esp
  00003	8b 55 08	 mov	 edx, DWORD PTR ___that$[ebp]
  00006	c7 01 00 00 00
	00		 mov	 DWORD PTR [ecx], OFFSET ??_7i3ElementBase@@6B@
  0000c	8b 42 04	 mov	 eax, DWORD PTR [edx+4]
  0000f	89 41 04	 mov	 DWORD PTR [ecx+4], eax
  00012	8b 42 08	 mov	 eax, DWORD PTR [edx+8]
  00015	89 41 08	 mov	 DWORD PTR [ecx+8], eax
  00018	8b 42 0c	 mov	 eax, DWORD PTR [edx+12]
  0001b	89 41 0c	 mov	 DWORD PTR [ecx+12], eax
  0001e	c7 01 00 00 00
	00		 mov	 DWORD PTR [ecx], OFFSET ??_7i3Udp@@6B@
  00024	8b 42 10	 mov	 eax, DWORD PTR [edx+16]
  00027	89 41 10	 mov	 DWORD PTR [ecx+16], eax
  0002a	8b c1		 mov	 eax, ecx
  0002c	5d		 pop	 ebp
  0002d	c2 04 00	 ret	 4
??0i3Udp@@QAE@ABV0@@Z ENDP				; i3Udp::i3Udp
_TEXT	ENDS
; Function compile flags: /Ogtp
; File E:\Proyectos\JuegosOnlineproyectos\PB\pbblow\Piercing Blow Remake\i3Server\include\i3Base\i3Inet.h
;	COMDAT ?getSocketHandle@i3Udp@@QAEIXZ
_TEXT	SEGMENT
?getSocketHandle@i3Udp@@QAEIXZ PROC			; i3Udp::getSocketHandle, COMDAT
; _this$ = ecx

; 80   : 	SOCKET	getSocketHandle( void )				{ return m_Socket; }

  00000	8b 41 10	 mov	 eax, DWORD PTR [ecx+16]
  00003	c3		 ret	 0
?getSocketHandle@i3Udp@@QAEIXZ ENDP			; i3Udp::getSocketHandle
_TEXT	ENDS
; Function compile flags: /Ogtp
; File E:\Proyectos\JuegosOnlineproyectos\PB\pbblow\Piercing Blow Remake\i3Server\include\i3Base\i3Inet.h
;	COMDAT ?GetClassMeta@i3Udp@@SAPAVi3ClassMeta@@XZ
_TEXT	SEGMENT
?GetClassMeta@i3Udp@@SAPAVi3ClassMeta@@XZ PROC		; i3Udp::GetClassMeta, COMDAT

; 60   : 	I3_CLASS_DEFINE( i3Udp );

  00000	a1 00 00 00 00	 mov	 eax, DWORD PTR ?s_pClassMetai3Udp@i3Udp@@2PAVi3ClassMeta@@A ; i3Udp::s_pClassMetai3Udp
  00005	c3		 ret	 0
?GetClassMeta@i3Udp@@SAPAVi3ClassMeta@@XZ ENDP		; i3Udp::GetClassMeta
_TEXT	ENDS
; Function compile flags: /Ogtp
; File E:\Proyectos\JuegosOnlineproyectos\PB\pbblow\Piercing Blow Remake\i3Server\src\i3Base\i3NetworkClientSocket2.cpp
;	COMDAT ??_Ei3NetworkPacket@@UAEPAXI@Z
_TEXT	SEGMENT
__$EHRec$ = -12						; size = 12
___flags$ = 8						; size = 4
??_Ei3NetworkPacket@@UAEPAXI@Z PROC			; i3NetworkPacket::`vector deleting destructor', COMDAT
; _this$ = ecx
  00000	55		 push	 ebp
  00001	8b ec		 mov	 ebp, esp
  00003	6a ff		 push	 -1
  00005	68 00 00 00 00	 push	 __ehhandler$??_Ei3NetworkPacket@@UAEPAXI@Z
  0000a	64 a1 00 00 00
	00		 mov	 eax, DWORD PTR fs:0
  00010	50		 push	 eax
  00011	53		 push	 ebx
  00012	56		 push	 esi
  00013	57		 push	 edi
  00014	a1 00 00 00 00	 mov	 eax, DWORD PTR ___security_cookie
  00019	33 c5		 xor	 eax, ebp
  0001b	50		 push	 eax
  0001c	8d 45 f4	 lea	 eax, DWORD PTR __$EHRec$[ebp]
  0001f	64 a3 00 00 00
	00		 mov	 DWORD PTR fs:0, eax
  00025	8b f1		 mov	 esi, ecx
  00027	8b 5d 08	 mov	 ebx, DWORD PTR ___flags$[ebp]
  0002a	8b fb		 mov	 edi, ebx
  0002c	83 e7 01	 and	 edi, 1
  0002f	f6 c3 02	 test	 bl, 2
  00032	74 43		 je	 SHORT $LN2@vector
  00034	68 00 00 00 00	 push	 OFFSET ??1i3NetworkPacket@@UAE@XZ ; i3NetworkPacket::~i3NetworkPacket
  00039	ff 76 fc	 push	 DWORD PTR [esi-4]
  0003c	8d 5e fc	 lea	 ebx, DWORD PTR [esi-4]
  0003f	68 fc 22 00 00	 push	 8956			; 000022fcH
  00044	56		 push	 esi
  00045	e8 00 00 00 00	 call	 ??_M@YGXPAXIIP6EX0@Z@Z
  0004a	85 ff		 test	 edi, edi
  0004c	74 13		 je	 SHORT $LN3@vector
  0004e	69 0b fc 22 00
	00		 imul	 ecx, DWORD PTR [ebx], 8956
  00054	83 c1 04	 add	 ecx, 4
  00057	51		 push	 ecx
  00058	53		 push	 ebx
  00059	e8 00 00 00 00	 call	 ??_V@YAXPAXI@Z		; operator delete[]
  0005e	83 c4 08	 add	 esp, 8
$LN3@vector:
  00061	8b c3		 mov	 eax, ebx
  00063	8b 4d f4	 mov	 ecx, DWORD PTR __$EHRec$[ebp]
  00066	64 89 0d 00 00
	00 00		 mov	 DWORD PTR fs:0, ecx
  0006d	59		 pop	 ecx
  0006e	5f		 pop	 edi
  0006f	5e		 pop	 esi
  00070	5b		 pop	 ebx
  00071	8b e5		 mov	 esp, ebp
  00073	5d		 pop	 ebp
  00074	c2 04 00	 ret	 4
$LN2@vector:
  00077	e8 00 00 00 00	 call	 ??1i3NetworkPacket@@UAE@XZ ; i3NetworkPacket::~i3NetworkPacket
  0007c	85 ff		 test	 edi, edi
  0007e	74 1e		 je	 SHORT $LN6@vector
  00080	f6 c3 04	 test	 bl, 4
  00083	75 0b		 jne	 SHORT $LN5@vector
  00085	56		 push	 esi
  00086	e8 00 00 00 00	 call	 ??3i3ElementBase@@SAXPAX@Z ; i3ElementBase::operator delete
  0008b	83 c4 04	 add	 esp, 4
  0008e	eb 0e		 jmp	 SHORT $LN6@vector
$LN5@vector:

  00090	68 fc 22 00 00	 push	 8956			; 000022fcH
  00095	56		 push	 esi
  00096	e8 00 00 00 00	 call	 ??3@YAXPAXI@Z		; operator delete
  0009b	83 c4 08	 add	 esp, 8
$LN6@vector:
  0009e	8b c6		 mov	 eax, esi
  000a0	8b 4d f4	 mov	 ecx, DWORD PTR __$EHRec$[ebp]
  000a3	64 89 0d 00 00
	00 00		 mov	 DWORD PTR fs:0, ecx
  000aa	59		 pop	 ecx
  000ab	5f		 pop	 edi
  000ac	5e		 pop	 esi
  000ad	5b		 pop	 ebx
  000ae	8b e5		 mov	 esp, ebp
  000b0	5d		 pop	 ebp
  000b1	c2 04 00	 ret	 4
  000b4	cc		 int	 3
  000b5	cc		 int	 3
  000b6	cc		 int	 3
  000b7	cc		 int	 3
  000b8	cc		 int	 3
_TEXT	ENDS
;	COMDAT text$x
text$x	SEGMENT
__ehhandler$??_Ei3NetworkPacket@@UAEPAXI@Z:
  00000	90		 npad	 1
  00001	90		 npad	 1
  00002	8b 54 24 08	 mov	 edx, DWORD PTR [esp+8]
  00006	8d 42 0c	 lea	 eax, DWORD PTR [edx+12]
  00009	8b 4a f0	 mov	 ecx, DWORD PTR [edx-16]
  0000c	33 c8		 xor	 ecx, eax
  0000e	e8 00 00 00 00	 call	 @__security_check_cookie@4
  00013	b8 00 00 00 00	 mov	 eax, OFFSET __ehfuncinfo$??_Ei3NetworkPacket@@UAEPAXI@Z
  00018	e9 00 00 00 00	 jmp	 ___CxxFrameHandler3
text$x	ENDS
??_Ei3NetworkPacket@@UAEPAXI@Z ENDP			; i3NetworkPacket::`vector deleting destructor'
; Function compile flags: /Ogtp
; File E:\Proyectos\JuegosOnlineproyectos\PB\pbblow\Piercing Blow Remake\i3Server\src\i3Base\i3NetworkClientSocket2.cpp
;	COMDAT ??_Gi3NetworkPacket@@UAEPAXI@Z
_TEXT	SEGMENT
___flags$ = 8						; size = 4
??_Gi3NetworkPacket@@UAEPAXI@Z PROC			; i3NetworkPacket::`scalar deleting destructor', COMDAT
; _this$ = ecx
  00000	55		 push	 ebp
  00001	8b ec		 mov	 ebp, esp
  00003	56		 push	 esi
  00004	8b f1		 mov	 esi, ecx
  00006	e8 00 00 00 00	 call	 ??1i3NetworkPacket@@UAE@XZ ; i3NetworkPacket::~i3NetworkPacket
  0000b	8b 45 08	 mov	 eax, DWORD PTR ___flags$[ebp]
  0000e	a8 01		 test	 al, 1
  00010	74 22		 je	 SHORT $LN10@scalar
  00012	a8 04		 test	 al, 4
  00014	75 10		 jne	 SHORT $LN3@scalar
  00016	56		 push	 esi
  00017	e8 00 00 00 00	 call	 ??3i3ElementBase@@SAXPAX@Z ; i3ElementBase::operator delete
  0001c	83 c4 04	 add	 esp, 4
  0001f	8b c6		 mov	 eax, esi
  00021	5e		 pop	 esi
  00022	5d		 pop	 ebp
  00023	c2 04 00	 ret	 4
$LN3@scalar:

  00026	68 fc 22 00 00	 push	 8956			; 000022fcH
  0002b	56		 push	 esi
  0002c	e8 00 00 00 00	 call	 ??3@YAXPAXI@Z		; operator delete
  00031	83 c4 08	 add	 esp, 8
$LN10@scalar:
  00034	8b c6		 mov	 eax, esi
  00036	5e		 pop	 esi
  00037	5d		 pop	 ebp
  00038	c2 04 00	 ret	 4
??_Gi3NetworkPacket@@UAEPAXI@Z ENDP			; i3NetworkPacket::`scalar deleting destructor'
_TEXT	ENDS
; Function compile flags: /Ogtp
;	COMDAT ??4i3NetworkPacket@@QAEAAV0@ABV0@@Z
_TEXT	SEGMENT
___that$ = 8						; size = 4
??4i3NetworkPacket@@QAEAAV0@ABV0@@Z PROC		; i3NetworkPacket::operator=, COMDAT
; _this$ = ecx
  00000	55		 push	 ebp
  00001	8b ec		 mov	 ebp, esp
  00003	8b d1		 mov	 edx, ecx
  00005	56		 push	 esi
  00006	8b 75 08	 mov	 esi, DWORD PTR ___that$[ebp]
  00009	8b 46 04	 mov	 eax, DWORD PTR [esi+4]
  0000c	89 42 04	 mov	 DWORD PTR [edx+4], eax
  0000f	8b 46 08	 mov	 eax, DWORD PTR [esi+8]
  00012	89 42 08	 mov	 DWORD PTR [edx+8], eax
  00015	8b 46 0c	 mov	 eax, DWORD PTR [esi+12]
  00018	89 42 0c	 mov	 DWORD PTR [edx+12], eax
  0001b	8b 46 10	 mov	 eax, DWORD PTR [esi+16]
  0001e	8b 4e 14	 mov	 ecx, DWORD PTR [esi+20]
  00021	89 42 10	 mov	 DWORD PTR [edx+16], eax
  00024	33 c0		 xor	 eax, eax
  00026	89 4a 14	 mov	 DWORD PTR [edx+20], ecx
  00029	8d a4 24 00 00
	00 00		 npad	 7
$LL4@operator:
  00030	8a 4c 06 18	 mov	 cl, BYTE PTR [esi+eax+24]
  00034	88 4c 02 18	 mov	 BYTE PTR [edx+eax+24], cl
  00038	40		 inc	 eax
  00039	3d d0 22 00 00	 cmp	 eax, 8912		; 000022d0H
  0003e	72 f0		 jb	 SHORT $LL4@operator
  00040	8b 86 e8 22 00
	00		 mov	 eax, DWORD PTR [esi+8936]
  00046	89 82 e8 22 00
	00		 mov	 DWORD PTR [edx+8936], eax
  0004c	8b 86 ec 22 00
	00		 mov	 eax, DWORD PTR [esi+8940]
  00052	89 82 ec 22 00
	00		 mov	 DWORD PTR [edx+8940], eax
  00058	8b 86 f0 22 00
	00		 mov	 eax, DWORD PTR [esi+8944]
  0005e	89 82 f0 22 00
	00		 mov	 DWORD PTR [edx+8944], eax
  00064	8b 86 f4 22 00
	00		 mov	 eax, DWORD PTR [esi+8948]
  0006a	89 82 f4 22 00
	00		 mov	 DWORD PTR [edx+8948], eax
  00070	8b 86 f8 22 00
	00		 mov	 eax, DWORD PTR [esi+8952]
  00076	89 82 f8 22 00
	00		 mov	 DWORD PTR [edx+8952], eax
  0007c	8b c2		 mov	 eax, edx
  0007e	5e		 pop	 esi
  0007f	5d		 pop	 ebp
  00080	c2 04 00	 ret	 4
??4i3NetworkPacket@@QAEAAV0@ABV0@@Z ENDP		; i3NetworkPacket::operator=
_TEXT	ENDS
; Function compile flags: /Ogtp
;	COMDAT ??0i3NetworkPacket@@QAE@ABV0@@Z
_TEXT	SEGMENT
___that$ = 8						; size = 4
??0i3NetworkPacket@@QAE@ABV0@@Z PROC			; i3NetworkPacket::i3NetworkPacket, COMDAT
; _this$ = ecx
  00000	55		 push	 ebp
  00001	8b ec		 mov	 ebp, esp
  00003	56		 push	 esi
  00004	8b 75 08	 mov	 esi, DWORD PTR ___that$[ebp]
  00007	57		 push	 edi
  00008	8b f9		 mov	 edi, ecx
  0000a	68 d0 22 00 00	 push	 8912			; 000022d0H
  0000f	c7 07 00 00 00
	00		 mov	 DWORD PTR [edi], OFFSET ??_7i3ElementBase@@6B@
  00015	8b 46 04	 mov	 eax, DWORD PTR [esi+4]
  00018	89 47 04	 mov	 DWORD PTR [edi+4], eax
  0001b	8b 46 08	 mov	 eax, DWORD PTR [esi+8]
  0001e	89 47 08	 mov	 DWORD PTR [edi+8], eax
  00021	8b 46 0c	 mov	 eax, DWORD PTR [esi+12]
  00024	89 47 0c	 mov	 DWORD PTR [edi+12], eax
  00027	c7 07 00 00 00
	00		 mov	 DWORD PTR [edi], OFFSET ??_7i3NetworkPacket@@6B@
  0002d	8b 46 10	 mov	 eax, DWORD PTR [esi+16]
  00030	8b 4e 14	 mov	 ecx, DWORD PTR [esi+20]
  00033	89 47 10	 mov	 DWORD PTR [edi+16], eax
  00036	8d 46 18	 lea	 eax, DWORD PTR [esi+24]
  00039	50		 push	 eax
  0003a	8d 47 18	 lea	 eax, DWORD PTR [edi+24]
  0003d	89 4f 14	 mov	 DWORD PTR [edi+20], ecx
  00040	50		 push	 eax
  00041	e8 00 00 00 00	 call	 _memcpy
  00046	8b 86 e8 22 00
	00		 mov	 eax, DWORD PTR [esi+8936]
  0004c	83 c4 0c	 add	 esp, 12			; 0000000cH
  0004f	89 87 e8 22 00
	00		 mov	 DWORD PTR [edi+8936], eax
  00055	8b 86 ec 22 00
	00		 mov	 eax, DWORD PTR [esi+8940]
  0005b	89 87 ec 22 00
	00		 mov	 DWORD PTR [edi+8940], eax
  00061	8b 86 f0 22 00
	00		 mov	 eax, DWORD PTR [esi+8944]
  00067	89 87 f0 22 00
	00		 mov	 DWORD PTR [edi+8944], eax
  0006d	8b 86 f4 22 00
	00		 mov	 eax, DWORD PTR [esi+8948]
  00073	89 87 f4 22 00
	00		 mov	 DWORD PTR [edi+8948], eax
  00079	8b 86 f8 22 00
	00		 mov	 eax, DWORD PTR [esi+8952]
  0007f	89 87 f8 22 00
	00		 mov	 DWORD PTR [edi+8952], eax
  00085	8b c7		 mov	 eax, edi
  00087	5f		 pop	 edi
  00088	5e		 pop	 esi
  00089	5d		 pop	 ebp
  0008a	c2 04 00	 ret	 4
??0i3NetworkPacket@@QAE@ABV0@@Z ENDP			; i3NetworkPacket::i3NetworkPacket
_TEXT	ENDS
; Function compile flags: /Ogtp
; File E:\Proyectos\JuegosOnlineproyectos\PB\pbblow\Piercing Blow Remake\i3Server\include\i3Base\i3NetworkPacket.h
;	COMDAT ?GetFieldBuffer@i3NetworkPacket@@QAEPADXZ
_TEXT	SEGMENT
?GetFieldBuffer@i3NetworkPacket@@QAEPADXZ PROC		; i3NetworkPacket::GetFieldBuffer, COMDAT
; _this$ = ecx

; 52   : 	char	*	GetFieldBuffer(void)			{ return m_pDataField; }

  00000	8b 81 e8 22 00
	00		 mov	 eax, DWORD PTR [ecx+8936]
  00006	c3		 ret	 0
?GetFieldBuffer@i3NetworkPacket@@QAEPADXZ ENDP		; i3NetworkPacket::GetFieldBuffer
_TEXT	ENDS
; Function compile flags: /Ogtp
; File E:\Proyectos\JuegosOnlineproyectos\PB\pbblow\Piercing Blow Remake\i3Server\include\i3Base\i3NetworkPacket.h
;	COMDAT ?GetPacketBuffer@i3NetworkPacket@@QAEPADXZ
_TEXT	SEGMENT
?GetPacketBuffer@i3NetworkPacket@@QAEPADXZ PROC		; i3NetworkPacket::GetPacketBuffer, COMDAT
; _this$ = ecx

; 51   : 	char	*	GetPacketBuffer(void)			{ return m_pPacketBuffer; } 

  00000	8d 41 18	 lea	 eax, DWORD PTR [ecx+24]
  00003	c3		 ret	 0
?GetPacketBuffer@i3NetworkPacket@@QAEPADXZ ENDP		; i3NetworkPacket::GetPacketBuffer
_TEXT	ENDS
; Function compile flags: /Ogtp
; File E:\Proyectos\JuegosOnlineproyectos\PB\pbblow\Piercing Blow Remake\i3Server\include\i3Base\i3NetworkPacket.h
;	COMDAT ?GetDataFieldSize@i3NetworkPacket@@QAEGXZ
_TEXT	SEGMENT
?GetDataFieldSize@i3NetworkPacket@@QAEGXZ PROC		; i3NetworkPacket::GetDataFieldSize, COMDAT
; _this$ = ecx

; 50   : 	UINT16		GetDataFieldSize(void)			{ return (*m_PacketHeader.pDataSize) & 0x7FFF ; }

  00000	8b 41 10	 mov	 eax, DWORD PTR [ecx+16]
  00003	b9 ff 7f 00 00	 mov	 ecx, 32767		; 00007fffH
  00008	66 8b 00	 mov	 ax, WORD PTR [eax]
  0000b	66 23 c1	 and	 ax, cx
  0000e	c3		 ret	 0
?GetDataFieldSize@i3NetworkPacket@@QAEGXZ ENDP		; i3NetworkPacket::GetDataFieldSize
_TEXT	ENDS
; Function compile flags: /Ogtp
; File E:\Proyectos\JuegosOnlineproyectos\PB\pbblow\Piercing Blow Remake\i3Server\include\i3Base\i3NetworkPacket.h
;	COMDAT ?GetProtocolID@i3NetworkPacket@@QAEGXZ
_TEXT	SEGMENT
?GetProtocolID@i3NetworkPacket@@QAEGXZ PROC		; i3NetworkPacket::GetProtocolID, COMDAT
; _this$ = ecx

; 49   : 	PROTOCOL	GetProtocolID(void)				{ return * m_PacketHeader.pProtocolID; }

  00000	8b 41 14	 mov	 eax, DWORD PTR [ecx+20]
  00003	66 8b 00	 mov	 ax, WORD PTR [eax]
  00006	c3		 ret	 0
?GetProtocolID@i3NetworkPacket@@QAEGXZ ENDP		; i3NetworkPacket::GetProtocolID
_TEXT	ENDS
; Function compile flags: /Ogtp
; File E:\Proyectos\JuegosOnlineproyectos\PB\pbblow\Piercing Blow Remake\i3Server\include\i3Base\i3NetworkPacket.h
;	COMDAT ?GetReceivedSize@i3NetworkPacket@@QAEHXZ
_TEXT	SEGMENT
?GetReceivedSize@i3NetworkPacket@@QAEHXZ PROC		; i3NetworkPacket::GetReceivedSize, COMDAT
; _this$ = ecx

; 48   : 	INT32		GetReceivedSize(void)			{ return m_Size; }

  00000	8b 81 f8 22 00
	00		 mov	 eax, DWORD PTR [ecx+8952]
  00006	c3		 ret	 0
?GetReceivedSize@i3NetworkPacket@@QAEHXZ ENDP		; i3NetworkPacket::GetReceivedSize
_TEXT	ENDS
; Function compile flags: /Ogtp
; File E:\Proyectos\JuegosOnlineproyectos\PB\pbblow\Piercing Blow Remake\i3Server\include\i3Base\i3NetworkPacket.h
;	COMDAT ?GetPacketSize@i3NetworkPacket@@QAEHXZ
_TEXT	SEGMENT
?GetPacketSize@i3NetworkPacket@@QAEHXZ PROC		; i3NetworkPacket::GetPacketSize, COMDAT
; _this$ = ecx

; 50   : 	UINT16		GetDataFieldSize(void)			{ return (*m_PacketHeader.pDataSize) & 0x7FFF ; }

  00000	8b 41 10	 mov	 eax, DWORD PTR [ecx+16]
  00003	0f b7 00	 movzx	 eax, WORD PTR [eax]
  00006	25 ff 7f 00 00	 and	 eax, 32767		; 00007fffH

; 47   : 	INT32		GetPacketSize(void)				{ return ( GetDataFieldSize() + PACKETHEADERSIZE ); }	

  0000b	83 c0 04	 add	 eax, 4
  0000e	c3		 ret	 0
?GetPacketSize@i3NetworkPacket@@QAEHXZ ENDP		; i3NetworkPacket::GetPacketSize
_TEXT	ENDS
; Function compile flags: /Ogtp
; File E:\Proyectos\JuegosOnlineproyectos\PB\pbblow\Piercing Blow Remake\i3Server\include\i3Base\i3NetworkPacket.h
;	COMDAT ?SetProtocol@i3NetworkPacket@@QAEXG@Z
_TEXT	SEGMENT
_ProtocolID$ = 8					; size = 2
?SetProtocol@i3NetworkPacket@@QAEXG@Z PROC		; i3NetworkPacket::SetProtocol, COMDAT
; _this$ = ecx

; 44   : 	void		SetProtocol(PROTOCOL ProtocolID){ *m_PacketHeader.pProtocolID = ProtocolID; }

  00000	55		 push	 ebp
  00001	8b ec		 mov	 ebp, esp
  00003	8b 49 14	 mov	 ecx, DWORD PTR [ecx+20]
  00006	66 8b 45 08	 mov	 ax, WORD PTR _ProtocolID$[ebp]
  0000a	66 89 01	 mov	 WORD PTR [ecx], ax
  0000d	5d		 pop	 ebp
  0000e	c2 04 00	 ret	 4
?SetProtocol@i3NetworkPacket@@QAEXG@Z ENDP		; i3NetworkPacket::SetProtocol
_TEXT	ENDS
; Function compile flags: /Ogtp
; File E:\Proyectos\JuegosOnlineproyectos\PB\pbblow\Piercing Blow Remake\i3Server\include\i3Base\i3NetworkPacket.h
;	COMDAT ?GetClassMeta@i3NetworkPacket@@SAPAVi3ClassMeta@@XZ
_TEXT	SEGMENT
?GetClassMeta@i3NetworkPacket@@SAPAVi3ClassMeta@@XZ PROC ; i3NetworkPacket::GetClassMeta, COMDAT

; 22   : 	I3_CLASS_DEFINE( i3NetworkPacket ); 

  00000	a1 00 00 00 00	 mov	 eax, DWORD PTR ?s_pClassMetai3NetworkPacket@i3NetworkPacket@@2PAVi3ClassMeta@@A ; i3NetworkPacket::s_pClassMetai3NetworkPacket
  00005	c3		 ret	 0
?GetClassMeta@i3NetworkPacket@@SAPAVi3ClassMeta@@XZ ENDP ; i3NetworkPacket::GetClassMeta
_TEXT	ENDS
; Function compile flags: /Ogtp
; File E:\Proyectos\JuegosOnlineproyectos\PB\pbblow\Piercing Blow Remake\i3Server\src\i3Base\i3NetworkClientSocket2.cpp
;	COMDAT ??_Ei3NetworkClientSocket2@@UAEPAXI@Z
_TEXT	SEGMENT
__$EHRec$ = -12						; size = 12
___flags$ = 8						; size = 4
??_Ei3NetworkClientSocket2@@UAEPAXI@Z PROC		; i3NetworkClientSocket2::`vector deleting destructor', COMDAT
; _this$ = ecx
  00000	55		 push	 ebp
  00001	8b ec		 mov	 ebp, esp
  00003	6a ff		 push	 -1
  00005	68 00 00 00 00	 push	 __ehhandler$??_Ei3NetworkClientSocket2@@UAEPAXI@Z
  0000a	64 a1 00 00 00
	00		 mov	 eax, DWORD PTR fs:0
  00010	50		 push	 eax
  00011	53		 push	 ebx
  00012	56		 push	 esi
  00013	57		 push	 edi
  00014	a1 00 00 00 00	 mov	 eax, DWORD PTR ___security_cookie
  00019	33 c5		 xor	 eax, ebp
  0001b	50		 push	 eax
  0001c	8d 45 f4	 lea	 eax, DWORD PTR __$EHRec$[ebp]
  0001f	64 a3 00 00 00
	00		 mov	 DWORD PTR fs:0, eax
  00025	8b f1		 mov	 esi, ecx
  00027	8b 45 08	 mov	 eax, DWORD PTR ___flags$[ebp]
  0002a	8b d8		 mov	 ebx, eax
  0002c	83 e3 01	 and	 ebx, 1
  0002f	a8 02		 test	 al, 2
  00031	74 43		 je	 SHORT $LN2@vector
  00033	68 00 00 00 00	 push	 OFFSET ??1i3NetworkClientSocket2@@UAE@XZ ; i3NetworkClientSocket2::~i3NetworkClientSocket2
  00038	ff 76 fc	 push	 DWORD PTR [esi-4]
  0003b	8d 7e fc	 lea	 edi, DWORD PTR [esi-4]
  0003e	68 94 68 00 00	 push	 26772			; 00006894H
  00043	56		 push	 esi
  00044	e8 00 00 00 00	 call	 ??_M@YGXPAXIIP6EX0@Z@Z
  00049	85 db		 test	 ebx, ebx
  0004b	74 13		 je	 SHORT $LN3@vector
  0004d	69 0f 94 68 00
	00		 imul	 ecx, DWORD PTR [edi], 26772
  00053	83 c1 04	 add	 ecx, 4
  00056	51		 push	 ecx
  00057	57		 push	 edi
  00058	e8 00 00 00 00	 call	 ??_V@YAXPAXI@Z		; operator delete[]
  0005d	83 c4 08	 add	 esp, 8
$LN3@vector:
  00060	8b c7		 mov	 eax, edi
  00062	8b 4d f4	 mov	 ecx, DWORD PTR __$EHRec$[ebp]
  00065	64 89 0d 00 00
	00 00		 mov	 DWORD PTR fs:0, ecx
  0006c	59		 pop	 ecx
  0006d	5f		 pop	 edi
  0006e	5e		 pop	 esi
  0006f	5b		 pop	 ebx
  00070	8b e5		 mov	 esp, ebp
  00072	5d		 pop	 ebp
  00073	c2 04 00	 ret	 4
$LN2@vector:
  00076	8b ce		 mov	 ecx, esi

; 18   : {

  00078	c7 45 fc 00 00
	00 00		 mov	 DWORD PTR __$EHRec$[ebp+8], 0
  0007f	c7 06 00 00 00
	00		 mov	 DWORD PTR [esi], OFFSET ??_7i3NetworkClientSocket2@@6B@

; 131  : 	DisConnect();

  00085	e8 00 00 00 00	 call	 ?DisConnect@i3NetworkClientSocket2@@UAEXXZ ; i3NetworkClientSocket2::DisConnect

; 20   : }

  0008a	8b ce		 mov	 ecx, esi
  0008c	e8 00 00 00 00	 call	 ??1i3ElementBase@@UAE@XZ ; i3ElementBase::~i3ElementBase
  00091	85 db		 test	 ebx, ebx
  00093	74 1f		 je	 SHORT $LN6@vector
  00095	f6 45 08 04	 test	 BYTE PTR ___flags$[ebp], 4
  00099	75 0b		 jne	 SHORT $LN5@vector
  0009b	56		 push	 esi
  0009c	e8 00 00 00 00	 call	 ??3i3ElementBase@@SAXPAX@Z ; i3ElementBase::operator delete
  000a1	83 c4 04	 add	 esp, 4
  000a4	eb 0e		 jmp	 SHORT $LN6@vector
$LN5@vector:

  000a6	68 94 68 00 00	 push	 26772			; 00006894H
  000ab	56		 push	 esi
  000ac	e8 00 00 00 00	 call	 ??3@YAXPAXI@Z		; operator delete
  000b1	83 c4 08	 add	 esp, 8
$LN6@vector:
  000b4	8b c6		 mov	 eax, esi
  000b6	8b 4d f4	 mov	 ecx, DWORD PTR __$EHRec$[ebp]
  000b9	64 89 0d 00 00
	00 00		 mov	 DWORD PTR fs:0, ecx
  000c0	59		 pop	 ecx
  000c1	5f		 pop	 edi
  000c2	5e		 pop	 esi
  000c3	5b		 pop	 ebx
  000c4	8b e5		 mov	 esp, ebp
  000c6	5d		 pop	 ebp
  000c7	c2 04 00	 ret	 4
  000ca	cc		 int	 3
  000cb	cc		 int	 3
  000cc	cc		 int	 3
  000cd	cc		 int	 3
  000ce	cc		 int	 3
_TEXT	ENDS
;	COMDAT text$x
text$x	SEGMENT
__ehhandler$??_Ei3NetworkClientSocket2@@UAEPAXI@Z:
  00000	90		 npad	 1
  00001	90		 npad	 1
  00002	8b 54 24 08	 mov	 edx, DWORD PTR [esp+8]
  00006	8d 42 0c	 lea	 eax, DWORD PTR [edx+12]
  00009	8b 4a f0	 mov	 ecx, DWORD PTR [edx-16]
  0000c	33 c8		 xor	 ecx, eax
  0000e	e8 00 00 00 00	 call	 @__security_check_cookie@4
  00013	b8 00 00 00 00	 mov	 eax, OFFSET __ehfuncinfo$??_Ei3NetworkClientSocket2@@UAEPAXI@Z
  00018	e9 00 00 00 00	 jmp	 ___CxxFrameHandler3
text$x	ENDS
??_Ei3NetworkClientSocket2@@UAEPAXI@Z ENDP		; i3NetworkClientSocket2::`vector deleting destructor'
; Function compile flags: /Ogtp
; File E:\Proyectos\JuegosOnlineproyectos\PB\pbblow\Piercing Blow Remake\i3Server\src\i3Base\i3NetworkClientSocket2.cpp
;	COMDAT ??_Gi3NetworkClientSocket2@@UAEPAXI@Z
_TEXT	SEGMENT
__$EHRec$ = -12						; size = 12
___flags$ = 8						; size = 4
??_Gi3NetworkClientSocket2@@UAEPAXI@Z PROC		; i3NetworkClientSocket2::`scalar deleting destructor', COMDAT
; _this$ = ecx
  00000	55		 push	 ebp
  00001	8b ec		 mov	 ebp, esp
  00003	6a ff		 push	 -1
  00005	68 00 00 00 00	 push	 __ehhandler$??_Gi3NetworkClientSocket2@@UAEPAXI@Z
  0000a	64 a1 00 00 00
	00		 mov	 eax, DWORD PTR fs:0
  00010	50		 push	 eax
  00011	56		 push	 esi
  00012	a1 00 00 00 00	 mov	 eax, DWORD PTR ___security_cookie
  00017	33 c5		 xor	 eax, ebp
  00019	50		 push	 eax
  0001a	8d 45 f4	 lea	 eax, DWORD PTR __$EHRec$[ebp]
  0001d	64 a3 00 00 00
	00		 mov	 DWORD PTR fs:0, eax
  00023	8b f1		 mov	 esi, ecx

; 18   : {

  00025	c7 45 fc 00 00
	00 00		 mov	 DWORD PTR __$EHRec$[ebp+8], 0
  0002c	c7 06 00 00 00
	00		 mov	 DWORD PTR [esi], OFFSET ??_7i3NetworkClientSocket2@@6B@

; 131  : 	DisConnect();

  00032	e8 00 00 00 00	 call	 ?DisConnect@i3NetworkClientSocket2@@UAEXXZ ; i3NetworkClientSocket2::DisConnect

; 20   : }

  00037	8b ce		 mov	 ecx, esi
  00039	e8 00 00 00 00	 call	 ??1i3ElementBase@@UAE@XZ ; i3ElementBase::~i3ElementBase
  0003e	8b 45 08	 mov	 eax, DWORD PTR ___flags$[ebp]
  00041	a8 01		 test	 al, 1
  00043	74 2f		 je	 SHORT $LN23@scalar
  00045	a8 04		 test	 al, 4
  00047	75 1d		 jne	 SHORT $LN3@scalar
  00049	56		 push	 esi
  0004a	e8 00 00 00 00	 call	 ??3i3ElementBase@@SAXPAX@Z ; i3ElementBase::operator delete
  0004f	83 c4 04	 add	 esp, 4
  00052	8b c6		 mov	 eax, esi
  00054	8b 4d f4	 mov	 ecx, DWORD PTR __$EHRec$[ebp]
  00057	64 89 0d 00 00
	00 00		 mov	 DWORD PTR fs:0, ecx
  0005e	59		 pop	 ecx
  0005f	5e		 pop	 esi
  00060	8b e5		 mov	 esp, ebp
  00062	5d		 pop	 ebp
  00063	c2 04 00	 ret	 4
$LN3@scalar:

  00066	68 94 68 00 00	 push	 26772			; 00006894H
  0006b	56		 push	 esi
  0006c	e8 00 00 00 00	 call	 ??3@YAXPAXI@Z		; operator delete
  00071	83 c4 08	 add	 esp, 8
$LN23@scalar:
  00074	8b c6		 mov	 eax, esi
  00076	8b 4d f4	 mov	 ecx, DWORD PTR __$EHRec$[ebp]
  00079	64 89 0d 00 00
	00 00		 mov	 DWORD PTR fs:0, ecx
  00080	59		 pop	 ecx
  00081	5e		 pop	 esi
  00082	8b e5		 mov	 esp, ebp
  00084	5d		 pop	 ebp
  00085	c2 04 00	 ret	 4
  00088	cc		 int	 3
  00089	cc		 int	 3
  0008a	cc		 int	 3
  0008b	cc		 int	 3
  0008c	cc		 int	 3
_TEXT	ENDS
;	COMDAT text$x
text$x	SEGMENT
__ehhandler$??_Gi3NetworkClientSocket2@@UAEPAXI@Z:
  00000	90		 npad	 1
  00001	90		 npad	 1
  00002	8b 54 24 08	 mov	 edx, DWORD PTR [esp+8]
  00006	8d 42 0c	 lea	 eax, DWORD PTR [edx+12]
  00009	8b 4a f8	 mov	 ecx, DWORD PTR [edx-8]
  0000c	33 c8		 xor	 ecx, eax
  0000e	e8 00 00 00 00	 call	 @__security_check_cookie@4
  00013	b8 00 00 00 00	 mov	 eax, OFFSET __ehfuncinfo$??_Gi3NetworkClientSocket2@@UAEPAXI@Z
  00018	e9 00 00 00 00	 jmp	 ___CxxFrameHandler3
text$x	ENDS
??_Gi3NetworkClientSocket2@@UAEPAXI@Z ENDP		; i3NetworkClientSocket2::`scalar deleting destructor'
; Function compile flags: /Ogtp
;	COMDAT ??4i3NetworkClientSocket2@@QAEAAV0@ABV0@@Z
_TEXT	SEGMENT
___that$ = 8						; size = 4
??4i3NetworkClientSocket2@@QAEAAV0@ABV0@@Z PROC		; i3NetworkClientSocket2::operator=, COMDAT
; _this$ = ecx
  00000	55		 push	 ebp
  00001	8b ec		 mov	 ebp, esp
  00003	8b d1		 mov	 edx, ecx
  00005	56		 push	 esi
  00006	8b 75 08	 mov	 esi, DWORD PTR ___that$[ebp]
  00009	8b 46 04	 mov	 eax, DWORD PTR [esi+4]
  0000c	89 42 04	 mov	 DWORD PTR [edx+4], eax
  0000f	8b 46 08	 mov	 eax, DWORD PTR [esi+8]
  00012	89 42 08	 mov	 DWORD PTR [edx+8], eax
  00015	8b 46 0c	 mov	 eax, DWORD PTR [esi+12]
  00018	89 42 0c	 mov	 DWORD PTR [edx+12], eax
  0001b	8b 46 10	 mov	 eax, DWORD PTR [esi+16]
  0001e	89 42 10	 mov	 DWORD PTR [edx+16], eax
  00021	8b 46 14	 mov	 eax, DWORD PTR [esi+20]
  00024	89 42 14	 mov	 DWORD PTR [edx+20], eax
  00027	8b 46 18	 mov	 eax, DWORD PTR [esi+24]
  0002a	89 42 18	 mov	 DWORD PTR [edx+24], eax
  0002d	33 c0		 xor	 eax, eax
  0002f	90		 npad	 1
$LL4@operator:
  00030	8a 4c 06 1c	 mov	 cl, BYTE PTR [esi+eax+28]
  00034	88 4c 02 1c	 mov	 BYTE PTR [edx+eax+28], cl
  00038	40		 inc	 eax
  00039	3d 70 68 00 00	 cmp	 eax, 26736		; 00006870H
  0003e	72 f0		 jb	 SHORT $LL4@operator
  00040	8b 86 8c 68 00
	00		 mov	 eax, DWORD PTR [esi+26764]
  00046	89 82 8c 68 00
	00		 mov	 DWORD PTR [edx+26764], eax
  0004c	8b 86 90 68 00
	00		 mov	 eax, DWORD PTR [esi+26768]
  00052	89 82 90 68 00
	00		 mov	 DWORD PTR [edx+26768], eax
  00058	8b c2		 mov	 eax, edx
  0005a	5e		 pop	 esi
  0005b	5d		 pop	 ebp
  0005c	c2 04 00	 ret	 4
??4i3NetworkClientSocket2@@QAEAAV0@ABV0@@Z ENDP		; i3NetworkClientSocket2::operator=
_TEXT	ENDS
; Function compile flags: /Ogtp
;	COMDAT ??0i3NetworkClientSocket2@@QAE@ABV0@@Z
_TEXT	SEGMENT
___that$ = 8						; size = 4
??0i3NetworkClientSocket2@@QAE@ABV0@@Z PROC		; i3NetworkClientSocket2::i3NetworkClientSocket2, COMDAT
; _this$ = ecx
  00000	55		 push	 ebp
  00001	8b ec		 mov	 ebp, esp
  00003	56		 push	 esi
  00004	8b 75 08	 mov	 esi, DWORD PTR ___that$[ebp]
  00007	57		 push	 edi
  00008	8b f9		 mov	 edi, ecx
  0000a	68 70 68 00 00	 push	 26736			; 00006870H
  0000f	c7 07 00 00 00
	00		 mov	 DWORD PTR [edi], OFFSET ??_7i3ElementBase@@6B@
  00015	8b 46 04	 mov	 eax, DWORD PTR [esi+4]
  00018	89 47 04	 mov	 DWORD PTR [edi+4], eax
  0001b	8b 46 08	 mov	 eax, DWORD PTR [esi+8]
  0001e	89 47 08	 mov	 DWORD PTR [edi+8], eax
  00021	8b 46 0c	 mov	 eax, DWORD PTR [esi+12]
  00024	89 47 0c	 mov	 DWORD PTR [edi+12], eax
  00027	c7 07 00 00 00
	00		 mov	 DWORD PTR [edi], OFFSET ??_7i3NetworkClientSocket2@@6B@
  0002d	8b 46 10	 mov	 eax, DWORD PTR [esi+16]
  00030	89 47 10	 mov	 DWORD PTR [edi+16], eax
  00033	8b 46 14	 mov	 eax, DWORD PTR [esi+20]
  00036	89 47 14	 mov	 DWORD PTR [edi+20], eax
  00039	8b 46 18	 mov	 eax, DWORD PTR [esi+24]
  0003c	89 47 18	 mov	 DWORD PTR [edi+24], eax
  0003f	8d 46 1c	 lea	 eax, DWORD PTR [esi+28]
  00042	50		 push	 eax
  00043	8d 47 1c	 lea	 eax, DWORD PTR [edi+28]
  00046	50		 push	 eax
  00047	e8 00 00 00 00	 call	 _memcpy
  0004c	8b 86 8c 68 00
	00		 mov	 eax, DWORD PTR [esi+26764]
  00052	83 c4 0c	 add	 esp, 12			; 0000000cH
  00055	89 87 8c 68 00
	00		 mov	 DWORD PTR [edi+26764], eax
  0005b	8b 86 90 68 00
	00		 mov	 eax, DWORD PTR [esi+26768]
  00061	89 87 90 68 00
	00		 mov	 DWORD PTR [edi+26768], eax
  00067	8b c7		 mov	 eax, edi
  00069	5f		 pop	 edi
  0006a	5e		 pop	 esi
  0006b	5d		 pop	 ebp
  0006c	c2 04 00	 ret	 4
??0i3NetworkClientSocket2@@QAE@ABV0@@Z ENDP		; i3NetworkClientSocket2::i3NetworkClientSocket2
_TEXT	ENDS
; Function compile flags: /Ogtp
; File E:\Proyectos\JuegosOnlineproyectos\PB\pbblow\Piercing Blow Remake\i3Server\src\i3Base\i3NetworkClientSocket2.cpp
;	COMDAT ?DisConnect@i3NetworkClientSocket2@@UAEXXZ
_TEXT	SEGMENT
?DisConnect@i3NetworkClientSocket2@@UAEXXZ PROC		; i3NetworkClientSocket2::DisConnect, COMDAT
; _this$ = ecx

; 112  : {

  00000	56		 push	 esi
  00001	8b f1		 mov	 esi, ecx

; 113  : 	if (INVALID_HANDLE_VALUE != m_recvEvent)

  00003	8b 46 14	 mov	 eax, DWORD PTR [esi+20]
  00006	83 f8 ff	 cmp	 eax, -1
  00009	74 0e		 je	 SHORT $LN2@DisConnect

; 114  : 	{
; 115  : 		::WSACloseEvent(m_recvEvent);

  0000b	50		 push	 eax
  0000c	ff 15 00 00 00
	00		 call	 DWORD PTR __imp__WSACloseEvent@4

; 116  : 		m_recvEvent = INVALID_HANDLE_VALUE;

  00012	c7 46 14 ff ff
	ff ff		 mov	 DWORD PTR [esi+20], -1
$LN2@DisConnect:

; 117  : 	}
; 118  : 
; 119  : 	if (INVALID_SOCKET != m_socket)

  00019	8b 46 10	 mov	 eax, DWORD PTR [esi+16]
  0001c	83 f8 ff	 cmp	 eax, -1
  0001f	74 19		 je	 SHORT $LN5@DisConnect

; 120  : 	{
; 121  : 		::shutdown(m_socket, SD_BOTH);

  00021	6a 02		 push	 2
  00023	50		 push	 eax
  00024	ff 15 00 00 00
	00		 call	 DWORD PTR __imp__shutdown@8

; 122  : 		::closesocket(m_socket);

  0002a	ff 76 10	 push	 DWORD PTR [esi+16]
  0002d	ff 15 00 00 00
	00		 call	 DWORD PTR __imp__closesocket@4

; 123  : 		m_socket = INVALID_SOCKET;

  00033	c7 46 10 ff ff
	ff ff		 mov	 DWORD PTR [esi+16], -1
$LN5@DisConnect:

; 124  : 	}
; 125  : 
; 126  : 	m_receivedPacketSize = 0;
; 127  : }

  0003a	c7 46 18 00 00
	00 00		 mov	 DWORD PTR [esi+24], 0
  00041	5e		 pop	 esi
  00042	c3		 ret	 0
?DisConnect@i3NetworkClientSocket2@@UAEXXZ ENDP		; i3NetworkClientSocket2::DisConnect
_TEXT	ENDS
; Function compile flags: /Ogtp
; File E:\Proyectos\JuegosOnlineproyectos\PB\pbblow\Piercing Blow Remake\i3Server\src\i3Base\i3NetworkClientSocket2.cpp
;	COMDAT ?IsConnected@i3NetworkClientSocket2@@QBEHXZ
_TEXT	SEGMENT
?IsConnected@i3NetworkClientSocket2@@QBEHXZ PROC	; i3NetworkClientSocket2::IsConnected, COMDAT
; _this$ = ecx

; 218  : 	if (INVALID_SOCKET == m_socket)
; 219  : 	{
; 220  : 		return FALSE;
; 221  : 	}
; 222  : 	
; 223  : 	return TRUE;
; 224  : }

  00000	33 c0		 xor	 eax, eax
  00002	83 79 10 ff	 cmp	 DWORD PTR [ecx+16], -1
  00006	0f 95 c0	 setne	 al
  00009	c3		 ret	 0
?IsConnected@i3NetworkClientSocket2@@QBEHXZ ENDP	; i3NetworkClientSocket2::IsConnected
_TEXT	ENDS
; Function compile flags: /Ogtp
; File E:\Proyectos\JuegosOnlineproyectos\PB\pbblow\Piercing Blow Remake\i3Server\src\i3Base\i3NetworkClientSocket2.cpp
; File C:\Program Files (x86)\Windows Kits\10\Include\10.0.26100.0\um\winnt.h
; File E:\Proyectos\JuegosOnlineproyectos\PB\pbblow\Piercing Blow Remake\i3Server\src\i3Base\i3NetworkClientSocket2.cpp
; File E:\Proyectos\JuegosOnlineproyectos\PB\pbblow\Piercing Blow Remake\i3Server\include\i3Base\i3Memory.h
; File C:\Program Files (x86)\Windows Kits\10\Include\10.0.26100.0\um\winnt.h
; File E:\Proyectos\JuegosOnlineproyectos\PB\pbblow\Piercing Blow Remake\i3Server\src\i3Base\i3NetworkClientSocket2.cpp
;	COMDAT ?SelectEvent@i3NetworkClientSocket2@@QAEHXZ
_TEXT	SEGMENT
_event$ = -308						; size = 44
_message$ = -264					; size = 260
__$ArrayPad$ = -4					; size = 4
?SelectEvent@i3NetworkClientSocket2@@QAEHXZ PROC	; i3NetworkClientSocket2::SelectEvent, COMDAT
; _this$ = ecx

; 182  : {

  00000	55		 push	 ebp
  00001	8b ec		 mov	 ebp, esp
  00003	81 ec 34 01 00
	00		 sub	 esp, 308		; 00000134H
  00009	a1 00 00 00 00	 mov	 eax, DWORD PTR ___security_cookie
  0000e	33 c5		 xor	 eax, ebp
  00010	89 45 fc	 mov	 DWORD PTR __$ArrayPad$[ebp], eax
  00013	56		 push	 esi
  00014	57		 push	 edi
  00015	8b f1		 mov	 esi, ecx
; File C:\Program Files (x86)\Windows Kits\10\Include\10.0.26100.0\um\winnt.h

; 23413:     volatile char *vptr = (volatile char *)ptr;

  00017	8d 85 cc fe ff
	ff		 lea	 eax, DWORD PTR _event$[ebp]
; File E:\Proyectos\JuegosOnlineproyectos\PB\pbblow\Piercing Blow Remake\i3Server\src\i3Base\i3NetworkClientSocket2.cpp

; 183  : 	INT32 i32Rv = 0; 

  0001d	33 ff		 xor	 edi, edi
; File E:\Proyectos\JuegosOnlineproyectos\PB\pbblow\Piercing Blow Remake\i3Server\include\i3Base\i3Memory.h

; 144  : 			::SecureZeroMemory( pDest, sz);

  0001f	b9 2c 00 00 00	 mov	 ecx, 44			; 0000002cH
$LL10@SelectEven:
; File C:\Program Files (x86)\Windows Kits\10\Include\10.0.26100.0\um\winnt.h

; 23429:         *vptr = 0;

  00024	c6 00 00	 mov	 BYTE PTR [eax], 0

; 23430: 
; 23431: #endif
; 23432: 
; 23433:         vptr++;

  00027	8d 40 01	 lea	 eax, DWORD PTR [eax+1]

; 23434:         cnt--;

  0002a	83 e9 01	 sub	 ecx, 1
  0002d	75 f5		 jne	 SHORT $LL10@SelectEven
; File E:\Proyectos\JuegosOnlineproyectos\PB\pbblow\Piercing Blow Remake\i3Server\src\i3Base\i3NetworkClientSocket2.cpp

; 188  : 	if (SOCKET_ERROR != ::WSAEventSelect(m_socket, m_recvEvent, FD_WRITE | FD_READ | FD_CLOSE))

  0002f	6a 23		 push	 35			; 00000023H
  00031	ff 76 14	 push	 DWORD PTR [esi+20]
  00034	ff 76 10	 push	 DWORD PTR [esi+16]
  00037	ff 15 00 00 00
	00		 call	 DWORD PTR __imp__WSAEventSelect@12
  0003d	83 f8 ff	 cmp	 eax, -1
  00040	74 53		 je	 SHORT $LN3@SelectEven

; 189  : 	{
; 190  : 		if (SOCKET_ERROR != ::WSAEnumNetworkEvents(m_socket, m_recvEvent, &event))

  00042	8d 85 cc fe ff
	ff		 lea	 eax, DWORD PTR _event$[ebp]
  00048	50		 push	 eax
  00049	ff 76 14	 push	 DWORD PTR [esi+20]
  0004c	ff 76 10	 push	 DWORD PTR [esi+16]
  0004f	ff 15 00 00 00
	00		 call	 DWORD PTR __imp__WSAEnumNetworkEvents@12
  00055	83 f8 ff	 cmp	 eax, -1
  00058	74 3b		 je	 SHORT $LN3@SelectEven

; 191  : 		{
; 192  : 			if (TESTBIT(event.lNetworkEvents, FD_READ))

  0005a	8b 85 cc fe ff
	ff		 mov	 eax, DWORD PTR _event$[ebp]
  00060	a8 01		 test	 al, 1
  00062	74 0f		 je	 SHORT $LN4@SelectEven

; 193  : 			{
; 194  : 				i32Rv = OnReceive();

  00064	8b 06		 mov	 eax, DWORD PTR [esi]
  00066	8b ce		 mov	 ecx, esi
  00068	ff 50 0c	 call	 DWORD PTR [eax+12]
  0006b	8b f8		 mov	 edi, eax
  0006d	8b 85 cc fe ff
	ff		 mov	 eax, DWORD PTR _event$[ebp]
$LN4@SelectEven:

; 195  : 			}
; 196  : 			if (TESTBIT(event.lNetworkEvents, FD_CLOSE))

  00073	a8 20		 test	 al, 32			; 00000020H
  00075	74 0c		 je	 SHORT $LN5@SelectEven

; 197  : 			{
; 198  : 				DisConnect();

  00077	8b 06		 mov	 eax, DWORD PTR [esi]
  00079	8b ce		 mov	 ecx, esi
  0007b	ff 50 20	 call	 DWORD PTR [eax+32]

; 199  : 				i32Rv = TCP_DISCONNECT_TYPE_OTHER;

  0007e	bf 01 00 00 80	 mov	 edi, -2147483647	; 80000001H
$LN5@SelectEven:

; 200  : 			}
; 201  : 
; 202  : 			return i32Rv;

  00083	8b c7		 mov	 eax, edi
  00085	5f		 pop	 edi

; 212  : 
; 213  : 	return i32Rv;
; 214  : }

  00086	5e		 pop	 esi
  00087	8b 4d fc	 mov	 ecx, DWORD PTR __$ArrayPad$[ebp]
  0008a	33 cd		 xor	 ecx, ebp
  0008c	e8 00 00 00 00	 call	 @__security_check_cookie@4
  00091	8b e5		 mov	 esp, ebp
  00093	5d		 pop	 ebp
  00094	c3		 ret	 0
$LN3@SelectEven:

; 203  : 		}
; 204  : 	}
; 205  : 
; 206  : 	// żŔ·ů ąß»ý˝Ă Ăł¸®ÇŃ´Ů.
; 207  : 	// żŔ·ů ąß»ý żřŔÎŔĚ µżŔĎÇĎ±â¶§ą®żˇ Ăâ·ÂŔ» ±¸şĐÇĎÁö ľĘ˝Ŕ´Ď´Ů.
; 208  : 	char message[MAX_PATH];	
; 209  : 	INT32 error = ::WSAGetLastError();

  00095	ff 15 00 00 00
	00		 call	 DWORD PTR __imp__WSAGetLastError@0

; 210  : 	sprintf(message, "[i3NetworkClientSocket2::SelectEvent] lastError = %d", error);

  0009b	50		 push	 eax
  0009c	8d 85 f8 fe ff
	ff		 lea	 eax, DWORD PTR _message$[ebp]
  000a2	68 00 00 00 00	 push	 OFFSET ??_C@_0DF@KLHFGFKP@?$FLi3NetworkClientSocket2?3?3Select@
  000a7	50		 push	 eax
  000a8	e8 00 00 00 00	 call	 _sprintf

; 211  : 	i3Net::GetError(message);

  000ad	8d 85 f8 fe ff
	ff		 lea	 eax, DWORD PTR _message$[ebp]
  000b3	50		 push	 eax
  000b4	e8 00 00 00 00	 call	 ?GetError@i3Net@@YAHPAD@Z ; i3Net::GetError

; 212  : 
; 213  : 	return i32Rv;
; 214  : }

  000b9	8b 4d fc	 mov	 ecx, DWORD PTR __$ArrayPad$[ebp]
  000bc	83 c4 10	 add	 esp, 16			; 00000010H
  000bf	33 cd		 xor	 ecx, ebp
  000c1	33 c0		 xor	 eax, eax
  000c3	5f		 pop	 edi
  000c4	5e		 pop	 esi
  000c5	e8 00 00 00 00	 call	 @__security_check_cookie@4
  000ca	8b e5		 mov	 esp, ebp
  000cc	5d		 pop	 ebp
  000cd	c3		 ret	 0
?SelectEvent@i3NetworkClientSocket2@@QAEHXZ ENDP	; i3NetworkClientSocket2::SelectEvent
_TEXT	ENDS
; Function compile flags: /Ogtp
; File E:\Proyectos\JuegosOnlineproyectos\PB\pbblow\Piercing Blow Remake\i3Server\src\i3Base\i3NetworkClientSocket2.cpp
;	COMDAT ?SendPacketMessage@i3NetworkClientSocket2@@UAEHPBDH@Z
_TEXT	SEGMENT
_pBuffer$GSCopy$1$ = -268				; size = 4
_message$1 = -264					; size = 260
__$ArrayPad$ = -4					; size = 4
_pBuffer$ = 8						; size = 4
_nSize$ = 12						; size = 4
?SendPacketMessage@i3NetworkClientSocket2@@UAEHPBDH@Z PROC ; i3NetworkClientSocket2::SendPacketMessage, COMDAT
; _this$ = ecx

; 146  : {

  00000	55		 push	 ebp
  00001	8b ec		 mov	 ebp, esp
  00003	81 ec 0c 01 00
	00		 sub	 esp, 268		; 0000010cH
  00009	a1 00 00 00 00	 mov	 eax, DWORD PTR ___security_cookie
  0000e	33 c5		 xor	 eax, ebp
  00010	89 45 fc	 mov	 DWORD PTR __$ArrayPad$[ebp], eax
  00013	53		 push	 ebx
  00014	8b d9		 mov	 ebx, ecx
  00016	8b 4d 08	 mov	 ecx, DWORD PTR _pBuffer$[ebp]
  00019	56		 push	 esi
  0001a	57		 push	 edi
  0001b	89 8d f4 fe ff
	ff		 mov	 DWORD PTR _pBuffer$GSCopy$1$[ebp], ecx

; 147  : 	// ĽŇÄĎŔĚ ´ÝÇűŔ¸¸é ş¸ł×Áö ľĘ´Â´Ů.
; 148  : 	if (INVALID_SOCKET == m_socket)	return 0;

  00021	83 7b 10 ff	 cmp	 DWORD PTR [ebx+16], -1
  00025	0f 84 84 00 00
	00		 je	 $LN10@SendPacket

; 149  : 
; 150  : 	// ĆĐĹ¶Ŕ» ´Ů ş¸łľ¶§±îÁö ąÝşąÇŃ´Ů.
; 151  : 	INT32 sendIdx = 0;
; 152  : 	while(nSize > sendIdx)

  0002b	8b 7d 0c	 mov	 edi, DWORD PTR _nSize$[ebp]
  0002e	33 f6		 xor	 esi, esi
  00030	85 ff		 test	 edi, edi
  00032	7e 29		 jle	 SHORT $LN3@SendPacket
$LL2@SendPacket:

; 153  : 	{
; 154  : 		INT32 sendedByte = ::send(m_socket, pBuffer + sendIdx, nSize - sendIdx, 0);

  00034	6a 00		 push	 0
  00036	8b c7		 mov	 eax, edi
  00038	2b c6		 sub	 eax, esi
  0003a	50		 push	 eax
  0003b	8d 04 31	 lea	 eax, DWORD PTR [ecx+esi]
  0003e	50		 push	 eax
  0003f	ff 73 10	 push	 DWORD PTR [ebx+16]
  00042	ff 15 00 00 00
	00		 call	 DWORD PTR __imp__send@16

; 155  : 
; 156  : 		// ŔüĽŰ ˝ÇĆĐ 
; 157  : 		if (SOCKET_ERROR == sendedByte)

  00048	83 f8 ff	 cmp	 eax, -1
  0004b	74 25		 je	 SHORT $LN9@SendPacket

; 166  : 		}
; 167  : 
; 168  : 		// ż¬°áŔĚ ˛÷ľîÁł´Ů.
; 169  : 		if (0 == sendedByte)

  0004d	85 c0		 test	 eax, eax
  0004f	74 5e		 je	 SHORT $LN10@SendPacket

; 170  : 		{
; 171  : 			return 0;
; 172  : 		}
; 173  : 
; 174  : 		// ŔüĽŰ ąŮŔĚĆ®¸¸Ĺ­ ŔÎµ¦˝ş Áő°ˇ
; 175  : 		sendIdx += sendedByte;

  00051	8b 8d f4 fe ff
	ff		 mov	 ecx, DWORD PTR _pBuffer$GSCopy$1$[ebp]
  00057	03 f0		 add	 esi, eax
  00059	3b fe		 cmp	 edi, esi
  0005b	7f d7		 jg	 SHORT $LL2@SendPacket
$LN3@SendPacket:
  0005d	5f		 pop	 edi

; 176  : 	}
; 177  : 
; 178  : 	return sendIdx;

  0005e	8b c6		 mov	 eax, esi

; 179  : }

  00060	5e		 pop	 esi
  00061	5b		 pop	 ebx
  00062	8b 4d fc	 mov	 ecx, DWORD PTR __$ArrayPad$[ebp]
  00065	33 cd		 xor	 ecx, ebp
  00067	e8 00 00 00 00	 call	 @__security_check_cookie@4
  0006c	8b e5		 mov	 esp, ebp
  0006e	5d		 pop	 ebp
  0006f	c2 08 00	 ret	 8
$LN9@SendPacket:

; 158  : 		{
; 159  : 			char message[MAX_PATH];
; 160  : 			INT32 error = ::WSAGetLastError();

  00072	ff 15 00 00 00
	00		 call	 DWORD PTR __imp__WSAGetLastError@0

; 161  : 
; 162  : 			sprintf(message, "[i3NetworkClientSocket2::SendPacketMessage] lastError = %d", error);

  00078	50		 push	 eax
  00079	8d 85 f8 fe ff
	ff		 lea	 eax, DWORD PTR _message$1[ebp]
  0007f	68 00 00 00 00	 push	 OFFSET ??_C@_0DL@KEBPBEJM@?$FLi3NetworkClientSocket2?3?3SendPa@
  00084	50		 push	 eax
  00085	e8 00 00 00 00	 call	 _sprintf

; 163  : 			i3Net::GetError(message);

  0008a	8d 85 f8 fe ff
	ff		 lea	 eax, DWORD PTR _message$1[ebp]
  00090	50		 push	 eax
  00091	e8 00 00 00 00	 call	 ?GetError@i3Net@@YAHPAD@Z ; i3Net::GetError
  00096	83 c4 10	 add	 esp, 16			; 00000010H

; 164  : 			
; 165  : 			return -1;

  00099	83 c8 ff	 or	 eax, -1
  0009c	5f		 pop	 edi

; 179  : }

  0009d	5e		 pop	 esi
  0009e	5b		 pop	 ebx
  0009f	8b 4d fc	 mov	 ecx, DWORD PTR __$ArrayPad$[ebp]
  000a2	33 cd		 xor	 ecx, ebp
  000a4	e8 00 00 00 00	 call	 @__security_check_cookie@4
  000a9	8b e5		 mov	 esp, ebp
  000ab	5d		 pop	 ebp
  000ac	c2 08 00	 ret	 8
$LN10@SendPacket:
  000af	8b 4d fc	 mov	 ecx, DWORD PTR __$ArrayPad$[ebp]
  000b2	33 c0		 xor	 eax, eax
  000b4	5f		 pop	 edi
  000b5	5e		 pop	 esi
  000b6	33 cd		 xor	 ecx, ebp
  000b8	5b		 pop	 ebx
  000b9	e8 00 00 00 00	 call	 @__security_check_cookie@4
  000be	8b e5		 mov	 esp, ebp
  000c0	5d		 pop	 ebp
  000c1	c2 08 00	 ret	 8
?SendPacketMessage@i3NetworkClientSocket2@@UAEHPBDH@Z ENDP ; i3NetworkClientSocket2::SendPacketMessage
_TEXT	ENDS
; Function compile flags: /Ogtp
; File E:\Proyectos\JuegosOnlineproyectos\PB\pbblow\Piercing Blow Remake\i3Server\src\i3Base\i3NetworkClientSocket2.cpp
; File E:\Proyectos\JuegosOnlineproyectos\PB\pbblow\Piercing Blow Remake\i3Server\include\i3Base\i3NetworkPacket.h
; File E:\Proyectos\JuegosOnlineproyectos\PB\pbblow\Piercing Blow Remake\i3Server\src\i3Base\i3NetworkClientSocket2.cpp
;	COMDAT ?SendPacketMessage@i3NetworkClientSocket2@@UAEHPAVi3NetworkPacket@@@Z
_TEXT	SEGMENT
_packet$ = 8						; size = 4
?SendPacketMessage@i3NetworkClientSocket2@@UAEHPAVi3NetworkPacket@@@Z PROC ; i3NetworkClientSocket2::SendPacketMessage, COMDAT
; _this$ = ecx

; 141  : {

  00000	55		 push	 ebp
  00001	8b ec		 mov	 ebp, esp

; 142  : 	return SendPacketMessage(packet->GetPacketBuffer(), packet->GetPacketSize());

  00003	8b 11		 mov	 edx, DWORD PTR [ecx]
  00005	56		 push	 esi
; File E:\Proyectos\JuegosOnlineproyectos\PB\pbblow\Piercing Blow Remake\i3Server\include\i3Base\i3NetworkPacket.h

; 50   : 	UINT16		GetDataFieldSize(void)			{ return (*m_PacketHeader.pDataSize) & 0x7FFF ; }

  00006	8b 75 08	 mov	 esi, DWORD PTR _packet$[ebp]
  00009	8b 46 10	 mov	 eax, DWORD PTR [esi+16]
  0000c	0f b7 00	 movzx	 eax, WORD PTR [eax]
  0000f	25 ff 7f 00 00	 and	 eax, 32767		; 00007fffH

; 47   : 	INT32		GetPacketSize(void)				{ return ( GetDataFieldSize() + PACKETHEADERSIZE ); }	

  00014	83 c0 04	 add	 eax, 4
; File E:\Proyectos\JuegosOnlineproyectos\PB\pbblow\Piercing Blow Remake\i3Server\src\i3Base\i3NetworkClientSocket2.cpp

; 142  : 	return SendPacketMessage(packet->GetPacketBuffer(), packet->GetPacketSize());

  00017	50		 push	 eax
  00018	8d 46 18	 lea	 eax, DWORD PTR [esi+24]
  0001b	50		 push	 eax
  0001c	ff 52 18	 call	 DWORD PTR [edx+24]
  0001f	5e		 pop	 esi

; 143  : }

  00020	5d		 pop	 ebp
  00021	c2 04 00	 ret	 4
?SendPacketMessage@i3NetworkClientSocket2@@UAEHPAVi3NetworkPacket@@@Z ENDP ; i3NetworkClientSocket2::SendPacketMessage
_TEXT	ENDS
; Function compile flags: /Ogtp
; File E:\Proyectos\JuegosOnlineproyectos\PB\pbblow\Piercing Blow Remake\i3Server\src\i3Base\i3NetworkClientSocket2.cpp
;	COMDAT ?PacketParsing@i3NetworkClientSocket2@@UAEHPADH@Z
_TEXT	SEGMENT
_pBuffer$ = 8						; size = 4
_nSize$ = 12						; size = 4
?PacketParsing@i3NetworkClientSocket2@@UAEHPADH@Z PROC	; i3NetworkClientSocket2::PacketParsing, COMDAT
; _this$ = ecx

; 136  : 	// Do nothing
; 137  : 	return 0;

  00000	33 c0		 xor	 eax, eax

; 138  : }

  00002	c2 08 00	 ret	 8
?PacketParsing@i3NetworkClientSocket2@@UAEHPADH@Z ENDP	; i3NetworkClientSocket2::PacketParsing
_TEXT	ENDS
; Function compile flags: /Ogtp
; File E:\Proyectos\JuegosOnlineproyectos\PB\pbblow\Piercing Blow Remake\i3Server\src\i3Base\i3NetworkClientSocket2.cpp
;	COMDAT ?OnDestroy@i3NetworkClientSocket2@@UAEXXZ
_TEXT	SEGMENT
?OnDestroy@i3NetworkClientSocket2@@UAEXXZ PROC		; i3NetworkClientSocket2::OnDestroy, COMDAT
; _this$ = ecx

; 131  : 	DisConnect();

  00000	8b 01		 mov	 eax, DWORD PTR [ecx]
  00002	ff 60 20	 jmp	 DWORD PTR [eax+32]
?OnDestroy@i3NetworkClientSocket2@@UAEXXZ ENDP		; i3NetworkClientSocket2::OnDestroy
_TEXT	ENDS
; Function compile flags: /Ogtp
; File E:\Proyectos\JuegosOnlineproyectos\PB\pbblow\Piercing Blow Remake\i3Server\src\i3Base\i3NetworkClientSocket2.cpp
;	COMDAT ?OnReceive@i3NetworkClientSocket2@@UAEHXZ
_TEXT	SEGMENT
_message$1 = -264					; size = 260
__$ArrayPad$ = -4					; size = 4
?OnReceive@i3NetworkClientSocket2@@UAEHXZ PROC		; i3NetworkClientSocket2::OnReceive, COMDAT
; _this$ = ecx

; 35   : {

  00000	55		 push	 ebp
  00001	8b ec		 mov	 ebp, esp
  00003	81 ec 08 01 00
	00		 sub	 esp, 264		; 00000108H
  00009	a1 00 00 00 00	 mov	 eax, DWORD PTR ___security_cookie
  0000e	33 c5		 xor	 eax, ebp
  00010	89 45 fc	 mov	 DWORD PTR __$ArrayPad$[ebp], eax
  00013	53		 push	 ebx
  00014	56		 push	 esi
  00015	8b f1		 mov	 esi, ecx

; 36   : 	// ĆĐĹ¶Ŕ» ąŢ´Â´Ů.
; 37   : 	INT32 receivedByte = ::recv(m_socket, GetRecvBuffer(), PACKETBUFFERSIZE, 0);

  00017	6a 00		 push	 0
  00019	68 d0 22 00 00	 push	 8912			; 000022d0H

; 233  : 	return m_receiveBuffer + m_receivedPacketSize;

  0001e	8b 46 18	 mov	 eax, DWORD PTR [esi+24]
  00021	83 c0 1c	 add	 eax, 28			; 0000001cH
  00024	03 c6		 add	 eax, esi

; 36   : 	// ĆĐĹ¶Ŕ» ąŢ´Â´Ů.
; 37   : 	INT32 receivedByte = ::recv(m_socket, GetRecvBuffer(), PACKETBUFFERSIZE, 0);

  00026	50		 push	 eax
  00027	ff 76 10	 push	 DWORD PTR [esi+16]
  0002a	ff 15 00 00 00
	00		 call	 DWORD PTR __imp__recv@16
  00030	8b d8		 mov	 ebx, eax

; 38   : 
; 39   : 	if (SOCKET_ERROR == receivedByte)

  00032	83 fb ff	 cmp	 ebx, -1
  00035	75 43		 jne	 SHORT $LN5@OnReceive

; 40   : 	{
; 41   : 		char message[MAX_PATH];
; 42   : 		INT32 error = ::WSAGetLastError();

  00037	ff 15 00 00 00
	00		 call	 DWORD PTR __imp__WSAGetLastError@0

; 43   : 
; 44   : 		sprintf(message, "[i3NetworkClientSocket2::OnReceive] lastError = %d", error);

  0003d	50		 push	 eax
  0003e	8d 85 f8 fe ff
	ff		 lea	 eax, DWORD PTR _message$1[ebp]
  00044	68 00 00 00 00	 push	 OFFSET ??_C@_0DD@OKMCMGMM@?$FLi3NetworkClientSocket2?3?3OnRece@
  00049	50		 push	 eax
  0004a	e8 00 00 00 00	 call	 _sprintf

; 45   : 		i3Net::GetError(message);

  0004f	8d 85 f8 fe ff
	ff		 lea	 eax, DWORD PTR _message$1[ebp]
  00055	50		 push	 eax
  00056	e8 00 00 00 00	 call	 ?GetError@i3Net@@YAHPAD@Z ; i3Net::GetError
  0005b	83 c4 10	 add	 esp, 16			; 00000010H
$LN38@OnReceive:

; 109  : }

  0005e	8b 06		 mov	 eax, DWORD PTR [esi]
  00060	8b ce		 mov	 ecx, esi
  00062	ff 50 20	 call	 DWORD PTR [eax+32]
  00065	5e		 pop	 esi
  00066	b8 02 00 00 80	 mov	 eax, -2147483646	; 80000002H
  0006b	5b		 pop	 ebx
  0006c	8b 4d fc	 mov	 ecx, DWORD PTR __$ArrayPad$[ebp]
  0006f	33 cd		 xor	 ecx, ebp
  00071	e8 00 00 00 00	 call	 @__security_check_cookie@4
  00076	8b e5		 mov	 esp, ebp
  00078	5d		 pop	 ebp
  00079	c3		 ret	 0
$LN5@OnReceive:

; 46   : 
; 47   : 		DisConnect();
; 48   : 		return TCP_DISCONNECT_TYPE_READ_ERROR;		
; 49   : 	}
; 50   : 	
; 51   : 	if (0 == receivedByte)

  0007a	85 db		 test	 ebx, ebx
  0007c	75 12		 jne	 SHORT $LN6@OnReceive

; 52   : 	{
; 53   : 		return receivedByte;	// ClosedSocket

  0007e	5e		 pop	 esi
  0007f	33 c0		 xor	 eax, eax

; 109  : }

  00081	5b		 pop	 ebx
  00082	8b 4d fc	 mov	 ecx, DWORD PTR __$ArrayPad$[ebp]
  00085	33 cd		 xor	 ecx, ebp
  00087	e8 00 00 00 00	 call	 @__security_check_cookie@4
  0008c	8b e5		 mov	 esp, ebp
  0008e	5d		 pop	 ebp
  0008f	c3		 ret	 0
$LN6@OnReceive:

; 54   : 	}
; 55   : 
; 56   : 	
; 57   : 	// ąŢŔş µĄŔĚĹÍ Ĺ©±â ´©Ŕű
; 58   : 	m_receivedPacketSize += receivedByte;

  00090	8b 4e 18	 mov	 ecx, DWORD PTR [esi+24]
  00093	03 cb		 add	 ecx, ebx
  00095	89 4e 18	 mov	 DWORD PTR [esi+24], ecx

; 59   : 
; 60   : 	if (CLIENT_SOCKET_BUFFER_SIZE < m_receivedPacketSize)

  00098	81 f9 70 68 00
	00		 cmp	 ecx, 26736		; 00006870H
  0009e	7f be		 jg	 SHORT $LN38@OnReceive

; 61   : 	{
; 62   : 		I3TRACE("[WARNING] i3NetworkClientSocket2::OnReceive() - Buffer overflow(%d bytes)!\n", m_receivedPacketSize);
; 63   : 		DisConnect();
; 64   : 		return TCP_DISCONNECT_TYPE_READ_ERROR;
; 65   : 	}
; 66   : 
; 67   : 
; 68   : 	// ąöĆŰ»óŔÇ ĆÄ˝Ě ˝ĂŔŰ Ŕ§Äˇ 
; 69   : 	INT32 i32StartIdx = 0;

  000a0	57		 push	 edi
  000a1	33 ff		 xor	 edi, edi
$LN37@OnReceive:

; 70   : 
; 71   : 	// Ľö˝ĹÇŃ ¸đµç ĆĐĹ¶Ŕ» ĆÄ˝ĚÇŃ´Ů.
; 72   : 	for(;;)
; 73   : 	{
; 74   : 		// ĆĐĹ¶ »çŔĚÁîŔÇ ąöĆŰ żŔąöÇĂ·Îżě °Ë»ç
; 75   : 		INT32 packetSize;
; 76   : 		if( m_pCallbackFunc )

  000a3	8b 86 90 68 00
	00		 mov	 eax, DWORD PTR [esi+26768]
  000a9	8d 56 1c	 lea	 edx, DWORD PTR [esi+28]
  000ac	2b cf		 sub	 ecx, edi
  000ae	03 d7		 add	 edx, edi
  000b0	51		 push	 ecx
  000b1	52		 push	 edx
  000b2	85 c0		 test	 eax, eax
  000b4	74 0d		 je	 SHORT $LN8@OnReceive

; 77   : 		{
; 78   : 			packetSize = (*m_pCallbackFunc)( m_pAgent, m_receiveBuffer+i32StartIdx, m_receivedPacketSize-i32StartIdx );

  000b6	ff b6 8c 68 00
	00		 push	 DWORD PTR [esi+26764]
  000bc	ff d0		 call	 eax
  000be	83 c4 0c	 add	 esp, 12			; 0000000cH

; 79   : 		}

  000c1	eb 07		 jmp	 SHORT $LN9@OnReceive
$LN8@OnReceive:

; 80   : 		else
; 81   : 		{
; 82   : 			packetSize = PacketParsing( m_receiveBuffer+i32StartIdx, m_receivedPacketSize-i32StartIdx );

  000c3	8b 06		 mov	 eax, DWORD PTR [esi]
  000c5	8b ce		 mov	 ecx, esi
  000c7	ff 50 14	 call	 DWORD PTR [eax+20]
$LN9@OnReceive:

; 83   : 		}
; 84   : 
; 85   : 		if (0 > packetSize || PACKETBUFFERSIZE < packetSize)

  000ca	85 c0		 test	 eax, eax
  000cc	78 4a		 js	 SHORT $LN11@OnReceive
  000ce	3d d0 22 00 00	 cmp	 eax, 8912		; 000022d0H
  000d3	7f 43		 jg	 SHORT $LN11@OnReceive

; 89   : 			return TCP_DISCONNECT_TYPE_READ_ERROR;
; 90   : 		}
; 91   : 		if( 0 == packetSize ) break;

  000d5	85 c0		 test	 eax, eax
  000d7	74 09		 je	 SHORT $LN25@OnReceive

; 92   : 
; 93   : 		i32StartIdx += packetSize;
; 94   : 		if( i32StartIdx >= m_receivedPacketSize )

  000d9	8b 4e 18	 mov	 ecx, DWORD PTR [esi+24]
  000dc	03 f8		 add	 edi, eax
  000de	3b f9		 cmp	 edi, ecx
  000e0	7c c1		 jl	 SHORT $LN37@OnReceive
$LN25@OnReceive:

; 95   : 		{
; 96   : 			break;
; 97   : 		}
; 98   : 	}
; 99   : 
; 100  : 
; 101  : 	// ĆÄ˝Ě ČÄ ł˛Ŕş µĄŔĚĹÍ¸¦ ŔçÁ¤·ÄÇŃ´Ů.
; 102  : 	m_receivedPacketSize -= i32StartIdx;

  000e2	8b 46 18	 mov	 eax, DWORD PTR [esi+24]
  000e5	2b c7		 sub	 eax, edi
  000e7	89 46 18	 mov	 DWORD PTR [esi+24], eax

; 103  : 	if (0 < i32StartIdx && 0 < m_receivedPacketSize)

  000ea	85 ff		 test	 edi, edi
  000ec	7e 17		 jle	 SHORT $LN14@OnReceive
  000ee	85 c0		 test	 eax, eax
  000f0	7e 13		 jle	 SHORT $LN14@OnReceive

; 104  : 	{
; 105  : 		memmove(m_receiveBuffer, m_receiveBuffer + i32StartIdx, m_receivedPacketSize);

  000f2	50		 push	 eax
  000f3	8d 46 1c	 lea	 eax, DWORD PTR [esi+28]
  000f6	03 c7		 add	 eax, edi
  000f8	50		 push	 eax
  000f9	8d 46 1c	 lea	 eax, DWORD PTR [esi+28]
  000fc	50		 push	 eax
  000fd	e8 00 00 00 00	 call	 _memmove
  00102	83 c4 0c	 add	 esp, 12			; 0000000cH
$LN14@OnReceive:

; 106  : 	}
; 107  : 
; 108  : 	return receivedByte;

  00105	5f		 pop	 edi
  00106	5e		 pop	 esi
  00107	8b c3		 mov	 eax, ebx

; 109  : }

  00109	5b		 pop	 ebx
  0010a	8b 4d fc	 mov	 ecx, DWORD PTR __$ArrayPad$[ebp]
  0010d	33 cd		 xor	 ecx, ebp
  0010f	e8 00 00 00 00	 call	 @__security_check_cookie@4
  00114	8b e5		 mov	 esp, ebp
  00116	5d		 pop	 ebp
  00117	c3		 ret	 0
$LN11@OnReceive:

; 86   : 		{
; 87   : 			I3TRACE("[WARNING] i3NetworkClientSocket2::OnReceive() - Break packet size(%d bytes)!\n", packetSize);
; 88   : 			DisConnect();

  00118	8b 06		 mov	 eax, DWORD PTR [esi]
  0011a	8b ce		 mov	 ecx, esi
  0011c	ff 50 20	 call	 DWORD PTR [eax+32]

; 109  : }

  0011f	8b 4d fc	 mov	 ecx, DWORD PTR __$ArrayPad$[ebp]
  00122	b8 02 00 00 80	 mov	 eax, -2147483646	; 80000002H
  00127	5f		 pop	 edi
  00128	5e		 pop	 esi
  00129	33 cd		 xor	 ecx, ebp
  0012b	5b		 pop	 ebx
  0012c	e8 00 00 00 00	 call	 @__security_check_cookie@4
  00131	8b e5		 mov	 esp, ebp
  00133	5d		 pop	 ebp
  00134	c3		 ret	 0
?OnReceive@i3NetworkClientSocket2@@UAEHXZ ENDP		; i3NetworkClientSocket2::OnReceive
_TEXT	ENDS
; Function compile flags: /Ogtp
; File E:\Proyectos\JuegosOnlineproyectos\PB\pbblow\Piercing Blow Remake\i3Server\src\i3Base\i3NetworkClientSocket2.cpp
;	COMDAT ?SetSocket@i3NetworkClientSocket2@@QAEHI@Z
_TEXT	SEGMENT
_Socket$ = 8						; size = 4
?SetSocket@i3NetworkClientSocket2@@QAEHI@Z PROC		; i3NetworkClientSocket2::SetSocket, COMDAT
; _this$ = ecx

; 237  : {

  00000	55		 push	 ebp
  00001	8b ec		 mov	 ebp, esp
  00003	56		 push	 esi
  00004	8b f1		 mov	 esi, ecx

; 238  : 	// ¸®˝Ăşę ŔĚşĄĆ® »ýĽş
; 239  : 	m_recvEvent = ::WSACreateEvent();

  00006	ff 15 00 00 00
	00		 call	 DWORD PTR __imp__WSACreateEvent@0
  0000c	89 46 14	 mov	 DWORD PTR [esi+20], eax

; 240  : 
; 241  : 	// ĽŇÄĎ »ýĽş
; 242  : 	m_socket = Socket;

  0000f	8b 45 08	 mov	 eax, DWORD PTR _Socket$[ebp]
  00012	89 46 10	 mov	 DWORD PTR [esi+16], eax

; 243  : 
; 244  : 	// ¸®˝Ăşę °ü·Ă ¸âąö ĂĘ±âČ­
; 245  : 	m_receivedPacketSize = 0;
; 246  : 
; 247  : 	return TRUE;

  00015	b8 01 00 00 00	 mov	 eax, 1
  0001a	c7 46 18 00 00
	00 00		 mov	 DWORD PTR [esi+24], 0
  00021	5e		 pop	 esi

; 248  : }

  00022	5d		 pop	 ebp
  00023	c2 04 00	 ret	 4
?SetSocket@i3NetworkClientSocket2@@QAEHI@Z ENDP		; i3NetworkClientSocket2::SetSocket
_TEXT	ENDS
; Function compile flags: /Ogtp
; File E:\Proyectos\JuegosOnlineproyectos\PB\pbblow\Piercing Blow Remake\i3Server\src\i3Base\i3NetworkClientSocket2.cpp
;	COMDAT ?OnCreate@i3NetworkClientSocket2@@QAEHIGP6AHPAXPADH@Z0@Z
_TEXT	SEGMENT
_ui32IP$ = 8						; size = 4
_ui16Port$ = 12						; size = 2
_CallBack$ = 16						; size = 4
_pAgent$ = 20						; size = 4
?OnCreate@i3NetworkClientSocket2@@QAEHIGP6AHPAXPADH@Z0@Z PROC ; i3NetworkClientSocket2::OnCreate, COMDAT
; _this$ = ecx

; 30   : {

  00000	55		 push	 ebp
  00001	8b ec		 mov	 ebp, esp

; 32   : }

  00003	5d		 pop	 ebp

; 31   : 	return _Create( ui32IP, ui16Port, CallBack, pAgent );

  00004	e9 00 00 00 00	 jmp	 ?_Create@i3NetworkClientSocket2@@AAEHIGP6AHPAXPADH@Z0@Z ; i3NetworkClientSocket2::_Create
?OnCreate@i3NetworkClientSocket2@@QAEHIGP6AHPAXPADH@Z0@Z ENDP ; i3NetworkClientSocket2::OnCreate
_TEXT	ENDS
; Function compile flags: /Ogtp
; File E:\Proyectos\JuegosOnlineproyectos\PB\pbblow\Piercing Blow Remake\i3Server\src\i3Base\i3NetworkClientSocket2.cpp
;	COMDAT ?OnCreate@i3NetworkClientSocket2@@QAEHPADGP6AHPAX0H@Z1@Z
_TEXT	SEGMENT
_strIP$ = 8						; size = 4
_ui16Port$ = 12						; size = 2
_CallBack$ = 16						; size = 4
_pAgent$ = 20						; size = 4
?OnCreate@i3NetworkClientSocket2@@QAEHPADGP6AHPAX0H@Z1@Z PROC ; i3NetworkClientSocket2::OnCreate, COMDAT
; _this$ = ecx

; 23   : {	

  00000	55		 push	 ebp
  00001	8b ec		 mov	 ebp, esp
  00003	56		 push	 esi

; 24   : 	UINT32 ui32IP = ::inet_addr( strIP );

  00004	ff 75 08	 push	 DWORD PTR _strIP$[ebp]
  00007	8b f1		 mov	 esi, ecx
  00009	ff 15 00 00 00
	00		 call	 DWORD PTR __imp__inet_addr@4

; 25   : 
; 26   : 	return _Create( ui32IP, ui16Port, CallBack, pAgent );

  0000f	ff 75 14	 push	 DWORD PTR _pAgent$[ebp]
  00012	8b ce		 mov	 ecx, esi
  00014	ff 75 10	 push	 DWORD PTR _CallBack$[ebp]
  00017	ff 75 0c	 push	 DWORD PTR _ui16Port$[ebp]
  0001a	50		 push	 eax
  0001b	e8 00 00 00 00	 call	 ?_Create@i3NetworkClientSocket2@@AAEHIGP6AHPAXPADH@Z0@Z ; i3NetworkClientSocket2::_Create
  00020	5e		 pop	 esi

; 27   : }

  00021	5d		 pop	 ebp
  00022	c2 10 00	 ret	 16			; 00000010H
?OnCreate@i3NetworkClientSocket2@@QAEHPADGP6AHPAX0H@Z1@Z ENDP ; i3NetworkClientSocket2::OnCreate
_TEXT	ENDS
; Function compile flags: /Ogtp
; File E:\Proyectos\JuegosOnlineproyectos\PB\pbblow\Piercing Blow Remake\i3Server\src\i3Base\i3NetworkClientSocket2.cpp
;	COMDAT ??1i3NetworkClientSocket2@@UAE@XZ
_TEXT	SEGMENT
__$EHRec$ = -12						; size = 12
??1i3NetworkClientSocket2@@UAE@XZ PROC			; i3NetworkClientSocket2::~i3NetworkClientSocket2, COMDAT
; _this$ = ecx

; 18   : {

  00000	55		 push	 ebp
  00001	8b ec		 mov	 ebp, esp
  00003	6a ff		 push	 -1
  00005	68 00 00 00 00	 push	 __ehhandler$??1i3NetworkClientSocket2@@UAE@XZ
  0000a	64 a1 00 00 00
	00		 mov	 eax, DWORD PTR fs:0
  00010	50		 push	 eax
  00011	56		 push	 esi
  00012	a1 00 00 00 00	 mov	 eax, DWORD PTR ___security_cookie
  00017	33 c5		 xor	 eax, ebp
  00019	50		 push	 eax
  0001a	8d 45 f4	 lea	 eax, DWORD PTR __$EHRec$[ebp]
  0001d	64 a3 00 00 00
	00		 mov	 DWORD PTR fs:0, eax
  00023	8b f1		 mov	 esi, ecx
  00025	c7 06 00 00 00
	00		 mov	 DWORD PTR [esi], OFFSET ??_7i3NetworkClientSocket2@@6B@

; 131  : 	DisConnect();

  0002b	e8 00 00 00 00	 call	 ?DisConnect@i3NetworkClientSocket2@@UAEXXZ ; i3NetworkClientSocket2::DisConnect

; 19   : 	OnDestroy();
; 20   : }

  00030	8b ce		 mov	 ecx, esi
  00032	e8 00 00 00 00	 call	 ??1i3ElementBase@@UAE@XZ ; i3ElementBase::~i3ElementBase
  00037	8b 4d f4	 mov	 ecx, DWORD PTR __$EHRec$[ebp]
  0003a	64 89 0d 00 00
	00 00		 mov	 DWORD PTR fs:0, ecx
  00041	59		 pop	 ecx
  00042	5e		 pop	 esi
  00043	8b e5		 mov	 esp, ebp
  00045	5d		 pop	 ebp
  00046	c3		 ret	 0
  00047	cc		 int	 3
  00048	cc		 int	 3
  00049	cc		 int	 3
  0004a	cc		 int	 3
  0004b	cc		 int	 3
_TEXT	ENDS
;	COMDAT text$x
text$x	SEGMENT
__ehhandler$??1i3NetworkClientSocket2@@UAE@XZ:
  00000	90		 npad	 1
  00001	90		 npad	 1
  00002	8b 54 24 08	 mov	 edx, DWORD PTR [esp+8]
  00006	8d 42 0c	 lea	 eax, DWORD PTR [edx+12]
  00009	8b 4a f8	 mov	 ecx, DWORD PTR [edx-8]
  0000c	33 c8		 xor	 ecx, eax
  0000e	e8 00 00 00 00	 call	 @__security_check_cookie@4
  00013	b8 00 00 00 00	 mov	 eax, OFFSET __ehfuncinfo$??1i3NetworkClientSocket2@@UAE@XZ
  00018	e9 00 00 00 00	 jmp	 ___CxxFrameHandler3
text$x	ENDS
??1i3NetworkClientSocket2@@UAE@XZ ENDP			; i3NetworkClientSocket2::~i3NetworkClientSocket2
; Function compile flags: /Ogtp
; File E:\Proyectos\JuegosOnlineproyectos\PB\pbblow\Piercing Blow Remake\i3Server\src\i3Base\i3NetworkClientSocket2.cpp
; File E:\Proyectos\JuegosOnlineproyectos\PB\pbblow\Piercing Blow Remake\i3Server\include\i3Base\i3Memory.h
; File E:\Proyectos\JuegosOnlineproyectos\PB\pbblow\Piercing Blow Remake\i3Server\src\i3Base\i3NetworkClientSocket2.cpp
; File C:\Program Files (x86)\Windows Kits\10\Include\10.0.26100.0\um\winnt.h
; File E:\Proyectos\JuegosOnlineproyectos\PB\pbblow\Piercing Blow Remake\i3Server\src\i3Base\i3NetworkClientSocket2.cpp
;	COMDAT ??0i3NetworkClientSocket2@@QAE@XZ
_TEXT	SEGMENT
_this$ = -4						; size = 4
??0i3NetworkClientSocket2@@QAE@XZ PROC			; i3NetworkClientSocket2::i3NetworkClientSocket2, COMDAT
; _this$ = ecx

; 9    : {

  00000	55		 push	 ebp
  00001	8b ec		 mov	 ebp, esp
  00003	51		 push	 ecx
  00004	56		 push	 esi
  00005	8b f1		 mov	 esi, ecx
  00007	89 75 fc	 mov	 DWORD PTR _this$[ebp], esi
  0000a	e8 00 00 00 00	 call	 ??0i3ElementBase@@QAE@XZ ; i3ElementBase::i3ElementBase
  0000f	c7 06 00 00 00
	00		 mov	 DWORD PTR [esi], OFFSET ??_7i3NetworkClientSocket2@@6B@

; 14   : 	i3mem::FillZero(m_receiveBuffer, sizeof(m_receiveBuffer));

  00015	8d 46 1c	 lea	 eax, DWORD PTR [esi+28]
  00018	c7 46 10 ff ff
	ff ff		 mov	 DWORD PTR [esi+16], -1
; File E:\Proyectos\JuegosOnlineproyectos\PB\pbblow\Piercing Blow Remake\i3Server\include\i3Base\i3Memory.h

; 144  : 			::SecureZeroMemory( pDest, sz);

  0001f	ba 70 68 00 00	 mov	 edx, 26736		; 00006870H
; File E:\Proyectos\JuegosOnlineproyectos\PB\pbblow\Piercing Blow Remake\i3Server\src\i3Base\i3NetworkClientSocket2.cpp

; 11   : 	m_recvEvent = INVALID_HANDLE_VALUE;

  00024	c7 46 14 ff ff
	ff ff		 mov	 DWORD PTR [esi+20], -1

; 12   : 
; 13   : 	m_receivedPacketSize = 0;

  0002b	c7 46 18 00 00
	00 00		 mov	 DWORD PTR [esi+24], 0
$LL7@i3NetworkC:
; File C:\Program Files (x86)\Windows Kits\10\Include\10.0.26100.0\um\winnt.h

; 23429:         *vptr = 0;

  00032	c6 00 00	 mov	 BYTE PTR [eax], 0

; 23430: 
; 23431: #endif
; 23432: 
; 23433:         vptr++;

  00035	8d 40 01	 lea	 eax, DWORD PTR [eax+1]

; 23434:         cnt--;

  00038	83 ea 01	 sub	 edx, 1
  0003b	75 f5		 jne	 SHORT $LL7@i3NetworkC
; File E:\Proyectos\JuegosOnlineproyectos\PB\pbblow\Piercing Blow Remake\i3Server\src\i3Base\i3NetworkClientSocket2.cpp

; 15   : }

  0003d	8b c6		 mov	 eax, esi
  0003f	5e		 pop	 esi
  00040	8b e5		 mov	 esp, ebp
  00042	5d		 pop	 ebp
  00043	c3		 ret	 0
??0i3NetworkClientSocket2@@QAE@XZ ENDP			; i3NetworkClientSocket2::i3NetworkClientSocket2
_TEXT	ENDS
; Function compile flags: /Ogtp
; File E:\Proyectos\JuegosOnlineproyectos\PB\pbblow\Piercing Blow Remake\i3Server\src\i3Base\i3NetworkClientSocket2.cpp
;	COMDAT ?GetRecvBuffer@i3NetworkClientSocket2@@IAEPADXZ
_TEXT	SEGMENT
?GetRecvBuffer@i3NetworkClientSocket2@@IAEPADXZ PROC	; i3NetworkClientSocket2::GetRecvBuffer, COMDAT
; _this$ = ecx

; 233  : 	return m_receiveBuffer + m_receivedPacketSize;

  00000	8b 41 18	 mov	 eax, DWORD PTR [ecx+24]
  00003	83 c0 1c	 add	 eax, 28			; 0000001cH
  00006	03 c1		 add	 eax, ecx

; 234  : }

  00008	c3		 ret	 0
?GetRecvBuffer@i3NetworkClientSocket2@@IAEPADXZ ENDP	; i3NetworkClientSocket2::GetRecvBuffer
_TEXT	ENDS
; Function compile flags: /Ogtp
; File E:\Proyectos\JuegosOnlineproyectos\PB\pbblow\Piercing Blow Remake\i3Server\src\i3Base\i3NetworkClientSocket2.cpp
;	COMDAT ?GetSocket@i3NetworkClientSocket2@@IAEIXZ
_TEXT	SEGMENT
?GetSocket@i3NetworkClientSocket2@@IAEIXZ PROC		; i3NetworkClientSocket2::GetSocket, COMDAT
; _this$ = ecx

; 228  : 	return m_socket;

  00000	8b 41 10	 mov	 eax, DWORD PTR [ecx+16]

; 229  : }

  00003	c3		 ret	 0
?GetSocket@i3NetworkClientSocket2@@IAEIXZ ENDP		; i3NetworkClientSocket2::GetSocket
_TEXT	ENDS
; Function compile flags: /Ogtp
; File E:\Proyectos\JuegosOnlineproyectos\PB\pbblow\Piercing Blow Remake\i3Server\src\i3Base\i3NetworkClientSocket2.cpp
; File E:\Proyectos\JuegosOnlineproyectos\PB\pbblow\Piercing Blow Remake\i3Server\include\i3Base\i3Memory.h
; File C:\Program Files (x86)\Windows Kits\10\Include\10.0.26100.0\um\winnt.h
; File E:\Proyectos\JuegosOnlineproyectos\PB\pbblow\Piercing Blow Remake\i3Server\src\i3Base\i3NetworkClientSocket2.cpp
;	COMDAT ?_Create@i3NetworkClientSocket2@@AAEHIGP6AHPAXPADH@Z0@Z
_TEXT	SEGMENT
_serverAddr$ = -20					; size = 16
__$ArrayPad$ = -4					; size = 4
_ui32IP$ = 8						; size = 4
_ui16Port$ = 12						; size = 2
_CallBack$ = 16						; size = 4
_pAgent$ = 20						; size = 4
?_Create@i3NetworkClientSocket2@@AAEHIGP6AHPAXPADH@Z0@Z PROC ; i3NetworkClientSocket2::_Create, COMDAT
; _this$ = ecx

; 251  : {

  00000	55		 push	 ebp
  00001	8b ec		 mov	 ebp, esp
  00003	83 ec 14	 sub	 esp, 20			; 00000014H
  00006	a1 00 00 00 00	 mov	 eax, DWORD PTR ___security_cookie
  0000b	33 c5		 xor	 eax, ebp
  0000d	89 45 fc	 mov	 DWORD PTR __$ArrayPad$[ebp], eax
  00010	56		 push	 esi
  00011	8b f1		 mov	 esi, ecx

; 252  : 	// ¸®˝Ăşę ŔĚşĄĆ® »ýĽş
; 253  : 	m_recvEvent = ::WSACreateEvent();

  00013	ff 15 00 00 00
	00		 call	 DWORD PTR __imp__WSACreateEvent@0

; 254  : 
; 255  : 	// ĽŇÄĎ »ýĽş
; 256  : 	m_socket = ::socket(AF_INET, SOCK_STREAM, IPPROTO_TCP);

  00019	6a 06		 push	 6
  0001b	6a 01		 push	 1
  0001d	6a 02		 push	 2
  0001f	89 46 14	 mov	 DWORD PTR [esi+20], eax
  00022	ff 15 00 00 00
	00		 call	 DWORD PTR __imp__socket@12
  00028	89 46 10	 mov	 DWORD PTR [esi+16], eax

; 257  : 
; 258  : 	if (INVALID_SOCKET == m_socket)

  0002b	83 f8 ff	 cmp	 eax, -1
  0002e	74 58		 je	 SHORT $LN18@Create
; File E:\Proyectos\JuegosOnlineproyectos\PB\pbblow\Piercing Blow Remake\i3Server\include\i3Base\i3Memory.h

; 144  : 			::SecureZeroMemory( pDest, sz);

  00030	b9 10 00 00 00	 mov	 ecx, 16			; 00000010H
; File C:\Program Files (x86)\Windows Kits\10\Include\10.0.26100.0\um\winnt.h

; 23413:     volatile char *vptr = (volatile char *)ptr;

  00035	8d 45 ec	 lea	 eax, DWORD PTR _serverAddr$[ebp]
  00038	eb 06 8d 9b 00
	00 00 00	 npad	 8
$LL8@Create:

; 23414: 
; 23415: #if defined(_M_AMD64) && !defined(_M_ARM64EC)
; 23416: 
; 23417:     __stosb((PBYTE )((DWORD64)vptr), 0, cnt);
; 23418: 
; 23419: #else
; 23420: 
; 23421:     while (cnt) {
; 23422: 
; 23423: #if !defined(_M_CEE) && (defined(_M_ARM) || defined(_M_ARM64) || defined(_M_ARM64EC))
; 23424: 
; 23425:         __iso_volatile_store8(vptr, 0);
; 23426: 
; 23427: #else
; 23428: 
; 23429:         *vptr = 0;

  00040	c6 00 00	 mov	 BYTE PTR [eax], 0

; 23430: 
; 23431: #endif
; 23432: 
; 23433:         vptr++;

  00043	8d 40 01	 lea	 eax, DWORD PTR [eax+1]

; 23434:         cnt--;

  00046	83 e9 01	 sub	 ecx, 1
  00049	75 f5		 jne	 SHORT $LL8@Create
; File E:\Proyectos\JuegosOnlineproyectos\PB\pbblow\Piercing Blow Remake\i3Server\src\i3Base\i3NetworkClientSocket2.cpp

; 267  : 	serverAddr.sin_family = AF_INET;

  0004b	ff 75 0c	 push	 DWORD PTR _ui16Port$[ebp]
  0004e	b8 02 00 00 00	 mov	 eax, 2
  00053	66 89 45 ec	 mov	 WORD PTR _serverAddr$[ebp], ax

; 268  : 	serverAddr.sin_addr.s_addr = ui32IP;

  00057	8b 45 08	 mov	 eax, DWORD PTR _ui32IP$[ebp]
  0005a	89 45 f0	 mov	 DWORD PTR _serverAddr$[ebp+4], eax

; 269  : 	serverAddr.sin_port = ::htons(ui16Port);

  0005d	ff 15 00 00 00
	00		 call	 DWORD PTR __imp__htons@4
  00063	66 89 45 ee	 mov	 WORD PTR _serverAddr$[ebp+2], ax

; 270  : 
; 271  : 	INT32 result = ::connect(m_socket, (sockaddr*)&serverAddr, sizeof(serverAddr));

  00067	8d 45 ec	 lea	 eax, DWORD PTR _serverAddr$[ebp]
  0006a	6a 10		 push	 16			; 00000010H
  0006c	50		 push	 eax
  0006d	ff 76 10	 push	 DWORD PTR [esi+16]
  00070	ff 15 00 00 00
	00		 call	 DWORD PTR __imp__connect@12

; 272  : 
; 273  : 	if (SOCKET_ERROR == result)

  00076	83 f8 ff	 cmp	 eax, -1
  00079	75 20		 jne	 SHORT $LN3@Create

; 274  : 	{
; 275  : 		i3Net::GetError("[i3NetworkClientSocket2::OnConnectTo]");

  0007b	68 00 00 00 00	 push	 OFFSET ??_C@_0CG@GBCNHJEG@?$FLi3NetworkClientSocket2?3?3OnConn@
  00080	e8 00 00 00 00	 call	 ?GetError@i3Net@@YAHPAD@Z ; i3Net::GetError
  00085	83 c4 04	 add	 esp, 4
$LN18@Create:

; 280  : 	m_pCallbackFunc = CallBack;
; 281  : 
; 282  : 	// ¸®˝Ăşę °ü·Ă ¸âąö ĂĘ±âČ­
; 283  : 	m_receivedPacketSize = 0;
; 284  : 
; 285  : 	return TRUE;
; 286  : }

  00088	33 c0		 xor	 eax, eax
  0008a	5e		 pop	 esi
  0008b	8b 4d fc	 mov	 ecx, DWORD PTR __$ArrayPad$[ebp]
  0008e	33 cd		 xor	 ecx, ebp
  00090	e8 00 00 00 00	 call	 @__security_check_cookie@4
  00095	8b e5		 mov	 esp, ebp
  00097	5d		 pop	 ebp
  00098	c2 10 00	 ret	 16			; 00000010H
$LN3@Create:

; 276  : 		return FALSE;
; 277  : 	}
; 278  : 
; 279  : 	m_pAgent		= pAgent;

  0009b	8b 45 14	 mov	 eax, DWORD PTR _pAgent$[ebp]

; 280  : 	m_pCallbackFunc = CallBack;
; 281  : 
; 282  : 	// ¸®˝Ăşę °ü·Ă ¸âąö ĂĘ±âČ­
; 283  : 	m_receivedPacketSize = 0;
; 284  : 
; 285  : 	return TRUE;
; 286  : }

  0009e	8b 4d fc	 mov	 ecx, DWORD PTR __$ArrayPad$[ebp]
  000a1	89 86 8c 68 00
	00		 mov	 DWORD PTR [esi+26764], eax
  000a7	33 cd		 xor	 ecx, ebp
  000a9	8b 45 10	 mov	 eax, DWORD PTR _CallBack$[ebp]
  000ac	89 86 90 68 00
	00		 mov	 DWORD PTR [esi+26768], eax
  000b2	b8 01 00 00 00	 mov	 eax, 1
  000b7	c7 46 18 00 00
	00 00		 mov	 DWORD PTR [esi+24], 0
  000be	5e		 pop	 esi
  000bf	e8 00 00 00 00	 call	 @__security_check_cookie@4
  000c4	8b e5		 mov	 esp, ebp
  000c6	5d		 pop	 ebp
  000c7	c2 10 00	 ret	 16			; 00000010H
?_Create@i3NetworkClientSocket2@@AAEHIGP6AHPAXPADH@Z0@Z ENDP ; i3NetworkClientSocket2::_Create
_TEXT	ENDS
; Function compile flags: /Ogtp
; File E:\Proyectos\JuegosOnlineproyectos\PB\pbblow\Piercing Blow Remake\i3Server\src\i3Base\i3NetworkClientSocket2.cpp
;	COMDAT ?_BindObjectRefByType@i3NetworkClientSocket2@@SAPAV1@PAXW4I3_CLASSMETA_TYPE@@@Z
_TEXT	SEGMENT
_pBuf$ = 8						; size = 4
_type$ = 12						; size = 4
?_BindObjectRefByType@i3NetworkClientSocket2@@SAPAV1@PAXW4I3_CLASSMETA_TYPE@@@Z PROC ; i3NetworkClientSocket2::_BindObjectRefByType, COMDAT

; 6    : I3_CLASS_INSTANCE(i3NetworkClientSocket2, i3ElementBase); 

  00000	55		 push	 ebp
  00001	8b ec		 mov	 ebp, esp
  00003	8b 0d 00 00 00
	00		 mov	 ecx, DWORD PTR ?s_pClassMetai3NetworkClientSocket2@i3NetworkClientSocket2@@2PAVi3ClassMeta@@A ; i3NetworkClientSocket2::s_pClassMetai3NetworkClientSocket2
  00009	ff 75 0c	 push	 DWORD PTR _type$[ebp]
  0000c	ff 75 08	 push	 DWORD PTR _pBuf$[ebp]
  0000f	8b 01		 mov	 eax, DWORD PTR [ecx]
  00011	ff 50 08	 call	 DWORD PTR [eax+8]
  00014	5d		 pop	 ebp
  00015	c3		 ret	 0
?_BindObjectRefByType@i3NetworkClientSocket2@@SAPAV1@PAXW4I3_CLASSMETA_TYPE@@@Z ENDP ; i3NetworkClientSocket2::_BindObjectRefByType
_TEXT	ENDS
; Function compile flags: /Ogtp
; File E:\Proyectos\JuegosOnlineproyectos\PB\pbblow\Piercing Blow Remake\i3Server\src\i3Base\i3NetworkClientSocket2.cpp
; File E:\Proyectos\JuegosOnlineproyectos\PB\pbblow\Piercing Blow Remake\i3Server\include\i3Base\i3ElementBase.h
; File E:\Proyectos\JuegosOnlineproyectos\PB\pbblow\Piercing Blow Remake\i3Server\src\i3Base\i3NetworkClientSocket2.cpp
;	COMDAT ?_BindObjectByType@i3NetworkClientSocket2@@SAPAV1@PAXW4I3_CLASSMETA_TYPE@@@Z
_TEXT	SEGMENT
_pBuf$ = 8						; size = 4
_type$ = 12						; size = 4
?_BindObjectByType@i3NetworkClientSocket2@@SAPAV1@PAXW4I3_CLASSMETA_TYPE@@@Z PROC ; i3NetworkClientSocket2::_BindObjectByType, COMDAT

; 6    : I3_CLASS_INSTANCE(i3NetworkClientSocket2, i3ElementBase); 

  00000	55		 push	 ebp
  00001	8b ec		 mov	 ebp, esp
  00003	8b 0d 00 00 00
	00		 mov	 ecx, DWORD PTR ?s_pClassMetai3NetworkClientSocket2@i3NetworkClientSocket2@@2PAVi3ClassMeta@@A ; i3NetworkClientSocket2::s_pClassMetai3NetworkClientSocket2
  00009	ff 75 0c	 push	 DWORD PTR _type$[ebp]
  0000c	ff 75 08	 push	 DWORD PTR _pBuf$[ebp]
  0000f	8b 01		 mov	 eax, DWORD PTR [ecx]
  00011	ff 50 08	 call	 DWORD PTR [eax+8]
; File E:\Proyectos\JuegosOnlineproyectos\PB\pbblow\Piercing Blow Remake\i3Server\include\i3Base\i3ElementBase.h

; 392  : 		m_RefCount++;

  00014	ff 40 04	 inc	 DWORD PTR [eax+4]
; File E:\Proyectos\JuegosOnlineproyectos\PB\pbblow\Piercing Blow Remake\i3Server\src\i3Base\i3NetworkClientSocket2.cpp

; 6    : I3_CLASS_INSTANCE(i3NetworkClientSocket2, i3ElementBase); 

  00017	5d		 pop	 ebp
  00018	c3		 ret	 0
?_BindObjectByType@i3NetworkClientSocket2@@SAPAV1@PAXW4I3_CLASSMETA_TYPE@@@Z ENDP ; i3NetworkClientSocket2::_BindObjectByType
_TEXT	ENDS
; Function compile flags: /Ogtp
; File E:\Proyectos\JuegosOnlineproyectos\PB\pbblow\Piercing Blow Remake\i3Server\src\i3Base\i3NetworkClientSocket2.cpp
;	COMDAT ?_NewObjectRefByType@i3NetworkClientSocket2@@SAPAV1@W4I3_CLASSMETA_TYPE@@@Z
_TEXT	SEGMENT
_type$ = 8						; size = 4
?_NewObjectRefByType@i3NetworkClientSocket2@@SAPAV1@W4I3_CLASSMETA_TYPE@@@Z PROC ; i3NetworkClientSocket2::_NewObjectRefByType, COMDAT

; 6    : I3_CLASS_INSTANCE(i3NetworkClientSocket2, i3ElementBase); 

  00000	55		 push	 ebp
  00001	8b ec		 mov	 ebp, esp
  00003	8b 0d 00 00 00
	00		 mov	 ecx, DWORD PTR ?s_pClassMetai3NetworkClientSocket2@i3NetworkClientSocket2@@2PAVi3ClassMeta@@A ; i3NetworkClientSocket2::s_pClassMetai3NetworkClientSocket2
  00009	ff 75 08	 push	 DWORD PTR _type$[ebp]
  0000c	8b 01		 mov	 eax, DWORD PTR [ecx]
  0000e	ff 50 04	 call	 DWORD PTR [eax+4]
  00011	5d		 pop	 ebp
  00012	c3		 ret	 0
?_NewObjectRefByType@i3NetworkClientSocket2@@SAPAV1@W4I3_CLASSMETA_TYPE@@@Z ENDP ; i3NetworkClientSocket2::_NewObjectRefByType
_TEXT	ENDS
; Function compile flags: /Ogtp
; File E:\Proyectos\JuegosOnlineproyectos\PB\pbblow\Piercing Blow Remake\i3Server\src\i3Base\i3NetworkClientSocket2.cpp
; File E:\Proyectos\JuegosOnlineproyectos\PB\pbblow\Piercing Blow Remake\i3Server\include\i3Base\i3ElementBase.h
; File E:\Proyectos\JuegosOnlineproyectos\PB\pbblow\Piercing Blow Remake\i3Server\src\i3Base\i3NetworkClientSocket2.cpp
;	COMDAT ?_NewObjectByType@i3NetworkClientSocket2@@SAPAV1@W4I3_CLASSMETA_TYPE@@@Z
_TEXT	SEGMENT
_type$ = 8						; size = 4
?_NewObjectByType@i3NetworkClientSocket2@@SAPAV1@W4I3_CLASSMETA_TYPE@@@Z PROC ; i3NetworkClientSocket2::_NewObjectByType, COMDAT

; 6    : I3_CLASS_INSTANCE(i3NetworkClientSocket2, i3ElementBase); 

  00000	55		 push	 ebp
  00001	8b ec		 mov	 ebp, esp
  00003	8b 0d 00 00 00
	00		 mov	 ecx, DWORD PTR ?s_pClassMetai3NetworkClientSocket2@i3NetworkClientSocket2@@2PAVi3ClassMeta@@A ; i3NetworkClientSocket2::s_pClassMetai3NetworkClientSocket2
  00009	ff 75 08	 push	 DWORD PTR _type$[ebp]
  0000c	8b 01		 mov	 eax, DWORD PTR [ecx]
  0000e	ff 50 04	 call	 DWORD PTR [eax+4]
; File E:\Proyectos\JuegosOnlineproyectos\PB\pbblow\Piercing Blow Remake\i3Server\include\i3Base\i3ElementBase.h

; 392  : 		m_RefCount++;

  00011	ff 40 04	 inc	 DWORD PTR [eax+4]
; File E:\Proyectos\JuegosOnlineproyectos\PB\pbblow\Piercing Blow Remake\i3Server\src\i3Base\i3NetworkClientSocket2.cpp

; 6    : I3_CLASS_INSTANCE(i3NetworkClientSocket2, i3ElementBase); 

  00014	5d		 pop	 ebp
  00015	c3		 ret	 0
?_NewObjectByType@i3NetworkClientSocket2@@SAPAV1@W4I3_CLASSMETA_TYPE@@@Z ENDP ; i3NetworkClientSocket2::_NewObjectByType
_TEXT	ENDS
; Function compile flags: /Ogtp
; File E:\Proyectos\JuegosOnlineproyectos\PB\pbblow\Piercing Blow Remake\i3Server\src\i3Base\i3NetworkClientSocket2.cpp
;	COMDAT ?_BindObjectRef@i3NetworkClientSocket2@@SAPAV1@PAX@Z
_TEXT	SEGMENT
_pBuf$ = 8						; size = 4
?_BindObjectRef@i3NetworkClientSocket2@@SAPAV1@PAX@Z PROC ; i3NetworkClientSocket2::_BindObjectRef, COMDAT

; 6    : I3_CLASS_INSTANCE(i3NetworkClientSocket2, i3ElementBase); 

  00000	55		 push	 ebp
  00001	8b ec		 mov	 ebp, esp
  00003	8b 0d 00 00 00
	00		 mov	 ecx, DWORD PTR ?s_pClassMetai3NetworkClientSocket2@i3NetworkClientSocket2@@2PAVi3ClassMeta@@A ; i3NetworkClientSocket2::s_pClassMetai3NetworkClientSocket2
  00009	6a 00		 push	 0
  0000b	ff 75 08	 push	 DWORD PTR _pBuf$[ebp]
  0000e	8b 01		 mov	 eax, DWORD PTR [ecx]
  00010	ff 50 08	 call	 DWORD PTR [eax+8]
  00013	5d		 pop	 ebp
  00014	c3		 ret	 0
?_BindObjectRef@i3NetworkClientSocket2@@SAPAV1@PAX@Z ENDP ; i3NetworkClientSocket2::_BindObjectRef
_TEXT	ENDS
; Function compile flags: /Ogtp
; File E:\Proyectos\JuegosOnlineproyectos\PB\pbblow\Piercing Blow Remake\i3Server\src\i3Base\i3NetworkClientSocket2.cpp
; File E:\Proyectos\JuegosOnlineproyectos\PB\pbblow\Piercing Blow Remake\i3Server\include\i3Base\i3ElementBase.h
; File E:\Proyectos\JuegosOnlineproyectos\PB\pbblow\Piercing Blow Remake\i3Server\src\i3Base\i3NetworkClientSocket2.cpp
;	COMDAT ?_BindObject@i3NetworkClientSocket2@@SAPAV1@PAX@Z
_TEXT	SEGMENT
_pBuf$ = 8						; size = 4
?_BindObject@i3NetworkClientSocket2@@SAPAV1@PAX@Z PROC	; i3NetworkClientSocket2::_BindObject, COMDAT

; 6    : I3_CLASS_INSTANCE(i3NetworkClientSocket2, i3ElementBase); 

  00000	55		 push	 ebp
  00001	8b ec		 mov	 ebp, esp
  00003	8b 0d 00 00 00
	00		 mov	 ecx, DWORD PTR ?s_pClassMetai3NetworkClientSocket2@i3NetworkClientSocket2@@2PAVi3ClassMeta@@A ; i3NetworkClientSocket2::s_pClassMetai3NetworkClientSocket2
  00009	6a 00		 push	 0
  0000b	ff 75 08	 push	 DWORD PTR _pBuf$[ebp]
  0000e	8b 01		 mov	 eax, DWORD PTR [ecx]
  00010	ff 50 08	 call	 DWORD PTR [eax+8]
; File E:\Proyectos\JuegosOnlineproyectos\PB\pbblow\Piercing Blow Remake\i3Server\include\i3Base\i3ElementBase.h

; 392  : 		m_RefCount++;

  00013	ff 40 04	 inc	 DWORD PTR [eax+4]
; File E:\Proyectos\JuegosOnlineproyectos\PB\pbblow\Piercing Blow Remake\i3Server\src\i3Base\i3NetworkClientSocket2.cpp

; 6    : I3_CLASS_INSTANCE(i3NetworkClientSocket2, i3ElementBase); 

  00016	5d		 pop	 ebp
  00017	c3		 ret	 0
?_BindObject@i3NetworkClientSocket2@@SAPAV1@PAX@Z ENDP	; i3NetworkClientSocket2::_BindObject
_TEXT	ENDS
; Function compile flags: /Ogtp
; File E:\Proyectos\JuegosOnlineproyectos\PB\pbblow\Piercing Blow Remake\i3Server\src\i3Base\i3NetworkClientSocket2.cpp
;	COMDAT ?_NewObjectRef@i3NetworkClientSocket2@@SAPAV1@XZ
_TEXT	SEGMENT
?_NewObjectRef@i3NetworkClientSocket2@@SAPAV1@XZ PROC	; i3NetworkClientSocket2::_NewObjectRef, COMDAT

; 6    : I3_CLASS_INSTANCE(i3NetworkClientSocket2, i3ElementBase); 

  00000	8b 0d 00 00 00
	00		 mov	 ecx, DWORD PTR ?s_pClassMetai3NetworkClientSocket2@i3NetworkClientSocket2@@2PAVi3ClassMeta@@A ; i3NetworkClientSocket2::s_pClassMetai3NetworkClientSocket2
  00006	6a 00		 push	 0
  00008	8b 01		 mov	 eax, DWORD PTR [ecx]
  0000a	ff 50 04	 call	 DWORD PTR [eax+4]
  0000d	c3		 ret	 0
?_NewObjectRef@i3NetworkClientSocket2@@SAPAV1@XZ ENDP	; i3NetworkClientSocket2::_NewObjectRef
_TEXT	ENDS
; Function compile flags: /Ogtp
; File E:\Proyectos\JuegosOnlineproyectos\PB\pbblow\Piercing Blow Remake\i3Server\src\i3Base\i3NetworkClientSocket2.cpp
; File E:\Proyectos\JuegosOnlineproyectos\PB\pbblow\Piercing Blow Remake\i3Server\include\i3Base\i3ElementBase.h
; File E:\Proyectos\JuegosOnlineproyectos\PB\pbblow\Piercing Blow Remake\i3Server\src\i3Base\i3NetworkClientSocket2.cpp
;	COMDAT ?_NewObject@i3NetworkClientSocket2@@SAPAV1@XZ
_TEXT	SEGMENT
?_NewObject@i3NetworkClientSocket2@@SAPAV1@XZ PROC	; i3NetworkClientSocket2::_NewObject, COMDAT

; 6    : I3_CLASS_INSTANCE(i3NetworkClientSocket2, i3ElementBase); 

  00000	8b 0d 00 00 00
	00		 mov	 ecx, DWORD PTR ?s_pClassMetai3NetworkClientSocket2@i3NetworkClientSocket2@@2PAVi3ClassMeta@@A ; i3NetworkClientSocket2::s_pClassMetai3NetworkClientSocket2
  00006	6a 00		 push	 0
  00008	8b 01		 mov	 eax, DWORD PTR [ecx]
  0000a	ff 50 04	 call	 DWORD PTR [eax+4]
; File E:\Proyectos\JuegosOnlineproyectos\PB\pbblow\Piercing Blow Remake\i3Server\include\i3Base\i3ElementBase.h

; 392  : 		m_RefCount++;

  0000d	ff 40 04	 inc	 DWORD PTR [eax+4]
; File E:\Proyectos\JuegosOnlineproyectos\PB\pbblow\Piercing Blow Remake\i3Server\src\i3Base\i3NetworkClientSocket2.cpp

; 6    : I3_CLASS_INSTANCE(i3NetworkClientSocket2, i3ElementBase); 

  00010	c3		 ret	 0
?_NewObject@i3NetworkClientSocket2@@SAPAV1@XZ ENDP	; i3NetworkClientSocket2::_NewObject
_TEXT	ENDS
; Function compile flags: /Ogtp
; File E:\Proyectos\JuegosOnlineproyectos\PB\pbblow\Piercing Blow Remake\i3Server\src\i3Base\i3NetworkClientSocket2.cpp
;	COMDAT ?SetGhostClass@i3NetworkClientSocket2@@SAXPAVi3ClassMeta@@@Z
_TEXT	SEGMENT
_pMeta$ = 8						; size = 4
?SetGhostClass@i3NetworkClientSocket2@@SAXPAVi3ClassMeta@@@Z PROC ; i3NetworkClientSocket2::SetGhostClass, COMDAT

; 6    : I3_CLASS_INSTANCE(i3NetworkClientSocket2, i3ElementBase); 

  00000	55		 push	 ebp
  00001	8b ec		 mov	 ebp, esp
  00003	ff 75 08	 push	 DWORD PTR _pMeta$[ebp]
  00006	8b 0d 00 00 00
	00		 mov	 ecx, DWORD PTR ?s_pClassMetai3NetworkClientSocket2@i3NetworkClientSocket2@@2PAVi3ClassMeta@@A ; i3NetworkClientSocket2::s_pClassMetai3NetworkClientSocket2
  0000c	e8 00 00 00 00	 call	 ?SetGhostClass@i3ClassMeta@@QAEXPAV1@@Z ; i3ClassMeta::SetGhostClass
  00011	5d		 pop	 ebp
  00012	c3		 ret	 0
?SetGhostClass@i3NetworkClientSocket2@@SAXPAVi3ClassMeta@@@Z ENDP ; i3NetworkClientSocket2::SetGhostClass
_TEXT	ENDS
; Function compile flags: /Ogtp
; File E:\Proyectos\JuegosOnlineproyectos\PB\pbblow\Piercing Blow Remake\i3Server\src\i3Base\i3NetworkClientSocket2.cpp
;	COMDAT ?SetConcreteClass@i3NetworkClientSocket2@@SAXPAVi3ClassMeta@@@Z
_TEXT	SEGMENT
_pMeta$ = 8						; size = 4
?SetConcreteClass@i3NetworkClientSocket2@@SAXPAVi3ClassMeta@@@Z PROC ; i3NetworkClientSocket2::SetConcreteClass, COMDAT

; 6    : I3_CLASS_INSTANCE(i3NetworkClientSocket2, i3ElementBase); 

  00000	55		 push	 ebp
  00001	8b ec		 mov	 ebp, esp
  00003	ff 75 08	 push	 DWORD PTR _pMeta$[ebp]
  00006	8b 0d 00 00 00
	00		 mov	 ecx, DWORD PTR ?s_pClassMetai3NetworkClientSocket2@i3NetworkClientSocket2@@2PAVi3ClassMeta@@A ; i3NetworkClientSocket2::s_pClassMetai3NetworkClientSocket2
  0000c	e8 00 00 00 00	 call	 ?SetConcreteClass@i3ClassMeta@@QAEXPAV1@@Z ; i3ClassMeta::SetConcreteClass
  00011	5d		 pop	 ebp
  00012	c3		 ret	 0
?SetConcreteClass@i3NetworkClientSocket2@@SAXPAVi3ClassMeta@@@Z ENDP ; i3NetworkClientSocket2::SetConcreteClass
_TEXT	ENDS
; Function compile flags: /Ogtp
; File E:\Proyectos\JuegosOnlineproyectos\PB\pbblow\Piercing Blow Remake\i3Server\src\i3Base\i3NetworkClientSocket2.cpp
;	COMDAT ?RegisterMeta@i3NetworkClientSocket2@@SAXXZ
_TEXT	SEGMENT
?RegisterMeta@i3NetworkClientSocket2@@SAXXZ PROC	; i3NetworkClientSocket2::RegisterMeta, COMDAT

; 6    : I3_CLASS_INSTANCE(i3NetworkClientSocket2, i3ElementBase); 

  00000	8b 0d 00 00 00
	00		 mov	 ecx, DWORD PTR ?s_pClassMetai3NetworkClientSocket2@i3NetworkClientSocket2@@2PAVi3ClassMeta@@A ; i3NetworkClientSocket2::s_pClassMetai3NetworkClientSocket2
  00006	e9 00 00 00 00	 jmp	 ?Register@i3ClassMeta@@QAEXXZ ; i3ClassMeta::Register
?RegisterMeta@i3NetworkClientSocket2@@SAXXZ ENDP	; i3NetworkClientSocket2::RegisterMeta
_TEXT	ENDS
; Function compile flags: /Ogtp
; File E:\Proyectos\JuegosOnlineproyectos\PB\pbblow\Piercing Blow Remake\i3Server\src\i3Base\i3NetworkClientSocket2.cpp
;	COMDAT ?GetMeta@i3NetworkClientSocket2@@UAEPAVi3ClassMeta@@XZ
_TEXT	SEGMENT
?GetMeta@i3NetworkClientSocket2@@UAEPAVi3ClassMeta@@XZ PROC ; i3NetworkClientSocket2::GetMeta, COMDAT
; _this$ = ecx

; 6    : I3_CLASS_INSTANCE(i3NetworkClientSocket2, i3ElementBase); 

  00000	a1 00 00 00 00	 mov	 eax, DWORD PTR ?s_pClassMetai3NetworkClientSocket2@i3NetworkClientSocket2@@2PAVi3ClassMeta@@A ; i3NetworkClientSocket2::s_pClassMetai3NetworkClientSocket2
  00005	c3		 ret	 0
?GetMeta@i3NetworkClientSocket2@@UAEPAVi3ClassMeta@@XZ ENDP ; i3NetworkClientSocket2::GetMeta
_TEXT	ENDS
; Function compile flags: /Ogtp
; File E:\Proyectos\JuegosOnlineproyectos\PB\pbblow\Piercing Blow Remake\i3Server\include\i3Base\i3NetworkClientSocket2.h
;	COMDAT ?GetClassMeta@i3NetworkClientSocket2@@SAPAVi3ClassMeta@@XZ
_TEXT	SEGMENT
?GetClassMeta@i3NetworkClientSocket2@@SAPAVi3ClassMeta@@XZ PROC ; i3NetworkClientSocket2::GetClassMeta, COMDAT

; 18   : 	I3_CLASS_DEFINE(i3NetworkClientSocket2);

  00000	a1 00 00 00 00	 mov	 eax, DWORD PTR ?s_pClassMetai3NetworkClientSocket2@i3NetworkClientSocket2@@2PAVi3ClassMeta@@A ; i3NetworkClientSocket2::s_pClassMetai3NetworkClientSocket2
  00005	c3		 ret	 0
?GetClassMeta@i3NetworkClientSocket2@@SAPAVi3ClassMeta@@XZ ENDP ; i3NetworkClientSocket2::GetClassMeta
_TEXT	ENDS
; Function compile flags: /Ogtp
;	COMDAT ??_Ei3MemoryPool@@UAEPAXI@Z
_TEXT	SEGMENT
__$EHRec$ = -12						; size = 12
___flags$ = 8						; size = 4
??_Ei3MemoryPool@@UAEPAXI@Z PROC			; i3MemoryPool::`vector deleting destructor', COMDAT
; _this$ = ecx
  00000	55		 push	 ebp
  00001	8b ec		 mov	 ebp, esp
  00003	6a ff		 push	 -1
  00005	68 00 00 00 00	 push	 __ehhandler$??_Ei3MemoryPool@@UAEPAXI@Z
  0000a	64 a1 00 00 00
	00		 mov	 eax, DWORD PTR fs:0
  00010	50		 push	 eax
  00011	53		 push	 ebx
  00012	56		 push	 esi
  00013	57		 push	 edi
  00014	a1 00 00 00 00	 mov	 eax, DWORD PTR ___security_cookie
  00019	33 c5		 xor	 eax, ebp
  0001b	50		 push	 eax
  0001c	8d 45 f4	 lea	 eax, DWORD PTR __$EHRec$[ebp]
  0001f	64 a3 00 00 00
	00		 mov	 DWORD PTR fs:0, eax
  00025	8b f1		 mov	 esi, ecx
  00027	8b 45 08	 mov	 eax, DWORD PTR ___flags$[ebp]
  0002a	8b f8		 mov	 edi, eax
  0002c	83 e7 01	 and	 edi, 1
  0002f	a8 02		 test	 al, 2
  00031	74 40		 je	 SHORT $LN2@vector
  00033	68 00 00 00 00	 push	 OFFSET ??1i3MemoryPool@@UAE@XZ ; i3MemoryPool::~i3MemoryPool
  00038	ff 76 fc	 push	 DWORD PTR [esi-4]
  0003b	8d 5e fc	 lea	 ebx, DWORD PTR [esi-4]
  0003e	6a 04		 push	 4
  00040	56		 push	 esi
  00041	e8 00 00 00 00	 call	 ??_M@YGXPAXIIP6EX0@Z@Z
  00046	85 ff		 test	 edi, edi
  00048	74 13		 je	 SHORT $LN3@vector
  0004a	8b 0b		 mov	 ecx, DWORD PTR [ebx]
  0004c	8d 0c 8d 04 00
	00 00		 lea	 ecx, DWORD PTR [ecx*4+4]
  00053	51		 push	 ecx
  00054	53		 push	 ebx
  00055	e8 00 00 00 00	 call	 ??_V@YAXPAXI@Z		; operator delete[]
  0005a	83 c4 08	 add	 esp, 8
$LN3@vector:
  0005d	8b c3		 mov	 eax, ebx
  0005f	8b 4d f4	 mov	 ecx, DWORD PTR __$EHRec$[ebp]
  00062	64 89 0d 00 00
	00 00		 mov	 DWORD PTR fs:0, ecx
  00069	59		 pop	 ecx
  0006a	5f		 pop	 edi
  0006b	5e		 pop	 esi
  0006c	5b		 pop	 ebx
  0006d	8b e5		 mov	 esp, ebp
  0006f	5d		 pop	 ebp
  00070	c2 04 00	 ret	 4
$LN2@vector:
  00073	e8 00 00 00 00	 call	 ??1i3MemoryPool@@UAE@XZ	; i3MemoryPool::~i3MemoryPool
  00078	85 ff		 test	 edi, edi
  0007a	74 0b		 je	 SHORT $LN4@vector
  0007c	6a 04		 push	 4
  0007e	56		 push	 esi
  0007f	e8 00 00 00 00	 call	 ??3@YAXPAXI@Z		; operator delete
  00084	83 c4 08	 add	 esp, 8
$LN4@vector:
  00087	8b c6		 mov	 eax, esi
  00089	8b 4d f4	 mov	 ecx, DWORD PTR __$EHRec$[ebp]
  0008c	64 89 0d 00 00
	00 00		 mov	 DWORD PTR fs:0, ecx
  00093	59		 pop	 ecx
  00094	5f		 pop	 edi
  00095	5e		 pop	 esi
  00096	5b		 pop	 ebx
  00097	8b e5		 mov	 esp, ebp
  00099	5d		 pop	 ebp
  0009a	c2 04 00	 ret	 4
  0009d	cc		 int	 3
  0009e	cc		 int	 3
  0009f	cc		 int	 3
  000a0	cc		 int	 3
  000a1	cc		 int	 3
_TEXT	ENDS
;	COMDAT text$x
text$x	SEGMENT
__ehhandler$??_Ei3MemoryPool@@UAEPAXI@Z:
  00000	90		 npad	 1
  00001	90		 npad	 1
  00002	8b 54 24 08	 mov	 edx, DWORD PTR [esp+8]
  00006	8d 42 0c	 lea	 eax, DWORD PTR [edx+12]
  00009	8b 4a f0	 mov	 ecx, DWORD PTR [edx-16]
  0000c	33 c8		 xor	 ecx, eax
  0000e	e8 00 00 00 00	 call	 @__security_check_cookie@4
  00013	b8 00 00 00 00	 mov	 eax, OFFSET __ehfuncinfo$??_Ei3MemoryPool@@UAEPAXI@Z
  00018	e9 00 00 00 00	 jmp	 ___CxxFrameHandler3
text$x	ENDS
??_Ei3MemoryPool@@UAEPAXI@Z ENDP			; i3MemoryPool::`vector deleting destructor'
; Function compile flags: /Ogtp
;	COMDAT ??_Gi3MemoryPool@@UAEPAXI@Z
_TEXT	SEGMENT
___flags$ = 8						; size = 4
??_Gi3MemoryPool@@UAEPAXI@Z PROC			; i3MemoryPool::`scalar deleting destructor', COMDAT
; _this$ = ecx
  00000	55		 push	 ebp
  00001	8b ec		 mov	 ebp, esp
  00003	56		 push	 esi
  00004	8b f1		 mov	 esi, ecx
  00006	e8 00 00 00 00	 call	 ??1i3MemoryPool@@UAE@XZ	; i3MemoryPool::~i3MemoryPool
  0000b	f6 45 08 01	 test	 BYTE PTR ___flags$[ebp], 1
  0000f	74 0b		 je	 SHORT $LN5@scalar
  00011	6a 04		 push	 4
  00013	56		 push	 esi
  00014	e8 00 00 00 00	 call	 ??3@YAXPAXI@Z		; operator delete
  00019	83 c4 08	 add	 esp, 8
$LN5@scalar:
  0001c	8b c6		 mov	 eax, esi
  0001e	5e		 pop	 esi
  0001f	5d		 pop	 ebp
  00020	c2 04 00	 ret	 4
??_Gi3MemoryPool@@UAEPAXI@Z ENDP			; i3MemoryPool::`scalar deleting destructor'
_TEXT	ENDS
; Function compile flags: /Ogtp
;	COMDAT ??4i3MemoryPool@@QAEAAV0@ABV0@@Z
_TEXT	SEGMENT
___that$ = 8						; size = 4
??4i3MemoryPool@@QAEAAV0@ABV0@@Z PROC			; i3MemoryPool::operator=, COMDAT
; _this$ = ecx
  00000	8b c1		 mov	 eax, ecx
  00002	c2 04 00	 ret	 4
??4i3MemoryPool@@QAEAAV0@ABV0@@Z ENDP			; i3MemoryPool::operator=
_TEXT	ENDS
; Function compile flags: /Ogtp
;	COMDAT ??0i3MemoryPool@@QAE@ABV0@@Z
_TEXT	SEGMENT
___that$ = 8						; size = 4
??0i3MemoryPool@@QAE@ABV0@@Z PROC			; i3MemoryPool::i3MemoryPool, COMDAT
; _this$ = ecx
  00000	c7 01 00 00 00
	00		 mov	 DWORD PTR [ecx], OFFSET ??_7i3MemoryPool@@6B@
  00006	8b c1		 mov	 eax, ecx
  00008	c2 04 00	 ret	 4
??0i3MemoryPool@@QAE@ABV0@@Z ENDP			; i3MemoryPool::i3MemoryPool
_TEXT	ENDS
; Function compile flags: /Ogtp
; File E:\Proyectos\JuegosOnlineproyectos\PB\pbblow\Piercing Blow Remake\i3Server\src\i3Base\i3NetworkClientSocket2.cpp
;	COMDAT ??_Ei3ElementBase@@UAEPAXI@Z
_TEXT	SEGMENT
__$EHRec$ = -12						; size = 12
___flags$ = 8						; size = 4
??_Ei3ElementBase@@UAEPAXI@Z PROC			; i3ElementBase::`vector deleting destructor', COMDAT
; _this$ = ecx
  00000	55		 push	 ebp
  00001	8b ec		 mov	 ebp, esp
  00003	6a ff		 push	 -1
  00005	68 00 00 00 00	 push	 __ehhandler$??_Ei3ElementBase@@UAEPAXI@Z
  0000a	64 a1 00 00 00
	00		 mov	 eax, DWORD PTR fs:0
  00010	50		 push	 eax
  00011	53		 push	 ebx
  00012	56		 push	 esi
  00013	57		 push	 edi
  00014	a1 00 00 00 00	 mov	 eax, DWORD PTR ___security_cookie
  00019	33 c5		 xor	 eax, ebp
  0001b	50		 push	 eax
  0001c	8d 45 f4	 lea	 eax, DWORD PTR __$EHRec$[ebp]
  0001f	64 a3 00 00 00
	00		 mov	 DWORD PTR fs:0, eax
  00025	8b f1		 mov	 esi, ecx
  00027	8b 5d 08	 mov	 ebx, DWORD PTR ___flags$[ebp]
  0002a	8b fb		 mov	 edi, ebx
  0002c	83 e7 01	 and	 edi, 1
  0002f	f6 c3 02	 test	 bl, 2
  00032	74 3f		 je	 SHORT $LN2@vector
  00034	68 00 00 00 00	 push	 OFFSET ??1i3ElementBase@@UAE@XZ ; i3ElementBase::~i3ElementBase
  00039	ff 76 fc	 push	 DWORD PTR [esi-4]
  0003c	8d 5e fc	 lea	 ebx, DWORD PTR [esi-4]
  0003f	6a 10		 push	 16			; 00000010H
  00041	56		 push	 esi
  00042	e8 00 00 00 00	 call	 ??_M@YGXPAXIIP6EX0@Z@Z
  00047	85 ff		 test	 edi, edi
  00049	74 12		 je	 SHORT $LN3@vector
  0004b	8b 0b		 mov	 ecx, DWORD PTR [ebx]
  0004d	c1 e1 04	 shl	 ecx, 4
  00050	83 c1 04	 add	 ecx, 4
  00053	51		 push	 ecx
  00054	53		 push	 ebx
  00055	e8 00 00 00 00	 call	 ??_V@YAXPAXI@Z		; operator delete[]
  0005a	83 c4 08	 add	 esp, 8
$LN3@vector:
  0005d	8b c3		 mov	 eax, ebx
  0005f	8b 4d f4	 mov	 ecx, DWORD PTR __$EHRec$[ebp]
  00062	64 89 0d 00 00
	00 00		 mov	 DWORD PTR fs:0, ecx
  00069	59		 pop	 ecx
  0006a	5f		 pop	 edi
  0006b	5e		 pop	 esi
  0006c	5b		 pop	 ebx
  0006d	8b e5		 mov	 esp, ebp
  0006f	5d		 pop	 ebp
  00070	c2 04 00	 ret	 4
$LN2@vector:
  00073	e8 00 00 00 00	 call	 ??1i3ElementBase@@UAE@XZ ; i3ElementBase::~i3ElementBase
  00078	85 ff		 test	 edi, edi
  0007a	74 1b		 je	 SHORT $LN6@vector
  0007c	f6 c3 04	 test	 bl, 4
  0007f	75 0b		 jne	 SHORT $LN5@vector
  00081	56		 push	 esi
  00082	e8 00 00 00 00	 call	 ??3i3ElementBase@@SAXPAX@Z ; i3ElementBase::operator delete
  00087	83 c4 04	 add	 esp, 4
  0008a	eb 0b		 jmp	 SHORT $LN6@vector
$LN5@vector:

  0008c	6a 10		 push	 16			; 00000010H
  0008e	56		 push	 esi
  0008f	e8 00 00 00 00	 call	 ??3@YAXPAXI@Z		; operator delete
  00094	83 c4 08	 add	 esp, 8
$LN6@vector:
  00097	8b c6		 mov	 eax, esi
  00099	8b 4d f4	 mov	 ecx, DWORD PTR __$EHRec$[ebp]
  0009c	64 89 0d 00 00
	00 00		 mov	 DWORD PTR fs:0, ecx
  000a3	59		 pop	 ecx
  000a4	5f		 pop	 edi
  000a5	5e		 pop	 esi
  000a6	5b		 pop	 ebx
  000a7	8b e5		 mov	 esp, ebp
  000a9	5d		 pop	 ebp
  000aa	c2 04 00	 ret	 4
  000ad	cc		 int	 3
  000ae	cc		 int	 3
  000af	cc		 int	 3
  000b0	cc		 int	 3
  000b1	cc		 int	 3
_TEXT	ENDS
;	COMDAT text$x
text$x	SEGMENT
__ehhandler$??_Ei3ElementBase@@UAEPAXI@Z:
  00000	90		 npad	 1
  00001	90		 npad	 1
  00002	8b 54 24 08	 mov	 edx, DWORD PTR [esp+8]
  00006	8d 42 0c	 lea	 eax, DWORD PTR [edx+12]
  00009	8b 4a f0	 mov	 ecx, DWORD PTR [edx-16]
  0000c	33 c8		 xor	 ecx, eax
  0000e	e8 00 00 00 00	 call	 @__security_check_cookie@4
  00013	b8 00 00 00 00	 mov	 eax, OFFSET __ehfuncinfo$??_Ei3ElementBase@@UAEPAXI@Z
  00018	e9 00 00 00 00	 jmp	 ___CxxFrameHandler3
text$x	ENDS
??_Ei3ElementBase@@UAEPAXI@Z ENDP			; i3ElementBase::`vector deleting destructor'
; Function compile flags: /Ogtp
; File E:\Proyectos\JuegosOnlineproyectos\PB\pbblow\Piercing Blow Remake\i3Server\src\i3Base\i3NetworkClientSocket2.cpp
;	COMDAT ??_Gi3ElementBase@@UAEPAXI@Z
_TEXT	SEGMENT
___flags$ = 8						; size = 4
??_Gi3ElementBase@@UAEPAXI@Z PROC			; i3ElementBase::`scalar deleting destructor', COMDAT
; _this$ = ecx
  00000	55		 push	 ebp
  00001	8b ec		 mov	 ebp, esp
  00003	56		 push	 esi
  00004	8b f1		 mov	 esi, ecx
  00006	e8 00 00 00 00	 call	 ??1i3ElementBase@@UAE@XZ ; i3ElementBase::~i3ElementBase
  0000b	8b 45 08	 mov	 eax, DWORD PTR ___flags$[ebp]
  0000e	a8 01		 test	 al, 1
  00010	74 1f		 je	 SHORT $LN10@scalar
  00012	a8 04		 test	 al, 4
  00014	75 10		 jne	 SHORT $LN3@scalar
  00016	56		 push	 esi
  00017	e8 00 00 00 00	 call	 ??3i3ElementBase@@SAXPAX@Z ; i3ElementBase::operator delete
  0001c	83 c4 04	 add	 esp, 4
  0001f	8b c6		 mov	 eax, esi
  00021	5e		 pop	 esi
  00022	5d		 pop	 ebp
  00023	c2 04 00	 ret	 4
$LN3@scalar:

  00026	6a 10		 push	 16			; 00000010H
  00028	56		 push	 esi
  00029	e8 00 00 00 00	 call	 ??3@YAXPAXI@Z		; operator delete
  0002e	83 c4 08	 add	 esp, 8
$LN10@scalar:
  00031	8b c6		 mov	 eax, esi
  00033	5e		 pop	 esi
  00034	5d		 pop	 ebp
  00035	c2 04 00	 ret	 4
??_Gi3ElementBase@@UAEPAXI@Z ENDP			; i3ElementBase::`scalar deleting destructor'
_TEXT	ENDS
; Function compile flags: /Ogtp
;	COMDAT ??4i3ElementBase@@QAEAAV0@ABV0@@Z
_TEXT	SEGMENT
___that$ = 8						; size = 4
??4i3ElementBase@@QAEAAV0@ABV0@@Z PROC			; i3ElementBase::operator=, COMDAT
; _this$ = ecx
  00000	55		 push	 ebp
  00001	8b ec		 mov	 ebp, esp
  00003	8b 55 08	 mov	 edx, DWORD PTR ___that$[ebp]
  00006	8b 42 04	 mov	 eax, DWORD PTR [edx+4]
  00009	89 41 04	 mov	 DWORD PTR [ecx+4], eax
  0000c	8b 42 08	 mov	 eax, DWORD PTR [edx+8]
  0000f	89 41 08	 mov	 DWORD PTR [ecx+8], eax
  00012	8b 42 0c	 mov	 eax, DWORD PTR [edx+12]
  00015	89 41 0c	 mov	 DWORD PTR [ecx+12], eax
  00018	8b c1		 mov	 eax, ecx
  0001a	5d		 pop	 ebp
  0001b	c2 04 00	 ret	 4
??4i3ElementBase@@QAEAAV0@ABV0@@Z ENDP			; i3ElementBase::operator=
_TEXT	ENDS
; Function compile flags: /Ogtp
;	COMDAT ??0i3ElementBase@@QAE@ABV0@@Z
_TEXT	SEGMENT
___that$ = 8						; size = 4
??0i3ElementBase@@QAE@ABV0@@Z PROC			; i3ElementBase::i3ElementBase, COMDAT
; _this$ = ecx
  00000	55		 push	 ebp
  00001	8b ec		 mov	 ebp, esp
  00003	8b 55 08	 mov	 edx, DWORD PTR ___that$[ebp]
  00006	c7 01 00 00 00
	00		 mov	 DWORD PTR [ecx], OFFSET ??_7i3ElementBase@@6B@
  0000c	8b 42 04	 mov	 eax, DWORD PTR [edx+4]
  0000f	89 41 04	 mov	 DWORD PTR [ecx+4], eax
  00012	8b 42 08	 mov	 eax, DWORD PTR [edx+8]
  00015	89 41 08	 mov	 DWORD PTR [ecx+8], eax
  00018	8b 42 0c	 mov	 eax, DWORD PTR [edx+12]
  0001b	89 41 0c	 mov	 DWORD PTR [ecx+12], eax
  0001e	8b c1		 mov	 eax, ecx
  00020	5d		 pop	 ebp
  00021	c2 04 00	 ret	 4
??0i3ElementBase@@QAE@ABV0@@Z ENDP			; i3ElementBase::i3ElementBase
_TEXT	ENDS
; Function compile flags: /Ogtp
; File E:\Proyectos\JuegosOnlineproyectos\PB\pbblow\Piercing Blow Remake\i3Server\include\i3Base\i3ElementBase.h
;	COMDAT ?_internal_SetRefCount@i3ElementBase@@QAEXH@Z
_TEXT	SEGMENT
_cnt$ = 8						; size = 4
?_internal_SetRefCount@i3ElementBase@@QAEXH@Z PROC	; i3ElementBase::_internal_SetRefCount, COMDAT
; _this$ = ecx

; 401  : 	{

  00000	55		 push	 ebp
  00001	8b ec		 mov	 ebp, esp

; 402  : 		m_RefCount = cnt;

  00003	8b 45 08	 mov	 eax, DWORD PTR _cnt$[ebp]
  00006	89 41 04	 mov	 DWORD PTR [ecx+4], eax

; 403  : 	}

  00009	5d		 pop	 ebp
  0000a	c2 04 00	 ret	 4
?_internal_SetRefCount@i3ElementBase@@QAEXH@Z ENDP	; i3ElementBase::_internal_SetRefCount
_TEXT	ENDS
; Function compile flags: /Ogtp
; File E:\Proyectos\JuegosOnlineproyectos\PB\pbblow\Piercing Blow Remake\i3Server\include\i3Base\i3ElementBase.h
;	COMDAT ?AddRef@i3ElementBase@@QAEHXZ
_TEXT	SEGMENT
?AddRef@i3ElementBase@@QAEHXZ PROC			; i3ElementBase::AddRef, COMDAT
; _this$ = ecx

; 392  : 		m_RefCount++;

  00000	ff 41 04	 inc	 DWORD PTR [ecx+4]

; 393  : 
; 394  : 		return m_RefCount;

  00003	8b 41 04	 mov	 eax, DWORD PTR [ecx+4]

; 395  : 	}

  00006	c3		 ret	 0
?AddRef@i3ElementBase@@QAEHXZ ENDP			; i3ElementBase::AddRef
_TEXT	ENDS
; Function compile flags: /Ogtp
; File E:\Proyectos\JuegosOnlineproyectos\PB\pbblow\Piercing Blow Remake\i3Server\include\i3Base\i3ElementBase.h
;	COMDAT ?IsTypeOf@i3ElementBase@@QAE_NPAVi3ClassMeta@@@Z
_TEXT	SEGMENT
_pMeta$ = 8						; size = 4
?IsTypeOf@i3ElementBase@@QAE_NPAVi3ClassMeta@@@Z PROC	; i3ElementBase::IsTypeOf, COMDAT
; _this$ = ecx

; 356  : 	{

  00000	55		 push	 ebp
  00001	8b ec		 mov	 ebp, esp

; 357  : 		return GetMeta()->IsTypeOf( pMeta);

  00003	8b 01		 mov	 eax, DWORD PTR [ecx]
  00005	ff 75 08	 push	 DWORD PTR _pMeta$[ebp]
  00008	ff 10		 call	 DWORD PTR [eax]
  0000a	8b c8		 mov	 ecx, eax
  0000c	e8 00 00 00 00	 call	 ?IsTypeOf@i3ClassMeta@@QAE_NPAV1@@Z ; i3ClassMeta::IsTypeOf

; 358  : 	}

  00011	5d		 pop	 ebp
  00012	c2 04 00	 ret	 4
?IsTypeOf@i3ElementBase@@QAE_NPAVi3ClassMeta@@@Z ENDP	; i3ElementBase::IsTypeOf
_TEXT	ENDS
; Function compile flags: /Ogtp
; File E:\Proyectos\JuegosOnlineproyectos\PB\pbblow\Piercing Blow Remake\i3Server\include\i3Base\i3ElementBase.h
; File E:\Proyectos\JuegosOnlineproyectos\PB\pbblow\Piercing Blow Remake\i3Server\include\i3Base\i3ClassMeta.h
; File E:\Proyectos\JuegosOnlineproyectos\PB\pbblow\Piercing Blow Remake\i3Server\include\i3Base\i3ElementBase.h
;	COMDAT ?IsExactTypeOf@i3ElementBase@@QAE_NPAVi3ClassMeta@@@Z
_TEXT	SEGMENT
_pMeta$ = 8						; size = 4
?IsExactTypeOf@i3ElementBase@@QAE_NPAVi3ClassMeta@@@Z PROC ; i3ElementBase::IsExactTypeOf, COMDAT
; _this$ = ecx

; 351  : 	{

  00000	55		 push	 ebp
  00001	8b ec		 mov	 ebp, esp

; 352  : 		return GetMeta()->IsExactTypeOf( pMeta);

  00003	8b 01		 mov	 eax, DWORD PTR [ecx]
  00005	ff 10		 call	 DWORD PTR [eax]
; File E:\Proyectos\JuegosOnlineproyectos\PB\pbblow\Piercing Blow Remake\i3Server\include\i3Base\i3ClassMeta.h

; 90   : 		return pMeta == this;

  00007	39 45 08	 cmp	 DWORD PTR _pMeta$[ebp], eax
  0000a	0f 94 c0	 sete	 al
; File E:\Proyectos\JuegosOnlineproyectos\PB\pbblow\Piercing Blow Remake\i3Server\include\i3Base\i3ElementBase.h

; 353  : 	}

  0000d	5d		 pop	 ebp
  0000e	c2 04 00	 ret	 4
?IsExactTypeOf@i3ElementBase@@QAE_NPAVi3ClassMeta@@@Z ENDP ; i3ElementBase::IsExactTypeOf
_TEXT	ENDS
; Function compile flags: /Ogtp
; File E:\Proyectos\JuegosOnlineproyectos\PB\pbblow\Piercing Blow Remake\i3Server\include\i3Base\i3ElementBase.h
;	COMDAT ?__GetMemoryPool@i3ElementBase@@QAEPAVi3MemoryPool@@XZ
_TEXT	SEGMENT
?__GetMemoryPool@i3ElementBase@@QAEPAVi3MemoryPool@@XZ PROC ; i3ElementBase::__GetMemoryPool, COMDAT
; _this$ = ecx

; 348  : 	i3MemoryPool *	__GetMemoryPool(void)							{ return m_pPool; }

  00000	8b 41 0c	 mov	 eax, DWORD PTR [ecx+12]
  00003	c3		 ret	 0
?__GetMemoryPool@i3ElementBase@@QAEPAVi3MemoryPool@@XZ ENDP ; i3ElementBase::__GetMemoryPool
_TEXT	ENDS
; Function compile flags: /Ogtp
; File E:\Proyectos\JuegosOnlineproyectos\PB\pbblow\Piercing Blow Remake\i3Server\include\i3Base\i3ElementBase.h
;	COMDAT ?__SetMemoryPool@i3ElementBase@@QAEXPAVi3MemoryPool@@@Z
_TEXT	SEGMENT
_pPool$ = 8						; size = 4
?__SetMemoryPool@i3ElementBase@@QAEXPAVi3MemoryPool@@@Z PROC ; i3ElementBase::__SetMemoryPool, COMDAT
; _this$ = ecx

; 347  : 	void			__SetMemoryPool( i3MemoryPool * pPool)			{ m_pPool = pPool; }

  00000	55		 push	 ebp
  00001	8b ec		 mov	 ebp, esp
  00003	8b 45 08	 mov	 eax, DWORD PTR _pPool$[ebp]
  00006	89 41 0c	 mov	 DWORD PTR [ecx+12], eax
  00009	5d		 pop	 ebp
  0000a	c2 04 00	 ret	 4
?__SetMemoryPool@i3ElementBase@@QAEXPAVi3MemoryPool@@@Z ENDP ; i3ElementBase::__SetMemoryPool
_TEXT	ENDS
; Function compile flags: /Ogtp
; File E:\Proyectos\JuegosOnlineproyectos\PB\pbblow\Piercing Blow Remake\i3Server\include\i3Base\i3ElementBase.h
;	COMDAT ?GetRefCount@i3ElementBase@@QAEHXZ
_TEXT	SEGMENT
?GetRefCount@i3ElementBase@@QAEHXZ PROC			; i3ElementBase::GetRefCount, COMDAT
; _this$ = ecx

; 344  : 		return m_RefCount;

  00000	8b 41 04	 mov	 eax, DWORD PTR [ecx+4]

; 345  : 	}

  00003	c3		 ret	 0
?GetRefCount@i3ElementBase@@QAEHXZ ENDP			; i3ElementBase::GetRefCount
_TEXT	ENDS
; Function compile flags: /Ogtp
; File E:\Proyectos\JuegosOnlineproyectos\PB\pbblow\Piercing Blow Remake\i3Server\include\i3Base\i3ElementBase.h
;	COMDAT ?GetClassMeta@i3ElementBase@@SAPAVi3ClassMeta@@XZ
_TEXT	SEGMENT
?GetClassMeta@i3ElementBase@@SAPAVi3ClassMeta@@XZ PROC	; i3ElementBase::GetClassMeta, COMDAT

; 314  : 	I3_ABSTRACT_CLASS_DEFINE( i3ElementBase);

  00000	a1 00 00 00 00	 mov	 eax, DWORD PTR ?s_pClassMetai3ElementBase@i3ElementBase@@2PAVi3ClassMeta@@A ; i3ElementBase::s_pClassMetai3ElementBase
  00005	c3		 ret	 0
?GetClassMeta@i3ElementBase@@SAPAVi3ClassMeta@@XZ ENDP	; i3ElementBase::GetClassMeta
_TEXT	ENDS
; Function compile flags: /Ogtp
;	COMDAT ??_Ei3ClassMeta@@UAEPAXI@Z
_TEXT	SEGMENT
__$EHRec$ = -12						; size = 12
___flags$ = 8						; size = 4
??_Ei3ClassMeta@@UAEPAXI@Z PROC				; i3ClassMeta::`vector deleting destructor', COMDAT
; _this$ = ecx
  00000	55		 push	 ebp
  00001	8b ec		 mov	 ebp, esp
  00003	6a ff		 push	 -1
  00005	68 00 00 00 00	 push	 __ehhandler$??_Ei3ClassMeta@@UAEPAXI@Z
  0000a	64 a1 00 00 00
	00		 mov	 eax, DWORD PTR fs:0
  00010	50		 push	 eax
  00011	53		 push	 ebx
  00012	56		 push	 esi
  00013	57		 push	 edi
  00014	a1 00 00 00 00	 mov	 eax, DWORD PTR ___security_cookie
  00019	33 c5		 xor	 eax, ebp
  0001b	50		 push	 eax
  0001c	8d 45 f4	 lea	 eax, DWORD PTR __$EHRec$[ebp]
  0001f	64 a3 00 00 00
	00		 mov	 DWORD PTR fs:0, eax
  00025	8b f1		 mov	 esi, ecx
  00027	8b 45 08	 mov	 eax, DWORD PTR ___flags$[ebp]
  0002a	8b f8		 mov	 edi, eax
  0002c	83 e7 01	 and	 edi, 1
  0002f	a8 02		 test	 al, 2
  00031	74 49		 je	 SHORT $LN2@vector
  00033	68 00 00 00 00	 push	 OFFSET ??1i3ClassMeta@@UAE@XZ ; i3ClassMeta::~i3ClassMeta
  00038	ff 76 fc	 push	 DWORD PTR [esi-4]
  0003b	8d 5e fc	 lea	 ebx, DWORD PTR [esi-4]
  0003e	6a 38		 push	 56			; 00000038H
  00040	56		 push	 esi
  00041	e8 00 00 00 00	 call	 ??_M@YGXPAXIIP6EX0@Z@Z
  00046	85 ff		 test	 edi, edi
  00048	74 1c		 je	 SHORT $LN3@vector
  0004a	8b 0b		 mov	 ecx, DWORD PTR [ebx]
  0004c	8d 14 cd 00 00
	00 00		 lea	 edx, DWORD PTR [ecx*8]
  00053	2b d1		 sub	 edx, ecx
  00055	8d 0c d5 04 00
	00 00		 lea	 ecx, DWORD PTR [edx*8+4]
  0005c	51		 push	 ecx
  0005d	53		 push	 ebx
  0005e	e8 00 00 00 00	 call	 ??_V@YAXPAXI@Z		; operator delete[]
  00063	83 c4 08	 add	 esp, 8
$LN3@vector:
  00066	8b c3		 mov	 eax, ebx
  00068	8b 4d f4	 mov	 ecx, DWORD PTR __$EHRec$[ebp]
  0006b	64 89 0d 00 00
	00 00		 mov	 DWORD PTR fs:0, ecx
  00072	59		 pop	 ecx
  00073	5f		 pop	 edi
  00074	5e		 pop	 esi
  00075	5b		 pop	 ebx
  00076	8b e5		 mov	 esp, ebp
  00078	5d		 pop	 ebp
  00079	c2 04 00	 ret	 4
$LN2@vector:
  0007c	e8 00 00 00 00	 call	 ??1i3ClassMeta@@UAE@XZ	; i3ClassMeta::~i3ClassMeta
  00081	85 ff		 test	 edi, edi
  00083	74 0b		 je	 SHORT $LN4@vector
  00085	6a 38		 push	 56			; 00000038H
  00087	56		 push	 esi
  00088	e8 00 00 00 00	 call	 ??3@YAXPAXI@Z		; operator delete
  0008d	83 c4 08	 add	 esp, 8
$LN4@vector:
  00090	8b c6		 mov	 eax, esi
  00092	8b 4d f4	 mov	 ecx, DWORD PTR __$EHRec$[ebp]
  00095	64 89 0d 00 00
	00 00		 mov	 DWORD PTR fs:0, ecx
  0009c	59		 pop	 ecx
  0009d	5f		 pop	 edi
  0009e	5e		 pop	 esi
  0009f	5b		 pop	 ebx
  000a0	8b e5		 mov	 esp, ebp
  000a2	5d		 pop	 ebp
  000a3	c2 04 00	 ret	 4
  000a6	cc		 int	 3
  000a7	cc		 int	 3
  000a8	cc		 int	 3
  000a9	cc		 int	 3
  000aa	cc		 int	 3
_TEXT	ENDS
;	COMDAT text$x
text$x	SEGMENT
__ehhandler$??_Ei3ClassMeta@@UAEPAXI@Z:
  00000	90		 npad	 1
  00001	90		 npad	 1
  00002	8b 54 24 08	 mov	 edx, DWORD PTR [esp+8]
  00006	8d 42 0c	 lea	 eax, DWORD PTR [edx+12]
  00009	8b 4a f0	 mov	 ecx, DWORD PTR [edx-16]
  0000c	33 c8		 xor	 ecx, eax
  0000e	e8 00 00 00 00	 call	 @__security_check_cookie@4
  00013	b8 00 00 00 00	 mov	 eax, OFFSET __ehfuncinfo$??_Ei3ClassMeta@@UAEPAXI@Z
  00018	e9 00 00 00 00	 jmp	 ___CxxFrameHandler3
text$x	ENDS
??_Ei3ClassMeta@@UAEPAXI@Z ENDP				; i3ClassMeta::`vector deleting destructor'
; Function compile flags: /Ogtp
;	COMDAT ??_Gi3ClassMeta@@UAEPAXI@Z
_TEXT	SEGMENT
___flags$ = 8						; size = 4
??_Gi3ClassMeta@@UAEPAXI@Z PROC				; i3ClassMeta::`scalar deleting destructor', COMDAT
; _this$ = ecx
  00000	55		 push	 ebp
  00001	8b ec		 mov	 ebp, esp
  00003	56		 push	 esi
  00004	8b f1		 mov	 esi, ecx
  00006	e8 00 00 00 00	 call	 ??1i3ClassMeta@@UAE@XZ	; i3ClassMeta::~i3ClassMeta
  0000b	f6 45 08 01	 test	 BYTE PTR ___flags$[ebp], 1
  0000f	74 0b		 je	 SHORT $LN5@scalar
  00011	6a 38		 push	 56			; 00000038H
  00013	56		 push	 esi
  00014	e8 00 00 00 00	 call	 ??3@YAXPAXI@Z		; operator delete
  00019	83 c4 08	 add	 esp, 8
$LN5@scalar:
  0001c	8b c6		 mov	 eax, esi
  0001e	5e		 pop	 esi
  0001f	5d		 pop	 ebp
  00020	c2 04 00	 ret	 4
??_Gi3ClassMeta@@UAEPAXI@Z ENDP				; i3ClassMeta::`scalar deleting destructor'
_TEXT	ENDS
; Function compile flags: /Ogtp
;	COMDAT ??4i3ClassMeta@@QAEAAV0@ABV0@@Z
_TEXT	SEGMENT
___that$ = 8						; size = 4
??4i3ClassMeta@@QAEAAV0@ABV0@@Z PROC			; i3ClassMeta::operator=, COMDAT
; _this$ = ecx
  00000	55		 push	 ebp
  00001	8b ec		 mov	 ebp, esp
  00003	8b 55 08	 mov	 edx, DWORD PTR ___that$[ebp]
  00006	8b 42 04	 mov	 eax, DWORD PTR [edx+4]
  00009	89 41 04	 mov	 DWORD PTR [ecx+4], eax
  0000c	8b 42 08	 mov	 eax, DWORD PTR [edx+8]
  0000f	89 41 08	 mov	 DWORD PTR [ecx+8], eax
  00012	8b 42 0c	 mov	 eax, DWORD PTR [edx+12]
  00015	89 41 0c	 mov	 DWORD PTR [ecx+12], eax
  00018	8b 42 10	 mov	 eax, DWORD PTR [edx+16]
  0001b	89 41 10	 mov	 DWORD PTR [ecx+16], eax
  0001e	8b 42 14	 mov	 eax, DWORD PTR [edx+20]
  00021	89 41 14	 mov	 DWORD PTR [ecx+20], eax
  00024	8b 42 18	 mov	 eax, DWORD PTR [edx+24]
  00027	89 41 18	 mov	 DWORD PTR [ecx+24], eax
  0002a	8b 42 1c	 mov	 eax, DWORD PTR [edx+28]
  0002d	89 41 1c	 mov	 DWORD PTR [ecx+28], eax
  00030	8b 42 20	 mov	 eax, DWORD PTR [edx+32]
  00033	89 41 20	 mov	 DWORD PTR [ecx+32], eax
  00036	8b 42 24	 mov	 eax, DWORD PTR [edx+36]
  00039	89 41 24	 mov	 DWORD PTR [ecx+36], eax
  0003c	8b 42 28	 mov	 eax, DWORD PTR [edx+40]
  0003f	89 41 28	 mov	 DWORD PTR [ecx+40], eax
  00042	8b 42 2c	 mov	 eax, DWORD PTR [edx+44]
  00045	89 41 2c	 mov	 DWORD PTR [ecx+44], eax
  00048	8b 42 30	 mov	 eax, DWORD PTR [edx+48]
  0004b	89 41 30	 mov	 DWORD PTR [ecx+48], eax
  0004e	8b 42 34	 mov	 eax, DWORD PTR [edx+52]
  00051	89 41 34	 mov	 DWORD PTR [ecx+52], eax
  00054	8b c1		 mov	 eax, ecx
  00056	5d		 pop	 ebp
  00057	c2 04 00	 ret	 4
??4i3ClassMeta@@QAEAAV0@ABV0@@Z ENDP			; i3ClassMeta::operator=
_TEXT	ENDS
; Function compile flags: /Ogtp
;	COMDAT ??0i3ClassMeta@@QAE@ABV0@@Z
_TEXT	SEGMENT
___that$ = 8						; size = 4
??0i3ClassMeta@@QAE@ABV0@@Z PROC			; i3ClassMeta::i3ClassMeta, COMDAT
; _this$ = ecx
  00000	55		 push	 ebp
  00001	8b ec		 mov	 ebp, esp
  00003	8b 55 08	 mov	 edx, DWORD PTR ___that$[ebp]
  00006	c7 01 00 00 00
	00		 mov	 DWORD PTR [ecx], OFFSET ??_7i3ClassMeta@@6B@
  0000c	8b 42 04	 mov	 eax, DWORD PTR [edx+4]
  0000f	89 41 04	 mov	 DWORD PTR [ecx+4], eax
  00012	8b 42 08	 mov	 eax, DWORD PTR [edx+8]
  00015	89 41 08	 mov	 DWORD PTR [ecx+8], eax
  00018	8b 42 0c	 mov	 eax, DWORD PTR [edx+12]
  0001b	89 41 0c	 mov	 DWORD PTR [ecx+12], eax
  0001e	8b 42 10	 mov	 eax, DWORD PTR [edx+16]
  00021	89 41 10	 mov	 DWORD PTR [ecx+16], eax
  00024	8b 42 14	 mov	 eax, DWORD PTR [edx+20]
  00027	89 41 14	 mov	 DWORD PTR [ecx+20], eax
  0002a	8b 42 18	 mov	 eax, DWORD PTR [edx+24]
  0002d	89 41 18	 mov	 DWORD PTR [ecx+24], eax
  00030	8b 42 1c	 mov	 eax, DWORD PTR [edx+28]
  00033	89 41 1c	 mov	 DWORD PTR [ecx+28], eax
  00036	8b 42 20	 mov	 eax, DWORD PTR [edx+32]
  00039	89 41 20	 mov	 DWORD PTR [ecx+32], eax
  0003c	8b 42 24	 mov	 eax, DWORD PTR [edx+36]
  0003f	89 41 24	 mov	 DWORD PTR [ecx+36], eax
  00042	8b 42 28	 mov	 eax, DWORD PTR [edx+40]
  00045	89 41 28	 mov	 DWORD PTR [ecx+40], eax
  00048	8b 42 2c	 mov	 eax, DWORD PTR [edx+44]
  0004b	89 41 2c	 mov	 DWORD PTR [ecx+44], eax
  0004e	8b 42 30	 mov	 eax, DWORD PTR [edx+48]
  00051	89 41 30	 mov	 DWORD PTR [ecx+48], eax
  00054	8b 42 34	 mov	 eax, DWORD PTR [edx+52]
  00057	89 41 34	 mov	 DWORD PTR [ecx+52], eax
  0005a	8b c1		 mov	 eax, ecx
  0005c	5d		 pop	 ebp
  0005d	c2 04 00	 ret	 4
??0i3ClassMeta@@QAE@ABV0@@Z ENDP			; i3ClassMeta::i3ClassMeta
_TEXT	ENDS
; Function compile flags: /Ogtp
; File E:\Proyectos\JuegosOnlineproyectos\PB\pbblow\Piercing Blow Remake\i3Server\include\i3Base\i3ClassMeta.h
;	COMDAT ?getHashCode@i3ClassMeta@@QAEIXZ
_TEXT	SEGMENT
?getHashCode@i3ClassMeta@@QAEIXZ PROC			; i3ClassMeta::getHashCode, COMDAT
; _this$ = ecx

; 112  : 	UINT32			getHashCode(void)						{ return m_HashCode; }

  00000	8b 41 18	 mov	 eax, DWORD PTR [ecx+24]
  00003	c3		 ret	 0
?getHashCode@i3ClassMeta@@QAEIXZ ENDP			; i3ClassMeta::getHashCode
_TEXT	ENDS
; Function compile flags: /Ogtp
; File E:\Proyectos\JuegosOnlineproyectos\PB\pbblow\Piercing Blow Remake\i3Server\include\i3Base\i3ClassMeta.h
;	COMDAT ?GetBaseClassMeta@i3ClassMeta@@QAEPAV1@XZ
_TEXT	SEGMENT
?GetBaseClassMeta@i3ClassMeta@@QAEPAV1@XZ PROC		; i3ClassMeta::GetBaseClassMeta, COMDAT
; _this$ = ecx

; 107  : 	i3ClassMeta *	GetBaseClassMeta(void)					{ return m_pBaseClass; }

  00000	8b 41 1c	 mov	 eax, DWORD PTR [ecx+28]
  00003	c3		 ret	 0
?GetBaseClassMeta@i3ClassMeta@@QAEPAV1@XZ ENDP		; i3ClassMeta::GetBaseClassMeta
_TEXT	ENDS
; Function compile flags: /Ogtp
; File E:\Proyectos\JuegosOnlineproyectos\PB\pbblow\Piercing Blow Remake\i3Server\include\i3Base\i3ClassMeta.h
;	COMDAT ?IsConcreteClass@i3ClassMeta@@QAEHXZ
_TEXT	SEGMENT
?IsConcreteClass@i3ClassMeta@@QAEHXZ PROC		; i3ClassMeta::IsConcreteClass, COMDAT
; _this$ = ecx

; 102  : 	BOOL			IsStyle( UINT32 style)					{ return (m_Style & style) == style; }

  00000	8b 41 14	 mov	 eax, DWORD PTR [ecx+20]
  00003	d1 e8		 shr	 eax, 1
  00005	83 e0 01	 and	 eax, 1

; 105  : 	BOOL			IsConcreteClass(void)					{ return IsStyle( I3_CLASSMETA_STYLE_CONCRETE); }

  00008	c3		 ret	 0
?IsConcreteClass@i3ClassMeta@@QAEHXZ ENDP		; i3ClassMeta::IsConcreteClass
_TEXT	ENDS
; Function compile flags: /Ogtp
; File E:\Proyectos\JuegosOnlineproyectos\PB\pbblow\Piercing Blow Remake\i3Server\include\i3Base\i3ClassMeta.h
;	COMDAT ?IsAbstractClass@i3ClassMeta@@QAEHXZ
_TEXT	SEGMENT
?IsAbstractClass@i3ClassMeta@@QAEHXZ PROC		; i3ClassMeta::IsAbstractClass, COMDAT
; _this$ = ecx

; 102  : 	BOOL			IsStyle( UINT32 style)					{ return (m_Style & style) == style; }

  00000	8b 41 14	 mov	 eax, DWORD PTR [ecx+20]
  00003	83 e0 01	 and	 eax, 1

; 104  : 	BOOL			IsAbstractClass(void)					{ return IsStyle( I3_CLASSMETA_STYLE_ABSTRACT); }

  00006	c3		 ret	 0
?IsAbstractClass@i3ClassMeta@@QAEHXZ ENDP		; i3ClassMeta::IsAbstractClass
_TEXT	ENDS
; Function compile flags: /Ogtp
; File E:\Proyectos\JuegosOnlineproyectos\PB\pbblow\Piercing Blow Remake\i3Server\include\i3Base\i3ClassMeta.h
;	COMDAT ?IsStyle@i3ClassMeta@@QAEHI@Z
_TEXT	SEGMENT
_style$ = 8						; size = 4
?IsStyle@i3ClassMeta@@QAEHI@Z PROC			; i3ClassMeta::IsStyle, COMDAT
; _this$ = ecx

; 102  : 	BOOL			IsStyle( UINT32 style)					{ return (m_Style & style) == style; }

  00000	55		 push	 ebp
  00001	8b ec		 mov	 ebp, esp
  00003	8b 51 14	 mov	 edx, DWORD PTR [ecx+20]
  00006	33 c0		 xor	 eax, eax
  00008	23 55 08	 and	 edx, DWORD PTR _style$[ebp]
  0000b	3b 55 08	 cmp	 edx, DWORD PTR _style$[ebp]
  0000e	0f 94 c0	 sete	 al
  00011	5d		 pop	 ebp
  00012	c2 04 00	 ret	 4
?IsStyle@i3ClassMeta@@QAEHI@Z ENDP			; i3ClassMeta::IsStyle
_TEXT	ENDS
; Function compile flags: /Ogtp
; File E:\Proyectos\JuegosOnlineproyectos\PB\pbblow\Piercing Blow Remake\i3Server\include\i3Base\i3ClassMeta.h
;	COMDAT ?RemoveStyle@i3ClassMeta@@QAEXI@Z
_TEXT	SEGMENT
_style$ = 8						; size = 4
?RemoveStyle@i3ClassMeta@@QAEXI@Z PROC			; i3ClassMeta::RemoveStyle, COMDAT
; _this$ = ecx

; 101  : 	void			RemoveStyle( UINT32 style)				{ m_Style &= ~style; }

  00000	55		 push	 ebp
  00001	8b ec		 mov	 ebp, esp
  00003	8b 45 08	 mov	 eax, DWORD PTR _style$[ebp]
  00006	f7 d0		 not	 eax
  00008	21 41 14	 and	 DWORD PTR [ecx+20], eax
  0000b	5d		 pop	 ebp
  0000c	c2 04 00	 ret	 4
?RemoveStyle@i3ClassMeta@@QAEXI@Z ENDP			; i3ClassMeta::RemoveStyle
_TEXT	ENDS
; Function compile flags: /Ogtp
; File E:\Proyectos\JuegosOnlineproyectos\PB\pbblow\Piercing Blow Remake\i3Server\include\i3Base\i3ClassMeta.h
;	COMDAT ?AddStyle@i3ClassMeta@@QAEXI@Z
_TEXT	SEGMENT
_style$ = 8						; size = 4
?AddStyle@i3ClassMeta@@QAEXI@Z PROC			; i3ClassMeta::AddStyle, COMDAT
; _this$ = ecx

; 100  : 	void			AddStyle( UINT32 style)					{ m_Style |= style; }

  00000	55		 push	 ebp
  00001	8b ec		 mov	 ebp, esp
  00003	8b 45 08	 mov	 eax, DWORD PTR _style$[ebp]
  00006	09 41 14	 or	 DWORD PTR [ecx+20], eax
  00009	5d		 pop	 ebp
  0000a	c2 04 00	 ret	 4
?AddStyle@i3ClassMeta@@QAEXI@Z ENDP			; i3ClassMeta::AddStyle
_TEXT	ENDS
; Function compile flags: /Ogtp
; File E:\Proyectos\JuegosOnlineproyectos\PB\pbblow\Piercing Blow Remake\i3Server\include\i3Base\i3ClassMeta.h
;	COMDAT ?GetStyle@i3ClassMeta@@QAEIXZ
_TEXT	SEGMENT
?GetStyle@i3ClassMeta@@QAEIXZ PROC			; i3ClassMeta::GetStyle, COMDAT
; _this$ = ecx

; 99   : 	UINT32			GetStyle(void)							{ return m_Style; }

  00000	8b 41 14	 mov	 eax, DWORD PTR [ecx+20]
  00003	c3		 ret	 0
?GetStyle@i3ClassMeta@@QAEIXZ ENDP			; i3ClassMeta::GetStyle
_TEXT	ENDS
; Function compile flags: /Ogtp
; File E:\Proyectos\JuegosOnlineproyectos\PB\pbblow\Piercing Blow Remake\i3Server\include\i3Base\i3ClassMeta.h
;	COMDAT ?SetStyle@i3ClassMeta@@QAEXI@Z
_TEXT	SEGMENT
_style$ = 8						; size = 4
?SetStyle@i3ClassMeta@@QAEXI@Z PROC			; i3ClassMeta::SetStyle, COMDAT
; _this$ = ecx

; 98   : 	void			SetStyle( UINT32 style)					{ m_Style = style; }

  00000	55		 push	 ebp
  00001	8b ec		 mov	 ebp, esp
  00003	8b 45 08	 mov	 eax, DWORD PTR _style$[ebp]
  00006	89 41 14	 mov	 DWORD PTR [ecx+20], eax
  00009	5d		 pop	 ebp
  0000a	c2 04 00	 ret	 4
?SetStyle@i3ClassMeta@@QAEXI@Z ENDP			; i3ClassMeta::SetStyle
_TEXT	ENDS
; Function compile flags: /Ogtp
; File E:\Proyectos\JuegosOnlineproyectos\PB\pbblow\Piercing Blow Remake\i3Server\include\i3Base\i3ClassMeta.h
;	COMDAT ?IsExactTypeOf@i3ClassMeta@@QAE_NPAV1@@Z
_TEXT	SEGMENT
_pMeta$ = 8						; size = 4
?IsExactTypeOf@i3ClassMeta@@QAE_NPAV1@@Z PROC		; i3ClassMeta::IsExactTypeOf, COMDAT
; _this$ = ecx

; 89   : 	{

  00000	55		 push	 ebp
  00001	8b ec		 mov	 ebp, esp

; 90   : 		return pMeta == this;

  00003	39 4d 08	 cmp	 DWORD PTR _pMeta$[ebp], ecx
  00006	0f 94 c0	 sete	 al

; 91   : 	}

  00009	5d		 pop	 ebp
  0000a	c2 04 00	 ret	 4
?IsExactTypeOf@i3ClassMeta@@QAE_NPAV1@@Z ENDP		; i3ClassMeta::IsExactTypeOf
_TEXT	ENDS
; Function compile flags: /Ogtp
; File E:\Proyectos\JuegosOnlineproyectos\PB\pbblow\Piercing Blow Remake\i3Server\include\i3Base\i3ClassMeta.h
;	COMDAT ?GetClassNameA@i3ClassMeta@@QAEPADXZ
_TEXT	SEGMENT
?GetClassNameA@i3ClassMeta@@QAEPADXZ PROC		; i3ClassMeta::GetClassNameA, COMDAT
; _this$ = ecx

; 83   : 		return m_pszClassName;

  00000	8b 41 0c	 mov	 eax, DWORD PTR [ecx+12]

; 84   : 	}

  00003	c3		 ret	 0
?GetClassNameA@i3ClassMeta@@QAEPADXZ ENDP		; i3ClassMeta::GetClassNameA
_TEXT	ENDS
; Function compile flags: /Ogtp
; File E:\Proyectos\JuegosOnlineproyectos\PB\pbblow\Piercing Blow Remake\i3Server\include\i3Base\i3ClassMeta.h
;	COMDAT ?GetClassSize@i3ClassMeta@@QAEIXZ
_TEXT	SEGMENT
?GetClassSize@i3ClassMeta@@QAEIXZ PROC			; i3ClassMeta::GetClassSize, COMDAT
; _this$ = ecx

; 78   : 		return m_ClassSize;

  00000	8b 41 08	 mov	 eax, DWORD PTR [ecx+8]

; 79   : 	}

  00003	c3		 ret	 0
?GetClassSize@i3ClassMeta@@QAEIXZ ENDP			; i3ClassMeta::GetClassSize
_TEXT	ENDS
; Function compile flags: /Ogtp
; File E:\Proyectos\JuegosOnlineproyectos\PB\pbblow\Piercing Blow Remake\i3Server\include\i3Base\i3ClassMeta.h
;	COMDAT ?SetMemoryPool@i3ClassMeta@@QAEXPAVi3MemoryPool@@@Z
_TEXT	SEGMENT
_pPool$ = 8						; size = 4
?SetMemoryPool@i3ClassMeta@@QAEXPAVi3MemoryPool@@@Z PROC ; i3ClassMeta::SetMemoryPool, COMDAT
; _this$ = ecx

; 66   : 	void			SetMemoryPool( i3MemoryPool * pPool)		{ m_pPool = pPool; }

  00000	55		 push	 ebp
  00001	8b ec		 mov	 ebp, esp
  00003	8b 45 08	 mov	 eax, DWORD PTR _pPool$[ebp]
  00006	89 41 34	 mov	 DWORD PTR [ecx+52], eax
  00009	5d		 pop	 ebp
  0000a	c2 04 00	 ret	 4
?SetMemoryPool@i3ClassMeta@@QAEXPAVi3MemoryPool@@@Z ENDP ; i3ClassMeta::SetMemoryPool
_TEXT	ENDS
; Function compile flags: /Ogtp
; File E:\Proyectos\JuegosOnlineproyectos\PB\pbblow\Piercing Blow Remake\i3Server\include\i3Base\i3ClassMeta.h
;	COMDAT ?GetMemoryPool@i3ClassMeta@@QAEPAVi3MemoryPool@@XZ
_TEXT	SEGMENT
?GetMemoryPool@i3ClassMeta@@QAEPAVi3MemoryPool@@XZ PROC	; i3ClassMeta::GetMemoryPool, COMDAT
; _this$ = ecx

; 65   : 	i3MemoryPool *	GetMemoryPool(void)							{ return m_pPool; }

  00000	8b 41 34	 mov	 eax, DWORD PTR [ecx+52]
  00003	c3		 ret	 0
?GetMemoryPool@i3ClassMeta@@QAEPAVi3MemoryPool@@XZ ENDP	; i3ClassMeta::GetMemoryPool
_TEXT	ENDS
; Function compile flags: /Ogtp
; File C:\Program Files (x86)\Windows Kits\10\Include\10.0.26100.0\ucrt\stdio.h
;	COMDAT _sprintf
_TEXT	SEGMENT
__Buffer$ = 8						; size = 4
__Format$ = 12						; size = 4
_sprintf PROC						; COMDAT

; 1771 :     {

  00000	55		 push	 ebp
  00001	8b ec		 mov	 ebp, esp

; 1392 :         int const _Result = __stdio_common_vsprintf(

  00003	8d 45 10	 lea	 eax, DWORD PTR __Format$[ebp+4]
  00006	50		 push	 eax
  00007	6a 00		 push	 0
  00009	ff 75 0c	 push	 DWORD PTR __Format$[ebp]
  0000c	6a ff		 push	 -1
  0000e	ff 75 08	 push	 DWORD PTR __Buffer$[ebp]
  00011	e8 00 00 00 00	 call	 ___local_stdio_printf_options
  00016	8b 08		 mov	 ecx, DWORD PTR [eax]
  00018	ff 70 04	 push	 DWORD PTR [eax+4]
  0001b	83 c9 01	 or	 ecx, 1
  0001e	51		 push	 ecx
  0001f	e8 00 00 00 00	 call	 ___stdio_common_vsprintf

; 1393 :             _CRT_INTERNAL_LOCAL_PRINTF_OPTIONS | _CRT_INTERNAL_PRINTF_LEGACY_VSPRINTF_NULL_TERMINATION,
; 1394 :             _Buffer, _BufferCount, _Format, _Locale, _ArgList);
; 1395 : 
; 1396 :         return _Result < 0 ? -1 : _Result;

  00024	83 c9 ff	 or	 ecx, -1
  00027	83 c4 1c	 add	 esp, 28			; 0000001cH
  0002a	85 c0		 test	 eax, eax
  0002c	0f 48 c1	 cmovs	 eax, ecx

; 1772 :         int _Result;
; 1773 :         va_list _ArgList;
; 1774 :         __crt_va_start(_ArgList, _Format);
; 1775 : 
; 1776 :         _Result = _vsprintf_l(_Buffer, _Format, NULL, _ArgList);
; 1777 : 
; 1778 :         __crt_va_end(_ArgList);
; 1779 :         return _Result;
; 1780 :     }

  0002f	5d		 pop	 ebp
  00030	c3		 ret	 0
_sprintf ENDP
_TEXT	ENDS
; Function compile flags: /Ogtp
; File C:\Program Files (x86)\Windows Kits\10\Include\10.0.26100.0\ucrt\corecrt_stdio_config.h
;	COMDAT ___local_stdio_printf_options
_TEXT	SEGMENT
___local_stdio_printf_options PROC			; COMDAT

; 91   :         static unsigned __int64 _OptionsStorage;
; 92   :         return &_OptionsStorage;

  00000	b8 00 00 00 00	 mov	 eax, OFFSET ?_OptionsStorage@?1??__local_stdio_printf_options@@9@4_KA ; `__local_stdio_printf_options'::`2'::_OptionsStorage

; 93   :     }

  00005	c3		 ret	 0
___local_stdio_printf_options ENDP
_TEXT	ENDS
; Function compile flags: /Ogtp
; File E:\Proyectos\JuegosOnlineproyectos\PB\pbblow\Piercing Blow Remake\i3Server\src\i3Base\i3NetworkClientSocket2.cpp
;	COMDAT ?__global_array_delete@@YAXPAXI@Z
_TEXT	SEGMENT
_p$ = 8							; size = 4
_sz$ = 12						; size = 4
?__global_array_delete@@YAXPAXI@Z PROC			; __global_array_delete, COMDAT

  00000	e9 00 00 00 00	 jmp	 ??_V@YAXPAXI@Z		; operator delete[]
?__global_array_delete@@YAXPAXI@Z ENDP			; __global_array_delete
_TEXT	ENDS
; Function compile flags: /Ogtp
; File E:\Proyectos\JuegosOnlineproyectos\PB\pbblow\Piercing Blow Remake\i3Server\src\i3Base\i3NetworkClientSocket2.cpp
;	COMDAT ?__global_array_delete@@YAXPAX@Z
_TEXT	SEGMENT
_p$ = 8							; size = 4
?__global_array_delete@@YAXPAX@Z PROC			; __global_array_delete, COMDAT

  00000	e9 00 00 00 00	 jmp	 ??_V@YAXPAX@Z		; operator delete[]
?__global_array_delete@@YAXPAX@Z ENDP			; __global_array_delete
_TEXT	ENDS
; Function compile flags: /Ogtp
; File E:\Proyectos\JuegosOnlineproyectos\PB\pbblow\Piercing Blow Remake\i3Server\src\i3Base\i3NetworkClientSocket2.cpp
;	COMDAT ?__global_delete@@YAXPAXI@Z
_TEXT	SEGMENT
_p$ = 8							; size = 4
_sz$ = 12						; size = 4
?__global_delete@@YAXPAXI@Z PROC			; __global_delete, COMDAT

  00000	e9 00 00 00 00	 jmp	 ??3@YAXPAXI@Z		; operator delete
?__global_delete@@YAXPAXI@Z ENDP			; __global_delete
_TEXT	ENDS
; Function compile flags: /Ogtp
; File E:\Proyectos\JuegosOnlineproyectos\PB\pbblow\Piercing Blow Remake\i3Server\src\i3Base\i3NetworkClientSocket2.cpp
;	COMDAT ?__empty_global_delete@@YAXPAXI@Z
_TEXT	SEGMENT
___formal$ = 8						; size = 4
___formal$ = 12						; size = 4
?__empty_global_delete@@YAXPAXI@Z PROC			; __empty_global_delete, COMDAT

  00000	c2 00 00	 ret	 0
?__empty_global_delete@@YAXPAXI@Z ENDP			; __empty_global_delete
_TEXT	ENDS
; Function compile flags: /Ogtp
; File E:\Proyectos\JuegosOnlineproyectos\PB\pbblow\Piercing Blow Remake\i3Server\src\i3Base\i3NetworkClientSocket2.cpp
;	COMDAT ?__global_delete@@YAXPAX@Z
_TEXT	SEGMENT
_p$ = 8							; size = 4
?__global_delete@@YAXPAX@Z PROC				; __global_delete, COMDAT

  00000	e9 00 00 00 00	 jmp	 ??3@YAXPAX@Z		; operator delete
?__global_delete@@YAXPAX@Z ENDP				; __global_delete
_TEXT	ENDS
; Function compile flags: /Ogtp
; File E:\Proyectos\JuegosOnlineproyectos\PB\pbblow\Piercing Blow Remake\i3Server\src\i3Base\i3NetworkClientSocket2.cpp
;	COMDAT ?__empty_global_delete@@YAXPAX@Z
_TEXT	SEGMENT
___formal$ = 8						; size = 4
?__empty_global_delete@@YAXPAX@Z PROC			; __empty_global_delete, COMDAT

  00000	c2 00 00	 ret	 0
?__empty_global_delete@@YAXPAX@Z ENDP			; __empty_global_delete
_TEXT	ENDS
END
