; Listing generated by Microsoft (R) Optimizing Compiler Version 19.50.35727.0 

	TITLE	E:\Proyectos\JuegosOnlineproyectos\PB\pbblow\Piercing Blow Remake\i3Server\Project\I3_DX\i3Server\x86\Release\i3NetworkTCPSocket.obj
	.686P
	.XMM
	include listing.inc
	.model	flat

INCLUDELIB LIBCMT
INCLUDELIB OLDNAMES

PUBLIC	?s_pClassMetai3NetworkTCPSocket@i3NetworkTCPSocket@@2PAVi3ClassMeta@@A ; i3NetworkTCPSocket::s_pClassMetai3NetworkTCPSocket
PUBLIC	?CreateInstance@?$i3MetaTemplate@Vi3NetworkTCPSocket@@@@UAEPAVi3ElementBase@@W4I3_CLASSMETA_TYPE@@@Z ; i3MetaTemplate<i3NetworkTCPSocket>::CreateInstance
PUBLIC	?BindInstance@?$i3MetaTemplate@Vi3NetworkTCPSocket@@@@UAEPAVi3ElementBase@@PAXW4I3_CLASSMETA_TYPE@@@Z ; i3MetaTemplate<i3NetworkTCPSocket>::BindInstance
PUBLIC	??_7?$i3MetaTemplate@Vi3NetworkTCPSocket@@@@6B@	; i3MetaTemplate<i3NetworkTCPSocket>::`vftable'
PUBLIC	??_G?$i3MetaTemplate@Vi3NetworkTCPSocket@@@@UAEPAXI@Z ; i3MetaTemplate<i3NetworkTCPSocket>::`scalar deleting destructor'
PUBLIC	??_C@_0O@OCDFBOHM@i3ElementBase@		; `string'
PUBLIC	??_C@_0BD@BJAHAOML@i3NetworkTCPSocket@		; `string'
PUBLIC	??_R0?AVi3ClassMeta@@@8				; i3ClassMeta `RTTI Type Descriptor'
PUBLIC	??_R3i3ClassMeta@@8				; i3ClassMeta::`RTTI Class Hierarchy Descriptor'
PUBLIC	??_R2i3ClassMeta@@8				; i3ClassMeta::`RTTI Base Class Array'
PUBLIC	??_R1A@?0A@EA@i3ClassMeta@@8			; i3ClassMeta::`RTTI Base Class Descriptor at (0,-1,0,64)'
PUBLIC	??_R4?$i3MetaTemplate@Vi3NetworkTCPSocket@@@@6B@ ; i3MetaTemplate<i3NetworkTCPSocket>::`RTTI Complete Object Locator'
PUBLIC	??_R0?AV?$i3MetaTemplate@Vi3NetworkTCPSocket@@@@@8 ; i3MetaTemplate<i3NetworkTCPSocket> `RTTI Type Descriptor'
PUBLIC	??_R3?$i3MetaTemplate@Vi3NetworkTCPSocket@@@@8	; i3MetaTemplate<i3NetworkTCPSocket>::`RTTI Class Hierarchy Descriptor'
PUBLIC	??_R2?$i3MetaTemplate@Vi3NetworkTCPSocket@@@@8	; i3MetaTemplate<i3NetworkTCPSocket>::`RTTI Base Class Array'
PUBLIC	??_R1A@?0A@EA@?$i3MetaTemplate@Vi3NetworkTCPSocket@@@@8 ; i3MetaTemplate<i3NetworkTCPSocket>::`RTTI Base Class Descriptor at (0,-1,0,64)'
PUBLIC	__Avx2WmemEnabledWeakValue
EXTRN	??_E?$i3MetaTemplate@Vi3NetworkTCPSocket@@@@UAEPAXI@Z:PROC ; i3MetaTemplate<i3NetworkTCPSocket>::`vector deleting destructor'
EXTRN	??_7type_info@@6B@:QWORD			; type_info::`vftable'
;	COMDAT __Avx2WmemEnabledWeakValue
_BSS	SEGMENT
__Avx2WmemEnabledWeakValue DD 01H DUP (?)
_BSS	ENDS
;	COMDAT ??_R1A@?0A@EA@?$i3MetaTemplate@Vi3NetworkTCPSocket@@@@8
rdata$r	SEGMENT
??_R1A@?0A@EA@?$i3MetaTemplate@Vi3NetworkTCPSocket@@@@8 DD FLAT:??_R0?AV?$i3MetaTemplate@Vi3NetworkTCPSocket@@@@@8 ; i3MetaTemplate<i3NetworkTCPSocket>::`RTTI Base Class Descriptor at (0,-1,0,64)'
	DD	01H
	DD	00H
	DD	0ffffffffH
	DD	00H
	DD	040H
	DD	FLAT:??_R3?$i3MetaTemplate@Vi3NetworkTCPSocket@@@@8
rdata$r	ENDS
;	COMDAT ??_R2?$i3MetaTemplate@Vi3NetworkTCPSocket@@@@8
rdata$r	SEGMENT
??_R2?$i3MetaTemplate@Vi3NetworkTCPSocket@@@@8 DD FLAT:??_R1A@?0A@EA@?$i3MetaTemplate@Vi3NetworkTCPSocket@@@@8 ; i3MetaTemplate<i3NetworkTCPSocket>::`RTTI Base Class Array'
	DD	FLAT:??_R1A@?0A@EA@i3ClassMeta@@8
rdata$r	ENDS
;	COMDAT ??_R3?$i3MetaTemplate@Vi3NetworkTCPSocket@@@@8
rdata$r	SEGMENT
??_R3?$i3MetaTemplate@Vi3NetworkTCPSocket@@@@8 DD 00H	; i3MetaTemplate<i3NetworkTCPSocket>::`RTTI Class Hierarchy Descriptor'
	DD	00H
	DD	02H
	DD	FLAT:??_R2?$i3MetaTemplate@Vi3NetworkTCPSocket@@@@8
rdata$r	ENDS
;	COMDAT ??_R0?AV?$i3MetaTemplate@Vi3NetworkTCPSocket@@@@@8
data$rs	SEGMENT
??_R0?AV?$i3MetaTemplate@Vi3NetworkTCPSocket@@@@@8 DD FLAT:??_7type_info@@6B@ ; i3MetaTemplate<i3NetworkTCPSocket> `RTTI Type Descriptor'
	DD	00H
	DB	'.?AV?$i3MetaTemplate@Vi3NetworkTCPSocket@@@@', 00H
data$rs	ENDS
;	COMDAT ??_R4?$i3MetaTemplate@Vi3NetworkTCPSocket@@@@6B@
rdata$r	SEGMENT
??_R4?$i3MetaTemplate@Vi3NetworkTCPSocket@@@@6B@ DD 00H	; i3MetaTemplate<i3NetworkTCPSocket>::`RTTI Complete Object Locator'
	DD	00H
	DD	00H
	DD	FLAT:??_R0?AV?$i3MetaTemplate@Vi3NetworkTCPSocket@@@@@8
	DD	FLAT:??_R3?$i3MetaTemplate@Vi3NetworkTCPSocket@@@@8
rdata$r	ENDS
;	COMDAT ??_R1A@?0A@EA@i3ClassMeta@@8
rdata$r	SEGMENT
??_R1A@?0A@EA@i3ClassMeta@@8 DD FLAT:??_R0?AVi3ClassMeta@@@8 ; i3ClassMeta::`RTTI Base Class Descriptor at (0,-1,0,64)'
	DD	00H
	DD	00H
	DD	0ffffffffH
	DD	00H
	DD	040H
	DD	FLAT:??_R3i3ClassMeta@@8
rdata$r	ENDS
;	COMDAT ??_R2i3ClassMeta@@8
rdata$r	SEGMENT
??_R2i3ClassMeta@@8 DD FLAT:??_R1A@?0A@EA@i3ClassMeta@@8 ; i3ClassMeta::`RTTI Base Class Array'
rdata$r	ENDS
;	COMDAT ??_R3i3ClassMeta@@8
rdata$r	SEGMENT
??_R3i3ClassMeta@@8 DD 00H				; i3ClassMeta::`RTTI Class Hierarchy Descriptor'
	DD	00H
	DD	01H
	DD	FLAT:??_R2i3ClassMeta@@8
rdata$r	ENDS
;	COMDAT ??_R0?AVi3ClassMeta@@@8
data$rs	SEGMENT
??_R0?AVi3ClassMeta@@@8 DD FLAT:??_7type_info@@6B@	; i3ClassMeta `RTTI Type Descriptor'
	DD	00H
	DB	'.?AVi3ClassMeta@@', 00H
data$rs	ENDS
;	COMDAT ??_C@_0BD@BJAHAOML@i3NetworkTCPSocket@
CONST	SEGMENT
??_C@_0BD@BJAHAOML@i3NetworkTCPSocket@ DB 'i3NetworkTCPSocket', 00H ; `string'
CONST	ENDS
;	COMDAT ??_C@_0O@OCDFBOHM@i3ElementBase@
CONST	SEGMENT
??_C@_0O@OCDFBOHM@i3ElementBase@ DB 'i3ElementBase', 00H ; `string'
CONST	ENDS
;	COMDAT ??_7?$i3MetaTemplate@Vi3NetworkTCPSocket@@@@6B@
CONST	SEGMENT
??_7?$i3MetaTemplate@Vi3NetworkTCPSocket@@@@6B@ DD FLAT:??_R4?$i3MetaTemplate@Vi3NetworkTCPSocket@@@@6B@ ; i3MetaTemplate<i3NetworkTCPSocket>::`vftable'
	DD	FLAT:??_E?$i3MetaTemplate@Vi3NetworkTCPSocket@@@@UAEPAXI@Z
	DD	FLAT:?CreateInstance@?$i3MetaTemplate@Vi3NetworkTCPSocket@@@@UAEPAVi3ElementBase@@W4I3_CLASSMETA_TYPE@@@Z
	DD	FLAT:?BindInstance@?$i3MetaTemplate@Vi3NetworkTCPSocket@@@@UAEPAVi3ElementBase@@PAXW4I3_CLASSMETA_TYPE@@@Z
CONST	ENDS
_DATA	SEGMENT
?s_pClassMetai3NetworkTCPSocket@i3NetworkTCPSocket@@2PAVi3ClassMeta@@A DD FLAT:?s_ClassMetai3NetworkTCPSocket@@3V?$i3MetaTemplate@Vi3NetworkTCPSocket@@@@A ; i3NetworkTCPSocket::s_pClassMetai3NetworkTCPSocket
_DATA	ENDS
PUBLIC	?__empty_global_delete@@YAXPAX@Z		; __empty_global_delete
PUBLIC	?__global_delete@@YAXPAX@Z			; __global_delete
PUBLIC	?__empty_global_delete@@YAXPAXI@Z		; __empty_global_delete
PUBLIC	?__global_delete@@YAXPAXI@Z			; __global_delete
PUBLIC	?__global_array_delete@@YAXPAX@Z		; __global_array_delete
PUBLIC	?__global_array_delete@@YAXPAXI@Z		; __global_array_delete
PUBLIC	?GetMemoryPool@i3ClassMeta@@QAEPAVi3MemoryPool@@XZ ; i3ClassMeta::GetMemoryPool
PUBLIC	?SetMemoryPool@i3ClassMeta@@QAEXPAVi3MemoryPool@@@Z ; i3ClassMeta::SetMemoryPool
PUBLIC	?GetClassSize@i3ClassMeta@@QAEIXZ		; i3ClassMeta::GetClassSize
PUBLIC	?GetClassNameA@i3ClassMeta@@QAEPADXZ		; i3ClassMeta::GetClassNameA
PUBLIC	?IsExactTypeOf@i3ClassMeta@@QAE_NPAV1@@Z	; i3ClassMeta::IsExactTypeOf
PUBLIC	?SetStyle@i3ClassMeta@@QAEXI@Z			; i3ClassMeta::SetStyle
PUBLIC	?GetStyle@i3ClassMeta@@QAEIXZ			; i3ClassMeta::GetStyle
PUBLIC	?AddStyle@i3ClassMeta@@QAEXI@Z			; i3ClassMeta::AddStyle
PUBLIC	?RemoveStyle@i3ClassMeta@@QAEXI@Z		; i3ClassMeta::RemoveStyle
PUBLIC	?IsStyle@i3ClassMeta@@QAEHI@Z			; i3ClassMeta::IsStyle
PUBLIC	?IsAbstractClass@i3ClassMeta@@QAEHXZ		; i3ClassMeta::IsAbstractClass
PUBLIC	?IsConcreteClass@i3ClassMeta@@QAEHXZ		; i3ClassMeta::IsConcreteClass
PUBLIC	?GetBaseClassMeta@i3ClassMeta@@QAEPAV1@XZ	; i3ClassMeta::GetBaseClassMeta
PUBLIC	?getHashCode@i3ClassMeta@@QAEIXZ		; i3ClassMeta::getHashCode
PUBLIC	??0i3ClassMeta@@QAE@ABV0@@Z			; i3ClassMeta::i3ClassMeta
PUBLIC	??4i3ClassMeta@@QAEAAV0@ABV0@@Z			; i3ClassMeta::operator=
PUBLIC	??_Gi3ClassMeta@@UAEPAXI@Z			; i3ClassMeta::`scalar deleting destructor'
PUBLIC	??_Ei3ClassMeta@@UAEPAXI@Z			; i3ClassMeta::`vector deleting destructor'
PUBLIC	?GetClassMeta@i3ElementBase@@SAPAVi3ClassMeta@@XZ ; i3ElementBase::GetClassMeta
PUBLIC	?GetRefCount@i3ElementBase@@QAEHXZ		; i3ElementBase::GetRefCount
PUBLIC	?__SetMemoryPool@i3ElementBase@@QAEXPAVi3MemoryPool@@@Z ; i3ElementBase::__SetMemoryPool
PUBLIC	?__GetMemoryPool@i3ElementBase@@QAEPAVi3MemoryPool@@XZ ; i3ElementBase::__GetMemoryPool
PUBLIC	?IsExactTypeOf@i3ElementBase@@QAE_NPAVi3ClassMeta@@@Z ; i3ElementBase::IsExactTypeOf
PUBLIC	?IsTypeOf@i3ElementBase@@QAE_NPAVi3ClassMeta@@@Z ; i3ElementBase::IsTypeOf
PUBLIC	?AddRef@i3ElementBase@@QAEHXZ			; i3ElementBase::AddRef
PUBLIC	?_internal_SetRefCount@i3ElementBase@@QAEXH@Z	; i3ElementBase::_internal_SetRefCount
PUBLIC	??0i3ElementBase@@QAE@ABV0@@Z			; i3ElementBase::i3ElementBase
PUBLIC	??4i3ElementBase@@QAEAAV0@ABV0@@Z		; i3ElementBase::operator=
PUBLIC	??_Gi3ElementBase@@UAEPAXI@Z			; i3ElementBase::`scalar deleting destructor'
PUBLIC	??_Ei3ElementBase@@UAEPAXI@Z			; i3ElementBase::`vector deleting destructor'
PUBLIC	??0i3MemoryPool@@QAE@ABV0@@Z			; i3MemoryPool::i3MemoryPool
PUBLIC	??4i3MemoryPool@@QAEAAV0@ABV0@@Z		; i3MemoryPool::operator=
PUBLIC	??_Gi3MemoryPool@@UAEPAXI@Z			; i3MemoryPool::`scalar deleting destructor'
PUBLIC	??_Ei3MemoryPool@@UAEPAXI@Z			; i3MemoryPool::`vector deleting destructor'
PUBLIC	?GetClassMeta@i3NetworkPacket@@SAPAVi3ClassMeta@@XZ ; i3NetworkPacket::GetClassMeta
PUBLIC	?SetProtocol@i3NetworkPacket@@QAEXG@Z		; i3NetworkPacket::SetProtocol
PUBLIC	?GetPacketSize@i3NetworkPacket@@QAEHXZ		; i3NetworkPacket::GetPacketSize
PUBLIC	?GetReceivedSize@i3NetworkPacket@@QAEHXZ	; i3NetworkPacket::GetReceivedSize
PUBLIC	?GetProtocolID@i3NetworkPacket@@QAEGXZ		; i3NetworkPacket::GetProtocolID
PUBLIC	?GetDataFieldSize@i3NetworkPacket@@QAEGXZ	; i3NetworkPacket::GetDataFieldSize
PUBLIC	?GetPacketBuffer@i3NetworkPacket@@QAEPADXZ	; i3NetworkPacket::GetPacketBuffer
PUBLIC	?GetFieldBuffer@i3NetworkPacket@@QAEPADXZ	; i3NetworkPacket::GetFieldBuffer
PUBLIC	??0i3NetworkPacket@@QAE@ABV0@@Z			; i3NetworkPacket::i3NetworkPacket
PUBLIC	??4i3NetworkPacket@@QAEAAV0@ABV0@@Z		; i3NetworkPacket::operator=
PUBLIC	??_Gi3NetworkPacket@@UAEPAXI@Z			; i3NetworkPacket::`scalar deleting destructor'
PUBLIC	??_Ei3NetworkPacket@@UAEPAXI@Z			; i3NetworkPacket::`vector deleting destructor'
PUBLIC	?GetClassMeta@i3Udp@@SAPAVi3ClassMeta@@XZ	; i3Udp::GetClassMeta
PUBLIC	?getSocketHandle@i3Udp@@QAEIXZ			; i3Udp::getSocketHandle
PUBLIC	??0i3Udp@@QAE@ABV0@@Z				; i3Udp::i3Udp
PUBLIC	??4i3Udp@@QAEAAV0@ABV0@@Z			; i3Udp::operator=
PUBLIC	??_Gi3Udp@@UAEPAXI@Z				; i3Udp::`scalar deleting destructor'
PUBLIC	??_Ei3Udp@@UAEPAXI@Z				; i3Udp::`vector deleting destructor'
PUBLIC	?GetClassMeta@i3Tcp@@SAPAVi3ClassMeta@@XZ	; i3Tcp::GetClassMeta
PUBLIC	??0i3Tcp@@QAE@ABV0@@Z				; i3Tcp::i3Tcp
PUBLIC	??4i3Tcp@@QAEAAV0@ABV0@@Z			; i3Tcp::operator=
PUBLIC	??_Gi3Tcp@@UAEPAXI@Z				; i3Tcp::`scalar deleting destructor'
PUBLIC	??_Ei3Tcp@@UAEPAXI@Z				; i3Tcp::`vector deleting destructor'
PUBLIC	?GetClassMeta@i3NetworkTCPSocket@@SAPAVi3ClassMeta@@XZ ; i3NetworkTCPSocket::GetClassMeta
PUBLIC	?GetMeta@i3NetworkTCPSocket@@UAEPAVi3ClassMeta@@XZ ; i3NetworkTCPSocket::GetMeta
PUBLIC	?RegisterMeta@i3NetworkTCPSocket@@SAXXZ		; i3NetworkTCPSocket::RegisterMeta
PUBLIC	?SetConcreteClass@i3NetworkTCPSocket@@SAXPAVi3ClassMeta@@@Z ; i3NetworkTCPSocket::SetConcreteClass
PUBLIC	?SetGhostClass@i3NetworkTCPSocket@@SAXPAVi3ClassMeta@@@Z ; i3NetworkTCPSocket::SetGhostClass
PUBLIC	?_NewObject@i3NetworkTCPSocket@@SAPAV1@XZ	; i3NetworkTCPSocket::_NewObject
PUBLIC	?_NewObjectRef@i3NetworkTCPSocket@@SAPAV1@XZ	; i3NetworkTCPSocket::_NewObjectRef
PUBLIC	?_BindObject@i3NetworkTCPSocket@@SAPAV1@PAX@Z	; i3NetworkTCPSocket::_BindObject
PUBLIC	?_BindObjectRef@i3NetworkTCPSocket@@SAPAV1@PAX@Z ; i3NetworkTCPSocket::_BindObjectRef
PUBLIC	?_NewObjectByType@i3NetworkTCPSocket@@SAPAV1@W4I3_CLASSMETA_TYPE@@@Z ; i3NetworkTCPSocket::_NewObjectByType
PUBLIC	?_NewObjectRefByType@i3NetworkTCPSocket@@SAPAV1@W4I3_CLASSMETA_TYPE@@@Z ; i3NetworkTCPSocket::_NewObjectRefByType
PUBLIC	?_BindObjectByType@i3NetworkTCPSocket@@SAPAV1@PAXW4I3_CLASSMETA_TYPE@@@Z ; i3NetworkTCPSocket::_BindObjectByType
PUBLIC	?_BindObjectRefByType@i3NetworkTCPSocket@@SAPAV1@PAXW4I3_CLASSMETA_TYPE@@@Z ; i3NetworkTCPSocket::_BindObjectRefByType
PUBLIC	??0i3NetworkTCPSocket@@QAE@XZ			; i3NetworkTCPSocket::i3NetworkTCPSocket
PUBLIC	??1i3NetworkTCPSocket@@UAE@XZ			; i3NetworkTCPSocket::~i3NetworkTCPSocket
PUBLIC	?OnCreate@i3NetworkTCPSocket@@UAEHPADGP6AXPAVi3NetworkPacket@@@ZPAX@Z ; i3NetworkTCPSocket::OnCreate
PUBLIC	?OnDestroy@i3NetworkTCPSocket@@UAEHXZ		; i3NetworkTCPSocket::OnDestroy
PUBLIC	?OnReceive@i3NetworkTCPSocket@@UAEXXZ		; i3NetworkTCPSocket::OnReceive
PUBLIC	?OnSend@i3NetworkTCPSocket@@UAEHXZ		; i3NetworkTCPSocket::OnSend
PUBLIC	?PacketParsing@i3NetworkTCPSocket@@UAEXPAVi3NetworkPacket@@@Z ; i3NetworkTCPSocket::PacketParsing
PUBLIC	?SelectEvent@i3NetworkTCPSocket@@QAEXXZ		; i3NetworkTCPSocket::SelectEvent
PUBLIC	?SendMessageA@i3NetworkTCPSocket@@UAEHPAVi3NetworkPacket@@@Z ; i3NetworkTCPSocket::SendMessageA
PUBLIC	?GetName@i3NetworkTCPSocket@@QAEXPAUsockaddr_in@@@Z ; i3NetworkTCPSocket::GetName
PUBLIC	??0i3NetworkTCPSocket@@QAE@ABV0@@Z		; i3NetworkTCPSocket::i3NetworkTCPSocket
PUBLIC	??4i3NetworkTCPSocket@@QAEAAV0@ABV0@@Z		; i3NetworkTCPSocket::operator=
PUBLIC	??_Gi3NetworkTCPSocket@@UAEPAXI@Z		; i3NetworkTCPSocket::`scalar deleting destructor'
PUBLIC	??_Ei3NetworkTCPSocket@@UAEPAXI@Z		; i3NetworkTCPSocket::`vector deleting destructor'
PUBLIC	??0?$i3MetaTemplate@Vi3NetworkTCPSocket@@@@QAE@IPAD0W4I3_CLASSMETA_TYPE@@@Z ; i3MetaTemplate<i3NetworkTCPSocket>::i3MetaTemplate<i3NetworkTCPSocket>
PUBLIC	??_7i3ClassMeta@@6B@				; i3ClassMeta::`vftable'
PUBLIC	??_7i3ElementBase@@6B@				; i3ElementBase::`vftable'
PUBLIC	??_7i3MemoryPool@@6B@				; i3MemoryPool::`vftable'
PUBLIC	??_7i3NetworkPacket@@6B@			; i3NetworkPacket::`vftable'
PUBLIC	??_7i3Udp@@6B@					; i3Udp::`vftable'
PUBLIC	??_7i3Tcp@@6B@					; i3Tcp::`vftable'
PUBLIC	??_7i3NetworkTCPSocket@@6B@			; i3NetworkTCPSocket::`vftable'
PUBLIC	??_C@_0CF@NEGKBEJG@?$FLi3NetworkClientSocket?3?3OnConne@ ; `string'
PUBLIC	??_C@_0CA@JIHOOGHA@?$FLi3NetworkClientSocket?3?3OnSend?$FN@ ; `string'
PUBLIC	??_C@_0CD@NGEANGL@?$FLi3NetworkClientSocket?3?3OnRecei@ ; `string'
PUBLIC	??_R4i3ElementBase@@6B@				; i3ElementBase::`RTTI Complete Object Locator'
PUBLIC	??_R0?AVi3ElementBase@@@8			; i3ElementBase `RTTI Type Descriptor'
PUBLIC	??_R3i3ElementBase@@8				; i3ElementBase::`RTTI Class Hierarchy Descriptor'
PUBLIC	??_R2i3ElementBase@@8				; i3ElementBase::`RTTI Base Class Array'
PUBLIC	??_R1A@?0A@EA@i3ElementBase@@8			; i3ElementBase::`RTTI Base Class Descriptor at (0,-1,0,64)'
PUBLIC	??_R4i3MemoryPool@@6B@				; i3MemoryPool::`RTTI Complete Object Locator'
PUBLIC	??_R0?AVi3MemoryPool@@@8			; i3MemoryPool `RTTI Type Descriptor'
PUBLIC	??_R3i3MemoryPool@@8				; i3MemoryPool::`RTTI Class Hierarchy Descriptor'
PUBLIC	??_R2i3MemoryPool@@8				; i3MemoryPool::`RTTI Base Class Array'
PUBLIC	??_R1A@?0A@EA@i3MemoryPool@@8			; i3MemoryPool::`RTTI Base Class Descriptor at (0,-1,0,64)'
PUBLIC	??_R4i3ClassMeta@@6B@				; i3ClassMeta::`RTTI Complete Object Locator'
PUBLIC	??_R4i3NetworkPacket@@6B@			; i3NetworkPacket::`RTTI Complete Object Locator'
PUBLIC	??_R0?AVi3NetworkPacket@@@8			; i3NetworkPacket `RTTI Type Descriptor'
PUBLIC	??_R3i3NetworkPacket@@8				; i3NetworkPacket::`RTTI Class Hierarchy Descriptor'
PUBLIC	??_R2i3NetworkPacket@@8				; i3NetworkPacket::`RTTI Base Class Array'
PUBLIC	??_R1A@?0A@EA@i3NetworkPacket@@8		; i3NetworkPacket::`RTTI Base Class Descriptor at (0,-1,0,64)'
PUBLIC	??_R4i3Udp@@6B@					; i3Udp::`RTTI Complete Object Locator'
PUBLIC	??_R0?AVi3Udp@@@8				; i3Udp `RTTI Type Descriptor'
PUBLIC	??_R3i3Udp@@8					; i3Udp::`RTTI Class Hierarchy Descriptor'
PUBLIC	??_R2i3Udp@@8					; i3Udp::`RTTI Base Class Array'
PUBLIC	??_R1A@?0A@EA@i3Udp@@8				; i3Udp::`RTTI Base Class Descriptor at (0,-1,0,64)'
PUBLIC	??_R4i3Tcp@@6B@					; i3Tcp::`RTTI Complete Object Locator'
PUBLIC	??_R0?AVi3Tcp@@@8				; i3Tcp `RTTI Type Descriptor'
PUBLIC	??_R3i3Tcp@@8					; i3Tcp::`RTTI Class Hierarchy Descriptor'
PUBLIC	??_R2i3Tcp@@8					; i3Tcp::`RTTI Base Class Array'
PUBLIC	??_R1A@?0A@EA@i3Tcp@@8				; i3Tcp::`RTTI Base Class Descriptor at (0,-1,0,64)'
PUBLIC	??_R4i3NetworkTCPSocket@@6B@			; i3NetworkTCPSocket::`RTTI Complete Object Locator'
PUBLIC	??_R0?AVi3NetworkTCPSocket@@@8			; i3NetworkTCPSocket `RTTI Type Descriptor'
PUBLIC	??_R3i3NetworkTCPSocket@@8			; i3NetworkTCPSocket::`RTTI Class Hierarchy Descriptor'
PUBLIC	??_R2i3NetworkTCPSocket@@8			; i3NetworkTCPSocket::`RTTI Base Class Array'
PUBLIC	??_R1A@?0A@EA@i3NetworkTCPSocket@@8		; i3NetworkTCPSocket::`RTTI Base Class Descriptor at (0,-1,0,64)'
EXTRN	??_M@YGXPAXIIP6EX0@Z@Z:PROC			; `eh vector destructor iterator'
EXTRN	__purecall:PROC
EXTRN	??3@YAXPAX@Z:PROC				; operator delete
EXTRN	??3@YAXPAXI@Z:PROC				; operator delete
EXTRN	??_V@YAXPAX@Z:PROC				; operator delete[]
EXTRN	??_V@YAXPAXI@Z:PROC				; operator delete[]
EXTRN	_atexit:PROC
EXTRN	__imp__ReadFile@20:PROC
EXTRN	__imp__WriteFile@20:PROC
EXTRN	__imp__GetLastError@0:PROC
EXTRN	__imp__closesocket@4:PROC
EXTRN	__imp__connect@12:PROC
EXTRN	__imp__getsockname@12:PROC
EXTRN	__imp__htons@4:PROC
EXTRN	__imp__inet_addr@4:PROC
EXTRN	__imp__shutdown@8:PROC
EXTRN	__imp__socket@12:PROC
EXTRN	__imp__WSACloseEvent@4:PROC
EXTRN	__imp__WSACreateEvent@0:PROC
EXTRN	__imp__WSAEnumNetworkEvents@12:PROC
EXTRN	__imp__WSAEventSelect@12:PROC
EXTRN	??0i3ClassMeta@@QAE@IPAD0W4I3_CLASSMETA_TYPE@@@Z:PROC ; i3ClassMeta::i3ClassMeta
EXTRN	??1i3ClassMeta@@UAE@XZ:PROC			; i3ClassMeta::~i3ClassMeta
EXTRN	?CreateInstance@i3ClassMeta@@UAEPAVi3ElementBase@@W4I3_CLASSMETA_TYPE@@@Z:PROC ; i3ClassMeta::CreateInstance
EXTRN	?BindInstance@i3ClassMeta@@UAEPAVi3ElementBase@@PAXW4I3_CLASSMETA_TYPE@@@Z:PROC ; i3ClassMeta::BindInstance
EXTRN	?IsTypeOf@i3ClassMeta@@QAE_NPAV1@@Z:PROC	; i3ClassMeta::IsTypeOf
EXTRN	?Register@i3ClassMeta@@QAEXXZ:PROC		; i3ClassMeta::Register
EXTRN	?GetConcreteClass@i3ClassMeta@@QAEPAV1@W4I3_CLASSMETA_TYPE@@@Z:PROC ; i3ClassMeta::GetConcreteClass
EXTRN	?SetConcreteClass@i3ClassMeta@@QAEXPAV1@@Z:PROC	; i3ClassMeta::SetConcreteClass
EXTRN	?SetGhostClass@i3ClassMeta@@QAEXPAV1@@Z:PROC	; i3ClassMeta::SetGhostClass
EXTRN	?GetMeta@i3ElementBase@@UAEPAVi3ClassMeta@@XZ:PROC ; i3ElementBase::GetMeta
EXTRN	??0i3ElementBase@@QAE@XZ:PROC			; i3ElementBase::i3ElementBase
EXTRN	??1i3ElementBase@@UAE@XZ:PROC			; i3ElementBase::~i3ElementBase
EXTRN	??2i3ElementBase@@SAPAXI@Z:PROC			; i3ElementBase::operator new
EXTRN	??2i3ElementBase@@SAPAXIPAX@Z:PROC		; i3ElementBase::operator new
EXTRN	??3i3ElementBase@@SAXPAX@Z:PROC			; i3ElementBase::operator delete
EXTRN	??3i3ElementBase@@SAXPAX0@Z:PROC		; i3ElementBase::operator delete
EXTRN	?CopyTo@i3ElementBase@@UAEXPAV1@W4I3_COPY_METHOD@@@Z:PROC ; i3ElementBase::CopyTo
EXTRN	??1i3MemoryPool@@UAE@XZ:PROC			; i3MemoryPool::~i3MemoryPool
EXTRN	?GetMeta@i3NetworkPacket@@UAEPAVi3ClassMeta@@XZ:PROC ; i3NetworkPacket::GetMeta
EXTRN	??0i3NetworkPacket@@QAE@XZ:PROC			; i3NetworkPacket::i3NetworkPacket
EXTRN	??1i3NetworkPacket@@UAE@XZ:PROC			; i3NetworkPacket::~i3NetworkPacket
EXTRN	?CopyToBuffer@i3NetworkPacket@@QAEXPBDHH@Z:PROC	; i3NetworkPacket::CopyToBuffer
EXTRN	?GetError@i3Net@@YAHPAD@Z:PROC			; i3Net::GetError
EXTRN	?GetMeta@i3Udp@@UAEPAVi3ClassMeta@@XZ:PROC	; i3Udp::GetMeta
EXTRN	??1i3Udp@@UAE@XZ:PROC				; i3Udp::~i3Udp
EXTRN	?GetMeta@i3Tcp@@UAEPAVi3ClassMeta@@XZ:PROC	; i3Tcp::GetMeta
EXTRN	??1i3Tcp@@UAE@XZ:PROC				; i3Tcp::~i3Tcp
EXTRN	@__security_check_cookie@4:PROC
EXTRN	___CxxFrameHandler3:PROC
EXTRN	__chkstk:PROC
EXTRN	_memcpy:PROC
EXTRN	?s_pClassMetai3ElementBase@i3ElementBase@@2PAVi3ClassMeta@@A:DWORD ; i3ElementBase::s_pClassMetai3ElementBase
EXTRN	?s_pClassMetai3NetworkPacket@i3NetworkPacket@@2PAVi3ClassMeta@@A:DWORD ; i3NetworkPacket::s_pClassMetai3NetworkPacket
EXTRN	?s_pClassMetai3Udp@i3Udp@@2PAVi3ClassMeta@@A:DWORD ; i3Udp::s_pClassMetai3Udp
EXTRN	?s_pClassMetai3Tcp@i3Tcp@@2PAVi3ClassMeta@@A:DWORD ; i3Tcp::s_pClassMetai3Tcp
EXTRN	___security_cookie:DWORD
_BSS	SEGMENT
?s_ClassMetai3NetworkTCPSocket@@3V?$i3MetaTemplate@Vi3NetworkTCPSocket@@@@A DB 038H DUP (?) ; s_ClassMetai3NetworkTCPSocket
_BSS	ENDS
CRT$XCU	SEGMENT
?s_ClassMetai3NetworkTCPSocket$initializer$@@3P6AXXZA DD FLAT:??__Es_ClassMetai3NetworkTCPSocket@@YAXXZ ; s_ClassMetai3NetworkTCPSocket$initializer$
CRT$XCU	ENDS
;	COMDAT ??_R1A@?0A@EA@i3NetworkTCPSocket@@8
rdata$r	SEGMENT
??_R1A@?0A@EA@i3NetworkTCPSocket@@8 DD FLAT:??_R0?AVi3NetworkTCPSocket@@@8 ; i3NetworkTCPSocket::`RTTI Base Class Descriptor at (0,-1,0,64)'
	DD	01H
	DD	00H
	DD	0ffffffffH
	DD	00H
	DD	040H
	DD	FLAT:??_R3i3NetworkTCPSocket@@8
rdata$r	ENDS
;	COMDAT ??_R2i3NetworkTCPSocket@@8
rdata$r	SEGMENT
??_R2i3NetworkTCPSocket@@8 DD FLAT:??_R1A@?0A@EA@i3NetworkTCPSocket@@8 ; i3NetworkTCPSocket::`RTTI Base Class Array'
	DD	FLAT:??_R1A@?0A@EA@i3ElementBase@@8
rdata$r	ENDS
;	COMDAT ??_R3i3NetworkTCPSocket@@8
rdata$r	SEGMENT
??_R3i3NetworkTCPSocket@@8 DD 00H			; i3NetworkTCPSocket::`RTTI Class Hierarchy Descriptor'
	DD	00H
	DD	02H
	DD	FLAT:??_R2i3NetworkTCPSocket@@8
rdata$r	ENDS
;	COMDAT ??_R0?AVi3NetworkTCPSocket@@@8
data$rs	SEGMENT
??_R0?AVi3NetworkTCPSocket@@@8 DD FLAT:??_7type_info@@6B@ ; i3NetworkTCPSocket `RTTI Type Descriptor'
	DD	00H
	DB	'.?AVi3NetworkTCPSocket@@', 00H
data$rs	ENDS
;	COMDAT ??_R4i3NetworkTCPSocket@@6B@
rdata$r	SEGMENT
??_R4i3NetworkTCPSocket@@6B@ DD 00H			; i3NetworkTCPSocket::`RTTI Complete Object Locator'
	DD	00H
	DD	00H
	DD	FLAT:??_R0?AVi3NetworkTCPSocket@@@8
	DD	FLAT:??_R3i3NetworkTCPSocket@@8
rdata$r	ENDS
;	COMDAT ??_R1A@?0A@EA@i3Tcp@@8
rdata$r	SEGMENT
??_R1A@?0A@EA@i3Tcp@@8 DD FLAT:??_R0?AVi3Tcp@@@8	; i3Tcp::`RTTI Base Class Descriptor at (0,-1,0,64)'
	DD	01H
	DD	00H
	DD	0ffffffffH
	DD	00H
	DD	040H
	DD	FLAT:??_R3i3Tcp@@8
rdata$r	ENDS
;	COMDAT ??_R2i3Tcp@@8
rdata$r	SEGMENT
??_R2i3Tcp@@8 DD FLAT:??_R1A@?0A@EA@i3Tcp@@8		; i3Tcp::`RTTI Base Class Array'
	DD	FLAT:??_R1A@?0A@EA@i3ElementBase@@8
rdata$r	ENDS
;	COMDAT ??_R3i3Tcp@@8
rdata$r	SEGMENT
??_R3i3Tcp@@8 DD 00H					; i3Tcp::`RTTI Class Hierarchy Descriptor'
	DD	00H
	DD	02H
	DD	FLAT:??_R2i3Tcp@@8
rdata$r	ENDS
;	COMDAT ??_R0?AVi3Tcp@@@8
data$rs	SEGMENT
??_R0?AVi3Tcp@@@8 DD FLAT:??_7type_info@@6B@		; i3Tcp `RTTI Type Descriptor'
	DD	00H
	DB	'.?AVi3Tcp@@', 00H
data$rs	ENDS
;	COMDAT ??_R4i3Tcp@@6B@
rdata$r	SEGMENT
??_R4i3Tcp@@6B@ DD 00H					; i3Tcp::`RTTI Complete Object Locator'
	DD	00H
	DD	00H
	DD	FLAT:??_R0?AVi3Tcp@@@8
	DD	FLAT:??_R3i3Tcp@@8
rdata$r	ENDS
;	COMDAT ??_R1A@?0A@EA@i3Udp@@8
rdata$r	SEGMENT
??_R1A@?0A@EA@i3Udp@@8 DD FLAT:??_R0?AVi3Udp@@@8	; i3Udp::`RTTI Base Class Descriptor at (0,-1,0,64)'
	DD	01H
	DD	00H
	DD	0ffffffffH
	DD	00H
	DD	040H
	DD	FLAT:??_R3i3Udp@@8
rdata$r	ENDS
;	COMDAT ??_R2i3Udp@@8
rdata$r	SEGMENT
??_R2i3Udp@@8 DD FLAT:??_R1A@?0A@EA@i3Udp@@8		; i3Udp::`RTTI Base Class Array'
	DD	FLAT:??_R1A@?0A@EA@i3ElementBase@@8
rdata$r	ENDS
;	COMDAT ??_R3i3Udp@@8
rdata$r	SEGMENT
??_R3i3Udp@@8 DD 00H					; i3Udp::`RTTI Class Hierarchy Descriptor'
	DD	00H
	DD	02H
	DD	FLAT:??_R2i3Udp@@8
rdata$r	ENDS
;	COMDAT ??_R0?AVi3Udp@@@8
data$rs	SEGMENT
??_R0?AVi3Udp@@@8 DD FLAT:??_7type_info@@6B@		; i3Udp `RTTI Type Descriptor'
	DD	00H
	DB	'.?AVi3Udp@@', 00H
data$rs	ENDS
;	COMDAT ??_R4i3Udp@@6B@
rdata$r	SEGMENT
??_R4i3Udp@@6B@ DD 00H					; i3Udp::`RTTI Complete Object Locator'
	DD	00H
	DD	00H
	DD	FLAT:??_R0?AVi3Udp@@@8
	DD	FLAT:??_R3i3Udp@@8
rdata$r	ENDS
;	COMDAT ??_R1A@?0A@EA@i3NetworkPacket@@8
rdata$r	SEGMENT
??_R1A@?0A@EA@i3NetworkPacket@@8 DD FLAT:??_R0?AVi3NetworkPacket@@@8 ; i3NetworkPacket::`RTTI Base Class Descriptor at (0,-1,0,64)'
	DD	01H
	DD	00H
	DD	0ffffffffH
	DD	00H
	DD	040H
	DD	FLAT:??_R3i3NetworkPacket@@8
rdata$r	ENDS
;	COMDAT ??_R2i3NetworkPacket@@8
rdata$r	SEGMENT
??_R2i3NetworkPacket@@8 DD FLAT:??_R1A@?0A@EA@i3NetworkPacket@@8 ; i3NetworkPacket::`RTTI Base Class Array'
	DD	FLAT:??_R1A@?0A@EA@i3ElementBase@@8
rdata$r	ENDS
;	COMDAT ??_R3i3NetworkPacket@@8
rdata$r	SEGMENT
??_R3i3NetworkPacket@@8 DD 00H				; i3NetworkPacket::`RTTI Class Hierarchy Descriptor'
	DD	00H
	DD	02H
	DD	FLAT:??_R2i3NetworkPacket@@8
rdata$r	ENDS
;	COMDAT ??_R0?AVi3NetworkPacket@@@8
data$rs	SEGMENT
??_R0?AVi3NetworkPacket@@@8 DD FLAT:??_7type_info@@6B@	; i3NetworkPacket `RTTI Type Descriptor'
	DD	00H
	DB	'.?AVi3NetworkPacket@@', 00H
data$rs	ENDS
;	COMDAT ??_R4i3NetworkPacket@@6B@
rdata$r	SEGMENT
??_R4i3NetworkPacket@@6B@ DD 00H			; i3NetworkPacket::`RTTI Complete Object Locator'
	DD	00H
	DD	00H
	DD	FLAT:??_R0?AVi3NetworkPacket@@@8
	DD	FLAT:??_R3i3NetworkPacket@@8
rdata$r	ENDS
;	COMDAT ??_R4i3ClassMeta@@6B@
rdata$r	SEGMENT
??_R4i3ClassMeta@@6B@ DD 00H				; i3ClassMeta::`RTTI Complete Object Locator'
	DD	00H
	DD	00H
	DD	FLAT:??_R0?AVi3ClassMeta@@@8
	DD	FLAT:??_R3i3ClassMeta@@8
rdata$r	ENDS
;	COMDAT ??_R1A@?0A@EA@i3MemoryPool@@8
rdata$r	SEGMENT
??_R1A@?0A@EA@i3MemoryPool@@8 DD FLAT:??_R0?AVi3MemoryPool@@@8 ; i3MemoryPool::`RTTI Base Class Descriptor at (0,-1,0,64)'
	DD	00H
	DD	00H
	DD	0ffffffffH
	DD	00H
	DD	040H
	DD	FLAT:??_R3i3MemoryPool@@8
rdata$r	ENDS
;	COMDAT ??_R2i3MemoryPool@@8
rdata$r	SEGMENT
??_R2i3MemoryPool@@8 DD FLAT:??_R1A@?0A@EA@i3MemoryPool@@8 ; i3MemoryPool::`RTTI Base Class Array'
rdata$r	ENDS
;	COMDAT ??_R3i3MemoryPool@@8
rdata$r	SEGMENT
??_R3i3MemoryPool@@8 DD 00H				; i3MemoryPool::`RTTI Class Hierarchy Descriptor'
	DD	00H
	DD	01H
	DD	FLAT:??_R2i3MemoryPool@@8
rdata$r	ENDS
;	COMDAT ??_R0?AVi3MemoryPool@@@8
data$rs	SEGMENT
??_R0?AVi3MemoryPool@@@8 DD FLAT:??_7type_info@@6B@	; i3MemoryPool `RTTI Type Descriptor'
	DD	00H
	DB	'.?AVi3MemoryPool@@', 00H
data$rs	ENDS
;	COMDAT ??_R4i3MemoryPool@@6B@
rdata$r	SEGMENT
??_R4i3MemoryPool@@6B@ DD 00H				; i3MemoryPool::`RTTI Complete Object Locator'
	DD	00H
	DD	00H
	DD	FLAT:??_R0?AVi3MemoryPool@@@8
	DD	FLAT:??_R3i3MemoryPool@@8
rdata$r	ENDS
;	COMDAT ??_R1A@?0A@EA@i3ElementBase@@8
rdata$r	SEGMENT
??_R1A@?0A@EA@i3ElementBase@@8 DD FLAT:??_R0?AVi3ElementBase@@@8 ; i3ElementBase::`RTTI Base Class Descriptor at (0,-1,0,64)'
	DD	00H
	DD	00H
	DD	0ffffffffH
	DD	00H
	DD	040H
	DD	FLAT:??_R3i3ElementBase@@8
rdata$r	ENDS
;	COMDAT ??_R2i3ElementBase@@8
rdata$r	SEGMENT
??_R2i3ElementBase@@8 DD FLAT:??_R1A@?0A@EA@i3ElementBase@@8 ; i3ElementBase::`RTTI Base Class Array'
rdata$r	ENDS
;	COMDAT ??_R3i3ElementBase@@8
rdata$r	SEGMENT
??_R3i3ElementBase@@8 DD 00H				; i3ElementBase::`RTTI Class Hierarchy Descriptor'
	DD	00H
	DD	01H
	DD	FLAT:??_R2i3ElementBase@@8
rdata$r	ENDS
;	COMDAT ??_R0?AVi3ElementBase@@@8
data$rs	SEGMENT
??_R0?AVi3ElementBase@@@8 DD FLAT:??_7type_info@@6B@	; i3ElementBase `RTTI Type Descriptor'
	DD	00H
	DB	'.?AVi3ElementBase@@', 00H
data$rs	ENDS
;	COMDAT ??_R4i3ElementBase@@6B@
rdata$r	SEGMENT
??_R4i3ElementBase@@6B@ DD 00H				; i3ElementBase::`RTTI Complete Object Locator'
	DD	00H
	DD	00H
	DD	FLAT:??_R0?AVi3ElementBase@@@8
	DD	FLAT:??_R3i3ElementBase@@8
rdata$r	ENDS
;	COMDAT ??_C@_0CD@NGEANGL@?$FLi3NetworkClientSocket?3?3OnRecei@
CONST	SEGMENT
??_C@_0CD@NGEANGL@?$FLi3NetworkClientSocket?3?3OnRecei@ DB '[i3NetworkCli'
	DB	'entSocket::OnReceive]', 00H			; `string'
CONST	ENDS
;	COMDAT ??_C@_0CA@JIHOOGHA@?$FLi3NetworkClientSocket?3?3OnSend?$FN@
CONST	SEGMENT
??_C@_0CA@JIHOOGHA@?$FLi3NetworkClientSocket?3?3OnSend?$FN@ DB '[i3Networ'
	DB	'kClientSocket::OnSend]', 00H		; `string'
CONST	ENDS
;	COMDAT ??_C@_0CF@NEGKBEJG@?$FLi3NetworkClientSocket?3?3OnConne@
CONST	SEGMENT
??_C@_0CF@NEGKBEJG@?$FLi3NetworkClientSocket?3?3OnConne@ DB '[i3NetworkCl'
	DB	'ientSocket::OnConnectTo]', 00H		; `string'
CONST	ENDS
;	COMDAT ??_7i3NetworkTCPSocket@@6B@
CONST	SEGMENT
??_7i3NetworkTCPSocket@@6B@ DD FLAT:??_R4i3NetworkTCPSocket@@6B@ ; i3NetworkTCPSocket::`vftable'
	DD	FLAT:?GetMeta@i3NetworkTCPSocket@@UAEPAVi3ClassMeta@@XZ
	DD	FLAT:??_Ei3NetworkTCPSocket@@UAEPAXI@Z
	DD	FLAT:?CopyTo@i3ElementBase@@UAEXPAV1@W4I3_COPY_METHOD@@@Z
	DD	FLAT:?OnCreate@i3NetworkTCPSocket@@UAEHPADGP6AXPAVi3NetworkPacket@@@ZPAX@Z
	DD	FLAT:?OnDestroy@i3NetworkTCPSocket@@UAEHXZ
	DD	FLAT:?OnReceive@i3NetworkTCPSocket@@UAEXXZ
	DD	FLAT:?OnSend@i3NetworkTCPSocket@@UAEHXZ
	DD	FLAT:?PacketParsing@i3NetworkTCPSocket@@UAEXPAVi3NetworkPacket@@@Z
	DD	FLAT:?SendMessageA@i3NetworkTCPSocket@@UAEHPAVi3NetworkPacket@@@Z
CONST	ENDS
;	COMDAT ??_7i3Tcp@@6B@
CONST	SEGMENT
??_7i3Tcp@@6B@ DD FLAT:??_R4i3Tcp@@6B@			; i3Tcp::`vftable'
	DD	FLAT:?GetMeta@i3Tcp@@UAEPAVi3ClassMeta@@XZ
	DD	FLAT:??_Ei3Tcp@@UAEPAXI@Z
	DD	FLAT:?CopyTo@i3ElementBase@@UAEXPAV1@W4I3_COPY_METHOD@@@Z
CONST	ENDS
;	COMDAT ??_7i3Udp@@6B@
CONST	SEGMENT
??_7i3Udp@@6B@ DD FLAT:??_R4i3Udp@@6B@			; i3Udp::`vftable'
	DD	FLAT:?GetMeta@i3Udp@@UAEPAVi3ClassMeta@@XZ
	DD	FLAT:??_Ei3Udp@@UAEPAXI@Z
	DD	FLAT:?CopyTo@i3ElementBase@@UAEXPAV1@W4I3_COPY_METHOD@@@Z
CONST	ENDS
;	COMDAT ??_7i3NetworkPacket@@6B@
CONST	SEGMENT
??_7i3NetworkPacket@@6B@ DD FLAT:??_R4i3NetworkPacket@@6B@ ; i3NetworkPacket::`vftable'
	DD	FLAT:?GetMeta@i3NetworkPacket@@UAEPAVi3ClassMeta@@XZ
	DD	FLAT:??_Ei3NetworkPacket@@UAEPAXI@Z
	DD	FLAT:?CopyTo@i3ElementBase@@UAEXPAV1@W4I3_COPY_METHOD@@@Z
CONST	ENDS
;	COMDAT ??_7i3MemoryPool@@6B@
CONST	SEGMENT
??_7i3MemoryPool@@6B@ DD FLAT:??_R4i3MemoryPool@@6B@	; i3MemoryPool::`vftable'
	DD	FLAT:??_Ei3MemoryPool@@UAEPAXI@Z
	DD	FLAT:__purecall
	DD	FLAT:__purecall
CONST	ENDS
;	COMDAT ??_7i3ElementBase@@6B@
CONST	SEGMENT
??_7i3ElementBase@@6B@ DD FLAT:??_R4i3ElementBase@@6B@	; i3ElementBase::`vftable'
	DD	FLAT:?GetMeta@i3ElementBase@@UAEPAVi3ClassMeta@@XZ
	DD	FLAT:??_Ei3ElementBase@@UAEPAXI@Z
	DD	FLAT:?CopyTo@i3ElementBase@@UAEXPAV1@W4I3_COPY_METHOD@@@Z
CONST	ENDS
;	COMDAT ??_7i3ClassMeta@@6B@
CONST	SEGMENT
??_7i3ClassMeta@@6B@ DD FLAT:??_R4i3ClassMeta@@6B@	; i3ClassMeta::`vftable'
	DD	FLAT:??_Ei3ClassMeta@@UAEPAXI@Z
	DD	FLAT:?CreateInstance@i3ClassMeta@@UAEPAVi3ElementBase@@W4I3_CLASSMETA_TYPE@@@Z
	DD	FLAT:?BindInstance@i3ClassMeta@@UAEPAVi3ElementBase@@PAXW4I3_CLASSMETA_TYPE@@@Z
CONST	ENDS
;	COMDAT xdata$x
xdata$x	SEGMENT
__unwindtable$?BindInstance@?$i3MetaTemplate@Vi3NetworkTCPSocket@@@@UAEPAVi3ElementBase@@PAXW4I3_CLASSMETA_TYPE@@@Z DD 0ffffffffH
	DD	FLAT:__unwindfunclet$?BindInstance@?$i3MetaTemplate@Vi3NetworkTCPSocket@@@@UAEPAVi3ElementBase@@PAXW4I3_CLASSMETA_TYPE@@@Z$0
__ehfuncinfo$?BindInstance@?$i3MetaTemplate@Vi3NetworkTCPSocket@@@@UAEPAVi3ElementBase@@PAXW4I3_CLASSMETA_TYPE@@@Z DD 019930522H
	DD	01H
	DD	FLAT:__unwindtable$?BindInstance@?$i3MetaTemplate@Vi3NetworkTCPSocket@@@@UAEPAVi3ElementBase@@PAXW4I3_CLASSMETA_TYPE@@@Z
	DD	2 DUP(00H)
	DD	2 DUP(00H)
	DD	00H
	DD	01H
xdata$x	ENDS
;	COMDAT xdata$x
xdata$x	SEGMENT
__unwindtable$?CreateInstance@?$i3MetaTemplate@Vi3NetworkTCPSocket@@@@UAEPAVi3ElementBase@@W4I3_CLASSMETA_TYPE@@@Z DD 0ffffffffH
	DD	FLAT:__unwindfunclet$?CreateInstance@?$i3MetaTemplate@Vi3NetworkTCPSocket@@@@UAEPAVi3ElementBase@@W4I3_CLASSMETA_TYPE@@@Z$0
__ehfuncinfo$?CreateInstance@?$i3MetaTemplate@Vi3NetworkTCPSocket@@@@UAEPAVi3ElementBase@@W4I3_CLASSMETA_TYPE@@@Z DD 019930522H
	DD	01H
	DD	FLAT:__unwindtable$?CreateInstance@?$i3MetaTemplate@Vi3NetworkTCPSocket@@@@UAEPAVi3ElementBase@@W4I3_CLASSMETA_TYPE@@@Z
	DD	2 DUP(00H)
	DD	2 DUP(00H)
	DD	00H
	DD	01H
xdata$x	ENDS
;	COMDAT xdata$x
xdata$x	SEGMENT
__ehfuncinfo$??_Ei3NetworkTCPSocket@@UAEPAXI@Z DD 019930522H
	DD	00H
	DD	00H
	DD	2 DUP(00H)
	DD	2 DUP(00H)
	DD	00H
	DD	05H
xdata$x	ENDS
;	COMDAT voltbl
voltbl	SEGMENT
_volmd	DB	020H
voltbl	ENDS
;	COMDAT voltbl
voltbl	SEGMENT
_volmd	DB	025H
voltbl	ENDS
;	COMDAT voltbl
voltbl	SEGMENT
_volmd	DB	051H
voltbl	ENDS
;	COMDAT xdata$x
xdata$x	SEGMENT
__unwindtable$?OnReceive@i3NetworkTCPSocket@@UAEXXZ DD 0ffffffffH
	DD	FLAT:__unwindfunclet$?OnReceive@i3NetworkTCPSocket@@UAEXXZ$0
__ehfuncinfo$?OnReceive@i3NetworkTCPSocket@@UAEXXZ DD 019930522H
	DD	01H
	DD	FLAT:__unwindtable$?OnReceive@i3NetworkTCPSocket@@UAEXXZ
	DD	2 DUP(00H)
	DD	2 DUP(00H)
	DD	00H
	DD	01H
xdata$x	ENDS
;	COMDAT voltbl
voltbl	SEGMENT
_volmd	DB	040H
voltbl	ENDS
;	COMDAT voltbl
voltbl	SEGMENT
_volmd	DB	060H
voltbl	ENDS
;	COMDAT xdata$x
xdata$x	SEGMENT
__ehfuncinfo$??_Ei3Tcp@@UAEPAXI@Z DD 019930522H
	DD	00H
	DD	00H
	DD	2 DUP(00H)
	DD	2 DUP(00H)
	DD	00H
	DD	05H
xdata$x	ENDS
;	COMDAT xdata$x
xdata$x	SEGMENT
__ehfuncinfo$??_Ei3Udp@@UAEPAXI@Z DD 019930522H
	DD	00H
	DD	00H
	DD	2 DUP(00H)
	DD	2 DUP(00H)
	DD	00H
	DD	05H
xdata$x	ENDS
;	COMDAT xdata$x
xdata$x	SEGMENT
__ehfuncinfo$??_Ei3NetworkPacket@@UAEPAXI@Z DD 019930522H
	DD	00H
	DD	00H
	DD	2 DUP(00H)
	DD	2 DUP(00H)
	DD	00H
	DD	05H
xdata$x	ENDS
;	COMDAT xdata$x
xdata$x	SEGMENT
__ehfuncinfo$??_Ei3MemoryPool@@UAEPAXI@Z DD 019930522H
	DD	00H
	DD	00H
	DD	2 DUP(00H)
	DD	2 DUP(00H)
	DD	00H
	DD	05H
xdata$x	ENDS
;	COMDAT xdata$x
xdata$x	SEGMENT
__ehfuncinfo$??_Ei3ElementBase@@UAEPAXI@Z DD 019930522H
	DD	00H
	DD	00H
	DD	2 DUP(00H)
	DD	2 DUP(00H)
	DD	00H
	DD	05H
xdata$x	ENDS
;	COMDAT xdata$x
xdata$x	SEGMENT
__ehfuncinfo$??_Ei3ClassMeta@@UAEPAXI@Z DD 019930522H
	DD	00H
	DD	00H
	DD	2 DUP(00H)
	DD	2 DUP(00H)
	DD	00H
	DD	05H
xdata$x	ENDS
;	COMDAT voltbl
voltbl	SEGMENT
_volmd	DB	010H
voltbl	ENDS
;	COMDAT voltbl
voltbl	SEGMENT
_volmd	DB	010H
voltbl	ENDS
; Function compile flags: /Ogtp
;	COMDAT ??__Fs_ClassMetai3NetworkTCPSocket@@YAXXZ
text$yd	SEGMENT
??__Fs_ClassMetai3NetworkTCPSocket@@YAXXZ PROC		; `dynamic atexit destructor for 's_ClassMetai3NetworkTCPSocket'', COMDAT
  00000	b9 00 00 00 00	 mov	 ecx, OFFSET ?s_ClassMetai3NetworkTCPSocket@@3V?$i3MetaTemplate@Vi3NetworkTCPSocket@@@@A
  00005	e9 00 00 00 00	 jmp	 ??1i3ClassMeta@@UAE@XZ	; i3ClassMeta::~i3ClassMeta
??__Fs_ClassMetai3NetworkTCPSocket@@YAXXZ ENDP		; `dynamic atexit destructor for 's_ClassMetai3NetworkTCPSocket''
text$yd	ENDS
; Function compile flags: /Ogtp
; File E:\Proyectos\JuegosOnlineproyectos\PB\pbblow\Piercing Blow Remake\i3Server\src\i3Base\i3NetworkTCPSocket.cpp
; File E:\Proyectos\JuegosOnlineproyectos\PB\pbblow\Piercing Blow Remake\i3Server\include\i3Base\i3MetaTemplate.h
; File E:\Proyectos\JuegosOnlineproyectos\PB\pbblow\Piercing Blow Remake\i3Server\src\i3Base\i3NetworkTCPSocket.cpp
; File E:\Proyectos\JuegosOnlineproyectos\PB\pbblow\Piercing Blow Remake\i3Server\include\i3Base\i3MetaTemplate.h
; File E:\Proyectos\JuegosOnlineproyectos\PB\pbblow\Piercing Blow Remake\i3Server\src\i3Base\i3NetworkTCPSocket.cpp
;	COMDAT ??__Es_ClassMetai3NetworkTCPSocket@@YAXXZ
text$di	SEGMENT
??__Es_ClassMetai3NetworkTCPSocket@@YAXXZ PROC		; `dynamic initializer for 's_ClassMetai3NetworkTCPSocket'', COMDAT
; File E:\Proyectos\JuegosOnlineproyectos\PB\pbblow\Piercing Blow Remake\i3Server\include\i3Base\i3MetaTemplate.h

; 28   : : i3ClassMeta( classSz, pszClassName, pszBaseClassName, type)

  00000	6a 00		 push	 0
  00002	68 00 00 00 00	 push	 OFFSET ??_C@_0O@OCDFBOHM@i3ElementBase@
  00007	68 00 00 00 00	 push	 OFFSET ??_C@_0BD@BJAHAOML@i3NetworkTCPSocket@
  0000c	68 dc 45 00 00	 push	 17884			; 000045dcH
  00011	b9 00 00 00 00	 mov	 ecx, OFFSET ?s_ClassMetai3NetworkTCPSocket@@3V?$i3MetaTemplate@Vi3NetworkTCPSocket@@@@A
  00016	e8 00 00 00 00	 call	 ??0i3ClassMeta@@QAE@IPAD0W4I3_CLASSMETA_TYPE@@@Z ; i3ClassMeta::i3ClassMeta
; File E:\Proyectos\JuegosOnlineproyectos\PB\pbblow\Piercing Blow Remake\i3Server\src\i3Base\i3NetworkTCPSocket.cpp

; 7    : I3_CLASS_INSTANCE( i3NetworkTCPSocket, i3ElementBase );

  0001b	68 00 00 00 00	 push	 OFFSET ??__Fs_ClassMetai3NetworkTCPSocket@@YAXXZ ; `dynamic atexit destructor for 's_ClassMetai3NetworkTCPSocket''
; File E:\Proyectos\JuegosOnlineproyectos\PB\pbblow\Piercing Blow Remake\i3Server\include\i3Base\i3MetaTemplate.h

; 29   : {

  00020	c7 05 00 00 00
	00 00 00 00 00	 mov	 DWORD PTR ?s_ClassMetai3NetworkTCPSocket@@3V?$i3MetaTemplate@Vi3NetworkTCPSocket@@@@A, OFFSET ??_7?$i3MetaTemplate@Vi3NetworkTCPSocket@@@@6B@
; File E:\Proyectos\JuegosOnlineproyectos\PB\pbblow\Piercing Blow Remake\i3Server\src\i3Base\i3NetworkTCPSocket.cpp

; 7    : I3_CLASS_INSTANCE( i3NetworkTCPSocket, i3ElementBase );

  0002a	e8 00 00 00 00	 call	 _atexit
  0002f	59		 pop	 ecx
  00030	c3		 ret	 0
??__Es_ClassMetai3NetworkTCPSocket@@YAXXZ ENDP		; `dynamic initializer for 's_ClassMetai3NetworkTCPSocket''
text$di	ENDS
; Function compile flags: /Ogtp
;	COMDAT ??_G?$i3MetaTemplate@Vi3NetworkTCPSocket@@@@UAEPAXI@Z
_TEXT	SEGMENT
___flags$ = 8						; size = 4
??_G?$i3MetaTemplate@Vi3NetworkTCPSocket@@@@UAEPAXI@Z PROC ; i3MetaTemplate<i3NetworkTCPSocket>::`scalar deleting destructor', COMDAT
; _this$ = ecx
  00000	55		 push	 ebp
  00001	8b ec		 mov	 ebp, esp
  00003	56		 push	 esi
  00004	8b f1		 mov	 esi, ecx
  00006	e8 00 00 00 00	 call	 ??1i3ClassMeta@@UAE@XZ	; i3ClassMeta::~i3ClassMeta
  0000b	f6 45 08 01	 test	 BYTE PTR ___flags$[ebp], 1
  0000f	74 0b		 je	 SHORT $LN10@scalar
  00011	6a 38		 push	 56			; 00000038H
  00013	56		 push	 esi
  00014	e8 00 00 00 00	 call	 ??3@YAXPAXI@Z		; operator delete
  00019	83 c4 08	 add	 esp, 8
$LN10@scalar:
  0001c	8b c6		 mov	 eax, esi
  0001e	5e		 pop	 esi
  0001f	5d		 pop	 ebp
  00020	c2 04 00	 ret	 4
??_G?$i3MetaTemplate@Vi3NetworkTCPSocket@@@@UAEPAXI@Z ENDP ; i3MetaTemplate<i3NetworkTCPSocket>::`scalar deleting destructor'
_TEXT	ENDS
; Function compile flags: /Ogtp
; File E:\Proyectos\JuegosOnlineproyectos\PB\pbblow\Piercing Blow Remake\i3Server\include\i3Base\i3MetaTemplate.h
;	COMDAT ?BindInstance@?$i3MetaTemplate@Vi3NetworkTCPSocket@@@@UAEPAVi3ElementBase@@PAXW4I3_CLASSMETA_TYPE@@@Z
_TEXT	SEGMENT
__$EHRec$ = -12						; size = 12
_pBuf$ = 8						; size = 4
_type$ = 12						; size = 4
$T2 = 12						; size = 4
?BindInstance@?$i3MetaTemplate@Vi3NetworkTCPSocket@@@@UAEPAVi3ElementBase@@PAXW4I3_CLASSMETA_TYPE@@@Z PROC ; i3MetaTemplate<i3NetworkTCPSocket>::BindInstance, COMDAT
; _this$ = ecx

; 129  : 	{

  00000	55		 push	 ebp
  00001	8b ec		 mov	 ebp, esp
  00003	6a ff		 push	 -1
  00005	68 00 00 00 00	 push	 __ehhandler$?BindInstance@?$i3MetaTemplate@Vi3NetworkTCPSocket@@@@UAEPAVi3ElementBase@@PAXW4I3_CLASSMETA_TYPE@@@Z
  0000a	64 a1 00 00 00
	00		 mov	 eax, DWORD PTR fs:0
  00010	50		 push	 eax
  00011	a1 00 00 00 00	 mov	 eax, DWORD PTR ___security_cookie
  00016	33 c5		 xor	 eax, ebp
  00018	50		 push	 eax
  00019	8d 45 f4	 lea	 eax, DWORD PTR __$EHRec$[ebp]
  0001c	64 a3 00 00 00
	00		 mov	 DWORD PTR fs:0, eax

; 130  : 		if( m_ProxyCount > 0)

  00022	83 79 30 00	 cmp	 DWORD PTR [ecx+48], 0
  00026	7e 25		 jle	 SHORT $LN2@BindInstan

; 131  : 		{
; 132  : 			i3ClassMeta * pMeta = GetConcreteClass( type);

  00028	ff 75 0c	 push	 DWORD PTR _type$[ebp]
  0002b	e8 00 00 00 00	 call	 ?GetConcreteClass@i3ClassMeta@@QAEPAV1@W4I3_CLASSMETA_TYPE@@@Z ; i3ClassMeta::GetConcreteClass

; 133  : 
; 134  : 			return pMeta->BindInstance( pBuf, I3_CLASSMETA_TYPE_GENERAL);

  00030	6a 00		 push	 0
  00032	ff 75 08	 push	 DWORD PTR _pBuf$[ebp]
  00035	8b c8		 mov	 ecx, eax
  00037	8b 10		 mov	 edx, DWORD PTR [eax]
  00039	ff 52 08	 call	 DWORD PTR [edx+8]

; 142  : 			#endif
; 143  : 		}
; 144  : 	}

  0003c	8b 4d f4	 mov	 ecx, DWORD PTR __$EHRec$[ebp]
  0003f	64 89 0d 00 00
	00 00		 mov	 DWORD PTR fs:0, ecx
  00046	59		 pop	 ecx
  00047	8b e5		 mov	 esp, ebp
  00049	5d		 pop	 ebp
  0004a	c2 08 00	 ret	 8
$LN2@BindInstan:

; 135  : 		}
; 136  : 		else
; 137  : 		{
; 138  : 			#if defined( I3_DEBUG)
; 139  : 				return (i3ElementBase *) new( pBuf ) T;
; 140  : 			#else
; 141  : 				return (i3ElementBase *) new( pBuf ) T;

  0004d	ff 75 08	 push	 DWORD PTR _pBuf$[ebp]
  00050	68 dc 45 00 00	 push	 17884			; 000045dcH
  00055	e8 00 00 00 00	 call	 ??2i3ElementBase@@SAPAXIPAX@Z ; i3ElementBase::operator new
  0005a	83 c4 08	 add	 esp, 8
  0005d	89 45 0c	 mov	 DWORD PTR $T2[ebp], eax
  00060	c7 45 fc 00 00
	00 00		 mov	 DWORD PTR __$EHRec$[ebp+8], 0
  00067	85 c0		 test	 eax, eax
  00069	74 18		 je	 SHORT $LN5@BindInstan
  0006b	8b c8		 mov	 ecx, eax
  0006d	e8 00 00 00 00	 call	 ??0i3NetworkTCPSocket@@QAE@XZ ; i3NetworkTCPSocket::i3NetworkTCPSocket

; 142  : 			#endif
; 143  : 		}
; 144  : 	}

  00072	8b 4d f4	 mov	 ecx, DWORD PTR __$EHRec$[ebp]
  00075	64 89 0d 00 00
	00 00		 mov	 DWORD PTR fs:0, ecx
  0007c	59		 pop	 ecx
  0007d	8b e5		 mov	 esp, ebp
  0007f	5d		 pop	 ebp
  00080	c2 08 00	 ret	 8
$LN5@BindInstan:

; 135  : 		}
; 136  : 		else
; 137  : 		{
; 138  : 			#if defined( I3_DEBUG)
; 139  : 				return (i3ElementBase *) new( pBuf ) T;
; 140  : 			#else
; 141  : 				return (i3ElementBase *) new( pBuf ) T;

  00083	33 c0		 xor	 eax, eax

; 142  : 			#endif
; 143  : 		}
; 144  : 	}

  00085	8b 4d f4	 mov	 ecx, DWORD PTR __$EHRec$[ebp]
  00088	64 89 0d 00 00
	00 00		 mov	 DWORD PTR fs:0, ecx
  0008f	59		 pop	 ecx
  00090	8b e5		 mov	 esp, ebp
  00092	5d		 pop	 ebp
  00093	c2 08 00	 ret	 8
_TEXT	ENDS
;	COMDAT text$x
text$x	SEGMENT
__unwindfunclet$?BindInstance@?$i3MetaTemplate@Vi3NetworkTCPSocket@@@@UAEPAVi3ElementBase@@PAXW4I3_CLASSMETA_TYPE@@@Z$0:
  00000	8b 45 08	 mov	 eax, DWORD PTR _pBuf$[ebp]
  00003	50		 push	 eax
  00004	8b 45 0c	 mov	 eax, DWORD PTR $T2[ebp]
  00007	50		 push	 eax
  00008	e8 00 00 00 00	 call	 ??3i3ElementBase@@SAXPAX0@Z ; i3ElementBase::operator delete
  0000d	83 c4 08	 add	 esp, 8
  00010	c3		 ret	 0
  00011	cc		 int	 3
  00012	cc		 int	 3
  00013	cc		 int	 3
  00014	cc		 int	 3
  00015	cc		 int	 3
__ehhandler$?BindInstance@?$i3MetaTemplate@Vi3NetworkTCPSocket@@@@UAEPAVi3ElementBase@@PAXW4I3_CLASSMETA_TYPE@@@Z:
  00016	90		 npad	 1
  00017	90		 npad	 1
  00018	8b 54 24 08	 mov	 edx, DWORD PTR [esp+8]
  0001c	8d 42 0c	 lea	 eax, DWORD PTR [edx+12]
  0001f	8b 4a fc	 mov	 ecx, DWORD PTR [edx-4]
  00022	33 c8		 xor	 ecx, eax
  00024	e8 00 00 00 00	 call	 @__security_check_cookie@4
  00029	b8 00 00 00 00	 mov	 eax, OFFSET __ehfuncinfo$?BindInstance@?$i3MetaTemplate@Vi3NetworkTCPSocket@@@@UAEPAVi3ElementBase@@PAXW4I3_CLASSMETA_TYPE@@@Z
  0002e	e9 00 00 00 00	 jmp	 ___CxxFrameHandler3
text$x	ENDS
?BindInstance@?$i3MetaTemplate@Vi3NetworkTCPSocket@@@@UAEPAVi3ElementBase@@PAXW4I3_CLASSMETA_TYPE@@@Z ENDP ; i3MetaTemplate<i3NetworkTCPSocket>::BindInstance
; Function compile flags: /Ogtp
; File E:\Proyectos\JuegosOnlineproyectos\PB\pbblow\Piercing Blow Remake\i3Server\include\i3Base\i3MetaTemplate.h
; File E:\Proyectos\JuegosOnlineproyectos\PB\pbblow\Piercing Blow Remake\i3Server\include\i3Base\i3ElementBase.h
; File E:\Proyectos\JuegosOnlineproyectos\PB\pbblow\Piercing Blow Remake\i3Server\include\i3Base\i3MetaTemplate.h
; File E:\Proyectos\JuegosOnlineproyectos\PB\pbblow\Piercing Blow Remake\i3Server\include\i3Base\i3ElementBase.h
; File E:\Proyectos\JuegosOnlineproyectos\PB\pbblow\Piercing Blow Remake\i3Server\include\i3Base\i3MetaTemplate.h
;	COMDAT ?CreateInstance@?$i3MetaTemplate@Vi3NetworkTCPSocket@@@@UAEPAVi3ElementBase@@W4I3_CLASSMETA_TYPE@@@Z
_TEXT	SEGMENT
__$EHRec$ = -12						; size = 12
_type$ = 8						; size = 4
$T2 = 8							; size = 4
?CreateInstance@?$i3MetaTemplate@Vi3NetworkTCPSocket@@@@UAEPAVi3ElementBase@@W4I3_CLASSMETA_TYPE@@@Z PROC ; i3MetaTemplate<i3NetworkTCPSocket>::CreateInstance, COMDAT
; _this$ = ecx

; 97   : 	{

  00000	55		 push	 ebp
  00001	8b ec		 mov	 ebp, esp
  00003	6a ff		 push	 -1
  00005	68 00 00 00 00	 push	 __ehhandler$?CreateInstance@?$i3MetaTemplate@Vi3NetworkTCPSocket@@@@UAEPAVi3ElementBase@@W4I3_CLASSMETA_TYPE@@@Z
  0000a	64 a1 00 00 00
	00		 mov	 eax, DWORD PTR fs:0
  00010	50		 push	 eax
  00011	56		 push	 esi
  00012	57		 push	 edi
  00013	a1 00 00 00 00	 mov	 eax, DWORD PTR ___security_cookie
  00018	33 c5		 xor	 eax, ebp
  0001a	50		 push	 eax
  0001b	8d 45 f4	 lea	 eax, DWORD PTR __$EHRec$[ebp]
  0001e	64 a3 00 00 00
	00		 mov	 DWORD PTR fs:0, eax
  00024	8b f9		 mov	 edi, ecx

; 98   : 		if( m_ProxyCount > 0)

  00026	83 7f 30 00	 cmp	 DWORD PTR [edi+48], 0
  0002a	7e 28		 jle	 SHORT $LN3@CreateInst

; 99   : 		{
; 100  : 			i3ClassMeta * pMeta = GetConcreteClass( type);

  0002c	ff 75 08	 push	 DWORD PTR _type$[ebp]
  0002f	e8 00 00 00 00	 call	 ?GetConcreteClass@i3ClassMeta@@QAEPAV1@W4I3_CLASSMETA_TYPE@@@Z ; i3ClassMeta::GetConcreteClass

; 101  : 
; 102  : 			if( pMeta != NULL)

  00034	85 c0		 test	 eax, eax
  00036	74 1c		 je	 SHORT $LN3@CreateInst

; 103  : 				return pMeta->CreateInstance( I3_CLASSMETA_TYPE_GENERAL);

  00038	8b 10		 mov	 edx, DWORD PTR [eax]
  0003a	8b c8		 mov	 ecx, eax
  0003c	6a 00		 push	 0
  0003e	ff 52 04	 call	 DWORD PTR [edx+4]

; 125  : 	}

  00041	8b 4d f4	 mov	 ecx, DWORD PTR __$EHRec$[ebp]
  00044	64 89 0d 00 00
	00 00		 mov	 DWORD PTR fs:0, ecx
  0004b	59		 pop	 ecx
  0004c	5f		 pop	 edi
  0004d	5e		 pop	 esi
  0004e	8b e5		 mov	 esp, ebp
  00050	5d		 pop	 ebp
  00051	c2 04 00	 ret	 4
$LN3@CreateInst:

; 104  : 		}
; 105  : 
; 106  : 		{
; 107  : 			if( m_pPool == NULL)

  00054	8b 4f 34	 mov	 ecx, DWORD PTR [edi+52]
  00057	85 c9		 test	 ecx, ecx
  00059	75 4a		 jne	 SHORT $LN4@CreateInst

; 108  : 			{
; 109  : 				#if defined( I3_DEBUG)
; 110  : 					return (i3ElementBase *) new T;
; 111  : 				#else
; 112  : 					return (i3ElementBase *) new T;

  0005b	68 dc 45 00 00	 push	 17884			; 000045dcH
  00060	e8 00 00 00 00	 call	 ??2i3ElementBase@@SAPAXI@Z ; i3ElementBase::operator new
  00065	83 c4 04	 add	 esp, 4
  00068	89 45 08	 mov	 DWORD PTR $T2[ebp], eax
  0006b	c7 45 fc 00 00
	00 00		 mov	 DWORD PTR __$EHRec$[ebp+8], 0
  00072	85 c0		 test	 eax, eax
  00074	74 1a		 je	 SHORT $LN7@CreateInst
  00076	8b c8		 mov	 ecx, eax
  00078	e8 00 00 00 00	 call	 ??0i3NetworkTCPSocket@@QAE@XZ ; i3NetworkTCPSocket::i3NetworkTCPSocket

; 125  : 	}

  0007d	8b 4d f4	 mov	 ecx, DWORD PTR __$EHRec$[ebp]
  00080	64 89 0d 00 00
	00 00		 mov	 DWORD PTR fs:0, ecx
  00087	59		 pop	 ecx
  00088	5f		 pop	 edi
  00089	5e		 pop	 esi
  0008a	8b e5		 mov	 esp, ebp
  0008c	5d		 pop	 ebp
  0008d	c2 04 00	 ret	 4
$LN7@CreateInst:

; 108  : 			{
; 109  : 				#if defined( I3_DEBUG)
; 110  : 					return (i3ElementBase *) new T;
; 111  : 				#else
; 112  : 					return (i3ElementBase *) new T;

  00090	33 c0		 xor	 eax, eax

; 125  : 	}

  00092	8b 4d f4	 mov	 ecx, DWORD PTR __$EHRec$[ebp]
  00095	64 89 0d 00 00
	00 00		 mov	 DWORD PTR fs:0, ecx
  0009c	59		 pop	 ecx
  0009d	5f		 pop	 edi
  0009e	5e		 pop	 esi
  0009f	8b e5		 mov	 esp, ebp
  000a1	5d		 pop	 ebp
  000a2	c2 04 00	 ret	 4
$LN4@CreateInst:

; 113  : 				#endif
; 114  : 			}
; 115  : 			else
; 116  : 			{
; 117  : 				i3ElementBase * p = (i3ElementBase *) m_pPool->Alloc( sizeof(T), NULL, 0);

  000a5	8b 01		 mov	 eax, DWORD PTR [ecx]
  000a7	6a 00		 push	 0
  000a9	6a 00		 push	 0
  000ab	68 dc 45 00 00	 push	 17884			; 000045dcH
  000b0	ff 50 04	 call	 DWORD PTR [eax+4]

; 118  : 	
; 119  : 				BindInstance( p, type);

  000b3	ff 75 08	 push	 DWORD PTR _type$[ebp]
  000b6	8b 17		 mov	 edx, DWORD PTR [edi]
  000b8	8b f0		 mov	 esi, eax
  000ba	56		 push	 esi
  000bb	8b cf		 mov	 ecx, edi
  000bd	ff 52 08	 call	 DWORD PTR [edx+8]
; File E:\Proyectos\JuegosOnlineproyectos\PB\pbblow\Piercing Blow Remake\i3Server\include\i3Base\i3ElementBase.h

; 347  : 	void			__SetMemoryPool( i3MemoryPool * pPool)			{ m_pPool = pPool; }

  000c0	8b 4f 34	 mov	 ecx, DWORD PTR [edi+52]
; File E:\Proyectos\JuegosOnlineproyectos\PB\pbblow\Piercing Blow Remake\i3Server\include\i3Base\i3MetaTemplate.h

; 122  : 				return p;

  000c3	8b c6		 mov	 eax, esi
; File E:\Proyectos\JuegosOnlineproyectos\PB\pbblow\Piercing Blow Remake\i3Server\include\i3Base\i3ElementBase.h

; 347  : 	void			__SetMemoryPool( i3MemoryPool * pPool)			{ m_pPool = pPool; }

  000c5	89 4e 0c	 mov	 DWORD PTR [esi+12], ecx
; File E:\Proyectos\JuegosOnlineproyectos\PB\pbblow\Piercing Blow Remake\i3Server\include\i3Base\i3MetaTemplate.h

; 125  : 	}

  000c8	8b 4d f4	 mov	 ecx, DWORD PTR __$EHRec$[ebp]
  000cb	64 89 0d 00 00
	00 00		 mov	 DWORD PTR fs:0, ecx
  000d2	59		 pop	 ecx
  000d3	5f		 pop	 edi
  000d4	5e		 pop	 esi
  000d5	8b e5		 mov	 esp, ebp
  000d7	5d		 pop	 ebp
  000d8	c2 04 00	 ret	 4
_TEXT	ENDS
;	COMDAT text$x
text$x	SEGMENT
__unwindfunclet$?CreateInstance@?$i3MetaTemplate@Vi3NetworkTCPSocket@@@@UAEPAVi3ElementBase@@W4I3_CLASSMETA_TYPE@@@Z$0:
  00000	8b 45 08	 mov	 eax, DWORD PTR $T2[ebp]
  00003	50		 push	 eax
  00004	e8 00 00 00 00	 call	 ??3i3ElementBase@@SAXPAX@Z ; i3ElementBase::operator delete
  00009	59		 pop	 ecx
  0000a	c3		 ret	 0
  0000b	cc		 int	 3
  0000c	cc		 int	 3
  0000d	cc		 int	 3
  0000e	cc		 int	 3
  0000f	cc		 int	 3
__ehhandler$?CreateInstance@?$i3MetaTemplate@Vi3NetworkTCPSocket@@@@UAEPAVi3ElementBase@@W4I3_CLASSMETA_TYPE@@@Z:
  00010	90		 npad	 1
  00011	90		 npad	 1
  00012	8b 54 24 08	 mov	 edx, DWORD PTR [esp+8]
  00016	8d 42 0c	 lea	 eax, DWORD PTR [edx+12]
  00019	8b 4a f4	 mov	 ecx, DWORD PTR [edx-12]
  0001c	33 c8		 xor	 ecx, eax
  0001e	e8 00 00 00 00	 call	 @__security_check_cookie@4
  00023	b8 00 00 00 00	 mov	 eax, OFFSET __ehfuncinfo$?CreateInstance@?$i3MetaTemplate@Vi3NetworkTCPSocket@@@@UAEPAVi3ElementBase@@W4I3_CLASSMETA_TYPE@@@Z
  00028	e9 00 00 00 00	 jmp	 ___CxxFrameHandler3
text$x	ENDS
?CreateInstance@?$i3MetaTemplate@Vi3NetworkTCPSocket@@@@UAEPAVi3ElementBase@@W4I3_CLASSMETA_TYPE@@@Z ENDP ; i3MetaTemplate<i3NetworkTCPSocket>::CreateInstance
; Function compile flags: /Ogtp
; File E:\Proyectos\JuegosOnlineproyectos\PB\pbblow\Piercing Blow Remake\i3Server\include\i3Base\i3MetaTemplate.h
;	COMDAT ??0?$i3MetaTemplate@Vi3NetworkTCPSocket@@@@QAE@IPAD0W4I3_CLASSMETA_TYPE@@@Z
_TEXT	SEGMENT
_this$ = -4						; size = 4
_classSz$ = 8						; size = 4
_pszClassName$ = 12					; size = 4
_pszBaseClassName$ = 16					; size = 4
_type$ = 20						; size = 4
??0?$i3MetaTemplate@Vi3NetworkTCPSocket@@@@QAE@IPAD0W4I3_CLASSMETA_TYPE@@@Z PROC ; i3MetaTemplate<i3NetworkTCPSocket>::i3MetaTemplate<i3NetworkTCPSocket>, COMDAT
; _this$ = ecx

; 29   : {

  00000	55		 push	 ebp
  00001	8b ec		 mov	 ebp, esp
  00003	51		 push	 ecx
  00004	56		 push	 esi
  00005	ff 75 14	 push	 DWORD PTR _type$[ebp]
  00008	8b f1		 mov	 esi, ecx
  0000a	ff 75 10	 push	 DWORD PTR _pszBaseClassName$[ebp]
  0000d	89 75 fc	 mov	 DWORD PTR _this$[ebp], esi
  00010	ff 75 0c	 push	 DWORD PTR _pszClassName$[ebp]
  00013	ff 75 08	 push	 DWORD PTR _classSz$[ebp]
  00016	e8 00 00 00 00	 call	 ??0i3ClassMeta@@QAE@IPAD0W4I3_CLASSMETA_TYPE@@@Z ; i3ClassMeta::i3ClassMeta
  0001b	c7 06 00 00 00
	00		 mov	 DWORD PTR [esi], OFFSET ??_7?$i3MetaTemplate@Vi3NetworkTCPSocket@@@@6B@

; 30   : }

  00021	8b c6		 mov	 eax, esi
  00023	5e		 pop	 esi
  00024	8b e5		 mov	 esp, ebp
  00026	5d		 pop	 ebp
  00027	c2 10 00	 ret	 16			; 00000010H
??0?$i3MetaTemplate@Vi3NetworkTCPSocket@@@@QAE@IPAD0W4I3_CLASSMETA_TYPE@@@Z ENDP ; i3MetaTemplate<i3NetworkTCPSocket>::i3MetaTemplate<i3NetworkTCPSocket>
_TEXT	ENDS
; Function compile flags: /Ogtp
; File E:\Proyectos\JuegosOnlineproyectos\PB\pbblow\Piercing Blow Remake\i3Server\src\i3Base\i3NetworkTCPSocket.cpp
;	COMDAT ??_Ei3NetworkTCPSocket@@UAEPAXI@Z
_TEXT	SEGMENT
__$EHRec$ = -12						; size = 12
___flags$ = 8						; size = 4
??_Ei3NetworkTCPSocket@@UAEPAXI@Z PROC			; i3NetworkTCPSocket::`vector deleting destructor', COMDAT
; _this$ = ecx
  00000	55		 push	 ebp
  00001	8b ec		 mov	 ebp, esp
  00003	6a ff		 push	 -1
  00005	68 00 00 00 00	 push	 __ehhandler$??_Ei3NetworkTCPSocket@@UAEPAXI@Z
  0000a	64 a1 00 00 00
	00		 mov	 eax, DWORD PTR fs:0
  00010	50		 push	 eax
  00011	53		 push	 ebx
  00012	56		 push	 esi
  00013	57		 push	 edi
  00014	a1 00 00 00 00	 mov	 eax, DWORD PTR ___security_cookie
  00019	33 c5		 xor	 eax, ebp
  0001b	50		 push	 eax
  0001c	8d 45 f4	 lea	 eax, DWORD PTR __$EHRec$[ebp]
  0001f	64 a3 00 00 00
	00		 mov	 DWORD PTR fs:0, eax
  00025	8b f1		 mov	 esi, ecx
  00027	8b 5d 08	 mov	 ebx, DWORD PTR ___flags$[ebp]
  0002a	f6 c3 02	 test	 bl, 2
  0002d	74 44		 je	 SHORT $LN2@vector
  0002f	68 00 00 00 00	 push	 OFFSET ??1i3NetworkTCPSocket@@UAE@XZ ; i3NetworkTCPSocket::~i3NetworkTCPSocket
  00034	ff 76 fc	 push	 DWORD PTR [esi-4]
  00037	8d 7e fc	 lea	 edi, DWORD PTR [esi-4]
  0003a	68 dc 45 00 00	 push	 17884			; 000045dcH
  0003f	56		 push	 esi
  00040	e8 00 00 00 00	 call	 ??_M@YGXPAXIIP6EX0@Z@Z
  00045	f6 c3 01	 test	 bl, 1
  00048	74 13		 je	 SHORT $LN3@vector
  0004a	69 0f dc 45 00
	00		 imul	 ecx, DWORD PTR [edi], 17884
  00050	83 c1 04	 add	 ecx, 4
  00053	51		 push	 ecx
  00054	57		 push	 edi
  00055	e8 00 00 00 00	 call	 ??_V@YAXPAXI@Z		; operator delete[]
  0005a	83 c4 08	 add	 esp, 8
$LN3@vector:
  0005d	8b c7		 mov	 eax, edi
  0005f	8b 4d f4	 mov	 ecx, DWORD PTR __$EHRec$[ebp]
  00062	64 89 0d 00 00
	00 00		 mov	 DWORD PTR fs:0, ecx
  00069	59		 pop	 ecx
  0006a	5f		 pop	 edi
  0006b	5e		 pop	 esi
  0006c	5b		 pop	 ebx
  0006d	8b e5		 mov	 esp, ebp
  0006f	5d		 pop	 ebp
  00070	c2 04 00	 ret	 4
$LN2@vector:

; 61   : 	if(  m_hEvent != INVALID_HANDLE_VALUE )

  00073	8b 46 14	 mov	 eax, DWORD PTR [esi+20]

; 25   : {

  00076	c7 06 00 00 00
	00		 mov	 DWORD PTR [esi], OFFSET ??_7i3NetworkTCPSocket@@6B@

; 61   : 	if(  m_hEvent != INVALID_HANDLE_VALUE )

  0007c	83 f8 ff	 cmp	 eax, -1
  0007f	74 0e		 je	 SHORT $LN16@vector

; 62   : 	{
; 63   : 		::WSACloseEvent( m_hEvent );

  00081	50		 push	 eax
  00082	ff 15 00 00 00
	00		 call	 DWORD PTR __imp__WSACloseEvent@4

; 64   : 		m_hEvent = INVALID_HANDLE_VALUE;

  00088	c7 46 14 ff ff
	ff ff		 mov	 DWORD PTR [esi+20], -1
$LN16@vector:

; 65   : 	}
; 66   : 
; 67   : 	if( m_Socket != INVALID_SOCKET )

  0008f	8b 46 10	 mov	 eax, DWORD PTR [esi+16]
  00092	83 f8 ff	 cmp	 eax, -1
  00095	74 19		 je	 SHORT $LN17@vector

; 68   : 	{
; 69   : 		::shutdown( m_Socket, SD_BOTH); 

  00097	6a 02		 push	 2
  00099	50		 push	 eax
  0009a	ff 15 00 00 00
	00		 call	 DWORD PTR __imp__shutdown@8

; 70   : 		::closesocket( m_Socket );

  000a0	ff 76 10	 push	 DWORD PTR [esi+16]
  000a3	ff 15 00 00 00
	00		 call	 DWORD PTR __imp__closesocket@4

; 71   : 		m_Socket = INVALID_SOCKET; 

  000a9	c7 46 10 ff ff
	ff ff		 mov	 DWORD PTR [esi+16], -1
$LN17@vector:

; 27   : }

  000b0	8b ce		 mov	 ecx, esi
  000b2	e8 00 00 00 00	 call	 ??1i3ElementBase@@UAE@XZ ; i3ElementBase::~i3ElementBase
  000b7	f6 c3 01	 test	 bl, 1
  000ba	74 1e		 je	 SHORT $LN6@vector
  000bc	f6 c3 04	 test	 bl, 4
  000bf	75 0b		 jne	 SHORT $LN5@vector
  000c1	56		 push	 esi
  000c2	e8 00 00 00 00	 call	 ??3i3ElementBase@@SAXPAX@Z ; i3ElementBase::operator delete
  000c7	83 c4 04	 add	 esp, 4
  000ca	eb 0e		 jmp	 SHORT $LN6@vector
$LN5@vector:

  000cc	68 dc 45 00 00	 push	 17884			; 000045dcH
  000d1	56		 push	 esi
  000d2	e8 00 00 00 00	 call	 ??3@YAXPAXI@Z		; operator delete
  000d7	83 c4 08	 add	 esp, 8
$LN6@vector:
  000da	8b c6		 mov	 eax, esi
  000dc	8b 4d f4	 mov	 ecx, DWORD PTR __$EHRec$[ebp]
  000df	64 89 0d 00 00
	00 00		 mov	 DWORD PTR fs:0, ecx
  000e6	59		 pop	 ecx
  000e7	5f		 pop	 edi
  000e8	5e		 pop	 esi
  000e9	5b		 pop	 ebx
  000ea	8b e5		 mov	 esp, ebp
  000ec	5d		 pop	 ebp
  000ed	c2 04 00	 ret	 4
  000f0	cc		 int	 3
  000f1	cc		 int	 3
  000f2	cc		 int	 3
  000f3	cc		 int	 3
  000f4	cc		 int	 3
_TEXT	ENDS
;	COMDAT text$x
text$x	SEGMENT
__ehhandler$??_Ei3NetworkTCPSocket@@UAEPAXI@Z:
  00000	90		 npad	 1
  00001	90		 npad	 1
  00002	8b 54 24 08	 mov	 edx, DWORD PTR [esp+8]
  00006	8d 42 0c	 lea	 eax, DWORD PTR [edx+12]
  00009	8b 4a f0	 mov	 ecx, DWORD PTR [edx-16]
  0000c	33 c8		 xor	 ecx, eax
  0000e	e8 00 00 00 00	 call	 @__security_check_cookie@4
  00013	b8 00 00 00 00	 mov	 eax, OFFSET __ehfuncinfo$??_Ei3NetworkTCPSocket@@UAEPAXI@Z
  00018	e9 00 00 00 00	 jmp	 ___CxxFrameHandler3
text$x	ENDS
??_Ei3NetworkTCPSocket@@UAEPAXI@Z ENDP			; i3NetworkTCPSocket::`vector deleting destructor'
; Function compile flags: /Ogtp
; File E:\Proyectos\JuegosOnlineproyectos\PB\pbblow\Piercing Blow Remake\i3Server\src\i3Base\i3NetworkTCPSocket.cpp
;	COMDAT ??_Gi3NetworkTCPSocket@@UAEPAXI@Z
_TEXT	SEGMENT
___flags$ = 8						; size = 4
??_Gi3NetworkTCPSocket@@UAEPAXI@Z PROC			; i3NetworkTCPSocket::`scalar deleting destructor', COMDAT
; _this$ = ecx
  00000	55		 push	 ebp
  00001	8b ec		 mov	 ebp, esp

; 25   : {

  00003	56		 push	 esi
  00004	8b f1		 mov	 esi, ecx

; 61   : 	if(  m_hEvent != INVALID_HANDLE_VALUE )

  00006	8b 46 14	 mov	 eax, DWORD PTR [esi+20]

; 25   : {

  00009	c7 06 00 00 00
	00		 mov	 DWORD PTR [esi], OFFSET ??_7i3NetworkTCPSocket@@6B@

; 61   : 	if(  m_hEvent != INVALID_HANDLE_VALUE )

  0000f	83 f8 ff	 cmp	 eax, -1
  00012	74 0e		 je	 SHORT $LN14@scalar

; 62   : 	{
; 63   : 		::WSACloseEvent( m_hEvent );

  00014	50		 push	 eax
  00015	ff 15 00 00 00
	00		 call	 DWORD PTR __imp__WSACloseEvent@4

; 64   : 		m_hEvent = INVALID_HANDLE_VALUE;

  0001b	c7 46 14 ff ff
	ff ff		 mov	 DWORD PTR [esi+20], -1
$LN14@scalar:

; 65   : 	}
; 66   : 
; 67   : 	if( m_Socket != INVALID_SOCKET )

  00022	8b 46 10	 mov	 eax, DWORD PTR [esi+16]
  00025	83 f8 ff	 cmp	 eax, -1
  00028	74 19		 je	 SHORT $LN15@scalar

; 68   : 	{
; 69   : 		::shutdown( m_Socket, SD_BOTH); 

  0002a	6a 02		 push	 2
  0002c	50		 push	 eax
  0002d	ff 15 00 00 00
	00		 call	 DWORD PTR __imp__shutdown@8

; 70   : 		::closesocket( m_Socket );

  00033	ff 76 10	 push	 DWORD PTR [esi+16]
  00036	ff 15 00 00 00
	00		 call	 DWORD PTR __imp__closesocket@4

; 71   : 		m_Socket = INVALID_SOCKET; 

  0003c	c7 46 10 ff ff
	ff ff		 mov	 DWORD PTR [esi+16], -1
$LN15@scalar:

; 27   : }

  00043	8b ce		 mov	 ecx, esi
  00045	e8 00 00 00 00	 call	 ??1i3ElementBase@@UAE@XZ ; i3ElementBase::~i3ElementBase
  0004a	8b 45 08	 mov	 eax, DWORD PTR ___flags$[ebp]
  0004d	a8 01		 test	 al, 1
  0004f	74 22		 je	 SHORT $LN19@scalar
  00051	a8 04		 test	 al, 4
  00053	75 10		 jne	 SHORT $LN3@scalar
  00055	56		 push	 esi
  00056	e8 00 00 00 00	 call	 ??3i3ElementBase@@SAXPAX@Z ; i3ElementBase::operator delete
  0005b	83 c4 04	 add	 esp, 4
  0005e	8b c6		 mov	 eax, esi
  00060	5e		 pop	 esi
  00061	5d		 pop	 ebp
  00062	c2 04 00	 ret	 4
$LN3@scalar:

  00065	68 dc 45 00 00	 push	 17884			; 000045dcH
  0006a	56		 push	 esi
  0006b	e8 00 00 00 00	 call	 ??3@YAXPAXI@Z		; operator delete
  00070	83 c4 08	 add	 esp, 8
$LN19@scalar:
  00073	8b c6		 mov	 eax, esi
  00075	5e		 pop	 esi
  00076	5d		 pop	 ebp
  00077	c2 04 00	 ret	 4
??_Gi3NetworkTCPSocket@@UAEPAXI@Z ENDP			; i3NetworkTCPSocket::`scalar deleting destructor'
_TEXT	ENDS
; Function compile flags: /Ogtp
;	COMDAT ??4i3NetworkTCPSocket@@QAEAAV0@ABV0@@Z
_TEXT	SEGMENT
___that$ = 8						; size = 4
??4i3NetworkTCPSocket@@QAEAAV0@ABV0@@Z PROC		; i3NetworkTCPSocket::operator=, COMDAT
; _this$ = ecx
  00000	55		 push	 ebp
  00001	8b ec		 mov	 ebp, esp
  00003	8b d1		 mov	 edx, ecx
  00005	33 c9		 xor	 ecx, ecx
  00007	56		 push	 esi
  00008	8b 75 08	 mov	 esi, DWORD PTR ___that$[ebp]
  0000b	8b 46 04	 mov	 eax, DWORD PTR [esi+4]
  0000e	89 42 04	 mov	 DWORD PTR [edx+4], eax
  00011	8b 46 08	 mov	 eax, DWORD PTR [esi+8]
  00014	89 42 08	 mov	 DWORD PTR [edx+8], eax
  00017	8b 46 0c	 mov	 eax, DWORD PTR [esi+12]
  0001a	89 42 0c	 mov	 DWORD PTR [edx+12], eax
  0001d	8b 46 10	 mov	 eax, DWORD PTR [esi+16]
  00020	89 42 10	 mov	 DWORD PTR [edx+16], eax
  00023	8b 46 14	 mov	 eax, DWORD PTR [esi+20]
  00026	89 42 14	 mov	 DWORD PTR [edx+20], eax
  00029	8b 46 18	 mov	 eax, DWORD PTR [esi+24]
  0002c	89 42 18	 mov	 DWORD PTR [edx+24], eax
  0002f	8b 46 1c	 mov	 eax, DWORD PTR [esi+28]
  00032	89 42 1c	 mov	 DWORD PTR [edx+28], eax
$LL4@operator:
  00035	8a 44 0e 20	 mov	 al, BYTE PTR [esi+ecx+32]
  00039	88 44 0a 20	 mov	 BYTE PTR [edx+ecx+32], al
  0003d	41		 inc	 ecx
  0003e	81 f9 d0 22 00
	00		 cmp	 ecx, 8912		; 000022d0H
  00044	72 ef		 jb	 SHORT $LL4@operator
  00046	8b 86 f0 22 00
	00		 mov	 eax, DWORD PTR [esi+8944]
  0004c	89 82 f0 22 00
	00		 mov	 DWORD PTR [edx+8944], eax
  00052	33 c0		 xor	 eax, eax
  00054	eb 0a 8d a4 24
	00 00 00 00 8d
	49 00		 npad	 12
$LL7@operator:
  00060	8a 8c 06 f4 22
	00 00		 mov	 cl, BYTE PTR [esi+eax+8948]
  00067	88 8c 02 f4 22
	00 00		 mov	 BYTE PTR [edx+eax+8948], cl
  0006e	40		 inc	 eax
  0006f	3d d0 22 00 00	 cmp	 eax, 8912		; 000022d0H
  00074	72 ea		 jb	 SHORT $LL7@operator
  00076	8b 86 c4 45 00
	00		 mov	 eax, DWORD PTR [esi+17860]
  0007c	89 82 c4 45 00
	00		 mov	 DWORD PTR [edx+17860], eax
  00082	8b 86 c8 45 00
	00		 mov	 eax, DWORD PTR [esi+17864]
  00088	89 82 c8 45 00
	00		 mov	 DWORD PTR [edx+17864], eax
  0008e	8b 86 cc 45 00
	00		 mov	 eax, DWORD PTR [esi+17868]
  00094	89 82 cc 45 00
	00		 mov	 DWORD PTR [edx+17868], eax
  0009a	8b 86 d0 45 00
	00		 mov	 eax, DWORD PTR [esi+17872]
  000a0	89 82 d0 45 00
	00		 mov	 DWORD PTR [edx+17872], eax
  000a6	8b 86 d4 45 00
	00		 mov	 eax, DWORD PTR [esi+17876]
  000ac	89 82 d4 45 00
	00		 mov	 DWORD PTR [edx+17876], eax
  000b2	8b 86 d8 45 00
	00		 mov	 eax, DWORD PTR [esi+17880]
  000b8	89 82 d8 45 00
	00		 mov	 DWORD PTR [edx+17880], eax
  000be	8b c2		 mov	 eax, edx
  000c0	5e		 pop	 esi
  000c1	5d		 pop	 ebp
  000c2	c2 04 00	 ret	 4
??4i3NetworkTCPSocket@@QAEAAV0@ABV0@@Z ENDP		; i3NetworkTCPSocket::operator=
_TEXT	ENDS
; Function compile flags: /Ogtp
;	COMDAT ??0i3NetworkTCPSocket@@QAE@ABV0@@Z
_TEXT	SEGMENT
___that$ = 8						; size = 4
??0i3NetworkTCPSocket@@QAE@ABV0@@Z PROC			; i3NetworkTCPSocket::i3NetworkTCPSocket, COMDAT
; _this$ = ecx
  00000	55		 push	 ebp
  00001	8b ec		 mov	 ebp, esp
  00003	56		 push	 esi
  00004	8b 75 08	 mov	 esi, DWORD PTR ___that$[ebp]
  00007	57		 push	 edi
  00008	8b f9		 mov	 edi, ecx
  0000a	68 d0 22 00 00	 push	 8912			; 000022d0H
  0000f	c7 07 00 00 00
	00		 mov	 DWORD PTR [edi], OFFSET ??_7i3ElementBase@@6B@
  00015	8b 46 04	 mov	 eax, DWORD PTR [esi+4]
  00018	89 47 04	 mov	 DWORD PTR [edi+4], eax
  0001b	8b 46 08	 mov	 eax, DWORD PTR [esi+8]
  0001e	89 47 08	 mov	 DWORD PTR [edi+8], eax
  00021	8b 46 0c	 mov	 eax, DWORD PTR [esi+12]
  00024	89 47 0c	 mov	 DWORD PTR [edi+12], eax
  00027	c7 07 00 00 00
	00		 mov	 DWORD PTR [edi], OFFSET ??_7i3NetworkTCPSocket@@6B@
  0002d	8b 46 10	 mov	 eax, DWORD PTR [esi+16]
  00030	89 47 10	 mov	 DWORD PTR [edi+16], eax
  00033	8b 46 14	 mov	 eax, DWORD PTR [esi+20]
  00036	89 47 14	 mov	 DWORD PTR [edi+20], eax
  00039	8b 46 18	 mov	 eax, DWORD PTR [esi+24]
  0003c	89 47 18	 mov	 DWORD PTR [edi+24], eax
  0003f	8b 46 1c	 mov	 eax, DWORD PTR [esi+28]
  00042	89 47 1c	 mov	 DWORD PTR [edi+28], eax
  00045	8d 46 20	 lea	 eax, DWORD PTR [esi+32]
  00048	50		 push	 eax
  00049	8d 47 20	 lea	 eax, DWORD PTR [edi+32]
  0004c	50		 push	 eax
  0004d	e8 00 00 00 00	 call	 _memcpy
  00052	8b 86 f0 22 00
	00		 mov	 eax, DWORD PTR [esi+8944]
  00058	89 87 f0 22 00
	00		 mov	 DWORD PTR [edi+8944], eax
  0005e	8d 86 f4 22 00
	00		 lea	 eax, DWORD PTR [esi+8948]
  00064	68 d0 22 00 00	 push	 8912			; 000022d0H
  00069	50		 push	 eax
  0006a	8d 87 f4 22 00
	00		 lea	 eax, DWORD PTR [edi+8948]
  00070	50		 push	 eax
  00071	e8 00 00 00 00	 call	 _memcpy
  00076	8b 86 c4 45 00
	00		 mov	 eax, DWORD PTR [esi+17860]
  0007c	83 c4 18	 add	 esp, 24			; 00000018H
  0007f	89 87 c4 45 00
	00		 mov	 DWORD PTR [edi+17860], eax
  00085	8b 86 c8 45 00
	00		 mov	 eax, DWORD PTR [esi+17864]
  0008b	89 87 c8 45 00
	00		 mov	 DWORD PTR [edi+17864], eax
  00091	8b 86 cc 45 00
	00		 mov	 eax, DWORD PTR [esi+17868]
  00097	89 87 cc 45 00
	00		 mov	 DWORD PTR [edi+17868], eax
  0009d	8b 86 d0 45 00
	00		 mov	 eax, DWORD PTR [esi+17872]
  000a3	89 87 d0 45 00
	00		 mov	 DWORD PTR [edi+17872], eax
  000a9	8b 86 d4 45 00
	00		 mov	 eax, DWORD PTR [esi+17876]
  000af	89 87 d4 45 00
	00		 mov	 DWORD PTR [edi+17876], eax
  000b5	8b 86 d8 45 00
	00		 mov	 eax, DWORD PTR [esi+17880]
  000bb	89 87 d8 45 00
	00		 mov	 DWORD PTR [edi+17880], eax
  000c1	8b c7		 mov	 eax, edi
  000c3	5f		 pop	 edi
  000c4	5e		 pop	 esi
  000c5	5d		 pop	 ebp
  000c6	c2 04 00	 ret	 4
??0i3NetworkTCPSocket@@QAE@ABV0@@Z ENDP			; i3NetworkTCPSocket::i3NetworkTCPSocket
_TEXT	ENDS
; Function compile flags: /Ogtp
; File E:\Proyectos\JuegosOnlineproyectos\PB\pbblow\Piercing Blow Remake\i3Server\src\i3Base\i3NetworkTCPSocket.cpp
; File E:\Proyectos\JuegosOnlineproyectos\PB\pbblow\Piercing Blow Remake\i3Server\include\i3Base\i3Memory.h
; File E:\Proyectos\JuegosOnlineproyectos\PB\pbblow\Piercing Blow Remake\i3Server\src\i3Base\i3NetworkTCPSocket.cpp
; File E:\Proyectos\JuegosOnlineproyectos\PB\pbblow\Piercing Blow Remake\i3Server\include\i3Base\i3Memory.h
; File E:\Proyectos\JuegosOnlineproyectos\PB\pbblow\Piercing Blow Remake\i3Server\src\i3Base\i3NetworkTCPSocket.cpp
;	COMDAT ?GetName@i3NetworkTCPSocket@@QAEXPAUsockaddr_in@@@Z
_TEXT	SEGMENT
_len$ = -24						; size = 4
_addr$ = -20						; size = 16
__$ArrayPad$ = -4					; size = 4
_plocaladdr$ = 8					; size = 4
?GetName@i3NetworkTCPSocket@@QAEXPAUsockaddr_in@@@Z PROC ; i3NetworkTCPSocket::GetName, COMDAT
; _this$ = ecx

; 194  : {

  00000	55		 push	 ebp
  00001	8b ec		 mov	 ebp, esp
  00003	83 ec 18	 sub	 esp, 24			; 00000018H
  00006	a1 00 00 00 00	 mov	 eax, DWORD PTR ___security_cookie
  0000b	33 c5		 xor	 eax, ebp
  0000d	89 45 fc	 mov	 DWORD PTR __$ArrayPad$[ebp], eax
  00010	56		 push	 esi
  00011	57		 push	 edi
  00012	8b 7d 08	 mov	 edi, DWORD PTR _plocaladdr$[ebp]

; 195  : 	sockaddr	addr;
; 196  : 	INT32	len = sizeof( sockaddr );
; 197  : 
; 198  : 	::getsockname( m_Socket, &addr, &len );

  00015	8d 45 e8	 lea	 eax, DWORD PTR _len$[ebp]
  00018	50		 push	 eax
  00019	8b f1		 mov	 esi, ecx
  0001b	c7 45 e8 10 00
	00 00		 mov	 DWORD PTR _len$[ebp], 16 ; 00000010H
  00022	8d 45 ec	 lea	 eax, DWORD PTR _addr$[ebp]
  00025	50		 push	 eax
  00026	ff 76 10	 push	 DWORD PTR [esi+16]
  00029	ff 15 00 00 00
	00		 call	 DWORD PTR __imp__getsockname@12
; File E:\Proyectos\JuegosOnlineproyectos\PB\pbblow\Piercing Blow Remake\i3Server\include\i3Base\i3Memory.h

; 134  : 			::CopyMemory( pDest, pSrc, sz);

  0002f	8b 45 ec	 mov	 eax, DWORD PTR _addr$[ebp]
  00032	89 86 cc 45 00
	00		 mov	 DWORD PTR [esi+17868], eax
  00038	8b 45 f0	 mov	 eax, DWORD PTR _addr$[ebp+4]
  0003b	89 86 d0 45 00
	00		 mov	 DWORD PTR [esi+17872], eax
  00041	8b 45 f4	 mov	 eax, DWORD PTR _addr$[ebp+8]
  00044	89 86 d4 45 00
	00		 mov	 DWORD PTR [esi+17876], eax
  0004a	8b 45 f8	 mov	 eax, DWORD PTR _addr$[ebp+12]
  0004d	89 86 d8 45 00
	00		 mov	 DWORD PTR [esi+17880], eax
; File E:\Proyectos\JuegosOnlineproyectos\PB\pbblow\Piercing Blow Remake\i3Server\src\i3Base\i3NetworkTCPSocket.cpp

; 202  : 	if( plocaladdr != NULL )

  00053	85 ff		 test	 edi, edi
  00055	74 23		 je	 SHORT $LN2@GetName
; File E:\Proyectos\JuegosOnlineproyectos\PB\pbblow\Piercing Blow Remake\i3Server\include\i3Base\i3Memory.h

; 134  : 			::CopyMemory( pDest, pSrc, sz);

  00057	8b 86 cc 45 00
	00		 mov	 eax, DWORD PTR [esi+17868]
  0005d	89 07		 mov	 DWORD PTR [edi], eax
  0005f	8b 86 d0 45 00
	00		 mov	 eax, DWORD PTR [esi+17872]
  00065	89 47 04	 mov	 DWORD PTR [edi+4], eax
  00068	8b 86 d4 45 00
	00		 mov	 eax, DWORD PTR [esi+17876]
  0006e	89 47 08	 mov	 DWORD PTR [edi+8], eax
  00071	8b 86 d8 45 00
	00		 mov	 eax, DWORD PTR [esi+17880]
  00077	89 47 0c	 mov	 DWORD PTR [edi+12], eax
$LN2@GetName:
; File E:\Proyectos\JuegosOnlineproyectos\PB\pbblow\Piercing Blow Remake\i3Server\src\i3Base\i3NetworkTCPSocket.cpp

; 206  : }

  0007a	8b 4d fc	 mov	 ecx, DWORD PTR __$ArrayPad$[ebp]
  0007d	5f		 pop	 edi
  0007e	33 cd		 xor	 ecx, ebp
  00080	5e		 pop	 esi
  00081	e8 00 00 00 00	 call	 @__security_check_cookie@4
  00086	8b e5		 mov	 esp, ebp
  00088	5d		 pop	 ebp
  00089	c2 04 00	 ret	 4
?GetName@i3NetworkTCPSocket@@QAEXPAUsockaddr_in@@@Z ENDP ; i3NetworkTCPSocket::GetName
_TEXT	ENDS
; Function compile flags: /Ogtp
; File E:\Proyectos\JuegosOnlineproyectos\PB\pbblow\Piercing Blow Remake\i3Server\src\i3Base\i3NetworkTCPSocket.cpp
; File E:\Proyectos\JuegosOnlineproyectos\PB\pbblow\Piercing Blow Remake\i3Server\include\i3Base\i3NetworkPacket.h
; File E:\Proyectos\JuegosOnlineproyectos\PB\pbblow\Piercing Blow Remake\i3Server\src\i3Base\i3NetworkTCPSocket.cpp
;	COMDAT ?SendMessageA@i3NetworkTCPSocket@@UAEHPAVi3NetworkPacket@@@Z
_TEXT	SEGMENT
_pPacket$ = 8						; size = 4
?SendMessageA@i3NetworkTCPSocket@@UAEHPAVi3NetworkPacket@@@Z PROC ; i3NetworkTCPSocket::SendMessageA, COMDAT
; _this$ = ecx

; 175  : {

  00000	55		 push	 ebp
  00001	8b ec		 mov	 ebp, esp
  00003	56		 push	 esi
  00004	57		 push	 edi
  00005	8b f9		 mov	 edi, ecx
; File E:\Proyectos\JuegosOnlineproyectos\PB\pbblow\Piercing Blow Remake\i3Server\include\i3Base\i3NetworkPacket.h

; 50   : 	UINT16		GetDataFieldSize(void)			{ return (*m_PacketHeader.pDataSize) & 0x7FFF ; }

  00007	8b 4d 08	 mov	 ecx, DWORD PTR _pPacket$[ebp]
  0000a	8b 41 10	 mov	 eax, DWORD PTR [ecx+16]
  0000d	0f b7 30	 movzx	 esi, WORD PTR [eax]
  00010	81 e6 ff 7f 00
	00		 and	 esi, 32767		; 00007fffH

; 47   : 	INT32		GetPacketSize(void)				{ return ( GetDataFieldSize() + PACKETHEADERSIZE ); }	

  00016	83 c6 04	 add	 esi, 4
; File E:\Proyectos\JuegosOnlineproyectos\PB\pbblow\Piercing Blow Remake\i3Server\src\i3Base\i3NetworkTCPSocket.cpp

; 178  : 	if (m_nSendDataLen != 0 || nBuflen > PACKETBUFFERSIZE)

  00019	83 bf c4 45 00
	00 00		 cmp	 DWORD PTR [edi+17860], 0
  00020	75 3f		 jne	 SHORT $LN3@SendMessag
  00022	81 fe d0 22 00
	00		 cmp	 esi, 8912		; 000022d0H
  00028	77 37		 ja	 SHORT $LN3@SendMessag

; 182  : 	}
; 183  : 	
; 184  : 	memcpy( m_SendBuffer, pPacket->GetPacketBuffer(), nBuflen );

  0002a	8d 41 18	 lea	 eax, DWORD PTR [ecx+24]
  0002d	56		 push	 esi
  0002e	50		 push	 eax
  0002f	8d 87 f4 22 00
	00		 lea	 eax, DWORD PTR [edi+8948]
  00035	50		 push	 eax
  00036	e8 00 00 00 00	 call	 _memcpy

; 185  : 	m_nSendDataLen = nBuflen;
; 186  : 	m_nBytesSent = 0;
; 187  : 	if( !OnSend() )

  0003b	8b 17		 mov	 edx, DWORD PTR [edi]
  0003d	83 c4 0c	 add	 esp, 12			; 0000000cH
  00040	8b cf		 mov	 ecx, edi
  00042	89 b7 c4 45 00
	00		 mov	 DWORD PTR [edi+17860], esi
  00048	c7 87 c8 45 00
	00 00 00 00 00	 mov	 DWORD PTR [edi+17864], 0
  00052	ff 52 18	 call	 DWORD PTR [edx+24]
  00055	85 c0		 test	 eax, eax
  00057	74 08		 je	 SHORT $LN3@SendMessag

; 188  : 		return -1;
; 189  : 	
; 190  : 	return nBuflen; 

  00059	5f		 pop	 edi
  0005a	8b c6		 mov	 eax, esi

; 191  : }

  0005c	5e		 pop	 esi
  0005d	5d		 pop	 ebp
  0005e	c2 04 00	 ret	 4
$LN3@SendMessag:
  00061	5f		 pop	 edi

; 179  : 	{	
; 180  : 		I3TRACE( "i3NetworkTCPSocket::SendMessage() can't accept more data\n" );
; 181  : 		return -1;

  00062	83 c8 ff	 or	 eax, -1

; 191  : }

  00065	5e		 pop	 esi
  00066	5d		 pop	 ebp
  00067	c2 04 00	 ret	 4
?SendMessageA@i3NetworkTCPSocket@@UAEHPAVi3NetworkPacket@@@Z ENDP ; i3NetworkTCPSocket::SendMessageA
_TEXT	ENDS
; Function compile flags: /Ogtp
; File E:\Proyectos\JuegosOnlineproyectos\PB\pbblow\Piercing Blow Remake\i3Server\src\i3Base\i3NetworkTCPSocket.cpp
; File C:\Program Files (x86)\Windows Kits\10\Include\10.0.26100.0\um\winnt.h
; File E:\Proyectos\JuegosOnlineproyectos\PB\pbblow\Piercing Blow Remake\i3Server\include\i3Base\i3Memory.h
; File C:\Program Files (x86)\Windows Kits\10\Include\10.0.26100.0\um\winnt.h
; File E:\Proyectos\JuegosOnlineproyectos\PB\pbblow\Piercing Blow Remake\i3Server\src\i3Base\i3NetworkTCPSocket.cpp
;	COMDAT ?SelectEvent@i3NetworkTCPSocket@@QAEXXZ
_TEXT	SEGMENT
_nEvent$ = -48						; size = 44
__$ArrayPad$ = -4					; size = 4
?SelectEvent@i3NetworkTCPSocket@@QAEXXZ PROC		; i3NetworkTCPSocket::SelectEvent, COMDAT
; _this$ = ecx

; 78   : {

  00000	55		 push	 ebp
  00001	8b ec		 mov	 ebp, esp
  00003	83 ec 30	 sub	 esp, 48			; 00000030H
  00006	a1 00 00 00 00	 mov	 eax, DWORD PTR ___security_cookie
  0000b	33 c5		 xor	 eax, ebp
  0000d	89 45 fc	 mov	 DWORD PTR __$ArrayPad$[ebp], eax
  00010	56		 push	 esi
  00011	8b f1		 mov	 esi, ecx
; File C:\Program Files (x86)\Windows Kits\10\Include\10.0.26100.0\um\winnt.h

; 23413:     volatile char *vptr = (volatile char *)ptr;

  00013	8d 45 d0	 lea	 eax, DWORD PTR _nEvent$[ebp]
; File E:\Proyectos\JuegosOnlineproyectos\PB\pbblow\Piercing Blow Remake\i3Server\include\i3Base\i3Memory.h

; 144  : 			::SecureZeroMemory( pDest, sz);

  00016	b9 2c 00 00 00	 mov	 ecx, 44			; 0000002cH
  0001b	eb 03 8d 49 00	 npad	 5
$LL9@SelectEven:
; File C:\Program Files (x86)\Windows Kits\10\Include\10.0.26100.0\um\winnt.h

; 23429:         *vptr = 0;

  00020	c6 00 00	 mov	 BYTE PTR [eax], 0

; 23430: 
; 23431: #endif
; 23432: 
; 23433:         vptr++;

  00023	8d 40 01	 lea	 eax, DWORD PTR [eax+1]

; 23434:         cnt--;

  00026	83 e9 01	 sub	 ecx, 1
  00029	75 f5		 jne	 SHORT $LL9@SelectEven
; File E:\Proyectos\JuegosOnlineproyectos\PB\pbblow\Piercing Blow Remake\i3Server\src\i3Base\i3NetworkTCPSocket.cpp

; 81   : 	::WSAEventSelect( m_Socket, m_hEvent, FD_WRITE | FD_READ | FD_CLOSE ); 

  0002b	6a 23		 push	 35			; 00000023H
  0002d	ff 76 14	 push	 DWORD PTR [esi+20]
  00030	ff 76 10	 push	 DWORD PTR [esi+16]
  00033	ff 15 00 00 00
	00		 call	 DWORD PTR __imp__WSAEventSelect@12

; 82   : 	::WSAEnumNetworkEvents( m_Socket, m_hEvent, &nEvent ); 

  00039	8d 45 d0	 lea	 eax, DWORD PTR _nEvent$[ebp]
  0003c	50		 push	 eax
  0003d	ff 76 14	 push	 DWORD PTR [esi+20]
  00040	ff 76 10	 push	 DWORD PTR [esi+16]
  00043	ff 15 00 00 00
	00		 call	 DWORD PTR __imp__WSAEnumNetworkEvents@12

; 83   : 
; 84   : 	if( (nEvent.lNetworkEvents & FD_READ )	== FD_READ)		OnReceive();

  00049	8b 45 d0	 mov	 eax, DWORD PTR _nEvent$[ebp]
  0004c	a8 01		 test	 al, 1
  0004e	74 0a		 je	 SHORT $LN2@SelectEven
  00050	8b 06		 mov	 eax, DWORD PTR [esi]
  00052	8b ce		 mov	 ecx, esi
  00054	ff 50 14	 call	 DWORD PTR [eax+20]
  00057	8b 45 d0	 mov	 eax, DWORD PTR _nEvent$[ebp]
$LN2@SelectEven:

; 85   : 	if( (nEvent.lNetworkEvents & FD_WRITE ) == FD_WRITE)	OnSend();

  0005a	a8 02		 test	 al, 2
  0005c	74 0a		 je	 SHORT $LN3@SelectEven
  0005e	8b 06		 mov	 eax, DWORD PTR [esi]
  00060	8b ce		 mov	 ecx, esi
  00062	ff 50 18	 call	 DWORD PTR [eax+24]
  00065	8b 45 d0	 mov	 eax, DWORD PTR _nEvent$[ebp]
$LN3@SelectEven:

; 86   : 	if( (nEvent.lNetworkEvents & FD_CLOSE ) == FD_CLOSE)	OnDestroy();

  00068	a8 20		 test	 al, 32			; 00000020H
  0006a	74 07		 je	 SHORT $LN4@SelectEven
  0006c	8b 06		 mov	 eax, DWORD PTR [esi]
  0006e	8b ce		 mov	 ecx, esi
  00070	ff 50 10	 call	 DWORD PTR [eax+16]
$LN4@SelectEven:

; 87   : 
; 88   : 	return;
; 89   : }

  00073	8b 4d fc	 mov	 ecx, DWORD PTR __$ArrayPad$[ebp]
  00076	33 cd		 xor	 ecx, ebp
  00078	5e		 pop	 esi
  00079	e8 00 00 00 00	 call	 @__security_check_cookie@4
  0007e	8b e5		 mov	 esp, ebp
  00080	5d		 pop	 ebp
  00081	c3		 ret	 0
?SelectEvent@i3NetworkTCPSocket@@QAEXXZ ENDP		; i3NetworkTCPSocket::SelectEvent
_TEXT	ENDS
; Function compile flags: /Ogtp
; File E:\Proyectos\JuegosOnlineproyectos\PB\pbblow\Piercing Blow Remake\i3Server\src\i3Base\i3NetworkTCPSocket.cpp
;	COMDAT ?PacketParsing@i3NetworkTCPSocket@@UAEXPAVi3NetworkPacket@@@Z
_TEXT	SEGMENT
_pPacket$ = 8						; size = 4
?PacketParsing@i3NetworkTCPSocket@@UAEXPAVi3NetworkPacket@@@Z PROC ; i3NetworkTCPSocket::PacketParsing, COMDAT
; _this$ = ecx

; 171  : 	return; 
; 172  : }

  00000	c2 04 00	 ret	 4
?PacketParsing@i3NetworkTCPSocket@@UAEXPAVi3NetworkPacket@@@Z ENDP ; i3NetworkTCPSocket::PacketParsing
_TEXT	ENDS
; Function compile flags: /Ogtp
; File E:\Proyectos\JuegosOnlineproyectos\PB\pbblow\Piercing Blow Remake\i3Server\src\i3Base\i3NetworkTCPSocket.cpp
; File E:\Proyectos\JuegosOnlineproyectos\PB\pbblow\Piercing Blow Remake\i3Server\include\i3Base\i3Memory.h
; File C:\Program Files (x86)\Windows Kits\10\Include\10.0.26100.0\um\winnt.h
; File E:\Proyectos\JuegosOnlineproyectos\PB\pbblow\Piercing Blow Remake\i3Server\src\i3Base\i3NetworkTCPSocket.cpp
;	COMDAT ?OnSend@i3NetworkTCPSocket@@UAEHXZ
_TEXT	SEGMENT
_Overlapped$ = -24					; size = 20
_nBytes$1 = -4						; size = 4
?OnSend@i3NetworkTCPSocket@@UAEHXZ PROC			; i3NetworkTCPSocket::OnSend, COMDAT
; _this$ = ecx

; 92   : {

  00000	55		 push	 ebp
  00001	8b ec		 mov	 ebp, esp
  00003	83 ec 18	 sub	 esp, 24			; 00000018H
  00006	56		 push	 esi
  00007	8b f1		 mov	 esi, ecx
  00009	57		 push	 edi

; 93   : 	OVERLAPPED Overlapped;
; 94   : 
; 95   : 	BOOL	Rv = TRUE;

  0000a	bf 01 00 00 00	 mov	 edi, 1

; 96   : 
; 97   : 	if( m_nBytesSent < m_nSendDataLen )

  0000f	8b 86 c8 45 00
	00		 mov	 eax, DWORD PTR [esi+17864]
  00015	3b 86 c4 45 00
	00		 cmp	 eax, DWORD PTR [esi+17860]
  0001b	7d 78		 jge	 SHORT $LN4@OnSend
; File E:\Proyectos\JuegosOnlineproyectos\PB\pbblow\Piercing Blow Remake\i3Server\include\i3Base\i3Memory.h

; 144  : 			::SecureZeroMemory( pDest, sz);

  0001d	b9 14 00 00 00	 mov	 ecx, 20			; 00000014H
; File C:\Program Files (x86)\Windows Kits\10\Include\10.0.26100.0\um\winnt.h

; 23413:     volatile char *vptr = (volatile char *)ptr;

  00022	8d 45 e8	 lea	 eax, DWORD PTR _Overlapped$[ebp]
$LL11@OnSend:

; 23414: 
; 23415: #if defined(_M_AMD64) && !defined(_M_ARM64EC)
; 23416: 
; 23417:     __stosb((PBYTE )((DWORD64)vptr), 0, cnt);
; 23418: 
; 23419: #else
; 23420: 
; 23421:     while (cnt) {
; 23422: 
; 23423: #if !defined(_M_CEE) && (defined(_M_ARM) || defined(_M_ARM64) || defined(_M_ARM64EC))
; 23424: 
; 23425:         __iso_volatile_store8(vptr, 0);
; 23426: 
; 23427: #else
; 23428: 
; 23429:         *vptr = 0;

  00025	c6 00 00	 mov	 BYTE PTR [eax], 0

; 23430: 
; 23431: #endif
; 23432: 
; 23433:         vptr++;

  00028	8d 40 01	 lea	 eax, DWORD PTR [eax+1]

; 23434:         cnt--;

  0002b	2b cf		 sub	 ecx, edi
  0002d	75 f6		 jne	 SHORT $LL11@OnSend
; File E:\Proyectos\JuegosOnlineproyectos\PB\pbblow\Piercing Blow Remake\i3Server\src\i3Base\i3NetworkTCPSocket.cpp

; 102  : 		Rv = ::WriteFile( (HANDLE) m_Socket, m_SendBuffer + m_nBytesSent, m_nSendDataLen - m_nBytesSent, &nBytes, &Overlapped );

  0002f	8b 8e c8 45 00
	00		 mov	 ecx, DWORD PTR [esi+17864]
  00035	8d 45 e8	 lea	 eax, DWORD PTR _Overlapped$[ebp]
  00038	50		 push	 eax
  00039	8d 45 fc	 lea	 eax, DWORD PTR _nBytes$1[ebp]
  0003c	50		 push	 eax
  0003d	8b 86 c4 45 00
	00		 mov	 eax, DWORD PTR [esi+17860]
  00043	2b c1		 sub	 eax, ecx
  00045	50		 push	 eax
  00046	8d 81 f4 22 00
	00		 lea	 eax, DWORD PTR [ecx+8948]
  0004c	03 c6		 add	 eax, esi
  0004e	50		 push	 eax
  0004f	ff 76 10	 push	 DWORD PTR [esi+16]
  00052	ff 15 00 00 00
	00		 call	 DWORD PTR __imp__WriteFile@20
  00058	8b f8		 mov	 edi, eax

; 103  : 		if( !Rv )

  0005a	85 ff		 test	 edi, edi
  0005c	75 2e		 jne	 SHORT $LN3@OnSend

; 104  : 		{
; 105  : 			if( !(::GetLastError() == ERROR_IO_PENDING) ) 

  0005e	ff 15 00 00 00
	00		 call	 DWORD PTR __imp__GetLastError@0
  00064	3d e5 03 00 00	 cmp	 eax, 997		; 000003e5H
  00069	74 2a		 je	 SHORT $LN4@OnSend

; 106  : 			{	
; 107  : 				i3Net::GetError("[i3NetworkClientSocket::OnSend]");

  0006b	68 00 00 00 00	 push	 OFFSET ??_C@_0CA@JIHOOGHA@?$FLi3NetworkClientSocket?3?3OnSend?$FN@
  00070	e8 00 00 00 00	 call	 ?GetError@i3Net@@YAHPAD@Z ; i3Net::GetError
  00075	83 c4 04	 add	 esp, 4

; 108  : 				m_nBytesSent = 0;

  00078	89 be c8 45 00
	00		 mov	 DWORD PTR [esi+17864], edi

; 109  : 				m_nSendDataLen = 0;

  0007e	89 be c4 45 00
	00		 mov	 DWORD PTR [esi+17860], edi

; 110  : 				return Rv;

  00084	33 c0		 xor	 eax, eax
  00086	5f		 pop	 edi

; 121  : }

  00087	5e		 pop	 esi
  00088	8b e5		 mov	 esp, ebp
  0008a	5d		 pop	 ebp
  0008b	c3		 ret	 0
$LN3@OnSend:

; 111  : 			}
; 112  : 		}
; 113  : 		else
; 114  : 			m_nBytesSent += nBytes;

  0008c	8b 45 fc	 mov	 eax, DWORD PTR _nBytes$1[ebp]
  0008f	01 86 c8 45 00
	00		 add	 DWORD PTR [esi+17864], eax
$LN4@OnSend:

; 115  : 	}
; 116  : 
; 117  : 	if (m_nBytesSent == m_nSendDataLen)

  00095	8b 86 c8 45 00
	00		 mov	 eax, DWORD PTR [esi+17864]
  0009b	3b 86 c4 45 00
	00		 cmp	 eax, DWORD PTR [esi+17860]
  000a1	75 14		 jne	 SHORT $LN6@OnSend

; 118  : 		m_nBytesSent = m_nSendDataLen = 0;

  000a3	c7 86 c4 45 00
	00 00 00 00 00	 mov	 DWORD PTR [esi+17860], 0
  000ad	c7 86 c8 45 00
	00 00 00 00 00	 mov	 DWORD PTR [esi+17864], 0
$LN6@OnSend:

; 119  : 
; 120  : 	return Rv;

  000b7	8b c7		 mov	 eax, edi
  000b9	5f		 pop	 edi

; 121  : }

  000ba	5e		 pop	 esi
  000bb	8b e5		 mov	 esp, ebp
  000bd	5d		 pop	 ebp
  000be	c3		 ret	 0
?OnSend@i3NetworkTCPSocket@@UAEHXZ ENDP			; i3NetworkTCPSocket::OnSend
_TEXT	ENDS
; Function compile flags: /Ogtp
; File E:\Proyectos\JuegosOnlineproyectos\PB\pbblow\Piercing Blow Remake\i3Server\src\i3Base\i3NetworkTCPSocket.cpp
; File C:\Program Files (x86)\Windows Kits\10\Include\10.0.26100.0\um\winnt.h
; File E:\Proyectos\JuegosOnlineproyectos\PB\pbblow\Piercing Blow Remake\i3Server\include\i3Base\i3Memory.h
; File C:\Program Files (x86)\Windows Kits\10\Include\10.0.26100.0\um\winnt.h
; File E:\Proyectos\JuegosOnlineproyectos\PB\pbblow\Piercing Blow Remake\i3Server\src\i3Base\i3NetworkTCPSocket.cpp
; File E:\Proyectos\JuegosOnlineproyectos\PB\pbblow\Piercing Blow Remake\i3Server\include\i3Base\i3NetworkPacket.h
; File E:\Proyectos\JuegosOnlineproyectos\PB\pbblow\Piercing Blow Remake\i3Server\src\i3Base\i3NetworkTCPSocket.cpp
; File E:\Proyectos\JuegosOnlineproyectos\PB\pbblow\Piercing Blow Remake\i3Server\include\i3Base\i3NetworkPacket.h
; File E:\Proyectos\JuegosOnlineproyectos\PB\pbblow\Piercing Blow Remake\i3Server\src\i3Base\i3NetworkTCPSocket.cpp
;	COMDAT ?OnReceive@i3NetworkTCPSocket@@UAEXXZ
_TEXT	SEGMENT
_Overlapped$ = -8996					; size = 20
_nBytes$ = -8976					; size = 4
_RecvPacket$ = -8972					; size = 8956
__$ArrayPad$ = -16					; size = 4
__$EHRec$ = -12						; size = 12
?OnReceive@i3NetworkTCPSocket@@UAEXXZ PROC		; i3NetworkTCPSocket::OnReceive, COMDAT
; _this$ = ecx

; 125  : {

  00000	55		 push	 ebp
  00001	8b ec		 mov	 ebp, esp
  00003	6a ff		 push	 -1
  00005	68 00 00 00 00	 push	 __ehhandler$?OnReceive@i3NetworkTCPSocket@@UAEXXZ
  0000a	64 a1 00 00 00
	00		 mov	 eax, DWORD PTR fs:0
  00010	50		 push	 eax
  00011	b8 18 23 00 00	 mov	 eax, 8984		; 00002318H
  00016	e8 00 00 00 00	 call	 __chkstk
  0001b	a1 00 00 00 00	 mov	 eax, DWORD PTR ___security_cookie
  00020	33 c5		 xor	 eax, ebp
  00022	89 45 f0	 mov	 DWORD PTR __$ArrayPad$[ebp], eax
  00025	53		 push	 ebx
  00026	56		 push	 esi
  00027	57		 push	 edi
  00028	50		 push	 eax
  00029	8d 45 f4	 lea	 eax, DWORD PTR __$EHRec$[ebp]
  0002c	64 a3 00 00 00
	00		 mov	 DWORD PTR fs:0, eax
  00032	8b f1		 mov	 esi, ecx

; 126  : 	i3NetworkPacket RecvPacket; 

  00034	8d 8d f4 dc ff
	ff		 lea	 ecx, DWORD PTR _RecvPacket$[ebp]
  0003a	e8 00 00 00 00	 call	 ??0i3NetworkPacket@@QAE@XZ ; i3NetworkPacket::i3NetworkPacket
  0003f	c7 45 fc 00 00
	00 00		 mov	 DWORD PTR __$EHRec$[ebp+8], 0
; File C:\Program Files (x86)\Windows Kits\10\Include\10.0.26100.0\um\winnt.h

; 23413:     volatile char *vptr = (volatile char *)ptr;

  00046	8d 85 dc dc ff
	ff		 lea	 eax, DWORD PTR _Overlapped$[ebp]
; File E:\Proyectos\JuegosOnlineproyectos\PB\pbblow\Piercing Blow Remake\i3Server\include\i3Base\i3Memory.h

; 144  : 			::SecureZeroMemory( pDest, sz);

  0004c	b9 14 00 00 00	 mov	 ecx, 20			; 00000014H
$LL16@OnReceive:
; File C:\Program Files (x86)\Windows Kits\10\Include\10.0.26100.0\um\winnt.h

; 23429:         *vptr = 0;

  00051	c6 00 00	 mov	 BYTE PTR [eax], 0

; 23430: 
; 23431: #endif
; 23432: 
; 23433:         vptr++;

  00054	8d 40 01	 lea	 eax, DWORD PTR [eax+1]

; 23434:         cnt--;

  00057	83 e9 01	 sub	 ecx, 1
  0005a	75 f5		 jne	 SHORT $LL16@OnReceive
; File E:\Proyectos\JuegosOnlineproyectos\PB\pbblow\Piercing Blow Remake\i3Server\src\i3Base\i3NetworkTCPSocket.cpp

; 131  : 	if( ::ReadFile( (HANDLE)m_Socket, m_ReceiveBuffer, PACKETBUFFERSIZE, &nBytes, &Overlapped ) )

  0005c	8d 85 dc dc ff
	ff		 lea	 eax, DWORD PTR _Overlapped$[ebp]
  00062	50		 push	 eax
  00063	8d 85 f0 dc ff
	ff		 lea	 eax, DWORD PTR _nBytes$[ebp]
  00069	50		 push	 eax
  0006a	68 d0 22 00 00	 push	 8912			; 000022d0H
  0006f	8d 5e 20	 lea	 ebx, DWORD PTR [esi+32]
  00072	53		 push	 ebx
  00073	ff 76 10	 push	 DWORD PTR [esi+16]
  00076	ff 15 00 00 00
	00		 call	 DWORD PTR __imp__ReadFile@20
  0007c	85 c0		 test	 eax, eax
  0007e	74 7d		 je	 SHORT $LN4@OnReceive

; 132  : 	{
; 133  : 		m_ReceivedPacketSize += nBytes; 

  00080	8b 8e f0 22 00
	00		 mov	 ecx, DWORD PTR [esi+8944]
  00086	03 8d f0 dc ff
	ff		 add	 ecx, DWORD PTR _nBytes$[ebp]
  0008c	89 8e f0 22 00
	00		 mov	 DWORD PTR [esi+8944], ecx

; 134  : 
; 135  : 		if(m_ReceivedPacketSize > PACKETBUFFERSIZE) 

  00092	81 f9 d0 22 00
	00		 cmp	 ecx, 8912		; 000022d0H
  00098	7f 7d		 jg	 SHORT $LN9@OnReceive

; 136  : 		{
; 137  : 			I3TRACE("[i3NetworkClientSocket::OnReceive]Error Packet Size %d \n", m_ReceivedPacketSize); 
; 138  : 			return; 
; 139  : 		}
; 140  : 
; 141  : 		INT32 StartPos = 0; 

  0009a	33 ff		 xor	 edi, edi

; 142  : 		while( m_ReceivedPacketSize > 0 )

  0009c	85 c9		 test	 ecx, ecx
  0009e	7e 77		 jle	 SHORT $LN9@OnReceive
$LL2@OnReceive:

; 143  : 		{
; 144  : 			RecvPacket.CopyToBuffer( m_ReceiveBuffer, m_ReceivedPacketSize, StartPos );

  000a0	57		 push	 edi
  000a1	51		 push	 ecx
  000a2	53		 push	 ebx
  000a3	8d 8d f4 dc ff
	ff		 lea	 ecx, DWORD PTR _RecvPacket$[ebp]
  000a9	e8 00 00 00 00	 call	 ?CopyToBuffer@i3NetworkPacket@@QAEXPBDHH@Z ; i3NetworkPacket::CopyToBuffer

; 145  : 
; 146  : 			if( m_pCallbackFunc == NULL )

  000ae	8b 46 1c	 mov	 eax, DWORD PTR [esi+28]
  000b1	8d 8d f4 dc ff
	ff		 lea	 ecx, DWORD PTR _RecvPacket$[ebp]
  000b7	51		 push	 ecx
  000b8	85 c0		 test	 eax, eax
  000ba	75 09		 jne	 SHORT $LN7@OnReceive

; 147  : 			{
; 148  : 				PacketParsing( &RecvPacket );

  000bc	8b 06		 mov	 eax, DWORD PTR [esi]
  000be	8b ce		 mov	 ecx, esi
  000c0	ff 50 1c	 call	 DWORD PTR [eax+28]

; 149  : 			}

  000c3	eb 05		 jmp	 SHORT $LN8@OnReceive
$LN7@OnReceive:

; 150  : 			else
; 151  : 			{
; 152  : 				( *m_pCallbackFunc )( &RecvPacket );

  000c5	ff d0		 call	 eax
  000c7	83 c4 04	 add	 esp, 4
$LN8@OnReceive:
; File E:\Proyectos\JuegosOnlineproyectos\PB\pbblow\Piercing Blow Remake\i3Server\include\i3Base\i3NetworkPacket.h

; 50   : 	UINT16		GetDataFieldSize(void)			{ return (*m_PacketHeader.pDataSize) & 0x7FFF ; }

  000ca	8b 95 04 dd ff
	ff		 mov	 edx, DWORD PTR _RecvPacket$[ebp+16]
  000d0	8b 86 f0 22 00
	00		 mov	 eax, DWORD PTR [esi+8944]
  000d6	0f b7 0a	 movzx	 ecx, WORD PTR [edx]
  000d9	81 e1 ff 7f 00
	00		 and	 ecx, 32767		; 00007fffH
  000df	2b c1		 sub	 eax, ecx
; File E:\Proyectos\JuegosOnlineproyectos\PB\pbblow\Piercing Blow Remake\i3Server\src\i3Base\i3NetworkTCPSocket.cpp

; 155  : 			m_ReceivedPacketSize	-= RecvPacket.GetPacketSize(); 

  000e1	8d 48 fc	 lea	 ecx, DWORD PTR [eax-4]
  000e4	89 8e f0 22 00
	00		 mov	 DWORD PTR [esi+8944], ecx
; File E:\Proyectos\JuegosOnlineproyectos\PB\pbblow\Piercing Blow Remake\i3Server\include\i3Base\i3NetworkPacket.h

; 50   : 	UINT16		GetDataFieldSize(void)			{ return (*m_PacketHeader.pDataSize) & 0x7FFF ; }

  000ea	0f b7 02	 movzx	 eax, WORD PTR [edx]
  000ed	25 ff 7f 00 00	 and	 eax, 32767		; 00007fffH
; File E:\Proyectos\JuegosOnlineproyectos\PB\pbblow\Piercing Blow Remake\i3Server\src\i3Base\i3NetworkTCPSocket.cpp

; 156  : 			StartPos				+= RecvPacket.GetPacketSize();

  000f2	83 c0 04	 add	 eax, 4
  000f5	03 f8		 add	 edi, eax
  000f7	85 c9		 test	 ecx, ecx
  000f9	7f a5		 jg	 SHORT $LL2@OnReceive

; 157  : 		}
; 158  : 	}

  000fb	eb 1a		 jmp	 SHORT $LN9@OnReceive
$LN4@OnReceive:

; 159  : 	else
; 160  : 	{
; 161  : 		if( GetLastError() != ERROR_IO_PENDING )

  000fd	ff 15 00 00 00
	00		 call	 DWORD PTR __imp__GetLastError@0
  00103	3d e5 03 00 00	 cmp	 eax, 997		; 000003e5H
  00108	74 0d		 je	 SHORT $LN9@OnReceive

; 162  : 		{
; 163  : 			i3Net::GetError("[i3NetworkClientSocket::OnReceive]");

  0010a	68 00 00 00 00	 push	 OFFSET ??_C@_0CD@NGEANGL@?$FLi3NetworkClientSocket?3?3OnRecei@
  0010f	e8 00 00 00 00	 call	 ?GetError@i3Net@@YAHPAD@Z ; i3Net::GetError
  00114	83 c4 04	 add	 esp, 4
$LN9@OnReceive:

; 164  : 		} 
; 165  : 	}
; 166  : 	return; 

  00117	8d 8d f4 dc ff
	ff		 lea	 ecx, DWORD PTR _RecvPacket$[ebp]
  0011d	e8 00 00 00 00	 call	 ??1i3NetworkPacket@@UAE@XZ ; i3NetworkPacket::~i3NetworkPacket

; 167  : }

  00122	8b 4d f4	 mov	 ecx, DWORD PTR __$EHRec$[ebp]
  00125	64 89 0d 00 00
	00 00		 mov	 DWORD PTR fs:0, ecx
  0012c	59		 pop	 ecx
  0012d	5f		 pop	 edi
  0012e	5e		 pop	 esi
  0012f	5b		 pop	 ebx
  00130	8b 4d f0	 mov	 ecx, DWORD PTR __$ArrayPad$[ebp]
  00133	33 cd		 xor	 ecx, ebp
  00135	e8 00 00 00 00	 call	 @__security_check_cookie@4
  0013a	8b e5		 mov	 esp, ebp
  0013c	5d		 pop	 ebp
  0013d	c3		 ret	 0
_TEXT	ENDS
;	COMDAT text$x
text$x	SEGMENT
__unwindfunclet$?OnReceive@i3NetworkTCPSocket@@UAEXXZ$0:
  00000	8d 8d f4 dc ff
	ff		 lea	 ecx, DWORD PTR _RecvPacket$[ebp]
  00006	e9 00 00 00 00	 jmp	 ??1i3NetworkPacket@@UAE@XZ ; i3NetworkPacket::~i3NetworkPacket
  0000b	cc		 int	 3
  0000c	cc		 int	 3
  0000d	cc		 int	 3
  0000e	cc		 int	 3
  0000f	cc		 int	 3
__ehhandler$?OnReceive@i3NetworkTCPSocket@@UAEXXZ:
  00010	90		 npad	 1
  00011	90		 npad	 1
  00012	8b 54 24 08	 mov	 edx, DWORD PTR [esp+8]
  00016	8d 42 0c	 lea	 eax, DWORD PTR [edx+12]
  00019	8b 8a d8 dc ff
	ff		 mov	 ecx, DWORD PTR [edx-9000]
  0001f	33 c8		 xor	 ecx, eax
  00021	e8 00 00 00 00	 call	 @__security_check_cookie@4
  00026	8b 4a fc	 mov	 ecx, DWORD PTR [edx-4]
  00029	33 c8		 xor	 ecx, eax
  0002b	e8 00 00 00 00	 call	 @__security_check_cookie@4
  00030	b8 00 00 00 00	 mov	 eax, OFFSET __ehfuncinfo$?OnReceive@i3NetworkTCPSocket@@UAEXXZ
  00035	e9 00 00 00 00	 jmp	 ___CxxFrameHandler3
text$x	ENDS
?OnReceive@i3NetworkTCPSocket@@UAEXXZ ENDP		; i3NetworkTCPSocket::OnReceive
; Function compile flags: /Ogtp
; File E:\Proyectos\JuegosOnlineproyectos\PB\pbblow\Piercing Blow Remake\i3Server\src\i3Base\i3NetworkTCPSocket.cpp
;	COMDAT ?OnDestroy@i3NetworkTCPSocket@@UAEHXZ
_TEXT	SEGMENT
?OnDestroy@i3NetworkTCPSocket@@UAEHXZ PROC		; i3NetworkTCPSocket::OnDestroy, COMDAT
; _this$ = ecx

; 60   : {

  00000	56		 push	 esi
  00001	8b f1		 mov	 esi, ecx

; 61   : 	if(  m_hEvent != INVALID_HANDLE_VALUE )

  00003	8b 46 14	 mov	 eax, DWORD PTR [esi+20]
  00006	83 f8 ff	 cmp	 eax, -1
  00009	74 0e		 je	 SHORT $LN2@OnDestroy

; 62   : 	{
; 63   : 		::WSACloseEvent( m_hEvent );

  0000b	50		 push	 eax
  0000c	ff 15 00 00 00
	00		 call	 DWORD PTR __imp__WSACloseEvent@4

; 64   : 		m_hEvent = INVALID_HANDLE_VALUE;

  00012	c7 46 14 ff ff
	ff ff		 mov	 DWORD PTR [esi+20], -1
$LN2@OnDestroy:

; 65   : 	}
; 66   : 
; 67   : 	if( m_Socket != INVALID_SOCKET )

  00019	8b 46 10	 mov	 eax, DWORD PTR [esi+16]
  0001c	83 f8 ff	 cmp	 eax, -1
  0001f	74 19		 je	 SHORT $LN5@OnDestroy

; 68   : 	{
; 69   : 		::shutdown( m_Socket, SD_BOTH); 

  00021	6a 02		 push	 2
  00023	50		 push	 eax
  00024	ff 15 00 00 00
	00		 call	 DWORD PTR __imp__shutdown@8

; 70   : 		::closesocket( m_Socket );

  0002a	ff 76 10	 push	 DWORD PTR [esi+16]
  0002d	ff 15 00 00 00
	00		 call	 DWORD PTR __imp__closesocket@4

; 71   : 		m_Socket = INVALID_SOCKET; 

  00033	c7 46 10 ff ff
	ff ff		 mov	 DWORD PTR [esi+16], -1
$LN5@OnDestroy:

; 72   : 	}
; 73   : 
; 74   : 	return TRUE;
; 75   : }

  0003a	b8 01 00 00 00	 mov	 eax, 1
  0003f	5e		 pop	 esi
  00040	c3		 ret	 0
?OnDestroy@i3NetworkTCPSocket@@UAEHXZ ENDP		; i3NetworkTCPSocket::OnDestroy
_TEXT	ENDS
; Function compile flags: /Ogtp
; File E:\Proyectos\JuegosOnlineproyectos\PB\pbblow\Piercing Blow Remake\i3Server\src\i3Base\i3NetworkTCPSocket.cpp
; File E:\Proyectos\JuegosOnlineproyectos\PB\pbblow\Piercing Blow Remake\i3Server\include\i3Base\i3Memory.h
; File C:\Program Files (x86)\Windows Kits\10\Include\10.0.26100.0\um\winnt.h
; File E:\Proyectos\JuegosOnlineproyectos\PB\pbblow\Piercing Blow Remake\i3Server\src\i3Base\i3NetworkTCPSocket.cpp
;	COMDAT ?OnCreate@i3NetworkTCPSocket@@UAEHPADGP6AXPAVi3NetworkPacket@@@ZPAX@Z
_TEXT	SEGMENT
_serv_addr$ = -20					; size = 16
__$ArrayPad$ = -4					; size = 4
_pszAddress$ = 8					; size = 4
_nPort$ = 12						; size = 2
_CallBack$ = 16						; size = 4
_pAgent$ = 20						; size = 4
?OnCreate@i3NetworkTCPSocket@@UAEHPADGP6AXPAVi3NetworkPacket@@@ZPAX@Z PROC ; i3NetworkTCPSocket::OnCreate, COMDAT
; _this$ = ecx

; 30   : {

  00000	55		 push	 ebp
  00001	8b ec		 mov	 ebp, esp
  00003	83 ec 14	 sub	 esp, 20			; 00000014H
  00006	a1 00 00 00 00	 mov	 eax, DWORD PTR ___security_cookie
  0000b	33 c5		 xor	 eax, ebp
  0000d	89 45 fc	 mov	 DWORD PTR __$ArrayPad$[ebp], eax
  00010	56		 push	 esi
  00011	57		 push	 edi
  00012	8b 7d 08	 mov	 edi, DWORD PTR _pszAddress$[ebp]
  00015	8b f1		 mov	 esi, ecx

; 31   : 	m_hEvent		= ::WSACreateEvent();

  00017	ff 15 00 00 00
	00		 call	 DWORD PTR __imp__WSACreateEvent@0

; 32   : 	m_Socket		= ::socket( AF_INET, SOCK_STREAM, IPPROTO_TCP );

  0001d	6a 06		 push	 6
  0001f	6a 01		 push	 1
  00021	6a 02		 push	 2
  00023	89 46 14	 mov	 DWORD PTR [esi+20], eax
  00026	ff 15 00 00 00
	00		 call	 DWORD PTR __imp__socket@12
  0002c	89 46 10	 mov	 DWORD PTR [esi+16], eax

; 33   : 
; 34   : 	if( m_Socket == INVALID_SOCKET )

  0002f	83 f8 ff	 cmp	 eax, -1
  00032	74 57		 je	 SHORT $LN18@OnCreate
; File E:\Proyectos\JuegosOnlineproyectos\PB\pbblow\Piercing Blow Remake\i3Server\include\i3Base\i3Memory.h

; 144  : 			::SecureZeroMemory( pDest, sz);

  00034	b9 10 00 00 00	 mov	 ecx, 16			; 00000010H
; File C:\Program Files (x86)\Windows Kits\10\Include\10.0.26100.0\um\winnt.h

; 23413:     volatile char *vptr = (volatile char *)ptr;

  00039	8d 45 ec	 lea	 eax, DWORD PTR _serv_addr$[ebp]
  0003c	8d 64 24 00	 npad	 4
$LL8@OnCreate:

; 23414: 
; 23415: #if defined(_M_AMD64) && !defined(_M_ARM64EC)
; 23416: 
; 23417:     __stosb((PBYTE )((DWORD64)vptr), 0, cnt);
; 23418: 
; 23419: #else
; 23420: 
; 23421:     while (cnt) {
; 23422: 
; 23423: #if !defined(_M_CEE) && (defined(_M_ARM) || defined(_M_ARM64) || defined(_M_ARM64EC))
; 23424: 
; 23425:         __iso_volatile_store8(vptr, 0);
; 23426: 
; 23427: #else
; 23428: 
; 23429:         *vptr = 0;

  00040	c6 00 00	 mov	 BYTE PTR [eax], 0

; 23430: 
; 23431: #endif
; 23432: 
; 23433:         vptr++;

  00043	8d 40 01	 lea	 eax, DWORD PTR [eax+1]

; 23434:         cnt--;

  00046	83 e9 01	 sub	 ecx, 1
  00049	75 f5		 jne	 SHORT $LL8@OnCreate
; File E:\Proyectos\JuegosOnlineproyectos\PB\pbblow\Piercing Blow Remake\i3Server\src\i3Base\i3NetworkTCPSocket.cpp

; 43   : 	serv_addr.sin_addr.s_addr	= ::inet_addr(pszAddress); 

  0004b	b8 02 00 00 00	 mov	 eax, 2
  00050	57		 push	 edi
  00051	66 89 45 ec	 mov	 WORD PTR _serv_addr$[ebp], ax
  00055	ff 15 00 00 00
	00		 call	 DWORD PTR __imp__inet_addr@4

; 44   : 	serv_addr.sin_port			= htons( nPort ); 

  0005b	ff 75 0c	 push	 DWORD PTR _nPort$[ebp]
  0005e	89 45 f0	 mov	 DWORD PTR _serv_addr$[ebp+4], eax
  00061	ff 15 00 00 00
	00		 call	 DWORD PTR __imp__htons@4
  00067	66 89 45 ee	 mov	 WORD PTR _serv_addr$[ebp+2], ax

; 45   : 
; 46   : 	if( ::connect( m_Socket, (struct sockaddr *)&serv_addr, sizeof(serv_addr) ) != 0)

  0006b	8d 45 ec	 lea	 eax, DWORD PTR _serv_addr$[ebp]
  0006e	6a 10		 push	 16			; 00000010H
  00070	50		 push	 eax
  00071	ff 76 10	 push	 DWORD PTR [esi+16]
  00074	ff 15 00 00 00
	00		 call	 DWORD PTR __imp__connect@12
  0007a	85 c0		 test	 eax, eax
  0007c	74 21		 je	 SHORT $LN3@OnCreate

; 47   : 	{		
; 48   : 		i3Net::GetError("[i3NetworkClientSocket::OnConnectTo]"); 

  0007e	68 00 00 00 00	 push	 OFFSET ??_C@_0CF@NEGKBEJG@?$FLi3NetworkClientSocket?3?3OnConne@
  00083	e8 00 00 00 00	 call	 ?GetError@i3Net@@YAHPAD@Z ; i3Net::GetError
  00088	83 c4 04	 add	 esp, 4
$LN18@OnCreate:

; 53   : 	m_pCallbackFunc = CallBack; 
; 54   : 	
; 55   : 	return TRUE;
; 56   : }

  0008b	5f		 pop	 edi
  0008c	33 c0		 xor	 eax, eax
  0008e	5e		 pop	 esi
  0008f	8b 4d fc	 mov	 ecx, DWORD PTR __$ArrayPad$[ebp]
  00092	33 cd		 xor	 ecx, ebp
  00094	e8 00 00 00 00	 call	 @__security_check_cookie@4
  00099	8b e5		 mov	 esp, ebp
  0009b	5d		 pop	 ebp
  0009c	c2 10 00	 ret	 16			; 00000010H
$LN3@OnCreate:

; 49   : 		return FALSE; 
; 50   : 	}
; 51   : 
; 52   : 	m_pAgent		= pAgent;

  0009f	8b 45 14	 mov	 eax, DWORD PTR _pAgent$[ebp]

; 53   : 	m_pCallbackFunc = CallBack; 
; 54   : 	
; 55   : 	return TRUE;
; 56   : }

  000a2	8b 4d fc	 mov	 ecx, DWORD PTR __$ArrayPad$[ebp]
  000a5	89 46 18	 mov	 DWORD PTR [esi+24], eax
  000a8	33 cd		 xor	 ecx, ebp
  000aa	8b 45 10	 mov	 eax, DWORD PTR _CallBack$[ebp]
  000ad	89 46 1c	 mov	 DWORD PTR [esi+28], eax
  000b0	b8 01 00 00 00	 mov	 eax, 1
  000b5	5f		 pop	 edi
  000b6	5e		 pop	 esi
  000b7	e8 00 00 00 00	 call	 @__security_check_cookie@4
  000bc	8b e5		 mov	 esp, ebp
  000be	5d		 pop	 ebp
  000bf	c2 10 00	 ret	 16			; 00000010H
?OnCreate@i3NetworkTCPSocket@@UAEHPADGP6AXPAVi3NetworkPacket@@@ZPAX@Z ENDP ; i3NetworkTCPSocket::OnCreate
_TEXT	ENDS
; Function compile flags: /Ogtp
; File E:\Proyectos\JuegosOnlineproyectos\PB\pbblow\Piercing Blow Remake\i3Server\src\i3Base\i3NetworkTCPSocket.cpp
;	COMDAT ??1i3NetworkTCPSocket@@UAE@XZ
_TEXT	SEGMENT
??1i3NetworkTCPSocket@@UAE@XZ PROC			; i3NetworkTCPSocket::~i3NetworkTCPSocket, COMDAT
; _this$ = ecx

; 25   : {

  00000	56		 push	 esi
  00001	8b f1		 mov	 esi, ecx

; 61   : 	if(  m_hEvent != INVALID_HANDLE_VALUE )

  00003	8b 46 14	 mov	 eax, DWORD PTR [esi+20]

; 25   : {

  00006	c7 06 00 00 00
	00		 mov	 DWORD PTR [esi], OFFSET ??_7i3NetworkTCPSocket@@6B@

; 61   : 	if(  m_hEvent != INVALID_HANDLE_VALUE )

  0000c	83 f8 ff	 cmp	 eax, -1
  0000f	74 0e		 je	 SHORT $LN5@i3NetworkT

; 62   : 	{
; 63   : 		::WSACloseEvent( m_hEvent );

  00011	50		 push	 eax
  00012	ff 15 00 00 00
	00		 call	 DWORD PTR __imp__WSACloseEvent@4

; 64   : 		m_hEvent = INVALID_HANDLE_VALUE;

  00018	c7 46 14 ff ff
	ff ff		 mov	 DWORD PTR [esi+20], -1
$LN5@i3NetworkT:

; 65   : 	}
; 66   : 
; 67   : 	if( m_Socket != INVALID_SOCKET )

  0001f	8b 46 10	 mov	 eax, DWORD PTR [esi+16]
  00022	83 f8 ff	 cmp	 eax, -1
  00025	74 19		 je	 SHORT $LN6@i3NetworkT

; 68   : 	{
; 69   : 		::shutdown( m_Socket, SD_BOTH); 

  00027	6a 02		 push	 2
  00029	50		 push	 eax
  0002a	ff 15 00 00 00
	00		 call	 DWORD PTR __imp__shutdown@8

; 70   : 		::closesocket( m_Socket );

  00030	ff 76 10	 push	 DWORD PTR [esi+16]
  00033	ff 15 00 00 00
	00		 call	 DWORD PTR __imp__closesocket@4

; 71   : 		m_Socket = INVALID_SOCKET; 

  00039	c7 46 10 ff ff
	ff ff		 mov	 DWORD PTR [esi+16], -1
$LN6@i3NetworkT:

; 26   : 	OnDestroy();
; 27   : }

  00040	8b ce		 mov	 ecx, esi
  00042	5e		 pop	 esi
  00043	e9 00 00 00 00	 jmp	 ??1i3ElementBase@@UAE@XZ ; i3ElementBase::~i3ElementBase
??1i3NetworkTCPSocket@@UAE@XZ ENDP			; i3NetworkTCPSocket::~i3NetworkTCPSocket
_TEXT	ENDS
; Function compile flags: /Ogtp
; File E:\Proyectos\JuegosOnlineproyectos\PB\pbblow\Piercing Blow Remake\i3Server\src\i3Base\i3NetworkTCPSocket.cpp
; File E:\Proyectos\JuegosOnlineproyectos\PB\pbblow\Piercing Blow Remake\i3Server\include\i3Base\i3Memory.h
; File E:\Proyectos\JuegosOnlineproyectos\PB\pbblow\Piercing Blow Remake\i3Server\src\i3Base\i3NetworkTCPSocket.cpp
; File C:\Program Files (x86)\Windows Kits\10\Include\10.0.26100.0\um\winnt.h
; File E:\Proyectos\JuegosOnlineproyectos\PB\pbblow\Piercing Blow Remake\i3Server\src\i3Base\i3NetworkTCPSocket.cpp
;	COMDAT ??0i3NetworkTCPSocket@@QAE@XZ
_TEXT	SEGMENT
_this$ = -4						; size = 4
??0i3NetworkTCPSocket@@QAE@XZ PROC			; i3NetworkTCPSocket::i3NetworkTCPSocket, COMDAT
; _this$ = ecx

; 10   : {

  00000	55		 push	 ebp
  00001	8b ec		 mov	 ebp, esp
  00003	51		 push	 ecx
  00004	56		 push	 esi
  00005	8b f1		 mov	 esi, ecx
  00007	89 75 fc	 mov	 DWORD PTR _this$[ebp], esi
  0000a	e8 00 00 00 00	 call	 ??0i3ElementBase@@QAE@XZ ; i3ElementBase::i3ElementBase
  0000f	c7 06 00 00 00
	00		 mov	 DWORD PTR [esi], OFFSET ??_7i3NetworkTCPSocket@@6B@

; 20   : 
; 21   : 	i3mem::FillZero( &m_LocalAddr, sizeof( I3SOCKETADDR ) );

  00015	8d 86 cc 45 00
	00		 lea	 eax, DWORD PTR [esi+17868]
  0001b	c7 46 10 ff ff
	ff ff		 mov	 DWORD PTR [esi+16], -1
; File E:\Proyectos\JuegosOnlineproyectos\PB\pbblow\Piercing Blow Remake\i3Server\include\i3Base\i3Memory.h

; 144  : 			::SecureZeroMemory( pDest, sz);

  00022	b9 10 00 00 00	 mov	 ecx, 16			; 00000010H
; File E:\Proyectos\JuegosOnlineproyectos\PB\pbblow\Piercing Blow Remake\i3Server\src\i3Base\i3NetworkTCPSocket.cpp

; 12   : 	m_hEvent				= INVALID_HANDLE_VALUE; 

  00027	c7 46 14 ff ff
	ff ff		 mov	 DWORD PTR [esi+20], -1

; 13   : 	m_ReceivedPacketSize	= 0; 

  0002e	c7 86 f0 22 00
	00 00 00 00 00	 mov	 DWORD PTR [esi+8944], 0

; 14   : 
; 15   : 	m_pAgent				= NULL;

  00038	c7 46 18 00 00
	00 00		 mov	 DWORD PTR [esi+24], 0

; 16   : 	m_pCallbackFunc			= NULL; 

  0003f	c7 46 1c 00 00
	00 00		 mov	 DWORD PTR [esi+28], 0

; 17   : 
; 18   : 	m_nSendDataLen			= 0;    // length of data to send

  00046	c7 86 c4 45 00
	00 00 00 00 00	 mov	 DWORD PTR [esi+17860], 0

; 19   : 	m_nBytesSent			= 0;      // bytes sent so far

  00050	c7 86 c8 45 00
	00 00 00 00 00	 mov	 DWORD PTR [esi+17864], 0
  0005a	8d 9b 00 00 00
	00		 npad	 6
$LL7@i3NetworkT:
; File C:\Program Files (x86)\Windows Kits\10\Include\10.0.26100.0\um\winnt.h

; 23429:         *vptr = 0;

  00060	c6 00 00	 mov	 BYTE PTR [eax], 0

; 23430: 
; 23431: #endif
; 23432: 
; 23433:         vptr++;

  00063	8d 40 01	 lea	 eax, DWORD PTR [eax+1]

; 23434:         cnt--;

  00066	83 e9 01	 sub	 ecx, 1
  00069	75 f5		 jne	 SHORT $LL7@i3NetworkT
; File E:\Proyectos\JuegosOnlineproyectos\PB\pbblow\Piercing Blow Remake\i3Server\src\i3Base\i3NetworkTCPSocket.cpp

; 22   : }

  0006b	8b c6		 mov	 eax, esi
  0006d	5e		 pop	 esi
  0006e	8b e5		 mov	 esp, ebp
  00070	5d		 pop	 ebp
  00071	c3		 ret	 0
??0i3NetworkTCPSocket@@QAE@XZ ENDP			; i3NetworkTCPSocket::i3NetworkTCPSocket
_TEXT	ENDS
; Function compile flags: /Ogtp
; File E:\Proyectos\JuegosOnlineproyectos\PB\pbblow\Piercing Blow Remake\i3Server\src\i3Base\i3NetworkTCPSocket.cpp
;	COMDAT ?_BindObjectRefByType@i3NetworkTCPSocket@@SAPAV1@PAXW4I3_CLASSMETA_TYPE@@@Z
_TEXT	SEGMENT
_pBuf$ = 8						; size = 4
_type$ = 12						; size = 4
?_BindObjectRefByType@i3NetworkTCPSocket@@SAPAV1@PAXW4I3_CLASSMETA_TYPE@@@Z PROC ; i3NetworkTCPSocket::_BindObjectRefByType, COMDAT

; 7    : I3_CLASS_INSTANCE( i3NetworkTCPSocket, i3ElementBase );

  00000	55		 push	 ebp
  00001	8b ec		 mov	 ebp, esp
  00003	8b 0d 00 00 00
	00		 mov	 ecx, DWORD PTR ?s_pClassMetai3NetworkTCPSocket@i3NetworkTCPSocket@@2PAVi3ClassMeta@@A ; i3NetworkTCPSocket::s_pClassMetai3NetworkTCPSocket
  00009	ff 75 0c	 push	 DWORD PTR _type$[ebp]
  0000c	ff 75 08	 push	 DWORD PTR _pBuf$[ebp]
  0000f	8b 01		 mov	 eax, DWORD PTR [ecx]
  00011	ff 50 08	 call	 DWORD PTR [eax+8]
  00014	5d		 pop	 ebp
  00015	c3		 ret	 0
?_BindObjectRefByType@i3NetworkTCPSocket@@SAPAV1@PAXW4I3_CLASSMETA_TYPE@@@Z ENDP ; i3NetworkTCPSocket::_BindObjectRefByType
_TEXT	ENDS
; Function compile flags: /Ogtp
; File E:\Proyectos\JuegosOnlineproyectos\PB\pbblow\Piercing Blow Remake\i3Server\src\i3Base\i3NetworkTCPSocket.cpp
; File E:\Proyectos\JuegosOnlineproyectos\PB\pbblow\Piercing Blow Remake\i3Server\include\i3Base\i3ElementBase.h
; File E:\Proyectos\JuegosOnlineproyectos\PB\pbblow\Piercing Blow Remake\i3Server\src\i3Base\i3NetworkTCPSocket.cpp
;	COMDAT ?_BindObjectByType@i3NetworkTCPSocket@@SAPAV1@PAXW4I3_CLASSMETA_TYPE@@@Z
_TEXT	SEGMENT
_pBuf$ = 8						; size = 4
_type$ = 12						; size = 4
?_BindObjectByType@i3NetworkTCPSocket@@SAPAV1@PAXW4I3_CLASSMETA_TYPE@@@Z PROC ; i3NetworkTCPSocket::_BindObjectByType, COMDAT

; 7    : I3_CLASS_INSTANCE( i3NetworkTCPSocket, i3ElementBase );

  00000	55		 push	 ebp
  00001	8b ec		 mov	 ebp, esp
  00003	8b 0d 00 00 00
	00		 mov	 ecx, DWORD PTR ?s_pClassMetai3NetworkTCPSocket@i3NetworkTCPSocket@@2PAVi3ClassMeta@@A ; i3NetworkTCPSocket::s_pClassMetai3NetworkTCPSocket
  00009	ff 75 0c	 push	 DWORD PTR _type$[ebp]
  0000c	ff 75 08	 push	 DWORD PTR _pBuf$[ebp]
  0000f	8b 01		 mov	 eax, DWORD PTR [ecx]
  00011	ff 50 08	 call	 DWORD PTR [eax+8]
; File E:\Proyectos\JuegosOnlineproyectos\PB\pbblow\Piercing Blow Remake\i3Server\include\i3Base\i3ElementBase.h

; 392  : 		m_RefCount++;

  00014	ff 40 04	 inc	 DWORD PTR [eax+4]
; File E:\Proyectos\JuegosOnlineproyectos\PB\pbblow\Piercing Blow Remake\i3Server\src\i3Base\i3NetworkTCPSocket.cpp

; 7    : I3_CLASS_INSTANCE( i3NetworkTCPSocket, i3ElementBase );

  00017	5d		 pop	 ebp
  00018	c3		 ret	 0
?_BindObjectByType@i3NetworkTCPSocket@@SAPAV1@PAXW4I3_CLASSMETA_TYPE@@@Z ENDP ; i3NetworkTCPSocket::_BindObjectByType
_TEXT	ENDS
; Function compile flags: /Ogtp
; File E:\Proyectos\JuegosOnlineproyectos\PB\pbblow\Piercing Blow Remake\i3Server\src\i3Base\i3NetworkTCPSocket.cpp
;	COMDAT ?_NewObjectRefByType@i3NetworkTCPSocket@@SAPAV1@W4I3_CLASSMETA_TYPE@@@Z
_TEXT	SEGMENT
_type$ = 8						; size = 4
?_NewObjectRefByType@i3NetworkTCPSocket@@SAPAV1@W4I3_CLASSMETA_TYPE@@@Z PROC ; i3NetworkTCPSocket::_NewObjectRefByType, COMDAT

; 7    : I3_CLASS_INSTANCE( i3NetworkTCPSocket, i3ElementBase );

  00000	55		 push	 ebp
  00001	8b ec		 mov	 ebp, esp
  00003	8b 0d 00 00 00
	00		 mov	 ecx, DWORD PTR ?s_pClassMetai3NetworkTCPSocket@i3NetworkTCPSocket@@2PAVi3ClassMeta@@A ; i3NetworkTCPSocket::s_pClassMetai3NetworkTCPSocket
  00009	ff 75 08	 push	 DWORD PTR _type$[ebp]
  0000c	8b 01		 mov	 eax, DWORD PTR [ecx]
  0000e	ff 50 04	 call	 DWORD PTR [eax+4]
  00011	5d		 pop	 ebp
  00012	c3		 ret	 0
?_NewObjectRefByType@i3NetworkTCPSocket@@SAPAV1@W4I3_CLASSMETA_TYPE@@@Z ENDP ; i3NetworkTCPSocket::_NewObjectRefByType
_TEXT	ENDS
; Function compile flags: /Ogtp
; File E:\Proyectos\JuegosOnlineproyectos\PB\pbblow\Piercing Blow Remake\i3Server\src\i3Base\i3NetworkTCPSocket.cpp
; File E:\Proyectos\JuegosOnlineproyectos\PB\pbblow\Piercing Blow Remake\i3Server\include\i3Base\i3ElementBase.h
; File E:\Proyectos\JuegosOnlineproyectos\PB\pbblow\Piercing Blow Remake\i3Server\src\i3Base\i3NetworkTCPSocket.cpp
;	COMDAT ?_NewObjectByType@i3NetworkTCPSocket@@SAPAV1@W4I3_CLASSMETA_TYPE@@@Z
_TEXT	SEGMENT
_type$ = 8						; size = 4
?_NewObjectByType@i3NetworkTCPSocket@@SAPAV1@W4I3_CLASSMETA_TYPE@@@Z PROC ; i3NetworkTCPSocket::_NewObjectByType, COMDAT

; 7    : I3_CLASS_INSTANCE( i3NetworkTCPSocket, i3ElementBase );

  00000	55		 push	 ebp
  00001	8b ec		 mov	 ebp, esp
  00003	8b 0d 00 00 00
	00		 mov	 ecx, DWORD PTR ?s_pClassMetai3NetworkTCPSocket@i3NetworkTCPSocket@@2PAVi3ClassMeta@@A ; i3NetworkTCPSocket::s_pClassMetai3NetworkTCPSocket
  00009	ff 75 08	 push	 DWORD PTR _type$[ebp]
  0000c	8b 01		 mov	 eax, DWORD PTR [ecx]
  0000e	ff 50 04	 call	 DWORD PTR [eax+4]
; File E:\Proyectos\JuegosOnlineproyectos\PB\pbblow\Piercing Blow Remake\i3Server\include\i3Base\i3ElementBase.h

; 392  : 		m_RefCount++;

  00011	ff 40 04	 inc	 DWORD PTR [eax+4]
; File E:\Proyectos\JuegosOnlineproyectos\PB\pbblow\Piercing Blow Remake\i3Server\src\i3Base\i3NetworkTCPSocket.cpp

; 7    : I3_CLASS_INSTANCE( i3NetworkTCPSocket, i3ElementBase );

  00014	5d		 pop	 ebp
  00015	c3		 ret	 0
?_NewObjectByType@i3NetworkTCPSocket@@SAPAV1@W4I3_CLASSMETA_TYPE@@@Z ENDP ; i3NetworkTCPSocket::_NewObjectByType
_TEXT	ENDS
; Function compile flags: /Ogtp
; File E:\Proyectos\JuegosOnlineproyectos\PB\pbblow\Piercing Blow Remake\i3Server\src\i3Base\i3NetworkTCPSocket.cpp
;	COMDAT ?_BindObjectRef@i3NetworkTCPSocket@@SAPAV1@PAX@Z
_TEXT	SEGMENT
_pBuf$ = 8						; size = 4
?_BindObjectRef@i3NetworkTCPSocket@@SAPAV1@PAX@Z PROC	; i3NetworkTCPSocket::_BindObjectRef, COMDAT

; 7    : I3_CLASS_INSTANCE( i3NetworkTCPSocket, i3ElementBase );

  00000	55		 push	 ebp
  00001	8b ec		 mov	 ebp, esp
  00003	8b 0d 00 00 00
	00		 mov	 ecx, DWORD PTR ?s_pClassMetai3NetworkTCPSocket@i3NetworkTCPSocket@@2PAVi3ClassMeta@@A ; i3NetworkTCPSocket::s_pClassMetai3NetworkTCPSocket
  00009	6a 00		 push	 0
  0000b	ff 75 08	 push	 DWORD PTR _pBuf$[ebp]
  0000e	8b 01		 mov	 eax, DWORD PTR [ecx]
  00010	ff 50 08	 call	 DWORD PTR [eax+8]
  00013	5d		 pop	 ebp
  00014	c3		 ret	 0
?_BindObjectRef@i3NetworkTCPSocket@@SAPAV1@PAX@Z ENDP	; i3NetworkTCPSocket::_BindObjectRef
_TEXT	ENDS
; Function compile flags: /Ogtp
; File E:\Proyectos\JuegosOnlineproyectos\PB\pbblow\Piercing Blow Remake\i3Server\src\i3Base\i3NetworkTCPSocket.cpp
; File E:\Proyectos\JuegosOnlineproyectos\PB\pbblow\Piercing Blow Remake\i3Server\include\i3Base\i3ElementBase.h
; File E:\Proyectos\JuegosOnlineproyectos\PB\pbblow\Piercing Blow Remake\i3Server\src\i3Base\i3NetworkTCPSocket.cpp
;	COMDAT ?_BindObject@i3NetworkTCPSocket@@SAPAV1@PAX@Z
_TEXT	SEGMENT
_pBuf$ = 8						; size = 4
?_BindObject@i3NetworkTCPSocket@@SAPAV1@PAX@Z PROC	; i3NetworkTCPSocket::_BindObject, COMDAT

; 7    : I3_CLASS_INSTANCE( i3NetworkTCPSocket, i3ElementBase );

  00000	55		 push	 ebp
  00001	8b ec		 mov	 ebp, esp
  00003	8b 0d 00 00 00
	00		 mov	 ecx, DWORD PTR ?s_pClassMetai3NetworkTCPSocket@i3NetworkTCPSocket@@2PAVi3ClassMeta@@A ; i3NetworkTCPSocket::s_pClassMetai3NetworkTCPSocket
  00009	6a 00		 push	 0
  0000b	ff 75 08	 push	 DWORD PTR _pBuf$[ebp]
  0000e	8b 01		 mov	 eax, DWORD PTR [ecx]
  00010	ff 50 08	 call	 DWORD PTR [eax+8]
; File E:\Proyectos\JuegosOnlineproyectos\PB\pbblow\Piercing Blow Remake\i3Server\include\i3Base\i3ElementBase.h

; 392  : 		m_RefCount++;

  00013	ff 40 04	 inc	 DWORD PTR [eax+4]
; File E:\Proyectos\JuegosOnlineproyectos\PB\pbblow\Piercing Blow Remake\i3Server\src\i3Base\i3NetworkTCPSocket.cpp

; 7    : I3_CLASS_INSTANCE( i3NetworkTCPSocket, i3ElementBase );

  00016	5d		 pop	 ebp
  00017	c3		 ret	 0
?_BindObject@i3NetworkTCPSocket@@SAPAV1@PAX@Z ENDP	; i3NetworkTCPSocket::_BindObject
_TEXT	ENDS
; Function compile flags: /Ogtp
; File E:\Proyectos\JuegosOnlineproyectos\PB\pbblow\Piercing Blow Remake\i3Server\src\i3Base\i3NetworkTCPSocket.cpp
;	COMDAT ?_NewObjectRef@i3NetworkTCPSocket@@SAPAV1@XZ
_TEXT	SEGMENT
?_NewObjectRef@i3NetworkTCPSocket@@SAPAV1@XZ PROC	; i3NetworkTCPSocket::_NewObjectRef, COMDAT

; 7    : I3_CLASS_INSTANCE( i3NetworkTCPSocket, i3ElementBase );

  00000	8b 0d 00 00 00
	00		 mov	 ecx, DWORD PTR ?s_pClassMetai3NetworkTCPSocket@i3NetworkTCPSocket@@2PAVi3ClassMeta@@A ; i3NetworkTCPSocket::s_pClassMetai3NetworkTCPSocket
  00006	6a 00		 push	 0
  00008	8b 01		 mov	 eax, DWORD PTR [ecx]
  0000a	ff 50 04	 call	 DWORD PTR [eax+4]
  0000d	c3		 ret	 0
?_NewObjectRef@i3NetworkTCPSocket@@SAPAV1@XZ ENDP	; i3NetworkTCPSocket::_NewObjectRef
_TEXT	ENDS
; Function compile flags: /Ogtp
; File E:\Proyectos\JuegosOnlineproyectos\PB\pbblow\Piercing Blow Remake\i3Server\src\i3Base\i3NetworkTCPSocket.cpp
; File E:\Proyectos\JuegosOnlineproyectos\PB\pbblow\Piercing Blow Remake\i3Server\include\i3Base\i3ElementBase.h
; File E:\Proyectos\JuegosOnlineproyectos\PB\pbblow\Piercing Blow Remake\i3Server\src\i3Base\i3NetworkTCPSocket.cpp
;	COMDAT ?_NewObject@i3NetworkTCPSocket@@SAPAV1@XZ
_TEXT	SEGMENT
?_NewObject@i3NetworkTCPSocket@@SAPAV1@XZ PROC		; i3NetworkTCPSocket::_NewObject, COMDAT

; 7    : I3_CLASS_INSTANCE( i3NetworkTCPSocket, i3ElementBase );

  00000	8b 0d 00 00 00
	00		 mov	 ecx, DWORD PTR ?s_pClassMetai3NetworkTCPSocket@i3NetworkTCPSocket@@2PAVi3ClassMeta@@A ; i3NetworkTCPSocket::s_pClassMetai3NetworkTCPSocket
  00006	6a 00		 push	 0
  00008	8b 01		 mov	 eax, DWORD PTR [ecx]
  0000a	ff 50 04	 call	 DWORD PTR [eax+4]
; File E:\Proyectos\JuegosOnlineproyectos\PB\pbblow\Piercing Blow Remake\i3Server\include\i3Base\i3ElementBase.h

; 392  : 		m_RefCount++;

  0000d	ff 40 04	 inc	 DWORD PTR [eax+4]
; File E:\Proyectos\JuegosOnlineproyectos\PB\pbblow\Piercing Blow Remake\i3Server\src\i3Base\i3NetworkTCPSocket.cpp

; 7    : I3_CLASS_INSTANCE( i3NetworkTCPSocket, i3ElementBase );

  00010	c3		 ret	 0
?_NewObject@i3NetworkTCPSocket@@SAPAV1@XZ ENDP		; i3NetworkTCPSocket::_NewObject
_TEXT	ENDS
; Function compile flags: /Ogtp
; File E:\Proyectos\JuegosOnlineproyectos\PB\pbblow\Piercing Blow Remake\i3Server\src\i3Base\i3NetworkTCPSocket.cpp
;	COMDAT ?SetGhostClass@i3NetworkTCPSocket@@SAXPAVi3ClassMeta@@@Z
_TEXT	SEGMENT
_pMeta$ = 8						; size = 4
?SetGhostClass@i3NetworkTCPSocket@@SAXPAVi3ClassMeta@@@Z PROC ; i3NetworkTCPSocket::SetGhostClass, COMDAT

; 7    : I3_CLASS_INSTANCE( i3NetworkTCPSocket, i3ElementBase );

  00000	55		 push	 ebp
  00001	8b ec		 mov	 ebp, esp
  00003	ff 75 08	 push	 DWORD PTR _pMeta$[ebp]
  00006	8b 0d 00 00 00
	00		 mov	 ecx, DWORD PTR ?s_pClassMetai3NetworkTCPSocket@i3NetworkTCPSocket@@2PAVi3ClassMeta@@A ; i3NetworkTCPSocket::s_pClassMetai3NetworkTCPSocket
  0000c	e8 00 00 00 00	 call	 ?SetGhostClass@i3ClassMeta@@QAEXPAV1@@Z ; i3ClassMeta::SetGhostClass
  00011	5d		 pop	 ebp
  00012	c3		 ret	 0
?SetGhostClass@i3NetworkTCPSocket@@SAXPAVi3ClassMeta@@@Z ENDP ; i3NetworkTCPSocket::SetGhostClass
_TEXT	ENDS
; Function compile flags: /Ogtp
; File E:\Proyectos\JuegosOnlineproyectos\PB\pbblow\Piercing Blow Remake\i3Server\src\i3Base\i3NetworkTCPSocket.cpp
;	COMDAT ?SetConcreteClass@i3NetworkTCPSocket@@SAXPAVi3ClassMeta@@@Z
_TEXT	SEGMENT
_pMeta$ = 8						; size = 4
?SetConcreteClass@i3NetworkTCPSocket@@SAXPAVi3ClassMeta@@@Z PROC ; i3NetworkTCPSocket::SetConcreteClass, COMDAT

; 7    : I3_CLASS_INSTANCE( i3NetworkTCPSocket, i3ElementBase );

  00000	55		 push	 ebp
  00001	8b ec		 mov	 ebp, esp
  00003	ff 75 08	 push	 DWORD PTR _pMeta$[ebp]
  00006	8b 0d 00 00 00
	00		 mov	 ecx, DWORD PTR ?s_pClassMetai3NetworkTCPSocket@i3NetworkTCPSocket@@2PAVi3ClassMeta@@A ; i3NetworkTCPSocket::s_pClassMetai3NetworkTCPSocket
  0000c	e8 00 00 00 00	 call	 ?SetConcreteClass@i3ClassMeta@@QAEXPAV1@@Z ; i3ClassMeta::SetConcreteClass
  00011	5d		 pop	 ebp
  00012	c3		 ret	 0
?SetConcreteClass@i3NetworkTCPSocket@@SAXPAVi3ClassMeta@@@Z ENDP ; i3NetworkTCPSocket::SetConcreteClass
_TEXT	ENDS
; Function compile flags: /Ogtp
; File E:\Proyectos\JuegosOnlineproyectos\PB\pbblow\Piercing Blow Remake\i3Server\src\i3Base\i3NetworkTCPSocket.cpp
;	COMDAT ?RegisterMeta@i3NetworkTCPSocket@@SAXXZ
_TEXT	SEGMENT
?RegisterMeta@i3NetworkTCPSocket@@SAXXZ PROC		; i3NetworkTCPSocket::RegisterMeta, COMDAT

; 7    : I3_CLASS_INSTANCE( i3NetworkTCPSocket, i3ElementBase );

  00000	8b 0d 00 00 00
	00		 mov	 ecx, DWORD PTR ?s_pClassMetai3NetworkTCPSocket@i3NetworkTCPSocket@@2PAVi3ClassMeta@@A ; i3NetworkTCPSocket::s_pClassMetai3NetworkTCPSocket
  00006	e9 00 00 00 00	 jmp	 ?Register@i3ClassMeta@@QAEXXZ ; i3ClassMeta::Register
?RegisterMeta@i3NetworkTCPSocket@@SAXXZ ENDP		; i3NetworkTCPSocket::RegisterMeta
_TEXT	ENDS
; Function compile flags: /Ogtp
; File E:\Proyectos\JuegosOnlineproyectos\PB\pbblow\Piercing Blow Remake\i3Server\src\i3Base\i3NetworkTCPSocket.cpp
;	COMDAT ?GetMeta@i3NetworkTCPSocket@@UAEPAVi3ClassMeta@@XZ
_TEXT	SEGMENT
?GetMeta@i3NetworkTCPSocket@@UAEPAVi3ClassMeta@@XZ PROC	; i3NetworkTCPSocket::GetMeta, COMDAT
; _this$ = ecx

; 7    : I3_CLASS_INSTANCE( i3NetworkTCPSocket, i3ElementBase );

  00000	a1 00 00 00 00	 mov	 eax, DWORD PTR ?s_pClassMetai3NetworkTCPSocket@i3NetworkTCPSocket@@2PAVi3ClassMeta@@A ; i3NetworkTCPSocket::s_pClassMetai3NetworkTCPSocket
  00005	c3		 ret	 0
?GetMeta@i3NetworkTCPSocket@@UAEPAVi3ClassMeta@@XZ ENDP	; i3NetworkTCPSocket::GetMeta
_TEXT	ENDS
; Function compile flags: /Ogtp
; File E:\Proyectos\JuegosOnlineproyectos\PB\pbblow\Piercing Blow Remake\i3Server\include\i3Base\i3NetworkTCPSocket.h
;	COMDAT ?GetClassMeta@i3NetworkTCPSocket@@SAPAVi3ClassMeta@@XZ
_TEXT	SEGMENT
?GetClassMeta@i3NetworkTCPSocket@@SAPAVi3ClassMeta@@XZ PROC ; i3NetworkTCPSocket::GetClassMeta, COMDAT

; 18   : 	I3_CLASS_DEFINE( i3NetworkTCPSocket );

  00000	a1 00 00 00 00	 mov	 eax, DWORD PTR ?s_pClassMetai3NetworkTCPSocket@i3NetworkTCPSocket@@2PAVi3ClassMeta@@A ; i3NetworkTCPSocket::s_pClassMetai3NetworkTCPSocket
  00005	c3		 ret	 0
?GetClassMeta@i3NetworkTCPSocket@@SAPAVi3ClassMeta@@XZ ENDP ; i3NetworkTCPSocket::GetClassMeta
_TEXT	ENDS
; Function compile flags: /Ogtp
; File E:\Proyectos\JuegosOnlineproyectos\PB\pbblow\Piercing Blow Remake\i3Server\src\i3Base\i3NetworkTCPSocket.cpp
;	COMDAT ??_Ei3Tcp@@UAEPAXI@Z
_TEXT	SEGMENT
__$EHRec$ = -12						; size = 12
___flags$ = 8						; size = 4
??_Ei3Tcp@@UAEPAXI@Z PROC				; i3Tcp::`vector deleting destructor', COMDAT
; _this$ = ecx
  00000	55		 push	 ebp
  00001	8b ec		 mov	 ebp, esp
  00003	6a ff		 push	 -1
  00005	68 00 00 00 00	 push	 __ehhandler$??_Ei3Tcp@@UAEPAXI@Z
  0000a	64 a1 00 00 00
	00		 mov	 eax, DWORD PTR fs:0
  00010	50		 push	 eax
  00011	53		 push	 ebx
  00012	56		 push	 esi
  00013	57		 push	 edi
  00014	a1 00 00 00 00	 mov	 eax, DWORD PTR ___security_cookie
  00019	33 c5		 xor	 eax, ebp
  0001b	50		 push	 eax
  0001c	8d 45 f4	 lea	 eax, DWORD PTR __$EHRec$[ebp]
  0001f	64 a3 00 00 00
	00		 mov	 DWORD PTR fs:0, eax
  00025	8b f1		 mov	 esi, ecx
  00027	8b 5d 08	 mov	 ebx, DWORD PTR ___flags$[ebp]
  0002a	8b fb		 mov	 edi, ebx
  0002c	83 e7 01	 and	 edi, 1
  0002f	f6 c3 02	 test	 bl, 2
  00032	74 43		 je	 SHORT $LN2@vector
  00034	68 00 00 00 00	 push	 OFFSET ??1i3Tcp@@UAE@XZ	; i3Tcp::~i3Tcp
  00039	ff 76 fc	 push	 DWORD PTR [esi-4]
  0003c	8d 5e fc	 lea	 ebx, DWORD PTR [esi-4]
  0003f	6a 14		 push	 20			; 00000014H
  00041	56		 push	 esi
  00042	e8 00 00 00 00	 call	 ??_M@YGXPAXIIP6EX0@Z@Z
  00047	85 ff		 test	 edi, edi
  00049	74 16		 je	 SHORT $LN3@vector
  0004b	8b 0b		 mov	 ecx, DWORD PTR [ebx]
  0004d	8d 0c 89	 lea	 ecx, DWORD PTR [ecx+ecx*4]
  00050	8d 0c 8d 04 00
	00 00		 lea	 ecx, DWORD PTR [ecx*4+4]
  00057	51		 push	 ecx
  00058	53		 push	 ebx
  00059	e8 00 00 00 00	 call	 ??_V@YAXPAXI@Z		; operator delete[]
  0005e	83 c4 08	 add	 esp, 8
$LN3@vector:
  00061	8b c3		 mov	 eax, ebx
  00063	8b 4d f4	 mov	 ecx, DWORD PTR __$EHRec$[ebp]
  00066	64 89 0d 00 00
	00 00		 mov	 DWORD PTR fs:0, ecx
  0006d	59		 pop	 ecx
  0006e	5f		 pop	 edi
  0006f	5e		 pop	 esi
  00070	5b		 pop	 ebx
  00071	8b e5		 mov	 esp, ebp
  00073	5d		 pop	 ebp
  00074	c2 04 00	 ret	 4
$LN2@vector:
  00077	e8 00 00 00 00	 call	 ??1i3Tcp@@UAE@XZ	; i3Tcp::~i3Tcp
  0007c	85 ff		 test	 edi, edi
  0007e	74 1b		 je	 SHORT $LN6@vector
  00080	f6 c3 04	 test	 bl, 4
  00083	75 0b		 jne	 SHORT $LN5@vector
  00085	56		 push	 esi
  00086	e8 00 00 00 00	 call	 ??3i3ElementBase@@SAXPAX@Z ; i3ElementBase::operator delete
  0008b	83 c4 04	 add	 esp, 4
  0008e	eb 0b		 jmp	 SHORT $LN6@vector
$LN5@vector:

  00090	6a 14		 push	 20			; 00000014H
  00092	56		 push	 esi
  00093	e8 00 00 00 00	 call	 ??3@YAXPAXI@Z		; operator delete
  00098	83 c4 08	 add	 esp, 8
$LN6@vector:
  0009b	8b c6		 mov	 eax, esi
  0009d	8b 4d f4	 mov	 ecx, DWORD PTR __$EHRec$[ebp]
  000a0	64 89 0d 00 00
	00 00		 mov	 DWORD PTR fs:0, ecx
  000a7	59		 pop	 ecx
  000a8	5f		 pop	 edi
  000a9	5e		 pop	 esi
  000aa	5b		 pop	 ebx
  000ab	8b e5		 mov	 esp, ebp
  000ad	5d		 pop	 ebp
  000ae	c2 04 00	 ret	 4
  000b1	cc		 int	 3
  000b2	cc		 int	 3
  000b3	cc		 int	 3
  000b4	cc		 int	 3
  000b5	cc		 int	 3
_TEXT	ENDS
;	COMDAT text$x
text$x	SEGMENT
__ehhandler$??_Ei3Tcp@@UAEPAXI@Z:
  00000	90		 npad	 1
  00001	90		 npad	 1
  00002	8b 54 24 08	 mov	 edx, DWORD PTR [esp+8]
  00006	8d 42 0c	 lea	 eax, DWORD PTR [edx+12]
  00009	8b 4a f0	 mov	 ecx, DWORD PTR [edx-16]
  0000c	33 c8		 xor	 ecx, eax
  0000e	e8 00 00 00 00	 call	 @__security_check_cookie@4
  00013	b8 00 00 00 00	 mov	 eax, OFFSET __ehfuncinfo$??_Ei3Tcp@@UAEPAXI@Z
  00018	e9 00 00 00 00	 jmp	 ___CxxFrameHandler3
text$x	ENDS
??_Ei3Tcp@@UAEPAXI@Z ENDP				; i3Tcp::`vector deleting destructor'
; Function compile flags: /Ogtp
; File E:\Proyectos\JuegosOnlineproyectos\PB\pbblow\Piercing Blow Remake\i3Server\src\i3Base\i3NetworkTCPSocket.cpp
;	COMDAT ??_Gi3Tcp@@UAEPAXI@Z
_TEXT	SEGMENT
___flags$ = 8						; size = 4
??_Gi3Tcp@@UAEPAXI@Z PROC				; i3Tcp::`scalar deleting destructor', COMDAT
; _this$ = ecx
  00000	55		 push	 ebp
  00001	8b ec		 mov	 ebp, esp
  00003	56		 push	 esi
  00004	8b f1		 mov	 esi, ecx
  00006	e8 00 00 00 00	 call	 ??1i3Tcp@@UAE@XZ	; i3Tcp::~i3Tcp
  0000b	8b 45 08	 mov	 eax, DWORD PTR ___flags$[ebp]
  0000e	a8 01		 test	 al, 1
  00010	74 1f		 je	 SHORT $LN10@scalar
  00012	a8 04		 test	 al, 4
  00014	75 10		 jne	 SHORT $LN3@scalar
  00016	56		 push	 esi
  00017	e8 00 00 00 00	 call	 ??3i3ElementBase@@SAXPAX@Z ; i3ElementBase::operator delete
  0001c	83 c4 04	 add	 esp, 4
  0001f	8b c6		 mov	 eax, esi
  00021	5e		 pop	 esi
  00022	5d		 pop	 ebp
  00023	c2 04 00	 ret	 4
$LN3@scalar:

  00026	6a 14		 push	 20			; 00000014H
  00028	56		 push	 esi
  00029	e8 00 00 00 00	 call	 ??3@YAXPAXI@Z		; operator delete
  0002e	83 c4 08	 add	 esp, 8
$LN10@scalar:
  00031	8b c6		 mov	 eax, esi
  00033	5e		 pop	 esi
  00034	5d		 pop	 ebp
  00035	c2 04 00	 ret	 4
??_Gi3Tcp@@UAEPAXI@Z ENDP				; i3Tcp::`scalar deleting destructor'
_TEXT	ENDS
; Function compile flags: /Ogtp
;	COMDAT ??4i3Tcp@@QAEAAV0@ABV0@@Z
_TEXT	SEGMENT
___that$ = 8						; size = 4
??4i3Tcp@@QAEAAV0@ABV0@@Z PROC				; i3Tcp::operator=, COMDAT
; _this$ = ecx
  00000	55		 push	 ebp
  00001	8b ec		 mov	 ebp, esp
  00003	8b 55 08	 mov	 edx, DWORD PTR ___that$[ebp]
  00006	8b 42 04	 mov	 eax, DWORD PTR [edx+4]
  00009	89 41 04	 mov	 DWORD PTR [ecx+4], eax
  0000c	8b 42 08	 mov	 eax, DWORD PTR [edx+8]
  0000f	89 41 08	 mov	 DWORD PTR [ecx+8], eax
  00012	8b 42 0c	 mov	 eax, DWORD PTR [edx+12]
  00015	89 41 0c	 mov	 DWORD PTR [ecx+12], eax
  00018	8b 42 10	 mov	 eax, DWORD PTR [edx+16]
  0001b	89 41 10	 mov	 DWORD PTR [ecx+16], eax
  0001e	8b c1		 mov	 eax, ecx
  00020	5d		 pop	 ebp
  00021	c2 04 00	 ret	 4
??4i3Tcp@@QAEAAV0@ABV0@@Z ENDP				; i3Tcp::operator=
_TEXT	ENDS
; Function compile flags: /Ogtp
;	COMDAT ??0i3Tcp@@QAE@ABV0@@Z
_TEXT	SEGMENT
___that$ = 8						; size = 4
??0i3Tcp@@QAE@ABV0@@Z PROC				; i3Tcp::i3Tcp, COMDAT
; _this$ = ecx
  00000	55		 push	 ebp
  00001	8b ec		 mov	 ebp, esp
  00003	8b 55 08	 mov	 edx, DWORD PTR ___that$[ebp]
  00006	c7 01 00 00 00
	00		 mov	 DWORD PTR [ecx], OFFSET ??_7i3ElementBase@@6B@
  0000c	8b 42 04	 mov	 eax, DWORD PTR [edx+4]
  0000f	89 41 04	 mov	 DWORD PTR [ecx+4], eax
  00012	8b 42 08	 mov	 eax, DWORD PTR [edx+8]
  00015	89 41 08	 mov	 DWORD PTR [ecx+8], eax
  00018	8b 42 0c	 mov	 eax, DWORD PTR [edx+12]
  0001b	89 41 0c	 mov	 DWORD PTR [ecx+12], eax
  0001e	c7 01 00 00 00
	00		 mov	 DWORD PTR [ecx], OFFSET ??_7i3Tcp@@6B@
  00024	8b 42 10	 mov	 eax, DWORD PTR [edx+16]
  00027	89 41 10	 mov	 DWORD PTR [ecx+16], eax
  0002a	8b c1		 mov	 eax, ecx
  0002c	5d		 pop	 ebp
  0002d	c2 04 00	 ret	 4
??0i3Tcp@@QAE@ABV0@@Z ENDP				; i3Tcp::i3Tcp
_TEXT	ENDS
; Function compile flags: /Ogtp
; File E:\Proyectos\JuegosOnlineproyectos\PB\pbblow\Piercing Blow Remake\i3Server\include\i3Base\i3Inet.h
;	COMDAT ?GetClassMeta@i3Tcp@@SAPAVi3ClassMeta@@XZ
_TEXT	SEGMENT
?GetClassMeta@i3Tcp@@SAPAVi3ClassMeta@@XZ PROC		; i3Tcp::GetClassMeta, COMDAT

; 85   : 	I3_CLASS_DEFINE( i3Tcp );

  00000	a1 00 00 00 00	 mov	 eax, DWORD PTR ?s_pClassMetai3Tcp@i3Tcp@@2PAVi3ClassMeta@@A ; i3Tcp::s_pClassMetai3Tcp
  00005	c3		 ret	 0
?GetClassMeta@i3Tcp@@SAPAVi3ClassMeta@@XZ ENDP		; i3Tcp::GetClassMeta
_TEXT	ENDS
; Function compile flags: /Ogtp
; File E:\Proyectos\JuegosOnlineproyectos\PB\pbblow\Piercing Blow Remake\i3Server\src\i3Base\i3NetworkTCPSocket.cpp
;	COMDAT ??_Ei3Udp@@UAEPAXI@Z
_TEXT	SEGMENT
__$EHRec$ = -12						; size = 12
___flags$ = 8						; size = 4
??_Ei3Udp@@UAEPAXI@Z PROC				; i3Udp::`vector deleting destructor', COMDAT
; _this$ = ecx
  00000	55		 push	 ebp
  00001	8b ec		 mov	 ebp, esp
  00003	6a ff		 push	 -1
  00005	68 00 00 00 00	 push	 __ehhandler$??_Ei3Udp@@UAEPAXI@Z
  0000a	64 a1 00 00 00
	00		 mov	 eax, DWORD PTR fs:0
  00010	50		 push	 eax
  00011	53		 push	 ebx
  00012	56		 push	 esi
  00013	57		 push	 edi
  00014	a1 00 00 00 00	 mov	 eax, DWORD PTR ___security_cookie
  00019	33 c5		 xor	 eax, ebp
  0001b	50		 push	 eax
  0001c	8d 45 f4	 lea	 eax, DWORD PTR __$EHRec$[ebp]
  0001f	64 a3 00 00 00
	00		 mov	 DWORD PTR fs:0, eax
  00025	8b f1		 mov	 esi, ecx
  00027	8b 5d 08	 mov	 ebx, DWORD PTR ___flags$[ebp]
  0002a	8b fb		 mov	 edi, ebx
  0002c	83 e7 01	 and	 edi, 1
  0002f	f6 c3 02	 test	 bl, 2
  00032	74 43		 je	 SHORT $LN2@vector
  00034	68 00 00 00 00	 push	 OFFSET ??1i3Udp@@UAE@XZ	; i3Udp::~i3Udp
  00039	ff 76 fc	 push	 DWORD PTR [esi-4]
  0003c	8d 5e fc	 lea	 ebx, DWORD PTR [esi-4]
  0003f	6a 14		 push	 20			; 00000014H
  00041	56		 push	 esi
  00042	e8 00 00 00 00	 call	 ??_M@YGXPAXIIP6EX0@Z@Z
  00047	85 ff		 test	 edi, edi
  00049	74 16		 je	 SHORT $LN3@vector
  0004b	8b 0b		 mov	 ecx, DWORD PTR [ebx]
  0004d	8d 0c 89	 lea	 ecx, DWORD PTR [ecx+ecx*4]
  00050	8d 0c 8d 04 00
	00 00		 lea	 ecx, DWORD PTR [ecx*4+4]
  00057	51		 push	 ecx
  00058	53		 push	 ebx
  00059	e8 00 00 00 00	 call	 ??_V@YAXPAXI@Z		; operator delete[]
  0005e	83 c4 08	 add	 esp, 8
$LN3@vector:
  00061	8b c3		 mov	 eax, ebx
  00063	8b 4d f4	 mov	 ecx, DWORD PTR __$EHRec$[ebp]
  00066	64 89 0d 00 00
	00 00		 mov	 DWORD PTR fs:0, ecx
  0006d	59		 pop	 ecx
  0006e	5f		 pop	 edi
  0006f	5e		 pop	 esi
  00070	5b		 pop	 ebx
  00071	8b e5		 mov	 esp, ebp
  00073	5d		 pop	 ebp
  00074	c2 04 00	 ret	 4
$LN2@vector:
  00077	e8 00 00 00 00	 call	 ??1i3Udp@@UAE@XZ	; i3Udp::~i3Udp
  0007c	85 ff		 test	 edi, edi
  0007e	74 1b		 je	 SHORT $LN6@vector
  00080	f6 c3 04	 test	 bl, 4
  00083	75 0b		 jne	 SHORT $LN5@vector
  00085	56		 push	 esi
  00086	e8 00 00 00 00	 call	 ??3i3ElementBase@@SAXPAX@Z ; i3ElementBase::operator delete
  0008b	83 c4 04	 add	 esp, 4
  0008e	eb 0b		 jmp	 SHORT $LN6@vector
$LN5@vector:

  00090	6a 14		 push	 20			; 00000014H
  00092	56		 push	 esi
  00093	e8 00 00 00 00	 call	 ??3@YAXPAXI@Z		; operator delete
  00098	83 c4 08	 add	 esp, 8
$LN6@vector:
  0009b	8b c6		 mov	 eax, esi
  0009d	8b 4d f4	 mov	 ecx, DWORD PTR __$EHRec$[ebp]
  000a0	64 89 0d 00 00
	00 00		 mov	 DWORD PTR fs:0, ecx
  000a7	59		 pop	 ecx
  000a8	5f		 pop	 edi
  000a9	5e		 pop	 esi
  000aa	5b		 pop	 ebx
  000ab	8b e5		 mov	 esp, ebp
  000ad	5d		 pop	 ebp
  000ae	c2 04 00	 ret	 4
  000b1	cc		 int	 3
  000b2	cc		 int	 3
  000b3	cc		 int	 3
  000b4	cc		 int	 3
  000b5	cc		 int	 3
_TEXT	ENDS
;	COMDAT text$x
text$x	SEGMENT
__ehhandler$??_Ei3Udp@@UAEPAXI@Z:
  00000	90		 npad	 1
  00001	90		 npad	 1
  00002	8b 54 24 08	 mov	 edx, DWORD PTR [esp+8]
  00006	8d 42 0c	 lea	 eax, DWORD PTR [edx+12]
  00009	8b 4a f0	 mov	 ecx, DWORD PTR [edx-16]
  0000c	33 c8		 xor	 ecx, eax
  0000e	e8 00 00 00 00	 call	 @__security_check_cookie@4
  00013	b8 00 00 00 00	 mov	 eax, OFFSET __ehfuncinfo$??_Ei3Udp@@UAEPAXI@Z
  00018	e9 00 00 00 00	 jmp	 ___CxxFrameHandler3
text$x	ENDS
??_Ei3Udp@@UAEPAXI@Z ENDP				; i3Udp::`vector deleting destructor'
; Function compile flags: /Ogtp
; File E:\Proyectos\JuegosOnlineproyectos\PB\pbblow\Piercing Blow Remake\i3Server\src\i3Base\i3NetworkTCPSocket.cpp
;	COMDAT ??_Gi3Udp@@UAEPAXI@Z
_TEXT	SEGMENT
___flags$ = 8						; size = 4
??_Gi3Udp@@UAEPAXI@Z PROC				; i3Udp::`scalar deleting destructor', COMDAT
; _this$ = ecx
  00000	55		 push	 ebp
  00001	8b ec		 mov	 ebp, esp
  00003	56		 push	 esi
  00004	8b f1		 mov	 esi, ecx
  00006	e8 00 00 00 00	 call	 ??1i3Udp@@UAE@XZ	; i3Udp::~i3Udp
  0000b	8b 45 08	 mov	 eax, DWORD PTR ___flags$[ebp]
  0000e	a8 01		 test	 al, 1
  00010	74 1f		 je	 SHORT $LN10@scalar
  00012	a8 04		 test	 al, 4
  00014	75 10		 jne	 SHORT $LN3@scalar
  00016	56		 push	 esi
  00017	e8 00 00 00 00	 call	 ??3i3ElementBase@@SAXPAX@Z ; i3ElementBase::operator delete
  0001c	83 c4 04	 add	 esp, 4
  0001f	8b c6		 mov	 eax, esi
  00021	5e		 pop	 esi
  00022	5d		 pop	 ebp
  00023	c2 04 00	 ret	 4
$LN3@scalar:

  00026	6a 14		 push	 20			; 00000014H
  00028	56		 push	 esi
  00029	e8 00 00 00 00	 call	 ??3@YAXPAXI@Z		; operator delete
  0002e	83 c4 08	 add	 esp, 8
$LN10@scalar:
  00031	8b c6		 mov	 eax, esi
  00033	5e		 pop	 esi
  00034	5d		 pop	 ebp
  00035	c2 04 00	 ret	 4
??_Gi3Udp@@UAEPAXI@Z ENDP				; i3Udp::`scalar deleting destructor'
_TEXT	ENDS
; Function compile flags: /Ogtp
;	COMDAT ??4i3Udp@@QAEAAV0@ABV0@@Z
_TEXT	SEGMENT
___that$ = 8						; size = 4
??4i3Udp@@QAEAAV0@ABV0@@Z PROC				; i3Udp::operator=, COMDAT
; _this$ = ecx
  00000	55		 push	 ebp
  00001	8b ec		 mov	 ebp, esp
  00003	8b 55 08	 mov	 edx, DWORD PTR ___that$[ebp]
  00006	8b 42 04	 mov	 eax, DWORD PTR [edx+4]
  00009	89 41 04	 mov	 DWORD PTR [ecx+4], eax
  0000c	8b 42 08	 mov	 eax, DWORD PTR [edx+8]
  0000f	89 41 08	 mov	 DWORD PTR [ecx+8], eax
  00012	8b 42 0c	 mov	 eax, DWORD PTR [edx+12]
  00015	89 41 0c	 mov	 DWORD PTR [ecx+12], eax
  00018	8b 42 10	 mov	 eax, DWORD PTR [edx+16]
  0001b	89 41 10	 mov	 DWORD PTR [ecx+16], eax
  0001e	8b c1		 mov	 eax, ecx
  00020	5d		 pop	 ebp
  00021	c2 04 00	 ret	 4
??4i3Udp@@QAEAAV0@ABV0@@Z ENDP				; i3Udp::operator=
_TEXT	ENDS
; Function compile flags: /Ogtp
;	COMDAT ??0i3Udp@@QAE@ABV0@@Z
_TEXT	SEGMENT
___that$ = 8						; size = 4
??0i3Udp@@QAE@ABV0@@Z PROC				; i3Udp::i3Udp, COMDAT
; _this$ = ecx
  00000	55		 push	 ebp
  00001	8b ec		 mov	 ebp, esp
  00003	8b 55 08	 mov	 edx, DWORD PTR ___that$[ebp]
  00006	c7 01 00 00 00
	00		 mov	 DWORD PTR [ecx], OFFSET ??_7i3ElementBase@@6B@
  0000c	8b 42 04	 mov	 eax, DWORD PTR [edx+4]
  0000f	89 41 04	 mov	 DWORD PTR [ecx+4], eax
  00012	8b 42 08	 mov	 eax, DWORD PTR [edx+8]
  00015	89 41 08	 mov	 DWORD PTR [ecx+8], eax
  00018	8b 42 0c	 mov	 eax, DWORD PTR [edx+12]
  0001b	89 41 0c	 mov	 DWORD PTR [ecx+12], eax
  0001e	c7 01 00 00 00
	00		 mov	 DWORD PTR [ecx], OFFSET ??_7i3Udp@@6B@
  00024	8b 42 10	 mov	 eax, DWORD PTR [edx+16]
  00027	89 41 10	 mov	 DWORD PTR [ecx+16], eax
  0002a	8b c1		 mov	 eax, ecx
  0002c	5d		 pop	 ebp
  0002d	c2 04 00	 ret	 4
??0i3Udp@@QAE@ABV0@@Z ENDP				; i3Udp::i3Udp
_TEXT	ENDS
; Function compile flags: /Ogtp
; File E:\Proyectos\JuegosOnlineproyectos\PB\pbblow\Piercing Blow Remake\i3Server\include\i3Base\i3Inet.h
;	COMDAT ?getSocketHandle@i3Udp@@QAEIXZ
_TEXT	SEGMENT
?getSocketHandle@i3Udp@@QAEIXZ PROC			; i3Udp::getSocketHandle, COMDAT
; _this$ = ecx

; 80   : 	SOCKET	getSocketHandle( void )				{ return m_Socket; }

  00000	8b 41 10	 mov	 eax, DWORD PTR [ecx+16]
  00003	c3		 ret	 0
?getSocketHandle@i3Udp@@QAEIXZ ENDP			; i3Udp::getSocketHandle
_TEXT	ENDS
; Function compile flags: /Ogtp
; File E:\Proyectos\JuegosOnlineproyectos\PB\pbblow\Piercing Blow Remake\i3Server\include\i3Base\i3Inet.h
;	COMDAT ?GetClassMeta@i3Udp@@SAPAVi3ClassMeta@@XZ
_TEXT	SEGMENT
?GetClassMeta@i3Udp@@SAPAVi3ClassMeta@@XZ PROC		; i3Udp::GetClassMeta, COMDAT

; 60   : 	I3_CLASS_DEFINE( i3Udp );

  00000	a1 00 00 00 00	 mov	 eax, DWORD PTR ?s_pClassMetai3Udp@i3Udp@@2PAVi3ClassMeta@@A ; i3Udp::s_pClassMetai3Udp
  00005	c3		 ret	 0
?GetClassMeta@i3Udp@@SAPAVi3ClassMeta@@XZ ENDP		; i3Udp::GetClassMeta
_TEXT	ENDS
; Function compile flags: /Ogtp
; File E:\Proyectos\JuegosOnlineproyectos\PB\pbblow\Piercing Blow Remake\i3Server\src\i3Base\i3NetworkTCPSocket.cpp
;	COMDAT ??_Ei3NetworkPacket@@UAEPAXI@Z
_TEXT	SEGMENT
__$EHRec$ = -12						; size = 12
___flags$ = 8						; size = 4
??_Ei3NetworkPacket@@UAEPAXI@Z PROC			; i3NetworkPacket::`vector deleting destructor', COMDAT
; _this$ = ecx
  00000	55		 push	 ebp
  00001	8b ec		 mov	 ebp, esp
  00003	6a ff		 push	 -1
  00005	68 00 00 00 00	 push	 __ehhandler$??_Ei3NetworkPacket@@UAEPAXI@Z
  0000a	64 a1 00 00 00
	00		 mov	 eax, DWORD PTR fs:0
  00010	50		 push	 eax
  00011	53		 push	 ebx
  00012	56		 push	 esi
  00013	57		 push	 edi
  00014	a1 00 00 00 00	 mov	 eax, DWORD PTR ___security_cookie
  00019	33 c5		 xor	 eax, ebp
  0001b	50		 push	 eax
  0001c	8d 45 f4	 lea	 eax, DWORD PTR __$EHRec$[ebp]
  0001f	64 a3 00 00 00
	00		 mov	 DWORD PTR fs:0, eax
  00025	8b f1		 mov	 esi, ecx
  00027	8b 5d 08	 mov	 ebx, DWORD PTR ___flags$[ebp]
  0002a	8b fb		 mov	 edi, ebx
  0002c	83 e7 01	 and	 edi, 1
  0002f	f6 c3 02	 test	 bl, 2
  00032	74 43		 je	 SHORT $LN2@vector
  00034	68 00 00 00 00	 push	 OFFSET ??1i3NetworkPacket@@UAE@XZ ; i3NetworkPacket::~i3NetworkPacket
  00039	ff 76 fc	 push	 DWORD PTR [esi-4]
  0003c	8d 5e fc	 lea	 ebx, DWORD PTR [esi-4]
  0003f	68 fc 22 00 00	 push	 8956			; 000022fcH
  00044	56		 push	 esi
  00045	e8 00 00 00 00	 call	 ??_M@YGXPAXIIP6EX0@Z@Z
  0004a	85 ff		 test	 edi, edi
  0004c	74 13		 je	 SHORT $LN3@vector
  0004e	69 0b fc 22 00
	00		 imul	 ecx, DWORD PTR [ebx], 8956
  00054	83 c1 04	 add	 ecx, 4
  00057	51		 push	 ecx
  00058	53		 push	 ebx
  00059	e8 00 00 00 00	 call	 ??_V@YAXPAXI@Z		; operator delete[]
  0005e	83 c4 08	 add	 esp, 8
$LN3@vector:
  00061	8b c3		 mov	 eax, ebx
  00063	8b 4d f4	 mov	 ecx, DWORD PTR __$EHRec$[ebp]
  00066	64 89 0d 00 00
	00 00		 mov	 DWORD PTR fs:0, ecx
  0006d	59		 pop	 ecx
  0006e	5f		 pop	 edi
  0006f	5e		 pop	 esi
  00070	5b		 pop	 ebx
  00071	8b e5		 mov	 esp, ebp
  00073	5d		 pop	 ebp
  00074	c2 04 00	 ret	 4
$LN2@vector:
  00077	e8 00 00 00 00	 call	 ??1i3NetworkPacket@@UAE@XZ ; i3NetworkPacket::~i3NetworkPacket
  0007c	85 ff		 test	 edi, edi
  0007e	74 1e		 je	 SHORT $LN6@vector
  00080	f6 c3 04	 test	 bl, 4
  00083	75 0b		 jne	 SHORT $LN5@vector
  00085	56		 push	 esi
  00086	e8 00 00 00 00	 call	 ??3i3ElementBase@@SAXPAX@Z ; i3ElementBase::operator delete
  0008b	83 c4 04	 add	 esp, 4
  0008e	eb 0e		 jmp	 SHORT $LN6@vector
$LN5@vector:

  00090	68 fc 22 00 00	 push	 8956			; 000022fcH
  00095	56		 push	 esi
  00096	e8 00 00 00 00	 call	 ??3@YAXPAXI@Z		; operator delete
  0009b	83 c4 08	 add	 esp, 8
$LN6@vector:
  0009e	8b c6		 mov	 eax, esi
  000a0	8b 4d f4	 mov	 ecx, DWORD PTR __$EHRec$[ebp]
  000a3	64 89 0d 00 00
	00 00		 mov	 DWORD PTR fs:0, ecx
  000aa	59		 pop	 ecx
  000ab	5f		 pop	 edi
  000ac	5e		 pop	 esi
  000ad	5b		 pop	 ebx
  000ae	8b e5		 mov	 esp, ebp
  000b0	5d		 pop	 ebp
  000b1	c2 04 00	 ret	 4
  000b4	cc		 int	 3
  000b5	cc		 int	 3
  000b6	cc		 int	 3
  000b7	cc		 int	 3
  000b8	cc		 int	 3
_TEXT	ENDS
;	COMDAT text$x
text$x	SEGMENT
__ehhandler$??_Ei3NetworkPacket@@UAEPAXI@Z:
  00000	90		 npad	 1
  00001	90		 npad	 1
  00002	8b 54 24 08	 mov	 edx, DWORD PTR [esp+8]
  00006	8d 42 0c	 lea	 eax, DWORD PTR [edx+12]
  00009	8b 4a f0	 mov	 ecx, DWORD PTR [edx-16]
  0000c	33 c8		 xor	 ecx, eax
  0000e	e8 00 00 00 00	 call	 @__security_check_cookie@4
  00013	b8 00 00 00 00	 mov	 eax, OFFSET __ehfuncinfo$??_Ei3NetworkPacket@@UAEPAXI@Z
  00018	e9 00 00 00 00	 jmp	 ___CxxFrameHandler3
text$x	ENDS
??_Ei3NetworkPacket@@UAEPAXI@Z ENDP			; i3NetworkPacket::`vector deleting destructor'
; Function compile flags: /Ogtp
; File E:\Proyectos\JuegosOnlineproyectos\PB\pbblow\Piercing Blow Remake\i3Server\src\i3Base\i3NetworkTCPSocket.cpp
;	COMDAT ??_Gi3NetworkPacket@@UAEPAXI@Z
_TEXT	SEGMENT
___flags$ = 8						; size = 4
??_Gi3NetworkPacket@@UAEPAXI@Z PROC			; i3NetworkPacket::`scalar deleting destructor', COMDAT
; _this$ = ecx
  00000	55		 push	 ebp
  00001	8b ec		 mov	 ebp, esp
  00003	56		 push	 esi
  00004	8b f1		 mov	 esi, ecx
  00006	e8 00 00 00 00	 call	 ??1i3NetworkPacket@@UAE@XZ ; i3NetworkPacket::~i3NetworkPacket
  0000b	8b 45 08	 mov	 eax, DWORD PTR ___flags$[ebp]
  0000e	a8 01		 test	 al, 1
  00010	74 22		 je	 SHORT $LN10@scalar
  00012	a8 04		 test	 al, 4
  00014	75 10		 jne	 SHORT $LN3@scalar
  00016	56		 push	 esi
  00017	e8 00 00 00 00	 call	 ??3i3ElementBase@@SAXPAX@Z ; i3ElementBase::operator delete
  0001c	83 c4 04	 add	 esp, 4
  0001f	8b c6		 mov	 eax, esi
  00021	5e		 pop	 esi
  00022	5d		 pop	 ebp
  00023	c2 04 00	 ret	 4
$LN3@scalar:

  00026	68 fc 22 00 00	 push	 8956			; 000022fcH
  0002b	56		 push	 esi
  0002c	e8 00 00 00 00	 call	 ??3@YAXPAXI@Z		; operator delete
  00031	83 c4 08	 add	 esp, 8
$LN10@scalar:
  00034	8b c6		 mov	 eax, esi
  00036	5e		 pop	 esi
  00037	5d		 pop	 ebp
  00038	c2 04 00	 ret	 4
??_Gi3NetworkPacket@@UAEPAXI@Z ENDP			; i3NetworkPacket::`scalar deleting destructor'
_TEXT	ENDS
; Function compile flags: /Ogtp
;	COMDAT ??4i3NetworkPacket@@QAEAAV0@ABV0@@Z
_TEXT	SEGMENT
___that$ = 8						; size = 4
??4i3NetworkPacket@@QAEAAV0@ABV0@@Z PROC		; i3NetworkPacket::operator=, COMDAT
; _this$ = ecx
  00000	55		 push	 ebp
  00001	8b ec		 mov	 ebp, esp
  00003	8b d1		 mov	 edx, ecx
  00005	56		 push	 esi
  00006	8b 75 08	 mov	 esi, DWORD PTR ___that$[ebp]
  00009	8b 46 04	 mov	 eax, DWORD PTR [esi+4]
  0000c	89 42 04	 mov	 DWORD PTR [edx+4], eax
  0000f	8b 46 08	 mov	 eax, DWORD PTR [esi+8]
  00012	89 42 08	 mov	 DWORD PTR [edx+8], eax
  00015	8b 46 0c	 mov	 eax, DWORD PTR [esi+12]
  00018	89 42 0c	 mov	 DWORD PTR [edx+12], eax
  0001b	8b 46 10	 mov	 eax, DWORD PTR [esi+16]
  0001e	8b 4e 14	 mov	 ecx, DWORD PTR [esi+20]
  00021	89 42 10	 mov	 DWORD PTR [edx+16], eax
  00024	33 c0		 xor	 eax, eax
  00026	89 4a 14	 mov	 DWORD PTR [edx+20], ecx
  00029	8d a4 24 00 00
	00 00		 npad	 7
$LL4@operator:
  00030	8a 4c 06 18	 mov	 cl, BYTE PTR [esi+eax+24]
  00034	88 4c 02 18	 mov	 BYTE PTR [edx+eax+24], cl
  00038	40		 inc	 eax
  00039	3d d0 22 00 00	 cmp	 eax, 8912		; 000022d0H
  0003e	72 f0		 jb	 SHORT $LL4@operator
  00040	8b 86 e8 22 00
	00		 mov	 eax, DWORD PTR [esi+8936]
  00046	89 82 e8 22 00
	00		 mov	 DWORD PTR [edx+8936], eax
  0004c	8b 86 ec 22 00
	00		 mov	 eax, DWORD PTR [esi+8940]
  00052	89 82 ec 22 00
	00		 mov	 DWORD PTR [edx+8940], eax
  00058	8b 86 f0 22 00
	00		 mov	 eax, DWORD PTR [esi+8944]
  0005e	89 82 f0 22 00
	00		 mov	 DWORD PTR [edx+8944], eax
  00064	8b 86 f4 22 00
	00		 mov	 eax, DWORD PTR [esi+8948]
  0006a	89 82 f4 22 00
	00		 mov	 DWORD PTR [edx+8948], eax
  00070	8b 86 f8 22 00
	00		 mov	 eax, DWORD PTR [esi+8952]
  00076	89 82 f8 22 00
	00		 mov	 DWORD PTR [edx+8952], eax
  0007c	8b c2		 mov	 eax, edx
  0007e	5e		 pop	 esi
  0007f	5d		 pop	 ebp
  00080	c2 04 00	 ret	 4
??4i3NetworkPacket@@QAEAAV0@ABV0@@Z ENDP		; i3NetworkPacket::operator=
_TEXT	ENDS
; Function compile flags: /Ogtp
;	COMDAT ??0i3NetworkPacket@@QAE@ABV0@@Z
_TEXT	SEGMENT
___that$ = 8						; size = 4
??0i3NetworkPacket@@QAE@ABV0@@Z PROC			; i3NetworkPacket::i3NetworkPacket, COMDAT
; _this$ = ecx
  00000	55		 push	 ebp
  00001	8b ec		 mov	 ebp, esp
  00003	56		 push	 esi
  00004	8b 75 08	 mov	 esi, DWORD PTR ___that$[ebp]
  00007	57		 push	 edi
  00008	8b f9		 mov	 edi, ecx
  0000a	68 d0 22 00 00	 push	 8912			; 000022d0H
  0000f	c7 07 00 00 00
	00		 mov	 DWORD PTR [edi], OFFSET ??_7i3ElementBase@@6B@
  00015	8b 46 04	 mov	 eax, DWORD PTR [esi+4]
  00018	89 47 04	 mov	 DWORD PTR [edi+4], eax
  0001b	8b 46 08	 mov	 eax, DWORD PTR [esi+8]
  0001e	89 47 08	 mov	 DWORD PTR [edi+8], eax
  00021	8b 46 0c	 mov	 eax, DWORD PTR [esi+12]
  00024	89 47 0c	 mov	 DWORD PTR [edi+12], eax
  00027	c7 07 00 00 00
	00		 mov	 DWORD PTR [edi], OFFSET ??_7i3NetworkPacket@@6B@
  0002d	8b 46 10	 mov	 eax, DWORD PTR [esi+16]
  00030	8b 4e 14	 mov	 ecx, DWORD PTR [esi+20]
  00033	89 47 10	 mov	 DWORD PTR [edi+16], eax
  00036	8d 46 18	 lea	 eax, DWORD PTR [esi+24]
  00039	50		 push	 eax
  0003a	8d 47 18	 lea	 eax, DWORD PTR [edi+24]
  0003d	89 4f 14	 mov	 DWORD PTR [edi+20], ecx
  00040	50		 push	 eax
  00041	e8 00 00 00 00	 call	 _memcpy
  00046	8b 86 e8 22 00
	00		 mov	 eax, DWORD PTR [esi+8936]
  0004c	83 c4 0c	 add	 esp, 12			; 0000000cH
  0004f	89 87 e8 22 00
	00		 mov	 DWORD PTR [edi+8936], eax
  00055	8b 86 ec 22 00
	00		 mov	 eax, DWORD PTR [esi+8940]
  0005b	89 87 ec 22 00
	00		 mov	 DWORD PTR [edi+8940], eax
  00061	8b 86 f0 22 00
	00		 mov	 eax, DWORD PTR [esi+8944]
  00067	89 87 f0 22 00
	00		 mov	 DWORD PTR [edi+8944], eax
  0006d	8b 86 f4 22 00
	00		 mov	 eax, DWORD PTR [esi+8948]
  00073	89 87 f4 22 00
	00		 mov	 DWORD PTR [edi+8948], eax
  00079	8b 86 f8 22 00
	00		 mov	 eax, DWORD PTR [esi+8952]
  0007f	89 87 f8 22 00
	00		 mov	 DWORD PTR [edi+8952], eax
  00085	8b c7		 mov	 eax, edi
  00087	5f		 pop	 edi
  00088	5e		 pop	 esi
  00089	5d		 pop	 ebp
  0008a	c2 04 00	 ret	 4
??0i3NetworkPacket@@QAE@ABV0@@Z ENDP			; i3NetworkPacket::i3NetworkPacket
_TEXT	ENDS
; Function compile flags: /Ogtp
; File E:\Proyectos\JuegosOnlineproyectos\PB\pbblow\Piercing Blow Remake\i3Server\include\i3Base\i3NetworkPacket.h
;	COMDAT ?GetFieldBuffer@i3NetworkPacket@@QAEPADXZ
_TEXT	SEGMENT
?GetFieldBuffer@i3NetworkPacket@@QAEPADXZ PROC		; i3NetworkPacket::GetFieldBuffer, COMDAT
; _this$ = ecx

; 52   : 	char	*	GetFieldBuffer(void)			{ return m_pDataField; }

  00000	8b 81 e8 22 00
	00		 mov	 eax, DWORD PTR [ecx+8936]
  00006	c3		 ret	 0
?GetFieldBuffer@i3NetworkPacket@@QAEPADXZ ENDP		; i3NetworkPacket::GetFieldBuffer
_TEXT	ENDS
; Function compile flags: /Ogtp
; File E:\Proyectos\JuegosOnlineproyectos\PB\pbblow\Piercing Blow Remake\i3Server\include\i3Base\i3NetworkPacket.h
;	COMDAT ?GetPacketBuffer@i3NetworkPacket@@QAEPADXZ
_TEXT	SEGMENT
?GetPacketBuffer@i3NetworkPacket@@QAEPADXZ PROC		; i3NetworkPacket::GetPacketBuffer, COMDAT
; _this$ = ecx

; 51   : 	char	*	GetPacketBuffer(void)			{ return m_pPacketBuffer; } 

  00000	8d 41 18	 lea	 eax, DWORD PTR [ecx+24]
  00003	c3		 ret	 0
?GetPacketBuffer@i3NetworkPacket@@QAEPADXZ ENDP		; i3NetworkPacket::GetPacketBuffer
_TEXT	ENDS
; Function compile flags: /Ogtp
; File E:\Proyectos\JuegosOnlineproyectos\PB\pbblow\Piercing Blow Remake\i3Server\include\i3Base\i3NetworkPacket.h
;	COMDAT ?GetDataFieldSize@i3NetworkPacket@@QAEGXZ
_TEXT	SEGMENT
?GetDataFieldSize@i3NetworkPacket@@QAEGXZ PROC		; i3NetworkPacket::GetDataFieldSize, COMDAT
; _this$ = ecx

; 50   : 	UINT16		GetDataFieldSize(void)			{ return (*m_PacketHeader.pDataSize) & 0x7FFF ; }

  00000	8b 41 10	 mov	 eax, DWORD PTR [ecx+16]
  00003	b9 ff 7f 00 00	 mov	 ecx, 32767		; 00007fffH
  00008	66 8b 00	 mov	 ax, WORD PTR [eax]
  0000b	66 23 c1	 and	 ax, cx
  0000e	c3		 ret	 0
?GetDataFieldSize@i3NetworkPacket@@QAEGXZ ENDP		; i3NetworkPacket::GetDataFieldSize
_TEXT	ENDS
; Function compile flags: /Ogtp
; File E:\Proyectos\JuegosOnlineproyectos\PB\pbblow\Piercing Blow Remake\i3Server\include\i3Base\i3NetworkPacket.h
;	COMDAT ?GetProtocolID@i3NetworkPacket@@QAEGXZ
_TEXT	SEGMENT
?GetProtocolID@i3NetworkPacket@@QAEGXZ PROC		; i3NetworkPacket::GetProtocolID, COMDAT
; _this$ = ecx

; 49   : 	PROTOCOL	GetProtocolID(void)				{ return * m_PacketHeader.pProtocolID; }

  00000	8b 41 14	 mov	 eax, DWORD PTR [ecx+20]
  00003	66 8b 00	 mov	 ax, WORD PTR [eax]
  00006	c3		 ret	 0
?GetProtocolID@i3NetworkPacket@@QAEGXZ ENDP		; i3NetworkPacket::GetProtocolID
_TEXT	ENDS
; Function compile flags: /Ogtp
; File E:\Proyectos\JuegosOnlineproyectos\PB\pbblow\Piercing Blow Remake\i3Server\include\i3Base\i3NetworkPacket.h
;	COMDAT ?GetReceivedSize@i3NetworkPacket@@QAEHXZ
_TEXT	SEGMENT
?GetReceivedSize@i3NetworkPacket@@QAEHXZ PROC		; i3NetworkPacket::GetReceivedSize, COMDAT
; _this$ = ecx

; 48   : 	INT32		GetReceivedSize(void)			{ return m_Size; }

  00000	8b 81 f8 22 00
	00		 mov	 eax, DWORD PTR [ecx+8952]
  00006	c3		 ret	 0
?GetReceivedSize@i3NetworkPacket@@QAEHXZ ENDP		; i3NetworkPacket::GetReceivedSize
_TEXT	ENDS
; Function compile flags: /Ogtp
; File E:\Proyectos\JuegosOnlineproyectos\PB\pbblow\Piercing Blow Remake\i3Server\include\i3Base\i3NetworkPacket.h
;	COMDAT ?GetPacketSize@i3NetworkPacket@@QAEHXZ
_TEXT	SEGMENT
?GetPacketSize@i3NetworkPacket@@QAEHXZ PROC		; i3NetworkPacket::GetPacketSize, COMDAT
; _this$ = ecx

; 50   : 	UINT16		GetDataFieldSize(void)			{ return (*m_PacketHeader.pDataSize) & 0x7FFF ; }

  00000	8b 41 10	 mov	 eax, DWORD PTR [ecx+16]
  00003	0f b7 00	 movzx	 eax, WORD PTR [eax]
  00006	25 ff 7f 00 00	 and	 eax, 32767		; 00007fffH

; 47   : 	INT32		GetPacketSize(void)				{ return ( GetDataFieldSize() + PACKETHEADERSIZE ); }	

  0000b	83 c0 04	 add	 eax, 4
  0000e	c3		 ret	 0
?GetPacketSize@i3NetworkPacket@@QAEHXZ ENDP		; i3NetworkPacket::GetPacketSize
_TEXT	ENDS
; Function compile flags: /Ogtp
; File E:\Proyectos\JuegosOnlineproyectos\PB\pbblow\Piercing Blow Remake\i3Server\include\i3Base\i3NetworkPacket.h
;	COMDAT ?SetProtocol@i3NetworkPacket@@QAEXG@Z
_TEXT	SEGMENT
_ProtocolID$ = 8					; size = 2
?SetProtocol@i3NetworkPacket@@QAEXG@Z PROC		; i3NetworkPacket::SetProtocol, COMDAT
; _this$ = ecx

; 44   : 	void		SetProtocol(PROTOCOL ProtocolID){ *m_PacketHeader.pProtocolID = ProtocolID; }

  00000	55		 push	 ebp
  00001	8b ec		 mov	 ebp, esp
  00003	8b 49 14	 mov	 ecx, DWORD PTR [ecx+20]
  00006	66 8b 45 08	 mov	 ax, WORD PTR _ProtocolID$[ebp]
  0000a	66 89 01	 mov	 WORD PTR [ecx], ax
  0000d	5d		 pop	 ebp
  0000e	c2 04 00	 ret	 4
?SetProtocol@i3NetworkPacket@@QAEXG@Z ENDP		; i3NetworkPacket::SetProtocol
_TEXT	ENDS
; Function compile flags: /Ogtp
; File E:\Proyectos\JuegosOnlineproyectos\PB\pbblow\Piercing Blow Remake\i3Server\include\i3Base\i3NetworkPacket.h
;	COMDAT ?GetClassMeta@i3NetworkPacket@@SAPAVi3ClassMeta@@XZ
_TEXT	SEGMENT
?GetClassMeta@i3NetworkPacket@@SAPAVi3ClassMeta@@XZ PROC ; i3NetworkPacket::GetClassMeta, COMDAT

; 22   : 	I3_CLASS_DEFINE( i3NetworkPacket ); 

  00000	a1 00 00 00 00	 mov	 eax, DWORD PTR ?s_pClassMetai3NetworkPacket@i3NetworkPacket@@2PAVi3ClassMeta@@A ; i3NetworkPacket::s_pClassMetai3NetworkPacket
  00005	c3		 ret	 0
?GetClassMeta@i3NetworkPacket@@SAPAVi3ClassMeta@@XZ ENDP ; i3NetworkPacket::GetClassMeta
_TEXT	ENDS
; Function compile flags: /Ogtp
;	COMDAT ??_Ei3MemoryPool@@UAEPAXI@Z
_TEXT	SEGMENT
__$EHRec$ = -12						; size = 12
___flags$ = 8						; size = 4
??_Ei3MemoryPool@@UAEPAXI@Z PROC			; i3MemoryPool::`vector deleting destructor', COMDAT
; _this$ = ecx
  00000	55		 push	 ebp
  00001	8b ec		 mov	 ebp, esp
  00003	6a ff		 push	 -1
  00005	68 00 00 00 00	 push	 __ehhandler$??_Ei3MemoryPool@@UAEPAXI@Z
  0000a	64 a1 00 00 00
	00		 mov	 eax, DWORD PTR fs:0
  00010	50		 push	 eax
  00011	53		 push	 ebx
  00012	56		 push	 esi
  00013	57		 push	 edi
  00014	a1 00 00 00 00	 mov	 eax, DWORD PTR ___security_cookie
  00019	33 c5		 xor	 eax, ebp
  0001b	50		 push	 eax
  0001c	8d 45 f4	 lea	 eax, DWORD PTR __$EHRec$[ebp]
  0001f	64 a3 00 00 00
	00		 mov	 DWORD PTR fs:0, eax
  00025	8b f1		 mov	 esi, ecx
  00027	8b 45 08	 mov	 eax, DWORD PTR ___flags$[ebp]
  0002a	8b f8		 mov	 edi, eax
  0002c	83 e7 01	 and	 edi, 1
  0002f	a8 02		 test	 al, 2
  00031	74 40		 je	 SHORT $LN2@vector
  00033	68 00 00 00 00	 push	 OFFSET ??1i3MemoryPool@@UAE@XZ ; i3MemoryPool::~i3MemoryPool
  00038	ff 76 fc	 push	 DWORD PTR [esi-4]
  0003b	8d 5e fc	 lea	 ebx, DWORD PTR [esi-4]
  0003e	6a 04		 push	 4
  00040	56		 push	 esi
  00041	e8 00 00 00 00	 call	 ??_M@YGXPAXIIP6EX0@Z@Z
  00046	85 ff		 test	 edi, edi
  00048	74 13		 je	 SHORT $LN3@vector
  0004a	8b 0b		 mov	 ecx, DWORD PTR [ebx]
  0004c	8d 0c 8d 04 00
	00 00		 lea	 ecx, DWORD PTR [ecx*4+4]
  00053	51		 push	 ecx
  00054	53		 push	 ebx
  00055	e8 00 00 00 00	 call	 ??_V@YAXPAXI@Z		; operator delete[]
  0005a	83 c4 08	 add	 esp, 8
$LN3@vector:
  0005d	8b c3		 mov	 eax, ebx
  0005f	8b 4d f4	 mov	 ecx, DWORD PTR __$EHRec$[ebp]
  00062	64 89 0d 00 00
	00 00		 mov	 DWORD PTR fs:0, ecx
  00069	59		 pop	 ecx
  0006a	5f		 pop	 edi
  0006b	5e		 pop	 esi
  0006c	5b		 pop	 ebx
  0006d	8b e5		 mov	 esp, ebp
  0006f	5d		 pop	 ebp
  00070	c2 04 00	 ret	 4
$LN2@vector:
  00073	e8 00 00 00 00	 call	 ??1i3MemoryPool@@UAE@XZ	; i3MemoryPool::~i3MemoryPool
  00078	85 ff		 test	 edi, edi
  0007a	74 0b		 je	 SHORT $LN4@vector
  0007c	6a 04		 push	 4
  0007e	56		 push	 esi
  0007f	e8 00 00 00 00	 call	 ??3@YAXPAXI@Z		; operator delete
  00084	83 c4 08	 add	 esp, 8
$LN4@vector:
  00087	8b c6		 mov	 eax, esi
  00089	8b 4d f4	 mov	 ecx, DWORD PTR __$EHRec$[ebp]
  0008c	64 89 0d 00 00
	00 00		 mov	 DWORD PTR fs:0, ecx
  00093	59		 pop	 ecx
  00094	5f		 pop	 edi
  00095	5e		 pop	 esi
  00096	5b		 pop	 ebx
  00097	8b e5		 mov	 esp, ebp
  00099	5d		 pop	 ebp
  0009a	c2 04 00	 ret	 4
  0009d	cc		 int	 3
  0009e	cc		 int	 3
  0009f	cc		 int	 3
  000a0	cc		 int	 3
  000a1	cc		 int	 3
_TEXT	ENDS
;	COMDAT text$x
text$x	SEGMENT
__ehhandler$??_Ei3MemoryPool@@UAEPAXI@Z:
  00000	90		 npad	 1
  00001	90		 npad	 1
  00002	8b 54 24 08	 mov	 edx, DWORD PTR [esp+8]
  00006	8d 42 0c	 lea	 eax, DWORD PTR [edx+12]
  00009	8b 4a f0	 mov	 ecx, DWORD PTR [edx-16]
  0000c	33 c8		 xor	 ecx, eax
  0000e	e8 00 00 00 00	 call	 @__security_check_cookie@4
  00013	b8 00 00 00 00	 mov	 eax, OFFSET __ehfuncinfo$??_Ei3MemoryPool@@UAEPAXI@Z
  00018	e9 00 00 00 00	 jmp	 ___CxxFrameHandler3
text$x	ENDS
??_Ei3MemoryPool@@UAEPAXI@Z ENDP			; i3MemoryPool::`vector deleting destructor'
; Function compile flags: /Ogtp
;	COMDAT ??_Gi3MemoryPool@@UAEPAXI@Z
_TEXT	SEGMENT
___flags$ = 8						; size = 4
??_Gi3MemoryPool@@UAEPAXI@Z PROC			; i3MemoryPool::`scalar deleting destructor', COMDAT
; _this$ = ecx
  00000	55		 push	 ebp
  00001	8b ec		 mov	 ebp, esp
  00003	56		 push	 esi
  00004	8b f1		 mov	 esi, ecx
  00006	e8 00 00 00 00	 call	 ??1i3MemoryPool@@UAE@XZ	; i3MemoryPool::~i3MemoryPool
  0000b	f6 45 08 01	 test	 BYTE PTR ___flags$[ebp], 1
  0000f	74 0b		 je	 SHORT $LN5@scalar
  00011	6a 04		 push	 4
  00013	56		 push	 esi
  00014	e8 00 00 00 00	 call	 ??3@YAXPAXI@Z		; operator delete
  00019	83 c4 08	 add	 esp, 8
$LN5@scalar:
  0001c	8b c6		 mov	 eax, esi
  0001e	5e		 pop	 esi
  0001f	5d		 pop	 ebp
  00020	c2 04 00	 ret	 4
??_Gi3MemoryPool@@UAEPAXI@Z ENDP			; i3MemoryPool::`scalar deleting destructor'
_TEXT	ENDS
; Function compile flags: /Ogtp
;	COMDAT ??4i3MemoryPool@@QAEAAV0@ABV0@@Z
_TEXT	SEGMENT
___that$ = 8						; size = 4
??4i3MemoryPool@@QAEAAV0@ABV0@@Z PROC			; i3MemoryPool::operator=, COMDAT
; _this$ = ecx
  00000	8b c1		 mov	 eax, ecx
  00002	c2 04 00	 ret	 4
??4i3MemoryPool@@QAEAAV0@ABV0@@Z ENDP			; i3MemoryPool::operator=
_TEXT	ENDS
; Function compile flags: /Ogtp
;	COMDAT ??0i3MemoryPool@@QAE@ABV0@@Z
_TEXT	SEGMENT
___that$ = 8						; size = 4
??0i3MemoryPool@@QAE@ABV0@@Z PROC			; i3MemoryPool::i3MemoryPool, COMDAT
; _this$ = ecx
  00000	c7 01 00 00 00
	00		 mov	 DWORD PTR [ecx], OFFSET ??_7i3MemoryPool@@6B@
  00006	8b c1		 mov	 eax, ecx
  00008	c2 04 00	 ret	 4
??0i3MemoryPool@@QAE@ABV0@@Z ENDP			; i3MemoryPool::i3MemoryPool
_TEXT	ENDS
; Function compile flags: /Ogtp
; File E:\Proyectos\JuegosOnlineproyectos\PB\pbblow\Piercing Blow Remake\i3Server\src\i3Base\i3NetworkTCPSocket.cpp
;	COMDAT ??_Ei3ElementBase@@UAEPAXI@Z
_TEXT	SEGMENT
__$EHRec$ = -12						; size = 12
___flags$ = 8						; size = 4
??_Ei3ElementBase@@UAEPAXI@Z PROC			; i3ElementBase::`vector deleting destructor', COMDAT
; _this$ = ecx
  00000	55		 push	 ebp
  00001	8b ec		 mov	 ebp, esp
  00003	6a ff		 push	 -1
  00005	68 00 00 00 00	 push	 __ehhandler$??_Ei3ElementBase@@UAEPAXI@Z
  0000a	64 a1 00 00 00
	00		 mov	 eax, DWORD PTR fs:0
  00010	50		 push	 eax
  00011	53		 push	 ebx
  00012	56		 push	 esi
  00013	57		 push	 edi
  00014	a1 00 00 00 00	 mov	 eax, DWORD PTR ___security_cookie
  00019	33 c5		 xor	 eax, ebp
  0001b	50		 push	 eax
  0001c	8d 45 f4	 lea	 eax, DWORD PTR __$EHRec$[ebp]
  0001f	64 a3 00 00 00
	00		 mov	 DWORD PTR fs:0, eax
  00025	8b f1		 mov	 esi, ecx
  00027	8b 5d 08	 mov	 ebx, DWORD PTR ___flags$[ebp]
  0002a	8b fb		 mov	 edi, ebx
  0002c	83 e7 01	 and	 edi, 1
  0002f	f6 c3 02	 test	 bl, 2
  00032	74 3f		 je	 SHORT $LN2@vector
  00034	68 00 00 00 00	 push	 OFFSET ??1i3ElementBase@@UAE@XZ ; i3ElementBase::~i3ElementBase
  00039	ff 76 fc	 push	 DWORD PTR [esi-4]
  0003c	8d 5e fc	 lea	 ebx, DWORD PTR [esi-4]
  0003f	6a 10		 push	 16			; 00000010H
  00041	56		 push	 esi
  00042	e8 00 00 00 00	 call	 ??_M@YGXPAXIIP6EX0@Z@Z
  00047	85 ff		 test	 edi, edi
  00049	74 12		 je	 SHORT $LN3@vector
  0004b	8b 0b		 mov	 ecx, DWORD PTR [ebx]
  0004d	c1 e1 04	 shl	 ecx, 4
  00050	83 c1 04	 add	 ecx, 4
  00053	51		 push	 ecx
  00054	53		 push	 ebx
  00055	e8 00 00 00 00	 call	 ??_V@YAXPAXI@Z		; operator delete[]
  0005a	83 c4 08	 add	 esp, 8
$LN3@vector:
  0005d	8b c3		 mov	 eax, ebx
  0005f	8b 4d f4	 mov	 ecx, DWORD PTR __$EHRec$[ebp]
  00062	64 89 0d 00 00
	00 00		 mov	 DWORD PTR fs:0, ecx
  00069	59		 pop	 ecx
  0006a	5f		 pop	 edi
  0006b	5e		 pop	 esi
  0006c	5b		 pop	 ebx
  0006d	8b e5		 mov	 esp, ebp
  0006f	5d		 pop	 ebp
  00070	c2 04 00	 ret	 4
$LN2@vector:
  00073	e8 00 00 00 00	 call	 ??1i3ElementBase@@UAE@XZ ; i3ElementBase::~i3ElementBase
  00078	85 ff		 test	 edi, edi
  0007a	74 1b		 je	 SHORT $LN6@vector
  0007c	f6 c3 04	 test	 bl, 4
  0007f	75 0b		 jne	 SHORT $LN5@vector
  00081	56		 push	 esi
  00082	e8 00 00 00 00	 call	 ??3i3ElementBase@@SAXPAX@Z ; i3ElementBase::operator delete
  00087	83 c4 04	 add	 esp, 4
  0008a	eb 0b		 jmp	 SHORT $LN6@vector
$LN5@vector:

  0008c	6a 10		 push	 16			; 00000010H
  0008e	56		 push	 esi
  0008f	e8 00 00 00 00	 call	 ??3@YAXPAXI@Z		; operator delete
  00094	83 c4 08	 add	 esp, 8
$LN6@vector:
  00097	8b c6		 mov	 eax, esi
  00099	8b 4d f4	 mov	 ecx, DWORD PTR __$EHRec$[ebp]
  0009c	64 89 0d 00 00
	00 00		 mov	 DWORD PTR fs:0, ecx
  000a3	59		 pop	 ecx
  000a4	5f		 pop	 edi
  000a5	5e		 pop	 esi
  000a6	5b		 pop	 ebx
  000a7	8b e5		 mov	 esp, ebp
  000a9	5d		 pop	 ebp
  000aa	c2 04 00	 ret	 4
  000ad	cc		 int	 3
  000ae	cc		 int	 3
  000af	cc		 int	 3
  000b0	cc		 int	 3
  000b1	cc		 int	 3
_TEXT	ENDS
;	COMDAT text$x
text$x	SEGMENT
__ehhandler$??_Ei3ElementBase@@UAEPAXI@Z:
  00000	90		 npad	 1
  00001	90		 npad	 1
  00002	8b 54 24 08	 mov	 edx, DWORD PTR [esp+8]
  00006	8d 42 0c	 lea	 eax, DWORD PTR [edx+12]
  00009	8b 4a f0	 mov	 ecx, DWORD PTR [edx-16]
  0000c	33 c8		 xor	 ecx, eax
  0000e	e8 00 00 00 00	 call	 @__security_check_cookie@4
  00013	b8 00 00 00 00	 mov	 eax, OFFSET __ehfuncinfo$??_Ei3ElementBase@@UAEPAXI@Z
  00018	e9 00 00 00 00	 jmp	 ___CxxFrameHandler3
text$x	ENDS
??_Ei3ElementBase@@UAEPAXI@Z ENDP			; i3ElementBase::`vector deleting destructor'
; Function compile flags: /Ogtp
; File E:\Proyectos\JuegosOnlineproyectos\PB\pbblow\Piercing Blow Remake\i3Server\src\i3Base\i3NetworkTCPSocket.cpp
;	COMDAT ??_Gi3ElementBase@@UAEPAXI@Z
_TEXT	SEGMENT
___flags$ = 8						; size = 4
??_Gi3ElementBase@@UAEPAXI@Z PROC			; i3ElementBase::`scalar deleting destructor', COMDAT
; _this$ = ecx
  00000	55		 push	 ebp
  00001	8b ec		 mov	 ebp, esp
  00003	56		 push	 esi
  00004	8b f1		 mov	 esi, ecx
  00006	e8 00 00 00 00	 call	 ??1i3ElementBase@@UAE@XZ ; i3ElementBase::~i3ElementBase
  0000b	8b 45 08	 mov	 eax, DWORD PTR ___flags$[ebp]
  0000e	a8 01		 test	 al, 1
  00010	74 1f		 je	 SHORT $LN10@scalar
  00012	a8 04		 test	 al, 4
  00014	75 10		 jne	 SHORT $LN3@scalar
  00016	56		 push	 esi
  00017	e8 00 00 00 00	 call	 ??3i3ElementBase@@SAXPAX@Z ; i3ElementBase::operator delete
  0001c	83 c4 04	 add	 esp, 4
  0001f	8b c6		 mov	 eax, esi
  00021	5e		 pop	 esi
  00022	5d		 pop	 ebp
  00023	c2 04 00	 ret	 4
$LN3@scalar:

  00026	6a 10		 push	 16			; 00000010H
  00028	56		 push	 esi
  00029	e8 00 00 00 00	 call	 ??3@YAXPAXI@Z		; operator delete
  0002e	83 c4 08	 add	 esp, 8
$LN10@scalar:
  00031	8b c6		 mov	 eax, esi
  00033	5e		 pop	 esi
  00034	5d		 pop	 ebp
  00035	c2 04 00	 ret	 4
??_Gi3ElementBase@@UAEPAXI@Z ENDP			; i3ElementBase::`scalar deleting destructor'
_TEXT	ENDS
; Function compile flags: /Ogtp
;	COMDAT ??4i3ElementBase@@QAEAAV0@ABV0@@Z
_TEXT	SEGMENT
___that$ = 8						; size = 4
??4i3ElementBase@@QAEAAV0@ABV0@@Z PROC			; i3ElementBase::operator=, COMDAT
; _this$ = ecx
  00000	55		 push	 ebp
  00001	8b ec		 mov	 ebp, esp
  00003	8b 55 08	 mov	 edx, DWORD PTR ___that$[ebp]
  00006	8b 42 04	 mov	 eax, DWORD PTR [edx+4]
  00009	89 41 04	 mov	 DWORD PTR [ecx+4], eax
  0000c	8b 42 08	 mov	 eax, DWORD PTR [edx+8]
  0000f	89 41 08	 mov	 DWORD PTR [ecx+8], eax
  00012	8b 42 0c	 mov	 eax, DWORD PTR [edx+12]
  00015	89 41 0c	 mov	 DWORD PTR [ecx+12], eax
  00018	8b c1		 mov	 eax, ecx
  0001a	5d		 pop	 ebp
  0001b	c2 04 00	 ret	 4
??4i3ElementBase@@QAEAAV0@ABV0@@Z ENDP			; i3ElementBase::operator=
_TEXT	ENDS
; Function compile flags: /Ogtp
;	COMDAT ??0i3ElementBase@@QAE@ABV0@@Z
_TEXT	SEGMENT
___that$ = 8						; size = 4
??0i3ElementBase@@QAE@ABV0@@Z PROC			; i3ElementBase::i3ElementBase, COMDAT
; _this$ = ecx
  00000	55		 push	 ebp
  00001	8b ec		 mov	 ebp, esp
  00003	8b 55 08	 mov	 edx, DWORD PTR ___that$[ebp]
  00006	c7 01 00 00 00
	00		 mov	 DWORD PTR [ecx], OFFSET ??_7i3ElementBase@@6B@
  0000c	8b 42 04	 mov	 eax, DWORD PTR [edx+4]
  0000f	89 41 04	 mov	 DWORD PTR [ecx+4], eax
  00012	8b 42 08	 mov	 eax, DWORD PTR [edx+8]
  00015	89 41 08	 mov	 DWORD PTR [ecx+8], eax
  00018	8b 42 0c	 mov	 eax, DWORD PTR [edx+12]
  0001b	89 41 0c	 mov	 DWORD PTR [ecx+12], eax
  0001e	8b c1		 mov	 eax, ecx
  00020	5d		 pop	 ebp
  00021	c2 04 00	 ret	 4
??0i3ElementBase@@QAE@ABV0@@Z ENDP			; i3ElementBase::i3ElementBase
_TEXT	ENDS
; Function compile flags: /Ogtp
; File E:\Proyectos\JuegosOnlineproyectos\PB\pbblow\Piercing Blow Remake\i3Server\include\i3Base\i3ElementBase.h
;	COMDAT ?_internal_SetRefCount@i3ElementBase@@QAEXH@Z
_TEXT	SEGMENT
_cnt$ = 8						; size = 4
?_internal_SetRefCount@i3ElementBase@@QAEXH@Z PROC	; i3ElementBase::_internal_SetRefCount, COMDAT
; _this$ = ecx

; 401  : 	{

  00000	55		 push	 ebp
  00001	8b ec		 mov	 ebp, esp

; 402  : 		m_RefCount = cnt;

  00003	8b 45 08	 mov	 eax, DWORD PTR _cnt$[ebp]
  00006	89 41 04	 mov	 DWORD PTR [ecx+4], eax

; 403  : 	}

  00009	5d		 pop	 ebp
  0000a	c2 04 00	 ret	 4
?_internal_SetRefCount@i3ElementBase@@QAEXH@Z ENDP	; i3ElementBase::_internal_SetRefCount
_TEXT	ENDS
; Function compile flags: /Ogtp
; File E:\Proyectos\JuegosOnlineproyectos\PB\pbblow\Piercing Blow Remake\i3Server\include\i3Base\i3ElementBase.h
;	COMDAT ?AddRef@i3ElementBase@@QAEHXZ
_TEXT	SEGMENT
?AddRef@i3ElementBase@@QAEHXZ PROC			; i3ElementBase::AddRef, COMDAT
; _this$ = ecx

; 392  : 		m_RefCount++;

  00000	ff 41 04	 inc	 DWORD PTR [ecx+4]

; 393  : 
; 394  : 		return m_RefCount;

  00003	8b 41 04	 mov	 eax, DWORD PTR [ecx+4]

; 395  : 	}

  00006	c3		 ret	 0
?AddRef@i3ElementBase@@QAEHXZ ENDP			; i3ElementBase::AddRef
_TEXT	ENDS
; Function compile flags: /Ogtp
; File E:\Proyectos\JuegosOnlineproyectos\PB\pbblow\Piercing Blow Remake\i3Server\include\i3Base\i3ElementBase.h
;	COMDAT ?IsTypeOf@i3ElementBase@@QAE_NPAVi3ClassMeta@@@Z
_TEXT	SEGMENT
_pMeta$ = 8						; size = 4
?IsTypeOf@i3ElementBase@@QAE_NPAVi3ClassMeta@@@Z PROC	; i3ElementBase::IsTypeOf, COMDAT
; _this$ = ecx

; 356  : 	{

  00000	55		 push	 ebp
  00001	8b ec		 mov	 ebp, esp

; 357  : 		return GetMeta()->IsTypeOf( pMeta);

  00003	8b 01		 mov	 eax, DWORD PTR [ecx]
  00005	ff 75 08	 push	 DWORD PTR _pMeta$[ebp]
  00008	ff 10		 call	 DWORD PTR [eax]
  0000a	8b c8		 mov	 ecx, eax
  0000c	e8 00 00 00 00	 call	 ?IsTypeOf@i3ClassMeta@@QAE_NPAV1@@Z ; i3ClassMeta::IsTypeOf

; 358  : 	}

  00011	5d		 pop	 ebp
  00012	c2 04 00	 ret	 4
?IsTypeOf@i3ElementBase@@QAE_NPAVi3ClassMeta@@@Z ENDP	; i3ElementBase::IsTypeOf
_TEXT	ENDS
; Function compile flags: /Ogtp
; File E:\Proyectos\JuegosOnlineproyectos\PB\pbblow\Piercing Blow Remake\i3Server\include\i3Base\i3ElementBase.h
; File E:\Proyectos\JuegosOnlineproyectos\PB\pbblow\Piercing Blow Remake\i3Server\include\i3Base\i3ClassMeta.h
; File E:\Proyectos\JuegosOnlineproyectos\PB\pbblow\Piercing Blow Remake\i3Server\include\i3Base\i3ElementBase.h
;	COMDAT ?IsExactTypeOf@i3ElementBase@@QAE_NPAVi3ClassMeta@@@Z
_TEXT	SEGMENT
_pMeta$ = 8						; size = 4
?IsExactTypeOf@i3ElementBase@@QAE_NPAVi3ClassMeta@@@Z PROC ; i3ElementBase::IsExactTypeOf, COMDAT
; _this$ = ecx

; 351  : 	{

  00000	55		 push	 ebp
  00001	8b ec		 mov	 ebp, esp

; 352  : 		return GetMeta()->IsExactTypeOf( pMeta);

  00003	8b 01		 mov	 eax, DWORD PTR [ecx]
  00005	ff 10		 call	 DWORD PTR [eax]
; File E:\Proyectos\JuegosOnlineproyectos\PB\pbblow\Piercing Blow Remake\i3Server\include\i3Base\i3ClassMeta.h

; 90   : 		return pMeta == this;

  00007	39 45 08	 cmp	 DWORD PTR _pMeta$[ebp], eax
  0000a	0f 94 c0	 sete	 al
; File E:\Proyectos\JuegosOnlineproyectos\PB\pbblow\Piercing Blow Remake\i3Server\include\i3Base\i3ElementBase.h

; 353  : 	}

  0000d	5d		 pop	 ebp
  0000e	c2 04 00	 ret	 4
?IsExactTypeOf@i3ElementBase@@QAE_NPAVi3ClassMeta@@@Z ENDP ; i3ElementBase::IsExactTypeOf
_TEXT	ENDS
; Function compile flags: /Ogtp
; File E:\Proyectos\JuegosOnlineproyectos\PB\pbblow\Piercing Blow Remake\i3Server\include\i3Base\i3ElementBase.h
;	COMDAT ?__GetMemoryPool@i3ElementBase@@QAEPAVi3MemoryPool@@XZ
_TEXT	SEGMENT
?__GetMemoryPool@i3ElementBase@@QAEPAVi3MemoryPool@@XZ PROC ; i3ElementBase::__GetMemoryPool, COMDAT
; _this$ = ecx

; 348  : 	i3MemoryPool *	__GetMemoryPool(void)							{ return m_pPool; }

  00000	8b 41 0c	 mov	 eax, DWORD PTR [ecx+12]
  00003	c3		 ret	 0
?__GetMemoryPool@i3ElementBase@@QAEPAVi3MemoryPool@@XZ ENDP ; i3ElementBase::__GetMemoryPool
_TEXT	ENDS
; Function compile flags: /Ogtp
; File E:\Proyectos\JuegosOnlineproyectos\PB\pbblow\Piercing Blow Remake\i3Server\include\i3Base\i3ElementBase.h
;	COMDAT ?__SetMemoryPool@i3ElementBase@@QAEXPAVi3MemoryPool@@@Z
_TEXT	SEGMENT
_pPool$ = 8						; size = 4
?__SetMemoryPool@i3ElementBase@@QAEXPAVi3MemoryPool@@@Z PROC ; i3ElementBase::__SetMemoryPool, COMDAT
; _this$ = ecx

; 347  : 	void			__SetMemoryPool( i3MemoryPool * pPool)			{ m_pPool = pPool; }

  00000	55		 push	 ebp
  00001	8b ec		 mov	 ebp, esp
  00003	8b 45 08	 mov	 eax, DWORD PTR _pPool$[ebp]
  00006	89 41 0c	 mov	 DWORD PTR [ecx+12], eax
  00009	5d		 pop	 ebp
  0000a	c2 04 00	 ret	 4
?__SetMemoryPool@i3ElementBase@@QAEXPAVi3MemoryPool@@@Z ENDP ; i3ElementBase::__SetMemoryPool
_TEXT	ENDS
; Function compile flags: /Ogtp
; File E:\Proyectos\JuegosOnlineproyectos\PB\pbblow\Piercing Blow Remake\i3Server\include\i3Base\i3ElementBase.h
;	COMDAT ?GetRefCount@i3ElementBase@@QAEHXZ
_TEXT	SEGMENT
?GetRefCount@i3ElementBase@@QAEHXZ PROC			; i3ElementBase::GetRefCount, COMDAT
; _this$ = ecx

; 344  : 		return m_RefCount;

  00000	8b 41 04	 mov	 eax, DWORD PTR [ecx+4]

; 345  : 	}

  00003	c3		 ret	 0
?GetRefCount@i3ElementBase@@QAEHXZ ENDP			; i3ElementBase::GetRefCount
_TEXT	ENDS
; Function compile flags: /Ogtp
; File E:\Proyectos\JuegosOnlineproyectos\PB\pbblow\Piercing Blow Remake\i3Server\include\i3Base\i3ElementBase.h
;	COMDAT ?GetClassMeta@i3ElementBase@@SAPAVi3ClassMeta@@XZ
_TEXT	SEGMENT
?GetClassMeta@i3ElementBase@@SAPAVi3ClassMeta@@XZ PROC	; i3ElementBase::GetClassMeta, COMDAT

; 314  : 	I3_ABSTRACT_CLASS_DEFINE( i3ElementBase);

  00000	a1 00 00 00 00	 mov	 eax, DWORD PTR ?s_pClassMetai3ElementBase@i3ElementBase@@2PAVi3ClassMeta@@A ; i3ElementBase::s_pClassMetai3ElementBase
  00005	c3		 ret	 0
?GetClassMeta@i3ElementBase@@SAPAVi3ClassMeta@@XZ ENDP	; i3ElementBase::GetClassMeta
_TEXT	ENDS
; Function compile flags: /Ogtp
;	COMDAT ??_Ei3ClassMeta@@UAEPAXI@Z
_TEXT	SEGMENT
__$EHRec$ = -12						; size = 12
___flags$ = 8						; size = 4
??_Ei3ClassMeta@@UAEPAXI@Z PROC				; i3ClassMeta::`vector deleting destructor', COMDAT
; _this$ = ecx
  00000	55		 push	 ebp
  00001	8b ec		 mov	 ebp, esp
  00003	6a ff		 push	 -1
  00005	68 00 00 00 00	 push	 __ehhandler$??_Ei3ClassMeta@@UAEPAXI@Z
  0000a	64 a1 00 00 00
	00		 mov	 eax, DWORD PTR fs:0
  00010	50		 push	 eax
  00011	53		 push	 ebx
  00012	56		 push	 esi
  00013	57		 push	 edi
  00014	a1 00 00 00 00	 mov	 eax, DWORD PTR ___security_cookie
  00019	33 c5		 xor	 eax, ebp
  0001b	50		 push	 eax
  0001c	8d 45 f4	 lea	 eax, DWORD PTR __$EHRec$[ebp]
  0001f	64 a3 00 00 00
	00		 mov	 DWORD PTR fs:0, eax
  00025	8b f1		 mov	 esi, ecx
  00027	8b 45 08	 mov	 eax, DWORD PTR ___flags$[ebp]
  0002a	8b f8		 mov	 edi, eax
  0002c	83 e7 01	 and	 edi, 1
  0002f	a8 02		 test	 al, 2
  00031	74 49		 je	 SHORT $LN2@vector
  00033	68 00 00 00 00	 push	 OFFSET ??1i3ClassMeta@@UAE@XZ ; i3ClassMeta::~i3ClassMeta
  00038	ff 76 fc	 push	 DWORD PTR [esi-4]
  0003b	8d 5e fc	 lea	 ebx, DWORD PTR [esi-4]
  0003e	6a 38		 push	 56			; 00000038H
  00040	56		 push	 esi
  00041	e8 00 00 00 00	 call	 ??_M@YGXPAXIIP6EX0@Z@Z
  00046	85 ff		 test	 edi, edi
  00048	74 1c		 je	 SHORT $LN3@vector
  0004a	8b 0b		 mov	 ecx, DWORD PTR [ebx]
  0004c	8d 14 cd 00 00
	00 00		 lea	 edx, DWORD PTR [ecx*8]
  00053	2b d1		 sub	 edx, ecx
  00055	8d 0c d5 04 00
	00 00		 lea	 ecx, DWORD PTR [edx*8+4]
  0005c	51		 push	 ecx
  0005d	53		 push	 ebx
  0005e	e8 00 00 00 00	 call	 ??_V@YAXPAXI@Z		; operator delete[]
  00063	83 c4 08	 add	 esp, 8
$LN3@vector:
  00066	8b c3		 mov	 eax, ebx
  00068	8b 4d f4	 mov	 ecx, DWORD PTR __$EHRec$[ebp]
  0006b	64 89 0d 00 00
	00 00		 mov	 DWORD PTR fs:0, ecx
  00072	59		 pop	 ecx
  00073	5f		 pop	 edi
  00074	5e		 pop	 esi
  00075	5b		 pop	 ebx
  00076	8b e5		 mov	 esp, ebp
  00078	5d		 pop	 ebp
  00079	c2 04 00	 ret	 4
$LN2@vector:
  0007c	e8 00 00 00 00	 call	 ??1i3ClassMeta@@UAE@XZ	; i3ClassMeta::~i3ClassMeta
  00081	85 ff		 test	 edi, edi
  00083	74 0b		 je	 SHORT $LN4@vector
  00085	6a 38		 push	 56			; 00000038H
  00087	56		 push	 esi
  00088	e8 00 00 00 00	 call	 ??3@YAXPAXI@Z		; operator delete
  0008d	83 c4 08	 add	 esp, 8
$LN4@vector:
  00090	8b c6		 mov	 eax, esi
  00092	8b 4d f4	 mov	 ecx, DWORD PTR __$EHRec$[ebp]
  00095	64 89 0d 00 00
	00 00		 mov	 DWORD PTR fs:0, ecx
  0009c	59		 pop	 ecx
  0009d	5f		 pop	 edi
  0009e	5e		 pop	 esi
  0009f	5b		 pop	 ebx
  000a0	8b e5		 mov	 esp, ebp
  000a2	5d		 pop	 ebp
  000a3	c2 04 00	 ret	 4
  000a6	cc		 int	 3
  000a7	cc		 int	 3
  000a8	cc		 int	 3
  000a9	cc		 int	 3
  000aa	cc		 int	 3
_TEXT	ENDS
;	COMDAT text$x
text$x	SEGMENT
__ehhandler$??_Ei3ClassMeta@@UAEPAXI@Z:
  00000	90		 npad	 1
  00001	90		 npad	 1
  00002	8b 54 24 08	 mov	 edx, DWORD PTR [esp+8]
  00006	8d 42 0c	 lea	 eax, DWORD PTR [edx+12]
  00009	8b 4a f0	 mov	 ecx, DWORD PTR [edx-16]
  0000c	33 c8		 xor	 ecx, eax
  0000e	e8 00 00 00 00	 call	 @__security_check_cookie@4
  00013	b8 00 00 00 00	 mov	 eax, OFFSET __ehfuncinfo$??_Ei3ClassMeta@@UAEPAXI@Z
  00018	e9 00 00 00 00	 jmp	 ___CxxFrameHandler3
text$x	ENDS
??_Ei3ClassMeta@@UAEPAXI@Z ENDP				; i3ClassMeta::`vector deleting destructor'
; Function compile flags: /Ogtp
;	COMDAT ??_Gi3ClassMeta@@UAEPAXI@Z
_TEXT	SEGMENT
___flags$ = 8						; size = 4
??_Gi3ClassMeta@@UAEPAXI@Z PROC				; i3ClassMeta::`scalar deleting destructor', COMDAT
; _this$ = ecx
  00000	55		 push	 ebp
  00001	8b ec		 mov	 ebp, esp
  00003	56		 push	 esi
  00004	8b f1		 mov	 esi, ecx
  00006	e8 00 00 00 00	 call	 ??1i3ClassMeta@@UAE@XZ	; i3ClassMeta::~i3ClassMeta
  0000b	f6 45 08 01	 test	 BYTE PTR ___flags$[ebp], 1
  0000f	74 0b		 je	 SHORT $LN5@scalar
  00011	6a 38		 push	 56			; 00000038H
  00013	56		 push	 esi
  00014	e8 00 00 00 00	 call	 ??3@YAXPAXI@Z		; operator delete
  00019	83 c4 08	 add	 esp, 8
$LN5@scalar:
  0001c	8b c6		 mov	 eax, esi
  0001e	5e		 pop	 esi
  0001f	5d		 pop	 ebp
  00020	c2 04 00	 ret	 4
??_Gi3ClassMeta@@UAEPAXI@Z ENDP				; i3ClassMeta::`scalar deleting destructor'
_TEXT	ENDS
; Function compile flags: /Ogtp
;	COMDAT ??4i3ClassMeta@@QAEAAV0@ABV0@@Z
_TEXT	SEGMENT
___that$ = 8						; size = 4
??4i3ClassMeta@@QAEAAV0@ABV0@@Z PROC			; i3ClassMeta::operator=, COMDAT
; _this$ = ecx
  00000	55		 push	 ebp
  00001	8b ec		 mov	 ebp, esp
  00003	8b 55 08	 mov	 edx, DWORD PTR ___that$[ebp]
  00006	8b 42 04	 mov	 eax, DWORD PTR [edx+4]
  00009	89 41 04	 mov	 DWORD PTR [ecx+4], eax
  0000c	8b 42 08	 mov	 eax, DWORD PTR [edx+8]
  0000f	89 41 08	 mov	 DWORD PTR [ecx+8], eax
  00012	8b 42 0c	 mov	 eax, DWORD PTR [edx+12]
  00015	89 41 0c	 mov	 DWORD PTR [ecx+12], eax
  00018	8b 42 10	 mov	 eax, DWORD PTR [edx+16]
  0001b	89 41 10	 mov	 DWORD PTR [ecx+16], eax
  0001e	8b 42 14	 mov	 eax, DWORD PTR [edx+20]
  00021	89 41 14	 mov	 DWORD PTR [ecx+20], eax
  00024	8b 42 18	 mov	 eax, DWORD PTR [edx+24]
  00027	89 41 18	 mov	 DWORD PTR [ecx+24], eax
  0002a	8b 42 1c	 mov	 eax, DWORD PTR [edx+28]
  0002d	89 41 1c	 mov	 DWORD PTR [ecx+28], eax
  00030	8b 42 20	 mov	 eax, DWORD PTR [edx+32]
  00033	89 41 20	 mov	 DWORD PTR [ecx+32], eax
  00036	8b 42 24	 mov	 eax, DWORD PTR [edx+36]
  00039	89 41 24	 mov	 DWORD PTR [ecx+36], eax
  0003c	8b 42 28	 mov	 eax, DWORD PTR [edx+40]
  0003f	89 41 28	 mov	 DWORD PTR [ecx+40], eax
  00042	8b 42 2c	 mov	 eax, DWORD PTR [edx+44]
  00045	89 41 2c	 mov	 DWORD PTR [ecx+44], eax
  00048	8b 42 30	 mov	 eax, DWORD PTR [edx+48]
  0004b	89 41 30	 mov	 DWORD PTR [ecx+48], eax
  0004e	8b 42 34	 mov	 eax, DWORD PTR [edx+52]
  00051	89 41 34	 mov	 DWORD PTR [ecx+52], eax
  00054	8b c1		 mov	 eax, ecx
  00056	5d		 pop	 ebp
  00057	c2 04 00	 ret	 4
??4i3ClassMeta@@QAEAAV0@ABV0@@Z ENDP			; i3ClassMeta::operator=
_TEXT	ENDS
; Function compile flags: /Ogtp
;	COMDAT ??0i3ClassMeta@@QAE@ABV0@@Z
_TEXT	SEGMENT
___that$ = 8						; size = 4
??0i3ClassMeta@@QAE@ABV0@@Z PROC			; i3ClassMeta::i3ClassMeta, COMDAT
; _this$ = ecx
  00000	55		 push	 ebp
  00001	8b ec		 mov	 ebp, esp
  00003	8b 55 08	 mov	 edx, DWORD PTR ___that$[ebp]
  00006	c7 01 00 00 00
	00		 mov	 DWORD PTR [ecx], OFFSET ??_7i3ClassMeta@@6B@
  0000c	8b 42 04	 mov	 eax, DWORD PTR [edx+4]
  0000f	89 41 04	 mov	 DWORD PTR [ecx+4], eax
  00012	8b 42 08	 mov	 eax, DWORD PTR [edx+8]
  00015	89 41 08	 mov	 DWORD PTR [ecx+8], eax
  00018	8b 42 0c	 mov	 eax, DWORD PTR [edx+12]
  0001b	89 41 0c	 mov	 DWORD PTR [ecx+12], eax
  0001e	8b 42 10	 mov	 eax, DWORD PTR [edx+16]
  00021	89 41 10	 mov	 DWORD PTR [ecx+16], eax
  00024	8b 42 14	 mov	 eax, DWORD PTR [edx+20]
  00027	89 41 14	 mov	 DWORD PTR [ecx+20], eax
  0002a	8b 42 18	 mov	 eax, DWORD PTR [edx+24]
  0002d	89 41 18	 mov	 DWORD PTR [ecx+24], eax
  00030	8b 42 1c	 mov	 eax, DWORD PTR [edx+28]
  00033	89 41 1c	 mov	 DWORD PTR [ecx+28], eax
  00036	8b 42 20	 mov	 eax, DWORD PTR [edx+32]
  00039	89 41 20	 mov	 DWORD PTR [ecx+32], eax
  0003c	8b 42 24	 mov	 eax, DWORD PTR [edx+36]
  0003f	89 41 24	 mov	 DWORD PTR [ecx+36], eax
  00042	8b 42 28	 mov	 eax, DWORD PTR [edx+40]
  00045	89 41 28	 mov	 DWORD PTR [ecx+40], eax
  00048	8b 42 2c	 mov	 eax, DWORD PTR [edx+44]
  0004b	89 41 2c	 mov	 DWORD PTR [ecx+44], eax
  0004e	8b 42 30	 mov	 eax, DWORD PTR [edx+48]
  00051	89 41 30	 mov	 DWORD PTR [ecx+48], eax
  00054	8b 42 34	 mov	 eax, DWORD PTR [edx+52]
  00057	89 41 34	 mov	 DWORD PTR [ecx+52], eax
  0005a	8b c1		 mov	 eax, ecx
  0005c	5d		 pop	 ebp
  0005d	c2 04 00	 ret	 4
??0i3ClassMeta@@QAE@ABV0@@Z ENDP			; i3ClassMeta::i3ClassMeta
_TEXT	ENDS
; Function compile flags: /Ogtp
; File E:\Proyectos\JuegosOnlineproyectos\PB\pbblow\Piercing Blow Remake\i3Server\include\i3Base\i3ClassMeta.h
;	COMDAT ?getHashCode@i3ClassMeta@@QAEIXZ
_TEXT	SEGMENT
?getHashCode@i3ClassMeta@@QAEIXZ PROC			; i3ClassMeta::getHashCode, COMDAT
; _this$ = ecx

; 112  : 	UINT32			getHashCode(void)						{ return m_HashCode; }

  00000	8b 41 18	 mov	 eax, DWORD PTR [ecx+24]
  00003	c3		 ret	 0
?getHashCode@i3ClassMeta@@QAEIXZ ENDP			; i3ClassMeta::getHashCode
_TEXT	ENDS
; Function compile flags: /Ogtp
; File E:\Proyectos\JuegosOnlineproyectos\PB\pbblow\Piercing Blow Remake\i3Server\include\i3Base\i3ClassMeta.h
;	COMDAT ?GetBaseClassMeta@i3ClassMeta@@QAEPAV1@XZ
_TEXT	SEGMENT
?GetBaseClassMeta@i3ClassMeta@@QAEPAV1@XZ PROC		; i3ClassMeta::GetBaseClassMeta, COMDAT
; _this$ = ecx

; 107  : 	i3ClassMeta *	GetBaseClassMeta(void)					{ return m_pBaseClass; }

  00000	8b 41 1c	 mov	 eax, DWORD PTR [ecx+28]
  00003	c3		 ret	 0
?GetBaseClassMeta@i3ClassMeta@@QAEPAV1@XZ ENDP		; i3ClassMeta::GetBaseClassMeta
_TEXT	ENDS
; Function compile flags: /Ogtp
; File E:\Proyectos\JuegosOnlineproyectos\PB\pbblow\Piercing Blow Remake\i3Server\include\i3Base\i3ClassMeta.h
;	COMDAT ?IsConcreteClass@i3ClassMeta@@QAEHXZ
_TEXT	SEGMENT
?IsConcreteClass@i3ClassMeta@@QAEHXZ PROC		; i3ClassMeta::IsConcreteClass, COMDAT
; _this$ = ecx

; 102  : 	BOOL			IsStyle( UINT32 style)					{ return (m_Style & style) == style; }

  00000	8b 41 14	 mov	 eax, DWORD PTR [ecx+20]
  00003	d1 e8		 shr	 eax, 1
  00005	83 e0 01	 and	 eax, 1

; 105  : 	BOOL			IsConcreteClass(void)					{ return IsStyle( I3_CLASSMETA_STYLE_CONCRETE); }

  00008	c3		 ret	 0
?IsConcreteClass@i3ClassMeta@@QAEHXZ ENDP		; i3ClassMeta::IsConcreteClass
_TEXT	ENDS
; Function compile flags: /Ogtp
; File E:\Proyectos\JuegosOnlineproyectos\PB\pbblow\Piercing Blow Remake\i3Server\include\i3Base\i3ClassMeta.h
;	COMDAT ?IsAbstractClass@i3ClassMeta@@QAEHXZ
_TEXT	SEGMENT
?IsAbstractClass@i3ClassMeta@@QAEHXZ PROC		; i3ClassMeta::IsAbstractClass, COMDAT
; _this$ = ecx

; 102  : 	BOOL			IsStyle( UINT32 style)					{ return (m_Style & style) == style; }

  00000	8b 41 14	 mov	 eax, DWORD PTR [ecx+20]
  00003	83 e0 01	 and	 eax, 1

; 104  : 	BOOL			IsAbstractClass(void)					{ return IsStyle( I3_CLASSMETA_STYLE_ABSTRACT); }

  00006	c3		 ret	 0
?IsAbstractClass@i3ClassMeta@@QAEHXZ ENDP		; i3ClassMeta::IsAbstractClass
_TEXT	ENDS
; Function compile flags: /Ogtp
; File E:\Proyectos\JuegosOnlineproyectos\PB\pbblow\Piercing Blow Remake\i3Server\include\i3Base\i3ClassMeta.h
;	COMDAT ?IsStyle@i3ClassMeta@@QAEHI@Z
_TEXT	SEGMENT
_style$ = 8						; size = 4
?IsStyle@i3ClassMeta@@QAEHI@Z PROC			; i3ClassMeta::IsStyle, COMDAT
; _this$ = ecx

; 102  : 	BOOL			IsStyle( UINT32 style)					{ return (m_Style & style) == style; }

  00000	55		 push	 ebp
  00001	8b ec		 mov	 ebp, esp
  00003	8b 51 14	 mov	 edx, DWORD PTR [ecx+20]
  00006	33 c0		 xor	 eax, eax
  00008	23 55 08	 and	 edx, DWORD PTR _style$[ebp]
  0000b	3b 55 08	 cmp	 edx, DWORD PTR _style$[ebp]
  0000e	0f 94 c0	 sete	 al
  00011	5d		 pop	 ebp
  00012	c2 04 00	 ret	 4
?IsStyle@i3ClassMeta@@QAEHI@Z ENDP			; i3ClassMeta::IsStyle
_TEXT	ENDS
; Function compile flags: /Ogtp
; File E:\Proyectos\JuegosOnlineproyectos\PB\pbblow\Piercing Blow Remake\i3Server\include\i3Base\i3ClassMeta.h
;	COMDAT ?RemoveStyle@i3ClassMeta@@QAEXI@Z
_TEXT	SEGMENT
_style$ = 8						; size = 4
?RemoveStyle@i3ClassMeta@@QAEXI@Z PROC			; i3ClassMeta::RemoveStyle, COMDAT
; _this$ = ecx

; 101  : 	void			RemoveStyle( UINT32 style)				{ m_Style &= ~style; }

  00000	55		 push	 ebp
  00001	8b ec		 mov	 ebp, esp
  00003	8b 45 08	 mov	 eax, DWORD PTR _style$[ebp]
  00006	f7 d0		 not	 eax
  00008	21 41 14	 and	 DWORD PTR [ecx+20], eax
  0000b	5d		 pop	 ebp
  0000c	c2 04 00	 ret	 4
?RemoveStyle@i3ClassMeta@@QAEXI@Z ENDP			; i3ClassMeta::RemoveStyle
_TEXT	ENDS
; Function compile flags: /Ogtp
; File E:\Proyectos\JuegosOnlineproyectos\PB\pbblow\Piercing Blow Remake\i3Server\include\i3Base\i3ClassMeta.h
;	COMDAT ?AddStyle@i3ClassMeta@@QAEXI@Z
_TEXT	SEGMENT
_style$ = 8						; size = 4
?AddStyle@i3ClassMeta@@QAEXI@Z PROC			; i3ClassMeta::AddStyle, COMDAT
; _this$ = ecx

; 100  : 	void			AddStyle( UINT32 style)					{ m_Style |= style; }

  00000	55		 push	 ebp
  00001	8b ec		 mov	 ebp, esp
  00003	8b 45 08	 mov	 eax, DWORD PTR _style$[ebp]
  00006	09 41 14	 or	 DWORD PTR [ecx+20], eax
  00009	5d		 pop	 ebp
  0000a	c2 04 00	 ret	 4
?AddStyle@i3ClassMeta@@QAEXI@Z ENDP			; i3ClassMeta::AddStyle
_TEXT	ENDS
; Function compile flags: /Ogtp
; File E:\Proyectos\JuegosOnlineproyectos\PB\pbblow\Piercing Blow Remake\i3Server\include\i3Base\i3ClassMeta.h
;	COMDAT ?GetStyle@i3ClassMeta@@QAEIXZ
_TEXT	SEGMENT
?GetStyle@i3ClassMeta@@QAEIXZ PROC			; i3ClassMeta::GetStyle, COMDAT
; _this$ = ecx

; 99   : 	UINT32			GetStyle(void)							{ return m_Style; }

  00000	8b 41 14	 mov	 eax, DWORD PTR [ecx+20]
  00003	c3		 ret	 0
?GetStyle@i3ClassMeta@@QAEIXZ ENDP			; i3ClassMeta::GetStyle
_TEXT	ENDS
; Function compile flags: /Ogtp
; File E:\Proyectos\JuegosOnlineproyectos\PB\pbblow\Piercing Blow Remake\i3Server\include\i3Base\i3ClassMeta.h
;	COMDAT ?SetStyle@i3ClassMeta@@QAEXI@Z
_TEXT	SEGMENT
_style$ = 8						; size = 4
?SetStyle@i3ClassMeta@@QAEXI@Z PROC			; i3ClassMeta::SetStyle, COMDAT
; _this$ = ecx

; 98   : 	void			SetStyle( UINT32 style)					{ m_Style = style; }

  00000	55		 push	 ebp
  00001	8b ec		 mov	 ebp, esp
  00003	8b 45 08	 mov	 eax, DWORD PTR _style$[ebp]
  00006	89 41 14	 mov	 DWORD PTR [ecx+20], eax
  00009	5d		 pop	 ebp
  0000a	c2 04 00	 ret	 4
?SetStyle@i3ClassMeta@@QAEXI@Z ENDP			; i3ClassMeta::SetStyle
_TEXT	ENDS
; Function compile flags: /Ogtp
; File E:\Proyectos\JuegosOnlineproyectos\PB\pbblow\Piercing Blow Remake\i3Server\include\i3Base\i3ClassMeta.h
;	COMDAT ?IsExactTypeOf@i3ClassMeta@@QAE_NPAV1@@Z
_TEXT	SEGMENT
_pMeta$ = 8						; size = 4
?IsExactTypeOf@i3ClassMeta@@QAE_NPAV1@@Z PROC		; i3ClassMeta::IsExactTypeOf, COMDAT
; _this$ = ecx

; 89   : 	{

  00000	55		 push	 ebp
  00001	8b ec		 mov	 ebp, esp

; 90   : 		return pMeta == this;

  00003	39 4d 08	 cmp	 DWORD PTR _pMeta$[ebp], ecx
  00006	0f 94 c0	 sete	 al

; 91   : 	}

  00009	5d		 pop	 ebp
  0000a	c2 04 00	 ret	 4
?IsExactTypeOf@i3ClassMeta@@QAE_NPAV1@@Z ENDP		; i3ClassMeta::IsExactTypeOf
_TEXT	ENDS
; Function compile flags: /Ogtp
; File E:\Proyectos\JuegosOnlineproyectos\PB\pbblow\Piercing Blow Remake\i3Server\include\i3Base\i3ClassMeta.h
;	COMDAT ?GetClassNameA@i3ClassMeta@@QAEPADXZ
_TEXT	SEGMENT
?GetClassNameA@i3ClassMeta@@QAEPADXZ PROC		; i3ClassMeta::GetClassNameA, COMDAT
; _this$ = ecx

; 83   : 		return m_pszClassName;

  00000	8b 41 0c	 mov	 eax, DWORD PTR [ecx+12]

; 84   : 	}

  00003	c3		 ret	 0
?GetClassNameA@i3ClassMeta@@QAEPADXZ ENDP		; i3ClassMeta::GetClassNameA
_TEXT	ENDS
; Function compile flags: /Ogtp
; File E:\Proyectos\JuegosOnlineproyectos\PB\pbblow\Piercing Blow Remake\i3Server\include\i3Base\i3ClassMeta.h
;	COMDAT ?GetClassSize@i3ClassMeta@@QAEIXZ
_TEXT	SEGMENT
?GetClassSize@i3ClassMeta@@QAEIXZ PROC			; i3ClassMeta::GetClassSize, COMDAT
; _this$ = ecx

; 78   : 		return m_ClassSize;

  00000	8b 41 08	 mov	 eax, DWORD PTR [ecx+8]

; 79   : 	}

  00003	c3		 ret	 0
?GetClassSize@i3ClassMeta@@QAEIXZ ENDP			; i3ClassMeta::GetClassSize
_TEXT	ENDS
; Function compile flags: /Ogtp
; File E:\Proyectos\JuegosOnlineproyectos\PB\pbblow\Piercing Blow Remake\i3Server\include\i3Base\i3ClassMeta.h
;	COMDAT ?SetMemoryPool@i3ClassMeta@@QAEXPAVi3MemoryPool@@@Z
_TEXT	SEGMENT
_pPool$ = 8						; size = 4
?SetMemoryPool@i3ClassMeta@@QAEXPAVi3MemoryPool@@@Z PROC ; i3ClassMeta::SetMemoryPool, COMDAT
; _this$ = ecx

; 66   : 	void			SetMemoryPool( i3MemoryPool * pPool)		{ m_pPool = pPool; }

  00000	55		 push	 ebp
  00001	8b ec		 mov	 ebp, esp
  00003	8b 45 08	 mov	 eax, DWORD PTR _pPool$[ebp]
  00006	89 41 34	 mov	 DWORD PTR [ecx+52], eax
  00009	5d		 pop	 ebp
  0000a	c2 04 00	 ret	 4
?SetMemoryPool@i3ClassMeta@@QAEXPAVi3MemoryPool@@@Z ENDP ; i3ClassMeta::SetMemoryPool
_TEXT	ENDS
; Function compile flags: /Ogtp
; File E:\Proyectos\JuegosOnlineproyectos\PB\pbblow\Piercing Blow Remake\i3Server\include\i3Base\i3ClassMeta.h
;	COMDAT ?GetMemoryPool@i3ClassMeta@@QAEPAVi3MemoryPool@@XZ
_TEXT	SEGMENT
?GetMemoryPool@i3ClassMeta@@QAEPAVi3MemoryPool@@XZ PROC	; i3ClassMeta::GetMemoryPool, COMDAT
; _this$ = ecx

; 65   : 	i3MemoryPool *	GetMemoryPool(void)							{ return m_pPool; }

  00000	8b 41 34	 mov	 eax, DWORD PTR [ecx+52]
  00003	c3		 ret	 0
?GetMemoryPool@i3ClassMeta@@QAEPAVi3MemoryPool@@XZ ENDP	; i3ClassMeta::GetMemoryPool
_TEXT	ENDS
; Function compile flags: /Ogtp
; File E:\Proyectos\JuegosOnlineproyectos\PB\pbblow\Piercing Blow Remake\i3Server\src\i3Base\i3NetworkTCPSocket.cpp
;	COMDAT ?__global_array_delete@@YAXPAXI@Z
_TEXT	SEGMENT
_p$ = 8							; size = 4
_sz$ = 12						; size = 4
?__global_array_delete@@YAXPAXI@Z PROC			; __global_array_delete, COMDAT

  00000	e9 00 00 00 00	 jmp	 ??_V@YAXPAXI@Z		; operator delete[]
?__global_array_delete@@YAXPAXI@Z ENDP			; __global_array_delete
_TEXT	ENDS
; Function compile flags: /Ogtp
; File E:\Proyectos\JuegosOnlineproyectos\PB\pbblow\Piercing Blow Remake\i3Server\src\i3Base\i3NetworkTCPSocket.cpp
;	COMDAT ?__global_array_delete@@YAXPAX@Z
_TEXT	SEGMENT
_p$ = 8							; size = 4
?__global_array_delete@@YAXPAX@Z PROC			; __global_array_delete, COMDAT

  00000	e9 00 00 00 00	 jmp	 ??_V@YAXPAX@Z		; operator delete[]
?__global_array_delete@@YAXPAX@Z ENDP			; __global_array_delete
_TEXT	ENDS
; Function compile flags: /Ogtp
; File E:\Proyectos\JuegosOnlineproyectos\PB\pbblow\Piercing Blow Remake\i3Server\src\i3Base\i3NetworkTCPSocket.cpp
;	COMDAT ?__global_delete@@YAXPAXI@Z
_TEXT	SEGMENT
_p$ = 8							; size = 4
_sz$ = 12						; size = 4
?__global_delete@@YAXPAXI@Z PROC			; __global_delete, COMDAT

  00000	e9 00 00 00 00	 jmp	 ??3@YAXPAXI@Z		; operator delete
?__global_delete@@YAXPAXI@Z ENDP			; __global_delete
_TEXT	ENDS
; Function compile flags: /Ogtp
; File E:\Proyectos\JuegosOnlineproyectos\PB\pbblow\Piercing Blow Remake\i3Server\src\i3Base\i3NetworkTCPSocket.cpp
;	COMDAT ?__empty_global_delete@@YAXPAXI@Z
_TEXT	SEGMENT
___formal$ = 8						; size = 4
___formal$ = 12						; size = 4
?__empty_global_delete@@YAXPAXI@Z PROC			; __empty_global_delete, COMDAT

  00000	c2 00 00	 ret	 0
?__empty_global_delete@@YAXPAXI@Z ENDP			; __empty_global_delete
_TEXT	ENDS
; Function compile flags: /Ogtp
; File E:\Proyectos\JuegosOnlineproyectos\PB\pbblow\Piercing Blow Remake\i3Server\src\i3Base\i3NetworkTCPSocket.cpp
;	COMDAT ?__global_delete@@YAXPAX@Z
_TEXT	SEGMENT
_p$ = 8							; size = 4
?__global_delete@@YAXPAX@Z PROC				; __global_delete, COMDAT

  00000	e9 00 00 00 00	 jmp	 ??3@YAXPAX@Z		; operator delete
?__global_delete@@YAXPAX@Z ENDP				; __global_delete
_TEXT	ENDS
; Function compile flags: /Ogtp
; File E:\Proyectos\JuegosOnlineproyectos\PB\pbblow\Piercing Blow Remake\i3Server\src\i3Base\i3NetworkTCPSocket.cpp
;	COMDAT ?__empty_global_delete@@YAXPAX@Z
_TEXT	SEGMENT
___formal$ = 8						; size = 4
?__empty_global_delete@@YAXPAX@Z PROC			; __empty_global_delete, COMDAT

  00000	c2 00 00	 ret	 0
?__empty_global_delete@@YAXPAX@Z ENDP			; __empty_global_delete
_TEXT	ENDS
END
