; Listing generated by Microsoft (R) Optimizing Compiler Version 19.50.35727.0 

	TITLE	E:\Proyectos\JuegosOnlineproyectos\PB\pbblow\Piercing Blow Remake\i3Server\Project\I3_DX\i3Server\x86\Release\i3NetworkDB.obj
	.686P
	.XMM
	include listing.inc
	.model	flat

INCLUDELIB LIBCMT
INCLUDELIB OLDNAMES

PUBLIC	__Avx2WmemEnabledWeakValue
PUBLIC	?s_pClassMetai3NetworkDataBase@i3NetworkDataBase@@2PAVi3ClassMeta@@A ; i3NetworkDataBase::s_pClassMetai3NetworkDataBase
PUBLIC	?CreateInstance@?$i3MetaTemplate@Vi3NetworkDataBase@@@@UAEPAVi3ElementBase@@W4I3_CLASSMETA_TYPE@@@Z ; i3MetaTemplate<i3NetworkDataBase>::CreateInstance
PUBLIC	?BindInstance@?$i3MetaTemplate@Vi3NetworkDataBase@@@@UAEPAVi3ElementBase@@PAXW4I3_CLASSMETA_TYPE@@@Z ; i3MetaTemplate<i3NetworkDataBase>::BindInstance
PUBLIC	??_7?$i3MetaTemplate@Vi3NetworkDataBase@@@@6B@	; i3MetaTemplate<i3NetworkDataBase>::`vftable'
PUBLIC	??_G?$i3MetaTemplate@Vi3NetworkDataBase@@@@UAEPAXI@Z ; i3MetaTemplate<i3NetworkDataBase>::`scalar deleting destructor'
PUBLIC	??_C@_0O@OCDFBOHM@i3ElementBase@		; `string'
PUBLIC	??_C@_0BC@NIOOECDG@i3NetworkDataBase@		; `string'
PUBLIC	??_R0?AVi3ClassMeta@@@8				; i3ClassMeta `RTTI Type Descriptor'
PUBLIC	??_R3i3ClassMeta@@8				; i3ClassMeta::`RTTI Class Hierarchy Descriptor'
PUBLIC	??_R2i3ClassMeta@@8				; i3ClassMeta::`RTTI Base Class Array'
PUBLIC	??_R1A@?0A@EA@i3ClassMeta@@8			; i3ClassMeta::`RTTI Base Class Descriptor at (0,-1,0,64)'
PUBLIC	??_R4?$i3MetaTemplate@Vi3NetworkDataBase@@@@6B@	; i3MetaTemplate<i3NetworkDataBase>::`RTTI Complete Object Locator'
PUBLIC	??_R0?AV?$i3MetaTemplate@Vi3NetworkDataBase@@@@@8 ; i3MetaTemplate<i3NetworkDataBase> `RTTI Type Descriptor'
PUBLIC	??_R3?$i3MetaTemplate@Vi3NetworkDataBase@@@@8	; i3MetaTemplate<i3NetworkDataBase>::`RTTI Class Hierarchy Descriptor'
PUBLIC	??_R2?$i3MetaTemplate@Vi3NetworkDataBase@@@@8	; i3MetaTemplate<i3NetworkDataBase>::`RTTI Base Class Array'
PUBLIC	??_R1A@?0A@EA@?$i3MetaTemplate@Vi3NetworkDataBase@@@@8 ; i3MetaTemplate<i3NetworkDataBase>::`RTTI Base Class Descriptor at (0,-1,0,64)'
EXTRN	??_E?$i3MetaTemplate@Vi3NetworkDataBase@@@@UAEPAXI@Z:PROC ; i3MetaTemplate<i3NetworkDataBase>::`vector deleting destructor'
EXTRN	??_7type_info@@6B@:QWORD			; type_info::`vftable'
;	COMDAT __Avx2WmemEnabledWeakValue
_BSS	SEGMENT
__Avx2WmemEnabledWeakValue DD 01H DUP (?)
_BSS	ENDS
;	COMDAT ??_R1A@?0A@EA@?$i3MetaTemplate@Vi3NetworkDataBase@@@@8
rdata$r	SEGMENT
??_R1A@?0A@EA@?$i3MetaTemplate@Vi3NetworkDataBase@@@@8 DD FLAT:??_R0?AV?$i3MetaTemplate@Vi3NetworkDataBase@@@@@8 ; i3MetaTemplate<i3NetworkDataBase>::`RTTI Base Class Descriptor at (0,-1,0,64)'
	DD	01H
	DD	00H
	DD	0ffffffffH
	DD	00H
	DD	040H
	DD	FLAT:??_R3?$i3MetaTemplate@Vi3NetworkDataBase@@@@8
rdata$r	ENDS
;	COMDAT ??_R2?$i3MetaTemplate@Vi3NetworkDataBase@@@@8
rdata$r	SEGMENT
??_R2?$i3MetaTemplate@Vi3NetworkDataBase@@@@8 DD FLAT:??_R1A@?0A@EA@?$i3MetaTemplate@Vi3NetworkDataBase@@@@8 ; i3MetaTemplate<i3NetworkDataBase>::`RTTI Base Class Array'
	DD	FLAT:??_R1A@?0A@EA@i3ClassMeta@@8
rdata$r	ENDS
;	COMDAT ??_R3?$i3MetaTemplate@Vi3NetworkDataBase@@@@8
rdata$r	SEGMENT
??_R3?$i3MetaTemplate@Vi3NetworkDataBase@@@@8 DD 00H	; i3MetaTemplate<i3NetworkDataBase>::`RTTI Class Hierarchy Descriptor'
	DD	00H
	DD	02H
	DD	FLAT:??_R2?$i3MetaTemplate@Vi3NetworkDataBase@@@@8
rdata$r	ENDS
;	COMDAT ??_R0?AV?$i3MetaTemplate@Vi3NetworkDataBase@@@@@8
data$rs	SEGMENT
??_R0?AV?$i3MetaTemplate@Vi3NetworkDataBase@@@@@8 DD FLAT:??_7type_info@@6B@ ; i3MetaTemplate<i3NetworkDataBase> `RTTI Type Descriptor'
	DD	00H
	DB	'.?AV?$i3MetaTemplate@Vi3NetworkDataBase@@@@', 00H
data$rs	ENDS
;	COMDAT ??_R4?$i3MetaTemplate@Vi3NetworkDataBase@@@@6B@
rdata$r	SEGMENT
??_R4?$i3MetaTemplate@Vi3NetworkDataBase@@@@6B@ DD 00H	; i3MetaTemplate<i3NetworkDataBase>::`RTTI Complete Object Locator'
	DD	00H
	DD	00H
	DD	FLAT:??_R0?AV?$i3MetaTemplate@Vi3NetworkDataBase@@@@@8
	DD	FLAT:??_R3?$i3MetaTemplate@Vi3NetworkDataBase@@@@8
rdata$r	ENDS
;	COMDAT ??_R1A@?0A@EA@i3ClassMeta@@8
rdata$r	SEGMENT
??_R1A@?0A@EA@i3ClassMeta@@8 DD FLAT:??_R0?AVi3ClassMeta@@@8 ; i3ClassMeta::`RTTI Base Class Descriptor at (0,-1,0,64)'
	DD	00H
	DD	00H
	DD	0ffffffffH
	DD	00H
	DD	040H
	DD	FLAT:??_R3i3ClassMeta@@8
rdata$r	ENDS
;	COMDAT ??_R2i3ClassMeta@@8
rdata$r	SEGMENT
??_R2i3ClassMeta@@8 DD FLAT:??_R1A@?0A@EA@i3ClassMeta@@8 ; i3ClassMeta::`RTTI Base Class Array'
rdata$r	ENDS
;	COMDAT ??_R3i3ClassMeta@@8
rdata$r	SEGMENT
??_R3i3ClassMeta@@8 DD 00H				; i3ClassMeta::`RTTI Class Hierarchy Descriptor'
	DD	00H
	DD	01H
	DD	FLAT:??_R2i3ClassMeta@@8
rdata$r	ENDS
;	COMDAT ??_R0?AVi3ClassMeta@@@8
data$rs	SEGMENT
??_R0?AVi3ClassMeta@@@8 DD FLAT:??_7type_info@@6B@	; i3ClassMeta `RTTI Type Descriptor'
	DD	00H
	DB	'.?AVi3ClassMeta@@', 00H
data$rs	ENDS
;	COMDAT ??_C@_0BC@NIOOECDG@i3NetworkDataBase@
CONST	SEGMENT
??_C@_0BC@NIOOECDG@i3NetworkDataBase@ DB 'i3NetworkDataBase', 00H ; `string'
CONST	ENDS
;	COMDAT ??_C@_0O@OCDFBOHM@i3ElementBase@
CONST	SEGMENT
??_C@_0O@OCDFBOHM@i3ElementBase@ DB 'i3ElementBase', 00H ; `string'
CONST	ENDS
;	COMDAT ??_7?$i3MetaTemplate@Vi3NetworkDataBase@@@@6B@
CONST	SEGMENT
??_7?$i3MetaTemplate@Vi3NetworkDataBase@@@@6B@ DD FLAT:??_R4?$i3MetaTemplate@Vi3NetworkDataBase@@@@6B@ ; i3MetaTemplate<i3NetworkDataBase>::`vftable'
	DD	FLAT:??_E?$i3MetaTemplate@Vi3NetworkDataBase@@@@UAEPAXI@Z
	DD	FLAT:?CreateInstance@?$i3MetaTemplate@Vi3NetworkDataBase@@@@UAEPAVi3ElementBase@@W4I3_CLASSMETA_TYPE@@@Z
	DD	FLAT:?BindInstance@?$i3MetaTemplate@Vi3NetworkDataBase@@@@UAEPAVi3ElementBase@@PAXW4I3_CLASSMETA_TYPE@@@Z
CONST	ENDS
_DATA	SEGMENT
?s_pClassMetai3NetworkDataBase@i3NetworkDataBase@@2PAVi3ClassMeta@@A DD FLAT:?s_ClassMetai3NetworkDataBase@@3V?$i3MetaTemplate@Vi3NetworkDataBase@@@@A ; i3NetworkDataBase::s_pClassMetai3NetworkDataBase
_DATA	ENDS
PUBLIC	?__empty_global_delete@@YAXPAX@Z		; __empty_global_delete
PUBLIC	?__global_delete@@YAXPAX@Z			; __global_delete
PUBLIC	?__empty_global_delete@@YAXPAXI@Z		; __empty_global_delete
PUBLIC	?__global_delete@@YAXPAXI@Z			; __global_delete
PUBLIC	?__global_array_delete@@YAXPAX@Z		; __global_array_delete
PUBLIC	?__global_array_delete@@YAXPAXI@Z		; __global_array_delete
PUBLIC	___local_stdio_printf_options
PUBLIC	_sprintf
PUBLIC	?GetMemoryPool@i3ClassMeta@@QAEPAVi3MemoryPool@@XZ ; i3ClassMeta::GetMemoryPool
PUBLIC	?SetMemoryPool@i3ClassMeta@@QAEXPAVi3MemoryPool@@@Z ; i3ClassMeta::SetMemoryPool
PUBLIC	?GetClassSize@i3ClassMeta@@QAEIXZ		; i3ClassMeta::GetClassSize
PUBLIC	?GetClassNameA@i3ClassMeta@@QAEPADXZ		; i3ClassMeta::GetClassNameA
PUBLIC	?IsExactTypeOf@i3ClassMeta@@QAE_NPAV1@@Z	; i3ClassMeta::IsExactTypeOf
PUBLIC	?SetStyle@i3ClassMeta@@QAEXI@Z			; i3ClassMeta::SetStyle
PUBLIC	?GetStyle@i3ClassMeta@@QAEIXZ			; i3ClassMeta::GetStyle
PUBLIC	?AddStyle@i3ClassMeta@@QAEXI@Z			; i3ClassMeta::AddStyle
PUBLIC	?RemoveStyle@i3ClassMeta@@QAEXI@Z		; i3ClassMeta::RemoveStyle
PUBLIC	?IsStyle@i3ClassMeta@@QAEHI@Z			; i3ClassMeta::IsStyle
PUBLIC	?IsAbstractClass@i3ClassMeta@@QAEHXZ		; i3ClassMeta::IsAbstractClass
PUBLIC	?IsConcreteClass@i3ClassMeta@@QAEHXZ		; i3ClassMeta::IsConcreteClass
PUBLIC	?GetBaseClassMeta@i3ClassMeta@@QAEPAV1@XZ	; i3ClassMeta::GetBaseClassMeta
PUBLIC	?getHashCode@i3ClassMeta@@QAEIXZ		; i3ClassMeta::getHashCode
PUBLIC	??0i3ClassMeta@@QAE@ABV0@@Z			; i3ClassMeta::i3ClassMeta
PUBLIC	??4i3ClassMeta@@QAEAAV0@ABV0@@Z			; i3ClassMeta::operator=
PUBLIC	??_Gi3ClassMeta@@UAEPAXI@Z			; i3ClassMeta::`scalar deleting destructor'
PUBLIC	??_Ei3ClassMeta@@UAEPAXI@Z			; i3ClassMeta::`vector deleting destructor'
PUBLIC	?GetClassMeta@i3ElementBase@@SAPAVi3ClassMeta@@XZ ; i3ElementBase::GetClassMeta
PUBLIC	?GetRefCount@i3ElementBase@@QAEHXZ		; i3ElementBase::GetRefCount
PUBLIC	?__SetMemoryPool@i3ElementBase@@QAEXPAVi3MemoryPool@@@Z ; i3ElementBase::__SetMemoryPool
PUBLIC	?__GetMemoryPool@i3ElementBase@@QAEPAVi3MemoryPool@@XZ ; i3ElementBase::__GetMemoryPool
PUBLIC	?IsExactTypeOf@i3ElementBase@@QAE_NPAVi3ClassMeta@@@Z ; i3ElementBase::IsExactTypeOf
PUBLIC	?IsTypeOf@i3ElementBase@@QAE_NPAVi3ClassMeta@@@Z ; i3ElementBase::IsTypeOf
PUBLIC	?AddRef@i3ElementBase@@QAEHXZ			; i3ElementBase::AddRef
PUBLIC	?_internal_SetRefCount@i3ElementBase@@QAEXH@Z	; i3ElementBase::_internal_SetRefCount
PUBLIC	??0i3ElementBase@@QAE@ABV0@@Z			; i3ElementBase::i3ElementBase
PUBLIC	??4i3ElementBase@@QAEAAV0@ABV0@@Z		; i3ElementBase::operator=
PUBLIC	??_Gi3ElementBase@@UAEPAXI@Z			; i3ElementBase::`scalar deleting destructor'
PUBLIC	??_Ei3ElementBase@@UAEPAXI@Z			; i3ElementBase::`vector deleting destructor'
PUBLIC	??0i3MemoryPool@@QAE@ABV0@@Z			; i3MemoryPool::i3MemoryPool
PUBLIC	??4i3MemoryPool@@QAEAAV0@ABV0@@Z		; i3MemoryPool::operator=
PUBLIC	??_Gi3MemoryPool@@UAEPAXI@Z			; i3MemoryPool::`scalar deleting destructor'
PUBLIC	??_Ei3MemoryPool@@UAEPAXI@Z			; i3MemoryPool::`vector deleting destructor'
PUBLIC	?GetClassMeta@i3NetworkDataBase@@SAPAVi3ClassMeta@@XZ ; i3NetworkDataBase::GetClassMeta
PUBLIC	?GetMeta@i3NetworkDataBase@@UAEPAVi3ClassMeta@@XZ ; i3NetworkDataBase::GetMeta
PUBLIC	?RegisterMeta@i3NetworkDataBase@@SAXXZ		; i3NetworkDataBase::RegisterMeta
PUBLIC	?SetConcreteClass@i3NetworkDataBase@@SAXPAVi3ClassMeta@@@Z ; i3NetworkDataBase::SetConcreteClass
PUBLIC	?SetGhostClass@i3NetworkDataBase@@SAXPAVi3ClassMeta@@@Z ; i3NetworkDataBase::SetGhostClass
PUBLIC	?_NewObject@i3NetworkDataBase@@SAPAV1@XZ	; i3NetworkDataBase::_NewObject
PUBLIC	?_NewObjectRef@i3NetworkDataBase@@SAPAV1@XZ	; i3NetworkDataBase::_NewObjectRef
PUBLIC	?_BindObject@i3NetworkDataBase@@SAPAV1@PAX@Z	; i3NetworkDataBase::_BindObject
PUBLIC	?_BindObjectRef@i3NetworkDataBase@@SAPAV1@PAX@Z	; i3NetworkDataBase::_BindObjectRef
PUBLIC	?_NewObjectByType@i3NetworkDataBase@@SAPAV1@W4I3_CLASSMETA_TYPE@@@Z ; i3NetworkDataBase::_NewObjectByType
PUBLIC	?_NewObjectRefByType@i3NetworkDataBase@@SAPAV1@W4I3_CLASSMETA_TYPE@@@Z ; i3NetworkDataBase::_NewObjectRefByType
PUBLIC	?_BindObjectByType@i3NetworkDataBase@@SAPAV1@PAXW4I3_CLASSMETA_TYPE@@@Z ; i3NetworkDataBase::_BindObjectByType
PUBLIC	?_BindObjectRefByType@i3NetworkDataBase@@SAPAV1@PAXW4I3_CLASSMETA_TYPE@@@Z ; i3NetworkDataBase::_BindObjectRefByType
PUBLIC	??0i3NetworkDataBase@@QAE@XZ			; i3NetworkDataBase::i3NetworkDataBase
PUBLIC	??1i3NetworkDataBase@@UAE@XZ			; i3NetworkDataBase::~i3NetworkDataBase
PUBLIC	?ReConnect@i3NetworkDataBase@@QAEHXZ		; i3NetworkDataBase::ReConnect
PUBLIC	?Connect@i3NetworkDataBase@@QAEHPAD00@Z		; i3NetworkDataBase::Connect
PUBLIC	?Disconnect@i3NetworkDataBase@@QAEHXZ		; i3NetworkDataBase::Disconnect
PUBLIC	?ExecDirect@i3NetworkDataBase@@QAEHPAD@Z	; i3NetworkDataBase::ExecDirect
PUBLIC	?Clean@i3NetworkDataBase@@QAEHXZ		; i3NetworkDataBase::Clean
PUBLIC	?FetchData@i3NetworkDataBase@@QAEHXZ		; i3NetworkDataBase::FetchData
PUBLIC	?GetData@i3NetworkDataBase@@QAEHFFJPAX@Z	; i3NetworkDataBase::GetData
PUBLIC	?ResultColCount@i3NetworkDataBase@@QAEFXZ	; i3NetworkDataBase::ResultColCount
PUBLIC	?ResultRowCount@i3NetworkDataBase@@QAEJXZ	; i3NetworkDataBase::ResultRowCount
PUBLIC	?GetCurrentDate@i3NetworkDataBase@@QAEPADXZ	; i3NetworkDataBase::GetCurrentDate
PUBLIC	?SetStmtOption@i3NetworkDataBase@@QAEHHI@Z	; i3NetworkDataBase::SetStmtOption
PUBLIC	?GetError@i3NetworkDataBase@@QAEXFPAXPBD@Z	; i3NetworkDataBase::GetError
PUBLIC	??0i3NetworkDataBase@@QAE@ABV0@@Z		; i3NetworkDataBase::i3NetworkDataBase
PUBLIC	??4i3NetworkDataBase@@QAEAAV0@ABV0@@Z		; i3NetworkDataBase::operator=
PUBLIC	??_Gi3NetworkDataBase@@UAEPAXI@Z		; i3NetworkDataBase::`scalar deleting destructor'
PUBLIC	??_Ei3NetworkDataBase@@UAEPAXI@Z		; i3NetworkDataBase::`vector deleting destructor'
PUBLIC	??0?$i3MetaTemplate@Vi3NetworkDataBase@@@@QAE@IPAD0W4I3_CLASSMETA_TYPE@@@Z ; i3MetaTemplate<i3NetworkDataBase>::i3MetaTemplate<i3NetworkDataBase>
PUBLIC	?_OptionsStorage@?1??__local_stdio_printf_options@@9@4_KA ; `__local_stdio_printf_options'::`2'::_OptionsStorage
PUBLIC	??_7i3ClassMeta@@6B@				; i3ClassMeta::`vftable'
PUBLIC	??_7i3ElementBase@@6B@				; i3ElementBase::`vftable'
PUBLIC	??_7i3MemoryPool@@6B@				; i3MemoryPool::`vftable'
PUBLIC	??_7i3NetworkDataBase@@6B@			; i3NetworkDataBase::`vftable'
PUBLIC	??_C@_0BC@MBOFKFHK@?$CFd?9?$CFd?9?$CFd?5?$CFd?3?$CFd?3?$CFd@ ; `string'
PUBLIC	??_C@_0BG@MIBPAIDL@SQLAllocHandle?3m_hEnv@	; `string'
PUBLIC	??_C@_0O@EHDGBCBE@SQLSetEnvAttr@		; `string'
PUBLIC	??_C@_0BG@EOAMHACO@SQLAllocHandle?3m_hDbc@	; `string'
PUBLIC	??_C@_0L@NIHOHION@SQLConnect@			; `string'
PUBLIC	??_C@_0BH@DKOHNDJG@SQLAllocHandle?3m_hStmt@	; `string'
PUBLIC	??_C@_0P@MMBHMHAH@SQLCloseCursor@		; `string'
PUBLIC	??_C@_0BG@OEKFCGKN@SQLFreeHandle?3m_hStmt@	; `string'
PUBLIC	??_C@_0O@CMEKDENE@SQLDisconnect@		; `string'
PUBLIC	??_C@_0BF@LHGHIOMD@SQLFreeHandle?3m_hDbc@	; `string'
PUBLIC	??_C@_0BF@DBHEPGNG@SQLFreeHandle?3m_hEnv@	; `string'
PUBLIC	??_C@_08MDDFMIOG@SQLFetch@			; `string'
PUBLIC	??_C@_0L@HAMGPLLH@SQLGetData@			; `string'
PUBLIC	??_C@_0BB@ICEIFNON@SQLNumResultCols@		; `string'
PUBLIC	??_C@_0M@EJIMPDMM@SQLRowCount@			; `string'
PUBLIC	??_C@_0O@IPNNBNGE@SQLExecDirect@		; `string'
PUBLIC	??_C@_0O@JBJOOAAF@SetStmtOption@		; `string'
PUBLIC	??_R4i3ElementBase@@6B@				; i3ElementBase::`RTTI Complete Object Locator'
PUBLIC	??_R0?AVi3ElementBase@@@8			; i3ElementBase `RTTI Type Descriptor'
PUBLIC	??_R3i3ElementBase@@8				; i3ElementBase::`RTTI Class Hierarchy Descriptor'
PUBLIC	??_R2i3ElementBase@@8				; i3ElementBase::`RTTI Base Class Array'
PUBLIC	??_R1A@?0A@EA@i3ElementBase@@8			; i3ElementBase::`RTTI Base Class Descriptor at (0,-1,0,64)'
PUBLIC	??_R4i3MemoryPool@@6B@				; i3MemoryPool::`RTTI Complete Object Locator'
PUBLIC	??_R0?AVi3MemoryPool@@@8			; i3MemoryPool `RTTI Type Descriptor'
PUBLIC	??_R3i3MemoryPool@@8				; i3MemoryPool::`RTTI Class Hierarchy Descriptor'
PUBLIC	??_R2i3MemoryPool@@8				; i3MemoryPool::`RTTI Base Class Array'
PUBLIC	??_R1A@?0A@EA@i3MemoryPool@@8			; i3MemoryPool::`RTTI Base Class Descriptor at (0,-1,0,64)'
PUBLIC	??_R4i3ClassMeta@@6B@				; i3ClassMeta::`RTTI Complete Object Locator'
PUBLIC	??_R4i3NetworkDataBase@@6B@			; i3NetworkDataBase::`RTTI Complete Object Locator'
PUBLIC	??_R0?AVi3NetworkDataBase@@@8			; i3NetworkDataBase `RTTI Type Descriptor'
PUBLIC	??_R3i3NetworkDataBase@@8			; i3NetworkDataBase::`RTTI Class Hierarchy Descriptor'
PUBLIC	??_R2i3NetworkDataBase@@8			; i3NetworkDataBase::`RTTI Base Class Array'
PUBLIC	??_R1A@?0A@EA@i3NetworkDataBase@@8		; i3NetworkDataBase::`RTTI Base Class Descriptor at (0,-1,0,64)'
EXTRN	??_M@YGXPAXIIP6EX0@Z@Z:PROC			; `eh vector destructor iterator'
EXTRN	__purecall:PROC
EXTRN	??3@YAXPAX@Z:PROC				; operator delete
EXTRN	??3@YAXPAXI@Z:PROC				; operator delete
EXTRN	??_V@YAXPAX@Z:PROC				; operator delete[]
EXTRN	??_V@YAXPAXI@Z:PROC				; operator delete[]
EXTRN	_atexit:PROC
EXTRN	__imp__GetLocalTime@4:PROC
EXTRN	___stdio_common_vsprintf:PROC
EXTRN	_SQLAllocHandle@12:PROC
EXTRN	_SQLCloseCursor@4:PROC
EXTRN	_SQLConnect@28:PROC
EXTRN	_SQLDisconnect@4:PROC
EXTRN	_SQLExecDirect@12:PROC
EXTRN	_SQLFetch@4:PROC
EXTRN	_SQLFreeHandle@8:PROC
EXTRN	_SQLGetData@24:PROC
EXTRN	_SQLGetDiagField@28:PROC
EXTRN	_SQLGetDiagRec@32:PROC
EXTRN	_SQLNumResultCols@8:PROC
EXTRN	_SQLRowCount@8:PROC
EXTRN	_SQLSetEnvAttr@16:PROC
EXTRN	_SQLSetStmtAttr@16:PROC
EXTRN	??0i3ClassMeta@@QAE@IPAD0W4I3_CLASSMETA_TYPE@@@Z:PROC ; i3ClassMeta::i3ClassMeta
EXTRN	??1i3ClassMeta@@UAE@XZ:PROC			; i3ClassMeta::~i3ClassMeta
EXTRN	?CreateInstance@i3ClassMeta@@UAEPAVi3ElementBase@@W4I3_CLASSMETA_TYPE@@@Z:PROC ; i3ClassMeta::CreateInstance
EXTRN	?BindInstance@i3ClassMeta@@UAEPAVi3ElementBase@@PAXW4I3_CLASSMETA_TYPE@@@Z:PROC ; i3ClassMeta::BindInstance
EXTRN	?IsTypeOf@i3ClassMeta@@QAE_NPAV1@@Z:PROC	; i3ClassMeta::IsTypeOf
EXTRN	?Register@i3ClassMeta@@QAEXXZ:PROC		; i3ClassMeta::Register
EXTRN	?GetConcreteClass@i3ClassMeta@@QAEPAV1@W4I3_CLASSMETA_TYPE@@@Z:PROC ; i3ClassMeta::GetConcreteClass
EXTRN	?SetConcreteClass@i3ClassMeta@@QAEXPAV1@@Z:PROC	; i3ClassMeta::SetConcreteClass
EXTRN	?SetGhostClass@i3ClassMeta@@QAEXPAV1@@Z:PROC	; i3ClassMeta::SetGhostClass
EXTRN	?GetMeta@i3ElementBase@@UAEPAVi3ClassMeta@@XZ:PROC ; i3ElementBase::GetMeta
EXTRN	??0i3ElementBase@@QAE@XZ:PROC			; i3ElementBase::i3ElementBase
EXTRN	??1i3ElementBase@@UAE@XZ:PROC			; i3ElementBase::~i3ElementBase
EXTRN	??2i3ElementBase@@SAPAXI@Z:PROC			; i3ElementBase::operator new
EXTRN	??2i3ElementBase@@SAPAXIPAX@Z:PROC		; i3ElementBase::operator new
EXTRN	??3i3ElementBase@@SAXPAX@Z:PROC			; i3ElementBase::operator delete
EXTRN	??3i3ElementBase@@SAXPAX0@Z:PROC		; i3ElementBase::operator delete
EXTRN	?CopyTo@i3ElementBase@@UAEXPAV1@W4I3_COPY_METHOD@@@Z:PROC ; i3ElementBase::CopyTo
EXTRN	??1i3MemoryPool@@UAE@XZ:PROC			; i3MemoryPool::~i3MemoryPool
EXTRN	?Copy@i3String@@YAXPADPBDH@Z:PROC		; i3String::Copy
EXTRN	@__security_check_cookie@4:PROC
EXTRN	___CxxFrameHandler3:PROC
EXTRN	?s_pClassMetai3ElementBase@i3ElementBase@@2PAVi3ClassMeta@@A:DWORD ; i3ElementBase::s_pClassMetai3ElementBase
EXTRN	___security_cookie:DWORD
;	COMDAT ?_OptionsStorage@?1??__local_stdio_printf_options@@9@4_KA
_BSS	SEGMENT
?_OptionsStorage@?1??__local_stdio_printf_options@@9@4_KA DQ 01H DUP (?) ; `__local_stdio_printf_options'::`2'::_OptionsStorage
_BSS	ENDS
_BSS	SEGMENT
?s_ClassMetai3NetworkDataBase@@3V?$i3MetaTemplate@Vi3NetworkDataBase@@@@A DB 038H DUP (?) ; s_ClassMetai3NetworkDataBase
_BSS	ENDS
CRT$XCU	SEGMENT
?s_ClassMetai3NetworkDataBase$initializer$@@3P6AXXZA DD FLAT:??__Es_ClassMetai3NetworkDataBase@@YAXXZ ; s_ClassMetai3NetworkDataBase$initializer$
CRT$XCU	ENDS
;	COMDAT ??_R1A@?0A@EA@i3NetworkDataBase@@8
rdata$r	SEGMENT
??_R1A@?0A@EA@i3NetworkDataBase@@8 DD FLAT:??_R0?AVi3NetworkDataBase@@@8 ; i3NetworkDataBase::`RTTI Base Class Descriptor at (0,-1,0,64)'
	DD	01H
	DD	00H
	DD	0ffffffffH
	DD	00H
	DD	040H
	DD	FLAT:??_R3i3NetworkDataBase@@8
rdata$r	ENDS
;	COMDAT ??_R2i3NetworkDataBase@@8
rdata$r	SEGMENT
??_R2i3NetworkDataBase@@8 DD FLAT:??_R1A@?0A@EA@i3NetworkDataBase@@8 ; i3NetworkDataBase::`RTTI Base Class Array'
	DD	FLAT:??_R1A@?0A@EA@i3ElementBase@@8
rdata$r	ENDS
;	COMDAT ??_R3i3NetworkDataBase@@8
rdata$r	SEGMENT
??_R3i3NetworkDataBase@@8 DD 00H			; i3NetworkDataBase::`RTTI Class Hierarchy Descriptor'
	DD	00H
	DD	02H
	DD	FLAT:??_R2i3NetworkDataBase@@8
rdata$r	ENDS
;	COMDAT ??_R0?AVi3NetworkDataBase@@@8
data$rs	SEGMENT
??_R0?AVi3NetworkDataBase@@@8 DD FLAT:??_7type_info@@6B@ ; i3NetworkDataBase `RTTI Type Descriptor'
	DD	00H
	DB	'.?AVi3NetworkDataBase@@', 00H
data$rs	ENDS
;	COMDAT ??_R4i3NetworkDataBase@@6B@
rdata$r	SEGMENT
??_R4i3NetworkDataBase@@6B@ DD 00H			; i3NetworkDataBase::`RTTI Complete Object Locator'
	DD	00H
	DD	00H
	DD	FLAT:??_R0?AVi3NetworkDataBase@@@8
	DD	FLAT:??_R3i3NetworkDataBase@@8
rdata$r	ENDS
;	COMDAT ??_R4i3ClassMeta@@6B@
rdata$r	SEGMENT
??_R4i3ClassMeta@@6B@ DD 00H				; i3ClassMeta::`RTTI Complete Object Locator'
	DD	00H
	DD	00H
	DD	FLAT:??_R0?AVi3ClassMeta@@@8
	DD	FLAT:??_R3i3ClassMeta@@8
rdata$r	ENDS
;	COMDAT ??_R1A@?0A@EA@i3MemoryPool@@8
rdata$r	SEGMENT
??_R1A@?0A@EA@i3MemoryPool@@8 DD FLAT:??_R0?AVi3MemoryPool@@@8 ; i3MemoryPool::`RTTI Base Class Descriptor at (0,-1,0,64)'
	DD	00H
	DD	00H
	DD	0ffffffffH
	DD	00H
	DD	040H
	DD	FLAT:??_R3i3MemoryPool@@8
rdata$r	ENDS
;	COMDAT ??_R2i3MemoryPool@@8
rdata$r	SEGMENT
??_R2i3MemoryPool@@8 DD FLAT:??_R1A@?0A@EA@i3MemoryPool@@8 ; i3MemoryPool::`RTTI Base Class Array'
rdata$r	ENDS
;	COMDAT ??_R3i3MemoryPool@@8
rdata$r	SEGMENT
??_R3i3MemoryPool@@8 DD 00H				; i3MemoryPool::`RTTI Class Hierarchy Descriptor'
	DD	00H
	DD	01H
	DD	FLAT:??_R2i3MemoryPool@@8
rdata$r	ENDS
;	COMDAT ??_R0?AVi3MemoryPool@@@8
data$rs	SEGMENT
??_R0?AVi3MemoryPool@@@8 DD FLAT:??_7type_info@@6B@	; i3MemoryPool `RTTI Type Descriptor'
	DD	00H
	DB	'.?AVi3MemoryPool@@', 00H
data$rs	ENDS
;	COMDAT ??_R4i3MemoryPool@@6B@
rdata$r	SEGMENT
??_R4i3MemoryPool@@6B@ DD 00H				; i3MemoryPool::`RTTI Complete Object Locator'
	DD	00H
	DD	00H
	DD	FLAT:??_R0?AVi3MemoryPool@@@8
	DD	FLAT:??_R3i3MemoryPool@@8
rdata$r	ENDS
;	COMDAT ??_R1A@?0A@EA@i3ElementBase@@8
rdata$r	SEGMENT
??_R1A@?0A@EA@i3ElementBase@@8 DD FLAT:??_R0?AVi3ElementBase@@@8 ; i3ElementBase::`RTTI Base Class Descriptor at (0,-1,0,64)'
	DD	00H
	DD	00H
	DD	0ffffffffH
	DD	00H
	DD	040H
	DD	FLAT:??_R3i3ElementBase@@8
rdata$r	ENDS
;	COMDAT ??_R2i3ElementBase@@8
rdata$r	SEGMENT
??_R2i3ElementBase@@8 DD FLAT:??_R1A@?0A@EA@i3ElementBase@@8 ; i3ElementBase::`RTTI Base Class Array'
rdata$r	ENDS
;	COMDAT ??_R3i3ElementBase@@8
rdata$r	SEGMENT
??_R3i3ElementBase@@8 DD 00H				; i3ElementBase::`RTTI Class Hierarchy Descriptor'
	DD	00H
	DD	01H
	DD	FLAT:??_R2i3ElementBase@@8
rdata$r	ENDS
;	COMDAT ??_R0?AVi3ElementBase@@@8
data$rs	SEGMENT
??_R0?AVi3ElementBase@@@8 DD FLAT:??_7type_info@@6B@	; i3ElementBase `RTTI Type Descriptor'
	DD	00H
	DB	'.?AVi3ElementBase@@', 00H
data$rs	ENDS
;	COMDAT ??_R4i3ElementBase@@6B@
rdata$r	SEGMENT
??_R4i3ElementBase@@6B@ DD 00H				; i3ElementBase::`RTTI Complete Object Locator'
	DD	00H
	DD	00H
	DD	FLAT:??_R0?AVi3ElementBase@@@8
	DD	FLAT:??_R3i3ElementBase@@8
rdata$r	ENDS
;	COMDAT ??_C@_0O@JBJOOAAF@SetStmtOption@
CONST	SEGMENT
??_C@_0O@JBJOOAAF@SetStmtOption@ DB 'SetStmtOption', 00H ; `string'
CONST	ENDS
;	COMDAT ??_C@_0O@IPNNBNGE@SQLExecDirect@
CONST	SEGMENT
??_C@_0O@IPNNBNGE@SQLExecDirect@ DB 'SQLExecDirect', 00H ; `string'
CONST	ENDS
;	COMDAT ??_C@_0M@EJIMPDMM@SQLRowCount@
CONST	SEGMENT
??_C@_0M@EJIMPDMM@SQLRowCount@ DB 'SQLRowCount', 00H	; `string'
CONST	ENDS
;	COMDAT ??_C@_0BB@ICEIFNON@SQLNumResultCols@
CONST	SEGMENT
??_C@_0BB@ICEIFNON@SQLNumResultCols@ DB 'SQLNumResultCols', 00H ; `string'
CONST	ENDS
;	COMDAT ??_C@_0L@HAMGPLLH@SQLGetData@
CONST	SEGMENT
??_C@_0L@HAMGPLLH@SQLGetData@ DB 'SQLGetData', 00H	; `string'
CONST	ENDS
;	COMDAT ??_C@_08MDDFMIOG@SQLFetch@
CONST	SEGMENT
??_C@_08MDDFMIOG@SQLFetch@ DB 'SQLFetch', 00H		; `string'
CONST	ENDS
;	COMDAT ??_C@_0BF@DBHEPGNG@SQLFreeHandle?3m_hEnv@
CONST	SEGMENT
??_C@_0BF@DBHEPGNG@SQLFreeHandle?3m_hEnv@ DB 'SQLFreeHandle:m_hEnv', 00H ; `string'
CONST	ENDS
;	COMDAT ??_C@_0BF@LHGHIOMD@SQLFreeHandle?3m_hDbc@
CONST	SEGMENT
??_C@_0BF@LHGHIOMD@SQLFreeHandle?3m_hDbc@ DB 'SQLFreeHandle:m_hDbc', 00H ; `string'
CONST	ENDS
;	COMDAT ??_C@_0O@CMEKDENE@SQLDisconnect@
CONST	SEGMENT
??_C@_0O@CMEKDENE@SQLDisconnect@ DB 'SQLDisconnect', 00H ; `string'
CONST	ENDS
;	COMDAT ??_C@_0BG@OEKFCGKN@SQLFreeHandle?3m_hStmt@
CONST	SEGMENT
??_C@_0BG@OEKFCGKN@SQLFreeHandle?3m_hStmt@ DB 'SQLFreeHandle:m_hStmt', 00H ; `string'
CONST	ENDS
;	COMDAT ??_C@_0P@MMBHMHAH@SQLCloseCursor@
CONST	SEGMENT
??_C@_0P@MMBHMHAH@SQLCloseCursor@ DB 'SQLCloseCursor', 00H ; `string'
CONST	ENDS
;	COMDAT ??_C@_0BH@DKOHNDJG@SQLAllocHandle?3m_hStmt@
CONST	SEGMENT
??_C@_0BH@DKOHNDJG@SQLAllocHandle?3m_hStmt@ DB 'SQLAllocHandle:m_hStmt', 00H ; `string'
CONST	ENDS
;	COMDAT ??_C@_0L@NIHOHION@SQLConnect@
CONST	SEGMENT
??_C@_0L@NIHOHION@SQLConnect@ DB 'SQLConnect', 00H	; `string'
CONST	ENDS
;	COMDAT ??_C@_0BG@EOAMHACO@SQLAllocHandle?3m_hDbc@
CONST	SEGMENT
??_C@_0BG@EOAMHACO@SQLAllocHandle?3m_hDbc@ DB 'SQLAllocHandle:m_hDbc', 00H ; `string'
CONST	ENDS
;	COMDAT ??_C@_0O@EHDGBCBE@SQLSetEnvAttr@
CONST	SEGMENT
??_C@_0O@EHDGBCBE@SQLSetEnvAttr@ DB 'SQLSetEnvAttr', 00H ; `string'
CONST	ENDS
;	COMDAT ??_C@_0BG@MIBPAIDL@SQLAllocHandle?3m_hEnv@
CONST	SEGMENT
??_C@_0BG@MIBPAIDL@SQLAllocHandle?3m_hEnv@ DB 'SQLAllocHandle:m_hEnv', 00H ; `string'
CONST	ENDS
;	COMDAT ??_C@_0BC@MBOFKFHK@?$CFd?9?$CFd?9?$CFd?5?$CFd?3?$CFd?3?$CFd@
CONST	SEGMENT
??_C@_0BC@MBOFKFHK@?$CFd?9?$CFd?9?$CFd?5?$CFd?3?$CFd?3?$CFd@ DB '%d-%d-%d'
	DB	' %d:%d:%d', 00H				; `string'
CONST	ENDS
;	COMDAT ??_7i3NetworkDataBase@@6B@
CONST	SEGMENT
??_7i3NetworkDataBase@@6B@ DD FLAT:??_R4i3NetworkDataBase@@6B@ ; i3NetworkDataBase::`vftable'
	DD	FLAT:?GetMeta@i3NetworkDataBase@@UAEPAVi3ClassMeta@@XZ
	DD	FLAT:??_Ei3NetworkDataBase@@UAEPAXI@Z
	DD	FLAT:?CopyTo@i3ElementBase@@UAEXPAV1@W4I3_COPY_METHOD@@@Z
CONST	ENDS
;	COMDAT ??_7i3MemoryPool@@6B@
CONST	SEGMENT
??_7i3MemoryPool@@6B@ DD FLAT:??_R4i3MemoryPool@@6B@	; i3MemoryPool::`vftable'
	DD	FLAT:??_Ei3MemoryPool@@UAEPAXI@Z
	DD	FLAT:__purecall
	DD	FLAT:__purecall
CONST	ENDS
;	COMDAT ??_7i3ElementBase@@6B@
CONST	SEGMENT
??_7i3ElementBase@@6B@ DD FLAT:??_R4i3ElementBase@@6B@	; i3ElementBase::`vftable'
	DD	FLAT:?GetMeta@i3ElementBase@@UAEPAVi3ClassMeta@@XZ
	DD	FLAT:??_Ei3ElementBase@@UAEPAXI@Z
	DD	FLAT:?CopyTo@i3ElementBase@@UAEXPAV1@W4I3_COPY_METHOD@@@Z
CONST	ENDS
;	COMDAT ??_7i3ClassMeta@@6B@
CONST	SEGMENT
??_7i3ClassMeta@@6B@ DD FLAT:??_R4i3ClassMeta@@6B@	; i3ClassMeta::`vftable'
	DD	FLAT:??_Ei3ClassMeta@@UAEPAXI@Z
	DD	FLAT:?CreateInstance@i3ClassMeta@@UAEPAVi3ElementBase@@W4I3_CLASSMETA_TYPE@@@Z
	DD	FLAT:?BindInstance@i3ClassMeta@@UAEPAVi3ElementBase@@PAXW4I3_CLASSMETA_TYPE@@@Z
CONST	ENDS
;	COMDAT xdata$x
xdata$x	SEGMENT
__unwindtable$?BindInstance@?$i3MetaTemplate@Vi3NetworkDataBase@@@@UAEPAVi3ElementBase@@PAXW4I3_CLASSMETA_TYPE@@@Z DD 0ffffffffH
	DD	FLAT:__unwindfunclet$?BindInstance@?$i3MetaTemplate@Vi3NetworkDataBase@@@@UAEPAVi3ElementBase@@PAXW4I3_CLASSMETA_TYPE@@@Z$0
__ehfuncinfo$?BindInstance@?$i3MetaTemplate@Vi3NetworkDataBase@@@@UAEPAVi3ElementBase@@PAXW4I3_CLASSMETA_TYPE@@@Z DD 019930522H
	DD	01H
	DD	FLAT:__unwindtable$?BindInstance@?$i3MetaTemplate@Vi3NetworkDataBase@@@@UAEPAVi3ElementBase@@PAXW4I3_CLASSMETA_TYPE@@@Z
	DD	2 DUP(00H)
	DD	2 DUP(00H)
	DD	00H
	DD	01H
xdata$x	ENDS
;	COMDAT xdata$x
xdata$x	SEGMENT
__unwindtable$?CreateInstance@?$i3MetaTemplate@Vi3NetworkDataBase@@@@UAEPAVi3ElementBase@@W4I3_CLASSMETA_TYPE@@@Z DD 0ffffffffH
	DD	FLAT:__unwindfunclet$?CreateInstance@?$i3MetaTemplate@Vi3NetworkDataBase@@@@UAEPAVi3ElementBase@@W4I3_CLASSMETA_TYPE@@@Z$0
__ehfuncinfo$?CreateInstance@?$i3MetaTemplate@Vi3NetworkDataBase@@@@UAEPAVi3ElementBase@@W4I3_CLASSMETA_TYPE@@@Z DD 019930522H
	DD	01H
	DD	FLAT:__unwindtable$?CreateInstance@?$i3MetaTemplate@Vi3NetworkDataBase@@@@UAEPAVi3ElementBase@@W4I3_CLASSMETA_TYPE@@@Z
	DD	2 DUP(00H)
	DD	2 DUP(00H)
	DD	00H
	DD	01H
xdata$x	ENDS
;	COMDAT xdata$x
xdata$x	SEGMENT
__ehfuncinfo$??_Ei3NetworkDataBase@@UAEPAXI@Z DD 019930522H
	DD	00H
	DD	00H
	DD	2 DUP(00H)
	DD	2 DUP(00H)
	DD	00H
	DD	05H
xdata$x	ENDS
;	COMDAT xdata$x
xdata$x	SEGMENT
__ehfuncinfo$??_Ei3MemoryPool@@UAEPAXI@Z DD 019930522H
	DD	00H
	DD	00H
	DD	2 DUP(00H)
	DD	2 DUP(00H)
	DD	00H
	DD	05H
xdata$x	ENDS
;	COMDAT xdata$x
xdata$x	SEGMENT
__ehfuncinfo$??_Ei3ElementBase@@UAEPAXI@Z DD 019930522H
	DD	00H
	DD	00H
	DD	2 DUP(00H)
	DD	2 DUP(00H)
	DD	00H
	DD	05H
xdata$x	ENDS
;	COMDAT xdata$x
xdata$x	SEGMENT
__ehfuncinfo$??_Ei3ClassMeta@@UAEPAXI@Z DD 019930522H
	DD	00H
	DD	00H
	DD	2 DUP(00H)
	DD	2 DUP(00H)
	DD	00H
	DD	05H
xdata$x	ENDS
; Function compile flags: /Ogtp
;	COMDAT ??__Fs_ClassMetai3NetworkDataBase@@YAXXZ
text$yd	SEGMENT
??__Fs_ClassMetai3NetworkDataBase@@YAXXZ PROC		; `dynamic atexit destructor for 's_ClassMetai3NetworkDataBase'', COMDAT
  00000	b9 00 00 00 00	 mov	 ecx, OFFSET ?s_ClassMetai3NetworkDataBase@@3V?$i3MetaTemplate@Vi3NetworkDataBase@@@@A
  00005	e9 00 00 00 00	 jmp	 ??1i3ClassMeta@@UAE@XZ	; i3ClassMeta::~i3ClassMeta
??__Fs_ClassMetai3NetworkDataBase@@YAXXZ ENDP		; `dynamic atexit destructor for 's_ClassMetai3NetworkDataBase''
text$yd	ENDS
; Function compile flags: /Ogtp
; File E:\Proyectos\JuegosOnlineproyectos\PB\pbblow\Piercing Blow Remake\i3Server\src\i3Base\i3NetworkDB.cpp
; File E:\Proyectos\JuegosOnlineproyectos\PB\pbblow\Piercing Blow Remake\i3Server\include\i3Base\i3MetaTemplate.h
; File E:\Proyectos\JuegosOnlineproyectos\PB\pbblow\Piercing Blow Remake\i3Server\src\i3Base\i3NetworkDB.cpp
; File E:\Proyectos\JuegosOnlineproyectos\PB\pbblow\Piercing Blow Remake\i3Server\include\i3Base\i3MetaTemplate.h
; File E:\Proyectos\JuegosOnlineproyectos\PB\pbblow\Piercing Blow Remake\i3Server\src\i3Base\i3NetworkDB.cpp
;	COMDAT ??__Es_ClassMetai3NetworkDataBase@@YAXXZ
text$di	SEGMENT
??__Es_ClassMetai3NetworkDataBase@@YAXXZ PROC		; `dynamic initializer for 's_ClassMetai3NetworkDataBase'', COMDAT
; File E:\Proyectos\JuegosOnlineproyectos\PB\pbblow\Piercing Blow Remake\i3Server\include\i3Base\i3MetaTemplate.h

; 28   : : i3ClassMeta( classSz, pszClassName, pszBaseClassName, type)

  00000	6a 00		 push	 0
  00002	68 00 00 00 00	 push	 OFFSET ??_C@_0O@OCDFBOHM@i3ElementBase@
  00007	68 00 00 00 00	 push	 OFFSET ??_C@_0BC@NIOOECDG@i3NetworkDataBase@
  0000c	68 a0 00 00 00	 push	 160			; 000000a0H
  00011	b9 00 00 00 00	 mov	 ecx, OFFSET ?s_ClassMetai3NetworkDataBase@@3V?$i3MetaTemplate@Vi3NetworkDataBase@@@@A
  00016	e8 00 00 00 00	 call	 ??0i3ClassMeta@@QAE@IPAD0W4I3_CLASSMETA_TYPE@@@Z ; i3ClassMeta::i3ClassMeta
; File E:\Proyectos\JuegosOnlineproyectos\PB\pbblow\Piercing Blow Remake\i3Server\src\i3Base\i3NetworkDB.cpp

; 7    : I3_CLASS_INSTANCE( i3NetworkDataBase, i3ElementBase );

  0001b	68 00 00 00 00	 push	 OFFSET ??__Fs_ClassMetai3NetworkDataBase@@YAXXZ ; `dynamic atexit destructor for 's_ClassMetai3NetworkDataBase''
; File E:\Proyectos\JuegosOnlineproyectos\PB\pbblow\Piercing Blow Remake\i3Server\include\i3Base\i3MetaTemplate.h

; 29   : {

  00020	c7 05 00 00 00
	00 00 00 00 00	 mov	 DWORD PTR ?s_ClassMetai3NetworkDataBase@@3V?$i3MetaTemplate@Vi3NetworkDataBase@@@@A, OFFSET ??_7?$i3MetaTemplate@Vi3NetworkDataBase@@@@6B@
; File E:\Proyectos\JuegosOnlineproyectos\PB\pbblow\Piercing Blow Remake\i3Server\src\i3Base\i3NetworkDB.cpp

; 7    : I3_CLASS_INSTANCE( i3NetworkDataBase, i3ElementBase );

  0002a	e8 00 00 00 00	 call	 _atexit
  0002f	59		 pop	 ecx
  00030	c3		 ret	 0
??__Es_ClassMetai3NetworkDataBase@@YAXXZ ENDP		; `dynamic initializer for 's_ClassMetai3NetworkDataBase''
text$di	ENDS
; Function compile flags: /Ogtp
;	COMDAT ??_G?$i3MetaTemplate@Vi3NetworkDataBase@@@@UAEPAXI@Z
_TEXT	SEGMENT
___flags$ = 8						; size = 4
??_G?$i3MetaTemplate@Vi3NetworkDataBase@@@@UAEPAXI@Z PROC ; i3MetaTemplate<i3NetworkDataBase>::`scalar deleting destructor', COMDAT
; _this$ = ecx
  00000	55		 push	 ebp
  00001	8b ec		 mov	 ebp, esp
  00003	56		 push	 esi
  00004	8b f1		 mov	 esi, ecx
  00006	e8 00 00 00 00	 call	 ??1i3ClassMeta@@UAE@XZ	; i3ClassMeta::~i3ClassMeta
  0000b	f6 45 08 01	 test	 BYTE PTR ___flags$[ebp], 1
  0000f	74 0b		 je	 SHORT $LN10@scalar
  00011	6a 38		 push	 56			; 00000038H
  00013	56		 push	 esi
  00014	e8 00 00 00 00	 call	 ??3@YAXPAXI@Z		; operator delete
  00019	83 c4 08	 add	 esp, 8
$LN10@scalar:
  0001c	8b c6		 mov	 eax, esi
  0001e	5e		 pop	 esi
  0001f	5d		 pop	 ebp
  00020	c2 04 00	 ret	 4
??_G?$i3MetaTemplate@Vi3NetworkDataBase@@@@UAEPAXI@Z ENDP ; i3MetaTemplate<i3NetworkDataBase>::`scalar deleting destructor'
_TEXT	ENDS
; Function compile flags: /Ogtp
; File E:\Proyectos\JuegosOnlineproyectos\PB\pbblow\Piercing Blow Remake\i3Server\include\i3Base\i3MetaTemplate.h
;	COMDAT ?BindInstance@?$i3MetaTemplate@Vi3NetworkDataBase@@@@UAEPAVi3ElementBase@@PAXW4I3_CLASSMETA_TYPE@@@Z
_TEXT	SEGMENT
__$EHRec$ = -12						; size = 12
_pBuf$ = 8						; size = 4
_type$ = 12						; size = 4
$T2 = 12						; size = 4
?BindInstance@?$i3MetaTemplate@Vi3NetworkDataBase@@@@UAEPAVi3ElementBase@@PAXW4I3_CLASSMETA_TYPE@@@Z PROC ; i3MetaTemplate<i3NetworkDataBase>::BindInstance, COMDAT
; _this$ = ecx

; 129  : 	{

  00000	55		 push	 ebp
  00001	8b ec		 mov	 ebp, esp
  00003	6a ff		 push	 -1
  00005	68 00 00 00 00	 push	 __ehhandler$?BindInstance@?$i3MetaTemplate@Vi3NetworkDataBase@@@@UAEPAVi3ElementBase@@PAXW4I3_CLASSMETA_TYPE@@@Z
  0000a	64 a1 00 00 00
	00		 mov	 eax, DWORD PTR fs:0
  00010	50		 push	 eax
  00011	a1 00 00 00 00	 mov	 eax, DWORD PTR ___security_cookie
  00016	33 c5		 xor	 eax, ebp
  00018	50		 push	 eax
  00019	8d 45 f4	 lea	 eax, DWORD PTR __$EHRec$[ebp]
  0001c	64 a3 00 00 00
	00		 mov	 DWORD PTR fs:0, eax

; 130  : 		if( m_ProxyCount > 0)

  00022	83 79 30 00	 cmp	 DWORD PTR [ecx+48], 0
  00026	7e 25		 jle	 SHORT $LN2@BindInstan

; 131  : 		{
; 132  : 			i3ClassMeta * pMeta = GetConcreteClass( type);

  00028	ff 75 0c	 push	 DWORD PTR _type$[ebp]
  0002b	e8 00 00 00 00	 call	 ?GetConcreteClass@i3ClassMeta@@QAEPAV1@W4I3_CLASSMETA_TYPE@@@Z ; i3ClassMeta::GetConcreteClass

; 133  : 
; 134  : 			return pMeta->BindInstance( pBuf, I3_CLASSMETA_TYPE_GENERAL);

  00030	6a 00		 push	 0
  00032	ff 75 08	 push	 DWORD PTR _pBuf$[ebp]
  00035	8b c8		 mov	 ecx, eax
  00037	8b 10		 mov	 edx, DWORD PTR [eax]
  00039	ff 52 08	 call	 DWORD PTR [edx+8]

; 142  : 			#endif
; 143  : 		}
; 144  : 	}

  0003c	8b 4d f4	 mov	 ecx, DWORD PTR __$EHRec$[ebp]
  0003f	64 89 0d 00 00
	00 00		 mov	 DWORD PTR fs:0, ecx
  00046	59		 pop	 ecx
  00047	8b e5		 mov	 esp, ebp
  00049	5d		 pop	 ebp
  0004a	c2 08 00	 ret	 8
$LN2@BindInstan:

; 135  : 		}
; 136  : 		else
; 137  : 		{
; 138  : 			#if defined( I3_DEBUG)
; 139  : 				return (i3ElementBase *) new( pBuf ) T;
; 140  : 			#else
; 141  : 				return (i3ElementBase *) new( pBuf ) T;

  0004d	ff 75 08	 push	 DWORD PTR _pBuf$[ebp]
  00050	68 a0 00 00 00	 push	 160			; 000000a0H
  00055	e8 00 00 00 00	 call	 ??2i3ElementBase@@SAPAXIPAX@Z ; i3ElementBase::operator new
  0005a	83 c4 08	 add	 esp, 8
  0005d	89 45 0c	 mov	 DWORD PTR $T2[ebp], eax
  00060	c7 45 fc 00 00
	00 00		 mov	 DWORD PTR __$EHRec$[ebp+8], 0
  00067	85 c0		 test	 eax, eax
  00069	74 18		 je	 SHORT $LN5@BindInstan
  0006b	8b c8		 mov	 ecx, eax
  0006d	e8 00 00 00 00	 call	 ??0i3NetworkDataBase@@QAE@XZ ; i3NetworkDataBase::i3NetworkDataBase

; 142  : 			#endif
; 143  : 		}
; 144  : 	}

  00072	8b 4d f4	 mov	 ecx, DWORD PTR __$EHRec$[ebp]
  00075	64 89 0d 00 00
	00 00		 mov	 DWORD PTR fs:0, ecx
  0007c	59		 pop	 ecx
  0007d	8b e5		 mov	 esp, ebp
  0007f	5d		 pop	 ebp
  00080	c2 08 00	 ret	 8
$LN5@BindInstan:

; 135  : 		}
; 136  : 		else
; 137  : 		{
; 138  : 			#if defined( I3_DEBUG)
; 139  : 				return (i3ElementBase *) new( pBuf ) T;
; 140  : 			#else
; 141  : 				return (i3ElementBase *) new( pBuf ) T;

  00083	33 c0		 xor	 eax, eax

; 142  : 			#endif
; 143  : 		}
; 144  : 	}

  00085	8b 4d f4	 mov	 ecx, DWORD PTR __$EHRec$[ebp]
  00088	64 89 0d 00 00
	00 00		 mov	 DWORD PTR fs:0, ecx
  0008f	59		 pop	 ecx
  00090	8b e5		 mov	 esp, ebp
  00092	5d		 pop	 ebp
  00093	c2 08 00	 ret	 8
_TEXT	ENDS
;	COMDAT text$x
text$x	SEGMENT
__unwindfunclet$?BindInstance@?$i3MetaTemplate@Vi3NetworkDataBase@@@@UAEPAVi3ElementBase@@PAXW4I3_CLASSMETA_TYPE@@@Z$0:
  00000	8b 45 08	 mov	 eax, DWORD PTR _pBuf$[ebp]
  00003	50		 push	 eax
  00004	8b 45 0c	 mov	 eax, DWORD PTR $T2[ebp]
  00007	50		 push	 eax
  00008	e8 00 00 00 00	 call	 ??3i3ElementBase@@SAXPAX0@Z ; i3ElementBase::operator delete
  0000d	83 c4 08	 add	 esp, 8
  00010	c3		 ret	 0
  00011	cc		 int	 3
  00012	cc		 int	 3
  00013	cc		 int	 3
  00014	cc		 int	 3
  00015	cc		 int	 3
__ehhandler$?BindInstance@?$i3MetaTemplate@Vi3NetworkDataBase@@@@UAEPAVi3ElementBase@@PAXW4I3_CLASSMETA_TYPE@@@Z:
  00016	90		 npad	 1
  00017	90		 npad	 1
  00018	8b 54 24 08	 mov	 edx, DWORD PTR [esp+8]
  0001c	8d 42 0c	 lea	 eax, DWORD PTR [edx+12]
  0001f	8b 4a fc	 mov	 ecx, DWORD PTR [edx-4]
  00022	33 c8		 xor	 ecx, eax
  00024	e8 00 00 00 00	 call	 @__security_check_cookie@4
  00029	b8 00 00 00 00	 mov	 eax, OFFSET __ehfuncinfo$?BindInstance@?$i3MetaTemplate@Vi3NetworkDataBase@@@@UAEPAVi3ElementBase@@PAXW4I3_CLASSMETA_TYPE@@@Z
  0002e	e9 00 00 00 00	 jmp	 ___CxxFrameHandler3
text$x	ENDS
?BindInstance@?$i3MetaTemplate@Vi3NetworkDataBase@@@@UAEPAVi3ElementBase@@PAXW4I3_CLASSMETA_TYPE@@@Z ENDP ; i3MetaTemplate<i3NetworkDataBase>::BindInstance
; Function compile flags: /Ogtp
; File E:\Proyectos\JuegosOnlineproyectos\PB\pbblow\Piercing Blow Remake\i3Server\include\i3Base\i3MetaTemplate.h
; File E:\Proyectos\JuegosOnlineproyectos\PB\pbblow\Piercing Blow Remake\i3Server\include\i3Base\i3ElementBase.h
; File E:\Proyectos\JuegosOnlineproyectos\PB\pbblow\Piercing Blow Remake\i3Server\include\i3Base\i3MetaTemplate.h
; File E:\Proyectos\JuegosOnlineproyectos\PB\pbblow\Piercing Blow Remake\i3Server\include\i3Base\i3ElementBase.h
; File E:\Proyectos\JuegosOnlineproyectos\PB\pbblow\Piercing Blow Remake\i3Server\include\i3Base\i3MetaTemplate.h
;	COMDAT ?CreateInstance@?$i3MetaTemplate@Vi3NetworkDataBase@@@@UAEPAVi3ElementBase@@W4I3_CLASSMETA_TYPE@@@Z
_TEXT	SEGMENT
__$EHRec$ = -12						; size = 12
_type$ = 8						; size = 4
$T2 = 8							; size = 4
?CreateInstance@?$i3MetaTemplate@Vi3NetworkDataBase@@@@UAEPAVi3ElementBase@@W4I3_CLASSMETA_TYPE@@@Z PROC ; i3MetaTemplate<i3NetworkDataBase>::CreateInstance, COMDAT
; _this$ = ecx

; 97   : 	{

  00000	55		 push	 ebp
  00001	8b ec		 mov	 ebp, esp
  00003	6a ff		 push	 -1
  00005	68 00 00 00 00	 push	 __ehhandler$?CreateInstance@?$i3MetaTemplate@Vi3NetworkDataBase@@@@UAEPAVi3ElementBase@@W4I3_CLASSMETA_TYPE@@@Z
  0000a	64 a1 00 00 00
	00		 mov	 eax, DWORD PTR fs:0
  00010	50		 push	 eax
  00011	56		 push	 esi
  00012	57		 push	 edi
  00013	a1 00 00 00 00	 mov	 eax, DWORD PTR ___security_cookie
  00018	33 c5		 xor	 eax, ebp
  0001a	50		 push	 eax
  0001b	8d 45 f4	 lea	 eax, DWORD PTR __$EHRec$[ebp]
  0001e	64 a3 00 00 00
	00		 mov	 DWORD PTR fs:0, eax
  00024	8b f9		 mov	 edi, ecx

; 98   : 		if( m_ProxyCount > 0)

  00026	83 7f 30 00	 cmp	 DWORD PTR [edi+48], 0
  0002a	7e 28		 jle	 SHORT $LN3@CreateInst

; 99   : 		{
; 100  : 			i3ClassMeta * pMeta = GetConcreteClass( type);

  0002c	ff 75 08	 push	 DWORD PTR _type$[ebp]
  0002f	e8 00 00 00 00	 call	 ?GetConcreteClass@i3ClassMeta@@QAEPAV1@W4I3_CLASSMETA_TYPE@@@Z ; i3ClassMeta::GetConcreteClass

; 101  : 
; 102  : 			if( pMeta != NULL)

  00034	85 c0		 test	 eax, eax
  00036	74 1c		 je	 SHORT $LN3@CreateInst

; 103  : 				return pMeta->CreateInstance( I3_CLASSMETA_TYPE_GENERAL);

  00038	8b 10		 mov	 edx, DWORD PTR [eax]
  0003a	8b c8		 mov	 ecx, eax
  0003c	6a 00		 push	 0
  0003e	ff 52 04	 call	 DWORD PTR [edx+4]

; 125  : 	}

  00041	8b 4d f4	 mov	 ecx, DWORD PTR __$EHRec$[ebp]
  00044	64 89 0d 00 00
	00 00		 mov	 DWORD PTR fs:0, ecx
  0004b	59		 pop	 ecx
  0004c	5f		 pop	 edi
  0004d	5e		 pop	 esi
  0004e	8b e5		 mov	 esp, ebp
  00050	5d		 pop	 ebp
  00051	c2 04 00	 ret	 4
$LN3@CreateInst:

; 104  : 		}
; 105  : 
; 106  : 		{
; 107  : 			if( m_pPool == NULL)

  00054	8b 4f 34	 mov	 ecx, DWORD PTR [edi+52]
  00057	85 c9		 test	 ecx, ecx
  00059	75 4a		 jne	 SHORT $LN4@CreateInst

; 108  : 			{
; 109  : 				#if defined( I3_DEBUG)
; 110  : 					return (i3ElementBase *) new T;
; 111  : 				#else
; 112  : 					return (i3ElementBase *) new T;

  0005b	68 a0 00 00 00	 push	 160			; 000000a0H
  00060	e8 00 00 00 00	 call	 ??2i3ElementBase@@SAPAXI@Z ; i3ElementBase::operator new
  00065	83 c4 04	 add	 esp, 4
  00068	89 45 08	 mov	 DWORD PTR $T2[ebp], eax
  0006b	c7 45 fc 00 00
	00 00		 mov	 DWORD PTR __$EHRec$[ebp+8], 0
  00072	85 c0		 test	 eax, eax
  00074	74 1a		 je	 SHORT $LN7@CreateInst
  00076	8b c8		 mov	 ecx, eax
  00078	e8 00 00 00 00	 call	 ??0i3NetworkDataBase@@QAE@XZ ; i3NetworkDataBase::i3NetworkDataBase

; 125  : 	}

  0007d	8b 4d f4	 mov	 ecx, DWORD PTR __$EHRec$[ebp]
  00080	64 89 0d 00 00
	00 00		 mov	 DWORD PTR fs:0, ecx
  00087	59		 pop	 ecx
  00088	5f		 pop	 edi
  00089	5e		 pop	 esi
  0008a	8b e5		 mov	 esp, ebp
  0008c	5d		 pop	 ebp
  0008d	c2 04 00	 ret	 4
$LN7@CreateInst:

; 108  : 			{
; 109  : 				#if defined( I3_DEBUG)
; 110  : 					return (i3ElementBase *) new T;
; 111  : 				#else
; 112  : 					return (i3ElementBase *) new T;

  00090	33 c0		 xor	 eax, eax

; 125  : 	}

  00092	8b 4d f4	 mov	 ecx, DWORD PTR __$EHRec$[ebp]
  00095	64 89 0d 00 00
	00 00		 mov	 DWORD PTR fs:0, ecx
  0009c	59		 pop	 ecx
  0009d	5f		 pop	 edi
  0009e	5e		 pop	 esi
  0009f	8b e5		 mov	 esp, ebp
  000a1	5d		 pop	 ebp
  000a2	c2 04 00	 ret	 4
$LN4@CreateInst:

; 113  : 				#endif
; 114  : 			}
; 115  : 			else
; 116  : 			{
; 117  : 				i3ElementBase * p = (i3ElementBase *) m_pPool->Alloc( sizeof(T), NULL, 0);

  000a5	8b 01		 mov	 eax, DWORD PTR [ecx]
  000a7	6a 00		 push	 0
  000a9	6a 00		 push	 0
  000ab	68 a0 00 00 00	 push	 160			; 000000a0H
  000b0	ff 50 04	 call	 DWORD PTR [eax+4]

; 118  : 	
; 119  : 				BindInstance( p, type);

  000b3	ff 75 08	 push	 DWORD PTR _type$[ebp]
  000b6	8b 17		 mov	 edx, DWORD PTR [edi]
  000b8	8b f0		 mov	 esi, eax
  000ba	56		 push	 esi
  000bb	8b cf		 mov	 ecx, edi
  000bd	ff 52 08	 call	 DWORD PTR [edx+8]
; File E:\Proyectos\JuegosOnlineproyectos\PB\pbblow\Piercing Blow Remake\i3Server\include\i3Base\i3ElementBase.h

; 347  : 	void			__SetMemoryPool( i3MemoryPool * pPool)			{ m_pPool = pPool; }

  000c0	8b 4f 34	 mov	 ecx, DWORD PTR [edi+52]
; File E:\Proyectos\JuegosOnlineproyectos\PB\pbblow\Piercing Blow Remake\i3Server\include\i3Base\i3MetaTemplate.h

; 122  : 				return p;

  000c3	8b c6		 mov	 eax, esi
; File E:\Proyectos\JuegosOnlineproyectos\PB\pbblow\Piercing Blow Remake\i3Server\include\i3Base\i3ElementBase.h

; 347  : 	void			__SetMemoryPool( i3MemoryPool * pPool)			{ m_pPool = pPool; }

  000c5	89 4e 0c	 mov	 DWORD PTR [esi+12], ecx
; File E:\Proyectos\JuegosOnlineproyectos\PB\pbblow\Piercing Blow Remake\i3Server\include\i3Base\i3MetaTemplate.h

; 125  : 	}

  000c8	8b 4d f4	 mov	 ecx, DWORD PTR __$EHRec$[ebp]
  000cb	64 89 0d 00 00
	00 00		 mov	 DWORD PTR fs:0, ecx
  000d2	59		 pop	 ecx
  000d3	5f		 pop	 edi
  000d4	5e		 pop	 esi
  000d5	8b e5		 mov	 esp, ebp
  000d7	5d		 pop	 ebp
  000d8	c2 04 00	 ret	 4
_TEXT	ENDS
;	COMDAT text$x
text$x	SEGMENT
__unwindfunclet$?CreateInstance@?$i3MetaTemplate@Vi3NetworkDataBase@@@@UAEPAVi3ElementBase@@W4I3_CLASSMETA_TYPE@@@Z$0:
  00000	8b 45 08	 mov	 eax, DWORD PTR $T2[ebp]
  00003	50		 push	 eax
  00004	e8 00 00 00 00	 call	 ??3i3ElementBase@@SAXPAX@Z ; i3ElementBase::operator delete
  00009	59		 pop	 ecx
  0000a	c3		 ret	 0
  0000b	cc		 int	 3
  0000c	cc		 int	 3
  0000d	cc		 int	 3
  0000e	cc		 int	 3
  0000f	cc		 int	 3
__ehhandler$?CreateInstance@?$i3MetaTemplate@Vi3NetworkDataBase@@@@UAEPAVi3ElementBase@@W4I3_CLASSMETA_TYPE@@@Z:
  00010	90		 npad	 1
  00011	90		 npad	 1
  00012	8b 54 24 08	 mov	 edx, DWORD PTR [esp+8]
  00016	8d 42 0c	 lea	 eax, DWORD PTR [edx+12]
  00019	8b 4a f4	 mov	 ecx, DWORD PTR [edx-12]
  0001c	33 c8		 xor	 ecx, eax
  0001e	e8 00 00 00 00	 call	 @__security_check_cookie@4
  00023	b8 00 00 00 00	 mov	 eax, OFFSET __ehfuncinfo$?CreateInstance@?$i3MetaTemplate@Vi3NetworkDataBase@@@@UAEPAVi3ElementBase@@W4I3_CLASSMETA_TYPE@@@Z
  00028	e9 00 00 00 00	 jmp	 ___CxxFrameHandler3
text$x	ENDS
?CreateInstance@?$i3MetaTemplate@Vi3NetworkDataBase@@@@UAEPAVi3ElementBase@@W4I3_CLASSMETA_TYPE@@@Z ENDP ; i3MetaTemplate<i3NetworkDataBase>::CreateInstance
; Function compile flags: /Ogtp
; File E:\Proyectos\JuegosOnlineproyectos\PB\pbblow\Piercing Blow Remake\i3Server\include\i3Base\i3MetaTemplate.h
;	COMDAT ??0?$i3MetaTemplate@Vi3NetworkDataBase@@@@QAE@IPAD0W4I3_CLASSMETA_TYPE@@@Z
_TEXT	SEGMENT
_this$ = -4						; size = 4
_classSz$ = 8						; size = 4
_pszClassName$ = 12					; size = 4
_pszBaseClassName$ = 16					; size = 4
_type$ = 20						; size = 4
??0?$i3MetaTemplate@Vi3NetworkDataBase@@@@QAE@IPAD0W4I3_CLASSMETA_TYPE@@@Z PROC ; i3MetaTemplate<i3NetworkDataBase>::i3MetaTemplate<i3NetworkDataBase>, COMDAT
; _this$ = ecx

; 29   : {

  00000	55		 push	 ebp
  00001	8b ec		 mov	 ebp, esp
  00003	51		 push	 ecx
  00004	56		 push	 esi
  00005	ff 75 14	 push	 DWORD PTR _type$[ebp]
  00008	8b f1		 mov	 esi, ecx
  0000a	ff 75 10	 push	 DWORD PTR _pszBaseClassName$[ebp]
  0000d	89 75 fc	 mov	 DWORD PTR _this$[ebp], esi
  00010	ff 75 0c	 push	 DWORD PTR _pszClassName$[ebp]
  00013	ff 75 08	 push	 DWORD PTR _classSz$[ebp]
  00016	e8 00 00 00 00	 call	 ??0i3ClassMeta@@QAE@IPAD0W4I3_CLASSMETA_TYPE@@@Z ; i3ClassMeta::i3ClassMeta
  0001b	c7 06 00 00 00
	00		 mov	 DWORD PTR [esi], OFFSET ??_7?$i3MetaTemplate@Vi3NetworkDataBase@@@@6B@

; 30   : }

  00021	8b c6		 mov	 eax, esi
  00023	5e		 pop	 esi
  00024	8b e5		 mov	 esp, ebp
  00026	5d		 pop	 ebp
  00027	c2 10 00	 ret	 16			; 00000010H
??0?$i3MetaTemplate@Vi3NetworkDataBase@@@@QAE@IPAD0W4I3_CLASSMETA_TYPE@@@Z ENDP ; i3MetaTemplate<i3NetworkDataBase>::i3MetaTemplate<i3NetworkDataBase>
_TEXT	ENDS
; Function compile flags: /Ogtp
; File E:\Proyectos\JuegosOnlineproyectos\PB\pbblow\Piercing Blow Remake\i3Server\src\i3Base\i3NetworkDB.cpp
;	COMDAT ??_Ei3NetworkDataBase@@UAEPAXI@Z
_TEXT	SEGMENT
__$EHRec$ = -12						; size = 12
___flags$ = 8						; size = 4
??_Ei3NetworkDataBase@@UAEPAXI@Z PROC			; i3NetworkDataBase::`vector deleting destructor', COMDAT
; _this$ = ecx
  00000	55		 push	 ebp
  00001	8b ec		 mov	 ebp, esp
  00003	6a ff		 push	 -1
  00005	68 00 00 00 00	 push	 __ehhandler$??_Ei3NetworkDataBase@@UAEPAXI@Z
  0000a	64 a1 00 00 00
	00		 mov	 eax, DWORD PTR fs:0
  00010	50		 push	 eax
  00011	53		 push	 ebx
  00012	56		 push	 esi
  00013	57		 push	 edi
  00014	a1 00 00 00 00	 mov	 eax, DWORD PTR ___security_cookie
  00019	33 c5		 xor	 eax, ebp
  0001b	50		 push	 eax
  0001c	8d 45 f4	 lea	 eax, DWORD PTR __$EHRec$[ebp]
  0001f	64 a3 00 00 00
	00		 mov	 DWORD PTR fs:0, eax
  00025	8b f1		 mov	 esi, ecx
  00027	8b 5d 08	 mov	 ebx, DWORD PTR ___flags$[ebp]
  0002a	8b fb		 mov	 edi, ebx
  0002c	83 e7 01	 and	 edi, 1
  0002f	f6 c3 02	 test	 bl, 2
  00032	74 45		 je	 SHORT $LN2@vector
  00034	68 00 00 00 00	 push	 OFFSET ??1i3NetworkDataBase@@UAE@XZ ; i3NetworkDataBase::~i3NetworkDataBase
  00039	ff 76 fc	 push	 DWORD PTR [esi-4]
  0003c	8d 5e fc	 lea	 ebx, DWORD PTR [esi-4]
  0003f	68 a0 00 00 00	 push	 160			; 000000a0H
  00044	56		 push	 esi
  00045	e8 00 00 00 00	 call	 ??_M@YGXPAXIIP6EX0@Z@Z
  0004a	85 ff		 test	 edi, edi
  0004c	74 15		 je	 SHORT $LN3@vector
  0004e	8b 0b		 mov	 ecx, DWORD PTR [ebx]
  00050	8d 0c 89	 lea	 ecx, DWORD PTR [ecx+ecx*4]
  00053	c1 e1 05	 shl	 ecx, 5
  00056	83 c1 04	 add	 ecx, 4
  00059	51		 push	 ecx
  0005a	53		 push	 ebx
  0005b	e8 00 00 00 00	 call	 ??_V@YAXPAXI@Z		; operator delete[]
  00060	83 c4 08	 add	 esp, 8
$LN3@vector:
  00063	8b c3		 mov	 eax, ebx
  00065	8b 4d f4	 mov	 ecx, DWORD PTR __$EHRec$[ebp]
  00068	64 89 0d 00 00
	00 00		 mov	 DWORD PTR fs:0, ecx
  0006f	59		 pop	 ecx
  00070	5f		 pop	 edi
  00071	5e		 pop	 esi
  00072	5b		 pop	 ebx
  00073	8b e5		 mov	 esp, ebp
  00075	5d		 pop	 ebp
  00076	c2 04 00	 ret	 4
$LN2@vector:

; 23   : {

  00079	c7 06 00 00 00
	00		 mov	 DWORD PTR [esi], OFFSET ??_7i3NetworkDataBase@@6B@

; 24   : 	Disconnect(); 

  0007f	e8 00 00 00 00	 call	 ?Disconnect@i3NetworkDataBase@@QAEHXZ ; i3NetworkDataBase::Disconnect

; 25   : }

  00084	8b ce		 mov	 ecx, esi
  00086	e8 00 00 00 00	 call	 ??1i3ElementBase@@UAE@XZ ; i3ElementBase::~i3ElementBase
  0008b	85 ff		 test	 edi, edi
  0008d	74 1e		 je	 SHORT $LN6@vector
  0008f	f6 c3 04	 test	 bl, 4
  00092	75 0b		 jne	 SHORT $LN5@vector
  00094	56		 push	 esi
  00095	e8 00 00 00 00	 call	 ??3i3ElementBase@@SAXPAX@Z ; i3ElementBase::operator delete
  0009a	83 c4 04	 add	 esp, 4
  0009d	eb 0e		 jmp	 SHORT $LN6@vector
$LN5@vector:

  0009f	68 a0 00 00 00	 push	 160			; 000000a0H
  000a4	56		 push	 esi
  000a5	e8 00 00 00 00	 call	 ??3@YAXPAXI@Z		; operator delete
  000aa	83 c4 08	 add	 esp, 8
$LN6@vector:
  000ad	8b c6		 mov	 eax, esi
  000af	8b 4d f4	 mov	 ecx, DWORD PTR __$EHRec$[ebp]
  000b2	64 89 0d 00 00
	00 00		 mov	 DWORD PTR fs:0, ecx
  000b9	59		 pop	 ecx
  000ba	5f		 pop	 edi
  000bb	5e		 pop	 esi
  000bc	5b		 pop	 ebx
  000bd	8b e5		 mov	 esp, ebp
  000bf	5d		 pop	 ebp
  000c0	c2 04 00	 ret	 4
  000c3	cc		 int	 3
  000c4	cc		 int	 3
  000c5	cc		 int	 3
  000c6	cc		 int	 3
  000c7	cc		 int	 3
_TEXT	ENDS
;	COMDAT text$x
text$x	SEGMENT
__ehhandler$??_Ei3NetworkDataBase@@UAEPAXI@Z:
  00000	90		 npad	 1
  00001	90		 npad	 1
  00002	8b 54 24 08	 mov	 edx, DWORD PTR [esp+8]
  00006	8d 42 0c	 lea	 eax, DWORD PTR [edx+12]
  00009	8b 4a f0	 mov	 ecx, DWORD PTR [edx-16]
  0000c	33 c8		 xor	 ecx, eax
  0000e	e8 00 00 00 00	 call	 @__security_check_cookie@4
  00013	b8 00 00 00 00	 mov	 eax, OFFSET __ehfuncinfo$??_Ei3NetworkDataBase@@UAEPAXI@Z
  00018	e9 00 00 00 00	 jmp	 ___CxxFrameHandler3
text$x	ENDS
??_Ei3NetworkDataBase@@UAEPAXI@Z ENDP			; i3NetworkDataBase::`vector deleting destructor'
; Function compile flags: /Ogtp
; File E:\Proyectos\JuegosOnlineproyectos\PB\pbblow\Piercing Blow Remake\i3Server\src\i3Base\i3NetworkDB.cpp
;	COMDAT ??_Gi3NetworkDataBase@@UAEPAXI@Z
_TEXT	SEGMENT
___flags$ = 8						; size = 4
??_Gi3NetworkDataBase@@UAEPAXI@Z PROC			; i3NetworkDataBase::`scalar deleting destructor', COMDAT
; _this$ = ecx
  00000	55		 push	 ebp
  00001	8b ec		 mov	 ebp, esp

; 23   : {

  00003	56		 push	 esi
  00004	8b f1		 mov	 esi, ecx
  00006	c7 06 00 00 00
	00		 mov	 DWORD PTR [esi], OFFSET ??_7i3NetworkDataBase@@6B@

; 24   : 	Disconnect(); 

  0000c	e8 00 00 00 00	 call	 ?Disconnect@i3NetworkDataBase@@QAEHXZ ; i3NetworkDataBase::Disconnect

; 25   : }

  00011	8b ce		 mov	 ecx, esi
  00013	e8 00 00 00 00	 call	 ??1i3ElementBase@@UAE@XZ ; i3ElementBase::~i3ElementBase
  00018	8b 45 08	 mov	 eax, DWORD PTR ___flags$[ebp]
  0001b	a8 01		 test	 al, 1
  0001d	74 22		 je	 SHORT $LN15@scalar
  0001f	a8 04		 test	 al, 4
  00021	75 10		 jne	 SHORT $LN3@scalar
  00023	56		 push	 esi
  00024	e8 00 00 00 00	 call	 ??3i3ElementBase@@SAXPAX@Z ; i3ElementBase::operator delete
  00029	83 c4 04	 add	 esp, 4
  0002c	8b c6		 mov	 eax, esi
  0002e	5e		 pop	 esi
  0002f	5d		 pop	 ebp
  00030	c2 04 00	 ret	 4
$LN3@scalar:

  00033	68 a0 00 00 00	 push	 160			; 000000a0H
  00038	56		 push	 esi
  00039	e8 00 00 00 00	 call	 ??3@YAXPAXI@Z		; operator delete
  0003e	83 c4 08	 add	 esp, 8
$LN15@scalar:
  00041	8b c6		 mov	 eax, esi
  00043	5e		 pop	 esi
  00044	5d		 pop	 ebp
  00045	c2 04 00	 ret	 4
??_Gi3NetworkDataBase@@UAEPAXI@Z ENDP			; i3NetworkDataBase::`scalar deleting destructor'
_TEXT	ENDS
; Function compile flags: /Ogtp
;	COMDAT ??4i3NetworkDataBase@@QAEAAV0@ABV0@@Z
_TEXT	SEGMENT
___that$ = 8						; size = 4
??4i3NetworkDataBase@@QAEAAV0@ABV0@@Z PROC		; i3NetworkDataBase::operator=, COMDAT
; _this$ = ecx
  00000	55		 push	 ebp
  00001	8b ec		 mov	 ebp, esp
  00003	8b d1		 mov	 edx, ecx
  00005	33 c9		 xor	 ecx, ecx
  00007	56		 push	 esi
  00008	8b 75 08	 mov	 esi, DWORD PTR ___that$[ebp]
  0000b	8b 46 04	 mov	 eax, DWORD PTR [esi+4]
  0000e	89 42 04	 mov	 DWORD PTR [edx+4], eax
  00011	8b 46 08	 mov	 eax, DWORD PTR [esi+8]
  00014	89 42 08	 mov	 DWORD PTR [edx+8], eax
  00017	8b 46 0c	 mov	 eax, DWORD PTR [esi+12]
  0001a	89 42 0c	 mov	 DWORD PTR [edx+12], eax
  0001d	8b 46 10	 mov	 eax, DWORD PTR [esi+16]
  00020	89 42 10	 mov	 DWORD PTR [edx+16], eax
  00023	8b 46 14	 mov	 eax, DWORD PTR [esi+20]
  00026	89 42 14	 mov	 DWORD PTR [edx+20], eax
  00029	8b 46 18	 mov	 eax, DWORD PTR [esi+24]
  0002c	89 42 18	 mov	 DWORD PTR [edx+24], eax
  0002f	90		 npad	 1
$LL4@operator:
  00030	8a 44 0e 1c	 mov	 al, BYTE PTR [esi+ecx+28]
  00034	88 44 0a 1c	 mov	 BYTE PTR [edx+ecx+28], al
  00038	41		 inc	 ecx
  00039	83 f9 20	 cmp	 ecx, 32			; 00000020H
  0003c	72 f2		 jb	 SHORT $LL4@operator
  0003e	33 c9		 xor	 ecx, ecx
$LL7@operator:
  00040	8a 44 0e 3c	 mov	 al, BYTE PTR [esi+ecx+60]
  00044	88 44 0a 3c	 mov	 BYTE PTR [edx+ecx+60], al
  00048	41		 inc	 ecx
  00049	83 f9 20	 cmp	 ecx, 32			; 00000020H
  0004c	72 f2		 jb	 SHORT $LL7@operator
  0004e	33 c9		 xor	 ecx, ecx
$LL10@operator:
  00050	8a 44 0e 5c	 mov	 al, BYTE PTR [esi+ecx+92]
  00054	88 44 0a 5c	 mov	 BYTE PTR [edx+ecx+92], al
  00058	41		 inc	 ecx
  00059	83 f9 20	 cmp	 ecx, 32			; 00000020H
  0005c	72 f2		 jb	 SHORT $LL10@operator
  0005e	33 c0		 xor	 eax, eax
$LL13@operator:
  00060	8a 4c 06 7c	 mov	 cl, BYTE PTR [esi+eax+124]
  00064	88 4c 02 7c	 mov	 BYTE PTR [edx+eax+124], cl
  00068	40		 inc	 eax
  00069	83 f8 20	 cmp	 eax, 32			; 00000020H
  0006c	72 f2		 jb	 SHORT $LL13@operator
  0006e	8b 86 9c 00 00
	00		 mov	 eax, DWORD PTR [esi+156]
  00074	89 82 9c 00 00
	00		 mov	 DWORD PTR [edx+156], eax
  0007a	8b c2		 mov	 eax, edx
  0007c	5e		 pop	 esi
  0007d	5d		 pop	 ebp
  0007e	c2 04 00	 ret	 4
??4i3NetworkDataBase@@QAEAAV0@ABV0@@Z ENDP		; i3NetworkDataBase::operator=
_TEXT	ENDS
; Function compile flags: /Ogtp
;	COMDAT ??0i3NetworkDataBase@@QAE@ABV0@@Z
_TEXT	SEGMENT
___that$ = 8						; size = 4
??0i3NetworkDataBase@@QAE@ABV0@@Z PROC			; i3NetworkDataBase::i3NetworkDataBase, COMDAT
; _this$ = ecx
  00000	55		 push	 ebp
  00001	8b ec		 mov	 ebp, esp
  00003	8b 55 08	 mov	 edx, DWORD PTR ___that$[ebp]
  00006	53		 push	 ebx
  00007	8b d9		 mov	 ebx, ecx
  00009	b9 08 00 00 00	 mov	 ecx, 8
  0000e	56		 push	 esi
  0000f	57		 push	 edi
  00010	8d 72 1c	 lea	 esi, DWORD PTR [edx+28]
  00013	c7 03 00 00 00
	00		 mov	 DWORD PTR [ebx], OFFSET ??_7i3ElementBase@@6B@
  00019	8d 7b 1c	 lea	 edi, DWORD PTR [ebx+28]
  0001c	8b 42 04	 mov	 eax, DWORD PTR [edx+4]
  0001f	89 43 04	 mov	 DWORD PTR [ebx+4], eax
  00022	8b 42 08	 mov	 eax, DWORD PTR [edx+8]
  00025	89 43 08	 mov	 DWORD PTR [ebx+8], eax
  00028	8b 42 0c	 mov	 eax, DWORD PTR [edx+12]
  0002b	89 43 0c	 mov	 DWORD PTR [ebx+12], eax
  0002e	c7 03 00 00 00
	00		 mov	 DWORD PTR [ebx], OFFSET ??_7i3NetworkDataBase@@6B@
  00034	8b 42 10	 mov	 eax, DWORD PTR [edx+16]
  00037	89 43 10	 mov	 DWORD PTR [ebx+16], eax
  0003a	8b 42 14	 mov	 eax, DWORD PTR [edx+20]
  0003d	89 43 14	 mov	 DWORD PTR [ebx+20], eax
  00040	8b 42 18	 mov	 eax, DWORD PTR [edx+24]
  00043	89 43 18	 mov	 DWORD PTR [ebx+24], eax
  00046	f3 a5		 rep movsd
  00048	8d 7b 3c	 lea	 edi, DWORD PTR [ebx+60]
  0004b	b9 08 00 00 00	 mov	 ecx, 8
  00050	8d 72 3c	 lea	 esi, DWORD PTR [edx+60]
  00053	f3 a5		 rep movsd
  00055	8d 7b 5c	 lea	 edi, DWORD PTR [ebx+92]
  00058	b9 08 00 00 00	 mov	 ecx, 8
  0005d	8d 72 5c	 lea	 esi, DWORD PTR [edx+92]
  00060	f3 a5		 rep movsd
  00062	8d 7b 7c	 lea	 edi, DWORD PTR [ebx+124]
  00065	b9 08 00 00 00	 mov	 ecx, 8
  0006a	8d 72 7c	 lea	 esi, DWORD PTR [edx+124]
  0006d	f3 a5		 rep movsd
  0006f	8b 82 9c 00 00
	00		 mov	 eax, DWORD PTR [edx+156]
  00075	5f		 pop	 edi
  00076	89 83 9c 00 00
	00		 mov	 DWORD PTR [ebx+156], eax
  0007c	8b c3		 mov	 eax, ebx
  0007e	5e		 pop	 esi
  0007f	5b		 pop	 ebx
  00080	5d		 pop	 ebp
  00081	c2 04 00	 ret	 4
??0i3NetworkDataBase@@QAE@ABV0@@Z ENDP			; i3NetworkDataBase::i3NetworkDataBase
_TEXT	ENDS
; Function compile flags: /Ogtp
; File E:\Proyectos\JuegosOnlineproyectos\PB\pbblow\Piercing Blow Remake\i3Server\src\i3Base\i3NetworkDB.cpp
;	COMDAT ?GetError@i3NetworkDataBase@@QAEXFPAXPBD@Z
_TEXT	SEGMENT
_iDiag$ = -552						; size = 4
_NativeError$ = -548					; size = 4
_nMsgLen$ = -544					; size = 2
_st$1 = -540						; size = 16
_szErrorMsg$ = -524					; size = 512
_szSqlState$ = -12					; size = 6
__$ArrayPad$ = -4					; size = 4
_nHandleType$ = 8					; size = 2
_sqlhandle$ = 12					; size = 4
_pPosition$ = 16					; size = 4
?GetError@i3NetworkDataBase@@QAEXFPAXPBD@Z PROC		; i3NetworkDataBase::GetError, COMDAT
; _this$ = ecx

; 222  : {	

  00000	55		 push	 ebp
  00001	8b ec		 mov	 ebp, esp
  00003	81 ec 28 02 00
	00		 sub	 esp, 552		; 00000228H
  00009	a1 00 00 00 00	 mov	 eax, DWORD PTR ___security_cookie
  0000e	33 c5		 xor	 eax, ebp
  00010	89 45 fc	 mov	 DWORD PTR __$ArrayPad$[ebp], eax
  00013	53		 push	 ebx
  00014	56		 push	 esi
  00015	57		 push	 edi
  00016	8b 7d 0c	 mov	 edi, DWORD PTR _sqlhandle$[ebp]

; 30   : 	::GetLocalTime( &st );

  00019	8d 85 e4 fd ff
	ff		 lea	 eax, DWORD PTR _st$1[ebp]
  0001f	50		 push	 eax

; 222  : {	

  00020	8b f1		 mov	 esi, ecx

; 30   : 	::GetLocalTime( &st );

  00022	ff 15 00 00 00
	00		 call	 DWORD PTR __imp__GetLocalTime@4

; 31   : 	sprintf( m_szTime, "%d-%d-%d %d:%d:%d", st.wYear, st.wMonth, st.wDay, st.wHour, st.wMinute, st.wSecond );

  00028	0f b7 85 f0 fd
	ff ff		 movzx	 eax, WORD PTR _st$1[ebp+12]
  0002f	50		 push	 eax
  00030	0f b7 85 ee fd
	ff ff		 movzx	 eax, WORD PTR _st$1[ebp+10]
  00037	50		 push	 eax
  00038	0f b7 85 ec fd
	ff ff		 movzx	 eax, WORD PTR _st$1[ebp+8]
  0003f	50		 push	 eax
  00040	0f b7 85 ea fd
	ff ff		 movzx	 eax, WORD PTR _st$1[ebp+6]
  00047	50		 push	 eax
  00048	0f b7 85 e6 fd
	ff ff		 movzx	 eax, WORD PTR _st$1[ebp+2]
  0004f	50		 push	 eax
  00050	0f b7 85 e4 fd
	ff ff		 movzx	 eax, WORD PTR _st$1[ebp]
  00057	50		 push	 eax
  00058	8d 46 7c	 lea	 eax, DWORD PTR [esi+124]
  0005b	68 00 00 00 00	 push	 OFFSET ??_C@_0BC@MBOFKFHK@?$CFd?9?$CFd?9?$CFd?5?$CFd?3?$CFd?3?$CFd@
  00060	50		 push	 eax
  00061	e8 00 00 00 00	 call	 _sprintf

; 223  : 	char	szSqlState[ 6 ];
; 224  : 	char	szErrorMsg[ SQL_MAX_MESSAGE_LENGTH ];
; 225  : 	INT32	NativeError;
; 226  : 	INT16	nMsgLen;
; 227  : 
; 228  : 	INT32	iDiag;
; 229  : 	RETCODE	ret;
; 230  : 
; 231  : 	GetCurrentDate();
; 232  : 	
; 233  : 	::SQLGetDiagField( nHandleType, sqlhandle, 0, SQL_DIAG_NUMBER,

  00066	8b 5d 08	 mov	 ebx, DWORD PTR _nHandleType$[ebp]
  00069	8d 85 e0 fd ff
	ff		 lea	 eax, DWORD PTR _nMsgLen$[ebp]

; 31   : 	sprintf( m_szTime, "%d-%d-%d %d:%d:%d", st.wYear, st.wMonth, st.wDay, st.wHour, st.wMinute, st.wSecond );

  0006f	83 c4 20	 add	 esp, 32			; 00000020H

; 223  : 	char	szSqlState[ 6 ];
; 224  : 	char	szErrorMsg[ SQL_MAX_MESSAGE_LENGTH ];
; 225  : 	INT32	NativeError;
; 226  : 	INT16	nMsgLen;
; 227  : 
; 228  : 	INT32	iDiag;
; 229  : 	RETCODE	ret;
; 230  : 
; 231  : 	GetCurrentDate();
; 232  : 	
; 233  : 	::SQLGetDiagField( nHandleType, sqlhandle, 0, SQL_DIAG_NUMBER,

  00072	50		 push	 eax
  00073	6a 00		 push	 0
  00075	8d 85 d8 fd ff
	ff		 lea	 eax, DWORD PTR _iDiag$[ebp]
  0007b	50		 push	 eax
  0007c	6a 02		 push	 2
  0007e	6a 00		 push	 0
  00080	57		 push	 edi
  00081	53		 push	 ebx
  00082	e8 00 00 00 00	 call	 _SQLGetDiagField@28

; 242  : 	{
; 243  : 		ret = ::SQLGetDiagRec( nHandleType, sqlhandle, (SQLSMALLINT) i, (SQLCHAR*) szSqlState, (SQLINTEGER*) &NativeError,

  00087	8d 85 e0 fd ff
	ff		 lea	 eax, DWORD PTR _nMsgLen$[ebp]
  0008d	be 01 00 00 00	 mov	 esi, 1
  00092	50		 push	 eax
  00093	68 00 02 00 00	 push	 512			; 00000200H
  00098	8d 85 f4 fd ff
	ff		 lea	 eax, DWORD PTR _szErrorMsg$[ebp]
  0009e	50		 push	 eax
  0009f	8d 85 dc fd ff
	ff		 lea	 eax, DWORD PTR _NativeError$[ebp]
  000a5	50		 push	 eax
  000a6	8d 45 f4	 lea	 eax, DWORD PTR _szSqlState$[ebp]
  000a9	50		 push	 eax
  000aa	56		 push	 esi
  000ab	57		 push	 edi
  000ac	53		 push	 ebx
  000ad	e8 00 00 00 00	 call	 _SQLGetDiagRec@32

; 244  : 			(SQLCHAR*) szErrorMsg, (SQLSMALLINT) sizeof( szErrorMsg ), (SQLSMALLINT*) &nMsgLen );
; 245  : 
; 246  : 		if( ret == SQL_NO_DATA )		break;

  000b2	66 83 f8 64	 cmp	 ax, 100			; 00000064H
  000b6	74 32		 je	 SHORT $LN19@GetError
$LL4@GetError:

; 247  : 		if( i > 10)						break;		//ľĆą«¸® ¸ąľĆµµ 10°ł¸¸ Ăâ·ÂÇŐ´Ď´Ů. 

  000b8	83 fe 0a	 cmp	 esi, 10			; 0000000aH
  000bb	7f 2d		 jg	 SHORT $LN19@GetError

; 234  : 		(SQLPOINTER) &iDiag, 0, (SQLSMALLINT*) &nMsgLen );
; 235  : 
; 236  : 	if( pPosition != NULL )
; 237  : 		I3TRACE( "[i3NetworkDataBase::GetError] (%s) Posistion( %s ), Diagnostic count = %d, \n", m_szTime, pPosition, iDiag );
; 238  : 	else
; 239  : 		I3TRACE( "[i3NetworkDataBase::GetError] (%s) Diagnostic count = %d, \n", m_szTime, iDiag );
; 240  :  
; 241  : 	for( INT32	i = 1; ; i++ )

  000bd	8d 85 e0 fd ff
	ff		 lea	 eax, DWORD PTR _nMsgLen$[ebp]
  000c3	46		 inc	 esi

; 242  : 	{
; 243  : 		ret = ::SQLGetDiagRec( nHandleType, sqlhandle, (SQLSMALLINT) i, (SQLCHAR*) szSqlState, (SQLINTEGER*) &NativeError,

  000c4	50		 push	 eax
  000c5	68 00 02 00 00	 push	 512			; 00000200H
  000ca	8d 85 f4 fd ff
	ff		 lea	 eax, DWORD PTR _szErrorMsg$[ebp]
  000d0	50		 push	 eax
  000d1	8d 85 dc fd ff
	ff		 lea	 eax, DWORD PTR _NativeError$[ebp]
  000d7	50		 push	 eax
  000d8	8d 45 f4	 lea	 eax, DWORD PTR _szSqlState$[ebp]
  000db	50		 push	 eax
  000dc	56		 push	 esi
  000dd	57		 push	 edi
  000de	53		 push	 ebx
  000df	e8 00 00 00 00	 call	 _SQLGetDiagRec@32

; 244  : 			(SQLCHAR*) szErrorMsg, (SQLSMALLINT) sizeof( szErrorMsg ), (SQLSMALLINT*) &nMsgLen );
; 245  : 
; 246  : 		if( ret == SQL_NO_DATA )		break;

  000e4	66 83 f8 64	 cmp	 ax, 100			; 00000064H
  000e8	75 ce		 jne	 SHORT $LL4@GetError
$LN19@GetError:

; 248  : 
; 249  : 		I3TRACE( "\t%d) SQLSTATE:%s, NativeError:%d, Message:%s\n", i, szSqlState, NativeError, szErrorMsg );			
; 250  : 	}
; 251  : 
; 252  : 	return;
; 253  : }

  000ea	8b 4d fc	 mov	 ecx, DWORD PTR __$ArrayPad$[ebp]
  000ed	5f		 pop	 edi
  000ee	5e		 pop	 esi
  000ef	33 cd		 xor	 ecx, ebp
  000f1	5b		 pop	 ebx
  000f2	e8 00 00 00 00	 call	 @__security_check_cookie@4
  000f7	8b e5		 mov	 esp, ebp
  000f9	5d		 pop	 ebp
  000fa	c2 0c 00	 ret	 12			; 0000000cH
?GetError@i3NetworkDataBase@@QAEXFPAXPBD@Z ENDP		; i3NetworkDataBase::GetError
_TEXT	ENDS
; Function compile flags: /Ogtp
; File E:\Proyectos\JuegosOnlineproyectos\PB\pbblow\Piercing Blow Remake\i3Server\src\i3Base\i3NetworkDB.cpp
;	COMDAT ?SetStmtOption@i3NetworkDataBase@@QAEHHI@Z
_TEXT	SEGMENT
_Option$ = 8						; size = 4
_Value$ = 12						; size = 4
?SetStmtOption@i3NetworkDataBase@@QAEHHI@Z PROC		; i3NetworkDataBase::SetStmtOption, COMDAT
; _this$ = ecx

; 207  : {

  00000	55		 push	 ebp
  00001	8b ec		 mov	 ebp, esp
  00003	56		 push	 esi

; 208  : #if defined( I3NETWORK_DB_STMTOPTION )
; 209  : 	RETCODE	ret;
; 210  : 
; 211  : 	ret = ::SQLSetStmtAttr( m_hStmt, (SQLINTEGER) Option, (SQLPOINTER) &Value, (SQLINTEGER) sizeof( UINT32 ) );

  00004	6a 04		 push	 4
  00006	8d 45 0c	 lea	 eax, DWORD PTR _Value$[ebp]
  00009	8b f1		 mov	 esi, ecx
  0000b	50		 push	 eax
  0000c	ff 75 08	 push	 DWORD PTR _Option$[ebp]
  0000f	ff 76 18	 push	 DWORD PTR [esi+24]
  00012	e8 00 00 00 00	 call	 _SQLSetStmtAttr@16
  00017	0f b7 c0	 movzx	 eax, ax

; 212  : 	if( (ret != SQL_SUCCESS) && (ret != SQL_SUCCESS_WITH_INFO ) )

  0001a	66 85 c0	 test	 ax, ax
  0001d	74 1e		 je	 SHORT $LN2@SetStmtOpt
  0001f	66 83 f8 01	 cmp	 ax, 1
  00023	74 18		 je	 SHORT $LN2@SetStmtOpt

; 213  : 	{	
; 214  : 		GetError(SQL_HANDLE_STMT, m_hStmt, "SetStmtOption" ); return FALSE;

  00025	68 00 00 00 00	 push	 OFFSET ??_C@_0O@JBJOOAAF@SetStmtOption@
  0002a	ff 76 18	 push	 DWORD PTR [esi+24]
  0002d	8b ce		 mov	 ecx, esi
  0002f	6a 03		 push	 3
  00031	e8 00 00 00 00	 call	 ?GetError@i3NetworkDataBase@@QAEXFPAXPBD@Z ; i3NetworkDataBase::GetError
  00036	33 c0		 xor	 eax, eax
  00038	5e		 pop	 esi

; 218  : }

  00039	5d		 pop	 ebp
  0003a	c2 08 00	 ret	 8
$LN2@SetStmtOpt:

; 215  : 	}
; 216  : #endif
; 217  : 	return TRUE;

  0003d	b8 01 00 00 00	 mov	 eax, 1
  00042	5e		 pop	 esi

; 218  : }

  00043	5d		 pop	 ebp
  00044	c2 08 00	 ret	 8
?SetStmtOption@i3NetworkDataBase@@QAEHHI@Z ENDP		; i3NetworkDataBase::SetStmtOption
_TEXT	ENDS
; Function compile flags: /Ogtp
; File E:\Proyectos\JuegosOnlineproyectos\PB\pbblow\Piercing Blow Remake\i3Server\src\i3Base\i3NetworkDB.cpp
;	COMDAT ?GetCurrentDate@i3NetworkDataBase@@QAEPADXZ
_TEXT	SEGMENT
_st$ = -20						; size = 16
__$ArrayPad$ = -4					; size = 4
?GetCurrentDate@i3NetworkDataBase@@QAEPADXZ PROC	; i3NetworkDataBase::GetCurrentDate, COMDAT
; _this$ = ecx

; 28   : {

  00000	55		 push	 ebp
  00001	8b ec		 mov	 ebp, esp
  00003	83 ec 14	 sub	 esp, 20			; 00000014H
  00006	a1 00 00 00 00	 mov	 eax, DWORD PTR ___security_cookie
  0000b	33 c5		 xor	 eax, ebp
  0000d	89 45 fc	 mov	 DWORD PTR __$ArrayPad$[ebp], eax
  00010	56		 push	 esi

; 29   : 	SYSTEMTIME	st;
; 30   : 	::GetLocalTime( &st );

  00011	8d 45 ec	 lea	 eax, DWORD PTR _st$[ebp]
  00014	8b f1		 mov	 esi, ecx
  00016	50		 push	 eax
  00017	ff 15 00 00 00
	00		 call	 DWORD PTR __imp__GetLocalTime@4

; 31   : 	sprintf( m_szTime, "%d-%d-%d %d:%d:%d", st.wYear, st.wMonth, st.wDay, st.wHour, st.wMinute, st.wSecond );

  0001d	0f b7 45 f8	 movzx	 eax, WORD PTR _st$[ebp+12]
  00021	83 c6 7c	 add	 esi, 124		; 0000007cH
  00024	0f b7 4d f2	 movzx	 ecx, WORD PTR _st$[ebp+6]
  00028	50		 push	 eax
  00029	0f b7 45 f6	 movzx	 eax, WORD PTR _st$[ebp+10]
  0002d	50		 push	 eax
  0002e	0f b7 45 f4	 movzx	 eax, WORD PTR _st$[ebp+8]
  00032	50		 push	 eax
  00033	51		 push	 ecx
  00034	0f b7 4d ee	 movzx	 ecx, WORD PTR _st$[ebp+2]
  00038	51		 push	 ecx
  00039	0f b7 4d ec	 movzx	 ecx, WORD PTR _st$[ebp]
  0003d	51		 push	 ecx
  0003e	68 00 00 00 00	 push	 OFFSET ??_C@_0BC@MBOFKFHK@?$CFd?9?$CFd?9?$CFd?5?$CFd?3?$CFd?3?$CFd@
  00043	56		 push	 esi
  00044	e8 00 00 00 00	 call	 _sprintf

; 32   : 	return m_szTime; 
; 33   : }

  00049	8b 4d fc	 mov	 ecx, DWORD PTR __$ArrayPad$[ebp]
  0004c	83 c4 20	 add	 esp, 32			; 00000020H
  0004f	8b c6		 mov	 eax, esi
  00051	33 cd		 xor	 ecx, ebp
  00053	5e		 pop	 esi
  00054	e8 00 00 00 00	 call	 @__security_check_cookie@4
  00059	8b e5		 mov	 esp, ebp
  0005b	5d		 pop	 ebp
  0005c	c3		 ret	 0
?GetCurrentDate@i3NetworkDataBase@@QAEPADXZ ENDP	; i3NetworkDataBase::GetCurrentDate
_TEXT	ENDS
; Function compile flags: /Ogtp
; File E:\Proyectos\JuegosOnlineproyectos\PB\pbblow\Piercing Blow Remake\i3Server\src\i3Base\i3NetworkDB.cpp
;	COMDAT ?ResultRowCount@i3NetworkDataBase@@QAEJXZ
_TEXT	SEGMENT
_ResultRowCount$ = -4					; size = 4
?ResultRowCount@i3NetworkDataBase@@QAEJXZ PROC		; i3NetworkDataBase::ResultRowCount, COMDAT
; _this$ = ecx

; 162  : {

  00000	55		 push	 ebp
  00001	8b ec		 mov	 ebp, esp
  00003	51		 push	 ecx
  00004	56		 push	 esi
  00005	8b f1		 mov	 esi, ecx

; 163  : 	RETCODE ret;
; 164  : 	SQLLEN ResultRowCount; 	
; 165  : 	ret = SQLRowCount(m_hStmt, &ResultRowCount); 

  00007	8d 45 fc	 lea	 eax, DWORD PTR _ResultRowCount$[ebp]
  0000a	50		 push	 eax
  0000b	ff 76 18	 push	 DWORD PTR [esi+24]
  0000e	e8 00 00 00 00	 call	 _SQLRowCount@8
  00013	0f b7 c0	 movzx	 eax, ax

; 166  : 	if(  (ret != SQL_SUCCESS) && (ret != SQL_SUCCESS_WITH_INFO )  )

  00016	66 85 c0	 test	 ax, ax
  00019	74 1f		 je	 SHORT $LN2@ResultRowC
  0001b	66 83 f8 01	 cmp	 ax, 1
  0001f	74 19		 je	 SHORT $LN2@ResultRowC

; 167  : 	{	
; 168  : 		GetError(SQL_HANDLE_STMT, m_hStmt, "SQLRowCount" );

  00021	68 00 00 00 00	 push	 OFFSET ??_C@_0M@EJIMPDMM@SQLRowCount@
  00026	ff 76 18	 push	 DWORD PTR [esi+24]
  00029	8b ce		 mov	 ecx, esi
  0002b	6a 03		 push	 3
  0002d	e8 00 00 00 00	 call	 ?GetError@i3NetworkDataBase@@QAEXFPAXPBD@Z ; i3NetworkDataBase::GetError

; 169  : 		return -1;

  00032	83 c8 ff	 or	 eax, -1
  00035	5e		 pop	 esi

; 172  : }

  00036	8b e5		 mov	 esp, ebp
  00038	5d		 pop	 ebp
  00039	c3		 ret	 0
$LN2@ResultRowC:

; 170  : 	}
; 171  : 	return ResultRowCount; 

  0003a	8b 45 fc	 mov	 eax, DWORD PTR _ResultRowCount$[ebp]
  0003d	5e		 pop	 esi

; 172  : }

  0003e	8b e5		 mov	 esp, ebp
  00040	5d		 pop	 ebp
  00041	c3		 ret	 0
?ResultRowCount@i3NetworkDataBase@@QAEJXZ ENDP		; i3NetworkDataBase::ResultRowCount
_TEXT	ENDS
; Function compile flags: /Ogtp
; File E:\Proyectos\JuegosOnlineproyectos\PB\pbblow\Piercing Blow Remake\i3Server\src\i3Base\i3NetworkDB.cpp
;	COMDAT ?ResultColCount@i3NetworkDataBase@@QAEFXZ
_TEXT	SEGMENT
_ResultColCount$ = -4					; size = 2
?ResultColCount@i3NetworkDataBase@@QAEFXZ PROC		; i3NetworkDataBase::ResultColCount, COMDAT
; _this$ = ecx

; 149  : {

  00000	55		 push	 ebp
  00001	8b ec		 mov	 ebp, esp
  00003	51		 push	 ecx
  00004	56		 push	 esi
  00005	8b f1		 mov	 esi, ecx

; 150  : 	RETCODE ret;
; 151  : 	INT16 ResultColCount;
; 152  : 	ret = SQLNumResultCols(m_hStmt, &ResultColCount); 

  00007	8d 45 fc	 lea	 eax, DWORD PTR _ResultColCount$[ebp]
  0000a	50		 push	 eax
  0000b	ff 76 18	 push	 DWORD PTR [esi+24]
  0000e	e8 00 00 00 00	 call	 _SQLNumResultCols@8
  00013	0f b7 c0	 movzx	 eax, ax

; 153  : 	if(  (ret != SQL_SUCCESS) && (ret != SQL_SUCCESS_WITH_INFO )  )

  00016	66 85 c0	 test	 ax, ax
  00019	74 1f		 je	 SHORT $LN2@ResultColC
  0001b	66 83 f8 01	 cmp	 ax, 1
  0001f	74 19		 je	 SHORT $LN2@ResultColC

; 154  : 	{	
; 155  : 		GetError(SQL_HANDLE_STMT, m_hStmt, "SQLNumResultCols" );

  00021	68 00 00 00 00	 push	 OFFSET ??_C@_0BB@ICEIFNON@SQLNumResultCols@
  00026	ff 76 18	 push	 DWORD PTR [esi+24]
  00029	8b ce		 mov	 ecx, esi
  0002b	6a 03		 push	 3
  0002d	e8 00 00 00 00	 call	 ?GetError@i3NetworkDataBase@@QAEXFPAXPBD@Z ; i3NetworkDataBase::GetError

; 156  : 		return -1;

  00032	83 c8 ff	 or	 eax, -1
  00035	5e		 pop	 esi

; 159  : }

  00036	8b e5		 mov	 esp, ebp
  00038	5d		 pop	 ebp
  00039	c3		 ret	 0
$LN2@ResultColC:

; 157  : 	}
; 158  : 	return ResultColCount;  

  0003a	66 8b 45 fc	 mov	 ax, WORD PTR _ResultColCount$[ebp]
  0003e	5e		 pop	 esi

; 159  : }

  0003f	8b e5		 mov	 esp, ebp
  00041	5d		 pop	 ebp
  00042	c3		 ret	 0
?ResultColCount@i3NetworkDataBase@@QAEFXZ ENDP		; i3NetworkDataBase::ResultColCount
_TEXT	ENDS
; Function compile flags: /Ogtp
; File E:\Proyectos\JuegosOnlineproyectos\PB\pbblow\Piercing Blow Remake\i3Server\src\i3Base\i3NetworkDB.cpp
;	COMDAT ?GetData@i3NetworkDataBase@@QAEHFFJPAX@Z
_TEXT	SEGMENT
_ntd$ = -4						; size = 4
_iColNo$ = 8						; size = 2
_iType$ = 12						; size = 2
_lDataSize$ = 16					; size = 4
_pData$ = 20						; size = 4
?GetData@i3NetworkDataBase@@QAEHFFJPAX@Z PROC		; i3NetworkDataBase::GetData, COMDAT
; _this$ = ecx

; 135  : {

  00000	55		 push	 ebp
  00001	8b ec		 mov	 ebp, esp
  00003	51		 push	 ecx
  00004	56		 push	 esi

; 136  : 	RETCODE ret;	
; 137  : 	SQLLEN ntd;
; 138  : 	ret = SQLGetData(m_hStmt, iColNo, iType, pData, lDataSize, &ntd);	

  00005	8d 45 fc	 lea	 eax, DWORD PTR _ntd$[ebp]
  00008	8b f1		 mov	 esi, ecx
  0000a	50		 push	 eax
  0000b	ff 75 10	 push	 DWORD PTR _lDataSize$[ebp]
  0000e	ff 75 14	 push	 DWORD PTR _pData$[ebp]
  00011	ff 75 0c	 push	 DWORD PTR _iType$[ebp]
  00014	ff 75 08	 push	 DWORD PTR _iColNo$[ebp]
  00017	ff 76 18	 push	 DWORD PTR [esi+24]
  0001a	e8 00 00 00 00	 call	 _SQLGetData@24
  0001f	0f b7 c0	 movzx	 eax, ax

; 139  : 	if(  (ret != SQL_SUCCESS) && (ret != SQL_SUCCESS_WITH_INFO )  )

  00022	66 85 c0	 test	 ax, ax
  00025	74 21		 je	 SHORT $LN2@GetData
  00027	66 83 f8 01	 cmp	 ax, 1
  0002b	74 1b		 je	 SHORT $LN2@GetData

; 140  : 	{	
; 141  : 		GetError(SQL_HANDLE_STMT, m_hStmt, "SQLGetData" );

  0002d	68 00 00 00 00	 push	 OFFSET ??_C@_0L@HAMGPLLH@SQLGetData@
  00032	ff 76 18	 push	 DWORD PTR [esi+24]
  00035	8b ce		 mov	 ecx, esi
  00037	6a 03		 push	 3
  00039	e8 00 00 00 00	 call	 ?GetError@i3NetworkDataBase@@QAEXFPAXPBD@Z ; i3NetworkDataBase::GetError

; 142  : 		return -1;

  0003e	83 c8 ff	 or	 eax, -1
  00041	5e		 pop	 esi

; 146  : }

  00042	8b e5		 mov	 esp, ebp
  00044	5d		 pop	 ebp
  00045	c2 10 00	 ret	 16			; 00000010H
$LN2@GetData:

; 143  : 	}
; 144  : 
; 145  : 	return 1;

  00048	b8 01 00 00 00	 mov	 eax, 1
  0004d	5e		 pop	 esi

; 146  : }

  0004e	8b e5		 mov	 esp, ebp
  00050	5d		 pop	 ebp
  00051	c2 10 00	 ret	 16			; 00000010H
?GetData@i3NetworkDataBase@@QAEHFFJPAX@Z ENDP		; i3NetworkDataBase::GetData
_TEXT	ENDS
; Function compile flags: /Ogtp
; File E:\Proyectos\JuegosOnlineproyectos\PB\pbblow\Piercing Blow Remake\i3Server\src\i3Base\i3NetworkDB.cpp
;	COMDAT ?FetchData@i3NetworkDataBase@@QAEHXZ
_TEXT	SEGMENT
?FetchData@i3NetworkDataBase@@QAEHXZ PROC		; i3NetworkDataBase::FetchData, COMDAT
; _this$ = ecx

; 123  : {	

  00000	56		 push	 esi
  00001	8b f1		 mov	 esi, ecx

; 124  : 	RETCODE ret = SQLFetch(m_hStmt);

  00003	ff 76 18	 push	 DWORD PTR [esi+24]
  00006	e8 00 00 00 00	 call	 _SQLFetch@4
  0000b	0f b7 c0	 movzx	 eax, ax

; 125  : 	if( (ret != SQL_SUCCESS) && (ret != SQL_SUCCESS_WITH_INFO ) )

  0000e	66 85 c0	 test	 ax, ax
  00011	74 1c		 je	 SHORT $LN2@FetchData
  00013	66 83 f8 01	 cmp	 ax, 1
  00017	74 16		 je	 SHORT $LN2@FetchData

; 126  : 	{	
; 127  : 		GetError(SQL_HANDLE_STMT, m_hStmt, "SQLFetch" );

  00019	68 00 00 00 00	 push	 OFFSET ??_C@_08MDDFMIOG@SQLFetch@
  0001e	ff 76 18	 push	 DWORD PTR [esi+24]
  00021	8b ce		 mov	 ecx, esi
  00023	6a 03		 push	 3
  00025	e8 00 00 00 00	 call	 ?GetError@i3NetworkDataBase@@QAEXFPAXPBD@Z ; i3NetworkDataBase::GetError

; 128  : 		return -1;

  0002a	83 c8 ff	 or	 eax, -1
  0002d	5e		 pop	 esi

; 132  : }

  0002e	c3		 ret	 0
$LN2@FetchData:

; 129  : 	}
; 130  : 
; 131  : 	return 1;

  0002f	b8 01 00 00 00	 mov	 eax, 1
  00034	5e		 pop	 esi

; 132  : }

  00035	c3		 ret	 0
?FetchData@i3NetworkDataBase@@QAEHXZ ENDP		; i3NetworkDataBase::FetchData
_TEXT	ENDS
; Function compile flags: /Ogtp
; File E:\Proyectos\JuegosOnlineproyectos\PB\pbblow\Piercing Blow Remake\i3Server\src\i3Base\i3NetworkDB.cpp
;	COMDAT ?Clean@i3NetworkDataBase@@QAEHXZ
_TEXT	SEGMENT
?Clean@i3NetworkDataBase@@QAEHXZ PROC			; i3NetworkDataBase::Clean, COMDAT
; _this$ = ecx

; 193  : {

  00000	56		 push	 esi
  00001	8b f1		 mov	 esi, ecx

; 194  : 	RETCODE ret;	
; 195  : 	ret = SQLCloseCursor( m_hStmt );

  00003	ff 76 18	 push	 DWORD PTR [esi+24]
  00006	e8 00 00 00 00	 call	 _SQLCloseCursor@4
  0000b	0f b7 c0	 movzx	 eax, ax

; 196  : 	if( (ret != SQL_SUCCESS) && (ret != SQL_SUCCESS_WITH_INFO ) )

  0000e	66 85 c0	 test	 ax, ax
  00011	74 1b		 je	 SHORT $LN2@Clean
  00013	66 83 f8 01	 cmp	 ax, 1
  00017	74 15		 je	 SHORT $LN2@Clean

; 197  : 	{	
; 198  : 		GetError(SQL_HANDLE_STMT, m_hStmt, "SQLCloseCursor" ); return FALSE;

  00019	68 00 00 00 00	 push	 OFFSET ??_C@_0P@MMBHMHAH@SQLCloseCursor@
  0001e	ff 76 18	 push	 DWORD PTR [esi+24]
  00021	8b ce		 mov	 ecx, esi
  00023	6a 03		 push	 3
  00025	e8 00 00 00 00	 call	 ?GetError@i3NetworkDataBase@@QAEXFPAXPBD@Z ; i3NetworkDataBase::GetError
  0002a	33 c0		 xor	 eax, eax
  0002c	5e		 pop	 esi

; 202  : }

  0002d	c3		 ret	 0
$LN2@Clean:

; 199  : 	}
; 200  : 	m_IsClean = TRUE; 

  0002e	c7 86 9c 00 00
	00 01 00 00 00	 mov	 DWORD PTR [esi+156], 1

; 201  : 	return TRUE; 

  00038	b8 01 00 00 00	 mov	 eax, 1
  0003d	5e		 pop	 esi

; 202  : }

  0003e	c3		 ret	 0
?Clean@i3NetworkDataBase@@QAEHXZ ENDP			; i3NetworkDataBase::Clean
_TEXT	ENDS
; Function compile flags: /Ogtp
; File E:\Proyectos\JuegosOnlineproyectos\PB\pbblow\Piercing Blow Remake\i3Server\src\i3Base\i3NetworkDB.cpp
;	COMDAT ?ExecDirect@i3NetworkDataBase@@QAEHPAD@Z
_TEXT	SEGMENT
_Value$ = -4						; size = 4
_pQuery$ = 8						; size = 4
?ExecDirect@i3NetworkDataBase@@QAEHPAD@Z PROC		; i3NetworkDataBase::ExecDirect, COMDAT
; _this$ = ecx

; 175  : {

  00000	55		 push	 ebp
  00001	8b ec		 mov	 ebp, esp
  00003	51		 push	 ecx
  00004	56		 push	 esi
  00005	8b f1		 mov	 esi, ecx

; 176  : 	RETCODE ret;	
; 177  : 
; 178  : 	if( FALSE == m_IsClean )	Clean(); 

  00007	83 be 9c 00 00
	00 00		 cmp	 DWORD PTR [esi+156], 0
  0000e	75 33		 jne	 SHORT $LN5@ExecDirect

; 195  : 	ret = SQLCloseCursor( m_hStmt );

  00010	ff 76 18	 push	 DWORD PTR [esi+24]
  00013	e8 00 00 00 00	 call	 _SQLCloseCursor@4
  00018	0f b7 c0	 movzx	 eax, ax

; 196  : 	if( (ret != SQL_SUCCESS) && (ret != SQL_SUCCESS_WITH_INFO ) )

  0001b	66 85 c0	 test	 ax, ax
  0001e	74 19		 je	 SHORT $LN6@ExecDirect
  00020	66 83 f8 01	 cmp	 ax, 1
  00024	74 13		 je	 SHORT $LN6@ExecDirect

; 197  : 	{	
; 198  : 		GetError(SQL_HANDLE_STMT, m_hStmt, "SQLCloseCursor" ); return FALSE;

  00026	68 00 00 00 00	 push	 OFFSET ??_C@_0P@MMBHMHAH@SQLCloseCursor@
  0002b	ff 76 18	 push	 DWORD PTR [esi+24]
  0002e	8b ce		 mov	 ecx, esi
  00030	6a 03		 push	 3
  00032	e8 00 00 00 00	 call	 ?GetError@i3NetworkDataBase@@QAEXFPAXPBD@Z ; i3NetworkDataBase::GetError
  00037	eb 0a		 jmp	 SHORT $LN5@ExecDirect
$LN6@ExecDirect:

; 199  : 	}
; 200  : 	m_IsClean = TRUE; 

  00039	c7 86 9c 00 00
	00 01 00 00 00	 mov	 DWORD PTR [esi+156], 1
$LN5@ExecDirect:

; 211  : 	ret = ::SQLSetStmtAttr( m_hStmt, (SQLINTEGER) Option, (SQLPOINTER) &Value, (SQLINTEGER) sizeof( UINT32 ) );

  00043	6a 04		 push	 4
  00045	8d 45 fc	 lea	 eax, DWORD PTR _Value$[ebp]

; 179  : 
; 180  : 	SetStmtOption( SQL_ATTR_QUERY_TIMEOUT, 1 );

  00048	c7 45 fc 01 00
	00 00		 mov	 DWORD PTR _Value$[ebp], 1

; 211  : 	ret = ::SQLSetStmtAttr( m_hStmt, (SQLINTEGER) Option, (SQLPOINTER) &Value, (SQLINTEGER) sizeof( UINT32 ) );

  0004f	50		 push	 eax
  00050	6a 00		 push	 0
  00052	ff 76 18	 push	 DWORD PTR [esi+24]
  00055	e8 00 00 00 00	 call	 _SQLSetStmtAttr@16
  0005a	0f b7 c0	 movzx	 eax, ax

; 212  : 	if( (ret != SQL_SUCCESS) && (ret != SQL_SUCCESS_WITH_INFO ) )

  0005d	66 85 c0	 test	 ax, ax
  00060	74 17		 je	 SHORT $LN9@ExecDirect
  00062	66 83 f8 01	 cmp	 ax, 1
  00066	74 11		 je	 SHORT $LN9@ExecDirect

; 213  : 	{	
; 214  : 		GetError(SQL_HANDLE_STMT, m_hStmt, "SetStmtOption" ); return FALSE;

  00068	68 00 00 00 00	 push	 OFFSET ??_C@_0O@JBJOOAAF@SetStmtOption@
  0006d	ff 76 18	 push	 DWORD PTR [esi+24]
  00070	8b ce		 mov	 ecx, esi
  00072	6a 03		 push	 3
  00074	e8 00 00 00 00	 call	 ?GetError@i3NetworkDataBase@@QAEXFPAXPBD@Z ; i3NetworkDataBase::GetError
$LN9@ExecDirect:

; 181  : 	
; 182  : 	ret = SQLExecDirect(m_hStmt, (SQLCHAR*)(LPSTR)pQuery, SQL_NTS);

  00079	6a fd		 push	 -3			; fffffffdH
  0007b	ff 75 08	 push	 DWORD PTR _pQuery$[ebp]
  0007e	ff 76 18	 push	 DWORD PTR [esi+24]
  00081	e8 00 00 00 00	 call	 _SQLExecDirect@12
  00086	0f b7 c0	 movzx	 eax, ax

; 183  : 	if( (ret != SQL_SUCCESS) && (ret != SQL_SUCCESS_WITH_INFO ) )

  00089	66 85 c0	 test	 ax, ax
  0008c	74 20		 je	 SHORT $LN3@ExecDirect
  0008e	66 83 f8 01	 cmp	 ax, 1
  00092	74 1a		 je	 SHORT $LN3@ExecDirect

; 184  : 	{	
; 185  : 		GetError(SQL_HANDLE_STMT, m_hStmt, "SQLExecDirect" ); return FALSE;

  00094	68 00 00 00 00	 push	 OFFSET ??_C@_0O@IPNNBNGE@SQLExecDirect@
  00099	ff 76 18	 push	 DWORD PTR [esi+24]
  0009c	8b ce		 mov	 ecx, esi
  0009e	6a 03		 push	 3
  000a0	e8 00 00 00 00	 call	 ?GetError@i3NetworkDataBase@@QAEXFPAXPBD@Z ; i3NetworkDataBase::GetError
  000a5	33 c0		 xor	 eax, eax
  000a7	5e		 pop	 esi

; 190  : }

  000a8	8b e5		 mov	 esp, ebp
  000aa	5d		 pop	 ebp
  000ab	c2 04 00	 ret	 4
$LN3@ExecDirect:

; 186  : 	}
; 187  : 
; 188  : 	m_IsClean = FALSE; 

  000ae	c7 86 9c 00 00
	00 00 00 00 00	 mov	 DWORD PTR [esi+156], 0

; 189  : 	return TRUE;

  000b8	b8 01 00 00 00	 mov	 eax, 1
  000bd	5e		 pop	 esi

; 190  : }

  000be	8b e5		 mov	 esp, ebp
  000c0	5d		 pop	 ebp
  000c1	c2 04 00	 ret	 4
?ExecDirect@i3NetworkDataBase@@QAEHPAD@Z ENDP		; i3NetworkDataBase::ExecDirect
_TEXT	ENDS
; Function compile flags: /Ogtp
; File E:\Proyectos\JuegosOnlineproyectos\PB\pbblow\Piercing Blow Remake\i3Server\src\i3Base\i3NetworkDB.cpp
;	COMDAT ?Disconnect@i3NetworkDataBase@@QAEHXZ
_TEXT	SEGMENT
?Disconnect@i3NetworkDataBase@@QAEHXZ PROC		; i3NetworkDataBase::Disconnect, COMDAT
; _this$ = ecx

; 87   : {	

  00000	56		 push	 esi
  00001	8b f1		 mov	 esi, ecx
  00003	57		 push	 edi

; 88   : 	RETCODE ret;
; 89   : 	ret = SQLCloseCursor( &m_hStmt );

  00004	8d 7e 18	 lea	 edi, DWORD PTR [esi+24]
  00007	57		 push	 edi
  00008	e8 00 00 00 00	 call	 _SQLCloseCursor@4
  0000d	0f b7 c0	 movzx	 eax, ax

; 90   : 	if( (ret != SQL_SUCCESS) && (ret != SQL_SUCCESS_WITH_INFO ) )

  00010	66 85 c0	 test	 ax, ax
  00013	74 1b		 je	 SHORT $LN2@Disconnect
  00015	66 83 f8 01	 cmp	 ax, 1
  00019	74 15		 je	 SHORT $LN2@Disconnect

; 91   : 	{
; 92   : 		GetError(SQL_HANDLE_STMT, m_hStmt, "SQLCloseCursor" ); return FALSE;

  0001b	68 00 00 00 00	 push	 OFFSET ??_C@_0P@MMBHMHAH@SQLCloseCursor@
  00020	ff 37		 push	 DWORD PTR [edi]
  00022	8b ce		 mov	 ecx, esi
  00024	6a 03		 push	 3
  00026	e8 00 00 00 00	 call	 ?GetError@i3NetworkDataBase@@QAEXFPAXPBD@Z ; i3NetworkDataBase::GetError
  0002b	5f		 pop	 edi
  0002c	33 c0		 xor	 eax, eax

; 120  : }

  0002e	5e		 pop	 esi
  0002f	c3		 ret	 0
$LN2@Disconnect:

; 93   : 	}
; 94   : 
; 95   : 	ret = SQLFreeHandle( SQL_HANDLE_STMT, &m_hStmt );

  00030	57		 push	 edi
  00031	6a 03		 push	 3
  00033	e8 00 00 00 00	 call	 _SQLFreeHandle@8
  00038	0f b7 c0	 movzx	 eax, ax

; 96   : 	if( (ret != SQL_SUCCESS) && (ret != SQL_SUCCESS_WITH_INFO ) )

  0003b	66 85 c0	 test	 ax, ax
  0003e	74 1b		 je	 SHORT $LN3@Disconnect
  00040	66 83 f8 01	 cmp	 ax, 1
  00044	74 15		 je	 SHORT $LN3@Disconnect

; 97   : 	{	
; 98   : 		GetError(SQL_HANDLE_STMT, m_hStmt, "SQLFreeHandle:m_hStmt" ); return FALSE;

  00046	68 00 00 00 00	 push	 OFFSET ??_C@_0BG@OEKFCGKN@SQLFreeHandle?3m_hStmt@
  0004b	ff 37		 push	 DWORD PTR [edi]
  0004d	8b ce		 mov	 ecx, esi
  0004f	6a 03		 push	 3
  00051	e8 00 00 00 00	 call	 ?GetError@i3NetworkDataBase@@QAEXFPAXPBD@Z ; i3NetworkDataBase::GetError
  00056	5f		 pop	 edi
  00057	33 c0		 xor	 eax, eax

; 120  : }

  00059	5e		 pop	 esi
  0005a	c3		 ret	 0
$LN3@Disconnect:

; 99   : 	}
; 100  : 
; 101  : 	ret = SQLDisconnect( m_hDbc );

  0005b	ff 76 14	 push	 DWORD PTR [esi+20]
  0005e	8d 7e 14	 lea	 edi, DWORD PTR [esi+20]
  00061	e8 00 00 00 00	 call	 _SQLDisconnect@4
  00066	0f b7 c0	 movzx	 eax, ax

; 102  : 	if( (ret != SQL_SUCCESS) && (ret != SQL_SUCCESS_WITH_INFO ) )

  00069	66 85 c0	 test	 ax, ax
  0006c	74 1b		 je	 SHORT $LN4@Disconnect
  0006e	66 83 f8 01	 cmp	 ax, 1
  00072	74 15		 je	 SHORT $LN4@Disconnect

; 103  : 	{	
; 104  : 		GetError(SQL_HANDLE_DBC, m_hDbc, "SQLDisconnect" ); return FALSE;

  00074	68 00 00 00 00	 push	 OFFSET ??_C@_0O@CMEKDENE@SQLDisconnect@
  00079	ff 37		 push	 DWORD PTR [edi]
  0007b	8b ce		 mov	 ecx, esi
  0007d	6a 02		 push	 2
  0007f	e8 00 00 00 00	 call	 ?GetError@i3NetworkDataBase@@QAEXFPAXPBD@Z ; i3NetworkDataBase::GetError
  00084	5f		 pop	 edi
  00085	33 c0		 xor	 eax, eax

; 120  : }

  00087	5e		 pop	 esi
  00088	c3		 ret	 0
$LN4@Disconnect:

; 105  : 	}
; 106  : 
; 107  : 	ret = SQLFreeHandle( SQL_HANDLE_DBC, &m_hDbc );

  00089	57		 push	 edi
  0008a	6a 02		 push	 2
  0008c	e8 00 00 00 00	 call	 _SQLFreeHandle@8
  00091	0f b7 c0	 movzx	 eax, ax

; 108  : 	if( (ret != SQL_SUCCESS) && (ret != SQL_SUCCESS_WITH_INFO ) )

  00094	66 85 c0	 test	 ax, ax
  00097	74 1b		 je	 SHORT $LN5@Disconnect
  00099	66 83 f8 01	 cmp	 ax, 1
  0009d	74 15		 je	 SHORT $LN5@Disconnect

; 109  : 	{	
; 110  : 		GetError(SQL_HANDLE_DBC, m_hDbc, "SQLFreeHandle:m_hDbc" ); return FALSE;

  0009f	68 00 00 00 00	 push	 OFFSET ??_C@_0BF@LHGHIOMD@SQLFreeHandle?3m_hDbc@
  000a4	ff 37		 push	 DWORD PTR [edi]
  000a6	8b ce		 mov	 ecx, esi
  000a8	6a 02		 push	 2
  000aa	e8 00 00 00 00	 call	 ?GetError@i3NetworkDataBase@@QAEXFPAXPBD@Z ; i3NetworkDataBase::GetError
  000af	5f		 pop	 edi
  000b0	33 c0		 xor	 eax, eax

; 120  : }

  000b2	5e		 pop	 esi
  000b3	c3		 ret	 0
$LN5@Disconnect:

; 111  : 	}
; 112  : 
; 113  : 	ret = SQLFreeHandle( SQL_HANDLE_ENV, &m_hEnv );

  000b4	8d 7e 10	 lea	 edi, DWORD PTR [esi+16]
  000b7	57		 push	 edi
  000b8	6a 01		 push	 1
  000ba	e8 00 00 00 00	 call	 _SQLFreeHandle@8
  000bf	0f b7 c0	 movzx	 eax, ax

; 114  : 	if( (ret != SQL_SUCCESS) && (ret != SQL_SUCCESS_WITH_INFO ) )

  000c2	66 85 c0	 test	 ax, ax
  000c5	74 1b		 je	 SHORT $LN6@Disconnect
  000c7	66 83 f8 01	 cmp	 ax, 1
  000cb	74 15		 je	 SHORT $LN6@Disconnect

; 115  : 	{
; 116  : 		GetError(SQL_HANDLE_ENV, m_hEnv, "SQLFreeHandle:m_hEnv" ); return FALSE;

  000cd	68 00 00 00 00	 push	 OFFSET ??_C@_0BF@DBHEPGNG@SQLFreeHandle?3m_hEnv@
  000d2	ff 37		 push	 DWORD PTR [edi]
  000d4	8b ce		 mov	 ecx, esi
  000d6	6a 01		 push	 1
  000d8	e8 00 00 00 00	 call	 ?GetError@i3NetworkDataBase@@QAEXFPAXPBD@Z ; i3NetworkDataBase::GetError
  000dd	5f		 pop	 edi
  000de	33 c0		 xor	 eax, eax

; 120  : }

  000e0	5e		 pop	 esi
  000e1	c3		 ret	 0
$LN6@Disconnect:
  000e2	5f		 pop	 edi

; 117  : 	}
; 118  : 
; 119  : 	return TRUE; 

  000e3	b8 01 00 00 00	 mov	 eax, 1

; 120  : }

  000e8	5e		 pop	 esi
  000e9	c3		 ret	 0
?Disconnect@i3NetworkDataBase@@QAEHXZ ENDP		; i3NetworkDataBase::Disconnect
_TEXT	ENDS
; Function compile flags: /Ogtp
; File E:\Proyectos\JuegosOnlineproyectos\PB\pbblow\Piercing Blow Remake\i3Server\src\i3Base\i3NetworkDB.cpp
;	COMDAT ?Connect@i3NetworkDataBase@@QAEHPAD00@Z
_TEXT	SEGMENT
_pDSN$ = 8						; size = 4
_pUserID$ = 12						; size = 4
_pPasswd$ = 16						; size = 4
?Connect@i3NetworkDataBase@@QAEHPAD00@Z PROC		; i3NetworkDataBase::Connect, COMDAT
; _this$ = ecx

; 42   : {

  00000	55		 push	 ebp
  00001	8b ec		 mov	 ebp, esp
  00003	53		 push	 ebx
  00004	56		 push	 esi
  00005	8b f1		 mov	 esi, ecx

; 43   : 	RETCODE ret;
; 44   : 	i3String::Copy(m_pDsn,	pDSN, 32);

  00007	6a 20		 push	 32			; 00000020H
  00009	ff 75 08	 push	 DWORD PTR _pDSN$[ebp]
  0000c	8d 46 1c	 lea	 eax, DWORD PTR [esi+28]
  0000f	50		 push	 eax
  00010	e8 00 00 00 00	 call	 ?Copy@i3String@@YAXPADPBDH@Z ; i3String::Copy

; 45   : 	i3String::Copy(m_pUserID, pUserID, 32);

  00015	6a 20		 push	 32			; 00000020H
  00017	ff 75 0c	 push	 DWORD PTR _pUserID$[ebp]
  0001a	8d 46 3c	 lea	 eax, DWORD PTR [esi+60]
  0001d	50		 push	 eax
  0001e	e8 00 00 00 00	 call	 ?Copy@i3String@@YAXPADPBDH@Z ; i3String::Copy

; 46   : 	i3String::Copy(m_pPasswd, pPasswd, 32);

  00023	6a 20		 push	 32			; 00000020H
  00025	ff 75 10	 push	 DWORD PTR _pPasswd$[ebp]
  00028	8d 46 5c	 lea	 eax, DWORD PTR [esi+92]
  0002b	50		 push	 eax
  0002c	e8 00 00 00 00	 call	 ?Copy@i3String@@YAXPADPBDH@Z ; i3String::Copy
  00031	83 c4 24	 add	 esp, 36			; 00000024H

; 47   : 
; 48   : 	// Allocate the ODBC environment and save handle.
; 49   : 	ret = SQLAllocHandle(SQL_HANDLE_ENV, NULL, &m_hEnv);

  00034	8d 5e 10	 lea	 ebx, DWORD PTR [esi+16]
  00037	53		 push	 ebx
  00038	6a 00		 push	 0
  0003a	6a 01		 push	 1
  0003c	e8 00 00 00 00	 call	 _SQLAllocHandle@12
  00041	0f b7 c0	 movzx	 eax, ax

; 50   : 	if( (ret != SQL_SUCCESS) && (ret != SQL_SUCCESS_WITH_INFO ) )

  00044	66 85 c0	 test	 ax, ax
  00047	74 1e		 je	 SHORT $LN2@Connect
  00049	66 83 f8 01	 cmp	 ax, 1
  0004d	74 18		 je	 SHORT $LN2@Connect

; 51   : 	{
; 52   : 		GetError(SQL_HANDLE_ENV, m_hEnv, "SQLAllocHandle:m_hEnv" ); return FALSE;

  0004f	68 00 00 00 00	 push	 OFFSET ??_C@_0BG@MIBPAIDL@SQLAllocHandle?3m_hEnv@
  00054	ff 33		 push	 DWORD PTR [ebx]
  00056	8b ce		 mov	 ecx, esi
  00058	6a 01		 push	 1
  0005a	e8 00 00 00 00	 call	 ?GetError@i3NetworkDataBase@@QAEXFPAXPBD@Z ; i3NetworkDataBase::GetError
  0005f	5e		 pop	 esi
  00060	33 c0		 xor	 eax, eax

; 84   : }

  00062	5b		 pop	 ebx
  00063	5d		 pop	 ebp
  00064	c2 0c 00	 ret	 12			; 0000000cH
$LN2@Connect:

; 53   : 	}
; 54   : 
; 55   : 	// Notify ODBC that this is an ODBC 3.0 app.
; 56   : 	ret = SQLSetEnvAttr(m_hEnv, SQL_ATTR_ODBC_VERSION, (SQLPOINTER) SQL_OV_ODBC3, SQL_IS_INTEGER);

  00067	6a fa		 push	 -6			; fffffffaH
  00069	6a 03		 push	 3
  0006b	68 c8 00 00 00	 push	 200			; 000000c8H
  00070	ff 33		 push	 DWORD PTR [ebx]
  00072	e8 00 00 00 00	 call	 _SQLSetEnvAttr@16
  00077	0f b7 c0	 movzx	 eax, ax

; 57   : 	if( (ret != SQL_SUCCESS) && (ret != SQL_SUCCESS_WITH_INFO ) )

  0007a	66 85 c0	 test	 ax, ax
  0007d	74 1e		 je	 SHORT $LN3@Connect
  0007f	66 83 f8 01	 cmp	 ax, 1
  00083	74 18		 je	 SHORT $LN3@Connect

; 58   : 	{
; 59   : 		GetError(SQL_HANDLE_ENV, m_hEnv, "SQLSetEnvAttr" ); return FALSE;

  00085	68 00 00 00 00	 push	 OFFSET ??_C@_0O@EHDGBCBE@SQLSetEnvAttr@
  0008a	ff 33		 push	 DWORD PTR [ebx]
  0008c	8b ce		 mov	 ecx, esi
  0008e	6a 01		 push	 1
  00090	e8 00 00 00 00	 call	 ?GetError@i3NetworkDataBase@@QAEXFPAXPBD@Z ; i3NetworkDataBase::GetError
  00095	5e		 pop	 esi
  00096	33 c0		 xor	 eax, eax

; 84   : }

  00098	5b		 pop	 ebx
  00099	5d		 pop	 ebp
  0009a	c2 0c 00	 ret	 12			; 0000000cH
$LN3@Connect:
  0009d	57		 push	 edi

; 60   : 	}
; 61   : 
; 62   : 	// Allocate ODBC connection handle and connect.
; 63   : 	ret = SQLAllocHandle(SQL_HANDLE_DBC, m_hEnv, &m_hDbc);

  0009e	8d 7e 14	 lea	 edi, DWORD PTR [esi+20]
  000a1	57		 push	 edi
  000a2	ff 33		 push	 DWORD PTR [ebx]
  000a4	6a 02		 push	 2
  000a6	e8 00 00 00 00	 call	 _SQLAllocHandle@12
  000ab	0f b7 c0	 movzx	 eax, ax

; 64   : 	if( (ret != SQL_SUCCESS) && (ret != SQL_SUCCESS_WITH_INFO ) )

  000ae	66 85 c0	 test	 ax, ax
  000b1	74 1f		 je	 SHORT $LN4@Connect
  000b3	66 83 f8 01	 cmp	 ax, 1
  000b7	74 19		 je	 SHORT $LN4@Connect

; 65   : 	{
; 66   : 		GetError(SQL_HANDLE_DBC, m_hDbc, "SQLAllocHandle:m_hDbc" ); return FALSE;

  000b9	68 00 00 00 00	 push	 OFFSET ??_C@_0BG@EOAMHACO@SQLAllocHandle?3m_hDbc@
  000be	ff 37		 push	 DWORD PTR [edi]
  000c0	8b ce		 mov	 ecx, esi
  000c2	6a 02		 push	 2
  000c4	e8 00 00 00 00	 call	 ?GetError@i3NetworkDataBase@@QAEXFPAXPBD@Z ; i3NetworkDataBase::GetError
  000c9	5f		 pop	 edi
  000ca	5e		 pop	 esi
  000cb	33 c0		 xor	 eax, eax

; 84   : }

  000cd	5b		 pop	 ebx
  000ce	5d		 pop	 ebp
  000cf	c2 0c 00	 ret	 12			; 0000000cH
$LN4@Connect:

; 67   : 	}
; 68   : 	
; 69   : 	//Connect
; 70   : 	ret = SQLConnect(m_hDbc, (SQLCHAR*)m_pDsn, SQL_NTS, (SQLCHAR*)m_pUserID, SQL_NTS, (SQLCHAR*)m_pPasswd, SQL_NTS);

  000d2	6a fd		 push	 -3			; fffffffdH
  000d4	8d 46 5c	 lea	 eax, DWORD PTR [esi+92]
  000d7	50		 push	 eax
  000d8	6a fd		 push	 -3			; fffffffdH
  000da	8d 46 3c	 lea	 eax, DWORD PTR [esi+60]
  000dd	50		 push	 eax
  000de	6a fd		 push	 -3			; fffffffdH
  000e0	8d 46 1c	 lea	 eax, DWORD PTR [esi+28]
  000e3	50		 push	 eax
  000e4	ff 37		 push	 DWORD PTR [edi]
  000e6	e8 00 00 00 00	 call	 _SQLConnect@28
  000eb	0f b7 c0	 movzx	 eax, ax

; 71   : 	if( (ret != SQL_SUCCESS) && (ret != SQL_SUCCESS_WITH_INFO ) )

  000ee	66 85 c0	 test	 ax, ax
  000f1	74 1f		 je	 SHORT $LN5@Connect
  000f3	66 83 f8 01	 cmp	 ax, 1
  000f7	74 19		 je	 SHORT $LN5@Connect

; 72   : 	{
; 73   : 		GetError(SQL_HANDLE_DBC, m_hDbc, "SQLConnect" ); return FALSE;

  000f9	68 00 00 00 00	 push	 OFFSET ??_C@_0L@NIHOHION@SQLConnect@
  000fe	ff 37		 push	 DWORD PTR [edi]
  00100	8b ce		 mov	 ecx, esi
  00102	6a 02		 push	 2
  00104	e8 00 00 00 00	 call	 ?GetError@i3NetworkDataBase@@QAEXFPAXPBD@Z ; i3NetworkDataBase::GetError
  00109	5f		 pop	 edi
  0010a	5e		 pop	 esi
  0010b	33 c0		 xor	 eax, eax

; 84   : }

  0010d	5b		 pop	 ebx
  0010e	5d		 pop	 ebp
  0010f	c2 0c 00	 ret	 12			; 0000000cH
$LN5@Connect:

; 74   : 	}
; 75   : 	
; 76   : 	// Allocate statement handle.
; 77   : 	ret = SQLAllocHandle(SQL_HANDLE_STMT, m_hDbc, &m_hStmt);

  00112	8d 5e 18	 lea	 ebx, DWORD PTR [esi+24]
  00115	53		 push	 ebx
  00116	ff 37		 push	 DWORD PTR [edi]
  00118	6a 03		 push	 3
  0011a	e8 00 00 00 00	 call	 _SQLAllocHandle@12
  0011f	0f b7 c0	 movzx	 eax, ax

; 78   : 	if( (ret != SQL_SUCCESS) && (ret != SQL_SUCCESS_WITH_INFO ) )

  00122	66 85 c0	 test	 ax, ax
  00125	74 1f		 je	 SHORT $LN6@Connect
  00127	66 83 f8 01	 cmp	 ax, 1
  0012b	74 19		 je	 SHORT $LN6@Connect

; 79   : 	{
; 80   : 		GetError(SQL_HANDLE_STMT, m_hStmt, "SQLAllocHandle:m_hStmt" ); return FALSE;

  0012d	68 00 00 00 00	 push	 OFFSET ??_C@_0BH@DKOHNDJG@SQLAllocHandle?3m_hStmt@
  00132	ff 33		 push	 DWORD PTR [ebx]
  00134	8b ce		 mov	 ecx, esi
  00136	6a 03		 push	 3
  00138	e8 00 00 00 00	 call	 ?GetError@i3NetworkDataBase@@QAEXFPAXPBD@Z ; i3NetworkDataBase::GetError
  0013d	5f		 pop	 edi
  0013e	5e		 pop	 esi
  0013f	33 c0		 xor	 eax, eax

; 84   : }

  00141	5b		 pop	 ebx
  00142	5d		 pop	 ebp
  00143	c2 0c 00	 ret	 12			; 0000000cH
$LN6@Connect:
  00146	5f		 pop	 edi
  00147	5e		 pop	 esi

; 81   : 	}
; 82   : 
; 83   : 	return TRUE; 

  00148	b8 01 00 00 00	 mov	 eax, 1

; 84   : }

  0014d	5b		 pop	 ebx
  0014e	5d		 pop	 ebp
  0014f	c2 0c 00	 ret	 12			; 0000000cH
?Connect@i3NetworkDataBase@@QAEHPAD00@Z ENDP		; i3NetworkDataBase::Connect
_TEXT	ENDS
; Function compile flags: /Ogtp
; File E:\Proyectos\JuegosOnlineproyectos\PB\pbblow\Piercing Blow Remake\i3Server\src\i3Base\i3NetworkDB.cpp
;	COMDAT ?ReConnect@i3NetworkDataBase@@QAEHXZ
_TEXT	SEGMENT
?ReConnect@i3NetworkDataBase@@QAEHXZ PROC		; i3NetworkDataBase::ReConnect, COMDAT
; _this$ = ecx

; 36   : {

  00000	56		 push	 esi
  00001	8b f1		 mov	 esi, ecx

; 37   : 	Disconnect(); 

  00003	e8 00 00 00 00	 call	 ?Disconnect@i3NetworkDataBase@@QAEHXZ ; i3NetworkDataBase::Disconnect

; 38   : 	return Connect(m_pDsn, m_pUserID, m_pPasswd); 

  00008	8d 46 5c	 lea	 eax, DWORD PTR [esi+92]
  0000b	8b ce		 mov	 ecx, esi
  0000d	50		 push	 eax
  0000e	8d 46 3c	 lea	 eax, DWORD PTR [esi+60]
  00011	50		 push	 eax
  00012	8d 46 1c	 lea	 eax, DWORD PTR [esi+28]
  00015	50		 push	 eax
  00016	e8 00 00 00 00	 call	 ?Connect@i3NetworkDataBase@@QAEHPAD00@Z ; i3NetworkDataBase::Connect
  0001b	5e		 pop	 esi

; 39   : }

  0001c	c3		 ret	 0
?ReConnect@i3NetworkDataBase@@QAEHXZ ENDP		; i3NetworkDataBase::ReConnect
_TEXT	ENDS
; Function compile flags: /Ogtp
; File E:\Proyectos\JuegosOnlineproyectos\PB\pbblow\Piercing Blow Remake\i3Server\src\i3Base\i3NetworkDB.cpp
;	COMDAT ??1i3NetworkDataBase@@UAE@XZ
_TEXT	SEGMENT
??1i3NetworkDataBase@@UAE@XZ PROC			; i3NetworkDataBase::~i3NetworkDataBase, COMDAT
; _this$ = ecx

; 23   : {

  00000	56		 push	 esi
  00001	8b f1		 mov	 esi, ecx
  00003	c7 06 00 00 00
	00		 mov	 DWORD PTR [esi], OFFSET ??_7i3NetworkDataBase@@6B@

; 24   : 	Disconnect(); 

  00009	e8 00 00 00 00	 call	 ?Disconnect@i3NetworkDataBase@@QAEHXZ ; i3NetworkDataBase::Disconnect

; 25   : }

  0000e	8b ce		 mov	 ecx, esi
  00010	5e		 pop	 esi
  00011	e9 00 00 00 00	 jmp	 ??1i3ElementBase@@UAE@XZ ; i3ElementBase::~i3ElementBase
??1i3NetworkDataBase@@UAE@XZ ENDP			; i3NetworkDataBase::~i3NetworkDataBase
_TEXT	ENDS
; Function compile flags: /Ogtp
; File E:\Proyectos\JuegosOnlineproyectos\PB\pbblow\Piercing Blow Remake\i3Server\src\i3Base\i3NetworkDB.cpp
;	COMDAT ??0i3NetworkDataBase@@QAE@XZ
_TEXT	SEGMENT
_this$ = -4						; size = 4
??0i3NetworkDataBase@@QAE@XZ PROC			; i3NetworkDataBase::i3NetworkDataBase, COMDAT
; _this$ = ecx

; 10   : {

  00000	55		 push	 ebp
  00001	8b ec		 mov	 ebp, esp
  00003	51		 push	 ecx
  00004	56		 push	 esi
  00005	8b f1		 mov	 esi, ecx
  00007	89 75 fc	 mov	 DWORD PTR _this$[ebp], esi
  0000a	e8 00 00 00 00	 call	 ??0i3ElementBase@@QAE@XZ ; i3ElementBase::i3ElementBase
  0000f	c7 06 00 00 00
	00		 mov	 DWORD PTR [esi], OFFSET ??_7i3NetworkDataBase@@6B@

; 11   : 	m_hEnv			= SQL_NULL_HENV;
; 12   : 	m_hDbc			= SQL_NULL_HDBC;  
; 13   : 	m_hStmt			= SQL_NULL_HSTMT;
; 14   : 	m_IsClean		= TRUE; 
; 15   : 
; 16   : 	m_pDsn[0]		= '\0';
; 17   : 	m_pPasswd[0]	= '\0';
; 18   : 	m_pUserID[0]	= '\0';
; 19   : 	m_szTime[0]		= '\0';
; 20   : }

  00015	8b c6		 mov	 eax, esi
  00017	c7 46 10 00 00
	00 00		 mov	 DWORD PTR [esi+16], 0
  0001e	c7 46 14 00 00
	00 00		 mov	 DWORD PTR [esi+20], 0
  00025	c7 46 18 00 00
	00 00		 mov	 DWORD PTR [esi+24], 0
  0002c	c7 86 9c 00 00
	00 01 00 00 00	 mov	 DWORD PTR [esi+156], 1
  00036	c6 46 1c 00	 mov	 BYTE PTR [esi+28], 0
  0003a	c6 46 5c 00	 mov	 BYTE PTR [esi+92], 0
  0003e	c6 46 3c 00	 mov	 BYTE PTR [esi+60], 0
  00042	c6 46 7c 00	 mov	 BYTE PTR [esi+124], 0
  00046	5e		 pop	 esi
  00047	8b e5		 mov	 esp, ebp
  00049	5d		 pop	 ebp
  0004a	c3		 ret	 0
??0i3NetworkDataBase@@QAE@XZ ENDP			; i3NetworkDataBase::i3NetworkDataBase
_TEXT	ENDS
; Function compile flags: /Ogtp
; File E:\Proyectos\JuegosOnlineproyectos\PB\pbblow\Piercing Blow Remake\i3Server\src\i3Base\i3NetworkDB.cpp
;	COMDAT ?_BindObjectRefByType@i3NetworkDataBase@@SAPAV1@PAXW4I3_CLASSMETA_TYPE@@@Z
_TEXT	SEGMENT
_pBuf$ = 8						; size = 4
_type$ = 12						; size = 4
?_BindObjectRefByType@i3NetworkDataBase@@SAPAV1@PAXW4I3_CLASSMETA_TYPE@@@Z PROC ; i3NetworkDataBase::_BindObjectRefByType, COMDAT

; 7    : I3_CLASS_INSTANCE( i3NetworkDataBase, i3ElementBase );

  00000	55		 push	 ebp
  00001	8b ec		 mov	 ebp, esp
  00003	8b 0d 00 00 00
	00		 mov	 ecx, DWORD PTR ?s_pClassMetai3NetworkDataBase@i3NetworkDataBase@@2PAVi3ClassMeta@@A ; i3NetworkDataBase::s_pClassMetai3NetworkDataBase
  00009	ff 75 0c	 push	 DWORD PTR _type$[ebp]
  0000c	ff 75 08	 push	 DWORD PTR _pBuf$[ebp]
  0000f	8b 01		 mov	 eax, DWORD PTR [ecx]
  00011	ff 50 08	 call	 DWORD PTR [eax+8]
  00014	5d		 pop	 ebp
  00015	c3		 ret	 0
?_BindObjectRefByType@i3NetworkDataBase@@SAPAV1@PAXW4I3_CLASSMETA_TYPE@@@Z ENDP ; i3NetworkDataBase::_BindObjectRefByType
_TEXT	ENDS
; Function compile flags: /Ogtp
; File E:\Proyectos\JuegosOnlineproyectos\PB\pbblow\Piercing Blow Remake\i3Server\src\i3Base\i3NetworkDB.cpp
; File E:\Proyectos\JuegosOnlineproyectos\PB\pbblow\Piercing Blow Remake\i3Server\include\i3Base\i3ElementBase.h
; File E:\Proyectos\JuegosOnlineproyectos\PB\pbblow\Piercing Blow Remake\i3Server\src\i3Base\i3NetworkDB.cpp
;	COMDAT ?_BindObjectByType@i3NetworkDataBase@@SAPAV1@PAXW4I3_CLASSMETA_TYPE@@@Z
_TEXT	SEGMENT
_pBuf$ = 8						; size = 4
_type$ = 12						; size = 4
?_BindObjectByType@i3NetworkDataBase@@SAPAV1@PAXW4I3_CLASSMETA_TYPE@@@Z PROC ; i3NetworkDataBase::_BindObjectByType, COMDAT

; 7    : I3_CLASS_INSTANCE( i3NetworkDataBase, i3ElementBase );

  00000	55		 push	 ebp
  00001	8b ec		 mov	 ebp, esp
  00003	8b 0d 00 00 00
	00		 mov	 ecx, DWORD PTR ?s_pClassMetai3NetworkDataBase@i3NetworkDataBase@@2PAVi3ClassMeta@@A ; i3NetworkDataBase::s_pClassMetai3NetworkDataBase
  00009	ff 75 0c	 push	 DWORD PTR _type$[ebp]
  0000c	ff 75 08	 push	 DWORD PTR _pBuf$[ebp]
  0000f	8b 01		 mov	 eax, DWORD PTR [ecx]
  00011	ff 50 08	 call	 DWORD PTR [eax+8]
; File E:\Proyectos\JuegosOnlineproyectos\PB\pbblow\Piercing Blow Remake\i3Server\include\i3Base\i3ElementBase.h

; 392  : 		m_RefCount++;

  00014	ff 40 04	 inc	 DWORD PTR [eax+4]
; File E:\Proyectos\JuegosOnlineproyectos\PB\pbblow\Piercing Blow Remake\i3Server\src\i3Base\i3NetworkDB.cpp

; 7    : I3_CLASS_INSTANCE( i3NetworkDataBase, i3ElementBase );

  00017	5d		 pop	 ebp
  00018	c3		 ret	 0
?_BindObjectByType@i3NetworkDataBase@@SAPAV1@PAXW4I3_CLASSMETA_TYPE@@@Z ENDP ; i3NetworkDataBase::_BindObjectByType
_TEXT	ENDS
; Function compile flags: /Ogtp
; File E:\Proyectos\JuegosOnlineproyectos\PB\pbblow\Piercing Blow Remake\i3Server\src\i3Base\i3NetworkDB.cpp
;	COMDAT ?_NewObjectRefByType@i3NetworkDataBase@@SAPAV1@W4I3_CLASSMETA_TYPE@@@Z
_TEXT	SEGMENT
_type$ = 8						; size = 4
?_NewObjectRefByType@i3NetworkDataBase@@SAPAV1@W4I3_CLASSMETA_TYPE@@@Z PROC ; i3NetworkDataBase::_NewObjectRefByType, COMDAT

; 7    : I3_CLASS_INSTANCE( i3NetworkDataBase, i3ElementBase );

  00000	55		 push	 ebp
  00001	8b ec		 mov	 ebp, esp
  00003	8b 0d 00 00 00
	00		 mov	 ecx, DWORD PTR ?s_pClassMetai3NetworkDataBase@i3NetworkDataBase@@2PAVi3ClassMeta@@A ; i3NetworkDataBase::s_pClassMetai3NetworkDataBase
  00009	ff 75 08	 push	 DWORD PTR _type$[ebp]
  0000c	8b 01		 mov	 eax, DWORD PTR [ecx]
  0000e	ff 50 04	 call	 DWORD PTR [eax+4]
  00011	5d		 pop	 ebp
  00012	c3		 ret	 0
?_NewObjectRefByType@i3NetworkDataBase@@SAPAV1@W4I3_CLASSMETA_TYPE@@@Z ENDP ; i3NetworkDataBase::_NewObjectRefByType
_TEXT	ENDS
; Function compile flags: /Ogtp
; File E:\Proyectos\JuegosOnlineproyectos\PB\pbblow\Piercing Blow Remake\i3Server\src\i3Base\i3NetworkDB.cpp
; File E:\Proyectos\JuegosOnlineproyectos\PB\pbblow\Piercing Blow Remake\i3Server\include\i3Base\i3ElementBase.h
; File E:\Proyectos\JuegosOnlineproyectos\PB\pbblow\Piercing Blow Remake\i3Server\src\i3Base\i3NetworkDB.cpp
;	COMDAT ?_NewObjectByType@i3NetworkDataBase@@SAPAV1@W4I3_CLASSMETA_TYPE@@@Z
_TEXT	SEGMENT
_type$ = 8						; size = 4
?_NewObjectByType@i3NetworkDataBase@@SAPAV1@W4I3_CLASSMETA_TYPE@@@Z PROC ; i3NetworkDataBase::_NewObjectByType, COMDAT

; 7    : I3_CLASS_INSTANCE( i3NetworkDataBase, i3ElementBase );

  00000	55		 push	 ebp
  00001	8b ec		 mov	 ebp, esp
  00003	8b 0d 00 00 00
	00		 mov	 ecx, DWORD PTR ?s_pClassMetai3NetworkDataBase@i3NetworkDataBase@@2PAVi3ClassMeta@@A ; i3NetworkDataBase::s_pClassMetai3NetworkDataBase
  00009	ff 75 08	 push	 DWORD PTR _type$[ebp]
  0000c	8b 01		 mov	 eax, DWORD PTR [ecx]
  0000e	ff 50 04	 call	 DWORD PTR [eax+4]
; File E:\Proyectos\JuegosOnlineproyectos\PB\pbblow\Piercing Blow Remake\i3Server\include\i3Base\i3ElementBase.h

; 392  : 		m_RefCount++;

  00011	ff 40 04	 inc	 DWORD PTR [eax+4]
; File E:\Proyectos\JuegosOnlineproyectos\PB\pbblow\Piercing Blow Remake\i3Server\src\i3Base\i3NetworkDB.cpp

; 7    : I3_CLASS_INSTANCE( i3NetworkDataBase, i3ElementBase );

  00014	5d		 pop	 ebp
  00015	c3		 ret	 0
?_NewObjectByType@i3NetworkDataBase@@SAPAV1@W4I3_CLASSMETA_TYPE@@@Z ENDP ; i3NetworkDataBase::_NewObjectByType
_TEXT	ENDS
; Function compile flags: /Ogtp
; File E:\Proyectos\JuegosOnlineproyectos\PB\pbblow\Piercing Blow Remake\i3Server\src\i3Base\i3NetworkDB.cpp
;	COMDAT ?_BindObjectRef@i3NetworkDataBase@@SAPAV1@PAX@Z
_TEXT	SEGMENT
_pBuf$ = 8						; size = 4
?_BindObjectRef@i3NetworkDataBase@@SAPAV1@PAX@Z PROC	; i3NetworkDataBase::_BindObjectRef, COMDAT

; 7    : I3_CLASS_INSTANCE( i3NetworkDataBase, i3ElementBase );

  00000	55		 push	 ebp
  00001	8b ec		 mov	 ebp, esp
  00003	8b 0d 00 00 00
	00		 mov	 ecx, DWORD PTR ?s_pClassMetai3NetworkDataBase@i3NetworkDataBase@@2PAVi3ClassMeta@@A ; i3NetworkDataBase::s_pClassMetai3NetworkDataBase
  00009	6a 00		 push	 0
  0000b	ff 75 08	 push	 DWORD PTR _pBuf$[ebp]
  0000e	8b 01		 mov	 eax, DWORD PTR [ecx]
  00010	ff 50 08	 call	 DWORD PTR [eax+8]
  00013	5d		 pop	 ebp
  00014	c3		 ret	 0
?_BindObjectRef@i3NetworkDataBase@@SAPAV1@PAX@Z ENDP	; i3NetworkDataBase::_BindObjectRef
_TEXT	ENDS
; Function compile flags: /Ogtp
; File E:\Proyectos\JuegosOnlineproyectos\PB\pbblow\Piercing Blow Remake\i3Server\src\i3Base\i3NetworkDB.cpp
; File E:\Proyectos\JuegosOnlineproyectos\PB\pbblow\Piercing Blow Remake\i3Server\include\i3Base\i3ElementBase.h
; File E:\Proyectos\JuegosOnlineproyectos\PB\pbblow\Piercing Blow Remake\i3Server\src\i3Base\i3NetworkDB.cpp
;	COMDAT ?_BindObject@i3NetworkDataBase@@SAPAV1@PAX@Z
_TEXT	SEGMENT
_pBuf$ = 8						; size = 4
?_BindObject@i3NetworkDataBase@@SAPAV1@PAX@Z PROC	; i3NetworkDataBase::_BindObject, COMDAT

; 7    : I3_CLASS_INSTANCE( i3NetworkDataBase, i3ElementBase );

  00000	55		 push	 ebp
  00001	8b ec		 mov	 ebp, esp
  00003	8b 0d 00 00 00
	00		 mov	 ecx, DWORD PTR ?s_pClassMetai3NetworkDataBase@i3NetworkDataBase@@2PAVi3ClassMeta@@A ; i3NetworkDataBase::s_pClassMetai3NetworkDataBase
  00009	6a 00		 push	 0
  0000b	ff 75 08	 push	 DWORD PTR _pBuf$[ebp]
  0000e	8b 01		 mov	 eax, DWORD PTR [ecx]
  00010	ff 50 08	 call	 DWORD PTR [eax+8]
; File E:\Proyectos\JuegosOnlineproyectos\PB\pbblow\Piercing Blow Remake\i3Server\include\i3Base\i3ElementBase.h

; 392  : 		m_RefCount++;

  00013	ff 40 04	 inc	 DWORD PTR [eax+4]
; File E:\Proyectos\JuegosOnlineproyectos\PB\pbblow\Piercing Blow Remake\i3Server\src\i3Base\i3NetworkDB.cpp

; 7    : I3_CLASS_INSTANCE( i3NetworkDataBase, i3ElementBase );

  00016	5d		 pop	 ebp
  00017	c3		 ret	 0
?_BindObject@i3NetworkDataBase@@SAPAV1@PAX@Z ENDP	; i3NetworkDataBase::_BindObject
_TEXT	ENDS
; Function compile flags: /Ogtp
; File E:\Proyectos\JuegosOnlineproyectos\PB\pbblow\Piercing Blow Remake\i3Server\src\i3Base\i3NetworkDB.cpp
;	COMDAT ?_NewObjectRef@i3NetworkDataBase@@SAPAV1@XZ
_TEXT	SEGMENT
?_NewObjectRef@i3NetworkDataBase@@SAPAV1@XZ PROC	; i3NetworkDataBase::_NewObjectRef, COMDAT

; 7    : I3_CLASS_INSTANCE( i3NetworkDataBase, i3ElementBase );

  00000	8b 0d 00 00 00
	00		 mov	 ecx, DWORD PTR ?s_pClassMetai3NetworkDataBase@i3NetworkDataBase@@2PAVi3ClassMeta@@A ; i3NetworkDataBase::s_pClassMetai3NetworkDataBase
  00006	6a 00		 push	 0
  00008	8b 01		 mov	 eax, DWORD PTR [ecx]
  0000a	ff 50 04	 call	 DWORD PTR [eax+4]
  0000d	c3		 ret	 0
?_NewObjectRef@i3NetworkDataBase@@SAPAV1@XZ ENDP	; i3NetworkDataBase::_NewObjectRef
_TEXT	ENDS
; Function compile flags: /Ogtp
; File E:\Proyectos\JuegosOnlineproyectos\PB\pbblow\Piercing Blow Remake\i3Server\src\i3Base\i3NetworkDB.cpp
; File E:\Proyectos\JuegosOnlineproyectos\PB\pbblow\Piercing Blow Remake\i3Server\include\i3Base\i3ElementBase.h
; File E:\Proyectos\JuegosOnlineproyectos\PB\pbblow\Piercing Blow Remake\i3Server\src\i3Base\i3NetworkDB.cpp
;	COMDAT ?_NewObject@i3NetworkDataBase@@SAPAV1@XZ
_TEXT	SEGMENT
?_NewObject@i3NetworkDataBase@@SAPAV1@XZ PROC		; i3NetworkDataBase::_NewObject, COMDAT

; 7    : I3_CLASS_INSTANCE( i3NetworkDataBase, i3ElementBase );

  00000	8b 0d 00 00 00
	00		 mov	 ecx, DWORD PTR ?s_pClassMetai3NetworkDataBase@i3NetworkDataBase@@2PAVi3ClassMeta@@A ; i3NetworkDataBase::s_pClassMetai3NetworkDataBase
  00006	6a 00		 push	 0
  00008	8b 01		 mov	 eax, DWORD PTR [ecx]
  0000a	ff 50 04	 call	 DWORD PTR [eax+4]
; File E:\Proyectos\JuegosOnlineproyectos\PB\pbblow\Piercing Blow Remake\i3Server\include\i3Base\i3ElementBase.h

; 392  : 		m_RefCount++;

  0000d	ff 40 04	 inc	 DWORD PTR [eax+4]
; File E:\Proyectos\JuegosOnlineproyectos\PB\pbblow\Piercing Blow Remake\i3Server\src\i3Base\i3NetworkDB.cpp

; 7    : I3_CLASS_INSTANCE( i3NetworkDataBase, i3ElementBase );

  00010	c3		 ret	 0
?_NewObject@i3NetworkDataBase@@SAPAV1@XZ ENDP		; i3NetworkDataBase::_NewObject
_TEXT	ENDS
; Function compile flags: /Ogtp
; File E:\Proyectos\JuegosOnlineproyectos\PB\pbblow\Piercing Blow Remake\i3Server\src\i3Base\i3NetworkDB.cpp
;	COMDAT ?SetGhostClass@i3NetworkDataBase@@SAXPAVi3ClassMeta@@@Z
_TEXT	SEGMENT
_pMeta$ = 8						; size = 4
?SetGhostClass@i3NetworkDataBase@@SAXPAVi3ClassMeta@@@Z PROC ; i3NetworkDataBase::SetGhostClass, COMDAT

; 7    : I3_CLASS_INSTANCE( i3NetworkDataBase, i3ElementBase );

  00000	55		 push	 ebp
  00001	8b ec		 mov	 ebp, esp
  00003	ff 75 08	 push	 DWORD PTR _pMeta$[ebp]
  00006	8b 0d 00 00 00
	00		 mov	 ecx, DWORD PTR ?s_pClassMetai3NetworkDataBase@i3NetworkDataBase@@2PAVi3ClassMeta@@A ; i3NetworkDataBase::s_pClassMetai3NetworkDataBase
  0000c	e8 00 00 00 00	 call	 ?SetGhostClass@i3ClassMeta@@QAEXPAV1@@Z ; i3ClassMeta::SetGhostClass
  00011	5d		 pop	 ebp
  00012	c3		 ret	 0
?SetGhostClass@i3NetworkDataBase@@SAXPAVi3ClassMeta@@@Z ENDP ; i3NetworkDataBase::SetGhostClass
_TEXT	ENDS
; Function compile flags: /Ogtp
; File E:\Proyectos\JuegosOnlineproyectos\PB\pbblow\Piercing Blow Remake\i3Server\src\i3Base\i3NetworkDB.cpp
;	COMDAT ?SetConcreteClass@i3NetworkDataBase@@SAXPAVi3ClassMeta@@@Z
_TEXT	SEGMENT
_pMeta$ = 8						; size = 4
?SetConcreteClass@i3NetworkDataBase@@SAXPAVi3ClassMeta@@@Z PROC ; i3NetworkDataBase::SetConcreteClass, COMDAT

; 7    : I3_CLASS_INSTANCE( i3NetworkDataBase, i3ElementBase );

  00000	55		 push	 ebp
  00001	8b ec		 mov	 ebp, esp
  00003	ff 75 08	 push	 DWORD PTR _pMeta$[ebp]
  00006	8b 0d 00 00 00
	00		 mov	 ecx, DWORD PTR ?s_pClassMetai3NetworkDataBase@i3NetworkDataBase@@2PAVi3ClassMeta@@A ; i3NetworkDataBase::s_pClassMetai3NetworkDataBase
  0000c	e8 00 00 00 00	 call	 ?SetConcreteClass@i3ClassMeta@@QAEXPAV1@@Z ; i3ClassMeta::SetConcreteClass
  00011	5d		 pop	 ebp
  00012	c3		 ret	 0
?SetConcreteClass@i3NetworkDataBase@@SAXPAVi3ClassMeta@@@Z ENDP ; i3NetworkDataBase::SetConcreteClass
_TEXT	ENDS
; Function compile flags: /Ogtp
; File E:\Proyectos\JuegosOnlineproyectos\PB\pbblow\Piercing Blow Remake\i3Server\src\i3Base\i3NetworkDB.cpp
;	COMDAT ?RegisterMeta@i3NetworkDataBase@@SAXXZ
_TEXT	SEGMENT
?RegisterMeta@i3NetworkDataBase@@SAXXZ PROC		; i3NetworkDataBase::RegisterMeta, COMDAT

; 7    : I3_CLASS_INSTANCE( i3NetworkDataBase, i3ElementBase );

  00000	8b 0d 00 00 00
	00		 mov	 ecx, DWORD PTR ?s_pClassMetai3NetworkDataBase@i3NetworkDataBase@@2PAVi3ClassMeta@@A ; i3NetworkDataBase::s_pClassMetai3NetworkDataBase
  00006	e9 00 00 00 00	 jmp	 ?Register@i3ClassMeta@@QAEXXZ ; i3ClassMeta::Register
?RegisterMeta@i3NetworkDataBase@@SAXXZ ENDP		; i3NetworkDataBase::RegisterMeta
_TEXT	ENDS
; Function compile flags: /Ogtp
; File E:\Proyectos\JuegosOnlineproyectos\PB\pbblow\Piercing Blow Remake\i3Server\src\i3Base\i3NetworkDB.cpp
;	COMDAT ?GetMeta@i3NetworkDataBase@@UAEPAVi3ClassMeta@@XZ
_TEXT	SEGMENT
?GetMeta@i3NetworkDataBase@@UAEPAVi3ClassMeta@@XZ PROC	; i3NetworkDataBase::GetMeta, COMDAT
; _this$ = ecx

; 7    : I3_CLASS_INSTANCE( i3NetworkDataBase, i3ElementBase );

  00000	a1 00 00 00 00	 mov	 eax, DWORD PTR ?s_pClassMetai3NetworkDataBase@i3NetworkDataBase@@2PAVi3ClassMeta@@A ; i3NetworkDataBase::s_pClassMetai3NetworkDataBase
  00005	c3		 ret	 0
?GetMeta@i3NetworkDataBase@@UAEPAVi3ClassMeta@@XZ ENDP	; i3NetworkDataBase::GetMeta
_TEXT	ENDS
; Function compile flags: /Ogtp
; File E:\Proyectos\JuegosOnlineproyectos\PB\pbblow\Piercing Blow Remake\i3Server\include\i3Base\i3NetworkDB.h
;	COMDAT ?GetClassMeta@i3NetworkDataBase@@SAPAVi3ClassMeta@@XZ
_TEXT	SEGMENT
?GetClassMeta@i3NetworkDataBase@@SAPAVi3ClassMeta@@XZ PROC ; i3NetworkDataBase::GetClassMeta, COMDAT

; 15   : 	I3_CLASS_DEFINE( i3NetworkDataBase );

  00000	a1 00 00 00 00	 mov	 eax, DWORD PTR ?s_pClassMetai3NetworkDataBase@i3NetworkDataBase@@2PAVi3ClassMeta@@A ; i3NetworkDataBase::s_pClassMetai3NetworkDataBase
  00005	c3		 ret	 0
?GetClassMeta@i3NetworkDataBase@@SAPAVi3ClassMeta@@XZ ENDP ; i3NetworkDataBase::GetClassMeta
_TEXT	ENDS
; Function compile flags: /Ogtp
;	COMDAT ??_Ei3MemoryPool@@UAEPAXI@Z
_TEXT	SEGMENT
__$EHRec$ = -12						; size = 12
___flags$ = 8						; size = 4
??_Ei3MemoryPool@@UAEPAXI@Z PROC			; i3MemoryPool::`vector deleting destructor', COMDAT
; _this$ = ecx
  00000	55		 push	 ebp
  00001	8b ec		 mov	 ebp, esp
  00003	6a ff		 push	 -1
  00005	68 00 00 00 00	 push	 __ehhandler$??_Ei3MemoryPool@@UAEPAXI@Z
  0000a	64 a1 00 00 00
	00		 mov	 eax, DWORD PTR fs:0
  00010	50		 push	 eax
  00011	53		 push	 ebx
  00012	56		 push	 esi
  00013	57		 push	 edi
  00014	a1 00 00 00 00	 mov	 eax, DWORD PTR ___security_cookie
  00019	33 c5		 xor	 eax, ebp
  0001b	50		 push	 eax
  0001c	8d 45 f4	 lea	 eax, DWORD PTR __$EHRec$[ebp]
  0001f	64 a3 00 00 00
	00		 mov	 DWORD PTR fs:0, eax
  00025	8b f1		 mov	 esi, ecx
  00027	8b 45 08	 mov	 eax, DWORD PTR ___flags$[ebp]
  0002a	8b f8		 mov	 edi, eax
  0002c	83 e7 01	 and	 edi, 1
  0002f	a8 02		 test	 al, 2
  00031	74 40		 je	 SHORT $LN2@vector
  00033	68 00 00 00 00	 push	 OFFSET ??1i3MemoryPool@@UAE@XZ ; i3MemoryPool::~i3MemoryPool
  00038	ff 76 fc	 push	 DWORD PTR [esi-4]
  0003b	8d 5e fc	 lea	 ebx, DWORD PTR [esi-4]
  0003e	6a 04		 push	 4
  00040	56		 push	 esi
  00041	e8 00 00 00 00	 call	 ??_M@YGXPAXIIP6EX0@Z@Z
  00046	85 ff		 test	 edi, edi
  00048	74 13		 je	 SHORT $LN3@vector
  0004a	8b 0b		 mov	 ecx, DWORD PTR [ebx]
  0004c	8d 0c 8d 04 00
	00 00		 lea	 ecx, DWORD PTR [ecx*4+4]
  00053	51		 push	 ecx
  00054	53		 push	 ebx
  00055	e8 00 00 00 00	 call	 ??_V@YAXPAXI@Z		; operator delete[]
  0005a	83 c4 08	 add	 esp, 8
$LN3@vector:
  0005d	8b c3		 mov	 eax, ebx
  0005f	8b 4d f4	 mov	 ecx, DWORD PTR __$EHRec$[ebp]
  00062	64 89 0d 00 00
	00 00		 mov	 DWORD PTR fs:0, ecx
  00069	59		 pop	 ecx
  0006a	5f		 pop	 edi
  0006b	5e		 pop	 esi
  0006c	5b		 pop	 ebx
  0006d	8b e5		 mov	 esp, ebp
  0006f	5d		 pop	 ebp
  00070	c2 04 00	 ret	 4
$LN2@vector:
  00073	e8 00 00 00 00	 call	 ??1i3MemoryPool@@UAE@XZ	; i3MemoryPool::~i3MemoryPool
  00078	85 ff		 test	 edi, edi
  0007a	74 0b		 je	 SHORT $LN4@vector
  0007c	6a 04		 push	 4
  0007e	56		 push	 esi
  0007f	e8 00 00 00 00	 call	 ??3@YAXPAXI@Z		; operator delete
  00084	83 c4 08	 add	 esp, 8
$LN4@vector:
  00087	8b c6		 mov	 eax, esi
  00089	8b 4d f4	 mov	 ecx, DWORD PTR __$EHRec$[ebp]
  0008c	64 89 0d 00 00
	00 00		 mov	 DWORD PTR fs:0, ecx
  00093	59		 pop	 ecx
  00094	5f		 pop	 edi
  00095	5e		 pop	 esi
  00096	5b		 pop	 ebx
  00097	8b e5		 mov	 esp, ebp
  00099	5d		 pop	 ebp
  0009a	c2 04 00	 ret	 4
  0009d	cc		 int	 3
  0009e	cc		 int	 3
  0009f	cc		 int	 3
  000a0	cc		 int	 3
  000a1	cc		 int	 3
_TEXT	ENDS
;	COMDAT text$x
text$x	SEGMENT
__ehhandler$??_Ei3MemoryPool@@UAEPAXI@Z:
  00000	90		 npad	 1
  00001	90		 npad	 1
  00002	8b 54 24 08	 mov	 edx, DWORD PTR [esp+8]
  00006	8d 42 0c	 lea	 eax, DWORD PTR [edx+12]
  00009	8b 4a f0	 mov	 ecx, DWORD PTR [edx-16]
  0000c	33 c8		 xor	 ecx, eax
  0000e	e8 00 00 00 00	 call	 @__security_check_cookie@4
  00013	b8 00 00 00 00	 mov	 eax, OFFSET __ehfuncinfo$??_Ei3MemoryPool@@UAEPAXI@Z
  00018	e9 00 00 00 00	 jmp	 ___CxxFrameHandler3
text$x	ENDS
??_Ei3MemoryPool@@UAEPAXI@Z ENDP			; i3MemoryPool::`vector deleting destructor'
; Function compile flags: /Ogtp
;	COMDAT ??_Gi3MemoryPool@@UAEPAXI@Z
_TEXT	SEGMENT
___flags$ = 8						; size = 4
??_Gi3MemoryPool@@UAEPAXI@Z PROC			; i3MemoryPool::`scalar deleting destructor', COMDAT
; _this$ = ecx
  00000	55		 push	 ebp
  00001	8b ec		 mov	 ebp, esp
  00003	56		 push	 esi
  00004	8b f1		 mov	 esi, ecx
  00006	e8 00 00 00 00	 call	 ??1i3MemoryPool@@UAE@XZ	; i3MemoryPool::~i3MemoryPool
  0000b	f6 45 08 01	 test	 BYTE PTR ___flags$[ebp], 1
  0000f	74 0b		 je	 SHORT $LN5@scalar
  00011	6a 04		 push	 4
  00013	56		 push	 esi
  00014	e8 00 00 00 00	 call	 ??3@YAXPAXI@Z		; operator delete
  00019	83 c4 08	 add	 esp, 8
$LN5@scalar:
  0001c	8b c6		 mov	 eax, esi
  0001e	5e		 pop	 esi
  0001f	5d		 pop	 ebp
  00020	c2 04 00	 ret	 4
??_Gi3MemoryPool@@UAEPAXI@Z ENDP			; i3MemoryPool::`scalar deleting destructor'
_TEXT	ENDS
; Function compile flags: /Ogtp
;	COMDAT ??4i3MemoryPool@@QAEAAV0@ABV0@@Z
_TEXT	SEGMENT
___that$ = 8						; size = 4
??4i3MemoryPool@@QAEAAV0@ABV0@@Z PROC			; i3MemoryPool::operator=, COMDAT
; _this$ = ecx
  00000	8b c1		 mov	 eax, ecx
  00002	c2 04 00	 ret	 4
??4i3MemoryPool@@QAEAAV0@ABV0@@Z ENDP			; i3MemoryPool::operator=
_TEXT	ENDS
; Function compile flags: /Ogtp
;	COMDAT ??0i3MemoryPool@@QAE@ABV0@@Z
_TEXT	SEGMENT
___that$ = 8						; size = 4
??0i3MemoryPool@@QAE@ABV0@@Z PROC			; i3MemoryPool::i3MemoryPool, COMDAT
; _this$ = ecx
  00000	c7 01 00 00 00
	00		 mov	 DWORD PTR [ecx], OFFSET ??_7i3MemoryPool@@6B@
  00006	8b c1		 mov	 eax, ecx
  00008	c2 04 00	 ret	 4
??0i3MemoryPool@@QAE@ABV0@@Z ENDP			; i3MemoryPool::i3MemoryPool
_TEXT	ENDS
; Function compile flags: /Ogtp
; File E:\Proyectos\JuegosOnlineproyectos\PB\pbblow\Piercing Blow Remake\i3Server\src\i3Base\i3NetworkDB.cpp
;	COMDAT ??_Ei3ElementBase@@UAEPAXI@Z
_TEXT	SEGMENT
__$EHRec$ = -12						; size = 12
___flags$ = 8						; size = 4
??_Ei3ElementBase@@UAEPAXI@Z PROC			; i3ElementBase::`vector deleting destructor', COMDAT
; _this$ = ecx
  00000	55		 push	 ebp
  00001	8b ec		 mov	 ebp, esp
  00003	6a ff		 push	 -1
  00005	68 00 00 00 00	 push	 __ehhandler$??_Ei3ElementBase@@UAEPAXI@Z
  0000a	64 a1 00 00 00
	00		 mov	 eax, DWORD PTR fs:0
  00010	50		 push	 eax
  00011	53		 push	 ebx
  00012	56		 push	 esi
  00013	57		 push	 edi
  00014	a1 00 00 00 00	 mov	 eax, DWORD PTR ___security_cookie
  00019	33 c5		 xor	 eax, ebp
  0001b	50		 push	 eax
  0001c	8d 45 f4	 lea	 eax, DWORD PTR __$EHRec$[ebp]
  0001f	64 a3 00 00 00
	00		 mov	 DWORD PTR fs:0, eax
  00025	8b f1		 mov	 esi, ecx
  00027	8b 5d 08	 mov	 ebx, DWORD PTR ___flags$[ebp]
  0002a	8b fb		 mov	 edi, ebx
  0002c	83 e7 01	 and	 edi, 1
  0002f	f6 c3 02	 test	 bl, 2
  00032	74 3f		 je	 SHORT $LN2@vector
  00034	68 00 00 00 00	 push	 OFFSET ??1i3ElementBase@@UAE@XZ ; i3ElementBase::~i3ElementBase
  00039	ff 76 fc	 push	 DWORD PTR [esi-4]
  0003c	8d 5e fc	 lea	 ebx, DWORD PTR [esi-4]
  0003f	6a 10		 push	 16			; 00000010H
  00041	56		 push	 esi
  00042	e8 00 00 00 00	 call	 ??_M@YGXPAXIIP6EX0@Z@Z
  00047	85 ff		 test	 edi, edi
  00049	74 12		 je	 SHORT $LN3@vector
  0004b	8b 0b		 mov	 ecx, DWORD PTR [ebx]
  0004d	c1 e1 04	 shl	 ecx, 4
  00050	83 c1 04	 add	 ecx, 4
  00053	51		 push	 ecx
  00054	53		 push	 ebx
  00055	e8 00 00 00 00	 call	 ??_V@YAXPAXI@Z		; operator delete[]
  0005a	83 c4 08	 add	 esp, 8
$LN3@vector:
  0005d	8b c3		 mov	 eax, ebx
  0005f	8b 4d f4	 mov	 ecx, DWORD PTR __$EHRec$[ebp]
  00062	64 89 0d 00 00
	00 00		 mov	 DWORD PTR fs:0, ecx
  00069	59		 pop	 ecx
  0006a	5f		 pop	 edi
  0006b	5e		 pop	 esi
  0006c	5b		 pop	 ebx
  0006d	8b e5		 mov	 esp, ebp
  0006f	5d		 pop	 ebp
  00070	c2 04 00	 ret	 4
$LN2@vector:
  00073	e8 00 00 00 00	 call	 ??1i3ElementBase@@UAE@XZ ; i3ElementBase::~i3ElementBase
  00078	85 ff		 test	 edi, edi
  0007a	74 1b		 je	 SHORT $LN6@vector
  0007c	f6 c3 04	 test	 bl, 4
  0007f	75 0b		 jne	 SHORT $LN5@vector
  00081	56		 push	 esi
  00082	e8 00 00 00 00	 call	 ??3i3ElementBase@@SAXPAX@Z ; i3ElementBase::operator delete
  00087	83 c4 04	 add	 esp, 4
  0008a	eb 0b		 jmp	 SHORT $LN6@vector
$LN5@vector:

  0008c	6a 10		 push	 16			; 00000010H
  0008e	56		 push	 esi
  0008f	e8 00 00 00 00	 call	 ??3@YAXPAXI@Z		; operator delete
  00094	83 c4 08	 add	 esp, 8
$LN6@vector:
  00097	8b c6		 mov	 eax, esi
  00099	8b 4d f4	 mov	 ecx, DWORD PTR __$EHRec$[ebp]
  0009c	64 89 0d 00 00
	00 00		 mov	 DWORD PTR fs:0, ecx
  000a3	59		 pop	 ecx
  000a4	5f		 pop	 edi
  000a5	5e		 pop	 esi
  000a6	5b		 pop	 ebx
  000a7	8b e5		 mov	 esp, ebp
  000a9	5d		 pop	 ebp
  000aa	c2 04 00	 ret	 4
  000ad	cc		 int	 3
  000ae	cc		 int	 3
  000af	cc		 int	 3
  000b0	cc		 int	 3
  000b1	cc		 int	 3
_TEXT	ENDS
;	COMDAT text$x
text$x	SEGMENT
__ehhandler$??_Ei3ElementBase@@UAEPAXI@Z:
  00000	90		 npad	 1
  00001	90		 npad	 1
  00002	8b 54 24 08	 mov	 edx, DWORD PTR [esp+8]
  00006	8d 42 0c	 lea	 eax, DWORD PTR [edx+12]
  00009	8b 4a f0	 mov	 ecx, DWORD PTR [edx-16]
  0000c	33 c8		 xor	 ecx, eax
  0000e	e8 00 00 00 00	 call	 @__security_check_cookie@4
  00013	b8 00 00 00 00	 mov	 eax, OFFSET __ehfuncinfo$??_Ei3ElementBase@@UAEPAXI@Z
  00018	e9 00 00 00 00	 jmp	 ___CxxFrameHandler3
text$x	ENDS
??_Ei3ElementBase@@UAEPAXI@Z ENDP			; i3ElementBase::`vector deleting destructor'
; Function compile flags: /Ogtp
; File E:\Proyectos\JuegosOnlineproyectos\PB\pbblow\Piercing Blow Remake\i3Server\src\i3Base\i3NetworkDB.cpp
;	COMDAT ??_Gi3ElementBase@@UAEPAXI@Z
_TEXT	SEGMENT
___flags$ = 8						; size = 4
??_Gi3ElementBase@@UAEPAXI@Z PROC			; i3ElementBase::`scalar deleting destructor', COMDAT
; _this$ = ecx
  00000	55		 push	 ebp
  00001	8b ec		 mov	 ebp, esp
  00003	56		 push	 esi
  00004	8b f1		 mov	 esi, ecx
  00006	e8 00 00 00 00	 call	 ??1i3ElementBase@@UAE@XZ ; i3ElementBase::~i3ElementBase
  0000b	8b 45 08	 mov	 eax, DWORD PTR ___flags$[ebp]
  0000e	a8 01		 test	 al, 1
  00010	74 1f		 je	 SHORT $LN10@scalar
  00012	a8 04		 test	 al, 4
  00014	75 10		 jne	 SHORT $LN3@scalar
  00016	56		 push	 esi
  00017	e8 00 00 00 00	 call	 ??3i3ElementBase@@SAXPAX@Z ; i3ElementBase::operator delete
  0001c	83 c4 04	 add	 esp, 4
  0001f	8b c6		 mov	 eax, esi
  00021	5e		 pop	 esi
  00022	5d		 pop	 ebp
  00023	c2 04 00	 ret	 4
$LN3@scalar:

  00026	6a 10		 push	 16			; 00000010H
  00028	56		 push	 esi
  00029	e8 00 00 00 00	 call	 ??3@YAXPAXI@Z		; operator delete
  0002e	83 c4 08	 add	 esp, 8
$LN10@scalar:
  00031	8b c6		 mov	 eax, esi
  00033	5e		 pop	 esi
  00034	5d		 pop	 ebp
  00035	c2 04 00	 ret	 4
??_Gi3ElementBase@@UAEPAXI@Z ENDP			; i3ElementBase::`scalar deleting destructor'
_TEXT	ENDS
; Function compile flags: /Ogtp
;	COMDAT ??4i3ElementBase@@QAEAAV0@ABV0@@Z
_TEXT	SEGMENT
___that$ = 8						; size = 4
??4i3ElementBase@@QAEAAV0@ABV0@@Z PROC			; i3ElementBase::operator=, COMDAT
; _this$ = ecx
  00000	55		 push	 ebp
  00001	8b ec		 mov	 ebp, esp
  00003	8b 55 08	 mov	 edx, DWORD PTR ___that$[ebp]
  00006	8b 42 04	 mov	 eax, DWORD PTR [edx+4]
  00009	89 41 04	 mov	 DWORD PTR [ecx+4], eax
  0000c	8b 42 08	 mov	 eax, DWORD PTR [edx+8]
  0000f	89 41 08	 mov	 DWORD PTR [ecx+8], eax
  00012	8b 42 0c	 mov	 eax, DWORD PTR [edx+12]
  00015	89 41 0c	 mov	 DWORD PTR [ecx+12], eax
  00018	8b c1		 mov	 eax, ecx
  0001a	5d		 pop	 ebp
  0001b	c2 04 00	 ret	 4
??4i3ElementBase@@QAEAAV0@ABV0@@Z ENDP			; i3ElementBase::operator=
_TEXT	ENDS
; Function compile flags: /Ogtp
;	COMDAT ??0i3ElementBase@@QAE@ABV0@@Z
_TEXT	SEGMENT
___that$ = 8						; size = 4
??0i3ElementBase@@QAE@ABV0@@Z PROC			; i3ElementBase::i3ElementBase, COMDAT
; _this$ = ecx
  00000	55		 push	 ebp
  00001	8b ec		 mov	 ebp, esp
  00003	8b 55 08	 mov	 edx, DWORD PTR ___that$[ebp]
  00006	c7 01 00 00 00
	00		 mov	 DWORD PTR [ecx], OFFSET ??_7i3ElementBase@@6B@
  0000c	8b 42 04	 mov	 eax, DWORD PTR [edx+4]
  0000f	89 41 04	 mov	 DWORD PTR [ecx+4], eax
  00012	8b 42 08	 mov	 eax, DWORD PTR [edx+8]
  00015	89 41 08	 mov	 DWORD PTR [ecx+8], eax
  00018	8b 42 0c	 mov	 eax, DWORD PTR [edx+12]
  0001b	89 41 0c	 mov	 DWORD PTR [ecx+12], eax
  0001e	8b c1		 mov	 eax, ecx
  00020	5d		 pop	 ebp
  00021	c2 04 00	 ret	 4
??0i3ElementBase@@QAE@ABV0@@Z ENDP			; i3ElementBase::i3ElementBase
_TEXT	ENDS
; Function compile flags: /Ogtp
; File E:\Proyectos\JuegosOnlineproyectos\PB\pbblow\Piercing Blow Remake\i3Server\include\i3Base\i3ElementBase.h
;	COMDAT ?_internal_SetRefCount@i3ElementBase@@QAEXH@Z
_TEXT	SEGMENT
_cnt$ = 8						; size = 4
?_internal_SetRefCount@i3ElementBase@@QAEXH@Z PROC	; i3ElementBase::_internal_SetRefCount, COMDAT
; _this$ = ecx

; 401  : 	{

  00000	55		 push	 ebp
  00001	8b ec		 mov	 ebp, esp

; 402  : 		m_RefCount = cnt;

  00003	8b 45 08	 mov	 eax, DWORD PTR _cnt$[ebp]
  00006	89 41 04	 mov	 DWORD PTR [ecx+4], eax

; 403  : 	}

  00009	5d		 pop	 ebp
  0000a	c2 04 00	 ret	 4
?_internal_SetRefCount@i3ElementBase@@QAEXH@Z ENDP	; i3ElementBase::_internal_SetRefCount
_TEXT	ENDS
; Function compile flags: /Ogtp
; File E:\Proyectos\JuegosOnlineproyectos\PB\pbblow\Piercing Blow Remake\i3Server\include\i3Base\i3ElementBase.h
;	COMDAT ?AddRef@i3ElementBase@@QAEHXZ
_TEXT	SEGMENT
?AddRef@i3ElementBase@@QAEHXZ PROC			; i3ElementBase::AddRef, COMDAT
; _this$ = ecx

; 392  : 		m_RefCount++;

  00000	ff 41 04	 inc	 DWORD PTR [ecx+4]

; 393  : 
; 394  : 		return m_RefCount;

  00003	8b 41 04	 mov	 eax, DWORD PTR [ecx+4]

; 395  : 	}

  00006	c3		 ret	 0
?AddRef@i3ElementBase@@QAEHXZ ENDP			; i3ElementBase::AddRef
_TEXT	ENDS
; Function compile flags: /Ogtp
; File E:\Proyectos\JuegosOnlineproyectos\PB\pbblow\Piercing Blow Remake\i3Server\include\i3Base\i3ElementBase.h
;	COMDAT ?IsTypeOf@i3ElementBase@@QAE_NPAVi3ClassMeta@@@Z
_TEXT	SEGMENT
_pMeta$ = 8						; size = 4
?IsTypeOf@i3ElementBase@@QAE_NPAVi3ClassMeta@@@Z PROC	; i3ElementBase::IsTypeOf, COMDAT
; _this$ = ecx

; 356  : 	{

  00000	55		 push	 ebp
  00001	8b ec		 mov	 ebp, esp

; 357  : 		return GetMeta()->IsTypeOf( pMeta);

  00003	8b 01		 mov	 eax, DWORD PTR [ecx]
  00005	ff 75 08	 push	 DWORD PTR _pMeta$[ebp]
  00008	ff 10		 call	 DWORD PTR [eax]
  0000a	8b c8		 mov	 ecx, eax
  0000c	e8 00 00 00 00	 call	 ?IsTypeOf@i3ClassMeta@@QAE_NPAV1@@Z ; i3ClassMeta::IsTypeOf

; 358  : 	}

  00011	5d		 pop	 ebp
  00012	c2 04 00	 ret	 4
?IsTypeOf@i3ElementBase@@QAE_NPAVi3ClassMeta@@@Z ENDP	; i3ElementBase::IsTypeOf
_TEXT	ENDS
; Function compile flags: /Ogtp
; File E:\Proyectos\JuegosOnlineproyectos\PB\pbblow\Piercing Blow Remake\i3Server\include\i3Base\i3ElementBase.h
; File E:\Proyectos\JuegosOnlineproyectos\PB\pbblow\Piercing Blow Remake\i3Server\include\i3Base\i3ClassMeta.h
; File E:\Proyectos\JuegosOnlineproyectos\PB\pbblow\Piercing Blow Remake\i3Server\include\i3Base\i3ElementBase.h
;	COMDAT ?IsExactTypeOf@i3ElementBase@@QAE_NPAVi3ClassMeta@@@Z
_TEXT	SEGMENT
_pMeta$ = 8						; size = 4
?IsExactTypeOf@i3ElementBase@@QAE_NPAVi3ClassMeta@@@Z PROC ; i3ElementBase::IsExactTypeOf, COMDAT
; _this$ = ecx

; 351  : 	{

  00000	55		 push	 ebp
  00001	8b ec		 mov	 ebp, esp

; 352  : 		return GetMeta()->IsExactTypeOf( pMeta);

  00003	8b 01		 mov	 eax, DWORD PTR [ecx]
  00005	ff 10		 call	 DWORD PTR [eax]
; File E:\Proyectos\JuegosOnlineproyectos\PB\pbblow\Piercing Blow Remake\i3Server\include\i3Base\i3ClassMeta.h

; 90   : 		return pMeta == this;

  00007	39 45 08	 cmp	 DWORD PTR _pMeta$[ebp], eax
  0000a	0f 94 c0	 sete	 al
; File E:\Proyectos\JuegosOnlineproyectos\PB\pbblow\Piercing Blow Remake\i3Server\include\i3Base\i3ElementBase.h

; 353  : 	}

  0000d	5d		 pop	 ebp
  0000e	c2 04 00	 ret	 4
?IsExactTypeOf@i3ElementBase@@QAE_NPAVi3ClassMeta@@@Z ENDP ; i3ElementBase::IsExactTypeOf
_TEXT	ENDS
; Function compile flags: /Ogtp
; File E:\Proyectos\JuegosOnlineproyectos\PB\pbblow\Piercing Blow Remake\i3Server\include\i3Base\i3ElementBase.h
;	COMDAT ?__GetMemoryPool@i3ElementBase@@QAEPAVi3MemoryPool@@XZ
_TEXT	SEGMENT
?__GetMemoryPool@i3ElementBase@@QAEPAVi3MemoryPool@@XZ PROC ; i3ElementBase::__GetMemoryPool, COMDAT
; _this$ = ecx

; 348  : 	i3MemoryPool *	__GetMemoryPool(void)							{ return m_pPool; }

  00000	8b 41 0c	 mov	 eax, DWORD PTR [ecx+12]
  00003	c3		 ret	 0
?__GetMemoryPool@i3ElementBase@@QAEPAVi3MemoryPool@@XZ ENDP ; i3ElementBase::__GetMemoryPool
_TEXT	ENDS
; Function compile flags: /Ogtp
; File E:\Proyectos\JuegosOnlineproyectos\PB\pbblow\Piercing Blow Remake\i3Server\include\i3Base\i3ElementBase.h
;	COMDAT ?__SetMemoryPool@i3ElementBase@@QAEXPAVi3MemoryPool@@@Z
_TEXT	SEGMENT
_pPool$ = 8						; size = 4
?__SetMemoryPool@i3ElementBase@@QAEXPAVi3MemoryPool@@@Z PROC ; i3ElementBase::__SetMemoryPool, COMDAT
; _this$ = ecx

; 347  : 	void			__SetMemoryPool( i3MemoryPool * pPool)			{ m_pPool = pPool; }

  00000	55		 push	 ebp
  00001	8b ec		 mov	 ebp, esp
  00003	8b 45 08	 mov	 eax, DWORD PTR _pPool$[ebp]
  00006	89 41 0c	 mov	 DWORD PTR [ecx+12], eax
  00009	5d		 pop	 ebp
  0000a	c2 04 00	 ret	 4
?__SetMemoryPool@i3ElementBase@@QAEXPAVi3MemoryPool@@@Z ENDP ; i3ElementBase::__SetMemoryPool
_TEXT	ENDS
; Function compile flags: /Ogtp
; File E:\Proyectos\JuegosOnlineproyectos\PB\pbblow\Piercing Blow Remake\i3Server\include\i3Base\i3ElementBase.h
;	COMDAT ?GetRefCount@i3ElementBase@@QAEHXZ
_TEXT	SEGMENT
?GetRefCount@i3ElementBase@@QAEHXZ PROC			; i3ElementBase::GetRefCount, COMDAT
; _this$ = ecx

; 344  : 		return m_RefCount;

  00000	8b 41 04	 mov	 eax, DWORD PTR [ecx+4]

; 345  : 	}

  00003	c3		 ret	 0
?GetRefCount@i3ElementBase@@QAEHXZ ENDP			; i3ElementBase::GetRefCount
_TEXT	ENDS
; Function compile flags: /Ogtp
; File E:\Proyectos\JuegosOnlineproyectos\PB\pbblow\Piercing Blow Remake\i3Server\include\i3Base\i3ElementBase.h
;	COMDAT ?GetClassMeta@i3ElementBase@@SAPAVi3ClassMeta@@XZ
_TEXT	SEGMENT
?GetClassMeta@i3ElementBase@@SAPAVi3ClassMeta@@XZ PROC	; i3ElementBase::GetClassMeta, COMDAT

; 314  : 	I3_ABSTRACT_CLASS_DEFINE( i3ElementBase);

  00000	a1 00 00 00 00	 mov	 eax, DWORD PTR ?s_pClassMetai3ElementBase@i3ElementBase@@2PAVi3ClassMeta@@A ; i3ElementBase::s_pClassMetai3ElementBase
  00005	c3		 ret	 0
?GetClassMeta@i3ElementBase@@SAPAVi3ClassMeta@@XZ ENDP	; i3ElementBase::GetClassMeta
_TEXT	ENDS
; Function compile flags: /Ogtp
;	COMDAT ??_Ei3ClassMeta@@UAEPAXI@Z
_TEXT	SEGMENT
__$EHRec$ = -12						; size = 12
___flags$ = 8						; size = 4
??_Ei3ClassMeta@@UAEPAXI@Z PROC				; i3ClassMeta::`vector deleting destructor', COMDAT
; _this$ = ecx
  00000	55		 push	 ebp
  00001	8b ec		 mov	 ebp, esp
  00003	6a ff		 push	 -1
  00005	68 00 00 00 00	 push	 __ehhandler$??_Ei3ClassMeta@@UAEPAXI@Z
  0000a	64 a1 00 00 00
	00		 mov	 eax, DWORD PTR fs:0
  00010	50		 push	 eax
  00011	53		 push	 ebx
  00012	56		 push	 esi
  00013	57		 push	 edi
  00014	a1 00 00 00 00	 mov	 eax, DWORD PTR ___security_cookie
  00019	33 c5		 xor	 eax, ebp
  0001b	50		 push	 eax
  0001c	8d 45 f4	 lea	 eax, DWORD PTR __$EHRec$[ebp]
  0001f	64 a3 00 00 00
	00		 mov	 DWORD PTR fs:0, eax
  00025	8b f1		 mov	 esi, ecx
  00027	8b 45 08	 mov	 eax, DWORD PTR ___flags$[ebp]
  0002a	8b f8		 mov	 edi, eax
  0002c	83 e7 01	 and	 edi, 1
  0002f	a8 02		 test	 al, 2
  00031	74 49		 je	 SHORT $LN2@vector
  00033	68 00 00 00 00	 push	 OFFSET ??1i3ClassMeta@@UAE@XZ ; i3ClassMeta::~i3ClassMeta
  00038	ff 76 fc	 push	 DWORD PTR [esi-4]
  0003b	8d 5e fc	 lea	 ebx, DWORD PTR [esi-4]
  0003e	6a 38		 push	 56			; 00000038H
  00040	56		 push	 esi
  00041	e8 00 00 00 00	 call	 ??_M@YGXPAXIIP6EX0@Z@Z
  00046	85 ff		 test	 edi, edi
  00048	74 1c		 je	 SHORT $LN3@vector
  0004a	8b 0b		 mov	 ecx, DWORD PTR [ebx]
  0004c	8d 14 cd 00 00
	00 00		 lea	 edx, DWORD PTR [ecx*8]
  00053	2b d1		 sub	 edx, ecx
  00055	8d 0c d5 04 00
	00 00		 lea	 ecx, DWORD PTR [edx*8+4]
  0005c	51		 push	 ecx
  0005d	53		 push	 ebx
  0005e	e8 00 00 00 00	 call	 ??_V@YAXPAXI@Z		; operator delete[]
  00063	83 c4 08	 add	 esp, 8
$LN3@vector:
  00066	8b c3		 mov	 eax, ebx
  00068	8b 4d f4	 mov	 ecx, DWORD PTR __$EHRec$[ebp]
  0006b	64 89 0d 00 00
	00 00		 mov	 DWORD PTR fs:0, ecx
  00072	59		 pop	 ecx
  00073	5f		 pop	 edi
  00074	5e		 pop	 esi
  00075	5b		 pop	 ebx
  00076	8b e5		 mov	 esp, ebp
  00078	5d		 pop	 ebp
  00079	c2 04 00	 ret	 4
$LN2@vector:
  0007c	e8 00 00 00 00	 call	 ??1i3ClassMeta@@UAE@XZ	; i3ClassMeta::~i3ClassMeta
  00081	85 ff		 test	 edi, edi
  00083	74 0b		 je	 SHORT $LN4@vector
  00085	6a 38		 push	 56			; 00000038H
  00087	56		 push	 esi
  00088	e8 00 00 00 00	 call	 ??3@YAXPAXI@Z		; operator delete
  0008d	83 c4 08	 add	 esp, 8
$LN4@vector:
  00090	8b c6		 mov	 eax, esi
  00092	8b 4d f4	 mov	 ecx, DWORD PTR __$EHRec$[ebp]
  00095	64 89 0d 00 00
	00 00		 mov	 DWORD PTR fs:0, ecx
  0009c	59		 pop	 ecx
  0009d	5f		 pop	 edi
  0009e	5e		 pop	 esi
  0009f	5b		 pop	 ebx
  000a0	8b e5		 mov	 esp, ebp
  000a2	5d		 pop	 ebp
  000a3	c2 04 00	 ret	 4
  000a6	cc		 int	 3
  000a7	cc		 int	 3
  000a8	cc		 int	 3
  000a9	cc		 int	 3
  000aa	cc		 int	 3
_TEXT	ENDS
;	COMDAT text$x
text$x	SEGMENT
__ehhandler$??_Ei3ClassMeta@@UAEPAXI@Z:
  00000	90		 npad	 1
  00001	90		 npad	 1
  00002	8b 54 24 08	 mov	 edx, DWORD PTR [esp+8]
  00006	8d 42 0c	 lea	 eax, DWORD PTR [edx+12]
  00009	8b 4a f0	 mov	 ecx, DWORD PTR [edx-16]
  0000c	33 c8		 xor	 ecx, eax
  0000e	e8 00 00 00 00	 call	 @__security_check_cookie@4
  00013	b8 00 00 00 00	 mov	 eax, OFFSET __ehfuncinfo$??_Ei3ClassMeta@@UAEPAXI@Z
  00018	e9 00 00 00 00	 jmp	 ___CxxFrameHandler3
text$x	ENDS
??_Ei3ClassMeta@@UAEPAXI@Z ENDP				; i3ClassMeta::`vector deleting destructor'
; Function compile flags: /Ogtp
;	COMDAT ??_Gi3ClassMeta@@UAEPAXI@Z
_TEXT	SEGMENT
___flags$ = 8						; size = 4
??_Gi3ClassMeta@@UAEPAXI@Z PROC				; i3ClassMeta::`scalar deleting destructor', COMDAT
; _this$ = ecx
  00000	55		 push	 ebp
  00001	8b ec		 mov	 ebp, esp
  00003	56		 push	 esi
  00004	8b f1		 mov	 esi, ecx
  00006	e8 00 00 00 00	 call	 ??1i3ClassMeta@@UAE@XZ	; i3ClassMeta::~i3ClassMeta
  0000b	f6 45 08 01	 test	 BYTE PTR ___flags$[ebp], 1
  0000f	74 0b		 je	 SHORT $LN5@scalar
  00011	6a 38		 push	 56			; 00000038H
  00013	56		 push	 esi
  00014	e8 00 00 00 00	 call	 ??3@YAXPAXI@Z		; operator delete
  00019	83 c4 08	 add	 esp, 8
$LN5@scalar:
  0001c	8b c6		 mov	 eax, esi
  0001e	5e		 pop	 esi
  0001f	5d		 pop	 ebp
  00020	c2 04 00	 ret	 4
??_Gi3ClassMeta@@UAEPAXI@Z ENDP				; i3ClassMeta::`scalar deleting destructor'
_TEXT	ENDS
; Function compile flags: /Ogtp
;	COMDAT ??4i3ClassMeta@@QAEAAV0@ABV0@@Z
_TEXT	SEGMENT
___that$ = 8						; size = 4
??4i3ClassMeta@@QAEAAV0@ABV0@@Z PROC			; i3ClassMeta::operator=, COMDAT
; _this$ = ecx
  00000	55		 push	 ebp
  00001	8b ec		 mov	 ebp, esp
  00003	8b 55 08	 mov	 edx, DWORD PTR ___that$[ebp]
  00006	8b 42 04	 mov	 eax, DWORD PTR [edx+4]
  00009	89 41 04	 mov	 DWORD PTR [ecx+4], eax
  0000c	8b 42 08	 mov	 eax, DWORD PTR [edx+8]
  0000f	89 41 08	 mov	 DWORD PTR [ecx+8], eax
  00012	8b 42 0c	 mov	 eax, DWORD PTR [edx+12]
  00015	89 41 0c	 mov	 DWORD PTR [ecx+12], eax
  00018	8b 42 10	 mov	 eax, DWORD PTR [edx+16]
  0001b	89 41 10	 mov	 DWORD PTR [ecx+16], eax
  0001e	8b 42 14	 mov	 eax, DWORD PTR [edx+20]
  00021	89 41 14	 mov	 DWORD PTR [ecx+20], eax
  00024	8b 42 18	 mov	 eax, DWORD PTR [edx+24]
  00027	89 41 18	 mov	 DWORD PTR [ecx+24], eax
  0002a	8b 42 1c	 mov	 eax, DWORD PTR [edx+28]
  0002d	89 41 1c	 mov	 DWORD PTR [ecx+28], eax
  00030	8b 42 20	 mov	 eax, DWORD PTR [edx+32]
  00033	89 41 20	 mov	 DWORD PTR [ecx+32], eax
  00036	8b 42 24	 mov	 eax, DWORD PTR [edx+36]
  00039	89 41 24	 mov	 DWORD PTR [ecx+36], eax
  0003c	8b 42 28	 mov	 eax, DWORD PTR [edx+40]
  0003f	89 41 28	 mov	 DWORD PTR [ecx+40], eax
  00042	8b 42 2c	 mov	 eax, DWORD PTR [edx+44]
  00045	89 41 2c	 mov	 DWORD PTR [ecx+44], eax
  00048	8b 42 30	 mov	 eax, DWORD PTR [edx+48]
  0004b	89 41 30	 mov	 DWORD PTR [ecx+48], eax
  0004e	8b 42 34	 mov	 eax, DWORD PTR [edx+52]
  00051	89 41 34	 mov	 DWORD PTR [ecx+52], eax
  00054	8b c1		 mov	 eax, ecx
  00056	5d		 pop	 ebp
  00057	c2 04 00	 ret	 4
??4i3ClassMeta@@QAEAAV0@ABV0@@Z ENDP			; i3ClassMeta::operator=
_TEXT	ENDS
; Function compile flags: /Ogtp
;	COMDAT ??0i3ClassMeta@@QAE@ABV0@@Z
_TEXT	SEGMENT
___that$ = 8						; size = 4
??0i3ClassMeta@@QAE@ABV0@@Z PROC			; i3ClassMeta::i3ClassMeta, COMDAT
; _this$ = ecx
  00000	55		 push	 ebp
  00001	8b ec		 mov	 ebp, esp
  00003	8b 55 08	 mov	 edx, DWORD PTR ___that$[ebp]
  00006	c7 01 00 00 00
	00		 mov	 DWORD PTR [ecx], OFFSET ??_7i3ClassMeta@@6B@
  0000c	8b 42 04	 mov	 eax, DWORD PTR [edx+4]
  0000f	89 41 04	 mov	 DWORD PTR [ecx+4], eax
  00012	8b 42 08	 mov	 eax, DWORD PTR [edx+8]
  00015	89 41 08	 mov	 DWORD PTR [ecx+8], eax
  00018	8b 42 0c	 mov	 eax, DWORD PTR [edx+12]
  0001b	89 41 0c	 mov	 DWORD PTR [ecx+12], eax
  0001e	8b 42 10	 mov	 eax, DWORD PTR [edx+16]
  00021	89 41 10	 mov	 DWORD PTR [ecx+16], eax
  00024	8b 42 14	 mov	 eax, DWORD PTR [edx+20]
  00027	89 41 14	 mov	 DWORD PTR [ecx+20], eax
  0002a	8b 42 18	 mov	 eax, DWORD PTR [edx+24]
  0002d	89 41 18	 mov	 DWORD PTR [ecx+24], eax
  00030	8b 42 1c	 mov	 eax, DWORD PTR [edx+28]
  00033	89 41 1c	 mov	 DWORD PTR [ecx+28], eax
  00036	8b 42 20	 mov	 eax, DWORD PTR [edx+32]
  00039	89 41 20	 mov	 DWORD PTR [ecx+32], eax
  0003c	8b 42 24	 mov	 eax, DWORD PTR [edx+36]
  0003f	89 41 24	 mov	 DWORD PTR [ecx+36], eax
  00042	8b 42 28	 mov	 eax, DWORD PTR [edx+40]
  00045	89 41 28	 mov	 DWORD PTR [ecx+40], eax
  00048	8b 42 2c	 mov	 eax, DWORD PTR [edx+44]
  0004b	89 41 2c	 mov	 DWORD PTR [ecx+44], eax
  0004e	8b 42 30	 mov	 eax, DWORD PTR [edx+48]
  00051	89 41 30	 mov	 DWORD PTR [ecx+48], eax
  00054	8b 42 34	 mov	 eax, DWORD PTR [edx+52]
  00057	89 41 34	 mov	 DWORD PTR [ecx+52], eax
  0005a	8b c1		 mov	 eax, ecx
  0005c	5d		 pop	 ebp
  0005d	c2 04 00	 ret	 4
??0i3ClassMeta@@QAE@ABV0@@Z ENDP			; i3ClassMeta::i3ClassMeta
_TEXT	ENDS
; Function compile flags: /Ogtp
; File E:\Proyectos\JuegosOnlineproyectos\PB\pbblow\Piercing Blow Remake\i3Server\include\i3Base\i3ClassMeta.h
;	COMDAT ?getHashCode@i3ClassMeta@@QAEIXZ
_TEXT	SEGMENT
?getHashCode@i3ClassMeta@@QAEIXZ PROC			; i3ClassMeta::getHashCode, COMDAT
; _this$ = ecx

; 112  : 	UINT32			getHashCode(void)						{ return m_HashCode; }

  00000	8b 41 18	 mov	 eax, DWORD PTR [ecx+24]
  00003	c3		 ret	 0
?getHashCode@i3ClassMeta@@QAEIXZ ENDP			; i3ClassMeta::getHashCode
_TEXT	ENDS
; Function compile flags: /Ogtp
; File E:\Proyectos\JuegosOnlineproyectos\PB\pbblow\Piercing Blow Remake\i3Server\include\i3Base\i3ClassMeta.h
;	COMDAT ?GetBaseClassMeta@i3ClassMeta@@QAEPAV1@XZ
_TEXT	SEGMENT
?GetBaseClassMeta@i3ClassMeta@@QAEPAV1@XZ PROC		; i3ClassMeta::GetBaseClassMeta, COMDAT
; _this$ = ecx

; 107  : 	i3ClassMeta *	GetBaseClassMeta(void)					{ return m_pBaseClass; }

  00000	8b 41 1c	 mov	 eax, DWORD PTR [ecx+28]
  00003	c3		 ret	 0
?GetBaseClassMeta@i3ClassMeta@@QAEPAV1@XZ ENDP		; i3ClassMeta::GetBaseClassMeta
_TEXT	ENDS
; Function compile flags: /Ogtp
; File E:\Proyectos\JuegosOnlineproyectos\PB\pbblow\Piercing Blow Remake\i3Server\include\i3Base\i3ClassMeta.h
;	COMDAT ?IsConcreteClass@i3ClassMeta@@QAEHXZ
_TEXT	SEGMENT
?IsConcreteClass@i3ClassMeta@@QAEHXZ PROC		; i3ClassMeta::IsConcreteClass, COMDAT
; _this$ = ecx

; 102  : 	BOOL			IsStyle( UINT32 style)					{ return (m_Style & style) == style; }

  00000	8b 41 14	 mov	 eax, DWORD PTR [ecx+20]
  00003	d1 e8		 shr	 eax, 1
  00005	83 e0 01	 and	 eax, 1

; 105  : 	BOOL			IsConcreteClass(void)					{ return IsStyle( I3_CLASSMETA_STYLE_CONCRETE); }

  00008	c3		 ret	 0
?IsConcreteClass@i3ClassMeta@@QAEHXZ ENDP		; i3ClassMeta::IsConcreteClass
_TEXT	ENDS
; Function compile flags: /Ogtp
; File E:\Proyectos\JuegosOnlineproyectos\PB\pbblow\Piercing Blow Remake\i3Server\include\i3Base\i3ClassMeta.h
;	COMDAT ?IsAbstractClass@i3ClassMeta@@QAEHXZ
_TEXT	SEGMENT
?IsAbstractClass@i3ClassMeta@@QAEHXZ PROC		; i3ClassMeta::IsAbstractClass, COMDAT
; _this$ = ecx

; 102  : 	BOOL			IsStyle( UINT32 style)					{ return (m_Style & style) == style; }

  00000	8b 41 14	 mov	 eax, DWORD PTR [ecx+20]
  00003	83 e0 01	 and	 eax, 1

; 104  : 	BOOL			IsAbstractClass(void)					{ return IsStyle( I3_CLASSMETA_STYLE_ABSTRACT); }

  00006	c3		 ret	 0
?IsAbstractClass@i3ClassMeta@@QAEHXZ ENDP		; i3ClassMeta::IsAbstractClass
_TEXT	ENDS
; Function compile flags: /Ogtp
; File E:\Proyectos\JuegosOnlineproyectos\PB\pbblow\Piercing Blow Remake\i3Server\include\i3Base\i3ClassMeta.h
;	COMDAT ?IsStyle@i3ClassMeta@@QAEHI@Z
_TEXT	SEGMENT
_style$ = 8						; size = 4
?IsStyle@i3ClassMeta@@QAEHI@Z PROC			; i3ClassMeta::IsStyle, COMDAT
; _this$ = ecx

; 102  : 	BOOL			IsStyle( UINT32 style)					{ return (m_Style & style) == style; }

  00000	55		 push	 ebp
  00001	8b ec		 mov	 ebp, esp
  00003	8b 51 14	 mov	 edx, DWORD PTR [ecx+20]
  00006	33 c0		 xor	 eax, eax
  00008	23 55 08	 and	 edx, DWORD PTR _style$[ebp]
  0000b	3b 55 08	 cmp	 edx, DWORD PTR _style$[ebp]
  0000e	0f 94 c0	 sete	 al
  00011	5d		 pop	 ebp
  00012	c2 04 00	 ret	 4
?IsStyle@i3ClassMeta@@QAEHI@Z ENDP			; i3ClassMeta::IsStyle
_TEXT	ENDS
; Function compile flags: /Ogtp
; File E:\Proyectos\JuegosOnlineproyectos\PB\pbblow\Piercing Blow Remake\i3Server\include\i3Base\i3ClassMeta.h
;	COMDAT ?RemoveStyle@i3ClassMeta@@QAEXI@Z
_TEXT	SEGMENT
_style$ = 8						; size = 4
?RemoveStyle@i3ClassMeta@@QAEXI@Z PROC			; i3ClassMeta::RemoveStyle, COMDAT
; _this$ = ecx

; 101  : 	void			RemoveStyle( UINT32 style)				{ m_Style &= ~style; }

  00000	55		 push	 ebp
  00001	8b ec		 mov	 ebp, esp
  00003	8b 45 08	 mov	 eax, DWORD PTR _style$[ebp]
  00006	f7 d0		 not	 eax
  00008	21 41 14	 and	 DWORD PTR [ecx+20], eax
  0000b	5d		 pop	 ebp
  0000c	c2 04 00	 ret	 4
?RemoveStyle@i3ClassMeta@@QAEXI@Z ENDP			; i3ClassMeta::RemoveStyle
_TEXT	ENDS
; Function compile flags: /Ogtp
; File E:\Proyectos\JuegosOnlineproyectos\PB\pbblow\Piercing Blow Remake\i3Server\include\i3Base\i3ClassMeta.h
;	COMDAT ?AddStyle@i3ClassMeta@@QAEXI@Z
_TEXT	SEGMENT
_style$ = 8						; size = 4
?AddStyle@i3ClassMeta@@QAEXI@Z PROC			; i3ClassMeta::AddStyle, COMDAT
; _this$ = ecx

; 100  : 	void			AddStyle( UINT32 style)					{ m_Style |= style; }

  00000	55		 push	 ebp
  00001	8b ec		 mov	 ebp, esp
  00003	8b 45 08	 mov	 eax, DWORD PTR _style$[ebp]
  00006	09 41 14	 or	 DWORD PTR [ecx+20], eax
  00009	5d		 pop	 ebp
  0000a	c2 04 00	 ret	 4
?AddStyle@i3ClassMeta@@QAEXI@Z ENDP			; i3ClassMeta::AddStyle
_TEXT	ENDS
; Function compile flags: /Ogtp
; File E:\Proyectos\JuegosOnlineproyectos\PB\pbblow\Piercing Blow Remake\i3Server\include\i3Base\i3ClassMeta.h
;	COMDAT ?GetStyle@i3ClassMeta@@QAEIXZ
_TEXT	SEGMENT
?GetStyle@i3ClassMeta@@QAEIXZ PROC			; i3ClassMeta::GetStyle, COMDAT
; _this$ = ecx

; 99   : 	UINT32			GetStyle(void)							{ return m_Style; }

  00000	8b 41 14	 mov	 eax, DWORD PTR [ecx+20]
  00003	c3		 ret	 0
?GetStyle@i3ClassMeta@@QAEIXZ ENDP			; i3ClassMeta::GetStyle
_TEXT	ENDS
; Function compile flags: /Ogtp
; File E:\Proyectos\JuegosOnlineproyectos\PB\pbblow\Piercing Blow Remake\i3Server\include\i3Base\i3ClassMeta.h
;	COMDAT ?SetStyle@i3ClassMeta@@QAEXI@Z
_TEXT	SEGMENT
_style$ = 8						; size = 4
?SetStyle@i3ClassMeta@@QAEXI@Z PROC			; i3ClassMeta::SetStyle, COMDAT
; _this$ = ecx

; 98   : 	void			SetStyle( UINT32 style)					{ m_Style = style; }

  00000	55		 push	 ebp
  00001	8b ec		 mov	 ebp, esp
  00003	8b 45 08	 mov	 eax, DWORD PTR _style$[ebp]
  00006	89 41 14	 mov	 DWORD PTR [ecx+20], eax
  00009	5d		 pop	 ebp
  0000a	c2 04 00	 ret	 4
?SetStyle@i3ClassMeta@@QAEXI@Z ENDP			; i3ClassMeta::SetStyle
_TEXT	ENDS
; Function compile flags: /Ogtp
; File E:\Proyectos\JuegosOnlineproyectos\PB\pbblow\Piercing Blow Remake\i3Server\include\i3Base\i3ClassMeta.h
;	COMDAT ?IsExactTypeOf@i3ClassMeta@@QAE_NPAV1@@Z
_TEXT	SEGMENT
_pMeta$ = 8						; size = 4
?IsExactTypeOf@i3ClassMeta@@QAE_NPAV1@@Z PROC		; i3ClassMeta::IsExactTypeOf, COMDAT
; _this$ = ecx

; 89   : 	{

  00000	55		 push	 ebp
  00001	8b ec		 mov	 ebp, esp

; 90   : 		return pMeta == this;

  00003	39 4d 08	 cmp	 DWORD PTR _pMeta$[ebp], ecx
  00006	0f 94 c0	 sete	 al

; 91   : 	}

  00009	5d		 pop	 ebp
  0000a	c2 04 00	 ret	 4
?IsExactTypeOf@i3ClassMeta@@QAE_NPAV1@@Z ENDP		; i3ClassMeta::IsExactTypeOf
_TEXT	ENDS
; Function compile flags: /Ogtp
; File E:\Proyectos\JuegosOnlineproyectos\PB\pbblow\Piercing Blow Remake\i3Server\include\i3Base\i3ClassMeta.h
;	COMDAT ?GetClassNameA@i3ClassMeta@@QAEPADXZ
_TEXT	SEGMENT
?GetClassNameA@i3ClassMeta@@QAEPADXZ PROC		; i3ClassMeta::GetClassNameA, COMDAT
; _this$ = ecx

; 83   : 		return m_pszClassName;

  00000	8b 41 0c	 mov	 eax, DWORD PTR [ecx+12]

; 84   : 	}

  00003	c3		 ret	 0
?GetClassNameA@i3ClassMeta@@QAEPADXZ ENDP		; i3ClassMeta::GetClassNameA
_TEXT	ENDS
; Function compile flags: /Ogtp
; File E:\Proyectos\JuegosOnlineproyectos\PB\pbblow\Piercing Blow Remake\i3Server\include\i3Base\i3ClassMeta.h
;	COMDAT ?GetClassSize@i3ClassMeta@@QAEIXZ
_TEXT	SEGMENT
?GetClassSize@i3ClassMeta@@QAEIXZ PROC			; i3ClassMeta::GetClassSize, COMDAT
; _this$ = ecx

; 78   : 		return m_ClassSize;

  00000	8b 41 08	 mov	 eax, DWORD PTR [ecx+8]

; 79   : 	}

  00003	c3		 ret	 0
?GetClassSize@i3ClassMeta@@QAEIXZ ENDP			; i3ClassMeta::GetClassSize
_TEXT	ENDS
; Function compile flags: /Ogtp
; File E:\Proyectos\JuegosOnlineproyectos\PB\pbblow\Piercing Blow Remake\i3Server\include\i3Base\i3ClassMeta.h
;	COMDAT ?SetMemoryPool@i3ClassMeta@@QAEXPAVi3MemoryPool@@@Z
_TEXT	SEGMENT
_pPool$ = 8						; size = 4
?SetMemoryPool@i3ClassMeta@@QAEXPAVi3MemoryPool@@@Z PROC ; i3ClassMeta::SetMemoryPool, COMDAT
; _this$ = ecx

; 66   : 	void			SetMemoryPool( i3MemoryPool * pPool)		{ m_pPool = pPool; }

  00000	55		 push	 ebp
  00001	8b ec		 mov	 ebp, esp
  00003	8b 45 08	 mov	 eax, DWORD PTR _pPool$[ebp]
  00006	89 41 34	 mov	 DWORD PTR [ecx+52], eax
  00009	5d		 pop	 ebp
  0000a	c2 04 00	 ret	 4
?SetMemoryPool@i3ClassMeta@@QAEXPAVi3MemoryPool@@@Z ENDP ; i3ClassMeta::SetMemoryPool
_TEXT	ENDS
; Function compile flags: /Ogtp
; File E:\Proyectos\JuegosOnlineproyectos\PB\pbblow\Piercing Blow Remake\i3Server\include\i3Base\i3ClassMeta.h
;	COMDAT ?GetMemoryPool@i3ClassMeta@@QAEPAVi3MemoryPool@@XZ
_TEXT	SEGMENT
?GetMemoryPool@i3ClassMeta@@QAEPAVi3MemoryPool@@XZ PROC	; i3ClassMeta::GetMemoryPool, COMDAT
; _this$ = ecx

; 65   : 	i3MemoryPool *	GetMemoryPool(void)							{ return m_pPool; }

  00000	8b 41 34	 mov	 eax, DWORD PTR [ecx+52]
  00003	c3		 ret	 0
?GetMemoryPool@i3ClassMeta@@QAEPAVi3MemoryPool@@XZ ENDP	; i3ClassMeta::GetMemoryPool
_TEXT	ENDS
; Function compile flags: /Ogtp
; File C:\Program Files (x86)\Windows Kits\10\Include\10.0.26100.0\ucrt\stdio.h
;	COMDAT _sprintf
_TEXT	SEGMENT
__Buffer$ = 8						; size = 4
__Format$ = 12						; size = 4
_sprintf PROC						; COMDAT

; 1771 :     {

  00000	55		 push	 ebp
  00001	8b ec		 mov	 ebp, esp

; 1392 :         int const _Result = __stdio_common_vsprintf(

  00003	8d 45 10	 lea	 eax, DWORD PTR __Format$[ebp+4]
  00006	50		 push	 eax
  00007	6a 00		 push	 0
  00009	ff 75 0c	 push	 DWORD PTR __Format$[ebp]
  0000c	6a ff		 push	 -1
  0000e	ff 75 08	 push	 DWORD PTR __Buffer$[ebp]
  00011	e8 00 00 00 00	 call	 ___local_stdio_printf_options
  00016	8b 08		 mov	 ecx, DWORD PTR [eax]
  00018	ff 70 04	 push	 DWORD PTR [eax+4]
  0001b	83 c9 01	 or	 ecx, 1
  0001e	51		 push	 ecx
  0001f	e8 00 00 00 00	 call	 ___stdio_common_vsprintf

; 1393 :             _CRT_INTERNAL_LOCAL_PRINTF_OPTIONS | _CRT_INTERNAL_PRINTF_LEGACY_VSPRINTF_NULL_TERMINATION,
; 1394 :             _Buffer, _BufferCount, _Format, _Locale, _ArgList);
; 1395 : 
; 1396 :         return _Result < 0 ? -1 : _Result;

  00024	83 c9 ff	 or	 ecx, -1
  00027	83 c4 1c	 add	 esp, 28			; 0000001cH
  0002a	85 c0		 test	 eax, eax
  0002c	0f 48 c1	 cmovs	 eax, ecx

; 1772 :         int _Result;
; 1773 :         va_list _ArgList;
; 1774 :         __crt_va_start(_ArgList, _Format);
; 1775 : 
; 1776 :         _Result = _vsprintf_l(_Buffer, _Format, NULL, _ArgList);
; 1777 : 
; 1778 :         __crt_va_end(_ArgList);
; 1779 :         return _Result;
; 1780 :     }

  0002f	5d		 pop	 ebp
  00030	c3		 ret	 0
_sprintf ENDP
_TEXT	ENDS
; Function compile flags: /Ogtp
; File C:\Program Files (x86)\Windows Kits\10\Include\10.0.26100.0\ucrt\corecrt_stdio_config.h
;	COMDAT ___local_stdio_printf_options
_TEXT	SEGMENT
___local_stdio_printf_options PROC			; COMDAT

; 91   :         static unsigned __int64 _OptionsStorage;
; 92   :         return &_OptionsStorage;

  00000	b8 00 00 00 00	 mov	 eax, OFFSET ?_OptionsStorage@?1??__local_stdio_printf_options@@9@4_KA ; `__local_stdio_printf_options'::`2'::_OptionsStorage

; 93   :     }

  00005	c3		 ret	 0
___local_stdio_printf_options ENDP
_TEXT	ENDS
; Function compile flags: /Ogtp
; File E:\Proyectos\JuegosOnlineproyectos\PB\pbblow\Piercing Blow Remake\i3Server\src\i3Base\i3NetworkDB.cpp
;	COMDAT ?__global_array_delete@@YAXPAXI@Z
_TEXT	SEGMENT
_p$ = 8							; size = 4
_sz$ = 12						; size = 4
?__global_array_delete@@YAXPAXI@Z PROC			; __global_array_delete, COMDAT

  00000	e9 00 00 00 00	 jmp	 ??_V@YAXPAXI@Z		; operator delete[]
?__global_array_delete@@YAXPAXI@Z ENDP			; __global_array_delete
_TEXT	ENDS
; Function compile flags: /Ogtp
; File E:\Proyectos\JuegosOnlineproyectos\PB\pbblow\Piercing Blow Remake\i3Server\src\i3Base\i3NetworkDB.cpp
;	COMDAT ?__global_array_delete@@YAXPAX@Z
_TEXT	SEGMENT
_p$ = 8							; size = 4
?__global_array_delete@@YAXPAX@Z PROC			; __global_array_delete, COMDAT

  00000	e9 00 00 00 00	 jmp	 ??_V@YAXPAX@Z		; operator delete[]
?__global_array_delete@@YAXPAX@Z ENDP			; __global_array_delete
_TEXT	ENDS
; Function compile flags: /Ogtp
; File E:\Proyectos\JuegosOnlineproyectos\PB\pbblow\Piercing Blow Remake\i3Server\src\i3Base\i3NetworkDB.cpp
;	COMDAT ?__global_delete@@YAXPAXI@Z
_TEXT	SEGMENT
_p$ = 8							; size = 4
_sz$ = 12						; size = 4
?__global_delete@@YAXPAXI@Z PROC			; __global_delete, COMDAT

  00000	e9 00 00 00 00	 jmp	 ??3@YAXPAXI@Z		; operator delete
?__global_delete@@YAXPAXI@Z ENDP			; __global_delete
_TEXT	ENDS
; Function compile flags: /Ogtp
; File E:\Proyectos\JuegosOnlineproyectos\PB\pbblow\Piercing Blow Remake\i3Server\src\i3Base\i3NetworkDB.cpp
;	COMDAT ?__empty_global_delete@@YAXPAXI@Z
_TEXT	SEGMENT
___formal$ = 8						; size = 4
___formal$ = 12						; size = 4
?__empty_global_delete@@YAXPAXI@Z PROC			; __empty_global_delete, COMDAT

  00000	c2 00 00	 ret	 0
?__empty_global_delete@@YAXPAXI@Z ENDP			; __empty_global_delete
_TEXT	ENDS
; Function compile flags: /Ogtp
; File E:\Proyectos\JuegosOnlineproyectos\PB\pbblow\Piercing Blow Remake\i3Server\src\i3Base\i3NetworkDB.cpp
;	COMDAT ?__global_delete@@YAXPAX@Z
_TEXT	SEGMENT
_p$ = 8							; size = 4
?__global_delete@@YAXPAX@Z PROC				; __global_delete, COMDAT

  00000	e9 00 00 00 00	 jmp	 ??3@YAXPAX@Z		; operator delete
?__global_delete@@YAXPAX@Z ENDP				; __global_delete
_TEXT	ENDS
; Function compile flags: /Ogtp
; File E:\Proyectos\JuegosOnlineproyectos\PB\pbblow\Piercing Blow Remake\i3Server\src\i3Base\i3NetworkDB.cpp
;	COMDAT ?__empty_global_delete@@YAXPAX@Z
_TEXT	SEGMENT
___formal$ = 8						; size = 4
?__empty_global_delete@@YAXPAX@Z PROC			; __empty_global_delete, COMDAT

  00000	c2 00 00	 ret	 0
?__empty_global_delete@@YAXPAX@Z ENDP			; __empty_global_delete
_TEXT	ENDS
END
