; Listing generated by Microsoft (R) Optimizing Compiler Version 19.50.35727.0 

	TITLE	E:\Proyectos\JuegosOnlineproyectos\PB\pbblow\Piercing Blow Remake\i3Server\Project\I3_DX\i3Server\x86\Release\i3NetworkFTP.obj
	.686P
	.XMM
	include listing.inc
	.model	flat

INCLUDELIB LIBCMT
INCLUDELIB OLDNAMES

PUBLIC	?s_pClassMetai3NetworkFTP@i3NetworkFTP@@2PAVi3ClassMeta@@A ; i3NetworkFTP::s_pClassMetai3NetworkFTP
PUBLIC	?CreateInstance@?$i3MetaTemplate@Vi3NetworkFTP@@@@UAEPAVi3ElementBase@@W4I3_CLASSMETA_TYPE@@@Z ; i3MetaTemplate<i3NetworkFTP>::CreateInstance
PUBLIC	?BindInstance@?$i3MetaTemplate@Vi3NetworkFTP@@@@UAEPAVi3ElementBase@@PAXW4I3_CLASSMETA_TYPE@@@Z ; i3MetaTemplate<i3NetworkFTP>::BindInstance
PUBLIC	??_7?$i3MetaTemplate@Vi3NetworkFTP@@@@6B@	; i3MetaTemplate<i3NetworkFTP>::`vftable'
PUBLIC	??_G?$i3MetaTemplate@Vi3NetworkFTP@@@@UAEPAXI@Z	; i3MetaTemplate<i3NetworkFTP>::`scalar deleting destructor'
PUBLIC	??_C@_0O@OCDFBOHM@i3ElementBase@		; `string'
PUBLIC	??_C@_0N@BIPHHAPB@i3NetworkFTP@			; `string'
PUBLIC	??_R0?AVi3ClassMeta@@@8				; i3ClassMeta `RTTI Type Descriptor'
PUBLIC	??_R3i3ClassMeta@@8				; i3ClassMeta::`RTTI Class Hierarchy Descriptor'
PUBLIC	??_R2i3ClassMeta@@8				; i3ClassMeta::`RTTI Base Class Array'
PUBLIC	??_R1A@?0A@EA@i3ClassMeta@@8			; i3ClassMeta::`RTTI Base Class Descriptor at (0,-1,0,64)'
PUBLIC	??_R4?$i3MetaTemplate@Vi3NetworkFTP@@@@6B@	; i3MetaTemplate<i3NetworkFTP>::`RTTI Complete Object Locator'
PUBLIC	??_R0?AV?$i3MetaTemplate@Vi3NetworkFTP@@@@@8	; i3MetaTemplate<i3NetworkFTP> `RTTI Type Descriptor'
PUBLIC	??_R3?$i3MetaTemplate@Vi3NetworkFTP@@@@8	; i3MetaTemplate<i3NetworkFTP>::`RTTI Class Hierarchy Descriptor'
PUBLIC	??_R2?$i3MetaTemplate@Vi3NetworkFTP@@@@8	; i3MetaTemplate<i3NetworkFTP>::`RTTI Base Class Array'
PUBLIC	??_R1A@?0A@EA@?$i3MetaTemplate@Vi3NetworkFTP@@@@8 ; i3MetaTemplate<i3NetworkFTP>::`RTTI Base Class Descriptor at (0,-1,0,64)'
PUBLIC	__Avx2WmemEnabledWeakValue
EXTRN	??_E?$i3MetaTemplate@Vi3NetworkFTP@@@@UAEPAXI@Z:PROC ; i3MetaTemplate<i3NetworkFTP>::`vector deleting destructor'
EXTRN	??_7type_info@@6B@:QWORD			; type_info::`vftable'
;	COMDAT __Avx2WmemEnabledWeakValue
_BSS	SEGMENT
__Avx2WmemEnabledWeakValue DD 01H DUP (?)
_BSS	ENDS
;	COMDAT ??_R1A@?0A@EA@?$i3MetaTemplate@Vi3NetworkFTP@@@@8
rdata$r	SEGMENT
??_R1A@?0A@EA@?$i3MetaTemplate@Vi3NetworkFTP@@@@8 DD FLAT:??_R0?AV?$i3MetaTemplate@Vi3NetworkFTP@@@@@8 ; i3MetaTemplate<i3NetworkFTP>::`RTTI Base Class Descriptor at (0,-1,0,64)'
	DD	01H
	DD	00H
	DD	0ffffffffH
	DD	00H
	DD	040H
	DD	FLAT:??_R3?$i3MetaTemplate@Vi3NetworkFTP@@@@8
rdata$r	ENDS
;	COMDAT ??_R2?$i3MetaTemplate@Vi3NetworkFTP@@@@8
rdata$r	SEGMENT
??_R2?$i3MetaTemplate@Vi3NetworkFTP@@@@8 DD FLAT:??_R1A@?0A@EA@?$i3MetaTemplate@Vi3NetworkFTP@@@@8 ; i3MetaTemplate<i3NetworkFTP>::`RTTI Base Class Array'
	DD	FLAT:??_R1A@?0A@EA@i3ClassMeta@@8
rdata$r	ENDS
;	COMDAT ??_R3?$i3MetaTemplate@Vi3NetworkFTP@@@@8
rdata$r	SEGMENT
??_R3?$i3MetaTemplate@Vi3NetworkFTP@@@@8 DD 00H		; i3MetaTemplate<i3NetworkFTP>::`RTTI Class Hierarchy Descriptor'
	DD	00H
	DD	02H
	DD	FLAT:??_R2?$i3MetaTemplate@Vi3NetworkFTP@@@@8
rdata$r	ENDS
;	COMDAT ??_R0?AV?$i3MetaTemplate@Vi3NetworkFTP@@@@@8
data$rs	SEGMENT
??_R0?AV?$i3MetaTemplate@Vi3NetworkFTP@@@@@8 DD FLAT:??_7type_info@@6B@ ; i3MetaTemplate<i3NetworkFTP> `RTTI Type Descriptor'
	DD	00H
	DB	'.?AV?$i3MetaTemplate@Vi3NetworkFTP@@@@', 00H
data$rs	ENDS
;	COMDAT ??_R4?$i3MetaTemplate@Vi3NetworkFTP@@@@6B@
rdata$r	SEGMENT
??_R4?$i3MetaTemplate@Vi3NetworkFTP@@@@6B@ DD 00H	; i3MetaTemplate<i3NetworkFTP>::`RTTI Complete Object Locator'
	DD	00H
	DD	00H
	DD	FLAT:??_R0?AV?$i3MetaTemplate@Vi3NetworkFTP@@@@@8
	DD	FLAT:??_R3?$i3MetaTemplate@Vi3NetworkFTP@@@@8
rdata$r	ENDS
;	COMDAT ??_R1A@?0A@EA@i3ClassMeta@@8
rdata$r	SEGMENT
??_R1A@?0A@EA@i3ClassMeta@@8 DD FLAT:??_R0?AVi3ClassMeta@@@8 ; i3ClassMeta::`RTTI Base Class Descriptor at (0,-1,0,64)'
	DD	00H
	DD	00H
	DD	0ffffffffH
	DD	00H
	DD	040H
	DD	FLAT:??_R3i3ClassMeta@@8
rdata$r	ENDS
;	COMDAT ??_R2i3ClassMeta@@8
rdata$r	SEGMENT
??_R2i3ClassMeta@@8 DD FLAT:??_R1A@?0A@EA@i3ClassMeta@@8 ; i3ClassMeta::`RTTI Base Class Array'
rdata$r	ENDS
;	COMDAT ??_R3i3ClassMeta@@8
rdata$r	SEGMENT
??_R3i3ClassMeta@@8 DD 00H				; i3ClassMeta::`RTTI Class Hierarchy Descriptor'
	DD	00H
	DD	01H
	DD	FLAT:??_R2i3ClassMeta@@8
rdata$r	ENDS
;	COMDAT ??_R0?AVi3ClassMeta@@@8
data$rs	SEGMENT
??_R0?AVi3ClassMeta@@@8 DD FLAT:??_7type_info@@6B@	; i3ClassMeta `RTTI Type Descriptor'
	DD	00H
	DB	'.?AVi3ClassMeta@@', 00H
data$rs	ENDS
;	COMDAT ??_C@_0N@BIPHHAPB@i3NetworkFTP@
CONST	SEGMENT
??_C@_0N@BIPHHAPB@i3NetworkFTP@ DB 'i3NetworkFTP', 00H	; `string'
CONST	ENDS
;	COMDAT ??_C@_0O@OCDFBOHM@i3ElementBase@
CONST	SEGMENT
??_C@_0O@OCDFBOHM@i3ElementBase@ DB 'i3ElementBase', 00H ; `string'
CONST	ENDS
;	COMDAT ??_7?$i3MetaTemplate@Vi3NetworkFTP@@@@6B@
CONST	SEGMENT
??_7?$i3MetaTemplate@Vi3NetworkFTP@@@@6B@ DD FLAT:??_R4?$i3MetaTemplate@Vi3NetworkFTP@@@@6B@ ; i3MetaTemplate<i3NetworkFTP>::`vftable'
	DD	FLAT:??_E?$i3MetaTemplate@Vi3NetworkFTP@@@@UAEPAXI@Z
	DD	FLAT:?CreateInstance@?$i3MetaTemplate@Vi3NetworkFTP@@@@UAEPAVi3ElementBase@@W4I3_CLASSMETA_TYPE@@@Z
	DD	FLAT:?BindInstance@?$i3MetaTemplate@Vi3NetworkFTP@@@@UAEPAVi3ElementBase@@PAXW4I3_CLASSMETA_TYPE@@@Z
CONST	ENDS
_DATA	SEGMENT
?s_pClassMetai3NetworkFTP@i3NetworkFTP@@2PAVi3ClassMeta@@A DD FLAT:?s_ClassMetai3NetworkFTP@@3V?$i3MetaTemplate@Vi3NetworkFTP@@@@A ; i3NetworkFTP::s_pClassMetai3NetworkFTP
_DATA	ENDS
PUBLIC	?__empty_global_delete@@YAXPAX@Z		; __empty_global_delete
PUBLIC	?__global_delete@@YAXPAX@Z			; __global_delete
PUBLIC	?__empty_global_delete@@YAXPAXI@Z		; __empty_global_delete
PUBLIC	?__global_delete@@YAXPAXI@Z			; __global_delete
PUBLIC	?__global_array_delete@@YAXPAX@Z		; __global_array_delete
PUBLIC	?__global_array_delete@@YAXPAXI@Z		; __global_array_delete
PUBLIC	___local_stdio_printf_options
PUBLIC	_sprintf
PUBLIC	?GetMemoryPool@i3ClassMeta@@QAEPAVi3MemoryPool@@XZ ; i3ClassMeta::GetMemoryPool
PUBLIC	?SetMemoryPool@i3ClassMeta@@QAEXPAVi3MemoryPool@@@Z ; i3ClassMeta::SetMemoryPool
PUBLIC	?GetClassSize@i3ClassMeta@@QAEIXZ		; i3ClassMeta::GetClassSize
PUBLIC	?GetClassNameA@i3ClassMeta@@QAEPADXZ		; i3ClassMeta::GetClassNameA
PUBLIC	?IsExactTypeOf@i3ClassMeta@@QAE_NPAV1@@Z	; i3ClassMeta::IsExactTypeOf
PUBLIC	?SetStyle@i3ClassMeta@@QAEXI@Z			; i3ClassMeta::SetStyle
PUBLIC	?GetStyle@i3ClassMeta@@QAEIXZ			; i3ClassMeta::GetStyle
PUBLIC	?AddStyle@i3ClassMeta@@QAEXI@Z			; i3ClassMeta::AddStyle
PUBLIC	?RemoveStyle@i3ClassMeta@@QAEXI@Z		; i3ClassMeta::RemoveStyle
PUBLIC	?IsStyle@i3ClassMeta@@QAEHI@Z			; i3ClassMeta::IsStyle
PUBLIC	?IsAbstractClass@i3ClassMeta@@QAEHXZ		; i3ClassMeta::IsAbstractClass
PUBLIC	?IsConcreteClass@i3ClassMeta@@QAEHXZ		; i3ClassMeta::IsConcreteClass
PUBLIC	?GetBaseClassMeta@i3ClassMeta@@QAEPAV1@XZ	; i3ClassMeta::GetBaseClassMeta
PUBLIC	?getHashCode@i3ClassMeta@@QAEIXZ		; i3ClassMeta::getHashCode
PUBLIC	??0i3ClassMeta@@QAE@ABV0@@Z			; i3ClassMeta::i3ClassMeta
PUBLIC	??4i3ClassMeta@@QAEAAV0@ABV0@@Z			; i3ClassMeta::operator=
PUBLIC	??_Gi3ClassMeta@@UAEPAXI@Z			; i3ClassMeta::`scalar deleting destructor'
PUBLIC	??_Ei3ClassMeta@@UAEPAXI@Z			; i3ClassMeta::`vector deleting destructor'
PUBLIC	?GetClassMeta@i3ElementBase@@SAPAVi3ClassMeta@@XZ ; i3ElementBase::GetClassMeta
PUBLIC	?GetRefCount@i3ElementBase@@QAEHXZ		; i3ElementBase::GetRefCount
PUBLIC	?__SetMemoryPool@i3ElementBase@@QAEXPAVi3MemoryPool@@@Z ; i3ElementBase::__SetMemoryPool
PUBLIC	?__GetMemoryPool@i3ElementBase@@QAEPAVi3MemoryPool@@XZ ; i3ElementBase::__GetMemoryPool
PUBLIC	?IsExactTypeOf@i3ElementBase@@QAE_NPAVi3ClassMeta@@@Z ; i3ElementBase::IsExactTypeOf
PUBLIC	?IsTypeOf@i3ElementBase@@QAE_NPAVi3ClassMeta@@@Z ; i3ElementBase::IsTypeOf
PUBLIC	?AddRef@i3ElementBase@@QAEHXZ			; i3ElementBase::AddRef
PUBLIC	?_internal_SetRefCount@i3ElementBase@@QAEXH@Z	; i3ElementBase::_internal_SetRefCount
PUBLIC	??0i3ElementBase@@QAE@ABV0@@Z			; i3ElementBase::i3ElementBase
PUBLIC	??4i3ElementBase@@QAEAAV0@ABV0@@Z		; i3ElementBase::operator=
PUBLIC	??_Gi3ElementBase@@UAEPAXI@Z			; i3ElementBase::`scalar deleting destructor'
PUBLIC	??_Ei3ElementBase@@UAEPAXI@Z			; i3ElementBase::`vector deleting destructor'
PUBLIC	??0i3MemoryPool@@QAE@ABV0@@Z			; i3MemoryPool::i3MemoryPool
PUBLIC	??4i3MemoryPool@@QAEAAV0@ABV0@@Z		; i3MemoryPool::operator=
PUBLIC	??_Gi3MemoryPool@@UAEPAXI@Z			; i3MemoryPool::`scalar deleting destructor'
PUBLIC	??_Ei3MemoryPool@@UAEPAXI@Z			; i3MemoryPool::`vector deleting destructor'
PUBLIC	?GetClassMeta@i3NetworkFTP@@SAPAVi3ClassMeta@@XZ ; i3NetworkFTP::GetClassMeta
PUBLIC	?GetMeta@i3NetworkFTP@@UAEPAVi3ClassMeta@@XZ	; i3NetworkFTP::GetMeta
PUBLIC	?RegisterMeta@i3NetworkFTP@@SAXXZ		; i3NetworkFTP::RegisterMeta
PUBLIC	?SetConcreteClass@i3NetworkFTP@@SAXPAVi3ClassMeta@@@Z ; i3NetworkFTP::SetConcreteClass
PUBLIC	?SetGhostClass@i3NetworkFTP@@SAXPAVi3ClassMeta@@@Z ; i3NetworkFTP::SetGhostClass
PUBLIC	?_NewObject@i3NetworkFTP@@SAPAV1@XZ		; i3NetworkFTP::_NewObject
PUBLIC	?_NewObjectRef@i3NetworkFTP@@SAPAV1@XZ		; i3NetworkFTP::_NewObjectRef
PUBLIC	?_BindObject@i3NetworkFTP@@SAPAV1@PAX@Z		; i3NetworkFTP::_BindObject
PUBLIC	?_BindObjectRef@i3NetworkFTP@@SAPAV1@PAX@Z	; i3NetworkFTP::_BindObjectRef
PUBLIC	?_NewObjectByType@i3NetworkFTP@@SAPAV1@W4I3_CLASSMETA_TYPE@@@Z ; i3NetworkFTP::_NewObjectByType
PUBLIC	?_NewObjectRefByType@i3NetworkFTP@@SAPAV1@W4I3_CLASSMETA_TYPE@@@Z ; i3NetworkFTP::_NewObjectRefByType
PUBLIC	?_BindObjectByType@i3NetworkFTP@@SAPAV1@PAXW4I3_CLASSMETA_TYPE@@@Z ; i3NetworkFTP::_BindObjectByType
PUBLIC	?_BindObjectRefByType@i3NetworkFTP@@SAPAV1@PAXW4I3_CLASSMETA_TYPE@@@Z ; i3NetworkFTP::_BindObjectRefByType
PUBLIC	?getFlags@i3NetworkFTP@@QAEIXZ			; i3NetworkFTP::getFlags
PUBLIC	?setFlags@i3NetworkFTP@@QAEXI@Z			; i3NetworkFTP::setFlags
PUBLIC	?addFlags@i3NetworkFTP@@QAEXI@Z			; i3NetworkFTP::addFlags
PUBLIC	?removeFlags@i3NetworkFTP@@QAEXI@Z		; i3NetworkFTP::removeFlags
PUBLIC	?getAddress@i3NetworkFTP@@QAEPADXZ		; i3NetworkFTP::getAddress
PUBLIC	?setAddress@i3NetworkFTP@@QAEXPAD@Z		; i3NetworkFTP::setAddress
PUBLIC	?getPort@i3NetworkFTP@@QAEGXZ			; i3NetworkFTP::getPort
PUBLIC	?setPort@i3NetworkFTP@@QAEXG@Z			; i3NetworkFTP::setPort
PUBLIC	?getUserID@i3NetworkFTP@@QAEPADXZ		; i3NetworkFTP::getUserID
PUBLIC	?setUserID@i3NetworkFTP@@QAEXPAD@Z		; i3NetworkFTP::setUserID
PUBLIC	?getUserPass@i3NetworkFTP@@QAEPADXZ		; i3NetworkFTP::getUserPass
PUBLIC	?setUserPass@i3NetworkFTP@@QAEXPAD@Z		; i3NetworkFTP::setUserPass
PUBLIC	?getLog@i3NetworkFTP@@QAEPADXZ			; i3NetworkFTP::getLog
PUBLIC	?CheckDirectory@i3NetworkFTP@@QAEHPBD@Z		; i3NetworkFTP::CheckDirectory
PUBLIC	?CheckRemoteDir@i3NetworkFTP@@QAEHPAXPBD@Z	; i3NetworkFTP::CheckRemoteDir
PUBLIC	?ConvertInternetDir@i3NetworkFTP@@QAEXPADH@Z	; i3NetworkFTP::ConvertInternetDir
PUBLIC	??0i3NetworkFTP@@QAE@XZ				; i3NetworkFTP::i3NetworkFTP
PUBLIC	??1i3NetworkFTP@@UAE@XZ				; i3NetworkFTP::~i3NetworkFTP
PUBLIC	?Create@i3NetworkFTP@@QAEHPADH00I@Z		; i3NetworkFTP::Create
PUBLIC	?Connect@i3NetworkFTP@@QAEHXZ			; i3NetworkFTP::Connect
PUBLIC	?DisConnect@i3NetworkFTP@@QAEHXZ		; i3NetworkFTP::DisConnect
PUBLIC	?DownLoadFile@i3NetworkFTP@@QAEHPAD@Z		; i3NetworkFTP::DownLoadFile
PUBLIC	?DownLoadFile@i3NetworkFTP@@QAEHPAD0@Z		; i3NetworkFTP::DownLoadFile
PUBLIC	?DownLoadFile2@i3NetworkFTP@@QAEHPAD@Z		; i3NetworkFTP::DownLoadFile2
PUBLIC	?UploadFile@i3NetworkFTP@@QAEHPBD@Z		; i3NetworkFTP::UploadFile
PUBLIC	?UploadFile@i3NetworkFTP@@QAEHPBD0@Z		; i3NetworkFTP::UploadFile
PUBLIC	?UploadFile2@i3NetworkFTP@@QAEHPBD@Z		; i3NetworkFTP::UploadFile2
PUBLIC	?UploadFile2@i3NetworkFTP@@QAEHPBD0@Z		; i3NetworkFTP::UploadFile2
PUBLIC	?CheckFile@i3NetworkFTP@@QAEHPBD@Z		; i3NetworkFTP::CheckFile
PUBLIC	?DeleteFileA@i3NetworkFTP@@QAEHPBD@Z		; i3NetworkFTP::DeleteFileA
PUBLIC	?OnDownLoad@i3NetworkFTP@@UAEXXZ		; i3NetworkFTP::OnDownLoad
PUBLIC	?OnUpLoad@i3NetworkFTP@@UAEXXZ			; i3NetworkFTP::OnUpLoad
PUBLIC	??0i3NetworkFTP@@QAE@ABV0@@Z			; i3NetworkFTP::i3NetworkFTP
PUBLIC	??4i3NetworkFTP@@QAEAAV0@ABV0@@Z		; i3NetworkFTP::operator=
PUBLIC	??_Gi3NetworkFTP@@UAEPAXI@Z			; i3NetworkFTP::`scalar deleting destructor'
PUBLIC	??_Ei3NetworkFTP@@UAEPAXI@Z			; i3NetworkFTP::`vector deleting destructor'
PUBLIC	?GetClassMeta@i3Stream@@SAPAVi3ClassMeta@@XZ	; i3Stream::GetClassMeta
PUBLIC	?GetSize@i3Stream@@QAEIXZ			; i3Stream::GetSize
PUBLIC	?GetLastError@i3Stream@@QAE?AW4STREAMCODE@1@XZ	; i3Stream::GetLastError
PUBLIC	?GetAccessMode@i3Stream@@QAEHXZ			; i3Stream::GetAccessMode
PUBLIC	?GetHandle@i3Stream@@UAEPAXXZ			; i3Stream::GetHandle
PUBLIC	?BeginRecord@i3Stream@@QAEXXZ			; i3Stream::BeginRecord
PUBLIC	?GetRecordSize@i3Stream@@QAEIXZ			; i3Stream::GetRecordSize
PUBLIC	??0i3Stream@@QAE@ABV0@@Z			; i3Stream::i3Stream
PUBLIC	??4i3Stream@@QAEAAV0@ABV0@@Z			; i3Stream::operator=
PUBLIC	??_Gi3Stream@@UAEPAXI@Z				; i3Stream::`scalar deleting destructor'
PUBLIC	??_Ei3Stream@@UAEPAXI@Z				; i3Stream::`vector deleting destructor'
PUBLIC	?GetClassMeta@i3FileStream@@SAPAVi3ClassMeta@@XZ ; i3FileStream::GetClassMeta
PUBLIC	?GetHandle@i3FileStream@@UAEPAXXZ		; i3FileStream::GetHandle
PUBLIC	?GetFileName@i3FileStream@@QAEPADXZ		; i3FileStream::GetFileName
PUBLIC	?SetCaseSensitive@i3FileStream@@SAXH@Z		; i3FileStream::SetCaseSensitive
PUBLIC	?IsCaseSensitive@i3FileStream@@SAHXZ		; i3FileStream::IsCaseSensitive
PUBLIC	??0i3FileStream@@QAE@ABV0@@Z			; i3FileStream::i3FileStream
PUBLIC	??4i3FileStream@@QAEAAV0@ABV0@@Z		; i3FileStream::operator=
PUBLIC	??_Gi3FileStream@@UAEPAXI@Z			; i3FileStream::`scalar deleting destructor'
PUBLIC	??_Ei3FileStream@@UAEPAXI@Z			; i3FileStream::`vector deleting destructor'
PUBLIC	??0?$i3MetaTemplate@Vi3NetworkFTP@@@@QAE@IPAD0W4I3_CLASSMETA_TYPE@@@Z ; i3MetaTemplate<i3NetworkFTP>::i3MetaTemplate<i3NetworkFTP>
PUBLIC	?_OptionsStorage@?1??__local_stdio_printf_options@@9@4_KA ; `__local_stdio_printf_options'::`2'::_OptionsStorage
PUBLIC	??_7i3ClassMeta@@6B@				; i3ClassMeta::`vftable'
PUBLIC	??_7i3ElementBase@@6B@				; i3ElementBase::`vftable'
PUBLIC	??_7i3MemoryPool@@6B@				; i3MemoryPool::`vftable'
PUBLIC	??_7i3NetworkFTP@@6B@				; i3NetworkFTP::`vftable'
PUBLIC	??_7i3Stream@@6B@				; i3Stream::`vftable'
PUBLIC	??_7i3FileStream@@6B@				; i3FileStream::`vftable'
PUBLIC	??_C@_09BMFBKPHA@anonymous@			; `string'
PUBLIC	??_C@_00CNPNBAHC@@				; `string'
PUBLIC	??_C@_05OPJKBLHH@I3FTP@				; `string'
PUBLIC	??_C@_01KICIPPFI@?2@				; `string'
PUBLIC	??_C@_0BA@EPKFCIFN@Download?5?3?5?$CFs?6?5@	; `string'
PUBLIC	??_C@_05DIALNFFA@?$CFs?5?$CFd@			; `string'
PUBLIC	??_C@_0ED@NCKNCCJE@int?5__thiscall?5i3NetworkFTP?3?3Up@ ; `string'
PUBLIC	??_C@_0GH@IACFLGED@E?3?2Proyectos?2JuegosOnlineproyec@ ; `string'
PUBLIC	??_C@_0EA@FCLLKE@?$FLi3NetworkFTP?3?3UplodaFile?$FN?5?9?5er@ ; `string'
PUBLIC	??_C@_0EB@KDMBEODD@int?5__thiscall?5i3NetworkFTP?3?3Ch@ ; `string'
PUBLIC	??_C@_0CE@BPFKMALL@?$LI?$KO?$LI?p?F?$KO?5?F?z?$LE?u?$LI?$KG?5?$LL?$PN?$LM?$LK?G?O?A?v?5?$LI?x?G?$NP?$LN?$MA?$LE?O@ ; `string'
PUBLIC	??_R4i3ElementBase@@6B@				; i3ElementBase::`RTTI Complete Object Locator'
PUBLIC	??_R0?AVi3ElementBase@@@8			; i3ElementBase `RTTI Type Descriptor'
PUBLIC	??_R3i3ElementBase@@8				; i3ElementBase::`RTTI Class Hierarchy Descriptor'
PUBLIC	??_R2i3ElementBase@@8				; i3ElementBase::`RTTI Base Class Array'
PUBLIC	??_R1A@?0A@EA@i3ElementBase@@8			; i3ElementBase::`RTTI Base Class Descriptor at (0,-1,0,64)'
PUBLIC	??_R4i3MemoryPool@@6B@				; i3MemoryPool::`RTTI Complete Object Locator'
PUBLIC	??_R0?AVi3MemoryPool@@@8			; i3MemoryPool `RTTI Type Descriptor'
PUBLIC	??_R3i3MemoryPool@@8				; i3MemoryPool::`RTTI Class Hierarchy Descriptor'
PUBLIC	??_R2i3MemoryPool@@8				; i3MemoryPool::`RTTI Base Class Array'
PUBLIC	??_R1A@?0A@EA@i3MemoryPool@@8			; i3MemoryPool::`RTTI Base Class Descriptor at (0,-1,0,64)'
PUBLIC	??_R4i3ClassMeta@@6B@				; i3ClassMeta::`RTTI Complete Object Locator'
PUBLIC	??_R4i3NetworkFTP@@6B@				; i3NetworkFTP::`RTTI Complete Object Locator'
PUBLIC	??_R0?AVi3NetworkFTP@@@8			; i3NetworkFTP `RTTI Type Descriptor'
PUBLIC	??_R3i3NetworkFTP@@8				; i3NetworkFTP::`RTTI Class Hierarchy Descriptor'
PUBLIC	??_R2i3NetworkFTP@@8				; i3NetworkFTP::`RTTI Base Class Array'
PUBLIC	??_R1A@?0A@EA@i3NetworkFTP@@8			; i3NetworkFTP::`RTTI Base Class Descriptor at (0,-1,0,64)'
PUBLIC	??_R4i3Stream@@6B@				; i3Stream::`RTTI Complete Object Locator'
PUBLIC	??_R0?AVi3Stream@@@8				; i3Stream `RTTI Type Descriptor'
PUBLIC	??_R3i3Stream@@8				; i3Stream::`RTTI Class Hierarchy Descriptor'
PUBLIC	??_R2i3Stream@@8				; i3Stream::`RTTI Base Class Array'
PUBLIC	??_R1A@?0A@EA@i3Stream@@8			; i3Stream::`RTTI Base Class Descriptor at (0,-1,0,64)'
PUBLIC	??_R4i3FileStream@@6B@				; i3FileStream::`RTTI Complete Object Locator'
PUBLIC	??_R0?AVi3FileStream@@@8			; i3FileStream `RTTI Type Descriptor'
PUBLIC	??_R3i3FileStream@@8				; i3FileStream::`RTTI Class Hierarchy Descriptor'
PUBLIC	??_R2i3FileStream@@8				; i3FileStream::`RTTI Base Class Array'
PUBLIC	??_R1A@?0A@EA@i3FileStream@@8			; i3FileStream::`RTTI Base Class Descriptor at (0,-1,0,64)'
EXTRN	??_M@YGXPAXIIP6EX0@Z@Z:PROC			; `eh vector destructor iterator'
EXTRN	__purecall:PROC
EXTRN	??3@YAXPAX@Z:PROC				; operator delete
EXTRN	??3@YAXPAXI@Z:PROC				; operator delete
EXTRN	??_V@YAXPAX@Z:PROC				; operator delete[]
EXTRN	??_V@YAXPAXI@Z:PROC				; operator delete[]
EXTRN	_atexit:PROC
EXTRN	__imp__SetCurrentDirectoryA@4:PROC
EXTRN	__imp__GetCurrentDirectoryA@8:PROC
EXTRN	__imp__CreateDirectoryA@8:PROC
EXTRN	__imp__wsprintfA:PROC
EXTRN	___stdio_common_vsprintf:PROC
EXTRN	__splitpath:PROC
EXTRN	__imp__InternetOpenA@20:PROC
EXTRN	__imp__InternetCloseHandle@4:PROC
EXTRN	__imp__InternetConnectA@32:PROC
EXTRN	__imp__InternetReadFile@16:PROC
EXTRN	__imp__InternetWriteFile@16:PROC
EXTRN	__imp__FtpFindFirstFileA@20:PROC
EXTRN	__imp__FtpGetFileA@28:PROC
EXTRN	__imp__FtpDeleteFileA@8:PROC
EXTRN	__imp__FtpOpenFileA@20:PROC
EXTRN	__imp__FtpCreateDirectoryA@8:PROC
EXTRN	__imp__FtpSetCurrentDirectoryA@8:PROC
EXTRN	__imp__FtpGetCurrentDirectoryA@12:PROC
EXTRN	?SetEnv@i3Error@@YAXPBDH0W4I3LOG_TYPE@@@Z:PROC	; i3Error::SetEnv
EXTRN	?Log@i3Error@@YAXPBDZZ:PROC			; i3Error::Log
EXTRN	??0i3ClassMeta@@QAE@IPAD0W4I3_CLASSMETA_TYPE@@@Z:PROC ; i3ClassMeta::i3ClassMeta
EXTRN	??1i3ClassMeta@@UAE@XZ:PROC			; i3ClassMeta::~i3ClassMeta
EXTRN	?CreateInstance@i3ClassMeta@@UAEPAVi3ElementBase@@W4I3_CLASSMETA_TYPE@@@Z:PROC ; i3ClassMeta::CreateInstance
EXTRN	?BindInstance@i3ClassMeta@@UAEPAVi3ElementBase@@PAXW4I3_CLASSMETA_TYPE@@@Z:PROC ; i3ClassMeta::BindInstance
EXTRN	?IsTypeOf@i3ClassMeta@@QAE_NPAV1@@Z:PROC	; i3ClassMeta::IsTypeOf
EXTRN	?Register@i3ClassMeta@@QAEXXZ:PROC		; i3ClassMeta::Register
EXTRN	?GetConcreteClass@i3ClassMeta@@QAEPAV1@W4I3_CLASSMETA_TYPE@@@Z:PROC ; i3ClassMeta::GetConcreteClass
EXTRN	?SetConcreteClass@i3ClassMeta@@QAEXPAV1@@Z:PROC	; i3ClassMeta::SetConcreteClass
EXTRN	?SetGhostClass@i3ClassMeta@@QAEXPAV1@@Z:PROC	; i3ClassMeta::SetGhostClass
EXTRN	?GetMeta@i3ElementBase@@UAEPAVi3ClassMeta@@XZ:PROC ; i3ElementBase::GetMeta
EXTRN	??0i3ElementBase@@QAE@XZ:PROC			; i3ElementBase::i3ElementBase
EXTRN	??1i3ElementBase@@UAE@XZ:PROC			; i3ElementBase::~i3ElementBase
EXTRN	??2i3ElementBase@@SAPAXI@Z:PROC			; i3ElementBase::operator new
EXTRN	??2i3ElementBase@@SAPAXIPAX@Z:PROC		; i3ElementBase::operator new
EXTRN	??3i3ElementBase@@SAXPAX@Z:PROC			; i3ElementBase::operator delete
EXTRN	??3i3ElementBase@@SAXPAX0@Z:PROC		; i3ElementBase::operator delete
EXTRN	?CopyTo@i3ElementBase@@UAEXPAV1@W4I3_COPY_METHOD@@@Z:PROC ; i3ElementBase::CopyTo
EXTRN	??1i3MemoryPool@@UAE@XZ:PROC			; i3MemoryPool::~i3MemoryPool
EXTRN	?Copy@i3String@@YAXPADPBDH@Z:PROC		; i3String::Copy
EXTRN	?Length@i3String@@YAHPBD@Z:PROC			; i3String::Length
EXTRN	?GetMeta@i3Stream@@UAEPAVi3ClassMeta@@XZ:PROC	; i3Stream::GetMeta
EXTRN	??1i3Stream@@UAE@XZ:PROC			; i3Stream::~i3Stream
EXTRN	?CopyTo@i3Stream@@UAEIPAV1@I@Z:PROC		; i3Stream::CopyTo
EXTRN	?CopyFrom@i3Stream@@UAEIPAV1@I@Z:PROC		; i3Stream::CopyFrom
EXTRN	?ReadLine@i3Stream@@UAEIPADH@Z:PROC		; i3Stream::ReadLine
EXTRN	?ReadLineW@i3Stream@@UAEIPAGH@Z:PROC		; i3Stream::ReadLineW
EXTRN	?WriteLine@i3Stream@@UAEIPBD@Z:PROC		; i3Stream::WriteLine
EXTRN	?WriteLineW@i3Stream@@UAEIPBG@Z:PROC		; i3Stream::WriteLineW
EXTRN	?Printf@i3Stream@@UAAIPADPBDZZ:PROC		; i3Stream::Printf
EXTRN	?GetMeta@i3FileStream@@UAEPAVi3ClassMeta@@XZ:PROC ; i3FileStream::GetMeta
EXTRN	??0i3FileStream@@QAE@XZ:PROC			; i3FileStream::i3FileStream
EXTRN	??1i3FileStream@@UAE@XZ:PROC			; i3FileStream::~i3FileStream
EXTRN	?Create@i3FileStream@@UAEHPBDHI@Z:PROC		; i3FileStream::Create
EXTRN	?Open@i3FileStream@@UAEHPBDHI@Z:PROC		; i3FileStream::Open
EXTRN	?Close@i3FileStream@@UAEHXZ:PROC		; i3FileStream::Close
EXTRN	?Read@i3FileStream@@UAEIPAXH@Z:PROC		; i3FileStream::Read
EXTRN	?Write@i3FileStream@@UAEIPBXH@Z:PROC		; i3FileStream::Write
EXTRN	?SetPosition@i3FileStream@@UAEIHH@Z:PROC	; i3FileStream::SetPosition
EXTRN	?GetPosition@i3FileStream@@UAEIXZ:PROC		; i3FileStream::GetPosition
EXTRN	@__security_check_cookie@4:PROC
EXTRN	___CxxFrameHandler3:PROC
EXTRN	__chkstk:PROC
EXTRN	_memcpy:PROC
EXTRN	_memset:PROC
EXTRN	?s_pClassMetai3ElementBase@i3ElementBase@@2PAVi3ClassMeta@@A:DWORD ; i3ElementBase::s_pClassMetai3ElementBase
EXTRN	?s_pClassMetai3Stream@i3Stream@@2PAVi3ClassMeta@@A:DWORD ; i3Stream::s_pClassMetai3Stream
EXTRN	?s_pClassMetai3FileStream@i3FileStream@@2PAVi3ClassMeta@@A:DWORD ; i3FileStream::s_pClassMetai3FileStream
EXTRN	?m_bCaseSensitive@i3FileStream@@1HA:DWORD	; i3FileStream::m_bCaseSensitive
EXTRN	___security_cookie:DWORD
;	COMDAT ?_OptionsStorage@?1??__local_stdio_printf_options@@9@4_KA
_BSS	SEGMENT
?_OptionsStorage@?1??__local_stdio_printf_options@@9@4_KA DQ 01H DUP (?) ; `__local_stdio_printf_options'::`2'::_OptionsStorage
_BSS	ENDS
_BSS	SEGMENT
?s_ClassMetai3NetworkFTP@@3V?$i3MetaTemplate@Vi3NetworkFTP@@@@A DB 038H DUP (?) ; s_ClassMetai3NetworkFTP
_BSS	ENDS
CRT$XCU	SEGMENT
?s_ClassMetai3NetworkFTP$initializer$@@3P6AXXZA DD FLAT:??__Es_ClassMetai3NetworkFTP@@YAXXZ ; s_ClassMetai3NetworkFTP$initializer$
CRT$XCU	ENDS
;	COMDAT ??_R1A@?0A@EA@i3FileStream@@8
rdata$r	SEGMENT
??_R1A@?0A@EA@i3FileStream@@8 DD FLAT:??_R0?AVi3FileStream@@@8 ; i3FileStream::`RTTI Base Class Descriptor at (0,-1,0,64)'
	DD	02H
	DD	00H
	DD	0ffffffffH
	DD	00H
	DD	040H
	DD	FLAT:??_R3i3FileStream@@8
rdata$r	ENDS
;	COMDAT ??_R2i3FileStream@@8
rdata$r	SEGMENT
??_R2i3FileStream@@8 DD FLAT:??_R1A@?0A@EA@i3FileStream@@8 ; i3FileStream::`RTTI Base Class Array'
	DD	FLAT:??_R1A@?0A@EA@i3Stream@@8
	DD	FLAT:??_R1A@?0A@EA@i3ElementBase@@8
rdata$r	ENDS
;	COMDAT ??_R3i3FileStream@@8
rdata$r	SEGMENT
??_R3i3FileStream@@8 DD 00H				; i3FileStream::`RTTI Class Hierarchy Descriptor'
	DD	00H
	DD	03H
	DD	FLAT:??_R2i3FileStream@@8
rdata$r	ENDS
;	COMDAT ??_R0?AVi3FileStream@@@8
data$rs	SEGMENT
??_R0?AVi3FileStream@@@8 DD FLAT:??_7type_info@@6B@	; i3FileStream `RTTI Type Descriptor'
	DD	00H
	DB	'.?AVi3FileStream@@', 00H
data$rs	ENDS
;	COMDAT ??_R4i3FileStream@@6B@
rdata$r	SEGMENT
??_R4i3FileStream@@6B@ DD 00H				; i3FileStream::`RTTI Complete Object Locator'
	DD	00H
	DD	00H
	DD	FLAT:??_R0?AVi3FileStream@@@8
	DD	FLAT:??_R3i3FileStream@@8
rdata$r	ENDS
;	COMDAT ??_R1A@?0A@EA@i3Stream@@8
rdata$r	SEGMENT
??_R1A@?0A@EA@i3Stream@@8 DD FLAT:??_R0?AVi3Stream@@@8	; i3Stream::`RTTI Base Class Descriptor at (0,-1,0,64)'
	DD	01H
	DD	00H
	DD	0ffffffffH
	DD	00H
	DD	040H
	DD	FLAT:??_R3i3Stream@@8
rdata$r	ENDS
;	COMDAT ??_R2i3Stream@@8
rdata$r	SEGMENT
??_R2i3Stream@@8 DD FLAT:??_R1A@?0A@EA@i3Stream@@8	; i3Stream::`RTTI Base Class Array'
	DD	FLAT:??_R1A@?0A@EA@i3ElementBase@@8
rdata$r	ENDS
;	COMDAT ??_R3i3Stream@@8
rdata$r	SEGMENT
??_R3i3Stream@@8 DD 00H					; i3Stream::`RTTI Class Hierarchy Descriptor'
	DD	00H
	DD	02H
	DD	FLAT:??_R2i3Stream@@8
rdata$r	ENDS
;	COMDAT ??_R0?AVi3Stream@@@8
data$rs	SEGMENT
??_R0?AVi3Stream@@@8 DD FLAT:??_7type_info@@6B@		; i3Stream `RTTI Type Descriptor'
	DD	00H
	DB	'.?AVi3Stream@@', 00H
data$rs	ENDS
;	COMDAT ??_R4i3Stream@@6B@
rdata$r	SEGMENT
??_R4i3Stream@@6B@ DD 00H				; i3Stream::`RTTI Complete Object Locator'
	DD	00H
	DD	00H
	DD	FLAT:??_R0?AVi3Stream@@@8
	DD	FLAT:??_R3i3Stream@@8
rdata$r	ENDS
;	COMDAT ??_R1A@?0A@EA@i3NetworkFTP@@8
rdata$r	SEGMENT
??_R1A@?0A@EA@i3NetworkFTP@@8 DD FLAT:??_R0?AVi3NetworkFTP@@@8 ; i3NetworkFTP::`RTTI Base Class Descriptor at (0,-1,0,64)'
	DD	01H
	DD	00H
	DD	0ffffffffH
	DD	00H
	DD	040H
	DD	FLAT:??_R3i3NetworkFTP@@8
rdata$r	ENDS
;	COMDAT ??_R2i3NetworkFTP@@8
rdata$r	SEGMENT
??_R2i3NetworkFTP@@8 DD FLAT:??_R1A@?0A@EA@i3NetworkFTP@@8 ; i3NetworkFTP::`RTTI Base Class Array'
	DD	FLAT:??_R1A@?0A@EA@i3ElementBase@@8
rdata$r	ENDS
;	COMDAT ??_R3i3NetworkFTP@@8
rdata$r	SEGMENT
??_R3i3NetworkFTP@@8 DD 00H				; i3NetworkFTP::`RTTI Class Hierarchy Descriptor'
	DD	00H
	DD	02H
	DD	FLAT:??_R2i3NetworkFTP@@8
rdata$r	ENDS
;	COMDAT ??_R0?AVi3NetworkFTP@@@8
data$rs	SEGMENT
??_R0?AVi3NetworkFTP@@@8 DD FLAT:??_7type_info@@6B@	; i3NetworkFTP `RTTI Type Descriptor'
	DD	00H
	DB	'.?AVi3NetworkFTP@@', 00H
data$rs	ENDS
;	COMDAT ??_R4i3NetworkFTP@@6B@
rdata$r	SEGMENT
??_R4i3NetworkFTP@@6B@ DD 00H				; i3NetworkFTP::`RTTI Complete Object Locator'
	DD	00H
	DD	00H
	DD	FLAT:??_R0?AVi3NetworkFTP@@@8
	DD	FLAT:??_R3i3NetworkFTP@@8
rdata$r	ENDS
;	COMDAT ??_R4i3ClassMeta@@6B@
rdata$r	SEGMENT
??_R4i3ClassMeta@@6B@ DD 00H				; i3ClassMeta::`RTTI Complete Object Locator'
	DD	00H
	DD	00H
	DD	FLAT:??_R0?AVi3ClassMeta@@@8
	DD	FLAT:??_R3i3ClassMeta@@8
rdata$r	ENDS
;	COMDAT ??_R1A@?0A@EA@i3MemoryPool@@8
rdata$r	SEGMENT
??_R1A@?0A@EA@i3MemoryPool@@8 DD FLAT:??_R0?AVi3MemoryPool@@@8 ; i3MemoryPool::`RTTI Base Class Descriptor at (0,-1,0,64)'
	DD	00H
	DD	00H
	DD	0ffffffffH
	DD	00H
	DD	040H
	DD	FLAT:??_R3i3MemoryPool@@8
rdata$r	ENDS
;	COMDAT ??_R2i3MemoryPool@@8
rdata$r	SEGMENT
??_R2i3MemoryPool@@8 DD FLAT:??_R1A@?0A@EA@i3MemoryPool@@8 ; i3MemoryPool::`RTTI Base Class Array'
rdata$r	ENDS
;	COMDAT ??_R3i3MemoryPool@@8
rdata$r	SEGMENT
??_R3i3MemoryPool@@8 DD 00H				; i3MemoryPool::`RTTI Class Hierarchy Descriptor'
	DD	00H
	DD	01H
	DD	FLAT:??_R2i3MemoryPool@@8
rdata$r	ENDS
;	COMDAT ??_R0?AVi3MemoryPool@@@8
data$rs	SEGMENT
??_R0?AVi3MemoryPool@@@8 DD FLAT:??_7type_info@@6B@	; i3MemoryPool `RTTI Type Descriptor'
	DD	00H
	DB	'.?AVi3MemoryPool@@', 00H
data$rs	ENDS
;	COMDAT ??_R4i3MemoryPool@@6B@
rdata$r	SEGMENT
??_R4i3MemoryPool@@6B@ DD 00H				; i3MemoryPool::`RTTI Complete Object Locator'
	DD	00H
	DD	00H
	DD	FLAT:??_R0?AVi3MemoryPool@@@8
	DD	FLAT:??_R3i3MemoryPool@@8
rdata$r	ENDS
;	COMDAT ??_R1A@?0A@EA@i3ElementBase@@8
rdata$r	SEGMENT
??_R1A@?0A@EA@i3ElementBase@@8 DD FLAT:??_R0?AVi3ElementBase@@@8 ; i3ElementBase::`RTTI Base Class Descriptor at (0,-1,0,64)'
	DD	00H
	DD	00H
	DD	0ffffffffH
	DD	00H
	DD	040H
	DD	FLAT:??_R3i3ElementBase@@8
rdata$r	ENDS
;	COMDAT ??_R2i3ElementBase@@8
rdata$r	SEGMENT
??_R2i3ElementBase@@8 DD FLAT:??_R1A@?0A@EA@i3ElementBase@@8 ; i3ElementBase::`RTTI Base Class Array'
rdata$r	ENDS
;	COMDAT ??_R3i3ElementBase@@8
rdata$r	SEGMENT
??_R3i3ElementBase@@8 DD 00H				; i3ElementBase::`RTTI Class Hierarchy Descriptor'
	DD	00H
	DD	01H
	DD	FLAT:??_R2i3ElementBase@@8
rdata$r	ENDS
;	COMDAT ??_R0?AVi3ElementBase@@@8
data$rs	SEGMENT
??_R0?AVi3ElementBase@@@8 DD FLAT:??_7type_info@@6B@	; i3ElementBase `RTTI Type Descriptor'
	DD	00H
	DB	'.?AVi3ElementBase@@', 00H
data$rs	ENDS
;	COMDAT ??_R4i3ElementBase@@6B@
rdata$r	SEGMENT
??_R4i3ElementBase@@6B@ DD 00H				; i3ElementBase::`RTTI Complete Object Locator'
	DD	00H
	DD	00H
	DD	FLAT:??_R0?AVi3ElementBase@@@8
	DD	FLAT:??_R3i3ElementBase@@8
rdata$r	ENDS
;	COMDAT ??_C@_0CE@BPFKMALL@?$LI?$KO?$LI?p?F?$KO?5?F?z?$LE?u?$LI?$KG?5?$LL?$PN?$LM?$LK?G?O?A?v?5?$LI?x?G?$NP?$LN?$MA?$LE?O@
CONST	SEGMENT
??_C@_0CE@BPFKMALL@?$LI?$KO?$LI?p?F?$KO?5?F?z?$LE?u?$LI?$KG?5?$LL?$PN?$LM?$LK?G?O?A?v?5?$LI?x?G?$NP?$LN?$MA?$LE?O@ DB 0b8H
	DB	0aeH, 0b8H, 0f0H, 0c6H, 0aeH, ' ', 0c6H, 0faH, 0b4H, 0f5H, 0b8H
	DB	0a6H, ' ', 0bbH, 0fdH, 0bcH, 0baH, 0c7H, 0cfH, 0c1H, 0f6H, ' ', 0b8H
	DB	0f8H, 0c7H, 0dfH, 0bdH, 0c0H, 0b4H, 0cfH, 0b4H, 0d9H, '.', 0aH
	DB	00H						; `string'
CONST	ENDS
;	COMDAT ??_C@_0EB@KDMBEODD@int?5__thiscall?5i3NetworkFTP?3?3Ch@
CONST	SEGMENT
??_C@_0EB@KDMBEODD@int?5__thiscall?5i3NetworkFTP?3?3Ch@ DB 'int __thiscal'
	DB	'l i3NetworkFTP::CheckRemoteDir(void *,const char *)', 00H ; `string'
CONST	ENDS
;	COMDAT ??_C@_0EA@FCLLKE@?$FLi3NetworkFTP?3?3UplodaFile?$FN?5?9?5er@
CONST	SEGMENT
??_C@_0EA@FCLLKE@?$FLi3NetworkFTP?3?3UplodaFile?$FN?5?9?5er@ DB '[i3Netwo'
	DB	'rkFTP::UplodaFile] - error set current directory fail.', 0aH, 00H ; `string'
CONST	ENDS
;	COMDAT ??_C@_0GH@IACFLGED@E?3?2Proyectos?2JuegosOnlineproyec@
CONST	SEGMENT
??_C@_0GH@IACFLGED@E?3?2Proyectos?2JuegosOnlineproyec@ DB 'E:\Proyectos\J'
	DB	'uegosOnlineproyectos\PB\pbblow\Piercing Blow Remake\i3Server\'
	DB	'src\i3Base\i3NetworkFTP.cpp', 00H		; `string'
CONST	ENDS
;	COMDAT ??_C@_0ED@NCKNCCJE@int?5__thiscall?5i3NetworkFTP?3?3Up@
CONST	SEGMENT
??_C@_0ED@NCKNCCJE@int?5__thiscall?5i3NetworkFTP?3?3Up@ DB 'int __thiscal'
	DB	'l i3NetworkFTP::UploadFile(const char *,const char *)', 00H ; `string'
CONST	ENDS
;	COMDAT ??_C@_05DIALNFFA@?$CFs?5?$CFd@
CONST	SEGMENT
??_C@_05DIALNFFA@?$CFs?5?$CFd@ DB '%s %d', 00H		; `string'
CONST	ENDS
;	COMDAT ??_C@_0BA@EPKFCIFN@Download?5?3?5?$CFs?6?5@
CONST	SEGMENT
??_C@_0BA@EPKFCIFN@Download?5?3?5?$CFs?6?5@ DB 'Download : %s', 0aH, ' ', 00H ; `string'
CONST	ENDS
;	COMDAT ??_C@_01KICIPPFI@?2@
CONST	SEGMENT
??_C@_01KICIPPFI@?2@ DB '\', 00H			; `string'
CONST	ENDS
;	COMDAT ??_C@_05OPJKBLHH@I3FTP@
CONST	SEGMENT
??_C@_05OPJKBLHH@I3FTP@ DB 'I3FTP', 00H			; `string'
CONST	ENDS
;	COMDAT ??_C@_00CNPNBAHC@@
CONST	SEGMENT
??_C@_00CNPNBAHC@@ DB 00H				; `string'
CONST	ENDS
;	COMDAT ??_C@_09BMFBKPHA@anonymous@
CONST	SEGMENT
??_C@_09BMFBKPHA@anonymous@ DB 'anonymous', 00H		; `string'
CONST	ENDS
;	COMDAT ??_7i3FileStream@@6B@
CONST	SEGMENT
??_7i3FileStream@@6B@ DD FLAT:??_R4i3FileStream@@6B@	; i3FileStream::`vftable'
	DD	FLAT:?GetMeta@i3FileStream@@UAEPAVi3ClassMeta@@XZ
	DD	FLAT:??_Ei3FileStream@@UAEPAXI@Z
	DD	FLAT:?CopyTo@i3ElementBase@@UAEXPAV1@W4I3_COPY_METHOD@@@Z
	DD	FLAT:?GetHandle@i3FileStream@@UAEPAXXZ
	DD	FLAT:?Create@i3FileStream@@UAEHPBDHI@Z
	DD	FLAT:?Open@i3FileStream@@UAEHPBDHI@Z
	DD	FLAT:?Close@i3FileStream@@UAEHXZ
	DD	FLAT:?Read@i3FileStream@@UAEIPAXH@Z
	DD	FLAT:?CopyTo@i3Stream@@UAEIPAV1@I@Z
	DD	FLAT:?Write@i3FileStream@@UAEIPBXH@Z
	DD	FLAT:?CopyFrom@i3Stream@@UAEIPAV1@I@Z
	DD	FLAT:?SetPosition@i3FileStream@@UAEIHH@Z
	DD	FLAT:?GetPosition@i3FileStream@@UAEIXZ
	DD	FLAT:?ReadLine@i3Stream@@UAEIPADH@Z
	DD	FLAT:?ReadLineW@i3Stream@@UAEIPAGH@Z
	DD	FLAT:?WriteLine@i3Stream@@UAEIPBD@Z
	DD	FLAT:?WriteLineW@i3Stream@@UAEIPBG@Z
	DD	FLAT:?Printf@i3Stream@@UAAIPADPBDZZ
CONST	ENDS
;	COMDAT ??_7i3Stream@@6B@
CONST	SEGMENT
??_7i3Stream@@6B@ DD FLAT:??_R4i3Stream@@6B@		; i3Stream::`vftable'
	DD	FLAT:?GetMeta@i3Stream@@UAEPAVi3ClassMeta@@XZ
	DD	FLAT:??_Ei3Stream@@UAEPAXI@Z
	DD	FLAT:?CopyTo@i3ElementBase@@UAEXPAV1@W4I3_COPY_METHOD@@@Z
	DD	FLAT:?GetHandle@i3Stream@@UAEPAXXZ
	DD	FLAT:__purecall
	DD	FLAT:__purecall
	DD	FLAT:__purecall
	DD	FLAT:__purecall
	DD	FLAT:?CopyTo@i3Stream@@UAEIPAV1@I@Z
	DD	FLAT:__purecall
	DD	FLAT:?CopyFrom@i3Stream@@UAEIPAV1@I@Z
	DD	FLAT:__purecall
	DD	FLAT:__purecall
	DD	FLAT:?ReadLine@i3Stream@@UAEIPADH@Z
	DD	FLAT:?ReadLineW@i3Stream@@UAEIPAGH@Z
	DD	FLAT:?WriteLine@i3Stream@@UAEIPBD@Z
	DD	FLAT:?WriteLineW@i3Stream@@UAEIPBG@Z
	DD	FLAT:?Printf@i3Stream@@UAAIPADPBDZZ
CONST	ENDS
;	COMDAT ??_7i3NetworkFTP@@6B@
CONST	SEGMENT
??_7i3NetworkFTP@@6B@ DD FLAT:??_R4i3NetworkFTP@@6B@	; i3NetworkFTP::`vftable'
	DD	FLAT:?GetMeta@i3NetworkFTP@@UAEPAVi3ClassMeta@@XZ
	DD	FLAT:??_Ei3NetworkFTP@@UAEPAXI@Z
	DD	FLAT:?CopyTo@i3ElementBase@@UAEXPAV1@W4I3_COPY_METHOD@@@Z
	DD	FLAT:?OnDownLoad@i3NetworkFTP@@UAEXXZ
	DD	FLAT:?OnUpLoad@i3NetworkFTP@@UAEXXZ
CONST	ENDS
;	COMDAT ??_7i3MemoryPool@@6B@
CONST	SEGMENT
??_7i3MemoryPool@@6B@ DD FLAT:??_R4i3MemoryPool@@6B@	; i3MemoryPool::`vftable'
	DD	FLAT:??_Ei3MemoryPool@@UAEPAXI@Z
	DD	FLAT:__purecall
	DD	FLAT:__purecall
CONST	ENDS
;	COMDAT ??_7i3ElementBase@@6B@
CONST	SEGMENT
??_7i3ElementBase@@6B@ DD FLAT:??_R4i3ElementBase@@6B@	; i3ElementBase::`vftable'
	DD	FLAT:?GetMeta@i3ElementBase@@UAEPAVi3ClassMeta@@XZ
	DD	FLAT:??_Ei3ElementBase@@UAEPAXI@Z
	DD	FLAT:?CopyTo@i3ElementBase@@UAEXPAV1@W4I3_COPY_METHOD@@@Z
CONST	ENDS
;	COMDAT ??_7i3ClassMeta@@6B@
CONST	SEGMENT
??_7i3ClassMeta@@6B@ DD FLAT:??_R4i3ClassMeta@@6B@	; i3ClassMeta::`vftable'
	DD	FLAT:??_Ei3ClassMeta@@UAEPAXI@Z
	DD	FLAT:?CreateInstance@i3ClassMeta@@UAEPAVi3ElementBase@@W4I3_CLASSMETA_TYPE@@@Z
	DD	FLAT:?BindInstance@i3ClassMeta@@UAEPAVi3ElementBase@@PAXW4I3_CLASSMETA_TYPE@@@Z
CONST	ENDS
;	COMDAT xdata$x
xdata$x	SEGMENT
__unwindtable$?BindInstance@?$i3MetaTemplate@Vi3NetworkFTP@@@@UAEPAVi3ElementBase@@PAXW4I3_CLASSMETA_TYPE@@@Z DD 0ffffffffH
	DD	FLAT:__unwindfunclet$?BindInstance@?$i3MetaTemplate@Vi3NetworkFTP@@@@UAEPAVi3ElementBase@@PAXW4I3_CLASSMETA_TYPE@@@Z$0
__ehfuncinfo$?BindInstance@?$i3MetaTemplate@Vi3NetworkFTP@@@@UAEPAVi3ElementBase@@PAXW4I3_CLASSMETA_TYPE@@@Z DD 019930522H
	DD	01H
	DD	FLAT:__unwindtable$?BindInstance@?$i3MetaTemplate@Vi3NetworkFTP@@@@UAEPAVi3ElementBase@@PAXW4I3_CLASSMETA_TYPE@@@Z
	DD	2 DUP(00H)
	DD	2 DUP(00H)
	DD	00H
	DD	01H
xdata$x	ENDS
;	COMDAT xdata$x
xdata$x	SEGMENT
__unwindtable$?CreateInstance@?$i3MetaTemplate@Vi3NetworkFTP@@@@UAEPAVi3ElementBase@@W4I3_CLASSMETA_TYPE@@@Z DD 0ffffffffH
	DD	FLAT:__unwindfunclet$?CreateInstance@?$i3MetaTemplate@Vi3NetworkFTP@@@@UAEPAVi3ElementBase@@W4I3_CLASSMETA_TYPE@@@Z$0
__ehfuncinfo$?CreateInstance@?$i3MetaTemplate@Vi3NetworkFTP@@@@UAEPAVi3ElementBase@@W4I3_CLASSMETA_TYPE@@@Z DD 019930522H
	DD	01H
	DD	FLAT:__unwindtable$?CreateInstance@?$i3MetaTemplate@Vi3NetworkFTP@@@@UAEPAVi3ElementBase@@W4I3_CLASSMETA_TYPE@@@Z
	DD	2 DUP(00H)
	DD	2 DUP(00H)
	DD	00H
	DD	01H
xdata$x	ENDS
;	COMDAT xdata$x
xdata$x	SEGMENT
__ehfuncinfo$??_Ei3FileStream@@UAEPAXI@Z DD 019930522H
	DD	00H
	DD	00H
	DD	2 DUP(00H)
	DD	2 DUP(00H)
	DD	00H
	DD	05H
xdata$x	ENDS
;	COMDAT xdata$x
xdata$x	SEGMENT
__ehfuncinfo$??_Ei3Stream@@UAEPAXI@Z DD 019930522H
	DD	00H
	DD	00H
	DD	2 DUP(00H)
	DD	2 DUP(00H)
	DD	00H
	DD	05H
xdata$x	ENDS
;	COMDAT xdata$x
xdata$x	SEGMENT
__ehfuncinfo$??_Ei3NetworkFTP@@UAEPAXI@Z DD 019930522H
	DD	00H
	DD	00H
	DD	2 DUP(00H)
	DD	2 DUP(00H)
	DD	00H
	DD	05H
xdata$x	ENDS
;	COMDAT xdata$x
xdata$x	SEGMENT
__unwindtable$?UploadFile2@i3NetworkFTP@@QAEHPBD0@Z DD 0ffffffffH
	DD	FLAT:__unwindfunclet$?UploadFile2@i3NetworkFTP@@QAEHPBD0@Z$0
__ehfuncinfo$?UploadFile2@i3NetworkFTP@@QAEHPBD0@Z DD 019930522H
	DD	01H
	DD	FLAT:__unwindtable$?UploadFile2@i3NetworkFTP@@QAEHPBD0@Z
	DD	2 DUP(00H)
	DD	2 DUP(00H)
	DD	00H
	DD	01H
xdata$x	ENDS
;	COMDAT xdata$x
xdata$x	SEGMENT
__unwindtable$?DownLoadFile2@i3NetworkFTP@@QAEHPAD@Z DD 0ffffffffH
	DD	FLAT:__unwindfunclet$?DownLoadFile2@i3NetworkFTP@@QAEHPAD@Z$0
__ehfuncinfo$?DownLoadFile2@i3NetworkFTP@@QAEHPAD@Z DD 019930522H
	DD	01H
	DD	FLAT:__unwindtable$?DownLoadFile2@i3NetworkFTP@@QAEHPAD@Z
	DD	2 DUP(00H)
	DD	2 DUP(00H)
	DD	00H
	DD	01H
xdata$x	ENDS
;	COMDAT voltbl
voltbl	SEGMENT
_volmd	DB	034H
voltbl	ENDS
;	COMDAT xdata$x
xdata$x	SEGMENT
__ehfuncinfo$??_Ei3MemoryPool@@UAEPAXI@Z DD 019930522H
	DD	00H
	DD	00H
	DD	2 DUP(00H)
	DD	2 DUP(00H)
	DD	00H
	DD	05H
xdata$x	ENDS
;	COMDAT xdata$x
xdata$x	SEGMENT
__ehfuncinfo$??_Ei3ElementBase@@UAEPAXI@Z DD 019930522H
	DD	00H
	DD	00H
	DD	2 DUP(00H)
	DD	2 DUP(00H)
	DD	00H
	DD	05H
xdata$x	ENDS
;	COMDAT xdata$x
xdata$x	SEGMENT
__ehfuncinfo$??_Ei3ClassMeta@@UAEPAXI@Z DD 019930522H
	DD	00H
	DD	00H
	DD	2 DUP(00H)
	DD	2 DUP(00H)
	DD	00H
	DD	05H
xdata$x	ENDS
;	COMDAT voltbl
voltbl	SEGMENT
_volmd	DB	010H
voltbl	ENDS
;	COMDAT voltbl
voltbl	SEGMENT
_volmd	DB	010H
voltbl	ENDS
; Function compile flags: /Ogtp
;	COMDAT ??__Fs_ClassMetai3NetworkFTP@@YAXXZ
text$yd	SEGMENT
??__Fs_ClassMetai3NetworkFTP@@YAXXZ PROC		; `dynamic atexit destructor for 's_ClassMetai3NetworkFTP'', COMDAT
  00000	b9 00 00 00 00	 mov	 ecx, OFFSET ?s_ClassMetai3NetworkFTP@@3V?$i3MetaTemplate@Vi3NetworkFTP@@@@A
  00005	e9 00 00 00 00	 jmp	 ??1i3ClassMeta@@UAE@XZ	; i3ClassMeta::~i3ClassMeta
??__Fs_ClassMetai3NetworkFTP@@YAXXZ ENDP		; `dynamic atexit destructor for 's_ClassMetai3NetworkFTP''
text$yd	ENDS
; Function compile flags: /Ogtp
; File E:\Proyectos\JuegosOnlineproyectos\PB\pbblow\Piercing Blow Remake\i3Server\src\i3Base\i3NetworkFTP.cpp
; File E:\Proyectos\JuegosOnlineproyectos\PB\pbblow\Piercing Blow Remake\i3Server\include\i3Base\i3MetaTemplate.h
; File E:\Proyectos\JuegosOnlineproyectos\PB\pbblow\Piercing Blow Remake\i3Server\src\i3Base\i3NetworkFTP.cpp
; File E:\Proyectos\JuegosOnlineproyectos\PB\pbblow\Piercing Blow Remake\i3Server\include\i3Base\i3MetaTemplate.h
; File E:\Proyectos\JuegosOnlineproyectos\PB\pbblow\Piercing Blow Remake\i3Server\src\i3Base\i3NetworkFTP.cpp
;	COMDAT ??__Es_ClassMetai3NetworkFTP@@YAXXZ
text$di	SEGMENT
??__Es_ClassMetai3NetworkFTP@@YAXXZ PROC		; `dynamic initializer for 's_ClassMetai3NetworkFTP'', COMDAT
; File E:\Proyectos\JuegosOnlineproyectos\PB\pbblow\Piercing Blow Remake\i3Server\include\i3Base\i3MetaTemplate.h

; 28   : : i3ClassMeta( classSz, pszClassName, pszBaseClassName, type)

  00000	6a 00		 push	 0
  00002	68 00 00 00 00	 push	 OFFSET ??_C@_0O@OCDFBOHM@i3ElementBase@
  00007	68 00 00 00 00	 push	 OFFSET ??_C@_0N@BIPHHAPB@i3NetworkFTP@
  0000c	68 b4 03 00 00	 push	 948			; 000003b4H
  00011	b9 00 00 00 00	 mov	 ecx, OFFSET ?s_ClassMetai3NetworkFTP@@3V?$i3MetaTemplate@Vi3NetworkFTP@@@@A
  00016	e8 00 00 00 00	 call	 ??0i3ClassMeta@@QAE@IPAD0W4I3_CLASSMETA_TYPE@@@Z ; i3ClassMeta::i3ClassMeta
; File E:\Proyectos\JuegosOnlineproyectos\PB\pbblow\Piercing Blow Remake\i3Server\src\i3Base\i3NetworkFTP.cpp

; 5    : I3_CLASS_INSTANCE( i3NetworkFTP, i3ElementBase );

  0001b	68 00 00 00 00	 push	 OFFSET ??__Fs_ClassMetai3NetworkFTP@@YAXXZ ; `dynamic atexit destructor for 's_ClassMetai3NetworkFTP''
; File E:\Proyectos\JuegosOnlineproyectos\PB\pbblow\Piercing Blow Remake\i3Server\include\i3Base\i3MetaTemplate.h

; 29   : {

  00020	c7 05 00 00 00
	00 00 00 00 00	 mov	 DWORD PTR ?s_ClassMetai3NetworkFTP@@3V?$i3MetaTemplate@Vi3NetworkFTP@@@@A, OFFSET ??_7?$i3MetaTemplate@Vi3NetworkFTP@@@@6B@
; File E:\Proyectos\JuegosOnlineproyectos\PB\pbblow\Piercing Blow Remake\i3Server\src\i3Base\i3NetworkFTP.cpp

; 5    : I3_CLASS_INSTANCE( i3NetworkFTP, i3ElementBase );

  0002a	e8 00 00 00 00	 call	 _atexit
  0002f	59		 pop	 ecx
  00030	c3		 ret	 0
??__Es_ClassMetai3NetworkFTP@@YAXXZ ENDP		; `dynamic initializer for 's_ClassMetai3NetworkFTP''
text$di	ENDS
; Function compile flags: /Ogtp
;	COMDAT ??_G?$i3MetaTemplate@Vi3NetworkFTP@@@@UAEPAXI@Z
_TEXT	SEGMENT
___flags$ = 8						; size = 4
??_G?$i3MetaTemplate@Vi3NetworkFTP@@@@UAEPAXI@Z PROC	; i3MetaTemplate<i3NetworkFTP>::`scalar deleting destructor', COMDAT
; _this$ = ecx
  00000	55		 push	 ebp
  00001	8b ec		 mov	 ebp, esp
  00003	56		 push	 esi
  00004	8b f1		 mov	 esi, ecx
  00006	e8 00 00 00 00	 call	 ??1i3ClassMeta@@UAE@XZ	; i3ClassMeta::~i3ClassMeta
  0000b	f6 45 08 01	 test	 BYTE PTR ___flags$[ebp], 1
  0000f	74 0b		 je	 SHORT $LN10@scalar
  00011	6a 38		 push	 56			; 00000038H
  00013	56		 push	 esi
  00014	e8 00 00 00 00	 call	 ??3@YAXPAXI@Z		; operator delete
  00019	83 c4 08	 add	 esp, 8
$LN10@scalar:
  0001c	8b c6		 mov	 eax, esi
  0001e	5e		 pop	 esi
  0001f	5d		 pop	 ebp
  00020	c2 04 00	 ret	 4
??_G?$i3MetaTemplate@Vi3NetworkFTP@@@@UAEPAXI@Z ENDP	; i3MetaTemplate<i3NetworkFTP>::`scalar deleting destructor'
_TEXT	ENDS
; Function compile flags: /Ogtp
; File E:\Proyectos\JuegosOnlineproyectos\PB\pbblow\Piercing Blow Remake\i3Server\include\i3Base\i3MetaTemplate.h
;	COMDAT ?BindInstance@?$i3MetaTemplate@Vi3NetworkFTP@@@@UAEPAVi3ElementBase@@PAXW4I3_CLASSMETA_TYPE@@@Z
_TEXT	SEGMENT
__$EHRec$ = -12						; size = 12
_pBuf$ = 8						; size = 4
_type$ = 12						; size = 4
$T2 = 12						; size = 4
?BindInstance@?$i3MetaTemplate@Vi3NetworkFTP@@@@UAEPAVi3ElementBase@@PAXW4I3_CLASSMETA_TYPE@@@Z PROC ; i3MetaTemplate<i3NetworkFTP>::BindInstance, COMDAT
; _this$ = ecx

; 129  : 	{

  00000	55		 push	 ebp
  00001	8b ec		 mov	 ebp, esp
  00003	6a ff		 push	 -1
  00005	68 00 00 00 00	 push	 __ehhandler$?BindInstance@?$i3MetaTemplate@Vi3NetworkFTP@@@@UAEPAVi3ElementBase@@PAXW4I3_CLASSMETA_TYPE@@@Z
  0000a	64 a1 00 00 00
	00		 mov	 eax, DWORD PTR fs:0
  00010	50		 push	 eax
  00011	a1 00 00 00 00	 mov	 eax, DWORD PTR ___security_cookie
  00016	33 c5		 xor	 eax, ebp
  00018	50		 push	 eax
  00019	8d 45 f4	 lea	 eax, DWORD PTR __$EHRec$[ebp]
  0001c	64 a3 00 00 00
	00		 mov	 DWORD PTR fs:0, eax

; 130  : 		if( m_ProxyCount > 0)

  00022	83 79 30 00	 cmp	 DWORD PTR [ecx+48], 0
  00026	7e 25		 jle	 SHORT $LN2@BindInstan

; 131  : 		{
; 132  : 			i3ClassMeta * pMeta = GetConcreteClass( type);

  00028	ff 75 0c	 push	 DWORD PTR _type$[ebp]
  0002b	e8 00 00 00 00	 call	 ?GetConcreteClass@i3ClassMeta@@QAEPAV1@W4I3_CLASSMETA_TYPE@@@Z ; i3ClassMeta::GetConcreteClass

; 133  : 
; 134  : 			return pMeta->BindInstance( pBuf, I3_CLASSMETA_TYPE_GENERAL);

  00030	6a 00		 push	 0
  00032	ff 75 08	 push	 DWORD PTR _pBuf$[ebp]
  00035	8b c8		 mov	 ecx, eax
  00037	8b 10		 mov	 edx, DWORD PTR [eax]
  00039	ff 52 08	 call	 DWORD PTR [edx+8]

; 142  : 			#endif
; 143  : 		}
; 144  : 	}

  0003c	8b 4d f4	 mov	 ecx, DWORD PTR __$EHRec$[ebp]
  0003f	64 89 0d 00 00
	00 00		 mov	 DWORD PTR fs:0, ecx
  00046	59		 pop	 ecx
  00047	8b e5		 mov	 esp, ebp
  00049	5d		 pop	 ebp
  0004a	c2 08 00	 ret	 8
$LN2@BindInstan:

; 135  : 		}
; 136  : 		else
; 137  : 		{
; 138  : 			#if defined( I3_DEBUG)
; 139  : 				return (i3ElementBase *) new( pBuf ) T;
; 140  : 			#else
; 141  : 				return (i3ElementBase *) new( pBuf ) T;

  0004d	ff 75 08	 push	 DWORD PTR _pBuf$[ebp]
  00050	68 b4 03 00 00	 push	 948			; 000003b4H
  00055	e8 00 00 00 00	 call	 ??2i3ElementBase@@SAPAXIPAX@Z ; i3ElementBase::operator new
  0005a	83 c4 08	 add	 esp, 8
  0005d	89 45 0c	 mov	 DWORD PTR $T2[ebp], eax
  00060	c7 45 fc 00 00
	00 00		 mov	 DWORD PTR __$EHRec$[ebp+8], 0
  00067	85 c0		 test	 eax, eax
  00069	74 18		 je	 SHORT $LN5@BindInstan
  0006b	8b c8		 mov	 ecx, eax
  0006d	e8 00 00 00 00	 call	 ??0i3NetworkFTP@@QAE@XZ	; i3NetworkFTP::i3NetworkFTP

; 142  : 			#endif
; 143  : 		}
; 144  : 	}

  00072	8b 4d f4	 mov	 ecx, DWORD PTR __$EHRec$[ebp]
  00075	64 89 0d 00 00
	00 00		 mov	 DWORD PTR fs:0, ecx
  0007c	59		 pop	 ecx
  0007d	8b e5		 mov	 esp, ebp
  0007f	5d		 pop	 ebp
  00080	c2 08 00	 ret	 8
$LN5@BindInstan:

; 135  : 		}
; 136  : 		else
; 137  : 		{
; 138  : 			#if defined( I3_DEBUG)
; 139  : 				return (i3ElementBase *) new( pBuf ) T;
; 140  : 			#else
; 141  : 				return (i3ElementBase *) new( pBuf ) T;

  00083	33 c0		 xor	 eax, eax

; 142  : 			#endif
; 143  : 		}
; 144  : 	}

  00085	8b 4d f4	 mov	 ecx, DWORD PTR __$EHRec$[ebp]
  00088	64 89 0d 00 00
	00 00		 mov	 DWORD PTR fs:0, ecx
  0008f	59		 pop	 ecx
  00090	8b e5		 mov	 esp, ebp
  00092	5d		 pop	 ebp
  00093	c2 08 00	 ret	 8
_TEXT	ENDS
;	COMDAT text$x
text$x	SEGMENT
__unwindfunclet$?BindInstance@?$i3MetaTemplate@Vi3NetworkFTP@@@@UAEPAVi3ElementBase@@PAXW4I3_CLASSMETA_TYPE@@@Z$0:
  00000	8b 45 08	 mov	 eax, DWORD PTR _pBuf$[ebp]
  00003	50		 push	 eax
  00004	8b 45 0c	 mov	 eax, DWORD PTR $T2[ebp]
  00007	50		 push	 eax
  00008	e8 00 00 00 00	 call	 ??3i3ElementBase@@SAXPAX0@Z ; i3ElementBase::operator delete
  0000d	83 c4 08	 add	 esp, 8
  00010	c3		 ret	 0
  00011	cc		 int	 3
  00012	cc		 int	 3
  00013	cc		 int	 3
  00014	cc		 int	 3
  00015	cc		 int	 3
__ehhandler$?BindInstance@?$i3MetaTemplate@Vi3NetworkFTP@@@@UAEPAVi3ElementBase@@PAXW4I3_CLASSMETA_TYPE@@@Z:
  00016	90		 npad	 1
  00017	90		 npad	 1
  00018	8b 54 24 08	 mov	 edx, DWORD PTR [esp+8]
  0001c	8d 42 0c	 lea	 eax, DWORD PTR [edx+12]
  0001f	8b 4a fc	 mov	 ecx, DWORD PTR [edx-4]
  00022	33 c8		 xor	 ecx, eax
  00024	e8 00 00 00 00	 call	 @__security_check_cookie@4
  00029	b8 00 00 00 00	 mov	 eax, OFFSET __ehfuncinfo$?BindInstance@?$i3MetaTemplate@Vi3NetworkFTP@@@@UAEPAVi3ElementBase@@PAXW4I3_CLASSMETA_TYPE@@@Z
  0002e	e9 00 00 00 00	 jmp	 ___CxxFrameHandler3
text$x	ENDS
?BindInstance@?$i3MetaTemplate@Vi3NetworkFTP@@@@UAEPAVi3ElementBase@@PAXW4I3_CLASSMETA_TYPE@@@Z ENDP ; i3MetaTemplate<i3NetworkFTP>::BindInstance
; Function compile flags: /Ogtp
; File E:\Proyectos\JuegosOnlineproyectos\PB\pbblow\Piercing Blow Remake\i3Server\include\i3Base\i3MetaTemplate.h
; File E:\Proyectos\JuegosOnlineproyectos\PB\pbblow\Piercing Blow Remake\i3Server\include\i3Base\i3ElementBase.h
; File E:\Proyectos\JuegosOnlineproyectos\PB\pbblow\Piercing Blow Remake\i3Server\include\i3Base\i3MetaTemplate.h
; File E:\Proyectos\JuegosOnlineproyectos\PB\pbblow\Piercing Blow Remake\i3Server\include\i3Base\i3ElementBase.h
; File E:\Proyectos\JuegosOnlineproyectos\PB\pbblow\Piercing Blow Remake\i3Server\include\i3Base\i3MetaTemplate.h
;	COMDAT ?CreateInstance@?$i3MetaTemplate@Vi3NetworkFTP@@@@UAEPAVi3ElementBase@@W4I3_CLASSMETA_TYPE@@@Z
_TEXT	SEGMENT
__$EHRec$ = -12						; size = 12
_type$ = 8						; size = 4
$T2 = 8							; size = 4
?CreateInstance@?$i3MetaTemplate@Vi3NetworkFTP@@@@UAEPAVi3ElementBase@@W4I3_CLASSMETA_TYPE@@@Z PROC ; i3MetaTemplate<i3NetworkFTP>::CreateInstance, COMDAT
; _this$ = ecx

; 97   : 	{

  00000	55		 push	 ebp
  00001	8b ec		 mov	 ebp, esp
  00003	6a ff		 push	 -1
  00005	68 00 00 00 00	 push	 __ehhandler$?CreateInstance@?$i3MetaTemplate@Vi3NetworkFTP@@@@UAEPAVi3ElementBase@@W4I3_CLASSMETA_TYPE@@@Z
  0000a	64 a1 00 00 00
	00		 mov	 eax, DWORD PTR fs:0
  00010	50		 push	 eax
  00011	56		 push	 esi
  00012	57		 push	 edi
  00013	a1 00 00 00 00	 mov	 eax, DWORD PTR ___security_cookie
  00018	33 c5		 xor	 eax, ebp
  0001a	50		 push	 eax
  0001b	8d 45 f4	 lea	 eax, DWORD PTR __$EHRec$[ebp]
  0001e	64 a3 00 00 00
	00		 mov	 DWORD PTR fs:0, eax
  00024	8b f9		 mov	 edi, ecx

; 98   : 		if( m_ProxyCount > 0)

  00026	83 7f 30 00	 cmp	 DWORD PTR [edi+48], 0
  0002a	7e 28		 jle	 SHORT $LN3@CreateInst

; 99   : 		{
; 100  : 			i3ClassMeta * pMeta = GetConcreteClass( type);

  0002c	ff 75 08	 push	 DWORD PTR _type$[ebp]
  0002f	e8 00 00 00 00	 call	 ?GetConcreteClass@i3ClassMeta@@QAEPAV1@W4I3_CLASSMETA_TYPE@@@Z ; i3ClassMeta::GetConcreteClass

; 101  : 
; 102  : 			if( pMeta != NULL)

  00034	85 c0		 test	 eax, eax
  00036	74 1c		 je	 SHORT $LN3@CreateInst

; 103  : 				return pMeta->CreateInstance( I3_CLASSMETA_TYPE_GENERAL);

  00038	8b 10		 mov	 edx, DWORD PTR [eax]
  0003a	8b c8		 mov	 ecx, eax
  0003c	6a 00		 push	 0
  0003e	ff 52 04	 call	 DWORD PTR [edx+4]

; 125  : 	}

  00041	8b 4d f4	 mov	 ecx, DWORD PTR __$EHRec$[ebp]
  00044	64 89 0d 00 00
	00 00		 mov	 DWORD PTR fs:0, ecx
  0004b	59		 pop	 ecx
  0004c	5f		 pop	 edi
  0004d	5e		 pop	 esi
  0004e	8b e5		 mov	 esp, ebp
  00050	5d		 pop	 ebp
  00051	c2 04 00	 ret	 4
$LN3@CreateInst:

; 104  : 		}
; 105  : 
; 106  : 		{
; 107  : 			if( m_pPool == NULL)

  00054	8b 4f 34	 mov	 ecx, DWORD PTR [edi+52]
  00057	85 c9		 test	 ecx, ecx
  00059	75 4a		 jne	 SHORT $LN4@CreateInst

; 108  : 			{
; 109  : 				#if defined( I3_DEBUG)
; 110  : 					return (i3ElementBase *) new T;
; 111  : 				#else
; 112  : 					return (i3ElementBase *) new T;

  0005b	68 b4 03 00 00	 push	 948			; 000003b4H
  00060	e8 00 00 00 00	 call	 ??2i3ElementBase@@SAPAXI@Z ; i3ElementBase::operator new
  00065	83 c4 04	 add	 esp, 4
  00068	89 45 08	 mov	 DWORD PTR $T2[ebp], eax
  0006b	c7 45 fc 00 00
	00 00		 mov	 DWORD PTR __$EHRec$[ebp+8], 0
  00072	85 c0		 test	 eax, eax
  00074	74 1a		 je	 SHORT $LN7@CreateInst
  00076	8b c8		 mov	 ecx, eax
  00078	e8 00 00 00 00	 call	 ??0i3NetworkFTP@@QAE@XZ	; i3NetworkFTP::i3NetworkFTP

; 125  : 	}

  0007d	8b 4d f4	 mov	 ecx, DWORD PTR __$EHRec$[ebp]
  00080	64 89 0d 00 00
	00 00		 mov	 DWORD PTR fs:0, ecx
  00087	59		 pop	 ecx
  00088	5f		 pop	 edi
  00089	5e		 pop	 esi
  0008a	8b e5		 mov	 esp, ebp
  0008c	5d		 pop	 ebp
  0008d	c2 04 00	 ret	 4
$LN7@CreateInst:

; 108  : 			{
; 109  : 				#if defined( I3_DEBUG)
; 110  : 					return (i3ElementBase *) new T;
; 111  : 				#else
; 112  : 					return (i3ElementBase *) new T;

  00090	33 c0		 xor	 eax, eax

; 125  : 	}

  00092	8b 4d f4	 mov	 ecx, DWORD PTR __$EHRec$[ebp]
  00095	64 89 0d 00 00
	00 00		 mov	 DWORD PTR fs:0, ecx
  0009c	59		 pop	 ecx
  0009d	5f		 pop	 edi
  0009e	5e		 pop	 esi
  0009f	8b e5		 mov	 esp, ebp
  000a1	5d		 pop	 ebp
  000a2	c2 04 00	 ret	 4
$LN4@CreateInst:

; 113  : 				#endif
; 114  : 			}
; 115  : 			else
; 116  : 			{
; 117  : 				i3ElementBase * p = (i3ElementBase *) m_pPool->Alloc( sizeof(T), NULL, 0);

  000a5	8b 01		 mov	 eax, DWORD PTR [ecx]
  000a7	6a 00		 push	 0
  000a9	6a 00		 push	 0
  000ab	68 b4 03 00 00	 push	 948			; 000003b4H
  000b0	ff 50 04	 call	 DWORD PTR [eax+4]

; 118  : 	
; 119  : 				BindInstance( p, type);

  000b3	ff 75 08	 push	 DWORD PTR _type$[ebp]
  000b6	8b 17		 mov	 edx, DWORD PTR [edi]
  000b8	8b f0		 mov	 esi, eax
  000ba	56		 push	 esi
  000bb	8b cf		 mov	 ecx, edi
  000bd	ff 52 08	 call	 DWORD PTR [edx+8]
; File E:\Proyectos\JuegosOnlineproyectos\PB\pbblow\Piercing Blow Remake\i3Server\include\i3Base\i3ElementBase.h

; 347  : 	void			__SetMemoryPool( i3MemoryPool * pPool)			{ m_pPool = pPool; }

  000c0	8b 4f 34	 mov	 ecx, DWORD PTR [edi+52]
; File E:\Proyectos\JuegosOnlineproyectos\PB\pbblow\Piercing Blow Remake\i3Server\include\i3Base\i3MetaTemplate.h

; 122  : 				return p;

  000c3	8b c6		 mov	 eax, esi
; File E:\Proyectos\JuegosOnlineproyectos\PB\pbblow\Piercing Blow Remake\i3Server\include\i3Base\i3ElementBase.h

; 347  : 	void			__SetMemoryPool( i3MemoryPool * pPool)			{ m_pPool = pPool; }

  000c5	89 4e 0c	 mov	 DWORD PTR [esi+12], ecx
; File E:\Proyectos\JuegosOnlineproyectos\PB\pbblow\Piercing Blow Remake\i3Server\include\i3Base\i3MetaTemplate.h

; 125  : 	}

  000c8	8b 4d f4	 mov	 ecx, DWORD PTR __$EHRec$[ebp]
  000cb	64 89 0d 00 00
	00 00		 mov	 DWORD PTR fs:0, ecx
  000d2	59		 pop	 ecx
  000d3	5f		 pop	 edi
  000d4	5e		 pop	 esi
  000d5	8b e5		 mov	 esp, ebp
  000d7	5d		 pop	 ebp
  000d8	c2 04 00	 ret	 4
_TEXT	ENDS
;	COMDAT text$x
text$x	SEGMENT
__unwindfunclet$?CreateInstance@?$i3MetaTemplate@Vi3NetworkFTP@@@@UAEPAVi3ElementBase@@W4I3_CLASSMETA_TYPE@@@Z$0:
  00000	8b 45 08	 mov	 eax, DWORD PTR $T2[ebp]
  00003	50		 push	 eax
  00004	e8 00 00 00 00	 call	 ??3i3ElementBase@@SAXPAX@Z ; i3ElementBase::operator delete
  00009	59		 pop	 ecx
  0000a	c3		 ret	 0
  0000b	cc		 int	 3
  0000c	cc		 int	 3
  0000d	cc		 int	 3
  0000e	cc		 int	 3
  0000f	cc		 int	 3
__ehhandler$?CreateInstance@?$i3MetaTemplate@Vi3NetworkFTP@@@@UAEPAVi3ElementBase@@W4I3_CLASSMETA_TYPE@@@Z:
  00010	90		 npad	 1
  00011	90		 npad	 1
  00012	8b 54 24 08	 mov	 edx, DWORD PTR [esp+8]
  00016	8d 42 0c	 lea	 eax, DWORD PTR [edx+12]
  00019	8b 4a f4	 mov	 ecx, DWORD PTR [edx-12]
  0001c	33 c8		 xor	 ecx, eax
  0001e	e8 00 00 00 00	 call	 @__security_check_cookie@4
  00023	b8 00 00 00 00	 mov	 eax, OFFSET __ehfuncinfo$?CreateInstance@?$i3MetaTemplate@Vi3NetworkFTP@@@@UAEPAVi3ElementBase@@W4I3_CLASSMETA_TYPE@@@Z
  00028	e9 00 00 00 00	 jmp	 ___CxxFrameHandler3
text$x	ENDS
?CreateInstance@?$i3MetaTemplate@Vi3NetworkFTP@@@@UAEPAVi3ElementBase@@W4I3_CLASSMETA_TYPE@@@Z ENDP ; i3MetaTemplate<i3NetworkFTP>::CreateInstance
; Function compile flags: /Ogtp
; File E:\Proyectos\JuegosOnlineproyectos\PB\pbblow\Piercing Blow Remake\i3Server\include\i3Base\i3MetaTemplate.h
;	COMDAT ??0?$i3MetaTemplate@Vi3NetworkFTP@@@@QAE@IPAD0W4I3_CLASSMETA_TYPE@@@Z
_TEXT	SEGMENT
_this$ = -4						; size = 4
_classSz$ = 8						; size = 4
_pszClassName$ = 12					; size = 4
_pszBaseClassName$ = 16					; size = 4
_type$ = 20						; size = 4
??0?$i3MetaTemplate@Vi3NetworkFTP@@@@QAE@IPAD0W4I3_CLASSMETA_TYPE@@@Z PROC ; i3MetaTemplate<i3NetworkFTP>::i3MetaTemplate<i3NetworkFTP>, COMDAT
; _this$ = ecx

; 29   : {

  00000	55		 push	 ebp
  00001	8b ec		 mov	 ebp, esp
  00003	51		 push	 ecx
  00004	56		 push	 esi
  00005	ff 75 14	 push	 DWORD PTR _type$[ebp]
  00008	8b f1		 mov	 esi, ecx
  0000a	ff 75 10	 push	 DWORD PTR _pszBaseClassName$[ebp]
  0000d	89 75 fc	 mov	 DWORD PTR _this$[ebp], esi
  00010	ff 75 0c	 push	 DWORD PTR _pszClassName$[ebp]
  00013	ff 75 08	 push	 DWORD PTR _classSz$[ebp]
  00016	e8 00 00 00 00	 call	 ??0i3ClassMeta@@QAE@IPAD0W4I3_CLASSMETA_TYPE@@@Z ; i3ClassMeta::i3ClassMeta
  0001b	c7 06 00 00 00
	00		 mov	 DWORD PTR [esi], OFFSET ??_7?$i3MetaTemplate@Vi3NetworkFTP@@@@6B@

; 30   : }

  00021	8b c6		 mov	 eax, esi
  00023	5e		 pop	 esi
  00024	8b e5		 mov	 esp, ebp
  00026	5d		 pop	 ebp
  00027	c2 10 00	 ret	 16			; 00000010H
??0?$i3MetaTemplate@Vi3NetworkFTP@@@@QAE@IPAD0W4I3_CLASSMETA_TYPE@@@Z ENDP ; i3MetaTemplate<i3NetworkFTP>::i3MetaTemplate<i3NetworkFTP>
_TEXT	ENDS
; Function compile flags: /Ogtp
; File E:\Proyectos\JuegosOnlineproyectos\PB\pbblow\Piercing Blow Remake\i3Server\src\i3Base\i3NetworkFTP.cpp
;	COMDAT ??_Ei3FileStream@@UAEPAXI@Z
_TEXT	SEGMENT
__$EHRec$ = -12						; size = 12
___flags$ = 8						; size = 4
??_Ei3FileStream@@UAEPAXI@Z PROC			; i3FileStream::`vector deleting destructor', COMDAT
; _this$ = ecx
  00000	55		 push	 ebp
  00001	8b ec		 mov	 ebp, esp
  00003	6a ff		 push	 -1
  00005	68 00 00 00 00	 push	 __ehhandler$??_Ei3FileStream@@UAEPAXI@Z
  0000a	64 a1 00 00 00
	00		 mov	 eax, DWORD PTR fs:0
  00010	50		 push	 eax
  00011	53		 push	 ebx
  00012	56		 push	 esi
  00013	57		 push	 edi
  00014	a1 00 00 00 00	 mov	 eax, DWORD PTR ___security_cookie
  00019	33 c5		 xor	 eax, ebp
  0001b	50		 push	 eax
  0001c	8d 45 f4	 lea	 eax, DWORD PTR __$EHRec$[ebp]
  0001f	64 a3 00 00 00
	00		 mov	 DWORD PTR fs:0, eax
  00025	8b f1		 mov	 esi, ecx
  00027	8b 5d 08	 mov	 ebx, DWORD PTR ___flags$[ebp]
  0002a	8b fb		 mov	 edi, ebx
  0002c	83 e7 01	 and	 edi, 1
  0002f	f6 c3 02	 test	 bl, 2
  00032	74 43		 je	 SHORT $LN2@vector
  00034	68 00 00 00 00	 push	 OFFSET ??1i3FileStream@@UAE@XZ ; i3FileStream::~i3FileStream
  00039	ff 76 fc	 push	 DWORD PTR [esi-4]
  0003c	8d 5e fc	 lea	 ebx, DWORD PTR [esi-4]
  0003f	68 38 01 00 00	 push	 312			; 00000138H
  00044	56		 push	 esi
  00045	e8 00 00 00 00	 call	 ??_M@YGXPAXIIP6EX0@Z@Z
  0004a	85 ff		 test	 edi, edi
  0004c	74 13		 je	 SHORT $LN3@vector
  0004e	69 0b 38 01 00
	00		 imul	 ecx, DWORD PTR [ebx], 312
  00054	83 c1 04	 add	 ecx, 4
  00057	51		 push	 ecx
  00058	53		 push	 ebx
  00059	e8 00 00 00 00	 call	 ??_V@YAXPAXI@Z		; operator delete[]
  0005e	83 c4 08	 add	 esp, 8
$LN3@vector:
  00061	8b c3		 mov	 eax, ebx
  00063	8b 4d f4	 mov	 ecx, DWORD PTR __$EHRec$[ebp]
  00066	64 89 0d 00 00
	00 00		 mov	 DWORD PTR fs:0, ecx
  0006d	59		 pop	 ecx
  0006e	5f		 pop	 edi
  0006f	5e		 pop	 esi
  00070	5b		 pop	 ebx
  00071	8b e5		 mov	 esp, ebp
  00073	5d		 pop	 ebp
  00074	c2 04 00	 ret	 4
$LN2@vector:
  00077	e8 00 00 00 00	 call	 ??1i3FileStream@@UAE@XZ	; i3FileStream::~i3FileStream
  0007c	85 ff		 test	 edi, edi
  0007e	74 1e		 je	 SHORT $LN6@vector
  00080	f6 c3 04	 test	 bl, 4
  00083	75 0b		 jne	 SHORT $LN5@vector
  00085	56		 push	 esi
  00086	e8 00 00 00 00	 call	 ??3i3ElementBase@@SAXPAX@Z ; i3ElementBase::operator delete
  0008b	83 c4 04	 add	 esp, 4
  0008e	eb 0e		 jmp	 SHORT $LN6@vector
$LN5@vector:

  00090	68 38 01 00 00	 push	 312			; 00000138H
  00095	56		 push	 esi
  00096	e8 00 00 00 00	 call	 ??3@YAXPAXI@Z		; operator delete
  0009b	83 c4 08	 add	 esp, 8
$LN6@vector:
  0009e	8b c6		 mov	 eax, esi
  000a0	8b 4d f4	 mov	 ecx, DWORD PTR __$EHRec$[ebp]
  000a3	64 89 0d 00 00
	00 00		 mov	 DWORD PTR fs:0, ecx
  000aa	59		 pop	 ecx
  000ab	5f		 pop	 edi
  000ac	5e		 pop	 esi
  000ad	5b		 pop	 ebx
  000ae	8b e5		 mov	 esp, ebp
  000b0	5d		 pop	 ebp
  000b1	c2 04 00	 ret	 4
  000b4	cc		 int	 3
  000b5	cc		 int	 3
  000b6	cc		 int	 3
  000b7	cc		 int	 3
  000b8	cc		 int	 3
_TEXT	ENDS
;	COMDAT text$x
text$x	SEGMENT
__ehhandler$??_Ei3FileStream@@UAEPAXI@Z:
  00000	90		 npad	 1
  00001	90		 npad	 1
  00002	8b 54 24 08	 mov	 edx, DWORD PTR [esp+8]
  00006	8d 42 0c	 lea	 eax, DWORD PTR [edx+12]
  00009	8b 4a f0	 mov	 ecx, DWORD PTR [edx-16]
  0000c	33 c8		 xor	 ecx, eax
  0000e	e8 00 00 00 00	 call	 @__security_check_cookie@4
  00013	b8 00 00 00 00	 mov	 eax, OFFSET __ehfuncinfo$??_Ei3FileStream@@UAEPAXI@Z
  00018	e9 00 00 00 00	 jmp	 ___CxxFrameHandler3
text$x	ENDS
??_Ei3FileStream@@UAEPAXI@Z ENDP			; i3FileStream::`vector deleting destructor'
; Function compile flags: /Ogtp
; File E:\Proyectos\JuegosOnlineproyectos\PB\pbblow\Piercing Blow Remake\i3Server\src\i3Base\i3NetworkFTP.cpp
;	COMDAT ??_Gi3FileStream@@UAEPAXI@Z
_TEXT	SEGMENT
___flags$ = 8						; size = 4
??_Gi3FileStream@@UAEPAXI@Z PROC			; i3FileStream::`scalar deleting destructor', COMDAT
; _this$ = ecx
  00000	55		 push	 ebp
  00001	8b ec		 mov	 ebp, esp
  00003	56		 push	 esi
  00004	8b f1		 mov	 esi, ecx
  00006	e8 00 00 00 00	 call	 ??1i3FileStream@@UAE@XZ	; i3FileStream::~i3FileStream
  0000b	8b 45 08	 mov	 eax, DWORD PTR ___flags$[ebp]
  0000e	a8 01		 test	 al, 1
  00010	74 22		 je	 SHORT $LN10@scalar
  00012	a8 04		 test	 al, 4
  00014	75 10		 jne	 SHORT $LN3@scalar
  00016	56		 push	 esi
  00017	e8 00 00 00 00	 call	 ??3i3ElementBase@@SAXPAX@Z ; i3ElementBase::operator delete
  0001c	83 c4 04	 add	 esp, 4
  0001f	8b c6		 mov	 eax, esi
  00021	5e		 pop	 esi
  00022	5d		 pop	 ebp
  00023	c2 04 00	 ret	 4
$LN3@scalar:

  00026	68 38 01 00 00	 push	 312			; 00000138H
  0002b	56		 push	 esi
  0002c	e8 00 00 00 00	 call	 ??3@YAXPAXI@Z		; operator delete
  00031	83 c4 08	 add	 esp, 8
$LN10@scalar:
  00034	8b c6		 mov	 eax, esi
  00036	5e		 pop	 esi
  00037	5d		 pop	 ebp
  00038	c2 04 00	 ret	 4
??_Gi3FileStream@@UAEPAXI@Z ENDP			; i3FileStream::`scalar deleting destructor'
_TEXT	ENDS
; Function compile flags: /Ogtp
;	COMDAT ??4i3FileStream@@QAEAAV0@ABV0@@Z
_TEXT	SEGMENT
___that$ = 8						; size = 4
??4i3FileStream@@QAEAAV0@ABV0@@Z PROC			; i3FileStream::operator=, COMDAT
; _this$ = ecx
  00000	55		 push	 ebp
  00001	8b ec		 mov	 ebp, esp
  00003	8b d1		 mov	 edx, ecx
  00005	56		 push	 esi
  00006	8b 75 08	 mov	 esi, DWORD PTR ___that$[ebp]
  00009	8b 46 04	 mov	 eax, DWORD PTR [esi+4]
  0000c	89 42 04	 mov	 DWORD PTR [edx+4], eax
  0000f	8b 46 08	 mov	 eax, DWORD PTR [esi+8]
  00012	89 42 08	 mov	 DWORD PTR [edx+8], eax
  00015	8b 46 0c	 mov	 eax, DWORD PTR [esi+12]
  00018	89 42 0c	 mov	 DWORD PTR [edx+12], eax
  0001b	8b 46 10	 mov	 eax, DWORD PTR [esi+16]
  0001e	89 42 10	 mov	 DWORD PTR [edx+16], eax
  00021	8b 46 14	 mov	 eax, DWORD PTR [esi+20]
  00024	89 42 14	 mov	 DWORD PTR [edx+20], eax
  00027	8b 46 18	 mov	 eax, DWORD PTR [esi+24]
  0002a	89 42 18	 mov	 DWORD PTR [edx+24], eax
  0002d	8b 46 1c	 mov	 eax, DWORD PTR [esi+28]
  00030	89 42 1c	 mov	 DWORD PTR [edx+28], eax
  00033	8b 46 20	 mov	 eax, DWORD PTR [esi+32]
  00036	89 42 20	 mov	 DWORD PTR [edx+32], eax
  00039	8b 46 24	 mov	 eax, DWORD PTR [esi+36]
  0003c	89 42 24	 mov	 DWORD PTR [edx+36], eax
  0003f	8b 46 28	 mov	 eax, DWORD PTR [esi+40]
  00042	89 42 28	 mov	 DWORD PTR [edx+40], eax
  00045	8b 46 2c	 mov	 eax, DWORD PTR [esi+44]
  00048	89 42 2c	 mov	 DWORD PTR [edx+44], eax
  0004b	8b 46 30	 mov	 eax, DWORD PTR [esi+48]
  0004e	89 42 30	 mov	 DWORD PTR [edx+48], eax
  00051	33 c0		 xor	 eax, eax
$LL4@operator:
  00053	8a 4c 06 34	 mov	 cl, BYTE PTR [esi+eax+52]
  00057	88 4c 02 34	 mov	 BYTE PTR [edx+eax+52], cl
  0005b	40		 inc	 eax
  0005c	3d 04 01 00 00	 cmp	 eax, 260		; 00000104H
  00061	72 f0		 jb	 SHORT $LL4@operator
  00063	5e		 pop	 esi
  00064	8b c2		 mov	 eax, edx
  00066	5d		 pop	 ebp
  00067	c2 04 00	 ret	 4
??4i3FileStream@@QAEAAV0@ABV0@@Z ENDP			; i3FileStream::operator=
_TEXT	ENDS
; Function compile flags: /Ogtp
;	COMDAT ??0i3FileStream@@QAE@ABV0@@Z
_TEXT	SEGMENT
___that$ = 8						; size = 4
??0i3FileStream@@QAE@ABV0@@Z PROC			; i3FileStream::i3FileStream, COMDAT
; _this$ = ecx
  00000	55		 push	 ebp
  00001	8b ec		 mov	 ebp, esp
  00003	8b d1		 mov	 edx, ecx
  00005	b9 41 00 00 00	 mov	 ecx, 65			; 00000041H
  0000a	56		 push	 esi
  0000b	8b 75 08	 mov	 esi, DWORD PTR ___that$[ebp]
  0000e	57		 push	 edi
  0000f	c7 02 00 00 00
	00		 mov	 DWORD PTR [edx], OFFSET ??_7i3ElementBase@@6B@
  00015	8d 7a 34	 lea	 edi, DWORD PTR [edx+52]
  00018	8b 46 04	 mov	 eax, DWORD PTR [esi+4]
  0001b	89 42 04	 mov	 DWORD PTR [edx+4], eax
  0001e	8b 46 08	 mov	 eax, DWORD PTR [esi+8]
  00021	89 42 08	 mov	 DWORD PTR [edx+8], eax
  00024	8b 46 0c	 mov	 eax, DWORD PTR [esi+12]
  00027	89 42 0c	 mov	 DWORD PTR [edx+12], eax
  0002a	c7 02 00 00 00
	00		 mov	 DWORD PTR [edx], OFFSET ??_7i3Stream@@6B@
  00030	8b 46 10	 mov	 eax, DWORD PTR [esi+16]
  00033	89 42 10	 mov	 DWORD PTR [edx+16], eax
  00036	8b 46 14	 mov	 eax, DWORD PTR [esi+20]
  00039	89 42 14	 mov	 DWORD PTR [edx+20], eax
  0003c	8b 46 18	 mov	 eax, DWORD PTR [esi+24]
  0003f	89 42 18	 mov	 DWORD PTR [edx+24], eax
  00042	8b 46 1c	 mov	 eax, DWORD PTR [esi+28]
  00045	89 42 1c	 mov	 DWORD PTR [edx+28], eax
  00048	8b 46 20	 mov	 eax, DWORD PTR [esi+32]
  0004b	89 42 20	 mov	 DWORD PTR [edx+32], eax
  0004e	c7 02 00 00 00
	00		 mov	 DWORD PTR [edx], OFFSET ??_7i3FileStream@@6B@
  00054	8b 46 24	 mov	 eax, DWORD PTR [esi+36]
  00057	89 42 24	 mov	 DWORD PTR [edx+36], eax
  0005a	8b 46 28	 mov	 eax, DWORD PTR [esi+40]
  0005d	89 42 28	 mov	 DWORD PTR [edx+40], eax
  00060	8b 46 2c	 mov	 eax, DWORD PTR [esi+44]
  00063	89 42 2c	 mov	 DWORD PTR [edx+44], eax
  00066	8b 46 30	 mov	 eax, DWORD PTR [esi+48]
  00069	83 c6 34	 add	 esi, 52			; 00000034H
  0006c	89 42 30	 mov	 DWORD PTR [edx+48], eax
  0006f	8b c2		 mov	 eax, edx
  00071	f3 a5		 rep movsd
  00073	5f		 pop	 edi
  00074	5e		 pop	 esi
  00075	5d		 pop	 ebp
  00076	c2 04 00	 ret	 4
??0i3FileStream@@QAE@ABV0@@Z ENDP			; i3FileStream::i3FileStream
_TEXT	ENDS
; Function compile flags: /Ogtp
; File E:\Proyectos\JuegosOnlineproyectos\PB\pbblow\Piercing Blow Remake\i3Server\include\i3Base\i3StreamFile.h
;	COMDAT ?IsCaseSensitive@i3FileStream@@SAHXZ
_TEXT	SEGMENT
?IsCaseSensitive@i3FileStream@@SAHXZ PROC		; i3FileStream::IsCaseSensitive, COMDAT

; 45   : 	static BOOL	IsCaseSensitive()						{ return m_bCaseSensitive; }

  00000	a1 00 00 00 00	 mov	 eax, DWORD PTR ?m_bCaseSensitive@i3FileStream@@1HA ; i3FileStream::m_bCaseSensitive
  00005	c3		 ret	 0
?IsCaseSensitive@i3FileStream@@SAHXZ ENDP		; i3FileStream::IsCaseSensitive
_TEXT	ENDS
; Function compile flags: /Ogtp
; File E:\Proyectos\JuegosOnlineproyectos\PB\pbblow\Piercing Blow Remake\i3Server\include\i3Base\i3StreamFile.h
;	COMDAT ?SetCaseSensitive@i3FileStream@@SAXH@Z
_TEXT	SEGMENT
_bTrue$ = 8						; size = 4
?SetCaseSensitive@i3FileStream@@SAXH@Z PROC		; i3FileStream::SetCaseSensitive, COMDAT

; 44   : 	static void	SetCaseSensitive( BOOL bTrue = TRUE )	{ m_bCaseSensitive = bTrue; }

  00000	55		 push	 ebp
  00001	8b ec		 mov	 ebp, esp
  00003	8b 45 08	 mov	 eax, DWORD PTR _bTrue$[ebp]
  00006	a3 00 00 00 00	 mov	 DWORD PTR ?m_bCaseSensitive@i3FileStream@@1HA, eax ; i3FileStream::m_bCaseSensitive
  0000b	5d		 pop	 ebp
  0000c	c3		 ret	 0
?SetCaseSensitive@i3FileStream@@SAXH@Z ENDP		; i3FileStream::SetCaseSensitive
_TEXT	ENDS
; Function compile flags: /Ogtp
; File E:\Proyectos\JuegosOnlineproyectos\PB\pbblow\Piercing Blow Remake\i3Server\include\i3Base\i3StreamFile.h
;	COMDAT ?GetFileName@i3FileStream@@QAEPADXZ
_TEXT	SEGMENT
?GetFileName@i3FileStream@@QAEPADXZ PROC		; i3FileStream::GetFileName, COMDAT
; _this$ = ecx

; 41   : 	char *  GetFileName(void)			{ return FileName; }

  00000	8d 41 34	 lea	 eax, DWORD PTR [ecx+52]
  00003	c3		 ret	 0
?GetFileName@i3FileStream@@QAEPADXZ ENDP		; i3FileStream::GetFileName
_TEXT	ENDS
; Function compile flags: /Ogtp
; File E:\Proyectos\JuegosOnlineproyectos\PB\pbblow\Piercing Blow Remake\i3Server\include\i3Base\i3StreamFile.h
;	COMDAT ?GetHandle@i3FileStream@@UAEPAXXZ
_TEXT	SEGMENT
?GetHandle@i3FileStream@@UAEPAXXZ PROC			; i3FileStream::GetHandle, COMDAT
; _this$ = ecx

; 39   : 	void * GetHandle(void)				{ return (void *)m_pHandle; }

  00000	8b 41 20	 mov	 eax, DWORD PTR [ecx+32]
  00003	c3		 ret	 0
?GetHandle@i3FileStream@@UAEPAXXZ ENDP			; i3FileStream::GetHandle
_TEXT	ENDS
; Function compile flags: /Ogtp
; File E:\Proyectos\JuegosOnlineproyectos\PB\pbblow\Piercing Blow Remake\i3Server\include\i3Base\i3StreamFile.h
;	COMDAT ?GetClassMeta@i3FileStream@@SAPAVi3ClassMeta@@XZ
_TEXT	SEGMENT
?GetClassMeta@i3FileStream@@SAPAVi3ClassMeta@@XZ PROC	; i3FileStream::GetClassMeta, COMDAT

; 20   : 	I3_CLASS_DEFINE( i3FileStream);

  00000	a1 00 00 00 00	 mov	 eax, DWORD PTR ?s_pClassMetai3FileStream@i3FileStream@@2PAVi3ClassMeta@@A ; i3FileStream::s_pClassMetai3FileStream
  00005	c3		 ret	 0
?GetClassMeta@i3FileStream@@SAPAVi3ClassMeta@@XZ ENDP	; i3FileStream::GetClassMeta
_TEXT	ENDS
; Function compile flags: /Ogtp
; File E:\Proyectos\JuegosOnlineproyectos\PB\pbblow\Piercing Blow Remake\i3Server\src\i3Base\i3NetworkFTP.cpp
;	COMDAT ??_Ei3Stream@@UAEPAXI@Z
_TEXT	SEGMENT
__$EHRec$ = -12						; size = 12
___flags$ = 8						; size = 4
??_Ei3Stream@@UAEPAXI@Z PROC				; i3Stream::`vector deleting destructor', COMDAT
; _this$ = ecx
  00000	55		 push	 ebp
  00001	8b ec		 mov	 ebp, esp
  00003	6a ff		 push	 -1
  00005	68 00 00 00 00	 push	 __ehhandler$??_Ei3Stream@@UAEPAXI@Z
  0000a	64 a1 00 00 00
	00		 mov	 eax, DWORD PTR fs:0
  00010	50		 push	 eax
  00011	53		 push	 ebx
  00012	56		 push	 esi
  00013	57		 push	 edi
  00014	a1 00 00 00 00	 mov	 eax, DWORD PTR ___security_cookie
  00019	33 c5		 xor	 eax, ebp
  0001b	50		 push	 eax
  0001c	8d 45 f4	 lea	 eax, DWORD PTR __$EHRec$[ebp]
  0001f	64 a3 00 00 00
	00		 mov	 DWORD PTR fs:0, eax
  00025	8b f1		 mov	 esi, ecx
  00027	8b 5d 08	 mov	 ebx, DWORD PTR ___flags$[ebp]
  0002a	8b fb		 mov	 edi, ebx
  0002c	83 e7 01	 and	 edi, 1
  0002f	f6 c3 02	 test	 bl, 2
  00032	74 43		 je	 SHORT $LN2@vector
  00034	68 00 00 00 00	 push	 OFFSET ??1i3Stream@@UAE@XZ ; i3Stream::~i3Stream
  00039	ff 76 fc	 push	 DWORD PTR [esi-4]
  0003c	8d 5e fc	 lea	 ebx, DWORD PTR [esi-4]
  0003f	6a 24		 push	 36			; 00000024H
  00041	56		 push	 esi
  00042	e8 00 00 00 00	 call	 ??_M@YGXPAXIIP6EX0@Z@Z
  00047	85 ff		 test	 edi, edi
  00049	74 16		 je	 SHORT $LN3@vector
  0004b	8b 0b		 mov	 ecx, DWORD PTR [ebx]
  0004d	8d 0c c9	 lea	 ecx, DWORD PTR [ecx+ecx*8]
  00050	8d 0c 8d 04 00
	00 00		 lea	 ecx, DWORD PTR [ecx*4+4]
  00057	51		 push	 ecx
  00058	53		 push	 ebx
  00059	e8 00 00 00 00	 call	 ??_V@YAXPAXI@Z		; operator delete[]
  0005e	83 c4 08	 add	 esp, 8
$LN3@vector:
  00061	8b c3		 mov	 eax, ebx
  00063	8b 4d f4	 mov	 ecx, DWORD PTR __$EHRec$[ebp]
  00066	64 89 0d 00 00
	00 00		 mov	 DWORD PTR fs:0, ecx
  0006d	59		 pop	 ecx
  0006e	5f		 pop	 edi
  0006f	5e		 pop	 esi
  00070	5b		 pop	 ebx
  00071	8b e5		 mov	 esp, ebp
  00073	5d		 pop	 ebp
  00074	c2 04 00	 ret	 4
$LN2@vector:
  00077	e8 00 00 00 00	 call	 ??1i3Stream@@UAE@XZ	; i3Stream::~i3Stream
  0007c	85 ff		 test	 edi, edi
  0007e	74 1b		 je	 SHORT $LN6@vector
  00080	f6 c3 04	 test	 bl, 4
  00083	75 0b		 jne	 SHORT $LN5@vector
  00085	56		 push	 esi
  00086	e8 00 00 00 00	 call	 ??3i3ElementBase@@SAXPAX@Z ; i3ElementBase::operator delete
  0008b	83 c4 04	 add	 esp, 4
  0008e	eb 0b		 jmp	 SHORT $LN6@vector
$LN5@vector:

  00090	6a 24		 push	 36			; 00000024H
  00092	56		 push	 esi
  00093	e8 00 00 00 00	 call	 ??3@YAXPAXI@Z		; operator delete
  00098	83 c4 08	 add	 esp, 8
$LN6@vector:
  0009b	8b c6		 mov	 eax, esi
  0009d	8b 4d f4	 mov	 ecx, DWORD PTR __$EHRec$[ebp]
  000a0	64 89 0d 00 00
	00 00		 mov	 DWORD PTR fs:0, ecx
  000a7	59		 pop	 ecx
  000a8	5f		 pop	 edi
  000a9	5e		 pop	 esi
  000aa	5b		 pop	 ebx
  000ab	8b e5		 mov	 esp, ebp
  000ad	5d		 pop	 ebp
  000ae	c2 04 00	 ret	 4
  000b1	cc		 int	 3
  000b2	cc		 int	 3
  000b3	cc		 int	 3
  000b4	cc		 int	 3
  000b5	cc		 int	 3
_TEXT	ENDS
;	COMDAT text$x
text$x	SEGMENT
__ehhandler$??_Ei3Stream@@UAEPAXI@Z:
  00000	90		 npad	 1
  00001	90		 npad	 1
  00002	8b 54 24 08	 mov	 edx, DWORD PTR [esp+8]
  00006	8d 42 0c	 lea	 eax, DWORD PTR [edx+12]
  00009	8b 4a f0	 mov	 ecx, DWORD PTR [edx-16]
  0000c	33 c8		 xor	 ecx, eax
  0000e	e8 00 00 00 00	 call	 @__security_check_cookie@4
  00013	b8 00 00 00 00	 mov	 eax, OFFSET __ehfuncinfo$??_Ei3Stream@@UAEPAXI@Z
  00018	e9 00 00 00 00	 jmp	 ___CxxFrameHandler3
text$x	ENDS
??_Ei3Stream@@UAEPAXI@Z ENDP				; i3Stream::`vector deleting destructor'
; Function compile flags: /Ogtp
; File E:\Proyectos\JuegosOnlineproyectos\PB\pbblow\Piercing Blow Remake\i3Server\src\i3Base\i3NetworkFTP.cpp
;	COMDAT ??_Gi3Stream@@UAEPAXI@Z
_TEXT	SEGMENT
___flags$ = 8						; size = 4
??_Gi3Stream@@UAEPAXI@Z PROC				; i3Stream::`scalar deleting destructor', COMDAT
; _this$ = ecx
  00000	55		 push	 ebp
  00001	8b ec		 mov	 ebp, esp
  00003	56		 push	 esi
  00004	8b f1		 mov	 esi, ecx
  00006	e8 00 00 00 00	 call	 ??1i3Stream@@UAE@XZ	; i3Stream::~i3Stream
  0000b	8b 45 08	 mov	 eax, DWORD PTR ___flags$[ebp]
  0000e	a8 01		 test	 al, 1
  00010	74 1f		 je	 SHORT $LN10@scalar
  00012	a8 04		 test	 al, 4
  00014	75 10		 jne	 SHORT $LN3@scalar
  00016	56		 push	 esi
  00017	e8 00 00 00 00	 call	 ??3i3ElementBase@@SAXPAX@Z ; i3ElementBase::operator delete
  0001c	83 c4 04	 add	 esp, 4
  0001f	8b c6		 mov	 eax, esi
  00021	5e		 pop	 esi
  00022	5d		 pop	 ebp
  00023	c2 04 00	 ret	 4
$LN3@scalar:

  00026	6a 24		 push	 36			; 00000024H
  00028	56		 push	 esi
  00029	e8 00 00 00 00	 call	 ??3@YAXPAXI@Z		; operator delete
  0002e	83 c4 08	 add	 esp, 8
$LN10@scalar:
  00031	8b c6		 mov	 eax, esi
  00033	5e		 pop	 esi
  00034	5d		 pop	 ebp
  00035	c2 04 00	 ret	 4
??_Gi3Stream@@UAEPAXI@Z ENDP				; i3Stream::`scalar deleting destructor'
_TEXT	ENDS
; Function compile flags: /Ogtp
;	COMDAT ??4i3Stream@@QAEAAV0@ABV0@@Z
_TEXT	SEGMENT
___that$ = 8						; size = 4
??4i3Stream@@QAEAAV0@ABV0@@Z PROC			; i3Stream::operator=, COMDAT
; _this$ = ecx
  00000	55		 push	 ebp
  00001	8b ec		 mov	 ebp, esp
  00003	8b 55 08	 mov	 edx, DWORD PTR ___that$[ebp]
  00006	8b 42 04	 mov	 eax, DWORD PTR [edx+4]
  00009	89 41 04	 mov	 DWORD PTR [ecx+4], eax
  0000c	8b 42 08	 mov	 eax, DWORD PTR [edx+8]
  0000f	89 41 08	 mov	 DWORD PTR [ecx+8], eax
  00012	8b 42 0c	 mov	 eax, DWORD PTR [edx+12]
  00015	89 41 0c	 mov	 DWORD PTR [ecx+12], eax
  00018	8b 42 10	 mov	 eax, DWORD PTR [edx+16]
  0001b	89 41 10	 mov	 DWORD PTR [ecx+16], eax
  0001e	8b 42 14	 mov	 eax, DWORD PTR [edx+20]
  00021	89 41 14	 mov	 DWORD PTR [ecx+20], eax
  00024	8b 42 18	 mov	 eax, DWORD PTR [edx+24]
  00027	89 41 18	 mov	 DWORD PTR [ecx+24], eax
  0002a	8b 42 1c	 mov	 eax, DWORD PTR [edx+28]
  0002d	89 41 1c	 mov	 DWORD PTR [ecx+28], eax
  00030	8b 42 20	 mov	 eax, DWORD PTR [edx+32]
  00033	89 41 20	 mov	 DWORD PTR [ecx+32], eax
  00036	8b c1		 mov	 eax, ecx
  00038	5d		 pop	 ebp
  00039	c2 04 00	 ret	 4
??4i3Stream@@QAEAAV0@ABV0@@Z ENDP			; i3Stream::operator=
_TEXT	ENDS
; Function compile flags: /Ogtp
;	COMDAT ??0i3Stream@@QAE@ABV0@@Z
_TEXT	SEGMENT
___that$ = 8						; size = 4
??0i3Stream@@QAE@ABV0@@Z PROC				; i3Stream::i3Stream, COMDAT
; _this$ = ecx
  00000	55		 push	 ebp
  00001	8b ec		 mov	 ebp, esp
  00003	8b 55 08	 mov	 edx, DWORD PTR ___that$[ebp]
  00006	c7 01 00 00 00
	00		 mov	 DWORD PTR [ecx], OFFSET ??_7i3ElementBase@@6B@
  0000c	8b 42 04	 mov	 eax, DWORD PTR [edx+4]
  0000f	89 41 04	 mov	 DWORD PTR [ecx+4], eax
  00012	8b 42 08	 mov	 eax, DWORD PTR [edx+8]
  00015	89 41 08	 mov	 DWORD PTR [ecx+8], eax
  00018	8b 42 0c	 mov	 eax, DWORD PTR [edx+12]
  0001b	89 41 0c	 mov	 DWORD PTR [ecx+12], eax
  0001e	c7 01 00 00 00
	00		 mov	 DWORD PTR [ecx], OFFSET ??_7i3Stream@@6B@
  00024	8b 42 10	 mov	 eax, DWORD PTR [edx+16]
  00027	89 41 10	 mov	 DWORD PTR [ecx+16], eax
  0002a	8b 42 14	 mov	 eax, DWORD PTR [edx+20]
  0002d	89 41 14	 mov	 DWORD PTR [ecx+20], eax
  00030	8b 42 18	 mov	 eax, DWORD PTR [edx+24]
  00033	89 41 18	 mov	 DWORD PTR [ecx+24], eax
  00036	8b 42 1c	 mov	 eax, DWORD PTR [edx+28]
  00039	89 41 1c	 mov	 DWORD PTR [ecx+28], eax
  0003c	8b 42 20	 mov	 eax, DWORD PTR [edx+32]
  0003f	89 41 20	 mov	 DWORD PTR [ecx+32], eax
  00042	8b c1		 mov	 eax, ecx
  00044	5d		 pop	 ebp
  00045	c2 04 00	 ret	 4
??0i3Stream@@QAE@ABV0@@Z ENDP				; i3Stream::i3Stream
_TEXT	ENDS
; Function compile flags: /Ogtp
; File E:\Proyectos\JuegosOnlineproyectos\PB\pbblow\Piercing Blow Remake\i3Server\include\i3Base\i3Stream.h
;	COMDAT ?GetRecordSize@i3Stream@@QAEIXZ
_TEXT	SEGMENT
?GetRecordSize@i3Stream@@QAEIXZ PROC			; i3Stream::GetRecordSize, COMDAT
; _this$ = ecx

; 58   : 	UINT32	GetRecordSize(void)							{ return m_RecordSize; }

  00000	8b 41 14	 mov	 eax, DWORD PTR [ecx+20]
  00003	c3		 ret	 0
?GetRecordSize@i3Stream@@QAEIXZ ENDP			; i3Stream::GetRecordSize
_TEXT	ENDS
; Function compile flags: /Ogtp
; File E:\Proyectos\JuegosOnlineproyectos\PB\pbblow\Piercing Blow Remake\i3Server\include\i3Base\i3Stream.h
;	COMDAT ?BeginRecord@i3Stream@@QAEXXZ
_TEXT	SEGMENT
?BeginRecord@i3Stream@@QAEXXZ PROC			; i3Stream::BeginRecord, COMDAT
; _this$ = ecx

; 57   : 	void	BeginRecord(void)							{ m_RecordSize = 0; }

  00000	c7 41 14 00 00
	00 00		 mov	 DWORD PTR [ecx+20], 0
  00007	c3		 ret	 0
?BeginRecord@i3Stream@@QAEXXZ ENDP			; i3Stream::BeginRecord
_TEXT	ENDS
; Function compile flags: /Ogtp
; File E:\Proyectos\JuegosOnlineproyectos\PB\pbblow\Piercing Blow Remake\i3Server\include\i3Base\i3Stream.h
;	COMDAT ?GetHandle@i3Stream@@UAEPAXXZ
_TEXT	SEGMENT
?GetHandle@i3Stream@@UAEPAXXZ PROC			; i3Stream::GetHandle, COMDAT
; _this$ = ecx

; 55   : 	virtual void *			GetHandle(void)				{ return m_pHandle; }

  00000	8b 41 20	 mov	 eax, DWORD PTR [ecx+32]
  00003	c3		 ret	 0
?GetHandle@i3Stream@@UAEPAXXZ ENDP			; i3Stream::GetHandle
_TEXT	ENDS
; Function compile flags: /Ogtp
; File E:\Proyectos\JuegosOnlineproyectos\PB\pbblow\Piercing Blow Remake\i3Server\include\i3Base\i3Stream.h
;	COMDAT ?GetAccessMode@i3Stream@@QAEHXZ
_TEXT	SEGMENT
?GetAccessMode@i3Stream@@QAEHXZ PROC			; i3Stream::GetAccessMode, COMDAT
; _this$ = ecx

; 53   : 	INT32			GetAccessMode(void)					{ return m_Access; }

  00000	8b 41 1c	 mov	 eax, DWORD PTR [ecx+28]
  00003	c3		 ret	 0
?GetAccessMode@i3Stream@@QAEHXZ ENDP			; i3Stream::GetAccessMode
_TEXT	ENDS
; Function compile flags: /Ogtp
; File E:\Proyectos\JuegosOnlineproyectos\PB\pbblow\Piercing Blow Remake\i3Server\include\i3Base\i3Stream.h
;	COMDAT ?GetLastError@i3Stream@@QAE?AW4STREAMCODE@1@XZ
_TEXT	SEGMENT
?GetLastError@i3Stream@@QAE?AW4STREAMCODE@1@XZ PROC	; i3Stream::GetLastError, COMDAT
; _this$ = ecx

; 52   : 	STREAMCODE		GetLastError(void)					{ return m_LastCode; }

  00000	8b 41 18	 mov	 eax, DWORD PTR [ecx+24]
  00003	c3		 ret	 0
?GetLastError@i3Stream@@QAE?AW4STREAMCODE@1@XZ ENDP	; i3Stream::GetLastError
_TEXT	ENDS
; Function compile flags: /Ogtp
; File E:\Proyectos\JuegosOnlineproyectos\PB\pbblow\Piercing Blow Remake\i3Server\include\i3Base\i3Stream.h
;	COMDAT ?GetSize@i3Stream@@QAEIXZ
_TEXT	SEGMENT
?GetSize@i3Stream@@QAEIXZ PROC				; i3Stream::GetSize, COMDAT
; _this$ = ecx

; 51   : 	UINT32			GetSize(void)						{ return m_Size; }

  00000	8b 41 10	 mov	 eax, DWORD PTR [ecx+16]
  00003	c3		 ret	 0
?GetSize@i3Stream@@QAEIXZ ENDP				; i3Stream::GetSize
_TEXT	ENDS
; Function compile flags: /Ogtp
; File E:\Proyectos\JuegosOnlineproyectos\PB\pbblow\Piercing Blow Remake\i3Server\include\i3Base\i3Stream.h
;	COMDAT ?GetClassMeta@i3Stream@@SAPAVi3ClassMeta@@XZ
_TEXT	SEGMENT
?GetClassMeta@i3Stream@@SAPAVi3ClassMeta@@XZ PROC	; i3Stream::GetClassMeta, COMDAT

; 24   : 	I3_ABSTRACT_CLASS_DEFINE( i3Stream);

  00000	a1 00 00 00 00	 mov	 eax, DWORD PTR ?s_pClassMetai3Stream@i3Stream@@2PAVi3ClassMeta@@A ; i3Stream::s_pClassMetai3Stream
  00005	c3		 ret	 0
?GetClassMeta@i3Stream@@SAPAVi3ClassMeta@@XZ ENDP	; i3Stream::GetClassMeta
_TEXT	ENDS
; Function compile flags: /Ogtp
; File E:\Proyectos\JuegosOnlineproyectos\PB\pbblow\Piercing Blow Remake\i3Server\src\i3Base\i3NetworkFTP.cpp
;	COMDAT ??_Ei3NetworkFTP@@UAEPAXI@Z
_TEXT	SEGMENT
__$EHRec$ = -12						; size = 12
___flags$ = 8						; size = 4
??_Ei3NetworkFTP@@UAEPAXI@Z PROC			; i3NetworkFTP::`vector deleting destructor', COMDAT
; _this$ = ecx
  00000	55		 push	 ebp
  00001	8b ec		 mov	 ebp, esp
  00003	6a ff		 push	 -1
  00005	68 00 00 00 00	 push	 __ehhandler$??_Ei3NetworkFTP@@UAEPAXI@Z
  0000a	64 a1 00 00 00
	00		 mov	 eax, DWORD PTR fs:0
  00010	50		 push	 eax
  00011	53		 push	 ebx
  00012	56		 push	 esi
  00013	57		 push	 edi
  00014	a1 00 00 00 00	 mov	 eax, DWORD PTR ___security_cookie
  00019	33 c5		 xor	 eax, ebp
  0001b	50		 push	 eax
  0001c	8d 45 f4	 lea	 eax, DWORD PTR __$EHRec$[ebp]
  0001f	64 a3 00 00 00
	00		 mov	 DWORD PTR fs:0, eax
  00025	8b f1		 mov	 esi, ecx
  00027	8b 5d 08	 mov	 ebx, DWORD PTR ___flags$[ebp]
  0002a	8b fb		 mov	 edi, ebx
  0002c	83 e7 01	 and	 edi, 1
  0002f	f6 c3 02	 test	 bl, 2
  00032	74 43		 je	 SHORT $LN2@vector
  00034	68 00 00 00 00	 push	 OFFSET ??1i3NetworkFTP@@UAE@XZ ; i3NetworkFTP::~i3NetworkFTP
  00039	ff 76 fc	 push	 DWORD PTR [esi-4]
  0003c	8d 5e fc	 lea	 ebx, DWORD PTR [esi-4]
  0003f	68 b4 03 00 00	 push	 948			; 000003b4H
  00044	56		 push	 esi
  00045	e8 00 00 00 00	 call	 ??_M@YGXPAXIIP6EX0@Z@Z
  0004a	85 ff		 test	 edi, edi
  0004c	74 13		 je	 SHORT $LN3@vector
  0004e	69 0b b4 03 00
	00		 imul	 ecx, DWORD PTR [ebx], 948
  00054	83 c1 04	 add	 ecx, 4
  00057	51		 push	 ecx
  00058	53		 push	 ebx
  00059	e8 00 00 00 00	 call	 ??_V@YAXPAXI@Z		; operator delete[]
  0005e	83 c4 08	 add	 esp, 8
$LN3@vector:
  00061	8b c3		 mov	 eax, ebx
  00063	8b 4d f4	 mov	 ecx, DWORD PTR __$EHRec$[ebp]
  00066	64 89 0d 00 00
	00 00		 mov	 DWORD PTR fs:0, ecx
  0006d	59		 pop	 ecx
  0006e	5f		 pop	 edi
  0006f	5e		 pop	 esi
  00070	5b		 pop	 ebx
  00071	8b e5		 mov	 esp, ebp
  00073	5d		 pop	 ebp
  00074	c2 04 00	 ret	 4
$LN2@vector:

; 30   : {

  00077	c7 06 00 00 00
	00		 mov	 DWORD PTR [esi], OFFSET ??_7i3NetworkFTP@@6B@

; 31   : }

  0007d	e8 00 00 00 00	 call	 ??1i3ElementBase@@UAE@XZ ; i3ElementBase::~i3ElementBase
  00082	85 ff		 test	 edi, edi
  00084	74 1e		 je	 SHORT $LN6@vector
  00086	f6 c3 04	 test	 bl, 4
  00089	75 0b		 jne	 SHORT $LN5@vector
  0008b	56		 push	 esi
  0008c	e8 00 00 00 00	 call	 ??3i3ElementBase@@SAXPAX@Z ; i3ElementBase::operator delete
  00091	83 c4 04	 add	 esp, 4
  00094	eb 0e		 jmp	 SHORT $LN6@vector
$LN5@vector:

  00096	68 b4 03 00 00	 push	 948			; 000003b4H
  0009b	56		 push	 esi
  0009c	e8 00 00 00 00	 call	 ??3@YAXPAXI@Z		; operator delete
  000a1	83 c4 08	 add	 esp, 8
$LN6@vector:
  000a4	8b c6		 mov	 eax, esi
  000a6	8b 4d f4	 mov	 ecx, DWORD PTR __$EHRec$[ebp]
  000a9	64 89 0d 00 00
	00 00		 mov	 DWORD PTR fs:0, ecx
  000b0	59		 pop	 ecx
  000b1	5f		 pop	 edi
  000b2	5e		 pop	 esi
  000b3	5b		 pop	 ebx
  000b4	8b e5		 mov	 esp, ebp
  000b6	5d		 pop	 ebp
  000b7	c2 04 00	 ret	 4
  000ba	cc		 int	 3
  000bb	cc		 int	 3
  000bc	cc		 int	 3
  000bd	cc		 int	 3
  000be	cc		 int	 3
_TEXT	ENDS
;	COMDAT text$x
text$x	SEGMENT
__ehhandler$??_Ei3NetworkFTP@@UAEPAXI@Z:
  00000	90		 npad	 1
  00001	90		 npad	 1
  00002	8b 54 24 08	 mov	 edx, DWORD PTR [esp+8]
  00006	8d 42 0c	 lea	 eax, DWORD PTR [edx+12]
  00009	8b 4a f0	 mov	 ecx, DWORD PTR [edx-16]
  0000c	33 c8		 xor	 ecx, eax
  0000e	e8 00 00 00 00	 call	 @__security_check_cookie@4
  00013	b8 00 00 00 00	 mov	 eax, OFFSET __ehfuncinfo$??_Ei3NetworkFTP@@UAEPAXI@Z
  00018	e9 00 00 00 00	 jmp	 ___CxxFrameHandler3
text$x	ENDS
??_Ei3NetworkFTP@@UAEPAXI@Z ENDP			; i3NetworkFTP::`vector deleting destructor'
; Function compile flags: /Ogtp
; File E:\Proyectos\JuegosOnlineproyectos\PB\pbblow\Piercing Blow Remake\i3Server\src\i3Base\i3NetworkFTP.cpp
;	COMDAT ??_Gi3NetworkFTP@@UAEPAXI@Z
_TEXT	SEGMENT
___flags$ = 8						; size = 4
??_Gi3NetworkFTP@@UAEPAXI@Z PROC			; i3NetworkFTP::`scalar deleting destructor', COMDAT
; _this$ = ecx
  00000	55		 push	 ebp
  00001	8b ec		 mov	 ebp, esp

; 30   : {

  00003	56		 push	 esi
  00004	8b f1		 mov	 esi, ecx
  00006	c7 06 00 00 00
	00		 mov	 DWORD PTR [esi], OFFSET ??_7i3NetworkFTP@@6B@

; 31   : }

  0000c	e8 00 00 00 00	 call	 ??1i3ElementBase@@UAE@XZ ; i3ElementBase::~i3ElementBase
  00011	8b 45 08	 mov	 eax, DWORD PTR ___flags$[ebp]
  00014	a8 01		 test	 al, 1
  00016	74 22		 je	 SHORT $LN15@scalar
  00018	a8 04		 test	 al, 4
  0001a	75 10		 jne	 SHORT $LN3@scalar
  0001c	56		 push	 esi
  0001d	e8 00 00 00 00	 call	 ??3i3ElementBase@@SAXPAX@Z ; i3ElementBase::operator delete
  00022	83 c4 04	 add	 esp, 4
  00025	8b c6		 mov	 eax, esi
  00027	5e		 pop	 esi
  00028	5d		 pop	 ebp
  00029	c2 04 00	 ret	 4
$LN3@scalar:

  0002c	68 b4 03 00 00	 push	 948			; 000003b4H
  00031	56		 push	 esi
  00032	e8 00 00 00 00	 call	 ??3@YAXPAXI@Z		; operator delete
  00037	83 c4 08	 add	 esp, 8
$LN15@scalar:
  0003a	8b c6		 mov	 eax, esi
  0003c	5e		 pop	 esi
  0003d	5d		 pop	 ebp
  0003e	c2 04 00	 ret	 4
??_Gi3NetworkFTP@@UAEPAXI@Z ENDP			; i3NetworkFTP::`scalar deleting destructor'
_TEXT	ENDS
; Function compile flags: /Ogtp
;	COMDAT ??4i3NetworkFTP@@QAEAAV0@ABV0@@Z
_TEXT	SEGMENT
___that$ = 8						; size = 4
??4i3NetworkFTP@@QAEAAV0@ABV0@@Z PROC			; i3NetworkFTP::operator=, COMDAT
; _this$ = ecx
  00000	55		 push	 ebp
  00001	8b ec		 mov	 ebp, esp
  00003	8b 55 08	 mov	 edx, DWORD PTR ___that$[ebp]
  00006	56		 push	 esi
  00007	33 f6		 xor	 esi, esi
  00009	8b 42 04	 mov	 eax, DWORD PTR [edx+4]
  0000c	89 41 04	 mov	 DWORD PTR [ecx+4], eax
  0000f	8b 42 08	 mov	 eax, DWORD PTR [edx+8]
  00012	89 41 08	 mov	 DWORD PTR [ecx+8], eax
  00015	8b 42 0c	 mov	 eax, DWORD PTR [edx+12]
  00018	89 41 0c	 mov	 DWORD PTR [ecx+12], eax
  0001b	8b 42 10	 mov	 eax, DWORD PTR [edx+16]
  0001e	89 41 10	 mov	 DWORD PTR [ecx+16], eax
  00021	8b 42 14	 mov	 eax, DWORD PTR [edx+20]
  00024	89 41 14	 mov	 DWORD PTR [ecx+20], eax
  00027	8b 42 18	 mov	 eax, DWORD PTR [edx+24]
  0002a	89 41 18	 mov	 DWORD PTR [ecx+24], eax
  0002d	8d 49 00	 npad	 3
$LL4@operator:
  00030	8a 44 32 1c	 mov	 al, BYTE PTR [edx+esi+28]
  00034	88 44 31 1c	 mov	 BYTE PTR [ecx+esi+28], al
  00038	46		 inc	 esi
  00039	83 fe 40	 cmp	 esi, 64			; 00000040H
  0003c	72 f2		 jb	 SHORT $LL4@operator
  0003e	66 8b 42 5c	 mov	 ax, WORD PTR [edx+92]
  00042	33 f6		 xor	 esi, esi
  00044	66 89 41 5c	 mov	 WORD PTR [ecx+92], ax
  00048	eb 06 8d 9b 00
	00 00 00	 npad	 8
$LL7@operator:
  00050	8a 44 32 5e	 mov	 al, BYTE PTR [edx+esi+94]
  00054	88 44 31 5e	 mov	 BYTE PTR [ecx+esi+94], al
  00058	46		 inc	 esi
  00059	83 fe 20	 cmp	 esi, 32			; 00000020H
  0005c	72 f2		 jb	 SHORT $LL7@operator
  0005e	33 f6		 xor	 esi, esi
$LL10@operator:
  00060	8a 44 32 7e	 mov	 al, BYTE PTR [edx+esi+126]
  00064	88 44 31 7e	 mov	 BYTE PTR [ecx+esi+126], al
  00068	46		 inc	 esi
  00069	83 fe 20	 cmp	 esi, 32			; 00000020H
  0006c	72 f2		 jb	 SHORT $LL10@operator
  0006e	33 f6		 xor	 esi, esi
$LL13@operator:
  00070	8a 84 32 9e 00
	00 00		 mov	 al, BYTE PTR [edx+esi+158]
  00077	88 84 31 9e 00
	00 00		 mov	 BYTE PTR [ecx+esi+158], al
  0007e	46		 inc	 esi
  0007f	81 fe 00 01 00
	00		 cmp	 esi, 256		; 00000100H
  00085	72 e9		 jb	 SHORT $LL13@operator
  00087	8b 82 a0 01 00
	00		 mov	 eax, DWORD PTR [edx+416]
  0008d	33 f6		 xor	 esi, esi
  0008f	89 81 a0 01 00
	00		 mov	 DWORD PTR [ecx+416], eax
  00095	8b 82 a4 01 00
	00		 mov	 eax, DWORD PTR [edx+420]
  0009b	89 81 a4 01 00
	00		 mov	 DWORD PTR [ecx+420], eax
  000a1	8b 82 a8 01 00
	00		 mov	 eax, DWORD PTR [edx+424]
  000a7	89 81 a8 01 00
	00		 mov	 DWORD PTR [ecx+424], eax
  000ad	8d 49 00	 npad	 3
$LL16@operator:
  000b0	8a 84 32 ac 01
	00 00		 mov	 al, BYTE PTR [edx+esi+428]
  000b7	88 84 31 ac 01
	00 00		 mov	 BYTE PTR [ecx+esi+428], al
  000be	46		 inc	 esi
  000bf	81 fe 04 01 00
	00		 cmp	 esi, 260		; 00000104H
  000c5	72 e9		 jb	 SHORT $LL16@operator
  000c7	33 f6		 xor	 esi, esi
  000c9	8d a4 24 00 00
	00 00		 npad	 7
$LL19@operator:
  000d0	8a 84 32 b0 02
	00 00		 mov	 al, BYTE PTR [edx+esi+688]
  000d7	88 84 31 b0 02
	00 00		 mov	 BYTE PTR [ecx+esi+688], al
  000de	46		 inc	 esi
  000df	81 fe 04 01 00
	00		 cmp	 esi, 260		; 00000104H
  000e5	72 e9		 jb	 SHORT $LL19@operator
  000e7	5e		 pop	 esi
  000e8	8b c1		 mov	 eax, ecx
  000ea	5d		 pop	 ebp
  000eb	c2 04 00	 ret	 4
??4i3NetworkFTP@@QAEAAV0@ABV0@@Z ENDP			; i3NetworkFTP::operator=
_TEXT	ENDS
; Function compile flags: /Ogtp
;	COMDAT ??0i3NetworkFTP@@QAE@ABV0@@Z
_TEXT	SEGMENT
___that$ = 8						; size = 4
??0i3NetworkFTP@@QAE@ABV0@@Z PROC			; i3NetworkFTP::i3NetworkFTP, COMDAT
; _this$ = ecx
  00000	55		 push	 ebp
  00001	8b ec		 mov	 ebp, esp
  00003	8b 55 08	 mov	 edx, DWORD PTR ___that$[ebp]
  00006	53		 push	 ebx
  00007	8b d9		 mov	 ebx, ecx
  00009	b9 10 00 00 00	 mov	 ecx, 16			; 00000010H
  0000e	56		 push	 esi
  0000f	57		 push	 edi
  00010	8d 72 1c	 lea	 esi, DWORD PTR [edx+28]
  00013	c7 03 00 00 00
	00		 mov	 DWORD PTR [ebx], OFFSET ??_7i3ElementBase@@6B@
  00019	8d 7b 1c	 lea	 edi, DWORD PTR [ebx+28]
  0001c	8b 42 04	 mov	 eax, DWORD PTR [edx+4]
  0001f	89 43 04	 mov	 DWORD PTR [ebx+4], eax
  00022	8b 42 08	 mov	 eax, DWORD PTR [edx+8]
  00025	89 43 08	 mov	 DWORD PTR [ebx+8], eax
  00028	8b 42 0c	 mov	 eax, DWORD PTR [edx+12]
  0002b	89 43 0c	 mov	 DWORD PTR [ebx+12], eax
  0002e	c7 03 00 00 00
	00		 mov	 DWORD PTR [ebx], OFFSET ??_7i3NetworkFTP@@6B@
  00034	8b 42 10	 mov	 eax, DWORD PTR [edx+16]
  00037	89 43 10	 mov	 DWORD PTR [ebx+16], eax
  0003a	8b 42 14	 mov	 eax, DWORD PTR [edx+20]
  0003d	89 43 14	 mov	 DWORD PTR [ebx+20], eax
  00040	8b 42 18	 mov	 eax, DWORD PTR [edx+24]
  00043	89 43 18	 mov	 DWORD PTR [ebx+24], eax
  00046	f3 a5		 rep movsd
  00048	66 8b 42 5c	 mov	 ax, WORD PTR [edx+92]
  0004c	8d 7b 5e	 lea	 edi, DWORD PTR [ebx+94]
  0004f	66 89 43 5c	 mov	 WORD PTR [ebx+92], ax
  00053	8d 72 5e	 lea	 esi, DWORD PTR [edx+94]
  00056	b9 08 00 00 00	 mov	 ecx, 8
  0005b	f3 a5		 rep movsd
  0005d	8d 7b 7e	 lea	 edi, DWORD PTR [ebx+126]
  00060	b9 08 00 00 00	 mov	 ecx, 8
  00065	8d 72 7e	 lea	 esi, DWORD PTR [edx+126]
  00068	f3 a5		 rep movsd
  0006a	8d bb 9e 00 00
	00		 lea	 edi, DWORD PTR [ebx+158]
  00070	b9 40 00 00 00	 mov	 ecx, 64			; 00000040H
  00075	8d b2 9e 00 00
	00		 lea	 esi, DWORD PTR [edx+158]
  0007b	f3 a5		 rep movsd
  0007d	8b 82 a0 01 00
	00		 mov	 eax, DWORD PTR [edx+416]
  00083	8d bb ac 01 00
	00		 lea	 edi, DWORD PTR [ebx+428]
  00089	89 83 a0 01 00
	00		 mov	 DWORD PTR [ebx+416], eax
  0008f	8d b2 ac 01 00
	00		 lea	 esi, DWORD PTR [edx+428]
  00095	8b 82 a4 01 00
	00		 mov	 eax, DWORD PTR [edx+420]
  0009b	b9 41 00 00 00	 mov	 ecx, 65			; 00000041H
  000a0	89 83 a4 01 00
	00		 mov	 DWORD PTR [ebx+420], eax
  000a6	8b 82 a8 01 00
	00		 mov	 eax, DWORD PTR [edx+424]
  000ac	89 83 a8 01 00
	00		 mov	 DWORD PTR [ebx+424], eax
  000b2	8b c3		 mov	 eax, ebx
  000b4	f3 a5		 rep movsd
  000b6	8d bb b0 02 00
	00		 lea	 edi, DWORD PTR [ebx+688]
  000bc	b9 41 00 00 00	 mov	 ecx, 65			; 00000041H
  000c1	8d b2 b0 02 00
	00		 lea	 esi, DWORD PTR [edx+688]
  000c7	f3 a5		 rep movsd
  000c9	5f		 pop	 edi
  000ca	5e		 pop	 esi
  000cb	5b		 pop	 ebx
  000cc	5d		 pop	 ebp
  000cd	c2 04 00	 ret	 4
??0i3NetworkFTP@@QAE@ABV0@@Z ENDP			; i3NetworkFTP::i3NetworkFTP
_TEXT	ENDS
; Function compile flags: /Ogtp
; File E:\Proyectos\JuegosOnlineproyectos\PB\pbblow\Piercing Blow Remake\i3Server\src\i3Base\i3NetworkFTP.cpp
;	COMDAT ?OnUpLoad@i3NetworkFTP@@UAEXXZ
_TEXT	SEGMENT
?OnUpLoad@i3NetworkFTP@@UAEXXZ PROC			; i3NetworkFTP::OnUpLoad, COMDAT
; _this$ = ecx

; 410  : 
; 411  : }

  00000	c2 00 00	 ret	 0
?OnUpLoad@i3NetworkFTP@@UAEXXZ ENDP			; i3NetworkFTP::OnUpLoad
_TEXT	ENDS
; Function compile flags: /Ogtp
; File E:\Proyectos\JuegosOnlineproyectos\PB\pbblow\Piercing Blow Remake\i3Server\src\i3Base\i3NetworkFTP.cpp
;	COMDAT ?OnDownLoad@i3NetworkFTP@@UAEXXZ
_TEXT	SEGMENT
?OnDownLoad@i3NetworkFTP@@UAEXXZ PROC			; i3NetworkFTP::OnDownLoad, COMDAT
; _this$ = ecx

; 406  : }

  00000	c2 00 00	 ret	 0
?OnDownLoad@i3NetworkFTP@@UAEXXZ ENDP			; i3NetworkFTP::OnDownLoad
_TEXT	ENDS
; Function compile flags: /Ogtp
; File E:\Proyectos\JuegosOnlineproyectos\PB\pbblow\Piercing Blow Remake\i3Server\src\i3Base\i3NetworkFTP.cpp
;	COMDAT ?DeleteFileA@i3NetworkFTP@@QAEHPBD@Z
_TEXT	SEGMENT
_pszPath$ = 8						; size = 4
?DeleteFileA@i3NetworkFTP@@QAEHPBD@Z PROC		; i3NetworkFTP::DeleteFileA, COMDAT
; _this$ = ecx

; 398  : {

  00000	55		 push	 ebp
  00001	8b ec		 mov	 ebp, esp

; 399  : 	I3ASSERT( m_hFtp );
; 400  : 
; 401  : 	return ::FtpDeleteFile( m_hFtp, pszPath );

  00003	ff 75 08	 push	 DWORD PTR _pszPath$[ebp]
  00006	ff 71 14	 push	 DWORD PTR [ecx+20]
  00009	ff 15 00 00 00
	00		 call	 DWORD PTR __imp__FtpDeleteFileA@8

; 402  : }

  0000f	5d		 pop	 ebp
  00010	c2 04 00	 ret	 4
?DeleteFileA@i3NetworkFTP@@QAEHPBD@Z ENDP		; i3NetworkFTP::DeleteFileA
_TEXT	ENDS
; Function compile flags: /Ogtp
; File E:\Proyectos\JuegosOnlineproyectos\PB\pbblow\Piercing Blow Remake\i3Server\src\i3Base\i3NetworkFTP.cpp
;	COMDAT ?CheckFile@i3NetworkFTP@@QAEHPBD@Z
_TEXT	SEGMENT
_pszPath$GSCopy$1$ = -592				; size = 4
_dwCDir$ = -588						; size = 4
_wfd$ = -584						; size = 320
_szRemotePath$ = -264					; size = 260
__$ArrayPad$ = -4					; size = 4
_pszPath$ = 8						; size = 4
?CheckFile@i3NetworkFTP@@QAEHPBD@Z PROC			; i3NetworkFTP::CheckFile, COMDAT
; _this$ = ecx

; 363  : {

  00000	55		 push	 ebp
  00001	8b ec		 mov	 ebp, esp
  00003	81 ec 50 02 00
	00		 sub	 esp, 592		; 00000250H
  00009	a1 00 00 00 00	 mov	 eax, DWORD PTR ___security_cookie
  0000e	33 c5		 xor	 eax, ebp
  00010	89 45 fc	 mov	 DWORD PTR __$ArrayPad$[ebp], eax
  00013	53		 push	 ebx
  00014	8b d9		 mov	 ebx, ecx

; 364  : 	HINTERNET hSrch;
; 365  : 	WIN32_FIND_DATA wfd;
; 366  : 
; 367  : 	char	szRemotePath[ MAX_PATH ];
; 368  : 	DWORD	dwCDir = MAX_PATH;

  00016	c7 85 b4 fd ff
	ff 04 01 00 00	 mov	 DWORD PTR _dwCDir$[ebp], 260 ; 00000104H
  00020	56		 push	 esi
  00021	8b 75 08	 mov	 esi, DWORD PTR _pszPath$[ebp]
  00024	89 b5 b0 fd ff
	ff		 mov	 DWORD PTR _pszPath$GSCopy$1$[ebp], esi

; 369  : 
; 370  : 	I3ASSERT( m_hFtp );
; 371  : 
; 372  : 	if( !(getFlags() & I3_FTP_FLAG_CONNECTMAINTAIN) )

  0002a	f6 43 18 02	 test	 BYTE PTR [ebx+24], 2
  0002e	75 09		 jne	 SHORT $LN10@CheckFile

; 373  : 	{
; 374  : 		if( !Connect() )

  00030	e8 00 00 00 00	 call	 ?Connect@i3NetworkFTP@@QAEHXZ ; i3NetworkFTP::Connect
  00035	85 c0		 test	 eax, eax
  00037	74 7c		 je	 SHORT $LN11@CheckFile
$LN10@CheckFile:

; 375  : 			return FALSE;
; 376  : 	}
; 377  : 
; 378  : 	memset( szRemotePath, 0, sizeof( szRemotePath ) );

  00039	68 04 01 00 00	 push	 260			; 00000104H
  0003e	8d 85 f8 fe ff
	ff		 lea	 eax, DWORD PTR _szRemotePath$[ebp]
  00044	6a 00		 push	 0
  00046	50		 push	 eax
  00047	e8 00 00 00 00	 call	 _memset
  0004c	83 c4 0c	 add	 esp, 12			; 0000000cH

; 379  : 	::FtpGetCurrentDirectory( m_hFtp, szRemotePath, &dwCDir );

  0004f	8d 85 b4 fd ff
	ff		 lea	 eax, DWORD PTR _dwCDir$[ebp]
  00055	50		 push	 eax
  00056	8d 85 f8 fe ff
	ff		 lea	 eax, DWORD PTR _szRemotePath$[ebp]
  0005c	50		 push	 eax
  0005d	ff 73 14	 push	 DWORD PTR [ebx+20]
  00060	ff 15 00 00 00
	00		 call	 DWORD PTR __imp__FtpGetCurrentDirectoryA@12

; 380  : 	
; 381  : 	strcat( szRemotePath, pszPath );

  00066	8b d6		 mov	 edx, esi
$LL13@CheckFile:
  00068	8a 02		 mov	 al, BYTE PTR [edx]
  0006a	42		 inc	 edx
  0006b	84 c0		 test	 al, al
  0006d	75 f9		 jne	 SHORT $LL13@CheckFile
  0006f	57		 push	 edi
  00070	8d bd f8 fe ff
	ff		 lea	 edi, DWORD PTR _szRemotePath$[ebp]
  00076	2b d6		 sub	 edx, esi
  00078	4f		 dec	 edi
  00079	8d a4 24 00 00
	00 00		 npad	 7
$LL14@CheckFile:
  00080	8a 47 01	 mov	 al, BYTE PTR [edi+1]
  00083	47		 inc	 edi
  00084	84 c0		 test	 al, al
  00086	75 f8		 jne	 SHORT $LL14@CheckFile
  00088	8b ca		 mov	 ecx, edx

; 382  : 
; 383  : 	hSrch = ::FtpFindFirstFile( m_hFtp, pszPath, &wfd, 0, 0 );

  0008a	8d 85 b8 fd ff
	ff		 lea	 eax, DWORD PTR _wfd$[ebp]
  00090	c1 e9 02	 shr	 ecx, 2
  00093	f3 a5		 rep movsd
  00095	6a 00		 push	 0
  00097	6a 00		 push	 0
  00099	50		 push	 eax
  0009a	ff b5 b0 fd ff
	ff		 push	 DWORD PTR _pszPath$GSCopy$1$[ebp]
  000a0	8b ca		 mov	 ecx, edx
  000a2	ff 73 14	 push	 DWORD PTR [ebx+20]
  000a5	83 e1 03	 and	 ecx, 3
  000a8	f3 a4		 rep movsb
  000aa	ff 15 00 00 00
	00		 call	 DWORD PTR __imp__FtpFindFirstFileA@20
  000b0	5f		 pop	 edi

; 384  : 	if( hSrch == 0 )

  000b1	85 c0		 test	 eax, eax
  000b3	75 14		 jne	 SHORT $LN4@CheckFile
$LN11@CheckFile:
  000b5	5e		 pop	 esi

; 385  : 	{
; 386  : 		return FALSE;

  000b6	33 c0		 xor	 eax, eax

; 392  : 		DisConnect();
; 393  : 
; 394  : 	return TRUE;
; 395  : }

  000b8	5b		 pop	 ebx
  000b9	8b 4d fc	 mov	 ecx, DWORD PTR __$ArrayPad$[ebp]
  000bc	33 cd		 xor	 ecx, ebp
  000be	e8 00 00 00 00	 call	 @__security_check_cookie@4
  000c3	8b e5		 mov	 esp, ebp
  000c5	5d		 pop	 ebp
  000c6	c2 04 00	 ret	 4
$LN4@CheckFile:

; 387  : 	}
; 388  : 
; 389  : 	::InternetCloseHandle( hSrch );

  000c9	8b 35 00 00 00
	00		 mov	 esi, DWORD PTR __imp__InternetCloseHandle@4
  000cf	50		 push	 eax
  000d0	ff d6		 call	 esi

; 390  : 
; 391  : 	if( !(getFlags() & I3_FTP_FLAG_CONNECTMAINTAIN ) )

  000d2	f6 43 18 02	 test	 BYTE PTR [ebx+24], 2
  000d6	75 18		 jne	 SHORT $LN5@CheckFile

; 116  : 	::InternetCloseHandle( m_hFtp );

  000d8	ff 73 14	 push	 DWORD PTR [ebx+20]
  000db	ff d6		 call	 esi

; 117  : 	::InternetCloseHandle( m_hInternet );

  000dd	ff 73 10	 push	 DWORD PTR [ebx+16]
  000e0	ff d6		 call	 esi

; 118  : 	m_hFtp			= NULL;

  000e2	c7 43 14 00 00
	00 00		 mov	 DWORD PTR [ebx+20], 0

; 119  : 	m_hInternet		= NULL;

  000e9	c7 43 10 00 00
	00 00		 mov	 DWORD PTR [ebx+16], 0
$LN5@CheckFile:

; 392  : 		DisConnect();
; 393  : 
; 394  : 	return TRUE;
; 395  : }

  000f0	8b 4d fc	 mov	 ecx, DWORD PTR __$ArrayPad$[ebp]
  000f3	b8 01 00 00 00	 mov	 eax, 1
  000f8	5e		 pop	 esi
  000f9	33 cd		 xor	 ecx, ebp
  000fb	5b		 pop	 ebx
  000fc	e8 00 00 00 00	 call	 @__security_check_cookie@4
  00101	8b e5		 mov	 esp, ebp
  00103	5d		 pop	 ebp
  00104	c2 04 00	 ret	 4
?CheckFile@i3NetworkFTP@@QAEHPBD@Z ENDP			; i3NetworkFTP::CheckFile
_TEXT	ENDS
; Function compile flags: /Ogtp
; File E:\Proyectos\JuegosOnlineproyectos\PB\pbblow\Piercing Blow Remake\i3Server\src\i3Base\i3NetworkFTP.cpp
;	COMDAT ?UploadFile2@i3NetworkFTP@@QAEHPBD0@Z
_TEXT	SEGMENT
_dwWritten$ = -1880					; size = 4
_pszLocalPath$GSCopy$1$ = -1876				; size = 4
_stream$ = -1872					; size = 312
_buf$ = -1560						; size = 1024
_szExt$ = -536						; size = 260
_szRemote$ = -276					; size = 260
__$ArrayPad$ = -16					; size = 4
__$EHRec$ = -12						; size = 12
_pszLocalPath$ = 8					; size = 4
_pszRemotePath$ = 12					; size = 4
?UploadFile2@i3NetworkFTP@@QAEHPBD0@Z PROC		; i3NetworkFTP::UploadFile2, COMDAT
; _this$ = ecx

; 304  : {

  00000	55		 push	 ebp
  00001	8b ec		 mov	 ebp, esp
  00003	6a ff		 push	 -1
  00005	68 00 00 00 00	 push	 __ehhandler$?UploadFile2@i3NetworkFTP@@QAEHPBD0@Z
  0000a	64 a1 00 00 00
	00		 mov	 eax, DWORD PTR fs:0
  00010	50		 push	 eax
  00011	81 ec 4c 07 00
	00		 sub	 esp, 1868		; 0000074cH
  00017	a1 00 00 00 00	 mov	 eax, DWORD PTR ___security_cookie
  0001c	33 c5		 xor	 eax, ebp
  0001e	89 45 f0	 mov	 DWORD PTR __$ArrayPad$[ebp], eax
  00021	53		 push	 ebx
  00022	56		 push	 esi
  00023	57		 push	 edi
  00024	50		 push	 eax
  00025	8d 45 f4	 lea	 eax, DWORD PTR __$EHRec$[ebp]
  00028	64 a3 00 00 00
	00		 mov	 DWORD PTR fs:0, eax
  0002e	8b d9		 mov	 ebx, ecx
  00030	8b 45 08	 mov	 eax, DWORD PTR _pszLocalPath$[ebp]

; 305  : 	HINTERNET	hRemote;
; 306  : 	char	szExt[ _MAX_PATH ];
; 307  : 	char	szRemote[ MAX_PATH ];
; 308  : 	DWORD	dwWritten;
; 309  : 	UINT32	nread;
; 310  : 	UINT32	Rc;
; 311  : 
; 312  : 	char	buf[1024];
; 313  : 
; 314  : 	i3FileStream	stream;

  00033	8d 8d b0 f8 ff
	ff		 lea	 ecx, DWORD PTR _stream$[ebp]
  00039	8b 75 0c	 mov	 esi, DWORD PTR _pszRemotePath$[ebp]
  0003c	89 85 ac f8 ff
	ff		 mov	 DWORD PTR _pszLocalPath$GSCopy$1$[ebp], eax
  00042	e8 00 00 00 00	 call	 ??0i3FileStream@@QAE@XZ	; i3FileStream::i3FileStream

; 315  : 
; 316  : 	I3ASSERT( m_hFtp );
; 317  : 	
; 318  : 	_splitpath( pszRemotePath, NULL, NULL, szRemote, szExt );

  00047	8d 85 e8 fd ff
	ff		 lea	 eax, DWORD PTR _szExt$[ebp]
  0004d	c7 45 fc 00 00
	00 00		 mov	 DWORD PTR __$EHRec$[ebp+8], 0
  00054	50		 push	 eax
  00055	8d 85 ec fe ff
	ff		 lea	 eax, DWORD PTR _szRemote$[ebp]
  0005b	50		 push	 eax
  0005c	6a 00		 push	 0
  0005e	6a 00		 push	 0
  00060	56		 push	 esi
  00061	e8 00 00 00 00	 call	 __splitpath

; 319  : 	strcat( szRemote, szExt );

  00066	8d 95 e8 fd ff
	ff		 lea	 edx, DWORD PTR _szExt$[ebp]
  0006c	83 c4 14	 add	 esp, 20			; 00000014H
  0006f	8b f2		 mov	 esi, edx
$LL20@UploadFile:
  00071	8a 02		 mov	 al, BYTE PTR [edx]
  00073	42		 inc	 edx
  00074	84 c0		 test	 al, al
  00076	75 f9		 jne	 SHORT $LL20@UploadFile
  00078	8d bd ec fe ff
	ff		 lea	 edi, DWORD PTR _szRemote$[ebp]
  0007e	2b d6		 sub	 edx, esi
  00080	4f		 dec	 edi
$LL21@UploadFile:
  00081	8a 47 01	 mov	 al, BYTE PTR [edi+1]
  00084	47		 inc	 edi
  00085	84 c0		 test	 al, al
  00087	75 f8		 jne	 SHORT $LL21@UploadFile
  00089	8b ca		 mov	 ecx, edx

; 320  : 
; 321  : 	hRemote = ::FtpOpenFile( m_hFtp, szRemote, GENERIC_WRITE, FTP_TRANSFER_TYPE_BINARY, 0 );

  0008b	8d 85 ec fe ff
	ff		 lea	 eax, DWORD PTR _szRemote$[ebp]
  00091	c1 e9 02	 shr	 ecx, 2
  00094	f3 a5		 rep movsd
  00096	6a 00		 push	 0
  00098	6a 02		 push	 2
  0009a	68 00 00 00 40	 push	 1073741824		; 40000000H
  0009f	8b ca		 mov	 ecx, edx
  000a1	50		 push	 eax
  000a2	ff 73 14	 push	 DWORD PTR [ebx+20]
  000a5	83 e1 03	 and	 ecx, 3
  000a8	f3 a4		 rep movsb
  000aa	ff 15 00 00 00
	00		 call	 DWORD PTR __imp__FtpOpenFileA@20
  000b0	8b f8		 mov	 edi, eax

; 322  : 	if( hRemote == NULL )

  000b2	85 ff		 test	 edi, edi
  000b4	0f 84 e4 00 00
	00		 je	 $LN11@UploadFile

; 323  : 	{	
; 324  : 		I3TRACE( "i3NetworkFTP::UploadFile2() - %d\n", ::GetLastError() );
; 325  : 
; 326  : 		return FALSE;
; 327  : 	}
; 328  : 	
; 329  : 	if( !stream.Open( pszLocalPath, STREAM_READ | STREAM_SHAREREAD ) )

  000ba	6a 00		 push	 0
  000bc	6a 05		 push	 5
  000be	ff b5 ac f8 ff
	ff		 push	 DWORD PTR _pszLocalPath$GSCopy$1$[ebp]
  000c4	8d 8d b0 f8 ff
	ff		 lea	 ecx, DWORD PTR _stream$[ebp]
  000ca	e8 00 00 00 00	 call	 ?Open@i3FileStream@@UAEHPBDHI@Z ; i3FileStream::Open
  000cf	85 c0		 test	 eax, eax
  000d1	0f 84 c7 00 00
	00		 je	 $LN11@UploadFile

; 330  : 	{
; 331  : 		I3TRACE( "i3NetworkFTP::UploadFile2() - can't local file open.\n" );
; 332  : 		return FALSE;
; 333  : 	}
; 334  : 
; 335  : 	nread = 1024;
; 336  : 
; 337  : 	for( m_dwProg = 0; m_dwProg < stream.GetSize(); )

  000d7	83 bd c0 f8 ff
	ff 00		 cmp	 DWORD PTR _stream$[ebp+16], 0
  000de	c7 83 a0 01 00
	00 00 00 00 00	 mov	 DWORD PTR [ebx+416], 0
  000e8	0f 86 97 00 00
	00		 jbe	 $LN16@UploadFile
  000ee	33 c0		 xor	 eax, eax
$LL4@UploadFile:

; 338  : 	{
; 339  : 		stream.SetPosition( m_dwProg, STREAM_BEGIN );

  000f0	6a 01		 push	 1
  000f2	50		 push	 eax
  000f3	8d 8d b0 f8 ff
	ff		 lea	 ecx, DWORD PTR _stream$[ebp]
  000f9	e8 00 00 00 00	 call	 ?SetPosition@i3FileStream@@UAEIHH@Z ; i3FileStream::SetPosition

; 340  : 
; 341  : 		nread = stream.GetSize() - m_dwProg;

  000fe	8b b5 c0 f8 ff
	ff		 mov	 esi, DWORD PTR _stream$[ebp+16]

; 342  : 
; 343  : 		if( nread > 1024 )
; 344  : 			nread = 1024;
; 345  : 
; 346  : 		Rc = stream.Read( buf, nread );

  00104	8d 8d b0 f8 ff
	ff		 lea	 ecx, DWORD PTR _stream$[ebp]
  0010a	2b b3 a0 01 00
	00		 sub	 esi, DWORD PTR [ebx+416]
  00110	b8 00 04 00 00	 mov	 eax, 1024		; 00000400H
  00115	81 fe 00 04 00
	00		 cmp	 esi, 1024		; 00000400H
  0011b	0f 47 f0	 cmova	 esi, eax
  0011e	8d 85 e8 f9 ff
	ff		 lea	 eax, DWORD PTR _buf$[ebp]
  00124	56		 push	 esi
  00125	50		 push	 eax
  00126	e8 00 00 00 00	 call	 ?Read@i3FileStream@@UAEIPAXH@Z ; i3FileStream::Read

; 347  : 		if( Rc == STREAM_ERR )

  0012b	83 f8 ff	 cmp	 eax, -1
  0012e	74 55		 je	 SHORT $LN16@UploadFile

; 348  : 			break;
; 349  : 
; 350  : 		::InternetWriteFile( hRemote, buf, nread, &dwWritten );

  00130	8d 85 a8 f8 ff
	ff		 lea	 eax, DWORD PTR _dwWritten$[ebp]
  00136	50		 push	 eax
  00137	56		 push	 esi
  00138	8d 85 e8 f9 ff
	ff		 lea	 eax, DWORD PTR _buf$[ebp]
  0013e	50		 push	 eax
  0013f	57		 push	 edi
  00140	ff 15 00 00 00
	00		 call	 DWORD PTR __imp__InternetWriteFile@16

; 351  : 		m_dwProg += dwWritten;

  00146	8b 85 a8 f8 ff
	ff		 mov	 eax, DWORD PTR _dwWritten$[ebp]
  0014c	01 83 a0 01 00
	00		 add	 DWORD PTR [ebx+416], eax

; 352  : 
; 353  : 		wsprintf( m_szStr, "%s %d", pszLocalPath, m_dwProg);

  00152	8d 83 9e 00 00
	00		 lea	 eax, DWORD PTR [ebx+158]
  00158	ff b3 a0 01 00
	00		 push	 DWORD PTR [ebx+416]
  0015e	ff b5 ac f8 ff
	ff		 push	 DWORD PTR _pszLocalPath$GSCopy$1$[ebp]
  00164	68 00 00 00 00	 push	 OFFSET ??_C@_05DIALNFFA@?$CFs?5?$CFd@
  00169	50		 push	 eax
  0016a	ff 15 00 00 00
	00		 call	 DWORD PTR __imp__wsprintfA
  00170	8b 83 a0 01 00
	00		 mov	 eax, DWORD PTR [ebx+416]
  00176	83 c4 10	 add	 esp, 16			; 00000010H
  00179	3b 85 c0 f8 ff
	ff		 cmp	 eax, DWORD PTR _stream$[ebp+16]
  0017f	0f 82 6b ff ff
	ff		 jb	 $LL4@UploadFile
$LN16@UploadFile:

; 354  : 	}
; 355  : 
; 356  : 	stream.Close();

  00185	8d 8d b0 f8 ff
	ff		 lea	 ecx, DWORD PTR _stream$[ebp]
  0018b	e8 00 00 00 00	 call	 ?Close@i3FileStream@@UAEHXZ ; i3FileStream::Close

; 357  : 
; 358  : 	::InternetCloseHandle( hRemote );

  00190	57		 push	 edi
  00191	ff 15 00 00 00
	00		 call	 DWORD PTR __imp__InternetCloseHandle@4

; 359  : 	return TRUE;

  00197	be 01 00 00 00	 mov	 esi, 1
  0019c	eb 02		 jmp	 SHORT $LN12@UploadFile
$LN11@UploadFile:
  0019e	33 f6		 xor	 esi, esi
$LN12@UploadFile:
  001a0	8d 8d b0 f8 ff
	ff		 lea	 ecx, DWORD PTR _stream$[ebp]
  001a6	e8 00 00 00 00	 call	 ??1i3FileStream@@UAE@XZ	; i3FileStream::~i3FileStream
  001ab	8b c6		 mov	 eax, esi

; 360  : }

  001ad	8b 4d f4	 mov	 ecx, DWORD PTR __$EHRec$[ebp]
  001b0	64 89 0d 00 00
	00 00		 mov	 DWORD PTR fs:0, ecx
  001b7	59		 pop	 ecx
  001b8	5f		 pop	 edi
  001b9	5e		 pop	 esi
  001ba	5b		 pop	 ebx
  001bb	8b 4d f0	 mov	 ecx, DWORD PTR __$ArrayPad$[ebp]
  001be	33 cd		 xor	 ecx, ebp
  001c0	e8 00 00 00 00	 call	 @__security_check_cookie@4
  001c5	8b e5		 mov	 esp, ebp
  001c7	5d		 pop	 ebp
  001c8	c2 08 00	 ret	 8
_TEXT	ENDS
;	COMDAT text$x
text$x	SEGMENT
__unwindfunclet$?UploadFile2@i3NetworkFTP@@QAEHPBD0@Z$0:
  00000	8d 8d b0 f8 ff
	ff		 lea	 ecx, DWORD PTR _stream$[ebp]
  00006	e9 00 00 00 00	 jmp	 ??1i3FileStream@@UAE@XZ	; i3FileStream::~i3FileStream
  0000b	cc		 int	 3
  0000c	cc		 int	 3
  0000d	cc		 int	 3
  0000e	cc		 int	 3
  0000f	cc		 int	 3
__ehhandler$?UploadFile2@i3NetworkFTP@@QAEHPBD0@Z:
  00010	90		 npad	 1
  00011	90		 npad	 1
  00012	8b 54 24 08	 mov	 edx, DWORD PTR [esp+8]
  00016	8d 42 0c	 lea	 eax, DWORD PTR [edx+12]
  00019	8b 8a a4 f8 ff
	ff		 mov	 ecx, DWORD PTR [edx-1884]
  0001f	33 c8		 xor	 ecx, eax
  00021	e8 00 00 00 00	 call	 @__security_check_cookie@4
  00026	8b 4a fc	 mov	 ecx, DWORD PTR [edx-4]
  00029	33 c8		 xor	 ecx, eax
  0002b	e8 00 00 00 00	 call	 @__security_check_cookie@4
  00030	b8 00 00 00 00	 mov	 eax, OFFSET __ehfuncinfo$?UploadFile2@i3NetworkFTP@@QAEHPBD0@Z
  00035	e9 00 00 00 00	 jmp	 ___CxxFrameHandler3
text$x	ENDS
?UploadFile2@i3NetworkFTP@@QAEHPBD0@Z ENDP		; i3NetworkFTP::UploadFile2
; Function compile flags: /Ogtp
; File E:\Proyectos\JuegosOnlineproyectos\PB\pbblow\Piercing Blow Remake\i3Server\src\i3Base\i3NetworkFTP.cpp
;	COMDAT ?UploadFile2@i3NetworkFTP@@QAEHPBD@Z
_TEXT	SEGMENT
_this$GSCopy$1$ = -528					; size = 4
_szExt$ = -524						; size = 260
_szRemote$ = -264					; size = 260
__$ArrayPad$ = -4					; size = 4
_pszPath$ = 8						; size = 4
?UploadFile2@i3NetworkFTP@@QAEHPBD@Z PROC		; i3NetworkFTP::UploadFile2, COMDAT
; _this$ = ecx

; 293  : {

  00000	55		 push	 ebp
  00001	8b ec		 mov	 ebp, esp
  00003	81 ec 10 02 00
	00		 sub	 esp, 528		; 00000210H
  00009	a1 00 00 00 00	 mov	 eax, DWORD PTR ___security_cookie
  0000e	33 c5		 xor	 eax, ebp
  00010	89 45 fc	 mov	 DWORD PTR __$ArrayPad$[ebp], eax
  00013	53		 push	 ebx
  00014	8b 5d 08	 mov	 ebx, DWORD PTR _pszPath$[ebp]

; 294  : 	char	szExt[ _MAX_PATH ];
; 295  : 	char	szRemote[ MAX_PATH ];
; 296  : 
; 297  : 	_splitpath( pszPath, NULL, NULL, szRemote, szExt );

  00017	8d 85 f4 fd ff
	ff		 lea	 eax, DWORD PTR _szExt$[ebp]
  0001d	56		 push	 esi
  0001e	57		 push	 edi
  0001f	50		 push	 eax
  00020	8d 85 f8 fe ff
	ff		 lea	 eax, DWORD PTR _szRemote$[ebp]
  00026	89 8d f0 fd ff
	ff		 mov	 DWORD PTR _this$GSCopy$1$[ebp], ecx
  0002c	50		 push	 eax
  0002d	6a 00		 push	 0
  0002f	6a 00		 push	 0
  00031	53		 push	 ebx
  00032	e8 00 00 00 00	 call	 __splitpath

; 298  : 	strcat( szRemote, szExt );

  00037	8d 85 f4 fd ff
	ff		 lea	 eax, DWORD PTR _szExt$[ebp]
  0003d	83 c4 14	 add	 esp, 20			; 00000014H
  00040	8b f0		 mov	 esi, eax
$LL3@UploadFile:
  00042	8a 08		 mov	 cl, BYTE PTR [eax]
  00044	40		 inc	 eax
  00045	84 c9		 test	 cl, cl
  00047	75 f9		 jne	 SHORT $LL3@UploadFile
  00049	8d bd f8 fe ff
	ff		 lea	 edi, DWORD PTR _szRemote$[ebp]
  0004f	2b c6		 sub	 eax, esi
  00051	4f		 dec	 edi
$LL4@UploadFile:
  00052	8a 4f 01	 mov	 cl, BYTE PTR [edi+1]
  00055	47		 inc	 edi
  00056	84 c9		 test	 cl, cl
  00058	75 f8		 jne	 SHORT $LL4@UploadFile
  0005a	8b c8		 mov	 ecx, eax
  0005c	c1 e9 02	 shr	 ecx, 2
  0005f	f3 a5		 rep movsd
  00061	8b c8		 mov	 ecx, eax

; 299  : 
; 300  : 	return UploadFile2( pszPath, szRemote );

  00063	8d 85 f8 fe ff
	ff		 lea	 eax, DWORD PTR _szRemote$[ebp]
  00069	83 e1 03	 and	 ecx, 3
  0006c	f3 a4		 rep movsb
  0006e	8b 8d f0 fd ff
	ff		 mov	 ecx, DWORD PTR _this$GSCopy$1$[ebp]
  00074	50		 push	 eax
  00075	53		 push	 ebx
  00076	e8 00 00 00 00	 call	 ?UploadFile2@i3NetworkFTP@@QAEHPBD0@Z ; i3NetworkFTP::UploadFile2

; 301  : }

  0007b	8b 4d fc	 mov	 ecx, DWORD PTR __$ArrayPad$[ebp]
  0007e	5f		 pop	 edi
  0007f	5e		 pop	 esi
  00080	33 cd		 xor	 ecx, ebp
  00082	5b		 pop	 ebx
  00083	e8 00 00 00 00	 call	 @__security_check_cookie@4
  00088	8b e5		 mov	 esp, ebp
  0008a	5d		 pop	 ebp
  0008b	c2 04 00	 ret	 4
?UploadFile2@i3NetworkFTP@@QAEHPBD@Z ENDP		; i3NetworkFTP::UploadFile2
_TEXT	ENDS
; Function compile flags: /Ogtp
; File E:\Proyectos\JuegosOnlineproyectos\PB\pbblow\Piercing Blow Remake\i3Server\src\i3Base\i3NetworkFTP.cpp
;	COMDAT ?UploadFile@i3NetworkFTP@@QAEHPBD0@Z
_TEXT	SEGMENT
_pszLocalPath$GSCopy$1$ = -1056				; size = 4
_nLocalLen$1$ = -1052					; size = 4
_pszRemotePath$GSCopy$1$ = -1048			; size = 4
_szExt$ = -1044						; size = 260
_szName$ = -784						; size = 260
_szRemoteAllPath$ = -524				; size = 260
_szRemotePath$ = -264					; size = 260
__$ArrayPad$ = -4					; size = 4
_pszLocalPath$ = 8					; size = 4
_pszRemotePath$ = 12					; size = 4
?UploadFile@i3NetworkFTP@@QAEHPBD0@Z PROC		; i3NetworkFTP::UploadFile, COMDAT
; _this$ = ecx

; 244  : {

  00000	55		 push	 ebp
  00001	8b ec		 mov	 ebp, esp
  00003	81 ec 20 04 00
	00		 sub	 esp, 1056		; 00000420H
  00009	a1 00 00 00 00	 mov	 eax, DWORD PTR ___security_cookie
  0000e	33 c5		 xor	 eax, ebp
  00010	89 45 fc	 mov	 DWORD PTR __$ArrayPad$[ebp], eax
  00013	8b 45 08	 mov	 eax, DWORD PTR _pszLocalPath$[ebp]
  00016	53		 push	 ebx
  00017	56		 push	 esi
  00018	57		 push	 edi
  00019	8b d9		 mov	 ebx, ecx
  0001b	89 85 e0 fb ff
	ff		 mov	 DWORD PTR _pszLocalPath$GSCopy$1$[ebp], eax
  00021	8b 45 0c	 mov	 eax, DWORD PTR _pszRemotePath$[ebp]

; 245  : 	BOOL	bResult;
; 246  : 	char	szRemoteAllPath[ MAX_PATH ];
; 247  : 	char	szRemotePath[ MAX_PATH ];
; 248  : 	char	szName[ MAX_PATH ];
; 249  : 	char	szExt[ _MAX_PATH ];
; 250  : 
; 251  : 	INT32	nLocalLen, nRemoteLen;
; 252  : 
; 253  : 	I3ASSERT( m_hFtp );
; 254  : 
; 255  : 	_splitpath( pszRemotePath, NULL, szRemotePath, szName, szExt );

  00024	8d 8d ec fb ff
	ff		 lea	 ecx, DWORD PTR _szExt$[ebp]
  0002a	51		 push	 ecx
  0002b	8d 8d f0 fc ff
	ff		 lea	 ecx, DWORD PTR _szName$[ebp]
  00031	89 85 e8 fb ff
	ff		 mov	 DWORD PTR _pszRemotePath$GSCopy$1$[ebp], eax
  00037	51		 push	 ecx
  00038	8d 8d f8 fe ff
	ff		 lea	 ecx, DWORD PTR _szRemotePath$[ebp]
  0003e	51		 push	 ecx
  0003f	6a 00		 push	 0
  00041	50		 push	 eax
  00042	e8 00 00 00 00	 call	 __splitpath

; 256  : 	strcat( szName, szExt );

  00047	8d 95 ec fb ff
	ff		 lea	 edx, DWORD PTR _szExt$[ebp]
  0004d	83 c4 14	 add	 esp, 20			; 00000014H
  00050	8b f2		 mov	 esi, edx
$LL25@UploadFile:
  00052	8a 02		 mov	 al, BYTE PTR [edx]
  00054	42		 inc	 edx
  00055	84 c0		 test	 al, al
  00057	75 f9		 jne	 SHORT $LL25@UploadFile
  00059	8d bd f0 fc ff
	ff		 lea	 edi, DWORD PTR _szName$[ebp]
  0005f	2b d6		 sub	 edx, esi
  00061	4f		 dec	 edi
$LL26@UploadFile:
  00062	8a 47 01	 mov	 al, BYTE PTR [edi+1]
  00065	47		 inc	 edi
  00066	84 c0		 test	 al, al
  00068	75 f8		 jne	 SHORT $LL26@UploadFile

; 257  : 
; 258  : 	nLocalLen = i3String::Length( pszRemotePath );

  0006a	ff b5 e8 fb ff
	ff		 push	 DWORD PTR _pszRemotePath$GSCopy$1$[ebp]
  00070	8b ca		 mov	 ecx, edx
  00072	c1 e9 02	 shr	 ecx, 2
  00075	f3 a5		 rep movsd
  00077	8b ca		 mov	 ecx, edx
  00079	83 e1 03	 and	 ecx, 3
  0007c	f3 a4		 rep movsb
  0007e	e8 00 00 00 00	 call	 ?Length@i3String@@YAHPBD@Z ; i3String::Length
  00083	8b f0		 mov	 esi, eax

; 259  : 	nRemoteLen = i3String::Length( szName );

  00085	8d 85 f0 fc ff
	ff		 lea	 eax, DWORD PTR _szName$[ebp]
  0008b	50		 push	 eax
  0008c	e8 00 00 00 00	 call	 ?Length@i3String@@YAHPBD@Z ; i3String::Length

; 260  : 
; 261  : 	nLocalLen -= nRemoteLen;

  00091	2b f0		 sub	 esi, eax

; 262  : 
; 263  : 	// for all format directory name
; 264  : 	ConvertInternetDir( szRemotePath, i3String::Length( szRemotePath ) );

  00093	8d 85 f8 fe ff
	ff		 lea	 eax, DWORD PTR _szRemotePath$[ebp]
  00099	50		 push	 eax
  0009a	89 b5 e4 fb ff
	ff		 mov	 DWORD PTR _nLocalLen$1$[ebp], esi
  000a0	e8 00 00 00 00	 call	 ?Length@i3String@@YAHPBD@Z ; i3String::Length
  000a5	83 c4 0c	 add	 esp, 12			; 0000000cH

; 482  : 	for( i = 0; i < nLength; i++ )

  000a8	33 c9		 xor	 ecx, ecx
  000aa	85 c0		 test	 eax, eax
  000ac	7e 20		 jle	 SHORT $LN29@UploadFile
  000ae	8b ff		 npad	 2
$LL10@UploadFile:

; 483  : 	{
; 484  : 		if( pszPath[ i ] == '\n' )

  000b0	8a 94 0d f8 fe
	ff ff		 mov	 dl, BYTE PTR _szRemotePath$[ebp+ecx]
  000b7	80 fa 0a	 cmp	 dl, 10			; 0000000aH
  000ba	74 12		 je	 SHORT $LN29@UploadFile

; 485  : 			return;
; 486  : 		else if( pszPath[ i ] == '\\' )

  000bc	80 fa 5c	 cmp	 dl, 92			; 0000005cH
  000bf	75 08		 jne	 SHORT $LN8@UploadFile

; 487  : 			pszPath[ i ] = '/';

  000c1	c6 84 0d f8 fe
	ff ff 2f	 mov	 BYTE PTR _szRemotePath$[ebp+ecx], 47 ; 0000002fH
$LN8@UploadFile:

; 291  : 
; 292  : BOOL i3NetworkFTP::UploadFile2( const char * pszPath )
; 293  : {
; 294  : 	char	szExt[ _MAX_PATH ];
; 295  : 	char	szRemote[ MAX_PATH ];
; 296  : 
; 297  : 	_splitpath( pszPath, NULL, NULL, szRemote, szExt );
; 298  : 	strcat( szRemote, szExt );
; 299  : 
; 300  : 	return UploadFile2( pszPath, szRemote );
; 301  : }
; 302  : 
; 303  : BOOL i3NetworkFTP::UploadFile2( const char * pszLocalPath, const char * pszRemotePath )
; 304  : {
; 305  : 	HINTERNET	hRemote;
; 306  : 	char	szExt[ _MAX_PATH ];
; 307  : 	char	szRemote[ MAX_PATH ];
; 308  : 	DWORD	dwWritten;
; 309  : 	UINT32	nread;
; 310  : 	UINT32	Rc;
; 311  : 
; 312  : 	char	buf[1024];
; 313  : 
; 314  : 	i3FileStream	stream;
; 315  : 
; 316  : 	I3ASSERT( m_hFtp );
; 317  : 	
; 318  : 	_splitpath( pszRemotePath, NULL, NULL, szRemote, szExt );
; 319  : 	strcat( szRemote, szExt );
; 320  : 
; 321  : 	hRemote = ::FtpOpenFile( m_hFtp, szRemote, GENERIC_WRITE, FTP_TRANSFER_TYPE_BINARY, 0 );
; 322  : 	if( hRemote == NULL )
; 323  : 	{	
; 324  : 		I3TRACE( "i3NetworkFTP::UploadFile2() - %d\n", ::GetLastError() );
; 325  : 
; 326  : 		return FALSE;
; 327  : 	}
; 328  : 	
; 329  : 	if( !stream.Open( pszLocalPath, STREAM_READ | STREAM_SHAREREAD ) )
; 330  : 	{
; 331  : 		I3TRACE( "i3NetworkFTP::UploadFile2() - can't local file open.\n" );
; 332  : 		return FALSE;
; 333  : 	}
; 334  : 
; 335  : 	nread = 1024;
; 336  : 
; 337  : 	for( m_dwProg = 0; m_dwProg < stream.GetSize(); )
; 338  : 	{
; 339  : 		stream.SetPosition( m_dwProg, STREAM_BEGIN );
; 340  : 
; 341  : 		nread = stream.GetSize() - m_dwProg;
; 342  : 
; 343  : 		if( nread > 1024 )
; 344  : 			nread = 1024;
; 345  : 
; 346  : 		Rc = stream.Read( buf, nread );
; 347  : 		if( Rc == STREAM_ERR )
; 348  : 			break;
; 349  : 
; 350  : 		::InternetWriteFile( hRemote, buf, nread, &dwWritten );
; 351  : 		m_dwProg += dwWritten;
; 352  : 
; 353  : 		wsprintf( m_szStr, "%s %d", pszLocalPath, m_dwProg);
; 354  : 	}
; 355  : 
; 356  : 	stream.Close();
; 357  : 
; 358  : 	::InternetCloseHandle( hRemote );
; 359  : 	return TRUE;
; 360  : }
; 361  : 
; 362  : BOOL i3NetworkFTP::CheckFile( const char * pszPath )
; 363  : {
; 364  : 	HINTERNET hSrch;
; 365  : 	WIN32_FIND_DATA wfd;
; 366  : 
; 367  : 	char	szRemotePath[ MAX_PATH ];
; 368  : 	DWORD	dwCDir = MAX_PATH;
; 369  : 
; 370  : 	I3ASSERT( m_hFtp );
; 371  : 
; 372  : 	if( !(getFlags() & I3_FTP_FLAG_CONNECTMAINTAIN) )
; 373  : 	{
; 374  : 		if( !Connect() )
; 375  : 			return FALSE;
; 376  : 	}
; 377  : 
; 378  : 	memset( szRemotePath, 0, sizeof( szRemotePath ) );
; 379  : 	::FtpGetCurrentDirectory( m_hFtp, szRemotePath, &dwCDir );
; 380  : 	
; 381  : 	strcat( szRemotePath, pszPath );
; 382  : 
; 383  : 	hSrch = ::FtpFindFirstFile( m_hFtp, pszPath, &wfd, 0, 0 );
; 384  : 	if( hSrch == 0 )
; 385  : 	{
; 386  : 		return FALSE;
; 387  : 	}
; 388  : 
; 389  : 	::InternetCloseHandle( hSrch );
; 390  : 
; 391  : 	if( !(getFlags() & I3_FTP_FLAG_CONNECTMAINTAIN ) )
; 392  : 		DisConnect();
; 393  : 
; 394  : 	return TRUE;
; 395  : }
; 396  : 
; 397  : BOOL i3NetworkFTP::DeleteFile( const char * pszPath )
; 398  : {
; 399  : 	I3ASSERT( m_hFtp );
; 400  : 
; 401  : 	return ::FtpDeleteFile( m_hFtp, pszPath );
; 402  : }
; 403  : 
; 404  : void i3NetworkFTP::OnDownLoad()
; 405  : {
; 406  : }
; 407  : 
; 408  : void i3NetworkFTP::OnUpLoad()
; 409  : {
; 410  : 
; 411  : }
; 412  : 
; 413  : BOOL i3NetworkFTP::CheckDirectory( const char * pszPath )
; 414  : {
; 415  : #if defined( I3_WINDOWS )
; 416  : 	char	szPrvPath[ MAX_PATH ];
; 417  : 	char	szTemp[ MAX_PATH ];
; 418  : 	char	szDirectoryName[ 64 ];
; 419  : 	INT32	nLen;
; 420  : 
; 421  : 	if( !::SetCurrentDirectory( pszPath ) )
; 422  : 	{
; 423  : 		i3mem::FillZero( szPrvPath, sizeof( szPrvPath ) );
; 424  : 		nLen = i3String::Length( pszPath ) - 1;
; 425  : 
; 426  : 		if( nLen > 0 )
; 427  : 		{
; 428  : 			memcpy( szPrvPath, pszPath, nLen );
; 429  : 			_splitpath( szPrvPath, NULL, szTemp, szDirectoryName, NULL );
; 430  : 			
; 431  : 			// ÁÖŔÇ
; 432  : 			CheckDirectory( szTemp );
; 433  : 			::SetCurrentDirectory( szTemp );
; 434  : 			::CreateDirectory( szDirectoryName, 0 );
; 435  : 		}
; 436  : 		return FALSE;
; 437  : 	}
; 438  : #endif
; 439  : 	return TRUE;
; 440  : }
; 441  : 
; 442  : BOOL i3NetworkFTP::CheckRemoteDir( HINTERNET hFtp, const char * pszPath )
; 443  : {
; 444  : #if defined( I3_WINDOWS )
; 445  : 	char	szPrvPath[ MAX_PATH ];
; 446  : 	char	szTemp[ MAX_PATH ];
; 447  : 	char	szDirectoryName[ 64 ];
; 448  : 	INT32	nLen;
; 449  : 	
; 450  : 	if( !::FtpSetCurrentDirectory( hFtp, pszPath ) )
; 451  : 	{	
; 452  : 		nLen = i3String::Length( pszPath ) - 1;
; 453  : 
; 454  : 		if( nLen > 1 )
; 455  : 		{
; 456  : 			memset( szPrvPath, 0, sizeof( szPrvPath ) );
; 457  : 			memcpy( szPrvPath, pszPath, nLen );
; 458  : 			_splitpath( szPrvPath, NULL, szTemp, szDirectoryName, NULL );
; 459  : 			
; 460  : 			// ÁÖŔÇ
; 461  : 			CheckRemoteDir( hFtp, szTemp );
; 462  : 			if( i3String::Length( szTemp ) > 0 )
; 463  : 			{
; 464  : 				::FtpSetCurrentDirectory( hFtp, szTemp );
; 465  : 			}
; 466  : 			if( !::FtpCreateDirectory( hFtp, szDirectoryName) )
; 467  : 			{
; 468  : 				I3WARN( "¸®¸đĆ® Ćú´ő¸¦ »ýĽşÇĎÁö ¸řÇß˝Ŕ´Ď´Ů.\n" );
; 469  : 			}
; 470  : 		}
; 471  : 		return FALSE;
; 472  : 	}
; 473  : #endif
; 474  : 	return TRUE;
; 475  : }
; 476  : 
; 477  : void i3NetworkFTP::ConvertInternetDir( char * pszPath, INT32 nLength )
; 478  : {
; 479  : #if defined( I3_WINDOWS )
; 480  : 	INT32	i;
; 481  : 
; 482  : 	for( i = 0; i < nLength; i++ )

  000c9	41		 inc	 ecx
  000ca	3b c8		 cmp	 ecx, eax
  000cc	7c e2		 jl	 SHORT $LL10@UploadFile
$LN29@UploadFile:

; 265  : 
; 266  : 	memset( szRemoteAllPath, 0, sizeof( szRemoteAllPath ) );

  000ce	68 03 01 00 00	 push	 259			; 00000103H
  000d3	8d 85 f5 fd ff
	ff		 lea	 eax, DWORD PTR _szRemoteAllPath$[ebp+1]
  000d9	6a 00		 push	 0
  000db	50		 push	 eax
  000dc	e8 00 00 00 00	 call	 _memset
  000e1	83 c4 0c	 add	 esp, 12			; 0000000cH

; 267  : 	strcpy( szRemoteAllPath, m_szRemoteDirectory + 1 );

  000e4	8d 8b b1 02 00
	00		 lea	 ecx, DWORD PTR [ebx+689]
  000ea	8d 95 f4 fd ff
	ff		 lea	 edx, DWORD PTR _szRemoteAllPath$[ebp]
$LL6@UploadFile:
  000f0	8a 01		 mov	 al, BYTE PTR [ecx]
  000f2	8d 49 01	 lea	 ecx, DWORD PTR [ecx+1]
  000f5	88 02		 mov	 BYTE PTR [edx], al
  000f7	8d 52 01	 lea	 edx, DWORD PTR [edx+1]
  000fa	84 c0		 test	 al, al
  000fc	75 f2		 jne	 SHORT $LL6@UploadFile

; 268  : 	//strcat( szRemoteAllPath, "/" );
; 269  : 	strcat( szRemoteAllPath, szRemotePath );

  000fe	8d 95 f8 fe ff
	ff		 lea	 edx, DWORD PTR _szRemotePath$[ebp]
  00104	8b f2		 mov	 esi, edx
$LL27@UploadFile:
  00106	8a 02		 mov	 al, BYTE PTR [edx]
  00108	42		 inc	 edx
  00109	84 c0		 test	 al, al
  0010b	75 f9		 jne	 SHORT $LL27@UploadFile
  0010d	8d bd f4 fd ff
	ff		 lea	 edi, DWORD PTR _szRemoteAllPath$[ebp]
  00113	2b d6		 sub	 edx, esi
  00115	4f		 dec	 edi
$LL28@UploadFile:
  00116	8a 47 01	 mov	 al, BYTE PTR [edi+1]
  00119	47		 inc	 edi
  0011a	84 c0		 test	 al, al
  0011c	75 f8		 jne	 SHORT $LL28@UploadFile
  0011e	8b ca		 mov	 ecx, edx
  00120	c1 e9 02	 shr	 ecx, 2
  00123	f3 a5		 rep movsd
  00125	8b ca		 mov	 ecx, edx
  00127	83 e1 03	 and	 ecx, 3

; 270  : 
; 271  : 	if( nLocalLen > 0 )

  0012a	83 bd e4 fb ff
	ff 00		 cmp	 DWORD PTR _nLocalLen$1$[ebp], 0
  00131	f3 a4		 rep movsb
  00133	8b 3d 00 00 00
	00		 mov	 edi, DWORD PTR __imp__FtpSetCurrentDirectoryA@8
  00139	7e 5d		 jle	 SHORT $LN4@UploadFile

; 272  : 	{	
; 273  : 		if( !CheckRemoteDir( m_hFtp, szRemoteAllPath ) )

  0013b	8d 85 f4 fd ff
	ff		 lea	 eax, DWORD PTR _szRemoteAllPath$[ebp]
  00141	8b cb		 mov	 ecx, ebx
  00143	50		 push	 eax
  00144	ff 73 14	 push	 DWORD PTR [ebx+20]
  00147	e8 00 00 00 00	 call	 ?CheckRemoteDir@i3NetworkFTP@@QAEHPAXPBD@Z ; i3NetworkFTP::CheckRemoteDir
  0014c	85 c0		 test	 eax, eax
  0014e	75 48		 jne	 SHORT $LN4@UploadFile

; 274  : 		{
; 275  : 			// ¸®¸đĆ® µđ·şĹä¸® ĽłÁ¤( ŔĚ µđ·şĹä¸®żˇ ŔúŔĺŔ» ÇŃ´Ů. )
; 276  : 			if( !::FtpSetCurrentDirectory( m_hFtp, szRemoteAllPath ) )

  00150	8d 85 f4 fd ff
	ff		 lea	 eax, DWORD PTR _szRemoteAllPath$[ebp]
  00156	50		 push	 eax
  00157	ff 73 14	 push	 DWORD PTR [ebx+20]
  0015a	ff d7		 call	 edi
  0015c	85 c0		 test	 eax, eax
  0015e	75 38		 jne	 SHORT $LN4@UploadFile

; 277  : 			{
; 278  : 				I3FATAL( "[i3NetworkFTP::UplodaFile] - error set current directory fail.\n" );

  00160	6a 02		 push	 2
  00162	68 00 00 00 00	 push	 OFFSET ??_C@_0ED@NCKNCCJE@int?5__thiscall?5i3NetworkFTP?3?3Up@
  00167	68 16 01 00 00	 push	 278			; 00000116H
  0016c	68 00 00 00 00	 push	 OFFSET ??_C@_0GH@IACFLGED@E?3?2Proyectos?2JuegosOnlineproyec@
  00171	e8 00 00 00 00	 call	 ?SetEnv@i3Error@@YAXPBDH0W4I3LOG_TYPE@@@Z ; i3Error::SetEnv
  00176	68 00 00 00 00	 push	 OFFSET ??_C@_0EA@FCLLKE@?$FLi3NetworkFTP?3?3UplodaFile?$FN?5?9?5er@
  0017b	e8 00 00 00 00	 call	 ?Log@i3Error@@YAXPBDZZ	; i3Error::Log
  00180	83 c4 14	 add	 esp, 20			; 00000014H

; 279  : 				return FALSE;

  00183	33 c0		 xor	 eax, eax
  00185	5f		 pop	 edi

; 288  : 
; 289  : 	return bResult;
; 290  : }

  00186	5e		 pop	 esi
  00187	5b		 pop	 ebx
  00188	8b 4d fc	 mov	 ecx, DWORD PTR __$ArrayPad$[ebp]
  0018b	33 cd		 xor	 ecx, ebp
  0018d	e8 00 00 00 00	 call	 @__security_check_cookie@4
  00192	8b e5		 mov	 esp, ebp
  00194	5d		 pop	 ebp
  00195	c2 08 00	 ret	 8
$LN4@UploadFile:

; 280  : 			}
; 281  : 		}
; 282  : 	}
; 283  : 	// µđ·şĹä¸®żˇ ľ˛±â ĽłÁ¤ŔĚ µÇľî ŔÖ´ÂÁö Č®ŔÎ..
; 284  : 	bResult = UploadFile2( pszLocalPath, pszRemotePath );

  00198	ff b5 e8 fb ff
	ff		 push	 DWORD PTR _pszRemotePath$GSCopy$1$[ebp]
  0019e	8b cb		 mov	 ecx, ebx
  001a0	ff b5 e0 fb ff
	ff		 push	 DWORD PTR _pszLocalPath$GSCopy$1$[ebp]
  001a6	e8 00 00 00 00	 call	 ?UploadFile2@i3NetworkFTP@@QAEHPBD0@Z ; i3NetworkFTP::UploadFile2

; 285  : 	
; 286  : 	// ¸®¸đĆ® ·çĆ®¸®·şĹä¸®·Î µą¸°´Ů.
; 287  : 	::FtpSetCurrentDirectory( m_hFtp, m_szRemoteDirectory );

  001ab	8d 8b b0 02 00
	00		 lea	 ecx, DWORD PTR [ebx+688]
  001b1	8b f0		 mov	 esi, eax
  001b3	51		 push	 ecx
  001b4	ff 73 14	 push	 DWORD PTR [ebx+20]
  001b7	ff d7		 call	 edi

; 288  : 
; 289  : 	return bResult;
; 290  : }

  001b9	8b 4d fc	 mov	 ecx, DWORD PTR __$ArrayPad$[ebp]
  001bc	8b c6		 mov	 eax, esi
  001be	5f		 pop	 edi
  001bf	5e		 pop	 esi
  001c0	33 cd		 xor	 ecx, ebp
  001c2	5b		 pop	 ebx
  001c3	e8 00 00 00 00	 call	 @__security_check_cookie@4
  001c8	8b e5		 mov	 esp, ebp
  001ca	5d		 pop	 ebp
  001cb	c2 08 00	 ret	 8
?UploadFile@i3NetworkFTP@@QAEHPBD0@Z ENDP		; i3NetworkFTP::UploadFile
_TEXT	ENDS
; Function compile flags: /Ogtp
; File E:\Proyectos\JuegosOnlineproyectos\PB\pbblow\Piercing Blow Remake\i3Server\src\i3Base\i3NetworkFTP.cpp
;	COMDAT ?UploadFile@i3NetworkFTP@@QAEHPBD@Z
_TEXT	SEGMENT
_this$GSCopy$1$ = -528					; size = 4
_szExt$ = -524						; size = 260
_szRemote$ = -264					; size = 260
__$ArrayPad$ = -4					; size = 4
_pszPath$ = 8						; size = 4
?UploadFile@i3NetworkFTP@@QAEHPBD@Z PROC		; i3NetworkFTP::UploadFile, COMDAT
; _this$ = ecx

; 233  : {

  00000	55		 push	 ebp
  00001	8b ec		 mov	 ebp, esp
  00003	81 ec 10 02 00
	00		 sub	 esp, 528		; 00000210H
  00009	a1 00 00 00 00	 mov	 eax, DWORD PTR ___security_cookie
  0000e	33 c5		 xor	 eax, ebp
  00010	89 45 fc	 mov	 DWORD PTR __$ArrayPad$[ebp], eax
  00013	53		 push	 ebx
  00014	8b 5d 08	 mov	 ebx, DWORD PTR _pszPath$[ebp]

; 234  : 	char	szExt[ _MAX_PATH ];
; 235  : 	char	szRemote[ MAX_PATH ];
; 236  : 
; 237  : 	_splitpath( pszPath, NULL, NULL, szRemote, szExt );

  00017	8d 85 f4 fd ff
	ff		 lea	 eax, DWORD PTR _szExt$[ebp]
  0001d	56		 push	 esi
  0001e	57		 push	 edi
  0001f	50		 push	 eax
  00020	8d 85 f8 fe ff
	ff		 lea	 eax, DWORD PTR _szRemote$[ebp]
  00026	89 8d f0 fd ff
	ff		 mov	 DWORD PTR _this$GSCopy$1$[ebp], ecx
  0002c	50		 push	 eax
  0002d	6a 00		 push	 0
  0002f	6a 00		 push	 0
  00031	53		 push	 ebx
  00032	e8 00 00 00 00	 call	 __splitpath

; 238  : 
; 239  : 	strcat( szRemote, szExt );

  00037	8d 85 f4 fd ff
	ff		 lea	 eax, DWORD PTR _szExt$[ebp]
  0003d	83 c4 14	 add	 esp, 20			; 00000014H
  00040	8b f0		 mov	 esi, eax
$LL3@UploadFile:
  00042	8a 08		 mov	 cl, BYTE PTR [eax]
  00044	40		 inc	 eax
  00045	84 c9		 test	 cl, cl
  00047	75 f9		 jne	 SHORT $LL3@UploadFile
  00049	8d bd f8 fe ff
	ff		 lea	 edi, DWORD PTR _szRemote$[ebp]
  0004f	2b c6		 sub	 eax, esi
  00051	4f		 dec	 edi
$LL4@UploadFile:
  00052	8a 4f 01	 mov	 cl, BYTE PTR [edi+1]
  00055	47		 inc	 edi
  00056	84 c9		 test	 cl, cl
  00058	75 f8		 jne	 SHORT $LL4@UploadFile
  0005a	8b c8		 mov	 ecx, eax
  0005c	c1 e9 02	 shr	 ecx, 2
  0005f	f3 a5		 rep movsd
  00061	8b c8		 mov	 ecx, eax

; 240  : 	return UploadFile( pszPath, szRemote );

  00063	8d 85 f8 fe ff
	ff		 lea	 eax, DWORD PTR _szRemote$[ebp]
  00069	83 e1 03	 and	 ecx, 3
  0006c	f3 a4		 rep movsb
  0006e	8b 8d f0 fd ff
	ff		 mov	 ecx, DWORD PTR _this$GSCopy$1$[ebp]
  00074	50		 push	 eax
  00075	53		 push	 ebx
  00076	e8 00 00 00 00	 call	 ?UploadFile@i3NetworkFTP@@QAEHPBD0@Z ; i3NetworkFTP::UploadFile

; 241  : }

  0007b	8b 4d fc	 mov	 ecx, DWORD PTR __$ArrayPad$[ebp]
  0007e	5f		 pop	 edi
  0007f	5e		 pop	 esi
  00080	33 cd		 xor	 ecx, ebp
  00082	5b		 pop	 ebx
  00083	e8 00 00 00 00	 call	 @__security_check_cookie@4
  00088	8b e5		 mov	 esp, ebp
  0008a	5d		 pop	 ebp
  0008b	c2 04 00	 ret	 4
?UploadFile@i3NetworkFTP@@QAEHPBD@Z ENDP		; i3NetworkFTP::UploadFile
_TEXT	ENDS
; Function compile flags: /Ogtp
; File E:\Proyectos\JuegosOnlineproyectos\PB\pbblow\Piercing Blow Remake\i3Server\src\i3Base\i3NetworkFTP.cpp
;	COMDAT ?DownLoadFile2@i3NetworkFTP@@QAEHPAD@Z
_TEXT	SEGMENT
_pszPath$GSCopy$1$ = -5720				; size = 4
_dwRead$ = -5716					; size = 4
_hRemote$1$ = -5712					; size = 4
_file$ = -5708						; size = 312
_szTemp$ = -5396					; size = 4096
_buf$ = -1300						; size = 1024
_szNewFileName$ = -276					; size = 260
__$ArrayPad$ = -16					; size = 4
__$EHRec$ = -12						; size = 12
_pszPath$ = 8						; size = 4
?DownLoadFile2@i3NetworkFTP@@QAEHPAD@Z PROC		; i3NetworkFTP::DownLoadFile2, COMDAT
; _this$ = ecx

; 178  : {

  00000	55		 push	 ebp
  00001	8b ec		 mov	 ebp, esp
  00003	6a ff		 push	 -1
  00005	68 00 00 00 00	 push	 __ehhandler$?DownLoadFile2@i3NetworkFTP@@QAEHPAD@Z
  0000a	64 a1 00 00 00
	00		 mov	 eax, DWORD PTR fs:0
  00010	50		 push	 eax
  00011	b8 4c 16 00 00	 mov	 eax, 5708		; 0000164cH
  00016	e8 00 00 00 00	 call	 __chkstk
  0001b	a1 00 00 00 00	 mov	 eax, DWORD PTR ___security_cookie
  00020	33 c5		 xor	 eax, ebp
  00022	89 45 f0	 mov	 DWORD PTR __$ArrayPad$[ebp], eax
  00025	53		 push	 ebx
  00026	56		 push	 esi
  00027	57		 push	 edi
  00028	50		 push	 eax
  00029	8d 45 f4	 lea	 eax, DWORD PTR __$EHRec$[ebp]
  0002c	64 a3 00 00 00
	00		 mov	 DWORD PTR fs:0, eax
  00032	8b d9		 mov	 ebx, ecx
  00034	8b 75 08	 mov	 esi, DWORD PTR _pszPath$[ebp]

; 179  : 	char	szNewFileName[ MAX_PATH ];
; 180  : 
; 181  : 	char	buf[1024];
; 182  : 	BOOL	bResult;
; 183  : 	char	szTemp[4096];
; 184  : 
; 185  : 	DWORD	dwRead;
; 186  : 	i3FileStream	file;

  00037	8d 8d b4 e9 ff
	ff		 lea	 ecx, DWORD PTR _file$[ebp]
  0003d	89 b5 a8 e9 ff
	ff		 mov	 DWORD PTR _pszPath$GSCopy$1$[ebp], esi
  00043	e8 00 00 00 00	 call	 ??0i3FileStream@@QAE@XZ	; i3FileStream::i3FileStream

; 187  : 	HINTERNET	hRemote;
; 188  : 
; 189  : 	I3ASSERT( pszPath );
; 190  : 	I3ASSERT( m_hFtp );
; 191  : 
; 192  : 	// open server file
; 193  : 	hRemote = ::FtpOpenFile( m_hFtp, pszPath, GENERIC_READ, FTP_TRANSFER_TYPE_BINARY, 0 );

  00048	6a 00		 push	 0
  0004a	6a 02		 push	 2
  0004c	68 00 00 00 80	 push	 -2147483648		; 80000000H
  00051	56		 push	 esi
  00052	ff 73 14	 push	 DWORD PTR [ebx+20]
  00055	c7 45 fc 00 00
	00 00		 mov	 DWORD PTR __$EHRec$[ebp+8], 0
  0005c	ff 15 00 00 00
	00		 call	 DWORD PTR __imp__FtpOpenFileA@20
  00062	89 85 b0 e9 ff
	ff		 mov	 DWORD PTR _hRemote$1$[ebp], eax

; 194  : 	if( hRemote == NULL )

  00068	85 c0		 test	 eax, eax
  0006a	0f 84 82 00 00
	00		 je	 $LN10@DownLoadFi

; 195  : 	{
; 196  : 		I3TRACE( "i3NetworkFTP::DownLoadFile2() - can't ftp open file.\n" );
; 197  : 		return FALSE;
; 198  : 	}
; 199  : 
; 200  : 	// create local file
; 201  : 	::GetCurrentDirectory( MAX_PATH, szNewFileName );

  00070	8d 85 ec fe ff
	ff		 lea	 eax, DWORD PTR _szNewFileName$[ebp]
  00076	50		 push	 eax
  00077	68 04 01 00 00	 push	 260			; 00000104H
  0007c	ff 15 00 00 00
	00		 call	 DWORD PTR __imp__GetCurrentDirectoryA@8

; 202  : 	strcat( szNewFileName, "\\" );

  00082	8d bd ec fe ff
	ff		 lea	 edi, DWORD PTR _szNewFileName$[ebp]
  00088	4f		 dec	 edi
  00089	8d a4 24 00 00
	00 00		 npad	 7
$LL18@DownLoadFi:
  00090	8a 47 01	 mov	 al, BYTE PTR [edi+1]
  00093	8d 7f 01	 lea	 edi, DWORD PTR [edi+1]
  00096	84 c0		 test	 al, al
  00098	75 f6		 jne	 SHORT $LL18@DownLoadFi
  0009a	66 a1 00 00 00
	00		 mov	 ax, WORD PTR ??_C@_01KICIPPFI@?2@

; 203  : 	strcat( szNewFileName, pszPath );

  000a0	8b d6		 mov	 edx, esi
  000a2	66 89 07	 mov	 WORD PTR [edi], ax
$LL19@DownLoadFi:
  000a5	8a 02		 mov	 al, BYTE PTR [edx]
  000a7	42		 inc	 edx
  000a8	84 c0		 test	 al, al
  000aa	75 f9		 jne	 SHORT $LL19@DownLoadFi
  000ac	8d bd ec fe ff
	ff		 lea	 edi, DWORD PTR _szNewFileName$[ebp]
  000b2	2b d6		 sub	 edx, esi
  000b4	4f		 dec	 edi
$LL20@DownLoadFi:
  000b5	8a 47 01	 mov	 al, BYTE PTR [edi+1]
  000b8	47		 inc	 edi
  000b9	84 c0		 test	 al, al
  000bb	75 f8		 jne	 SHORT $LL20@DownLoadFi
  000bd	8b ca		 mov	 ecx, edx

; 204  : 	
; 205  : 	if( FALSE == file.Create( szNewFileName, STREAM_WRITE ) )

  000bf	8d 85 ec fe ff
	ff		 lea	 eax, DWORD PTR _szNewFileName$[ebp]
  000c5	c1 e9 02	 shr	 ecx, 2
  000c8	f3 a5		 rep movsd
  000ca	8b ca		 mov	 ecx, edx
  000cc	83 e1 03	 and	 ecx, 3
  000cf	6a 00		 push	 0
  000d1	f3 a4		 rep movsb
  000d3	6a 02		 push	 2
  000d5	50		 push	 eax
  000d6	8d 8d b4 e9 ff
	ff		 lea	 ecx, DWORD PTR _file$[ebp]
  000dc	e8 00 00 00 00	 call	 ?Create@i3FileStream@@UAEHPBDHI@Z ; i3FileStream::Create
  000e1	8b b5 b0 e9 ff
	ff		 mov	 esi, DWORD PTR _hRemote$1$[ebp]
  000e7	85 c0		 test	 eax, eax
  000e9	75 34		 jne	 SHORT $LN6@DownLoadFi

; 206  : 	{
; 207  : 		::InternetCloseHandle( hRemote );

  000eb	56		 push	 esi
  000ec	ff 15 00 00 00
	00		 call	 DWORD PTR __imp__InternetCloseHandle@4
$LN10@DownLoadFi:
  000f2	33 f6		 xor	 esi, esi
$LN11@DownLoadFi:

; 229  : 	return TRUE;

  000f4	8d 8d b4 e9 ff
	ff		 lea	 ecx, DWORD PTR _file$[ebp]
  000fa	e8 00 00 00 00	 call	 ??1i3FileStream@@UAE@XZ	; i3FileStream::~i3FileStream
  000ff	8b c6		 mov	 eax, esi

; 230  : }

  00101	8b 4d f4	 mov	 ecx, DWORD PTR __$EHRec$[ebp]
  00104	64 89 0d 00 00
	00 00		 mov	 DWORD PTR fs:0, ecx
  0010b	59		 pop	 ecx
  0010c	5f		 pop	 edi
  0010d	5e		 pop	 esi
  0010e	5b		 pop	 ebx
  0010f	8b 4d f0	 mov	 ecx, DWORD PTR __$ArrayPad$[ebp]
  00112	33 cd		 xor	 ecx, ebp
  00114	e8 00 00 00 00	 call	 @__security_check_cookie@4
  00119	8b e5		 mov	 esp, ebp
  0011b	5d		 pop	 ebp
  0011c	c2 04 00	 ret	 4
$LN6@DownLoadFi:

; 208  : 		I3TRACE( "i3NetworkFTP::DownLoadFile2() - can't open file.\n" );
; 209  : 		return FALSE;
; 210  : 	}
; 211  : 
; 212  : 	m_dwProg = 0;

  0011f	8b 3d 00 00 00
	00		 mov	 edi, DWORD PTR __imp__InternetReadFile@16
  00125	c7 83 a0 01 00
	00 00 00 00 00	 mov	 DWORD PTR [ebx+416], 0
  0012f	90		 npad	 1
$LL4@DownLoadFi:

; 213  : 
; 214  : 	for( ;; )
; 215  : 	{
; 216  : 		bResult = ::InternetReadFile( hRemote, buf, 1024, &dwRead );

  00130	8d 85 ac e9 ff
	ff		 lea	 eax, DWORD PTR _dwRead$[ebp]
  00136	50		 push	 eax
  00137	68 00 04 00 00	 push	 1024			; 00000400H
  0013c	8d 85 ec fa ff
	ff		 lea	 eax, DWORD PTR _buf$[ebp]
  00142	50		 push	 eax
  00143	56		 push	 esi
  00144	ff d7		 call	 edi

; 217  : 		if( bResult == TRUE && dwRead == 0 )

  00146	83 f8 01	 cmp	 eax, 1
  00149	75 09		 jne	 SHORT $LN7@DownLoadFi
  0014b	83 bd ac e9 ff
	ff 00		 cmp	 DWORD PTR _dwRead$[ebp], 0
  00152	74 49		 je	 SHORT $LN14@DownLoadFi
$LN7@DownLoadFi:

; 218  : 			break;
; 219  : 
; 220  : 		file.Printf( szTemp, buf );

  00154	8d 85 ec fa ff
	ff		 lea	 eax, DWORD PTR _buf$[ebp]
  0015a	50		 push	 eax
  0015b	8d 85 ec ea ff
	ff		 lea	 eax, DWORD PTR _szTemp$[ebp]
  00161	50		 push	 eax
  00162	8d 85 b4 e9 ff
	ff		 lea	 eax, DWORD PTR _file$[ebp]
  00168	50		 push	 eax
  00169	e8 00 00 00 00	 call	 ?Printf@i3Stream@@UAAIPADPBDZZ ; i3Stream::Printf

; 221  : 		m_dwProg += dwRead;

  0016e	8b 85 ac e9 ff
	ff		 mov	 eax, DWORD PTR _dwRead$[ebp]
  00174	01 83 a0 01 00
	00		 add	 DWORD PTR [ebx+416], eax

; 222  : 
; 223  : 		wsprintf( m_szStr, "%s %d", pszPath, m_dwProg);

  0017a	8d 83 9e 00 00
	00		 lea	 eax, DWORD PTR [ebx+158]
  00180	ff b3 a0 01 00
	00		 push	 DWORD PTR [ebx+416]
  00186	ff b5 a8 e9 ff
	ff		 push	 DWORD PTR _pszPath$GSCopy$1$[ebp]
  0018c	68 00 00 00 00	 push	 OFFSET ??_C@_05DIALNFFA@?$CFs?5?$CFd@
  00191	50		 push	 eax
  00192	ff 15 00 00 00
	00		 call	 DWORD PTR __imp__wsprintfA
  00198	83 c4 1c	 add	 esp, 28			; 0000001cH
  0019b	eb 93		 jmp	 SHORT $LL4@DownLoadFi
$LN14@DownLoadFi:

; 224  : 	}
; 225  : 
; 226  : 	file.Close();

  0019d	8d 8d b4 e9 ff
	ff		 lea	 ecx, DWORD PTR _file$[ebp]
  001a3	e8 00 00 00 00	 call	 ?Close@i3FileStream@@UAEHXZ ; i3FileStream::Close

; 227  : 
; 228  : 	::InternetCloseHandle( hRemote );

  001a8	56		 push	 esi
  001a9	ff 15 00 00 00
	00		 call	 DWORD PTR __imp__InternetCloseHandle@4

; 229  : 	return TRUE;

  001af	be 01 00 00 00	 mov	 esi, 1
  001b4	e9 3b ff ff ff	 jmp	 $LN11@DownLoadFi
_TEXT	ENDS
;	COMDAT text$x
text$x	SEGMENT
__unwindfunclet$?DownLoadFile2@i3NetworkFTP@@QAEHPAD@Z$0:
  00000	8d 8d b4 e9 ff
	ff		 lea	 ecx, DWORD PTR _file$[ebp]
  00006	e9 00 00 00 00	 jmp	 ??1i3FileStream@@UAE@XZ	; i3FileStream::~i3FileStream
  0000b	cc		 int	 3
  0000c	cc		 int	 3
  0000d	cc		 int	 3
  0000e	cc		 int	 3
  0000f	cc		 int	 3
__ehhandler$?DownLoadFile2@i3NetworkFTP@@QAEHPAD@Z:
  00010	90		 npad	 1
  00011	90		 npad	 1
  00012	8b 54 24 08	 mov	 edx, DWORD PTR [esp+8]
  00016	8d 42 0c	 lea	 eax, DWORD PTR [edx+12]
  00019	8b 8a a4 e9 ff
	ff		 mov	 ecx, DWORD PTR [edx-5724]
  0001f	33 c8		 xor	 ecx, eax
  00021	e8 00 00 00 00	 call	 @__security_check_cookie@4
  00026	8b 4a fc	 mov	 ecx, DWORD PTR [edx-4]
  00029	33 c8		 xor	 ecx, eax
  0002b	e8 00 00 00 00	 call	 @__security_check_cookie@4
  00030	b8 00 00 00 00	 mov	 eax, OFFSET __ehfuncinfo$?DownLoadFile2@i3NetworkFTP@@QAEHPAD@Z
  00035	e9 00 00 00 00	 jmp	 ___CxxFrameHandler3
text$x	ENDS
?DownLoadFile2@i3NetworkFTP@@QAEHPAD@Z ENDP		; i3NetworkFTP::DownLoadFile2
; Function compile flags: /Ogtp
; File E:\Proyectos\JuegosOnlineproyectos\PB\pbblow\Piercing Blow Remake\i3Server\src\i3Base\i3NetworkFTP.cpp
;	COMDAT ?DownLoadFile@i3NetworkFTP@@QAEHPAD0@Z
_TEXT	SEGMENT
_pszRemotePath$GSCopy$1$ = -1052			; size = 4
_pszLocalPath$GSCopy$1$ = -1048				; size = 4
_szPath$ = -1044					; size = 260
_szExt$ = -784						; size = 260
_szFileName$ = -524					; size = 260
_szFilePath$ = -264					; size = 260
__$ArrayPad$ = -4					; size = 4
_pszLocalPath$ = 8					; size = 4
_pszRemotePath$ = 12					; size = 4
?DownLoadFile@i3NetworkFTP@@QAEHPAD0@Z PROC		; i3NetworkFTP::DownLoadFile, COMDAT
; _this$ = ecx

; 136  : {

  00000	55		 push	 ebp
  00001	8b ec		 mov	 ebp, esp
  00003	81 ec 1c 04 00
	00		 sub	 esp, 1052		; 0000041cH
  00009	a1 00 00 00 00	 mov	 eax, DWORD PTR ___security_cookie
  0000e	33 c5		 xor	 eax, ebp
  00010	89 45 fc	 mov	 DWORD PTR __$ArrayPad$[ebp], eax
  00013	8b 45 08	 mov	 eax, DWORD PTR _pszLocalPath$[ebp]
  00016	53		 push	 ebx
  00017	56		 push	 esi
  00018	8b d9		 mov	 ebx, ecx
  0001a	89 85 e8 fb ff
	ff		 mov	 DWORD PTR _pszLocalPath$GSCopy$1$[ebp], eax
  00020	8b 4d 0c	 mov	 ecx, DWORD PTR _pszRemotePath$[ebp]
  00023	57		 push	 edi
  00024	89 8d e4 fb ff
	ff		 mov	 DWORD PTR _pszRemotePath$GSCopy$1$[ebp], ecx

; 137  : 	BOOL	bResult = FALSE;
; 138  : 	char	szPath[ MAX_PATH ];
; 139  : 	char	szFileName[ MAX_PATH ];
; 140  : 	char	szExt[ _MAX_PATH ];
; 141  : 	
; 142  : 	char	szFilePath[ MAX_PATH ];
; 143  : 	INT32	nLocalLen, nFileLen;
; 144  : 	
; 145  : 	_splitpath( pszLocalPath, NULL, szPath, szFileName, szExt );

  0002a	8d 8d f0 fc ff
	ff		 lea	 ecx, DWORD PTR _szExt$[ebp]
  00030	51		 push	 ecx
  00031	8d 8d f4 fd ff
	ff		 lea	 ecx, DWORD PTR _szFileName$[ebp]
  00037	51		 push	 ecx
  00038	8d 8d ec fb ff
	ff		 lea	 ecx, DWORD PTR _szPath$[ebp]
  0003e	51		 push	 ecx
  0003f	6a 00		 push	 0
  00041	50		 push	 eax
  00042	e8 00 00 00 00	 call	 __splitpath

; 146  : 	strcat( szFileName, szExt );

  00047	8d 95 f0 fc ff
	ff		 lea	 edx, DWORD PTR _szExt$[ebp]
  0004d	83 c4 14	 add	 esp, 20			; 00000014H
  00050	8b f2		 mov	 esi, edx
$LL8@DownLoadFi:
  00052	8a 02		 mov	 al, BYTE PTR [edx]
  00054	42		 inc	 edx
  00055	84 c0		 test	 al, al
  00057	75 f9		 jne	 SHORT $LL8@DownLoadFi
  00059	8d bd f4 fd ff
	ff		 lea	 edi, DWORD PTR _szFileName$[ebp]
  0005f	2b d6		 sub	 edx, esi
  00061	4f		 dec	 edi
$LL9@DownLoadFi:
  00062	8a 47 01	 mov	 al, BYTE PTR [edi+1]
  00065	47		 inc	 edi
  00066	84 c0		 test	 al, al
  00068	75 f8		 jne	 SHORT $LL9@DownLoadFi

; 147  : 
; 148  : 	nLocalLen = i3String::Length( pszLocalPath );

  0006a	ff b5 e8 fb ff
	ff		 push	 DWORD PTR _pszLocalPath$GSCopy$1$[ebp]
  00070	8b ca		 mov	 ecx, edx
  00072	c1 e9 02	 shr	 ecx, 2
  00075	f3 a5		 rep movsd
  00077	8b ca		 mov	 ecx, edx
  00079	83 e1 03	 and	 ecx, 3
  0007c	f3 a4		 rep movsb
  0007e	e8 00 00 00 00	 call	 ?Length@i3String@@YAHPBD@Z ; i3String::Length
  00083	8b f0		 mov	 esi, eax

; 149  : 	nFileLen = i3String::Length( szFileName );

  00085	8d 85 f4 fd ff
	ff		 lea	 eax, DWORD PTR _szFileName$[ebp]
  0008b	50		 push	 eax
  0008c	e8 00 00 00 00	 call	 ?Length@i3String@@YAHPBD@Z ; i3String::Length
  00091	83 c4 08	 add	 esp, 8

; 150  : 
; 151  : 	nLocalLen -= nFileLen;
; 152  : 
; 153  : 	strcpy( szFilePath, m_szLocalDirectory );

  00094	8d 8b ac 01 00
	00		 lea	 ecx, DWORD PTR [ebx+428]
  0009a	2b f0		 sub	 esi, eax
  0009c	8d 95 f8 fe ff
	ff		 lea	 edx, DWORD PTR _szFilePath$[ebp]
$LL4@DownLoadFi:
  000a2	8a 01		 mov	 al, BYTE PTR [ecx]
  000a4	8d 49 01	 lea	 ecx, DWORD PTR [ecx+1]
  000a7	88 02		 mov	 BYTE PTR [edx], al
  000a9	8d 52 01	 lea	 edx, DWORD PTR [edx+1]
  000ac	84 c0		 test	 al, al
  000ae	75 f2		 jne	 SHORT $LL4@DownLoadFi

; 154  : 	strcat( szFilePath, "\\" );

  000b0	8d bd f8 fe ff
	ff		 lea	 edi, DWORD PTR _szFilePath$[ebp]
  000b6	4f		 dec	 edi
$LL10@DownLoadFi:
  000b7	8a 47 01	 mov	 al, BYTE PTR [edi+1]
  000ba	8d 7f 01	 lea	 edi, DWORD PTR [edi+1]
  000bd	84 c0		 test	 al, al
  000bf	75 f6		 jne	 SHORT $LL10@DownLoadFi
  000c1	66 a1 00 00 00
	00		 mov	 ax, WORD PTR ??_C@_01KICIPPFI@?2@
  000c7	66 89 07	 mov	 WORD PTR [edi], ax

; 155  : 
; 156  : 	if( nLocalLen > 0 )

  000ca	85 f6		 test	 esi, esi
  000cc	7e 3c		 jle	 SHORT $LN2@DownLoadFi

; 157  : 	{
; 158  : 		strcat( szFilePath, szPath );

  000ce	8d 95 ec fb ff
	ff		 lea	 edx, DWORD PTR _szPath$[ebp]
  000d4	8b f2		 mov	 esi, edx
$LL11@DownLoadFi:
  000d6	8a 02		 mov	 al, BYTE PTR [edx]
  000d8	42		 inc	 edx
  000d9	84 c0		 test	 al, al
  000db	75 f9		 jne	 SHORT $LL11@DownLoadFi
  000dd	8d bd f8 fe ff
	ff		 lea	 edi, DWORD PTR _szFilePath$[ebp]
  000e3	2b d6		 sub	 edx, esi
  000e5	4f		 dec	 edi
$LL12@DownLoadFi:
  000e6	8a 47 01	 mov	 al, BYTE PTR [edi+1]
  000e9	47		 inc	 edi
  000ea	84 c0		 test	 al, al
  000ec	75 f8		 jne	 SHORT $LL12@DownLoadFi
  000ee	8b ca		 mov	 ecx, edx

; 159  : 
; 160  : 		CheckDirectory( szFilePath );

  000f0	8d 85 f8 fe ff
	ff		 lea	 eax, DWORD PTR _szFilePath$[ebp]
  000f6	c1 e9 02	 shr	 ecx, 2
  000f9	f3 a5		 rep movsd
  000fb	8b ca		 mov	 ecx, edx
  000fd	83 e1 03	 and	 ecx, 3
  00100	f3 a4		 rep movsb
  00102	50		 push	 eax
  00103	8b cb		 mov	 ecx, ebx
  00105	e8 00 00 00 00	 call	 ?CheckDirectory@i3NetworkFTP@@QAEHPBD@Z ; i3NetworkFTP::CheckDirectory
$LN2@DownLoadFi:

; 161  : 	}
; 162  : 
; 163  : 	// ąŢŔ» µđ·şĹä¸®·Î ĽĽĆĂ
; 164  : 	::SetCurrentDirectory( szFilePath );

  0010a	8b 3d 00 00 00
	00		 mov	 edi, DWORD PTR __imp__SetCurrentDirectoryA@4
  00110	8d 85 f8 fe ff
	ff		 lea	 eax, DWORD PTR _szFilePath$[ebp]
  00116	50		 push	 eax
  00117	ff d7		 call	 edi

; 165  : 
; 166  : 	sprintf( m_szStr, "Download : %s\n ", pszLocalPath );

  00119	ff b5 e8 fb ff
	ff		 push	 DWORD PTR _pszLocalPath$GSCopy$1$[ebp]
  0011f	8d 83 9e 00 00
	00		 lea	 eax, DWORD PTR [ebx+158]
  00125	68 00 00 00 00	 push	 OFFSET ??_C@_0BA@EPKFCIFN@Download?5?3?5?$CFs?6?5@
  0012a	50		 push	 eax
  0012b	e8 00 00 00 00	 call	 _sprintf
  00130	83 c4 0c	 add	 esp, 12			; 0000000cH

; 167  : 
; 168  : 	bResult = ::FtpGetFile( m_hFtp, pszRemotePath, szFileName, FALSE, FILE_ATTRIBUTE_NORMAL,

  00133	8d 85 f4 fd ff
	ff		 lea	 eax, DWORD PTR _szFileName$[ebp]
  00139	6a 00		 push	 0
  0013b	68 02 00 00 80	 push	 -2147483646		; 80000002H
  00140	68 80 00 00 00	 push	 128			; 00000080H
  00145	6a 00		 push	 0
  00147	50		 push	 eax
  00148	ff b5 e4 fb ff
	ff		 push	 DWORD PTR _pszRemotePath$GSCopy$1$[ebp]
  0014e	ff 73 14	 push	 DWORD PTR [ebx+20]
  00151	ff 15 00 00 00
	00		 call	 DWORD PTR __imp__FtpGetFileA@28
  00157	8b f0		 mov	 esi, eax

; 169  : 		FTP_TRANSFER_TYPE_BINARY | INTERNET_FLAG_RELOAD, 0 );
; 170  : 
; 171  : 	// ·çĆ® µđ·şĹä¸®·Î µą·Áłő´Â´Ů.
; 172  : 	::SetCurrentDirectory( m_szLocalDirectory );

  00159	8d 83 ac 01 00
	00		 lea	 eax, DWORD PTR [ebx+428]
  0015f	50		 push	 eax
  00160	ff d7		 call	 edi

; 173  : 
; 174  : 	return bResult;
; 175  : }

  00162	8b 4d fc	 mov	 ecx, DWORD PTR __$ArrayPad$[ebp]
  00165	8b c6		 mov	 eax, esi
  00167	5f		 pop	 edi
  00168	5e		 pop	 esi
  00169	33 cd		 xor	 ecx, ebp
  0016b	5b		 pop	 ebx
  0016c	e8 00 00 00 00	 call	 @__security_check_cookie@4
  00171	8b e5		 mov	 esp, ebp
  00173	5d		 pop	 ebp
  00174	c2 08 00	 ret	 8
?DownLoadFile@i3NetworkFTP@@QAEHPAD0@Z ENDP		; i3NetworkFTP::DownLoadFile
_TEXT	ENDS
; Function compile flags: /Ogtp
; File E:\Proyectos\JuegosOnlineproyectos\PB\pbblow\Piercing Blow Remake\i3Server\src\i3Base\i3NetworkFTP.cpp
;	COMDAT ?DownLoadFile@i3NetworkFTP@@QAEHPAD@Z
_TEXT	SEGMENT
_this$GSCopy$1$ = -528					; size = 4
_szExt$ = -524						; size = 260
_szRemote$ = -264					; size = 260
__$ArrayPad$ = -4					; size = 4
_pszPath$ = 8						; size = 4
?DownLoadFile@i3NetworkFTP@@QAEHPAD@Z PROC		; i3NetworkFTP::DownLoadFile, COMDAT
; _this$ = ecx

; 125  : {

  00000	55		 push	 ebp
  00001	8b ec		 mov	 ebp, esp
  00003	81 ec 10 02 00
	00		 sub	 esp, 528		; 00000210H
  00009	a1 00 00 00 00	 mov	 eax, DWORD PTR ___security_cookie
  0000e	33 c5		 xor	 eax, ebp
  00010	89 45 fc	 mov	 DWORD PTR __$ArrayPad$[ebp], eax
  00013	53		 push	 ebx
  00014	8b 5d 08	 mov	 ebx, DWORD PTR _pszPath$[ebp]

; 126  : 	char	szRemote[ MAX_PATH ];
; 127  : 	char	szExt[ _MAX_PATH ];
; 128  : 	
; 129  : 	_splitpath( pszPath, NULL, NULL, szRemote, szExt );

  00017	8d 85 f4 fd ff
	ff		 lea	 eax, DWORD PTR _szExt$[ebp]
  0001d	56		 push	 esi
  0001e	57		 push	 edi
  0001f	50		 push	 eax
  00020	8d 85 f8 fe ff
	ff		 lea	 eax, DWORD PTR _szRemote$[ebp]
  00026	89 8d f0 fd ff
	ff		 mov	 DWORD PTR _this$GSCopy$1$[ebp], ecx
  0002c	50		 push	 eax
  0002d	6a 00		 push	 0
  0002f	6a 00		 push	 0
  00031	53		 push	 ebx
  00032	e8 00 00 00 00	 call	 __splitpath

; 130  : 	strcat( szRemote, szExt );

  00037	8d 85 f4 fd ff
	ff		 lea	 eax, DWORD PTR _szExt$[ebp]
  0003d	83 c4 14	 add	 esp, 20			; 00000014H
  00040	8b f0		 mov	 esi, eax
$LL3@DownLoadFi:
  00042	8a 08		 mov	 cl, BYTE PTR [eax]
  00044	40		 inc	 eax
  00045	84 c9		 test	 cl, cl
  00047	75 f9		 jne	 SHORT $LL3@DownLoadFi
  00049	8d bd f8 fe ff
	ff		 lea	 edi, DWORD PTR _szRemote$[ebp]
  0004f	2b c6		 sub	 eax, esi
  00051	4f		 dec	 edi
$LL4@DownLoadFi:
  00052	8a 4f 01	 mov	 cl, BYTE PTR [edi+1]
  00055	47		 inc	 edi
  00056	84 c9		 test	 cl, cl
  00058	75 f8		 jne	 SHORT $LL4@DownLoadFi
  0005a	8b c8		 mov	 ecx, eax
  0005c	c1 e9 02	 shr	 ecx, 2
  0005f	f3 a5		 rep movsd
  00061	8b c8		 mov	 ecx, eax

; 131  : 
; 132  : 	return DownLoadFile( pszPath, szRemote );

  00063	8d 85 f8 fe ff
	ff		 lea	 eax, DWORD PTR _szRemote$[ebp]
  00069	83 e1 03	 and	 ecx, 3
  0006c	f3 a4		 rep movsb
  0006e	8b 8d f0 fd ff
	ff		 mov	 ecx, DWORD PTR _this$GSCopy$1$[ebp]
  00074	50		 push	 eax
  00075	53		 push	 ebx
  00076	e8 00 00 00 00	 call	 ?DownLoadFile@i3NetworkFTP@@QAEHPAD0@Z ; i3NetworkFTP::DownLoadFile

; 133  : }

  0007b	8b 4d fc	 mov	 ecx, DWORD PTR __$ArrayPad$[ebp]
  0007e	5f		 pop	 edi
  0007f	5e		 pop	 esi
  00080	33 cd		 xor	 ecx, ebp
  00082	5b		 pop	 ebx
  00083	e8 00 00 00 00	 call	 @__security_check_cookie@4
  00088	8b e5		 mov	 esp, ebp
  0008a	5d		 pop	 ebp
  0008b	c2 04 00	 ret	 4
?DownLoadFile@i3NetworkFTP@@QAEHPAD@Z ENDP		; i3NetworkFTP::DownLoadFile
_TEXT	ENDS
; Function compile flags: /Ogtp
; File E:\Proyectos\JuegosOnlineproyectos\PB\pbblow\Piercing Blow Remake\i3Server\src\i3Base\i3NetworkFTP.cpp
;	COMDAT ?DisConnect@i3NetworkFTP@@QAEHXZ
_TEXT	SEGMENT
?DisConnect@i3NetworkFTP@@QAEHXZ PROC			; i3NetworkFTP::DisConnect, COMDAT
; _this$ = ecx

; 115  : {

  00000	57		 push	 edi
  00001	8b f9		 mov	 edi, ecx

; 116  : 	::InternetCloseHandle( m_hFtp );

  00003	ff 77 14	 push	 DWORD PTR [edi+20]
  00006	ff 15 00 00 00
	00		 call	 DWORD PTR __imp__InternetCloseHandle@4

; 117  : 	::InternetCloseHandle( m_hInternet );

  0000c	ff 77 10	 push	 DWORD PTR [edi+16]
  0000f	ff 15 00 00 00
	00		 call	 DWORD PTR __imp__InternetCloseHandle@4

; 118  : 	m_hFtp			= NULL;

  00015	c7 47 14 00 00
	00 00		 mov	 DWORD PTR [edi+20], 0

; 119  : 	m_hInternet		= NULL;
; 120  : 
; 121  : 	return TRUE;

  0001c	b8 01 00 00 00	 mov	 eax, 1
  00021	c7 47 10 00 00
	00 00		 mov	 DWORD PTR [edi+16], 0
  00028	5f		 pop	 edi

; 122  : }

  00029	c3		 ret	 0
?DisConnect@i3NetworkFTP@@QAEHXZ ENDP			; i3NetworkFTP::DisConnect
_TEXT	ENDS
; Function compile flags: /Ogtp
; File E:\Proyectos\JuegosOnlineproyectos\PB\pbblow\Piercing Blow Remake\i3Server\src\i3Base\i3NetworkFTP.cpp
;	COMDAT ?Connect@i3NetworkFTP@@QAEHXZ
_TEXT	SEGMENT
?Connect@i3NetworkFTP@@QAEHXZ PROC			; i3NetworkFTP::Connect, COMDAT
; _this$ = ecx

; 93   : {

  00000	56		 push	 esi

; 94   : 	// INTERNET_FLAG_PASSIVE mode
; 95   : 	// Á˘ĽÓ ±ÇÇŃŔ» °ˇÁ® żŔ±â Ŕ§ÇŘ ĆĐ˝Ăşę ¸đµĺ·Î Á˘ĽÓÇŃ Ćú´őŔÇ ÇĎŔ§ Ćú´ő±îÁö ±ÇÇŃŔ» °ˇÁ®żÉ´Ď´Ů.
; 96   : 	m_hInternet = ::InternetOpen( "I3FTP", INTERNET_OPEN_TYPE_PRECONFIG,

  00001	68 00 00 00 08	 push	 134217728		; 08000000H
  00006	6a 00		 push	 0
  00008	6a 00		 push	 0
  0000a	6a 00		 push	 0
  0000c	68 00 00 00 00	 push	 OFFSET ??_C@_05OPJKBLHH@I3FTP@
  00011	8b f1		 mov	 esi, ecx
  00013	ff 15 00 00 00
	00		 call	 DWORD PTR __imp__InternetOpenA@20
  00019	8b c8		 mov	 ecx, eax
  0001b	89 4e 10	 mov	 DWORD PTR [esi+16], ecx

; 97   : 		NULL, NULL, INTERNET_FLAG_PASSIVE );
; 98   : 
; 99   : 	if( m_hInternet == NULL )

  0001e	85 c9		 test	 ecx, ecx
  00020	74 31		 je	 SHORT $LN7@Connect

; 100  : 		return FALSE;
; 101  : 
; 102  : 	m_hFtp = ::InternetConnect( m_hInternet, getAddress(), (INTERNET_PORT) m_nPort,

  00022	6a 00		 push	 0
  00024	68 00 00 00 08	 push	 134217728		; 08000000H
  00029	6a 01		 push	 1
  0002b	8d 46 7e	 lea	 eax, DWORD PTR [esi+126]
  0002e	50		 push	 eax
  0002f	8d 46 5e	 lea	 eax, DWORD PTR [esi+94]
  00032	50		 push	 eax
  00033	0f b7 46 5c	 movzx	 eax, WORD PTR [esi+92]
  00037	50		 push	 eax
  00038	8d 46 1c	 lea	 eax, DWORD PTR [esi+28]
  0003b	50		 push	 eax
  0003c	51		 push	 ecx
  0003d	ff 15 00 00 00
	00		 call	 DWORD PTR __imp__InternetConnectA@32
  00043	89 46 14	 mov	 DWORD PTR [esi+20], eax

; 103  : 		getUserID(), getUserPass(), INTERNET_SERVICE_FTP, INTERNET_FLAG_PASSIVE, 0 );
; 104  : 
; 105  : 	if( m_hFtp == NULL )

  00046	85 c0		 test	 eax, eax
  00048	75 0d		 jne	 SHORT $LN3@Connect

; 106  : 	{
; 107  : 		::InternetCloseHandle( m_hInternet );

  0004a	ff 76 10	 push	 DWORD PTR [esi+16]
  0004d	ff 15 00 00 00
	00		 call	 DWORD PTR __imp__InternetCloseHandle@4
$LN7@Connect:

; 112  : }

  00053	33 c0		 xor	 eax, eax
  00055	5e		 pop	 esi
  00056	c3		 ret	 0
$LN3@Connect:

; 108  : 		return FALSE;
; 109  : 	}
; 110  : 
; 111  : 	return TRUE;

  00057	b8 01 00 00 00	 mov	 eax, 1
  0005c	5e		 pop	 esi

; 112  : }

  0005d	c3		 ret	 0
?Connect@i3NetworkFTP@@QAEHXZ ENDP			; i3NetworkFTP::Connect
_TEXT	ENDS
; Function compile flags: /Ogtp
; File E:\Proyectos\JuegosOnlineproyectos\PB\pbblow\Piercing Blow Remake\i3Server\src\i3Base\i3NetworkFTP.cpp
; File E:\Proyectos\JuegosOnlineproyectos\PB\pbblow\Piercing Blow Remake\i3Server\include\i3Base\i3NetworkFTP.h
; File E:\Proyectos\JuegosOnlineproyectos\PB\pbblow\Piercing Blow Remake\i3Server\src\i3Base\i3NetworkFTP.cpp
; File E:\Proyectos\JuegosOnlineproyectos\PB\pbblow\Piercing Blow Remake\i3Server\include\i3Base\i3NetworkFTP.h
; File E:\Proyectos\JuegosOnlineproyectos\PB\pbblow\Piercing Blow Remake\i3Server\src\i3Base\i3NetworkFTP.cpp
;	COMDAT ?Create@i3NetworkFTP@@QAEHPADH00I@Z
_TEXT	SEGMENT
_address$ = 8						; size = 4
_dwCur$1 = 8						; size = 4
_nPort$ = 12						; size = 4
_id$ = 16						; size = 4
_pass$ = 20						; size = 4
_nFlag$ = 24						; size = 4
?Create@i3NetworkFTP@@QAEHPADH00I@Z PROC		; i3NetworkFTP::Create, COMDAT
; _this$ = ecx

; 34   : {	

  00000	55		 push	 ebp
  00001	8b ec		 mov	 ebp, esp
  00003	56		 push	 esi
  00004	57		 push	 edi
  00005	8b f9		 mov	 edi, ecx
; File E:\Proyectos\JuegosOnlineproyectos\PB\pbblow\Piercing Blow Remake\i3Server\include\i3Base\i3NetworkFTP.h

; 63   : 	void	setAddress( char * address )		{ i3String::Copy( m_szAddress, address, MAX_FTPADDRESS ); }

  00007	6a 40		 push	 64			; 00000040H
  00009	ff 75 08	 push	 DWORD PTR _address$[ebp]
  0000c	8d 47 1c	 lea	 eax, DWORD PTR [edi+28]
  0000f	50		 push	 eax
  00010	e8 00 00 00 00	 call	 ?Copy@i3String@@YAXPADPBDH@Z ; i3String::Copy
; File E:\Proyectos\JuegosOnlineproyectos\PB\pbblow\Piercing Blow Remake\i3Server\src\i3Base\i3NetworkFTP.cpp

; 37   : 	if( nPort == 0 )

  00015	8b 45 0c	 mov	 eax, DWORD PTR _nPort$[ebp]
; File E:\Proyectos\JuegosOnlineproyectos\PB\pbblow\Piercing Blow Remake\i3Server\include\i3Base\i3NetworkFTP.h

; 63   : 	void	setAddress( char * address )		{ i3String::Copy( m_szAddress, address, MAX_FTPADDRESS ); }

  00018	83 c4 0c	 add	 esp, 12			; 0000000cH
; File E:\Proyectos\JuegosOnlineproyectos\PB\pbblow\Piercing Blow Remake\i3Server\src\i3Base\i3NetworkFTP.cpp

; 37   : 	if( nPort == 0 )

  0001b	85 c0		 test	 eax, eax
  0001d	75 07		 jne	 SHORT $LN2@Create

; 38   : 		setPort( (UINT16) I3_FTP_DEFAULT_PORT );

  0001f	b8 15 00 00 00	 mov	 eax, 21			; 00000015H
  00024	eb 03		 jmp	 SHORT $LN3@Create
$LN2@Create:

; 39   : 	else
; 40   : 		setPort( (UINT16) nPort );			// port

  00026	0f b7 c0	 movzx	 eax, ax
$LN3@Create:

; 41   : 
; 42   : 	// Á˘ĽÓ ľĆŔĚµđ
; 43   : 	if( id == NULL )
; 44   : 		setUserID( I3_FTP_DEFAULT_ID );
; 45   : 	else
; 46   : 		setUserID( id );
; 47   : 
; 48   : 	// ĆĐ˝şżöµĺ
; 49   : 	if( pass == NULL )

  00029	66 89 47 5c	 mov	 WORD PTR [edi+92], ax
  0002d	b9 00 00 00 00	 mov	 ecx, OFFSET ??_C@_09BMFBKPHA@anonymous@
  00032	8b 45 10	 mov	 eax, DWORD PTR _id$[ebp]
  00035	85 c0		 test	 eax, eax
  00037	6a 20		 push	 32			; 00000020H
  00039	0f 45 c8	 cmovne	 ecx, eax
  0003c	8d 47 5e	 lea	 eax, DWORD PTR [edi+94]
  0003f	51		 push	 ecx
  00040	50		 push	 eax
  00041	e8 00 00 00 00	 call	 ?Copy@i3String@@YAXPADPBDH@Z ; i3String::Copy

; 50   : 		setUserPass( I3_FTP_DEFAULT_PASS );
; 51   : 	else
; 52   : 		setUserPass( pass );
; 53   : 
; 54   : 	// ÇĂ·ˇ±× ĽĽĆĂ
; 55   : 	setFlags( nFlag );

  00046	8b 45 14	 mov	 eax, DWORD PTR _pass$[ebp]
  00049	b9 00 00 00 00	 mov	 ecx, OFFSET ??_C@_00CNPNBAHC@@
  0004e	85 c0		 test	 eax, eax
  00050	6a 20		 push	 32			; 00000020H
  00052	0f 45 c8	 cmovne	 ecx, eax
  00055	8d 47 7e	 lea	 eax, DWORD PTR [edi+126]
  00058	51		 push	 ecx
  00059	50		 push	 eax
  0005a	e8 00 00 00 00	 call	 ?Copy@i3String@@YAXPADPBDH@Z ; i3String::Copy
  0005f	8b 45 18	 mov	 eax, DWORD PTR _nFlag$[ebp]

; 56   : 
; 57   : 	// ÇöŔç ·ÎÄĂ Ćú´ő
; 58   : 	::GetCurrentDirectory( MAX_PATH, m_szLocalDirectory );

  00062	8d b7 ac 01 00
	00		 lea	 esi, DWORD PTR [edi+428]
  00068	83 c4 18	 add	 esp, 24			; 00000018H
  0006b	89 47 18	 mov	 DWORD PTR [edi+24], eax
  0006e	56		 push	 esi
  0006f	68 04 01 00 00	 push	 260			; 00000104H
  00074	ff 15 00 00 00
	00		 call	 DWORD PTR __imp__GetCurrentDirectoryA@8

; 59   : 
; 60   : 	m_nLocalDirLen	= i3String::Length( m_szLocalDirectory );

  0007a	56		 push	 esi
  0007b	e8 00 00 00 00	 call	 ?Length@i3String@@YAHPBD@Z ; i3String::Length
  00080	83 c4 04	 add	 esp, 4
  00083	89 87 a8 01 00
	00		 mov	 DWORD PTR [edi+424], eax

; 61   : 	
; 62   : 	if( getFlags() & I3_FTP_FLAG_CONNECTMAINTAIN )

  00089	f6 47 18 02	 test	 BYTE PTR [edi+24], 2
  0008d	74 0b		 je	 SHORT $LN43@Create

; 63   : 	{
; 64   : 		if( !Connect() )

  0008f	8b cf		 mov	 ecx, edi
  00091	e8 00 00 00 00	 call	 ?Connect@i3NetworkFTP@@QAEHXZ ; i3NetworkFTP::Connect
  00096	85 c0		 test	 eax, eax
  00098	74 16		 je	 SHORT $LN45@Create
$LN43@Create:

; 65   : 			return FALSE;
; 66   : 	}
; 67   : 
; 68   : 	// FTP Server directory
; 69   : 	if( getFlags() & I3_FTP_FLAG_CHECKREMOTEDIR )

  0009a	8b 47 18	 mov	 eax, DWORD PTR [edi+24]
  0009d	a8 01		 test	 al, 1
  0009f	74 7b		 je	 SHORT $LN13@Create

; 70   : 	{
; 71   : 		if( !(getFlags() & I3_FTP_FLAG_CONNECTMAINTAIN) )

  000a1	a8 02		 test	 al, 2
  000a3	75 13		 jne	 SHORT $LN44@Create

; 72   : 		{
; 73   : 			if( !Connect() )

  000a5	8b cf		 mov	 ecx, edi
  000a7	e8 00 00 00 00	 call	 ?Connect@i3NetworkFTP@@QAEHXZ ; i3NetworkFTP::Connect
  000ac	85 c0		 test	 eax, eax
  000ae	75 08		 jne	 SHORT $LN44@Create
$LN45@Create:
  000b0	5f		 pop	 edi

; 74   : 				return FALSE;

  000b1	33 c0		 xor	 eax, eax

; 90   : }

  000b3	5e		 pop	 esi
  000b4	5d		 pop	 ebp
  000b5	c2 14 00	 ret	 20			; 00000014H
$LN44@Create:

; 75   : 		}
; 76   : 
; 77   : 		{
; 78   : 			DWORD	dwCur = MAX_PATH;
; 79   : 
; 80   : 			::FtpGetCurrentDirectory( m_hFtp, m_szRemoteDirectory, &dwCur );

  000b8	8d 45 08	 lea	 eax, DWORD PTR _dwCur$1[ebp]
  000bb	c7 45 08 04 01
	00 00		 mov	 DWORD PTR _dwCur$1[ebp], 260 ; 00000104H
  000c2	50		 push	 eax
  000c3	8d b7 b0 02 00
	00		 lea	 esi, DWORD PTR [edi+688]
  000c9	56		 push	 esi
  000ca	ff 77 14	 push	 DWORD PTR [edi+20]
  000cd	ff 15 00 00 00
	00		 call	 DWORD PTR __imp__FtpGetCurrentDirectoryA@12

; 81   : 			
; 82   : 			ConvertInternetDir( m_szRemoteDirectory, i3String::Length( m_szRemoteDirectory) );

  000d3	56		 push	 esi
  000d4	e8 00 00 00 00	 call	 ?Length@i3String@@YAHPBD@Z ; i3String::Length
  000d9	8b d0		 mov	 edx, eax
  000db	83 c4 04	 add	 esp, 4

; 482  : 	for( i = 0; i < nLength; i++ )

  000de	33 c9		 xor	 ecx, ecx
  000e0	85 d2		 test	 edx, edx
  000e2	7e 14		 jle	 SHORT $LN47@Create
$LL28@Create:

; 483  : 	{
; 484  : 		if( pszPath[ i ] == '\n' )

  000e4	8a 04 0e	 mov	 al, BYTE PTR [esi+ecx]
  000e7	3c 0a		 cmp	 al, 10			; 0000000aH
  000e9	74 0d		 je	 SHORT $LN47@Create

; 485  : 			return;
; 486  : 		else if( pszPath[ i ] == '\\' )

  000eb	3c 5c		 cmp	 al, 92			; 0000005cH
  000ed	75 04		 jne	 SHORT $LN26@Create

; 487  : 			pszPath[ i ] = '/';

  000ef	c6 04 0e 2f	 mov	 BYTE PTR [esi+ecx], 47	; 0000002fH
$LN26@Create:

; 120  : 
; 121  : 	return TRUE;
; 122  : }
; 123  : 
; 124  : BOOL i3NetworkFTP::DownLoadFile( char * pszPath )
; 125  : {
; 126  : 	char	szRemote[ MAX_PATH ];
; 127  : 	char	szExt[ _MAX_PATH ];
; 128  : 	
; 129  : 	_splitpath( pszPath, NULL, NULL, szRemote, szExt );
; 130  : 	strcat( szRemote, szExt );
; 131  : 
; 132  : 	return DownLoadFile( pszPath, szRemote );
; 133  : }
; 134  : 
; 135  : BOOL i3NetworkFTP::DownLoadFile( char * pszLocalPath, char * pszRemotePath )
; 136  : {
; 137  : 	BOOL	bResult = FALSE;
; 138  : 	char	szPath[ MAX_PATH ];
; 139  : 	char	szFileName[ MAX_PATH ];
; 140  : 	char	szExt[ _MAX_PATH ];
; 141  : 	
; 142  : 	char	szFilePath[ MAX_PATH ];
; 143  : 	INT32	nLocalLen, nFileLen;
; 144  : 	
; 145  : 	_splitpath( pszLocalPath, NULL, szPath, szFileName, szExt );
; 146  : 	strcat( szFileName, szExt );
; 147  : 
; 148  : 	nLocalLen = i3String::Length( pszLocalPath );
; 149  : 	nFileLen = i3String::Length( szFileName );
; 150  : 
; 151  : 	nLocalLen -= nFileLen;
; 152  : 
; 153  : 	strcpy( szFilePath, m_szLocalDirectory );
; 154  : 	strcat( szFilePath, "\\" );
; 155  : 
; 156  : 	if( nLocalLen > 0 )
; 157  : 	{
; 158  : 		strcat( szFilePath, szPath );
; 159  : 
; 160  : 		CheckDirectory( szFilePath );
; 161  : 	}
; 162  : 
; 163  : 	// ąŢŔ» µđ·şĹä¸®·Î ĽĽĆĂ
; 164  : 	::SetCurrentDirectory( szFilePath );
; 165  : 
; 166  : 	sprintf( m_szStr, "Download : %s\n ", pszLocalPath );
; 167  : 
; 168  : 	bResult = ::FtpGetFile( m_hFtp, pszRemotePath, szFileName, FALSE, FILE_ATTRIBUTE_NORMAL,
; 169  : 		FTP_TRANSFER_TYPE_BINARY | INTERNET_FLAG_RELOAD, 0 );
; 170  : 
; 171  : 	// ·çĆ® µđ·şĹä¸®·Î µą·Áłő´Â´Ů.
; 172  : 	::SetCurrentDirectory( m_szLocalDirectory );
; 173  : 
; 174  : 	return bResult;
; 175  : }
; 176  : 
; 177  : BOOL i3NetworkFTP::DownLoadFile2( char * pszPath )
; 178  : {
; 179  : 	char	szNewFileName[ MAX_PATH ];
; 180  : 
; 181  : 	char	buf[1024];
; 182  : 	BOOL	bResult;
; 183  : 	char	szTemp[4096];
; 184  : 
; 185  : 	DWORD	dwRead;
; 186  : 	i3FileStream	file;
; 187  : 	HINTERNET	hRemote;
; 188  : 
; 189  : 	I3ASSERT( pszPath );
; 190  : 	I3ASSERT( m_hFtp );
; 191  : 
; 192  : 	// open server file
; 193  : 	hRemote = ::FtpOpenFile( m_hFtp, pszPath, GENERIC_READ, FTP_TRANSFER_TYPE_BINARY, 0 );
; 194  : 	if( hRemote == NULL )
; 195  : 	{
; 196  : 		I3TRACE( "i3NetworkFTP::DownLoadFile2() - can't ftp open file.\n" );
; 197  : 		return FALSE;
; 198  : 	}
; 199  : 
; 200  : 	// create local file
; 201  : 	::GetCurrentDirectory( MAX_PATH, szNewFileName );
; 202  : 	strcat( szNewFileName, "\\" );
; 203  : 	strcat( szNewFileName, pszPath );
; 204  : 	
; 205  : 	if( FALSE == file.Create( szNewFileName, STREAM_WRITE ) )
; 206  : 	{
; 207  : 		::InternetCloseHandle( hRemote );
; 208  : 		I3TRACE( "i3NetworkFTP::DownLoadFile2() - can't open file.\n" );
; 209  : 		return FALSE;
; 210  : 	}
; 211  : 
; 212  : 	m_dwProg = 0;
; 213  : 
; 214  : 	for( ;; )
; 215  : 	{
; 216  : 		bResult = ::InternetReadFile( hRemote, buf, 1024, &dwRead );
; 217  : 		if( bResult == TRUE && dwRead == 0 )
; 218  : 			break;
; 219  : 
; 220  : 		file.Printf( szTemp, buf );
; 221  : 		m_dwProg += dwRead;
; 222  : 
; 223  : 		wsprintf( m_szStr, "%s %d", pszPath, m_dwProg);
; 224  : 	}
; 225  : 
; 226  : 	file.Close();
; 227  : 
; 228  : 	::InternetCloseHandle( hRemote );
; 229  : 	return TRUE;
; 230  : }
; 231  : 
; 232  : BOOL i3NetworkFTP::UploadFile( const char * pszPath )
; 233  : {
; 234  : 	char	szExt[ _MAX_PATH ];
; 235  : 	char	szRemote[ MAX_PATH ];
; 236  : 
; 237  : 	_splitpath( pszPath, NULL, NULL, szRemote, szExt );
; 238  : 
; 239  : 	strcat( szRemote, szExt );
; 240  : 	return UploadFile( pszPath, szRemote );
; 241  : }
; 242  : 
; 243  : BOOL i3NetworkFTP::UploadFile( const char * pszLocalPath, const char * pszRemotePath )
; 244  : {
; 245  : 	BOOL	bResult;
; 246  : 	char	szRemoteAllPath[ MAX_PATH ];
; 247  : 	char	szRemotePath[ MAX_PATH ];
; 248  : 	char	szName[ MAX_PATH ];
; 249  : 	char	szExt[ _MAX_PATH ];
; 250  : 
; 251  : 	INT32	nLocalLen, nRemoteLen;
; 252  : 
; 253  : 	I3ASSERT( m_hFtp );
; 254  : 
; 255  : 	_splitpath( pszRemotePath, NULL, szRemotePath, szName, szExt );
; 256  : 	strcat( szName, szExt );
; 257  : 
; 258  : 	nLocalLen = i3String::Length( pszRemotePath );
; 259  : 	nRemoteLen = i3String::Length( szName );
; 260  : 
; 261  : 	nLocalLen -= nRemoteLen;
; 262  : 
; 263  : 	// for all format directory name
; 264  : 	ConvertInternetDir( szRemotePath, i3String::Length( szRemotePath ) );
; 265  : 
; 266  : 	memset( szRemoteAllPath, 0, sizeof( szRemoteAllPath ) );
; 267  : 	strcpy( szRemoteAllPath, m_szRemoteDirectory + 1 );
; 268  : 	//strcat( szRemoteAllPath, "/" );
; 269  : 	strcat( szRemoteAllPath, szRemotePath );
; 270  : 
; 271  : 	if( nLocalLen > 0 )
; 272  : 	{	
; 273  : 		if( !CheckRemoteDir( m_hFtp, szRemoteAllPath ) )
; 274  : 		{
; 275  : 			// ¸®¸đĆ® µđ·şĹä¸® ĽłÁ¤( ŔĚ µđ·şĹä¸®żˇ ŔúŔĺŔ» ÇŃ´Ů. )
; 276  : 			if( !::FtpSetCurrentDirectory( m_hFtp, szRemoteAllPath ) )
; 277  : 			{
; 278  : 				I3FATAL( "[i3NetworkFTP::UplodaFile] - error set current directory fail.\n" );
; 279  : 				return FALSE;
; 280  : 			}
; 281  : 		}
; 282  : 	}
; 283  : 	// µđ·şĹä¸®żˇ ľ˛±â ĽłÁ¤ŔĚ µÇľî ŔÖ´ÂÁö Č®ŔÎ..
; 284  : 	bResult = UploadFile2( pszLocalPath, pszRemotePath );
; 285  : 	
; 286  : 	// ¸®¸đĆ® ·çĆ®¸®·şĹä¸®·Î µą¸°´Ů.
; 287  : 	::FtpSetCurrentDirectory( m_hFtp, m_szRemoteDirectory );
; 288  : 
; 289  : 	return bResult;
; 290  : }
; 291  : 
; 292  : BOOL i3NetworkFTP::UploadFile2( const char * pszPath )
; 293  : {
; 294  : 	char	szExt[ _MAX_PATH ];
; 295  : 	char	szRemote[ MAX_PATH ];
; 296  : 
; 297  : 	_splitpath( pszPath, NULL, NULL, szRemote, szExt );
; 298  : 	strcat( szRemote, szExt );
; 299  : 
; 300  : 	return UploadFile2( pszPath, szRemote );
; 301  : }
; 302  : 
; 303  : BOOL i3NetworkFTP::UploadFile2( const char * pszLocalPath, const char * pszRemotePath )
; 304  : {
; 305  : 	HINTERNET	hRemote;
; 306  : 	char	szExt[ _MAX_PATH ];
; 307  : 	char	szRemote[ MAX_PATH ];
; 308  : 	DWORD	dwWritten;
; 309  : 	UINT32	nread;
; 310  : 	UINT32	Rc;
; 311  : 
; 312  : 	char	buf[1024];
; 313  : 
; 314  : 	i3FileStream	stream;
; 315  : 
; 316  : 	I3ASSERT( m_hFtp );
; 317  : 	
; 318  : 	_splitpath( pszRemotePath, NULL, NULL, szRemote, szExt );
; 319  : 	strcat( szRemote, szExt );
; 320  : 
; 321  : 	hRemote = ::FtpOpenFile( m_hFtp, szRemote, GENERIC_WRITE, FTP_TRANSFER_TYPE_BINARY, 0 );
; 322  : 	if( hRemote == NULL )
; 323  : 	{	
; 324  : 		I3TRACE( "i3NetworkFTP::UploadFile2() - %d\n", ::GetLastError() );
; 325  : 
; 326  : 		return FALSE;
; 327  : 	}
; 328  : 	
; 329  : 	if( !stream.Open( pszLocalPath, STREAM_READ | STREAM_SHAREREAD ) )
; 330  : 	{
; 331  : 		I3TRACE( "i3NetworkFTP::UploadFile2() - can't local file open.\n" );
; 332  : 		return FALSE;
; 333  : 	}
; 334  : 
; 335  : 	nread = 1024;
; 336  : 
; 337  : 	for( m_dwProg = 0; m_dwProg < stream.GetSize(); )
; 338  : 	{
; 339  : 		stream.SetPosition( m_dwProg, STREAM_BEGIN );
; 340  : 
; 341  : 		nread = stream.GetSize() - m_dwProg;
; 342  : 
; 343  : 		if( nread > 1024 )
; 344  : 			nread = 1024;
; 345  : 
; 346  : 		Rc = stream.Read( buf, nread );
; 347  : 		if( Rc == STREAM_ERR )
; 348  : 			break;
; 349  : 
; 350  : 		::InternetWriteFile( hRemote, buf, nread, &dwWritten );
; 351  : 		m_dwProg += dwWritten;
; 352  : 
; 353  : 		wsprintf( m_szStr, "%s %d", pszLocalPath, m_dwProg);
; 354  : 	}
; 355  : 
; 356  : 	stream.Close();
; 357  : 
; 358  : 	::InternetCloseHandle( hRemote );
; 359  : 	return TRUE;
; 360  : }
; 361  : 
; 362  : BOOL i3NetworkFTP::CheckFile( const char * pszPath )
; 363  : {
; 364  : 	HINTERNET hSrch;
; 365  : 	WIN32_FIND_DATA wfd;
; 366  : 
; 367  : 	char	szRemotePath[ MAX_PATH ];
; 368  : 	DWORD	dwCDir = MAX_PATH;
; 369  : 
; 370  : 	I3ASSERT( m_hFtp );
; 371  : 
; 372  : 	if( !(getFlags() & I3_FTP_FLAG_CONNECTMAINTAIN) )
; 373  : 	{
; 374  : 		if( !Connect() )
; 375  : 			return FALSE;
; 376  : 	}
; 377  : 
; 378  : 	memset( szRemotePath, 0, sizeof( szRemotePath ) );
; 379  : 	::FtpGetCurrentDirectory( m_hFtp, szRemotePath, &dwCDir );
; 380  : 	
; 381  : 	strcat( szRemotePath, pszPath );
; 382  : 
; 383  : 	hSrch = ::FtpFindFirstFile( m_hFtp, pszPath, &wfd, 0, 0 );
; 384  : 	if( hSrch == 0 )
; 385  : 	{
; 386  : 		return FALSE;
; 387  : 	}
; 388  : 
; 389  : 	::InternetCloseHandle( hSrch );
; 390  : 
; 391  : 	if( !(getFlags() & I3_FTP_FLAG_CONNECTMAINTAIN ) )
; 392  : 		DisConnect();
; 393  : 
; 394  : 	return TRUE;
; 395  : }
; 396  : 
; 397  : BOOL i3NetworkFTP::DeleteFile( const char * pszPath )
; 398  : {
; 399  : 	I3ASSERT( m_hFtp );
; 400  : 
; 401  : 	return ::FtpDeleteFile( m_hFtp, pszPath );
; 402  : }
; 403  : 
; 404  : void i3NetworkFTP::OnDownLoad()
; 405  : {
; 406  : }
; 407  : 
; 408  : void i3NetworkFTP::OnUpLoad()
; 409  : {
; 410  : 
; 411  : }
; 412  : 
; 413  : BOOL i3NetworkFTP::CheckDirectory( const char * pszPath )
; 414  : {
; 415  : #if defined( I3_WINDOWS )
; 416  : 	char	szPrvPath[ MAX_PATH ];
; 417  : 	char	szTemp[ MAX_PATH ];
; 418  : 	char	szDirectoryName[ 64 ];
; 419  : 	INT32	nLen;
; 420  : 
; 421  : 	if( !::SetCurrentDirectory( pszPath ) )
; 422  : 	{
; 423  : 		i3mem::FillZero( szPrvPath, sizeof( szPrvPath ) );
; 424  : 		nLen = i3String::Length( pszPath ) - 1;
; 425  : 
; 426  : 		if( nLen > 0 )
; 427  : 		{
; 428  : 			memcpy( szPrvPath, pszPath, nLen );
; 429  : 			_splitpath( szPrvPath, NULL, szTemp, szDirectoryName, NULL );
; 430  : 			
; 431  : 			// ÁÖŔÇ
; 432  : 			CheckDirectory( szTemp );
; 433  : 			::SetCurrentDirectory( szTemp );
; 434  : 			::CreateDirectory( szDirectoryName, 0 );
; 435  : 		}
; 436  : 		return FALSE;
; 437  : 	}
; 438  : #endif
; 439  : 	return TRUE;
; 440  : }
; 441  : 
; 442  : BOOL i3NetworkFTP::CheckRemoteDir( HINTERNET hFtp, const char * pszPath )
; 443  : {
; 444  : #if defined( I3_WINDOWS )
; 445  : 	char	szPrvPath[ MAX_PATH ];
; 446  : 	char	szTemp[ MAX_PATH ];
; 447  : 	char	szDirectoryName[ 64 ];
; 448  : 	INT32	nLen;
; 449  : 	
; 450  : 	if( !::FtpSetCurrentDirectory( hFtp, pszPath ) )
; 451  : 	{	
; 452  : 		nLen = i3String::Length( pszPath ) - 1;
; 453  : 
; 454  : 		if( nLen > 1 )
; 455  : 		{
; 456  : 			memset( szPrvPath, 0, sizeof( szPrvPath ) );
; 457  : 			memcpy( szPrvPath, pszPath, nLen );
; 458  : 			_splitpath( szPrvPath, NULL, szTemp, szDirectoryName, NULL );
; 459  : 			
; 460  : 			// ÁÖŔÇ
; 461  : 			CheckRemoteDir( hFtp, szTemp );
; 462  : 			if( i3String::Length( szTemp ) > 0 )
; 463  : 			{
; 464  : 				::FtpSetCurrentDirectory( hFtp, szTemp );
; 465  : 			}
; 466  : 			if( !::FtpCreateDirectory( hFtp, szDirectoryName) )
; 467  : 			{
; 468  : 				I3WARN( "¸®¸đĆ® Ćú´ő¸¦ »ýĽşÇĎÁö ¸řÇß˝Ŕ´Ď´Ů.\n" );
; 469  : 			}
; 470  : 		}
; 471  : 		return FALSE;
; 472  : 	}
; 473  : #endif
; 474  : 	return TRUE;
; 475  : }
; 476  : 
; 477  : void i3NetworkFTP::ConvertInternetDir( char * pszPath, INT32 nLength )
; 478  : {
; 479  : #if defined( I3_WINDOWS )
; 480  : 	INT32	i;
; 481  : 
; 482  : 	for( i = 0; i < nLength; i++ )

  000f3	41		 inc	 ecx
  000f4	3b ca		 cmp	 ecx, edx
  000f6	7c ec		 jl	 SHORT $LL28@Create
$LN47@Create:

; 83   : 
; 84   : 			if( !( getFlags() & I3_FTP_FLAG_CONNECTMAINTAIN ) )

  000f8	f6 47 18 02	 test	 BYTE PTR [edi+24], 2
  000fc	75 1e		 jne	 SHORT $LN13@Create

; 116  : 	::InternetCloseHandle( m_hFtp );

  000fe	ff 77 14	 push	 DWORD PTR [edi+20]
  00101	8b 35 00 00 00
	00		 mov	 esi, DWORD PTR __imp__InternetCloseHandle@4
  00107	ff d6		 call	 esi

; 117  : 	::InternetCloseHandle( m_hInternet );

  00109	ff 77 10	 push	 DWORD PTR [edi+16]
  0010c	ff d6		 call	 esi

; 118  : 	m_hFtp			= NULL;

  0010e	c7 47 14 00 00
	00 00		 mov	 DWORD PTR [edi+20], 0

; 119  : 	m_hInternet		= NULL;

  00115	c7 47 10 00 00
	00 00		 mov	 DWORD PTR [edi+16], 0
$LN13@Create:
  0011c	5f		 pop	 edi

; 85   : 				DisConnect();
; 86   : 		}
; 87   : 	}
; 88   : 
; 89   : 	return TRUE;

  0011d	b8 01 00 00 00	 mov	 eax, 1

; 90   : }

  00122	5e		 pop	 esi
  00123	5d		 pop	 ebp
  00124	c2 14 00	 ret	 20			; 00000014H
?Create@i3NetworkFTP@@QAEHPADH00I@Z ENDP		; i3NetworkFTP::Create
_TEXT	ENDS
; Function compile flags: /Ogtp
; File E:\Proyectos\JuegosOnlineproyectos\PB\pbblow\Piercing Blow Remake\i3Server\src\i3Base\i3NetworkFTP.cpp
;	COMDAT ??1i3NetworkFTP@@UAE@XZ
_TEXT	SEGMENT
??1i3NetworkFTP@@UAE@XZ PROC				; i3NetworkFTP::~i3NetworkFTP, COMDAT
; _this$ = ecx

; 30   : {

  00000	c7 01 00 00 00
	00		 mov	 DWORD PTR [ecx], OFFSET ??_7i3NetworkFTP@@6B@

; 31   : }

  00006	e9 00 00 00 00	 jmp	 ??1i3ElementBase@@UAE@XZ ; i3ElementBase::~i3ElementBase
??1i3NetworkFTP@@UAE@XZ ENDP				; i3NetworkFTP::~i3NetworkFTP
_TEXT	ENDS
; Function compile flags: /Ogtp
; File E:\Proyectos\JuegosOnlineproyectos\PB\pbblow\Piercing Blow Remake\i3Server\src\i3Base\i3NetworkFTP.cpp
;	COMDAT ??0i3NetworkFTP@@QAE@XZ
_TEXT	SEGMENT
_this$ = -4						; size = 4
??0i3NetworkFTP@@QAE@XZ PROC				; i3NetworkFTP::i3NetworkFTP, COMDAT
; _this$ = ecx

; 8    : {

  00000	55		 push	 ebp
  00001	8b ec		 mov	 ebp, esp
  00003	51		 push	 ecx
  00004	56		 push	 esi
  00005	57		 push	 edi
  00006	8b f9		 mov	 edi, ecx
  00008	89 7d fc	 mov	 DWORD PTR _this$[ebp], edi
  0000b	e8 00 00 00 00	 call	 ??0i3ElementBase@@QAE@XZ ; i3ElementBase::i3ElementBase

; 9    : 	m_hFtp					= NULL;
; 10   : 	m_hInternet				= NULL;
; 11   : 
; 12   : 	memset( m_szAddress, 0, sizeof(m_szAddress ) );

  00010	6a 40		 push	 64			; 00000040H
  00012	8d 77 1c	 lea	 esi, DWORD PTR [edi+28]
  00015	c7 07 00 00 00
	00		 mov	 DWORD PTR [edi], OFFSET ??_7i3NetworkFTP@@6B@
  0001b	6a 00		 push	 0
  0001d	56		 push	 esi
  0001e	c7 47 14 00 00
	00 00		 mov	 DWORD PTR [edi+20], 0
  00025	c7 47 10 00 00
	00 00		 mov	 DWORD PTR [edi+16], 0
  0002c	e8 00 00 00 00	 call	 _memset

; 13   : 	m_nPort			= INTERNET_DEFAULT_FTP_PORT;

  00031	b8 15 00 00 00	 mov	 eax, 21			; 00000015H
  00036	83 c4 0c	 add	 esp, 12			; 0000000cH
  00039	66 89 47 5c	 mov	 WORD PTR [edi+92], ax

; 14   : 	memset( m_szUserID, 0, sizeof( m_szUserID ) );

  0003d	33 c0		 xor	 eax, eax
  0003f	89 47 5e	 mov	 DWORD PTR [edi+94], eax
  00042	89 47 62	 mov	 DWORD PTR [edi+98], eax
  00045	89 47 66	 mov	 DWORD PTR [edi+102], eax
  00048	89 47 6a	 mov	 DWORD PTR [edi+106], eax
  0004b	89 47 6e	 mov	 DWORD PTR [edi+110], eax
  0004e	89 47 72	 mov	 DWORD PTR [edi+114], eax
  00051	89 47 76	 mov	 DWORD PTR [edi+118], eax
  00054	89 47 7a	 mov	 DWORD PTR [edi+122], eax

; 15   : 	memset( m_szUserPass, 0, sizeof( m_szUserPass ) );

  00057	89 47 7e	 mov	 DWORD PTR [edi+126], eax
  0005a	89 87 82 00 00
	00		 mov	 DWORD PTR [edi+130], eax
  00060	89 87 86 00 00
	00		 mov	 DWORD PTR [edi+134], eax
  00066	89 87 8a 00 00
	00		 mov	 DWORD PTR [edi+138], eax
  0006c	89 87 8e 00 00
	00		 mov	 DWORD PTR [edi+142], eax
  00072	89 87 92 00 00
	00		 mov	 DWORD PTR [edi+146], eax
  00078	89 87 96 00 00
	00		 mov	 DWORD PTR [edi+150], eax
  0007e	89 87 9a 00 00
	00		 mov	 DWORD PTR [edi+154], eax

; 16   : 
; 17   : 	m_dwCurrentDir			= 0;

  00084	89 87 a4 01 00
	00		 mov	 DWORD PTR [edi+420], eax

; 18   : 	m_dwProg				= 0;

  0008a	89 87 a0 01 00
	00		 mov	 DWORD PTR [edi+416], eax

; 19   : 	m_nFlags				= 0;

  00090	89 47 18	 mov	 DWORD PTR [edi+24], eax

; 20   : 	m_nLocalDirLen			= 0;

  00093	89 87 a8 01 00
	00		 mov	 DWORD PTR [edi+424], eax

; 21   : 	m_szLocalDirectory[0]	= '\0';

  00099	88 87 ac 01 00
	00		 mov	 BYTE PTR [edi+428], al

; 22   : 	m_szRemoteDirectory[0]	= '\0';

  0009f	88 87 b0 02 00
	00		 mov	 BYTE PTR [edi+688], al

; 23   : 	m_szStr[0]				= '\0';

  000a5	88 87 9e 00 00
	00		 mov	 BYTE PTR [edi+158], al

; 24   : 	m_szAddress[0]			= '\0';

  000ab	88 06		 mov	 BYTE PTR [esi], al

; 25   : 	m_szUserID[0]			= '\0';

  000ad	88 47 5e	 mov	 BYTE PTR [edi+94], al

; 26   : 	m_szUserPass[0]			= '\0';

  000b0	88 47 7e	 mov	 BYTE PTR [edi+126], al

; 27   : }

  000b3	8b c7		 mov	 eax, edi
  000b5	5f		 pop	 edi
  000b6	5e		 pop	 esi
  000b7	8b e5		 mov	 esp, ebp
  000b9	5d		 pop	 ebp
  000ba	c3		 ret	 0
??0i3NetworkFTP@@QAE@XZ ENDP				; i3NetworkFTP::i3NetworkFTP
_TEXT	ENDS
; Function compile flags: /Ogtp
; File E:\Proyectos\JuegosOnlineproyectos\PB\pbblow\Piercing Blow Remake\i3Server\src\i3Base\i3NetworkFTP.cpp
;	COMDAT ?ConvertInternetDir@i3NetworkFTP@@QAEXPADH@Z
_TEXT	SEGMENT
_pszPath$ = 8						; size = 4
_nLength$ = 12						; size = 4
?ConvertInternetDir@i3NetworkFTP@@QAEXPADH@Z PROC	; i3NetworkFTP::ConvertInternetDir, COMDAT
; _this$ = ecx

; 478  : {

  00000	55		 push	 ebp
  00001	8b ec		 mov	 ebp, esp

; 479  : #if defined( I3_WINDOWS )
; 480  : 	INT32	i;
; 481  : 
; 482  : 	for( i = 0; i < nLength; i++ )

  00003	8b 55 0c	 mov	 edx, DWORD PTR _nLength$[ebp]
  00006	33 c0		 xor	 eax, eax
  00008	56		 push	 esi
  00009	8b 75 08	 mov	 esi, DWORD PTR _pszPath$[ebp]
  0000c	85 d2		 test	 edx, edx
  0000e	7e 16		 jle	 SHORT $LN15@ConvertInt
$LL4@ConvertInt:

; 483  : 	{
; 484  : 		if( pszPath[ i ] == '\n' )

  00010	8a 0c 06	 mov	 cl, BYTE PTR [esi+eax]
  00013	80 f9 0a	 cmp	 cl, 10			; 0000000aH
  00016	74 0e		 je	 SHORT $LN15@ConvertInt

; 485  : 			return;
; 486  : 		else if( pszPath[ i ] == '\\' )

  00018	80 f9 5c	 cmp	 cl, 92			; 0000005cH
  0001b	75 04		 jne	 SHORT $LN2@ConvertInt

; 487  : 			pszPath[ i ] = '/';

  0001d	c6 04 06 2f	 mov	 BYTE PTR [esi+eax], 47	; 0000002fH
$LN2@ConvertInt:

; 479  : #if defined( I3_WINDOWS )
; 480  : 	INT32	i;
; 481  : 
; 482  : 	for( i = 0; i < nLength; i++ )

  00021	40		 inc	 eax
  00022	3b c2		 cmp	 eax, edx
  00024	7c ea		 jl	 SHORT $LL4@ConvertInt
$LN15@ConvertInt:
  00026	5e		 pop	 esi

; 488  : 	}
; 489  : #endif
; 490  : }

  00027	5d		 pop	 ebp
  00028	c2 08 00	 ret	 8
?ConvertInternetDir@i3NetworkFTP@@QAEXPADH@Z ENDP	; i3NetworkFTP::ConvertInternetDir
_TEXT	ENDS
; Function compile flags: /Ogtp
; File E:\Proyectos\JuegosOnlineproyectos\PB\pbblow\Piercing Blow Remake\i3Server\src\i3Base\i3NetworkFTP.cpp
;	COMDAT ?CheckRemoteDir@i3NetworkFTP@@QAEHPAXPBD@Z
_TEXT	SEGMENT
_this$GSCopy$1$ = -592					; size = 4
_szPrvPath$ = -588					; size = 260
_szTemp$ = -328						; size = 260
_szDirectoryName$ = -68					; size = 64
__$ArrayPad$ = -4					; size = 4
_hFtp$ = 8						; size = 4
_pszPath$ = 12						; size = 4
?CheckRemoteDir@i3NetworkFTP@@QAEHPAXPBD@Z PROC		; i3NetworkFTP::CheckRemoteDir, COMDAT
; _this$ = ecx

; 443  : {

  00000	55		 push	 ebp
  00001	8b ec		 mov	 ebp, esp
  00003	81 ec 50 02 00
	00		 sub	 esp, 592		; 00000250H
  00009	a1 00 00 00 00	 mov	 eax, DWORD PTR ___security_cookie
  0000e	33 c5		 xor	 eax, ebp
  00010	89 45 fc	 mov	 DWORD PTR __$ArrayPad$[ebp], eax
  00013	53		 push	 ebx
  00014	8b 5d 0c	 mov	 ebx, DWORD PTR _pszPath$[ebp]
  00017	56		 push	 esi
  00018	8b 75 08	 mov	 esi, DWORD PTR _hFtp$[ebp]

; 444  : #if defined( I3_WINDOWS )
; 445  : 	char	szPrvPath[ MAX_PATH ];
; 446  : 	char	szTemp[ MAX_PATH ];
; 447  : 	char	szDirectoryName[ 64 ];
; 448  : 	INT32	nLen;
; 449  : 	
; 450  : 	if( !::FtpSetCurrentDirectory( hFtp, pszPath ) )

  0001b	53		 push	 ebx
  0001c	56		 push	 esi
  0001d	89 8d b0 fd ff
	ff		 mov	 DWORD PTR _this$GSCopy$1$[ebp], ecx
  00023	ff 15 00 00 00
	00		 call	 DWORD PTR __imp__FtpSetCurrentDirectoryA@8
  00029	85 c0		 test	 eax, eax
  0002b	0f 85 d0 00 00
	00		 jne	 $LN2@CheckRemot

; 451  : 	{	
; 452  : 		nLen = i3String::Length( pszPath ) - 1;

  00031	57		 push	 edi
  00032	53		 push	 ebx
  00033	e8 00 00 00 00	 call	 ?Length@i3String@@YAHPBD@Z ; i3String::Length
  00038	83 c4 04	 add	 esp, 4
  0003b	8d 78 ff	 lea	 edi, DWORD PTR [eax-1]

; 453  : 
; 454  : 		if( nLen > 1 )

  0003e	83 ff 01	 cmp	 edi, 1
  00041	0f 8e a5 00 00
	00		 jle	 $LN5@CheckRemot

; 455  : 		{
; 456  : 			memset( szPrvPath, 0, sizeof( szPrvPath ) );

  00047	68 04 01 00 00	 push	 260			; 00000104H
  0004c	8d 85 b4 fd ff
	ff		 lea	 eax, DWORD PTR _szPrvPath$[ebp]
  00052	6a 00		 push	 0
  00054	50		 push	 eax
  00055	e8 00 00 00 00	 call	 _memset

; 457  : 			memcpy( szPrvPath, pszPath, nLen );

  0005a	57		 push	 edi
  0005b	8d 85 b4 fd ff
	ff		 lea	 eax, DWORD PTR _szPrvPath$[ebp]
  00061	53		 push	 ebx
  00062	50		 push	 eax
  00063	e8 00 00 00 00	 call	 _memcpy

; 458  : 			_splitpath( szPrvPath, NULL, szTemp, szDirectoryName, NULL );

  00068	6a 00		 push	 0
  0006a	8d 45 bc	 lea	 eax, DWORD PTR _szDirectoryName$[ebp]
  0006d	50		 push	 eax
  0006e	8d 85 b8 fe ff
	ff		 lea	 eax, DWORD PTR _szTemp$[ebp]
  00074	50		 push	 eax
  00075	8d 85 b4 fd ff
	ff		 lea	 eax, DWORD PTR _szPrvPath$[ebp]
  0007b	6a 00		 push	 0
  0007d	50		 push	 eax
  0007e	e8 00 00 00 00	 call	 __splitpath

; 459  : 			
; 460  : 			// ÁÖŔÇ
; 461  : 			CheckRemoteDir( hFtp, szTemp );

  00083	8b 8d b0 fd ff
	ff		 mov	 ecx, DWORD PTR _this$GSCopy$1$[ebp]
  00089	8d 85 b8 fe ff
	ff		 lea	 eax, DWORD PTR _szTemp$[ebp]
  0008f	83 c4 2c	 add	 esp, 44			; 0000002cH
  00092	50		 push	 eax
  00093	56		 push	 esi
  00094	e8 00 00 00 00	 call	 ?CheckRemoteDir@i3NetworkFTP@@QAEHPAXPBD@Z ; i3NetworkFTP::CheckRemoteDir

; 462  : 			if( i3String::Length( szTemp ) > 0 )

  00099	8d 85 b8 fe ff
	ff		 lea	 eax, DWORD PTR _szTemp$[ebp]
  0009f	50		 push	 eax
  000a0	e8 00 00 00 00	 call	 ?Length@i3String@@YAHPBD@Z ; i3String::Length
  000a5	83 c4 04	 add	 esp, 4
  000a8	85 c0		 test	 eax, eax
  000aa	7e 0e		 jle	 SHORT $LN4@CheckRemot

; 463  : 			{
; 464  : 				::FtpSetCurrentDirectory( hFtp, szTemp );

  000ac	8d 85 b8 fe ff
	ff		 lea	 eax, DWORD PTR _szTemp$[ebp]
  000b2	50		 push	 eax
  000b3	56		 push	 esi
  000b4	ff 15 00 00 00
	00		 call	 DWORD PTR __imp__FtpSetCurrentDirectoryA@8
$LN4@CheckRemot:

; 465  : 			}
; 466  : 			if( !::FtpCreateDirectory( hFtp, szDirectoryName) )

  000ba	8d 45 bc	 lea	 eax, DWORD PTR _szDirectoryName$[ebp]
  000bd	50		 push	 eax
  000be	56		 push	 esi
  000bf	ff 15 00 00 00
	00		 call	 DWORD PTR __imp__FtpCreateDirectoryA@8
  000c5	85 c0		 test	 eax, eax
  000c7	75 23		 jne	 SHORT $LN5@CheckRemot

; 467  : 			{
; 468  : 				I3WARN( "¸®¸đĆ® Ćú´ő¸¦ »ýĽşÇĎÁö ¸řÇß˝Ŕ´Ď´Ů.\n" );

  000c9	6a 01		 push	 1
  000cb	68 00 00 00 00	 push	 OFFSET ??_C@_0EB@KDMBEODD@int?5__thiscall?5i3NetworkFTP?3?3Ch@
  000d0	68 d4 01 00 00	 push	 468			; 000001d4H
  000d5	68 00 00 00 00	 push	 OFFSET ??_C@_0GH@IACFLGED@E?3?2Proyectos?2JuegosOnlineproyec@
  000da	e8 00 00 00 00	 call	 ?SetEnv@i3Error@@YAXPBDH0W4I3LOG_TYPE@@@Z ; i3Error::SetEnv
  000df	68 00 00 00 00	 push	 OFFSET ??_C@_0CE@BPFKMALL@?$LI?$KO?$LI?p?F?$KO?5?F?z?$LE?u?$LI?$KG?5?$LL?$PN?$LM?$LK?G?O?A?v?5?$LI?x?G?$NP?$LN?$MA?$LE?O@
  000e4	e8 00 00 00 00	 call	 ?Log@i3Error@@YAXPBDZZ	; i3Error::Log
  000e9	83 c4 14	 add	 esp, 20			; 00000014H
$LN5@CheckRemot:

; 469  : 			}
; 470  : 		}
; 471  : 		return FALSE;

  000ec	5f		 pop	 edi
  000ed	5e		 pop	 esi
  000ee	33 c0		 xor	 eax, eax

; 472  : 	}
; 473  : #endif
; 474  : 	return TRUE;
; 475  : }

  000f0	5b		 pop	 ebx
  000f1	8b 4d fc	 mov	 ecx, DWORD PTR __$ArrayPad$[ebp]
  000f4	33 cd		 xor	 ecx, ebp
  000f6	e8 00 00 00 00	 call	 @__security_check_cookie@4
  000fb	8b e5		 mov	 esp, ebp
  000fd	5d		 pop	 ebp
  000fe	c2 08 00	 ret	 8
$LN2@CheckRemot:
  00101	8b 4d fc	 mov	 ecx, DWORD PTR __$ArrayPad$[ebp]
  00104	b8 01 00 00 00	 mov	 eax, 1
  00109	5e		 pop	 esi
  0010a	33 cd		 xor	 ecx, ebp
  0010c	5b		 pop	 ebx
  0010d	e8 00 00 00 00	 call	 @__security_check_cookie@4
  00112	8b e5		 mov	 esp, ebp
  00114	5d		 pop	 ebp
  00115	c2 08 00	 ret	 8
?CheckRemoteDir@i3NetworkFTP@@QAEHPAXPBD@Z ENDP		; i3NetworkFTP::CheckRemoteDir
_TEXT	ENDS
; Function compile flags: /Ogtp
; File E:\Proyectos\JuegosOnlineproyectos\PB\pbblow\Piercing Blow Remake\i3Server\src\i3Base\i3NetworkFTP.cpp
; File E:\Proyectos\JuegosOnlineproyectos\PB\pbblow\Piercing Blow Remake\i3Server\include\i3Base\i3Memory.h
; File C:\Program Files (x86)\Windows Kits\10\Include\10.0.26100.0\um\winnt.h
; File E:\Proyectos\JuegosOnlineproyectos\PB\pbblow\Piercing Blow Remake\i3Server\src\i3Base\i3NetworkFTP.cpp
;	COMDAT ?CheckDirectory@i3NetworkFTP@@QAEHPBD@Z
_TEXT	SEGMENT
_szTemp$ = -588						; size = 260
_szPrvPath$ = -328					; size = 260
_szDirectoryName$ = -68					; size = 64
__$ArrayPad$ = -4					; size = 4
_pszPath$ = 8						; size = 4
?CheckDirectory@i3NetworkFTP@@QAEHPBD@Z PROC		; i3NetworkFTP::CheckDirectory, COMDAT
; _this$ = ecx

; 414  : {

  00000	55		 push	 ebp
  00001	8b ec		 mov	 ebp, esp
  00003	81 ec 4c 02 00
	00		 sub	 esp, 588		; 0000024cH
  00009	a1 00 00 00 00	 mov	 eax, DWORD PTR ___security_cookie
  0000e	33 c5		 xor	 eax, ebp
  00010	89 45 fc	 mov	 DWORD PTR __$ArrayPad$[ebp], eax
  00013	53		 push	 ebx
  00014	56		 push	 esi
  00015	8b 75 08	 mov	 esi, DWORD PTR _pszPath$[ebp]
  00018	8b d9		 mov	 ebx, ecx

; 415  : #if defined( I3_WINDOWS )
; 416  : 	char	szPrvPath[ MAX_PATH ];
; 417  : 	char	szTemp[ MAX_PATH ];
; 418  : 	char	szDirectoryName[ 64 ];
; 419  : 	INT32	nLen;
; 420  : 
; 421  : 	if( !::SetCurrentDirectory( pszPath ) )

  0001a	56		 push	 esi
  0001b	ff 15 00 00 00
	00		 call	 DWORD PTR __imp__SetCurrentDirectoryA@4
  00021	85 c0		 test	 eax, eax
  00023	0f 85 8b 00 00
	00		 jne	 $LN2@CheckDirec
; File E:\Proyectos\JuegosOnlineproyectos\PB\pbblow\Piercing Blow Remake\i3Server\include\i3Base\i3Memory.h

; 144  : 			::SecureZeroMemory( pDest, sz);

  00029	b9 04 01 00 00	 mov	 ecx, 260		; 00000104H
; File C:\Program Files (x86)\Windows Kits\10\Include\10.0.26100.0\um\winnt.h

; 23413:     volatile char *vptr = (volatile char *)ptr;

  0002e	8d 85 b8 fe ff
	ff		 lea	 eax, DWORD PTR _szPrvPath$[ebp]
$LL8@CheckDirec:

; 23414: 
; 23415: #if defined(_M_AMD64) && !defined(_M_ARM64EC)
; 23416: 
; 23417:     __stosb((PBYTE )((DWORD64)vptr), 0, cnt);
; 23418: 
; 23419: #else
; 23420: 
; 23421:     while (cnt) {
; 23422: 
; 23423: #if !defined(_M_CEE) && (defined(_M_ARM) || defined(_M_ARM64) || defined(_M_ARM64EC))
; 23424: 
; 23425:         __iso_volatile_store8(vptr, 0);
; 23426: 
; 23427: #else
; 23428: 
; 23429:         *vptr = 0;

  00034	c6 00 00	 mov	 BYTE PTR [eax], 0

; 23430: 
; 23431: #endif
; 23432: 
; 23433:         vptr++;

  00037	8d 40 01	 lea	 eax, DWORD PTR [eax+1]

; 23434:         cnt--;

  0003a	83 e9 01	 sub	 ecx, 1
  0003d	75 f5		 jne	 SHORT $LL8@CheckDirec
; File E:\Proyectos\JuegosOnlineproyectos\PB\pbblow\Piercing Blow Remake\i3Server\src\i3Base\i3NetworkFTP.cpp

; 424  : 		nLen = i3String::Length( pszPath ) - 1;

  0003f	56		 push	 esi
  00040	e8 00 00 00 00	 call	 ?Length@i3String@@YAHPBD@Z ; i3String::Length
  00045	48		 dec	 eax
  00046	83 c4 04	 add	 esp, 4

; 425  : 
; 426  : 		if( nLen > 0 )

  00049	85 c0		 test	 eax, eax
  0004b	7e 53		 jle	 SHORT $LN3@CheckDirec

; 427  : 		{
; 428  : 			memcpy( szPrvPath, pszPath, nLen );

  0004d	50		 push	 eax
  0004e	8d 85 b8 fe ff
	ff		 lea	 eax, DWORD PTR _szPrvPath$[ebp]
  00054	56		 push	 esi
  00055	50		 push	 eax
  00056	e8 00 00 00 00	 call	 _memcpy

; 429  : 			_splitpath( szPrvPath, NULL, szTemp, szDirectoryName, NULL );

  0005b	6a 00		 push	 0
  0005d	8d 45 bc	 lea	 eax, DWORD PTR _szDirectoryName$[ebp]
  00060	50		 push	 eax
  00061	8d 85 b4 fd ff
	ff		 lea	 eax, DWORD PTR _szTemp$[ebp]
  00067	50		 push	 eax
  00068	8d 85 b8 fe ff
	ff		 lea	 eax, DWORD PTR _szPrvPath$[ebp]
  0006e	6a 00		 push	 0
  00070	50		 push	 eax
  00071	e8 00 00 00 00	 call	 __splitpath
  00076	83 c4 20	 add	 esp, 32			; 00000020H

; 430  : 			
; 431  : 			// ÁÖŔÇ
; 432  : 			CheckDirectory( szTemp );

  00079	8d 85 b4 fd ff
	ff		 lea	 eax, DWORD PTR _szTemp$[ebp]
  0007f	8b cb		 mov	 ecx, ebx
  00081	50		 push	 eax
  00082	e8 00 00 00 00	 call	 ?CheckDirectory@i3NetworkFTP@@QAEHPBD@Z ; i3NetworkFTP::CheckDirectory

; 433  : 			::SetCurrentDirectory( szTemp );

  00087	8d 85 b4 fd ff
	ff		 lea	 eax, DWORD PTR _szTemp$[ebp]
  0008d	50		 push	 eax
  0008e	ff 15 00 00 00
	00		 call	 DWORD PTR __imp__SetCurrentDirectoryA@4

; 434  : 			::CreateDirectory( szDirectoryName, 0 );

  00094	6a 00		 push	 0
  00096	8d 45 bc	 lea	 eax, DWORD PTR _szDirectoryName$[ebp]
  00099	50		 push	 eax
  0009a	ff 15 00 00 00
	00		 call	 DWORD PTR __imp__CreateDirectoryA@8
$LN3@CheckDirec:

; 435  : 		}
; 436  : 		return FALSE;

  000a0	5e		 pop	 esi
  000a1	33 c0		 xor	 eax, eax

; 437  : 	}
; 438  : #endif
; 439  : 	return TRUE;
; 440  : }

  000a3	5b		 pop	 ebx
  000a4	8b 4d fc	 mov	 ecx, DWORD PTR __$ArrayPad$[ebp]
  000a7	33 cd		 xor	 ecx, ebp
  000a9	e8 00 00 00 00	 call	 @__security_check_cookie@4
  000ae	8b e5		 mov	 esp, ebp
  000b0	5d		 pop	 ebp
  000b1	c2 04 00	 ret	 4
$LN2@CheckDirec:
  000b4	8b 4d fc	 mov	 ecx, DWORD PTR __$ArrayPad$[ebp]
  000b7	b8 01 00 00 00	 mov	 eax, 1
  000bc	5e		 pop	 esi
  000bd	33 cd		 xor	 ecx, ebp
  000bf	5b		 pop	 ebx
  000c0	e8 00 00 00 00	 call	 @__security_check_cookie@4
  000c5	8b e5		 mov	 esp, ebp
  000c7	5d		 pop	 ebp
  000c8	c2 04 00	 ret	 4
?CheckDirectory@i3NetworkFTP@@QAEHPBD@Z ENDP		; i3NetworkFTP::CheckDirectory
_TEXT	ENDS
; Function compile flags: /Ogtp
; File E:\Proyectos\JuegosOnlineproyectos\PB\pbblow\Piercing Blow Remake\i3Server\include\i3Base\i3NetworkFTP.h
;	COMDAT ?getLog@i3NetworkFTP@@QAEPADXZ
_TEXT	SEGMENT
?getLog@i3NetworkFTP@@QAEPADXZ PROC			; i3NetworkFTP::getLog, COMDAT
; _this$ = ecx

; 74   : 	char *	getLog( void )						{ return m_szStr; }

  00000	8d 81 9e 00 00
	00		 lea	 eax, DWORD PTR [ecx+158]
  00006	c3		 ret	 0
?getLog@i3NetworkFTP@@QAEPADXZ ENDP			; i3NetworkFTP::getLog
_TEXT	ENDS
; Function compile flags: /Ogtp
; File E:\Proyectos\JuegosOnlineproyectos\PB\pbblow\Piercing Blow Remake\i3Server\include\i3Base\i3NetworkFTP.h
;	COMDAT ?setUserPass@i3NetworkFTP@@QAEXPAD@Z
_TEXT	SEGMENT
_pass$ = 8						; size = 4
?setUserPass@i3NetworkFTP@@QAEXPAD@Z PROC		; i3NetworkFTP::setUserPass, COMDAT
; _this$ = ecx

; 72   : 	void	setUserPass( char * pass )			{ i3String::Copy( m_szUserPass, pass, MAX_USERPASS ); }

  00000	55		 push	 ebp
  00001	8b ec		 mov	 ebp, esp
  00003	6a 20		 push	 32			; 00000020H
  00005	ff 75 08	 push	 DWORD PTR _pass$[ebp]
  00008	8d 41 7e	 lea	 eax, DWORD PTR [ecx+126]
  0000b	50		 push	 eax
  0000c	e8 00 00 00 00	 call	 ?Copy@i3String@@YAXPADPBDH@Z ; i3String::Copy
  00011	83 c4 0c	 add	 esp, 12			; 0000000cH
  00014	5d		 pop	 ebp
  00015	c2 04 00	 ret	 4
?setUserPass@i3NetworkFTP@@QAEXPAD@Z ENDP		; i3NetworkFTP::setUserPass
_TEXT	ENDS
; Function compile flags: /Ogtp
; File E:\Proyectos\JuegosOnlineproyectos\PB\pbblow\Piercing Blow Remake\i3Server\include\i3Base\i3NetworkFTP.h
;	COMDAT ?getUserPass@i3NetworkFTP@@QAEPADXZ
_TEXT	SEGMENT
?getUserPass@i3NetworkFTP@@QAEPADXZ PROC		; i3NetworkFTP::getUserPass, COMDAT
; _this$ = ecx

; 71   : 	char *	getUserPass( void )					{ return m_szUserPass; }

  00000	8d 41 7e	 lea	 eax, DWORD PTR [ecx+126]
  00003	c3		 ret	 0
?getUserPass@i3NetworkFTP@@QAEPADXZ ENDP		; i3NetworkFTP::getUserPass
_TEXT	ENDS
; Function compile flags: /Ogtp
; File E:\Proyectos\JuegosOnlineproyectos\PB\pbblow\Piercing Blow Remake\i3Server\include\i3Base\i3NetworkFTP.h
;	COMDAT ?setUserID@i3NetworkFTP@@QAEXPAD@Z
_TEXT	SEGMENT
_id$ = 8						; size = 4
?setUserID@i3NetworkFTP@@QAEXPAD@Z PROC			; i3NetworkFTP::setUserID, COMDAT
; _this$ = ecx

; 69   : 	void	setUserID( char * id )				{ i3String::Copy( m_szUserID, id, MAX_USERIDNAME ); }

  00000	55		 push	 ebp
  00001	8b ec		 mov	 ebp, esp
  00003	6a 20		 push	 32			; 00000020H
  00005	ff 75 08	 push	 DWORD PTR _id$[ebp]
  00008	8d 41 5e	 lea	 eax, DWORD PTR [ecx+94]
  0000b	50		 push	 eax
  0000c	e8 00 00 00 00	 call	 ?Copy@i3String@@YAXPADPBDH@Z ; i3String::Copy
  00011	83 c4 0c	 add	 esp, 12			; 0000000cH
  00014	5d		 pop	 ebp
  00015	c2 04 00	 ret	 4
?setUserID@i3NetworkFTP@@QAEXPAD@Z ENDP			; i3NetworkFTP::setUserID
_TEXT	ENDS
; Function compile flags: /Ogtp
; File E:\Proyectos\JuegosOnlineproyectos\PB\pbblow\Piercing Blow Remake\i3Server\include\i3Base\i3NetworkFTP.h
;	COMDAT ?getUserID@i3NetworkFTP@@QAEPADXZ
_TEXT	SEGMENT
?getUserID@i3NetworkFTP@@QAEPADXZ PROC			; i3NetworkFTP::getUserID, COMDAT
; _this$ = ecx

; 68   : 	char *	getUserID( void )					{ return m_szUserID; }

  00000	8d 41 5e	 lea	 eax, DWORD PTR [ecx+94]
  00003	c3		 ret	 0
?getUserID@i3NetworkFTP@@QAEPADXZ ENDP			; i3NetworkFTP::getUserID
_TEXT	ENDS
; Function compile flags: /Ogtp
; File E:\Proyectos\JuegosOnlineproyectos\PB\pbblow\Piercing Blow Remake\i3Server\include\i3Base\i3NetworkFTP.h
;	COMDAT ?setPort@i3NetworkFTP@@QAEXG@Z
_TEXT	SEGMENT
_nPort$ = 8						; size = 2
?setPort@i3NetworkFTP@@QAEXG@Z PROC			; i3NetworkFTP::setPort, COMDAT
; _this$ = ecx

; 66   : 	void	setPort( UINT16 nPort )				{ m_nPort = nPort; }

  00000	55		 push	 ebp
  00001	8b ec		 mov	 ebp, esp
  00003	66 8b 45 08	 mov	 ax, WORD PTR _nPort$[ebp]
  00007	66 89 41 5c	 mov	 WORD PTR [ecx+92], ax
  0000b	5d		 pop	 ebp
  0000c	c2 04 00	 ret	 4
?setPort@i3NetworkFTP@@QAEXG@Z ENDP			; i3NetworkFTP::setPort
_TEXT	ENDS
; Function compile flags: /Ogtp
; File E:\Proyectos\JuegosOnlineproyectos\PB\pbblow\Piercing Blow Remake\i3Server\include\i3Base\i3NetworkFTP.h
;	COMDAT ?getPort@i3NetworkFTP@@QAEGXZ
_TEXT	SEGMENT
?getPort@i3NetworkFTP@@QAEGXZ PROC			; i3NetworkFTP::getPort, COMDAT
; _this$ = ecx

; 65   : 	UINT16	getPort( void )						{ return m_nPort; }

  00000	66 8b 41 5c	 mov	 ax, WORD PTR [ecx+92]
  00004	c3		 ret	 0
?getPort@i3NetworkFTP@@QAEGXZ ENDP			; i3NetworkFTP::getPort
_TEXT	ENDS
; Function compile flags: /Ogtp
; File E:\Proyectos\JuegosOnlineproyectos\PB\pbblow\Piercing Blow Remake\i3Server\include\i3Base\i3NetworkFTP.h
;	COMDAT ?setAddress@i3NetworkFTP@@QAEXPAD@Z
_TEXT	SEGMENT
_address$ = 8						; size = 4
?setAddress@i3NetworkFTP@@QAEXPAD@Z PROC		; i3NetworkFTP::setAddress, COMDAT
; _this$ = ecx

; 63   : 	void	setAddress( char * address )		{ i3String::Copy( m_szAddress, address, MAX_FTPADDRESS ); }

  00000	55		 push	 ebp
  00001	8b ec		 mov	 ebp, esp
  00003	6a 40		 push	 64			; 00000040H
  00005	ff 75 08	 push	 DWORD PTR _address$[ebp]
  00008	8d 41 1c	 lea	 eax, DWORD PTR [ecx+28]
  0000b	50		 push	 eax
  0000c	e8 00 00 00 00	 call	 ?Copy@i3String@@YAXPADPBDH@Z ; i3String::Copy
  00011	83 c4 0c	 add	 esp, 12			; 0000000cH
  00014	5d		 pop	 ebp
  00015	c2 04 00	 ret	 4
?setAddress@i3NetworkFTP@@QAEXPAD@Z ENDP		; i3NetworkFTP::setAddress
_TEXT	ENDS
; Function compile flags: /Ogtp
; File E:\Proyectos\JuegosOnlineproyectos\PB\pbblow\Piercing Blow Remake\i3Server\include\i3Base\i3NetworkFTP.h
;	COMDAT ?getAddress@i3NetworkFTP@@QAEPADXZ
_TEXT	SEGMENT
?getAddress@i3NetworkFTP@@QAEPADXZ PROC			; i3NetworkFTP::getAddress, COMDAT
; _this$ = ecx

; 62   : 	char *	getAddress( void )					{ return m_szAddress; }

  00000	8d 41 1c	 lea	 eax, DWORD PTR [ecx+28]
  00003	c3		 ret	 0
?getAddress@i3NetworkFTP@@QAEPADXZ ENDP			; i3NetworkFTP::getAddress
_TEXT	ENDS
; Function compile flags: /Ogtp
; File E:\Proyectos\JuegosOnlineproyectos\PB\pbblow\Piercing Blow Remake\i3Server\include\i3Base\i3NetworkFTP.h
;	COMDAT ?removeFlags@i3NetworkFTP@@QAEXI@Z
_TEXT	SEGMENT
_nFlag$ = 8						; size = 4
?removeFlags@i3NetworkFTP@@QAEXI@Z PROC			; i3NetworkFTP::removeFlags, COMDAT
; _this$ = ecx

; 60   : 	void	removeFlags( UINT32 nFlag )			{ m_nFlags &= ~nFlag; }

  00000	55		 push	 ebp
  00001	8b ec		 mov	 ebp, esp
  00003	8b 45 08	 mov	 eax, DWORD PTR _nFlag$[ebp]
  00006	f7 d0		 not	 eax
  00008	21 41 18	 and	 DWORD PTR [ecx+24], eax
  0000b	5d		 pop	 ebp
  0000c	c2 04 00	 ret	 4
?removeFlags@i3NetworkFTP@@QAEXI@Z ENDP			; i3NetworkFTP::removeFlags
_TEXT	ENDS
; Function compile flags: /Ogtp
; File E:\Proyectos\JuegosOnlineproyectos\PB\pbblow\Piercing Blow Remake\i3Server\include\i3Base\i3NetworkFTP.h
;	COMDAT ?addFlags@i3NetworkFTP@@QAEXI@Z
_TEXT	SEGMENT
_nFlag$ = 8						; size = 4
?addFlags@i3NetworkFTP@@QAEXI@Z PROC			; i3NetworkFTP::addFlags, COMDAT
; _this$ = ecx

; 59   : 	void	addFlags( UINT32 nFlag )			{ m_nFlags |= nFlag; }

  00000	55		 push	 ebp
  00001	8b ec		 mov	 ebp, esp
  00003	8b 45 08	 mov	 eax, DWORD PTR _nFlag$[ebp]
  00006	09 41 18	 or	 DWORD PTR [ecx+24], eax
  00009	5d		 pop	 ebp
  0000a	c2 04 00	 ret	 4
?addFlags@i3NetworkFTP@@QAEXI@Z ENDP			; i3NetworkFTP::addFlags
_TEXT	ENDS
; Function compile flags: /Ogtp
; File E:\Proyectos\JuegosOnlineproyectos\PB\pbblow\Piercing Blow Remake\i3Server\include\i3Base\i3NetworkFTP.h
;	COMDAT ?setFlags@i3NetworkFTP@@QAEXI@Z
_TEXT	SEGMENT
_nFlag$ = 8						; size = 4
?setFlags@i3NetworkFTP@@QAEXI@Z PROC			; i3NetworkFTP::setFlags, COMDAT
; _this$ = ecx

; 58   : 	void	setFlags( UINT32 nFlag )			{ m_nFlags = nFlag; }

  00000	55		 push	 ebp
  00001	8b ec		 mov	 ebp, esp
  00003	8b 45 08	 mov	 eax, DWORD PTR _nFlag$[ebp]
  00006	89 41 18	 mov	 DWORD PTR [ecx+24], eax
  00009	5d		 pop	 ebp
  0000a	c2 04 00	 ret	 4
?setFlags@i3NetworkFTP@@QAEXI@Z ENDP			; i3NetworkFTP::setFlags
_TEXT	ENDS
; Function compile flags: /Ogtp
; File E:\Proyectos\JuegosOnlineproyectos\PB\pbblow\Piercing Blow Remake\i3Server\include\i3Base\i3NetworkFTP.h
;	COMDAT ?getFlags@i3NetworkFTP@@QAEIXZ
_TEXT	SEGMENT
?getFlags@i3NetworkFTP@@QAEIXZ PROC			; i3NetworkFTP::getFlags, COMDAT
; _this$ = ecx

; 57   : 	UINT32	getFlags( void )					{ return m_nFlags; }

  00000	8b 41 18	 mov	 eax, DWORD PTR [ecx+24]
  00003	c3		 ret	 0
?getFlags@i3NetworkFTP@@QAEIXZ ENDP			; i3NetworkFTP::getFlags
_TEXT	ENDS
; Function compile flags: /Ogtp
; File E:\Proyectos\JuegosOnlineproyectos\PB\pbblow\Piercing Blow Remake\i3Server\src\i3Base\i3NetworkFTP.cpp
;	COMDAT ?_BindObjectRefByType@i3NetworkFTP@@SAPAV1@PAXW4I3_CLASSMETA_TYPE@@@Z
_TEXT	SEGMENT
_pBuf$ = 8						; size = 4
_type$ = 12						; size = 4
?_BindObjectRefByType@i3NetworkFTP@@SAPAV1@PAXW4I3_CLASSMETA_TYPE@@@Z PROC ; i3NetworkFTP::_BindObjectRefByType, COMDAT

; 5    : I3_CLASS_INSTANCE( i3NetworkFTP, i3ElementBase );

  00000	55		 push	 ebp
  00001	8b ec		 mov	 ebp, esp
  00003	8b 0d 00 00 00
	00		 mov	 ecx, DWORD PTR ?s_pClassMetai3NetworkFTP@i3NetworkFTP@@2PAVi3ClassMeta@@A ; i3NetworkFTP::s_pClassMetai3NetworkFTP
  00009	ff 75 0c	 push	 DWORD PTR _type$[ebp]
  0000c	ff 75 08	 push	 DWORD PTR _pBuf$[ebp]
  0000f	8b 01		 mov	 eax, DWORD PTR [ecx]
  00011	ff 50 08	 call	 DWORD PTR [eax+8]
  00014	5d		 pop	 ebp
  00015	c3		 ret	 0
?_BindObjectRefByType@i3NetworkFTP@@SAPAV1@PAXW4I3_CLASSMETA_TYPE@@@Z ENDP ; i3NetworkFTP::_BindObjectRefByType
_TEXT	ENDS
; Function compile flags: /Ogtp
; File E:\Proyectos\JuegosOnlineproyectos\PB\pbblow\Piercing Blow Remake\i3Server\src\i3Base\i3NetworkFTP.cpp
; File E:\Proyectos\JuegosOnlineproyectos\PB\pbblow\Piercing Blow Remake\i3Server\include\i3Base\i3ElementBase.h
; File E:\Proyectos\JuegosOnlineproyectos\PB\pbblow\Piercing Blow Remake\i3Server\src\i3Base\i3NetworkFTP.cpp
;	COMDAT ?_BindObjectByType@i3NetworkFTP@@SAPAV1@PAXW4I3_CLASSMETA_TYPE@@@Z
_TEXT	SEGMENT
_pBuf$ = 8						; size = 4
_type$ = 12						; size = 4
?_BindObjectByType@i3NetworkFTP@@SAPAV1@PAXW4I3_CLASSMETA_TYPE@@@Z PROC ; i3NetworkFTP::_BindObjectByType, COMDAT

; 5    : I3_CLASS_INSTANCE( i3NetworkFTP, i3ElementBase );

  00000	55		 push	 ebp
  00001	8b ec		 mov	 ebp, esp
  00003	8b 0d 00 00 00
	00		 mov	 ecx, DWORD PTR ?s_pClassMetai3NetworkFTP@i3NetworkFTP@@2PAVi3ClassMeta@@A ; i3NetworkFTP::s_pClassMetai3NetworkFTP
  00009	ff 75 0c	 push	 DWORD PTR _type$[ebp]
  0000c	ff 75 08	 push	 DWORD PTR _pBuf$[ebp]
  0000f	8b 01		 mov	 eax, DWORD PTR [ecx]
  00011	ff 50 08	 call	 DWORD PTR [eax+8]
; File E:\Proyectos\JuegosOnlineproyectos\PB\pbblow\Piercing Blow Remake\i3Server\include\i3Base\i3ElementBase.h

; 392  : 		m_RefCount++;

  00014	ff 40 04	 inc	 DWORD PTR [eax+4]
; File E:\Proyectos\JuegosOnlineproyectos\PB\pbblow\Piercing Blow Remake\i3Server\src\i3Base\i3NetworkFTP.cpp

; 5    : I3_CLASS_INSTANCE( i3NetworkFTP, i3ElementBase );

  00017	5d		 pop	 ebp
  00018	c3		 ret	 0
?_BindObjectByType@i3NetworkFTP@@SAPAV1@PAXW4I3_CLASSMETA_TYPE@@@Z ENDP ; i3NetworkFTP::_BindObjectByType
_TEXT	ENDS
; Function compile flags: /Ogtp
; File E:\Proyectos\JuegosOnlineproyectos\PB\pbblow\Piercing Blow Remake\i3Server\src\i3Base\i3NetworkFTP.cpp
;	COMDAT ?_NewObjectRefByType@i3NetworkFTP@@SAPAV1@W4I3_CLASSMETA_TYPE@@@Z
_TEXT	SEGMENT
_type$ = 8						; size = 4
?_NewObjectRefByType@i3NetworkFTP@@SAPAV1@W4I3_CLASSMETA_TYPE@@@Z PROC ; i3NetworkFTP::_NewObjectRefByType, COMDAT

; 5    : I3_CLASS_INSTANCE( i3NetworkFTP, i3ElementBase );

  00000	55		 push	 ebp
  00001	8b ec		 mov	 ebp, esp
  00003	8b 0d 00 00 00
	00		 mov	 ecx, DWORD PTR ?s_pClassMetai3NetworkFTP@i3NetworkFTP@@2PAVi3ClassMeta@@A ; i3NetworkFTP::s_pClassMetai3NetworkFTP
  00009	ff 75 08	 push	 DWORD PTR _type$[ebp]
  0000c	8b 01		 mov	 eax, DWORD PTR [ecx]
  0000e	ff 50 04	 call	 DWORD PTR [eax+4]
  00011	5d		 pop	 ebp
  00012	c3		 ret	 0
?_NewObjectRefByType@i3NetworkFTP@@SAPAV1@W4I3_CLASSMETA_TYPE@@@Z ENDP ; i3NetworkFTP::_NewObjectRefByType
_TEXT	ENDS
; Function compile flags: /Ogtp
; File E:\Proyectos\JuegosOnlineproyectos\PB\pbblow\Piercing Blow Remake\i3Server\src\i3Base\i3NetworkFTP.cpp
; File E:\Proyectos\JuegosOnlineproyectos\PB\pbblow\Piercing Blow Remake\i3Server\include\i3Base\i3ElementBase.h
; File E:\Proyectos\JuegosOnlineproyectos\PB\pbblow\Piercing Blow Remake\i3Server\src\i3Base\i3NetworkFTP.cpp
;	COMDAT ?_NewObjectByType@i3NetworkFTP@@SAPAV1@W4I3_CLASSMETA_TYPE@@@Z
_TEXT	SEGMENT
_type$ = 8						; size = 4
?_NewObjectByType@i3NetworkFTP@@SAPAV1@W4I3_CLASSMETA_TYPE@@@Z PROC ; i3NetworkFTP::_NewObjectByType, COMDAT

; 5    : I3_CLASS_INSTANCE( i3NetworkFTP, i3ElementBase );

  00000	55		 push	 ebp
  00001	8b ec		 mov	 ebp, esp
  00003	8b 0d 00 00 00
	00		 mov	 ecx, DWORD PTR ?s_pClassMetai3NetworkFTP@i3NetworkFTP@@2PAVi3ClassMeta@@A ; i3NetworkFTP::s_pClassMetai3NetworkFTP
  00009	ff 75 08	 push	 DWORD PTR _type$[ebp]
  0000c	8b 01		 mov	 eax, DWORD PTR [ecx]
  0000e	ff 50 04	 call	 DWORD PTR [eax+4]
; File E:\Proyectos\JuegosOnlineproyectos\PB\pbblow\Piercing Blow Remake\i3Server\include\i3Base\i3ElementBase.h

; 392  : 		m_RefCount++;

  00011	ff 40 04	 inc	 DWORD PTR [eax+4]
; File E:\Proyectos\JuegosOnlineproyectos\PB\pbblow\Piercing Blow Remake\i3Server\src\i3Base\i3NetworkFTP.cpp

; 5    : I3_CLASS_INSTANCE( i3NetworkFTP, i3ElementBase );

  00014	5d		 pop	 ebp
  00015	c3		 ret	 0
?_NewObjectByType@i3NetworkFTP@@SAPAV1@W4I3_CLASSMETA_TYPE@@@Z ENDP ; i3NetworkFTP::_NewObjectByType
_TEXT	ENDS
; Function compile flags: /Ogtp
; File E:\Proyectos\JuegosOnlineproyectos\PB\pbblow\Piercing Blow Remake\i3Server\src\i3Base\i3NetworkFTP.cpp
;	COMDAT ?_BindObjectRef@i3NetworkFTP@@SAPAV1@PAX@Z
_TEXT	SEGMENT
_pBuf$ = 8						; size = 4
?_BindObjectRef@i3NetworkFTP@@SAPAV1@PAX@Z PROC		; i3NetworkFTP::_BindObjectRef, COMDAT

; 5    : I3_CLASS_INSTANCE( i3NetworkFTP, i3ElementBase );

  00000	55		 push	 ebp
  00001	8b ec		 mov	 ebp, esp
  00003	8b 0d 00 00 00
	00		 mov	 ecx, DWORD PTR ?s_pClassMetai3NetworkFTP@i3NetworkFTP@@2PAVi3ClassMeta@@A ; i3NetworkFTP::s_pClassMetai3NetworkFTP
  00009	6a 00		 push	 0
  0000b	ff 75 08	 push	 DWORD PTR _pBuf$[ebp]
  0000e	8b 01		 mov	 eax, DWORD PTR [ecx]
  00010	ff 50 08	 call	 DWORD PTR [eax+8]
  00013	5d		 pop	 ebp
  00014	c3		 ret	 0
?_BindObjectRef@i3NetworkFTP@@SAPAV1@PAX@Z ENDP		; i3NetworkFTP::_BindObjectRef
_TEXT	ENDS
; Function compile flags: /Ogtp
; File E:\Proyectos\JuegosOnlineproyectos\PB\pbblow\Piercing Blow Remake\i3Server\src\i3Base\i3NetworkFTP.cpp
; File E:\Proyectos\JuegosOnlineproyectos\PB\pbblow\Piercing Blow Remake\i3Server\include\i3Base\i3ElementBase.h
; File E:\Proyectos\JuegosOnlineproyectos\PB\pbblow\Piercing Blow Remake\i3Server\src\i3Base\i3NetworkFTP.cpp
;	COMDAT ?_BindObject@i3NetworkFTP@@SAPAV1@PAX@Z
_TEXT	SEGMENT
_pBuf$ = 8						; size = 4
?_BindObject@i3NetworkFTP@@SAPAV1@PAX@Z PROC		; i3NetworkFTP::_BindObject, COMDAT

; 5    : I3_CLASS_INSTANCE( i3NetworkFTP, i3ElementBase );

  00000	55		 push	 ebp
  00001	8b ec		 mov	 ebp, esp
  00003	8b 0d 00 00 00
	00		 mov	 ecx, DWORD PTR ?s_pClassMetai3NetworkFTP@i3NetworkFTP@@2PAVi3ClassMeta@@A ; i3NetworkFTP::s_pClassMetai3NetworkFTP
  00009	6a 00		 push	 0
  0000b	ff 75 08	 push	 DWORD PTR _pBuf$[ebp]
  0000e	8b 01		 mov	 eax, DWORD PTR [ecx]
  00010	ff 50 08	 call	 DWORD PTR [eax+8]
; File E:\Proyectos\JuegosOnlineproyectos\PB\pbblow\Piercing Blow Remake\i3Server\include\i3Base\i3ElementBase.h

; 392  : 		m_RefCount++;

  00013	ff 40 04	 inc	 DWORD PTR [eax+4]
; File E:\Proyectos\JuegosOnlineproyectos\PB\pbblow\Piercing Blow Remake\i3Server\src\i3Base\i3NetworkFTP.cpp

; 5    : I3_CLASS_INSTANCE( i3NetworkFTP, i3ElementBase );

  00016	5d		 pop	 ebp
  00017	c3		 ret	 0
?_BindObject@i3NetworkFTP@@SAPAV1@PAX@Z ENDP		; i3NetworkFTP::_BindObject
_TEXT	ENDS
; Function compile flags: /Ogtp
; File E:\Proyectos\JuegosOnlineproyectos\PB\pbblow\Piercing Blow Remake\i3Server\src\i3Base\i3NetworkFTP.cpp
;	COMDAT ?_NewObjectRef@i3NetworkFTP@@SAPAV1@XZ
_TEXT	SEGMENT
?_NewObjectRef@i3NetworkFTP@@SAPAV1@XZ PROC		; i3NetworkFTP::_NewObjectRef, COMDAT

; 5    : I3_CLASS_INSTANCE( i3NetworkFTP, i3ElementBase );

  00000	8b 0d 00 00 00
	00		 mov	 ecx, DWORD PTR ?s_pClassMetai3NetworkFTP@i3NetworkFTP@@2PAVi3ClassMeta@@A ; i3NetworkFTP::s_pClassMetai3NetworkFTP
  00006	6a 00		 push	 0
  00008	8b 01		 mov	 eax, DWORD PTR [ecx]
  0000a	ff 50 04	 call	 DWORD PTR [eax+4]
  0000d	c3		 ret	 0
?_NewObjectRef@i3NetworkFTP@@SAPAV1@XZ ENDP		; i3NetworkFTP::_NewObjectRef
_TEXT	ENDS
; Function compile flags: /Ogtp
; File E:\Proyectos\JuegosOnlineproyectos\PB\pbblow\Piercing Blow Remake\i3Server\src\i3Base\i3NetworkFTP.cpp
; File E:\Proyectos\JuegosOnlineproyectos\PB\pbblow\Piercing Blow Remake\i3Server\include\i3Base\i3ElementBase.h
; File E:\Proyectos\JuegosOnlineproyectos\PB\pbblow\Piercing Blow Remake\i3Server\src\i3Base\i3NetworkFTP.cpp
;	COMDAT ?_NewObject@i3NetworkFTP@@SAPAV1@XZ
_TEXT	SEGMENT
?_NewObject@i3NetworkFTP@@SAPAV1@XZ PROC		; i3NetworkFTP::_NewObject, COMDAT

; 5    : I3_CLASS_INSTANCE( i3NetworkFTP, i3ElementBase );

  00000	8b 0d 00 00 00
	00		 mov	 ecx, DWORD PTR ?s_pClassMetai3NetworkFTP@i3NetworkFTP@@2PAVi3ClassMeta@@A ; i3NetworkFTP::s_pClassMetai3NetworkFTP
  00006	6a 00		 push	 0
  00008	8b 01		 mov	 eax, DWORD PTR [ecx]
  0000a	ff 50 04	 call	 DWORD PTR [eax+4]
; File E:\Proyectos\JuegosOnlineproyectos\PB\pbblow\Piercing Blow Remake\i3Server\include\i3Base\i3ElementBase.h

; 392  : 		m_RefCount++;

  0000d	ff 40 04	 inc	 DWORD PTR [eax+4]
; File E:\Proyectos\JuegosOnlineproyectos\PB\pbblow\Piercing Blow Remake\i3Server\src\i3Base\i3NetworkFTP.cpp

; 5    : I3_CLASS_INSTANCE( i3NetworkFTP, i3ElementBase );

  00010	c3		 ret	 0
?_NewObject@i3NetworkFTP@@SAPAV1@XZ ENDP		; i3NetworkFTP::_NewObject
_TEXT	ENDS
; Function compile flags: /Ogtp
; File E:\Proyectos\JuegosOnlineproyectos\PB\pbblow\Piercing Blow Remake\i3Server\src\i3Base\i3NetworkFTP.cpp
;	COMDAT ?SetGhostClass@i3NetworkFTP@@SAXPAVi3ClassMeta@@@Z
_TEXT	SEGMENT
_pMeta$ = 8						; size = 4
?SetGhostClass@i3NetworkFTP@@SAXPAVi3ClassMeta@@@Z PROC	; i3NetworkFTP::SetGhostClass, COMDAT

; 5    : I3_CLASS_INSTANCE( i3NetworkFTP, i3ElementBase );

  00000	55		 push	 ebp
  00001	8b ec		 mov	 ebp, esp
  00003	ff 75 08	 push	 DWORD PTR _pMeta$[ebp]
  00006	8b 0d 00 00 00
	00		 mov	 ecx, DWORD PTR ?s_pClassMetai3NetworkFTP@i3NetworkFTP@@2PAVi3ClassMeta@@A ; i3NetworkFTP::s_pClassMetai3NetworkFTP
  0000c	e8 00 00 00 00	 call	 ?SetGhostClass@i3ClassMeta@@QAEXPAV1@@Z ; i3ClassMeta::SetGhostClass
  00011	5d		 pop	 ebp
  00012	c3		 ret	 0
?SetGhostClass@i3NetworkFTP@@SAXPAVi3ClassMeta@@@Z ENDP	; i3NetworkFTP::SetGhostClass
_TEXT	ENDS
; Function compile flags: /Ogtp
; File E:\Proyectos\JuegosOnlineproyectos\PB\pbblow\Piercing Blow Remake\i3Server\src\i3Base\i3NetworkFTP.cpp
;	COMDAT ?SetConcreteClass@i3NetworkFTP@@SAXPAVi3ClassMeta@@@Z
_TEXT	SEGMENT
_pMeta$ = 8						; size = 4
?SetConcreteClass@i3NetworkFTP@@SAXPAVi3ClassMeta@@@Z PROC ; i3NetworkFTP::SetConcreteClass, COMDAT

; 5    : I3_CLASS_INSTANCE( i3NetworkFTP, i3ElementBase );

  00000	55		 push	 ebp
  00001	8b ec		 mov	 ebp, esp
  00003	ff 75 08	 push	 DWORD PTR _pMeta$[ebp]
  00006	8b 0d 00 00 00
	00		 mov	 ecx, DWORD PTR ?s_pClassMetai3NetworkFTP@i3NetworkFTP@@2PAVi3ClassMeta@@A ; i3NetworkFTP::s_pClassMetai3NetworkFTP
  0000c	e8 00 00 00 00	 call	 ?SetConcreteClass@i3ClassMeta@@QAEXPAV1@@Z ; i3ClassMeta::SetConcreteClass
  00011	5d		 pop	 ebp
  00012	c3		 ret	 0
?SetConcreteClass@i3NetworkFTP@@SAXPAVi3ClassMeta@@@Z ENDP ; i3NetworkFTP::SetConcreteClass
_TEXT	ENDS
; Function compile flags: /Ogtp
; File E:\Proyectos\JuegosOnlineproyectos\PB\pbblow\Piercing Blow Remake\i3Server\src\i3Base\i3NetworkFTP.cpp
;	COMDAT ?RegisterMeta@i3NetworkFTP@@SAXXZ
_TEXT	SEGMENT
?RegisterMeta@i3NetworkFTP@@SAXXZ PROC			; i3NetworkFTP::RegisterMeta, COMDAT

; 5    : I3_CLASS_INSTANCE( i3NetworkFTP, i3ElementBase );

  00000	8b 0d 00 00 00
	00		 mov	 ecx, DWORD PTR ?s_pClassMetai3NetworkFTP@i3NetworkFTP@@2PAVi3ClassMeta@@A ; i3NetworkFTP::s_pClassMetai3NetworkFTP
  00006	e9 00 00 00 00	 jmp	 ?Register@i3ClassMeta@@QAEXXZ ; i3ClassMeta::Register
?RegisterMeta@i3NetworkFTP@@SAXXZ ENDP			; i3NetworkFTP::RegisterMeta
_TEXT	ENDS
; Function compile flags: /Ogtp
; File E:\Proyectos\JuegosOnlineproyectos\PB\pbblow\Piercing Blow Remake\i3Server\src\i3Base\i3NetworkFTP.cpp
;	COMDAT ?GetMeta@i3NetworkFTP@@UAEPAVi3ClassMeta@@XZ
_TEXT	SEGMENT
?GetMeta@i3NetworkFTP@@UAEPAVi3ClassMeta@@XZ PROC	; i3NetworkFTP::GetMeta, COMDAT
; _this$ = ecx

; 5    : I3_CLASS_INSTANCE( i3NetworkFTP, i3ElementBase );

  00000	a1 00 00 00 00	 mov	 eax, DWORD PTR ?s_pClassMetai3NetworkFTP@i3NetworkFTP@@2PAVi3ClassMeta@@A ; i3NetworkFTP::s_pClassMetai3NetworkFTP
  00005	c3		 ret	 0
?GetMeta@i3NetworkFTP@@UAEPAVi3ClassMeta@@XZ ENDP	; i3NetworkFTP::GetMeta
_TEXT	ENDS
; Function compile flags: /Ogtp
; File E:\Proyectos\JuegosOnlineproyectos\PB\pbblow\Piercing Blow Remake\i3Server\include\i3Base\i3NetworkFTP.h
;	COMDAT ?GetClassMeta@i3NetworkFTP@@SAPAVi3ClassMeta@@XZ
_TEXT	SEGMENT
?GetClassMeta@i3NetworkFTP@@SAPAVi3ClassMeta@@XZ PROC	; i3NetworkFTP::GetClassMeta, COMDAT

; 34   : 	I3_CLASS_DEFINE( i3NetworkFTP );

  00000	a1 00 00 00 00	 mov	 eax, DWORD PTR ?s_pClassMetai3NetworkFTP@i3NetworkFTP@@2PAVi3ClassMeta@@A ; i3NetworkFTP::s_pClassMetai3NetworkFTP
  00005	c3		 ret	 0
?GetClassMeta@i3NetworkFTP@@SAPAVi3ClassMeta@@XZ ENDP	; i3NetworkFTP::GetClassMeta
_TEXT	ENDS
; Function compile flags: /Ogtp
;	COMDAT ??_Ei3MemoryPool@@UAEPAXI@Z
_TEXT	SEGMENT
__$EHRec$ = -12						; size = 12
___flags$ = 8						; size = 4
??_Ei3MemoryPool@@UAEPAXI@Z PROC			; i3MemoryPool::`vector deleting destructor', COMDAT
; _this$ = ecx
  00000	55		 push	 ebp
  00001	8b ec		 mov	 ebp, esp
  00003	6a ff		 push	 -1
  00005	68 00 00 00 00	 push	 __ehhandler$??_Ei3MemoryPool@@UAEPAXI@Z
  0000a	64 a1 00 00 00
	00		 mov	 eax, DWORD PTR fs:0
  00010	50		 push	 eax
  00011	53		 push	 ebx
  00012	56		 push	 esi
  00013	57		 push	 edi
  00014	a1 00 00 00 00	 mov	 eax, DWORD PTR ___security_cookie
  00019	33 c5		 xor	 eax, ebp
  0001b	50		 push	 eax
  0001c	8d 45 f4	 lea	 eax, DWORD PTR __$EHRec$[ebp]
  0001f	64 a3 00 00 00
	00		 mov	 DWORD PTR fs:0, eax
  00025	8b f1		 mov	 esi, ecx
  00027	8b 45 08	 mov	 eax, DWORD PTR ___flags$[ebp]
  0002a	8b f8		 mov	 edi, eax
  0002c	83 e7 01	 and	 edi, 1
  0002f	a8 02		 test	 al, 2
  00031	74 40		 je	 SHORT $LN2@vector
  00033	68 00 00 00 00	 push	 OFFSET ??1i3MemoryPool@@UAE@XZ ; i3MemoryPool::~i3MemoryPool
  00038	ff 76 fc	 push	 DWORD PTR [esi-4]
  0003b	8d 5e fc	 lea	 ebx, DWORD PTR [esi-4]
  0003e	6a 04		 push	 4
  00040	56		 push	 esi
  00041	e8 00 00 00 00	 call	 ??_M@YGXPAXIIP6EX0@Z@Z
  00046	85 ff		 test	 edi, edi
  00048	74 13		 je	 SHORT $LN3@vector
  0004a	8b 0b		 mov	 ecx, DWORD PTR [ebx]
  0004c	8d 0c 8d 04 00
	00 00		 lea	 ecx, DWORD PTR [ecx*4+4]
  00053	51		 push	 ecx
  00054	53		 push	 ebx
  00055	e8 00 00 00 00	 call	 ??_V@YAXPAXI@Z		; operator delete[]
  0005a	83 c4 08	 add	 esp, 8
$LN3@vector:
  0005d	8b c3		 mov	 eax, ebx
  0005f	8b 4d f4	 mov	 ecx, DWORD PTR __$EHRec$[ebp]
  00062	64 89 0d 00 00
	00 00		 mov	 DWORD PTR fs:0, ecx
  00069	59		 pop	 ecx
  0006a	5f		 pop	 edi
  0006b	5e		 pop	 esi
  0006c	5b		 pop	 ebx
  0006d	8b e5		 mov	 esp, ebp
  0006f	5d		 pop	 ebp
  00070	c2 04 00	 ret	 4
$LN2@vector:
  00073	e8 00 00 00 00	 call	 ??1i3MemoryPool@@UAE@XZ	; i3MemoryPool::~i3MemoryPool
  00078	85 ff		 test	 edi, edi
  0007a	74 0b		 je	 SHORT $LN4@vector
  0007c	6a 04		 push	 4
  0007e	56		 push	 esi
  0007f	e8 00 00 00 00	 call	 ??3@YAXPAXI@Z		; operator delete
  00084	83 c4 08	 add	 esp, 8
$LN4@vector:
  00087	8b c6		 mov	 eax, esi
  00089	8b 4d f4	 mov	 ecx, DWORD PTR __$EHRec$[ebp]
  0008c	64 89 0d 00 00
	00 00		 mov	 DWORD PTR fs:0, ecx
  00093	59		 pop	 ecx
  00094	5f		 pop	 edi
  00095	5e		 pop	 esi
  00096	5b		 pop	 ebx
  00097	8b e5		 mov	 esp, ebp
  00099	5d		 pop	 ebp
  0009a	c2 04 00	 ret	 4
  0009d	cc		 int	 3
  0009e	cc		 int	 3
  0009f	cc		 int	 3
  000a0	cc		 int	 3
  000a1	cc		 int	 3
_TEXT	ENDS
;	COMDAT text$x
text$x	SEGMENT
__ehhandler$??_Ei3MemoryPool@@UAEPAXI@Z:
  00000	90		 npad	 1
  00001	90		 npad	 1
  00002	8b 54 24 08	 mov	 edx, DWORD PTR [esp+8]
  00006	8d 42 0c	 lea	 eax, DWORD PTR [edx+12]
  00009	8b 4a f0	 mov	 ecx, DWORD PTR [edx-16]
  0000c	33 c8		 xor	 ecx, eax
  0000e	e8 00 00 00 00	 call	 @__security_check_cookie@4
  00013	b8 00 00 00 00	 mov	 eax, OFFSET __ehfuncinfo$??_Ei3MemoryPool@@UAEPAXI@Z
  00018	e9 00 00 00 00	 jmp	 ___CxxFrameHandler3
text$x	ENDS
??_Ei3MemoryPool@@UAEPAXI@Z ENDP			; i3MemoryPool::`vector deleting destructor'
; Function compile flags: /Ogtp
;	COMDAT ??_Gi3MemoryPool@@UAEPAXI@Z
_TEXT	SEGMENT
___flags$ = 8						; size = 4
??_Gi3MemoryPool@@UAEPAXI@Z PROC			; i3MemoryPool::`scalar deleting destructor', COMDAT
; _this$ = ecx
  00000	55		 push	 ebp
  00001	8b ec		 mov	 ebp, esp
  00003	56		 push	 esi
  00004	8b f1		 mov	 esi, ecx
  00006	e8 00 00 00 00	 call	 ??1i3MemoryPool@@UAE@XZ	; i3MemoryPool::~i3MemoryPool
  0000b	f6 45 08 01	 test	 BYTE PTR ___flags$[ebp], 1
  0000f	74 0b		 je	 SHORT $LN5@scalar
  00011	6a 04		 push	 4
  00013	56		 push	 esi
  00014	e8 00 00 00 00	 call	 ??3@YAXPAXI@Z		; operator delete
  00019	83 c4 08	 add	 esp, 8
$LN5@scalar:
  0001c	8b c6		 mov	 eax, esi
  0001e	5e		 pop	 esi
  0001f	5d		 pop	 ebp
  00020	c2 04 00	 ret	 4
??_Gi3MemoryPool@@UAEPAXI@Z ENDP			; i3MemoryPool::`scalar deleting destructor'
_TEXT	ENDS
; Function compile flags: /Ogtp
;	COMDAT ??4i3MemoryPool@@QAEAAV0@ABV0@@Z
_TEXT	SEGMENT
___that$ = 8						; size = 4
??4i3MemoryPool@@QAEAAV0@ABV0@@Z PROC			; i3MemoryPool::operator=, COMDAT
; _this$ = ecx
  00000	8b c1		 mov	 eax, ecx
  00002	c2 04 00	 ret	 4
??4i3MemoryPool@@QAEAAV0@ABV0@@Z ENDP			; i3MemoryPool::operator=
_TEXT	ENDS
; Function compile flags: /Ogtp
;	COMDAT ??0i3MemoryPool@@QAE@ABV0@@Z
_TEXT	SEGMENT
___that$ = 8						; size = 4
??0i3MemoryPool@@QAE@ABV0@@Z PROC			; i3MemoryPool::i3MemoryPool, COMDAT
; _this$ = ecx
  00000	c7 01 00 00 00
	00		 mov	 DWORD PTR [ecx], OFFSET ??_7i3MemoryPool@@6B@
  00006	8b c1		 mov	 eax, ecx
  00008	c2 04 00	 ret	 4
??0i3MemoryPool@@QAE@ABV0@@Z ENDP			; i3MemoryPool::i3MemoryPool
_TEXT	ENDS
; Function compile flags: /Ogtp
; File E:\Proyectos\JuegosOnlineproyectos\PB\pbblow\Piercing Blow Remake\i3Server\src\i3Base\i3NetworkFTP.cpp
;	COMDAT ??_Ei3ElementBase@@UAEPAXI@Z
_TEXT	SEGMENT
__$EHRec$ = -12						; size = 12
___flags$ = 8						; size = 4
??_Ei3ElementBase@@UAEPAXI@Z PROC			; i3ElementBase::`vector deleting destructor', COMDAT
; _this$ = ecx
  00000	55		 push	 ebp
  00001	8b ec		 mov	 ebp, esp
  00003	6a ff		 push	 -1
  00005	68 00 00 00 00	 push	 __ehhandler$??_Ei3ElementBase@@UAEPAXI@Z
  0000a	64 a1 00 00 00
	00		 mov	 eax, DWORD PTR fs:0
  00010	50		 push	 eax
  00011	53		 push	 ebx
  00012	56		 push	 esi
  00013	57		 push	 edi
  00014	a1 00 00 00 00	 mov	 eax, DWORD PTR ___security_cookie
  00019	33 c5		 xor	 eax, ebp
  0001b	50		 push	 eax
  0001c	8d 45 f4	 lea	 eax, DWORD PTR __$EHRec$[ebp]
  0001f	64 a3 00 00 00
	00		 mov	 DWORD PTR fs:0, eax
  00025	8b f1		 mov	 esi, ecx
  00027	8b 5d 08	 mov	 ebx, DWORD PTR ___flags$[ebp]
  0002a	8b fb		 mov	 edi, ebx
  0002c	83 e7 01	 and	 edi, 1
  0002f	f6 c3 02	 test	 bl, 2
  00032	74 3f		 je	 SHORT $LN2@vector
  00034	68 00 00 00 00	 push	 OFFSET ??1i3ElementBase@@UAE@XZ ; i3ElementBase::~i3ElementBase
  00039	ff 76 fc	 push	 DWORD PTR [esi-4]
  0003c	8d 5e fc	 lea	 ebx, DWORD PTR [esi-4]
  0003f	6a 10		 push	 16			; 00000010H
  00041	56		 push	 esi
  00042	e8 00 00 00 00	 call	 ??_M@YGXPAXIIP6EX0@Z@Z
  00047	85 ff		 test	 edi, edi
  00049	74 12		 je	 SHORT $LN3@vector
  0004b	8b 0b		 mov	 ecx, DWORD PTR [ebx]
  0004d	c1 e1 04	 shl	 ecx, 4
  00050	83 c1 04	 add	 ecx, 4
  00053	51		 push	 ecx
  00054	53		 push	 ebx
  00055	e8 00 00 00 00	 call	 ??_V@YAXPAXI@Z		; operator delete[]
  0005a	83 c4 08	 add	 esp, 8
$LN3@vector:
  0005d	8b c3		 mov	 eax, ebx
  0005f	8b 4d f4	 mov	 ecx, DWORD PTR __$EHRec$[ebp]
  00062	64 89 0d 00 00
	00 00		 mov	 DWORD PTR fs:0, ecx
  00069	59		 pop	 ecx
  0006a	5f		 pop	 edi
  0006b	5e		 pop	 esi
  0006c	5b		 pop	 ebx
  0006d	8b e5		 mov	 esp, ebp
  0006f	5d		 pop	 ebp
  00070	c2 04 00	 ret	 4
$LN2@vector:
  00073	e8 00 00 00 00	 call	 ??1i3ElementBase@@UAE@XZ ; i3ElementBase::~i3ElementBase
  00078	85 ff		 test	 edi, edi
  0007a	74 1b		 je	 SHORT $LN6@vector
  0007c	f6 c3 04	 test	 bl, 4
  0007f	75 0b		 jne	 SHORT $LN5@vector
  00081	56		 push	 esi
  00082	e8 00 00 00 00	 call	 ??3i3ElementBase@@SAXPAX@Z ; i3ElementBase::operator delete
  00087	83 c4 04	 add	 esp, 4
  0008a	eb 0b		 jmp	 SHORT $LN6@vector
$LN5@vector:

  0008c	6a 10		 push	 16			; 00000010H
  0008e	56		 push	 esi
  0008f	e8 00 00 00 00	 call	 ??3@YAXPAXI@Z		; operator delete
  00094	83 c4 08	 add	 esp, 8
$LN6@vector:
  00097	8b c6		 mov	 eax, esi
  00099	8b 4d f4	 mov	 ecx, DWORD PTR __$EHRec$[ebp]
  0009c	64 89 0d 00 00
	00 00		 mov	 DWORD PTR fs:0, ecx
  000a3	59		 pop	 ecx
  000a4	5f		 pop	 edi
  000a5	5e		 pop	 esi
  000a6	5b		 pop	 ebx
  000a7	8b e5		 mov	 esp, ebp
  000a9	5d		 pop	 ebp
  000aa	c2 04 00	 ret	 4
  000ad	cc		 int	 3
  000ae	cc		 int	 3
  000af	cc		 int	 3
  000b0	cc		 int	 3
  000b1	cc		 int	 3
_TEXT	ENDS
;	COMDAT text$x
text$x	SEGMENT
__ehhandler$??_Ei3ElementBase@@UAEPAXI@Z:
  00000	90		 npad	 1
  00001	90		 npad	 1
  00002	8b 54 24 08	 mov	 edx, DWORD PTR [esp+8]
  00006	8d 42 0c	 lea	 eax, DWORD PTR [edx+12]
  00009	8b 4a f0	 mov	 ecx, DWORD PTR [edx-16]
  0000c	33 c8		 xor	 ecx, eax
  0000e	e8 00 00 00 00	 call	 @__security_check_cookie@4
  00013	b8 00 00 00 00	 mov	 eax, OFFSET __ehfuncinfo$??_Ei3ElementBase@@UAEPAXI@Z
  00018	e9 00 00 00 00	 jmp	 ___CxxFrameHandler3
text$x	ENDS
??_Ei3ElementBase@@UAEPAXI@Z ENDP			; i3ElementBase::`vector deleting destructor'
; Function compile flags: /Ogtp
; File E:\Proyectos\JuegosOnlineproyectos\PB\pbblow\Piercing Blow Remake\i3Server\src\i3Base\i3NetworkFTP.cpp
;	COMDAT ??_Gi3ElementBase@@UAEPAXI@Z
_TEXT	SEGMENT
___flags$ = 8						; size = 4
??_Gi3ElementBase@@UAEPAXI@Z PROC			; i3ElementBase::`scalar deleting destructor', COMDAT
; _this$ = ecx
  00000	55		 push	 ebp
  00001	8b ec		 mov	 ebp, esp
  00003	56		 push	 esi
  00004	8b f1		 mov	 esi, ecx
  00006	e8 00 00 00 00	 call	 ??1i3ElementBase@@UAE@XZ ; i3ElementBase::~i3ElementBase
  0000b	8b 45 08	 mov	 eax, DWORD PTR ___flags$[ebp]
  0000e	a8 01		 test	 al, 1
  00010	74 1f		 je	 SHORT $LN10@scalar
  00012	a8 04		 test	 al, 4
  00014	75 10		 jne	 SHORT $LN3@scalar
  00016	56		 push	 esi
  00017	e8 00 00 00 00	 call	 ??3i3ElementBase@@SAXPAX@Z ; i3ElementBase::operator delete
  0001c	83 c4 04	 add	 esp, 4
  0001f	8b c6		 mov	 eax, esi
  00021	5e		 pop	 esi
  00022	5d		 pop	 ebp
  00023	c2 04 00	 ret	 4
$LN3@scalar:

  00026	6a 10		 push	 16			; 00000010H
  00028	56		 push	 esi
  00029	e8 00 00 00 00	 call	 ??3@YAXPAXI@Z		; operator delete
  0002e	83 c4 08	 add	 esp, 8
$LN10@scalar:
  00031	8b c6		 mov	 eax, esi
  00033	5e		 pop	 esi
  00034	5d		 pop	 ebp
  00035	c2 04 00	 ret	 4
??_Gi3ElementBase@@UAEPAXI@Z ENDP			; i3ElementBase::`scalar deleting destructor'
_TEXT	ENDS
; Function compile flags: /Ogtp
;	COMDAT ??4i3ElementBase@@QAEAAV0@ABV0@@Z
_TEXT	SEGMENT
___that$ = 8						; size = 4
??4i3ElementBase@@QAEAAV0@ABV0@@Z PROC			; i3ElementBase::operator=, COMDAT
; _this$ = ecx
  00000	55		 push	 ebp
  00001	8b ec		 mov	 ebp, esp
  00003	8b 55 08	 mov	 edx, DWORD PTR ___that$[ebp]
  00006	8b 42 04	 mov	 eax, DWORD PTR [edx+4]
  00009	89 41 04	 mov	 DWORD PTR [ecx+4], eax
  0000c	8b 42 08	 mov	 eax, DWORD PTR [edx+8]
  0000f	89 41 08	 mov	 DWORD PTR [ecx+8], eax
  00012	8b 42 0c	 mov	 eax, DWORD PTR [edx+12]
  00015	89 41 0c	 mov	 DWORD PTR [ecx+12], eax
  00018	8b c1		 mov	 eax, ecx
  0001a	5d		 pop	 ebp
  0001b	c2 04 00	 ret	 4
??4i3ElementBase@@QAEAAV0@ABV0@@Z ENDP			; i3ElementBase::operator=
_TEXT	ENDS
; Function compile flags: /Ogtp
;	COMDAT ??0i3ElementBase@@QAE@ABV0@@Z
_TEXT	SEGMENT
___that$ = 8						; size = 4
??0i3ElementBase@@QAE@ABV0@@Z PROC			; i3ElementBase::i3ElementBase, COMDAT
; _this$ = ecx
  00000	55		 push	 ebp
  00001	8b ec		 mov	 ebp, esp
  00003	8b 55 08	 mov	 edx, DWORD PTR ___that$[ebp]
  00006	c7 01 00 00 00
	00		 mov	 DWORD PTR [ecx], OFFSET ??_7i3ElementBase@@6B@
  0000c	8b 42 04	 mov	 eax, DWORD PTR [edx+4]
  0000f	89 41 04	 mov	 DWORD PTR [ecx+4], eax
  00012	8b 42 08	 mov	 eax, DWORD PTR [edx+8]
  00015	89 41 08	 mov	 DWORD PTR [ecx+8], eax
  00018	8b 42 0c	 mov	 eax, DWORD PTR [edx+12]
  0001b	89 41 0c	 mov	 DWORD PTR [ecx+12], eax
  0001e	8b c1		 mov	 eax, ecx
  00020	5d		 pop	 ebp
  00021	c2 04 00	 ret	 4
??0i3ElementBase@@QAE@ABV0@@Z ENDP			; i3ElementBase::i3ElementBase
_TEXT	ENDS
; Function compile flags: /Ogtp
; File E:\Proyectos\JuegosOnlineproyectos\PB\pbblow\Piercing Blow Remake\i3Server\include\i3Base\i3ElementBase.h
;	COMDAT ?_internal_SetRefCount@i3ElementBase@@QAEXH@Z
_TEXT	SEGMENT
_cnt$ = 8						; size = 4
?_internal_SetRefCount@i3ElementBase@@QAEXH@Z PROC	; i3ElementBase::_internal_SetRefCount, COMDAT
; _this$ = ecx

; 401  : 	{

  00000	55		 push	 ebp
  00001	8b ec		 mov	 ebp, esp

; 402  : 		m_RefCount = cnt;

  00003	8b 45 08	 mov	 eax, DWORD PTR _cnt$[ebp]
  00006	89 41 04	 mov	 DWORD PTR [ecx+4], eax

; 403  : 	}

  00009	5d		 pop	 ebp
  0000a	c2 04 00	 ret	 4
?_internal_SetRefCount@i3ElementBase@@QAEXH@Z ENDP	; i3ElementBase::_internal_SetRefCount
_TEXT	ENDS
; Function compile flags: /Ogtp
; File E:\Proyectos\JuegosOnlineproyectos\PB\pbblow\Piercing Blow Remake\i3Server\include\i3Base\i3ElementBase.h
;	COMDAT ?AddRef@i3ElementBase@@QAEHXZ
_TEXT	SEGMENT
?AddRef@i3ElementBase@@QAEHXZ PROC			; i3ElementBase::AddRef, COMDAT
; _this$ = ecx

; 392  : 		m_RefCount++;

  00000	ff 41 04	 inc	 DWORD PTR [ecx+4]

; 393  : 
; 394  : 		return m_RefCount;

  00003	8b 41 04	 mov	 eax, DWORD PTR [ecx+4]

; 395  : 	}

  00006	c3		 ret	 0
?AddRef@i3ElementBase@@QAEHXZ ENDP			; i3ElementBase::AddRef
_TEXT	ENDS
; Function compile flags: /Ogtp
; File E:\Proyectos\JuegosOnlineproyectos\PB\pbblow\Piercing Blow Remake\i3Server\include\i3Base\i3ElementBase.h
;	COMDAT ?IsTypeOf@i3ElementBase@@QAE_NPAVi3ClassMeta@@@Z
_TEXT	SEGMENT
_pMeta$ = 8						; size = 4
?IsTypeOf@i3ElementBase@@QAE_NPAVi3ClassMeta@@@Z PROC	; i3ElementBase::IsTypeOf, COMDAT
; _this$ = ecx

; 356  : 	{

  00000	55		 push	 ebp
  00001	8b ec		 mov	 ebp, esp

; 357  : 		return GetMeta()->IsTypeOf( pMeta);

  00003	8b 01		 mov	 eax, DWORD PTR [ecx]
  00005	ff 75 08	 push	 DWORD PTR _pMeta$[ebp]
  00008	ff 10		 call	 DWORD PTR [eax]
  0000a	8b c8		 mov	 ecx, eax
  0000c	e8 00 00 00 00	 call	 ?IsTypeOf@i3ClassMeta@@QAE_NPAV1@@Z ; i3ClassMeta::IsTypeOf

; 358  : 	}

  00011	5d		 pop	 ebp
  00012	c2 04 00	 ret	 4
?IsTypeOf@i3ElementBase@@QAE_NPAVi3ClassMeta@@@Z ENDP	; i3ElementBase::IsTypeOf
_TEXT	ENDS
; Function compile flags: /Ogtp
; File E:\Proyectos\JuegosOnlineproyectos\PB\pbblow\Piercing Blow Remake\i3Server\include\i3Base\i3ElementBase.h
; File E:\Proyectos\JuegosOnlineproyectos\PB\pbblow\Piercing Blow Remake\i3Server\include\i3Base\i3ClassMeta.h
; File E:\Proyectos\JuegosOnlineproyectos\PB\pbblow\Piercing Blow Remake\i3Server\include\i3Base\i3ElementBase.h
;	COMDAT ?IsExactTypeOf@i3ElementBase@@QAE_NPAVi3ClassMeta@@@Z
_TEXT	SEGMENT
_pMeta$ = 8						; size = 4
?IsExactTypeOf@i3ElementBase@@QAE_NPAVi3ClassMeta@@@Z PROC ; i3ElementBase::IsExactTypeOf, COMDAT
; _this$ = ecx

; 351  : 	{

  00000	55		 push	 ebp
  00001	8b ec		 mov	 ebp, esp

; 352  : 		return GetMeta()->IsExactTypeOf( pMeta);

  00003	8b 01		 mov	 eax, DWORD PTR [ecx]
  00005	ff 10		 call	 DWORD PTR [eax]
; File E:\Proyectos\JuegosOnlineproyectos\PB\pbblow\Piercing Blow Remake\i3Server\include\i3Base\i3ClassMeta.h

; 90   : 		return pMeta == this;

  00007	39 45 08	 cmp	 DWORD PTR _pMeta$[ebp], eax
  0000a	0f 94 c0	 sete	 al
; File E:\Proyectos\JuegosOnlineproyectos\PB\pbblow\Piercing Blow Remake\i3Server\include\i3Base\i3ElementBase.h

; 353  : 	}

  0000d	5d		 pop	 ebp
  0000e	c2 04 00	 ret	 4
?IsExactTypeOf@i3ElementBase@@QAE_NPAVi3ClassMeta@@@Z ENDP ; i3ElementBase::IsExactTypeOf
_TEXT	ENDS
; Function compile flags: /Ogtp
; File E:\Proyectos\JuegosOnlineproyectos\PB\pbblow\Piercing Blow Remake\i3Server\include\i3Base\i3ElementBase.h
;	COMDAT ?__GetMemoryPool@i3ElementBase@@QAEPAVi3MemoryPool@@XZ
_TEXT	SEGMENT
?__GetMemoryPool@i3ElementBase@@QAEPAVi3MemoryPool@@XZ PROC ; i3ElementBase::__GetMemoryPool, COMDAT
; _this$ = ecx

; 348  : 	i3MemoryPool *	__GetMemoryPool(void)							{ return m_pPool; }

  00000	8b 41 0c	 mov	 eax, DWORD PTR [ecx+12]
  00003	c3		 ret	 0
?__GetMemoryPool@i3ElementBase@@QAEPAVi3MemoryPool@@XZ ENDP ; i3ElementBase::__GetMemoryPool
_TEXT	ENDS
; Function compile flags: /Ogtp
; File E:\Proyectos\JuegosOnlineproyectos\PB\pbblow\Piercing Blow Remake\i3Server\include\i3Base\i3ElementBase.h
;	COMDAT ?__SetMemoryPool@i3ElementBase@@QAEXPAVi3MemoryPool@@@Z
_TEXT	SEGMENT
_pPool$ = 8						; size = 4
?__SetMemoryPool@i3ElementBase@@QAEXPAVi3MemoryPool@@@Z PROC ; i3ElementBase::__SetMemoryPool, COMDAT
; _this$ = ecx

; 347  : 	void			__SetMemoryPool( i3MemoryPool * pPool)			{ m_pPool = pPool; }

  00000	55		 push	 ebp
  00001	8b ec		 mov	 ebp, esp
  00003	8b 45 08	 mov	 eax, DWORD PTR _pPool$[ebp]
  00006	89 41 0c	 mov	 DWORD PTR [ecx+12], eax
  00009	5d		 pop	 ebp
  0000a	c2 04 00	 ret	 4
?__SetMemoryPool@i3ElementBase@@QAEXPAVi3MemoryPool@@@Z ENDP ; i3ElementBase::__SetMemoryPool
_TEXT	ENDS
; Function compile flags: /Ogtp
; File E:\Proyectos\JuegosOnlineproyectos\PB\pbblow\Piercing Blow Remake\i3Server\include\i3Base\i3ElementBase.h
;	COMDAT ?GetRefCount@i3ElementBase@@QAEHXZ
_TEXT	SEGMENT
?GetRefCount@i3ElementBase@@QAEHXZ PROC			; i3ElementBase::GetRefCount, COMDAT
; _this$ = ecx

; 344  : 		return m_RefCount;

  00000	8b 41 04	 mov	 eax, DWORD PTR [ecx+4]

; 345  : 	}

  00003	c3		 ret	 0
?GetRefCount@i3ElementBase@@QAEHXZ ENDP			; i3ElementBase::GetRefCount
_TEXT	ENDS
; Function compile flags: /Ogtp
; File E:\Proyectos\JuegosOnlineproyectos\PB\pbblow\Piercing Blow Remake\i3Server\include\i3Base\i3ElementBase.h
;	COMDAT ?GetClassMeta@i3ElementBase@@SAPAVi3ClassMeta@@XZ
_TEXT	SEGMENT
?GetClassMeta@i3ElementBase@@SAPAVi3ClassMeta@@XZ PROC	; i3ElementBase::GetClassMeta, COMDAT

; 314  : 	I3_ABSTRACT_CLASS_DEFINE( i3ElementBase);

  00000	a1 00 00 00 00	 mov	 eax, DWORD PTR ?s_pClassMetai3ElementBase@i3ElementBase@@2PAVi3ClassMeta@@A ; i3ElementBase::s_pClassMetai3ElementBase
  00005	c3		 ret	 0
?GetClassMeta@i3ElementBase@@SAPAVi3ClassMeta@@XZ ENDP	; i3ElementBase::GetClassMeta
_TEXT	ENDS
; Function compile flags: /Ogtp
;	COMDAT ??_Ei3ClassMeta@@UAEPAXI@Z
_TEXT	SEGMENT
__$EHRec$ = -12						; size = 12
___flags$ = 8						; size = 4
??_Ei3ClassMeta@@UAEPAXI@Z PROC				; i3ClassMeta::`vector deleting destructor', COMDAT
; _this$ = ecx
  00000	55		 push	 ebp
  00001	8b ec		 mov	 ebp, esp
  00003	6a ff		 push	 -1
  00005	68 00 00 00 00	 push	 __ehhandler$??_Ei3ClassMeta@@UAEPAXI@Z
  0000a	64 a1 00 00 00
	00		 mov	 eax, DWORD PTR fs:0
  00010	50		 push	 eax
  00011	53		 push	 ebx
  00012	56		 push	 esi
  00013	57		 push	 edi
  00014	a1 00 00 00 00	 mov	 eax, DWORD PTR ___security_cookie
  00019	33 c5		 xor	 eax, ebp
  0001b	50		 push	 eax
  0001c	8d 45 f4	 lea	 eax, DWORD PTR __$EHRec$[ebp]
  0001f	64 a3 00 00 00
	00		 mov	 DWORD PTR fs:0, eax
  00025	8b f1		 mov	 esi, ecx
  00027	8b 45 08	 mov	 eax, DWORD PTR ___flags$[ebp]
  0002a	8b f8		 mov	 edi, eax
  0002c	83 e7 01	 and	 edi, 1
  0002f	a8 02		 test	 al, 2
  00031	74 49		 je	 SHORT $LN2@vector
  00033	68 00 00 00 00	 push	 OFFSET ??1i3ClassMeta@@UAE@XZ ; i3ClassMeta::~i3ClassMeta
  00038	ff 76 fc	 push	 DWORD PTR [esi-4]
  0003b	8d 5e fc	 lea	 ebx, DWORD PTR [esi-4]
  0003e	6a 38		 push	 56			; 00000038H
  00040	56		 push	 esi
  00041	e8 00 00 00 00	 call	 ??_M@YGXPAXIIP6EX0@Z@Z
  00046	85 ff		 test	 edi, edi
  00048	74 1c		 je	 SHORT $LN3@vector
  0004a	8b 0b		 mov	 ecx, DWORD PTR [ebx]
  0004c	8d 14 cd 00 00
	00 00		 lea	 edx, DWORD PTR [ecx*8]
  00053	2b d1		 sub	 edx, ecx
  00055	8d 0c d5 04 00
	00 00		 lea	 ecx, DWORD PTR [edx*8+4]
  0005c	51		 push	 ecx
  0005d	53		 push	 ebx
  0005e	e8 00 00 00 00	 call	 ??_V@YAXPAXI@Z		; operator delete[]
  00063	83 c4 08	 add	 esp, 8
$LN3@vector:
  00066	8b c3		 mov	 eax, ebx
  00068	8b 4d f4	 mov	 ecx, DWORD PTR __$EHRec$[ebp]
  0006b	64 89 0d 00 00
	00 00		 mov	 DWORD PTR fs:0, ecx
  00072	59		 pop	 ecx
  00073	5f		 pop	 edi
  00074	5e		 pop	 esi
  00075	5b		 pop	 ebx
  00076	8b e5		 mov	 esp, ebp
  00078	5d		 pop	 ebp
  00079	c2 04 00	 ret	 4
$LN2@vector:
  0007c	e8 00 00 00 00	 call	 ??1i3ClassMeta@@UAE@XZ	; i3ClassMeta::~i3ClassMeta
  00081	85 ff		 test	 edi, edi
  00083	74 0b		 je	 SHORT $LN4@vector
  00085	6a 38		 push	 56			; 00000038H
  00087	56		 push	 esi
  00088	e8 00 00 00 00	 call	 ??3@YAXPAXI@Z		; operator delete
  0008d	83 c4 08	 add	 esp, 8
$LN4@vector:
  00090	8b c6		 mov	 eax, esi
  00092	8b 4d f4	 mov	 ecx, DWORD PTR __$EHRec$[ebp]
  00095	64 89 0d 00 00
	00 00		 mov	 DWORD PTR fs:0, ecx
  0009c	59		 pop	 ecx
  0009d	5f		 pop	 edi
  0009e	5e		 pop	 esi
  0009f	5b		 pop	 ebx
  000a0	8b e5		 mov	 esp, ebp
  000a2	5d		 pop	 ebp
  000a3	c2 04 00	 ret	 4
  000a6	cc		 int	 3
  000a7	cc		 int	 3
  000a8	cc		 int	 3
  000a9	cc		 int	 3
  000aa	cc		 int	 3
_TEXT	ENDS
;	COMDAT text$x
text$x	SEGMENT
__ehhandler$??_Ei3ClassMeta@@UAEPAXI@Z:
  00000	90		 npad	 1
  00001	90		 npad	 1
  00002	8b 54 24 08	 mov	 edx, DWORD PTR [esp+8]
  00006	8d 42 0c	 lea	 eax, DWORD PTR [edx+12]
  00009	8b 4a f0	 mov	 ecx, DWORD PTR [edx-16]
  0000c	33 c8		 xor	 ecx, eax
  0000e	e8 00 00 00 00	 call	 @__security_check_cookie@4
  00013	b8 00 00 00 00	 mov	 eax, OFFSET __ehfuncinfo$??_Ei3ClassMeta@@UAEPAXI@Z
  00018	e9 00 00 00 00	 jmp	 ___CxxFrameHandler3
text$x	ENDS
??_Ei3ClassMeta@@UAEPAXI@Z ENDP				; i3ClassMeta::`vector deleting destructor'
; Function compile flags: /Ogtp
;	COMDAT ??_Gi3ClassMeta@@UAEPAXI@Z
_TEXT	SEGMENT
___flags$ = 8						; size = 4
??_Gi3ClassMeta@@UAEPAXI@Z PROC				; i3ClassMeta::`scalar deleting destructor', COMDAT
; _this$ = ecx
  00000	55		 push	 ebp
  00001	8b ec		 mov	 ebp, esp
  00003	56		 push	 esi
  00004	8b f1		 mov	 esi, ecx
  00006	e8 00 00 00 00	 call	 ??1i3ClassMeta@@UAE@XZ	; i3ClassMeta::~i3ClassMeta
  0000b	f6 45 08 01	 test	 BYTE PTR ___flags$[ebp], 1
  0000f	74 0b		 je	 SHORT $LN5@scalar
  00011	6a 38		 push	 56			; 00000038H
  00013	56		 push	 esi
  00014	e8 00 00 00 00	 call	 ??3@YAXPAXI@Z		; operator delete
  00019	83 c4 08	 add	 esp, 8
$LN5@scalar:
  0001c	8b c6		 mov	 eax, esi
  0001e	5e		 pop	 esi
  0001f	5d		 pop	 ebp
  00020	c2 04 00	 ret	 4
??_Gi3ClassMeta@@UAEPAXI@Z ENDP				; i3ClassMeta::`scalar deleting destructor'
_TEXT	ENDS
; Function compile flags: /Ogtp
;	COMDAT ??4i3ClassMeta@@QAEAAV0@ABV0@@Z
_TEXT	SEGMENT
___that$ = 8						; size = 4
??4i3ClassMeta@@QAEAAV0@ABV0@@Z PROC			; i3ClassMeta::operator=, COMDAT
; _this$ = ecx
  00000	55		 push	 ebp
  00001	8b ec		 mov	 ebp, esp
  00003	8b 55 08	 mov	 edx, DWORD PTR ___that$[ebp]
  00006	8b 42 04	 mov	 eax, DWORD PTR [edx+4]
  00009	89 41 04	 mov	 DWORD PTR [ecx+4], eax
  0000c	8b 42 08	 mov	 eax, DWORD PTR [edx+8]
  0000f	89 41 08	 mov	 DWORD PTR [ecx+8], eax
  00012	8b 42 0c	 mov	 eax, DWORD PTR [edx+12]
  00015	89 41 0c	 mov	 DWORD PTR [ecx+12], eax
  00018	8b 42 10	 mov	 eax, DWORD PTR [edx+16]
  0001b	89 41 10	 mov	 DWORD PTR [ecx+16], eax
  0001e	8b 42 14	 mov	 eax, DWORD PTR [edx+20]
  00021	89 41 14	 mov	 DWORD PTR [ecx+20], eax
  00024	8b 42 18	 mov	 eax, DWORD PTR [edx+24]
  00027	89 41 18	 mov	 DWORD PTR [ecx+24], eax
  0002a	8b 42 1c	 mov	 eax, DWORD PTR [edx+28]
  0002d	89 41 1c	 mov	 DWORD PTR [ecx+28], eax
  00030	8b 42 20	 mov	 eax, DWORD PTR [edx+32]
  00033	89 41 20	 mov	 DWORD PTR [ecx+32], eax
  00036	8b 42 24	 mov	 eax, DWORD PTR [edx+36]
  00039	89 41 24	 mov	 DWORD PTR [ecx+36], eax
  0003c	8b 42 28	 mov	 eax, DWORD PTR [edx+40]
  0003f	89 41 28	 mov	 DWORD PTR [ecx+40], eax
  00042	8b 42 2c	 mov	 eax, DWORD PTR [edx+44]
  00045	89 41 2c	 mov	 DWORD PTR [ecx+44], eax
  00048	8b 42 30	 mov	 eax, DWORD PTR [edx+48]
  0004b	89 41 30	 mov	 DWORD PTR [ecx+48], eax
  0004e	8b 42 34	 mov	 eax, DWORD PTR [edx+52]
  00051	89 41 34	 mov	 DWORD PTR [ecx+52], eax
  00054	8b c1		 mov	 eax, ecx
  00056	5d		 pop	 ebp
  00057	c2 04 00	 ret	 4
??4i3ClassMeta@@QAEAAV0@ABV0@@Z ENDP			; i3ClassMeta::operator=
_TEXT	ENDS
; Function compile flags: /Ogtp
;	COMDAT ??0i3ClassMeta@@QAE@ABV0@@Z
_TEXT	SEGMENT
___that$ = 8						; size = 4
??0i3ClassMeta@@QAE@ABV0@@Z PROC			; i3ClassMeta::i3ClassMeta, COMDAT
; _this$ = ecx
  00000	55		 push	 ebp
  00001	8b ec		 mov	 ebp, esp
  00003	8b 55 08	 mov	 edx, DWORD PTR ___that$[ebp]
  00006	c7 01 00 00 00
	00		 mov	 DWORD PTR [ecx], OFFSET ??_7i3ClassMeta@@6B@
  0000c	8b 42 04	 mov	 eax, DWORD PTR [edx+4]
  0000f	89 41 04	 mov	 DWORD PTR [ecx+4], eax
  00012	8b 42 08	 mov	 eax, DWORD PTR [edx+8]
  00015	89 41 08	 mov	 DWORD PTR [ecx+8], eax
  00018	8b 42 0c	 mov	 eax, DWORD PTR [edx+12]
  0001b	89 41 0c	 mov	 DWORD PTR [ecx+12], eax
  0001e	8b 42 10	 mov	 eax, DWORD PTR [edx+16]
  00021	89 41 10	 mov	 DWORD PTR [ecx+16], eax
  00024	8b 42 14	 mov	 eax, DWORD PTR [edx+20]
  00027	89 41 14	 mov	 DWORD PTR [ecx+20], eax
  0002a	8b 42 18	 mov	 eax, DWORD PTR [edx+24]
  0002d	89 41 18	 mov	 DWORD PTR [ecx+24], eax
  00030	8b 42 1c	 mov	 eax, DWORD PTR [edx+28]
  00033	89 41 1c	 mov	 DWORD PTR [ecx+28], eax
  00036	8b 42 20	 mov	 eax, DWORD PTR [edx+32]
  00039	89 41 20	 mov	 DWORD PTR [ecx+32], eax
  0003c	8b 42 24	 mov	 eax, DWORD PTR [edx+36]
  0003f	89 41 24	 mov	 DWORD PTR [ecx+36], eax
  00042	8b 42 28	 mov	 eax, DWORD PTR [edx+40]
  00045	89 41 28	 mov	 DWORD PTR [ecx+40], eax
  00048	8b 42 2c	 mov	 eax, DWORD PTR [edx+44]
  0004b	89 41 2c	 mov	 DWORD PTR [ecx+44], eax
  0004e	8b 42 30	 mov	 eax, DWORD PTR [edx+48]
  00051	89 41 30	 mov	 DWORD PTR [ecx+48], eax
  00054	8b 42 34	 mov	 eax, DWORD PTR [edx+52]
  00057	89 41 34	 mov	 DWORD PTR [ecx+52], eax
  0005a	8b c1		 mov	 eax, ecx
  0005c	5d		 pop	 ebp
  0005d	c2 04 00	 ret	 4
??0i3ClassMeta@@QAE@ABV0@@Z ENDP			; i3ClassMeta::i3ClassMeta
_TEXT	ENDS
; Function compile flags: /Ogtp
; File E:\Proyectos\JuegosOnlineproyectos\PB\pbblow\Piercing Blow Remake\i3Server\include\i3Base\i3ClassMeta.h
;	COMDAT ?getHashCode@i3ClassMeta@@QAEIXZ
_TEXT	SEGMENT
?getHashCode@i3ClassMeta@@QAEIXZ PROC			; i3ClassMeta::getHashCode, COMDAT
; _this$ = ecx

; 112  : 	UINT32			getHashCode(void)						{ return m_HashCode; }

  00000	8b 41 18	 mov	 eax, DWORD PTR [ecx+24]
  00003	c3		 ret	 0
?getHashCode@i3ClassMeta@@QAEIXZ ENDP			; i3ClassMeta::getHashCode
_TEXT	ENDS
; Function compile flags: /Ogtp
; File E:\Proyectos\JuegosOnlineproyectos\PB\pbblow\Piercing Blow Remake\i3Server\include\i3Base\i3ClassMeta.h
;	COMDAT ?GetBaseClassMeta@i3ClassMeta@@QAEPAV1@XZ
_TEXT	SEGMENT
?GetBaseClassMeta@i3ClassMeta@@QAEPAV1@XZ PROC		; i3ClassMeta::GetBaseClassMeta, COMDAT
; _this$ = ecx

; 107  : 	i3ClassMeta *	GetBaseClassMeta(void)					{ return m_pBaseClass; }

  00000	8b 41 1c	 mov	 eax, DWORD PTR [ecx+28]
  00003	c3		 ret	 0
?GetBaseClassMeta@i3ClassMeta@@QAEPAV1@XZ ENDP		; i3ClassMeta::GetBaseClassMeta
_TEXT	ENDS
; Function compile flags: /Ogtp
; File E:\Proyectos\JuegosOnlineproyectos\PB\pbblow\Piercing Blow Remake\i3Server\include\i3Base\i3ClassMeta.h
;	COMDAT ?IsConcreteClass@i3ClassMeta@@QAEHXZ
_TEXT	SEGMENT
?IsConcreteClass@i3ClassMeta@@QAEHXZ PROC		; i3ClassMeta::IsConcreteClass, COMDAT
; _this$ = ecx

; 102  : 	BOOL			IsStyle( UINT32 style)					{ return (m_Style & style) == style; }

  00000	8b 41 14	 mov	 eax, DWORD PTR [ecx+20]
  00003	d1 e8		 shr	 eax, 1
  00005	83 e0 01	 and	 eax, 1

; 105  : 	BOOL			IsConcreteClass(void)					{ return IsStyle( I3_CLASSMETA_STYLE_CONCRETE); }

  00008	c3		 ret	 0
?IsConcreteClass@i3ClassMeta@@QAEHXZ ENDP		; i3ClassMeta::IsConcreteClass
_TEXT	ENDS
; Function compile flags: /Ogtp
; File E:\Proyectos\JuegosOnlineproyectos\PB\pbblow\Piercing Blow Remake\i3Server\include\i3Base\i3ClassMeta.h
;	COMDAT ?IsAbstractClass@i3ClassMeta@@QAEHXZ
_TEXT	SEGMENT
?IsAbstractClass@i3ClassMeta@@QAEHXZ PROC		; i3ClassMeta::IsAbstractClass, COMDAT
; _this$ = ecx

; 102  : 	BOOL			IsStyle( UINT32 style)					{ return (m_Style & style) == style; }

  00000	8b 41 14	 mov	 eax, DWORD PTR [ecx+20]
  00003	83 e0 01	 and	 eax, 1

; 104  : 	BOOL			IsAbstractClass(void)					{ return IsStyle( I3_CLASSMETA_STYLE_ABSTRACT); }

  00006	c3		 ret	 0
?IsAbstractClass@i3ClassMeta@@QAEHXZ ENDP		; i3ClassMeta::IsAbstractClass
_TEXT	ENDS
; Function compile flags: /Ogtp
; File E:\Proyectos\JuegosOnlineproyectos\PB\pbblow\Piercing Blow Remake\i3Server\include\i3Base\i3ClassMeta.h
;	COMDAT ?IsStyle@i3ClassMeta@@QAEHI@Z
_TEXT	SEGMENT
_style$ = 8						; size = 4
?IsStyle@i3ClassMeta@@QAEHI@Z PROC			; i3ClassMeta::IsStyle, COMDAT
; _this$ = ecx

; 102  : 	BOOL			IsStyle( UINT32 style)					{ return (m_Style & style) == style; }

  00000	55		 push	 ebp
  00001	8b ec		 mov	 ebp, esp
  00003	8b 51 14	 mov	 edx, DWORD PTR [ecx+20]
  00006	33 c0		 xor	 eax, eax
  00008	23 55 08	 and	 edx, DWORD PTR _style$[ebp]
  0000b	3b 55 08	 cmp	 edx, DWORD PTR _style$[ebp]
  0000e	0f 94 c0	 sete	 al
  00011	5d		 pop	 ebp
  00012	c2 04 00	 ret	 4
?IsStyle@i3ClassMeta@@QAEHI@Z ENDP			; i3ClassMeta::IsStyle
_TEXT	ENDS
; Function compile flags: /Ogtp
; File E:\Proyectos\JuegosOnlineproyectos\PB\pbblow\Piercing Blow Remake\i3Server\include\i3Base\i3ClassMeta.h
;	COMDAT ?RemoveStyle@i3ClassMeta@@QAEXI@Z
_TEXT	SEGMENT
_style$ = 8						; size = 4
?RemoveStyle@i3ClassMeta@@QAEXI@Z PROC			; i3ClassMeta::RemoveStyle, COMDAT
; _this$ = ecx

; 101  : 	void			RemoveStyle( UINT32 style)				{ m_Style &= ~style; }

  00000	55		 push	 ebp
  00001	8b ec		 mov	 ebp, esp
  00003	8b 45 08	 mov	 eax, DWORD PTR _style$[ebp]
  00006	f7 d0		 not	 eax
  00008	21 41 14	 and	 DWORD PTR [ecx+20], eax
  0000b	5d		 pop	 ebp
  0000c	c2 04 00	 ret	 4
?RemoveStyle@i3ClassMeta@@QAEXI@Z ENDP			; i3ClassMeta::RemoveStyle
_TEXT	ENDS
; Function compile flags: /Ogtp
; File E:\Proyectos\JuegosOnlineproyectos\PB\pbblow\Piercing Blow Remake\i3Server\include\i3Base\i3ClassMeta.h
;	COMDAT ?AddStyle@i3ClassMeta@@QAEXI@Z
_TEXT	SEGMENT
_style$ = 8						; size = 4
?AddStyle@i3ClassMeta@@QAEXI@Z PROC			; i3ClassMeta::AddStyle, COMDAT
; _this$ = ecx

; 100  : 	void			AddStyle( UINT32 style)					{ m_Style |= style; }

  00000	55		 push	 ebp
  00001	8b ec		 mov	 ebp, esp
  00003	8b 45 08	 mov	 eax, DWORD PTR _style$[ebp]
  00006	09 41 14	 or	 DWORD PTR [ecx+20], eax
  00009	5d		 pop	 ebp
  0000a	c2 04 00	 ret	 4
?AddStyle@i3ClassMeta@@QAEXI@Z ENDP			; i3ClassMeta::AddStyle
_TEXT	ENDS
; Function compile flags: /Ogtp
; File E:\Proyectos\JuegosOnlineproyectos\PB\pbblow\Piercing Blow Remake\i3Server\include\i3Base\i3ClassMeta.h
;	COMDAT ?GetStyle@i3ClassMeta@@QAEIXZ
_TEXT	SEGMENT
?GetStyle@i3ClassMeta@@QAEIXZ PROC			; i3ClassMeta::GetStyle, COMDAT
; _this$ = ecx

; 99   : 	UINT32			GetStyle(void)							{ return m_Style; }

  00000	8b 41 14	 mov	 eax, DWORD PTR [ecx+20]
  00003	c3		 ret	 0
?GetStyle@i3ClassMeta@@QAEIXZ ENDP			; i3ClassMeta::GetStyle
_TEXT	ENDS
; Function compile flags: /Ogtp
; File E:\Proyectos\JuegosOnlineproyectos\PB\pbblow\Piercing Blow Remake\i3Server\include\i3Base\i3ClassMeta.h
;	COMDAT ?SetStyle@i3ClassMeta@@QAEXI@Z
_TEXT	SEGMENT
_style$ = 8						; size = 4
?SetStyle@i3ClassMeta@@QAEXI@Z PROC			; i3ClassMeta::SetStyle, COMDAT
; _this$ = ecx

; 98   : 	void			SetStyle( UINT32 style)					{ m_Style = style; }

  00000	55		 push	 ebp
  00001	8b ec		 mov	 ebp, esp
  00003	8b 45 08	 mov	 eax, DWORD PTR _style$[ebp]
  00006	89 41 14	 mov	 DWORD PTR [ecx+20], eax
  00009	5d		 pop	 ebp
  0000a	c2 04 00	 ret	 4
?SetStyle@i3ClassMeta@@QAEXI@Z ENDP			; i3ClassMeta::SetStyle
_TEXT	ENDS
; Function compile flags: /Ogtp
; File E:\Proyectos\JuegosOnlineproyectos\PB\pbblow\Piercing Blow Remake\i3Server\include\i3Base\i3ClassMeta.h
;	COMDAT ?IsExactTypeOf@i3ClassMeta@@QAE_NPAV1@@Z
_TEXT	SEGMENT
_pMeta$ = 8						; size = 4
?IsExactTypeOf@i3ClassMeta@@QAE_NPAV1@@Z PROC		; i3ClassMeta::IsExactTypeOf, COMDAT
; _this$ = ecx

; 89   : 	{

  00000	55		 push	 ebp
  00001	8b ec		 mov	 ebp, esp

; 90   : 		return pMeta == this;

  00003	39 4d 08	 cmp	 DWORD PTR _pMeta$[ebp], ecx
  00006	0f 94 c0	 sete	 al

; 91   : 	}

  00009	5d		 pop	 ebp
  0000a	c2 04 00	 ret	 4
?IsExactTypeOf@i3ClassMeta@@QAE_NPAV1@@Z ENDP		; i3ClassMeta::IsExactTypeOf
_TEXT	ENDS
; Function compile flags: /Ogtp
; File E:\Proyectos\JuegosOnlineproyectos\PB\pbblow\Piercing Blow Remake\i3Server\include\i3Base\i3ClassMeta.h
;	COMDAT ?GetClassNameA@i3ClassMeta@@QAEPADXZ
_TEXT	SEGMENT
?GetClassNameA@i3ClassMeta@@QAEPADXZ PROC		; i3ClassMeta::GetClassNameA, COMDAT
; _this$ = ecx

; 83   : 		return m_pszClassName;

  00000	8b 41 0c	 mov	 eax, DWORD PTR [ecx+12]

; 84   : 	}

  00003	c3		 ret	 0
?GetClassNameA@i3ClassMeta@@QAEPADXZ ENDP		; i3ClassMeta::GetClassNameA
_TEXT	ENDS
; Function compile flags: /Ogtp
; File E:\Proyectos\JuegosOnlineproyectos\PB\pbblow\Piercing Blow Remake\i3Server\include\i3Base\i3ClassMeta.h
;	COMDAT ?GetClassSize@i3ClassMeta@@QAEIXZ
_TEXT	SEGMENT
?GetClassSize@i3ClassMeta@@QAEIXZ PROC			; i3ClassMeta::GetClassSize, COMDAT
; _this$ = ecx

; 78   : 		return m_ClassSize;

  00000	8b 41 08	 mov	 eax, DWORD PTR [ecx+8]

; 79   : 	}

  00003	c3		 ret	 0
?GetClassSize@i3ClassMeta@@QAEIXZ ENDP			; i3ClassMeta::GetClassSize
_TEXT	ENDS
; Function compile flags: /Ogtp
; File E:\Proyectos\JuegosOnlineproyectos\PB\pbblow\Piercing Blow Remake\i3Server\include\i3Base\i3ClassMeta.h
;	COMDAT ?SetMemoryPool@i3ClassMeta@@QAEXPAVi3MemoryPool@@@Z
_TEXT	SEGMENT
_pPool$ = 8						; size = 4
?SetMemoryPool@i3ClassMeta@@QAEXPAVi3MemoryPool@@@Z PROC ; i3ClassMeta::SetMemoryPool, COMDAT
; _this$ = ecx

; 66   : 	void			SetMemoryPool( i3MemoryPool * pPool)		{ m_pPool = pPool; }

  00000	55		 push	 ebp
  00001	8b ec		 mov	 ebp, esp
  00003	8b 45 08	 mov	 eax, DWORD PTR _pPool$[ebp]
  00006	89 41 34	 mov	 DWORD PTR [ecx+52], eax
  00009	5d		 pop	 ebp
  0000a	c2 04 00	 ret	 4
?SetMemoryPool@i3ClassMeta@@QAEXPAVi3MemoryPool@@@Z ENDP ; i3ClassMeta::SetMemoryPool
_TEXT	ENDS
; Function compile flags: /Ogtp
; File E:\Proyectos\JuegosOnlineproyectos\PB\pbblow\Piercing Blow Remake\i3Server\include\i3Base\i3ClassMeta.h
;	COMDAT ?GetMemoryPool@i3ClassMeta@@QAEPAVi3MemoryPool@@XZ
_TEXT	SEGMENT
?GetMemoryPool@i3ClassMeta@@QAEPAVi3MemoryPool@@XZ PROC	; i3ClassMeta::GetMemoryPool, COMDAT
; _this$ = ecx

; 65   : 	i3MemoryPool *	GetMemoryPool(void)							{ return m_pPool; }

  00000	8b 41 34	 mov	 eax, DWORD PTR [ecx+52]
  00003	c3		 ret	 0
?GetMemoryPool@i3ClassMeta@@QAEPAVi3MemoryPool@@XZ ENDP	; i3ClassMeta::GetMemoryPool
_TEXT	ENDS
; Function compile flags: /Ogtp
; File C:\Program Files (x86)\Windows Kits\10\Include\10.0.26100.0\ucrt\stdio.h
;	COMDAT _sprintf
_TEXT	SEGMENT
__Buffer$ = 8						; size = 4
__Format$ = 12						; size = 4
_sprintf PROC						; COMDAT

; 1771 :     {

  00000	55		 push	 ebp
  00001	8b ec		 mov	 ebp, esp

; 1392 :         int const _Result = __stdio_common_vsprintf(

  00003	8d 45 10	 lea	 eax, DWORD PTR __Format$[ebp+4]
  00006	50		 push	 eax
  00007	6a 00		 push	 0
  00009	ff 75 0c	 push	 DWORD PTR __Format$[ebp]
  0000c	6a ff		 push	 -1
  0000e	ff 75 08	 push	 DWORD PTR __Buffer$[ebp]
  00011	e8 00 00 00 00	 call	 ___local_stdio_printf_options
  00016	8b 08		 mov	 ecx, DWORD PTR [eax]
  00018	ff 70 04	 push	 DWORD PTR [eax+4]
  0001b	83 c9 01	 or	 ecx, 1
  0001e	51		 push	 ecx
  0001f	e8 00 00 00 00	 call	 ___stdio_common_vsprintf

; 1393 :             _CRT_INTERNAL_LOCAL_PRINTF_OPTIONS | _CRT_INTERNAL_PRINTF_LEGACY_VSPRINTF_NULL_TERMINATION,
; 1394 :             _Buffer, _BufferCount, _Format, _Locale, _ArgList);
; 1395 : 
; 1396 :         return _Result < 0 ? -1 : _Result;

  00024	83 c9 ff	 or	 ecx, -1
  00027	83 c4 1c	 add	 esp, 28			; 0000001cH
  0002a	85 c0		 test	 eax, eax
  0002c	0f 48 c1	 cmovs	 eax, ecx

; 1772 :         int _Result;
; 1773 :         va_list _ArgList;
; 1774 :         __crt_va_start(_ArgList, _Format);
; 1775 : 
; 1776 :         _Result = _vsprintf_l(_Buffer, _Format, NULL, _ArgList);
; 1777 : 
; 1778 :         __crt_va_end(_ArgList);
; 1779 :         return _Result;
; 1780 :     }

  0002f	5d		 pop	 ebp
  00030	c3		 ret	 0
_sprintf ENDP
_TEXT	ENDS
; Function compile flags: /Ogtp
; File C:\Program Files (x86)\Windows Kits\10\Include\10.0.26100.0\ucrt\corecrt_stdio_config.h
;	COMDAT ___local_stdio_printf_options
_TEXT	SEGMENT
___local_stdio_printf_options PROC			; COMDAT

; 91   :         static unsigned __int64 _OptionsStorage;
; 92   :         return &_OptionsStorage;

  00000	b8 00 00 00 00	 mov	 eax, OFFSET ?_OptionsStorage@?1??__local_stdio_printf_options@@9@4_KA ; `__local_stdio_printf_options'::`2'::_OptionsStorage

; 93   :     }

  00005	c3		 ret	 0
___local_stdio_printf_options ENDP
_TEXT	ENDS
; Function compile flags: /Ogtp
; File E:\Proyectos\JuegosOnlineproyectos\PB\pbblow\Piercing Blow Remake\i3Server\src\i3Base\i3NetworkFTP.cpp
;	COMDAT ?__global_array_delete@@YAXPAXI@Z
_TEXT	SEGMENT
_p$ = 8							; size = 4
_sz$ = 12						; size = 4
?__global_array_delete@@YAXPAXI@Z PROC			; __global_array_delete, COMDAT

  00000	e9 00 00 00 00	 jmp	 ??_V@YAXPAXI@Z		; operator delete[]
?__global_array_delete@@YAXPAXI@Z ENDP			; __global_array_delete
_TEXT	ENDS
; Function compile flags: /Ogtp
; File E:\Proyectos\JuegosOnlineproyectos\PB\pbblow\Piercing Blow Remake\i3Server\src\i3Base\i3NetworkFTP.cpp
;	COMDAT ?__global_array_delete@@YAXPAX@Z
_TEXT	SEGMENT
_p$ = 8							; size = 4
?__global_array_delete@@YAXPAX@Z PROC			; __global_array_delete, COMDAT

  00000	e9 00 00 00 00	 jmp	 ??_V@YAXPAX@Z		; operator delete[]
?__global_array_delete@@YAXPAX@Z ENDP			; __global_array_delete
_TEXT	ENDS
; Function compile flags: /Ogtp
; File E:\Proyectos\JuegosOnlineproyectos\PB\pbblow\Piercing Blow Remake\i3Server\src\i3Base\i3NetworkFTP.cpp
;	COMDAT ?__global_delete@@YAXPAXI@Z
_TEXT	SEGMENT
_p$ = 8							; size = 4
_sz$ = 12						; size = 4
?__global_delete@@YAXPAXI@Z PROC			; __global_delete, COMDAT

  00000	e9 00 00 00 00	 jmp	 ??3@YAXPAXI@Z		; operator delete
?__global_delete@@YAXPAXI@Z ENDP			; __global_delete
_TEXT	ENDS
; Function compile flags: /Ogtp
; File E:\Proyectos\JuegosOnlineproyectos\PB\pbblow\Piercing Blow Remake\i3Server\src\i3Base\i3NetworkFTP.cpp
;	COMDAT ?__empty_global_delete@@YAXPAXI@Z
_TEXT	SEGMENT
___formal$ = 8						; size = 4
___formal$ = 12						; size = 4
?__empty_global_delete@@YAXPAXI@Z PROC			; __empty_global_delete, COMDAT

  00000	c2 00 00	 ret	 0
?__empty_global_delete@@YAXPAXI@Z ENDP			; __empty_global_delete
_TEXT	ENDS
; Function compile flags: /Ogtp
; File E:\Proyectos\JuegosOnlineproyectos\PB\pbblow\Piercing Blow Remake\i3Server\src\i3Base\i3NetworkFTP.cpp
;	COMDAT ?__global_delete@@YAXPAX@Z
_TEXT	SEGMENT
_p$ = 8							; size = 4
?__global_delete@@YAXPAX@Z PROC				; __global_delete, COMDAT

  00000	e9 00 00 00 00	 jmp	 ??3@YAXPAX@Z		; operator delete
?__global_delete@@YAXPAX@Z ENDP				; __global_delete
_TEXT	ENDS
; Function compile flags: /Ogtp
; File E:\Proyectos\JuegosOnlineproyectos\PB\pbblow\Piercing Blow Remake\i3Server\src\i3Base\i3NetworkFTP.cpp
;	COMDAT ?__empty_global_delete@@YAXPAX@Z
_TEXT	SEGMENT
___formal$ = 8						; size = 4
?__empty_global_delete@@YAXPAX@Z PROC			; __empty_global_delete, COMDAT

  00000	c2 00 00	 ret	 0
?__empty_global_delete@@YAXPAX@Z ENDP			; __empty_global_delete
_TEXT	ENDS
END
