; Listing generated by Microsoft (R) Optimizing Compiler Version 19.50.35727.0 

	TITLE	E:\Proyectos\JuegosOnlineproyectos\PB\pbblow\Piercing Blow Remake\i3Server\Project\I3_DX\i3Server\x86\Release\i3NetworkHTTP.obj
	.686P
	.XMM
	include listing.inc
	.model	flat

INCLUDELIB LIBCMT
INCLUDELIB OLDNAMES

PUBLIC	?s_pClassMetai3NetworkHTTP@i3NetworkHTTP@@2PAVi3ClassMeta@@A ; i3NetworkHTTP::s_pClassMetai3NetworkHTTP
PUBLIC	?CreateInstance@?$i3MetaTemplate@Vi3NetworkHTTP@@@@UAEPAVi3ElementBase@@W4I3_CLASSMETA_TYPE@@@Z ; i3MetaTemplate<i3NetworkHTTP>::CreateInstance
PUBLIC	?BindInstance@?$i3MetaTemplate@Vi3NetworkHTTP@@@@UAEPAVi3ElementBase@@PAXW4I3_CLASSMETA_TYPE@@@Z ; i3MetaTemplate<i3NetworkHTTP>::BindInstance
PUBLIC	??_7?$i3MetaTemplate@Vi3NetworkHTTP@@@@6B@	; i3MetaTemplate<i3NetworkHTTP>::`vftable'
PUBLIC	??_G?$i3MetaTemplate@Vi3NetworkHTTP@@@@UAEPAXI@Z ; i3MetaTemplate<i3NetworkHTTP>::`scalar deleting destructor'
PUBLIC	??_C@_0O@OCDFBOHM@i3ElementBase@		; `string'
PUBLIC	??_C@_0O@MICAHOBD@i3NetworkHTTP@		; `string'
PUBLIC	??_R0?AVi3ClassMeta@@@8				; i3ClassMeta `RTTI Type Descriptor'
PUBLIC	??_R3i3ClassMeta@@8				; i3ClassMeta::`RTTI Class Hierarchy Descriptor'
PUBLIC	??_R2i3ClassMeta@@8				; i3ClassMeta::`RTTI Base Class Array'
PUBLIC	??_R1A@?0A@EA@i3ClassMeta@@8			; i3ClassMeta::`RTTI Base Class Descriptor at (0,-1,0,64)'
PUBLIC	??_R4?$i3MetaTemplate@Vi3NetworkHTTP@@@@6B@	; i3MetaTemplate<i3NetworkHTTP>::`RTTI Complete Object Locator'
PUBLIC	??_R0?AV?$i3MetaTemplate@Vi3NetworkHTTP@@@@@8	; i3MetaTemplate<i3NetworkHTTP> `RTTI Type Descriptor'
PUBLIC	??_R3?$i3MetaTemplate@Vi3NetworkHTTP@@@@8	; i3MetaTemplate<i3NetworkHTTP>::`RTTI Class Hierarchy Descriptor'
PUBLIC	??_R2?$i3MetaTemplate@Vi3NetworkHTTP@@@@8	; i3MetaTemplate<i3NetworkHTTP>::`RTTI Base Class Array'
PUBLIC	??_R1A@?0A@EA@?$i3MetaTemplate@Vi3NetworkHTTP@@@@8 ; i3MetaTemplate<i3NetworkHTTP>::`RTTI Base Class Descriptor at (0,-1,0,64)'
PUBLIC	__Avx2WmemEnabledWeakValue
EXTRN	??_7type_info@@6B@:QWORD			; type_info::`vftable'
EXTRN	??_E?$i3MetaTemplate@Vi3NetworkHTTP@@@@UAEPAXI@Z:PROC ; i3MetaTemplate<i3NetworkHTTP>::`vector deleting destructor'
;	COMDAT __Avx2WmemEnabledWeakValue
_BSS	SEGMENT
__Avx2WmemEnabledWeakValue DD 01H DUP (?)
_BSS	ENDS
;	COMDAT ??_R1A@?0A@EA@?$i3MetaTemplate@Vi3NetworkHTTP@@@@8
rdata$r	SEGMENT
??_R1A@?0A@EA@?$i3MetaTemplate@Vi3NetworkHTTP@@@@8 DD FLAT:??_R0?AV?$i3MetaTemplate@Vi3NetworkHTTP@@@@@8 ; i3MetaTemplate<i3NetworkHTTP>::`RTTI Base Class Descriptor at (0,-1,0,64)'
	DD	01H
	DD	00H
	DD	0ffffffffH
	DD	00H
	DD	040H
	DD	FLAT:??_R3?$i3MetaTemplate@Vi3NetworkHTTP@@@@8
rdata$r	ENDS
;	COMDAT ??_R2?$i3MetaTemplate@Vi3NetworkHTTP@@@@8
rdata$r	SEGMENT
??_R2?$i3MetaTemplate@Vi3NetworkHTTP@@@@8 DD FLAT:??_R1A@?0A@EA@?$i3MetaTemplate@Vi3NetworkHTTP@@@@8 ; i3MetaTemplate<i3NetworkHTTP>::`RTTI Base Class Array'
	DD	FLAT:??_R1A@?0A@EA@i3ClassMeta@@8
rdata$r	ENDS
;	COMDAT ??_R3?$i3MetaTemplate@Vi3NetworkHTTP@@@@8
rdata$r	SEGMENT
??_R3?$i3MetaTemplate@Vi3NetworkHTTP@@@@8 DD 00H	; i3MetaTemplate<i3NetworkHTTP>::`RTTI Class Hierarchy Descriptor'
	DD	00H
	DD	02H
	DD	FLAT:??_R2?$i3MetaTemplate@Vi3NetworkHTTP@@@@8
rdata$r	ENDS
;	COMDAT ??_R0?AV?$i3MetaTemplate@Vi3NetworkHTTP@@@@@8
data$rs	SEGMENT
??_R0?AV?$i3MetaTemplate@Vi3NetworkHTTP@@@@@8 DD FLAT:??_7type_info@@6B@ ; i3MetaTemplate<i3NetworkHTTP> `RTTI Type Descriptor'
	DD	00H
	DB	'.?AV?$i3MetaTemplate@Vi3NetworkHTTP@@@@', 00H
data$rs	ENDS
;	COMDAT ??_R4?$i3MetaTemplate@Vi3NetworkHTTP@@@@6B@
rdata$r	SEGMENT
??_R4?$i3MetaTemplate@Vi3NetworkHTTP@@@@6B@ DD 00H	; i3MetaTemplate<i3NetworkHTTP>::`RTTI Complete Object Locator'
	DD	00H
	DD	00H
	DD	FLAT:??_R0?AV?$i3MetaTemplate@Vi3NetworkHTTP@@@@@8
	DD	FLAT:??_R3?$i3MetaTemplate@Vi3NetworkHTTP@@@@8
rdata$r	ENDS
;	COMDAT ??_R1A@?0A@EA@i3ClassMeta@@8
rdata$r	SEGMENT
??_R1A@?0A@EA@i3ClassMeta@@8 DD FLAT:??_R0?AVi3ClassMeta@@@8 ; i3ClassMeta::`RTTI Base Class Descriptor at (0,-1,0,64)'
	DD	00H
	DD	00H
	DD	0ffffffffH
	DD	00H
	DD	040H
	DD	FLAT:??_R3i3ClassMeta@@8
rdata$r	ENDS
;	COMDAT ??_R2i3ClassMeta@@8
rdata$r	SEGMENT
??_R2i3ClassMeta@@8 DD FLAT:??_R1A@?0A@EA@i3ClassMeta@@8 ; i3ClassMeta::`RTTI Base Class Array'
rdata$r	ENDS
;	COMDAT ??_R3i3ClassMeta@@8
rdata$r	SEGMENT
??_R3i3ClassMeta@@8 DD 00H				; i3ClassMeta::`RTTI Class Hierarchy Descriptor'
	DD	00H
	DD	01H
	DD	FLAT:??_R2i3ClassMeta@@8
rdata$r	ENDS
;	COMDAT ??_R0?AVi3ClassMeta@@@8
data$rs	SEGMENT
??_R0?AVi3ClassMeta@@@8 DD FLAT:??_7type_info@@6B@	; i3ClassMeta `RTTI Type Descriptor'
	DD	00H
	DB	'.?AVi3ClassMeta@@', 00H
data$rs	ENDS
;	COMDAT ??_C@_0O@MICAHOBD@i3NetworkHTTP@
CONST	SEGMENT
??_C@_0O@MICAHOBD@i3NetworkHTTP@ DB 'i3NetworkHTTP', 00H ; `string'
CONST	ENDS
;	COMDAT ??_C@_0O@OCDFBOHM@i3ElementBase@
CONST	SEGMENT
??_C@_0O@OCDFBOHM@i3ElementBase@ DB 'i3ElementBase', 00H ; `string'
CONST	ENDS
;	COMDAT ??_7?$i3MetaTemplate@Vi3NetworkHTTP@@@@6B@
CONST	SEGMENT
??_7?$i3MetaTemplate@Vi3NetworkHTTP@@@@6B@ DD FLAT:??_R4?$i3MetaTemplate@Vi3NetworkHTTP@@@@6B@ ; i3MetaTemplate<i3NetworkHTTP>::`vftable'
	DD	FLAT:??_E?$i3MetaTemplate@Vi3NetworkHTTP@@@@UAEPAXI@Z
	DD	FLAT:?CreateInstance@?$i3MetaTemplate@Vi3NetworkHTTP@@@@UAEPAVi3ElementBase@@W4I3_CLASSMETA_TYPE@@@Z
	DD	FLAT:?BindInstance@?$i3MetaTemplate@Vi3NetworkHTTP@@@@UAEPAVi3ElementBase@@PAXW4I3_CLASSMETA_TYPE@@@Z
CONST	ENDS
_DATA	SEGMENT
?s_pClassMetai3NetworkHTTP@i3NetworkHTTP@@2PAVi3ClassMeta@@A DD FLAT:?s_ClassMetai3NetworkHTTP@@3V?$i3MetaTemplate@Vi3NetworkHTTP@@@@A ; i3NetworkHTTP::s_pClassMetai3NetworkHTTP
_DATA	ENDS
PUBLIC	?__empty_global_delete@@YAXPAX@Z		; __empty_global_delete
PUBLIC	?__global_delete@@YAXPAX@Z			; __global_delete
PUBLIC	?__empty_global_delete@@YAXPAXI@Z		; __empty_global_delete
PUBLIC	?__global_delete@@YAXPAXI@Z			; __global_delete
PUBLIC	?__global_array_delete@@YAXPAX@Z		; __global_array_delete
PUBLIC	?__global_array_delete@@YAXPAXI@Z		; __global_array_delete
PUBLIC	??0UINT128@@QAE@XZ				; UINT128::UINT128
PUBLIC	?GetMemoryPool@i3ClassMeta@@QAEPAVi3MemoryPool@@XZ ; i3ClassMeta::GetMemoryPool
PUBLIC	?SetMemoryPool@i3ClassMeta@@QAEXPAVi3MemoryPool@@@Z ; i3ClassMeta::SetMemoryPool
PUBLIC	?GetClassSize@i3ClassMeta@@QAEIXZ		; i3ClassMeta::GetClassSize
PUBLIC	?GetClassNameA@i3ClassMeta@@QAEPADXZ		; i3ClassMeta::GetClassNameA
PUBLIC	?IsExactTypeOf@i3ClassMeta@@QAE_NPAV1@@Z	; i3ClassMeta::IsExactTypeOf
PUBLIC	?SetStyle@i3ClassMeta@@QAEXI@Z			; i3ClassMeta::SetStyle
PUBLIC	?GetStyle@i3ClassMeta@@QAEIXZ			; i3ClassMeta::GetStyle
PUBLIC	?AddStyle@i3ClassMeta@@QAEXI@Z			; i3ClassMeta::AddStyle
PUBLIC	?RemoveStyle@i3ClassMeta@@QAEXI@Z		; i3ClassMeta::RemoveStyle
PUBLIC	?IsStyle@i3ClassMeta@@QAEHI@Z			; i3ClassMeta::IsStyle
PUBLIC	?IsAbstractClass@i3ClassMeta@@QAEHXZ		; i3ClassMeta::IsAbstractClass
PUBLIC	?IsConcreteClass@i3ClassMeta@@QAEHXZ		; i3ClassMeta::IsConcreteClass
PUBLIC	?GetBaseClassMeta@i3ClassMeta@@QAEPAV1@XZ	; i3ClassMeta::GetBaseClassMeta
PUBLIC	?getHashCode@i3ClassMeta@@QAEIXZ		; i3ClassMeta::getHashCode
PUBLIC	??0i3ClassMeta@@QAE@ABV0@@Z			; i3ClassMeta::i3ClassMeta
PUBLIC	??4i3ClassMeta@@QAEAAV0@ABV0@@Z			; i3ClassMeta::operator=
PUBLIC	??_Gi3ClassMeta@@UAEPAXI@Z			; i3ClassMeta::`scalar deleting destructor'
PUBLIC	??_Ei3ClassMeta@@UAEPAXI@Z			; i3ClassMeta::`vector deleting destructor'
PUBLIC	?GetClassMeta@i3ElementBase@@SAPAVi3ClassMeta@@XZ ; i3ElementBase::GetClassMeta
PUBLIC	?GetRefCount@i3ElementBase@@QAEHXZ		; i3ElementBase::GetRefCount
PUBLIC	?__SetMemoryPool@i3ElementBase@@QAEXPAVi3MemoryPool@@@Z ; i3ElementBase::__SetMemoryPool
PUBLIC	?__GetMemoryPool@i3ElementBase@@QAEPAVi3MemoryPool@@XZ ; i3ElementBase::__GetMemoryPool
PUBLIC	?IsExactTypeOf@i3ElementBase@@QAE_NPAVi3ClassMeta@@@Z ; i3ElementBase::IsExactTypeOf
PUBLIC	?IsTypeOf@i3ElementBase@@QAE_NPAVi3ClassMeta@@@Z ; i3ElementBase::IsTypeOf
PUBLIC	?AddRef@i3ElementBase@@QAEHXZ			; i3ElementBase::AddRef
PUBLIC	?_internal_SetRefCount@i3ElementBase@@QAEXH@Z	; i3ElementBase::_internal_SetRefCount
PUBLIC	??0i3ElementBase@@QAE@ABV0@@Z			; i3ElementBase::i3ElementBase
PUBLIC	??4i3ElementBase@@QAEAAV0@ABV0@@Z		; i3ElementBase::operator=
PUBLIC	??_Gi3ElementBase@@UAEPAXI@Z			; i3ElementBase::`scalar deleting destructor'
PUBLIC	??_Ei3ElementBase@@UAEPAXI@Z			; i3ElementBase::`vector deleting destructor'
PUBLIC	??0i3MemoryPool@@QAE@ABV0@@Z			; i3MemoryPool::i3MemoryPool
PUBLIC	??4i3MemoryPool@@QAEAAV0@ABV0@@Z		; i3MemoryPool::operator=
PUBLIC	??_Gi3MemoryPool@@UAEPAXI@Z			; i3MemoryPool::`scalar deleting destructor'
PUBLIC	??_Ei3MemoryPool@@UAEPAXI@Z			; i3MemoryPool::`vector deleting destructor'
PUBLIC	?GetClassMeta@i3Stream@@SAPAVi3ClassMeta@@XZ	; i3Stream::GetClassMeta
PUBLIC	?GetSize@i3Stream@@QAEIXZ			; i3Stream::GetSize
PUBLIC	?GetLastError@i3Stream@@QAE?AW4STREAMCODE@1@XZ	; i3Stream::GetLastError
PUBLIC	?GetAccessMode@i3Stream@@QAEHXZ			; i3Stream::GetAccessMode
PUBLIC	?GetHandle@i3Stream@@UAEPAXXZ			; i3Stream::GetHandle
PUBLIC	?BeginRecord@i3Stream@@QAEXXZ			; i3Stream::BeginRecord
PUBLIC	?GetRecordSize@i3Stream@@QAEIXZ			; i3Stream::GetRecordSize
PUBLIC	??0i3Stream@@QAE@ABV0@@Z			; i3Stream::i3Stream
PUBLIC	??4i3Stream@@QAEAAV0@ABV0@@Z			; i3Stream::operator=
PUBLIC	??_Gi3Stream@@UAEPAXI@Z				; i3Stream::`scalar deleting destructor'
PUBLIC	??_Ei3Stream@@UAEPAXI@Z				; i3Stream::`vector deleting destructor'
PUBLIC	?GetClassMeta@i3FileStream@@SAPAVi3ClassMeta@@XZ ; i3FileStream::GetClassMeta
PUBLIC	?GetHandle@i3FileStream@@UAEPAXXZ		; i3FileStream::GetHandle
PUBLIC	?GetFileName@i3FileStream@@QAEPADXZ		; i3FileStream::GetFileName
PUBLIC	?SetCaseSensitive@i3FileStream@@SAXH@Z		; i3FileStream::SetCaseSensitive
PUBLIC	?IsCaseSensitive@i3FileStream@@SAHXZ		; i3FileStream::IsCaseSensitive
PUBLIC	??0i3FileStream@@QAE@ABV0@@Z			; i3FileStream::i3FileStream
PUBLIC	??4i3FileStream@@QAEAAV0@ABV0@@Z		; i3FileStream::operator=
PUBLIC	??_Gi3FileStream@@UAEPAXI@Z			; i3FileStream::`scalar deleting destructor'
PUBLIC	??_Ei3FileStream@@UAEPAXI@Z			; i3FileStream::`vector deleting destructor'
PUBLIC	??0TiXmlString@@QAE@XZ				; TiXmlString::TiXmlString
PUBLIC	??0TiXmlString@@QAE@ABV0@@Z			; TiXmlString::TiXmlString
PUBLIC	??0TiXmlString@@QAE@PBD@Z			; TiXmlString::TiXmlString
PUBLIC	??0TiXmlString@@QAE@PBDI@Z			; TiXmlString::TiXmlString
PUBLIC	??1TiXmlString@@QAE@XZ				; TiXmlString::~TiXmlString
PUBLIC	??4TiXmlString@@QAEAAV0@PBD@Z			; TiXmlString::operator=
PUBLIC	??4TiXmlString@@QAEAAV0@ABV0@@Z			; TiXmlString::operator=
PUBLIC	??YTiXmlString@@QAEAAV0@PBD@Z			; TiXmlString::operator+=
PUBLIC	??YTiXmlString@@QAEAAV0@D@Z			; TiXmlString::operator+=
PUBLIC	??YTiXmlString@@QAEAAV0@ABV0@@Z			; TiXmlString::operator+=
PUBLIC	?c_str@TiXmlString@@QBEPBDXZ			; TiXmlString::c_str
PUBLIC	?data@TiXmlString@@QBEPBDXZ			; TiXmlString::data
PUBLIC	?length@TiXmlString@@QBEIXZ			; TiXmlString::length
PUBLIC	?size@TiXmlString@@QBEIXZ			; TiXmlString::size
PUBLIC	?empty@TiXmlString@@QBE_NXZ			; TiXmlString::empty
PUBLIC	?capacity@TiXmlString@@QBEIXZ			; TiXmlString::capacity
PUBLIC	?at@TiXmlString@@QBEABDI@Z			; TiXmlString::at
PUBLIC	??ATiXmlString@@QBEAADI@Z			; TiXmlString::operator[]
PUBLIC	?find@TiXmlString@@QBEID@Z			; TiXmlString::find
PUBLIC	?find@TiXmlString@@QBEIDI@Z			; TiXmlString::find
PUBLIC	?clear@TiXmlString@@QAEXXZ			; TiXmlString::clear
PUBLIC	?swap@TiXmlString@@QAEXAAV1@@Z			; TiXmlString::swap
PUBLIC	?init@TiXmlString@@AAEXI@Z			; TiXmlString::init
PUBLIC	?set_size@TiXmlString@@AAEXI@Z			; TiXmlString::set_size
PUBLIC	?start@TiXmlString@@ABEPADXZ			; TiXmlString::start
PUBLIC	?finish@TiXmlString@@ABEPADXZ			; TiXmlString::finish
PUBLIC	?init@TiXmlString@@AAEXII@Z			; TiXmlString::init
PUBLIC	?quit@TiXmlString@@AAEXXZ			; TiXmlString::quit
PUBLIC	??0TiXmlCursor@@QAE@XZ				; TiXmlCursor::TiXmlCursor
PUBLIC	?Clear@TiXmlCursor@@QAEXXZ			; TiXmlCursor::Clear
PUBLIC	??4TiXmlCursor@@QAEAAU0@ABU0@@Z			; TiXmlCursor::operator=
PUBLIC	??4TiXmlCursor@@QAEAAU0@$$QAU0@@Z		; TiXmlCursor::operator=
PUBLIC	??1TiXmlVisitor@@UAE@XZ				; TiXmlVisitor::~TiXmlVisitor
PUBLIC	?VisitEnter@TiXmlVisitor@@UAE_NABVTiXmlDocument@@@Z ; TiXmlVisitor::VisitEnter
PUBLIC	?VisitExit@TiXmlVisitor@@UAE_NABVTiXmlDocument@@@Z ; TiXmlVisitor::VisitExit
PUBLIC	?VisitEnter@TiXmlVisitor@@UAE_NABVTiXmlElement@@PBVTiXmlAttribute@@@Z ; TiXmlVisitor::VisitEnter
PUBLIC	?VisitExit@TiXmlVisitor@@UAE_NABVTiXmlElement@@@Z ; TiXmlVisitor::VisitExit
PUBLIC	?Visit@TiXmlVisitor@@UAE_NABVTiXmlDeclaration@@@Z ; TiXmlVisitor::Visit
PUBLIC	?Visit@TiXmlVisitor@@UAE_NABVTiXmlText@@@Z	; TiXmlVisitor::Visit
PUBLIC	?Visit@TiXmlVisitor@@UAE_NABVTiXmlComment@@@Z	; TiXmlVisitor::Visit
PUBLIC	?Visit@TiXmlVisitor@@UAE_NABVTiXmlUnknown@@@Z	; TiXmlVisitor::Visit
PUBLIC	??0TiXmlVisitor@@QAE@XZ				; TiXmlVisitor::TiXmlVisitor
PUBLIC	??0TiXmlVisitor@@QAE@ABV0@@Z			; TiXmlVisitor::TiXmlVisitor
PUBLIC	??4TiXmlVisitor@@QAEAAV0@ABV0@@Z		; TiXmlVisitor::operator=
PUBLIC	??_GTiXmlVisitor@@UAEPAXI@Z			; TiXmlVisitor::`scalar deleting destructor'
PUBLIC	??_ETiXmlVisitor@@UAEPAXI@Z			; TiXmlVisitor::`vector deleting destructor'
PUBLIC	??0TiXmlBase@@QAE@XZ				; TiXmlBase::TiXmlBase
PUBLIC	??1TiXmlBase@@UAE@XZ				; TiXmlBase::~TiXmlBase
PUBLIC	?SetCondenseWhiteSpace@TiXmlBase@@SAX_N@Z	; TiXmlBase::SetCondenseWhiteSpace
PUBLIC	?IsWhiteSpaceCondensed@TiXmlBase@@SA_NXZ	; TiXmlBase::IsWhiteSpaceCondensed
PUBLIC	?Row@TiXmlBase@@QBEHXZ				; TiXmlBase::Row
PUBLIC	?Column@TiXmlBase@@QBEHXZ			; TiXmlBase::Column
PUBLIC	?SetUserData@TiXmlBase@@QAEXPAX@Z		; TiXmlBase::SetUserData
PUBLIC	?GetUserData@TiXmlBase@@QAEPAXXZ		; TiXmlBase::GetUserData
PUBLIC	?GetUserData@TiXmlBase@@QBEPBXXZ		; TiXmlBase::GetUserData
PUBLIC	?IsWhiteSpace@TiXmlBase@@KA_ND@Z		; TiXmlBase::IsWhiteSpace
PUBLIC	?IsWhiteSpace@TiXmlBase@@KA_NH@Z		; TiXmlBase::IsWhiteSpace
PUBLIC	?GetChar@TiXmlBase@@KAPBDPBDPADPAHW4TiXmlEncoding@@@Z ; TiXmlBase::GetChar
PUBLIC	?ToLower@TiXmlBase@@KAHHW4TiXmlEncoding@@@Z	; TiXmlBase::ToLower
PUBLIC	??_GTiXmlBase@@UAEPAXI@Z			; TiXmlBase::`scalar deleting destructor'
PUBLIC	??_ETiXmlBase@@UAEPAXI@Z			; TiXmlBase::`vector deleting destructor'
PUBLIC	?Value@TiXmlNode@@QBEPBDXZ			; TiXmlNode::Value
PUBLIC	?ValueTStr@TiXmlNode@@QBEABVTiXmlString@@XZ	; TiXmlNode::ValueTStr
PUBLIC	?SetValue@TiXmlNode@@QAEXPBD@Z			; TiXmlNode::SetValue
PUBLIC	?Parent@TiXmlNode@@QAEPAV1@XZ			; TiXmlNode::Parent
PUBLIC	?Parent@TiXmlNode@@QBEPBV1@XZ			; TiXmlNode::Parent
PUBLIC	?FirstChild@TiXmlNode@@QBEPBV1@XZ		; TiXmlNode::FirstChild
PUBLIC	?FirstChild@TiXmlNode@@QAEPAV1@XZ		; TiXmlNode::FirstChild
PUBLIC	?FirstChild@TiXmlNode@@QAEPAV1@PBD@Z		; TiXmlNode::FirstChild
PUBLIC	?LastChild@TiXmlNode@@QBEPBV1@XZ		; TiXmlNode::LastChild
PUBLIC	?LastChild@TiXmlNode@@QAEPAV1@XZ		; TiXmlNode::LastChild
PUBLIC	?LastChild@TiXmlNode@@QAEPAV1@PBD@Z		; TiXmlNode::LastChild
PUBLIC	?IterateChildren@TiXmlNode@@QAEPAV1@PBV1@@Z	; TiXmlNode::IterateChildren
PUBLIC	?IterateChildren@TiXmlNode@@QAEPAV1@PBDPBV1@@Z	; TiXmlNode::IterateChildren
PUBLIC	?PreviousSibling@TiXmlNode@@QBEPBV1@XZ		; TiXmlNode::PreviousSibling
PUBLIC	?PreviousSibling@TiXmlNode@@QAEPAV1@XZ		; TiXmlNode::PreviousSibling
PUBLIC	?PreviousSibling@TiXmlNode@@QAEPAV1@PBD@Z	; TiXmlNode::PreviousSibling
PUBLIC	?NextSibling@TiXmlNode@@QBEPBV1@XZ		; TiXmlNode::NextSibling
PUBLIC	?NextSibling@TiXmlNode@@QAEPAV1@XZ		; TiXmlNode::NextSibling
PUBLIC	?NextSibling@TiXmlNode@@QAEPAV1@PBD@Z		; TiXmlNode::NextSibling
PUBLIC	?NextSiblingElement@TiXmlNode@@QAEPAVTiXmlElement@@XZ ; TiXmlNode::NextSiblingElement
PUBLIC	?NextSiblingElement@TiXmlNode@@QAEPAVTiXmlElement@@PBD@Z ; TiXmlNode::NextSiblingElement
PUBLIC	?FirstChildElement@TiXmlNode@@QAEPAVTiXmlElement@@XZ ; TiXmlNode::FirstChildElement
PUBLIC	?FirstChildElement@TiXmlNode@@QAEPAVTiXmlElement@@PBD@Z ; TiXmlNode::FirstChildElement
PUBLIC	?Type@TiXmlNode@@QBEHXZ				; TiXmlNode::Type
PUBLIC	?GetDocument@TiXmlNode@@QAEPAVTiXmlDocument@@XZ	; TiXmlNode::GetDocument
PUBLIC	?NoChildren@TiXmlNode@@QBE_NXZ			; TiXmlNode::NoChildren
PUBLIC	?ToDocument@TiXmlNode@@UBEPBVTiXmlDocument@@XZ	; TiXmlNode::ToDocument
PUBLIC	?ToElement@TiXmlNode@@UBEPBVTiXmlElement@@XZ	; TiXmlNode::ToElement
PUBLIC	?ToComment@TiXmlNode@@UBEPBVTiXmlComment@@XZ	; TiXmlNode::ToComment
PUBLIC	?ToUnknown@TiXmlNode@@UBEPBVTiXmlUnknown@@XZ	; TiXmlNode::ToUnknown
PUBLIC	?ToText@TiXmlNode@@UBEPBVTiXmlText@@XZ		; TiXmlNode::ToText
PUBLIC	?ToDeclaration@TiXmlNode@@UBEPBVTiXmlDeclaration@@XZ ; TiXmlNode::ToDeclaration
PUBLIC	?ToDocument@TiXmlNode@@UAEPAVTiXmlDocument@@XZ	; TiXmlNode::ToDocument
PUBLIC	?ToElement@TiXmlNode@@UAEPAVTiXmlElement@@XZ	; TiXmlNode::ToElement
PUBLIC	?ToComment@TiXmlNode@@UAEPAVTiXmlComment@@XZ	; TiXmlNode::ToComment
PUBLIC	?ToUnknown@TiXmlNode@@UAEPAVTiXmlUnknown@@XZ	; TiXmlNode::ToUnknown
PUBLIC	?ToText@TiXmlNode@@UAEPAVTiXmlText@@XZ		; TiXmlNode::ToText
PUBLIC	?ToDeclaration@TiXmlNode@@UAEPAVTiXmlDeclaration@@XZ ; TiXmlNode::ToDeclaration
PUBLIC	??0TiXmlAttribute@@QAE@XZ			; TiXmlAttribute::TiXmlAttribute
PUBLIC	??0TiXmlAttribute@@QAE@PBD0@Z			; TiXmlAttribute::TiXmlAttribute
PUBLIC	?Name@TiXmlAttribute@@QBEPBDXZ			; TiXmlAttribute::Name
PUBLIC	?Value@TiXmlAttribute@@QBEPBDXZ			; TiXmlAttribute::Value
PUBLIC	?NameTStr@TiXmlAttribute@@QBEABVTiXmlString@@XZ	; TiXmlAttribute::NameTStr
PUBLIC	?SetName@TiXmlAttribute@@QAEXPBD@Z		; TiXmlAttribute::SetName
PUBLIC	?SetValue@TiXmlAttribute@@QAEXPBD@Z		; TiXmlAttribute::SetValue
PUBLIC	?Next@TiXmlAttribute@@QAEPAV1@XZ		; TiXmlAttribute::Next
PUBLIC	?Previous@TiXmlAttribute@@QAEPAV1@XZ		; TiXmlAttribute::Previous
PUBLIC	??8TiXmlAttribute@@QBE_NABV0@@Z			; TiXmlAttribute::operator==
PUBLIC	??MTiXmlAttribute@@QBE_NABV0@@Z			; TiXmlAttribute::operator<
PUBLIC	??OTiXmlAttribute@@QBE_NABV0@@Z			; TiXmlAttribute::operator>
PUBLIC	?Print@TiXmlAttribute@@UBEXPAVi3FileStream@@H@Z	; TiXmlAttribute::Print
PUBLIC	?SetDocument@TiXmlAttribute@@QAEXPAVTiXmlDocument@@@Z ; TiXmlAttribute::SetDocument
PUBLIC	??1TiXmlAttribute@@UAE@XZ			; TiXmlAttribute::~TiXmlAttribute
PUBLIC	??_GTiXmlAttribute@@UAEPAXI@Z			; TiXmlAttribute::`scalar deleting destructor'
PUBLIC	??_ETiXmlAttribute@@UAEPAXI@Z			; TiXmlAttribute::`vector deleting destructor'
PUBLIC	?First@TiXmlAttributeSet@@QBEPBVTiXmlAttribute@@XZ ; TiXmlAttributeSet::First
PUBLIC	?First@TiXmlAttributeSet@@QAEPAVTiXmlAttribute@@XZ ; TiXmlAttributeSet::First
PUBLIC	?Last@TiXmlAttributeSet@@QBEPBVTiXmlAttribute@@XZ ; TiXmlAttributeSet::Last
PUBLIC	?Last@TiXmlAttributeSet@@QAEPAVTiXmlAttribute@@XZ ; TiXmlAttributeSet::Last
PUBLIC	?Find@TiXmlAttributeSet@@QAEPAVTiXmlAttribute@@PBD@Z ; TiXmlAttributeSet::Find
PUBLIC	?QueryFloatAttribute@TiXmlElement@@QBEHPBDPAM@Z	; TiXmlElement::QueryFloatAttribute
PUBLIC	?FirstAttribute@TiXmlElement@@QBEPBVTiXmlAttribute@@XZ ; TiXmlElement::FirstAttribute
PUBLIC	?FirstAttribute@TiXmlElement@@QAEPAVTiXmlAttribute@@XZ ; TiXmlElement::FirstAttribute
PUBLIC	?LastAttribute@TiXmlElement@@QBEPBVTiXmlAttribute@@XZ ; TiXmlElement::LastAttribute
PUBLIC	?LastAttribute@TiXmlElement@@QAEPAVTiXmlAttribute@@XZ ; TiXmlElement::LastAttribute
PUBLIC	?ToElement@TiXmlElement@@UBEPBV1@XZ		; TiXmlElement::ToElement
PUBLIC	?ToElement@TiXmlElement@@UAEPAV1@XZ		; TiXmlElement::ToElement
PUBLIC	??0TiXmlComment@@QAE@XZ				; TiXmlComment::TiXmlComment
PUBLIC	??0TiXmlComment@@QAE@PBD@Z			; TiXmlComment::TiXmlComment
PUBLIC	??1TiXmlComment@@UAE@XZ				; TiXmlComment::~TiXmlComment
PUBLIC	?ToComment@TiXmlComment@@UBEPBV1@XZ		; TiXmlComment::ToComment
PUBLIC	?ToComment@TiXmlComment@@UAEPAV1@XZ		; TiXmlComment::ToComment
PUBLIC	??_GTiXmlComment@@UAEPAXI@Z			; TiXmlComment::`scalar deleting destructor'
PUBLIC	??_ETiXmlComment@@UAEPAXI@Z			; TiXmlComment::`vector deleting destructor'
PUBLIC	??0TiXmlText@@QAE@PBD@Z				; TiXmlText::TiXmlText
PUBLIC	??1TiXmlText@@UAE@XZ				; TiXmlText::~TiXmlText
PUBLIC	??0TiXmlText@@QAE@ABV0@@Z			; TiXmlText::TiXmlText
PUBLIC	??4TiXmlText@@QAEXABV0@@Z			; TiXmlText::operator=
PUBLIC	?CDATA@TiXmlText@@QBE_NXZ			; TiXmlText::CDATA
PUBLIC	?SetCDATA@TiXmlText@@QAEX_N@Z			; TiXmlText::SetCDATA
PUBLIC	?ToText@TiXmlText@@UBEPBV1@XZ			; TiXmlText::ToText
PUBLIC	?ToText@TiXmlText@@UAEPAV1@XZ			; TiXmlText::ToText
PUBLIC	??_GTiXmlText@@UAEPAXI@Z			; TiXmlText::`scalar deleting destructor'
PUBLIC	??_ETiXmlText@@UAEPAXI@Z			; TiXmlText::`vector deleting destructor'
PUBLIC	??0TiXmlDeclaration@@QAE@XZ			; TiXmlDeclaration::TiXmlDeclaration
PUBLIC	??1TiXmlDeclaration@@UAE@XZ			; TiXmlDeclaration::~TiXmlDeclaration
PUBLIC	?Version@TiXmlDeclaration@@QBEPBDXZ		; TiXmlDeclaration::Version
PUBLIC	?Encoding@TiXmlDeclaration@@QBEPBDXZ		; TiXmlDeclaration::Encoding
PUBLIC	?Standalone@TiXmlDeclaration@@QBEPBDXZ		; TiXmlDeclaration::Standalone
PUBLIC	?Print@TiXmlDeclaration@@UBEXPAVi3FileStream@@H@Z ; TiXmlDeclaration::Print
PUBLIC	?ToDeclaration@TiXmlDeclaration@@UBEPBV1@XZ	; TiXmlDeclaration::ToDeclaration
PUBLIC	?ToDeclaration@TiXmlDeclaration@@UAEPAV1@XZ	; TiXmlDeclaration::ToDeclaration
PUBLIC	??_GTiXmlDeclaration@@UAEPAXI@Z			; TiXmlDeclaration::`scalar deleting destructor'
PUBLIC	??_ETiXmlDeclaration@@UAEPAXI@Z			; TiXmlDeclaration::`vector deleting destructor'
PUBLIC	??0TiXmlUnknown@@QAE@XZ				; TiXmlUnknown::TiXmlUnknown
PUBLIC	??1TiXmlUnknown@@UAE@XZ				; TiXmlUnknown::~TiXmlUnknown
PUBLIC	??0TiXmlUnknown@@QAE@ABV0@@Z			; TiXmlUnknown::TiXmlUnknown
PUBLIC	??4TiXmlUnknown@@QAEXABV0@@Z			; TiXmlUnknown::operator=
PUBLIC	?ToUnknown@TiXmlUnknown@@UBEPBV1@XZ		; TiXmlUnknown::ToUnknown
PUBLIC	?ToUnknown@TiXmlUnknown@@UAEPAV1@XZ		; TiXmlUnknown::ToUnknown
PUBLIC	??_GTiXmlUnknown@@UAEPAXI@Z			; TiXmlUnknown::`scalar deleting destructor'
PUBLIC	??_ETiXmlUnknown@@UAEPAXI@Z			; TiXmlUnknown::`vector deleting destructor'
PUBLIC	??1TiXmlDocument@@UAE@XZ			; TiXmlDocument::~TiXmlDocument
PUBLIC	?RootElement@TiXmlDocument@@QBEPBVTiXmlElement@@XZ ; TiXmlDocument::RootElement
PUBLIC	?RootElement@TiXmlDocument@@QAEPAVTiXmlElement@@XZ ; TiXmlDocument::RootElement
PUBLIC	?Error@TiXmlDocument@@QBE_NXZ			; TiXmlDocument::Error
PUBLIC	?ErrorDesc@TiXmlDocument@@QBEPBDXZ		; TiXmlDocument::ErrorDesc
PUBLIC	?ErrorId@TiXmlDocument@@QBEHXZ			; TiXmlDocument::ErrorId
PUBLIC	?ErrorRow@TiXmlDocument@@QBEHXZ			; TiXmlDocument::ErrorRow
PUBLIC	?ErrorCol@TiXmlDocument@@QBEHXZ			; TiXmlDocument::ErrorCol
PUBLIC	?SetTabSize@TiXmlDocument@@QAEXH@Z		; TiXmlDocument::SetTabSize
PUBLIC	?TabSize@TiXmlDocument@@QBEHXZ			; TiXmlDocument::TabSize
PUBLIC	?ClearError@TiXmlDocument@@QAEXXZ		; TiXmlDocument::ClearError
PUBLIC	?ToDocument@TiXmlDocument@@UBEPBV1@XZ		; TiXmlDocument::ToDocument
PUBLIC	?ToDocument@TiXmlDocument@@UAEPAV1@XZ		; TiXmlDocument::ToDocument
PUBLIC	?GetSize@TiXmlDocument@@QAEIXZ			; TiXmlDocument::GetSize
PUBLIC	??_GTiXmlDocument@@UAEPAXI@Z			; TiXmlDocument::`scalar deleting destructor'
PUBLIC	??_ETiXmlDocument@@UAEPAXI@Z			; TiXmlDocument::`vector deleting destructor'
PUBLIC	??0TiXmlHandle@@QAE@PAVTiXmlNode@@@Z		; TiXmlHandle::TiXmlHandle
PUBLIC	??0TiXmlHandle@@QAE@ABV0@@Z			; TiXmlHandle::TiXmlHandle
PUBLIC	??4TiXmlHandle@@QAE?AV0@ABV0@@Z			; TiXmlHandle::operator=
PUBLIC	?ToNode@TiXmlHandle@@QBEPAVTiXmlNode@@XZ	; TiXmlHandle::ToNode
PUBLIC	?ToElement@TiXmlHandle@@QBEPAVTiXmlElement@@XZ	; TiXmlHandle::ToElement
PUBLIC	?ToText@TiXmlHandle@@QBEPAVTiXmlText@@XZ	; TiXmlHandle::ToText
PUBLIC	?ToUnknown@TiXmlHandle@@QBEPAVTiXmlUnknown@@XZ	; TiXmlHandle::ToUnknown
PUBLIC	?Node@TiXmlHandle@@QBEPAVTiXmlNode@@XZ		; TiXmlHandle::Node
PUBLIC	?Element@TiXmlHandle@@QBEPAVTiXmlElement@@XZ	; TiXmlHandle::Element
PUBLIC	?Text@TiXmlHandle@@QBEPAVTiXmlText@@XZ		; TiXmlHandle::Text
PUBLIC	?Unknown@TiXmlHandle@@QBEPAVTiXmlUnknown@@XZ	; TiXmlHandle::Unknown
PUBLIC	??0TiXmlPrinter@@QAE@XZ				; TiXmlPrinter::TiXmlPrinter
PUBLIC	?SetIndent@TiXmlPrinter@@QAEXPBD@Z		; TiXmlPrinter::SetIndent
PUBLIC	?Indent@TiXmlPrinter@@QAEPBDXZ			; TiXmlPrinter::Indent
PUBLIC	?SetLineBreak@TiXmlPrinter@@QAEXPBD@Z		; TiXmlPrinter::SetLineBreak
PUBLIC	?LineBreak@TiXmlPrinter@@QAEPBDXZ		; TiXmlPrinter::LineBreak
PUBLIC	?SetStreamPrinting@TiXmlPrinter@@QAEXXZ		; TiXmlPrinter::SetStreamPrinting
PUBLIC	?CStr@TiXmlPrinter@@QAEPBDXZ			; TiXmlPrinter::CStr
PUBLIC	?Size@TiXmlPrinter@@QAEIXZ			; TiXmlPrinter::Size
PUBLIC	?DoIndent@TiXmlPrinter@@AAEXXZ			; TiXmlPrinter::DoIndent
PUBLIC	?DoLineBreak@TiXmlPrinter@@AAEXXZ		; TiXmlPrinter::DoLineBreak
PUBLIC	??1TiXmlPrinter@@UAE@XZ				; TiXmlPrinter::~TiXmlPrinter
PUBLIC	??0TiXmlPrinter@@QAE@ABV0@@Z			; TiXmlPrinter::TiXmlPrinter
PUBLIC	??0TiXmlPrinter@@QAE@$$QAV0@@Z			; TiXmlPrinter::TiXmlPrinter
PUBLIC	??4TiXmlPrinter@@QAEAAV0@ABV0@@Z		; TiXmlPrinter::operator=
PUBLIC	??4TiXmlPrinter@@QAEAAV0@$$QAV0@@Z		; TiXmlPrinter::operator=
PUBLIC	??_GTiXmlPrinter@@UAEPAXI@Z			; TiXmlPrinter::`scalar deleting destructor'
PUBLIC	??_ETiXmlPrinter@@UAEPAXI@Z			; TiXmlPrinter::`vector deleting destructor'
PUBLIC	?addAttr@i3XMLElement@@QAEXPBD0@Z		; i3XMLElement::addAttr
PUBLIC	?addAttr@i3XMLElement@@QAEXPBDH@Z		; i3XMLElement::addAttr
PUBLIC	?addAttr@i3XMLElement@@QAEXPBDI@Z		; i3XMLElement::addAttr
PUBLIC	?addAttr@i3XMLElement@@QAEXPBDM@Z		; i3XMLElement::addAttr
PUBLIC	?addAttr@i3XMLElement@@QAEXPBD_J@Z		; i3XMLElement::addAttr
PUBLIC	?addAttr@i3XMLElement@@QAEXPBD_K@Z		; i3XMLElement::addAttr
PUBLIC	?getAttr@i3XMLElement@@QAEPBDPBD@Z		; i3XMLElement::getAttr
PUBLIC	?getAttr@i3XMLElement@@QAEPBDPBDPAH@Z		; i3XMLElement::getAttr
PUBLIC	?getAttr@i3XMLElement@@QAEPBDPBDPAI@Z		; i3XMLElement::getAttr
PUBLIC	?getAttr@i3XMLElement@@QAEPBDPBDPA_J@Z		; i3XMLElement::getAttr
PUBLIC	?getAttr@i3XMLElement@@QAEPBDPBDPA_K@Z		; i3XMLElement::getAttr
PUBLIC	?getAttr@i3XMLElement@@QAEPBDPBDPAM@Z		; i3XMLElement::getAttr
PUBLIC	?getAttr@i3XMLElement@@QAEPBDPBDPAG@Z		; i3XMLElement::getAttr
PUBLIC	??0i3XMLElement@@QAE@ABV0@@Z			; i3XMLElement::i3XMLElement
PUBLIC	??4i3XMLElement@@QAEAAV0@ABV0@@Z		; i3XMLElement::operator=
PUBLIC	??_Gi3XMLElement@@UAEPAXI@Z			; i3XMLElement::`scalar deleting destructor'
PUBLIC	??_Ei3XMLElement@@UAEPAXI@Z			; i3XMLElement::`vector deleting destructor'
PUBLIC	?GetClassMeta@i3List@@SAPAVi3ClassMeta@@XZ	; i3List::GetClassMeta
PUBLIC	?SetOptmizeEnableWhenClear@i3List@@QAEXH@Z	; i3List::SetOptmizeEnableWhenClear
PUBLIC	?SetOnceMode@i3List@@QAEXH@Z			; i3List::SetOnceMode
PUBLIC	?GetCount@i3List@@QBEHXZ			; i3List::GetCount
PUBLIC	?GetItem@i3List@@QAEPAXH@Z			; i3List::GetItem
PUBLIC	?GetItem@i3List@@QBEPBXH@Z			; i3List::GetItem
PUBLIC	?GetSafeItem@i3List@@QBEPBXH@Z			; i3List::GetSafeItem
PUBLIC	?GetSafeItem@i3List@@QAEPAXH@Z			; i3List::GetSafeItem
PUBLIC	?Find@i3List@@QBEHPAX@Z				; i3List::Find
PUBLIC	?GetFirst@i3List@@QAEPAXXZ			; i3List::GetFirst
PUBLIC	?GetLast@i3List@@QAEPAXXZ			; i3List::GetLast
PUBLIC	?AddFromList@i3List@@QAEXPAV1@@Z		; i3List::AddFromList
PUBLIC	?SafeReleaseAll@i3List@@QAEXXZ			; i3List::SafeReleaseAll
PUBLIC	?SafeFreeAll@i3List@@QAEXXZ			; i3List::SafeFreeAll
PUBLIC	??0i3List@@QAE@ABV0@@Z				; i3List::i3List
PUBLIC	??4i3List@@QAEAAV0@ABV0@@Z			; i3List::operator=
PUBLIC	??_Fi3List@@QAEXXZ				; i3List::`default constructor closure'
PUBLIC	??_Gi3List@@UAEPAXI@Z				; i3List::`scalar deleting destructor'
PUBLIC	??_Ei3List@@UAEPAXI@Z				; i3List::`vector deleting destructor'
PUBLIC	?GetClassMeta@i3StringList@@SAPAVi3ClassMeta@@XZ ; i3StringList::GetClassMeta
PUBLIC	?GetCount@i3StringList@@QBEHXZ			; i3StringList::GetCount
PUBLIC	?GetItem@i3StringList@@QAEPAXH@Z		; i3StringList::GetItem
PUBLIC	?SetItem@i3StringList@@QAEXHPAD@Z		; i3StringList::SetItem
PUBLIC	?Find@i3StringList@@QAEHPAD@Z			; i3StringList::Find
PUBLIC	?GetFirst@i3StringList@@QAEPADXZ		; i3StringList::GetFirst
PUBLIC	?GetLast@i3StringList@@QAEPADXZ			; i3StringList::GetLast
PUBLIC	?GetOnceMode@i3StringList@@QAEHXZ		; i3StringList::GetOnceMode
PUBLIC	?SetOnceMode@i3StringList@@QAEXH@Z		; i3StringList::SetOnceMode
PUBLIC	??0i3StringList@@QAE@ABV0@@Z			; i3StringList::i3StringList
PUBLIC	??4i3StringList@@QAEAAV0@ABV0@@Z		; i3StringList::operator=
PUBLIC	??_Fi3StringList@@QAEXXZ			; i3StringList::`default constructor closure'
PUBLIC	??_Gi3StringList@@UAEPAXI@Z			; i3StringList::`scalar deleting destructor'
PUBLIC	??_Ei3StringList@@UAEPAXI@Z			; i3StringList::`vector deleting destructor'
PUBLIC	?GetClassMeta@i3NetworkHTTP@@SAPAVi3ClassMeta@@XZ ; i3NetworkHTTP::GetClassMeta
PUBLIC	?GetMeta@i3NetworkHTTP@@UAEPAVi3ClassMeta@@XZ	; i3NetworkHTTP::GetMeta
PUBLIC	?RegisterMeta@i3NetworkHTTP@@SAXXZ		; i3NetworkHTTP::RegisterMeta
PUBLIC	?SetConcreteClass@i3NetworkHTTP@@SAXPAVi3ClassMeta@@@Z ; i3NetworkHTTP::SetConcreteClass
PUBLIC	?SetGhostClass@i3NetworkHTTP@@SAXPAVi3ClassMeta@@@Z ; i3NetworkHTTP::SetGhostClass
PUBLIC	?_NewObject@i3NetworkHTTP@@SAPAV1@XZ		; i3NetworkHTTP::_NewObject
PUBLIC	?_NewObjectRef@i3NetworkHTTP@@SAPAV1@XZ		; i3NetworkHTTP::_NewObjectRef
PUBLIC	?_BindObject@i3NetworkHTTP@@SAPAV1@PAX@Z	; i3NetworkHTTP::_BindObject
PUBLIC	?_BindObjectRef@i3NetworkHTTP@@SAPAV1@PAX@Z	; i3NetworkHTTP::_BindObjectRef
PUBLIC	?_NewObjectByType@i3NetworkHTTP@@SAPAV1@W4I3_CLASSMETA_TYPE@@@Z ; i3NetworkHTTP::_NewObjectByType
PUBLIC	?_NewObjectRefByType@i3NetworkHTTP@@SAPAV1@W4I3_CLASSMETA_TYPE@@@Z ; i3NetworkHTTP::_NewObjectRefByType
PUBLIC	?_BindObjectByType@i3NetworkHTTP@@SAPAV1@PAXW4I3_CLASSMETA_TYPE@@@Z ; i3NetworkHTTP::_BindObjectByType
PUBLIC	?_BindObjectRefByType@i3NetworkHTTP@@SAPAV1@PAXW4I3_CLASSMETA_TYPE@@@Z ; i3NetworkHTTP::_BindObjectRefByType
PUBLIC	?_ConnectGET@i3NetworkHTTP@@IAEHPAD@Z		; i3NetworkHTTP::_ConnectGET
PUBLIC	?_ConnectPUT@i3NetworkHTTP@@IAEHPAD@Z		; i3NetworkHTTP::_ConnectPUT
PUBLIC	?_ConnectPOST@i3NetworkHTTP@@IAEHPAD@Z		; i3NetworkHTTP::_ConnectPOST
PUBLIC	?_DisConnectGET@i3NetworkHTTP@@IAEXXZ		; i3NetworkHTTP::_DisConnectGET
PUBLIC	?_DisConnectPUT@i3NetworkHTTP@@IAEXXZ		; i3NetworkHTTP::_DisConnectPUT
PUBLIC	?_DisConnectPOST@i3NetworkHTTP@@IAEXXZ		; i3NetworkHTTP::_DisConnectPOST
PUBLIC	?_CheckType@i3NetworkHTTP@@IAEHPAD@Z		; i3NetworkHTTP::_CheckType
PUBLIC	?getFileSize@i3NetworkHTTP@@QAEIXZ		; i3NetworkHTTP::getFileSize
PUBLIC	?getRecvSize@i3NetworkHTTP@@QAEIXZ		; i3NetworkHTTP::getRecvSize
PUBLIC	??0i3NetworkHTTP@@QAE@XZ			; i3NetworkHTTP::i3NetworkHTTP
PUBLIC	??1i3NetworkHTTP@@UAE@XZ			; i3NetworkHTTP::~i3NetworkHTTP
PUBLIC	?Connect@i3NetworkHTTP@@QAEHPADW4REQUEST_METHOD@1@@Z ; i3NetworkHTTP::Connect
PUBLIC	?IsInternetConnect@i3NetworkHTTP@@QAEHXZ	; i3NetworkHTTP::IsInternetConnect
PUBLIC	?DisConnect@i3NetworkHTTP@@QAEXXZ		; i3NetworkHTTP::DisConnect
PUBLIC	?RecvRequest@i3NetworkHTTP@@QAEHXZ		; i3NetworkHTTP::RecvRequest
PUBLIC	?SendRequestPost@i3NetworkHTTP@@QAEHXZ		; i3NetworkHTTP::SendRequestPost
PUBLIC	?SendRequestGet@i3NetworkHTTP@@QAEHPAD@Z	; i3NetworkHTTP::SendRequestGet
PUBLIC	?GetRequestResult@i3NetworkHTTP@@QAEPADXZ	; i3NetworkHTTP::GetRequestResult
PUBLIC	?ParseURL@i3NetworkHTTP@@QAEXPAD00AAG0@Z	; i3NetworkHTTP::ParseURL
PUBLIC	?ResetArguments@i3NetworkHTTP@@QAEXXZ		; i3NetworkHTTP::ResetArguments
PUBLIC	?AddArgument@i3NetworkHTTP@@QAEHPAD0@Z		; i3NetworkHTTP::AddArgument
PUBLIC	?AddArgument@i3NetworkHTTP@@QAEHPADH@Z		; i3NetworkHTTP::AddArgument
PUBLIC	?AddArgument@i3NetworkHTTP@@QAEHPAD_J@Z		; i3NetworkHTTP::AddArgument
PUBLIC	?AddArgument@i3NetworkHTTP@@QAEHPADK@Z		; i3NetworkHTTP::AddArgument
PUBLIC	?AddArgument@i3NetworkHTTP@@QAEHPADPAEH@Z	; i3NetworkHTTP::AddArgument
PUBLIC	?SetUpPostArguments@i3NetworkHTTP@@QAEXXZ	; i3NetworkHTTP::SetUpPostArguments
PUBLIC	?ConvertMD5@i3NetworkHTTP@@QAEXPAD0@Z		; i3NetworkHTTP::ConvertMD5
PUBLIC	?CreateMethod@i3NetworkHTTP@@QAEXIIIII@Z	; i3NetworkHTTP::CreateMethod
PUBLIC	?Destroy@i3NetworkHTTP@@QAEXXZ			; i3NetworkHTTP::Destroy
PUBLIC	?Cancel@i3NetworkHTTP@@QAEXXZ			; i3NetworkHTTP::Cancel
PUBLIC	?DownStart@i3NetworkHTTP@@QAEHPAD0@Z		; i3NetworkHTTP::DownStart
PUBLIC	?DownFile@i3NetworkHTTP@@QAEHXZ			; i3NetworkHTTP::DownFile
PUBLIC	?GetReadBuffer@i3NetworkHTTP@@QAEPADXZ		; i3NetworkHTTP::GetReadBuffer
PUBLIC	?RestartCheck@i3NetworkHTTP@@QAEHXZ		; i3NetworkHTTP::RestartCheck
PUBLIC	?ReloadCheck@i3NetworkHTTP@@QAEHXZ		; i3NetworkHTTP::ReloadCheck
PUBLIC	?UpStart@i3NetworkHTTP@@QAEHPAD0@Z		; i3NetworkHTTP::UpStart
PUBLIC	?UpFile@i3NetworkHTTP@@QAEHXZ			; i3NetworkHTTP::UpFile
PUBLIC	?CheckFile@i3NetworkHTTP@@QAEHPAD@Z		; i3NetworkHTTP::CheckFile
PUBLIC	?DeleteFileA@i3NetworkHTTP@@QAEHPAD@Z		; i3NetworkHTTP::DeleteFileA
PUBLIC	?GetState@i3NetworkHTTP@@QAEHXZ			; i3NetworkHTTP::GetState
PUBLIC	?GetFileError@i3NetworkHTTP@@QAEHXZ		; i3NetworkHTTP::GetFileError
PUBLIC	?GetLastErrorString@i3NetworkHTTP@@QAEPADXZ	; i3NetworkHTTP::GetLastErrorString
PUBLIC	?GetLastErrorCode@i3NetworkHTTP@@QAEHXZ		; i3NetworkHTTP::GetLastErrorCode
PUBLIC	?GetPostArguments@i3NetworkHTTP@@QAEXPADH@Z	; i3NetworkHTTP::GetPostArguments
PUBLIC	??0i3NetworkHTTP@@QAE@ABV0@@Z			; i3NetworkHTTP::i3NetworkHTTP
PUBLIC	??4i3NetworkHTTP@@QAEAAV0@ABV0@@Z		; i3NetworkHTTP::operator=
PUBLIC	??_Gi3NetworkHTTP@@UAEPAXI@Z			; i3NetworkHTTP::`scalar deleting destructor'
PUBLIC	??_Ei3NetworkHTTP@@UAEPAXI@Z			; i3NetworkHTTP::`vector deleting destructor'
PUBLIC	??0?$i3MetaTemplate@Vi3NetworkHTTP@@@@QAE@IPAD0W4I3_CLASSMETA_TYPE@@@Z ; i3MetaTemplate<i3NetworkHTTP>::i3MetaTemplate<i3NetworkHTTP>
PUBLIC	??_7i3ClassMeta@@6B@				; i3ClassMeta::`vftable'
PUBLIC	??_7i3ElementBase@@6B@				; i3ElementBase::`vftable'
PUBLIC	??_7i3MemoryPool@@6B@				; i3MemoryPool::`vftable'
PUBLIC	??_7i3Stream@@6B@				; i3Stream::`vftable'
PUBLIC	??_7i3FileStream@@6B@				; i3FileStream::`vftable'
PUBLIC	??_7TiXmlVisitor@@6B@				; TiXmlVisitor::`vftable'
PUBLIC	??_7TiXmlBase@@6B@				; TiXmlBase::`vftable'
PUBLIC	??_7TiXmlAttribute@@6B@				; TiXmlAttribute::`vftable'
PUBLIC	??_7TiXmlComment@@6B@				; TiXmlComment::`vftable'
PUBLIC	??_7TiXmlText@@6B@				; TiXmlText::`vftable'
PUBLIC	??_7TiXmlDeclaration@@6B@			; TiXmlDeclaration::`vftable'
PUBLIC	??_7TiXmlUnknown@@6B@				; TiXmlUnknown::`vftable'
PUBLIC	??_7TiXmlDocument@@6B@				; TiXmlDocument::`vftable'
PUBLIC	??_C@_00CNPNBAHC@@				; `string'
PUBLIC	??_7TiXmlPrinter@@6B@				; TiXmlPrinter::`vftable'
PUBLIC	??_C@_04PFOHOKJK@?5?5?5?5@			; `string'
PUBLIC	??_C@_01EEMJAFIK@?6@				; `string'
PUBLIC	??_7i3XMLElement@@6B@				; i3XMLElement::`vftable'
PUBLIC	??_7i3List@@6B@					; i3List::`vftable'
PUBLIC	??_C@_0GD@LNMGNFKI@E?3?2Proyectos?2JuegosOnlineproyec@ ; `string'
PUBLIC	??_7i3StringList@@6B@				; i3StringList::`vftable'
PUBLIC	??_7i3NetworkHTTP@@6B@				; i3NetworkHTTP::`vftable'
PUBLIC	??_C@_0P@GPAIGMIA@I3NETWORK_HTTP@		; `string'
PUBLIC	??_C@_0GI@CPAALLND@E?3?2Proyectos?2JuegosOnlineproyec@ ; `string'
PUBLIC	??_C@_0BF@PJCNEGDJ@Cannot?5open?5internet@	; `string'
PUBLIC	??_C@_0BL@EIHAOHFH@Cannot?5connect?5to?5internet@ ; `string'
PUBLIC	??_C@_03KBBGFLEK@PUT@				; `string'
PUBLIC	??_C@_17MLBOKGLB@?$AA?$CK?$AA?1?$AA?$CK@	; `string'
PUBLIC	??_C@_04HCJEIHPL@POST@				; `string'
PUBLIC	??_C@_0DC@DMFLICKC@Content?9Type?3?5application?1x?9www@ ; `string'
PUBLIC	??_C@_0DB@CPBJMABP@Cannot?5perform?5http?5request?0?5Th@ ; `string'
PUBLIC	??_C@_0EK@PLOICMNN@Cannot?5perform?5http?5request?0?5Th@ ; `string'
PUBLIC	??_C@_0BM@HBGNAEJJ@Cannot?5perform?5http?5request@ ; `string'
PUBLIC	??_C@_0BJ@KELNJPON@Memory?5Exception?5occured@	; `string'
PUBLIC	??_C@_01JLIPDDHJ@?3@				; `string'
PUBLIC	??_C@_01KMDKNFGN@?1@				; `string'
PUBLIC	??_C@_04IAFLKNP@http@				; `string'
PUBLIC	??_C@_05BCHGOAMK@https@				; `string'
PUBLIC	??_C@_03MMIJIMKH@?$CF25@			; `string'
PUBLIC	??_C@_03OHKENPGE@?$CF26@			; `string'
PUBLIC	??_C@_03KMPHGDJG@?$CF2B@			; `string'
PUBLIC	??_C@_02DPKJAMEF@?$CFd@				; `string'
PUBLIC	??_C@_05LLAMLEHD@?$CFI64d@			; `string'
PUBLIC	??_C@_03FKNCMABI@?$CFlu@			; `string'
PUBLIC	??_C@_05MKGBANIN@?$CFs?9?$CFd@			; `string'
PUBLIC	??_C@_01NEMOKFLO@?$DN@				; `string'
PUBLIC	??_C@_01HNPIGOCE@?$CG@				; `string'
PUBLIC	??_R4i3ElementBase@@6B@				; i3ElementBase::`RTTI Complete Object Locator'
PUBLIC	??_R0?AVi3ElementBase@@@8			; i3ElementBase `RTTI Type Descriptor'
PUBLIC	??_R3i3ElementBase@@8				; i3ElementBase::`RTTI Class Hierarchy Descriptor'
PUBLIC	??_R2i3ElementBase@@8				; i3ElementBase::`RTTI Base Class Array'
PUBLIC	??_R1A@?0A@EA@i3ElementBase@@8			; i3ElementBase::`RTTI Base Class Descriptor at (0,-1,0,64)'
PUBLIC	??_R4i3List@@6B@				; i3List::`RTTI Complete Object Locator'
PUBLIC	??_R0?AVi3List@@@8				; i3List `RTTI Type Descriptor'
PUBLIC	??_R3i3List@@8					; i3List::`RTTI Class Hierarchy Descriptor'
PUBLIC	??_R2i3List@@8					; i3List::`RTTI Base Class Array'
PUBLIC	??_R1A@?0A@EA@i3List@@8				; i3List::`RTTI Base Class Descriptor at (0,-1,0,64)'
PUBLIC	??_R4i3MemoryPool@@6B@				; i3MemoryPool::`RTTI Complete Object Locator'
PUBLIC	??_R0?AVi3MemoryPool@@@8			; i3MemoryPool `RTTI Type Descriptor'
PUBLIC	??_R3i3MemoryPool@@8				; i3MemoryPool::`RTTI Class Hierarchy Descriptor'
PUBLIC	??_R2i3MemoryPool@@8				; i3MemoryPool::`RTTI Base Class Array'
PUBLIC	??_R1A@?0A@EA@i3MemoryPool@@8			; i3MemoryPool::`RTTI Base Class Descriptor at (0,-1,0,64)'
PUBLIC	??_R4i3ClassMeta@@6B@				; i3ClassMeta::`RTTI Complete Object Locator'
PUBLIC	??_R4i3StringList@@6B@				; i3StringList::`RTTI Complete Object Locator'
PUBLIC	??_R0?AVi3StringList@@@8			; i3StringList `RTTI Type Descriptor'
PUBLIC	??_R3i3StringList@@8				; i3StringList::`RTTI Class Hierarchy Descriptor'
PUBLIC	??_R2i3StringList@@8				; i3StringList::`RTTI Base Class Array'
PUBLIC	??_R1A@?0A@EA@i3StringList@@8			; i3StringList::`RTTI Base Class Descriptor at (0,-1,0,64)'
PUBLIC	??_R4i3Stream@@6B@				; i3Stream::`RTTI Complete Object Locator'
PUBLIC	??_R0?AVi3Stream@@@8				; i3Stream `RTTI Type Descriptor'
PUBLIC	??_R3i3Stream@@8				; i3Stream::`RTTI Class Hierarchy Descriptor'
PUBLIC	??_R2i3Stream@@8				; i3Stream::`RTTI Base Class Array'
PUBLIC	??_R1A@?0A@EA@i3Stream@@8			; i3Stream::`RTTI Base Class Descriptor at (0,-1,0,64)'
PUBLIC	??_R4i3FileStream@@6B@				; i3FileStream::`RTTI Complete Object Locator'
PUBLIC	??_R0?AVi3FileStream@@@8			; i3FileStream `RTTI Type Descriptor'
PUBLIC	??_R3i3FileStream@@8				; i3FileStream::`RTTI Class Hierarchy Descriptor'
PUBLIC	??_R2i3FileStream@@8				; i3FileStream::`RTTI Base Class Array'
PUBLIC	??_R1A@?0A@EA@i3FileStream@@8			; i3FileStream::`RTTI Base Class Descriptor at (0,-1,0,64)'
PUBLIC	??_R4TiXmlDocument@@6B@				; TiXmlDocument::`RTTI Complete Object Locator'
PUBLIC	??_R0?AVTiXmlDocument@@@8			; TiXmlDocument `RTTI Type Descriptor'
PUBLIC	??_R3TiXmlDocument@@8				; TiXmlDocument::`RTTI Class Hierarchy Descriptor'
PUBLIC	??_R2TiXmlDocument@@8				; TiXmlDocument::`RTTI Base Class Array'
PUBLIC	??_R1A@?0A@EA@TiXmlDocument@@8			; TiXmlDocument::`RTTI Base Class Descriptor at (0,-1,0,64)'
PUBLIC	??_R1A@?0A@EA@TiXmlNode@@8			; TiXmlNode::`RTTI Base Class Descriptor at (0,-1,0,64)'
PUBLIC	??_R0?AVTiXmlNode@@@8				; TiXmlNode `RTTI Type Descriptor'
PUBLIC	??_R3TiXmlNode@@8				; TiXmlNode::`RTTI Class Hierarchy Descriptor'
PUBLIC	??_R2TiXmlNode@@8				; TiXmlNode::`RTTI Base Class Array'
PUBLIC	??_R1A@?0A@EA@TiXmlBase@@8			; TiXmlBase::`RTTI Base Class Descriptor at (0,-1,0,64)'
PUBLIC	??_R0?AVTiXmlBase@@@8				; TiXmlBase `RTTI Type Descriptor'
PUBLIC	??_R3TiXmlBase@@8				; TiXmlBase::`RTTI Class Hierarchy Descriptor'
PUBLIC	??_R2TiXmlBase@@8				; TiXmlBase::`RTTI Base Class Array'
PUBLIC	??_R4TiXmlComment@@6B@				; TiXmlComment::`RTTI Complete Object Locator'
PUBLIC	??_R0?AVTiXmlComment@@@8			; TiXmlComment `RTTI Type Descriptor'
PUBLIC	??_R3TiXmlComment@@8				; TiXmlComment::`RTTI Class Hierarchy Descriptor'
PUBLIC	??_R2TiXmlComment@@8				; TiXmlComment::`RTTI Base Class Array'
PUBLIC	??_R1A@?0A@EA@TiXmlComment@@8			; TiXmlComment::`RTTI Base Class Descriptor at (0,-1,0,64)'
PUBLIC	??_R4TiXmlUnknown@@6B@				; TiXmlUnknown::`RTTI Complete Object Locator'
PUBLIC	??_R0?AVTiXmlUnknown@@@8			; TiXmlUnknown `RTTI Type Descriptor'
PUBLIC	??_R3TiXmlUnknown@@8				; TiXmlUnknown::`RTTI Class Hierarchy Descriptor'
PUBLIC	??_R2TiXmlUnknown@@8				; TiXmlUnknown::`RTTI Base Class Array'
PUBLIC	??_R1A@?0A@EA@TiXmlUnknown@@8			; TiXmlUnknown::`RTTI Base Class Descriptor at (0,-1,0,64)'
PUBLIC	??_R4TiXmlAttribute@@6B@			; TiXmlAttribute::`RTTI Complete Object Locator'
PUBLIC	??_R0?AVTiXmlAttribute@@@8			; TiXmlAttribute `RTTI Type Descriptor'
PUBLIC	??_R3TiXmlAttribute@@8				; TiXmlAttribute::`RTTI Class Hierarchy Descriptor'
PUBLIC	??_R2TiXmlAttribute@@8				; TiXmlAttribute::`RTTI Base Class Array'
PUBLIC	??_R1A@?0A@EA@TiXmlAttribute@@8			; TiXmlAttribute::`RTTI Base Class Descriptor at (0,-1,0,64)'
PUBLIC	??_R4TiXmlText@@6B@				; TiXmlText::`RTTI Complete Object Locator'
PUBLIC	??_R0?AVTiXmlText@@@8				; TiXmlText `RTTI Type Descriptor'
PUBLIC	??_R3TiXmlText@@8				; TiXmlText::`RTTI Class Hierarchy Descriptor'
PUBLIC	??_R2TiXmlText@@8				; TiXmlText::`RTTI Base Class Array'
PUBLIC	??_R1A@?0A@EA@TiXmlText@@8			; TiXmlText::`RTTI Base Class Descriptor at (0,-1,0,64)'
PUBLIC	??_R4TiXmlDeclaration@@6B@			; TiXmlDeclaration::`RTTI Complete Object Locator'
PUBLIC	??_R0?AVTiXmlDeclaration@@@8			; TiXmlDeclaration `RTTI Type Descriptor'
PUBLIC	??_R3TiXmlDeclaration@@8			; TiXmlDeclaration::`RTTI Class Hierarchy Descriptor'
PUBLIC	??_R2TiXmlDeclaration@@8			; TiXmlDeclaration::`RTTI Base Class Array'
PUBLIC	??_R1A@?0A@EA@TiXmlDeclaration@@8		; TiXmlDeclaration::`RTTI Base Class Descriptor at (0,-1,0,64)'
PUBLIC	??_R4TiXmlVisitor@@6B@				; TiXmlVisitor::`RTTI Complete Object Locator'
PUBLIC	??_R0?AVTiXmlVisitor@@@8			; TiXmlVisitor `RTTI Type Descriptor'
PUBLIC	??_R3TiXmlVisitor@@8				; TiXmlVisitor::`RTTI Class Hierarchy Descriptor'
PUBLIC	??_R2TiXmlVisitor@@8				; TiXmlVisitor::`RTTI Base Class Array'
PUBLIC	??_R1A@?0A@EA@TiXmlVisitor@@8			; TiXmlVisitor::`RTTI Base Class Descriptor at (0,-1,0,64)'
PUBLIC	??_R4TiXmlBase@@6B@				; TiXmlBase::`RTTI Complete Object Locator'
PUBLIC	??_R4TiXmlPrinter@@6B@				; TiXmlPrinter::`RTTI Complete Object Locator'
PUBLIC	??_R0?AVTiXmlPrinter@@@8			; TiXmlPrinter `RTTI Type Descriptor'
PUBLIC	??_R3TiXmlPrinter@@8				; TiXmlPrinter::`RTTI Class Hierarchy Descriptor'
PUBLIC	??_R2TiXmlPrinter@@8				; TiXmlPrinter::`RTTI Base Class Array'
PUBLIC	??_R1A@?0A@EA@TiXmlPrinter@@8			; TiXmlPrinter::`RTTI Base Class Descriptor at (0,-1,0,64)'
PUBLIC	??_R4i3XMLElement@@6B@				; i3XMLElement::`RTTI Complete Object Locator'
PUBLIC	??_R0?AVi3XMLElement@@@8			; i3XMLElement `RTTI Type Descriptor'
PUBLIC	??_R3i3XMLElement@@8				; i3XMLElement::`RTTI Class Hierarchy Descriptor'
PUBLIC	??_R2i3XMLElement@@8				; i3XMLElement::`RTTI Base Class Array'
PUBLIC	??_R1A@?0A@EA@i3XMLElement@@8			; i3XMLElement::`RTTI Base Class Descriptor at (0,-1,0,64)'
PUBLIC	??_R1A@?0A@EA@TiXmlElement@@8			; TiXmlElement::`RTTI Base Class Descriptor at (0,-1,0,64)'
PUBLIC	??_R0?AVTiXmlElement@@@8			; TiXmlElement `RTTI Type Descriptor'
PUBLIC	??_R3TiXmlElement@@8				; TiXmlElement::`RTTI Class Hierarchy Descriptor'
PUBLIC	??_R2TiXmlElement@@8				; TiXmlElement::`RTTI Base Class Array'
PUBLIC	??_R4i3NetworkHTTP@@6B@				; i3NetworkHTTP::`RTTI Complete Object Locator'
PUBLIC	??_R0?AVi3NetworkHTTP@@@8			; i3NetworkHTTP `RTTI Type Descriptor'
PUBLIC	??_R3i3NetworkHTTP@@8				; i3NetworkHTTP::`RTTI Class Hierarchy Descriptor'
PUBLIC	??_R2i3NetworkHTTP@@8				; i3NetworkHTTP::`RTTI Base Class Array'
PUBLIC	??_R1A@?0A@EA@i3NetworkHTTP@@8			; i3NetworkHTTP::`RTTI Base Class Descriptor at (0,-1,0,64)'
EXTRN	??_M@YGXPAXIIP6EX0@Z@Z:PROC			; `eh vector destructor iterator'
EXTRN	__purecall:PROC
EXTRN	??3@YAXPAX@Z:PROC				; operator delete
EXTRN	??3@YAXPAXI@Z:PROC				; operator delete
EXTRN	??_U@YAPAXI@Z:PROC				; operator new[]
EXTRN	??_V@YAXPAX@Z:PROC				; operator delete[]
EXTRN	??_V@YAXPAXI@Z:PROC				; operator delete[]
EXTRN	_atexit:PROC
EXTRN	___report_rangecheckfailure:PROC
EXTRN	___std_terminate:PROC
EXTRN	_isspace:PROC
EXTRN	_tolower:PROC
EXTRN	__imp__CreateFileA@28:PROC
EXTRN	__imp__GetFileInformationByHandle@8:PROC
EXTRN	__imp__ReadFile@20:PROC
EXTRN	__imp__WriteFile@20:PROC
EXTRN	__imp__CloseHandle@4:PROC
EXTRN	__imp__GetLastError@0:PROC
EXTRN	__imp__GetTickCount@0:PROC
EXTRN	__imp__InternetOpenA@20:PROC
EXTRN	__imp__InternetCloseHandle@4:PROC
EXTRN	__imp__InternetConnectA@32:PROC
EXTRN	__imp__InternetOpenUrlA@24:PROC
EXTRN	__imp__InternetReadFile@16:PROC
EXTRN	__imp__InternetWriteFile@16:PROC
EXTRN	__imp__InternetQueryDataAvailable@16:PROC
EXTRN	__imp__InternetQueryOptionA@16:PROC
EXTRN	__imp__InternetSetOptionA@16:PROC
EXTRN	__imp__HttpOpenRequestA@32:PROC
EXTRN	__imp__HttpSendRequestA@20:PROC
EXTRN	__imp__InternetAttemptConnect@4:PROC
EXTRN	__imp__InternetGetConnectedState@8:PROC
EXTRN	?AllocTool@i3mem@@YAPAXHHHPBDH@Z:PROC		; i3mem::AllocTool
EXTRN	?FreeTool@i3mem@@YAXPAXPBDH@Z:PROC		; i3mem::FreeTool
EXTRN	??0i3ClassMeta@@QAE@IPAD0W4I3_CLASSMETA_TYPE@@@Z:PROC ; i3ClassMeta::i3ClassMeta
EXTRN	??1i3ClassMeta@@UAE@XZ:PROC			; i3ClassMeta::~i3ClassMeta
EXTRN	?CreateInstance@i3ClassMeta@@UAEPAVi3ElementBase@@W4I3_CLASSMETA_TYPE@@@Z:PROC ; i3ClassMeta::CreateInstance
EXTRN	?BindInstance@i3ClassMeta@@UAEPAVi3ElementBase@@PAXW4I3_CLASSMETA_TYPE@@@Z:PROC ; i3ClassMeta::BindInstance
EXTRN	?IsTypeOf@i3ClassMeta@@QAE_NPAV1@@Z:PROC	; i3ClassMeta::IsTypeOf
EXTRN	?Register@i3ClassMeta@@QAEXXZ:PROC		; i3ClassMeta::Register
EXTRN	?GetConcreteClass@i3ClassMeta@@QAEPAV1@W4I3_CLASSMETA_TYPE@@@Z:PROC ; i3ClassMeta::GetConcreteClass
EXTRN	?SetConcreteClass@i3ClassMeta@@QAEXPAV1@@Z:PROC	; i3ClassMeta::SetConcreteClass
EXTRN	?SetGhostClass@i3ClassMeta@@QAEXPAV1@@Z:PROC	; i3ClassMeta::SetGhostClass
EXTRN	?GetMeta@i3ElementBase@@UAEPAVi3ClassMeta@@XZ:PROC ; i3ElementBase::GetMeta
EXTRN	??0i3ElementBase@@QAE@XZ:PROC			; i3ElementBase::i3ElementBase
EXTRN	??1i3ElementBase@@UAE@XZ:PROC			; i3ElementBase::~i3ElementBase
EXTRN	??2i3ElementBase@@SAPAXI@Z:PROC			; i3ElementBase::operator new
EXTRN	??2i3ElementBase@@SAPAXIPAX@Z:PROC		; i3ElementBase::operator new
EXTRN	??3i3ElementBase@@SAXPAX@Z:PROC			; i3ElementBase::operator delete
EXTRN	??3i3ElementBase@@SAXPAX0@Z:PROC		; i3ElementBase::operator delete
EXTRN	?Release@i3ElementBase@@QAEXXZ:PROC		; i3ElementBase::Release
EXTRN	?CopyTo@i3ElementBase@@UAEXPAV1@W4I3_COPY_METHOD@@@Z:PROC ; i3ElementBase::CopyTo
EXTRN	??1i3MemoryPool@@UAE@XZ:PROC			; i3MemoryPool::~i3MemoryPool
EXTRN	?GetMeta@i3Stream@@UAEPAVi3ClassMeta@@XZ:PROC	; i3Stream::GetMeta
EXTRN	??1i3Stream@@UAE@XZ:PROC			; i3Stream::~i3Stream
EXTRN	?CopyTo@i3Stream@@UAEIPAV1@I@Z:PROC		; i3Stream::CopyTo
EXTRN	?CopyFrom@i3Stream@@UAEIPAV1@I@Z:PROC		; i3Stream::CopyFrom
EXTRN	?ReadLine@i3Stream@@UAEIPADH@Z:PROC		; i3Stream::ReadLine
EXTRN	?ReadLineW@i3Stream@@UAEIPAGH@Z:PROC		; i3Stream::ReadLineW
EXTRN	?WriteLine@i3Stream@@UAEIPBD@Z:PROC		; i3Stream::WriteLine
EXTRN	?WriteLineW@i3Stream@@UAEIPBG@Z:PROC		; i3Stream::WriteLineW
EXTRN	?Printf@i3Stream@@UAAIPADPBDZZ:PROC		; i3Stream::Printf
EXTRN	?GetMeta@i3FileStream@@UAEPAVi3ClassMeta@@XZ:PROC ; i3FileStream::GetMeta
EXTRN	??1i3FileStream@@UAE@XZ:PROC			; i3FileStream::~i3FileStream
EXTRN	?Create@i3FileStream@@UAEHPBDHI@Z:PROC		; i3FileStream::Create
EXTRN	?Open@i3FileStream@@UAEHPBDHI@Z:PROC		; i3FileStream::Open
EXTRN	?Close@i3FileStream@@UAEHXZ:PROC		; i3FileStream::Close
EXTRN	?Read@i3FileStream@@UAEIPAXH@Z:PROC		; i3FileStream::Read
EXTRN	?Write@i3FileStream@@UAEIPBXH@Z:PROC		; i3FileStream::Write
EXTRN	?SetPosition@i3FileStream@@UAEIHH@Z:PROC	; i3FileStream::SetPosition
EXTRN	?GetPosition@i3FileStream@@UAEIXZ:PROC		; i3FileStream::GetPosition
EXTRN	?assign@TiXmlString@@QAEAAV1@PBDI@Z:PROC	; TiXmlString::assign
EXTRN	?append@TiXmlString@@QAEAAV1@PBDI@Z:PROC	; TiXmlString::append
EXTRN	?GetEntity@TiXmlBase@@KAPBDPBDPADPAHW4TiXmlEncoding@@@Z:PROC ; TiXmlBase::GetEntity
EXTRN	??1TiXmlNode@@UAE@XZ:PROC			; TiXmlNode::~TiXmlNode
EXTRN	?FirstChild@TiXmlNode@@QBEPBV1@PBD@Z:PROC	; TiXmlNode::FirstChild
EXTRN	?LastChild@TiXmlNode@@QBEPBV1@PBD@Z:PROC	; TiXmlNode::LastChild
EXTRN	?IterateChildren@TiXmlNode@@QBEPBV1@PBV1@@Z:PROC ; TiXmlNode::IterateChildren
EXTRN	?IterateChildren@TiXmlNode@@QBEPBV1@PBDPBV1@@Z:PROC ; TiXmlNode::IterateChildren
EXTRN	?PreviousSibling@TiXmlNode@@QBEPBV1@PBD@Z:PROC	; TiXmlNode::PreviousSibling
EXTRN	?NextSibling@TiXmlNode@@QBEPBV1@PBD@Z:PROC	; TiXmlNode::NextSibling
EXTRN	?NextSiblingElement@TiXmlNode@@QBEPBVTiXmlElement@@XZ:PROC ; TiXmlNode::NextSiblingElement
EXTRN	?NextSiblingElement@TiXmlNode@@QBEPBVTiXmlElement@@PBD@Z:PROC ; TiXmlNode::NextSiblingElement
EXTRN	?FirstChildElement@TiXmlNode@@QBEPBVTiXmlElement@@XZ:PROC ; TiXmlNode::FirstChildElement
EXTRN	?FirstChildElement@TiXmlNode@@QBEPBVTiXmlElement@@PBD@Z:PROC ; TiXmlNode::FirstChildElement
EXTRN	?GetDocument@TiXmlNode@@QBEPBVTiXmlDocument@@XZ:PROC ; TiXmlNode::GetDocument
EXTRN	??0TiXmlNode@@IAE@W4NodeType@0@@Z:PROC		; TiXmlNode::TiXmlNode
EXTRN	?Next@TiXmlAttribute@@QBEPBV1@XZ:PROC		; TiXmlAttribute::Next
EXTRN	?Previous@TiXmlAttribute@@QBEPBV1@XZ:PROC	; TiXmlAttribute::Previous
EXTRN	?Parse@TiXmlAttribute@@UAEPBDPBDPAVTiXmlParsingData@@W4TiXmlEncoding@@@Z:PROC ; TiXmlAttribute::Parse
EXTRN	?Print@TiXmlAttribute@@QBEXPAVi3FileStream@@HPAVTiXmlString@@@Z:PROC ; TiXmlAttribute::Print
EXTRN	?Find@TiXmlAttributeSet@@QBEPBVTiXmlAttribute@@PBD@Z:PROC ; TiXmlAttributeSet::Find
EXTRN	??0TiXmlElement@@QAE@ABV0@@Z:PROC		; TiXmlElement::TiXmlElement
EXTRN	??4TiXmlElement@@QAEXABV0@@Z:PROC		; TiXmlElement::operator=
EXTRN	?Attribute@TiXmlElement@@QBEPBDPBD@Z:PROC	; TiXmlElement::Attribute
EXTRN	?Attribute@TiXmlElement@@QBEPBDPBDPAH@Z:PROC	; TiXmlElement::Attribute
EXTRN	?AttributeLong@TiXmlElement@@QBEPBDPBDPA_J@Z:PROC ; TiXmlElement::AttributeLong
EXTRN	?Attribute@TiXmlElement@@QBEPBDPBDPAN@Z:PROC	; TiXmlElement::Attribute
EXTRN	?QueryDoubleAttribute@TiXmlElement@@QBEHPBDPAN@Z:PROC ; TiXmlElement::QueryDoubleAttribute
EXTRN	?SetAttribute@TiXmlElement@@QAEXPBD0@Z:PROC	; TiXmlElement::SetAttribute
EXTRN	?SetAttribute@TiXmlElement@@QAEXPBDH@Z:PROC	; TiXmlElement::SetAttribute
EXTRN	?SetLongLongAttribute@TiXmlElement@@QAEXPBD_J@Z:PROC ; TiXmlElement::SetLongLongAttribute
EXTRN	?SetAttribute@TiXmlElement@@QAEXPBDM@Z:PROC	; TiXmlElement::SetAttribute
EXTRN	?Clone@TiXmlElement@@UBEPAVTiXmlNode@@XZ:PROC	; TiXmlElement::Clone
EXTRN	?Print@TiXmlElement@@UBEXPAVi3FileStream@@H@Z:PROC ; TiXmlElement::Print
EXTRN	?Parse@TiXmlElement@@UAEPBDPBDPAVTiXmlParsingData@@W4TiXmlEncoding@@@Z:PROC ; TiXmlElement::Parse
EXTRN	?Accept@TiXmlElement@@UBE_NPAVTiXmlVisitor@@@Z:PROC ; TiXmlElement::Accept
EXTRN	?Clone@TiXmlComment@@UBEPAVTiXmlNode@@XZ:PROC	; TiXmlComment::Clone
EXTRN	?Print@TiXmlComment@@UBEXPAVi3FileStream@@H@Z:PROC ; TiXmlComment::Print
EXTRN	?Parse@TiXmlComment@@UAEPBDPBDPAVTiXmlParsingData@@W4TiXmlEncoding@@@Z:PROC ; TiXmlComment::Parse
EXTRN	?Accept@TiXmlComment@@UBE_NPAVTiXmlVisitor@@@Z:PROC ; TiXmlComment::Accept
EXTRN	?Print@TiXmlText@@UBEXPAVi3FileStream@@H@Z:PROC	; TiXmlText::Print
EXTRN	?Parse@TiXmlText@@UAEPBDPBDPAVTiXmlParsingData@@W4TiXmlEncoding@@@Z:PROC ; TiXmlText::Parse
EXTRN	?Accept@TiXmlText@@UBE_NPAVTiXmlVisitor@@@Z:PROC ; TiXmlText::Accept
EXTRN	?Clone@TiXmlText@@MBEPAVTiXmlNode@@XZ:PROC	; TiXmlText::Clone
EXTRN	?CopyTo@TiXmlText@@IBEXPAV1@@Z:PROC		; TiXmlText::CopyTo
EXTRN	?Clone@TiXmlDeclaration@@UBEPAVTiXmlNode@@XZ:PROC ; TiXmlDeclaration::Clone
EXTRN	?Print@TiXmlDeclaration@@UBEXPAVi3FileStream@@HPAVTiXmlString@@@Z:PROC ; TiXmlDeclaration::Print
EXTRN	?Parse@TiXmlDeclaration@@UAEPBDPBDPAVTiXmlParsingData@@W4TiXmlEncoding@@@Z:PROC ; TiXmlDeclaration::Parse
EXTRN	?Accept@TiXmlDeclaration@@UBE_NPAVTiXmlVisitor@@@Z:PROC ; TiXmlDeclaration::Accept
EXTRN	?Clone@TiXmlUnknown@@UBEPAVTiXmlNode@@XZ:PROC	; TiXmlUnknown::Clone
EXTRN	?Print@TiXmlUnknown@@UBEXPAVi3FileStream@@H@Z:PROC ; TiXmlUnknown::Print
EXTRN	?Parse@TiXmlUnknown@@UAEPBDPBDPAVTiXmlParsingData@@W4TiXmlEncoding@@@Z:PROC ; TiXmlUnknown::Parse
EXTRN	?Accept@TiXmlUnknown@@UBE_NPAVTiXmlVisitor@@@Z:PROC ; TiXmlUnknown::Accept
EXTRN	?CopyTo@TiXmlUnknown@@IBEXPAV1@@Z:PROC		; TiXmlUnknown::CopyTo
EXTRN	?Parse@TiXmlDocument@@UAEPBDPBDPAVTiXmlParsingData@@W4TiXmlEncoding@@@Z:PROC ; TiXmlDocument::Parse
EXTRN	?Print@TiXmlDocument@@UBEXPAVi3FileStream@@H@Z:PROC ; TiXmlDocument::Print
EXTRN	?Accept@TiXmlDocument@@UBE_NPAVTiXmlVisitor@@@Z:PROC ; TiXmlDocument::Accept
EXTRN	?Clone@TiXmlDocument@@MBEPAVTiXmlNode@@XZ:PROC	; TiXmlDocument::Clone
EXTRN	?VisitEnter@TiXmlPrinter@@UAE_NABVTiXmlDocument@@@Z:PROC ; TiXmlPrinter::VisitEnter
EXTRN	?VisitExit@TiXmlPrinter@@UAE_NABVTiXmlDocument@@@Z:PROC ; TiXmlPrinter::VisitExit
EXTRN	?VisitEnter@TiXmlPrinter@@UAE_NABVTiXmlElement@@PBVTiXmlAttribute@@@Z:PROC ; TiXmlPrinter::VisitEnter
EXTRN	?VisitExit@TiXmlPrinter@@UAE_NABVTiXmlElement@@@Z:PROC ; TiXmlPrinter::VisitExit
EXTRN	?Visit@TiXmlPrinter@@UAE_NABVTiXmlDeclaration@@@Z:PROC ; TiXmlPrinter::Visit
EXTRN	?Visit@TiXmlPrinter@@UAE_NABVTiXmlText@@@Z:PROC	; TiXmlPrinter::Visit
EXTRN	?Visit@TiXmlPrinter@@UAE_NABVTiXmlComment@@@Z:PROC ; TiXmlPrinter::Visit
EXTRN	?Visit@TiXmlPrinter@@UAE_NABVTiXmlUnknown@@@Z:PROC ; TiXmlPrinter::Visit
EXTRN	??1i3XMLElement@@UAE@XZ:PROC			; i3XMLElement::~i3XMLElement
EXTRN	?GetMeta@i3List@@UAEPAVi3ClassMeta@@XZ:PROC	; i3List::GetMeta
EXTRN	??0i3List@@QAE@H@Z:PROC				; i3List::i3List
EXTRN	??1i3List@@UAE@XZ:PROC				; i3List::~i3List
EXTRN	?IndexOf@i3List@@UBEHPBX@Z:PROC			; i3List::IndexOf
EXTRN	?Add@i3List@@UAEHPAX@Z:PROC			; i3List::Add
EXTRN	?Insert@i3List@@UAEHHPAX@Z:PROC			; i3List::Insert
EXTRN	?Delete@i3List@@UAEHH@Z:PROC			; i3List::Delete
EXTRN	?Remove@i3List@@UAEHPAX@Z:PROC			; i3List::Remove
EXTRN	?Clear@i3List@@UAEXH@Z:PROC			; i3List::Clear
EXTRN	?GetMeta@i3StringList@@UAEPAVi3ClassMeta@@XZ:PROC ; i3StringList::GetMeta
EXTRN	??0i3StringList@@QAE@H@Z:PROC			; i3StringList::i3StringList
EXTRN	??1i3StringList@@UAE@XZ:PROC			; i3StringList::~i3StringList
EXTRN	?IndexOf@i3StringList@@UBEHPAD@Z:PROC		; i3StringList::IndexOf
EXTRN	?Add@i3StringList@@UAEHPADH@Z:PROC		; i3StringList::Add
EXTRN	?Insert@i3StringList@@UAEHHPADH@Z:PROC		; i3StringList::Insert
EXTRN	?Delete@i3StringList@@UAEHH@Z:PROC		; i3StringList::Delete
EXTRN	?Remove@i3StringList@@UAEHPAD@Z:PROC		; i3StringList::Remove
EXTRN	?Clear@i3StringList@@UAEXXZ:PROC		; i3StringList::Clear
EXTRN	?Compare@i3String@@YAHPBD0@Z:PROC		; i3String::Compare
EXTRN	?NCompare@i3String@@YAHPBD0H@Z:PROC		; i3String::NCompare
EXTRN	?Copy@i3String@@YAXPADPBDH@Z:PROC		; i3String::Copy
EXTRN	?NCopy@i3String@@YAXPADPBDH@Z:PROC		; i3String::NCopy
EXTRN	?Length@i3String@@YAHPBD@Z:PROC			; i3String::Length
EXTRN	?Concat@i3String@@YAXPADPBD@Z:PROC		; i3String::Concat
EXTRN	?ToInt@i3String@@YAHPBD@Z:PROC			; i3String::ToInt
EXTRN	?Format@i3String@@YAHPADHPBDZZ:PROC		; i3String::Format
EXTRN	?Gen@i3MD5@@YAXPADHQAD@Z:PROC			; i3MD5::Gen
EXTRN	?GetMD5String@i3MD5@@YAXPADVUINT128@@@Z:PROC	; i3MD5::GetMD5String
EXTRN	@__security_check_cookie@4:PROC
EXTRN	___CxxFrameHandler3:PROC
EXTRN	_memcpy:PROC
EXTRN	_memset:PROC
EXTRN	?s_pClassMetai3ElementBase@i3ElementBase@@2PAVi3ClassMeta@@A:DWORD ; i3ElementBase::s_pClassMetai3ElementBase
EXTRN	?s_pClassMetai3Stream@i3Stream@@2PAVi3ClassMeta@@A:DWORD ; i3Stream::s_pClassMetai3Stream
EXTRN	?s_pClassMetai3FileStream@i3FileStream@@2PAVi3ClassMeta@@A:DWORD ; i3FileStream::s_pClassMetai3FileStream
EXTRN	?m_bCaseSensitive@i3FileStream@@1HA:DWORD	; i3FileStream::m_bCaseSensitive
EXTRN	?npos@TiXmlString@@2IB:DWORD			; TiXmlString::npos
EXTRN	?nullrep_@TiXmlString@@0URep@1@A:BYTE		; TiXmlString::nullrep_
EXTRN	?utf8ByteTable@TiXmlBase@@2QBHB:BYTE		; TiXmlBase::utf8ByteTable
EXTRN	?condenseWhiteSpace@TiXmlBase@@0_NA:BYTE	; TiXmlBase::condenseWhiteSpace
EXTRN	?s_pClassMetai3List@i3List@@2PAVi3ClassMeta@@A:DWORD ; i3List::s_pClassMetai3List
EXTRN	?s_pClassMetai3StringList@i3StringList@@2PAVi3ClassMeta@@A:DWORD ; i3StringList::s_pClassMetai3StringList
EXTRN	___security_cookie:DWORD
EXTRN	__fltused:DWORD
_BSS	SEGMENT
?s_ClassMetai3NetworkHTTP@@3V?$i3MetaTemplate@Vi3NetworkHTTP@@@@A DB 038H DUP (?) ; s_ClassMetai3NetworkHTTP
_BSS	ENDS
CRT$XCU	SEGMENT
?s_ClassMetai3NetworkHTTP$initializer$@@3P6AXXZA DD FLAT:??__Es_ClassMetai3NetworkHTTP@@YAXXZ ; s_ClassMetai3NetworkHTTP$initializer$
CRT$XCU	ENDS
;	COMDAT ??_R1A@?0A@EA@i3NetworkHTTP@@8
rdata$r	SEGMENT
??_R1A@?0A@EA@i3NetworkHTTP@@8 DD FLAT:??_R0?AVi3NetworkHTTP@@@8 ; i3NetworkHTTP::`RTTI Base Class Descriptor at (0,-1,0,64)'
	DD	01H
	DD	00H
	DD	0ffffffffH
	DD	00H
	DD	040H
	DD	FLAT:??_R3i3NetworkHTTP@@8
rdata$r	ENDS
;	COMDAT ??_R2i3NetworkHTTP@@8
rdata$r	SEGMENT
??_R2i3NetworkHTTP@@8 DD FLAT:??_R1A@?0A@EA@i3NetworkHTTP@@8 ; i3NetworkHTTP::`RTTI Base Class Array'
	DD	FLAT:??_R1A@?0A@EA@i3ElementBase@@8
rdata$r	ENDS
;	COMDAT ??_R3i3NetworkHTTP@@8
rdata$r	SEGMENT
??_R3i3NetworkHTTP@@8 DD 00H				; i3NetworkHTTP::`RTTI Class Hierarchy Descriptor'
	DD	00H
	DD	02H
	DD	FLAT:??_R2i3NetworkHTTP@@8
rdata$r	ENDS
;	COMDAT ??_R0?AVi3NetworkHTTP@@@8
data$rs	SEGMENT
??_R0?AVi3NetworkHTTP@@@8 DD FLAT:??_7type_info@@6B@	; i3NetworkHTTP `RTTI Type Descriptor'
	DD	00H
	DB	'.?AVi3NetworkHTTP@@', 00H
data$rs	ENDS
;	COMDAT ??_R4i3NetworkHTTP@@6B@
rdata$r	SEGMENT
??_R4i3NetworkHTTP@@6B@ DD 00H				; i3NetworkHTTP::`RTTI Complete Object Locator'
	DD	00H
	DD	00H
	DD	FLAT:??_R0?AVi3NetworkHTTP@@@8
	DD	FLAT:??_R3i3NetworkHTTP@@8
rdata$r	ENDS
;	COMDAT ??_R2TiXmlElement@@8
rdata$r	SEGMENT
??_R2TiXmlElement@@8 DD FLAT:??_R1A@?0A@EA@TiXmlElement@@8 ; TiXmlElement::`RTTI Base Class Array'
	DD	FLAT:??_R1A@?0A@EA@TiXmlNode@@8
	DD	FLAT:??_R1A@?0A@EA@TiXmlBase@@8
rdata$r	ENDS
;	COMDAT ??_R3TiXmlElement@@8
rdata$r	SEGMENT
??_R3TiXmlElement@@8 DD 00H				; TiXmlElement::`RTTI Class Hierarchy Descriptor'
	DD	00H
	DD	03H
	DD	FLAT:??_R2TiXmlElement@@8
rdata$r	ENDS
;	COMDAT ??_R0?AVTiXmlElement@@@8
data$rs	SEGMENT
??_R0?AVTiXmlElement@@@8 DD FLAT:??_7type_info@@6B@	; TiXmlElement `RTTI Type Descriptor'
	DD	00H
	DB	'.?AVTiXmlElement@@', 00H
data$rs	ENDS
;	COMDAT ??_R1A@?0A@EA@TiXmlElement@@8
rdata$r	SEGMENT
??_R1A@?0A@EA@TiXmlElement@@8 DD FLAT:??_R0?AVTiXmlElement@@@8 ; TiXmlElement::`RTTI Base Class Descriptor at (0,-1,0,64)'
	DD	02H
	DD	00H
	DD	0ffffffffH
	DD	00H
	DD	040H
	DD	FLAT:??_R3TiXmlElement@@8
rdata$r	ENDS
;	COMDAT ??_R1A@?0A@EA@i3XMLElement@@8
rdata$r	SEGMENT
??_R1A@?0A@EA@i3XMLElement@@8 DD FLAT:??_R0?AVi3XMLElement@@@8 ; i3XMLElement::`RTTI Base Class Descriptor at (0,-1,0,64)'
	DD	03H
	DD	00H
	DD	0ffffffffH
	DD	00H
	DD	040H
	DD	FLAT:??_R3i3XMLElement@@8
rdata$r	ENDS
;	COMDAT ??_R2i3XMLElement@@8
rdata$r	SEGMENT
??_R2i3XMLElement@@8 DD FLAT:??_R1A@?0A@EA@i3XMLElement@@8 ; i3XMLElement::`RTTI Base Class Array'
	DD	FLAT:??_R1A@?0A@EA@TiXmlElement@@8
	DD	FLAT:??_R1A@?0A@EA@TiXmlNode@@8
	DD	FLAT:??_R1A@?0A@EA@TiXmlBase@@8
rdata$r	ENDS
;	COMDAT ??_R3i3XMLElement@@8
rdata$r	SEGMENT
??_R3i3XMLElement@@8 DD 00H				; i3XMLElement::`RTTI Class Hierarchy Descriptor'
	DD	00H
	DD	04H
	DD	FLAT:??_R2i3XMLElement@@8
rdata$r	ENDS
;	COMDAT ??_R0?AVi3XMLElement@@@8
data$rs	SEGMENT
??_R0?AVi3XMLElement@@@8 DD FLAT:??_7type_info@@6B@	; i3XMLElement `RTTI Type Descriptor'
	DD	00H
	DB	'.?AVi3XMLElement@@', 00H
data$rs	ENDS
;	COMDAT ??_R4i3XMLElement@@6B@
rdata$r	SEGMENT
??_R4i3XMLElement@@6B@ DD 00H				; i3XMLElement::`RTTI Complete Object Locator'
	DD	00H
	DD	00H
	DD	FLAT:??_R0?AVi3XMLElement@@@8
	DD	FLAT:??_R3i3XMLElement@@8
rdata$r	ENDS
;	COMDAT ??_R1A@?0A@EA@TiXmlPrinter@@8
rdata$r	SEGMENT
??_R1A@?0A@EA@TiXmlPrinter@@8 DD FLAT:??_R0?AVTiXmlPrinter@@@8 ; TiXmlPrinter::`RTTI Base Class Descriptor at (0,-1,0,64)'
	DD	01H
	DD	00H
	DD	0ffffffffH
	DD	00H
	DD	040H
	DD	FLAT:??_R3TiXmlPrinter@@8
rdata$r	ENDS
;	COMDAT ??_R2TiXmlPrinter@@8
rdata$r	SEGMENT
??_R2TiXmlPrinter@@8 DD FLAT:??_R1A@?0A@EA@TiXmlPrinter@@8 ; TiXmlPrinter::`RTTI Base Class Array'
	DD	FLAT:??_R1A@?0A@EA@TiXmlVisitor@@8
rdata$r	ENDS
;	COMDAT ??_R3TiXmlPrinter@@8
rdata$r	SEGMENT
??_R3TiXmlPrinter@@8 DD 00H				; TiXmlPrinter::`RTTI Class Hierarchy Descriptor'
	DD	00H
	DD	02H
	DD	FLAT:??_R2TiXmlPrinter@@8
rdata$r	ENDS
;	COMDAT ??_R0?AVTiXmlPrinter@@@8
data$rs	SEGMENT
??_R0?AVTiXmlPrinter@@@8 DD FLAT:??_7type_info@@6B@	; TiXmlPrinter `RTTI Type Descriptor'
	DD	00H
	DB	'.?AVTiXmlPrinter@@', 00H
data$rs	ENDS
;	COMDAT ??_R4TiXmlPrinter@@6B@
rdata$r	SEGMENT
??_R4TiXmlPrinter@@6B@ DD 00H				; TiXmlPrinter::`RTTI Complete Object Locator'
	DD	00H
	DD	00H
	DD	FLAT:??_R0?AVTiXmlPrinter@@@8
	DD	FLAT:??_R3TiXmlPrinter@@8
rdata$r	ENDS
;	COMDAT ??_R4TiXmlBase@@6B@
rdata$r	SEGMENT
??_R4TiXmlBase@@6B@ DD 00H				; TiXmlBase::`RTTI Complete Object Locator'
	DD	00H
	DD	00H
	DD	FLAT:??_R0?AVTiXmlBase@@@8
	DD	FLAT:??_R3TiXmlBase@@8
rdata$r	ENDS
;	COMDAT ??_R1A@?0A@EA@TiXmlVisitor@@8
rdata$r	SEGMENT
??_R1A@?0A@EA@TiXmlVisitor@@8 DD FLAT:??_R0?AVTiXmlVisitor@@@8 ; TiXmlVisitor::`RTTI Base Class Descriptor at (0,-1,0,64)'
	DD	00H
	DD	00H
	DD	0ffffffffH
	DD	00H
	DD	040H
	DD	FLAT:??_R3TiXmlVisitor@@8
rdata$r	ENDS
;	COMDAT ??_R2TiXmlVisitor@@8
rdata$r	SEGMENT
??_R2TiXmlVisitor@@8 DD FLAT:??_R1A@?0A@EA@TiXmlVisitor@@8 ; TiXmlVisitor::`RTTI Base Class Array'
rdata$r	ENDS
;	COMDAT ??_R3TiXmlVisitor@@8
rdata$r	SEGMENT
??_R3TiXmlVisitor@@8 DD 00H				; TiXmlVisitor::`RTTI Class Hierarchy Descriptor'
	DD	00H
	DD	01H
	DD	FLAT:??_R2TiXmlVisitor@@8
rdata$r	ENDS
;	COMDAT ??_R0?AVTiXmlVisitor@@@8
data$rs	SEGMENT
??_R0?AVTiXmlVisitor@@@8 DD FLAT:??_7type_info@@6B@	; TiXmlVisitor `RTTI Type Descriptor'
	DD	00H
	DB	'.?AVTiXmlVisitor@@', 00H
data$rs	ENDS
;	COMDAT ??_R4TiXmlVisitor@@6B@
rdata$r	SEGMENT
??_R4TiXmlVisitor@@6B@ DD 00H				; TiXmlVisitor::`RTTI Complete Object Locator'
	DD	00H
	DD	00H
	DD	FLAT:??_R0?AVTiXmlVisitor@@@8
	DD	FLAT:??_R3TiXmlVisitor@@8
rdata$r	ENDS
;	COMDAT ??_R1A@?0A@EA@TiXmlDeclaration@@8
rdata$r	SEGMENT
??_R1A@?0A@EA@TiXmlDeclaration@@8 DD FLAT:??_R0?AVTiXmlDeclaration@@@8 ; TiXmlDeclaration::`RTTI Base Class Descriptor at (0,-1,0,64)'
	DD	02H
	DD	00H
	DD	0ffffffffH
	DD	00H
	DD	040H
	DD	FLAT:??_R3TiXmlDeclaration@@8
rdata$r	ENDS
;	COMDAT ??_R2TiXmlDeclaration@@8
rdata$r	SEGMENT
??_R2TiXmlDeclaration@@8 DD FLAT:??_R1A@?0A@EA@TiXmlDeclaration@@8 ; TiXmlDeclaration::`RTTI Base Class Array'
	DD	FLAT:??_R1A@?0A@EA@TiXmlNode@@8
	DD	FLAT:??_R1A@?0A@EA@TiXmlBase@@8
rdata$r	ENDS
;	COMDAT ??_R3TiXmlDeclaration@@8
rdata$r	SEGMENT
??_R3TiXmlDeclaration@@8 DD 00H				; TiXmlDeclaration::`RTTI Class Hierarchy Descriptor'
	DD	00H
	DD	03H
	DD	FLAT:??_R2TiXmlDeclaration@@8
rdata$r	ENDS
;	COMDAT ??_R0?AVTiXmlDeclaration@@@8
data$rs	SEGMENT
??_R0?AVTiXmlDeclaration@@@8 DD FLAT:??_7type_info@@6B@	; TiXmlDeclaration `RTTI Type Descriptor'
	DD	00H
	DB	'.?AVTiXmlDeclaration@@', 00H
data$rs	ENDS
;	COMDAT ??_R4TiXmlDeclaration@@6B@
rdata$r	SEGMENT
??_R4TiXmlDeclaration@@6B@ DD 00H			; TiXmlDeclaration::`RTTI Complete Object Locator'
	DD	00H
	DD	00H
	DD	FLAT:??_R0?AVTiXmlDeclaration@@@8
	DD	FLAT:??_R3TiXmlDeclaration@@8
rdata$r	ENDS
;	COMDAT ??_R1A@?0A@EA@TiXmlText@@8
rdata$r	SEGMENT
??_R1A@?0A@EA@TiXmlText@@8 DD FLAT:??_R0?AVTiXmlText@@@8 ; TiXmlText::`RTTI Base Class Descriptor at (0,-1,0,64)'
	DD	02H
	DD	00H
	DD	0ffffffffH
	DD	00H
	DD	040H
	DD	FLAT:??_R3TiXmlText@@8
rdata$r	ENDS
;	COMDAT ??_R2TiXmlText@@8
rdata$r	SEGMENT
??_R2TiXmlText@@8 DD FLAT:??_R1A@?0A@EA@TiXmlText@@8	; TiXmlText::`RTTI Base Class Array'
	DD	FLAT:??_R1A@?0A@EA@TiXmlNode@@8
	DD	FLAT:??_R1A@?0A@EA@TiXmlBase@@8
rdata$r	ENDS
;	COMDAT ??_R3TiXmlText@@8
rdata$r	SEGMENT
??_R3TiXmlText@@8 DD 00H				; TiXmlText::`RTTI Class Hierarchy Descriptor'
	DD	00H
	DD	03H
	DD	FLAT:??_R2TiXmlText@@8
rdata$r	ENDS
;	COMDAT ??_R0?AVTiXmlText@@@8
data$rs	SEGMENT
??_R0?AVTiXmlText@@@8 DD FLAT:??_7type_info@@6B@	; TiXmlText `RTTI Type Descriptor'
	DD	00H
	DB	'.?AVTiXmlText@@', 00H
data$rs	ENDS
;	COMDAT ??_R4TiXmlText@@6B@
rdata$r	SEGMENT
??_R4TiXmlText@@6B@ DD 00H				; TiXmlText::`RTTI Complete Object Locator'
	DD	00H
	DD	00H
	DD	FLAT:??_R0?AVTiXmlText@@@8
	DD	FLAT:??_R3TiXmlText@@8
rdata$r	ENDS
;	COMDAT ??_R1A@?0A@EA@TiXmlAttribute@@8
rdata$r	SEGMENT
??_R1A@?0A@EA@TiXmlAttribute@@8 DD FLAT:??_R0?AVTiXmlAttribute@@@8 ; TiXmlAttribute::`RTTI Base Class Descriptor at (0,-1,0,64)'
	DD	01H
	DD	00H
	DD	0ffffffffH
	DD	00H
	DD	040H
	DD	FLAT:??_R3TiXmlAttribute@@8
rdata$r	ENDS
;	COMDAT ??_R2TiXmlAttribute@@8
rdata$r	SEGMENT
??_R2TiXmlAttribute@@8 DD FLAT:??_R1A@?0A@EA@TiXmlAttribute@@8 ; TiXmlAttribute::`RTTI Base Class Array'
	DD	FLAT:??_R1A@?0A@EA@TiXmlBase@@8
rdata$r	ENDS
;	COMDAT ??_R3TiXmlAttribute@@8
rdata$r	SEGMENT
??_R3TiXmlAttribute@@8 DD 00H				; TiXmlAttribute::`RTTI Class Hierarchy Descriptor'
	DD	00H
	DD	02H
	DD	FLAT:??_R2TiXmlAttribute@@8
rdata$r	ENDS
;	COMDAT ??_R0?AVTiXmlAttribute@@@8
data$rs	SEGMENT
??_R0?AVTiXmlAttribute@@@8 DD FLAT:??_7type_info@@6B@	; TiXmlAttribute `RTTI Type Descriptor'
	DD	00H
	DB	'.?AVTiXmlAttribute@@', 00H
data$rs	ENDS
;	COMDAT ??_R4TiXmlAttribute@@6B@
rdata$r	SEGMENT
??_R4TiXmlAttribute@@6B@ DD 00H				; TiXmlAttribute::`RTTI Complete Object Locator'
	DD	00H
	DD	00H
	DD	FLAT:??_R0?AVTiXmlAttribute@@@8
	DD	FLAT:??_R3TiXmlAttribute@@8
rdata$r	ENDS
;	COMDAT ??_R1A@?0A@EA@TiXmlUnknown@@8
rdata$r	SEGMENT
??_R1A@?0A@EA@TiXmlUnknown@@8 DD FLAT:??_R0?AVTiXmlUnknown@@@8 ; TiXmlUnknown::`RTTI Base Class Descriptor at (0,-1,0,64)'
	DD	02H
	DD	00H
	DD	0ffffffffH
	DD	00H
	DD	040H
	DD	FLAT:??_R3TiXmlUnknown@@8
rdata$r	ENDS
;	COMDAT ??_R2TiXmlUnknown@@8
rdata$r	SEGMENT
??_R2TiXmlUnknown@@8 DD FLAT:??_R1A@?0A@EA@TiXmlUnknown@@8 ; TiXmlUnknown::`RTTI Base Class Array'
	DD	FLAT:??_R1A@?0A@EA@TiXmlNode@@8
	DD	FLAT:??_R1A@?0A@EA@TiXmlBase@@8
rdata$r	ENDS
;	COMDAT ??_R3TiXmlUnknown@@8
rdata$r	SEGMENT
??_R3TiXmlUnknown@@8 DD 00H				; TiXmlUnknown::`RTTI Class Hierarchy Descriptor'
	DD	00H
	DD	03H
	DD	FLAT:??_R2TiXmlUnknown@@8
rdata$r	ENDS
;	COMDAT ??_R0?AVTiXmlUnknown@@@8
data$rs	SEGMENT
??_R0?AVTiXmlUnknown@@@8 DD FLAT:??_7type_info@@6B@	; TiXmlUnknown `RTTI Type Descriptor'
	DD	00H
	DB	'.?AVTiXmlUnknown@@', 00H
data$rs	ENDS
;	COMDAT ??_R4TiXmlUnknown@@6B@
rdata$r	SEGMENT
??_R4TiXmlUnknown@@6B@ DD 00H				; TiXmlUnknown::`RTTI Complete Object Locator'
	DD	00H
	DD	00H
	DD	FLAT:??_R0?AVTiXmlUnknown@@@8
	DD	FLAT:??_R3TiXmlUnknown@@8
rdata$r	ENDS
;	COMDAT ??_R1A@?0A@EA@TiXmlComment@@8
rdata$r	SEGMENT
??_R1A@?0A@EA@TiXmlComment@@8 DD FLAT:??_R0?AVTiXmlComment@@@8 ; TiXmlComment::`RTTI Base Class Descriptor at (0,-1,0,64)'
	DD	02H
	DD	00H
	DD	0ffffffffH
	DD	00H
	DD	040H
	DD	FLAT:??_R3TiXmlComment@@8
rdata$r	ENDS
;	COMDAT ??_R2TiXmlComment@@8
rdata$r	SEGMENT
??_R2TiXmlComment@@8 DD FLAT:??_R1A@?0A@EA@TiXmlComment@@8 ; TiXmlComment::`RTTI Base Class Array'
	DD	FLAT:??_R1A@?0A@EA@TiXmlNode@@8
	DD	FLAT:??_R1A@?0A@EA@TiXmlBase@@8
rdata$r	ENDS
;	COMDAT ??_R3TiXmlComment@@8
rdata$r	SEGMENT
??_R3TiXmlComment@@8 DD 00H				; TiXmlComment::`RTTI Class Hierarchy Descriptor'
	DD	00H
	DD	03H
	DD	FLAT:??_R2TiXmlComment@@8
rdata$r	ENDS
;	COMDAT ??_R0?AVTiXmlComment@@@8
data$rs	SEGMENT
??_R0?AVTiXmlComment@@@8 DD FLAT:??_7type_info@@6B@	; TiXmlComment `RTTI Type Descriptor'
	DD	00H
	DB	'.?AVTiXmlComment@@', 00H
data$rs	ENDS
;	COMDAT ??_R4TiXmlComment@@6B@
rdata$r	SEGMENT
??_R4TiXmlComment@@6B@ DD 00H				; TiXmlComment::`RTTI Complete Object Locator'
	DD	00H
	DD	00H
	DD	FLAT:??_R0?AVTiXmlComment@@@8
	DD	FLAT:??_R3TiXmlComment@@8
rdata$r	ENDS
;	COMDAT ??_R2TiXmlBase@@8
rdata$r	SEGMENT
??_R2TiXmlBase@@8 DD FLAT:??_R1A@?0A@EA@TiXmlBase@@8	; TiXmlBase::`RTTI Base Class Array'
rdata$r	ENDS
;	COMDAT ??_R3TiXmlBase@@8
rdata$r	SEGMENT
??_R3TiXmlBase@@8 DD 00H				; TiXmlBase::`RTTI Class Hierarchy Descriptor'
	DD	00H
	DD	01H
	DD	FLAT:??_R2TiXmlBase@@8
rdata$r	ENDS
;	COMDAT ??_R0?AVTiXmlBase@@@8
data$rs	SEGMENT
??_R0?AVTiXmlBase@@@8 DD FLAT:??_7type_info@@6B@	; TiXmlBase `RTTI Type Descriptor'
	DD	00H
	DB	'.?AVTiXmlBase@@', 00H
data$rs	ENDS
;	COMDAT ??_R1A@?0A@EA@TiXmlBase@@8
rdata$r	SEGMENT
??_R1A@?0A@EA@TiXmlBase@@8 DD FLAT:??_R0?AVTiXmlBase@@@8 ; TiXmlBase::`RTTI Base Class Descriptor at (0,-1,0,64)'
	DD	00H
	DD	00H
	DD	0ffffffffH
	DD	00H
	DD	040H
	DD	FLAT:??_R3TiXmlBase@@8
rdata$r	ENDS
;	COMDAT ??_R2TiXmlNode@@8
rdata$r	SEGMENT
??_R2TiXmlNode@@8 DD FLAT:??_R1A@?0A@EA@TiXmlNode@@8	; TiXmlNode::`RTTI Base Class Array'
	DD	FLAT:??_R1A@?0A@EA@TiXmlBase@@8
rdata$r	ENDS
;	COMDAT ??_R3TiXmlNode@@8
rdata$r	SEGMENT
??_R3TiXmlNode@@8 DD 00H				; TiXmlNode::`RTTI Class Hierarchy Descriptor'
	DD	00H
	DD	02H
	DD	FLAT:??_R2TiXmlNode@@8
rdata$r	ENDS
;	COMDAT ??_R0?AVTiXmlNode@@@8
data$rs	SEGMENT
??_R0?AVTiXmlNode@@@8 DD FLAT:??_7type_info@@6B@	; TiXmlNode `RTTI Type Descriptor'
	DD	00H
	DB	'.?AVTiXmlNode@@', 00H
data$rs	ENDS
;	COMDAT ??_R1A@?0A@EA@TiXmlNode@@8
rdata$r	SEGMENT
??_R1A@?0A@EA@TiXmlNode@@8 DD FLAT:??_R0?AVTiXmlNode@@@8 ; TiXmlNode::`RTTI Base Class Descriptor at (0,-1,0,64)'
	DD	01H
	DD	00H
	DD	0ffffffffH
	DD	00H
	DD	040H
	DD	FLAT:??_R3TiXmlNode@@8
rdata$r	ENDS
;	COMDAT ??_R1A@?0A@EA@TiXmlDocument@@8
rdata$r	SEGMENT
??_R1A@?0A@EA@TiXmlDocument@@8 DD FLAT:??_R0?AVTiXmlDocument@@@8 ; TiXmlDocument::`RTTI Base Class Descriptor at (0,-1,0,64)'
	DD	02H
	DD	00H
	DD	0ffffffffH
	DD	00H
	DD	040H
	DD	FLAT:??_R3TiXmlDocument@@8
rdata$r	ENDS
;	COMDAT ??_R2TiXmlDocument@@8
rdata$r	SEGMENT
??_R2TiXmlDocument@@8 DD FLAT:??_R1A@?0A@EA@TiXmlDocument@@8 ; TiXmlDocument::`RTTI Base Class Array'
	DD	FLAT:??_R1A@?0A@EA@TiXmlNode@@8
	DD	FLAT:??_R1A@?0A@EA@TiXmlBase@@8
rdata$r	ENDS
;	COMDAT ??_R3TiXmlDocument@@8
rdata$r	SEGMENT
??_R3TiXmlDocument@@8 DD 00H				; TiXmlDocument::`RTTI Class Hierarchy Descriptor'
	DD	00H
	DD	03H
	DD	FLAT:??_R2TiXmlDocument@@8
rdata$r	ENDS
;	COMDAT ??_R0?AVTiXmlDocument@@@8
data$rs	SEGMENT
??_R0?AVTiXmlDocument@@@8 DD FLAT:??_7type_info@@6B@	; TiXmlDocument `RTTI Type Descriptor'
	DD	00H
	DB	'.?AVTiXmlDocument@@', 00H
data$rs	ENDS
;	COMDAT ??_R4TiXmlDocument@@6B@
rdata$r	SEGMENT
??_R4TiXmlDocument@@6B@ DD 00H				; TiXmlDocument::`RTTI Complete Object Locator'
	DD	00H
	DD	00H
	DD	FLAT:??_R0?AVTiXmlDocument@@@8
	DD	FLAT:??_R3TiXmlDocument@@8
rdata$r	ENDS
;	COMDAT ??_R1A@?0A@EA@i3FileStream@@8
rdata$r	SEGMENT
??_R1A@?0A@EA@i3FileStream@@8 DD FLAT:??_R0?AVi3FileStream@@@8 ; i3FileStream::`RTTI Base Class Descriptor at (0,-1,0,64)'
	DD	02H
	DD	00H
	DD	0ffffffffH
	DD	00H
	DD	040H
	DD	FLAT:??_R3i3FileStream@@8
rdata$r	ENDS
;	COMDAT ??_R2i3FileStream@@8
rdata$r	SEGMENT
??_R2i3FileStream@@8 DD FLAT:??_R1A@?0A@EA@i3FileStream@@8 ; i3FileStream::`RTTI Base Class Array'
	DD	FLAT:??_R1A@?0A@EA@i3Stream@@8
	DD	FLAT:??_R1A@?0A@EA@i3ElementBase@@8
rdata$r	ENDS
;	COMDAT ??_R3i3FileStream@@8
rdata$r	SEGMENT
??_R3i3FileStream@@8 DD 00H				; i3FileStream::`RTTI Class Hierarchy Descriptor'
	DD	00H
	DD	03H
	DD	FLAT:??_R2i3FileStream@@8
rdata$r	ENDS
;	COMDAT ??_R0?AVi3FileStream@@@8
data$rs	SEGMENT
??_R0?AVi3FileStream@@@8 DD FLAT:??_7type_info@@6B@	; i3FileStream `RTTI Type Descriptor'
	DD	00H
	DB	'.?AVi3FileStream@@', 00H
data$rs	ENDS
;	COMDAT ??_R4i3FileStream@@6B@
rdata$r	SEGMENT
??_R4i3FileStream@@6B@ DD 00H				; i3FileStream::`RTTI Complete Object Locator'
	DD	00H
	DD	00H
	DD	FLAT:??_R0?AVi3FileStream@@@8
	DD	FLAT:??_R3i3FileStream@@8
rdata$r	ENDS
;	COMDAT ??_R1A@?0A@EA@i3Stream@@8
rdata$r	SEGMENT
??_R1A@?0A@EA@i3Stream@@8 DD FLAT:??_R0?AVi3Stream@@@8	; i3Stream::`RTTI Base Class Descriptor at (0,-1,0,64)'
	DD	01H
	DD	00H
	DD	0ffffffffH
	DD	00H
	DD	040H
	DD	FLAT:??_R3i3Stream@@8
rdata$r	ENDS
;	COMDAT ??_R2i3Stream@@8
rdata$r	SEGMENT
??_R2i3Stream@@8 DD FLAT:??_R1A@?0A@EA@i3Stream@@8	; i3Stream::`RTTI Base Class Array'
	DD	FLAT:??_R1A@?0A@EA@i3ElementBase@@8
rdata$r	ENDS
;	COMDAT ??_R3i3Stream@@8
rdata$r	SEGMENT
??_R3i3Stream@@8 DD 00H					; i3Stream::`RTTI Class Hierarchy Descriptor'
	DD	00H
	DD	02H
	DD	FLAT:??_R2i3Stream@@8
rdata$r	ENDS
;	COMDAT ??_R0?AVi3Stream@@@8
data$rs	SEGMENT
??_R0?AVi3Stream@@@8 DD FLAT:??_7type_info@@6B@		; i3Stream `RTTI Type Descriptor'
	DD	00H
	DB	'.?AVi3Stream@@', 00H
data$rs	ENDS
;	COMDAT ??_R4i3Stream@@6B@
rdata$r	SEGMENT
??_R4i3Stream@@6B@ DD 00H				; i3Stream::`RTTI Complete Object Locator'
	DD	00H
	DD	00H
	DD	FLAT:??_R0?AVi3Stream@@@8
	DD	FLAT:??_R3i3Stream@@8
rdata$r	ENDS
;	COMDAT ??_R1A@?0A@EA@i3StringList@@8
rdata$r	SEGMENT
??_R1A@?0A@EA@i3StringList@@8 DD FLAT:??_R0?AVi3StringList@@@8 ; i3StringList::`RTTI Base Class Descriptor at (0,-1,0,64)'
	DD	01H
	DD	00H
	DD	0ffffffffH
	DD	00H
	DD	040H
	DD	FLAT:??_R3i3StringList@@8
rdata$r	ENDS
;	COMDAT ??_R2i3StringList@@8
rdata$r	SEGMENT
??_R2i3StringList@@8 DD FLAT:??_R1A@?0A@EA@i3StringList@@8 ; i3StringList::`RTTI Base Class Array'
	DD	FLAT:??_R1A@?0A@EA@i3ElementBase@@8
rdata$r	ENDS
;	COMDAT ??_R3i3StringList@@8
rdata$r	SEGMENT
??_R3i3StringList@@8 DD 00H				; i3StringList::`RTTI Class Hierarchy Descriptor'
	DD	00H
	DD	02H
	DD	FLAT:??_R2i3StringList@@8
rdata$r	ENDS
;	COMDAT ??_R0?AVi3StringList@@@8
data$rs	SEGMENT
??_R0?AVi3StringList@@@8 DD FLAT:??_7type_info@@6B@	; i3StringList `RTTI Type Descriptor'
	DD	00H
	DB	'.?AVi3StringList@@', 00H
data$rs	ENDS
;	COMDAT ??_R4i3StringList@@6B@
rdata$r	SEGMENT
??_R4i3StringList@@6B@ DD 00H				; i3StringList::`RTTI Complete Object Locator'
	DD	00H
	DD	00H
	DD	FLAT:??_R0?AVi3StringList@@@8
	DD	FLAT:??_R3i3StringList@@8
rdata$r	ENDS
;	COMDAT ??_R4i3ClassMeta@@6B@
rdata$r	SEGMENT
??_R4i3ClassMeta@@6B@ DD 00H				; i3ClassMeta::`RTTI Complete Object Locator'
	DD	00H
	DD	00H
	DD	FLAT:??_R0?AVi3ClassMeta@@@8
	DD	FLAT:??_R3i3ClassMeta@@8
rdata$r	ENDS
;	COMDAT ??_R1A@?0A@EA@i3MemoryPool@@8
rdata$r	SEGMENT
??_R1A@?0A@EA@i3MemoryPool@@8 DD FLAT:??_R0?AVi3MemoryPool@@@8 ; i3MemoryPool::`RTTI Base Class Descriptor at (0,-1,0,64)'
	DD	00H
	DD	00H
	DD	0ffffffffH
	DD	00H
	DD	040H
	DD	FLAT:??_R3i3MemoryPool@@8
rdata$r	ENDS
;	COMDAT ??_R2i3MemoryPool@@8
rdata$r	SEGMENT
??_R2i3MemoryPool@@8 DD FLAT:??_R1A@?0A@EA@i3MemoryPool@@8 ; i3MemoryPool::`RTTI Base Class Array'
rdata$r	ENDS
;	COMDAT ??_R3i3MemoryPool@@8
rdata$r	SEGMENT
??_R3i3MemoryPool@@8 DD 00H				; i3MemoryPool::`RTTI Class Hierarchy Descriptor'
	DD	00H
	DD	01H
	DD	FLAT:??_R2i3MemoryPool@@8
rdata$r	ENDS
;	COMDAT ??_R0?AVi3MemoryPool@@@8
data$rs	SEGMENT
??_R0?AVi3MemoryPool@@@8 DD FLAT:??_7type_info@@6B@	; i3MemoryPool `RTTI Type Descriptor'
	DD	00H
	DB	'.?AVi3MemoryPool@@', 00H
data$rs	ENDS
;	COMDAT ??_R4i3MemoryPool@@6B@
rdata$r	SEGMENT
??_R4i3MemoryPool@@6B@ DD 00H				; i3MemoryPool::`RTTI Complete Object Locator'
	DD	00H
	DD	00H
	DD	FLAT:??_R0?AVi3MemoryPool@@@8
	DD	FLAT:??_R3i3MemoryPool@@8
rdata$r	ENDS
;	COMDAT ??_R1A@?0A@EA@i3List@@8
rdata$r	SEGMENT
??_R1A@?0A@EA@i3List@@8 DD FLAT:??_R0?AVi3List@@@8	; i3List::`RTTI Base Class Descriptor at (0,-1,0,64)'
	DD	01H
	DD	00H
	DD	0ffffffffH
	DD	00H
	DD	040H
	DD	FLAT:??_R3i3List@@8
rdata$r	ENDS
;	COMDAT ??_R2i3List@@8
rdata$r	SEGMENT
??_R2i3List@@8 DD FLAT:??_R1A@?0A@EA@i3List@@8		; i3List::`RTTI Base Class Array'
	DD	FLAT:??_R1A@?0A@EA@i3ElementBase@@8
rdata$r	ENDS
;	COMDAT ??_R3i3List@@8
rdata$r	SEGMENT
??_R3i3List@@8 DD 00H					; i3List::`RTTI Class Hierarchy Descriptor'
	DD	00H
	DD	02H
	DD	FLAT:??_R2i3List@@8
rdata$r	ENDS
;	COMDAT ??_R0?AVi3List@@@8
data$rs	SEGMENT
??_R0?AVi3List@@@8 DD FLAT:??_7type_info@@6B@		; i3List `RTTI Type Descriptor'
	DD	00H
	DB	'.?AVi3List@@', 00H
data$rs	ENDS
;	COMDAT ??_R4i3List@@6B@
rdata$r	SEGMENT
??_R4i3List@@6B@ DD 00H					; i3List::`RTTI Complete Object Locator'
	DD	00H
	DD	00H
	DD	FLAT:??_R0?AVi3List@@@8
	DD	FLAT:??_R3i3List@@8
rdata$r	ENDS
;	COMDAT ??_R1A@?0A@EA@i3ElementBase@@8
rdata$r	SEGMENT
??_R1A@?0A@EA@i3ElementBase@@8 DD FLAT:??_R0?AVi3ElementBase@@@8 ; i3ElementBase::`RTTI Base Class Descriptor at (0,-1,0,64)'
	DD	00H
	DD	00H
	DD	0ffffffffH
	DD	00H
	DD	040H
	DD	FLAT:??_R3i3ElementBase@@8
rdata$r	ENDS
;	COMDAT ??_R2i3ElementBase@@8
rdata$r	SEGMENT
??_R2i3ElementBase@@8 DD FLAT:??_R1A@?0A@EA@i3ElementBase@@8 ; i3ElementBase::`RTTI Base Class Array'
rdata$r	ENDS
;	COMDAT ??_R3i3ElementBase@@8
rdata$r	SEGMENT
??_R3i3ElementBase@@8 DD 00H				; i3ElementBase::`RTTI Class Hierarchy Descriptor'
	DD	00H
	DD	01H
	DD	FLAT:??_R2i3ElementBase@@8
rdata$r	ENDS
;	COMDAT ??_R0?AVi3ElementBase@@@8
data$rs	SEGMENT
??_R0?AVi3ElementBase@@@8 DD FLAT:??_7type_info@@6B@	; i3ElementBase `RTTI Type Descriptor'
	DD	00H
	DB	'.?AVi3ElementBase@@', 00H
data$rs	ENDS
;	COMDAT ??_R4i3ElementBase@@6B@
rdata$r	SEGMENT
??_R4i3ElementBase@@6B@ DD 00H				; i3ElementBase::`RTTI Complete Object Locator'
	DD	00H
	DD	00H
	DD	FLAT:??_R0?AVi3ElementBase@@@8
	DD	FLAT:??_R3i3ElementBase@@8
rdata$r	ENDS
;	COMDAT ??_C@_01HNPIGOCE@?$CG@
CONST	SEGMENT
??_C@_01HNPIGOCE@?$CG@ DB '&', 00H			; `string'
CONST	ENDS
;	COMDAT ??_C@_01NEMOKFLO@?$DN@
CONST	SEGMENT
??_C@_01NEMOKFLO@?$DN@ DB '=', 00H			; `string'
CONST	ENDS
;	COMDAT ??_C@_05MKGBANIN@?$CFs?9?$CFd@
CONST	SEGMENT
??_C@_05MKGBANIN@?$CFs?9?$CFd@ DB '%s-%d', 00H		; `string'
CONST	ENDS
;	COMDAT ??_C@_03FKNCMABI@?$CFlu@
CONST	SEGMENT
??_C@_03FKNCMABI@?$CFlu@ DB '%lu', 00H			; `string'
CONST	ENDS
;	COMDAT ??_C@_05LLAMLEHD@?$CFI64d@
CONST	SEGMENT
??_C@_05LLAMLEHD@?$CFI64d@ DB '%I64d', 00H		; `string'
CONST	ENDS
;	COMDAT ??_C@_02DPKJAMEF@?$CFd@
CONST	SEGMENT
??_C@_02DPKJAMEF@?$CFd@ DB '%d', 00H			; `string'
CONST	ENDS
;	COMDAT ??_C@_03KMPHGDJG@?$CF2B@
CONST	SEGMENT
??_C@_03KMPHGDJG@?$CF2B@ DB '%2B', 00H			; `string'
CONST	ENDS
;	COMDAT ??_C@_03OHKENPGE@?$CF26@
CONST	SEGMENT
??_C@_03OHKENPGE@?$CF26@ DB '%26', 00H			; `string'
CONST	ENDS
;	COMDAT ??_C@_03MMIJIMKH@?$CF25@
CONST	SEGMENT
??_C@_03MMIJIMKH@?$CF25@ DB '%25', 00H			; `string'
CONST	ENDS
;	COMDAT ??_C@_05BCHGOAMK@https@
CONST	SEGMENT
??_C@_05BCHGOAMK@https@ DB 'https', 00H			; `string'
CONST	ENDS
;	COMDAT ??_C@_04IAFLKNP@http@
CONST	SEGMENT
??_C@_04IAFLKNP@http@ DB 'http', 00H			; `string'
CONST	ENDS
;	COMDAT ??_C@_01KMDKNFGN@?1@
CONST	SEGMENT
??_C@_01KMDKNFGN@?1@ DB '/', 00H			; `string'
CONST	ENDS
;	COMDAT ??_C@_01JLIPDDHJ@?3@
CONST	SEGMENT
??_C@_01JLIPDDHJ@?3@ DB ':', 00H			; `string'
CONST	ENDS
;	COMDAT ??_C@_0BJ@KELNJPON@Memory?5Exception?5occured@
CONST	SEGMENT
??_C@_0BJ@KELNJPON@Memory?5Exception?5occured@ DB 'Memory Exception occur'
	DB	'ed', 00H					; `string'
CONST	ENDS
;	COMDAT ??_C@_0BM@HBGNAEJJ@Cannot?5perform?5http?5request@
CONST	SEGMENT
??_C@_0BM@HBGNAEJJ@Cannot?5perform?5http?5request@ DB 'Cannot perform htt'
	DB	'p request', 00H				; `string'
CONST	ENDS
;	COMDAT ??_C@_0EK@PLOICMNN@Cannot?5perform?5http?5request?0?5Th@
CONST	SEGMENT
??_C@_0EK@PLOICMNN@Cannot?5perform?5http?5request?0?5Th@ DB 'Cannot perfo'
	DB	'rm http request, The attempt to connect to the server failed.'
	DB	00H						; `string'
CONST	ENDS
;	COMDAT ??_C@_0DB@CPBJMABP@Cannot?5perform?5http?5request?0?5Th@
CONST	SEGMENT
??_C@_0DB@CPBJMABP@Cannot?5perform?5http?5request?0?5Th@ DB 'Cannot perfo'
	DB	'rm http request, The URL is invalid.', 00H	; `string'
CONST	ENDS
;	COMDAT ??_C@_0DC@DMFLICKC@Content?9Type?3?5application?1x?9www@
CONST	SEGMENT
??_C@_0DC@DMFLICKC@Content?9Type?3?5application?1x?9www@ DB 'Content-Type'
	DB	': application/x-www-form-urlencoded', 0dH, 0aH, 00H ; `string'
CONST	ENDS
;	COMDAT ??_C@_04HCJEIHPL@POST@
CONST	SEGMENT
??_C@_04HCJEIHPL@POST@ DB 'POST', 00H			; `string'
CONST	ENDS
;	COMDAT ??_C@_17MLBOKGLB@?$AA?$CK?$AA?1?$AA?$CK@
CONST	SEGMENT
??_C@_17MLBOKGLB@?$AA?$CK?$AA?1?$AA?$CK@ DB '*', 00H, '/', 00H, '*', 00H, 00H
	DB	00H						; `string'
CONST	ENDS
;	COMDAT ??_C@_03KBBGFLEK@PUT@
CONST	SEGMENT
??_C@_03KBBGFLEK@PUT@ DB 'PUT', 00H			; `string'
CONST	ENDS
;	COMDAT ??_C@_0BL@EIHAOHFH@Cannot?5connect?5to?5internet@
CONST	SEGMENT
??_C@_0BL@EIHAOHFH@Cannot?5connect?5to?5internet@ DB 'Cannot connect to i'
	DB	'nternet', 00H				; `string'
CONST	ENDS
;	COMDAT ??_C@_0BF@PJCNEGDJ@Cannot?5open?5internet@
CONST	SEGMENT
??_C@_0BF@PJCNEGDJ@Cannot?5open?5internet@ DB 'Cannot open internet', 00H ; `string'
CONST	ENDS
;	COMDAT ??_C@_0GI@CPAALLND@E?3?2Proyectos?2JuegosOnlineproyec@
CONST	SEGMENT
??_C@_0GI@CPAALLND@E?3?2Proyectos?2JuegosOnlineproyec@ DB 'E:\Proyectos\J'
	DB	'uegosOnlineproyectos\PB\pbblow\Piercing Blow Remake\i3Server\'
	DB	'src\i3Base\i3NetworkHTTP.cpp', 00H		; `string'
CONST	ENDS
;	COMDAT ??_C@_0P@GPAIGMIA@I3NETWORK_HTTP@
CONST	SEGMENT
??_C@_0P@GPAIGMIA@I3NETWORK_HTTP@ DB 'I3NETWORK_HTTP', 00H ; `string'
CONST	ENDS
;	COMDAT ??_7i3NetworkHTTP@@6B@
CONST	SEGMENT
??_7i3NetworkHTTP@@6B@ DD FLAT:??_R4i3NetworkHTTP@@6B@	; i3NetworkHTTP::`vftable'
	DD	FLAT:?GetMeta@i3NetworkHTTP@@UAEPAVi3ClassMeta@@XZ
	DD	FLAT:??_Ei3NetworkHTTP@@UAEPAXI@Z
	DD	FLAT:?CopyTo@i3ElementBase@@UAEXPAV1@W4I3_COPY_METHOD@@@Z
CONST	ENDS
;	COMDAT ??_7i3StringList@@6B@
CONST	SEGMENT
??_7i3StringList@@6B@ DD FLAT:??_R4i3StringList@@6B@	; i3StringList::`vftable'
	DD	FLAT:?GetMeta@i3StringList@@UAEPAVi3ClassMeta@@XZ
	DD	FLAT:??_Ei3StringList@@UAEPAXI@Z
	DD	FLAT:?CopyTo@i3ElementBase@@UAEXPAV1@W4I3_COPY_METHOD@@@Z
	DD	FLAT:?IndexOf@i3StringList@@UBEHPAD@Z
	DD	FLAT:?Add@i3StringList@@UAEHPADH@Z
	DD	FLAT:?Insert@i3StringList@@UAEHHPADH@Z
	DD	FLAT:?Delete@i3StringList@@UAEHH@Z
	DD	FLAT:?Remove@i3StringList@@UAEHPAD@Z
	DD	FLAT:?Clear@i3StringList@@UAEXXZ
CONST	ENDS
;	COMDAT ??_C@_0GD@LNMGNFKI@E?3?2Proyectos?2JuegosOnlineproyec@
CONST	SEGMENT
??_C@_0GD@LNMGNFKI@E?3?2Proyectos?2JuegosOnlineproyec@ DB 'E:\Proyectos\J'
	DB	'uegosOnlineproyectos\PB\pbblow\Piercing Blow Remake\i3Server\'
	DB	'include\i3Base\i3List.h', 00H		; `string'
CONST	ENDS
;	COMDAT ??_7i3List@@6B@
CONST	SEGMENT
??_7i3List@@6B@ DD FLAT:??_R4i3List@@6B@		; i3List::`vftable'
	DD	FLAT:?GetMeta@i3List@@UAEPAVi3ClassMeta@@XZ
	DD	FLAT:??_Ei3List@@UAEPAXI@Z
	DD	FLAT:?CopyTo@i3ElementBase@@UAEXPAV1@W4I3_COPY_METHOD@@@Z
	DD	FLAT:?IndexOf@i3List@@UBEHPBX@Z
	DD	FLAT:?Add@i3List@@UAEHPAX@Z
	DD	FLAT:?Insert@i3List@@UAEHHPAX@Z
	DD	FLAT:?Delete@i3List@@UAEHH@Z
	DD	FLAT:?Remove@i3List@@UAEHPAX@Z
	DD	FLAT:?Clear@i3List@@UAEXH@Z
CONST	ENDS
;	COMDAT ??_7i3XMLElement@@6B@
CONST	SEGMENT
??_7i3XMLElement@@6B@ DD FLAT:??_R4i3XMLElement@@6B@	; i3XMLElement::`vftable'
	DD	FLAT:??_Ei3XMLElement@@UAEPAXI@Z
	DD	FLAT:?Print@TiXmlElement@@UBEXPAVi3FileStream@@H@Z
	DD	FLAT:?Parse@TiXmlElement@@UAEPBDPBDPAVTiXmlParsingData@@W4TiXmlEncoding@@@Z
	DD	FLAT:?ToDocument@TiXmlNode@@UAEPAVTiXmlDocument@@XZ
	DD	FLAT:?ToDocument@TiXmlNode@@UBEPBVTiXmlDocument@@XZ
	DD	FLAT:?ToElement@TiXmlElement@@UAEPAV1@XZ
	DD	FLAT:?ToElement@TiXmlElement@@UBEPBV1@XZ
	DD	FLAT:?ToComment@TiXmlNode@@UAEPAVTiXmlComment@@XZ
	DD	FLAT:?ToComment@TiXmlNode@@UBEPBVTiXmlComment@@XZ
	DD	FLAT:?ToUnknown@TiXmlNode@@UAEPAVTiXmlUnknown@@XZ
	DD	FLAT:?ToUnknown@TiXmlNode@@UBEPBVTiXmlUnknown@@XZ
	DD	FLAT:?ToText@TiXmlNode@@UAEPAVTiXmlText@@XZ
	DD	FLAT:?ToText@TiXmlNode@@UBEPBVTiXmlText@@XZ
	DD	FLAT:?ToDeclaration@TiXmlNode@@UAEPAVTiXmlDeclaration@@XZ
	DD	FLAT:?ToDeclaration@TiXmlNode@@UBEPBVTiXmlDeclaration@@XZ
	DD	FLAT:?Clone@TiXmlElement@@UBEPAVTiXmlNode@@XZ
	DD	FLAT:?Accept@TiXmlElement@@UBE_NPAVTiXmlVisitor@@@Z
CONST	ENDS
;	COMDAT ??_C@_01EEMJAFIK@?6@
CONST	SEGMENT
??_C@_01EEMJAFIK@?6@ DB 0aH, 00H			; `string'
CONST	ENDS
;	COMDAT ??_C@_04PFOHOKJK@?5?5?5?5@
CONST	SEGMENT
??_C@_04PFOHOKJK@?5?5?5?5@ DB '    ', 00H		; `string'
CONST	ENDS
;	COMDAT ??_7TiXmlPrinter@@6B@
CONST	SEGMENT
??_7TiXmlPrinter@@6B@ DD FLAT:??_R4TiXmlPrinter@@6B@	; TiXmlPrinter::`vftable'
	DD	FLAT:??_ETiXmlPrinter@@UAEPAXI@Z
	DD	FLAT:?VisitEnter@TiXmlPrinter@@UAE_NABVTiXmlElement@@PBVTiXmlAttribute@@@Z
	DD	FLAT:?VisitEnter@TiXmlPrinter@@UAE_NABVTiXmlDocument@@@Z
	DD	FLAT:?VisitExit@TiXmlPrinter@@UAE_NABVTiXmlElement@@@Z
	DD	FLAT:?VisitExit@TiXmlPrinter@@UAE_NABVTiXmlDocument@@@Z
	DD	FLAT:?Visit@TiXmlPrinter@@UAE_NABVTiXmlUnknown@@@Z
	DD	FLAT:?Visit@TiXmlPrinter@@UAE_NABVTiXmlComment@@@Z
	DD	FLAT:?Visit@TiXmlPrinter@@UAE_NABVTiXmlText@@@Z
	DD	FLAT:?Visit@TiXmlPrinter@@UAE_NABVTiXmlDeclaration@@@Z
CONST	ENDS
;	COMDAT ??_C@_00CNPNBAHC@@
CONST	SEGMENT
??_C@_00CNPNBAHC@@ DB 00H				; `string'
CONST	ENDS
;	COMDAT ??_7TiXmlDocument@@6B@
CONST	SEGMENT
??_7TiXmlDocument@@6B@ DD FLAT:??_R4TiXmlDocument@@6B@	; TiXmlDocument::`vftable'
	DD	FLAT:??_ETiXmlDocument@@UAEPAXI@Z
	DD	FLAT:?Print@TiXmlDocument@@UBEXPAVi3FileStream@@H@Z
	DD	FLAT:?Parse@TiXmlDocument@@UAEPBDPBDPAVTiXmlParsingData@@W4TiXmlEncoding@@@Z
	DD	FLAT:?ToDocument@TiXmlDocument@@UAEPAV1@XZ
	DD	FLAT:?ToDocument@TiXmlDocument@@UBEPBV1@XZ
	DD	FLAT:?ToElement@TiXmlNode@@UAEPAVTiXmlElement@@XZ
	DD	FLAT:?ToElement@TiXmlNode@@UBEPBVTiXmlElement@@XZ
	DD	FLAT:?ToComment@TiXmlNode@@UAEPAVTiXmlComment@@XZ
	DD	FLAT:?ToComment@TiXmlNode@@UBEPBVTiXmlComment@@XZ
	DD	FLAT:?ToUnknown@TiXmlNode@@UAEPAVTiXmlUnknown@@XZ
	DD	FLAT:?ToUnknown@TiXmlNode@@UBEPBVTiXmlUnknown@@XZ
	DD	FLAT:?ToText@TiXmlNode@@UAEPAVTiXmlText@@XZ
	DD	FLAT:?ToText@TiXmlNode@@UBEPBVTiXmlText@@XZ
	DD	FLAT:?ToDeclaration@TiXmlNode@@UAEPAVTiXmlDeclaration@@XZ
	DD	FLAT:?ToDeclaration@TiXmlNode@@UBEPBVTiXmlDeclaration@@XZ
	DD	FLAT:?Clone@TiXmlDocument@@MBEPAVTiXmlNode@@XZ
	DD	FLAT:?Accept@TiXmlDocument@@UBE_NPAVTiXmlVisitor@@@Z
CONST	ENDS
;	COMDAT ??_7TiXmlUnknown@@6B@
CONST	SEGMENT
??_7TiXmlUnknown@@6B@ DD FLAT:??_R4TiXmlUnknown@@6B@	; TiXmlUnknown::`vftable'
	DD	FLAT:??_ETiXmlUnknown@@UAEPAXI@Z
	DD	FLAT:?Print@TiXmlUnknown@@UBEXPAVi3FileStream@@H@Z
	DD	FLAT:?Parse@TiXmlUnknown@@UAEPBDPBDPAVTiXmlParsingData@@W4TiXmlEncoding@@@Z
	DD	FLAT:?ToDocument@TiXmlNode@@UAEPAVTiXmlDocument@@XZ
	DD	FLAT:?ToDocument@TiXmlNode@@UBEPBVTiXmlDocument@@XZ
	DD	FLAT:?ToElement@TiXmlNode@@UAEPAVTiXmlElement@@XZ
	DD	FLAT:?ToElement@TiXmlNode@@UBEPBVTiXmlElement@@XZ
	DD	FLAT:?ToComment@TiXmlNode@@UAEPAVTiXmlComment@@XZ
	DD	FLAT:?ToComment@TiXmlNode@@UBEPBVTiXmlComment@@XZ
	DD	FLAT:?ToUnknown@TiXmlUnknown@@UAEPAV1@XZ
	DD	FLAT:?ToUnknown@TiXmlUnknown@@UBEPBV1@XZ
	DD	FLAT:?ToText@TiXmlNode@@UAEPAVTiXmlText@@XZ
	DD	FLAT:?ToText@TiXmlNode@@UBEPBVTiXmlText@@XZ
	DD	FLAT:?ToDeclaration@TiXmlNode@@UAEPAVTiXmlDeclaration@@XZ
	DD	FLAT:?ToDeclaration@TiXmlNode@@UBEPBVTiXmlDeclaration@@XZ
	DD	FLAT:?Clone@TiXmlUnknown@@UBEPAVTiXmlNode@@XZ
	DD	FLAT:?Accept@TiXmlUnknown@@UBE_NPAVTiXmlVisitor@@@Z
CONST	ENDS
;	COMDAT ??_7TiXmlDeclaration@@6B@
CONST	SEGMENT
??_7TiXmlDeclaration@@6B@ DD FLAT:??_R4TiXmlDeclaration@@6B@ ; TiXmlDeclaration::`vftable'
	DD	FLAT:??_ETiXmlDeclaration@@UAEPAXI@Z
	DD	FLAT:?Print@TiXmlDeclaration@@UBEXPAVi3FileStream@@H@Z
	DD	FLAT:?Parse@TiXmlDeclaration@@UAEPBDPBDPAVTiXmlParsingData@@W4TiXmlEncoding@@@Z
	DD	FLAT:?ToDocument@TiXmlNode@@UAEPAVTiXmlDocument@@XZ
	DD	FLAT:?ToDocument@TiXmlNode@@UBEPBVTiXmlDocument@@XZ
	DD	FLAT:?ToElement@TiXmlNode@@UAEPAVTiXmlElement@@XZ
	DD	FLAT:?ToElement@TiXmlNode@@UBEPBVTiXmlElement@@XZ
	DD	FLAT:?ToComment@TiXmlNode@@UAEPAVTiXmlComment@@XZ
	DD	FLAT:?ToComment@TiXmlNode@@UBEPBVTiXmlComment@@XZ
	DD	FLAT:?ToUnknown@TiXmlNode@@UAEPAVTiXmlUnknown@@XZ
	DD	FLAT:?ToUnknown@TiXmlNode@@UBEPBVTiXmlUnknown@@XZ
	DD	FLAT:?ToText@TiXmlNode@@UAEPAVTiXmlText@@XZ
	DD	FLAT:?ToText@TiXmlNode@@UBEPBVTiXmlText@@XZ
	DD	FLAT:?ToDeclaration@TiXmlDeclaration@@UAEPAV1@XZ
	DD	FLAT:?ToDeclaration@TiXmlDeclaration@@UBEPBV1@XZ
	DD	FLAT:?Clone@TiXmlDeclaration@@UBEPAVTiXmlNode@@XZ
	DD	FLAT:?Accept@TiXmlDeclaration@@UBE_NPAVTiXmlVisitor@@@Z
	DD	FLAT:?Print@TiXmlDeclaration@@UBEXPAVi3FileStream@@HPAVTiXmlString@@@Z
CONST	ENDS
;	COMDAT ??_7TiXmlText@@6B@
CONST	SEGMENT
??_7TiXmlText@@6B@ DD FLAT:??_R4TiXmlText@@6B@		; TiXmlText::`vftable'
	DD	FLAT:??_ETiXmlText@@UAEPAXI@Z
	DD	FLAT:?Print@TiXmlText@@UBEXPAVi3FileStream@@H@Z
	DD	FLAT:?Parse@TiXmlText@@UAEPBDPBDPAVTiXmlParsingData@@W4TiXmlEncoding@@@Z
	DD	FLAT:?ToDocument@TiXmlNode@@UAEPAVTiXmlDocument@@XZ
	DD	FLAT:?ToDocument@TiXmlNode@@UBEPBVTiXmlDocument@@XZ
	DD	FLAT:?ToElement@TiXmlNode@@UAEPAVTiXmlElement@@XZ
	DD	FLAT:?ToElement@TiXmlNode@@UBEPBVTiXmlElement@@XZ
	DD	FLAT:?ToComment@TiXmlNode@@UAEPAVTiXmlComment@@XZ
	DD	FLAT:?ToComment@TiXmlNode@@UBEPBVTiXmlComment@@XZ
	DD	FLAT:?ToUnknown@TiXmlNode@@UAEPAVTiXmlUnknown@@XZ
	DD	FLAT:?ToUnknown@TiXmlNode@@UBEPBVTiXmlUnknown@@XZ
	DD	FLAT:?ToText@TiXmlText@@UAEPAV1@XZ
	DD	FLAT:?ToText@TiXmlText@@UBEPBV1@XZ
	DD	FLAT:?ToDeclaration@TiXmlNode@@UAEPAVTiXmlDeclaration@@XZ
	DD	FLAT:?ToDeclaration@TiXmlNode@@UBEPBVTiXmlDeclaration@@XZ
	DD	FLAT:?Clone@TiXmlText@@MBEPAVTiXmlNode@@XZ
	DD	FLAT:?Accept@TiXmlText@@UBE_NPAVTiXmlVisitor@@@Z
CONST	ENDS
;	COMDAT ??_7TiXmlComment@@6B@
CONST	SEGMENT
??_7TiXmlComment@@6B@ DD FLAT:??_R4TiXmlComment@@6B@	; TiXmlComment::`vftable'
	DD	FLAT:??_ETiXmlComment@@UAEPAXI@Z
	DD	FLAT:?Print@TiXmlComment@@UBEXPAVi3FileStream@@H@Z
	DD	FLAT:?Parse@TiXmlComment@@UAEPBDPBDPAVTiXmlParsingData@@W4TiXmlEncoding@@@Z
	DD	FLAT:?ToDocument@TiXmlNode@@UAEPAVTiXmlDocument@@XZ
	DD	FLAT:?ToDocument@TiXmlNode@@UBEPBVTiXmlDocument@@XZ
	DD	FLAT:?ToElement@TiXmlNode@@UAEPAVTiXmlElement@@XZ
	DD	FLAT:?ToElement@TiXmlNode@@UBEPBVTiXmlElement@@XZ
	DD	FLAT:?ToComment@TiXmlComment@@UAEPAV1@XZ
	DD	FLAT:?ToComment@TiXmlComment@@UBEPBV1@XZ
	DD	FLAT:?ToUnknown@TiXmlNode@@UAEPAVTiXmlUnknown@@XZ
	DD	FLAT:?ToUnknown@TiXmlNode@@UBEPBVTiXmlUnknown@@XZ
	DD	FLAT:?ToText@TiXmlNode@@UAEPAVTiXmlText@@XZ
	DD	FLAT:?ToText@TiXmlNode@@UBEPBVTiXmlText@@XZ
	DD	FLAT:?ToDeclaration@TiXmlNode@@UAEPAVTiXmlDeclaration@@XZ
	DD	FLAT:?ToDeclaration@TiXmlNode@@UBEPBVTiXmlDeclaration@@XZ
	DD	FLAT:?Clone@TiXmlComment@@UBEPAVTiXmlNode@@XZ
	DD	FLAT:?Accept@TiXmlComment@@UBE_NPAVTiXmlVisitor@@@Z
CONST	ENDS
;	COMDAT ??_7TiXmlAttribute@@6B@
CONST	SEGMENT
??_7TiXmlAttribute@@6B@ DD FLAT:??_R4TiXmlAttribute@@6B@ ; TiXmlAttribute::`vftable'
	DD	FLAT:??_ETiXmlAttribute@@UAEPAXI@Z
	DD	FLAT:?Print@TiXmlAttribute@@UBEXPAVi3FileStream@@H@Z
	DD	FLAT:?Parse@TiXmlAttribute@@UAEPBDPBDPAVTiXmlParsingData@@W4TiXmlEncoding@@@Z
CONST	ENDS
;	COMDAT ??_7TiXmlBase@@6B@
CONST	SEGMENT
??_7TiXmlBase@@6B@ DD FLAT:??_R4TiXmlBase@@6B@		; TiXmlBase::`vftable'
	DD	FLAT:??_ETiXmlBase@@UAEPAXI@Z
	DD	FLAT:__purecall
	DD	FLAT:__purecall
CONST	ENDS
;	COMDAT ??_7TiXmlVisitor@@6B@
CONST	SEGMENT
??_7TiXmlVisitor@@6B@ DD FLAT:??_R4TiXmlVisitor@@6B@	; TiXmlVisitor::`vftable'
	DD	FLAT:??_ETiXmlVisitor@@UAEPAXI@Z
	DD	FLAT:?VisitEnter@TiXmlVisitor@@UAE_NABVTiXmlElement@@PBVTiXmlAttribute@@@Z
	DD	FLAT:?VisitEnter@TiXmlVisitor@@UAE_NABVTiXmlDocument@@@Z
	DD	FLAT:?VisitExit@TiXmlVisitor@@UAE_NABVTiXmlElement@@@Z
	DD	FLAT:?VisitExit@TiXmlVisitor@@UAE_NABVTiXmlDocument@@@Z
	DD	FLAT:?Visit@TiXmlVisitor@@UAE_NABVTiXmlUnknown@@@Z
	DD	FLAT:?Visit@TiXmlVisitor@@UAE_NABVTiXmlComment@@@Z
	DD	FLAT:?Visit@TiXmlVisitor@@UAE_NABVTiXmlText@@@Z
	DD	FLAT:?Visit@TiXmlVisitor@@UAE_NABVTiXmlDeclaration@@@Z
CONST	ENDS
;	COMDAT ??_7i3FileStream@@6B@
CONST	SEGMENT
??_7i3FileStream@@6B@ DD FLAT:??_R4i3FileStream@@6B@	; i3FileStream::`vftable'
	DD	FLAT:?GetMeta@i3FileStream@@UAEPAVi3ClassMeta@@XZ
	DD	FLAT:??_Ei3FileStream@@UAEPAXI@Z
	DD	FLAT:?CopyTo@i3ElementBase@@UAEXPAV1@W4I3_COPY_METHOD@@@Z
	DD	FLAT:?GetHandle@i3FileStream@@UAEPAXXZ
	DD	FLAT:?Create@i3FileStream@@UAEHPBDHI@Z
	DD	FLAT:?Open@i3FileStream@@UAEHPBDHI@Z
	DD	FLAT:?Close@i3FileStream@@UAEHXZ
	DD	FLAT:?Read@i3FileStream@@UAEIPAXH@Z
	DD	FLAT:?CopyTo@i3Stream@@UAEIPAV1@I@Z
	DD	FLAT:?Write@i3FileStream@@UAEIPBXH@Z
	DD	FLAT:?CopyFrom@i3Stream@@UAEIPAV1@I@Z
	DD	FLAT:?SetPosition@i3FileStream@@UAEIHH@Z
	DD	FLAT:?GetPosition@i3FileStream@@UAEIXZ
	DD	FLAT:?ReadLine@i3Stream@@UAEIPADH@Z
	DD	FLAT:?ReadLineW@i3Stream@@UAEIPAGH@Z
	DD	FLAT:?WriteLine@i3Stream@@UAEIPBD@Z
	DD	FLAT:?WriteLineW@i3Stream@@UAEIPBG@Z
	DD	FLAT:?Printf@i3Stream@@UAAIPADPBDZZ
CONST	ENDS
;	COMDAT ??_7i3Stream@@6B@
CONST	SEGMENT
??_7i3Stream@@6B@ DD FLAT:??_R4i3Stream@@6B@		; i3Stream::`vftable'
	DD	FLAT:?GetMeta@i3Stream@@UAEPAVi3ClassMeta@@XZ
	DD	FLAT:??_Ei3Stream@@UAEPAXI@Z
	DD	FLAT:?CopyTo@i3ElementBase@@UAEXPAV1@W4I3_COPY_METHOD@@@Z
	DD	FLAT:?GetHandle@i3Stream@@UAEPAXXZ
	DD	FLAT:__purecall
	DD	FLAT:__purecall
	DD	FLAT:__purecall
	DD	FLAT:__purecall
	DD	FLAT:?CopyTo@i3Stream@@UAEIPAV1@I@Z
	DD	FLAT:__purecall
	DD	FLAT:?CopyFrom@i3Stream@@UAEIPAV1@I@Z
	DD	FLAT:__purecall
	DD	FLAT:__purecall
	DD	FLAT:?ReadLine@i3Stream@@UAEIPADH@Z
	DD	FLAT:?ReadLineW@i3Stream@@UAEIPAGH@Z
	DD	FLAT:?WriteLine@i3Stream@@UAEIPBD@Z
	DD	FLAT:?WriteLineW@i3Stream@@UAEIPBG@Z
	DD	FLAT:?Printf@i3Stream@@UAAIPADPBDZZ
CONST	ENDS
;	COMDAT ??_7i3MemoryPool@@6B@
CONST	SEGMENT
??_7i3MemoryPool@@6B@ DD FLAT:??_R4i3MemoryPool@@6B@	; i3MemoryPool::`vftable'
	DD	FLAT:??_Ei3MemoryPool@@UAEPAXI@Z
	DD	FLAT:__purecall
	DD	FLAT:__purecall
CONST	ENDS
;	COMDAT ??_7i3ElementBase@@6B@
CONST	SEGMENT
??_7i3ElementBase@@6B@ DD FLAT:??_R4i3ElementBase@@6B@	; i3ElementBase::`vftable'
	DD	FLAT:?GetMeta@i3ElementBase@@UAEPAVi3ClassMeta@@XZ
	DD	FLAT:??_Ei3ElementBase@@UAEPAXI@Z
	DD	FLAT:?CopyTo@i3ElementBase@@UAEXPAV1@W4I3_COPY_METHOD@@@Z
CONST	ENDS
;	COMDAT ??_7i3ClassMeta@@6B@
CONST	SEGMENT
??_7i3ClassMeta@@6B@ DD FLAT:??_R4i3ClassMeta@@6B@	; i3ClassMeta::`vftable'
	DD	FLAT:??_Ei3ClassMeta@@UAEPAXI@Z
	DD	FLAT:?CreateInstance@i3ClassMeta@@UAEPAVi3ElementBase@@W4I3_CLASSMETA_TYPE@@@Z
	DD	FLAT:?BindInstance@i3ClassMeta@@UAEPAVi3ElementBase@@PAXW4I3_CLASSMETA_TYPE@@@Z
CONST	ENDS
;	COMDAT xdata$x
xdata$x	SEGMENT
__unwindtable$?BindInstance@?$i3MetaTemplate@Vi3NetworkHTTP@@@@UAEPAVi3ElementBase@@PAXW4I3_CLASSMETA_TYPE@@@Z DD 0ffffffffH
	DD	FLAT:__unwindfunclet$?BindInstance@?$i3MetaTemplate@Vi3NetworkHTTP@@@@UAEPAVi3ElementBase@@PAXW4I3_CLASSMETA_TYPE@@@Z$0
__ehfuncinfo$?BindInstance@?$i3MetaTemplate@Vi3NetworkHTTP@@@@UAEPAVi3ElementBase@@PAXW4I3_CLASSMETA_TYPE@@@Z DD 019930522H
	DD	01H
	DD	FLAT:__unwindtable$?BindInstance@?$i3MetaTemplate@Vi3NetworkHTTP@@@@UAEPAVi3ElementBase@@PAXW4I3_CLASSMETA_TYPE@@@Z
	DD	2 DUP(00H)
	DD	2 DUP(00H)
	DD	00H
	DD	01H
xdata$x	ENDS
;	COMDAT xdata$x
xdata$x	SEGMENT
__unwindtable$?CreateInstance@?$i3MetaTemplate@Vi3NetworkHTTP@@@@UAEPAVi3ElementBase@@W4I3_CLASSMETA_TYPE@@@Z DD 0ffffffffH
	DD	FLAT:__unwindfunclet$?CreateInstance@?$i3MetaTemplate@Vi3NetworkHTTP@@@@UAEPAVi3ElementBase@@W4I3_CLASSMETA_TYPE@@@Z$0
__ehfuncinfo$?CreateInstance@?$i3MetaTemplate@Vi3NetworkHTTP@@@@UAEPAVi3ElementBase@@W4I3_CLASSMETA_TYPE@@@Z DD 019930522H
	DD	01H
	DD	FLAT:__unwindtable$?CreateInstance@?$i3MetaTemplate@Vi3NetworkHTTP@@@@UAEPAVi3ElementBase@@W4I3_CLASSMETA_TYPE@@@Z
	DD	2 DUP(00H)
	DD	2 DUP(00H)
	DD	00H
	DD	01H
xdata$x	ENDS
;	COMDAT xdata$x
xdata$x	SEGMENT
__unwindtable$??_Ei3NetworkHTTP@@UAEPAXI@Z DD 0ffffffffH
	DD	FLAT:___std_terminate
__ehfuncinfo$??_Ei3NetworkHTTP@@UAEPAXI@Z DD 019930522H
	DD	01H
	DD	FLAT:__unwindtable$??_Ei3NetworkHTTP@@UAEPAXI@Z
	DD	2 DUP(00H)
	DD	2 DUP(00H)
	DD	00H
	DD	05H
xdata$x	ENDS
;	COMDAT xdata$x
xdata$x	SEGMENT
__unwindtable$??_Gi3NetworkHTTP@@UAEPAXI@Z DD 0ffffffffH
	DD	FLAT:___std_terminate
__ehfuncinfo$??_Gi3NetworkHTTP@@UAEPAXI@Z DD 019930522H
	DD	01H
	DD	FLAT:__unwindtable$??_Gi3NetworkHTTP@@UAEPAXI@Z
	DD	2 DUP(00H)
	DD	2 DUP(00H)
	DD	00H
	DD	05H
xdata$x	ENDS
;	COMDAT voltbl
voltbl	SEGMENT
_volmd	DB	061H
voltbl	ENDS
;	COMDAT xdata$x
xdata$x	SEGMENT
__catchsym$?SendRequestPost@i3NetworkHTTP@@QAEHXZ$2 DD 040H
	DD	00H
	DD	00H
	DD	FLAT:__catch$?SendRequestPost@i3NetworkHTTP@@QAEHXZ$0
__unwindtable$?SendRequestPost@i3NetworkHTTP@@QAEHXZ DD 0ffffffffH
	DD	00H
	DD	0ffffffffH
	DD	00H
__tryblocktable$?SendRequestPost@i3NetworkHTTP@@QAEHXZ DD 00H
	DD	00H
	DD	01H
	DD	01H
	DD	FLAT:__catchsym$?SendRequestPost@i3NetworkHTTP@@QAEHXZ$2
__ehfuncinfo$?SendRequestPost@i3NetworkHTTP@@QAEHXZ DD 019930522H
	DD	02H
	DD	FLAT:__unwindtable$?SendRequestPost@i3NetworkHTTP@@QAEHXZ
	DD	01H
	DD	FLAT:__tryblocktable$?SendRequestPost@i3NetworkHTTP@@QAEHXZ
	DD	2 DUP(00H)
	DD	00H
	DD	01H
xdata$x	ENDS
;	COMDAT xdata$x
xdata$x	SEGMENT
__ehfuncinfo$??1i3NetworkHTTP@@UAE@XZ DD 019930522H
	DD	00H
	DD	00H
	DD	2 DUP(00H)
	DD	2 DUP(00H)
	DD	00H
	DD	05H
xdata$x	ENDS
;	COMDAT voltbl
voltbl	SEGMENT
_volmd	DW	0c0H
	DW	0d6H
	DW	0f0H
	DW	0106H
	DW	0120H
	DW	0136H
	DW	0150H
	DW	01c0H
voltbl	ENDS
;	COMDAT xdata$x
xdata$x	SEGMENT
__unwindtable$??0i3NetworkHTTP@@QAE@XZ DD 0ffffffffH
	DD	FLAT:__unwindfunclet$??0i3NetworkHTTP@@QAE@XZ$0
	DD	00H
	DD	FLAT:__unwindfunclet$??0i3NetworkHTTP@@QAE@XZ$1
__ehfuncinfo$??0i3NetworkHTTP@@QAE@XZ DD 019930522H
	DD	02H
	DD	FLAT:__unwindtable$??0i3NetworkHTTP@@QAE@XZ
	DD	2 DUP(00H)
	DD	2 DUP(00H)
	DD	00H
	DD	01H
xdata$x	ENDS
;	COMDAT xdata$x
xdata$x	SEGMENT
__ehfuncinfo$??_Ei3StringList@@UAEPAXI@Z DD 019930522H
	DD	00H
	DD	00H
	DD	2 DUP(00H)
	DD	2 DUP(00H)
	DD	00H
	DD	05H
xdata$x	ENDS
;	COMDAT xdata$x
xdata$x	SEGMENT
__ehfuncinfo$??_Ei3List@@UAEPAXI@Z DD 019930522H
	DD	00H
	DD	00H
	DD	2 DUP(00H)
	DD	2 DUP(00H)
	DD	00H
	DD	05H
xdata$x	ENDS
;	COMDAT xdata$x
xdata$x	SEGMENT
__ehfuncinfo$??_Ei3XMLElement@@UAEPAXI@Z DD 019930522H
	DD	00H
	DD	00H
	DD	2 DUP(00H)
	DD	2 DUP(00H)
	DD	00H
	DD	05H
xdata$x	ENDS
;	COMDAT xdata$x
xdata$x	SEGMENT
__ehfuncinfo$??_ETiXmlPrinter@@UAEPAXI@Z DD 019930522H
	DD	00H
	DD	00H
	DD	2 DUP(00H)
	DD	2 DUP(00H)
	DD	00H
	DD	05H
xdata$x	ENDS
;	COMDAT xdata$x
xdata$x	SEGMENT
__unwindtable$??0TiXmlPrinter@@QAE@$$QAV0@@Z DD 0ffffffffH
	DD	FLAT:__unwindfunclet$??0TiXmlPrinter@@QAE@$$QAV0@@Z$0
	DD	00H
	DD	FLAT:__unwindfunclet$??0TiXmlPrinter@@QAE@$$QAV0@@Z$1
	DD	01H
	DD	FLAT:__unwindfunclet$??0TiXmlPrinter@@QAE@$$QAV0@@Z$2
__ehfuncinfo$??0TiXmlPrinter@@QAE@$$QAV0@@Z DD 019930522H
	DD	03H
	DD	FLAT:__unwindtable$??0TiXmlPrinter@@QAE@$$QAV0@@Z
	DD	2 DUP(00H)
	DD	2 DUP(00H)
	DD	00H
	DD	01H
xdata$x	ENDS
;	COMDAT xdata$x
xdata$x	SEGMENT
__unwindtable$??0TiXmlPrinter@@QAE@ABV0@@Z DD 0ffffffffH
	DD	FLAT:__unwindfunclet$??0TiXmlPrinter@@QAE@ABV0@@Z$0
	DD	00H
	DD	FLAT:__unwindfunclet$??0TiXmlPrinter@@QAE@ABV0@@Z$1
	DD	01H
	DD	FLAT:__unwindfunclet$??0TiXmlPrinter@@QAE@ABV0@@Z$2
__ehfuncinfo$??0TiXmlPrinter@@QAE@ABV0@@Z DD 019930522H
	DD	03H
	DD	FLAT:__unwindtable$??0TiXmlPrinter@@QAE@ABV0@@Z
	DD	2 DUP(00H)
	DD	2 DUP(00H)
	DD	00H
	DD	01H
xdata$x	ENDS
;	COMDAT xdata$x
xdata$x	SEGMENT
__unwindtable$??0TiXmlPrinter@@QAE@XZ DD 0ffffffffH
	DD	FLAT:__unwindfunclet$??0TiXmlPrinter@@QAE@XZ$0
	DD	00H
	DD	FLAT:__unwindfunclet$??0TiXmlPrinter@@QAE@XZ$1
	DD	01H
	DD	FLAT:__unwindfunclet$??0TiXmlPrinter@@QAE@XZ$2
__ehfuncinfo$??0TiXmlPrinter@@QAE@XZ DD 019930522H
	DD	03H
	DD	FLAT:__unwindtable$??0TiXmlPrinter@@QAE@XZ
	DD	2 DUP(00H)
	DD	2 DUP(00H)
	DD	00H
	DD	01H
xdata$x	ENDS
;	COMDAT xdata$x
xdata$x	SEGMENT
__ehfuncinfo$??_ETiXmlDocument@@UAEPAXI@Z DD 019930522H
	DD	00H
	DD	00H
	DD	2 DUP(00H)
	DD	2 DUP(00H)
	DD	00H
	DD	05H
xdata$x	ENDS
;	COMDAT xdata$x
xdata$x	SEGMENT
__ehfuncinfo$??_ETiXmlUnknown@@UAEPAXI@Z DD 019930522H
	DD	00H
	DD	00H
	DD	2 DUP(00H)
	DD	2 DUP(00H)
	DD	00H
	DD	05H
xdata$x	ENDS
;	COMDAT xdata$x
xdata$x	SEGMENT
__unwindtable$??0TiXmlUnknown@@QAE@ABV0@@Z DD 0ffffffffH
	DD	FLAT:__unwindfunclet$??0TiXmlUnknown@@QAE@ABV0@@Z$0
__ehfuncinfo$??0TiXmlUnknown@@QAE@ABV0@@Z DD 019930522H
	DD	01H
	DD	FLAT:__unwindtable$??0TiXmlUnknown@@QAE@ABV0@@Z
	DD	2 DUP(00H)
	DD	2 DUP(00H)
	DD	00H
	DD	01H
xdata$x	ENDS
;	COMDAT xdata$x
xdata$x	SEGMENT
__ehfuncinfo$??_ETiXmlDeclaration@@UAEPAXI@Z DD 019930522H
	DD	00H
	DD	00H
	DD	2 DUP(00H)
	DD	2 DUP(00H)
	DD	00H
	DD	05H
xdata$x	ENDS
;	COMDAT xdata$x
xdata$x	SEGMENT
__ehfuncinfo$??_ETiXmlText@@UAEPAXI@Z DD 019930522H
	DD	00H
	DD	00H
	DD	2 DUP(00H)
	DD	2 DUP(00H)
	DD	00H
	DD	05H
xdata$x	ENDS
;	COMDAT xdata$x
xdata$x	SEGMENT
__unwindtable$??0TiXmlText@@QAE@ABV0@@Z DD 0ffffffffH
	DD	FLAT:__unwindfunclet$??0TiXmlText@@QAE@ABV0@@Z$0
__ehfuncinfo$??0TiXmlText@@QAE@ABV0@@Z DD 019930522H
	DD	01H
	DD	FLAT:__unwindtable$??0TiXmlText@@QAE@ABV0@@Z
	DD	2 DUP(00H)
	DD	2 DUP(00H)
	DD	00H
	DD	01H
xdata$x	ENDS
;	COMDAT xdata$x
xdata$x	SEGMENT
__unwindtable$??0TiXmlText@@QAE@PBD@Z DD 0ffffffffH
	DD	FLAT:__unwindfunclet$??0TiXmlText@@QAE@PBD@Z$0
__ehfuncinfo$??0TiXmlText@@QAE@PBD@Z DD 019930522H
	DD	01H
	DD	FLAT:__unwindtable$??0TiXmlText@@QAE@PBD@Z
	DD	2 DUP(00H)
	DD	2 DUP(00H)
	DD	00H
	DD	01H
xdata$x	ENDS
;	COMDAT xdata$x
xdata$x	SEGMENT
__ehfuncinfo$??_ETiXmlComment@@UAEPAXI@Z DD 019930522H
	DD	00H
	DD	00H
	DD	2 DUP(00H)
	DD	2 DUP(00H)
	DD	00H
	DD	05H
xdata$x	ENDS
;	COMDAT xdata$x
xdata$x	SEGMENT
__unwindtable$??0TiXmlComment@@QAE@PBD@Z DD 0ffffffffH
	DD	FLAT:__unwindfunclet$??0TiXmlComment@@QAE@PBD@Z$0
__ehfuncinfo$??0TiXmlComment@@QAE@PBD@Z DD 019930522H
	DD	01H
	DD	FLAT:__unwindtable$??0TiXmlComment@@QAE@PBD@Z
	DD	2 DUP(00H)
	DD	2 DUP(00H)
	DD	00H
	DD	01H
xdata$x	ENDS
;	COMDAT xdata$x
xdata$x	SEGMENT
__ehfuncinfo$??_ETiXmlAttribute@@UAEPAXI@Z DD 019930522H
	DD	00H
	DD	00H
	DD	2 DUP(00H)
	DD	2 DUP(00H)
	DD	00H
	DD	05H
xdata$x	ENDS
;	COMDAT xdata$x
xdata$x	SEGMENT
__unwindtable$??0TiXmlAttribute@@QAE@PBD0@Z DD 0ffffffffH
	DD	FLAT:__unwindfunclet$??0TiXmlAttribute@@QAE@PBD0@Z$0
	DD	00H
	DD	FLAT:__unwindfunclet$??0TiXmlAttribute@@QAE@PBD0@Z$1
	DD	01H
	DD	FLAT:__unwindfunclet$??0TiXmlAttribute@@QAE@PBD0@Z$2
__ehfuncinfo$??0TiXmlAttribute@@QAE@PBD0@Z DD 019930522H
	DD	03H
	DD	FLAT:__unwindtable$??0TiXmlAttribute@@QAE@PBD0@Z
	DD	2 DUP(00H)
	DD	2 DUP(00H)
	DD	00H
	DD	01H
xdata$x	ENDS
;	COMDAT xdata$x
xdata$x	SEGMENT
__ehfuncinfo$??_ETiXmlBase@@UAEPAXI@Z DD 019930522H
	DD	00H
	DD	00H
	DD	2 DUP(00H)
	DD	2 DUP(00H)
	DD	00H
	DD	05H
xdata$x	ENDS
;	COMDAT xdata$x
xdata$x	SEGMENT
__ehfuncinfo$??_ETiXmlVisitor@@UAEPAXI@Z DD 019930522H
	DD	00H
	DD	00H
	DD	2 DUP(00H)
	DD	2 DUP(00H)
	DD	00H
	DD	05H
xdata$x	ENDS
;	COMDAT xdata$x
xdata$x	SEGMENT
__ehfuncinfo$??_Ei3FileStream@@UAEPAXI@Z DD 019930522H
	DD	00H
	DD	00H
	DD	2 DUP(00H)
	DD	2 DUP(00H)
	DD	00H
	DD	05H
xdata$x	ENDS
;	COMDAT xdata$x
xdata$x	SEGMENT
__ehfuncinfo$??_Ei3Stream@@UAEPAXI@Z DD 019930522H
	DD	00H
	DD	00H
	DD	2 DUP(00H)
	DD	2 DUP(00H)
	DD	00H
	DD	05H
xdata$x	ENDS
;	COMDAT xdata$x
xdata$x	SEGMENT
__ehfuncinfo$??_Ei3MemoryPool@@UAEPAXI@Z DD 019930522H
	DD	00H
	DD	00H
	DD	2 DUP(00H)
	DD	2 DUP(00H)
	DD	00H
	DD	05H
xdata$x	ENDS
;	COMDAT xdata$x
xdata$x	SEGMENT
__ehfuncinfo$??_Ei3ElementBase@@UAEPAXI@Z DD 019930522H
	DD	00H
	DD	00H
	DD	2 DUP(00H)
	DD	2 DUP(00H)
	DD	00H
	DD	05H
xdata$x	ENDS
;	COMDAT xdata$x
xdata$x	SEGMENT
__ehfuncinfo$??_Ei3ClassMeta@@UAEPAXI@Z DD 019930522H
	DD	00H
	DD	00H
	DD	2 DUP(00H)
	DD	2 DUP(00H)
	DD	00H
	DD	05H
xdata$x	ENDS
;	COMDAT voltbl
voltbl	SEGMENT
_volmd	DB	010H
voltbl	ENDS
;	COMDAT voltbl
voltbl	SEGMENT
_volmd	DB	010H
voltbl	ENDS
; Function compile flags: /Ogtp
;	COMDAT ??__Fs_ClassMetai3NetworkHTTP@@YAXXZ
text$yd	SEGMENT
??__Fs_ClassMetai3NetworkHTTP@@YAXXZ PROC		; `dynamic atexit destructor for 's_ClassMetai3NetworkHTTP'', COMDAT
  00000	b9 00 00 00 00	 mov	 ecx, OFFSET ?s_ClassMetai3NetworkHTTP@@3V?$i3MetaTemplate@Vi3NetworkHTTP@@@@A
  00005	e9 00 00 00 00	 jmp	 ??1i3ClassMeta@@UAE@XZ	; i3ClassMeta::~i3ClassMeta
??__Fs_ClassMetai3NetworkHTTP@@YAXXZ ENDP		; `dynamic atexit destructor for 's_ClassMetai3NetworkHTTP''
text$yd	ENDS
; Function compile flags: /Ogtp
; File E:\Proyectos\JuegosOnlineproyectos\PB\pbblow\Piercing Blow Remake\i3Server\src\i3Base\i3NetworkHTTP.cpp
; File E:\Proyectos\JuegosOnlineproyectos\PB\pbblow\Piercing Blow Remake\i3Server\include\i3Base\i3MetaTemplate.h
; File E:\Proyectos\JuegosOnlineproyectos\PB\pbblow\Piercing Blow Remake\i3Server\src\i3Base\i3NetworkHTTP.cpp
; File E:\Proyectos\JuegosOnlineproyectos\PB\pbblow\Piercing Blow Remake\i3Server\include\i3Base\i3MetaTemplate.h
; File E:\Proyectos\JuegosOnlineproyectos\PB\pbblow\Piercing Blow Remake\i3Server\src\i3Base\i3NetworkHTTP.cpp
;	COMDAT ??__Es_ClassMetai3NetworkHTTP@@YAXXZ
text$di	SEGMENT
??__Es_ClassMetai3NetworkHTTP@@YAXXZ PROC		; `dynamic initializer for 's_ClassMetai3NetworkHTTP'', COMDAT
; File E:\Proyectos\JuegosOnlineproyectos\PB\pbblow\Piercing Blow Remake\i3Server\include\i3Base\i3MetaTemplate.h

; 28   : : i3ClassMeta( classSz, pszClassName, pszBaseClassName, type)

  00000	6a 00		 push	 0
  00002	68 00 00 00 00	 push	 OFFSET ??_C@_0O@OCDFBOHM@i3ElementBase@
  00007	68 00 00 00 00	 push	 OFFSET ??_C@_0O@MICAHOBD@i3NetworkHTTP@
  0000c	68 a4 aa 01 00	 push	 109220			; 0001aaa4H
  00011	b9 00 00 00 00	 mov	 ecx, OFFSET ?s_ClassMetai3NetworkHTTP@@3V?$i3MetaTemplate@Vi3NetworkHTTP@@@@A
  00016	e8 00 00 00 00	 call	 ??0i3ClassMeta@@QAE@IPAD0W4I3_CLASSMETA_TYPE@@@Z ; i3ClassMeta::i3ClassMeta
; File E:\Proyectos\JuegosOnlineproyectos\PB\pbblow\Piercing Blow Remake\i3Server\src\i3Base\i3NetworkHTTP.cpp

; 6    : I3_CLASS_INSTANCE( i3NetworkHTTP, i3ElementBase );

  0001b	68 00 00 00 00	 push	 OFFSET ??__Fs_ClassMetai3NetworkHTTP@@YAXXZ ; `dynamic atexit destructor for 's_ClassMetai3NetworkHTTP''
; File E:\Proyectos\JuegosOnlineproyectos\PB\pbblow\Piercing Blow Remake\i3Server\include\i3Base\i3MetaTemplate.h

; 29   : {

  00020	c7 05 00 00 00
	00 00 00 00 00	 mov	 DWORD PTR ?s_ClassMetai3NetworkHTTP@@3V?$i3MetaTemplate@Vi3NetworkHTTP@@@@A, OFFSET ??_7?$i3MetaTemplate@Vi3NetworkHTTP@@@@6B@
; File E:\Proyectos\JuegosOnlineproyectos\PB\pbblow\Piercing Blow Remake\i3Server\src\i3Base\i3NetworkHTTP.cpp

; 6    : I3_CLASS_INSTANCE( i3NetworkHTTP, i3ElementBase );

  0002a	e8 00 00 00 00	 call	 _atexit
  0002f	59		 pop	 ecx
  00030	c3		 ret	 0
??__Es_ClassMetai3NetworkHTTP@@YAXXZ ENDP		; `dynamic initializer for 's_ClassMetai3NetworkHTTP''
text$di	ENDS
; Function compile flags: /Ogtp
;	COMDAT ??_G?$i3MetaTemplate@Vi3NetworkHTTP@@@@UAEPAXI@Z
_TEXT	SEGMENT
___flags$ = 8						; size = 4
??_G?$i3MetaTemplate@Vi3NetworkHTTP@@@@UAEPAXI@Z PROC	; i3MetaTemplate<i3NetworkHTTP>::`scalar deleting destructor', COMDAT
; _this$ = ecx
  00000	55		 push	 ebp
  00001	8b ec		 mov	 ebp, esp
  00003	56		 push	 esi
  00004	8b f1		 mov	 esi, ecx
  00006	e8 00 00 00 00	 call	 ??1i3ClassMeta@@UAE@XZ	; i3ClassMeta::~i3ClassMeta
  0000b	f6 45 08 01	 test	 BYTE PTR ___flags$[ebp], 1
  0000f	74 0b		 je	 SHORT $LN10@scalar
  00011	6a 38		 push	 56			; 00000038H
  00013	56		 push	 esi
  00014	e8 00 00 00 00	 call	 ??3@YAXPAXI@Z		; operator delete
  00019	83 c4 08	 add	 esp, 8
$LN10@scalar:
  0001c	8b c6		 mov	 eax, esi
  0001e	5e		 pop	 esi
  0001f	5d		 pop	 ebp
  00020	c2 04 00	 ret	 4
??_G?$i3MetaTemplate@Vi3NetworkHTTP@@@@UAEPAXI@Z ENDP	; i3MetaTemplate<i3NetworkHTTP>::`scalar deleting destructor'
_TEXT	ENDS
; Function compile flags: /Ogtp
; File E:\Proyectos\JuegosOnlineproyectos\PB\pbblow\Piercing Blow Remake\i3Server\include\i3Base\i3MetaTemplate.h
;	COMDAT ?BindInstance@?$i3MetaTemplate@Vi3NetworkHTTP@@@@UAEPAVi3ElementBase@@PAXW4I3_CLASSMETA_TYPE@@@Z
_TEXT	SEGMENT
__$EHRec$ = -12						; size = 12
_pBuf$ = 8						; size = 4
_type$ = 12						; size = 4
$T2 = 12						; size = 4
?BindInstance@?$i3MetaTemplate@Vi3NetworkHTTP@@@@UAEPAVi3ElementBase@@PAXW4I3_CLASSMETA_TYPE@@@Z PROC ; i3MetaTemplate<i3NetworkHTTP>::BindInstance, COMDAT
; _this$ = ecx

; 129  : 	{

  00000	55		 push	 ebp
  00001	8b ec		 mov	 ebp, esp
  00003	6a ff		 push	 -1
  00005	68 00 00 00 00	 push	 __ehhandler$?BindInstance@?$i3MetaTemplate@Vi3NetworkHTTP@@@@UAEPAVi3ElementBase@@PAXW4I3_CLASSMETA_TYPE@@@Z
  0000a	64 a1 00 00 00
	00		 mov	 eax, DWORD PTR fs:0
  00010	50		 push	 eax
  00011	a1 00 00 00 00	 mov	 eax, DWORD PTR ___security_cookie
  00016	33 c5		 xor	 eax, ebp
  00018	50		 push	 eax
  00019	8d 45 f4	 lea	 eax, DWORD PTR __$EHRec$[ebp]
  0001c	64 a3 00 00 00
	00		 mov	 DWORD PTR fs:0, eax

; 130  : 		if( m_ProxyCount > 0)

  00022	83 79 30 00	 cmp	 DWORD PTR [ecx+48], 0
  00026	7e 25		 jle	 SHORT $LN2@BindInstan

; 131  : 		{
; 132  : 			i3ClassMeta * pMeta = GetConcreteClass( type);

  00028	ff 75 0c	 push	 DWORD PTR _type$[ebp]
  0002b	e8 00 00 00 00	 call	 ?GetConcreteClass@i3ClassMeta@@QAEPAV1@W4I3_CLASSMETA_TYPE@@@Z ; i3ClassMeta::GetConcreteClass

; 133  : 
; 134  : 			return pMeta->BindInstance( pBuf, I3_CLASSMETA_TYPE_GENERAL);

  00030	6a 00		 push	 0
  00032	ff 75 08	 push	 DWORD PTR _pBuf$[ebp]
  00035	8b c8		 mov	 ecx, eax
  00037	8b 10		 mov	 edx, DWORD PTR [eax]
  00039	ff 52 08	 call	 DWORD PTR [edx+8]

; 142  : 			#endif
; 143  : 		}
; 144  : 	}

  0003c	8b 4d f4	 mov	 ecx, DWORD PTR __$EHRec$[ebp]
  0003f	64 89 0d 00 00
	00 00		 mov	 DWORD PTR fs:0, ecx
  00046	59		 pop	 ecx
  00047	8b e5		 mov	 esp, ebp
  00049	5d		 pop	 ebp
  0004a	c2 08 00	 ret	 8
$LN2@BindInstan:

; 135  : 		}
; 136  : 		else
; 137  : 		{
; 138  : 			#if defined( I3_DEBUG)
; 139  : 				return (i3ElementBase *) new( pBuf ) T;
; 140  : 			#else
; 141  : 				return (i3ElementBase *) new( pBuf ) T;

  0004d	ff 75 08	 push	 DWORD PTR _pBuf$[ebp]
  00050	68 a4 aa 01 00	 push	 109220			; 0001aaa4H
  00055	e8 00 00 00 00	 call	 ??2i3ElementBase@@SAPAXIPAX@Z ; i3ElementBase::operator new
  0005a	83 c4 08	 add	 esp, 8
  0005d	89 45 0c	 mov	 DWORD PTR $T2[ebp], eax
  00060	c7 45 fc 00 00
	00 00		 mov	 DWORD PTR __$EHRec$[ebp+8], 0
  00067	85 c0		 test	 eax, eax
  00069	74 18		 je	 SHORT $LN5@BindInstan
  0006b	8b c8		 mov	 ecx, eax
  0006d	e8 00 00 00 00	 call	 ??0i3NetworkHTTP@@QAE@XZ ; i3NetworkHTTP::i3NetworkHTTP

; 142  : 			#endif
; 143  : 		}
; 144  : 	}

  00072	8b 4d f4	 mov	 ecx, DWORD PTR __$EHRec$[ebp]
  00075	64 89 0d 00 00
	00 00		 mov	 DWORD PTR fs:0, ecx
  0007c	59		 pop	 ecx
  0007d	8b e5		 mov	 esp, ebp
  0007f	5d		 pop	 ebp
  00080	c2 08 00	 ret	 8
$LN5@BindInstan:

; 135  : 		}
; 136  : 		else
; 137  : 		{
; 138  : 			#if defined( I3_DEBUG)
; 139  : 				return (i3ElementBase *) new( pBuf ) T;
; 140  : 			#else
; 141  : 				return (i3ElementBase *) new( pBuf ) T;

  00083	33 c0		 xor	 eax, eax

; 142  : 			#endif
; 143  : 		}
; 144  : 	}

  00085	8b 4d f4	 mov	 ecx, DWORD PTR __$EHRec$[ebp]
  00088	64 89 0d 00 00
	00 00		 mov	 DWORD PTR fs:0, ecx
  0008f	59		 pop	 ecx
  00090	8b e5		 mov	 esp, ebp
  00092	5d		 pop	 ebp
  00093	c2 08 00	 ret	 8
_TEXT	ENDS
;	COMDAT text$x
text$x	SEGMENT
__unwindfunclet$?BindInstance@?$i3MetaTemplate@Vi3NetworkHTTP@@@@UAEPAVi3ElementBase@@PAXW4I3_CLASSMETA_TYPE@@@Z$0:
  00000	8b 45 08	 mov	 eax, DWORD PTR _pBuf$[ebp]
  00003	50		 push	 eax
  00004	8b 45 0c	 mov	 eax, DWORD PTR $T2[ebp]
  00007	50		 push	 eax
  00008	e8 00 00 00 00	 call	 ??3i3ElementBase@@SAXPAX0@Z ; i3ElementBase::operator delete
  0000d	83 c4 08	 add	 esp, 8
  00010	c3		 ret	 0
  00011	cc		 int	 3
  00012	cc		 int	 3
  00013	cc		 int	 3
  00014	cc		 int	 3
  00015	cc		 int	 3
__ehhandler$?BindInstance@?$i3MetaTemplate@Vi3NetworkHTTP@@@@UAEPAVi3ElementBase@@PAXW4I3_CLASSMETA_TYPE@@@Z:
  00016	90		 npad	 1
  00017	90		 npad	 1
  00018	8b 54 24 08	 mov	 edx, DWORD PTR [esp+8]
  0001c	8d 42 0c	 lea	 eax, DWORD PTR [edx+12]
  0001f	8b 4a fc	 mov	 ecx, DWORD PTR [edx-4]
  00022	33 c8		 xor	 ecx, eax
  00024	e8 00 00 00 00	 call	 @__security_check_cookie@4
  00029	b8 00 00 00 00	 mov	 eax, OFFSET __ehfuncinfo$?BindInstance@?$i3MetaTemplate@Vi3NetworkHTTP@@@@UAEPAVi3ElementBase@@PAXW4I3_CLASSMETA_TYPE@@@Z
  0002e	e9 00 00 00 00	 jmp	 ___CxxFrameHandler3
text$x	ENDS
?BindInstance@?$i3MetaTemplate@Vi3NetworkHTTP@@@@UAEPAVi3ElementBase@@PAXW4I3_CLASSMETA_TYPE@@@Z ENDP ; i3MetaTemplate<i3NetworkHTTP>::BindInstance
; Function compile flags: /Ogtp
; File E:\Proyectos\JuegosOnlineproyectos\PB\pbblow\Piercing Blow Remake\i3Server\include\i3Base\i3MetaTemplate.h
; File E:\Proyectos\JuegosOnlineproyectos\PB\pbblow\Piercing Blow Remake\i3Server\include\i3Base\i3ElementBase.h
; File E:\Proyectos\JuegosOnlineproyectos\PB\pbblow\Piercing Blow Remake\i3Server\include\i3Base\i3MetaTemplate.h
; File E:\Proyectos\JuegosOnlineproyectos\PB\pbblow\Piercing Blow Remake\i3Server\include\i3Base\i3ElementBase.h
; File E:\Proyectos\JuegosOnlineproyectos\PB\pbblow\Piercing Blow Remake\i3Server\include\i3Base\i3MetaTemplate.h
;	COMDAT ?CreateInstance@?$i3MetaTemplate@Vi3NetworkHTTP@@@@UAEPAVi3ElementBase@@W4I3_CLASSMETA_TYPE@@@Z
_TEXT	SEGMENT
__$EHRec$ = -12						; size = 12
_type$ = 8						; size = 4
$T2 = 8							; size = 4
?CreateInstance@?$i3MetaTemplate@Vi3NetworkHTTP@@@@UAEPAVi3ElementBase@@W4I3_CLASSMETA_TYPE@@@Z PROC ; i3MetaTemplate<i3NetworkHTTP>::CreateInstance, COMDAT
; _this$ = ecx

; 97   : 	{

  00000	55		 push	 ebp
  00001	8b ec		 mov	 ebp, esp
  00003	6a ff		 push	 -1
  00005	68 00 00 00 00	 push	 __ehhandler$?CreateInstance@?$i3MetaTemplate@Vi3NetworkHTTP@@@@UAEPAVi3ElementBase@@W4I3_CLASSMETA_TYPE@@@Z
  0000a	64 a1 00 00 00
	00		 mov	 eax, DWORD PTR fs:0
  00010	50		 push	 eax
  00011	56		 push	 esi
  00012	57		 push	 edi
  00013	a1 00 00 00 00	 mov	 eax, DWORD PTR ___security_cookie
  00018	33 c5		 xor	 eax, ebp
  0001a	50		 push	 eax
  0001b	8d 45 f4	 lea	 eax, DWORD PTR __$EHRec$[ebp]
  0001e	64 a3 00 00 00
	00		 mov	 DWORD PTR fs:0, eax
  00024	8b f9		 mov	 edi, ecx

; 98   : 		if( m_ProxyCount > 0)

  00026	83 7f 30 00	 cmp	 DWORD PTR [edi+48], 0
  0002a	7e 28		 jle	 SHORT $LN3@CreateInst

; 99   : 		{
; 100  : 			i3ClassMeta * pMeta = GetConcreteClass( type);

  0002c	ff 75 08	 push	 DWORD PTR _type$[ebp]
  0002f	e8 00 00 00 00	 call	 ?GetConcreteClass@i3ClassMeta@@QAEPAV1@W4I3_CLASSMETA_TYPE@@@Z ; i3ClassMeta::GetConcreteClass

; 101  : 
; 102  : 			if( pMeta != NULL)

  00034	85 c0		 test	 eax, eax
  00036	74 1c		 je	 SHORT $LN3@CreateInst

; 103  : 				return pMeta->CreateInstance( I3_CLASSMETA_TYPE_GENERAL);

  00038	8b 10		 mov	 edx, DWORD PTR [eax]
  0003a	8b c8		 mov	 ecx, eax
  0003c	6a 00		 push	 0
  0003e	ff 52 04	 call	 DWORD PTR [edx+4]

; 125  : 	}

  00041	8b 4d f4	 mov	 ecx, DWORD PTR __$EHRec$[ebp]
  00044	64 89 0d 00 00
	00 00		 mov	 DWORD PTR fs:0, ecx
  0004b	59		 pop	 ecx
  0004c	5f		 pop	 edi
  0004d	5e		 pop	 esi
  0004e	8b e5		 mov	 esp, ebp
  00050	5d		 pop	 ebp
  00051	c2 04 00	 ret	 4
$LN3@CreateInst:

; 104  : 		}
; 105  : 
; 106  : 		{
; 107  : 			if( m_pPool == NULL)

  00054	8b 4f 34	 mov	 ecx, DWORD PTR [edi+52]
  00057	85 c9		 test	 ecx, ecx
  00059	75 4a		 jne	 SHORT $LN4@CreateInst

; 108  : 			{
; 109  : 				#if defined( I3_DEBUG)
; 110  : 					return (i3ElementBase *) new T;
; 111  : 				#else
; 112  : 					return (i3ElementBase *) new T;

  0005b	68 a4 aa 01 00	 push	 109220			; 0001aaa4H
  00060	e8 00 00 00 00	 call	 ??2i3ElementBase@@SAPAXI@Z ; i3ElementBase::operator new
  00065	83 c4 04	 add	 esp, 4
  00068	89 45 08	 mov	 DWORD PTR $T2[ebp], eax
  0006b	c7 45 fc 00 00
	00 00		 mov	 DWORD PTR __$EHRec$[ebp+8], 0
  00072	85 c0		 test	 eax, eax
  00074	74 1a		 je	 SHORT $LN7@CreateInst
  00076	8b c8		 mov	 ecx, eax
  00078	e8 00 00 00 00	 call	 ??0i3NetworkHTTP@@QAE@XZ ; i3NetworkHTTP::i3NetworkHTTP

; 125  : 	}

  0007d	8b 4d f4	 mov	 ecx, DWORD PTR __$EHRec$[ebp]
  00080	64 89 0d 00 00
	00 00		 mov	 DWORD PTR fs:0, ecx
  00087	59		 pop	 ecx
  00088	5f		 pop	 edi
  00089	5e		 pop	 esi
  0008a	8b e5		 mov	 esp, ebp
  0008c	5d		 pop	 ebp
  0008d	c2 04 00	 ret	 4
$LN7@CreateInst:

; 108  : 			{
; 109  : 				#if defined( I3_DEBUG)
; 110  : 					return (i3ElementBase *) new T;
; 111  : 				#else
; 112  : 					return (i3ElementBase *) new T;

  00090	33 c0		 xor	 eax, eax

; 125  : 	}

  00092	8b 4d f4	 mov	 ecx, DWORD PTR __$EHRec$[ebp]
  00095	64 89 0d 00 00
	00 00		 mov	 DWORD PTR fs:0, ecx
  0009c	59		 pop	 ecx
  0009d	5f		 pop	 edi
  0009e	5e		 pop	 esi
  0009f	8b e5		 mov	 esp, ebp
  000a1	5d		 pop	 ebp
  000a2	c2 04 00	 ret	 4
$LN4@CreateInst:

; 113  : 				#endif
; 114  : 			}
; 115  : 			else
; 116  : 			{
; 117  : 				i3ElementBase * p = (i3ElementBase *) m_pPool->Alloc( sizeof(T), NULL, 0);

  000a5	8b 01		 mov	 eax, DWORD PTR [ecx]
  000a7	6a 00		 push	 0
  000a9	6a 00		 push	 0
  000ab	68 a4 aa 01 00	 push	 109220			; 0001aaa4H
  000b0	ff 50 04	 call	 DWORD PTR [eax+4]

; 118  : 	
; 119  : 				BindInstance( p, type);

  000b3	ff 75 08	 push	 DWORD PTR _type$[ebp]
  000b6	8b 17		 mov	 edx, DWORD PTR [edi]
  000b8	8b f0		 mov	 esi, eax
  000ba	56		 push	 esi
  000bb	8b cf		 mov	 ecx, edi
  000bd	ff 52 08	 call	 DWORD PTR [edx+8]
; File E:\Proyectos\JuegosOnlineproyectos\PB\pbblow\Piercing Blow Remake\i3Server\include\i3Base\i3ElementBase.h

; 347  : 	void			__SetMemoryPool( i3MemoryPool * pPool)			{ m_pPool = pPool; }

  000c0	8b 4f 34	 mov	 ecx, DWORD PTR [edi+52]
; File E:\Proyectos\JuegosOnlineproyectos\PB\pbblow\Piercing Blow Remake\i3Server\include\i3Base\i3MetaTemplate.h

; 122  : 				return p;

  000c3	8b c6		 mov	 eax, esi
; File E:\Proyectos\JuegosOnlineproyectos\PB\pbblow\Piercing Blow Remake\i3Server\include\i3Base\i3ElementBase.h

; 347  : 	void			__SetMemoryPool( i3MemoryPool * pPool)			{ m_pPool = pPool; }

  000c5	89 4e 0c	 mov	 DWORD PTR [esi+12], ecx
; File E:\Proyectos\JuegosOnlineproyectos\PB\pbblow\Piercing Blow Remake\i3Server\include\i3Base\i3MetaTemplate.h

; 125  : 	}

  000c8	8b 4d f4	 mov	 ecx, DWORD PTR __$EHRec$[ebp]
  000cb	64 89 0d 00 00
	00 00		 mov	 DWORD PTR fs:0, ecx
  000d2	59		 pop	 ecx
  000d3	5f		 pop	 edi
  000d4	5e		 pop	 esi
  000d5	8b e5		 mov	 esp, ebp
  000d7	5d		 pop	 ebp
  000d8	c2 04 00	 ret	 4
_TEXT	ENDS
;	COMDAT text$x
text$x	SEGMENT
__unwindfunclet$?CreateInstance@?$i3MetaTemplate@Vi3NetworkHTTP@@@@UAEPAVi3ElementBase@@W4I3_CLASSMETA_TYPE@@@Z$0:
  00000	8b 45 08	 mov	 eax, DWORD PTR $T2[ebp]
  00003	50		 push	 eax
  00004	e8 00 00 00 00	 call	 ??3i3ElementBase@@SAXPAX@Z ; i3ElementBase::operator delete
  00009	59		 pop	 ecx
  0000a	c3		 ret	 0
  0000b	cc		 int	 3
  0000c	cc		 int	 3
  0000d	cc		 int	 3
  0000e	cc		 int	 3
  0000f	cc		 int	 3
__ehhandler$?CreateInstance@?$i3MetaTemplate@Vi3NetworkHTTP@@@@UAEPAVi3ElementBase@@W4I3_CLASSMETA_TYPE@@@Z:
  00010	90		 npad	 1
  00011	90		 npad	 1
  00012	8b 54 24 08	 mov	 edx, DWORD PTR [esp+8]
  00016	8d 42 0c	 lea	 eax, DWORD PTR [edx+12]
  00019	8b 4a f4	 mov	 ecx, DWORD PTR [edx-12]
  0001c	33 c8		 xor	 ecx, eax
  0001e	e8 00 00 00 00	 call	 @__security_check_cookie@4
  00023	b8 00 00 00 00	 mov	 eax, OFFSET __ehfuncinfo$?CreateInstance@?$i3MetaTemplate@Vi3NetworkHTTP@@@@UAEPAVi3ElementBase@@W4I3_CLASSMETA_TYPE@@@Z
  00028	e9 00 00 00 00	 jmp	 ___CxxFrameHandler3
text$x	ENDS
?CreateInstance@?$i3MetaTemplate@Vi3NetworkHTTP@@@@UAEPAVi3ElementBase@@W4I3_CLASSMETA_TYPE@@@Z ENDP ; i3MetaTemplate<i3NetworkHTTP>::CreateInstance
; Function compile flags: /Ogtp
; File E:\Proyectos\JuegosOnlineproyectos\PB\pbblow\Piercing Blow Remake\i3Server\include\i3Base\i3MetaTemplate.h
;	COMDAT ??0?$i3MetaTemplate@Vi3NetworkHTTP@@@@QAE@IPAD0W4I3_CLASSMETA_TYPE@@@Z
_TEXT	SEGMENT
_this$ = -4						; size = 4
_classSz$ = 8						; size = 4
_pszClassName$ = 12					; size = 4
_pszBaseClassName$ = 16					; size = 4
_type$ = 20						; size = 4
??0?$i3MetaTemplate@Vi3NetworkHTTP@@@@QAE@IPAD0W4I3_CLASSMETA_TYPE@@@Z PROC ; i3MetaTemplate<i3NetworkHTTP>::i3MetaTemplate<i3NetworkHTTP>, COMDAT
; _this$ = ecx

; 29   : {

  00000	55		 push	 ebp
  00001	8b ec		 mov	 ebp, esp
  00003	51		 push	 ecx
  00004	56		 push	 esi
  00005	ff 75 14	 push	 DWORD PTR _type$[ebp]
  00008	8b f1		 mov	 esi, ecx
  0000a	ff 75 10	 push	 DWORD PTR _pszBaseClassName$[ebp]
  0000d	89 75 fc	 mov	 DWORD PTR _this$[ebp], esi
  00010	ff 75 0c	 push	 DWORD PTR _pszClassName$[ebp]
  00013	ff 75 08	 push	 DWORD PTR _classSz$[ebp]
  00016	e8 00 00 00 00	 call	 ??0i3ClassMeta@@QAE@IPAD0W4I3_CLASSMETA_TYPE@@@Z ; i3ClassMeta::i3ClassMeta
  0001b	c7 06 00 00 00
	00		 mov	 DWORD PTR [esi], OFFSET ??_7?$i3MetaTemplate@Vi3NetworkHTTP@@@@6B@

; 30   : }

  00021	8b c6		 mov	 eax, esi
  00023	5e		 pop	 esi
  00024	8b e5		 mov	 esp, ebp
  00026	5d		 pop	 ebp
  00027	c2 10 00	 ret	 16			; 00000010H
??0?$i3MetaTemplate@Vi3NetworkHTTP@@@@QAE@IPAD0W4I3_CLASSMETA_TYPE@@@Z ENDP ; i3MetaTemplate<i3NetworkHTTP>::i3MetaTemplate<i3NetworkHTTP>
_TEXT	ENDS
; Function compile flags: /Ogtp
; File E:\Proyectos\JuegosOnlineproyectos\PB\pbblow\Piercing Blow Remake\i3Server\src\i3Base\i3NetworkHTTP.cpp
;	COMDAT ??_Ei3NetworkHTTP@@UAEPAXI@Z
_TEXT	SEGMENT
__$EHRec$ = -12						; size = 12
___flags$ = 8						; size = 4
tv179 = 8						; size = 4
??_Ei3NetworkHTTP@@UAEPAXI@Z PROC			; i3NetworkHTTP::`vector deleting destructor', COMDAT
; _this$ = ecx
  00000	55		 push	 ebp
  00001	8b ec		 mov	 ebp, esp
  00003	6a ff		 push	 -1
  00005	68 00 00 00 00	 push	 __ehhandler$??_Ei3NetworkHTTP@@UAEPAXI@Z
  0000a	64 a1 00 00 00
	00		 mov	 eax, DWORD PTR fs:0
  00010	50		 push	 eax
  00011	53		 push	 ebx
  00012	56		 push	 esi
  00013	57		 push	 edi
  00014	a1 00 00 00 00	 mov	 eax, DWORD PTR ___security_cookie
  00019	33 c5		 xor	 eax, ebp
  0001b	50		 push	 eax
  0001c	8d 45 f4	 lea	 eax, DWORD PTR __$EHRec$[ebp]
  0001f	64 a3 00 00 00
	00		 mov	 DWORD PTR fs:0, eax
  00025	8b f1		 mov	 esi, ecx
  00027	8b 5d 08	 mov	 ebx, DWORD PTR ___flags$[ebp]
  0002a	8b fb		 mov	 edi, ebx
  0002c	83 e7 01	 and	 edi, 1
  0002f	89 7d 08	 mov	 DWORD PTR tv179[ebp], edi
  00032	f6 c3 02	 test	 bl, 2
  00035	74 45		 je	 SHORT $LN2@vector
  00037	68 00 00 00 00	 push	 OFFSET ??1i3NetworkHTTP@@UAE@XZ ; i3NetworkHTTP::~i3NetworkHTTP
  0003c	ff 76 fc	 push	 DWORD PTR [esi-4]
  0003f	8d 7e fc	 lea	 edi, DWORD PTR [esi-4]
  00042	68 a4 aa 01 00	 push	 109220			; 0001aaa4H
  00047	56		 push	 esi
  00048	e8 00 00 00 00	 call	 ??_M@YGXPAXIIP6EX0@Z@Z
  0004d	83 7d 08 00	 cmp	 DWORD PTR tv179[ebp], 0
  00051	74 13		 je	 SHORT $LN3@vector
  00053	69 0f a4 aa 01
	00		 imul	 ecx, DWORD PTR [edi], 109220
  00059	83 c1 04	 add	 ecx, 4
  0005c	51		 push	 ecx
  0005d	57		 push	 edi
  0005e	e8 00 00 00 00	 call	 ??_V@YAXPAXI@Z		; operator delete[]
  00063	83 c4 08	 add	 esp, 8
$LN3@vector:
  00066	8b c7		 mov	 eax, edi
  00068	8b 4d f4	 mov	 ecx, DWORD PTR __$EHRec$[ebp]
  0006b	64 89 0d 00 00
	00 00		 mov	 DWORD PTR fs:0, ecx
  00072	59		 pop	 ecx
  00073	5f		 pop	 edi
  00074	5e		 pop	 esi
  00075	5b		 pop	 ebx
  00076	8b e5		 mov	 esp, ebp
  00078	5d		 pop	 ebp
  00079	c2 04 00	 ret	 4
$LN2@vector:

; 56   : 	Destroy(); 

  0007c	8b ce		 mov	 ecx, esi
  0007e	c7 45 fc 00 00
	00 00		 mov	 DWORD PTR __$EHRec$[ebp+8], 0
  00085	c7 06 00 00 00
	00		 mov	 DWORD PTR [esi], OFFSET ??_7i3NetworkHTTP@@6B@
  0008b	e8 00 00 00 00	 call	 ?Destroy@i3NetworkHTTP@@QAEXXZ ; i3NetworkHTTP::Destroy

; 57   : }

  00090	8d 8e 34 13 00
	00		 lea	 ecx, DWORD PTR [esi+4916]
  00096	e8 00 00 00 00	 call	 ??1i3List@@UAE@XZ	; i3List::~i3List
  0009b	8b ce		 mov	 ecx, esi
  0009d	e8 00 00 00 00	 call	 ??1i3ElementBase@@UAE@XZ ; i3ElementBase::~i3ElementBase
  000a2	85 ff		 test	 edi, edi
  000a4	74 1e		 je	 SHORT $LN6@vector
  000a6	f6 c3 04	 test	 bl, 4
  000a9	75 0b		 jne	 SHORT $LN5@vector
  000ab	56		 push	 esi
  000ac	e8 00 00 00 00	 call	 ??3i3ElementBase@@SAXPAX@Z ; i3ElementBase::operator delete
  000b1	83 c4 04	 add	 esp, 4
  000b4	eb 0e		 jmp	 SHORT $LN6@vector
$LN5@vector:

  000b6	68 a4 aa 01 00	 push	 109220			; 0001aaa4H
  000bb	56		 push	 esi
  000bc	e8 00 00 00 00	 call	 ??3@YAXPAXI@Z		; operator delete
  000c1	83 c4 08	 add	 esp, 8
$LN6@vector:
  000c4	8b c6		 mov	 eax, esi
  000c6	8b 4d f4	 mov	 ecx, DWORD PTR __$EHRec$[ebp]
  000c9	64 89 0d 00 00
	00 00		 mov	 DWORD PTR fs:0, ecx
  000d0	59		 pop	 ecx
  000d1	5f		 pop	 edi
  000d2	5e		 pop	 esi
  000d3	5b		 pop	 ebx
  000d4	8b e5		 mov	 esp, ebp
  000d6	5d		 pop	 ebp
  000d7	c2 04 00	 ret	 4
  000da	cc		 int	 3
  000db	cc		 int	 3
  000dc	cc		 int	 3
  000dd	cc		 int	 3
  000de	cc		 int	 3
_TEXT	ENDS
;	COMDAT text$x
text$x	SEGMENT
__ehhandler$??_Ei3NetworkHTTP@@UAEPAXI@Z:
  00000	90		 npad	 1
  00001	90		 npad	 1
  00002	8b 54 24 08	 mov	 edx, DWORD PTR [esp+8]
  00006	8d 42 0c	 lea	 eax, DWORD PTR [edx+12]
  00009	8b 4a f0	 mov	 ecx, DWORD PTR [edx-16]
  0000c	33 c8		 xor	 ecx, eax
  0000e	e8 00 00 00 00	 call	 @__security_check_cookie@4
  00013	b8 00 00 00 00	 mov	 eax, OFFSET __ehfuncinfo$??_Ei3NetworkHTTP@@UAEPAXI@Z
  00018	e9 00 00 00 00	 jmp	 ___CxxFrameHandler3
text$x	ENDS
??_Ei3NetworkHTTP@@UAEPAXI@Z ENDP			; i3NetworkHTTP::`vector deleting destructor'
; Function compile flags: /Ogtp
; File E:\Proyectos\JuegosOnlineproyectos\PB\pbblow\Piercing Blow Remake\i3Server\src\i3Base\i3NetworkHTTP.cpp
;	COMDAT ??_Gi3NetworkHTTP@@UAEPAXI@Z
_TEXT	SEGMENT
__$EHRec$ = -12						; size = 12
___flags$ = 8						; size = 4
??_Gi3NetworkHTTP@@UAEPAXI@Z PROC			; i3NetworkHTTP::`scalar deleting destructor', COMDAT
; _this$ = ecx
  00000	55		 push	 ebp
  00001	8b ec		 mov	 ebp, esp
  00003	6a ff		 push	 -1
  00005	68 00 00 00 00	 push	 __ehhandler$??_Gi3NetworkHTTP@@UAEPAXI@Z
  0000a	64 a1 00 00 00
	00		 mov	 eax, DWORD PTR fs:0
  00010	50		 push	 eax
  00011	56		 push	 esi
  00012	a1 00 00 00 00	 mov	 eax, DWORD PTR ___security_cookie
  00017	33 c5		 xor	 eax, ebp
  00019	50		 push	 eax
  0001a	8d 45 f4	 lea	 eax, DWORD PTR __$EHRec$[ebp]
  0001d	64 a3 00 00 00
	00		 mov	 DWORD PTR fs:0, eax
  00023	8b f1		 mov	 esi, ecx

; 55   : {

  00025	c7 45 fc 00 00
	00 00		 mov	 DWORD PTR __$EHRec$[ebp+8], 0
  0002c	c7 06 00 00 00
	00		 mov	 DWORD PTR [esi], OFFSET ??_7i3NetworkHTTP@@6B@

; 56   : 	Destroy(); 

  00032	e8 00 00 00 00	 call	 ?Destroy@i3NetworkHTTP@@QAEXXZ ; i3NetworkHTTP::Destroy

; 57   : }

  00037	8d 8e 34 13 00
	00		 lea	 ecx, DWORD PTR [esi+4916]
  0003d	e8 00 00 00 00	 call	 ??1i3List@@UAE@XZ	; i3List::~i3List
  00042	8b ce		 mov	 ecx, esi
  00044	e8 00 00 00 00	 call	 ??1i3ElementBase@@UAE@XZ ; i3ElementBase::~i3ElementBase
  00049	8b 45 08	 mov	 eax, DWORD PTR ___flags$[ebp]
  0004c	a8 01		 test	 al, 1
  0004e	74 2f		 je	 SHORT $LN15@scalar
  00050	a8 04		 test	 al, 4
  00052	75 1d		 jne	 SHORT $LN3@scalar
  00054	56		 push	 esi
  00055	e8 00 00 00 00	 call	 ??3i3ElementBase@@SAXPAX@Z ; i3ElementBase::operator delete
  0005a	83 c4 04	 add	 esp, 4
  0005d	8b c6		 mov	 eax, esi
  0005f	8b 4d f4	 mov	 ecx, DWORD PTR __$EHRec$[ebp]
  00062	64 89 0d 00 00
	00 00		 mov	 DWORD PTR fs:0, ecx
  00069	59		 pop	 ecx
  0006a	5e		 pop	 esi
  0006b	8b e5		 mov	 esp, ebp
  0006d	5d		 pop	 ebp
  0006e	c2 04 00	 ret	 4
$LN3@scalar:

  00071	68 a4 aa 01 00	 push	 109220			; 0001aaa4H
  00076	56		 push	 esi
  00077	e8 00 00 00 00	 call	 ??3@YAXPAXI@Z		; operator delete
  0007c	83 c4 08	 add	 esp, 8
$LN15@scalar:
  0007f	8b c6		 mov	 eax, esi
  00081	8b 4d f4	 mov	 ecx, DWORD PTR __$EHRec$[ebp]
  00084	64 89 0d 00 00
	00 00		 mov	 DWORD PTR fs:0, ecx
  0008b	59		 pop	 ecx
  0008c	5e		 pop	 esi
  0008d	8b e5		 mov	 esp, ebp
  0008f	5d		 pop	 ebp
  00090	c2 04 00	 ret	 4
  00093	cc		 int	 3
  00094	cc		 int	 3
  00095	cc		 int	 3
  00096	cc		 int	 3
  00097	cc		 int	 3
_TEXT	ENDS
;	COMDAT text$x
text$x	SEGMENT
__ehhandler$??_Gi3NetworkHTTP@@UAEPAXI@Z:
  00000	90		 npad	 1
  00001	90		 npad	 1
  00002	8b 54 24 08	 mov	 edx, DWORD PTR [esp+8]
  00006	8d 42 0c	 lea	 eax, DWORD PTR [edx+12]
  00009	8b 4a f8	 mov	 ecx, DWORD PTR [edx-8]
  0000c	33 c8		 xor	 ecx, eax
  0000e	e8 00 00 00 00	 call	 @__security_check_cookie@4
  00013	b8 00 00 00 00	 mov	 eax, OFFSET __ehfuncinfo$??_Gi3NetworkHTTP@@UAEPAXI@Z
  00018	e9 00 00 00 00	 jmp	 ___CxxFrameHandler3
text$x	ENDS
??_Gi3NetworkHTTP@@UAEPAXI@Z ENDP			; i3NetworkHTTP::`scalar deleting destructor'
; Function compile flags: /Ogtp
;	COMDAT ??4i3NetworkHTTP@@QAEAAV0@ABV0@@Z
_TEXT	SEGMENT
_this$1$ = -12						; size = 4
tv663 = -8						; size = 4
tv662 = -4						; size = 4
___that$ = 8						; size = 4
??4i3NetworkHTTP@@QAEAAV0@ABV0@@Z PROC			; i3NetworkHTTP::operator=, COMDAT
; _this$ = ecx
  00000	55		 push	 ebp
  00001	8b ec		 mov	 ebp, esp
  00003	83 ec 0c	 sub	 esp, 12			; 0000000cH
  00006	53		 push	 ebx
  00007	8b d9		 mov	 ebx, ecx
  00009	33 c9		 xor	 ecx, ecx
  0000b	56		 push	 esi
  0000c	8b 75 08	 mov	 esi, DWORD PTR ___that$[ebp]
  0000f	89 5d f4	 mov	 DWORD PTR _this$1$[ebp], ebx
  00012	8b 46 04	 mov	 eax, DWORD PTR [esi+4]
  00015	89 43 04	 mov	 DWORD PTR [ebx+4], eax
  00018	8b 46 08	 mov	 eax, DWORD PTR [esi+8]
  0001b	89 43 08	 mov	 DWORD PTR [ebx+8], eax
  0001e	8b 46 0c	 mov	 eax, DWORD PTR [esi+12]
  00021	89 43 0c	 mov	 DWORD PTR [ebx+12], eax
  00024	8b 46 10	 mov	 eax, DWORD PTR [esi+16]
  00027	89 43 10	 mov	 DWORD PTR [ebx+16], eax
  0002a	8b 46 14	 mov	 eax, DWORD PTR [esi+20]
  0002d	89 43 14	 mov	 DWORD PTR [ebx+20], eax
  00030	8b 46 18	 mov	 eax, DWORD PTR [esi+24]
  00033	89 43 18	 mov	 DWORD PTR [ebx+24], eax
  00036	8b 46 1c	 mov	 eax, DWORD PTR [esi+28]
  00039	89 43 1c	 mov	 DWORD PTR [ebx+28], eax
  0003c	8b 46 20	 mov	 eax, DWORD PTR [esi+32]
  0003f	89 43 20	 mov	 DWORD PTR [ebx+32], eax
  00042	66 8b 46 24	 mov	 ax, WORD PTR [esi+36]
  00046	66 89 43 24	 mov	 WORD PTR [ebx+36], ax
  0004a	8d 9b 00 00 00
	00		 npad	 6
$LL4@operator:
  00050	8a 44 0e 26	 mov	 al, BYTE PTR [esi+ecx+38]
  00054	88 44 0b 26	 mov	 BYTE PTR [ebx+ecx+38], al
  00058	41		 inc	 ecx
  00059	81 f9 04 01 00
	00		 cmp	 ecx, 260		; 00000104H
  0005f	72 ef		 jb	 SHORT $LL4@operator
  00061	33 c9		 xor	 ecx, ecx
  00063	eb 0b 8d a4 24
	00 00 00 00 8d
	64 24 00	 npad	 13
$LL7@operator:
  00070	8a 84 0e 2a 01
	00 00		 mov	 al, BYTE PTR [esi+ecx+298]
  00077	88 84 0b 2a 01
	00 00		 mov	 BYTE PTR [ebx+ecx+298], al
  0007e	41		 inc	 ecx
  0007f	81 f9 04 01 00
	00		 cmp	 ecx, 260		; 00000104H
  00085	72 e9		 jb	 SHORT $LL7@operator
  00087	33 c9		 xor	 ecx, ecx
  00089	8d a4 24 00 00
	00 00		 npad	 7
$LL10@operator:
  00090	8a 84 0e 2e 02
	00 00		 mov	 al, BYTE PTR [esi+ecx+558]
  00097	88 84 0b 2e 02
	00 00		 mov	 BYTE PTR [ebx+ecx+558], al
  0009e	41		 inc	 ecx
  0009f	81 f9 04 01 00
	00		 cmp	 ecx, 260		; 00000104H
  000a5	72 e9		 jb	 SHORT $LL10@operator
  000a7	33 c9		 xor	 ecx, ecx
  000a9	8d a4 24 00 00
	00 00		 npad	 7
$LL13@operator:
  000b0	8a 84 0e 32 03
	00 00		 mov	 al, BYTE PTR [esi+ecx+818]
  000b7	88 84 0b 32 03
	00 00		 mov	 BYTE PTR [ebx+ecx+818], al
  000be	41		 inc	 ecx
  000bf	81 f9 00 04 00
	00		 cmp	 ecx, 1024		; 00000400H
  000c5	72 e9		 jb	 SHORT $LL13@operator
  000c7	33 c9		 xor	 ecx, ecx
  000c9	8d a4 24 00 00
	00 00		 npad	 7
$LL16@operator:
  000d0	8a 84 0e 32 07
	00 00		 mov	 al, BYTE PTR [esi+ecx+1842]
  000d7	88 84 0b 32 07
	00 00		 mov	 BYTE PTR [ebx+ecx+1842], al
  000de	41		 inc	 ecx
  000df	81 f9 00 04 00
	00		 cmp	 ecx, 1024		; 00000400H
  000e5	72 e9		 jb	 SHORT $LL16@operator
  000e7	33 c9		 xor	 ecx, ecx
  000e9	8d a4 24 00 00
	00 00		 npad	 7
$LL19@operator:
  000f0	8a 84 0e 32 0b
	00 00		 mov	 al, BYTE PTR [esi+ecx+2866]
  000f7	88 84 0b 32 0b
	00 00		 mov	 BYTE PTR [ebx+ecx+2866], al
  000fe	41		 inc	 ecx
  000ff	81 f9 00 04 00
	00		 cmp	 ecx, 1024		; 00000400H
  00105	72 e9		 jb	 SHORT $LL19@operator
  00107	33 c9		 xor	 ecx, ecx
  00109	8d a4 24 00 00
	00 00		 npad	 7
$LL22@operator:
  00110	8a 84 0e 32 0f
	00 00		 mov	 al, BYTE PTR [esi+ecx+3890]
  00117	88 84 0b 32 0f
	00 00		 mov	 BYTE PTR [ebx+ecx+3890], al
  0011e	41		 inc	 ecx
  0011f	81 f9 00 04 00
	00		 cmp	 ecx, 1024		; 00000400H
  00125	72 e9		 jb	 SHORT $LL22@operator
  00127	8d 86 34 13 00
	00		 lea	 eax, DWORD PTR [esi+4916]
  0012d	50		 push	 eax
  0012e	8d 8b 34 13 00
	00		 lea	 ecx, DWORD PTR [ebx+4916]
  00134	e8 00 00 00 00	 call	 ??4i3List@@QAEAAV0@ABV0@@Z
  00139	33 d2		 xor	 edx, edx
  0013b	8d 8b 8c 13 00
	00		 lea	 ecx, DWORD PTR [ebx+5004]
  00141	81 c6 8c 13 00
	00		 add	 esi, 5004		; 0000138cH
  00147	89 4d f8	 mov	 DWORD PTR tv663[ebp], ecx
  0014a	8b de		 mov	 ebx, esi
  0014c	57		 push	 edi
  0014d	8d 49 00	 npad	 3
$LL25@operator:
  00150	69 c2 04 08 00
	00		 imul	 eax, edx, 2052
  00156	42		 inc	 edx
  00157	8d 3c 08	 lea	 edi, DWORD PTR [eax+ecx]
  0015a	b9 01 02 00 00	 mov	 ecx, 513		; 00000201H
  0015f	8d 34 18	 lea	 esi, DWORD PTR [eax+ebx]
  00162	f3 a5		 rep movsd
  00164	8b 4d f8	 mov	 ecx, DWORD PTR tv663[ebp]
  00167	83 fa 32	 cmp	 edx, 50			; 00000032H
  0016a	72 e4		 jb	 SHORT $LL25@operator
  0016c	8b 4d 08	 mov	 ecx, DWORD PTR ___that$[ebp]
  0016f	33 d2		 xor	 edx, edx
  00171	8b 5d f4	 mov	 ebx, DWORD PTR _this$1$[ebp]
  00174	5f		 pop	 edi
  00175	8b 81 54 a4 01
	00		 mov	 eax, DWORD PTR [ecx+107604]
  0017b	89 83 54 a4 01
	00		 mov	 DWORD PTR [ebx+107604], eax
  00181	8b 81 58 a4 01
	00		 mov	 eax, DWORD PTR [ecx+107608]
  00187	89 83 58 a4 01
	00		 mov	 DWORD PTR [ebx+107608], eax
  0018d	8b 81 5c a4 01
	00		 mov	 eax, DWORD PTR [ecx+107612]
  00193	89 83 5c a4 01
	00		 mov	 DWORD PTR [ebx+107612], eax
  00199	8b 81 60 a4 01
	00		 mov	 eax, DWORD PTR [ecx+107616]
  0019f	89 83 60 a4 01
	00		 mov	 DWORD PTR [ebx+107616], eax
  001a5	8b 81 64 a4 01
	00		 mov	 eax, DWORD PTR [ecx+107620]
  001ab	89 83 64 a4 01
	00		 mov	 DWORD PTR [ebx+107620], eax
  001b1	8b 81 68 a4 01
	00		 mov	 eax, DWORD PTR [ecx+107624]
  001b7	89 83 68 a4 01
	00		 mov	 DWORD PTR [ebx+107624], eax
  001bd	8b 81 6c a4 01
	00		 mov	 eax, DWORD PTR [ecx+107628]
  001c3	89 83 6c a4 01
	00		 mov	 DWORD PTR [ebx+107628], eax
  001c9	8b 81 70 a4 01
	00		 mov	 eax, DWORD PTR [ecx+107632]
  001cf	89 83 70 a4 01
	00		 mov	 DWORD PTR [ebx+107632], eax
  001d5	8b 81 74 a4 01
	00		 mov	 eax, DWORD PTR [ecx+107636]
  001db	89 83 74 a4 01
	00		 mov	 DWORD PTR [ebx+107636], eax
  001e1	8b 81 78 a4 01
	00		 mov	 eax, DWORD PTR [ecx+107640]
  001e7	89 83 78 a4 01
	00		 mov	 DWORD PTR [ebx+107640], eax
  001ed	8b 81 7c a4 01
	00		 mov	 eax, DWORD PTR [ecx+107644]
  001f3	89 83 7c a4 01
	00		 mov	 DWORD PTR [ebx+107644], eax
  001f9	8b 81 80 a4 01
	00		 mov	 eax, DWORD PTR [ecx+107648]
  001ff	89 83 80 a4 01
	00		 mov	 DWORD PTR [ebx+107648], eax
  00205	8b 81 84 a4 01
	00		 mov	 eax, DWORD PTR [ecx+107652]
  0020b	89 83 84 a4 01
	00		 mov	 DWORD PTR [ebx+107652], eax
  00211	8b 81 88 a4 01
	00		 mov	 eax, DWORD PTR [ecx+107656]
  00217	89 83 88 a4 01
	00		 mov	 DWORD PTR [ebx+107656], eax
  0021d	8b 81 8c a4 01
	00		 mov	 eax, DWORD PTR [ecx+107660]
  00223	89 83 8c a4 01
	00		 mov	 DWORD PTR [ebx+107660], eax
  00229	8d a4 24 00 00
	00 00		 npad	 7
$LL28@operator:
  00230	8a 84 11 90 a4
	01 00		 mov	 al, BYTE PTR [ecx+edx+107664]
  00237	88 84 13 90 a4
	01 00		 mov	 BYTE PTR [ebx+edx+107664], al
  0023e	42		 inc	 edx
  0023f	81 fa 04 01 00
	00		 cmp	 edx, 260		; 00000104H
  00245	72 e9		 jb	 SHORT $LL28@operator
  00247	33 d2		 xor	 edx, edx
  00249	8d a4 24 00 00
	00 00		 npad	 7
$LL31@operator:
  00250	8a 84 11 94 a5
	01 00		 mov	 al, BYTE PTR [ecx+edx+107924]
  00257	88 84 13 94 a5
	01 00		 mov	 BYTE PTR [ebx+edx+107924], al
  0025e	42		 inc	 edx
  0025f	81 fa 04 01 00
	00		 cmp	 edx, 260		; 00000104H
  00265	72 e9		 jb	 SHORT $LL31@operator
  00267	33 d2		 xor	 edx, edx
  00269	8d a4 24 00 00
	00 00		 npad	 7
$LL34@operator:
  00270	8a 84 11 98 a6
	01 00		 mov	 al, BYTE PTR [ecx+edx+108184]
  00277	88 84 13 98 a6
	01 00		 mov	 BYTE PTR [ebx+edx+108184], al
  0027e	42		 inc	 edx
  0027f	81 fa 00 04 00
	00		 cmp	 edx, 1024		; 00000400H
  00285	72 e9		 jb	 SHORT $LL34@operator
  00287	8b 81 98 aa 01
	00		 mov	 eax, DWORD PTR [ecx+109208]
  0028d	89 83 98 aa 01
	00		 mov	 DWORD PTR [ebx+109208], eax
  00293	8b 81 9c aa 01
	00		 mov	 eax, DWORD PTR [ecx+109212]
  00299	89 83 9c aa 01
	00		 mov	 DWORD PTR [ebx+109212], eax
  0029f	8b 81 a0 aa 01
	00		 mov	 eax, DWORD PTR [ecx+109216]
  002a5	89 83 a0 aa 01
	00		 mov	 DWORD PTR [ebx+109216], eax
  002ab	8b c3		 mov	 eax, ebx
  002ad	5e		 pop	 esi
  002ae	5b		 pop	 ebx
  002af	8b e5		 mov	 esp, ebp
  002b1	5d		 pop	 ebp
  002b2	c2 04 00	 ret	 4
??4i3NetworkHTTP@@QAEAAV0@ABV0@@Z ENDP			; i3NetworkHTTP::operator=
_TEXT	ENDS
; Function compile flags: /Ogtp
;	COMDAT ??0i3NetworkHTTP@@QAE@ABV0@@Z
_TEXT	SEGMENT
_this$1$ = -4						; size = 4
___that$ = 8						; size = 4
??0i3NetworkHTTP@@QAE@ABV0@@Z PROC			; i3NetworkHTTP::i3NetworkHTTP, COMDAT
; _this$ = ecx
  00000	55		 push	 ebp
  00001	8b ec		 mov	 ebp, esp
  00003	51		 push	 ecx
  00004	53		 push	 ebx
  00005	56		 push	 esi
  00006	57		 push	 edi
  00007	8b d1		 mov	 edx, ecx
  00009	89 55 fc	 mov	 DWORD PTR _this$1$[ebp], edx
  0000c	b9 41 00 00 00	 mov	 ecx, 65			; 00000041H
  00011	8b 5d 08	 mov	 ebx, DWORD PTR ___that$[ebp]
  00014	c7 02 00 00 00
	00		 mov	 DWORD PTR [edx], OFFSET ??_7i3ElementBase@@6B@
  0001a	8b 43 04	 mov	 eax, DWORD PTR [ebx+4]
  0001d	8d 7a 26	 lea	 edi, DWORD PTR [edx+38]
  00020	89 42 04	 mov	 DWORD PTR [edx+4], eax
  00023	8d 73 26	 lea	 esi, DWORD PTR [ebx+38]
  00026	8b 43 08	 mov	 eax, DWORD PTR [ebx+8]
  00029	89 42 08	 mov	 DWORD PTR [edx+8], eax
  0002c	8b 43 0c	 mov	 eax, DWORD PTR [ebx+12]
  0002f	89 42 0c	 mov	 DWORD PTR [edx+12], eax
  00032	c7 02 00 00 00
	00		 mov	 DWORD PTR [edx], OFFSET ??_7i3NetworkHTTP@@6B@
  00038	8b 43 10	 mov	 eax, DWORD PTR [ebx+16]
  0003b	89 42 10	 mov	 DWORD PTR [edx+16], eax
  0003e	8b 43 14	 mov	 eax, DWORD PTR [ebx+20]
  00041	89 42 14	 mov	 DWORD PTR [edx+20], eax
  00044	8b 43 18	 mov	 eax, DWORD PTR [ebx+24]
  00047	89 42 18	 mov	 DWORD PTR [edx+24], eax
  0004a	8b 43 1c	 mov	 eax, DWORD PTR [ebx+28]
  0004d	89 42 1c	 mov	 DWORD PTR [edx+28], eax
  00050	8b 43 20	 mov	 eax, DWORD PTR [ebx+32]
  00053	89 42 20	 mov	 DWORD PTR [edx+32], eax
  00056	66 8b 43 24	 mov	 ax, WORD PTR [ebx+36]
  0005a	66 89 42 24	 mov	 WORD PTR [edx+36], ax
  0005e	8d 83 34 13 00
	00		 lea	 eax, DWORD PTR [ebx+4916]
  00064	f3 a5		 rep movsd
  00066	8d ba 2a 01 00
	00		 lea	 edi, DWORD PTR [edx+298]
  0006c	8d b3 2a 01 00
	00		 lea	 esi, DWORD PTR [ebx+298]
  00072	b9 41 00 00 00	 mov	 ecx, 65			; 00000041H
  00077	f3 a5		 rep movsd
  00079	8d ba 2e 02 00
	00		 lea	 edi, DWORD PTR [edx+558]
  0007f	b9 41 00 00 00	 mov	 ecx, 65			; 00000041H
  00084	8d b3 2e 02 00
	00		 lea	 esi, DWORD PTR [ebx+558]
  0008a	f3 a5		 rep movsd
  0008c	8d ba 32 03 00
	00		 lea	 edi, DWORD PTR [edx+818]
  00092	b9 00 01 00 00	 mov	 ecx, 256		; 00000100H
  00097	8d b3 32 03 00
	00		 lea	 esi, DWORD PTR [ebx+818]
  0009d	f3 a5		 rep movsd
  0009f	8d ba 32 07 00
	00		 lea	 edi, DWORD PTR [edx+1842]
  000a5	b9 00 01 00 00	 mov	 ecx, 256		; 00000100H
  000aa	8d b3 32 07 00
	00		 lea	 esi, DWORD PTR [ebx+1842]
  000b0	f3 a5		 rep movsd
  000b2	8d ba 32 0b 00
	00		 lea	 edi, DWORD PTR [edx+2866]
  000b8	b9 00 01 00 00	 mov	 ecx, 256		; 00000100H
  000bd	8d b3 32 0b 00
	00		 lea	 esi, DWORD PTR [ebx+2866]
  000c3	f3 a5		 rep movsd
  000c5	8d ba 32 0f 00
	00		 lea	 edi, DWORD PTR [edx+3890]
  000cb	b9 00 01 00 00	 mov	 ecx, 256		; 00000100H
  000d0	8d b3 32 0f 00
	00		 lea	 esi, DWORD PTR [ebx+3890]
  000d6	f3 a5		 rep movsd
  000d8	50		 push	 eax
  000d9	8d 8a 34 13 00
	00		 lea	 ecx, DWORD PTR [edx+4916]
  000df	e8 00 00 00 00	 call	 ??0i3List@@QAE@ABV0@@Z
  000e4	68 c8 90 01 00	 push	 102600			; 000190c8H
  000e9	8d 83 8c 13 00
	00		 lea	 eax, DWORD PTR [ebx+5004]
  000ef	50		 push	 eax
  000f0	8b 45 fc	 mov	 eax, DWORD PTR _this$1$[ebp]
  000f3	05 8c 13 00 00	 add	 eax, 5004		; 0000138cH
  000f8	50		 push	 eax
  000f9	e8 00 00 00 00	 call	 _memcpy
  000fe	8b 55 fc	 mov	 edx, DWORD PTR _this$1$[ebp]
  00101	83 c4 0c	 add	 esp, 12			; 0000000cH
  00104	8b 83 54 a4 01
	00		 mov	 eax, DWORD PTR [ebx+107604]
  0010a	89 82 54 a4 01
	00		 mov	 DWORD PTR [edx+107604], eax
  00110	8b 83 58 a4 01
	00		 mov	 eax, DWORD PTR [ebx+107608]
  00116	89 82 58 a4 01
	00		 mov	 DWORD PTR [edx+107608], eax
  0011c	8b 83 5c a4 01
	00		 mov	 eax, DWORD PTR [ebx+107612]
  00122	89 82 5c a4 01
	00		 mov	 DWORD PTR [edx+107612], eax
  00128	8b 83 60 a4 01
	00		 mov	 eax, DWORD PTR [ebx+107616]
  0012e	89 82 60 a4 01
	00		 mov	 DWORD PTR [edx+107616], eax
  00134	8b 83 64 a4 01
	00		 mov	 eax, DWORD PTR [ebx+107620]
  0013a	89 82 64 a4 01
	00		 mov	 DWORD PTR [edx+107620], eax
  00140	8b 83 68 a4 01
	00		 mov	 eax, DWORD PTR [ebx+107624]
  00146	89 82 68 a4 01
	00		 mov	 DWORD PTR [edx+107624], eax
  0014c	8b 83 6c a4 01
	00		 mov	 eax, DWORD PTR [ebx+107628]
  00152	89 82 6c a4 01
	00		 mov	 DWORD PTR [edx+107628], eax
  00158	8b 83 70 a4 01
	00		 mov	 eax, DWORD PTR [ebx+107632]
  0015e	8d b3 90 a4 01
	00		 lea	 esi, DWORD PTR [ebx+107664]
  00164	89 82 70 a4 01
	00		 mov	 DWORD PTR [edx+107632], eax
  0016a	8d ba 90 a4 01
	00		 lea	 edi, DWORD PTR [edx+107664]
  00170	8b 83 74 a4 01
	00		 mov	 eax, DWORD PTR [ebx+107636]
  00176	b9 41 00 00 00	 mov	 ecx, 65			; 00000041H
  0017b	89 82 74 a4 01
	00		 mov	 DWORD PTR [edx+107636], eax
  00181	8b 83 78 a4 01
	00		 mov	 eax, DWORD PTR [ebx+107640]
  00187	89 82 78 a4 01
	00		 mov	 DWORD PTR [edx+107640], eax
  0018d	8b 83 7c a4 01
	00		 mov	 eax, DWORD PTR [ebx+107644]
  00193	89 82 7c a4 01
	00		 mov	 DWORD PTR [edx+107644], eax
  00199	8b 83 80 a4 01
	00		 mov	 eax, DWORD PTR [ebx+107648]
  0019f	89 82 80 a4 01
	00		 mov	 DWORD PTR [edx+107648], eax
  001a5	8b 83 84 a4 01
	00		 mov	 eax, DWORD PTR [ebx+107652]
  001ab	89 82 84 a4 01
	00		 mov	 DWORD PTR [edx+107652], eax
  001b1	8b 83 88 a4 01
	00		 mov	 eax, DWORD PTR [ebx+107656]
  001b7	89 82 88 a4 01
	00		 mov	 DWORD PTR [edx+107656], eax
  001bd	8b 83 8c a4 01
	00		 mov	 eax, DWORD PTR [ebx+107660]
  001c3	89 82 8c a4 01
	00		 mov	 DWORD PTR [edx+107660], eax
  001c9	f3 a5		 rep movsd
  001cb	8d b3 94 a5 01
	00		 lea	 esi, DWORD PTR [ebx+107924]
  001d1	b9 41 00 00 00	 mov	 ecx, 65			; 00000041H
  001d6	8d ba 94 a5 01
	00		 lea	 edi, DWORD PTR [edx+107924]
  001dc	f3 a5		 rep movsd
  001de	8d b3 98 a6 01
	00		 lea	 esi, DWORD PTR [ebx+108184]
  001e4	b9 00 01 00 00	 mov	 ecx, 256		; 00000100H
  001e9	8d ba 98 a6 01
	00		 lea	 edi, DWORD PTR [edx+108184]
  001ef	f3 a5		 rep movsd
  001f1	8b 83 98 aa 01
	00		 mov	 eax, DWORD PTR [ebx+109208]
  001f7	89 82 98 aa 01
	00		 mov	 DWORD PTR [edx+109208], eax
  001fd	8b 83 9c aa 01
	00		 mov	 eax, DWORD PTR [ebx+109212]
  00203	5f		 pop	 edi
  00204	89 82 9c aa 01
	00		 mov	 DWORD PTR [edx+109212], eax
  0020a	8b 83 a0 aa 01
	00		 mov	 eax, DWORD PTR [ebx+109216]
  00210	5e		 pop	 esi
  00211	89 82 a0 aa 01
	00		 mov	 DWORD PTR [edx+109216], eax
  00217	8b c2		 mov	 eax, edx
  00219	5b		 pop	 ebx
  0021a	8b e5		 mov	 esp, ebp
  0021c	5d		 pop	 ebp
  0021d	c2 04 00	 ret	 4
??0i3NetworkHTTP@@QAE@ABV0@@Z ENDP			; i3NetworkHTTP::i3NetworkHTTP
_TEXT	ENDS
; Function compile flags: /Ogtp
; File E:\Proyectos\JuegosOnlineproyectos\PB\pbblow\Piercing Blow Remake\i3Server\src\i3Base\i3NetworkHTTP.cpp
;	COMDAT ?GetPostArguments@i3NetworkHTTP@@QAEXPADH@Z
_TEXT	SEGMENT
_szPostArguments$ = 8					; size = 4
_nValue$ = 12						; size = 4
?GetPostArguments@i3NetworkHTTP@@QAEXPADH@Z PROC	; i3NetworkHTTP::GetPostArguments, COMDAT
; _this$ = ecx

; 973  : {

  00000	55		 push	 ebp
  00001	8b ec		 mov	 ebp, esp

; 974  : 	i3String::Copy( szPostArguments, m_szPostArguments, nValue );

  00003	ff 75 0c	 push	 DWORD PTR _nValue$[ebp]
  00006	8d 81 32 0f 00
	00		 lea	 eax, DWORD PTR [ecx+3890]
  0000c	50		 push	 eax
  0000d	ff 75 08	 push	 DWORD PTR _szPostArguments$[ebp]
  00010	e8 00 00 00 00	 call	 ?Copy@i3String@@YAXPADPBDH@Z ; i3String::Copy
  00015	83 c4 0c	 add	 esp, 12			; 0000000cH

; 975  : }

  00018	5d		 pop	 ebp
  00019	c2 08 00	 ret	 8
?GetPostArguments@i3NetworkHTTP@@QAEXPADH@Z ENDP	; i3NetworkHTTP::GetPostArguments
_TEXT	ENDS
; Function compile flags: /Ogtp
; File E:\Proyectos\JuegosOnlineproyectos\PB\pbblow\Piercing Blow Remake\i3Server\include\i3Base\i3NetworkHTTP.h
;	COMDAT ?GetLastErrorCode@i3NetworkHTTP@@QAEHXZ
_TEXT	SEGMENT
?GetLastErrorCode@i3NetworkHTTP@@QAEHXZ PROC		; i3NetworkHTTP::GetLastErrorCode, COMDAT
; _this$ = ecx

; 216  : 	INT32	GetLastErrorCode(void)		{ return m_nLastErrorCode;	}

  00000	8b 81 98 aa 01
	00		 mov	 eax, DWORD PTR [ecx+109208]
  00006	c3		 ret	 0
?GetLastErrorCode@i3NetworkHTTP@@QAEHXZ ENDP		; i3NetworkHTTP::GetLastErrorCode
_TEXT	ENDS
; Function compile flags: /Ogtp
; File E:\Proyectos\JuegosOnlineproyectos\PB\pbblow\Piercing Blow Remake\i3Server\include\i3Base\i3NetworkHTTP.h
;	COMDAT ?GetLastErrorString@i3NetworkHTTP@@QAEPADXZ
_TEXT	SEGMENT
?GetLastErrorString@i3NetworkHTTP@@QAEPADXZ PROC	; i3NetworkHTTP::GetLastErrorString, COMDAT
; _this$ = ecx

; 215  : 	char*	GetLastErrorString(void)	{ return m_szLastError;		}

  00000	8d 81 98 a6 01
	00		 lea	 eax, DWORD PTR [ecx+108184]
  00006	c3		 ret	 0
?GetLastErrorString@i3NetworkHTTP@@QAEPADXZ ENDP	; i3NetworkHTTP::GetLastErrorString
_TEXT	ENDS
; Function compile flags: /Ogtp
; File E:\Proyectos\JuegosOnlineproyectos\PB\pbblow\Piercing Blow Remake\i3Server\include\i3Base\i3NetworkHTTP.h
;	COMDAT ?GetFileError@i3NetworkHTTP@@QAEHXZ
_TEXT	SEGMENT
?GetFileError@i3NetworkHTTP@@QAEHXZ PROC		; i3NetworkHTTP::GetFileError, COMDAT
; _this$ = ecx

; 214  : 	INT32	GetFileError(void)			{ return m_FileErrorCode;	}	

  00000	8b 81 68 a4 01
	00		 mov	 eax, DWORD PTR [ecx+107624]
  00006	c3		 ret	 0
?GetFileError@i3NetworkHTTP@@QAEHXZ ENDP		; i3NetworkHTTP::GetFileError
_TEXT	ENDS
; Function compile flags: /Ogtp
; File E:\Proyectos\JuegosOnlineproyectos\PB\pbblow\Piercing Blow Remake\i3Server\include\i3Base\i3NetworkHTTP.h
;	COMDAT ?GetState@i3NetworkHTTP@@QAEHXZ
_TEXT	SEGMENT
?GetState@i3NetworkHTTP@@QAEHXZ PROC			; i3NetworkHTTP::GetState, COMDAT
; _this$ = ecx

; 212  : 	INT32	GetState(void)				{ return m_State;			} 

  00000	8b 81 64 a4 01
	00		 mov	 eax, DWORD PTR [ecx+107620]
  00006	c3		 ret	 0
?GetState@i3NetworkHTTP@@QAEHXZ ENDP			; i3NetworkHTTP::GetState
_TEXT	ENDS
; Function compile flags: /Ogtp
; File E:\Proyectos\JuegosOnlineproyectos\PB\pbblow\Piercing Blow Remake\i3Server\src\i3Base\i3NetworkHTTP.cpp
;	COMDAT ?DeleteFileA@i3NetworkHTTP@@QAEHPAD@Z
_TEXT	SEGMENT
_pszPath$ = 8						; size = 4
?DeleteFileA@i3NetworkHTTP@@QAEHPAD@Z PROC		; i3NetworkHTTP::DeleteFileA, COMDAT
; _this$ = ecx

; 626  : 	return 1;

  00000	b8 01 00 00 00	 mov	 eax, 1

; 627  : }

  00005	c2 04 00	 ret	 4
?DeleteFileA@i3NetworkHTTP@@QAEHPAD@Z ENDP		; i3NetworkHTTP::DeleteFileA
_TEXT	ENDS
; Function compile flags: /Ogtp
; File E:\Proyectos\JuegosOnlineproyectos\PB\pbblow\Piercing Blow Remake\i3Server\src\i3Base\i3NetworkHTTP.cpp
;	COMDAT ?CheckFile@i3NetworkHTTP@@QAEHPAD@Z
_TEXT	SEGMENT
_pszPath$ = 8						; size = 4
?CheckFile@i3NetworkHTTP@@QAEHPAD@Z PROC		; i3NetworkHTTP::CheckFile, COMDAT
; _this$ = ecx

; 617  : {

  00000	56		 push	 esi
  00001	57		 push	 edi

; 151  : 	m_hInternet = ::InternetOpen( m_szAgentName, INTERNET_OPEN_TYPE_PRECONFIG, NULL, NULL, 0 );

  00002	6a 00		 push	 0
  00004	6a 00		 push	 0

; 617  : {

  00006	8b f1		 mov	 esi, ecx

; 151  : 	m_hInternet = ::InternetOpen( m_szAgentName, INTERNET_OPEN_TYPE_PRECONFIG, NULL, NULL, 0 );

  00008	6a 00		 push	 0
  0000a	6a 00		 push	 0
  0000c	8d 46 26	 lea	 eax, DWORD PTR [esi+38]
  0000f	50		 push	 eax
  00010	ff 15 00 00 00
	00		 call	 DWORD PTR __imp__InternetOpenA@20
  00016	89 46 10	 mov	 DWORD PTR [esi+16], eax

; 152  : 	if( m_hInternet == NULL )

  00019	85 c0		 test	 eax, eax
  0001b	75 29		 jne	 SHORT $LN4@CheckFile

; 153  : 	{
; 154  : 		// Error
; 155  : 		i3String::Copy( m_szLastError, "Cannot open internet", 1024);

  0001d	68 00 04 00 00	 push	 1024			; 00000400H
  00022	8d 86 98 a6 01
	00		 lea	 eax, DWORD PTR [esi+108184]
  00028	68 00 00 00 00	 push	 OFFSET ??_C@_0BF@PJCNEGDJ@Cannot?5open?5internet@
  0002d	50		 push	 eax
  0002e	e8 00 00 00 00	 call	 ?Copy@i3String@@YAXPADPBDH@Z ; i3String::Copy
  00033	83 c4 0c	 add	 esp, 12			; 0000000cH

; 156  : 		m_nLastErrorCode=::GetLastError();

  00036	ff 15 00 00 00
	00		 call	 DWORD PTR __imp__GetLastError@0
  0003c	89 86 98 aa 01
	00		 mov	 DWORD PTR [esi+109208], eax

; 157  : 		return FALSE;

  00042	33 ff		 xor	 edi, edi
  00044	eb 05		 jmp	 SHORT $LN3@CheckFile
$LN4@CheckFile:

; 158  : 	}
; 159  : 	
; 160  : 	return TRUE;

  00046	bf 01 00 00 00	 mov	 edi, 1
$LN3@CheckFile:

; 270  : 	if( m_hHttp )

  0004b	8b 46 14	 mov	 eax, DWORD PTR [esi+20]
  0004e	85 c0		 test	 eax, eax
  00050	74 0e		 je	 SHORT $LN7@CheckFile

; 271  : 	{
; 272  : 		::InternetCloseHandle( m_hHttp );

  00052	50		 push	 eax
  00053	ff 15 00 00 00
	00		 call	 DWORD PTR __imp__InternetCloseHandle@4

; 273  : 		m_hHttp = NULL;

  00059	c7 46 14 00 00
	00 00		 mov	 DWORD PTR [esi+20], 0
$LN7@CheckFile:

; 274  : 	}
; 275  : 
; 276  : 	if( m_hInternet )

  00060	8b 46 10	 mov	 eax, DWORD PTR [esi+16]
  00063	85 c0		 test	 eax, eax
  00065	74 0e		 je	 SHORT $LN10@CheckFile

; 277  : 	{
; 278  : 		::InternetCloseHandle( m_hInternet );

  00067	50		 push	 eax
  00068	ff 15 00 00 00
	00		 call	 DWORD PTR __imp__InternetCloseHandle@4

; 279  : 		m_hInternet = NULL;

  0006e	c7 46 10 00 00
	00 00		 mov	 DWORD PTR [esi+16], 0
$LN10@CheckFile:

; 618  : 	BOOL Rv;
; 619  : 	Rv = _ConnectGET( pszPath );
; 620  : 	_DisConnectGET(); 
; 621  : 	return Rv;
; 622  : }

  00075	8b c7		 mov	 eax, edi
  00077	5f		 pop	 edi
  00078	5e		 pop	 esi
  00079	c2 04 00	 ret	 4
?CheckFile@i3NetworkHTTP@@QAEHPAD@Z ENDP		; i3NetworkHTTP::CheckFile
_TEXT	ENDS
; Function compile flags: /Ogtp
; File E:\Proyectos\JuegosOnlineproyectos\PB\pbblow\Piercing Blow Remake\i3Server\src\i3Base\i3NetworkHTTP.cpp
;	COMDAT ?UpFile@i3NetworkHTTP@@QAEHXZ
_TEXT	SEGMENT
_nWritten$ = -12					; size = 4
_nRead$ = -8						; size = 4
_nAvailableSize$ = -4					; size = 4
?UpFile@i3NetworkHTTP@@QAEHXZ PROC			; i3NetworkHTTP::UpFile, COMDAT
; _this$ = ecx

; 570  : {

  00000	55		 push	 ebp
  00001	8b ec		 mov	 ebp, esp
  00003	83 ec 0c	 sub	 esp, 12			; 0000000cH
  00006	56		 push	 esi
  00007	8b f1		 mov	 esi, ecx

; 571  : 	UINT32	nAvailableSize = 65536;

  00009	c7 45 fc 00 00
	01 00		 mov	 DWORD PTR _nAvailableSize$[ebp], 65536 ; 00010000H

; 572  : 	UINT32	nWritten = 0;

  00010	c7 45 f4 00 00
	00 00		 mov	 DWORD PTR _nWritten$[ebp], 0

; 573  : 	UINT32	nRead = 0;

  00017	c7 45 f8 00 00
	00 00		 mov	 DWORD PTR _nRead$[ebp], 0

; 574  : 
; 575  : 	if( m_State == HTTP_STATE_UPLOADING)

  0001e	83 be 64 a4 01
	00 05		 cmp	 DWORD PTR [esi+107620], 5
  00025	0f 85 cd 00 00
	00		 jne	 $LN6@UpFile

; 576  : 	{
; 577  : 		// ľ÷·ÎµĺÇŇ Ľö ŔÖ´Â ĆĐĹ¶·®Ŕ» ±¸ÇŃ´Ů.
; 578  : 		if( ::InternetQueryDataAvailable( m_hHttp, (LPDWORD) &nAvailableSize, 0, 0 ) == FALSE )

  0002b	6a 00		 push	 0
  0002d	6a 00		 push	 0
  0002f	8d 45 fc	 lea	 eax, DWORD PTR _nAvailableSize$[ebp]
  00032	50		 push	 eax
  00033	ff 76 14	 push	 DWORD PTR [esi+20]
  00036	ff 15 00 00 00
	00		 call	 DWORD PTR __imp__InternetQueryDataAvailable@16
  0003c	85 c0		 test	 eax, eax
  0003e	75 1b		 jne	 SHORT $LN3@UpFile

; 579  : 		{
; 580  : 			Cancel();

  00040	8b ce		 mov	 ecx, esi
  00042	e8 00 00 00 00	 call	 ?Cancel@i3NetworkHTTP@@QAEXXZ ; i3NetworkHTTP::Cancel

; 581  : 			m_State = HTTP_STATE_UPFAILE;

  00047	c7 86 64 a4 01
	00 07 00 00 00	 mov	 DWORD PTR [esi+107620], 7

; 582  : 			return HTTP_ERR_UPSIZE;

  00051	b8 f7 ff ff ff	 mov	 eax, -9			; fffffff7H
  00056	5e		 pop	 esi

; 613  : }

  00057	8b e5		 mov	 esp, ebp
  00059	5d		 pop	 ebp
  0005a	c3		 ret	 0
$LN3@UpFile:

; 583  : 		}
; 584  : 		// ĆÄŔĎŔ» ·ÎÄĂżˇĽ­ ŔĐľîżÂ´Ů.
; 585  : 		if( ::ReadFile( m_hFile, m_pReadBuf, nAvailableSize, (LPDWORD) &nRead, NULL ) == FALSE )

  0005b	6a 00		 push	 0
  0005d	8d 45 f8	 lea	 eax, DWORD PTR _nRead$[ebp]
  00060	50		 push	 eax
  00061	ff 75 fc	 push	 DWORD PTR _nAvailableSize$[ebp]
  00064	ff b6 58 a4 01
	00		 push	 DWORD PTR [esi+107608]
  0006a	ff 76 1c	 push	 DWORD PTR [esi+28]
  0006d	ff 15 00 00 00
	00		 call	 DWORD PTR __imp__ReadFile@20
  00073	85 c0		 test	 eax, eax
  00075	75 1b		 jne	 SHORT $LN4@UpFile

; 586  : 		{			
; 587  : 			Cancel();

  00077	8b ce		 mov	 ecx, esi
  00079	e8 00 00 00 00	 call	 ?Cancel@i3NetworkHTTP@@QAEXXZ ; i3NetworkHTTP::Cancel

; 588  : 			m_State = HTTP_STATE_UPFAILE;

  0007e	c7 86 64 a4 01
	00 07 00 00 00	 mov	 DWORD PTR [esi+107620], 7

; 589  : 			return HTTP_ERR_READFILE;

  00088	b8 fb ff ff ff	 mov	 eax, -5			; fffffffbH
  0008d	5e		 pop	 esi

; 613  : }

  0008e	8b e5		 mov	 esp, ebp
  00090	5d		 pop	 ebp
  00091	c3		 ret	 0
$LN4@UpFile:

; 590  : 		}
; 591  : 
; 592  : 		// ĆĐĹ¶ ŔüĽŰ
; 593  : 		if( ::InternetWriteFile( m_hHttp, m_pReadBuf, nRead, (LPDWORD) &nWritten ) == FALSE )

  00092	8d 45 f4	 lea	 eax, DWORD PTR _nWritten$[ebp]
  00095	50		 push	 eax
  00096	ff 75 f8	 push	 DWORD PTR _nRead$[ebp]
  00099	ff b6 58 a4 01
	00		 push	 DWORD PTR [esi+107608]
  0009f	ff 76 14	 push	 DWORD PTR [esi+20]
  000a2	ff 15 00 00 00
	00		 call	 DWORD PTR __imp__InternetWriteFile@16
  000a8	85 c0		 test	 eax, eax
  000aa	75 1b		 jne	 SHORT $LN5@UpFile

; 594  : 		{
; 595  : 			Cancel();

  000ac	8b ce		 mov	 ecx, esi
  000ae	e8 00 00 00 00	 call	 ?Cancel@i3NetworkHTTP@@QAEXXZ ; i3NetworkHTTP::Cancel

; 596  : 			m_State = HTTP_STATE_UPFAILE;

  000b3	c7 86 64 a4 01
	00 07 00 00 00	 mov	 DWORD PTR [esi+107620], 7

; 597  : 			return HTTP_ERR_WRITEFILE;

  000bd	b8 fa ff ff ff	 mov	 eax, -6			; fffffffaH
  000c2	5e		 pop	 esi

; 613  : }

  000c3	8b e5		 mov	 esp, ebp
  000c5	5d		 pop	 ebp
  000c6	c3		 ret	 0
$LN5@UpFile:

; 598  : 		}
; 599  : 
; 600  : 		// ľ÷·ÎµĺÇŃ ľç
; 601  : 		m_nSend += nWritten;

  000c7	8b 45 f4	 mov	 eax, DWORD PTR _nWritten$[ebp]
  000ca	01 86 60 a4 01
	00		 add	 DWORD PTR [esi+107616], eax

; 602  : 
; 603  : 		if( m_nSize == m_nRecv )

  000d0	8b 86 9c aa 01
	00		 mov	 eax, DWORD PTR [esi+109212]
  000d6	3b 86 a0 aa 01
	00		 cmp	 eax, DWORD PTR [esi+109216]
  000dc	75 1a		 jne	 SHORT $LN6@UpFile

; 604  : 		{
; 605  : 			// ´Ůżî·Îµĺ żĎ·á
; 606  : 			_DisConnectGET();

  000de	8b ce		 mov	 ecx, esi
  000e0	e8 00 00 00 00	 call	 ?_DisConnectGET@i3NetworkHTTP@@IAEXXZ ; i3NetworkHTTP::_DisConnectGET

; 607  : 			::CloseHandle( m_hFile );

  000e5	ff 76 1c	 push	 DWORD PTR [esi+28]
  000e8	ff 15 00 00 00
	00		 call	 DWORD PTR __imp__CloseHandle@4

; 608  : 			m_State	= HTTP_STATE_UPCOMPLETE;

  000ee	c7 86 64 a4 01
	00 06 00 00 00	 mov	 DWORD PTR [esi+107620], 6
$LN6@UpFile:

; 609  : 		}
; 610  : 	}
; 611  : 
; 612  : 	return m_State; 

  000f8	8b 86 64 a4 01
	00		 mov	 eax, DWORD PTR [esi+107620]
  000fe	5e		 pop	 esi

; 613  : }

  000ff	8b e5		 mov	 esp, ebp
  00101	5d		 pop	 ebp
  00102	c3		 ret	 0
?UpFile@i3NetworkHTTP@@QAEHXZ ENDP			; i3NetworkHTTP::UpFile
_TEXT	ENDS
; Function compile flags: /Ogtp
; File E:\Proyectos\JuegosOnlineproyectos\PB\pbblow\Piercing Blow Remake\i3Server\src\i3Base\i3NetworkHTTP.cpp
;	COMDAT ?UpStart@i3NetworkHTTP@@QAEHPAD0@Z
_TEXT	SEGMENT
_fileinfo$ = -56					; size = 52
__$ArrayPad$ = -4					; size = 4
_pszURL$ = 8						; size = 4
_pszPath$ = 12						; size = 4
?UpStart@i3NetworkHTTP@@QAEHPAD0@Z PROC			; i3NetworkHTTP::UpStart, COMDAT
; _this$ = ecx

; 522  : {

  00000	55		 push	 ebp
  00001	8b ec		 mov	 ebp, esp
  00003	83 ec 38	 sub	 esp, 56			; 00000038H
  00006	a1 00 00 00 00	 mov	 eax, DWORD PTR ___security_cookie
  0000b	33 c5		 xor	 eax, ebp
  0000d	89 45 fc	 mov	 DWORD PTR __$ArrayPad$[ebp], eax
  00010	8b 45 08	 mov	 eax, DWORD PTR _pszURL$[ebp]
  00013	53		 push	 ebx
  00014	8b 5d 0c	 mov	 ebx, DWORD PTR _pszPath$[ebp]
  00017	56		 push	 esi
  00018	8b f1		 mov	 esi, ecx
  0001a	57		 push	 edi

; 523  : 	INT32 Rv = HTTP_ERR_REUPLOAD; 

  0001b	bf f9 ff ff ff	 mov	 edi, -7			; fffffff9H

; 524  : 
; 525  : 	BY_HANDLE_FILE_INFORMATION	fileinfo;
; 526  : 
; 527  : 	INTERNET_BUFFERS		ibuf;
; 528  : 
; 529  : 	if( m_State != HTTP_STATE_UPLOADING )

  00020	83 be 64 a4 01
	00 05		 cmp	 DWORD PTR [esi+107620], 5
  00027	0f 84 a6 00 00
	00		 je	 $LN5@UpStart

; 530  : 	{
; 531  : 		// Á˘ĽÓ
; 532  : 		m_nSize = 0;
; 533  : 		m_nRecv	= 0;
; 534  : 
; 535  : 		if( _ConnectPUT( pszURL) == FALSE )

  0002d	50		 push	 eax
  0002e	c7 86 9c aa 01
	00 00 00 00 00	 mov	 DWORD PTR [esi+109212], 0
  00038	c7 86 a0 aa 01
	00 00 00 00 00	 mov	 DWORD PTR [esi+109216], 0
  00042	e8 00 00 00 00	 call	 ?_ConnectPUT@i3NetworkHTTP@@IAEHPAD@Z ; i3NetworkHTTP::_ConnectPUT
  00047	85 c0		 test	 eax, eax
  00049	75 20		 jne	 SHORT $LN3@UpStart

; 536  : 		{
; 537  : 			// Á˘ĽÓ ˝ÇĆĐŔÔ´Ď´Ů.
; 538  : 			m_State = HTTP_STATE_UPFAILE; 

  0004b	5f		 pop	 edi
  0004c	c7 86 64 a4 01
	00 07 00 00 00	 mov	 DWORD PTR [esi+107620], 7

; 539  : 			return HTTP_ERR_CONNECT;

  00056	83 c8 ff	 or	 eax, -1

; 563  : 		}
; 564  : 	}
; 565  : 
; 566  : 	return Rv;
; 567  : }

  00059	5e		 pop	 esi
  0005a	5b		 pop	 ebx
  0005b	8b 4d fc	 mov	 ecx, DWORD PTR __$ArrayPad$[ebp]
  0005e	33 cd		 xor	 ecx, ebp
  00060	e8 00 00 00 00	 call	 @__security_check_cookie@4
  00065	8b e5		 mov	 esp, ebp
  00067	5d		 pop	 ebp
  00068	c2 08 00	 ret	 8
$LN3@UpStart:

; 540  : 		}
; 541  : 
; 542  : 		ibuf.dwStructSize	= sizeof( INTERNET_BUFFERS );
; 543  : 		ibuf.Next			= NULL;
; 544  : 		ibuf.lpcszHeader	= NULL;
; 545  : 		ibuf.dwHeadersLength	= NULL;
; 546  : 		if( ::HttpSendRequest( m_hHttp, NULL, 0, NULL, NULL ) == FALSE )

  0006b	6a 00		 push	 0
  0006d	6a 00		 push	 0
  0006f	6a 00		 push	 0
  00071	6a 00		 push	 0
  00073	ff 76 14	 push	 DWORD PTR [esi+20]
  00076	ff 15 00 00 00
	00		 call	 DWORD PTR __imp__HttpSendRequestA@20
  0007c	85 c0		 test	 eax, eax
  0007e	75 0c		 jne	 SHORT $LN4@UpStart

; 547  : 		{
; 548  : 			// ¸í·ÉŔ» ş¸ł»Áö ¸řÇß˝Ŕ´Ď´Ů.
; 549  : 			m_State = HTTP_STATE_UPFAILE;

  00080	c7 86 64 a4 01
	00 07 00 00 00	 mov	 DWORD PTR [esi+107620], 7

; 550  : 		}

  0008a	eb 47		 jmp	 SHORT $LN5@UpStart
$LN4@UpStart:

; 551  : 		else
; 552  : 		{
; 553  : 			m_State = HTTP_STATE_UPLOADING;
; 554  : 
; 555  : 			// ĆÄŔĎŔ» żŔÇÂÇŐ´Ď´Ů.
; 556  : 			m_hFile = ::CreateFile( pszPath, GENERIC_READ, 0, NULL, OPEN_ALWAYS, FILE_ATTRIBUTE_READONLY, NULL );

  0008c	6a 00		 push	 0
  0008e	6a 01		 push	 1
  00090	6a 04		 push	 4
  00092	6a 00		 push	 0
  00094	6a 00		 push	 0
  00096	68 00 00 00 80	 push	 -2147483648		; 80000000H
  0009b	53		 push	 ebx
  0009c	c7 86 64 a4 01
	00 05 00 00 00	 mov	 DWORD PTR [esi+107620], 5
  000a6	ff 15 00 00 00
	00		 call	 DWORD PTR __imp__CreateFileA@28

; 557  : 			// ĆÄŔĎ »çŔĚÁî¸¦ łÖľîÁŕľßµË´Ď´Ů....
; 558  : 			::GetFileInformationByHandle( m_hFile, &fileinfo );

  000ac	8d 4d c8	 lea	 ecx, DWORD PTR _fileinfo$[ebp]
  000af	89 46 1c	 mov	 DWORD PTR [esi+28], eax
  000b2	51		 push	 ecx
  000b3	50		 push	 eax
  000b4	ff 15 00 00 00
	00		 call	 DWORD PTR __imp__GetFileInformationByHandle@8

; 559  : 			
; 560  : 			Rv = m_nSize	= (fileinfo.nFileSizeHigh << 16) | ( fileinfo.nFileSizeLow );

  000ba	8b 7d e8	 mov	 edi, DWORD PTR _fileinfo$[ebp+32]
  000bd	c1 e7 10	 shl	 edi, 16			; 00000010H
  000c0	0b 7d ec	 or	 edi, DWORD PTR _fileinfo$[ebp+36]
  000c3	89 be 9c aa 01
	00		 mov	 DWORD PTR [esi+109212], edi

; 561  : 
; 562  : 			m_nSend = 0;

  000c9	c7 86 60 a4 01
	00 00 00 00 00	 mov	 DWORD PTR [esi+107616], 0
$LN5@UpStart:

; 563  : 		}
; 564  : 	}
; 565  : 
; 566  : 	return Rv;
; 567  : }

  000d3	8b 4d fc	 mov	 ecx, DWORD PTR __$ArrayPad$[ebp]
  000d6	8b c7		 mov	 eax, edi
  000d8	5f		 pop	 edi
  000d9	5e		 pop	 esi
  000da	33 cd		 xor	 ecx, ebp
  000dc	5b		 pop	 ebx
  000dd	e8 00 00 00 00	 call	 @__security_check_cookie@4
  000e2	8b e5		 mov	 esp, ebp
  000e4	5d		 pop	 ebp
  000e5	c2 08 00	 ret	 8
?UpStart@i3NetworkHTTP@@QAEHPAD0@Z ENDP			; i3NetworkHTTP::UpStart
_TEXT	ENDS
; Function compile flags: /Ogtp
; File E:\Proyectos\JuegosOnlineproyectos\PB\pbblow\Piercing Blow Remake\i3Server\src\i3Base\i3NetworkHTTP.cpp
;	COMDAT ?ReloadCheck@i3NetworkHTTP@@QAEHXZ
_TEXT	SEGMENT
?ReloadCheck@i3NetworkHTTP@@QAEHXZ PROC			; i3NetworkHTTP::ReloadCheck, COMDAT
; _this$ = ecx

; 425  : 	m_nReloadCount++;

  00000	ff 81 70 a4 01
	00		 inc	 DWORD PTR [ecx+107632]
  00006	8b 81 70 a4 01
	00		 mov	 eax, DWORD PTR [ecx+107632]

; 426  : 	if( m_nReloadCount > m_nTotalReload )

  0000c	3b 81 6c a4 01
	00		 cmp	 eax, DWORD PTR [ecx+107628]
  00012	7e 03		 jle	 SHORT $LN2@ReloadChec

; 430  : 	return TRUE;
; 431  : }

  00014	33 c0		 xor	 eax, eax
  00016	c3		 ret	 0
$LN2@ReloadChec:

; 427  : 		return FALSE;
; 428  : 
; 429  : 	m_State = HTTP_STATE_REDOWNLOAD;

  00017	c7 81 64 a4 01
	00 02 00 00 00	 mov	 DWORD PTR [ecx+107620], 2

; 430  : 	return TRUE;
; 431  : }

  00021	b8 01 00 00 00	 mov	 eax, 1
  00026	c3		 ret	 0
?ReloadCheck@i3NetworkHTTP@@QAEHXZ ENDP			; i3NetworkHTTP::ReloadCheck
_TEXT	ENDS
; Function compile flags: /Ogtp
; File E:\Proyectos\JuegosOnlineproyectos\PB\pbblow\Piercing Blow Remake\i3Server\src\i3Base\i3NetworkHTTP.cpp
;	COMDAT ?RestartCheck@i3NetworkHTTP@@QAEHXZ
_TEXT	SEGMENT
?RestartCheck@i3NetworkHTTP@@QAEHXZ PROC		; i3NetworkHTTP::RestartCheck, COMDAT
; _this$ = ecx

; 435  : 	m_nRestartCount++;

  00000	ff 81 78 a4 01
	00		 inc	 DWORD PTR [ecx+107640]

; 436  : 	if( m_nRestartCount > m_nTotalRestart )
; 437  : 		return FALSE;
; 438  : 
; 439  : 	return TRUE;
; 440  : }

  00006	33 c0		 xor	 eax, eax
  00008	8b 91 78 a4 01
	00		 mov	 edx, DWORD PTR [ecx+107640]
  0000e	3b 91 74 a4 01
	00		 cmp	 edx, DWORD PTR [ecx+107636]
  00014	0f 9e c0	 setle	 al
  00017	c3		 ret	 0
?RestartCheck@i3NetworkHTTP@@QAEHXZ ENDP		; i3NetworkHTTP::RestartCheck
_TEXT	ENDS
; Function compile flags: /Ogtp
; File E:\Proyectos\JuegosOnlineproyectos\PB\pbblow\Piercing Blow Remake\i3Server\include\i3Base\i3NetworkHTTP.h
;	COMDAT ?GetReadBuffer@i3NetworkHTTP@@QAEPADXZ
_TEXT	SEGMENT
?GetReadBuffer@i3NetworkHTTP@@QAEPADXZ PROC		; i3NetworkHTTP::GetReadBuffer, COMDAT
; _this$ = ecx

; 199  : 	char*	GetReadBuffer()				{ return m_pReadBuf;		}

  00000	8b 81 58 a4 01
	00		 mov	 eax, DWORD PTR [ecx+107608]
  00006	c3		 ret	 0
?GetReadBuffer@i3NetworkHTTP@@QAEPADXZ ENDP		; i3NetworkHTTP::GetReadBuffer
_TEXT	ENDS
; Function compile flags: /Ogtp
; File E:\Proyectos\JuegosOnlineproyectos\PB\pbblow\Piercing Blow Remake\i3Server\src\i3Base\i3NetworkHTTP.cpp
;	COMDAT ?DownFile@i3NetworkHTTP@@QAEHXZ
_TEXT	SEGMENT
_nRead$ = -16						; size = 4
_nWritten$ = -12					; size = 4
_nAvailableSize$ = -8					; size = 4
_pszPath$2$ = -4					; size = 4
?DownFile@i3NetworkHTTP@@QAEHXZ PROC			; i3NetworkHTTP::DownFile, COMDAT
; _this$ = ecx

; 322  : {	

  00000	55		 push	 ebp
  00001	8b ec		 mov	 ebp, esp
  00003	83 ec 10	 sub	 esp, 16			; 00000010H
  00006	53		 push	 ebx
  00007	56		 push	 esi
  00008	8b f1		 mov	 esi, ecx

; 323  : 	UINT32	nAvailableSize = 65536;

  0000a	c7 45 f8 00 00
	01 00		 mov	 DWORD PTR _nAvailableSize$[ebp], 65536 ; 00010000H
  00011	57		 push	 edi

; 324  : 	UINT32	nRead;
; 325  : 	UINT32	nWritten = 0;

  00012	c7 45 f4 00 00
	00 00		 mov	 DWORD PTR _nWritten$[ebp], 0

; 326  : 	BOOL	Rv;
; 327  : 
; 328  : 	if( m_State == HTTP_STATE_DOWNLOADING)

  00019	83 be 64 a4 01
	00 01		 cmp	 DWORD PTR [esi+107620], 1
  00020	0f 85 03 04 00
	00		 jne	 $ExitErr$187

; 329  : 	{	
; 330  : 		I3ASSERT( m_pReadBuf );
; 331  : 
; 332  : 		// ´Ůżî ąŢŔ» ĆĐĹ¶·®Ŕ» ±¸ÇŃ´Ů.
; 333  : 		Rv = ::InternetQueryDataAvailable( m_hHttp, (LPDWORD) &nAvailableSize, 0, 0 );

  00026	6a 00		 push	 0
  00028	6a 00		 push	 0
  0002a	8d 45 f8	 lea	 eax, DWORD PTR _nAvailableSize$[ebp]
  0002d	50		 push	 eax
  0002e	ff 76 14	 push	 DWORD PTR [esi+20]
  00031	ff 15 00 00 00
	00		 call	 DWORD PTR __imp__InternetQueryDataAvailable@16

; 334  : 
; 335  : 		// ˝ÇĆĐ ¶Ç´Â »çŔĚÁî 0ŔĚ¸é Ĺ¸ŔÓľĆżôŔ» ĂĽĹ©
; 336  : 		if( !Rv || !nAvailableSize )

  00037	85 c0		 test	 eax, eax
  00039	0f 84 39 04 00
	00		 je	 $LN4@DownFile
  0003f	8b 45 f8	 mov	 eax, DWORD PTR _nAvailableSize$[ebp]
  00042	85 c0		 test	 eax, eax
  00044	0f 84 2e 04 00
	00		 je	 $LN4@DownFile

; 344  : 				// Ŕç˝Ăµµ ÇŐ´Ď´Ů.
; 345  : 				if( ReloadCheck() )
; 346  : 				{	
; 347  : 					DownStart( m_szURL, m_szPath );
; 348  : 				}
; 349  : 				else
; 350  : 				{
; 351  : 					m_State = HTTP_STATE_DOWNFAILE;
; 352  : 					m_FileErrorCode = HTTP_ERR_DOWNSIZE;
; 353  : 				}
; 354  : 
; 355  : 				goto ExitErr; 
; 356  : 			}
; 357  : 
; 358  : 			m_nDownTime	= ::GetCurrentTime();
; 359  : 			return m_State;
; 360  : 		}
; 361  : 
; 362  : 		// ĆÄŔĎŔ» ŔĐľî żÂ´Ů. Č¤˝ĂłŞ Ľşąé 
; 363  : 		Rv = ::InternetReadFile( m_hHttp, m_pReadBuf, nAvailableSize, (LPDWORD) &nRead );

  0004a	8d 4d f0	 lea	 ecx, DWORD PTR _nRead$[ebp]
  0004d	51		 push	 ecx
  0004e	50		 push	 eax
  0004f	ff b6 58 a4 01
	00		 push	 DWORD PTR [esi+107608]
  00055	ff 76 14	 push	 DWORD PTR [esi+20]
  00058	ff 15 00 00 00
	00		 call	 DWORD PTR __imp__InternetReadFile@16

; 364  : 
; 365  : 		if( !Rv || !nRead )

  0005e	85 c0		 test	 eax, eax
  00060	0f 84 5b 01 00
	00		 je	 $LN10@DownFile
  00066	8b 45 f0	 mov	 eax, DWORD PTR _nRead$[ebp]
  00069	85 c0		 test	 eax, eax
  0006b	0f 84 50 01 00
	00		 je	 $LN10@DownFile

; 381  : 					m_FileErrorCode = HTTP_ERR_READFILE;
; 382  : 				}
; 383  : 				goto ExitErr;
; 384  : 			}
; 385  : 			m_nDownTime	= ::GetCurrentTime();
; 386  : 			return m_State;
; 387  : 		}
; 388  : 
; 389  : 		// ĆÄŔĎŔ» ·ÎÄĂżˇ ŔúŔĺ
; 390  : 		if( ::WriteFile( m_hFile, m_pReadBuf, nRead, (LPDWORD) &nWritten, NULL ) == FALSE )

  00071	6a 00		 push	 0
  00073	8d 4d f4	 lea	 ecx, DWORD PTR _nWritten$[ebp]
  00076	51		 push	 ecx
  00077	50		 push	 eax
  00078	ff b6 58 a4 01
	00		 push	 DWORD PTR [esi+107608]
  0007e	ff 76 1c	 push	 DWORD PTR [esi+28]
  00081	ff 15 00 00 00
	00		 call	 DWORD PTR __imp__WriteFile@20
  00087	85 c0		 test	 eax, eax
  00089	0f 85 98 00 00
	00		 jne	 $LN15@DownFile

; 502  : 	if( m_State == HTTP_STATE_DOWNLOADING )

  0008f	8b 86 64 a4 01
	00		 mov	 eax, DWORD PTR [esi+107620]
  00095	83 f8 01	 cmp	 eax, 1
  00098	75 19		 jne	 SHORT $LN80@DownFile

; 270  : 	if( m_hHttp )

  0009a	8b 46 14	 mov	 eax, DWORD PTR [esi+20]
  0009d	8b 3d 00 00 00
	00		 mov	 edi, DWORD PTR __imp__InternetCloseHandle@4
  000a3	85 c0		 test	 eax, eax
  000a5	74 3e		 je	 SHORT $LN97@DownFile

; 271  : 	{
; 272  : 		::InternetCloseHandle( m_hHttp );

  000a7	50		 push	 eax
  000a8	ff d7		 call	 edi

; 273  : 		m_hHttp = NULL;

  000aa	c7 46 14 00 00
	00 00		 mov	 DWORD PTR [esi+20], 0

; 505  : 	}

  000b1	eb 32		 jmp	 SHORT $LN97@DownFile
$LN80@DownFile:

; 506  : 	else if( m_State == HTTP_STATE_UPLOADING )

  000b3	83 f8 05	 cmp	 eax, 5
  000b6	74 05		 je	 SHORT $LN179@DownFile

; 507  : 	{
; 508  : 		_DisConnectPUT();
; 509  : 	}
; 510  : 	else if( m_State == HTTP_STATE_POST )

  000b8	83 f8 08	 cmp	 eax, 8
  000bb	75 39		 jne	 SHORT $LN98@DownFile
$LN179@DownFile:

; 511  : 	{
; 512  : 		_DisConnectPOST();
; 513  : 	}
; 514  : 
; 515  : 	::CloseHandle( m_hFile );

  000bd	8b 46 14	 mov	 eax, DWORD PTR [esi+20]
  000c0	8b 3d 00 00 00
	00		 mov	 edi, DWORD PTR __imp__InternetCloseHandle@4
  000c6	85 c0		 test	 eax, eax
  000c8	74 0a		 je	 SHORT $LN96@DownFile
  000ca	50		 push	 eax
  000cb	ff d7		 call	 edi
  000cd	c7 46 14 00 00
	00 00		 mov	 DWORD PTR [esi+20], 0
$LN96@DownFile:
  000d4	8b 46 18	 mov	 eax, DWORD PTR [esi+24]
  000d7	85 c0		 test	 eax, eax
  000d9	74 0a		 je	 SHORT $LN97@DownFile
  000db	50		 push	 eax
  000dc	ff d7		 call	 edi
  000de	c7 46 18 00 00
	00 00		 mov	 DWORD PTR [esi+24], 0
$LN97@DownFile:
  000e5	8b 46 10	 mov	 eax, DWORD PTR [esi+16]
  000e8	85 c0		 test	 eax, eax
  000ea	74 0a		 je	 SHORT $LN98@DownFile
  000ec	50		 push	 eax
  000ed	ff d7		 call	 edi
  000ef	c7 46 10 00 00
	00 00		 mov	 DWORD PTR [esi+16], 0
$LN98@DownFile:
  000f6	ff 76 1c	 push	 DWORD PTR [esi+28]
  000f9	ff 15 00 00 00
	00		 call	 DWORD PTR __imp__CloseHandle@4

; 391  : 		{
; 392  : 			Cancel();
; 393  : 			m_State = HTTP_STATE_DOWNFAILE;

  000ff	c7 86 64 a4 01
	00 04 00 00 00	 mov	 DWORD PTR [esi+107620], 4

; 415  : 		}
; 416  : 	}
; 417  : 
; 418  : ExitErr : 
; 419  : 
; 420  : 	return m_State;
; 421  : }

  00109	8b 86 64 a4 01
	00		 mov	 eax, DWORD PTR [esi+107620]
  0010f	5f		 pop	 edi

; 516  : 	m_hFile = NULL;

  00110	c7 46 1c 00 00
	00 00		 mov	 DWORD PTR [esi+28], 0

; 394  : 			m_FileErrorCode = HTTP_ERR_WRITEFILE;

  00117	c7 86 68 a4 01
	00 fa ff ff ff	 mov	 DWORD PTR [esi+107624], -6 ; fffffffaH

; 415  : 		}
; 416  : 	}
; 417  : 
; 418  : ExitErr : 
; 419  : 
; 420  : 	return m_State;
; 421  : }

  00121	5e		 pop	 esi
  00122	5b		 pop	 ebx
  00123	8b e5		 mov	 esp, ebp
  00125	5d		 pop	 ebp
  00126	c3		 ret	 0
$LN15@DownFile:

; 395  : 			goto ExitErr; 
; 396  : 		}
; 397  : 
; 398  : 		// ´Ůżî·Îµĺ ąŢŔş ľç
; 399  : 		m_nRecv += nWritten;

  00127	8b 86 a0 aa 01
	00		 mov	 eax, DWORD PTR [esi+109216]
  0012d	03 45 f4	 add	 eax, DWORD PTR _nWritten$[ebp]
  00130	89 86 a0 aa 01
	00		 mov	 DWORD PTR [esi+109216], eax

; 400  : 
; 401  : 		m_nOutTimer	= 0;

  00136	c7 86 8c a4 01
	00 00 00 00 00	 mov	 DWORD PTR [esi+107660], 0

; 402  : 		m_nDownTime	= ::GetCurrentTime();

  00140	ff 15 00 00 00
	00		 call	 DWORD PTR __imp__GetTickCount@0
  00146	89 86 84 a4 01
	00		 mov	 DWORD PTR [esi+107652], eax

; 403  : 
; 404  : 		if( m_nSize == m_nRecv )

  0014c	8b 86 9c aa 01
	00		 mov	 eax, DWORD PTR [esi+109212]
  00152	3b 86 a0 aa 01
	00		 cmp	 eax, DWORD PTR [esi+109216]
  00158	0f 85 cb 02 00
	00		 jne	 $ExitErr$187

; 270  : 	if( m_hHttp )

  0015e	8b 46 14	 mov	 eax, DWORD PTR [esi+20]
  00161	8b 3d 00 00 00
	00		 mov	 edi, DWORD PTR __imp__InternetCloseHandle@4
  00167	85 c0		 test	 eax, eax
  00169	74 0a		 je	 SHORT $LN101@DownFile

; 271  : 	{
; 272  : 		::InternetCloseHandle( m_hHttp );

  0016b	50		 push	 eax
  0016c	ff d7		 call	 edi

; 273  : 		m_hHttp = NULL;

  0016e	c7 46 14 00 00
	00 00		 mov	 DWORD PTR [esi+20], 0
$LN101@DownFile:

; 274  : 	}
; 275  : 
; 276  : 	if( m_hInternet )

  00175	8b 46 10	 mov	 eax, DWORD PTR [esi+16]
  00178	85 c0		 test	 eax, eax
  0017a	74 0a		 je	 SHORT $LN102@DownFile

; 277  : 	{
; 278  : 		::InternetCloseHandle( m_hInternet );

  0017c	50		 push	 eax
  0017d	ff d7		 call	 edi

; 279  : 		m_hInternet = NULL;

  0017f	c7 46 10 00 00
	00 00		 mov	 DWORD PTR [esi+16], 0
$LN102@DownFile:

; 405  : 		{
; 406  : 			// ´Ůżî·Îµĺ żĎ·á
; 407  : 			_DisConnectGET();
; 408  : 			::CloseHandle( m_hFile );

  00186	ff 76 1c	 push	 DWORD PTR [esi+28]
  00189	ff 15 00 00 00
	00		 call	 DWORD PTR __imp__CloseHandle@4

; 409  : 			m_hFile = NULL; 
; 410  : 
; 411  : 			m_nRestartCount = 0;
; 412  : 			m_nReloadCount	= 0;
; 413  : 			
; 414  : 			m_State	= HTTP_STATE_DOWNCOMPLETE;

  0018f	c7 86 64 a4 01
	00 03 00 00 00	 mov	 DWORD PTR [esi+107620], 3

; 415  : 		}
; 416  : 	}
; 417  : 
; 418  : ExitErr : 
; 419  : 
; 420  : 	return m_State;
; 421  : }

  00199	8b 86 64 a4 01
	00		 mov	 eax, DWORD PTR [esi+107620]
  0019f	5f		 pop	 edi
  001a0	c7 46 1c 00 00
	00 00		 mov	 DWORD PTR [esi+28], 0
  001a7	c7 86 78 a4 01
	00 00 00 00 00	 mov	 DWORD PTR [esi+107640], 0
  001b1	c7 86 70 a4 01
	00 00 00 00 00	 mov	 DWORD PTR [esi+107632], 0
  001bb	5e		 pop	 esi
  001bc	5b		 pop	 ebx
  001bd	8b e5		 mov	 esp, ebp
  001bf	5d		 pop	 ebp
  001c0	c3		 ret	 0
$LN10@DownFile:

; 366  : 		{
; 367  : 			m_nLocktime = ::GetCurrentTime() - m_nDownTime;

  001c1	8b be 84 a4 01
	00		 mov	 edi, DWORD PTR [esi+107652]
  001c7	8b 1d 00 00 00
	00		 mov	 ebx, DWORD PTR __imp__GetTickCount@0
  001cd	ff d3		 call	 ebx

; 368  : 			m_nOutTimer	+= m_nLocktime;

  001cf	8b 8e 8c a4 01
	00		 mov	 ecx, DWORD PTR [esi+107660]
  001d5	2b c7		 sub	 eax, edi
  001d7	03 c8		 add	 ecx, eax
  001d9	89 86 88 a4 01
	00		 mov	 DWORD PTR [esi+107656], eax
  001df	89 8e 8c a4 01
	00		 mov	 DWORD PTR [esi+107660], ecx

; 369  : 
; 370  : 			if( m_nOutTimer > m_nReloadTimeOut )

  001e5	3b 8e 80 a4 01
	00		 cmp	 ecx, DWORD PTR [esi+107648]
  001eb	0f 86 30 02 00
	00		 jbe	 $LN5@DownFile

; 502  : 	if( m_State == HTTP_STATE_DOWNLOADING )

  001f1	8b 86 64 a4 01
	00		 mov	 eax, DWORD PTR [esi+107620]
  001f7	83 f8 01	 cmp	 eax, 1
  001fa	75 19		 jne	 SHORT $LN41@DownFile

; 270  : 	if( m_hHttp )

  001fc	8b 46 14	 mov	 eax, DWORD PTR [esi+20]
  001ff	8b 3d 00 00 00
	00		 mov	 edi, DWORD PTR __imp__InternetCloseHandle@4
  00205	85 c0		 test	 eax, eax
  00207	74 3e		 je	 SHORT $LN58@DownFile

; 271  : 	{
; 272  : 		::InternetCloseHandle( m_hHttp );

  00209	50		 push	 eax
  0020a	ff d7		 call	 edi

; 273  : 		m_hHttp = NULL;

  0020c	c7 46 14 00 00
	00 00		 mov	 DWORD PTR [esi+20], 0

; 505  : 	}

  00213	eb 32		 jmp	 SHORT $LN58@DownFile
$LN41@DownFile:

; 506  : 	else if( m_State == HTTP_STATE_UPLOADING )

  00215	83 f8 05	 cmp	 eax, 5
  00218	74 05		 je	 SHORT $LN185@DownFile

; 507  : 	{
; 508  : 		_DisConnectPUT();
; 509  : 	}
; 510  : 	else if( m_State == HTTP_STATE_POST )

  0021a	83 f8 08	 cmp	 eax, 8
  0021d	75 39		 jne	 SHORT $LN59@DownFile
$LN185@DownFile:

; 511  : 	{
; 512  : 		_DisConnectPOST();
; 513  : 	}
; 514  : 
; 515  : 	::CloseHandle( m_hFile );

  0021f	8b 46 14	 mov	 eax, DWORD PTR [esi+20]
  00222	8b 3d 00 00 00
	00		 mov	 edi, DWORD PTR __imp__InternetCloseHandle@4
  00228	85 c0		 test	 eax, eax
  0022a	74 0a		 je	 SHORT $LN57@DownFile
  0022c	50		 push	 eax
  0022d	ff d7		 call	 edi
  0022f	c7 46 14 00 00
	00 00		 mov	 DWORD PTR [esi+20], 0
$LN57@DownFile:
  00236	8b 46 18	 mov	 eax, DWORD PTR [esi+24]
  00239	85 c0		 test	 eax, eax
  0023b	74 0a		 je	 SHORT $LN58@DownFile
  0023d	50		 push	 eax
  0023e	ff d7		 call	 edi
  00240	c7 46 18 00 00
	00 00		 mov	 DWORD PTR [esi+24], 0
$LN58@DownFile:
  00247	8b 46 10	 mov	 eax, DWORD PTR [esi+16]
  0024a	85 c0		 test	 eax, eax
  0024c	74 0a		 je	 SHORT $LN59@DownFile
  0024e	50		 push	 eax
  0024f	ff d7		 call	 edi
  00251	c7 46 10 00 00
	00 00		 mov	 DWORD PTR [esi+16], 0
$LN59@DownFile:
  00258	ff 76 1c	 push	 DWORD PTR [esi+28]
  0025b	ff 15 00 00 00
	00		 call	 DWORD PTR __imp__CloseHandle@4

; 371  : 			{
; 372  : 				Cancel();
; 373  : 				// Ŕç˝Ăµµ ÇŐ´Ď´Ů.
; 374  : 				if( ReloadCheck() )

  00261	8b ce		 mov	 ecx, esi

; 516  : 	m_hFile = NULL;

  00263	c7 46 1c 00 00
	00 00		 mov	 DWORD PTR [esi+28], 0

; 517  : 
; 518  : 	m_State = HTTP_STATE_NONE;

  0026a	c7 86 64 a4 01
	00 00 00 00 00	 mov	 DWORD PTR [esi+107620], 0

; 371  : 			{
; 372  : 				Cancel();
; 373  : 				// Ŕç˝Ăµµ ÇŐ´Ď´Ů.
; 374  : 				if( ReloadCheck() )

  00274	e8 00 00 00 00	 call	 ?ReloadCheck@i3NetworkHTTP@@QAEHXZ ; i3NetworkHTTP::ReloadCheck
  00279	85 c0		 test	 eax, eax
  0027b	0f 84 d6 01 00
	00		 je	 $LN12@DownFile

; 445  : 	if( HTTP_STATE_DOWNLOADING == m_State )	return HTTP_ERR_REDOWNLOAD; 

  00281	8b 86 64 a4 01
	00		 mov	 eax, DWORD PTR [esi+107620]

; 375  : 				{	
; 376  : 					DownStart( m_szURL, m_szPath );

  00287	8d be 94 a5 01
	00		 lea	 edi, DWORD PTR [esi+107924]

; 445  : 	if( HTTP_STATE_DOWNLOADING == m_State )	return HTTP_ERR_REDOWNLOAD; 

  0028d	83 f8 01	 cmp	 eax, 1
  00290	0f 84 93 01 00
	00		 je	 $ExitErr$187

; 446  : 
; 447  : 	// Á˘ĽÓ
; 448  : 	m_nSize = 0;

  00296	c7 86 9c aa 01
	00 00 00 00 00	 mov	 DWORD PTR [esi+109212], 0

; 449  : 	m_nRecv	= 0;

  002a0	c7 86 a0 aa 01
	00 00 00 00 00	 mov	 DWORD PTR [esi+109216], 0

; 450  : 
; 451  : 	if( m_State != HTTP_STATE_REDOWNLOAD )

  002aa	83 f8 02	 cmp	 eax, 2
  002ad	74 21		 je	 SHORT $LN65@DownFile

; 375  : 				{	
; 376  : 					DownStart( m_szURL, m_szPath );

  002af	8d 86 90 a4 01
	00		 lea	 eax, DWORD PTR [esi+107664]

; 453  : 		i3String::Copy( m_szURL, pszURL, MAX_PATH );

  002b5	68 04 01 00 00	 push	 260			; 00000104H
  002ba	50		 push	 eax
  002bb	50		 push	 eax
  002bc	e8 00 00 00 00	 call	 ?Copy@i3String@@YAXPADPBDH@Z ; i3String::Copy

; 454  : 		i3String::Copy( m_szPath, pszPath, MAX_PATH );

  002c1	68 04 01 00 00	 push	 260			; 00000104H
  002c6	57		 push	 edi
  002c7	57		 push	 edi
  002c8	e8 00 00 00 00	 call	 ?Copy@i3String@@YAXPADPBDH@Z ; i3String::Copy
  002cd	83 c4 18	 add	 esp, 24			; 00000018H
$LN65@DownFile:

; 455  : 	}
; 456  : 	
; 457  : 	m_nOutTimer	= 0;

  002d0	c7 86 8c a4 01
	00 00 00 00 00	 mov	 DWORD PTR [esi+107660], 0

; 458  : 	m_nDownTime	= ::GetCurrentTime();

  002da	ff d3		 call	 ebx

; 151  : 	m_hInternet = ::InternetOpen( m_szAgentName, INTERNET_OPEN_TYPE_PRECONFIG, NULL, NULL, 0 );

  002dc	6a 00		 push	 0
  002de	6a 00		 push	 0
  002e0	6a 00		 push	 0

; 458  : 	m_nDownTime	= ::GetCurrentTime();

  002e2	89 86 84 a4 01
	00		 mov	 DWORD PTR [esi+107652], eax

; 151  : 	m_hInternet = ::InternetOpen( m_szAgentName, INTERNET_OPEN_TYPE_PRECONFIG, NULL, NULL, 0 );

  002e8	8d 46 26	 lea	 eax, DWORD PTR [esi+38]
  002eb	6a 00		 push	 0
  002ed	50		 push	 eax
  002ee	ff 15 00 00 00
	00		 call	 DWORD PTR __imp__InternetOpenA@20
  002f4	89 46 10	 mov	 DWORD PTR [esi+16], eax

; 152  : 	if( m_hInternet == NULL )

  002f7	85 c0		 test	 eax, eax
  002f9	0f 85 d9 00 00
	00		 jne	 $LN113@DownFile

; 153  : 	{
; 154  : 		// Error
; 155  : 		i3String::Copy( m_szLastError, "Cannot open internet", 1024);

  002ff	68 00 04 00 00	 push	 1024			; 00000400H
  00304	8d 86 98 a6 01
	00		 lea	 eax, DWORD PTR [esi+108184]
  0030a	68 00 00 00 00	 push	 OFFSET ??_C@_0BF@PJCNEGDJ@Cannot?5open?5internet@
  0030f	50		 push	 eax
  00310	e8 00 00 00 00	 call	 ?Copy@i3String@@YAXPADPBDH@Z ; i3String::Copy
  00315	83 c4 0c	 add	 esp, 12			; 0000000cH

; 156  : 		m_nLastErrorCode=::GetLastError();

  00318	ff 15 00 00 00
	00		 call	 DWORD PTR __imp__GetLastError@0
  0031e	89 86 98 aa 01
	00		 mov	 DWORD PTR [esi+109208], eax

; 157  : 		return FALSE;

  00324	33 db		 xor	 ebx, ebx
  00326	eb 08 8d a4 24
	00 00 00 00 90	 npad	 10
$LL62@DownFile:

; 464  : 		m_nLocktime = ::GetCurrentTime() - m_nDownTime;

  00330	8b be 84 a4 01
	00		 mov	 edi, DWORD PTR [esi+107652]
  00336	ff 15 00 00 00
	00		 call	 DWORD PTR __imp__GetTickCount@0
  0033c	2b c7		 sub	 eax, edi
  0033e	89 86 88 a4 01
	00		 mov	 DWORD PTR [esi+107656], eax

; 465  : 		m_nOutTimer += m_nLocktime;

  00344	03 86 8c a4 01
	00		 add	 eax, DWORD PTR [esi+107660]
  0034a	89 86 8c a4 01
	00		 mov	 DWORD PTR [esi+107660], eax

; 466  : 
; 467  : 		if( m_nOutTimer > m_nRestartSleep )

  00350	3b 86 7c a4 01
	00		 cmp	 eax, DWORD PTR [esi+107644]
  00356	76 6c		 jbe	 SHORT $LN112@DownFile

; 435  : 	m_nRestartCount++;

  00358	8b 86 78 a4 01
	00		 mov	 eax, DWORD PTR [esi+107640]
  0035e	40		 inc	 eax
  0035f	89 86 78 a4 01
	00		 mov	 DWORD PTR [esi+107640], eax

; 436  : 	if( m_nRestartCount > m_nTotalRestart )

  00365	3b 86 74 a4 01
	00		 cmp	 eax, DWORD PTR [esi+107636]
  0036b	0f 8f c5 00 00
	00		 jg	 $LN124@DownFile

; 151  : 	m_hInternet = ::InternetOpen( m_szAgentName, INTERNET_OPEN_TYPE_PRECONFIG, NULL, NULL, 0 );

  00371	6a 00		 push	 0
  00373	6a 00		 push	 0
  00375	6a 00		 push	 0
  00377	6a 00		 push	 0
  00379	8d 46 26	 lea	 eax, DWORD PTR [esi+38]
  0037c	50		 push	 eax
  0037d	ff 15 00 00 00
	00		 call	 DWORD PTR __imp__InternetOpenA@20
  00383	89 46 10	 mov	 DWORD PTR [esi+16], eax

; 152  : 	if( m_hInternet == NULL )

  00386	85 c0		 test	 eax, eax
  00388	75 29		 jne	 SHORT $LN77@DownFile

; 153  : 	{
; 154  : 		// Error
; 155  : 		i3String::Copy( m_szLastError, "Cannot open internet", 1024);

  0038a	68 00 04 00 00	 push	 1024			; 00000400H
  0038f	8d 86 98 a6 01
	00		 lea	 eax, DWORD PTR [esi+108184]
  00395	68 00 00 00 00	 push	 OFFSET ??_C@_0BF@PJCNEGDJ@Cannot?5open?5internet@
  0039a	50		 push	 eax
  0039b	e8 00 00 00 00	 call	 ?Copy@i3String@@YAXPADPBDH@Z ; i3String::Copy
  003a0	83 c4 0c	 add	 esp, 12			; 0000000cH

; 156  : 		m_nLastErrorCode=::GetLastError();

  003a3	ff 15 00 00 00
	00		 call	 DWORD PTR __imp__GetLastError@0
  003a9	89 86 98 aa 01
	00		 mov	 DWORD PTR [esi+109208], eax

; 157  : 		return FALSE;

  003af	33 db		 xor	 ebx, ebx
  003b1	eb 05		 jmp	 SHORT $LN76@DownFile
$LN77@DownFile:

; 158  : 	}
; 159  : 	
; 160  : 	return TRUE;

  003b3	bb 01 00 00 00	 mov	 ebx, 1
$LN76@DownFile:

; 479  : 			m_nDownTime = ::GetCurrentTime();

  003b8	ff 15 00 00 00
	00		 call	 DWORD PTR __imp__GetTickCount@0
  003be	89 86 84 a4 01
	00		 mov	 DWORD PTR [esi+107652], eax
$LN112@DownFile:

; 459  : 
; 460  : 	Rv = _ConnectGET( pszURL );
; 461  : 
; 462  : 	while( !Rv )

  003c4	85 db		 test	 ebx, ebx
  003c6	0f 84 64 ff ff
	ff		 je	 $LL62@DownFile

; 469  : 			if( !RestartCheck() )

  003cc	8b 1d 00 00 00
	00		 mov	 ebx, DWORD PTR __imp__GetTickCount@0
  003d2	8d be 94 a5 01
	00		 lea	 edi, DWORD PTR [esi+107924]
$LN113@DownFile:

; 484  : 	m_hFile = ::CreateFile( pszPath, GENERIC_WRITE, 0, NULL, CREATE_ALWAYS, FILE_ATTRIBUTE_NORMAL, NULL );

  003d8	6a 00		 push	 0
  003da	68 80 00 00 00	 push	 128			; 00000080H
  003df	6a 02		 push	 2
  003e1	6a 00		 push	 0
  003e3	6a 00		 push	 0
  003e5	68 00 00 00 40	 push	 1073741824		; 40000000H
  003ea	57		 push	 edi
  003eb	ff 15 00 00 00
	00		 call	 DWORD PTR __imp__CreateFileA@28
  003f1	89 46 1c	 mov	 DWORD PTR [esi+28], eax

; 485  : 	if(m_hFile == INVALID_HANDLE_VALUE)

  003f4	83 f8 ff	 cmp	 eax, -1
  003f7	74 47		 je	 SHORT $LN122@DownFile
$LN29@DownFile:

; 415  : 		}
; 416  : 	}
; 417  : 
; 418  : ExitErr : 
; 419  : 
; 420  : 	return m_State;
; 421  : }

  003f9	c7 86 78 a4 01
	00 00 00 00 00	 mov	 DWORD PTR [esi+107640], 0
  00403	c7 86 70 a4 01
	00 00 00 00 00	 mov	 DWORD PTR [esi+107632], 0
  0040d	c7 86 64 a4 01
	00 01 00 00 00	 mov	 DWORD PTR [esi+107620], 1
  00417	c7 86 8c a4 01
	00 00 00 00 00	 mov	 DWORD PTR [esi+107660], 0
$LN5@DownFile:
  00421	ff d3		 call	 ebx
  00423	89 86 84 a4 01
	00		 mov	 DWORD PTR [esi+107652], eax
$ExitErr$187:
  00429	8b 86 64 a4 01
	00		 mov	 eax, DWORD PTR [esi+107620]
  0042f	5f		 pop	 edi
  00430	5e		 pop	 esi
  00431	5b		 pop	 ebx
  00432	8b e5		 mov	 esp, ebp
  00434	5d		 pop	 ebp
  00435	c3		 ret	 0
$LN124@DownFile:
  00436	c7 86 78 a4 01
	00 00 00 00 00	 mov	 DWORD PTR [esi+107640], 0
$LN122@DownFile:
  00440	c7 86 64 a4 01
	00 04 00 00 00	 mov	 DWORD PTR [esi+107620], 4
  0044a	8b 86 64 a4 01
	00		 mov	 eax, DWORD PTR [esi+107620]
  00450	5f		 pop	 edi
  00451	5e		 pop	 esi
  00452	5b		 pop	 ebx
  00453	8b e5		 mov	 esp, ebp
  00455	5d		 pop	 ebp
  00456	c3		 ret	 0
$LN12@DownFile:

; 377  : 				}
; 378  : 				else
; 379  : 				{
; 380  : 					m_State = HTTP_STATE_DOWNFAILE;

  00457	c7 86 64 a4 01
	00 04 00 00 00	 mov	 DWORD PTR [esi+107620], 4

; 415  : 		}
; 416  : 	}
; 417  : 
; 418  : ExitErr : 
; 419  : 
; 420  : 	return m_State;
; 421  : }

  00461	8b 86 64 a4 01
	00		 mov	 eax, DWORD PTR [esi+107620]
  00467	5f		 pop	 edi
  00468	c7 86 68 a4 01
	00 fb ff ff ff	 mov	 DWORD PTR [esi+107624], -5 ; fffffffbH
  00472	5e		 pop	 esi
  00473	5b		 pop	 ebx
  00474	8b e5		 mov	 esp, ebp
  00476	5d		 pop	 ebp
  00477	c3		 ret	 0
$LN4@DownFile:

; 337  : 		{	
; 338  : 			m_nLocktime = ::GetCurrentTime() - m_nDownTime;

  00478	8b be 84 a4 01
	00		 mov	 edi, DWORD PTR [esi+107652]
  0047e	8b 1d 00 00 00
	00		 mov	 ebx, DWORD PTR __imp__GetTickCount@0
  00484	ff d3		 call	 ebx

; 339  : 			m_nOutTimer	+= m_nLocktime;

  00486	8b 8e 8c a4 01
	00		 mov	 ecx, DWORD PTR [esi+107660]
  0048c	2b c7		 sub	 eax, edi
  0048e	03 c8		 add	 ecx, eax
  00490	89 86 88 a4 01
	00		 mov	 DWORD PTR [esi+107656], eax
  00496	89 8e 8c a4 01
	00		 mov	 DWORD PTR [esi+107660], ecx

; 340  : 
; 341  : 			if( m_nOutTimer > m_nReloadTimeOut )

  0049c	3b 8e 80 a4 01
	00		 cmp	 ecx, DWORD PTR [esi+107648]
  004a2	0f 86 79 ff ff
	ff		 jbe	 $LN5@DownFile

; 342  : 			{
; 343  : 				Cancel();

  004a8	8b ce		 mov	 ecx, esi
  004aa	e8 00 00 00 00	 call	 ?Cancel@i3NetworkHTTP@@QAEXXZ ; i3NetworkHTTP::Cancel

; 425  : 	m_nReloadCount++;

  004af	ff 86 70 a4 01
	00		 inc	 DWORD PTR [esi+107632]
  004b5	8b 86 70 a4 01
	00		 mov	 eax, DWORD PTR [esi+107632]

; 426  : 	if( m_nReloadCount > m_nTotalReload )

  004bb	3b 86 6c a4 01
	00		 cmp	 eax, DWORD PTR [esi+107628]
  004c1	7e 21		 jle	 SHORT $LN20@DownFile

; 415  : 		}
; 416  : 	}
; 417  : 
; 418  : ExitErr : 
; 419  : 
; 420  : 	return m_State;
; 421  : }

  004c3	c7 86 64 a4 01
	00 04 00 00 00	 mov	 DWORD PTR [esi+107620], 4
  004cd	8b 86 64 a4 01
	00		 mov	 eax, DWORD PTR [esi+107620]
  004d3	5f		 pop	 edi
  004d4	c7 86 68 a4 01
	00 fc ff ff ff	 mov	 DWORD PTR [esi+107624], -4 ; fffffffcH
  004de	5e		 pop	 esi
  004df	5b		 pop	 ebx
  004e0	8b e5		 mov	 esp, ebp
  004e2	5d		 pop	 ebp
  004e3	c3		 ret	 0
$LN20@DownFile:

; 430  : 	return TRUE;

  004e4	8d be 94 a5 01
	00		 lea	 edi, DWORD PTR [esi+107924]
  004ea	c7 86 64 a4 01
	00 02 00 00 00	 mov	 DWORD PTR [esi+107620], 2
  004f4	89 7d fc	 mov	 DWORD PTR _pszPath$2$[ebp], edi
  004f7	c7 86 9c aa 01
	00 00 00 00 00	 mov	 DWORD PTR [esi+109212], 0
  00501	c7 86 a0 aa 01
	00 00 00 00 00	 mov	 DWORD PTR [esi+109216], 0

; 457  : 	m_nOutTimer	= 0;

  0050b	c7 86 8c a4 01
	00 00 00 00 00	 mov	 DWORD PTR [esi+107660], 0

; 458  : 	m_nDownTime	= ::GetCurrentTime();

  00515	ff d3		 call	 ebx

; 151  : 	m_hInternet = ::InternetOpen( m_szAgentName, INTERNET_OPEN_TYPE_PRECONFIG, NULL, NULL, 0 );

  00517	6a 00		 push	 0
  00519	6a 00		 push	 0
  0051b	6a 00		 push	 0

; 458  : 	m_nDownTime	= ::GetCurrentTime();

  0051d	89 86 84 a4 01
	00		 mov	 DWORD PTR [esi+107652], eax

; 151  : 	m_hInternet = ::InternetOpen( m_szAgentName, INTERNET_OPEN_TYPE_PRECONFIG, NULL, NULL, 0 );

  00523	8d 46 26	 lea	 eax, DWORD PTR [esi+38]
  00526	6a 00		 push	 0
  00528	50		 push	 eax
  00529	ff 15 00 00 00
	00		 call	 DWORD PTR __imp__InternetOpenA@20
  0052f	89 46 10	 mov	 DWORD PTR [esi+16], eax

; 152  : 	if( m_hInternet == NULL )

  00532	85 c0		 test	 eax, eax
  00534	0f 85 d4 00 00
	00		 jne	 $LN115@DownFile

; 153  : 	{
; 154  : 		// Error
; 155  : 		i3String::Copy( m_szLastError, "Cannot open internet", 1024);

  0053a	68 00 04 00 00	 push	 1024			; 00000400H
  0053f	8d 86 98 a6 01
	00		 lea	 eax, DWORD PTR [esi+108184]
  00545	68 00 00 00 00	 push	 OFFSET ??_C@_0BF@PJCNEGDJ@Cannot?5open?5internet@
  0054a	50		 push	 eax
  0054b	e8 00 00 00 00	 call	 ?Copy@i3String@@YAXPADPBDH@Z ; i3String::Copy
  00550	83 c4 0c	 add	 esp, 12			; 0000000cH

; 156  : 		m_nLastErrorCode=::GetLastError();

  00553	ff 15 00 00 00
	00		 call	 DWORD PTR __imp__GetLastError@0
  00559	89 86 98 aa 01
	00		 mov	 DWORD PTR [esi+109208], eax

; 157  : 		return FALSE;

  0055f	33 db		 xor	 ebx, ebx
$LL23@DownFile:

; 464  : 		m_nLocktime = ::GetCurrentTime() - m_nDownTime;

  00561	8b be 84 a4 01
	00		 mov	 edi, DWORD PTR [esi+107652]
  00567	ff 15 00 00 00
	00		 call	 DWORD PTR __imp__GetTickCount@0
  0056d	2b c7		 sub	 eax, edi
  0056f	89 86 88 a4 01
	00		 mov	 DWORD PTR [esi+107656], eax

; 465  : 		m_nOutTimer += m_nLocktime;

  00575	03 86 8c a4 01
	00		 add	 eax, DWORD PTR [esi+107660]
  0057b	89 86 8c a4 01
	00		 mov	 DWORD PTR [esi+107660], eax

; 466  : 
; 467  : 		if( m_nOutTimer > m_nRestartSleep )

  00581	3b 86 7c a4 01
	00		 cmp	 eax, DWORD PTR [esi+107644]
  00587	76 74		 jbe	 SHORT $LN114@DownFile

; 435  : 	m_nRestartCount++;

  00589	8b 86 78 a4 01
	00		 mov	 eax, DWORD PTR [esi+107640]
  0058f	40		 inc	 eax
  00590	89 86 78 a4 01
	00		 mov	 DWORD PTR [esi+107640], eax

; 436  : 	if( m_nRestartCount > m_nTotalRestart )

  00596	3b 86 74 a4 01
	00		 cmp	 eax, DWORD PTR [esi+107636]
  0059c	0f 8f 94 fe ff
	ff		 jg	 $LN124@DownFile

; 151  : 	m_hInternet = ::InternetOpen( m_szAgentName, INTERNET_OPEN_TYPE_PRECONFIG, NULL, NULL, 0 );

  005a2	6a 00		 push	 0
  005a4	6a 00		 push	 0
  005a6	6a 00		 push	 0
  005a8	6a 00		 push	 0
  005aa	8d 46 26	 lea	 eax, DWORD PTR [esi+38]
  005ad	50		 push	 eax
  005ae	ff 15 00 00 00
	00		 call	 DWORD PTR __imp__InternetOpenA@20
  005b4	89 46 10	 mov	 DWORD PTR [esi+16], eax

; 152  : 	if( m_hInternet == NULL )

  005b7	85 c0		 test	 eax, eax
  005b9	75 29		 jne	 SHORT $LN38@DownFile

; 153  : 	{
; 154  : 		// Error
; 155  : 		i3String::Copy( m_szLastError, "Cannot open internet", 1024);

  005bb	68 00 04 00 00	 push	 1024			; 00000400H
  005c0	8d 86 98 a6 01
	00		 lea	 eax, DWORD PTR [esi+108184]
  005c6	68 00 00 00 00	 push	 OFFSET ??_C@_0BF@PJCNEGDJ@Cannot?5open?5internet@
  005cb	50		 push	 eax
  005cc	e8 00 00 00 00	 call	 ?Copy@i3String@@YAXPADPBDH@Z ; i3String::Copy
  005d1	83 c4 0c	 add	 esp, 12			; 0000000cH

; 156  : 		m_nLastErrorCode=::GetLastError();

  005d4	ff 15 00 00 00
	00		 call	 DWORD PTR __imp__GetLastError@0
  005da	89 86 98 aa 01
	00		 mov	 DWORD PTR [esi+109208], eax

; 157  : 		return FALSE;

  005e0	33 db		 xor	 ebx, ebx
  005e2	eb 05		 jmp	 SHORT $LN37@DownFile
$LN38@DownFile:

; 158  : 	}
; 159  : 	
; 160  : 	return TRUE;

  005e4	bb 01 00 00 00	 mov	 ebx, 1
$LN37@DownFile:

; 479  : 			m_nDownTime = ::GetCurrentTime();

  005e9	ff 15 00 00 00
	00		 call	 DWORD PTR __imp__GetTickCount@0
  005ef	8b 7d fc	 mov	 edi, DWORD PTR _pszPath$2$[ebp]
  005f2	89 86 84 a4 01
	00		 mov	 DWORD PTR [esi+107652], eax
  005f8	89 7d fc	 mov	 DWORD PTR _pszPath$2$[ebp], edi
  005fb	eb 03		 jmp	 SHORT $LN27@DownFile
$LN114@DownFile:
  005fd	8b 7d fc	 mov	 edi, DWORD PTR _pszPath$2$[ebp]
$LN27@DownFile:

; 459  : 
; 460  : 	Rv = _ConnectGET( pszURL );
; 461  : 
; 462  : 	while( !Rv )

  00600	85 db		 test	 ebx, ebx
  00602	0f 84 59 ff ff
	ff		 je	 $LL23@DownFile

; 468  : 		{
; 469  : 			if( !RestartCheck() )

  00608	8b 1d 00 00 00
	00		 mov	 ebx, DWORD PTR __imp__GetTickCount@0
$LN115@DownFile:

; 480  : 		}
; 481  : 	}
; 482  : 
; 483  : 	// ĆÄŔĎ »ýĽş
; 484  : 	m_hFile = ::CreateFile( pszPath, GENERIC_WRITE, 0, NULL, CREATE_ALWAYS, FILE_ATTRIBUTE_NORMAL, NULL );

  0060e	6a 00		 push	 0
  00610	68 80 00 00 00	 push	 128			; 00000080H
  00615	6a 02		 push	 2
  00617	6a 00		 push	 0
  00619	6a 00		 push	 0
  0061b	68 00 00 00 40	 push	 1073741824		; 40000000H
  00620	57		 push	 edi
  00621	ff 15 00 00 00
	00		 call	 DWORD PTR __imp__CreateFileA@28
  00627	89 46 1c	 mov	 DWORD PTR [esi+28], eax

; 485  : 	if(m_hFile == INVALID_HANDLE_VALUE)

  0062a	83 f8 ff	 cmp	 eax, -1
  0062d	0f 85 c6 fd ff
	ff		 jne	 $LN29@DownFile

; 486  : 	{
; 487  : 		m_State = HTTP_STATE_DOWNFAILE; 
; 488  : 		return HTTP_ERR_CREATEFILE; 

  00633	e9 08 fe ff ff	 jmp	 $LN122@DownFile
?DownFile@i3NetworkHTTP@@QAEHXZ ENDP			; i3NetworkHTTP::DownFile
_TEXT	ENDS
; Function compile flags: /Ogtp
; File E:\Proyectos\JuegosOnlineproyectos\PB\pbblow\Piercing Blow Remake\i3Server\src\i3Base\i3NetworkHTTP.cpp
;	COMDAT ?DownStart@i3NetworkHTTP@@QAEHPAD0@Z
_TEXT	SEGMENT
_pszURL$ = 8						; size = 4
_pszPath$ = 12						; size = 4
?DownStart@i3NetworkHTTP@@QAEHPAD0@Z PROC		; i3NetworkHTTP::DownStart, COMDAT
; _this$ = ecx

; 443  : {

  00000	55		 push	 ebp
  00001	8b ec		 mov	 ebp, esp
  00003	56		 push	 esi
  00004	8b f1		 mov	 esi, ecx

; 444  : 	BOOL	Rv;
; 445  : 	if( HTTP_STATE_DOWNLOADING == m_State )	return HTTP_ERR_REDOWNLOAD; 

  00006	8b 86 64 a4 01
	00		 mov	 eax, DWORD PTR [esi+107620]
  0000c	83 f8 01	 cmp	 eax, 1
  0000f	75 0a		 jne	 SHORT $LN4@DownStart
  00011	b8 fe ff ff ff	 mov	 eax, -2			; fffffffeH
  00016	5e		 pop	 esi

; 498  : }

  00017	5d		 pop	 ebp
  00018	c2 08 00	 ret	 8
$LN4@DownStart:

; 446  : 
; 447  : 	// Á˘ĽÓ
; 448  : 	m_nSize = 0;

  0001b	c7 86 9c aa 01
	00 00 00 00 00	 mov	 DWORD PTR [esi+109212], 0

; 449  : 	m_nRecv	= 0;

  00025	c7 86 a0 aa 01
	00 00 00 00 00	 mov	 DWORD PTR [esi+109216], 0

; 450  : 
; 451  : 	if( m_State != HTTP_STATE_REDOWNLOAD )

  0002f	83 f8 02	 cmp	 eax, 2
  00032	74 2b		 je	 SHORT $LN5@DownStart

; 452  : 	{
; 453  : 		i3String::Copy( m_szURL, pszURL, MAX_PATH );

  00034	68 04 01 00 00	 push	 260			; 00000104H
  00039	ff 75 08	 push	 DWORD PTR _pszURL$[ebp]
  0003c	8d 86 90 a4 01
	00		 lea	 eax, DWORD PTR [esi+107664]
  00042	50		 push	 eax
  00043	e8 00 00 00 00	 call	 ?Copy@i3String@@YAXPADPBDH@Z ; i3String::Copy

; 454  : 		i3String::Copy( m_szPath, pszPath, MAX_PATH );

  00048	68 04 01 00 00	 push	 260			; 00000104H
  0004d	ff 75 0c	 push	 DWORD PTR _pszPath$[ebp]
  00050	8d 86 94 a5 01
	00		 lea	 eax, DWORD PTR [esi+107924]
  00056	50		 push	 eax
  00057	e8 00 00 00 00	 call	 ?Copy@i3String@@YAXPADPBDH@Z ; i3String::Copy
  0005c	83 c4 18	 add	 esp, 24			; 00000018H
$LN5@DownStart:

; 455  : 	}
; 456  : 	
; 457  : 	m_nOutTimer	= 0;
; 458  : 	m_nDownTime	= ::GetCurrentTime();

  0005f	53		 push	 ebx
  00060	8b 1d 00 00 00
	00		 mov	 ebx, DWORD PTR __imp__GetTickCount@0
  00066	57		 push	 edi
  00067	c7 86 8c a4 01
	00 00 00 00 00	 mov	 DWORD PTR [esi+107660], 0
  00071	ff d3		 call	 ebx

; 151  : 	m_hInternet = ::InternetOpen( m_szAgentName, INTERNET_OPEN_TYPE_PRECONFIG, NULL, NULL, 0 );

  00073	6a 00		 push	 0
  00075	6a 00		 push	 0
  00077	6a 00		 push	 0

; 455  : 	}
; 456  : 	
; 457  : 	m_nOutTimer	= 0;
; 458  : 	m_nDownTime	= ::GetCurrentTime();

  00079	89 86 84 a4 01
	00		 mov	 DWORD PTR [esi+107652], eax

; 151  : 	m_hInternet = ::InternetOpen( m_szAgentName, INTERNET_OPEN_TYPE_PRECONFIG, NULL, NULL, 0 );

  0007f	8d 46 26	 lea	 eax, DWORD PTR [esi+38]
  00082	6a 00		 push	 0
  00084	50		 push	 eax
  00085	ff 15 00 00 00
	00		 call	 DWORD PTR __imp__InternetOpenA@20
  0008b	89 46 10	 mov	 DWORD PTR [esi+16], eax

; 152  : 	if( m_hInternet == NULL )

  0008e	85 c0		 test	 eax, eax
  00090	0f 85 cc 00 00
	00		 jne	 $LN24@DownStart

; 153  : 	{
; 154  : 		// Error
; 155  : 		i3String::Copy( m_szLastError, "Cannot open internet", 1024);

  00096	68 00 04 00 00	 push	 1024			; 00000400H
  0009b	8d 86 98 a6 01
	00		 lea	 eax, DWORD PTR [esi+108184]
  000a1	68 00 00 00 00	 push	 OFFSET ??_C@_0BF@PJCNEGDJ@Cannot?5open?5internet@
  000a6	50		 push	 eax
  000a7	e8 00 00 00 00	 call	 ?Copy@i3String@@YAXPADPBDH@Z ; i3String::Copy
  000ac	83 c4 0c	 add	 esp, 12			; 0000000cH

; 156  : 		m_nLastErrorCode=::GetLastError();

  000af	ff 15 00 00 00
	00		 call	 DWORD PTR __imp__GetLastError@0
  000b5	89 86 98 aa 01
	00		 mov	 DWORD PTR [esi+109208], eax

; 157  : 		return FALSE;

  000bb	33 db		 xor	 ebx, ebx
  000bd	8d 49 00	 npad	 3
$LL2@DownStart:

; 463  : 	{
; 464  : 		m_nLocktime = ::GetCurrentTime() - m_nDownTime;

  000c0	8b be 84 a4 01
	00		 mov	 edi, DWORD PTR [esi+107652]
  000c6	ff 15 00 00 00
	00		 call	 DWORD PTR __imp__GetTickCount@0
  000cc	2b c7		 sub	 eax, edi
  000ce	89 86 88 a4 01
	00		 mov	 DWORD PTR [esi+107656], eax

; 465  : 		m_nOutTimer += m_nLocktime;

  000d4	03 86 8c a4 01
	00		 add	 eax, DWORD PTR [esi+107660]
  000da	89 86 8c a4 01
	00		 mov	 DWORD PTR [esi+107660], eax

; 466  : 
; 467  : 		if( m_nOutTimer > m_nRestartSleep )

  000e0	3b 86 7c a4 01
	00		 cmp	 eax, DWORD PTR [esi+107644]
  000e6	76 6c		 jbe	 SHORT $LN23@DownStart

; 435  : 	m_nRestartCount++;

  000e8	8b 86 78 a4 01
	00		 mov	 eax, DWORD PTR [esi+107640]
  000ee	40		 inc	 eax
  000ef	89 86 78 a4 01
	00		 mov	 DWORD PTR [esi+107640], eax

; 436  : 	if( m_nRestartCount > m_nTotalRestart )

  000f5	3b 86 74 a4 01
	00		 cmp	 eax, DWORD PTR [esi+107636]
  000fb	0f 8f 9a 00 00
	00		 jg	 $LN27@DownStart

; 151  : 	m_hInternet = ::InternetOpen( m_szAgentName, INTERNET_OPEN_TYPE_PRECONFIG, NULL, NULL, 0 );

  00101	6a 00		 push	 0
  00103	6a 00		 push	 0
  00105	6a 00		 push	 0
  00107	6a 00		 push	 0
  00109	8d 46 26	 lea	 eax, DWORD PTR [esi+38]
  0010c	50		 push	 eax
  0010d	ff 15 00 00 00
	00		 call	 DWORD PTR __imp__InternetOpenA@20
  00113	89 46 10	 mov	 DWORD PTR [esi+16], eax

; 152  : 	if( m_hInternet == NULL )

  00116	85 c0		 test	 eax, eax
  00118	75 29		 jne	 SHORT $LN17@DownStart

; 153  : 	{
; 154  : 		// Error
; 155  : 		i3String::Copy( m_szLastError, "Cannot open internet", 1024);

  0011a	68 00 04 00 00	 push	 1024			; 00000400H
  0011f	8d 86 98 a6 01
	00		 lea	 eax, DWORD PTR [esi+108184]
  00125	68 00 00 00 00	 push	 OFFSET ??_C@_0BF@PJCNEGDJ@Cannot?5open?5internet@
  0012a	50		 push	 eax
  0012b	e8 00 00 00 00	 call	 ?Copy@i3String@@YAXPADPBDH@Z ; i3String::Copy
  00130	83 c4 0c	 add	 esp, 12			; 0000000cH

; 156  : 		m_nLastErrorCode=::GetLastError();

  00133	ff 15 00 00 00
	00		 call	 DWORD PTR __imp__GetLastError@0
  00139	89 86 98 aa 01
	00		 mov	 DWORD PTR [esi+109208], eax

; 157  : 		return FALSE;

  0013f	33 db		 xor	 ebx, ebx
  00141	eb 05		 jmp	 SHORT $LN16@DownStart
$LN17@DownStart:

; 158  : 	}
; 159  : 	
; 160  : 	return TRUE;

  00143	bb 01 00 00 00	 mov	 ebx, 1
$LN16@DownStart:

; 475  : 			}
; 476  : 
; 477  : 			Rv = _ConnectGET( pszURL );
; 478  : 
; 479  : 			m_nDownTime = ::GetCurrentTime();

  00148	ff 15 00 00 00
	00		 call	 DWORD PTR __imp__GetTickCount@0
  0014e	89 86 84 a4 01
	00		 mov	 DWORD PTR [esi+107652], eax
$LN23@DownStart:

; 459  : 
; 460  : 	Rv = _ConnectGET( pszURL );
; 461  : 
; 462  : 	while( !Rv )

  00154	85 db		 test	 ebx, ebx
  00156	0f 84 64 ff ff
	ff		 je	 $LL2@DownStart

; 468  : 		{
; 469  : 			if( !RestartCheck() )

  0015c	8b 1d 00 00 00
	00		 mov	 ebx, DWORD PTR __imp__GetTickCount@0
$LN24@DownStart:

; 480  : 		}
; 481  : 	}
; 482  : 
; 483  : 	// ĆÄŔĎ »ýĽş
; 484  : 	m_hFile = ::CreateFile( pszPath, GENERIC_WRITE, 0, NULL, CREATE_ALWAYS, FILE_ATTRIBUTE_NORMAL, NULL );

  00162	6a 00		 push	 0
  00164	68 80 00 00 00	 push	 128			; 00000080H
  00169	6a 02		 push	 2
  0016b	6a 00		 push	 0
  0016d	6a 00		 push	 0
  0016f	68 00 00 00 40	 push	 1073741824		; 40000000H
  00174	ff 75 0c	 push	 DWORD PTR _pszPath$[ebp]
  00177	ff 15 00 00 00
	00		 call	 DWORD PTR __imp__CreateFileA@28
  0017d	89 46 1c	 mov	 DWORD PTR [esi+28], eax

; 485  : 	if(m_hFile == INVALID_HANDLE_VALUE)

  00180	83 f8 ff	 cmp	 eax, -1
  00183	75 34		 jne	 SHORT $LN8@DownStart

; 486  : 	{
; 487  : 		m_State = HTTP_STATE_DOWNFAILE; 

  00185	5f		 pop	 edi
  00186	5b		 pop	 ebx
  00187	c7 86 64 a4 01
	00 04 00 00 00	 mov	 DWORD PTR [esi+107620], 4

; 488  : 		return HTTP_ERR_CREATEFILE; 

  00191	b8 fd ff ff ff	 mov	 eax, -3			; fffffffdH
  00196	5e		 pop	 esi

; 498  : }

  00197	5d		 pop	 ebp
  00198	c2 08 00	 ret	 8
$LN27@DownStart:
  0019b	5f		 pop	 edi
  0019c	5b		 pop	 ebx

; 470  : 			{
; 471  : 				// Á˘ĽÓ ˝ÇĆĐŔÔ´Ď´Ů.
; 472  : 				m_nRestartCount	 = 0;

  0019d	c7 86 78 a4 01
	00 00 00 00 00	 mov	 DWORD PTR [esi+107640], 0

; 473  : 				m_State = HTTP_STATE_DOWNFAILE; 
; 474  : 				return HTTP_ERR_CONNECT;

  001a7	83 c8 ff	 or	 eax, -1
  001aa	c7 86 64 a4 01
	00 04 00 00 00	 mov	 DWORD PTR [esi+107620], 4
  001b4	5e		 pop	 esi

; 498  : }

  001b5	5d		 pop	 ebp
  001b6	c2 08 00	 ret	 8
$LN8@DownStart:

; 489  : 	}
; 490  : 
; 491  : 	m_nRestartCount	 = 0;

  001b9	c7 86 78 a4 01
	00 00 00 00 00	 mov	 DWORD PTR [esi+107640], 0

; 492  : 	m_nReloadCount = 0;

  001c3	c7 86 70 a4 01
	00 00 00 00 00	 mov	 DWORD PTR [esi+107632], 0

; 493  : 	m_State = HTTP_STATE_DOWNLOADING;

  001cd	c7 86 64 a4 01
	00 01 00 00 00	 mov	 DWORD PTR [esi+107620], 1

; 494  : 	m_nOutTimer	= 0;

  001d7	c7 86 8c a4 01
	00 00 00 00 00	 mov	 DWORD PTR [esi+107660], 0

; 495  : 	m_nDownTime	= ::GetCurrentTime();

  001e1	ff d3		 call	 ebx
  001e3	5f		 pop	 edi
  001e4	89 86 84 a4 01
	00		 mov	 DWORD PTR [esi+107652], eax

; 496  : 
; 497  : 	return m_nSize;

  001ea	8b 86 9c aa 01
	00		 mov	 eax, DWORD PTR [esi+109212]
  001f0	5b		 pop	 ebx
  001f1	5e		 pop	 esi

; 498  : }

  001f2	5d		 pop	 ebp
  001f3	c2 08 00	 ret	 8
?DownStart@i3NetworkHTTP@@QAEHPAD0@Z ENDP		; i3NetworkHTTP::DownStart
_TEXT	ENDS
; Function compile flags: /Ogtp
; File E:\Proyectos\JuegosOnlineproyectos\PB\pbblow\Piercing Blow Remake\i3Server\src\i3Base\i3NetworkHTTP.cpp
;	COMDAT ?Cancel@i3NetworkHTTP@@QAEXXZ
_TEXT	SEGMENT
?Cancel@i3NetworkHTTP@@QAEXXZ PROC			; i3NetworkHTTP::Cancel, COMDAT
; _this$ = ecx

; 501  : {

  00000	56		 push	 esi
  00001	8b f1		 mov	 esi, ecx
  00003	57		 push	 edi

; 502  : 	if( m_State == HTTP_STATE_DOWNLOADING )

  00004	8b 86 64 a4 01
	00		 mov	 eax, DWORD PTR [esi+107620]
  0000a	83 f8 01	 cmp	 eax, 1
  0000d	75 19		 jne	 SHORT $LN2@Cancel

; 270  : 	if( m_hHttp )

  0000f	8b 46 14	 mov	 eax, DWORD PTR [esi+20]
  00012	8b 3d 00 00 00
	00		 mov	 edi, DWORD PTR __imp__InternetCloseHandle@4
  00018	85 c0		 test	 eax, eax
  0001a	74 3e		 je	 SHORT $LN19@Cancel

; 271  : 	{
; 272  : 		::InternetCloseHandle( m_hHttp );

  0001c	50		 push	 eax
  0001d	ff d7		 call	 edi

; 273  : 		m_hHttp = NULL;

  0001f	c7 46 14 00 00
	00 00		 mov	 DWORD PTR [esi+20], 0

; 503  : 	{
; 504  : 		_DisConnectGET();
; 505  : 	}

  00026	eb 32		 jmp	 SHORT $LN19@Cancel
$LN2@Cancel:

; 506  : 	else if( m_State == HTTP_STATE_UPLOADING )

  00028	83 f8 05	 cmp	 eax, 5
  0002b	74 05		 je	 SHORT $LN38@Cancel

; 507  : 	{
; 508  : 		_DisConnectPUT();
; 509  : 	}
; 510  : 	else if( m_State == HTTP_STATE_POST )

  0002d	83 f8 08	 cmp	 eax, 8
  00030	75 39		 jne	 SHORT $LN20@Cancel
$LN38@Cancel:

; 511  : 	{
; 512  : 		_DisConnectPOST();
; 513  : 	}
; 514  : 
; 515  : 	::CloseHandle( m_hFile );

  00032	8b 46 14	 mov	 eax, DWORD PTR [esi+20]
  00035	8b 3d 00 00 00
	00		 mov	 edi, DWORD PTR __imp__InternetCloseHandle@4
  0003b	85 c0		 test	 eax, eax
  0003d	74 0a		 je	 SHORT $LN18@Cancel
  0003f	50		 push	 eax
  00040	ff d7		 call	 edi
  00042	c7 46 14 00 00
	00 00		 mov	 DWORD PTR [esi+20], 0
$LN18@Cancel:
  00049	8b 46 18	 mov	 eax, DWORD PTR [esi+24]
  0004c	85 c0		 test	 eax, eax
  0004e	74 0a		 je	 SHORT $LN19@Cancel
  00050	50		 push	 eax
  00051	ff d7		 call	 edi
  00053	c7 46 18 00 00
	00 00		 mov	 DWORD PTR [esi+24], 0
$LN19@Cancel:
  0005a	8b 46 10	 mov	 eax, DWORD PTR [esi+16]
  0005d	85 c0		 test	 eax, eax
  0005f	74 0a		 je	 SHORT $LN20@Cancel
  00061	50		 push	 eax
  00062	ff d7		 call	 edi
  00064	c7 46 10 00 00
	00 00		 mov	 DWORD PTR [esi+16], 0
$LN20@Cancel:
  0006b	ff 76 1c	 push	 DWORD PTR [esi+28]
  0006e	ff 15 00 00 00
	00		 call	 DWORD PTR __imp__CloseHandle@4

; 516  : 	m_hFile = NULL;
; 517  : 
; 518  : 	m_State = HTTP_STATE_NONE;

  00074	5f		 pop	 edi
  00075	c7 46 1c 00 00
	00 00		 mov	 DWORD PTR [esi+28], 0
  0007c	c7 86 64 a4 01
	00 00 00 00 00	 mov	 DWORD PTR [esi+107620], 0
  00086	5e		 pop	 esi

; 519  : }

  00087	c3		 ret	 0
?Cancel@i3NetworkHTTP@@QAEXXZ ENDP			; i3NetworkHTTP::Cancel
_TEXT	ENDS
; Function compile flags: /Ogtp
; File E:\Proyectos\JuegosOnlineproyectos\PB\pbblow\Piercing Blow Remake\i3Server\src\i3Base\i3NetworkHTTP.cpp
;	COMDAT ?Destroy@i3NetworkHTTP@@QAEXXZ
_TEXT	SEGMENT
?Destroy@i3NetworkHTTP@@QAEXXZ PROC			; i3NetworkHTTP::Destroy, COMDAT
; _this$ = ecx

; 122  : {

  00000	56		 push	 esi
  00001	8b f1		 mov	 esi, ecx

; 123  : 	Cancel();

  00003	e8 00 00 00 00	 call	 ?Cancel@i3NetworkHTTP@@QAEXXZ ; i3NetworkHTTP::Cancel

; 270  : 	if( m_hHttp )

  00008	8b 46 14	 mov	 eax, DWORD PTR [esi+20]
  0000b	85 c0		 test	 eax, eax
  0000d	74 0e		 je	 SHORT $LN5@Destroy

; 271  : 	{
; 272  : 		::InternetCloseHandle( m_hHttp );

  0000f	50		 push	 eax
  00010	ff 15 00 00 00
	00		 call	 DWORD PTR __imp__InternetCloseHandle@4

; 273  : 		m_hHttp = NULL;

  00016	c7 46 14 00 00
	00 00		 mov	 DWORD PTR [esi+20], 0
$LN5@Destroy:

; 274  : 	}
; 275  : 
; 276  : 	if( m_hInternet )

  0001d	8b 46 10	 mov	 eax, DWORD PTR [esi+16]
  00020	85 c0		 test	 eax, eax
  00022	74 0e		 je	 SHORT $LN6@Destroy

; 277  : 	{
; 278  : 		::InternetCloseHandle( m_hInternet );

  00024	50		 push	 eax
  00025	ff 15 00 00 00
	00		 call	 DWORD PTR __imp__InternetCloseHandle@4

; 279  : 		m_hInternet = NULL;

  0002b	c7 46 10 00 00
	00 00		 mov	 DWORD PTR [esi+16], 0
$LN6@Destroy:

; 124  : 	_DisConnectGET();
; 125  : 	I3MEM_SAFE_FREE_POINTER( m_pReadBuf );

  00032	8b 86 58 a4 01
	00		 mov	 eax, DWORD PTR [esi+107608]
  00038	85 c0		 test	 eax, eax
  0003a	74 1a		 je	 SHORT $LN8@Destroy
  0003c	6a 7d		 push	 125			; 0000007dH
  0003e	68 00 00 00 00	 push	 OFFSET ??_C@_0GI@CPAALLND@E?3?2Proyectos?2JuegosOnlineproyec@
  00043	50		 push	 eax
  00044	e8 00 00 00 00	 call	 ?FreeTool@i3mem@@YAXPAXPBDH@Z ; i3mem::FreeTool
  00049	83 c4 0c	 add	 esp, 12			; 0000000cH
  0004c	c7 86 58 a4 01
	00 00 00 00 00	 mov	 DWORD PTR [esi+107608], 0
$LN8@Destroy:

; 126  : 
; 127  : 	ResetArguments();
; 128  : }

  00056	c7 86 54 a4 01
	00 00 00 00 00	 mov	 DWORD PTR [esi+107604], 0
  00060	5e		 pop	 esi
  00061	c3		 ret	 0
?Destroy@i3NetworkHTTP@@QAEXXZ ENDP			; i3NetworkHTTP::Destroy
_TEXT	ENDS
; Function compile flags: /Ogtp
; File E:\Proyectos\JuegosOnlineproyectos\PB\pbblow\Piercing Blow Remake\i3Server\src\i3Base\i3NetworkHTTP.cpp
; File E:\Proyectos\JuegosOnlineproyectos\PB\pbblow\Piercing Blow Remake\i3Server\include\i3Base\i3Memory.h
; File E:\Proyectos\JuegosOnlineproyectos\PB\pbblow\Piercing Blow Remake\i3Server\src\i3Base\i3NetworkHTTP.cpp
; File C:\Program Files (x86)\Windows Kits\10\Include\10.0.26100.0\um\winnt.h
; File E:\Proyectos\JuegosOnlineproyectos\PB\pbblow\Piercing Blow Remake\i3Server\src\i3Base\i3NetworkHTTP.cpp
;	COMDAT ?CreateMethod@i3NetworkHTTP@@QAEXIIIII@Z
_TEXT	SEGMENT
_nRestartCount$ = 8					; size = 4
_nRestartSleep$ = 12					; size = 4
_nReloadCount$ = 16					; size = 4
_nReloadTimeout$ = 20					; size = 4
_nBufferSize$ = 24					; size = 4
?CreateMethod@i3NetworkHTTP@@QAEXIIIII@Z PROC		; i3NetworkHTTP::CreateMethod, COMDAT
; _this$ = ecx

; 99   : {

  00000	55		 push	 ebp
  00001	8b ec		 mov	 ebp, esp

; 100  : 	// nRestartCount	= ŔçÁ˘ĽÓ Č˝Ľö (Á˘ĽÓ ˝ÇĆĐ˝Ă ł»şÎżˇĽ­ ´Ů˝Ă Á˘ĽÓŔ» ˝ĂµµÇŐ´Ď´Ů. )
; 101  : 	// nRestartTime		= ŔçÁ˘ĽÓ ˝Ă°Ł°Ł°Ý ( ŔĚ˝Ă°Ł¸¶´Ů ŔçÁ˘ĽÓŔ» ˝ĂµµÇŐ´Ď´Ů )
; 102  : 	// nReloadCount		= Ŕç˝Ăµµ Č˝Ľö ( ĆÄŔĎŔ» ´Ů˝Ă ąŢµµ·Ď ˝ĂµµÇĎ´Â Č˝Ľö )
; 103  : 	// nTimeoutCount	= Ĺ¸ŔÓľĆżô˝Ă°Ł ( ŔĚ°Ł°ÝµżľČ ąŢÁö¸řÇĎ°ĹłŞ »çŔĚÁî°ˇ °čĽÓ 0ŔĚ¸é Ŕç˝ĂµµÇŐ´Ď´Ů. )
; 104  : 
; 105  : 	m_nTotalRestart		= nRestartCount;

  00003	8b 45 08	 mov	 eax, DWORD PTR _nRestartCount$[ebp]
  00006	56		 push	 esi
  00007	8b f1		 mov	 esi, ecx

; 115  : 	m_pReadBuf = (char *) i3MemAlloc( m_nReadBufSize );

  00009	6a 73		 push	 115			; 00000073H
  0000b	68 00 00 00 00	 push	 OFFSET ??_C@_0GI@CPAALLND@E?3?2Proyectos?2JuegosOnlineproyec@
  00010	6a 10		 push	 16			; 00000010H
  00012	89 86 74 a4 01
	00		 mov	 DWORD PTR [esi+107636], eax
  00018	8b 45 10	 mov	 eax, DWORD PTR _nReloadCount$[ebp]
  0001b	89 86 6c a4 01
	00		 mov	 DWORD PTR [esi+107628], eax
  00021	8b 45 0c	 mov	 eax, DWORD PTR _nRestartSleep$[ebp]
  00024	89 86 7c a4 01
	00		 mov	 DWORD PTR [esi+107644], eax
  0002a	8b 45 14	 mov	 eax, DWORD PTR _nReloadTimeout$[ebp]
  0002d	89 86 80 a4 01
	00		 mov	 DWORD PTR [esi+107648], eax
  00033	8b 45 18	 mov	 eax, DWORD PTR _nBufferSize$[ebp]
  00036	6a 00		 push	 0
  00038	50		 push	 eax
  00039	c7 86 8c a4 01
	00 00 00 00 00	 mov	 DWORD PTR [esi+107660], 0
  00043	89 86 5c a4 01
	00		 mov	 DWORD PTR [esi+107612], eax
  00049	e8 00 00 00 00	 call	 ?AllocTool@i3mem@@YAPAXHHHPBDH@Z ; i3mem::AllocTool
; File E:\Proyectos\JuegosOnlineproyectos\PB\pbblow\Piercing Blow Remake\i3Server\include\i3Base\i3Memory.h

; 144  : 			::SecureZeroMemory( pDest, sz);

  0004e	8b 8e 5c a4 01
	00		 mov	 ecx, DWORD PTR [esi+107612]
; File E:\Proyectos\JuegosOnlineproyectos\PB\pbblow\Piercing Blow Remake\i3Server\src\i3Base\i3NetworkHTTP.cpp

; 115  : 	m_pReadBuf = (char *) i3MemAlloc( m_nReadBufSize );

  00054	83 c4 14	 add	 esp, 20			; 00000014H
  00057	89 86 58 a4 01
	00		 mov	 DWORD PTR [esi+107608], eax
; File C:\Program Files (x86)\Windows Kits\10\Include\10.0.26100.0\um\winnt.h

; 23421:     while (cnt) {

  0005d	85 c9		 test	 ecx, ecx
  0005f	74 0b		 je	 SHORT $LN13@CreateMeth
$LL6@CreateMeth:

; 23422: 
; 23423: #if !defined(_M_CEE) && (defined(_M_ARM) || defined(_M_ARM64) || defined(_M_ARM64EC))
; 23424: 
; 23425:         __iso_volatile_store8(vptr, 0);
; 23426: 
; 23427: #else
; 23428: 
; 23429:         *vptr = 0;

  00061	c6 00 00	 mov	 BYTE PTR [eax], 0

; 23430: 
; 23431: #endif
; 23432: 
; 23433:         vptr++;

  00064	8d 40 01	 lea	 eax, DWORD PTR [eax+1]

; 23434:         cnt--;

  00067	83 e9 01	 sub	 ecx, 1
  0006a	75 f5		 jne	 SHORT $LL6@CreateMeth
$LN13@CreateMeth:
; File E:\Proyectos\JuegosOnlineproyectos\PB\pbblow\Piercing Blow Remake\i3Server\src\i3Base\i3NetworkHTTP.cpp

; 119  : }

  0006c	c7 86 64 a4 01
	00 00 00 00 00	 mov	 DWORD PTR [esi+107620], 0
  00076	5e		 pop	 esi
  00077	5d		 pop	 ebp
  00078	c2 14 00	 ret	 20			; 00000014H
?CreateMethod@i3NetworkHTTP@@QAEXIIIII@Z ENDP		; i3NetworkHTTP::CreateMethod
_TEXT	ENDS
; Function compile flags: /Ogtp
; File E:\Proyectos\JuegosOnlineproyectos\PB\pbblow\Piercing Blow Remake\i3Server\src\i3Base\i3NetworkHTTP.cpp
;	COMDAT ?ConvertMD5@i3NetworkHTTP@@QAEXPAD0@Z
_TEXT	SEGMENT
_code$ = -20						; size = 16
__$ArrayPad$ = -4					; size = 4
_pOutputString$ = 8					; size = 4
_pInputString$ = 12					; size = 4
?ConvertMD5@i3NetworkHTTP@@QAEXPAD0@Z PROC		; i3NetworkHTTP::ConvertMD5, COMDAT
; _this$ = ecx

; 965  : {

  00000	55		 push	 ebp
  00001	8b ec		 mov	 ebp, esp
  00003	83 ec 14	 sub	 esp, 20			; 00000014H
  00006	a1 00 00 00 00	 mov	 eax, DWORD PTR ___security_cookie
  0000b	33 c5		 xor	 eax, ebp
  0000d	89 45 fc	 mov	 DWORD PTR __$ArrayPad$[ebp], eax
  00010	56		 push	 esi
  00011	8b 75 0c	 mov	 esi, DWORD PTR _pInputString$[ebp]

; 966  : 	UINT128 code;
; 967  : 
; 968  : 	i3MD5::Gen( pInputString, i3String::Length( pInputString), (char *)&code);

  00014	8d 45 ec	 lea	 eax, DWORD PTR _code$[ebp]
  00017	57		 push	 edi
  00018	8b 7d 08	 mov	 edi, DWORD PTR _pOutputString$[ebp]
  0001b	50		 push	 eax
  0001c	56		 push	 esi
  0001d	e8 00 00 00 00	 call	 ?Length@i3String@@YAHPBD@Z ; i3String::Length
  00022	83 c4 04	 add	 esp, 4
  00025	50		 push	 eax
  00026	56		 push	 esi
  00027	e8 00 00 00 00	 call	 ?Gen@i3MD5@@YAXPADHQAD@Z ; i3MD5::Gen

; 969  : 	i3MD5::GetMD5String( pOutputString, code);	

  0002c	8b 45 ec	 mov	 eax, DWORD PTR _code$[ebp]
  0002f	51		 push	 ecx
  00030	8b cc		 mov	 ecx, esp
  00032	57		 push	 edi
  00033	89 01		 mov	 DWORD PTR [ecx], eax
  00035	8b 45 f0	 mov	 eax, DWORD PTR _code$[ebp+4]
  00038	89 41 04	 mov	 DWORD PTR [ecx+4], eax
  0003b	8b 45 f4	 mov	 eax, DWORD PTR _code$[ebp+8]
  0003e	89 41 08	 mov	 DWORD PTR [ecx+8], eax
  00041	8b 45 f8	 mov	 eax, DWORD PTR _code$[ebp+12]
  00044	89 41 0c	 mov	 DWORD PTR [ecx+12], eax
  00047	e8 00 00 00 00	 call	 ?GetMD5String@i3MD5@@YAXPADVUINT128@@@Z ; i3MD5::GetMD5String

; 970  : }

  0004c	8b 4d fc	 mov	 ecx, DWORD PTR __$ArrayPad$[ebp]
  0004f	83 c4 14	 add	 esp, 20			; 00000014H
  00052	33 cd		 xor	 ecx, ebp
  00054	5f		 pop	 edi
  00055	5e		 pop	 esi
  00056	e8 00 00 00 00	 call	 @__security_check_cookie@4
  0005b	8b e5		 mov	 esp, ebp
  0005d	5d		 pop	 ebp
  0005e	c2 08 00	 ret	 8
?ConvertMD5@i3NetworkHTTP@@QAEXPAD0@Z ENDP		; i3NetworkHTTP::ConvertMD5
_TEXT	ENDS
; Function compile flags: /Ogtp
; File E:\Proyectos\JuegosOnlineproyectos\PB\pbblow\Piercing Blow Remake\i3Server\src\i3Base\i3NetworkHTTP.cpp
;	COMDAT ?SetUpPostArguments@i3NetworkHTTP@@QAEXXZ
_TEXT	SEGMENT
_this$1$ = -8						; size = 4
tv190 = -4						; size = 4
?SetUpPostArguments@i3NetworkHTTP@@QAEXXZ PROC		; i3NetworkHTTP::SetUpPostArguments, COMDAT
; _this$ = ecx

; 952  : {

  00000	55		 push	 ebp
  00001	8b ec		 mov	 ebp, esp
  00003	83 ec 08	 sub	 esp, 8
  00006	8b c1		 mov	 eax, ecx
  00008	53		 push	 ebx
  00009	56		 push	 esi

; 953  : 	m_szPostArguments[0] = '\0';	
; 954  : 
; 955  : 	for( UINT32 i = 0; i < m_ArgumentArrayCount; i++)

  0000a	33 f6		 xor	 esi, esi
  0000c	89 45 f8	 mov	 DWORD PTR _this$1$[ebp], eax
  0000f	8d 98 32 0f 00
	00		 lea	 ebx, DWORD PTR [eax+3890]
  00015	c6 03 00	 mov	 BYTE PTR [ebx], 0
  00018	39 b0 54 a4 01
	00		 cmp	 DWORD PTR [eax+107604], esi
  0001e	76 66		 jbe	 SHORT $LN3@SetUpPostA
  00020	8d 88 8c 13 00
	00		 lea	 ecx, DWORD PTR [eax+5004]
  00026	05 8c 17 00 00	 add	 eax, 6028		; 0000178cH
  0002b	89 45 fc	 mov	 DWORD PTR tv190[ebp], eax
  0002e	57		 push	 edi
  0002f	90		 npad	 1
$LL4@SetUpPostA:

; 956  : 	{
; 957  : 		i3String::Concat( m_szPostArguments, m_ArgumentArray[i].szName);

  00030	69 fe 04 08 00
	00		 imul	 edi, esi, 2052
  00036	8d 04 39	 lea	 eax, DWORD PTR [ecx+edi]
  00039	50		 push	 eax
  0003a	53		 push	 ebx
  0003b	e8 00 00 00 00	 call	 ?Concat@i3String@@YAXPADPBD@Z ; i3String::Concat

; 958  : 		i3String::Concat( m_szPostArguments, "=");

  00040	68 00 00 00 00	 push	 OFFSET ??_C@_01NEMOKFLO@?$DN@
  00045	53		 push	 ebx
  00046	e8 00 00 00 00	 call	 ?Concat@i3String@@YAXPADPBD@Z ; i3String::Concat
  0004b	8b 45 fc	 mov	 eax, DWORD PTR tv190[ebp]
  0004e	03 c7		 add	 eax, edi

; 959  : 		i3String::Concat( m_szPostArguments, m_ArgumentArray[i].szValue);

  00050	50		 push	 eax
  00051	53		 push	 ebx
  00052	e8 00 00 00 00	 call	 ?Concat@i3String@@YAXPADPBD@Z ; i3String::Concat

; 960  : 		if( i !=  m_ArgumentArrayCount - 1) i3String::Concat( m_szPostArguments, "&");

  00057	8b 7d f8	 mov	 edi, DWORD PTR _this$1$[ebp]
  0005a	83 c4 18	 add	 esp, 24			; 00000018H
  0005d	8b 87 54 a4 01
	00		 mov	 eax, DWORD PTR [edi+107604]
  00063	48		 dec	 eax
  00064	3b f0		 cmp	 esi, eax
  00066	74 0e		 je	 SHORT $LN2@SetUpPostA
  00068	68 00 00 00 00	 push	 OFFSET ??_C@_01HNPIGOCE@?$CG@
  0006d	53		 push	 ebx
  0006e	e8 00 00 00 00	 call	 ?Concat@i3String@@YAXPADPBD@Z ; i3String::Concat
  00073	83 c4 08	 add	 esp, 8
$LN2@SetUpPostA:

; 953  : 	m_szPostArguments[0] = '\0';	
; 954  : 
; 955  : 	for( UINT32 i = 0; i < m_ArgumentArrayCount; i++)

  00076	46		 inc	 esi
  00077	8d 8f 8c 13 00
	00		 lea	 ecx, DWORD PTR [edi+5004]
  0007d	3b b7 54 a4 01
	00		 cmp	 esi, DWORD PTR [edi+107604]
  00083	72 ab		 jb	 SHORT $LL4@SetUpPostA
  00085	5f		 pop	 edi
$LN3@SetUpPostA:
  00086	5e		 pop	 esi

; 961  : 	}
; 962  : }

  00087	5b		 pop	 ebx
  00088	8b e5		 mov	 esp, ebp
  0008a	5d		 pop	 ebp
  0008b	c3		 ret	 0
?SetUpPostArguments@i3NetworkHTTP@@QAEXXZ ENDP		; i3NetworkHTTP::SetUpPostArguments
_TEXT	ENDS
; Function compile flags: /Ogtp
; File E:\Proyectos\JuegosOnlineproyectos\PB\pbblow\Piercing Blow Remake\i3Server\src\i3Base\i3NetworkHTTP.cpp
;	COMDAT ?AddArgument@i3NetworkHTTP@@QAEHPADPAEH@Z
_TEXT	SEGMENT
_pszName$ = 8						; size = 4
_pui8Value$ = 12					; size = 4
_i32Size$ = 16						; size = 4
?AddArgument@i3NetworkHTTP@@QAEHPADPAEH@Z PROC		; i3NetworkHTTP::AddArgument, COMDAT
; _this$ = ecx

; 928  : {

  00000	55		 push	 ebp
  00001	8b ec		 mov	 ebp, esp
  00003	53		 push	 ebx
  00004	8b d9		 mov	 ebx, ecx
  00006	56		 push	 esi
  00007	57		 push	 edi

; 929  : 	if( MAX_HTTP_ARGUMENT <= m_ArgumentArrayCount )	return FALSE;

  00008	8b 83 54 a4 01
	00		 mov	 eax, DWORD PTR [ebx+107604]
  0000e	83 f8 32	 cmp	 eax, 50			; 00000032H
  00011	0f 83 9d 00 00
	00		 jae	 $LN11@AddArgumen

; 930  : 
; 931  : 	i3String::Copy( m_ArgumentArray[m_ArgumentArrayCount].szName, pszName, MAX_HTTP_ARG_SIZE);

  00017	69 c0 04 08 00
	00		 imul	 eax, eax, 2052
  0001d	68 00 04 00 00	 push	 1024			; 00000400H
  00022	ff 75 08	 push	 DWORD PTR _pszName$[ebp]
  00025	05 8c 13 00 00	 add	 eax, 5004		; 0000138cH
  0002a	03 c3		 add	 eax, ebx
  0002c	50		 push	 eax
  0002d	e8 00 00 00 00	 call	 ?Copy@i3String@@YAXPADPBDH@Z ; i3String::Copy

; 932  : 	
; 933  : 	for( INT32 i = 0; i < i32Size; ++i )

  00032	33 ff		 xor	 edi, edi
  00034	83 c4 0c	 add	 esp, 12			; 0000000cH
  00037	39 7d 10	 cmp	 DWORD PTR _i32Size$[ebp], edi
  0003a	7e 51		 jle	 SHORT $LN3@AddArgumen
  0003c	8b 75 0c	 mov	 esi, DWORD PTR _pui8Value$[ebp]
  0003f	90		 npad	 1
$LL4@AddArgumen:

; 934  : 	{
; 935  : 		if( NULL == pui8Value )	return FALSE;

  00040	85 f6		 test	 esi, esi
  00042	74 70		 je	 SHORT $LN11@AddArgumen

; 936  : 
; 937  : 		if( i == 0 )

  00044	69 83 54 a4 01
	00 04 08 00 00	 imul	 eax, DWORD PTR [ebx+107604], 2052
  0004e	0f b6 0e	 movzx	 ecx, BYTE PTR [esi]
  00051	51		 push	 ecx
  00052	05 8c 17 00 00	 add	 eax, 6028		; 0000178cH
  00057	03 c3		 add	 eax, ebx
  00059	85 ff		 test	 edi, edi
  0005b	75 15		 jne	 SHORT $LN7@AddArgumen

; 938  : 			i3String::Format( m_ArgumentArray[m_ArgumentArrayCount].szValue, MAX_HTTP_ARG_SIZE, "%d", *pui8Value );

  0005d	68 00 00 00 00	 push	 OFFSET ??_C@_02DPKJAMEF@?$CFd@
  00062	68 00 04 00 00	 push	 1024			; 00000400H
  00067	50		 push	 eax
  00068	e8 00 00 00 00	 call	 ?Format@i3String@@YAHPADHPBDZZ ; i3String::Format
  0006d	83 c4 10	 add	 esp, 16			; 00000010H
  00070	eb 14		 jmp	 SHORT $LN8@AddArgumen
$LN7@AddArgumen:

; 939  : 		else
; 940  : 			i3String::Format( m_ArgumentArray[m_ArgumentArrayCount].szValue, MAX_HTTP_ARG_SIZE, "%s-%d", m_ArgumentArray[m_ArgumentArrayCount].szValue, *pui8Value );

  00072	50		 push	 eax
  00073	68 00 00 00 00	 push	 OFFSET ??_C@_05MKGBANIN@?$CFs?9?$CFd@
  00078	68 00 04 00 00	 push	 1024			; 00000400H
  0007d	50		 push	 eax
  0007e	e8 00 00 00 00	 call	 ?Format@i3String@@YAHPADHPBDZZ ; i3String::Format
  00083	83 c4 14	 add	 esp, 20			; 00000014H
$LN8@AddArgumen:

; 941  : 
; 942  : 		pui8Value++;

  00086	47		 inc	 edi
  00087	46		 inc	 esi
  00088	3b 7d 10	 cmp	 edi, DWORD PTR _i32Size$[ebp]
  0008b	7c b3		 jl	 SHORT $LL4@AddArgumen
$LN3@AddArgumen:

; 943  : 	}
; 944  : 	
; 945  : 	m_ArgumentArray[m_ArgumentArrayCount].dwType = i3NetworkHTTP::TYPE_POST_ARGUMENT_NORMAL;

  0008d	69 83 54 a4 01
	00 04 08 00 00	 imul	 eax, DWORD PTR [ebx+107604], 2052
  00097	5f		 pop	 edi

; 946  : 	m_ArgumentArrayCount++;
; 947  : 
; 948  : 	return TRUE;
; 949  : }

  00098	5e		 pop	 esi
  00099	c7 84 18 8c 1b
	00 00 01 00 00
	00		 mov	 DWORD PTR [eax+ebx+7052], 1
  000a4	b8 01 00 00 00	 mov	 eax, 1
  000a9	ff 83 54 a4 01
	00		 inc	 DWORD PTR [ebx+107604]
  000af	5b		 pop	 ebx
  000b0	5d		 pop	 ebp
  000b1	c2 0c 00	 ret	 12			; 0000000cH
$LN11@AddArgumen:
  000b4	5f		 pop	 edi
  000b5	5e		 pop	 esi
  000b6	33 c0		 xor	 eax, eax
  000b8	5b		 pop	 ebx
  000b9	5d		 pop	 ebp
  000ba	c2 0c 00	 ret	 12			; 0000000cH
?AddArgument@i3NetworkHTTP@@QAEHPADPAEH@Z ENDP		; i3NetworkHTTP::AddArgument
_TEXT	ENDS
; Function compile flags: /Ogtp
; File E:\Proyectos\JuegosOnlineproyectos\PB\pbblow\Piercing Blow Remake\i3Server\src\i3Base\i3NetworkHTTP.cpp
;	COMDAT ?AddArgument@i3NetworkHTTP@@QAEHPADK@Z
_TEXT	SEGMENT
_pszName$ = 8						; size = 4
_dwValue$ = 12						; size = 4
?AddArgument@i3NetworkHTTP@@QAEHPADK@Z PROC		; i3NetworkHTTP::AddArgument, COMDAT
; _this$ = ecx

; 916  : {

  00000	55		 push	 ebp
  00001	8b ec		 mov	 ebp, esp
  00003	56		 push	 esi
  00004	8b f1		 mov	 esi, ecx

; 917  : 	if( MAX_HTTP_ARGUMENT <= m_ArgumentArrayCount )	return FALSE;

  00006	8b 86 54 a4 01
	00		 mov	 eax, DWORD PTR [esi+107604]
  0000c	83 f8 32	 cmp	 eax, 50			; 00000032H
  0000f	72 07		 jb	 SHORT $LN2@AddArgumen
  00011	33 c0		 xor	 eax, eax
  00013	5e		 pop	 esi

; 925  : }

  00014	5d		 pop	 ebp
  00015	c2 08 00	 ret	 8
$LN2@AddArgumen:

; 918  : 
; 919  : 	i3String::Copy( m_ArgumentArray[m_ArgumentArrayCount].szName, pszName, MAX_HTTP_ARG_SIZE);

  00018	69 c0 04 08 00
	00		 imul	 eax, eax, 2052
  0001e	68 00 04 00 00	 push	 1024			; 00000400H
  00023	ff 75 08	 push	 DWORD PTR _pszName$[ebp]
  00026	05 8c 13 00 00	 add	 eax, 5004		; 0000138cH
  0002b	03 c6		 add	 eax, esi
  0002d	50		 push	 eax
  0002e	e8 00 00 00 00	 call	 ?Copy@i3String@@YAXPADPBDH@Z ; i3String::Copy

; 920  : 	i3String::Format( m_ArgumentArray[m_ArgumentArrayCount].szValue, MAX_HTTP_ARG_SIZE, "%lu", dwValue );

  00033	69 86 54 a4 01
	00 04 08 00 00	 imul	 eax, DWORD PTR [esi+107604], 2052
  0003d	ff 75 0c	 push	 DWORD PTR _dwValue$[ebp]
  00040	68 00 00 00 00	 push	 OFFSET ??_C@_03FKNCMABI@?$CFlu@
  00045	68 00 04 00 00	 push	 1024			; 00000400H
  0004a	05 8c 17 00 00	 add	 eax, 6028		; 0000178cH
  0004f	03 c6		 add	 eax, esi
  00051	50		 push	 eax
  00052	e8 00 00 00 00	 call	 ?Format@i3String@@YAHPADHPBDZZ ; i3String::Format

; 921  : 	m_ArgumentArray[m_ArgumentArrayCount].dwType = i3NetworkHTTP::TYPE_POST_ARGUMENT_NORMAL;

  00057	69 86 54 a4 01
	00 04 08 00 00	 imul	 eax, DWORD PTR [esi+107604], 2052
  00061	83 c4 1c	 add	 esp, 28			; 0000001cH
  00064	c7 84 30 8c 1b
	00 00 01 00 00
	00		 mov	 DWORD PTR [eax+esi+7052], 1

; 922  : 	m_ArgumentArrayCount++;
; 923  : 
; 924  : 	return TRUE;

  0006f	b8 01 00 00 00	 mov	 eax, 1
  00074	ff 86 54 a4 01
	00		 inc	 DWORD PTR [esi+107604]
  0007a	5e		 pop	 esi

; 925  : }

  0007b	5d		 pop	 ebp
  0007c	c2 08 00	 ret	 8
?AddArgument@i3NetworkHTTP@@QAEHPADK@Z ENDP		; i3NetworkHTTP::AddArgument
_TEXT	ENDS
; Function compile flags: /Ogtp
; File E:\Proyectos\JuegosOnlineproyectos\PB\pbblow\Piercing Blow Remake\i3Server\src\i3Base\i3NetworkHTTP.cpp
;	COMDAT ?AddArgument@i3NetworkHTTP@@QAEHPAD_J@Z
_TEXT	SEGMENT
_pszName$ = 8						; size = 4
_i64Value$ = 12						; size = 8
?AddArgument@i3NetworkHTTP@@QAEHPAD_J@Z PROC		; i3NetworkHTTP::AddArgument, COMDAT
; _this$ = ecx

; 904  : {

  00000	55		 push	 ebp
  00001	8b ec		 mov	 ebp, esp
  00003	56		 push	 esi
  00004	8b f1		 mov	 esi, ecx

; 905  : 	if( MAX_HTTP_ARGUMENT <= m_ArgumentArrayCount )	return FALSE;

  00006	8b 86 54 a4 01
	00		 mov	 eax, DWORD PTR [esi+107604]
  0000c	83 f8 32	 cmp	 eax, 50			; 00000032H
  0000f	72 07		 jb	 SHORT $LN2@AddArgumen
  00011	33 c0		 xor	 eax, eax
  00013	5e		 pop	 esi

; 913  : }

  00014	5d		 pop	 ebp
  00015	c2 0c 00	 ret	 12			; 0000000cH
$LN2@AddArgumen:

; 906  : 
; 907  : 	i3String::Copy( m_ArgumentArray[m_ArgumentArrayCount].szName, pszName, MAX_HTTP_ARG_SIZE);

  00018	69 c0 04 08 00
	00		 imul	 eax, eax, 2052
  0001e	68 00 04 00 00	 push	 1024			; 00000400H
  00023	ff 75 08	 push	 DWORD PTR _pszName$[ebp]
  00026	05 8c 13 00 00	 add	 eax, 5004		; 0000138cH
  0002b	03 c6		 add	 eax, esi
  0002d	50		 push	 eax
  0002e	e8 00 00 00 00	 call	 ?Copy@i3String@@YAXPADPBDH@Z ; i3String::Copy

; 908  : 	i3String::Format( m_ArgumentArray[m_ArgumentArrayCount].szValue, MAX_HTTP_ARG_SIZE, "%I64d", i64Value );

  00033	ff 75 10	 push	 DWORD PTR _i64Value$[ebp+4]
  00036	69 86 54 a4 01
	00 04 08 00 00	 imul	 eax, DWORD PTR [esi+107604], 2052
  00040	ff 75 0c	 push	 DWORD PTR _i64Value$[ebp]
  00043	68 00 00 00 00	 push	 OFFSET ??_C@_05LLAMLEHD@?$CFI64d@
  00048	68 00 04 00 00	 push	 1024			; 00000400H
  0004d	05 8c 17 00 00	 add	 eax, 6028		; 0000178cH
  00052	03 c6		 add	 eax, esi
  00054	50		 push	 eax
  00055	e8 00 00 00 00	 call	 ?Format@i3String@@YAHPADHPBDZZ ; i3String::Format

; 909  : 	m_ArgumentArray[m_ArgumentArrayCount].dwType = i3NetworkHTTP::TYPE_POST_ARGUMENT_NORMAL;

  0005a	69 86 54 a4 01
	00 04 08 00 00	 imul	 eax, DWORD PTR [esi+107604], 2052
  00064	83 c4 20	 add	 esp, 32			; 00000020H
  00067	c7 84 30 8c 1b
	00 00 01 00 00
	00		 mov	 DWORD PTR [eax+esi+7052], 1

; 910  : 	m_ArgumentArrayCount++;
; 911  : 
; 912  : 	return TRUE;

  00072	b8 01 00 00 00	 mov	 eax, 1
  00077	ff 86 54 a4 01
	00		 inc	 DWORD PTR [esi+107604]
  0007d	5e		 pop	 esi

; 913  : }

  0007e	5d		 pop	 ebp
  0007f	c2 0c 00	 ret	 12			; 0000000cH
?AddArgument@i3NetworkHTTP@@QAEHPAD_J@Z ENDP		; i3NetworkHTTP::AddArgument
_TEXT	ENDS
; Function compile flags: /Ogtp
; File E:\Proyectos\JuegosOnlineproyectos\PB\pbblow\Piercing Blow Remake\i3Server\src\i3Base\i3NetworkHTTP.cpp
;	COMDAT ?AddArgument@i3NetworkHTTP@@QAEHPADH@Z
_TEXT	SEGMENT
_pszName$ = 8						; size = 4
_nValue$ = 12						; size = 4
?AddArgument@i3NetworkHTTP@@QAEHPADH@Z PROC		; i3NetworkHTTP::AddArgument, COMDAT
; _this$ = ecx

; 892  : {

  00000	55		 push	 ebp
  00001	8b ec		 mov	 ebp, esp
  00003	56		 push	 esi
  00004	8b f1		 mov	 esi, ecx

; 893  : 	if( MAX_HTTP_ARGUMENT <= m_ArgumentArrayCount )	return FALSE;

  00006	8b 86 54 a4 01
	00		 mov	 eax, DWORD PTR [esi+107604]
  0000c	83 f8 32	 cmp	 eax, 50			; 00000032H
  0000f	72 07		 jb	 SHORT $LN2@AddArgumen
  00011	33 c0		 xor	 eax, eax
  00013	5e		 pop	 esi

; 901  : }

  00014	5d		 pop	 ebp
  00015	c2 08 00	 ret	 8
$LN2@AddArgumen:

; 894  : 
; 895  : 	i3String::Copy( m_ArgumentArray[m_ArgumentArrayCount].szName, pszName, MAX_HTTP_ARG_SIZE);

  00018	69 c0 04 08 00
	00		 imul	 eax, eax, 2052
  0001e	68 00 04 00 00	 push	 1024			; 00000400H
  00023	ff 75 08	 push	 DWORD PTR _pszName$[ebp]
  00026	05 8c 13 00 00	 add	 eax, 5004		; 0000138cH
  0002b	03 c6		 add	 eax, esi
  0002d	50		 push	 eax
  0002e	e8 00 00 00 00	 call	 ?Copy@i3String@@YAXPADPBDH@Z ; i3String::Copy

; 896  : 	i3String::Format( m_ArgumentArray[m_ArgumentArrayCount].szValue, MAX_HTTP_ARG_SIZE, "%d", nValue );

  00033	69 86 54 a4 01
	00 04 08 00 00	 imul	 eax, DWORD PTR [esi+107604], 2052
  0003d	ff 75 0c	 push	 DWORD PTR _nValue$[ebp]
  00040	68 00 00 00 00	 push	 OFFSET ??_C@_02DPKJAMEF@?$CFd@
  00045	68 00 04 00 00	 push	 1024			; 00000400H
  0004a	05 8c 17 00 00	 add	 eax, 6028		; 0000178cH
  0004f	03 c6		 add	 eax, esi
  00051	50		 push	 eax
  00052	e8 00 00 00 00	 call	 ?Format@i3String@@YAHPADHPBDZZ ; i3String::Format

; 897  : 	m_ArgumentArray[m_ArgumentArrayCount].dwType = i3NetworkHTTP::TYPE_POST_ARGUMENT_NORMAL;

  00057	69 86 54 a4 01
	00 04 08 00 00	 imul	 eax, DWORD PTR [esi+107604], 2052
  00061	83 c4 1c	 add	 esp, 28			; 0000001cH
  00064	c7 84 30 8c 1b
	00 00 01 00 00
	00		 mov	 DWORD PTR [eax+esi+7052], 1

; 898  : 	m_ArgumentArrayCount++;
; 899  : 
; 900  : 	return TRUE;

  0006f	b8 01 00 00 00	 mov	 eax, 1
  00074	ff 86 54 a4 01
	00		 inc	 DWORD PTR [esi+107604]
  0007a	5e		 pop	 esi

; 901  : }

  0007b	5d		 pop	 ebp
  0007c	c2 08 00	 ret	 8
?AddArgument@i3NetworkHTTP@@QAEHPADH@Z ENDP		; i3NetworkHTTP::AddArgument
_TEXT	ENDS
; Function compile flags: /Ogtp
; File E:\Proyectos\JuegosOnlineproyectos\PB\pbblow\Piercing Blow Remake\i3Server\src\i3Base\i3NetworkHTTP.cpp
; File E:\Proyectos\JuegosOnlineproyectos\PB\pbblow\Piercing Blow Remake\i3Server\include\i3Base\i3Memory.h
; File E:\Proyectos\JuegosOnlineproyectos\PB\pbblow\Piercing Blow Remake\i3Server\src\i3Base\i3NetworkHTTP.cpp
; File E:\Proyectos\JuegosOnlineproyectos\PB\pbblow\Piercing Blow Remake\i3Server\include\i3Base\i3Memory.h
; File E:\Proyectos\JuegosOnlineproyectos\PB\pbblow\Piercing Blow Remake\i3Server\src\i3Base\i3NetworkHTTP.cpp
; File E:\Proyectos\JuegosOnlineproyectos\PB\pbblow\Piercing Blow Remake\i3Server\include\i3Base\i3Memory.h
; File E:\Proyectos\JuegosOnlineproyectos\PB\pbblow\Piercing Blow Remake\i3Server\src\i3Base\i3NetworkHTTP.cpp
;	COMDAT ?AddArgument@i3NetworkHTTP@@QAEHPAD0@Z
_TEXT	SEGMENT
_pszName$ = 8						; size = 4
_pszValue$ = 12						; size = 4
?AddArgument@i3NetworkHTTP@@QAEHPAD0@Z PROC		; i3NetworkHTTP::AddArgument, COMDAT
; _this$ = ecx

; 852  : {

  00000	55		 push	 ebp
  00001	8b ec		 mov	 ebp, esp
  00003	53		 push	 ebx
  00004	8b d9		 mov	 ebx, ecx
  00006	56		 push	 esi
  00007	57		 push	 edi

; 853  : 	char* src = pszValue;

  00008	8b 7d 0c	 mov	 edi, DWORD PTR _pszValue$[ebp]

; 854  : 	char* dst = m_ArgumentArray[m_ArgumentArrayCount].szValue;

  0000b	8b 93 54 a4 01
	00		 mov	 edx, DWORD PTR [ebx+107604]
  00011	69 c2 04 08 00
	00		 imul	 eax, edx, 2052
  00017	03 c3		 add	 eax, ebx
  00019	8d b0 8c 17 00
	00		 lea	 esi, DWORD PTR [eax+6028]

; 855  : 
; 856  : 	if( MAX_HTTP_ARGUMENT <= m_ArgumentArrayCount )	return FALSE;

  0001f	83 fa 32	 cmp	 edx, 50			; 00000032H
  00022	72 09		 jb	 SHORT $LN6@AddArgumen

; 886  : 	m_ArgumentArrayCount++;
; 887  : 
; 888  : 	return TRUE;
; 889  : }

  00024	5f		 pop	 edi
  00025	5e		 pop	 esi
  00026	33 c0		 xor	 eax, eax
  00028	5b		 pop	 ebx
  00029	5d		 pop	 ebp
  0002a	c2 08 00	 ret	 8
$LN6@AddArgumen:

; 857  : 
; 858  : 	i3String::Copy( m_ArgumentArray[m_ArgumentArrayCount].szName, pszName, MAX_HTTP_ARG_SIZE);

  0002d	68 00 04 00 00	 push	 1024			; 00000400H
  00032	ff 75 08	 push	 DWORD PTR _pszName$[ebp]
  00035	05 8c 13 00 00	 add	 eax, 5004		; 0000138cH
  0003a	50		 push	 eax
  0003b	e8 00 00 00 00	 call	 ?Copy@i3String@@YAXPADPBDH@Z ; i3String::Copy

; 859  : 
; 860  : 	//ŔĎşÎ ĆŻĽöą®ŔÚżˇ ´ëÇŃ şŻČŻĂł¸®
; 861  : 	while( (*dst = *src) != '\0' )

  00040	8a 07		 mov	 al, BYTE PTR [edi]
  00042	83 c4 0c	 add	 esp, 12			; 0000000cH
  00045	88 06		 mov	 BYTE PTR [esi], al
  00047	84 c0		 test	 al, al
  00049	74 58		 je	 SHORT $LN3@AddArgumen
  0004b	eb 03 8d 49 00	 npad	 5
$LL2@AddArgumen:

; 862  : 	{
; 863  : 		switch(*src)

  00050	0f be 07	 movsx	 eax, BYTE PTR [edi]
  00053	83 e8 25	 sub	 eax, 37			; 00000025H
  00056	74 2d		 je	 SHORT $LN7@AddArgumen
  00058	83 e8 01	 sub	 eax, 1
  0005b	74 18		 je	 SHORT $LN8@AddArgumen
  0005d	83 e8 05	 sub	 eax, 5
  00060	74 03		 je	 SHORT $LN9@AddArgumen

; 877  : 		default:
; 878  : 			dst++;

  00062	46		 inc	 esi
  00063	eb 34		 jmp	 SHORT $LN4@AddArgumen
$LN9@AddArgumen:
; File E:\Proyectos\JuegosOnlineproyectos\PB\pbblow\Piercing Blow Remake\i3Server\include\i3Base\i3Memory.h

; 134  : 			::CopyMemory( pDest, pSrc, sz);

  00065	66 a1 00 00 00
	00		 mov	 ax, WORD PTR ??_C@_03KMPHGDJG@?$CF2B@
  0006b	66 89 06	 mov	 WORD PTR [esi], ax
  0006e	a0 02 00 00 00	 mov	 al, BYTE PTR ??_C@_03KMPHGDJG@?$CF2B@+2
; File E:\Proyectos\JuegosOnlineproyectos\PB\pbblow\Piercing Blow Remake\i3Server\src\i3Base\i3NetworkHTTP.cpp

; 876  : 			break;

  00073	eb 1e		 jmp	 SHORT $LN27@AddArgumen
$LN8@AddArgumen:
; File E:\Proyectos\JuegosOnlineproyectos\PB\pbblow\Piercing Blow Remake\i3Server\include\i3Base\i3Memory.h

; 134  : 			::CopyMemory( pDest, pSrc, sz);

  00075	66 a1 00 00 00
	00		 mov	 ax, WORD PTR ??_C@_03OHKENPGE@?$CF26@
  0007b	66 89 06	 mov	 WORD PTR [esi], ax
  0007e	a0 02 00 00 00	 mov	 al, BYTE PTR ??_C@_03OHKENPGE@?$CF26@+2
; File E:\Proyectos\JuegosOnlineproyectos\PB\pbblow\Piercing Blow Remake\i3Server\src\i3Base\i3NetworkHTTP.cpp

; 872  : 			break;

  00083	eb 0e		 jmp	 SHORT $LN27@AddArgumen
$LN7@AddArgumen:
; File E:\Proyectos\JuegosOnlineproyectos\PB\pbblow\Piercing Blow Remake\i3Server\include\i3Base\i3Memory.h

; 134  : 			::CopyMemory( pDest, pSrc, sz);

  00085	66 a1 00 00 00
	00		 mov	 ax, WORD PTR ??_C@_03MMIJIMKH@?$CF25@
  0008b	66 89 06	 mov	 WORD PTR [esi], ax
  0008e	a0 02 00 00 00	 mov	 al, BYTE PTR ??_C@_03MMIJIMKH@?$CF25@+2
$LN27@AddArgumen:
; File E:\Proyectos\JuegosOnlineproyectos\PB\pbblow\Piercing Blow Remake\i3Server\src\i3Base\i3NetworkHTTP.cpp

; 882  : 		src++;

  00093	88 46 02	 mov	 BYTE PTR [esi+2], al
  00096	83 c6 03	 add	 esi, 3
$LN4@AddArgumen:
  00099	8a 47 01	 mov	 al, BYTE PTR [edi+1]
  0009c	47		 inc	 edi
  0009d	88 06		 mov	 BYTE PTR [esi], al
  0009f	84 c0		 test	 al, al
  000a1	75 ad		 jne	 SHORT $LL2@AddArgumen
$LN3@AddArgumen:

; 883  : 	}
; 884  : 
; 885  : 	m_ArgumentArray[m_ArgumentArrayCount].dwType = i3NetworkHTTP::TYPE_POST_ARGUMENT_NORMAL;

  000a3	69 83 54 a4 01
	00 04 08 00 00	 imul	 eax, DWORD PTR [ebx+107604], 2052
  000ad	5f		 pop	 edi

; 886  : 	m_ArgumentArrayCount++;
; 887  : 
; 888  : 	return TRUE;
; 889  : }

  000ae	5e		 pop	 esi
  000af	c7 84 18 8c 1b
	00 00 01 00 00
	00		 mov	 DWORD PTR [eax+ebx+7052], 1
  000ba	b8 01 00 00 00	 mov	 eax, 1
  000bf	ff 83 54 a4 01
	00		 inc	 DWORD PTR [ebx+107604]
  000c5	5b		 pop	 ebx
  000c6	5d		 pop	 ebp
  000c7	c2 08 00	 ret	 8
?AddArgument@i3NetworkHTTP@@QAEHPAD0@Z ENDP		; i3NetworkHTTP::AddArgument
_TEXT	ENDS
; Function compile flags: /Ogtp
; File E:\Proyectos\JuegosOnlineproyectos\PB\pbblow\Piercing Blow Remake\i3Server\src\i3Base\i3NetworkHTTP.cpp
;	COMDAT ?ResetArguments@i3NetworkHTTP@@QAEXXZ
_TEXT	SEGMENT
?ResetArguments@i3NetworkHTTP@@QAEXXZ PROC		; i3NetworkHTTP::ResetArguments, COMDAT
; _this$ = ecx

; 848  : 	m_ArgumentArrayCount = 0;

  00000	c7 81 54 a4 01
	00 00 00 00 00	 mov	 DWORD PTR [ecx+107604], 0

; 849  : }

  0000a	c3		 ret	 0
?ResetArguments@i3NetworkHTTP@@QAEXXZ ENDP		; i3NetworkHTTP::ResetArguments
_TEXT	ENDS
; Function compile flags: /Ogtp
; File E:\Proyectos\JuegosOnlineproyectos\PB\pbblow\Piercing Blow Remake\i3Server\src\i3Base\i3NetworkHTTP.cpp
;	COMDAT ?ParseURL@i3NetworkHTTP@@QAEXPAD00AAG0@Z
_TEXT	SEGMENT
_this$GSCopy$1$ = -1052					; size = 4
_pszURI$GSCopy$1$ = -1048				; size = 4
_pszAddress$GSCopy$1$ = -1044				; size = 4
_nPort$GSCopy$1$ = -1040				; size = 4
_pszProtocol$GSCopy$1$ = -1036				; size = 4
_bFlag$1$ = -1032					; size = 4
tv311 = -1032						; size = 4
_sztmp$1 = -1028					; size = 1024
__$ArrayPad$ = -4					; size = 4
_pszURL$ = 8						; size = 4
_pszProtocol$ = 12					; size = 4
_pszAddress$ = 16					; size = 4
_nPort$ = 20						; size = 4
_pszURI$ = 24						; size = 4
?ParseURL@i3NetworkHTTP@@QAEXPAD00AAG0@Z PROC		; i3NetworkHTTP::ParseURL, COMDAT
; _this$ = ecx

; 771  : {

  00000	55		 push	 ebp
  00001	8b ec		 mov	 ebp, esp
  00003	81 ec 1c 04 00
	00		 sub	 esp, 1052		; 0000041cH
  00009	a1 00 00 00 00	 mov	 eax, DWORD PTR ___security_cookie
  0000e	33 c5		 xor	 eax, ebp
  00010	89 45 fc	 mov	 DWORD PTR __$ArrayPad$[ebp], eax
  00013	8b 45 0c	 mov	 eax, DWORD PTR _pszProtocol$[ebp]
  00016	53		 push	 ebx
  00017	89 85 f4 fb ff
	ff		 mov	 DWORD PTR _pszProtocol$GSCopy$1$[ebp], eax

; 772  : 	DWORD dwPosition=0;
; 773  : 	BOOL bFlag=FALSE;

  0001d	33 db		 xor	 ebx, ebx
  0001f	8b 45 10	 mov	 eax, DWORD PTR _pszAddress$[ebp]
  00022	56		 push	 esi
  00023	8b 75 08	 mov	 esi, DWORD PTR _pszURL$[ebp]
  00026	89 85 ec fb ff
	ff		 mov	 DWORD PTR _pszAddress$GSCopy$1$[ebp], eax
  0002c	8b 45 14	 mov	 eax, DWORD PTR _nPort$[ebp]
  0002f	57		 push	 edi
  00030	89 85 f0 fb ff
	ff		 mov	 DWORD PTR _nPort$GSCopy$1$[ebp], eax
  00036	33 ff		 xor	 edi, edi
  00038	8b 45 18	 mov	 eax, DWORD PTR _pszURI$[ebp]

; 774  : 
; 775  : 	while( i3String::Length(pszURL) > 0 && dwPosition < (DWORD)i3String::Length(pszURL) && i3String::NCompare((pszURL+dwPosition), ":", 1))

  0003b	56		 push	 esi
  0003c	89 8d e4 fb ff
	ff		 mov	 DWORD PTR _this$GSCopy$1$[ebp], ecx
  00042	89 85 e8 fb ff
	ff		 mov	 DWORD PTR _pszURI$GSCopy$1$[ebp], eax
  00048	e8 00 00 00 00	 call	 ?Length@i3String@@YAHPBD@Z ; i3String::Length
  0004d	83 c4 04	 add	 esp, 4
  00050	85 c0		 test	 eax, eax
  00052	7e 32		 jle	 SHORT $LN34@ParseURL
$LL2@ParseURL:
  00054	56		 push	 esi
  00055	e8 00 00 00 00	 call	 ?Length@i3String@@YAHPBD@Z ; i3String::Length
  0005a	83 c4 04	 add	 esp, 4
  0005d	3b f8		 cmp	 edi, eax
  0005f	73 25		 jae	 SHORT $LN34@ParseURL
  00061	6a 01		 push	 1
  00063	8d 04 3e	 lea	 eax, DWORD PTR [esi+edi]
  00066	68 00 00 00 00	 push	 OFFSET ??_C@_01JLIPDDHJ@?3@
  0006b	50		 push	 eax
  0006c	e8 00 00 00 00	 call	 ?NCompare@i3String@@YAHPBD0H@Z ; i3String::NCompare
  00071	83 c4 0c	 add	 esp, 12			; 0000000cH
  00074	85 c0		 test	 eax, eax
  00076	74 0e		 je	 SHORT $LN34@ParseURL
  00078	56		 push	 esi

; 776  : 		++dwPosition;

  00079	47		 inc	 edi
  0007a	e8 00 00 00 00	 call	 ?Length@i3String@@YAHPBD@Z ; i3String::Length
  0007f	83 c4 04	 add	 esp, 4
  00082	85 c0		 test	 eax, eax
  00084	7f ce		 jg	 SHORT $LL2@ParseURL
$LN34@ParseURL:

; 777  : 
; 778  : 	if( !i3String::NCompare((pszURL+dwPosition+1), "/", 1))

  00086	6a 01		 push	 1
  00088	8d 46 01	 lea	 eax, DWORD PTR [esi+1]
  0008b	03 c7		 add	 eax, edi
  0008d	68 00 00 00 00	 push	 OFFSET ??_C@_01KMDKNFGN@?1@
  00092	50		 push	 eax
  00093	e8 00 00 00 00	 call	 ?NCompare@i3String@@YAHPBD0H@Z ; i3String::NCompare
  00098	83 c4 0c	 add	 esp, 12			; 0000000cH
  0009b	85 c0		 test	 eax, eax
  0009d	75 19		 jne	 SHORT $LN9@ParseURL

; 779  : 	{	
; 780  : 		// is PROTOCOL
; 781  : 		i3String::NCopy(pszProtocol, pszURL, dwPosition);

  0009f	8b 9d f4 fb ff
	ff		 mov	 ebx, DWORD PTR _pszProtocol$GSCopy$1$[ebp]
  000a5	57		 push	 edi
  000a6	56		 push	 esi
  000a7	53		 push	 ebx
  000a8	e8 00 00 00 00	 call	 ?NCopy@i3String@@YAXPADPBDH@Z ; i3String::NCopy

; 782  : 		pszProtocol[dwPosition]=0;

  000ad	c6 04 3b 00	 mov	 BYTE PTR [ebx+edi], 0

; 783  : 		bFlag=TRUE;

  000b1	bb 01 00 00 00	 mov	 ebx, 1

; 784  : 	}

  000b6	eb 1b		 jmp	 SHORT $LN51@ParseURL
$LN9@ParseURL:

; 785  : 	else
; 786  : 	{	
; 787  : 		// is HOST 
; 788  : 		i3String::NCopy(pszProtocol, "http", 4);

  000b8	6a 04		 push	 4
  000ba	68 00 00 00 00	 push	 OFFSET ??_C@_04IAFLKNP@http@
  000bf	ff b5 f4 fb ff
	ff		 push	 DWORD PTR _pszProtocol$GSCopy$1$[ebp]
  000c5	e8 00 00 00 00	 call	 ?NCopy@i3String@@YAXPADPBDH@Z ; i3String::NCopy

; 789  : 		pszProtocol[5]=0;

  000ca	8b 85 f4 fb ff
	ff		 mov	 eax, DWORD PTR _pszProtocol$GSCopy$1$[ebp]
  000d0	88 58 05	 mov	 BYTE PTR [eax+5], bl
$LN51@ParseURL:

; 790  : 	}
; 791  : 
; 792  : 	DWORD dwStartPosition=0;	
; 793  : 	if(bFlag)	dwStartPosition=dwPosition+=3;				
; 794  : 	else		dwStartPosition=dwPosition=0;
; 795  : 
; 796  : 	bFlag=FALSE;

  000d3	83 c4 0c	 add	 esp, 12			; 0000000cH
  000d6	8d 47 03	 lea	 eax, DWORD PTR [edi+3]
  000d9	f7 db		 neg	 ebx
  000db	1b db		 sbb	 ebx, ebx
  000dd	23 d8		 and	 ebx, eax

; 797  : 	while( i3String::Length(pszURL) > 0 && dwPosition < (DWORD)i3String::Length(pszURL) && i3String::NCompare((pszURL+dwPosition), "/", 1))

  000df	56		 push	 esi
  000e0	89 9d f8 fb ff
	ff		 mov	 DWORD PTR _bFlag$1$[ebp], ebx
  000e6	8b fb		 mov	 edi, ebx
  000e8	e8 00 00 00 00	 call	 ?Length@i3String@@YAHPBD@Z ; i3String::Length
  000ed	83 c4 04	 add	 esp, 4
  000f0	85 c0		 test	 eax, eax
  000f2	7e 32		 jle	 SHORT $LN35@ParseURL
$LL4@ParseURL:
  000f4	56		 push	 esi
  000f5	e8 00 00 00 00	 call	 ?Length@i3String@@YAHPBD@Z ; i3String::Length
  000fa	83 c4 04	 add	 esp, 4
  000fd	3b f8		 cmp	 edi, eax
  000ff	73 25		 jae	 SHORT $LN35@ParseURL
  00101	6a 01		 push	 1
  00103	8d 04 3e	 lea	 eax, DWORD PTR [esi+edi]
  00106	68 00 00 00 00	 push	 OFFSET ??_C@_01KMDKNFGN@?1@
  0010b	50		 push	 eax
  0010c	e8 00 00 00 00	 call	 ?NCompare@i3String@@YAHPBD0H@Z ; i3String::NCompare
  00111	83 c4 0c	 add	 esp, 12			; 0000000cH
  00114	85 c0		 test	 eax, eax
  00116	74 0e		 je	 SHORT $LN35@ParseURL
  00118	56		 push	 esi

; 798  : 			++dwPosition;

  00119	47		 inc	 edi
  0011a	e8 00 00 00 00	 call	 ?Length@i3String@@YAHPBD@Z ; i3String::Length
  0011f	83 c4 04	 add	 esp, 4
  00122	85 c0		 test	 eax, eax
  00124	7f ce		 jg	 SHORT $LL4@ParseURL
$LN35@ParseURL:

; 799  : 
; 800  : 	DWORD dwFind = dwStartPosition;
; 801  : 
; 802  : 	for( ; dwFind <= dwPosition ; dwFind++)

  00126	3b df		 cmp	 ebx, edi
  00128	77 22		 ja	 SHORT $LN36@ParseURL
  0012a	8d 9b 00 00 00
	00		 npad	 6
$LL8@ParseURL:

; 803  : 	{
; 804  : 		if( !i3String::NCompare( (pszURL+dwFind), ":", 1))

  00130	6a 01		 push	 1
  00132	8d 04 1e	 lea	 eax, DWORD PTR [esi+ebx]
  00135	68 00 00 00 00	 push	 OFFSET ??_C@_01JLIPDDHJ@?3@
  0013a	50		 push	 eax
  0013b	e8 00 00 00 00	 call	 ?NCompare@i3String@@YAHPBD0H@Z ; i3String::NCompare
  00140	83 c4 0c	 add	 esp, 12			; 0000000cH
  00143	85 c0		 test	 eax, eax
  00145	74 6e		 je	 SHORT $LN24@ParseURL

; 799  : 
; 800  : 	DWORD dwFind = dwStartPosition;
; 801  : 
; 802  : 	for( ; dwFind <= dwPosition ; dwFind++)

  00147	43		 inc	 ebx
  00148	3b df		 cmp	 ebx, edi
  0014a	76 e4		 jbe	 SHORT $LL8@ParseURL
$LN36@ParseURL:

; 808  : 			break;
; 809  : 		}
; 810  : 	}
; 811  : 
; 812  : 	if( bFlag)

  0014c	33 c0		 xor	 eax, eax
$LN7@ParseURL:
  0014e	85 c0		 test	 eax, eax
  00150	74 6a		 je	 SHORT $LN14@ParseURL

; 813  : 	{
; 814  : 		char sztmp[_TEXT_BUFFER_SIZE] = "";

  00152	68 ff 03 00 00	 push	 1023			; 000003ffH
  00157	8d 85 fd fb ff
	ff		 lea	 eax, DWORD PTR _sztmp$1[ebp+1]
  0015d	c6 85 fc fb ff
	ff 00		 mov	 BYTE PTR _sztmp$1[ebp], 0
  00164	6a 00		 push	 0
  00166	50		 push	 eax
  00167	e8 00 00 00 00	 call	 _memset

; 815  : 		i3String::NCopy( sztmp, (pszURL+dwFind+1), ((dwPosition-1) - dwFind));

  0016c	8b c7		 mov	 eax, edi
  0016e	2b c3		 sub	 eax, ebx
  00170	48		 dec	 eax
  00171	50		 push	 eax
  00172	8d 46 01	 lea	 eax, DWORD PTR [esi+1]
  00175	03 c3		 add	 eax, ebx
  00177	50		 push	 eax
  00178	8d 85 fc fb ff
	ff		 lea	 eax, DWORD PTR _sztmp$1[ebp]
  0017e	50		 push	 eax
  0017f	e8 00 00 00 00	 call	 ?NCopy@i3String@@YAXPADPBDH@Z ; i3String::NCopy

; 816  : 		nPort = (UINT16)i3String::ToInt(sztmp);

  00184	8d 85 fc fb ff
	ff		 lea	 eax, DWORD PTR _sztmp$1[ebp]
  0018a	50		 push	 eax
  0018b	e8 00 00 00 00	 call	 ?ToInt@i3String@@YAHPBD@Z ; i3String::ToInt
  00190	8b 8d f0 fb ff
	ff		 mov	 ecx, DWORD PTR _nPort$GSCopy$1$[ebp]
  00196	66 89 01	 mov	 WORD PTR [ecx], ax

; 817  : 		i3String::NCopy(pszAddress, (pszURL+dwStartPosition), dwFind-dwStartPosition);

  00199	8b 85 f8 fb ff
	ff		 mov	 eax, DWORD PTR _bFlag$1$[ebp]
  0019f	2b d8		 sub	 ebx, eax
  001a1	53		 push	 ebx
  001a2	03 c6		 add	 eax, esi
  001a4	50		 push	 eax
  001a5	ff b5 ec fb ff
	ff		 push	 DWORD PTR _pszAddress$GSCopy$1$[ebp]
  001ab	e8 00 00 00 00	 call	 ?NCopy@i3String@@YAXPADPBDH@Z ; i3String::NCopy
  001b0	83 c4 28	 add	 esp, 40			; 00000028H

; 818  : 	}

  001b3	eb 72		 jmp	 SHORT $LN17@ParseURL
$LN24@ParseURL:

; 805  : 		{ 
; 806  : 			// find PORT
; 807  : 			bFlag=TRUE;

  001b5	b8 01 00 00 00	 mov	 eax, 1
  001ba	eb 92		 jmp	 SHORT $LN7@ParseURL
$LN14@ParseURL:

; 819  : 	else if( !i3String::Compare(pszProtocol,"https"))

  001bc	8b 85 f8 fb ff
	ff		 mov	 eax, DWORD PTR _bFlag$1$[ebp]
  001c2	8b df		 mov	 ebx, edi
  001c4	2b d8		 sub	 ebx, eax
  001c6	03 c6		 add	 eax, esi
  001c8	68 00 00 00 00	 push	 OFFSET ??_C@_05BCHGOAMK@https@
  001cd	ff b5 f4 fb ff
	ff		 push	 DWORD PTR _pszProtocol$GSCopy$1$[ebp]
  001d3	89 85 f8 fb ff
	ff		 mov	 DWORD PTR tv311[ebp], eax
  001d9	e8 00 00 00 00	 call	 ?Compare@i3String@@YAHPBD0@Z ; i3String::Compare
  001de	8b 8d f0 fb ff
	ff		 mov	 ecx, DWORD PTR _nPort$GSCopy$1$[ebp]
  001e4	83 c4 08	 add	 esp, 8
  001e7	53		 push	 ebx
  001e8	ff b5 f8 fb ff
	ff		 push	 DWORD PTR tv311[ebp]
  001ee	ff b5 ec fb ff
	ff		 push	 DWORD PTR _pszAddress$GSCopy$1$[ebp]
  001f4	85 c0		 test	 eax, eax
  001f6	75 1f		 jne	 SHORT $LN16@ParseURL

; 820  : 	{
; 821  : 		nPort = INTERNET_DEFAULT_HTTPS_PORT;

  001f8	b8 bb 01 00 00	 mov	 eax, 443		; 000001bbH
  001fd	66 89 01	 mov	 WORD PTR [ecx], ax

; 822  : 		i3String::NCopy( pszAddress, (pszURL+dwStartPosition), dwPosition-dwStartPosition);

  00200	e8 00 00 00 00	 call	 ?NCopy@i3String@@YAXPADPBDH@Z ; i3String::NCopy

; 823  : 		
; 824  : 		// HTTPSÇÁ·ÎĹäÄÝŔĚ¶ó¸é, ÇĂ·ˇ±×¸¦ Ăß°ˇÇŐ´Ď´Ů.
; 825  : 		m_OpenRequestFlag |= INTERNET_FLAG_SECURE;

  00205	8b 85 e4 fb ff
	ff		 mov	 eax, DWORD PTR _this$GSCopy$1$[ebp]
  0020b	83 c4 0c	 add	 esp, 12			; 0000000cH
  0020e	81 48 20 00 00
	80 00		 or	 DWORD PTR [eax+32], 8388608 ; 00800000H

; 826  : 	}

  00215	eb 10		 jmp	 SHORT $LN17@ParseURL
$LN16@ParseURL:

; 827  : 	else 
; 828  : 	{
; 829  : 		nPort = INTERNET_DEFAULT_HTTP_PORT;

  00217	b8 50 00 00 00	 mov	 eax, 80			; 00000050H
  0021c	66 89 01	 mov	 WORD PTR [ecx], ax

; 830  : 		i3String::NCopy( pszAddress, (pszURL+dwStartPosition), dwPosition-dwStartPosition);

  0021f	e8 00 00 00 00	 call	 ?NCopy@i3String@@YAXPADPBDH@Z ; i3String::NCopy
  00224	83 c4 0c	 add	 esp, 12			; 0000000cH
$LN17@ParseURL:

; 831  : 	}
; 832  : 
; 833  : 	if( dwPosition < (DWORD)i3String::Length(pszURL))

  00227	56		 push	 esi
  00228	e8 00 00 00 00	 call	 ?Length@i3String@@YAHPBD@Z ; i3String::Length
  0022d	83 c4 04	 add	 esp, 4
  00230	3b f8		 cmp	 edi, eax
  00232	73 2f		 jae	 SHORT $LN18@ParseURL

; 834  : 	{
; 835  : 		// find URI
; 836  : 		i3String::NCopy( pszURI, (pszURL+dwPosition), i3String::Length(pszURL)-dwPosition);

  00234	56		 push	 esi
  00235	e8 00 00 00 00	 call	 ?Length@i3String@@YAHPBD@Z ; i3String::Length
  0023a	2b c7		 sub	 eax, edi
  0023c	50		 push	 eax
  0023d	8d 04 3e	 lea	 eax, DWORD PTR [esi+edi]
  00240	50		 push	 eax
  00241	8b 85 e8 fb ff
	ff		 mov	 eax, DWORD PTR _pszURI$GSCopy$1$[ebp]
  00247	50		 push	 eax
  00248	e8 00 00 00 00	 call	 ?NCopy@i3String@@YAXPADPBDH@Z ; i3String::NCopy
  0024d	83 c4 10	 add	 esp, 16			; 00000010H
  00250	5f		 pop	 edi

; 841  : 	}
; 842  : 
; 843  : 	return;
; 844  : }

  00251	5e		 pop	 esi
  00252	5b		 pop	 ebx
  00253	8b 4d fc	 mov	 ecx, DWORD PTR __$ArrayPad$[ebp]
  00256	33 cd		 xor	 ecx, ebp
  00258	e8 00 00 00 00	 call	 @__security_check_cookie@4
  0025d	8b e5		 mov	 esp, ebp
  0025f	5d		 pop	 ebp
  00260	c2 14 00	 ret	 20			; 00000014H
$LN18@ParseURL:

; 837  : 	}
; 838  : 	else
; 839  : 	{
; 840  : 		pszURI[0]=0;

  00263	8b 85 e8 fb ff
	ff		 mov	 eax, DWORD PTR _pszURI$GSCopy$1$[ebp]

; 841  : 	}
; 842  : 
; 843  : 	return;
; 844  : }

  00269	8b 4d fc	 mov	 ecx, DWORD PTR __$ArrayPad$[ebp]
  0026c	5f		 pop	 edi
  0026d	5e		 pop	 esi
  0026e	33 cd		 xor	 ecx, ebp
  00270	c6 00 00	 mov	 BYTE PTR [eax], 0
  00273	5b		 pop	 ebx
  00274	e8 00 00 00 00	 call	 @__security_check_cookie@4
  00279	8b e5		 mov	 esp, ebp
  0027b	5d		 pop	 ebp
  0027c	c2 14 00	 ret	 20			; 00000014H
?ParseURL@i3NetworkHTTP@@QAEXPAD00AAG0@Z ENDP		; i3NetworkHTTP::ParseURL
_TEXT	ENDS
; Function compile flags: /Ogtp
; File E:\Proyectos\JuegosOnlineproyectos\PB\pbblow\Piercing Blow Remake\i3Server\include\i3Base\i3NetworkHTTP.h
;	COMDAT ?GetRequestResult@i3NetworkHTTP@@QAEPADXZ
_TEXT	SEGMENT
?GetRequestResult@i3NetworkHTTP@@QAEPADXZ PROC		; i3NetworkHTTP::GetRequestResult, COMDAT
; _this$ = ecx

; 173  : 	char*	GetRequestResult(void)			{	return m_pReadBuf;	}

  00000	8b 81 58 a4 01
	00		 mov	 eax, DWORD PTR [ecx+107608]
  00006	c3		 ret	 0
?GetRequestResult@i3NetworkHTTP@@QAEPADXZ ENDP		; i3NetworkHTTP::GetRequestResult
_TEXT	ENDS
; Function compile flags: /Ogtp
; File E:\Proyectos\JuegosOnlineproyectos\PB\pbblow\Piercing Blow Remake\i3Server\src\i3Base\i3NetworkHTTP.cpp
;	COMDAT ?SendRequestGet@i3NetworkHTTP@@QAEHPAD@Z
_TEXT	SEGMENT
_strTemp$ = 8						; size = 4
?SendRequestGet@i3NetworkHTTP@@QAEHPAD@Z PROC		; i3NetworkHTTP::SendRequestGet, COMDAT
; _this$ = ecx

; 688  : {

  00000	55		 push	 ebp
  00001	8b ec		 mov	 ebp, esp
  00003	56		 push	 esi
  00004	8b f1		 mov	 esi, ecx
  00006	57		 push	 edi

; 689  : 	if( m_hHttp )

  00007	8b 3d 00 00 00
	00		 mov	 edi, DWORD PTR __imp__InternetCloseHandle@4
  0000d	8b 46 14	 mov	 eax, DWORD PTR [esi+20]
  00010	85 c0		 test	 eax, eax
  00012	74 0a		 je	 SHORT $LN2@SendReques

; 690  : 	{
; 691  : 		::InternetCloseHandle( m_hHttp );

  00014	50		 push	 eax
  00015	ff d7		 call	 edi

; 692  : 		m_hHttp = NULL;

  00017	c7 46 14 00 00
	00 00		 mov	 DWORD PTR [esi+20], 0
$LN2@SendReques:

; 693  : 	}
; 694  : 
; 695  : 	// Open URL
; 696  : 	m_hHttp = ::InternetOpenUrl( m_hInternet, strTemp, NULL, 0, INTERNET_FLAG_RELOAD | INTERNET_FLAG_NO_COOKIES | INTERNET_FLAG_NO_CACHE_WRITE , 0 );

  0001e	6a 00		 push	 0
  00020	68 00 00 08 84	 push	 -2079850496		; 84080000H
  00025	6a 00		 push	 0
  00027	6a 00		 push	 0
  00029	ff 75 08	 push	 DWORD PTR _strTemp$[ebp]
  0002c	ff 76 10	 push	 DWORD PTR [esi+16]
  0002f	ff 15 00 00 00
	00		 call	 DWORD PTR __imp__InternetOpenUrlA@24
  00035	89 46 14	 mov	 DWORD PTR [esi+20], eax

; 697  : 	if( NULL == m_hHttp )

  00038	85 c0		 test	 eax, eax
  0003a	75 4f		 jne	 SHORT $LN3@SendReques

; 698  : 	{
; 699  : 		// Error
; 700  : 		i3String::Copy( m_szLastError, "Cannot connect to internet", 1024);

  0003c	68 00 04 00 00	 push	 1024			; 00000400H
  00041	8d 86 98 a6 01
	00		 lea	 eax, DWORD PTR [esi+108184]
  00047	68 00 00 00 00	 push	 OFFSET ??_C@_0BL@EIHAOHFH@Cannot?5connect?5to?5internet@
  0004c	50		 push	 eax
  0004d	e8 00 00 00 00	 call	 ?Copy@i3String@@YAXPADPBDH@Z ; i3String::Copy
  00052	83 c4 0c	 add	 esp, 12			; 0000000cH

; 701  : 		m_nLastErrorCode = ::GetLastError();

  00055	ff 15 00 00 00
	00		 call	 DWORD PTR __imp__GetLastError@0
  0005b	89 86 98 aa 01
	00		 mov	 DWORD PTR [esi+109208], eax

; 270  : 	if( m_hHttp )

  00061	8b 46 14	 mov	 eax, DWORD PTR [esi+20]
  00064	85 c0		 test	 eax, eax
  00066	74 0a		 je	 SHORT $LN6@SendReques

; 271  : 	{
; 272  : 		::InternetCloseHandle( m_hHttp );

  00068	50		 push	 eax
  00069	ff d7		 call	 edi

; 273  : 		m_hHttp = NULL;

  0006b	c7 46 14 00 00
	00 00		 mov	 DWORD PTR [esi+20], 0
$LN6@SendReques:

; 274  : 	}
; 275  : 
; 276  : 	if( m_hInternet )

  00072	8b 46 10	 mov	 eax, DWORD PTR [esi+16]
  00075	85 c0		 test	 eax, eax
  00077	74 0a		 je	 SHORT $LN7@SendReques

; 277  : 	{
; 278  : 		::InternetCloseHandle( m_hInternet );

  00079	50		 push	 eax
  0007a	ff d7		 call	 edi

; 279  : 		m_hInternet = NULL;

  0007c	c7 46 10 00 00
	00 00		 mov	 DWORD PTR [esi+16], 0
$LN7@SendReques:
  00083	5f		 pop	 edi

; 702  : 		_DisConnectGET();
; 703  : 		return FALSE;

  00084	33 c0		 xor	 eax, eax

; 741  : }

  00086	5e		 pop	 esi
  00087	5d		 pop	 ebp
  00088	c2 04 00	 ret	 4
$LN3@SendReques:
  0008b	5f		 pop	 edi

; 704  : 	}
; 705  : 	//// Get File Size
; 706  : 	//{
; 707  : 	//	char pBuff[ 32 ];
; 708  : 	//	UINT32 nSize = sizeof( pBuff );
; 709  : 	//	char	pTypeBuf[ 32 ];
; 710  : 	//	UINT32	nTypeSize = sizeof( pTypeBuf );
; 711  : 	//	
; 712  : 	//	if( !::HttpQueryInfo( m_hHttp, HTTP_QUERY_CONTENT_LENGTH, pBuff, (LPDWORD)&nSize, NULL ) )
; 713  : 	//	{
; 714  : 	//		//
; 715  : 	//		_DisConnectGET();
; 716  : 	//		return FALSE;
; 717  : 	//	}
; 718  : 
; 719  : 	//	if( !::HttpQueryInfo( m_hHttp, HTTP_QUERY_CONTENT_TYPE, pTypeBuf, (LPDWORD) &nTypeSize, NULL ) )
; 720  : 	//	{
; 721  : 	//		_DisConnectGET();
; 722  : 	//		return FALSE;
; 723  : 	//	}
; 724  : 
; 725  : 	//	// ĆÄŔĎ Ĺ¸ŔÔ ĆÄ˝Ě( html ĆÄŔĎŔÎ °ćżě żˇ·Ż¸¦ ¸®ĹĎÇŐ´Ď´Ů. )
; 726  : 	//	//if( !_CheckType( pTypeBuf ) )
; 727  : 	//	//{
; 728  : 	//	//	_DisConnectGET();
; 729  : 	//	//	return FALSE;
; 730  : 	//	//}
; 731  : 
; 732  : 	//	m_nSize = (UINT32) i3String::ToInt( pBuff );
; 733  : 	//	if( m_nSize == 0 )
; 734  : 	//	{
; 735  : 	//		_DisConnectGET();
; 736  : 	//		return FALSE;
; 737  : 	//	}
; 738  : 	//}
; 739  : 
; 740  : 	return TRUE;

  0008c	b8 01 00 00 00	 mov	 eax, 1

; 741  : }

  00091	5e		 pop	 esi
  00092	5d		 pop	 ebp
  00093	c2 04 00	 ret	 4
?SendRequestGet@i3NetworkHTTP@@QAEHPAD@Z ENDP		; i3NetworkHTTP::SendRequestGet
_TEXT	ENDS
; Function compile flags: /Ogtp
; File E:\Proyectos\JuegosOnlineproyectos\PB\pbblow\Piercing Blow Remake\i3Server\src\i3Base\i3NetworkHTTP.cpp
;	COMDAT ?SendRequestPost@i3NetworkHTTP@@QAEHXZ
_TEXT	SEGMENT
_accept$ = -28						; size = 8
_this$ = -20						; size = 4
__$EHRec$ = -16						; size = 16
?SendRequestPost@i3NetworkHTTP@@QAEHXZ PROC		; i3NetworkHTTP::SendRequestPost, COMDAT
; _this$ = ecx

; 630  : {

  00000	55		 push	 ebp
  00001	8b ec		 mov	 ebp, esp
  00003	6a ff		 push	 -1
  00005	68 00 00 00 00	 push	 __ehhandler$?SendRequestPost@i3NetworkHTTP@@QAEHXZ
  0000a	64 a1 00 00 00
	00		 mov	 eax, DWORD PTR fs:0
  00010	50		 push	 eax
  00011	83 ec 10	 sub	 esp, 16			; 00000010H
  00014	53		 push	 ebx
  00015	56		 push	 esi
  00016	57		 push	 edi
  00017	a1 00 00 00 00	 mov	 eax, DWORD PTR ___security_cookie
  0001c	33 c5		 xor	 eax, ebp
  0001e	50		 push	 eax
  0001f	8d 45 f4	 lea	 eax, DWORD PTR __$EHRec$[ebp+4]
  00022	64 a3 00 00 00
	00		 mov	 DWORD PTR fs:0, eax
  00028	89 65 f0	 mov	 DWORD PTR __$EHRec$[ebp], esp
  0002b	8b f1		 mov	 esi, ecx
  0002d	89 75 ec	 mov	 DWORD PTR _this$[ebp], esi

; 631  : 	if( m_hHttp )

  00030	8b 46 14	 mov	 eax, DWORD PTR [esi+20]
  00033	85 c0		 test	 eax, eax
  00035	74 0e		 je	 SHORT $LN2@SendReques

; 632  : 	{
; 633  : 		::InternetCloseHandle( m_hHttp );

  00037	50		 push	 eax
  00038	ff 15 00 00 00
	00		 call	 DWORD PTR __imp__InternetCloseHandle@4

; 634  : 		m_hHttp = NULL;

  0003e	c7 46 14 00 00
	00 00		 mov	 DWORD PTR [esi+20], 0
$LN2@SendReques:

; 635  : 	}
; 636  : 
; 637  : 	// Creates an HTTP request handle.
; 638  : 	wchar_t* accept[2]={L"*/*",0}; 
; 639  : 	m_hHttp = HttpOpenRequest(m_hConnection, _HTTP_VERB_POST, m_szURI, NULL, "", (const char**) accept, m_OpenRequestFlag, 0 );

  00045	6a 00		 push	 0
  00047	ff 76 20	 push	 DWORD PTR [esi+32]
  0004a	8d 45 e4	 lea	 eax, DWORD PTR _accept$[ebp]
  0004d	c7 45 e4 00 00
	00 00		 mov	 DWORD PTR _accept$[ebp], OFFSET ??_C@_17MLBOKGLB@?$AA?$CK?$AA?1?$AA?$CK@
  00054	50		 push	 eax
  00055	68 00 00 00 00	 push	 OFFSET ??_C@_00CNPNBAHC@@
  0005a	6a 00		 push	 0
  0005c	8d 86 32 0b 00
	00		 lea	 eax, DWORD PTR [esi+2866]
  00062	c7 45 e8 00 00
	00 00		 mov	 DWORD PTR _accept$[ebp+4], 0
  00069	50		 push	 eax
  0006a	68 00 00 00 00	 push	 OFFSET ??_C@_04HCJEIHPL@POST@
  0006f	ff 76 18	 push	 DWORD PTR [esi+24]
  00072	ff 15 00 00 00
	00		 call	 DWORD PTR __imp__HttpOpenRequestA@32
  00078	89 46 14	 mov	 DWORD PTR [esi+20], eax

; 640  : 	if( FALSE == m_hHttp )

  0007b	85 c0		 test	 eax, eax
  0007d	75 20		 jne	 SHORT $LN3@SendReques

; 641  : 	{
; 642  : 		m_nLastErrorCode=::GetLastError();

  0007f	ff 15 00 00 00
	00		 call	 DWORD PTR __imp__GetLastError@0
$LN17@SendReques:

; 684  : 	}
; 685  : }

  00085	89 86 98 aa 01
	00		 mov	 DWORD PTR [esi+109208], eax
$LN14@SendReques:
  0008b	33 c0		 xor	 eax, eax
  0008d	8b 4d f4	 mov	 ecx, DWORD PTR __$EHRec$[ebp+4]
  00090	64 89 0d 00 00
	00 00		 mov	 DWORD PTR fs:0, ecx
  00097	59		 pop	 ecx
  00098	5f		 pop	 edi
  00099	5e		 pop	 esi
  0009a	5b		 pop	 ebx
  0009b	8b e5		 mov	 esp, ebp
  0009d	5d		 pop	 ebp
  0009e	c3		 ret	 0
$LN3@SendReques:

; 643  : 		return FALSE;
; 644  : 	}
; 645  : 
; 646  : 	try
; 647  : 	{	
; 648  : 		INT32 result =  HttpSendRequest(m_hHttp,

  0009f	8d be 32 0f 00
	00		 lea	 edi, DWORD PTR [esi+3890]
  000a5	c7 45 fc 00 00
	00 00		 mov	 DWORD PTR __$EHRec$[ebp+12], 0
  000ac	57		 push	 edi
  000ad	e8 00 00 00 00	 call	 ?Length@i3String@@YAHPBD@Z ; i3String::Length
  000b2	83 c4 04	 add	 esp, 4
  000b5	50		 push	 eax
  000b6	57		 push	 edi
  000b7	6a 31		 push	 49			; 00000031H
  000b9	68 00 00 00 00	 push	 OFFSET ??_C@_0DC@DMFLICKC@Content?9Type?3?5application?1x?9www@
  000be	ff 76 14	 push	 DWORD PTR [esi+20]
  000c1	ff 15 00 00 00
	00		 call	 DWORD PTR __imp__HttpSendRequestA@20

; 649  : 										DEFAULT_HTTP_HEADER,
; 650  : 										(DWORD)strlen(DEFAULT_HTTP_HEADER),
; 651  : 										(LPVOID)m_szPostArguments,
; 652  : 										(DWORD)i3String::Length(m_szPostArguments));
; 653  : 		if (result) 	

  000c7	85 c0		 test	 eax, eax
  000c9	74 17		 je	 SHORT $LN5@SendReques

; 654  : 		{
; 655  : 			return TRUE;

  000cb	b8 01 00 00 00	 mov	 eax, 1

; 684  : 	}
; 685  : }
