; Listing generated by Microsoft (R) Optimizing Compiler Version 19.50.35727.0 

	TITLE	E:\Proyectos\JuegosOnlineproyectos\PB\pbblow\Piercing Blow Remake\i3Server\Project\I3_DX\i3Server\x86\Release\i3NetworkHTTP.obj
	.686P
	.XMM
	include listing.inc
	.model	flat

INCLUDELIB LIBCMT
INCLUDELIB OLDNAMES

PUBLIC	?s_pClassMetai3NetworkHTTP@i3NetworkHTTP@@2PAVi3ClassMeta@@A ; i3NetworkHTTP::s_pClassMetai3NetworkHTTP
PUBLIC	?CreateInstance@?$i3MetaTemplate@Vi3NetworkHTTP@@@@UAEPAVi3ElementBase@@W4I3_CLASSMETA_TYPE@@@Z ; i3MetaTemplate<i3NetworkHTTP>::CreateInstance
PUBLIC	?BindInstance@?$i3MetaTemplate@Vi3NetworkHTTP@@@@UAEPAVi3ElementBase@@PAXW4I3_CLASSMETA_TYPE@@@Z ; i3MetaTemplate<i3NetworkHTTP>::BindInstance
PUBLIC	??_7?$i3MetaTemplate@Vi3NetworkHTTP@@@@6B@	; i3MetaTemplate<i3NetworkHTTP>::`vftable'
PUBLIC	??_G?$i3MetaTemplate@Vi3NetworkHTTP@@@@UAEPAXI@Z ; i3MetaTemplate<i3NetworkHTTP>::`scalar deleting destructor'
PUBLIC	??_C@_0O@OCDFBOHM@i3ElementBase@		; `string'
PUBLIC	??_C@_0O@MICAHOBD@i3NetworkHTTP@		; `string'
PUBLIC	??_R0?AVi3ClassMeta@@@8				; i3ClassMeta `RTTI Type Descriptor'
PUBLIC	??_R3i3ClassMeta@@8				; i3ClassMeta::`RTTI Class Hierarchy Descriptor'
PUBLIC	??_R2i3ClassMeta@@8				; i3ClassMeta::`RTTI Base Class Array'
PUBLIC	??_R1A@?0A@EA@i3ClassMeta@@8			; i3ClassMeta::`RTTI Base Class Descriptor at (0,-1,0,64)'
PUBLIC	??_R4?$i3MetaTemplate@Vi3NetworkHTTP@@@@6B@	; i3MetaTemplate<i3NetworkHTTP>::`RTTI Complete Object Locator'
PUBLIC	??_R0?AV?$i3MetaTemplate@Vi3NetworkHTTP@@@@@8	; i3MetaTemplate<i3NetworkHTTP> `RTTI Type Descriptor'
PUBLIC	??_R3?$i3MetaTemplate@Vi3NetworkHTTP@@@@8	; i3MetaTemplate<i3NetworkHTTP>::`RTTI Class Hierarchy Descriptor'
PUBLIC	??_R2?$i3MetaTemplate@Vi3NetworkHTTP@@@@8	; i3MetaTemplate<i3NetworkHTTP>::`RTTI Base Class Array'
PUBLIC	??_R1A@?0A@EA@?$i3MetaTemplate@Vi3NetworkHTTP@@@@8 ; i3MetaTemplate<i3NetworkHTTP>::`RTTI Base Class Descriptor at (0,-1,0,64)'
PUBLIC	__Avx2WmemEnabledWeakValue
EXTRN	??_7type_info@@6B@:QWORD			; type_info::`vftable'
EXTRN	??_E?$i3MetaTemplate@Vi3NetworkHTTP@@@@UAEPAXI@Z:PROC ; i3MetaTemplate<i3NetworkHTTP>::`vector deleting destructor'
;	COMDAT __Avx2WmemEnabledWeakValue
_BSS	SEGMENT
__Avx2WmemEnabledWeakValue DD 01H DUP (?)
_BSS	ENDS
;	COMDAT ??_R1A@?0A@EA@?$i3MetaTemplate@Vi3NetworkHTTP@@@@8
rdata$r	SEGMENT
??_R1A@?0A@EA@?$i3MetaTemplate@Vi3NetworkHTTP@@@@8 DD FLAT:??_R0?AV?$i3MetaTemplate@Vi3NetworkHTTP@@@@@8 ; i3MetaTemplate<i3NetworkHTTP>::`RTTI Base Class Descriptor at (0,-1,0,64)'
	DD	01H
	DD	00H
	DD	0ffffffffH
	DD	00H
	DD	040H
	DD	FLAT:??_R3?$i3MetaTemplate@Vi3NetworkHTTP@@@@8
rdata$r	ENDS
;	COMDAT ??_R2?$i3MetaTemplate@Vi3NetworkHTTP@@@@8
rdata$r	SEGMENT
??_R2?$i3MetaTemplate@Vi3NetworkHTTP@@@@8 DD FLAT:??_R1A@?0A@EA@?$i3MetaTemplate@Vi3NetworkHTTP@@@@8 ; i3MetaTemplate<i3NetworkHTTP>::`RTTI Base Class Array'
	DD	FLAT:??_R1A@?0A@EA@i3ClassMeta@@8
rdata$r	ENDS
;	COMDAT ??_R3?$i3MetaTemplate@Vi3NetworkHTTP@@@@8
rdata$r	SEGMENT
??_R3?$i3MetaTemplate@Vi3NetworkHTTP@@@@8 DD 00H	; i3MetaTemplate<i3NetworkHTTP>::`RTTI Class Hierarchy Descriptor'
	DD	00H
	DD	02H
	DD	FLAT:??_R2?$i3MetaTemplate@Vi3NetworkHTTP@@@@8
rdata$r	ENDS
;	COMDAT ??_R0?AV?$i3MetaTemplate@Vi3NetworkHTTP@@@@@8
data$rs	SEGMENT
??_R0?AV?$i3MetaTemplate@Vi3NetworkHTTP@@@@@8 DD FLAT:??_7type_info@@6B@ ; i3MetaTemplate<i3NetworkHTTP> `RTTI Type Descriptor'
	DD	00H
	DB	'.?AV?$i3MetaTemplate@Vi3NetworkHTTP@@@@', 00H
data$rs	ENDS
;	COMDAT ??_R4?$i3MetaTemplate@Vi3NetworkHTTP@@@@6B@
rdata$r	SEGMENT
??_R4?$i3MetaTemplate@Vi3NetworkHTTP@@@@6B@ DD 00H	; i3MetaTemplate<i3NetworkHTTP>::`RTTI Complete Object Locator'
	DD	00H
	DD	00H
	DD	FLAT:??_R0?AV?$i3MetaTemplate@Vi3NetworkHTTP@@@@@8
	DD	FLAT:??_R3?$i3MetaTemplate@Vi3NetworkHTTP@@@@8
rdata$r	ENDS
;	COMDAT ??_R1A@?0A@EA@i3ClassMeta@@8
rdata$r	SEGMENT
??_R1A@?0A@EA@i3ClassMeta@@8 DD FLAT:??_R0?AVi3ClassMeta@@@8 ; i3ClassMeta::`RTTI Base Class Descriptor at (0,-1,0,64)'
	DD	00H
	DD	00H
	DD	0ffffffffH
	DD	00H
	DD	040H
	DD	FLAT:??_R3i3ClassMeta@@8
rdata$r	ENDS
;	COMDAT ??_R2i3ClassMeta@@8
rdata$r	SEGMENT
??_R2i3ClassMeta@@8 DD FLAT:??_R1A@?0A@EA@i3ClassMeta@@8 ; i3ClassMeta::`RTTI Base Class Array'
rdata$r	ENDS
;	COMDAT ??_R3i3ClassMeta@@8
rdata$r	SEGMENT
??_R3i3ClassMeta@@8 DD 00H				; i3ClassMeta::`RTTI Class Hierarchy Descriptor'
	DD	00H
	DD	01H
	DD	FLAT:??_R2i3ClassMeta@@8
rdata$r	ENDS
;	COMDAT ??_R0?AVi3ClassMeta@@@8
data$rs	SEGMENT
??_R0?AVi3ClassMeta@@@8 DD FLAT:??_7type_info@@6B@	; i3ClassMeta `RTTI Type Descriptor'
	DD	00H
	DB	'.?AVi3ClassMeta@@', 00H
data$rs	ENDS
;	COMDAT ??_C@_0O@MICAHOBD@i3NetworkHTTP@
CONST	SEGMENT
??_C@_0O@MICAHOBD@i3NetworkHTTP@ DB 'i3NetworkHTTP', 00H ; `string'
CONST	ENDS
;	COMDAT ??_C@_0O@OCDFBOHM@i3ElementBase@
CONST	SEGMENT
??_C@_0O@OCDFBOHM@i3ElementBase@ DB 'i3ElementBase', 00H ; `string'
CONST	ENDS
;	COMDAT ??_7?$i3MetaTemplate@Vi3NetworkHTTP@@@@6B@
CONST	SEGMENT
??_7?$i3MetaTemplate@Vi3NetworkHTTP@@@@6B@ DD FLAT:??_R4?$i3MetaTemplate@Vi3NetworkHTTP@@@@6B@ ; i3MetaTemplate<i3NetworkHTTP>::`vftable'
	DD	FLAT:??_E?$i3MetaTemplate@Vi3NetworkHTTP@@@@UAEPAXI@Z
	DD	FLAT:?CreateInstance@?$i3MetaTemplate@Vi3NetworkHTTP@@@@UAEPAVi3ElementBase@@W4I3_CLASSMETA_TYPE@@@Z
	DD	FLAT:?BindInstance@?$i3MetaTemplate@Vi3NetworkHTTP@@@@UAEPAVi3ElementBase@@PAXW4I3_CLASSMETA_TYPE@@@Z
CONST	ENDS
_DATA	SEGMENT
?s_pClassMetai3NetworkHTTP@i3NetworkHTTP@@2PAVi3ClassMeta@@A DD FLAT:?s_ClassMetai3NetworkHTTP@@3V?$i3MetaTemplate@Vi3NetworkHTTP@@@@A ; i3NetworkHTTP::s_pClassMetai3NetworkHTTP
_DATA	ENDS
PUBLIC	?__empty_global_delete@@YAXPAX@Z		; __empty_global_delete
PUBLIC	?__global_delete@@YAXPAX@Z			; __global_delete
PUBLIC	?__empty_global_delete@@YAXPAXI@Z		; __empty_global_delete
PUBLIC	?__global_delete@@YAXPAXI@Z			; __global_delete
PUBLIC	?__global_array_delete@@YAXPAX@Z		; __global_array_delete
PUBLIC	?__global_array_delete@@YAXPAXI@Z		; __global_array_delete
PUBLIC	??0UINT128@@QAE@XZ				; UINT128::UINT128
PUBLIC	?GetMemoryPool@i3ClassMeta@@QAEPAVi3MemoryPool@@XZ ; i3ClassMeta::GetMemoryPool
PUBLIC	?SetMemoryPool@i3ClassMeta@@QAEXPAVi3MemoryPool@@@Z ; i3ClassMeta::SetMemoryPool
PUBLIC	?GetClassSize@i3ClassMeta@@QAEIXZ		; i3ClassMeta::GetClassSize
PUBLIC	?GetClassNameA@i3ClassMeta@@QAEPADXZ		; i3ClassMeta::GetClassNameA
PUBLIC	?IsExactTypeOf@i3ClassMeta@@QAE_NPAV1@@Z	; i3ClassMeta::IsExactTypeOf
PUBLIC	?SetStyle@i3ClassMeta@@QAEXI@Z			; i3ClassMeta::SetStyle
PUBLIC	?GetStyle@i3ClassMeta@@QAEIXZ			; i3ClassMeta::GetStyle
PUBLIC	?AddStyle@i3ClassMeta@@QAEXI@Z			; i3ClassMeta::AddStyle
PUBLIC	?RemoveStyle@i3ClassMeta@@QAEXI@Z		; i3ClassMeta::RemoveStyle
PUBLIC	?IsStyle@i3ClassMeta@@QAEHI@Z			; i3ClassMeta::IsStyle
PUBLIC	?IsAbstractClass@i3ClassMeta@@QAEHXZ		; i3ClassMeta::IsAbstractClass
PUBLIC	?IsConcreteClass@i3ClassMeta@@QAEHXZ		; i3ClassMeta::IsConcreteClass
PUBLIC	?GetBaseClassMeta@i3ClassMeta@@QAEPAV1@XZ	; i3ClassMeta::GetBaseClassMeta
PUBLIC	?getHashCode@i3ClassMeta@@QAEIXZ		; i3ClassMeta::getHashCode
PUBLIC	??0i3ClassMeta@@QAE@ABV0@@Z			; i3ClassMeta::i3ClassMeta
PUBLIC	??4i3ClassMeta@@QAEAAV0@ABV0@@Z			; i3ClassMeta::operator=
PUBLIC	??_Gi3ClassMeta@@UAEPAXI@Z			; i3ClassMeta::`scalar deleting destructor'
PUBLIC	??_Ei3ClassMeta@@UAEPAXI@Z			; i3ClassMeta::`vector deleting destructor'
PUBLIC	?GetClassMeta@i3ElementBase@@SAPAVi3ClassMeta@@XZ ; i3ElementBase::GetClassMeta
PUBLIC	?GetRefCount@i3ElementBase@@QAEHXZ		; i3ElementBase::GetRefCount
PUBLIC	?__SetMemoryPool@i3ElementBase@@QAEXPAVi3MemoryPool@@@Z ; i3ElementBase::__SetMemoryPool
PUBLIC	?__GetMemoryPool@i3ElementBase@@QAEPAVi3MemoryPool@@XZ ; i3ElementBase::__GetMemoryPool
PUBLIC	?IsExactTypeOf@i3ElementBase@@QAE_NPAVi3ClassMeta@@@Z ; i3ElementBase::IsExactTypeOf
PUBLIC	?IsTypeOf@i3ElementBase@@QAE_NPAVi3ClassMeta@@@Z ; i3ElementBase::IsTypeOf
PUBLIC	?AddRef@i3ElementBase@@QAEHXZ			; i3ElementBase::AddRef
PUBLIC	?_internal_SetRefCount@i3ElementBase@@QAEXH@Z	; i3ElementBase::_internal_SetRefCount
PUBLIC	??0i3ElementBase@@QAE@ABV0@@Z			; i3ElementBase::i3ElementBase
PUBLIC	??4i3ElementBase@@QAEAAV0@ABV0@@Z		; i3ElementBase::operator=
PUBLIC	??_Gi3ElementBase@@UAEPAXI@Z			; i3ElementBase::`scalar deleting destructor'
PUBLIC	??_Ei3ElementBase@@UAEPAXI@Z			; i3ElementBase::`vector deleting destructor'
PUBLIC	??0i3MemoryPool@@QAE@ABV0@@Z			; i3MemoryPool::i3MemoryPool
PUBLIC	??4i3MemoryPool@@QAEAAV0@ABV0@@Z		; i3MemoryPool::operator=
PUBLIC	??_Gi3MemoryPool@@UAEPAXI@Z			; i3MemoryPool::`scalar deleting destructor'
PUBLIC	??_Ei3MemoryPool@@UAEPAXI@Z			; i3MemoryPool::`vector deleting destructor'
PUBLIC	?GetClassMeta@i3Stream@@SAPAVi3ClassMeta@@XZ	; i3Stream::GetClassMeta
PUBLIC	?GetSize@i3Stream@@QAEIXZ			; i3Stream::GetSize
PUBLIC	?GetLastError@i3Stream@@QAE?AW4STREAMCODE@1@XZ	; i3Stream::GetLastError
PUBLIC	?GetAccessMode@i3Stream@@QAEHXZ			; i3Stream::GetAccessMode
PUBLIC	?GetHandle@i3Stream@@UAEPAXXZ			; i3Stream::GetHandle
PUBLIC	?BeginRecord@i3Stream@@QAEXXZ			; i3Stream::BeginRecord
PUBLIC	?GetRecordSize@i3Stream@@QAEIXZ			; i3Stream::GetRecordSize
PUBLIC	??0i3Stream@@QAE@ABV0@@Z			; i3Stream::i3Stream
PUBLIC	??4i3Stream@@QAEAAV0@ABV0@@Z			; i3Stream::operator=
PUBLIC	??_Gi3Stream@@UAEPAXI@Z				; i3Stream::`scalar deleting destructor'
PUBLIC	??_Ei3Stream@@UAEPAXI@Z				; i3Stream::`vector deleting destructor'
PUBLIC	?GetClassMeta@i3FileStream@@SAPAVi3ClassMeta@@XZ ; i3FileStream::GetClassMeta
PUBLIC	?GetHandle@i3FileStream@@UAEPAXXZ		; i3FileStream::GetHandle
PUBLIC	?GetFileName@i3FileStream@@QAEPADXZ		; i3FileStream::GetFileName
PUBLIC	?SetCaseSensitive@i3FileStream@@SAXH@Z		; i3FileStream::SetCaseSensitive
PUBLIC	?IsCaseSensitive@i3FileStream@@SAHXZ		; i3FileStream::IsCaseSensitive
PUBLIC	??0i3FileStream@@QAE@ABV0@@Z			; i3FileStream::i3FileStream
PUBLIC	??4i3FileStream@@QAEAAV0@ABV0@@Z		; i3FileStream::operator=
PUBLIC	??_Gi3FileStream@@UAEPAXI@Z			; i3FileStream::`scalar deleting destructor'
PUBLIC	??_Ei3FileStream@@UAEPAXI@Z			; i3FileStream::`vector deleting destructor'
PUBLIC	??0TiXmlString@@QAE@XZ				; TiXmlString::TiXmlString
PUBLIC	??0TiXmlString@@QAE@ABV0@@Z			; TiXmlString::TiXmlString
PUBLIC	??0TiXmlString@@QAE@PBD@Z			; TiXmlString::TiXmlString
PUBLIC	??0TiXmlString@@QAE@PBDI@Z			; TiXmlString::TiXmlString
PUBLIC	??1TiXmlString@@QAE@XZ				; TiXmlString::~TiXmlString
PUBLIC	??4TiXmlString@@QAEAAV0@PBD@Z			; TiXmlString::operator=
PUBLIC	??4TiXmlString@@QAEAAV0@ABV0@@Z			; TiXmlString::operator=
PUBLIC	??YTiXmlString@@QAEAAV0@PBD@Z			; TiXmlString::operator+=
PUBLIC	??YTiXmlString@@QAEAAV0@D@Z			; TiXmlString::operator+=
PUBLIC	??YTiXmlString@@QAEAAV0@ABV0@@Z			; TiXmlString::operator+=
PUBLIC	?c_str@TiXmlString@@QBEPBDXZ			; TiXmlString::c_str
PUBLIC	?data@TiXmlString@@QBEPBDXZ			; TiXmlString::data
PUBLIC	?length@TiXmlString@@QBEIXZ			; TiXmlString::length
PUBLIC	?size@TiXmlString@@QBEIXZ			; TiXmlString::size
PUBLIC	?empty@TiXmlString@@QBE_NXZ			; TiXmlString::empty
PUBLIC	?capacity@TiXmlString@@QBEIXZ			; TiXmlString::capacity
PUBLIC	?at@TiXmlString@@QBEABDI@Z			; TiXmlString::at
PUBLIC	??ATiXmlString@@QBEAADI@Z			; TiXmlString::operator[]
PUBLIC	?find@TiXmlString@@QBEID@Z			; TiXmlString::find
PUBLIC	?find@TiXmlString@@QBEIDI@Z			; TiXmlString::find
PUBLIC	?clear@TiXmlString@@QAEXXZ			; TiXmlString::clear
PUBLIC	?swap@TiXmlString@@QAEXAAV1@@Z			; TiXmlString::swap
PUBLIC	?init@TiXmlString@@AAEXI@Z			; TiXmlString::init
PUBLIC	?set_size@TiXmlString@@AAEXI@Z			; TiXmlString::set_size
PUBLIC	?start@TiXmlString@@ABEPADXZ			; TiXmlString::start
PUBLIC	?finish@TiXmlString@@ABEPADXZ			; TiXmlString::finish
PUBLIC	?init@TiXmlString@@AAEXII@Z			; TiXmlString::init
PUBLIC	?quit@TiXmlString@@AAEXXZ			; TiXmlString::quit
PUBLIC	??0TiXmlCursor@@QAE@XZ				; TiXmlCursor::TiXmlCursor
PUBLIC	?Clear@TiXmlCursor@@QAEXXZ			; TiXmlCursor::Clear
PUBLIC	??4TiXmlCursor@@QAEAAU0@ABU0@@Z			; TiXmlCursor::operator=
PUBLIC	??4TiXmlCursor@@QAEAAU0@$$QAU0@@Z		; TiXmlCursor::operator=
PUBLIC	??1TiXmlVisitor@@UAE@XZ				; TiXmlVisitor::~TiXmlVisitor
PUBLIC	?VisitEnter@TiXmlVisitor@@UAE_NABVTiXmlDocument@@@Z ; TiXmlVisitor::VisitEnter
PUBLIC	?VisitExit@TiXmlVisitor@@UAE_NABVTiXmlDocument@@@Z ; TiXmlVisitor::VisitExit
PUBLIC	?VisitEnter@TiXmlVisitor@@UAE_NABVTiXmlElement@@PBVTiXmlAttribute@@@Z ; TiXmlVisitor::VisitEnter
PUBLIC	?VisitExit@TiXmlVisitor@@UAE_NABVTiXmlElement@@@Z ; TiXmlVisitor::VisitExit
PUBLIC	?Visit@TiXmlVisitor@@UAE_NABVTiXmlDeclaration@@@Z ; TiXmlVisitor::Visit
PUBLIC	?Visit@TiXmlVisitor@@UAE_NABVTiXmlText@@@Z	; TiXmlVisitor::Visit
PUBLIC	?Visit@TiXmlVisitor@@UAE_NABVTiXmlComment@@@Z	; TiXmlVisitor::Visit
PUBLIC	?Visit@TiXmlVisitor@@UAE_NABVTiXmlUnknown@@@Z	; TiXmlVisitor::Visit
PUBLIC	??0TiXmlVisitor@@QAE@XZ				; TiXmlVisitor::TiXmlVisitor
PUBLIC	??0TiXmlVisitor@@QAE@ABV0@@Z			; TiXmlVisitor::TiXmlVisitor
PUBLIC	??4TiXmlVisitor@@QAEAAV0@ABV0@@Z		; TiXmlVisitor::operator=
PUBLIC	??_GTiXmlVisitor@@UAEPAXI@Z			; TiXmlVisitor::`scalar deleting destructor'
PUBLIC	??_ETiXmlVisitor@@UAEPAXI@Z			; TiXmlVisitor::`vector deleting destructor'
PUBLIC	??0TiXmlBase@@QAE@XZ				; TiXmlBase::TiXmlBase
PUBLIC	??1TiXmlBase@@UAE@XZ				; TiXmlBase::~TiXmlBase
PUBLIC	?SetCondenseWhiteSpace@TiXmlBase@@SAX_N@Z	; TiXmlBase::SetCondenseWhiteSpace
PUBLIC	?IsWhiteSpaceCondensed@TiXmlBase@@SA_NXZ	; TiXmlBase::IsWhiteSpaceCondensed
PUBLIC	?Row@TiXmlBase@@QBEHXZ				; TiXmlBase::Row
PUBLIC	?Column@TiXmlBase@@QBEHXZ			; TiXmlBase::Column
PUBLIC	?SetUserData@TiXmlBase@@QAEXPAX@Z		; TiXmlBase::SetUserData
PUBLIC	?GetUserData@TiXmlBase@@QAEPAXXZ		; TiXmlBase::GetUserData
PUBLIC	?GetUserData@TiXmlBase@@QBEPBXXZ		; TiXmlBase::GetUserData
PUBLIC	?IsWhiteSpace@TiXmlBase@@KA_ND@Z		; TiXmlBase::IsWhiteSpace
PUBLIC	?IsWhiteSpace@TiXmlBase@@KA_NH@Z		; TiXmlBase::IsWhiteSpace
PUBLIC	?GetChar@TiXmlBase@@KAPBDPBDPADPAHW4TiXmlEncoding@@@Z ; TiXmlBase::GetChar
PUBLIC	?ToLower@TiXmlBase@@KAHHW4TiXmlEncoding@@@Z	; TiXmlBase::ToLower
PUBLIC	??_GTiXmlBase@@UAEPAXI@Z			; TiXmlBase::`scalar deleting destructor'
PUBLIC	??_ETiXmlBase@@UAEPAXI@Z			; TiXmlBase::`vector deleting destructor'
PUBLIC	?Value@TiXmlNode@@QBEPBDXZ			; TiXmlNode::Value
PUBLIC	?ValueTStr@TiXmlNode@@QBEABVTiXmlString@@XZ	; TiXmlNode::ValueTStr
PUBLIC	?SetValue@TiXmlNode@@QAEXPBD@Z			; TiXmlNode::SetValue
PUBLIC	?Parent@TiXmlNode@@QAEPAV1@XZ			; TiXmlNode::Parent
PUBLIC	?Parent@TiXmlNode@@QBEPBV1@XZ			; TiXmlNode::Parent
PUBLIC	?FirstChild@TiXmlNode@@QBEPBV1@XZ		; TiXmlNode::FirstChild
PUBLIC	?FirstChild@TiXmlNode@@QAEPAV1@XZ		; TiXmlNode::FirstChild
PUBLIC	?FirstChild@TiXmlNode@@QAEPAV1@PBD@Z		; TiXmlNode::FirstChild
PUBLIC	?LastChild@TiXmlNode@@QBEPBV1@XZ		; TiXmlNode::LastChild
PUBLIC	?LastChild@TiXmlNode@@QAEPAV1@XZ		; TiXmlNode::LastChild
PUBLIC	?LastChild@TiXmlNode@@QAEPAV1@PBD@Z		; TiXmlNode::LastChild
PUBLIC	?IterateChildren@TiXmlNode@@QAEPAV1@PBV1@@Z	; TiXmlNode::IterateChildren
PUBLIC	?IterateChildren@TiXmlNode@@QAEPAV1@PBDPBV1@@Z	; TiXmlNode::IterateChildren
PUBLIC	?PreviousSibling@TiXmlNode@@QBEPBV1@XZ		; TiXmlNode::PreviousSibling
PUBLIC	?PreviousSibling@TiXmlNode@@QAEPAV1@XZ		; TiXmlNode::PreviousSibling
PUBLIC	?PreviousSibling@TiXmlNode@@QAEPAV1@PBD@Z	; TiXmlNode::PreviousSibling
PUBLIC	?NextSibling@TiXmlNode@@QBEPBV1@XZ		; TiXmlNode::NextSibling
PUBLIC	?NextSibling@TiXmlNode@@QAEPAV1@XZ		; TiXmlNode::NextSibling
PUBLIC	?NextSibling@TiXmlNode@@QAEPAV1@PBD@Z		; TiXmlNode::NextSibling
PUBLIC	?NextSiblingElement@TiXmlNode@@QAEPAVTiXmlElement@@XZ ; TiXmlNode::NextSiblingElement
PUBLIC	?NextSiblingElement@TiXmlNode@@QAEPAVTiXmlElement@@PBD@Z ; TiXmlNode::NextSiblingElement
PUBLIC	?FirstChildElement@TiXmlNode@@QAEPAVTiXmlElement@@XZ ; TiXmlNode::FirstChildElement
PUBLIC	?FirstChildElement@TiXmlNode@@QAEPAVTiXmlElement@@PBD@Z ; TiXmlNode::FirstChildElement
PUBLIC	?Type@TiXmlNode@@QBEHXZ				; TiXmlNode::Type
PUBLIC	?GetDocument@TiXmlNode@@QAEPAVTiXmlDocument@@XZ	; TiXmlNode::GetDocument
PUBLIC	?NoChildren@TiXmlNode@@QBE_NXZ			; TiXmlNode::NoChildren
PUBLIC	?ToDocument@TiXmlNode@@UBEPBVTiXmlDocument@@XZ	; TiXmlNode::ToDocument
PUBLIC	?ToElement@TiXmlNode@@UBEPBVTiXmlElement@@XZ	; TiXmlNode::ToElement
PUBLIC	?ToComment@TiXmlNode@@UBEPBVTiXmlComment@@XZ	; TiXmlNode::ToComment
PUBLIC	?ToUnknown@TiXmlNode@@UBEPBVTiXmlUnknown@@XZ	; TiXmlNode::ToUnknown
PUBLIC	?ToText@TiXmlNode@@UBEPBVTiXmlText@@XZ		; TiXmlNode::ToText
PUBLIC	?ToDeclaration@TiXmlNode@@UBEPBVTiXmlDeclaration@@XZ ; TiXmlNode::ToDeclaration
PUBLIC	?ToDocument@TiXmlNode@@UAEPAVTiXmlDocument@@XZ	; TiXmlNode::ToDocument
PUBLIC	?ToElement@TiXmlNode@@UAEPAVTiXmlElement@@XZ	; TiXmlNode::ToElement
PUBLIC	?ToComment@TiXmlNode@@UAEPAVTiXmlComment@@XZ	; TiXmlNode::ToComment
PUBLIC	?ToUnknown@TiXmlNode@@UAEPAVTiXmlUnknown@@XZ	; TiXmlNode::ToUnknown
PUBLIC	?ToText@TiXmlNode@@UAEPAVTiXmlText@@XZ		; TiXmlNode::ToText
PUBLIC	?ToDeclaration@TiXmlNode@@UAEPAVTiXmlDeclaration@@XZ ; TiXmlNode::ToDeclaration
PUBLIC	??0TiXmlAttribute@@QAE@XZ			; TiXmlAttribute::TiXmlAttribute
PUBLIC	??0TiXmlAttribute@@QAE@PBD0@Z			; TiXmlAttribute::TiXmlAttribute
PUBLIC	?Name@TiXmlAttribute@@QBEPBDXZ			; TiXmlAttribute::Name
PUBLIC	?Value@TiXmlAttribute@@QBEPBDXZ			; TiXmlAttribute::Value
PUBLIC	?NameTStr@TiXmlAttribute@@QBEABVTiXmlString@@XZ	; TiXmlAttribute::NameTStr
PUBLIC	?SetName@TiXmlAttribute@@QAEXPBD@Z		; TiXmlAttribute::SetName
PUBLIC	?SetValue@TiXmlAttribute@@QAEXPBD@Z		; TiXmlAttribute::SetValue
PUBLIC	?Next@TiXmlAttribute@@QAEPAV1@XZ		; TiXmlAttribute::Next
PUBLIC	?Previous@TiXmlAttribute@@QAEPAV1@XZ		; TiXmlAttribute::Previous
PUBLIC	??8TiXmlAttribute@@QBE_NABV0@@Z			; TiXmlAttribute::operator==
PUBLIC	??MTiXmlAttribute@@QBE_NABV0@@Z			; TiXmlAttribute::operator<
PUBLIC	??OTiXmlAttribute@@QBE_NABV0@@Z			; TiXmlAttribute::operator>
PUBLIC	?Print@TiXmlAttribute@@UBEXPAVi3FileStream@@H@Z	; TiXmlAttribute::Print
PUBLIC	?SetDocument@TiXmlAttribute@@QAEXPAVTiXmlDocument@@@Z ; TiXmlAttribute::SetDocument
PUBLIC	??1TiXmlAttribute@@UAE@XZ			; TiXmlAttribute::~TiXmlAttribute
PUBLIC	??_GTiXmlAttribute@@UAEPAXI@Z			; TiXmlAttribute::`scalar deleting destructor'
PUBLIC	??_ETiXmlAttribute@@UAEPAXI@Z			; TiXmlAttribute::`vector deleting destructor'
PUBLIC	?First@TiXmlAttributeSet@@QBEPBVTiXmlAttribute@@XZ ; TiXmlAttributeSet::First
PUBLIC	?First@TiXmlAttributeSet@@QAEPAVTiXmlAttribute@@XZ ; TiXmlAttributeSet::First
PUBLIC	?Last@TiXmlAttributeSet@@QBEPBVTiXmlAttribute@@XZ ; TiXmlAttributeSet::Last
PUBLIC	?Last@TiXmlAttributeSet@@QAEPAVTiXmlAttribute@@XZ ; TiXmlAttributeSet::Last
PUBLIC	?Find@TiXmlAttributeSet@@QAEPAVTiXmlAttribute@@PBD@Z ; TiXmlAttributeSet::Find
PUBLIC	?QueryFloatAttribute@TiXmlElement@@QBEHPBDPAM@Z	; TiXmlElement::QueryFloatAttribute
PUBLIC	?FirstAttribute@TiXmlElement@@QBEPBVTiXmlAttribute@@XZ ; TiXmlElement::FirstAttribute
PUBLIC	?FirstAttribute@TiXmlElement@@QAEPAVTiXmlAttribute@@XZ ; TiXmlElement::FirstAttribute
PUBLIC	?LastAttribute@TiXmlElement@@QBEPBVTiXmlAttribute@@XZ ; TiXmlElement::LastAttribute
PUBLIC	?LastAttribute@TiXmlElement@@QAEPAVTiXmlAttribute@@XZ ; TiXmlElement::LastAttribute
PUBLIC	?ToElement@TiXmlElement@@UBEPBV1@XZ		; TiXmlElement::ToElement
PUBLIC	?ToElement@TiXmlElement@@UAEPAV1@XZ		; TiXmlElement::ToElement
PUBLIC	??0TiXmlComment@@QAE@XZ				; TiXmlComment::TiXmlComment
PUBLIC	??0TiXmlComment@@QAE@PBD@Z			; TiXmlComment::TiXmlComment
PUBLIC	??1TiXmlComment@@UAE@XZ				; TiXmlComment::~TiXmlComment
PUBLIC	?ToComment@TiXmlComment@@UBEPBV1@XZ		; TiXmlComment::ToComment
PUBLIC	?ToComment@TiXmlComment@@UAEPAV1@XZ		; TiXmlComment::ToComment
PUBLIC	??_GTiXmlComment@@UAEPAXI@Z			; TiXmlComment::`scalar deleting destructor'
PUBLIC	??_ETiXmlComment@@UAEPAXI@Z			; TiXmlComment::`vector deleting destructor'
PUBLIC	??0TiXmlText@@QAE@PBD@Z				; TiXmlText::TiXmlText
PUBLIC	??1TiXmlText@@UAE@XZ				; TiXmlText::~TiXmlText
PUBLIC	??0TiXmlText@@QAE@ABV0@@Z			; TiXmlText::TiXmlText
PUBLIC	??4TiXmlText@@QAEXABV0@@Z			; TiXmlText::operator=
PUBLIC	?CDATA@TiXmlText@@QBE_NXZ			; TiXmlText::CDATA
PUBLIC	?SetCDATA@TiXmlText@@QAEX_N@Z			; TiXmlText::SetCDATA
PUBLIC	?ToText@TiXmlText@@UBEPBV1@XZ			; TiXmlText::ToText
PUBLIC	?ToText@TiXmlText@@UAEPAV1@XZ			; TiXmlText::ToText
PUBLIC	??_GTiXmlText@@UAEPAXI@Z			; TiXmlText::`scalar deleting destructor'
PUBLIC	??_ETiXmlText@@UAEPAXI@Z			; TiXmlText::`vector deleting destructor'
PUBLIC	??0TiXmlDeclaration@@QAE@XZ			; TiXmlDeclaration::TiXmlDeclaration
PUBLIC	??1TiXmlDeclaration@@UAE@XZ			; TiXmlDeclaration::~TiXmlDeclaration
PUBLIC	?Version@TiXmlDeclaration@@QBEPBDXZ		; TiXmlDeclaration::Version
PUBLIC	?Encoding@TiXmlDeclaration@@QBEPBDXZ		; TiXmlDeclaration::Encoding
PUBLIC	?Standalone@TiXmlDeclaration@@QBEPBDXZ		; TiXmlDeclaration::Standalone
PUBLIC	?Print@TiXmlDeclaration@@UBEXPAVi3FileStream@@H@Z ; TiXmlDeclaration::Print
PUBLIC	?ToDeclaration@TiXmlDeclaration@@UBEPBV1@XZ	; TiXmlDeclaration::ToDeclaration
PUBLIC	?ToDeclaration@TiXmlDeclaration@@UAEPAV1@XZ	; TiXmlDeclaration::ToDeclaration
PUBLIC	??_GTiXmlDeclaration@@UAEPAXI@Z			; TiXmlDeclaration::`scalar deleting destructor'
PUBLIC	??_ETiXmlDeclaration@@UAEPAXI@Z			; TiXmlDeclaration::`vector deleting destructor'
PUBLIC	??0TiXmlUnknown@@QAE@XZ				; TiXmlUnknown::TiXmlUnknown
PUBLIC	??1TiXmlUnknown@@UAE@XZ				; TiXmlUnknown::~TiXmlUnknown
PUBLIC	??0TiXmlUnknown@@QAE@ABV0@@Z			; TiXmlUnknown::TiXmlUnknown
PUBLIC	??4TiXmlUnknown@@QAEXABV0@@Z			; TiXmlUnknown::operator=
PUBLIC	?ToUnknown@TiXmlUnknown@@UBEPBV1@XZ		; TiXmlUnknown::ToUnknown
PUBLIC	?ToUnknown@TiXmlUnknown@@UAEPAV1@XZ		; TiXmlUnknown::ToUnknown
PUBLIC	??_GTiXmlUnknown@@UAEPAXI@Z			; TiXmlUnknown::`scalar deleting destructor'
PUBLIC	??_ETiXmlUnknown@@UAEPAXI@Z			; TiXmlUnknown::`vector deleting destructor'
PUBLIC	??1TiXmlDocument@@UAE@XZ			; TiXmlDocument::~TiXmlDocument
PUBLIC	?RootElement@TiXmlDocument@@QBEPBVTiXmlElement@@XZ ; TiXmlDocument::RootElement
PUBLIC	?RootElement@TiXmlDocument@@QAEPAVTiXmlElement@@XZ ; TiXmlDocument::RootElement
PUBLIC	?Error@TiXmlDocument@@QBE_NXZ			; TiXmlDocument::Error
PUBLIC	?ErrorDesc@TiXmlDocument@@QBEPBDXZ		; TiXmlDocument::ErrorDesc
PUBLIC	?ErrorId@TiXmlDocument@@QBEHXZ			; TiXmlDocument::ErrorId
PUBLIC	?ErrorRow@TiXmlDocument@@QBEHXZ			; TiXmlDocument::ErrorRow
PUBLIC	?ErrorCol@TiXmlDocument@@QBEHXZ			; TiXmlDocument::ErrorCol
PUBLIC	?SetTabSize@TiXmlDocument@@QAEXH@Z		; TiXmlDocument::SetTabSize
PUBLIC	?TabSize@TiXmlDocument@@QBEHXZ			; TiXmlDocument::TabSize
PUBLIC	?ClearError@TiXmlDocument@@QAEXXZ		; TiXmlDocument::ClearError
PUBLIC	?ToDocument@TiXmlDocument@@UBEPBV1@XZ		; TiXmlDocument::ToDocument
PUBLIC	?ToDocument@TiXmlDocument@@UAEPAV1@XZ		; TiXmlDocument::ToDocument
PUBLIC	?GetSize@TiXmlDocument@@QAEIXZ			; TiXmlDocument::GetSize
PUBLIC	??_GTiXmlDocument@@UAEPAXI@Z			; TiXmlDocument::`scalar deleting destructor'
PUBLIC	??_ETiXmlDocument@@UAEPAXI@Z			; TiXmlDocument::`vector deleting destructor'
PUBLIC	??0TiXmlHandle@@QAE@PAVTiXmlNode@@@Z		; TiXmlHandle::TiXmlHandle
PUBLIC	??0TiXmlHandle@@QAE@ABV0@@Z			; TiXmlHandle::TiXmlHandle
PUBLIC	??4TiXmlHandle@@QAE?AV0@ABV0@@Z			; TiXmlHandle::operator=
PUBLIC	?ToNode@TiXmlHandle@@QBEPAVTiXmlNode@@XZ	; TiXmlHandle::ToNode
PUBLIC	?ToElement@TiXmlHandle@@QBEPAVTiXmlElement@@XZ	; TiXmlHandle::ToElement
PUBLIC	?ToText@TiXmlHandle@@QBEPAVTiXmlText@@XZ	; TiXmlHandle::ToText
PUBLIC	?ToUnknown@TiXmlHandle@@QBEPAVTiXmlUnknown@@XZ	; TiXmlHandle::ToUnknown
PUBLIC	?Node@TiXmlHandle@@QBEPAVTiXmlNode@@XZ		; TiXmlHandle::Node
PUBLIC	?Element@TiXmlHandle@@QBEPAVTiXmlElement@@XZ	; TiXmlHandle::Element
PUBLIC	?Text@TiXmlHandle@@QBEPAVTiXmlText@@XZ		; TiXmlHandle::Text
PUBLIC	?Unknown@TiXmlHandle@@QBEPAVTiXmlUnknown@@XZ	; TiXmlHandle::Unknown
PUBLIC	??0TiXmlPrinter@@QAE@XZ				; TiXmlPrinter::TiXmlPrinter
PUBLIC	?SetIndent@TiXmlPrinter@@QAEXPBD@Z		; TiXmlPrinter::SetIndent
PUBLIC	?Indent@TiXmlPrinter@@QAEPBDXZ			; TiXmlPrinter::Indent
PUBLIC	?SetLineBreak@TiXmlPrinter@@QAEXPBD@Z		; TiXmlPrinter::SetLineBreak
PUBLIC	?LineBreak@TiXmlPrinter@@QAEPBDXZ		; TiXmlPrinter::LineBreak
PUBLIC	?SetStreamPrinting@TiXmlPrinter@@QAEXXZ		; TiXmlPrinter::SetStreamPrinting
PUBLIC	?CStr@TiXmlPrinter@@QAEPBDXZ			; TiXmlPrinter::CStr
PUBLIC	?Size@TiXmlPrinter@@QAEIXZ			; TiXmlPrinter::Size
PUBLIC	?DoIndent@TiXmlPrinter@@AAEXXZ			; TiXmlPrinter::DoIndent
PUBLIC	?DoLineBreak@TiXmlPrinter@@AAEXXZ		; TiXmlPrinter::DoLineBreak
PUBLIC	??1TiXmlPrinter@@UAE@XZ				; TiXmlPrinter::~TiXmlPrinter
PUBLIC	??0TiXmlPrinter@@QAE@ABV0@@Z			; TiXmlPrinter::TiXmlPrinter
PUBLIC	??0TiXmlPrinter@@QAE@$$QAV0@@Z			; TiXmlPrinter::TiXmlPrinter
PUBLIC	??4TiXmlPrinter@@QAEAAV0@ABV0@@Z		; TiXmlPrinter::operator=
PUBLIC	??4TiXmlPrinter@@QAEAAV0@$$QAV0@@Z		; TiXmlPrinter::operator=
PUBLIC	??_GTiXmlPrinter@@UAEPAXI@Z			; TiXmlPrinter::`scalar deleting destructor'
PUBLIC	??_ETiXmlPrinter@@UAEPAXI@Z			; TiXmlPrinter::`vector deleting destructor'
PUBLIC	?addAttr@i3XMLElement@@QAEXPBD0@Z		; i3XMLElement::addAttr
PUBLIC	?addAttr@i3XMLElement@@QAEXPBDH@Z		; i3XMLElement::addAttr
PUBLIC	?addAttr@i3XMLElement@@QAEXPBDI@Z		; i3XMLElement::addAttr
PUBLIC	?addAttr@i3XMLElement@@QAEXPBDM@Z		; i3XMLElement::addAttr
PUBLIC	?addAttr@i3XMLElement@@QAEXPBD_J@Z		; i3XMLElement::addAttr
PUBLIC	?addAttr@i3XMLElement@@QAEXPBD_K@Z		; i3XMLElement::addAttr
PUBLIC	?getAttr@i3XMLElement@@QAEPBDPBD@Z		; i3XMLElement::getAttr
PUBLIC	?getAttr@i3XMLElement@@QAEPBDPBDPAH@Z		; i3XMLElement::getAttr
PUBLIC	?getAttr@i3XMLElement@@QAEPBDPBDPAI@Z		; i3XMLElement::getAttr
PUBLIC	?getAttr@i3XMLElement@@QAEPBDPBDPA_J@Z		; i3XMLElement::getAttr
PUBLIC	?getAttr@i3XMLElement@@QAEPBDPBDPA_K@Z		; i3XMLElement::getAttr
PUBLIC	?getAttr@i3XMLElement@@QAEPBDPBDPAM@Z		; i3XMLElement::getAttr
PUBLIC	?getAttr@i3XMLElement@@QAEPBDPBDPAG@Z		; i3XMLElement::getAttr
PUBLIC	??0i3XMLElement@@QAE@ABV0@@Z			; i3XMLElement::i3XMLElement
PUBLIC	??4i3XMLElement@@QAEAAV0@ABV0@@Z		; i3XMLElement::operator=
PUBLIC	??_Gi3XMLElement@@UAEPAXI@Z			; i3XMLElement::`scalar deleting destructor'
PUBLIC	??_Ei3XMLElement@@UAEPAXI@Z			; i3XMLElement::`vector deleting destructor'
PUBLIC	?GetClassMeta@i3List@@SAPAVi3ClassMeta@@XZ	; i3List::GetClassMeta
PUBLIC	?SetOptmizeEnableWhenClear@i3List@@QAEXH@Z	; i3List::SetOptmizeEnableWhenClear
PUBLIC	?SetOnceMode@i3List@@QAEXH@Z			; i3List::SetOnceMode
PUBLIC	?GetCount@i3List@@QBEHXZ			; i3List::GetCount
PUBLIC	?GetItem@i3List@@QAEPAXH@Z			; i3List::GetItem
PUBLIC	?GetItem@i3List@@QBEPBXH@Z			; i3List::GetItem
PUBLIC	?GetSafeItem@i3List@@QBEPBXH@Z			; i3List::GetSafeItem
PUBLIC	?GetSafeItem@i3List@@QAEPAXH@Z			; i3List::GetSafeItem
PUBLIC	?Find@i3List@@QBEHPAX@Z				; i3List::Find
PUBLIC	?GetFirst@i3List@@QAEPAXXZ			; i3List::GetFirst
PUBLIC	?GetLast@i3List@@QAEPAXXZ			; i3List::GetLast
PUBLIC	?AddFromList@i3List@@QAEXPAV1@@Z		; i3List::AddFromList
PUBLIC	?SafeReleaseAll@i3List@@QAEXXZ			; i3List::SafeReleaseAll
PUBLIC	?SafeFreeAll@i3List@@QAEXXZ			; i3List::SafeFreeAll
PUBLIC	??0i3List@@QAE@ABV0@@Z				; i3List::i3List
PUBLIC	??4i3List@@QAEAAV0@ABV0@@Z			; i3List::operator=
PUBLIC	??_Fi3List@@QAEXXZ				; i3List::`default constructor closure'
PUBLIC	??_Gi3List@@UAEPAXI@Z				; i3List::`scalar deleting destructor'
PUBLIC	??_Ei3List@@UAEPAXI@Z				; i3List::`vector deleting destructor'
PUBLIC	?GetClassMeta@i3StringList@@SAPAVi3ClassMeta@@XZ ; i3StringList::GetClassMeta
PUBLIC	?GetCount@i3StringList@@QBEHXZ			; i3StringList::GetCount
PUBLIC	?GetItem@i3StringList@@QAEPAXH@Z		; i3StringList::GetItem
PUBLIC	?SetItem@i3StringList@@QAEXHPAD@Z		; i3StringList::SetItem
PUBLIC	?Find@i3StringList@@QAEHPAD@Z			; i3StringList::Find
PUBLIC	?GetFirst@i3StringList@@QAEPADXZ		; i3StringList::GetFirst
PUBLIC	?GetLast@i3StringList@@QAEPADXZ			; i3StringList::GetLast
PUBLIC	?GetOnceMode@i3StringList@@QAEHXZ		; i3StringList::GetOnceMode
PUBLIC	?SetOnceMode@i3StringList@@QAEXH@Z		; i3StringList::SetOnceMode
PUBLIC	??0i3StringList@@QAE@ABV0@@Z			; i3StringList::i3StringList
PUBLIC	??4i3StringList@@QAEAAV0@ABV0@@Z		; i3StringList::operator=
PUBLIC	??_Fi3StringList@@QAEXXZ			; i3StringList::`default constructor closure'
PUBLIC	??_Gi3StringList@@UAEPAXI@Z			; i3StringList::`scalar deleting destructor'
PUBLIC	??_Ei3StringList@@UAEPAXI@Z			; i3StringList::`vector deleting destructor'
PUBLIC	?GetClassMeta@i3NetworkHTTP@@SAPAVi3ClassMeta@@XZ ; i3NetworkHTTP::GetClassMeta
PUBLIC	?GetMeta@i3NetworkHTTP@@UAEPAVi3ClassMeta@@XZ	; i3NetworkHTTP::GetMeta
PUBLIC	?RegisterMeta@i3NetworkHTTP@@SAXXZ		; i3NetworkHTTP::RegisterMeta
PUBLIC	?SetConcreteClass@i3NetworkHTTP@@SAXPAVi3ClassMeta@@@Z ; i3NetworkHTTP::SetConcreteClass
PUBLIC	?SetGhostClass@i3NetworkHTTP@@SAXPAVi3ClassMeta@@@Z ; i3NetworkHTTP::SetGhostClass
PUBLIC	?_NewObject@i3NetworkHTTP@@SAPAV1@XZ		; i3NetworkHTTP::_NewObject
PUBLIC	?_NewObjectRef@i3NetworkHTTP@@SAPAV1@XZ		; i3NetworkHTTP::_NewObjectRef
PUBLIC	?_BindObject@i3NetworkHTTP@@SAPAV1@PAX@Z	; i3NetworkHTTP::_BindObject
PUBLIC	?_BindObjectRef@i3NetworkHTTP@@SAPAV1@PAX@Z	; i3NetworkHTTP::_BindObjectRef
PUBLIC	?_NewObjectByType@i3NetworkHTTP@@SAPAV1@W4I3_CLASSMETA_TYPE@@@Z ; i3NetworkHTTP::_NewObjectByType
PUBLIC	?_NewObjectRefByType@i3NetworkHTTP@@SAPAV1@W4I3_CLASSMETA_TYPE@@@Z ; i3NetworkHTTP::_NewObjectRefByType
PUBLIC	?_BindObjectByType@i3NetworkHTTP@@SAPAV1@PAXW4I3_CLASSMETA_TYPE@@@Z ; i3NetworkHTTP::_BindObjectByType
PUBLIC	?_BindObjectRefByType@i3NetworkHTTP@@SAPAV1@PAXW4I3_CLASSMETA_TYPE@@@Z ; i3NetworkHTTP::_BindObjectRefByType
PUBLIC	?_ConnectGET@i3NetworkHTTP@@IAEHPAD@Z		; i3NetworkHTTP::_ConnectGET
PUBLIC	?_ConnectPUT@i3NetworkHTTP@@IAEHPAD@Z		; i3NetworkHTTP::_ConnectPUT
PUBLIC	?_ConnectPOST@i3NetworkHTTP@@IAEHPAD@Z		; i3NetworkHTTP::_ConnectPOST
PUBLIC	?_DisConnectGET@i3NetworkHTTP@@IAEXXZ		; i3NetworkHTTP::_DisConnectGET
PUBLIC	?_DisConnectPUT@i3NetworkHTTP@@IAEXXZ		; i3NetworkHTTP::_DisConnectPUT
PUBLIC	?_DisConnectPOST@i3NetworkHTTP@@IAEXXZ		; i3NetworkHTTP::_DisConnectPOST
PUBLIC	?_CheckType@i3NetworkHTTP@@IAEHPAD@Z		; i3NetworkHTTP::_CheckType
PUBLIC	?getFileSize@i3NetworkHTTP@@QAEIXZ		; i3NetworkHTTP::getFileSize
PUBLIC	?getRecvSize@i3NetworkHTTP@@QAEIXZ		; i3NetworkHTTP::getRecvSize
PUBLIC	??0i3NetworkHTTP@@QAE@XZ			; i3NetworkHTTP::i3NetworkHTTP
PUBLIC	??1i3NetworkHTTP@@UAE@XZ			; i3NetworkHTTP::~i3NetworkHTTP
PUBLIC	?Connect@i3NetworkHTTP@@QAEHPADW4REQUEST_METHOD@1@@Z ; i3NetworkHTTP::Connect
PUBLIC	?IsInternetConnect@i3NetworkHTTP@@QAEHXZ	; i3NetworkHTTP::IsInternetConnect
PUBLIC	?DisConnect@i3NetworkHTTP@@QAEXXZ		; i3NetworkHTTP::DisConnect
PUBLIC	?RecvRequest@i3NetworkHTTP@@QAEHXZ		; i3NetworkHTTP::RecvRequest
PUBLIC	?SendRequestPost@i3NetworkHTTP@@QAEHXZ		; i3NetworkHTTP::SendRequestPost
PUBLIC	?SendRequestGet@i3NetworkHTTP@@QAEHPAD@Z	; i3NetworkHTTP::SendRequestGet
PUBLIC	?GetRequestResult@i3NetworkHTTP@@QAEPADXZ	; i3NetworkHTTP::GetRequestResult
PUBLIC	?ParseURL@i3NetworkHTTP@@QAEXPAD00AAG0@Z	; i3NetworkHTTP::ParseURL
PUBLIC	?ResetArguments@i3NetworkHTTP@@QAEXXZ		; i3NetworkHTTP::ResetArguments
PUBLIC	?AddArgument@i3NetworkHTTP@@QAEHPAD0@Z		; i3NetworkHTTP::AddArgument
PUBLIC	?AddArgument@i3NetworkHTTP@@QAEHPADH@Z		; i3NetworkHTTP::AddArgument
PUBLIC	?AddArgument@i3NetworkHTTP@@QAEHPAD_J@Z		; i3NetworkHTTP::AddArgument
PUBLIC	?AddArgument@i3NetworkHTTP@@QAEHPADK@Z		; i3NetworkHTTP::AddArgument
PUBLIC	?AddArgument@i3NetworkHTTP@@QAEHPADPAEH@Z	; i3NetworkHTTP::AddArgument
PUBLIC	?SetUpPostArguments@i3NetworkHTTP@@QAEXXZ	; i3NetworkHTTP::SetUpPostArguments
PUBLIC	?ConvertMD5@i3NetworkHTTP@@QAEXPAD0@Z		; i3NetworkHTTP::ConvertMD5
PUBLIC	?CreateMethod@i3NetworkHTTP@@QAEXIIIII@Z	; i3NetworkHTTP::CreateMethod
PUBLIC	?Destroy@i3NetworkHTTP@@QAEXXZ			; i3NetworkHTTP::Destroy
PUBLIC	?Cancel@i3NetworkHTTP@@QAEXXZ			; i3NetworkHTTP::Cancel
PUBLIC	?DownStart@i3NetworkHTTP@@QAEHPAD0@Z		; i3NetworkHTTP::DownStart
PUBLIC	?DownFile@i3NetworkHTTP@@QAEHXZ			; i3NetworkHTTP::DownFile
PUBLIC	?GetReadBuffer@i3NetworkHTTP@@QAEPADXZ		; i3NetworkHTTP::GetReadBuffer
PUBLIC	?RestartCheck@i3NetworkHTTP@@QAEHXZ		; i3NetworkHTTP::RestartCheck
PUBLIC	?ReloadCheck@i3NetworkHTTP@@QAEHXZ		; i3NetworkHTTP::ReloadCheck
PUBLIC	?UpStart@i3NetworkHTTP@@QAEHPAD0@Z		; i3NetworkHTTP::UpStart
PUBLIC	?UpFile@i3NetworkHTTP@@QAEHXZ			; i3NetworkHTTP::UpFile
PUBLIC	?CheckFile@i3NetworkHTTP@@QAEHPAD@Z		; i3NetworkHTTP::CheckFile
PUBLIC	?DeleteFileA@i3NetworkHTTP@@QAEHPAD@Z		; i3NetworkHTTP::DeleteFileA
PUBLIC	?GetState@i3NetworkHTTP@@QAEHXZ			; i3NetworkHTTP::GetState
PUBLIC	?GetFileError@i3NetworkHTTP@@QAEHXZ		; i3NetworkHTTP::GetFileError
PUBLIC	?GetLastErrorString@i3NetworkHTTP@@QAEPADXZ	; i3NetworkHTTP::GetLastErrorString
PUBLIC	?GetLastErrorCode@i3NetworkHTTP@@QAEHXZ		; i3NetworkHTTP::GetLastErrorCode
PUBLIC	?GetPostArguments@i3NetworkHTTP@@QAEXPADH@Z	; i3NetworkHTTP::GetPostArguments
PUBLIC	??0i3NetworkHTTP@@QAE@ABV0@@Z			; i3NetworkHTTP::i3NetworkHTTP
PUBLIC	??4i3NetworkHTTP@@QAEAAV0@ABV0@@Z		; i3NetworkHTTP::operator=
PUBLIC	??_Gi3NetworkHTTP@@UAEPAXI@Z			; i3NetworkHTTP::`scalar deleting destructor'
PUBLIC	??_Ei3NetworkHTTP@@UAEPAXI@Z			; i3NetworkHTTP::`vector deleting destructor'
PUBLIC	??0?$i3MetaTemplate@Vi3NetworkHTTP@@@@QAE@IPAD0W4I3_CLASSMETA_TYPE@@@Z ; i3MetaTemplate<i3NetworkHTTP>::i3MetaTemplate<i3NetworkHTTP>
PUBLIC	??_7i3ClassMeta@@6B@				; i3ClassMeta::`vftable'
PUBLIC	??_7i3ElementBase@@6B@				; i3ElementBase::`vftable'
PUBLIC	??_7i3MemoryPool@@6B@				; i3MemoryPool::`vftable'
PUBLIC	??_7i3Stream@@6B@				; i3Stream::`vftable'
PUBLIC	??_7i3FileStream@@6B@				; i3FileStream::`vftable'
PUBLIC	??_7TiXmlVisitor@@6B@				; TiXmlVisitor::`vftable'
PUBLIC	??_7TiXmlBase@@6B@				; TiXmlBase::`vftable'
PUBLIC	??_7TiXmlAttribute@@6B@				; TiXmlAttribute::`vftable'
PUBLIC	??_7TiXmlComment@@6B@				; TiXmlComment::`vftable'
PUBLIC	??_7TiXmlText@@6B@				; TiXmlText::`vftable'
PUBLIC	??_7TiXmlDeclaration@@6B@			; TiXmlDeclaration::`vftable'
PUBLIC	??_7TiXmlUnknown@@6B@				; TiXmlUnknown::`vftable'
PUBLIC	??_7TiXmlDocument@@6B@				; TiXmlDocument::`vftable'
PUBLIC	??_C@_00CNPNBAHC@@				; `string'
PUBLIC	??_7TiXmlPrinter@@6B@				; TiXmlPrinter::`vftable'
PUBLIC	??_C@_04PFOHOKJK@?5?5?5?5@			; `string'
PUBLIC	??_C@_01EEMJAFIK@?6@				; `string'
PUBLIC	??_7i3XMLElement@@6B@				; i3XMLElement::`vftable'
PUBLIC	??_7i3List@@6B@					; i3List::`vftable'
PUBLIC	??_C@_0GD@LNMGNFKI@E?3?2Proyectos?2JuegosOnlineproyec@ ; `string'
PUBLIC	??_7i3StringList@@6B@				; i3StringList::`vftable'
PUBLIC	??_7i3NetworkHTTP@@6B@				; i3NetworkHTTP::`vftable'
PUBLIC	??_C@_0P@GPAIGMIA@I3NETWORK_HTTP@		; `string'
PUBLIC	??_C@_0GI@CPAALLND@E?3?2Proyectos?2JuegosOnlineproyec@ ; `string'
PUBLIC	??_C@_0BF@PJCNEGDJ@Cannot?5open?5internet@	; `string'
PUBLIC	??_C@_0BL@EIHAOHFH@Cannot?5connect?5to?5internet@ ; `string'
PUBLIC	??_C@_03KBBGFLEK@PUT@				; `string'
PUBLIC	??_C@_17MLBOKGLB@?$AA?$CK?$AA?1?$AA?$CK@	; `string'
PUBLIC	??_C@_04HCJEIHPL@POST@				; `string'
PUBLIC	??_C@_0DC@DMFLICKC@Content?9Type?3?5application?1x?9www@ ; `string'
PUBLIC	??_C@_0DB@CPBJMABP@Cannot?5perform?5http?5request?0?5Th@ ; `string'
PUBLIC	??_C@_0EK@PLOICMNN@Cannot?5perform?5http?5request?0?5Th@ ; `string'
PUBLIC	??_C@_0BM@HBGNAEJJ@Cannot?5perform?5http?5request@ ; `string'
PUBLIC	??_C@_0BJ@KELNJPON@Memory?5Exception?5occured@	; `string'
PUBLIC	??_C@_01JLIPDDHJ@?3@				; `string'
PUBLIC	??_C@_01KMDKNFGN@?1@				; `string'
PUBLIC	??_C@_04IAFLKNP@http@				; `string'
PUBLIC	??_C@_05BCHGOAMK@https@				; `string'
PUBLIC	??_C@_03MMIJIMKH@?$CF25@			; `string'
PUBLIC	??_C@_03OHKENPGE@?$CF26@			; `string'
PUBLIC	??_C@_03KMPHGDJG@?$CF2B@			; `string'
PUBLIC	??_C@_02DPKJAMEF@?$CFd@				; `string'
PUBLIC	??_C@_05LLAMLEHD@?$CFI64d@			; `string'
PUBLIC	??_C@_03FKNCMABI@?$CFlu@			; `string'
PUBLIC	??_C@_05MKGBANIN@?$CFs?9?$CFd@			; `string'
PUBLIC	??_C@_01NEMOKFLO@?$DN@				; `string'
PUBLIC	??_C@_01HNPIGOCE@?$CG@				; `string'
PUBLIC	??_R4i3ElementBase@@6B@				; i3ElementBase::`RTTI Complete Object Locator'
PUBLIC	??_R0?AVi3ElementBase@@@8			; i3ElementBase `RTTI Type Descriptor'
PUBLIC	??_R3i3ElementBase@@8				; i3ElementBase::`RTTI Class Hierarchy Descriptor'
PUBLIC	??_R2i3ElementBase@@8				; i3ElementBase::`RTTI Base Class Array'
PUBLIC	??_R1A@?0A@EA@i3ElementBase@@8			; i3ElementBase::`RTTI Base Class Descriptor at (0,-1,0,64)'
PUBLIC	??_R4i3List@@6B@				; i3List::`RTTI Complete Object Locator'
PUBLIC	??_R0?AVi3List@@@8				; i3List `RTTI Type Descriptor'
PUBLIC	??_R3i3List@@8					; i3List::`RTTI Class Hierarchy Descriptor'
PUBLIC	??_R2i3List@@8					; i3List::`RTTI Base Class Array'
PUBLIC	??_R1A@?0A@EA@i3List@@8				; i3List::`RTTI Base Class Descriptor at (0,-1,0,64)'
PUBLIC	??_R4i3MemoryPool@@6B@				; i3MemoryPool::`RTTI Complete Object Locator'
PUBLIC	??_R0?AVi3MemoryPool@@@8			; i3MemoryPool `RTTI Type Descriptor'
PUBLIC	??_R3i3MemoryPool@@8				; i3MemoryPool::`RTTI Class Hierarchy Descriptor'
PUBLIC	??_R2i3MemoryPool@@8				; i3MemoryPool::`RTTI Base Class Array'
PUBLIC	??_R1A@?0A@EA@i3MemoryPool@@8			; i3MemoryPool::`RTTI Base Class Descriptor at (0,-1,0,64)'
PUBLIC	??_R4i3ClassMeta@@6B@				; i3ClassMeta::`RTTI Complete Object Locator'
PUBLIC	??_R4i3StringList@@6B@				; i3StringList::`RTTI Complete Object Locator'
PUBLIC	??_R0?AVi3StringList@@@8			; i3StringList `RTTI Type Descriptor'
PUBLIC	??_R3i3StringList@@8				; i3StringList::`RTTI Class Hierarchy Descriptor'
PUBLIC	??_R2i3StringList@@8				; i3StringList::`RTTI Base Class Array'
PUBLIC	??_R1A@?0A@EA@i3StringList@@8			; i3StringList::`RTTI Base Class Descriptor at (0,-1,0,64)'
PUBLIC	??_R4i3Stream@@6B@				; i3Stream::`RTTI Complete Object Locator'
PUBLIC	??_R0?AVi3Stream@@@8				; i3Stream `RTTI Type Descriptor'
PUBLIC	??_R3i3Stream@@8				; i3Stream::`RTTI Class Hierarchy Descriptor'
PUBLIC	??_R2i3Stream@@8				; i3Stream::`RTTI Base Class Array'
PUBLIC	??_R1A@?0A@EA@i3Stream@@8			; i3Stream::`RTTI Base Class Descriptor at (0,-1,0,64)'
PUBLIC	??_R4i3FileStream@@6B@				; i3FileStream::`RTTI Complete Object Locator'
PUBLIC	??_R0?AVi3FileStream@@@8			; i3FileStream `RTTI Type Descriptor'
PUBLIC	??_R3i3FileStream@@8				; i3FileStream::`RTTI Class Hierarchy Descriptor'
PUBLIC	??_R2i3FileStream@@8				; i3FileStream::`RTTI Base Class Array'
PUBLIC	??_R1A@?0A@EA@i3FileStream@@8			; i3FileStream::`RTTI Base Class Descriptor at (0,-1,0,64)'
PUBLIC	??_R4TiXmlDocument@@6B@				; TiXmlDocument::`RTTI Complete Object Locator'
PUBLIC	??_R0?AVTiXmlDocument@@@8			; TiXmlDocument `RTTI Type Descriptor'
PUBLIC	??_R3TiXmlDocument@@8				; TiXmlDocument::`RTTI Class Hierarchy Descriptor'
PUBLIC	??_R2TiXmlDocument@@8				; TiXmlDocument::`RTTI Base Class Array'
PUBLIC	??_R1A@?0A@EA@TiXmlDocument@@8			; TiXmlDocument::`RTTI Base Class Descriptor at (0,-1,0,64)'
PUBLIC	??_R1A@?0A@EA@TiXmlNode@@8			; TiXmlNode::`RTTI Base Class Descriptor at (0,-1,0,64)'
PUBLIC	??_R0?AVTiXmlNode@@@8				; TiXmlNode `RTTI Type Descriptor'
PUBLIC	??_R3TiXmlNode@@8				; TiXmlNode::`RTTI Class Hierarchy Descriptor'
PUBLIC	??_R2TiXmlNode@@8				; TiXmlNode::`RTTI Base Class Array'
PUBLIC	??_R1A@?0A@EA@TiXmlBase@@8			; TiXmlBase::`RTTI Base Class Descriptor at (0,-1,0,64)'
PUBLIC	??_R0?AVTiXmlBase@@@8				; TiXmlBase `RTTI Type Descriptor'
PUBLIC	??_R3TiXmlBase@@8				; TiXmlBase::`RTTI Class Hierarchy Descriptor'
PUBLIC	??_R2TiXmlBase@@8				; TiXmlBase::`RTTI Base Class Array'
PUBLIC	??_R4TiXmlComment@@6B@				; TiXmlComment::`RTTI Complete Object Locator'
PUBLIC	??_R0?AVTiXmlComment@@@8			; TiXmlComment `RTTI Type Descriptor'
PUBLIC	??_R3TiXmlComment@@8				; TiXmlComment::`RTTI Class Hierarchy Descriptor'
PUBLIC	??_R2TiXmlComment@@8				; TiXmlComment::`RTTI Base Class Array'
PUBLIC	??_R1A@?0A@EA@TiXmlComment@@8			; TiXmlComment::`RTTI Base Class Descriptor at (0,-1,0,64)'
PUBLIC	??_R4TiXmlUnknown@@6B@				; TiXmlUnknown::`RTTI Complete Object Locator'
PUBLIC	??_R0?AVTiXmlUnknown@@@8			; TiXmlUnknown `RTTI Type Descriptor'
PUBLIC	??_R3TiXmlUnknown@@8				; TiXmlUnknown::`RTTI Class Hierarchy Descriptor'
PUBLIC	??_R2TiXmlUnknown@@8				; TiXmlUnknown::`RTTI Base Class Array'
PUBLIC	??_R1A@?0A@EA@TiXmlUnknown@@8			; TiXmlUnknown::`RTTI Base Class Descriptor at (0,-1,0,64)'
PUBLIC	??_R4TiXmlAttribute@@6B@			; TiXmlAttribute::`RTTI Complete Object Locator'
PUBLIC	??_R0?AVTiXmlAttribute@@@8			; TiXmlAttribute `RTTI Type Descriptor'
PUBLIC	??_R3TiXmlAttribute@@8				; TiXmlAttribute::`RTTI Class Hierarchy Descriptor'
PUBLIC	??_R2TiXmlAttribute@@8				; TiXmlAttribute::`RTTI Base Class Array'
PUBLIC	??_R1A@?0A@EA@TiXmlAttribute@@8			; TiXmlAttribute::`RTTI Base Class Descriptor at (0,-1,0,64)'
PUBLIC	??_R4TiXmlText@@6B@				; TiXmlText::`RTTI Complete Object Locator'
PUBLIC	??_R0?AVTiXmlText@@@8				; TiXmlText `RTTI Type Descriptor'
PUBLIC	??_R3TiXmlText@@8				; TiXmlText::`RTTI Class Hierarchy Descriptor'
PUBLIC	??_R2TiXmlText@@8				; TiXmlText::`RTTI Base Class Array'
PUBLIC	??_R1A@?0A@EA@TiXmlText@@8			; TiXmlText::`RTTI Base Class Descriptor at (0,-1,0,64)'
PUBLIC	??_R4TiXmlDeclaration@@6B@			; TiXmlDeclaration::`RTTI Complete Object Locator'
PUBLIC	??_R0?AVTiXmlDeclaration@@@8			; TiXmlDeclaration `RTTI Type Descriptor'
PUBLIC	??_R3TiXmlDeclaration@@8			; TiXmlDeclaration::`RTTI Class Hierarchy Descriptor'
PUBLIC	??_R2TiXmlDeclaration@@8			; TiXmlDeclaration::`RTTI Base Class Array'
PUBLIC	??_R1A@?0A@EA@TiXmlDeclaration@@8		; TiXmlDeclaration::`RTTI Base Class Descriptor at (0,-1,0,64)'
PUBLIC	??_R4TiXmlVisitor@@6B@				; TiXmlVisitor::`RTTI Complete Object Locator'
PUBLIC	??_R0?AVTiXmlVisitor@@@8			; TiXmlVisitor `RTTI Type Descriptor'
PUBLIC	??_R3TiXmlVisitor@@8				; TiXmlVisitor::`RTTI Class Hierarchy Descriptor'
PUBLIC	??_R2TiXmlVisitor@@8				; TiXmlVisitor::`RTTI Base Class Array'
PUBLIC	??_R1A@?0A@EA@TiXmlVisitor@@8			; TiXmlVisitor::`RTTI Base Class Descriptor at (0,-1,0,64)'
PUBLIC	??_R4TiXmlBase@@6B@				; TiXmlBase::`RTTI Complete Object Locator'
PUBLIC	??_R4TiXmlPrinter@@6B@				; TiXmlPrinter::`RTTI Complete Object Locator'
PUBLIC	??_R0?AVTiXmlPrinter@@@8			; TiXmlPrinter `RTTI Type Descriptor'
PUBLIC	??_R3TiXmlPrinter@@8				; TiXmlPrinter::`RTTI Class Hierarchy Descriptor'
PUBLIC	??_R2TiXmlPrinter@@8				; TiXmlPrinter::`RTTI Base Class Array'
PUBLIC	??_R1A@?0A@EA@TiXmlPrinter@@8			; TiXmlPrinter::`RTTI Base Class Descriptor at (0,-1,0,64)'
PUBLIC	??_R4i3XMLElement@@6B@				; i3XMLElement::`RTTI Complete Object Locator'
PUBLIC	??_R0?AVi3XMLElement@@@8			; i3XMLElement `RTTI Type Descriptor'
PUBLIC	??_R3i3XMLElement@@8				; i3XMLElement::`RTTI Class Hierarchy Descriptor'
PUBLIC	??_R2i3XMLElement@@8				; i3XMLElement::`RTTI Base Class Array'
PUBLIC	??_R1A@?0A@EA@i3XMLElement@@8			; i3XMLElement::`RTTI Base Class Descriptor at (0,-1,0,64)'
PUBLIC	??_R1A@?0A@EA@TiXmlElement@@8			; TiXmlElement::`RTTI Base Class Descriptor at (0,-1,0,64)'
PUBLIC	??_R0?AVTiXmlElement@@@8			; TiXmlElement `RTTI Type Descriptor'
PUBLIC	??_R3TiXmlElement@@8				; TiXmlElement::`RTTI Class Hierarchy Descriptor'
PUBLIC	??_R2TiXmlElement@@8				; TiXmlElement::`RTTI Base Class Array'
PUBLIC	??_R4i3NetworkHTTP@@6B@				; i3NetworkHTTP::`RTTI Complete Object Locator'
PUBLIC	??_R0?AVi3NetworkHTTP@@@8			; i3NetworkHTTP `RTTI Type Descriptor'
PUBLIC	??_R3i3NetworkHTTP@@8				; i3NetworkHTTP::`RTTI Class Hierarchy Descriptor'
PUBLIC	??_R2i3NetworkHTTP@@8				; i3NetworkHTTP::`RTTI Base Class Array'
PUBLIC	??_R1A@?0A@EA@i3NetworkHTTP@@8			; i3NetworkHTTP::`RTTI Base Class Descriptor at (0,-1,0,64)'
EXTRN	??_M@YGXPAXIIP6EX0@Z@Z:PROC			; `eh vector destructor iterator'
EXTRN	__purecall:PROC
EXTRN	??3@YAXPAX@Z:PROC				; operator delete
EXTRN	??3@YAXPAXI@Z:PROC				; operator delete
EXTRN	??_U@YAPAXI@Z:PROC				; operator new[]
EXTRN	??_V@YAXPAX@Z:PROC				; operator delete[]
EXTRN	??_V@YAXPAXI@Z:PROC				; operator delete[]
EXTRN	_atexit:PROC
EXTRN	___report_rangecheckfailure:PROC
EXTRN	___std_terminate:PROC
EXTRN	_isspace:PROC
EXTRN	_tolower:PROC
EXTRN	__imp__CreateFileA@28:PROC
EXTRN	__imp__GetFileInformationByHandle@8:PROC
EXTRN	__imp__ReadFile@20:PROC
EXTRN	__imp__WriteFile@20:PROC
EXTRN	__imp__CloseHandle@4:PROC
EXTRN	__imp__GetLastError@0:PROC
EXTRN	__imp__GetTickCount@0:PROC
EXTRN	__imp__InternetOpenA@20:PROC
EXTRN	__imp__InternetCloseHandle@4:PROC
EXTRN	__imp__InternetConnectA@32:PROC
EXTRN	__imp__InternetOpenUrlA@24:PROC
EXTRN	__imp__InternetReadFile@16:PROC
EXTRN	__imp__InternetWriteFile@16:PROC
EXTRN	__imp__InternetQueryDataAvailable@16:PROC
EXTRN	__imp__InternetQueryOptionA@16:PROC
EXTRN	__imp__InternetSetOptionA@16:PROC
EXTRN	__imp__HttpOpenRequestA@32:PROC
EXTRN	__imp__HttpSendRequestA@20:PROC
EXTRN	__imp__InternetAttemptConnect@4:PROC
EXTRN	__imp__InternetGetConnectedState@8:PROC
EXTRN	?AllocTool@i3mem@@YAPAXHHHPBDH@Z:PROC		; i3mem::AllocTool
EXTRN	?FreeTool@i3mem@@YAXPAXPBDH@Z:PROC		; i3mem::FreeTool
EXTRN	??0i3ClassMeta@@QAE@IPAD0W4I3_CLASSMETA_TYPE@@@Z:PROC ; i3ClassMeta::i3ClassMeta
EXTRN	??1i3ClassMeta@@UAE@XZ:PROC			; i3ClassMeta::~i3ClassMeta
EXTRN	?CreateInstance@i3ClassMeta@@UAEPAVi3ElementBase@@W4I3_CLASSMETA_TYPE@@@Z:PROC ; i3ClassMeta::CreateInstance
EXTRN	?BindInstance@i3ClassMeta@@UAEPAVi3ElementBase@@PAXW4I3_CLASSMETA_TYPE@@@Z:PROC ; i3ClassMeta::BindInstance
EXTRN	?IsTypeOf@i3ClassMeta@@QAE_NPAV1@@Z:PROC	; i3ClassMeta::IsTypeOf
EXTRN	?Register@i3ClassMeta@@QAEXXZ:PROC		; i3ClassMeta::Register
EXTRN	?GetConcreteClass@i3ClassMeta@@QAEPAV1@W4I3_CLASSMETA_TYPE@@@Z:PROC ; i3ClassMeta::GetConcreteClass
EXTRN	?SetConcreteClass@i3ClassMeta@@QAEXPAV1@@Z:PROC	; i3ClassMeta::SetConcreteClass
EXTRN	?SetGhostClass@i3ClassMeta@@QAEXPAV1@@Z:PROC	; i3ClassMeta::SetGhostClass
EXTRN	?GetMeta@i3ElementBase@@UAEPAVi3ClassMeta@@XZ:PROC ; i3ElementBase::GetMeta
EXTRN	??0i3ElementBase@@QAE@XZ:PROC			; i3ElementBase::i3ElementBase
EXTRN	??1i3ElementBase@@UAE@XZ:PROC			; i3ElementBase::~i3ElementBase
EXTRN	??2i3ElementBase@@SAPAXI@Z:PROC			; i3ElementBase::operator new
EXTRN	??2i3ElementBase@@SAPAXIPAX@Z:PROC		; i3ElementBase::operator new
EXTRN	??3i3ElementBase@@SAXPAX@Z:PROC			; i3ElementBase::operator delete
EXTRN	??3i3ElementBase@@SAXPAX0@Z:PROC		; i3ElementBase::operator delete
EXTRN	?Release@i3ElementBase@@QAEXXZ:PROC		; i3ElementBase::Release
EXTRN	?CopyTo@i3ElementBase@@UAEXPAV1@W4I3_COPY_METHOD@@@Z:PROC ; i3ElementBase::CopyTo
EXTRN	??1i3MemoryPool@@UAE@XZ:PROC			; i3MemoryPool::~i3MemoryPool
EXTRN	?GetMeta@i3Stream@@UAEPAVi3ClassMeta@@XZ:PROC	; i3Stream::GetMeta
EXTRN	??1i3Stream@@UAE@XZ:PROC			; i3Stream::~i3Stream
EXTRN	?CopyTo@i3Stream@@UAEIPAV1@I@Z:PROC		; i3Stream::CopyTo
EXTRN	?CopyFrom@i3Stream@@UAEIPAV1@I@Z:PROC		; i3Stream::CopyFrom
EXTRN	?ReadLine@i3Stream@@UAEIPADH@Z:PROC		; i3Stream::ReadLine
EXTRN	?ReadLineW@i3Stream@@UAEIPAGH@Z:PROC		; i3Stream::ReadLineW
EXTRN	?WriteLine@i3Stream@@UAEIPBD@Z:PROC		; i3Stream::WriteLine
EXTRN	?WriteLineW@i3Stream@@UAEIPBG@Z:PROC		; i3Stream::WriteLineW
EXTRN	?Printf@i3Stream@@UAAIPADPBDZZ:PROC		; i3Stream::Printf
EXTRN	?GetMeta@i3FileStream@@UAEPAVi3ClassMeta@@XZ:PROC ; i3FileStream::GetMeta
EXTRN	??1i3FileStream@@UAE@XZ:PROC			; i3FileStream::~i3FileStream
EXTRN	?Create@i3FileStream@@UAEHPBDHI@Z:PROC		; i3FileStream::Create
EXTRN	?Open@i3FileStream@@UAEHPBDHI@Z:PROC		; i3FileStream::Open
EXTRN	?Close@i3FileStream@@UAEHXZ:PROC		; i3FileStream::Close
EXTRN	?Read@i3FileStream@@UAEIPAXH@Z:PROC		; i3FileStream::Read
EXTRN	?Write@i3FileStream@@UAEIPBXH@Z:PROC		; i3FileStream::Write
EXTRN	?SetPosition@i3FileStream@@UAEIHH@Z:PROC	; i3FileStream::SetPosition
EXTRN	?GetPosition@i3FileStream@@UAEIXZ:PROC		; i3FileStream::GetPosition
EXTRN	?assign@TiXmlString@@QAEAAV1@PBDI@Z:PROC	; TiXmlString::assign
EXTRN	?append@TiXmlString@@QAEAAV1@PBDI@Z:PROC	; TiXmlString::append
EXTRN	?GetEntity@TiXmlBase@@KAPBDPBDPADPAHW4TiXmlEncoding@@@Z:PROC ; TiXmlBase::GetEntity
EXTRN	??1TiXmlNode@@UAE@XZ:PROC			; TiXmlNode::~TiXmlNode
EXTRN	?FirstChild@TiXmlNode@@QBEPBV1@PBD@Z:PROC	; TiXmlNode::FirstChild
EXTRN	?LastChild@TiXmlNode@@QBEPBV1@PBD@Z:PROC	; TiXmlNode::LastChild
EXTRN	?IterateChildren@TiXmlNode@@QBEPBV1@PBV1@@Z:PROC ; TiXmlNode::IterateChildren
EXTRN	?IterateChildren@TiXmlNode@@QBEPBV1@PBDPBV1@@Z:PROC ; TiXmlNode::IterateChildren
EXTRN	?PreviousSibling@TiXmlNode@@QBEPBV1@PBD@Z:PROC	; TiXmlNode::PreviousSibling
EXTRN	?NextSibling@TiXmlNode@@QBEPBV1@PBD@Z:PROC	; TiXmlNode::NextSibling
EXTRN	?NextSiblingElement@TiXmlNode@@QBEPBVTiXmlElement@@XZ:PROC ; TiXmlNode::NextSiblingElement
EXTRN	?NextSiblingElement@TiXmlNode@@QBEPBVTiXmlElement@@PBD@Z:PROC ; TiXmlNode::NextSiblingElement
EXTRN	?FirstChildElement@TiXmlNode@@QBEPBVTiXmlElement@@XZ:PROC ; TiXmlNode::FirstChildElement
EXTRN	?FirstChildElement@TiXmlNode@@QBEPBVTiXmlElement@@PBD@Z:PROC ; TiXmlNode::FirstChildElement
EXTRN	?GetDocument@TiXmlNode@@QBEPBVTiXmlDocument@@XZ:PROC ; TiXmlNode::GetDocument
EXTRN	??0TiXmlNode@@IAE@W4NodeType@0@@Z:PROC		; TiXmlNode::TiXmlNode
EXTRN	?Next@TiXmlAttribute@@QBEPBV1@XZ:PROC		; TiXmlAttribute::Next
EXTRN	?Previous@TiXmlAttribute@@QBEPBV1@XZ:PROC	; TiXmlAttribute::Previous
EXTRN	?Parse@TiXmlAttribute@@UAEPBDPBDPAVTiXmlParsingData@@W4TiXmlEncoding@@@Z:PROC ; TiXmlAttribute::Parse
EXTRN	?Print@TiXmlAttribute@@QBEXPAVi3FileStream@@HPAVTiXmlString@@@Z:PROC ; TiXmlAttribute::Print
EXTRN	?Find@TiXmlAttributeSet@@QBEPBVTiXmlAttribute@@PBD@Z:PROC ; TiXmlAttributeSet::Find
EXTRN	??0TiXmlElement@@QAE@ABV0@@Z:PROC		; TiXmlElement::TiXmlElement
EXTRN	??4TiXmlElement@@QAEXABV0@@Z:PROC		; TiXmlElement::operator=
EXTRN	?Attribute@TiXmlElement@@QBEPBDPBD@Z:PROC	; TiXmlElement::Attribute
EXTRN	?Attribute@TiXmlElement@@QBEPBDPBDPAH@Z:PROC	; TiXmlElement::Attribute
EXTRN	?AttributeLong@TiXmlElement@@QBEPBDPBDPA_J@Z:PROC ; TiXmlElement::AttributeLong
EXTRN	?Attribute@TiXmlElement@@QBEPBDPBDPAN@Z:PROC	; TiXmlElement::Attribute
EXTRN	?QueryDoubleAttribute@TiXmlElement@@QBEHPBDPAN@Z:PROC ; TiXmlElement::QueryDoubleAttribute
EXTRN	?SetAttribute@TiXmlElement@@QAEXPBD0@Z:PROC	; TiXmlElement::SetAttribute
EXTRN	?SetAttribute@TiXmlElement@@QAEXPBDH@Z:PROC	; TiXmlElement::SetAttribute
EXTRN	?SetLongLongAttribute@TiXmlElement@@QAEXPBD_J@Z:PROC ; TiXmlElement::SetLongLongAttribute
EXTRN	?SetAttribute@TiXmlElement@@QAEXPBDM@Z:PROC	; TiXmlElement::SetAttribute
EXTRN	?Clone@TiXmlElement@@UBEPAVTiXmlNode@@XZ:PROC	; TiXmlElement::Clone
EXTRN	?Print@TiXmlElement@@UBEXPAVi3FileStream@@H@Z:PROC ; TiXmlElement::Print
EXTRN	?Parse@TiXmlElement@@UAEPBDPBDPAVTiXmlParsingData@@W4TiXmlEncoding@@@Z:PROC ; TiXmlElement::Parse
EXTRN	?Accept@TiXmlElement@@UBE_NPAVTiXmlVisitor@@@Z:PROC ; TiXmlElement::Accept
EXTRN	?Clone@TiXmlComment@@UBEPAVTiXmlNode@@XZ:PROC	; TiXmlComment::Clone
EXTRN	?Print@TiXmlComment@@UBEXPAVi3FileStream@@H@Z:PROC ; TiXmlComment::Print
EXTRN	?Parse@TiXmlComment@@UAEPBDPBDPAVTiXmlParsingData@@W4TiXmlEncoding@@@Z:PROC ; TiXmlComment::Parse
EXTRN	?Accept@TiXmlComment@@UBE_NPAVTiXmlVisitor@@@Z:PROC ; TiXmlComment::Accept
EXTRN	?Print@TiXmlText@@UBEXPAVi3FileStream@@H@Z:PROC	; TiXmlText::Print
EXTRN	?Parse@TiXmlText@@UAEPBDPBDPAVTiXmlParsingData@@W4TiXmlEncoding@@@Z:PROC ; TiXmlText::Parse
EXTRN	?Accept@TiXmlText@@UBE_NPAVTiXmlVisitor@@@Z:PROC ; TiXmlText::Accept
EXTRN	?Clone@TiXmlText@@MBEPAVTiXmlNode@@XZ:PROC	; TiXmlText::Clone
EXTRN	?CopyTo@TiXmlText@@IBEXPAV1@@Z:PROC		; TiXmlText::CopyTo
EXTRN	?Clone@TiXmlDeclaration@@UBEPAVTiXmlNode@@XZ:PROC ; TiXmlDeclaration::Clone
EXTRN	?Print@TiXmlDeclaration@@UBEXPAVi3FileStream@@HPAVTiXmlString@@@Z:PROC ; TiXmlDeclaration::Print
EXTRN	?Parse@TiXmlDeclaration@@UAEPBDPBDPAVTiXmlParsingData@@W4TiXmlEncoding@@@Z:PROC ; TiXmlDeclaration::Parse
EXTRN	?Accept@TiXmlDeclaration@@UBE_NPAVTiXmlVisitor@@@Z:PROC ; TiXmlDeclaration::Accept
EXTRN	?Clone@TiXmlUnknown@@UBEPAVTiXmlNode@@XZ:PROC	; TiXmlUnknown::Clone
EXTRN	?Print@TiXmlUnknown@@UBEXPAVi3FileStream@@H@Z:PROC ; TiXmlUnknown::Print
EXTRN	?Parse@TiXmlUnknown@@UAEPBDPBDPAVTiXmlParsingData@@W4TiXmlEncoding@@@Z:PROC ; TiXmlUnknown::Parse
EXTRN	?Accept@TiXmlUnknown@@UBE_NPAVTiXmlVisitor@@@Z:PROC ; TiXmlUnknown::Accept
EXTRN	?CopyTo@TiXmlUnknown@@IBEXPAV1@@Z:PROC		; TiXmlUnknown::CopyTo
EXTRN	?Parse@TiXmlDocument@@UAEPBDPBDPAVTiXmlParsingData@@W4TiXmlEncoding@@@Z:PROC ; TiXmlDocument::Parse
EXTRN	?Print@TiXmlDocument@@UBEXPAVi3FileStream@@H@Z:PROC ; TiXmlDocument::Print
EXTRN	?Accept@TiXmlDocument@@UBE_NPAVTiXmlVisitor@@@Z:PROC ; TiXmlDocument::Accept
EXTRN	?Clone@TiXmlDocument@@MBEPAVTiXmlNode@@XZ:PROC	; TiXmlDocument::Clone
EXTRN	?VisitEnter@TiXmlPrinter@@UAE_NABVTiXmlDocument@@@Z:PROC ; TiXmlPrinter::VisitEnter
EXTRN	?VisitExit@TiXmlPrinter@@UAE_NABVTiXmlDocument@@@Z:PROC ; TiXmlPrinter::VisitExit
EXTRN	?VisitEnter@TiXmlPrinter@@UAE_NABVTiXmlElement@@PBVTiXmlAttribute@@@Z:PROC ; TiXmlPrinter::VisitEnter
EXTRN	?VisitExit@TiXmlPrinter@@UAE_NABVTiXmlElement@@@Z:PROC ; TiXmlPrinter::VisitExit
EXTRN	?Visit@TiXmlPrinter@@UAE_NABVTiXmlDeclaration@@@Z:PROC ; TiXmlPrinter::Visit
EXTRN	?Visit@TiXmlPrinter@@UAE_NABVTiXmlText@@@Z:PROC	; TiXmlPrinter::Visit
EXTRN	?Visit@TiXmlPrinter@@UAE_NABVTiXmlComment@@@Z:PROC ; TiXmlPrinter::Visit
EXTRN	?Visit@TiXmlPrinter@@UAE_NABVTiXmlUnknown@@@Z:PROC ; TiXmlPrinter::Visit
EXTRN	??1i3XMLElement@@UAE@XZ:PROC			; i3XMLElement::~i3XMLElement
EXTRN	?GetMeta@i3List@@UAEPAVi3ClassMeta@@XZ:PROC	; i3List::GetMeta
EXTRN	??0i3List@@QAE@H@Z:PROC				; i3List::i3List
EXTRN	??1i3List@@UAE@XZ:PROC				; i3List::~i3List
EXTRN	?IndexOf@i3List@@UBEHPBX@Z:PROC			; i3List::IndexOf
EXTRN	?Add@i3List@@UAEHPAX@Z:PROC			; i3List::Add
EXTRN	?Insert@i3List@@UAEHHPAX@Z:PROC			; i3List::Insert
EXTRN	?Delete@i3List@@UAEHH@Z:PROC			; i3List::Delete
EXTRN	?Remove@i3List@@UAEHPAX@Z:PROC			; i3List::Remove
EXTRN	?Clear@i3List@@UAEXH@Z:PROC			; i3List::Clear
EXTRN	?GetMeta@i3StringList@@UAEPAVi3ClassMeta@@XZ:PROC ; i3StringList::GetMeta
EXTRN	??0i3StringList@@QAE@H@Z:PROC			; i3StringList::i3StringList
EXTRN	??1i3StringList@@UAE@XZ:PROC			; i3StringList::~i3StringList
EXTRN	?IndexOf@i3StringList@@UBEHPAD@Z:PROC		; i3StringList::IndexOf
EXTRN	?Add@i3StringList@@UAEHPADH@Z:PROC		; i3StringList::Add
EXTRN	?Insert@i3StringList@@UAEHHPADH@Z:PROC		; i3StringList::Insert
EXTRN	?Delete@i3StringList@@UAEHH@Z:PROC		; i3StringList::Delete
EXTRN	?Remove@i3StringList@@UAEHPAD@Z:PROC		; i3StringList::Remove
EXTRN	?Clear@i3StringList@@UAEXXZ:PROC		; i3StringList::Clear
EXTRN	?Compare@i3String@@YAHPBD0@Z:PROC		; i3String::Compare
EXTRN	?NCompare@i3String@@YAHPBD0H@Z:PROC		; i3String::NCompare
EXTRN	?Copy@i3String@@YAXPADPBDH@Z:PROC		; i3String::Copy
EXTRN	?NCopy@i3String@@YAXPADPBDH@Z:PROC		; i3String::NCopy
EXTRN	?Length@i3String@@YAHPBD@Z:PROC			; i3String::Length
EXTRN	?Concat@i3String@@YAXPADPBD@Z:PROC		; i3String::Concat
EXTRN	?ToInt@i3String@@YAHPBD@Z:PROC			; i3String::ToInt
EXTRN	?Format@i3String@@YAHPADHPBDZZ:PROC		; i3String::Format
EXTRN	?Gen@i3MD5@@YAXPADHQAD@Z:PROC			; i3MD5::Gen
EXTRN	?GetMD5String@i3MD5@@YAXPADVUINT128@@@Z:PROC	; i3MD5::GetMD5String
EXTRN	@__security_check_cookie@4:PROC
EXTRN	___CxxFrameHandler3:PROC
EXTRN	_memcpy:PROC
EXTRN	_memset:PROC
EXTRN	?s_pClassMetai3ElementBase@i3ElementBase@@2PAVi3ClassMeta@@A:DWORD ; i3ElementBase::s_pClassMetai3ElementBase
EXTRN	?s_pClassMetai3Stream@i3Stream@@2PAVi3ClassMeta@@A:DWORD ; i3Stream::s_pClassMetai3Stream
EXTRN	?s_pClassMetai3FileStream@i3FileStream@@2PAVi3ClassMeta@@A:DWORD ; i3FileStream::s_pClassMetai3FileStream
EXTRN	?m_bCaseSensitive@i3FileStream@@1HA:DWORD	; i3FileStream::m_bCaseSensitive
EXTRN	?npos@TiXmlString@@2IB:DWORD			; TiXmlString::npos
EXTRN	?nullrep_@TiXmlString@@0URep@1@A:BYTE		; TiXmlString::nullrep_
EXTRN	?utf8ByteTable@TiXmlBase@@2QBHB:BYTE		; TiXmlBase::utf8ByteTable
EXTRN	?condenseWhiteSpace@TiXmlBase@@0_NA:BYTE	; TiXmlBase::condenseWhiteSpace
EXTRN	?s_pClassMetai3List@i3List@@2PAVi3ClassMeta@@A:DWORD ; i3List::s_pClassMetai3List
EXTRN	?s_pClassMetai3StringList@i3StringList@@2PAVi3ClassMeta@@A:DWORD ; i3StringList::s_pClassMetai3StringList
EXTRN	___security_cookie:DWORD
EXTRN	__fltused:DWORD
_BSS	SEGMENT
?s_ClassMetai3NetworkHTTP@@3V?$i3MetaTemplate@Vi3NetworkHTTP@@@@A DB 038H DUP (?) ; s_ClassMetai3NetworkHTTP
_BSS	ENDS
CRT$XCU	SEGMENT
?s_ClassMetai3NetworkHTTP$initializer$@@3P6AXXZA DD FLAT:??__Es_ClassMetai3NetworkHTTP@@YAXXZ ; s_ClassMetai3NetworkHTTP$initializer$
CRT$XCU	ENDS
;	COMDAT ??_R1A@?0A@EA@i3NetworkHTTP@@8
rdata$r	SEGMENT
??_R1A@?0A@EA@i3NetworkHTTP@@8 DD FLAT:??_R0?AVi3NetworkHTTP@@@8 ; i3NetworkHTTP::`RTTI Base Class Descriptor at (0,-1,0,64)'
	DD	01H
	DD	00H
	DD	0ffffffffH
	DD	00H
	DD	040H
	DD	FLAT:??_R3i3NetworkHTTP@@8
rdata$r	ENDS
;	COMDAT ??_R2i3NetworkHTTP@@8
rdata$r	SEGMENT
??_R2i3NetworkHTTP@@8 DD FLAT:??_R1A@?0A@EA@i3NetworkHTTP@@8 ; i3NetworkHTTP::`RTTI Base Class Array'
	DD	FLAT:??_R1A@?0A@EA@i3ElementBase@@8
rdata$r	ENDS
;	COMDAT ??_R3i3NetworkHTTP@@8
rdata$r	SEGMENT
??_R3i3NetworkHTTP@@8 DD 00H				; i3NetworkHTTP::`RTTI Class Hierarchy Descriptor'
	DD	00H
	DD	02H
	DD	FLAT:??_R2i3NetworkHTTP@@8
rdata$r	ENDS
;	COMDAT ??_R0?AVi3NetworkHTTP@@@8
data$rs	SEGMENT
??_R0?AVi3NetworkHTTP@@@8 DD FLAT:??_7type_info@@6B@	; i3NetworkHTTP `RTTI Type Descriptor'
	DD	00H
	DB	'.?AVi3NetworkHTTP@@', 00H
data$rs	ENDS
;	COMDAT ??_R4i3NetworkHTTP@@6B@
rdata$r	SEGMENT
??_R4i3NetworkHTTP@@6B@ DD 00H				; i3NetworkHTTP::`RTTI Complete Object Locator'
	DD	00H
	DD	00H
	DD	FLAT:??_R0?AVi3NetworkHTTP@@@8
	DD	FLAT:??_R3i3NetworkHTTP@@8
rdata$r	ENDS
;	COMDAT ??_R2TiXmlElement@@8
rdata$r	SEGMENT
??_R2TiXmlElement@@8 DD FLAT:??_R1A@?0A@EA@TiXmlElement@@8 ; TiXmlElement::`RTTI Base Class Array'
	DD	FLAT:??_R1A@?0A@EA@TiXmlNode@@8
	DD	FLAT:??_R1A@?0A@EA@TiXmlBase@@8
rdata$r	ENDS
;	COMDAT ??_R3TiXmlElement@@8
rdata$r	SEGMENT
??_R3TiXmlElement@@8 DD 00H				; TiXmlElement::`RTTI Class Hierarchy Descriptor'
	DD	00H
	DD	03H
	DD	FLAT:??_R2TiXmlElement@@8
rdata$r	ENDS
;	COMDAT ??_R0?AVTiXmlElement@@@8
data$rs	SEGMENT
??_R0?AVTiXmlElement@@@8 DD FLAT:??_7type_info@@6B@	; TiXmlElement `RTTI Type Descriptor'
	DD	00H
	DB	'.?AVTiXmlElement@@', 00H
data$rs	ENDS
;	COMDAT ??_R1A@?0A@EA@TiXmlElement@@8
rdata$r	SEGMENT
??_R1A@?0A@EA@TiXmlElement@@8 DD FLAT:??_R0?AVTiXmlElement@@@8 ; TiXmlElement::`RTTI Base Class Descriptor at (0,-1,0,64)'
	DD	02H
	DD	00H
	DD	0ffffffffH
	DD	00H
	DD	040H
	DD	FLAT:??_R3TiXmlElement@@8
rdata$r	ENDS
;	COMDAT ??_R1A@?0A@EA@i3XMLElement@@8
rdata$r	SEGMENT
??_R1A@?0A@EA@i3XMLElement@@8 DD FLAT:??_R0?AVi3XMLElement@@@8 ; i3XMLElement::`RTTI Base Class Descriptor at (0,-1,0,64)'
	DD	03H
	DD	00H
	DD	0ffffffffH
	DD	00H
	DD	040H
	DD	FLAT:??_R3i3XMLElement@@8
rdata$r	ENDS
;	COMDAT ??_R2i3XMLElement@@8
rdata$r	SEGMENT
??_R2i3XMLElement@@8 DD FLAT:??_R1A@?0A@EA@i3XMLElement@@8 ; i3XMLElement::`RTTI Base Class Array'
	DD	FLAT:??_R1A@?0A@EA@TiXmlElement@@8
	DD	FLAT:??_R1A@?0A@EA@TiXmlNode@@8
	DD	FLAT:??_R1A@?0A@EA@TiXmlBase@@8
rdata$r	ENDS
;	COMDAT ??_R3i3XMLElement@@8
rdata$r	SEGMENT
??_R3i3XMLElement@@8 DD 00H				; i3XMLElement::`RTTI Class Hierarchy Descriptor'
	DD	00H
	DD	04H
	DD	FLAT:??_R2i3XMLElement@@8
rdata$r	ENDS
;	COMDAT ??_R0?AVi3XMLElement@@@8
data$rs	SEGMENT
??_R0?AVi3XMLElement@@@8 DD FLAT:??_7type_info@@6B@	; i3XMLElement `RTTI Type Descriptor'
	DD	00H
	DB	'.?AVi3XMLElement@@', 00H
data$rs	ENDS
;	COMDAT ??_R4i3XMLElement@@6B@
rdata$r	SEGMENT
??_R4i3XMLElement@@6B@ DD 00H				; i3XMLElement::`RTTI Complete Object Locator'
	DD	00H
	DD	00H
	DD	FLAT:??_R0?AVi3XMLElement@@@8
	DD	FLAT:??_R3i3XMLElement@@8
rdata$r	ENDS
;	COMDAT ??_R1A@?0A@EA@TiXmlPrinter@@8
rdata$r	SEGMENT
??_R1A@?0A@EA@TiXmlPrinter@@8 DD FLAT:??_R0?AVTiXmlPrinter@@@8 ; TiXmlPrinter::`RTTI Base Class Descriptor at (0,-1,0,64)'
	DD	01H
	DD	00H
	DD	0ffffffffH
	DD	00H
	DD	040H
	DD	FLAT:??_R3TiXmlPrinter@@8
rdata$r	ENDS
;	COMDAT ??_R2TiXmlPrinter@@8
rdata$r	SEGMENT
??_R2TiXmlPrinter@@8 DD FLAT:??_R1A@?0A@EA@TiXmlPrinter@@8 ; TiXmlPrinter::`RTTI Base Class Array'
	DD	FLAT:??_R1A@?0A@EA@TiXmlVisitor@@8
rdata$r	ENDS
;	COMDAT ??_R3TiXmlPrinter@@8
rdata$r	SEGMENT
??_R3TiXmlPrinter@@8 DD 00H				; TiXmlPrinter::`RTTI Class Hierarchy Descriptor'
	DD	00H
	DD	02H
	DD	FLAT:??_R2TiXmlPrinter@@8
rdata$r	ENDS
;	COMDAT ??_R0?AVTiXmlPrinter@@@8
data$rs	SEGMENT
??_R0?AVTiXmlPrinter@@@8 DD FLAT:??_7type_info@@6B@	; TiXmlPrinter `RTTI Type Descriptor'
	DD	00H
	DB	'.?AVTiXmlPrinter@@', 00H
data$rs	ENDS
;	COMDAT ??_R4TiXmlPrinter@@6B@
rdata$r	SEGMENT
??_R4TiXmlPrinter@@6B@ DD 00H				; TiXmlPrinter::`RTTI Complete Object Locator'
	DD	00H
	DD	00H
	DD	FLAT:??_R0?AVTiXmlPrinter@@@8
	DD	FLAT:??_R3TiXmlPrinter@@8
rdata$r	ENDS
;	COMDAT ??_R4TiXmlBase@@6B@
rdata$r	SEGMENT
??_R4TiXmlBase@@6B@ DD 00H				; TiXmlBase::`RTTI Complete Object Locator'
	DD	00H
	DD	00H
	DD	FLAT:??_R0?AVTiXmlBase@@@8
	DD	FLAT:??_R3TiXmlBase@@8
rdata$r	ENDS
;	COMDAT ??_R1A@?0A@EA@TiXmlVisitor@@8
rdata$r	SEGMENT
??_R1A@?0A@EA@TiXmlVisitor@@8 DD FLAT:??_R0?AVTiXmlVisitor@@@8 ; TiXmlVisitor::`RTTI Base Class Descriptor at (0,-1,0,64)'
	DD	00H
	DD	00H
	DD	0ffffffffH
	DD	00H
	DD	040H
	DD	FLAT:??_R3TiXmlVisitor@@8
rdata$r	ENDS
;	COMDAT ??_R2TiXmlVisitor@@8
rdata$r	SEGMENT
??_R2TiXmlVisitor@@8 DD FLAT:??_R1A@?0A@EA@TiXmlVisitor@@8 ; TiXmlVisitor::`RTTI Base Class Array'
rdata$r	ENDS
;	COMDAT ??_R3TiXmlVisitor@@8
rdata$r	SEGMENT
??_R3TiXmlVisitor@@8 DD 00H				; TiXmlVisitor::`RTTI Class Hierarchy Descriptor'
	DD	00H
	DD	01H
	DD	FLAT:??_R2TiXmlVisitor@@8
rdata$r	ENDS
;	COMDAT ??_R0?AVTiXmlVisitor@@@8
data$rs	SEGMENT
??_R0?AVTiXmlVisitor@@@8 DD FLAT:??_7type_info@@6B@	; TiXmlVisitor `RTTI Type Descriptor'
	DD	00H
	DB	'.?AVTiXmlVisitor@@', 00H
data$rs	ENDS
;	COMDAT ??_R4TiXmlVisitor@@6B@
rdata$r	SEGMENT
??_R4TiXmlVisitor@@6B@ DD 00H				; TiXmlVisitor::`RTTI Complete Object Locator'
	DD	00H
	DD	00H
	DD	FLAT:??_R0?AVTiXmlVisitor@@@8
	DD	FLAT:??_R3TiXmlVisitor@@8
rdata$r	ENDS
;	COMDAT ??_R1A@?0A@EA@TiXmlDeclaration@@8
rdata$r	SEGMENT
??_R1A@?0A@EA@TiXmlDeclaration@@8 DD FLAT:??_R0?AVTiXmlDeclaration@@@8 ; TiXmlDeclaration::`RTTI Base Class Descriptor at (0,-1,0,64)'
	DD	02H
	DD	00H
	DD	0ffffffffH
	DD	00H
	DD	040H
	DD	FLAT:??_R3TiXmlDeclaration@@8
rdata$r	ENDS
;	COMDAT ??_R2TiXmlDeclaration@@8
rdata$r	SEGMENT
??_R2TiXmlDeclaration@@8 DD FLAT:??_R1A@?0A@EA@TiXmlDeclaration@@8 ; TiXmlDeclaration::`RTTI Base Class Array'
	DD	FLAT:??_R1A@?0A@EA@TiXmlNode@@8
	DD	FLAT:??_R1A@?0A@EA@TiXmlBase@@8
rdata$r	ENDS
;	COMDAT ??_R3TiXmlDeclaration@@8
rdata$r	SEGMENT
??_R3TiXmlDeclaration@@8 DD 00H				; TiXmlDeclaration::`RTTI Class Hierarchy Descriptor'
	DD	00H
	DD	03H
	DD	FLAT:??_R2TiXmlDeclaration@@8
rdata$r	ENDS
;	COMDAT ??_R0?AVTiXmlDeclaration@@@8
data$rs	SEGMENT
??_R0?AVTiXmlDeclaration@@@8 DD FLAT:??_7type_info@@6B@	; TiXmlDeclaration `RTTI Type Descriptor'
	DD	00H
	DB	'.?AVTiXmlDeclaration@@', 00H
data$rs	ENDS
;	COMDAT ??_R4TiXmlDeclaration@@6B@
rdata$r	SEGMENT
??_R4TiXmlDeclaration@@6B@ DD 00H			; TiXmlDeclaration::`RTTI Complete Object Locator'
	DD	00H
	DD	00H
	DD	FLAT:??_R0?AVTiXmlDeclaration@@@8
	DD	FLAT:??_R3TiXmlDeclaration@@8
rdata$r	ENDS
;	COMDAT ??_R1A@?0A@EA@TiXmlText@@8
rdata$r	SEGMENT
??_R1A@?0A@EA@TiXmlText@@8 DD FLAT:??_R0?AVTiXmlText@@@8 ; TiXmlText::`RTTI Base Class Descriptor at (0,-1,0,64)'
	DD	02H
	DD	00H
	DD	0ffffffffH
	DD	00H
	DD	040H
	DD	FLAT:??_R3TiXmlText@@8
rdata$r	ENDS
;	COMDAT ??_R2TiXmlText@@8
rdata$r	SEGMENT
??_R2TiXmlText@@8 DD FLAT:??_R1A@?0A@EA@TiXmlText@@8	; TiXmlText::`RTTI Base Class Array'
	DD	FLAT:??_R1A@?0A@EA@TiXmlNode@@8
	DD	FLAT:??_R1A@?0A@EA@TiXmlBase@@8
rdata$r	ENDS
;	COMDAT ??_R3TiXmlText@@8
rdata$r	SEGMENT
??_R3TiXmlText@@8 DD 00H				; TiXmlText::`RTTI Class Hierarchy Descriptor'
	DD	00H
	DD	03H
	DD	FLAT:??_R2TiXmlText@@8
rdata$r	ENDS
;	COMDAT ??_R0?AVTiXmlText@@@8
data$rs	SEGMENT
??_R0?AVTiXmlText@@@8 DD FLAT:??_7type_info@@6B@	; TiXmlText `RTTI Type Descriptor'
	DD	00H
	DB	'.?AVTiXmlText@@', 00H
data$rs	ENDS
;	COMDAT ??_R4TiXmlText@@6B@
rdata$r	SEGMENT
??_R4TiXmlText@@6B@ DD 00H				; TiXmlText::`RTTI Complete Object Locator'
	DD	00H
	DD	00H
	DD	FLAT:??_R0?AVTiXmlText@@@8
	DD	FLAT:??_R3TiXmlText@@8
rdata$r	ENDS
;	COMDAT ??_R1A@?0A@EA@TiXmlAttribute@@8
rdata$r	SEGMENT
??_R1A@?0A@EA@TiXmlAttribute@@8 DD FLAT:??_R0?AVTiXmlAttribute@@@8 ; TiXmlAttribute::`RTTI Base Class Descriptor at (0,-1,0,64)'
	DD	01H
	DD	00H
	DD	0ffffffffH
	DD	00H
	DD	040H
	DD	FLAT:??_R3TiXmlAttribute@@8
rdata$r	ENDS
;	COMDAT ??_R2TiXmlAttribute@@8
rdata$r	SEGMENT
??_R2TiXmlAttribute@@8 DD FLAT:??_R1A@?0A@EA@TiXmlAttribute@@8 ; TiXmlAttribute::`RTTI Base Class Array'
	DD	FLAT:??_R1A@?0A@EA@TiXmlBase@@8
rdata$r	ENDS
;	COMDAT ??_R3TiXmlAttribute@@8
rdata$r	SEGMENT
??_R3TiXmlAttribute@@8 DD 00H				; TiXmlAttribute::`RTTI Class Hierarchy Descriptor'
	DD	00H
	DD	02H
	DD	FLAT:??_R2TiXmlAttribute@@8
rdata$r	ENDS
;	COMDAT ??_R0?AVTiXmlAttribute@@@8
data$rs	SEGMENT
??_R0?AVTiXmlAttribute@@@8 DD FLAT:??_7type_info@@6B@	; TiXmlAttribute `RTTI Type Descriptor'
	DD	00H
	DB	'.?AVTiXmlAttribute@@', 00H
data$rs	ENDS
;	COMDAT ??_R4TiXmlAttribute@@6B@
rdata$r	SEGMENT
??_R4TiXmlAttribute@@6B@ DD 00H				; TiXmlAttribute::`RTTI Complete Object Locator'
	DD	00H
	DD	00H
	DD	FLAT:??_R0?AVTiXmlAttribute@@@8
	DD	FLAT:??_R3TiXmlAttribute@@8
rdata$r	ENDS
;	COMDAT ??_R1A@?0A@EA@TiXmlUnknown@@8
rdata$r	SEGMENT
??_R1A@?0A@EA@TiXmlUnknown@@8 DD FLAT:??_R0?AVTiXmlUnknown@@@8 ; TiXmlUnknown::`RTTI Base Class Descriptor at (0,-1,0,64)'
	DD	02H
	DD	00H
	DD	0ffffffffH
	DD	00H
	DD	040H
	DD	FLAT:??_R3TiXmlUnknown@@8
rdata$r	ENDS
;	COMDAT ??_R2TiXmlUnknown@@8
rdata$r	SEGMENT
??_R2TiXmlUnknown@@8 DD FLAT:??_R1A@?0A@EA@TiXmlUnknown@@8 ; TiXmlUnknown::`RTTI Base Class Array'
	DD	FLAT:??_R1A@?0A@EA@TiXmlNode@@8
	DD	FLAT:??_R1A@?0A@EA@TiXmlBase@@8
rdata$r	ENDS
;	COMDAT ??_R3TiXmlUnknown@@8
rdata$r	SEGMENT
??_R3TiXmlUnknown@@8 DD 00H				; TiXmlUnknown::`RTTI Class Hierarchy Descriptor'
	DD	00H
	DD	03H
	DD	FLAT:??_R2TiXmlUnknown@@8
rdata$r	ENDS
;	COMDAT ??_R0?AVTiXmlUnknown@@@8
data$rs	SEGMENT
??_R0?AVTiXmlUnknown@@@8 DD FLAT:??_7type_info@@6B@	; TiXmlUnknown `RTTI Type Descriptor'
	DD	00H
	DB	'.?AVTiXmlUnknown@@', 00H
data$rs	ENDS
;	COMDAT ??_R4TiXmlUnknown@@6B@
rdata$r	SEGMENT
??_R4TiXmlUnknown@@6B@ DD 00H				; TiXmlUnknown::`RTTI Complete Object Locator'
	DD	00H
	DD	00H
	DD	FLAT:??_R0?AVTiXmlUnknown@@@8
	DD	FLAT:??_R3TiXmlUnknown@@8
rdata$r	ENDS
;	COMDAT ??_R1A@?0A@EA@TiXmlComment@@8
rdata$r	SEGMENT
??_R1A@?0A@EA@TiXmlComment@@8 DD FLAT:??_R0?AVTiXmlComment@@@8 ; TiXmlComment::`RTTI Base Class Descriptor at (0,-1,0,64)'
	DD	02H
	DD	00H
	DD	0ffffffffH
	DD	00H
	DD	040H
	DD	FLAT:??_R3TiXmlComment@@8
rdata$r	ENDS
;	COMDAT ??_R2TiXmlComment@@8
rdata$r	SEGMENT
??_R2TiXmlComment@@8 DD FLAT:??_R1A@?0A@EA@TiXmlComment@@8 ; TiXmlComment::`RTTI Base Class Array'
	DD	FLAT:??_R1A@?0A@EA@TiXmlNode@@8
	DD	FLAT:??_R1A@?0A@EA@TiXmlBase@@8
rdata$r	ENDS
;	COMDAT ??_R3TiXmlComment@@8
rdata$r	SEGMENT
??_R3TiXmlComment@@8 DD 00H				; TiXmlComment::`RTTI Class Hierarchy Descriptor'
	DD	00H
	DD	03H
	DD	FLAT:??_R2TiXmlComment@@8
rdata$r	ENDS
;	COMDAT ??_R0?AVTiXmlComment@@@8
data$rs	SEGMENT
??_R0?AVTiXmlComment@@@8 DD FLAT:??_7type_info@@6B@	; TiXmlComment `RTTI Type Descriptor'
	DD	00H
	DB	'.?AVTiXmlComment@@', 00H
data$rs	ENDS
;	COMDAT ??_R4TiXmlComment@@6B@
rdata$r	SEGMENT
??_R4TiXmlComment@@6B@ DD 00H				; TiXmlComment::`RTTI Complete Object Locator'
	DD	00H
	DD	00H
	DD	FLAT:??_R0?AVTiXmlComment@@@8
	DD	FLAT:??_R3TiXmlComment@@8
rdata$r	ENDS
;	COMDAT ??_R2TiXmlBase@@8
rdata$r	SEGMENT
??_R2TiXmlBase@@8 DD FLAT:??_R1A@?0A@EA@TiXmlBase@@8	; TiXmlBase::`RTTI Base Class Array'
rdata$r	ENDS
;	COMDAT ??_R3TiXmlBase@@8
rdata$r	SEGMENT
??_R3TiXmlBase@@8 DD 00H				; TiXmlBase::`RTTI Class Hierarchy Descriptor'
	DD	00H
	DD	01H
	DD	FLAT:??_R2TiXmlBase@@8
rdata$r	ENDS
;	COMDAT ??_R0?AVTiXmlBase@@@8
data$rs	SEGMENT
??_R0?AVTiXmlBase@@@8 DD FLAT:??_7type_info@@6B@	; TiXmlBase `RTTI Type Descriptor'
	DD	00H
	DB	'.?AVTiXmlBase@@', 00H
data$rs	ENDS
;	COMDAT ??_R1A@?0A@EA@TiXmlBase@@8
rdata$r	SEGMENT
??_R1A@?0A@EA@TiXmlBase@@8 DD FLAT:??_R0?AVTiXmlBase@@@8 ; TiXmlBase::`RTTI Base Class Descriptor at (0,-1,0,64)'
	DD	00H
	DD	00H
	DD	0ffffffffH
	DD	00H
	DD	040H
	DD	FLAT:??_R3TiXmlBase@@8
rdata$r	ENDS
;	COMDAT ??_R2TiXmlNode@@8
rdata$r	SEGMENT
??_R2TiXmlNode@@8 DD FLAT:??_R1A@?0A@EA@TiXmlNode@@8	; TiXmlNode::`RTTI Base Class Array'
	DD	FLAT:??_R1A@?0A@EA@TiXmlBase@@8
rdata$r	ENDS
;	COMDAT ??_R3TiXmlNode@@8
rdata$r	SEGMENT
??_R3TiXmlNode@@8 DD 00H				; TiXmlNode::`RTTI Class Hierarchy Descriptor'
	DD	00H
	DD	02H
	DD	FLAT:??_R2TiXmlNode@@8
rdata$r	ENDS
;	COMDAT ??_R0?AVTiXmlNode@@@8
data$rs	SEGMENT
??_R0?AVTiXmlNode@@@8 DD FLAT:??_7type_info@@6B@	; TiXmlNode `RTTI Type Descriptor'
	DD	00H
	DB	'.?AVTiXmlNode@@', 00H
data$rs	ENDS
;	COMDAT ??_R1A@?0A@EA@TiXmlNode@@8
rdata$r	SEGMENT
??_R1A@?0A@EA@TiXmlNode@@8 DD FLAT:??_R0?AVTiXmlNode@@@8 ; TiXmlNode::`RTTI Base Class Descriptor at (0,-1,0,64)'
	DD	01H
	DD	00H
	DD	0ffffffffH
	DD	00H
	DD	040H
	DD	FLAT:??_R3TiXmlNode@@8
rdata$r	ENDS
;	COMDAT ??_R1A@?0A@EA@TiXmlDocument@@8
rdata$r	SEGMENT
??_R1A@?0A@EA@TiXmlDocument@@8 DD FLAT:??_R0?AVTiXmlDocument@@@8 ; TiXmlDocument::`RTTI Base Class Descriptor at (0,-1,0,64)'
	DD	02H
	DD	00H
	DD	0ffffffffH
	DD	00H
	DD	040H
	DD	FLAT:??_R3TiXmlDocument@@8
rdata$r	ENDS
;	COMDAT ??_R2TiXmlDocument@@8
rdata$r	SEGMENT
??_R2TiXmlDocument@@8 DD FLAT:??_R1A@?0A@EA@TiXmlDocument@@8 ; TiXmlDocument::`RTTI Base Class Array'
	DD	FLAT:??_R1A@?0A@EA@TiXmlNode@@8
	DD	FLAT:??_R1A@?0A@EA@TiXmlBase@@8
rdata$r	ENDS
;	COMDAT ??_R3TiXmlDocument@@8
rdata$r	SEGMENT
??_R3TiXmlDocument@@8 DD 00H				; TiXmlDocument::`RTTI Class Hierarchy Descriptor'
	DD	00H
	DD	03H
	DD	FLAT:??_R2TiXmlDocument@@8
rdata$r	ENDS
;	COMDAT ??_R0?AVTiXmlDocument@@@8
data$rs	SEGMENT
??_R0?AVTiXmlDocument@@@8 DD FLAT:??_7type_info@@6B@	; TiXmlDocument `RTTI Type Descriptor'
	DD	00H
	DB	'.?AVTiXmlDocument@@', 00H
data$rs	ENDS
;	COMDAT ??_R4TiXmlDocument@@6B@
rdata$r	SEGMENT
??_R4TiXmlDocument@@6B@ DD 00H				; TiXmlDocument::`RTTI Complete Object Locator'
	DD	00H
	DD	00H
	DD	FLAT:??_R0?AVTiXmlDocument@@@8
	DD	FLAT:??_R3TiXmlDocument@@8
rdata$r	ENDS
;	COMDAT ??_R1A@?0A@EA@i3FileStream@@8
rdata$r	SEGMENT
??_R1A@?0A@EA@i3FileStream@@8 DD FLAT:??_R0?AVi3FileStream@@@8 ; i3FileStream::`RTTI Base Class Descriptor at (0,-1,0,64)'
	DD	02H
	DD	00H
	DD	0ffffffffH
	DD	00H
	DD	040H
	DD	FLAT:??_R3i3FileStream@@8
rdata$r	ENDS
;	COMDAT ??_R2i3FileStream@@8
rdata$r	SEGMENT
??_R2i3FileStream@@8 DD FLAT:??_R1A@?0A@EA@i3FileStream@@8 ; i3FileStream::`RTTI Base Class Array'
	DD	FLAT:??_R1A@?0A@EA@i3Stream@@8
	DD	FLAT:??_R1A@?0A@EA@i3ElementBase@@8
rdata$r	ENDS
;	COMDAT ??_R3i3FileStream@@8
rdata$r	SEGMENT
??_R3i3FileStream@@8 DD 00H				; i3FileStream::`RTTI Class Hierarchy Descriptor'
	DD	00H
	DD	03H
	DD	FLAT:??_R2i3FileStream@@8
rdata$r	ENDS
;	COMDAT ??_R0?AVi3FileStream@@@8
data$rs	SEGMENT
??_R0?AVi3FileStream@@@8 DD FLAT:??_7type_info@@6B@	; i3FileStream `RTTI Type Descriptor'
	DD	00H
	DB	'.?AVi3FileStream@@', 00H
data$rs	ENDS
;	COMDAT ??_R4i3FileStream@@6B@
rdata$r	SEGMENT
??_R4i3FileStream@@6B@ DD 00H				; i3FileStream::`RTTI Complete Object Locator'
	DD	00H
	DD	00H
	DD	FLAT:??_R0?AVi3FileStream@@@8
	DD	FLAT:??_R3i3FileStream@@8
rdata$r	ENDS
;	COMDAT ??_R1A@?0A@EA@i3Stream@@8
rdata$r	SEGMENT
??_R1A@?0A@EA@i3Stream@@8 DD FLAT:??_R0?AVi3Stream@@@8	; i3Stream::`RTTI Base Class Descriptor at (0,-1,0,64)'
	DD	01H
	DD	00H
	DD	0ffffffffH
	DD	00H
	DD	040H
	DD	FLAT:??_R3i3Stream@@8
rdata$r	ENDS
;	COMDAT ??_R2i3Stream@@8
rdata$r	SEGMENT
??_R2i3Stream@@8 DD FLAT:??_R1A@?0A@EA@i3Stream@@8	; i3Stream::`RTTI Base Class Array'
	DD	FLAT:??_R1A@?0A@EA@i3ElementBase@@8
rdata$r	ENDS
;	COMDAT ??_R3i3Stream@@8
rdata$r	SEGMENT
??_R3i3Stream@@8 DD 00H					; i3Stream::`RTTI Class Hierarchy Descriptor'
	DD	00H
	DD	02H
	DD	FLAT:??_R2i3Stream@@8
rdata$r	ENDS
;	COMDAT ??_R0?AVi3Stream@@@8
data$rs	SEGMENT
??_R0?AVi3Stream@@@8 DD FLAT:??_7type_info@@6B@		; i3Stream `RTTI Type Descriptor'
	DD	00H
	DB	'.?AVi3Stream@@', 00H
data$rs	ENDS
;	COMDAT ??_R4i3Stream@@6B@
rdata$r	SEGMENT
??_R4i3Stream@@6B@ DD 00H				; i3Stream::`RTTI Complete Object Locator'
	DD	00H
	DD	00H
	DD	FLAT:??_R0?AVi3Stream@@@8
	DD	FLAT:??_R3i3Stream@@8
rdata$r	ENDS
;	COMDAT ??_R1A@?0A@EA@i3StringList@@8
rdata$r	SEGMENT
??_R1A@?0A@EA@i3StringList@@8 DD FLAT:??_R0?AVi3StringList@@@8 ; i3StringList::`RTTI Base Class Descriptor at (0,-1,0,64)'
	DD	01H
	DD	00H
	DD	0ffffffffH
	DD	00H
	DD	040H
	DD	FLAT:??_R3i3StringList@@8
rdata$r	ENDS
;	COMDAT ??_R2i3StringList@@8
rdata$r	SEGMENT
??_R2i3StringList@@8 DD FLAT:??_R1A@?0A@EA@i3StringList@@8 ; i3StringList::`RTTI Base Class Array'
	DD	FLAT:??_R1A@?0A@EA@i3ElementBase@@8
rdata$r	ENDS
;	COMDAT ??_R3i3StringList@@8
rdata$r	SEGMENT
??_R3i3StringList@@8 DD 00H				; i3StringList::`RTTI Class Hierarchy Descriptor'
	DD	00H
	DD	02H
	DD	FLAT:??_R2i3StringList@@8
rdata$r	ENDS
;	COMDAT ??_R0?AVi3StringList@@@8
data$rs	SEGMENT
??_R0?AVi3StringList@@@8 DD FLAT:??_7type_info@@6B@	; i3StringList `RTTI Type Descriptor'
	DD	00H
	DB	'.?AVi3StringList@@', 00H
data$rs	ENDS
;	COMDAT ??_R4i3StringList@@6B@
rdata$r	SEGMENT
??_R4i3StringList@@6B@ DD 00H				; i3StringList::`RTTI Complete Object Locator'
	DD	00H
	DD	00H
	DD	FLAT:??_R0?AVi3StringList@@@8
	DD	FLAT:??_R3i3StringList@@8
rdata$r	ENDS
;	COMDAT ??_R4i3ClassMeta@@6B@
rdata$r	SEGMENT
??_R4i3ClassMeta@@6B@ DD 00H				; i3ClassMeta::`RTTI Complete Object Locator'
	DD	00H
	DD	00H
	DD	FLAT:??_R0?AVi3ClassMeta@@@8
	DD	FLAT:??_R3i3ClassMeta@@8
rdata$r	ENDS
;	COMDAT ??_R1A@?0A@EA@i3MemoryPool@@8
rdata$r	SEGMENT
??_R1A@?0A@EA@i3MemoryPool@@8 DD FLAT:??_R0?AVi3MemoryPool@@@8 ; i3MemoryPool::`RTTI Base Class Descriptor at (0,-1,0,64)'
	DD	00H
	DD	00H
	DD	0ffffffffH
	DD	00H
	DD	040H
	DD	FLAT:??_R3i3MemoryPool@@8
rdata$r	ENDS
;	COMDAT ??_R2i3MemoryPool@@8
rdata$r	SEGMENT
??_R2i3MemoryPool@@8 DD FLAT:??_R1A@?0A@EA@i3MemoryPool@@8 ; i3MemoryPool::`RTTI Base Class Array'
rdata$r	ENDS
;	COMDAT ??_R3i3MemoryPool@@8
rdata$r	SEGMENT
??_R3i3MemoryPool@@8 DD 00H				; i3MemoryPool::`RTTI Class Hierarchy Descriptor'
	DD	00H
	DD	01H
	DD	FLAT:??_R2i3MemoryPool@@8
rdata$r	ENDS
;	COMDAT ??_R0?AVi3MemoryPool@@@8
data$rs	SEGMENT
??_R0?AVi3MemoryPool@@@8 DD FLAT:??_7type_info@@6B@	; i3MemoryPool `RTTI Type Descriptor'
	DD	00H
	DB	'.?AVi3MemoryPool@@', 00H
data$rs	ENDS
;	COMDAT ??_R4i3MemoryPool@@6B@
rdata$r	SEGMENT
??_R4i3MemoryPool@@6B@ DD 00H				; i3MemoryPool::`RTTI Complete Object Locator'
	DD	00H
	DD	00H
	DD	FLAT:??_R0?AVi3MemoryPool@@@8
	DD	FLAT:??_R3i3MemoryPool@@8
rdata$r	ENDS
;	COMDAT ??_R1A@?0A@EA@i3List@@8
rdata$r	SEGMENT
??_R1A@?0A@EA@i3List@@8 DD FLAT:??_R0?AVi3List@@@8	; i3List::`RTTI Base Class Descriptor at (0,-1,0,64)'
	DD	01H
	DD	00H
	DD	0ffffffffH
	DD	00H
	DD	040H
	DD	FLAT:??_R3i3List@@8
rdata$r	ENDS
;	COMDAT ??_R2i3List@@8
rdata$r	SEGMENT
??_R2i3List@@8 DD FLAT:??_R1A@?0A@EA@i3List@@8		; i3List::`RTTI Base Class Array'
	DD	FLAT:??_R1A@?0A@EA@i3ElementBase@@8
rdata$r	ENDS
;	COMDAT ??_R3i3List@@8
rdata$r	SEGMENT
??_R3i3List@@8 DD 00H					; i3List::`RTTI Class Hierarchy Descriptor'
	DD	00H
	DD	02H
	DD	FLAT:??_R2i3List@@8
rdata$r	ENDS
;	COMDAT ??_R0?AVi3List@@@8
data$rs	SEGMENT
??_R0?AVi3List@@@8 DD FLAT:??_7type_info@@6B@		; i3List `RTTI Type Descriptor'
	DD	00H
	DB	'.?AVi3List@@', 00H
data$rs	ENDS
;	COMDAT ??_R4i3List@@6B@
rdata$r	SEGMENT
??_R4i3List@@6B@ DD 00H					; i3List::`RTTI Complete Object Locator'
	DD	00H
	DD	00H
	DD	FLAT:??_R0?AVi3List@@@8
	DD	FLAT:??_R3i3List@@8
rdata$r	ENDS
;	COMDAT ??_R1A@?0A@EA@i3ElementBase@@8
rdata$r	SEGMENT
??_R1A@?0A@EA@i3ElementBase@@8 DD FLAT:??_R0?AVi3ElementBase@@@8 ; i3ElementBase::`RTTI Base Class Descriptor at (0,-1,0,64)'
	DD	00H
	DD	00H
	DD	0ffffffffH
	DD	00H
	DD	040H
	DD	FLAT:??_R3i3ElementBase@@8
rdata$r	ENDS
;	COMDAT ??_R2i3ElementBase@@8
rdata$r	SEGMENT
??_R2i3ElementBase@@8 DD FLAT:??_R1A@?0A@EA@i3ElementBase@@8 ; i3ElementBase::`RTTI Base Class Array'
rdata$r	ENDS
;	COMDAT ??_R3i3ElementBase@@8
rdata$r	SEGMENT
??_R3i3ElementBase@@8 DD 00H				; i3ElementBase::`RTTI Class Hierarchy Descriptor'
	DD	00H
	DD	01H
	DD	FLAT:??_R2i3ElementBase@@8
rdata$r	ENDS
;	COMDAT ??_R0?AVi3ElementBase@@@8
data$rs	SEGMENT
??_R0?AVi3ElementBase@@@8 DD FLAT:??_7type_info@@6B@	; i3ElementBase `RTTI Type Descriptor'
	DD	00H
	DB	'.?AVi3ElementBase@@', 00H
data$rs	ENDS
;	COMDAT ??_R4i3ElementBase@@6B@
rdata$r	SEGMENT
??_R4i3ElementBase@@6B@ DD 00H				; i3ElementBase::`RTTI Complete Object Locator'
	DD	00H
	DD	00H
	DD	FLAT:??_R0?AVi3ElementBase@@@8
	DD	FLAT:??_R3i3ElementBase@@8
rdata$r	ENDS
;	COMDAT ??_C@_01HNPIGOCE@?$CG@
CONST	SEGMENT
??_C@_01HNPIGOCE@?$CG@ DB '&', 00H			; `string'
CONST	ENDS
;	COMDAT ??_C@_01NEMOKFLO@?$DN@
CONST	SEGMENT
??_C@_01NEMOKFLO@?$DN@ DB '=', 00H			; `string'
CONST	ENDS
;	COMDAT ??_C@_05MKGBANIN@?$CFs?9?$CFd@
CONST	SEGMENT
??_C@_05MKGBANIN@?$CFs?9?$CFd@ DB '%s-%d', 00H		; `string'
CONST	ENDS
;	COMDAT ??_C@_03FKNCMABI@?$CFlu@
CONST	SEGMENT
??_C@_03FKNCMABI@?$CFlu@ DB '%lu', 00H			; `string'
CONST	ENDS
;	COMDAT ??_C@_05LLAMLEHD@?$CFI64d@
CONST	SEGMENT
??_C@_05LLAMLEHD@?$CFI64d@ DB '%I64d', 00H		; `string'
CONST	ENDS
;	COMDAT ??_C@_02DPKJAMEF@?$CFd@
CONST	SEGMENT
??_C@_02DPKJAMEF@?$CFd@ DB '%d', 00H			; `string'
CONST	ENDS
;	COMDAT ??_C@_03KMPHGDJG@?$CF2B@
CONST	SEGMENT
??_C@_03KMPHGDJG@?$CF2B@ DB '%2B', 00H			; `string'
CONST	ENDS
;	COMDAT ??_C@_03OHKENPGE@?$CF26@
CONST	SEGMENT
??_C@_03OHKENPGE@?$CF26@ DB '%26', 00H			; `string'
CONST	ENDS
;	COMDAT ??_C@_03MMIJIMKH@?$CF25@
CONST	SEGMENT
??_C@_03MMIJIMKH@?$CF25@ DB '%25', 00H			; `string'
CONST	ENDS
;	COMDAT ??_C@_05BCHGOAMK@https@
CONST	SEGMENT
??_C@_05BCHGOAMK@https@ DB 'https', 00H			; `string'
CONST	ENDS
;	COMDAT ??_C@_04IAFLKNP@http@
CONST	SEGMENT
??_C@_04IAFLKNP@http@ DB 'http', 00H			; `string'
CONST	ENDS
;	COMDAT ??_C@_01KMDKNFGN@?1@
CONST	SEGMENT
??_C@_01KMDKNFGN@?1@ DB '/', 00H			; `string'
CONST	ENDS
;	COMDAT ??_C@_01JLIPDDHJ@?3@
CONST	SEGMENT
??_C@_01JLIPDDHJ@?3@ DB ':', 00H			; `string'
CONST	ENDS
;	COMDAT ??_C@_0BJ@KELNJPON@Memory?5Exception?5occured@
CONST	SEGMENT
??_C@_0BJ@KELNJPON@Memory?5Exception?5occured@ DB 'Memory Exception occur'
	DB	'ed', 00H					; `string'
CONST	ENDS
;	COMDAT ??_C@_0BM@HBGNAEJJ@Cannot?5perform?5http?5request@
CONST	SEGMENT
??_C@_0BM@HBGNAEJJ@Cannot?5perform?5http?5request@ DB 'Cannot perform htt'
	DB	'p request', 00H				; `string'
CONST	ENDS
;	COMDAT ??_C@_0EK@PLOICMNN@Cannot?5perform?5http?5request?0?5Th@
CONST	SEGMENT
??_C@_0EK@PLOICMNN@Cannot?5perform?5http?5request?0?5Th@ DB 'Cannot perfo'
	DB	'rm http request, The attempt to connect to the server failed.'
	DB	00H						; `string'
CONST	ENDS
;	COMDAT ??_C@_0DB@CPBJMABP@Cannot?5perform?5http?5request?0?5Th@
CONST	SEGMENT
??_C@_0DB@CPBJMABP@Cannot?5perform?5http?5request?0?5Th@ DB 'Cannot perfo'
	DB	'rm http request, The URL is invalid.', 00H	; `string'
CONST	ENDS
;	COMDAT ??_C@_0DC@DMFLICKC@Content?9Type?3?5application?1x?9www@
CONST	SEGMENT
??_C@_0DC@DMFLICKC@Content?9Type?3?5application?1x?9www@ DB 'Content-Type'
	DB	': application/x-www-form-urlencoded', 0dH, 0aH, 00H ; `string'
CONST	ENDS
;	COMDAT ??_C@_04HCJEIHPL@POST@
CONST	SEGMENT
??_C@_04HCJEIHPL@POST@ DB 'POST', 00H			; `string'
CONST	ENDS
;	COMDAT ??_C@_17MLBOKGLB@?$AA?$CK?$AA?1?$AA?$CK@
CONST	SEGMENT
??_C@_17MLBOKGLB@?$AA?$CK?$AA?1?$AA?$CK@ DB '*', 00H, '/', 00H, '*', 00H, 00H
	DB	00H						; `string'
CONST	ENDS
;	COMDAT ??_C@_03KBBGFLEK@PUT@
CONST	SEGMENT
??_C@_03KBBGFLEK@PUT@ DB 'PUT', 00H			; `string'
CONST	ENDS
;	COMDAT ??_C@_0BL@EIHAOHFH@Cannot?5connect?5to?5internet@
CONST	SEGMENT
??_C@_0BL@EIHAOHFH@Cannot?5connect?5to?5internet@ DB 'Cannot connect to i'
	DB	'nternet', 00H				; `string'
CONST	ENDS
;	COMDAT ??_C@_0BF@PJCNEGDJ@Cannot?5open?5internet@
CONST	SEGMENT
??_C@_0BF@PJCNEGDJ@Cannot?5open?5internet@ DB 'Cannot open internet', 00H ; `string'
CONST	ENDS
;	COMDAT ??_C@_0GI@CPAALLND@E?3?2Proyectos?2JuegosOnlineproyec@
CONST	SEGMENT
??_C@_0GI@CPAALLND@E?3?2Proyectos?2JuegosOnlineproyec@ DB 'E:\Proyectos\J'
	DB	'uegosOnlineproyectos\PB\pbblow\Piercing Blow Remake\i3Server\'
	DB	'src\i3Base\i3NetworkHTTP.cpp', 00H		; `string'
CONST	ENDS
;	COMDAT ??_C@_0P@GPAIGMIA@I3NETWORK_HTTP@
CONST	SEGMENT
??_C@_0P@GPAIGMIA@I3NETWORK_HTTP@ DB 'I3NETWORK_HTTP', 00H ; `string'
CONST	ENDS
;	COMDAT ??_7i3NetworkHTTP@@6B@
CONST	SEGMENT
??_7i3NetworkHTTP@@6B@ DD FLAT:??_R4i3NetworkHTTP@@6B@	; i3NetworkHTTP::`vftable'
	DD	FLAT:?GetMeta@i3NetworkHTTP@@UAEPAVi3ClassMeta@@XZ
	DD	FLAT:??_Ei3NetworkHTTP@@UAEPAXI@Z
	DD	FLAT:?CopyTo@i3ElementBase@@UAEXPAV1@W4I3_COPY_METHOD@@@Z
CONST	ENDS
;	COMDAT ??_7i3StringList@@6B@
CONST	SEGMENT
??_7i3StringList@@6B@ DD FLAT:??_R4i3StringList@@6B@	; i3StringList::`vftable'
	DD	FLAT:?GetMeta@i3StringList@@UAEPAVi3ClassMeta@@XZ
	DD	FLAT:??_Ei3StringList@@UAEPAXI@Z
	DD	FLAT:?CopyTo@i3ElementBase@@UAEXPAV1@W4I3_COPY_METHOD@@@Z
	DD	FLAT:?IndexOf@i3StringList@@UBEHPAD@Z
	DD	FLAT:?Add@i3StringList@@UAEHPADH@Z
	DD	FLAT:?Insert@i3StringList@@UAEHHPADH@Z
	DD	FLAT:?Delete@i3StringList@@UAEHH@Z
	DD	FLAT:?Remove@i3StringList@@UAEHPAD@Z
	DD	FLAT:?Clear@i3StringList@@UAEXXZ
CONST	ENDS
;	COMDAT ??_C@_0GD@LNMGNFKI@E?3?2Proyectos?2JuegosOnlineproyec@
CONST	SEGMENT
??_C@_0GD@LNMGNFKI@E?3?2Proyectos?2JuegosOnlineproyec@ DB 'E:\Proyectos\J'
	DB	'uegosOnlineproyectos\PB\pbblow\Piercing Blow Remake\i3Server\'
	DB	'include\i3Base\i3List.h', 00H		; `string'
CONST	ENDS
;	COMDAT ??_7i3List@@6B@
CONST	SEGMENT
??_7i3List@@6B@ DD FLAT:??_R4i3List@@6B@		; i3List::`vftable'
	DD	FLAT:?GetMeta@i3List@@UAEPAVi3ClassMeta@@XZ
	DD	FLAT:??_Ei3List@@UAEPAXI@Z
	DD	FLAT:?CopyTo@i3ElementBase@@UAEXPAV1@W4I3_COPY_METHOD@@@Z
	DD	FLAT:?IndexOf@i3List@@UBEHPBX@Z
	DD	FLAT:?Add@i3List@@UAEHPAX@Z
	DD	FLAT:?Insert@i3List@@UAEHHPAX@Z
	DD	FLAT:?Delete@i3List@@UAEHH@Z
	DD	FLAT:?Remove@i3List@@UAEHPAX@Z
	DD	FLAT:?Clear@i3List@@UAEXH@Z
CONST	ENDS
;	COMDAT ??_7i3XMLElement@@6B@
CONST	SEGMENT
??_7i3XMLElement@@6B@ DD FLAT:??_R4i3XMLElement@@6B@	; i3XMLElement::`vftable'
	DD	FLAT:??_Ei3XMLElement@@UAEPAXI@Z
	DD	FLAT:?Print@TiXmlElement@@UBEXPAVi3FileStream@@H@Z
	DD	FLAT:?Parse@TiXmlElement@@UAEPBDPBDPAVTiXmlParsingData@@W4TiXmlEncoding@@@Z
	DD	FLAT:?ToDocument@TiXmlNode@@UAEPAVTiXmlDocument@@XZ
	DD	FLAT:?ToDocument@TiXmlNode@@UBEPBVTiXmlDocument@@XZ
	DD	FLAT:?ToElement@TiXmlElement@@UAEPAV1@XZ
	DD	FLAT:?ToElement@TiXmlElement@@UBEPBV1@XZ
	DD	FLAT:?ToComment@TiXmlNode@@UAEPAVTiXmlComment@@XZ
	DD	FLAT:?ToComment@TiXmlNode@@UBEPBVTiXmlComment@@XZ
	DD	FLAT:?ToUnknown@TiXmlNode@@UAEPAVTiXmlUnknown@@XZ
	DD	FLAT:?ToUnknown@TiXmlNode@@UBEPBVTiXmlUnknown@@XZ
	DD	FLAT:?ToText@TiXmlNode@@UAEPAVTiXmlText@@XZ
	DD	FLAT:?ToText@TiXmlNode@@UBEPBVTiXmlText@@XZ
	DD	FLAT:?ToDeclaration@TiXmlNode@@UAEPAVTiXmlDeclaration@@XZ
	DD	FLAT:?ToDeclaration@TiXmlNode@@UBEPBVTiXmlDeclaration@@XZ
	DD	FLAT:?Clone@TiXmlElement@@UBEPAVTiXmlNode@@XZ
	DD	FLAT:?Accept@TiXmlElement@@UBE_NPAVTiXmlVisitor@@@Z
CONST	ENDS
;	COMDAT ??_C@_01EEMJAFIK@?6@
CONST	SEGMENT
??_C@_01EEMJAFIK@?6@ DB 0aH, 00H			; `string'
CONST	ENDS
;	COMDAT ??_C@_04PFOHOKJK@?5?5?5?5@
CONST	SEGMENT
??_C@_04PFOHOKJK@?5?5?5?5@ DB '    ', 00H		; `string'
CONST	ENDS
;	COMDAT ??_7TiXmlPrinter@@6B@
CONST	SEGMENT
??_7TiXmlPrinter@@6B@ DD FLAT:??_R4TiXmlPrinter@@6B@	; TiXmlPrinter::`vftable'
	DD	FLAT:??_ETiXmlPrinter@@UAEPAXI@Z
	DD	FLAT:?VisitEnter@TiXmlPrinter@@UAE_NABVTiXmlElement@@PBVTiXmlAttribute@@@Z
	DD	FLAT:?VisitEnter@TiXmlPrinter@@UAE_NABVTiXmlDocument@@@Z
	DD	FLAT:?VisitExit@TiXmlPrinter@@UAE_NABVTiXmlElement@@@Z
	DD	FLAT:?VisitExit@TiXmlPrinter@@UAE_NABVTiXmlDocument@@@Z
	DD	FLAT:?Visit@TiXmlPrinter@@UAE_NABVTiXmlUnknown@@@Z
	DD	FLAT:?Visit@TiXmlPrinter@@UAE_NABVTiXmlComment@@@Z
	DD	FLAT:?Visit@TiXmlPrinter@@UAE_NABVTiXmlText@@@Z
	DD	FLAT:?Visit@TiXmlPrinter@@UAE_NABVTiXmlDeclaration@@@Z
CONST	ENDS
;	COMDAT ??_C@_00CNPNBAHC@@
CONST	SEGMENT
??_C@_00CNPNBAHC@@ DB 00H				; `string'
CONST	ENDS
;	COMDAT ??_7TiXmlDocument@@6B@
CONST	SEGMENT
??_7TiXmlDocument@@6B@ DD FLAT:??_R4TiXmlDocument@@6B@	; TiXmlDocument::`vftable'
	DD	FLAT:??_ETiXmlDocument@@UAEPAXI@Z
	DD	FLAT:?Print@TiXmlDocument@@UBEXPAVi3FileStream@@H@Z
	DD	FLAT:?Parse@TiXmlDocument@@UAEPBDPBDPAVTiXmlParsingData@@W4TiXmlEncoding@@@Z
	DD	FLAT:?ToDocument@TiXmlDocument@@UAEPAV1@XZ
	DD	FLAT:?ToDocument@TiXmlDocument@@UBEPBV1@XZ
	DD	FLAT:?ToElement@TiXmlNode@@UAEPAVTiXmlElement@@XZ
	DD	FLAT:?ToElement@TiXmlNode@@UBEPBVTiXmlElement@@XZ
	DD	FLAT:?ToComment@TiXmlNode@@UAEPAVTiXmlComment@@XZ
	DD	FLAT:?ToComment@TiXmlNode@@UBEPBVTiXmlComment@@XZ
	DD	FLAT:?ToUnknown@TiXmlNode@@UAEPAVTiXmlUnknown@@XZ
	DD	FLAT:?ToUnknown@TiXmlNode@@UBEPBVTiXmlUnknown@@XZ
	DD	FLAT:?ToText@TiXmlNode@@UAEPAVTiXmlText@@XZ
	DD	FLAT:?ToText@TiXmlNode@@UBEPBVTiXmlText@@XZ
	DD	FLAT:?ToDeclaration@TiXmlNode@@UAEPAVTiXmlDeclaration@@XZ
	DD	FLAT:?ToDeclaration@TiXmlNode@@UBEPBVTiXmlDeclaration@@XZ
	DD	FLAT:?Clone@TiXmlDocument@@MBEPAVTiXmlNode@@XZ
	DD	FLAT:?Accept@TiXmlDocument@@UBE_NPAVTiXmlVisitor@@@Z
CONST	ENDS
;	COMDAT ??_7TiXmlUnknown@@6B@
CONST	SEGMENT
??_7TiXmlUnknown@@6B@ DD FLAT:??_R4TiXmlUnknown@@6B@	; TiXmlUnknown::`vftable'
	DD	FLAT:??_ETiXmlUnknown@@UAEPAXI@Z
	DD	FLAT:?Print@TiXmlUnknown@@UBEXPAVi3FileStream@@H@Z
	DD	FLAT:?Parse@TiXmlUnknown@@UAEPBDPBDPAVTiXmlParsingData@@W4TiXmlEncoding@@@Z
	DD	FLAT:?ToDocument@TiXmlNode@@UAEPAVTiXmlDocument@@XZ
	DD	FLAT:?ToDocument@TiXmlNode@@UBEPBVTiXmlDocument@@XZ
	DD	FLAT:?ToElement@TiXmlNode@@UAEPAVTiXmlElement@@XZ
	DD	FLAT:?ToElement@TiXmlNode@@UBEPBVTiXmlElement@@XZ
	DD	FLAT:?ToComment@TiXmlNode@@UAEPAVTiXmlComment@@XZ
	DD	FLAT:?ToComment@TiXmlNode@@UBEPBVTiXmlComment@@XZ
	DD	FLAT:?ToUnknown@TiXmlUnknown@@UAEPAV1@XZ
	DD	FLAT:?ToUnknown@TiXmlUnknown@@UBEPBV1@XZ
	DD	FLAT:?ToText@TiXmlNode@@UAEPAVTiXmlText@@XZ
	DD	FLAT:?ToText@TiXmlNode@@UBEPBVTiXmlText@@XZ
	DD	FLAT:?ToDeclaration@TiXmlNode@@UAEPAVTiXmlDeclaration@@XZ
	DD	FLAT:?ToDeclaration@TiXmlNode@@UBEPBVTiXmlDeclaration@@XZ
	DD	FLAT:?Clone@TiXmlUnknown@@UBEPAVTiXmlNode@@XZ
	DD	FLAT:?Accept@TiXmlUnknown@@UBE_NPAVTiXmlVisitor@@@Z
CONST	ENDS
;	COMDAT ??_7TiXmlDeclaration@@6B@
CONST	SEGMENT
??_7TiXmlDeclaration@@6B@ DD FLAT:??_R4TiXmlDeclaration@@6B@ ; TiXmlDeclaration::`vftable'
	DD	FLAT:??_ETiXmlDeclaration@@UAEPAXI@Z
	DD	FLAT:?Print@TiXmlDeclaration@@UBEXPAVi3FileStream@@H@Z
	DD	FLAT:?Parse@TiXmlDeclaration@@UAEPBDPBDPAVTiXmlParsingData@@W4TiXmlEncoding@@@Z
	DD	FLAT:?ToDocument@TiXmlNode@@UAEPAVTiXmlDocument@@XZ
	DD	FLAT:?ToDocument@TiXmlNode@@UBEPBVTiXmlDocument@@XZ
	DD	FLAT:?ToElement@TiXmlNode@@UAEPAVTiXmlElement@@XZ
	DD	FLAT:?ToElement@TiXmlNode@@UBEPBVTiXmlElement@@XZ
	DD	FLAT:?ToComment@TiXmlNode@@UAEPAVTiXmlComment@@XZ
	DD	FLAT:?ToComment@TiXmlNode@@UBEPBVTiXmlComment@@XZ
	DD	FLAT:?ToUnknown@TiXmlNode@@UAEPAVTiXmlUnknown@@XZ
	DD	FLAT:?ToUnknown@TiXmlNode@@UBEPBVTiXmlUnknown@@XZ
	DD	FLAT:?ToText@TiXmlNode@@UAEPAVTiXmlText@@XZ
	DD	FLAT:?ToText@TiXmlNode@@UBEPBVTiXmlText@@XZ
	DD	FLAT:?ToDeclaration@TiXmlDeclaration@@UAEPAV1@XZ
	DD	FLAT:?ToDeclaration@TiXmlDeclaration@@UBEPBV1@XZ
	DD	FLAT:?Clone@TiXmlDeclaration@@UBEPAVTiXmlNode@@XZ
	DD	FLAT:?Accept@TiXmlDeclaration@@UBE_NPAVTiXmlVisitor@@@Z
	DD	FLAT:?Print@TiXmlDeclaration@@UBEXPAVi3FileStream@@HPAVTiXmlString@@@Z
CONST	ENDS
;	COMDAT ??_7TiXmlText@@6B@
CONST	SEGMENT
??_7TiXmlText@@6B@ DD FLAT:??_R4TiXmlText@@6B@		; TiXmlText::`vftable'
	DD	FLAT:??_ETiXmlText@@UAEPAXI@Z
	DD	FLAT:?Print@TiXmlText@@UBEXPAVi3FileStream@@H@Z
	DD	FLAT:?Parse@TiXmlText@@UAEPBDPBDPAVTiXmlParsingData@@W4TiXmlEncoding@@@Z
	DD	FLAT:?ToDocument@TiXmlNode@@UAEPAVTiXmlDocument@@XZ
	DD	FLAT:?ToDocument@TiXmlNode@@UBEPBVTiXmlDocument@@XZ
	DD	FLAT:?ToElement@TiXmlNode@@UAEPAVTiXmlElement@@XZ
	DD	FLAT:?ToElement@TiXmlNode@@UBEPBVTiXmlElement@@XZ
	DD	FLAT:?ToComment@TiXmlNode@@UAEPAVTiXmlComment@@XZ
	DD	FLAT:?ToComment@TiXmlNode@@UBEPBVTiXmlComment@@XZ
	DD	FLAT:?ToUnknown@TiXmlNode@@UAEPAVTiXmlUnknown@@XZ
	DD	FLAT:?ToUnknown@TiXmlNode@@UBEPBVTiXmlUnknown@@XZ
	DD	FLAT:?ToText@TiXmlText@@UAEPAV1@XZ
	DD	FLAT:?ToText@TiXmlText@@UBEPBV1@XZ
	DD	FLAT:?ToDeclaration@TiXmlNode@@UAEPAVTiXmlDeclaration@@XZ
	DD	FLAT:?ToDeclaration@TiXmlNode@@UBEPBVTiXmlDeclaration@@XZ
	DD	FLAT:?Clone@TiXmlText@@MBEPAVTiXmlNode@@XZ
	DD	FLAT:?Accept@TiXmlText@@UBE_NPAVTiXmlVisitor@@@Z
CONST	ENDS
;	COMDAT ??_7TiXmlComment@@6B@
CONST	SEGMENT
??_7TiXmlComment@@6B@ DD FLAT:??_R4TiXmlComment@@6B@	; TiXmlComment::`vftable'
	DD	FLAT:??_ETiXmlComment@@UAEPAXI@Z
	DD	FLAT:?Print@TiXmlComment@@UBEXPAVi3FileStream@@H@Z
	DD	FLAT:?Parse@TiXmlComment@@UAEPBDPBDPAVTiXmlParsingData@@W4TiXmlEncoding@@@Z
	DD	FLAT:?ToDocument@TiXmlNode@@UAEPAVTiXmlDocument@@XZ
	DD	FLAT:?ToDocument@TiXmlNode@@UBEPBVTiXmlDocument@@XZ
	DD	FLAT:?ToElement@TiXmlNode@@UAEPAVTiXmlElement@@XZ
	DD	FLAT:?ToElement@TiXmlNode@@UBEPBVTiXmlElement@@XZ
	DD	FLAT:?ToComment@TiXmlComment@@UAEPAV1@XZ
	DD	FLAT:?ToComment@TiXmlComment@@UBEPBV1@XZ
	DD	FLAT:?ToUnknown@TiXmlNode@@UAEPAVTiXmlUnknown@@XZ
	DD	FLAT:?ToUnknown@TiXmlNode@@UBEPBVTiXmlUnknown@@XZ
	DD	FLAT:?ToText@TiXmlNode@@UAEPAVTiXmlText@@XZ
	DD	FLAT:?ToText@TiXmlNode@@UBEPBVTiXmlText@@XZ
	DD	FLAT:?ToDeclaration@TiXmlNode@@UAEPAVTiXmlDeclaration@@XZ
	DD	FLAT:?ToDeclaration@TiXmlNode@@UBEPBVTiXmlDeclaration@@XZ
	DD	FLAT:?Clone@TiXmlComment@@UBEPAVTiXmlNode@@XZ
	DD	FLAT:?Accept@TiXmlComment@@UBE_NPAVTiXmlVisitor@@@Z
CONST	ENDS
;	COMDAT ??_7TiXmlAttribute@@6B@
CONST	SEGMENT
??_7TiXmlAttribute@@6B@ DD FLAT:??_R4TiXmlAttribute@@6B@ ; TiXmlAttribute::`vftable'
	DD	FLAT:??_ETiXmlAttribute@@UAEPAXI@Z
	DD	FLAT:?Print@TiXmlAttribute@@UBEXPAVi3FileStream@@H@Z
	DD	FLAT:?Parse@TiXmlAttribute@@UAEPBDPBDPAVTiXmlParsingData@@W4TiXmlEncoding@@@Z
CONST	ENDS
;	COMDAT ??_7TiXmlBase@@6B@
CONST	SEGMENT
??_7TiXmlBase@@6B@ DD FLAT:??_R4TiXmlBase@@6B@		; TiXmlBase::`vftable'
	DD	FLAT:??_ETiXmlBase@@UAEPAXI@Z
	DD	FLAT:__purecall
	DD	FLAT:__purecall
CONST	ENDS
;	COMDAT ??_7TiXmlVisitor@@6B@
CONST	SEGMENT
??_7TiXmlVisitor@@6B@ DD FLAT:??_R4TiXmlVisitor@@6B@	; TiXmlVisitor::`vftable'
	DD	FLAT:??_ETiXmlVisitor@@UAEPAXI@Z
	DD	FLAT:?VisitEnter@TiXmlVisitor@@UAE_NABVTiXmlElement@@PBVTiXmlAttribute@@@Z
	DD	FLAT:?VisitEnter@TiXmlVisitor@@UAE_NABVTiXmlDocument@@@Z
	DD	FLAT:?VisitExit@TiXmlVisitor@@UAE_NABVTiXmlElement@@@Z
	DD	FLAT:?VisitExit@TiXmlVisitor@@UAE_NABVTiXmlDocument@@@Z
	DD	FLAT:?Visit@TiXmlVisitor@@UAE_NABVTiXmlUnknown@@@Z
	DD	FLAT:?Visit@TiXmlVisitor@@UAE_NABVTiXmlComment@@@Z
	DD	FLAT:?Visit@TiXmlVisitor@@UAE_NABVTiXmlText@@@Z
	DD	FLAT:?Visit@TiXmlVisitor@@UAE_NABVTiXmlDeclaration@@@Z
CONST	ENDS
;	COMDAT ??_7i3FileStream@@6B@
CONST	SEGMENT
??_7i3FileStream@@6B@ DD FLAT:??_R4i3FileStream@@6B@	; i3FileStream::`vftable'
	DD	FLAT:?GetMeta@i3FileStream@@UAEPAVi3ClassMeta@@XZ
	DD	FLAT:??_Ei3FileStream@@UAEPAXI@Z
	DD	FLAT:?CopyTo@i3ElementBase@@UAEXPAV1@W4I3_COPY_METHOD@@@Z
	DD	FLAT:?GetHandle@i3FileStream@@UAEPAXXZ
	DD	FLAT:?Create@i3FileStream@@UAEHPBDHI@Z
	DD	FLAT:?Open@i3FileStream@@UAEHPBDHI@Z
	DD	FLAT:?Close@i3FileStream@@UAEHXZ
	DD	FLAT:?Read@i3FileStream@@UAEIPAXH@Z
	DD	FLAT:?CopyTo@i3Stream@@UAEIPAV1@I@Z
	DD	FLAT:?Write@i3FileStream@@UAEIPBXH@Z
	DD	FLAT:?CopyFrom@i3Stream@@UAEIPAV1@I@Z
	DD	FLAT:?SetPosition@i3FileStream@@UAEIHH@Z
	DD	FLAT:?GetPosition@i3FileStream@@UAEIXZ
	DD	FLAT:?ReadLine@i3Stream@@UAEIPADH@Z
	DD	FLAT:?ReadLineW@i3Stream@@UAEIPAGH@Z
	DD	FLAT:?WriteLine@i3Stream@@UAEIPBD@Z
	DD	FLAT:?WriteLineW@i3Stream@@UAEIPBG@Z
	DD	FLAT:?Printf@i3Stream@@UAAIPADPBDZZ
CONST	ENDS
;	COMDAT ??_7i3Stream@@6B@
CONST	SEGMENT
??_7i3Stream@@6B@ DD FLAT:??_R4i3Stream@@6B@		; i3Stream::`vftable'
	DD	FLAT:?GetMeta@i3Stream@@UAEPAVi3ClassMeta@@XZ
	DD	FLAT:??_Ei3Stream@@UAEPAXI@Z
	DD	FLAT:?CopyTo@i3ElementBase@@UAEXPAV1@W4I3_COPY_METHOD@@@Z
	DD	FLAT:?GetHandle@i3Stream@@UAEPAXXZ
	DD	FLAT:__purecall
	DD	FLAT:__purecall
	DD	FLAT:__purecall
	DD	FLAT:__purecall
	DD	FLAT:?CopyTo@i3Stream@@UAEIPAV1@I@Z
	DD	FLAT:__purecall
	DD	FLAT:?CopyFrom@i3Stream@@UAEIPAV1@I@Z
	DD	FLAT:__purecall
	DD	FLAT:__purecall
	DD	FLAT:?ReadLine@i3Stream@@UAEIPADH@Z
	DD	FLAT:?ReadLineW@i3Stream@@UAEIPAGH@Z
	DD	FLAT:?WriteLine@i3Stream@@UAEIPBD@Z
	DD	FLAT:?WriteLineW@i3Stream@@UAEIPBG@Z
	DD	FLAT:?Printf@i3Stream@@UAAIPADPBDZZ
CONST	ENDS
;	COMDAT ??_7i3MemoryPool@@6B@
CONST	SEGMENT
??_7i3MemoryPool@@6B@ DD FLAT:??_R4i3MemoryPool@@6B@	; i3MemoryPool::`vftable'
	DD	FLAT:??_Ei3MemoryPool@@UAEPAXI@Z
	DD	FLAT:__purecall
	DD	FLAT:__purecall
CONST	ENDS
;	COMDAT ??_7i3ElementBase@@6B@
CONST	SEGMENT
??_7i3ElementBase@@6B@ DD FLAT:??_R4i3ElementBase@@6B@	; i3ElementBase::`vftable'
	DD	FLAT:?GetMeta@i3ElementBase@@UAEPAVi3ClassMeta@@XZ
	DD	FLAT:??_Ei3ElementBase@@UAEPAXI@Z
	DD	FLAT:?CopyTo@i3ElementBase@@UAEXPAV1@W4I3_COPY_METHOD@@@Z
CONST	ENDS
;	COMDAT ??_7i3ClassMeta@@6B@
CONST	SEGMENT
??_7i3ClassMeta@@6B@ DD FLAT:??_R4i3ClassMeta@@6B@	; i3ClassMeta::`vftable'
	DD	FLAT:??_Ei3ClassMeta@@UAEPAXI@Z
	DD	FLAT:?CreateInstance@i3ClassMeta@@UAEPAVi3ElementBase@@W4I3_CLASSMETA_TYPE@@@Z
	DD	FLAT:?BindInstance@i3ClassMeta@@UAEPAVi3ElementBase@@PAXW4I3_CLASSMETA_TYPE@@@Z
CONST	ENDS
;	COMDAT xdata$x
xdata$x	SEGMENT
__unwindtable$?BindInstance@?$i3MetaTemplate@Vi3NetworkHTTP@@@@UAEPAVi3ElementBase@@PAXW4I3_CLASSMETA_TYPE@@@Z DD 0ffffffffH
	DD	FLAT:__unwindfunclet$?BindInstance@?$i3MetaTemplate@Vi3NetworkHTTP@@@@UAEPAVi3ElementBase@@PAXW4I3_CLASSMETA_TYPE@@@Z$0
__ehfuncinfo$?BindInstance@?$i3MetaTemplate@Vi3NetworkHTTP@@@@UAEPAVi3ElementBase@@PAXW4I3_CLASSMETA_TYPE@@@Z DD 019930522H
	DD	01H
	DD	FLAT:__unwindtable$?BindInstance@?$i3MetaTemplate@Vi3NetworkHTTP@@@@UAEPAVi3ElementBase@@PAXW4I3_CLASSMETA_TYPE@@@Z
	DD	2 DUP(00H)
	DD	2 DUP(00H)
	DD	00H
	DD	01H
xdata$x	ENDS
;	COMDAT xdata$x
xdata$x	SEGMENT
__unwindtable$?CreateInstance@?$i3MetaTemplate@Vi3NetworkHTTP@@@@UAEPAVi3ElementBase@@W4I3_CLASSMETA_TYPE@@@Z DD 0ffffffffH
	DD	FLAT:__unwindfunclet$?CreateInstance@?$i3MetaTemplate@Vi3NetworkHTTP@@@@UAEPAVi3ElementBase@@W4I3_CLASSMETA_TYPE@@@Z$0
__ehfuncinfo$?CreateInstance@?$i3MetaTemplate@Vi3NetworkHTTP@@@@UAEPAVi3ElementBase@@W4I3_CLASSMETA_TYPE@@@Z DD 019930522H
	DD	01H
	DD	FLAT:__unwindtable$?CreateInstance@?$i3MetaTemplate@Vi3NetworkHTTP@@@@UAEPAVi3ElementBase@@W4I3_CLASSMETA_TYPE@@@Z
	DD	2 DUP(00H)
	DD	2 DUP(00H)
	DD	00H
	DD	01H
xdata$x	ENDS
;	COMDAT xdata$x
xdata$x	SEGMENT
__unwindtable$??_Ei3NetworkHTTP@@UAEPAXI@Z DD 0ffffffffH
	DD	FLAT:___std_terminate
__ehfuncinfo$??_Ei3NetworkHTTP@@UAEPAXI@Z DD 019930522H
	DD	01H
	DD	FLAT:__unwindtable$??_Ei3NetworkHTTP@@UAEPAXI@Z
	DD	2 DUP(00H)
	DD	2 DUP(00H)
	DD	00H
	DD	05H
xdata$x	ENDS
;	COMDAT xdata$x
xdata$x	SEGMENT
__unwindtable$??_Gi3NetworkHTTP@@UAEPAXI@Z DD 0ffffffffH
	DD	FLAT:___std_terminate
__ehfuncinfo$??_Gi3NetworkHTTP@@UAEPAXI@Z DD 019930522H
	DD	01H
	DD	FLAT:__unwindtable$??_Gi3NetworkHTTP@@UAEPAXI@Z
	DD	2 DUP(00H)
	DD	2 DUP(00H)
	DD	00H
	DD	05H
xdata$x	ENDS
;	COMDAT voltbl
voltbl	SEGMENT
_volmd	DB	061H
voltbl	ENDS
;	COMDAT xdata$x
xdata$x	SEGMENT
__catchsym$?SendRequestPost@i3NetworkHTTP@@QAEHXZ$2 DD 040H
	DD	00H
	DD	00H
	DD	FLAT:__catch$?SendRequestPost@i3NetworkHTTP@@QAEHXZ$0
__unwindtable$?SendRequestPost@i3NetworkHTTP@@QAEHXZ DD 0ffffffffH
	DD	00H
	DD	0ffffffffH
	DD	00H
__tryblocktable$?SendRequestPost@i3NetworkHTTP@@QAEHXZ DD 00H
	DD	00H
	DD	01H
	DD	01H
	DD	FLAT:__catchsym$?SendRequestPost@i3NetworkHTTP@@QAEHXZ$2
__ehfuncinfo$?SendRequestPost@i3NetworkHTTP@@QAEHXZ DD 019930522H
	DD	02H
	DD	FLAT:__unwindtable$?SendRequestPost@i3NetworkHTTP@@QAEHXZ
	DD	01H
	DD	FLAT:__tryblocktable$?SendRequestPost@i3NetworkHTTP@@QAEHXZ
	DD	2 DUP(00H)
	DD	00H
	DD	01H
xdata$x	ENDS
;	COMDAT xdata$x
xdata$x	SEGMENT
__ehfuncinfo$??1i3NetworkHTTP@@UAE@XZ DD 019930522H
	DD	00H
	DD	00H
	DD	2 DUP(00H)
	DD	2 DUP(00H)
	DD	00H
	DD	05H
xdata$x	ENDS
;	COMDAT voltbl
voltbl	SEGMENT
_volmd	DW	0c0H
	DW	0d6H
	DW	0f0H
	DW	0106H
	DW	0120H
	DW	0136H
	DW	0150H
	DW	01c0H
voltbl	ENDS
;	COMDAT xdata$x
xdata$x	SEGMENT
__unwindtable$??0i3NetworkHTTP@@QAE@XZ DD 0ffffffffH
	DD	FLAT:__unwindfunclet$??0i3NetworkHTTP@@QAE@XZ$0
	DD	00H
	DD	FLAT:__unwindfunclet$??0i3NetworkHTTP@@QAE@XZ$1
__ehfuncinfo$??0i3NetworkHTTP@@QAE@XZ DD 019930522H
	DD	02H
	DD	FLAT:__unwindtable$??0i3NetworkHTTP@@QAE@XZ
	DD	2 DUP(00H)
	DD	2 DUP(00H)
	DD	00H
	DD	01H
xdata$x	ENDS
;	COMDAT xdata$x
xdata$x	SEGMENT
__ehfuncinfo$??_Ei3StringList@@UAEPAXI@Z DD 019930522H
	DD	00H
	DD	00H
	DD	2 DUP(00H)
	DD	2 DUP(00H)
	DD	00H
	DD	05H
xdata$x	ENDS
;	COMDAT xdata$x
xdata$x	SEGMENT
__ehfuncinfo$??_Ei3List@@UAEPAXI@Z DD 019930522H
	DD	00H
	DD	00H
	DD	2 DUP(00H)
	DD	2 DUP(00H)
	DD	00H
	DD	05H
xdata$x	ENDS
;	COMDAT xdata$x
xdata$x	SEGMENT
__ehfuncinfo$??_Ei3XMLElement@@UAEPAXI@Z DD 019930522H
	DD	00H
	DD	00H
	DD	2 DUP(00H)
	DD	2 DUP(00H)
	DD	00H
	DD	05H
xdata$x	ENDS
;	COMDAT xdata$x
xdata$x	SEGMENT
__ehfuncinfo$??_ETiXmlPrinter@@UAEPAXI@Z DD 019930522H
	DD	00H
	DD	00H
	DD	2 DUP(00H)
	DD	2 DUP(00H)
	DD	00H
	DD	05H
xdata$x	ENDS
;	COMDAT xdata$x
xdata$x	SEGMENT
__unwindtable$??0TiXmlPrinter@@QAE@$$QAV0@@Z DD 0ffffffffH
	DD	FLAT:__unwindfunclet$??0TiXmlPrinter@@QAE@$$QAV0@@Z$0
	DD	00H
	DD	FLAT:__unwindfunclet$??0TiXmlPrinter@@QAE@$$QAV0@@Z$1
	DD	01H
	DD	FLAT:__unwindfunclet$??0TiXmlPrinter@@QAE@$$QAV0@@Z$2
__ehfuncinfo$??0TiXmlPrinter@@QAE@$$QAV0@@Z DD 019930522H
	DD	03H
	DD	FLAT:__unwindtable$??0TiXmlPrinter@@QAE@$$QAV0@@Z
	DD	2 DUP(00H)
	DD	2 DUP(00H)
	DD	00H
	DD	01H
xdata$x	ENDS
;	COMDAT xdata$x
xdata$x	SEGMENT
__unwindtable$??0TiXmlPrinter@@QAE@ABV0@@Z DD 0ffffffffH
	DD	FLAT:__unwindfunclet$??0TiXmlPrinter@@QAE@ABV0@@Z$0
	DD	00H
	DD	FLAT:__unwindfunclet$??0TiXmlPrinter@@QAE@ABV0@@Z$1
	DD	01H
	DD	FLAT:__unwindfunclet$??0TiXmlPrinter@@QAE@ABV0@@Z$2
__ehfuncinfo$??0TiXmlPrinter@@QAE@ABV0@@Z DD 019930522H
	DD	03H
	DD	FLAT:__unwindtable$??0TiXmlPrinter@@QAE@ABV0@@Z
	DD	2 DUP(00H)
	DD	2 DUP(00H)
	DD	00H
	DD	01H
xdata$x	ENDS
;	COMDAT xdata$x
xdata$x	SEGMENT
__unwindtable$??0TiXmlPrinter@@QAE@XZ DD 0ffffffffH
	DD	FLAT:__unwindfunclet$??0TiXmlPrinter@@QAE@XZ$0
	DD	00H
	DD	FLAT:__unwindfunclet$??0TiXmlPrinter@@QAE@XZ$1
	DD	01H
	DD	FLAT:__unwindfunclet$??0TiXmlPrinter@@QAE@XZ$2
__ehfuncinfo$??0TiXmlPrinter@@QAE@XZ DD 019930522H
	DD	03H
	DD	FLAT:__unwindtable$??0TiXmlPrinter@@QAE@XZ
	DD	2 DUP(00H)
	DD	2 DUP(00H)
	DD	00H
	DD	01H
xdata$x	ENDS
;	COMDAT xdata$x
xdata$x	SEGMENT
__ehfuncinfo$??_ETiXmlDocument@@UAEPAXI@Z DD 019930522H
	DD	00H
	DD	00H
	DD	2 DUP(00H)
	DD	2 DUP(00H)
	DD	00H
	DD	05H
xdata$x	ENDS
;	COMDAT xdata$x
xdata$x	SEGMENT
__ehfuncinfo$??_ETiXmlUnknown@@UAEPAXI@Z DD 019930522H
	DD	00H
	DD	00H
	DD	2 DUP(00H)
	DD	2 DUP(00H)
	DD	00H
	DD	05H
xdata$x	ENDS
;	COMDAT xdata$x
xdata$x	SEGMENT
__unwindtable$??0TiXmlUnknown@@QAE@ABV0@@Z DD 0ffffffffH
	DD	FLAT:__unwindfunclet$??0TiXmlUnknown@@QAE@ABV0@@Z$0
__ehfuncinfo$??0TiXmlUnknown@@QAE@ABV0@@Z DD 019930522H
	DD	01H
	DD	FLAT:__unwindtable$??0TiXmlUnknown@@QAE@ABV0@@Z
	DD	2 DUP(00H)
	DD	2 DUP(00H)
	DD	00H
	DD	01H
xdata$x	ENDS
;	COMDAT xdata$x
xdata$x	SEGMENT
__ehfuncinfo$??_ETiXmlDeclaration@@UAEPAXI@Z DD 019930522H
	DD	00H
	DD	00H
	DD	2 DUP(00H)
	DD	2 DUP(00H)
	DD	00H
	DD	05H
xdata$x	ENDS
;	COMDAT xdata$x
xdata$x	SEGMENT
__ehfuncinfo$??_ETiXmlText@@UAEPAXI@Z DD 019930522H
	DD	00H
	DD	00H
	DD	2 DUP(00H)
	DD	2 DUP(00H)
	DD	00H
	DD	05H
xdata$x	ENDS
;	COMDAT xdata$x
xdata$x	SEGMENT
__unwindtable$??0TiXmlText@@QAE@ABV0@@Z DD 0ffffffffH
	DD	FLAT:__unwindfunclet$??0TiXmlText@@QAE@ABV0@@Z$0
__ehfuncinfo$??0TiXmlText@@QAE@ABV0@@Z DD 019930522H
	DD	01H
	DD	FLAT:__unwindtable$??0TiXmlText@@QAE@ABV0@@Z
	DD	2 DUP(00H)
	DD	2 DUP(00H)
	DD	00H
	DD	01H
xdata$x	ENDS
;	COMDAT xdata$x
xdata$x	SEGMENT
__unwindtable$??0TiXmlText@@QAE@PBD@Z DD 0ffffffffH
	DD	FLAT:__unwindfunclet$??0TiXmlText@@QAE@PBD@Z$0
__ehfuncinfo$??0TiXmlText@@QAE@PBD@Z DD 019930522H
	DD	01H
	DD	FLAT:__unwindtable$??0TiXmlText@@QAE@PBD@Z
	DD	2 DUP(00H)
	DD	2 DUP(00H)
	DD	00H
	DD	01H
xdata$x	ENDS
;	COMDAT xdata$x
xdata$x	SEGMENT
__ehfuncinfo$??_ETiXmlComment@@UAEPAXI@Z DD 019930522H
	DD	00H
	DD	00H
	DD	2 DUP(00H)
	DD	2 DUP(00H)
	DD	00H
	DD	05H
xdata$x	ENDS
;	COMDAT xdata$x
xdata$x	SEGMENT
__unwindtable$??0TiXmlComment@@QAE@PBD@Z DD 0ffffffffH
	DD	FLAT:__unwindfunclet$??0TiXmlComment@@QAE@PBD@Z$0
__ehfuncinfo$??0TiXmlComment@@QAE@PBD@Z DD 019930522H
	DD	01H
	DD	FLAT:__unwindtable$??0TiXmlComment@@QAE@PBD@Z
	DD	2 DUP(00H)
	DD	2 DUP(00H)
	DD	00H
	DD	01H
xdata$x	ENDS
;	COMDAT xdata$x
xdata$x	SEGMENT
__ehfuncinfo$??_ETiXmlAttribute@@UAEPAXI@Z DD 019930522H
	DD	00H
	DD	00H
	DD	2 DUP(00H)
	DD	2 DUP(00H)
	DD	00H
	DD	05H
xdata$x	ENDS
;	COMDAT xdata$x
xdata$x	SEGMENT
__unwindtable$??0TiXmlAttribute@@QAE@PBD0@Z DD 0ffffffffH
	DD	FLAT:__unwindfunclet$??0TiXmlAttribute@@QAE@PBD0@Z$0
	DD	00H
	DD	FLAT:__unwindfunclet$??0TiXmlAttribute@@QAE@PBD0@Z$1
	DD	01H
	DD	FLAT:__unwindfunclet$??0TiXmlAttribute@@QAE@PBD0@Z$2
__ehfuncinfo$??0TiXmlAttribute@@QAE@PBD0@Z DD 019930522H
	DD	03H
	DD	FLAT:__unwindtable$??0TiXmlAttribute@@QAE@PBD0@Z
	DD	2 DUP(00H)
	DD	2 DUP(00H)
	DD	00H
	DD	01H
xdata$x	ENDS
;	COMDAT xdata$x
xdata$x	SEGMENT
__ehfuncinfo$??_ETiXmlBase@@UAEPAXI@Z DD 019930522H
	DD	00H
	DD	00H
	DD	2 DUP(00H)
	DD	2 DUP(00H)
	DD	00H
	DD	05H
xdata$x	ENDS
;	COMDAT xdata$x
xdata$x	SEGMENT
__ehfuncinfo$??_ETiXmlVisitor@@UAEPAXI@Z DD 019930522H
	DD	00H
	DD	00H
	DD	2 DUP(00H)
	DD	2 DUP(00H)
	DD	00H
	DD	05H
xdata$x	ENDS
;	COMDAT xdata$x
xdata$x	SEGMENT
__ehfuncinfo$??_Ei3FileStream@@UAEPAXI@Z DD 019930522H
	DD	00H
	DD	00H
	DD	2 DUP(00H)
	DD	2 DUP(00H)
	DD	00H
	DD	05H
xdata$x	ENDS
;	COMDAT xdata$x
xdata$x	SEGMENT
__ehfuncinfo$??_Ei3Stream@@UAEPAXI@Z DD 019930522H
	DD	00H
	DD	00H
	DD	2 DUP(00H)
	DD	2 DUP(00H)
	DD	00H
	DD	05H
xdata$x	ENDS
;	COMDAT xdata$x
xdata$x	SEGMENT
__ehfuncinfo$??_Ei3MemoryPool@@UAEPAXI@Z DD 019930522H
	DD	00H
	DD	00H
	DD	2 DUP(00H)
	DD	2 DUP(00H)
	DD	00H
	DD	05H
xdata$x	ENDS
;	COMDAT xdata$x
xdata$x	SEGMENT
__ehfuncinfo$??_Ei3ElementBase@@UAEPAXI@Z DD 019930522H
	DD	00H
	DD	00H
	DD	2 DUP(00H)
	DD	2 DUP(00H)
	DD	00H
	DD	05H
xdata$x	ENDS
;	COMDAT xdata$x
xdata$x	SEGMENT
__ehfuncinfo$??_Ei3ClassMeta@@UAEPAXI@Z DD 019930522H
	DD	00H
	DD	00H
	DD	2 DUP(00H)
	DD	2 DUP(00H)
	DD	00H
	DD	05H
xdata$x	ENDS
;	COMDAT voltbl
voltbl	SEGMENT
_volmd	DB	010H
voltbl	ENDS
;	COMDAT voltbl
voltbl	SEGMENT
_volmd	DB	010H
voltbl	ENDS
; Function compile flags: /Ogtp
;	COMDAT ??__Fs_ClassMetai3NetworkHTTP@@YAXXZ
text$yd	SEGMENT
??__Fs_ClassMetai3NetworkHTTP@@YAXXZ PROC		; `dynamic atexit destructor for 's_ClassMetai3NetworkHTTP'', COMDAT
  00000	b9 00 00 00 00	 mov	 ecx, OFFSET ?s_ClassMetai3NetworkHTTP@@3V?$i3MetaTemplate@Vi3NetworkHTTP@@@@A
  00005	e9 00 00 00 00	 jmp	 ??1i3ClassMeta@@UAE@XZ	; i3ClassMeta::~i3ClassMeta
??__Fs_ClassMetai3NetworkHTTP@@YAXXZ ENDP		; `dynamic atexit destructor for 's_ClassMetai3NetworkHTTP''
text$yd	ENDS
; Function compile flags: /Ogtp
; File E:\Proyectos\JuegosOnlineproyectos\PB\pbblow\Piercing Blow Remake\i3Server\src\i3Base\i3NetworkHTTP.cpp
; File E:\Proyectos\JuegosOnlineproyectos\PB\pbblow\Piercing Blow Remake\i3Server\include\i3Base\i3MetaTemplate.h
; File E:\Proyectos\JuegosOnlineproyectos\PB\pbblow\Piercing Blow Remake\i3Server\src\i3Base\i3NetworkHTTP.cpp
; File E:\Proyectos\JuegosOnlineproyectos\PB\pbblow\Piercing Blow Remake\i3Server\include\i3Base\i3MetaTemplate.h
; File E:\Proyectos\JuegosOnlineproyectos\PB\pbblow\Piercing Blow Remake\i3Server\src\i3Base\i3NetworkHTTP.cpp
;	COMDAT ??__Es_ClassMetai3NetworkHTTP@@YAXXZ
text$di	SEGMENT
??__Es_ClassMetai3NetworkHTTP@@YAXXZ PROC		; `dynamic initializer for 's_ClassMetai3NetworkHTTP'', COMDAT
; File E:\Proyectos\JuegosOnlineproyectos\PB\pbblow\Piercing Blow Remake\i3Server\include\i3Base\i3MetaTemplate.h

; 28   : : i3ClassMeta( classSz, pszClassName, pszBaseClassName, type)

  00000	6a 00		 push	 0
  00002	68 00 00 00 00	 push	 OFFSET ??_C@_0O@OCDFBOHM@i3ElementBase@
  00007	68 00 00 00 00	 push	 OFFSET ??_C@_0O@MICAHOBD@i3NetworkHTTP@
  0000c	68 a4 aa 01 00	 push	 109220			; 0001aaa4H
  00011	b9 00 00 00 00	 mov	 ecx, OFFSET ?s_ClassMetai3NetworkHTTP@@3V?$i3MetaTemplate@Vi3NetworkHTTP@@@@A
  00016	e8 00 00 00 00	 call	 ??0i3ClassMeta@@QAE@IPAD0W4I3_CLASSMETA_TYPE@@@Z ; i3ClassMeta::i3ClassMeta
; File E:\Proyectos\JuegosOnlineproyectos\PB\pbblow\Piercing Blow Remake\i3Server\src\i3Base\i3NetworkHTTP.cpp

; 6    : I3_CLASS_INSTANCE( i3NetworkHTTP, i3ElementBase );

  0001b	68 00 00 00 00	 push	 OFFSET ??__Fs_ClassMetai3NetworkHTTP@@YAXXZ ; `dynamic atexit destructor for 's_ClassMetai3NetworkHTTP''
; File E:\Proyectos\JuegosOnlineproyectos\PB\pbblow\Piercing Blow Remake\i3Server\include\i3Base\i3MetaTemplate.h

; 29   : {

  00020	c7 05 00 00 00
	00 00 00 00 00	 mov	 DWORD PTR ?s_ClassMetai3NetworkHTTP@@3V?$i3MetaTemplate@Vi3NetworkHTTP@@@@A, OFFSET ??_7?$i3MetaTemplate@Vi3NetworkHTTP@@@@6B@
; File E:\Proyectos\JuegosOnlineproyectos\PB\pbblow\Piercing Blow Remake\i3Server\src\i3Base\i3NetworkHTTP.cpp

; 6    : I3_CLASS_INSTANCE( i3NetworkHTTP, i3ElementBase );

  0002a	e8 00 00 00 00	 call	 _atexit
  0002f	59		 pop	 ecx
  00030	c3		 ret	 0
??__Es_ClassMetai3NetworkHTTP@@YAXXZ ENDP		; `dynamic initializer for 's_ClassMetai3NetworkHTTP''
text$di	ENDS
; Function compile flags: /Ogtp
;	COMDAT ??_G?$i3MetaTemplate@Vi3NetworkHTTP@@@@UAEPAXI@Z
_TEXT	SEGMENT
___flags$ = 8						; size = 4
??_G?$i3MetaTemplate@Vi3NetworkHTTP@@@@UAEPAXI@Z PROC	; i3MetaTemplate<i3NetworkHTTP>::`scalar deleting destructor', COMDAT
; _this$ = ecx
  00000	55		 push	 ebp
  00001	8b ec		 mov	 ebp, esp
  00003	56		 push	 esi
  00004	8b f1		 mov	 esi, ecx
  00006	e8 00 00 00 00	 call	 ??1i3ClassMeta@@UAE@XZ	; i3ClassMeta::~i3ClassMeta
  0000b	f6 45 08 01	 test	 BYTE PTR ___flags$[ebp], 1
  0000f	74 0b		 je	 SHORT $LN10@scalar
  00011	6a 38		 push	 56			; 00000038H
  00013	56		 push	 esi
  00014	e8 00 00 00 00	 call	 ??3@YAXPAXI@Z		; operator delete
  00019	83 c4 08	 add	 esp, 8
$LN10@scalar:
  0001c	8b c6		 mov	 eax, esi
  0001e	5e		 pop	 esi
  0001f	5d		 pop	 ebp
  00020	c2 04 00	 ret	 4
??_G?$i3MetaTemplate@Vi3NetworkHTTP@@@@UAEPAXI@Z ENDP	; i3MetaTemplate<i3NetworkHTTP>::`scalar deleting destructor'
_TEXT	ENDS
; Function compile flags: /Ogtp
; File E:\Proyectos\JuegosOnlineproyectos\PB\pbblow\Piercing Blow Remake\i3Server\include\i3Base\i3MetaTemplate.h
;	COMDAT ?BindInstance@?$i3MetaTemplate@Vi3NetworkHTTP@@@@UAEPAVi3ElementBase@@PAXW4I3_CLASSMETA_TYPE@@@Z
_TEXT	SEGMENT
__$EHRec$ = -12						; size = 12
_pBuf$ = 8						; size = 4
_type$ = 12						; size = 4
$T2 = 12						; size = 4
?BindInstance@?$i3MetaTemplate@Vi3NetworkHTTP@@@@UAEPAVi3ElementBase@@PAXW4I3_CLASSMETA_TYPE@@@Z PROC ; i3MetaTemplate<i3NetworkHTTP>::BindInstance, COMDAT
; _this$ = ecx

; 129  : 	{

  00000	55		 push	 ebp
  00001	8b ec		 mov	 ebp, esp
  00003	6a ff		 push	 -1
  00005	68 00 00 00 00	 push	 __ehhandler$?BindInstance@?$i3MetaTemplate@Vi3NetworkHTTP@@@@UAEPAVi3ElementBase@@PAXW4I3_CLASSMETA_TYPE@@@Z
  0000a	64 a1 00 00 00
	00		 mov	 eax, DWORD PTR fs:0
  00010	50		 push	 eax
  00011	a1 00 00 00 00	 mov	 eax, DWORD PTR ___security_cookie
  00016	33 c5		 xor	 eax, ebp
  00018	50		 push	 eax
  00019	8d 45 f4	 lea	 eax, DWORD PTR __$EHRec$[ebp]
  0001c	64 a3 00 00 00
	00		 mov	 DWORD PTR fs:0, eax

; 130  : 		if( m_ProxyCount > 0)

  00022	83 79 30 00	 cmp	 DWORD PTR [ecx+48], 0
  00026	7e 25		 jle	 SHORT $LN2@BindInstan

; 131  : 		{
; 132  : 			i3ClassMeta * pMeta = GetConcreteClass( type);

  00028	ff 75 0c	 push	 DWORD PTR _type$[ebp]
  0002b	e8 00 00 00 00	 call	 ?GetConcreteClass@i3ClassMeta@@QAEPAV1@W4I3_CLASSMETA_TYPE@@@Z ; i3ClassMeta::GetConcreteClass

; 133  : 
; 134  : 			return pMeta->BindInstance( pBuf, I3_CLASSMETA_TYPE_GENERAL);

  00030	6a 00		 push	 0
  00032	ff 75 08	 push	 DWORD PTR _pBuf$[ebp]
  00035	8b c8		 mov	 ecx, eax
  00037	8b 10		 mov	 edx, DWORD PTR [eax]
  00039	ff 52 08	 call	 DWORD PTR [edx+8]

; 142  : 			#endif
; 143  : 		}
; 144  : 	}

  0003c	8b 4d f4	 mov	 ecx, DWORD PTR __$EHRec$[ebp]
  0003f	64 89 0d 00 00
	00 00		 mov	 DWORD PTR fs:0, ecx
  00046	59		 pop	 ecx
  00047	8b e5		 mov	 esp, ebp
  00049	5d		 pop	 ebp
  0004a	c2 08 00	 ret	 8
$LN2@BindInstan:

; 135  : 		}
; 136  : 		else
; 137  : 		{
; 138  : 			#if defined( I3_DEBUG)
; 139  : 				return (i3ElementBase *) new( pBuf ) T;
; 140  : 			#else
; 141  : 				return (i3ElementBase *) new( pBuf ) T;

  0004d	ff 75 08	 push	 DWORD PTR _pBuf$[ebp]
  00050	68 a4 aa 01 00	 push	 109220			; 0001aaa4H
  00055	e8 00 00 00 00	 call	 ??2i3ElementBase@@SAPAXIPAX@Z ; i3ElementBase::operator new
  0005a	83 c4 08	 add	 esp, 8
  0005d	89 45 0c	 mov	 DWORD PTR $T2[ebp], eax
  00060	c7 45 fc 00 00
	00 00		 mov	 DWORD PTR __$EHRec$[ebp+8], 0
  00067	85 c0		 test	 eax, eax
  00069	74 18		 je	 SHORT $LN5@BindInstan
  0006b	8b c8		 mov	 ecx, eax
  0006d	e8 00 00 00 00	 call	 ??0i3NetworkHTTP@@QAE@XZ ; i3NetworkHTTP::i3NetworkHTTP

; 142  : 			#endif
; 143  : 		}
; 144  : 	}

  00072	8b 4d f4	 mov	 ecx, DWORD PTR __$EHRec$[ebp]
  00075	64 89 0d 00 00
	00 00		 mov	 DWORD PTR fs:0, ecx
  0007c	59		 pop	 ecx
  0007d	8b e5		 mov	 esp, ebp
  0007f	5d		 pop	 ebp
  00080	c2 08 00	 ret	 8
$LN5@BindInstan:

; 135  : 		}
; 136  : 		else
; 137  : 		{
; 138  : 			#if defined( I3_DEBUG)
; 139  : 				return (i3ElementBase *) new( pBuf ) T;
; 140  : 			#else
; 141  : 				return (i3ElementBase *) new( pBuf ) T;

  00083	33 c0		 xor	 eax, eax

; 142  : 			#endif
; 143  : 		}
; 144  : 	}

  00085	8b 4d f4	 mov	 ecx, DWORD PTR __$EHRec$[ebp]
  00088	64 89 0d 00 00
	00 00		 mov	 DWORD PTR fs:0, ecx
  0008f	59		 pop	 ecx
  00090	8b e5		 mov	 esp, ebp
  00092	5d		 pop	 ebp
  00093	c2 08 00	 ret	 8
_TEXT	ENDS
;	COMDAT text$x
text$x	SEGMENT
__unwindfunclet$?BindInstance@?$i3MetaTemplate@Vi3NetworkHTTP@@@@UAEPAVi3ElementBase@@PAXW4I3_CLASSMETA_TYPE@@@Z$0:
  00000	8b 45 08	 mov	 eax, DWORD PTR _pBuf$[ebp]
  00003	50		 push	 eax
  00004	8b 45 0c	 mov	 eax, DWORD PTR $T2[ebp]
  00007	50		 push	 eax
  00008	e8 00 00 00 00	 call	 ??3i3ElementBase@@SAXPAX0@Z ; i3ElementBase::operator delete
  0000d	83 c4 08	 add	 esp, 8
  00010	c3		 ret	 0
  00011	cc		 int	 3
  00012	cc		 int	 3
  00013	cc		 int	 3
  00014	cc		 int	 3
  00015	cc		 int	 3
__ehhandler$?BindInstance@?$i3MetaTemplate@Vi3NetworkHTTP@@@@UAEPAVi3ElementBase@@PAXW4I3_CLASSMETA_TYPE@@@Z:
  00016	90		 npad	 1
  00017	90		 npad	 1
  00018	8b 54 24 08	 mov	 edx, DWORD PTR [esp+8]
  0001c	8d 42 0c	 lea	 eax, DWORD PTR [edx+12]
  0001f	8b 4a fc	 mov	 ecx, DWORD PTR [edx-4]
  00022	33 c8		 xor	 ecx, eax
  00024	e8 00 00 00 00	 call	 @__security_check_cookie@4
  00029	b8 00 00 00 00	 mov	 eax, OFFSET __ehfuncinfo$?BindInstance@?$i3MetaTemplate@Vi3NetworkHTTP@@@@UAEPAVi3ElementBase@@PAXW4I3_CLASSMETA_TYPE@@@Z
  0002e	e9 00 00 00 00	 jmp	 ___CxxFrameHandler3
text$x	ENDS
?BindInstance@?$i3MetaTemplate@Vi3NetworkHTTP@@@@UAEPAVi3ElementBase@@PAXW4I3_CLASSMETA_TYPE@@@Z ENDP ; i3MetaTemplate<i3NetworkHTTP>::BindInstance
; Function compile flags: /Ogtp
; File E:\Proyectos\JuegosOnlineproyectos\PB\pbblow\Piercing Blow Remake\i3Server\include\i3Base\i3MetaTemplate.h
; File E:\Proyectos\JuegosOnlineproyectos\PB\pbblow\Piercing Blow Remake\i3Server\include\i3Base\i3ElementBase.h
; File E:\Proyectos\JuegosOnlineproyectos\PB\pbblow\Piercing Blow Remake\i3Server\include\i3Base\i3MetaTemplate.h
; File E:\Proyectos\JuegosOnlineproyectos\PB\pbblow\Piercing Blow Remake\i3Server\include\i3Base\i3ElementBase.h
; File E:\Proyectos\JuegosOnlineproyectos\PB\pbblow\Piercing Blow Remake\i3Server\include\i3Base\i3MetaTemplate.h
;	COMDAT ?CreateInstance@?$i3MetaTemplate@Vi3NetworkHTTP@@@@UAEPAVi3ElementBase@@W4I3_CLASSMETA_TYPE@@@Z
_TEXT	SEGMENT
__$EHRec$ = -12						; size = 12
_type$ = 8						; size = 4
$T2 = 8							; size = 4
?CreateInstance@?$i3MetaTemplate@Vi3NetworkHTTP@@@@UAEPAVi3ElementBase@@W4I3_CLASSMETA_TYPE@@@Z PROC ; i3MetaTemplate<i3NetworkHTTP>::CreateInstance, COMDAT
; _this$ = ecx

; 97   : 	{

  00000	55		 push	 ebp
  00001	8b ec		 mov	 ebp, esp
  00003	6a ff		 push	 -1
  00005	68 00 00 00 00	 push	 __ehhandler$?CreateInstance@?$i3MetaTemplate@Vi3NetworkHTTP@@@@UAEPAVi3ElementBase@@W4I3_CLASSMETA_TYPE@@@Z
  0000a	64 a1 00 00 00
	00		 mov	 eax, DWORD PTR fs:0
  00010	50		 push	 eax
  00011	56		 push	 esi
  00012	57		 push	 edi
  00013	a1 00 00 00 00	 mov	 eax, DWORD PTR ___security_cookie
  00018	33 c5		 xor	 eax, ebp
  0001a	50		 push	 eax
  0001b	8d 45 f4	 lea	 eax, DWORD PTR __$EHRec$[ebp]
  0001e	64 a3 00 00 00
	00		 mov	 DWORD PTR fs:0, eax
  00024	8b f9		 mov	 edi, ecx

; 98   : 		if( m_ProxyCount > 0)

  00026	83 7f 30 00	 cmp	 DWORD PTR [edi+48], 0
  0002a	7e 28		 jle	 SHORT $LN3@CreateInst

; 99   : 		{
; 100  : 			i3ClassMeta * pMeta = GetConcreteClass( type);

  0002c	ff 75 08	 push	 DWORD PTR _type$[ebp]
  0002f	e8 00 00 00 00	 call	 ?GetConcreteClass@i3ClassMeta@@QAEPAV1@W4I3_CLASSMETA_TYPE@@@Z ; i3ClassMeta::GetConcreteClass

; 101  : 
; 102  : 			if( pMeta != NULL)

  00034	85 c0		 test	 eax, eax
  00036	74 1c		 je	 SHORT $LN3@CreateInst

; 103  : 				return pMeta->CreateInstance( I3_CLASSMETA_TYPE_GENERAL);

  00038	8b 10		 mov	 edx, DWORD PTR [eax]
  0003a	8b c8		 mov	 ecx, eax
  0003c	6a 00		 push	 0
  0003e	ff 52 04	 call	 DWORD PTR [edx+4]

; 125  : 	}

  00041	8b 4d f4	 mov	 ecx, DWORD PTR __$EHRec$[ebp]
  00044	64 89 0d 00 00
	00 00		 mov	 DWORD PTR fs:0, ecx
  0004b	59		 pop	 ecx
  0004c	5f		 pop	 edi
  0004d	5e		 pop	 esi
  0004e	8b e5		 mov	 esp, ebp
  00050	5d		 pop	 ebp
  00051	c2 04 00	 ret	 4
$LN3@CreateInst:

; 104  : 		}
; 105  : 
; 106  : 		{
; 107  : 			if( m_pPool == NULL)

  00054	8b 4f 34	 mov	 ecx, DWORD PTR [edi+52]
  00057	85 c9		 test	 ecx, ecx
  00059	75 4a		 jne	 SHORT $LN4@CreateInst

; 108  : 			{
; 109  : 				#if defined( I3_DEBUG)
; 110  : 					return (i3ElementBase *) new T;
; 111  : 				#else
; 112  : 					return (i3ElementBase *) new T;

  0005b	68 a4 aa 01 00	 push	 109220			; 0001aaa4H
  00060	e8 00 00 00 00	 call	 ??2i3ElementBase@@SAPAXI@Z ; i3ElementBase::operator new
  00065	83 c4 04	 add	 esp, 4
  00068	89 45 08	 mov	 DWORD PTR $T2[ebp], eax
  0006b	c7 45 fc 00 00
	00 00		 mov	 DWORD PTR __$EHRec$[ebp+8], 0
  00072	85 c0		 test	 eax, eax
  00074	74 1a		 je	 SHORT $LN7@CreateInst
  00076	8b c8		 mov	 ecx, eax
  00078	e8 00 00 00 00	 call	 ??0i3NetworkHTTP@@QAE@XZ ; i3NetworkHTTP::i3NetworkHTTP

; 125  : 	}

  0007d	8b 4d f4	 mov	 ecx, DWORD PTR __$EHRec$[ebp]
  00080	64 89 0d 00 00
	00 00		 mov	 DWORD PTR fs:0, ecx
  00087	59		 pop	 ecx
  00088	5f		 pop	 edi
  00089	5e		 pop	 esi
  0008a	8b e5		 mov	 esp, ebp
  0008c	5d		 pop	 ebp
  0008d	c2 04 00	 ret	 4
$LN7@CreateInst:

; 108  : 			{
; 109  : 				#if defined( I3_DEBUG)
; 110  : 					return (i3ElementBase *) new T;
; 111  : 				#else
; 112  : 					return (i3ElementBase *) new T;

  00090	33 c0		 xor	 eax, eax

; 125  : 	}

  00092	8b 4d f4	 mov	 ecx, DWORD PTR __$EHRec$[ebp]
  00095	64 89 0d 00 00
	00 00		 mov	 DWORD PTR fs:0, ecx
  0009c	59		 pop	 ecx
  0009d	5f		 pop	 edi
  0009e	5e		 pop	 esi
  0009f	8b e5		 mov	 esp, ebp
  000a1	5d		 pop	 ebp
  000a2	c2 04 00	 ret	 4
$LN4@CreateInst:

; 113  : 				#endif
; 114  : 			}
; 115  : 			else
; 116  : 			{
; 117  : 				i3ElementBase * p = (i3ElementBase *) m_pPool->Alloc( sizeof(T), NULL, 0);

  000a5	8b 01		 mov	 eax, DWORD PTR [ecx]
  000a7	6a 00		 push	 0
  000a9	6a 00		 push	 0
  000ab	68 a4 aa 01 00	 push	 109220			; 0001aaa4H
  000b0	ff 50 04	 call	 DWORD PTR [eax+4]

; 118  : 	
; 119  : 				BindInstance( p, type);

  000b3	ff 75 08	 push	 DWORD PTR _type$[ebp]
  000b6	8b 17		 mov	 edx, DWORD PTR [edi]
  000b8	8b f0		 mov	 esi, eax
  000ba	56		 push	 esi
  000bb	8b cf		 mov	 ecx, edi
  000bd	ff 52 08	 call	 DWORD PTR [edx+8]
; File E:\Proyectos\JuegosOnlineproyectos\PB\pbblow\Piercing Blow Remake\i3Server\include\i3Base\i3ElementBase.h

; 347  : 	void			__SetMemoryPool( i3MemoryPool * pPool)			{ m_pPool = pPool; }

  000c0	8b 4f 34	 mov	 ecx, DWORD PTR [edi+52]
; File E:\Proyectos\JuegosOnlineproyectos\PB\pbblow\Piercing Blow Remake\i3Server\include\i3Base\i3MetaTemplate.h

; 122  : 				return p;

  000c3	8b c6		 mov	 eax, esi
; File E:\Proyectos\JuegosOnlineproyectos\PB\pbblow\Piercing Blow Remake\i3Server\include\i3Base\i3ElementBase.h

; 347  : 	void			__SetMemoryPool( i3MemoryPool * pPool)			{ m_pPool = pPool; }

  000c5	89 4e 0c	 mov	 DWORD PTR [esi+12], ecx
; File E:\Proyectos\JuegosOnlineproyectos\PB\pbblow\Piercing Blow Remake\i3Server\include\i3Base\i3MetaTemplate.h

; 125  : 	}

  000c8	8b 4d f4	 mov	 ecx, DWORD PTR __$EHRec$[ebp]
  000cb	64 89 0d 00 00
	00 00		 mov	 DWORD PTR fs:0, ecx
  000d2	59		 pop	 ecx
  000d3	5f		 pop	 edi
  000d4	5e		 pop	 esi
  000d5	8b e5		 mov	 esp, ebp
  000d7	5d		 pop	 ebp
  000d8	c2 04 00	 ret	 4
_TEXT	ENDS
;	COMDAT text$x
text$x	SEGMENT
__unwindfunclet$?CreateInstance@?$i3MetaTemplate@Vi3NetworkHTTP@@@@UAEPAVi3ElementBase@@W4I3_CLASSMETA_TYPE@@@Z$0:
  00000	8b 45 08	 mov	 eax, DWORD PTR $T2[ebp]
  00003	50		 push	 eax
  00004	e8 00 00 00 00	 call	 ??3i3ElementBase@@SAXPAX@Z ; i3ElementBase::operator delete
  00009	59		 pop	 ecx
  0000a	c3		 ret	 0
  0000b	cc		 int	 3
  0000c	cc		 int	 3
  0000d	cc		 int	 3
  0000e	cc		 int	 3
  0000f	cc		 int	 3
__ehhandler$?CreateInstance@?$i3MetaTemplate@Vi3NetworkHTTP@@@@UAEPAVi3ElementBase@@W4I3_CLASSMETA_TYPE@@@Z:
  00010	90		 npad	 1
  00011	90		 npad	 1
  00012	8b 54 24 08	 mov	 edx, DWORD PTR [esp+8]
  00016	8d 42 0c	 lea	 eax, DWORD PTR [edx+12]
  00019	8b 4a f4	 mov	 ecx, DWORD PTR [edx-12]
  0001c	33 c8		 xor	 ecx, eax
  0001e	e8 00 00 00 00	 call	 @__security_check_cookie@4
  00023	b8 00 00 00 00	 mov	 eax, OFFSET __ehfuncinfo$?CreateInstance@?$i3MetaTemplate@Vi3NetworkHTTP@@@@UAEPAVi3ElementBase@@W4I3_CLASSMETA_TYPE@@@Z
  00028	e9 00 00 00 00	 jmp	 ___CxxFrameHandler3
text$x	ENDS
?CreateInstance@?$i3MetaTemplate@Vi3NetworkHTTP@@@@UAEPAVi3ElementBase@@W4I3_CLASSMETA_TYPE@@@Z ENDP ; i3MetaTemplate<i3NetworkHTTP>::CreateInstance
; Function compile flags: /Ogtp
; File E:\Proyectos\JuegosOnlineproyectos\PB\pbblow\Piercing Blow Remake\i3Server\include\i3Base\i3MetaTemplate.h
;	COMDAT ??0?$i3MetaTemplate@Vi3NetworkHTTP@@@@QAE@IPAD0W4I3_CLASSMETA_TYPE@@@Z
_TEXT	SEGMENT
_this$ = -4						; size = 4
_classSz$ = 8						; size = 4
_pszClassName$ = 12					; size = 4
_pszBaseClassName$ = 16					; size = 4
_type$ = 20						; size = 4
??0?$i3MetaTemplate@Vi3NetworkHTTP@@@@QAE@IPAD0W4I3_CLASSMETA_TYPE@@@Z PROC ; i3MetaTemplate<i3NetworkHTTP>::i3MetaTemplate<i3NetworkHTTP>, COMDAT
; _this$ = ecx

; 29   : {

  00000	55		 push	 ebp
  00001	8b ec		 mov	 ebp, esp
  00003	51		 push	 ecx
  00004	56		 push	 esi
  00005	ff 75 14	 push	 DWORD PTR _type$[ebp]
  00008	8b f1		 mov	 esi, ecx
  0000a	ff 75 10	 push	 DWORD PTR _pszBaseClassName$[ebp]
  0000d	89 75 fc	 mov	 DWORD PTR _this$[ebp], esi
  00010	ff 75 0c	 push	 DWORD PTR _pszClassName$[ebp]
  00013	ff 75 08	 push	 DWORD PTR _classSz$[ebp]
  00016	e8 00 00 00 00	 call	 ??0i3ClassMeta@@QAE@IPAD0W4I3_CLASSMETA_TYPE@@@Z ; i3ClassMeta::i3ClassMeta
  0001b	c7 06 00 00 00
	00		 mov	 DWORD PTR [esi], OFFSET ??_7?$i3MetaTemplate@Vi3NetworkHTTP@@@@6B@

; 30   : }

  00021	8b c6		 mov	 eax, esi
  00023	5e		 pop	 esi
  00024	8b e5		 mov	 esp, ebp
  00026	5d		 pop	 ebp
  00027	c2 10 00	 ret	 16			; 00000010H
??0?$i3MetaTemplate@Vi3NetworkHTTP@@@@QAE@IPAD0W4I3_CLASSMETA_TYPE@@@Z ENDP ; i3MetaTemplate<i3NetworkHTTP>::i3MetaTemplate<i3NetworkHTTP>
_TEXT	ENDS
; Function compile flags: /Ogtp
; File E:\Proyectos\JuegosOnlineproyectos\PB\pbblow\Piercing Blow Remake\i3Server\src\i3Base\i3NetworkHTTP.cpp
;	COMDAT ??_Ei3NetworkHTTP@@UAEPAXI@Z
_TEXT	SEGMENT
__$EHRec$ = -12						; size = 12
___flags$ = 8						; size = 4
tv179 = 8						; size = 4
??_Ei3NetworkHTTP@@UAEPAXI@Z PROC			; i3NetworkHTTP::`vector deleting destructor', COMDAT
; _this$ = ecx
  00000	55		 push	 ebp
  00001	8b ec		 mov	 ebp, esp
  00003	6a ff		 push	 -1
  00005	68 00 00 00 00	 push	 __ehhandler$??_Ei3NetworkHTTP@@UAEPAXI@Z
  0000a	64 a1 00 00 00
	00		 mov	 eax, DWORD PTR fs:0
  00010	50		 push	 eax
  00011	53		 push	 ebx
  00012	56		 push	 esi
  00013	57		 push	 edi
  00014	a1 00 00 00 00	 mov	 eax, DWORD PTR ___security_cookie
  00019	33 c5		 xor	 eax, ebp
  0001b	50		 push	 eax
  0001c	8d 45 f4	 lea	 eax, DWORD PTR __$EHRec$[ebp]
  0001f	64 a3 00 00 00
	00		 mov	 DWORD PTR fs:0, eax
  00025	8b f1		 mov	 esi, ecx
  00027	8b 5d 08	 mov	 ebx, DWORD PTR ___flags$[ebp]
  0002a	8b fb		 mov	 edi, ebx
  0002c	83 e7 01	 and	 edi, 1
  0002f	89 7d 08	 mov	 DWORD PTR tv179[ebp], edi
  00032	f6 c3 02	 test	 bl, 2
  00035	74 45		 je	 SHORT $LN2@vector
  00037	68 00 00 00 00	 push	 OFFSET ??1i3NetworkHTTP@@UAE@XZ ; i3NetworkHTTP::~i3NetworkHTTP
  0003c	ff 76 fc	 push	 DWORD PTR [esi-4]
  0003f	8d 7e fc	 lea	 edi, DWORD PTR [esi-4]
  00042	68 a4 aa 01 00	 push	 109220			; 0001aaa4H
  00047	56		 push	 esi
  00048	e8 00 00 00 00	 call	 ??_M@YGXPAXIIP6EX0@Z@Z
  0004d	83 7d 08 00	 cmp	 DWORD PTR tv179[ebp], 0
  00051	74 13		 je	 SHORT $LN3@vector
  00053	69 0f a4 aa 01
	00		 imul	 ecx, DWORD PTR [edi], 109220
  00059	83 c1 04	 add	 ecx, 4
  0005c	51		 push	 ecx
  0005d	57		 push	 edi
  0005e	e8 00 00 00 00	 call	 ??_V@YAXPAXI@Z		; operator delete[]
  00063	83 c4 08	 add	 esp, 8
$LN3@vector:
  00066	8b c7		 mov	 eax, edi
  00068	8b 4d f4	 mov	 ecx, DWORD PTR __$EHRec$[ebp]
  0006b	64 89 0d 00 00
	00 00		 mov	 DWORD PTR fs:0, ecx
  00072	59		 pop	 ecx
  00073	5f		 pop	 edi
  00074	5e		 pop	 esi
  00075	5b		 pop	 ebx
  00076	8b e5		 mov	 esp, ebp
  00078	5d		 pop	 ebp
  00079	c2 04 00	 ret	 4
$LN2@vector:

; 56   : 	Destroy(); 

  0007c	8b ce		 mov	 ecx, esi
  0007e	c7 45 fc 00 00
	00 00		 mov	 DWORD PTR __$EHRec$[ebp+8], 0
  00085	c7 06 00 00 00
	00		 mov	 DWORD PTR [esi], OFFSET ??_7i3NetworkHTTP@@6B@
  0008b	e8 00 00 00 00	 call	 ?Destroy@i3NetworkHTTP@@QAEXXZ ; i3NetworkHTTP::Destroy

; 57   : }

  00090	8d 8e 34 13 00
	00		 lea	 ecx, DWORD PTR [esi+4916]
  00096	e8 00 00 00 00	 call	 ??1i3List@@UAE@XZ	; i3List::~i3List
  0009b	8b ce		 mov	 ecx, esi
  0009d	e8 00 00 00 00	 call	 ??1i3ElementBase@@UAE@XZ ; i3ElementBase::~i3ElementBase
  000a2	85 ff		 test	 edi, edi
  000a4	74 1e		 je	 SHORT $LN6@vector
  000a6	f6 c3 04	 test	 bl, 4
  000a9	75 0b		 jne	 SHORT $LN5@vector
  000ab	56		 push	 esi
  000ac	e8 00 00 00 00	 call	 ??3i3ElementBase@@SAXPAX@Z ; i3ElementBase::operator delete
  000b1	83 c4 04	 add	 esp, 4
  000b4	eb 0e		 jmp	 SHORT $LN6@vector
$LN5@vector:

  000b6	68 a4 aa 01 00	 push	 109220			; 0001aaa4H
  000bb	56		 push	 esi
  000bc	e8 00 00 00 00	 call	 ??3@YAXPAXI@Z		; operator delete
  000c1	83 c4 08	 add	 esp, 8
$LN6@vector:
  000c4	8b c6		 mov	 eax, esi
  000c6	8b 4d f4	 mov	 ecx, DWORD PTR __$EHRec$[ebp]
  000c9	64 89 0d 00 00
	00 00		 mov	 DWORD PTR fs:0, ecx
  000d0	59		 pop	 ecx
  000d1	5f		 pop	 edi
  000d2	5e		 pop	 esi
  000d3	5b		 pop	 ebx
  000d4	8b e5		 mov	 esp, ebp
  000d6	5d		 pop	 ebp
  000d7	c2 04 00	 ret	 4
  000da	cc		 int	 3
  000db	cc		 int	 3
  000dc	cc		 int	 3
  000dd	cc		 int	 3
  000de	cc		 int	 3
_TEXT	ENDS
;	COMDAT text$x
text$x	SEGMENT
__ehhandler$??_Ei3NetworkHTTP@@UAEPAXI@Z:
  00000	90		 npad	 1
  00001	90		 npad	 1
  00002	8b 54 24 08	 mov	 edx, DWORD PTR [esp+8]
  00006	8d 42 0c	 lea	 eax, DWORD PTR [edx+12]
  00009	8b 4a f0	 mov	 ecx, DWORD PTR [edx-16]
  0000c	33 c8		 xor	 ecx, eax
  0000e	e8 00 00 00 00	 call	 @__security_check_cookie@4
  00013	b8 00 00 00 00	 mov	 eax, OFFSET __ehfuncinfo$??_Ei3NetworkHTTP@@UAEPAXI@Z
  00018	e9 00 00 00 00	 jmp	 ___CxxFrameHandler3
text$x	ENDS
??_Ei3NetworkHTTP@@UAEPAXI@Z ENDP			; i3NetworkHTTP::`vector deleting destructor'
; Function compile flags: /Ogtp
; File E:\Proyectos\JuegosOnlineproyectos\PB\pbblow\Piercing Blow Remake\i3Server\src\i3Base\i3NetworkHTTP.cpp
;	COMDAT ??_Gi3NetworkHTTP@@UAEPAXI@Z
_TEXT	SEGMENT
__$EHRec$ = -12						; size = 12
___flags$ = 8						; size = 4
??_Gi3NetworkHTTP@@UAEPAXI@Z PROC			; i3NetworkHTTP::`scalar deleting destructor', COMDAT
; _this$ = ecx
  00000	55		 push	 ebp
  00001	8b ec		 mov	 ebp, esp
  00003	6a ff		 push	 -1
  00005	68 00 00 00 00	 push	 __ehhandler$??_Gi3NetworkHTTP@@UAEPAXI@Z
  0000a	64 a1 00 00 00
	00		 mov	 eax, DWORD PTR fs:0
  00010	50		 push	 eax
  00011	56		 push	 esi
  00012	a1 00 00 00 00	 mov	 eax, DWORD PTR ___security_cookie
  00017	33 c5		 xor	 eax, ebp
  00019	50		 push	 eax
  0001a	8d 45 f4	 lea	 eax, DWORD PTR __$EHRec$[ebp]
  0001d	64 a3 00 00 00
	00		 mov	 DWORD PTR fs:0, eax
  00023	8b f1		 mov	 esi, ecx

; 55   : {

  00025	c7 45 fc 00 00
	00 00		 mov	 DWORD PTR __$EHRec$[ebp+8], 0
  0002c	c7 06 00 00 00
	00		 mov	 DWORD PTR [esi], OFFSET ??_7i3NetworkHTTP@@6B@

; 56   : 	Destroy(); 

  00032	e8 00 00 00 00	 call	 ?Destroy@i3NetworkHTTP@@QAEXXZ ; i3NetworkHTTP::Destroy

; 57   : }

  00037	8d 8e 34 13 00
	00		 lea	 ecx, DWORD PTR [esi+4916]
  0003d	e8 00 00 00 00	 call	 ??1i3List@@UAE@XZ	; i3List::~i3List
  00042	8b ce		 mov	 ecx, esi
  00044	e8 00 00 00 00	 call	 ??1i3ElementBase@@UAE@XZ ; i3ElementBase::~i3ElementBase
  00049	8b 45 08	 mov	 eax, DWORD PTR ___flags$[ebp]
  0004c	a8 01		 test	 al, 1
  0004e	74 2f		 je	 SHORT $LN15@scalar
  00050	a8 04		 test	 al, 4
  00052	75 1d		 jne	 SHORT $LN3@scalar
  00054	56		 push	 esi
  00055	e8 00 00 00 00	 call	 ??3i3ElementBase@@SAXPAX@Z ; i3ElementBase::operator delete
  0005a	83 c4 04	 add	 esp, 4
  0005d	8b c6		 mov	 eax, esi
  0005f	8b 4d f4	 mov	 ecx, DWORD PTR __$EHRec$[ebp]
  00062	64 89 0d 00 00
	00 00		 mov	 DWORD PTR fs:0, ecx
  00069	59		 pop	 ecx
  0006a	5e		 pop	 esi
  0006b	8b e5		 mov	 esp, ebp
  0006d	5d		 pop	 ebp
  0006e	c2 04 00	 ret	 4
$LN3@scalar:

  00071	68 a4 aa 01 00	 push	 109220			; 0001aaa4H
  00076	56		 push	 esi
  00077	e8 00 00 00 00	 call	 ??3@YAXPAXI@Z		; operator delete
  0007c	83 c4 08	 add	 esp, 8
$LN15@scalar:
  0007f	8b c6		 mov	 eax, esi
  00081	8b 4d f4	 mov	 ecx, DWORD PTR __$EHRec$[ebp]
  00084	64 89 0d 00 00
	00 00		 mov	 DWORD PTR fs:0, ecx
  0008b	59		 pop	 ecx
  0008c	5e		 pop	 esi
  0008d	8b e5		 mov	 esp, ebp
  0008f	5d		 pop	 ebp
  00090	c2 04 00	 ret	 4
  00093	cc		 int	 3
  00094	cc		 int	 3
  00095	cc		 int	 3
  00096	cc		 int	 3
  00097	cc		 int	 3
_TEXT	ENDS
;	COMDAT text$x
text$x	SEGMENT
__ehhandler$??_Gi3NetworkHTTP@@UAEPAXI@Z:
  00000	90		 npad	 1
  00001	90		 npad	 1
  00002	8b 54 24 08	 mov	 edx, DWORD PTR [esp+8]
  00006	8d 42 0c	 lea	 eax, DWORD PTR [edx+12]
  00009	8b 4a f8	 mov	 ecx, DWORD PTR [edx-8]
  0000c	33 c8		 xor	 ecx, eax
  0000e	e8 00 00 00 00	 call	 @__security_check_cookie@4
  00013	b8 00 00 00 00	 mov	 eax, OFFSET __ehfuncinfo$??_Gi3NetworkHTTP@@UAEPAXI@Z
  00018	e9 00 00 00 00	 jmp	 ___CxxFrameHandler3
text$x	ENDS
??_Gi3NetworkHTTP@@UAEPAXI@Z ENDP			; i3NetworkHTTP::`scalar deleting destructor'
; Function compile flags: /Ogtp
;	COMDAT ??4i3NetworkHTTP@@QAEAAV0@ABV0@@Z
_TEXT	SEGMENT
_this$1$ = -12						; size = 4
tv663 = -8						; size = 4
tv662 = -4						; size = 4
___that$ = 8						; size = 4
??4i3NetworkHTTP@@QAEAAV0@ABV0@@Z PROC			; i3NetworkHTTP::operator=, COMDAT
; _this$ = ecx
  00000	55		 push	 ebp
  00001	8b ec		 mov	 ebp, esp
  00003	83 ec 0c	 sub	 esp, 12			; 0000000cH
  00006	53		 push	 ebx
  00007	8b d9		 mov	 ebx, ecx
  00009	33 c9		 xor	 ecx, ecx
  0000b	56		 push	 esi
  0000c	8b 75 08	 mov	 esi, DWORD PTR ___that$[ebp]
  0000f	89 5d f4	 mov	 DWORD PTR _this$1$[ebp], ebx
  00012	8b 46 04	 mov	 eax, DWORD PTR [esi+4]
  00015	89 43 04	 mov	 DWORD PTR [ebx+4], eax
  00018	8b 46 08	 mov	 eax, DWORD PTR [esi+8]
  0001b	89 43 08	 mov	 DWORD PTR [ebx+8], eax
  0001e	8b 46 0c	 mov	 eax, DWORD PTR [esi+12]
  00021	89 43 0c	 mov	 DWORD PTR [ebx+12], eax
  00024	8b 46 10	 mov	 eax, DWORD PTR [esi+16]
  00027	89 43 10	 mov	 DWORD PTR [ebx+16], eax
  0002a	8b 46 14	 mov	 eax, DWORD PTR [esi+20]
  0002d	89 43 14	 mov	 DWORD PTR [ebx+20], eax
  00030	8b 46 18	 mov	 eax, DWORD PTR [esi+24]
  00033	89 43 18	 mov	 DWORD PTR [ebx+24], eax
  00036	8b 46 1c	 mov	 eax, DWORD PTR [esi+28]
  00039	89 43 1c	 mov	 DWORD PTR [ebx+28], eax
  0003c	8b 46 20	 mov	 eax, DWORD PTR [esi+32]
  0003f	89 43 20	 mov	 DWORD PTR [ebx+32], eax
  00042	66 8b 46 24	 mov	 ax, WORD PTR [esi+36]
  00046	66 89 43 24	 mov	 WORD PTR [ebx+36], ax
  0004a	8d 9b 00 00 00
	00		 npad	 6
$LL4@operator:
  00050	8a 44 0e 26	 mov	 al, BYTE PTR [esi+ecx+38]
  00054	88 44 0b 26	 mov	 BYTE PTR [ebx+ecx+38], al
  00058	41		 inc	 ecx
  00059	81 f9 04 01 00
	00		 cmp	 ecx, 260		; 00000104H
  0005f	72 ef		 jb	 SHORT $LL4@operator
  00061	33 c9		 xor	 ecx, ecx
  00063	eb 0b 8d a4 24
	00 00 00 00 8d
	64 24 00	 npad	 13
$LL7@operator:
  00070	8a 84 0e 2a 01
	00 00		 mov	 al, BYTE PTR [esi+ecx+298]
  00077	88 84 0b 2a 01
	00 00		 mov	 BYTE PTR [ebx+ecx+298], al
  0007e	41		 inc	 ecx
  0007f	81 f9 04 01 00
	00		 cmp	 ecx, 260		; 00000104H
  00085	72 e9		 jb	 SHORT $LL7@operator
  00087	33 c9		 xor	 ecx, ecx
  00089	8d a4 24 00 00
	00 00		 npad	 7
$LL10@operator:
  00090	8a 84 0e 2e 02
	00 00		 mov	 al, BYTE PTR [esi+ecx+558]
  00097	88 84 0b 2e 02
	00 00		 mov	 BYTE PTR [ebx+ecx+558], al
  0009e	41		 inc	 ecx
  0009f	81 f9 04 01 00
	00		 cmp	 ecx, 260		; 00000104H
  000a5	72 e9		 jb	 SHORT $LL10@operator
  000a7	33 c9		 xor	 ecx, ecx
  000a9	8d a4 24 00 00
	00 00		 npad	 7
$LL13@operator:
  000b0	8a 84 0e 32 03
	00 00		 mov	 al, BYTE PTR [esi+ecx+818]
  000b7	88 84 0b 32 03
	00 00		 mov	 BYTE PTR [ebx+ecx+818], al
  000be	41		 inc	 ecx
  000bf	81 f9 00 04 00
	00		 cmp	 ecx, 1024		; 00000400H
  000c5	72 e9		 jb	 SHORT $LL13@operator
  000c7	33 c9		 xor	 ecx, ecx
  000c9	8d a4 24 00 00
	00 00		 npad	 7
$LL16@operator:
  000d0	8a 84 0e 32 07
	00 00		 mov	 al, BYTE PTR [esi+ecx+1842]
  000d7	88 84 0b 32 07
	00 00		 mov	 BYTE PTR [ebx+ecx+1842], al
  000de	41		 inc	 ecx
  000df	81 f9 00 04 00
	00		 cmp	 ecx, 1024		; 00000400H
  000e5	72 e9		 jb	 SHORT $LL16@operator
  000e7	33 c9		 xor	 ecx, ecx
  000e9	8d a4 24 00 00
	00 00		 npad	 7
$LL19@operator:
  000f0	8a 84 0e 32 0b
	00 00		 mov	 al, BYTE PTR [esi+ecx+2866]
  000f7	88 84 0b 32 0b
	00 00		 mov	 BYTE PTR [ebx+ecx+2866], al
  000fe	41		 inc	 ecx
  000ff	81 f9 00 04 00
	00		 cmp	 ecx, 1024		; 00000400H
  00105	72 e9		 jb	 SHORT $LL19@operator
  00107	33 c9		 xor	 ecx, ecx
  00109	8d a4 24 00 00
	00 00		 npad	 7
$LL22@operator:
  00110	8a 84 0e 32 0f
	00 00		 mov	 al, BYTE PTR [esi+ecx+3890]
  00117	88 84 0b 32 0f
	00 00		 mov	 BYTE PTR [ebx+ecx+3890], al
  0011e	41		 inc	 ecx
  0011f	81 f9 00 04 00
	00		 cmp	 ecx, 1024		; 00000400H
  00125	72 e9		 jb	 SHORT $LL22@operator
  00127	8d 86 34 13 00
	00		 lea	 eax, DWORD PTR [esi+4916]
  0012d	50		 push	 eax
  0012e	8d 8b 34 13 00
	00		 lea	 ecx, DWORD PTR [ebx+4916]
  00134	e8 00 00 00 00	 call	 ??4i3List@@QAEAAV0@ABV0@@Z
  00139	33 d2		 xor	 edx, edx
  0013b	8d 8b 8c 13 00
	00		 lea	 ecx, DWORD PTR [ebx+5004]
  00141	81 c6 8c 13 00
	00		 add	 esi, 5004		; 0000138cH
  00147	89 4d f8	 mov	 DWORD PTR tv663[ebp], ecx
  0014a	8b de		 mov	 ebx, esi
  0014c	57		 push	 edi
  0014d	8d 49 00	 npad	 3
$LL25@operator:
  00150	69 c2 04 08 00
	00		 imul	 eax, edx, 2052
  00156	42		 inc	 edx
  00157	8d 3c 08	 lea	 edi, DWORD PTR [eax+ecx]
  0015a	b9 01 02 00 00	 mov	 ecx, 513		; 00000201H
  0015f	8d 34 18	 lea	 esi, DWORD PTR [eax+ebx]
  00162	f3 a5		 rep movsd
  00164	8b 4d f8	 mov	 ecx, DWORD PTR tv663[ebp]
  00167	83 fa 32	 cmp	 edx, 50			; 00000032H
  0016a	72 e4		 jb	 SHORT $LL25@operator
  0016c	8b 4d 08	 mov	 ecx, DWORD PTR ___that$[ebp]
  0016f	33 d2		 xor	 edx, edx
  00171	8b 5d f4	 mov	 ebx, DWORD PTR _this$1$[ebp]
  00174	5f		 pop	 edi
  00175	8b 81 54 a4 01
	00		 mov	 eax, DWORD PTR [ecx+107604]
  0017b	89 83 54 a4 01
	00		 mov	 DWORD PTR [ebx+107604], eax
  00181	8b 81 58 a4 01
	00		 mov	 eax, DWORD PTR [ecx+107608]
  00187	89 83 58 a4 01
	00		 mov	 DWORD PTR [ebx+107608], eax
  0018d	8b 81 5c a4 01
	00		 mov	 eax, DWORD PTR [ecx+107612]
  00193	89 83 5c a4 01
	00		 mov	 DWORD PTR [ebx+107612], eax
  00199	8b 81 60 a4 01
	00		 mov	 eax, DWORD PTR [ecx+107616]
  0019f	89 83 60 a4 01
	00		 mov	 DWORD PTR [ebx+107616], eax
  001a5	8b 81 64 a4 01
	00		 mov	 eax, DWORD PTR [ecx+107620]
  001ab	89 83 64 a4 01
	00		 mov	 DWORD PTR [ebx+107620], eax
  001b1	8b 81 68 a4 01
	00		 mov	 eax, DWORD PTR [ecx+107624]
  001b7	89 83 68 a4 01
	00		 mov	 DWORD PTR [ebx+107624], eax
  001bd	8b 81 6c a4 01
	00		 mov	 eax, DWORD PTR [ecx+107628]
  001c3	89 83 6c a4 01
	00		 mov	 DWORD PTR [ebx+107628], eax
  001c9	8b 81 70 a4 01
	00		 mov	 eax, DWORD PTR [ecx+107632]
  001cf	89 83 70 a4 01
	00		 mov	 DWORD PTR [ebx+107632], eax
  001d5	8b 81 74 a4 01
	00		 mov	 eax, DWORD PTR [ecx+107636]
  001db	89 83 74 a4 01
	00		 mov	 DWORD PTR [ebx+107636], eax
  001e1	8b 81 78 a4 01
	00		 mov	 eax, DWORD PTR [ecx+107640]
  001e7	89 83 78 a4 01
	00		 mov	 DWORD PTR [ebx+107640], eax
  001ed	8b 81 7c a4 01
	00		 mov	 eax, DWORD PTR [ecx+107644]
  001f3	89 83 7c a4 01
	00		 mov	 DWORD PTR [ebx+107644], eax
  001f9	8b 81 80 a4 01
	00		 mov	 eax, DWORD PTR [ecx+107648]
  001ff	89 83 80 a4 01
	00		 mov	 DWORD PTR [ebx+107648], eax
  00205	8b 81 84 a4 01
	00		 mov	 eax, DWORD PTR [ecx+107652]
  0020b	89 83 84 a4 01
	00		 mov	 DWORD PTR [ebx+107652], eax
  00211	8b 81 88 a4 01
	00		 mov	 eax, DWORD PTR [ecx+107656]
  00217	89 83 88 a4 01
	00		 mov	 DWORD PTR [ebx+107656], eax
  0021d	8b 81 8c a4 01
	00		 mov	 eax, DWORD PTR [ecx+107660]
  00223	89 83 8c a4 01
	00		 mov	 DWORD PTR [ebx+107660], eax
  00229	8d a4 24 00 00
	00 00		 npad	 7
$LL28@operator:
  00230	8a 84 11 90 a4
	01 00		 mov	 al, BYTE PTR [ecx+edx+107664]
  00237	88 84 13 90 a4
	01 00		 mov	 BYTE PTR [ebx+edx+107664], al
  0023e	42		 inc	 edx
  0023f	81 fa 04 01 00
	00		 cmp	 edx, 260		; 00000104H
  00245	72 e9		 jb	 SHORT $LL28@operator
  00247	33 d2		 xor	 edx, edx
  00249	8d a4 24 00 00
	00 00		 npad	 7
$LL31@operator:
  00250	8a 84 11 94 a5
	01 00		 mov	 al, BYTE PTR [ecx+edx+107924]
  00257	88 84 13 94 a5
	01 00		 mov	 BYTE PTR [ebx+edx+107924], al
  0025e	42		 inc	 edx
  0025f	81 fa 04 01 00
	00		 cmp	 edx, 260		; 00000104H
  00265	72 e9		 jb	 SHORT $LL31@operator
  00267	33 d2		 xor	 edx, edx
  00269	8d a4 24 00 00
	00 00		 npad	 7
$LL34@operator:
  00270	8a 84 11 98 a6
	01 00		 mov	 al, BYTE PTR [ecx+edx+108184]
  00277	88 84 13 98 a6
	01 00		 mov	 BYTE PTR [ebx+edx+108184], al
  0027e	42		 inc	 edx
  0027f	81 fa 00 04 00
	00		 cmp	 edx, 1024		; 00000400H
  00285	72 e9		 jb	 SHORT $LL34@operator
  00287	8b 81 98 aa 01
	00		 mov	 eax, DWORD PTR [ecx+109208]
  0028d	89 83 98 aa 01
	00		 mov	 DWORD PTR [ebx+109208], eax
  00293	8b 81 9c aa 01
	00		 mov	 eax, DWORD PTR [ecx+109212]
  00299	89 83 9c aa 01
	00		 mov	 DWORD PTR [ebx+109212], eax
  0029f	8b 81 a0 aa 01
	00		 mov	 eax, DWORD PTR [ecx+109216]
  002a5	89 83 a0 aa 01
	00		 mov	 DWORD PTR [ebx+109216], eax
  002ab	8b c3		 mov	 eax, ebx
  002ad	5e		 pop	 esi
  002ae	5b		 pop	 ebx
  002af	8b e5		 mov	 esp, ebp
  002b1	5d		 pop	 ebp
  002b2	c2 04 00	 ret	 4
??4i3NetworkHTTP@@QAEAAV0@ABV0@@Z ENDP			; i3NetworkHTTP::operator=
_TEXT	ENDS
; Function compile flags: /Ogtp
;	COMDAT ??0i3NetworkHTTP@@QAE@ABV0@@Z
_TEXT	SEGMENT
_this$1$ = -4						; size = 4
___that$ = 8						; size = 4
??0i3NetworkHTTP@@QAE@ABV0@@Z PROC			; i3NetworkHTTP::i3NetworkHTTP, COMDAT
; _this$ = ecx
  00000	55		 push	 ebp
  00001	8b ec		 mov	 ebp, esp
  00003	51		 push	 ecx
  00004	53		 push	 ebx
  00005	56		 push	 esi
  00006	57		 push	 edi
  00007	8b d1		 mov	 edx, ecx
  00009	89 55 fc	 mov	 DWORD PTR _this$1$[ebp], edx
  0000c	b9 41 00 00 00	 mov	 ecx, 65			; 00000041H
  00011	8b 5d 08	 mov	 ebx, DWORD PTR ___that$[ebp]
  00014	c7 02 00 00 00
	00		 mov	 DWORD PTR [edx], OFFSET ??_7i3ElementBase@@6B@
  0001a	8b 43 04	 mov	 eax, DWORD PTR [ebx+4]
  0001d	8d 7a 26	 lea	 edi, DWORD PTR [edx+38]
  00020	89 42 04	 mov	 DWORD PTR [edx+4], eax
  00023	8d 73 26	 lea	 esi, DWORD PTR [ebx+38]
  00026	8b 43 08	 mov	 eax, DWORD PTR [ebx+8]
  00029	89 42 08	 mov	 DWORD PTR [edx+8], eax
  0002c	8b 43 0c	 mov	 eax, DWORD PTR [ebx+12]
  0002f	89 42 0c	 mov	 DWORD PTR [edx+12], eax
  00032	c7 02 00 00 00
	00		 mov	 DWORD PTR [edx], OFFSET ??_7i3NetworkHTTP@@6B@
  00038	8b 43 10	 mov	 eax, DWORD PTR [ebx+16]
  0003b	89 42 10	 mov	 DWORD PTR [edx+16], eax
  0003e	8b 43 14	 mov	 eax, DWORD PTR [ebx+20]
  00041	89 42 14	 mov	 DWORD PTR [edx+20], eax
  00044	8b 43 18	 mov	 eax, DWORD PTR [ebx+24]
  00047	89 42 18	 mov	 DWORD PTR [edx+24], eax
  0004a	8b 43 1c	 mov	 eax, DWORD PTR [ebx+28]
  0004d	89 42 1c	 mov	 DWORD PTR [edx+28], eax
  00050	8b 43 20	 mov	 eax, DWORD PTR [ebx+32]
  00053	89 42 20	 mov	 DWORD PTR [edx+32], eax
  00056	66 8b 43 24	 mov	 ax, WORD PTR [ebx+36]
  0005a	66 89 42 24	 mov	 WORD PTR [edx+36], ax
  0005e	8d 83 34 13 00
	00		 lea	 eax, DWORD PTR [ebx+4916]
  00064	f3 a5		 rep movsd
  00066	8d ba 2a 01 00
	00		 lea	 edi, DWORD PTR [edx+298]
  0006c	8d b3 2a 01 00
	00		 lea	 esi, DWORD PTR [ebx+298]
  00072	b9 41 00 00 00	 mov	 ecx, 65			; 00000041H
  00077	f3 a5		 rep movsd
  00079	8d ba 2e 02 00
	00		 lea	 edi, DWORD PTR [edx+558]
  0007f	b9 41 00 00 00	 mov	 ecx, 65			; 00000041H
  00084	8d b3 2e 02 00
	00		 lea	 esi, DWORD PTR [ebx+558]
  0008a	f3 a5		 rep movsd
  0008c	8d ba 32 03 00
	00		 lea	 edi, DWORD PTR [edx+818]
  00092	b9 00 01 00 00	 mov	 ecx, 256		; 00000100H
  00097	8d b3 32 03 00
	00		 lea	 esi, DWORD PTR [ebx+818]
  0009d	f3 a5		 rep movsd
  0009f	8d ba 32 07 00
	00		 lea	 edi, DWORD PTR [edx+1842]
  000a5	b9 00 01 00 00	 mov	 ecx, 256		; 00000100H
  000aa	8d b3 32 07 00
	00		 lea	 esi, DWORD PTR [ebx+1842]
  000b0	f3 a5		 rep movsd
  000b2	8d ba 32 0b 00
	00		 lea	 edi, DWORD PTR [edx+2866]
  000b8	b9 00 01 00 00	 mov	 ecx, 256		; 00000100H
  000bd	8d b3 32 0b 00
	00		 lea	 esi, DWORD PTR [ebx+2866]
  000c3	f3 a5		 rep movsd
  000c5	8d ba 32 0f 00
	00		 lea	 edi, DWORD PTR [edx+3890]
  000cb	b9 00 01 00 00	 mov	 ecx, 256		; 00000100H
  000d0	8d b3 32 0f 00
	00		 lea	 esi, DWORD PTR [ebx+3890]
  000d6	f3 a5		 rep movsd
  000d8	50		 push	 eax
  000d9	8d 8a 34 13 00
	00		 lea	 ecx, DWORD PTR [edx+4916]
  000df	e8 00 00 00 00	 call	 ??0i3List@@QAE@ABV0@@Z
  000e4	68 c8 90 01 00	 push	 102600			; 000190c8H
  000e9	8d 83 8c 13 00
	00		 lea	 eax, DWORD PTR [ebx+5004]
  000ef	50		 push	 eax
  000f0	8b 45 fc	 mov	 eax, DWORD PTR _this$1$[ebp]
  000f3	05 8c 13 00 00	 add	 eax, 5004		; 0000138cH
  000f8	50		 push	 eax
  000f9	e8 00 00 00 00	 call	 _memcpy
  000fe	8b 55 fc	 mov	 edx, DWORD PTR _this$1$[ebp]
  00101	83 c4 0c	 add	 esp, 12			; 0000000cH
  00104	8b 83 54 a4 01
	00		 mov	 eax, DWORD PTR [ebx+107604]
  0010a	89 82 54 a4 01
	00		 mov	 DWORD PTR [edx+107604], eax
  00110	8b 83 58 a4 01
	00		 mov	 eax, DWORD PTR [ebx+107608]
  00116	89 82 58 a4 01
	00		 mov	 DWORD PTR [edx+107608], eax
  0011c	8b 83 5c a4 01
	00		 mov	 eax, DWORD PTR [ebx+107612]
  00122	89 82 5c a4 01
	00		 mov	 DWORD PTR [edx+107612], eax
  00128	8b 83 60 a4 01
	00		 mov	 eax, DWORD PTR [ebx+107616]
  0012e	89 82 60 a4 01
	00		 mov	 DWORD PTR [edx+107616], eax
  00134	8b 83 64 a4 01
	00		 mov	 eax, DWORD PTR [ebx+107620]
  0013a	89 82 64 a4 01
	00		 mov	 DWORD PTR [edx+107620], eax
  00140	8b 83 68 a4 01
	00		 mov	 eax, DWORD PTR [ebx+107624]
  00146	89 82 68 a4 01
	00		 mov	 DWORD PTR [edx+107624], eax
  0014c	8b 83 6c a4 01
	00		 mov	 eax, DWORD PTR [ebx+107628]
  00152	89 82 6c a4 01
	00		 mov	 DWORD PTR [edx+107628], eax
  00158	8b 83 70 a4 01
	00		 mov	 eax, DWORD PTR [ebx+107632]
  0015e	8d b3 90 a4 01
	00		 lea	 esi, DWORD PTR [ebx+107664]
  00164	89 82 70 a4 01
	00		 mov	 DWORD PTR [edx+107632], eax
  0016a	8d ba 90 a4 01
	00		 lea	 edi, DWORD PTR [edx+107664]
  00170	8b 83 74 a4 01
	00		 mov	 eax, DWORD PTR [ebx+107636]
  00176	b9 41 00 00 00	 mov	 ecx, 65			; 00000041H
  0017b	89 82 74 a4 01
	00		 mov	 DWORD PTR [edx+107636], eax
  00181	8b 83 78 a4 01
	00		 mov	 eax, DWORD PTR [ebx+107640]
  00187	89 82 78 a4 01
	00		 mov	 DWORD PTR [edx+107640], eax
  0018d	8b 83 7c a4 01
	00		 mov	 eax, DWORD PTR [ebx+107644]
  00193	89 82 7c a4 01
	00		 mov	 DWORD PTR [edx+107644], eax
  00199	8b 83 80 a4 01
	00		 mov	 eax, DWORD PTR [ebx+107648]
  0019f	89 82 80 a4 01
	00		 mov	 DWORD PTR [edx+107648], eax
  001a5	8b 83 84 a4 01
	00		 mov	 eax, DWORD PTR [ebx+107652]
  001ab	89 82 84 a4 01
	00		 mov	 DWORD PTR [edx+107652], eax
  001b1	8b 83 88 a4 01
	00		 mov	 eax, DWORD PTR [ebx+107656]
  001b7	89 82 88 a4 01
	00		 mov	 DWORD PTR [edx+107656], eax
  001bd	8b 83 8c a4 01
	00		 mov	 eax, DWORD PTR [ebx+107660]
  001c3	89 82 8c a4 01
	00		 mov	 DWORD PTR [edx+107660], eax
  001c9	f3 a5		 rep movsd
  001cb	8d b3 94 a5 01
	00		 lea	 esi, DWORD PTR [ebx+107924]
  001d1	b9 41 00 00 00	 mov	 ecx, 65			; 00000041H
  001d6	8d ba 94 a5 01
	00		 lea	 edi, DWORD PTR [edx+107924]
  001dc	f3 a5		 rep movsd
  001de	8d b3 98 a6 01
	00		 lea	 esi, DWORD PTR [ebx+108184]
  001e4	b9 00 01 00 00	 mov	 ecx, 256		; 00000100H
  001e9	8d ba 98 a6 01
	00		 lea	 edi, DWORD PTR [edx+108184]
  001ef	f3 a5		 rep movsd
  001f1	8b 83 98 aa 01
	00		 mov	 eax, DWORD PTR [ebx+109208]
  001f7	89 82 98 aa 01
	00		 mov	 DWORD PTR [edx+109208], eax
  001fd	8b 83 9c aa 01
	00		 mov	 eax, DWORD PTR [ebx+109212]
  00203	5f		 pop	 edi
  00204	89 82 9c aa 01
	00		 mov	 DWORD PTR [edx+109212], eax
  0020a	8b 83 a0 aa 01
	00		 mov	 eax, DWORD PTR [ebx+109216]
  00210	5e		 pop	 esi
  00211	89 82 a0 aa 01
	00		 mov	 DWORD PTR [edx+109216], eax
  00217	8b c2		 mov	 eax, edx
  00219	5b		 pop	 ebx
  0021a	8b e5		 mov	 esp, ebp
  0021c	5d		 pop	 ebp
  0021d	c2 04 00	 ret	 4
??0i3NetworkHTTP@@QAE@ABV0@@Z ENDP			; i3NetworkHTTP::i3NetworkHTTP
_TEXT	ENDS
; Function compile flags: /Ogtp
; File E:\Proyectos\JuegosOnlineproyectos\PB\pbblow\Piercing Blow Remake\i3Server\src\i3Base\i3NetworkHTTP.cpp
;	COMDAT ?GetPostArguments@i3NetworkHTTP@@QAEXPADH@Z
_TEXT	SEGMENT
_szPostArguments$ = 8					; size = 4
_nValue$ = 12						; size = 4
?GetPostArguments@i3NetworkHTTP@@QAEXPADH@Z PROC	; i3NetworkHTTP::GetPostArguments, COMDAT
; _this$ = ecx

; 973  : {

  00000	55		 push	 ebp
  00001	8b ec		 mov	 ebp, esp

; 974  : 	i3String::Copy( szPostArguments, m_szPostArguments, nValue );

  00003	ff 75 0c	 push	 DWORD PTR _nValue$[ebp]
  00006	8d 81 32 0f 00
	00		 lea	 eax, DWORD PTR [ecx+3890]
  0000c	50		 push	 eax
  0000d	ff 75 08	 push	 DWORD PTR _szPostArguments$[ebp]
  00010	e8 00 00 00 00	 call	 ?Copy@i3String@@YAXPADPBDH@Z ; i3String::Copy
  00015	83 c4 0c	 add	 esp, 12			; 0000000cH

; 975  : }

  00018	5d		 pop	 ebp
  00019	c2 08 00	 ret	 8
?GetPostArguments@i3NetworkHTTP@@QAEXPADH@Z ENDP	; i3NetworkHTTP::GetPostArguments
_TEXT	ENDS
; Function compile flags: /Ogtp
; File E:\Proyectos\JuegosOnlineproyectos\PB\pbblow\Piercing Blow Remake\i3Server\include\i3Base\i3NetworkHTTP.h
;	COMDAT ?GetLastErrorCode@i3NetworkHTTP@@QAEHXZ
_TEXT	SEGMENT
?GetLastErrorCode@i3NetworkHTTP@@QAEHXZ PROC		; i3NetworkHTTP::GetLastErrorCode, COMDAT
; _this$ = ecx

; 216  : 	INT32	GetLastErrorCode(void)		{ return m_nLastErrorCode;	}

  00000	8b 81 98 aa 01
	00		 mov	 eax, DWORD PTR [ecx+109208]
  00006	c3		 ret	 0
?GetLastErrorCode@i3NetworkHTTP@@QAEHXZ ENDP		; i3NetworkHTTP::GetLastErrorCode
_TEXT	ENDS
; Function compile flags: /Ogtp
; File E:\Proyectos\JuegosOnlineproyectos\PB\pbblow\Piercing Blow Remake\i3Server\include\i3Base\i3NetworkHTTP.h
;	COMDAT ?GetLastErrorString@i3NetworkHTTP@@QAEPADXZ
_TEXT	SEGMENT
?GetLastErrorString@i3NetworkHTTP@@QAEPADXZ PROC	; i3NetworkHTTP::GetLastErrorString, COMDAT
; _this$ = ecx

; 215  : 	char*	GetLastErrorString(void)	{ return m_szLastError;		}

  00000	8d 81 98 a6 01
	00		 lea	 eax, DWORD PTR [ecx+108184]
  00006	c3		 ret	 0
?GetLastErrorString@i3NetworkHTTP@@QAEPADXZ ENDP	; i3NetworkHTTP::GetLastErrorString
_TEXT	ENDS
; Function compile flags: /Ogtp
; File E:\Proyectos\JuegosOnlineproyectos\PB\pbblow\Piercing Blow Remake\i3Server\include\i3Base\i3NetworkHTTP.h
;	COMDAT ?GetFileError@i3NetworkHTTP@@QAEHXZ
_TEXT	SEGMENT
?GetFileError@i3NetworkHTTP@@QAEHXZ PROC		; i3NetworkHTTP::GetFileError, COMDAT
; _this$ = ecx

; 214  : 	INT32	GetFileError(void)			{ return m_FileErrorCode;	}	

  00000	8b 81 68 a4 01
	00		 mov	 eax, DWORD PTR [ecx+107624]
  00006	c3		 ret	 0
?GetFileError@i3NetworkHTTP@@QAEHXZ ENDP		; i3NetworkHTTP::GetFileError
_TEXT	ENDS
; Function compile flags: /Ogtp
; File E:\Proyectos\JuegosOnlineproyectos\PB\pbblow\Piercing Blow Remake\i3Server\include\i3Base\i3NetworkHTTP.h
;	COMDAT ?GetState@i3NetworkHTTP@@QAEHXZ
_TEXT	SEGMENT
?GetState@i3NetworkHTTP@@QAEHXZ PROC			; i3NetworkHTTP::GetState, COMDAT
; _this$ = ecx

; 212  : 	INT32	GetState(void)				{ return m_State;			} 

  00000	8b 81 64 a4 01
	00		 mov	 eax, DWORD PTR [ecx+107620]
  00006	c3		 ret	 0
?GetState@i3NetworkHTTP@@QAEHXZ ENDP			; i3NetworkHTTP::GetState
_TEXT	ENDS
; Function compile flags: /Ogtp
; File E:\Proyectos\JuegosOnlineproyectos\PB\pbblow\Piercing Blow Remake\i3Server\src\i3Base\i3NetworkHTTP.cpp
;	COMDAT ?DeleteFileA@i3NetworkHTTP@@QAEHPAD@Z
_TEXT	SEGMENT
_pszPath$ = 8						; size = 4
?DeleteFileA@i3NetworkHTTP@@QAEHPAD@Z PROC		; i3NetworkHTTP::DeleteFileA, COMDAT
; _this$ = ecx

; 626  : 	return 1;

  00000	b8 01 00 00 00	 mov	 eax, 1

; 627  : }

  00005	c2 04 00	 ret	 4
?DeleteFileA@i3NetworkHTTP@@QAEHPAD@Z ENDP		; i3NetworkHTTP::DeleteFileA
_TEXT	ENDS
; Function compile flags: /Ogtp
; File E:\Proyectos\JuegosOnlineproyectos\PB\pbblow\Piercing Blow Remake\i3Server\src\i3Base\i3NetworkHTTP.cpp
;	COMDAT ?CheckFile@i3NetworkHTTP@@QAEHPAD@Z
_TEXT	SEGMENT
_pszPath$ = 8						; size = 4
?CheckFile@i3NetworkHTTP@@QAEHPAD@Z PROC		; i3NetworkHTTP::CheckFile, COMDAT
; _this$ = ecx

; 617  : {

  00000	56		 push	 esi
  00001	57		 push	 edi

; 151  : 	m_hInternet = ::InternetOpen( m_szAgentName, INTERNET_OPEN_TYPE_PRECONFIG, NULL, NULL, 0 );

  00002	6a 00		 push	 0
  00004	6a 00		 push	 0

; 617  : {

  00006	8b f1		 mov	 esi, ecx

; 151  : 	m_hInternet = ::InternetOpen( m_szAgentName, INTERNET_OPEN_TYPE_PRECONFIG, NULL, NULL, 0 );

  00008	6a 00		 push	 0
  0000a	6a 00		 push	 0
  0000c	8d 46 26	 lea	 eax, DWORD PTR [esi+38]
  0000f	50		 push	 eax
  00010	ff 15 00 00 00
	00		 call	 DWORD PTR __imp__InternetOpenA@20
  00016	89 46 10	 mov	 DWORD PTR [esi+16], eax

; 152  : 	if( m_hInternet == NULL )

  00019	85 c0		 test	 eax, eax
  0001b	75 29		 jne	 SHORT $LN4@CheckFile

; 153  : 	{
; 154  : 		// Error
; 155  : 		i3String::Copy( m_szLastError, "Cannot open internet", 1024);

  0001d	68 00 04 00 00	 push	 1024			; 00000400H
  00022	8d 86 98 a6 01
	00		 lea	 eax, DWORD PTR [esi+108184]
  00028	68 00 00 00 00	 push	 OFFSET ??_C@_0BF@PJCNEGDJ@Cannot?5open?5internet@
  0002d	50		 push	 eax
  0002e	e8 00 00 00 00	 call	 ?Copy@i3String@@YAXPADPBDH@Z ; i3String::Copy
  00033	83 c4 0c	 add	 esp, 12			; 0000000cH

; 156  : 		m_nLastErrorCode=::GetLastError();

  00036	ff 15 00 00 00
	00		 call	 DWORD PTR __imp__GetLastError@0
  0003c	89 86 98 aa 01
	00		 mov	 DWORD PTR [esi+109208], eax

; 157  : 		return FALSE;

  00042	33 ff		 xor	 edi, edi
  00044	eb 05		 jmp	 SHORT $LN3@CheckFile
$LN4@CheckFile:

; 158  : 	}
; 159  : 	
; 160  : 	return TRUE;

  00046	bf 01 00 00 00	 mov	 edi, 1
$LN3@CheckFile:

; 270  : 	if( m_hHttp )

  0004b	8b 46 14	 mov	 eax, DWORD PTR [esi+20]
  0004e	85 c0		 test	 eax, eax
  00050	74 0e		 je	 SHORT $LN7@CheckFile

; 271  : 	{
; 272  : 		::InternetCloseHandle( m_hHttp );

  00052	50		 push	 eax
  00053	ff 15 00 00 00
	00		 call	 DWORD PTR __imp__InternetCloseHandle@4

; 273  : 		m_hHttp = NULL;

  00059	c7 46 14 00 00
	00 00		 mov	 DWORD PTR [esi+20], 0
$LN7@CheckFile:

; 274  : 	}
; 275  : 
; 276  : 	if( m_hInternet )

  00060	8b 46 10	 mov	 eax, DWORD PTR [esi+16]
  00063	85 c0		 test	 eax, eax
  00065	74 0e		 je	 SHORT $LN10@CheckFile

; 277  : 	{
; 278  : 		::InternetCloseHandle( m_hInternet );

  00067	50		 push	 eax
  00068	ff 15 00 00 00
	00		 call	 DWORD PTR __imp__InternetCloseHandle@4

; 279  : 		m_hInternet = NULL;

  0006e	c7 46 10 00 00
	00 00		 mov	 DWORD PTR [esi+16], 0
$LN10@CheckFile:

; 618  : 	BOOL Rv;
; 619  : 	Rv = _ConnectGET( pszPath );
; 620  : 	_DisConnectGET(); 
; 621  : 	return Rv;
; 622  : }

  00075	8b c7		 mov	 eax, edi
  00077	5f		 pop	 edi
  00078	5e		 pop	 esi
  00079	c2 04 00	 ret	 4
?CheckFile@i3NetworkHTTP@@QAEHPAD@Z ENDP		; i3NetworkHTTP::CheckFile
_TEXT	ENDS
; Function compile flags: /Ogtp
; File E:\Proyectos\JuegosOnlineproyectos\PB\pbblow\Piercing Blow Remake\i3Server\src\i3Base\i3NetworkHTTP.cpp
;	COMDAT ?UpFile@i3NetworkHTTP@@QAEHXZ
_TEXT	SEGMENT
_nWritten$ = -12					; size = 4
_nRead$ = -8						; size = 4
_nAvailableSize$ = -4					; size = 4
?UpFile@i3NetworkHTTP@@QAEHXZ PROC			; i3NetworkHTTP::UpFile, COMDAT
; _this$ = ecx

; 570  : {

  00000	55		 push	 ebp
  00001	8b ec		 mov	 ebp, esp
  00003	83 ec 0c	 sub	 esp, 12			; 0000000cH
  00006	56		 push	 esi
  00007	8b f1		 mov	 esi, ecx

; 571  : 	UINT32	nAvailableSize = 65536;

  00009	c7 45 fc 00 00
	01 00		 mov	 DWORD PTR _nAvailableSize$[ebp], 65536 ; 00010000H

; 572  : 	UINT32	nWritten = 0;

  00010	c7 45 f4 00 00
	00 00		 mov	 DWORD PTR _nWritten$[ebp], 0

; 573  : 	UINT32	nRead = 0;

  00017	c7 45 f8 00 00
	00 00		 mov	 DWORD PTR _nRead$[ebp], 0

; 574  : 
; 575  : 	if( m_State == HTTP_STATE_UPLOADING)

  0001e	83 be 64 a4 01
	00 05		 cmp	 DWORD PTR [esi+107620], 5
  00025	0f 85 cd 00 00
	00		 jne	 $LN6@UpFile

; 576  : 	{
; 577  : 		// ľ÷·ÎµĺÇŇ Ľö ŔÖ´Â ĆĐĹ¶·®Ŕ» ±¸ÇŃ´Ů.
; 578  : 		if( ::InternetQueryDataAvailable( m_hHttp, (LPDWORD) &nAvailableSize, 0, 0 ) == FALSE )

  0002b	6a 00		 push	 0
  0002d	6a 00		 push	 0
  0002f	8d 45 fc	 lea	 eax, DWORD PTR _nAvailableSize$[ebp]
  00032	50		 push	 eax
  00033	ff 76 14	 push	 DWORD PTR [esi+20]
  00036	ff 15 00 00 00
	00		 call	 DWORD PTR __imp__InternetQueryDataAvailable@16
  0003c	85 c0		 test	 eax, eax
  0003e	75 1b		 jne	 SHORT $LN3@UpFile

; 579  : 		{
; 580  : 			Cancel();

  00040	8b ce		 mov	 ecx, esi
  00042	e8 00 00 00 00	 call	 ?Cancel@i3NetworkHTTP@@QAEXXZ ; i3NetworkHTTP::Cancel

; 581  : 			m_State = HTTP_STATE_UPFAILE;

  00047	c7 86 64 a4 01
	00 07 00 00 00	 mov	 DWORD PTR [esi+107620], 7

; 582  : 			return HTTP_ERR_UPSIZE;

  00051	b8 f7 ff ff ff	 mov	 eax, -9			; fffffff7H
  00056	5e		 pop	 esi

; 613  : }

  00057	8b e5		 mov	 esp, ebp
  00059	5d		 pop	 ebp
  0005a	c3		 ret	 0
$LN3@UpFile:

; 583  : 		}
; 584  : 		// ĆÄŔĎŔ» ·ÎÄĂżˇĽ­ ŔĐľîżÂ´Ů.
; 585  : 		if( ::ReadFile( m_hFile, m_pReadBuf, nAvailableSize, (LPDWORD) &nRead, NULL ) == FALSE )

  0005b	6a 00		 push	 0
  0005d	8d 45 f8	 lea	 eax, DWORD PTR _nRead$[ebp]
  00060	50		 push	 eax
  00061	ff 75 fc	 push	 DWORD PTR _nAvailableSize$[ebp]
  00064	ff b6 58 a4 01
	00		 push	 DWORD PTR [esi+107608]
  0006a	ff 76 1c	 push	 DWORD PTR [esi+28]
  0006d	ff 15 00 00 00
	00		 call	 DWORD PTR __imp__ReadFile@20
  00073	85 c0		 test	 eax, eax
  00075	75 1b		 jne	 SHORT $LN4@UpFile

; 586  : 		{			
; 587  : 			Cancel();

  00077	8b ce		 mov	 ecx, esi
  00079	e8 00 00 00 00	 call	 ?Cancel@i3NetworkHTTP@@QAEXXZ ; i3NetworkHTTP::Cancel

; 588  : 			m_State = HTTP_STATE_UPFAILE;

  0007e	c7 86 64 a4 01
	00 07 00 00 00	 mov	 DWORD PTR [esi+107620], 7

; 589  : 			return HTTP_ERR_READFILE;

  00088	b8 fb ff ff ff	 mov	 eax, -5			; fffffffbH
  0008d	5e		 pop	 esi

; 613  : }

  0008e	8b e5		 mov	 esp, ebp
  00090	5d		 pop	 ebp
  00091	c3		 ret	 0
$LN4@UpFile:

; 590  : 		}
; 591  : 
; 592  : 		// ĆĐĹ¶ ŔüĽŰ
; 593  : 		if( ::InternetWriteFile( m_hHttp, m_pReadBuf, nRead, (LPDWORD) &nWritten ) == FALSE )

  00092	8d 45 f4	 lea	 eax, DWORD PTR _nWritten$[ebp]
  00095	50		 push	 eax
  00096	ff 75 f8	 push	 DWORD PTR _nRead$[ebp]
  00099	ff b6 58 a4 01
	00		 push	 DWORD PTR [esi+107608]
  0009f	ff 76 14	 push	 DWORD PTR [esi+20]
  000a2	ff 15 00 00 00
	00		 call	 DWORD PTR __imp__InternetWriteFile@16
  000a8	85 c0		 test	 eax, eax
  000aa	75 1b		 jne	 SHORT $LN5@UpFile

; 594  : 		{
; 595  : 			Cancel();

  000ac	8b ce		 mov	 ecx, esi
  000ae	e8 00 00 00 00	 call	 ?Cancel@i3NetworkHTTP@@QAEXXZ ; i3NetworkHTTP::Cancel

; 596  : 			m_State = HTTP_STATE_UPFAILE;

  000b3	c7 86 64 a4 01
	00 07 00 00 00	 mov	 DWORD PTR [esi+107620], 7

; 597  : 			return HTTP_ERR_WRITEFILE;

  000bd	b8 fa ff ff ff	 mov	 eax, -6			; fffffffaH
  000c2	5e		 pop	 esi

; 613  : }

  000c3	8b e5		 mov	 esp, ebp
  000c5	5d		 pop	 ebp
  000c6	c3		 ret	 0
$LN5@UpFile:

; 598  : 		}
; 599  : 
; 600  : 		// ľ÷·ÎµĺÇŃ ľç
; 601  : 		m_nSend += nWritten;

  000c7	8b 45 f4	 mov	 eax, DWORD PTR _nWritten$[ebp]
  000ca	01 86 60 a4 01
	00		 add	 DWORD PTR [esi+107616], eax

; 602  : 
; 603  : 		if( m_nSize == m_nRecv )

  000d0	8b 86 9c aa 01
	00		 mov	 eax, DWORD PTR [esi+109212]
  000d6	3b 86 a0 aa 01
	00		 cmp	 eax, DWORD PTR [esi+109216]
  000dc	75 1a		 jne	 SHORT $LN6@UpFile

; 604  : 		{
; 605  : 			// ´Ůżî·Îµĺ żĎ·á
; 606  : 			_DisConnectGET();

  000de	8b ce		 mov	 ecx, esi
  000e0	e8 00 00 00 00	 call	 ?_DisConnectGET@i3NetworkHTTP@@IAEXXZ ; i3NetworkHTTP::_DisConnectGET

; 607  : 			::CloseHandle( m_hFile );

  000e5	ff 76 1c	 push	 DWORD PTR [esi+28]
  000e8	ff 15 00 00 00
	00		 call	 DWORD PTR __imp__CloseHandle@4

; 608  : 			m_State	= HTTP_STATE_UPCOMPLETE;

  000ee	c7 86 64 a4 01
	00 06 00 00 00	 mov	 DWORD PTR [esi+107620], 6
$LN6@UpFile:

; 609  : 		}
; 610  : 	}
; 611  : 
; 612  : 	return m_State; 

  000f8	8b 86 64 a4 01
	00		 mov	 eax, DWORD PTR [esi+107620]
  000fe	5e		 pop	 esi

; 613  : }

  000ff	8b e5		 mov	 esp, ebp
  00101	5d		 pop	 ebp
  00102	c3		 ret	 0
?UpFile@i3NetworkHTTP@@QAEHXZ ENDP			; i3NetworkHTTP::UpFile
_TEXT	ENDS
; Function compile flags: /Ogtp
; File E:\Proyectos\JuegosOnlineproyectos\PB\pbblow\Piercing Blow Remake\i3Server\src\i3Base\i3NetworkHTTP.cpp
;	COMDAT ?UpStart@i3NetworkHTTP@@QAEHPAD0@Z
_TEXT	SEGMENT
_fileinfo$ = -56					; size = 52
__$ArrayPad$ = -4					; size = 4
_pszURL$ = 8						; size = 4
_pszPath$ = 12						; size = 4
?UpStart@i3NetworkHTTP@@QAEHPAD0@Z PROC			; i3NetworkHTTP::UpStart, COMDAT
; _this$ = ecx

; 522  : {

  00000	55		 push	 ebp
  00001	8b ec		 mov	 ebp, esp
  00003	83 ec 38	 sub	 esp, 56			; 00000038H
  00006	a1 00 00 00 00	 mov	 eax, DWORD PTR ___security_cookie
  0000b	33 c5		 xor	 eax, ebp
  0000d	89 45 fc	 mov	 DWORD PTR __$ArrayPad$[ebp], eax
  00010	8b 45 08	 mov	 eax, DWORD PTR _pszURL$[ebp]
  00013	53		 push	 ebx
  00014	8b 5d 0c	 mov	 ebx, DWORD PTR _pszPath$[ebp]
  00017	56		 push	 esi
  00018	8b f1		 mov	 esi, ecx
  0001a	57		 push	 edi

; 523  : 	INT32 Rv = HTTP_ERR_REUPLOAD; 

  0001b	bf f9 ff ff ff	 mov	 edi, -7			; fffffff9H

; 524  : 
; 525  : 	BY_HANDLE_FILE_INFORMATION	fileinfo;
; 526  : 
; 527  : 	INTERNET_BUFFERS		ibuf;
; 528  : 
; 529  : 	if( m_State != HTTP_STATE_UPLOADING )

  00020	83 be 64 a4 01
	00 05		 cmp	 DWORD PTR [esi+107620], 5
  00027	0f 84 a6 00 00
	00		 je	 $LN5@UpStart

; 530  : 	{
; 531  : 		// Á˘ĽÓ
; 532  : 		m_nSize = 0;
; 533  : 		m_nRecv	= 0;
; 534  : 
; 535  : 		if( _ConnectPUT( pszURL) == FALSE )

  0002d	50		 push	 eax
  0002e	c7 86 9c aa 01
	00 00 00 00 00	 mov	 DWORD PTR [esi+109212], 0
  00038	c7 86 a0 aa 01
	00 00 00 00 00	 mov	 DWORD PTR [esi+109216], 0
  00042	e8 00 00 00 00	 call	 ?_ConnectPUT@i3NetworkHTTP@@IAEHPAD@Z ; i3NetworkHTTP::_ConnectPUT
  00047	85 c0		 test	 eax, eax
  00049	75 20		 jne	 SHORT $LN3@UpStart

; 536  : 		{
; 537  : 			// Á˘ĽÓ ˝ÇĆĐŔÔ´Ď´Ů.
; 538  : 			m_State = HTTP_STATE_UPFAILE; 

  0004b	5f		 pop	 edi
  0004c	c7 86 64 a4 01
	00 07 00 00 00	 mov	 DWORD PTR [esi+107620], 7

; 539  : 			return HTTP_ERR_CONNECT;

  00056	83 c8 ff	 or	 eax, -1

; 563  : 		}
; 564  : 	}
; 565  : 
; 566  : 	return Rv;
; 567  : }

  00059	5e		 pop	 esi
  0005a	5b		 pop	 ebx
  0005b	8b 4d fc	 mov	 ecx, DWORD PTR __$ArrayPad$[ebp]
  0005e	33 cd		 xor	 ecx, ebp
  00060	e8 00 00 00 00	 call	 @__security_check_cookie@4
  00065	8b e5		 mov	 esp, ebp
  00067	5d		 pop	 ebp
  00068	c2 08 00	 ret	 8
$LN3@UpStart:

; 540  : 		}
; 541  : 
; 542  : 		ibuf.dwStructSize	= sizeof( INTERNET_BUFFERS );
; 543  : 		ibuf.Next			= NULL;
; 544  : 		ibuf.lpcszHeader	= NULL;
; 545  : 		ibuf.dwHeadersLength	= NULL;
; 546  : 		if( ::HttpSendRequest( m_hHttp, NULL, 0, NULL, NULL ) == FALSE )

  0006b	6a 00		 push	 0
  0006d	6a 00		 push	 0
  0006f	6a 00		 push	 0
  00071	6a 00		 push	 0
  00073	ff 76 14	 push	 DWORD PTR [esi+20]
  00076	ff 15 00 00 00
	00		 call	 DWORD PTR __imp__HttpSendRequestA@20
  0007c	85 c0		 test	 eax, eax
  0007e	75 0c		 jne	 SHORT $LN4@UpStart

; 547  : 		{
; 548  : 			// ¸í·ÉŔ» ş¸ł»Áö ¸řÇß˝Ŕ´Ď´Ů.
; 549  : 			m_State = HTTP_STATE_UPFAILE;

  00080	c7 86 64 a4 01
	00 07 00 00 00	 mov	 DWORD PTR [esi+107620], 7

; 550  : 		}

  0008a	eb 47		 jmp	 SHORT $LN5@UpStart
$LN4@UpStart:

; 551  : 		else
; 552  : 		{
; 553  : 			m_State = HTTP_STATE_UPLOADING;
; 554  : 
; 555  : 			// ĆÄŔĎŔ» żŔÇÂÇŐ´Ď´Ů.
; 556  : 			m_hFile = ::CreateFile( pszPath, GENERIC_READ, 0, NULL, OPEN_ALWAYS, FILE_ATTRIBUTE_READONLY, NULL );

  0008c	6a 00		 push	 0
  0008e	6a 01		 push	 1
  00090	6a 04		 push	 4
  00092	6a 00		 push	 0
  00094	6a 00		 push	 0
  00096	68 00 00 00 80	 push	 -2147483648		; 80000000H
  0009b	53		 push	 ebx
  0009c	c7 86 64 a4 01
	00 05 00 00 00	 mov	 DWORD PTR [esi+107620], 5
  000a6	ff 15 00 00 00
	00		 call	 DWORD PTR __imp__CreateFileA@28

; 557  : 			// ĆÄŔĎ »çŔĚÁî¸¦ łÖľîÁŕľßµË´Ď´Ů....
; 558  : 			::GetFileInformationByHandle( m_hFile, &fileinfo );

  000ac	8d 4d c8	 lea	 ecx, DWORD PTR _fileinfo$[ebp]
  000af	89 46 1c	 mov	 DWORD PTR [esi+28], eax
  000b2	51		 push	 ecx
  000b3	50		 push	 eax
  000b4	ff 15 00 00 00
	00		 call	 DWORD PTR __imp__GetFileInformationByHandle@8

; 559  : 			
; 560  : 			Rv = m_nSize	= (fileinfo.nFileSizeHigh << 16) | ( fileinfo.nFileSizeLow );

  000ba	8b 7d e8	 mov	 edi, DWORD PTR _fileinfo$[ebp+32]
  000bd	c1 e7 10	 shl	 edi, 16			; 00000010H
  000c0	0b 7d ec	 or	 edi, DWORD PTR _fileinfo$[ebp+36]
  000c3	89 be 9c aa 01
	00		 mov	 DWORD PTR [esi+109212], edi

; 561  : 
; 562  : 			m_nSend = 0;

  000c9	c7 86 60 a4 01
	00 00 00 00 00	 mov	 DWORD PTR [esi+107616], 0
$LN5@UpStart:

; 563  : 		}
; 564  : 	}
; 565  : 
; 566  : 	return Rv;
; 567  : }

  000d3	8b 4d fc	 mov	 ecx, DWORD PTR __$ArrayPad$[ebp]
  000d6	8b c7		 mov	 eax, edi
  000d8	5f		 pop	 edi
  000d9	5e		 pop	 esi
  000da	33 cd		 xor	 ecx, ebp
  000dc	5b		 pop	 ebx
  000dd	e8 00 00 00 00	 call	 @__security_check_cookie@4
  000e2	8b e5		 mov	 esp, ebp
  000e4	5d		 pop	 ebp
  000e5	c2 08 00	 ret	 8
?UpStart@i3NetworkHTTP@@QAEHPAD0@Z ENDP			; i3NetworkHTTP::UpStart
_TEXT	ENDS
; Function compile flags: /Ogtp
; File E:\Proyectos\JuegosOnlineproyectos\PB\pbblow\Piercing Blow Remake\i3Server\src\i3Base\i3NetworkHTTP.cpp
;	COMDAT ?ReloadCheck@i3NetworkHTTP@@QAEHXZ
_TEXT	SEGMENT
?ReloadCheck@i3NetworkHTTP@@QAEHXZ PROC			; i3NetworkHTTP::ReloadCheck, COMDAT
; _this$ = ecx

; 425  : 	m_nReloadCount++;

  00000	ff 81 70 a4 01
	00		 inc	 DWORD PTR [ecx+107632]
  00006	8b 81 70 a4 01
	00		 mov	 eax, DWORD PTR [ecx+107632]

; 426  : 	if( m_nReloadCount > m_nTotalReload )

  0000c	3b 81 6c a4 01
	00		 cmp	 eax, DWORD PTR [ecx+107628]
  00012	7e 03		 jle	 SHORT $LN2@ReloadChec

; 430  : 	return TRUE;
; 431  : }

  00014	33 c0		 xor	 eax, eax
  00016	c3		 ret	 0
$LN2@ReloadChec:

; 427  : 		return FALSE;
; 428  : 
; 429  : 	m_State = HTTP_STATE_REDOWNLOAD;

  00017	c7 81 64 a4 01
	00 02 00 00 00	 mov	 DWORD PTR [ecx+107620], 2

; 430  : 	return TRUE;
; 431  : }

  00021	b8 01 00 00 00	 mov	 eax, 1
  00026	c3		 ret	 0
?ReloadCheck@i3NetworkHTTP@@QAEHXZ ENDP			; i3NetworkHTTP::ReloadCheck
_TEXT	ENDS
; Function compile flags: /Ogtp
; File E:\Proyectos\JuegosOnlineproyectos\PB\pbblow\Piercing Blow Remake\i3Server\src\i3Base\i3NetworkHTTP.cpp
;	COMDAT ?RestartCheck@i3NetworkHTTP@@QAEHXZ
_TEXT	SEGMENT
?RestartCheck@i3NetworkHTTP@@QAEHXZ PROC		; i3NetworkHTTP::RestartCheck, COMDAT
; _this$ = ecx

; 435  : 	m_nRestartCount++;

  00000	ff 81 78 a4 01
	00		 inc	 DWORD PTR [ecx+107640]

; 436  : 	if( m_nRestartCount > m_nTotalRestart )
; 437  : 		return FALSE;
; 438  : 
; 439  : 	return TRUE;
; 440  : }

  00006	33 c0		 xor	 eax, eax
  00008	8b 91 78 a4 01
	00		 mov	 edx, DWORD PTR [ecx+107640]
  0000e	3b 91 74 a4 01
	00		 cmp	 edx, DWORD PTR [ecx+107636]
  00014	0f 9e c0	 setle	 al
  00017	c3		 ret	 0
?RestartCheck@i3NetworkHTTP@@QAEHXZ ENDP		; i3NetworkHTTP::RestartCheck
_TEXT	ENDS
; Function compile flags: /Ogtp
; File E:\Proyectos\JuegosOnlineproyectos\PB\pbblow\Piercing Blow Remake\i3Server\include\i3Base\i3NetworkHTTP.h
;	COMDAT ?GetReadBuffer@i3NetworkHTTP@@QAEPADXZ
_TEXT	SEGMENT
?GetReadBuffer@i3NetworkHTTP@@QAEPADXZ PROC		; i3NetworkHTTP::GetReadBuffer, COMDAT
; _this$ = ecx

; 199  : 	char*	GetReadBuffer()				{ return m_pReadBuf;		}

  00000	8b 81 58 a4 01
	00		 mov	 eax, DWORD PTR [ecx+107608]
  00006	c3		 ret	 0
?GetReadBuffer@i3NetworkHTTP@@QAEPADXZ ENDP		; i3NetworkHTTP::GetReadBuffer
_TEXT	ENDS
; Function compile flags: /Ogtp
; File E:\Proyectos\JuegosOnlineproyectos\PB\pbblow\Piercing Blow Remake\i3Server\src\i3Base\i3NetworkHTTP.cpp
;	COMDAT ?DownFile@i3NetworkHTTP@@QAEHXZ
_TEXT	SEGMENT
_nRead$ = -16						; size = 4
_nWritten$ = -12					; size = 4
_nAvailableSize$ = -8					; size = 4
_pszPath$2$ = -4					; size = 4
?DownFile@i3NetworkHTTP@@QAEHXZ PROC			; i3NetworkHTTP::DownFile, COMDAT
; _this$ = ecx

; 322  : {	

  00000	55		 push	 ebp
  00001	8b ec		 mov	 ebp, esp
  00003	83 ec 10	 sub	 esp, 16			; 00000010H
  00006	53		 push	 ebx
  00007	56		 push	 esi
  00008	8b f1		 mov	 esi, ecx

; 323  : 	UINT32	nAvailableSize = 65536;

  0000a	c7 45 f8 00 00
	01 00		 mov	 DWORD PTR _nAvailableSize$[ebp], 65536 ; 00010000H
  00011	57		 push	 edi

; 324  : 	UINT32	nRead;
; 325  : 	UINT32	nWritten = 0;

  00012	c7 45 f4 00 00
	00 00		 mov	 DWORD PTR _nWritten$[ebp], 0

; 326  : 	BOOL	Rv;
; 327  : 
; 328  : 	if( m_State == HTTP_STATE_DOWNLOADING)

  00019	83 be 64 a4 01
	00 01		 cmp	 DWORD PTR [esi+107620], 1
  00020	0f 85 03 04 00
	00		 jne	 $ExitErr$187

; 329  : 	{	
; 330  : 		I3ASSERT( m_pReadBuf );
; 331  : 
; 332  : 		// ´Ůżî ąŢŔ» ĆĐĹ¶·®Ŕ» ±¸ÇŃ´Ů.
; 333  : 		Rv = ::InternetQueryDataAvailable( m_hHttp, (LPDWORD) &nAvailableSize, 0, 0 );

  00026	6a 00		 push	 0
  00028	6a 00		 push	 0
  0002a	8d 45 f8	 lea	 eax, DWORD PTR _nAvailableSize$[ebp]
  0002d	50		 push	 eax
  0002e	ff 76 14	 push	 DWORD PTR [esi+20]
  00031	ff 15 00 00 00
	00		 call	 DWORD PTR __imp__InternetQueryDataAvailable@16

; 334  : 
; 335  : 		// ˝ÇĆĐ ¶Ç´Â »çŔĚÁî 0ŔĚ¸é Ĺ¸ŔÓľĆżôŔ» ĂĽĹ©
; 336  : 		if( !Rv || !nAvailableSize )

  00037	85 c0		 test	 eax, eax
  00039	0f 84 39 04 00
	00		 je	 $LN4@DownFile
  0003f	8b 45 f8	 mov	 eax, DWORD PTR _nAvailableSize$[ebp]
  00042	85 c0		 test	 eax, eax
  00044	0f 84 2e 04 00
	00		 je	 $LN4@DownFile

; 344  : 				// Ŕç˝Ăµµ ÇŐ´Ď´Ů.
; 345  : 				if( ReloadCheck() )
; 346  : 				{	
; 347  : 					DownStart( m_szURL, m_szPath );
; 348  : 				}
; 349  : 				else
; 350  : 				{
; 351  : 					m_State = HTTP_STATE_DOWNFAILE;
; 352  : 					m_FileErrorCode = HTTP_ERR_DOWNSIZE;
; 353  : 				}
; 354  : 
; 355  : 				goto ExitErr; 
; 356  : 			}
; 357  : 
; 358  : 			m_nDownTime	= ::GetCurrentTime();
; 359  : 			return m_State;
; 360  : 		}
; 361  : 
; 362  : 		// ĆÄŔĎŔ» ŔĐľî żÂ´Ů. Č¤˝ĂłŞ Ľşąé 
; 363  : 		Rv = ::InternetReadFile( m_hHttp, m_pReadBuf, nAvailableSize, (LPDWORD) &nRead );

  0004a	8d 4d f0	 lea	 ecx, DWORD PTR _nRead$[ebp]
  0004d	51		 push	 ecx
  0004e	50		 push	 eax
  0004f	ff b6 58 a4 01
	00		 push	 DWORD PTR [esi+107608]
  00055	ff 76 14	 push	 DWORD PTR [esi+20]
  00058	ff 15 00 00 00
	00		 call	 DWORD PTR __imp__InternetReadFile@16

; 364  : 
; 365  : 		if( !Rv || !nRead )

  0005e	85 c0		 test	 eax, eax
  00060	0f 84 5b 01 00
	00		 je	 $LN10@DownFile
  00066	8b 45 f0	 mov	 eax, DWORD PTR _nRead$[ebp]
  00069	85 c0		 test	 eax, eax
  0006b	0f 84 50 01 00
	00		 je	 $LN10@DownFile

; 381  : 					m_FileErrorCode = HTTP_ERR_READFILE;
; 382  : 				}
; 383  : 				goto ExitErr;
; 384  : 			}
; 385  : 			m_nDownTime	= ::GetCurrentTime();
; 386  : 			return m_State;
; 387  : 		}
; 388  : 
; 389  : 		// ĆÄŔĎŔ» ·ÎÄĂżˇ ŔúŔĺ
; 390  : 		if( ::WriteFile( m_hFile, m_pReadBuf, nRead, (LPDWORD) &nWritten, NULL ) == FALSE )

  00071	6a 00		 push	 0
  00073	8d 4d f4	 lea	 ecx, DWORD PTR _nWritten$[ebp]
  00076	51		 push	 ecx
  00077	50		 push	 eax
  00078	ff b6 58 a4 01
	00		 push	 DWORD PTR [esi+107608]
  0007e	ff 76 1c	 push	 DWORD PTR [esi+28]
  00081	ff 15 00 00 00
	00		 call	 DWORD PTR __imp__WriteFile@20
  00087	85 c0		 test	 eax, eax
  00089	0f 85 98 00 00
	00		 jne	 $LN15@DownFile

; 502  : 	if( m_State == HTTP_STATE_DOWNLOADING )

  0008f	8b 86 64 a4 01
	00		 mov	 eax, DWORD PTR [esi+107620]
  00095	83 f8 01	 cmp	 eax, 1
  00098	75 19		 jne	 SHORT $LN80@DownFile

; 270  : 	if( m_hHttp )

  0009a	8b 46 14	 mov	 eax, DWORD PTR [esi+20]
  0009d	8b 3d 00 00 00
	00		 mov	 edi, DWORD PTR __imp__InternetCloseHandle@4
  000a3	85 c0		 test	 eax, eax
  000a5	74 3e		 je	 SHORT $LN97@DownFile

; 271  : 	{
; 272  : 		::InternetCloseHandle( m_hHttp );

  000a7	50		 push	 eax
  000a8	ff d7		 call	 edi

; 273  : 		m_hHttp = NULL;

  000aa	c7 46 14 00 00
	00 00		 mov	 DWORD PTR [esi+20], 0

; 505  : 	}

  000b1	eb 32		 jmp	 SHORT $LN97@DownFile
$LN80@DownFile:

; 506  : 	else if( m_State == HTTP_STATE_UPLOADING )

  000b3	83 f8 05	 cmp	 eax, 5
  000b6	74 05		 je	 SHORT $LN179@DownFile

; 507  : 	{
; 508  : 		_DisConnectPUT();
; 509  : 	}
; 510  : 	else if( m_State == HTTP_STATE_POST )

  000b8	83 f8 08	 cmp	 eax, 8
  000bb	75 39		 jne	 SHORT $LN98@DownFile
$LN179@DownFile:

; 511  : 	{
; 512  : 		_DisConnectPOST();
; 513  : 	}
; 514  : 
; 515  : 	::CloseHandle( m_hFile );

  000bd	8b 46 14	 mov	 eax, DWORD PTR [esi+20]
  000c0	8b 3d 00 00 00
	00		 mov	 edi, DWORD PTR __imp__InternetCloseHandle@4
  000c6	85 c0		 test	 eax, eax
  000c8	74 0a		 je	 SHORT $LN96@DownFile
  000ca	50		 push	 eax
  000cb	ff d7		 call	 edi
  000cd	c7 46 14 00 00
	00 00		 mov	 DWORD PTR [esi+20], 0
$LN96@DownFile:
  000d4	8b 46 18	 mov	 eax, DWORD PTR [esi+24]
  000d7	85 c0		 test	 eax, eax
  000d9	74 0a		 je	 SHORT $LN97@DownFile
  000db	50		 push	 eax
  000dc	ff d7		 call	 edi
  000de	c7 46 18 00 00
	00 00		 mov	 DWORD PTR [esi+24], 0
$LN97@DownFile:
  000e5	8b 46 10	 mov	 eax, DWORD PTR [esi+16]
  000e8	85 c0		 test	 eax, eax
  000ea	74 0a		 je	 SHORT $LN98@DownFile
  000ec	50		 push	 eax
  000ed	ff d7		 call	 edi
  000ef	c7 46 10 00 00
	00 00		 mov	 DWORD PTR [esi+16], 0
$LN98@DownFile:
  000f6	ff 76 1c	 push	 DWORD PTR [esi+28]
  000f9	ff 15 00 00 00
	00		 call	 DWORD PTR __imp__CloseHandle@4

; 391  : 		{
; 392  : 			Cancel();
; 393  : 			m_State = HTTP_STATE_DOWNFAILE;

  000ff	c7 86 64 a4 01
	00 04 00 00 00	 mov	 DWORD PTR [esi+107620], 4

; 415  : 		}
; 416  : 	}
; 417  : 
; 418  : ExitErr : 
; 419  : 
; 420  : 	return m_State;
; 421  : }

  00109	8b 86 64 a4 01
	00		 mov	 eax, DWORD PTR [esi+107620]
  0010f	5f		 pop	 edi

; 516  : 	m_hFile = NULL;

  00110	c7 46 1c 00 00
	00 00		 mov	 DWORD PTR [esi+28], 0

; 394  : 			m_FileErrorCode = HTTP_ERR_WRITEFILE;

  00117	c7 86 68 a4 01
	00 fa ff ff ff	 mov	 DWORD PTR [esi+107624], -6 ; fffffffaH

; 415  : 		}
; 416  : 	}
; 417  : 
; 418  : ExitErr : 
; 419  : 
; 420  : 	return m_State;
; 421  : }

  00121	5e		 pop	 esi
  00122	5b		 pop	 ebx
  00123	8b e5		 mov	 esp, ebp
  00125	5d		 pop	 ebp
  00126	c3		 ret	 0
$LN15@DownFile:

; 395  : 			goto ExitErr; 
; 396  : 		}
; 397  : 
; 398  : 		// ´Ůżî·Îµĺ ąŢŔş ľç
; 399  : 		m_nRecv += nWritten;

  00127	8b 86 a0 aa 01
	00		 mov	 eax, DWORD PTR [esi+109216]
  0012d	03 45 f4	 add	 eax, DWORD PTR _nWritten$[ebp]
  00130	89 86 a0 aa 01
	00		 mov	 DWORD PTR [esi+109216], eax

; 400  : 
; 401  : 		m_nOutTimer	= 0;

  00136	c7 86 8c a4 01
	00 00 00 00 00	 mov	 DWORD PTR [esi+107660], 0

; 402  : 		m_nDownTime	= ::GetCurrentTime();

  00140	ff 15 00 00 00
	00		 call	 DWORD PTR __imp__GetTickCount@0
  00146	89 86 84 a4 01
	00		 mov	 DWORD PTR [esi+107652], eax

; 403  : 
; 404  : 		if( m_nSize == m_nRecv )

  0014c	8b 86 9c aa 01
	00		 mov	 eax, DWORD PTR [esi+109212]
  00152	3b 86 a0 aa 01
	00		 cmp	 eax, DWORD PTR [esi+109216]
  00158	0f 85 cb 02 00
	00		 jne	 $ExitErr$187

; 270  : 	if( m_hHttp )

  0015e	8b 46 14	 mov	 eax, DWORD PTR [esi+20]
  00161	8b 3d 00 00 00
	00		 mov	 edi, DWORD PTR __imp__InternetCloseHandle@4
  00167	85 c0		 test	 eax, eax
  00169	74 0a		 je	 SHORT $LN101@DownFile

; 271  : 	{
; 272  : 		::InternetCloseHandle( m_hHttp );

  0016b	50		 push	 eax
  0016c	ff d7		 call	 edi

; 273  : 		m_hHttp = NULL;

  0016e	c7 46 14 00 00
	00 00		 mov	 DWORD PTR [esi+20], 0
$LN101@DownFile:

; 274  : 	}
; 275  : 
; 276  : 	if( m_hInternet )

  00175	8b 46 10	 mov	 eax, DWORD PTR [esi+16]
  00178	85 c0		 test	 eax, eax
  0017a	74 0a		 je	 SHORT $LN102@DownFile

; 277  : 	{
; 278  : 		::InternetCloseHandle( m_hInternet );

  0017c	50		 push	 eax
  0017d	ff d7		 call	 edi

; 279  : 		m_hInternet = NULL;

  0017f	c7 46 10 00 00
	00 00		 mov	 DWORD PTR [esi+16], 0
$LN102@DownFile:

; 405  : 		{
; 406  : 			// ´Ůżî·Îµĺ żĎ·á
; 407  : 			_DisConnectGET();
; 408  : 			::CloseHandle( m_hFile );

  00186	ff 76 1c	 push	 DWORD PTR [esi+28]
  00189	ff 15 00 00 00
	00		 call	 DWORD PTR __imp__CloseHandle@4

; 409  : 			m_hFile = NULL; 
; 410  : 
; 411  : 			m_nRestartCount = 0;
; 412  : 			m_nReloadCount	= 0;
; 413  : 			
; 414  : 			m_State	= HTTP_STATE_DOWNCOMPLETE;

  0018f	c7 86 64 a4 01
	00 03 00 00 00	 mov	 DWORD PTR [esi+107620], 3

; 415  : 		}
; 416  : 	}
; 417  : 
; 418  : ExitErr : 
; 419  : 
; 420  : 	return m_State;
; 421  : }

  00199	8b 86 64 a4 01
	00		 mov	 eax, DWORD PTR [esi+107620]
  0019f	5f		 pop	 edi
  001a0	c7 46 1c 00 00
	00 00		 mov	 DWORD PTR [esi+28], 0
  001a7	c7 86 78 a4 01
	00 00 00 00 00	 mov	 DWORD PTR [esi+107640], 0
  001b1	c7 86 70 a4 01
	00 00 00 00 00	 mov	 DWORD PTR [esi+107632], 0
  001bb	5e		 pop	 esi
  001bc	5b		 pop	 ebx
  001bd	8b e5		 mov	 esp, ebp
  001bf	5d		 pop	 ebp
  001c0	c3		 ret	 0
$LN10@DownFile:

; 366  : 		{
; 367  : 			m_nLocktime = ::GetCurrentTime() - m_nDownTime;

  001c1	8b be 84 a4 01
	00		 mov	 edi, DWORD PTR [esi+107652]
  001c7	8b 1d 00 00 00
	00		 mov	 ebx, DWORD PTR __imp__GetTickCount@0
  001cd	ff d3		 call	 ebx

; 368  : 			m_nOutTimer	+= m_nLocktime;

  001cf	8b 8e 8c a4 01
	00		 mov	 ecx, DWORD PTR [esi+107660]
  001d5	2b c7		 sub	 eax, edi
  001d7	03 c8		 add	 ecx, eax
  001d9	89 86 88 a4 01
	00		 mov	 DWORD PTR [esi+107656], eax
  001df	89 8e 8c a4 01
	00		 mov	 DWORD PTR [esi+107660], ecx

; 369  : 
; 370  : 			if( m_nOutTimer > m_nReloadTimeOut )

  001e5	3b 8e 80 a4 01
	00		 cmp	 ecx, DWORD PTR [esi+107648]
  001eb	0f 86 30 02 00
	00		 jbe	 $LN5@DownFile

; 502  : 	if( m_State == HTTP_STATE_DOWNLOADING )

  001f1	8b 86 64 a4 01
	00		 mov	 eax, DWORD PTR [esi+107620]
  001f7	83 f8 01	 cmp	 eax, 1
  001fa	75 19		 jne	 SHORT $LN41@DownFile

; 270  : 	if( m_hHttp )

  001fc	8b 46 14	 mov	 eax, DWORD PTR [esi+20]
  001ff	8b 3d 00 00 00
	00		 mov	 edi, DWORD PTR __imp__InternetCloseHandle@4
  00205	85 c0		 test	 eax, eax
  00207	74 3e		 je	 SHORT $LN58@DownFile

; 271  : 	{
; 272  : 		::InternetCloseHandle( m_hHttp );

  00209	50		 push	 eax
  0020a	ff d7		 call	 edi

; 273  : 		m_hHttp = NULL;

  0020c	c7 46 14 00 00
	00 00		 mov	 DWORD PTR [esi+20], 0

; 505  : 	}

  00213	eb 32		 jmp	 SHORT $LN58@DownFile
$LN41@DownFile:

; 506  : 	else if( m_State == HTTP_STATE_UPLOADING )

  00215	83 f8 05	 cmp	 eax, 5
  00218	74 05		 je	 SHORT $LN185@DownFile

; 507  : 	{
; 508  : 		_DisConnectPUT();
; 509  : 	}
; 510  : 	else if( m_State == HTTP_STATE_POST )

  0021a	83 f8 08	 cmp	 eax, 8
  0021d	75 39		 jne	 SHORT $LN59@DownFile
$LN185@DownFile:

; 511  : 	{
; 512  : 		_DisConnectPOST();
; 513  : 	}
; 514  : 
; 515  : 	::CloseHandle( m_hFile );

  0021f	8b 46 14	 mov	 eax, DWORD PTR [esi+20]
  00222	8b 3d 00 00 00
	00		 mov	 edi, DWORD PTR __imp__InternetCloseHandle@4
  00228	85 c0		 test	 eax, eax
  0022a	74 0a		 je	 SHORT $LN57@DownFile
  0022c	50		 push	 eax
  0022d	ff d7		 call	 edi
  0022f	c7 46 14 00 00
	00 00		 mov	 DWORD PTR [esi+20], 0
$LN57@DownFile:
  00236	8b 46 18	 mov	 eax, DWORD PTR [esi+24]
  00239	85 c0		 test	 eax, eax
  0023b	74 0a		 je	 SHORT $LN58@DownFile
  0023d	50		 push	 eax
  0023e	ff d7		 call	 edi
  00240	c7 46 18 00 00
	00 00		 mov	 DWORD PTR [esi+24], 0
$LN58@DownFile:
  00247	8b 46 10	 mov	 eax, DWORD PTR [esi+16]
  0024a	85 c0		 test	 eax, eax
  0024c	74 0a		 je	 SHORT $LN59@DownFile
  0024e	50		 push	 eax
  0024f	ff d7		 call	 edi
  00251	c7 46 10 00 00
	00 00		 mov	 DWORD PTR [esi+16], 0
$LN59@DownFile:
  00258	ff 76 1c	 push	 DWORD PTR [esi+28]
  0025b	ff 15 00 00 00
	00		 call	 DWORD PTR __imp__CloseHandle@4

; 371  : 			{
; 372  : 				Cancel();
; 373  : 				// Ŕç˝Ăµµ ÇŐ´Ď´Ů.
; 374  : 				if( ReloadCheck() )

  00261	8b ce		 mov	 ecx, esi

; 516  : 	m_hFile = NULL;

  00263	c7 46 1c 00 00
	00 00		 mov	 DWORD PTR [esi+28], 0

; 517  : 
; 518  : 	m_State = HTTP_STATE_NONE;

  0026a	c7 86 64 a4 01
	00 00 00 00 00	 mov	 DWORD PTR [esi+107620], 0

; 371  : 			{
; 372  : 				Cancel();
; 373  : 				// Ŕç˝Ăµµ ÇŐ´Ď´Ů.
; 374  : 				if( ReloadCheck() )

  00274	e8 00 00 00 00	 call	 ?ReloadCheck@i3NetworkHTTP@@QAEHXZ ; i3NetworkHTTP::ReloadCheck
  00279	85 c0		 test	 eax, eax
  0027b	0f 84 d6 01 00
	00		 je	 $LN12@DownFile

; 445  : 	if( HTTP_STATE_DOWNLOADING == m_State )	return HTTP_ERR_REDOWNLOAD; 

  00281	8b 86 64 a4 01
	00		 mov	 eax, DWORD PTR [esi+107620]

; 375  : 				{	
; 376  : 					DownStart( m_szURL, m_szPath );

  00287	8d be 94 a5 01
	00		 lea	 edi, DWORD PTR [esi+107924]

; 445  : 	if( HTTP_STATE_DOWNLOADING == m_State )	return HTTP_ERR_REDOWNLOAD; 

  0028d	83 f8 01	 cmp	 eax, 1
  00290	0f 84 93 01 00
	00		 je	 $ExitErr$187

; 446  : 
; 447  : 	// Á˘ĽÓ
; 448  : 	m_nSize = 0;

  00296	c7 86 9c aa 01
	00 00 00 00 00	 mov	 DWORD PTR [esi+109212], 0

; 449  : 	m_nRecv	= 0;

  002a0	c7 86 a0 aa 01
	00 00 00 00 00	 mov	 DWORD PTR [esi+109216], 0

; 450  : 
; 451  : 	if( m_State != HTTP_STATE_REDOWNLOAD )

  002aa	83 f8 02	 cmp	 eax, 2
  002ad	74 21		 je	 SHORT $LN65@DownFile

; 375  : 				{	
; 376  : 					DownStart( m_szURL, m_szPath );

  002af	8d 86 90 a4 01
	00		 lea	 eax, DWORD PTR [esi+107664]

; 453  : 		i3String::Copy( m_szURL, pszURL, MAX_PATH );

  002b5	68 04 01 00 00	 push	 260			; 00000104H
  002ba	50		 push	 eax
  002bb	50		 push	 eax
  002bc	e8 00 00 00 00	 call	 ?Copy@i3String@@YAXPADPBDH@Z ; i3String::Copy

; 454  : 		i3String::Copy( m_szPath, pszPath, MAX_PATH );

  002c1	68 04 01 00 00	 push	 260			; 00000104H
  002c6	57		 push	 edi
  002c7	57		 push	 edi
  002c8	e8 00 00 00 00	 call	 ?Copy@i3String@@YAXPADPBDH@Z ; i3String::Copy
  002cd	83 c4 18	 add	 esp, 24			; 00000018H
$LN65@DownFile:

; 455  : 	}
; 456  : 	
; 457  : 	m_nOutTimer	= 0;

  002d0	c7 86 8c a4 01
	00 00 00 00 00	 mov	 DWORD PTR [esi+107660], 0

; 458  : 	m_nDownTime	= ::GetCurrentTime();

  002da	ff d3		 call	 ebx

; 151  : 	m_hInternet = ::InternetOpen( m_szAgentName, INTERNET_OPEN_TYPE_PRECONFIG, NULL, NULL, 0 );

  002dc	6a 00		 push	 0
  002de	6a 00		 push	 0
  002e0	6a 00		 push	 0

; 458  : 	m_nDownTime	= ::GetCurrentTime();

  002e2	89 86 84 a4 01
	00		 mov	 DWORD PTR [esi+107652], eax

; 151  : 	m_hInternet = ::InternetOpen( m_szAgentName, INTERNET_OPEN_TYPE_PRECONFIG, NULL, NULL, 0 );

  002e8	8d 46 26	 lea	 eax, DWORD PTR [esi+38]
  002eb	6a 00		 push	 0
  002ed	50		 push	 eax
  002ee	ff 15 00 00 00
	00		 call	 DWORD PTR __imp__InternetOpenA@20
  002f4	89 46 10	 mov	 DWORD PTR [esi+16], eax

; 152  : 	if( m_hInternet == NULL )

  002f7	85 c0		 test	 eax, eax
  002f9	0f 85 d9 00 00
	00		 jne	 $LN113@DownFile

; 153  : 	{
; 154  : 		// Error
; 155  : 		i3String::Copy( m_szLastError, "Cannot open internet", 1024);

  002ff	68 00 04 00 00	 push	 1024			; 00000400H
  00304	8d 86 98 a6 01
	00		 lea	 eax, DWORD PTR [esi+108184]
  0030a	68 00 00 00 00	 push	 OFFSET ??_C@_0BF@PJCNEGDJ@Cannot?5open?5internet@
  0030f	50		 push	 eax
  00310	e8 00 00 00 00	 call	 ?Copy@i3String@@YAXPADPBDH@Z ; i3String::Copy
  00315	83 c4 0c	 add	 esp, 12			; 0000000cH

; 156  : 		m_nLastErrorCode=::GetLastError();

  00318	ff 15 00 00 00
	00		 call	 DWORD PTR __imp__GetLastError@0
  0031e	89 86 98 aa 01
	00		 mov	 DWORD PTR [esi+109208], eax

; 157  : 		return FALSE;

  00324	33 db		 xor	 ebx, ebx
  00326	eb 08 8d a4 24
	00 00 00 00 90	 npad	 10
$LL62@DownFile:

; 464  : 		m_nLocktime = ::GetCurrentTime() - m_nDownTime;

  00330	8b be 84 a4 01
	00		 mov	 edi, DWORD PTR [esi+107652]
  00336	ff 15 00 00 00
	00		 call	 DWORD PTR __imp__GetTickCount@0
  0033c	2b c7		 sub	 eax, edi
  0033e	89 86 88 a4 01
	00		 mov	 DWORD PTR [esi+107656], eax

; 465  : 		m_nOutTimer += m_nLocktime;

  00344	03 86 8c a4 01
	00		 add	 eax, DWORD PTR [esi+107660]
  0034a	89 86 8c a4 01
	00		 mov	 DWORD PTR [esi+107660], eax

; 466  : 
; 467  : 		if( m_nOutTimer > m_nRestartSleep )

  00350	3b 86 7c a4 01
	00		 cmp	 eax, DWORD PTR [esi+107644]
  00356	76 6c		 jbe	 SHORT $LN112@DownFile

; 435  : 	m_nRestartCount++;

  00358	8b 86 78 a4 01
	00		 mov	 eax, DWORD PTR [esi+107640]
  0035e	40		 inc	 eax
  0035f	89 86 78 a4 01
	00		 mov	 DWORD PTR [esi+107640], eax

; 436  : 	if( m_nRestartCount > m_nTotalRestart )

  00365	3b 86 74 a4 01
	00		 cmp	 eax, DWORD PTR [esi+107636]
  0036b	0f 8f c5 00 00
	00		 jg	 $LN124@DownFile

; 151  : 	m_hInternet = ::InternetOpen( m_szAgentName, INTERNET_OPEN_TYPE_PRECONFIG, NULL, NULL, 0 );

  00371	6a 00		 push	 0
  00373	6a 00		 push	 0
  00375	6a 00		 push	 0
  00377	6a 00		 push	 0
  00379	8d 46 26	 lea	 eax, DWORD PTR [esi+38]
  0037c	50		 push	 eax
  0037d	ff 15 00 00 00
	00		 call	 DWORD PTR __imp__InternetOpenA@20
  00383	89 46 10	 mov	 DWORD PTR [esi+16], eax

; 152  : 	if( m_hInternet == NULL )

  00386	85 c0		 test	 eax, eax
  00388	75 29		 jne	 SHORT $LN77@DownFile

; 153  : 	{
; 154  : 		// Error
; 155  : 		i3String::Copy( m_szLastError, "Cannot open internet", 1024);

  0038a	68 00 04 00 00	 push	 1024			; 00000400H
  0038f	8d 86 98 a6 01
	00		 lea	 eax, DWORD PTR [esi+108184]
  00395	68 00 00 00 00	 push	 OFFSET ??_C@_0BF@PJCNEGDJ@Cannot?5open?5internet@
  0039a	50		 push	 eax
  0039b	e8 00 00 00 00	 call	 ?Copy@i3String@@YAXPADPBDH@Z ; i3String::Copy
  003a0	83 c4 0c	 add	 esp, 12			; 0000000cH

; 156  : 		m_nLastErrorCode=::GetLastError();

  003a3	ff 15 00 00 00
	00		 call	 DWORD PTR __imp__GetLastError@0
  003a9	89 86 98 aa 01
	00		 mov	 DWORD PTR [esi+109208], eax

; 157  : 		return FALSE;

  003af	33 db		 xor	 ebx, ebx
  003b1	eb 05		 jmp	 SHORT $LN76@DownFile
$LN77@DownFile:

; 158  : 	}
; 159  : 	
; 160  : 	return TRUE;

  003b3	bb 01 00 00 00	 mov	 ebx, 1
$LN76@DownFile:

; 479  : 			m_nDownTime = ::GetCurrentTime();

  003b8	ff 15 00 00 00
	00		 call	 DWORD PTR __imp__GetTickCount@0
  003be	89 86 84 a4 01
	00		 mov	 DWORD PTR [esi+107652], eax
$LN112@DownFile:

; 459  : 
; 460  : 	Rv = _ConnectGET( pszURL );
; 461  : 
; 462  : 	while( !Rv )

  003c4	85 db		 test	 ebx, ebx
  003c6	0f 84 64 ff ff
	ff		 je	 $LL62@DownFile

; 469  : 			if( !RestartCheck() )

  003cc	8b 1d 00 00 00
	00		 mov	 ebx, DWORD PTR __imp__GetTickCount@0
  003d2	8d be 94 a5 01
	00		 lea	 edi, DWORD PTR [esi+107924]
$LN113@DownFile:

; 484  : 	m_hFile = ::CreateFile( pszPath, GENERIC_WRITE, 0, NULL, CREATE_ALWAYS, FILE_ATTRIBUTE_NORMAL, NULL );

  003d8	6a 00		 push	 0
  003da	68 80 00 00 00	 push	 128			; 00000080H
  003df	6a 02		 push	 2
  003e1	6a 00		 push	 0
  003e3	6a 00		 push	 0
  003e5	68 00 00 00 40	 push	 1073741824		; 40000000H
  003ea	57		 push	 edi
  003eb	ff 15 00 00 00
	00		 call	 DWORD PTR __imp__CreateFileA@28
  003f1	89 46 1c	 mov	 DWORD PTR [esi+28], eax

; 485  : 	if(m_hFile == INVALID_HANDLE_VALUE)

  003f4	83 f8 ff	 cmp	 eax, -1
  003f7	74 47		 je	 SHORT $LN122@DownFile
$LN29@DownFile:

; 415  : 		}
; 416  : 	}
; 417  : 
; 418  : ExitErr : 
; 419  : 
; 420  : 	return m_State;
; 421  : }

  003f9	c7 86 78 a4 01
	00 00 00 00 00	 mov	 DWORD PTR [esi+107640], 0
  00403	c7 86 70 a4 01
	00 00 00 00 00	 mov	 DWORD PTR [esi+107632], 0
  0040d	c7 86 64 a4 01
	00 01 00 00 00	 mov	 DWORD PTR [esi+107620], 1
  00417	c7 86 8c a4 01
	00 00 00 00 00	 mov	 DWORD PTR [esi+107660], 0
$LN5@DownFile:
  00421	ff d3		 call	 ebx
  00423	89 86 84 a4 01
	00		 mov	 DWORD PTR [esi+107652], eax
$ExitErr$187:
  00429	8b 86 64 a4 01
	00		 mov	 eax, DWORD PTR [esi+107620]
  0042f	5f		 pop	 edi
  00430	5e		 pop	 esi
  00431	5b		 pop	 ebx
  00432	8b e5		 mov	 esp, ebp
  00434	5d		 pop	 ebp
  00435	c3		 ret	 0
$LN124@DownFile:
  00436	c7 86 78 a4 01
	00 00 00 00 00	 mov	 DWORD PTR [esi+107640], 0
$LN122@DownFile:
  00440	c7 86 64 a4 01
	00 04 00 00 00	 mov	 DWORD PTR [esi+107620], 4
  0044a	8b 86 64 a4 01
	00		 mov	 eax, DWORD PTR [esi+107620]
  00450	5f		 pop	 edi
  00451	5e		 pop	 esi
  00452	5b		 pop	 ebx
  00453	8b e5		 mov	 esp, ebp
  00455	5d		 pop	 ebp
  00456	c3		 ret	 0
$LN12@DownFile:

; 377  : 				}
; 378  : 				else
; 379  : 				{
; 380  : 					m_State = HTTP_STATE_DOWNFAILE;

  00457	c7 86 64 a4 01
	00 04 00 00 00	 mov	 DWORD PTR [esi+107620], 4

; 415  : 		}
; 416  : 	}
; 417  : 
; 418  : ExitErr : 
; 419  : 
; 420  : 	return m_State;
; 421  : }

  00461	8b 86 64 a4 01
	00		 mov	 eax, DWORD PTR [esi+107620]
  00467	5f		 pop	 edi
  00468	c7 86 68 a4 01
	00 fb ff ff ff	 mov	 DWORD PTR [esi+107624], -5 ; fffffffbH
  00472	5e		 pop	 esi
  00473	5b		 pop	 ebx
  00474	8b e5		 mov	 esp, ebp
  00476	5d		 pop	 ebp
  00477	c3		 ret	 0
$LN4@DownFile:

; 337  : 		{	
; 338  : 			m_nLocktime = ::GetCurrentTime() - m_nDownTime;

  00478	8b be 84 a4 01
	00		 mov	 edi, DWORD PTR [esi+107652]
  0047e	8b 1d 00 00 00
	00		 mov	 ebx, DWORD PTR __imp__GetTickCount@0
  00484	ff d3		 call	 ebx

; 339  : 			m_nOutTimer	+= m_nLocktime;

  00486	8b 8e 8c a4 01
	00		 mov	 ecx, DWORD PTR [esi+107660]
  0048c	2b c7		 sub	 eax, edi
  0048e	03 c8		 add	 ecx, eax
  00490	89 86 88 a4 01
	00		 mov	 DWORD PTR [esi+107656], eax
  00496	89 8e 8c a4 01
	00		 mov	 DWORD PTR [esi+107660], ecx

; 340  : 
; 341  : 			if( m_nOutTimer > m_nReloadTimeOut )

  0049c	3b 8e 80 a4 01
	00		 cmp	 ecx, DWORD PTR [esi+107648]
  004a2	0f 86 79 ff ff
	ff		 jbe	 $LN5@DownFile

; 342  : 			{
; 343  : 				Cancel();

  004a8	8b ce		 mov	 ecx, esi
  004aa	e8 00 00 00 00	 call	 ?Cancel@i3NetworkHTTP@@QAEXXZ ; i3NetworkHTTP::Cancel

; 425  : 	m_nReloadCount++;

  004af	ff 86 70 a4 01
	00		 inc	 DWORD PTR [esi+107632]
  004b5	8b 86 70 a4 01
	00		 mov	 eax, DWORD PTR [esi+107632]

; 426  : 	if( m_nReloadCount > m_nTotalReload )

  004bb	3b 86 6c a4 01
	00		 cmp	 eax, DWORD PTR [esi+107628]
  004c1	7e 21		 jle	 SHORT $LN20@DownFile

; 415  : 		}
; 416  : 	}
; 417  : 
; 418  : ExitErr : 
; 419  : 
; 420  : 	return m_State;
; 421  : }

  004c3	c7 86 64 a4 01
	00 04 00 00 00	 mov	 DWORD PTR [esi+107620], 4
  004cd	8b 86 64 a4 01
	00		 mov	 eax, DWORD PTR [esi+107620]
  004d3	5f		 pop	 edi
  004d4	c7 86 68 a4 01
	00 fc ff ff ff	 mov	 DWORD PTR [esi+107624], -4 ; fffffffcH
  004de	5e		 pop	 esi
  004df	5b		 pop	 ebx
  004e0	8b e5		 mov	 esp, ebp
  004e2	5d		 pop	 ebp
  004e3	c3		 ret	 0
$LN20@DownFile:

; 430  : 	return TRUE;

  004e4	8d be 94 a5 01
	00		 lea	 edi, DWORD PTR [esi+107924]
  004ea	c7 86 64 a4 01
	00 02 00 00 00	 mov	 DWORD PTR [esi+107620], 2
  004f4	89 7d fc	 mov	 DWORD PTR _pszPath$2$[ebp], edi
  004f7	c7 86 9c aa 01
	00 00 00 00 00	 mov	 DWORD PTR [esi+109212], 0
  00501	c7 86 a0 aa 01
	00 00 00 00 00	 mov	 DWORD PTR [esi+109216], 0

; 457  : 	m_nOutTimer	= 0;

  0050b	c7 86 8c a4 01
	00 00 00 00 00	 mov	 DWORD PTR [esi+107660], 0

; 458  : 	m_nDownTime	= ::GetCurrentTime();

  00515	ff d3		 call	 ebx

; 151  : 	m_hInternet = ::InternetOpen( m_szAgentName, INTERNET_OPEN_TYPE_PRECONFIG, NULL, NULL, 0 );

  00517	6a 00		 push	 0
  00519	6a 00		 push	 0
  0051b	6a 00		 push	 0

; 458  : 	m_nDownTime	= ::GetCurrentTime();

  0051d	89 86 84 a4 01
	00		 mov	 DWORD PTR [esi+107652], eax

; 151  : 	m_hInternet = ::InternetOpen( m_szAgentName, INTERNET_OPEN_TYPE_PRECONFIG, NULL, NULL, 0 );

  00523	8d 46 26	 lea	 eax, DWORD PTR [esi+38]
  00526	6a 00		 push	 0
  00528	50		 push	 eax
  00529	ff 15 00 00 00
	00		 call	 DWORD PTR __imp__InternetOpenA@20
  0052f	89 46 10	 mov	 DWORD PTR [esi+16], eax

; 152  : 	if( m_hInternet == NULL )

  00532	85 c0		 test	 eax, eax
  00534	0f 85 d4 00 00
	00		 jne	 $LN115@DownFile

; 153  : 	{
; 154  : 		// Error
; 155  : 		i3String::Copy( m_szLastError, "Cannot open internet", 1024);

  0053a	68 00 04 00 00	 push	 1024			; 00000400H
  0053f	8d 86 98 a6 01
	00		 lea	 eax, DWORD PTR [esi+108184]
  00545	68 00 00 00 00	 push	 OFFSET ??_C@_0BF@PJCNEGDJ@Cannot?5open?5internet@
  0054a	50		 push	 eax
  0054b	e8 00 00 00 00	 call	 ?Copy@i3String@@YAXPADPBDH@Z ; i3String::Copy
  00550	83 c4 0c	 add	 esp, 12			; 0000000cH

; 156  : 		m_nLastErrorCode=::GetLastError();

  00553	ff 15 00 00 00
	00		 call	 DWORD PTR __imp__GetLastError@0
  00559	89 86 98 aa 01
	00		 mov	 DWORD PTR [esi+109208], eax

; 157  : 		return FALSE;

  0055f	33 db		 xor	 ebx, ebx
$LL23@DownFile:

; 464  : 		m_nLocktime = ::GetCurrentTime() - m_nDownTime;

  00561	8b be 84 a4 01
	00		 mov	 edi, DWORD PTR [esi+107652]
  00567	ff 15 00 00 00
	00		 call	 DWORD PTR __imp__GetTickCount@0
  0056d	2b c7		 sub	 eax, edi
  0056f	89 86 88 a4 01
	00		 mov	 DWORD PTR [esi+107656], eax

; 465  : 		m_nOutTimer += m_nLocktime;

  00575	03 86 8c a4 01
	00		 add	 eax, DWORD PTR [esi+107660]
  0057b	89 86 8c a4 01
	00		 mov	 DWORD PTR [esi+107660], eax

; 466  : 
; 467  : 		if( m_nOutTimer > m_nRestartSleep )

  00581	3b 86 7c a4 01
	00		 cmp	 eax, DWORD PTR [esi+107644]
  00587	76 74		 jbe	 SHORT $LN114@DownFile

; 435  : 	m_nRestartCount++;

  00589	8b 86 78 a4 01
	00		 mov	 eax, DWORD PTR [esi+107640]
  0058f	40		 inc	 eax
  00590	89 86 78 a4 01
	00		 mov	 DWORD PTR [esi+107640], eax

; 436  : 	if( m_nRestartCount > m_nTotalRestart )

  00596	3b 86 74 a4 01
	00		 cmp	 eax, DWORD PTR [esi+107636]
  0059c	0f 8f 94 fe ff
	ff		 jg	 $LN124@DownFile

; 151  : 	m_hInternet = ::InternetOpen( m_szAgentName, INTERNET_OPEN_TYPE_PRECONFIG, NULL, NULL, 0 );

  005a2	6a 00		 push	 0
  005a4	6a 00		 push	 0
  005a6	6a 00		 push	 0
  005a8	6a 00		 push	 0
  005aa	8d 46 26	 lea	 eax, DWORD PTR [esi+38]
  005ad	50		 push	 eax
  005ae	ff 15 00 00 00
	00		 call	 DWORD PTR __imp__InternetOpenA@20
  005b4	89 46 10	 mov	 DWORD PTR [esi+16], eax

; 152  : 	if( m_hInternet == NULL )

  005b7	85 c0		 test	 eax, eax
  005b9	75 29		 jne	 SHORT $LN38@DownFile

; 153  : 	{
; 154  : 		// Error
; 155  : 		i3String::Copy( m_szLastError, "Cannot open internet", 1024);

  005bb	68 00 04 00 00	 push	 1024			; 00000400H
  005c0	8d 86 98 a6 01
	00		 lea	 eax, DWORD PTR [esi+108184]
  005c6	68 00 00 00 00	 push	 OFFSET ??_C@_0BF@PJCNEGDJ@Cannot?5open?5internet@
  005cb	50		 push	 eax
  005cc	e8 00 00 00 00	 call	 ?Copy@i3String@@YAXPADPBDH@Z ; i3String::Copy
  005d1	83 c4 0c	 add	 esp, 12			; 0000000cH

; 156  : 		m_nLastErrorCode=::GetLastError();

  005d4	ff 15 00 00 00
	00		 call	 DWORD PTR __imp__GetLastError@0
  005da	89 86 98 aa 01
	00		 mov	 DWORD PTR [esi+109208], eax

; 157  : 		return FALSE;

  005e0	33 db		 xor	 ebx, ebx
  005e2	eb 05		 jmp	 SHORT $LN37@DownFile
$LN38@DownFile:

; 158  : 	}
; 159  : 	
; 160  : 	return TRUE;

  005e4	bb 01 00 00 00	 mov	 ebx, 1
$LN37@DownFile:

; 479  : 			m_nDownTime = ::GetCurrentTime();

  005e9	ff 15 00 00 00
	00		 call	 DWORD PTR __imp__GetTickCount@0
  005ef	8b 7d fc	 mov	 edi, DWORD PTR _pszPath$2$[ebp]
  005f2	89 86 84 a4 01
	00		 mov	 DWORD PTR [esi+107652], eax
  005f8	89 7d fc	 mov	 DWORD PTR _pszPath$2$[ebp], edi
  005fb	eb 03		 jmp	 SHORT $LN27@DownFile
$LN114@DownFile:
  005fd	8b 7d fc	 mov	 edi, DWORD PTR _pszPath$2$[ebp]
$LN27@DownFile:

; 459  : 
; 460  : 	Rv = _ConnectGET( pszURL );
; 461  : 
; 462  : 	while( !Rv )

  00600	85 db		 test	 ebx, ebx
  00602	0f 84 59 ff ff
	ff		 je	 $LL23@DownFile

; 468  : 		{
; 469  : 			if( !RestartCheck() )

  00608	8b 1d 00 00 00
	00		 mov	 ebx, DWORD PTR __imp__GetTickCount@0
$LN115@DownFile:

; 480  : 		}
; 481  : 	}
; 482  : 
; 483  : 	// ĆÄŔĎ »ýĽş
; 484  : 	m_hFile = ::CreateFile( pszPath, GENERIC_WRITE, 0, NULL, CREATE_ALWAYS, FILE_ATTRIBUTE_NORMAL, NULL );

  0060e	6a 00		 push	 0
  00610	68 80 00 00 00	 push	 128			; 00000080H
  00615	6a 02		 push	 2
  00617	6a 00		 push	 0
  00619	6a 00		 push	 0
  0061b	68 00 00 00 40	 push	 1073741824		; 40000000H
  00620	57		 push	 edi
  00621	ff 15 00 00 00
	00		 call	 DWORD PTR __imp__CreateFileA@28
  00627	89 46 1c	 mov	 DWORD PTR [esi+28], eax

; 485  : 	if(m_hFile == INVALID_HANDLE_VALUE)

  0062a	83 f8 ff	 cmp	 eax, -1
  0062d	0f 85 c6 fd ff
	ff		 jne	 $LN29@DownFile

; 486  : 	{
; 487  : 		m_State = HTTP_STATE_DOWNFAILE; 
; 488  : 		return HTTP_ERR_CREATEFILE; 

  00633	e9 08 fe ff ff	 jmp	 $LN122@DownFile
?DownFile@i3NetworkHTTP@@QAEHXZ ENDP			; i3NetworkHTTP::DownFile
_TEXT	ENDS
; Function compile flags: /Ogtp
; File E:\Proyectos\JuegosOnlineproyectos\PB\pbblow\Piercing Blow Remake\i3Server\src\i3Base\i3NetworkHTTP.cpp
;	COMDAT ?DownStart@i3NetworkHTTP@@QAEHPAD0@Z
_TEXT	SEGMENT
_pszURL$ = 8						; size = 4
_pszPath$ = 12						; size = 4
?DownStart@i3NetworkHTTP@@QAEHPAD0@Z PROC		; i3NetworkHTTP::DownStart, COMDAT
; _this$ = ecx

; 443  : {

  00000	55		 push	 ebp
  00001	8b ec		 mov	 ebp, esp
  00003	56		 push	 esi
  00004	8b f1		 mov	 esi, ecx

; 444  : 	BOOL	Rv;
; 445  : 	if( HTTP_STATE_DOWNLOADING == m_State )	return HTTP_ERR_REDOWNLOAD; 

  00006	8b 86 64 a4 01
	00		 mov	 eax, DWORD PTR [esi+107620]
  0000c	83 f8 01	 cmp	 eax, 1
  0000f	75 0a		 jne	 SHORT $LN4@DownStart
  00011	b8 fe ff ff ff	 mov	 eax, -2			; fffffffeH
  00016	5e		 pop	 esi

; 498  : }

  00017	5d		 pop	 ebp
  00018	c2 08 00	 ret	 8
$LN4@DownStart:

; 446  : 
; 447  : 	// Á˘ĽÓ
; 448  : 	m_nSize = 0;

  0001b	c7 86 9c aa 01
	00 00 00 00 00	 mov	 DWORD PTR [esi+109212], 0

; 449  : 	m_nRecv	= 0;

  00025	c7 86 a0 aa 01
	00 00 00 00 00	 mov	 DWORD PTR [esi+109216], 0

; 450  : 
; 451  : 	if( m_State != HTTP_STATE_REDOWNLOAD )

  0002f	83 f8 02	 cmp	 eax, 2
  00032	74 2b		 je	 SHORT $LN5@DownStart

; 452  : 	{
; 453  : 		i3String::Copy( m_szURL, pszURL, MAX_PATH );

  00034	68 04 01 00 00	 push	 260			; 00000104H
  00039	ff 75 08	 push	 DWORD PTR _pszURL$[ebp]
  0003c	8d 86 90 a4 01
	00		 lea	 eax, DWORD PTR [esi+107664]
  00042	50		 push	 eax
  00043	e8 00 00 00 00	 call	 ?Copy@i3String@@YAXPADPBDH@Z ; i3String::Copy

; 454  : 		i3String::Copy( m_szPath, pszPath, MAX_PATH );

  00048	68 04 01 00 00	 push	 260			; 00000104H
  0004d	ff 75 0c	 push	 DWORD PTR _pszPath$[ebp]
  00050	8d 86 94 a5 01
	00		 lea	 eax, DWORD PTR [esi+107924]
  00056	50		 push	 eax
  00057	e8 00 00 00 00	 call	 ?Copy@i3String@@YAXPADPBDH@Z ; i3String::Copy
  0005c	83 c4 18	 add	 esp, 24			; 00000018H
$LN5@DownStart:

; 455  : 	}
; 456  : 	
; 457  : 	m_nOutTimer	= 0;
; 458  : 	m_nDownTime	= ::GetCurrentTime();

  0005f	53		 push	 ebx
  00060	8b 1d 00 00 00
	00		 mov	 ebx, DWORD PTR __imp__GetTickCount@0
  00066	57		 push	 edi
  00067	c7 86 8c a4 01
	00 00 00 00 00	 mov	 DWORD PTR [esi+107660], 0
  00071	ff d3		 call	 ebx

; 151  : 	m_hInternet = ::InternetOpen( m_szAgentName, INTERNET_OPEN_TYPE_PRECONFIG, NULL, NULL, 0 );

  00073	6a 00		 push	 0
  00075	6a 00		 push	 0
  00077	6a 00		 push	 0

; 455  : 	}
; 456  : 	
; 457  : 	m_nOutTimer	= 0;
; 458  : 	m_nDownTime	= ::GetCurrentTime();

  00079	89 86 84 a4 01
	00		 mov	 DWORD PTR [esi+107652], eax

; 151  : 	m_hInternet = ::InternetOpen( m_szAgentName, INTERNET_OPEN_TYPE_PRECONFIG, NULL, NULL, 0 );

  0007f	8d 46 26	 lea	 eax, DWORD PTR [esi+38]
  00082	6a 00		 push	 0
  00084	50		 push	 eax
  00085	ff 15 00 00 00
	00		 call	 DWORD PTR __imp__InternetOpenA@20
  0008b	89 46 10	 mov	 DWORD PTR [esi+16], eax

; 152  : 	if( m_hInternet == NULL )

  0008e	85 c0		 test	 eax, eax
  00090	0f 85 cc 00 00
	00		 jne	 $LN24@DownStart

; 153  : 	{
; 154  : 		// Error
; 155  : 		i3String::Copy( m_szLastError, "Cannot open internet", 1024);

  00096	68 00 04 00 00	 push	 1024			; 00000400H
  0009b	8d 86 98 a6 01
	00		 lea	 eax, DWORD PTR [esi+108184]
  000a1	68 00 00 00 00	 push	 OFFSET ??_C@_0BF@PJCNEGDJ@Cannot?5open?5internet@
  000a6	50		 push	 eax
  000a7	e8 00 00 00 00	 call	 ?Copy@i3String@@YAXPADPBDH@Z ; i3String::Copy
  000ac	83 c4 0c	 add	 esp, 12			; 0000000cH

; 156  : 		m_nLastErrorCode=::GetLastError();

  000af	ff 15 00 00 00
	00		 call	 DWORD PTR __imp__GetLastError@0
  000b5	89 86 98 aa 01
	00		 mov	 DWORD PTR [esi+109208], eax

; 157  : 		return FALSE;

  000bb	33 db		 xor	 ebx, ebx
  000bd	8d 49 00	 npad	 3
$LL2@DownStart:

; 463  : 	{
; 464  : 		m_nLocktime = ::GetCurrentTime() - m_nDownTime;

  000c0	8b be 84 a4 01
	00		 mov	 edi, DWORD PTR [esi+107652]
  000c6	ff 15 00 00 00
	00		 call	 DWORD PTR __imp__GetTickCount@0
  000cc	2b c7		 sub	 eax, edi
  000ce	89 86 88 a4 01
	00		 mov	 DWORD PTR [esi+107656], eax

; 465  : 		m_nOutTimer += m_nLocktime;

  000d4	03 86 8c a4 01
	00		 add	 eax, DWORD PTR [esi+107660]
  000da	89 86 8c a4 01
	00		 mov	 DWORD PTR [esi+107660], eax

; 466  : 
; 467  : 		if( m_nOutTimer > m_nRestartSleep )

  000e0	3b 86 7c a4 01
	00		 cmp	 eax, DWORD PTR [esi+107644]
  000e6	76 6c		 jbe	 SHORT $LN23@DownStart

; 435  : 	m_nRestartCount++;

  000e8	8b 86 78 a4 01
	00		 mov	 eax, DWORD PTR [esi+107640]
  000ee	40		 inc	 eax
  000ef	89 86 78 a4 01
	00		 mov	 DWORD PTR [esi+107640], eax

; 436  : 	if( m_nRestartCount > m_nTotalRestart )

  000f5	3b 86 74 a4 01
	00		 cmp	 eax, DWORD PTR [esi+107636]
  000fb	0f 8f 9a 00 00
	00		 jg	 $LN27@DownStart

; 151  : 	m_hInternet = ::InternetOpen( m_szAgentName, INTERNET_OPEN_TYPE_PRECONFIG, NULL, NULL, 0 );

  00101	6a 00		 push	 0
  00103	6a 00		 push	 0
  00105	6a 00		 push	 0
  00107	6a 00		 push	 0
  00109	8d 46 26	 lea	 eax, DWORD PTR [esi+38]
  0010c	50		 push	 eax
  0010d	ff 15 00 00 00
	00		 call	 DWORD PTR __imp__InternetOpenA@20
  00113	89 46 10	 mov	 DWORD PTR [esi+16], eax

; 152  : 	if( m_hInternet == NULL )

  00116	85 c0		 test	 eax, eax
  00118	75 29		 jne	 SHORT $LN17@DownStart

; 153  : 	{
; 154  : 		// Error
; 155  : 		i3String::Copy( m_szLastError, "Cannot open internet", 1024);

  0011a	68 00 04 00 00	 push	 1024			; 00000400H
  0011f	8d 86 98 a6 01
	00		 lea	 eax, DWORD PTR [esi+108184]
  00125	68 00 00 00 00	 push	 OFFSET ??_C@_0BF@PJCNEGDJ@Cannot?5open?5internet@
  0012a	50		 push	 eax
  0012b	e8 00 00 00 00	 call	 ?Copy@i3String@@YAXPADPBDH@Z ; i3String::Copy
  00130	83 c4 0c	 add	 esp, 12			; 0000000cH

; 156  : 		m_nLastErrorCode=::GetLastError();

  00133	ff 15 00 00 00
	00		 call	 DWORD PTR __imp__GetLastError@0
  00139	89 86 98 aa 01
	00		 mov	 DWORD PTR [esi+109208], eax

; 157  : 		return FALSE;

  0013f	33 db		 xor	 ebx, ebx
  00141	eb 05		 jmp	 SHORT $LN16@DownStart
$LN17@DownStart:

; 158  : 	}
; 159  : 	
; 160  : 	return TRUE;

  00143	bb 01 00 00 00	 mov	 ebx, 1
$LN16@DownStart:

; 475  : 			}
; 476  : 
; 477  : 			Rv = _ConnectGET( pszURL );
; 478  : 
; 479  : 			m_nDownTime = ::GetCurrentTime();

  00148	ff 15 00 00 00
	00		 call	 DWORD PTR __imp__GetTickCount@0
  0014e	89 86 84 a4 01
	00		 mov	 DWORD PTR [esi+107652], eax
$LN23@DownStart:

; 459  : 
; 460  : 	Rv = _ConnectGET( pszURL );
; 461  : 
; 462  : 	while( !Rv )

  00154	85 db		 test	 ebx, ebx
  00156	0f 84 64 ff ff
	ff		 je	 $LL2@DownStart

; 468  : 		{
; 469  : 			if( !RestartCheck() )

  0015c	8b 1d 00 00 00
	00		 mov	 ebx, DWORD PTR __imp__GetTickCount@0
$LN24@DownStart:

; 480  : 		}
; 481  : 	}
; 482  : 
; 483  : 	// ĆÄŔĎ »ýĽş
; 484  : 	m_hFile = ::CreateFile( pszPath, GENERIC_WRITE, 0, NULL, CREATE_ALWAYS, FILE_ATTRIBUTE_NORMAL, NULL );

  00162	6a 00		 push	 0
  00164	68 80 00 00 00	 push	 128			; 00000080H
  00169	6a 02		 push	 2
  0016b	6a 00		 push	 0
  0016d	6a 00		 push	 0
  0016f	68 00 00 00 40	 push	 1073741824		; 40000000H
  00174	ff 75 0c	 push	 DWORD PTR _pszPath$[ebp]
  00177	ff 15 00 00 00
	00		 call	 DWORD PTR __imp__CreateFileA@28
  0017d	89 46 1c	 mov	 DWORD PTR [esi+28], eax

; 485  : 	if(m_hFile == INVALID_HANDLE_VALUE)

  00180	83 f8 ff	 cmp	 eax, -1
  00183	75 34		 jne	 SHORT $LN8@DownStart

; 486  : 	{
; 487  : 		m_State = HTTP_STATE_DOWNFAILE; 

  00185	5f		 pop	 edi
  00186	5b		 pop	 ebx
  00187	c7 86 64 a4 01
	00 04 00 00 00	 mov	 DWORD PTR [esi+107620], 4

; 488  : 		return HTTP_ERR_CREATEFILE; 

  00191	b8 fd ff ff ff	 mov	 eax, -3			; fffffffdH
  00196	5e		 pop	 esi

; 498  : }

  00197	5d		 pop	 ebp
  00198	c2 08 00	 ret	 8
$LN27@DownStart:
  0019b	5f		 pop	 edi
  0019c	5b		 pop	 ebx

; 470  : 			{
; 471  : 				// Á˘ĽÓ ˝ÇĆĐŔÔ´Ď´Ů.
; 472  : 				m_nRestartCount	 = 0;

  0019d	c7 86 78 a4 01
	00 00 00 00 00	 mov	 DWORD PTR [esi+107640], 0

; 473  : 				m_State = HTTP_STATE_DOWNFAILE; 
; 474  : 				return HTTP_ERR_CONNECT;

  001a7	83 c8 ff	 or	 eax, -1
  001aa	c7 86 64 a4 01
	00 04 00 00 00	 mov	 DWORD PTR [esi+107620], 4
  001b4	5e		 pop	 esi

; 498  : }

  001b5	5d		 pop	 ebp
  001b6	c2 08 00	 ret	 8
$LN8@DownStart:

; 489  : 	}
; 490  : 
; 491  : 	m_nRestartCount	 = 0;

  001b9	c7 86 78 a4 01
	00 00 00 00 00	 mov	 DWORD PTR [esi+107640], 0

; 492  : 	m_nReloadCount = 0;

  001c3	c7 86 70 a4 01
	00 00 00 00 00	 mov	 DWORD PTR [esi+107632], 0

; 493  : 	m_State = HTTP_STATE_DOWNLOADING;

  001cd	c7 86 64 a4 01
	00 01 00 00 00	 mov	 DWORD PTR [esi+107620], 1

; 494  : 	m_nOutTimer	= 0;

  001d7	c7 86 8c a4 01
	00 00 00 00 00	 mov	 DWORD PTR [esi+107660], 0

; 495  : 	m_nDownTime	= ::GetCurrentTime();

  001e1	ff d3		 call	 ebx
  001e3	5f		 pop	 edi
  001e4	89 86 84 a4 01
	00		 mov	 DWORD PTR [esi+107652], eax

; 496  : 
; 497  : 	return m_nSize;

  001ea	8b 86 9c aa 01
	00		 mov	 eax, DWORD PTR [esi+109212]
  001f0	5b		 pop	 ebx
  001f1	5e		 pop	 esi

; 498  : }

  001f2	5d		 pop	 ebp
  001f3	c2 08 00	 ret	 8
?DownStart@i3NetworkHTTP@@QAEHPAD0@Z ENDP		; i3NetworkHTTP::DownStart
_TEXT	ENDS
; Function compile flags: /Ogtp
; File E:\Proyectos\JuegosOnlineproyectos\PB\pbblow\Piercing Blow Remake\i3Server\src\i3Base\i3NetworkHTTP.cpp
;	COMDAT ?Cancel@i3NetworkHTTP@@QAEXXZ
_TEXT	SEGMENT
?Cancel@i3NetworkHTTP@@QAEXXZ PROC			; i3NetworkHTTP::Cancel, COMDAT
; _this$ = ecx

; 501  : {

  00000	56		 push	 esi
  00001	8b f1		 mov	 esi, ecx
  00003	57		 push	 edi

; 502  : 	if( m_State == HTTP_STATE_DOWNLOADING )

  00004	8b 86 64 a4 01
	00		 mov	 eax, DWORD PTR [esi+107620]
  0000a	83 f8 01	 cmp	 eax, 1
  0000d	75 19		 jne	 SHORT $LN2@Cancel

; 270  : 	if( m_hHttp )

  0000f	8b 46 14	 mov	 eax, DWORD PTR [esi+20]
  00012	8b 3d 00 00 00
	00		 mov	 edi, DWORD PTR __imp__InternetCloseHandle@4
  00018	85 c0		 test	 eax, eax
  0001a	74 3e		 je	 SHORT $LN19@Cancel

; 271  : 	{
; 272  : 		::InternetCloseHandle( m_hHttp );

  0001c	50		 push	 eax
  0001d	ff d7		 call	 edi

; 273  : 		m_hHttp = NULL;

  0001f	c7 46 14 00 00
	00 00		 mov	 DWORD PTR [esi+20], 0

; 503  : 	{
; 504  : 		_DisConnectGET();
; 505  : 	}

  00026	eb 32		 jmp	 SHORT $LN19@Cancel
$LN2@Cancel:

; 506  : 	else if( m_State == HTTP_STATE_UPLOADING )

  00028	83 f8 05	 cmp	 eax, 5
  0002b	74 05		 je	 SHORT $LN38@Cancel

; 507  : 	{
; 508  : 		_DisConnectPUT();
; 509  : 	}
; 510  : 	else if( m_State == HTTP_STATE_POST )

  0002d	83 f8 08	 cmp	 eax, 8
  00030	75 39		 jne	 SHORT $LN20@Cancel
$LN38@Cancel:

; 511  : 	{
; 512  : 		_DisConnectPOST();
; 513  : 	}
; 514  : 
; 515  : 	::CloseHandle( m_hFile );

  00032	8b 46 14	 mov	 eax, DWORD PTR [esi+20]
  00035	8b 3d 00 00 00
	00		 mov	 edi, DWORD PTR __imp__InternetCloseHandle@4
  0003b	85 c0		 test	 eax, eax
  0003d	74 0a		 je	 SHORT $LN18@Cancel
  0003f	50		 push	 eax
  00040	ff d7		 call	 edi
  00042	c7 46 14 00 00
	00 00		 mov	 DWORD PTR [esi+20], 0
$LN18@Cancel:
  00049	8b 46 18	 mov	 eax, DWORD PTR [esi+24]
  0004c	85 c0		 test	 eax, eax
  0004e	74 0a		 je	 SHORT $LN19@Cancel
  00050	50		 push	 eax
  00051	ff d7		 call	 edi
  00053	c7 46 18 00 00
	00 00		 mov	 DWORD PTR [esi+24], 0
$LN19@Cancel:
  0005a	8b 46 10	 mov	 eax, DWORD PTR [esi+16]
  0005d	85 c0		 test	 eax, eax
  0005f	74 0a		 je	 SHORT $LN20@Cancel
  00061	50		 push	 eax
  00062	ff d7		 call	 edi
  00064	c7 46 10 00 00
	00 00		 mov	 DWORD PTR [esi+16], 0
$LN20@Cancel:
  0006b	ff 76 1c	 push	 DWORD PTR [esi+28]
  0006e	ff 15 00 00 00
	00		 call	 DWORD PTR __imp__CloseHandle@4

; 516  : 	m_hFile = NULL;
; 517  : 
; 518  : 	m_State = HTTP_STATE_NONE;

  00074	5f		 pop	 edi
  00075	c7 46 1c 00 00
	00 00		 mov	 DWORD PTR [esi+28], 0
  0007c	c7 86 64 a4 01
	00 00 00 00 00	 mov	 DWORD PTR [esi+107620], 0
  00086	5e		 pop	 esi

; 519  : }

  00087	c3		 ret	 0
?Cancel@i3NetworkHTTP@@QAEXXZ ENDP			; i3NetworkHTTP::Cancel
_TEXT	ENDS
; Function compile flags: /Ogtp
; File E:\Proyectos\JuegosOnlineproyectos\PB\pbblow\Piercing Blow Remake\i3Server\src\i3Base\i3NetworkHTTP.cpp
;	COMDAT ?Destroy@i3NetworkHTTP@@QAEXXZ
_TEXT	SEGMENT
?Destroy@i3NetworkHTTP@@QAEXXZ PROC			; i3NetworkHTTP::Destroy, COMDAT
; _this$ = ecx

; 122  : {

  00000	56		 push	 esi
  00001	8b f1		 mov	 esi, ecx

; 123  : 	Cancel();

  00003	e8 00 00 00 00	 call	 ?Cancel@i3NetworkHTTP@@QAEXXZ ; i3NetworkHTTP::Cancel

; 270  : 	if( m_hHttp )

  00008	8b 46 14	 mov	 eax, DWORD PTR [esi+20]
  0000b	85 c0		 test	 eax, eax
  0000d	74 0e		 je	 SHORT $LN5@Destroy

; 271  : 	{
; 272  : 		::InternetCloseHandle( m_hHttp );

  0000f	50		 push	 eax
  00010	ff 15 00 00 00
	00		 call	 DWORD PTR __imp__InternetCloseHandle@4

; 273  : 		m_hHttp = NULL;

  00016	c7 46 14 00 00
	00 00		 mov	 DWORD PTR [esi+20], 0
$LN5@Destroy:

; 274  : 	}
; 275  : 
; 276  : 	if( m_hInternet )

  0001d	8b 46 10	 mov	 eax, DWORD PTR [esi+16]
  00020	85 c0		 test	 eax, eax
  00022	74 0e		 je	 SHORT $LN6@Destroy

; 277  : 	{
; 278  : 		::InternetCloseHandle( m_hInternet );

  00024	50		 push	 eax
  00025	ff 15 00 00 00
	00		 call	 DWORD PTR __imp__InternetCloseHandle@4

; 279  : 		m_hInternet = NULL;

  0002b	c7 46 10 00 00
	00 00		 mov	 DWORD PTR [esi+16], 0
$LN6@Destroy:

; 124  : 	_DisConnectGET();
; 125  : 	I3MEM_SAFE_FREE_POINTER( m_pReadBuf );

  00032	8b 86 58 a4 01
	00		 mov	 eax, DWORD PTR [esi+107608]
  00038	85 c0		 test	 eax, eax
  0003a	74 1a		 je	 SHORT $LN8@Destroy
  0003c	6a 7d		 push	 125			; 0000007dH
  0003e	68 00 00 00 00	 push	 OFFSET ??_C@_0GI@CPAALLND@E?3?2Proyectos?2JuegosOnlineproyec@
  00043	50		 push	 eax
  00044	e8 00 00 00 00	 call	 ?FreeTool@i3mem@@YAXPAXPBDH@Z ; i3mem::FreeTool
  00049	83 c4 0c	 add	 esp, 12			; 0000000cH
  0004c	c7 86 58 a4 01
	00 00 00 00 00	 mov	 DWORD PTR [esi+107608], 0
$LN8@Destroy:

; 126  : 
; 127  : 	ResetArguments();
; 128  : }

  00056	c7 86 54 a4 01
	00 00 00 00 00	 mov	 DWORD PTR [esi+107604], 0
  00060	5e		 pop	 esi
  00061	c3		 ret	 0
?Destroy@i3NetworkHTTP@@QAEXXZ ENDP			; i3NetworkHTTP::Destroy
_TEXT	ENDS
; Function compile flags: /Ogtp
; File E:\Proyectos\JuegosOnlineproyectos\PB\pbblow\Piercing Blow Remake\i3Server\src\i3Base\i3NetworkHTTP.cpp
; File E:\Proyectos\JuegosOnlineproyectos\PB\pbblow\Piercing Blow Remake\i3Server\include\i3Base\i3Memory.h
; File E:\Proyectos\JuegosOnlineproyectos\PB\pbblow\Piercing Blow Remake\i3Server\src\i3Base\i3NetworkHTTP.cpp
; File C:\Program Files (x86)\Windows Kits\10\Include\10.0.26100.0\um\winnt.h
; File E:\Proyectos\JuegosOnlineproyectos\PB\pbblow\Piercing Blow Remake\i3Server\src\i3Base\i3NetworkHTTP.cpp
;	COMDAT ?CreateMethod@i3NetworkHTTP@@QAEXIIIII@Z
_TEXT	SEGMENT
_nRestartCount$ = 8					; size = 4
_nRestartSleep$ = 12					; size = 4
_nReloadCount$ = 16					; size = 4
_nReloadTimeout$ = 20					; size = 4
_nBufferSize$ = 24					; size = 4
?CreateMethod@i3NetworkHTTP@@QAEXIIIII@Z PROC		; i3NetworkHTTP::CreateMethod, COMDAT
; _this$ = ecx

; 99   : {

  00000	55		 push	 ebp
  00001	8b ec		 mov	 ebp, esp

; 100  : 	// nRestartCount	= ŔçÁ˘ĽÓ Č˝Ľö (Á˘ĽÓ ˝ÇĆĐ˝Ă ł»şÎżˇĽ­ ´Ů˝Ă Á˘ĽÓŔ» ˝ĂµµÇŐ´Ď´Ů. )
; 101  : 	// nRestartTime		= ŔçÁ˘ĽÓ ˝Ă°Ł°Ł°Ý ( ŔĚ˝Ă°Ł¸¶´Ů ŔçÁ˘ĽÓŔ» ˝ĂµµÇŐ´Ď´Ů )
; 102  : 	// nReloadCount		= Ŕç˝Ăµµ Č˝Ľö ( ĆÄŔĎŔ» ´Ů˝Ă ąŢµµ·Ď ˝ĂµµÇĎ´Â Č˝Ľö )
; 103  : 	// nTimeoutCount	= Ĺ¸ŔÓľĆżô˝Ă°Ł ( ŔĚ°Ł°ÝµżľČ ąŢÁö¸řÇĎ°ĹłŞ »çŔĚÁî°ˇ °čĽÓ 0ŔĚ¸é Ŕç˝ĂµµÇŐ´Ď´Ů. )
; 104  : 
; 105  : 	m_nTotalRestart		= nRestartCount;

  00003	8b 45 08	 mov	 eax, DWORD PTR _nRestartCount$[ebp]
  00006	56		 push	 esi
  00007	8b f1		 mov	 esi, ecx

; 115  : 	m_pReadBuf = (char *) i3MemAlloc( m_nReadBufSize );

  00009	6a 73		 push	 115			; 00000073H
  0000b	68 00 00 00 00	 push	 OFFSET ??_C@_0GI@CPAALLND@E?3?2Proyectos?2JuegosOnlineproyec@
  00010	6a 10		 push	 16			; 00000010H
  00012	89 86 74 a4 01
	00		 mov	 DWORD PTR [esi+107636], eax
  00018	8b 45 10	 mov	 eax, DWORD PTR _nReloadCount$[ebp]
  0001b	89 86 6c a4 01
	00		 mov	 DWORD PTR [esi+107628], eax
  00021	8b 45 0c	 mov	 eax, DWORD PTR _nRestartSleep$[ebp]
  00024	89 86 7c a4 01
	00		 mov	 DWORD PTR [esi+107644], eax
  0002a	8b 45 14	 mov	 eax, DWORD PTR _nReloadTimeout$[ebp]
  0002d	89 86 80 a4 01
	00		 mov	 DWORD PTR [esi+107648], eax
  00033	8b 45 18	 mov	 eax, DWORD PTR _nBufferSize$[ebp]
  00036	6a 00		 push	 0
  00038	50		 push	 eax
  00039	c7 86 8c a4 01
	00 00 00 00 00	 mov	 DWORD PTR [esi+107660], 0
  00043	89 86 5c a4 01
	00		 mov	 DWORD PTR [esi+107612], eax
  00049	e8 00 00 00 00	 call	 ?AllocTool@i3mem@@YAPAXHHHPBDH@Z ; i3mem::AllocTool
; File E:\Proyectos\JuegosOnlineproyectos\PB\pbblow\Piercing Blow Remake\i3Server\include\i3Base\i3Memory.h

; 144  : 			::SecureZeroMemory( pDest, sz);

  0004e	8b 8e 5c a4 01
	00		 mov	 ecx, DWORD PTR [esi+107612]
; File E:\Proyectos\JuegosOnlineproyectos\PB\pbblow\Piercing Blow Remake\i3Server\src\i3Base\i3NetworkHTTP.cpp

; 115  : 	m_pReadBuf = (char *) i3MemAlloc( m_nReadBufSize );

  00054	83 c4 14	 add	 esp, 20			; 00000014H
  00057	89 86 58 a4 01
	00		 mov	 DWORD PTR [esi+107608], eax
; File C:\Program Files (x86)\Windows Kits\10\Include\10.0.26100.0\um\winnt.h

; 23421:     while (cnt) {

  0005d	85 c9		 test	 ecx, ecx
  0005f	74 0b		 je	 SHORT $LN13@CreateMeth
$LL6@CreateMeth:

; 23422: 
; 23423: #if !defined(_M_CEE) && (defined(_M_ARM) || defined(_M_ARM64) || defined(_M_ARM64EC))
; 23424: 
; 23425:         __iso_volatile_store8(vptr, 0);
; 23426: 
; 23427: #else
; 23428: 
; 23429:         *vptr = 0;

  00061	c6 00 00	 mov	 BYTE PTR [eax], 0

; 23430: 
; 23431: #endif
; 23432: 
; 23433:         vptr++;

  00064	8d 40 01	 lea	 eax, DWORD PTR [eax+1]

; 23434:         cnt--;

  00067	83 e9 01	 sub	 ecx, 1
  0006a	75 f5		 jne	 SHORT $LL6@CreateMeth
$LN13@CreateMeth:
; File E:\Proyectos\JuegosOnlineproyectos\PB\pbblow\Piercing Blow Remake\i3Server\src\i3Base\i3NetworkHTTP.cpp

; 119  : }

  0006c	c7 86 64 a4 01
	00 00 00 00 00	 mov	 DWORD PTR [esi+107620], 0
  00076	5e		 pop	 esi
  00077	5d		 pop	 ebp
  00078	c2 14 00	 ret	 20			; 00000014H
?CreateMethod@i3NetworkHTTP@@QAEXIIIII@Z ENDP		; i3NetworkHTTP::CreateMethod
_TEXT	ENDS
; Function compile flags: /Ogtp
; File E:\Proyectos\JuegosOnlineproyectos\PB\pbblow\Piercing Blow Remake\i3Server\src\i3Base\i3NetworkHTTP.cpp
;	COMDAT ?ConvertMD5@i3NetworkHTTP@@QAEXPAD0@Z
_TEXT	SEGMENT
_code$ = -20						; size = 16
__$ArrayPad$ = -4					; size = 4
_pOutputString$ = 8					; size = 4
_pInputString$ = 12					; size = 4
?ConvertMD5@i3NetworkHTTP@@QAEXPAD0@Z PROC		; i3NetworkHTTP::ConvertMD5, COMDAT
; _this$ = ecx

; 965  : {

  00000	55		 push	 ebp
  00001	8b ec		 mov	 ebp, esp
  00003	83 ec 14	 sub	 esp, 20			; 00000014H
  00006	a1 00 00 00 00	 mov	 eax, DWORD PTR ___security_cookie
  0000b	33 c5		 xor	 eax, ebp
  0000d	89 45 fc	 mov	 DWORD PTR __$ArrayPad$[ebp], eax
  00010	56		 push	 esi
  00011	8b 75 0c	 mov	 esi, DWORD PTR _pInputString$[ebp]

; 966  : 	UINT128 code;
; 967  : 
; 968  : 	i3MD5::Gen( pInputString, i3String::Length( pInputString), (char *)&code);

  00014	8d 45 ec	 lea	 eax, DWORD PTR _code$[ebp]
  00017	57		 push	 edi
  00018	8b 7d 08	 mov	 edi, DWORD PTR _pOutputString$[ebp]
  0001b	50		 push	 eax
  0001c	56		 push	 esi
  0001d	e8 00 00 00 00	 call	 ?Length@i3String@@YAHPBD@Z ; i3String::Length
  00022	83 c4 04	 add	 esp, 4
  00025	50		 push	 eax
  00026	56		 push	 esi
  00027	e8 00 00 00 00	 call	 ?Gen@i3MD5@@YAXPADHQAD@Z ; i3MD5::Gen

; 969  : 	i3MD5::GetMD5String( pOutputString, code);	

  0002c	8b 45 ec	 mov	 eax, DWORD PTR _code$[ebp]
  0002f	51		 push	 ecx
  00030	8b cc		 mov	 ecx, esp
  00032	57		 push	 edi
  00033	89 01		 mov	 DWORD PTR [ecx], eax
  00035	8b 45 f0	 mov	 eax, DWORD PTR _code$[ebp+4]
  00038	89 41 04	 mov	 DWORD PTR [ecx+4], eax
  0003b	8b 45 f4	 mov	 eax, DWORD PTR _code$[ebp+8]
  0003e	89 41 08	 mov	 DWORD PTR [ecx+8], eax
  00041	8b 45 f8	 mov	 eax, DWORD PTR _code$[ebp+12]
  00044	89 41 0c	 mov	 DWORD PTR [ecx+12], eax
  00047	e8 00 00 00 00	 call	 ?GetMD5String@i3MD5@@YAXPADVUINT128@@@Z ; i3MD5::GetMD5String

; 970  : }

  0004c	8b 4d fc	 mov	 ecx, DWORD PTR __$ArrayPad$[ebp]
  0004f	83 c4 14	 add	 esp, 20			; 00000014H
  00052	33 cd		 xor	 ecx, ebp
  00054	5f		 pop	 edi
  00055	5e		 pop	 esi
  00056	e8 00 00 00 00	 call	 @__security_check_cookie@4
  0005b	8b e5		 mov	 esp, ebp
  0005d	5d		 pop	 ebp
  0005e	c2 08 00	 ret	 8
?ConvertMD5@i3NetworkHTTP@@QAEXPAD0@Z ENDP		; i3NetworkHTTP::ConvertMD5
_TEXT	ENDS
; Function compile flags: /Ogtp
; File E:\Proyectos\JuegosOnlineproyectos\PB\pbblow\Piercing Blow Remake\i3Server\src\i3Base\i3NetworkHTTP.cpp
;	COMDAT ?SetUpPostArguments@i3NetworkHTTP@@QAEXXZ
_TEXT	SEGMENT
_this$1$ = -8						; size = 4
tv190 = -4						; size = 4
?SetUpPostArguments@i3NetworkHTTP@@QAEXXZ PROC		; i3NetworkHTTP::SetUpPostArguments, COMDAT
; _this$ = ecx

; 952  : {

  00000	55		 push	 ebp
  00001	8b ec		 mov	 ebp, esp
  00003	83 ec 08	 sub	 esp, 8
  00006	8b c1		 mov	 eax, ecx
  00008	53		 push	 ebx
  00009	56		 push	 esi

; 953  : 	m_szPostArguments[0] = '\0';	
; 954  : 
; 955  : 	for( UINT32 i = 0; i < m_ArgumentArrayCount; i++)

  0000a	33 f6		 xor	 esi, esi
  0000c	89 45 f8	 mov	 DWORD PTR _this$1$[ebp], eax
  0000f	8d 98 32 0f 00
	00		 lea	 ebx, DWORD PTR [eax+3890]
  00015	c6 03 00	 mov	 BYTE PTR [ebx], 0
  00018	39 b0 54 a4 01
	00		 cmp	 DWORD PTR [eax+107604], esi
  0001e	76 66		 jbe	 SHORT $LN3@SetUpPostA
  00020	8d 88 8c 13 00
	00		 lea	 ecx, DWORD PTR [eax+5004]
  00026	05 8c 17 00 00	 add	 eax, 6028		; 0000178cH
  0002b	89 45 fc	 mov	 DWORD PTR tv190[ebp], eax
  0002e	57		 push	 edi
  0002f	90		 npad	 1
$LL4@SetUpPostA:

; 956  : 	{
; 957  : 		i3String::Concat( m_szPostArguments, m_ArgumentArray[i].szName);

  00030	69 fe 04 08 00
	00		 imul	 edi, esi, 2052
  00036	8d 04 39	 lea	 eax, DWORD PTR [ecx+edi]
  00039	50		 push	 eax
  0003a	53		 push	 ebx
  0003b	e8 00 00 00 00	 call	 ?Concat@i3String@@YAXPADPBD@Z ; i3String::Concat

; 958  : 		i3String::Concat( m_szPostArguments, "=");

  00040	68 00 00 00 00	 push	 OFFSET ??_C@_01NEMOKFLO@?$DN@
  00045	53		 push	 ebx
  00046	e8 00 00 00 00	 call	 ?Concat@i3String@@YAXPADPBD@Z ; i3String::Concat
  0004b	8b 45 fc	 mov	 eax, DWORD PTR tv190[ebp]
  0004e	03 c7		 add	 eax, edi

; 959  : 		i3String::Concat( m_szPostArguments, m_ArgumentArray[i].szValue);

  00050	50		 push	 eax
  00051	53		 push	 ebx
  00052	e8 00 00 00 00	 call	 ?Concat@i3String@@YAXPADPBD@Z ; i3String::Concat

; 960  : 		if( i !=  m_ArgumentArrayCount - 1) i3String::Concat( m_szPostArguments, "&");

  00057	8b 7d f8	 mov	 edi, DWORD PTR _this$1$[ebp]
  0005a	83 c4 18	 add	 esp, 24			; 00000018H
  0005d	8b 87 54 a4 01
	00		 mov	 eax, DWORD PTR [edi+107604]
  00063	48		 dec	 eax
  00064	3b f0		 cmp	 esi, eax
  00066	74 0e		 je	 SHORT $LN2@SetUpPostA
  00068	68 00 00 00 00	 push	 OFFSET ??_C@_01HNPIGOCE@?$CG@
  0006d	53		 push	 ebx
  0006e	e8 00 00 00 00	 call	 ?Concat@i3String@@YAXPADPBD@Z ; i3String::Concat
  00073	83 c4 08	 add	 esp, 8
$LN2@SetUpPostA:

; 953  : 	m_szPostArguments[0] = '\0';	
; 954  : 
; 955  : 	for( UINT32 i = 0; i < m_ArgumentArrayCount; i++)

  00076	46		 inc	 esi
  00077	8d 8f 8c 13 00
	00		 lea	 ecx, DWORD PTR [edi+5004]
  0007d	3b b7 54 a4 01
	00		 cmp	 esi, DWORD PTR [edi+107604]
  00083	72 ab		 jb	 SHORT $LL4@SetUpPostA
  00085	5f		 pop	 edi
$LN3@SetUpPostA:
  00086	5e		 pop	 esi

; 961  : 	}
; 962  : }

  00087	5b		 pop	 ebx
  00088	8b e5		 mov	 esp, ebp
  0008a	5d		 pop	 ebp
  0008b	c3		 ret	 0
?SetUpPostArguments@i3NetworkHTTP@@QAEXXZ ENDP		; i3NetworkHTTP::SetUpPostArguments
_TEXT	ENDS
; Function compile flags: /Ogtp
; File E:\Proyectos\JuegosOnlineproyectos\PB\pbblow\Piercing Blow Remake\i3Server\src\i3Base\i3NetworkHTTP.cpp
;	COMDAT ?AddArgument@i3NetworkHTTP@@QAEHPADPAEH@Z
_TEXT	SEGMENT
_pszName$ = 8						; size = 4
_pui8Value$ = 12					; size = 4
_i32Size$ = 16						; size = 4
?AddArgument@i3NetworkHTTP@@QAEHPADPAEH@Z PROC		; i3NetworkHTTP::AddArgument, COMDAT
; _this$ = ecx

; 928  : {

  00000	55		 push	 ebp
  00001	8b ec		 mov	 ebp, esp
  00003	53		 push	 ebx
  00004	8b d9		 mov	 ebx, ecx
  00006	56		 push	 esi
  00007	57		 push	 edi

; 929  : 	if( MAX_HTTP_ARGUMENT <= m_ArgumentArrayCount )	return FALSE;

  00008	8b 83 54 a4 01
	00		 mov	 eax, DWORD PTR [ebx+107604]
  0000e	83 f8 32	 cmp	 eax, 50			; 00000032H
  00011	0f 83 9d 00 00
	00		 jae	 $LN11@AddArgumen

; 930  : 
; 931  : 	i3String::Copy( m_ArgumentArray[m_ArgumentArrayCount].szName, pszName, MAX_HTTP_ARG_SIZE);

  00017	69 c0 04 08 00
	00		 imul	 eax, eax, 2052
  0001d	68 00 04 00 00	 push	 1024			; 00000400H
  00022	ff 75 08	 push	 DWORD PTR _pszName$[ebp]
  00025	05 8c 13 00 00	 add	 eax, 5004		; 0000138cH
  0002a	03 c3		 add	 eax, ebx
  0002c	50		 push	 eax
  0002d	e8 00 00 00 00	 call	 ?Copy@i3String@@YAXPADPBDH@Z ; i3String::Copy

; 932  : 	
; 933  : 	for( INT32 i = 0; i < i32Size; ++i )

  00032	33 ff		 xor	 edi, edi
  00034	83 c4 0c	 add	 esp, 12			; 0000000cH
  00037	39 7d 10	 cmp	 DWORD PTR _i32Size$[ebp], edi
  0003a	7e 51		 jle	 SHORT $LN3@AddArgumen
  0003c	8b 75 0c	 mov	 esi, DWORD PTR _pui8Value$[ebp]
  0003f	90		 npad	 1
$LL4@AddArgumen:

; 934  : 	{
; 935  : 		if( NULL == pui8Value )	return FALSE;

  00040	85 f6		 test	 esi, esi
  00042	74 70		 je	 SHORT $LN11@AddArgumen

; 936  : 
; 937  : 		if( i == 0 )

  00044	69 83 54 a4 01
	00 04 08 00 00	 imul	 eax, DWORD PTR [ebx+107604], 2052
  0004e	0f b6 0e	 movzx	 ecx, BYTE PTR [esi]
  00051	51		 push	 ecx
  00052	05 8c 17 00 00	 add	 eax, 6028		; 0000178cH
  00057	03 c3		 add	 eax, ebx
  00059	85 ff		 test	 edi, edi
  0005b	75 15		 jne	 SHORT $LN7@AddArgumen

; 938  : 			i3String::Format( m_ArgumentArray[m_ArgumentArrayCount].szValue, MAX_HTTP_ARG_SIZE, "%d", *pui8Value );

  0005d	68 00 00 00 00	 push	 OFFSET ??_C@_02DPKJAMEF@?$CFd@
  00062	68 00 04 00 00	 push	 1024			; 00000400H
  00067	50		 push	 eax
  00068	e8 00 00 00 00	 call	 ?Format@i3String@@YAHPADHPBDZZ ; i3String::Format
  0006d	83 c4 10	 add	 esp, 16			; 00000010H
  00070	eb 14		 jmp	 SHORT $LN8@AddArgumen
$LN7@AddArgumen:

; 939  : 		else
; 940  : 			i3String::Format( m_ArgumentArray[m_ArgumentArrayCount].szValue, MAX_HTTP_ARG_SIZE, "%s-%d", m_ArgumentArray[m_ArgumentArrayCount].szValue, *pui8Value );

  00072	50		 push	 eax
  00073	68 00 00 00 00	 push	 OFFSET ??_C@_05MKGBANIN@?$CFs?9?$CFd@
  00078	68 00 04 00 00	 push	 1024			; 00000400H
  0007d	50		 push	 eax
  0007e	e8 00 00 00 00	 call	 ?Format@i3String@@YAHPADHPBDZZ ; i3String::Format
  00083	83 c4 14	 add	 esp, 20			; 00000014H
$LN8@AddArgumen:

; 941  : 
; 942  : 		pui8Value++;

  00086	47		 inc	 edi
  00087	46		 inc	 esi
  00088	3b 7d 10	 cmp	 edi, DWORD PTR _i32Size$[ebp]
  0008b	7c b3		 jl	 SHORT $LL4@AddArgumen
$LN3@AddArgumen:

; 943  : 	}
; 944  : 	
; 945  : 	m_ArgumentArray[m_ArgumentArrayCount].dwType = i3NetworkHTTP::TYPE_POST_ARGUMENT_NORMAL;

  0008d	69 83 54 a4 01
	00 04 08 00 00	 imul	 eax, DWORD PTR [ebx+107604], 2052
  00097	5f		 pop	 edi

; 946  : 	m_ArgumentArrayCount++;
; 947  : 
; 948  : 	return TRUE;
; 949  : }

  00098	5e		 pop	 esi
  00099	c7 84 18 8c 1b
	00 00 01 00 00
	00		 mov	 DWORD PTR [eax+ebx+7052], 1
  000a4	b8 01 00 00 00	 mov	 eax, 1
  000a9	ff 83 54 a4 01
	00		 inc	 DWORD PTR [ebx+107604]
  000af	5b		 pop	 ebx
  000b0	5d		 pop	 ebp
  000b1	c2 0c 00	 ret	 12			; 0000000cH
$LN11@AddArgumen:
  000b4	5f		 pop	 edi
  000b5	5e		 pop	 esi
  000b6	33 c0		 xor	 eax, eax
  000b8	5b		 pop	 ebx
  000b9	5d		 pop	 ebp
  000ba	c2 0c 00	 ret	 12			; 0000000cH
?AddArgument@i3NetworkHTTP@@QAEHPADPAEH@Z ENDP		; i3NetworkHTTP::AddArgument
_TEXT	ENDS
; Function compile flags: /Ogtp
; File E:\Proyectos\JuegosOnlineproyectos\PB\pbblow\Piercing Blow Remake\i3Server\src\i3Base\i3NetworkHTTP.cpp
;	COMDAT ?AddArgument@i3NetworkHTTP@@QAEHPADK@Z
_TEXT	SEGMENT
_pszName$ = 8						; size = 4
_dwValue$ = 12						; size = 4
?AddArgument@i3NetworkHTTP@@QAEHPADK@Z PROC		; i3NetworkHTTP::AddArgument, COMDAT
; _this$ = ecx

; 916  : {

  00000	55		 push	 ebp
  00001	8b ec		 mov	 ebp, esp
  00003	56		 push	 esi
  00004	8b f1		 mov	 esi, ecx

; 917  : 	if( MAX_HTTP_ARGUMENT <= m_ArgumentArrayCount )	return FALSE;

  00006	8b 86 54 a4 01
	00		 mov	 eax, DWORD PTR [esi+107604]
  0000c	83 f8 32	 cmp	 eax, 50			; 00000032H
  0000f	72 07		 jb	 SHORT $LN2@AddArgumen
  00011	33 c0		 xor	 eax, eax
  00013	5e		 pop	 esi

; 925  : }

  00014	5d		 pop	 ebp
  00015	c2 08 00	 ret	 8
$LN2@AddArgumen:

; 918  : 
; 919  : 	i3String::Copy( m_ArgumentArray[m_ArgumentArrayCount].szName, pszName, MAX_HTTP_ARG_SIZE);

  00018	69 c0 04 08 00
	00		 imul	 eax, eax, 2052
  0001e	68 00 04 00 00	 push	 1024			; 00000400H
  00023	ff 75 08	 push	 DWORD PTR _pszName$[ebp]
  00026	05 8c 13 00 00	 add	 eax, 5004		; 0000138cH
  0002b	03 c6		 add	 eax, esi
  0002d	50		 push	 eax
  0002e	e8 00 00 00 00	 call	 ?Copy@i3String@@YAXPADPBDH@Z ; i3String::Copy

; 920  : 	i3String::Format( m_ArgumentArray[m_ArgumentArrayCount].szValue, MAX_HTTP_ARG_SIZE, "%lu", dwValue );

  00033	69 86 54 a4 01
	00 04 08 00 00	 imul	 eax, DWORD PTR [esi+107604], 2052
  0003d	ff 75 0c	 push	 DWORD PTR _dwValue$[ebp]
  00040	68 00 00 00 00	 push	 OFFSET ??_C@_03FKNCMABI@?$CFlu@
  00045	68 00 04 00 00	 push	 1024			; 00000400H
  0004a	05 8c 17 00 00	 add	 eax, 6028		; 0000178cH
  0004f	03 c6		 add	 eax, esi
  00051	50		 push	 eax
  00052	e8 00 00 00 00	 call	 ?Format@i3String@@YAHPADHPBDZZ ; i3String::Format

; 921  : 	m_ArgumentArray[m_ArgumentArrayCount].dwType = i3NetworkHTTP::TYPE_POST_ARGUMENT_NORMAL;

  00057	69 86 54 a4 01
	00 04 08 00 00	 imul	 eax, DWORD PTR [esi+107604], 2052
  00061	83 c4 1c	 add	 esp, 28			; 0000001cH
  00064	c7 84 30 8c 1b
	00 00 01 00 00
	00		 mov	 DWORD PTR [eax+esi+7052], 1

; 922  : 	m_ArgumentArrayCount++;
; 923  : 
; 924  : 	return TRUE;

  0006f	b8 01 00 00 00	 mov	 eax, 1
  00074	ff 86 54 a4 01
	00		 inc	 DWORD PTR [esi+107604]
  0007a	5e		 pop	 esi

; 925  : }

  0007b	5d		 pop	 ebp
  0007c	c2 08 00	 ret	 8
?AddArgument@i3NetworkHTTP@@QAEHPADK@Z ENDP		; i3NetworkHTTP::AddArgument
_TEXT	ENDS
; Function compile flags: /Ogtp
; File E:\Proyectos\JuegosOnlineproyectos\PB\pbblow\Piercing Blow Remake\i3Server\src\i3Base\i3NetworkHTTP.cpp
;	COMDAT ?AddArgument@i3NetworkHTTP@@QAEHPAD_J@Z
_TEXT	SEGMENT
_pszName$ = 8						; size = 4
_i64Value$ = 12						; size = 8
?AddArgument@i3NetworkHTTP@@QAEHPAD_J@Z PROC		; i3NetworkHTTP::AddArgument, COMDAT
; _this$ = ecx

; 904  : {

  00000	55		 push	 ebp
  00001	8b ec		 mov	 ebp, esp
  00003	56		 push	 esi
  00004	8b f1		 mov	 esi, ecx

; 905  : 	if( MAX_HTTP_ARGUMENT <= m_ArgumentArrayCount )	return FALSE;

  00006	8b 86 54 a4 01
	00		 mov	 eax, DWORD PTR [esi+107604]
  0000c	83 f8 32	 cmp	 eax, 50			; 00000032H
  0000f	72 07		 jb	 SHORT $LN2@AddArgumen
  00011	33 c0		 xor	 eax, eax
  00013	5e		 pop	 esi

; 913  : }

  00014	5d		 pop	 ebp
  00015	c2 0c 00	 ret	 12			; 0000000cH
$LN2@AddArgumen:

; 906  : 
; 907  : 	i3String::Copy( m_ArgumentArray[m_ArgumentArrayCount].szName, pszName, MAX_HTTP_ARG_SIZE);

  00018	69 c0 04 08 00
	00		 imul	 eax, eax, 2052
  0001e	68 00 04 00 00	 push	 1024			; 00000400H
  00023	ff 75 08	 push	 DWORD PTR _pszName$[ebp]
  00026	05 8c 13 00 00	 add	 eax, 5004		; 0000138cH
  0002b	03 c6		 add	 eax, esi
  0002d	50		 push	 eax
  0002e	e8 00 00 00 00	 call	 ?Copy@i3String@@YAXPADPBDH@Z ; i3String::Copy

; 908  : 	i3String::Format( m_ArgumentArray[m_ArgumentArrayCount].szValue, MAX_HTTP_ARG_SIZE, "%I64d", i64Value );

  00033	ff 75 10	 push	 DWORD PTR _i64Value$[ebp+4]
  00036	69 86 54 a4 01
	00 04 08 00 00	 imul	 eax, DWORD PTR [esi+107604], 2052
  00040	ff 75 0c	 push	 DWORD PTR _i64Value$[ebp]
  00043	68 00 00 00 00	 push	 OFFSET ??_C@_05LLAMLEHD@?$CFI64d@
  00048	68 00 04 00 00	 push	 1024			; 00000400H
  0004d	05 8c 17 00 00	 add	 eax, 6028		; 0000178cH
  00052	03 c6		 add	 eax, esi
  00054	50		 push	 eax
  00055	e8 00 00 00 00	 call	 ?Format@i3String@@YAHPADHPBDZZ ; i3String::Format

; 909  : 	m_ArgumentArray[m_ArgumentArrayCount].dwType = i3NetworkHTTP::TYPE_POST_ARGUMENT_NORMAL;

  0005a	69 86 54 a4 01
	00 04 08 00 00	 imul	 eax, DWORD PTR [esi+107604], 2052
  00064	83 c4 20	 add	 esp, 32			; 00000020H
  00067	c7 84 30 8c 1b
	00 00 01 00 00
	00		 mov	 DWORD PTR [eax+esi+7052], 1

; 910  : 	m_ArgumentArrayCount++;
; 911  : 
; 912  : 	return TRUE;

  00072	b8 01 00 00 00	 mov	 eax, 1
  00077	ff 86 54 a4 01
	00		 inc	 DWORD PTR [esi+107604]
  0007d	5e		 pop	 esi

; 913  : }

  0007e	5d		 pop	 ebp
  0007f	c2 0c 00	 ret	 12			; 0000000cH
?AddArgument@i3NetworkHTTP@@QAEHPAD_J@Z ENDP		; i3NetworkHTTP::AddArgument
_TEXT	ENDS
; Function compile flags: /Ogtp
; File E:\Proyectos\JuegosOnlineproyectos\PB\pbblow\Piercing Blow Remake\i3Server\src\i3Base\i3NetworkHTTP.cpp
;	COMDAT ?AddArgument@i3NetworkHTTP@@QAEHPADH@Z
_TEXT	SEGMENT
_pszName$ = 8						; size = 4
_nValue$ = 12						; size = 4
?AddArgument@i3NetworkHTTP@@QAEHPADH@Z PROC		; i3NetworkHTTP::AddArgument, COMDAT
; _this$ = ecx

; 892  : {

  00000	55		 push	 ebp
  00001	8b ec		 mov	 ebp, esp
  00003	56		 push	 esi
  00004	8b f1		 mov	 esi, ecx

; 893  : 	if( MAX_HTTP_ARGUMENT <= m_ArgumentArrayCount )	return FALSE;

  00006	8b 86 54 a4 01
	00		 mov	 eax, DWORD PTR [esi+107604]
  0000c	83 f8 32	 cmp	 eax, 50			; 00000032H
  0000f	72 07		 jb	 SHORT $LN2@AddArgumen
  00011	33 c0		 xor	 eax, eax
  00013	5e		 pop	 esi

; 901  : }

  00014	5d		 pop	 ebp
  00015	c2 08 00	 ret	 8
$LN2@AddArgumen:

; 894  : 
; 895  : 	i3String::Copy( m_ArgumentArray[m_ArgumentArrayCount].szName, pszName, MAX_HTTP_ARG_SIZE);

  00018	69 c0 04 08 00
	00		 imul	 eax, eax, 2052
  0001e	68 00 04 00 00	 push	 1024			; 00000400H
  00023	ff 75 08	 push	 DWORD PTR _pszName$[ebp]
  00026	05 8c 13 00 00	 add	 eax, 5004		; 0000138cH
  0002b	03 c6		 add	 eax, esi
  0002d	50		 push	 eax
  0002e	e8 00 00 00 00	 call	 ?Copy@i3String@@YAXPADPBDH@Z ; i3String::Copy

; 896  : 	i3String::Format( m_ArgumentArray[m_ArgumentArrayCount].szValue, MAX_HTTP_ARG_SIZE, "%d", nValue );

  00033	69 86 54 a4 01
	00 04 08 00 00	 imul	 eax, DWORD PTR [esi+107604], 2052
  0003d	ff 75 0c	 push	 DWORD PTR _nValue$[ebp]
  00040	68 00 00 00 00	 push	 OFFSET ??_C@_02DPKJAMEF@?$CFd@
  00045	68 00 04 00 00	 push	 1024			; 00000400H
  0004a	05 8c 17 00 00	 add	 eax, 6028		; 0000178cH
  0004f	03 c6		 add	 eax, esi
  00051	50		 push	 eax
  00052	e8 00 00 00 00	 call	 ?Format@i3String@@YAHPADHPBDZZ ; i3String::Format

; 897  : 	m_ArgumentArray[m_ArgumentArrayCount].dwType = i3NetworkHTTP::TYPE_POST_ARGUMENT_NORMAL;

  00057	69 86 54 a4 01
	00 04 08 00 00	 imul	 eax, DWORD PTR [esi+107604], 2052
  00061	83 c4 1c	 add	 esp, 28			; 0000001cH
  00064	c7 84 30 8c 1b
	00 00 01 00 00
	00		 mov	 DWORD PTR [eax+esi+7052], 1

; 898  : 	m_ArgumentArrayCount++;
; 899  : 
; 900  : 	return TRUE;

  0006f	b8 01 00 00 00	 mov	 eax, 1
  00074	ff 86 54 a4 01
	00		 inc	 DWORD PTR [esi+107604]
  0007a	5e		 pop	 esi

; 901  : }

  0007b	5d		 pop	 ebp
  0007c	c2 08 00	 ret	 8
?AddArgument@i3NetworkHTTP@@QAEHPADH@Z ENDP		; i3NetworkHTTP::AddArgument
_TEXT	ENDS
; Function compile flags: /Ogtp
; File E:\Proyectos\JuegosOnlineproyectos\PB\pbblow\Piercing Blow Remake\i3Server\src\i3Base\i3NetworkHTTP.cpp
; File E:\Proyectos\JuegosOnlineproyectos\PB\pbblow\Piercing Blow Remake\i3Server\include\i3Base\i3Memory.h
; File E:\Proyectos\JuegosOnlineproyectos\PB\pbblow\Piercing Blow Remake\i3Server\src\i3Base\i3NetworkHTTP.cpp
; File E:\Proyectos\JuegosOnlineproyectos\PB\pbblow\Piercing Blow Remake\i3Server\include\i3Base\i3Memory.h
; File E:\Proyectos\JuegosOnlineproyectos\PB\pbblow\Piercing Blow Remake\i3Server\src\i3Base\i3NetworkHTTP.cpp
; File E:\Proyectos\JuegosOnlineproyectos\PB\pbblow\Piercing Blow Remake\i3Server\include\i3Base\i3Memory.h
; File E:\Proyectos\JuegosOnlineproyectos\PB\pbblow\Piercing Blow Remake\i3Server\src\i3Base\i3NetworkHTTP.cpp
;	COMDAT ?AddArgument@i3NetworkHTTP@@QAEHPAD0@Z
_TEXT	SEGMENT
_pszName$ = 8						; size = 4
_pszValue$ = 12						; size = 4
?AddArgument@i3NetworkHTTP@@QAEHPAD0@Z PROC		; i3NetworkHTTP::AddArgument, COMDAT
; _this$ = ecx

; 852  : {

  00000	55		 push	 ebp
  00001	8b ec		 mov	 ebp, esp
  00003	53		 push	 ebx
  00004	8b d9		 mov	 ebx, ecx
  00006	56		 push	 esi
  00007	57		 push	 edi

; 853  : 	char* src = pszValue;

  00008	8b 7d 0c	 mov	 edi, DWORD PTR _pszValue$[ebp]

; 854  : 	char* dst = m_ArgumentArray[m_ArgumentArrayCount].szValue;

  0000b	8b 93 54 a4 01
	00		 mov	 edx, DWORD PTR [ebx+107604]
  00011	69 c2 04 08 00
	00		 imul	 eax, edx, 2052
  00017	03 c3		 add	 eax, ebx
  00019	8d b0 8c 17 00
	00		 lea	 esi, DWORD PTR [eax+6028]

; 855  : 
; 856  : 	if( MAX_HTTP_ARGUMENT <= m_ArgumentArrayCount )	return FALSE;

  0001f	83 fa 32	 cmp	 edx, 50			; 00000032H
  00022	72 09		 jb	 SHORT $LN6@AddArgumen

; 886  : 	m_ArgumentArrayCount++;
; 887  : 
; 888  : 	return TRUE;
; 889  : }

  00024	5f		 pop	 edi
  00025	5e		 pop	 esi
  00026	33 c0		 xor	 eax, eax
  00028	5b		 pop	 ebx
  00029	5d		 pop	 ebp
  0002a	c2 08 00	 ret	 8
$LN6@AddArgumen:

; 857  : 
; 858  : 	i3String::Copy( m_ArgumentArray[m_ArgumentArrayCount].szName, pszName, MAX_HTTP_ARG_SIZE);

  0002d	68 00 04 00 00	 push	 1024			; 00000400H
  00032	ff 75 08	 push	 DWORD PTR _pszName$[ebp]
  00035	05 8c 13 00 00	 add	 eax, 5004		; 0000138cH
  0003a	50		 push	 eax
  0003b	e8 00 00 00 00	 call	 ?Copy@i3String@@YAXPADPBDH@Z ; i3String::Copy

; 859  : 
; 860  : 	//ŔĎşÎ ĆŻĽöą®ŔÚżˇ ´ëÇŃ şŻČŻĂł¸®
; 861  : 	while( (*dst = *src) != '\0' )

  00040	8a 07		 mov	 al, BYTE PTR [edi]
  00042	83 c4 0c	 add	 esp, 12			; 0000000cH
  00045	88 06		 mov	 BYTE PTR [esi], al
  00047	84 c0		 test	 al, al
  00049	74 58		 je	 SHORT $LN3@AddArgumen
  0004b	eb 03 8d 49 00	 npad	 5
$LL2@AddArgumen:

; 862  : 	{
; 863  : 		switch(*src)

  00050	0f be 07	 movsx	 eax, BYTE PTR [edi]
  00053	83 e8 25	 sub	 eax, 37			; 00000025H
  00056	74 2d		 je	 SHORT $LN7@AddArgumen
  00058	83 e8 01	 sub	 eax, 1
  0005b	74 18		 je	 SHORT $LN8@AddArgumen
  0005d	83 e8 05	 sub	 eax, 5
  00060	74 03		 je	 SHORT $LN9@AddArgumen

; 877  : 		default:
; 878  : 			dst++;

  00062	46		 inc	 esi
  00063	eb 34		 jmp	 SHORT $LN4@AddArgumen
$LN9@AddArgumen:
; File E:\Proyectos\JuegosOnlineproyectos\PB\pbblow\Piercing Blow Remake\i3Server\include\i3Base\i3Memory.h

; 134  : 			::CopyMemory( pDest, pSrc, sz);

  00065	66 a1 00 00 00
	00		 mov	 ax, WORD PTR ??_C@_03KMPHGDJG@?$CF2B@
  0006b	66 89 06	 mov	 WORD PTR [esi], ax
  0006e	a0 02 00 00 00	 mov	 al, BYTE PTR ??_C@_03KMPHGDJG@?$CF2B@+2
; File E:\Proyectos\JuegosOnlineproyectos\PB\pbblow\Piercing Blow Remake\i3Server\src\i3Base\i3NetworkHTTP.cpp

; 876  : 			break;

  00073	eb 1e		 jmp	 SHORT $LN27@AddArgumen
$LN8@AddArgumen:
; File E:\Proyectos\JuegosOnlineproyectos\PB\pbblow\Piercing Blow Remake\i3Server\include\i3Base\i3Memory.h

; 134  : 			::CopyMemory( pDest, pSrc, sz);

  00075	66 a1 00 00 00
	00		 mov	 ax, WORD PTR ??_C@_03OHKENPGE@?$CF26@
  0007b	66 89 06	 mov	 WORD PTR [esi], ax
  0007e	a0 02 00 00 00	 mov	 al, BYTE PTR ??_C@_03OHKENPGE@?$CF26@+2
; File E:\Proyectos\JuegosOnlineproyectos\PB\pbblow\Piercing Blow Remake\i3Server\src\i3Base\i3NetworkHTTP.cpp

; 872  : 			break;

  00083	eb 0e		 jmp	 SHORT $LN27@AddArgumen
$LN7@AddArgumen:
; File E:\Proyectos\JuegosOnlineproyectos\PB\pbblow\Piercing Blow Remake\i3Server\include\i3Base\i3Memory.h

; 134  : 			::CopyMemory( pDest, pSrc, sz);

  00085	66 a1 00 00 00
	00		 mov	 ax, WORD PTR ??_C@_03MMIJIMKH@?$CF25@
  0008b	66 89 06	 mov	 WORD PTR [esi], ax
  0008e	a0 02 00 00 00	 mov	 al, BYTE PTR ??_C@_03MMIJIMKH@?$CF25@+2
$LN27@AddArgumen:
; File E:\Proyectos\JuegosOnlineproyectos\PB\pbblow\Piercing Blow Remake\i3Server\src\i3Base\i3NetworkHTTP.cpp

; 882  : 		src++;

  00093	88 46 02	 mov	 BYTE PTR [esi+2], al
  00096	83 c6 03	 add	 esi, 3
$LN4@AddArgumen:
  00099	8a 47 01	 mov	 al, BYTE PTR [edi+1]
  0009c	47		 inc	 edi
  0009d	88 06		 mov	 BYTE PTR [esi], al
  0009f	84 c0		 test	 al, al
  000a1	75 ad		 jne	 SHORT $LL2@AddArgumen
$LN3@AddArgumen:

; 883  : 	}
; 884  : 
; 885  : 	m_ArgumentArray[m_ArgumentArrayCount].dwType = i3NetworkHTTP::TYPE_POST_ARGUMENT_NORMAL;

  000a3	69 83 54 a4 01
	00 04 08 00 00	 imul	 eax, DWORD PTR [ebx+107604], 2052
  000ad	5f		 pop	 edi

; 886  : 	m_ArgumentArrayCount++;
; 887  : 
; 888  : 	return TRUE;
; 889  : }

  000ae	5e		 pop	 esi
  000af	c7 84 18 8c 1b
	00 00 01 00 00
	00		 mov	 DWORD PTR [eax+ebx+7052], 1
  000ba	b8 01 00 00 00	 mov	 eax, 1
  000bf	ff 83 54 a4 01
	00		 inc	 DWORD PTR [ebx+107604]
  000c5	5b		 pop	 ebx
  000c6	5d		 pop	 ebp
  000c7	c2 08 00	 ret	 8
?AddArgument@i3NetworkHTTP@@QAEHPAD0@Z ENDP		; i3NetworkHTTP::AddArgument
_TEXT	ENDS
; Function compile flags: /Ogtp
; File E:\Proyectos\JuegosOnlineproyectos\PB\pbblow\Piercing Blow Remake\i3Server\src\i3Base\i3NetworkHTTP.cpp
;	COMDAT ?ResetArguments@i3NetworkHTTP@@QAEXXZ
_TEXT	SEGMENT
?ResetArguments@i3NetworkHTTP@@QAEXXZ PROC		; i3NetworkHTTP::ResetArguments, COMDAT
; _this$ = ecx

; 848  : 	m_ArgumentArrayCount = 0;

  00000	c7 81 54 a4 01
	00 00 00 00 00	 mov	 DWORD PTR [ecx+107604], 0

; 849  : }

  0000a	c3		 ret	 0
?ResetArguments@i3NetworkHTTP@@QAEXXZ ENDP		; i3NetworkHTTP::ResetArguments
_TEXT	ENDS
; Function compile flags: /Ogtp
; File E:\Proyectos\JuegosOnlineproyectos\PB\pbblow\Piercing Blow Remake\i3Server\src\i3Base\i3NetworkHTTP.cpp
;	COMDAT ?ParseURL@i3NetworkHTTP@@QAEXPAD00AAG0@Z
_TEXT	SEGMENT
_this$GSCopy$1$ = -1052					; size = 4
_pszURI$GSCopy$1$ = -1048				; size = 4
_pszAddress$GSCopy$1$ = -1044				; size = 4
_nPort$GSCopy$1$ = -1040				; size = 4
_pszProtocol$GSCopy$1$ = -1036				; size = 4
_bFlag$1$ = -1032					; size = 4
tv311 = -1032						; size = 4
_sztmp$1 = -1028					; size = 1024
__$ArrayPad$ = -4					; size = 4
_pszURL$ = 8						; size = 4
_pszProtocol$ = 12					; size = 4
_pszAddress$ = 16					; size = 4
_nPort$ = 20						; size = 4
_pszURI$ = 24						; size = 4
?ParseURL@i3NetworkHTTP@@QAEXPAD00AAG0@Z PROC		; i3NetworkHTTP::ParseURL, COMDAT
; _this$ = ecx

; 771  : {

  00000	55		 push	 ebp
  00001	8b ec		 mov	 ebp, esp
  00003	81 ec 1c 04 00
	00		 sub	 esp, 1052		; 0000041cH
  00009	a1 00 00 00 00	 mov	 eax, DWORD PTR ___security_cookie
  0000e	33 c5		 xor	 eax, ebp
  00010	89 45 fc	 mov	 DWORD PTR __$ArrayPad$[ebp], eax
  00013	8b 45 0c	 mov	 eax, DWORD PTR _pszProtocol$[ebp]
  00016	53		 push	 ebx
  00017	89 85 f4 fb ff
	ff		 mov	 DWORD PTR _pszProtocol$GSCopy$1$[ebp], eax

; 772  : 	DWORD dwPosition=0;
; 773  : 	BOOL bFlag=FALSE;

  0001d	33 db		 xor	 ebx, ebx
  0001f	8b 45 10	 mov	 eax, DWORD PTR _pszAddress$[ebp]
  00022	56		 push	 esi
  00023	8b 75 08	 mov	 esi, DWORD PTR _pszURL$[ebp]
  00026	89 85 ec fb ff
	ff		 mov	 DWORD PTR _pszAddress$GSCopy$1$[ebp], eax
  0002c	8b 45 14	 mov	 eax, DWORD PTR _nPort$[ebp]
  0002f	57		 push	 edi
  00030	89 85 f0 fb ff
	ff		 mov	 DWORD PTR _nPort$GSCopy$1$[ebp], eax
  00036	33 ff		 xor	 edi, edi
  00038	8b 45 18	 mov	 eax, DWORD PTR _pszURI$[ebp]

; 774  : 
; 775  : 	while( i3String::Length(pszURL) > 0 && dwPosition < (DWORD)i3String::Length(pszURL) && i3String::NCompare((pszURL+dwPosition), ":", 1))

  0003b	56		 push	 esi
  0003c	89 8d e4 fb ff
	ff		 mov	 DWORD PTR _this$GSCopy$1$[ebp], ecx
  00042	89 85 e8 fb ff
	ff		 mov	 DWORD PTR _pszURI$GSCopy$1$[ebp], eax
  00048	e8 00 00 00 00	 call	 ?Length@i3String@@YAHPBD@Z ; i3String::Length
  0004d	83 c4 04	 add	 esp, 4
  00050	85 c0		 test	 eax, eax
  00052	7e 32		 jle	 SHORT $LN34@ParseURL
$LL2@ParseURL:
  00054	56		 push	 esi
  00055	e8 00 00 00 00	 call	 ?Length@i3String@@YAHPBD@Z ; i3String::Length
  0005a	83 c4 04	 add	 esp, 4
  0005d	3b f8		 cmp	 edi, eax
  0005f	73 25		 jae	 SHORT $LN34@ParseURL
  00061	6a 01		 push	 1
  00063	8d 04 3e	 lea	 eax, DWORD PTR [esi+edi]
  00066	68 00 00 00 00	 push	 OFFSET ??_C@_01JLIPDDHJ@?3@
  0006b	50		 push	 eax
  0006c	e8 00 00 00 00	 call	 ?NCompare@i3String@@YAHPBD0H@Z ; i3String::NCompare
  00071	83 c4 0c	 add	 esp, 12			; 0000000cH
  00074	85 c0		 test	 eax, eax
  00076	74 0e		 je	 SHORT $LN34@ParseURL
  00078	56		 push	 esi

; 776  : 		++dwPosition;

  00079	47		 inc	 edi
  0007a	e8 00 00 00 00	 call	 ?Length@i3String@@YAHPBD@Z ; i3String::Length
  0007f	83 c4 04	 add	 esp, 4
  00082	85 c0		 test	 eax, eax
  00084	7f ce		 jg	 SHORT $LL2@ParseURL
$LN34@ParseURL:

; 777  : 
; 778  : 	if( !i3String::NCompare((pszURL+dwPosition+1), "/", 1))

  00086	6a 01		 push	 1
  00088	8d 46 01	 lea	 eax, DWORD PTR [esi+1]
  0008b	03 c7		 add	 eax, edi
  0008d	68 00 00 00 00	 push	 OFFSET ??_C@_01KMDKNFGN@?1@
  00092	50		 push	 eax
  00093	e8 00 00 00 00	 call	 ?NCompare@i3String@@YAHPBD0H@Z ; i3String::NCompare
  00098	83 c4 0c	 add	 esp, 12			; 0000000cH
  0009b	85 c0		 test	 eax, eax
  0009d	75 19		 jne	 SHORT $LN9@ParseURL

; 779  : 	{	
; 780  : 		// is PROTOCOL
; 781  : 		i3String::NCopy(pszProtocol, pszURL, dwPosition);

  0009f	8b 9d f4 fb ff
	ff		 mov	 ebx, DWORD PTR _pszProtocol$GSCopy$1$[ebp]
  000a5	57		 push	 edi
  000a6	56		 push	 esi
  000a7	53		 push	 ebx
  000a8	e8 00 00 00 00	 call	 ?NCopy@i3String@@YAXPADPBDH@Z ; i3String::NCopy

; 782  : 		pszProtocol[dwPosition]=0;

  000ad	c6 04 3b 00	 mov	 BYTE PTR [ebx+edi], 0

; 783  : 		bFlag=TRUE;

  000b1	bb 01 00 00 00	 mov	 ebx, 1

; 784  : 	}

  000b6	eb 1b		 jmp	 SHORT $LN51@ParseURL
$LN9@ParseURL:

; 785  : 	else
; 786  : 	{	
; 787  : 		// is HOST 
; 788  : 		i3String::NCopy(pszProtocol, "http", 4);

  000b8	6a 04		 push	 4
  000ba	68 00 00 00 00	 push	 OFFSET ??_C@_04IAFLKNP@http@
  000bf	ff b5 f4 fb ff
	ff		 push	 DWORD PTR _pszProtocol$GSCopy$1$[ebp]
  000c5	e8 00 00 00 00	 call	 ?NCopy@i3String@@YAXPADPBDH@Z ; i3String::NCopy

; 789  : 		pszProtocol[5]=0;

  000ca	8b 85 f4 fb ff
	ff		 mov	 eax, DWORD PTR _pszProtocol$GSCopy$1$[ebp]
  000d0	88 58 05	 mov	 BYTE PTR [eax+5], bl
$LN51@ParseURL:

; 790  : 	}
; 791  : 
; 792  : 	DWORD dwStartPosition=0;	
; 793  : 	if(bFlag)	dwStartPosition=dwPosition+=3;				
; 794  : 	else		dwStartPosition=dwPosition=0;
; 795  : 
; 796  : 	bFlag=FALSE;

  000d3	83 c4 0c	 add	 esp, 12			; 0000000cH
  000d6	8d 47 03	 lea	 eax, DWORD PTR [edi+3]
  000d9	f7 db		 neg	 ebx
  000db	1b db		 sbb	 ebx, ebx
  000dd	23 d8		 and	 ebx, eax

; 797  : 	while( i3String::Length(pszURL) > 0 && dwPosition < (DWORD)i3String::Length(pszURL) && i3String::NCompare((pszURL+dwPosition), "/", 1))

  000df	56		 push	 esi
  000e0	89 9d f8 fb ff
	ff		 mov	 DWORD PTR _bFlag$1$[ebp], ebx
  000e6	8b fb		 mov	 edi, ebx
  000e8	e8 00 00 00 00	 call	 ?Length@i3String@@YAHPBD@Z ; i3String::Length
  000ed	83 c4 04	 add	 esp, 4
  000f0	85 c0		 test	 eax, eax
  000f2	7e 32		 jle	 SHORT $LN35@ParseURL
$LL4@ParseURL:
  000f4	56		 push	 esi
  000f5	e8 00 00 00 00	 call	 ?Length@i3String@@YAHPBD@Z ; i3String::Length
  000fa	83 c4 04	 add	 esp, 4
  000fd	3b f8		 cmp	 edi, eax
  000ff	73 25		 jae	 SHORT $LN35@ParseURL
  00101	6a 01		 push	 1
  00103	8d 04 3e	 lea	 eax, DWORD PTR [esi+edi]
  00106	68 00 00 00 00	 push	 OFFSET ??_C@_01KMDKNFGN@?1@
  0010b	50		 push	 eax
  0010c	e8 00 00 00 00	 call	 ?NCompare@i3String@@YAHPBD0H@Z ; i3String::NCompare
  00111	83 c4 0c	 add	 esp, 12			; 0000000cH
  00114	85 c0		 test	 eax, eax
  00116	74 0e		 je	 SHORT $LN35@ParseURL
  00118	56		 push	 esi

; 798  : 			++dwPosition;

  00119	47		 inc	 edi
  0011a	e8 00 00 00 00	 call	 ?Length@i3String@@YAHPBD@Z ; i3String::Length
  0011f	83 c4 04	 add	 esp, 4
  00122	85 c0		 test	 eax, eax
  00124	7f ce		 jg	 SHORT $LL4@ParseURL
$LN35@ParseURL:

; 799  : 
; 800  : 	DWORD dwFind = dwStartPosition;
; 801  : 
; 802  : 	for( ; dwFind <= dwPosition ; dwFind++)

  00126	3b df		 cmp	 ebx, edi
  00128	77 22		 ja	 SHORT $LN36@ParseURL
  0012a	8d 9b 00 00 00
	00		 npad	 6
$LL8@ParseURL:

; 803  : 	{
; 804  : 		if( !i3String::NCompare( (pszURL+dwFind), ":", 1))

  00130	6a 01		 push	 1
  00132	8d 04 1e	 lea	 eax, DWORD PTR [esi+ebx]
  00135	68 00 00 00 00	 push	 OFFSET ??_C@_01JLIPDDHJ@?3@
  0013a	50		 push	 eax
  0013b	e8 00 00 00 00	 call	 ?NCompare@i3String@@YAHPBD0H@Z ; i3String::NCompare
  00140	83 c4 0c	 add	 esp, 12			; 0000000cH
  00143	85 c0		 test	 eax, eax
  00145	74 6e		 je	 SHORT $LN24@ParseURL

; 799  : 
; 800  : 	DWORD dwFind = dwStartPosition;
; 801  : 
; 802  : 	for( ; dwFind <= dwPosition ; dwFind++)

  00147	43		 inc	 ebx
  00148	3b df		 cmp	 ebx, edi
  0014a	76 e4		 jbe	 SHORT $LL8@ParseURL
$LN36@ParseURL:

; 808  : 			break;
; 809  : 		}
; 810  : 	}
; 811  : 
; 812  : 	if( bFlag)

  0014c	33 c0		 xor	 eax, eax
$LN7@ParseURL:
  0014e	85 c0		 test	 eax, eax
  00150	74 6a		 je	 SHORT $LN14@ParseURL

; 813  : 	{
; 814  : 		char sztmp[_TEXT_BUFFER_SIZE] = "";

  00152	68 ff 03 00 00	 push	 1023			; 000003ffH
  00157	8d 85 fd fb ff
	ff		 lea	 eax, DWORD PTR _sztmp$1[ebp+1]
  0015d	c6 85 fc fb ff
	ff 00		 mov	 BYTE PTR _sztmp$1[ebp], 0
  00164	6a 00		 push	 0
  00166	50		 push	 eax
  00167	e8 00 00 00 00	 call	 _memset

; 815  : 		i3String::NCopy( sztmp, (pszURL+dwFind+1), ((dwPosition-1) - dwFind));

  0016c	8b c7		 mov	 eax, edi
  0016e	2b c3		 sub	 eax, ebx
  00170	48		 dec	 eax
  00171	50		 push	 eax
  00172	8d 46 01	 lea	 eax, DWORD PTR [esi+1]
  00175	03 c3		 add	 eax, ebx
  00177	50		 push	 eax
  00178	8d 85 fc fb ff
	ff		 lea	 eax, DWORD PTR _sztmp$1[ebp]
  0017e	50		 push	 eax
  0017f	e8 00 00 00 00	 call	 ?NCopy@i3String@@YAXPADPBDH@Z ; i3String::NCopy

; 816  : 		nPort = (UINT16)i3String::ToInt(sztmp);

  00184	8d 85 fc fb ff
	ff		 lea	 eax, DWORD PTR _sztmp$1[ebp]
  0018a	50		 push	 eax
  0018b	e8 00 00 00 00	 call	 ?ToInt@i3String@@YAHPBD@Z ; i3String::ToInt
  00190	8b 8d f0 fb ff
	ff		 mov	 ecx, DWORD PTR _nPort$GSCopy$1$[ebp]
  00196	66 89 01	 mov	 WORD PTR [ecx], ax

; 817  : 		i3String::NCopy(pszAddress, (pszURL+dwStartPosition), dwFind-dwStartPosition);

  00199	8b 85 f8 fb ff
	ff		 mov	 eax, DWORD PTR _bFlag$1$[ebp]
  0019f	2b d8		 sub	 ebx, eax
  001a1	53		 push	 ebx
  001a2	03 c6		 add	 eax, esi
  001a4	50		 push	 eax
  001a5	ff b5 ec fb ff
	ff		 push	 DWORD PTR _pszAddress$GSCopy$1$[ebp]
  001ab	e8 00 00 00 00	 call	 ?NCopy@i3String@@YAXPADPBDH@Z ; i3String::NCopy
  001b0	83 c4 28	 add	 esp, 40			; 00000028H

; 818  : 	}

  001b3	eb 72		 jmp	 SHORT $LN17@ParseURL
$LN24@ParseURL:

; 805  : 		{ 
; 806  : 			// find PORT
; 807  : 			bFlag=TRUE;

  001b5	b8 01 00 00 00	 mov	 eax, 1
  001ba	eb 92		 jmp	 SHORT $LN7@ParseURL
$LN14@ParseURL:

; 819  : 	else if( !i3String::Compare(pszProtocol,"https"))

  001bc	8b 85 f8 fb ff
	ff		 mov	 eax, DWORD PTR _bFlag$1$[ebp]
  001c2	8b df		 mov	 ebx, edi
  001c4	2b d8		 sub	 ebx, eax
  001c6	03 c6		 add	 eax, esi
  001c8	68 00 00 00 00	 push	 OFFSET ??_C@_05BCHGOAMK@https@
  001cd	ff b5 f4 fb ff
	ff		 push	 DWORD PTR _pszProtocol$GSCopy$1$[ebp]
  001d3	89 85 f8 fb ff
	ff		 mov	 DWORD PTR tv311[ebp], eax
  001d9	e8 00 00 00 00	 call	 ?Compare@i3String@@YAHPBD0@Z ; i3String::Compare
  001de	8b 8d f0 fb ff
	ff		 mov	 ecx, DWORD PTR _nPort$GSCopy$1$[ebp]
  001e4	83 c4 08	 add	 esp, 8
  001e7	53		 push	 ebx
  001e8	ff b5 f8 fb ff
	ff		 push	 DWORD PTR tv311[ebp]
  001ee	ff b5 ec fb ff
	ff		 push	 DWORD PTR _pszAddress$GSCopy$1$[ebp]
  001f4	85 c0		 test	 eax, eax
  001f6	75 1f		 jne	 SHORT $LN16@ParseURL

; 820  : 	{
; 821  : 		nPort = INTERNET_DEFAULT_HTTPS_PORT;

  001f8	b8 bb 01 00 00	 mov	 eax, 443		; 000001bbH
  001fd	66 89 01	 mov	 WORD PTR [ecx], ax

; 822  : 		i3String::NCopy( pszAddress, (pszURL+dwStartPosition), dwPosition-dwStartPosition);

  00200	e8 00 00 00 00	 call	 ?NCopy@i3String@@YAXPADPBDH@Z ; i3String::NCopy

; 823  : 		
; 824  : 		// HTTPSÇÁ·ÎĹäÄÝŔĚ¶ó¸é, ÇĂ·ˇ±×¸¦ Ăß°ˇÇŐ´Ď´Ů.
; 825  : 		m_OpenRequestFlag |= INTERNET_FLAG_SECURE;

  00205	8b 85 e4 fb ff
	ff		 mov	 eax, DWORD PTR _this$GSCopy$1$[ebp]
  0020b	83 c4 0c	 add	 esp, 12			; 0000000cH
  0020e	81 48 20 00 00
	80 00		 or	 DWORD PTR [eax+32], 8388608 ; 00800000H

; 826  : 	}

  00215	eb 10		 jmp	 SHORT $LN17@ParseURL
$LN16@ParseURL:

; 827  : 	else 
; 828  : 	{
; 829  : 		nPort = INTERNET_DEFAULT_HTTP_PORT;

  00217	b8 50 00 00 00	 mov	 eax, 80			; 00000050H
  0021c	66 89 01	 mov	 WORD PTR [ecx], ax

; 830  : 		i3String::NCopy( pszAddress, (pszURL+dwStartPosition), dwPosition-dwStartPosition);

  0021f	e8 00 00 00 00	 call	 ?NCopy@i3String@@YAXPADPBDH@Z ; i3String::NCopy
  00224	83 c4 0c	 add	 esp, 12			; 0000000cH
$LN17@ParseURL:

; 831  : 	}
; 832  : 
; 833  : 	if( dwPosition < (DWORD)i3String::Length(pszURL))

  00227	56		 push	 esi
  00228	e8 00 00 00 00	 call	 ?Length@i3String@@YAHPBD@Z ; i3String::Length
  0022d	83 c4 04	 add	 esp, 4
  00230	3b f8		 cmp	 edi, eax
  00232	73 2f		 jae	 SHORT $LN18@ParseURL

; 834  : 	{
; 835  : 		// find URI
; 836  : 		i3String::NCopy( pszURI, (pszURL+dwPosition), i3String::Length(pszURL)-dwPosition);

  00234	56		 push	 esi
  00235	e8 00 00 00 00	 call	 ?Length@i3String@@YAHPBD@Z ; i3String::Length
  0023a	2b c7		 sub	 eax, edi
  0023c	50		 push	 eax
  0023d	8d 04 3e	 lea	 eax, DWORD PTR [esi+edi]
  00240	50		 push	 eax
  00241	8b 85 e8 fb ff
	ff		 mov	 eax, DWORD PTR _pszURI$GSCopy$1$[ebp]
  00247	50		 push	 eax
  00248	e8 00 00 00 00	 call	 ?NCopy@i3String@@YAXPADPBDH@Z ; i3String::NCopy
  0024d	83 c4 10	 add	 esp, 16			; 00000010H
  00250	5f		 pop	 edi

; 841  : 	}
; 842  : 
; 843  : 	return;
; 844  : }

  00251	5e		 pop	 esi
  00252	5b		 pop	 ebx
  00253	8b 4d fc	 mov	 ecx, DWORD PTR __$ArrayPad$[ebp]
  00256	33 cd		 xor	 ecx, ebp
  00258	e8 00 00 00 00	 call	 @__security_check_cookie@4
  0025d	8b e5		 mov	 esp, ebp
  0025f	5d		 pop	 ebp
  00260	c2 14 00	 ret	 20			; 00000014H
$LN18@ParseURL:

; 837  : 	}
; 838  : 	else
; 839  : 	{
; 840  : 		pszURI[0]=0;

  00263	8b 85 e8 fb ff
	ff		 mov	 eax, DWORD PTR _pszURI$GSCopy$1$[ebp]

; 841  : 	}
; 842  : 
; 843  : 	return;
; 844  : }

  00269	8b 4d fc	 mov	 ecx, DWORD PTR __$ArrayPad$[ebp]
  0026c	5f		 pop	 edi
  0026d	5e		 pop	 esi
  0026e	33 cd		 xor	 ecx, ebp
  00270	c6 00 00	 mov	 BYTE PTR [eax], 0
  00273	5b		 pop	 ebx
  00274	e8 00 00 00 00	 call	 @__security_check_cookie@4
  00279	8b e5		 mov	 esp, ebp
  0027b	5d		 pop	 ebp
  0027c	c2 14 00	 ret	 20			; 00000014H
?ParseURL@i3NetworkHTTP@@QAEXPAD00AAG0@Z ENDP		; i3NetworkHTTP::ParseURL
_TEXT	ENDS
; Function compile flags: /Ogtp
; File E:\Proyectos\JuegosOnlineproyectos\PB\pbblow\Piercing Blow Remake\i3Server\include\i3Base\i3NetworkHTTP.h
;	COMDAT ?GetRequestResult@i3NetworkHTTP@@QAEPADXZ
_TEXT	SEGMENT
?GetRequestResult@i3NetworkHTTP@@QAEPADXZ PROC		; i3NetworkHTTP::GetRequestResult, COMDAT
; _this$ = ecx

; 173  : 	char*	GetRequestResult(void)			{	return m_pReadBuf;	}

  00000	8b 81 58 a4 01
	00		 mov	 eax, DWORD PTR [ecx+107608]
  00006	c3		 ret	 0
?GetRequestResult@i3NetworkHTTP@@QAEPADXZ ENDP		; i3NetworkHTTP::GetRequestResult
_TEXT	ENDS
; Function compile flags: /Ogtp
; File E:\Proyectos\JuegosOnlineproyectos\PB\pbblow\Piercing Blow Remake\i3Server\src\i3Base\i3NetworkHTTP.cpp
;	COMDAT ?SendRequestGet@i3NetworkHTTP@@QAEHPAD@Z
_TEXT	SEGMENT
_strTemp$ = 8						; size = 4
?SendRequestGet@i3NetworkHTTP@@QAEHPAD@Z PROC		; i3NetworkHTTP::SendRequestGet, COMDAT
; _this$ = ecx

; 688  : {

  00000	55		 push	 ebp
  00001	8b ec		 mov	 ebp, esp
  00003	56		 push	 esi
  00004	8b f1		 mov	 esi, ecx
  00006	57		 push	 edi

; 689  : 	if( m_hHttp )

  00007	8b 3d 00 00 00
	00		 mov	 edi, DWORD PTR __imp__InternetCloseHandle@4
  0000d	8b 46 14	 mov	 eax, DWORD PTR [esi+20]
  00010	85 c0		 test	 eax, eax
  00012	74 0a		 je	 SHORT $LN2@SendReques

; 690  : 	{
; 691  : 		::InternetCloseHandle( m_hHttp );

  00014	50		 push	 eax
  00015	ff d7		 call	 edi

; 692  : 		m_hHttp = NULL;

  00017	c7 46 14 00 00
	00 00		 mov	 DWORD PTR [esi+20], 0
$LN2@SendReques:

; 693  : 	}
; 694  : 
; 695  : 	// Open URL
; 696  : 	m_hHttp = ::InternetOpenUrl( m_hInternet, strTemp, NULL, 0, INTERNET_FLAG_RELOAD | INTERNET_FLAG_NO_COOKIES | INTERNET_FLAG_NO_CACHE_WRITE , 0 );

  0001e	6a 00		 push	 0
  00020	68 00 00 08 84	 push	 -2079850496		; 84080000H
  00025	6a 00		 push	 0
  00027	6a 00		 push	 0
  00029	ff 75 08	 push	 DWORD PTR _strTemp$[ebp]
  0002c	ff 76 10	 push	 DWORD PTR [esi+16]
  0002f	ff 15 00 00 00
	00		 call	 DWORD PTR __imp__InternetOpenUrlA@24
  00035	89 46 14	 mov	 DWORD PTR [esi+20], eax

; 697  : 	if( NULL == m_hHttp )

  00038	85 c0		 test	 eax, eax
  0003a	75 4f		 jne	 SHORT $LN3@SendReques

; 698  : 	{
; 699  : 		// Error
; 700  : 		i3String::Copy( m_szLastError, "Cannot connect to internet", 1024);

  0003c	68 00 04 00 00	 push	 1024			; 00000400H
  00041	8d 86 98 a6 01
	00		 lea	 eax, DWORD PTR [esi+108184]
  00047	68 00 00 00 00	 push	 OFFSET ??_C@_0BL@EIHAOHFH@Cannot?5connect?5to?5internet@
  0004c	50		 push	 eax
  0004d	e8 00 00 00 00	 call	 ?Copy@i3String@@YAXPADPBDH@Z ; i3String::Copy
  00052	83 c4 0c	 add	 esp, 12			; 0000000cH

; 701  : 		m_nLastErrorCode = ::GetLastError();

  00055	ff 15 00 00 00
	00		 call	 DWORD PTR __imp__GetLastError@0
  0005b	89 86 98 aa 01
	00		 mov	 DWORD PTR [esi+109208], eax

; 270  : 	if( m_hHttp )

  00061	8b 46 14	 mov	 eax, DWORD PTR [esi+20]
  00064	85 c0		 test	 eax, eax
  00066	74 0a		 je	 SHORT $LN6@SendReques

; 271  : 	{
; 272  : 		::InternetCloseHandle( m_hHttp );

  00068	50		 push	 eax
  00069	ff d7		 call	 edi

; 273  : 		m_hHttp = NULL;

  0006b	c7 46 14 00 00
	00 00		 mov	 DWORD PTR [esi+20], 0
$LN6@SendReques:

; 274  : 	}
; 275  : 
; 276  : 	if( m_hInternet )

  00072	8b 46 10	 mov	 eax, DWORD PTR [esi+16]
  00075	85 c0		 test	 eax, eax
  00077	74 0a		 je	 SHORT $LN7@SendReques

; 277  : 	{
; 278  : 		::InternetCloseHandle( m_hInternet );

  00079	50		 push	 eax
  0007a	ff d7		 call	 edi

; 279  : 		m_hInternet = NULL;

  0007c	c7 46 10 00 00
	00 00		 mov	 DWORD PTR [esi+16], 0
$LN7@SendReques:
  00083	5f		 pop	 edi

; 702  : 		_DisConnectGET();
; 703  : 		return FALSE;

  00084	33 c0		 xor	 eax, eax

; 741  : }

  00086	5e		 pop	 esi
  00087	5d		 pop	 ebp
  00088	c2 04 00	 ret	 4
$LN3@SendReques:
  0008b	5f		 pop	 edi

; 704  : 	}
; 705  : 	//// Get File Size
; 706  : 	//{
; 707  : 	//	char pBuff[ 32 ];
; 708  : 	//	UINT32 nSize = sizeof( pBuff );
; 709  : 	//	char	pTypeBuf[ 32 ];
; 710  : 	//	UINT32	nTypeSize = sizeof( pTypeBuf );
; 711  : 	//	
; 712  : 	//	if( !::HttpQueryInfo( m_hHttp, HTTP_QUERY_CONTENT_LENGTH, pBuff, (LPDWORD)&nSize, NULL ) )
; 713  : 	//	{
; 714  : 	//		//
; 715  : 	//		_DisConnectGET();
; 716  : 	//		return FALSE;
; 717  : 	//	}
; 718  : 
; 719  : 	//	if( !::HttpQueryInfo( m_hHttp, HTTP_QUERY_CONTENT_TYPE, pTypeBuf, (LPDWORD) &nTypeSize, NULL ) )
; 720  : 	//	{
; 721  : 	//		_DisConnectGET();
; 722  : 	//		return FALSE;
; 723  : 	//	}
; 724  : 
; 725  : 	//	// ĆÄŔĎ Ĺ¸ŔÔ ĆÄ˝Ě( html ĆÄŔĎŔÎ °ćżě żˇ·Ż¸¦ ¸®ĹĎÇŐ´Ď´Ů. )
; 726  : 	//	//if( !_CheckType( pTypeBuf ) )
; 727  : 	//	//{
; 728  : 	//	//	_DisConnectGET();
; 729  : 	//	//	return FALSE;
; 730  : 	//	//}
; 731  : 
; 732  : 	//	m_nSize = (UINT32) i3String::ToInt( pBuff );
; 733  : 	//	if( m_nSize == 0 )
; 734  : 	//	{
; 735  : 	//		_DisConnectGET();
; 736  : 	//		return FALSE;
; 737  : 	//	}
; 738  : 	//}
; 739  : 
; 740  : 	return TRUE;

  0008c	b8 01 00 00 00	 mov	 eax, 1

; 741  : }

  00091	5e		 pop	 esi
  00092	5d		 pop	 ebp
  00093	c2 04 00	 ret	 4
?SendRequestGet@i3NetworkHTTP@@QAEHPAD@Z ENDP		; i3NetworkHTTP::SendRequestGet
_TEXT	ENDS
; Function compile flags: /Ogtp
; File E:\Proyectos\JuegosOnlineproyectos\PB\pbblow\Piercing Blow Remake\i3Server\src\i3Base\i3NetworkHTTP.cpp
;	COMDAT ?SendRequestPost@i3NetworkHTTP@@QAEHXZ
_TEXT	SEGMENT
_accept$ = -28						; size = 8
_this$ = -20						; size = 4
__$EHRec$ = -16						; size = 16
?SendRequestPost@i3NetworkHTTP@@QAEHXZ PROC		; i3NetworkHTTP::SendRequestPost, COMDAT
; _this$ = ecx

; 630  : {

  00000	55		 push	 ebp
  00001	8b ec		 mov	 ebp, esp
  00003	6a ff		 push	 -1
  00005	68 00 00 00 00	 push	 __ehhandler$?SendRequestPost@i3NetworkHTTP@@QAEHXZ
  0000a	64 a1 00 00 00
	00		 mov	 eax, DWORD PTR fs:0
  00010	50		 push	 eax
  00011	83 ec 10	 sub	 esp, 16			; 00000010H
  00014	53		 push	 ebx
  00015	56		 push	 esi
  00016	57		 push	 edi
  00017	a1 00 00 00 00	 mov	 eax, DWORD PTR ___security_cookie
  0001c	33 c5		 xor	 eax, ebp
  0001e	50		 push	 eax
  0001f	8d 45 f4	 lea	 eax, DWORD PTR __$EHRec$[ebp+4]
  00022	64 a3 00 00 00
	00		 mov	 DWORD PTR fs:0, eax
  00028	89 65 f0	 mov	 DWORD PTR __$EHRec$[ebp], esp
  0002b	8b f1		 mov	 esi, ecx
  0002d	89 75 ec	 mov	 DWORD PTR _this$[ebp], esi

; 631  : 	if( m_hHttp )

  00030	8b 46 14	 mov	 eax, DWORD PTR [esi+20]
  00033	85 c0		 test	 eax, eax
  00035	74 0e		 je	 SHORT $LN2@SendReques

; 632  : 	{
; 633  : 		::InternetCloseHandle( m_hHttp );

  00037	50		 push	 eax
  00038	ff 15 00 00 00
	00		 call	 DWORD PTR __imp__InternetCloseHandle@4

; 634  : 		m_hHttp = NULL;

  0003e	c7 46 14 00 00
	00 00		 mov	 DWORD PTR [esi+20], 0
$LN2@SendReques:

; 635  : 	}
; 636  : 
; 637  : 	// Creates an HTTP request handle.
; 638  : 	wchar_t* accept[2]={L"*/*",0}; 
; 639  : 	m_hHttp = HttpOpenRequest(m_hConnection, _HTTP_VERB_POST, m_szURI, NULL, "", (const char**) accept, m_OpenRequestFlag, 0 );

  00045	6a 00		 push	 0
  00047	ff 76 20	 push	 DWORD PTR [esi+32]
  0004a	8d 45 e4	 lea	 eax, DWORD PTR _accept$[ebp]
  0004d	c7 45 e4 00 00
	00 00		 mov	 DWORD PTR _accept$[ebp], OFFSET ??_C@_17MLBOKGLB@?$AA?$CK?$AA?1?$AA?$CK@
  00054	50		 push	 eax
  00055	68 00 00 00 00	 push	 OFFSET ??_C@_00CNPNBAHC@@
  0005a	6a 00		 push	 0
  0005c	8d 86 32 0b 00
	00		 lea	 eax, DWORD PTR [esi+2866]
  00062	c7 45 e8 00 00
	00 00		 mov	 DWORD PTR _accept$[ebp+4], 0
  00069	50		 push	 eax
  0006a	68 00 00 00 00	 push	 OFFSET ??_C@_04HCJEIHPL@POST@
  0006f	ff 76 18	 push	 DWORD PTR [esi+24]
  00072	ff 15 00 00 00
	00		 call	 DWORD PTR __imp__HttpOpenRequestA@32
  00078	89 46 14	 mov	 DWORD PTR [esi+20], eax

; 640  : 	if( FALSE == m_hHttp )

  0007b	85 c0		 test	 eax, eax
  0007d	75 20		 jne	 SHORT $LN3@SendReques

; 641  : 	{
; 642  : 		m_nLastErrorCode=::GetLastError();

  0007f	ff 15 00 00 00
	00		 call	 DWORD PTR __imp__GetLastError@0
$LN17@SendReques:

; 684  : 	}
; 685  : }

  00085	89 86 98 aa 01
	00		 mov	 DWORD PTR [esi+109208], eax
$LN14@SendReques:
  0008b	33 c0		 xor	 eax, eax
  0008d	8b 4d f4	 mov	 ecx, DWORD PTR __$EHRec$[ebp+4]
  00090	64 89 0d 00 00
	00 00		 mov	 DWORD PTR fs:0, ecx
  00097	59		 pop	 ecx
  00098	5f		 pop	 edi
  00099	5e		 pop	 esi
  0009a	5b		 pop	 ebx
  0009b	8b e5		 mov	 esp, ebp
  0009d	5d		 pop	 ebp
  0009e	c3		 ret	 0
$LN3@SendReques:

; 643  : 		return FALSE;
; 644  : 	}
; 645  : 
; 646  : 	try
; 647  : 	{	
; 648  : 		INT32 result =  HttpSendRequest(m_hHttp,

  0009f	8d be 32 0f 00
	00		 lea	 edi, DWORD PTR [esi+3890]
  000a5	c7 45 fc 00 00
	00 00		 mov	 DWORD PTR __$EHRec$[ebp+12], 0
  000ac	57		 push	 edi
  000ad	e8 00 00 00 00	 call	 ?Length@i3String@@YAHPBD@Z ; i3String::Length
  000b2	83 c4 04	 add	 esp, 4
  000b5	50		 push	 eax
  000b6	57		 push	 edi
  000b7	6a 31		 push	 49			; 00000031H
  000b9	68 00 00 00 00	 push	 OFFSET ??_C@_0DC@DMFLICKC@Content?9Type?3?5application?1x?9www@
  000be	ff 76 14	 push	 DWORD PTR [esi+20]
  000c1	ff 15 00 00 00
	00		 call	 DWORD PTR __imp__HttpSendRequestA@20

; 649  : 										DEFAULT_HTTP_HEADER,
; 650  : 										(DWORD)strlen(DEFAULT_HTTP_HEADER),
; 651  : 										(LPVOID)m_szPostArguments,
; 652  : 										(DWORD)i3String::Length(m_szPostArguments));
; 653  : 		if (result) 	

  000c7	85 c0		 test	 eax, eax
  000c9	74 17		 je	 SHORT $LN5@SendReques

; 654  : 		{
; 655  : 			return TRUE;

  000cb	b8 01 00 00 00	 mov	 eax, 1

; 684  : 	}
; 685  : }

  000d0	8b 4d f4	 mov	 ecx, DWORD PTR __$EHRec$[ebp+4]
  000d3	64 89 0d 00 00
	00 00		 mov	 DWORD PTR fs:0, ecx
  000da	59		 pop	 ecx
  000db	5f		 pop	 edi
  000dc	5e		 pop	 esi
  000dd	5b		 pop	 ebx
  000de	8b e5		 mov	 esp, ebp
  000e0	5d		 pop	 ebp
  000e1	c3		 ret	 0
$LN5@SendReques:

; 656  : 		}
; 657  : 
; 658  : 		INT32 lastErr = ::GetLastError();

  000e2	8b 3d 00 00 00
	00		 mov	 edi, DWORD PTR __imp__GetLastError@0
  000e8	ff d7		 call	 edi
  000ea	8d 8e 98 a6 01
	00		 lea	 ecx, DWORD PTR [esi+108184]

; 659  : 
; 660  : 		if (lastErr == ERROR_INTERNET_INVALID_URL)

  000f0	68 00 04 00 00	 push	 1024			; 00000400H
  000f5	3d e5 2e 00 00	 cmp	 eax, 12005		; 00002ee5H
  000fa	75 15		 jne	 SHORT $LN6@SendReques

; 661  : 		{
; 662  : 			i3String::Copy( m_szLastError, "Cannot perform http request, The URL is invalid.", 1024);

  000fc	68 00 00 00 00	 push	 OFFSET ??_C@_0DB@CPBJMABP@Cannot?5perform?5http?5request?0?5Th@

; 684  : 	}
; 685  : }

  00101	51		 push	 ecx
  00102	e8 00 00 00 00	 call	 ?Copy@i3String@@YAXPADPBDH@Z ; i3String::Copy
  00107	83 c4 0c	 add	 esp, 12			; 0000000cH
  0010a	ff d7		 call	 edi
  0010c	e9 74 ff ff ff	 jmp	 $LN17@SendReques
$LN6@SendReques:

; 663  : 			m_nLastErrorCode = ::GetLastError();
; 664  : 			return FALSE;
; 665  : 		}
; 666  : 		else if (lastErr == ERROR_INTERNET_CANNOT_CONNECT)

  00111	3d fd 2e 00 00	 cmp	 eax, 12029		; 00002efdH
  00116	75 15		 jne	 SHORT $LN8@SendReques

; 667  : 		{
; 668  : 			i3String::Copy( m_szLastError, "Cannot perform http request, The attempt to connect to the server failed.", 1024);

  00118	68 00 00 00 00	 push	 OFFSET ??_C@_0EK@PLOICMNN@Cannot?5perform?5http?5request?0?5Th@

; 684  : 	}
; 685  : }

  0011d	51		 push	 ecx
  0011e	e8 00 00 00 00	 call	 ?Copy@i3String@@YAXPADPBDH@Z ; i3String::Copy
  00123	83 c4 0c	 add	 esp, 12			; 0000000cH
  00126	ff d7		 call	 edi
  00128	e9 58 ff ff ff	 jmp	 $LN17@SendReques
$LN8@SendReques:

; 669  : 			m_nLastErrorCode = ::GetLastError();
; 670  : 			return FALSE;
; 671  : 		}			
; 672  : 		else
; 673  : 		{
; 674  : 			i3String::Copy( m_szLastError, "Cannot perform http request", 1024);

  0012d	68 00 00 00 00	 push	 OFFSET ??_C@_0BM@HBGNAEJJ@Cannot?5perform?5http?5request@

; 684  : 	}
; 685  : }

  00132	51		 push	 ecx
  00133	e8 00 00 00 00	 call	 ?Copy@i3String@@YAXPADPBDH@Z ; i3String::Copy
  00138	83 c4 0c	 add	 esp, 12			; 0000000cH
  0013b	ff d7		 call	 edi
  0013d	e9 43 ff ff ff	 jmp	 $LN17@SendReques
__catch$?SendRequestPost@i3NetworkHTTP@@QAEHXZ$0:

; 675  : 			m_nLastErrorCode = ::GetLastError();
; 676  : 			return FALSE;
; 677  : 		}
; 678  : 	}
; 679  : 	catch(...) 
; 680  : 	{
; 681  : 		i3String::Copy( m_szLastError, "Memory Exception occured", 1024);

  00142	8b 75 ec	 mov	 esi, DWORD PTR _this$[ebp]
  00145	68 00 04 00 00	 push	 1024			; 00000400H
  0014a	68 00 00 00 00	 push	 OFFSET ??_C@_0BJ@KELNJPON@Memory?5Exception?5occured@
  0014f	8d 86 98 a6 01
	00		 lea	 eax, DWORD PTR [esi+108184]
  00155	50		 push	 eax
  00156	e8 00 00 00 00	 call	 ?Copy@i3String@@YAXPADPBDH@Z ; i3String::Copy
  0015b	83 c4 0c	 add	 esp, 12			; 0000000cH

; 682  : 		m_nLastErrorCode = ::GetLastError();

  0015e	ff 15 00 00 00
	00		 call	 DWORD PTR __imp__GetLastError@0
  00164	89 86 98 aa 01
	00		 mov	 DWORD PTR [esi+109208], eax

; 683  : 		return FALSE;

  0016a	b8 00 00 00 00	 mov	 eax, $LN14@SendReques
  0016f	c3		 ret	 0
  00170	cc		 int	 3
  00171	cc		 int	 3
  00172	cc		 int	 3
  00173	cc		 int	 3
  00174	cc		 int	 3
_TEXT	ENDS
;	COMDAT text$x
text$x	SEGMENT
__ehhandler$?SendRequestPost@i3NetworkHTTP@@QAEHXZ:
  00000	90		 npad	 1
  00001	90		 npad	 1
  00002	8b 54 24 08	 mov	 edx, DWORD PTR [esp+8]
  00006	8d 42 0c	 lea	 eax, DWORD PTR [edx+12]
  00009	8b 4a e0	 mov	 ecx, DWORD PTR [edx-32]
  0000c	33 c8		 xor	 ecx, eax
  0000e	e8 00 00 00 00	 call	 @__security_check_cookie@4
  00013	b8 00 00 00 00	 mov	 eax, OFFSET __ehfuncinfo$?SendRequestPost@i3NetworkHTTP@@QAEHXZ
  00018	e9 00 00 00 00	 jmp	 ___CxxFrameHandler3
text$x	ENDS
?SendRequestPost@i3NetworkHTTP@@QAEHXZ ENDP		; i3NetworkHTTP::SendRequestPost
; Function compile flags: /Ogtp
; File E:\Proyectos\JuegosOnlineproyectos\PB\pbblow\Piercing Blow Remake\i3Server\src\i3Base\i3NetworkHTTP.cpp
;	COMDAT ?RecvRequest@i3NetworkHTTP@@QAEHXZ
_TEXT	SEGMENT
tv194 = -1036						; size = 4
_dwNumberOfBytesRead$ = -1032				; size = 4
_szTemp$ = -1028					; size = 1024
__$ArrayPad$ = -4					; size = 4
?RecvRequest@i3NetworkHTTP@@QAEHXZ PROC			; i3NetworkHTTP::RecvRequest, COMDAT
; _this$ = ecx

; 744  : {

  00000	55		 push	 ebp
  00001	8b ec		 mov	 ebp, esp
  00003	81 ec 0c 04 00
	00		 sub	 esp, 1036		; 0000040cH
  00009	a1 00 00 00 00	 mov	 eax, DWORD PTR ___security_cookie
  0000e	33 c5		 xor	 eax, ebp
  00010	89 45 fc	 mov	 DWORD PTR __$ArrayPad$[ebp], eax
  00013	53		 push	 ebx
  00014	56		 push	 esi
  00015	57		 push	 edi
  00016	8b f9		 mov	 edi, ecx

; 745  : 	m_pReadBuf[ 0 ] = '\0';			// ĂĘ±âČ­
; 746  : 
; 747  : 	DWORD dwNumberOfBytesRead;
; 748  : 	char szTemp[1024];
; 749  : 	INT32 nResult; 
; 750  : 	INT32 nRecvSize = 0;

  00018	33 f6		 xor	 esi, esi
  0001a	8b 87 58 a4 01
	00		 mov	 eax, DWORD PTR [edi+107608]
  00020	c6 00 00	 mov	 BYTE PTR [eax], 0
$LL4@RecvReques:

; 751  : 
; 752  : 	do 
; 753  : 	{
; 754  : 		nResult = InternetReadFile( m_hHttp, szTemp, 1023, &dwNumberOfBytesRead );

  00023	8d 85 f8 fb ff
	ff		 lea	 eax, DWORD PTR _dwNumberOfBytesRead$[ebp]
  00029	89 b5 f4 fb ff
	ff		 mov	 DWORD PTR tv194[ebp], esi
  0002f	50		 push	 eax
  00030	68 ff 03 00 00	 push	 1023			; 000003ffH
  00035	8d 85 fc fb ff
	ff		 lea	 eax, DWORD PTR _szTemp$[ebp]
  0003b	50		 push	 eax
  0003c	ff 77 14	 push	 DWORD PTR [edi+20]
  0003f	ff 15 00 00 00
	00		 call	 DWORD PTR __imp__InternetReadFile@16
  00045	8b d8		 mov	 ebx, eax

; 755  : 		szTemp[ dwNumberOfBytesRead ] = '\0';

  00047	8b 85 f8 fb ff
	ff		 mov	 eax, DWORD PTR _dwNumberOfBytesRead$[ebp]
  0004d	3d 00 04 00 00	 cmp	 eax, 1024		; 00000400H
  00052	73 60		 jae	 SHORT $LN8@RecvReques

; 756  : 		nRecvSize += dwNumberOfBytesRead;

  00054	03 f0		 add	 esi, eax
  00056	c6 84 05 fc fb
	ff ff 00	 mov	 BYTE PTR _szTemp$[ebp+eax], 0

; 757  : 		if( m_nReadBufSize < nRecvSize )

  0005e	39 b7 5c a4 01
	00		 cmp	 DWORD PTR [edi+107612], esi
  00064	7c 24		 jl	 SHORT $LN11@RecvReques

; 760  : 			break;			
; 761  : 		}
; 762  : 		i3String::Concat( m_pReadBuf, szTemp);

  00066	8d 85 fc fb ff
	ff		 lea	 eax, DWORD PTR _szTemp$[ebp]
  0006c	50		 push	 eax
  0006d	ff b7 58 a4 01
	00		 push	 DWORD PTR [edi+107608]
  00073	e8 00 00 00 00	 call	 ?Concat@i3String@@YAXPADPBD@Z ; i3String::Concat
  00078	83 c4 08	 add	 esp, 8

; 763  : 	} while( nResult && (dwNumberOfBytesRead != 0) );

  0007b	85 db		 test	 ebx, ebx
  0007d	74 11		 je	 SHORT $LN3@RecvReques
  0007f	83 bd f8 fb ff
	ff 00		 cmp	 DWORD PTR _dwNumberOfBytesRead$[ebp], 0
  00086	75 9b		 jne	 SHORT $LL4@RecvReques
  00088	eb 06		 jmp	 SHORT $LN3@RecvReques
$LN11@RecvReques:

; 758  : 		{
; 759  : 			nRecvSize -= dwNumberOfBytesRead;

  0008a	8b b5 f4 fb ff
	ff		 mov	 esi, DWORD PTR tv194[ebp]
$LN3@RecvReques:

; 764  : 
; 765  : 	m_pReadBuf[ m_nReadBufSize-1 ] = '\0';

  00090	8b 8f 58 a4 01
	00		 mov	 ecx, DWORD PTR [edi+107608]

; 766  : 
; 767  : 	return nRecvSize;

  00096	8b c6		 mov	 eax, esi
  00098	8b 97 5c a4 01
	00		 mov	 edx, DWORD PTR [edi+107612]
  0009e	5f		 pop	 edi
  0009f	5e		 pop	 esi
  000a0	5b		 pop	 ebx
  000a1	c6 44 0a ff 00	 mov	 BYTE PTR [edx+ecx-1], 0

; 768  : }

  000a6	8b 4d fc	 mov	 ecx, DWORD PTR __$ArrayPad$[ebp]
  000a9	33 cd		 xor	 ecx, ebp
  000ab	e8 00 00 00 00	 call	 @__security_check_cookie@4
  000b0	8b e5		 mov	 esp, ebp
  000b2	5d		 pop	 ebp
  000b3	c3		 ret	 0
$LN8@RecvReques:

; 755  : 		szTemp[ dwNumberOfBytesRead ] = '\0';

  000b4	e8 00 00 00 00	 call	 ___report_rangecheckfailure
$LN17@RecvReques:
  000b9	cc		 int	 3
?RecvRequest@i3NetworkHTTP@@QAEHXZ ENDP			; i3NetworkHTTP::RecvRequest
_TEXT	ENDS
; Function compile flags: /Ogtp
; File E:\Proyectos\JuegosOnlineproyectos\PB\pbblow\Piercing Blow Remake\i3Server\src\i3Base\i3NetworkHTTP.cpp
;	COMDAT ?DisConnect@i3NetworkHTTP@@QAEXXZ
_TEXT	SEGMENT
?DisConnect@i3NetworkHTTP@@QAEXXZ PROC			; i3NetworkHTTP::DisConnect, COMDAT
; _this$ = ecx

; 92   : {

  00000	56		 push	 esi
  00001	8b f1		 mov	 esi, ecx
  00003	57		 push	 edi

; 285  : 	if( m_hHttp )

  00004	8b 3d 00 00 00
	00		 mov	 edi, DWORD PTR __imp__InternetCloseHandle@4
  0000a	8b 46 14	 mov	 eax, DWORD PTR [esi+20]
  0000d	85 c0		 test	 eax, eax
  0000f	74 0a		 je	 SHORT $LN4@DisConnect

; 286  : 	{
; 287  : 		::InternetCloseHandle( m_hHttp );

  00011	50		 push	 eax
  00012	ff d7		 call	 edi

; 288  : 		m_hHttp			= NULL;

  00014	c7 46 14 00 00
	00 00		 mov	 DWORD PTR [esi+20], 0
$LN4@DisConnect:

; 289  : 	}
; 290  : 	if( m_hConnection )

  0001b	8b 46 18	 mov	 eax, DWORD PTR [esi+24]
  0001e	85 c0		 test	 eax, eax
  00020	74 0a		 je	 SHORT $LN5@DisConnect

; 291  : 	{
; 292  : 		::InternetCloseHandle( m_hConnection );

  00022	50		 push	 eax
  00023	ff d7		 call	 edi

; 293  : 		m_hConnection	= NULL;

  00025	c7 46 18 00 00
	00 00		 mov	 DWORD PTR [esi+24], 0
$LN5@DisConnect:

; 294  : 	}
; 295  : 	if( m_hInternet )

  0002c	8b 46 10	 mov	 eax, DWORD PTR [esi+16]
  0002f	85 c0		 test	 eax, eax
  00031	74 0a		 je	 SHORT $LN6@DisConnect

; 296  : 	{
; 297  : 		::InternetCloseHandle( m_hInternet );

  00033	50		 push	 eax
  00034	ff d7		 call	 edi

; 298  : 		m_hInternet		= NULL;

  00036	c7 46 10 00 00
	00 00		 mov	 DWORD PTR [esi+16], 0
$LN6@DisConnect:

; 304  : 	if( m_hHttp )

  0003d	8b 46 14	 mov	 eax, DWORD PTR [esi+20]
  00040	85 c0		 test	 eax, eax
  00042	74 0a		 je	 SHORT $LN9@DisConnect

; 305  : 	{
; 306  : 		::InternetCloseHandle( m_hHttp );

  00044	50		 push	 eax
  00045	ff d7		 call	 edi

; 307  : 		m_hHttp			= NULL;

  00047	c7 46 14 00 00
	00 00		 mov	 DWORD PTR [esi+20], 0
$LN9@DisConnect:

; 308  : 	}
; 309  : 	if( m_hConnection )

  0004e	8b 46 18	 mov	 eax, DWORD PTR [esi+24]
  00051	85 c0		 test	 eax, eax
  00053	74 0a		 je	 SHORT $LN10@DisConnect

; 310  : 	{
; 311  : 		::InternetCloseHandle( m_hConnection );

  00055	50		 push	 eax
  00056	ff d7		 call	 edi

; 312  : 		m_hConnection	= NULL;

  00058	c7 46 18 00 00
	00 00		 mov	 DWORD PTR [esi+24], 0
$LN10@DisConnect:

; 313  : 	}
; 314  : 	if( m_hInternet )

  0005f	8b 46 10	 mov	 eax, DWORD PTR [esi+16]
  00062	85 c0		 test	 eax, eax
  00064	74 0a		 je	 SHORT $LN11@DisConnect

; 315  : 	{
; 316  : 		::InternetCloseHandle( m_hInternet );

  00066	50		 push	 eax
  00067	ff d7		 call	 edi

; 317  : 		m_hInternet		= NULL;

  00069	c7 46 10 00 00
	00 00		 mov	 DWORD PTR [esi+16], 0
$LN11@DisConnect:

; 270  : 	if( m_hHttp )

  00070	8b 46 14	 mov	 eax, DWORD PTR [esi+20]
  00073	85 c0		 test	 eax, eax
  00075	74 0a		 je	 SHORT $LN14@DisConnect

; 271  : 	{
; 272  : 		::InternetCloseHandle( m_hHttp );

  00077	50		 push	 eax
  00078	ff d7		 call	 edi

; 273  : 		m_hHttp = NULL;

  0007a	c7 46 14 00 00
	00 00		 mov	 DWORD PTR [esi+20], 0
$LN14@DisConnect:

; 274  : 	}
; 275  : 
; 276  : 	if( m_hInternet )

  00081	8b 46 10	 mov	 eax, DWORD PTR [esi+16]
  00084	85 c0		 test	 eax, eax
  00086	74 0a		 je	 SHORT $LN15@DisConnect

; 277  : 	{
; 278  : 		::InternetCloseHandle( m_hInternet );

  00088	50		 push	 eax
  00089	ff d7		 call	 edi

; 279  : 		m_hInternet = NULL;

  0008b	c7 46 10 00 00
	00 00		 mov	 DWORD PTR [esi+16], 0
$LN15@DisConnect:
  00092	5f		 pop	 edi

; 93   : 	_DisConnectPUT();
; 94   : 	_DisConnectPOST();
; 95   : 	_DisConnectGET();
; 96   : }

  00093	5e		 pop	 esi
  00094	c3		 ret	 0
?DisConnect@i3NetworkHTTP@@QAEXXZ ENDP			; i3NetworkHTTP::DisConnect
_TEXT	ENDS
; Function compile flags: /Ogtp
; File E:\Proyectos\JuegosOnlineproyectos\PB\pbblow\Piercing Blow Remake\i3Server\src\i3Base\i3NetworkHTTP.cpp
;	COMDAT ?IsInternetConnect@i3NetworkHTTP@@QAEHXZ
_TEXT	SEGMENT
_dwFlags$ = -4						; size = 4
?IsInternetConnect@i3NetworkHTTP@@QAEHXZ PROC		; i3NetworkHTTP::IsInternetConnect, COMDAT
; _this$ = ecx

; 83   : {

  00000	55		 push	 ebp
  00001	8b ec		 mov	 ebp, esp
  00003	51		 push	 ecx

; 84   : 	DWORD dwFlags;
; 85   : 
; 86   : 	BOOL bChkInternet = InternetGetConnectedState(&dwFlags, NULL);

  00004	6a 00		 push	 0
  00006	8d 45 fc	 lea	 eax, DWORD PTR _dwFlags$[ebp]
  00009	50		 push	 eax
  0000a	ff 15 00 00 00
	00		 call	 DWORD PTR __imp__InternetGetConnectedState@8

; 87   : 
; 88   : 	return bChkInternet;
; 89   : }

  00010	8b e5		 mov	 esp, ebp
  00012	5d		 pop	 ebp
  00013	c3		 ret	 0
?IsInternetConnect@i3NetworkHTTP@@QAEHXZ ENDP		; i3NetworkHTTP::IsInternetConnect
_TEXT	ENDS
; Function compile flags: /Ogtp
; File E:\Proyectos\JuegosOnlineproyectos\PB\pbblow\Piercing Blow Remake\i3Server\src\i3Base\i3NetworkHTTP.cpp
;	COMDAT ?Connect@i3NetworkHTTP@@QAEHPADW4REQUEST_METHOD@1@@Z
_TEXT	SEGMENT
_pszURL$ = 8						; size = 4
_method$ = 12						; size = 4
?Connect@i3NetworkHTTP@@QAEHPADW4REQUEST_METHOD@1@@Z PROC ; i3NetworkHTTP::Connect, COMDAT
; _this$ = ecx

; 60   : {

  00000	55		 push	 ebp
  00001	8b ec		 mov	 ebp, esp

; 61   : 	BOOL ret = FALSE;
; 62   : 
; 63   : 	switch( method)

  00003	8b 45 0c	 mov	 eax, DWORD PTR _method$[ebp]
  00006	56		 push	 esi
  00007	8b f1		 mov	 esi, ecx
  00009	48		 dec	 eax
  0000a	33 c9		 xor	 ecx, ecx
  0000c	83 f8 03	 cmp	 eax, 3
  0000f	77 29		 ja	 SHORT $LN4@Connect
  00011	ff 24 85 00 00
	00 00		 jmp	 DWORD PTR $LN13@Connect[eax*4]
$LN6@Connect:

; 64   : 	{
; 65   : 	case i3NetworkHTTP::REQUEST_METHOD_GET:
; 66   : 	default:
; 67   : 		ret = _ConnectGET(pszURL);
; 68   : 		break;
; 69   : 	case i3NetworkHTTP::REQUEST_METHOD_PUT:
; 70   : 		ret = _ConnectPUT(pszURL);

  00018	ff 75 08	 push	 DWORD PTR _pszURL$[ebp]
  0001b	8b ce		 mov	 ecx, esi
  0001d	e8 00 00 00 00	 call	 ?_ConnectPUT@i3NetworkHTTP@@IAEHPAD@Z ; i3NetworkHTTP::_ConnectPUT
  00022	8b c8		 mov	 ecx, eax

; 74   : 		break;
; 75   : 	case i3NetworkHTTP::REQUEST_METHOD_POST_MULTIPARTSFORMDATA:
; 76   : 		break;
; 77   : 	}
; 78   : 
; 79   : 	return ret;

  00024	5e		 pop	 esi

; 80   : }

  00025	5d		 pop	 ebp
  00026	c2 08 00	 ret	 8
$LN7@Connect:

; 71   : 		break;
; 72   : 	case i3NetworkHTTP::REQUEST_METHOD_POST:
; 73   : 		ret = _ConnectPOST(pszURL);

  00029	ff 75 08	 push	 DWORD PTR _pszURL$[ebp]
  0002c	8b ce		 mov	 ecx, esi
  0002e	e8 00 00 00 00	 call	 ?_ConnectPOST@i3NetworkHTTP@@IAEHPAD@Z ; i3NetworkHTTP::_ConnectPOST
  00033	8b c8		 mov	 ecx, eax

; 74   : 		break;
; 75   : 	case i3NetworkHTTP::REQUEST_METHOD_POST_MULTIPARTSFORMDATA:
; 76   : 		break;
; 77   : 	}
; 78   : 
; 79   : 	return ret;

  00035	5e		 pop	 esi

; 80   : }

  00036	5d		 pop	 ebp
  00037	c2 08 00	 ret	 8
$LN4@Connect:

; 151  : 	m_hInternet = ::InternetOpen( m_szAgentName, INTERNET_OPEN_TYPE_PRECONFIG, NULL, NULL, 0 );

  0003a	6a 00		 push	 0
  0003c	6a 00		 push	 0
  0003e	6a 00		 push	 0
  00040	6a 00		 push	 0
  00042	8d 46 26	 lea	 eax, DWORD PTR [esi+38]
  00045	50		 push	 eax
  00046	ff 15 00 00 00
	00		 call	 DWORD PTR __imp__InternetOpenA@20
  0004c	89 46 10	 mov	 DWORD PTR [esi+16], eax

; 152  : 	if( m_hInternet == NULL )

  0004f	85 c0		 test	 eax, eax
  00051	75 2e		 jne	 SHORT $LN11@Connect

; 153  : 	{
; 154  : 		// Error
; 155  : 		i3String::Copy( m_szLastError, "Cannot open internet", 1024);

  00053	68 00 04 00 00	 push	 1024			; 00000400H
  00058	8d 86 98 a6 01
	00		 lea	 eax, DWORD PTR [esi+108184]
  0005e	68 00 00 00 00	 push	 OFFSET ??_C@_0BF@PJCNEGDJ@Cannot?5open?5internet@
  00063	50		 push	 eax
  00064	e8 00 00 00 00	 call	 ?Copy@i3String@@YAXPADPBDH@Z ; i3String::Copy
  00069	83 c4 0c	 add	 esp, 12			; 0000000cH

; 156  : 		m_nLastErrorCode=::GetLastError();

  0006c	ff 15 00 00 00
	00		 call	 DWORD PTR __imp__GetLastError@0
  00072	89 86 98 aa 01
	00		 mov	 DWORD PTR [esi+109208], eax

; 157  : 		return FALSE;

  00078	33 c9		 xor	 ecx, ecx

; 74   : 		break;
; 75   : 	case i3NetworkHTTP::REQUEST_METHOD_POST_MULTIPARTSFORMDATA:
; 76   : 		break;
; 77   : 	}
; 78   : 
; 79   : 	return ret;

  0007a	8b c1		 mov	 eax, ecx
  0007c	5e		 pop	 esi

; 80   : }

  0007d	5d		 pop	 ebp
  0007e	c2 08 00	 ret	 8
$LN11@Connect:

; 160  : 	return TRUE;

  00081	b9 01 00 00 00	 mov	 ecx, 1
$LN10@Connect:

; 74   : 		break;
; 75   : 	case i3NetworkHTTP::REQUEST_METHOD_POST_MULTIPARTSFORMDATA:
; 76   : 		break;
; 77   : 	}
; 78   : 
; 79   : 	return ret;

  00086	8b c1		 mov	 eax, ecx
  00088	5e		 pop	 esi

; 80   : }

  00089	5d		 pop	 ebp
  0008a	c2 08 00	 ret	 8
  0008d	8d 49 00	 npad	 3
$LN13@Connect:
  00090	00 00 00 00	 DD	 $LN4@Connect
  00094	00 00 00 00	 DD	 $LN6@Connect
  00098	00 00 00 00	 DD	 $LN7@Connect
  0009c	00 00 00 00	 DD	 $LN10@Connect
?Connect@i3NetworkHTTP@@QAEHPADW4REQUEST_METHOD@1@@Z ENDP ; i3NetworkHTTP::Connect
_TEXT	ENDS
; Function compile flags: /Ogtp
; File E:\Proyectos\JuegosOnlineproyectos\PB\pbblow\Piercing Blow Remake\i3Server\src\i3Base\i3NetworkHTTP.cpp
;	COMDAT ??1i3NetworkHTTP@@UAE@XZ
_TEXT	SEGMENT
__$EHRec$ = -12						; size = 12
??1i3NetworkHTTP@@UAE@XZ PROC				; i3NetworkHTTP::~i3NetworkHTTP, COMDAT
; _this$ = ecx

; 55   : {

  00000	55		 push	 ebp
  00001	8b ec		 mov	 ebp, esp
  00003	6a ff		 push	 -1
  00005	68 00 00 00 00	 push	 __ehhandler$??1i3NetworkHTTP@@UAE@XZ
  0000a	64 a1 00 00 00
	00		 mov	 eax, DWORD PTR fs:0
  00010	50		 push	 eax
  00011	56		 push	 esi
  00012	a1 00 00 00 00	 mov	 eax, DWORD PTR ___security_cookie
  00017	33 c5		 xor	 eax, ebp
  00019	50		 push	 eax
  0001a	8d 45 f4	 lea	 eax, DWORD PTR __$EHRec$[ebp]
  0001d	64 a3 00 00 00
	00		 mov	 DWORD PTR fs:0, eax
  00023	8b f1		 mov	 esi, ecx
  00025	c7 06 00 00 00
	00		 mov	 DWORD PTR [esi], OFFSET ??_7i3NetworkHTTP@@6B@

; 56   : 	Destroy(); 

  0002b	e8 00 00 00 00	 call	 ?Destroy@i3NetworkHTTP@@QAEXXZ ; i3NetworkHTTP::Destroy

; 57   : }

  00030	8d 8e 34 13 00
	00		 lea	 ecx, DWORD PTR [esi+4916]
  00036	e8 00 00 00 00	 call	 ??1i3List@@UAE@XZ	; i3List::~i3List
  0003b	8b ce		 mov	 ecx, esi
  0003d	e8 00 00 00 00	 call	 ??1i3ElementBase@@UAE@XZ ; i3ElementBase::~i3ElementBase
  00042	8b 4d f4	 mov	 ecx, DWORD PTR __$EHRec$[ebp]
  00045	64 89 0d 00 00
	00 00		 mov	 DWORD PTR fs:0, ecx
  0004c	59		 pop	 ecx
  0004d	5e		 pop	 esi
  0004e	8b e5		 mov	 esp, ebp
  00050	5d		 pop	 ebp
  00051	c3		 ret	 0
  00052	cc		 int	 3
  00053	cc		 int	 3
  00054	cc		 int	 3
  00055	cc		 int	 3
  00056	cc		 int	 3
_TEXT	ENDS
;	COMDAT text$x
text$x	SEGMENT
__ehhandler$??1i3NetworkHTTP@@UAE@XZ:
  00000	90		 npad	 1
  00001	90		 npad	 1
  00002	8b 54 24 08	 mov	 edx, DWORD PTR [esp+8]
  00006	8d 42 0c	 lea	 eax, DWORD PTR [edx+12]
  00009	8b 4a f8	 mov	 ecx, DWORD PTR [edx-8]
  0000c	33 c8		 xor	 ecx, eax
  0000e	e8 00 00 00 00	 call	 @__security_check_cookie@4
  00013	b8 00 00 00 00	 mov	 eax, OFFSET __ehfuncinfo$??1i3NetworkHTTP@@UAE@XZ
  00018	e9 00 00 00 00	 jmp	 ___CxxFrameHandler3
text$x	ENDS
??1i3NetworkHTTP@@UAE@XZ ENDP				; i3NetworkHTTP::~i3NetworkHTTP
; Function compile flags: /Ogtp
; File E:\Proyectos\JuegosOnlineproyectos\PB\pbblow\Piercing Blow Remake\i3Server\src\i3Base\i3NetworkHTTP.cpp
; File E:\Proyectos\JuegosOnlineproyectos\PB\pbblow\Piercing Blow Remake\i3Server\include\i3Base\i3Memory.h
; File C:\Program Files (x86)\Windows Kits\10\Include\10.0.26100.0\um\winnt.h
; File E:\Proyectos\JuegosOnlineproyectos\PB\pbblow\Piercing Blow Remake\i3Server\include\i3Base\i3Memory.h
; File E:\Proyectos\JuegosOnlineproyectos\PB\pbblow\Piercing Blow Remake\i3Server\src\i3Base\i3NetworkHTTP.cpp
; File C:\Program Files (x86)\Windows Kits\10\Include\10.0.26100.0\um\winnt.h
; File E:\Proyectos\JuegosOnlineproyectos\PB\pbblow\Piercing Blow Remake\i3Server\include\i3Base\i3Memory.h
; File E:\Proyectos\JuegosOnlineproyectos\PB\pbblow\Piercing Blow Remake\i3Server\src\i3Base\i3NetworkHTTP.cpp
; File C:\Program Files (x86)\Windows Kits\10\Include\10.0.26100.0\um\winnt.h
; File E:\Proyectos\JuegosOnlineproyectos\PB\pbblow\Piercing Blow Remake\i3Server\include\i3Base\i3Memory.h
; File E:\Proyectos\JuegosOnlineproyectos\PB\pbblow\Piercing Blow Remake\i3Server\src\i3Base\i3NetworkHTTP.cpp
; File C:\Program Files (x86)\Windows Kits\10\Include\10.0.26100.0\um\winnt.h
; File E:\Proyectos\JuegosOnlineproyectos\PB\pbblow\Piercing Blow Remake\i3Server\include\i3Base\i3Memory.h
; File E:\Proyectos\JuegosOnlineproyectos\PB\pbblow\Piercing Blow Remake\i3Server\src\i3Base\i3NetworkHTTP.cpp
; File C:\Program Files (x86)\Windows Kits\10\Include\10.0.26100.0\um\winnt.h
; File E:\Proyectos\JuegosOnlineproyectos\PB\pbblow\Piercing Blow Remake\i3Server\include\i3Base\i3Memory.h
; File E:\Proyectos\JuegosOnlineproyectos\PB\pbblow\Piercing Blow Remake\i3Server\src\i3Base\i3NetworkHTTP.cpp
; File C:\Program Files (x86)\Windows Kits\10\Include\10.0.26100.0\um\winnt.h
; File E:\Proyectos\JuegosOnlineproyectos\PB\pbblow\Piercing Blow Remake\i3Server\include\i3Base\i3Memory.h
; File E:\Proyectos\JuegosOnlineproyectos\PB\pbblow\Piercing Blow Remake\i3Server\src\i3Base\i3NetworkHTTP.cpp
; File C:\Program Files (x86)\Windows Kits\10\Include\10.0.26100.0\um\winnt.h
; File E:\Proyectos\JuegosOnlineproyectos\PB\pbblow\Piercing Blow Remake\i3Server\src\i3Base\i3NetworkHTTP.cpp
; File E:\Proyectos\JuegosOnlineproyectos\PB\pbblow\Piercing Blow Remake\i3Server\include\i3Base\i3Memory.h
; File C:\Program Files (x86)\Windows Kits\10\Include\10.0.26100.0\um\winnt.h
; File E:\Proyectos\JuegosOnlineproyectos\PB\pbblow\Piercing Blow Remake\i3Server\src\i3Base\i3NetworkHTTP.cpp
;	COMDAT ??0i3NetworkHTTP@@QAE@XZ
_TEXT	SEGMENT
_this$ = -16						; size = 4
__$EHRec$ = -12						; size = 12
??0i3NetworkHTTP@@QAE@XZ PROC				; i3NetworkHTTP::i3NetworkHTTP, COMDAT
; _this$ = ecx

; 9    : {

  00000	55		 push	 ebp
  00001	8b ec		 mov	 ebp, esp
  00003	6a ff		 push	 -1
  00005	68 00 00 00 00	 push	 __ehhandler$??0i3NetworkHTTP@@QAE@XZ
  0000a	64 a1 00 00 00
	00		 mov	 eax, DWORD PTR fs:0
  00010	50		 push	 eax
  00011	51		 push	 ecx
  00012	56		 push	 esi
  00013	57		 push	 edi
  00014	a1 00 00 00 00	 mov	 eax, DWORD PTR ___security_cookie
  00019	33 c5		 xor	 eax, ebp
  0001b	50		 push	 eax
  0001c	8d 45 f4	 lea	 eax, DWORD PTR __$EHRec$[ebp]
  0001f	64 a3 00 00 00
	00		 mov	 DWORD PTR fs:0, eax
  00025	8b f1		 mov	 esi, ecx
  00027	89 75 f0	 mov	 DWORD PTR _this$[ebp], esi
  0002a	e8 00 00 00 00	 call	 ??0i3ElementBase@@QAE@XZ ; i3ElementBase::i3ElementBase
  0002f	6a 08		 push	 8
  00031	8d 8e 34 13 00
	00		 lea	 ecx, DWORD PTR [esi+4916]
  00037	c7 45 fc 00 00
	00 00		 mov	 DWORD PTR __$EHRec$[ebp+8], 0
  0003e	c7 06 00 00 00
	00		 mov	 DWORD PTR [esi], OFFSET ??_7i3NetworkHTTP@@6B@
  00044	e8 00 00 00 00	 call	 ??0i3List@@QAE@H@Z	; i3List::i3List

; 10   : 	m_hInternet			= NULL;
; 11   : 	m_hHttp				= NULL;
; 12   : 	m_hConnection		= NULL;
; 13   : 	m_hFile				= NULL;
; 14   : 	
; 15   : 	m_pReadBuf			= NULL;
; 16   : 	m_nReadBufSize		= 0;
; 17   : 
; 18   : 	m_nSize				= 0;
; 19   : 	m_nRecv				= 0;
; 20   : 
; 21   : 	m_nPort = 0;
; 22   : 	m_nLastErrorCode = 0;
; 23   : 	i3String::Copy( m_szAgentName, DEFAULT_AGENT_NAME, MAX_PATH);

  00049	68 04 01 00 00	 push	 260			; 00000104H
  0004e	33 c0		 xor	 eax, eax
  00050	c6 45 fc 01	 mov	 BYTE PTR __$EHRec$[ebp+8], 1
  00054	8d 7e 26	 lea	 edi, DWORD PTR [esi+38]
  00057	c7 46 10 00 00
	00 00		 mov	 DWORD PTR [esi+16], 0
  0005e	68 00 00 00 00	 push	 OFFSET ??_C@_0P@GPAIGMIA@I3NETWORK_HTTP@
  00063	57		 push	 edi
  00064	c7 46 14 00 00
	00 00		 mov	 DWORD PTR [esi+20], 0
  0006b	c7 46 18 00 00
	00 00		 mov	 DWORD PTR [esi+24], 0
  00072	c7 46 1c 00 00
	00 00		 mov	 DWORD PTR [esi+28], 0
  00079	c7 86 58 a4 01
	00 00 00 00 00	 mov	 DWORD PTR [esi+107608], 0
  00083	c7 86 5c a4 01
	00 00 00 00 00	 mov	 DWORD PTR [esi+107612], 0
  0008d	c7 86 9c aa 01
	00 00 00 00 00	 mov	 DWORD PTR [esi+109212], 0
  00097	c7 86 a0 aa 01
	00 00 00 00 00	 mov	 DWORD PTR [esi+109216], 0
  000a1	66 89 46 24	 mov	 WORD PTR [esi+36], ax
  000a5	89 86 98 aa 01
	00		 mov	 DWORD PTR [esi+109208], eax
  000ab	e8 00 00 00 00	 call	 ?Copy@i3String@@YAXPADPBDH@Z ; i3String::Copy
  000b0	83 c4 0c	 add	 esp, 12			; 0000000cH

; 24   : 	i3mem::FillZero( m_szUserName, sizeof( m_szUserName ) );

  000b3	8d 86 2a 01 00
	00		 lea	 eax, DWORD PTR [esi+298]
; File E:\Proyectos\JuegosOnlineproyectos\PB\pbblow\Piercing Blow Remake\i3Server\include\i3Base\i3Memory.h

; 144  : 			::SecureZeroMemory( pDest, sz);

  000b9	b9 04 01 00 00	 mov	 ecx, 260		; 00000104H
  000be	8b ff		 npad	 2
$LL8@i3NetworkH:
; File C:\Program Files (x86)\Windows Kits\10\Include\10.0.26100.0\um\winnt.h

; 23429:         *vptr = 0;

  000c0	c6 00 00	 mov	 BYTE PTR [eax], 0

; 23430: 
; 23431: #endif
; 23432: 
; 23433:         vptr++;

  000c3	8d 40 01	 lea	 eax, DWORD PTR [eax+1]

; 23434:         cnt--;

  000c6	83 e9 01	 sub	 ecx, 1
  000c9	75 f5		 jne	 SHORT $LL8@i3NetworkH
; File E:\Proyectos\JuegosOnlineproyectos\PB\pbblow\Piercing Blow Remake\i3Server\include\i3Base\i3Memory.h

; 144  : 			::SecureZeroMemory( pDest, sz);

  000cb	b9 04 01 00 00	 mov	 ecx, 260		; 00000104H
; File E:\Proyectos\JuegosOnlineproyectos\PB\pbblow\Piercing Blow Remake\i3Server\src\i3Base\i3NetworkHTTP.cpp

; 25   : 	i3mem::FillZero( m_szUserPW, sizeof( m_szUserPW ) );

  000d0	8d 86 2e 02 00
	00		 lea	 eax, DWORD PTR [esi+558]
$LL14@i3NetworkH:
; File C:\Program Files (x86)\Windows Kits\10\Include\10.0.26100.0\um\winnt.h

; 23429:         *vptr = 0;

  000d6	c6 00 00	 mov	 BYTE PTR [eax], 0

; 23430: 
; 23431: #endif
; 23432: 
; 23433:         vptr++;

  000d9	8d 40 01	 lea	 eax, DWORD PTR [eax+1]

; 23434:         cnt--;

  000dc	83 e9 01	 sub	 ecx, 1
  000df	75 f5		 jne	 SHORT $LL14@i3NetworkH
; File E:\Proyectos\JuegosOnlineproyectos\PB\pbblow\Piercing Blow Remake\i3Server\include\i3Base\i3Memory.h

; 144  : 			::SecureZeroMemory( pDest, sz);

  000e1	b9 00 04 00 00	 mov	 ecx, 1024		; 00000400H
; File E:\Proyectos\JuegosOnlineproyectos\PB\pbblow\Piercing Blow Remake\i3Server\src\i3Base\i3NetworkHTTP.cpp

; 26   : 	i3mem::FillZero( m_szProtocol, sizeof( m_szProtocol ) );

  000e6	8d 86 32 03 00
	00		 lea	 eax, DWORD PTR [esi+818]
  000ec	8d 64 24 00	 npad	 4
$LL20@i3NetworkH:
; File C:\Program Files (x86)\Windows Kits\10\Include\10.0.26100.0\um\winnt.h

; 23429:         *vptr = 0;

  000f0	c6 00 00	 mov	 BYTE PTR [eax], 0

; 23430: 
; 23431: #endif
; 23432: 
; 23433:         vptr++;

  000f3	8d 40 01	 lea	 eax, DWORD PTR [eax+1]

; 23434:         cnt--;

  000f6	83 e9 01	 sub	 ecx, 1
  000f9	75 f5		 jne	 SHORT $LL20@i3NetworkH
; File E:\Proyectos\JuegosOnlineproyectos\PB\pbblow\Piercing Blow Remake\i3Server\include\i3Base\i3Memory.h

; 144  : 			::SecureZeroMemory( pDest, sz);

  000fb	b9 00 04 00 00	 mov	 ecx, 1024		; 00000400H
; File E:\Proyectos\JuegosOnlineproyectos\PB\pbblow\Piercing Blow Remake\i3Server\src\i3Base\i3NetworkHTTP.cpp

; 27   : 	i3mem::FillZero( m_szAddress, sizeof( m_szAddress ) );

  00100	8d 86 32 07 00
	00		 lea	 eax, DWORD PTR [esi+1842]
$LL26@i3NetworkH:
; File C:\Program Files (x86)\Windows Kits\10\Include\10.0.26100.0\um\winnt.h

; 23429:         *vptr = 0;

  00106	c6 00 00	 mov	 BYTE PTR [eax], 0

; 23430: 
; 23431: #endif
; 23432: 
; 23433:         vptr++;

  00109	8d 40 01	 lea	 eax, DWORD PTR [eax+1]

; 23434:         cnt--;

  0010c	83 e9 01	 sub	 ecx, 1
  0010f	75 f5		 jne	 SHORT $LL26@i3NetworkH
; File E:\Proyectos\JuegosOnlineproyectos\PB\pbblow\Piercing Blow Remake\i3Server\include\i3Base\i3Memory.h

; 144  : 			::SecureZeroMemory( pDest, sz);

  00111	b9 00 04 00 00	 mov	 ecx, 1024		; 00000400H
; File E:\Proyectos\JuegosOnlineproyectos\PB\pbblow\Piercing Blow Remake\i3Server\src\i3Base\i3NetworkHTTP.cpp

; 28   : 	i3mem::FillZero( m_szURI, sizeof( m_szURI ) );

  00116	8d 86 32 0b 00
	00		 lea	 eax, DWORD PTR [esi+2866]
  0011c	8d 64 24 00	 npad	 4
$LL32@i3NetworkH:
; File C:\Program Files (x86)\Windows Kits\10\Include\10.0.26100.0\um\winnt.h

; 23429:         *vptr = 0;

  00120	c6 00 00	 mov	 BYTE PTR [eax], 0

; 23430: 
; 23431: #endif
; 23432: 
; 23433:         vptr++;

  00123	8d 40 01	 lea	 eax, DWORD PTR [eax+1]

; 23434:         cnt--;

  00126	83 e9 01	 sub	 ecx, 1
  00129	75 f5		 jne	 SHORT $LL32@i3NetworkH
; File E:\Proyectos\JuegosOnlineproyectos\PB\pbblow\Piercing Blow Remake\i3Server\include\i3Base\i3Memory.h

; 144  : 			::SecureZeroMemory( pDest, sz);

  0012b	b9 00 04 00 00	 mov	 ecx, 1024		; 00000400H
; File E:\Proyectos\JuegosOnlineproyectos\PB\pbblow\Piercing Blow Remake\i3Server\src\i3Base\i3NetworkHTTP.cpp

; 29   : 	i3mem::FillZero( m_szPostArguments, sizeof( m_szPostArguments ) );

  00130	8d 86 32 0f 00
	00		 lea	 eax, DWORD PTR [esi+3890]
$LL38@i3NetworkH:
; File C:\Program Files (x86)\Windows Kits\10\Include\10.0.26100.0\um\winnt.h

; 23429:         *vptr = 0;

  00136	c6 00 00	 mov	 BYTE PTR [eax], 0

; 23430: 
; 23431: #endif
; 23432: 
; 23433:         vptr++;

  00139	8d 40 01	 lea	 eax, DWORD PTR [eax+1]

; 23434:         cnt--;

  0013c	83 e9 01	 sub	 ecx, 1
  0013f	75 f5		 jne	 SHORT $LL38@i3NetworkH
; File E:\Proyectos\JuegosOnlineproyectos\PB\pbblow\Piercing Blow Remake\i3Server\include\i3Base\i3Memory.h

; 144  : 			::SecureZeroMemory( pDest, sz);

  00141	b9 00 04 00 00	 mov	 ecx, 1024		; 00000400H
; File E:\Proyectos\JuegosOnlineproyectos\PB\pbblow\Piercing Blow Remake\i3Server\src\i3Base\i3NetworkHTTP.cpp

; 30   : 	i3mem::FillZero( m_szLastError, sizeof( m_szLastError ) );

  00146	8d 86 98 a6 01
	00		 lea	 eax, DWORD PTR [esi+108184]
  0014c	8d 64 24 00	 npad	 4
$LL44@i3NetworkH:
; File C:\Program Files (x86)\Windows Kits\10\Include\10.0.26100.0\um\winnt.h

; 23429:         *vptr = 0;

  00150	c6 00 00	 mov	 BYTE PTR [eax], 0

; 23430: 
; 23431: #endif
; 23432: 
; 23433:         vptr++;

  00153	8d 40 01	 lea	 eax, DWORD PTR [eax+1]

; 23434:         cnt--;

  00156	83 e9 01	 sub	 ecx, 1
  00159	75 f5		 jne	 SHORT $LL44@i3NetworkH
; File E:\Proyectos\JuegosOnlineproyectos\PB\pbblow\Piercing Blow Remake\i3Server\src\i3Base\i3NetworkHTTP.cpp

; 48   : 	i3mem::FillZero( m_ArgumentArray, sizeof(m_ArgumentArray));

  0015b	89 8e 68 a4 01
	00		 mov	 DWORD PTR [esi+107624], ecx
  00161	8d 86 8c 13 00
	00		 lea	 eax, DWORD PTR [esi+5004]
  00167	89 8e 84 a4 01
	00		 mov	 DWORD PTR [esi+107652], ecx
  0016d	89 8e 88 a4 01
	00		 mov	 DWORD PTR [esi+107656], ecx
  00173	89 8e 8c a4 01
	00		 mov	 DWORD PTR [esi+107660], ecx
  00179	89 8e 70 a4 01
	00		 mov	 DWORD PTR [esi+107632], ecx
  0017f	89 8e 80 a4 01
	00		 mov	 DWORD PTR [esi+107648], ecx
  00185	89 8e 78 a4 01
	00		 mov	 DWORD PTR [esi+107640], ecx
  0018b	89 8e 7c a4 01
	00		 mov	 DWORD PTR [esi+107644], ecx
  00191	89 8e 60 a4 01
	00		 mov	 DWORD PTR [esi+107616], ecx
  00197	89 8e 64 a4 01
	00		 mov	 DWORD PTR [esi+107620], ecx
  0019d	89 8e 6c a4 01
	00		 mov	 DWORD PTR [esi+107628], ecx
  001a3	89 8e 74 a4 01
	00		 mov	 DWORD PTR [esi+107636], ecx
  001a9	88 0f		 mov	 BYTE PTR [edi], cl
  001ab	88 8e 94 a5 01
	00		 mov	 BYTE PTR [esi+107924], cl
  001b1	88 8e 90 a4 01
	00		 mov	 BYTE PTR [esi+107664], cl
; File E:\Proyectos\JuegosOnlineproyectos\PB\pbblow\Piercing Blow Remake\i3Server\include\i3Base\i3Memory.h

; 144  : 			::SecureZeroMemory( pDest, sz);

  001b7	b9 c8 90 01 00	 mov	 ecx, 102600		; 000190c8H
  001bc	8d 64 24 00	 npad	 4
$LL50@i3NetworkH:
; File C:\Program Files (x86)\Windows Kits\10\Include\10.0.26100.0\um\winnt.h

; 23429:         *vptr = 0;

  001c0	c6 00 00	 mov	 BYTE PTR [eax], 0

; 23430: 
; 23431: #endif
; 23432: 
; 23433:         vptr++;

  001c3	8d 40 01	 lea	 eax, DWORD PTR [eax+1]

; 23434:         cnt--;

  001c6	83 e9 01	 sub	 ecx, 1
  001c9	75 f5		 jne	 SHORT $LL50@i3NetworkH
; File E:\Proyectos\JuegosOnlineproyectos\PB\pbblow\Piercing Blow Remake\i3Server\src\i3Base\i3NetworkHTTP.cpp

; 52   : }

  001cb	c7 46 20 00 00
	48 84		 mov	 DWORD PTR [esi+32], -2075656192 ; 84480000H
  001d2	8b c6		 mov	 eax, esi
  001d4	89 8e 54 a4 01
	00		 mov	 DWORD PTR [esi+107604], ecx
  001da	8b 4d f4	 mov	 ecx, DWORD PTR __$EHRec$[ebp]
  001dd	64 89 0d 00 00
	00 00		 mov	 DWORD PTR fs:0, ecx
  001e4	59		 pop	 ecx
  001e5	5f		 pop	 edi
  001e6	5e		 pop	 esi
  001e7	8b e5		 mov	 esp, ebp
  001e9	5d		 pop	 ebp
  001ea	c3		 ret	 0
_TEXT	ENDS
;	COMDAT text$x
text$x	SEGMENT
__unwindfunclet$??0i3NetworkHTTP@@QAE@XZ$0:
  00000	8b 4d f0	 mov	 ecx, DWORD PTR _this$[ebp]
  00003	e9 00 00 00 00	 jmp	 ??1i3ElementBase@@UAE@XZ ; i3ElementBase::~i3ElementBase
__unwindfunclet$??0i3NetworkHTTP@@QAE@XZ$1:
  00008	8b 4d f0	 mov	 ecx, DWORD PTR _this$[ebp]
  0000b	81 c1 34 13 00
	00		 add	 ecx, 4916		; 00001334H
  00011	e9 00 00 00 00	 jmp	 ??1i3List@@UAE@XZ	; i3List::~i3List
  00016	cc		 int	 3
  00017	cc		 int	 3
  00018	cc		 int	 3
  00019	cc		 int	 3
  0001a	cc		 int	 3
__ehhandler$??0i3NetworkHTTP@@QAE@XZ:
  0001b	90		 npad	 1
  0001c	90		 npad	 1
  0001d	8b 54 24 08	 mov	 edx, DWORD PTR [esp+8]
  00021	8d 42 0c	 lea	 eax, DWORD PTR [edx+12]
  00024	8b 4a f0	 mov	 ecx, DWORD PTR [edx-16]
  00027	33 c8		 xor	 ecx, eax
  00029	e8 00 00 00 00	 call	 @__security_check_cookie@4
  0002e	b8 00 00 00 00	 mov	 eax, OFFSET __ehfuncinfo$??0i3NetworkHTTP@@QAE@XZ
  00033	e9 00 00 00 00	 jmp	 ___CxxFrameHandler3
text$x	ENDS
??0i3NetworkHTTP@@QAE@XZ ENDP				; i3NetworkHTTP::i3NetworkHTTP
; Function compile flags: /Ogtp
; File E:\Proyectos\JuegosOnlineproyectos\PB\pbblow\Piercing Blow Remake\i3Server\include\i3Base\i3NetworkHTTP.h
;	COMDAT ?getRecvSize@i3NetworkHTTP@@QAEIXZ
_TEXT	SEGMENT
?getRecvSize@i3NetworkHTTP@@QAEIXZ PROC			; i3NetworkHTTP::getRecvSize, COMDAT
; _this$ = ecx

; 154  : 	UINT32			getRecvSize( void )				{ return m_nRecv; }

  00000	8b 81 a0 aa 01
	00		 mov	 eax, DWORD PTR [ecx+109216]
  00006	c3		 ret	 0
?getRecvSize@i3NetworkHTTP@@QAEIXZ ENDP			; i3NetworkHTTP::getRecvSize
_TEXT	ENDS
; Function compile flags: /Ogtp
; File E:\Proyectos\JuegosOnlineproyectos\PB\pbblow\Piercing Blow Remake\i3Server\include\i3Base\i3NetworkHTTP.h
;	COMDAT ?getFileSize@i3NetworkHTTP@@QAEIXZ
_TEXT	SEGMENT
?getFileSize@i3NetworkHTTP@@QAEIXZ PROC			; i3NetworkHTTP::getFileSize, COMDAT
; _this$ = ecx

; 153  : 	UINT32			getFileSize( void )				{ return m_nSize; }

  00000	8b 81 9c aa 01
	00		 mov	 eax, DWORD PTR [ecx+109212]
  00006	c3		 ret	 0
?getFileSize@i3NetworkHTTP@@QAEIXZ ENDP			; i3NetworkHTTP::getFileSize
_TEXT	ENDS
; Function compile flags: /Ogtp
; File E:\Proyectos\JuegosOnlineproyectos\PB\pbblow\Piercing Blow Remake\i3Server\src\i3Base\i3NetworkHTTP.cpp
;	COMDAT ?_CheckType@i3NetworkHTTP@@IAEHPAD@Z
_TEXT	SEGMENT
_pszType$ = 8						; size = 4
?_CheckType@i3NetworkHTTP@@IAEHPAD@Z PROC		; i3NetworkHTTP::_CheckType, COMDAT
; _this$ = ecx

; 131  : {

  00000	55		 push	 ebp
  00001	8b ec		 mov	 ebp, esp

; 132  : 	//INT32	rc = 1;	
; 133  : 	//if( pszType[0] != 't' )		rc = 0;
; 134  : 	//if( pszType[1] != 'e' )		rc = 0;
; 135  : 	//if( pszType[2] != 'x' )		rc = 0;
; 136  : 	//if( pszType[3] != 't' )		rc = 0;
; 137  : 	//if( pszType[4] != '/' )		rc = 0;
; 138  : 	
; 139  : 	if( pszType[5] != 'h' )			return TRUE; 

  00003	8b 4d 08	 mov	 ecx, DWORD PTR _pszType$[ebp]
  00006	80 79 05 68	 cmp	 BYTE PTR [ecx+5], 104	; 00000068H
  0000a	75 19		 jne	 SHORT $LN7@CheckType

; 140  : 	if( pszType[6] != 't' )			return TRUE; 

  0000c	80 79 06 74	 cmp	 BYTE PTR [ecx+6], 116	; 00000074H
  00010	75 13		 jne	 SHORT $LN7@CheckType

; 141  : 	if( pszType[7] != 'm' )			return TRUE; 

  00012	80 79 07 6d	 cmp	 BYTE PTR [ecx+7], 109	; 0000006dH
  00016	75 0d		 jne	 SHORT $LN7@CheckType

; 142  : 	if( pszType[8] != 'l' )			return TRUE; 

  00018	33 c0		 xor	 eax, eax
  0001a	80 79 08 6c	 cmp	 BYTE PTR [ecx+8], 108	; 0000006cH
  0001e	0f 95 c0	 setne	 al

; 143  : 		//if( rc > 0 )		return FALSE;
; 144  : 
; 145  : 	return FALSE;
; 146  : }

  00021	5d		 pop	 ebp
  00022	c2 04 00	 ret	 4
$LN7@CheckType:

; 142  : 	if( pszType[8] != 'l' )			return TRUE; 

  00025	b8 01 00 00 00	 mov	 eax, 1

; 143  : 		//if( rc > 0 )		return FALSE;
; 144  : 
; 145  : 	return FALSE;
; 146  : }

  0002a	5d		 pop	 ebp
  0002b	c2 04 00	 ret	 4
?_CheckType@i3NetworkHTTP@@IAEHPAD@Z ENDP		; i3NetworkHTTP::_CheckType
_TEXT	ENDS
; Function compile flags: /Ogtp
; File E:\Proyectos\JuegosOnlineproyectos\PB\pbblow\Piercing Blow Remake\i3Server\src\i3Base\i3NetworkHTTP.cpp
;	COMDAT ?_DisConnectPOST@i3NetworkHTTP@@IAEXXZ
_TEXT	SEGMENT
?_DisConnectPOST@i3NetworkHTTP@@IAEXXZ PROC		; i3NetworkHTTP::_DisConnectPOST, COMDAT
; _this$ = ecx

; 303  : {

  00000	56		 push	 esi
  00001	8b f1		 mov	 esi, ecx
  00003	57		 push	 edi

; 304  : 	if( m_hHttp )

  00004	8b 3d 00 00 00
	00		 mov	 edi, DWORD PTR __imp__InternetCloseHandle@4
  0000a	8b 46 14	 mov	 eax, DWORD PTR [esi+20]
  0000d	85 c0		 test	 eax, eax
  0000f	74 0a		 je	 SHORT $LN2@DisConnect

; 305  : 	{
; 306  : 		::InternetCloseHandle( m_hHttp );

  00011	50		 push	 eax
  00012	ff d7		 call	 edi

; 307  : 		m_hHttp			= NULL;

  00014	c7 46 14 00 00
	00 00		 mov	 DWORD PTR [esi+20], 0
$LN2@DisConnect:

; 308  : 	}
; 309  : 	if( m_hConnection )

  0001b	8b 46 18	 mov	 eax, DWORD PTR [esi+24]
  0001e	85 c0		 test	 eax, eax
  00020	74 0a		 je	 SHORT $LN3@DisConnect

; 310  : 	{
; 311  : 		::InternetCloseHandle( m_hConnection );

  00022	50		 push	 eax
  00023	ff d7		 call	 edi

; 312  : 		m_hConnection	= NULL;

  00025	c7 46 18 00 00
	00 00		 mov	 DWORD PTR [esi+24], 0
$LN3@DisConnect:

; 313  : 	}
; 314  : 	if( m_hInternet )

  0002c	8b 46 10	 mov	 eax, DWORD PTR [esi+16]
  0002f	85 c0		 test	 eax, eax
  00031	74 0a		 je	 SHORT $LN4@DisConnect

; 315  : 	{
; 316  : 		::InternetCloseHandle( m_hInternet );

  00033	50		 push	 eax
  00034	ff d7		 call	 edi

; 317  : 		m_hInternet		= NULL;

  00036	c7 46 10 00 00
	00 00		 mov	 DWORD PTR [esi+16], 0
$LN4@DisConnect:

; 318  : 	}
; 319  : }

  0003d	5f		 pop	 edi
  0003e	5e		 pop	 esi
  0003f	c3		 ret	 0
?_DisConnectPOST@i3NetworkHTTP@@IAEXXZ ENDP		; i3NetworkHTTP::_DisConnectPOST
_TEXT	ENDS
; Function compile flags: /Ogtp
; File E:\Proyectos\JuegosOnlineproyectos\PB\pbblow\Piercing Blow Remake\i3Server\src\i3Base\i3NetworkHTTP.cpp
;	COMDAT ?_DisConnectPUT@i3NetworkHTTP@@IAEXXZ
_TEXT	SEGMENT
?_DisConnectPUT@i3NetworkHTTP@@IAEXXZ PROC		; i3NetworkHTTP::_DisConnectPUT, COMDAT
; _this$ = ecx

; 284  : {

  00000	56		 push	 esi
  00001	8b f1		 mov	 esi, ecx
  00003	57		 push	 edi

; 285  : 	if( m_hHttp )

  00004	8b 3d 00 00 00
	00		 mov	 edi, DWORD PTR __imp__InternetCloseHandle@4
  0000a	8b 46 14	 mov	 eax, DWORD PTR [esi+20]
  0000d	85 c0		 test	 eax, eax
  0000f	74 0a		 je	 SHORT $LN2@DisConnect

; 286  : 	{
; 287  : 		::InternetCloseHandle( m_hHttp );

  00011	50		 push	 eax
  00012	ff d7		 call	 edi

; 288  : 		m_hHttp			= NULL;

  00014	c7 46 14 00 00
	00 00		 mov	 DWORD PTR [esi+20], 0
$LN2@DisConnect:

; 289  : 	}
; 290  : 	if( m_hConnection )

  0001b	8b 46 18	 mov	 eax, DWORD PTR [esi+24]
  0001e	85 c0		 test	 eax, eax
  00020	74 0a		 je	 SHORT $LN3@DisConnect

; 291  : 	{
; 292  : 		::InternetCloseHandle( m_hConnection );

  00022	50		 push	 eax
  00023	ff d7		 call	 edi

; 293  : 		m_hConnection	= NULL;

  00025	c7 46 18 00 00
	00 00		 mov	 DWORD PTR [esi+24], 0
$LN3@DisConnect:

; 294  : 	}
; 295  : 	if( m_hInternet )

  0002c	8b 46 10	 mov	 eax, DWORD PTR [esi+16]
  0002f	85 c0		 test	 eax, eax
  00031	74 0a		 je	 SHORT $LN4@DisConnect

; 296  : 	{
; 297  : 		::InternetCloseHandle( m_hInternet );

  00033	50		 push	 eax
  00034	ff d7		 call	 edi

; 298  : 		m_hInternet		= NULL;

  00036	c7 46 10 00 00
	00 00		 mov	 DWORD PTR [esi+16], 0
$LN4@DisConnect:

; 299  : 	}
; 300  : }

  0003d	5f		 pop	 edi
  0003e	5e		 pop	 esi
  0003f	c3		 ret	 0
?_DisConnectPUT@i3NetworkHTTP@@IAEXXZ ENDP		; i3NetworkHTTP::_DisConnectPUT
_TEXT	ENDS
; Function compile flags: /Ogtp
; File E:\Proyectos\JuegosOnlineproyectos\PB\pbblow\Piercing Blow Remake\i3Server\src\i3Base\i3NetworkHTTP.cpp
;	COMDAT ?_DisConnectGET@i3NetworkHTTP@@IAEXXZ
_TEXT	SEGMENT
?_DisConnectGET@i3NetworkHTTP@@IAEXXZ PROC		; i3NetworkHTTP::_DisConnectGET, COMDAT
; _this$ = ecx

; 269  : {

  00000	56		 push	 esi
  00001	8b f1		 mov	 esi, ecx

; 270  : 	if( m_hHttp )

  00003	8b 46 14	 mov	 eax, DWORD PTR [esi+20]
  00006	85 c0		 test	 eax, eax
  00008	74 0e		 je	 SHORT $LN2@DisConnect

; 271  : 	{
; 272  : 		::InternetCloseHandle( m_hHttp );

  0000a	50		 push	 eax
  0000b	ff 15 00 00 00
	00		 call	 DWORD PTR __imp__InternetCloseHandle@4

; 273  : 		m_hHttp = NULL;

  00011	c7 46 14 00 00
	00 00		 mov	 DWORD PTR [esi+20], 0
$LN2@DisConnect:

; 274  : 	}
; 275  : 
; 276  : 	if( m_hInternet )

  00018	8b 46 10	 mov	 eax, DWORD PTR [esi+16]
  0001b	85 c0		 test	 eax, eax
  0001d	74 0e		 je	 SHORT $LN3@DisConnect

; 277  : 	{
; 278  : 		::InternetCloseHandle( m_hInternet );

  0001f	50		 push	 eax
  00020	ff 15 00 00 00
	00		 call	 DWORD PTR __imp__InternetCloseHandle@4

; 279  : 		m_hInternet = NULL;

  00026	c7 46 10 00 00
	00 00		 mov	 DWORD PTR [esi+16], 0
$LN3@DisConnect:

; 280  : 	}
; 281  : }

  0002d	5e		 pop	 esi
  0002e	c3		 ret	 0
?_DisConnectGET@i3NetworkHTTP@@IAEXXZ ENDP		; i3NetworkHTTP::_DisConnectGET
_TEXT	ENDS
; Function compile flags: /Ogtp
; File E:\Proyectos\JuegosOnlineproyectos\PB\pbblow\Piercing Blow Remake\i3Server\src\i3Base\i3NetworkHTTP.cpp
;	COMDAT ?_ConnectPOST@i3NetworkHTTP@@IAEHPAD@Z
_TEXT	SEGMENT
_dwSize$1 = -4						; size = 4
_pszURL$ = 8						; size = 4
_dwData$2 = 8						; size = 4
?_ConnectPOST@i3NetworkHTTP@@IAEHPAD@Z PROC		; i3NetworkHTTP::_ConnectPOST, COMDAT
; _this$ = ecx

; 205  : {

  00000	55		 push	 ebp
  00001	8b ec		 mov	 ebp, esp
  00003	51		 push	 ecx
  00004	53		 push	 ebx
  00005	56		 push	 esi
  00006	57		 push	 edi
  00007	8b f9		 mov	 edi, ecx

; 206  : 	m_State = HTTP_STATE_POST;
; 207  : 
; 208  : 	ParseURL(pszURL, m_szProtocol, m_szAddress, m_nPort, m_szURI);

  00009	8d 87 32 0b 00
	00		 lea	 eax, DWORD PTR [edi+2866]
  0000f	c7 87 64 a4 01
	00 08 00 00 00	 mov	 DWORD PTR [edi+107620], 8
  00019	50		 push	 eax
  0001a	8d 77 24	 lea	 esi, DWORD PTR [edi+36]
  0001d	56		 push	 esi
  0001e	8d 9f 32 07 00
	00		 lea	 ebx, DWORD PTR [edi+1842]
  00024	53		 push	 ebx
  00025	8d 87 32 03 00
	00		 lea	 eax, DWORD PTR [edi+818]
  0002b	50		 push	 eax
  0002c	ff 75 08	 push	 DWORD PTR _pszURL$[ebp]
  0002f	e8 00 00 00 00	 call	 ?ParseURL@i3NetworkHTTP@@QAEXPAD00AAG0@Z ; i3NetworkHTTP::ParseURL

; 209  : 
; 210  : 	// Initializes an application's use of the WinINet functions.
; 211  : 	{
; 212  : 		m_hInternet = InternetOpen(m_szAgentName, INTERNET_OPEN_TYPE_PRECONFIG , NULL, NULL, 0);

  00034	6a 00		 push	 0
  00036	6a 00		 push	 0
  00038	6a 00		 push	 0
  0003a	6a 00		 push	 0
  0003c	8d 47 26	 lea	 eax, DWORD PTR [edi+38]
  0003f	50		 push	 eax
  00040	ff 15 00 00 00
	00		 call	 DWORD PTR __imp__InternetOpenA@20
  00046	8b c8		 mov	 ecx, eax
  00048	89 4f 10	 mov	 DWORD PTR [edi+16], ecx

; 213  : 			
; 214  : 		if (!m_hInternet) 

  0004b	85 c9		 test	 ecx, ecx
  0004d	75 30		 jne	 SHORT $LN2@ConnectPOS

; 215  : 		{
; 216  : 			i3String::Copy( m_szLastError, "Cannot open internet", 1024);

  0004f	68 00 04 00 00	 push	 1024			; 00000400H
  00054	8d 87 98 a6 01
	00		 lea	 eax, DWORD PTR [edi+108184]
  0005a	68 00 00 00 00	 push	 OFFSET ??_C@_0BF@PJCNEGDJ@Cannot?5open?5internet@
  0005f	50		 push	 eax
  00060	e8 00 00 00 00	 call	 ?Copy@i3String@@YAXPADPBDH@Z ; i3String::Copy
  00065	83 c4 0c	 add	 esp, 12			; 0000000cH

; 217  : 			m_nLastErrorCode = ::GetLastError();

  00068	ff 15 00 00 00
	00		 call	 DWORD PTR __imp__GetLastError@0
  0006e	89 87 98 aa 01
	00		 mov	 DWORD PTR [edi+109208], eax

; 218  : 			return FALSE;

  00074	33 c0		 xor	 eax, eax
  00076	5f		 pop	 edi

; 262  : 	}
; 263  : 
; 264  : 	return TRUE;
; 265  : }

  00077	5e		 pop	 esi
  00078	5b		 pop	 ebx
  00079	8b e5		 mov	 esp, ebp
  0007b	5d		 pop	 ebp
  0007c	c2 04 00	 ret	 4
$LN2@ConnectPOS:

; 219  : 		}
; 220  : 	}
; 221  : 		
; 222  : 	// Opens an File Transfer Protocol (FTP), Gopher, or HTTP session for a given site.
; 223  : 	{
; 224  : 		m_hConnection=::InternetConnect(m_hInternet,							// internet opened handle

  0007f	6a 00		 push	 0
  00081	68 00 00 40 04	 push	 71303168		; 04400000H
  00086	6a 03		 push	 3
  00088	8d 87 2e 02 00
	00		 lea	 eax, DWORD PTR [edi+558]
  0008e	50		 push	 eax
  0008f	8d 87 2a 01 00
	00		 lea	 eax, DWORD PTR [edi+298]
  00095	50		 push	 eax
  00096	0f b7 06	 movzx	 eax, WORD PTR [esi]
  00099	50		 push	 eax
  0009a	53		 push	 ebx
  0009b	51		 push	 ecx
  0009c	ff 15 00 00 00
	00		 call	 DWORD PTR __imp__InternetConnectA@32
  000a2	89 47 18	 mov	 DWORD PTR [edi+24], eax

; 225  : 										m_szAddress,							// server name
; 226  : 										(UINT16)m_nPort,						// ports
; 227  : 										m_szUserName,							// user name
; 228  : 										m_szUserPW,							// password 
; 229  : 										INTERNET_SERVICE_HTTP,				// service type
; 230  : 										INTERNET_FLAG_KEEP_CONNECTION | INTERNET_FLAG_NO_CACHE_WRITE | INTERNET_FLAG_KEEP_CONNECTION,	// service option																														
; 231  : 										0);		
; 232  : 		if (!m_hConnection) 

  000a5	85 c0		 test	 eax, eax
  000a7	75 40		 jne	 SHORT $LN3@ConnectPOS

; 233  : 		{			
; 234  : 			i3String::Copy( m_szLastError, "Cannot connect to internet", 1024);

  000a9	68 00 04 00 00	 push	 1024			; 00000400H
  000ae	8d 87 98 a6 01
	00		 lea	 eax, DWORD PTR [edi+108184]
  000b4	68 00 00 00 00	 push	 OFFSET ??_C@_0BL@EIHAOHFH@Cannot?5connect?5to?5internet@
  000b9	50		 push	 eax
  000ba	e8 00 00 00 00	 call	 ?Copy@i3String@@YAXPADPBDH@Z ; i3String::Copy
  000bf	83 c4 0c	 add	 esp, 12			; 0000000cH

; 235  : 			m_nLastErrorCode = ::GetLastError();

  000c2	ff 15 00 00 00
	00		 call	 DWORD PTR __imp__GetLastError@0

; 236  : 			::CloseHandle(m_hInternet);

  000c8	ff 77 10	 push	 DWORD PTR [edi+16]
  000cb	89 87 98 aa 01
	00		 mov	 DWORD PTR [edi+109208], eax
  000d1	ff 15 00 00 00
	00		 call	 DWORD PTR __imp__CloseHandle@4

; 237  : 			m_hInternet = NULL;

  000d7	c7 47 10 00 00
	00 00		 mov	 DWORD PTR [edi+16], 0

; 238  : 			return FALSE;

  000de	33 c0		 xor	 eax, eax
  000e0	5f		 pop	 edi

; 262  : 	}
; 263  : 
; 264  : 	return TRUE;
; 265  : }

  000e1	5e		 pop	 esi
  000e2	5b		 pop	 ebx
  000e3	8b e5		 mov	 esp, ebp
  000e5	5d		 pop	 ebp
  000e6	c2 04 00	 ret	 4
$LN3@ConnectPOS:

; 239  : 		}
; 240  : 	}
; 241  : 
; 242  : 	{
; 243  : 		DWORD dwData = 0;
; 244  : 		DWORD dwSize = sizeof(dwData); 
; 245  : 
; 246  : 		InternetQueryOption( m_hConnection, INTERNET_OPTION_MAX_CONNS_PER_SERVER, &dwData, &dwSize);

  000e9	8d 4d fc	 lea	 ecx, DWORD PTR _dwSize$1[ebp]
  000ec	c7 45 08 00 00
	00 00		 mov	 DWORD PTR _dwData$2[ebp], 0
  000f3	51		 push	 ecx
  000f4	8d 4d 08	 lea	 ecx, DWORD PTR _dwData$2[ebp]
  000f7	c7 45 fc 04 00
	00 00		 mov	 DWORD PTR _dwSize$1[ebp], 4
  000fe	51		 push	 ecx
  000ff	6a 49		 push	 73			; 00000049H
  00101	50		 push	 eax
  00102	ff 15 00 00 00
	00		 call	 DWORD PTR __imp__InternetQueryOptionA@16

; 247  : 
; 248  : 		dwData = 40;
; 249  : 		InternetSetOption( m_hConnection, INTERNET_OPTION_MAX_CONNS_PER_1_0_SERVER, &dwData, sizeof(dwData) );

  00108	6a 04		 push	 4
  0010a	8d 45 08	 lea	 eax, DWORD PTR _dwData$2[ebp]
  0010d	c7 45 08 28 00
	00 00		 mov	 DWORD PTR _dwData$2[ebp], 40 ; 00000028H
  00114	50		 push	 eax
  00115	6a 4a		 push	 74			; 0000004aH
  00117	ff 77 18	 push	 DWORD PTR [edi+24]
  0011a	ff 15 00 00 00
	00		 call	 DWORD PTR __imp__InternetSetOptionA@16

; 250  : 	}
; 251  : 
; 252  : 
; 253  : 	// Attempts to make a connection to the Internet.
; 254  : 	if(::InternetAttemptConnect(NULL) != ERROR_SUCCESS)

  00120	6a 00		 push	 0
  00122	ff 15 00 00 00
	00		 call	 DWORD PTR __imp__InternetAttemptConnect@4
  00128	85 c0		 test	 eax, eax
  0012a	74 35		 je	 SHORT $LN4@ConnectPOS

; 255  : 	{		
; 256  : 		m_nLastErrorCode=::GetLastError();

  0012c	ff 15 00 00 00
	00		 call	 DWORD PTR __imp__GetLastError@0

; 257  : 		::CloseHandle(m_hConnection);

  00132	ff 77 18	 push	 DWORD PTR [edi+24]
  00135	8b 35 00 00 00
	00		 mov	 esi, DWORD PTR __imp__CloseHandle@4
  0013b	89 87 98 aa 01
	00		 mov	 DWORD PTR [edi+109208], eax
  00141	ff d6		 call	 esi

; 258  : 		::CloseHandle(m_hInternet);

  00143	ff 77 10	 push	 DWORD PTR [edi+16]
  00146	ff d6		 call	 esi

; 259  : 		m_hConnection = NULL;

  00148	c7 47 18 00 00
	00 00		 mov	 DWORD PTR [edi+24], 0

; 260  : 		m_hInternet = NULL;
; 261  : 		return FALSE;

  0014f	33 c0		 xor	 eax, eax
  00151	c7 47 10 00 00
	00 00		 mov	 DWORD PTR [edi+16], 0
  00158	5f		 pop	 edi

; 262  : 	}
; 263  : 
; 264  : 	return TRUE;
; 265  : }

  00159	5e		 pop	 esi
  0015a	5b		 pop	 ebx
  0015b	8b e5		 mov	 esp, ebp
  0015d	5d		 pop	 ebp
  0015e	c2 04 00	 ret	 4
$LN4@ConnectPOS:
  00161	5f		 pop	 edi
  00162	5e		 pop	 esi
  00163	b8 01 00 00 00	 mov	 eax, 1
  00168	5b		 pop	 ebx
  00169	8b e5		 mov	 esp, ebp
  0016b	5d		 pop	 ebp
  0016c	c2 04 00	 ret	 4
?_ConnectPOST@i3NetworkHTTP@@IAEHPAD@Z ENDP		; i3NetworkHTTP::_ConnectPOST
_TEXT	ENDS
; Function compile flags: /Ogtp
; File E:\Proyectos\JuegosOnlineproyectos\PB\pbblow\Piercing Blow Remake\i3Server\src\i3Base\i3NetworkHTTP.cpp
;	COMDAT ?_ConnectPUT@i3NetworkHTTP@@IAEHPAD@Z
_TEXT	SEGMENT
_pszURL$ = 8						; size = 4
?_ConnectPUT@i3NetworkHTTP@@IAEHPAD@Z PROC		; i3NetworkHTTP::_ConnectPUT, COMDAT
; _this$ = ecx

; 164  : {	

  00000	55		 push	 ebp
  00001	8b ec		 mov	 ebp, esp
  00003	53		 push	 ebx
  00004	56		 push	 esi
  00005	57		 push	 edi
  00006	8b f9		 mov	 edi, ecx

; 165  : 	ParseURL(pszURL, m_szProtocol, m_szAddress, m_nPort, m_szURI);

  00008	8d b7 32 0b 00
	00		 lea	 esi, DWORD PTR [edi+2866]
  0000e	56		 push	 esi
  0000f	8d 5f 24	 lea	 ebx, DWORD PTR [edi+36]
  00012	53		 push	 ebx
  00013	8d 87 32 07 00
	00		 lea	 eax, DWORD PTR [edi+1842]
  00019	50		 push	 eax
  0001a	8d 87 32 03 00
	00		 lea	 eax, DWORD PTR [edi+818]
  00020	50		 push	 eax
  00021	ff 75 08	 push	 DWORD PTR _pszURL$[ebp]
  00024	e8 00 00 00 00	 call	 ?ParseURL@i3NetworkHTTP@@QAEXPAD00AAG0@Z ; i3NetworkHTTP::ParseURL

; 166  : 
; 167  : 	// Open Internet
; 168  : 	m_hInternet = ::InternetOpen( "I3NETWORK_HTTP", INTERNET_OPEN_TYPE_PRECONFIG, NULL, NULL, 0 );

  00029	6a 00		 push	 0
  0002b	6a 00		 push	 0
  0002d	6a 00		 push	 0
  0002f	6a 00		 push	 0
  00031	68 00 00 00 00	 push	 OFFSET ??_C@_0P@GPAIGMIA@I3NETWORK_HTTP@
  00036	ff 15 00 00 00
	00		 call	 DWORD PTR __imp__InternetOpenA@20
  0003c	8b c8		 mov	 ecx, eax
  0003e	89 4f 10	 mov	 DWORD PTR [edi+16], ecx

; 169  : 	if( m_hInternet == NULL )

  00041	85 c9		 test	 ecx, ecx
  00043	75 2e		 jne	 SHORT $LN2@ConnectPUT

; 170  : 	{
; 171  : 		// Error
; 172  : 		i3String::Copy( m_szLastError, "Cannot open internet", 1024);

  00045	68 00 04 00 00	 push	 1024			; 00000400H
  0004a	8d 87 98 a6 01
	00		 lea	 eax, DWORD PTR [edi+108184]
  00050	68 00 00 00 00	 push	 OFFSET ??_C@_0BF@PJCNEGDJ@Cannot?5open?5internet@
  00055	50		 push	 eax
  00056	e8 00 00 00 00	 call	 ?Copy@i3String@@YAXPADPBDH@Z ; i3String::Copy
  0005b	83 c4 0c	 add	 esp, 12			; 0000000cH

; 173  : 		m_nLastErrorCode=::GetLastError();

  0005e	ff 15 00 00 00
	00		 call	 DWORD PTR __imp__GetLastError@0
  00064	89 87 98 aa 01
	00		 mov	 DWORD PTR [edi+109208], eax

; 174  : 		return FALSE;

  0006a	33 c0		 xor	 eax, eax
  0006c	5f		 pop	 edi

; 198  : 		return FALSE;
; 199  : 	}
; 200  : 
; 201  : 	return TRUE;
; 202  : }

  0006d	5e		 pop	 esi
  0006e	5b		 pop	 ebx
  0006f	5d		 pop	 ebp
  00070	c2 04 00	 ret	 4
$LN2@ConnectPUT:

; 175  : 	}
; 176  : 
; 177  : 	// Open URL
; 178  : 	m_hConnection = ::InternetConnect( m_hInternet, m_szAddress, m_nPort, m_szUserName, m_szUserPW, INTERNET_SERVICE_HTTP, 0, 0 );

  00073	6a 00		 push	 0
  00075	6a 00		 push	 0
  00077	6a 03		 push	 3
  00079	8d 87 2e 02 00
	00		 lea	 eax, DWORD PTR [edi+558]
  0007f	50		 push	 eax
  00080	8d 87 2a 01 00
	00		 lea	 eax, DWORD PTR [edi+298]
  00086	50		 push	 eax
  00087	0f b7 03	 movzx	 eax, WORD PTR [ebx]
  0008a	50		 push	 eax
  0008b	8d 87 32 07 00
	00		 lea	 eax, DWORD PTR [edi+1842]
  00091	50		 push	 eax
  00092	51		 push	 ecx
  00093	ff 15 00 00 00
	00		 call	 DWORD PTR __imp__InternetConnectA@32
  00099	89 47 18	 mov	 DWORD PTR [edi+24], eax

; 179  : 
; 180  : 	if( m_hConnection == NULL )

  0009c	85 c0		 test	 eax, eax
  0009e	75 3e		 jne	 SHORT $LN3@ConnectPUT

; 181  : 	{
; 182  : 		// Error
; 183  : 		i3String::Copy( m_szLastError, "Cannot connect to internet", 1024);

  000a0	68 00 04 00 00	 push	 1024			; 00000400H
  000a5	8d 87 98 a6 01
	00		 lea	 eax, DWORD PTR [edi+108184]
  000ab	68 00 00 00 00	 push	 OFFSET ??_C@_0BL@EIHAOHFH@Cannot?5connect?5to?5internet@
  000b0	50		 push	 eax
  000b1	e8 00 00 00 00	 call	 ?Copy@i3String@@YAXPADPBDH@Z ; i3String::Copy
  000b6	83 c4 0c	 add	 esp, 12			; 0000000cH

; 184  : 		m_nLastErrorCode=::GetLastError();

  000b9	ff 15 00 00 00
	00		 call	 DWORD PTR __imp__GetLastError@0

; 185  : 		::InternetCloseHandle( m_hInternet );

  000bf	ff 77 10	 push	 DWORD PTR [edi+16]
  000c2	89 87 98 aa 01
	00		 mov	 DWORD PTR [edi+109208], eax
  000c8	ff 15 00 00 00
	00		 call	 DWORD PTR __imp__InternetCloseHandle@4

; 186  : 		m_hInternet = NULL;

  000ce	c7 47 10 00 00
	00 00		 mov	 DWORD PTR [edi+16], 0

; 187  : 		return FALSE;

  000d5	33 c0		 xor	 eax, eax
  000d7	5f		 pop	 edi

; 198  : 		return FALSE;
; 199  : 	}
; 200  : 
; 201  : 	return TRUE;
; 202  : }

  000d8	5e		 pop	 esi
  000d9	5b		 pop	 ebx
  000da	5d		 pop	 ebp
  000db	c2 04 00	 ret	 4
$LN3@ConnectPUT:

; 188  : 	}
; 189  : 
; 190  : 	m_hHttp = ::HttpOpenRequest( m_hConnection, _HTTP_VERB_PUT, m_szURI, NULL, NULL, NULL, 0, 0 );

  000de	6a 00		 push	 0
  000e0	6a 00		 push	 0
  000e2	6a 00		 push	 0
  000e4	6a 00		 push	 0
  000e6	6a 00		 push	 0
  000e8	56		 push	 esi
  000e9	68 00 00 00 00	 push	 OFFSET ??_C@_03KBBGFLEK@PUT@
  000ee	50		 push	 eax
  000ef	ff 15 00 00 00
	00		 call	 DWORD PTR __imp__HttpOpenRequestA@32
  000f5	89 47 14	 mov	 DWORD PTR [edi+20], eax

; 191  : 
; 192  : 	if( m_hHttp == NULL )

  000f8	85 c0		 test	 eax, eax
  000fa	75 25		 jne	 SHORT $LN4@ConnectPUT

; 193  : 	{
; 194  : 		// Error
; 195  : 		m_nLastErrorCode=::GetLastError();

  000fc	ff 15 00 00 00
	00		 call	 DWORD PTR __imp__GetLastError@0

; 196  : 		::CloseHandle(m_hConnection);

  00102	ff 77 18	 push	 DWORD PTR [edi+24]
  00105	8b 35 00 00 00
	00		 mov	 esi, DWORD PTR __imp__CloseHandle@4
  0010b	89 87 98 aa 01
	00		 mov	 DWORD PTR [edi+109208], eax
  00111	ff d6		 call	 esi

; 197  : 		::CloseHandle(m_hInternet);

  00113	ff 77 10	 push	 DWORD PTR [edi+16]
  00116	ff d6		 call	 esi
  00118	5f		 pop	 edi

; 198  : 		return FALSE;
; 199  : 	}
; 200  : 
; 201  : 	return TRUE;
; 202  : }

  00119	5e		 pop	 esi
  0011a	33 c0		 xor	 eax, eax
  0011c	5b		 pop	 ebx
  0011d	5d		 pop	 ebp
  0011e	c2 04 00	 ret	 4
$LN4@ConnectPUT:
  00121	5f		 pop	 edi
  00122	5e		 pop	 esi
  00123	b8 01 00 00 00	 mov	 eax, 1
  00128	5b		 pop	 ebx
  00129	5d		 pop	 ebp
  0012a	c2 04 00	 ret	 4
?_ConnectPUT@i3NetworkHTTP@@IAEHPAD@Z ENDP		; i3NetworkHTTP::_ConnectPUT
_TEXT	ENDS
; Function compile flags: /Ogtp
; File E:\Proyectos\JuegosOnlineproyectos\PB\pbblow\Piercing Blow Remake\i3Server\src\i3Base\i3NetworkHTTP.cpp
;	COMDAT ?_ConnectGET@i3NetworkHTTP@@IAEHPAD@Z
_TEXT	SEGMENT
_pszURL$ = 8						; size = 4
?_ConnectGET@i3NetworkHTTP@@IAEHPAD@Z PROC		; i3NetworkHTTP::_ConnectGET, COMDAT
; _this$ = ecx

; 149  : {

  00000	56		 push	 esi

; 150  : 	// Open Internet
; 151  : 	m_hInternet = ::InternetOpen( m_szAgentName, INTERNET_OPEN_TYPE_PRECONFIG, NULL, NULL, 0 );

  00001	6a 00		 push	 0
  00003	6a 00		 push	 0
  00005	8b f1		 mov	 esi, ecx
  00007	6a 00		 push	 0
  00009	6a 00		 push	 0
  0000b	8d 46 26	 lea	 eax, DWORD PTR [esi+38]
  0000e	50		 push	 eax
  0000f	ff 15 00 00 00
	00		 call	 DWORD PTR __imp__InternetOpenA@20
  00015	89 46 10	 mov	 DWORD PTR [esi+16], eax

; 152  : 	if( m_hInternet == NULL )

  00018	85 c0		 test	 eax, eax
  0001a	75 2b		 jne	 SHORT $LN2@ConnectGET

; 153  : 	{
; 154  : 		// Error
; 155  : 		i3String::Copy( m_szLastError, "Cannot open internet", 1024);

  0001c	68 00 04 00 00	 push	 1024			; 00000400H
  00021	8d 86 98 a6 01
	00		 lea	 eax, DWORD PTR [esi+108184]
  00027	68 00 00 00 00	 push	 OFFSET ??_C@_0BF@PJCNEGDJ@Cannot?5open?5internet@
  0002c	50		 push	 eax
  0002d	e8 00 00 00 00	 call	 ?Copy@i3String@@YAXPADPBDH@Z ; i3String::Copy
  00032	83 c4 0c	 add	 esp, 12			; 0000000cH

; 156  : 		m_nLastErrorCode=::GetLastError();

  00035	ff 15 00 00 00
	00		 call	 DWORD PTR __imp__GetLastError@0
  0003b	89 86 98 aa 01
	00		 mov	 DWORD PTR [esi+109208], eax

; 157  : 		return FALSE;

  00041	33 c0		 xor	 eax, eax
  00043	5e		 pop	 esi

; 161  : }

  00044	c2 04 00	 ret	 4
$LN2@ConnectGET:

; 158  : 	}
; 159  : 	
; 160  : 	return TRUE;

  00047	b8 01 00 00 00	 mov	 eax, 1
  0004c	5e		 pop	 esi

; 161  : }

  0004d	c2 04 00	 ret	 4
?_ConnectGET@i3NetworkHTTP@@IAEHPAD@Z ENDP		; i3NetworkHTTP::_ConnectGET
_TEXT	ENDS
; Function compile flags: /Ogtp
; File E:\Proyectos\JuegosOnlineproyectos\PB\pbblow\Piercing Blow Remake\i3Server\src\i3Base\i3NetworkHTTP.cpp
;	COMDAT ?_BindObjectRefByType@i3NetworkHTTP@@SAPAV1@PAXW4I3_CLASSMETA_TYPE@@@Z
_TEXT	SEGMENT
_pBuf$ = 8						; size = 4
_type$ = 12						; size = 4
?_BindObjectRefByType@i3NetworkHTTP@@SAPAV1@PAXW4I3_CLASSMETA_TYPE@@@Z PROC ; i3NetworkHTTP::_BindObjectRefByType, COMDAT

; 6    : I3_CLASS_INSTANCE( i3NetworkHTTP, i3ElementBase );

  00000	55		 push	 ebp
  00001	8b ec		 mov	 ebp, esp
  00003	8b 0d 00 00 00
	00		 mov	 ecx, DWORD PTR ?s_pClassMetai3NetworkHTTP@i3NetworkHTTP@@2PAVi3ClassMeta@@A ; i3NetworkHTTP::s_pClassMetai3NetworkHTTP
  00009	ff 75 0c	 push	 DWORD PTR _type$[ebp]
  0000c	ff 75 08	 push	 DWORD PTR _pBuf$[ebp]
  0000f	8b 01		 mov	 eax, DWORD PTR [ecx]
  00011	ff 50 08	 call	 DWORD PTR [eax+8]
  00014	5d		 pop	 ebp
  00015	c3		 ret	 0
?_BindObjectRefByType@i3NetworkHTTP@@SAPAV1@PAXW4I3_CLASSMETA_TYPE@@@Z ENDP ; i3NetworkHTTP::_BindObjectRefByType
_TEXT	ENDS
; Function compile flags: /Ogtp
; File E:\Proyectos\JuegosOnlineproyectos\PB\pbblow\Piercing Blow Remake\i3Server\src\i3Base\i3NetworkHTTP.cpp
; File E:\Proyectos\JuegosOnlineproyectos\PB\pbblow\Piercing Blow Remake\i3Server\include\i3Base\i3ElementBase.h
; File E:\Proyectos\JuegosOnlineproyectos\PB\pbblow\Piercing Blow Remake\i3Server\src\i3Base\i3NetworkHTTP.cpp
;	COMDAT ?_BindObjectByType@i3NetworkHTTP@@SAPAV1@PAXW4I3_CLASSMETA_TYPE@@@Z
_TEXT	SEGMENT
_pBuf$ = 8						; size = 4
_type$ = 12						; size = 4
?_BindObjectByType@i3NetworkHTTP@@SAPAV1@PAXW4I3_CLASSMETA_TYPE@@@Z PROC ; i3NetworkHTTP::_BindObjectByType, COMDAT

; 6    : I3_CLASS_INSTANCE( i3NetworkHTTP, i3ElementBase );

  00000	55		 push	 ebp
  00001	8b ec		 mov	 ebp, esp
  00003	8b 0d 00 00 00
	00		 mov	 ecx, DWORD PTR ?s_pClassMetai3NetworkHTTP@i3NetworkHTTP@@2PAVi3ClassMeta@@A ; i3NetworkHTTP::s_pClassMetai3NetworkHTTP
  00009	ff 75 0c	 push	 DWORD PTR _type$[ebp]
  0000c	ff 75 08	 push	 DWORD PTR _pBuf$[ebp]
  0000f	8b 01		 mov	 eax, DWORD PTR [ecx]
  00011	ff 50 08	 call	 DWORD PTR [eax+8]
; File E:\Proyectos\JuegosOnlineproyectos\PB\pbblow\Piercing Blow Remake\i3Server\include\i3Base\i3ElementBase.h

; 392  : 		m_RefCount++;

  00014	ff 40 04	 inc	 DWORD PTR [eax+4]
; File E:\Proyectos\JuegosOnlineproyectos\PB\pbblow\Piercing Blow Remake\i3Server\src\i3Base\i3NetworkHTTP.cpp

; 6    : I3_CLASS_INSTANCE( i3NetworkHTTP, i3ElementBase );

  00017	5d		 pop	 ebp
  00018	c3		 ret	 0
?_BindObjectByType@i3NetworkHTTP@@SAPAV1@PAXW4I3_CLASSMETA_TYPE@@@Z ENDP ; i3NetworkHTTP::_BindObjectByType
_TEXT	ENDS
; Function compile flags: /Ogtp
; File E:\Proyectos\JuegosOnlineproyectos\PB\pbblow\Piercing Blow Remake\i3Server\src\i3Base\i3NetworkHTTP.cpp
;	COMDAT ?_NewObjectRefByType@i3NetworkHTTP@@SAPAV1@W4I3_CLASSMETA_TYPE@@@Z
_TEXT	SEGMENT
_type$ = 8						; size = 4
?_NewObjectRefByType@i3NetworkHTTP@@SAPAV1@W4I3_CLASSMETA_TYPE@@@Z PROC ; i3NetworkHTTP::_NewObjectRefByType, COMDAT

; 6    : I3_CLASS_INSTANCE( i3NetworkHTTP, i3ElementBase );

  00000	55		 push	 ebp
  00001	8b ec		 mov	 ebp, esp
  00003	8b 0d 00 00 00
	00		 mov	 ecx, DWORD PTR ?s_pClassMetai3NetworkHTTP@i3NetworkHTTP@@2PAVi3ClassMeta@@A ; i3NetworkHTTP::s_pClassMetai3NetworkHTTP
  00009	ff 75 08	 push	 DWORD PTR _type$[ebp]
  0000c	8b 01		 mov	 eax, DWORD PTR [ecx]
  0000e	ff 50 04	 call	 DWORD PTR [eax+4]
  00011	5d		 pop	 ebp
  00012	c3		 ret	 0
?_NewObjectRefByType@i3NetworkHTTP@@SAPAV1@W4I3_CLASSMETA_TYPE@@@Z ENDP ; i3NetworkHTTP::_NewObjectRefByType
_TEXT	ENDS
; Function compile flags: /Ogtp
; File E:\Proyectos\JuegosOnlineproyectos\PB\pbblow\Piercing Blow Remake\i3Server\src\i3Base\i3NetworkHTTP.cpp
; File E:\Proyectos\JuegosOnlineproyectos\PB\pbblow\Piercing Blow Remake\i3Server\include\i3Base\i3ElementBase.h
; File E:\Proyectos\JuegosOnlineproyectos\PB\pbblow\Piercing Blow Remake\i3Server\src\i3Base\i3NetworkHTTP.cpp
;	COMDAT ?_NewObjectByType@i3NetworkHTTP@@SAPAV1@W4I3_CLASSMETA_TYPE@@@Z
_TEXT	SEGMENT
_type$ = 8						; size = 4
?_NewObjectByType@i3NetworkHTTP@@SAPAV1@W4I3_CLASSMETA_TYPE@@@Z PROC ; i3NetworkHTTP::_NewObjectByType, COMDAT

; 6    : I3_CLASS_INSTANCE( i3NetworkHTTP, i3ElementBase );

  00000	55		 push	 ebp
  00001	8b ec		 mov	 ebp, esp
  00003	8b 0d 00 00 00
	00		 mov	 ecx, DWORD PTR ?s_pClassMetai3NetworkHTTP@i3NetworkHTTP@@2PAVi3ClassMeta@@A ; i3NetworkHTTP::s_pClassMetai3NetworkHTTP
  00009	ff 75 08	 push	 DWORD PTR _type$[ebp]
  0000c	8b 01		 mov	 eax, DWORD PTR [ecx]
  0000e	ff 50 04	 call	 DWORD PTR [eax+4]
; File E:\Proyectos\JuegosOnlineproyectos\PB\pbblow\Piercing Blow Remake\i3Server\include\i3Base\i3ElementBase.h

; 392  : 		m_RefCount++;

  00011	ff 40 04	 inc	 DWORD PTR [eax+4]
; File E:\Proyectos\JuegosOnlineproyectos\PB\pbblow\Piercing Blow Remake\i3Server\src\i3Base\i3NetworkHTTP.cpp

; 6    : I3_CLASS_INSTANCE( i3NetworkHTTP, i3ElementBase );

  00014	5d		 pop	 ebp
  00015	c3		 ret	 0
?_NewObjectByType@i3NetworkHTTP@@SAPAV1@W4I3_CLASSMETA_TYPE@@@Z ENDP ; i3NetworkHTTP::_NewObjectByType
_TEXT	ENDS
; Function compile flags: /Ogtp
; File E:\Proyectos\JuegosOnlineproyectos\PB\pbblow\Piercing Blow Remake\i3Server\src\i3Base\i3NetworkHTTP.cpp
;	COMDAT ?_BindObjectRef@i3NetworkHTTP@@SAPAV1@PAX@Z
_TEXT	SEGMENT
_pBuf$ = 8						; size = 4
?_BindObjectRef@i3NetworkHTTP@@SAPAV1@PAX@Z PROC	; i3NetworkHTTP::_BindObjectRef, COMDAT

; 6    : I3_CLASS_INSTANCE( i3NetworkHTTP, i3ElementBase );

  00000	55		 push	 ebp
  00001	8b ec		 mov	 ebp, esp
  00003	8b 0d 00 00 00
	00		 mov	 ecx, DWORD PTR ?s_pClassMetai3NetworkHTTP@i3NetworkHTTP@@2PAVi3ClassMeta@@A ; i3NetworkHTTP::s_pClassMetai3NetworkHTTP
  00009	6a 00		 push	 0
  0000b	ff 75 08	 push	 DWORD PTR _pBuf$[ebp]
  0000e	8b 01		 mov	 eax, DWORD PTR [ecx]
  00010	ff 50 08	 call	 DWORD PTR [eax+8]
  00013	5d		 pop	 ebp
  00014	c3		 ret	 0
?_BindObjectRef@i3NetworkHTTP@@SAPAV1@PAX@Z ENDP	; i3NetworkHTTP::_BindObjectRef
_TEXT	ENDS
; Function compile flags: /Ogtp
; File E:\Proyectos\JuegosOnlineproyectos\PB\pbblow\Piercing Blow Remake\i3Server\src\i3Base\i3NetworkHTTP.cpp
; File E:\Proyectos\JuegosOnlineproyectos\PB\pbblow\Piercing Blow Remake\i3Server\include\i3Base\i3ElementBase.h
; File E:\Proyectos\JuegosOnlineproyectos\PB\pbblow\Piercing Blow Remake\i3Server\src\i3Base\i3NetworkHTTP.cpp
;	COMDAT ?_BindObject@i3NetworkHTTP@@SAPAV1@PAX@Z
_TEXT	SEGMENT
_pBuf$ = 8						; size = 4
?_BindObject@i3NetworkHTTP@@SAPAV1@PAX@Z PROC		; i3NetworkHTTP::_BindObject, COMDAT

; 6    : I3_CLASS_INSTANCE( i3NetworkHTTP, i3ElementBase );

  00000	55		 push	 ebp
  00001	8b ec		 mov	 ebp, esp
  00003	8b 0d 00 00 00
	00		 mov	 ecx, DWORD PTR ?s_pClassMetai3NetworkHTTP@i3NetworkHTTP@@2PAVi3ClassMeta@@A ; i3NetworkHTTP::s_pClassMetai3NetworkHTTP
  00009	6a 00		 push	 0
  0000b	ff 75 08	 push	 DWORD PTR _pBuf$[ebp]
  0000e	8b 01		 mov	 eax, DWORD PTR [ecx]
  00010	ff 50 08	 call	 DWORD PTR [eax+8]
; File E:\Proyectos\JuegosOnlineproyectos\PB\pbblow\Piercing Blow Remake\i3Server\include\i3Base\i3ElementBase.h

; 392  : 		m_RefCount++;

  00013	ff 40 04	 inc	 DWORD PTR [eax+4]
; File E:\Proyectos\JuegosOnlineproyectos\PB\pbblow\Piercing Blow Remake\i3Server\src\i3Base\i3NetworkHTTP.cpp

; 6    : I3_CLASS_INSTANCE( i3NetworkHTTP, i3ElementBase );

  00016	5d		 pop	 ebp
  00017	c3		 ret	 0
?_BindObject@i3NetworkHTTP@@SAPAV1@PAX@Z ENDP		; i3NetworkHTTP::_BindObject
_TEXT	ENDS
; Function compile flags: /Ogtp
; File E:\Proyectos\JuegosOnlineproyectos\PB\pbblow\Piercing Blow Remake\i3Server\src\i3Base\i3NetworkHTTP.cpp
;	COMDAT ?_NewObjectRef@i3NetworkHTTP@@SAPAV1@XZ
_TEXT	SEGMENT
?_NewObjectRef@i3NetworkHTTP@@SAPAV1@XZ PROC		; i3NetworkHTTP::_NewObjectRef, COMDAT

; 6    : I3_CLASS_INSTANCE( i3NetworkHTTP, i3ElementBase );

  00000	8b 0d 00 00 00
	00		 mov	 ecx, DWORD PTR ?s_pClassMetai3NetworkHTTP@i3NetworkHTTP@@2PAVi3ClassMeta@@A ; i3NetworkHTTP::s_pClassMetai3NetworkHTTP
  00006	6a 00		 push	 0
  00008	8b 01		 mov	 eax, DWORD PTR [ecx]
  0000a	ff 50 04	 call	 DWORD PTR [eax+4]
  0000d	c3		 ret	 0
?_NewObjectRef@i3NetworkHTTP@@SAPAV1@XZ ENDP		; i3NetworkHTTP::_NewObjectRef
_TEXT	ENDS
; Function compile flags: /Ogtp
; File E:\Proyectos\JuegosOnlineproyectos\PB\pbblow\Piercing Blow Remake\i3Server\src\i3Base\i3NetworkHTTP.cpp
; File E:\Proyectos\JuegosOnlineproyectos\PB\pbblow\Piercing Blow Remake\i3Server\include\i3Base\i3ElementBase.h
; File E:\Proyectos\JuegosOnlineproyectos\PB\pbblow\Piercing Blow Remake\i3Server\src\i3Base\i3NetworkHTTP.cpp
;	COMDAT ?_NewObject@i3NetworkHTTP@@SAPAV1@XZ
_TEXT	SEGMENT
?_NewObject@i3NetworkHTTP@@SAPAV1@XZ PROC		; i3NetworkHTTP::_NewObject, COMDAT

; 6    : I3_CLASS_INSTANCE( i3NetworkHTTP, i3ElementBase );

  00000	8b 0d 00 00 00
	00		 mov	 ecx, DWORD PTR ?s_pClassMetai3NetworkHTTP@i3NetworkHTTP@@2PAVi3ClassMeta@@A ; i3NetworkHTTP::s_pClassMetai3NetworkHTTP
  00006	6a 00		 push	 0
  00008	8b 01		 mov	 eax, DWORD PTR [ecx]
  0000a	ff 50 04	 call	 DWORD PTR [eax+4]
; File E:\Proyectos\JuegosOnlineproyectos\PB\pbblow\Piercing Blow Remake\i3Server\include\i3Base\i3ElementBase.h

; 392  : 		m_RefCount++;

  0000d	ff 40 04	 inc	 DWORD PTR [eax+4]
; File E:\Proyectos\JuegosOnlineproyectos\PB\pbblow\Piercing Blow Remake\i3Server\src\i3Base\i3NetworkHTTP.cpp

; 6    : I3_CLASS_INSTANCE( i3NetworkHTTP, i3ElementBase );

  00010	c3		 ret	 0
?_NewObject@i3NetworkHTTP@@SAPAV1@XZ ENDP		; i3NetworkHTTP::_NewObject
_TEXT	ENDS
; Function compile flags: /Ogtp
; File E:\Proyectos\JuegosOnlineproyectos\PB\pbblow\Piercing Blow Remake\i3Server\src\i3Base\i3NetworkHTTP.cpp
;	COMDAT ?SetGhostClass@i3NetworkHTTP@@SAXPAVi3ClassMeta@@@Z
_TEXT	SEGMENT
_pMeta$ = 8						; size = 4
?SetGhostClass@i3NetworkHTTP@@SAXPAVi3ClassMeta@@@Z PROC ; i3NetworkHTTP::SetGhostClass, COMDAT

; 6    : I3_CLASS_INSTANCE( i3NetworkHTTP, i3ElementBase );

  00000	55		 push	 ebp
  00001	8b ec		 mov	 ebp, esp
  00003	ff 75 08	 push	 DWORD PTR _pMeta$[ebp]
  00006	8b 0d 00 00 00
	00		 mov	 ecx, DWORD PTR ?s_pClassMetai3NetworkHTTP@i3NetworkHTTP@@2PAVi3ClassMeta@@A ; i3NetworkHTTP::s_pClassMetai3NetworkHTTP
  0000c	e8 00 00 00 00	 call	 ?SetGhostClass@i3ClassMeta@@QAEXPAV1@@Z ; i3ClassMeta::SetGhostClass
  00011	5d		 pop	 ebp
  00012	c3		 ret	 0
?SetGhostClass@i3NetworkHTTP@@SAXPAVi3ClassMeta@@@Z ENDP ; i3NetworkHTTP::SetGhostClass
_TEXT	ENDS
; Function compile flags: /Ogtp
; File E:\Proyectos\JuegosOnlineproyectos\PB\pbblow\Piercing Blow Remake\i3Server\src\i3Base\i3NetworkHTTP.cpp
;	COMDAT ?SetConcreteClass@i3NetworkHTTP@@SAXPAVi3ClassMeta@@@Z
_TEXT	SEGMENT
_pMeta$ = 8						; size = 4
?SetConcreteClass@i3NetworkHTTP@@SAXPAVi3ClassMeta@@@Z PROC ; i3NetworkHTTP::SetConcreteClass, COMDAT

; 6    : I3_CLASS_INSTANCE( i3NetworkHTTP, i3ElementBase );

  00000	55		 push	 ebp
  00001	8b ec		 mov	 ebp, esp
  00003	ff 75 08	 push	 DWORD PTR _pMeta$[ebp]
  00006	8b 0d 00 00 00
	00		 mov	 ecx, DWORD PTR ?s_pClassMetai3NetworkHTTP@i3NetworkHTTP@@2PAVi3ClassMeta@@A ; i3NetworkHTTP::s_pClassMetai3NetworkHTTP
  0000c	e8 00 00 00 00	 call	 ?SetConcreteClass@i3ClassMeta@@QAEXPAV1@@Z ; i3ClassMeta::SetConcreteClass
  00011	5d		 pop	 ebp
  00012	c3		 ret	 0
?SetConcreteClass@i3NetworkHTTP@@SAXPAVi3ClassMeta@@@Z ENDP ; i3NetworkHTTP::SetConcreteClass
_TEXT	ENDS
; Function compile flags: /Ogtp
; File E:\Proyectos\JuegosOnlineproyectos\PB\pbblow\Piercing Blow Remake\i3Server\src\i3Base\i3NetworkHTTP.cpp
;	COMDAT ?RegisterMeta@i3NetworkHTTP@@SAXXZ
_TEXT	SEGMENT
?RegisterMeta@i3NetworkHTTP@@SAXXZ PROC			; i3NetworkHTTP::RegisterMeta, COMDAT

; 6    : I3_CLASS_INSTANCE( i3NetworkHTTP, i3ElementBase );

  00000	8b 0d 00 00 00
	00		 mov	 ecx, DWORD PTR ?s_pClassMetai3NetworkHTTP@i3NetworkHTTP@@2PAVi3ClassMeta@@A ; i3NetworkHTTP::s_pClassMetai3NetworkHTTP
  00006	e9 00 00 00 00	 jmp	 ?Register@i3ClassMeta@@QAEXXZ ; i3ClassMeta::Register
?RegisterMeta@i3NetworkHTTP@@SAXXZ ENDP			; i3NetworkHTTP::RegisterMeta
_TEXT	ENDS
; Function compile flags: /Ogtp
; File E:\Proyectos\JuegosOnlineproyectos\PB\pbblow\Piercing Blow Remake\i3Server\src\i3Base\i3NetworkHTTP.cpp
;	COMDAT ?GetMeta@i3NetworkHTTP@@UAEPAVi3ClassMeta@@XZ
_TEXT	SEGMENT
?GetMeta@i3NetworkHTTP@@UAEPAVi3ClassMeta@@XZ PROC	; i3NetworkHTTP::GetMeta, COMDAT
; _this$ = ecx

; 6    : I3_CLASS_INSTANCE( i3NetworkHTTP, i3ElementBase );

  00000	a1 00 00 00 00	 mov	 eax, DWORD PTR ?s_pClassMetai3NetworkHTTP@i3NetworkHTTP@@2PAVi3ClassMeta@@A ; i3NetworkHTTP::s_pClassMetai3NetworkHTTP
  00005	c3		 ret	 0
?GetMeta@i3NetworkHTTP@@UAEPAVi3ClassMeta@@XZ ENDP	; i3NetworkHTTP::GetMeta
_TEXT	ENDS
; Function compile flags: /Ogtp
; File E:\Proyectos\JuegosOnlineproyectos\PB\pbblow\Piercing Blow Remake\i3Server\include\i3Base\i3NetworkHTTP.h
;	COMDAT ?GetClassMeta@i3NetworkHTTP@@SAPAVi3ClassMeta@@XZ
_TEXT	SEGMENT
?GetClassMeta@i3NetworkHTTP@@SAPAVi3ClassMeta@@XZ PROC	; i3NetworkHTTP::GetClassMeta, COMDAT

; 64   : 	I3_CLASS_DEFINE( i3NetworkHTTP );

  00000	a1 00 00 00 00	 mov	 eax, DWORD PTR ?s_pClassMetai3NetworkHTTP@i3NetworkHTTP@@2PAVi3ClassMeta@@A ; i3NetworkHTTP::s_pClassMetai3NetworkHTTP
  00005	c3		 ret	 0
?GetClassMeta@i3NetworkHTTP@@SAPAVi3ClassMeta@@XZ ENDP	; i3NetworkHTTP::GetClassMeta
_TEXT	ENDS
; Function compile flags: /Ogtp
; File E:\Proyectos\JuegosOnlineproyectos\PB\pbblow\Piercing Blow Remake\i3Server\src\i3Base\i3NetworkHTTP.cpp
;	COMDAT ??_Ei3StringList@@UAEPAXI@Z
_TEXT	SEGMENT
__$EHRec$ = -12						; size = 12
___flags$ = 8						; size = 4
??_Ei3StringList@@UAEPAXI@Z PROC			; i3StringList::`vector deleting destructor', COMDAT
; _this$ = ecx
  00000	55		 push	 ebp
  00001	8b ec		 mov	 ebp, esp
  00003	6a ff		 push	 -1
  00005	68 00 00 00 00	 push	 __ehhandler$??_Ei3StringList@@UAEPAXI@Z
  0000a	64 a1 00 00 00
	00		 mov	 eax, DWORD PTR fs:0
  00010	50		 push	 eax
  00011	53		 push	 ebx
  00012	56		 push	 esi
  00013	57		 push	 edi
  00014	a1 00 00 00 00	 mov	 eax, DWORD PTR ___security_cookie
  00019	33 c5		 xor	 eax, ebp
  0001b	50		 push	 eax
  0001c	8d 45 f4	 lea	 eax, DWORD PTR __$EHRec$[ebp]
  0001f	64 a3 00 00 00
	00		 mov	 DWORD PTR fs:0, eax
  00025	8b f1		 mov	 esi, ecx
  00027	8b 5d 08	 mov	 ebx, DWORD PTR ___flags$[ebp]
  0002a	8b fb		 mov	 edi, ebx
  0002c	83 e7 01	 and	 edi, 1
  0002f	f6 c3 02	 test	 bl, 2
  00032	74 43		 je	 SHORT $LN2@vector
  00034	68 00 00 00 00	 push	 OFFSET ??1i3StringList@@UAE@XZ ; i3StringList::~i3StringList
  00039	ff 76 fc	 push	 DWORD PTR [esi-4]
  0003c	8d 5e fc	 lea	 ebx, DWORD PTR [esi-4]
  0003f	6a 28		 push	 40			; 00000028H
  00041	56		 push	 esi
  00042	e8 00 00 00 00	 call	 ??_M@YGXPAXIIP6EX0@Z@Z
  00047	85 ff		 test	 edi, edi
  00049	74 16		 je	 SHORT $LN3@vector
  0004b	8b 0b		 mov	 ecx, DWORD PTR [ebx]
  0004d	8d 0c 89	 lea	 ecx, DWORD PTR [ecx+ecx*4]
  00050	8d 0c cd 04 00
	00 00		 lea	 ecx, DWORD PTR [ecx*8+4]
  00057	51		 push	 ecx
  00058	53		 push	 ebx
  00059	e8 00 00 00 00	 call	 ??_V@YAXPAXI@Z		; operator delete[]
  0005e	83 c4 08	 add	 esp, 8
$LN3@vector:
  00061	8b c3		 mov	 eax, ebx
  00063	8b 4d f4	 mov	 ecx, DWORD PTR __$EHRec$[ebp]
  00066	64 89 0d 00 00
	00 00		 mov	 DWORD PTR fs:0, ecx
  0006d	59		 pop	 ecx
  0006e	5f		 pop	 edi
  0006f	5e		 pop	 esi
  00070	5b		 pop	 ebx
  00071	8b e5		 mov	 esp, ebp
  00073	5d		 pop	 ebp
  00074	c2 04 00	 ret	 4
$LN2@vector:
  00077	e8 00 00 00 00	 call	 ??1i3StringList@@UAE@XZ	; i3StringList::~i3StringList
  0007c	85 ff		 test	 edi, edi
  0007e	74 1b		 je	 SHORT $LN6@vector
  00080	f6 c3 04	 test	 bl, 4
  00083	75 0b		 jne	 SHORT $LN5@vector
  00085	56		 push	 esi
  00086	e8 00 00 00 00	 call	 ??3i3ElementBase@@SAXPAX@Z ; i3ElementBase::operator delete
  0008b	83 c4 04	 add	 esp, 4
  0008e	eb 0b		 jmp	 SHORT $LN6@vector
$LN5@vector:

  00090	6a 28		 push	 40			; 00000028H
  00092	56		 push	 esi
  00093	e8 00 00 00 00	 call	 ??3@YAXPAXI@Z		; operator delete
  00098	83 c4 08	 add	 esp, 8
$LN6@vector:
  0009b	8b c6		 mov	 eax, esi
  0009d	8b 4d f4	 mov	 ecx, DWORD PTR __$EHRec$[ebp]
  000a0	64 89 0d 00 00
	00 00		 mov	 DWORD PTR fs:0, ecx
  000a7	59		 pop	 ecx
  000a8	5f		 pop	 edi
  000a9	5e		 pop	 esi
  000aa	5b		 pop	 ebx
  000ab	8b e5		 mov	 esp, ebp
  000ad	5d		 pop	 ebp
  000ae	c2 04 00	 ret	 4
  000b1	cc		 int	 3
  000b2	cc		 int	 3
  000b3	cc		 int	 3
  000b4	cc		 int	 3
  000b5	cc		 int	 3
_TEXT	ENDS
;	COMDAT text$x
text$x	SEGMENT
__ehhandler$??_Ei3StringList@@UAEPAXI@Z:
  00000	90		 npad	 1
  00001	90		 npad	 1
  00002	8b 54 24 08	 mov	 edx, DWORD PTR [esp+8]
  00006	8d 42 0c	 lea	 eax, DWORD PTR [edx+12]
  00009	8b 4a f0	 mov	 ecx, DWORD PTR [edx-16]
  0000c	33 c8		 xor	 ecx, eax
  0000e	e8 00 00 00 00	 call	 @__security_check_cookie@4
  00013	b8 00 00 00 00	 mov	 eax, OFFSET __ehfuncinfo$??_Ei3StringList@@UAEPAXI@Z
  00018	e9 00 00 00 00	 jmp	 ___CxxFrameHandler3
text$x	ENDS
??_Ei3StringList@@UAEPAXI@Z ENDP			; i3StringList::`vector deleting destructor'
; Function compile flags: /Ogtp
; File E:\Proyectos\JuegosOnlineproyectos\PB\pbblow\Piercing Blow Remake\i3Server\src\i3Base\i3NetworkHTTP.cpp
;	COMDAT ??_Gi3StringList@@UAEPAXI@Z
_TEXT	SEGMENT
___flags$ = 8						; size = 4
??_Gi3StringList@@UAEPAXI@Z PROC			; i3StringList::`scalar deleting destructor', COMDAT
; _this$ = ecx
  00000	55		 push	 ebp
  00001	8b ec		 mov	 ebp, esp
  00003	56		 push	 esi
  00004	8b f1		 mov	 esi, ecx
  00006	e8 00 00 00 00	 call	 ??1i3StringList@@UAE@XZ	; i3StringList::~i3StringList
  0000b	8b 45 08	 mov	 eax, DWORD PTR ___flags$[ebp]
  0000e	a8 01		 test	 al, 1
  00010	74 1f		 je	 SHORT $LN10@scalar
  00012	a8 04		 test	 al, 4
  00014	75 10		 jne	 SHORT $LN3@scalar
  00016	56		 push	 esi
  00017	e8 00 00 00 00	 call	 ??3i3ElementBase@@SAXPAX@Z ; i3ElementBase::operator delete
  0001c	83 c4 04	 add	 esp, 4
  0001f	8b c6		 mov	 eax, esi
  00021	5e		 pop	 esi
  00022	5d		 pop	 ebp
  00023	c2 04 00	 ret	 4
$LN3@scalar:

  00026	6a 28		 push	 40			; 00000028H
  00028	56		 push	 esi
  00029	e8 00 00 00 00	 call	 ??3@YAXPAXI@Z		; operator delete
  0002e	83 c4 08	 add	 esp, 8
$LN10@scalar:
  00031	8b c6		 mov	 eax, esi
  00033	5e		 pop	 esi
  00034	5d		 pop	 ebp
  00035	c2 04 00	 ret	 4
??_Gi3StringList@@UAEPAXI@Z ENDP			; i3StringList::`scalar deleting destructor'
_TEXT	ENDS
; Function compile flags: /Ogtp
;	COMDAT ??_Fi3StringList@@QAEXXZ
_TEXT	SEGMENT
??_Fi3StringList@@QAEXXZ PROC				; i3StringList::`default constructor closure', COMDAT
; _this$ = ecx
  00000	6a 10		 push	 16			; 00000010H
  00002	e8 00 00 00 00	 call	 ??0i3StringList@@QAE@H@Z ; i3StringList::i3StringList
  00007	c3		 ret	 0
??_Fi3StringList@@QAEXXZ ENDP				; i3StringList::`default constructor closure'
_TEXT	ENDS
; Function compile flags: /Ogtp
;	COMDAT ??4i3StringList@@QAEAAV0@ABV0@@Z
_TEXT	SEGMENT
___that$ = 8						; size = 4
??4i3StringList@@QAEAAV0@ABV0@@Z PROC			; i3StringList::operator=, COMDAT
; _this$ = ecx
  00000	55		 push	 ebp
  00001	8b ec		 mov	 ebp, esp
  00003	8b 55 08	 mov	 edx, DWORD PTR ___that$[ebp]
  00006	8b 42 04	 mov	 eax, DWORD PTR [edx+4]
  00009	89 41 04	 mov	 DWORD PTR [ecx+4], eax
  0000c	8b 42 08	 mov	 eax, DWORD PTR [edx+8]
  0000f	89 41 08	 mov	 DWORD PTR [ecx+8], eax
  00012	8b 42 0c	 mov	 eax, DWORD PTR [edx+12]
  00015	89 41 0c	 mov	 DWORD PTR [ecx+12], eax
  00018	8b 42 10	 mov	 eax, DWORD PTR [edx+16]
  0001b	89 41 10	 mov	 DWORD PTR [ecx+16], eax
  0001e	8b 42 14	 mov	 eax, DWORD PTR [edx+20]
  00021	89 41 14	 mov	 DWORD PTR [ecx+20], eax
  00024	8b 42 18	 mov	 eax, DWORD PTR [edx+24]
  00027	89 41 18	 mov	 DWORD PTR [ecx+24], eax
  0002a	8b 42 1c	 mov	 eax, DWORD PTR [edx+28]
  0002d	89 41 1c	 mov	 DWORD PTR [ecx+28], eax
  00030	8b 42 20	 mov	 eax, DWORD PTR [edx+32]
  00033	89 41 20	 mov	 DWORD PTR [ecx+32], eax
  00036	8b 42 24	 mov	 eax, DWORD PTR [edx+36]
  00039	89 41 24	 mov	 DWORD PTR [ecx+36], eax
  0003c	8b c1		 mov	 eax, ecx
  0003e	5d		 pop	 ebp
  0003f	c2 04 00	 ret	 4
??4i3StringList@@QAEAAV0@ABV0@@Z ENDP			; i3StringList::operator=
_TEXT	ENDS
; Function compile flags: /Ogtp
;	COMDAT ??0i3StringList@@QAE@ABV0@@Z
_TEXT	SEGMENT
___that$ = 8						; size = 4
??0i3StringList@@QAE@ABV0@@Z PROC			; i3StringList::i3StringList, COMDAT
; _this$ = ecx
  00000	55		 push	 ebp
  00001	8b ec		 mov	 ebp, esp
  00003	8b 55 08	 mov	 edx, DWORD PTR ___that$[ebp]
  00006	c7 01 00 00 00
	00		 mov	 DWORD PTR [ecx], OFFSET ??_7i3ElementBase@@6B@
  0000c	8b 42 04	 mov	 eax, DWORD PTR [edx+4]
  0000f	89 41 04	 mov	 DWORD PTR [ecx+4], eax
  00012	8b 42 08	 mov	 eax, DWORD PTR [edx+8]
  00015	89 41 08	 mov	 DWORD PTR [ecx+8], eax
  00018	8b 42 0c	 mov	 eax, DWORD PTR [edx+12]
  0001b	89 41 0c	 mov	 DWORD PTR [ecx+12], eax
  0001e	c7 01 00 00 00
	00		 mov	 DWORD PTR [ecx], OFFSET ??_7i3StringList@@6B@
  00024	8b 42 10	 mov	 eax, DWORD PTR [edx+16]
  00027	89 41 10	 mov	 DWORD PTR [ecx+16], eax
  0002a	8b 42 14	 mov	 eax, DWORD PTR [edx+20]
  0002d	89 41 14	 mov	 DWORD PTR [ecx+20], eax
  00030	8b 42 18	 mov	 eax, DWORD PTR [edx+24]
  00033	89 41 18	 mov	 DWORD PTR [ecx+24], eax
  00036	8b 42 1c	 mov	 eax, DWORD PTR [edx+28]
  00039	89 41 1c	 mov	 DWORD PTR [ecx+28], eax
  0003c	8b 42 20	 mov	 eax, DWORD PTR [edx+32]
  0003f	89 41 20	 mov	 DWORD PTR [ecx+32], eax
  00042	8b 42 24	 mov	 eax, DWORD PTR [edx+36]
  00045	89 41 24	 mov	 DWORD PTR [ecx+36], eax
  00048	8b c1		 mov	 eax, ecx
  0004a	5d		 pop	 ebp
  0004b	c2 04 00	 ret	 4
??0i3StringList@@QAE@ABV0@@Z ENDP			; i3StringList::i3StringList
_TEXT	ENDS
; Function compile flags: /Ogtp
; File E:\Proyectos\JuegosOnlineproyectos\PB\pbblow\Piercing Blow Remake\i3Server\include\i3Base\i3List.h
;	COMDAT ?SetOnceMode@i3StringList@@QAEXH@Z
_TEXT	SEGMENT
_bFlag$ = 8						; size = 4
?SetOnceMode@i3StringList@@QAEXH@Z PROC			; i3StringList::SetOnceMode, COMDAT
; _this$ = ecx

; 242  : 	void	SetOnceMode( BOOL bFlag)		{ m_bOnceMode = bFlag; }

  00000	55		 push	 ebp
  00001	8b ec		 mov	 ebp, esp
  00003	8b 45 08	 mov	 eax, DWORD PTR _bFlag$[ebp]
  00006	89 41 1c	 mov	 DWORD PTR [ecx+28], eax
  00009	5d		 pop	 ebp
  0000a	c2 04 00	 ret	 4
?SetOnceMode@i3StringList@@QAEXH@Z ENDP			; i3StringList::SetOnceMode
_TEXT	ENDS
; Function compile flags: /Ogtp
; File E:\Proyectos\JuegosOnlineproyectos\PB\pbblow\Piercing Blow Remake\i3Server\include\i3Base\i3List.h
;	COMDAT ?GetOnceMode@i3StringList@@QAEHXZ
_TEXT	SEGMENT
?GetOnceMode@i3StringList@@QAEHXZ PROC			; i3StringList::GetOnceMode, COMDAT
; _this$ = ecx

; 241  : 	BOOL	GetOnceMode(void)				{ return m_bOnceMode; }

  00000	8b 41 1c	 mov	 eax, DWORD PTR [ecx+28]
  00003	c3		 ret	 0
?GetOnceMode@i3StringList@@QAEHXZ ENDP			; i3StringList::GetOnceMode
_TEXT	ENDS
; Function compile flags: /Ogtp
; File E:\Proyectos\JuegosOnlineproyectos\PB\pbblow\Piercing Blow Remake\i3Server\include\i3Base\i3List.h
;	COMDAT ?GetLast@i3StringList@@QAEPADXZ
_TEXT	SEGMENT
?GetLast@i3StringList@@QAEPADXZ PROC			; i3StringList::GetLast, COMDAT
; _this$ = ecx

; 239  : 	char *	GetLast(void)					{ return Items[ m_Count-1]; }

  00000	8b 51 14	 mov	 edx, DWORD PTR [ecx+20]
  00003	8b 41 24	 mov	 eax, DWORD PTR [ecx+36]
  00006	8b 44 90 fc	 mov	 eax, DWORD PTR [eax+edx*4-4]
  0000a	c3		 ret	 0
?GetLast@i3StringList@@QAEPADXZ ENDP			; i3StringList::GetLast
_TEXT	ENDS
; Function compile flags: /Ogtp
; File E:\Proyectos\JuegosOnlineproyectos\PB\pbblow\Piercing Blow Remake\i3Server\include\i3Base\i3List.h
;	COMDAT ?GetFirst@i3StringList@@QAEPADXZ
_TEXT	SEGMENT
?GetFirst@i3StringList@@QAEPADXZ PROC			; i3StringList::GetFirst, COMDAT
; _this$ = ecx

; 238  : 	char *	GetFirst(void)					{ return Items[ 0]; }

  00000	8b 41 24	 mov	 eax, DWORD PTR [ecx+36]
  00003	8b 00		 mov	 eax, DWORD PTR [eax]
  00005	c3		 ret	 0
?GetFirst@i3StringList@@QAEPADXZ ENDP			; i3StringList::GetFirst
_TEXT	ENDS
; Function compile flags: /Ogtp
; File E:\Proyectos\JuegosOnlineproyectos\PB\pbblow\Piercing Blow Remake\i3Server\include\i3Base\i3List.h
;	COMDAT ?Find@i3StringList@@QAEHPAD@Z
_TEXT	SEGMENT
_p$ = 8							; size = 4
?Find@i3StringList@@QAEHPAD@Z PROC			; i3StringList::Find, COMDAT
; _this$ = ecx

; 236  : 	INT32	Find( char * p)					{ return IndexOf( p); }

  00000	55		 push	 ebp
  00001	8b ec		 mov	 ebp, esp
  00003	8b 01		 mov	 eax, DWORD PTR [ecx]
  00005	5d		 pop	 ebp
  00006	ff 60 0c	 jmp	 DWORD PTR [eax+12]
?Find@i3StringList@@QAEHPAD@Z ENDP			; i3StringList::Find
_TEXT	ENDS
; Function compile flags: /Ogtp
; File E:\Proyectos\JuegosOnlineproyectos\PB\pbblow\Piercing Blow Remake\i3Server\include\i3Base\i3List.h
;	COMDAT ?SetItem@i3StringList@@QAEXHPAD@Z
_TEXT	SEGMENT
_idx$ = 8						; size = 4
_p$ = 12						; size = 4
?SetItem@i3StringList@@QAEXHPAD@Z PROC			; i3StringList::SetItem, COMDAT
; _this$ = ecx

; 235  : 	void	SetItem( INT32 idx, char * p)		{ Items[idx] = p; }

  00000	55		 push	 ebp
  00001	8b ec		 mov	 ebp, esp
  00003	8b 51 24	 mov	 edx, DWORD PTR [ecx+36]
  00006	8b 45 08	 mov	 eax, DWORD PTR _idx$[ebp]
  00009	8b 4d 0c	 mov	 ecx, DWORD PTR _p$[ebp]
  0000c	89 0c 82	 mov	 DWORD PTR [edx+eax*4], ecx
  0000f	5d		 pop	 ebp
  00010	c2 08 00	 ret	 8
?SetItem@i3StringList@@QAEXHPAD@Z ENDP			; i3StringList::SetItem
_TEXT	ENDS
; Function compile flags: /Ogtp
; File E:\Proyectos\JuegosOnlineproyectos\PB\pbblow\Piercing Blow Remake\i3Server\include\i3Base\i3List.h
;	COMDAT ?GetItem@i3StringList@@QAEPAXH@Z
_TEXT	SEGMENT
_idx$ = 8						; size = 4
?GetItem@i3StringList@@QAEPAXH@Z PROC			; i3StringList::GetItem, COMDAT
; _this$ = ecx

; 233  : 	void *	GetItem( INT32 idx)				{ if( idx >= GetCount() || idx < 0 )	return NULL;

  00000	55		 push	 ebp
  00001	8b ec		 mov	 ebp, esp
  00003	8b 55 08	 mov	 edx, DWORD PTR _idx$[ebp]
  00006	3b 51 14	 cmp	 edx, DWORD PTR [ecx+20]
  00009	7d 0e		 jge	 SHORT $LN4@GetItem
  0000b	85 d2		 test	 edx, edx
  0000d	78 0a		 js	 SHORT $LN4@GetItem

; 234  : 											  else									return Items[ idx];	 }

  0000f	8b 41 24	 mov	 eax, DWORD PTR [ecx+36]
  00012	8b 04 90	 mov	 eax, DWORD PTR [eax+edx*4]
  00015	5d		 pop	 ebp
  00016	c2 04 00	 ret	 4
$LN4@GetItem:

; 233  : 	void *	GetItem( INT32 idx)				{ if( idx >= GetCount() || idx < 0 )	return NULL;

  00019	33 c0		 xor	 eax, eax

; 234  : 											  else									return Items[ idx];	 }

  0001b	5d		 pop	 ebp
  0001c	c2 04 00	 ret	 4
?GetItem@i3StringList@@QAEPAXH@Z ENDP			; i3StringList::GetItem
_TEXT	ENDS
; Function compile flags: /Ogtp
; File E:\Proyectos\JuegosOnlineproyectos\PB\pbblow\Piercing Blow Remake\i3Server\include\i3Base\i3List.h
;	COMDAT ?GetCount@i3StringList@@QBEHXZ
_TEXT	SEGMENT
?GetCount@i3StringList@@QBEHXZ PROC			; i3StringList::GetCount, COMDAT
; _this$ = ecx

; 232  : 	INT32	GetCount(void) const			{ return m_Count; }

  00000	8b 41 14	 mov	 eax, DWORD PTR [ecx+20]
  00003	c3		 ret	 0
?GetCount@i3StringList@@QBEHXZ ENDP			; i3StringList::GetCount
_TEXT	ENDS
; Function compile flags: /Ogtp
; File E:\Proyectos\JuegosOnlineproyectos\PB\pbblow\Piercing Blow Remake\i3Server\include\i3Base\i3List.h
;	COMDAT ?GetClassMeta@i3StringList@@SAPAVi3ClassMeta@@XZ
_TEXT	SEGMENT
?GetClassMeta@i3StringList@@SAPAVi3ClassMeta@@XZ PROC	; i3StringList::GetClassMeta, COMDAT

; 198  : 	I3_CLASS_DEFINE( i3StringList);

  00000	a1 00 00 00 00	 mov	 eax, DWORD PTR ?s_pClassMetai3StringList@i3StringList@@2PAVi3ClassMeta@@A ; i3StringList::s_pClassMetai3StringList
  00005	c3		 ret	 0
?GetClassMeta@i3StringList@@SAPAVi3ClassMeta@@XZ ENDP	; i3StringList::GetClassMeta
_TEXT	ENDS
; Function compile flags: /Ogtp
; File E:\Proyectos\JuegosOnlineproyectos\PB\pbblow\Piercing Blow Remake\i3Server\src\i3Base\i3NetworkHTTP.cpp
;	COMDAT ??_Ei3List@@UAEPAXI@Z
_TEXT	SEGMENT
__$EHRec$ = -12						; size = 12
___flags$ = 8						; size = 4
??_Ei3List@@UAEPAXI@Z PROC				; i3List::`vector deleting destructor', COMDAT
; _this$ = ecx
  00000	55		 push	 ebp
  00001	8b ec		 mov	 ebp, esp
  00003	6a ff		 push	 -1
  00005	68 00 00 00 00	 push	 __ehhandler$??_Ei3List@@UAEPAXI@Z
  0000a	64 a1 00 00 00
	00		 mov	 eax, DWORD PTR fs:0
  00010	50		 push	 eax
  00011	53		 push	 ebx
  00012	56		 push	 esi
  00013	57		 push	 edi
  00014	a1 00 00 00 00	 mov	 eax, DWORD PTR ___security_cookie
  00019	33 c5		 xor	 eax, ebp
  0001b	50		 push	 eax
  0001c	8d 45 f4	 lea	 eax, DWORD PTR __$EHRec$[ebp]
  0001f	64 a3 00 00 00
	00		 mov	 DWORD PTR fs:0, eax
  00025	8b f1		 mov	 esi, ecx
  00027	8b 5d 08	 mov	 ebx, DWORD PTR ___flags$[ebp]
  0002a	8b fb		 mov	 edi, ebx
  0002c	83 e7 01	 and	 edi, 1
  0002f	f6 c3 02	 test	 bl, 2
  00032	74 3d		 je	 SHORT $LN2@vector
  00034	68 00 00 00 00	 push	 OFFSET ??1i3List@@UAE@XZ ; i3List::~i3List
  00039	ff 76 fc	 push	 DWORD PTR [esi-4]
  0003c	8d 5e fc	 lea	 ebx, DWORD PTR [esi-4]
  0003f	6a 58		 push	 88			; 00000058H
  00041	56		 push	 esi
  00042	e8 00 00 00 00	 call	 ??_M@YGXPAXIIP6EX0@Z@Z
  00047	85 ff		 test	 edi, edi
  00049	74 10		 je	 SHORT $LN3@vector
  0004b	6b 0b 58	 imul	 ecx, DWORD PTR [ebx], 88
  0004e	83 c1 04	 add	 ecx, 4
  00051	51		 push	 ecx
  00052	53		 push	 ebx
  00053	e8 00 00 00 00	 call	 ??_V@YAXPAXI@Z		; operator delete[]
  00058	83 c4 08	 add	 esp, 8
$LN3@vector:
  0005b	8b c3		 mov	 eax, ebx
  0005d	8b 4d f4	 mov	 ecx, DWORD PTR __$EHRec$[ebp]
  00060	64 89 0d 00 00
	00 00		 mov	 DWORD PTR fs:0, ecx
  00067	59		 pop	 ecx
  00068	5f		 pop	 edi
  00069	5e		 pop	 esi
  0006a	5b		 pop	 ebx
  0006b	8b e5		 mov	 esp, ebp
  0006d	5d		 pop	 ebp
  0006e	c2 04 00	 ret	 4
$LN2@vector:
  00071	e8 00 00 00 00	 call	 ??1i3List@@UAE@XZ	; i3List::~i3List
  00076	85 ff		 test	 edi, edi
  00078	74 1b		 je	 SHORT $LN6@vector
  0007a	f6 c3 04	 test	 bl, 4
  0007d	75 0b		 jne	 SHORT $LN5@vector
  0007f	56		 push	 esi
  00080	e8 00 00 00 00	 call	 ??3i3ElementBase@@SAXPAX@Z ; i3ElementBase::operator delete
  00085	83 c4 04	 add	 esp, 4
  00088	eb 0b		 jmp	 SHORT $LN6@vector
$LN5@vector:

  0008a	6a 58		 push	 88			; 00000058H
  0008c	56		 push	 esi
  0008d	e8 00 00 00 00	 call	 ??3@YAXPAXI@Z		; operator delete
  00092	83 c4 08	 add	 esp, 8
$LN6@vector:
  00095	8b c6		 mov	 eax, esi
  00097	8b 4d f4	 mov	 ecx, DWORD PTR __$EHRec$[ebp]
  0009a	64 89 0d 00 00
	00 00		 mov	 DWORD PTR fs:0, ecx
  000a1	59		 pop	 ecx
  000a2	5f		 pop	 edi
  000a3	5e		 pop	 esi
  000a4	5b		 pop	 ebx
  000a5	8b e5		 mov	 esp, ebp
  000a7	5d		 pop	 ebp
  000a8	c2 04 00	 ret	 4
  000ab	cc		 int	 3
  000ac	cc		 int	 3
  000ad	cc		 int	 3
  000ae	cc		 int	 3
  000af	cc		 int	 3
_TEXT	ENDS
;	COMDAT text$x
text$x	SEGMENT
__ehhandler$??_Ei3List@@UAEPAXI@Z:
  00000	90		 npad	 1
  00001	90		 npad	 1
  00002	8b 54 24 08	 mov	 edx, DWORD PTR [esp+8]
  00006	8d 42 0c	 lea	 eax, DWORD PTR [edx+12]
  00009	8b 4a f0	 mov	 ecx, DWORD PTR [edx-16]
  0000c	33 c8		 xor	 ecx, eax
  0000e	e8 00 00 00 00	 call	 @__security_check_cookie@4
  00013	b8 00 00 00 00	 mov	 eax, OFFSET __ehfuncinfo$??_Ei3List@@UAEPAXI@Z
  00018	e9 00 00 00 00	 jmp	 ___CxxFrameHandler3
text$x	ENDS
??_Ei3List@@UAEPAXI@Z ENDP				; i3List::`vector deleting destructor'
; Function compile flags: /Ogtp
; File E:\Proyectos\JuegosOnlineproyectos\PB\pbblow\Piercing Blow Remake\i3Server\src\i3Base\i3NetworkHTTP.cpp
;	COMDAT ??_Gi3List@@UAEPAXI@Z
_TEXT	SEGMENT
___flags$ = 8						; size = 4
??_Gi3List@@UAEPAXI@Z PROC				; i3List::`scalar deleting destructor', COMDAT
; _this$ = ecx
  00000	55		 push	 ebp
  00001	8b ec		 mov	 ebp, esp
  00003	56		 push	 esi
  00004	8b f1		 mov	 esi, ecx
  00006	e8 00 00 00 00	 call	 ??1i3List@@UAE@XZ	; i3List::~i3List
  0000b	8b 45 08	 mov	 eax, DWORD PTR ___flags$[ebp]
  0000e	a8 01		 test	 al, 1
  00010	74 1f		 je	 SHORT $LN10@scalar
  00012	a8 04		 test	 al, 4
  00014	75 10		 jne	 SHORT $LN3@scalar
  00016	56		 push	 esi
  00017	e8 00 00 00 00	 call	 ??3i3ElementBase@@SAXPAX@Z ; i3ElementBase::operator delete
  0001c	83 c4 04	 add	 esp, 4
  0001f	8b c6		 mov	 eax, esi
  00021	5e		 pop	 esi
  00022	5d		 pop	 ebp
  00023	c2 04 00	 ret	 4
$LN3@scalar:

  00026	6a 58		 push	 88			; 00000058H
  00028	56		 push	 esi
  00029	e8 00 00 00 00	 call	 ??3@YAXPAXI@Z		; operator delete
  0002e	83 c4 08	 add	 esp, 8
$LN10@scalar:
  00031	8b c6		 mov	 eax, esi
  00033	5e		 pop	 esi
  00034	5d		 pop	 ebp
  00035	c2 04 00	 ret	 4
??_Gi3List@@UAEPAXI@Z ENDP				; i3List::`scalar deleting destructor'
_TEXT	ENDS
; Function compile flags: /Ogtp
;	COMDAT ??_Fi3List@@QAEXXZ
_TEXT	SEGMENT
??_Fi3List@@QAEXXZ PROC					; i3List::`default constructor closure', COMDAT
; _this$ = ecx
  00000	6a 08		 push	 8
  00002	e8 00 00 00 00	 call	 ??0i3List@@QAE@H@Z	; i3List::i3List
  00007	c3		 ret	 0
??_Fi3List@@QAEXXZ ENDP					; i3List::`default constructor closure'
_TEXT	ENDS
; Function compile flags: /Ogtp
;	COMDAT ??4i3List@@QAEAAV0@ABV0@@Z
_TEXT	SEGMENT
___that$ = 8						; size = 4
??4i3List@@QAEAAV0@ABV0@@Z PROC				; i3List::operator=, COMDAT
; _this$ = ecx
  00000	55		 push	 ebp
  00001	8b ec		 mov	 ebp, esp
  00003	8b 55 08	 mov	 edx, DWORD PTR ___that$[ebp]
  00006	8b 42 04	 mov	 eax, DWORD PTR [edx+4]
  00009	89 41 04	 mov	 DWORD PTR [ecx+4], eax
  0000c	8b 42 08	 mov	 eax, DWORD PTR [edx+8]
  0000f	89 41 08	 mov	 DWORD PTR [ecx+8], eax
  00012	8b 42 0c	 mov	 eax, DWORD PTR [edx+12]
  00015	89 41 0c	 mov	 DWORD PTR [ecx+12], eax
  00018	8b 42 10	 mov	 eax, DWORD PTR [edx+16]
  0001b	89 41 10	 mov	 DWORD PTR [ecx+16], eax
  0001e	8b 42 14	 mov	 eax, DWORD PTR [edx+20]
  00021	89 41 14	 mov	 DWORD PTR [ecx+20], eax
  00024	8b 42 18	 mov	 eax, DWORD PTR [edx+24]
  00027	89 41 18	 mov	 DWORD PTR [ecx+24], eax
  0002a	8b 42 1c	 mov	 eax, DWORD PTR [edx+28]
  0002d	89 41 1c	 mov	 DWORD PTR [ecx+28], eax
  00030	8b 42 20	 mov	 eax, DWORD PTR [edx+32]
  00033	89 41 20	 mov	 DWORD PTR [ecx+32], eax
  00036	8b 42 24	 mov	 eax, DWORD PTR [edx+36]
  00039	89 41 24	 mov	 DWORD PTR [ecx+36], eax
  0003c	8b 42 28	 mov	 eax, DWORD PTR [edx+40]
  0003f	89 41 28	 mov	 DWORD PTR [ecx+40], eax
  00042	8b 42 2c	 mov	 eax, DWORD PTR [edx+44]
  00045	89 41 2c	 mov	 DWORD PTR [ecx+44], eax
  00048	8b 42 30	 mov	 eax, DWORD PTR [edx+48]
  0004b	89 41 30	 mov	 DWORD PTR [ecx+48], eax
  0004e	8b 42 34	 mov	 eax, DWORD PTR [edx+52]
  00051	89 41 34	 mov	 DWORD PTR [ecx+52], eax
  00054	8b 42 38	 mov	 eax, DWORD PTR [edx+56]
  00057	89 41 38	 mov	 DWORD PTR [ecx+56], eax
  0005a	8b 42 3c	 mov	 eax, DWORD PTR [edx+60]
  0005d	89 41 3c	 mov	 DWORD PTR [ecx+60], eax
  00060	8b 42 40	 mov	 eax, DWORD PTR [edx+64]
  00063	89 41 40	 mov	 DWORD PTR [ecx+64], eax
  00066	8b 42 44	 mov	 eax, DWORD PTR [edx+68]
  00069	89 41 44	 mov	 DWORD PTR [ecx+68], eax
  0006c	8b 42 48	 mov	 eax, DWORD PTR [edx+72]
  0006f	89 41 48	 mov	 DWORD PTR [ecx+72], eax
  00072	8b 42 4c	 mov	 eax, DWORD PTR [edx+76]
  00075	89 41 4c	 mov	 DWORD PTR [ecx+76], eax
  00078	8b 42 50	 mov	 eax, DWORD PTR [edx+80]
  0007b	89 41 50	 mov	 DWORD PTR [ecx+80], eax
  0007e	8b 42 54	 mov	 eax, DWORD PTR [edx+84]
  00081	89 41 54	 mov	 DWORD PTR [ecx+84], eax
  00084	8b c1		 mov	 eax, ecx
  00086	5d		 pop	 ebp
  00087	c2 04 00	 ret	 4
??4i3List@@QAEAAV0@ABV0@@Z ENDP				; i3List::operator=
_TEXT	ENDS
; Function compile flags: /Ogtp
;	COMDAT ??0i3List@@QAE@ABV0@@Z
_TEXT	SEGMENT
___that$ = 8						; size = 4
??0i3List@@QAE@ABV0@@Z PROC				; i3List::i3List, COMDAT
; _this$ = ecx
  00000	55		 push	 ebp
  00001	8b ec		 mov	 ebp, esp
  00003	8b 55 08	 mov	 edx, DWORD PTR ___that$[ebp]
  00006	53		 push	 ebx
  00007	8b d9		 mov	 ebx, ecx
  00009	b9 08 00 00 00	 mov	 ecx, 8
  0000e	56		 push	 esi
  0000f	57		 push	 edi
  00010	8d 72 28	 lea	 esi, DWORD PTR [edx+40]
  00013	c7 03 00 00 00
	00		 mov	 DWORD PTR [ebx], OFFSET ??_7i3ElementBase@@6B@
  00019	8d 7b 28	 lea	 edi, DWORD PTR [ebx+40]
  0001c	8b 42 04	 mov	 eax, DWORD PTR [edx+4]
  0001f	89 43 04	 mov	 DWORD PTR [ebx+4], eax
  00022	8b 42 08	 mov	 eax, DWORD PTR [edx+8]
  00025	89 43 08	 mov	 DWORD PTR [ebx+8], eax
  00028	8b 42 0c	 mov	 eax, DWORD PTR [edx+12]
  0002b	89 43 0c	 mov	 DWORD PTR [ebx+12], eax
  0002e	c7 03 00 00 00
	00		 mov	 DWORD PTR [ebx], OFFSET ??_7i3List@@6B@
  00034	8b 42 10	 mov	 eax, DWORD PTR [edx+16]
  00037	89 43 10	 mov	 DWORD PTR [ebx+16], eax
  0003a	8b 42 14	 mov	 eax, DWORD PTR [edx+20]
  0003d	89 43 14	 mov	 DWORD PTR [ebx+20], eax
  00040	8b 42 18	 mov	 eax, DWORD PTR [edx+24]
  00043	89 43 18	 mov	 DWORD PTR [ebx+24], eax
  00046	8b 42 1c	 mov	 eax, DWORD PTR [edx+28]
  00049	89 43 1c	 mov	 DWORD PTR [ebx+28], eax
  0004c	8b 42 20	 mov	 eax, DWORD PTR [edx+32]
  0004f	89 43 20	 mov	 DWORD PTR [ebx+32], eax
  00052	8b 42 24	 mov	 eax, DWORD PTR [edx+36]
  00055	89 43 24	 mov	 DWORD PTR [ebx+36], eax
  00058	f3 a5		 rep movsd
  0005a	8b 42 48	 mov	 eax, DWORD PTR [edx+72]
  0005d	89 43 48	 mov	 DWORD PTR [ebx+72], eax
  00060	8b 42 4c	 mov	 eax, DWORD PTR [edx+76]
  00063	89 43 4c	 mov	 DWORD PTR [ebx+76], eax
  00066	8b 42 50	 mov	 eax, DWORD PTR [edx+80]
  00069	89 43 50	 mov	 DWORD PTR [ebx+80], eax
  0006c	8b 42 54	 mov	 eax, DWORD PTR [edx+84]
  0006f	5f		 pop	 edi
  00070	89 43 54	 mov	 DWORD PTR [ebx+84], eax
  00073	8b c3		 mov	 eax, ebx
  00075	5e		 pop	 esi
  00076	5b		 pop	 ebx
  00077	5d		 pop	 ebp
  00078	c2 04 00	 ret	 4
??0i3List@@QAE@ABV0@@Z ENDP				; i3List::i3List
_TEXT	ENDS
; Function compile flags: /Ogtp
; File E:\Proyectos\JuegosOnlineproyectos\PB\pbblow\Piercing Blow Remake\i3Server\include\i3Base\i3List.h
;	COMDAT ?SafeFreeAll@i3List@@QAEXXZ
_TEXT	SEGMENT
?SafeFreeAll@i3List@@QAEXXZ PROC			; i3List::SafeFreeAll, COMDAT
; _this$ = ecx

; 184  : 	{

  00000	53		 push	 ebx
  00001	56		 push	 esi
  00002	57		 push	 edi
  00003	8b f9		 mov	 edi, ecx

; 185  : 		INT32 Count = GetCount();

  00005	33 f6		 xor	 esi, esi
  00007	8b 5f 14	 mov	 ebx, DWORD PTR [edi+20]

; 186  : 		for (INT i = 0 ; i < Count ; ++i)

  0000a	85 db		 test	 ebx, ebx
  0000c	7e 29		 jle	 SHORT $LN3@SafeFreeAl
  0000e	8b ff		 npad	 2
$LL4@SafeFreeAl:

; 93   : 	void *	GetItem( INT32 idx)				{ if( idx >= GetCount() || idx < 0 )	return NULL;

  00010	3b 77 14	 cmp	 esi, DWORD PTR [edi+20]
  00013	7d 1d		 jge	 SHORT $LN2@SafeFreeAl

; 94   : 											  else									return Items[ idx];	 }

  00015	8b 47 24	 mov	 eax, DWORD PTR [edi+36]
  00018	8b 04 b0	 mov	 eax, DWORD PTR [eax+esi*4]

; 187  : 		{
; 188  : 			void * p = GetItem(i);
; 189  : 			if ( p )

  0001b	85 c0		 test	 eax, eax
  0001d	74 13		 je	 SHORT $LN2@SafeFreeAl

; 190  : 				i3MemFree(p);

  0001f	68 be 00 00 00	 push	 190			; 000000beH
  00024	68 00 00 00 00	 push	 OFFSET ??_C@_0GD@LNMGNFKI@E?3?2Proyectos?2JuegosOnlineproyec@
  00029	50		 push	 eax
  0002a	e8 00 00 00 00	 call	 ?FreeTool@i3mem@@YAXPAXPBDH@Z ; i3mem::FreeTool
  0002f	83 c4 0c	 add	 esp, 12			; 0000000cH
$LN2@SafeFreeAl:

; 186  : 		for (INT i = 0 ; i < Count ; ++i)

  00032	46		 inc	 esi
  00033	3b f3		 cmp	 esi, ebx
  00035	7c d9		 jl	 SHORT $LL4@SafeFreeAl
$LN3@SafeFreeAl:

; 191  : 		}
; 192  : 		Clear();

  00037	8b 07		 mov	 eax, DWORD PTR [edi]
  00039	8b cf		 mov	 ecx, edi
  0003b	6a 00		 push	 0
  0003d	ff 50 20	 call	 DWORD PTR [eax+32]
  00040	5f		 pop	 edi
  00041	5e		 pop	 esi
  00042	5b		 pop	 ebx

; 193  : 	}

  00043	c3		 ret	 0
?SafeFreeAll@i3List@@QAEXXZ ENDP			; i3List::SafeFreeAll
_TEXT	ENDS
; Function compile flags: /Ogtp
; File E:\Proyectos\JuegosOnlineproyectos\PB\pbblow\Piercing Blow Remake\i3Server\include\i3Base\i3List.h
;	COMDAT ?SafeReleaseAll@i3List@@QAEXXZ
_TEXT	SEGMENT
?SafeReleaseAll@i3List@@QAEXXZ PROC			; i3List::SafeReleaseAll, COMDAT
; _this$ = ecx

; 170  : 	{

  00000	53		 push	 ebx
  00001	56		 push	 esi
  00002	57		 push	 edi
  00003	8b f9		 mov	 edi, ecx

; 171  : 		INT32 i,n = GetCount();

  00005	33 f6		 xor	 esi, esi
  00007	8b 5f 14	 mov	 ebx, DWORD PTR [edi+20]

; 172  : 		for( i=0; i<n; i++)

  0000a	85 db		 test	 ebx, ebx
  0000c	7e 1b		 jle	 SHORT $LN3@SafeReleas
  0000e	8b ff		 npad	 2
$LL4@SafeReleas:

; 93   : 	void *	GetItem( INT32 idx)				{ if( idx >= GetCount() || idx < 0 )	return NULL;

  00010	3b 77 14	 cmp	 esi, DWORD PTR [edi+20]
  00013	7d 0f		 jge	 SHORT $LN2@SafeReleas

; 94   : 											  else									return Items[ idx];	 }

  00015	8b 47 24	 mov	 eax, DWORD PTR [edi+36]
  00018	8b 0c b0	 mov	 ecx, DWORD PTR [eax+esi*4]

; 173  : 		{
; 174  : 			i3ElementBase *pItem = (i3ElementBase*)GetItem(i);
; 175  : 			if( pItem != NULL )

  0001b	85 c9		 test	 ecx, ecx
  0001d	74 05		 je	 SHORT $LN2@SafeReleas

; 176  : 			{
; 177  : 				pItem->Release();

  0001f	e8 00 00 00 00	 call	 ?Release@i3ElementBase@@QAEXXZ ; i3ElementBase::Release
$LN2@SafeReleas:

; 172  : 		for( i=0; i<n; i++)

  00024	46		 inc	 esi
  00025	3b f3		 cmp	 esi, ebx
  00027	7c e7		 jl	 SHORT $LL4@SafeReleas
$LN3@SafeReleas:

; 178  : 			}
; 179  : 		}
; 180  : 		Clear();

  00029	8b 07		 mov	 eax, DWORD PTR [edi]
  0002b	8b cf		 mov	 ecx, edi
  0002d	6a 00		 push	 0
  0002f	ff 50 20	 call	 DWORD PTR [eax+32]
  00032	5f		 pop	 edi
  00033	5e		 pop	 esi
  00034	5b		 pop	 ebx

; 181  : 	}

  00035	c3		 ret	 0
?SafeReleaseAll@i3List@@QAEXXZ ENDP			; i3List::SafeReleaseAll
_TEXT	ENDS
; Function compile flags: /Ogtp
; File E:\Proyectos\JuegosOnlineproyectos\PB\pbblow\Piercing Blow Remake\i3Server\include\i3Base\i3List.h
;	COMDAT ?AddFromList@i3List@@QAEXPAV1@@Z
_TEXT	SEGMENT
_pSrcList$ = 8						; size = 4
?AddFromList@i3List@@QAEXPAV1@@Z PROC			; i3List::AddFromList, COMDAT
; _this$ = ecx

; 126  : 	{

  00000	55		 push	 ebp
  00001	8b ec		 mov	 ebp, esp
  00003	53		 push	 ebx
  00004	56		 push	 esi
  00005	57		 push	 edi
  00006	8b 7d 08	 mov	 edi, DWORD PTR _pSrcList$[ebp]

; 127  : 		INT32 i;
; 128  : 		for( i = 0; i  < pSrcList->GetCount(); i++)

  00009	33 f6		 xor	 esi, esi
  0000b	8b d9		 mov	 ebx, ecx
  0000d	39 77 14	 cmp	 DWORD PTR [edi+20], esi
  00010	7e 13		 jle	 SHORT $LN3@AddFromLis
$LL4@AddFromLis:

; 129  : 		{
; 130  : 			Add( pSrcList->Items[i]);

  00012	8b 47 24	 mov	 eax, DWORD PTR [edi+36]
  00015	8b cb		 mov	 ecx, ebx
  00017	8b 13		 mov	 edx, DWORD PTR [ebx]
  00019	ff 34 b0	 push	 DWORD PTR [eax+esi*4]
  0001c	ff 52 10	 call	 DWORD PTR [edx+16]
  0001f	46		 inc	 esi
  00020	3b 77 14	 cmp	 esi, DWORD PTR [edi+20]
  00023	7c ed		 jl	 SHORT $LL4@AddFromLis
$LN3@AddFromLis:
  00025	5f		 pop	 edi

; 131  : 		}
; 132  : 	}

  00026	5e		 pop	 esi
  00027	5b		 pop	 ebx
  00028	5d		 pop	 ebp
  00029	c2 04 00	 ret	 4
?AddFromList@i3List@@QAEXPAV1@@Z ENDP			; i3List::AddFromList
_TEXT	ENDS
; Function compile flags: /Ogtp
; File E:\Proyectos\JuegosOnlineproyectos\PB\pbblow\Piercing Blow Remake\i3Server\include\i3Base\i3List.h
;	COMDAT ?GetLast@i3List@@QAEPAXXZ
_TEXT	SEGMENT
?GetLast@i3List@@QAEPAXXZ PROC				; i3List::GetLast, COMDAT
; _this$ = ecx

; 114  : 	void *	GetLast(void)					{ return Items[ m_Count-1]; }

  00000	8b 51 14	 mov	 edx, DWORD PTR [ecx+20]
  00003	8b 41 24	 mov	 eax, DWORD PTR [ecx+36]
  00006	8b 44 90 fc	 mov	 eax, DWORD PTR [eax+edx*4-4]
  0000a	c3		 ret	 0
?GetLast@i3List@@QAEPAXXZ ENDP				; i3List::GetLast
_TEXT	ENDS
; Function compile flags: /Ogtp
; File E:\Proyectos\JuegosOnlineproyectos\PB\pbblow\Piercing Blow Remake\i3Server\include\i3Base\i3List.h
;	COMDAT ?GetFirst@i3List@@QAEPAXXZ
_TEXT	SEGMENT
?GetFirst@i3List@@QAEPAXXZ PROC				; i3List::GetFirst, COMDAT
; _this$ = ecx

; 113  : 	void *	GetFirst(void)					{ return Items[ 0]; }

  00000	8b 41 24	 mov	 eax, DWORD PTR [ecx+36]
  00003	8b 00		 mov	 eax, DWORD PTR [eax]
  00005	c3		 ret	 0
?GetFirst@i3List@@QAEPAXXZ ENDP				; i3List::GetFirst
_TEXT	ENDS
; Function compile flags: /Ogtp
; File E:\Proyectos\JuegosOnlineproyectos\PB\pbblow\Piercing Blow Remake\i3Server\include\i3Base\i3List.h
;	COMDAT ?Find@i3List@@QBEHPAX@Z
_TEXT	SEGMENT
_p$ = 8							; size = 4
?Find@i3List@@QBEHPAX@Z PROC				; i3List::Find, COMDAT
; _this$ = ecx

; 111  : 	INT32	Find( void * p) const			{ return IndexOf( p); }

  00000	55		 push	 ebp
  00001	8b ec		 mov	 ebp, esp
  00003	8b 01		 mov	 eax, DWORD PTR [ecx]
  00005	5d		 pop	 ebp
  00006	ff 60 0c	 jmp	 DWORD PTR [eax+12]
?Find@i3List@@QBEHPAX@Z ENDP				; i3List::Find
_TEXT	ENDS
; Function compile flags: /Ogtp
; File E:\Proyectos\JuegosOnlineproyectos\PB\pbblow\Piercing Blow Remake\i3Server\include\i3Base\i3List.h
;	COMDAT ?GetSafeItem@i3List@@QAEPAXH@Z
_TEXT	SEGMENT
_idx$ = 8						; size = 4
?GetSafeItem@i3List@@QAEPAXH@Z PROC			; i3List::GetSafeItem, COMDAT
; _this$ = ecx

; 107  : 	{

  00000	55		 push	 ebp
  00001	8b ec		 mov	 ebp, esp

; 102  : 		if ( idx >= 0 && idx < m_Count )

  00003	8b 55 08	 mov	 edx, DWORD PTR _idx$[ebp]
  00006	85 d2		 test	 edx, edx
  00008	78 0f		 js	 SHORT $LN4@GetSafeIte
  0000a	3b 51 14	 cmp	 edx, DWORD PTR [ecx+20]
  0000d	7d 0a		 jge	 SHORT $LN4@GetSafeIte

; 103  : 			return Items[ idx];

  0000f	8b 41 24	 mov	 eax, DWORD PTR [ecx+36]

; 108  : 		return const_cast<void *>(static_cast<const i3List &>(*this).GetSafeItem(idx));

  00012	8b 04 90	 mov	 eax, DWORD PTR [eax+edx*4]

; 109  : 	}

  00015	5d		 pop	 ebp
  00016	c2 04 00	 ret	 4
$LN4@GetSafeIte:

; 108  : 		return const_cast<void *>(static_cast<const i3List &>(*this).GetSafeItem(idx));

  00019	33 c0		 xor	 eax, eax

; 109  : 	}

  0001b	5d		 pop	 ebp
  0001c	c2 04 00	 ret	 4
?GetSafeItem@i3List@@QAEPAXH@Z ENDP			; i3List::GetSafeItem
_TEXT	ENDS
; Function compile flags: /Ogtp
; File E:\Proyectos\JuegosOnlineproyectos\PB\pbblow\Piercing Blow Remake\i3Server\include\i3Base\i3List.h
;	COMDAT ?GetSafeItem@i3List@@QBEPBXH@Z
_TEXT	SEGMENT
_idx$ = 8						; size = 4
?GetSafeItem@i3List@@QBEPBXH@Z PROC			; i3List::GetSafeItem, COMDAT
; _this$ = ecx

; 101  : 	{

  00000	55		 push	 ebp
  00001	8b ec		 mov	 ebp, esp

; 102  : 		if ( idx >= 0 && idx < m_Count )

  00003	8b 55 08	 mov	 edx, DWORD PTR _idx$[ebp]
  00006	85 d2		 test	 edx, edx
  00008	78 0f		 js	 SHORT $LN2@GetSafeIte
  0000a	3b 51 14	 cmp	 edx, DWORD PTR [ecx+20]
  0000d	7d 0a		 jge	 SHORT $LN2@GetSafeIte

; 103  : 			return Items[ idx];

  0000f	8b 41 24	 mov	 eax, DWORD PTR [ecx+36]
  00012	8b 04 90	 mov	 eax, DWORD PTR [eax+edx*4]

; 105  : 	}

  00015	5d		 pop	 ebp
  00016	c2 04 00	 ret	 4
$LN2@GetSafeIte:

; 104  : 		return NULL;

  00019	33 c0		 xor	 eax, eax

; 105  : 	}

  0001b	5d		 pop	 ebp
  0001c	c2 04 00	 ret	 4
?GetSafeItem@i3List@@QBEPBXH@Z ENDP			; i3List::GetSafeItem
_TEXT	ENDS
; Function compile flags: /Ogtp
; File E:\Proyectos\JuegosOnlineproyectos\PB\pbblow\Piercing Blow Remake\i3Server\include\i3Base\i3List.h
;	COMDAT ?GetItem@i3List@@QBEPBXH@Z
_TEXT	SEGMENT
_idx$ = 8						; size = 4
?GetItem@i3List@@QBEPBXH@Z PROC				; i3List::GetItem, COMDAT
; _this$ = ecx

; 97   : 	const void *	GetItem( INT32 idx) const	{ if( idx >= GetCount() || idx < 0 )	return NULL;

  00000	55		 push	 ebp
  00001	8b ec		 mov	 ebp, esp
  00003	8b 55 08	 mov	 edx, DWORD PTR _idx$[ebp]
  00006	3b 51 14	 cmp	 edx, DWORD PTR [ecx+20]
  00009	7d 0e		 jge	 SHORT $LN4@GetItem
  0000b	85 d2		 test	 edx, edx
  0000d	78 0a		 js	 SHORT $LN4@GetItem

; 98   : 												  else									return Items[ idx];	 }

  0000f	8b 41 24	 mov	 eax, DWORD PTR [ecx+36]
  00012	8b 04 90	 mov	 eax, DWORD PTR [eax+edx*4]
  00015	5d		 pop	 ebp
  00016	c2 04 00	 ret	 4
$LN4@GetItem:

; 97   : 	const void *	GetItem( INT32 idx) const	{ if( idx >= GetCount() || idx < 0 )	return NULL;

  00019	33 c0		 xor	 eax, eax

; 98   : 												  else									return Items[ idx];	 }

  0001b	5d		 pop	 ebp
  0001c	c2 04 00	 ret	 4
?GetItem@i3List@@QBEPBXH@Z ENDP				; i3List::GetItem
_TEXT	ENDS
; Function compile flags: /Ogtp
; File E:\Proyectos\JuegosOnlineproyectos\PB\pbblow\Piercing Blow Remake\i3Server\include\i3Base\i3List.h
;	COMDAT ?GetItem@i3List@@QAEPAXH@Z
_TEXT	SEGMENT
_idx$ = 8						; size = 4
?GetItem@i3List@@QAEPAXH@Z PROC				; i3List::GetItem, COMDAT
; _this$ = ecx

; 93   : 	void *	GetItem( INT32 idx)				{ if( idx >= GetCount() || idx < 0 )	return NULL;

  00000	55		 push	 ebp
  00001	8b ec		 mov	 ebp, esp
  00003	8b 55 08	 mov	 edx, DWORD PTR _idx$[ebp]
  00006	3b 51 14	 cmp	 edx, DWORD PTR [ecx+20]
  00009	7d 0e		 jge	 SHORT $LN4@GetItem
  0000b	85 d2		 test	 edx, edx
  0000d	78 0a		 js	 SHORT $LN4@GetItem

; 94   : 											  else									return Items[ idx];	 }

  0000f	8b 41 24	 mov	 eax, DWORD PTR [ecx+36]
  00012	8b 04 90	 mov	 eax, DWORD PTR [eax+edx*4]
  00015	5d		 pop	 ebp
  00016	c2 04 00	 ret	 4
$LN4@GetItem:

; 93   : 	void *	GetItem( INT32 idx)				{ if( idx >= GetCount() || idx < 0 )	return NULL;

  00019	33 c0		 xor	 eax, eax

; 94   : 											  else									return Items[ idx];	 }

  0001b	5d		 pop	 ebp
  0001c	c2 04 00	 ret	 4
?GetItem@i3List@@QAEPAXH@Z ENDP				; i3List::GetItem
_TEXT	ENDS
; Function compile flags: /Ogtp
; File E:\Proyectos\JuegosOnlineproyectos\PB\pbblow\Piercing Blow Remake\i3Server\include\i3Base\i3List.h
;	COMDAT ?GetCount@i3List@@QBEHXZ
_TEXT	SEGMENT
?GetCount@i3List@@QBEHXZ PROC				; i3List::GetCount, COMDAT
; _this$ = ecx

; 91   : 	INT32	GetCount(void) const			{ return m_Count; }

  00000	8b 41 14	 mov	 eax, DWORD PTR [ecx+20]
  00003	c3		 ret	 0
?GetCount@i3List@@QBEHXZ ENDP				; i3List::GetCount
_TEXT	ENDS
; Function compile flags: /Ogtp
; File E:\Proyectos\JuegosOnlineproyectos\PB\pbblow\Piercing Blow Remake\i3Server\include\i3Base\i3List.h
;	COMDAT ?SetOnceMode@i3List@@QAEXH@Z
_TEXT	SEGMENT
_bFlag$ = 8						; size = 4
?SetOnceMode@i3List@@QAEXH@Z PROC			; i3List::SetOnceMode, COMDAT
; _this$ = ecx

; 89   : 	void	SetOnceMode( BOOL bFlag = TRUE ){ m_bOnceMode = bFlag;	}

  00000	55		 push	 ebp
  00001	8b ec		 mov	 ebp, esp
  00003	8b 45 08	 mov	 eax, DWORD PTR _bFlag$[ebp]
  00006	89 41 20	 mov	 DWORD PTR [ecx+32], eax
  00009	5d		 pop	 ebp
  0000a	c2 04 00	 ret	 4
?SetOnceMode@i3List@@QAEXH@Z ENDP			; i3List::SetOnceMode
_TEXT	ENDS
; Function compile flags: /Ogtp
; File E:\Proyectos\JuegosOnlineproyectos\PB\pbblow\Piercing Blow Remake\i3Server\include\i3Base\i3List.h
;	COMDAT ?SetOptmizeEnableWhenClear@i3List@@QAEXH@Z
_TEXT	SEGMENT
_bFlag$ = 8						; size = 4
?SetOptmizeEnableWhenClear@i3List@@QAEXH@Z PROC		; i3List::SetOptmizeEnableWhenClear, COMDAT
; _this$ = ecx

; 85   : 	void	SetOptmizeEnableWhenClear( BOOL bFlag)				{ m_bOptimizeWhenClear = bFlag; }

  00000	55		 push	 ebp
  00001	8b ec		 mov	 ebp, esp
  00003	8b 45 08	 mov	 eax, DWORD PTR _bFlag$[ebp]
  00006	89 41 1c	 mov	 DWORD PTR [ecx+28], eax
  00009	5d		 pop	 ebp
  0000a	c2 04 00	 ret	 4
?SetOptmizeEnableWhenClear@i3List@@QAEXH@Z ENDP		; i3List::SetOptmizeEnableWhenClear
_TEXT	ENDS
; Function compile flags: /Ogtp
; File E:\Proyectos\JuegosOnlineproyectos\PB\pbblow\Piercing Blow Remake\i3Server\include\i3Base\i3List.h
;	COMDAT ?GetClassMeta@i3List@@SAPAVi3ClassMeta@@XZ
_TEXT	SEGMENT
?GetClassMeta@i3List@@SAPAVi3ClassMeta@@XZ PROC		; i3List::GetClassMeta, COMDAT

; 22   : 	I3_CLASS_DEFINE( i3List);

  00000	a1 00 00 00 00	 mov	 eax, DWORD PTR ?s_pClassMetai3List@i3List@@2PAVi3ClassMeta@@A ; i3List::s_pClassMetai3List
  00005	c3		 ret	 0
?GetClassMeta@i3List@@SAPAVi3ClassMeta@@XZ ENDP		; i3List::GetClassMeta
_TEXT	ENDS
; Function compile flags: /Ogtp
;	COMDAT ??_Ei3XMLElement@@UAEPAXI@Z
_TEXT	SEGMENT
__$EHRec$ = -12						; size = 12
___flags$ = 8						; size = 4
??_Ei3XMLElement@@UAEPAXI@Z PROC			; i3XMLElement::`vector deleting destructor', COMDAT
; _this$ = ecx
  00000	55		 push	 ebp
  00001	8b ec		 mov	 ebp, esp
  00003	6a ff		 push	 -1
  00005	68 00 00 00 00	 push	 __ehhandler$??_Ei3XMLElement@@UAEPAXI@Z
  0000a	64 a1 00 00 00
	00		 mov	 eax, DWORD PTR fs:0
  00010	50		 push	 eax
  00011	53		 push	 ebx
  00012	56		 push	 esi
  00013	57		 push	 edi
  00014	a1 00 00 00 00	 mov	 eax, DWORD PTR ___security_cookie
  00019	33 c5		 xor	 eax, ebp
  0001b	50		 push	 eax
  0001c	8d 45 f4	 lea	 eax, DWORD PTR __$EHRec$[ebp]
  0001f	64 a3 00 00 00
	00		 mov	 DWORD PTR fs:0, eax
  00025	8b f1		 mov	 esi, ecx
  00027	8b 45 08	 mov	 eax, DWORD PTR ___flags$[ebp]
  0002a	8b f8		 mov	 edi, eax
  0002c	83 e7 01	 and	 edi, 1
  0002f	a8 02		 test	 al, 2
  00031	74 42		 je	 SHORT $LN2@vector
  00033	68 00 00 00 00	 push	 OFFSET ??1i3XMLElement@@UAE@XZ ; i3XMLElement::~i3XMLElement
  00038	ff 76 fc	 push	 DWORD PTR [esi-4]
  0003b	8d 5e fc	 lea	 ebx, DWORD PTR [esi-4]
  0003e	6a 50		 push	 80			; 00000050H
  00040	56		 push	 esi
  00041	e8 00 00 00 00	 call	 ??_M@YGXPAXIIP6EX0@Z@Z
  00046	85 ff		 test	 edi, edi
  00048	74 15		 je	 SHORT $LN3@vector
  0004a	8b 0b		 mov	 ecx, DWORD PTR [ebx]
  0004c	8d 0c 89	 lea	 ecx, DWORD PTR [ecx+ecx*4]
  0004f	c1 e1 04	 shl	 ecx, 4
  00052	83 c1 04	 add	 ecx, 4
  00055	51		 push	 ecx
  00056	53		 push	 ebx
  00057	e8 00 00 00 00	 call	 ??_V@YAXPAXI@Z		; operator delete[]
  0005c	83 c4 08	 add	 esp, 8
$LN3@vector:
  0005f	8b c3		 mov	 eax, ebx
  00061	8b 4d f4	 mov	 ecx, DWORD PTR __$EHRec$[ebp]
  00064	64 89 0d 00 00
	00 00		 mov	 DWORD PTR fs:0, ecx
  0006b	59		 pop	 ecx
  0006c	5f		 pop	 edi
  0006d	5e		 pop	 esi
  0006e	5b		 pop	 ebx
  0006f	8b e5		 mov	 esp, ebp
  00071	5d		 pop	 ebp
  00072	c2 04 00	 ret	 4
$LN2@vector:
  00075	e8 00 00 00 00	 call	 ??1i3XMLElement@@UAE@XZ	; i3XMLElement::~i3XMLElement
  0007a	85 ff		 test	 edi, edi
  0007c	74 0b		 je	 SHORT $LN4@vector
  0007e	6a 50		 push	 80			; 00000050H
  00080	56		 push	 esi
  00081	e8 00 00 00 00	 call	 ??3@YAXPAXI@Z		; operator delete
  00086	83 c4 08	 add	 esp, 8
$LN4@vector:
  00089	8b c6		 mov	 eax, esi
  0008b	8b 4d f4	 mov	 ecx, DWORD PTR __$EHRec$[ebp]
  0008e	64 89 0d 00 00
	00 00		 mov	 DWORD PTR fs:0, ecx
  00095	59		 pop	 ecx
  00096	5f		 pop	 edi
  00097	5e		 pop	 esi
  00098	5b		 pop	 ebx
  00099	8b e5		 mov	 esp, ebp
  0009b	5d		 pop	 ebp
  0009c	c2 04 00	 ret	 4
  0009f	cc		 int	 3
  000a0	cc		 int	 3
  000a1	cc		 int	 3
  000a2	cc		 int	 3
  000a3	cc		 int	 3
_TEXT	ENDS
;	COMDAT text$x
text$x	SEGMENT
__ehhandler$??_Ei3XMLElement@@UAEPAXI@Z:
  00000	90		 npad	 1
  00001	90		 npad	 1
  00002	8b 54 24 08	 mov	 edx, DWORD PTR [esp+8]
  00006	8d 42 0c	 lea	 eax, DWORD PTR [edx+12]
  00009	8b 4a f0	 mov	 ecx, DWORD PTR [edx-16]
  0000c	33 c8		 xor	 ecx, eax
  0000e	e8 00 00 00 00	 call	 @__security_check_cookie@4
  00013	b8 00 00 00 00	 mov	 eax, OFFSET __ehfuncinfo$??_Ei3XMLElement@@UAEPAXI@Z
  00018	e9 00 00 00 00	 jmp	 ___CxxFrameHandler3
text$x	ENDS
??_Ei3XMLElement@@UAEPAXI@Z ENDP			; i3XMLElement::`vector deleting destructor'
; Function compile flags: /Ogtp
;	COMDAT ??_Gi3XMLElement@@UAEPAXI@Z
_TEXT	SEGMENT
___flags$ = 8						; size = 4
??_Gi3XMLElement@@UAEPAXI@Z PROC			; i3XMLElement::`scalar deleting destructor', COMDAT
; _this$ = ecx
  00000	55		 push	 ebp
  00001	8b ec		 mov	 ebp, esp
  00003	56		 push	 esi
  00004	8b f1		 mov	 esi, ecx
  00006	e8 00 00 00 00	 call	 ??1i3XMLElement@@UAE@XZ	; i3XMLElement::~i3XMLElement
  0000b	f6 45 08 01	 test	 BYTE PTR ___flags$[ebp], 1
  0000f	74 0b		 je	 SHORT $LN5@scalar
  00011	6a 50		 push	 80			; 00000050H
  00013	56		 push	 esi
  00014	e8 00 00 00 00	 call	 ??3@YAXPAXI@Z		; operator delete
  00019	83 c4 08	 add	 esp, 8
$LN5@scalar:
  0001c	8b c6		 mov	 eax, esi
  0001e	5e		 pop	 esi
  0001f	5d		 pop	 ebp
  00020	c2 04 00	 ret	 4
??_Gi3XMLElement@@UAEPAXI@Z ENDP			; i3XMLElement::`scalar deleting destructor'
_TEXT	ENDS
; Function compile flags: /Ogtp
;	COMDAT ??4i3XMLElement@@QAEAAV0@ABV0@@Z
_TEXT	SEGMENT
___that$ = 8						; size = 4
??4i3XMLElement@@QAEAAV0@ABV0@@Z PROC			; i3XMLElement::operator=, COMDAT
; _this$ = ecx
  00000	55		 push	 ebp
  00001	8b ec		 mov	 ebp, esp
  00003	56		 push	 esi
  00004	ff 75 08	 push	 DWORD PTR ___that$[ebp]
  00007	8b f1		 mov	 esi, ecx
  00009	e8 00 00 00 00	 call	 ??4TiXmlElement@@QAEXABV0@@Z ; TiXmlElement::operator=
  0000e	8b c6		 mov	 eax, esi
  00010	5e		 pop	 esi
  00011	5d		 pop	 ebp
  00012	c2 04 00	 ret	 4
??4i3XMLElement@@QAEAAV0@ABV0@@Z ENDP			; i3XMLElement::operator=
_TEXT	ENDS
; Function compile flags: /Ogtp
;	COMDAT ??0i3XMLElement@@QAE@ABV0@@Z
_TEXT	SEGMENT
_this$ = -4						; size = 4
___that$ = 8						; size = 4
??0i3XMLElement@@QAE@ABV0@@Z PROC			; i3XMLElement::i3XMLElement, COMDAT
; _this$ = ecx
  00000	55		 push	 ebp
  00001	8b ec		 mov	 ebp, esp
  00003	51		 push	 ecx
  00004	56		 push	 esi
  00005	ff 75 08	 push	 DWORD PTR ___that$[ebp]
  00008	8b f1		 mov	 esi, ecx
  0000a	89 75 fc	 mov	 DWORD PTR _this$[ebp], esi
  0000d	e8 00 00 00 00	 call	 ??0TiXmlElement@@QAE@ABV0@@Z ; TiXmlElement::TiXmlElement
  00012	c7 06 00 00 00
	00		 mov	 DWORD PTR [esi], OFFSET ??_7i3XMLElement@@6B@
  00018	8b c6		 mov	 eax, esi
  0001a	5e		 pop	 esi
  0001b	8b e5		 mov	 esp, ebp
  0001d	5d		 pop	 ebp
  0001e	c2 04 00	 ret	 4
??0i3XMLElement@@QAE@ABV0@@Z ENDP			; i3XMLElement::i3XMLElement
_TEXT	ENDS
; Function compile flags: /Ogtp
; File E:\Proyectos\JuegosOnlineproyectos\PB\pbblow\Piercing Blow Remake\i3Server\include\i3Base\i3XMLElement.h
;	COMDAT ?getAttr@i3XMLElement@@QAEPBDPBDPAG@Z
_TEXT	SEGMENT
_val$ = -4						; size = 4
_pszName$ = 8						; size = 4
_pVal$ = 12						; size = 4
?getAttr@i3XMLElement@@QAEPBDPBDPAG@Z PROC		; i3XMLElement::getAttr, COMDAT
; _this$ = ecx

; 39   : 	{

  00000	55		 push	 ebp
  00001	8b ec		 mov	 ebp, esp
  00003	51		 push	 ecx

; 40   : 		INT32 val;
; 41   : 		const char * pRv;
; 42   : 
; 43   : 		pRv = Attribute( pszName, &val);

  00004	8d 45 fc	 lea	 eax, DWORD PTR _val$[ebp]
  00007	50		 push	 eax
  00008	ff 75 08	 push	 DWORD PTR _pszName$[ebp]
  0000b	e8 00 00 00 00	 call	 ?Attribute@TiXmlElement@@QBEPBDPBDPAH@Z ; TiXmlElement::Attribute

; 44   : 
; 45   : 		*pVal = (UINT16) val;

  00010	8b 55 0c	 mov	 edx, DWORD PTR _pVal$[ebp]
  00013	66 8b 4d fc	 mov	 cx, WORD PTR _val$[ebp]
  00017	66 89 0a	 mov	 WORD PTR [edx], cx

; 46   : 
; 47   : 		return pRv;
; 48   : 	}

  0001a	8b e5		 mov	 esp, ebp
  0001c	5d		 pop	 ebp
  0001d	c2 08 00	 ret	 8
?getAttr@i3XMLElement@@QAEPBDPBDPAG@Z ENDP		; i3XMLElement::getAttr
_TEXT	ENDS
; Function compile flags: /Ogtp
; File E:\Proyectos\JuegosOnlineproyectos\PB\pbblow\Piercing Blow Remake\i3Server\include\i3Base\i3XMLElement.h
;	COMDAT ?getAttr@i3XMLElement@@QAEPBDPBDPAM@Z
_TEXT	SEGMENT
_val$ = -8						; size = 8
_pszName$ = 8						; size = 4
_pVal$ = 12						; size = 4
?getAttr@i3XMLElement@@QAEPBDPBDPAM@Z PROC		; i3XMLElement::getAttr, COMDAT
; _this$ = ecx

; 27   : 	{ 

  00000	55		 push	 ebp
  00001	8b ec		 mov	 ebp, esp
  00003	83 ec 08	 sub	 esp, 8

; 28   : 		const char * pRv;
; 29   : 		double val;
; 30   : 
; 31   : 		pRv = Attribute( pszName, &val);

  00006	8d 45 f8	 lea	 eax, DWORD PTR _val$[ebp]
  00009	50		 push	 eax
  0000a	ff 75 08	 push	 DWORD PTR _pszName$[ebp]
  0000d	e8 00 00 00 00	 call	 ?Attribute@TiXmlElement@@QBEPBDPBDPAN@Z ; TiXmlElement::Attribute

; 32   : 
; 33   : 		*pVal = (REAL32) val;

  00012	8b 4d 0c	 mov	 ecx, DWORD PTR _pVal$[ebp]
  00015	dd 45 f8	 fld	 QWORD PTR _val$[ebp]
  00018	d9 19		 fstp	 DWORD PTR [ecx]

; 34   : 
; 35   : 		return pRv; 
; 36   : 	}

  0001a	8b e5		 mov	 esp, ebp
  0001c	5d		 pop	 ebp
  0001d	c2 08 00	 ret	 8
?getAttr@i3XMLElement@@QAEPBDPBDPAM@Z ENDP		; i3XMLElement::getAttr
_TEXT	ENDS
; Function compile flags: /Ogtp
; File E:\Proyectos\JuegosOnlineproyectos\PB\pbblow\Piercing Blow Remake\i3Server\include\i3Base\i3XMLElement.h
;	COMDAT ?getAttr@i3XMLElement@@QAEPBDPBDPA_K@Z
_TEXT	SEGMENT
_pszName$ = 8						; size = 4
_pVal$ = 12						; size = 4
?getAttr@i3XMLElement@@QAEPBDPBDPA_K@Z PROC		; i3XMLElement::getAttr, COMDAT
; _this$ = ecx

; 25   : 	const char *	getAttr( const char * pszName, UINT64 * pVal)			{ return AttributeLong( pszName, (INT64 *) pVal); }

  00000	55		 push	 ebp
  00001	8b ec		 mov	 ebp, esp
  00003	5d		 pop	 ebp
  00004	e9 00 00 00 00	 jmp	 ?AttributeLong@TiXmlElement@@QBEPBDPBDPA_J@Z ; TiXmlElement::AttributeLong
?getAttr@i3XMLElement@@QAEPBDPBDPA_K@Z ENDP		; i3XMLElement::getAttr
_TEXT	ENDS
; Function compile flags: /Ogtp
; File E:\Proyectos\JuegosOnlineproyectos\PB\pbblow\Piercing Blow Remake\i3Server\include\i3Base\i3XMLElement.h
;	COMDAT ?getAttr@i3XMLElement@@QAEPBDPBDPA_J@Z
_TEXT	SEGMENT
_pszName$ = 8						; size = 4
_pVal$ = 12						; size = 4
?getAttr@i3XMLElement@@QAEPBDPBDPA_J@Z PROC		; i3XMLElement::getAttr, COMDAT
; _this$ = ecx

; 24   : 	const char *	getAttr( const char * pszName, INT64 * pVal)			{ return AttributeLong( pszName, pVal); }

  00000	55		 push	 ebp
  00001	8b ec		 mov	 ebp, esp
  00003	5d		 pop	 ebp
  00004	e9 00 00 00 00	 jmp	 ?AttributeLong@TiXmlElement@@QBEPBDPBDPA_J@Z ; TiXmlElement::AttributeLong
?getAttr@i3XMLElement@@QAEPBDPBDPA_J@Z ENDP		; i3XMLElement::getAttr
_TEXT	ENDS
; Function compile flags: /Ogtp
; File E:\Proyectos\JuegosOnlineproyectos\PB\pbblow\Piercing Blow Remake\i3Server\include\i3Base\i3XMLElement.h
;	COMDAT ?getAttr@i3XMLElement@@QAEPBDPBDPAI@Z
_TEXT	SEGMENT
_pszName$ = 8						; size = 4
_pVal$ = 12						; size = 4
?getAttr@i3XMLElement@@QAEPBDPBDPAI@Z PROC		; i3XMLElement::getAttr, COMDAT
; _this$ = ecx

; 23   : 	const char *	getAttr( const char * pszName, UINT32 * pVal)			{ return Attribute( pszName, (INT32 *) pVal); }

  00000	55		 push	 ebp
  00001	8b ec		 mov	 ebp, esp
  00003	5d		 pop	 ebp
  00004	e9 00 00 00 00	 jmp	 ?Attribute@TiXmlElement@@QBEPBDPBDPAH@Z ; TiXmlElement::Attribute
?getAttr@i3XMLElement@@QAEPBDPBDPAI@Z ENDP		; i3XMLElement::getAttr
_TEXT	ENDS
; Function compile flags: /Ogtp
; File E:\Proyectos\JuegosOnlineproyectos\PB\pbblow\Piercing Blow Remake\i3Server\include\i3Base\i3XMLElement.h
;	COMDAT ?getAttr@i3XMLElement@@QAEPBDPBDPAH@Z
_TEXT	SEGMENT
_pszName$ = 8						; size = 4
_pVal$ = 12						; size = 4
?getAttr@i3XMLElement@@QAEPBDPBDPAH@Z PROC		; i3XMLElement::getAttr, COMDAT
; _this$ = ecx

; 22   : 	const char *	getAttr( const char * pszName, INT32 * pVal)			{ return Attribute( pszName, pVal); }

  00000	55		 push	 ebp
  00001	8b ec		 mov	 ebp, esp
  00003	5d		 pop	 ebp
  00004	e9 00 00 00 00	 jmp	 ?Attribute@TiXmlElement@@QBEPBDPBDPAH@Z ; TiXmlElement::Attribute
?getAttr@i3XMLElement@@QAEPBDPBDPAH@Z ENDP		; i3XMLElement::getAttr
_TEXT	ENDS
; Function compile flags: /Ogtp
; File E:\Proyectos\JuegosOnlineproyectos\PB\pbblow\Piercing Blow Remake\i3Server\include\i3Base\i3XMLElement.h
;	COMDAT ?getAttr@i3XMLElement@@QAEPBDPBD@Z
_TEXT	SEGMENT
_pszName$ = 8						; size = 4
?getAttr@i3XMLElement@@QAEPBDPBD@Z PROC			; i3XMLElement::getAttr, COMDAT
; _this$ = ecx

; 21   : 	const char *	getAttr( const char * pszName)							{ return Attribute( pszName); }

  00000	55		 push	 ebp
  00001	8b ec		 mov	 ebp, esp
  00003	5d		 pop	 ebp
  00004	e9 00 00 00 00	 jmp	 ?Attribute@TiXmlElement@@QBEPBDPBD@Z ; TiXmlElement::Attribute
?getAttr@i3XMLElement@@QAEPBDPBD@Z ENDP			; i3XMLElement::getAttr
_TEXT	ENDS
; Function compile flags: /Ogtp
; File E:\Proyectos\JuegosOnlineproyectos\PB\pbblow\Piercing Blow Remake\i3Server\include\i3Base\i3XMLElement.h
;	COMDAT ?addAttr@i3XMLElement@@QAEXPBD_K@Z
_TEXT	SEGMENT
_pszName$ = 8						; size = 4
_val$ = 12						; size = 8
?addAttr@i3XMLElement@@QAEXPBD_K@Z PROC			; i3XMLElement::addAttr, COMDAT
; _this$ = ecx

; 19   : 	void		addAttr( const char * pszName, UINT64 val)					{	SetLongLongAttribute( pszName, (INT64)val); }

  00000	55		 push	 ebp
  00001	8b ec		 mov	 ebp, esp
  00003	ff 75 10	 push	 DWORD PTR _val$[ebp+4]
  00006	ff 75 0c	 push	 DWORD PTR _val$[ebp]
  00009	ff 75 08	 push	 DWORD PTR _pszName$[ebp]
  0000c	e8 00 00 00 00	 call	 ?SetLongLongAttribute@TiXmlElement@@QAEXPBD_J@Z ; TiXmlElement::SetLongLongAttribute
  00011	5d		 pop	 ebp
  00012	c2 0c 00	 ret	 12			; 0000000cH
?addAttr@i3XMLElement@@QAEXPBD_K@Z ENDP			; i3XMLElement::addAttr
_TEXT	ENDS
; Function compile flags: /Ogtp
; File E:\Proyectos\JuegosOnlineproyectos\PB\pbblow\Piercing Blow Remake\i3Server\include\i3Base\i3XMLElement.h
;	COMDAT ?addAttr@i3XMLElement@@QAEXPBD_J@Z
_TEXT	SEGMENT
_pszName$ = 8						; size = 4
_val$ = 12						; size = 8
?addAttr@i3XMLElement@@QAEXPBD_J@Z PROC			; i3XMLElement::addAttr, COMDAT
; _this$ = ecx

; 18   : 	void		addAttr( const char * pszName, INT64 val)					{	SetLongLongAttribute( pszName, val); }

  00000	55		 push	 ebp
  00001	8b ec		 mov	 ebp, esp
  00003	ff 75 10	 push	 DWORD PTR _val$[ebp+4]
  00006	ff 75 0c	 push	 DWORD PTR _val$[ebp]
  00009	ff 75 08	 push	 DWORD PTR _pszName$[ebp]
  0000c	e8 00 00 00 00	 call	 ?SetLongLongAttribute@TiXmlElement@@QAEXPBD_J@Z ; TiXmlElement::SetLongLongAttribute
  00011	5d		 pop	 ebp
  00012	c2 0c 00	 ret	 12			; 0000000cH
?addAttr@i3XMLElement@@QAEXPBD_J@Z ENDP			; i3XMLElement::addAttr
_TEXT	ENDS
; Function compile flags: /Ogtp
; File E:\Proyectos\JuegosOnlineproyectos\PB\pbblow\Piercing Blow Remake\i3Server\include\i3Base\i3XMLElement.h
;	COMDAT ?addAttr@i3XMLElement@@QAEXPBDM@Z
_TEXT	SEGMENT
_pszName$ = 8						; size = 4
_val$ = 12						; size = 4
?addAttr@i3XMLElement@@QAEXPBDM@Z PROC			; i3XMLElement::addAttr, COMDAT
; _this$ = ecx

; 17   : 	void		addAttr( const char * pszName, REAL32 val)					{	SetAttribute( pszName, val); }

  00000	55		 push	 ebp
  00001	8b ec		 mov	 ebp, esp
  00003	d9 45 0c	 fld	 DWORD PTR _val$[ebp]
  00006	51		 push	 ecx
  00007	d9 1c 24	 fstp	 DWORD PTR [esp]
  0000a	ff 75 08	 push	 DWORD PTR _pszName$[ebp]
  0000d	e8 00 00 00 00	 call	 ?SetAttribute@TiXmlElement@@QAEXPBDM@Z ; TiXmlElement::SetAttribute
  00012	5d		 pop	 ebp
  00013	c2 08 00	 ret	 8
?addAttr@i3XMLElement@@QAEXPBDM@Z ENDP			; i3XMLElement::addAttr
_TEXT	ENDS
; Function compile flags: /Ogtp
; File E:\Proyectos\JuegosOnlineproyectos\PB\pbblow\Piercing Blow Remake\i3Server\include\i3Base\i3XMLElement.h
;	COMDAT ?addAttr@i3XMLElement@@QAEXPBDI@Z
_TEXT	SEGMENT
_pszName$ = 8						; size = 4
_val$ = 12						; size = 4
?addAttr@i3XMLElement@@QAEXPBDI@Z PROC			; i3XMLElement::addAttr, COMDAT
; _this$ = ecx

; 16   : 	void		addAttr( const char * pszName, UINT32 val)					{	SetAttribute( pszName, (INT32) val); }

  00000	55		 push	 ebp
  00001	8b ec		 mov	 ebp, esp
  00003	5d		 pop	 ebp
  00004	e9 00 00 00 00	 jmp	 ?SetAttribute@TiXmlElement@@QAEXPBDH@Z ; TiXmlElement::SetAttribute
?addAttr@i3XMLElement@@QAEXPBDI@Z ENDP			; i3XMLElement::addAttr
_TEXT	ENDS
; Function compile flags: /Ogtp
; File E:\Proyectos\JuegosOnlineproyectos\PB\pbblow\Piercing Blow Remake\i3Server\include\i3Base\i3XMLElement.h
;	COMDAT ?addAttr@i3XMLElement@@QAEXPBDH@Z
_TEXT	SEGMENT
_pszName$ = 8						; size = 4
_val$ = 12						; size = 4
?addAttr@i3XMLElement@@QAEXPBDH@Z PROC			; i3XMLElement::addAttr, COMDAT
; _this$ = ecx

; 15   : 	void		addAttr( const char * pszName, INT32 val)					{	SetAttribute( pszName, val); }

  00000	55		 push	 ebp
  00001	8b ec		 mov	 ebp, esp
  00003	5d		 pop	 ebp
  00004	e9 00 00 00 00	 jmp	 ?SetAttribute@TiXmlElement@@QAEXPBDH@Z ; TiXmlElement::SetAttribute
?addAttr@i3XMLElement@@QAEXPBDH@Z ENDP			; i3XMLElement::addAttr
_TEXT	ENDS
; Function compile flags: /Ogtp
; File E:\Proyectos\JuegosOnlineproyectos\PB\pbblow\Piercing Blow Remake\i3Server\include\i3Base\i3XMLElement.h
;	COMDAT ?addAttr@i3XMLElement@@QAEXPBD0@Z
_TEXT	SEGMENT
_pszName$ = 8						; size = 4
_pszStr$ = 12						; size = 4
?addAttr@i3XMLElement@@QAEXPBD0@Z PROC			; i3XMLElement::addAttr, COMDAT
; _this$ = ecx

; 14   : 	void		addAttr( const char * pszName, const char * pszStr)			{	SetAttribute( pszName, pszStr); }

  00000	55		 push	 ebp
  00001	8b ec		 mov	 ebp, esp
  00003	5d		 pop	 ebp
  00004	e9 00 00 00 00	 jmp	 ?SetAttribute@TiXmlElement@@QAEXPBD0@Z ; TiXmlElement::SetAttribute
?addAttr@i3XMLElement@@QAEXPBD0@Z ENDP			; i3XMLElement::addAttr
_TEXT	ENDS
; Function compile flags: /Ogtp
; File E:\Proyectos\JuegosOnlineproyectos\PB\pbblow\Piercing Blow Remake\i3Server\include\i3Base\tinystr.h
;	COMDAT ??_ETiXmlPrinter@@UAEPAXI@Z
_TEXT	SEGMENT
__$EHRec$ = -12						; size = 12
___flags$ = 8						; size = 4
??_ETiXmlPrinter@@UAEPAXI@Z PROC			; TiXmlPrinter::`vector deleting destructor', COMDAT
; _this$ = ecx
  00000	55		 push	 ebp
  00001	8b ec		 mov	 ebp, esp
  00003	6a ff		 push	 -1
  00005	68 00 00 00 00	 push	 __ehhandler$??_ETiXmlPrinter@@UAEPAXI@Z
  0000a	64 a1 00 00 00
	00		 mov	 eax, DWORD PTR fs:0
  00010	50		 push	 eax
  00011	53		 push	 ebx
  00012	56		 push	 esi
  00013	57		 push	 edi
  00014	a1 00 00 00 00	 mov	 eax, DWORD PTR ___security_cookie
  00019	33 c5		 xor	 eax, ebp
  0001b	50		 push	 eax
  0001c	8d 45 f4	 lea	 eax, DWORD PTR __$EHRec$[ebp]
  0001f	64 a3 00 00 00
	00		 mov	 DWORD PTR fs:0, eax
  00025	8b f1		 mov	 esi, ecx
  00027	8b 5d 08	 mov	 ebx, DWORD PTR ___flags$[ebp]
  0002a	f6 c3 02	 test	 bl, 2
  0002d	74 44		 je	 SHORT $LN2@vector
  0002f	68 00 00 00 00	 push	 OFFSET ??1TiXmlPrinter@@UAE@XZ
  00034	ff 76 fc	 push	 DWORD PTR [esi-4]
  00037	8d 7e fc	 lea	 edi, DWORD PTR [esi-4]
  0003a	6a 18		 push	 24			; 00000018H
  0003c	56		 push	 esi
  0003d	e8 00 00 00 00	 call	 ??_M@YGXPAXIIP6EX0@Z@Z
  00042	f6 c3 01	 test	 bl, 1
  00045	74 16		 je	 SHORT $LN3@vector
  00047	8b 0f		 mov	 ecx, DWORD PTR [edi]
  00049	8d 0c 49	 lea	 ecx, DWORD PTR [ecx+ecx*2]
  0004c	8d 0c cd 04 00
	00 00		 lea	 ecx, DWORD PTR [ecx*8+4]
  00053	51		 push	 ecx
  00054	57		 push	 edi
  00055	e8 00 00 00 00	 call	 ??_V@YAXPAXI@Z		; operator delete[]
  0005a	83 c4 08	 add	 esp, 8
$LN3@vector:
  0005d	8b c7		 mov	 eax, edi
  0005f	8b 4d f4	 mov	 ecx, DWORD PTR __$EHRec$[ebp]
  00062	64 89 0d 00 00
	00 00		 mov	 DWORD PTR fs:0, ecx
  00069	59		 pop	 ecx
  0006a	5f		 pop	 edi
  0006b	5e		 pop	 esi
  0006c	5b		 pop	 ebx
  0006d	8b e5		 mov	 esp, ebp
  0006f	5d		 pop	 ebp
  00070	c2 04 00	 ret	 4
$LN2@vector:

; 257  : 		if (rep_ != &nullrep_)

  00073	8b 46 14	 mov	 eax, DWORD PTR [esi+20]
  00076	3d 00 00 00 00	 cmp	 eax, OFFSET ?nullrep_@TiXmlString@@0URep@1@A ; TiXmlString::nullrep_
  0007b	74 09		 je	 SHORT $LN16@vector

; 258  : 		{
; 259  : 			// The rep_ is really an array of ints. (see the allocator, above).
; 260  : 			// Cast it back before delete, so the compiler won't incorrectly call destructors.
; 261  : 			delete [] ( reinterpret_cast<int*>( rep_ ) );

  0007d	50		 push	 eax
  0007e	e8 00 00 00 00	 call	 ??_V@YAXPAX@Z		; operator delete[]
  00083	83 c4 04	 add	 esp, 4
$LN16@vector:

; 257  : 		if (rep_ != &nullrep_)

  00086	8b 46 10	 mov	 eax, DWORD PTR [esi+16]
  00089	3d 00 00 00 00	 cmp	 eax, OFFSET ?nullrep_@TiXmlString@@0URep@1@A ; TiXmlString::nullrep_
  0008e	74 09		 je	 SHORT $LN22@vector

; 258  : 		{
; 259  : 			// The rep_ is really an array of ints. (see the allocator, above).
; 260  : 			// Cast it back before delete, so the compiler won't incorrectly call destructors.
; 261  : 			delete [] ( reinterpret_cast<int*>( rep_ ) );

  00090	50		 push	 eax
  00091	e8 00 00 00 00	 call	 ??_V@YAXPAX@Z		; operator delete[]
  00096	83 c4 04	 add	 esp, 4
$LN22@vector:

; 257  : 		if (rep_ != &nullrep_)

  00099	8b 46 0c	 mov	 eax, DWORD PTR [esi+12]
  0009c	3d 00 00 00 00	 cmp	 eax, OFFSET ?nullrep_@TiXmlString@@0URep@1@A ; TiXmlString::nullrep_
  000a1	74 09		 je	 SHORT $LN28@vector

; 258  : 		{
; 259  : 			// The rep_ is really an array of ints. (see the allocator, above).
; 260  : 			// Cast it back before delete, so the compiler won't incorrectly call destructors.
; 261  : 			delete [] ( reinterpret_cast<int*>( rep_ ) );

  000a3	50		 push	 eax
  000a4	e8 00 00 00 00	 call	 ??_V@YAXPAX@Z		; operator delete[]
  000a9	83 c4 04	 add	 esp, 4
$LN28@vector:
  000ac	c7 06 00 00 00
	00		 mov	 DWORD PTR [esi], OFFSET ??_7TiXmlVisitor@@6B@
  000b2	f6 c3 01	 test	 bl, 1
  000b5	74 0b		 je	 SHORT $LN4@vector
  000b7	6a 18		 push	 24			; 00000018H
  000b9	56		 push	 esi
  000ba	e8 00 00 00 00	 call	 ??3@YAXPAXI@Z		; operator delete
  000bf	83 c4 08	 add	 esp, 8
$LN4@vector:
  000c2	8b c6		 mov	 eax, esi
  000c4	8b 4d f4	 mov	 ecx, DWORD PTR __$EHRec$[ebp]
  000c7	64 89 0d 00 00
	00 00		 mov	 DWORD PTR fs:0, ecx
  000ce	59		 pop	 ecx
  000cf	5f		 pop	 edi
  000d0	5e		 pop	 esi
  000d1	5b		 pop	 ebx
  000d2	8b e5		 mov	 esp, ebp
  000d4	5d		 pop	 ebp
  000d5	c2 04 00	 ret	 4
  000d8	cc		 int	 3
  000d9	cc		 int	 3
  000da	cc		 int	 3
  000db	cc		 int	 3
  000dc	cc		 int	 3
_TEXT	ENDS
;	COMDAT text$x
text$x	SEGMENT
__ehhandler$??_ETiXmlPrinter@@UAEPAXI@Z:
  00000	90		 npad	 1
  00001	90		 npad	 1
  00002	8b 54 24 08	 mov	 edx, DWORD PTR [esp+8]
  00006	8d 42 0c	 lea	 eax, DWORD PTR [edx+12]
  00009	8b 4a f0	 mov	 ecx, DWORD PTR [edx-16]
  0000c	33 c8		 xor	 ecx, eax
  0000e	e8 00 00 00 00	 call	 @__security_check_cookie@4
  00013	b8 00 00 00 00	 mov	 eax, OFFSET __ehfuncinfo$??_ETiXmlPrinter@@UAEPAXI@Z
  00018	e9 00 00 00 00	 jmp	 ___CxxFrameHandler3
text$x	ENDS
??_ETiXmlPrinter@@UAEPAXI@Z ENDP			; TiXmlPrinter::`vector deleting destructor'
; Function compile flags: /Ogtp
; File E:\Proyectos\JuegosOnlineproyectos\PB\pbblow\Piercing Blow Remake\i3Server\include\i3Base\tinystr.h
;	COMDAT ??_GTiXmlPrinter@@UAEPAXI@Z
_TEXT	SEGMENT
___flags$ = 8						; size = 4
??_GTiXmlPrinter@@UAEPAXI@Z PROC			; TiXmlPrinter::`scalar deleting destructor', COMDAT
; _this$ = ecx
  00000	55		 push	 ebp
  00001	8b ec		 mov	 ebp, esp

; 257  : 		if (rep_ != &nullrep_)

  00003	56		 push	 esi
  00004	8b f1		 mov	 esi, ecx
  00006	8b 46 14	 mov	 eax, DWORD PTR [esi+20]
  00009	3d 00 00 00 00	 cmp	 eax, OFFSET ?nullrep_@TiXmlString@@0URep@1@A ; TiXmlString::nullrep_
  0000e	74 09		 je	 SHORT $LN14@scalar

; 258  : 		{
; 259  : 			// The rep_ is really an array of ints. (see the allocator, above).
; 260  : 			// Cast it back before delete, so the compiler won't incorrectly call destructors.
; 261  : 			delete [] ( reinterpret_cast<int*>( rep_ ) );

  00010	50		 push	 eax
  00011	e8 00 00 00 00	 call	 ??_V@YAXPAX@Z		; operator delete[]
  00016	83 c4 04	 add	 esp, 4
$LN14@scalar:

; 257  : 		if (rep_ != &nullrep_)

  00019	8b 46 10	 mov	 eax, DWORD PTR [esi+16]
  0001c	3d 00 00 00 00	 cmp	 eax, OFFSET ?nullrep_@TiXmlString@@0URep@1@A ; TiXmlString::nullrep_
  00021	74 09		 je	 SHORT $LN20@scalar

; 258  : 		{
; 259  : 			// The rep_ is really an array of ints. (see the allocator, above).
; 260  : 			// Cast it back before delete, so the compiler won't incorrectly call destructors.
; 261  : 			delete [] ( reinterpret_cast<int*>( rep_ ) );

  00023	50		 push	 eax
  00024	e8 00 00 00 00	 call	 ??_V@YAXPAX@Z		; operator delete[]
  00029	83 c4 04	 add	 esp, 4
$LN20@scalar:

; 257  : 		if (rep_ != &nullrep_)

  0002c	8b 46 0c	 mov	 eax, DWORD PTR [esi+12]
  0002f	3d 00 00 00 00	 cmp	 eax, OFFSET ?nullrep_@TiXmlString@@0URep@1@A ; TiXmlString::nullrep_
  00034	74 09		 je	 SHORT $LN26@scalar

; 258  : 		{
; 259  : 			// The rep_ is really an array of ints. (see the allocator, above).
; 260  : 			// Cast it back before delete, so the compiler won't incorrectly call destructors.
; 261  : 			delete [] ( reinterpret_cast<int*>( rep_ ) );

  00036	50		 push	 eax
  00037	e8 00 00 00 00	 call	 ??_V@YAXPAX@Z		; operator delete[]
  0003c	83 c4 04	 add	 esp, 4
$LN26@scalar:
  0003f	f6 45 08 01	 test	 BYTE PTR ___flags$[ebp], 1
  00043	c7 06 00 00 00
	00		 mov	 DWORD PTR [esi], OFFSET ??_7TiXmlVisitor@@6B@
  00049	74 0b		 je	 SHORT $LN28@scalar
  0004b	6a 18		 push	 24			; 00000018H
  0004d	56		 push	 esi
  0004e	e8 00 00 00 00	 call	 ??3@YAXPAXI@Z		; operator delete
  00053	83 c4 08	 add	 esp, 8
$LN28@scalar:
  00056	8b c6		 mov	 eax, esi
  00058	5e		 pop	 esi
  00059	5d		 pop	 ebp
  0005a	c2 04 00	 ret	 4
??_GTiXmlPrinter@@UAEPAXI@Z ENDP			; TiXmlPrinter::`scalar deleting destructor'
_TEXT	ENDS
; Function compile flags: /Ogtp
; File E:\Proyectos\JuegosOnlineproyectos\PB\pbblow\Piercing Blow Remake\i3Server\include\i3Base\tinystr.h
;	COMDAT ??4TiXmlPrinter@@QAEAAV0@$$QAV0@@Z
_TEXT	SEGMENT
___that$ = 8						; size = 4
??4TiXmlPrinter@@QAEAAV0@$$QAV0@@Z PROC			; TiXmlPrinter::operator=, COMDAT
; _this$ = ecx
  00000	55		 push	 ebp
  00001	8b ec		 mov	 ebp, esp

; 150  : 	size_type length () const { return rep_->size; }

  00003	56		 push	 esi
  00004	8b 75 08	 mov	 esi, DWORD PTR ___that$[ebp]
  00007	57		 push	 edi
  00008	8b f9		 mov	 edi, ecx
  0000a	8b 46 04	 mov	 eax, DWORD PTR [esi+4]
  0000d	89 47 04	 mov	 DWORD PTR [edi+4], eax
  00010	8d 4f 0c	 lea	 ecx, DWORD PTR [edi+12]
  00013	8a 46 08	 mov	 al, BYTE PTR [esi+8]
  00016	88 47 08	 mov	 BYTE PTR [edi+8], al
  00019	8b 46 0c	 mov	 eax, DWORD PTR [esi+12]

; 120  : 		return assign(copy.start(), copy.length());

  0001c	ff 30		 push	 DWORD PTR [eax]

; 224  : 	char* start() const { return rep_->str; }

  0001e	83 c0 08	 add	 eax, 8

; 120  : 		return assign(copy.start(), copy.length());

  00021	50		 push	 eax
  00022	e8 00 00 00 00	 call	 ?assign@TiXmlString@@QAEAAV1@PBDI@Z ; TiXmlString::assign

; 150  : 	size_type length () const { return rep_->size; }

  00027	8b 46 10	 mov	 eax, DWORD PTR [esi+16]
  0002a	8d 4f 10	 lea	 ecx, DWORD PTR [edi+16]

; 120  : 		return assign(copy.start(), copy.length());

  0002d	ff 30		 push	 DWORD PTR [eax]

; 224  : 	char* start() const { return rep_->str; }

  0002f	83 c0 08	 add	 eax, 8

; 120  : 		return assign(copy.start(), copy.length());

  00032	50		 push	 eax
  00033	e8 00 00 00 00	 call	 ?assign@TiXmlString@@QAEAAV1@PBDI@Z ; TiXmlString::assign

; 150  : 	size_type length () const { return rep_->size; }

  00038	8b 46 14	 mov	 eax, DWORD PTR [esi+20]
  0003b	8d 4f 14	 lea	 ecx, DWORD PTR [edi+20]

; 120  : 		return assign(copy.start(), copy.length());

  0003e	ff 30		 push	 DWORD PTR [eax]

; 224  : 	char* start() const { return rep_->str; }

  00040	83 c0 08	 add	 eax, 8

; 120  : 		return assign(copy.start(), copy.length());

  00043	50		 push	 eax
  00044	e8 00 00 00 00	 call	 ?assign@TiXmlString@@QAEAAV1@PBDI@Z ; TiXmlString::assign
  00049	8b c7		 mov	 eax, edi
  0004b	5f		 pop	 edi
  0004c	5e		 pop	 esi
  0004d	5d		 pop	 ebp
  0004e	c2 04 00	 ret	 4
??4TiXmlPrinter@@QAEAAV0@$$QAV0@@Z ENDP			; TiXmlPrinter::operator=
_TEXT	ENDS
; Function compile flags: /Ogtp
; File E:\Proyectos\JuegosOnlineproyectos\PB\pbblow\Piercing Blow Remake\i3Server\include\i3Base\tinystr.h
;	COMDAT ??4TiXmlPrinter@@QAEAAV0@ABV0@@Z
_TEXT	SEGMENT
___that$ = 8						; size = 4
??4TiXmlPrinter@@QAEAAV0@ABV0@@Z PROC			; TiXmlPrinter::operator=, COMDAT
; _this$ = ecx
  00000	55		 push	 ebp
  00001	8b ec		 mov	 ebp, esp

; 150  : 	size_type length () const { return rep_->size; }

  00003	56		 push	 esi
  00004	8b 75 08	 mov	 esi, DWORD PTR ___that$[ebp]
  00007	57		 push	 edi
  00008	8b f9		 mov	 edi, ecx
  0000a	8b 46 04	 mov	 eax, DWORD PTR [esi+4]
  0000d	89 47 04	 mov	 DWORD PTR [edi+4], eax
  00010	8d 4f 0c	 lea	 ecx, DWORD PTR [edi+12]
  00013	8a 46 08	 mov	 al, BYTE PTR [esi+8]
  00016	88 47 08	 mov	 BYTE PTR [edi+8], al
  00019	8b 46 0c	 mov	 eax, DWORD PTR [esi+12]

; 120  : 		return assign(copy.start(), copy.length());

  0001c	ff 30		 push	 DWORD PTR [eax]

; 224  : 	char* start() const { return rep_->str; }

  0001e	83 c0 08	 add	 eax, 8

; 120  : 		return assign(copy.start(), copy.length());

  00021	50		 push	 eax
  00022	e8 00 00 00 00	 call	 ?assign@TiXmlString@@QAEAAV1@PBDI@Z ; TiXmlString::assign

; 150  : 	size_type length () const { return rep_->size; }

  00027	8b 46 10	 mov	 eax, DWORD PTR [esi+16]
  0002a	8d 4f 10	 lea	 ecx, DWORD PTR [edi+16]

; 120  : 		return assign(copy.start(), copy.length());

  0002d	ff 30		 push	 DWORD PTR [eax]

; 224  : 	char* start() const { return rep_->str; }

  0002f	83 c0 08	 add	 eax, 8

; 120  : 		return assign(copy.start(), copy.length());

  00032	50		 push	 eax
  00033	e8 00 00 00 00	 call	 ?assign@TiXmlString@@QAEAAV1@PBDI@Z ; TiXmlString::assign

; 150  : 	size_type length () const { return rep_->size; }

  00038	8b 46 14	 mov	 eax, DWORD PTR [esi+20]
  0003b	8d 4f 14	 lea	 ecx, DWORD PTR [edi+20]

; 120  : 		return assign(copy.start(), copy.length());

  0003e	ff 30		 push	 DWORD PTR [eax]

; 224  : 	char* start() const { return rep_->str; }

  00040	83 c0 08	 add	 eax, 8

; 120  : 		return assign(copy.start(), copy.length());

  00043	50		 push	 eax
  00044	e8 00 00 00 00	 call	 ?assign@TiXmlString@@QAEAAV1@PBDI@Z ; TiXmlString::assign
  00049	8b c7		 mov	 eax, edi
  0004b	5f		 pop	 edi
  0004c	5e		 pop	 esi
  0004d	5d		 pop	 ebp
  0004e	c2 04 00	 ret	 4
??4TiXmlPrinter@@QAEAAV0@ABV0@@Z ENDP			; TiXmlPrinter::operator=
_TEXT	ENDS
; Function compile flags: /Ogtp
;	COMDAT ??0TiXmlPrinter@@QAE@$$QAV0@@Z
_TEXT	SEGMENT
_this$ = -16						; size = 4
__$EHRec$ = -12						; size = 12
___that$ = 8						; size = 4
??0TiXmlPrinter@@QAE@$$QAV0@@Z PROC			; TiXmlPrinter::TiXmlPrinter, COMDAT
; _this$ = ecx
  00000	55		 push	 ebp
  00001	8b ec		 mov	 ebp, esp
  00003	6a ff		 push	 -1
  00005	68 00 00 00 00	 push	 __ehhandler$??0TiXmlPrinter@@QAE@$$QAV0@@Z
  0000a	64 a1 00 00 00
	00		 mov	 eax, DWORD PTR fs:0
  00010	50		 push	 eax
  00011	51		 push	 ecx
  00012	56		 push	 esi
  00013	57		 push	 edi
  00014	a1 00 00 00 00	 mov	 eax, DWORD PTR ___security_cookie
  00019	33 c5		 xor	 eax, ebp
  0001b	50		 push	 eax
  0001c	8d 45 f4	 lea	 eax, DWORD PTR __$EHRec$[ebp]
  0001f	64 a3 00 00 00
	00		 mov	 DWORD PTR fs:0, eax
  00025	8b f9		 mov	 edi, ecx
  00027	89 7d f0	 mov	 DWORD PTR _this$[ebp], edi
  0002a	8b 75 08	 mov	 esi, DWORD PTR ___that$[ebp]
  0002d	8d 4f 0c	 lea	 ecx, DWORD PTR [edi+12]
  00030	c7 07 00 00 00
	00		 mov	 DWORD PTR [edi], OFFSET ??_7TiXmlPrinter@@6B@
  00036	c7 45 fc 00 00
	00 00		 mov	 DWORD PTR __$EHRec$[ebp+8], 0
  0003d	8b 46 04	 mov	 eax, DWORD PTR [esi+4]
  00040	89 47 04	 mov	 DWORD PTR [edi+4], eax
  00043	8a 46 08	 mov	 al, BYTE PTR [esi+8]
  00046	88 47 08	 mov	 BYTE PTR [edi+8], al
  00049	8d 46 0c	 lea	 eax, DWORD PTR [esi+12]
  0004c	50		 push	 eax
  0004d	e8 00 00 00 00	 call	 ??0TiXmlString@@QAE@ABV0@@Z ; TiXmlString::TiXmlString
  00052	8d 46 10	 lea	 eax, DWORD PTR [esi+16]
  00055	c6 45 fc 01	 mov	 BYTE PTR __$EHRec$[ebp+8], 1
  00059	50		 push	 eax
  0005a	8d 4f 10	 lea	 ecx, DWORD PTR [edi+16]
  0005d	e8 00 00 00 00	 call	 ??0TiXmlString@@QAE@ABV0@@Z ; TiXmlString::TiXmlString
  00062	8d 46 14	 lea	 eax, DWORD PTR [esi+20]
  00065	c6 45 fc 02	 mov	 BYTE PTR __$EHRec$[ebp+8], 2
  00069	50		 push	 eax
  0006a	8d 4f 14	 lea	 ecx, DWORD PTR [edi+20]
  0006d	e8 00 00 00 00	 call	 ??0TiXmlString@@QAE@ABV0@@Z ; TiXmlString::TiXmlString
  00072	8b c7		 mov	 eax, edi
  00074	8b 4d f4	 mov	 ecx, DWORD PTR __$EHRec$[ebp]
  00077	64 89 0d 00 00
	00 00		 mov	 DWORD PTR fs:0, ecx
  0007e	59		 pop	 ecx
  0007f	5f		 pop	 edi
  00080	5e		 pop	 esi
  00081	8b e5		 mov	 esp, ebp
  00083	5d		 pop	 ebp
  00084	c2 04 00	 ret	 4
_TEXT	ENDS
;	COMDAT text$x
text$x	SEGMENT
__unwindfunclet$??0TiXmlPrinter@@QAE@$$QAV0@@Z$0:
  00000	8b 4d f0	 mov	 ecx, DWORD PTR _this$[ebp]
  00003	e9 00 00 00 00	 jmp	 ??1TiXmlVisitor@@UAE@XZ	; TiXmlVisitor::~TiXmlVisitor
__unwindfunclet$??0TiXmlPrinter@@QAE@$$QAV0@@Z$1:
  00008	8b 4d f0	 mov	 ecx, DWORD PTR _this$[ebp]
  0000b	83 c1 0c	 add	 ecx, 12			; 0000000cH
  0000e	e9 00 00 00 00	 jmp	 ??1TiXmlString@@QAE@XZ	; TiXmlString::~TiXmlString
__unwindfunclet$??0TiXmlPrinter@@QAE@$$QAV0@@Z$2:
  00013	8b 4d f0	 mov	 ecx, DWORD PTR _this$[ebp]
  00016	83 c1 10	 add	 ecx, 16			; 00000010H
  00019	e9 00 00 00 00	 jmp	 ??1TiXmlString@@QAE@XZ	; TiXmlString::~TiXmlString
  0001e	cc		 int	 3
  0001f	cc		 int	 3
  00020	cc		 int	 3
  00021	cc		 int	 3
  00022	cc		 int	 3
__ehhandler$??0TiXmlPrinter@@QAE@$$QAV0@@Z:
  00023	90		 npad	 1
  00024	90		 npad	 1
  00025	8b 54 24 08	 mov	 edx, DWORD PTR [esp+8]
  00029	8d 42 0c	 lea	 eax, DWORD PTR [edx+12]
  0002c	8b 4a f0	 mov	 ecx, DWORD PTR [edx-16]
  0002f	33 c8		 xor	 ecx, eax
  00031	e8 00 00 00 00	 call	 @__security_check_cookie@4
  00036	b8 00 00 00 00	 mov	 eax, OFFSET __ehfuncinfo$??0TiXmlPrinter@@QAE@$$QAV0@@Z
  0003b	e9 00 00 00 00	 jmp	 ___CxxFrameHandler3
text$x	ENDS
??0TiXmlPrinter@@QAE@$$QAV0@@Z ENDP			; TiXmlPrinter::TiXmlPrinter
; Function compile flags: /Ogtp
;	COMDAT ??0TiXmlPrinter@@QAE@ABV0@@Z
_TEXT	SEGMENT
_this$ = -16						; size = 4
__$EHRec$ = -12						; size = 12
___that$ = 8						; size = 4
??0TiXmlPrinter@@QAE@ABV0@@Z PROC			; TiXmlPrinter::TiXmlPrinter, COMDAT
; _this$ = ecx
  00000	55		 push	 ebp
  00001	8b ec		 mov	 ebp, esp
  00003	6a ff		 push	 -1
  00005	68 00 00 00 00	 push	 __ehhandler$??0TiXmlPrinter@@QAE@ABV0@@Z
  0000a	64 a1 00 00 00
	00		 mov	 eax, DWORD PTR fs:0
  00010	50		 push	 eax
  00011	51		 push	 ecx
  00012	56		 push	 esi
  00013	57		 push	 edi
  00014	a1 00 00 00 00	 mov	 eax, DWORD PTR ___security_cookie
  00019	33 c5		 xor	 eax, ebp
  0001b	50		 push	 eax
  0001c	8d 45 f4	 lea	 eax, DWORD PTR __$EHRec$[ebp]
  0001f	64 a3 00 00 00
	00		 mov	 DWORD PTR fs:0, eax
  00025	8b f9		 mov	 edi, ecx
  00027	89 7d f0	 mov	 DWORD PTR _this$[ebp], edi
  0002a	8b 75 08	 mov	 esi, DWORD PTR ___that$[ebp]
  0002d	8d 4f 0c	 lea	 ecx, DWORD PTR [edi+12]
  00030	c7 07 00 00 00
	00		 mov	 DWORD PTR [edi], OFFSET ??_7TiXmlPrinter@@6B@
  00036	c7 45 fc 00 00
	00 00		 mov	 DWORD PTR __$EHRec$[ebp+8], 0
  0003d	8b 46 04	 mov	 eax, DWORD PTR [esi+4]
  00040	89 47 04	 mov	 DWORD PTR [edi+4], eax
  00043	8a 46 08	 mov	 al, BYTE PTR [esi+8]
  00046	88 47 08	 mov	 BYTE PTR [edi+8], al
  00049	8d 46 0c	 lea	 eax, DWORD PTR [esi+12]
  0004c	50		 push	 eax
  0004d	e8 00 00 00 00	 call	 ??0TiXmlString@@QAE@ABV0@@Z ; TiXmlString::TiXmlString
  00052	8d 46 10	 lea	 eax, DWORD PTR [esi+16]
  00055	c6 45 fc 01	 mov	 BYTE PTR __$EHRec$[ebp+8], 1
  00059	50		 push	 eax
  0005a	8d 4f 10	 lea	 ecx, DWORD PTR [edi+16]
  0005d	e8 00 00 00 00	 call	 ??0TiXmlString@@QAE@ABV0@@Z ; TiXmlString::TiXmlString
  00062	8d 46 14	 lea	 eax, DWORD PTR [esi+20]
  00065	c6 45 fc 02	 mov	 BYTE PTR __$EHRec$[ebp+8], 2
  00069	50		 push	 eax
  0006a	8d 4f 14	 lea	 ecx, DWORD PTR [edi+20]
  0006d	e8 00 00 00 00	 call	 ??0TiXmlString@@QAE@ABV0@@Z ; TiXmlString::TiXmlString
  00072	8b c7		 mov	 eax, edi
  00074	8b 4d f4	 mov	 ecx, DWORD PTR __$EHRec$[ebp]
  00077	64 89 0d 00 00
	00 00		 mov	 DWORD PTR fs:0, ecx
  0007e	59		 pop	 ecx
  0007f	5f		 pop	 edi
  00080	5e		 pop	 esi
  00081	8b e5		 mov	 esp, ebp
  00083	5d		 pop	 ebp
  00084	c2 04 00	 ret	 4
_TEXT	ENDS
;	COMDAT text$x
text$x	SEGMENT
__unwindfunclet$??0TiXmlPrinter@@QAE@ABV0@@Z$0:
  00000	8b 4d f0	 mov	 ecx, DWORD PTR _this$[ebp]
  00003	e9 00 00 00 00	 jmp	 ??1TiXmlVisitor@@UAE@XZ	; TiXmlVisitor::~TiXmlVisitor
__unwindfunclet$??0TiXmlPrinter@@QAE@ABV0@@Z$1:
  00008	8b 4d f0	 mov	 ecx, DWORD PTR _this$[ebp]
  0000b	83 c1 0c	 add	 ecx, 12			; 0000000cH
  0000e	e9 00 00 00 00	 jmp	 ??1TiXmlString@@QAE@XZ	; TiXmlString::~TiXmlString
__unwindfunclet$??0TiXmlPrinter@@QAE@ABV0@@Z$2:
  00013	8b 4d f0	 mov	 ecx, DWORD PTR _this$[ebp]
  00016	83 c1 10	 add	 ecx, 16			; 00000010H
  00019	e9 00 00 00 00	 jmp	 ??1TiXmlString@@QAE@XZ	; TiXmlString::~TiXmlString
  0001e	cc		 int	 3
  0001f	cc		 int	 3
  00020	cc		 int	 3
  00021	cc		 int	 3
  00022	cc		 int	 3
__ehhandler$??0TiXmlPrinter@@QAE@ABV0@@Z:
  00023	90		 npad	 1
  00024	90		 npad	 1
  00025	8b 54 24 08	 mov	 edx, DWORD PTR [esp+8]
  00029	8d 42 0c	 lea	 eax, DWORD PTR [edx+12]
  0002c	8b 4a f0	 mov	 ecx, DWORD PTR [edx-16]
  0002f	33 c8		 xor	 ecx, eax
  00031	e8 00 00 00 00	 call	 @__security_check_cookie@4
  00036	b8 00 00 00 00	 mov	 eax, OFFSET __ehfuncinfo$??0TiXmlPrinter@@QAE@ABV0@@Z
  0003b	e9 00 00 00 00	 jmp	 ___CxxFrameHandler3
text$x	ENDS
??0TiXmlPrinter@@QAE@ABV0@@Z ENDP			; TiXmlPrinter::TiXmlPrinter
; Function compile flags: /Ogtp
; File E:\Proyectos\JuegosOnlineproyectos\PB\pbblow\Piercing Blow Remake\i3Server\include\i3Base\tinystr.h
;	COMDAT ??1TiXmlPrinter@@UAE@XZ
_TEXT	SEGMENT
??1TiXmlPrinter@@UAE@XZ PROC				; TiXmlPrinter::~TiXmlPrinter, COMDAT
; _this$ = ecx

; 257  : 		if (rep_ != &nullrep_)

  00000	56		 push	 esi
  00001	8b f1		 mov	 esi, ecx
  00003	8b 46 14	 mov	 eax, DWORD PTR [esi+20]
  00006	3d 00 00 00 00	 cmp	 eax, OFFSET ?nullrep_@TiXmlString@@0URep@1@A ; TiXmlString::nullrep_
  0000b	74 09		 je	 SHORT $LN8@TiXmlPrint

; 258  : 		{
; 259  : 			// The rep_ is really an array of ints. (see the allocator, above).
; 260  : 			// Cast it back before delete, so the compiler won't incorrectly call destructors.
; 261  : 			delete [] ( reinterpret_cast<int*>( rep_ ) );

  0000d	50		 push	 eax
  0000e	e8 00 00 00 00	 call	 ??_V@YAXPAX@Z		; operator delete[]
  00013	83 c4 04	 add	 esp, 4
$LN8@TiXmlPrint:

; 257  : 		if (rep_ != &nullrep_)

  00016	8b 46 10	 mov	 eax, DWORD PTR [esi+16]
  00019	3d 00 00 00 00	 cmp	 eax, OFFSET ?nullrep_@TiXmlString@@0URep@1@A ; TiXmlString::nullrep_
  0001e	74 09		 je	 SHORT $LN14@TiXmlPrint

; 258  : 		{
; 259  : 			// The rep_ is really an array of ints. (see the allocator, above).
; 260  : 			// Cast it back before delete, so the compiler won't incorrectly call destructors.
; 261  : 			delete [] ( reinterpret_cast<int*>( rep_ ) );

  00020	50		 push	 eax
  00021	e8 00 00 00 00	 call	 ??_V@YAXPAX@Z		; operator delete[]
  00026	83 c4 04	 add	 esp, 4
$LN14@TiXmlPrint:

; 257  : 		if (rep_ != &nullrep_)

  00029	8b 46 0c	 mov	 eax, DWORD PTR [esi+12]
  0002c	3d 00 00 00 00	 cmp	 eax, OFFSET ?nullrep_@TiXmlString@@0URep@1@A ; TiXmlString::nullrep_
  00031	74 09		 je	 SHORT $LN22@TiXmlPrint

; 258  : 		{
; 259  : 			// The rep_ is really an array of ints. (see the allocator, above).
; 260  : 			// Cast it back before delete, so the compiler won't incorrectly call destructors.
; 261  : 			delete [] ( reinterpret_cast<int*>( rep_ ) );

  00033	50		 push	 eax
  00034	e8 00 00 00 00	 call	 ??_V@YAXPAX@Z		; operator delete[]
  00039	83 c4 04	 add	 esp, 4
$LN22@TiXmlPrint:
  0003c	c7 06 00 00 00
	00		 mov	 DWORD PTR [esi], OFFSET ??_7TiXmlVisitor@@6B@
  00042	5e		 pop	 esi
  00043	c3		 ret	 0
??1TiXmlPrinter@@UAE@XZ ENDP				; TiXmlPrinter::~TiXmlPrinter
_TEXT	ENDS
; Function compile flags: /Ogtp
; File E:\Proyectos\JuegosOnlineproyectos\PB\pbblow\Piercing Blow Remake\i3Server\include\i3Base\tinyxml.h
; File E:\Proyectos\JuegosOnlineproyectos\PB\pbblow\Piercing Blow Remake\i3Server\include\i3Base\tinystr.h
; File E:\Proyectos\JuegosOnlineproyectos\PB\pbblow\Piercing Blow Remake\i3Server\include\i3Base\tinyxml.h
; File E:\Proyectos\JuegosOnlineproyectos\PB\pbblow\Piercing Blow Remake\i3Server\include\i3Base\tinystr.h
; File E:\Proyectos\JuegosOnlineproyectos\PB\pbblow\Piercing Blow Remake\i3Server\include\i3Base\tinyxml.h
;	COMDAT ?DoLineBreak@TiXmlPrinter@@AAEXXZ
_TEXT	SEGMENT
?DoLineBreak@TiXmlPrinter@@AAEXXZ PROC			; TiXmlPrinter::DoLineBreak, COMDAT
; _this$ = ecx
; File E:\Proyectos\JuegosOnlineproyectos\PB\pbblow\Piercing Blow Remake\i3Server\include\i3Base\tinystr.h

; 150  : 	size_type length () const { return rep_->size; }

  00000	8b 41 14	 mov	 eax, DWORD PTR [ecx+20]
; File E:\Proyectos\JuegosOnlineproyectos\PB\pbblow\Piercing Blow Remake\i3Server\include\i3Base\tinyxml.h

; 1801 : 		buffer += lineBreak;

  00003	83 c1 0c	 add	 ecx, 12			; 0000000cH
; File E:\Proyectos\JuegosOnlineproyectos\PB\pbblow\Piercing Blow Remake\i3Server\include\i3Base\tinystr.h

; 139  : 		return append(suffix.data(), suffix.length());

  00006	ff 30		 push	 DWORD PTR [eax]

; 147  : 	const char * data () const { return rep_->str; }

  00008	83 c0 08	 add	 eax, 8

; 139  : 		return append(suffix.data(), suffix.length());

  0000b	50		 push	 eax
  0000c	e8 00 00 00 00	 call	 ?append@TiXmlString@@QAEAAV1@PBDI@Z ; TiXmlString::append
; File E:\Proyectos\JuegosOnlineproyectos\PB\pbblow\Piercing Blow Remake\i3Server\include\i3Base\tinyxml.h

; 1802 : 	}

  00011	c3		 ret	 0
?DoLineBreak@TiXmlPrinter@@AAEXXZ ENDP			; TiXmlPrinter::DoLineBreak
_TEXT	ENDS
; Function compile flags: /Ogtp
; File E:\Proyectos\JuegosOnlineproyectos\PB\pbblow\Piercing Blow Remake\i3Server\include\i3Base\tinyxml.h
; File E:\Proyectos\JuegosOnlineproyectos\PB\pbblow\Piercing Blow Remake\i3Server\include\i3Base\tinystr.h
; File E:\Proyectos\JuegosOnlineproyectos\PB\pbblow\Piercing Blow Remake\i3Server\include\i3Base\tinyxml.h
;	COMDAT ?DoIndent@TiXmlPrinter@@AAEXXZ
_TEXT	SEGMENT
?DoIndent@TiXmlPrinter@@AAEXXZ PROC			; TiXmlPrinter::DoIndent, COMDAT
; _this$ = ecx

; 1796 : 	void DoIndent()	{

  00000	56		 push	 esi
  00001	57		 push	 edi
  00002	8b f9		 mov	 edi, ecx

; 1797 : 		for( int i=0; i<depth; ++i )

  00004	33 f6		 xor	 esi, esi
  00006	39 77 04	 cmp	 DWORD PTR [edi+4], esi
  00009	7e 1d		 jle	 SHORT $LN3@DoIndent
  0000b	53		 push	 ebx
  0000c	8d 64 24 00	 npad	 4
$LL4@DoIndent:
; File E:\Proyectos\JuegosOnlineproyectos\PB\pbblow\Piercing Blow Remake\i3Server\include\i3Base\tinystr.h

; 150  : 	size_type length () const { return rep_->size; }

  00010	8b 47 10	 mov	 eax, DWORD PTR [edi+16]

; 139  : 		return append(suffix.data(), suffix.length());

  00013	8d 4f 0c	 lea	 ecx, DWORD PTR [edi+12]
  00016	ff 30		 push	 DWORD PTR [eax]

; 147  : 	const char * data () const { return rep_->str; }

  00018	83 c0 08	 add	 eax, 8

; 139  : 		return append(suffix.data(), suffix.length());

  0001b	50		 push	 eax
  0001c	e8 00 00 00 00	 call	 ?append@TiXmlString@@QAEAAV1@PBDI@Z ; TiXmlString::append
; File E:\Proyectos\JuegosOnlineproyectos\PB\pbblow\Piercing Blow Remake\i3Server\include\i3Base\tinyxml.h

; 1797 : 		for( int i=0; i<depth; ++i )

  00021	46		 inc	 esi
  00022	3b 77 04	 cmp	 esi, DWORD PTR [edi+4]
  00025	7c e9		 jl	 SHORT $LL4@DoIndent
  00027	5b		 pop	 ebx
$LN3@DoIndent:
  00028	5f		 pop	 edi

; 1798 : 			buffer += indent;
; 1799 : 	}

  00029	5e		 pop	 esi
  0002a	c3		 ret	 0
?DoIndent@TiXmlPrinter@@AAEXXZ ENDP			; TiXmlPrinter::DoIndent
_TEXT	ENDS
; Function compile flags: /Ogtp
; File E:\Proyectos\JuegosOnlineproyectos\PB\pbblow\Piercing Blow Remake\i3Server\include\i3Base\tinyxml.h
; File E:\Proyectos\JuegosOnlineproyectos\PB\pbblow\Piercing Blow Remake\i3Server\include\i3Base\tinystr.h
; File E:\Proyectos\JuegosOnlineproyectos\PB\pbblow\Piercing Blow Remake\i3Server\include\i3Base\tinyxml.h
;	COMDAT ?Size@TiXmlPrinter@@QAEIXZ
_TEXT	SEGMENT
?Size@TiXmlPrinter@@QAEIXZ PROC				; TiXmlPrinter::Size, COMDAT
; _this$ = ecx
; File E:\Proyectos\JuegosOnlineproyectos\PB\pbblow\Piercing Blow Remake\i3Server\include\i3Base\tinystr.h

; 153  : 	size_type size () const { return rep_->size; }

  00000	8b 41 0c	 mov	 eax, DWORD PTR [ecx+12]
; File E:\Proyectos\JuegosOnlineproyectos\PB\pbblow\Piercing Blow Remake\i3Server\include\i3Base\tinyxml.h

; 1788 : 	size_t Size()									{ return buffer.size(); }

  00003	8b 00		 mov	 eax, DWORD PTR [eax]
  00005	c3		 ret	 0
?Size@TiXmlPrinter@@QAEIXZ ENDP				; TiXmlPrinter::Size
_TEXT	ENDS
; Function compile flags: /Ogtp
; File E:\Proyectos\JuegosOnlineproyectos\PB\pbblow\Piercing Blow Remake\i3Server\include\i3Base\tinyxml.h
; File E:\Proyectos\JuegosOnlineproyectos\PB\pbblow\Piercing Blow Remake\i3Server\include\i3Base\tinystr.h
; File E:\Proyectos\JuegosOnlineproyectos\PB\pbblow\Piercing Blow Remake\i3Server\include\i3Base\tinyxml.h
;	COMDAT ?CStr@TiXmlPrinter@@QAEPBDXZ
_TEXT	SEGMENT
?CStr@TiXmlPrinter@@QAEPBDXZ PROC			; TiXmlPrinter::CStr, COMDAT
; _this$ = ecx
; File E:\Proyectos\JuegosOnlineproyectos\PB\pbblow\Piercing Blow Remake\i3Server\include\i3Base\tinystr.h

; 144  : 	const char * c_str () const { return rep_->str; }

  00000	8b 41 0c	 mov	 eax, DWORD PTR [ecx+12]
  00003	83 c0 08	 add	 eax, 8
; File E:\Proyectos\JuegosOnlineproyectos\PB\pbblow\Piercing Blow Remake\i3Server\include\i3Base\tinyxml.h

; 1786 : 	const char* CStr()								{ return buffer.c_str(); }

  00006	c3		 ret	 0
?CStr@TiXmlPrinter@@QAEPBDXZ ENDP			; TiXmlPrinter::CStr
_TEXT	ENDS
; Function compile flags: /Ogtp
; File E:\Proyectos\JuegosOnlineproyectos\PB\pbblow\Piercing Blow Remake\i3Server\include\i3Base\tinyxml.h
; File E:\Proyectos\JuegosOnlineproyectos\PB\pbblow\Piercing Blow Remake\i3Server\include\i3Base\tinystr.h
; File E:\Proyectos\JuegosOnlineproyectos\PB\pbblow\Piercing Blow Remake\i3Server\include\i3Base\tinyxml.h
; File E:\Proyectos\JuegosOnlineproyectos\PB\pbblow\Piercing Blow Remake\i3Server\include\i3Base\tinystr.h
; File E:\Proyectos\JuegosOnlineproyectos\PB\pbblow\Piercing Blow Remake\i3Server\include\i3Base\tinyxml.h
; File E:\Proyectos\JuegosOnlineproyectos\PB\pbblow\Piercing Blow Remake\i3Server\include\i3Base\tinystr.h
; File E:\Proyectos\JuegosOnlineproyectos\PB\pbblow\Piercing Blow Remake\i3Server\include\i3Base\tinyxml.h
;	COMDAT ?SetStreamPrinting@TiXmlPrinter@@QAEXXZ
_TEXT	SEGMENT
?SetStreamPrinting@TiXmlPrinter@@QAEXXZ PROC		; TiXmlPrinter::SetStreamPrinting, COMDAT
; _this$ = ecx

; 1782 : 	void SetStreamPrinting()						{ indent = "";

  00000	56		 push	 esi
  00001	8b f1		 mov	 esi, ecx
; File E:\Proyectos\JuegosOnlineproyectos\PB\pbblow\Piercing Blow Remake\i3Server\include\i3Base\tinystr.h

; 114  : 		return assign( copy, (size_type)strlen(copy));

  00003	6a 00		 push	 0
  00005	68 00 00 00 00	 push	 OFFSET ??_C@_00CNPNBAHC@@
; File E:\Proyectos\JuegosOnlineproyectos\PB\pbblow\Piercing Blow Remake\i3Server\include\i3Base\tinyxml.h

; 1782 : 	void SetStreamPrinting()						{ indent = "";

  0000a	8d 4e 10	 lea	 ecx, DWORD PTR [esi+16]
; File E:\Proyectos\JuegosOnlineproyectos\PB\pbblow\Piercing Blow Remake\i3Server\include\i3Base\tinystr.h

; 114  : 		return assign( copy, (size_type)strlen(copy));

  0000d	e8 00 00 00 00	 call	 ?assign@TiXmlString@@QAEAAV1@PBDI@Z ; TiXmlString::assign
  00012	6a 00		 push	 0
  00014	68 00 00 00 00	 push	 OFFSET ??_C@_00CNPNBAHC@@
; File E:\Proyectos\JuegosOnlineproyectos\PB\pbblow\Piercing Blow Remake\i3Server\include\i3Base\tinyxml.h

; 1783 : 													  lineBreak = "";

  00019	8d 4e 14	 lea	 ecx, DWORD PTR [esi+20]
; File E:\Proyectos\JuegosOnlineproyectos\PB\pbblow\Piercing Blow Remake\i3Server\include\i3Base\tinystr.h

; 114  : 		return assign( copy, (size_type)strlen(copy));

  0001c	e8 00 00 00 00	 call	 ?assign@TiXmlString@@QAEAAV1@PBDI@Z ; TiXmlString::assign
  00021	5e		 pop	 esi
; File E:\Proyectos\JuegosOnlineproyectos\PB\pbblow\Piercing Blow Remake\i3Server\include\i3Base\tinyxml.h

; 1784 : 													}	

  00022	c3		 ret	 0
?SetStreamPrinting@TiXmlPrinter@@QAEXXZ ENDP		; TiXmlPrinter::SetStreamPrinting
_TEXT	ENDS
; Function compile flags: /Ogtp
; File E:\Proyectos\JuegosOnlineproyectos\PB\pbblow\Piercing Blow Remake\i3Server\include\i3Base\tinyxml.h
; File E:\Proyectos\JuegosOnlineproyectos\PB\pbblow\Piercing Blow Remake\i3Server\include\i3Base\tinystr.h
; File E:\Proyectos\JuegosOnlineproyectos\PB\pbblow\Piercing Blow Remake\i3Server\include\i3Base\tinyxml.h
;	COMDAT ?LineBreak@TiXmlPrinter@@QAEPBDXZ
_TEXT	SEGMENT
?LineBreak@TiXmlPrinter@@QAEPBDXZ PROC			; TiXmlPrinter::LineBreak, COMDAT
; _this$ = ecx
; File E:\Proyectos\JuegosOnlineproyectos\PB\pbblow\Piercing Blow Remake\i3Server\include\i3Base\tinystr.h

; 144  : 	const char * c_str () const { return rep_->str; }

  00000	8b 41 14	 mov	 eax, DWORD PTR [ecx+20]
  00003	83 c0 08	 add	 eax, 8
; File E:\Proyectos\JuegosOnlineproyectos\PB\pbblow\Piercing Blow Remake\i3Server\include\i3Base\tinyxml.h

; 1777 : 	const char* LineBreak()							{ return lineBreak.c_str(); }

  00006	c3		 ret	 0
?LineBreak@TiXmlPrinter@@QAEPBDXZ ENDP			; TiXmlPrinter::LineBreak
_TEXT	ENDS
; Function compile flags: /Ogtp
; File E:\Proyectos\JuegosOnlineproyectos\PB\pbblow\Piercing Blow Remake\i3Server\include\i3Base\tinyxml.h
; File E:\Proyectos\JuegosOnlineproyectos\PB\pbblow\Piercing Blow Remake\i3Server\include\i3Base\tinystr.h
; File E:\Proyectos\JuegosOnlineproyectos\PB\pbblow\Piercing Blow Remake\i3Server\include\i3Base\tinyxml.h
; File E:\Proyectos\JuegosOnlineproyectos\PB\pbblow\Piercing Blow Remake\i3Server\include\i3Base\tinystr.h
; File E:\Proyectos\JuegosOnlineproyectos\PB\pbblow\Piercing Blow Remake\i3Server\include\i3Base\tinyxml.h
; File E:\Proyectos\JuegosOnlineproyectos\PB\pbblow\Piercing Blow Remake\i3Server\include\i3Base\tinystr.h
; File E:\Proyectos\JuegosOnlineproyectos\PB\pbblow\Piercing Blow Remake\i3Server\include\i3Base\tinyxml.h
;	COMDAT ?SetLineBreak@TiXmlPrinter@@QAEXPBD@Z
_TEXT	SEGMENT
__lineBreak$ = 8					; size = 4
?SetLineBreak@TiXmlPrinter@@QAEXPBD@Z PROC		; TiXmlPrinter::SetLineBreak, COMDAT
; _this$ = ecx

; 1775 : 	void SetLineBreak( const char* _lineBreak )		{ lineBreak = _lineBreak ? _lineBreak : ""; }

  00000	55		 push	 ebp
  00001	8b ec		 mov	 ebp, esp
  00003	8b 45 08	 mov	 eax, DWORD PTR __lineBreak$[ebp]
  00006	ba 00 00 00 00	 mov	 edx, OFFSET ??_C@_00CNPNBAHC@@
  0000b	85 c0		 test	 eax, eax
  0000d	56		 push	 esi
  0000e	0f 45 d0	 cmovne	 edx, eax
  00011	8b f1		 mov	 esi, ecx
; File E:\Proyectos\JuegosOnlineproyectos\PB\pbblow\Piercing Blow Remake\i3Server\include\i3Base\tinystr.h

; 114  : 		return assign( copy, (size_type)strlen(copy));

  00013	8b c2		 mov	 eax, edx
; File E:\Proyectos\JuegosOnlineproyectos\PB\pbblow\Piercing Blow Remake\i3Server\include\i3Base\tinyxml.h

; 1775 : 	void SetLineBreak( const char* _lineBreak )		{ lineBreak = _lineBreak ? _lineBreak : ""; }

  00015	57		 push	 edi
; File E:\Proyectos\JuegosOnlineproyectos\PB\pbblow\Piercing Blow Remake\i3Server\include\i3Base\tinystr.h

; 114  : 		return assign( copy, (size_type)strlen(copy));

  00016	8d 78 01	 lea	 edi, DWORD PTR [eax+1]
  00019	8d a4 24 00 00
	00 00		 npad	 7
$LL5@SetLineBre:
  00020	8a 08		 mov	 cl, BYTE PTR [eax]
  00022	40		 inc	 eax
  00023	84 c9		 test	 cl, cl
  00025	75 f9		 jne	 SHORT $LL5@SetLineBre
  00027	2b c7		 sub	 eax, edi
; File E:\Proyectos\JuegosOnlineproyectos\PB\pbblow\Piercing Blow Remake\i3Server\include\i3Base\tinyxml.h

; 1775 : 	void SetLineBreak( const char* _lineBreak )		{ lineBreak = _lineBreak ? _lineBreak : ""; }

  00029	8d 4e 14	 lea	 ecx, DWORD PTR [esi+20]
; File E:\Proyectos\JuegosOnlineproyectos\PB\pbblow\Piercing Blow Remake\i3Server\include\i3Base\tinystr.h

; 114  : 		return assign( copy, (size_type)strlen(copy));

  0002c	50		 push	 eax
  0002d	52		 push	 edx
  0002e	e8 00 00 00 00	 call	 ?assign@TiXmlString@@QAEAAV1@PBDI@Z ; TiXmlString::assign
  00033	5f		 pop	 edi
  00034	5e		 pop	 esi
; File E:\Proyectos\JuegosOnlineproyectos\PB\pbblow\Piercing Blow Remake\i3Server\include\i3Base\tinyxml.h

; 1775 : 	void SetLineBreak( const char* _lineBreak )		{ lineBreak = _lineBreak ? _lineBreak : ""; }

  00035	5d		 pop	 ebp
  00036	c2 04 00	 ret	 4
?SetLineBreak@TiXmlPrinter@@QAEXPBD@Z ENDP		; TiXmlPrinter::SetLineBreak
_TEXT	ENDS
; Function compile flags: /Ogtp
; File E:\Proyectos\JuegosOnlineproyectos\PB\pbblow\Piercing Blow Remake\i3Server\include\i3Base\tinyxml.h
; File E:\Proyectos\JuegosOnlineproyectos\PB\pbblow\Piercing Blow Remake\i3Server\include\i3Base\tinystr.h
; File E:\Proyectos\JuegosOnlineproyectos\PB\pbblow\Piercing Blow Remake\i3Server\include\i3Base\tinyxml.h
;	COMDAT ?Indent@TiXmlPrinter@@QAEPBDXZ
_TEXT	SEGMENT
?Indent@TiXmlPrinter@@QAEPBDXZ PROC			; TiXmlPrinter::Indent, COMDAT
; _this$ = ecx
; File E:\Proyectos\JuegosOnlineproyectos\PB\pbblow\Piercing Blow Remake\i3Server\include\i3Base\tinystr.h

; 144  : 	const char * c_str () const { return rep_->str; }

  00000	8b 41 10	 mov	 eax, DWORD PTR [ecx+16]
  00003	83 c0 08	 add	 eax, 8
; File E:\Proyectos\JuegosOnlineproyectos\PB\pbblow\Piercing Blow Remake\i3Server\include\i3Base\tinyxml.h

; 1770 : 	const char* Indent()							{ return indent.c_str(); }

  00006	c3		 ret	 0
?Indent@TiXmlPrinter@@QAEPBDXZ ENDP			; TiXmlPrinter::Indent
_TEXT	ENDS
; Function compile flags: /Ogtp
; File E:\Proyectos\JuegosOnlineproyectos\PB\pbblow\Piercing Blow Remake\i3Server\include\i3Base\tinyxml.h
; File E:\Proyectos\JuegosOnlineproyectos\PB\pbblow\Piercing Blow Remake\i3Server\include\i3Base\tinystr.h
; File E:\Proyectos\JuegosOnlineproyectos\PB\pbblow\Piercing Blow Remake\i3Server\include\i3Base\tinyxml.h
; File E:\Proyectos\JuegosOnlineproyectos\PB\pbblow\Piercing Blow Remake\i3Server\include\i3Base\tinystr.h
; File E:\Proyectos\JuegosOnlineproyectos\PB\pbblow\Piercing Blow Remake\i3Server\include\i3Base\tinyxml.h
; File E:\Proyectos\JuegosOnlineproyectos\PB\pbblow\Piercing Blow Remake\i3Server\include\i3Base\tinystr.h
; File E:\Proyectos\JuegosOnlineproyectos\PB\pbblow\Piercing Blow Remake\i3Server\include\i3Base\tinyxml.h
;	COMDAT ?SetIndent@TiXmlPrinter@@QAEXPBD@Z
_TEXT	SEGMENT
__indent$ = 8						; size = 4
?SetIndent@TiXmlPrinter@@QAEXPBD@Z PROC			; TiXmlPrinter::SetIndent, COMDAT
; _this$ = ecx

; 1768 : 	void SetIndent( const char* _indent )			{ indent = _indent ? _indent : "" ; }

  00000	55		 push	 ebp
  00001	8b ec		 mov	 ebp, esp
  00003	8b 45 08	 mov	 eax, DWORD PTR __indent$[ebp]
  00006	ba 00 00 00 00	 mov	 edx, OFFSET ??_C@_00CNPNBAHC@@
  0000b	85 c0		 test	 eax, eax
  0000d	56		 push	 esi
  0000e	0f 45 d0	 cmovne	 edx, eax
  00011	8b f1		 mov	 esi, ecx
; File E:\Proyectos\JuegosOnlineproyectos\PB\pbblow\Piercing Blow Remake\i3Server\include\i3Base\tinystr.h

; 114  : 		return assign( copy, (size_type)strlen(copy));

  00013	8b c2		 mov	 eax, edx
; File E:\Proyectos\JuegosOnlineproyectos\PB\pbblow\Piercing Blow Remake\i3Server\include\i3Base\tinyxml.h

; 1768 : 	void SetIndent( const char* _indent )			{ indent = _indent ? _indent : "" ; }

  00015	57		 push	 edi
; File E:\Proyectos\JuegosOnlineproyectos\PB\pbblow\Piercing Blow Remake\i3Server\include\i3Base\tinystr.h

; 114  : 		return assign( copy, (size_type)strlen(copy));

  00016	8d 78 01	 lea	 edi, DWORD PTR [eax+1]
  00019	8d a4 24 00 00
	00 00		 npad	 7
$LL5@SetIndent:
  00020	8a 08		 mov	 cl, BYTE PTR [eax]
  00022	40		 inc	 eax
  00023	84 c9		 test	 cl, cl
  00025	75 f9		 jne	 SHORT $LL5@SetIndent
  00027	2b c7		 sub	 eax, edi
; File E:\Proyectos\JuegosOnlineproyectos\PB\pbblow\Piercing Blow Remake\i3Server\include\i3Base\tinyxml.h

; 1768 : 	void SetIndent( const char* _indent )			{ indent = _indent ? _indent : "" ; }

  00029	8d 4e 10	 lea	 ecx, DWORD PTR [esi+16]
; File E:\Proyectos\JuegosOnlineproyectos\PB\pbblow\Piercing Blow Remake\i3Server\include\i3Base\tinystr.h

; 114  : 		return assign( copy, (size_type)strlen(copy));

  0002c	50		 push	 eax
  0002d	52		 push	 edx
  0002e	e8 00 00 00 00	 call	 ?assign@TiXmlString@@QAEAAV1@PBDI@Z ; TiXmlString::assign
  00033	5f		 pop	 edi
  00034	5e		 pop	 esi
; File E:\Proyectos\JuegosOnlineproyectos\PB\pbblow\Piercing Blow Remake\i3Server\include\i3Base\tinyxml.h

; 1768 : 	void SetIndent( const char* _indent )			{ indent = _indent ? _indent : "" ; }

  00035	5d		 pop	 ebp
  00036	c2 04 00	 ret	 4
?SetIndent@TiXmlPrinter@@QAEXPBD@Z ENDP			; TiXmlPrinter::SetIndent
_TEXT	ENDS
; Function compile flags: /Ogtp
; File E:\Proyectos\JuegosOnlineproyectos\PB\pbblow\Piercing Blow Remake\i3Server\include\i3Base\tinyxml.h
; File E:\Proyectos\JuegosOnlineproyectos\PB\pbblow\Piercing Blow Remake\i3Server\include\i3Base\tinystr.h
; File E:\Proyectos\JuegosOnlineproyectos\PB\pbblow\Piercing Blow Remake\i3Server\include\i3Base\tinyxml.h
; File E:\Proyectos\JuegosOnlineproyectos\PB\pbblow\Piercing Blow Remake\i3Server\include\i3Base\tinystr.h
; File E:\Proyectos\JuegosOnlineproyectos\PB\pbblow\Piercing Blow Remake\i3Server\include\i3Base\tinyxml.h
; File E:\Proyectos\JuegosOnlineproyectos\PB\pbblow\Piercing Blow Remake\i3Server\include\i3Base\tinystr.h
; File E:\Proyectos\JuegosOnlineproyectos\PB\pbblow\Piercing Blow Remake\i3Server\include\i3Base\tinyxml.h
;	COMDAT ??0TiXmlPrinter@@QAE@XZ
_TEXT	SEGMENT
_this$ = -16						; size = 4
__$EHRec$ = -12						; size = 12
??0TiXmlPrinter@@QAE@XZ PROC				; TiXmlPrinter::TiXmlPrinter, COMDAT
; _this$ = ecx

; 1752 : 					 buffer(), indent( "    " ), lineBreak( "\n" ) {}

  00000	55		 push	 ebp
  00001	8b ec		 mov	 ebp, esp
  00003	6a ff		 push	 -1
  00005	68 00 00 00 00	 push	 __ehhandler$??0TiXmlPrinter@@QAE@XZ
  0000a	64 a1 00 00 00
	00		 mov	 eax, DWORD PTR fs:0
  00010	50		 push	 eax
  00011	51		 push	 ecx
  00012	56		 push	 esi
  00013	a1 00 00 00 00	 mov	 eax, DWORD PTR ___security_cookie
  00018	33 c5		 xor	 eax, ebp
  0001a	50		 push	 eax
  0001b	8d 45 f4	 lea	 eax, DWORD PTR __$EHRec$[ebp]
  0001e	64 a3 00 00 00
	00		 mov	 DWORD PTR fs:0, eax
  00024	8b f1		 mov	 esi, ecx
  00026	89 75 f0	 mov	 DWORD PTR _this$[ebp], esi
  00029	c7 06 00 00 00
	00		 mov	 DWORD PTR [esi], OFFSET ??_7TiXmlPrinter@@6B@
  0002f	c7 46 04 00 00
	00 00		 mov	 DWORD PTR [esi+4], 0
  00036	c6 46 08 00	 mov	 BYTE PTR [esi+8], 0
  0003a	c7 45 fc 00 00
	00 00		 mov	 DWORD PTR __$EHRec$[ebp+8], 0
; File E:\Proyectos\JuegosOnlineproyectos\PB\pbblow\Piercing Blow Remake\i3Server\include\i3Base\tinystr.h

; 80   : 	TiXmlString () : rep_(&nullrep_)

  00041	c7 46 0c 00 00
	00 00		 mov	 DWORD PTR [esi+12], OFFSET ?nullrep_@TiXmlString@@0URep@1@A ; TiXmlString::nullrep_

; 244  : 			rep_ = reinterpret_cast<Rep*>( new int[ intsNeeded ] );

  00048	6a 10		 push	 16			; 00000010H
; File E:\Proyectos\JuegosOnlineproyectos\PB\pbblow\Piercing Blow Remake\i3Server\include\i3Base\tinyxml.h

; 1752 : 					 buffer(), indent( "    " ), lineBreak( "\n" ) {}

  0004a	c6 45 fc 01	 mov	 BYTE PTR __$EHRec$[ebp+8], 1
; File E:\Proyectos\JuegosOnlineproyectos\PB\pbblow\Piercing Blow Remake\i3Server\include\i3Base\tinystr.h

; 92   : 	TIXML_EXPLICIT TiXmlString ( const char * copy) : rep_(0)

  0004e	c7 46 10 00 00
	00 00		 mov	 DWORD PTR [esi+16], 0

; 244  : 			rep_ = reinterpret_cast<Rep*>( new int[ intsNeeded ] );

  00055	e8 00 00 00 00	 call	 ??_U@YAPAXI@Z		; operator new[]
  0005a	89 46 10	 mov	 DWORD PTR [esi+16], eax

; 245  : 
; 246  : 			rep_->str[ rep_->size = sz ] = '\0';

  0005d	c7 00 04 00 00
	00		 mov	 DWORD PTR [eax], 4
  00063	8b 46 10	 mov	 eax, DWORD PTR [esi+16]
  00066	c6 40 0c 00	 mov	 BYTE PTR [eax+12], 0

; 247  : 			rep_->capacity = cap;

  0006a	8b 46 10	 mov	 eax, DWORD PTR [esi+16]
  0006d	c7 40 04 04 00
	00 00		 mov	 DWORD PTR [eax+4], 4

; 150  : 	size_type length () const { return rep_->size; }

  00074	8b 46 10	 mov	 eax, DWORD PTR [esi+16]

; 95   : 		memcpy(start(), copy, length());

  00077	ff 30		 push	 DWORD PTR [eax]

; 224  : 	char* start() const { return rep_->str; }

  00079	83 c0 08	 add	 eax, 8

; 95   : 		memcpy(start(), copy, length());

  0007c	68 00 00 00 00	 push	 OFFSET ??_C@_04PFOHOKJK@?5?5?5?5@
  00081	50		 push	 eax
  00082	e8 00 00 00 00	 call	 _memcpy

; 244  : 			rep_ = reinterpret_cast<Rep*>( new int[ intsNeeded ] );

  00087	6a 10		 push	 16			; 00000010H
; File E:\Proyectos\JuegosOnlineproyectos\PB\pbblow\Piercing Blow Remake\i3Server\include\i3Base\tinyxml.h

; 1752 : 					 buffer(), indent( "    " ), lineBreak( "\n" ) {}

  00089	c6 45 fc 02	 mov	 BYTE PTR __$EHRec$[ebp+8], 2
; File E:\Proyectos\JuegosOnlineproyectos\PB\pbblow\Piercing Blow Remake\i3Server\include\i3Base\tinystr.h

; 92   : 	TIXML_EXPLICIT TiXmlString ( const char * copy) : rep_(0)

  0008d	c7 46 14 00 00
	00 00		 mov	 DWORD PTR [esi+20], 0

; 244  : 			rep_ = reinterpret_cast<Rep*>( new int[ intsNeeded ] );

  00094	e8 00 00 00 00	 call	 ??_U@YAPAXI@Z		; operator new[]
  00099	89 46 14	 mov	 DWORD PTR [esi+20], eax

; 245  : 
; 246  : 			rep_->str[ rep_->size = sz ] = '\0';

  0009c	c7 00 01 00 00
	00		 mov	 DWORD PTR [eax], 1
  000a2	8b 46 14	 mov	 eax, DWORD PTR [esi+20]
  000a5	c6 40 09 00	 mov	 BYTE PTR [eax+9], 0

; 247  : 			rep_->capacity = cap;

  000a9	8b 46 14	 mov	 eax, DWORD PTR [esi+20]
  000ac	c7 40 04 01 00
	00 00		 mov	 DWORD PTR [eax+4], 1

; 150  : 	size_type length () const { return rep_->size; }

  000b3	8b 46 14	 mov	 eax, DWORD PTR [esi+20]

; 95   : 		memcpy(start(), copy, length());

  000b6	ff 30		 push	 DWORD PTR [eax]

; 224  : 	char* start() const { return rep_->str; }

  000b8	83 c0 08	 add	 eax, 8

; 95   : 		memcpy(start(), copy, length());

  000bb	68 00 00 00 00	 push	 OFFSET ??_C@_01EEMJAFIK@?6@
  000c0	50		 push	 eax
  000c1	e8 00 00 00 00	 call	 _memcpy
  000c6	83 c4 20	 add	 esp, 32			; 00000020H
; File E:\Proyectos\JuegosOnlineproyectos\PB\pbblow\Piercing Blow Remake\i3Server\include\i3Base\tinyxml.h

; 1752 : 					 buffer(), indent( "    " ), lineBreak( "\n" ) {}

  000c9	8b c6		 mov	 eax, esi
  000cb	8b 4d f4	 mov	 ecx, DWORD PTR __$EHRec$[ebp]
  000ce	64 89 0d 00 00
	00 00		 mov	 DWORD PTR fs:0, ecx
  000d5	59		 pop	 ecx
  000d6	5e		 pop	 esi
  000d7	8b e5		 mov	 esp, ebp
  000d9	5d		 pop	 ebp
  000da	c3		 ret	 0
_TEXT	ENDS
;	COMDAT text$x
text$x	SEGMENT
__unwindfunclet$??0TiXmlPrinter@@QAE@XZ$0:
  00000	8b 4d f0	 mov	 ecx, DWORD PTR _this$[ebp]
  00003	e9 00 00 00 00	 jmp	 ??1TiXmlVisitor@@UAE@XZ	; TiXmlVisitor::~TiXmlVisitor
__unwindfunclet$??0TiXmlPrinter@@QAE@XZ$1:
  00008	8b 4d f0	 mov	 ecx, DWORD PTR _this$[ebp]
  0000b	83 c1 0c	 add	 ecx, 12			; 0000000cH
  0000e	e9 00 00 00 00	 jmp	 ??1TiXmlString@@QAE@XZ	; TiXmlString::~TiXmlString
__unwindfunclet$??0TiXmlPrinter@@QAE@XZ$2:
  00013	8b 4d f0	 mov	 ecx, DWORD PTR _this$[ebp]
  00016	83 c1 10	 add	 ecx, 16			; 00000010H
  00019	e9 00 00 00 00	 jmp	 ??1TiXmlString@@QAE@XZ	; TiXmlString::~TiXmlString
  0001e	cc		 int	 3
  0001f	cc		 int	 3
  00020	cc		 int	 3
  00021	cc		 int	 3
  00022	cc		 int	 3
__ehhandler$??0TiXmlPrinter@@QAE@XZ:
  00023	90		 npad	 1
  00024	90		 npad	 1
  00025	8b 54 24 08	 mov	 edx, DWORD PTR [esp+8]
  00029	8d 42 0c	 lea	 eax, DWORD PTR [edx+12]
  0002c	8b 4a f4	 mov	 ecx, DWORD PTR [edx-12]
  0002f	33 c8		 xor	 ecx, eax
  00031	e8 00 00 00 00	 call	 @__security_check_cookie@4
  00036	b8 00 00 00 00	 mov	 eax, OFFSET __ehfuncinfo$??0TiXmlPrinter@@QAE@XZ
  0003b	e9 00 00 00 00	 jmp	 ___CxxFrameHandler3
text$x	ENDS
??0TiXmlPrinter@@QAE@XZ ENDP				; TiXmlPrinter::TiXmlPrinter
; Function compile flags: /Ogtp
; File E:\Proyectos\JuegosOnlineproyectos\PB\pbblow\Piercing Blow Remake\i3Server\include\i3Base\tinyxml.h
;	COMDAT ?Unknown@TiXmlHandle@@QBEPAVTiXmlUnknown@@XZ
_TEXT	SEGMENT
?Unknown@TiXmlHandle@@QBEPAVTiXmlUnknown@@XZ PROC	; TiXmlHandle::Unknown, COMDAT
; _this$ = ecx

; 1722 : 	TiXmlUnknown* Unknown() const	{ return ToUnknown(); }

  00000	56		 push	 esi
  00001	8b f1		 mov	 esi, ecx

; 1705 : 	TiXmlUnknown* ToUnknown() const		{ return ( ( node && node->ToUnknown() ) ? node->ToUnknown() : 0 ); }

  00003	8b 0e		 mov	 ecx, DWORD PTR [esi]
  00005	85 c9		 test	 ecx, ecx
  00007	74 11		 je	 SHORT $LN5@Unknown
  00009	8b 01		 mov	 eax, DWORD PTR [ecx]
  0000b	ff 50 24	 call	 DWORD PTR [eax+36]
  0000e	85 c0		 test	 eax, eax
  00010	74 08		 je	 SHORT $LN5@Unknown
  00012	8b 0e		 mov	 ecx, DWORD PTR [esi]
  00014	5e		 pop	 esi
  00015	8b 01		 mov	 eax, DWORD PTR [ecx]
  00017	ff 60 24	 jmp	 DWORD PTR [eax+36]
$LN5@Unknown:

; 1722 : 	TiXmlUnknown* Unknown() const	{ return ToUnknown(); }

  0001a	33 c0		 xor	 eax, eax
  0001c	5e		 pop	 esi
  0001d	c3		 ret	 0
?Unknown@TiXmlHandle@@QBEPAVTiXmlUnknown@@XZ ENDP	; TiXmlHandle::Unknown
_TEXT	ENDS
; Function compile flags: /Ogtp
; File E:\Proyectos\JuegosOnlineproyectos\PB\pbblow\Piercing Blow Remake\i3Server\include\i3Base\tinyxml.h
;	COMDAT ?Text@TiXmlHandle@@QBEPAVTiXmlText@@XZ
_TEXT	SEGMENT
?Text@TiXmlHandle@@QBEPAVTiXmlText@@XZ PROC		; TiXmlHandle::Text, COMDAT
; _this$ = ecx

; 1718 : 	TiXmlText* Text() const			{ return ToText(); }

  00000	56		 push	 esi
  00001	8b f1		 mov	 esi, ecx

; 1702 : 	TiXmlText* ToText() const			{ return ( ( node && node->ToText() ) ? node->ToText() : 0 ); }

  00003	8b 0e		 mov	 ecx, DWORD PTR [esi]
  00005	85 c9		 test	 ecx, ecx
  00007	74 11		 je	 SHORT $LN5@Text
  00009	8b 01		 mov	 eax, DWORD PTR [ecx]
  0000b	ff 50 2c	 call	 DWORD PTR [eax+44]
  0000e	85 c0		 test	 eax, eax
  00010	74 08		 je	 SHORT $LN5@Text
  00012	8b 0e		 mov	 ecx, DWORD PTR [esi]
  00014	5e		 pop	 esi
  00015	8b 01		 mov	 eax, DWORD PTR [ecx]
  00017	ff 60 2c	 jmp	 DWORD PTR [eax+44]
$LN5@Text:

; 1718 : 	TiXmlText* Text() const			{ return ToText(); }

  0001a	33 c0		 xor	 eax, eax
  0001c	5e		 pop	 esi
  0001d	c3		 ret	 0
?Text@TiXmlHandle@@QBEPAVTiXmlText@@XZ ENDP		; TiXmlHandle::Text
_TEXT	ENDS
; Function compile flags: /Ogtp
; File E:\Proyectos\JuegosOnlineproyectos\PB\pbblow\Piercing Blow Remake\i3Server\include\i3Base\tinyxml.h
;	COMDAT ?Element@TiXmlHandle@@QBEPAVTiXmlElement@@XZ
_TEXT	SEGMENT
?Element@TiXmlHandle@@QBEPAVTiXmlElement@@XZ PROC	; TiXmlHandle::Element, COMDAT
; _this$ = ecx

; 1714 : 	TiXmlElement* Element() const	{ return ToElement(); }

  00000	56		 push	 esi
  00001	8b f1		 mov	 esi, ecx

; 1699 : 	TiXmlElement* ToElement() const		{ return ( ( node && node->ToElement() ) ? node->ToElement() : 0 ); }

  00003	8b 0e		 mov	 ecx, DWORD PTR [esi]
  00005	85 c9		 test	 ecx, ecx
  00007	74 11		 je	 SHORT $LN5@Element
  00009	8b 01		 mov	 eax, DWORD PTR [ecx]
  0000b	ff 50 14	 call	 DWORD PTR [eax+20]
  0000e	85 c0		 test	 eax, eax
  00010	74 08		 je	 SHORT $LN5@Element
  00012	8b 0e		 mov	 ecx, DWORD PTR [esi]
  00014	5e		 pop	 esi
  00015	8b 01		 mov	 eax, DWORD PTR [ecx]
  00017	ff 60 14	 jmp	 DWORD PTR [eax+20]
$LN5@Element:

; 1714 : 	TiXmlElement* Element() const	{ return ToElement(); }

  0001a	33 c0		 xor	 eax, eax
  0001c	5e		 pop	 esi
  0001d	c3		 ret	 0
?Element@TiXmlHandle@@QBEPAVTiXmlElement@@XZ ENDP	; TiXmlHandle::Element
_TEXT	ENDS
; Function compile flags: /Ogtp
; File E:\Proyectos\JuegosOnlineproyectos\PB\pbblow\Piercing Blow Remake\i3Server\include\i3Base\tinyxml.h
;	COMDAT ?Node@TiXmlHandle@@QBEPAVTiXmlNode@@XZ
_TEXT	SEGMENT
?Node@TiXmlHandle@@QBEPAVTiXmlNode@@XZ PROC		; TiXmlHandle::Node, COMDAT
; _this$ = ecx

; 1710 : 	TiXmlNode* Node() const			{ return ToNode(); } 

  00000	8b 01		 mov	 eax, DWORD PTR [ecx]
  00002	c3		 ret	 0
?Node@TiXmlHandle@@QBEPAVTiXmlNode@@XZ ENDP		; TiXmlHandle::Node
_TEXT	ENDS
; Function compile flags: /Ogtp
; File E:\Proyectos\JuegosOnlineproyectos\PB\pbblow\Piercing Blow Remake\i3Server\include\i3Base\tinyxml.h
;	COMDAT ?ToUnknown@TiXmlHandle@@QBEPAVTiXmlUnknown@@XZ
_TEXT	SEGMENT
?ToUnknown@TiXmlHandle@@QBEPAVTiXmlUnknown@@XZ PROC	; TiXmlHandle::ToUnknown, COMDAT
; _this$ = ecx

; 1705 : 	TiXmlUnknown* ToUnknown() const		{ return ( ( node && node->ToUnknown() ) ? node->ToUnknown() : 0 ); }

  00000	56		 push	 esi
  00001	8b f1		 mov	 esi, ecx
  00003	8b 0e		 mov	 ecx, DWORD PTR [esi]
  00005	85 c9		 test	 ecx, ecx
  00007	74 11		 je	 SHORT $LN3@ToUnknown
  00009	8b 01		 mov	 eax, DWORD PTR [ecx]
  0000b	ff 50 24	 call	 DWORD PTR [eax+36]
  0000e	85 c0		 test	 eax, eax
  00010	74 08		 je	 SHORT $LN3@ToUnknown
  00012	8b 0e		 mov	 ecx, DWORD PTR [esi]
  00014	5e		 pop	 esi
  00015	8b 01		 mov	 eax, DWORD PTR [ecx]
  00017	ff 60 24	 jmp	 DWORD PTR [eax+36]
$LN3@ToUnknown:
  0001a	33 c0		 xor	 eax, eax
  0001c	5e		 pop	 esi
  0001d	c3		 ret	 0
?ToUnknown@TiXmlHandle@@QBEPAVTiXmlUnknown@@XZ ENDP	; TiXmlHandle::ToUnknown
_TEXT	ENDS
; Function compile flags: /Ogtp
; File E:\Proyectos\JuegosOnlineproyectos\PB\pbblow\Piercing Blow Remake\i3Server\include\i3Base\tinyxml.h
;	COMDAT ?ToText@TiXmlHandle@@QBEPAVTiXmlText@@XZ
_TEXT	SEGMENT
?ToText@TiXmlHandle@@QBEPAVTiXmlText@@XZ PROC		; TiXmlHandle::ToText, COMDAT
; _this$ = ecx

; 1702 : 	TiXmlText* ToText() const			{ return ( ( node && node->ToText() ) ? node->ToText() : 0 ); }

  00000	56		 push	 esi
  00001	8b f1		 mov	 esi, ecx
  00003	8b 0e		 mov	 ecx, DWORD PTR [esi]
  00005	85 c9		 test	 ecx, ecx
  00007	74 11		 je	 SHORT $LN3@ToText
  00009	8b 01		 mov	 eax, DWORD PTR [ecx]
  0000b	ff 50 2c	 call	 DWORD PTR [eax+44]
  0000e	85 c0		 test	 eax, eax
  00010	74 08		 je	 SHORT $LN3@ToText
  00012	8b 0e		 mov	 ecx, DWORD PTR [esi]
  00014	5e		 pop	 esi
  00015	8b 01		 mov	 eax, DWORD PTR [ecx]
  00017	ff 60 2c	 jmp	 DWORD PTR [eax+44]
$LN3@ToText:
  0001a	33 c0		 xor	 eax, eax
  0001c	5e		 pop	 esi
  0001d	c3		 ret	 0
?ToText@TiXmlHandle@@QBEPAVTiXmlText@@XZ ENDP		; TiXmlHandle::ToText
_TEXT	ENDS
; Function compile flags: /Ogtp
; File E:\Proyectos\JuegosOnlineproyectos\PB\pbblow\Piercing Blow Remake\i3Server\include\i3Base\tinyxml.h
;	COMDAT ?ToElement@TiXmlHandle@@QBEPAVTiXmlElement@@XZ
_TEXT	SEGMENT
?ToElement@TiXmlHandle@@QBEPAVTiXmlElement@@XZ PROC	; TiXmlHandle::ToElement, COMDAT
; _this$ = ecx

; 1699 : 	TiXmlElement* ToElement() const		{ return ( ( node && node->ToElement() ) ? node->ToElement() : 0 ); }

  00000	56		 push	 esi
  00001	8b f1		 mov	 esi, ecx
  00003	8b 0e		 mov	 ecx, DWORD PTR [esi]
  00005	85 c9		 test	 ecx, ecx
  00007	74 11		 je	 SHORT $LN3@ToElement
  00009	8b 01		 mov	 eax, DWORD PTR [ecx]
  0000b	ff 50 14	 call	 DWORD PTR [eax+20]
  0000e	85 c0		 test	 eax, eax
  00010	74 08		 je	 SHORT $LN3@ToElement
  00012	8b 0e		 mov	 ecx, DWORD PTR [esi]
  00014	5e		 pop	 esi
  00015	8b 01		 mov	 eax, DWORD PTR [ecx]
  00017	ff 60 14	 jmp	 DWORD PTR [eax+20]
$LN3@ToElement:
  0001a	33 c0		 xor	 eax, eax
  0001c	5e		 pop	 esi
  0001d	c3		 ret	 0
?ToElement@TiXmlHandle@@QBEPAVTiXmlElement@@XZ ENDP	; TiXmlHandle::ToElement
_TEXT	ENDS
; Function compile flags: /Ogtp
; File E:\Proyectos\JuegosOnlineproyectos\PB\pbblow\Piercing Blow Remake\i3Server\include\i3Base\tinyxml.h
;	COMDAT ?ToNode@TiXmlHandle@@QBEPAVTiXmlNode@@XZ
_TEXT	SEGMENT
?ToNode@TiXmlHandle@@QBEPAVTiXmlNode@@XZ PROC		; TiXmlHandle::ToNode, COMDAT
; _this$ = ecx

; 1696 : 	TiXmlNode* ToNode() const			{ return node; } 

  00000	8b 01		 mov	 eax, DWORD PTR [ecx]
  00002	c3		 ret	 0
?ToNode@TiXmlHandle@@QBEPAVTiXmlNode@@XZ ENDP		; TiXmlHandle::ToNode
_TEXT	ENDS
; Function compile flags: /Ogtp
; File E:\Proyectos\JuegosOnlineproyectos\PB\pbblow\Piercing Blow Remake\i3Server\include\i3Base\tinyxml.h
;	COMDAT ??4TiXmlHandle@@QAE?AV0@ABV0@@Z
_TEXT	SEGMENT
___$ReturnUdt$ = 8					; size = 4
_ref$ = 12						; size = 4
??4TiXmlHandle@@QAE?AV0@ABV0@@Z PROC			; TiXmlHandle::operator=, COMDAT
; _this$ = ecx

; 1656 : 	TiXmlHandle operator=( const TiXmlHandle& ref ) { this->node = ref.node; return *this; }

  00000	55		 push	 ebp
  00001	8b ec		 mov	 ebp, esp
  00003	8b 45 0c	 mov	 eax, DWORD PTR _ref$[ebp]
  00006	8b 10		 mov	 edx, DWORD PTR [eax]

; 1655 : 	TiXmlHandle( const TiXmlHandle& ref )			{ this->node = ref.node; }

  00008	8b 45 08	 mov	 eax, DWORD PTR ___$ReturnUdt$[ebp]

; 1656 : 	TiXmlHandle operator=( const TiXmlHandle& ref ) { this->node = ref.node; return *this; }

  0000b	89 11		 mov	 DWORD PTR [ecx], edx

; 1655 : 	TiXmlHandle( const TiXmlHandle& ref )			{ this->node = ref.node; }

  0000d	89 10		 mov	 DWORD PTR [eax], edx

; 1656 : 	TiXmlHandle operator=( const TiXmlHandle& ref ) { this->node = ref.node; return *this; }

  0000f	5d		 pop	 ebp
  00010	c2 08 00	 ret	 8
??4TiXmlHandle@@QAE?AV0@ABV0@@Z ENDP			; TiXmlHandle::operator=
_TEXT	ENDS
; Function compile flags: /Ogtp
; File E:\Proyectos\JuegosOnlineproyectos\PB\pbblow\Piercing Blow Remake\i3Server\include\i3Base\tinyxml.h
;	COMDAT ??0TiXmlHandle@@QAE@ABV0@@Z
_TEXT	SEGMENT
_ref$ = 8						; size = 4
??0TiXmlHandle@@QAE@ABV0@@Z PROC			; TiXmlHandle::TiXmlHandle, COMDAT
; _this$ = ecx

; 1655 : 	TiXmlHandle( const TiXmlHandle& ref )			{ this->node = ref.node; }

  00000	55		 push	 ebp
  00001	8b ec		 mov	 ebp, esp
  00003	8b 45 08	 mov	 eax, DWORD PTR _ref$[ebp]
  00006	8b 00		 mov	 eax, DWORD PTR [eax]
  00008	89 01		 mov	 DWORD PTR [ecx], eax
  0000a	8b c1		 mov	 eax, ecx
  0000c	5d		 pop	 ebp
  0000d	c2 04 00	 ret	 4
??0TiXmlHandle@@QAE@ABV0@@Z ENDP			; TiXmlHandle::TiXmlHandle
_TEXT	ENDS
; Function compile flags: /Ogtp
; File E:\Proyectos\JuegosOnlineproyectos\PB\pbblow\Piercing Blow Remake\i3Server\include\i3Base\tinyxml.h
;	COMDAT ??0TiXmlHandle@@QAE@PAVTiXmlNode@@@Z
_TEXT	SEGMENT
__node$ = 8						; size = 4
??0TiXmlHandle@@QAE@PAVTiXmlNode@@@Z PROC		; TiXmlHandle::TiXmlHandle, COMDAT
; _this$ = ecx

; 1653 : 	TiXmlHandle( TiXmlNode* _node )					{ this->node = _node; }

  00000	55		 push	 ebp
  00001	8b ec		 mov	 ebp, esp
  00003	8b 45 08	 mov	 eax, DWORD PTR __node$[ebp]
  00006	89 01		 mov	 DWORD PTR [ecx], eax
  00008	8b c1		 mov	 eax, ecx
  0000a	5d		 pop	 ebp
  0000b	c2 04 00	 ret	 4
??0TiXmlHandle@@QAE@PAVTiXmlNode@@@Z ENDP		; TiXmlHandle::TiXmlHandle
_TEXT	ENDS
; Function compile flags: /Ogtp
; File E:\Proyectos\JuegosOnlineproyectos\PB\pbblow\Piercing Blow Remake\i3Server\include\i3Base\tinyxml.h
; File E:\Proyectos\JuegosOnlineproyectos\PB\pbblow\Piercing Blow Remake\i3Server\include\i3Base\tinystr.h
; File E:\Proyectos\JuegosOnlineproyectos\PB\pbblow\Piercing Blow Remake\i3Server\include\i3Base\tinyxml.h
;	COMDAT ??_ETiXmlDocument@@UAEPAXI@Z
_TEXT	SEGMENT
__$EHRec$ = -12						; size = 12
___flags$ = 8						; size = 4
??_ETiXmlDocument@@UAEPAXI@Z PROC			; TiXmlDocument::`vector deleting destructor', COMDAT
; _this$ = ecx
  00000	55		 push	 ebp
  00001	8b ec		 mov	 ebp, esp
  00003	6a ff		 push	 -1
  00005	68 00 00 00 00	 push	 __ehhandler$??_ETiXmlDocument@@UAEPAXI@Z
  0000a	64 a1 00 00 00
	00		 mov	 eax, DWORD PTR fs:0
  00010	50		 push	 eax
  00011	53		 push	 ebx
  00012	56		 push	 esi
  00013	57		 push	 edi
  00014	a1 00 00 00 00	 mov	 eax, DWORD PTR ___security_cookie
  00019	33 c5		 xor	 eax, ebp
  0001b	50		 push	 eax
  0001c	8d 45 f4	 lea	 eax, DWORD PTR __$EHRec$[ebp]
  0001f	64 a3 00 00 00
	00		 mov	 DWORD PTR fs:0, eax
  00025	8b f1		 mov	 esi, ecx
  00027	8b 5d 08	 mov	 ebx, DWORD PTR ___flags$[ebp]
  0002a	f6 c3 02	 test	 bl, 2
  0002d	74 3e		 je	 SHORT $LN2@vector
  0002f	68 00 00 00 00	 push	 OFFSET ??1TiXmlDocument@@UAE@XZ ; TiXmlDocument::~TiXmlDocument
  00034	ff 76 fc	 push	 DWORD PTR [esi-4]
  00037	8d 7e fc	 lea	 edi, DWORD PTR [esi-4]
  0003a	6a 4c		 push	 76			; 0000004cH
  0003c	56		 push	 esi
  0003d	e8 00 00 00 00	 call	 ??_M@YGXPAXIIP6EX0@Z@Z
  00042	f6 c3 01	 test	 bl, 1
  00045	74 10		 je	 SHORT $LN3@vector
  00047	6b 0f 4c	 imul	 ecx, DWORD PTR [edi], 76
  0004a	83 c1 04	 add	 ecx, 4
  0004d	51		 push	 ecx
  0004e	57		 push	 edi
  0004f	e8 00 00 00 00	 call	 ??_V@YAXPAXI@Z		; operator delete[]
  00054	83 c4 08	 add	 esp, 8
$LN3@vector:
  00057	8b c7		 mov	 eax, edi
  00059	8b 4d f4	 mov	 ecx, DWORD PTR __$EHRec$[ebp]
  0005c	64 89 0d 00 00
	00 00		 mov	 DWORD PTR fs:0, ecx
  00063	59		 pop	 ecx
  00064	5f		 pop	 edi
  00065	5e		 pop	 esi
  00066	5b		 pop	 ebx
  00067	8b e5		 mov	 esp, ebp
  00069	5d		 pop	 ebp
  0006a	c2 04 00	 ret	 4
$LN2@vector:

; 1411 : 	virtual ~TiXmlDocument() {}

  0006d	c7 06 00 00 00
	00		 mov	 DWORD PTR [esi], OFFSET ??_7TiXmlDocument@@6B@
; File E:\Proyectos\JuegosOnlineproyectos\PB\pbblow\Piercing Blow Remake\i3Server\include\i3Base\tinystr.h

; 257  : 		if (rep_ != &nullrep_)

  00073	8b 46 34	 mov	 eax, DWORD PTR [esi+52]
  00076	3d 00 00 00 00	 cmp	 eax, OFFSET ?nullrep_@TiXmlString@@0URep@1@A ; TiXmlString::nullrep_
  0007b	74 09		 je	 SHORT $LN16@vector

; 258  : 		{
; 259  : 			// The rep_ is really an array of ints. (see the allocator, above).
; 260  : 			// Cast it back before delete, so the compiler won't incorrectly call destructors.
; 261  : 			delete [] ( reinterpret_cast<int*>( rep_ ) );

  0007d	50		 push	 eax
  0007e	e8 00 00 00 00	 call	 ??_V@YAXPAX@Z		; operator delete[]
  00083	83 c4 04	 add	 esp, 4
$LN16@vector:
; File E:\Proyectos\JuegosOnlineproyectos\PB\pbblow\Piercing Blow Remake\i3Server\include\i3Base\tinyxml.h

; 1411 : 	virtual ~TiXmlDocument() {}

  00086	8b ce		 mov	 ecx, esi
  00088	e8 00 00 00 00	 call	 ??1TiXmlNode@@UAE@XZ	; TiXmlNode::~TiXmlNode
  0008d	f6 c3 01	 test	 bl, 1
  00090	74 0b		 je	 SHORT $LN4@vector
  00092	6a 4c		 push	 76			; 0000004cH
  00094	56		 push	 esi
  00095	e8 00 00 00 00	 call	 ??3@YAXPAXI@Z		; operator delete
  0009a	83 c4 08	 add	 esp, 8
$LN4@vector:
  0009d	8b c6		 mov	 eax, esi
  0009f	8b 4d f4	 mov	 ecx, DWORD PTR __$EHRec$[ebp]
  000a2	64 89 0d 00 00
	00 00		 mov	 DWORD PTR fs:0, ecx
  000a9	59		 pop	 ecx
  000aa	5f		 pop	 edi
  000ab	5e		 pop	 esi
  000ac	5b		 pop	 ebx
  000ad	8b e5		 mov	 esp, ebp
  000af	5d		 pop	 ebp
  000b0	c2 04 00	 ret	 4
  000b3	cc		 int	 3
  000b4	cc		 int	 3
  000b5	cc		 int	 3
  000b6	cc		 int	 3
  000b7	cc		 int	 3
_TEXT	ENDS
;	COMDAT text$x
text$x	SEGMENT
__ehhandler$??_ETiXmlDocument@@UAEPAXI@Z:
  00000	90		 npad	 1
  00001	90		 npad	 1
  00002	8b 54 24 08	 mov	 edx, DWORD PTR [esp+8]
  00006	8d 42 0c	 lea	 eax, DWORD PTR [edx+12]
  00009	8b 4a f0	 mov	 ecx, DWORD PTR [edx-16]
  0000c	33 c8		 xor	 ecx, eax
  0000e	e8 00 00 00 00	 call	 @__security_check_cookie@4
  00013	b8 00 00 00 00	 mov	 eax, OFFSET __ehfuncinfo$??_ETiXmlDocument@@UAEPAXI@Z
  00018	e9 00 00 00 00	 jmp	 ___CxxFrameHandler3
text$x	ENDS
??_ETiXmlDocument@@UAEPAXI@Z ENDP			; TiXmlDocument::`vector deleting destructor'
; Function compile flags: /Ogtp
; File E:\Proyectos\JuegosOnlineproyectos\PB\pbblow\Piercing Blow Remake\i3Server\include\i3Base\tinyxml.h
; File E:\Proyectos\JuegosOnlineproyectos\PB\pbblow\Piercing Blow Remake\i3Server\include\i3Base\tinystr.h
; File E:\Proyectos\JuegosOnlineproyectos\PB\pbblow\Piercing Blow Remake\i3Server\include\i3Base\tinyxml.h
;	COMDAT ??_GTiXmlDocument@@UAEPAXI@Z
_TEXT	SEGMENT
___flags$ = 8						; size = 4
??_GTiXmlDocument@@UAEPAXI@Z PROC			; TiXmlDocument::`scalar deleting destructor', COMDAT
; _this$ = ecx
  00000	55		 push	 ebp
  00001	8b ec		 mov	 ebp, esp

; 1411 : 	virtual ~TiXmlDocument() {}

  00003	56		 push	 esi
  00004	8b f1		 mov	 esi, ecx
  00006	c7 06 00 00 00
	00		 mov	 DWORD PTR [esi], OFFSET ??_7TiXmlDocument@@6B@
; File E:\Proyectos\JuegosOnlineproyectos\PB\pbblow\Piercing Blow Remake\i3Server\include\i3Base\tinystr.h

; 257  : 		if (rep_ != &nullrep_)

  0000c	8b 46 34	 mov	 eax, DWORD PTR [esi+52]
  0000f	3d 00 00 00 00	 cmp	 eax, OFFSET ?nullrep_@TiXmlString@@0URep@1@A ; TiXmlString::nullrep_
  00014	74 09		 je	 SHORT $LN14@scalar

; 258  : 		{
; 259  : 			// The rep_ is really an array of ints. (see the allocator, above).
; 260  : 			// Cast it back before delete, so the compiler won't incorrectly call destructors.
; 261  : 			delete [] ( reinterpret_cast<int*>( rep_ ) );

  00016	50		 push	 eax
  00017	e8 00 00 00 00	 call	 ??_V@YAXPAX@Z		; operator delete[]
  0001c	83 c4 04	 add	 esp, 4
$LN14@scalar:
; File E:\Proyectos\JuegosOnlineproyectos\PB\pbblow\Piercing Blow Remake\i3Server\include\i3Base\tinyxml.h

; 1411 : 	virtual ~TiXmlDocument() {}

  0001f	8b ce		 mov	 ecx, esi
  00021	e8 00 00 00 00	 call	 ??1TiXmlNode@@UAE@XZ	; TiXmlNode::~TiXmlNode
  00026	f6 45 08 01	 test	 BYTE PTR ___flags$[ebp], 1
  0002a	74 0b		 je	 SHORT $LN16@scalar
  0002c	6a 4c		 push	 76			; 0000004cH
  0002e	56		 push	 esi
  0002f	e8 00 00 00 00	 call	 ??3@YAXPAXI@Z		; operator delete
  00034	83 c4 08	 add	 esp, 8
$LN16@scalar:
  00037	8b c6		 mov	 eax, esi
  00039	5e		 pop	 esi
  0003a	5d		 pop	 ebp
  0003b	c2 04 00	 ret	 4
??_GTiXmlDocument@@UAEPAXI@Z ENDP			; TiXmlDocument::`scalar deleting destructor'
_TEXT	ENDS
; Function compile flags: /Ogtp
; File E:\Proyectos\JuegosOnlineproyectos\PB\pbblow\Piercing Blow Remake\i3Server\include\i3Base\tinyxml.h
;	COMDAT ?GetSize@TiXmlDocument@@QAEIXZ
_TEXT	SEGMENT
?GetSize@TiXmlDocument@@QAEIXZ PROC			; TiXmlDocument::GetSize, COMDAT
; _this$ = ecx

; 1546 : 	UINT32 GetSize(void)		{ return fileSize;		}

  00000	8b 41 48	 mov	 eax, DWORD PTR [ecx+72]
  00003	c3		 ret	 0
?GetSize@TiXmlDocument@@QAEIXZ ENDP			; TiXmlDocument::GetSize
_TEXT	ENDS
; Function compile flags: /Ogtp
; File E:\Proyectos\JuegosOnlineproyectos\PB\pbblow\Piercing Blow Remake\i3Server\include\i3Base\tinyxml.h
;	COMDAT ?ToDocument@TiXmlDocument@@UAEPAV1@XZ
_TEXT	SEGMENT
?ToDocument@TiXmlDocument@@UAEPAV1@XZ PROC		; TiXmlDocument::ToDocument, COMDAT
; _this$ = ecx

; 1539 : 	virtual TiXmlDocument*          ToDocument()          { return this; } ///< Cast to a more defined type. Will return null not of the requested type.

  00000	8b c1		 mov	 eax, ecx
  00002	c3		 ret	 0
?ToDocument@TiXmlDocument@@UAEPAV1@XZ ENDP		; TiXmlDocument::ToDocument
_TEXT	ENDS
; Function compile flags: /Ogtp
; File E:\Proyectos\JuegosOnlineproyectos\PB\pbblow\Piercing Blow Remake\i3Server\include\i3Base\tinyxml.h
;	COMDAT ?ToDocument@TiXmlDocument@@UBEPBV1@XZ
_TEXT	SEGMENT
?ToDocument@TiXmlDocument@@UBEPBV1@XZ PROC		; TiXmlDocument::ToDocument, COMDAT
; _this$ = ecx

; 1538 : 	virtual const TiXmlDocument*    ToDocument()    const { return this; } ///< Cast to a more defined type. Will return null not of the requested type.

  00000	8b c1		 mov	 eax, ecx
  00002	c3		 ret	 0
?ToDocument@TiXmlDocument@@UBEPBV1@XZ ENDP		; TiXmlDocument::ToDocument
_TEXT	ENDS
; Function compile flags: /Ogtp
; File E:\Proyectos\JuegosOnlineproyectos\PB\pbblow\Piercing Blow Remake\i3Server\include\i3Base\tinyxml.h
; File E:\Proyectos\JuegosOnlineproyectos\PB\pbblow\Piercing Blow Remake\i3Server\include\i3Base\tinystr.h
; File E:\Proyectos\JuegosOnlineproyectos\PB\pbblow\Piercing Blow Remake\i3Server\include\i3Base\tinyxml.h
; File E:\Proyectos\JuegosOnlineproyectos\PB\pbblow\Piercing Blow Remake\i3Server\include\i3Base\tinystr.h
; File E:\Proyectos\JuegosOnlineproyectos\PB\pbblow\Piercing Blow Remake\i3Server\include\i3Base\tinyxml.h
;	COMDAT ?ClearError@TiXmlDocument@@QAEXXZ
_TEXT	SEGMENT
?ClearError@TiXmlDocument@@QAEXXZ PROC			; TiXmlDocument::ClearError, COMDAT
; _this$ = ecx

; 1517 : 	void ClearError()						{	error = false; 

  00000	56		 push	 esi
  00001	8b f1		 mov	 esi, ecx
; File E:\Proyectos\JuegosOnlineproyectos\PB\pbblow\Piercing Blow Remake\i3Server\include\i3Base\tinystr.h

; 114  : 		return assign( copy, (size_type)strlen(copy));

  00003	6a 00		 push	 0
  00005	68 00 00 00 00	 push	 OFFSET ??_C@_00CNPNBAHC@@
; File E:\Proyectos\JuegosOnlineproyectos\PB\pbblow\Piercing Blow Remake\i3Server\include\i3Base\tinyxml.h

; 1519 : 												errorDesc = ""; 

  0000a	8d 4e 34	 lea	 ecx, DWORD PTR [esi+52]
  0000d	c6 46 2c 00	 mov	 BYTE PTR [esi+44], 0
  00011	c7 46 30 00 00
	00 00		 mov	 DWORD PTR [esi+48], 0
; File E:\Proyectos\JuegosOnlineproyectos\PB\pbblow\Piercing Blow Remake\i3Server\include\i3Base\tinystr.h

; 114  : 		return assign( copy, (size_type)strlen(copy));

  00018	e8 00 00 00 00	 call	 ?assign@TiXmlString@@QAEAAV1@PBDI@Z ; TiXmlString::assign
; File E:\Proyectos\JuegosOnlineproyectos\PB\pbblow\Piercing Blow Remake\i3Server\include\i3Base\tinyxml.h

; 1520 : 												errorLocation.row = errorLocation.col = 0; 

  0001d	c7 46 40 00 00
	00 00		 mov	 DWORD PTR [esi+64], 0
  00024	c7 46 3c 00 00
	00 00		 mov	 DWORD PTR [esi+60], 0
  0002b	5e		 pop	 esi

; 1521 : 												//errorLocation.last = 0; 
; 1522 : 											}

  0002c	c3		 ret	 0
?ClearError@TiXmlDocument@@QAEXXZ ENDP			; TiXmlDocument::ClearError
_TEXT	ENDS
; Function compile flags: /Ogtp
; File E:\Proyectos\JuegosOnlineproyectos\PB\pbblow\Piercing Blow Remake\i3Server\include\i3Base\tinyxml.h
;	COMDAT ?TabSize@TiXmlDocument@@QBEHXZ
_TEXT	SEGMENT
?TabSize@TiXmlDocument@@QBEHXZ PROC			; TiXmlDocument::TabSize, COMDAT
; _this$ = ecx

; 1512 : 	int TabSize() const	{ return tabsize; }

  00000	8b 41 38	 mov	 eax, DWORD PTR [ecx+56]
  00003	c3		 ret	 0
?TabSize@TiXmlDocument@@QBEHXZ ENDP			; TiXmlDocument::TabSize
_TEXT	ENDS
; Function compile flags: /Ogtp
; File E:\Proyectos\JuegosOnlineproyectos\PB\pbblow\Piercing Blow Remake\i3Server\include\i3Base\tinyxml.h
;	COMDAT ?SetTabSize@TiXmlDocument@@QAEXH@Z
_TEXT	SEGMENT
__tabsize$ = 8						; size = 4
?SetTabSize@TiXmlDocument@@QAEXH@Z PROC			; TiXmlDocument::SetTabSize, COMDAT
; _this$ = ecx

; 1510 : 	void SetTabSize( int _tabsize )		{ tabsize = _tabsize; }

  00000	55		 push	 ebp
  00001	8b ec		 mov	 ebp, esp
  00003	8b 45 08	 mov	 eax, DWORD PTR __tabsize$[ebp]
  00006	89 41 38	 mov	 DWORD PTR [ecx+56], eax
  00009	5d		 pop	 ebp
  0000a	c2 04 00	 ret	 4
?SetTabSize@TiXmlDocument@@QAEXH@Z ENDP			; TiXmlDocument::SetTabSize
_TEXT	ENDS
; Function compile flags: /Ogtp
; File E:\Proyectos\JuegosOnlineproyectos\PB\pbblow\Piercing Blow Remake\i3Server\include\i3Base\tinyxml.h
;	COMDAT ?ErrorCol@TiXmlDocument@@QBEHXZ
_TEXT	SEGMENT
?ErrorCol@TiXmlDocument@@QBEHXZ PROC			; TiXmlDocument::ErrorCol, COMDAT
; _this$ = ecx

; 1484 : 	int ErrorCol() const	{ return errorLocation.col+1; }	///< The column where the error occured. See ErrorRow()

  00000	8b 41 40	 mov	 eax, DWORD PTR [ecx+64]
  00003	40		 inc	 eax
  00004	c3		 ret	 0
?ErrorCol@TiXmlDocument@@QBEHXZ ENDP			; TiXmlDocument::ErrorCol
_TEXT	ENDS
; Function compile flags: /Ogtp
; File E:\Proyectos\JuegosOnlineproyectos\PB\pbblow\Piercing Blow Remake\i3Server\include\i3Base\tinyxml.h
;	COMDAT ?ErrorRow@TiXmlDocument@@QBEHXZ
_TEXT	SEGMENT
?ErrorRow@TiXmlDocument@@QBEHXZ PROC			; TiXmlDocument::ErrorRow, COMDAT
; _this$ = ecx

; 1483 : 	int ErrorRow() const	{ return errorLocation.row+1; }

  00000	8b 41 3c	 mov	 eax, DWORD PTR [ecx+60]
  00003	40		 inc	 eax
  00004	c3		 ret	 0
?ErrorRow@TiXmlDocument@@QBEHXZ ENDP			; TiXmlDocument::ErrorRow
_TEXT	ENDS
; Function compile flags: /Ogtp
; File E:\Proyectos\JuegosOnlineproyectos\PB\pbblow\Piercing Blow Remake\i3Server\include\i3Base\tinyxml.h
;	COMDAT ?ErrorId@TiXmlDocument@@QBEHXZ
_TEXT	SEGMENT
?ErrorId@TiXmlDocument@@QBEHXZ PROC			; TiXmlDocument::ErrorId, COMDAT
; _this$ = ecx

; 1474 : 	int ErrorId()	const				{ return errorId; }

  00000	8b 41 30	 mov	 eax, DWORD PTR [ecx+48]
  00003	c3		 ret	 0
?ErrorId@TiXmlDocument@@QBEHXZ ENDP			; TiXmlDocument::ErrorId
_TEXT	ENDS
; Function compile flags: /Ogtp
; File E:\Proyectos\JuegosOnlineproyectos\PB\pbblow\Piercing Blow Remake\i3Server\include\i3Base\tinyxml.h
; File E:\Proyectos\JuegosOnlineproyectos\PB\pbblow\Piercing Blow Remake\i3Server\include\i3Base\tinystr.h
; File E:\Proyectos\JuegosOnlineproyectos\PB\pbblow\Piercing Blow Remake\i3Server\include\i3Base\tinyxml.h
;	COMDAT ?ErrorDesc@TiXmlDocument@@QBEPBDXZ
_TEXT	SEGMENT
?ErrorDesc@TiXmlDocument@@QBEPBDXZ PROC			; TiXmlDocument::ErrorDesc, COMDAT
; _this$ = ecx
; File E:\Proyectos\JuegosOnlineproyectos\PB\pbblow\Piercing Blow Remake\i3Server\include\i3Base\tinystr.h

; 144  : 	const char * c_str () const { return rep_->str; }

  00000	8b 41 34	 mov	 eax, DWORD PTR [ecx+52]
  00003	83 c0 08	 add	 eax, 8
; File E:\Proyectos\JuegosOnlineproyectos\PB\pbblow\Piercing Blow Remake\i3Server\include\i3Base\tinyxml.h

; 1469 : 	const char * ErrorDesc() const	{ return errorDesc.c_str (); }

  00006	c3		 ret	 0
?ErrorDesc@TiXmlDocument@@QBEPBDXZ ENDP			; TiXmlDocument::ErrorDesc
_TEXT	ENDS
; Function compile flags: /Ogtp
; File E:\Proyectos\JuegosOnlineproyectos\PB\pbblow\Piercing Blow Remake\i3Server\include\i3Base\tinyxml.h
;	COMDAT ?Error@TiXmlDocument@@QBE_NXZ
_TEXT	SEGMENT
?Error@TiXmlDocument@@QBE_NXZ PROC			; TiXmlDocument::Error, COMDAT
; _this$ = ecx

; 1466 : 	bool Error() const						{ return error; }

  00000	8a 41 2c	 mov	 al, BYTE PTR [ecx+44]
  00003	c3		 ret	 0
?Error@TiXmlDocument@@QBE_NXZ ENDP			; TiXmlDocument::Error
_TEXT	ENDS
; Function compile flags: /Ogtp
; File E:\Proyectos\JuegosOnlineproyectos\PB\pbblow\Piercing Blow Remake\i3Server\include\i3Base\tinyxml.h
;	COMDAT ?RootElement@TiXmlDocument@@QAEPAVTiXmlElement@@XZ
_TEXT	SEGMENT
?RootElement@TiXmlDocument@@QAEPAVTiXmlElement@@XZ PROC	; TiXmlDocument::RootElement, COMDAT
; _this$ = ecx

; 670  : 		return const_cast< TiXmlElement* >( (const_cast< const TiXmlNode* >(this))->FirstChildElement() );

  00000	e9 00 00 00 00	 jmp	 ?FirstChildElement@TiXmlNode@@QBEPBVTiXmlElement@@XZ ; TiXmlNode::FirstChildElement
?RootElement@TiXmlDocument@@QAEPAVTiXmlElement@@XZ ENDP	; TiXmlDocument::RootElement
_TEXT	ENDS
; Function compile flags: /Ogtp
; File E:\Proyectos\JuegosOnlineproyectos\PB\pbblow\Piercing Blow Remake\i3Server\include\i3Base\tinyxml.h
;	COMDAT ?RootElement@TiXmlDocument@@QBEPBVTiXmlElement@@XZ
_TEXT	SEGMENT
?RootElement@TiXmlDocument@@QBEPBVTiXmlElement@@XZ PROC	; TiXmlDocument::RootElement, COMDAT
; _this$ = ecx

; 1458 : 	const TiXmlElement* RootElement() const		{ return FirstChildElement(); }

  00000	e9 00 00 00 00	 jmp	 ?FirstChildElement@TiXmlNode@@QBEPBVTiXmlElement@@XZ ; TiXmlNode::FirstChildElement
?RootElement@TiXmlDocument@@QBEPBVTiXmlElement@@XZ ENDP	; TiXmlDocument::RootElement
_TEXT	ENDS
; Function compile flags: /Ogtp
; File E:\Proyectos\JuegosOnlineproyectos\PB\pbblow\Piercing Blow Remake\i3Server\include\i3Base\tinyxml.h
; File E:\Proyectos\JuegosOnlineproyectos\PB\pbblow\Piercing Blow Remake\i3Server\include\i3Base\tinystr.h
; File E:\Proyectos\JuegosOnlineproyectos\PB\pbblow\Piercing Blow Remake\i3Server\include\i3Base\tinyxml.h
;	COMDAT ??1TiXmlDocument@@UAE@XZ
_TEXT	SEGMENT
??1TiXmlDocument@@UAE@XZ PROC				; TiXmlDocument::~TiXmlDocument, COMDAT
; _this$ = ecx

; 1411 : 	virtual ~TiXmlDocument() {}

  00000	56		 push	 esi
  00001	8b f1		 mov	 esi, ecx
  00003	c7 06 00 00 00
	00		 mov	 DWORD PTR [esi], OFFSET ??_7TiXmlDocument@@6B@
; File E:\Proyectos\JuegosOnlineproyectos\PB\pbblow\Piercing Blow Remake\i3Server\include\i3Base\tinystr.h

; 257  : 		if (rep_ != &nullrep_)

  00009	8b 46 34	 mov	 eax, DWORD PTR [esi+52]
  0000c	3d 00 00 00 00	 cmp	 eax, OFFSET ?nullrep_@TiXmlString@@0URep@1@A ; TiXmlString::nullrep_
  00011	74 09		 je	 SHORT $LN8@TiXmlDocum

; 258  : 		{
; 259  : 			// The rep_ is really an array of ints. (see the allocator, above).
; 260  : 			// Cast it back before delete, so the compiler won't incorrectly call destructors.
; 261  : 			delete [] ( reinterpret_cast<int*>( rep_ ) );

  00013	50		 push	 eax
  00014	e8 00 00 00 00	 call	 ??_V@YAXPAX@Z		; operator delete[]
  00019	83 c4 04	 add	 esp, 4
$LN8@TiXmlDocum:
; File E:\Proyectos\JuegosOnlineproyectos\PB\pbblow\Piercing Blow Remake\i3Server\include\i3Base\tinyxml.h

; 1411 : 	virtual ~TiXmlDocument() {}

  0001c	8b ce		 mov	 ecx, esi
  0001e	5e		 pop	 esi
  0001f	e9 00 00 00 00	 jmp	 ??1TiXmlNode@@UAE@XZ	; TiXmlNode::~TiXmlNode
??1TiXmlDocument@@UAE@XZ ENDP				; TiXmlDocument::~TiXmlDocument
_TEXT	ENDS
; Function compile flags: /Ogtp
; File E:\Proyectos\JuegosOnlineproyectos\PB\pbblow\Piercing Blow Remake\i3Server\include\i3Base\tinyxml.h
;	COMDAT ??_ETiXmlUnknown@@UAEPAXI@Z
_TEXT	SEGMENT
__$EHRec$ = -12						; size = 12
___flags$ = 8						; size = 4
??_ETiXmlUnknown@@UAEPAXI@Z PROC			; TiXmlUnknown::`vector deleting destructor', COMDAT
; _this$ = ecx
  00000	55		 push	 ebp
  00001	8b ec		 mov	 ebp, esp
  00003	6a ff		 push	 -1
  00005	68 00 00 00 00	 push	 __ehhandler$??_ETiXmlUnknown@@UAEPAXI@Z
  0000a	64 a1 00 00 00
	00		 mov	 eax, DWORD PTR fs:0
  00010	50		 push	 eax
  00011	53		 push	 ebx
  00012	56		 push	 esi
  00013	57		 push	 edi
  00014	a1 00 00 00 00	 mov	 eax, DWORD PTR ___security_cookie
  00019	33 c5		 xor	 eax, ebp
  0001b	50		 push	 eax
  0001c	8d 45 f4	 lea	 eax, DWORD PTR __$EHRec$[ebp]
  0001f	64 a3 00 00 00
	00		 mov	 DWORD PTR fs:0, eax
  00025	8b f1		 mov	 esi, ecx
  00027	8b 45 08	 mov	 eax, DWORD PTR ___flags$[ebp]
  0002a	8b f8		 mov	 edi, eax
  0002c	83 e7 01	 and	 edi, 1
  0002f	a8 02		 test	 al, 2
  00031	74 3d		 je	 SHORT $LN2@vector
  00033	68 00 00 00 00	 push	 OFFSET ??1TiXmlUnknown@@UAE@XZ ; TiXmlUnknown::~TiXmlUnknown
  00038	ff 76 fc	 push	 DWORD PTR [esi-4]
  0003b	8d 5e fc	 lea	 ebx, DWORD PTR [esi-4]
  0003e	6a 2c		 push	 44			; 0000002cH
  00040	56		 push	 esi
  00041	e8 00 00 00 00	 call	 ??_M@YGXPAXIIP6EX0@Z@Z
  00046	85 ff		 test	 edi, edi
  00048	74 10		 je	 SHORT $LN3@vector
  0004a	6b 0b 2c	 imul	 ecx, DWORD PTR [ebx], 44
  0004d	83 c1 04	 add	 ecx, 4
  00050	51		 push	 ecx
  00051	53		 push	 ebx
  00052	e8 00 00 00 00	 call	 ??_V@YAXPAXI@Z		; operator delete[]
  00057	83 c4 08	 add	 esp, 8
$LN3@vector:
  0005a	8b c3		 mov	 eax, ebx
  0005c	8b 4d f4	 mov	 ecx, DWORD PTR __$EHRec$[ebp]
  0005f	64 89 0d 00 00
	00 00		 mov	 DWORD PTR fs:0, ecx
  00066	59		 pop	 ecx
  00067	5f		 pop	 edi
  00068	5e		 pop	 esi
  00069	5b		 pop	 ebx
  0006a	8b e5		 mov	 esp, ebp
  0006c	5d		 pop	 ebp
  0006d	c2 04 00	 ret	 4
$LN2@vector:

; 1360 : 	virtual ~TiXmlUnknown() {}

  00070	c7 06 00 00 00
	00		 mov	 DWORD PTR [esi], OFFSET ??_7TiXmlUnknown@@6B@
  00076	e8 00 00 00 00	 call	 ??1TiXmlNode@@UAE@XZ	; TiXmlNode::~TiXmlNode
  0007b	85 ff		 test	 edi, edi
  0007d	74 0b		 je	 SHORT $LN4@vector
  0007f	6a 2c		 push	 44			; 0000002cH
  00081	56		 push	 esi
  00082	e8 00 00 00 00	 call	 ??3@YAXPAXI@Z		; operator delete
  00087	83 c4 08	 add	 esp, 8
$LN4@vector:
  0008a	8b c6		 mov	 eax, esi
  0008c	8b 4d f4	 mov	 ecx, DWORD PTR __$EHRec$[ebp]
  0008f	64 89 0d 00 00
	00 00		 mov	 DWORD PTR fs:0, ecx
  00096	59		 pop	 ecx
  00097	5f		 pop	 edi
  00098	5e		 pop	 esi
  00099	5b		 pop	 ebx
  0009a	8b e5		 mov	 esp, ebp
  0009c	5d		 pop	 ebp
  0009d	c2 04 00	 ret	 4
  000a0	cc		 int	 3
  000a1	cc		 int	 3
  000a2	cc		 int	 3
  000a3	cc		 int	 3
  000a4	cc		 int	 3
_TEXT	ENDS
;	COMDAT text$x
text$x	SEGMENT
__ehhandler$??_ETiXmlUnknown@@UAEPAXI@Z:
  00000	90		 npad	 1
  00001	90		 npad	 1
  00002	8b 54 24 08	 mov	 edx, DWORD PTR [esp+8]
  00006	8d 42 0c	 lea	 eax, DWORD PTR [edx+12]
  00009	8b 4a f0	 mov	 ecx, DWORD PTR [edx-16]
  0000c	33 c8		 xor	 ecx, eax
  0000e	e8 00 00 00 00	 call	 @__security_check_cookie@4
  00013	b8 00 00 00 00	 mov	 eax, OFFSET __ehfuncinfo$??_ETiXmlUnknown@@UAEPAXI@Z
  00018	e9 00 00 00 00	 jmp	 ___CxxFrameHandler3
text$x	ENDS
??_ETiXmlUnknown@@UAEPAXI@Z ENDP			; TiXmlUnknown::`vector deleting destructor'
; Function compile flags: /Ogtp
; File E:\Proyectos\JuegosOnlineproyectos\PB\pbblow\Piercing Blow Remake\i3Server\include\i3Base\tinyxml.h
;	COMDAT ??_GTiXmlUnknown@@UAEPAXI@Z
_TEXT	SEGMENT
___flags$ = 8						; size = 4
??_GTiXmlUnknown@@UAEPAXI@Z PROC			; TiXmlUnknown::`scalar deleting destructor', COMDAT
; _this$ = ecx
  00000	55		 push	 ebp
  00001	8b ec		 mov	 ebp, esp

; 1360 : 	virtual ~TiXmlUnknown() {}

  00003	56		 push	 esi
  00004	8b f1		 mov	 esi, ecx
  00006	c7 06 00 00 00
	00		 mov	 DWORD PTR [esi], OFFSET ??_7TiXmlUnknown@@6B@
  0000c	e8 00 00 00 00	 call	 ??1TiXmlNode@@UAE@XZ	; TiXmlNode::~TiXmlNode
  00011	f6 45 08 01	 test	 BYTE PTR ___flags$[ebp], 1
  00015	74 0b		 je	 SHORT $LN10@scalar
  00017	6a 2c		 push	 44			; 0000002cH
  00019	56		 push	 esi
  0001a	e8 00 00 00 00	 call	 ??3@YAXPAXI@Z		; operator delete
  0001f	83 c4 08	 add	 esp, 8
$LN10@scalar:
  00022	8b c6		 mov	 eax, esi
  00024	5e		 pop	 esi
  00025	5d		 pop	 ebp
  00026	c2 04 00	 ret	 4
??_GTiXmlUnknown@@UAEPAXI@Z ENDP			; TiXmlUnknown::`scalar deleting destructor'
_TEXT	ENDS
; Function compile flags: /Ogtp
; File E:\Proyectos\JuegosOnlineproyectos\PB\pbblow\Piercing Blow Remake\i3Server\include\i3Base\tinyxml.h
;	COMDAT ?ToUnknown@TiXmlUnknown@@UAEPAV1@XZ
_TEXT	SEGMENT
?ToUnknown@TiXmlUnknown@@UAEPAV1@XZ PROC		; TiXmlUnknown::ToUnknown, COMDAT
; _this$ = ecx

; 1373 : 	virtual TiXmlUnknown*           ToUnknown()	    { return this; } ///< Cast to a more defined type. Will return null not of the requested type.

  00000	8b c1		 mov	 eax, ecx
  00002	c3		 ret	 0
?ToUnknown@TiXmlUnknown@@UAEPAV1@XZ ENDP		; TiXmlUnknown::ToUnknown
_TEXT	ENDS
; Function compile flags: /Ogtp
; File E:\Proyectos\JuegosOnlineproyectos\PB\pbblow\Piercing Blow Remake\i3Server\include\i3Base\tinyxml.h
;	COMDAT ?ToUnknown@TiXmlUnknown@@UBEPBV1@XZ
_TEXT	SEGMENT
?ToUnknown@TiXmlUnknown@@UBEPBV1@XZ PROC		; TiXmlUnknown::ToUnknown, COMDAT
; _this$ = ecx

; 1372 : 	virtual const TiXmlUnknown*     ToUnknown()     const { return this; } ///< Cast to a more defined type. Will return null not of the requested type.

  00000	8b c1		 mov	 eax, ecx
  00002	c3		 ret	 0
?ToUnknown@TiXmlUnknown@@UBEPBV1@XZ ENDP		; TiXmlUnknown::ToUnknown
_TEXT	ENDS
; Function compile flags: /Ogtp
; File E:\Proyectos\JuegosOnlineproyectos\PB\pbblow\Piercing Blow Remake\i3Server\include\i3Base\tinyxml.h
;	COMDAT ??4TiXmlUnknown@@QAEXABV0@@Z
_TEXT	SEGMENT
_copy$ = 8						; size = 4
??4TiXmlUnknown@@QAEXABV0@@Z PROC			; TiXmlUnknown::operator=, COMDAT
; _this$ = ecx

; 1363 : 	void operator=( const TiXmlUnknown& copy )										{ copy.CopyTo( this ); }

  00000	55		 push	 ebp
  00001	8b ec		 mov	 ebp, esp
  00003	51		 push	 ecx
  00004	8b 4d 08	 mov	 ecx, DWORD PTR _copy$[ebp]
  00007	e8 00 00 00 00	 call	 ?CopyTo@TiXmlUnknown@@IBEXPAV1@@Z ; TiXmlUnknown::CopyTo
  0000c	5d		 pop	 ebp
  0000d	c2 04 00	 ret	 4
??4TiXmlUnknown@@QAEXABV0@@Z ENDP			; TiXmlUnknown::operator=
_TEXT	ENDS
; Function compile flags: /Ogtp
; File E:\Proyectos\JuegosOnlineproyectos\PB\pbblow\Piercing Blow Remake\i3Server\include\i3Base\tinyxml.h
;	COMDAT ??0TiXmlUnknown@@QAE@ABV0@@Z
_TEXT	SEGMENT
_this$ = -16						; size = 4
__$EHRec$ = -12						; size = 12
_copy$ = 8						; size = 4
??0TiXmlUnknown@@QAE@ABV0@@Z PROC			; TiXmlUnknown::TiXmlUnknown, COMDAT
; _this$ = ecx

; 1362 : 	TiXmlUnknown( const TiXmlUnknown& copy ) : TiXmlNode( TiXmlNode::UNKNOWN )		{ copy.CopyTo( this ); }

  00000	55		 push	 ebp
  00001	8b ec		 mov	 ebp, esp
  00003	6a ff		 push	 -1
  00005	68 00 00 00 00	 push	 __ehhandler$??0TiXmlUnknown@@QAE@ABV0@@Z
  0000a	64 a1 00 00 00
	00		 mov	 eax, DWORD PTR fs:0
  00010	50		 push	 eax
  00011	51		 push	 ecx
  00012	56		 push	 esi
  00013	a1 00 00 00 00	 mov	 eax, DWORD PTR ___security_cookie
  00018	33 c5		 xor	 eax, ebp
  0001a	50		 push	 eax
  0001b	8d 45 f4	 lea	 eax, DWORD PTR __$EHRec$[ebp]
  0001e	64 a3 00 00 00
	00		 mov	 DWORD PTR fs:0, eax
  00024	8b f1		 mov	 esi, ecx
  00026	89 75 f0	 mov	 DWORD PTR _this$[ebp], esi
  00029	6a 03		 push	 3
  0002b	e8 00 00 00 00	 call	 ??0TiXmlNode@@IAE@W4NodeType@0@@Z ; TiXmlNode::TiXmlNode
  00030	8b 4d 08	 mov	 ecx, DWORD PTR _copy$[ebp]
  00033	56		 push	 esi
  00034	c7 45 fc 00 00
	00 00		 mov	 DWORD PTR __$EHRec$[ebp+8], 0
  0003b	c7 06 00 00 00
	00		 mov	 DWORD PTR [esi], OFFSET ??_7TiXmlUnknown@@6B@
  00041	e8 00 00 00 00	 call	 ?CopyTo@TiXmlUnknown@@IBEXPAV1@@Z ; TiXmlUnknown::CopyTo
  00046	8b c6		 mov	 eax, esi
  00048	8b 4d f4	 mov	 ecx, DWORD PTR __$EHRec$[ebp]
  0004b	64 89 0d 00 00
	00 00		 mov	 DWORD PTR fs:0, ecx
  00052	59		 pop	 ecx
  00053	5e		 pop	 esi
  00054	8b e5		 mov	 esp, ebp
  00056	5d		 pop	 ebp
  00057	c2 04 00	 ret	 4
_TEXT	ENDS
;	COMDAT text$x
text$x	SEGMENT
__unwindfunclet$??0TiXmlUnknown@@QAE@ABV0@@Z$0:
  00000	8b 4d f0	 mov	 ecx, DWORD PTR _this$[ebp]
  00003	e9 00 00 00 00	 jmp	 ??1TiXmlNode@@UAE@XZ	; TiXmlNode::~TiXmlNode
  00008	cc		 int	 3
  00009	cc		 int	 3
  0000a	cc		 int	 3
  0000b	cc		 int	 3
  0000c	cc		 int	 3
__ehhandler$??0TiXmlUnknown@@QAE@ABV0@@Z:
  0000d	90		 npad	 1
  0000e	90		 npad	 1
  0000f	8b 54 24 08	 mov	 edx, DWORD PTR [esp+8]
  00013	8d 42 0c	 lea	 eax, DWORD PTR [edx+12]
  00016	8b 4a f4	 mov	 ecx, DWORD PTR [edx-12]
  00019	33 c8		 xor	 ecx, eax
  0001b	e8 00 00 00 00	 call	 @__security_check_cookie@4
  00020	b8 00 00 00 00	 mov	 eax, OFFSET __ehfuncinfo$??0TiXmlUnknown@@QAE@ABV0@@Z
  00025	e9 00 00 00 00	 jmp	 ___CxxFrameHandler3
text$x	ENDS
??0TiXmlUnknown@@QAE@ABV0@@Z ENDP			; TiXmlUnknown::TiXmlUnknown
; Function compile flags: /Ogtp
; File E:\Proyectos\JuegosOnlineproyectos\PB\pbblow\Piercing Blow Remake\i3Server\include\i3Base\tinyxml.h
;	COMDAT ??1TiXmlUnknown@@UAE@XZ
_TEXT	SEGMENT
??1TiXmlUnknown@@UAE@XZ PROC				; TiXmlUnknown::~TiXmlUnknown, COMDAT
; _this$ = ecx

; 1360 : 	virtual ~TiXmlUnknown() {}

  00000	c7 01 00 00 00
	00		 mov	 DWORD PTR [ecx], OFFSET ??_7TiXmlUnknown@@6B@
  00006	e9 00 00 00 00	 jmp	 ??1TiXmlNode@@UAE@XZ	; TiXmlNode::~TiXmlNode
??1TiXmlUnknown@@UAE@XZ ENDP				; TiXmlUnknown::~TiXmlUnknown
_TEXT	ENDS
; Function compile flags: /Ogtp
; File E:\Proyectos\JuegosOnlineproyectos\PB\pbblow\Piercing Blow Remake\i3Server\include\i3Base\tinyxml.h
;	COMDAT ??0TiXmlUnknown@@QAE@XZ
_TEXT	SEGMENT
_this$ = -4						; size = 4
??0TiXmlUnknown@@QAE@XZ PROC				; TiXmlUnknown::TiXmlUnknown, COMDAT
; _this$ = ecx

; 1359 : 	TiXmlUnknown() : TiXmlNode( TiXmlNode::UNKNOWN )	{}

  00000	55		 push	 ebp
  00001	8b ec		 mov	 ebp, esp
  00003	51		 push	 ecx
  00004	56		 push	 esi
  00005	8b f1		 mov	 esi, ecx
  00007	6a 03		 push	 3
  00009	89 75 fc	 mov	 DWORD PTR _this$[ebp], esi
  0000c	e8 00 00 00 00	 call	 ??0TiXmlNode@@IAE@W4NodeType@0@@Z ; TiXmlNode::TiXmlNode
  00011	c7 06 00 00 00
	00		 mov	 DWORD PTR [esi], OFFSET ??_7TiXmlUnknown@@6B@
  00017	8b c6		 mov	 eax, esi
  00019	5e		 pop	 esi
  0001a	8b e5		 mov	 esp, ebp
  0001c	5d		 pop	 ebp
  0001d	c3		 ret	 0
??0TiXmlUnknown@@QAE@XZ ENDP				; TiXmlUnknown::TiXmlUnknown
_TEXT	ENDS
; Function compile flags: /Ogtp
; File E:\Proyectos\JuegosOnlineproyectos\PB\pbblow\Piercing Blow Remake\i3Server\include\i3Base\tinyxml.h
; File E:\Proyectos\JuegosOnlineproyectos\PB\pbblow\Piercing Blow Remake\i3Server\include\i3Base\tinystr.h
; File E:\Proyectos\JuegosOnlineproyectos\PB\pbblow\Piercing Blow Remake\i3Server\include\i3Base\tinyxml.h
;	COMDAT ??_ETiXmlDeclaration@@UAEPAXI@Z
_TEXT	SEGMENT
__$EHRec$ = -12						; size = 12
___flags$ = 8						; size = 4
??_ETiXmlDeclaration@@UAEPAXI@Z PROC			; TiXmlDeclaration::`vector deleting destructor', COMDAT
; _this$ = ecx
  00000	55		 push	 ebp
  00001	8b ec		 mov	 ebp, esp
  00003	6a ff		 push	 -1
  00005	68 00 00 00 00	 push	 __ehhandler$??_ETiXmlDeclaration@@UAEPAXI@Z
  0000a	64 a1 00 00 00
	00		 mov	 eax, DWORD PTR fs:0
  00010	50		 push	 eax
  00011	53		 push	 ebx
  00012	56		 push	 esi
  00013	57		 push	 edi
  00014	a1 00 00 00 00	 mov	 eax, DWORD PTR ___security_cookie
  00019	33 c5		 xor	 eax, ebp
  0001b	50		 push	 eax
  0001c	8d 45 f4	 lea	 eax, DWORD PTR __$EHRec$[ebp]
  0001f	64 a3 00 00 00
	00		 mov	 DWORD PTR fs:0, eax
  00025	8b f1		 mov	 esi, ecx
  00027	8b 5d 08	 mov	 ebx, DWORD PTR ___flags$[ebp]
  0002a	f6 c3 02	 test	 bl, 2
  0002d	74 4a		 je	 SHORT $LN2@vector
  0002f	68 00 00 00 00	 push	 OFFSET ??1TiXmlDeclaration@@UAE@XZ ; TiXmlDeclaration::~TiXmlDeclaration
  00034	ff 76 fc	 push	 DWORD PTR [esi-4]
  00037	8d 7e fc	 lea	 edi, DWORD PTR [esi-4]
  0003a	6a 38		 push	 56			; 00000038H
  0003c	56		 push	 esi
  0003d	e8 00 00 00 00	 call	 ??_M@YGXPAXIIP6EX0@Z@Z
  00042	f6 c3 01	 test	 bl, 1
  00045	74 1c		 je	 SHORT $LN3@vector
  00047	8b 0f		 mov	 ecx, DWORD PTR [edi]
  00049	8d 14 cd 00 00
	00 00		 lea	 edx, DWORD PTR [ecx*8]
  00050	2b d1		 sub	 edx, ecx
  00052	8d 0c d5 04 00
	00 00		 lea	 ecx, DWORD PTR [edx*8+4]
  00059	51		 push	 ecx
  0005a	57		 push	 edi
  0005b	e8 00 00 00 00	 call	 ??_V@YAXPAXI@Z		; operator delete[]
  00060	83 c4 08	 add	 esp, 8
$LN3@vector:
  00063	8b c7		 mov	 eax, edi
  00065	8b 4d f4	 mov	 ecx, DWORD PTR __$EHRec$[ebp]
  00068	64 89 0d 00 00
	00 00		 mov	 DWORD PTR fs:0, ecx
  0006f	59		 pop	 ecx
  00070	5f		 pop	 edi
  00071	5e		 pop	 esi
  00072	5b		 pop	 ebx
  00073	8b e5		 mov	 esp, ebp
  00075	5d		 pop	 ebp
  00076	c2 04 00	 ret	 4
$LN2@vector:

; 1308 : 	virtual ~TiXmlDeclaration()	{}

  00079	c7 06 00 00 00
	00		 mov	 DWORD PTR [esi], OFFSET ??_7TiXmlDeclaration@@6B@
; File E:\Proyectos\JuegosOnlineproyectos\PB\pbblow\Piercing Blow Remake\i3Server\include\i3Base\tinystr.h

; 257  : 		if (rep_ != &nullrep_)

  0007f	8b 46 34	 mov	 eax, DWORD PTR [esi+52]
  00082	3d 00 00 00 00	 cmp	 eax, OFFSET ?nullrep_@TiXmlString@@0URep@1@A ; TiXmlString::nullrep_
  00087	74 09		 je	 SHORT $LN16@vector

; 258  : 		{
; 259  : 			// The rep_ is really an array of ints. (see the allocator, above).
; 260  : 			// Cast it back before delete, so the compiler won't incorrectly call destructors.
; 261  : 			delete [] ( reinterpret_cast<int*>( rep_ ) );

  00089	50		 push	 eax
  0008a	e8 00 00 00 00	 call	 ??_V@YAXPAX@Z		; operator delete[]
  0008f	83 c4 04	 add	 esp, 4
$LN16@vector:

; 257  : 		if (rep_ != &nullrep_)

  00092	8b 46 30	 mov	 eax, DWORD PTR [esi+48]
  00095	3d 00 00 00 00	 cmp	 eax, OFFSET ?nullrep_@TiXmlString@@0URep@1@A ; TiXmlString::nullrep_
  0009a	74 09		 je	 SHORT $LN22@vector

; 258  : 		{
; 259  : 			// The rep_ is really an array of ints. (see the allocator, above).
; 260  : 			// Cast it back before delete, so the compiler won't incorrectly call destructors.
; 261  : 			delete [] ( reinterpret_cast<int*>( rep_ ) );

  0009c	50		 push	 eax
  0009d	e8 00 00 00 00	 call	 ??_V@YAXPAX@Z		; operator delete[]
  000a2	83 c4 04	 add	 esp, 4
$LN22@vector:

; 257  : 		if (rep_ != &nullrep_)

  000a5	8b 46 2c	 mov	 eax, DWORD PTR [esi+44]
  000a8	3d 00 00 00 00	 cmp	 eax, OFFSET ?nullrep_@TiXmlString@@0URep@1@A ; TiXmlString::nullrep_
  000ad	74 09		 je	 SHORT $LN28@vector

; 258  : 		{
; 259  : 			// The rep_ is really an array of ints. (see the allocator, above).
; 260  : 			// Cast it back before delete, so the compiler won't incorrectly call destructors.
; 261  : 			delete [] ( reinterpret_cast<int*>( rep_ ) );

  000af	50		 push	 eax
  000b0	e8 00 00 00 00	 call	 ??_V@YAXPAX@Z		; operator delete[]
  000b5	83 c4 04	 add	 esp, 4
$LN28@vector:
; File E:\Proyectos\JuegosOnlineproyectos\PB\pbblow\Piercing Blow Remake\i3Server\include\i3Base\tinyxml.h

; 1308 : 	virtual ~TiXmlDeclaration()	{}

  000b8	8b ce		 mov	 ecx, esi
  000ba	e8 00 00 00 00	 call	 ??1TiXmlNode@@UAE@XZ	; TiXmlNode::~TiXmlNode
  000bf	f6 c3 01	 test	 bl, 1
  000c2	74 0b		 je	 SHORT $LN4@vector
  000c4	6a 38		 push	 56			; 00000038H
  000c6	56		 push	 esi
  000c7	e8 00 00 00 00	 call	 ??3@YAXPAXI@Z		; operator delete
  000cc	83 c4 08	 add	 esp, 8
$LN4@vector:
  000cf	8b c6		 mov	 eax, esi
  000d1	8b 4d f4	 mov	 ecx, DWORD PTR __$EHRec$[ebp]
  000d4	64 89 0d 00 00
	00 00		 mov	 DWORD PTR fs:0, ecx
  000db	59		 pop	 ecx
  000dc	5f		 pop	 edi
  000dd	5e		 pop	 esi
  000de	5b		 pop	 ebx
  000df	8b e5		 mov	 esp, ebp
  000e1	5d		 pop	 ebp
  000e2	c2 04 00	 ret	 4
  000e5	cc		 int	 3
  000e6	cc		 int	 3
  000e7	cc		 int	 3
  000e8	cc		 int	 3
  000e9	cc		 int	 3
_TEXT	ENDS
;	COMDAT text$x
text$x	SEGMENT
__ehhandler$??_ETiXmlDeclaration@@UAEPAXI@Z:
  00000	90		 npad	 1
  00001	90		 npad	 1
  00002	8b 54 24 08	 mov	 edx, DWORD PTR [esp+8]
  00006	8d 42 0c	 lea	 eax, DWORD PTR [edx+12]
  00009	8b 4a f0	 mov	 ecx, DWORD PTR [edx-16]
  0000c	33 c8		 xor	 ecx, eax
  0000e	e8 00 00 00 00	 call	 @__security_check_cookie@4
  00013	b8 00 00 00 00	 mov	 eax, OFFSET __ehfuncinfo$??_ETiXmlDeclaration@@UAEPAXI@Z
  00018	e9 00 00 00 00	 jmp	 ___CxxFrameHandler3
text$x	ENDS
??_ETiXmlDeclaration@@UAEPAXI@Z ENDP			; TiXmlDeclaration::`vector deleting destructor'
; Function compile flags: /Ogtp
; File E:\Proyectos\JuegosOnlineproyectos\PB\pbblow\Piercing Blow Remake\i3Server\include\i3Base\tinyxml.h
; File E:\Proyectos\JuegosOnlineproyectos\PB\pbblow\Piercing Blow Remake\i3Server\include\i3Base\tinystr.h
; File E:\Proyectos\JuegosOnlineproyectos\PB\pbblow\Piercing Blow Remake\i3Server\include\i3Base\tinyxml.h
;	COMDAT ??_GTiXmlDeclaration@@UAEPAXI@Z
_TEXT	SEGMENT
___flags$ = 8						; size = 4
??_GTiXmlDeclaration@@UAEPAXI@Z PROC			; TiXmlDeclaration::`scalar deleting destructor', COMDAT
; _this$ = ecx
  00000	55		 push	 ebp
  00001	8b ec		 mov	 ebp, esp

; 1308 : 	virtual ~TiXmlDeclaration()	{}

  00003	56		 push	 esi
  00004	8b f1		 mov	 esi, ecx
  00006	c7 06 00 00 00
	00		 mov	 DWORD PTR [esi], OFFSET ??_7TiXmlDeclaration@@6B@
; File E:\Proyectos\JuegosOnlineproyectos\PB\pbblow\Piercing Blow Remake\i3Server\include\i3Base\tinystr.h

; 257  : 		if (rep_ != &nullrep_)

  0000c	8b 46 34	 mov	 eax, DWORD PTR [esi+52]
  0000f	3d 00 00 00 00	 cmp	 eax, OFFSET ?nullrep_@TiXmlString@@0URep@1@A ; TiXmlString::nullrep_
  00014	74 09		 je	 SHORT $LN14@scalar

; 258  : 		{
; 259  : 			// The rep_ is really an array of ints. (see the allocator, above).
; 260  : 			// Cast it back before delete, so the compiler won't incorrectly call destructors.
; 261  : 			delete [] ( reinterpret_cast<int*>( rep_ ) );

  00016	50		 push	 eax
  00017	e8 00 00 00 00	 call	 ??_V@YAXPAX@Z		; operator delete[]
  0001c	83 c4 04	 add	 esp, 4
$LN14@scalar:

; 257  : 		if (rep_ != &nullrep_)

  0001f	8b 46 30	 mov	 eax, DWORD PTR [esi+48]
  00022	3d 00 00 00 00	 cmp	 eax, OFFSET ?nullrep_@TiXmlString@@0URep@1@A ; TiXmlString::nullrep_
  00027	74 09		 je	 SHORT $LN20@scalar

; 258  : 		{
; 259  : 			// The rep_ is really an array of ints. (see the allocator, above).
; 260  : 			// Cast it back before delete, so the compiler won't incorrectly call destructors.
; 261  : 			delete [] ( reinterpret_cast<int*>( rep_ ) );

  00029	50		 push	 eax
  0002a	e8 00 00 00 00	 call	 ??_V@YAXPAX@Z		; operator delete[]
  0002f	83 c4 04	 add	 esp, 4
$LN20@scalar:

; 257  : 		if (rep_ != &nullrep_)

  00032	8b 46 2c	 mov	 eax, DWORD PTR [esi+44]
  00035	3d 00 00 00 00	 cmp	 eax, OFFSET ?nullrep_@TiXmlString@@0URep@1@A ; TiXmlString::nullrep_
  0003a	74 09		 je	 SHORT $LN26@scalar

; 258  : 		{
; 259  : 			// The rep_ is really an array of ints. (see the allocator, above).
; 260  : 			// Cast it back before delete, so the compiler won't incorrectly call destructors.
; 261  : 			delete [] ( reinterpret_cast<int*>( rep_ ) );

  0003c	50		 push	 eax
  0003d	e8 00 00 00 00	 call	 ??_V@YAXPAX@Z		; operator delete[]
  00042	83 c4 04	 add	 esp, 4
$LN26@scalar:
; File E:\Proyectos\JuegosOnlineproyectos\PB\pbblow\Piercing Blow Remake\i3Server\include\i3Base\tinyxml.h

; 1308 : 	virtual ~TiXmlDeclaration()	{}

  00045	8b ce		 mov	 ecx, esi
  00047	e8 00 00 00 00	 call	 ??1TiXmlNode@@UAE@XZ	; TiXmlNode::~TiXmlNode
  0004c	f6 45 08 01	 test	 BYTE PTR ___flags$[ebp], 1
  00050	74 0b		 je	 SHORT $LN28@scalar
  00052	6a 38		 push	 56			; 00000038H
  00054	56		 push	 esi
  00055	e8 00 00 00 00	 call	 ??3@YAXPAXI@Z		; operator delete
  0005a	83 c4 08	 add	 esp, 8
$LN28@scalar:
  0005d	8b c6		 mov	 eax, esi
  0005f	5e		 pop	 esi
  00060	5d		 pop	 ebp
  00061	c2 04 00	 ret	 4
??_GTiXmlDeclaration@@UAEPAXI@Z ENDP			; TiXmlDeclaration::`scalar deleting destructor'
_TEXT	ENDS
; Function compile flags: /Ogtp
; File E:\Proyectos\JuegosOnlineproyectos\PB\pbblow\Piercing Blow Remake\i3Server\include\i3Base\tinyxml.h
;	COMDAT ?ToDeclaration@TiXmlDeclaration@@UAEPAV1@XZ
_TEXT	SEGMENT
?ToDeclaration@TiXmlDeclaration@@UAEPAV1@XZ PROC	; TiXmlDeclaration::ToDeclaration, COMDAT
; _this$ = ecx

; 1328 : 	virtual TiXmlDeclaration*       ToDeclaration()       { return this; } ///< Cast to a more defined type. Will return null not of the requested type.

  00000	8b c1		 mov	 eax, ecx
  00002	c3		 ret	 0
?ToDeclaration@TiXmlDeclaration@@UAEPAV1@XZ ENDP	; TiXmlDeclaration::ToDeclaration
_TEXT	ENDS
; Function compile flags: /Ogtp
; File E:\Proyectos\JuegosOnlineproyectos\PB\pbblow\Piercing Blow Remake\i3Server\include\i3Base\tinyxml.h
;	COMDAT ?ToDeclaration@TiXmlDeclaration@@UBEPBV1@XZ
_TEXT	SEGMENT
?ToDeclaration@TiXmlDeclaration@@UBEPBV1@XZ PROC	; TiXmlDeclaration::ToDeclaration, COMDAT
; _this$ = ecx

; 1327 : 	virtual const TiXmlDeclaration* ToDeclaration() const { return this; } ///< Cast to a more defined type. Will return null not of the requested type.

  00000	8b c1		 mov	 eax, ecx
  00002	c3		 ret	 0
?ToDeclaration@TiXmlDeclaration@@UBEPBV1@XZ ENDP	; TiXmlDeclaration::ToDeclaration
_TEXT	ENDS
; Function compile flags: /Ogtp
; File E:\Proyectos\JuegosOnlineproyectos\PB\pbblow\Piercing Blow Remake\i3Server\include\i3Base\tinyxml.h
;	COMDAT ?Print@TiXmlDeclaration@@UBEXPAVi3FileStream@@H@Z
_TEXT	SEGMENT
_cfile$ = 8						; size = 4
_depth$ = 12						; size = 4
?Print@TiXmlDeclaration@@UBEXPAVi3FileStream@@H@Z PROC	; TiXmlDeclaration::Print, COMDAT
; _this$ = ecx

; 1321 : 	virtual void Print( i3FileStream* cfile, int depth ) const {

  00000	55		 push	 ebp
  00001	8b ec		 mov	 ebp, esp

; 1322 : 		Print( cfile, depth, 0 );

  00003	8b 01		 mov	 eax, DWORD PTR [ecx]
  00005	6a 00		 push	 0
  00007	ff 75 0c	 push	 DWORD PTR _depth$[ebp]
  0000a	ff 75 08	 push	 DWORD PTR _cfile$[ebp]
  0000d	ff 50 44	 call	 DWORD PTR [eax+68]

; 1323 : 	}

  00010	5d		 pop	 ebp
  00011	c2 08 00	 ret	 8
?Print@TiXmlDeclaration@@UBEXPAVi3FileStream@@H@Z ENDP	; TiXmlDeclaration::Print
_TEXT	ENDS
; Function compile flags: /Ogtp
; File E:\Proyectos\JuegosOnlineproyectos\PB\pbblow\Piercing Blow Remake\i3Server\include\i3Base\tinyxml.h
; File E:\Proyectos\JuegosOnlineproyectos\PB\pbblow\Piercing Blow Remake\i3Server\include\i3Base\tinystr.h
; File E:\Proyectos\JuegosOnlineproyectos\PB\pbblow\Piercing Blow Remake\i3Server\include\i3Base\tinyxml.h
;	COMDAT ?Standalone@TiXmlDeclaration@@QBEPBDXZ
_TEXT	SEGMENT
?Standalone@TiXmlDeclaration@@QBEPBDXZ PROC		; TiXmlDeclaration::Standalone, COMDAT
; _this$ = ecx
; File E:\Proyectos\JuegosOnlineproyectos\PB\pbblow\Piercing Blow Remake\i3Server\include\i3Base\tinystr.h

; 144  : 	const char * c_str () const { return rep_->str; }

  00000	8b 41 34	 mov	 eax, DWORD PTR [ecx+52]
  00003	83 c0 08	 add	 eax, 8
; File E:\Proyectos\JuegosOnlineproyectos\PB\pbblow\Piercing Blow Remake\i3Server\include\i3Base\tinyxml.h

; 1315 : 	const char *Standalone() const		{ return standalone.c_str (); }

  00006	c3		 ret	 0
?Standalone@TiXmlDeclaration@@QBEPBDXZ ENDP		; TiXmlDeclaration::Standalone
_TEXT	ENDS
; Function compile flags: /Ogtp
; File E:\Proyectos\JuegosOnlineproyectos\PB\pbblow\Piercing Blow Remake\i3Server\include\i3Base\tinyxml.h
; File E:\Proyectos\JuegosOnlineproyectos\PB\pbblow\Piercing Blow Remake\i3Server\include\i3Base\tinystr.h
; File E:\Proyectos\JuegosOnlineproyectos\PB\pbblow\Piercing Blow Remake\i3Server\include\i3Base\tinyxml.h
;	COMDAT ?Encoding@TiXmlDeclaration@@QBEPBDXZ
_TEXT	SEGMENT
?Encoding@TiXmlDeclaration@@QBEPBDXZ PROC		; TiXmlDeclaration::Encoding, COMDAT
; _this$ = ecx
; File E:\Proyectos\JuegosOnlineproyectos\PB\pbblow\Piercing Blow Remake\i3Server\include\i3Base\tinystr.h

; 144  : 	const char * c_str () const { return rep_->str; }

  00000	8b 41 30	 mov	 eax, DWORD PTR [ecx+48]
  00003	83 c0 08	 add	 eax, 8
; File E:\Proyectos\JuegosOnlineproyectos\PB\pbblow\Piercing Blow Remake\i3Server\include\i3Base\tinyxml.h

; 1313 : 	const char *Encoding() const		{ return encoding.c_str (); }

  00006	c3		 ret	 0
?Encoding@TiXmlDeclaration@@QBEPBDXZ ENDP		; TiXmlDeclaration::Encoding
_TEXT	ENDS
; Function compile flags: /Ogtp
; File E:\Proyectos\JuegosOnlineproyectos\PB\pbblow\Piercing Blow Remake\i3Server\include\i3Base\tinyxml.h
; File E:\Proyectos\JuegosOnlineproyectos\PB\pbblow\Piercing Blow Remake\i3Server\include\i3Base\tinystr.h
; File E:\Proyectos\JuegosOnlineproyectos\PB\pbblow\Piercing Blow Remake\i3Server\include\i3Base\tinyxml.h
;	COMDAT ?Version@TiXmlDeclaration@@QBEPBDXZ
_TEXT	SEGMENT
?Version@TiXmlDeclaration@@QBEPBDXZ PROC		; TiXmlDeclaration::Version, COMDAT
; _this$ = ecx
; File E:\Proyectos\JuegosOnlineproyectos\PB\pbblow\Piercing Blow Remake\i3Server\include\i3Base\tinystr.h

; 144  : 	const char * c_str () const { return rep_->str; }

  00000	8b 41 2c	 mov	 eax, DWORD PTR [ecx+44]
  00003	83 c0 08	 add	 eax, 8
; File E:\Proyectos\JuegosOnlineproyectos\PB\pbblow\Piercing Blow Remake\i3Server\include\i3Base\tinyxml.h

; 1311 : 	const char *Version() const			{ return version.c_str (); }

  00006	c3		 ret	 0
?Version@TiXmlDeclaration@@QBEPBDXZ ENDP		; TiXmlDeclaration::Version
_TEXT	ENDS
; Function compile flags: /Ogtp
; File E:\Proyectos\JuegosOnlineproyectos\PB\pbblow\Piercing Blow Remake\i3Server\include\i3Base\tinyxml.h
; File E:\Proyectos\JuegosOnlineproyectos\PB\pbblow\Piercing Blow Remake\i3Server\include\i3Base\tinystr.h
; File E:\Proyectos\JuegosOnlineproyectos\PB\pbblow\Piercing Blow Remake\i3Server\include\i3Base\tinyxml.h
;	COMDAT ??1TiXmlDeclaration@@UAE@XZ
_TEXT	SEGMENT
??1TiXmlDeclaration@@UAE@XZ PROC			; TiXmlDeclaration::~TiXmlDeclaration, COMDAT
; _this$ = ecx

; 1308 : 	virtual ~TiXmlDeclaration()	{}

  00000	56		 push	 esi
  00001	8b f1		 mov	 esi, ecx
  00003	c7 06 00 00 00
	00		 mov	 DWORD PTR [esi], OFFSET ??_7TiXmlDeclaration@@6B@
; File E:\Proyectos\JuegosOnlineproyectos\PB\pbblow\Piercing Blow Remake\i3Server\include\i3Base\tinystr.h

; 257  : 		if (rep_ != &nullrep_)

  00009	8b 46 34	 mov	 eax, DWORD PTR [esi+52]
  0000c	3d 00 00 00 00	 cmp	 eax, OFFSET ?nullrep_@TiXmlString@@0URep@1@A ; TiXmlString::nullrep_
  00011	74 09		 je	 SHORT $LN8@TiXmlDecla

; 258  : 		{
; 259  : 			// The rep_ is really an array of ints. (see the allocator, above).
; 260  : 			// Cast it back before delete, so the compiler won't incorrectly call destructors.
; 261  : 			delete [] ( reinterpret_cast<int*>( rep_ ) );

  00013	50		 push	 eax
  00014	e8 00 00 00 00	 call	 ??_V@YAXPAX@Z		; operator delete[]
  00019	83 c4 04	 add	 esp, 4
$LN8@TiXmlDecla:

; 257  : 		if (rep_ != &nullrep_)

  0001c	8b 46 30	 mov	 eax, DWORD PTR [esi+48]
  0001f	3d 00 00 00 00	 cmp	 eax, OFFSET ?nullrep_@TiXmlString@@0URep@1@A ; TiXmlString::nullrep_
  00024	74 09		 je	 SHORT $LN14@TiXmlDecla

; 258  : 		{
; 259  : 			// The rep_ is really an array of ints. (see the allocator, above).
; 260  : 			// Cast it back before delete, so the compiler won't incorrectly call destructors.
; 261  : 			delete [] ( reinterpret_cast<int*>( rep_ ) );

  00026	50		 push	 eax
  00027	e8 00 00 00 00	 call	 ??_V@YAXPAX@Z		; operator delete[]
  0002c	83 c4 04	 add	 esp, 4
$LN14@TiXmlDecla:

; 257  : 		if (rep_ != &nullrep_)

  0002f	8b 46 2c	 mov	 eax, DWORD PTR [esi+44]
  00032	3d 00 00 00 00	 cmp	 eax, OFFSET ?nullrep_@TiXmlString@@0URep@1@A ; TiXmlString::nullrep_
  00037	74 09		 je	 SHORT $LN20@TiXmlDecla

; 258  : 		{
; 259  : 			// The rep_ is really an array of ints. (see the allocator, above).
; 260  : 			// Cast it back before delete, so the compiler won't incorrectly call destructors.
; 261  : 			delete [] ( reinterpret_cast<int*>( rep_ ) );

  00039	50		 push	 eax
  0003a	e8 00 00 00 00	 call	 ??_V@YAXPAX@Z		; operator delete[]
  0003f	83 c4 04	 add	 esp, 4
$LN20@TiXmlDecla:
; File E:\Proyectos\JuegosOnlineproyectos\PB\pbblow\Piercing Blow Remake\i3Server\include\i3Base\tinyxml.h

; 1308 : 	virtual ~TiXmlDeclaration()	{}

  00042	8b ce		 mov	 ecx, esi
  00044	5e		 pop	 esi
  00045	e9 00 00 00 00	 jmp	 ??1TiXmlNode@@UAE@XZ	; TiXmlNode::~TiXmlNode
??1TiXmlDeclaration@@UAE@XZ ENDP			; TiXmlDeclaration::~TiXmlDeclaration
_TEXT	ENDS
; Function compile flags: /Ogtp
; File E:\Proyectos\JuegosOnlineproyectos\PB\pbblow\Piercing Blow Remake\i3Server\include\i3Base\tinyxml.h
; File E:\Proyectos\JuegosOnlineproyectos\PB\pbblow\Piercing Blow Remake\i3Server\include\i3Base\tinystr.h
; File E:\Proyectos\JuegosOnlineproyectos\PB\pbblow\Piercing Blow Remake\i3Server\include\i3Base\tinyxml.h
;	COMDAT ??0TiXmlDeclaration@@QAE@XZ
_TEXT	SEGMENT
_this$ = -4						; size = 4
??0TiXmlDeclaration@@QAE@XZ PROC			; TiXmlDeclaration::TiXmlDeclaration, COMDAT
; _this$ = ecx

; 1291 : 	TiXmlDeclaration()   : TiXmlNode( TiXmlNode::DECLARATION ) {}

  00000	55		 push	 ebp
  00001	8b ec		 mov	 ebp, esp
  00003	51		 push	 ecx
  00004	56		 push	 esi
  00005	8b f1		 mov	 esi, ecx
  00007	6a 05		 push	 5
  00009	89 75 fc	 mov	 DWORD PTR _this$[ebp], esi
  0000c	e8 00 00 00 00	 call	 ??0TiXmlNode@@IAE@W4NodeType@0@@Z ; TiXmlNode::TiXmlNode
  00011	c7 06 00 00 00
	00		 mov	 DWORD PTR [esi], OFFSET ??_7TiXmlDeclaration@@6B@
  00017	8b c6		 mov	 eax, esi
; File E:\Proyectos\JuegosOnlineproyectos\PB\pbblow\Piercing Blow Remake\i3Server\include\i3Base\tinystr.h

; 80   : 	TiXmlString () : rep_(&nullrep_)

  00019	c7 46 2c 00 00
	00 00		 mov	 DWORD PTR [esi+44], OFFSET ?nullrep_@TiXmlString@@0URep@1@A ; TiXmlString::nullrep_
  00020	c7 46 30 00 00
	00 00		 mov	 DWORD PTR [esi+48], OFFSET ?nullrep_@TiXmlString@@0URep@1@A ; TiXmlString::nullrep_
  00027	c7 46 34 00 00
	00 00		 mov	 DWORD PTR [esi+52], OFFSET ?nullrep_@TiXmlString@@0URep@1@A ; TiXmlString::nullrep_
; File E:\Proyectos\JuegosOnlineproyectos\PB\pbblow\Piercing Blow Remake\i3Server\include\i3Base\tinyxml.h

; 1291 : 	TiXmlDeclaration()   : TiXmlNode( TiXmlNode::DECLARATION ) {}

  0002e	5e		 pop	 esi
  0002f	8b e5		 mov	 esp, ebp
  00031	5d		 pop	 ebp
  00032	c3		 ret	 0
??0TiXmlDeclaration@@QAE@XZ ENDP			; TiXmlDeclaration::TiXmlDeclaration
_TEXT	ENDS
; Function compile flags: /Ogtp
; File E:\Proyectos\JuegosOnlineproyectos\PB\pbblow\Piercing Blow Remake\i3Server\include\i3Base\tinyxml.h
;	COMDAT ??_ETiXmlText@@UAEPAXI@Z
_TEXT	SEGMENT
__$EHRec$ = -12						; size = 12
___flags$ = 8						; size = 4
??_ETiXmlText@@UAEPAXI@Z PROC				; TiXmlText::`vector deleting destructor', COMDAT
; _this$ = ecx
  00000	55		 push	 ebp
  00001	8b ec		 mov	 ebp, esp
  00003	6a ff		 push	 -1
  00005	68 00 00 00 00	 push	 __ehhandler$??_ETiXmlText@@UAEPAXI@Z
  0000a	64 a1 00 00 00
	00		 mov	 eax, DWORD PTR fs:0
  00010	50		 push	 eax
  00011	53		 push	 ebx
  00012	56		 push	 esi
  00013	57		 push	 edi
  00014	a1 00 00 00 00	 mov	 eax, DWORD PTR ___security_cookie
  00019	33 c5		 xor	 eax, ebp
  0001b	50		 push	 eax
  0001c	8d 45 f4	 lea	 eax, DWORD PTR __$EHRec$[ebp]
  0001f	64 a3 00 00 00
	00		 mov	 DWORD PTR fs:0, eax
  00025	8b f1		 mov	 esi, ecx
  00027	8b 45 08	 mov	 eax, DWORD PTR ___flags$[ebp]
  0002a	8b f8		 mov	 edi, eax
  0002c	83 e7 01	 and	 edi, 1
  0002f	a8 02		 test	 al, 2
  00031	74 42		 je	 SHORT $LN2@vector
  00033	68 00 00 00 00	 push	 OFFSET ??1TiXmlText@@UAE@XZ ; TiXmlText::~TiXmlText
  00038	ff 76 fc	 push	 DWORD PTR [esi-4]
  0003b	8d 5e fc	 lea	 ebx, DWORD PTR [esi-4]
  0003e	6a 30		 push	 48			; 00000030H
  00040	56		 push	 esi
  00041	e8 00 00 00 00	 call	 ??_M@YGXPAXIIP6EX0@Z@Z
  00046	85 ff		 test	 edi, edi
  00048	74 15		 je	 SHORT $LN3@vector
  0004a	8b 0b		 mov	 ecx, DWORD PTR [ebx]
  0004c	8d 0c 49	 lea	 ecx, DWORD PTR [ecx+ecx*2]
  0004f	c1 e1 04	 shl	 ecx, 4
  00052	83 c1 04	 add	 ecx, 4
  00055	51		 push	 ecx
  00056	53		 push	 ebx
  00057	e8 00 00 00 00	 call	 ??_V@YAXPAXI@Z		; operator delete[]
  0005c	83 c4 08	 add	 esp, 8
$LN3@vector:
  0005f	8b c3		 mov	 eax, ebx
  00061	8b 4d f4	 mov	 ecx, DWORD PTR __$EHRec$[ebp]
  00064	64 89 0d 00 00
	00 00		 mov	 DWORD PTR fs:0, ecx
  0006b	59		 pop	 ecx
  0006c	5f		 pop	 edi
  0006d	5e		 pop	 esi
  0006e	5b		 pop	 ebx
  0006f	8b e5		 mov	 esp, ebp
  00071	5d		 pop	 ebp
  00072	c2 04 00	 ret	 4
$LN2@vector:

; 1227 : 	virtual ~TiXmlText() {}

  00075	c7 06 00 00 00
	00		 mov	 DWORD PTR [esi], OFFSET ??_7TiXmlText@@6B@
  0007b	e8 00 00 00 00	 call	 ??1TiXmlNode@@UAE@XZ	; TiXmlNode::~TiXmlNode
  00080	85 ff		 test	 edi, edi
  00082	74 0b		 je	 SHORT $LN4@vector
  00084	6a 30		 push	 48			; 00000030H
  00086	56		 push	 esi
  00087	e8 00 00 00 00	 call	 ??3@YAXPAXI@Z		; operator delete
  0008c	83 c4 08	 add	 esp, 8
$LN4@vector:
  0008f	8b c6		 mov	 eax, esi
  00091	8b 4d f4	 mov	 ecx, DWORD PTR __$EHRec$[ebp]
  00094	64 89 0d 00 00
	00 00		 mov	 DWORD PTR fs:0, ecx
  0009b	59		 pop	 ecx
  0009c	5f		 pop	 edi
  0009d	5e		 pop	 esi
  0009e	5b		 pop	 ebx
  0009f	8b e5		 mov	 esp, ebp
  000a1	5d		 pop	 ebp
  000a2	c2 04 00	 ret	 4
  000a5	cc		 int	 3
  000a6	cc		 int	 3
  000a7	cc		 int	 3
  000a8	cc		 int	 3
  000a9	cc		 int	 3
_TEXT	ENDS
;	COMDAT text$x
text$x	SEGMENT
__ehhandler$??_ETiXmlText@@UAEPAXI@Z:
  00000	90		 npad	 1
  00001	90		 npad	 1
  00002	8b 54 24 08	 mov	 edx, DWORD PTR [esp+8]
  00006	8d 42 0c	 lea	 eax, DWORD PTR [edx+12]
  00009	8b 4a f0	 mov	 ecx, DWORD PTR [edx-16]
  0000c	33 c8		 xor	 ecx, eax
  0000e	e8 00 00 00 00	 call	 @__security_check_cookie@4
  00013	b8 00 00 00 00	 mov	 eax, OFFSET __ehfuncinfo$??_ETiXmlText@@UAEPAXI@Z
  00018	e9 00 00 00 00	 jmp	 ___CxxFrameHandler3
text$x	ENDS
??_ETiXmlText@@UAEPAXI@Z ENDP				; TiXmlText::`vector deleting destructor'
; Function compile flags: /Ogtp
; File E:\Proyectos\JuegosOnlineproyectos\PB\pbblow\Piercing Blow Remake\i3Server\include\i3Base\tinyxml.h
;	COMDAT ??_GTiXmlText@@UAEPAXI@Z
_TEXT	SEGMENT
___flags$ = 8						; size = 4
??_GTiXmlText@@UAEPAXI@Z PROC				; TiXmlText::`scalar deleting destructor', COMDAT
; _this$ = ecx
  00000	55		 push	 ebp
  00001	8b ec		 mov	 ebp, esp

; 1227 : 	virtual ~TiXmlText() {}

  00003	56		 push	 esi
  00004	8b f1		 mov	 esi, ecx
  00006	c7 06 00 00 00
	00		 mov	 DWORD PTR [esi], OFFSET ??_7TiXmlText@@6B@
  0000c	e8 00 00 00 00	 call	 ??1TiXmlNode@@UAE@XZ	; TiXmlNode::~TiXmlNode
  00011	f6 45 08 01	 test	 BYTE PTR ___flags$[ebp], 1
  00015	74 0b		 je	 SHORT $LN10@scalar
  00017	6a 30		 push	 48			; 00000030H
  00019	56		 push	 esi
  0001a	e8 00 00 00 00	 call	 ??3@YAXPAXI@Z		; operator delete
  0001f	83 c4 08	 add	 esp, 8
$LN10@scalar:
  00022	8b c6		 mov	 eax, esi
  00024	5e		 pop	 esi
  00025	5d		 pop	 ebp
  00026	c2 04 00	 ret	 4
??_GTiXmlText@@UAEPAXI@Z ENDP				; TiXmlText::`scalar deleting destructor'
_TEXT	ENDS
; Function compile flags: /Ogtp
; File E:\Proyectos\JuegosOnlineproyectos\PB\pbblow\Piercing Blow Remake\i3Server\include\i3Base\tinyxml.h
;	COMDAT ?ToText@TiXmlText@@UAEPAV1@XZ
_TEXT	SEGMENT
?ToText@TiXmlText@@UAEPAV1@XZ PROC			; TiXmlText::ToText, COMDAT
; _this$ = ecx

; 1252 : 	virtual TiXmlText*       ToText()       { return this; } ///< Cast to a more defined type. Will return null not of the requested type.

  00000	8b c1		 mov	 eax, ecx
  00002	c3		 ret	 0
?ToText@TiXmlText@@UAEPAV1@XZ ENDP			; TiXmlText::ToText
_TEXT	ENDS
; Function compile flags: /Ogtp
; File E:\Proyectos\JuegosOnlineproyectos\PB\pbblow\Piercing Blow Remake\i3Server\include\i3Base\tinyxml.h
;	COMDAT ?ToText@TiXmlText@@UBEPBV1@XZ
_TEXT	SEGMENT
?ToText@TiXmlText@@UBEPBV1@XZ PROC			; TiXmlText::ToText, COMDAT
; _this$ = ecx

; 1251 : 	virtual const TiXmlText* ToText() const { return this; } ///< Cast to a more defined type. Will return null not of the requested type.

  00000	8b c1		 mov	 eax, ecx
  00002	c3		 ret	 0
?ToText@TiXmlText@@UBEPBV1@XZ ENDP			; TiXmlText::ToText
_TEXT	ENDS
; Function compile flags: /Ogtp
; File E:\Proyectos\JuegosOnlineproyectos\PB\pbblow\Piercing Blow Remake\i3Server\include\i3Base\tinyxml.h
;	COMDAT ?SetCDATA@TiXmlText@@QAEX_N@Z
_TEXT	SEGMENT
__cdata$ = 8						; size = 1
?SetCDATA@TiXmlText@@QAEX_N@Z PROC			; TiXmlText::SetCDATA, COMDAT
; _this$ = ecx

; 1247 : 	void SetCDATA( bool _cdata )	{ cdata = _cdata; }

  00000	55		 push	 ebp
  00001	8b ec		 mov	 ebp, esp
  00003	8a 45 08	 mov	 al, BYTE PTR __cdata$[ebp]
  00006	88 41 2c	 mov	 BYTE PTR [ecx+44], al
  00009	5d		 pop	 ebp
  0000a	c2 04 00	 ret	 4
?SetCDATA@TiXmlText@@QAEX_N@Z ENDP			; TiXmlText::SetCDATA
_TEXT	ENDS
; Function compile flags: /Ogtp
; File E:\Proyectos\JuegosOnlineproyectos\PB\pbblow\Piercing Blow Remake\i3Server\include\i3Base\tinyxml.h
;	COMDAT ?CDATA@TiXmlText@@QBE_NXZ
_TEXT	SEGMENT
?CDATA@TiXmlText@@QBE_NXZ PROC				; TiXmlText::CDATA, COMDAT
; _this$ = ecx

; 1245 : 	bool CDATA() const				{ return cdata; }

  00000	8a 41 2c	 mov	 al, BYTE PTR [ecx+44]
  00003	c3		 ret	 0
?CDATA@TiXmlText@@QBE_NXZ ENDP				; TiXmlText::CDATA
_TEXT	ENDS
; Function compile flags: /Ogtp
; File E:\Proyectos\JuegosOnlineproyectos\PB\pbblow\Piercing Blow Remake\i3Server\include\i3Base\tinyxml.h
;	COMDAT ??4TiXmlText@@QAEXABV0@@Z
_TEXT	SEGMENT
_base$ = 8						; size = 4
??4TiXmlText@@QAEXABV0@@Z PROC				; TiXmlText::operator=, COMDAT
; _this$ = ecx

; 1239 : 	void operator=( const TiXmlText& base )							 	{ base.CopyTo( this ); }

  00000	55		 push	 ebp
  00001	8b ec		 mov	 ebp, esp
  00003	51		 push	 ecx
  00004	8b 4d 08	 mov	 ecx, DWORD PTR _base$[ebp]
  00007	e8 00 00 00 00	 call	 ?CopyTo@TiXmlText@@IBEXPAV1@@Z ; TiXmlText::CopyTo
  0000c	5d		 pop	 ebp
  0000d	c2 04 00	 ret	 4
??4TiXmlText@@QAEXABV0@@Z ENDP				; TiXmlText::operator=
_TEXT	ENDS
; Function compile flags: /Ogtp
; File E:\Proyectos\JuegosOnlineproyectos\PB\pbblow\Piercing Blow Remake\i3Server\include\i3Base\tinyxml.h
;	COMDAT ??0TiXmlText@@QAE@ABV0@@Z
_TEXT	SEGMENT
_this$ = -16						; size = 4
__$EHRec$ = -12						; size = 12
_copy$ = 8						; size = 4
??0TiXmlText@@QAE@ABV0@@Z PROC				; TiXmlText::TiXmlText, COMDAT
; _this$ = ecx

; 1238 : 	TiXmlText( const TiXmlText& copy ) : TiXmlNode( TiXmlNode::TEXT )	{ copy.CopyTo( this ); }

  00000	55		 push	 ebp
  00001	8b ec		 mov	 ebp, esp
  00003	6a ff		 push	 -1
  00005	68 00 00 00 00	 push	 __ehhandler$??0TiXmlText@@QAE@ABV0@@Z
  0000a	64 a1 00 00 00
	00		 mov	 eax, DWORD PTR fs:0
  00010	50		 push	 eax
  00011	51		 push	 ecx
  00012	56		 push	 esi
  00013	a1 00 00 00 00	 mov	 eax, DWORD PTR ___security_cookie
  00018	33 c5		 xor	 eax, ebp
  0001a	50		 push	 eax
  0001b	8d 45 f4	 lea	 eax, DWORD PTR __$EHRec$[ebp]
  0001e	64 a3 00 00 00
	00		 mov	 DWORD PTR fs:0, eax
  00024	8b f1		 mov	 esi, ecx
  00026	89 75 f0	 mov	 DWORD PTR _this$[ebp], esi
  00029	6a 04		 push	 4
  0002b	e8 00 00 00 00	 call	 ??0TiXmlNode@@IAE@W4NodeType@0@@Z ; TiXmlNode::TiXmlNode
  00030	8b 4d 08	 mov	 ecx, DWORD PTR _copy$[ebp]
  00033	56		 push	 esi
  00034	c7 45 fc 00 00
	00 00		 mov	 DWORD PTR __$EHRec$[ebp+8], 0
  0003b	c7 06 00 00 00
	00		 mov	 DWORD PTR [esi], OFFSET ??_7TiXmlText@@6B@
  00041	e8 00 00 00 00	 call	 ?CopyTo@TiXmlText@@IBEXPAV1@@Z ; TiXmlText::CopyTo
  00046	8b c6		 mov	 eax, esi
  00048	8b 4d f4	 mov	 ecx, DWORD PTR __$EHRec$[ebp]
  0004b	64 89 0d 00 00
	00 00		 mov	 DWORD PTR fs:0, ecx
  00052	59		 pop	 ecx
  00053	5e		 pop	 esi
  00054	8b e5		 mov	 esp, ebp
  00056	5d		 pop	 ebp
  00057	c2 04 00	 ret	 4
_TEXT	ENDS
;	COMDAT text$x
text$x	SEGMENT
__unwindfunclet$??0TiXmlText@@QAE@ABV0@@Z$0:
  00000	8b 4d f0	 mov	 ecx, DWORD PTR _this$[ebp]
  00003	e9 00 00 00 00	 jmp	 ??1TiXmlNode@@UAE@XZ	; TiXmlNode::~TiXmlNode
  00008	cc		 int	 3
  00009	cc		 int	 3
  0000a	cc		 int	 3
  0000b	cc		 int	 3
  0000c	cc		 int	 3
__ehhandler$??0TiXmlText@@QAE@ABV0@@Z:
  0000d	90		 npad	 1
  0000e	90		 npad	 1
  0000f	8b 54 24 08	 mov	 edx, DWORD PTR [esp+8]
  00013	8d 42 0c	 lea	 eax, DWORD PTR [edx+12]
  00016	8b 4a f4	 mov	 ecx, DWORD PTR [edx-12]
  00019	33 c8		 xor	 ecx, eax
  0001b	e8 00 00 00 00	 call	 @__security_check_cookie@4
  00020	b8 00 00 00 00	 mov	 eax, OFFSET __ehfuncinfo$??0TiXmlText@@QAE@ABV0@@Z
  00025	e9 00 00 00 00	 jmp	 ___CxxFrameHandler3
text$x	ENDS
??0TiXmlText@@QAE@ABV0@@Z ENDP				; TiXmlText::TiXmlText
; Function compile flags: /Ogtp
; File E:\Proyectos\JuegosOnlineproyectos\PB\pbblow\Piercing Blow Remake\i3Server\include\i3Base\tinyxml.h
;	COMDAT ??1TiXmlText@@UAE@XZ
_TEXT	SEGMENT
??1TiXmlText@@UAE@XZ PROC				; TiXmlText::~TiXmlText, COMDAT
; _this$ = ecx

; 1227 : 	virtual ~TiXmlText() {}

  00000	c7 01 00 00 00
	00		 mov	 DWORD PTR [ecx], OFFSET ??_7TiXmlText@@6B@
  00006	e9 00 00 00 00	 jmp	 ??1TiXmlNode@@UAE@XZ	; TiXmlNode::~TiXmlNode
??1TiXmlText@@UAE@XZ ENDP				; TiXmlText::~TiXmlText
_TEXT	ENDS
; Function compile flags: /Ogtp
; File E:\Proyectos\JuegosOnlineproyectos\PB\pbblow\Piercing Blow Remake\i3Server\include\i3Base\tinyxml.h
; File E:\Proyectos\JuegosOnlineproyectos\PB\pbblow\Piercing Blow Remake\i3Server\include\i3Base\tinystr.h
; File E:\Proyectos\JuegosOnlineproyectos\PB\pbblow\Piercing Blow Remake\i3Server\include\i3Base\tinyxml.h
; File E:\Proyectos\JuegosOnlineproyectos\PB\pbblow\Piercing Blow Remake\i3Server\include\i3Base\tinystr.h
; File E:\Proyectos\JuegosOnlineproyectos\PB\pbblow\Piercing Blow Remake\i3Server\include\i3Base\tinyxml.h
; File E:\Proyectos\JuegosOnlineproyectos\PB\pbblow\Piercing Blow Remake\i3Server\include\i3Base\tinystr.h
; File E:\Proyectos\JuegosOnlineproyectos\PB\pbblow\Piercing Blow Remake\i3Server\include\i3Base\tinyxml.h
;	COMDAT ??0TiXmlText@@QAE@PBD@Z
_TEXT	SEGMENT
_this$ = -16						; size = 4
__$EHRec$ = -12						; size = 12
_initValue$ = 8						; size = 4
??0TiXmlText@@QAE@PBD@Z PROC				; TiXmlText::TiXmlText, COMDAT
; _this$ = ecx

; 1223 : 	{

  00000	55		 push	 ebp
  00001	8b ec		 mov	 ebp, esp
  00003	6a ff		 push	 -1
  00005	68 00 00 00 00	 push	 __ehhandler$??0TiXmlText@@QAE@PBD@Z
  0000a	64 a1 00 00 00
	00		 mov	 eax, DWORD PTR fs:0
  00010	50		 push	 eax
  00011	51		 push	 ecx
  00012	56		 push	 esi
  00013	57		 push	 edi
  00014	a1 00 00 00 00	 mov	 eax, DWORD PTR ___security_cookie
  00019	33 c5		 xor	 eax, ebp
  0001b	50		 push	 eax
  0001c	8d 45 f4	 lea	 eax, DWORD PTR __$EHRec$[ebp]
  0001f	64 a3 00 00 00
	00		 mov	 DWORD PTR fs:0, eax
  00025	8b f1		 mov	 esi, ecx
  00027	89 75 f0	 mov	 DWORD PTR _this$[ebp], esi

; 1222 : 	TiXmlText (const char * initValue ) : TiXmlNode (TiXmlNode::TEXT)

  0002a	6a 04		 push	 4
  0002c	e8 00 00 00 00	 call	 ??0TiXmlNode@@IAE@W4NodeType@0@@Z ; TiXmlNode::TiXmlNode
; File E:\Proyectos\JuegosOnlineproyectos\PB\pbblow\Piercing Blow Remake\i3Server\include\i3Base\tinystr.h

; 114  : 		return assign( copy, (size_type)strlen(copy));

  00031	8b 55 08	 mov	 edx, DWORD PTR _initValue$[ebp]
  00034	8b c2		 mov	 eax, edx
; File E:\Proyectos\JuegosOnlineproyectos\PB\pbblow\Piercing Blow Remake\i3Server\include\i3Base\tinyxml.h

; 1222 : 	TiXmlText (const char * initValue ) : TiXmlNode (TiXmlNode::TEXT)

  00036	c7 45 fc 00 00
	00 00		 mov	 DWORD PTR __$EHRec$[ebp+8], 0

; 1223 : 	{

  0003d	c7 06 00 00 00
	00		 mov	 DWORD PTR [esi], OFFSET ??_7TiXmlText@@6B@
; File E:\Proyectos\JuegosOnlineproyectos\PB\pbblow\Piercing Blow Remake\i3Server\include\i3Base\tinystr.h

; 114  : 		return assign( copy, (size_type)strlen(copy));

  00043	8d 78 01	 lea	 edi, DWORD PTR [eax+1]
$LL8@TiXmlText:
  00046	8a 08		 mov	 cl, BYTE PTR [eax]
  00048	40		 inc	 eax
  00049	84 c9		 test	 cl, cl
  0004b	75 f9		 jne	 SHORT $LL8@TiXmlText
  0004d	2b c7		 sub	 eax, edi
; File E:\Proyectos\JuegosOnlineproyectos\PB\pbblow\Piercing Blow Remake\i3Server\include\i3Base\tinyxml.h

; 512  : 	void SetValue(const char * _value) { value = _value;}

  0004f	8d 4e 20	 lea	 ecx, DWORD PTR [esi+32]
; File E:\Proyectos\JuegosOnlineproyectos\PB\pbblow\Piercing Blow Remake\i3Server\include\i3Base\tinystr.h

; 114  : 		return assign( copy, (size_type)strlen(copy));

  00052	50		 push	 eax
  00053	52		 push	 edx
  00054	e8 00 00 00 00	 call	 ?assign@TiXmlString@@QAEAAV1@PBDI@Z ; TiXmlString::assign
; File E:\Proyectos\JuegosOnlineproyectos\PB\pbblow\Piercing Blow Remake\i3Server\include\i3Base\tinyxml.h

; 1225 : 		cdata = false;

  00059	c6 46 2c 00	 mov	 BYTE PTR [esi+44], 0

; 1226 : 	}

  0005d	8b c6		 mov	 eax, esi
  0005f	8b 4d f4	 mov	 ecx, DWORD PTR __$EHRec$[ebp]
  00062	64 89 0d 00 00
	00 00		 mov	 DWORD PTR fs:0, ecx
  00069	59		 pop	 ecx
  0006a	5f		 pop	 edi
  0006b	5e		 pop	 esi
  0006c	8b e5		 mov	 esp, ebp
  0006e	5d		 pop	 ebp
  0006f	c2 04 00	 ret	 4
_TEXT	ENDS
;	COMDAT text$x
text$x	SEGMENT
__unwindfunclet$??0TiXmlText@@QAE@PBD@Z$0:
  00000	8b 4d f0	 mov	 ecx, DWORD PTR _this$[ebp]
  00003	e9 00 00 00 00	 jmp	 ??1TiXmlNode@@UAE@XZ	; TiXmlNode::~TiXmlNode
  00008	cc		 int	 3
  00009	cc		 int	 3
  0000a	cc		 int	 3
  0000b	cc		 int	 3
  0000c	cc		 int	 3
__ehhandler$??0TiXmlText@@QAE@PBD@Z:
  0000d	90		 npad	 1
  0000e	90		 npad	 1
  0000f	8b 54 24 08	 mov	 edx, DWORD PTR [esp+8]
  00013	8d 42 0c	 lea	 eax, DWORD PTR [edx+12]
  00016	8b 4a f0	 mov	 ecx, DWORD PTR [edx-16]
  00019	33 c8		 xor	 ecx, eax
  0001b	e8 00 00 00 00	 call	 @__security_check_cookie@4
  00020	b8 00 00 00 00	 mov	 eax, OFFSET __ehfuncinfo$??0TiXmlText@@QAE@PBD@Z
  00025	e9 00 00 00 00	 jmp	 ___CxxFrameHandler3
text$x	ENDS
??0TiXmlText@@QAE@PBD@Z ENDP				; TiXmlText::TiXmlText
; Function compile flags: /Ogtp
; File E:\Proyectos\JuegosOnlineproyectos\PB\pbblow\Piercing Blow Remake\i3Server\include\i3Base\tinyxml.h
;	COMDAT ??_ETiXmlComment@@UAEPAXI@Z
_TEXT	SEGMENT
__$EHRec$ = -12						; size = 12
___flags$ = 8						; size = 4
??_ETiXmlComment@@UAEPAXI@Z PROC			; TiXmlComment::`vector deleting destructor', COMDAT
; _this$ = ecx
  00000	55		 push	 ebp
  00001	8b ec		 mov	 ebp, esp
  00003	6a ff		 push	 -1
  00005	68 00 00 00 00	 push	 __ehhandler$??_ETiXmlComment@@UAEPAXI@Z
  0000a	64 a1 00 00 00
	00		 mov	 eax, DWORD PTR fs:0
  00010	50		 push	 eax
  00011	53		 push	 ebx
  00012	56		 push	 esi
  00013	57		 push	 edi
  00014	a1 00 00 00 00	 mov	 eax, DWORD PTR ___security_cookie
  00019	33 c5		 xor	 eax, ebp
  0001b	50		 push	 eax
  0001c	8d 45 f4	 lea	 eax, DWORD PTR __$EHRec$[ebp]
  0001f	64 a3 00 00 00
	00		 mov	 DWORD PTR fs:0, eax
  00025	8b f1		 mov	 esi, ecx
  00027	8b 45 08	 mov	 eax, DWORD PTR ___flags$[ebp]
  0002a	8b f8		 mov	 edi, eax
  0002c	83 e7 01	 and	 edi, 1
  0002f	a8 02		 test	 al, 2
  00031	74 3d		 je	 SHORT $LN2@vector
  00033	68 00 00 00 00	 push	 OFFSET ??1TiXmlComment@@UAE@XZ ; TiXmlComment::~TiXmlComment
  00038	ff 76 fc	 push	 DWORD PTR [esi-4]
  0003b	8d 5e fc	 lea	 ebx, DWORD PTR [esi-4]
  0003e	6a 2c		 push	 44			; 0000002cH
  00040	56		 push	 esi
  00041	e8 00 00 00 00	 call	 ??_M@YGXPAXIIP6EX0@Z@Z
  00046	85 ff		 test	 edi, edi
  00048	74 10		 je	 SHORT $LN3@vector
  0004a	6b 0b 2c	 imul	 ecx, DWORD PTR [ebx], 44
  0004d	83 c1 04	 add	 ecx, 4
  00050	51		 push	 ecx
  00051	53		 push	 ebx
  00052	e8 00 00 00 00	 call	 ??_V@YAXPAXI@Z		; operator delete[]
  00057	83 c4 08	 add	 esp, 8
$LN3@vector:
  0005a	8b c3		 mov	 eax, ebx
  0005c	8b 4d f4	 mov	 ecx, DWORD PTR __$EHRec$[ebp]
  0005f	64 89 0d 00 00
	00 00		 mov	 DWORD PTR fs:0, ecx
  00066	59		 pop	 ecx
  00067	5f		 pop	 edi
  00068	5e		 pop	 esi
  00069	5b		 pop	 ebx
  0006a	8b e5		 mov	 esp, ebp
  0006c	5d		 pop	 ebp
  0006d	c2 04 00	 ret	 4
$LN2@vector:

; 1176 : 	virtual ~TiXmlComment()	{}

  00070	c7 06 00 00 00
	00		 mov	 DWORD PTR [esi], OFFSET ??_7TiXmlComment@@6B@
  00076	e8 00 00 00 00	 call	 ??1TiXmlNode@@UAE@XZ	; TiXmlNode::~TiXmlNode
  0007b	85 ff		 test	 edi, edi
  0007d	74 0b		 je	 SHORT $LN4@vector
  0007f	6a 2c		 push	 44			; 0000002cH
  00081	56		 push	 esi
  00082	e8 00 00 00 00	 call	 ??3@YAXPAXI@Z		; operator delete
  00087	83 c4 08	 add	 esp, 8
$LN4@vector:
  0008a	8b c6		 mov	 eax, esi
  0008c	8b 4d f4	 mov	 ecx, DWORD PTR __$EHRec$[ebp]
  0008f	64 89 0d 00 00
	00 00		 mov	 DWORD PTR fs:0, ecx
  00096	59		 pop	 ecx
  00097	5f		 pop	 edi
  00098	5e		 pop	 esi
  00099	5b		 pop	 ebx
  0009a	8b e5		 mov	 esp, ebp
  0009c	5d		 pop	 ebp
  0009d	c2 04 00	 ret	 4
  000a0	cc		 int	 3
  000a1	cc		 int	 3
  000a2	cc		 int	 3
  000a3	cc		 int	 3
  000a4	cc		 int	 3
_TEXT	ENDS
;	COMDAT text$x
text$x	SEGMENT
__ehhandler$??_ETiXmlComment@@UAEPAXI@Z:
  00000	90		 npad	 1
  00001	90		 npad	 1
  00002	8b 54 24 08	 mov	 edx, DWORD PTR [esp+8]
  00006	8d 42 0c	 lea	 eax, DWORD PTR [edx+12]
  00009	8b 4a f0	 mov	 ecx, DWORD PTR [edx-16]
  0000c	33 c8		 xor	 ecx, eax
  0000e	e8 00 00 00 00	 call	 @__security_check_cookie@4
  00013	b8 00 00 00 00	 mov	 eax, OFFSET __ehfuncinfo$??_ETiXmlComment@@UAEPAXI@Z
  00018	e9 00 00 00 00	 jmp	 ___CxxFrameHandler3
text$x	ENDS
??_ETiXmlComment@@UAEPAXI@Z ENDP			; TiXmlComment::`vector deleting destructor'
; Function compile flags: /Ogtp
; File E:\Proyectos\JuegosOnlineproyectos\PB\pbblow\Piercing Blow Remake\i3Server\include\i3Base\tinyxml.h
;	COMDAT ??_GTiXmlComment@@UAEPAXI@Z
_TEXT	SEGMENT
___flags$ = 8						; size = 4
??_GTiXmlComment@@UAEPAXI@Z PROC			; TiXmlComment::`scalar deleting destructor', COMDAT
; _this$ = ecx
  00000	55		 push	 ebp
  00001	8b ec		 mov	 ebp, esp

; 1176 : 	virtual ~TiXmlComment()	{}

  00003	56		 push	 esi
  00004	8b f1		 mov	 esi, ecx
  00006	c7 06 00 00 00
	00		 mov	 DWORD PTR [esi], OFFSET ??_7TiXmlComment@@6B@
  0000c	e8 00 00 00 00	 call	 ??1TiXmlNode@@UAE@XZ	; TiXmlNode::~TiXmlNode
  00011	f6 45 08 01	 test	 BYTE PTR ___flags$[ebp], 1
  00015	74 0b		 je	 SHORT $LN10@scalar
  00017	6a 2c		 push	 44			; 0000002cH
  00019	56		 push	 esi
  0001a	e8 00 00 00 00	 call	 ??3@YAXPAXI@Z		; operator delete
  0001f	83 c4 08	 add	 esp, 8
$LN10@scalar:
  00022	8b c6		 mov	 eax, esi
  00024	5e		 pop	 esi
  00025	5d		 pop	 ebp
  00026	c2 04 00	 ret	 4
??_GTiXmlComment@@UAEPAXI@Z ENDP			; TiXmlComment::`scalar deleting destructor'
_TEXT	ENDS
; Function compile flags: /Ogtp
; File E:\Proyectos\JuegosOnlineproyectos\PB\pbblow\Piercing Blow Remake\i3Server\include\i3Base\tinyxml.h
;	COMDAT ?ToComment@TiXmlComment@@UAEPAV1@XZ
_TEXT	SEGMENT
?ToComment@TiXmlComment@@UAEPAV1@XZ PROC		; TiXmlComment::ToComment, COMDAT
; _this$ = ecx

; 1189 : 	virtual TiXmlComment*  ToComment() { return this; } ///< Cast to a more defined type. Will return null not of the requested type.

  00000	8b c1		 mov	 eax, ecx
  00002	c3		 ret	 0
?ToComment@TiXmlComment@@UAEPAV1@XZ ENDP		; TiXmlComment::ToComment
_TEXT	ENDS
; Function compile flags: /Ogtp
; File E:\Proyectos\JuegosOnlineproyectos\PB\pbblow\Piercing Blow Remake\i3Server\include\i3Base\tinyxml.h
;	COMDAT ?ToComment@TiXmlComment@@UBEPBV1@XZ
_TEXT	SEGMENT
?ToComment@TiXmlComment@@UBEPBV1@XZ PROC		; TiXmlComment::ToComment, COMDAT
; _this$ = ecx

; 1188 : 	virtual const TiXmlComment*  ToComment() const { return this; } ///< Cast to a more defined type. Will return null not of the requested type.

  00000	8b c1		 mov	 eax, ecx
  00002	c3		 ret	 0
?ToComment@TiXmlComment@@UBEPBV1@XZ ENDP		; TiXmlComment::ToComment
_TEXT	ENDS
; Function compile flags: /Ogtp
; File E:\Proyectos\JuegosOnlineproyectos\PB\pbblow\Piercing Blow Remake\i3Server\include\i3Base\tinyxml.h
;	COMDAT ??1TiXmlComment@@UAE@XZ
_TEXT	SEGMENT
??1TiXmlComment@@UAE@XZ PROC				; TiXmlComment::~TiXmlComment, COMDAT
; _this$ = ecx

; 1176 : 	virtual ~TiXmlComment()	{}

  00000	c7 01 00 00 00
	00		 mov	 DWORD PTR [ecx], OFFSET ??_7TiXmlComment@@6B@
  00006	e9 00 00 00 00	 jmp	 ??1TiXmlNode@@UAE@XZ	; TiXmlNode::~TiXmlNode
??1TiXmlComment@@UAE@XZ ENDP				; TiXmlComment::~TiXmlComment
_TEXT	ENDS
; Function compile flags: /Ogtp
; File E:\Proyectos\JuegosOnlineproyectos\PB\pbblow\Piercing Blow Remake\i3Server\include\i3Base\tinyxml.h
; File E:\Proyectos\JuegosOnlineproyectos\PB\pbblow\Piercing Blow Remake\i3Server\include\i3Base\tinystr.h
; File E:\Proyectos\JuegosOnlineproyectos\PB\pbblow\Piercing Blow Remake\i3Server\include\i3Base\tinyxml.h
; File E:\Proyectos\JuegosOnlineproyectos\PB\pbblow\Piercing Blow Remake\i3Server\include\i3Base\tinystr.h
; File E:\Proyectos\JuegosOnlineproyectos\PB\pbblow\Piercing Blow Remake\i3Server\include\i3Base\tinyxml.h
; File E:\Proyectos\JuegosOnlineproyectos\PB\pbblow\Piercing Blow Remake\i3Server\include\i3Base\tinystr.h
; File E:\Proyectos\JuegosOnlineproyectos\PB\pbblow\Piercing Blow Remake\i3Server\include\i3Base\tinyxml.h
;	COMDAT ??0TiXmlComment@@QAE@PBD@Z
_TEXT	SEGMENT
_this$ = -16						; size = 4
__$EHRec$ = -12						; size = 12
__value$ = 8						; size = 4
??0TiXmlComment@@QAE@PBD@Z PROC				; TiXmlComment::TiXmlComment, COMDAT
; _this$ = ecx

; 1170 : 	TiXmlComment( const char* _value ) : TiXmlNode( TiXmlNode::COMMENT ) {

  00000	55		 push	 ebp
  00001	8b ec		 mov	 ebp, esp
  00003	6a ff		 push	 -1
  00005	68 00 00 00 00	 push	 __ehhandler$??0TiXmlComment@@QAE@PBD@Z
  0000a	64 a1 00 00 00
	00		 mov	 eax, DWORD PTR fs:0
  00010	50		 push	 eax
  00011	51		 push	 ecx
  00012	56		 push	 esi
  00013	57		 push	 edi
  00014	a1 00 00 00 00	 mov	 eax, DWORD PTR ___security_cookie
  00019	33 c5		 xor	 eax, ebp
  0001b	50		 push	 eax
  0001c	8d 45 f4	 lea	 eax, DWORD PTR __$EHRec$[ebp]
  0001f	64 a3 00 00 00
	00		 mov	 DWORD PTR fs:0, eax
  00025	8b f1		 mov	 esi, ecx
  00027	89 75 f0	 mov	 DWORD PTR _this$[ebp], esi
  0002a	6a 02		 push	 2
  0002c	e8 00 00 00 00	 call	 ??0TiXmlNode@@IAE@W4NodeType@0@@Z ; TiXmlNode::TiXmlNode
; File E:\Proyectos\JuegosOnlineproyectos\PB\pbblow\Piercing Blow Remake\i3Server\include\i3Base\tinystr.h

; 114  : 		return assign( copy, (size_type)strlen(copy));

  00031	8b 55 08	 mov	 edx, DWORD PTR __value$[ebp]
  00034	8b c2		 mov	 eax, edx
; File E:\Proyectos\JuegosOnlineproyectos\PB\pbblow\Piercing Blow Remake\i3Server\include\i3Base\tinyxml.h

; 1170 : 	TiXmlComment( const char* _value ) : TiXmlNode( TiXmlNode::COMMENT ) {

  00036	c7 45 fc 00 00
	00 00		 mov	 DWORD PTR __$EHRec$[ebp+8], 0
  0003d	c7 06 00 00 00
	00		 mov	 DWORD PTR [esi], OFFSET ??_7TiXmlComment@@6B@
; File E:\Proyectos\JuegosOnlineproyectos\PB\pbblow\Piercing Blow Remake\i3Server\include\i3Base\tinystr.h

; 114  : 		return assign( copy, (size_type)strlen(copy));

  00043	8d 78 01	 lea	 edi, DWORD PTR [eax+1]
$LL8@TiXmlComme:
  00046	8a 08		 mov	 cl, BYTE PTR [eax]
  00048	40		 inc	 eax
  00049	84 c9		 test	 cl, cl
  0004b	75 f9		 jne	 SHORT $LL8@TiXmlComme
  0004d	2b c7		 sub	 eax, edi
; File E:\Proyectos\JuegosOnlineproyectos\PB\pbblow\Piercing Blow Remake\i3Server\include\i3Base\tinyxml.h

; 512  : 	void SetValue(const char * _value) { value = _value;}

  0004f	8d 4e 20	 lea	 ecx, DWORD PTR [esi+32]
; File E:\Proyectos\JuegosOnlineproyectos\PB\pbblow\Piercing Blow Remake\i3Server\include\i3Base\tinystr.h

; 114  : 		return assign( copy, (size_type)strlen(copy));

  00052	50		 push	 eax
  00053	52		 push	 edx
  00054	e8 00 00 00 00	 call	 ?assign@TiXmlString@@QAEAAV1@PBDI@Z ; TiXmlString::assign
; File E:\Proyectos\JuegosOnlineproyectos\PB\pbblow\Piercing Blow Remake\i3Server\include\i3Base\tinyxml.h

; 1172 : 	}

  00059	8b c6		 mov	 eax, esi
  0005b	8b 4d f4	 mov	 ecx, DWORD PTR __$EHRec$[ebp]
  0005e	64 89 0d 00 00
	00 00		 mov	 DWORD PTR fs:0, ecx
  00065	59		 pop	 ecx
  00066	5f		 pop	 edi
  00067	5e		 pop	 esi
  00068	8b e5		 mov	 esp, ebp
  0006a	5d		 pop	 ebp
  0006b	c2 04 00	 ret	 4
_TEXT	ENDS
;	COMDAT text$x
text$x	SEGMENT
__unwindfunclet$??0TiXmlComment@@QAE@PBD@Z$0:
  00000	8b 4d f0	 mov	 ecx, DWORD PTR _this$[ebp]
  00003	e9 00 00 00 00	 jmp	 ??1TiXmlNode@@UAE@XZ	; TiXmlNode::~TiXmlNode
  00008	cc		 int	 3
  00009	cc		 int	 3
  0000a	cc		 int	 3
  0000b	cc		 int	 3
  0000c	cc		 int	 3
__ehhandler$??0TiXmlComment@@QAE@PBD@Z:
  0000d	90		 npad	 1
  0000e	90		 npad	 1
  0000f	8b 54 24 08	 mov	 edx, DWORD PTR [esp+8]
  00013	8d 42 0c	 lea	 eax, DWORD PTR [edx+12]
  00016	8b 4a f0	 mov	 ecx, DWORD PTR [edx-16]
  00019	33 c8		 xor	 ecx, eax
  0001b	e8 00 00 00 00	 call	 @__security_check_cookie@4
  00020	b8 00 00 00 00	 mov	 eax, OFFSET __ehfuncinfo$??0TiXmlComment@@QAE@PBD@Z
  00025	e9 00 00 00 00	 jmp	 ___CxxFrameHandler3
text$x	ENDS
??0TiXmlComment@@QAE@PBD@Z ENDP				; TiXmlComment::TiXmlComment
; Function compile flags: /Ogtp
; File E:\Proyectos\JuegosOnlineproyectos\PB\pbblow\Piercing Blow Remake\i3Server\include\i3Base\tinyxml.h
;	COMDAT ??0TiXmlComment@@QAE@XZ
_TEXT	SEGMENT
_this$ = -4						; size = 4
??0TiXmlComment@@QAE@XZ PROC				; TiXmlComment::TiXmlComment, COMDAT
; _this$ = ecx

; 1168 : 	TiXmlComment() : TiXmlNode( TiXmlNode::COMMENT ) {}

  00000	55		 push	 ebp
  00001	8b ec		 mov	 ebp, esp
  00003	51		 push	 ecx
  00004	56		 push	 esi
  00005	8b f1		 mov	 esi, ecx
  00007	6a 02		 push	 2
  00009	89 75 fc	 mov	 DWORD PTR _this$[ebp], esi
  0000c	e8 00 00 00 00	 call	 ??0TiXmlNode@@IAE@W4NodeType@0@@Z ; TiXmlNode::TiXmlNode
  00011	c7 06 00 00 00
	00		 mov	 DWORD PTR [esi], OFFSET ??_7TiXmlComment@@6B@
  00017	8b c6		 mov	 eax, esi
  00019	5e		 pop	 esi
  0001a	8b e5		 mov	 esp, ebp
  0001c	5d		 pop	 ebp
  0001d	c3		 ret	 0
??0TiXmlComment@@QAE@XZ ENDP				; TiXmlComment::TiXmlComment
_TEXT	ENDS
; Function compile flags: /Ogtp
; File E:\Proyectos\JuegosOnlineproyectos\PB\pbblow\Piercing Blow Remake\i3Server\include\i3Base\tinyxml.h
;	COMDAT ?ToElement@TiXmlElement@@UAEPAV1@XZ
_TEXT	SEGMENT
?ToElement@TiXmlElement@@UAEPAV1@XZ PROC		; TiXmlElement::ToElement, COMDAT
; _this$ = ecx

; 1135 : 	virtual TiXmlElement*           ToElement()	          { return this; } ///< Cast to a more defined type. Will return null not of the requested type.

  00000	8b c1		 mov	 eax, ecx
  00002	c3		 ret	 0
?ToElement@TiXmlElement@@UAEPAV1@XZ ENDP		; TiXmlElement::ToElement
_TEXT	ENDS
; Function compile flags: /Ogtp
; File E:\Proyectos\JuegosOnlineproyectos\PB\pbblow\Piercing Blow Remake\i3Server\include\i3Base\tinyxml.h
;	COMDAT ?ToElement@TiXmlElement@@UBEPBV1@XZ
_TEXT	SEGMENT
?ToElement@TiXmlElement@@UBEPBV1@XZ PROC		; TiXmlElement::ToElement, COMDAT
; _this$ = ecx

; 1134 : 	virtual const TiXmlElement*     ToElement()     const { return this; } ///< Cast to a more defined type. Will return null not of the requested type.

  00000	8b c1		 mov	 eax, ecx
  00002	c3		 ret	 0
?ToElement@TiXmlElement@@UBEPBV1@XZ ENDP		; TiXmlElement::ToElement
_TEXT	ENDS
; Function compile flags: /Ogtp
; File E:\Proyectos\JuegosOnlineproyectos\PB\pbblow\Piercing Blow Remake\i3Server\include\i3Base\tinyxml.h
;	COMDAT ?LastAttribute@TiXmlElement@@QAEPAVTiXmlAttribute@@XZ
_TEXT	SEGMENT
?LastAttribute@TiXmlElement@@QAEPAVTiXmlAttribute@@XZ PROC ; TiXmlElement::LastAttribute, COMDAT
; _this$ = ecx

; 919  : 	TiXmlAttribute* Last()					{ return ( sentinel.prev == &sentinel ) ? 0 : sentinel.prev; }

  00000	8b 41 48	 mov	 eax, DWORD PTR [ecx+72]

; 1088 : 	TiXmlAttribute* LastAttribute()					{ return attributeSet.Last(); }

  00003	83 c1 2c	 add	 ecx, 44			; 0000002cH

; 919  : 	TiXmlAttribute* Last()					{ return ( sentinel.prev == &sentinel ) ? 0 : sentinel.prev; }

  00006	33 d2		 xor	 edx, edx
  00008	3b c1		 cmp	 eax, ecx
  0000a	0f 44 c2	 cmove	 eax, edx

; 1088 : 	TiXmlAttribute* LastAttribute()					{ return attributeSet.Last(); }

  0000d	c3		 ret	 0
?LastAttribute@TiXmlElement@@QAEPAVTiXmlAttribute@@XZ ENDP ; TiXmlElement::LastAttribute
_TEXT	ENDS
; Function compile flags: /Ogtp
; File E:\Proyectos\JuegosOnlineproyectos\PB\pbblow\Piercing Blow Remake\i3Server\include\i3Base\tinyxml.h
;	COMDAT ?LastAttribute@TiXmlElement@@QBEPBVTiXmlAttribute@@XZ
_TEXT	SEGMENT
?LastAttribute@TiXmlElement@@QBEPBVTiXmlAttribute@@XZ PROC ; TiXmlElement::LastAttribute, COMDAT
; _this$ = ecx

; 918  : 	const TiXmlAttribute* Last() const		{ return ( sentinel.prev == &sentinel ) ? 0 : sentinel.prev; }

  00000	8b 41 48	 mov	 eax, DWORD PTR [ecx+72]

; 1087 : 	const TiXmlAttribute* LastAttribute()	const 	{ return attributeSet.Last(); }		///< Access the last attribute in this element.

  00003	83 c1 2c	 add	 ecx, 44			; 0000002cH

; 918  : 	const TiXmlAttribute* Last() const		{ return ( sentinel.prev == &sentinel ) ? 0 : sentinel.prev; }

  00006	33 d2		 xor	 edx, edx
  00008	3b c1		 cmp	 eax, ecx
  0000a	0f 44 c2	 cmove	 eax, edx

; 1087 : 	const TiXmlAttribute* LastAttribute()	const 	{ return attributeSet.Last(); }		///< Access the last attribute in this element.

  0000d	c3		 ret	 0
?LastAttribute@TiXmlElement@@QBEPBVTiXmlAttribute@@XZ ENDP ; TiXmlElement::LastAttribute
_TEXT	ENDS
; Function compile flags: /Ogtp
; File E:\Proyectos\JuegosOnlineproyectos\PB\pbblow\Piercing Blow Remake\i3Server\include\i3Base\tinyxml.h
;	COMDAT ?FirstAttribute@TiXmlElement@@QAEPAVTiXmlAttribute@@XZ
_TEXT	SEGMENT
?FirstAttribute@TiXmlElement@@QAEPAVTiXmlAttribute@@XZ PROC ; TiXmlElement::FirstAttribute, COMDAT
; _this$ = ecx

; 917  : 	TiXmlAttribute* First()					{ return ( sentinel.next == &sentinel ) ? 0 : sentinel.next; }

  00000	8b 41 4c	 mov	 eax, DWORD PTR [ecx+76]

; 1086 : 	TiXmlAttribute* FirstAttribute() 				{ return attributeSet.First(); }

  00003	83 c1 2c	 add	 ecx, 44			; 0000002cH

; 917  : 	TiXmlAttribute* First()					{ return ( sentinel.next == &sentinel ) ? 0 : sentinel.next; }

  00006	33 d2		 xor	 edx, edx
  00008	3b c1		 cmp	 eax, ecx
  0000a	0f 44 c2	 cmove	 eax, edx

; 1086 : 	TiXmlAttribute* FirstAttribute() 				{ return attributeSet.First(); }

  0000d	c3		 ret	 0
?FirstAttribute@TiXmlElement@@QAEPAVTiXmlAttribute@@XZ ENDP ; TiXmlElement::FirstAttribute
_TEXT	ENDS
; Function compile flags: /Ogtp
; File E:\Proyectos\JuegosOnlineproyectos\PB\pbblow\Piercing Blow Remake\i3Server\include\i3Base\tinyxml.h
;	COMDAT ?FirstAttribute@TiXmlElement@@QBEPBVTiXmlAttribute@@XZ
_TEXT	SEGMENT
?FirstAttribute@TiXmlElement@@QBEPBVTiXmlAttribute@@XZ PROC ; TiXmlElement::FirstAttribute, COMDAT
; _this$ = ecx

; 916  : 	const TiXmlAttribute* First()	const	{ return ( sentinel.next == &sentinel ) ? 0 : sentinel.next; }

  00000	8b 41 4c	 mov	 eax, DWORD PTR [ecx+76]

; 1085 : 	const TiXmlAttribute* FirstAttribute() const	{ return attributeSet.First(); }		///< Access the first attribute in this element.

  00003	83 c1 2c	 add	 ecx, 44			; 0000002cH

; 916  : 	const TiXmlAttribute* First()	const	{ return ( sentinel.next == &sentinel ) ? 0 : sentinel.next; }

  00006	33 d2		 xor	 edx, edx
  00008	3b c1		 cmp	 eax, ecx
  0000a	0f 44 c2	 cmove	 eax, edx

; 1085 : 	const TiXmlAttribute* FirstAttribute() const	{ return attributeSet.First(); }		///< Access the first attribute in this element.

  0000d	c3		 ret	 0
?FirstAttribute@TiXmlElement@@QBEPBVTiXmlAttribute@@XZ ENDP ; TiXmlElement::FirstAttribute
_TEXT	ENDS
; Function compile flags: /Ogtp
; File E:\Proyectos\JuegosOnlineproyectos\PB\pbblow\Piercing Blow Remake\i3Server\include\i3Base\tinyxml.h
;	COMDAT ?QueryFloatAttribute@TiXmlElement@@QBEHPBDPAM@Z
_TEXT	SEGMENT
_d$ = -8						; size = 8
_name$ = 8						; size = 4
__value$ = 12						; size = 4
?QueryFloatAttribute@TiXmlElement@@QBEHPBDPAM@Z PROC	; TiXmlElement::QueryFloatAttribute, COMDAT
; _this$ = ecx

; 999  : 	int QueryFloatAttribute( const char* name, float* _value ) const {

  00000	55		 push	 ebp
  00001	8b ec		 mov	 ebp, esp
  00003	83 ec 08	 sub	 esp, 8

; 1000 : 		double d;
; 1001 : 		int result = QueryDoubleAttribute( name, &d );

  00006	8d 45 f8	 lea	 eax, DWORD PTR _d$[ebp]
  00009	50		 push	 eax
  0000a	ff 75 08	 push	 DWORD PTR _name$[ebp]
  0000d	e8 00 00 00 00	 call	 ?QueryDoubleAttribute@TiXmlElement@@QBEHPBDPAN@Z ; TiXmlElement::QueryDoubleAttribute

; 1002 : 		if ( result == TIXML_SUCCESS ) {

  00012	85 c0		 test	 eax, eax
  00014	75 08		 jne	 SHORT $LN2@QueryFloat

; 1003 : 			*_value = (float)d;

  00016	8b 4d 0c	 mov	 ecx, DWORD PTR __value$[ebp]
  00019	dd 45 f8	 fld	 QWORD PTR _d$[ebp]
  0001c	d9 19		 fstp	 DWORD PTR [ecx]
$LN2@QueryFloat:

; 1004 : 		}
; 1005 : 		return result;
; 1006 : 	}

  0001e	8b e5		 mov	 esp, ebp
  00020	5d		 pop	 ebp
  00021	c2 08 00	 ret	 8
?QueryFloatAttribute@TiXmlElement@@QBEHPBDPAM@Z ENDP	; TiXmlElement::QueryFloatAttribute
_TEXT	ENDS
; Function compile flags: /Ogtp
; File E:\Proyectos\JuegosOnlineproyectos\PB\pbblow\Piercing Blow Remake\i3Server\include\i3Base\tinyxml.h
;	COMDAT ?Find@TiXmlAttributeSet@@QAEPAVTiXmlAttribute@@PBD@Z
_TEXT	SEGMENT
__name$ = 8						; size = 4
?Find@TiXmlAttributeSet@@QAEPAVTiXmlAttribute@@PBD@Z PROC ; TiXmlAttributeSet::Find, COMDAT
; _this$ = ecx

; 922  : 	TiXmlAttribute*	Find( const char* _name ) {

  00000	55		 push	 ebp
  00001	8b ec		 mov	 ebp, esp

; 924  : 	}

  00003	5d		 pop	 ebp

; 923  : 		return const_cast< TiXmlAttribute* >( (const_cast< const TiXmlAttributeSet* >(this))->Find( _name ) );

  00004	e9 00 00 00 00	 jmp	 ?Find@TiXmlAttributeSet@@QBEPBVTiXmlAttribute@@PBD@Z ; TiXmlAttributeSet::Find
?Find@TiXmlAttributeSet@@QAEPAVTiXmlAttribute@@PBD@Z ENDP ; TiXmlAttributeSet::Find
_TEXT	ENDS
; Function compile flags: /Ogtp
; File E:\Proyectos\JuegosOnlineproyectos\PB\pbblow\Piercing Blow Remake\i3Server\include\i3Base\tinyxml.h
;	COMDAT ?Last@TiXmlAttributeSet@@QAEPAVTiXmlAttribute@@XZ
_TEXT	SEGMENT
?Last@TiXmlAttributeSet@@QAEPAVTiXmlAttribute@@XZ PROC	; TiXmlAttributeSet::Last, COMDAT
; _this$ = ecx

; 919  : 	TiXmlAttribute* Last()					{ return ( sentinel.prev == &sentinel ) ? 0 : sentinel.prev; }

  00000	8b 41 1c	 mov	 eax, DWORD PTR [ecx+28]
  00003	33 d2		 xor	 edx, edx
  00005	3b c1		 cmp	 eax, ecx
  00007	0f 44 c2	 cmove	 eax, edx
  0000a	c3		 ret	 0
?Last@TiXmlAttributeSet@@QAEPAVTiXmlAttribute@@XZ ENDP	; TiXmlAttributeSet::Last
_TEXT	ENDS
; Function compile flags: /Ogtp
; File E:\Proyectos\JuegosOnlineproyectos\PB\pbblow\Piercing Blow Remake\i3Server\include\i3Base\tinyxml.h
;	COMDAT ?Last@TiXmlAttributeSet@@QBEPBVTiXmlAttribute@@XZ
_TEXT	SEGMENT
?Last@TiXmlAttributeSet@@QBEPBVTiXmlAttribute@@XZ PROC	; TiXmlAttributeSet::Last, COMDAT
; _this$ = ecx

; 918  : 	const TiXmlAttribute* Last() const		{ return ( sentinel.prev == &sentinel ) ? 0 : sentinel.prev; }

  00000	8b 41 1c	 mov	 eax, DWORD PTR [ecx+28]
  00003	33 d2		 xor	 edx, edx
  00005	3b c1		 cmp	 eax, ecx
  00007	0f 44 c2	 cmove	 eax, edx
  0000a	c3		 ret	 0
?Last@TiXmlAttributeSet@@QBEPBVTiXmlAttribute@@XZ ENDP	; TiXmlAttributeSet::Last
_TEXT	ENDS
; Function compile flags: /Ogtp
; File E:\Proyectos\JuegosOnlineproyectos\PB\pbblow\Piercing Blow Remake\i3Server\include\i3Base\tinyxml.h
;	COMDAT ?First@TiXmlAttributeSet@@QAEPAVTiXmlAttribute@@XZ
_TEXT	SEGMENT
?First@TiXmlAttributeSet@@QAEPAVTiXmlAttribute@@XZ PROC	; TiXmlAttributeSet::First, COMDAT
; _this$ = ecx

; 917  : 	TiXmlAttribute* First()					{ return ( sentinel.next == &sentinel ) ? 0 : sentinel.next; }

  00000	8b 41 20	 mov	 eax, DWORD PTR [ecx+32]
  00003	33 d2		 xor	 edx, edx
  00005	3b c1		 cmp	 eax, ecx
  00007	0f 44 c2	 cmove	 eax, edx
  0000a	c3		 ret	 0
?First@TiXmlAttributeSet@@QAEPAVTiXmlAttribute@@XZ ENDP	; TiXmlAttributeSet::First
_TEXT	ENDS
; Function compile flags: /Ogtp
; File E:\Proyectos\JuegosOnlineproyectos\PB\pbblow\Piercing Blow Remake\i3Server\include\i3Base\tinyxml.h
;	COMDAT ?First@TiXmlAttributeSet@@QBEPBVTiXmlAttribute@@XZ
_TEXT	SEGMENT
?First@TiXmlAttributeSet@@QBEPBVTiXmlAttribute@@XZ PROC	; TiXmlAttributeSet::First, COMDAT
; _this$ = ecx

; 916  : 	const TiXmlAttribute* First()	const	{ return ( sentinel.next == &sentinel ) ? 0 : sentinel.next; }

  00000	8b 41 20	 mov	 eax, DWORD PTR [ecx+32]
  00003	33 d2		 xor	 edx, edx
  00005	3b c1		 cmp	 eax, ecx
  00007	0f 44 c2	 cmove	 eax, edx
  0000a	c3		 ret	 0
?First@TiXmlAttributeSet@@QBEPBVTiXmlAttribute@@XZ ENDP	; TiXmlAttributeSet::First
_TEXT	ENDS
; Function compile flags: /Ogtp
; File E:\Proyectos\JuegosOnlineproyectos\PB\pbblow\Piercing Blow Remake\i3Server\include\i3Base\tinystr.h
;	COMDAT ??_ETiXmlAttribute@@UAEPAXI@Z
_TEXT	SEGMENT
__$EHRec$ = -12						; size = 12
___flags$ = 8						; size = 4
??_ETiXmlAttribute@@UAEPAXI@Z PROC			; TiXmlAttribute::`vector deleting destructor', COMDAT
; _this$ = ecx
  00000	55		 push	 ebp
  00001	8b ec		 mov	 ebp, esp
  00003	6a ff		 push	 -1
  00005	68 00 00 00 00	 push	 __ehhandler$??_ETiXmlAttribute@@UAEPAXI@Z
  0000a	64 a1 00 00 00
	00		 mov	 eax, DWORD PTR fs:0
  00010	50		 push	 eax
  00011	53		 push	 ebx
  00012	56		 push	 esi
  00013	57		 push	 edi
  00014	a1 00 00 00 00	 mov	 eax, DWORD PTR ___security_cookie
  00019	33 c5		 xor	 eax, ebp
  0001b	50		 push	 eax
  0001c	8d 45 f4	 lea	 eax, DWORD PTR __$EHRec$[ebp]
  0001f	64 a3 00 00 00
	00		 mov	 DWORD PTR fs:0, eax
  00025	8b f1		 mov	 esi, ecx
  00027	8b 5d 08	 mov	 ebx, DWORD PTR ___flags$[ebp]
  0002a	f6 c3 02	 test	 bl, 2
  0002d	74 44		 je	 SHORT $LN2@vector
  0002f	68 00 00 00 00	 push	 OFFSET ??1TiXmlAttribute@@UAE@XZ
  00034	ff 76 fc	 push	 DWORD PTR [esi-4]
  00037	8d 7e fc	 lea	 edi, DWORD PTR [esi-4]
  0003a	6a 24		 push	 36			; 00000024H
  0003c	56		 push	 esi
  0003d	e8 00 00 00 00	 call	 ??_M@YGXPAXIIP6EX0@Z@Z
  00042	f6 c3 01	 test	 bl, 1
  00045	74 16		 je	 SHORT $LN3@vector
  00047	8b 0f		 mov	 ecx, DWORD PTR [edi]
  00049	8d 0c c9	 lea	 ecx, DWORD PTR [ecx+ecx*8]
  0004c	8d 0c 8d 04 00
	00 00		 lea	 ecx, DWORD PTR [ecx*4+4]
  00053	51		 push	 ecx
  00054	57		 push	 edi
  00055	e8 00 00 00 00	 call	 ??_V@YAXPAXI@Z		; operator delete[]
  0005a	83 c4 08	 add	 esp, 8
$LN3@vector:
  0005d	8b c7		 mov	 eax, edi
  0005f	8b 4d f4	 mov	 ecx, DWORD PTR __$EHRec$[ebp]
  00062	64 89 0d 00 00
	00 00		 mov	 DWORD PTR fs:0, ecx
  00069	59		 pop	 ecx
  0006a	5f		 pop	 edi
  0006b	5e		 pop	 esi
  0006c	5b		 pop	 ebx
  0006d	8b e5		 mov	 esp, ebp
  0006f	5d		 pop	 ebp
  00070	c2 04 00	 ret	 4
$LN2@vector:

; 257  : 		if (rep_ != &nullrep_)

  00073	8b 46 18	 mov	 eax, DWORD PTR [esi+24]
  00076	3d 00 00 00 00	 cmp	 eax, OFFSET ?nullrep_@TiXmlString@@0URep@1@A ; TiXmlString::nullrep_
  0007b	74 09		 je	 SHORT $LN16@vector

; 258  : 		{
; 259  : 			// The rep_ is really an array of ints. (see the allocator, above).
; 260  : 			// Cast it back before delete, so the compiler won't incorrectly call destructors.
; 261  : 			delete [] ( reinterpret_cast<int*>( rep_ ) );

  0007d	50		 push	 eax
  0007e	e8 00 00 00 00	 call	 ??_V@YAXPAX@Z		; operator delete[]
  00083	83 c4 04	 add	 esp, 4
$LN16@vector:

; 257  : 		if (rep_ != &nullrep_)

  00086	8b 46 14	 mov	 eax, DWORD PTR [esi+20]
  00089	3d 00 00 00 00	 cmp	 eax, OFFSET ?nullrep_@TiXmlString@@0URep@1@A ; TiXmlString::nullrep_
  0008e	74 09		 je	 SHORT $LN22@vector

; 258  : 		{
; 259  : 			// The rep_ is really an array of ints. (see the allocator, above).
; 260  : 			// Cast it back before delete, so the compiler won't incorrectly call destructors.
; 261  : 			delete [] ( reinterpret_cast<int*>( rep_ ) );

  00090	50		 push	 eax
  00091	e8 00 00 00 00	 call	 ??_V@YAXPAX@Z		; operator delete[]
  00096	83 c4 04	 add	 esp, 4
$LN22@vector:
  00099	c7 06 00 00 00
	00		 mov	 DWORD PTR [esi], OFFSET ??_7TiXmlBase@@6B@
  0009f	f6 c3 01	 test	 bl, 1
  000a2	74 0b		 je	 SHORT $LN4@vector
  000a4	6a 24		 push	 36			; 00000024H
  000a6	56		 push	 esi
  000a7	e8 00 00 00 00	 call	 ??3@YAXPAXI@Z		; operator delete
  000ac	83 c4 08	 add	 esp, 8
$LN4@vector:
  000af	8b c6		 mov	 eax, esi
  000b1	8b 4d f4	 mov	 ecx, DWORD PTR __$EHRec$[ebp]
  000b4	64 89 0d 00 00
	00 00		 mov	 DWORD PTR fs:0, ecx
  000bb	59		 pop	 ecx
  000bc	5f		 pop	 edi
  000bd	5e		 pop	 esi
  000be	5b		 pop	 ebx
  000bf	8b e5		 mov	 esp, ebp
  000c1	5d		 pop	 ebp
  000c2	c2 04 00	 ret	 4
  000c5	cc		 int	 3
  000c6	cc		 int	 3
  000c7	cc		 int	 3
  000c8	cc		 int	 3
  000c9	cc		 int	 3
_TEXT	ENDS
;	COMDAT text$x
text$x	SEGMENT
__ehhandler$??_ETiXmlAttribute@@UAEPAXI@Z:
  00000	90		 npad	 1
  00001	90		 npad	 1
  00002	8b 54 24 08	 mov	 edx, DWORD PTR [esp+8]
  00006	8d 42 0c	 lea	 eax, DWORD PTR [edx+12]
  00009	8b 4a f0	 mov	 ecx, DWORD PTR [edx-16]
  0000c	33 c8		 xor	 ecx, eax
  0000e	e8 00 00 00 00	 call	 @__security_check_cookie@4
  00013	b8 00 00 00 00	 mov	 eax, OFFSET __ehfuncinfo$??_ETiXmlAttribute@@UAEPAXI@Z
  00018	e9 00 00 00 00	 jmp	 ___CxxFrameHandler3
text$x	ENDS
??_ETiXmlAttribute@@UAEPAXI@Z ENDP			; TiXmlAttribute::`vector deleting destructor'
; Function compile flags: /Ogtp
; File E:\Proyectos\JuegosOnlineproyectos\PB\pbblow\Piercing Blow Remake\i3Server\include\i3Base\tinystr.h
;	COMDAT ??_GTiXmlAttribute@@UAEPAXI@Z
_TEXT	SEGMENT
___flags$ = 8						; size = 4
??_GTiXmlAttribute@@UAEPAXI@Z PROC			; TiXmlAttribute::`scalar deleting destructor', COMDAT
; _this$ = ecx
  00000	55		 push	 ebp
  00001	8b ec		 mov	 ebp, esp

; 257  : 		if (rep_ != &nullrep_)

  00003	56		 push	 esi
  00004	8b f1		 mov	 esi, ecx
  00006	8b 46 18	 mov	 eax, DWORD PTR [esi+24]
  00009	3d 00 00 00 00	 cmp	 eax, OFFSET ?nullrep_@TiXmlString@@0URep@1@A ; TiXmlString::nullrep_
  0000e	74 09		 je	 SHORT $LN14@scalar

; 258  : 		{
; 259  : 			// The rep_ is really an array of ints. (see the allocator, above).
; 260  : 			// Cast it back before delete, so the compiler won't incorrectly call destructors.
; 261  : 			delete [] ( reinterpret_cast<int*>( rep_ ) );

  00010	50		 push	 eax
  00011	e8 00 00 00 00	 call	 ??_V@YAXPAX@Z		; operator delete[]
  00016	83 c4 04	 add	 esp, 4
$LN14@scalar:

; 257  : 		if (rep_ != &nullrep_)

  00019	8b 46 14	 mov	 eax, DWORD PTR [esi+20]
  0001c	3d 00 00 00 00	 cmp	 eax, OFFSET ?nullrep_@TiXmlString@@0URep@1@A ; TiXmlString::nullrep_
  00021	74 09		 je	 SHORT $LN20@scalar

; 258  : 		{
; 259  : 			// The rep_ is really an array of ints. (see the allocator, above).
; 260  : 			// Cast it back before delete, so the compiler won't incorrectly call destructors.
; 261  : 			delete [] ( reinterpret_cast<int*>( rep_ ) );

  00023	50		 push	 eax
  00024	e8 00 00 00 00	 call	 ??_V@YAXPAX@Z		; operator delete[]
  00029	83 c4 04	 add	 esp, 4
$LN20@scalar:
  0002c	f6 45 08 01	 test	 BYTE PTR ___flags$[ebp], 1
  00030	c7 06 00 00 00
	00		 mov	 DWORD PTR [esi], OFFSET ??_7TiXmlBase@@6B@
  00036	74 0b		 je	 SHORT $LN22@scalar
  00038	6a 24		 push	 36			; 00000024H
  0003a	56		 push	 esi
  0003b	e8 00 00 00 00	 call	 ??3@YAXPAXI@Z		; operator delete
  00040	83 c4 08	 add	 esp, 8
$LN22@scalar:
  00043	8b c6		 mov	 eax, esi
  00045	5e		 pop	 esi
  00046	5d		 pop	 ebp
  00047	c2 04 00	 ret	 4
??_GTiXmlAttribute@@UAEPAXI@Z ENDP			; TiXmlAttribute::`scalar deleting destructor'
_TEXT	ENDS
; Function compile flags: /Ogtp
; File E:\Proyectos\JuegosOnlineproyectos\PB\pbblow\Piercing Blow Remake\i3Server\include\i3Base\tinystr.h
;	COMDAT ??1TiXmlAttribute@@UAE@XZ
_TEXT	SEGMENT
??1TiXmlAttribute@@UAE@XZ PROC				; TiXmlAttribute::~TiXmlAttribute, COMDAT
; _this$ = ecx

; 257  : 		if (rep_ != &nullrep_)

  00000	56		 push	 esi
  00001	8b f1		 mov	 esi, ecx
  00003	8b 46 18	 mov	 eax, DWORD PTR [esi+24]
  00006	3d 00 00 00 00	 cmp	 eax, OFFSET ?nullrep_@TiXmlString@@0URep@1@A ; TiXmlString::nullrep_
  0000b	74 09		 je	 SHORT $LN8@TiXmlAttri

; 258  : 		{
; 259  : 			// The rep_ is really an array of ints. (see the allocator, above).
; 260  : 			// Cast it back before delete, so the compiler won't incorrectly call destructors.
; 261  : 			delete [] ( reinterpret_cast<int*>( rep_ ) );

  0000d	50		 push	 eax
  0000e	e8 00 00 00 00	 call	 ??_V@YAXPAX@Z		; operator delete[]
  00013	83 c4 04	 add	 esp, 4
$LN8@TiXmlAttri:

; 257  : 		if (rep_ != &nullrep_)

  00016	8b 46 14	 mov	 eax, DWORD PTR [esi+20]
  00019	3d 00 00 00 00	 cmp	 eax, OFFSET ?nullrep_@TiXmlString@@0URep@1@A ; TiXmlString::nullrep_
  0001e	74 09		 je	 SHORT $LN16@TiXmlAttri

; 258  : 		{
; 259  : 			// The rep_ is really an array of ints. (see the allocator, above).
; 260  : 			// Cast it back before delete, so the compiler won't incorrectly call destructors.
; 261  : 			delete [] ( reinterpret_cast<int*>( rep_ ) );

  00020	50		 push	 eax
  00021	e8 00 00 00 00	 call	 ??_V@YAXPAX@Z		; operator delete[]
  00026	83 c4 04	 add	 esp, 4
$LN16@TiXmlAttri:
  00029	c7 06 00 00 00
	00		 mov	 DWORD PTR [esi], OFFSET ??_7TiXmlBase@@6B@
  0002f	5e		 pop	 esi
  00030	c3		 ret	 0
??1TiXmlAttribute@@UAE@XZ ENDP				; TiXmlAttribute::~TiXmlAttribute
_TEXT	ENDS
; Function compile flags: /Ogtp
; File E:\Proyectos\JuegosOnlineproyectos\PB\pbblow\Piercing Blow Remake\i3Server\include\i3Base\tinyxml.h
;	COMDAT ?SetDocument@TiXmlAttribute@@QAEXPAVTiXmlDocument@@@Z
_TEXT	SEGMENT
_doc$ = 8						; size = 4
?SetDocument@TiXmlAttribute@@QAEXPAVTiXmlDocument@@@Z PROC ; TiXmlAttribute::SetDocument, COMDAT
; _this$ = ecx

; 881  : 	void SetDocument( TiXmlDocument* doc )	{ document = doc; }

  00000	55		 push	 ebp
  00001	8b ec		 mov	 ebp, esp
  00003	8b 45 08	 mov	 eax, DWORD PTR _doc$[ebp]
  00006	89 41 10	 mov	 DWORD PTR [ecx+16], eax
  00009	5d		 pop	 ebp
  0000a	c2 04 00	 ret	 4
?SetDocument@TiXmlAttribute@@QAEXPAVTiXmlDocument@@@Z ENDP ; TiXmlAttribute::SetDocument
_TEXT	ENDS
; Function compile flags: /Ogtp
; File E:\Proyectos\JuegosOnlineproyectos\PB\pbblow\Piercing Blow Remake\i3Server\include\i3Base\tinyxml.h
;	COMDAT ?Print@TiXmlAttribute@@UBEXPAVi3FileStream@@H@Z
_TEXT	SEGMENT
_cfile$ = 8						; size = 4
_depth$ = 12						; size = 4
?Print@TiXmlAttribute@@UBEXPAVi3FileStream@@H@Z PROC	; TiXmlAttribute::Print, COMDAT
; _this$ = ecx

; 874  : 	virtual void Print( i3FileStream* cfile, int depth ) const {

  00000	55		 push	 ebp
  00001	8b ec		 mov	 ebp, esp

; 875  : 		Print( cfile, depth, 0 );

  00003	6a 00		 push	 0
  00005	ff 75 0c	 push	 DWORD PTR _depth$[ebp]
  00008	ff 75 08	 push	 DWORD PTR _cfile$[ebp]
  0000b	e8 00 00 00 00	 call	 ?Print@TiXmlAttribute@@QBEXPAVi3FileStream@@HPAVTiXmlString@@@Z ; TiXmlAttribute::Print

; 876  : 	}

  00010	5d		 pop	 ebp
  00011	c2 08 00	 ret	 8
?Print@TiXmlAttribute@@UBEXPAVi3FileStream@@H@Z ENDP	; TiXmlAttribute::Print
_TEXT	ENDS
; Function compile flags: /Ogtp
; File E:\Proyectos\JuegosOnlineproyectos\PB\pbblow\Piercing Blow Remake\i3Server\include\i3Base\tinyxml.h
; File E:\Proyectos\JuegosOnlineproyectos\PB\pbblow\Piercing Blow Remake\i3Server\include\i3Base\tinystr.h
; File E:\Proyectos\JuegosOnlineproyectos\PB\pbblow\Piercing Blow Remake\i3Server\include\i3Base\tinyxml.h
; File E:\Proyectos\JuegosOnlineproyectos\PB\pbblow\Piercing Blow Remake\i3Server\include\i3Base\tinystr.h
; File E:\Proyectos\JuegosOnlineproyectos\PB\pbblow\Piercing Blow Remake\i3Server\include\i3Base\tinyxml.h
;	COMDAT ??OTiXmlAttribute@@QBE_NABV0@@Z
_TEXT	SEGMENT
_rhs$ = 8						; size = 4
??OTiXmlAttribute@@QBE_NABV0@@Z PROC			; TiXmlAttribute::operator>, COMDAT
; _this$ = ecx

; 866  : 	bool operator>( const TiXmlAttribute& rhs )  const { return name > rhs.name; }

  00000	55		 push	 ebp
  00001	8b ec		 mov	 ebp, esp
; File E:\Proyectos\JuegosOnlineproyectos\PB\pbblow\Piercing Blow Remake\i3Server\include\i3Base\tinystr.h

; 144  : 	const char * c_str () const { return rep_->str; }

  00003	8b 41 14	 mov	 eax, DWORD PTR [ecx+20]
  00006	8b 4d 08	 mov	 ecx, DWORD PTR _rhs$[ebp]
  00009	83 c0 08	 add	 eax, 8
  0000c	8b 49 14	 mov	 ecx, DWORD PTR [ecx+20]
  0000f	83 c1 08	 add	 ecx, 8
$LL11@operator:

; 278  : 	return strcmp(a.c_str(), b.c_str()) < 0;

  00012	8a 11		 mov	 dl, BYTE PTR [ecx]
  00014	3a 10		 cmp	 dl, BYTE PTR [eax]
  00016	75 1f		 jne	 SHORT $LN12@operator
  00018	84 d2		 test	 dl, dl
  0001a	74 12		 je	 SHORT $LN13@operator
  0001c	8a 51 01	 mov	 dl, BYTE PTR [ecx+1]
  0001f	3a 50 01	 cmp	 dl, BYTE PTR [eax+1]
  00022	75 13		 jne	 SHORT $LN12@operator
  00024	83 c1 02	 add	 ecx, 2
  00027	83 c0 02	 add	 eax, 2
  0002a	84 d2		 test	 dl, dl
  0002c	75 e4		 jne	 SHORT $LL11@operator
$LN13@operator:
  0002e	b8 00 00 00 00	 mov	 eax, 0
; File E:\Proyectos\JuegosOnlineproyectos\PB\pbblow\Piercing Blow Remake\i3Server\include\i3Base\tinyxml.h

; 866  : 	bool operator>( const TiXmlAttribute& rhs )  const { return name > rhs.name; }

  00033	5d		 pop	 ebp
  00034	c2 04 00	 ret	 4
$LN12@operator:
; File E:\Proyectos\JuegosOnlineproyectos\PB\pbblow\Piercing Blow Remake\i3Server\include\i3Base\tinystr.h

; 278  : 	return strcmp(a.c_str(), b.c_str()) < 0;

  00037	1b c0		 sbb	 eax, eax
  00039	83 c8 01	 or	 eax, 1
  0003c	c1 e8 1f	 shr	 eax, 31			; 0000001fH
; File E:\Proyectos\JuegosOnlineproyectos\PB\pbblow\Piercing Blow Remake\i3Server\include\i3Base\tinyxml.h

; 866  : 	bool operator>( const TiXmlAttribute& rhs )  const { return name > rhs.name; }

  0003f	5d		 pop	 ebp
  00040	c2 04 00	 ret	 4
??OTiXmlAttribute@@QBE_NABV0@@Z ENDP			; TiXmlAttribute::operator>
_TEXT	ENDS
; Function compile flags: /Ogtp
; File E:\Proyectos\JuegosOnlineproyectos\PB\pbblow\Piercing Blow Remake\i3Server\include\i3Base\tinyxml.h
; File E:\Proyectos\JuegosOnlineproyectos\PB\pbblow\Piercing Blow Remake\i3Server\include\i3Base\tinystr.h
; File E:\Proyectos\JuegosOnlineproyectos\PB\pbblow\Piercing Blow Remake\i3Server\include\i3Base\tinyxml.h
; File E:\Proyectos\JuegosOnlineproyectos\PB\pbblow\Piercing Blow Remake\i3Server\include\i3Base\tinystr.h
; File E:\Proyectos\JuegosOnlineproyectos\PB\pbblow\Piercing Blow Remake\i3Server\include\i3Base\tinyxml.h
;	COMDAT ??MTiXmlAttribute@@QBE_NABV0@@Z
_TEXT	SEGMENT
_rhs$ = 8						; size = 4
??MTiXmlAttribute@@QBE_NABV0@@Z PROC			; TiXmlAttribute::operator<, COMDAT
; _this$ = ecx

; 865  : 	bool operator<( const TiXmlAttribute& rhs )	 const { return name < rhs.name; }

  00000	55		 push	 ebp
  00001	8b ec		 mov	 ebp, esp
; File E:\Proyectos\JuegosOnlineproyectos\PB\pbblow\Piercing Blow Remake\i3Server\include\i3Base\tinystr.h

; 144  : 	const char * c_str () const { return rep_->str; }

  00003	8b 45 08	 mov	 eax, DWORD PTR _rhs$[ebp]
  00006	8b 49 14	 mov	 ecx, DWORD PTR [ecx+20]
  00009	8b 40 14	 mov	 eax, DWORD PTR [eax+20]
  0000c	83 c0 08	 add	 eax, 8
  0000f	83 c1 08	 add	 ecx, 8
$LL9@operator:

; 278  : 	return strcmp(a.c_str(), b.c_str()) < 0;

  00012	8a 11		 mov	 dl, BYTE PTR [ecx]
  00014	3a 10		 cmp	 dl, BYTE PTR [eax]
  00016	75 1f		 jne	 SHORT $LN10@operator
  00018	84 d2		 test	 dl, dl
  0001a	74 12		 je	 SHORT $LN11@operator
  0001c	8a 51 01	 mov	 dl, BYTE PTR [ecx+1]
  0001f	3a 50 01	 cmp	 dl, BYTE PTR [eax+1]
  00022	75 13		 jne	 SHORT $LN10@operator
  00024	83 c1 02	 add	 ecx, 2
  00027	83 c0 02	 add	 eax, 2
  0002a	84 d2		 test	 dl, dl
  0002c	75 e4		 jne	 SHORT $LL9@operator
$LN11@operator:
  0002e	b8 00 00 00 00	 mov	 eax, 0
; File E:\Proyectos\JuegosOnlineproyectos\PB\pbblow\Piercing Blow Remake\i3Server\include\i3Base\tinyxml.h

; 865  : 	bool operator<( const TiXmlAttribute& rhs )	 const { return name < rhs.name; }

  00033	5d		 pop	 ebp
  00034	c2 04 00	 ret	 4
$LN10@operator:
; File E:\Proyectos\JuegosOnlineproyectos\PB\pbblow\Piercing Blow Remake\i3Server\include\i3Base\tinystr.h

; 278  : 	return strcmp(a.c_str(), b.c_str()) < 0;

  00037	1b c0		 sbb	 eax, eax
  00039	83 c8 01	 or	 eax, 1
  0003c	c1 e8 1f	 shr	 eax, 31			; 0000001fH
; File E:\Proyectos\JuegosOnlineproyectos\PB\pbblow\Piercing Blow Remake\i3Server\include\i3Base\tinyxml.h

; 865  : 	bool operator<( const TiXmlAttribute& rhs )	 const { return name < rhs.name; }

  0003f	5d		 pop	 ebp
  00040	c2 04 00	 ret	 4
??MTiXmlAttribute@@QBE_NABV0@@Z ENDP			; TiXmlAttribute::operator<
_TEXT	ENDS
; Function compile flags: /Ogtp
; File E:\Proyectos\JuegosOnlineproyectos\PB\pbblow\Piercing Blow Remake\i3Server\include\i3Base\tinyxml.h
; File E:\Proyectos\JuegosOnlineproyectos\PB\pbblow\Piercing Blow Remake\i3Server\include\i3Base\tinystr.h
; File E:\Proyectos\JuegosOnlineproyectos\PB\pbblow\Piercing Blow Remake\i3Server\include\i3Base\tinyxml.h
; File E:\Proyectos\JuegosOnlineproyectos\PB\pbblow\Piercing Blow Remake\i3Server\include\i3Base\tinystr.h
; File E:\Proyectos\JuegosOnlineproyectos\PB\pbblow\Piercing Blow Remake\i3Server\include\i3Base\tinyxml.h
;	COMDAT ??8TiXmlAttribute@@QBE_NABV0@@Z
_TEXT	SEGMENT
_rhs$ = 8						; size = 4
??8TiXmlAttribute@@QBE_NABV0@@Z PROC			; TiXmlAttribute::operator==, COMDAT
; _this$ = ecx

; 864  : 	bool operator==( const TiXmlAttribute& rhs ) const { return rhs.name == name; }

  00000	55		 push	 ebp
  00001	8b ec		 mov	 ebp, esp
; File E:\Proyectos\JuegosOnlineproyectos\PB\pbblow\Piercing Blow Remake\i3Server\include\i3Base\tinystr.h

; 150  : 	size_type length () const { return rep_->size; }

  00003	8b 45 08	 mov	 eax, DWORD PTR _rhs$[ebp]
  00006	8b 49 14	 mov	 ecx, DWORD PTR [ecx+20]
  00009	8b 50 14	 mov	 edx, DWORD PTR [eax+20]

; 273  : 	return    ( a.length() == b.length() )				// optimization on some platforms

  0000c	8b 02		 mov	 eax, DWORD PTR [edx]
  0000e	3b 01		 cmp	 eax, DWORD PTR [ecx]
  00010	75 35		 jne	 SHORT $LN5@operator

; 144  : 	const char * c_str () const { return rep_->str; }

  00012	83 c1 08	 add	 ecx, 8
  00015	8d 42 08	 lea	 eax, DWORD PTR [edx+8]
$LL15@operator:

; 273  : 	return    ( a.length() == b.length() )				// optimization on some platforms

  00018	8a 10		 mov	 dl, BYTE PTR [eax]
  0001a	3a 11		 cmp	 dl, BYTE PTR [ecx]
  0001c	75 1a		 jne	 SHORT $LN16@operator
  0001e	84 d2		 test	 dl, dl
  00020	74 12		 je	 SHORT $LN17@operator
  00022	8a 50 01	 mov	 dl, BYTE PTR [eax+1]
  00025	3a 51 01	 cmp	 dl, BYTE PTR [ecx+1]
  00028	75 0e		 jne	 SHORT $LN16@operator
  0002a	83 c0 02	 add	 eax, 2
  0002d	83 c1 02	 add	 ecx, 2
  00030	84 d2		 test	 dl, dl
  00032	75 e4		 jne	 SHORT $LL15@operator
$LN17@operator:
  00034	33 c0		 xor	 eax, eax
  00036	eb 05		 jmp	 SHORT $LN18@operator
$LN16@operator:
  00038	1b c0		 sbb	 eax, eax
  0003a	83 c8 01	 or	 eax, 1
$LN18@operator:
  0003d	85 c0		 test	 eax, eax
  0003f	75 06		 jne	 SHORT $LN5@operator
  00041	b0 01		 mov	 al, 1
; File E:\Proyectos\JuegosOnlineproyectos\PB\pbblow\Piercing Blow Remake\i3Server\include\i3Base\tinyxml.h

; 864  : 	bool operator==( const TiXmlAttribute& rhs ) const { return rhs.name == name; }

  00043	5d		 pop	 ebp
  00044	c2 04 00	 ret	 4
$LN5@operator:
; File E:\Proyectos\JuegosOnlineproyectos\PB\pbblow\Piercing Blow Remake\i3Server\include\i3Base\tinystr.h

; 273  : 	return    ( a.length() == b.length() )				// optimization on some platforms

  00047	32 c0		 xor	 al, al
; File E:\Proyectos\JuegosOnlineproyectos\PB\pbblow\Piercing Blow Remake\i3Server\include\i3Base\tinyxml.h

; 864  : 	bool operator==( const TiXmlAttribute& rhs ) const { return rhs.name == name; }

  00049	5d		 pop	 ebp
  0004a	c2 04 00	 ret	 4
??8TiXmlAttribute@@QBE_NABV0@@Z ENDP			; TiXmlAttribute::operator==
_TEXT	ENDS
; Function compile flags: /Ogtp
; File E:\Proyectos\JuegosOnlineproyectos\PB\pbblow\Piercing Blow Remake\i3Server\include\i3Base\tinyxml.h
;	COMDAT ?Previous@TiXmlAttribute@@QAEPAV1@XZ
_TEXT	SEGMENT
?Previous@TiXmlAttribute@@QAEPAV1@XZ PROC		; TiXmlAttribute::Previous, COMDAT
; _this$ = ecx

; 861  : 		return const_cast< TiXmlAttribute* >( (const_cast< const TiXmlAttribute* >(this))->Previous() ); 

  00000	e9 00 00 00 00	 jmp	 ?Previous@TiXmlAttribute@@QBEPBV1@XZ ; TiXmlAttribute::Previous
?Previous@TiXmlAttribute@@QAEPAV1@XZ ENDP		; TiXmlAttribute::Previous
_TEXT	ENDS
; Function compile flags: /Ogtp
; File E:\Proyectos\JuegosOnlineproyectos\PB\pbblow\Piercing Blow Remake\i3Server\include\i3Base\tinyxml.h
;	COMDAT ?Next@TiXmlAttribute@@QAEPAV1@XZ
_TEXT	SEGMENT
?Next@TiXmlAttribute@@QAEPAV1@XZ PROC			; TiXmlAttribute::Next, COMDAT
; _this$ = ecx

; 855  : 		return const_cast< TiXmlAttribute* >( (const_cast< const TiXmlAttribute* >(this))->Next() ); 

  00000	e9 00 00 00 00	 jmp	 ?Next@TiXmlAttribute@@QBEPBV1@XZ ; TiXmlAttribute::Next
?Next@TiXmlAttribute@@QAEPAV1@XZ ENDP			; TiXmlAttribute::Next
_TEXT	ENDS
; Function compile flags: /Ogtp
; File E:\Proyectos\JuegosOnlineproyectos\PB\pbblow\Piercing Blow Remake\i3Server\include\i3Base\tinyxml.h
; File E:\Proyectos\JuegosOnlineproyectos\PB\pbblow\Piercing Blow Remake\i3Server\include\i3Base\tinystr.h
; File E:\Proyectos\JuegosOnlineproyectos\PB\pbblow\Piercing Blow Remake\i3Server\include\i3Base\tinyxml.h
; File E:\Proyectos\JuegosOnlineproyectos\PB\pbblow\Piercing Blow Remake\i3Server\include\i3Base\tinystr.h
; File E:\Proyectos\JuegosOnlineproyectos\PB\pbblow\Piercing Blow Remake\i3Server\include\i3Base\tinyxml.h
; File E:\Proyectos\JuegosOnlineproyectos\PB\pbblow\Piercing Blow Remake\i3Server\include\i3Base\tinystr.h
; File E:\Proyectos\JuegosOnlineproyectos\PB\pbblow\Piercing Blow Remake\i3Server\include\i3Base\tinyxml.h
;	COMDAT ?SetValue@TiXmlAttribute@@QAEXPBD@Z
_TEXT	SEGMENT
__value$ = 8						; size = 4
?SetValue@TiXmlAttribute@@QAEXPBD@Z PROC		; TiXmlAttribute::SetValue, COMDAT
; _this$ = ecx

; 840  : 	void SetValue( const char* _value )	{ value = _value; }				///< Set the value.

  00000	55		 push	 ebp
  00001	8b ec		 mov	 ebp, esp
; File E:\Proyectos\JuegosOnlineproyectos\PB\pbblow\Piercing Blow Remake\i3Server\include\i3Base\tinystr.h

; 114  : 		return assign( copy, (size_type)strlen(copy));

  00003	8b 55 08	 mov	 edx, DWORD PTR __value$[ebp]
  00006	8b c2		 mov	 eax, edx
; File E:\Proyectos\JuegosOnlineproyectos\PB\pbblow\Piercing Blow Remake\i3Server\include\i3Base\tinyxml.h

; 840  : 	void SetValue( const char* _value )	{ value = _value; }				///< Set the value.

  00008	56		 push	 esi
  00009	57		 push	 edi
  0000a	8b f1		 mov	 esi, ecx
; File E:\Proyectos\JuegosOnlineproyectos\PB\pbblow\Piercing Blow Remake\i3Server\include\i3Base\tinystr.h

; 114  : 		return assign( copy, (size_type)strlen(copy));

  0000c	8d 78 01	 lea	 edi, DWORD PTR [eax+1]
  0000f	90		 npad	 1
$LL5@SetValue:
  00010	8a 08		 mov	 cl, BYTE PTR [eax]
  00012	40		 inc	 eax
  00013	84 c9		 test	 cl, cl
  00015	75 f9		 jne	 SHORT $LL5@SetValue
  00017	2b c7		 sub	 eax, edi
; File E:\Proyectos\JuegosOnlineproyectos\PB\pbblow\Piercing Blow Remake\i3Server\include\i3Base\tinyxml.h

; 840  : 	void SetValue( const char* _value )	{ value = _value; }				///< Set the value.

  00019	8d 4e 18	 lea	 ecx, DWORD PTR [esi+24]
; File E:\Proyectos\JuegosOnlineproyectos\PB\pbblow\Piercing Blow Remake\i3Server\include\i3Base\tinystr.h

; 114  : 		return assign( copy, (size_type)strlen(copy));

  0001c	50		 push	 eax
  0001d	52		 push	 edx
  0001e	e8 00 00 00 00	 call	 ?assign@TiXmlString@@QAEAAV1@PBDI@Z ; TiXmlString::assign
  00023	5f		 pop	 edi
  00024	5e		 pop	 esi
; File E:\Proyectos\JuegosOnlineproyectos\PB\pbblow\Piercing Blow Remake\i3Server\include\i3Base\tinyxml.h

; 840  : 	void SetValue( const char* _value )	{ value = _value; }				///< Set the value.

  00025	5d		 pop	 ebp
  00026	c2 04 00	 ret	 4
?SetValue@TiXmlAttribute@@QAEXPBD@Z ENDP		; TiXmlAttribute::SetValue
_TEXT	ENDS
; Function compile flags: /Ogtp
; File E:\Proyectos\JuegosOnlineproyectos\PB\pbblow\Piercing Blow Remake\i3Server\include\i3Base\tinyxml.h
; File E:\Proyectos\JuegosOnlineproyectos\PB\pbblow\Piercing Blow Remake\i3Server\include\i3Base\tinystr.h
; File E:\Proyectos\JuegosOnlineproyectos\PB\pbblow\Piercing Blow Remake\i3Server\include\i3Base\tinyxml.h
; File E:\Proyectos\JuegosOnlineproyectos\PB\pbblow\Piercing Blow Remake\i3Server\include\i3Base\tinystr.h
; File E:\Proyectos\JuegosOnlineproyectos\PB\pbblow\Piercing Blow Remake\i3Server\include\i3Base\tinyxml.h
; File E:\Proyectos\JuegosOnlineproyectos\PB\pbblow\Piercing Blow Remake\i3Server\include\i3Base\tinystr.h
; File E:\Proyectos\JuegosOnlineproyectos\PB\pbblow\Piercing Blow Remake\i3Server\include\i3Base\tinyxml.h
;	COMDAT ?SetName@TiXmlAttribute@@QAEXPBD@Z
_TEXT	SEGMENT
__name$ = 8						; size = 4
?SetName@TiXmlAttribute@@QAEXPBD@Z PROC			; TiXmlAttribute::SetName, COMDAT
; _this$ = ecx

; 839  : 	void SetName( const char* _name )	{ name = _name; }				///< Set the name of this attribute.

  00000	55		 push	 ebp
  00001	8b ec		 mov	 ebp, esp
; File E:\Proyectos\JuegosOnlineproyectos\PB\pbblow\Piercing Blow Remake\i3Server\include\i3Base\tinystr.h

; 114  : 		return assign( copy, (size_type)strlen(copy));

  00003	8b 55 08	 mov	 edx, DWORD PTR __name$[ebp]
  00006	8b c2		 mov	 eax, edx
; File E:\Proyectos\JuegosOnlineproyectos\PB\pbblow\Piercing Blow Remake\i3Server\include\i3Base\tinyxml.h

; 839  : 	void SetName( const char* _name )	{ name = _name; }				///< Set the name of this attribute.

  00008	56		 push	 esi
  00009	57		 push	 edi
  0000a	8b f1		 mov	 esi, ecx
; File E:\Proyectos\JuegosOnlineproyectos\PB\pbblow\Piercing Blow Remake\i3Server\include\i3Base\tinystr.h

; 114  : 		return assign( copy, (size_type)strlen(copy));

  0000c	8d 78 01	 lea	 edi, DWORD PTR [eax+1]
  0000f	90		 npad	 1
$LL5@SetName:
  00010	8a 08		 mov	 cl, BYTE PTR [eax]
  00012	40		 inc	 eax
  00013	84 c9		 test	 cl, cl
  00015	75 f9		 jne	 SHORT $LL5@SetName
  00017	2b c7		 sub	 eax, edi
; File E:\Proyectos\JuegosOnlineproyectos\PB\pbblow\Piercing Blow Remake\i3Server\include\i3Base\tinyxml.h

; 839  : 	void SetName( const char* _name )	{ name = _name; }				///< Set the name of this attribute.

  00019	8d 4e 14	 lea	 ecx, DWORD PTR [esi+20]
; File E:\Proyectos\JuegosOnlineproyectos\PB\pbblow\Piercing Blow Remake\i3Server\include\i3Base\tinystr.h

; 114  : 		return assign( copy, (size_type)strlen(copy));

  0001c	50		 push	 eax
  0001d	52		 push	 edx
  0001e	e8 00 00 00 00	 call	 ?assign@TiXmlString@@QAEAAV1@PBDI@Z ; TiXmlString::assign
  00023	5f		 pop	 edi
  00024	5e		 pop	 esi
; File E:\Proyectos\JuegosOnlineproyectos\PB\pbblow\Piercing Blow Remake\i3Server\include\i3Base\tinyxml.h

; 839  : 	void SetName( const char* _name )	{ name = _name; }				///< Set the name of this attribute.

  00025	5d		 pop	 ebp
  00026	c2 04 00	 ret	 4
?SetName@TiXmlAttribute@@QAEXPBD@Z ENDP			; TiXmlAttribute::SetName
_TEXT	ENDS
; Function compile flags: /Ogtp
; File E:\Proyectos\JuegosOnlineproyectos\PB\pbblow\Piercing Blow Remake\i3Server\include\i3Base\tinyxml.h
;	COMDAT ?NameTStr@TiXmlAttribute@@QBEABVTiXmlString@@XZ
_TEXT	SEGMENT
?NameTStr@TiXmlAttribute@@QBEABVTiXmlString@@XZ PROC	; TiXmlAttribute::NameTStr, COMDAT
; _this$ = ecx

; 824  : 	const TIXML_STRING& NameTStr() const { return name; }

  00000	8d 41 14	 lea	 eax, DWORD PTR [ecx+20]
  00003	c3		 ret	 0
?NameTStr@TiXmlAttribute@@QBEABVTiXmlString@@XZ ENDP	; TiXmlAttribute::NameTStr
_TEXT	ENDS
; Function compile flags: /Ogtp
; File E:\Proyectos\JuegosOnlineproyectos\PB\pbblow\Piercing Blow Remake\i3Server\include\i3Base\tinyxml.h
; File E:\Proyectos\JuegosOnlineproyectos\PB\pbblow\Piercing Blow Remake\i3Server\include\i3Base\tinystr.h
; File E:\Proyectos\JuegosOnlineproyectos\PB\pbblow\Piercing Blow Remake\i3Server\include\i3Base\tinyxml.h
;	COMDAT ?Value@TiXmlAttribute@@QBEPBDXZ
_TEXT	SEGMENT
?Value@TiXmlAttribute@@QBEPBDXZ PROC			; TiXmlAttribute::Value, COMDAT
; _this$ = ecx
; File E:\Proyectos\JuegosOnlineproyectos\PB\pbblow\Piercing Blow Remake\i3Server\include\i3Base\tinystr.h

; 144  : 	const char * c_str () const { return rep_->str; }

  00000	8b 41 18	 mov	 eax, DWORD PTR [ecx+24]
  00003	83 c0 08	 add	 eax, 8
; File E:\Proyectos\JuegosOnlineproyectos\PB\pbblow\Piercing Blow Remake\i3Server\include\i3Base\tinyxml.h

; 816  : 	const char*		Value() const		{ return value.c_str(); }		///< Return the value of this attribute.

  00006	c3		 ret	 0
?Value@TiXmlAttribute@@QBEPBDXZ ENDP			; TiXmlAttribute::Value
_TEXT	ENDS
; Function compile flags: /Ogtp
; File E:\Proyectos\JuegosOnlineproyectos\PB\pbblow\Piercing Blow Remake\i3Server\include\i3Base\tinyxml.h
; File E:\Proyectos\JuegosOnlineproyectos\PB\pbblow\Piercing Blow Remake\i3Server\include\i3Base\tinystr.h
; File E:\Proyectos\JuegosOnlineproyectos\PB\pbblow\Piercing Blow Remake\i3Server\include\i3Base\tinyxml.h
;	COMDAT ?Name@TiXmlAttribute@@QBEPBDXZ
_TEXT	SEGMENT
?Name@TiXmlAttribute@@QBEPBDXZ PROC			; TiXmlAttribute::Name, COMDAT
; _this$ = ecx
; File E:\Proyectos\JuegosOnlineproyectos\PB\pbblow\Piercing Blow Remake\i3Server\include\i3Base\tinystr.h

; 144  : 	const char * c_str () const { return rep_->str; }

  00000	8b 41 14	 mov	 eax, DWORD PTR [ecx+20]
  00003	83 c0 08	 add	 eax, 8
; File E:\Proyectos\JuegosOnlineproyectos\PB\pbblow\Piercing Blow Remake\i3Server\include\i3Base\tinyxml.h

; 815  : 	const char*		Name()  const		{ return name.c_str(); }		///< Return the name of this attribute.

  00006	c3		 ret	 0
?Name@TiXmlAttribute@@QBEPBDXZ ENDP			; TiXmlAttribute::Name
_TEXT	ENDS
; Function compile flags: /Ogtp
; File E:\Proyectos\JuegosOnlineproyectos\PB\pbblow\Piercing Blow Remake\i3Server\include\i3Base\tinyxml.h
; File E:\Proyectos\JuegosOnlineproyectos\PB\pbblow\Piercing Blow Remake\i3Server\include\i3Base\tinystr.h
; File E:\Proyectos\JuegosOnlineproyectos\PB\pbblow\Piercing Blow Remake\i3Server\include\i3Base\tinyxml.h
; File E:\Proyectos\JuegosOnlineproyectos\PB\pbblow\Piercing Blow Remake\i3Server\include\i3Base\tinystr.h
; File E:\Proyectos\JuegosOnlineproyectos\PB\pbblow\Piercing Blow Remake\i3Server\include\i3Base\tinyxml.h
;	COMDAT ??0TiXmlAttribute@@QAE@PBD0@Z
_TEXT	SEGMENT
_this$ = -16						; size = 4
__$EHRec$ = -12						; size = 12
__name$ = 8						; size = 4
tv85 = 8						; size = 4
__value$ = 12						; size = 4
??0TiXmlAttribute@@QAE@PBD0@Z PROC			; TiXmlAttribute::TiXmlAttribute, COMDAT
; _this$ = ecx

; 807  : 	TiXmlAttribute( const char * _name, const char * _value )

  00000	55		 push	 ebp
  00001	8b ec		 mov	 ebp, esp
  00003	6a ff		 push	 -1
  00005	68 00 00 00 00	 push	 __ehhandler$??0TiXmlAttribute@@QAE@PBD0@Z
  0000a	64 a1 00 00 00
	00		 mov	 eax, DWORD PTR fs:0
  00010	50		 push	 eax
  00011	51		 push	 ecx
  00012	53		 push	 ebx
  00013	56		 push	 esi
  00014	57		 push	 edi
  00015	a1 00 00 00 00	 mov	 eax, DWORD PTR ___security_cookie
  0001a	33 c5		 xor	 eax, ebp
  0001c	50		 push	 eax
  0001d	8d 45 f4	 lea	 eax, DWORD PTR __$EHRec$[ebp]
  00020	64 a3 00 00 00
	00		 mov	 DWORD PTR fs:0, eax
  00026	8b f1		 mov	 esi, ecx
  00028	89 75 f0	 mov	 DWORD PTR _this$[ebp], esi

; 107  : 	void Clear()		{ row = col = -1; }

  0002b	c7 46 08 ff ff
	ff ff		 mov	 DWORD PTR [esi+8], -1
  00032	c7 46 04 ff ff
	ff ff		 mov	 DWORD PTR [esi+4], -1

; 205  : 	TiXmlBase()	:	userData(0)		{}

  00039	c7 46 0c 00 00
	00 00		 mov	 DWORD PTR [esi+12], 0

; 808  : 	{

  00040	8d 4e 14	 lea	 ecx, DWORD PTR [esi+20]
  00043	c7 06 00 00 00
	00		 mov	 DWORD PTR [esi], OFFSET ??_7TiXmlAttribute@@6B@
  00049	c7 45 fc 00 00
	00 00		 mov	 DWORD PTR __$EHRec$[ebp+8], 0
; File E:\Proyectos\JuegosOnlineproyectos\PB\pbblow\Piercing Blow Remake\i3Server\include\i3Base\tinystr.h

; 80   : 	TiXmlString () : rep_(&nullrep_)

  00050	c7 01 00 00 00
	00		 mov	 DWORD PTR [ecx], OFFSET ?nullrep_@TiXmlString@@0URep@1@A ; TiXmlString::nullrep_
  00056	c7 46 18 00 00
	00 00		 mov	 DWORD PTR [esi+24], OFFSET ?nullrep_@TiXmlString@@0URep@1@A ; TiXmlString::nullrep_

; 114  : 		return assign( copy, (size_type)strlen(copy));

  0005d	8b 7d 08	 mov	 edi, DWORD PTR __name$[ebp]
  00060	8b d7		 mov	 edx, edi
; File E:\Proyectos\JuegosOnlineproyectos\PB\pbblow\Piercing Blow Remake\i3Server\include\i3Base\tinyxml.h

; 808  : 	{

  00062	c6 45 fc 02	 mov	 BYTE PTR __$EHRec$[ebp+8], 2
; File E:\Proyectos\JuegosOnlineproyectos\PB\pbblow\Piercing Blow Remake\i3Server\include\i3Base\tinystr.h

; 114  : 		return assign( copy, (size_type)strlen(copy));

  00066	8d 42 01	 lea	 eax, DWORD PTR [edx+1]
  00069	89 45 08	 mov	 DWORD PTR tv85[ebp], eax
  0006c	8d 64 24 00	 npad	 4
$LL20@TiXmlAttri:
  00070	8a 02		 mov	 al, BYTE PTR [edx]
  00072	42		 inc	 edx
  00073	84 c0		 test	 al, al
  00075	75 f9		 jne	 SHORT $LL20@TiXmlAttri
  00077	2b 55 08	 sub	 edx, DWORD PTR tv85[ebp]
  0007a	52		 push	 edx
  0007b	57		 push	 edi
  0007c	e8 00 00 00 00	 call	 ?assign@TiXmlString@@QAEAAV1@PBDI@Z ; TiXmlString::assign
  00081	8b 7d 0c	 mov	 edi, DWORD PTR __value$[ebp]
  00084	8b c7		 mov	 eax, edi
  00086	8d 48 01	 lea	 ecx, DWORD PTR [eax+1]
  00089	8d a4 24 00 00
	00 00		 npad	 7
$LL21@TiXmlAttri:
  00090	8a 10		 mov	 dl, BYTE PTR [eax]
  00092	40		 inc	 eax
  00093	84 d2		 test	 dl, dl
  00095	75 f9		 jne	 SHORT $LL21@TiXmlAttri
  00097	2b c1		 sub	 eax, ecx
  00099	8d 4e 18	 lea	 ecx, DWORD PTR [esi+24]
  0009c	50		 push	 eax
  0009d	57		 push	 edi
  0009e	e8 00 00 00 00	 call	 ?assign@TiXmlString@@QAEAAV1@PBDI@Z ; TiXmlString::assign
; File E:\Proyectos\JuegosOnlineproyectos\PB\pbblow\Piercing Blow Remake\i3Server\include\i3Base\tinyxml.h

; 811  : 		document = 0;

  000a3	c7 46 10 00 00
	00 00		 mov	 DWORD PTR [esi+16], 0

; 812  : 		prev = next = 0;
; 813  : 	}

  000aa	8b c6		 mov	 eax, esi
  000ac	c7 46 20 00 00
	00 00		 mov	 DWORD PTR [esi+32], 0
  000b3	c7 46 1c 00 00
	00 00		 mov	 DWORD PTR [esi+28], 0
  000ba	8b 4d f4	 mov	 ecx, DWORD PTR __$EHRec$[ebp]
  000bd	64 89 0d 00 00
	00 00		 mov	 DWORD PTR fs:0, ecx
  000c4	59		 pop	 ecx
  000c5	5f		 pop	 edi
  000c6	5e		 pop	 esi
  000c7	5b		 pop	 ebx
  000c8	8b e5		 mov	 esp, ebp
  000ca	5d		 pop	 ebp
  000cb	c2 08 00	 ret	 8
_TEXT	ENDS
;	COMDAT text$x
text$x	SEGMENT
__unwindfunclet$??0TiXmlAttribute@@QAE@PBD0@Z$0:
  00000	8b 4d f0	 mov	 ecx, DWORD PTR _this$[ebp]
  00003	e9 00 00 00 00	 jmp	 ??1TiXmlBase@@UAE@XZ	; TiXmlBase::~TiXmlBase
__unwindfunclet$??0TiXmlAttribute@@QAE@PBD0@Z$1:
  00008	8b 4d f0	 mov	 ecx, DWORD PTR _this$[ebp]
  0000b	83 c1 14	 add	 ecx, 20			; 00000014H
  0000e	e9 00 00 00 00	 jmp	 ??1TiXmlString@@QAE@XZ	; TiXmlString::~TiXmlString
__unwindfunclet$??0TiXmlAttribute@@QAE@PBD0@Z$2:
  00013	8b 4d f0	 mov	 ecx, DWORD PTR _this$[ebp]
  00016	83 c1 18	 add	 ecx, 24			; 00000018H
  00019	e9 00 00 00 00	 jmp	 ??1TiXmlString@@QAE@XZ	; TiXmlString::~TiXmlString
  0001e	cc		 int	 3
  0001f	cc		 int	 3
  00020	cc		 int	 3
  00021	cc		 int	 3
  00022	cc		 int	 3
__ehhandler$??0TiXmlAttribute@@QAE@PBD0@Z:
  00023	90		 npad	 1
  00024	90		 npad	 1
  00025	8b 54 24 08	 mov	 edx, DWORD PTR [esp+8]
  00029	8d 42 0c	 lea	 eax, DWORD PTR [edx+12]
  0002c	8b 4a ec	 mov	 ecx, DWORD PTR [edx-20]
  0002f	33 c8		 xor	 ecx, eax
  00031	e8 00 00 00 00	 call	 @__security_check_cookie@4
  00036	b8 00 00 00 00	 mov	 eax, OFFSET __ehfuncinfo$??0TiXmlAttribute@@QAE@PBD0@Z
  0003b	e9 00 00 00 00	 jmp	 ___CxxFrameHandler3
text$x	ENDS
??0TiXmlAttribute@@QAE@PBD0@Z ENDP			; TiXmlAttribute::TiXmlAttribute
; Function compile flags: /Ogtp
; File E:\Proyectos\JuegosOnlineproyectos\PB\pbblow\Piercing Blow Remake\i3Server\include\i3Base\tinyxml.h
; File E:\Proyectos\JuegosOnlineproyectos\PB\pbblow\Piercing Blow Remake\i3Server\include\i3Base\tinystr.h
; File E:\Proyectos\JuegosOnlineproyectos\PB\pbblow\Piercing Blow Remake\i3Server\include\i3Base\tinyxml.h
;	COMDAT ??0TiXmlAttribute@@QAE@XZ
_TEXT	SEGMENT
_this$ = -4						; size = 4
??0TiXmlAttribute@@QAE@XZ PROC				; TiXmlAttribute::TiXmlAttribute, COMDAT
; _this$ = ecx

; 790  : 	{

  00000	55		 push	 ebp
  00001	8b ec		 mov	 ebp, esp
  00003	51		 push	 ecx

; 107  : 	void Clear()		{ row = col = -1; }

  00004	c7 41 08 ff ff
	ff ff		 mov	 DWORD PTR [ecx+8], -1

; 793  : 	}

  0000b	8b c1		 mov	 eax, ecx

; 107  : 	void Clear()		{ row = col = -1; }

  0000d	c7 41 04 ff ff
	ff ff		 mov	 DWORD PTR [ecx+4], -1

; 205  : 	TiXmlBase()	:	userData(0)		{}

  00014	c7 41 0c 00 00
	00 00		 mov	 DWORD PTR [ecx+12], 0

; 790  : 	{

  0001b	c7 01 00 00 00
	00		 mov	 DWORD PTR [ecx], OFFSET ??_7TiXmlAttribute@@6B@
; File E:\Proyectos\JuegosOnlineproyectos\PB\pbblow\Piercing Blow Remake\i3Server\include\i3Base\tinystr.h

; 80   : 	TiXmlString () : rep_(&nullrep_)

  00021	c7 41 14 00 00
	00 00		 mov	 DWORD PTR [ecx+20], OFFSET ?nullrep_@TiXmlString@@0URep@1@A ; TiXmlString::nullrep_
  00028	c7 41 18 00 00
	00 00		 mov	 DWORD PTR [ecx+24], OFFSET ?nullrep_@TiXmlString@@0URep@1@A ; TiXmlString::nullrep_
; File E:\Proyectos\JuegosOnlineproyectos\PB\pbblow\Piercing Blow Remake\i3Server\include\i3Base\tinyxml.h

; 790  : 	{

  0002f	89 4d fc	 mov	 DWORD PTR _this$[ebp], ecx

; 791  : 		document = 0;

  00032	c7 41 10 00 00
	00 00		 mov	 DWORD PTR [ecx+16], 0

; 792  : 		prev = next = 0;

  00039	c7 41 20 00 00
	00 00		 mov	 DWORD PTR [ecx+32], 0
  00040	c7 41 1c 00 00
	00 00		 mov	 DWORD PTR [ecx+28], 0

; 793  : 	}

  00047	8b e5		 mov	 esp, ebp
  00049	5d		 pop	 ebp
  0004a	c3		 ret	 0
??0TiXmlAttribute@@QAE@XZ ENDP				; TiXmlAttribute::TiXmlAttribute
_TEXT	ENDS
; Function compile flags: /Ogtp
; File E:\Proyectos\JuegosOnlineproyectos\PB\pbblow\Piercing Blow Remake\i3Server\include\i3Base\tinyxml.h
;	COMDAT ?ToDeclaration@TiXmlNode@@UAEPAVTiXmlDeclaration@@XZ
_TEXT	SEGMENT
?ToDeclaration@TiXmlNode@@UAEPAVTiXmlDeclaration@@XZ PROC ; TiXmlNode::ToDeclaration, COMDAT
; _this$ = ecx

; 713  : 	virtual TiXmlDeclaration*       ToDeclaration() { return 0; } ///< Cast to a more defined type. Will return null if not of the requested type.

  00000	33 c0		 xor	 eax, eax
  00002	c3		 ret	 0
?ToDeclaration@TiXmlNode@@UAEPAVTiXmlDeclaration@@XZ ENDP ; TiXmlNode::ToDeclaration
_TEXT	ENDS
; Function compile flags: /Ogtp
; File E:\Proyectos\JuegosOnlineproyectos\PB\pbblow\Piercing Blow Remake\i3Server\include\i3Base\tinyxml.h
;	COMDAT ?ToText@TiXmlNode@@UAEPAVTiXmlText@@XZ
_TEXT	SEGMENT
?ToText@TiXmlNode@@UAEPAVTiXmlText@@XZ PROC		; TiXmlNode::ToText, COMDAT
; _this$ = ecx

; 712  : 	virtual TiXmlText*	            ToText()        { return 0; } ///< Cast to a more defined type. Will return null if not of the requested type.

  00000	33 c0		 xor	 eax, eax
  00002	c3		 ret	 0
?ToText@TiXmlNode@@UAEPAVTiXmlText@@XZ ENDP		; TiXmlNode::ToText
_TEXT	ENDS
; Function compile flags: /Ogtp
; File E:\Proyectos\JuegosOnlineproyectos\PB\pbblow\Piercing Blow Remake\i3Server\include\i3Base\tinyxml.h
;	COMDAT ?ToUnknown@TiXmlNode@@UAEPAVTiXmlUnknown@@XZ
_TEXT	SEGMENT
?ToUnknown@TiXmlNode@@UAEPAVTiXmlUnknown@@XZ PROC	; TiXmlNode::ToUnknown, COMDAT
; _this$ = ecx

; 711  : 	virtual TiXmlUnknown*           ToUnknown()	    { return 0; } ///< Cast to a more defined type. Will return null if not of the requested type.

  00000	33 c0		 xor	 eax, eax
  00002	c3		 ret	 0
?ToUnknown@TiXmlNode@@UAEPAVTiXmlUnknown@@XZ ENDP	; TiXmlNode::ToUnknown
_TEXT	ENDS
; Function compile flags: /Ogtp
; File E:\Proyectos\JuegosOnlineproyectos\PB\pbblow\Piercing Blow Remake\i3Server\include\i3Base\tinyxml.h
;	COMDAT ?ToComment@TiXmlNode@@UAEPAVTiXmlComment@@XZ
_TEXT	SEGMENT
?ToComment@TiXmlNode@@UAEPAVTiXmlComment@@XZ PROC	; TiXmlNode::ToComment, COMDAT
; _this$ = ecx

; 710  : 	virtual TiXmlComment*           ToComment()     { return 0; } ///< Cast to a more defined type. Will return null if not of the requested type.

  00000	33 c0		 xor	 eax, eax
  00002	c3		 ret	 0
?ToComment@TiXmlNode@@UAEPAVTiXmlComment@@XZ ENDP	; TiXmlNode::ToComment
_TEXT	ENDS
; Function compile flags: /Ogtp
; File E:\Proyectos\JuegosOnlineproyectos\PB\pbblow\Piercing Blow Remake\i3Server\include\i3Base\tinyxml.h
;	COMDAT ?ToElement@TiXmlNode@@UAEPAVTiXmlElement@@XZ
_TEXT	SEGMENT
?ToElement@TiXmlNode@@UAEPAVTiXmlElement@@XZ PROC	; TiXmlNode::ToElement, COMDAT
; _this$ = ecx

; 709  : 	virtual TiXmlElement*           ToElement()	    { return 0; } ///< Cast to a more defined type. Will return null if not of the requested type.

  00000	33 c0		 xor	 eax, eax
  00002	c3		 ret	 0
?ToElement@TiXmlNode@@UAEPAVTiXmlElement@@XZ ENDP	; TiXmlNode::ToElement
_TEXT	ENDS
; Function compile flags: /Ogtp
; File E:\Proyectos\JuegosOnlineproyectos\PB\pbblow\Piercing Blow Remake\i3Server\include\i3Base\tinyxml.h
;	COMDAT ?ToDocument@TiXmlNode@@UAEPAVTiXmlDocument@@XZ
_TEXT	SEGMENT
?ToDocument@TiXmlNode@@UAEPAVTiXmlDocument@@XZ PROC	; TiXmlNode::ToDocument, COMDAT
; _this$ = ecx

; 708  : 	virtual TiXmlDocument*          ToDocument()    { return 0; } ///< Cast to a more defined type. Will return null if not of the requested type.

  00000	33 c0		 xor	 eax, eax
  00002	c3		 ret	 0
?ToDocument@TiXmlNode@@UAEPAVTiXmlDocument@@XZ ENDP	; TiXmlNode::ToDocument
_TEXT	ENDS
; Function compile flags: /Ogtp
; File E:\Proyectos\JuegosOnlineproyectos\PB\pbblow\Piercing Blow Remake\i3Server\include\i3Base\tinyxml.h
;	COMDAT ?ToDeclaration@TiXmlNode@@UBEPBVTiXmlDeclaration@@XZ
_TEXT	SEGMENT
?ToDeclaration@TiXmlNode@@UBEPBVTiXmlDeclaration@@XZ PROC ; TiXmlNode::ToDeclaration, COMDAT
; _this$ = ecx

; 706  : 	virtual const TiXmlDeclaration* ToDeclaration() const { return 0; } ///< Cast to a more defined type. Will return null if not of the requested type.

  00000	33 c0		 xor	 eax, eax
  00002	c3		 ret	 0
?ToDeclaration@TiXmlNode@@UBEPBVTiXmlDeclaration@@XZ ENDP ; TiXmlNode::ToDeclaration
_TEXT	ENDS
; Function compile flags: /Ogtp
; File E:\Proyectos\JuegosOnlineproyectos\PB\pbblow\Piercing Blow Remake\i3Server\include\i3Base\tinyxml.h
;	COMDAT ?ToText@TiXmlNode@@UBEPBVTiXmlText@@XZ
_TEXT	SEGMENT
?ToText@TiXmlNode@@UBEPBVTiXmlText@@XZ PROC		; TiXmlNode::ToText, COMDAT
; _this$ = ecx

; 705  : 	virtual const TiXmlText*        ToText()        const { return 0; } ///< Cast to a more defined type. Will return null if not of the requested type.

  00000	33 c0		 xor	 eax, eax
  00002	c3		 ret	 0
?ToText@TiXmlNode@@UBEPBVTiXmlText@@XZ ENDP		; TiXmlNode::ToText
_TEXT	ENDS
; Function compile flags: /Ogtp
; File E:\Proyectos\JuegosOnlineproyectos\PB\pbblow\Piercing Blow Remake\i3Server\include\i3Base\tinyxml.h
;	COMDAT ?ToUnknown@TiXmlNode@@UBEPBVTiXmlUnknown@@XZ
_TEXT	SEGMENT
?ToUnknown@TiXmlNode@@UBEPBVTiXmlUnknown@@XZ PROC	; TiXmlNode::ToUnknown, COMDAT
; _this$ = ecx

; 704  : 	virtual const TiXmlUnknown*     ToUnknown()     const { return 0; } ///< Cast to a more defined type. Will return null if not of the requested type.

  00000	33 c0		 xor	 eax, eax
  00002	c3		 ret	 0
?ToUnknown@TiXmlNode@@UBEPBVTiXmlUnknown@@XZ ENDP	; TiXmlNode::ToUnknown
_TEXT	ENDS
; Function compile flags: /Ogtp
; File E:\Proyectos\JuegosOnlineproyectos\PB\pbblow\Piercing Blow Remake\i3Server\include\i3Base\tinyxml.h
;	COMDAT ?ToComment@TiXmlNode@@UBEPBVTiXmlComment@@XZ
_TEXT	SEGMENT
?ToComment@TiXmlNode@@UBEPBVTiXmlComment@@XZ PROC	; TiXmlNode::ToComment, COMDAT
; _this$ = ecx

; 703  : 	virtual const TiXmlComment*     ToComment()     const { return 0; } ///< Cast to a more defined type. Will return null if not of the requested type.

  00000	33 c0		 xor	 eax, eax
  00002	c3		 ret	 0
?ToComment@TiXmlNode@@UBEPBVTiXmlComment@@XZ ENDP	; TiXmlNode::ToComment
_TEXT	ENDS
; Function compile flags: /Ogtp
; File E:\Proyectos\JuegosOnlineproyectos\PB\pbblow\Piercing Blow Remake\i3Server\include\i3Base\tinyxml.h
;	COMDAT ?ToElement@TiXmlNode@@UBEPBVTiXmlElement@@XZ
_TEXT	SEGMENT
?ToElement@TiXmlNode@@UBEPBVTiXmlElement@@XZ PROC	; TiXmlNode::ToElement, COMDAT
; _this$ = ecx

; 702  : 	virtual const TiXmlElement*     ToElement()     const { return 0; } ///< Cast to a more defined type. Will return null if not of the requested type.

  00000	33 c0		 xor	 eax, eax
  00002	c3		 ret	 0
?ToElement@TiXmlNode@@UBEPBVTiXmlElement@@XZ ENDP	; TiXmlNode::ToElement
_TEXT	ENDS
; Function compile flags: /Ogtp
; File E:\Proyectos\JuegosOnlineproyectos\PB\pbblow\Piercing Blow Remake\i3Server\include\i3Base\tinyxml.h
;	COMDAT ?ToDocument@TiXmlNode@@UBEPBVTiXmlDocument@@XZ
_TEXT	SEGMENT
?ToDocument@TiXmlNode@@UBEPBVTiXmlDocument@@XZ PROC	; TiXmlNode::ToDocument, COMDAT
; _this$ = ecx

; 701  : 	virtual const TiXmlDocument*    ToDocument()    const { return 0; } ///< Cast to a more defined type. Will return null if not of the requested type.

  00000	33 c0		 xor	 eax, eax
  00002	c3		 ret	 0
?ToDocument@TiXmlNode@@UBEPBVTiXmlDocument@@XZ ENDP	; TiXmlNode::ToDocument
_TEXT	ENDS
; Function compile flags: /Ogtp
; File E:\Proyectos\JuegosOnlineproyectos\PB\pbblow\Piercing Blow Remake\i3Server\include\i3Base\tinyxml.h
;	COMDAT ?NoChildren@TiXmlNode@@QBE_NXZ
_TEXT	SEGMENT
?NoChildren@TiXmlNode@@QBE_NXZ PROC			; TiXmlNode::NoChildren, COMDAT
; _this$ = ecx

; 699  : 	bool NoChildren() const						{ return !firstChild; }

  00000	83 79 18 00	 cmp	 DWORD PTR [ecx+24], 0
  00004	0f 94 c0	 sete	 al
  00007	c3		 ret	 0
?NoChildren@TiXmlNode@@QBE_NXZ ENDP			; TiXmlNode::NoChildren
_TEXT	ENDS
; Function compile flags: /Ogtp
; File E:\Proyectos\JuegosOnlineproyectos\PB\pbblow\Piercing Blow Remake\i3Server\include\i3Base\tinyxml.h
;	COMDAT ?GetDocument@TiXmlNode@@QAEPAVTiXmlDocument@@XZ
_TEXT	SEGMENT
?GetDocument@TiXmlNode@@QAEPAVTiXmlDocument@@XZ PROC	; TiXmlNode::GetDocument, COMDAT
; _this$ = ecx

; 695  : 		return const_cast< TiXmlDocument* >( (const_cast< const TiXmlNode* >(this))->GetDocument() );

  00000	e9 00 00 00 00	 jmp	 ?GetDocument@TiXmlNode@@QBEPBVTiXmlDocument@@XZ ; TiXmlNode::GetDocument
?GetDocument@TiXmlNode@@QAEPAVTiXmlDocument@@XZ ENDP	; TiXmlNode::GetDocument
_TEXT	ENDS
; Function compile flags: /Ogtp
; File E:\Proyectos\JuegosOnlineproyectos\PB\pbblow\Piercing Blow Remake\i3Server\include\i3Base\tinyxml.h
;	COMDAT ?Type@TiXmlNode@@QBEHXZ
_TEXT	SEGMENT
?Type@TiXmlNode@@QBEHXZ PROC				; TiXmlNode::Type, COMDAT
; _this$ = ecx

; 688  : 	int Type() const	{ return type; }

  00000	8b 41 14	 mov	 eax, DWORD PTR [ecx+20]
  00003	c3		 ret	 0
?Type@TiXmlNode@@QBEHXZ ENDP				; TiXmlNode::Type
_TEXT	ENDS
; Function compile flags: /Ogtp
; File E:\Proyectos\JuegosOnlineproyectos\PB\pbblow\Piercing Blow Remake\i3Server\include\i3Base\tinyxml.h
;	COMDAT ?FirstChildElement@TiXmlNode@@QAEPAVTiXmlElement@@PBD@Z
_TEXT	SEGMENT
__value$ = 8						; size = 4
?FirstChildElement@TiXmlNode@@QAEPAVTiXmlElement@@PBD@Z PROC ; TiXmlNode::FirstChildElement, COMDAT
; _this$ = ecx

; 675  : 	TiXmlElement* FirstChildElement( const char * _value ) {

  00000	55		 push	 ebp
  00001	8b ec		 mov	 ebp, esp

; 677  : 	}

  00003	5d		 pop	 ebp

; 676  : 		return const_cast< TiXmlElement* >( (const_cast< const TiXmlNode* >(this))->FirstChildElement( _value ) );

  00004	e9 00 00 00 00	 jmp	 ?FirstChildElement@TiXmlNode@@QBEPBVTiXmlElement@@PBD@Z ; TiXmlNode::FirstChildElement
?FirstChildElement@TiXmlNode@@QAEPAVTiXmlElement@@PBD@Z ENDP ; TiXmlNode::FirstChildElement
_TEXT	ENDS
; Function compile flags: /Ogtp
; File E:\Proyectos\JuegosOnlineproyectos\PB\pbblow\Piercing Blow Remake\i3Server\include\i3Base\tinyxml.h
;	COMDAT ?FirstChildElement@TiXmlNode@@QAEPAVTiXmlElement@@XZ
_TEXT	SEGMENT
?FirstChildElement@TiXmlNode@@QAEPAVTiXmlElement@@XZ PROC ; TiXmlNode::FirstChildElement, COMDAT
; _this$ = ecx

; 670  : 		return const_cast< TiXmlElement* >( (const_cast< const TiXmlNode* >(this))->FirstChildElement() );

  00000	e9 00 00 00 00	 jmp	 ?FirstChildElement@TiXmlNode@@QBEPBVTiXmlElement@@XZ ; TiXmlNode::FirstChildElement
?FirstChildElement@TiXmlNode@@QAEPAVTiXmlElement@@XZ ENDP ; TiXmlNode::FirstChildElement
_TEXT	ENDS
; Function compile flags: /Ogtp
; File E:\Proyectos\JuegosOnlineproyectos\PB\pbblow\Piercing Blow Remake\i3Server\include\i3Base\tinyxml.h
;	COMDAT ?NextSiblingElement@TiXmlNode@@QAEPAVTiXmlElement@@PBD@Z
_TEXT	SEGMENT
__next$ = 8						; size = 4
?NextSiblingElement@TiXmlNode@@QAEPAVTiXmlElement@@PBD@Z PROC ; TiXmlNode::NextSiblingElement, COMDAT
; _this$ = ecx

; 658  : 	TiXmlElement* NextSiblingElement( const char *_next ) {

  00000	55		 push	 ebp
  00001	8b ec		 mov	 ebp, esp

; 660  : 	}

  00003	5d		 pop	 ebp

; 659  : 		return const_cast< TiXmlElement* >( (const_cast< const TiXmlNode* >(this))->NextSiblingElement( _next ) );

  00004	e9 00 00 00 00	 jmp	 ?NextSiblingElement@TiXmlNode@@QBEPBVTiXmlElement@@PBD@Z ; TiXmlNode::NextSiblingElement
?NextSiblingElement@TiXmlNode@@QAEPAVTiXmlElement@@PBD@Z ENDP ; TiXmlNode::NextSiblingElement
_TEXT	ENDS
; Function compile flags: /Ogtp
; File E:\Proyectos\JuegosOnlineproyectos\PB\pbblow\Piercing Blow Remake\i3Server\include\i3Base\tinyxml.h
;	COMDAT ?NextSiblingElement@TiXmlNode@@QAEPAVTiXmlElement@@XZ
_TEXT	SEGMENT
?NextSiblingElement@TiXmlNode@@QAEPAVTiXmlElement@@XZ PROC ; TiXmlNode::NextSiblingElement, COMDAT
; _this$ = ecx

; 650  : 		return const_cast< TiXmlElement* >( (const_cast< const TiXmlNode* >(this))->NextSiblingElement() );

  00000	e9 00 00 00 00	 jmp	 ?NextSiblingElement@TiXmlNode@@QBEPBVTiXmlElement@@XZ ; TiXmlNode::NextSiblingElement
?NextSiblingElement@TiXmlNode@@QAEPAVTiXmlElement@@XZ ENDP ; TiXmlNode::NextSiblingElement
_TEXT	ENDS
; Function compile flags: /Ogtp
; File E:\Proyectos\JuegosOnlineproyectos\PB\pbblow\Piercing Blow Remake\i3Server\include\i3Base\tinyxml.h
;	COMDAT ?NextSibling@TiXmlNode@@QAEPAV1@PBD@Z
_TEXT	SEGMENT
__next$ = 8						; size = 4
?NextSibling@TiXmlNode@@QAEPAV1@PBD@Z PROC		; TiXmlNode::NextSibling, COMDAT
; _this$ = ecx

; 640  : 	TiXmlNode* NextSibling( const char* _next ) {

  00000	55		 push	 ebp
  00001	8b ec		 mov	 ebp, esp

; 642  : 	}

  00003	5d		 pop	 ebp

; 641  : 		return const_cast< TiXmlNode* >( (const_cast< const TiXmlNode* >(this))->NextSibling( _next ) );

  00004	e9 00 00 00 00	 jmp	 ?NextSibling@TiXmlNode@@QBEPBV1@PBD@Z ; TiXmlNode::NextSibling
?NextSibling@TiXmlNode@@QAEPAV1@PBD@Z ENDP		; TiXmlNode::NextSibling
_TEXT	ENDS
; Function compile flags: /Ogtp
; File E:\Proyectos\JuegosOnlineproyectos\PB\pbblow\Piercing Blow Remake\i3Server\include\i3Base\tinyxml.h
;	COMDAT ?NextSibling@TiXmlNode@@QAEPAV1@XZ
_TEXT	SEGMENT
?NextSibling@TiXmlNode@@QAEPAV1@XZ PROC			; TiXmlNode::NextSibling, COMDAT
; _this$ = ecx

; 636  : 	TiXmlNode* NextSibling()							{ return next; }

  00000	8b 41 28	 mov	 eax, DWORD PTR [ecx+40]
  00003	c3		 ret	 0
?NextSibling@TiXmlNode@@QAEPAV1@XZ ENDP			; TiXmlNode::NextSibling
_TEXT	ENDS
; Function compile flags: /Ogtp
; File E:\Proyectos\JuegosOnlineproyectos\PB\pbblow\Piercing Blow Remake\i3Server\include\i3Base\tinyxml.h
;	COMDAT ?NextSibling@TiXmlNode@@QBEPBV1@XZ
_TEXT	SEGMENT
?NextSibling@TiXmlNode@@QBEPBV1@XZ PROC			; TiXmlNode::NextSibling, COMDAT
; _this$ = ecx

; 635  : 	const TiXmlNode* NextSibling() const				{ return next; }

  00000	8b 41 28	 mov	 eax, DWORD PTR [ecx+40]
  00003	c3		 ret	 0
?NextSibling@TiXmlNode@@QBEPBV1@XZ ENDP			; TiXmlNode::NextSibling
_TEXT	ENDS
; Function compile flags: /Ogtp
; File E:\Proyectos\JuegosOnlineproyectos\PB\pbblow\Piercing Blow Remake\i3Server\include\i3Base\tinyxml.h
;	COMDAT ?PreviousSibling@TiXmlNode@@QAEPAV1@PBD@Z
_TEXT	SEGMENT
__prev$ = 8						; size = 4
?PreviousSibling@TiXmlNode@@QAEPAV1@PBD@Z PROC		; TiXmlNode::PreviousSibling, COMDAT
; _this$ = ecx

; 623  : 	TiXmlNode* PreviousSibling( const char *_prev ) {

  00000	55		 push	 ebp
  00001	8b ec		 mov	 ebp, esp

; 625  : 	}

  00003	5d		 pop	 ebp

; 624  : 		return const_cast< TiXmlNode* >( (const_cast< const TiXmlNode* >(this))->PreviousSibling( _prev ) );

  00004	e9 00 00 00 00	 jmp	 ?PreviousSibling@TiXmlNode@@QBEPBV1@PBD@Z ; TiXmlNode::PreviousSibling
?PreviousSibling@TiXmlNode@@QAEPAV1@PBD@Z ENDP		; TiXmlNode::PreviousSibling
_TEXT	ENDS
; Function compile flags: /Ogtp
; File E:\Proyectos\JuegosOnlineproyectos\PB\pbblow\Piercing Blow Remake\i3Server\include\i3Base\tinyxml.h
;	COMDAT ?PreviousSibling@TiXmlNode@@QAEPAV1@XZ
_TEXT	SEGMENT
?PreviousSibling@TiXmlNode@@QAEPAV1@XZ PROC		; TiXmlNode::PreviousSibling, COMDAT
; _this$ = ecx

; 619  : 	TiXmlNode* PreviousSibling()						{ return prev; }

  00000	8b 41 24	 mov	 eax, DWORD PTR [ecx+36]
  00003	c3		 ret	 0
?PreviousSibling@TiXmlNode@@QAEPAV1@XZ ENDP		; TiXmlNode::PreviousSibling
_TEXT	ENDS
; Function compile flags: /Ogtp
; File E:\Proyectos\JuegosOnlineproyectos\PB\pbblow\Piercing Blow Remake\i3Server\include\i3Base\tinyxml.h
;	COMDAT ?PreviousSibling@TiXmlNode@@QBEPBV1@XZ
_TEXT	SEGMENT
?PreviousSibling@TiXmlNode@@QBEPBV1@XZ PROC		; TiXmlNode::PreviousSibling, COMDAT
; _this$ = ecx

; 618  : 	const TiXmlNode* PreviousSibling() const			{ return prev; }

  00000	8b 41 24	 mov	 eax, DWORD PTR [ecx+36]
  00003	c3		 ret	 0
?PreviousSibling@TiXmlNode@@QBEPBV1@XZ ENDP		; TiXmlNode::PreviousSibling
_TEXT	ENDS
; Function compile flags: /Ogtp
; File E:\Proyectos\JuegosOnlineproyectos\PB\pbblow\Piercing Blow Remake\i3Server\include\i3Base\tinyxml.h
;	COMDAT ?IterateChildren@TiXmlNode@@QAEPAV1@PBDPBV1@@Z
_TEXT	SEGMENT
__value$ = 8						; size = 4
_previous$ = 12						; size = 4
?IterateChildren@TiXmlNode@@QAEPAV1@PBDPBV1@@Z PROC	; TiXmlNode::IterateChildren, COMDAT
; _this$ = ecx

; 573  : 	TiXmlNode* IterateChildren( const char * _value, const TiXmlNode* previous ) {

  00000	55		 push	 ebp
  00001	8b ec		 mov	 ebp, esp

; 575  : 	}

  00003	5d		 pop	 ebp

; 574  : 		return const_cast< TiXmlNode* >( (const_cast< const TiXmlNode* >(this))->IterateChildren( _value, previous ) );

  00004	e9 00 00 00 00	 jmp	 ?IterateChildren@TiXmlNode@@QBEPBV1@PBDPBV1@@Z ; TiXmlNode::IterateChildren
?IterateChildren@TiXmlNode@@QAEPAV1@PBDPBV1@@Z ENDP	; TiXmlNode::IterateChildren
_TEXT	ENDS
; Function compile flags: /Ogtp
; File E:\Proyectos\JuegosOnlineproyectos\PB\pbblow\Piercing Blow Remake\i3Server\include\i3Base\tinyxml.h
;	COMDAT ?IterateChildren@TiXmlNode@@QAEPAV1@PBV1@@Z
_TEXT	SEGMENT
_previous$ = 8						; size = 4
?IterateChildren@TiXmlNode@@QAEPAV1@PBV1@@Z PROC	; TiXmlNode::IterateChildren, COMDAT
; _this$ = ecx

; 567  : 	TiXmlNode* IterateChildren( const TiXmlNode* previous ) {

  00000	55		 push	 ebp
  00001	8b ec		 mov	 ebp, esp

; 569  : 	}

  00003	5d		 pop	 ebp

; 568  : 		return const_cast< TiXmlNode* >( (const_cast< const TiXmlNode* >(this))->IterateChildren( previous ) );

  00004	e9 00 00 00 00	 jmp	 ?IterateChildren@TiXmlNode@@QBEPBV1@PBV1@@Z ; TiXmlNode::IterateChildren
?IterateChildren@TiXmlNode@@QAEPAV1@PBV1@@Z ENDP	; TiXmlNode::IterateChildren
_TEXT	ENDS
; Function compile flags: /Ogtp
; File E:\Proyectos\JuegosOnlineproyectos\PB\pbblow\Piercing Blow Remake\i3Server\include\i3Base\tinyxml.h
;	COMDAT ?LastChild@TiXmlNode@@QAEPAV1@PBD@Z
_TEXT	SEGMENT
__value$ = 8						; size = 4
?LastChild@TiXmlNode@@QAEPAV1@PBD@Z PROC		; TiXmlNode::LastChild, COMDAT
; _this$ = ecx

; 539  : 	TiXmlNode* LastChild( const char * _value ) {

  00000	55		 push	 ebp
  00001	8b ec		 mov	 ebp, esp

; 541  : 	}

  00003	5d		 pop	 ebp

; 540  : 		return const_cast< TiXmlNode* > ((const_cast< const TiXmlNode* >(this))->LastChild( _value ));

  00004	e9 00 00 00 00	 jmp	 ?LastChild@TiXmlNode@@QBEPBV1@PBD@Z ; TiXmlNode::LastChild
?LastChild@TiXmlNode@@QAEPAV1@PBD@Z ENDP		; TiXmlNode::LastChild
_TEXT	ENDS
; Function compile flags: /Ogtp
; File E:\Proyectos\JuegosOnlineproyectos\PB\pbblow\Piercing Blow Remake\i3Server\include\i3Base\tinyxml.h
;	COMDAT ?LastChild@TiXmlNode@@QAEPAV1@XZ
_TEXT	SEGMENT
?LastChild@TiXmlNode@@QAEPAV1@XZ PROC			; TiXmlNode::LastChild, COMDAT
; _this$ = ecx

; 536  : 	TiXmlNode* LastChild()	{ return lastChild; }

  00000	8b 41 1c	 mov	 eax, DWORD PTR [ecx+28]
  00003	c3		 ret	 0
?LastChild@TiXmlNode@@QAEPAV1@XZ ENDP			; TiXmlNode::LastChild
_TEXT	ENDS
; Function compile flags: /Ogtp
; File E:\Proyectos\JuegosOnlineproyectos\PB\pbblow\Piercing Blow Remake\i3Server\include\i3Base\tinyxml.h
;	COMDAT ?LastChild@TiXmlNode@@QBEPBV1@XZ
_TEXT	SEGMENT
?LastChild@TiXmlNode@@QBEPBV1@XZ PROC			; TiXmlNode::LastChild, COMDAT
; _this$ = ecx

; 535  : 	const TiXmlNode* LastChild() const	{ return lastChild; }		/// The last child of this node. Will be null if there are no children.

  00000	8b 41 1c	 mov	 eax, DWORD PTR [ecx+28]
  00003	c3		 ret	 0
?LastChild@TiXmlNode@@QBEPBV1@XZ ENDP			; TiXmlNode::LastChild
_TEXT	ENDS
; Function compile flags: /Ogtp
; File E:\Proyectos\JuegosOnlineproyectos\PB\pbblow\Piercing Blow Remake\i3Server\include\i3Base\tinyxml.h
;	COMDAT ?FirstChild@TiXmlNode@@QAEPAV1@PBD@Z
_TEXT	SEGMENT
__value$ = 8						; size = 4
?FirstChild@TiXmlNode@@QAEPAV1@PBD@Z PROC		; TiXmlNode::FirstChild, COMDAT
; _this$ = ecx

; 530  : 	TiXmlNode* FirstChild( const char * _value ) {

  00000	55		 push	 ebp
  00001	8b ec		 mov	 ebp, esp

; 534  : 	}

  00003	5d		 pop	 ebp

; 531  : 		// Call through to the const version - safe since nothing is changed. Exiting syntax: cast this to a const (always safe)
; 532  : 		// call the method, cast the return back to non-const.
; 533  : 		return const_cast< TiXmlNode* > ((const_cast< const TiXmlNode* >(this))->FirstChild( _value ));

  00004	e9 00 00 00 00	 jmp	 ?FirstChild@TiXmlNode@@QBEPBV1@PBD@Z ; TiXmlNode::FirstChild
?FirstChild@TiXmlNode@@QAEPAV1@PBD@Z ENDP		; TiXmlNode::FirstChild
_TEXT	ENDS
; Function compile flags: /Ogtp
; File E:\Proyectos\JuegosOnlineproyectos\PB\pbblow\Piercing Blow Remake\i3Server\include\i3Base\tinyxml.h
;	COMDAT ?FirstChild@TiXmlNode@@QAEPAV1@XZ
_TEXT	SEGMENT
?FirstChild@TiXmlNode@@QAEPAV1@XZ PROC			; TiXmlNode::FirstChild, COMDAT
; _this$ = ecx

; 527  : 	TiXmlNode* FirstChild()						{ return firstChild; }

  00000	8b 41 18	 mov	 eax, DWORD PTR [ecx+24]
  00003	c3		 ret	 0
?FirstChild@TiXmlNode@@QAEPAV1@XZ ENDP			; TiXmlNode::FirstChild
_TEXT	ENDS
; Function compile flags: /Ogtp
; File E:\Proyectos\JuegosOnlineproyectos\PB\pbblow\Piercing Blow Remake\i3Server\include\i3Base\tinyxml.h
;	COMDAT ?FirstChild@TiXmlNode@@QBEPBV1@XZ
_TEXT	SEGMENT
?FirstChild@TiXmlNode@@QBEPBV1@XZ PROC			; TiXmlNode::FirstChild, COMDAT
; _this$ = ecx

; 526  : 	const TiXmlNode* FirstChild()	const		{ return firstChild; }	///< The first child of this node. Will be null if there are no children.

  00000	8b 41 18	 mov	 eax, DWORD PTR [ecx+24]
  00003	c3		 ret	 0
?FirstChild@TiXmlNode@@QBEPBV1@XZ ENDP			; TiXmlNode::FirstChild
_TEXT	ENDS
; Function compile flags: /Ogtp
; File E:\Proyectos\JuegosOnlineproyectos\PB\pbblow\Piercing Blow Remake\i3Server\include\i3Base\tinyxml.h
;	COMDAT ?Parent@TiXmlNode@@QBEPBV1@XZ
_TEXT	SEGMENT
?Parent@TiXmlNode@@QBEPBV1@XZ PROC			; TiXmlNode::Parent, COMDAT
; _this$ = ecx

; 524  : 	const TiXmlNode* Parent() const				{ return parent; }

  00000	8b 41 10	 mov	 eax, DWORD PTR [ecx+16]
  00003	c3		 ret	 0
?Parent@TiXmlNode@@QBEPBV1@XZ ENDP			; TiXmlNode::Parent
_TEXT	ENDS
; Function compile flags: /Ogtp
; File E:\Proyectos\JuegosOnlineproyectos\PB\pbblow\Piercing Blow Remake\i3Server\include\i3Base\tinyxml.h
;	COMDAT ?Parent@TiXmlNode@@QAEPAV1@XZ
_TEXT	SEGMENT
?Parent@TiXmlNode@@QAEPAV1@XZ PROC			; TiXmlNode::Parent, COMDAT
; _this$ = ecx

; 523  : 	TiXmlNode* Parent()							{ return parent; }

  00000	8b 41 10	 mov	 eax, DWORD PTR [ecx+16]
  00003	c3		 ret	 0
?Parent@TiXmlNode@@QAEPAV1@XZ ENDP			; TiXmlNode::Parent
_TEXT	ENDS
; Function compile flags: /Ogtp
; File E:\Proyectos\JuegosOnlineproyectos\PB\pbblow\Piercing Blow Remake\i3Server\include\i3Base\tinyxml.h
; File E:\Proyectos\JuegosOnlineproyectos\PB\pbblow\Piercing Blow Remake\i3Server\include\i3Base\tinystr.h
; File E:\Proyectos\JuegosOnlineproyectos\PB\pbblow\Piercing Blow Remake\i3Server\include\i3Base\tinyxml.h
; File E:\Proyectos\JuegosOnlineproyectos\PB\pbblow\Piercing Blow Remake\i3Server\include\i3Base\tinystr.h
; File E:\Proyectos\JuegosOnlineproyectos\PB\pbblow\Piercing Blow Remake\i3Server\include\i3Base\tinyxml.h
; File E:\Proyectos\JuegosOnlineproyectos\PB\pbblow\Piercing Blow Remake\i3Server\include\i3Base\tinystr.h
; File E:\Proyectos\JuegosOnlineproyectos\PB\pbblow\Piercing Blow Remake\i3Server\include\i3Base\tinyxml.h
;	COMDAT ?SetValue@TiXmlNode@@QAEXPBD@Z
_TEXT	SEGMENT
__value$ = 8						; size = 4
?SetValue@TiXmlNode@@QAEXPBD@Z PROC			; TiXmlNode::SetValue, COMDAT
; _this$ = ecx

; 512  : 	void SetValue(const char * _value) { value = _value;}

  00000	55		 push	 ebp
  00001	8b ec		 mov	 ebp, esp
; File E:\Proyectos\JuegosOnlineproyectos\PB\pbblow\Piercing Blow Remake\i3Server\include\i3Base\tinystr.h

; 114  : 		return assign( copy, (size_type)strlen(copy));

  00003	8b 55 08	 mov	 edx, DWORD PTR __value$[ebp]
  00006	8b c2		 mov	 eax, edx
; File E:\Proyectos\JuegosOnlineproyectos\PB\pbblow\Piercing Blow Remake\i3Server\include\i3Base\tinyxml.h

; 512  : 	void SetValue(const char * _value) { value = _value;}

  00008	56		 push	 esi
  00009	57		 push	 edi
  0000a	8b f1		 mov	 esi, ecx
; File E:\Proyectos\JuegosOnlineproyectos\PB\pbblow\Piercing Blow Remake\i3Server\include\i3Base\tinystr.h

; 114  : 		return assign( copy, (size_type)strlen(copy));

  0000c	8d 78 01	 lea	 edi, DWORD PTR [eax+1]
  0000f	90		 npad	 1
$LL5@SetValue:
  00010	8a 08		 mov	 cl, BYTE PTR [eax]
  00012	40		 inc	 eax
  00013	84 c9		 test	 cl, cl
  00015	75 f9		 jne	 SHORT $LL5@SetValue
  00017	2b c7		 sub	 eax, edi
; File E:\Proyectos\JuegosOnlineproyectos\PB\pbblow\Piercing Blow Remake\i3Server\include\i3Base\tinyxml.h

; 512  : 	void SetValue(const char * _value) { value = _value;}

  00019	8d 4e 20	 lea	 ecx, DWORD PTR [esi+32]
; File E:\Proyectos\JuegosOnlineproyectos\PB\pbblow\Piercing Blow Remake\i3Server\include\i3Base\tinystr.h

; 114  : 		return assign( copy, (size_type)strlen(copy));

  0001c	50		 push	 eax
  0001d	52		 push	 edx
  0001e	e8 00 00 00 00	 call	 ?assign@TiXmlString@@QAEAAV1@PBDI@Z ; TiXmlString::assign
  00023	5f		 pop	 edi
  00024	5e		 pop	 esi
; File E:\Proyectos\JuegosOnlineproyectos\PB\pbblow\Piercing Blow Remake\i3Server\include\i3Base\tinyxml.h

; 512  : 	void SetValue(const char * _value) { value = _value;}

  00025	5d		 pop	 ebp
  00026	c2 04 00	 ret	 4
?SetValue@TiXmlNode@@QAEXPBD@Z ENDP			; TiXmlNode::SetValue
_TEXT	ENDS
; Function compile flags: /Ogtp
; File E:\Proyectos\JuegosOnlineproyectos\PB\pbblow\Piercing Blow Remake\i3Server\include\i3Base\tinyxml.h
;	COMDAT ?ValueTStr@TiXmlNode@@QBEABVTiXmlString@@XZ
_TEXT	SEGMENT
?ValueTStr@TiXmlNode@@QBEABVTiXmlString@@XZ PROC	; TiXmlNode::ValueTStr, COMDAT
; _this$ = ecx

; 501  : 	const TIXML_STRING& ValueTStr() const { return value; }

  00000	8d 41 20	 lea	 eax, DWORD PTR [ecx+32]
  00003	c3		 ret	 0
?ValueTStr@TiXmlNode@@QBEABVTiXmlString@@XZ ENDP	; TiXmlNode::ValueTStr
_TEXT	ENDS
; Function compile flags: /Ogtp
; File E:\Proyectos\JuegosOnlineproyectos\PB\pbblow\Piercing Blow Remake\i3Server\include\i3Base\tinyxml.h
; File E:\Proyectos\JuegosOnlineproyectos\PB\pbblow\Piercing Blow Remake\i3Server\include\i3Base\tinystr.h
; File E:\Proyectos\JuegosOnlineproyectos\PB\pbblow\Piercing Blow Remake\i3Server\include\i3Base\tinyxml.h
;	COMDAT ?Value@TiXmlNode@@QBEPBDXZ
_TEXT	SEGMENT
?Value@TiXmlNode@@QBEPBDXZ PROC				; TiXmlNode::Value, COMDAT
; _this$ = ecx
; File E:\Proyectos\JuegosOnlineproyectos\PB\pbblow\Piercing Blow Remake\i3Server\include\i3Base\tinystr.h

; 144  : 	const char * c_str () const { return rep_->str; }

  00000	8b 41 20	 mov	 eax, DWORD PTR [ecx+32]
  00003	83 c0 08	 add	 eax, 8
; File E:\Proyectos\JuegosOnlineproyectos\PB\pbblow\Piercing Blow Remake\i3Server\include\i3Base\tinyxml.h

; 491  : 	const char *Value() const { return value.c_str (); }

  00006	c3		 ret	 0
?Value@TiXmlNode@@QBEPBDXZ ENDP				; TiXmlNode::Value
_TEXT	ENDS
; Function compile flags: /Ogtp
;	COMDAT ??_ETiXmlBase@@UAEPAXI@Z
_TEXT	SEGMENT
__$EHRec$ = -12						; size = 12
___flags$ = 8						; size = 4
??_ETiXmlBase@@UAEPAXI@Z PROC				; TiXmlBase::`vector deleting destructor', COMDAT
; _this$ = ecx
  00000	55		 push	 ebp
  00001	8b ec		 mov	 ebp, esp
  00003	6a ff		 push	 -1
  00005	68 00 00 00 00	 push	 __ehhandler$??_ETiXmlBase@@UAEPAXI@Z
  0000a	64 a1 00 00 00
	00		 mov	 eax, DWORD PTR fs:0
  00010	50		 push	 eax
  00011	53		 push	 ebx
  00012	56		 push	 esi
  00013	57		 push	 edi
  00014	a1 00 00 00 00	 mov	 eax, DWORD PTR ___security_cookie
  00019	33 c5		 xor	 eax, ebp
  0001b	50		 push	 eax
  0001c	8d 45 f4	 lea	 eax, DWORD PTR __$EHRec$[ebp]
  0001f	64 a3 00 00 00
	00		 mov	 DWORD PTR fs:0, eax
  00025	8b f1		 mov	 esi, ecx
  00027	8b 45 08	 mov	 eax, DWORD PTR ___flags$[ebp]
  0002a	8b f8		 mov	 edi, eax
  0002c	83 e7 01	 and	 edi, 1
  0002f	a8 02		 test	 al, 2
  00031	74 3f		 je	 SHORT $LN2@vector
  00033	68 00 00 00 00	 push	 OFFSET ??1TiXmlBase@@UAE@XZ ; TiXmlBase::~TiXmlBase
  00038	ff 76 fc	 push	 DWORD PTR [esi-4]
  0003b	8d 5e fc	 lea	 ebx, DWORD PTR [esi-4]
  0003e	6a 10		 push	 16			; 00000010H
  00040	56		 push	 esi
  00041	e8 00 00 00 00	 call	 ??_M@YGXPAXIIP6EX0@Z@Z
  00046	85 ff		 test	 edi, edi
  00048	74 12		 je	 SHORT $LN3@vector
  0004a	8b 0b		 mov	 ecx, DWORD PTR [ebx]
  0004c	c1 e1 04	 shl	 ecx, 4
  0004f	83 c1 04	 add	 ecx, 4
  00052	51		 push	 ecx
  00053	53		 push	 ebx
  00054	e8 00 00 00 00	 call	 ??_V@YAXPAXI@Z		; operator delete[]
  00059	83 c4 08	 add	 esp, 8
$LN3@vector:
  0005c	8b c3		 mov	 eax, ebx
  0005e	8b 4d f4	 mov	 ecx, DWORD PTR __$EHRec$[ebp]
  00061	64 89 0d 00 00
	00 00		 mov	 DWORD PTR fs:0, ecx
  00068	59		 pop	 ecx
  00069	5f		 pop	 edi
  0006a	5e		 pop	 esi
  0006b	5b		 pop	 ebx
  0006c	8b e5		 mov	 esp, ebp
  0006e	5d		 pop	 ebp
  0006f	c2 04 00	 ret	 4
$LN2@vector:
  00072	c7 06 00 00 00
	00		 mov	 DWORD PTR [esi], OFFSET ??_7TiXmlBase@@6B@
  00078	85 ff		 test	 edi, edi
  0007a	74 0b		 je	 SHORT $LN4@vector
  0007c	6a 10		 push	 16			; 00000010H
  0007e	56		 push	 esi
  0007f	e8 00 00 00 00	 call	 ??3@YAXPAXI@Z		; operator delete
  00084	83 c4 08	 add	 esp, 8
$LN4@vector:
  00087	8b c6		 mov	 eax, esi
  00089	8b 4d f4	 mov	 ecx, DWORD PTR __$EHRec$[ebp]
  0008c	64 89 0d 00 00
	00 00		 mov	 DWORD PTR fs:0, ecx
  00093	59		 pop	 ecx
  00094	5f		 pop	 edi
  00095	5e		 pop	 esi
  00096	5b		 pop	 ebx
  00097	8b e5		 mov	 esp, ebp
  00099	5d		 pop	 ebp
  0009a	c2 04 00	 ret	 4
  0009d	cc		 int	 3
  0009e	cc		 int	 3
  0009f	cc		 int	 3
  000a0	cc		 int	 3
  000a1	cc		 int	 3
_TEXT	ENDS
;	COMDAT text$x
text$x	SEGMENT
__ehhandler$??_ETiXmlBase@@UAEPAXI@Z:
  00000	90		 npad	 1
  00001	90		 npad	 1
  00002	8b 54 24 08	 mov	 edx, DWORD PTR [esp+8]
  00006	8d 42 0c	 lea	 eax, DWORD PTR [edx+12]
  00009	8b 4a f0	 mov	 ecx, DWORD PTR [edx-16]
  0000c	33 c8		 xor	 ecx, eax
  0000e	e8 00 00 00 00	 call	 @__security_check_cookie@4
  00013	b8 00 00 00 00	 mov	 eax, OFFSET __ehfuncinfo$??_ETiXmlBase@@UAEPAXI@Z
  00018	e9 00 00 00 00	 jmp	 ___CxxFrameHandler3
text$x	ENDS
??_ETiXmlBase@@UAEPAXI@Z ENDP				; TiXmlBase::`vector deleting destructor'
; Function compile flags: /Ogtp
;	COMDAT ??_GTiXmlBase@@UAEPAXI@Z
_TEXT	SEGMENT
___flags$ = 8						; size = 4
??_GTiXmlBase@@UAEPAXI@Z PROC				; TiXmlBase::`scalar deleting destructor', COMDAT
; _this$ = ecx
  00000	55		 push	 ebp
  00001	8b ec		 mov	 ebp, esp
  00003	f6 45 08 01	 test	 BYTE PTR ___flags$[ebp], 1
  00007	56		 push	 esi
  00008	8b f1		 mov	 esi, ecx
  0000a	c7 06 00 00 00
	00		 mov	 DWORD PTR [esi], OFFSET ??_7TiXmlBase@@6B@
  00010	74 0b		 je	 SHORT $LN5@scalar
  00012	6a 10		 push	 16			; 00000010H
  00014	56		 push	 esi
  00015	e8 00 00 00 00	 call	 ??3@YAXPAXI@Z		; operator delete
  0001a	83 c4 08	 add	 esp, 8
$LN5@scalar:
  0001d	8b c6		 mov	 eax, esi
  0001f	5e		 pop	 esi
  00020	5d		 pop	 ebp
  00021	c2 04 00	 ret	 4
??_GTiXmlBase@@UAEPAXI@Z ENDP				; TiXmlBase::`scalar deleting destructor'
_TEXT	ENDS
; Function compile flags: /Ogtp
; File E:\Proyectos\JuegosOnlineproyectos\PB\pbblow\Piercing Blow Remake\i3Server\include\i3Base\tinyxml.h
;	COMDAT ?ToLower@TiXmlBase@@KAHHW4TiXmlEncoding@@@Z
_TEXT	SEGMENT
_v$ = 8							; size = 4
_encoding$ = 12						; size = 4
?ToLower@TiXmlBase@@KAHHW4TiXmlEncoding@@@Z PROC	; TiXmlBase::ToLower, COMDAT

; 387  : 	{

  00000	55		 push	 ebp
  00001	8b ec		 mov	 ebp, esp

; 388  : 		if ( encoding == TIXML_ENCODING_UTF8 )

  00003	83 7d 0c 01	 cmp	 DWORD PTR _encoding$[ebp], 1
  00007	75 15		 jne	 SHORT $LN2@ToLower

; 389  : 		{
; 390  : 			if ( v < 128 ) return tolower( v );

  00009	8b 45 08	 mov	 eax, DWORD PTR _v$[ebp]
  0000c	3d 80 00 00 00	 cmp	 eax, 128		; 00000080H
  00011	7d 16		 jge	 SHORT $LN3@ToLower
  00013	50		 push	 eax

; 396  : 		}
; 397  : 	}

  00014	e8 00 00 00 00	 call	 _tolower
  00019	83 c4 04	 add	 esp, 4
  0001c	5d		 pop	 ebp
  0001d	c3		 ret	 0
$LN2@ToLower:

; 391  : 			return v;
; 392  : 		}
; 393  : 		else
; 394  : 		{
; 395  : 			return tolower( v );

  0001e	ff 75 08	 push	 DWORD PTR _v$[ebp]

; 396  : 		}
; 397  : 	}

  00021	e8 00 00 00 00	 call	 _tolower
  00026	83 c4 04	 add	 esp, 4
$LN3@ToLower:
  00029	5d		 pop	 ebp
  0002a	c3		 ret	 0
?ToLower@TiXmlBase@@KAHHW4TiXmlEncoding@@@Z ENDP	; TiXmlBase::ToLower
_TEXT	ENDS
; Function compile flags: /Ogtp
; File E:\Proyectos\JuegosOnlineproyectos\PB\pbblow\Piercing Blow Remake\i3Server\include\i3Base\tinyxml.h
;	COMDAT ?GetChar@TiXmlBase@@KAPBDPBDPADPAHW4TiXmlEncoding@@@Z
_TEXT	SEGMENT
_p$ = 8							; size = 4
__value$ = 12						; size = 4
_length$ = 16						; size = 4
_encoding$ = 20						; size = 4
?GetChar@TiXmlBase@@KAPBDPBDPADPAHW4TiXmlEncoding@@@Z PROC ; TiXmlBase::GetChar, COMDAT

; 332  : 	{

  00000	55		 push	 ebp
  00001	8b ec		 mov	 ebp, esp

; 333  : 		I3ASSERT( p );
; 334  : 		if ( encoding == TIXML_ENCODING_UTF8 )

  00003	8b 4d 14	 mov	 ecx, DWORD PTR _encoding$[ebp]
  00006	8b 55 08	 mov	 edx, DWORD PTR _p$[ebp]
  00009	56		 push	 esi
  0000a	8b 75 10	 mov	 esi, DWORD PTR _length$[ebp]
  0000d	57		 push	 edi
  0000e	8b 7d 0c	 mov	 edi, DWORD PTR __value$[ebp]
  00011	83 f9 01	 cmp	 ecx, 1
  00014	75 39		 jne	 SHORT $LN5@GetChar

; 335  : 		{
; 336  : 			*length = utf8ByteTable[ *((const unsigned char*)p) ];

  00016	0f b6 02	 movzx	 eax, BYTE PTR [edx]
  00019	8b 04 85 00 00
	00 00		 mov	 eax, DWORD PTR ?utf8ByteTable@TiXmlBase@@2QBHB[eax*4]

; 342  : 		}
; 343  : 
; 344  : 		if ( *length == 1 )

  00020	89 06		 mov	 DWORD PTR [esi], eax
  00022	3b c1		 cmp	 eax, ecx
  00024	74 2f		 je	 SHORT $LN17@GetChar

; 350  : 		}
; 351  : 		else if ( *length )

  00026	85 c0		 test	 eax, eax
  00028	74 1f		 je	 SHORT $LN10@GetChar

; 352  : 		{
; 353  : 			//strncpy( _value, p, *length );	// lots of compilers don't like this function (unsafe),
; 354  : 												// and the null terminator isn't needed
; 355  : 			for( int i=0; p[i] && i<*length; ++i ) {

  0002a	33 c9		 xor	 ecx, ecx
  0002c	38 0a		 cmp	 BYTE PTR [edx], cl
  0002e	74 11		 je	 SHORT $LN18@GetChar
$LL4@GetChar:
  00030	3b 0e		 cmp	 ecx, DWORD PTR [esi]
  00032	7d 0d		 jge	 SHORT $LN18@GetChar

; 356  : 				_value[i] = p[i];

  00034	8a 04 0a	 mov	 al, BYTE PTR [edx+ecx]
  00037	88 04 39	 mov	 BYTE PTR [ecx+edi], al
  0003a	41		 inc	 ecx
  0003b	80 3c 0a 00	 cmp	 BYTE PTR [edx+ecx], 0
  0003f	75 ef		 jne	 SHORT $LL4@GetChar
$LN18@GetChar:

; 357  : 			}
; 358  : 			return p + (*length);

  00041	8b 06		 mov	 eax, DWORD PTR [esi]
  00043	5f		 pop	 edi
  00044	03 c2		 add	 eax, edx

; 364  : 		}
; 365  : 	}

  00046	5e		 pop	 esi
  00047	5d		 pop	 ebp
  00048	c3		 ret	 0
$LN10@GetChar:
  00049	5f		 pop	 edi

; 359  : 		}
; 360  : 		else
; 361  : 		{
; 362  : 			// Not valid text.
; 363  : 			return 0;

  0004a	33 c0		 xor	 eax, eax

; 364  : 		}
; 365  : 	}

  0004c	5e		 pop	 esi
  0004d	5d		 pop	 ebp
  0004e	c3		 ret	 0
$LN5@GetChar:

; 337  : 			I3ASSERT( *length >= 0 && *length < 5 );
; 338  : 		}
; 339  : 		else
; 340  : 		{
; 341  : 			*length = 1;

  0004f	c7 06 01 00 00
	00		 mov	 DWORD PTR [esi], 1
$LN17@GetChar:

; 345  : 		{
; 346  : 			if ( *p == '&' )

  00055	8a 02		 mov	 al, BYTE PTR [edx]
  00057	3c 26		 cmp	 al, 38			; 00000026H
  00059	75 10		 jne	 SHORT $LN9@GetChar

; 347  : 				return GetEntity( p, _value, length, encoding );

  0005b	51		 push	 ecx
  0005c	56		 push	 esi
  0005d	57		 push	 edi
  0005e	52		 push	 edx
  0005f	e8 00 00 00 00	 call	 ?GetEntity@TiXmlBase@@KAPBDPBDPADPAHW4TiXmlEncoding@@@Z ; TiXmlBase::GetEntity
  00064	83 c4 10	 add	 esp, 16			; 00000010H
  00067	5f		 pop	 edi

; 364  : 		}
; 365  : 	}

  00068	5e		 pop	 esi
  00069	5d		 pop	 ebp
  0006a	c3		 ret	 0
$LN9@GetChar:

; 348  : 			*_value = *p;

  0006b	88 07		 mov	 BYTE PTR [edi], al

; 349  : 			return p+1;

  0006d	8d 42 01	 lea	 eax, DWORD PTR [edx+1]
  00070	5f		 pop	 edi

; 364  : 		}
; 365  : 	}

  00071	5e		 pop	 esi
  00072	5d		 pop	 ebp
  00073	c3		 ret	 0
?GetChar@TiXmlBase@@KAPBDPBDPADPAHW4TiXmlEncoding@@@Z ENDP ; TiXmlBase::GetChar
_TEXT	ENDS
; Function compile flags: /Ogtp
; File E:\Proyectos\JuegosOnlineproyectos\PB\pbblow\Piercing Blow Remake\i3Server\include\i3Base\tinyxml.h
;	COMDAT ?IsWhiteSpace@TiXmlBase@@KA_NH@Z
_TEXT	SEGMENT
_c$ = 8							; size = 4
?IsWhiteSpace@TiXmlBase@@KA_NH@Z PROC			; TiXmlBase::IsWhiteSpace, COMDAT

; 299  : 	{

  00000	55		 push	 ebp
  00001	8b ec		 mov	 ebp, esp
  00003	53		 push	 ebx

; 300  : 		if ( c < 256 )

  00004	8b 5d 08	 mov	 ebx, DWORD PTR _c$[ebp]
  00007	81 fb 00 01 00
	00		 cmp	 ebx, 256		; 00000100H
  0000d	7d 1f		 jge	 SHORT $LN2@IsWhiteSpa

; 296  : 		return ( isspace( (unsigned char) c ) || c == '\n' || c == '\r' ); 

  0000f	0f b6 c3	 movzx	 eax, bl
  00012	50		 push	 eax
  00013	e8 00 00 00 00	 call	 _isspace
  00018	83 c4 04	 add	 esp, 4
  0001b	85 c0		 test	 eax, eax
  0001d	75 0a		 jne	 SHORT $LN6@IsWhiteSpa
  0001f	80 fb 0a	 cmp	 bl, 10			; 0000000aH
  00022	74 05		 je	 SHORT $LN6@IsWhiteSpa
  00024	80 fb 0d	 cmp	 bl, 13			; 0000000dH
  00027	75 05		 jne	 SHORT $LN2@IsWhiteSpa
$LN6@IsWhiteSpa:
  00029	b0 01		 mov	 al, 1
  0002b	5b		 pop	 ebx

; 301  : 			return IsWhiteSpace( (char) c );
; 302  : 		return false;	// Again, only truly correct for English/Latin...but usually works.
; 303  : 	}

  0002c	5d		 pop	 ebp
  0002d	c3		 ret	 0
$LN2@IsWhiteSpa:
  0002e	32 c0		 xor	 al, al
  00030	5b		 pop	 ebx
  00031	5d		 pop	 ebp
  00032	c3		 ret	 0
?IsWhiteSpace@TiXmlBase@@KA_NH@Z ENDP			; TiXmlBase::IsWhiteSpace
_TEXT	ENDS
; Function compile flags: /Ogtp
; File E:\Proyectos\JuegosOnlineproyectos\PB\pbblow\Piercing Blow Remake\i3Server\include\i3Base\tinyxml.h
;	COMDAT ?IsWhiteSpace@TiXmlBase@@KA_ND@Z
_TEXT	SEGMENT
_c$ = 8							; size = 1
?IsWhiteSpace@TiXmlBase@@KA_ND@Z PROC			; TiXmlBase::IsWhiteSpace, COMDAT

; 295  : 	{ 

  00000	55		 push	 ebp
  00001	8b ec		 mov	 ebp, esp
  00003	53		 push	 ebx

; 296  : 		return ( isspace( (unsigned char) c ) || c == '\n' || c == '\r' ); 

  00004	8a 5d 08	 mov	 bl, BYTE PTR _c$[ebp]
  00007	0f b6 c3	 movzx	 eax, bl
  0000a	50		 push	 eax
  0000b	e8 00 00 00 00	 call	 _isspace
  00010	83 c4 04	 add	 esp, 4
  00013	85 c0		 test	 eax, eax
  00015	75 0f		 jne	 SHORT $LN3@IsWhiteSpa
  00017	80 fb 0a	 cmp	 bl, 10			; 0000000aH
  0001a	74 0a		 je	 SHORT $LN3@IsWhiteSpa
  0001c	80 fb 0d	 cmp	 bl, 13			; 0000000dH
  0001f	74 05		 je	 SHORT $LN3@IsWhiteSpa
  00021	32 c0		 xor	 al, al
  00023	5b		 pop	 ebx

; 297  : 	}

  00024	5d		 pop	 ebp
  00025	c3		 ret	 0
$LN3@IsWhiteSpa:

; 296  : 		return ( isspace( (unsigned char) c ) || c == '\n' || c == '\r' ); 

  00026	b0 01		 mov	 al, 1
  00028	5b		 pop	 ebx

; 297  : 	}

  00029	5d		 pop	 ebp
  0002a	c3		 ret	 0
?IsWhiteSpace@TiXmlBase@@KA_ND@Z ENDP			; TiXmlBase::IsWhiteSpace
_TEXT	ENDS
; Function compile flags: /Ogtp
; File E:\Proyectos\JuegosOnlineproyectos\PB\pbblow\Piercing Blow Remake\i3Server\include\i3Base\tinyxml.h
;	COMDAT ?GetUserData@TiXmlBase@@QBEPBXXZ
_TEXT	SEGMENT
?GetUserData@TiXmlBase@@QBEPBXXZ PROC			; TiXmlBase::GetUserData, COMDAT
; _this$ = ecx

; 253  : 	const void* GetUserData() const 		{ return userData; }	///< Get a pointer to arbitrary user data.

  00000	8b 41 0c	 mov	 eax, DWORD PTR [ecx+12]
  00003	c3		 ret	 0
?GetUserData@TiXmlBase@@QBEPBXXZ ENDP			; TiXmlBase::GetUserData
_TEXT	ENDS
; Function compile flags: /Ogtp
; File E:\Proyectos\JuegosOnlineproyectos\PB\pbblow\Piercing Blow Remake\i3Server\include\i3Base\tinyxml.h
;	COMDAT ?GetUserData@TiXmlBase@@QAEPAXXZ
_TEXT	SEGMENT
?GetUserData@TiXmlBase@@QAEPAXXZ PROC			; TiXmlBase::GetUserData, COMDAT
; _this$ = ecx

; 252  : 	void* GetUserData()						{ return userData; }	///< Get a pointer to arbitrary user data.

  00000	8b 41 0c	 mov	 eax, DWORD PTR [ecx+12]
  00003	c3		 ret	 0
?GetUserData@TiXmlBase@@QAEPAXXZ ENDP			; TiXmlBase::GetUserData
_TEXT	ENDS
; Function compile flags: /Ogtp
; File E:\Proyectos\JuegosOnlineproyectos\PB\pbblow\Piercing Blow Remake\i3Server\include\i3Base\tinyxml.h
;	COMDAT ?SetUserData@TiXmlBase@@QAEXPAX@Z
_TEXT	SEGMENT
_user$ = 8						; size = 4
?SetUserData@TiXmlBase@@QAEXPAX@Z PROC			; TiXmlBase::SetUserData, COMDAT
; _this$ = ecx

; 251  : 	void  SetUserData( void* user )			{ userData = user; }	///< Set a pointer to arbitrary user data.

  00000	55		 push	 ebp
  00001	8b ec		 mov	 ebp, esp
  00003	8b 45 08	 mov	 eax, DWORD PTR _user$[ebp]
  00006	89 41 0c	 mov	 DWORD PTR [ecx+12], eax
  00009	5d		 pop	 ebp
  0000a	c2 04 00	 ret	 4
?SetUserData@TiXmlBase@@QAEXPAX@Z ENDP			; TiXmlBase::SetUserData
_TEXT	ENDS
; Function compile flags: /Ogtp
; File E:\Proyectos\JuegosOnlineproyectos\PB\pbblow\Piercing Blow Remake\i3Server\include\i3Base\tinyxml.h
;	COMDAT ?Column@TiXmlBase@@QBEHXZ
_TEXT	SEGMENT
?Column@TiXmlBase@@QBEHXZ PROC				; TiXmlBase::Column, COMDAT
; _this$ = ecx

; 249  : 	int Column() const		{ return location.col + 1; }	///< See Row()

  00000	8b 41 08	 mov	 eax, DWORD PTR [ecx+8]
  00003	40		 inc	 eax
  00004	c3		 ret	 0
?Column@TiXmlBase@@QBEHXZ ENDP				; TiXmlBase::Column
_TEXT	ENDS
; Function compile flags: /Ogtp
; File E:\Proyectos\JuegosOnlineproyectos\PB\pbblow\Piercing Blow Remake\i3Server\include\i3Base\tinyxml.h
;	COMDAT ?Row@TiXmlBase@@QBEHXZ
_TEXT	SEGMENT
?Row@TiXmlBase@@QBEHXZ PROC				; TiXmlBase::Row, COMDAT
; _this$ = ecx

; 248  : 	int Row() const			{ return location.row + 1; }

  00000	8b 41 04	 mov	 eax, DWORD PTR [ecx+4]
  00003	40		 inc	 eax
  00004	c3		 ret	 0
?Row@TiXmlBase@@QBEHXZ ENDP				; TiXmlBase::Row
_TEXT	ENDS
; Function compile flags: /Ogtp
; File E:\Proyectos\JuegosOnlineproyectos\PB\pbblow\Piercing Blow Remake\i3Server\include\i3Base\tinyxml.h
;	COMDAT ?IsWhiteSpaceCondensed@TiXmlBase@@SA_NXZ
_TEXT	SEGMENT
?IsWhiteSpaceCondensed@TiXmlBase@@SA_NXZ PROC		; TiXmlBase::IsWhiteSpaceCondensed, COMDAT

; 228  : 	static bool IsWhiteSpaceCondensed()						{ return condenseWhiteSpace; }

  00000	a0 00 00 00 00	 mov	 al, BYTE PTR ?condenseWhiteSpace@TiXmlBase@@0_NA ; TiXmlBase::condenseWhiteSpace
  00005	c3		 ret	 0
?IsWhiteSpaceCondensed@TiXmlBase@@SA_NXZ ENDP		; TiXmlBase::IsWhiteSpaceCondensed
_TEXT	ENDS
; Function compile flags: /Ogtp
; File E:\Proyectos\JuegosOnlineproyectos\PB\pbblow\Piercing Blow Remake\i3Server\include\i3Base\tinyxml.h
;	COMDAT ?SetCondenseWhiteSpace@TiXmlBase@@SAX_N@Z
_TEXT	SEGMENT
_condense$ = 8						; size = 1
?SetCondenseWhiteSpace@TiXmlBase@@SAX_N@Z PROC		; TiXmlBase::SetCondenseWhiteSpace, COMDAT

; 225  : 	static void SetCondenseWhiteSpace( bool condense )		{ condenseWhiteSpace = condense; }

  00000	55		 push	 ebp
  00001	8b ec		 mov	 ebp, esp
  00003	8a 45 08	 mov	 al, BYTE PTR _condense$[ebp]
  00006	a2 00 00 00 00	 mov	 BYTE PTR ?condenseWhiteSpace@TiXmlBase@@0_NA, al ; TiXmlBase::condenseWhiteSpace
  0000b	5d		 pop	 ebp
  0000c	c3		 ret	 0
?SetCondenseWhiteSpace@TiXmlBase@@SAX_N@Z ENDP		; TiXmlBase::SetCondenseWhiteSpace
_TEXT	ENDS
; Function compile flags: /Ogtp
; File E:\Proyectos\JuegosOnlineproyectos\PB\pbblow\Piercing Blow Remake\i3Server\include\i3Base\tinyxml.h
;	COMDAT ??1TiXmlBase@@UAE@XZ
_TEXT	SEGMENT
??1TiXmlBase@@UAE@XZ PROC				; TiXmlBase::~TiXmlBase, COMDAT
; _this$ = ecx

; 206  : 	virtual ~TiXmlBase()			{}

  00000	c7 01 00 00 00
	00		 mov	 DWORD PTR [ecx], OFFSET ??_7TiXmlBase@@6B@
  00006	c3		 ret	 0
??1TiXmlBase@@UAE@XZ ENDP				; TiXmlBase::~TiXmlBase
_TEXT	ENDS
; Function compile flags: /Ogtp
; File E:\Proyectos\JuegosOnlineproyectos\PB\pbblow\Piercing Blow Remake\i3Server\include\i3Base\tinyxml.h
;	COMDAT ??0TiXmlBase@@QAE@XZ
_TEXT	SEGMENT
??0TiXmlBase@@QAE@XZ PROC				; TiXmlBase::TiXmlBase, COMDAT
; _this$ = ecx

; 205  : 	TiXmlBase()	:	userData(0)		{}

  00000	c7 01 00 00 00
	00		 mov	 DWORD PTR [ecx], OFFSET ??_7TiXmlBase@@6B@
  00006	8b c1		 mov	 eax, ecx

; 107  : 	void Clear()		{ row = col = -1; }

  00008	c7 41 08 ff ff
	ff ff		 mov	 DWORD PTR [ecx+8], -1
  0000f	c7 41 04 ff ff
	ff ff		 mov	 DWORD PTR [ecx+4], -1

; 205  : 	TiXmlBase()	:	userData(0)		{}

  00016	c7 41 0c 00 00
	00 00		 mov	 DWORD PTR [ecx+12], 0
  0001d	c3		 ret	 0
??0TiXmlBase@@QAE@XZ ENDP				; TiXmlBase::TiXmlBase
_TEXT	ENDS
; Function compile flags: /Ogtp
;	COMDAT ??_ETiXmlVisitor@@UAEPAXI@Z
_TEXT	SEGMENT
__$EHRec$ = -12						; size = 12
___flags$ = 8						; size = 4
??_ETiXmlVisitor@@UAEPAXI@Z PROC			; TiXmlVisitor::`vector deleting destructor', COMDAT
; _this$ = ecx
  00000	55		 push	 ebp
  00001	8b ec		 mov	 ebp, esp
  00003	6a ff		 push	 -1
  00005	68 00 00 00 00	 push	 __ehhandler$??_ETiXmlVisitor@@UAEPAXI@Z
  0000a	64 a1 00 00 00
	00		 mov	 eax, DWORD PTR fs:0
  00010	50		 push	 eax
  00011	53		 push	 ebx
  00012	56		 push	 esi
  00013	57		 push	 edi
  00014	a1 00 00 00 00	 mov	 eax, DWORD PTR ___security_cookie
  00019	33 c5		 xor	 eax, ebp
  0001b	50		 push	 eax
  0001c	8d 45 f4	 lea	 eax, DWORD PTR __$EHRec$[ebp]
  0001f	64 a3 00 00 00
	00		 mov	 DWORD PTR fs:0, eax
  00025	8b f1		 mov	 esi, ecx
  00027	8b 45 08	 mov	 eax, DWORD PTR ___flags$[ebp]
  0002a	8b f8		 mov	 edi, eax
  0002c	83 e7 01	 and	 edi, 1
  0002f	a8 02		 test	 al, 2
  00031	74 40		 je	 SHORT $LN2@vector
  00033	68 00 00 00 00	 push	 OFFSET ??1TiXmlVisitor@@UAE@XZ ; TiXmlVisitor::~TiXmlVisitor
  00038	ff 76 fc	 push	 DWORD PTR [esi-4]
  0003b	8d 5e fc	 lea	 ebx, DWORD PTR [esi-4]
  0003e	6a 04		 push	 4
  00040	56		 push	 esi
  00041	e8 00 00 00 00	 call	 ??_M@YGXPAXIIP6EX0@Z@Z
  00046	85 ff		 test	 edi, edi
  00048	74 13		 je	 SHORT $LN3@vector
  0004a	8b 0b		 mov	 ecx, DWORD PTR [ebx]
  0004c	8d 0c 8d 04 00
	00 00		 lea	 ecx, DWORD PTR [ecx*4+4]
  00053	51		 push	 ecx
  00054	53		 push	 ebx
  00055	e8 00 00 00 00	 call	 ??_V@YAXPAXI@Z		; operator delete[]
  0005a	83 c4 08	 add	 esp, 8
$LN3@vector:
  0005d	8b c3		 mov	 eax, ebx
  0005f	8b 4d f4	 mov	 ecx, DWORD PTR __$EHRec$[ebp]
  00062	64 89 0d 00 00
	00 00		 mov	 DWORD PTR fs:0, ecx
  00069	59		 pop	 ecx
  0006a	5f		 pop	 edi
  0006b	5e		 pop	 esi
  0006c	5b		 pop	 ebx
  0006d	8b e5		 mov	 esp, ebp
  0006f	5d		 pop	 ebp
  00070	c2 04 00	 ret	 4
$LN2@vector:
  00073	c7 06 00 00 00
	00		 mov	 DWORD PTR [esi], OFFSET ??_7TiXmlVisitor@@6B@
  00079	85 ff		 test	 edi, edi
  0007b	74 0b		 je	 SHORT $LN4@vector
  0007d	6a 04		 push	 4
  0007f	56		 push	 esi
  00080	e8 00 00 00 00	 call	 ??3@YAXPAXI@Z		; operator delete
  00085	83 c4 08	 add	 esp, 8
$LN4@vector:
  00088	8b c6		 mov	 eax, esi
  0008a	8b 4d f4	 mov	 ecx, DWORD PTR __$EHRec$[ebp]
  0008d	64 89 0d 00 00
	00 00		 mov	 DWORD PTR fs:0, ecx
  00094	59		 pop	 ecx
  00095	5f		 pop	 edi
  00096	5e		 pop	 esi
  00097	5b		 pop	 ebx
  00098	8b e5		 mov	 esp, ebp
  0009a	5d		 pop	 ebp
  0009b	c2 04 00	 ret	 4
  0009e	cc		 int	 3
  0009f	cc		 int	 3
  000a0	cc		 int	 3
  000a1	cc		 int	 3
  000a2	cc		 int	 3
_TEXT	ENDS
;	COMDAT text$x
text$x	SEGMENT
__ehhandler$??_ETiXmlVisitor@@UAEPAXI@Z:
  00000	90		 npad	 1
  00001	90		 npad	 1
  00002	8b 54 24 08	 mov	 edx, DWORD PTR [esp+8]
  00006	8d 42 0c	 lea	 eax, DWORD PTR [edx+12]
  00009	8b 4a f0	 mov	 ecx, DWORD PTR [edx-16]
  0000c	33 c8		 xor	 ecx, eax
  0000e	e8 00 00 00 00	 call	 @__security_check_cookie@4
  00013	b8 00 00 00 00	 mov	 eax, OFFSET __ehfuncinfo$??_ETiXmlVisitor@@UAEPAXI@Z
  00018	e9 00 00 00 00	 jmp	 ___CxxFrameHandler3
text$x	ENDS
??_ETiXmlVisitor@@UAEPAXI@Z ENDP			; TiXmlVisitor::`vector deleting destructor'
; Function compile flags: /Ogtp
;	COMDAT ??_GTiXmlVisitor@@UAEPAXI@Z
_TEXT	SEGMENT
___flags$ = 8						; size = 4
??_GTiXmlVisitor@@UAEPAXI@Z PROC			; TiXmlVisitor::`scalar deleting destructor', COMDAT
; _this$ = ecx
  00000	55		 push	 ebp
  00001	8b ec		 mov	 ebp, esp
  00003	f6 45 08 01	 test	 BYTE PTR ___flags$[ebp], 1
  00007	56		 push	 esi
  00008	8b f1		 mov	 esi, ecx
  0000a	c7 06 00 00 00
	00		 mov	 DWORD PTR [esi], OFFSET ??_7TiXmlVisitor@@6B@
  00010	74 0b		 je	 SHORT $LN5@scalar
  00012	6a 04		 push	 4
  00014	56		 push	 esi
  00015	e8 00 00 00 00	 call	 ??3@YAXPAXI@Z		; operator delete
  0001a	83 c4 08	 add	 esp, 8
$LN5@scalar:
  0001d	8b c6		 mov	 eax, esi
  0001f	5e		 pop	 esi
  00020	5d		 pop	 ebp
  00021	c2 04 00	 ret	 4
??_GTiXmlVisitor@@UAEPAXI@Z ENDP			; TiXmlVisitor::`scalar deleting destructor'
_TEXT	ENDS
; Function compile flags: /Ogtp
;	COMDAT ??4TiXmlVisitor@@QAEAAV0@ABV0@@Z
_TEXT	SEGMENT
___that$ = 8						; size = 4
??4TiXmlVisitor@@QAEAAV0@ABV0@@Z PROC			; TiXmlVisitor::operator=, COMDAT
; _this$ = ecx
  00000	8b c1		 mov	 eax, ecx
  00002	c2 04 00	 ret	 4
??4TiXmlVisitor@@QAEAAV0@ABV0@@Z ENDP			; TiXmlVisitor::operator=
_TEXT	ENDS
; Function compile flags: /Ogtp
;	COMDAT ??0TiXmlVisitor@@QAE@ABV0@@Z
_TEXT	SEGMENT
___that$ = 8						; size = 4
??0TiXmlVisitor@@QAE@ABV0@@Z PROC			; TiXmlVisitor::TiXmlVisitor, COMDAT
; _this$ = ecx
  00000	c7 01 00 00 00
	00		 mov	 DWORD PTR [ecx], OFFSET ??_7TiXmlVisitor@@6B@
  00006	8b c1		 mov	 eax, ecx
  00008	c2 04 00	 ret	 4
??0TiXmlVisitor@@QAE@ABV0@@Z ENDP			; TiXmlVisitor::TiXmlVisitor
_TEXT	ENDS
; Function compile flags: /Ogtp
;	COMDAT ??0TiXmlVisitor@@QAE@XZ
_TEXT	SEGMENT
??0TiXmlVisitor@@QAE@XZ PROC				; TiXmlVisitor::TiXmlVisitor, COMDAT
; _this$ = ecx
  00000	c7 01 00 00 00
	00		 mov	 DWORD PTR [ecx], OFFSET ??_7TiXmlVisitor@@6B@
  00006	8b c1		 mov	 eax, ecx
  00008	c3		 ret	 0
??0TiXmlVisitor@@QAE@XZ ENDP				; TiXmlVisitor::TiXmlVisitor
_TEXT	ENDS
; Function compile flags: /Ogtp
; File E:\Proyectos\JuegosOnlineproyectos\PB\pbblow\Piercing Blow Remake\i3Server\include\i3Base\tinyxml.h
;	COMDAT ?Visit@TiXmlVisitor@@UAE_NABVTiXmlUnknown@@@Z
_TEXT	SEGMENT
___formal$ = 8						; size = 4
?Visit@TiXmlVisitor@@UAE_NABVTiXmlUnknown@@@Z PROC	; TiXmlVisitor::Visit, COMDAT
; _this$ = ecx

; 154  : 	virtual bool Visit( const TiXmlUnknown& /*unknown*/ )			{ return true; }

  00000	b0 01		 mov	 al, 1
  00002	c2 04 00	 ret	 4
?Visit@TiXmlVisitor@@UAE_NABVTiXmlUnknown@@@Z ENDP	; TiXmlVisitor::Visit
_TEXT	ENDS
; Function compile flags: /Ogtp
; File E:\Proyectos\JuegosOnlineproyectos\PB\pbblow\Piercing Blow Remake\i3Server\include\i3Base\tinyxml.h
;	COMDAT ?Visit@TiXmlVisitor@@UAE_NABVTiXmlComment@@@Z
_TEXT	SEGMENT
___formal$ = 8						; size = 4
?Visit@TiXmlVisitor@@UAE_NABVTiXmlComment@@@Z PROC	; TiXmlVisitor::Visit, COMDAT
; _this$ = ecx

; 152  : 	virtual bool Visit( const TiXmlComment& /*comment*/ )			{ return true; }

  00000	b0 01		 mov	 al, 1
  00002	c2 04 00	 ret	 4
?Visit@TiXmlVisitor@@UAE_NABVTiXmlComment@@@Z ENDP	; TiXmlVisitor::Visit
_TEXT	ENDS
; Function compile flags: /Ogtp
; File E:\Proyectos\JuegosOnlineproyectos\PB\pbblow\Piercing Blow Remake\i3Server\include\i3Base\tinyxml.h
;	COMDAT ?Visit@TiXmlVisitor@@UAE_NABVTiXmlText@@@Z
_TEXT	SEGMENT
___formal$ = 8						; size = 4
?Visit@TiXmlVisitor@@UAE_NABVTiXmlText@@@Z PROC		; TiXmlVisitor::Visit, COMDAT
; _this$ = ecx

; 150  : 	virtual bool Visit( const TiXmlText& /*text*/ )					{ return true; }

  00000	b0 01		 mov	 al, 1
  00002	c2 04 00	 ret	 4
?Visit@TiXmlVisitor@@UAE_NABVTiXmlText@@@Z ENDP		; TiXmlVisitor::Visit
_TEXT	ENDS
; Function compile flags: /Ogtp
; File E:\Proyectos\JuegosOnlineproyectos\PB\pbblow\Piercing Blow Remake\i3Server\include\i3Base\tinyxml.h
;	COMDAT ?Visit@TiXmlVisitor@@UAE_NABVTiXmlDeclaration@@@Z
_TEXT	SEGMENT
___formal$ = 8						; size = 4
?Visit@TiXmlVisitor@@UAE_NABVTiXmlDeclaration@@@Z PROC	; TiXmlVisitor::Visit, COMDAT
; _this$ = ecx

; 148  : 	virtual bool Visit( const TiXmlDeclaration& /*declaration*/ )	{ return true; }

  00000	b0 01		 mov	 al, 1
  00002	c2 04 00	 ret	 4
?Visit@TiXmlVisitor@@UAE_NABVTiXmlDeclaration@@@Z ENDP	; TiXmlVisitor::Visit
_TEXT	ENDS
; Function compile flags: /Ogtp
; File E:\Proyectos\JuegosOnlineproyectos\PB\pbblow\Piercing Blow Remake\i3Server\include\i3Base\tinyxml.h
;	COMDAT ?VisitExit@TiXmlVisitor@@UAE_NABVTiXmlElement@@@Z
_TEXT	SEGMENT
___formal$ = 8						; size = 4
?VisitExit@TiXmlVisitor@@UAE_NABVTiXmlElement@@@Z PROC	; TiXmlVisitor::VisitExit, COMDAT
; _this$ = ecx

; 145  : 	virtual bool VisitExit( const TiXmlElement& /*element*/ )		{ return true; }

  00000	b0 01		 mov	 al, 1
  00002	c2 04 00	 ret	 4
?VisitExit@TiXmlVisitor@@UAE_NABVTiXmlElement@@@Z ENDP	; TiXmlVisitor::VisitExit
_TEXT	ENDS
; Function compile flags: /Ogtp
; File E:\Proyectos\JuegosOnlineproyectos\PB\pbblow\Piercing Blow Remake\i3Server\include\i3Base\tinyxml.h
;	COMDAT ?VisitEnter@TiXmlVisitor@@UAE_NABVTiXmlElement@@PBVTiXmlAttribute@@@Z
_TEXT	SEGMENT
___formal$ = 8						; size = 4
___formal$ = 12						; size = 4
?VisitEnter@TiXmlVisitor@@UAE_NABVTiXmlElement@@PBVTiXmlAttribute@@@Z PROC ; TiXmlVisitor::VisitEnter, COMDAT
; _this$ = ecx

; 143  : 	virtual bool VisitEnter( const TiXmlElement& /*element*/, const TiXmlAttribute* /*firstAttribute*/ )	{ return true; }

  00000	b0 01		 mov	 al, 1
  00002	c2 08 00	 ret	 8
?VisitEnter@TiXmlVisitor@@UAE_NABVTiXmlElement@@PBVTiXmlAttribute@@@Z ENDP ; TiXmlVisitor::VisitEnter
_TEXT	ENDS
; Function compile flags: /Ogtp
; File E:\Proyectos\JuegosOnlineproyectos\PB\pbblow\Piercing Blow Remake\i3Server\include\i3Base\tinyxml.h
;	COMDAT ?VisitExit@TiXmlVisitor@@UAE_NABVTiXmlDocument@@@Z
_TEXT	SEGMENT
___formal$ = 8						; size = 4
?VisitExit@TiXmlVisitor@@UAE_NABVTiXmlDocument@@@Z PROC	; TiXmlVisitor::VisitExit, COMDAT
; _this$ = ecx

; 140  : 	virtual bool VisitExit( const TiXmlDocument& /*doc*/ )			{ return true; }

  00000	b0 01		 mov	 al, 1
  00002	c2 04 00	 ret	 4
?VisitExit@TiXmlVisitor@@UAE_NABVTiXmlDocument@@@Z ENDP	; TiXmlVisitor::VisitExit
_TEXT	ENDS
; Function compile flags: /Ogtp
; File E:\Proyectos\JuegosOnlineproyectos\PB\pbblow\Piercing Blow Remake\i3Server\include\i3Base\tinyxml.h
;	COMDAT ?VisitEnter@TiXmlVisitor@@UAE_NABVTiXmlDocument@@@Z
_TEXT	SEGMENT
___formal$ = 8						; size = 4
?VisitEnter@TiXmlVisitor@@UAE_NABVTiXmlDocument@@@Z PROC ; TiXmlVisitor::VisitEnter, COMDAT
; _this$ = ecx

; 138  : 	virtual bool VisitEnter( const TiXmlDocument& /*doc*/ )			{ return true; }

  00000	b0 01		 mov	 al, 1
  00002	c2 04 00	 ret	 4
?VisitEnter@TiXmlVisitor@@UAE_NABVTiXmlDocument@@@Z ENDP ; TiXmlVisitor::VisitEnter
_TEXT	ENDS
; Function compile flags: /Ogtp
; File E:\Proyectos\JuegosOnlineproyectos\PB\pbblow\Piercing Blow Remake\i3Server\include\i3Base\tinyxml.h
;	COMDAT ??1TiXmlVisitor@@UAE@XZ
_TEXT	SEGMENT
??1TiXmlVisitor@@UAE@XZ PROC				; TiXmlVisitor::~TiXmlVisitor, COMDAT
; _this$ = ecx

; 135  : 	virtual ~TiXmlVisitor() {}

  00000	c7 01 00 00 00
	00		 mov	 DWORD PTR [ecx], OFFSET ??_7TiXmlVisitor@@6B@
  00006	c3		 ret	 0
??1TiXmlVisitor@@UAE@XZ ENDP				; TiXmlVisitor::~TiXmlVisitor
_TEXT	ENDS
; Function compile flags: /Ogtp
;	COMDAT ??4TiXmlCursor@@QAEAAU0@$$QAU0@@Z
_TEXT	SEGMENT
___that$ = 8						; size = 4
??4TiXmlCursor@@QAEAAU0@$$QAU0@@Z PROC			; TiXmlCursor::operator=, COMDAT
; _this$ = ecx
  00000	55		 push	 ebp
  00001	8b ec		 mov	 ebp, esp
  00003	8b 55 08	 mov	 edx, DWORD PTR ___that$[ebp]
  00006	8b 02		 mov	 eax, DWORD PTR [edx]
  00008	89 01		 mov	 DWORD PTR [ecx], eax
  0000a	8b 42 04	 mov	 eax, DWORD PTR [edx+4]
  0000d	89 41 04	 mov	 DWORD PTR [ecx+4], eax
  00010	8b c1		 mov	 eax, ecx
  00012	5d		 pop	 ebp
  00013	c2 04 00	 ret	 4
??4TiXmlCursor@@QAEAAU0@$$QAU0@@Z ENDP			; TiXmlCursor::operator=
_TEXT	ENDS
; Function compile flags: /Ogtp
;	COMDAT ??4TiXmlCursor@@QAEAAU0@ABU0@@Z
_TEXT	SEGMENT
___that$ = 8						; size = 4
??4TiXmlCursor@@QAEAAU0@ABU0@@Z PROC			; TiXmlCursor::operator=, COMDAT
; _this$ = ecx
  00000	55		 push	 ebp
  00001	8b ec		 mov	 ebp, esp
  00003	8b 45 08	 mov	 eax, DWORD PTR ___that$[ebp]
  00006	8b 10		 mov	 edx, DWORD PTR [eax]
  00008	8b 40 04	 mov	 eax, DWORD PTR [eax+4]
  0000b	89 41 04	 mov	 DWORD PTR [ecx+4], eax
  0000e	8b c1		 mov	 eax, ecx
  00010	89 11		 mov	 DWORD PTR [ecx], edx
  00012	5d		 pop	 ebp
  00013	c2 04 00	 ret	 4
??4TiXmlCursor@@QAEAAU0@ABU0@@Z ENDP			; TiXmlCursor::operator=
_TEXT	ENDS
; Function compile flags: /Ogtp
; File E:\Proyectos\JuegosOnlineproyectos\PB\pbblow\Piercing Blow Remake\i3Server\include\i3Base\tinyxml.h
;	COMDAT ?Clear@TiXmlCursor@@QAEXXZ
_TEXT	SEGMENT
?Clear@TiXmlCursor@@QAEXXZ PROC				; TiXmlCursor::Clear, COMDAT
; _this$ = ecx

; 107  : 	void Clear()		{ row = col = -1; }

  00000	c7 41 04 ff ff
	ff ff		 mov	 DWORD PTR [ecx+4], -1
  00007	c7 01 ff ff ff
	ff		 mov	 DWORD PTR [ecx], -1
  0000d	c3		 ret	 0
?Clear@TiXmlCursor@@QAEXXZ ENDP				; TiXmlCursor::Clear
_TEXT	ENDS
; Function compile flags: /Ogtp
; File E:\Proyectos\JuegosOnlineproyectos\PB\pbblow\Piercing Blow Remake\i3Server\include\i3Base\tinyxml.h
;	COMDAT ??0TiXmlCursor@@QAE@XZ
_TEXT	SEGMENT
??0TiXmlCursor@@QAE@XZ PROC				; TiXmlCursor::TiXmlCursor, COMDAT
; _this$ = ecx

; 107  : 	void Clear()		{ row = col = -1; }

  00000	c7 41 04 ff ff
	ff ff		 mov	 DWORD PTR [ecx+4], -1

; 106  : 	TiXmlCursor()		{ Clear(); }

  00007	8b c1		 mov	 eax, ecx

; 107  : 	void Clear()		{ row = col = -1; }

  00009	c7 01 ff ff ff
	ff		 mov	 DWORD PTR [ecx], -1

; 106  : 	TiXmlCursor()		{ Clear(); }

  0000f	c3		 ret	 0
??0TiXmlCursor@@QAE@XZ ENDP				; TiXmlCursor::TiXmlCursor
_TEXT	ENDS
; Function compile flags: /Ogtp
; File E:\Proyectos\JuegosOnlineproyectos\PB\pbblow\Piercing Blow Remake\i3Server\include\i3Base\tinystr.h
;	COMDAT ?quit@TiXmlString@@AAEXXZ
_TEXT	SEGMENT
?quit@TiXmlString@@AAEXXZ PROC				; TiXmlString::quit, COMDAT
; _this$ = ecx

; 257  : 		if (rep_ != &nullrep_)

  00000	8b 01		 mov	 eax, DWORD PTR [ecx]
  00002	3d 00 00 00 00	 cmp	 eax, OFFSET ?nullrep_@TiXmlString@@0URep@1@A ; TiXmlString::nullrep_
  00007	74 07		 je	 SHORT $LN2@quit

; 258  : 		{
; 259  : 			// The rep_ is really an array of ints. (see the allocator, above).
; 260  : 			// Cast it back before delete, so the compiler won't incorrectly call destructors.
; 261  : 			delete [] ( reinterpret_cast<int*>( rep_ ) );

  00009	50		 push	 eax
  0000a	e8 00 00 00 00	 call	 ??_V@YAXPAX@Z		; operator delete[]
  0000f	59		 pop	 ecx
$LN2@quit:

; 262  : 		}
; 263  : 	}

  00010	c3		 ret	 0
?quit@TiXmlString@@AAEXXZ ENDP				; TiXmlString::quit
_TEXT	ENDS
; Function compile flags: /Ogtp
; File E:\Proyectos\JuegosOnlineproyectos\PB\pbblow\Piercing Blow Remake\i3Server\include\i3Base\tinystr.h
;	COMDAT ?init@TiXmlString@@AAEXII@Z
_TEXT	SEGMENT
_sz$ = 8						; size = 4
_cap$ = 12						; size = 4
?init@TiXmlString@@AAEXII@Z PROC			; TiXmlString::init, COMDAT
; _this$ = ecx

; 234  : 	{

  00000	55		 push	 ebp
  00001	8b ec		 mov	 ebp, esp
  00003	56		 push	 esi
  00004	57		 push	 edi

; 235  : 		if (cap)

  00005	8b 7d 0c	 mov	 edi, DWORD PTR _cap$[ebp]
  00008	8b f1		 mov	 esi, ecx
  0000a	85 ff		 test	 edi, edi
  0000c	74 37		 je	 SHORT $LN2@init

; 236  : 		{
; 237  : 			// Lee: the original form:
; 238  : 			//	rep_ = static_cast<Rep*>(operator new(sizeof(Rep) + cap));
; 239  : 			// doesn't work in some cases of new being overloaded. Switching
; 240  : 			// to the normal allocation, although use an 'int' for systems
; 241  : 			// that are overly picky about structure alignment.
; 242  : 			const size_type bytesNeeded = sizeof(Rep) + cap;
; 243  : 			const size_type intsNeeded = ( bytesNeeded + sizeof(int) - 1 ) / sizeof( int ); 

  0000e	8d 47 0f	 lea	 eax, DWORD PTR [edi+15]

; 244  : 			rep_ = reinterpret_cast<Rep*>( new int[ intsNeeded ] );

  00011	b9 04 00 00 00	 mov	 ecx, 4
  00016	c1 e8 02	 shr	 eax, 2
  00019	f7 e1		 mul	 ecx
  0001b	b9 ff ff ff ff	 mov	 ecx, -1
  00020	0f 42 c1	 cmovb	 eax, ecx
  00023	50		 push	 eax
  00024	e8 00 00 00 00	 call	 ??_U@YAPAXI@Z		; operator new[]

; 245  : 
; 246  : 			rep_->str[ rep_->size = sz ] = '\0';

  00029	8b 4d 08	 mov	 ecx, DWORD PTR _sz$[ebp]
  0002c	83 c4 04	 add	 esp, 4
  0002f	89 06		 mov	 DWORD PTR [esi], eax
  00031	89 08		 mov	 DWORD PTR [eax], ecx
  00033	8b 06		 mov	 eax, DWORD PTR [esi]
  00035	c6 44 08 08 00	 mov	 BYTE PTR [eax+ecx+8], 0

; 247  : 			rep_->capacity = cap;

  0003a	8b 06		 mov	 eax, DWORD PTR [esi]
  0003c	89 78 04	 mov	 DWORD PTR [eax+4], edi
  0003f	5f		 pop	 edi

; 252  : 		}
; 253  : 	}

  00040	5e		 pop	 esi
  00041	5d		 pop	 ebp
  00042	c2 08 00	 ret	 8
$LN2@init:
  00045	5f		 pop	 edi

; 248  : 		}
; 249  : 		else
; 250  : 		{
; 251  : 			rep_ = &nullrep_;

  00046	c7 06 00 00 00
	00		 mov	 DWORD PTR [esi], OFFSET ?nullrep_@TiXmlString@@0URep@1@A ; TiXmlString::nullrep_

; 252  : 		}
; 253  : 	}

  0004c	5e		 pop	 esi
  0004d	5d		 pop	 ebp
  0004e	c2 08 00	 ret	 8
?init@TiXmlString@@AAEXII@Z ENDP			; TiXmlString::init
_TEXT	ENDS
; Function compile flags: /Ogtp
; File E:\Proyectos\JuegosOnlineproyectos\PB\pbblow\Piercing Blow Remake\i3Server\include\i3Base\tinystr.h
;	COMDAT ?finish@TiXmlString@@ABEPADXZ
_TEXT	SEGMENT
?finish@TiXmlString@@ABEPADXZ PROC			; TiXmlString::finish, COMDAT
; _this$ = ecx

; 225  : 	char* finish() const { return rep_->str + rep_->size; }

  00000	8b 09		 mov	 ecx, DWORD PTR [ecx]
  00002	8b 01		 mov	 eax, DWORD PTR [ecx]
  00004	83 c0 08	 add	 eax, 8
  00007	03 c1		 add	 eax, ecx
  00009	c3		 ret	 0
?finish@TiXmlString@@ABEPADXZ ENDP			; TiXmlString::finish
_TEXT	ENDS
; Function compile flags: /Ogtp
; File E:\Proyectos\JuegosOnlineproyectos\PB\pbblow\Piercing Blow Remake\i3Server\include\i3Base\tinystr.h
;	COMDAT ?start@TiXmlString@@ABEPADXZ
_TEXT	SEGMENT
?start@TiXmlString@@ABEPADXZ PROC			; TiXmlString::start, COMDAT
; _this$ = ecx

; 224  : 	char* start() const { return rep_->str; }

  00000	8b 01		 mov	 eax, DWORD PTR [ecx]
  00002	83 c0 08	 add	 eax, 8
  00005	c3		 ret	 0
?start@TiXmlString@@ABEPADXZ ENDP			; TiXmlString::start
_TEXT	ENDS
; Function compile flags: /Ogtp
; File E:\Proyectos\JuegosOnlineproyectos\PB\pbblow\Piercing Blow Remake\i3Server\include\i3Base\tinystr.h
;	COMDAT ?set_size@TiXmlString@@AAEXI@Z
_TEXT	SEGMENT
_sz$ = 8						; size = 4
?set_size@TiXmlString@@AAEXI@Z PROC			; TiXmlString::set_size, COMDAT
; _this$ = ecx

; 223  : 	void set_size(size_type sz) { rep_->str[ rep_->size = sz ] = '\0'; }

  00000	55		 push	 ebp
  00001	8b ec		 mov	 ebp, esp
  00003	8b 01		 mov	 eax, DWORD PTR [ecx]
  00005	8b 55 08	 mov	 edx, DWORD PTR _sz$[ebp]
  00008	89 10		 mov	 DWORD PTR [eax], edx
  0000a	8b 01		 mov	 eax, DWORD PTR [ecx]
  0000c	c6 44 10 08 00	 mov	 BYTE PTR [eax+edx+8], 0
  00011	5d		 pop	 ebp
  00012	c2 04 00	 ret	 4
?set_size@TiXmlString@@AAEXI@Z ENDP			; TiXmlString::set_size
_TEXT	ENDS
; Function compile flags: /Ogtp
; File E:\Proyectos\JuegosOnlineproyectos\PB\pbblow\Piercing Blow Remake\i3Server\include\i3Base\tinystr.h
;	COMDAT ?init@TiXmlString@@AAEXI@Z
_TEXT	SEGMENT
_sz$ = 8						; size = 4
?init@TiXmlString@@AAEXI@Z PROC				; TiXmlString::init, COMDAT
; _this$ = ecx

; 222  : 	void init(size_type sz) { init(sz, sz); }

  00000	55		 push	 ebp
  00001	8b ec		 mov	 ebp, esp
  00003	56		 push	 esi

; 235  : 		if (cap)

  00004	8b 75 08	 mov	 esi, DWORD PTR _sz$[ebp]

; 222  : 	void init(size_type sz) { init(sz, sz); }

  00007	57		 push	 edi
  00008	8b f9		 mov	 edi, ecx

; 235  : 		if (cap)

  0000a	85 f6		 test	 esi, esi
  0000c	74 34		 je	 SHORT $LN4@init

; 236  : 		{
; 237  : 			// Lee: the original form:
; 238  : 			//	rep_ = static_cast<Rep*>(operator new(sizeof(Rep) + cap));
; 239  : 			// doesn't work in some cases of new being overloaded. Switching
; 240  : 			// to the normal allocation, although use an 'int' for systems
; 241  : 			// that are overly picky about structure alignment.
; 242  : 			const size_type bytesNeeded = sizeof(Rep) + cap;
; 243  : 			const size_type intsNeeded = ( bytesNeeded + sizeof(int) - 1 ) / sizeof( int ); 

  0000e	8d 46 0f	 lea	 eax, DWORD PTR [esi+15]

; 244  : 			rep_ = reinterpret_cast<Rep*>( new int[ intsNeeded ] );

  00011	b9 04 00 00 00	 mov	 ecx, 4
  00016	c1 e8 02	 shr	 eax, 2
  00019	f7 e1		 mul	 ecx
  0001b	b9 ff ff ff ff	 mov	 ecx, -1
  00020	0f 42 c1	 cmovb	 eax, ecx
  00023	50		 push	 eax
  00024	e8 00 00 00 00	 call	 ??_U@YAPAXI@Z		; operator new[]
  00029	89 07		 mov	 DWORD PTR [edi], eax
  0002b	83 c4 04	 add	 esp, 4

; 245  : 
; 246  : 			rep_->str[ rep_->size = sz ] = '\0';

  0002e	89 30		 mov	 DWORD PTR [eax], esi
  00030	8b 07		 mov	 eax, DWORD PTR [edi]
  00032	c6 44 30 08 00	 mov	 BYTE PTR [eax+esi+8], 0

; 247  : 			rep_->capacity = cap;

  00037	8b 07		 mov	 eax, DWORD PTR [edi]
  00039	5f		 pop	 edi
  0003a	89 70 04	 mov	 DWORD PTR [eax+4], esi

; 222  : 	void init(size_type sz) { init(sz, sz); }

  0003d	5e		 pop	 esi
  0003e	5d		 pop	 ebp
  0003f	c2 04 00	 ret	 4
$LN4@init:

; 251  : 			rep_ = &nullrep_;

  00042	c7 07 00 00 00
	00		 mov	 DWORD PTR [edi], OFFSET ?nullrep_@TiXmlString@@0URep@1@A ; TiXmlString::nullrep_
  00048	5f		 pop	 edi

; 222  : 	void init(size_type sz) { init(sz, sz); }

  00049	5e		 pop	 esi
  0004a	5d		 pop	 ebp
  0004b	c2 04 00	 ret	 4
?init@TiXmlString@@AAEXI@Z ENDP				; TiXmlString::init
_TEXT	ENDS
; Function compile flags: /Ogtp
; File E:\Proyectos\JuegosOnlineproyectos\PB\pbblow\Piercing Blow Remake\i3Server\include\i3Base\tinystr.h
;	COMDAT ?swap@TiXmlString@@QAEXAAV1@@Z
_TEXT	SEGMENT
_other$ = 8						; size = 4
?swap@TiXmlString@@QAEXAAV1@@Z PROC			; TiXmlString::swap, COMDAT
; _this$ = ecx

; 214  : 	{

  00000	55		 push	 ebp
  00001	8b ec		 mov	 ebp, esp

; 215  : 		Rep* r = rep_;
; 216  : 		rep_ = other.rep_;

  00003	8b 55 08	 mov	 edx, DWORD PTR _other$[ebp]
  00006	56		 push	 esi
  00007	8b 31		 mov	 esi, DWORD PTR [ecx]
  00009	8b 02		 mov	 eax, DWORD PTR [edx]
  0000b	89 01		 mov	 DWORD PTR [ecx], eax

; 217  : 		other.rep_ = r;

  0000d	89 32		 mov	 DWORD PTR [edx], esi
  0000f	5e		 pop	 esi

; 218  : 	}

  00010	5d		 pop	 ebp
  00011	c2 04 00	 ret	 4
?swap@TiXmlString@@QAEXAAV1@@Z ENDP			; TiXmlString::swap
_TEXT	ENDS
; Function compile flags: /Ogtp
; File E:\Proyectos\JuegosOnlineproyectos\PB\pbblow\Piercing Blow Remake\i3Server\include\i3Base\tinystr.h
;	COMDAT ?clear@TiXmlString@@QAEXXZ
_TEXT	SEGMENT
?clear@TiXmlString@@QAEXXZ PROC				; TiXmlString::clear, COMDAT
; _this$ = ecx

; 195  : 	{

  00000	56		 push	 esi
  00001	8b f1		 mov	 esi, ecx

; 257  : 		if (rep_ != &nullrep_)

  00003	8b 06		 mov	 eax, DWORD PTR [esi]
  00005	3d 00 00 00 00	 cmp	 eax, OFFSET ?nullrep_@TiXmlString@@0URep@1@A ; TiXmlString::nullrep_
  0000a	74 09		 je	 SHORT $LN10@clear

; 258  : 		{
; 259  : 			// The rep_ is really an array of ints. (see the allocator, above).
; 260  : 			// Cast it back before delete, so the compiler won't incorrectly call destructors.
; 261  : 			delete [] ( reinterpret_cast<int*>( rep_ ) );

  0000c	50		 push	 eax
  0000d	e8 00 00 00 00	 call	 ??_V@YAXPAX@Z		; operator delete[]
  00012	83 c4 04	 add	 esp, 4
$LN10@clear:

; 196  : 		//Lee:
; 197  : 		//The original was just too strange, though correct:
; 198  : 		//	TiXmlString().swap(*this);
; 199  : 		//Instead use the quit & re-init:
; 200  : 		quit();
; 201  : 		init(0,0);
; 202  : 	}

  00015	c7 06 00 00 00
	00		 mov	 DWORD PTR [esi], OFFSET ?nullrep_@TiXmlString@@0URep@1@A ; TiXmlString::nullrep_
  0001b	5e		 pop	 esi
  0001c	c3		 ret	 0
?clear@TiXmlString@@QAEXXZ ENDP				; TiXmlString::clear
_TEXT	ENDS
; Function compile flags: /Ogtp
; File E:\Proyectos\JuegosOnlineproyectos\PB\pbblow\Piercing Blow Remake\i3Server\include\i3Base\tinystr.h
;	COMDAT ?find@TiXmlString@@QBEIDI@Z
_TEXT	SEGMENT
_tofind$ = 8						; size = 1
_offset$ = 12						; size = 4
?find@TiXmlString@@QBEIDI@Z PROC			; TiXmlString::find, COMDAT
; _this$ = ecx

; 184  : 	{

  00000	55		 push	 ebp
  00001	8b ec		 mov	 ebp, esp

; 185  : 		if (offset >= length()) return npos;

  00003	8b 45 0c	 mov	 eax, DWORD PTR _offset$[ebp]
  00006	56		 push	 esi

; 150  : 	size_type length () const { return rep_->size; }

  00007	8b 31		 mov	 esi, DWORD PTR [ecx]

; 185  : 		if (offset >= length()) return npos;

  00009	3b 06		 cmp	 eax, DWORD PTR [esi]
  0000b	73 1f		 jae	 SHORT $LN3@find

; 186  : 
; 187  : 		for (const char* p = c_str() + offset; *p != '\0'; ++p)

  0000d	83 c0 08	 add	 eax, 8
  00010	03 c6		 add	 eax, esi
  00012	8a 08		 mov	 cl, BYTE PTR [eax]
  00014	84 c9		 test	 cl, cl
  00016	74 14		 je	 SHORT $LN3@find
  00018	8a 55 08	 mov	 dl, BYTE PTR _tofind$[ebp]
  0001b	eb 03 8d 49 00	 npad	 5
$LL4@find:

; 188  : 		{
; 189  : 		   if (*p == tofind) return static_cast< size_type >( p - c_str() );

  00020	3a ca		 cmp	 cl, dl
  00022	74 12		 je	 SHORT $LN15@find

; 186  : 
; 187  : 		for (const char* p = c_str() + offset; *p != '\0'; ++p)

  00024	8a 48 01	 mov	 cl, BYTE PTR [eax+1]
  00027	40		 inc	 eax
  00028	84 c9		 test	 cl, cl
  0002a	75 f4		 jne	 SHORT $LL4@find
$LN3@find:

; 190  : 		}
; 191  : 		return npos;

  0002c	a1 00 00 00 00	 mov	 eax, DWORD PTR ?npos@TiXmlString@@2IB ; TiXmlString::npos
  00031	5e		 pop	 esi

; 192  : 	}

  00032	5d		 pop	 ebp
  00033	c2 08 00	 ret	 8
$LN15@find:

; 188  : 		{
; 189  : 		   if (*p == tofind) return static_cast< size_type >( p - c_str() );

  00036	2b c6		 sub	 eax, esi
  00038	83 e8 08	 sub	 eax, 8
  0003b	5e		 pop	 esi

; 192  : 	}

  0003c	5d		 pop	 ebp
  0003d	c2 08 00	 ret	 8
?find@TiXmlString@@QBEIDI@Z ENDP			; TiXmlString::find
_TEXT	ENDS
; Function compile flags: /Ogtp
; File E:\Proyectos\JuegosOnlineproyectos\PB\pbblow\Piercing Blow Remake\i3Server\include\i3Base\tinystr.h
;	COMDAT ?find@TiXmlString@@QBEID@Z
_TEXT	SEGMENT
_lookup$ = 8						; size = 1
?find@TiXmlString@@QBEID@Z PROC				; TiXmlString::find, COMDAT
; _this$ = ecx

; 178  : 	{

  00000	55		 push	 ebp
  00001	8b ec		 mov	 ebp, esp
  00003	56		 push	 esi

; 150  : 	size_type length () const { return rep_->size; }

  00004	8b 31		 mov	 esi, DWORD PTR [ecx]

; 185  : 		if (offset >= length()) return npos;

  00006	83 3e 00	 cmp	 DWORD PTR [esi], 0
  00009	76 19		 jbe	 SHORT $LN5@find

; 186  : 
; 187  : 		for (const char* p = c_str() + offset; *p != '\0'; ++p)

  0000b	8a 4e 08	 mov	 cl, BYTE PTR [esi+8]

; 144  : 	const char * c_str () const { return rep_->str; }

  0000e	8d 46 08	 lea	 eax, DWORD PTR [esi+8]

; 187  : 		for (const char* p = c_str() + offset; *p != '\0'; ++p)

  00011	84 c9		 test	 cl, cl
  00013	74 0f		 je	 SHORT $LN5@find
  00015	8a 55 08	 mov	 dl, BYTE PTR _lookup$[ebp]
$LL6@find:

; 188  : 		{
; 189  : 		   if (*p == tofind) return static_cast< size_type >( p - c_str() );

  00018	3a ca		 cmp	 cl, dl
  0001a	74 12		 je	 SHORT $LN17@find

; 186  : 
; 187  : 		for (const char* p = c_str() + offset; *p != '\0'; ++p)

  0001c	8a 48 01	 mov	 cl, BYTE PTR [eax+1]
  0001f	40		 inc	 eax
  00020	84 c9		 test	 cl, cl
  00022	75 f4		 jne	 SHORT $LL6@find
$LN5@find:

; 179  : 		return find(lookup, 0);
; 180  : 	}

  00024	a1 00 00 00 00	 mov	 eax, DWORD PTR ?npos@TiXmlString@@2IB ; TiXmlString::npos
  00029	5e		 pop	 esi
  0002a	5d		 pop	 ebp
  0002b	c2 04 00	 ret	 4
$LN17@find:

; 189  : 		   if (*p == tofind) return static_cast< size_type >( p - c_str() );

  0002e	2b c6		 sub	 eax, esi
  00030	83 e8 08	 sub	 eax, 8
  00033	5e		 pop	 esi

; 179  : 		return find(lookup, 0);
; 180  : 	}

  00034	5d		 pop	 ebp
  00035	c2 04 00	 ret	 4
?find@TiXmlString@@QBEID@Z ENDP				; TiXmlString::find
_TEXT	ENDS
; Function compile flags: /Ogtp
; File E:\Proyectos\JuegosOnlineproyectos\PB\pbblow\Piercing Blow Remake\i3Server\include\i3Base\tinystr.h
;	COMDAT ??ATiXmlString@@QBEAADI@Z
_TEXT	SEGMENT
_index$ = 8						; size = 4
??ATiXmlString@@QBEAADI@Z PROC				; TiXmlString::operator[], COMDAT
; _this$ = ecx

; 171  : 	{

  00000	55		 push	 ebp
  00001	8b ec		 mov	 ebp, esp

; 172  : 		I3ASSERT( index < length() );
; 173  : 		return rep_->str[ index ];

  00003	8b 45 08	 mov	 eax, DWORD PTR _index$[ebp]
  00006	83 c0 08	 add	 eax, 8
  00009	03 01		 add	 eax, DWORD PTR [ecx]

; 174  : 	}

  0000b	5d		 pop	 ebp
  0000c	c2 04 00	 ret	 4
??ATiXmlString@@QBEAADI@Z ENDP				; TiXmlString::operator[]
_TEXT	ENDS
; Function compile flags: /Ogtp
; File E:\Proyectos\JuegosOnlineproyectos\PB\pbblow\Piercing Blow Remake\i3Server\include\i3Base\tinystr.h
;	COMDAT ?at@TiXmlString@@QBEABDI@Z
_TEXT	SEGMENT
_index$ = 8						; size = 4
?at@TiXmlString@@QBEABDI@Z PROC				; TiXmlString::at, COMDAT
; _this$ = ecx

; 164  : 	{

  00000	55		 push	 ebp
  00001	8b ec		 mov	 ebp, esp

; 165  : 		I3ASSERT( index < length() );
; 166  : 		return rep_->str[ index ];

  00003	8b 45 08	 mov	 eax, DWORD PTR _index$[ebp]
  00006	83 c0 08	 add	 eax, 8
  00009	03 01		 add	 eax, DWORD PTR [ecx]

; 167  : 	}

  0000b	5d		 pop	 ebp
  0000c	c2 04 00	 ret	 4
?at@TiXmlString@@QBEABDI@Z ENDP				; TiXmlString::at
_TEXT	ENDS
; Function compile flags: /Ogtp
; File E:\Proyectos\JuegosOnlineproyectos\PB\pbblow\Piercing Blow Remake\i3Server\include\i3Base\tinystr.h
;	COMDAT ?capacity@TiXmlString@@QBEIXZ
_TEXT	SEGMENT
?capacity@TiXmlString@@QBEIXZ PROC			; TiXmlString::capacity, COMDAT
; _this$ = ecx

; 159  : 	size_type capacity () const { return rep_->capacity; }

  00000	8b 01		 mov	 eax, DWORD PTR [ecx]
  00002	8b 40 04	 mov	 eax, DWORD PTR [eax+4]
  00005	c3		 ret	 0
?capacity@TiXmlString@@QBEIXZ ENDP			; TiXmlString::capacity
_TEXT	ENDS
; Function compile flags: /Ogtp
; File E:\Proyectos\JuegosOnlineproyectos\PB\pbblow\Piercing Blow Remake\i3Server\include\i3Base\tinystr.h
;	COMDAT ?empty@TiXmlString@@QBE_NXZ
_TEXT	SEGMENT
?empty@TiXmlString@@QBE_NXZ PROC			; TiXmlString::empty, COMDAT
; _this$ = ecx

; 156  : 	bool empty () const { return rep_->size == 0; }

  00000	8b 01		 mov	 eax, DWORD PTR [ecx]
  00002	83 38 00	 cmp	 DWORD PTR [eax], 0
  00005	0f 94 c0	 sete	 al
  00008	c3		 ret	 0
?empty@TiXmlString@@QBE_NXZ ENDP			; TiXmlString::empty
_TEXT	ENDS
; Function compile flags: /Ogtp
; File E:\Proyectos\JuegosOnlineproyectos\PB\pbblow\Piercing Blow Remake\i3Server\include\i3Base\tinystr.h
;	COMDAT ?size@TiXmlString@@QBEIXZ
_TEXT	SEGMENT
?size@TiXmlString@@QBEIXZ PROC				; TiXmlString::size, COMDAT
; _this$ = ecx

; 153  : 	size_type size () const { return rep_->size; }

  00000	8b 01		 mov	 eax, DWORD PTR [ecx]
  00002	8b 00		 mov	 eax, DWORD PTR [eax]
  00004	c3		 ret	 0
?size@TiXmlString@@QBEIXZ ENDP				; TiXmlString::size
_TEXT	ENDS
; Function compile flags: /Ogtp
; File E:\Proyectos\JuegosOnlineproyectos\PB\pbblow\Piercing Blow Remake\i3Server\include\i3Base\tinystr.h
;	COMDAT ?length@TiXmlString@@QBEIXZ
_TEXT	SEGMENT
?length@TiXmlString@@QBEIXZ PROC			; TiXmlString::length, COMDAT
; _this$ = ecx

; 150  : 	size_type length () const { return rep_->size; }

  00000	8b 01		 mov	 eax, DWORD PTR [ecx]
  00002	8b 00		 mov	 eax, DWORD PTR [eax]
  00004	c3		 ret	 0
?length@TiXmlString@@QBEIXZ ENDP			; TiXmlString::length
_TEXT	ENDS
; Function compile flags: /Ogtp
; File E:\Proyectos\JuegosOnlineproyectos\PB\pbblow\Piercing Blow Remake\i3Server\include\i3Base\tinystr.h
;	COMDAT ?data@TiXmlString@@QBEPBDXZ
_TEXT	SEGMENT
?data@TiXmlString@@QBEPBDXZ PROC			; TiXmlString::data, COMDAT
; _this$ = ecx

; 147  : 	const char * data () const { return rep_->str; }

  00000	8b 01		 mov	 eax, DWORD PTR [ecx]
  00002	83 c0 08	 add	 eax, 8
  00005	c3		 ret	 0
?data@TiXmlString@@QBEPBDXZ ENDP			; TiXmlString::data
_TEXT	ENDS
; Function compile flags: /Ogtp
; File E:\Proyectos\JuegosOnlineproyectos\PB\pbblow\Piercing Blow Remake\i3Server\include\i3Base\tinystr.h
;	COMDAT ?c_str@TiXmlString@@QBEPBDXZ
_TEXT	SEGMENT
?c_str@TiXmlString@@QBEPBDXZ PROC			; TiXmlString::c_str, COMDAT
; _this$ = ecx

; 144  : 	const char * c_str () const { return rep_->str; }

  00000	8b 01		 mov	 eax, DWORD PTR [ecx]
  00002	83 c0 08	 add	 eax, 8
  00005	c3		 ret	 0
?c_str@TiXmlString@@QBEPBDXZ ENDP			; TiXmlString::c_str
_TEXT	ENDS
; Function compile flags: /Ogtp
; File E:\Proyectos\JuegosOnlineproyectos\PB\pbblow\Piercing Blow Remake\i3Server\include\i3Base\tinystr.h
;	COMDAT ??YTiXmlString@@QAEAAV0@ABV0@@Z
_TEXT	SEGMENT
_suffix$ = 8						; size = 4
??YTiXmlString@@QAEAAV0@ABV0@@Z PROC			; TiXmlString::operator+=, COMDAT
; _this$ = ecx

; 138  : 	{

  00000	55		 push	 ebp
  00001	8b ec		 mov	 ebp, esp

; 150  : 	size_type length () const { return rep_->size; }

  00003	8b 45 08	 mov	 eax, DWORD PTR _suffix$[ebp]
  00006	8b 00		 mov	 eax, DWORD PTR [eax]

; 139  : 		return append(suffix.data(), suffix.length());

  00008	ff 30		 push	 DWORD PTR [eax]

; 147  : 	const char * data () const { return rep_->str; }

  0000a	83 c0 08	 add	 eax, 8

; 139  : 		return append(suffix.data(), suffix.length());

  0000d	50		 push	 eax
  0000e	e8 00 00 00 00	 call	 ?append@TiXmlString@@QAEAAV1@PBDI@Z ; TiXmlString::append

; 140  : 	}

  00013	5d		 pop	 ebp
  00014	c2 04 00	 ret	 4
??YTiXmlString@@QAEAAV0@ABV0@@Z ENDP			; TiXmlString::operator+=
_TEXT	ENDS
; Function compile flags: /Ogtp
; File E:\Proyectos\JuegosOnlineproyectos\PB\pbblow\Piercing Blow Remake\i3Server\include\i3Base\tinystr.h
;	COMDAT ??YTiXmlString@@QAEAAV0@D@Z
_TEXT	SEGMENT
_single$ = 8						; size = 1
??YTiXmlString@@QAEAAV0@D@Z PROC			; TiXmlString::operator+=, COMDAT
; _this$ = ecx

; 132  : 	{

  00000	55		 push	 ebp
  00001	8b ec		 mov	 ebp, esp

; 133  : 		return append(&single, 1);

  00003	6a 01		 push	 1
  00005	8d 45 08	 lea	 eax, DWORD PTR _single$[ebp]
  00008	50		 push	 eax
  00009	e8 00 00 00 00	 call	 ?append@TiXmlString@@QAEAAV1@PBDI@Z ; TiXmlString::append

; 134  : 	}

  0000e	5d		 pop	 ebp
  0000f	c2 04 00	 ret	 4
??YTiXmlString@@QAEAAV0@D@Z ENDP			; TiXmlString::operator+=
_TEXT	ENDS
; Function compile flags: /Ogtp
; File E:\Proyectos\JuegosOnlineproyectos\PB\pbblow\Piercing Blow Remake\i3Server\include\i3Base\tinystr.h
;	COMDAT ??YTiXmlString@@QAEAAV0@PBD@Z
_TEXT	SEGMENT
_suffix$ = 8						; size = 4
??YTiXmlString@@QAEAAV0@PBD@Z PROC			; TiXmlString::operator+=, COMDAT
; _this$ = ecx

; 126  : 	{

  00000	55		 push	 ebp
  00001	8b ec		 mov	 ebp, esp

; 127  : 		return append(suffix, static_cast<size_type>( strlen(suffix) ));

  00003	8b 55 08	 mov	 edx, DWORD PTR _suffix$[ebp]
  00006	8b c2		 mov	 eax, edx
  00008	56		 push	 esi
  00009	57		 push	 edi
  0000a	8b f1		 mov	 esi, ecx
  0000c	8d 78 01	 lea	 edi, DWORD PTR [eax+1]
  0000f	90		 npad	 1
$LL3@operator:
  00010	8a 08		 mov	 cl, BYTE PTR [eax]
  00012	40		 inc	 eax
  00013	84 c9		 test	 cl, cl
  00015	75 f9		 jne	 SHORT $LL3@operator
  00017	2b c7		 sub	 eax, edi
  00019	8b ce		 mov	 ecx, esi
  0001b	50		 push	 eax
  0001c	52		 push	 edx
  0001d	e8 00 00 00 00	 call	 ?append@TiXmlString@@QAEAAV1@PBDI@Z ; TiXmlString::append
  00022	5f		 pop	 edi
  00023	5e		 pop	 esi

; 128  : 	}

  00024	5d		 pop	 ebp
  00025	c2 04 00	 ret	 4
??YTiXmlString@@QAEAAV0@PBD@Z ENDP			; TiXmlString::operator+=
_TEXT	ENDS
; Function compile flags: /Ogtp
; File E:\Proyectos\JuegosOnlineproyectos\PB\pbblow\Piercing Blow Remake\i3Server\include\i3Base\tinystr.h
;	COMDAT ??4TiXmlString@@QAEAAV0@ABV0@@Z
_TEXT	SEGMENT
_copy$ = 8						; size = 4
??4TiXmlString@@QAEAAV0@ABV0@@Z PROC			; TiXmlString::operator=, COMDAT
; _this$ = ecx

; 119  : 	{

  00000	55		 push	 ebp
  00001	8b ec		 mov	 ebp, esp

; 150  : 	size_type length () const { return rep_->size; }

  00003	8b 45 08	 mov	 eax, DWORD PTR _copy$[ebp]
  00006	8b 00		 mov	 eax, DWORD PTR [eax]

; 120  : 		return assign(copy.start(), copy.length());

  00008	ff 30		 push	 DWORD PTR [eax]

; 224  : 	char* start() const { return rep_->str; }

  0000a	83 c0 08	 add	 eax, 8

; 120  : 		return assign(copy.start(), copy.length());

  0000d	50		 push	 eax
  0000e	e8 00 00 00 00	 call	 ?assign@TiXmlString@@QAEAAV1@PBDI@Z ; TiXmlString::assign

; 121  : 	}

  00013	5d		 pop	 ebp
  00014	c2 04 00	 ret	 4
??4TiXmlString@@QAEAAV0@ABV0@@Z ENDP			; TiXmlString::operator=
_TEXT	ENDS
; Function compile flags: /Ogtp
; File E:\Proyectos\JuegosOnlineproyectos\PB\pbblow\Piercing Blow Remake\i3Server\include\i3Base\tinystr.h
;	COMDAT ??4TiXmlString@@QAEAAV0@PBD@Z
_TEXT	SEGMENT
_copy$ = 8						; size = 4
??4TiXmlString@@QAEAAV0@PBD@Z PROC			; TiXmlString::operator=, COMDAT
; _this$ = ecx

; 113  : 	{

  00000	55		 push	 ebp
  00001	8b ec		 mov	 ebp, esp

; 114  : 		return assign( copy, (size_type)strlen(copy));

  00003	8b 55 08	 mov	 edx, DWORD PTR _copy$[ebp]
  00006	8b c2		 mov	 eax, edx
  00008	56		 push	 esi
  00009	57		 push	 edi
  0000a	8b f1		 mov	 esi, ecx
  0000c	8d 78 01	 lea	 edi, DWORD PTR [eax+1]
  0000f	90		 npad	 1
$LL3@operator:
  00010	8a 08		 mov	 cl, BYTE PTR [eax]
  00012	40		 inc	 eax
  00013	84 c9		 test	 cl, cl
  00015	75 f9		 jne	 SHORT $LL3@operator
  00017	2b c7		 sub	 eax, edi
  00019	8b ce		 mov	 ecx, esi
  0001b	50		 push	 eax
  0001c	52		 push	 edx
  0001d	e8 00 00 00 00	 call	 ?assign@TiXmlString@@QAEAAV1@PBDI@Z ; TiXmlString::assign
  00022	5f		 pop	 edi
  00023	5e		 pop	 esi

; 115  : 	}

  00024	5d		 pop	 ebp
  00025	c2 04 00	 ret	 4
??4TiXmlString@@QAEAAV0@PBD@Z ENDP			; TiXmlString::operator=
_TEXT	ENDS
; Function compile flags: /Ogtp
; File E:\Proyectos\JuegosOnlineproyectos\PB\pbblow\Piercing Blow Remake\i3Server\include\i3Base\tinystr.h
;	COMDAT ??1TiXmlString@@QAE@XZ
_TEXT	SEGMENT
??1TiXmlString@@QAE@XZ PROC				; TiXmlString::~TiXmlString, COMDAT
; _this$ = ecx

; 257  : 		if (rep_ != &nullrep_)

  00000	8b 01		 mov	 eax, DWORD PTR [ecx]
  00002	3d 00 00 00 00	 cmp	 eax, OFFSET ?nullrep_@TiXmlString@@0URep@1@A ; TiXmlString::nullrep_
  00007	74 07		 je	 SHORT $LN5@TiXmlStrin

; 258  : 		{
; 259  : 			// The rep_ is really an array of ints. (see the allocator, above).
; 260  : 			// Cast it back before delete, so the compiler won't incorrectly call destructors.
; 261  : 			delete [] ( reinterpret_cast<int*>( rep_ ) );

  00009	50		 push	 eax
  0000a	e8 00 00 00 00	 call	 ??_V@YAXPAX@Z		; operator delete[]
  0000f	59		 pop	 ecx
$LN5@TiXmlStrin:

; 108  : 		quit();
; 109  : 	}

  00010	c3		 ret	 0
??1TiXmlString@@QAE@XZ ENDP				; TiXmlString::~TiXmlString
_TEXT	ENDS
; Function compile flags: /Ogtp
; File E:\Proyectos\JuegosOnlineproyectos\PB\pbblow\Piercing Blow Remake\i3Server\include\i3Base\tinystr.h
;	COMDAT ??0TiXmlString@@QAE@PBDI@Z
_TEXT	SEGMENT
_str$ = 8						; size = 4
_len$ = 12						; size = 4
??0TiXmlString@@QAE@PBDI@Z PROC				; TiXmlString::TiXmlString, COMDAT
; _this$ = ecx

; 100  : 	{

  00000	55		 push	 ebp
  00001	8b ec		 mov	 ebp, esp
  00003	56		 push	 esi
  00004	8b f1		 mov	 esi, ecx
  00006	57		 push	 edi

; 235  : 		if (cap)

  00007	8b 7d 0c	 mov	 edi, DWORD PTR _len$[ebp]

; 99   : 	TIXML_EXPLICIT TiXmlString ( const char * str, size_type len) : rep_(0)

  0000a	c7 06 00 00 00
	00		 mov	 DWORD PTR [esi], 0

; 235  : 		if (cap)

  00010	85 ff		 test	 edi, edi
  00012	74 30		 je	 SHORT $LN6@TiXmlStrin

; 236  : 		{
; 237  : 			// Lee: the original form:
; 238  : 			//	rep_ = static_cast<Rep*>(operator new(sizeof(Rep) + cap));
; 239  : 			// doesn't work in some cases of new being overloaded. Switching
; 240  : 			// to the normal allocation, although use an 'int' for systems
; 241  : 			// that are overly picky about structure alignment.
; 242  : 			const size_type bytesNeeded = sizeof(Rep) + cap;
; 243  : 			const size_type intsNeeded = ( bytesNeeded + sizeof(int) - 1 ) / sizeof( int ); 

  00014	8d 47 0f	 lea	 eax, DWORD PTR [edi+15]

; 244  : 			rep_ = reinterpret_cast<Rep*>( new int[ intsNeeded ] );

  00017	b9 04 00 00 00	 mov	 ecx, 4
  0001c	c1 e8 02	 shr	 eax, 2
  0001f	f7 e1		 mul	 ecx
  00021	b9 ff ff ff ff	 mov	 ecx, -1
  00026	0f 42 c1	 cmovb	 eax, ecx
  00029	50		 push	 eax
  0002a	e8 00 00 00 00	 call	 ??_U@YAPAXI@Z		; operator new[]
  0002f	89 06		 mov	 DWORD PTR [esi], eax
  00031	83 c4 04	 add	 esp, 4

; 245  : 
; 246  : 			rep_->str[ rep_->size = sz ] = '\0';

  00034	89 38		 mov	 DWORD PTR [eax], edi
  00036	8b 06		 mov	 eax, DWORD PTR [esi]
  00038	c6 44 38 08 00	 mov	 BYTE PTR [eax+edi+8], 0

; 247  : 			rep_->capacity = cap;

  0003d	8b 06		 mov	 eax, DWORD PTR [esi]
  0003f	89 78 04	 mov	 DWORD PTR [eax+4], edi

; 248  : 		}

  00042	eb 06		 jmp	 SHORT $LN7@TiXmlStrin
$LN6@TiXmlStrin:

; 249  : 		else
; 250  : 		{
; 251  : 			rep_ = &nullrep_;

  00044	c7 06 00 00 00
	00		 mov	 DWORD PTR [esi], OFFSET ?nullrep_@TiXmlString@@0URep@1@A ; TiXmlString::nullrep_
$LN7@TiXmlStrin:

; 224  : 	char* start() const { return rep_->str; }

  0004a	8b 06		 mov	 eax, DWORD PTR [esi]

; 101  : 		init(len);
; 102  : 		memcpy(start(), str, len);

  0004c	57		 push	 edi
  0004d	ff 75 08	 push	 DWORD PTR _str$[ebp]

; 224  : 	char* start() const { return rep_->str; }

  00050	83 c0 08	 add	 eax, 8

; 101  : 		init(len);
; 102  : 		memcpy(start(), str, len);

  00053	50		 push	 eax
  00054	e8 00 00 00 00	 call	 _memcpy
  00059	83 c4 0c	 add	 esp, 12			; 0000000cH

; 103  : 	}

  0005c	8b c6		 mov	 eax, esi
  0005e	5f		 pop	 edi
  0005f	5e		 pop	 esi
  00060	5d		 pop	 ebp
  00061	c2 08 00	 ret	 8
??0TiXmlString@@QAE@PBDI@Z ENDP				; TiXmlString::TiXmlString
_TEXT	ENDS
; Function compile flags: /Ogtp
; File E:\Proyectos\JuegosOnlineproyectos\PB\pbblow\Piercing Blow Remake\i3Server\include\i3Base\tinystr.h
;	COMDAT ??0TiXmlString@@QAE@PBD@Z
_TEXT	SEGMENT
_copy$ = 8						; size = 4
??0TiXmlString@@QAE@PBD@Z PROC				; TiXmlString::TiXmlString, COMDAT
; _this$ = ecx

; 93   : 	{

  00000	55		 push	 ebp
  00001	8b ec		 mov	 ebp, esp
  00003	56		 push	 esi

; 94   : 		init( static_cast<size_type>( strlen(copy) ));

  00004	8b 75 08	 mov	 esi, DWORD PTR _copy$[ebp]
  00007	57		 push	 edi
  00008	8b f9		 mov	 edi, ecx
  0000a	8d 4e 01	 lea	 ecx, DWORD PTR [esi+1]
  0000d	c7 07 00 00 00
	00		 mov	 DWORD PTR [edi], 0
$LL13@TiXmlStrin:
  00013	8a 06		 mov	 al, BYTE PTR [esi]
  00015	46		 inc	 esi
  00016	84 c0		 test	 al, al
  00018	75 f9		 jne	 SHORT $LL13@TiXmlStrin
  0001a	2b f1		 sub	 esi, ecx

; 235  : 		if (cap)

  0001c	74 30		 je	 SHORT $LN6@TiXmlStrin

; 236  : 		{
; 237  : 			// Lee: the original form:
; 238  : 			//	rep_ = static_cast<Rep*>(operator new(sizeof(Rep) + cap));
; 239  : 			// doesn't work in some cases of new being overloaded. Switching
; 240  : 			// to the normal allocation, although use an 'int' for systems
; 241  : 			// that are overly picky about structure alignment.
; 242  : 			const size_type bytesNeeded = sizeof(Rep) + cap;
; 243  : 			const size_type intsNeeded = ( bytesNeeded + sizeof(int) - 1 ) / sizeof( int ); 

  0001e	8d 46 0f	 lea	 eax, DWORD PTR [esi+15]

; 244  : 			rep_ = reinterpret_cast<Rep*>( new int[ intsNeeded ] );

  00021	b9 04 00 00 00	 mov	 ecx, 4
  00026	c1 e8 02	 shr	 eax, 2
  00029	f7 e1		 mul	 ecx
  0002b	b9 ff ff ff ff	 mov	 ecx, -1
  00030	0f 42 c1	 cmovb	 eax, ecx
  00033	50		 push	 eax
  00034	e8 00 00 00 00	 call	 ??_U@YAPAXI@Z		; operator new[]
  00039	89 07		 mov	 DWORD PTR [edi], eax
  0003b	83 c4 04	 add	 esp, 4

; 245  : 
; 246  : 			rep_->str[ rep_->size = sz ] = '\0';

  0003e	89 30		 mov	 DWORD PTR [eax], esi
  00040	8b 07		 mov	 eax, DWORD PTR [edi]
  00042	c6 44 30 08 00	 mov	 BYTE PTR [eax+esi+8], 0

; 247  : 			rep_->capacity = cap;

  00047	8b 07		 mov	 eax, DWORD PTR [edi]
  00049	89 70 04	 mov	 DWORD PTR [eax+4], esi

; 248  : 		}

  0004c	eb 06		 jmp	 SHORT $LN7@TiXmlStrin
$LN6@TiXmlStrin:

; 249  : 		else
; 250  : 		{
; 251  : 			rep_ = &nullrep_;

  0004e	c7 07 00 00 00
	00		 mov	 DWORD PTR [edi], OFFSET ?nullrep_@TiXmlString@@0URep@1@A ; TiXmlString::nullrep_
$LN7@TiXmlStrin:

; 150  : 	size_type length () const { return rep_->size; }

  00054	8b 07		 mov	 eax, DWORD PTR [edi]

; 95   : 		memcpy(start(), copy, length());

  00056	ff 30		 push	 DWORD PTR [eax]

; 224  : 	char* start() const { return rep_->str; }

  00058	83 c0 08	 add	 eax, 8

; 95   : 		memcpy(start(), copy, length());

  0005b	ff 75 08	 push	 DWORD PTR _copy$[ebp]
  0005e	50		 push	 eax
  0005f	e8 00 00 00 00	 call	 _memcpy
  00064	83 c4 0c	 add	 esp, 12			; 0000000cH

; 96   : 	}

  00067	8b c7		 mov	 eax, edi
  00069	5f		 pop	 edi
  0006a	5e		 pop	 esi
  0006b	5d		 pop	 ebp
  0006c	c2 04 00	 ret	 4
??0TiXmlString@@QAE@PBD@Z ENDP				; TiXmlString::TiXmlString
_TEXT	ENDS
; Function compile flags: /Ogtp
; File E:\Proyectos\JuegosOnlineproyectos\PB\pbblow\Piercing Blow Remake\i3Server\include\i3Base\tinystr.h
;	COMDAT ??0TiXmlString@@QAE@ABV0@@Z
_TEXT	SEGMENT
_copy$ = 8						; size = 4
??0TiXmlString@@QAE@ABV0@@Z PROC			; TiXmlString::TiXmlString, COMDAT
; _this$ = ecx

; 86   : 	{

  00000	55		 push	 ebp
  00001	8b ec		 mov	 ebp, esp
  00003	53		 push	 ebx

; 150  : 	size_type length () const { return rep_->size; }

  00004	8b 5d 08	 mov	 ebx, DWORD PTR _copy$[ebp]

; 86   : 	{

  00007	56		 push	 esi
  00008	8b f1		 mov	 esi, ecx
  0000a	57		 push	 edi
  0000b	c7 06 00 00 00
	00		 mov	 DWORD PTR [esi], 0

; 150  : 	size_type length () const { return rep_->size; }

  00011	8b 03		 mov	 eax, DWORD PTR [ebx]

; 87   : 		init(copy.length());

  00013	8b 38		 mov	 edi, DWORD PTR [eax]

; 235  : 		if (cap)

  00015	85 ff		 test	 edi, edi
  00017	74 30		 je	 SHORT $LN8@TiXmlStrin

; 236  : 		{
; 237  : 			// Lee: the original form:
; 238  : 			//	rep_ = static_cast<Rep*>(operator new(sizeof(Rep) + cap));
; 239  : 			// doesn't work in some cases of new being overloaded. Switching
; 240  : 			// to the normal allocation, although use an 'int' for systems
; 241  : 			// that are overly picky about structure alignment.
; 242  : 			const size_type bytesNeeded = sizeof(Rep) + cap;
; 243  : 			const size_type intsNeeded = ( bytesNeeded + sizeof(int) - 1 ) / sizeof( int ); 

  00019	8d 47 0f	 lea	 eax, DWORD PTR [edi+15]

; 244  : 			rep_ = reinterpret_cast<Rep*>( new int[ intsNeeded ] );

  0001c	b9 04 00 00 00	 mov	 ecx, 4
  00021	c1 e8 02	 shr	 eax, 2
  00024	f7 e1		 mul	 ecx
  00026	b9 ff ff ff ff	 mov	 ecx, -1
  0002b	0f 42 c1	 cmovb	 eax, ecx
  0002e	50		 push	 eax
  0002f	e8 00 00 00 00	 call	 ??_U@YAPAXI@Z		; operator new[]
  00034	89 06		 mov	 DWORD PTR [esi], eax
  00036	83 c4 04	 add	 esp, 4

; 245  : 
; 246  : 			rep_->str[ rep_->size = sz ] = '\0';

  00039	89 38		 mov	 DWORD PTR [eax], edi
  0003b	8b 06		 mov	 eax, DWORD PTR [esi]
  0003d	c6 44 38 08 00	 mov	 BYTE PTR [eax+edi+8], 0

; 247  : 			rep_->capacity = cap;

  00042	8b 06		 mov	 eax, DWORD PTR [esi]
  00044	89 78 04	 mov	 DWORD PTR [eax+4], edi

; 248  : 		}

  00047	eb 06		 jmp	 SHORT $LN9@TiXmlStrin
$LN8@TiXmlStrin:

; 249  : 		else
; 250  : 		{
; 251  : 			rep_ = &nullrep_;

  00049	c7 06 00 00 00
	00		 mov	 DWORD PTR [esi], OFFSET ?nullrep_@TiXmlString@@0URep@1@A ; TiXmlString::nullrep_
$LN9@TiXmlStrin:

; 150  : 	size_type length () const { return rep_->size; }

  0004f	8b 0e		 mov	 ecx, DWORD PTR [esi]

; 147  : 	const char * data () const { return rep_->str; }

  00051	8b 03		 mov	 eax, DWORD PTR [ebx]
  00053	83 c0 08	 add	 eax, 8

; 88   : 		memcpy(start(), copy.data(), length());

  00056	ff 31		 push	 DWORD PTR [ecx]
  00058	50		 push	 eax

; 224  : 	char* start() const { return rep_->str; }

  00059	8d 41 08	 lea	 eax, DWORD PTR [ecx+8]

; 88   : 		memcpy(start(), copy.data(), length());

  0005c	50		 push	 eax
  0005d	e8 00 00 00 00	 call	 _memcpy
  00062	83 c4 0c	 add	 esp, 12			; 0000000cH

; 89   : 	}

  00065	8b c6		 mov	 eax, esi
  00067	5f		 pop	 edi
  00068	5e		 pop	 esi
  00069	5b		 pop	 ebx
  0006a	5d		 pop	 ebp
  0006b	c2 04 00	 ret	 4
??0TiXmlString@@QAE@ABV0@@Z ENDP			; TiXmlString::TiXmlString
_TEXT	ENDS
; Function compile flags: /Ogtp
; File E:\Proyectos\JuegosOnlineproyectos\PB\pbblow\Piercing Blow Remake\i3Server\include\i3Base\tinystr.h
;	COMDAT ??0TiXmlString@@QAE@XZ
_TEXT	SEGMENT
??0TiXmlString@@QAE@XZ PROC				; TiXmlString::TiXmlString, COMDAT
; _this$ = ecx

; 80   : 	TiXmlString () : rep_(&nullrep_)

  00000	c7 01 00 00 00
	00		 mov	 DWORD PTR [ecx], OFFSET ?nullrep_@TiXmlString@@0URep@1@A ; TiXmlString::nullrep_

; 82   : 	}

  00006	8b c1		 mov	 eax, ecx
  00008	c3		 ret	 0
??0TiXmlString@@QAE@XZ ENDP				; TiXmlString::TiXmlString
_TEXT	ENDS
; Function compile flags: /Ogtp
; File E:\Proyectos\JuegosOnlineproyectos\PB\pbblow\Piercing Blow Remake\i3Server\src\i3Base\i3NetworkHTTP.cpp
;	COMDAT ??_Ei3FileStream@@UAEPAXI@Z
_TEXT	SEGMENT
__$EHRec$ = -12						; size = 12
___flags$ = 8						; size = 4
??_Ei3FileStream@@UAEPAXI@Z PROC			; i3FileStream::`vector deleting destructor', COMDAT
; _this$ = ecx
  00000	55		 push	 ebp
  00001	8b ec		 mov	 ebp, esp
  00003	6a ff		 push	 -1
  00005	68 00 00 00 00	 push	 __ehhandler$??_Ei3FileStream@@UAEPAXI@Z
  0000a	64 a1 00 00 00
	00		 mov	 eax, DWORD PTR fs:0
  00010	50		 push	 eax
  00011	53		 push	 ebx
  00012	56		 push	 esi
  00013	57		 push	 edi
  00014	a1 00 00 00 00	 mov	 eax, DWORD PTR ___security_cookie
  00019	33 c5		 xor	 eax, ebp
  0001b	50		 push	 eax
  0001c	8d 45 f4	 lea	 eax, DWORD PTR __$EHRec$[ebp]
  0001f	64 a3 00 00 00
	00		 mov	 DWORD PTR fs:0, eax
  00025	8b f1		 mov	 esi, ecx
  00027	8b 5d 08	 mov	 ebx, DWORD PTR ___flags$[ebp]
  0002a	8b fb		 mov	 edi, ebx
  0002c	83 e7 01	 and	 edi, 1
  0002f	f6 c3 02	 test	 bl, 2
  00032	74 43		 je	 SHORT $LN2@vector
  00034	68 00 00 00 00	 push	 OFFSET ??1i3FileStream@@UAE@XZ ; i3FileStream::~i3FileStream
  00039	ff 76 fc	 push	 DWORD PTR [esi-4]
  0003c	8d 5e fc	 lea	 ebx, DWORD PTR [esi-4]
  0003f	68 38 01 00 00	 push	 312			; 00000138H
  00044	56		 push	 esi
  00045	e8 00 00 00 00	 call	 ??_M@YGXPAXIIP6EX0@Z@Z
  0004a	85 ff		 test	 edi, edi
  0004c	74 13		 je	 SHORT $LN3@vector
  0004e	69 0b 38 01 00
	00		 imul	 ecx, DWORD PTR [ebx], 312
  00054	83 c1 04	 add	 ecx, 4
  00057	51		 push	 ecx
  00058	53		 push	 ebx
  00059	e8 00 00 00 00	 call	 ??_V@YAXPAXI@Z		; operator delete[]
  0005e	83 c4 08	 add	 esp, 8
$LN3@vector:
  00061	8b c3		 mov	 eax, ebx
  00063	8b 4d f4	 mov	 ecx, DWORD PTR __$EHRec$[ebp]
  00066	64 89 0d 00 00
	00 00		 mov	 DWORD PTR fs:0, ecx
  0006d	59		 pop	 ecx
  0006e	5f		 pop	 edi
  0006f	5e		 pop	 esi
  00070	5b		 pop	 ebx
  00071	8b e5		 mov	 esp, ebp
  00073	5d		 pop	 ebp
  00074	c2 04 00	 ret	 4
$LN2@vector:
  00077	e8 00 00 00 00	 call	 ??1i3FileStream@@UAE@XZ	; i3FileStream::~i3FileStream
  0007c	85 ff		 test	 edi, edi
  0007e	74 1e		 je	 SHORT $LN6@vector
  00080	f6 c3 04	 test	 bl, 4
  00083	75 0b		 jne	 SHORT $LN5@vector
  00085	56		 push	 esi
  00086	e8 00 00 00 00	 call	 ??3i3ElementBase@@SAXPAX@Z ; i3ElementBase::operator delete
  0008b	83 c4 04	 add	 esp, 4
  0008e	eb 0e		 jmp	 SHORT $LN6@vector
$LN5@vector:

  00090	68 38 01 00 00	 push	 312			; 00000138H
  00095	56		 push	 esi
  00096	e8 00 00 00 00	 call	 ??3@YAXPAXI@Z		; operator delete
  0009b	83 c4 08	 add	 esp, 8
$LN6@vector:
  0009e	8b c6		 mov	 eax, esi
  000a0	8b 4d f4	 mov	 ecx, DWORD PTR __$EHRec$[ebp]
  000a3	64 89 0d 00 00
	00 00		 mov	 DWORD PTR fs:0, ecx
  000aa	59		 pop	 ecx
  000ab	5f		 pop	 edi
  000ac	5e		 pop	 esi
  000ad	5b		 pop	 ebx
  000ae	8b e5		 mov	 esp, ebp
  000b0	5d		 pop	 ebp
  000b1	c2 04 00	 ret	 4
  000b4	cc		 int	 3
  000b5	cc		 int	 3
  000b6	cc		 int	 3
  000b7	cc		 int	 3
  000b8	cc		 int	 3
_TEXT	ENDS
;	COMDAT text$x
text$x	SEGMENT
__ehhandler$??_Ei3FileStream@@UAEPAXI@Z:
  00000	90		 npad	 1
  00001	90		 npad	 1
  00002	8b 54 24 08	 mov	 edx, DWORD PTR [esp+8]
  00006	8d 42 0c	 lea	 eax, DWORD PTR [edx+12]
  00009	8b 4a f0	 mov	 ecx, DWORD PTR [edx-16]
  0000c	33 c8		 xor	 ecx, eax
  0000e	e8 00 00 00 00	 call	 @__security_check_cookie@4
  00013	b8 00 00 00 00	 mov	 eax, OFFSET __ehfuncinfo$??_Ei3FileStream@@UAEPAXI@Z
  00018	e9 00 00 00 00	 jmp	 ___CxxFrameHandler3
text$x	ENDS
??_Ei3FileStream@@UAEPAXI@Z ENDP			; i3FileStream::`vector deleting destructor'
; Function compile flags: /Ogtp
; File E:\Proyectos\JuegosOnlineproyectos\PB\pbblow\Piercing Blow Remake\i3Server\src\i3Base\i3NetworkHTTP.cpp
;	COMDAT ??_Gi3FileStream@@UAEPAXI@Z
_TEXT	SEGMENT
___flags$ = 8						; size = 4
??_Gi3FileStream@@UAEPAXI@Z PROC			; i3FileStream::`scalar deleting destructor', COMDAT
; _this$ = ecx
  00000	55		 push	 ebp
  00001	8b ec		 mov	 ebp, esp
  00003	56		 push	 esi
  00004	8b f1		 mov	 esi, ecx
  00006	e8 00 00 00 00	 call	 ??1i3FileStream@@UAE@XZ	; i3FileStream::~i3FileStream
  0000b	8b 45 08	 mov	 eax, DWORD PTR ___flags$[ebp]
  0000e	a8 01		 test	 al, 1
  00010	74 22		 je	 SHORT $LN10@scalar
  00012	a8 04		 test	 al, 4
  00014	75 10		 jne	 SHORT $LN3@scalar
  00016	56		 push	 esi
  00017	e8 00 00 00 00	 call	 ??3i3ElementBase@@SAXPAX@Z ; i3ElementBase::operator delete
  0001c	83 c4 04	 add	 esp, 4
  0001f	8b c6		 mov	 eax, esi
  00021	5e		 pop	 esi
  00022	5d		 pop	 ebp
  00023	c2 04 00	 ret	 4
$LN3@scalar:

  00026	68 38 01 00 00	 push	 312			; 00000138H
  0002b	56		 push	 esi
  0002c	e8 00 00 00 00	 call	 ??3@YAXPAXI@Z		; operator delete
  00031	83 c4 08	 add	 esp, 8
$LN10@scalar:
  00034	8b c6		 mov	 eax, esi
  00036	5e		 pop	 esi
  00037	5d		 pop	 ebp
  00038	c2 04 00	 ret	 4
??_Gi3FileStream@@UAEPAXI@Z ENDP			; i3FileStream::`scalar deleting destructor'
_TEXT	ENDS
; Function compile flags: /Ogtp
;	COMDAT ??4i3FileStream@@QAEAAV0@ABV0@@Z
_TEXT	SEGMENT
___that$ = 8						; size = 4
??4i3FileStream@@QAEAAV0@ABV0@@Z PROC			; i3FileStream::operator=, COMDAT
; _this$ = ecx
  00000	55		 push	 ebp
  00001	8b ec		 mov	 ebp, esp
  00003	8b d1		 mov	 edx, ecx
  00005	56		 push	 esi
  00006	8b 75 08	 mov	 esi, DWORD PTR ___that$[ebp]
  00009	8b 46 04	 mov	 eax, DWORD PTR [esi+4]
  0000c	89 42 04	 mov	 DWORD PTR [edx+4], eax
  0000f	8b 46 08	 mov	 eax, DWORD PTR [esi+8]
  00012	89 42 08	 mov	 DWORD PTR [edx+8], eax
  00015	8b 46 0c	 mov	 eax, DWORD PTR [esi+12]
  00018	89 42 0c	 mov	 DWORD PTR [edx+12], eax
  0001b	8b 46 10	 mov	 eax, DWORD PTR [esi+16]
  0001e	89 42 10	 mov	 DWORD PTR [edx+16], eax
  00021	8b 46 14	 mov	 eax, DWORD PTR [esi+20]
  00024	89 42 14	 mov	 DWORD PTR [edx+20], eax
  00027	8b 46 18	 mov	 eax, DWORD PTR [esi+24]
  0002a	89 42 18	 mov	 DWORD PTR [edx+24], eax
  0002d	8b 46 1c	 mov	 eax, DWORD PTR [esi+28]
  00030	89 42 1c	 mov	 DWORD PTR [edx+28], eax
  00033	8b 46 20	 mov	 eax, DWORD PTR [esi+32]
  00036	89 42 20	 mov	 DWORD PTR [edx+32], eax
  00039	8b 46 24	 mov	 eax, DWORD PTR [esi+36]
  0003c	89 42 24	 mov	 DWORD PTR [edx+36], eax
  0003f	8b 46 28	 mov	 eax, DWORD PTR [esi+40]
  00042	89 42 28	 mov	 DWORD PTR [edx+40], eax
  00045	8b 46 2c	 mov	 eax, DWORD PTR [esi+44]
  00048	89 42 2c	 mov	 DWORD PTR [edx+44], eax
  0004b	8b 46 30	 mov	 eax, DWORD PTR [esi+48]
  0004e	89 42 30	 mov	 DWORD PTR [edx+48], eax
  00051	33 c0		 xor	 eax, eax
$LL4@operator:
  00053	8a 4c 06 34	 mov	 cl, BYTE PTR [esi+eax+52]
  00057	88 4c 02 34	 mov	 BYTE PTR [edx+eax+52], cl
  0005b	40		 inc	 eax
  0005c	3d 04 01 00 00	 cmp	 eax, 260		; 00000104H
  00061	72 f0		 jb	 SHORT $LL4@operator
  00063	5e		 pop	 esi
  00064	8b c2		 mov	 eax, edx
  00066	5d		 pop	 ebp
  00067	c2 04 00	 ret	 4
??4i3FileStream@@QAEAAV0@ABV0@@Z ENDP			; i3FileStream::operator=
_TEXT	ENDS
; Function compile flags: /Ogtp
;	COMDAT ??0i3FileStream@@QAE@ABV0@@Z
_TEXT	SEGMENT
___that$ = 8						; size = 4
??0i3FileStream@@QAE@ABV0@@Z PROC			; i3FileStream::i3FileStream, COMDAT
; _this$ = ecx
  00000	55		 push	 ebp
  00001	8b ec		 mov	 ebp, esp
  00003	8b d1		 mov	 edx, ecx
  00005	b9 41 00 00 00	 mov	 ecx, 65			; 00000041H
  0000a	56		 push	 esi
  0000b	8b 75 08	 mov	 esi, DWORD PTR ___that$[ebp]
  0000e	57		 push	 edi
  0000f	c7 02 00 00 00
	00		 mov	 DWORD PTR [edx], OFFSET ??_7i3ElementBase@@6B@
  00015	8d 7a 34	 lea	 edi, DWORD PTR [edx+52]
  00018	8b 46 04	 mov	 eax, DWORD PTR [esi+4]
  0001b	89 42 04	 mov	 DWORD PTR [edx+4], eax
  0001e	8b 46 08	 mov	 eax, DWORD PTR [esi+8]
  00021	89 42 08	 mov	 DWORD PTR [edx+8], eax
  00024	8b 46 0c	 mov	 eax, DWORD PTR [esi+12]
  00027	89 42 0c	 mov	 DWORD PTR [edx+12], eax
  0002a	c7 02 00 00 00
	00		 mov	 DWORD PTR [edx], OFFSET ??_7i3Stream@@6B@
  00030	8b 46 10	 mov	 eax, DWORD PTR [esi+16]
  00033	89 42 10	 mov	 DWORD PTR [edx+16], eax
  00036	8b 46 14	 mov	 eax, DWORD PTR [esi+20]
  00039	89 42 14	 mov	 DWORD PTR [edx+20], eax
  0003c	8b 46 18	 mov	 eax, DWORD PTR [esi+24]
  0003f	89 42 18	 mov	 DWORD PTR [edx+24], eax
  00042	8b 46 1c	 mov	 eax, DWORD PTR [esi+28]
  00045	89 42 1c	 mov	 DWORD PTR [edx+28], eax
  00048	8b 46 20	 mov	 eax, DWORD PTR [esi+32]
  0004b	89 42 20	 mov	 DWORD PTR [edx+32], eax
  0004e	c7 02 00 00 00
	00		 mov	 DWORD PTR [edx], OFFSET ??_7i3FileStream@@6B@
  00054	8b 46 24	 mov	 eax, DWORD PTR [esi+36]
  00057	89 42 24	 mov	 DWORD PTR [edx+36], eax
  0005a	8b 46 28	 mov	 eax, DWORD PTR [esi+40]
  0005d	89 42 28	 mov	 DWORD PTR [edx+40], eax
  00060	8b 46 2c	 mov	 eax, DWORD PTR [esi+44]
  00063	89 42 2c	 mov	 DWORD PTR [edx+44], eax
  00066	8b 46 30	 mov	 eax, DWORD PTR [esi+48]
  00069	83 c6 34	 add	 esi, 52			; 00000034H
  0006c	89 42 30	 mov	 DWORD PTR [edx+48], eax
  0006f	8b c2		 mov	 eax, edx
  00071	f3 a5		 rep movsd
  00073	5f		 pop	 edi
  00074	5e		 pop	 esi
  00075	5d		 pop	 ebp
  00076	c2 04 00	 ret	 4
??0i3FileStream@@QAE@ABV0@@Z ENDP			; i3FileStream::i3FileStream
_TEXT	ENDS
; Function compile flags: /Ogtp
; File E:\Proyectos\JuegosOnlineproyectos\PB\pbblow\Piercing Blow Remake\i3Server\include\i3Base\i3StreamFile.h
;	COMDAT ?IsCaseSensitive@i3FileStream@@SAHXZ
_TEXT	SEGMENT
?IsCaseSensitive@i3FileStream@@SAHXZ PROC		; i3FileStream::IsCaseSensitive, COMDAT

; 45   : 	static BOOL	IsCaseSensitive()						{ return m_bCaseSensitive; }

  00000	a1 00 00 00 00	 mov	 eax, DWORD PTR ?m_bCaseSensitive@i3FileStream@@1HA ; i3FileStream::m_bCaseSensitive
  00005	c3		 ret	 0
?IsCaseSensitive@i3FileStream@@SAHXZ ENDP		; i3FileStream::IsCaseSensitive
_TEXT	ENDS
; Function compile flags: /Ogtp
; File E:\Proyectos\JuegosOnlineproyectos\PB\pbblow\Piercing Blow Remake\i3Server\include\i3Base\i3StreamFile.h
;	COMDAT ?SetCaseSensitive@i3FileStream@@SAXH@Z
_TEXT	SEGMENT
_bTrue$ = 8						; size = 4
?SetCaseSensitive@i3FileStream@@SAXH@Z PROC		; i3FileStream::SetCaseSensitive, COMDAT

; 44   : 	static void	SetCaseSensitive( BOOL bTrue = TRUE )	{ m_bCaseSensitive = bTrue; }

  00000	55		 push	 ebp
  00001	8b ec		 mov	 ebp, esp
  00003	8b 45 08	 mov	 eax, DWORD PTR _bTrue$[ebp]
  00006	a3 00 00 00 00	 mov	 DWORD PTR ?m_bCaseSensitive@i3FileStream@@1HA, eax ; i3FileStream::m_bCaseSensitive
  0000b	5d		 pop	 ebp
  0000c	c3		 ret	 0
?SetCaseSensitive@i3FileStream@@SAXH@Z ENDP		; i3FileStream::SetCaseSensitive
_TEXT	ENDS
; Function compile flags: /Ogtp
; File E:\Proyectos\JuegosOnlineproyectos\PB\pbblow\Piercing Blow Remake\i3Server\include\i3Base\i3StreamFile.h
;	COMDAT ?GetFileName@i3FileStream@@QAEPADXZ
_TEXT	SEGMENT
?GetFileName@i3FileStream@@QAEPADXZ PROC		; i3FileStream::GetFileName, COMDAT
; _this$ = ecx

; 41   : 	char *  GetFileName(void)			{ return FileName; }

  00000	8d 41 34	 lea	 eax, DWORD PTR [ecx+52]
  00003	c3		 ret	 0
?GetFileName@i3FileStream@@QAEPADXZ ENDP		; i3FileStream::GetFileName
_TEXT	ENDS
; Function compile flags: /Ogtp
; File E:\Proyectos\JuegosOnlineproyectos\PB\pbblow\Piercing Blow Remake\i3Server\include\i3Base\i3StreamFile.h
;	COMDAT ?GetHandle@i3FileStream@@UAEPAXXZ
_TEXT	SEGMENT
?GetHandle@i3FileStream@@UAEPAXXZ PROC			; i3FileStream::GetHandle, COMDAT
; _this$ = ecx

; 39   : 	void * GetHandle(void)				{ return (void *)m_pHandle; }

  00000	8b 41 20	 mov	 eax, DWORD PTR [ecx+32]
  00003	c3		 ret	 0
?GetHandle@i3FileStream@@UAEPAXXZ ENDP			; i3FileStream::GetHandle
_TEXT	ENDS
; Function compile flags: /Ogtp
; File E:\Proyectos\JuegosOnlineproyectos\PB\pbblow\Piercing Blow Remake\i3Server\include\i3Base\i3StreamFile.h
;	COMDAT ?GetClassMeta@i3FileStream@@SAPAVi3ClassMeta@@XZ
_TEXT	SEGMENT
?GetClassMeta@i3FileStream@@SAPAVi3ClassMeta@@XZ PROC	; i3FileStream::GetClassMeta, COMDAT

; 20   : 	I3_CLASS_DEFINE( i3FileStream);

  00000	a1 00 00 00 00	 mov	 eax, DWORD PTR ?s_pClassMetai3FileStream@i3FileStream@@2PAVi3ClassMeta@@A ; i3FileStream::s_pClassMetai3FileStream
  00005	c3		 ret	 0
?GetClassMeta@i3FileStream@@SAPAVi3ClassMeta@@XZ ENDP	; i3FileStream::GetClassMeta
_TEXT	ENDS
; Function compile flags: /Ogtp
; File E:\Proyectos\JuegosOnlineproyectos\PB\pbblow\Piercing Blow Remake\i3Server\src\i3Base\i3NetworkHTTP.cpp
;	COMDAT ??_Ei3Stream@@UAEPAXI@Z
_TEXT	SEGMENT
__$EHRec$ = -12						; size = 12
___flags$ = 8						; size = 4
??_Ei3Stream@@UAEPAXI@Z PROC				; i3Stream::`vector deleting destructor', COMDAT
; _this$ = ecx
  00000	55		 push	 ebp
  00001	8b ec		 mov	 ebp, esp
  00003	6a ff		 push	 -1
  00005	68 00 00 00 00	 push	 __ehhandler$??_Ei3Stream@@UAEPAXI@Z
  0000a	64 a1 00 00 00
	00		 mov	 eax, DWORD PTR fs:0
  00010	50		 push	 eax
  00011	53		 push	 ebx
  00012	56		 push	 esi
  00013	57		 push	 edi
  00014	a1 00 00 00 00	 mov	 eax, DWORD PTR ___security_cookie
  00019	33 c5		 xor	 eax, ebp
  0001b	50		 push	 eax
  0001c	8d 45 f4	 lea	 eax, DWORD PTR __$EHRec$[ebp]
  0001f	64 a3 00 00 00
	00		 mov	 DWORD PTR fs:0, eax
  00025	8b f1		 mov	 esi, ecx
  00027	8b 5d 08	 mov	 ebx, DWORD PTR ___flags$[ebp]
  0002a	8b fb		 mov	 edi, ebx
  0002c	83 e7 01	 and	 edi, 1
  0002f	f6 c3 02	 test	 bl, 2
  00032	74 43		 je	 SHORT $LN2@vector
  00034	68 00 00 00 00	 push	 OFFSET ??1i3Stream@@UAE@XZ ; i3Stream::~i3Stream
  00039	ff 76 fc	 push	 DWORD PTR [esi-4]
  0003c	8d 5e fc	 lea	 ebx, DWORD PTR [esi-4]
  0003f	6a 24		 push	 36			; 00000024H
  00041	56		 push	 esi
  00042	e8 00 00 00 00	 call	 ??_M@YGXPAXIIP6EX0@Z@Z
  00047	85 ff		 test	 edi, edi
  00049	74 16		 je	 SHORT $LN3@vector
  0004b	8b 0b		 mov	 ecx, DWORD PTR [ebx]
  0004d	8d 0c c9	 lea	 ecx, DWORD PTR [ecx+ecx*8]
  00050	8d 0c 8d 04 00
	00 00		 lea	 ecx, DWORD PTR [ecx*4+4]
  00057	51		 push	 ecx
  00058	53		 push	 ebx
  00059	e8 00 00 00 00	 call	 ??_V@YAXPAXI@Z		; operator delete[]
  0005e	83 c4 08	 add	 esp, 8
$LN3@vector:
  00061	8b c3		 mov	 eax, ebx
  00063	8b 4d f4	 mov	 ecx, DWORD PTR __$EHRec$[ebp]
  00066	64 89 0d 00 00
	00 00		 mov	 DWORD PTR fs:0, ecx
  0006d	59		 pop	 ecx
  0006e	5f		 pop	 edi
  0006f	5e		 pop	 esi
  00070	5b		 pop	 ebx
  00071	8b e5		 mov	 esp, ebp
  00073	5d		 pop	 ebp
  00074	c2 04 00	 ret	 4
$LN2@vector:
  00077	e8 00 00 00 00	 call	 ??1i3Stream@@UAE@XZ	; i3Stream::~i3Stream
  0007c	85 ff		 test	 edi, edi
  0007e	74 1b		 je	 SHORT $LN6@vector
  00080	f6 c3 04	 test	 bl, 4
  00083	75 0b		 jne	 SHORT $LN5@vector
  00085	56		 push	 esi
  00086	e8 00 00 00 00	 call	 ??3i3ElementBase@@SAXPAX@Z ; i3ElementBase::operator delete
  0008b	83 c4 04	 add	 esp, 4
  0008e	eb 0b		 jmp	 SHORT $LN6@vector
$LN5@vector:

  00090	6a 24		 push	 36			; 00000024H
  00092	56		 push	 esi
  00093	e8 00 00 00 00	 call	 ??3@YAXPAXI@Z		; operator delete
  00098	83 c4 08	 add	 esp, 8
$LN6@vector:
  0009b	8b c6		 mov	 eax, esi
  0009d	8b 4d f4	 mov	 ecx, DWORD PTR __$EHRec$[ebp]
  000a0	64 89 0d 00 00
	00 00		 mov	 DWORD PTR fs:0, ecx
  000a7	59		 pop	 ecx
  000a8	5f		 pop	 edi
  000a9	5e		 pop	 esi
  000aa	5b		 pop	 ebx
  000ab	8b e5		 mov	 esp, ebp
  000ad	5d		 pop	 ebp
  000ae	c2 04 00	 ret	 4
  000b1	cc		 int	 3
  000b2	cc		 int	 3
  000b3	cc		 int	 3
  000b4	cc		 int	 3
  000b5	cc		 int	 3
_TEXT	ENDS
;	COMDAT text$x
text$x	SEGMENT
__ehhandler$??_Ei3Stream@@UAEPAXI@Z:
  00000	90		 npad	 1
  00001	90		 npad	 1
  00002	8b 54 24 08	 mov	 edx, DWORD PTR [esp+8]
  00006	8d 42 0c	 lea	 eax, DWORD PTR [edx+12]
  00009	8b 4a f0	 mov	 ecx, DWORD PTR [edx-16]
  0000c	33 c8		 xor	 ecx, eax
  0000e	e8 00 00 00 00	 call	 @__security_check_cookie@4
  00013	b8 00 00 00 00	 mov	 eax, OFFSET __ehfuncinfo$??_Ei3Stream@@UAEPAXI@Z
  00018	e9 00 00 00 00	 jmp	 ___CxxFrameHandler3
text$x	ENDS
??_Ei3Stream@@UAEPAXI@Z ENDP				; i3Stream::`vector deleting destructor'
; Function compile flags: /Ogtp
; File E:\Proyectos\JuegosOnlineproyectos\PB\pbblow\Piercing Blow Remake\i3Server\src\i3Base\i3NetworkHTTP.cpp
;	COMDAT ??_Gi3Stream@@UAEPAXI@Z
_TEXT	SEGMENT
___flags$ = 8						; size = 4
??_Gi3Stream@@UAEPAXI@Z PROC				; i3Stream::`scalar deleting destructor', COMDAT
; _this$ = ecx
  00000	55		 push	 ebp
  00001	8b ec		 mov	 ebp, esp
  00003	56		 push	 esi
  00004	8b f1		 mov	 esi, ecx
  00006	e8 00 00 00 00	 call	 ??1i3Stream@@UAE@XZ	; i3Stream::~i3Stream
  0000b	8b 45 08	 mov	 eax, DWORD PTR ___flags$[ebp]
  0000e	a8 01		 test	 al, 1
  00010	74 1f		 je	 SHORT $LN10@scalar
  00012	a8 04		 test	 al, 4
  00014	75 10		 jne	 SHORT $LN3@scalar
  00016	56		 push	 esi
  00017	e8 00 00 00 00	 call	 ??3i3ElementBase@@SAXPAX@Z ; i3ElementBase::operator delete
  0001c	83 c4 04	 add	 esp, 4
  0001f	8b c6		 mov	 eax, esi
  00021	5e		 pop	 esi
  00022	5d		 pop	 ebp
  00023	c2 04 00	 ret	 4
$LN3@scalar:

  00026	6a 24		 push	 36			; 00000024H
  00028	56		 push	 esi
  00029	e8 00 00 00 00	 call	 ??3@YAXPAXI@Z		; operator delete
  0002e	83 c4 08	 add	 esp, 8
$LN10@scalar:
  00031	8b c6		 mov	 eax, esi
  00033	5e		 pop	 esi
  00034	5d		 pop	 ebp
  00035	c2 04 00	 ret	 4
??_Gi3Stream@@UAEPAXI@Z ENDP				; i3Stream::`scalar deleting destructor'
_TEXT	ENDS
; Function compile flags: /Ogtp
;	COMDAT ??4i3Stream@@QAEAAV0@ABV0@@Z
_TEXT	SEGMENT
___that$ = 8						; size = 4
??4i3Stream@@QAEAAV0@ABV0@@Z PROC			; i3Stream::operator=, COMDAT
; _this$ = ecx
  00000	55		 push	 ebp
  00001	8b ec		 mov	 ebp, esp
  00003	8b 55 08	 mov	 edx, DWORD PTR ___that$[ebp]
  00006	8b 42 04	 mov	 eax, DWORD PTR [edx+4]
  00009	89 41 04	 mov	 DWORD PTR [ecx+4], eax
  0000c	8b 42 08	 mov	 eax, DWORD PTR [edx+8]
  0000f	89 41 08	 mov	 DWORD PTR [ecx+8], eax
  00012	8b 42 0c	 mov	 eax, DWORD PTR [edx+12]
  00015	89 41 0c	 mov	 DWORD PTR [ecx+12], eax
  00018	8b 42 10	 mov	 eax, DWORD PTR [edx+16]
  0001b	89 41 10	 mov	 DWORD PTR [ecx+16], eax
  0001e	8b 42 14	 mov	 eax, DWORD PTR [edx+20]
  00021	89 41 14	 mov	 DWORD PTR [ecx+20], eax
  00024	8b 42 18	 mov	 eax, DWORD PTR [edx+24]
  00027	89 41 18	 mov	 DWORD PTR [ecx+24], eax
  0002a	8b 42 1c	 mov	 eax, DWORD PTR [edx+28]
  0002d	89 41 1c	 mov	 DWORD PTR [ecx+28], eax
  00030	8b 42 20	 mov	 eax, DWORD PTR [edx+32]
  00033	89 41 20	 mov	 DWORD PTR [ecx+32], eax
  00036	8b c1		 mov	 eax, ecx
  00038	5d		 pop	 ebp
  00039	c2 04 00	 ret	 4
??4i3Stream@@QAEAAV0@ABV0@@Z ENDP			; i3Stream::operator=
_TEXT	ENDS
; Function compile flags: /Ogtp
;	COMDAT ??0i3Stream@@QAE@ABV0@@Z
_TEXT	SEGMENT
___that$ = 8						; size = 4
??0i3Stream@@QAE@ABV0@@Z PROC				; i3Stream::i3Stream, COMDAT
; _this$ = ecx
  00000	55		 push	 ebp
  00001	8b ec		 mov	 ebp, esp
  00003	8b 55 08	 mov	 edx, DWORD PTR ___that$[ebp]
  00006	c7 01 00 00 00
	00		 mov	 DWORD PTR [ecx], OFFSET ??_7i3ElementBase@@6B@
  0000c	8b 42 04	 mov	 eax, DWORD PTR [edx+4]
  0000f	89 41 04	 mov	 DWORD PTR [ecx+4], eax
  00012	8b 42 08	 mov	 eax, DWORD PTR [edx+8]
  00015	89 41 08	 mov	 DWORD PTR [ecx+8], eax
  00018	8b 42 0c	 mov	 eax, DWORD PTR [edx+12]
  0001b	89 41 0c	 mov	 DWORD PTR [ecx+12], eax
  0001e	c7 01 00 00 00
	00		 mov	 DWORD PTR [ecx], OFFSET ??_7i3Stream@@6B@
  00024	8b 42 10	 mov	 eax, DWORD PTR [edx+16]
  00027	89 41 10	 mov	 DWORD PTR [ecx+16], eax
  0002a	8b 42 14	 mov	 eax, DWORD PTR [edx+20]
  0002d	89 41 14	 mov	 DWORD PTR [ecx+20], eax
  00030	8b 42 18	 mov	 eax, DWORD PTR [edx+24]
  00033	89 41 18	 mov	 DWORD PTR [ecx+24], eax
  00036	8b 42 1c	 mov	 eax, DWORD PTR [edx+28]
  00039	89 41 1c	 mov	 DWORD PTR [ecx+28], eax
  0003c	8b 42 20	 mov	 eax, DWORD PTR [edx+32]
  0003f	89 41 20	 mov	 DWORD PTR [ecx+32], eax
  00042	8b c1		 mov	 eax, ecx
  00044	5d		 pop	 ebp
  00045	c2 04 00	 ret	 4
??0i3Stream@@QAE@ABV0@@Z ENDP				; i3Stream::i3Stream
_TEXT	ENDS
; Function compile flags: /Ogtp
; File E:\Proyectos\JuegosOnlineproyectos\PB\pbblow\Piercing Blow Remake\i3Server\include\i3Base\i3Stream.h
;	COMDAT ?GetRecordSize@i3Stream@@QAEIXZ
_TEXT	SEGMENT
?GetRecordSize@i3Stream@@QAEIXZ PROC			; i3Stream::GetRecordSize, COMDAT
; _this$ = ecx

; 58   : 	UINT32	GetRecordSize(void)							{ return m_RecordSize; }

  00000	8b 41 14	 mov	 eax, DWORD PTR [ecx+20]
  00003	c3		 ret	 0
?GetRecordSize@i3Stream@@QAEIXZ ENDP			; i3Stream::GetRecordSize
_TEXT	ENDS
; Function compile flags: /Ogtp
; File E:\Proyectos\JuegosOnlineproyectos\PB\pbblow\Piercing Blow Remake\i3Server\include\i3Base\i3Stream.h
;	COMDAT ?BeginRecord@i3Stream@@QAEXXZ
_TEXT	SEGMENT
?BeginRecord@i3Stream@@QAEXXZ PROC			; i3Stream::BeginRecord, COMDAT
; _this$ = ecx

; 57   : 	void	BeginRecord(void)							{ m_RecordSize = 0; }

  00000	c7 41 14 00 00
	00 00		 mov	 DWORD PTR [ecx+20], 0
  00007	c3		 ret	 0
?BeginRecord@i3Stream@@QAEXXZ ENDP			; i3Stream::BeginRecord
_TEXT	ENDS
; Function compile flags: /Ogtp
; File E:\Proyectos\JuegosOnlineproyectos\PB\pbblow\Piercing Blow Remake\i3Server\include\i3Base\i3Stream.h
;	COMDAT ?GetHandle@i3Stream@@UAEPAXXZ
_TEXT	SEGMENT
?GetHandle@i3Stream@@UAEPAXXZ PROC			; i3Stream::GetHandle, COMDAT
; _this$ = ecx

; 55   : 	virtual void *			GetHandle(void)				{ return m_pHandle; }

  00000	8b 41 20	 mov	 eax, DWORD PTR [ecx+32]
  00003	c3		 ret	 0
?GetHandle@i3Stream@@UAEPAXXZ ENDP			; i3Stream::GetHandle
_TEXT	ENDS
; Function compile flags: /Ogtp
; File E:\Proyectos\JuegosOnlineproyectos\PB\pbblow\Piercing Blow Remake\i3Server\include\i3Base\i3Stream.h
;	COMDAT ?GetAccessMode@i3Stream@@QAEHXZ
_TEXT	SEGMENT
?GetAccessMode@i3Stream@@QAEHXZ PROC			; i3Stream::GetAccessMode, COMDAT
; _this$ = ecx

; 53   : 	INT32			GetAccessMode(void)					{ return m_Access; }

  00000	8b 41 1c	 mov	 eax, DWORD PTR [ecx+28]
  00003	c3		 ret	 0
?GetAccessMode@i3Stream@@QAEHXZ ENDP			; i3Stream::GetAccessMode
_TEXT	ENDS
; Function compile flags: /Ogtp
; File E:\Proyectos\JuegosOnlineproyectos\PB\pbblow\Piercing Blow Remake\i3Server\include\i3Base\i3Stream.h
;	COMDAT ?GetLastError@i3Stream@@QAE?AW4STREAMCODE@1@XZ
_TEXT	SEGMENT
?GetLastError@i3Stream@@QAE?AW4STREAMCODE@1@XZ PROC	; i3Stream::GetLastError, COMDAT
; _this$ = ecx

; 52   : 	STREAMCODE		GetLastError(void)					{ return m_LastCode; }

  00000	8b 41 18	 mov	 eax, DWORD PTR [ecx+24]
  00003	c3		 ret	 0
?GetLastError@i3Stream@@QAE?AW4STREAMCODE@1@XZ ENDP	; i3Stream::GetLastError
_TEXT	ENDS
; Function compile flags: /Ogtp
; File E:\Proyectos\JuegosOnlineproyectos\PB\pbblow\Piercing Blow Remake\i3Server\include\i3Base\i3Stream.h
;	COMDAT ?GetSize@i3Stream@@QAEIXZ
_TEXT	SEGMENT
?GetSize@i3Stream@@QAEIXZ PROC				; i3Stream::GetSize, COMDAT
; _this$ = ecx

; 51   : 	UINT32			GetSize(void)						{ return m_Size; }

  00000	8b 41 10	 mov	 eax, DWORD PTR [ecx+16]
  00003	c3		 ret	 0
?GetSize@i3Stream@@QAEIXZ ENDP				; i3Stream::GetSize
_TEXT	ENDS
; Function compile flags: /Ogtp
; File E:\Proyectos\JuegosOnlineproyectos\PB\pbblow\Piercing Blow Remake\i3Server\include\i3Base\i3Stream.h
;	COMDAT ?GetClassMeta@i3Stream@@SAPAVi3ClassMeta@@XZ
_TEXT	SEGMENT
?GetClassMeta@i3Stream@@SAPAVi3ClassMeta@@XZ PROC	; i3Stream::GetClassMeta, COMDAT

; 24   : 	I3_ABSTRACT_CLASS_DEFINE( i3Stream);

  00000	a1 00 00 00 00	 mov	 eax, DWORD PTR ?s_pClassMetai3Stream@i3Stream@@2PAVi3ClassMeta@@A ; i3Stream::s_pClassMetai3Stream
  00005	c3		 ret	 0
?GetClassMeta@i3Stream@@SAPAVi3ClassMeta@@XZ ENDP	; i3Stream::GetClassMeta
_TEXT	ENDS
; Function compile flags: /Ogtp
;	COMDAT ??_Ei3MemoryPool@@UAEPAXI@Z
_TEXT	SEGMENT
__$EHRec$ = -12						; size = 12
___flags$ = 8						; size = 4
??_Ei3MemoryPool@@UAEPAXI@Z PROC			; i3MemoryPool::`vector deleting destructor', COMDAT
; _this$ = ecx
  00000	55		 push	 ebp
  00001	8b ec		 mov	 ebp, esp
  00003	6a ff		 push	 -1
  00005	68 00 00 00 00	 push	 __ehhandler$??_Ei3MemoryPool@@UAEPAXI@Z
  0000a	64 a1 00 00 00
	00		 mov	 eax, DWORD PTR fs:0
  00010	50		 push	 eax
  00011	53		 push	 ebx
  00012	56		 push	 esi
  00013	57		 push	 edi
  00014	a1 00 00 00 00	 mov	 eax, DWORD PTR ___security_cookie
  00019	33 c5		 xor	 eax, ebp
  0001b	50		 push	 eax
  0001c	8d 45 f4	 lea	 eax, DWORD PTR __$EHRec$[ebp]
  0001f	64 a3 00 00 00
	00		 mov	 DWORD PTR fs:0, eax
  00025	8b f1		 mov	 esi, ecx
  00027	8b 45 08	 mov	 eax, DWORD PTR ___flags$[ebp]
  0002a	8b f8		 mov	 edi, eax
  0002c	83 e7 01	 and	 edi, 1
  0002f	a8 02		 test	 al, 2
  00031	74 40		 je	 SHORT $LN2@vector
  00033	68 00 00 00 00	 push	 OFFSET ??1i3MemoryPool@@UAE@XZ ; i3MemoryPool::~i3MemoryPool
  00038	ff 76 fc	 push	 DWORD PTR [esi-4]
  0003b	8d 5e fc	 lea	 ebx, DWORD PTR [esi-4]
  0003e	6a 04		 push	 4
  00040	56		 push	 esi
  00041	e8 00 00 00 00	 call	 ??_M@YGXPAXIIP6EX0@Z@Z
  00046	85 ff		 test	 edi, edi
  00048	74 13		 je	 SHORT $LN3@vector
  0004a	8b 0b		 mov	 ecx, DWORD PTR [ebx]
  0004c	8d 0c 8d 04 00
	00 00		 lea	 ecx, DWORD PTR [ecx*4+4]
  00053	51		 push	 ecx
  00054	53		 push	 ebx
  00055	e8 00 00 00 00	 call	 ??_V@YAXPAXI@Z		; operator delete[]
  0005a	83 c4 08	 add	 esp, 8
$LN3@vector:
  0005d	8b c3		 mov	 eax, ebx
  0005f	8b 4d f4	 mov	 ecx, DWORD PTR __$EHRec$[ebp]
  00062	64 89 0d 00 00
	00 00		 mov	 DWORD PTR fs:0, ecx
  00069	59		 pop	 ecx
  0006a	5f		 pop	 edi
  0006b	5e		 pop	 esi
  0006c	5b		 pop	 ebx
  0006d	8b e5		 mov	 esp, ebp
  0006f	5d		 pop	 ebp
  00070	c2 04 00	 ret	 4
$LN2@vector:
  00073	e8 00 00 00 00	 call	 ??1i3MemoryPool@@UAE@XZ	; i3MemoryPool::~i3MemoryPool
  00078	85 ff		 test	 edi, edi
  0007a	74 0b		 je	 SHORT $LN4@vector
  0007c	6a 04		 push	 4
  0007e	56		 push	 esi
  0007f	e8 00 00 00 00	 call	 ??3@YAXPAXI@Z		; operator delete
  00084	83 c4 08	 add	 esp, 8
$LN4@vector:
  00087	8b c6		 mov	 eax, esi
  00089	8b 4d f4	 mov	 ecx, DWORD PTR __$EHRec$[ebp]
  0008c	64 89 0d 00 00
	00 00		 mov	 DWORD PTR fs:0, ecx
  00093	59		 pop	 ecx
  00094	5f		 pop	 edi
  00095	5e		 pop	 esi
  00096	5b		 pop	 ebx
  00097	8b e5		 mov	 esp, ebp
  00099	5d		 pop	 ebp
  0009a	c2 04 00	 ret	 4
  0009d	cc		 int	 3
  0009e	cc		 int	 3
  0009f	cc		 int	 3
  000a0	cc		 int	 3
  000a1	cc		 int	 3
_TEXT	ENDS
;	COMDAT text$x
text$x	SEGMENT
__ehhandler$??_Ei3MemoryPool@@UAEPAXI@Z:
  00000	90		 npad	 1
  00001	90		 npad	 1
  00002	8b 54 24 08	 mov	 edx, DWORD PTR [esp+8]
  00006	8d 42 0c	 lea	 eax, DWORD PTR [edx+12]
  00009	8b 4a f0	 mov	 ecx, DWORD PTR [edx-16]
  0000c	33 c8		 xor	 ecx, eax
  0000e	e8 00 00 00 00	 call	 @__security_check_cookie@4
  00013	b8 00 00 00 00	 mov	 eax, OFFSET __ehfuncinfo$??_Ei3MemoryPool@@UAEPAXI@Z
  00018	e9 00 00 00 00	 jmp	 ___CxxFrameHandler3
text$x	ENDS
??_Ei3MemoryPool@@UAEPAXI@Z ENDP			; i3MemoryPool::`vector deleting destructor'
; Function compile flags: /Ogtp
;	COMDAT ??_Gi3MemoryPool@@UAEPAXI@Z
_TEXT	SEGMENT
___flags$ = 8						; size = 4
??_Gi3MemoryPool@@UAEPAXI@Z PROC			; i3MemoryPool::`scalar deleting destructor', COMDAT
; _this$ = ecx
  00000	55		 push	 ebp
  00001	8b ec		 mov	 ebp, esp
  00003	56		 push	 esi
  00004	8b f1		 mov	 esi, ecx
  00006	e8 00 00 00 00	 call	 ??1i3MemoryPool@@UAE@XZ	; i3MemoryPool::~i3MemoryPool
  0000b	f6 45 08 01	 test	 BYTE PTR ___flags$[ebp], 1
  0000f	74 0b		 je	 SHORT $LN5@scalar
  00011	6a 04		 push	 4
  00013	56		 push	 esi
  00014	e8 00 00 00 00	 call	 ??3@YAXPAXI@Z		; operator delete
  00019	83 c4 08	 add	 esp, 8
$LN5@scalar:
  0001c	8b c6		 mov	 eax, esi
  0001e	5e		 pop	 esi
  0001f	5d		 pop	 ebp
  00020	c2 04 00	 ret	 4
??_Gi3MemoryPool@@UAEPAXI@Z ENDP			; i3MemoryPool::`scalar deleting destructor'
_TEXT	ENDS
; Function compile flags: /Ogtp
;	COMDAT ??4i3MemoryPool@@QAEAAV0@ABV0@@Z
_TEXT	SEGMENT
___that$ = 8						; size = 4
??4i3MemoryPool@@QAEAAV0@ABV0@@Z PROC			; i3MemoryPool::operator=, COMDAT
; _this$ = ecx
  00000	8b c1		 mov	 eax, ecx
  00002	c2 04 00	 ret	 4
??4i3MemoryPool@@QAEAAV0@ABV0@@Z ENDP			; i3MemoryPool::operator=
_TEXT	ENDS
; Function compile flags: /Ogtp
;	COMDAT ??0i3MemoryPool@@QAE@ABV0@@Z
_TEXT	SEGMENT
___that$ = 8						; size = 4
??0i3MemoryPool@@QAE@ABV0@@Z PROC			; i3MemoryPool::i3MemoryPool, COMDAT
; _this$ = ecx
  00000	c7 01 00 00 00
	00		 mov	 DWORD PTR [ecx], OFFSET ??_7i3MemoryPool@@6B@
  00006	8b c1		 mov	 eax, ecx
  00008	c2 04 00	 ret	 4
??0i3MemoryPool@@QAE@ABV0@@Z ENDP			; i3MemoryPool::i3MemoryPool
_TEXT	ENDS
; Function compile flags: /Ogtp
; File E:\Proyectos\JuegosOnlineproyectos\PB\pbblow\Piercing Blow Remake\i3Server\src\i3Base\i3NetworkHTTP.cpp
;	COMDAT ??_Ei3ElementBase@@UAEPAXI@Z
_TEXT	SEGMENT
__$EHRec$ = -12						; size = 12
___flags$ = 8						; size = 4
??_Ei3ElementBase@@UAEPAXI@Z PROC			; i3ElementBase::`vector deleting destructor', COMDAT
; _this$ = ecx
  00000	55		 push	 ebp
  00001	8b ec		 mov	 ebp, esp
  00003	6a ff		 push	 -1
  00005	68 00 00 00 00	 push	 __ehhandler$??_Ei3ElementBase@@UAEPAXI@Z
  0000a	64 a1 00 00 00
	00		 mov	 eax, DWORD PTR fs:0
  00010	50		 push	 eax
  00011	53		 push	 ebx
  00012	56		 push	 esi
  00013	57		 push	 edi
  00014	a1 00 00 00 00	 mov	 eax, DWORD PTR ___security_cookie
  00019	33 c5		 xor	 eax, ebp
  0001b	50		 push	 eax
  0001c	8d 45 f4	 lea	 eax, DWORD PTR __$EHRec$[ebp]
  0001f	64 a3 00 00 00
	00		 mov	 DWORD PTR fs:0, eax
  00025	8b f1		 mov	 esi, ecx
  00027	8b 5d 08	 mov	 ebx, DWORD PTR ___flags$[ebp]
  0002a	8b fb		 mov	 edi, ebx
  0002c	83 e7 01	 and	 edi, 1
  0002f	f6 c3 02	 test	 bl, 2
  00032	74 3f		 je	 SHORT $LN2@vector
  00034	68 00 00 00 00	 push	 OFFSET ??1i3ElementBase@@UAE@XZ ; i3ElementBase::~i3ElementBase
  00039	ff 76 fc	 push	 DWORD PTR [esi-4]
  0003c	8d 5e fc	 lea	 ebx, DWORD PTR [esi-4]
  0003f	6a 10		 push	 16			; 00000010H
  00041	56		 push	 esi
  00042	e8 00 00 00 00	 call	 ??_M@YGXPAXIIP6EX0@Z@Z
  00047	85 ff		 test	 edi, edi
  00049	74 12		 je	 SHORT $LN3@vector
  0004b	8b 0b		 mov	 ecx, DWORD PTR [ebx]
  0004d	c1 e1 04	 shl	 ecx, 4
  00050	83 c1 04	 add	 ecx, 4
  00053	51		 push	 ecx
  00054	53		 push	 ebx
  00055	e8 00 00 00 00	 call	 ??_V@YAXPAXI@Z		; operator delete[]
  0005a	83 c4 08	 add	 esp, 8
$LN3@vector:
  0005d	8b c3		 mov	 eax, ebx
  0005f	8b 4d f4	 mov	 ecx, DWORD PTR __$EHRec$[ebp]
  00062	64 89 0d 00 00
	00 00		 mov	 DWORD PTR fs:0, ecx
  00069	59		 pop	 ecx
  0006a	5f		 pop	 edi
  0006b	5e		 pop	 esi
  0006c	5b		 pop	 ebx
  0006d	8b e5		 mov	 esp, ebp
  0006f	5d		 pop	 ebp
  00070	c2 04 00	 ret	 4
$LN2@vector:
  00073	e8 00 00 00 00	 call	 ??1i3ElementBase@@UAE@XZ ; i3ElementBase::~i3ElementBase
  00078	85 ff		 test	 edi, edi
  0007a	74 1b		 je	 SHORT $LN6@vector
  0007c	f6 c3 04	 test	 bl, 4
  0007f	75 0b		 jne	 SHORT $LN5@vector
  00081	56		 push	 esi
  00082	e8 00 00 00 00	 call	 ??3i3ElementBase@@SAXPAX@Z ; i3ElementBase::operator delete
  00087	83 c4 04	 add	 esp, 4
  0008a	eb 0b		 jmp	 SHORT $LN6@vector
$LN5@vector:

  0008c	6a 10		 push	 16			; 00000010H
  0008e	56		 push	 esi
  0008f	e8 00 00 00 00	 call	 ??3@YAXPAXI@Z		; operator delete
  00094	83 c4 08	 add	 esp, 8
$LN6@vector:
  00097	8b c6		 mov	 eax, esi
  00099	8b 4d f4	 mov	 ecx, DWORD PTR __$EHRec$[ebp]
  0009c	64 89 0d 00 00
	00 00		 mov	 DWORD PTR fs:0, ecx
  000a3	59		 pop	 ecx
  000a4	5f		 pop	 edi
  000a5	5e		 pop	 esi
  000a6	5b		 pop	 ebx
  000a7	8b e5		 mov	 esp, ebp
  000a9	5d		 pop	 ebp
  000aa	c2 04 00	 ret	 4
  000ad	cc		 int	 3
  000ae	cc		 int	 3
  000af	cc		 int	 3
  000b0	cc		 int	 3
  000b1	cc		 int	 3
_TEXT	ENDS
;	COMDAT text$x
text$x	SEGMENT
__ehhandler$??_Ei3ElementBase@@UAEPAXI@Z:
  00000	90		 npad	 1
  00001	90		 npad	 1
  00002	8b 54 24 08	 mov	 edx, DWORD PTR [esp+8]
  00006	8d 42 0c	 lea	 eax, DWORD PTR [edx+12]
  00009	8b 4a f0	 mov	 ecx, DWORD PTR [edx-16]
  0000c	33 c8		 xor	 ecx, eax
  0000e	e8 00 00 00 00	 call	 @__security_check_cookie@4
  00013	b8 00 00 00 00	 mov	 eax, OFFSET __ehfuncinfo$??_Ei3ElementBase@@UAEPAXI@Z
  00018	e9 00 00 00 00	 jmp	 ___CxxFrameHandler3
text$x	ENDS
??_Ei3ElementBase@@UAEPAXI@Z ENDP			; i3ElementBase::`vector deleting destructor'
; Function compile flags: /Ogtp
; File E:\Proyectos\JuegosOnlineproyectos\PB\pbblow\Piercing Blow Remake\i3Server\src\i3Base\i3NetworkHTTP.cpp
;	COMDAT ??_Gi3ElementBase@@UAEPAXI@Z
_TEXT	SEGMENT
___flags$ = 8						; size = 4
??_Gi3ElementBase@@UAEPAXI@Z PROC			; i3ElementBase::`scalar deleting destructor', COMDAT
; _this$ = ecx
  00000	55		 push	 ebp
  00001	8b ec		 mov	 ebp, esp
  00003	56		 push	 esi
  00004	8b f1		 mov	 esi, ecx
  00006	e8 00 00 00 00	 call	 ??1i3ElementBase@@UAE@XZ ; i3ElementBase::~i3ElementBase
  0000b	8b 45 08	 mov	 eax, DWORD PTR ___flags$[ebp]
  0000e	a8 01		 test	 al, 1
  00010	74 1f		 je	 SHORT $LN10@scalar
  00012	a8 04		 test	 al, 4
  00014	75 10		 jne	 SHORT $LN3@scalar
  00016	56		 push	 esi
  00017	e8 00 00 00 00	 call	 ??3i3ElementBase@@SAXPAX@Z ; i3ElementBase::operator delete
  0001c	83 c4 04	 add	 esp, 4
  0001f	8b c6		 mov	 eax, esi
  00021	5e		 pop	 esi
  00022	5d		 pop	 ebp
  00023	c2 04 00	 ret	 4
$LN3@scalar:

  00026	6a 10		 push	 16			; 00000010H
  00028	56		 push	 esi
  00029	e8 00 00 00 00	 call	 ??3@YAXPAXI@Z		; operator delete
  0002e	83 c4 08	 add	 esp, 8
$LN10@scalar:
  00031	8b c6		 mov	 eax, esi
  00033	5e		 pop	 esi
  00034	5d		 pop	 ebp
  00035	c2 04 00	 ret	 4
??_Gi3ElementBase@@UAEPAXI@Z ENDP			; i3ElementBase::`scalar deleting destructor'
_TEXT	ENDS
; Function compile flags: /Ogtp
;	COMDAT ??4i3ElementBase@@QAEAAV0@ABV0@@Z
_TEXT	SEGMENT
___that$ = 8						; size = 4
??4i3ElementBase@@QAEAAV0@ABV0@@Z PROC			; i3ElementBase::operator=, COMDAT
; _this$ = ecx
  00000	55		 push	 ebp
  00001	8b ec		 mov	 ebp, esp
  00003	8b 55 08	 mov	 edx, DWORD PTR ___that$[ebp]
  00006	8b 42 04	 mov	 eax, DWORD PTR [edx+4]
  00009	89 41 04	 mov	 DWORD PTR [ecx+4], eax
  0000c	8b 42 08	 mov	 eax, DWORD PTR [edx+8]
  0000f	89 41 08	 mov	 DWORD PTR [ecx+8], eax
  00012	8b 42 0c	 mov	 eax, DWORD PTR [edx+12]
  00015	89 41 0c	 mov	 DWORD PTR [ecx+12], eax
  00018	8b c1		 mov	 eax, ecx
  0001a	5d		 pop	 ebp
  0001b	c2 04 00	 ret	 4
??4i3ElementBase@@QAEAAV0@ABV0@@Z ENDP			; i3ElementBase::operator=
_TEXT	ENDS
; Function compile flags: /Ogtp
;	COMDAT ??0i3ElementBase@@QAE@ABV0@@Z
_TEXT	SEGMENT
___that$ = 8						; size = 4
??0i3ElementBase@@QAE@ABV0@@Z PROC			; i3ElementBase::i3ElementBase, COMDAT
; _this$ = ecx
  00000	55		 push	 ebp
  00001	8b ec		 mov	 ebp, esp
  00003	8b 55 08	 mov	 edx, DWORD PTR ___that$[ebp]
  00006	c7 01 00 00 00
	00		 mov	 DWORD PTR [ecx], OFFSET ??_7i3ElementBase@@6B@
  0000c	8b 42 04	 mov	 eax, DWORD PTR [edx+4]
  0000f	89 41 04	 mov	 DWORD PTR [ecx+4], eax
  00012	8b 42 08	 mov	 eax, DWORD PTR [edx+8]
  00015	89 41 08	 mov	 DWORD PTR [ecx+8], eax
  00018	8b 42 0c	 mov	 eax, DWORD PTR [edx+12]
  0001b	89 41 0c	 mov	 DWORD PTR [ecx+12], eax
  0001e	8b c1		 mov	 eax, ecx
  00020	5d		 pop	 ebp
  00021	c2 04 00	 ret	 4
??0i3ElementBase@@QAE@ABV0@@Z ENDP			; i3ElementBase::i3ElementBase
_TEXT	ENDS
; Function compile flags: /Ogtp
; File E:\Proyectos\JuegosOnlineproyectos\PB\pbblow\Piercing Blow Remake\i3Server\include\i3Base\i3ElementBase.h
;	COMDAT ?_internal_SetRefCount@i3ElementBase@@QAEXH@Z
_TEXT	SEGMENT
_cnt$ = 8						; size = 4
?_internal_SetRefCount@i3ElementBase@@QAEXH@Z PROC	; i3ElementBase::_internal_SetRefCount, COMDAT
; _this$ = ecx

; 401  : 	{

  00000	55		 push	 ebp
  00001	8b ec		 mov	 ebp, esp

; 402  : 		m_RefCount = cnt;

  00003	8b 45 08	 mov	 eax, DWORD PTR _cnt$[ebp]
  00006	89 41 04	 mov	 DWORD PTR [ecx+4], eax

; 403  : 	}

  00009	5d		 pop	 ebp
  0000a	c2 04 00	 ret	 4
?_internal_SetRefCount@i3ElementBase@@QAEXH@Z ENDP	; i3ElementBase::_internal_SetRefCount
_TEXT	ENDS
; Function compile flags: /Ogtp
; File E:\Proyectos\JuegosOnlineproyectos\PB\pbblow\Piercing Blow Remake\i3Server\include\i3Base\i3ElementBase.h
;	COMDAT ?AddRef@i3ElementBase@@QAEHXZ
_TEXT	SEGMENT
?AddRef@i3ElementBase@@QAEHXZ PROC			; i3ElementBase::AddRef, COMDAT
; _this$ = ecx

; 392  : 		m_RefCount++;

  00000	ff 41 04	 inc	 DWORD PTR [ecx+4]

; 393  : 
; 394  : 		return m_RefCount;

  00003	8b 41 04	 mov	 eax, DWORD PTR [ecx+4]

; 395  : 	}

  00006	c3		 ret	 0
?AddRef@i3ElementBase@@QAEHXZ ENDP			; i3ElementBase::AddRef
_TEXT	ENDS
; Function compile flags: /Ogtp
; File E:\Proyectos\JuegosOnlineproyectos\PB\pbblow\Piercing Blow Remake\i3Server\include\i3Base\i3ElementBase.h
;	COMDAT ?IsTypeOf@i3ElementBase@@QAE_NPAVi3ClassMeta@@@Z
_TEXT	SEGMENT
_pMeta$ = 8						; size = 4
?IsTypeOf@i3ElementBase@@QAE_NPAVi3ClassMeta@@@Z PROC	; i3ElementBase::IsTypeOf, COMDAT
; _this$ = ecx

; 356  : 	{

  00000	55		 push	 ebp
  00001	8b ec		 mov	 ebp, esp

; 357  : 		return GetMeta()->IsTypeOf( pMeta);

  00003	8b 01		 mov	 eax, DWORD PTR [ecx]
  00005	ff 75 08	 push	 DWORD PTR _pMeta$[ebp]
  00008	ff 10		 call	 DWORD PTR [eax]
  0000a	8b c8		 mov	 ecx, eax
  0000c	e8 00 00 00 00	 call	 ?IsTypeOf@i3ClassMeta@@QAE_NPAV1@@Z ; i3ClassMeta::IsTypeOf

; 358  : 	}

  00011	5d		 pop	 ebp
  00012	c2 04 00	 ret	 4
?IsTypeOf@i3ElementBase@@QAE_NPAVi3ClassMeta@@@Z ENDP	; i3ElementBase::IsTypeOf
_TEXT	ENDS
; Function compile flags: /Ogtp
; File E:\Proyectos\JuegosOnlineproyectos\PB\pbblow\Piercing Blow Remake\i3Server\include\i3Base\i3ElementBase.h
; File E:\Proyectos\JuegosOnlineproyectos\PB\pbblow\Piercing Blow Remake\i3Server\include\i3Base\i3ClassMeta.h
; File E:\Proyectos\JuegosOnlineproyectos\PB\pbblow\Piercing Blow Remake\i3Server\include\i3Base\i3ElementBase.h
;	COMDAT ?IsExactTypeOf@i3ElementBase@@QAE_NPAVi3ClassMeta@@@Z
_TEXT	SEGMENT
_pMeta$ = 8						; size = 4
?IsExactTypeOf@i3ElementBase@@QAE_NPAVi3ClassMeta@@@Z PROC ; i3ElementBase::IsExactTypeOf, COMDAT
; _this$ = ecx

; 351  : 	{

  00000	55		 push	 ebp
  00001	8b ec		 mov	 ebp, esp

; 352  : 		return GetMeta()->IsExactTypeOf( pMeta);

  00003	8b 01		 mov	 eax, DWORD PTR [ecx]
  00005	ff 10		 call	 DWORD PTR [eax]
; File E:\Proyectos\JuegosOnlineproyectos\PB\pbblow\Piercing Blow Remake\i3Server\include\i3Base\i3ClassMeta.h

; 90   : 		return pMeta == this;

  00007	39 45 08	 cmp	 DWORD PTR _pMeta$[ebp], eax
  0000a	0f 94 c0	 sete	 al
; File E:\Proyectos\JuegosOnlineproyectos\PB\pbblow\Piercing Blow Remake\i3Server\include\i3Base\i3ElementBase.h

; 353  : 	}

  0000d	5d		 pop	 ebp
  0000e	c2 04 00	 ret	 4
?IsExactTypeOf@i3ElementBase@@QAE_NPAVi3ClassMeta@@@Z ENDP ; i3ElementBase::IsExactTypeOf
_TEXT	ENDS
; Function compile flags: /Ogtp
; File E:\Proyectos\JuegosOnlineproyectos\PB\pbblow\Piercing Blow Remake\i3Server\include\i3Base\i3ElementBase.h
;	COMDAT ?__GetMemoryPool@i3ElementBase@@QAEPAVi3MemoryPool@@XZ
_TEXT	SEGMENT
?__GetMemoryPool@i3ElementBase@@QAEPAVi3MemoryPool@@XZ PROC ; i3ElementBase::__GetMemoryPool, COMDAT
; _this$ = ecx

; 348  : 	i3MemoryPool *	__GetMemoryPool(void)							{ return m_pPool; }

  00000	8b 41 0c	 mov	 eax, DWORD PTR [ecx+12]
  00003	c3		 ret	 0
?__GetMemoryPool@i3ElementBase@@QAEPAVi3MemoryPool@@XZ ENDP ; i3ElementBase::__GetMemoryPool
_TEXT	ENDS
; Function compile flags: /Ogtp
; File E:\Proyectos\JuegosOnlineproyectos\PB\pbblow\Piercing Blow Remake\i3Server\include\i3Base\i3ElementBase.h
;	COMDAT ?__SetMemoryPool@i3ElementBase@@QAEXPAVi3MemoryPool@@@Z
_TEXT	SEGMENT
_pPool$ = 8						; size = 4
?__SetMemoryPool@i3ElementBase@@QAEXPAVi3MemoryPool@@@Z PROC ; i3ElementBase::__SetMemoryPool, COMDAT
; _this$ = ecx

; 347  : 	void			__SetMemoryPool( i3MemoryPool * pPool)			{ m_pPool = pPool; }

  00000	55		 push	 ebp
  00001	8b ec		 mov	 ebp, esp
  00003	8b 45 08	 mov	 eax, DWORD PTR _pPool$[ebp]
  00006	89 41 0c	 mov	 DWORD PTR [ecx+12], eax
  00009	5d		 pop	 ebp
  0000a	c2 04 00	 ret	 4
?__SetMemoryPool@i3ElementBase@@QAEXPAVi3MemoryPool@@@Z ENDP ; i3ElementBase::__SetMemoryPool
_TEXT	ENDS
; Function compile flags: /Ogtp
; File E:\Proyectos\JuegosOnlineproyectos\PB\pbblow\Piercing Blow Remake\i3Server\include\i3Base\i3ElementBase.h
;	COMDAT ?GetRefCount@i3ElementBase@@QAEHXZ
_TEXT	SEGMENT
?GetRefCount@i3ElementBase@@QAEHXZ PROC			; i3ElementBase::GetRefCount, COMDAT
; _this$ = ecx

; 344  : 		return m_RefCount;

  00000	8b 41 04	 mov	 eax, DWORD PTR [ecx+4]

; 345  : 	}

  00003	c3		 ret	 0
?GetRefCount@i3ElementBase@@QAEHXZ ENDP			; i3ElementBase::GetRefCount
_TEXT	ENDS
; Function compile flags: /Ogtp
; File E:\Proyectos\JuegosOnlineproyectos\PB\pbblow\Piercing Blow Remake\i3Server\include\i3Base\i3ElementBase.h
;	COMDAT ?GetClassMeta@i3ElementBase@@SAPAVi3ClassMeta@@XZ
_TEXT	SEGMENT
?GetClassMeta@i3ElementBase@@SAPAVi3ClassMeta@@XZ PROC	; i3ElementBase::GetClassMeta, COMDAT

; 314  : 	I3_ABSTRACT_CLASS_DEFINE( i3ElementBase);

  00000	a1 00 00 00 00	 mov	 eax, DWORD PTR ?s_pClassMetai3ElementBase@i3ElementBase@@2PAVi3ClassMeta@@A ; i3ElementBase::s_pClassMetai3ElementBase
  00005	c3		 ret	 0
?GetClassMeta@i3ElementBase@@SAPAVi3ClassMeta@@XZ ENDP	; i3ElementBase::GetClassMeta
_TEXT	ENDS
; Function compile flags: /Ogtp
;	COMDAT ??_Ei3ClassMeta@@UAEPAXI@Z
_TEXT	SEGMENT
__$EHRec$ = -12						; size = 12
___flags$ = 8						; size = 4
??_Ei3ClassMeta@@UAEPAXI@Z PROC				; i3ClassMeta::`vector deleting destructor', COMDAT
; _this$ = ecx
  00000	55		 push	 ebp
  00001	8b ec		 mov	 ebp, esp
  00003	6a ff		 push	 -1
  00005	68 00 00 00 00	 push	 __ehhandler$??_Ei3ClassMeta@@UAEPAXI@Z
  0000a	64 a1 00 00 00
	00		 mov	 eax, DWORD PTR fs:0
  00010	50		 push	 eax
  00011	53		 push	 ebx
  00012	56		 push	 esi
  00013	57		 push	 edi
  00014	a1 00 00 00 00	 mov	 eax, DWORD PTR ___security_cookie
  00019	33 c5		 xor	 eax, ebp
  0001b	50		 push	 eax
  0001c	8d 45 f4	 lea	 eax, DWORD PTR __$EHRec$[ebp]
  0001f	64 a3 00 00 00
	00		 mov	 DWORD PTR fs:0, eax
  00025	8b f1		 mov	 esi, ecx
  00027	8b 45 08	 mov	 eax, DWORD PTR ___flags$[ebp]
  0002a	8b f8		 mov	 edi, eax
  0002c	83 e7 01	 and	 edi, 1
  0002f	a8 02		 test	 al, 2
  00031	74 49		 je	 SHORT $LN2@vector
  00033	68 00 00 00 00	 push	 OFFSET ??1i3ClassMeta@@UAE@XZ ; i3ClassMeta::~i3ClassMeta
  00038	ff 76 fc	 push	 DWORD PTR [esi-4]
  0003b	8d 5e fc	 lea	 ebx, DWORD PTR [esi-4]
  0003e	6a 38		 push	 56			; 00000038H
  00040	56		 push	 esi
  00041	e8 00 00 00 00	 call	 ??_M@YGXPAXIIP6EX0@Z@Z
  00046	85 ff		 test	 edi, edi
  00048	74 1c		 je	 SHORT $LN3@vector
  0004a	8b 0b		 mov	 ecx, DWORD PTR [ebx]
  0004c	8d 14 cd 00 00
	00 00		 lea	 edx, DWORD PTR [ecx*8]
  00053	2b d1		 sub	 edx, ecx
  00055	8d 0c d5 04 00
	00 00		 lea	 ecx, DWORD PTR [edx*8+4]
  0005c	51		 push	 ecx
  0005d	53		 push	 ebx
  0005e	e8 00 00 00 00	 call	 ??_V@YAXPAXI@Z		; operator delete[]
  00063	83 c4 08	 add	 esp, 8
$LN3@vector:
  00066	8b c3		 mov	 eax, ebx
  00068	8b 4d f4	 mov	 ecx, DWORD PTR __$EHRec$[ebp]
  0006b	64 89 0d 00 00
	00 00		 mov	 DWORD PTR fs:0, ecx
  00072	59		 pop	 ecx
  00073	5f		 pop	 edi
  00074	5e		 pop	 esi
  00075	5b		 pop	 ebx
  00076	8b e5		 mov	 esp, ebp
  00078	5d		 pop	 ebp
  00079	c2 04 00	 ret	 4
$LN2@vector:
  0007c	e8 00 00 00 00	 call	 ??1i3ClassMeta@@UAE@XZ	; i3ClassMeta::~i3ClassMeta
  00081	85 ff		 test	 edi, edi
  00083	74 0b		 je	 SHORT $LN4@vector
  00085	6a 38		 push	 56			; 00000038H
  00087	56		 push	 esi
  00088	e8 00 00 00 00	 call	 ??3@YAXPAXI@Z		; operator delete
  0008d	83 c4 08	 add	 esp, 8
$LN4@vector:
  00090	8b c6		 mov	 eax, esi
  00092	8b 4d f4	 mov	 ecx, DWORD PTR __$EHRec$[ebp]
  00095	64 89 0d 00 00
	00 00		 mov	 DWORD PTR fs:0, ecx
  0009c	59		 pop	 ecx
  0009d	5f		 pop	 edi
  0009e	5e		 pop	 esi
  0009f	5b		 pop	 ebx
  000a0	8b e5		 mov	 esp, ebp
  000a2	5d		 pop	 ebp
  000a3	c2 04 00	 ret	 4
  000a6	cc		 int	 3
  000a7	cc		 int	 3
  000a8	cc		 int	 3
  000a9	cc		 int	 3
  000aa	cc		 int	 3
_TEXT	ENDS
;	COMDAT text$x
text$x	SEGMENT
__ehhandler$??_Ei3ClassMeta@@UAEPAXI@Z:
  00000	90		 npad	 1
  00001	90		 npad	 1
  00002	8b 54 24 08	 mov	 edx, DWORD PTR [esp+8]
  00006	8d 42 0c	 lea	 eax, DWORD PTR [edx+12]
  00009	8b 4a f0	 mov	 ecx, DWORD PTR [edx-16]
  0000c	33 c8		 xor	 ecx, eax
  0000e	e8 00 00 00 00	 call	 @__security_check_cookie@4
  00013	b8 00 00 00 00	 mov	 eax, OFFSET __ehfuncinfo$??_Ei3ClassMeta@@UAEPAXI@Z
  00018	e9 00 00 00 00	 jmp	 ___CxxFrameHandler3
text$x	ENDS
??_Ei3ClassMeta@@UAEPAXI@Z ENDP				; i3ClassMeta::`vector deleting destructor'
; Function compile flags: /Ogtp
;	COMDAT ??_Gi3ClassMeta@@UAEPAXI@Z
_TEXT	SEGMENT
___flags$ = 8						; size = 4
??_Gi3ClassMeta@@UAEPAXI@Z PROC				; i3ClassMeta::`scalar deleting destructor', COMDAT
; _this$ = ecx
  00000	55		 push	 ebp
  00001	8b ec		 mov	 ebp, esp
  00003	56		 push	 esi
  00004	8b f1		 mov	 esi, ecx
  00006	e8 00 00 00 00	 call	 ??1i3ClassMeta@@UAE@XZ	; i3ClassMeta::~i3ClassMeta
  0000b	f6 45 08 01	 test	 BYTE PTR ___flags$[ebp], 1
  0000f	74 0b		 je	 SHORT $LN5@scalar
  00011	6a 38		 push	 56			; 00000038H
  00013	56		 push	 esi
  00014	e8 00 00 00 00	 call	 ??3@YAXPAXI@Z		; operator delete
  00019	83 c4 08	 add	 esp, 8
$LN5@scalar:
  0001c	8b c6		 mov	 eax, esi
  0001e	5e		 pop	 esi
  0001f	5d		 pop	 ebp
  00020	c2 04 00	 ret	 4
??_Gi3ClassMeta@@UAEPAXI@Z ENDP				; i3ClassMeta::`scalar deleting destructor'
_TEXT	ENDS
; Function compile flags: /Ogtp
;	COMDAT ??4i3ClassMeta@@QAEAAV0@ABV0@@Z
_TEXT	SEGMENT
___that$ = 8						; size = 4
??4i3ClassMeta@@QAEAAV0@ABV0@@Z PROC			; i3ClassMeta::operator=, COMDAT
; _this$ = ecx
  00000	55		 push	 ebp
  00001	8b ec		 mov	 ebp, esp
  00003	8b 55 08	 mov	 edx, DWORD PTR ___that$[ebp]
  00006	8b 42 04	 mov	 eax, DWORD PTR [edx+4]
  00009	89 41 04	 mov	 DWORD PTR [ecx+4], eax
  0000c	8b 42 08	 mov	 eax, DWORD PTR [edx+8]
  0000f	89 41 08	 mov	 DWORD PTR [ecx+8], eax
  00012	8b 42 0c	 mov	 eax, DWORD PTR [edx+12]
  00015	89 41 0c	 mov	 DWORD PTR [ecx+12], eax
  00018	8b 42 10	 mov	 eax, DWORD PTR [edx+16]
  0001b	89 41 10	 mov	 DWORD PTR [ecx+16], eax
  0001e	8b 42 14	 mov	 eax, DWORD PTR [edx+20]
  00021	89 41 14	 mov	 DWORD PTR [ecx+20], eax
  00024	8b 42 18	 mov	 eax, DWORD PTR [edx+24]
  00027	89 41 18	 mov	 DWORD PTR [ecx+24], eax
  0002a	8b 42 1c	 mov	 eax, DWORD PTR [edx+28]
  0002d	89 41 1c	 mov	 DWORD PTR [ecx+28], eax
  00030	8b 42 20	 mov	 eax, DWORD PTR [edx+32]
  00033	89 41 20	 mov	 DWORD PTR [ecx+32], eax
  00036	8b 42 24	 mov	 eax, DWORD PTR [edx+36]
  00039	89 41 24	 mov	 DWORD PTR [ecx+36], eax
  0003c	8b 42 28	 mov	 eax, DWORD PTR [edx+40]
  0003f	89 41 28	 mov	 DWORD PTR [ecx+40], eax
  00042	8b 42 2c	 mov	 eax, DWORD PTR [edx+44]
  00045	89 41 2c	 mov	 DWORD PTR [ecx+44], eax
  00048	8b 42 30	 mov	 eax, DWORD PTR [edx+48]
  0004b	89 41 30	 mov	 DWORD PTR [ecx+48], eax
  0004e	8b 42 34	 mov	 eax, DWORD PTR [edx+52]
  00051	89 41 34	 mov	 DWORD PTR [ecx+52], eax
  00054	8b c1		 mov	 eax, ecx
  00056	5d		 pop	 ebp
  00057	c2 04 00	 ret	 4
??4i3ClassMeta@@QAEAAV0@ABV0@@Z ENDP			; i3ClassMeta::operator=
_TEXT	ENDS
; Function compile flags: /Ogtp
;	COMDAT ??0i3ClassMeta@@QAE@ABV0@@Z
_TEXT	SEGMENT
___that$ = 8						; size = 4
??0i3ClassMeta@@QAE@ABV0@@Z PROC			; i3ClassMeta::i3ClassMeta, COMDAT
; _this$ = ecx
  00000	55		 push	 ebp
  00001	8b ec		 mov	 ebp, esp
  00003	8b 55 08	 mov	 edx, DWORD PTR ___that$[ebp]
  00006	c7 01 00 00 00
	00		 mov	 DWORD PTR [ecx], OFFSET ??_7i3ClassMeta@@6B@
  0000c	8b 42 04	 mov	 eax, DWORD PTR [edx+4]
  0000f	89 41 04	 mov	 DWORD PTR [ecx+4], eax
  00012	8b 42 08	 mov	 eax, DWORD PTR [edx+8]
  00015	89 41 08	 mov	 DWORD PTR [ecx+8], eax
  00018	8b 42 0c	 mov	 eax, DWORD PTR [edx+12]
  0001b	89 41 0c	 mov	 DWORD PTR [ecx+12], eax
  0001e	8b 42 10	 mov	 eax, DWORD PTR [edx+16]
  00021	89 41 10	 mov	 DWORD PTR [ecx+16], eax
  00024	8b 42 14	 mov	 eax, DWORD PTR [edx+20]
  00027	89 41 14	 mov	 DWORD PTR [ecx+20], eax
  0002a	8b 42 18	 mov	 eax, DWORD PTR [edx+24]
  0002d	89 41 18	 mov	 DWORD PTR [ecx+24], eax
  00030	8b 42 1c	 mov	 eax, DWORD PTR [edx+28]
  00033	89 41 1c	 mov	 DWORD PTR [ecx+28], eax
  00036	8b 42 20	 mov	 eax, DWORD PTR [edx+32]
  00039	89 41 20	 mov	 DWORD PTR [ecx+32], eax
  0003c	8b 42 24	 mov	 eax, DWORD PTR [edx+36]
  0003f	89 41 24	 mov	 DWORD PTR [ecx+36], eax
  00042	8b 42 28	 mov	 eax, DWORD PTR [edx+40]
  00045	89 41 28	 mov	 DWORD PTR [ecx+40], eax
  00048	8b 42 2c	 mov	 eax, DWORD PTR [edx+44]
  0004b	89 41 2c	 mov	 DWORD PTR [ecx+44], eax
  0004e	8b 42 30	 mov	 eax, DWORD PTR [edx+48]
  00051	89 41 30	 mov	 DWORD PTR [ecx+48], eax
  00054	8b 42 34	 mov	 eax, DWORD PTR [edx+52]
  00057	89 41 34	 mov	 DWORD PTR [ecx+52], eax
  0005a	8b c1		 mov	 eax, ecx
  0005c	5d		 pop	 ebp
  0005d	c2 04 00	 ret	 4
??0i3ClassMeta@@QAE@ABV0@@Z ENDP			; i3ClassMeta::i3ClassMeta
_TEXT	ENDS
; Function compile flags: /Ogtp
; File E:\Proyectos\JuegosOnlineproyectos\PB\pbblow\Piercing Blow Remake\i3Server\include\i3Base\i3ClassMeta.h
;	COMDAT ?getHashCode@i3ClassMeta@@QAEIXZ
_TEXT	SEGMENT
?getHashCode@i3ClassMeta@@QAEIXZ PROC			; i3ClassMeta::getHashCode, COMDAT
; _this$ = ecx

; 112  : 	UINT32			getHashCode(void)						{ return m_HashCode; }

  00000	8b 41 18	 mov	 eax, DWORD PTR [ecx+24]
  00003	c3		 ret	 0
?getHashCode@i3ClassMeta@@QAEIXZ ENDP			; i3ClassMeta::getHashCode
_TEXT	ENDS
; Function compile flags: /Ogtp
; File E:\Proyectos\JuegosOnlineproyectos\PB\pbblow\Piercing Blow Remake\i3Server\include\i3Base\i3ClassMeta.h
;	COMDAT ?GetBaseClassMeta@i3ClassMeta@@QAEPAV1@XZ
_TEXT	SEGMENT
?GetBaseClassMeta@i3ClassMeta@@QAEPAV1@XZ PROC		; i3ClassMeta::GetBaseClassMeta, COMDAT
; _this$ = ecx

; 107  : 	i3ClassMeta *	GetBaseClassMeta(void)					{ return m_pBaseClass; }

  00000	8b 41 1c	 mov	 eax, DWORD PTR [ecx+28]
  00003	c3		 ret	 0
?GetBaseClassMeta@i3ClassMeta@@QAEPAV1@XZ ENDP		; i3ClassMeta::GetBaseClassMeta
_TEXT	ENDS
; Function compile flags: /Ogtp
; File E:\Proyectos\JuegosOnlineproyectos\PB\pbblow\Piercing Blow Remake\i3Server\include\i3Base\i3ClassMeta.h
;	COMDAT ?IsConcreteClass@i3ClassMeta@@QAEHXZ
_TEXT	SEGMENT
?IsConcreteClass@i3ClassMeta@@QAEHXZ PROC		; i3ClassMeta::IsConcreteClass, COMDAT
; _this$ = ecx

; 102  : 	BOOL			IsStyle( UINT32 style)					{ return (m_Style & style) == style; }

  00000	8b 41 14	 mov	 eax, DWORD PTR [ecx+20]
  00003	d1 e8		 shr	 eax, 1
  00005	83 e0 01	 and	 eax, 1

; 105  : 	BOOL			IsConcreteClass(void)					{ return IsStyle( I3_CLASSMETA_STYLE_CONCRETE); }

  00008	c3		 ret	 0
?IsConcreteClass@i3ClassMeta@@QAEHXZ ENDP		; i3ClassMeta::IsConcreteClass
_TEXT	ENDS
; Function compile flags: /Ogtp
; File E:\Proyectos\JuegosOnlineproyectos\PB\pbblow\Piercing Blow Remake\i3Server\include\i3Base\i3ClassMeta.h
;	COMDAT ?IsAbstractClass@i3ClassMeta@@QAEHXZ
_TEXT	SEGMENT
?IsAbstractClass@i3ClassMeta@@QAEHXZ PROC		; i3ClassMeta::IsAbstractClass, COMDAT
; _this$ = ecx

; 102  : 	BOOL			IsStyle( UINT32 style)					{ return (m_Style & style) == style; }

  00000	8b 41 14	 mov	 eax, DWORD PTR [ecx+20]
  00003	83 e0 01	 and	 eax, 1

; 104  : 	BOOL			IsAbstractClass(void)					{ return IsStyle( I3_CLASSMETA_STYLE_ABSTRACT); }

  00006	c3		 ret	 0
?IsAbstractClass@i3ClassMeta@@QAEHXZ ENDP		; i3ClassMeta::IsAbstractClass
_TEXT	ENDS
; Function compile flags: /Ogtp
; File E:\Proyectos\JuegosOnlineproyectos\PB\pbblow\Piercing Blow Remake\i3Server\include\i3Base\i3ClassMeta.h
;	COMDAT ?IsStyle@i3ClassMeta@@QAEHI@Z
_TEXT	SEGMENT
_style$ = 8						; size = 4
?IsStyle@i3ClassMeta@@QAEHI@Z PROC			; i3ClassMeta::IsStyle, COMDAT
; _this$ = ecx

; 102  : 	BOOL			IsStyle( UINT32 style)					{ return (m_Style & style) == style; }

  00000	55		 push	 ebp
  00001	8b ec		 mov	 ebp, esp
  00003	8b 51 14	 mov	 edx, DWORD PTR [ecx+20]
  00006	33 c0		 xor	 eax, eax
  00008	23 55 08	 and	 edx, DWORD PTR _style$[ebp]
  0000b	3b 55 08	 cmp	 edx, DWORD PTR _style$[ebp]
  0000e	0f 94 c0	 sete	 al
  00011	5d		 pop	 ebp
  00012	c2 04 00	 ret	 4
?IsStyle@i3ClassMeta@@QAEHI@Z ENDP			; i3ClassMeta::IsStyle
_TEXT	ENDS
; Function compile flags: /Ogtp
; File E:\Proyectos\JuegosOnlineproyectos\PB\pbblow\Piercing Blow Remake\i3Server\include\i3Base\i3ClassMeta.h
;	COMDAT ?RemoveStyle@i3ClassMeta@@QAEXI@Z
_TEXT	SEGMENT
_style$ = 8						; size = 4
?RemoveStyle@i3ClassMeta@@QAEXI@Z PROC			; i3ClassMeta::RemoveStyle, COMDAT
; _this$ = ecx

; 101  : 	void			RemoveStyle( UINT32 style)				{ m_Style &= ~style; }

  00000	55		 push	 ebp
  00001	8b ec		 mov	 ebp, esp
  00003	8b 45 08	 mov	 eax, DWORD PTR _style$[ebp]
  00006	f7 d0		 not	 eax
  00008	21 41 14	 and	 DWORD PTR [ecx+20], eax
  0000b	5d		 pop	 ebp
  0000c	c2 04 00	 ret	 4
?RemoveStyle@i3ClassMeta@@QAEXI@Z ENDP			; i3ClassMeta::RemoveStyle
_TEXT	ENDS
; Function compile flags: /Ogtp
; File E:\Proyectos\JuegosOnlineproyectos\PB\pbblow\Piercing Blow Remake\i3Server\include\i3Base\i3ClassMeta.h
;	COMDAT ?AddStyle@i3ClassMeta@@QAEXI@Z
_TEXT	SEGMENT
_style$ = 8						; size = 4
?AddStyle@i3ClassMeta@@QAEXI@Z PROC			; i3ClassMeta::AddStyle, COMDAT
; _this$ = ecx

; 100  : 	void			AddStyle( UINT32 style)					{ m_Style |= style; }

  00000	55		 push	 ebp
  00001	8b ec		 mov	 ebp, esp
  00003	8b 45 08	 mov	 eax, DWORD PTR _style$[ebp]
  00006	09 41 14	 or	 DWORD PTR [ecx+20], eax
  00009	5d		 pop	 ebp
  0000a	c2 04 00	 ret	 4
?AddStyle@i3ClassMeta@@QAEXI@Z ENDP			; i3ClassMeta::AddStyle
_TEXT	ENDS
; Function compile flags: /Ogtp
; File E:\Proyectos\JuegosOnlineproyectos\PB\pbblow\Piercing Blow Remake\i3Server\include\i3Base\i3ClassMeta.h
;	COMDAT ?GetStyle@i3ClassMeta@@QAEIXZ
_TEXT	SEGMENT
?GetStyle@i3ClassMeta@@QAEIXZ PROC			; i3ClassMeta::GetStyle, COMDAT
; _this$ = ecx

; 99   : 	UINT32			GetStyle(void)							{ return m_Style; }

  00000	8b 41 14	 mov	 eax, DWORD PTR [ecx+20]
  00003	c3		 ret	 0
?GetStyle@i3ClassMeta@@QAEIXZ ENDP			; i3ClassMeta::GetStyle
_TEXT	ENDS
; Function compile flags: /Ogtp
; File E:\Proyectos\JuegosOnlineproyectos\PB\pbblow\Piercing Blow Remake\i3Server\include\i3Base\i3ClassMeta.h
;	COMDAT ?SetStyle@i3ClassMeta@@QAEXI@Z
_TEXT	SEGMENT
_style$ = 8						; size = 4
?SetStyle@i3ClassMeta@@QAEXI@Z PROC			; i3ClassMeta::SetStyle, COMDAT
; _this$ = ecx

; 98   : 	void			SetStyle( UINT32 style)					{ m_Style = style; }

  00000	55		 push	 ebp
  00001	8b ec		 mov	 ebp, esp
  00003	8b 45 08	 mov	 eax, DWORD PTR _style$[ebp]
  00006	89 41 14	 mov	 DWORD PTR [ecx+20], eax
  00009	5d		 pop	 ebp
  0000a	c2 04 00	 ret	 4
?SetStyle@i3ClassMeta@@QAEXI@Z ENDP			; i3ClassMeta::SetStyle
_TEXT	ENDS
; Function compile flags: /Ogtp
; File E:\Proyectos\JuegosOnlineproyectos\PB\pbblow\Piercing Blow Remake\i3Server\include\i3Base\i3ClassMeta.h
;	COMDAT ?IsExactTypeOf@i3ClassMeta@@QAE_NPAV1@@Z
_TEXT	SEGMENT
_pMeta$ = 8						; size = 4
?IsExactTypeOf@i3ClassMeta@@QAE_NPAV1@@Z PROC		; i3ClassMeta::IsExactTypeOf, COMDAT
; _this$ = ecx

; 89   : 	{

  00000	55		 push	 ebp
  00001	8b ec		 mov	 ebp, esp

; 90   : 		return pMeta == this;

  00003	39 4d 08	 cmp	 DWORD PTR _pMeta$[ebp], ecx
  00006	0f 94 c0	 sete	 al

; 91   : 	}

  00009	5d		 pop	 ebp
  0000a	c2 04 00	 ret	 4
?IsExactTypeOf@i3ClassMeta@@QAE_NPAV1@@Z ENDP		; i3ClassMeta::IsExactTypeOf
_TEXT	ENDS
; Function compile flags: /Ogtp
; File E:\Proyectos\JuegosOnlineproyectos\PB\pbblow\Piercing Blow Remake\i3Server\include\i3Base\i3ClassMeta.h
;	COMDAT ?GetClassNameA@i3ClassMeta@@QAEPADXZ
_TEXT	SEGMENT
?GetClassNameA@i3ClassMeta@@QAEPADXZ PROC		; i3ClassMeta::GetClassNameA, COMDAT
; _this$ = ecx

; 83   : 		return m_pszClassName;

  00000	8b 41 0c	 mov	 eax, DWORD PTR [ecx+12]

; 84   : 	}

  00003	c3		 ret	 0
?GetClassNameA@i3ClassMeta@@QAEPADXZ ENDP		; i3ClassMeta::GetClassNameA
_TEXT	ENDS
; Function compile flags: /Ogtp
; File E:\Proyectos\JuegosOnlineproyectos\PB\pbblow\Piercing Blow Remake\i3Server\include\i3Base\i3ClassMeta.h
;	COMDAT ?GetClassSize@i3ClassMeta@@QAEIXZ
_TEXT	SEGMENT
?GetClassSize@i3ClassMeta@@QAEIXZ PROC			; i3ClassMeta::GetClassSize, COMDAT
; _this$ = ecx

; 78   : 		return m_ClassSize;

  00000	8b 41 08	 mov	 eax, DWORD PTR [ecx+8]

; 79   : 	}

  00003	c3		 ret	 0
?GetClassSize@i3ClassMeta@@QAEIXZ ENDP			; i3ClassMeta::GetClassSize
_TEXT	ENDS
; Function compile flags: /Ogtp
; File E:\Proyectos\JuegosOnlineproyectos\PB\pbblow\Piercing Blow Remake\i3Server\include\i3Base\i3ClassMeta.h
;	COMDAT ?SetMemoryPool@i3ClassMeta@@QAEXPAVi3MemoryPool@@@Z
_TEXT	SEGMENT
_pPool$ = 8						; size = 4
?SetMemoryPool@i3ClassMeta@@QAEXPAVi3MemoryPool@@@Z PROC ; i3ClassMeta::SetMemoryPool, COMDAT
; _this$ = ecx

; 66   : 	void			SetMemoryPool( i3MemoryPool * pPool)		{ m_pPool = pPool; }

  00000	55		 push	 ebp
  00001	8b ec		 mov	 ebp, esp
  00003	8b 45 08	 mov	 eax, DWORD PTR _pPool$[ebp]
  00006	89 41 34	 mov	 DWORD PTR [ecx+52], eax
  00009	5d		 pop	 ebp
  0000a	c2 04 00	 ret	 4
?SetMemoryPool@i3ClassMeta@@QAEXPAVi3MemoryPool@@@Z ENDP ; i3ClassMeta::SetMemoryPool
_TEXT	ENDS
; Function compile flags: /Ogtp
; File E:\Proyectos\JuegosOnlineproyectos\PB\pbblow\Piercing Blow Remake\i3Server\include\i3Base\i3ClassMeta.h
;	COMDAT ?GetMemoryPool@i3ClassMeta@@QAEPAVi3MemoryPool@@XZ
_TEXT	SEGMENT
?GetMemoryPool@i3ClassMeta@@QAEPAVi3MemoryPool@@XZ PROC	; i3ClassMeta::GetMemoryPool, COMDAT
; _this$ = ecx

; 65   : 	i3MemoryPool *	GetMemoryPool(void)							{ return m_pPool; }

  00000	8b 41 34	 mov	 eax, DWORD PTR [ecx+52]
  00003	c3		 ret	 0
?GetMemoryPool@i3ClassMeta@@QAEPAVi3MemoryPool@@XZ ENDP	; i3ClassMeta::GetMemoryPool
_TEXT	ENDS
; Function compile flags: /Ogtp
; File E:\Proyectos\JuegosOnlineproyectos\PB\pbblow\Piercing Blow Remake\i3Server\include\i3Base\UINT128.h
;	COMDAT ??0UINT128@@QAE@XZ
_TEXT	SEGMENT
??0UINT128@@QAE@XZ PROC					; UINT128::UINT128, COMDAT
; _this$ = ecx

; 13   : 	{
; 14   : 	}

  00000	8b c1		 mov	 eax, ecx
  00002	c3		 ret	 0
??0UINT128@@QAE@XZ ENDP					; UINT128::UINT128
_TEXT	ENDS
; Function compile flags: /Ogtp
; File E:\Proyectos\JuegosOnlineproyectos\PB\pbblow\Piercing Blow Remake\i3Server\src\i3Base\i3NetworkHTTP.cpp
;	COMDAT ?__global_array_delete@@YAXPAXI@Z
_TEXT	SEGMENT
_p$ = 8							; size = 4
_sz$ = 12						; size = 4
?__global_array_delete@@YAXPAXI@Z PROC			; __global_array_delete, COMDAT

  00000	e9 00 00 00 00	 jmp	 ??_V@YAXPAXI@Z		; operator delete[]
?__global_array_delete@@YAXPAXI@Z ENDP			; __global_array_delete
_TEXT	ENDS
; Function compile flags: /Ogtp
; File E:\Proyectos\JuegosOnlineproyectos\PB\pbblow\Piercing Blow Remake\i3Server\src\i3Base\i3NetworkHTTP.cpp
;	COMDAT ?__global_array_delete@@YAXPAX@Z
_TEXT	SEGMENT
_p$ = 8							; size = 4
?__global_array_delete@@YAXPAX@Z PROC			; __global_array_delete, COMDAT

  00000	e9 00 00 00 00	 jmp	 ??_V@YAXPAX@Z		; operator delete[]
?__global_array_delete@@YAXPAX@Z ENDP			; __global_array_delete
_TEXT	ENDS
; Function compile flags: /Ogtp
; File E:\Proyectos\JuegosOnlineproyectos\PB\pbblow\Piercing Blow Remake\i3Server\src\i3Base\i3NetworkHTTP.cpp
;	COMDAT ?__global_delete@@YAXPAXI@Z
_TEXT	SEGMENT
_p$ = 8							; size = 4
_sz$ = 12						; size = 4
?__global_delete@@YAXPAXI@Z PROC			; __global_delete, COMDAT

  00000	e9 00 00 00 00	 jmp	 ??3@YAXPAXI@Z		; operator delete
?__global_delete@@YAXPAXI@Z ENDP			; __global_delete
_TEXT	ENDS
; Function compile flags: /Ogtp
; File E:\Proyectos\JuegosOnlineproyectos\PB\pbblow\Piercing Blow Remake\i3Server\src\i3Base\i3NetworkHTTP.cpp
;	COMDAT ?__empty_global_delete@@YAXPAXI@Z
_TEXT	SEGMENT
___formal$ = 8						; size = 4
___formal$ = 12						; size = 4
?__empty_global_delete@@YAXPAXI@Z PROC			; __empty_global_delete, COMDAT

  00000	c2 00 00	 ret	 0
?__empty_global_delete@@YAXPAXI@Z ENDP			; __empty_global_delete
_TEXT	ENDS
; Function compile flags: /Ogtp
; File E:\Proyectos\JuegosOnlineproyectos\PB\pbblow\Piercing Blow Remake\i3Server\src\i3Base\i3NetworkHTTP.cpp
;	COMDAT ?__global_delete@@YAXPAX@Z
_TEXT	SEGMENT
_p$ = 8							; size = 4
?__global_delete@@YAXPAX@Z PROC				; __global_delete, COMDAT

  00000	e9 00 00 00 00	 jmp	 ??3@YAXPAX@Z		; operator delete
?__global_delete@@YAXPAX@Z ENDP				; __global_delete
_TEXT	ENDS
; Function compile flags: /Ogtp
; File E:\Proyectos\JuegosOnlineproyectos\PB\pbblow\Piercing Blow Remake\i3Server\src\i3Base\i3NetworkHTTP.cpp
;	COMDAT ?__empty_global_delete@@YAXPAX@Z
_TEXT	SEGMENT
___formal$ = 8						; size = 4
?__empty_global_delete@@YAXPAX@Z PROC			; __empty_global_delete, COMDAT

  00000	c2 00 00	 ret	 0
?__empty_global_delete@@YAXPAX@Z ENDP			; __empty_global_delete
_TEXT	ENDS
END
