; Listing generated by Microsoft (R) Optimizing Compiler Version 19.50.35727.0 

	TITLE	E:\Proyectos\JuegosOnlineproyectos\PB\pbblow\Piercing Blow Remake\i3Server\Project\I3_DX\i3Server\x86\Release\i3NetworkSession.obj
	.686P
	.XMM
	include listing.inc
	.model	flat

INCLUDELIB LIBCMT
INCLUDELIB OLDNAMES

PUBLIC	?CreateInstance@?$i3MetaTemplate@Vi3NetworkSession@@@@UAEPAVi3ElementBase@@W4I3_CLASSMETA_TYPE@@@Z ; i3MetaTemplate<i3NetworkSession>::CreateInstance
PUBLIC	?BindInstance@?$i3MetaTemplate@Vi3NetworkSession@@@@UAEPAVi3ElementBase@@PAXW4I3_CLASSMETA_TYPE@@@Z ; i3MetaTemplate<i3NetworkSession>::BindInstance
PUBLIC	??_7?$i3MetaTemplate@Vi3NetworkSession@@@@6B@	; i3MetaTemplate<i3NetworkSession>::`vftable'
PUBLIC	??_G?$i3MetaTemplate@Vi3NetworkSession@@@@UAEPAXI@Z ; i3MetaTemplate<i3NetworkSession>::`scalar deleting destructor'
PUBLIC	??_C@_0O@OCDFBOHM@i3ElementBase@		; `string'
PUBLIC	??_C@_0BB@NJGEPICN@i3NetworkSession@		; `string'
PUBLIC	??_R0?AVi3ClassMeta@@@8				; i3ClassMeta `RTTI Type Descriptor'
PUBLIC	??_R3i3ClassMeta@@8				; i3ClassMeta::`RTTI Class Hierarchy Descriptor'
PUBLIC	??_R2i3ClassMeta@@8				; i3ClassMeta::`RTTI Base Class Array'
PUBLIC	??_R1A@?0A@EA@i3ClassMeta@@8			; i3ClassMeta::`RTTI Base Class Descriptor at (0,-1,0,64)'
PUBLIC	??_R4?$i3MetaTemplate@Vi3NetworkSession@@@@6B@	; i3MetaTemplate<i3NetworkSession>::`RTTI Complete Object Locator'
PUBLIC	??_R0?AV?$i3MetaTemplate@Vi3NetworkSession@@@@@8 ; i3MetaTemplate<i3NetworkSession> `RTTI Type Descriptor'
PUBLIC	??_R3?$i3MetaTemplate@Vi3NetworkSession@@@@8	; i3MetaTemplate<i3NetworkSession>::`RTTI Class Hierarchy Descriptor'
PUBLIC	??_R2?$i3MetaTemplate@Vi3NetworkSession@@@@8	; i3MetaTemplate<i3NetworkSession>::`RTTI Base Class Array'
PUBLIC	??_R1A@?0A@EA@?$i3MetaTemplate@Vi3NetworkSession@@@@8 ; i3MetaTemplate<i3NetworkSession>::`RTTI Base Class Descriptor at (0,-1,0,64)'
PUBLIC	?s_pClassMetai3NetworkSession@i3NetworkSession@@2PAVi3ClassMeta@@A ; i3NetworkSession::s_pClassMetai3NetworkSession
PUBLIC	__Avx2WmemEnabledWeakValue
EXTRN	??_E?$i3MetaTemplate@Vi3NetworkSession@@@@UAEPAXI@Z:PROC ; i3MetaTemplate<i3NetworkSession>::`vector deleting destructor'
EXTRN	??_7type_info@@6B@:QWORD			; type_info::`vftable'
;	COMDAT __Avx2WmemEnabledWeakValue
_BSS	SEGMENT
__Avx2WmemEnabledWeakValue DD 01H DUP (?)
_BSS	ENDS
_DATA	SEGMENT
?s_pClassMetai3NetworkSession@i3NetworkSession@@2PAVi3ClassMeta@@A DD FLAT:?s_ClassMetai3NetworkSession@@3V?$i3MetaTemplate@Vi3NetworkSession@@@@A ; i3NetworkSession::s_pClassMetai3NetworkSession
_DATA	ENDS
;	COMDAT ??_R1A@?0A@EA@?$i3MetaTemplate@Vi3NetworkSession@@@@8
rdata$r	SEGMENT
??_R1A@?0A@EA@?$i3MetaTemplate@Vi3NetworkSession@@@@8 DD FLAT:??_R0?AV?$i3MetaTemplate@Vi3NetworkSession@@@@@8 ; i3MetaTemplate<i3NetworkSession>::`RTTI Base Class Descriptor at (0,-1,0,64)'
	DD	01H
	DD	00H
	DD	0ffffffffH
	DD	00H
	DD	040H
	DD	FLAT:??_R3?$i3MetaTemplate@Vi3NetworkSession@@@@8
rdata$r	ENDS
;	COMDAT ??_R2?$i3MetaTemplate@Vi3NetworkSession@@@@8
rdata$r	SEGMENT
??_R2?$i3MetaTemplate@Vi3NetworkSession@@@@8 DD FLAT:??_R1A@?0A@EA@?$i3MetaTemplate@Vi3NetworkSession@@@@8 ; i3MetaTemplate<i3NetworkSession>::`RTTI Base Class Array'
	DD	FLAT:??_R1A@?0A@EA@i3ClassMeta@@8
rdata$r	ENDS
;	COMDAT ??_R3?$i3MetaTemplate@Vi3NetworkSession@@@@8
rdata$r	SEGMENT
??_R3?$i3MetaTemplate@Vi3NetworkSession@@@@8 DD 00H	; i3MetaTemplate<i3NetworkSession>::`RTTI Class Hierarchy Descriptor'
	DD	00H
	DD	02H
	DD	FLAT:??_R2?$i3MetaTemplate@Vi3NetworkSession@@@@8
rdata$r	ENDS
;	COMDAT ??_R0?AV?$i3MetaTemplate@Vi3NetworkSession@@@@@8
data$rs	SEGMENT
??_R0?AV?$i3MetaTemplate@Vi3NetworkSession@@@@@8 DD FLAT:??_7type_info@@6B@ ; i3MetaTemplate<i3NetworkSession> `RTTI Type Descriptor'
	DD	00H
	DB	'.?AV?$i3MetaTemplate@Vi3NetworkSession@@@@', 00H
data$rs	ENDS
;	COMDAT ??_R4?$i3MetaTemplate@Vi3NetworkSession@@@@6B@
rdata$r	SEGMENT
??_R4?$i3MetaTemplate@Vi3NetworkSession@@@@6B@ DD 00H	; i3MetaTemplate<i3NetworkSession>::`RTTI Complete Object Locator'
	DD	00H
	DD	00H
	DD	FLAT:??_R0?AV?$i3MetaTemplate@Vi3NetworkSession@@@@@8
	DD	FLAT:??_R3?$i3MetaTemplate@Vi3NetworkSession@@@@8
rdata$r	ENDS
;	COMDAT ??_R1A@?0A@EA@i3ClassMeta@@8
rdata$r	SEGMENT
??_R1A@?0A@EA@i3ClassMeta@@8 DD FLAT:??_R0?AVi3ClassMeta@@@8 ; i3ClassMeta::`RTTI Base Class Descriptor at (0,-1,0,64)'
	DD	00H
	DD	00H
	DD	0ffffffffH
	DD	00H
	DD	040H
	DD	FLAT:??_R3i3ClassMeta@@8
rdata$r	ENDS
;	COMDAT ??_R2i3ClassMeta@@8
rdata$r	SEGMENT
??_R2i3ClassMeta@@8 DD FLAT:??_R1A@?0A@EA@i3ClassMeta@@8 ; i3ClassMeta::`RTTI Base Class Array'
rdata$r	ENDS
;	COMDAT ??_R3i3ClassMeta@@8
rdata$r	SEGMENT
??_R3i3ClassMeta@@8 DD 00H				; i3ClassMeta::`RTTI Class Hierarchy Descriptor'
	DD	00H
	DD	01H
	DD	FLAT:??_R2i3ClassMeta@@8
rdata$r	ENDS
;	COMDAT ??_R0?AVi3ClassMeta@@@8
data$rs	SEGMENT
??_R0?AVi3ClassMeta@@@8 DD FLAT:??_7type_info@@6B@	; i3ClassMeta `RTTI Type Descriptor'
	DD	00H
	DB	'.?AVi3ClassMeta@@', 00H
data$rs	ENDS
;	COMDAT ??_C@_0BB@NJGEPICN@i3NetworkSession@
CONST	SEGMENT
??_C@_0BB@NJGEPICN@i3NetworkSession@ DB 'i3NetworkSession', 00H ; `string'
CONST	ENDS
;	COMDAT ??_C@_0O@OCDFBOHM@i3ElementBase@
CONST	SEGMENT
??_C@_0O@OCDFBOHM@i3ElementBase@ DB 'i3ElementBase', 00H ; `string'
CONST	ENDS
;	COMDAT ??_7?$i3MetaTemplate@Vi3NetworkSession@@@@6B@
CONST	SEGMENT
??_7?$i3MetaTemplate@Vi3NetworkSession@@@@6B@ DD FLAT:??_R4?$i3MetaTemplate@Vi3NetworkSession@@@@6B@ ; i3MetaTemplate<i3NetworkSession>::`vftable'
	DD	FLAT:??_E?$i3MetaTemplate@Vi3NetworkSession@@@@UAEPAXI@Z
	DD	FLAT:?CreateInstance@?$i3MetaTemplate@Vi3NetworkSession@@@@UAEPAVi3ElementBase@@W4I3_CLASSMETA_TYPE@@@Z
	DD	FLAT:?BindInstance@?$i3MetaTemplate@Vi3NetworkSession@@@@UAEPAVi3ElementBase@@PAXW4I3_CLASSMETA_TYPE@@@Z
CONST	ENDS
PUBLIC	?__empty_global_delete@@YAXPAX@Z		; __empty_global_delete
PUBLIC	?__global_delete@@YAXPAX@Z			; __global_delete
PUBLIC	?__empty_global_delete@@YAXPAXI@Z		; __empty_global_delete
PUBLIC	?__global_delete@@YAXPAXI@Z			; __global_delete
PUBLIC	?__global_array_delete@@YAXPAX@Z		; __global_array_delete
PUBLIC	?__global_array_delete@@YAXPAXI@Z		; __global_array_delete
PUBLIC	?GetMemoryPool@i3ClassMeta@@QAEPAVi3MemoryPool@@XZ ; i3ClassMeta::GetMemoryPool
PUBLIC	?SetMemoryPool@i3ClassMeta@@QAEXPAVi3MemoryPool@@@Z ; i3ClassMeta::SetMemoryPool
PUBLIC	?GetClassSize@i3ClassMeta@@QAEIXZ		; i3ClassMeta::GetClassSize
PUBLIC	?GetClassNameA@i3ClassMeta@@QAEPADXZ		; i3ClassMeta::GetClassNameA
PUBLIC	?IsExactTypeOf@i3ClassMeta@@QAE_NPAV1@@Z	; i3ClassMeta::IsExactTypeOf
PUBLIC	?SetStyle@i3ClassMeta@@QAEXI@Z			; i3ClassMeta::SetStyle
PUBLIC	?GetStyle@i3ClassMeta@@QAEIXZ			; i3ClassMeta::GetStyle
PUBLIC	?AddStyle@i3ClassMeta@@QAEXI@Z			; i3ClassMeta::AddStyle
PUBLIC	?RemoveStyle@i3ClassMeta@@QAEXI@Z		; i3ClassMeta::RemoveStyle
PUBLIC	?IsStyle@i3ClassMeta@@QAEHI@Z			; i3ClassMeta::IsStyle
PUBLIC	?IsAbstractClass@i3ClassMeta@@QAEHXZ		; i3ClassMeta::IsAbstractClass
PUBLIC	?IsConcreteClass@i3ClassMeta@@QAEHXZ		; i3ClassMeta::IsConcreteClass
PUBLIC	?GetBaseClassMeta@i3ClassMeta@@QAEPAV1@XZ	; i3ClassMeta::GetBaseClassMeta
PUBLIC	?getHashCode@i3ClassMeta@@QAEIXZ		; i3ClassMeta::getHashCode
PUBLIC	??0i3ClassMeta@@QAE@ABV0@@Z			; i3ClassMeta::i3ClassMeta
PUBLIC	??4i3ClassMeta@@QAEAAV0@ABV0@@Z			; i3ClassMeta::operator=
PUBLIC	??_Gi3ClassMeta@@UAEPAXI@Z			; i3ClassMeta::`scalar deleting destructor'
PUBLIC	??_Ei3ClassMeta@@UAEPAXI@Z			; i3ClassMeta::`vector deleting destructor'
PUBLIC	?GetClassMeta@i3ElementBase@@SAPAVi3ClassMeta@@XZ ; i3ElementBase::GetClassMeta
PUBLIC	?GetRefCount@i3ElementBase@@QAEHXZ		; i3ElementBase::GetRefCount
PUBLIC	?__SetMemoryPool@i3ElementBase@@QAEXPAVi3MemoryPool@@@Z ; i3ElementBase::__SetMemoryPool
PUBLIC	?__GetMemoryPool@i3ElementBase@@QAEPAVi3MemoryPool@@XZ ; i3ElementBase::__GetMemoryPool
PUBLIC	?IsExactTypeOf@i3ElementBase@@QAE_NPAVi3ClassMeta@@@Z ; i3ElementBase::IsExactTypeOf
PUBLIC	?IsTypeOf@i3ElementBase@@QAE_NPAVi3ClassMeta@@@Z ; i3ElementBase::IsTypeOf
PUBLIC	?AddRef@i3ElementBase@@QAEHXZ			; i3ElementBase::AddRef
PUBLIC	?_internal_SetRefCount@i3ElementBase@@QAEXH@Z	; i3ElementBase::_internal_SetRefCount
PUBLIC	??0i3ElementBase@@QAE@ABV0@@Z			; i3ElementBase::i3ElementBase
PUBLIC	??4i3ElementBase@@QAEAAV0@ABV0@@Z		; i3ElementBase::operator=
PUBLIC	??_Gi3ElementBase@@UAEPAXI@Z			; i3ElementBase::`scalar deleting destructor'
PUBLIC	??_Ei3ElementBase@@UAEPAXI@Z			; i3ElementBase::`vector deleting destructor'
PUBLIC	??0i3MemoryPool@@QAE@ABV0@@Z			; i3MemoryPool::i3MemoryPool
PUBLIC	??4i3MemoryPool@@QAEAAV0@ABV0@@Z		; i3MemoryPool::operator=
PUBLIC	??_Gi3MemoryPool@@UAEPAXI@Z			; i3MemoryPool::`scalar deleting destructor'
PUBLIC	??_Ei3MemoryPool@@UAEPAXI@Z			; i3MemoryPool::`vector deleting destructor'
PUBLIC	??4OVERLAPPED2@@QAEAAU0@ABU0@@Z			; OVERLAPPED2::operator=
PUBLIC	??4OVERLAPPED2@@QAEAAU0@$$QAU0@@Z		; OVERLAPPED2::operator=
PUBLIC	?GetClassMeta@i3NetworkSession@@SAPAVi3ClassMeta@@XZ ; i3NetworkSession::GetClassMeta
PUBLIC	?GetMeta@i3NetworkSession@@UAEPAVi3ClassMeta@@XZ ; i3NetworkSession::GetMeta
PUBLIC	?RegisterMeta@i3NetworkSession@@SAXXZ		; i3NetworkSession::RegisterMeta
PUBLIC	?SetConcreteClass@i3NetworkSession@@SAXPAVi3ClassMeta@@@Z ; i3NetworkSession::SetConcreteClass
PUBLIC	?SetGhostClass@i3NetworkSession@@SAXPAVi3ClassMeta@@@Z ; i3NetworkSession::SetGhostClass
PUBLIC	?_NewObject@i3NetworkSession@@SAPAV1@XZ		; i3NetworkSession::_NewObject
PUBLIC	?_NewObjectRef@i3NetworkSession@@SAPAV1@XZ	; i3NetworkSession::_NewObjectRef
PUBLIC	?_BindObject@i3NetworkSession@@SAPAV1@PAX@Z	; i3NetworkSession::_BindObject
PUBLIC	?_BindObjectRef@i3NetworkSession@@SAPAV1@PAX@Z	; i3NetworkSession::_BindObjectRef
PUBLIC	?_NewObjectByType@i3NetworkSession@@SAPAV1@W4I3_CLASSMETA_TYPE@@@Z ; i3NetworkSession::_NewObjectByType
PUBLIC	?_NewObjectRefByType@i3NetworkSession@@SAPAV1@W4I3_CLASSMETA_TYPE@@@Z ; i3NetworkSession::_NewObjectRefByType
PUBLIC	?_BindObjectByType@i3NetworkSession@@SAPAV1@PAXW4I3_CLASSMETA_TYPE@@@Z ; i3NetworkSession::_BindObjectByType
PUBLIC	?_BindObjectRefByType@i3NetworkSession@@SAPAV1@PAXW4I3_CLASSMETA_TYPE@@@Z ; i3NetworkSession::_BindObjectRefByType
PUBLIC	?DispatchReceive@i3NetworkSession@@IAEXK@Z	; i3NetworkSession::DispatchReceive
PUBLIC	??0i3NetworkSession@@QAE@XZ			; i3NetworkSession::i3NetworkSession
PUBLIC	??1i3NetworkSession@@UAE@XZ			; i3NetworkSession::~i3NetworkSession
PUBLIC	?Create@i3NetworkSession@@UAEHXZ		; i3NetworkSession::Create
PUBLIC	?Destroy@i3NetworkSession@@UAEXXZ		; i3NetworkSession::Destroy
PUBLIC	?OnConnect@i3NetworkSession@@UAEHIPAUsockaddr_in@@@Z ; i3NetworkSession::OnConnect
PUBLIC	?OnConnectInit@i3NetworkSession@@UAEHXZ		; i3NetworkSession::OnConnectInit
PUBLIC	?OnDisconnect@i3NetworkSession@@UAEHH@Z		; i3NetworkSession::OnDisconnect
PUBLIC	?Dispatch@i3NetworkSession@@QAEXK@Z		; i3NetworkSession::Dispatch
PUBLIC	?SendMessageA@i3NetworkSession@@QAEHPAVi3NetworkPacket@@@Z ; i3NetworkSession::SendMessageA
PUBLIC	?GetIsActive@i3NetworkSession@@QAEHXZ		; i3NetworkSession::GetIsActive
PUBLIC	?GetIPStringA@i3NetworkSession@@QAEPADXZ	; i3NetworkSession::GetIPStringA
PUBLIC	?GetIPStringW@i3NetworkSession@@QAEPAGXZ	; i3NetworkSession::GetIPStringW
PUBLIC	?PacketParsing@i3NetworkSession@@UAEHPADH@Z	; i3NetworkSession::PacketParsing
PUBLIC	?WaitPacketReceive@i3NetworkSession@@UAEHH@Z	; i3NetworkSession::WaitPacketReceive
PUBLIC	?SendPacketMessage@i3NetworkSession@@UAEHPAVi3NetworkPacket@@@Z ; i3NetworkSession::SendPacketMessage
PUBLIC	?DataEncript@i3NetworkSession@@QAEXIIPA_K@Z	; i3NetworkSession::DataEncript
PUBLIC	?DataDecript@i3NetworkSession@@QAEX_KPAI1@Z	; i3NetworkSession::DataDecript
PUBLIC	??0i3NetworkSession@@QAE@ABV0@@Z		; i3NetworkSession::i3NetworkSession
PUBLIC	??4i3NetworkSession@@QAEAAV0@ABV0@@Z		; i3NetworkSession::operator=
PUBLIC	??_Gi3NetworkSession@@UAEPAXI@Z			; i3NetworkSession::`scalar deleting destructor'
PUBLIC	??_Ei3NetworkSession@@UAEPAXI@Z			; i3NetworkSession::`vector deleting destructor'
PUBLIC	?GetClassMeta@i3NetworkPacket@@SAPAVi3ClassMeta@@XZ ; i3NetworkPacket::GetClassMeta
PUBLIC	?SetProtocol@i3NetworkPacket@@QAEXG@Z		; i3NetworkPacket::SetProtocol
PUBLIC	?GetPacketSize@i3NetworkPacket@@QAEHXZ		; i3NetworkPacket::GetPacketSize
PUBLIC	?GetReceivedSize@i3NetworkPacket@@QAEHXZ	; i3NetworkPacket::GetReceivedSize
PUBLIC	?GetProtocolID@i3NetworkPacket@@QAEGXZ		; i3NetworkPacket::GetProtocolID
PUBLIC	?GetDataFieldSize@i3NetworkPacket@@QAEGXZ	; i3NetworkPacket::GetDataFieldSize
PUBLIC	?GetPacketBuffer@i3NetworkPacket@@QAEPADXZ	; i3NetworkPacket::GetPacketBuffer
PUBLIC	?GetFieldBuffer@i3NetworkPacket@@QAEPADXZ	; i3NetworkPacket::GetFieldBuffer
PUBLIC	??0i3NetworkPacket@@QAE@ABV0@@Z			; i3NetworkPacket::i3NetworkPacket
PUBLIC	??4i3NetworkPacket@@QAEAAV0@ABV0@@Z		; i3NetworkPacket::operator=
PUBLIC	??_Gi3NetworkPacket@@UAEPAXI@Z			; i3NetworkPacket::`scalar deleting destructor'
PUBLIC	??_Ei3NetworkPacket@@UAEPAXI@Z			; i3NetworkPacket::`vector deleting destructor'
PUBLIC	?GetClassMeta@i3Udp@@SAPAVi3ClassMeta@@XZ	; i3Udp::GetClassMeta
PUBLIC	?getSocketHandle@i3Udp@@QAEIXZ			; i3Udp::getSocketHandle
PUBLIC	??0i3Udp@@QAE@ABV0@@Z				; i3Udp::i3Udp
PUBLIC	??4i3Udp@@QAEAAV0@ABV0@@Z			; i3Udp::operator=
PUBLIC	??_Gi3Udp@@UAEPAXI@Z				; i3Udp::`scalar deleting destructor'
PUBLIC	??_Ei3Udp@@UAEPAXI@Z				; i3Udp::`vector deleting destructor'
PUBLIC	?GetClassMeta@i3Tcp@@SAPAVi3ClassMeta@@XZ	; i3Tcp::GetClassMeta
PUBLIC	??0i3Tcp@@QAE@ABV0@@Z				; i3Tcp::i3Tcp
PUBLIC	??4i3Tcp@@QAEAAV0@ABV0@@Z			; i3Tcp::operator=
PUBLIC	??_Gi3Tcp@@UAEPAXI@Z				; i3Tcp::`scalar deleting destructor'
PUBLIC	??_Ei3Tcp@@UAEPAXI@Z				; i3Tcp::`vector deleting destructor'
PUBLIC	??0?$i3MetaTemplate@Vi3NetworkSession@@@@QAE@IPAD0W4I3_CLASSMETA_TYPE@@@Z ; i3MetaTemplate<i3NetworkSession>::i3MetaTemplate<i3NetworkSession>
PUBLIC	??_7i3ClassMeta@@6B@				; i3ClassMeta::`vftable'
PUBLIC	??_7i3ElementBase@@6B@				; i3ElementBase::`vftable'
PUBLIC	??_7i3MemoryPool@@6B@				; i3MemoryPool::`vftable'
PUBLIC	??_7i3NetworkSession@@6B@			; i3NetworkSession::`vftable'
PUBLIC	??_7i3NetworkPacket@@6B@			; i3NetworkPacket::`vftable'
PUBLIC	??_7i3Udp@@6B@					; i3Udp::`vftable'
PUBLIC	??_7i3Tcp@@6B@					; i3Tcp::`vftable'
PUBLIC	??_C@_0CG@NBCOPKFK@?$FLi3NetworkSession?3?3WaitPacketRe@ ; `string'
PUBLIC	??_C@_0CA@PPGNEMDH@?$FLi3NetworkSession?3?3SendMessage?$FN@ ; `string'
PUBLIC	??_R4i3ElementBase@@6B@				; i3ElementBase::`RTTI Complete Object Locator'
PUBLIC	??_R0?AVi3ElementBase@@@8			; i3ElementBase `RTTI Type Descriptor'
PUBLIC	??_R3i3ElementBase@@8				; i3ElementBase::`RTTI Class Hierarchy Descriptor'
PUBLIC	??_R2i3ElementBase@@8				; i3ElementBase::`RTTI Base Class Array'
PUBLIC	??_R1A@?0A@EA@i3ElementBase@@8			; i3ElementBase::`RTTI Base Class Descriptor at (0,-1,0,64)'
PUBLIC	??_R4i3MemoryPool@@6B@				; i3MemoryPool::`RTTI Complete Object Locator'
PUBLIC	??_R0?AVi3MemoryPool@@@8			; i3MemoryPool `RTTI Type Descriptor'
PUBLIC	??_R3i3MemoryPool@@8				; i3MemoryPool::`RTTI Class Hierarchy Descriptor'
PUBLIC	??_R2i3MemoryPool@@8				; i3MemoryPool::`RTTI Base Class Array'
PUBLIC	??_R1A@?0A@EA@i3MemoryPool@@8			; i3MemoryPool::`RTTI Base Class Descriptor at (0,-1,0,64)'
PUBLIC	??_R4i3ClassMeta@@6B@				; i3ClassMeta::`RTTI Complete Object Locator'
PUBLIC	??_R4i3NetworkPacket@@6B@			; i3NetworkPacket::`RTTI Complete Object Locator'
PUBLIC	??_R0?AVi3NetworkPacket@@@8			; i3NetworkPacket `RTTI Type Descriptor'
PUBLIC	??_R3i3NetworkPacket@@8				; i3NetworkPacket::`RTTI Class Hierarchy Descriptor'
PUBLIC	??_R2i3NetworkPacket@@8				; i3NetworkPacket::`RTTI Base Class Array'
PUBLIC	??_R1A@?0A@EA@i3NetworkPacket@@8		; i3NetworkPacket::`RTTI Base Class Descriptor at (0,-1,0,64)'
PUBLIC	??_R4i3NetworkSession@@6B@			; i3NetworkSession::`RTTI Complete Object Locator'
PUBLIC	??_R0?AVi3NetworkSession@@@8			; i3NetworkSession `RTTI Type Descriptor'
PUBLIC	??_R3i3NetworkSession@@8			; i3NetworkSession::`RTTI Class Hierarchy Descriptor'
PUBLIC	??_R2i3NetworkSession@@8			; i3NetworkSession::`RTTI Base Class Array'
PUBLIC	??_R1A@?0A@EA@i3NetworkSession@@8		; i3NetworkSession::`RTTI Base Class Descriptor at (0,-1,0,64)'
PUBLIC	??_R4i3Udp@@6B@					; i3Udp::`RTTI Complete Object Locator'
PUBLIC	??_R0?AVi3Udp@@@8				; i3Udp `RTTI Type Descriptor'
PUBLIC	??_R3i3Udp@@8					; i3Udp::`RTTI Class Hierarchy Descriptor'
PUBLIC	??_R2i3Udp@@8					; i3Udp::`RTTI Base Class Array'
PUBLIC	??_R1A@?0A@EA@i3Udp@@8				; i3Udp::`RTTI Base Class Descriptor at (0,-1,0,64)'
PUBLIC	??_R4i3Tcp@@6B@					; i3Tcp::`RTTI Complete Object Locator'
PUBLIC	??_R0?AVi3Tcp@@@8				; i3Tcp `RTTI Type Descriptor'
PUBLIC	??_R3i3Tcp@@8					; i3Tcp::`RTTI Class Hierarchy Descriptor'
PUBLIC	??_R2i3Tcp@@8					; i3Tcp::`RTTI Base Class Array'
PUBLIC	??_R1A@?0A@EA@i3Tcp@@8				; i3Tcp::`RTTI Base Class Descriptor at (0,-1,0,64)'
EXTRN	??_M@YGXPAXIIP6EX0@Z@Z:PROC			; `eh vector destructor iterator'
EXTRN	__purecall:PROC
EXTRN	??3@YAXPAX@Z:PROC				; operator delete
EXTRN	??3@YAXPAXI@Z:PROC				; operator delete
EXTRN	??_V@YAXPAX@Z:PROC				; operator delete[]
EXTRN	??_V@YAXPAXI@Z:PROC				; operator delete[]
EXTRN	_atexit:PROC
EXTRN	___std_terminate:PROC
EXTRN	__imp__ReadFile@20:PROC
EXTRN	__imp__WriteFile@20:PROC
EXTRN	__imp__GetLastError@0:PROC
EXTRN	__imp__closesocket@4:PROC
EXTRN	__imp__shutdown@8:PROC
EXTRN	??0i3ClassMeta@@QAE@IPAD0W4I3_CLASSMETA_TYPE@@@Z:PROC ; i3ClassMeta::i3ClassMeta
EXTRN	??1i3ClassMeta@@UAE@XZ:PROC			; i3ClassMeta::~i3ClassMeta
EXTRN	?CreateInstance@i3ClassMeta@@UAEPAVi3ElementBase@@W4I3_CLASSMETA_TYPE@@@Z:PROC ; i3ClassMeta::CreateInstance
EXTRN	?BindInstance@i3ClassMeta@@UAEPAVi3ElementBase@@PAXW4I3_CLASSMETA_TYPE@@@Z:PROC ; i3ClassMeta::BindInstance
EXTRN	?IsTypeOf@i3ClassMeta@@QAE_NPAV1@@Z:PROC	; i3ClassMeta::IsTypeOf
EXTRN	?Register@i3ClassMeta@@QAEXXZ:PROC		; i3ClassMeta::Register
EXTRN	?GetConcreteClass@i3ClassMeta@@QAEPAV1@W4I3_CLASSMETA_TYPE@@@Z:PROC ; i3ClassMeta::GetConcreteClass
EXTRN	?SetConcreteClass@i3ClassMeta@@QAEXPAV1@@Z:PROC	; i3ClassMeta::SetConcreteClass
EXTRN	?SetGhostClass@i3ClassMeta@@QAEXPAV1@@Z:PROC	; i3ClassMeta::SetGhostClass
EXTRN	?GetMeta@i3ElementBase@@UAEPAVi3ClassMeta@@XZ:PROC ; i3ElementBase::GetMeta
EXTRN	??0i3ElementBase@@QAE@XZ:PROC			; i3ElementBase::i3ElementBase
EXTRN	??1i3ElementBase@@UAE@XZ:PROC			; i3ElementBase::~i3ElementBase
EXTRN	??2i3ElementBase@@SAPAXI@Z:PROC			; i3ElementBase::operator new
EXTRN	??2i3ElementBase@@SAPAXIPAX@Z:PROC		; i3ElementBase::operator new
EXTRN	??3i3ElementBase@@SAXPAX@Z:PROC			; i3ElementBase::operator delete
EXTRN	??3i3ElementBase@@SAXPAX0@Z:PROC		; i3ElementBase::operator delete
EXTRN	?CopyTo@i3ElementBase@@UAEXPAV1@W4I3_COPY_METHOD@@@Z:PROC ; i3ElementBase::CopyTo
EXTRN	??1i3MemoryPool@@UAE@XZ:PROC			; i3MemoryPool::~i3MemoryPool
EXTRN	?GetMeta@i3NetworkPacket@@UAEPAVi3ClassMeta@@XZ:PROC ; i3NetworkPacket::GetMeta
EXTRN	??1i3NetworkPacket@@UAE@XZ:PROC			; i3NetworkPacket::~i3NetworkPacket
EXTRN	?GetError@i3Net@@YAHPAD@Z:PROC			; i3Net::GetError
EXTRN	?GetIPToSockA@i3Net@@YAPADPAUsockaddr_in@@PAD@Z:PROC ; i3Net::GetIPToSockA
EXTRN	?GetIPToSockW@i3Net@@YAPAGPAUsockaddr_in@@PAG@Z:PROC ; i3Net::GetIPToSockW
EXTRN	?GetMeta@i3Udp@@UAEPAVi3ClassMeta@@XZ:PROC	; i3Udp::GetMeta
EXTRN	??1i3Udp@@UAE@XZ:PROC				; i3Udp::~i3Udp
EXTRN	?GetMeta@i3Tcp@@UAEPAVi3ClassMeta@@XZ:PROC	; i3Tcp::GetMeta
EXTRN	??1i3Tcp@@UAE@XZ:PROC				; i3Tcp::~i3Tcp
EXTRN	?BitRotateEncript@@YAXPAEII@Z:PROC		; BitRotateEncript
EXTRN	?BitRotateDecript@@YAXPAEII@Z:PROC		; BitRotateDecript
EXTRN	@__security_check_cookie@4:PROC
EXTRN	___CxxFrameHandler3:PROC
EXTRN	_memcpy:PROC
EXTRN	_memmove:PROC
EXTRN	?s_pClassMetai3ElementBase@i3ElementBase@@2PAVi3ClassMeta@@A:DWORD ; i3ElementBase::s_pClassMetai3ElementBase
EXTRN	?s_pClassMetai3NetworkPacket@i3NetworkPacket@@2PAVi3ClassMeta@@A:DWORD ; i3NetworkPacket::s_pClassMetai3NetworkPacket
EXTRN	?s_pClassMetai3Udp@i3Udp@@2PAVi3ClassMeta@@A:DWORD ; i3Udp::s_pClassMetai3Udp
EXTRN	?s_pClassMetai3Tcp@i3Tcp@@2PAVi3ClassMeta@@A:DWORD ; i3Tcp::s_pClassMetai3Tcp
EXTRN	___security_cookie:DWORD
_BSS	SEGMENT
?s_ClassMetai3NetworkSession@@3V?$i3MetaTemplate@Vi3NetworkSession@@@@A DB 038H DUP (?) ; s_ClassMetai3NetworkSession
_BSS	ENDS
CRT$XCU	SEGMENT
?s_ClassMetai3NetworkSession$initializer$@@3P6AXXZA DD FLAT:??__Es_ClassMetai3NetworkSession@@YAXXZ ; s_ClassMetai3NetworkSession$initializer$
CRT$XCU	ENDS
;	COMDAT ??_R1A@?0A@EA@i3Tcp@@8
rdata$r	SEGMENT
??_R1A@?0A@EA@i3Tcp@@8 DD FLAT:??_R0?AVi3Tcp@@@8	; i3Tcp::`RTTI Base Class Descriptor at (0,-1,0,64)'
	DD	01H
	DD	00H
	DD	0ffffffffH
	DD	00H
	DD	040H
	DD	FLAT:??_R3i3Tcp@@8
rdata$r	ENDS
;	COMDAT ??_R2i3Tcp@@8
rdata$r	SEGMENT
??_R2i3Tcp@@8 DD FLAT:??_R1A@?0A@EA@i3Tcp@@8		; i3Tcp::`RTTI Base Class Array'
	DD	FLAT:??_R1A@?0A@EA@i3ElementBase@@8
rdata$r	ENDS
;	COMDAT ??_R3i3Tcp@@8
rdata$r	SEGMENT
??_R3i3Tcp@@8 DD 00H					; i3Tcp::`RTTI Class Hierarchy Descriptor'
	DD	00H
	DD	02H
	DD	FLAT:??_R2i3Tcp@@8
rdata$r	ENDS
;	COMDAT ??_R0?AVi3Tcp@@@8
data$rs	SEGMENT
??_R0?AVi3Tcp@@@8 DD FLAT:??_7type_info@@6B@		; i3Tcp `RTTI Type Descriptor'
	DD	00H
	DB	'.?AVi3Tcp@@', 00H
data$rs	ENDS
;	COMDAT ??_R4i3Tcp@@6B@
rdata$r	SEGMENT
??_R4i3Tcp@@6B@ DD 00H					; i3Tcp::`RTTI Complete Object Locator'
	DD	00H
	DD	00H
	DD	FLAT:??_R0?AVi3Tcp@@@8
	DD	FLAT:??_R3i3Tcp@@8
rdata$r	ENDS
;	COMDAT ??_R1A@?0A@EA@i3Udp@@8
rdata$r	SEGMENT
??_R1A@?0A@EA@i3Udp@@8 DD FLAT:??_R0?AVi3Udp@@@8	; i3Udp::`RTTI Base Class Descriptor at (0,-1,0,64)'
	DD	01H
	DD	00H
	DD	0ffffffffH
	DD	00H
	DD	040H
	DD	FLAT:??_R3i3Udp@@8
rdata$r	ENDS
;	COMDAT ??_R2i3Udp@@8
rdata$r	SEGMENT
??_R2i3Udp@@8 DD FLAT:??_R1A@?0A@EA@i3Udp@@8		; i3Udp::`RTTI Base Class Array'
	DD	FLAT:??_R1A@?0A@EA@i3ElementBase@@8
rdata$r	ENDS
;	COMDAT ??_R3i3Udp@@8
rdata$r	SEGMENT
??_R3i3Udp@@8 DD 00H					; i3Udp::`RTTI Class Hierarchy Descriptor'
	DD	00H
	DD	02H
	DD	FLAT:??_R2i3Udp@@8
rdata$r	ENDS
;	COMDAT ??_R0?AVi3Udp@@@8
data$rs	SEGMENT
??_R0?AVi3Udp@@@8 DD FLAT:??_7type_info@@6B@		; i3Udp `RTTI Type Descriptor'
	DD	00H
	DB	'.?AVi3Udp@@', 00H
data$rs	ENDS
;	COMDAT ??_R4i3Udp@@6B@
rdata$r	SEGMENT
??_R4i3Udp@@6B@ DD 00H					; i3Udp::`RTTI Complete Object Locator'
	DD	00H
	DD	00H
	DD	FLAT:??_R0?AVi3Udp@@@8
	DD	FLAT:??_R3i3Udp@@8
rdata$r	ENDS
;	COMDAT ??_R1A@?0A@EA@i3NetworkSession@@8
rdata$r	SEGMENT
??_R1A@?0A@EA@i3NetworkSession@@8 DD FLAT:??_R0?AVi3NetworkSession@@@8 ; i3NetworkSession::`RTTI Base Class Descriptor at (0,-1,0,64)'
	DD	01H
	DD	00H
	DD	0ffffffffH
	DD	00H
	DD	040H
	DD	FLAT:??_R3i3NetworkSession@@8
rdata$r	ENDS
;	COMDAT ??_R2i3NetworkSession@@8
rdata$r	SEGMENT
??_R2i3NetworkSession@@8 DD FLAT:??_R1A@?0A@EA@i3NetworkSession@@8 ; i3NetworkSession::`RTTI Base Class Array'
	DD	FLAT:??_R1A@?0A@EA@i3ElementBase@@8
rdata$r	ENDS
;	COMDAT ??_R3i3NetworkSession@@8
rdata$r	SEGMENT
??_R3i3NetworkSession@@8 DD 00H				; i3NetworkSession::`RTTI Class Hierarchy Descriptor'
	DD	00H
	DD	02H
	DD	FLAT:??_R2i3NetworkSession@@8
rdata$r	ENDS
;	COMDAT ??_R0?AVi3NetworkSession@@@8
data$rs	SEGMENT
??_R0?AVi3NetworkSession@@@8 DD FLAT:??_7type_info@@6B@	; i3NetworkSession `RTTI Type Descriptor'
	DD	00H
	DB	'.?AVi3NetworkSession@@', 00H
data$rs	ENDS
;	COMDAT ??_R4i3NetworkSession@@6B@
rdata$r	SEGMENT
??_R4i3NetworkSession@@6B@ DD 00H			; i3NetworkSession::`RTTI Complete Object Locator'
	DD	00H
	DD	00H
	DD	FLAT:??_R0?AVi3NetworkSession@@@8
	DD	FLAT:??_R3i3NetworkSession@@8
rdata$r	ENDS
;	COMDAT ??_R1A@?0A@EA@i3NetworkPacket@@8
rdata$r	SEGMENT
??_R1A@?0A@EA@i3NetworkPacket@@8 DD FLAT:??_R0?AVi3NetworkPacket@@@8 ; i3NetworkPacket::`RTTI Base Class Descriptor at (0,-1,0,64)'
	DD	01H
	DD	00H
	DD	0ffffffffH
	DD	00H
	DD	040H
	DD	FLAT:??_R3i3NetworkPacket@@8
rdata$r	ENDS
;	COMDAT ??_R2i3NetworkPacket@@8
rdata$r	SEGMENT
??_R2i3NetworkPacket@@8 DD FLAT:??_R1A@?0A@EA@i3NetworkPacket@@8 ; i3NetworkPacket::`RTTI Base Class Array'
	DD	FLAT:??_R1A@?0A@EA@i3ElementBase@@8
rdata$r	ENDS
;	COMDAT ??_R3i3NetworkPacket@@8
rdata$r	SEGMENT
??_R3i3NetworkPacket@@8 DD 00H				; i3NetworkPacket::`RTTI Class Hierarchy Descriptor'
	DD	00H
	DD	02H
	DD	FLAT:??_R2i3NetworkPacket@@8
rdata$r	ENDS
;	COMDAT ??_R0?AVi3NetworkPacket@@@8
data$rs	SEGMENT
??_R0?AVi3NetworkPacket@@@8 DD FLAT:??_7type_info@@6B@	; i3NetworkPacket `RTTI Type Descriptor'
	DD	00H
	DB	'.?AVi3NetworkPacket@@', 00H
data$rs	ENDS
;	COMDAT ??_R4i3NetworkPacket@@6B@
rdata$r	SEGMENT
??_R4i3NetworkPacket@@6B@ DD 00H			; i3NetworkPacket::`RTTI Complete Object Locator'
	DD	00H
	DD	00H
	DD	FLAT:??_R0?AVi3NetworkPacket@@@8
	DD	FLAT:??_R3i3NetworkPacket@@8
rdata$r	ENDS
;	COMDAT ??_R4i3ClassMeta@@6B@
rdata$r	SEGMENT
??_R4i3ClassMeta@@6B@ DD 00H				; i3ClassMeta::`RTTI Complete Object Locator'
	DD	00H
	DD	00H
	DD	FLAT:??_R0?AVi3ClassMeta@@@8
	DD	FLAT:??_R3i3ClassMeta@@8
rdata$r	ENDS
;	COMDAT ??_R1A@?0A@EA@i3MemoryPool@@8
rdata$r	SEGMENT
??_R1A@?0A@EA@i3MemoryPool@@8 DD FLAT:??_R0?AVi3MemoryPool@@@8 ; i3MemoryPool::`RTTI Base Class Descriptor at (0,-1,0,64)'
	DD	00H
	DD	00H
	DD	0ffffffffH
	DD	00H
	DD	040H
	DD	FLAT:??_R3i3MemoryPool@@8
rdata$r	ENDS
;	COMDAT ??_R2i3MemoryPool@@8
rdata$r	SEGMENT
??_R2i3MemoryPool@@8 DD FLAT:??_R1A@?0A@EA@i3MemoryPool@@8 ; i3MemoryPool::`RTTI Base Class Array'
rdata$r	ENDS
;	COMDAT ??_R3i3MemoryPool@@8
rdata$r	SEGMENT
??_R3i3MemoryPool@@8 DD 00H				; i3MemoryPool::`RTTI Class Hierarchy Descriptor'
	DD	00H
	DD	01H
	DD	FLAT:??_R2i3MemoryPool@@8
rdata$r	ENDS
;	COMDAT ??_R0?AVi3MemoryPool@@@8
data$rs	SEGMENT
??_R0?AVi3MemoryPool@@@8 DD FLAT:??_7type_info@@6B@	; i3MemoryPool `RTTI Type Descriptor'
	DD	00H
	DB	'.?AVi3MemoryPool@@', 00H
data$rs	ENDS
;	COMDAT ??_R4i3MemoryPool@@6B@
rdata$r	SEGMENT
??_R4i3MemoryPool@@6B@ DD 00H				; i3MemoryPool::`RTTI Complete Object Locator'
	DD	00H
	DD	00H
	DD	FLAT:??_R0?AVi3MemoryPool@@@8
	DD	FLAT:??_R3i3MemoryPool@@8
rdata$r	ENDS
;	COMDAT ??_R1A@?0A@EA@i3ElementBase@@8
rdata$r	SEGMENT
??_R1A@?0A@EA@i3ElementBase@@8 DD FLAT:??_R0?AVi3ElementBase@@@8 ; i3ElementBase::`RTTI Base Class Descriptor at (0,-1,0,64)'
	DD	00H
	DD	00H
	DD	0ffffffffH
	DD	00H
	DD	040H
	DD	FLAT:??_R3i3ElementBase@@8
rdata$r	ENDS
;	COMDAT ??_R2i3ElementBase@@8
rdata$r	SEGMENT
??_R2i3ElementBase@@8 DD FLAT:??_R1A@?0A@EA@i3ElementBase@@8 ; i3ElementBase::`RTTI Base Class Array'
rdata$r	ENDS
;	COMDAT ??_R3i3ElementBase@@8
rdata$r	SEGMENT
??_R3i3ElementBase@@8 DD 00H				; i3ElementBase::`RTTI Class Hierarchy Descriptor'
	DD	00H
	DD	01H
	DD	FLAT:??_R2i3ElementBase@@8
rdata$r	ENDS
;	COMDAT ??_R0?AVi3ElementBase@@@8
data$rs	SEGMENT
??_R0?AVi3ElementBase@@@8 DD FLAT:??_7type_info@@6B@	; i3ElementBase `RTTI Type Descriptor'
	DD	00H
	DB	'.?AVi3ElementBase@@', 00H
data$rs	ENDS
;	COMDAT ??_R4i3ElementBase@@6B@
rdata$r	SEGMENT
??_R4i3ElementBase@@6B@ DD 00H				; i3ElementBase::`RTTI Complete Object Locator'
	DD	00H
	DD	00H
	DD	FLAT:??_R0?AVi3ElementBase@@@8
	DD	FLAT:??_R3i3ElementBase@@8
rdata$r	ENDS
;	COMDAT ??_C@_0CA@PPGNEMDH@?$FLi3NetworkSession?3?3SendMessage?$FN@
CONST	SEGMENT
??_C@_0CA@PPGNEMDH@?$FLi3NetworkSession?3?3SendMessage?$FN@ DB '[i3Networ'
	DB	'kSession::SendMessage]', 00H		; `string'
CONST	ENDS
;	COMDAT ??_C@_0CG@NBCOPKFK@?$FLi3NetworkSession?3?3WaitPacketRe@
CONST	SEGMENT
??_C@_0CG@NBCOPKFK@?$FLi3NetworkSession?3?3WaitPacketRe@ DB '[i3NetworkSe'
	DB	'ssion::WaitPacketReceive]', 00H		; `string'
CONST	ENDS
;	COMDAT ??_7i3Tcp@@6B@
CONST	SEGMENT
??_7i3Tcp@@6B@ DD FLAT:??_R4i3Tcp@@6B@			; i3Tcp::`vftable'
	DD	FLAT:?GetMeta@i3Tcp@@UAEPAVi3ClassMeta@@XZ
	DD	FLAT:??_Ei3Tcp@@UAEPAXI@Z
	DD	FLAT:?CopyTo@i3ElementBase@@UAEXPAV1@W4I3_COPY_METHOD@@@Z
CONST	ENDS
;	COMDAT ??_7i3Udp@@6B@
CONST	SEGMENT
??_7i3Udp@@6B@ DD FLAT:??_R4i3Udp@@6B@			; i3Udp::`vftable'
	DD	FLAT:?GetMeta@i3Udp@@UAEPAVi3ClassMeta@@XZ
	DD	FLAT:??_Ei3Udp@@UAEPAXI@Z
	DD	FLAT:?CopyTo@i3ElementBase@@UAEXPAV1@W4I3_COPY_METHOD@@@Z
CONST	ENDS
;	COMDAT ??_7i3NetworkPacket@@6B@
CONST	SEGMENT
??_7i3NetworkPacket@@6B@ DD FLAT:??_R4i3NetworkPacket@@6B@ ; i3NetworkPacket::`vftable'
	DD	FLAT:?GetMeta@i3NetworkPacket@@UAEPAVi3ClassMeta@@XZ
	DD	FLAT:??_Ei3NetworkPacket@@UAEPAXI@Z
	DD	FLAT:?CopyTo@i3ElementBase@@UAEXPAV1@W4I3_COPY_METHOD@@@Z
CONST	ENDS
;	COMDAT ??_7i3NetworkSession@@6B@
CONST	SEGMENT
??_7i3NetworkSession@@6B@ DD FLAT:??_R4i3NetworkSession@@6B@ ; i3NetworkSession::`vftable'
	DD	FLAT:?GetMeta@i3NetworkSession@@UAEPAVi3ClassMeta@@XZ
	DD	FLAT:??_Ei3NetworkSession@@UAEPAXI@Z
	DD	FLAT:?CopyTo@i3ElementBase@@UAEXPAV1@W4I3_COPY_METHOD@@@Z
	DD	FLAT:?Create@i3NetworkSession@@UAEHXZ
	DD	FLAT:?Destroy@i3NetworkSession@@UAEXXZ
	DD	FLAT:?OnConnect@i3NetworkSession@@UAEHIPAUsockaddr_in@@@Z
	DD	FLAT:?OnConnectInit@i3NetworkSession@@UAEHXZ
	DD	FLAT:?OnDisconnect@i3NetworkSession@@UAEHH@Z
	DD	FLAT:?PacketParsing@i3NetworkSession@@UAEHPADH@Z
	DD	FLAT:?WaitPacketReceive@i3NetworkSession@@UAEHH@Z
	DD	FLAT:?SendPacketMessage@i3NetworkSession@@UAEHPAVi3NetworkPacket@@@Z
CONST	ENDS
;	COMDAT ??_7i3MemoryPool@@6B@
CONST	SEGMENT
??_7i3MemoryPool@@6B@ DD FLAT:??_R4i3MemoryPool@@6B@	; i3MemoryPool::`vftable'
	DD	FLAT:??_Ei3MemoryPool@@UAEPAXI@Z
	DD	FLAT:__purecall
	DD	FLAT:__purecall
CONST	ENDS
;	COMDAT ??_7i3ElementBase@@6B@
CONST	SEGMENT
??_7i3ElementBase@@6B@ DD FLAT:??_R4i3ElementBase@@6B@	; i3ElementBase::`vftable'
	DD	FLAT:?GetMeta@i3ElementBase@@UAEPAVi3ClassMeta@@XZ
	DD	FLAT:??_Ei3ElementBase@@UAEPAXI@Z
	DD	FLAT:?CopyTo@i3ElementBase@@UAEXPAV1@W4I3_COPY_METHOD@@@Z
CONST	ENDS
;	COMDAT ??_7i3ClassMeta@@6B@
CONST	SEGMENT
??_7i3ClassMeta@@6B@ DD FLAT:??_R4i3ClassMeta@@6B@	; i3ClassMeta::`vftable'
	DD	FLAT:??_Ei3ClassMeta@@UAEPAXI@Z
	DD	FLAT:?CreateInstance@i3ClassMeta@@UAEPAVi3ElementBase@@W4I3_CLASSMETA_TYPE@@@Z
	DD	FLAT:?BindInstance@i3ClassMeta@@UAEPAVi3ElementBase@@PAXW4I3_CLASSMETA_TYPE@@@Z
CONST	ENDS
;	COMDAT xdata$x
xdata$x	SEGMENT
__unwindtable$?BindInstance@?$i3MetaTemplate@Vi3NetworkSession@@@@UAEPAVi3ElementBase@@PAXW4I3_CLASSMETA_TYPE@@@Z DD 0ffffffffH
	DD	FLAT:__unwindfunclet$?BindInstance@?$i3MetaTemplate@Vi3NetworkSession@@@@UAEPAVi3ElementBase@@PAXW4I3_CLASSMETA_TYPE@@@Z$0
__ehfuncinfo$?BindInstance@?$i3MetaTemplate@Vi3NetworkSession@@@@UAEPAVi3ElementBase@@PAXW4I3_CLASSMETA_TYPE@@@Z DD 019930522H
	DD	01H
	DD	FLAT:__unwindtable$?BindInstance@?$i3MetaTemplate@Vi3NetworkSession@@@@UAEPAVi3ElementBase@@PAXW4I3_CLASSMETA_TYPE@@@Z
	DD	2 DUP(00H)
	DD	2 DUP(00H)
	DD	00H
	DD	01H
xdata$x	ENDS
;	COMDAT xdata$x
xdata$x	SEGMENT
__unwindtable$?CreateInstance@?$i3MetaTemplate@Vi3NetworkSession@@@@UAEPAVi3ElementBase@@W4I3_CLASSMETA_TYPE@@@Z DD 0ffffffffH
	DD	FLAT:__unwindfunclet$?CreateInstance@?$i3MetaTemplate@Vi3NetworkSession@@@@UAEPAVi3ElementBase@@W4I3_CLASSMETA_TYPE@@@Z$0
__ehfuncinfo$?CreateInstance@?$i3MetaTemplate@Vi3NetworkSession@@@@UAEPAVi3ElementBase@@W4I3_CLASSMETA_TYPE@@@Z DD 019930522H
	DD	01H
	DD	FLAT:__unwindtable$?CreateInstance@?$i3MetaTemplate@Vi3NetworkSession@@@@UAEPAVi3ElementBase@@W4I3_CLASSMETA_TYPE@@@Z
	DD	2 DUP(00H)
	DD	2 DUP(00H)
	DD	00H
	DD	01H
xdata$x	ENDS
;	COMDAT xdata$x
xdata$x	SEGMENT
__ehfuncinfo$??_Ei3Tcp@@UAEPAXI@Z DD 019930522H
	DD	00H
	DD	00H
	DD	2 DUP(00H)
	DD	2 DUP(00H)
	DD	00H
	DD	05H
xdata$x	ENDS
;	COMDAT xdata$x
xdata$x	SEGMENT
__ehfuncinfo$??_Ei3Udp@@UAEPAXI@Z DD 019930522H
	DD	00H
	DD	00H
	DD	2 DUP(00H)
	DD	2 DUP(00H)
	DD	00H
	DD	05H
xdata$x	ENDS
;	COMDAT xdata$x
xdata$x	SEGMENT
__ehfuncinfo$??_Ei3NetworkPacket@@UAEPAXI@Z DD 019930522H
	DD	00H
	DD	00H
	DD	2 DUP(00H)
	DD	2 DUP(00H)
	DD	00H
	DD	05H
xdata$x	ENDS
;	COMDAT xdata$x
xdata$x	SEGMENT
__unwindtable$??_Ei3NetworkSession@@UAEPAXI@Z DD 0ffffffffH
	DD	FLAT:___std_terminate
__ehfuncinfo$??_Ei3NetworkSession@@UAEPAXI@Z DD 019930522H
	DD	01H
	DD	FLAT:__unwindtable$??_Ei3NetworkSession@@UAEPAXI@Z
	DD	2 DUP(00H)
	DD	2 DUP(00H)
	DD	00H
	DD	05H
xdata$x	ENDS
;	COMDAT xdata$x
xdata$x	SEGMENT
__unwindtable$??_Gi3NetworkSession@@UAEPAXI@Z DD 0ffffffffH
	DD	FLAT:___std_terminate
__ehfuncinfo$??_Gi3NetworkSession@@UAEPAXI@Z DD 019930522H
	DD	01H
	DD	FLAT:__unwindtable$??_Gi3NetworkSession@@UAEPAXI@Z
	DD	2 DUP(00H)
	DD	2 DUP(00H)
	DD	00H
	DD	05H
xdata$x	ENDS
;	COMDAT voltbl
voltbl	SEGMENT
_volmd	DB	020H
voltbl	ENDS
;	COMDAT voltbl
voltbl	SEGMENT
_volmd	DB	020H
voltbl	ENDS
;	COMDAT voltbl
voltbl	SEGMENT
_volmd	DB	024H
voltbl	ENDS
;	COMDAT xdata$x
xdata$x	SEGMENT
__ehfuncinfo$??1i3NetworkSession@@UAE@XZ DD 019930522H
	DD	00H
	DD	00H
	DD	2 DUP(00H)
	DD	2 DUP(00H)
	DD	00H
	DD	05H
xdata$x	ENDS
;	COMDAT xdata$x
xdata$x	SEGMENT
__ehfuncinfo$??_Ei3MemoryPool@@UAEPAXI@Z DD 019930522H
	DD	00H
	DD	00H
	DD	2 DUP(00H)
	DD	2 DUP(00H)
	DD	00H
	DD	05H
xdata$x	ENDS
;	COMDAT xdata$x
xdata$x	SEGMENT
__ehfuncinfo$??_Ei3ElementBase@@UAEPAXI@Z DD 019930522H
	DD	00H
	DD	00H
	DD	2 DUP(00H)
	DD	2 DUP(00H)
	DD	00H
	DD	05H
xdata$x	ENDS
;	COMDAT xdata$x
xdata$x	SEGMENT
__ehfuncinfo$??_Ei3ClassMeta@@UAEPAXI@Z DD 019930522H
	DD	00H
	DD	00H
	DD	2 DUP(00H)
	DD	2 DUP(00H)
	DD	00H
	DD	05H
xdata$x	ENDS
;	COMDAT voltbl
voltbl	SEGMENT
_volmd	DB	010H
voltbl	ENDS
;	COMDAT voltbl
voltbl	SEGMENT
_volmd	DB	010H
voltbl	ENDS
; Function compile flags: /Ogtp
;	COMDAT ??__Fs_ClassMetai3NetworkSession@@YAXXZ
text$yd	SEGMENT
??__Fs_ClassMetai3NetworkSession@@YAXXZ PROC		; `dynamic atexit destructor for 's_ClassMetai3NetworkSession'', COMDAT
  00000	b9 00 00 00 00	 mov	 ecx, OFFSET ?s_ClassMetai3NetworkSession@@3V?$i3MetaTemplate@Vi3NetworkSession@@@@A
  00005	e9 00 00 00 00	 jmp	 ??1i3ClassMeta@@UAE@XZ	; i3ClassMeta::~i3ClassMeta
??__Fs_ClassMetai3NetworkSession@@YAXXZ ENDP		; `dynamic atexit destructor for 's_ClassMetai3NetworkSession''
text$yd	ENDS
; Function compile flags: /Ogtp
; File E:\Proyectos\JuegosOnlineproyectos\PB\pbblow\Piercing Blow Remake\i3Server\src\i3Base\i3NetworkSession.cpp
; File E:\Proyectos\JuegosOnlineproyectos\PB\pbblow\Piercing Blow Remake\i3Server\include\i3Base\i3MetaTemplate.h
; File E:\Proyectos\JuegosOnlineproyectos\PB\pbblow\Piercing Blow Remake\i3Server\src\i3Base\i3NetworkSession.cpp
; File E:\Proyectos\JuegosOnlineproyectos\PB\pbblow\Piercing Blow Remake\i3Server\include\i3Base\i3MetaTemplate.h
; File E:\Proyectos\JuegosOnlineproyectos\PB\pbblow\Piercing Blow Remake\i3Server\src\i3Base\i3NetworkSession.cpp
;	COMDAT ??__Es_ClassMetai3NetworkSession@@YAXXZ
text$di	SEGMENT
??__Es_ClassMetai3NetworkSession@@YAXXZ PROC		; `dynamic initializer for 's_ClassMetai3NetworkSession'', COMDAT
; File E:\Proyectos\JuegosOnlineproyectos\PB\pbblow\Piercing Blow Remake\i3Server\include\i3Base\i3MetaTemplate.h

; 28   : : i3ClassMeta( classSz, pszClassName, pszBaseClassName, type)

  00000	6a 00		 push	 0
  00002	68 00 00 00 00	 push	 OFFSET ??_C@_0O@OCDFBOHM@i3ElementBase@
  00007	68 00 00 00 00	 push	 OFFSET ??_C@_0BB@NJGEPICN@i3NetworkSession@
  0000c	68 8c 23 00 00	 push	 9100			; 0000238cH
  00011	b9 00 00 00 00	 mov	 ecx, OFFSET ?s_ClassMetai3NetworkSession@@3V?$i3MetaTemplate@Vi3NetworkSession@@@@A
  00016	e8 00 00 00 00	 call	 ??0i3ClassMeta@@QAE@IPAD0W4I3_CLASSMETA_TYPE@@@Z ; i3ClassMeta::i3ClassMeta
; File E:\Proyectos\JuegosOnlineproyectos\PB\pbblow\Piercing Blow Remake\i3Server\src\i3Base\i3NetworkSession.cpp

; 8    : I3_CLASS_INSTANCE(i3NetworkSession, i3ElementBase); 

  0001b	68 00 00 00 00	 push	 OFFSET ??__Fs_ClassMetai3NetworkSession@@YAXXZ ; `dynamic atexit destructor for 's_ClassMetai3NetworkSession''
; File E:\Proyectos\JuegosOnlineproyectos\PB\pbblow\Piercing Blow Remake\i3Server\include\i3Base\i3MetaTemplate.h

; 29   : {

  00020	c7 05 00 00 00
	00 00 00 00 00	 mov	 DWORD PTR ?s_ClassMetai3NetworkSession@@3V?$i3MetaTemplate@Vi3NetworkSession@@@@A, OFFSET ??_7?$i3MetaTemplate@Vi3NetworkSession@@@@6B@
; File E:\Proyectos\JuegosOnlineproyectos\PB\pbblow\Piercing Blow Remake\i3Server\src\i3Base\i3NetworkSession.cpp

; 8    : I3_CLASS_INSTANCE(i3NetworkSession, i3ElementBase); 

  0002a	e8 00 00 00 00	 call	 _atexit
  0002f	59		 pop	 ecx
  00030	c3		 ret	 0
??__Es_ClassMetai3NetworkSession@@YAXXZ ENDP		; `dynamic initializer for 's_ClassMetai3NetworkSession''
text$di	ENDS
; Function compile flags: /Ogtp
;	COMDAT ??_G?$i3MetaTemplate@Vi3NetworkSession@@@@UAEPAXI@Z
_TEXT	SEGMENT
___flags$ = 8						; size = 4
??_G?$i3MetaTemplate@Vi3NetworkSession@@@@UAEPAXI@Z PROC ; i3MetaTemplate<i3NetworkSession>::`scalar deleting destructor', COMDAT
; _this$ = ecx
  00000	55		 push	 ebp
  00001	8b ec		 mov	 ebp, esp
  00003	56		 push	 esi
  00004	8b f1		 mov	 esi, ecx
  00006	e8 00 00 00 00	 call	 ??1i3ClassMeta@@UAE@XZ	; i3ClassMeta::~i3ClassMeta
  0000b	f6 45 08 01	 test	 BYTE PTR ___flags$[ebp], 1
  0000f	74 0b		 je	 SHORT $LN10@scalar
  00011	6a 38		 push	 56			; 00000038H
  00013	56		 push	 esi
  00014	e8 00 00 00 00	 call	 ??3@YAXPAXI@Z		; operator delete
  00019	83 c4 08	 add	 esp, 8
$LN10@scalar:
  0001c	8b c6		 mov	 eax, esi
  0001e	5e		 pop	 esi
  0001f	5d		 pop	 ebp
  00020	c2 04 00	 ret	 4
??_G?$i3MetaTemplate@Vi3NetworkSession@@@@UAEPAXI@Z ENDP ; i3MetaTemplate<i3NetworkSession>::`scalar deleting destructor'
_TEXT	ENDS
; Function compile flags: /Ogtp
; File E:\Proyectos\JuegosOnlineproyectos\PB\pbblow\Piercing Blow Remake\i3Server\include\i3Base\i3MetaTemplate.h
;	COMDAT ?BindInstance@?$i3MetaTemplate@Vi3NetworkSession@@@@UAEPAVi3ElementBase@@PAXW4I3_CLASSMETA_TYPE@@@Z
_TEXT	SEGMENT
__$EHRec$ = -12						; size = 12
_pBuf$ = 8						; size = 4
_type$ = 12						; size = 4
$T2 = 12						; size = 4
?BindInstance@?$i3MetaTemplate@Vi3NetworkSession@@@@UAEPAVi3ElementBase@@PAXW4I3_CLASSMETA_TYPE@@@Z PROC ; i3MetaTemplate<i3NetworkSession>::BindInstance, COMDAT
; _this$ = ecx

; 129  : 	{

  00000	55		 push	 ebp
  00001	8b ec		 mov	 ebp, esp
  00003	6a ff		 push	 -1
  00005	68 00 00 00 00	 push	 __ehhandler$?BindInstance@?$i3MetaTemplate@Vi3NetworkSession@@@@UAEPAVi3ElementBase@@PAXW4I3_CLASSMETA_TYPE@@@Z
  0000a	64 a1 00 00 00
	00		 mov	 eax, DWORD PTR fs:0
  00010	50		 push	 eax
  00011	a1 00 00 00 00	 mov	 eax, DWORD PTR ___security_cookie
  00016	33 c5		 xor	 eax, ebp
  00018	50		 push	 eax
  00019	8d 45 f4	 lea	 eax, DWORD PTR __$EHRec$[ebp]
  0001c	64 a3 00 00 00
	00		 mov	 DWORD PTR fs:0, eax

; 130  : 		if( m_ProxyCount > 0)

  00022	83 79 30 00	 cmp	 DWORD PTR [ecx+48], 0
  00026	7e 25		 jle	 SHORT $LN2@BindInstan

; 131  : 		{
; 132  : 			i3ClassMeta * pMeta = GetConcreteClass( type);

  00028	ff 75 0c	 push	 DWORD PTR _type$[ebp]
  0002b	e8 00 00 00 00	 call	 ?GetConcreteClass@i3ClassMeta@@QAEPAV1@W4I3_CLASSMETA_TYPE@@@Z ; i3ClassMeta::GetConcreteClass

; 133  : 
; 134  : 			return pMeta->BindInstance( pBuf, I3_CLASSMETA_TYPE_GENERAL);

  00030	6a 00		 push	 0
  00032	ff 75 08	 push	 DWORD PTR _pBuf$[ebp]
  00035	8b c8		 mov	 ecx, eax
  00037	8b 10		 mov	 edx, DWORD PTR [eax]
  00039	ff 52 08	 call	 DWORD PTR [edx+8]

; 142  : 			#endif
; 143  : 		}
; 144  : 	}

  0003c	8b 4d f4	 mov	 ecx, DWORD PTR __$EHRec$[ebp]
  0003f	64 89 0d 00 00
	00 00		 mov	 DWORD PTR fs:0, ecx
  00046	59		 pop	 ecx
  00047	8b e5		 mov	 esp, ebp
  00049	5d		 pop	 ebp
  0004a	c2 08 00	 ret	 8
$LN2@BindInstan:

; 135  : 		}
; 136  : 		else
; 137  : 		{
; 138  : 			#if defined( I3_DEBUG)
; 139  : 				return (i3ElementBase *) new( pBuf ) T;
; 140  : 			#else
; 141  : 				return (i3ElementBase *) new( pBuf ) T;

  0004d	ff 75 08	 push	 DWORD PTR _pBuf$[ebp]
  00050	68 8c 23 00 00	 push	 9100			; 0000238cH
  00055	e8 00 00 00 00	 call	 ??2i3ElementBase@@SAPAXIPAX@Z ; i3ElementBase::operator new
  0005a	83 c4 08	 add	 esp, 8
  0005d	89 45 0c	 mov	 DWORD PTR $T2[ebp], eax
  00060	c7 45 fc 00 00
	00 00		 mov	 DWORD PTR __$EHRec$[ebp+8], 0
  00067	85 c0		 test	 eax, eax
  00069	74 18		 je	 SHORT $LN5@BindInstan
  0006b	8b c8		 mov	 ecx, eax
  0006d	e8 00 00 00 00	 call	 ??0i3NetworkSession@@QAE@XZ ; i3NetworkSession::i3NetworkSession

; 142  : 			#endif
; 143  : 		}
; 144  : 	}

  00072	8b 4d f4	 mov	 ecx, DWORD PTR __$EHRec$[ebp]
  00075	64 89 0d 00 00
	00 00		 mov	 DWORD PTR fs:0, ecx
  0007c	59		 pop	 ecx
  0007d	8b e5		 mov	 esp, ebp
  0007f	5d		 pop	 ebp
  00080	c2 08 00	 ret	 8
$LN5@BindInstan:

; 135  : 		}
; 136  : 		else
; 137  : 		{
; 138  : 			#if defined( I3_DEBUG)
; 139  : 				return (i3ElementBase *) new( pBuf ) T;
; 140  : 			#else
; 141  : 				return (i3ElementBase *) new( pBuf ) T;

  00083	33 c0		 xor	 eax, eax

; 142  : 			#endif
; 143  : 		}
; 144  : 	}

  00085	8b 4d f4	 mov	 ecx, DWORD PTR __$EHRec$[ebp]
  00088	64 89 0d 00 00
	00 00		 mov	 DWORD PTR fs:0, ecx
  0008f	59		 pop	 ecx
  00090	8b e5		 mov	 esp, ebp
  00092	5d		 pop	 ebp
  00093	c2 08 00	 ret	 8
_TEXT	ENDS
;	COMDAT text$x
text$x	SEGMENT
__unwindfunclet$?BindInstance@?$i3MetaTemplate@Vi3NetworkSession@@@@UAEPAVi3ElementBase@@PAXW4I3_CLASSMETA_TYPE@@@Z$0:
  00000	8b 45 08	 mov	 eax, DWORD PTR _pBuf$[ebp]
  00003	50		 push	 eax
  00004	8b 45 0c	 mov	 eax, DWORD PTR $T2[ebp]
  00007	50		 push	 eax
  00008	e8 00 00 00 00	 call	 ??3i3ElementBase@@SAXPAX0@Z ; i3ElementBase::operator delete
  0000d	83 c4 08	 add	 esp, 8
  00010	c3		 ret	 0
  00011	cc		 int	 3
  00012	cc		 int	 3
  00013	cc		 int	 3
  00014	cc		 int	 3
  00015	cc		 int	 3
__ehhandler$?BindInstance@?$i3MetaTemplate@Vi3NetworkSession@@@@UAEPAVi3ElementBase@@PAXW4I3_CLASSMETA_TYPE@@@Z:
  00016	90		 npad	 1
  00017	90		 npad	 1
  00018	8b 54 24 08	 mov	 edx, DWORD PTR [esp+8]
  0001c	8d 42 0c	 lea	 eax, DWORD PTR [edx+12]
  0001f	8b 4a fc	 mov	 ecx, DWORD PTR [edx-4]
  00022	33 c8		 xor	 ecx, eax
  00024	e8 00 00 00 00	 call	 @__security_check_cookie@4
  00029	b8 00 00 00 00	 mov	 eax, OFFSET __ehfuncinfo$?BindInstance@?$i3MetaTemplate@Vi3NetworkSession@@@@UAEPAVi3ElementBase@@PAXW4I3_CLASSMETA_TYPE@@@Z
  0002e	e9 00 00 00 00	 jmp	 ___CxxFrameHandler3
text$x	ENDS
?BindInstance@?$i3MetaTemplate@Vi3NetworkSession@@@@UAEPAVi3ElementBase@@PAXW4I3_CLASSMETA_TYPE@@@Z ENDP ; i3MetaTemplate<i3NetworkSession>::BindInstance
; Function compile flags: /Ogtp
; File E:\Proyectos\JuegosOnlineproyectos\PB\pbblow\Piercing Blow Remake\i3Server\include\i3Base\i3MetaTemplate.h
; File E:\Proyectos\JuegosOnlineproyectos\PB\pbblow\Piercing Blow Remake\i3Server\include\i3Base\i3ElementBase.h
; File E:\Proyectos\JuegosOnlineproyectos\PB\pbblow\Piercing Blow Remake\i3Server\include\i3Base\i3MetaTemplate.h
; File E:\Proyectos\JuegosOnlineproyectos\PB\pbblow\Piercing Blow Remake\i3Server\include\i3Base\i3ElementBase.h
; File E:\Proyectos\JuegosOnlineproyectos\PB\pbblow\Piercing Blow Remake\i3Server\include\i3Base\i3MetaTemplate.h
;	COMDAT ?CreateInstance@?$i3MetaTemplate@Vi3NetworkSession@@@@UAEPAVi3ElementBase@@W4I3_CLASSMETA_TYPE@@@Z
_TEXT	SEGMENT
__$EHRec$ = -12						; size = 12
_type$ = 8						; size = 4
$T2 = 8							; size = 4
?CreateInstance@?$i3MetaTemplate@Vi3NetworkSession@@@@UAEPAVi3ElementBase@@W4I3_CLASSMETA_TYPE@@@Z PROC ; i3MetaTemplate<i3NetworkSession>::CreateInstance, COMDAT
; _this$ = ecx

; 97   : 	{

  00000	55		 push	 ebp
  00001	8b ec		 mov	 ebp, esp
  00003	6a ff		 push	 -1
  00005	68 00 00 00 00	 push	 __ehhandler$?CreateInstance@?$i3MetaTemplate@Vi3NetworkSession@@@@UAEPAVi3ElementBase@@W4I3_CLASSMETA_TYPE@@@Z
  0000a	64 a1 00 00 00
	00		 mov	 eax, DWORD PTR fs:0
  00010	50		 push	 eax
  00011	56		 push	 esi
  00012	57		 push	 edi
  00013	a1 00 00 00 00	 mov	 eax, DWORD PTR ___security_cookie
  00018	33 c5		 xor	 eax, ebp
  0001a	50		 push	 eax
  0001b	8d 45 f4	 lea	 eax, DWORD PTR __$EHRec$[ebp]
  0001e	64 a3 00 00 00
	00		 mov	 DWORD PTR fs:0, eax
  00024	8b f9		 mov	 edi, ecx

; 98   : 		if( m_ProxyCount > 0)

  00026	83 7f 30 00	 cmp	 DWORD PTR [edi+48], 0
  0002a	7e 28		 jle	 SHORT $LN3@CreateInst

; 99   : 		{
; 100  : 			i3ClassMeta * pMeta = GetConcreteClass( type);

  0002c	ff 75 08	 push	 DWORD PTR _type$[ebp]
  0002f	e8 00 00 00 00	 call	 ?GetConcreteClass@i3ClassMeta@@QAEPAV1@W4I3_CLASSMETA_TYPE@@@Z ; i3ClassMeta::GetConcreteClass

; 101  : 
; 102  : 			if( pMeta != NULL)

  00034	85 c0		 test	 eax, eax
  00036	74 1c		 je	 SHORT $LN3@CreateInst

; 103  : 				return pMeta->CreateInstance( I3_CLASSMETA_TYPE_GENERAL);

  00038	8b 10		 mov	 edx, DWORD PTR [eax]
  0003a	8b c8		 mov	 ecx, eax
  0003c	6a 00		 push	 0
  0003e	ff 52 04	 call	 DWORD PTR [edx+4]

; 125  : 	}

  00041	8b 4d f4	 mov	 ecx, DWORD PTR __$EHRec$[ebp]
  00044	64 89 0d 00 00
	00 00		 mov	 DWORD PTR fs:0, ecx
  0004b	59		 pop	 ecx
  0004c	5f		 pop	 edi
  0004d	5e		 pop	 esi
  0004e	8b e5		 mov	 esp, ebp
  00050	5d		 pop	 ebp
  00051	c2 04 00	 ret	 4
$LN3@CreateInst:

; 104  : 		}
; 105  : 
; 106  : 		{
; 107  : 			if( m_pPool == NULL)

  00054	8b 4f 34	 mov	 ecx, DWORD PTR [edi+52]
  00057	85 c9		 test	 ecx, ecx
  00059	75 4a		 jne	 SHORT $LN4@CreateInst

; 108  : 			{
; 109  : 				#if defined( I3_DEBUG)
; 110  : 					return (i3ElementBase *) new T;
; 111  : 				#else
; 112  : 					return (i3ElementBase *) new T;

  0005b	68 8c 23 00 00	 push	 9100			; 0000238cH
  00060	e8 00 00 00 00	 call	 ??2i3ElementBase@@SAPAXI@Z ; i3ElementBase::operator new
  00065	83 c4 04	 add	 esp, 4
  00068	89 45 08	 mov	 DWORD PTR $T2[ebp], eax
  0006b	c7 45 fc 00 00
	00 00		 mov	 DWORD PTR __$EHRec$[ebp+8], 0
  00072	85 c0		 test	 eax, eax
  00074	74 1a		 je	 SHORT $LN7@CreateInst
  00076	8b c8		 mov	 ecx, eax
  00078	e8 00 00 00 00	 call	 ??0i3NetworkSession@@QAE@XZ ; i3NetworkSession::i3NetworkSession

; 125  : 	}

  0007d	8b 4d f4	 mov	 ecx, DWORD PTR __$EHRec$[ebp]
  00080	64 89 0d 00 00
	00 00		 mov	 DWORD PTR fs:0, ecx
  00087	59		 pop	 ecx
  00088	5f		 pop	 edi
  00089	5e		 pop	 esi
  0008a	8b e5		 mov	 esp, ebp
  0008c	5d		 pop	 ebp
  0008d	c2 04 00	 ret	 4
$LN7@CreateInst:

; 108  : 			{
; 109  : 				#if defined( I3_DEBUG)
; 110  : 					return (i3ElementBase *) new T;
; 111  : 				#else
; 112  : 					return (i3ElementBase *) new T;

  00090	33 c0		 xor	 eax, eax

; 125  : 	}

  00092	8b 4d f4	 mov	 ecx, DWORD PTR __$EHRec$[ebp]
  00095	64 89 0d 00 00
	00 00		 mov	 DWORD PTR fs:0, ecx
  0009c	59		 pop	 ecx
  0009d	5f		 pop	 edi
  0009e	5e		 pop	 esi
  0009f	8b e5		 mov	 esp, ebp
  000a1	5d		 pop	 ebp
  000a2	c2 04 00	 ret	 4
$LN4@CreateInst:

; 113  : 				#endif
; 114  : 			}
; 115  : 			else
; 116  : 			{
; 117  : 				i3ElementBase * p = (i3ElementBase *) m_pPool->Alloc( sizeof(T), NULL, 0);

  000a5	8b 01		 mov	 eax, DWORD PTR [ecx]
  000a7	6a 00		 push	 0
  000a9	6a 00		 push	 0
  000ab	68 8c 23 00 00	 push	 9100			; 0000238cH
  000b0	ff 50 04	 call	 DWORD PTR [eax+4]

; 118  : 	
; 119  : 				BindInstance( p, type);

  000b3	ff 75 08	 push	 DWORD PTR _type$[ebp]
  000b6	8b 17		 mov	 edx, DWORD PTR [edi]
  000b8	8b f0		 mov	 esi, eax
  000ba	56		 push	 esi
  000bb	8b cf		 mov	 ecx, edi
  000bd	ff 52 08	 call	 DWORD PTR [edx+8]
; File E:\Proyectos\JuegosOnlineproyectos\PB\pbblow\Piercing Blow Remake\i3Server\include\i3Base\i3ElementBase.h

; 347  : 	void			__SetMemoryPool( i3MemoryPool * pPool)			{ m_pPool = pPool; }

  000c0	8b 4f 34	 mov	 ecx, DWORD PTR [edi+52]
; File E:\Proyectos\JuegosOnlineproyectos\PB\pbblow\Piercing Blow Remake\i3Server\include\i3Base\i3MetaTemplate.h

; 122  : 				return p;

  000c3	8b c6		 mov	 eax, esi
; File E:\Proyectos\JuegosOnlineproyectos\PB\pbblow\Piercing Blow Remake\i3Server\include\i3Base\i3ElementBase.h

; 347  : 	void			__SetMemoryPool( i3MemoryPool * pPool)			{ m_pPool = pPool; }

  000c5	89 4e 0c	 mov	 DWORD PTR [esi+12], ecx
; File E:\Proyectos\JuegosOnlineproyectos\PB\pbblow\Piercing Blow Remake\i3Server\include\i3Base\i3MetaTemplate.h

; 125  : 	}

  000c8	8b 4d f4	 mov	 ecx, DWORD PTR __$EHRec$[ebp]
  000cb	64 89 0d 00 00
	00 00		 mov	 DWORD PTR fs:0, ecx
  000d2	59		 pop	 ecx
  000d3	5f		 pop	 edi
  000d4	5e		 pop	 esi
  000d5	8b e5		 mov	 esp, ebp
  000d7	5d		 pop	 ebp
  000d8	c2 04 00	 ret	 4
_TEXT	ENDS
;	COMDAT text$x
text$x	SEGMENT
__unwindfunclet$?CreateInstance@?$i3MetaTemplate@Vi3NetworkSession@@@@UAEPAVi3ElementBase@@W4I3_CLASSMETA_TYPE@@@Z$0:
  00000	8b 45 08	 mov	 eax, DWORD PTR $T2[ebp]
  00003	50		 push	 eax
  00004	e8 00 00 00 00	 call	 ??3i3ElementBase@@SAXPAX@Z ; i3ElementBase::operator delete
  00009	59		 pop	 ecx
  0000a	c3		 ret	 0
  0000b	cc		 int	 3
  0000c	cc		 int	 3
  0000d	cc		 int	 3
  0000e	cc		 int	 3
  0000f	cc		 int	 3
__ehhandler$?CreateInstance@?$i3MetaTemplate@Vi3NetworkSession@@@@UAEPAVi3ElementBase@@W4I3_CLASSMETA_TYPE@@@Z:
  00010	90		 npad	 1
  00011	90		 npad	 1
  00012	8b 54 24 08	 mov	 edx, DWORD PTR [esp+8]
  00016	8d 42 0c	 lea	 eax, DWORD PTR [edx+12]
  00019	8b 4a f4	 mov	 ecx, DWORD PTR [edx-12]
  0001c	33 c8		 xor	 ecx, eax
  0001e	e8 00 00 00 00	 call	 @__security_check_cookie@4
  00023	b8 00 00 00 00	 mov	 eax, OFFSET __ehfuncinfo$?CreateInstance@?$i3MetaTemplate@Vi3NetworkSession@@@@UAEPAVi3ElementBase@@W4I3_CLASSMETA_TYPE@@@Z
  00028	e9 00 00 00 00	 jmp	 ___CxxFrameHandler3
text$x	ENDS
?CreateInstance@?$i3MetaTemplate@Vi3NetworkSession@@@@UAEPAVi3ElementBase@@W4I3_CLASSMETA_TYPE@@@Z ENDP ; i3MetaTemplate<i3NetworkSession>::CreateInstance
; Function compile flags: /Ogtp
; File E:\Proyectos\JuegosOnlineproyectos\PB\pbblow\Piercing Blow Remake\i3Server\include\i3Base\i3MetaTemplate.h
;	COMDAT ??0?$i3MetaTemplate@Vi3NetworkSession@@@@QAE@IPAD0W4I3_CLASSMETA_TYPE@@@Z
_TEXT	SEGMENT
_this$ = -4						; size = 4
_classSz$ = 8						; size = 4
_pszClassName$ = 12					; size = 4
_pszBaseClassName$ = 16					; size = 4
_type$ = 20						; size = 4
??0?$i3MetaTemplate@Vi3NetworkSession@@@@QAE@IPAD0W4I3_CLASSMETA_TYPE@@@Z PROC ; i3MetaTemplate<i3NetworkSession>::i3MetaTemplate<i3NetworkSession>, COMDAT
; _this$ = ecx

; 29   : {

  00000	55		 push	 ebp
  00001	8b ec		 mov	 ebp, esp
  00003	51		 push	 ecx
  00004	56		 push	 esi
  00005	ff 75 14	 push	 DWORD PTR _type$[ebp]
  00008	8b f1		 mov	 esi, ecx
  0000a	ff 75 10	 push	 DWORD PTR _pszBaseClassName$[ebp]
  0000d	89 75 fc	 mov	 DWORD PTR _this$[ebp], esi
  00010	ff 75 0c	 push	 DWORD PTR _pszClassName$[ebp]
  00013	ff 75 08	 push	 DWORD PTR _classSz$[ebp]
  00016	e8 00 00 00 00	 call	 ??0i3ClassMeta@@QAE@IPAD0W4I3_CLASSMETA_TYPE@@@Z ; i3ClassMeta::i3ClassMeta
  0001b	c7 06 00 00 00
	00		 mov	 DWORD PTR [esi], OFFSET ??_7?$i3MetaTemplate@Vi3NetworkSession@@@@6B@

; 30   : }

  00021	8b c6		 mov	 eax, esi
  00023	5e		 pop	 esi
  00024	8b e5		 mov	 esp, ebp
  00026	5d		 pop	 ebp
  00027	c2 10 00	 ret	 16			; 00000010H
??0?$i3MetaTemplate@Vi3NetworkSession@@@@QAE@IPAD0W4I3_CLASSMETA_TYPE@@@Z ENDP ; i3MetaTemplate<i3NetworkSession>::i3MetaTemplate<i3NetworkSession>
_TEXT	ENDS
; Function compile flags: /Ogtp
; File E:\Proyectos\JuegosOnlineproyectos\PB\pbblow\Piercing Blow Remake\i3Server\src\i3Base\i3NetworkSession.cpp
;	COMDAT ??_Ei3Tcp@@UAEPAXI@Z
_TEXT	SEGMENT
__$EHRec$ = -12						; size = 12
___flags$ = 8						; size = 4
??_Ei3Tcp@@UAEPAXI@Z PROC				; i3Tcp::`vector deleting destructor', COMDAT
; _this$ = ecx
  00000	55		 push	 ebp
  00001	8b ec		 mov	 ebp, esp
  00003	6a ff		 push	 -1
  00005	68 00 00 00 00	 push	 __ehhandler$??_Ei3Tcp@@UAEPAXI@Z
  0000a	64 a1 00 00 00
	00		 mov	 eax, DWORD PTR fs:0
  00010	50		 push	 eax
  00011	53		 push	 ebx
  00012	56		 push	 esi
  00013	57		 push	 edi
  00014	a1 00 00 00 00	 mov	 eax, DWORD PTR ___security_cookie
  00019	33 c5		 xor	 eax, ebp
  0001b	50		 push	 eax
  0001c	8d 45 f4	 lea	 eax, DWORD PTR __$EHRec$[ebp]
  0001f	64 a3 00 00 00
	00		 mov	 DWORD PTR fs:0, eax
  00025	8b f1		 mov	 esi, ecx
  00027	8b 5d 08	 mov	 ebx, DWORD PTR ___flags$[ebp]
  0002a	8b fb		 mov	 edi, ebx
  0002c	83 e7 01	 and	 edi, 1
  0002f	f6 c3 02	 test	 bl, 2
  00032	74 43		 je	 SHORT $LN2@vector
  00034	68 00 00 00 00	 push	 OFFSET ??1i3Tcp@@UAE@XZ	; i3Tcp::~i3Tcp
  00039	ff 76 fc	 push	 DWORD PTR [esi-4]
  0003c	8d 5e fc	 lea	 ebx, DWORD PTR [esi-4]
  0003f	6a 14		 push	 20			; 00000014H
  00041	56		 push	 esi
  00042	e8 00 00 00 00	 call	 ??_M@YGXPAXIIP6EX0@Z@Z
  00047	85 ff		 test	 edi, edi
  00049	74 16		 je	 SHORT $LN3@vector
  0004b	8b 0b		 mov	 ecx, DWORD PTR [ebx]
  0004d	8d 0c 89	 lea	 ecx, DWORD PTR [ecx+ecx*4]
  00050	8d 0c 8d 04 00
	00 00		 lea	 ecx, DWORD PTR [ecx*4+4]
  00057	51		 push	 ecx
  00058	53		 push	 ebx
  00059	e8 00 00 00 00	 call	 ??_V@YAXPAXI@Z		; operator delete[]
  0005e	83 c4 08	 add	 esp, 8
$LN3@vector:
  00061	8b c3		 mov	 eax, ebx
  00063	8b 4d f4	 mov	 ecx, DWORD PTR __$EHRec$[ebp]
  00066	64 89 0d 00 00
	00 00		 mov	 DWORD PTR fs:0, ecx
  0006d	59		 pop	 ecx
  0006e	5f		 pop	 edi
  0006f	5e		 pop	 esi
  00070	5b		 pop	 ebx
  00071	8b e5		 mov	 esp, ebp
  00073	5d		 pop	 ebp
  00074	c2 04 00	 ret	 4
$LN2@vector:
  00077	e8 00 00 00 00	 call	 ??1i3Tcp@@UAE@XZ	; i3Tcp::~i3Tcp
  0007c	85 ff		 test	 edi, edi
  0007e	74 1b		 je	 SHORT $LN6@vector
  00080	f6 c3 04	 test	 bl, 4
  00083	75 0b		 jne	 SHORT $LN5@vector
  00085	56		 push	 esi
  00086	e8 00 00 00 00	 call	 ??3i3ElementBase@@SAXPAX@Z ; i3ElementBase::operator delete
  0008b	83 c4 04	 add	 esp, 4
  0008e	eb 0b		 jmp	 SHORT $LN6@vector
$LN5@vector:

  00090	6a 14		 push	 20			; 00000014H
  00092	56		 push	 esi
  00093	e8 00 00 00 00	 call	 ??3@YAXPAXI@Z		; operator delete
  00098	83 c4 08	 add	 esp, 8
$LN6@vector:
  0009b	8b c6		 mov	 eax, esi
  0009d	8b 4d f4	 mov	 ecx, DWORD PTR __$EHRec$[ebp]
  000a0	64 89 0d 00 00
	00 00		 mov	 DWORD PTR fs:0, ecx
  000a7	59		 pop	 ecx
  000a8	5f		 pop	 edi
  000a9	5e		 pop	 esi
  000aa	5b		 pop	 ebx
  000ab	8b e5		 mov	 esp, ebp
  000ad	5d		 pop	 ebp
  000ae	c2 04 00	 ret	 4
  000b1	cc		 int	 3
  000b2	cc		 int	 3
  000b3	cc		 int	 3
  000b4	cc		 int	 3
  000b5	cc		 int	 3
_TEXT	ENDS
;	COMDAT text$x
text$x	SEGMENT
__ehhandler$??_Ei3Tcp@@UAEPAXI@Z:
  00000	90		 npad	 1
  00001	90		 npad	 1
  00002	8b 54 24 08	 mov	 edx, DWORD PTR [esp+8]
  00006	8d 42 0c	 lea	 eax, DWORD PTR [edx+12]
  00009	8b 4a f0	 mov	 ecx, DWORD PTR [edx-16]
  0000c	33 c8		 xor	 ecx, eax
  0000e	e8 00 00 00 00	 call	 @__security_check_cookie@4
  00013	b8 00 00 00 00	 mov	 eax, OFFSET __ehfuncinfo$??_Ei3Tcp@@UAEPAXI@Z
  00018	e9 00 00 00 00	 jmp	 ___CxxFrameHandler3
text$x	ENDS
??_Ei3Tcp@@UAEPAXI@Z ENDP				; i3Tcp::`vector deleting destructor'
; Function compile flags: /Ogtp
; File E:\Proyectos\JuegosOnlineproyectos\PB\pbblow\Piercing Blow Remake\i3Server\src\i3Base\i3NetworkSession.cpp
;	COMDAT ??_Gi3Tcp@@UAEPAXI@Z
_TEXT	SEGMENT
___flags$ = 8						; size = 4
??_Gi3Tcp@@UAEPAXI@Z PROC				; i3Tcp::`scalar deleting destructor', COMDAT
; _this$ = ecx
  00000	55		 push	 ebp
  00001	8b ec		 mov	 ebp, esp
  00003	56		 push	 esi
  00004	8b f1		 mov	 esi, ecx
  00006	e8 00 00 00 00	 call	 ??1i3Tcp@@UAE@XZ	; i3Tcp::~i3Tcp
  0000b	8b 45 08	 mov	 eax, DWORD PTR ___flags$[ebp]
  0000e	a8 01		 test	 al, 1
  00010	74 1f		 je	 SHORT $LN10@scalar
  00012	a8 04		 test	 al, 4
  00014	75 10		 jne	 SHORT $LN3@scalar
  00016	56		 push	 esi
  00017	e8 00 00 00 00	 call	 ??3i3ElementBase@@SAXPAX@Z ; i3ElementBase::operator delete
  0001c	83 c4 04	 add	 esp, 4
  0001f	8b c6		 mov	 eax, esi
  00021	5e		 pop	 esi
  00022	5d		 pop	 ebp
  00023	c2 04 00	 ret	 4
$LN3@scalar:

  00026	6a 14		 push	 20			; 00000014H
  00028	56		 push	 esi
  00029	e8 00 00 00 00	 call	 ??3@YAXPAXI@Z		; operator delete
  0002e	83 c4 08	 add	 esp, 8
$LN10@scalar:
  00031	8b c6		 mov	 eax, esi
  00033	5e		 pop	 esi
  00034	5d		 pop	 ebp
  00035	c2 04 00	 ret	 4
??_Gi3Tcp@@UAEPAXI@Z ENDP				; i3Tcp::`scalar deleting destructor'
_TEXT	ENDS
; Function compile flags: /Ogtp
;	COMDAT ??4i3Tcp@@QAEAAV0@ABV0@@Z
_TEXT	SEGMENT
___that$ = 8						; size = 4
??4i3Tcp@@QAEAAV0@ABV0@@Z PROC				; i3Tcp::operator=, COMDAT
; _this$ = ecx
  00000	55		 push	 ebp
  00001	8b ec		 mov	 ebp, esp
  00003	8b 55 08	 mov	 edx, DWORD PTR ___that$[ebp]
  00006	8b 42 04	 mov	 eax, DWORD PTR [edx+4]
  00009	89 41 04	 mov	 DWORD PTR [ecx+4], eax
  0000c	8b 42 08	 mov	 eax, DWORD PTR [edx+8]
  0000f	89 41 08	 mov	 DWORD PTR [ecx+8], eax
  00012	8b 42 0c	 mov	 eax, DWORD PTR [edx+12]
  00015	89 41 0c	 mov	 DWORD PTR [ecx+12], eax
  00018	8b 42 10	 mov	 eax, DWORD PTR [edx+16]
  0001b	89 41 10	 mov	 DWORD PTR [ecx+16], eax
  0001e	8b c1		 mov	 eax, ecx
  00020	5d		 pop	 ebp
  00021	c2 04 00	 ret	 4
??4i3Tcp@@QAEAAV0@ABV0@@Z ENDP				; i3Tcp::operator=
_TEXT	ENDS
; Function compile flags: /Ogtp
;	COMDAT ??0i3Tcp@@QAE@ABV0@@Z
_TEXT	SEGMENT
___that$ = 8						; size = 4
??0i3Tcp@@QAE@ABV0@@Z PROC				; i3Tcp::i3Tcp, COMDAT
; _this$ = ecx
  00000	55		 push	 ebp
  00001	8b ec		 mov	 ebp, esp
  00003	8b 55 08	 mov	 edx, DWORD PTR ___that$[ebp]
  00006	c7 01 00 00 00
	00		 mov	 DWORD PTR [ecx], OFFSET ??_7i3ElementBase@@6B@
  0000c	8b 42 04	 mov	 eax, DWORD PTR [edx+4]
  0000f	89 41 04	 mov	 DWORD PTR [ecx+4], eax
  00012	8b 42 08	 mov	 eax, DWORD PTR [edx+8]
  00015	89 41 08	 mov	 DWORD PTR [ecx+8], eax
  00018	8b 42 0c	 mov	 eax, DWORD PTR [edx+12]
  0001b	89 41 0c	 mov	 DWORD PTR [ecx+12], eax
  0001e	c7 01 00 00 00
	00		 mov	 DWORD PTR [ecx], OFFSET ??_7i3Tcp@@6B@
  00024	8b 42 10	 mov	 eax, DWORD PTR [edx+16]
  00027	89 41 10	 mov	 DWORD PTR [ecx+16], eax
  0002a	8b c1		 mov	 eax, ecx
  0002c	5d		 pop	 ebp
  0002d	c2 04 00	 ret	 4
??0i3Tcp@@QAE@ABV0@@Z ENDP				; i3Tcp::i3Tcp
_TEXT	ENDS
; Function compile flags: /Ogtp
; File E:\Proyectos\JuegosOnlineproyectos\PB\pbblow\Piercing Blow Remake\i3Server\include\i3Base\i3Inet.h
;	COMDAT ?GetClassMeta@i3Tcp@@SAPAVi3ClassMeta@@XZ
_TEXT	SEGMENT
?GetClassMeta@i3Tcp@@SAPAVi3ClassMeta@@XZ PROC		; i3Tcp::GetClassMeta, COMDAT

; 85   : 	I3_CLASS_DEFINE( i3Tcp );

  00000	a1 00 00 00 00	 mov	 eax, DWORD PTR ?s_pClassMetai3Tcp@i3Tcp@@2PAVi3ClassMeta@@A ; i3Tcp::s_pClassMetai3Tcp
  00005	c3		 ret	 0
?GetClassMeta@i3Tcp@@SAPAVi3ClassMeta@@XZ ENDP		; i3Tcp::GetClassMeta
_TEXT	ENDS
; Function compile flags: /Ogtp
; File E:\Proyectos\JuegosOnlineproyectos\PB\pbblow\Piercing Blow Remake\i3Server\src\i3Base\i3NetworkSession.cpp
;	COMDAT ??_Ei3Udp@@UAEPAXI@Z
_TEXT	SEGMENT
__$EHRec$ = -12						; size = 12
___flags$ = 8						; size = 4
??_Ei3Udp@@UAEPAXI@Z PROC				; i3Udp::`vector deleting destructor', COMDAT
; _this$ = ecx
  00000	55		 push	 ebp
  00001	8b ec		 mov	 ebp, esp
  00003	6a ff		 push	 -1
  00005	68 00 00 00 00	 push	 __ehhandler$??_Ei3Udp@@UAEPAXI@Z
  0000a	64 a1 00 00 00
	00		 mov	 eax, DWORD PTR fs:0
  00010	50		 push	 eax
  00011	53		 push	 ebx
  00012	56		 push	 esi
  00013	57		 push	 edi
  00014	a1 00 00 00 00	 mov	 eax, DWORD PTR ___security_cookie
  00019	33 c5		 xor	 eax, ebp
  0001b	50		 push	 eax
  0001c	8d 45 f4	 lea	 eax, DWORD PTR __$EHRec$[ebp]
  0001f	64 a3 00 00 00
	00		 mov	 DWORD PTR fs:0, eax
  00025	8b f1		 mov	 esi, ecx
  00027	8b 5d 08	 mov	 ebx, DWORD PTR ___flags$[ebp]
  0002a	8b fb		 mov	 edi, ebx
  0002c	83 e7 01	 and	 edi, 1
  0002f	f6 c3 02	 test	 bl, 2
  00032	74 43		 je	 SHORT $LN2@vector
  00034	68 00 00 00 00	 push	 OFFSET ??1i3Udp@@UAE@XZ	; i3Udp::~i3Udp
  00039	ff 76 fc	 push	 DWORD PTR [esi-4]
  0003c	8d 5e fc	 lea	 ebx, DWORD PTR [esi-4]
  0003f	6a 14		 push	 20			; 00000014H
  00041	56		 push	 esi
  00042	e8 00 00 00 00	 call	 ??_M@YGXPAXIIP6EX0@Z@Z
  00047	85 ff		 test	 edi, edi
  00049	74 16		 je	 SHORT $LN3@vector
  0004b	8b 0b		 mov	 ecx, DWORD PTR [ebx]
  0004d	8d 0c 89	 lea	 ecx, DWORD PTR [ecx+ecx*4]
  00050	8d 0c 8d 04 00
	00 00		 lea	 ecx, DWORD PTR [ecx*4+4]
  00057	51		 push	 ecx
  00058	53		 push	 ebx
  00059	e8 00 00 00 00	 call	 ??_V@YAXPAXI@Z		; operator delete[]
  0005e	83 c4 08	 add	 esp, 8
$LN3@vector:
  00061	8b c3		 mov	 eax, ebx
  00063	8b 4d f4	 mov	 ecx, DWORD PTR __$EHRec$[ebp]
  00066	64 89 0d 00 00
	00 00		 mov	 DWORD PTR fs:0, ecx
  0006d	59		 pop	 ecx
  0006e	5f		 pop	 edi
  0006f	5e		 pop	 esi
  00070	5b		 pop	 ebx
  00071	8b e5		 mov	 esp, ebp
  00073	5d		 pop	 ebp
  00074	c2 04 00	 ret	 4
$LN2@vector:
  00077	e8 00 00 00 00	 call	 ??1i3Udp@@UAE@XZ	; i3Udp::~i3Udp
  0007c	85 ff		 test	 edi, edi
  0007e	74 1b		 je	 SHORT $LN6@vector
  00080	f6 c3 04	 test	 bl, 4
  00083	75 0b		 jne	 SHORT $LN5@vector
  00085	56		 push	 esi
  00086	e8 00 00 00 00	 call	 ??3i3ElementBase@@SAXPAX@Z ; i3ElementBase::operator delete
  0008b	83 c4 04	 add	 esp, 4
  0008e	eb 0b		 jmp	 SHORT $LN6@vector
$LN5@vector:

  00090	6a 14		 push	 20			; 00000014H
  00092	56		 push	 esi
  00093	e8 00 00 00 00	 call	 ??3@YAXPAXI@Z		; operator delete
  00098	83 c4 08	 add	 esp, 8
$LN6@vector:
  0009b	8b c6		 mov	 eax, esi
  0009d	8b 4d f4	 mov	 ecx, DWORD PTR __$EHRec$[ebp]
  000a0	64 89 0d 00 00
	00 00		 mov	 DWORD PTR fs:0, ecx
  000a7	59		 pop	 ecx
  000a8	5f		 pop	 edi
  000a9	5e		 pop	 esi
  000aa	5b		 pop	 ebx
  000ab	8b e5		 mov	 esp, ebp
  000ad	5d		 pop	 ebp
  000ae	c2 04 00	 ret	 4
  000b1	cc		 int	 3
  000b2	cc		 int	 3
  000b3	cc		 int	 3
  000b4	cc		 int	 3
  000b5	cc		 int	 3
_TEXT	ENDS
;	COMDAT text$x
text$x	SEGMENT
__ehhandler$??_Ei3Udp@@UAEPAXI@Z:
  00000	90		 npad	 1
  00001	90		 npad	 1
  00002	8b 54 24 08	 mov	 edx, DWORD PTR [esp+8]
  00006	8d 42 0c	 lea	 eax, DWORD PTR [edx+12]
  00009	8b 4a f0	 mov	 ecx, DWORD PTR [edx-16]
  0000c	33 c8		 xor	 ecx, eax
  0000e	e8 00 00 00 00	 call	 @__security_check_cookie@4
  00013	b8 00 00 00 00	 mov	 eax, OFFSET __ehfuncinfo$??_Ei3Udp@@UAEPAXI@Z
  00018	e9 00 00 00 00	 jmp	 ___CxxFrameHandler3
text$x	ENDS
??_Ei3Udp@@UAEPAXI@Z ENDP				; i3Udp::`vector deleting destructor'
; Function compile flags: /Ogtp
; File E:\Proyectos\JuegosOnlineproyectos\PB\pbblow\Piercing Blow Remake\i3Server\src\i3Base\i3NetworkSession.cpp
;	COMDAT ??_Gi3Udp@@UAEPAXI@Z
_TEXT	SEGMENT
___flags$ = 8						; size = 4
??_Gi3Udp@@UAEPAXI@Z PROC				; i3Udp::`scalar deleting destructor', COMDAT
; _this$ = ecx
  00000	55		 push	 ebp
  00001	8b ec		 mov	 ebp, esp
  00003	56		 push	 esi
  00004	8b f1		 mov	 esi, ecx
  00006	e8 00 00 00 00	 call	 ??1i3Udp@@UAE@XZ	; i3Udp::~i3Udp
  0000b	8b 45 08	 mov	 eax, DWORD PTR ___flags$[ebp]
  0000e	a8 01		 test	 al, 1
  00010	74 1f		 je	 SHORT $LN10@scalar
  00012	a8 04		 test	 al, 4
  00014	75 10		 jne	 SHORT $LN3@scalar
  00016	56		 push	 esi
  00017	e8 00 00 00 00	 call	 ??3i3ElementBase@@SAXPAX@Z ; i3ElementBase::operator delete
  0001c	83 c4 04	 add	 esp, 4
  0001f	8b c6		 mov	 eax, esi
  00021	5e		 pop	 esi
  00022	5d		 pop	 ebp
  00023	c2 04 00	 ret	 4
$LN3@scalar:

  00026	6a 14		 push	 20			; 00000014H
  00028	56		 push	 esi
  00029	e8 00 00 00 00	 call	 ??3@YAXPAXI@Z		; operator delete
  0002e	83 c4 08	 add	 esp, 8
$LN10@scalar:
  00031	8b c6		 mov	 eax, esi
  00033	5e		 pop	 esi
  00034	5d		 pop	 ebp
  00035	c2 04 00	 ret	 4
??_Gi3Udp@@UAEPAXI@Z ENDP				; i3Udp::`scalar deleting destructor'
_TEXT	ENDS
; Function compile flags: /Ogtp
;	COMDAT ??4i3Udp@@QAEAAV0@ABV0@@Z
_TEXT	SEGMENT
___that$ = 8						; size = 4
??4i3Udp@@QAEAAV0@ABV0@@Z PROC				; i3Udp::operator=, COMDAT
; _this$ = ecx
  00000	55		 push	 ebp
  00001	8b ec		 mov	 ebp, esp
  00003	8b 55 08	 mov	 edx, DWORD PTR ___that$[ebp]
  00006	8b 42 04	 mov	 eax, DWORD PTR [edx+4]
  00009	89 41 04	 mov	 DWORD PTR [ecx+4], eax
  0000c	8b 42 08	 mov	 eax, DWORD PTR [edx+8]
  0000f	89 41 08	 mov	 DWORD PTR [ecx+8], eax
  00012	8b 42 0c	 mov	 eax, DWORD PTR [edx+12]
  00015	89 41 0c	 mov	 DWORD PTR [ecx+12], eax
  00018	8b 42 10	 mov	 eax, DWORD PTR [edx+16]
  0001b	89 41 10	 mov	 DWORD PTR [ecx+16], eax
  0001e	8b c1		 mov	 eax, ecx
  00020	5d		 pop	 ebp
  00021	c2 04 00	 ret	 4
??4i3Udp@@QAEAAV0@ABV0@@Z ENDP				; i3Udp::operator=
_TEXT	ENDS
; Function compile flags: /Ogtp
;	COMDAT ??0i3Udp@@QAE@ABV0@@Z
_TEXT	SEGMENT
___that$ = 8						; size = 4
??0i3Udp@@QAE@ABV0@@Z PROC				; i3Udp::i3Udp, COMDAT
; _this$ = ecx
  00000	55		 push	 ebp
  00001	8b ec		 mov	 ebp, esp
  00003	8b 55 08	 mov	 edx, DWORD PTR ___that$[ebp]
  00006	c7 01 00 00 00
	00		 mov	 DWORD PTR [ecx], OFFSET ??_7i3ElementBase@@6B@
  0000c	8b 42 04	 mov	 eax, DWORD PTR [edx+4]
  0000f	89 41 04	 mov	 DWORD PTR [ecx+4], eax
  00012	8b 42 08	 mov	 eax, DWORD PTR [edx+8]
  00015	89 41 08	 mov	 DWORD PTR [ecx+8], eax
  00018	8b 42 0c	 mov	 eax, DWORD PTR [edx+12]
  0001b	89 41 0c	 mov	 DWORD PTR [ecx+12], eax
  0001e	c7 01 00 00 00
	00		 mov	 DWORD PTR [ecx], OFFSET ??_7i3Udp@@6B@
  00024	8b 42 10	 mov	 eax, DWORD PTR [edx+16]
  00027	89 41 10	 mov	 DWORD PTR [ecx+16], eax
  0002a	8b c1		 mov	 eax, ecx
  0002c	5d		 pop	 ebp
  0002d	c2 04 00	 ret	 4
??0i3Udp@@QAE@ABV0@@Z ENDP				; i3Udp::i3Udp
_TEXT	ENDS
; Function compile flags: /Ogtp
; File E:\Proyectos\JuegosOnlineproyectos\PB\pbblow\Piercing Blow Remake\i3Server\include\i3Base\i3Inet.h
;	COMDAT ?getSocketHandle@i3Udp@@QAEIXZ
_TEXT	SEGMENT
?getSocketHandle@i3Udp@@QAEIXZ PROC			; i3Udp::getSocketHandle, COMDAT
; _this$ = ecx

; 80   : 	SOCKET	getSocketHandle( void )				{ return m_Socket; }

  00000	8b 41 10	 mov	 eax, DWORD PTR [ecx+16]
  00003	c3		 ret	 0
?getSocketHandle@i3Udp@@QAEIXZ ENDP			; i3Udp::getSocketHandle
_TEXT	ENDS
; Function compile flags: /Ogtp
; File E:\Proyectos\JuegosOnlineproyectos\PB\pbblow\Piercing Blow Remake\i3Server\include\i3Base\i3Inet.h
;	COMDAT ?GetClassMeta@i3Udp@@SAPAVi3ClassMeta@@XZ
_TEXT	SEGMENT
?GetClassMeta@i3Udp@@SAPAVi3ClassMeta@@XZ PROC		; i3Udp::GetClassMeta, COMDAT

; 60   : 	I3_CLASS_DEFINE( i3Udp );

  00000	a1 00 00 00 00	 mov	 eax, DWORD PTR ?s_pClassMetai3Udp@i3Udp@@2PAVi3ClassMeta@@A ; i3Udp::s_pClassMetai3Udp
  00005	c3		 ret	 0
?GetClassMeta@i3Udp@@SAPAVi3ClassMeta@@XZ ENDP		; i3Udp::GetClassMeta
_TEXT	ENDS
; Function compile flags: /Ogtp
; File E:\Proyectos\JuegosOnlineproyectos\PB\pbblow\Piercing Blow Remake\i3Server\src\i3Base\i3NetworkSession.cpp
;	COMDAT ??_Ei3NetworkPacket@@UAEPAXI@Z
_TEXT	SEGMENT
__$EHRec$ = -12						; size = 12
___flags$ = 8						; size = 4
??_Ei3NetworkPacket@@UAEPAXI@Z PROC			; i3NetworkPacket::`vector deleting destructor', COMDAT
; _this$ = ecx
  00000	55		 push	 ebp
  00001	8b ec		 mov	 ebp, esp
  00003	6a ff		 push	 -1
  00005	68 00 00 00 00	 push	 __ehhandler$??_Ei3NetworkPacket@@UAEPAXI@Z
  0000a	64 a1 00 00 00
	00		 mov	 eax, DWORD PTR fs:0
  00010	50		 push	 eax
  00011	53		 push	 ebx
  00012	56		 push	 esi
  00013	57		 push	 edi
  00014	a1 00 00 00 00	 mov	 eax, DWORD PTR ___security_cookie
  00019	33 c5		 xor	 eax, ebp
  0001b	50		 push	 eax
  0001c	8d 45 f4	 lea	 eax, DWORD PTR __$EHRec$[ebp]
  0001f	64 a3 00 00 00
	00		 mov	 DWORD PTR fs:0, eax
  00025	8b f1		 mov	 esi, ecx
  00027	8b 5d 08	 mov	 ebx, DWORD PTR ___flags$[ebp]
  0002a	8b fb		 mov	 edi, ebx
  0002c	83 e7 01	 and	 edi, 1
  0002f	f6 c3 02	 test	 bl, 2
  00032	74 43		 je	 SHORT $LN2@vector
  00034	68 00 00 00 00	 push	 OFFSET ??1i3NetworkPacket@@UAE@XZ ; i3NetworkPacket::~i3NetworkPacket
  00039	ff 76 fc	 push	 DWORD PTR [esi-4]
  0003c	8d 5e fc	 lea	 ebx, DWORD PTR [esi-4]
  0003f	68 fc 22 00 00	 push	 8956			; 000022fcH
  00044	56		 push	 esi
  00045	e8 00 00 00 00	 call	 ??_M@YGXPAXIIP6EX0@Z@Z
  0004a	85 ff		 test	 edi, edi
  0004c	74 13		 je	 SHORT $LN3@vector
  0004e	69 0b fc 22 00
	00		 imul	 ecx, DWORD PTR [ebx], 8956
  00054	83 c1 04	 add	 ecx, 4
  00057	51		 push	 ecx
  00058	53		 push	 ebx
  00059	e8 00 00 00 00	 call	 ??_V@YAXPAXI@Z		; operator delete[]
  0005e	83 c4 08	 add	 esp, 8
$LN3@vector:
  00061	8b c3		 mov	 eax, ebx
  00063	8b 4d f4	 mov	 ecx, DWORD PTR __$EHRec$[ebp]
  00066	64 89 0d 00 00
	00 00		 mov	 DWORD PTR fs:0, ecx
  0006d	59		 pop	 ecx
  0006e	5f		 pop	 edi
  0006f	5e		 pop	 esi
  00070	5b		 pop	 ebx
  00071	8b e5		 mov	 esp, ebp
  00073	5d		 pop	 ebp
  00074	c2 04 00	 ret	 4
$LN2@vector:
  00077	e8 00 00 00 00	 call	 ??1i3NetworkPacket@@UAE@XZ ; i3NetworkPacket::~i3NetworkPacket
  0007c	85 ff		 test	 edi, edi
  0007e	74 1e		 je	 SHORT $LN6@vector
  00080	f6 c3 04	 test	 bl, 4
  00083	75 0b		 jne	 SHORT $LN5@vector
  00085	56		 push	 esi
  00086	e8 00 00 00 00	 call	 ??3i3ElementBase@@SAXPAX@Z ; i3ElementBase::operator delete
  0008b	83 c4 04	 add	 esp, 4
  0008e	eb 0e		 jmp	 SHORT $LN6@vector
$LN5@vector:

  00090	68 fc 22 00 00	 push	 8956			; 000022fcH
  00095	56		 push	 esi
  00096	e8 00 00 00 00	 call	 ??3@YAXPAXI@Z		; operator delete
  0009b	83 c4 08	 add	 esp, 8
$LN6@vector:
  0009e	8b c6		 mov	 eax, esi
  000a0	8b 4d f4	 mov	 ecx, DWORD PTR __$EHRec$[ebp]
  000a3	64 89 0d 00 00
	00 00		 mov	 DWORD PTR fs:0, ecx
  000aa	59		 pop	 ecx
  000ab	5f		 pop	 edi
  000ac	5e		 pop	 esi
  000ad	5b		 pop	 ebx
  000ae	8b e5		 mov	 esp, ebp
  000b0	5d		 pop	 ebp
  000b1	c2 04 00	 ret	 4
  000b4	cc		 int	 3
  000b5	cc		 int	 3
  000b6	cc		 int	 3
  000b7	cc		 int	 3
  000b8	cc		 int	 3
_TEXT	ENDS
;	COMDAT text$x
text$x	SEGMENT
__ehhandler$??_Ei3NetworkPacket@@UAEPAXI@Z:
  00000	90		 npad	 1
  00001	90		 npad	 1
  00002	8b 54 24 08	 mov	 edx, DWORD PTR [esp+8]
  00006	8d 42 0c	 lea	 eax, DWORD PTR [edx+12]
  00009	8b 4a f0	 mov	 ecx, DWORD PTR [edx-16]
  0000c	33 c8		 xor	 ecx, eax
  0000e	e8 00 00 00 00	 call	 @__security_check_cookie@4
  00013	b8 00 00 00 00	 mov	 eax, OFFSET __ehfuncinfo$??_Ei3NetworkPacket@@UAEPAXI@Z
  00018	e9 00 00 00 00	 jmp	 ___CxxFrameHandler3
text$x	ENDS
??_Ei3NetworkPacket@@UAEPAXI@Z ENDP			; i3NetworkPacket::`vector deleting destructor'
; Function compile flags: /Ogtp
; File E:\Proyectos\JuegosOnlineproyectos\PB\pbblow\Piercing Blow Remake\i3Server\src\i3Base\i3NetworkSession.cpp
;	COMDAT ??_Gi3NetworkPacket@@UAEPAXI@Z
_TEXT	SEGMENT
___flags$ = 8						; size = 4
??_Gi3NetworkPacket@@UAEPAXI@Z PROC			; i3NetworkPacket::`scalar deleting destructor', COMDAT
; _this$ = ecx
  00000	55		 push	 ebp
  00001	8b ec		 mov	 ebp, esp
  00003	56		 push	 esi
  00004	8b f1		 mov	 esi, ecx
  00006	e8 00 00 00 00	 call	 ??1i3NetworkPacket@@UAE@XZ ; i3NetworkPacket::~i3NetworkPacket
  0000b	8b 45 08	 mov	 eax, DWORD PTR ___flags$[ebp]
  0000e	a8 01		 test	 al, 1
  00010	74 22		 je	 SHORT $LN10@scalar
  00012	a8 04		 test	 al, 4
  00014	75 10		 jne	 SHORT $LN3@scalar
  00016	56		 push	 esi
  00017	e8 00 00 00 00	 call	 ??3i3ElementBase@@SAXPAX@Z ; i3ElementBase::operator delete
  0001c	83 c4 04	 add	 esp, 4
  0001f	8b c6		 mov	 eax, esi
  00021	5e		 pop	 esi
  00022	5d		 pop	 ebp
  00023	c2 04 00	 ret	 4
$LN3@scalar:

  00026	68 fc 22 00 00	 push	 8956			; 000022fcH
  0002b	56		 push	 esi
  0002c	e8 00 00 00 00	 call	 ??3@YAXPAXI@Z		; operator delete
  00031	83 c4 08	 add	 esp, 8
$LN10@scalar:
  00034	8b c6		 mov	 eax, esi
  00036	5e		 pop	 esi
  00037	5d		 pop	 ebp
  00038	c2 04 00	 ret	 4
??_Gi3NetworkPacket@@UAEPAXI@Z ENDP			; i3NetworkPacket::`scalar deleting destructor'
_TEXT	ENDS
; Function compile flags: /Ogtp
;	COMDAT ??4i3NetworkPacket@@QAEAAV0@ABV0@@Z
_TEXT	SEGMENT
___that$ = 8						; size = 4
??4i3NetworkPacket@@QAEAAV0@ABV0@@Z PROC		; i3NetworkPacket::operator=, COMDAT
; _this$ = ecx
  00000	55		 push	 ebp
  00001	8b ec		 mov	 ebp, esp
  00003	8b d1		 mov	 edx, ecx
  00005	56		 push	 esi
  00006	8b 75 08	 mov	 esi, DWORD PTR ___that$[ebp]
  00009	8b 46 04	 mov	 eax, DWORD PTR [esi+4]
  0000c	89 42 04	 mov	 DWORD PTR [edx+4], eax
  0000f	8b 46 08	 mov	 eax, DWORD PTR [esi+8]
  00012	89 42 08	 mov	 DWORD PTR [edx+8], eax
  00015	8b 46 0c	 mov	 eax, DWORD PTR [esi+12]
  00018	89 42 0c	 mov	 DWORD PTR [edx+12], eax
  0001b	8b 46 10	 mov	 eax, DWORD PTR [esi+16]
  0001e	8b 4e 14	 mov	 ecx, DWORD PTR [esi+20]
  00021	89 42 10	 mov	 DWORD PTR [edx+16], eax
  00024	33 c0		 xor	 eax, eax
  00026	89 4a 14	 mov	 DWORD PTR [edx+20], ecx
  00029	8d a4 24 00 00
	00 00		 npad	 7
$LL4@operator:
  00030	8a 4c 06 18	 mov	 cl, BYTE PTR [esi+eax+24]
  00034	88 4c 02 18	 mov	 BYTE PTR [edx+eax+24], cl
  00038	40		 inc	 eax
  00039	3d d0 22 00 00	 cmp	 eax, 8912		; 000022d0H
  0003e	72 f0		 jb	 SHORT $LL4@operator
  00040	8b 86 e8 22 00
	00		 mov	 eax, DWORD PTR [esi+8936]
  00046	89 82 e8 22 00
	00		 mov	 DWORD PTR [edx+8936], eax
  0004c	8b 86 ec 22 00
	00		 mov	 eax, DWORD PTR [esi+8940]
  00052	89 82 ec 22 00
	00		 mov	 DWORD PTR [edx+8940], eax
  00058	8b 86 f0 22 00
	00		 mov	 eax, DWORD PTR [esi+8944]
  0005e	89 82 f0 22 00
	00		 mov	 DWORD PTR [edx+8944], eax
  00064	8b 86 f4 22 00
	00		 mov	 eax, DWORD PTR [esi+8948]
  0006a	89 82 f4 22 00
	00		 mov	 DWORD PTR [edx+8948], eax
  00070	8b 86 f8 22 00
	00		 mov	 eax, DWORD PTR [esi+8952]
  00076	89 82 f8 22 00
	00		 mov	 DWORD PTR [edx+8952], eax
  0007c	8b c2		 mov	 eax, edx
  0007e	5e		 pop	 esi
  0007f	5d		 pop	 ebp
  00080	c2 04 00	 ret	 4
??4i3NetworkPacket@@QAEAAV0@ABV0@@Z ENDP		; i3NetworkPacket::operator=
_TEXT	ENDS
; Function compile flags: /Ogtp
;	COMDAT ??0i3NetworkPacket@@QAE@ABV0@@Z
_TEXT	SEGMENT
___that$ = 8						; size = 4
??0i3NetworkPacket@@QAE@ABV0@@Z PROC			; i3NetworkPacket::i3NetworkPacket, COMDAT
; _this$ = ecx
  00000	55		 push	 ebp
  00001	8b ec		 mov	 ebp, esp
  00003	56		 push	 esi
  00004	8b 75 08	 mov	 esi, DWORD PTR ___that$[ebp]
  00007	57		 push	 edi
  00008	8b f9		 mov	 edi, ecx
  0000a	68 d0 22 00 00	 push	 8912			; 000022d0H
  0000f	c7 07 00 00 00
	00		 mov	 DWORD PTR [edi], OFFSET ??_7i3ElementBase@@6B@
  00015	8b 46 04	 mov	 eax, DWORD PTR [esi+4]
  00018	89 47 04	 mov	 DWORD PTR [edi+4], eax
  0001b	8b 46 08	 mov	 eax, DWORD PTR [esi+8]
  0001e	89 47 08	 mov	 DWORD PTR [edi+8], eax
  00021	8b 46 0c	 mov	 eax, DWORD PTR [esi+12]
  00024	89 47 0c	 mov	 DWORD PTR [edi+12], eax
  00027	c7 07 00 00 00
	00		 mov	 DWORD PTR [edi], OFFSET ??_7i3NetworkPacket@@6B@
  0002d	8b 46 10	 mov	 eax, DWORD PTR [esi+16]
  00030	8b 4e 14	 mov	 ecx, DWORD PTR [esi+20]
  00033	89 47 10	 mov	 DWORD PTR [edi+16], eax
  00036	8d 46 18	 lea	 eax, DWORD PTR [esi+24]
  00039	50		 push	 eax
  0003a	8d 47 18	 lea	 eax, DWORD PTR [edi+24]
  0003d	89 4f 14	 mov	 DWORD PTR [edi+20], ecx
  00040	50		 push	 eax
  00041	e8 00 00 00 00	 call	 _memcpy
  00046	8b 86 e8 22 00
	00		 mov	 eax, DWORD PTR [esi+8936]
  0004c	83 c4 0c	 add	 esp, 12			; 0000000cH
  0004f	89 87 e8 22 00
	00		 mov	 DWORD PTR [edi+8936], eax
  00055	8b 86 ec 22 00
	00		 mov	 eax, DWORD PTR [esi+8940]
  0005b	89 87 ec 22 00
	00		 mov	 DWORD PTR [edi+8940], eax
  00061	8b 86 f0 22 00
	00		 mov	 eax, DWORD PTR [esi+8944]
  00067	89 87 f0 22 00
	00		 mov	 DWORD PTR [edi+8944], eax
  0006d	8b 86 f4 22 00
	00		 mov	 eax, DWORD PTR [esi+8948]
  00073	89 87 f4 22 00
	00		 mov	 DWORD PTR [edi+8948], eax
  00079	8b 86 f8 22 00
	00		 mov	 eax, DWORD PTR [esi+8952]
  0007f	89 87 f8 22 00
	00		 mov	 DWORD PTR [edi+8952], eax
  00085	8b c7		 mov	 eax, edi
  00087	5f		 pop	 edi
  00088	5e		 pop	 esi
  00089	5d		 pop	 ebp
  0008a	c2 04 00	 ret	 4
??0i3NetworkPacket@@QAE@ABV0@@Z ENDP			; i3NetworkPacket::i3NetworkPacket
_TEXT	ENDS
; Function compile flags: /Ogtp
; File E:\Proyectos\JuegosOnlineproyectos\PB\pbblow\Piercing Blow Remake\i3Server\include\i3Base\i3NetworkPacket.h
;	COMDAT ?GetFieldBuffer@i3NetworkPacket@@QAEPADXZ
_TEXT	SEGMENT
?GetFieldBuffer@i3NetworkPacket@@QAEPADXZ PROC		; i3NetworkPacket::GetFieldBuffer, COMDAT
; _this$ = ecx

; 52   : 	char	*	GetFieldBuffer(void)			{ return m_pDataField; }

  00000	8b 81 e8 22 00
	00		 mov	 eax, DWORD PTR [ecx+8936]
  00006	c3		 ret	 0
?GetFieldBuffer@i3NetworkPacket@@QAEPADXZ ENDP		; i3NetworkPacket::GetFieldBuffer
_TEXT	ENDS
; Function compile flags: /Ogtp
; File E:\Proyectos\JuegosOnlineproyectos\PB\pbblow\Piercing Blow Remake\i3Server\include\i3Base\i3NetworkPacket.h
;	COMDAT ?GetPacketBuffer@i3NetworkPacket@@QAEPADXZ
_TEXT	SEGMENT
?GetPacketBuffer@i3NetworkPacket@@QAEPADXZ PROC		; i3NetworkPacket::GetPacketBuffer, COMDAT
; _this$ = ecx

; 51   : 	char	*	GetPacketBuffer(void)			{ return m_pPacketBuffer; } 

  00000	8d 41 18	 lea	 eax, DWORD PTR [ecx+24]
  00003	c3		 ret	 0
?GetPacketBuffer@i3NetworkPacket@@QAEPADXZ ENDP		; i3NetworkPacket::GetPacketBuffer
_TEXT	ENDS
; Function compile flags: /Ogtp
; File E:\Proyectos\JuegosOnlineproyectos\PB\pbblow\Piercing Blow Remake\i3Server\include\i3Base\i3NetworkPacket.h
;	COMDAT ?GetDataFieldSize@i3NetworkPacket@@QAEGXZ
_TEXT	SEGMENT
?GetDataFieldSize@i3NetworkPacket@@QAEGXZ PROC		; i3NetworkPacket::GetDataFieldSize, COMDAT
; _this$ = ecx

; 50   : 	UINT16		GetDataFieldSize(void)			{ return (*m_PacketHeader.pDataSize) & 0x7FFF ; }

  00000	8b 41 10	 mov	 eax, DWORD PTR [ecx+16]
  00003	b9 ff 7f 00 00	 mov	 ecx, 32767		; 00007fffH
  00008	66 8b 00	 mov	 ax, WORD PTR [eax]
  0000b	66 23 c1	 and	 ax, cx
  0000e	c3		 ret	 0
?GetDataFieldSize@i3NetworkPacket@@QAEGXZ ENDP		; i3NetworkPacket::GetDataFieldSize
_TEXT	ENDS
; Function compile flags: /Ogtp
; File E:\Proyectos\JuegosOnlineproyectos\PB\pbblow\Piercing Blow Remake\i3Server\include\i3Base\i3NetworkPacket.h
;	COMDAT ?GetProtocolID@i3NetworkPacket@@QAEGXZ
_TEXT	SEGMENT
?GetProtocolID@i3NetworkPacket@@QAEGXZ PROC		; i3NetworkPacket::GetProtocolID, COMDAT
; _this$ = ecx

; 49   : 	PROTOCOL	GetProtocolID(void)				{ return * m_PacketHeader.pProtocolID; }

  00000	8b 41 14	 mov	 eax, DWORD PTR [ecx+20]
  00003	66 8b 00	 mov	 ax, WORD PTR [eax]
  00006	c3		 ret	 0
?GetProtocolID@i3NetworkPacket@@QAEGXZ ENDP		; i3NetworkPacket::GetProtocolID
_TEXT	ENDS
; Function compile flags: /Ogtp
; File E:\Proyectos\JuegosOnlineproyectos\PB\pbblow\Piercing Blow Remake\i3Server\include\i3Base\i3NetworkPacket.h
;	COMDAT ?GetReceivedSize@i3NetworkPacket@@QAEHXZ
_TEXT	SEGMENT
?GetReceivedSize@i3NetworkPacket@@QAEHXZ PROC		; i3NetworkPacket::GetReceivedSize, COMDAT
; _this$ = ecx

; 48   : 	INT32		GetReceivedSize(void)			{ return m_Size; }

  00000	8b 81 f8 22 00
	00		 mov	 eax, DWORD PTR [ecx+8952]
  00006	c3		 ret	 0
?GetReceivedSize@i3NetworkPacket@@QAEHXZ ENDP		; i3NetworkPacket::GetReceivedSize
_TEXT	ENDS
; Function compile flags: /Ogtp
; File E:\Proyectos\JuegosOnlineproyectos\PB\pbblow\Piercing Blow Remake\i3Server\include\i3Base\i3NetworkPacket.h
;	COMDAT ?GetPacketSize@i3NetworkPacket@@QAEHXZ
_TEXT	SEGMENT
?GetPacketSize@i3NetworkPacket@@QAEHXZ PROC		; i3NetworkPacket::GetPacketSize, COMDAT
; _this$ = ecx

; 50   : 	UINT16		GetDataFieldSize(void)			{ return (*m_PacketHeader.pDataSize) & 0x7FFF ; }

  00000	8b 41 10	 mov	 eax, DWORD PTR [ecx+16]
  00003	0f b7 00	 movzx	 eax, WORD PTR [eax]
  00006	25 ff 7f 00 00	 and	 eax, 32767		; 00007fffH

; 47   : 	INT32		GetPacketSize(void)				{ return ( GetDataFieldSize() + PACKETHEADERSIZE ); }	

  0000b	83 c0 04	 add	 eax, 4
  0000e	c3		 ret	 0
?GetPacketSize@i3NetworkPacket@@QAEHXZ ENDP		; i3NetworkPacket::GetPacketSize
_TEXT	ENDS
; Function compile flags: /Ogtp
; File E:\Proyectos\JuegosOnlineproyectos\PB\pbblow\Piercing Blow Remake\i3Server\include\i3Base\i3NetworkPacket.h
;	COMDAT ?SetProtocol@i3NetworkPacket@@QAEXG@Z
_TEXT	SEGMENT
_ProtocolID$ = 8					; size = 2
?SetProtocol@i3NetworkPacket@@QAEXG@Z PROC		; i3NetworkPacket::SetProtocol, COMDAT
; _this$ = ecx

; 44   : 	void		SetProtocol(PROTOCOL ProtocolID){ *m_PacketHeader.pProtocolID = ProtocolID; }

  00000	55		 push	 ebp
  00001	8b ec		 mov	 ebp, esp
  00003	8b 49 14	 mov	 ecx, DWORD PTR [ecx+20]
  00006	66 8b 45 08	 mov	 ax, WORD PTR _ProtocolID$[ebp]
  0000a	66 89 01	 mov	 WORD PTR [ecx], ax
  0000d	5d		 pop	 ebp
  0000e	c2 04 00	 ret	 4
?SetProtocol@i3NetworkPacket@@QAEXG@Z ENDP		; i3NetworkPacket::SetProtocol
_TEXT	ENDS
; Function compile flags: /Ogtp
; File E:\Proyectos\JuegosOnlineproyectos\PB\pbblow\Piercing Blow Remake\i3Server\include\i3Base\i3NetworkPacket.h
;	COMDAT ?GetClassMeta@i3NetworkPacket@@SAPAVi3ClassMeta@@XZ
_TEXT	SEGMENT
?GetClassMeta@i3NetworkPacket@@SAPAVi3ClassMeta@@XZ PROC ; i3NetworkPacket::GetClassMeta, COMDAT

; 22   : 	I3_CLASS_DEFINE( i3NetworkPacket ); 

  00000	a1 00 00 00 00	 mov	 eax, DWORD PTR ?s_pClassMetai3NetworkPacket@i3NetworkPacket@@2PAVi3ClassMeta@@A ; i3NetworkPacket::s_pClassMetai3NetworkPacket
  00005	c3		 ret	 0
?GetClassMeta@i3NetworkPacket@@SAPAVi3ClassMeta@@XZ ENDP ; i3NetworkPacket::GetClassMeta
_TEXT	ENDS
; Function compile flags: /Ogtp
; File E:\Proyectos\JuegosOnlineproyectos\PB\pbblow\Piercing Blow Remake\i3Server\src\i3Base\i3NetworkSession.cpp
;	COMDAT ??_Ei3NetworkSession@@UAEPAXI@Z
_TEXT	SEGMENT
__$EHRec$ = -12						; size = 12
___flags$ = 8						; size = 4
??_Ei3NetworkSession@@UAEPAXI@Z PROC			; i3NetworkSession::`vector deleting destructor', COMDAT
; _this$ = ecx
  00000	55		 push	 ebp
  00001	8b ec		 mov	 ebp, esp
  00003	6a ff		 push	 -1
  00005	68 00 00 00 00	 push	 __ehhandler$??_Ei3NetworkSession@@UAEPAXI@Z
  0000a	64 a1 00 00 00
	00		 mov	 eax, DWORD PTR fs:0
  00010	50		 push	 eax
  00011	53		 push	 ebx
  00012	56		 push	 esi
  00013	57		 push	 edi
  00014	a1 00 00 00 00	 mov	 eax, DWORD PTR ___security_cookie
  00019	33 c5		 xor	 eax, ebp
  0001b	50		 push	 eax
  0001c	8d 45 f4	 lea	 eax, DWORD PTR __$EHRec$[ebp]
  0001f	64 a3 00 00 00
	00		 mov	 DWORD PTR fs:0, eax
  00025	8b f1		 mov	 esi, ecx
  00027	8b 5d 08	 mov	 ebx, DWORD PTR ___flags$[ebp]
  0002a	f6 c3 02	 test	 bl, 2
  0002d	74 44		 je	 SHORT $LN2@vector
  0002f	68 00 00 00 00	 push	 OFFSET ??1i3NetworkSession@@UAE@XZ ; i3NetworkSession::~i3NetworkSession
  00034	ff 76 fc	 push	 DWORD PTR [esi-4]
  00037	8d 7e fc	 lea	 edi, DWORD PTR [esi-4]
  0003a	68 8c 23 00 00	 push	 9100			; 0000238cH
  0003f	56		 push	 esi
  00040	e8 00 00 00 00	 call	 ??_M@YGXPAXIIP6EX0@Z@Z
  00045	f6 c3 01	 test	 bl, 1
  00048	74 13		 je	 SHORT $LN3@vector
  0004a	69 0f 8c 23 00
	00		 imul	 ecx, DWORD PTR [edi], 9100
  00050	83 c1 04	 add	 ecx, 4
  00053	51		 push	 ecx
  00054	57		 push	 edi
  00055	e8 00 00 00 00	 call	 ??_V@YAXPAXI@Z		; operator delete[]
  0005a	83 c4 08	 add	 esp, 8
$LN3@vector:
  0005d	8b c7		 mov	 eax, edi
  0005f	8b 4d f4	 mov	 ecx, DWORD PTR __$EHRec$[ebp]
  00062	64 89 0d 00 00
	00 00		 mov	 DWORD PTR fs:0, ecx
  00069	59		 pop	 ecx
  0006a	5f		 pop	 edi
  0006b	5e		 pop	 esi
  0006c	5b		 pop	 ebx
  0006d	8b e5		 mov	 esp, ebp
  0006f	5d		 pop	 ebp
  00070	c2 04 00	 ret	 4
$LN2@vector:

; 68   : 	m_wstrIPString[0]	= '\0';

  00073	33 c0		 xor	 eax, eax

; 26   : {

  00075	c7 06 00 00 00
	00		 mov	 DWORD PTR [esi], OFFSET ??_7i3NetworkSession@@6B@

; 67   : 	m_strIPString[0]	= '\0';

  0007b	c6 86 20 23 00
	00 00		 mov	 BYTE PTR [esi+8992], 0

; 68   : 	m_wstrIPString[0]	= '\0';

  00082	66 89 86 40 23
	00 00		 mov	 WORD PTR [esi+9024], ax

; 69   : 	if(m_Socket != INVALID_SOCKET)

  00089	8b 46 40	 mov	 eax, DWORD PTR [esi+64]
  0008c	83 f8 ff	 cmp	 eax, -1
  0008f	74 19		 je	 SHORT $LN20@vector

; 70   : 	{
; 71   : 		::shutdown( m_Socket, SD_BOTH);

  00091	6a 02		 push	 2
  00093	50		 push	 eax
  00094	ff 15 00 00 00
	00		 call	 DWORD PTR __imp__shutdown@8

; 72   : 		::closesocket( m_Socket );

  0009a	ff 76 40	 push	 DWORD PTR [esi+64]
  0009d	ff 15 00 00 00
	00		 call	 DWORD PTR __imp__closesocket@4

; 73   : 		m_Socket = INVALID_SOCKET;

  000a3	c7 46 40 ff ff
	ff ff		 mov	 DWORD PTR [esi+64], -1
$LN20@vector:

; 28   : }

  000aa	8b ce		 mov	 ecx, esi

; 76   : 	m_IsActive	= FALSE; 

  000ac	c7 46 44 00 00
	00 00		 mov	 DWORD PTR [esi+68], 0

; 28   : }

  000b3	e8 00 00 00 00	 call	 ??1i3ElementBase@@UAE@XZ ; i3ElementBase::~i3ElementBase
  000b8	f6 c3 01	 test	 bl, 1
  000bb	74 1e		 je	 SHORT $LN6@vector
  000bd	f6 c3 04	 test	 bl, 4
  000c0	75 0b		 jne	 SHORT $LN5@vector
  000c2	56		 push	 esi
  000c3	e8 00 00 00 00	 call	 ??3i3ElementBase@@SAXPAX@Z ; i3ElementBase::operator delete
  000c8	83 c4 04	 add	 esp, 4
  000cb	eb 0e		 jmp	 SHORT $LN6@vector
$LN5@vector:

  000cd	68 8c 23 00 00	 push	 9100			; 0000238cH
  000d2	56		 push	 esi
  000d3	e8 00 00 00 00	 call	 ??3@YAXPAXI@Z		; operator delete
  000d8	83 c4 08	 add	 esp, 8
$LN6@vector:
  000db	8b c6		 mov	 eax, esi
  000dd	8b 4d f4	 mov	 ecx, DWORD PTR __$EHRec$[ebp]
  000e0	64 89 0d 00 00
	00 00		 mov	 DWORD PTR fs:0, ecx
  000e7	59		 pop	 ecx
  000e8	5f		 pop	 edi
  000e9	5e		 pop	 esi
  000ea	5b		 pop	 ebx
  000eb	8b e5		 mov	 esp, ebp
  000ed	5d		 pop	 ebp
  000ee	c2 04 00	 ret	 4
  000f1	cc		 int	 3
  000f2	cc		 int	 3
  000f3	cc		 int	 3
  000f4	cc		 int	 3
  000f5	cc		 int	 3
_TEXT	ENDS
;	COMDAT text$x
text$x	SEGMENT
__ehhandler$??_Ei3NetworkSession@@UAEPAXI@Z:
  00000	90		 npad	 1
  00001	90		 npad	 1
  00002	8b 54 24 08	 mov	 edx, DWORD PTR [esp+8]
  00006	8d 42 0c	 lea	 eax, DWORD PTR [edx+12]
  00009	8b 4a f0	 mov	 ecx, DWORD PTR [edx-16]
  0000c	33 c8		 xor	 ecx, eax
  0000e	e8 00 00 00 00	 call	 @__security_check_cookie@4
  00013	b8 00 00 00 00	 mov	 eax, OFFSET __ehfuncinfo$??_Ei3NetworkSession@@UAEPAXI@Z
  00018	e9 00 00 00 00	 jmp	 ___CxxFrameHandler3
text$x	ENDS
??_Ei3NetworkSession@@UAEPAXI@Z ENDP			; i3NetworkSession::`vector deleting destructor'
; Function compile flags: /Ogtp
; File E:\Proyectos\JuegosOnlineproyectos\PB\pbblow\Piercing Blow Remake\i3Server\src\i3Base\i3NetworkSession.cpp
;	COMDAT ??_Gi3NetworkSession@@UAEPAXI@Z
_TEXT	SEGMENT
__$EHRec$ = -12						; size = 12
___flags$ = 8						; size = 4
??_Gi3NetworkSession@@UAEPAXI@Z PROC			; i3NetworkSession::`scalar deleting destructor', COMDAT
; _this$ = ecx
  00000	55		 push	 ebp
  00001	8b ec		 mov	 ebp, esp
  00003	6a ff		 push	 -1
  00005	68 00 00 00 00	 push	 __ehhandler$??_Gi3NetworkSession@@UAEPAXI@Z
  0000a	64 a1 00 00 00
	00		 mov	 eax, DWORD PTR fs:0
  00010	50		 push	 eax
  00011	56		 push	 esi
  00012	a1 00 00 00 00	 mov	 eax, DWORD PTR ___security_cookie
  00017	33 c5		 xor	 eax, ebp
  00019	50		 push	 eax
  0001a	8d 45 f4	 lea	 eax, DWORD PTR __$EHRec$[ebp]
  0001d	64 a3 00 00 00
	00		 mov	 DWORD PTR fs:0, eax
  00023	8b f1		 mov	 esi, ecx

; 68   : 	m_wstrIPString[0]	= '\0';

  00025	33 c0		 xor	 eax, eax

; 26   : {

  00027	c7 06 00 00 00
	00		 mov	 DWORD PTR [esi], OFFSET ??_7i3NetworkSession@@6B@

; 67   : 	m_strIPString[0]	= '\0';

  0002d	c6 86 20 23 00
	00 00		 mov	 BYTE PTR [esi+8992], 0

; 68   : 	m_wstrIPString[0]	= '\0';

  00034	66 89 86 40 23
	00 00		 mov	 WORD PTR [esi+9024], ax

; 69   : 	if(m_Socket != INVALID_SOCKET)

  0003b	8b 46 40	 mov	 eax, DWORD PTR [esi+64]
  0003e	83 f8 ff	 cmp	 eax, -1
  00041	74 19		 je	 SHORT $LN18@scalar

; 70   : 	{
; 71   : 		::shutdown( m_Socket, SD_BOTH);

  00043	6a 02		 push	 2
  00045	50		 push	 eax
  00046	ff 15 00 00 00
	00		 call	 DWORD PTR __imp__shutdown@8

; 72   : 		::closesocket( m_Socket );

  0004c	ff 76 40	 push	 DWORD PTR [esi+64]
  0004f	ff 15 00 00 00
	00		 call	 DWORD PTR __imp__closesocket@4

; 73   : 		m_Socket = INVALID_SOCKET;

  00055	c7 46 40 ff ff
	ff ff		 mov	 DWORD PTR [esi+64], -1
$LN18@scalar:

; 28   : }

  0005c	8b ce		 mov	 ecx, esi

; 76   : 	m_IsActive	= FALSE; 

  0005e	c7 46 44 00 00
	00 00		 mov	 DWORD PTR [esi+68], 0

; 28   : }

  00065	e8 00 00 00 00	 call	 ??1i3ElementBase@@UAE@XZ ; i3ElementBase::~i3ElementBase
  0006a	8b 45 08	 mov	 eax, DWORD PTR ___flags$[ebp]
  0006d	a8 01		 test	 al, 1
  0006f	74 2f		 je	 SHORT $LN22@scalar
  00071	a8 04		 test	 al, 4
  00073	75 1d		 jne	 SHORT $LN3@scalar
  00075	56		 push	 esi
  00076	e8 00 00 00 00	 call	 ??3i3ElementBase@@SAXPAX@Z ; i3ElementBase::operator delete
  0007b	83 c4 04	 add	 esp, 4
  0007e	8b c6		 mov	 eax, esi
  00080	8b 4d f4	 mov	 ecx, DWORD PTR __$EHRec$[ebp]
  00083	64 89 0d 00 00
	00 00		 mov	 DWORD PTR fs:0, ecx
  0008a	59		 pop	 ecx
  0008b	5e		 pop	 esi
  0008c	8b e5		 mov	 esp, ebp
  0008e	5d		 pop	 ebp
  0008f	c2 04 00	 ret	 4
$LN3@scalar:

  00092	68 8c 23 00 00	 push	 9100			; 0000238cH
  00097	56		 push	 esi
  00098	e8 00 00 00 00	 call	 ??3@YAXPAXI@Z		; operator delete
  0009d	83 c4 08	 add	 esp, 8
$LN22@scalar:
  000a0	8b c6		 mov	 eax, esi
  000a2	8b 4d f4	 mov	 ecx, DWORD PTR __$EHRec$[ebp]
  000a5	64 89 0d 00 00
	00 00		 mov	 DWORD PTR fs:0, ecx
  000ac	59		 pop	 ecx
  000ad	5e		 pop	 esi
  000ae	8b e5		 mov	 esp, ebp
  000b0	5d		 pop	 ebp
  000b1	c2 04 00	 ret	 4
  000b4	cc		 int	 3
  000b5	cc		 int	 3
  000b6	cc		 int	 3
  000b7	cc		 int	 3
  000b8	cc		 int	 3
_TEXT	ENDS
;	COMDAT text$x
text$x	SEGMENT
__ehhandler$??_Gi3NetworkSession@@UAEPAXI@Z:
  00000	90		 npad	 1
  00001	90		 npad	 1
  00002	8b 54 24 08	 mov	 edx, DWORD PTR [esp+8]
  00006	8d 42 0c	 lea	 eax, DWORD PTR [edx+12]
  00009	8b 4a f8	 mov	 ecx, DWORD PTR [edx-8]
  0000c	33 c8		 xor	 ecx, eax
  0000e	e8 00 00 00 00	 call	 @__security_check_cookie@4
  00013	b8 00 00 00 00	 mov	 eax, OFFSET __ehfuncinfo$??_Gi3NetworkSession@@UAEPAXI@Z
  00018	e9 00 00 00 00	 jmp	 ___CxxFrameHandler3
text$x	ENDS
??_Gi3NetworkSession@@UAEPAXI@Z ENDP			; i3NetworkSession::`scalar deleting destructor'
; Function compile flags: /Ogtp
;	COMDAT ??4i3NetworkSession@@QAEAAV0@ABV0@@Z
_TEXT	SEGMENT
___that$ = 8						; size = 4
??4i3NetworkSession@@QAEAAV0@ABV0@@Z PROC		; i3NetworkSession::operator=, COMDAT
; _this$ = ecx
  00000	55		 push	 ebp
  00001	8b ec		 mov	 ebp, esp
  00003	8b d1		 mov	 edx, ecx
  00005	33 c9		 xor	 ecx, ecx
  00007	56		 push	 esi
  00008	8b 75 08	 mov	 esi, DWORD PTR ___that$[ebp]
  0000b	8b 46 04	 mov	 eax, DWORD PTR [esi+4]
  0000e	89 42 04	 mov	 DWORD PTR [edx+4], eax
  00011	8b 46 08	 mov	 eax, DWORD PTR [esi+8]
  00014	89 42 08	 mov	 DWORD PTR [edx+8], eax
  00017	8b 46 0c	 mov	 eax, DWORD PTR [esi+12]
  0001a	89 42 0c	 mov	 DWORD PTR [edx+12], eax
  0001d	8b 46 10	 mov	 eax, DWORD PTR [esi+16]
  00020	89 42 10	 mov	 DWORD PTR [edx+16], eax
  00023	8b 46 14	 mov	 eax, DWORD PTR [esi+20]
  00026	89 42 14	 mov	 DWORD PTR [edx+20], eax
  00029	8b 46 18	 mov	 eax, DWORD PTR [esi+24]
  0002c	89 42 18	 mov	 DWORD PTR [edx+24], eax
  0002f	8b 46 1c	 mov	 eax, DWORD PTR [esi+28]
  00032	89 42 1c	 mov	 DWORD PTR [edx+28], eax
  00035	8b 46 20	 mov	 eax, DWORD PTR [esi+32]
  00038	89 42 20	 mov	 DWORD PTR [edx+32], eax
  0003b	8b 46 24	 mov	 eax, DWORD PTR [esi+36]
  0003e	89 42 24	 mov	 DWORD PTR [edx+36], eax
  00041	8b 46 28	 mov	 eax, DWORD PTR [esi+40]
  00044	89 42 28	 mov	 DWORD PTR [edx+40], eax
  00047	8b 46 2c	 mov	 eax, DWORD PTR [esi+44]
  0004a	89 42 2c	 mov	 DWORD PTR [edx+44], eax
  0004d	8b 46 30	 mov	 eax, DWORD PTR [esi+48]
  00050	89 42 30	 mov	 DWORD PTR [edx+48], eax
  00053	8b 46 34	 mov	 eax, DWORD PTR [esi+52]
  00056	89 42 34	 mov	 DWORD PTR [edx+52], eax
  00059	8b 46 38	 mov	 eax, DWORD PTR [esi+56]
  0005c	89 42 38	 mov	 DWORD PTR [edx+56], eax
  0005f	8b 46 3c	 mov	 eax, DWORD PTR [esi+60]
  00062	89 42 3c	 mov	 DWORD PTR [edx+60], eax
  00065	8b 46 40	 mov	 eax, DWORD PTR [esi+64]
  00068	89 42 40	 mov	 DWORD PTR [edx+64], eax
  0006b	8b 46 44	 mov	 eax, DWORD PTR [esi+68]
  0006e	89 42 44	 mov	 DWORD PTR [edx+68], eax
$LL4@operator:
  00071	8a 44 0e 48	 mov	 al, BYTE PTR [esi+ecx+72]
  00075	88 44 0a 48	 mov	 BYTE PTR [edx+ecx+72], al
  00079	41		 inc	 ecx
  0007a	81 f9 d0 22 00
	00		 cmp	 ecx, 8912		; 000022d0H
  00080	72 ef		 jb	 SHORT $LL4@operator
  00082	8b 86 18 23 00
	00		 mov	 eax, DWORD PTR [esi+8984]
  00088	89 82 18 23 00
	00		 mov	 DWORD PTR [edx+8984], eax
  0008e	8b 86 1c 23 00
	00		 mov	 eax, DWORD PTR [esi+8988]
  00094	89 82 1c 23 00
	00		 mov	 DWORD PTR [edx+8988], eax
  0009a	33 c0		 xor	 eax, eax
  0009c	8d 64 24 00	 npad	 4
$LL7@operator:
  000a0	8a 8c 06 20 23
	00 00		 mov	 cl, BYTE PTR [esi+eax+8992]
  000a7	88 8c 02 20 23
	00 00		 mov	 BYTE PTR [edx+eax+8992], cl
  000ae	40		 inc	 eax
  000af	83 f8 20	 cmp	 eax, 32			; 00000020H
  000b2	72 ec		 jb	 SHORT $LL7@operator
  000b4	57		 push	 edi
  000b5	b9 a0 11 00 00	 mov	 ecx, 4512		; 000011a0H
  000ba	bf 20 00 00 00	 mov	 edi, 32			; 00000020H
  000bf	90		 npad	 1
$LL10@operator:
  000c0	66 8b 04 4e	 mov	 ax, WORD PTR [esi+ecx*2]
  000c4	8d 49 01	 lea	 ecx, DWORD PTR [ecx+1]
  000c7	66 89 44 4a fe	 mov	 WORD PTR [edx+ecx*2-2], ax
  000cc	83 ef 01	 sub	 edi, 1
  000cf	75 ef		 jne	 SHORT $LL10@operator
  000d1	8b 86 80 23 00
	00		 mov	 eax, DWORD PTR [esi+9088]
  000d7	89 82 80 23 00
	00		 mov	 DWORD PTR [edx+9088], eax
  000dd	66 8b 86 84 23
	00 00		 mov	 ax, WORD PTR [esi+9092]
  000e4	66 89 82 84 23
	00 00		 mov	 WORD PTR [edx+9092], ax
  000eb	8b 86 88 23 00
	00		 mov	 eax, DWORD PTR [esi+9096]
  000f1	5f		 pop	 edi
  000f2	89 82 88 23 00
	00		 mov	 DWORD PTR [edx+9096], eax
  000f8	8b c2		 mov	 eax, edx
  000fa	5e		 pop	 esi
  000fb	5d		 pop	 ebp
  000fc	c2 04 00	 ret	 4
??4i3NetworkSession@@QAEAAV0@ABV0@@Z ENDP		; i3NetworkSession::operator=
_TEXT	ENDS
; Function compile flags: /Ogtp
;	COMDAT ??0i3NetworkSession@@QAE@ABV0@@Z
_TEXT	SEGMENT
_this$1$ = -4						; size = 4
___that$ = 8						; size = 4
??0i3NetworkSession@@QAE@ABV0@@Z PROC			; i3NetworkSession::i3NetworkSession, COMDAT
; _this$ = ecx
  00000	55		 push	 ebp
  00001	8b ec		 mov	 ebp, esp
  00003	51		 push	 ecx
  00004	53		 push	 ebx
  00005	8b 5d 08	 mov	 ebx, DWORD PTR ___that$[ebp]
  00008	56		 push	 esi
  00009	57		 push	 edi
  0000a	8b f9		 mov	 edi, ecx
  0000c	68 d0 22 00 00	 push	 8912			; 000022d0H
  00011	89 7d fc	 mov	 DWORD PTR _this$1$[ebp], edi
  00014	c7 07 00 00 00
	00		 mov	 DWORD PTR [edi], OFFSET ??_7i3ElementBase@@6B@
  0001a	8b 43 04	 mov	 eax, DWORD PTR [ebx+4]
  0001d	89 47 04	 mov	 DWORD PTR [edi+4], eax
  00020	8b 43 08	 mov	 eax, DWORD PTR [ebx+8]
  00023	89 47 08	 mov	 DWORD PTR [edi+8], eax
  00026	8b 43 0c	 mov	 eax, DWORD PTR [ebx+12]
  00029	89 47 0c	 mov	 DWORD PTR [edi+12], eax
  0002c	c7 07 00 00 00
	00		 mov	 DWORD PTR [edi], OFFSET ??_7i3NetworkSession@@6B@
  00032	8b 43 10	 mov	 eax, DWORD PTR [ebx+16]
  00035	89 47 10	 mov	 DWORD PTR [edi+16], eax
  00038	8b 43 14	 mov	 eax, DWORD PTR [ebx+20]
  0003b	89 47 14	 mov	 DWORD PTR [edi+20], eax
  0003e	8b 43 18	 mov	 eax, DWORD PTR [ebx+24]
  00041	89 47 18	 mov	 DWORD PTR [edi+24], eax
  00044	8b 43 1c	 mov	 eax, DWORD PTR [ebx+28]
  00047	89 47 1c	 mov	 DWORD PTR [edi+28], eax
  0004a	8b 43 20	 mov	 eax, DWORD PTR [ebx+32]
  0004d	89 47 20	 mov	 DWORD PTR [edi+32], eax
  00050	8b 43 24	 mov	 eax, DWORD PTR [ebx+36]
  00053	89 47 24	 mov	 DWORD PTR [edi+36], eax
  00056	8b 43 28	 mov	 eax, DWORD PTR [ebx+40]
  00059	89 47 28	 mov	 DWORD PTR [edi+40], eax
  0005c	8b 43 2c	 mov	 eax, DWORD PTR [ebx+44]
  0005f	89 47 2c	 mov	 DWORD PTR [edi+44], eax
  00062	8b 43 30	 mov	 eax, DWORD PTR [ebx+48]
  00065	89 47 30	 mov	 DWORD PTR [edi+48], eax
  00068	8b 43 34	 mov	 eax, DWORD PTR [ebx+52]
  0006b	89 47 34	 mov	 DWORD PTR [edi+52], eax
  0006e	8b 43 38	 mov	 eax, DWORD PTR [ebx+56]
  00071	89 47 38	 mov	 DWORD PTR [edi+56], eax
  00074	8b 43 3c	 mov	 eax, DWORD PTR [ebx+60]
  00077	89 47 3c	 mov	 DWORD PTR [edi+60], eax
  0007a	8b 43 40	 mov	 eax, DWORD PTR [ebx+64]
  0007d	89 47 40	 mov	 DWORD PTR [edi+64], eax
  00080	8b 43 44	 mov	 eax, DWORD PTR [ebx+68]
  00083	89 47 44	 mov	 DWORD PTR [edi+68], eax
  00086	8d 43 48	 lea	 eax, DWORD PTR [ebx+72]
  00089	50		 push	 eax
  0008a	8d 47 48	 lea	 eax, DWORD PTR [edi+72]
  0008d	50		 push	 eax
  0008e	e8 00 00 00 00	 call	 _memcpy
  00093	8b 83 18 23 00
	00		 mov	 eax, DWORD PTR [ebx+8984]
  00099	8d b3 20 23 00
	00		 lea	 esi, DWORD PTR [ebx+8992]
  0009f	8b 55 fc	 mov	 edx, DWORD PTR _this$1$[ebp]
  000a2	83 c4 0c	 add	 esp, 12			; 0000000cH
  000a5	89 87 18 23 00
	00		 mov	 DWORD PTR [edi+8984], eax
  000ab	b9 08 00 00 00	 mov	 ecx, 8
  000b0	8b 83 1c 23 00
	00		 mov	 eax, DWORD PTR [ebx+8988]
  000b6	89 87 1c 23 00
	00		 mov	 DWORD PTR [edi+8988], eax
  000bc	81 c7 20 23 00
	00		 add	 edi, 8992		; 00002320H
  000c2	f3 a5		 rep movsd
  000c4	8d b3 40 23 00
	00		 lea	 esi, DWORD PTR [ebx+9024]
  000ca	b9 10 00 00 00	 mov	 ecx, 16			; 00000010H
  000cf	8d ba 40 23 00
	00		 lea	 edi, DWORD PTR [edx+9024]
  000d5	f3 a5		 rep movsd
  000d7	8b 83 80 23 00
	00		 mov	 eax, DWORD PTR [ebx+9088]
  000dd	89 82 80 23 00
	00		 mov	 DWORD PTR [edx+9088], eax
  000e3	66 8b 83 84 23
	00 00		 mov	 ax, WORD PTR [ebx+9092]
  000ea	5f		 pop	 edi
  000eb	66 89 82 84 23
	00 00		 mov	 WORD PTR [edx+9092], ax
  000f2	8b 83 88 23 00
	00		 mov	 eax, DWORD PTR [ebx+9096]
  000f8	5e		 pop	 esi
  000f9	89 82 88 23 00
	00		 mov	 DWORD PTR [edx+9096], eax
  000ff	8b c2		 mov	 eax, edx
  00101	5b		 pop	 ebx
  00102	8b e5		 mov	 esp, ebp
  00104	5d		 pop	 ebp
  00105	c2 04 00	 ret	 4
??0i3NetworkSession@@QAE@ABV0@@Z ENDP			; i3NetworkSession::i3NetworkSession
_TEXT	ENDS
; Function compile flags: /Ogtp
; File E:\Proyectos\JuegosOnlineproyectos\PB\pbblow\Piercing Blow Remake\i3Server\src\i3Base\i3NetworkSession.cpp
; File E:\Proyectos\JuegosOnlineproyectos\PB\pbblow\Piercing Blow Remake\i3Server\include\i3Base\i3Memory.h
; File E:\Proyectos\JuegosOnlineproyectos\PB\pbblow\Piercing Blow Remake\i3Server\src\i3Base\i3NetworkSession.cpp
; File E:\Proyectos\JuegosOnlineproyectos\PB\pbblow\Piercing Blow Remake\i3Server\include\i3Base\i3Memory.h
; File E:\Proyectos\JuegosOnlineproyectos\PB\pbblow\Piercing Blow Remake\i3Server\src\i3Base\i3NetworkSession.cpp
; File E:\Proyectos\JuegosOnlineproyectos\PB\pbblow\Piercing Blow Remake\i3Server\include\i3Base\i3Memory.h
; File E:\Proyectos\JuegosOnlineproyectos\PB\pbblow\Piercing Blow Remake\i3Server\src\i3Base\i3NetworkSession.cpp
; File E:\Proyectos\JuegosOnlineproyectos\PB\pbblow\Piercing Blow Remake\i3Server\include\i3Base\i3Memory.h
; File E:\Proyectos\JuegosOnlineproyectos\PB\pbblow\Piercing Blow Remake\i3Server\src\i3Base\i3NetworkSession.cpp
; File E:\Proyectos\JuegosOnlineproyectos\PB\pbblow\Piercing Blow Remake\i3Server\include\i3Base\i3Memory.h
; File E:\Proyectos\JuegosOnlineproyectos\PB\pbblow\Piercing Blow Remake\i3Server\src\i3Base\i3NetworkSession.cpp
;	COMDAT ?DataDecript@i3NetworkSession@@QAEX_KPAI1@Z
_TEXT	SEGMENT
_ui8Decrypt1$ = -20					; size = 4
_ui8Decrypt2$ = -16					; size = 4
tv358 = -16						; size = 4
_ui8Encrypt$ = -12					; size = 8
__$ArrayPad$ = -4					; size = 4
_ui64Value$ = 8						; size = 8
_pui32Key1$ = 16					; size = 4
_pui32Key2$ = 20					; size = 4
?DataDecript@i3NetworkSession@@QAEX_KPAI1@Z PROC	; i3NetworkSession::DataDecript, COMDAT
; _this$ = ecx

; 208  : {

  00000	55		 push	 ebp
  00001	8b ec		 mov	 ebp, esp
  00003	83 ec 14	 sub	 esp, 20			; 00000014H
  00006	a1 00 00 00 00	 mov	 eax, DWORD PTR ___security_cookie
  0000b	33 c5		 xor	 eax, ebp
  0000d	89 45 fc	 mov	 DWORD PTR __$ArrayPad$[ebp], eax
; File E:\Proyectos\JuegosOnlineproyectos\PB\pbblow\Piercing Blow Remake\i3Server\include\i3Base\i3Memory.h

; 134  : 			::CopyMemory( pDest, pSrc, sz);

  00010	8b 45 08	 mov	 eax, DWORD PTR _ui64Value$[ebp]
  00013	8b 4d 0c	 mov	 ecx, DWORD PTR _ui64Value$[ebp+4]
; File E:\Proyectos\JuegosOnlineproyectos\PB\pbblow\Piercing Blow Remake\i3Server\src\i3Base\i3NetworkSession.cpp

; 208  : {

  00016	53		 push	 ebx
  00017	56		 push	 esi
  00018	8b 75 10	 mov	 esi, DWORD PTR _pui32Key1$[ebp]
  0001b	57		 push	 edi
  0001c	8b 7d 14	 mov	 edi, DWORD PTR _pui32Key2$[ebp]

; 214  : 	BitRotateDecript( ui8Encrypt, sizeof( UINT64 ), 3 );

  0001f	6a 03		 push	 3
; File E:\Proyectos\JuegosOnlineproyectos\PB\pbblow\Piercing Blow Remake\i3Server\include\i3Base\i3Memory.h

; 134  : 			::CopyMemory( pDest, pSrc, sz);

  00021	89 45 f4	 mov	 DWORD PTR _ui8Encrypt$[ebp], eax
; File E:\Proyectos\JuegosOnlineproyectos\PB\pbblow\Piercing Blow Remake\i3Server\src\i3Base\i3NetworkSession.cpp

; 214  : 	BitRotateDecript( ui8Encrypt, sizeof( UINT64 ), 3 );

  00024	8d 45 f4	 lea	 eax, DWORD PTR _ui8Encrypt$[ebp]
  00027	6a 08		 push	 8
  00029	50		 push	 eax
; File E:\Proyectos\JuegosOnlineproyectos\PB\pbblow\Piercing Blow Remake\i3Server\include\i3Base\i3Memory.h

; 134  : 			::CopyMemory( pDest, pSrc, sz);

  0002a	89 4d f8	 mov	 DWORD PTR _ui8Encrypt$[ebp+4], ecx
; File E:\Proyectos\JuegosOnlineproyectos\PB\pbblow\Piercing Blow Remake\i3Server\src\i3Base\i3NetworkSession.cpp

; 214  : 	BitRotateDecript( ui8Encrypt, sizeof( UINT64 ), 3 );

  0002d	e8 00 00 00 00	 call	 ?BitRotateDecript@@YAXPAEII@Z ; BitRotateDecript

; 215  : 
; 216  : 	ui8Decrypt1[0] = ((ui8Encrypt[6]&0xF0)>>4) | (ui8Encrypt[2]&0xF0);

  00032	8a 7d f6	 mov	 bh, BYTE PTR _ui8Encrypt$[ebp+2]
  00035	83 c4 0c	 add	 esp, 12			; 0000000cH
  00038	8a 6d fa	 mov	 ch, BYTE PTR _ui8Encrypt$[ebp+6]
  0003b	8a cf		 mov	 cl, bh

; 217  : 	ui8Decrypt1[1] = ((ui8Encrypt[1]&0xF0)>>4) | (ui8Encrypt[4]&0xF0);

  0003d	8a 75 f5	 mov	 dh, BYTE PTR _ui8Encrypt$[ebp+1]
  00040	80 e1 f0	 and	 cl, 240			; 000000f0H

; 218  : 	ui8Decrypt1[2] = ((ui8Encrypt[3]&0xF0)>>4) | (ui8Encrypt[7]&0xF0);

  00043	8a 65 fb	 mov	 ah, BYTE PTR _ui8Encrypt$[ebp+7]
  00046	8a c5		 mov	 al, ch
  00048	8a 55 f7	 mov	 dl, BYTE PTR _ui8Encrypt$[ebp+3]

; 222  : 	ui8Decrypt2[1] = ((ui8Encrypt[7]&0x0F)<<4) | (ui8Encrypt[2]&0x0F);

  0004b	80 e7 0f	 and	 bh, 15			; 0000000fH
  0004e	8a 5d f9	 mov	 bl, BYTE PTR _ui8Encrypt$[ebp+5]
  00051	c0 e8 04	 shr	 al, 4
  00054	0a c8		 or	 cl, al
  00056	c0 e5 04	 shl	 ch, 4
  00059	88 4d ec	 mov	 BYTE PTR _ui8Decrypt1$[ebp], cl
  0005c	8a c6		 mov	 al, dh
  0005e	8a 4d f8	 mov	 cl, BYTE PTR _ui8Encrypt$[ebp+4]

; 223  : 	ui8Decrypt2[2] = ((ui8Encrypt[5]&0x0F)<<4) | (ui8Encrypt[1]&0x0F);

  00061	80 e6 0f	 and	 dh, 15			; 0000000fH
  00064	80 e1 f0	 and	 cl, 240			; 000000f0H
  00067	c0 e8 04	 shr	 al, 4
  0006a	0a c8		 or	 cl, al
  0006c	8a c2		 mov	 al, dl
  0006e	88 4d ed	 mov	 BYTE PTR _ui8Decrypt1$[ebp+1], cl
  00071	80 e2 0f	 and	 dl, 15			; 0000000fH
  00074	8a cc		 mov	 cl, ah
  00076	c0 e8 04	 shr	 al, 4
  00079	80 e1 f0	 and	 cl, 240			; 000000f0H
  0007c	c0 e4 04	 shl	 ah, 4
  0007f	0a c8		 or	 cl, al
  00081	0a e7		 or	 ah, bh
  00083	8a 45 f4	 mov	 al, BYTE PTR _ui8Encrypt$[ebp]
  00086	0a d5		 or	 dl, ch
  00088	88 4d ee	 mov	 BYTE PTR _ui8Decrypt1$[ebp+2], cl
  0008b	24 f0		 and	 al, 240			; 000000f0H
  0008d	8a cb		 mov	 cl, bl
  0008f	88 65 f1	 mov	 BYTE PTR _ui8Decrypt2$[ebp+1], ah
  00092	c0 e9 04	 shr	 cl, 4
  00095	0a c8		 or	 cl, al
  00097	c0 e3 04	 shl	 bl, 4

; 224  : 	ui8Decrypt2[3] = ((ui8Encrypt[0]&0x0F)<<4) | (ui8Encrypt[4]&0x0F);

  0009a	8b 45 f4	 mov	 eax, DWORD PTR _ui8Encrypt$[ebp]
  0009d	0a de		 or	 bl, dh
  0009f	88 4d ef	 mov	 BYTE PTR _ui8Decrypt1$[ebp+3], cl
  000a2	8b 4d f8	 mov	 ecx, DWORD PTR _ui8Encrypt$[ebp+4]
  000a5	c0 e0 04	 shl	 al, 4
  000a8	80 e1 0f	 and	 cl, 15			; 0000000fH
  000ab	0a c1		 or	 al, cl
  000ad	88 5d f2	 mov	 BYTE PTR _ui8Decrypt2$[ebp+2], bl

; 228  : }

  000b0	8b 4d fc	 mov	 ecx, DWORD PTR __$ArrayPad$[ebp]
  000b3	88 45 f3	 mov	 BYTE PTR _ui8Decrypt2$[ebp+3], al
  000b6	33 cd		 xor	 ecx, ebp
; File E:\Proyectos\JuegosOnlineproyectos\PB\pbblow\Piercing Blow Remake\i3Server\include\i3Base\i3Memory.h

; 134  : 			::CopyMemory( pDest, pSrc, sz);

  000b8	8b 45 ec	 mov	 eax, DWORD PTR _ui8Decrypt1$[ebp]
  000bb	89 06		 mov	 DWORD PTR [esi], eax
; File E:\Proyectos\JuegosOnlineproyectos\PB\pbblow\Piercing Blow Remake\i3Server\src\i3Base\i3NetworkSession.cpp

; 221  : 	ui8Decrypt2[0] = ((ui8Encrypt[6]&0x0F)<<4) | (ui8Encrypt[3]&0x0F);

  000bd	88 55 f0	 mov	 BYTE PTR _ui8Decrypt2$[ebp], dl
; File E:\Proyectos\JuegosOnlineproyectos\PB\pbblow\Piercing Blow Remake\i3Server\include\i3Base\i3Memory.h

; 134  : 			::CopyMemory( pDest, pSrc, sz);

  000c0	8b 45 f0	 mov	 eax, DWORD PTR _ui8Decrypt2$[ebp]
  000c3	89 07		 mov	 DWORD PTR [edi], eax
  000c5	5f		 pop	 edi
  000c6	5e		 pop	 esi
  000c7	5b		 pop	 ebx
; File E:\Proyectos\JuegosOnlineproyectos\PB\pbblow\Piercing Blow Remake\i3Server\src\i3Base\i3NetworkSession.cpp

; 228  : }

  000c8	e8 00 00 00 00	 call	 @__security_check_cookie@4
  000cd	8b e5		 mov	 esp, ebp
  000cf	5d		 pop	 ebp
  000d0	c2 10 00	 ret	 16			; 00000010H
?DataDecript@i3NetworkSession@@QAEX_KPAI1@Z ENDP	; i3NetworkSession::DataDecript
_TEXT	ENDS
; Function compile flags: /Ogtp
; File E:\Proyectos\JuegosOnlineproyectos\PB\pbblow\Piercing Blow Remake\i3Server\src\i3Base\i3NetworkSession.cpp
; File E:\Proyectos\JuegosOnlineproyectos\PB\pbblow\Piercing Blow Remake\i3Server\include\i3Base\i3Memory.h
; File E:\Proyectos\JuegosOnlineproyectos\PB\pbblow\Piercing Blow Remake\i3Server\src\i3Base\i3NetworkSession.cpp
; File E:\Proyectos\JuegosOnlineproyectos\PB\pbblow\Piercing Blow Remake\i3Server\include\i3Base\i3Memory.h
; File E:\Proyectos\JuegosOnlineproyectos\PB\pbblow\Piercing Blow Remake\i3Server\src\i3Base\i3NetworkSession.cpp
; File E:\Proyectos\JuegosOnlineproyectos\PB\pbblow\Piercing Blow Remake\i3Server\include\i3Base\i3Memory.h
; File E:\Proyectos\JuegosOnlineproyectos\PB\pbblow\Piercing Blow Remake\i3Server\src\i3Base\i3NetworkSession.cpp
; File E:\Proyectos\JuegosOnlineproyectos\PB\pbblow\Piercing Blow Remake\i3Server\include\i3Base\i3Memory.h
; File E:\Proyectos\JuegosOnlineproyectos\PB\pbblow\Piercing Blow Remake\i3Server\src\i3Base\i3NetworkSession.cpp
;	COMDAT ?DataEncript@i3NetworkSession@@QAEXIIPA_K@Z
_TEXT	SEGMENT
tv417 = -16						; size = 4
_ui8Encrypt$ = -12					; size = 8
__$ArrayPad$ = -4					; size = 4
_ui32Key1$ = 8						; size = 4
_ui32Key2$ = 12						; size = 4
_pui64Value$ = 16					; size = 4
?DataEncript@i3NetworkSession@@QAEXIIPA_K@Z PROC	; i3NetworkSession::DataEncript, COMDAT
; _this$ = ecx

; 190  : {

  00000	55		 push	 ebp
  00001	8b ec		 mov	 ebp, esp
  00003	83 ec 10	 sub	 esp, 16			; 00000010H
  00006	a1 00 00 00 00	 mov	 eax, DWORD PTR ___security_cookie
  0000b	33 c5		 xor	 eax, ebp
  0000d	89 45 fc	 mov	 DWORD PTR __$ArrayPad$[ebp], eax

; 191  : 	UINT8	ui8Encrypt[8];
; 192  : 
; 193  : 	ui8Encrypt[0] = (UINT8)((((ui32Key1>>24)	& 0xF0))	| ((ui32Key2>>24)	& 0xF0)>>4);

  00010	53		 push	 ebx

; 199  : 	ui8Encrypt[6] = (UINT8)((((ui32Key1>>0)		& 0x0F)<<4)	| ((ui32Key2>>0)	& 0xF0)>>4);

  00011	56		 push	 esi

; 200  : 	ui8Encrypt[7] = (UINT8)((((ui32Key1>>16)	& 0xF0))	| ((ui32Key2>>8)	& 0xF0)>>4);

  00012	57		 push	 edi

; 191  : 	UINT8	ui8Encrypt[8];
; 192  : 
; 193  : 	ui8Encrypt[0] = (UINT8)((((ui32Key1>>24)	& 0xF0))	| ((ui32Key2>>24)	& 0xF0)>>4);

  00013	8b 4d 0c	 mov	 ecx, DWORD PTR _ui32Key2$[ebp]
  00016	8b 5d 08	 mov	 ebx, DWORD PTR _ui32Key1$[ebp]
  00019	8b c3		 mov	 eax, ebx
  0001b	c1 e8 18	 shr	 eax, 24			; 00000018H

; 194  : 	ui8Encrypt[1] = (UINT8)((((ui32Key1>>8)		& 0x0F)<<4)	| ((ui32Key2>>16)	& 0x0F));

  0001e	8b d3		 mov	 edx, ebx
  00020	89 45 f0	 mov	 DWORD PTR tv417[ebp], eax
  00023	24 f0		 and	 al, 240			; 000000f0H
  00025	c1 e9 1c	 shr	 ecx, 28			; 0000001cH
  00028	0a c8		 or	 cl, al
  0002a	c1 ea 08	 shr	 edx, 8
  0002d	88 4d f4	 mov	 BYTE PTR _ui8Encrypt$[ebp], cl
  00030	8a c2		 mov	 al, dl
  00032	8b 4d 0c	 mov	 ecx, DWORD PTR _ui32Key2$[ebp]
  00035	c0 e0 04	 shl	 al, 4
  00038	c1 e9 10	 shr	 ecx, 16			; 00000010H
  0003b	80 e1 0f	 and	 cl, 15			; 0000000fH
  0003e	0a c8		 or	 cl, al
  00040	88 4d f5	 mov	 BYTE PTR _ui8Encrypt$[ebp+1], cl

; 195  : 	ui8Encrypt[2] = (UINT8)((((ui32Key1>>0)		& 0xF0))	| ((ui32Key2>>8)	& 0x0F));

  00043	8b 4d 0c	 mov	 ecx, DWORD PTR _ui32Key2$[ebp]
  00046	8b c1		 mov	 eax, ecx
  00048	c1 e8 08	 shr	 eax, 8

; 196  : 	ui8Encrypt[3] = (UINT8)((((ui32Key1>>16)	& 0x0F)<<4)	| ((ui32Key2>>0)	& 0x0F));

  0004b	80 e1 0f	 and	 cl, 15			; 0000000fH
  0004e	32 c3		 xor	 al, bl
  00050	24 0f		 and	 al, 15			; 0000000fH
  00052	32 c3		 xor	 al, bl
  00054	c1 eb 10	 shr	 ebx, 16			; 00000010H
  00057	88 45 f6	 mov	 BYTE PTR _ui8Encrypt$[ebp+2], al
  0005a	8a c3		 mov	 al, bl
  0005c	c0 e0 04	 shl	 al, 4
  0005f	0a c8		 or	 cl, al

; 197  : 	ui8Encrypt[4] = (UINT8)((((ui32Key1>>8)		& 0xF0))	| ((ui32Key2>>24)	& 0x0F));

  00061	8b 45 0c	 mov	 eax, DWORD PTR _ui32Key2$[ebp]
  00064	c1 e8 18	 shr	 eax, 24			; 00000018H
  00067	32 c2		 xor	 al, dl
  00069	88 4d f7	 mov	 BYTE PTR _ui8Encrypt$[ebp+3], cl

; 198  : 	ui8Encrypt[5] = (UINT8)((((ui32Key1>>24)	& 0x0F)<<4)	| ((ui32Key2>>16)	& 0xF0)>>4);

  0006c	8b 4d f0	 mov	 ecx, DWORD PTR tv417[ebp]
  0006f	24 0f		 and	 al, 15			; 0000000fH
  00071	32 c2		 xor	 al, dl
  00073	c0 e1 04	 shl	 cl, 4
  00076	8b 55 0c	 mov	 edx, DWORD PTR _ui32Key2$[ebp]
  00079	88 45 f8	 mov	 BYTE PTR _ui8Encrypt$[ebp+4], al
  0007c	8b c2		 mov	 eax, edx
  0007e	c1 e8 14	 shr	 eax, 20			; 00000014H
  00081	24 0f		 and	 al, 15			; 0000000fH
  00083	0a c1		 or	 al, cl

; 199  : 	ui8Encrypt[6] = (UINT8)((((ui32Key1>>0)		& 0x0F)<<4)	| ((ui32Key2>>0)	& 0xF0)>>4);

  00085	8b 4d 08	 mov	 ecx, DWORD PTR _ui32Key1$[ebp]
  00088	88 45 f9	 mov	 BYTE PTR _ui8Encrypt$[ebp+5], al
  0008b	8b c2		 mov	 eax, edx
  0008d	c1 e8 04	 shr	 eax, 4

; 200  : 	ui8Encrypt[7] = (UINT8)((((ui32Key1>>16)	& 0xF0))	| ((ui32Key2>>8)	& 0xF0)>>4);

  00090	c1 ea 0c	 shr	 edx, 12			; 0000000cH
  00093	24 0f		 and	 al, 15			; 0000000fH
  00095	8b 7d 10	 mov	 edi, DWORD PTR _pui64Value$[ebp]
  00098	32 d3		 xor	 dl, bl
  0009a	c0 e1 04	 shl	 cl, 4
  0009d	80 e2 0f	 and	 dl, 15			; 0000000fH
  000a0	0a c1		 or	 al, cl
  000a2	32 d3		 xor	 dl, bl

; 202  : 	BitRotateEncript( ui8Encrypt, sizeof( UINT64 ), 3 );

  000a4	6a 03		 push	 3
  000a6	88 45 fa	 mov	 BYTE PTR _ui8Encrypt$[ebp+6], al
  000a9	8d 45 f4	 lea	 eax, DWORD PTR _ui8Encrypt$[ebp]
  000ac	6a 08		 push	 8
  000ae	50		 push	 eax
  000af	88 55 fb	 mov	 BYTE PTR _ui8Encrypt$[ebp+7], dl
  000b2	e8 00 00 00 00	 call	 ?BitRotateEncript@@YAXPAEII@Z ; BitRotateEncript
; File E:\Proyectos\JuegosOnlineproyectos\PB\pbblow\Piercing Blow Remake\i3Server\include\i3Base\i3Memory.h

; 134  : 			::CopyMemory( pDest, pSrc, sz);

  000b7	8b 45 f4	 mov	 eax, DWORD PTR _ui8Encrypt$[ebp]
; File E:\Proyectos\JuegosOnlineproyectos\PB\pbblow\Piercing Blow Remake\i3Server\src\i3Base\i3NetworkSession.cpp

; 202  : 	BitRotateEncript( ui8Encrypt, sizeof( UINT64 ), 3 );

  000ba	83 c4 0c	 add	 esp, 12			; 0000000cH
; File E:\Proyectos\JuegosOnlineproyectos\PB\pbblow\Piercing Blow Remake\i3Server\include\i3Base\i3Memory.h

; 134  : 			::CopyMemory( pDest, pSrc, sz);

  000bd	8b 4d f8	 mov	 ecx, DWORD PTR _ui8Encrypt$[ebp+4]
  000c0	89 07		 mov	 DWORD PTR [edi], eax
  000c2	89 4f 04	 mov	 DWORD PTR [edi+4], ecx
; File E:\Proyectos\JuegosOnlineproyectos\PB\pbblow\Piercing Blow Remake\i3Server\src\i3Base\i3NetworkSession.cpp

; 205  : }

  000c5	8b 4d fc	 mov	 ecx, DWORD PTR __$ArrayPad$[ebp]
; File E:\Proyectos\JuegosOnlineproyectos\PB\pbblow\Piercing Blow Remake\i3Server\include\i3Base\i3Memory.h

; 134  : 			::CopyMemory( pDest, pSrc, sz);

  000c8	5f		 pop	 edi
  000c9	5e		 pop	 esi
; File E:\Proyectos\JuegosOnlineproyectos\PB\pbblow\Piercing Blow Remake\i3Server\src\i3Base\i3NetworkSession.cpp

; 205  : }

  000ca	33 cd		 xor	 ecx, ebp
; File E:\Proyectos\JuegosOnlineproyectos\PB\pbblow\Piercing Blow Remake\i3Server\include\i3Base\i3Memory.h

; 134  : 			::CopyMemory( pDest, pSrc, sz);

  000cc	5b		 pop	 ebx
; File E:\Proyectos\JuegosOnlineproyectos\PB\pbblow\Piercing Blow Remake\i3Server\src\i3Base\i3NetworkSession.cpp

; 205  : }

  000cd	e8 00 00 00 00	 call	 @__security_check_cookie@4
  000d2	8b e5		 mov	 esp, ebp
  000d4	5d		 pop	 ebp
  000d5	c2 0c 00	 ret	 12			; 0000000cH
?DataEncript@i3NetworkSession@@QAEXIIPA_K@Z ENDP	; i3NetworkSession::DataEncript
_TEXT	ENDS
; Function compile flags: /Ogtp
; File E:\Proyectos\JuegosOnlineproyectos\PB\pbblow\Piercing Blow Remake\i3Server\src\i3Base\i3NetworkSession.cpp
; File E:\Proyectos\JuegosOnlineproyectos\PB\pbblow\Piercing Blow Remake\i3Server\include\i3Base\i3Memory.h
; File E:\Proyectos\JuegosOnlineproyectos\PB\pbblow\Piercing Blow Remake\i3Server\src\i3Base\i3NetworkSession.cpp
; File C:\Program Files (x86)\Windows Kits\10\Include\10.0.26100.0\um\winnt.h
; File E:\Proyectos\JuegosOnlineproyectos\PB\pbblow\Piercing Blow Remake\i3Server\include\i3Base\i3NetworkPacket.h
; File E:\Proyectos\JuegosOnlineproyectos\PB\pbblow\Piercing Blow Remake\i3Server\src\i3Base\i3NetworkSession.cpp
; File E:\Proyectos\JuegosOnlineproyectos\PB\pbblow\Piercing Blow Remake\i3Server\include\i3Base\i3NetworkPacket.h
; File E:\Proyectos\JuegosOnlineproyectos\PB\pbblow\Piercing Blow Remake\i3Server\src\i3Base\i3NetworkSession.cpp
;	COMDAT ?SendPacketMessage@i3NetworkSession@@UAEHPAVi3NetworkPacket@@@Z
_TEXT	SEGMENT
_writtenBytes$ = -4					; size = 4
_pPacket$ = 8						; size = 4
?SendPacketMessage@i3NetworkSession@@UAEHPAVi3NetworkPacket@@@Z PROC ; i3NetworkSession::SendPacketMessage, COMDAT
; _this$ = ecx

; 148  : {	

  00000	55		 push	 ebp
  00001	8b ec		 mov	 ebp, esp
  00003	51		 push	 ecx
  00004	56		 push	 esi
  00005	8b f1		 mov	 esi, ecx

; 149  : 	DWORD writtenBytes = 0;

  00007	c7 45 fc 00 00
	00 00		 mov	 DWORD PTR _writtenBytes$[ebp], 0
  0000e	57		 push	 edi
; File E:\Proyectos\JuegosOnlineproyectos\PB\pbblow\Piercing Blow Remake\i3Server\include\i3Base\i3Memory.h

; 144  : 			::SecureZeroMemory( pDest, sz);

  0000f	ba 18 00 00 00	 mov	 edx, 24			; 00000018H
; File E:\Proyectos\JuegosOnlineproyectos\PB\pbblow\Piercing Blow Remake\i3Server\src\i3Base\i3NetworkSession.cpp

; 151  : 	i3mem::FillZero( &m_OverlappedSend, sizeof( OVERLAPPED2 ) );

  00014	8d 7e 10	 lea	 edi, DWORD PTR [esi+16]
; File C:\Program Files (x86)\Windows Kits\10\Include\10.0.26100.0\um\winnt.h

; 23413:     volatile char *vptr = (volatile char *)ptr;

  00017	8b c7		 mov	 eax, edi
  00019	8d a4 24 00 00
	00 00		 npad	 7
$LL8@SendPacket:

; 23414: 
; 23415: #if defined(_M_AMD64) && !defined(_M_ARM64EC)
; 23416: 
; 23417:     __stosb((PBYTE )((DWORD64)vptr), 0, cnt);
; 23418: 
; 23419: #else
; 23420: 
; 23421:     while (cnt) {
; 23422: 
; 23423: #if !defined(_M_CEE) && (defined(_M_ARM) || defined(_M_ARM64) || defined(_M_ARM64EC))
; 23424: 
; 23425:         __iso_volatile_store8(vptr, 0);
; 23426: 
; 23427: #else
; 23428: 
; 23429:         *vptr = 0;

  00020	c6 00 00	 mov	 BYTE PTR [eax], 0

; 23430: 
; 23431: #endif
; 23432: 
; 23433:         vptr++;

  00023	8d 40 01	 lea	 eax, DWORD PTR [eax+1]

; 23434:         cnt--;

  00026	83 ea 01	 sub	 edx, 1
  00029	75 f5		 jne	 SHORT $LL8@SendPacket
; File E:\Proyectos\JuegosOnlineproyectos\PB\pbblow\Piercing Blow Remake\i3Server\include\i3Base\i3NetworkPacket.h

; 50   : 	UINT16		GetDataFieldSize(void)			{ return (*m_PacketHeader.pDataSize) & 0x7FFF ; }

  0002b	8b 4d 08	 mov	 ecx, DWORD PTR _pPacket$[ebp]
; File E:\Proyectos\JuegosOnlineproyectos\PB\pbblow\Piercing Blow Remake\i3Server\src\i3Base\i3NetworkSession.cpp

; 154  : 	if( !::WriteFile( ( HANDLE )m_Socket, pPacket->GetPacketBuffer(), pPacket->GetPacketSize(), &writtenBytes, ( LPOVERLAPPED )&m_OverlappedSend ) )

  0002e	8d 55 fc	 lea	 edx, DWORD PTR _writtenBytes$[ebp]
  00031	c7 46 24 01 00
	00 00		 mov	 DWORD PTR [esi+36], 1
  00038	57		 push	 edi
  00039	52		 push	 edx
; File E:\Proyectos\JuegosOnlineproyectos\PB\pbblow\Piercing Blow Remake\i3Server\include\i3Base\i3NetworkPacket.h

; 50   : 	UINT16		GetDataFieldSize(void)			{ return (*m_PacketHeader.pDataSize) & 0x7FFF ; }

  0003a	8b 41 10	 mov	 eax, DWORD PTR [ecx+16]
  0003d	0f b7 00	 movzx	 eax, WORD PTR [eax]
  00040	25 ff 7f 00 00	 and	 eax, 32767		; 00007fffH

; 47   : 	INT32		GetPacketSize(void)				{ return ( GetDataFieldSize() + PACKETHEADERSIZE ); }	

  00045	83 c0 04	 add	 eax, 4
; File E:\Proyectos\JuegosOnlineproyectos\PB\pbblow\Piercing Blow Remake\i3Server\src\i3Base\i3NetworkSession.cpp

; 154  : 	if( !::WriteFile( ( HANDLE )m_Socket, pPacket->GetPacketBuffer(), pPacket->GetPacketSize(), &writtenBytes, ( LPOVERLAPPED )&m_OverlappedSend ) )

  00048	50		 push	 eax
  00049	8d 41 18	 lea	 eax, DWORD PTR [ecx+24]
  0004c	50		 push	 eax
  0004d	ff 76 40	 push	 DWORD PTR [esi+64]
  00050	ff 15 00 00 00
	00		 call	 DWORD PTR __imp__WriteFile@20
  00056	5f		 pop	 edi
  00057	5e		 pop	 esi
  00058	85 c0		 test	 eax, eax
  0005a	75 26		 jne	 SHORT $LN3@SendPacket

; 155  : 	{
; 156  : 		DWORD lastError = ::GetLastError();

  0005c	ff 15 00 00 00
	00		 call	 DWORD PTR __imp__GetLastError@0

; 157  : 		if( lastError != ERROR_IO_PENDING && lastError != ERROR_SUCCESS )

  00062	3d e5 03 00 00	 cmp	 eax, 997		; 000003e5H
  00067	74 19		 je	 SHORT $LN3@SendPacket
  00069	85 c0		 test	 eax, eax
  0006b	74 15		 je	 SHORT $LN3@SendPacket

; 158  : 		{
; 159  : 			i3Net::GetError("[i3NetworkSession::SendMessage]");			

  0006d	68 00 00 00 00	 push	 OFFSET ??_C@_0CA@PPGNEMDH@?$FLi3NetworkSession?3?3SendMessage?$FN@
  00072	e8 00 00 00 00	 call	 ?GetError@i3Net@@YAHPAD@Z ; i3Net::GetError
  00077	83 c4 04	 add	 esp, 4

; 160  : 			return FALSE;

  0007a	33 c0		 xor	 eax, eax

; 165  : }

  0007c	8b e5		 mov	 esp, ebp
  0007e	5d		 pop	 ebp
  0007f	c2 04 00	 ret	 4
$LN3@SendPacket:

; 161  : 		}
; 162  : 	}
; 163  : 
; 164  : 	return TRUE; 

  00082	b8 01 00 00 00	 mov	 eax, 1

; 165  : }

  00087	8b e5		 mov	 esp, ebp
  00089	5d		 pop	 ebp
  0008a	c2 04 00	 ret	 4
?SendPacketMessage@i3NetworkSession@@UAEHPAVi3NetworkPacket@@@Z ENDP ; i3NetworkSession::SendPacketMessage
_TEXT	ENDS
; Function compile flags: /Ogtp
; File E:\Proyectos\JuegosOnlineproyectos\PB\pbblow\Piercing Blow Remake\i3Server\src\i3Base\i3NetworkSession.cpp
; File E:\Proyectos\JuegosOnlineproyectos\PB\pbblow\Piercing Blow Remake\i3Server\include\i3Base\i3Memory.h
; File C:\Program Files (x86)\Windows Kits\10\Include\10.0.26100.0\um\winnt.h
; File E:\Proyectos\JuegosOnlineproyectos\PB\pbblow\Piercing Blow Remake\i3Server\src\i3Base\i3NetworkSession.cpp
;	COMDAT ?WaitPacketReceive@i3NetworkSession@@UAEHH@Z
_TEXT	SEGMENT
_readBytes$ = -4					; size = 4
_i32Idx$ = 8						; size = 4
?WaitPacketReceive@i3NetworkSession@@UAEHH@Z PROC	; i3NetworkSession::WaitPacketReceive, COMDAT
; _this$ = ecx

; 126  : {

  00000	55		 push	 ebp
  00001	8b ec		 mov	 ebp, esp
  00003	51		 push	 ecx
  00004	8b d1		 mov	 edx, ecx

; 127  : 	if( m_Socket == INVALID_SOCKET )return FALSE;

  00006	83 7a 40 ff	 cmp	 DWORD PTR [edx+64], -1
  0000a	74 6b		 je	 SHORT $LN21@WaitPacket

; 128  : 	DWORD readBytes = 0;
; 129  : 
; 130  : 	i3mem::FillZero( &m_OverlappedRecv, sizeof( OVERLAPPED2 ) );

  0000c	56		 push	 esi
  0000d	8d 72 28	 lea	 esi, DWORD PTR [edx+40]
  00010	c7 45 fc 00 00
	00 00		 mov	 DWORD PTR _readBytes$[ebp], 0
; File E:\Proyectos\JuegosOnlineproyectos\PB\pbblow\Piercing Blow Remake\i3Server\include\i3Base\i3Memory.h

; 144  : 			::SecureZeroMemory( pDest, sz);

  00017	b9 18 00 00 00	 mov	 ecx, 24			; 00000018H
; File C:\Program Files (x86)\Windows Kits\10\Include\10.0.26100.0\um\winnt.h

; 23413:     volatile char *vptr = (volatile char *)ptr;

  0001c	8b c6		 mov	 eax, esi
  0001e	8b ff		 npad	 2
$LL9@WaitPacket:

; 23414: 
; 23415: #if defined(_M_AMD64) && !defined(_M_ARM64EC)
; 23416: 
; 23417:     __stosb((PBYTE )((DWORD64)vptr), 0, cnt);
; 23418: 
; 23419: #else
; 23420: 
; 23421:     while (cnt) {
; 23422: 
; 23423: #if !defined(_M_CEE) && (defined(_M_ARM) || defined(_M_ARM64) || defined(_M_ARM64EC))
; 23424: 
; 23425:         __iso_volatile_store8(vptr, 0);
; 23426: 
; 23427: #else
; 23428: 
; 23429:         *vptr = 0;

  00020	c6 00 00	 mov	 BYTE PTR [eax], 0

; 23430: 
; 23431: #endif
; 23432: 
; 23433:         vptr++;

  00023	8d 40 01	 lea	 eax, DWORD PTR [eax+1]

; 23434:         cnt--;

  00026	83 e9 01	 sub	 ecx, 1
  00029	75 f5		 jne	 SHORT $LL9@WaitPacket
; File E:\Proyectos\JuegosOnlineproyectos\PB\pbblow\Piercing Blow Remake\i3Server\src\i3Base\i3NetworkSession.cpp

; 134  : 	if( !::ReadFile( ( HANDLE )m_Socket, &m_ReceiveBuffer[m_ReceiveSize], ( PACKETBUFFERSIZE - (m_ReceiveSize) ), &readBytes, ( LPOVERLAPPED )&m_OverlappedRecv ) )

  0002b	8b 8a 18 23 00
	00		 mov	 ecx, DWORD PTR [edx+8984]
  00031	8d 45 fc	 lea	 eax, DWORD PTR _readBytes$[ebp]
  00034	56		 push	 esi
  00035	50		 push	 eax
  00036	b8 d0 22 00 00	 mov	 eax, 8912		; 000022d0H
  0003b	c7 42 3c 02 00
	00 00		 mov	 DWORD PTR [edx+60], 2
  00042	2b c1		 sub	 eax, ecx
  00044	50		 push	 eax
  00045	8d 41 48	 lea	 eax, DWORD PTR [ecx+72]
  00048	03 c2		 add	 eax, edx
  0004a	50		 push	 eax
  0004b	ff 72 40	 push	 DWORD PTR [edx+64]
  0004e	ff 15 00 00 00
	00		 call	 DWORD PTR __imp__ReadFile@20
  00054	5e		 pop	 esi
  00055	85 c0		 test	 eax, eax
  00057	75 26		 jne	 SHORT $LN4@WaitPacket

; 135  : 	{
; 136  : 		DWORD lastError = ::GetLastError();

  00059	ff 15 00 00 00
	00		 call	 DWORD PTR __imp__GetLastError@0

; 137  : 		if( lastError != ERROR_IO_PENDING && lastError != ERROR_SUCCESS )

  0005f	3d e5 03 00 00	 cmp	 eax, 997		; 000003e5H
  00064	74 19		 je	 SHORT $LN4@WaitPacket
  00066	85 c0		 test	 eax, eax
  00068	74 15		 je	 SHORT $LN4@WaitPacket

; 138  : 		{
; 139  : 			i3Net::GetError("[i3NetworkSession::WaitPacketReceive]");

  0006a	68 00 00 00 00	 push	 OFFSET ??_C@_0CG@NBCOPKFK@?$FLi3NetworkSession?3?3WaitPacketRe@
  0006f	e8 00 00 00 00	 call	 ?GetError@i3Net@@YAHPAD@Z ; i3Net::GetError
  00074	83 c4 04	 add	 esp, 4
$LN21@WaitPacket:

; 145  : }

  00077	33 c0		 xor	 eax, eax
  00079	8b e5		 mov	 esp, ebp
  0007b	5d		 pop	 ebp
  0007c	c2 04 00	 ret	 4
$LN4@WaitPacket:

; 140  : 			return FALSE;
; 141  : 		}
; 142  : 	}	
; 143  : 
; 144  : 	return TRUE; 

  0007f	b8 01 00 00 00	 mov	 eax, 1

; 145  : }

  00084	8b e5		 mov	 esp, ebp
  00086	5d		 pop	 ebp
  00087	c2 04 00	 ret	 4
?WaitPacketReceive@i3NetworkSession@@UAEHH@Z ENDP	; i3NetworkSession::WaitPacketReceive
_TEXT	ENDS
; Function compile flags: /Ogtp
; File E:\Proyectos\JuegosOnlineproyectos\PB\pbblow\Piercing Blow Remake\i3Server\include\i3Base\i3NetworkSession.h
;	COMDAT ?PacketParsing@i3NetworkSession@@UAEHPADH@Z
_TEXT	SEGMENT
_pPacket$ = 8						; size = 4
_iSize$ = 12						; size = 4
?PacketParsing@i3NetworkSession@@UAEHPADH@Z PROC	; i3NetworkSession::PacketParsing, COMDAT
; _this$ = ecx

; 69   : 	virtual INT32			PacketParsing(char * pPacket, INT32 iSize)		{ return iSize; }

  00000	55		 push	 ebp
  00001	8b ec		 mov	 ebp, esp
  00003	8b 45 0c	 mov	 eax, DWORD PTR _iSize$[ebp]
  00006	5d		 pop	 ebp
  00007	c2 08 00	 ret	 8
?PacketParsing@i3NetworkSession@@UAEHPADH@Z ENDP	; i3NetworkSession::PacketParsing
_TEXT	ENDS
; Function compile flags: /Ogtp
; File E:\Proyectos\JuegosOnlineproyectos\PB\pbblow\Piercing Blow Remake\i3Server\include\i3Base\i3NetworkSession.h
;	COMDAT ?GetIPStringW@i3NetworkSession@@QAEPAGXZ
_TEXT	SEGMENT
?GetIPStringW@i3NetworkSession@@QAEPAGXZ PROC		; i3NetworkSession::GetIPStringW, COMDAT
; _this$ = ecx

; 67   : 	wchar_t *				GetIPStringW(void)			{ return m_wstrIPString; }

  00000	8d 81 40 23 00
	00		 lea	 eax, DWORD PTR [ecx+9024]
  00006	c3		 ret	 0
?GetIPStringW@i3NetworkSession@@QAEPAGXZ ENDP		; i3NetworkSession::GetIPStringW
_TEXT	ENDS
; Function compile flags: /Ogtp
; File E:\Proyectos\JuegosOnlineproyectos\PB\pbblow\Piercing Blow Remake\i3Server\include\i3Base\i3NetworkSession.h
;	COMDAT ?GetIPStringA@i3NetworkSession@@QAEPADXZ
_TEXT	SEGMENT
?GetIPStringA@i3NetworkSession@@QAEPADXZ PROC		; i3NetworkSession::GetIPStringA, COMDAT
; _this$ = ecx

; 66   : 	char *					GetIPStringA(void)			{ return m_strIPString; }

  00000	8d 81 20 23 00
	00		 lea	 eax, DWORD PTR [ecx+8992]
  00006	c3		 ret	 0
?GetIPStringA@i3NetworkSession@@QAEPADXZ ENDP		; i3NetworkSession::GetIPStringA
_TEXT	ENDS
; Function compile flags: /Ogtp
; File E:\Proyectos\JuegosOnlineproyectos\PB\pbblow\Piercing Blow Remake\i3Server\include\i3Base\i3NetworkSession.h
;	COMDAT ?GetIsActive@i3NetworkSession@@QAEHXZ
_TEXT	SEGMENT
?GetIsActive@i3NetworkSession@@QAEHXZ PROC		; i3NetworkSession::GetIsActive, COMDAT
; _this$ = ecx

; 65   : 	BOOL					GetIsActive(void)			{ return m_IsActive;  }

  00000	8b 41 44	 mov	 eax, DWORD PTR [ecx+68]
  00003	c3		 ret	 0
?GetIsActive@i3NetworkSession@@QAEHXZ ENDP		; i3NetworkSession::GetIsActive
_TEXT	ENDS
; Function compile flags: /Ogtp
; File E:\Proyectos\JuegosOnlineproyectos\PB\pbblow\Piercing Blow Remake\i3Server\src\i3Base\i3NetworkSession.cpp
; File E:\Proyectos\JuegosOnlineproyectos\PB\pbblow\Piercing Blow Remake\i3Server\include\i3Base\i3Memory.h
; File C:\Program Files (x86)\Windows Kits\10\Include\10.0.26100.0\um\winnt.h
; File E:\Proyectos\JuegosOnlineproyectos\PB\pbblow\Piercing Blow Remake\i3Server\include\i3Base\i3NetworkPacket.h
; File E:\Proyectos\JuegosOnlineproyectos\PB\pbblow\Piercing Blow Remake\i3Server\src\i3Base\i3NetworkSession.cpp
; File E:\Proyectos\JuegosOnlineproyectos\PB\pbblow\Piercing Blow Remake\i3Server\include\i3Base\i3NetworkPacket.h
; File E:\Proyectos\JuegosOnlineproyectos\PB\pbblow\Piercing Blow Remake\i3Server\src\i3Base\i3NetworkSession.cpp
; File E:\Proyectos\JuegosOnlineproyectos\PB\pbblow\Piercing Blow Remake\i3Server\include\i3Base\i3NetworkPacket.h
; File E:\Proyectos\JuegosOnlineproyectos\PB\pbblow\Piercing Blow Remake\i3Server\src\i3Base\i3NetworkSession.cpp
;	COMDAT ?SendMessageA@i3NetworkSession@@QAEHPAVi3NetworkPacket@@@Z
_TEXT	SEGMENT
_writtenBytes$ = -4					; size = 4
_pPacket$ = 8						; size = 4
?SendMessageA@i3NetworkSession@@QAEHPAVi3NetworkPacket@@@Z PROC ; i3NetworkSession::SendMessageA, COMDAT
; _this$ = ecx

; 168  : {

  00000	55		 push	 ebp
  00001	8b ec		 mov	 ebp, esp
  00003	51		 push	 ecx
  00004	8b d1		 mov	 edx, ecx

; 169  : 	if( !m_IsActive)return FALSE; 

  00006	83 7a 44 00	 cmp	 DWORD PTR [edx+68], 0
  0000a	74 71		 je	 SHORT $LN21@SendMessag

; 170  : 	if( m_Socket == INVALID_SOCKET )return FALSE;

  0000c	83 7a 40 ff	 cmp	 DWORD PTR [edx+64], -1
  00010	74 6b		 je	 SHORT $LN21@SendMessag

; 171  : 	DWORD writtenBytes = 0;
; 172  : 
; 173  : 	i3mem::FillZero( &m_OverlappedSend, sizeof( OVERLAPPED2 ) );

  00012	56		 push	 esi
  00013	8d 72 10	 lea	 esi, DWORD PTR [edx+16]
  00016	c7 45 fc 00 00
	00 00		 mov	 DWORD PTR _writtenBytes$[ebp], 0
; File E:\Proyectos\JuegosOnlineproyectos\PB\pbblow\Piercing Blow Remake\i3Server\include\i3Base\i3Memory.h

; 144  : 			::SecureZeroMemory( pDest, sz);

  0001d	b9 18 00 00 00	 mov	 ecx, 24			; 00000018H
; File C:\Program Files (x86)\Windows Kits\10\Include\10.0.26100.0\um\winnt.h

; 23413:     volatile char *vptr = (volatile char *)ptr;

  00022	8b c6		 mov	 eax, esi
$LL10@SendMessag:

; 23414: 
; 23415: #if defined(_M_AMD64) && !defined(_M_ARM64EC)
; 23416: 
; 23417:     __stosb((PBYTE )((DWORD64)vptr), 0, cnt);
; 23418: 
; 23419: #else
; 23420: 
; 23421:     while (cnt) {
; 23422: 
; 23423: #if !defined(_M_CEE) && (defined(_M_ARM) || defined(_M_ARM64) || defined(_M_ARM64EC))
; 23424: 
; 23425:         __iso_volatile_store8(vptr, 0);
; 23426: 
; 23427: #else
; 23428: 
; 23429:         *vptr = 0;

  00024	c6 00 00	 mov	 BYTE PTR [eax], 0

; 23430: 
; 23431: #endif
; 23432: 
; 23433:         vptr++;

  00027	8d 40 01	 lea	 eax, DWORD PTR [eax+1]

; 23434:         cnt--;

  0002a	83 e9 01	 sub	 ecx, 1
  0002d	75 f5		 jne	 SHORT $LL10@SendMessag
; File E:\Proyectos\JuegosOnlineproyectos\PB\pbblow\Piercing Blow Remake\i3Server\include\i3Base\i3NetworkPacket.h

; 50   : 	UINT16		GetDataFieldSize(void)			{ return (*m_PacketHeader.pDataSize) & 0x7FFF ; }

  0002f	8b 4d 08	 mov	 ecx, DWORD PTR _pPacket$[ebp]
; File E:\Proyectos\JuegosOnlineproyectos\PB\pbblow\Piercing Blow Remake\i3Server\src\i3Base\i3NetworkSession.cpp

; 174  : 	m_OverlappedSend.flags = SESSION_ASYNCFLAG_SEND;

  00032	c7 42 24 01 00
	00 00		 mov	 DWORD PTR [edx+36], 1

; 176  : 	if( !::WriteFile( ( HANDLE )m_Socket, pPacket->GetPacketBuffer(), pPacket->GetPacketSize(), &writtenBytes, ( LPOVERLAPPED )&m_OverlappedSend ) )

  00039	56		 push	 esi
  0003a	8d 75 fc	 lea	 esi, DWORD PTR _writtenBytes$[ebp]
; File E:\Proyectos\JuegosOnlineproyectos\PB\pbblow\Piercing Blow Remake\i3Server\include\i3Base\i3NetworkPacket.h

; 50   : 	UINT16		GetDataFieldSize(void)			{ return (*m_PacketHeader.pDataSize) & 0x7FFF ; }

  0003d	8b 41 10	 mov	 eax, DWORD PTR [ecx+16]
; File E:\Proyectos\JuegosOnlineproyectos\PB\pbblow\Piercing Blow Remake\i3Server\src\i3Base\i3NetworkSession.cpp

; 176  : 	if( !::WriteFile( ( HANDLE )m_Socket, pPacket->GetPacketBuffer(), pPacket->GetPacketSize(), &writtenBytes, ( LPOVERLAPPED )&m_OverlappedSend ) )

  00040	56		 push	 esi
; File E:\Proyectos\JuegosOnlineproyectos\PB\pbblow\Piercing Blow Remake\i3Server\include\i3Base\i3NetworkPacket.h

; 50   : 	UINT16		GetDataFieldSize(void)			{ return (*m_PacketHeader.pDataSize) & 0x7FFF ; }

  00041	0f b7 00	 movzx	 eax, WORD PTR [eax]
  00044	25 ff 7f 00 00	 and	 eax, 32767		; 00007fffH

; 47   : 	INT32		GetPacketSize(void)				{ return ( GetDataFieldSize() + PACKETHEADERSIZE ); }	

  00049	83 c0 04	 add	 eax, 4
; File E:\Proyectos\JuegosOnlineproyectos\PB\pbblow\Piercing Blow Remake\i3Server\src\i3Base\i3NetworkSession.cpp

; 176  : 	if( !::WriteFile( ( HANDLE )m_Socket, pPacket->GetPacketBuffer(), pPacket->GetPacketSize(), &writtenBytes, ( LPOVERLAPPED )&m_OverlappedSend ) )

  0004c	50		 push	 eax
  0004d	8d 41 18	 lea	 eax, DWORD PTR [ecx+24]
  00050	50		 push	 eax
  00051	ff 72 40	 push	 DWORD PTR [edx+64]
  00054	ff 15 00 00 00
	00		 call	 DWORD PTR __imp__WriteFile@20
  0005a	5e		 pop	 esi
  0005b	85 c0		 test	 eax, eax
  0005d	75 26		 jne	 SHORT $LN5@SendMessag

; 177  : 	{
; 178  : 		DWORD lastError = ::GetLastError();

  0005f	ff 15 00 00 00
	00		 call	 DWORD PTR __imp__GetLastError@0

; 179  : 		if( lastError != ERROR_IO_PENDING && lastError != ERROR_SUCCESS )

  00065	3d e5 03 00 00	 cmp	 eax, 997		; 000003e5H
  0006a	74 19		 je	 SHORT $LN5@SendMessag
  0006c	85 c0		 test	 eax, eax
  0006e	74 15		 je	 SHORT $LN5@SendMessag

; 180  : 		{
; 181  : 			i3Net::GetError("[i3NetworkSession::SendMessage]");			

  00070	68 00 00 00 00	 push	 OFFSET ??_C@_0CA@PPGNEMDH@?$FLi3NetworkSession?3?3SendMessage?$FN@
  00075	e8 00 00 00 00	 call	 ?GetError@i3Net@@YAHPAD@Z ; i3Net::GetError
  0007a	83 c4 04	 add	 esp, 4
$LN21@SendMessag:

; 187  : }

  0007d	33 c0		 xor	 eax, eax
  0007f	8b e5		 mov	 esp, ebp
  00081	5d		 pop	 ebp
  00082	c2 04 00	 ret	 4
$LN5@SendMessag:

; 182  : 			return FALSE;
; 183  : 		}
; 184  : 	}
; 185  : 
; 186  : 	return TRUE; 

  00085	b8 01 00 00 00	 mov	 eax, 1

; 187  : }

  0008a	8b e5		 mov	 esp, ebp
  0008c	5d		 pop	 ebp
  0008d	c2 04 00	 ret	 4
?SendMessageA@i3NetworkSession@@QAEHPAVi3NetworkPacket@@@Z ENDP ; i3NetworkSession::SendMessageA
_TEXT	ENDS
; Function compile flags: /Ogtp
; File E:\Proyectos\JuegosOnlineproyectos\PB\pbblow\Piercing Blow Remake\i3Server\src\i3Base\i3NetworkSession.cpp
;	COMDAT ?Dispatch@i3NetworkSession@@QAEXK@Z
_TEXT	SEGMENT
_Transferbytes$ = 8					; size = 4
?Dispatch@i3NetworkSession@@QAEXK@Z PROC		; i3NetworkSession::Dispatch, COMDAT
; _this$ = ecx

; 82   : {

  00000	55		 push	 ebp
  00001	8b ec		 mov	 ebp, esp

; 83   : 	if( Transferbytes == 0 )return;

  00003	8b 45 08	 mov	 eax, DWORD PTR _Transferbytes$[ebp]
  00006	85 c0		 test	 eax, eax
  00008	74 09		 je	 SHORT $LN1@Dispatch

; 84   : 
; 85   : 	DispatchReceive( Transferbytes );

  0000a	89 45 08	 mov	 DWORD PTR _Transferbytes$[ebp], eax

; 86   : }

  0000d	5d		 pop	 ebp

; 84   : 
; 85   : 	DispatchReceive( Transferbytes );

  0000e	e9 00 00 00 00	 jmp	 ?DispatchReceive@i3NetworkSession@@IAEXK@Z ; i3NetworkSession::DispatchReceive
$LN1@Dispatch:

; 86   : }

  00013	5d		 pop	 ebp
  00014	c2 04 00	 ret	 4
?Dispatch@i3NetworkSession@@QAEXK@Z ENDP		; i3NetworkSession::Dispatch
_TEXT	ENDS
; Function compile flags: /Ogtp
; File E:\Proyectos\JuegosOnlineproyectos\PB\pbblow\Piercing Blow Remake\i3Server\src\i3Base\i3NetworkSession.cpp
;	COMDAT ?OnDisconnect@i3NetworkSession@@UAEHH@Z
_TEXT	SEGMENT
_bForceMainThread$ = 8					; size = 4
?OnDisconnect@i3NetworkSession@@UAEHH@Z PROC		; i3NetworkSession::OnDisconnect, COMDAT
; _this$ = ecx

; 66   : {	

  00000	56		 push	 esi
  00001	8b f1		 mov	 esi, ecx

; 67   : 	m_strIPString[0]	= '\0';
; 68   : 	m_wstrIPString[0]	= '\0';

  00003	33 c0		 xor	 eax, eax
  00005	66 89 86 40 23
	00 00		 mov	 WORD PTR [esi+9024], ax

; 69   : 	if(m_Socket != INVALID_SOCKET)

  0000c	8b 46 40	 mov	 eax, DWORD PTR [esi+64]
  0000f	c6 86 20 23 00
	00 00		 mov	 BYTE PTR [esi+8992], 0
  00016	83 f8 ff	 cmp	 eax, -1
  00019	74 19		 je	 SHORT $LN4@OnDisconne

; 70   : 	{
; 71   : 		::shutdown( m_Socket, SD_BOTH);

  0001b	6a 02		 push	 2
  0001d	50		 push	 eax
  0001e	ff 15 00 00 00
	00		 call	 DWORD PTR __imp__shutdown@8

; 72   : 		::closesocket( m_Socket );

  00024	ff 76 40	 push	 DWORD PTR [esi+64]
  00027	ff 15 00 00 00
	00		 call	 DWORD PTR __imp__closesocket@4

; 73   : 		m_Socket = INVALID_SOCKET;

  0002d	c7 46 40 ff ff
	ff ff		 mov	 DWORD PTR [esi+64], -1
$LN4@OnDisconne:

; 74   : 	}
; 75   : 
; 76   : 	m_IsActive	= FALSE; 
; 77   : 
; 78   : 	return TRUE;
; 79   : }

  00034	c7 46 44 00 00
	00 00		 mov	 DWORD PTR [esi+68], 0
  0003b	b8 01 00 00 00	 mov	 eax, 1
  00040	5e		 pop	 esi
  00041	c2 04 00	 ret	 4
?OnDisconnect@i3NetworkSession@@UAEHH@Z ENDP		; i3NetworkSession::OnDisconnect
_TEXT	ENDS
; Function compile flags: /Ogtp
; File E:\Proyectos\JuegosOnlineproyectos\PB\pbblow\Piercing Blow Remake\i3Server\src\i3Base\i3NetworkSession.cpp
;	COMDAT ?OnConnectInit@i3NetworkSession@@UAEHXZ
_TEXT	SEGMENT
?OnConnectInit@i3NetworkSession@@UAEHXZ PROC		; i3NetworkSession::OnConnectInit, COMDAT
; _this$ = ecx

; 61   : 	WaitPacketReceive( -1 );

  00000	8b 01		 mov	 eax, DWORD PTR [ecx]
  00002	6a ff		 push	 -1
  00004	ff 50 24	 call	 DWORD PTR [eax+36]

; 62   : 	return true;

  00007	b8 01 00 00 00	 mov	 eax, 1

; 63   : }

  0000c	c3		 ret	 0
?OnConnectInit@i3NetworkSession@@UAEHXZ ENDP		; i3NetworkSession::OnConnectInit
_TEXT	ENDS
; Function compile flags: /Ogtp
; File E:\Proyectos\JuegosOnlineproyectos\PB\pbblow\Piercing Blow Remake\i3Server\src\i3Base\i3NetworkSession.cpp
;	COMDAT ?OnConnect@i3NetworkSession@@UAEHIPAUsockaddr_in@@@Z
_TEXT	SEGMENT
_Socket$ = 8						; size = 4
_pAddr$ = 12						; size = 4
?OnConnect@i3NetworkSession@@UAEHIPAUsockaddr_in@@@Z PROC ; i3NetworkSession::OnConnect, COMDAT
; _this$ = ecx

; 41   : {	

  00000	55		 push	 ebp
  00001	8b ec		 mov	 ebp, esp

; 42   : 	m_Socket	= Socket; 

  00003	8b 45 08	 mov	 eax, DWORD PTR _Socket$[ebp]
  00006	56		 push	 esi

; 43   : 
; 44   : 	//żążÜ Ăł¸® łŞżĂ °ˇ´ÉĽş ľřŔ»µí .
; 45   : 	i3Net::GetIPToSockA( pAddr, m_strIPString );

  00007	8b 75 0c	 mov	 esi, DWORD PTR _pAddr$[ebp]
  0000a	57		 push	 edi
  0000b	8b f9		 mov	 edi, ecx
  0000d	89 47 40	 mov	 DWORD PTR [edi+64], eax
  00010	8d 87 20 23 00
	00		 lea	 eax, DWORD PTR [edi+8992]
  00016	50		 push	 eax
  00017	56		 push	 esi
  00018	e8 00 00 00 00	 call	 ?GetIPToSockA@i3Net@@YAPADPAUsockaddr_in@@PAD@Z ; i3Net::GetIPToSockA

; 46   : 	i3Net::GetIPToSockW( pAddr, m_wstrIPString );

  0001d	8d 87 40 23 00
	00		 lea	 eax, DWORD PTR [edi+9024]
  00023	50		 push	 eax
  00024	56		 push	 esi
  00025	e8 00 00 00 00	 call	 ?GetIPToSockW@i3Net@@YAPAGPAUsockaddr_in@@PAG@Z ; i3Net::GetIPToSockW

; 47   : 
; 48   : 	//Set Real Adress
; 49   : 	m_ConIp			=	pAddr->sin_addr.s_addr; 

  0002a	8b 46 04	 mov	 eax, DWORD PTR [esi+4]
  0002d	83 c4 10	 add	 esp, 16			; 00000010H
  00030	89 87 80 23 00
	00		 mov	 DWORD PTR [edi+9088], eax

; 50   : 	m_ConPort		=	pAddr->sin_port;

  00036	66 8b 46 02	 mov	 ax, WORD PTR [esi+2]
  0003a	66 89 87 84 23
	00 00		 mov	 WORD PTR [edi+9092], ax

; 51   : 
; 52   : 	m_IsActive	= TRUE; 
; 53   : 
; 54   : 	m_ReceiveSize	= 0; 
; 55   : 
; 56   : 	return TRUE; 

  00041	b8 01 00 00 00	 mov	 eax, 1
  00046	c7 47 44 01 00
	00 00		 mov	 DWORD PTR [edi+68], 1
  0004d	c7 87 18 23 00
	00 00 00 00 00	 mov	 DWORD PTR [edi+8984], 0
  00057	5f		 pop	 edi
  00058	5e		 pop	 esi

; 57   : }

  00059	5d		 pop	 ebp
  0005a	c2 08 00	 ret	 8
?OnConnect@i3NetworkSession@@UAEHIPAUsockaddr_in@@@Z ENDP ; i3NetworkSession::OnConnect
_TEXT	ENDS
; Function compile flags: /Ogtp
; File E:\Proyectos\JuegosOnlineproyectos\PB\pbblow\Piercing Blow Remake\i3Server\src\i3Base\i3NetworkSession.cpp
;	COMDAT ?Destroy@i3NetworkSession@@UAEXXZ
_TEXT	SEGMENT
?Destroy@i3NetworkSession@@UAEXXZ PROC			; i3NetworkSession::Destroy, COMDAT
; _this$ = ecx

; 37   : 	OnDisconnect();

  00000	8b 01		 mov	 eax, DWORD PTR [ecx]
  00002	6a 00		 push	 0
  00004	ff 50 1c	 call	 DWORD PTR [eax+28]

; 38   : }

  00007	c3		 ret	 0
?Destroy@i3NetworkSession@@UAEXXZ ENDP			; i3NetworkSession::Destroy
_TEXT	ENDS
; Function compile flags: /Ogtp
; File E:\Proyectos\JuegosOnlineproyectos\PB\pbblow\Piercing Blow Remake\i3Server\src\i3Base\i3NetworkSession.cpp
;	COMDAT ?Create@i3NetworkSession@@UAEHXZ
_TEXT	SEGMENT
?Create@i3NetworkSession@@UAEHXZ PROC			; i3NetworkSession::Create, COMDAT
; _this$ = ecx

; 32   : 	return TRUE;

  00000	b8 01 00 00 00	 mov	 eax, 1

; 33   : }

  00005	c3		 ret	 0
?Create@i3NetworkSession@@UAEHXZ ENDP			; i3NetworkSession::Create
_TEXT	ENDS
; Function compile flags: /Ogtp
; File E:\Proyectos\JuegosOnlineproyectos\PB\pbblow\Piercing Blow Remake\i3Server\src\i3Base\i3NetworkSession.cpp
;	COMDAT ??1i3NetworkSession@@UAE@XZ
_TEXT	SEGMENT
__$EHRec$ = -12						; size = 12
??1i3NetworkSession@@UAE@XZ PROC			; i3NetworkSession::~i3NetworkSession, COMDAT
; _this$ = ecx

; 26   : {

  00000	55		 push	 ebp
  00001	8b ec		 mov	 ebp, esp
  00003	6a ff		 push	 -1
  00005	68 00 00 00 00	 push	 __ehhandler$??1i3NetworkSession@@UAE@XZ
  0000a	64 a1 00 00 00
	00		 mov	 eax, DWORD PTR fs:0
  00010	50		 push	 eax
  00011	56		 push	 esi
  00012	a1 00 00 00 00	 mov	 eax, DWORD PTR ___security_cookie
  00017	33 c5		 xor	 eax, ebp
  00019	50		 push	 eax
  0001a	8d 45 f4	 lea	 eax, DWORD PTR __$EHRec$[ebp]
  0001d	64 a3 00 00 00
	00		 mov	 DWORD PTR fs:0, eax
  00023	8b f1		 mov	 esi, ecx

; 68   : 	m_wstrIPString[0]	= '\0';

  00025	33 c0		 xor	 eax, eax

; 26   : {

  00027	c7 06 00 00 00
	00		 mov	 DWORD PTR [esi], OFFSET ??_7i3NetworkSession@@6B@

; 67   : 	m_strIPString[0]	= '\0';

  0002d	c6 86 20 23 00
	00 00		 mov	 BYTE PTR [esi+8992], 0

; 68   : 	m_wstrIPString[0]	= '\0';

  00034	66 89 86 40 23
	00 00		 mov	 WORD PTR [esi+9024], ax

; 69   : 	if(m_Socket != INVALID_SOCKET)

  0003b	8b 46 40	 mov	 eax, DWORD PTR [esi+64]
  0003e	83 f8 ff	 cmp	 eax, -1
  00041	74 19		 je	 SHORT $LN9@i3NetworkS

; 70   : 	{
; 71   : 		::shutdown( m_Socket, SD_BOTH);

  00043	6a 02		 push	 2
  00045	50		 push	 eax
  00046	ff 15 00 00 00
	00		 call	 DWORD PTR __imp__shutdown@8

; 72   : 		::closesocket( m_Socket );

  0004c	ff 76 40	 push	 DWORD PTR [esi+64]
  0004f	ff 15 00 00 00
	00		 call	 DWORD PTR __imp__closesocket@4

; 73   : 		m_Socket = INVALID_SOCKET;

  00055	c7 46 40 ff ff
	ff ff		 mov	 DWORD PTR [esi+64], -1
$LN9@i3NetworkS:

; 27   : 	Destroy(); 
; 28   : }

  0005c	8b ce		 mov	 ecx, esi

; 76   : 	m_IsActive	= FALSE; 

  0005e	c7 46 44 00 00
	00 00		 mov	 DWORD PTR [esi+68], 0

; 27   : 	Destroy(); 
; 28   : }

  00065	e8 00 00 00 00	 call	 ??1i3ElementBase@@UAE@XZ ; i3ElementBase::~i3ElementBase
  0006a	8b 4d f4	 mov	 ecx, DWORD PTR __$EHRec$[ebp]
  0006d	64 89 0d 00 00
	00 00		 mov	 DWORD PTR fs:0, ecx
  00074	59		 pop	 ecx
  00075	5e		 pop	 esi
  00076	8b e5		 mov	 esp, ebp
  00078	5d		 pop	 ebp
  00079	c3		 ret	 0
  0007a	cc		 int	 3
  0007b	cc		 int	 3
  0007c	cc		 int	 3
  0007d	cc		 int	 3
  0007e	cc		 int	 3
_TEXT	ENDS
;	COMDAT text$x
text$x	SEGMENT
__ehhandler$??1i3NetworkSession@@UAE@XZ:
  00000	90		 npad	 1
  00001	90		 npad	 1
  00002	8b 54 24 08	 mov	 edx, DWORD PTR [esp+8]
  00006	8d 42 0c	 lea	 eax, DWORD PTR [edx+12]
  00009	8b 4a f8	 mov	 ecx, DWORD PTR [edx-8]
  0000c	33 c8		 xor	 ecx, eax
  0000e	e8 00 00 00 00	 call	 @__security_check_cookie@4
  00013	b8 00 00 00 00	 mov	 eax, OFFSET __ehfuncinfo$??1i3NetworkSession@@UAE@XZ
  00018	e9 00 00 00 00	 jmp	 ___CxxFrameHandler3
text$x	ENDS
??1i3NetworkSession@@UAE@XZ ENDP			; i3NetworkSession::~i3NetworkSession
; Function compile flags: /Ogtp
; File E:\Proyectos\JuegosOnlineproyectos\PB\pbblow\Piercing Blow Remake\i3Server\src\i3Base\i3NetworkSession.cpp
;	COMDAT ??0i3NetworkSession@@QAE@XZ
_TEXT	SEGMENT
_this$ = -4						; size = 4
??0i3NetworkSession@@QAE@XZ PROC			; i3NetworkSession::i3NetworkSession, COMDAT
; _this$ = ecx

; 11   : {

  00000	55		 push	 ebp
  00001	8b ec		 mov	 ebp, esp
  00003	51		 push	 ecx
  00004	56		 push	 esi
  00005	8b f1		 mov	 esi, ecx
  00007	89 75 fc	 mov	 DWORD PTR _this$[ebp], esi
  0000a	e8 00 00 00 00	 call	 ??0i3ElementBase@@QAE@XZ ; i3ElementBase::i3ElementBase

; 12   : 	m_IsActive			= FALSE; 
; 13   : 	m_Socket			= INVALID_SOCKET; 
; 14   : 	m_strIPString[0]	= 0;
; 15   : 	m_wstrIPString[0]	= 0;

  0000f	33 c0		 xor	 eax, eax
  00011	c7 06 00 00 00
	00		 mov	 DWORD PTR [esi], OFFSET ??_7i3NetworkSession@@6B@
  00017	c7 46 44 00 00
	00 00		 mov	 DWORD PTR [esi+68], 0
  0001e	c7 46 40 ff ff
	ff ff		 mov	 DWORD PTR [esi+64], -1
  00025	66 89 86 40 23
	00 00		 mov	 WORD PTR [esi+9024], ax
  0002c	c6 86 20 23 00
	00 00		 mov	 BYTE PTR [esi+8992], 0

; 16   : 	m_WorkThreadIdx		= -1; 
; 17   : 	m_ReceiveSize		= 0;

  00033	89 86 18 23 00
	00		 mov	 DWORD PTR [esi+8984], eax

; 18   : 
; 19   : 	m_ConIp				= 0;

  00039	89 86 80 23 00
	00		 mov	 DWORD PTR [esi+9088], eax

; 20   : 	m_ConPort			= 0;

  0003f	66 89 86 84 23
	00 00		 mov	 WORD PTR [esi+9092], ax

; 21   : 
; 22   : 	m_SessionIdx		= 0;

  00046	89 86 1c 23 00
	00		 mov	 DWORD PTR [esi+8988], eax

; 23   : }

  0004c	8b c6		 mov	 eax, esi
  0004e	c7 86 88 23 00
	00 ff ff ff ff	 mov	 DWORD PTR [esi+9096], -1
  00058	5e		 pop	 esi
  00059	8b e5		 mov	 esp, ebp
  0005b	5d		 pop	 ebp
  0005c	c3		 ret	 0
??0i3NetworkSession@@QAE@XZ ENDP			; i3NetworkSession::i3NetworkSession
_TEXT	ENDS
; Function compile flags: /Ogtp
; File E:\Proyectos\JuegosOnlineproyectos\PB\pbblow\Piercing Blow Remake\i3Server\src\i3Base\i3NetworkSession.cpp
;	COMDAT ?DispatchReceive@i3NetworkSession@@IAEXK@Z
_TEXT	SEGMENT
_Transferbytes$ = 8					; size = 4
?DispatchReceive@i3NetworkSession@@IAEXK@Z PROC		; i3NetworkSession::DispatchReceive, COMDAT
; _this$ = ecx

; 89   : {	

  00000	55		 push	 ebp
  00001	8b ec		 mov	 ebp, esp
  00003	57		 push	 edi
  00004	8b f9		 mov	 edi, ecx

; 90   : 	m_ReceiveSize	= m_ReceiveSize + Transferbytes; 

  00006	8b 4d 08	 mov	 ecx, DWORD PTR _Transferbytes$[ebp]
  00009	03 8f 18 23 00
	00		 add	 ecx, DWORD PTR [edi+8984]
  0000f	89 8f 18 23 00
	00		 mov	 DWORD PTR [edi+8984], ecx

; 91   : 
; 92   : 	//1. ĆĐĹ¶ŔÇ »çŔĚÁî°ˇ ĆĐĹ¶ ąöĆŰ ş¸´Ů Ĺ¬¶§ //Ŕý´ë·Î łŞżŔ¸é ľĘµĘ
; 93   : 	if( m_ReceiveSize >= PACKETBUFFERSIZE )

  00015	81 f9 d0 22 00
	00		 cmp	 ecx, 8912		; 000022d0H
  0001b	7d 65		 jge	 SHORT $LN7@DispatchRe

; 94   : 	{//Error ...żˇ·Ż ŔÔ´Ď´Ů. //·Î±×¸¦ ł˛±â´Â °ÍŔĚ ÁÁ˝Ŕ´Ď´Ů. 
; 95   : 		I3ASSERT_0; 
; 96   : 		return;
; 97   : 	}
; 98   :     
; 99   : 	INT32 iReadSize = 0;

  0001d	56		 push	 esi
  0001e	33 f6		 xor	 esi, esi

; 100  : 	INT32 i32PacketRv;
; 101  : 	while( ( (m_ReceiveSize - iReadSize) >= PACKETHEADERSIZE ) )

  00020	83 f9 04	 cmp	 ecx, 4
  00023	7c 25		 jl	 SHORT $LN14@DispatchRe
$LL2@DispatchRe:

; 102  : 	{		 
; 103  : 		i32PacketRv = PacketParsing( &m_ReceiveBuffer[iReadSize], (m_ReceiveSize - iReadSize) ); 

  00025	8b 17		 mov	 edx, DWORD PTR [edi]
  00027	8d 47 48	 lea	 eax, DWORD PTR [edi+72]
  0002a	2b ce		 sub	 ecx, esi
  0002c	03 c6		 add	 eax, esi
  0002e	51		 push	 ecx
  0002f	50		 push	 eax
  00030	8b cf		 mov	 ecx, edi
  00032	ff 52 20	 call	 DWORD PTR [edx+32]

; 104  : 		if( 0 == i32PacketRv ) break;

  00035	85 c0		 test	 eax, eax
  00037	74 11		 je	 SHORT $LN14@DispatchRe

; 105  : 		iReadSize = iReadSize + i32PacketRv; 

  00039	8b 8f 18 23 00
	00		 mov	 ecx, DWORD PTR [edi+8984]
  0003f	03 f0		 add	 esi, eax
  00041	8b c1		 mov	 eax, ecx
  00043	2b c6		 sub	 eax, esi
  00045	83 f8 04	 cmp	 eax, 4
  00048	7d db		 jge	 SHORT $LL2@DispatchRe
$LN14@DispatchRe:

; 106  : 	}
; 107  : 
; 108  : 	//¸¸ľŕ ąŢŔş ĆĐĹ¶ş¸´Ů ´ő ŔĐŔ¸¸é żˇ·Ż // ŔĚşÎşĐŔş PacketParsingŔĚ ÇÔĽöżˇĽ­ Ăł¸®¸¦ ÇŘÁŕľß ÇŐ´Ď´Ů. 
; 109  : 	if( iReadSize > m_ReceiveSize) 

  0004a	8b 87 18 23 00
	00		 mov	 eax, DWORD PTR [edi+8984]
  00050	3b f0		 cmp	 esi, eax
  00052	7e 10		 jle	 SHORT $LN6@DispatchRe

; 110  : 	{
; 111  : 		m_ReceiveSize = 0;

  00054	5e		 pop	 esi
  00055	c7 87 18 23 00
	00 00 00 00 00	 mov	 DWORD PTR [edi+8984], 0
  0005f	5f		 pop	 edi

; 121  : 	}    
; 122  : 	return; 
; 123  : }

  00060	5d		 pop	 ebp
  00061	c2 04 00	 ret	 4
$LN6@DispatchRe:

; 112  : 		return;
; 113  : 		//I3ASSERT_0; 
; 114  : 	}
; 115  : 	 
; 116  : 	m_ReceiveSize = m_ReceiveSize - iReadSize;	

  00064	2b c6		 sub	 eax, esi
  00066	89 87 18 23 00
	00		 mov	 DWORD PTR [edi+8984], eax

; 117  : 	//ąŢŔş¸¸Ĺ­ Ăł¸® ¸řÇßŔ¸¸é. ąöĆŰ ŔĚµż
; 118  : 	if( 0 != m_ReceiveSize )

  0006c	74 13		 je	 SHORT $LN20@DispatchRe

; 119  : 	{		
; 120  : 		memmove( m_ReceiveBuffer, m_ReceiveBuffer + iReadSize, m_ReceiveSize );

  0006e	50		 push	 eax
  0006f	8d 47 48	 lea	 eax, DWORD PTR [edi+72]
  00072	03 c6		 add	 eax, esi
  00074	50		 push	 eax
  00075	8d 47 48	 lea	 eax, DWORD PTR [edi+72]
  00078	50		 push	 eax
  00079	e8 00 00 00 00	 call	 _memmove
  0007e	83 c4 0c	 add	 esp, 12			; 0000000cH
$LN20@DispatchRe:
  00081	5e		 pop	 esi
$LN7@DispatchRe:
  00082	5f		 pop	 edi

; 121  : 	}    
; 122  : 	return; 
; 123  : }

  00083	5d		 pop	 ebp
  00084	c2 04 00	 ret	 4
?DispatchReceive@i3NetworkSession@@IAEXK@Z ENDP		; i3NetworkSession::DispatchReceive
_TEXT	ENDS
; Function compile flags: /Ogtp
; File E:\Proyectos\JuegosOnlineproyectos\PB\pbblow\Piercing Blow Remake\i3Server\src\i3Base\i3NetworkSession.cpp
;	COMDAT ?_BindObjectRefByType@i3NetworkSession@@SAPAV1@PAXW4I3_CLASSMETA_TYPE@@@Z
_TEXT	SEGMENT
_pBuf$ = 8						; size = 4
_type$ = 12						; size = 4
?_BindObjectRefByType@i3NetworkSession@@SAPAV1@PAXW4I3_CLASSMETA_TYPE@@@Z PROC ; i3NetworkSession::_BindObjectRefByType, COMDAT

; 8    : I3_CLASS_INSTANCE(i3NetworkSession, i3ElementBase); 

  00000	55		 push	 ebp
  00001	8b ec		 mov	 ebp, esp
  00003	8b 0d 00 00 00
	00		 mov	 ecx, DWORD PTR ?s_pClassMetai3NetworkSession@i3NetworkSession@@2PAVi3ClassMeta@@A ; i3NetworkSession::s_pClassMetai3NetworkSession
  00009	ff 75 0c	 push	 DWORD PTR _type$[ebp]
  0000c	ff 75 08	 push	 DWORD PTR _pBuf$[ebp]
  0000f	8b 01		 mov	 eax, DWORD PTR [ecx]
  00011	ff 50 08	 call	 DWORD PTR [eax+8]
  00014	5d		 pop	 ebp
  00015	c3		 ret	 0
?_BindObjectRefByType@i3NetworkSession@@SAPAV1@PAXW4I3_CLASSMETA_TYPE@@@Z ENDP ; i3NetworkSession::_BindObjectRefByType
_TEXT	ENDS
; Function compile flags: /Ogtp
; File E:\Proyectos\JuegosOnlineproyectos\PB\pbblow\Piercing Blow Remake\i3Server\src\i3Base\i3NetworkSession.cpp
; File E:\Proyectos\JuegosOnlineproyectos\PB\pbblow\Piercing Blow Remake\i3Server\include\i3Base\i3ElementBase.h
; File E:\Proyectos\JuegosOnlineproyectos\PB\pbblow\Piercing Blow Remake\i3Server\src\i3Base\i3NetworkSession.cpp
;	COMDAT ?_BindObjectByType@i3NetworkSession@@SAPAV1@PAXW4I3_CLASSMETA_TYPE@@@Z
_TEXT	SEGMENT
_pBuf$ = 8						; size = 4
_type$ = 12						; size = 4
?_BindObjectByType@i3NetworkSession@@SAPAV1@PAXW4I3_CLASSMETA_TYPE@@@Z PROC ; i3NetworkSession::_BindObjectByType, COMDAT

; 8    : I3_CLASS_INSTANCE(i3NetworkSession, i3ElementBase); 

  00000	55		 push	 ebp
  00001	8b ec		 mov	 ebp, esp
  00003	8b 0d 00 00 00
	00		 mov	 ecx, DWORD PTR ?s_pClassMetai3NetworkSession@i3NetworkSession@@2PAVi3ClassMeta@@A ; i3NetworkSession::s_pClassMetai3NetworkSession
  00009	ff 75 0c	 push	 DWORD PTR _type$[ebp]
  0000c	ff 75 08	 push	 DWORD PTR _pBuf$[ebp]
  0000f	8b 01		 mov	 eax, DWORD PTR [ecx]
  00011	ff 50 08	 call	 DWORD PTR [eax+8]
; File E:\Proyectos\JuegosOnlineproyectos\PB\pbblow\Piercing Blow Remake\i3Server\include\i3Base\i3ElementBase.h

; 392  : 		m_RefCount++;

  00014	ff 40 04	 inc	 DWORD PTR [eax+4]
; File E:\Proyectos\JuegosOnlineproyectos\PB\pbblow\Piercing Blow Remake\i3Server\src\i3Base\i3NetworkSession.cpp

; 8    : I3_CLASS_INSTANCE(i3NetworkSession, i3ElementBase); 

  00017	5d		 pop	 ebp
  00018	c3		 ret	 0
?_BindObjectByType@i3NetworkSession@@SAPAV1@PAXW4I3_CLASSMETA_TYPE@@@Z ENDP ; i3NetworkSession::_BindObjectByType
_TEXT	ENDS
; Function compile flags: /Ogtp
; File E:\Proyectos\JuegosOnlineproyectos\PB\pbblow\Piercing Blow Remake\i3Server\src\i3Base\i3NetworkSession.cpp
;	COMDAT ?_NewObjectRefByType@i3NetworkSession@@SAPAV1@W4I3_CLASSMETA_TYPE@@@Z
_TEXT	SEGMENT
_type$ = 8						; size = 4
?_NewObjectRefByType@i3NetworkSession@@SAPAV1@W4I3_CLASSMETA_TYPE@@@Z PROC ; i3NetworkSession::_NewObjectRefByType, COMDAT

; 8    : I3_CLASS_INSTANCE(i3NetworkSession, i3ElementBase); 

  00000	55		 push	 ebp
  00001	8b ec		 mov	 ebp, esp
  00003	8b 0d 00 00 00
	00		 mov	 ecx, DWORD PTR ?s_pClassMetai3NetworkSession@i3NetworkSession@@2PAVi3ClassMeta@@A ; i3NetworkSession::s_pClassMetai3NetworkSession
  00009	ff 75 08	 push	 DWORD PTR _type$[ebp]
  0000c	8b 01		 mov	 eax, DWORD PTR [ecx]
  0000e	ff 50 04	 call	 DWORD PTR [eax+4]
  00011	5d		 pop	 ebp
  00012	c3		 ret	 0
?_NewObjectRefByType@i3NetworkSession@@SAPAV1@W4I3_CLASSMETA_TYPE@@@Z ENDP ; i3NetworkSession::_NewObjectRefByType
_TEXT	ENDS
; Function compile flags: /Ogtp
; File E:\Proyectos\JuegosOnlineproyectos\PB\pbblow\Piercing Blow Remake\i3Server\src\i3Base\i3NetworkSession.cpp
; File E:\Proyectos\JuegosOnlineproyectos\PB\pbblow\Piercing Blow Remake\i3Server\include\i3Base\i3ElementBase.h
; File E:\Proyectos\JuegosOnlineproyectos\PB\pbblow\Piercing Blow Remake\i3Server\src\i3Base\i3NetworkSession.cpp
;	COMDAT ?_NewObjectByType@i3NetworkSession@@SAPAV1@W4I3_CLASSMETA_TYPE@@@Z
_TEXT	SEGMENT
_type$ = 8						; size = 4
?_NewObjectByType@i3NetworkSession@@SAPAV1@W4I3_CLASSMETA_TYPE@@@Z PROC ; i3NetworkSession::_NewObjectByType, COMDAT

; 8    : I3_CLASS_INSTANCE(i3NetworkSession, i3ElementBase); 

  00000	55		 push	 ebp
  00001	8b ec		 mov	 ebp, esp
  00003	8b 0d 00 00 00
	00		 mov	 ecx, DWORD PTR ?s_pClassMetai3NetworkSession@i3NetworkSession@@2PAVi3ClassMeta@@A ; i3NetworkSession::s_pClassMetai3NetworkSession
  00009	ff 75 08	 push	 DWORD PTR _type$[ebp]
  0000c	8b 01		 mov	 eax, DWORD PTR [ecx]
  0000e	ff 50 04	 call	 DWORD PTR [eax+4]
; File E:\Proyectos\JuegosOnlineproyectos\PB\pbblow\Piercing Blow Remake\i3Server\include\i3Base\i3ElementBase.h

; 392  : 		m_RefCount++;

  00011	ff 40 04	 inc	 DWORD PTR [eax+4]
; File E:\Proyectos\JuegosOnlineproyectos\PB\pbblow\Piercing Blow Remake\i3Server\src\i3Base\i3NetworkSession.cpp

; 8    : I3_CLASS_INSTANCE(i3NetworkSession, i3ElementBase); 

  00014	5d		 pop	 ebp
  00015	c3		 ret	 0
?_NewObjectByType@i3NetworkSession@@SAPAV1@W4I3_CLASSMETA_TYPE@@@Z ENDP ; i3NetworkSession::_NewObjectByType
_TEXT	ENDS
; Function compile flags: /Ogtp
; File E:\Proyectos\JuegosOnlineproyectos\PB\pbblow\Piercing Blow Remake\i3Server\src\i3Base\i3NetworkSession.cpp
;	COMDAT ?_BindObjectRef@i3NetworkSession@@SAPAV1@PAX@Z
_TEXT	SEGMENT
_pBuf$ = 8						; size = 4
?_BindObjectRef@i3NetworkSession@@SAPAV1@PAX@Z PROC	; i3NetworkSession::_BindObjectRef, COMDAT

; 8    : I3_CLASS_INSTANCE(i3NetworkSession, i3ElementBase); 

  00000	55		 push	 ebp
  00001	8b ec		 mov	 ebp, esp
  00003	8b 0d 00 00 00
	00		 mov	 ecx, DWORD PTR ?s_pClassMetai3NetworkSession@i3NetworkSession@@2PAVi3ClassMeta@@A ; i3NetworkSession::s_pClassMetai3NetworkSession
  00009	6a 00		 push	 0
  0000b	ff 75 08	 push	 DWORD PTR _pBuf$[ebp]
  0000e	8b 01		 mov	 eax, DWORD PTR [ecx]
  00010	ff 50 08	 call	 DWORD PTR [eax+8]
  00013	5d		 pop	 ebp
  00014	c3		 ret	 0
?_BindObjectRef@i3NetworkSession@@SAPAV1@PAX@Z ENDP	; i3NetworkSession::_BindObjectRef
_TEXT	ENDS
; Function compile flags: /Ogtp
; File E:\Proyectos\JuegosOnlineproyectos\PB\pbblow\Piercing Blow Remake\i3Server\src\i3Base\i3NetworkSession.cpp
; File E:\Proyectos\JuegosOnlineproyectos\PB\pbblow\Piercing Blow Remake\i3Server\include\i3Base\i3ElementBase.h
; File E:\Proyectos\JuegosOnlineproyectos\PB\pbblow\Piercing Blow Remake\i3Server\src\i3Base\i3NetworkSession.cpp
;	COMDAT ?_BindObject@i3NetworkSession@@SAPAV1@PAX@Z
_TEXT	SEGMENT
_pBuf$ = 8						; size = 4
?_BindObject@i3NetworkSession@@SAPAV1@PAX@Z PROC	; i3NetworkSession::_BindObject, COMDAT

; 8    : I3_CLASS_INSTANCE(i3NetworkSession, i3ElementBase); 

  00000	55		 push	 ebp
  00001	8b ec		 mov	 ebp, esp
  00003	8b 0d 00 00 00
	00		 mov	 ecx, DWORD PTR ?s_pClassMetai3NetworkSession@i3NetworkSession@@2PAVi3ClassMeta@@A ; i3NetworkSession::s_pClassMetai3NetworkSession
  00009	6a 00		 push	 0
  0000b	ff 75 08	 push	 DWORD PTR _pBuf$[ebp]
  0000e	8b 01		 mov	 eax, DWORD PTR [ecx]
  00010	ff 50 08	 call	 DWORD PTR [eax+8]
; File E:\Proyectos\JuegosOnlineproyectos\PB\pbblow\Piercing Blow Remake\i3Server\include\i3Base\i3ElementBase.h

; 392  : 		m_RefCount++;

  00013	ff 40 04	 inc	 DWORD PTR [eax+4]
; File E:\Proyectos\JuegosOnlineproyectos\PB\pbblow\Piercing Blow Remake\i3Server\src\i3Base\i3NetworkSession.cpp

; 8    : I3_CLASS_INSTANCE(i3NetworkSession, i3ElementBase); 

  00016	5d		 pop	 ebp
  00017	c3		 ret	 0
?_BindObject@i3NetworkSession@@SAPAV1@PAX@Z ENDP	; i3NetworkSession::_BindObject
_TEXT	ENDS
; Function compile flags: /Ogtp
; File E:\Proyectos\JuegosOnlineproyectos\PB\pbblow\Piercing Blow Remake\i3Server\src\i3Base\i3NetworkSession.cpp
;	COMDAT ?_NewObjectRef@i3NetworkSession@@SAPAV1@XZ
_TEXT	SEGMENT
?_NewObjectRef@i3NetworkSession@@SAPAV1@XZ PROC		; i3NetworkSession::_NewObjectRef, COMDAT

; 8    : I3_CLASS_INSTANCE(i3NetworkSession, i3ElementBase); 

  00000	8b 0d 00 00 00
	00		 mov	 ecx, DWORD PTR ?s_pClassMetai3NetworkSession@i3NetworkSession@@2PAVi3ClassMeta@@A ; i3NetworkSession::s_pClassMetai3NetworkSession
  00006	6a 00		 push	 0
  00008	8b 01		 mov	 eax, DWORD PTR [ecx]
  0000a	ff 50 04	 call	 DWORD PTR [eax+4]
  0000d	c3		 ret	 0
?_NewObjectRef@i3NetworkSession@@SAPAV1@XZ ENDP		; i3NetworkSession::_NewObjectRef
_TEXT	ENDS
; Function compile flags: /Ogtp
; File E:\Proyectos\JuegosOnlineproyectos\PB\pbblow\Piercing Blow Remake\i3Server\src\i3Base\i3NetworkSession.cpp
; File E:\Proyectos\JuegosOnlineproyectos\PB\pbblow\Piercing Blow Remake\i3Server\include\i3Base\i3ElementBase.h
; File E:\Proyectos\JuegosOnlineproyectos\PB\pbblow\Piercing Blow Remake\i3Server\src\i3Base\i3NetworkSession.cpp
;	COMDAT ?_NewObject@i3NetworkSession@@SAPAV1@XZ
_TEXT	SEGMENT
?_NewObject@i3NetworkSession@@SAPAV1@XZ PROC		; i3NetworkSession::_NewObject, COMDAT

; 8    : I3_CLASS_INSTANCE(i3NetworkSession, i3ElementBase); 

  00000	8b 0d 00 00 00
	00		 mov	 ecx, DWORD PTR ?s_pClassMetai3NetworkSession@i3NetworkSession@@2PAVi3ClassMeta@@A ; i3NetworkSession::s_pClassMetai3NetworkSession
  00006	6a 00		 push	 0
  00008	8b 01		 mov	 eax, DWORD PTR [ecx]
  0000a	ff 50 04	 call	 DWORD PTR [eax+4]
; File E:\Proyectos\JuegosOnlineproyectos\PB\pbblow\Piercing Blow Remake\i3Server\include\i3Base\i3ElementBase.h

; 392  : 		m_RefCount++;

  0000d	ff 40 04	 inc	 DWORD PTR [eax+4]
; File E:\Proyectos\JuegosOnlineproyectos\PB\pbblow\Piercing Blow Remake\i3Server\src\i3Base\i3NetworkSession.cpp

; 8    : I3_CLASS_INSTANCE(i3NetworkSession, i3ElementBase); 

  00010	c3		 ret	 0
?_NewObject@i3NetworkSession@@SAPAV1@XZ ENDP		; i3NetworkSession::_NewObject
_TEXT	ENDS
; Function compile flags: /Ogtp
; File E:\Proyectos\JuegosOnlineproyectos\PB\pbblow\Piercing Blow Remake\i3Server\src\i3Base\i3NetworkSession.cpp
;	COMDAT ?SetGhostClass@i3NetworkSession@@SAXPAVi3ClassMeta@@@Z
_TEXT	SEGMENT
_pMeta$ = 8						; size = 4
?SetGhostClass@i3NetworkSession@@SAXPAVi3ClassMeta@@@Z PROC ; i3NetworkSession::SetGhostClass, COMDAT

; 8    : I3_CLASS_INSTANCE(i3NetworkSession, i3ElementBase); 

  00000	55		 push	 ebp
  00001	8b ec		 mov	 ebp, esp
  00003	ff 75 08	 push	 DWORD PTR _pMeta$[ebp]
  00006	8b 0d 00 00 00
	00		 mov	 ecx, DWORD PTR ?s_pClassMetai3NetworkSession@i3NetworkSession@@2PAVi3ClassMeta@@A ; i3NetworkSession::s_pClassMetai3NetworkSession
  0000c	e8 00 00 00 00	 call	 ?SetGhostClass@i3ClassMeta@@QAEXPAV1@@Z ; i3ClassMeta::SetGhostClass
  00011	5d		 pop	 ebp
  00012	c3		 ret	 0
?SetGhostClass@i3NetworkSession@@SAXPAVi3ClassMeta@@@Z ENDP ; i3NetworkSession::SetGhostClass
_TEXT	ENDS
; Function compile flags: /Ogtp
; File E:\Proyectos\JuegosOnlineproyectos\PB\pbblow\Piercing Blow Remake\i3Server\src\i3Base\i3NetworkSession.cpp
;	COMDAT ?SetConcreteClass@i3NetworkSession@@SAXPAVi3ClassMeta@@@Z
_TEXT	SEGMENT
_pMeta$ = 8						; size = 4
?SetConcreteClass@i3NetworkSession@@SAXPAVi3ClassMeta@@@Z PROC ; i3NetworkSession::SetConcreteClass, COMDAT

; 8    : I3_CLASS_INSTANCE(i3NetworkSession, i3ElementBase); 

  00000	55		 push	 ebp
  00001	8b ec		 mov	 ebp, esp
  00003	ff 75 08	 push	 DWORD PTR _pMeta$[ebp]
  00006	8b 0d 00 00 00
	00		 mov	 ecx, DWORD PTR ?s_pClassMetai3NetworkSession@i3NetworkSession@@2PAVi3ClassMeta@@A ; i3NetworkSession::s_pClassMetai3NetworkSession
  0000c	e8 00 00 00 00	 call	 ?SetConcreteClass@i3ClassMeta@@QAEXPAV1@@Z ; i3ClassMeta::SetConcreteClass
  00011	5d		 pop	 ebp
  00012	c3		 ret	 0
?SetConcreteClass@i3NetworkSession@@SAXPAVi3ClassMeta@@@Z ENDP ; i3NetworkSession::SetConcreteClass
_TEXT	ENDS
; Function compile flags: /Ogtp
; File E:\Proyectos\JuegosOnlineproyectos\PB\pbblow\Piercing Blow Remake\i3Server\src\i3Base\i3NetworkSession.cpp
;	COMDAT ?RegisterMeta@i3NetworkSession@@SAXXZ
_TEXT	SEGMENT
?RegisterMeta@i3NetworkSession@@SAXXZ PROC		; i3NetworkSession::RegisterMeta, COMDAT

; 8    : I3_CLASS_INSTANCE(i3NetworkSession, i3ElementBase); 

  00000	8b 0d 00 00 00
	00		 mov	 ecx, DWORD PTR ?s_pClassMetai3NetworkSession@i3NetworkSession@@2PAVi3ClassMeta@@A ; i3NetworkSession::s_pClassMetai3NetworkSession
  00006	e9 00 00 00 00	 jmp	 ?Register@i3ClassMeta@@QAEXXZ ; i3ClassMeta::Register
?RegisterMeta@i3NetworkSession@@SAXXZ ENDP		; i3NetworkSession::RegisterMeta
_TEXT	ENDS
; Function compile flags: /Ogtp
; File E:\Proyectos\JuegosOnlineproyectos\PB\pbblow\Piercing Blow Remake\i3Server\src\i3Base\i3NetworkSession.cpp
;	COMDAT ?GetMeta@i3NetworkSession@@UAEPAVi3ClassMeta@@XZ
_TEXT	SEGMENT
?GetMeta@i3NetworkSession@@UAEPAVi3ClassMeta@@XZ PROC	; i3NetworkSession::GetMeta, COMDAT
; _this$ = ecx

; 8    : I3_CLASS_INSTANCE(i3NetworkSession, i3ElementBase); 

  00000	a1 00 00 00 00	 mov	 eax, DWORD PTR ?s_pClassMetai3NetworkSession@i3NetworkSession@@2PAVi3ClassMeta@@A ; i3NetworkSession::s_pClassMetai3NetworkSession
  00005	c3		 ret	 0
?GetMeta@i3NetworkSession@@UAEPAVi3ClassMeta@@XZ ENDP	; i3NetworkSession::GetMeta
_TEXT	ENDS
; Function compile flags: /Ogtp
; File E:\Proyectos\JuegosOnlineproyectos\PB\pbblow\Piercing Blow Remake\i3Server\include\i3Base\i3NetworkSession.h
;	COMDAT ?GetClassMeta@i3NetworkSession@@SAPAVi3ClassMeta@@XZ
_TEXT	SEGMENT
?GetClassMeta@i3NetworkSession@@SAPAVi3ClassMeta@@XZ PROC ; i3NetworkSession::GetClassMeta, COMDAT

; 20   : 	I3_CLASS_DEFINE( i3NetworkSession ); 

  00000	a1 00 00 00 00	 mov	 eax, DWORD PTR ?s_pClassMetai3NetworkSession@i3NetworkSession@@2PAVi3ClassMeta@@A ; i3NetworkSession::s_pClassMetai3NetworkSession
  00005	c3		 ret	 0
?GetClassMeta@i3NetworkSession@@SAPAVi3ClassMeta@@XZ ENDP ; i3NetworkSession::GetClassMeta
_TEXT	ENDS
; Function compile flags: /Ogtp
;	COMDAT ??4OVERLAPPED2@@QAEAAU0@$$QAU0@@Z
_TEXT	SEGMENT
___that$ = 8						; size = 4
??4OVERLAPPED2@@QAEAAU0@$$QAU0@@Z PROC			; OVERLAPPED2::operator=, COMDAT
; _this$ = ecx
  00000	55		 push	 ebp
  00001	8b ec		 mov	 ebp, esp
  00003	8b 55 08	 mov	 edx, DWORD PTR ___that$[ebp]
  00006	8b 02		 mov	 eax, DWORD PTR [edx]
  00008	89 01		 mov	 DWORD PTR [ecx], eax
  0000a	8b 42 04	 mov	 eax, DWORD PTR [edx+4]
  0000d	89 41 04	 mov	 DWORD PTR [ecx+4], eax
  00010	8b 42 08	 mov	 eax, DWORD PTR [edx+8]
  00013	89 41 08	 mov	 DWORD PTR [ecx+8], eax
  00016	8b 42 0c	 mov	 eax, DWORD PTR [edx+12]
  00019	89 41 0c	 mov	 DWORD PTR [ecx+12], eax
  0001c	8b 42 10	 mov	 eax, DWORD PTR [edx+16]
  0001f	89 41 10	 mov	 DWORD PTR [ecx+16], eax
  00022	8b 42 14	 mov	 eax, DWORD PTR [edx+20]
  00025	89 41 14	 mov	 DWORD PTR [ecx+20], eax
  00028	8b c1		 mov	 eax, ecx
  0002a	5d		 pop	 ebp
  0002b	c2 04 00	 ret	 4
??4OVERLAPPED2@@QAEAAU0@$$QAU0@@Z ENDP			; OVERLAPPED2::operator=
_TEXT	ENDS
; Function compile flags: /Ogtp
;	COMDAT ??4OVERLAPPED2@@QAEAAU0@ABU0@@Z
_TEXT	SEGMENT
___that$ = 8						; size = 4
??4OVERLAPPED2@@QAEAAU0@ABU0@@Z PROC			; OVERLAPPED2::operator=, COMDAT
; _this$ = ecx
  00000	55		 push	 ebp
  00001	8b ec		 mov	 ebp, esp
  00003	8b 55 08	 mov	 edx, DWORD PTR ___that$[ebp]
  00006	8b 02		 mov	 eax, DWORD PTR [edx]
  00008	89 01		 mov	 DWORD PTR [ecx], eax
  0000a	8b 42 04	 mov	 eax, DWORD PTR [edx+4]
  0000d	89 41 04	 mov	 DWORD PTR [ecx+4], eax
  00010	8b 42 08	 mov	 eax, DWORD PTR [edx+8]
  00013	89 41 08	 mov	 DWORD PTR [ecx+8], eax
  00016	8b 42 0c	 mov	 eax, DWORD PTR [edx+12]
  00019	89 41 0c	 mov	 DWORD PTR [ecx+12], eax
  0001c	8b 42 10	 mov	 eax, DWORD PTR [edx+16]
  0001f	89 41 10	 mov	 DWORD PTR [ecx+16], eax
  00022	8b 42 14	 mov	 eax, DWORD PTR [edx+20]
  00025	89 41 14	 mov	 DWORD PTR [ecx+20], eax
  00028	8b c1		 mov	 eax, ecx
  0002a	5d		 pop	 ebp
  0002b	c2 04 00	 ret	 4
??4OVERLAPPED2@@QAEAAU0@ABU0@@Z ENDP			; OVERLAPPED2::operator=
_TEXT	ENDS
; Function compile flags: /Ogtp
;	COMDAT ??_Ei3MemoryPool@@UAEPAXI@Z
_TEXT	SEGMENT
__$EHRec$ = -12						; size = 12
___flags$ = 8						; size = 4
??_Ei3MemoryPool@@UAEPAXI@Z PROC			; i3MemoryPool::`vector deleting destructor', COMDAT
; _this$ = ecx
  00000	55		 push	 ebp
  00001	8b ec		 mov	 ebp, esp
  00003	6a ff		 push	 -1
  00005	68 00 00 00 00	 push	 __ehhandler$??_Ei3MemoryPool@@UAEPAXI@Z
  0000a	64 a1 00 00 00
	00		 mov	 eax, DWORD PTR fs:0
  00010	50		 push	 eax
  00011	53		 push	 ebx
  00012	56		 push	 esi
  00013	57		 push	 edi
  00014	a1 00 00 00 00	 mov	 eax, DWORD PTR ___security_cookie
  00019	33 c5		 xor	 eax, ebp
  0001b	50		 push	 eax
  0001c	8d 45 f4	 lea	 eax, DWORD PTR __$EHRec$[ebp]
  0001f	64 a3 00 00 00
	00		 mov	 DWORD PTR fs:0, eax
  00025	8b f1		 mov	 esi, ecx
  00027	8b 45 08	 mov	 eax, DWORD PTR ___flags$[ebp]
  0002a	8b f8		 mov	 edi, eax
  0002c	83 e7 01	 and	 edi, 1
  0002f	a8 02		 test	 al, 2
  00031	74 40		 je	 SHORT $LN2@vector
  00033	68 00 00 00 00	 push	 OFFSET ??1i3MemoryPool@@UAE@XZ ; i3MemoryPool::~i3MemoryPool
  00038	ff 76 fc	 push	 DWORD PTR [esi-4]
  0003b	8d 5e fc	 lea	 ebx, DWORD PTR [esi-4]
  0003e	6a 04		 push	 4
  00040	56		 push	 esi
  00041	e8 00 00 00 00	 call	 ??_M@YGXPAXIIP6EX0@Z@Z
  00046	85 ff		 test	 edi, edi
  00048	74 13		 je	 SHORT $LN3@vector
  0004a	8b 0b		 mov	 ecx, DWORD PTR [ebx]
  0004c	8d 0c 8d 04 00
	00 00		 lea	 ecx, DWORD PTR [ecx*4+4]
  00053	51		 push	 ecx
  00054	53		 push	 ebx
  00055	e8 00 00 00 00	 call	 ??_V@YAXPAXI@Z		; operator delete[]
  0005a	83 c4 08	 add	 esp, 8
$LN3@vector:
  0005d	8b c3		 mov	 eax, ebx
  0005f	8b 4d f4	 mov	 ecx, DWORD PTR __$EHRec$[ebp]
  00062	64 89 0d 00 00
	00 00		 mov	 DWORD PTR fs:0, ecx
  00069	59		 pop	 ecx
  0006a	5f		 pop	 edi
  0006b	5e		 pop	 esi
  0006c	5b		 pop	 ebx
  0006d	8b e5		 mov	 esp, ebp
  0006f	5d		 pop	 ebp
  00070	c2 04 00	 ret	 4
$LN2@vector:
  00073	e8 00 00 00 00	 call	 ??1i3MemoryPool@@UAE@XZ	; i3MemoryPool::~i3MemoryPool
  00078	85 ff		 test	 edi, edi
  0007a	74 0b		 je	 SHORT $LN4@vector
  0007c	6a 04		 push	 4
  0007e	56		 push	 esi
  0007f	e8 00 00 00 00	 call	 ??3@YAXPAXI@Z		; operator delete
  00084	83 c4 08	 add	 esp, 8
$LN4@vector:
  00087	8b c6		 mov	 eax, esi
  00089	8b 4d f4	 mov	 ecx, DWORD PTR __$EHRec$[ebp]
  0008c	64 89 0d 00 00
	00 00		 mov	 DWORD PTR fs:0, ecx
  00093	59		 pop	 ecx
  00094	5f		 pop	 edi
  00095	5e		 pop	 esi
  00096	5b		 pop	 ebx
  00097	8b e5		 mov	 esp, ebp
  00099	5d		 pop	 ebp
  0009a	c2 04 00	 ret	 4
  0009d	cc		 int	 3
  0009e	cc		 int	 3
  0009f	cc		 int	 3
  000a0	cc		 int	 3
  000a1	cc		 int	 3
_TEXT	ENDS
;	COMDAT text$x
text$x	SEGMENT
__ehhandler$??_Ei3MemoryPool@@UAEPAXI@Z:
  00000	90		 npad	 1
  00001	90		 npad	 1
  00002	8b 54 24 08	 mov	 edx, DWORD PTR [esp+8]
  00006	8d 42 0c	 lea	 eax, DWORD PTR [edx+12]
  00009	8b 4a f0	 mov	 ecx, DWORD PTR [edx-16]
  0000c	33 c8		 xor	 ecx, eax
  0000e	e8 00 00 00 00	 call	 @__security_check_cookie@4
  00013	b8 00 00 00 00	 mov	 eax, OFFSET __ehfuncinfo$??_Ei3MemoryPool@@UAEPAXI@Z
  00018	e9 00 00 00 00	 jmp	 ___CxxFrameHandler3
text$x	ENDS
??_Ei3MemoryPool@@UAEPAXI@Z ENDP			; i3MemoryPool::`vector deleting destructor'
; Function compile flags: /Ogtp
;	COMDAT ??_Gi3MemoryPool@@UAEPAXI@Z
_TEXT	SEGMENT
___flags$ = 8						; size = 4
??_Gi3MemoryPool@@UAEPAXI@Z PROC			; i3MemoryPool::`scalar deleting destructor', COMDAT
; _this$ = ecx
  00000	55		 push	 ebp
  00001	8b ec		 mov	 ebp, esp
  00003	56		 push	 esi
  00004	8b f1		 mov	 esi, ecx
  00006	e8 00 00 00 00	 call	 ??1i3MemoryPool@@UAE@XZ	; i3MemoryPool::~i3MemoryPool
  0000b	f6 45 08 01	 test	 BYTE PTR ___flags$[ebp], 1
  0000f	74 0b		 je	 SHORT $LN5@scalar
  00011	6a 04		 push	 4
  00013	56		 push	 esi
  00014	e8 00 00 00 00	 call	 ??3@YAXPAXI@Z		; operator delete
  00019	83 c4 08	 add	 esp, 8
$LN5@scalar:
  0001c	8b c6		 mov	 eax, esi
  0001e	5e		 pop	 esi
  0001f	5d		 pop	 ebp
  00020	c2 04 00	 ret	 4
??_Gi3MemoryPool@@UAEPAXI@Z ENDP			; i3MemoryPool::`scalar deleting destructor'
_TEXT	ENDS
; Function compile flags: /Ogtp
;	COMDAT ??4i3MemoryPool@@QAEAAV0@ABV0@@Z
_TEXT	SEGMENT
___that$ = 8						; size = 4
??4i3MemoryPool@@QAEAAV0@ABV0@@Z PROC			; i3MemoryPool::operator=, COMDAT
; _this$ = ecx
  00000	8b c1		 mov	 eax, ecx
  00002	c2 04 00	 ret	 4
??4i3MemoryPool@@QAEAAV0@ABV0@@Z ENDP			; i3MemoryPool::operator=
_TEXT	ENDS
; Function compile flags: /Ogtp
;	COMDAT ??0i3MemoryPool@@QAE@ABV0@@Z
_TEXT	SEGMENT
___that$ = 8						; size = 4
??0i3MemoryPool@@QAE@ABV0@@Z PROC			; i3MemoryPool::i3MemoryPool, COMDAT
; _this$ = ecx
  00000	c7 01 00 00 00
	00		 mov	 DWORD PTR [ecx], OFFSET ??_7i3MemoryPool@@6B@
  00006	8b c1		 mov	 eax, ecx
  00008	c2 04 00	 ret	 4
??0i3MemoryPool@@QAE@ABV0@@Z ENDP			; i3MemoryPool::i3MemoryPool
_TEXT	ENDS
; Function compile flags: /Ogtp
; File E:\Proyectos\JuegosOnlineproyectos\PB\pbblow\Piercing Blow Remake\i3Server\src\i3Base\i3NetworkSession.cpp
;	COMDAT ??_Ei3ElementBase@@UAEPAXI@Z
_TEXT	SEGMENT
__$EHRec$ = -12						; size = 12
___flags$ = 8						; size = 4
??_Ei3ElementBase@@UAEPAXI@Z PROC			; i3ElementBase::`vector deleting destructor', COMDAT
; _this$ = ecx
  00000	55		 push	 ebp
  00001	8b ec		 mov	 ebp, esp
  00003	6a ff		 push	 -1
  00005	68 00 00 00 00	 push	 __ehhandler$??_Ei3ElementBase@@UAEPAXI@Z
  0000a	64 a1 00 00 00
	00		 mov	 eax, DWORD PTR fs:0
  00010	50		 push	 eax
  00011	53		 push	 ebx
  00012	56		 push	 esi
  00013	57		 push	 edi
  00014	a1 00 00 00 00	 mov	 eax, DWORD PTR ___security_cookie
  00019	33 c5		 xor	 eax, ebp
  0001b	50		 push	 eax
  0001c	8d 45 f4	 lea	 eax, DWORD PTR __$EHRec$[ebp]
  0001f	64 a3 00 00 00
	00		 mov	 DWORD PTR fs:0, eax
  00025	8b f1		 mov	 esi, ecx
  00027	8b 5d 08	 mov	 ebx, DWORD PTR ___flags$[ebp]
  0002a	8b fb		 mov	 edi, ebx
  0002c	83 e7 01	 and	 edi, 1
  0002f	f6 c3 02	 test	 bl, 2
  00032	74 3f		 je	 SHORT $LN2@vector
  00034	68 00 00 00 00	 push	 OFFSET ??1i3ElementBase@@UAE@XZ ; i3ElementBase::~i3ElementBase
  00039	ff 76 fc	 push	 DWORD PTR [esi-4]
  0003c	8d 5e fc	 lea	 ebx, DWORD PTR [esi-4]
  0003f	6a 10		 push	 16			; 00000010H
  00041	56		 push	 esi
  00042	e8 00 00 00 00	 call	 ??_M@YGXPAXIIP6EX0@Z@Z
  00047	85 ff		 test	 edi, edi
  00049	74 12		 je	 SHORT $LN3@vector
  0004b	8b 0b		 mov	 ecx, DWORD PTR [ebx]
  0004d	c1 e1 04	 shl	 ecx, 4
  00050	83 c1 04	 add	 ecx, 4
  00053	51		 push	 ecx
  00054	53		 push	 ebx
  00055	e8 00 00 00 00	 call	 ??_V@YAXPAXI@Z		; operator delete[]
  0005a	83 c4 08	 add	 esp, 8
$LN3@vector:
  0005d	8b c3		 mov	 eax, ebx
  0005f	8b 4d f4	 mov	 ecx, DWORD PTR __$EHRec$[ebp]
  00062	64 89 0d 00 00
	00 00		 mov	 DWORD PTR fs:0, ecx
  00069	59		 pop	 ecx
  0006a	5f		 pop	 edi
  0006b	5e		 pop	 esi
  0006c	5b		 pop	 ebx
  0006d	8b e5		 mov	 esp, ebp
  0006f	5d		 pop	 ebp
  00070	c2 04 00	 ret	 4
$LN2@vector:
  00073	e8 00 00 00 00	 call	 ??1i3ElementBase@@UAE@XZ ; i3ElementBase::~i3ElementBase
  00078	85 ff		 test	 edi, edi
  0007a	74 1b		 je	 SHORT $LN6@vector
  0007c	f6 c3 04	 test	 bl, 4
  0007f	75 0b		 jne	 SHORT $LN5@vector
  00081	56		 push	 esi
  00082	e8 00 00 00 00	 call	 ??3i3ElementBase@@SAXPAX@Z ; i3ElementBase::operator delete
  00087	83 c4 04	 add	 esp, 4
  0008a	eb 0b		 jmp	 SHORT $LN6@vector
$LN5@vector:

  0008c	6a 10		 push	 16			; 00000010H
  0008e	56		 push	 esi
  0008f	e8 00 00 00 00	 call	 ??3@YAXPAXI@Z		; operator delete
  00094	83 c4 08	 add	 esp, 8
$LN6@vector:
  00097	8b c6		 mov	 eax, esi
  00099	8b 4d f4	 mov	 ecx, DWORD PTR __$EHRec$[ebp]
  0009c	64 89 0d 00 00
	00 00		 mov	 DWORD PTR fs:0, ecx
  000a3	59		 pop	 ecx
  000a4	5f		 pop	 edi
  000a5	5e		 pop	 esi
  000a6	5b		 pop	 ebx
  000a7	8b e5		 mov	 esp, ebp
  000a9	5d		 pop	 ebp
  000aa	c2 04 00	 ret	 4
  000ad	cc		 int	 3
  000ae	cc		 int	 3
  000af	cc		 int	 3
  000b0	cc		 int	 3
  000b1	cc		 int	 3
_TEXT	ENDS
;	COMDAT text$x
text$x	SEGMENT
__ehhandler$??_Ei3ElementBase@@UAEPAXI@Z:
  00000	90		 npad	 1
  00001	90		 npad	 1
  00002	8b 54 24 08	 mov	 edx, DWORD PTR [esp+8]
  00006	8d 42 0c	 lea	 eax, DWORD PTR [edx+12]
  00009	8b 4a f0	 mov	 ecx, DWORD PTR [edx-16]
  0000c	33 c8		 xor	 ecx, eax
  0000e	e8 00 00 00 00	 call	 @__security_check_cookie@4
  00013	b8 00 00 00 00	 mov	 eax, OFFSET __ehfuncinfo$??_Ei3ElementBase@@UAEPAXI@Z
  00018	e9 00 00 00 00	 jmp	 ___CxxFrameHandler3
text$x	ENDS
??_Ei3ElementBase@@UAEPAXI@Z ENDP			; i3ElementBase::`vector deleting destructor'
; Function compile flags: /Ogtp
; File E:\Proyectos\JuegosOnlineproyectos\PB\pbblow\Piercing Blow Remake\i3Server\src\i3Base\i3NetworkSession.cpp
;	COMDAT ??_Gi3ElementBase@@UAEPAXI@Z
_TEXT	SEGMENT
___flags$ = 8						; size = 4
??_Gi3ElementBase@@UAEPAXI@Z PROC			; i3ElementBase::`scalar deleting destructor', COMDAT
; _this$ = ecx
  00000	55		 push	 ebp
  00001	8b ec		 mov	 ebp, esp
  00003	56		 push	 esi
  00004	8b f1		 mov	 esi, ecx
  00006	e8 00 00 00 00	 call	 ??1i3ElementBase@@UAE@XZ ; i3ElementBase::~i3ElementBase
  0000b	8b 45 08	 mov	 eax, DWORD PTR ___flags$[ebp]
  0000e	a8 01		 test	 al, 1
  00010	74 1f		 je	 SHORT $LN10@scalar
  00012	a8 04		 test	 al, 4
  00014	75 10		 jne	 SHORT $LN3@scalar
  00016	56		 push	 esi
  00017	e8 00 00 00 00	 call	 ??3i3ElementBase@@SAXPAX@Z ; i3ElementBase::operator delete
  0001c	83 c4 04	 add	 esp, 4
  0001f	8b c6		 mov	 eax, esi
  00021	5e		 pop	 esi
  00022	5d		 pop	 ebp
  00023	c2 04 00	 ret	 4
$LN3@scalar:

  00026	6a 10		 push	 16			; 00000010H
  00028	56		 push	 esi
  00029	e8 00 00 00 00	 call	 ??3@YAXPAXI@Z		; operator delete
  0002e	83 c4 08	 add	 esp, 8
$LN10@scalar:
  00031	8b c6		 mov	 eax, esi
  00033	5e		 pop	 esi
  00034	5d		 pop	 ebp
  00035	c2 04 00	 ret	 4
??_Gi3ElementBase@@UAEPAXI@Z ENDP			; i3ElementBase::`scalar deleting destructor'
_TEXT	ENDS
; Function compile flags: /Ogtp
;	COMDAT ??4i3ElementBase@@QAEAAV0@ABV0@@Z
_TEXT	SEGMENT
___that$ = 8						; size = 4
??4i3ElementBase@@QAEAAV0@ABV0@@Z PROC			; i3ElementBase::operator=, COMDAT
; _this$ = ecx
  00000	55		 push	 ebp
  00001	8b ec		 mov	 ebp, esp
  00003	8b 55 08	 mov	 edx, DWORD PTR ___that$[ebp]
  00006	8b 42 04	 mov	 eax, DWORD PTR [edx+4]
  00009	89 41 04	 mov	 DWORD PTR [ecx+4], eax
  0000c	8b 42 08	 mov	 eax, DWORD PTR [edx+8]
  0000f	89 41 08	 mov	 DWORD PTR [ecx+8], eax
  00012	8b 42 0c	 mov	 eax, DWORD PTR [edx+12]
  00015	89 41 0c	 mov	 DWORD PTR [ecx+12], eax
  00018	8b c1		 mov	 eax, ecx
  0001a	5d		 pop	 ebp
  0001b	c2 04 00	 ret	 4
??4i3ElementBase@@QAEAAV0@ABV0@@Z ENDP			; i3ElementBase::operator=
_TEXT	ENDS
; Function compile flags: /Ogtp
;	COMDAT ??0i3ElementBase@@QAE@ABV0@@Z
_TEXT	SEGMENT
___that$ = 8						; size = 4
??0i3ElementBase@@QAE@ABV0@@Z PROC			; i3ElementBase::i3ElementBase, COMDAT
; _this$ = ecx
  00000	55		 push	 ebp
  00001	8b ec		 mov	 ebp, esp
  00003	8b 55 08	 mov	 edx, DWORD PTR ___that$[ebp]
  00006	c7 01 00 00 00
	00		 mov	 DWORD PTR [ecx], OFFSET ??_7i3ElementBase@@6B@
  0000c	8b 42 04	 mov	 eax, DWORD PTR [edx+4]
  0000f	89 41 04	 mov	 DWORD PTR [ecx+4], eax
  00012	8b 42 08	 mov	 eax, DWORD PTR [edx+8]
  00015	89 41 08	 mov	 DWORD PTR [ecx+8], eax
  00018	8b 42 0c	 mov	 eax, DWORD PTR [edx+12]
  0001b	89 41 0c	 mov	 DWORD PTR [ecx+12], eax
  0001e	8b c1		 mov	 eax, ecx
  00020	5d		 pop	 ebp
  00021	c2 04 00	 ret	 4
??0i3ElementBase@@QAE@ABV0@@Z ENDP			; i3ElementBase::i3ElementBase
_TEXT	ENDS
; Function compile flags: /Ogtp
; File E:\Proyectos\JuegosOnlineproyectos\PB\pbblow\Piercing Blow Remake\i3Server\include\i3Base\i3ElementBase.h
;	COMDAT ?_internal_SetRefCount@i3ElementBase@@QAEXH@Z
_TEXT	SEGMENT
_cnt$ = 8						; size = 4
?_internal_SetRefCount@i3ElementBase@@QAEXH@Z PROC	; i3ElementBase::_internal_SetRefCount, COMDAT
; _this$ = ecx

; 401  : 	{

  00000	55		 push	 ebp
  00001	8b ec		 mov	 ebp, esp

; 402  : 		m_RefCount = cnt;

  00003	8b 45 08	 mov	 eax, DWORD PTR _cnt$[ebp]
  00006	89 41 04	 mov	 DWORD PTR [ecx+4], eax

; 403  : 	}

  00009	5d		 pop	 ebp
  0000a	c2 04 00	 ret	 4
?_internal_SetRefCount@i3ElementBase@@QAEXH@Z ENDP	; i3ElementBase::_internal_SetRefCount
_TEXT	ENDS
; Function compile flags: /Ogtp
; File E:\Proyectos\JuegosOnlineproyectos\PB\pbblow\Piercing Blow Remake\i3Server\include\i3Base\i3ElementBase.h
;	COMDAT ?AddRef@i3ElementBase@@QAEHXZ
_TEXT	SEGMENT
?AddRef@i3ElementBase@@QAEHXZ PROC			; i3ElementBase::AddRef, COMDAT
; _this$ = ecx

; 392  : 		m_RefCount++;

  00000	ff 41 04	 inc	 DWORD PTR [ecx+4]

; 393  : 
; 394  : 		return m_RefCount;

  00003	8b 41 04	 mov	 eax, DWORD PTR [ecx+4]

; 395  : 	}

  00006	c3		 ret	 0
?AddRef@i3ElementBase@@QAEHXZ ENDP			; i3ElementBase::AddRef
_TEXT	ENDS
; Function compile flags: /Ogtp
; File E:\Proyectos\JuegosOnlineproyectos\PB\pbblow\Piercing Blow Remake\i3Server\include\i3Base\i3ElementBase.h
;	COMDAT ?IsTypeOf@i3ElementBase@@QAE_NPAVi3ClassMeta@@@Z
_TEXT	SEGMENT
_pMeta$ = 8						; size = 4
?IsTypeOf@i3ElementBase@@QAE_NPAVi3ClassMeta@@@Z PROC	; i3ElementBase::IsTypeOf, COMDAT
; _this$ = ecx

; 356  : 	{

  00000	55		 push	 ebp
  00001	8b ec		 mov	 ebp, esp

; 357  : 		return GetMeta()->IsTypeOf( pMeta);

  00003	8b 01		 mov	 eax, DWORD PTR [ecx]
  00005	ff 75 08	 push	 DWORD PTR _pMeta$[ebp]
  00008	ff 10		 call	 DWORD PTR [eax]
  0000a	8b c8		 mov	 ecx, eax
  0000c	e8 00 00 00 00	 call	 ?IsTypeOf@i3ClassMeta@@QAE_NPAV1@@Z ; i3ClassMeta::IsTypeOf

; 358  : 	}

  00011	5d		 pop	 ebp
  00012	c2 04 00	 ret	 4
?IsTypeOf@i3ElementBase@@QAE_NPAVi3ClassMeta@@@Z ENDP	; i3ElementBase::IsTypeOf
_TEXT	ENDS
; Function compile flags: /Ogtp
; File E:\Proyectos\JuegosOnlineproyectos\PB\pbblow\Piercing Blow Remake\i3Server\include\i3Base\i3ElementBase.h
; File E:\Proyectos\JuegosOnlineproyectos\PB\pbblow\Piercing Blow Remake\i3Server\include\i3Base\i3ClassMeta.h
; File E:\Proyectos\JuegosOnlineproyectos\PB\pbblow\Piercing Blow Remake\i3Server\include\i3Base\i3ElementBase.h
;	COMDAT ?IsExactTypeOf@i3ElementBase@@QAE_NPAVi3ClassMeta@@@Z
_TEXT	SEGMENT
_pMeta$ = 8						; size = 4
?IsExactTypeOf@i3ElementBase@@QAE_NPAVi3ClassMeta@@@Z PROC ; i3ElementBase::IsExactTypeOf, COMDAT
; _this$ = ecx

; 351  : 	{

  00000	55		 push	 ebp
  00001	8b ec		 mov	 ebp, esp

; 352  : 		return GetMeta()->IsExactTypeOf( pMeta);

  00003	8b 01		 mov	 eax, DWORD PTR [ecx]
  00005	ff 10		 call	 DWORD PTR [eax]
; File E:\Proyectos\JuegosOnlineproyectos\PB\pbblow\Piercing Blow Remake\i3Server\include\i3Base\i3ClassMeta.h

; 90   : 		return pMeta == this;

  00007	39 45 08	 cmp	 DWORD PTR _pMeta$[ebp], eax
  0000a	0f 94 c0	 sete	 al
; File E:\Proyectos\JuegosOnlineproyectos\PB\pbblow\Piercing Blow Remake\i3Server\include\i3Base\i3ElementBase.h

; 353  : 	}

  0000d	5d		 pop	 ebp
  0000e	c2 04 00	 ret	 4
?IsExactTypeOf@i3ElementBase@@QAE_NPAVi3ClassMeta@@@Z ENDP ; i3ElementBase::IsExactTypeOf
_TEXT	ENDS
; Function compile flags: /Ogtp
; File E:\Proyectos\JuegosOnlineproyectos\PB\pbblow\Piercing Blow Remake\i3Server\include\i3Base\i3ElementBase.h
;	COMDAT ?__GetMemoryPool@i3ElementBase@@QAEPAVi3MemoryPool@@XZ
_TEXT	SEGMENT
?__GetMemoryPool@i3ElementBase@@QAEPAVi3MemoryPool@@XZ PROC ; i3ElementBase::__GetMemoryPool, COMDAT
; _this$ = ecx

; 348  : 	i3MemoryPool *	__GetMemoryPool(void)							{ return m_pPool; }

  00000	8b 41 0c	 mov	 eax, DWORD PTR [ecx+12]
  00003	c3		 ret	 0
?__GetMemoryPool@i3ElementBase@@QAEPAVi3MemoryPool@@XZ ENDP ; i3ElementBase::__GetMemoryPool
_TEXT	ENDS
; Function compile flags: /Ogtp
; File E:\Proyectos\JuegosOnlineproyectos\PB\pbblow\Piercing Blow Remake\i3Server\include\i3Base\i3ElementBase.h
;	COMDAT ?__SetMemoryPool@i3ElementBase@@QAEXPAVi3MemoryPool@@@Z
_TEXT	SEGMENT
_pPool$ = 8						; size = 4
?__SetMemoryPool@i3ElementBase@@QAEXPAVi3MemoryPool@@@Z PROC ; i3ElementBase::__SetMemoryPool, COMDAT
; _this$ = ecx

; 347  : 	void			__SetMemoryPool( i3MemoryPool * pPool)			{ m_pPool = pPool; }

  00000	55		 push	 ebp
  00001	8b ec		 mov	 ebp, esp
  00003	8b 45 08	 mov	 eax, DWORD PTR _pPool$[ebp]
  00006	89 41 0c	 mov	 DWORD PTR [ecx+12], eax
  00009	5d		 pop	 ebp
  0000a	c2 04 00	 ret	 4
?__SetMemoryPool@i3ElementBase@@QAEXPAVi3MemoryPool@@@Z ENDP ; i3ElementBase::__SetMemoryPool
_TEXT	ENDS
; Function compile flags: /Ogtp
; File E:\Proyectos\JuegosOnlineproyectos\PB\pbblow\Piercing Blow Remake\i3Server\include\i3Base\i3ElementBase.h
;	COMDAT ?GetRefCount@i3ElementBase@@QAEHXZ
_TEXT	SEGMENT
?GetRefCount@i3ElementBase@@QAEHXZ PROC			; i3ElementBase::GetRefCount, COMDAT
; _this$ = ecx

; 344  : 		return m_RefCount;

  00000	8b 41 04	 mov	 eax, DWORD PTR [ecx+4]

; 345  : 	}

  00003	c3		 ret	 0
?GetRefCount@i3ElementBase@@QAEHXZ ENDP			; i3ElementBase::GetRefCount
_TEXT	ENDS
; Function compile flags: /Ogtp
; File E:\Proyectos\JuegosOnlineproyectos\PB\pbblow\Piercing Blow Remake\i3Server\include\i3Base\i3ElementBase.h
;	COMDAT ?GetClassMeta@i3ElementBase@@SAPAVi3ClassMeta@@XZ
_TEXT	SEGMENT
?GetClassMeta@i3ElementBase@@SAPAVi3ClassMeta@@XZ PROC	; i3ElementBase::GetClassMeta, COMDAT

; 314  : 	I3_ABSTRACT_CLASS_DEFINE( i3ElementBase);

  00000	a1 00 00 00 00	 mov	 eax, DWORD PTR ?s_pClassMetai3ElementBase@i3ElementBase@@2PAVi3ClassMeta@@A ; i3ElementBase::s_pClassMetai3ElementBase
  00005	c3		 ret	 0
?GetClassMeta@i3ElementBase@@SAPAVi3ClassMeta@@XZ ENDP	; i3ElementBase::GetClassMeta
_TEXT	ENDS
; Function compile flags: /Ogtp
;	COMDAT ??_Ei3ClassMeta@@UAEPAXI@Z
_TEXT	SEGMENT
__$EHRec$ = -12						; size = 12
___flags$ = 8						; size = 4
??_Ei3ClassMeta@@UAEPAXI@Z PROC				; i3ClassMeta::`vector deleting destructor', COMDAT
; _this$ = ecx
  00000	55		 push	 ebp
  00001	8b ec		 mov	 ebp, esp
  00003	6a ff		 push	 -1
  00005	68 00 00 00 00	 push	 __ehhandler$??_Ei3ClassMeta@@UAEPAXI@Z
  0000a	64 a1 00 00 00
	00		 mov	 eax, DWORD PTR fs:0
  00010	50		 push	 eax
  00011	53		 push	 ebx
  00012	56		 push	 esi
  00013	57		 push	 edi
  00014	a1 00 00 00 00	 mov	 eax, DWORD PTR ___security_cookie
  00019	33 c5		 xor	 eax, ebp
  0001b	50		 push	 eax
  0001c	8d 45 f4	 lea	 eax, DWORD PTR __$EHRec$[ebp]
  0001f	64 a3 00 00 00
	00		 mov	 DWORD PTR fs:0, eax
  00025	8b f1		 mov	 esi, ecx
  00027	8b 45 08	 mov	 eax, DWORD PTR ___flags$[ebp]
  0002a	8b f8		 mov	 edi, eax
  0002c	83 e7 01	 and	 edi, 1
  0002f	a8 02		 test	 al, 2
  00031	74 49		 je	 SHORT $LN2@vector
  00033	68 00 00 00 00	 push	 OFFSET ??1i3ClassMeta@@UAE@XZ ; i3ClassMeta::~i3ClassMeta
  00038	ff 76 fc	 push	 DWORD PTR [esi-4]
  0003b	8d 5e fc	 lea	 ebx, DWORD PTR [esi-4]
  0003e	6a 38		 push	 56			; 00000038H
  00040	56		 push	 esi
  00041	e8 00 00 00 00	 call	 ??_M@YGXPAXIIP6EX0@Z@Z
  00046	85 ff		 test	 edi, edi
  00048	74 1c		 je	 SHORT $LN3@vector
  0004a	8b 0b		 mov	 ecx, DWORD PTR [ebx]
  0004c	8d 14 cd 00 00
	00 00		 lea	 edx, DWORD PTR [ecx*8]
  00053	2b d1		 sub	 edx, ecx
  00055	8d 0c d5 04 00
	00 00		 lea	 ecx, DWORD PTR [edx*8+4]
  0005c	51		 push	 ecx
  0005d	53		 push	 ebx
  0005e	e8 00 00 00 00	 call	 ??_V@YAXPAXI@Z		; operator delete[]
  00063	83 c4 08	 add	 esp, 8
$LN3@vector:
  00066	8b c3		 mov	 eax, ebx
  00068	8b 4d f4	 mov	 ecx, DWORD PTR __$EHRec$[ebp]
  0006b	64 89 0d 00 00
	00 00		 mov	 DWORD PTR fs:0, ecx
  00072	59		 pop	 ecx
  00073	5f		 pop	 edi
  00074	5e		 pop	 esi
  00075	5b		 pop	 ebx
  00076	8b e5		 mov	 esp, ebp
  00078	5d		 pop	 ebp
  00079	c2 04 00	 ret	 4
$LN2@vector:
  0007c	e8 00 00 00 00	 call	 ??1i3ClassMeta@@UAE@XZ	; i3ClassMeta::~i3ClassMeta
  00081	85 ff		 test	 edi, edi
  00083	74 0b		 je	 SHORT $LN4@vector
  00085	6a 38		 push	 56			; 00000038H
  00087	56		 push	 esi
  00088	e8 00 00 00 00	 call	 ??3@YAXPAXI@Z		; operator delete
  0008d	83 c4 08	 add	 esp, 8
$LN4@vector:
  00090	8b c6		 mov	 eax, esi
  00092	8b 4d f4	 mov	 ecx, DWORD PTR __$EHRec$[ebp]
  00095	64 89 0d 00 00
	00 00		 mov	 DWORD PTR fs:0, ecx
  0009c	59		 pop	 ecx
  0009d	5f		 pop	 edi
  0009e	5e		 pop	 esi
  0009f	5b		 pop	 ebx
  000a0	8b e5		 mov	 esp, ebp
  000a2	5d		 pop	 ebp
  000a3	c2 04 00	 ret	 4
  000a6	cc		 int	 3
  000a7	cc		 int	 3
  000a8	cc		 int	 3
  000a9	cc		 int	 3
  000aa	cc		 int	 3
_TEXT	ENDS
;	COMDAT text$x
text$x	SEGMENT
__ehhandler$??_Ei3ClassMeta@@UAEPAXI@Z:
  00000	90		 npad	 1
  00001	90		 npad	 1
  00002	8b 54 24 08	 mov	 edx, DWORD PTR [esp+8]
  00006	8d 42 0c	 lea	 eax, DWORD PTR [edx+12]
  00009	8b 4a f0	 mov	 ecx, DWORD PTR [edx-16]
  0000c	33 c8		 xor	 ecx, eax
  0000e	e8 00 00 00 00	 call	 @__security_check_cookie@4
  00013	b8 00 00 00 00	 mov	 eax, OFFSET __ehfuncinfo$??_Ei3ClassMeta@@UAEPAXI@Z
  00018	e9 00 00 00 00	 jmp	 ___CxxFrameHandler3
text$x	ENDS
??_Ei3ClassMeta@@UAEPAXI@Z ENDP				; i3ClassMeta::`vector deleting destructor'
; Function compile flags: /Ogtp
;	COMDAT ??_Gi3ClassMeta@@UAEPAXI@Z
_TEXT	SEGMENT
___flags$ = 8						; size = 4
??_Gi3ClassMeta@@UAEPAXI@Z PROC				; i3ClassMeta::`scalar deleting destructor', COMDAT
; _this$ = ecx
  00000	55		 push	 ebp
  00001	8b ec		 mov	 ebp, esp
  00003	56		 push	 esi
  00004	8b f1		 mov	 esi, ecx
  00006	e8 00 00 00 00	 call	 ??1i3ClassMeta@@UAE@XZ	; i3ClassMeta::~i3ClassMeta
  0000b	f6 45 08 01	 test	 BYTE PTR ___flags$[ebp], 1
  0000f	74 0b		 je	 SHORT $LN5@scalar
  00011	6a 38		 push	 56			; 00000038H
  00013	56		 push	 esi
  00014	e8 00 00 00 00	 call	 ??3@YAXPAXI@Z		; operator delete
  00019	83 c4 08	 add	 esp, 8
$LN5@scalar:
  0001c	8b c6		 mov	 eax, esi
  0001e	5e		 pop	 esi
  0001f	5d		 pop	 ebp
  00020	c2 04 00	 ret	 4
??_Gi3ClassMeta@@UAEPAXI@Z ENDP				; i3ClassMeta::`scalar deleting destructor'
_TEXT	ENDS
; Function compile flags: /Ogtp
;	COMDAT ??4i3ClassMeta@@QAEAAV0@ABV0@@Z
_TEXT	SEGMENT
___that$ = 8						; size = 4
??4i3ClassMeta@@QAEAAV0@ABV0@@Z PROC			; i3ClassMeta::operator=, COMDAT
; _this$ = ecx
  00000	55		 push	 ebp
  00001	8b ec		 mov	 ebp, esp
  00003	8b 55 08	 mov	 edx, DWORD PTR ___that$[ebp]
  00006	8b 42 04	 mov	 eax, DWORD PTR [edx+4]
  00009	89 41 04	 mov	 DWORD PTR [ecx+4], eax
  0000c	8b 42 08	 mov	 eax, DWORD PTR [edx+8]
  0000f	89 41 08	 mov	 DWORD PTR [ecx+8], eax
  00012	8b 42 0c	 mov	 eax, DWORD PTR [edx+12]
  00015	89 41 0c	 mov	 DWORD PTR [ecx+12], eax
  00018	8b 42 10	 mov	 eax, DWORD PTR [edx+16]
  0001b	89 41 10	 mov	 DWORD PTR [ecx+16], eax
  0001e	8b 42 14	 mov	 eax, DWORD PTR [edx+20]
  00021	89 41 14	 mov	 DWORD PTR [ecx+20], eax
  00024	8b 42 18	 mov	 eax, DWORD PTR [edx+24]
  00027	89 41 18	 mov	 DWORD PTR [ecx+24], eax
  0002a	8b 42 1c	 mov	 eax, DWORD PTR [edx+28]
  0002d	89 41 1c	 mov	 DWORD PTR [ecx+28], eax
  00030	8b 42 20	 mov	 eax, DWORD PTR [edx+32]
  00033	89 41 20	 mov	 DWORD PTR [ecx+32], eax
  00036	8b 42 24	 mov	 eax, DWORD PTR [edx+36]
  00039	89 41 24	 mov	 DWORD PTR [ecx+36], eax
  0003c	8b 42 28	 mov	 eax, DWORD PTR [edx+40]
  0003f	89 41 28	 mov	 DWORD PTR [ecx+40], eax
  00042	8b 42 2c	 mov	 eax, DWORD PTR [edx+44]
  00045	89 41 2c	 mov	 DWORD PTR [ecx+44], eax
  00048	8b 42 30	 mov	 eax, DWORD PTR [edx+48]
  0004b	89 41 30	 mov	 DWORD PTR [ecx+48], eax
  0004e	8b 42 34	 mov	 eax, DWORD PTR [edx+52]
  00051	89 41 34	 mov	 DWORD PTR [ecx+52], eax
  00054	8b c1		 mov	 eax, ecx
  00056	5d		 pop	 ebp
  00057	c2 04 00	 ret	 4
??4i3ClassMeta@@QAEAAV0@ABV0@@Z ENDP			; i3ClassMeta::operator=
_TEXT	ENDS
; Function compile flags: /Ogtp
;	COMDAT ??0i3ClassMeta@@QAE@ABV0@@Z
_TEXT	SEGMENT
___that$ = 8						; size = 4
??0i3ClassMeta@@QAE@ABV0@@Z PROC			; i3ClassMeta::i3ClassMeta, COMDAT
; _this$ = ecx
  00000	55		 push	 ebp
  00001	8b ec		 mov	 ebp, esp
  00003	8b 55 08	 mov	 edx, DWORD PTR ___that$[ebp]
  00006	c7 01 00 00 00
	00		 mov	 DWORD PTR [ecx], OFFSET ??_7i3ClassMeta@@6B@
  0000c	8b 42 04	 mov	 eax, DWORD PTR [edx+4]
  0000f	89 41 04	 mov	 DWORD PTR [ecx+4], eax
  00012	8b 42 08	 mov	 eax, DWORD PTR [edx+8]
  00015	89 41 08	 mov	 DWORD PTR [ecx+8], eax
  00018	8b 42 0c	 mov	 eax, DWORD PTR [edx+12]
  0001b	89 41 0c	 mov	 DWORD PTR [ecx+12], eax
  0001e	8b 42 10	 mov	 eax, DWORD PTR [edx+16]
  00021	89 41 10	 mov	 DWORD PTR [ecx+16], eax
  00024	8b 42 14	 mov	 eax, DWORD PTR [edx+20]
  00027	89 41 14	 mov	 DWORD PTR [ecx+20], eax
  0002a	8b 42 18	 mov	 eax, DWORD PTR [edx+24]
  0002d	89 41 18	 mov	 DWORD PTR [ecx+24], eax
  00030	8b 42 1c	 mov	 eax, DWORD PTR [edx+28]
  00033	89 41 1c	 mov	 DWORD PTR [ecx+28], eax
  00036	8b 42 20	 mov	 eax, DWORD PTR [edx+32]
  00039	89 41 20	 mov	 DWORD PTR [ecx+32], eax
  0003c	8b 42 24	 mov	 eax, DWORD PTR [edx+36]
  0003f	89 41 24	 mov	 DWORD PTR [ecx+36], eax
  00042	8b 42 28	 mov	 eax, DWORD PTR [edx+40]
  00045	89 41 28	 mov	 DWORD PTR [ecx+40], eax
  00048	8b 42 2c	 mov	 eax, DWORD PTR [edx+44]
  0004b	89 41 2c	 mov	 DWORD PTR [ecx+44], eax
  0004e	8b 42 30	 mov	 eax, DWORD PTR [edx+48]
  00051	89 41 30	 mov	 DWORD PTR [ecx+48], eax
  00054	8b 42 34	 mov	 eax, DWORD PTR [edx+52]
  00057	89 41 34	 mov	 DWORD PTR [ecx+52], eax
  0005a	8b c1		 mov	 eax, ecx
  0005c	5d		 pop	 ebp
  0005d	c2 04 00	 ret	 4
??0i3ClassMeta@@QAE@ABV0@@Z ENDP			; i3ClassMeta::i3ClassMeta
_TEXT	ENDS
; Function compile flags: /Ogtp
; File E:\Proyectos\JuegosOnlineproyectos\PB\pbblow\Piercing Blow Remake\i3Server\include\i3Base\i3ClassMeta.h
;	COMDAT ?getHashCode@i3ClassMeta@@QAEIXZ
_TEXT	SEGMENT
?getHashCode@i3ClassMeta@@QAEIXZ PROC			; i3ClassMeta::getHashCode, COMDAT
; _this$ = ecx

; 112  : 	UINT32			getHashCode(void)						{ return m_HashCode; }

  00000	8b 41 18	 mov	 eax, DWORD PTR [ecx+24]
  00003	c3		 ret	 0
?getHashCode@i3ClassMeta@@QAEIXZ ENDP			; i3ClassMeta::getHashCode
_TEXT	ENDS
; Function compile flags: /Ogtp
; File E:\Proyectos\JuegosOnlineproyectos\PB\pbblow\Piercing Blow Remake\i3Server\include\i3Base\i3ClassMeta.h
;	COMDAT ?GetBaseClassMeta@i3ClassMeta@@QAEPAV1@XZ
_TEXT	SEGMENT
?GetBaseClassMeta@i3ClassMeta@@QAEPAV1@XZ PROC		; i3ClassMeta::GetBaseClassMeta, COMDAT
; _this$ = ecx

; 107  : 	i3ClassMeta *	GetBaseClassMeta(void)					{ return m_pBaseClass; }

  00000	8b 41 1c	 mov	 eax, DWORD PTR [ecx+28]
  00003	c3		 ret	 0
?GetBaseClassMeta@i3ClassMeta@@QAEPAV1@XZ ENDP		; i3ClassMeta::GetBaseClassMeta
_TEXT	ENDS
; Function compile flags: /Ogtp
; File E:\Proyectos\JuegosOnlineproyectos\PB\pbblow\Piercing Blow Remake\i3Server\include\i3Base\i3ClassMeta.h
;	COMDAT ?IsConcreteClass@i3ClassMeta@@QAEHXZ
_TEXT	SEGMENT
?IsConcreteClass@i3ClassMeta@@QAEHXZ PROC		; i3ClassMeta::IsConcreteClass, COMDAT
; _this$ = ecx

; 102  : 	BOOL			IsStyle( UINT32 style)					{ return (m_Style & style) == style; }

  00000	8b 41 14	 mov	 eax, DWORD PTR [ecx+20]
  00003	d1 e8		 shr	 eax, 1
  00005	83 e0 01	 and	 eax, 1

; 105  : 	BOOL			IsConcreteClass(void)					{ return IsStyle( I3_CLASSMETA_STYLE_CONCRETE); }

  00008	c3		 ret	 0
?IsConcreteClass@i3ClassMeta@@QAEHXZ ENDP		; i3ClassMeta::IsConcreteClass
_TEXT	ENDS
; Function compile flags: /Ogtp
; File E:\Proyectos\JuegosOnlineproyectos\PB\pbblow\Piercing Blow Remake\i3Server\include\i3Base\i3ClassMeta.h
;	COMDAT ?IsAbstractClass@i3ClassMeta@@QAEHXZ
_TEXT	SEGMENT
?IsAbstractClass@i3ClassMeta@@QAEHXZ PROC		; i3ClassMeta::IsAbstractClass, COMDAT
; _this$ = ecx

; 102  : 	BOOL			IsStyle( UINT32 style)					{ return (m_Style & style) == style; }

  00000	8b 41 14	 mov	 eax, DWORD PTR [ecx+20]
  00003	83 e0 01	 and	 eax, 1

; 104  : 	BOOL			IsAbstractClass(void)					{ return IsStyle( I3_CLASSMETA_STYLE_ABSTRACT); }

  00006	c3		 ret	 0
?IsAbstractClass@i3ClassMeta@@QAEHXZ ENDP		; i3ClassMeta::IsAbstractClass
_TEXT	ENDS
; Function compile flags: /Ogtp
; File E:\Proyectos\JuegosOnlineproyectos\PB\pbblow\Piercing Blow Remake\i3Server\include\i3Base\i3ClassMeta.h
;	COMDAT ?IsStyle@i3ClassMeta@@QAEHI@Z
_TEXT	SEGMENT
_style$ = 8						; size = 4
?IsStyle@i3ClassMeta@@QAEHI@Z PROC			; i3ClassMeta::IsStyle, COMDAT
; _this$ = ecx

; 102  : 	BOOL			IsStyle( UINT32 style)					{ return (m_Style & style) == style; }

  00000	55		 push	 ebp
  00001	8b ec		 mov	 ebp, esp
  00003	8b 51 14	 mov	 edx, DWORD PTR [ecx+20]
  00006	33 c0		 xor	 eax, eax
  00008	23 55 08	 and	 edx, DWORD PTR _style$[ebp]
  0000b	3b 55 08	 cmp	 edx, DWORD PTR _style$[ebp]
  0000e	0f 94 c0	 sete	 al
  00011	5d		 pop	 ebp
  00012	c2 04 00	 ret	 4
?IsStyle@i3ClassMeta@@QAEHI@Z ENDP			; i3ClassMeta::IsStyle
_TEXT	ENDS
; Function compile flags: /Ogtp
; File E:\Proyectos\JuegosOnlineproyectos\PB\pbblow\Piercing Blow Remake\i3Server\include\i3Base\i3ClassMeta.h
;	COMDAT ?RemoveStyle@i3ClassMeta@@QAEXI@Z
_TEXT	SEGMENT
_style$ = 8						; size = 4
?RemoveStyle@i3ClassMeta@@QAEXI@Z PROC			; i3ClassMeta::RemoveStyle, COMDAT
; _this$ = ecx

; 101  : 	void			RemoveStyle( UINT32 style)				{ m_Style &= ~style; }

  00000	55		 push	 ebp
  00001	8b ec		 mov	 ebp, esp
  00003	8b 45 08	 mov	 eax, DWORD PTR _style$[ebp]
  00006	f7 d0		 not	 eax
  00008	21 41 14	 and	 DWORD PTR [ecx+20], eax
  0000b	5d		 pop	 ebp
  0000c	c2 04 00	 ret	 4
?RemoveStyle@i3ClassMeta@@QAEXI@Z ENDP			; i3ClassMeta::RemoveStyle
_TEXT	ENDS
; Function compile flags: /Ogtp
; File E:\Proyectos\JuegosOnlineproyectos\PB\pbblow\Piercing Blow Remake\i3Server\include\i3Base\i3ClassMeta.h
;	COMDAT ?AddStyle@i3ClassMeta@@QAEXI@Z
_TEXT	SEGMENT
_style$ = 8						; size = 4
?AddStyle@i3ClassMeta@@QAEXI@Z PROC			; i3ClassMeta::AddStyle, COMDAT
; _this$ = ecx

; 100  : 	void			AddStyle( UINT32 style)					{ m_Style |= style; }

  00000	55		 push	 ebp
  00001	8b ec		 mov	 ebp, esp
  00003	8b 45 08	 mov	 eax, DWORD PTR _style$[ebp]
  00006	09 41 14	 or	 DWORD PTR [ecx+20], eax
  00009	5d		 pop	 ebp
  0000a	c2 04 00	 ret	 4
?AddStyle@i3ClassMeta@@QAEXI@Z ENDP			; i3ClassMeta::AddStyle
_TEXT	ENDS
; Function compile flags: /Ogtp
; File E:\Proyectos\JuegosOnlineproyectos\PB\pbblow\Piercing Blow Remake\i3Server\include\i3Base\i3ClassMeta.h
;	COMDAT ?GetStyle@i3ClassMeta@@QAEIXZ
_TEXT	SEGMENT
?GetStyle@i3ClassMeta@@QAEIXZ PROC			; i3ClassMeta::GetStyle, COMDAT
; _this$ = ecx

; 99   : 	UINT32			GetStyle(void)							{ return m_Style; }

  00000	8b 41 14	 mov	 eax, DWORD PTR [ecx+20]
  00003	c3		 ret	 0
?GetStyle@i3ClassMeta@@QAEIXZ ENDP			; i3ClassMeta::GetStyle
_TEXT	ENDS
; Function compile flags: /Ogtp
; File E:\Proyectos\JuegosOnlineproyectos\PB\pbblow\Piercing Blow Remake\i3Server\include\i3Base\i3ClassMeta.h
;	COMDAT ?SetStyle@i3ClassMeta@@QAEXI@Z
_TEXT	SEGMENT
_style$ = 8						; size = 4
?SetStyle@i3ClassMeta@@QAEXI@Z PROC			; i3ClassMeta::SetStyle, COMDAT
; _this$ = ecx

; 98   : 	void			SetStyle( UINT32 style)					{ m_Style = style; }

  00000	55		 push	 ebp
  00001	8b ec		 mov	 ebp, esp
  00003	8b 45 08	 mov	 eax, DWORD PTR _style$[ebp]
  00006	89 41 14	 mov	 DWORD PTR [ecx+20], eax
  00009	5d		 pop	 ebp
  0000a	c2 04 00	 ret	 4
?SetStyle@i3ClassMeta@@QAEXI@Z ENDP			; i3ClassMeta::SetStyle
_TEXT	ENDS
; Function compile flags: /Ogtp
; File E:\Proyectos\JuegosOnlineproyectos\PB\pbblow\Piercing Blow Remake\i3Server\include\i3Base\i3ClassMeta.h
;	COMDAT ?IsExactTypeOf@i3ClassMeta@@QAE_NPAV1@@Z
_TEXT	SEGMENT
_pMeta$ = 8						; size = 4
?IsExactTypeOf@i3ClassMeta@@QAE_NPAV1@@Z PROC		; i3ClassMeta::IsExactTypeOf, COMDAT
; _this$ = ecx

; 89   : 	{

  00000	55		 push	 ebp
  00001	8b ec		 mov	 ebp, esp

; 90   : 		return pMeta == this;

  00003	39 4d 08	 cmp	 DWORD PTR _pMeta$[ebp], ecx
  00006	0f 94 c0	 sete	 al

; 91   : 	}

  00009	5d		 pop	 ebp
  0000a	c2 04 00	 ret	 4
?IsExactTypeOf@i3ClassMeta@@QAE_NPAV1@@Z ENDP		; i3ClassMeta::IsExactTypeOf
_TEXT	ENDS
; Function compile flags: /Ogtp
; File E:\Proyectos\JuegosOnlineproyectos\PB\pbblow\Piercing Blow Remake\i3Server\include\i3Base\i3ClassMeta.h
;	COMDAT ?GetClassNameA@i3ClassMeta@@QAEPADXZ
_TEXT	SEGMENT
?GetClassNameA@i3ClassMeta@@QAEPADXZ PROC		; i3ClassMeta::GetClassNameA, COMDAT
; _this$ = ecx

; 83   : 		return m_pszClassName;

  00000	8b 41 0c	 mov	 eax, DWORD PTR [ecx+12]

; 84   : 	}

  00003	c3		 ret	 0
?GetClassNameA@i3ClassMeta@@QAEPADXZ ENDP		; i3ClassMeta::GetClassNameA
_TEXT	ENDS
; Function compile flags: /Ogtp
; File E:\Proyectos\JuegosOnlineproyectos\PB\pbblow\Piercing Blow Remake\i3Server\include\i3Base\i3ClassMeta.h
;	COMDAT ?GetClassSize@i3ClassMeta@@QAEIXZ
_TEXT	SEGMENT
?GetClassSize@i3ClassMeta@@QAEIXZ PROC			; i3ClassMeta::GetClassSize, COMDAT
; _this$ = ecx

; 78   : 		return m_ClassSize;

  00000	8b 41 08	 mov	 eax, DWORD PTR [ecx+8]

; 79   : 	}

  00003	c3		 ret	 0
?GetClassSize@i3ClassMeta@@QAEIXZ ENDP			; i3ClassMeta::GetClassSize
_TEXT	ENDS
; Function compile flags: /Ogtp
; File E:\Proyectos\JuegosOnlineproyectos\PB\pbblow\Piercing Blow Remake\i3Server\include\i3Base\i3ClassMeta.h
;	COMDAT ?SetMemoryPool@i3ClassMeta@@QAEXPAVi3MemoryPool@@@Z
_TEXT	SEGMENT
_pPool$ = 8						; size = 4
?SetMemoryPool@i3ClassMeta@@QAEXPAVi3MemoryPool@@@Z PROC ; i3ClassMeta::SetMemoryPool, COMDAT
; _this$ = ecx

; 66   : 	void			SetMemoryPool( i3MemoryPool * pPool)		{ m_pPool = pPool; }

  00000	55		 push	 ebp
  00001	8b ec		 mov	 ebp, esp
  00003	8b 45 08	 mov	 eax, DWORD PTR _pPool$[ebp]
  00006	89 41 34	 mov	 DWORD PTR [ecx+52], eax
  00009	5d		 pop	 ebp
  0000a	c2 04 00	 ret	 4
?SetMemoryPool@i3ClassMeta@@QAEXPAVi3MemoryPool@@@Z ENDP ; i3ClassMeta::SetMemoryPool
_TEXT	ENDS
; Function compile flags: /Ogtp
; File E:\Proyectos\JuegosOnlineproyectos\PB\pbblow\Piercing Blow Remake\i3Server\include\i3Base\i3ClassMeta.h
;	COMDAT ?GetMemoryPool@i3ClassMeta@@QAEPAVi3MemoryPool@@XZ
_TEXT	SEGMENT
?GetMemoryPool@i3ClassMeta@@QAEPAVi3MemoryPool@@XZ PROC	; i3ClassMeta::GetMemoryPool, COMDAT
; _this$ = ecx

; 65   : 	i3MemoryPool *	GetMemoryPool(void)							{ return m_pPool; }

  00000	8b 41 34	 mov	 eax, DWORD PTR [ecx+52]
  00003	c3		 ret	 0
?GetMemoryPool@i3ClassMeta@@QAEPAVi3MemoryPool@@XZ ENDP	; i3ClassMeta::GetMemoryPool
_TEXT	ENDS
; Function compile flags: /Ogtp
; File E:\Proyectos\JuegosOnlineproyectos\PB\pbblow\Piercing Blow Remake\i3Server\src\i3Base\i3NetworkSession.cpp
;	COMDAT ?__global_array_delete@@YAXPAXI@Z
_TEXT	SEGMENT
_p$ = 8							; size = 4
_sz$ = 12						; size = 4
?__global_array_delete@@YAXPAXI@Z PROC			; __global_array_delete, COMDAT

  00000	e9 00 00 00 00	 jmp	 ??_V@YAXPAXI@Z		; operator delete[]
?__global_array_delete@@YAXPAXI@Z ENDP			; __global_array_delete
_TEXT	ENDS
; Function compile flags: /Ogtp
; File E:\Proyectos\JuegosOnlineproyectos\PB\pbblow\Piercing Blow Remake\i3Server\src\i3Base\i3NetworkSession.cpp
;	COMDAT ?__global_array_delete@@YAXPAX@Z
_TEXT	SEGMENT
_p$ = 8							; size = 4
?__global_array_delete@@YAXPAX@Z PROC			; __global_array_delete, COMDAT

  00000	e9 00 00 00 00	 jmp	 ??_V@YAXPAX@Z		; operator delete[]
?__global_array_delete@@YAXPAX@Z ENDP			; __global_array_delete
_TEXT	ENDS
; Function compile flags: /Ogtp
; File E:\Proyectos\JuegosOnlineproyectos\PB\pbblow\Piercing Blow Remake\i3Server\src\i3Base\i3NetworkSession.cpp
;	COMDAT ?__global_delete@@YAXPAXI@Z
_TEXT	SEGMENT
_p$ = 8							; size = 4
_sz$ = 12						; size = 4
?__global_delete@@YAXPAXI@Z PROC			; __global_delete, COMDAT

  00000	e9 00 00 00 00	 jmp	 ??3@YAXPAXI@Z		; operator delete
?__global_delete@@YAXPAXI@Z ENDP			; __global_delete
_TEXT	ENDS
; Function compile flags: /Ogtp
; File E:\Proyectos\JuegosOnlineproyectos\PB\pbblow\Piercing Blow Remake\i3Server\src\i3Base\i3NetworkSession.cpp
;	COMDAT ?__empty_global_delete@@YAXPAXI@Z
_TEXT	SEGMENT
___formal$ = 8						; size = 4
___formal$ = 12						; size = 4
?__empty_global_delete@@YAXPAXI@Z PROC			; __empty_global_delete, COMDAT

  00000	c2 00 00	 ret	 0
?__empty_global_delete@@YAXPAXI@Z ENDP			; __empty_global_delete
_TEXT	ENDS
; Function compile flags: /Ogtp
; File E:\Proyectos\JuegosOnlineproyectos\PB\pbblow\Piercing Blow Remake\i3Server\src\i3Base\i3NetworkSession.cpp
;	COMDAT ?__global_delete@@YAXPAX@Z
_TEXT	SEGMENT
_p$ = 8							; size = 4
?__global_delete@@YAXPAX@Z PROC				; __global_delete, COMDAT

  00000	e9 00 00 00 00	 jmp	 ??3@YAXPAX@Z		; operator delete
?__global_delete@@YAXPAX@Z ENDP				; __global_delete
_TEXT	ENDS
; Function compile flags: /Ogtp
; File E:\Proyectos\JuegosOnlineproyectos\PB\pbblow\Piercing Blow Remake\i3Server\src\i3Base\i3NetworkSession.cpp
;	COMDAT ?__empty_global_delete@@YAXPAX@Z
_TEXT	SEGMENT
___formal$ = 8						; size = 4
?__empty_global_delete@@YAXPAX@Z PROC			; __empty_global_delete, COMDAT

  00000	c2 00 00	 ret	 0
?__empty_global_delete@@YAXPAX@Z ENDP			; __empty_global_delete
_TEXT	ENDS
END
