; Listing generated by Microsoft (R) Optimizing Compiler Version 19.50.35727.0 

	TITLE	E:\Proyectos\JuegosOnlineproyectos\PB\pbblow\Piercing Blow Remake\i3Server\Project\I3_DX\i3Server\x86\Release\i3NetworkUDPSocket.obj
	.686P
	.XMM
	include listing.inc
	.model	flat

INCLUDELIB LIBCMT
INCLUDELIB OLDNAMES

PUBLIC	?CreateInstance@?$i3MetaTemplate@Vi3NetworkUDPSocket@@@@UAEPAVi3ElementBase@@W4I3_CLASSMETA_TYPE@@@Z ; i3MetaTemplate<i3NetworkUDPSocket>::CreateInstance
PUBLIC	?BindInstance@?$i3MetaTemplate@Vi3NetworkUDPSocket@@@@UAEPAVi3ElementBase@@PAXW4I3_CLASSMETA_TYPE@@@Z ; i3MetaTemplate<i3NetworkUDPSocket>::BindInstance
PUBLIC	??_7?$i3MetaTemplate@Vi3NetworkUDPSocket@@@@6B@	; i3MetaTemplate<i3NetworkUDPSocket>::`vftable'
PUBLIC	??_G?$i3MetaTemplate@Vi3NetworkUDPSocket@@@@UAEPAXI@Z ; i3MetaTemplate<i3NetworkUDPSocket>::`scalar deleting destructor'
PUBLIC	??_C@_0O@OCDFBOHM@i3ElementBase@		; `string'
PUBLIC	??_C@_0BD@JCKEAIDM@i3NetworkUDPSocket@		; `string'
PUBLIC	??_R0?AVi3ClassMeta@@@8				; i3ClassMeta `RTTI Type Descriptor'
PUBLIC	??_R3i3ClassMeta@@8				; i3ClassMeta::`RTTI Class Hierarchy Descriptor'
PUBLIC	??_R2i3ClassMeta@@8				; i3ClassMeta::`RTTI Base Class Array'
PUBLIC	??_R1A@?0A@EA@i3ClassMeta@@8			; i3ClassMeta::`RTTI Base Class Descriptor at (0,-1,0,64)'
PUBLIC	??_R4?$i3MetaTemplate@Vi3NetworkUDPSocket@@@@6B@ ; i3MetaTemplate<i3NetworkUDPSocket>::`RTTI Complete Object Locator'
PUBLIC	??_R0?AV?$i3MetaTemplate@Vi3NetworkUDPSocket@@@@@8 ; i3MetaTemplate<i3NetworkUDPSocket> `RTTI Type Descriptor'
PUBLIC	??_R3?$i3MetaTemplate@Vi3NetworkUDPSocket@@@@8	; i3MetaTemplate<i3NetworkUDPSocket>::`RTTI Class Hierarchy Descriptor'
PUBLIC	??_R2?$i3MetaTemplate@Vi3NetworkUDPSocket@@@@8	; i3MetaTemplate<i3NetworkUDPSocket>::`RTTI Base Class Array'
PUBLIC	??_R1A@?0A@EA@?$i3MetaTemplate@Vi3NetworkUDPSocket@@@@8 ; i3MetaTemplate<i3NetworkUDPSocket>::`RTTI Base Class Descriptor at (0,-1,0,64)'
PUBLIC	?s_pClassMetai3NetworkUDPSocket@i3NetworkUDPSocket@@2PAVi3ClassMeta@@A ; i3NetworkUDPSocket::s_pClassMetai3NetworkUDPSocket
PUBLIC	__Avx2WmemEnabledWeakValue
EXTRN	??_E?$i3MetaTemplate@Vi3NetworkUDPSocket@@@@UAEPAXI@Z:PROC ; i3MetaTemplate<i3NetworkUDPSocket>::`vector deleting destructor'
EXTRN	??_7type_info@@6B@:QWORD			; type_info::`vftable'
;	COMDAT __Avx2WmemEnabledWeakValue
_BSS	SEGMENT
__Avx2WmemEnabledWeakValue DD 01H DUP (?)
_BSS	ENDS
_DATA	SEGMENT
?s_pClassMetai3NetworkUDPSocket@i3NetworkUDPSocket@@2PAVi3ClassMeta@@A DD FLAT:?s_ClassMetai3NetworkUDPSocket@@3V?$i3MetaTemplate@Vi3NetworkUDPSocket@@@@A ; i3NetworkUDPSocket::s_pClassMetai3NetworkUDPSocket
_DATA	ENDS
;	COMDAT ??_R1A@?0A@EA@?$i3MetaTemplate@Vi3NetworkUDPSocket@@@@8
rdata$r	SEGMENT
??_R1A@?0A@EA@?$i3MetaTemplate@Vi3NetworkUDPSocket@@@@8 DD FLAT:??_R0?AV?$i3MetaTemplate@Vi3NetworkUDPSocket@@@@@8 ; i3MetaTemplate<i3NetworkUDPSocket>::`RTTI Base Class Descriptor at (0,-1,0,64)'
	DD	01H
	DD	00H
	DD	0ffffffffH
	DD	00H
	DD	040H
	DD	FLAT:??_R3?$i3MetaTemplate@Vi3NetworkUDPSocket@@@@8
rdata$r	ENDS
;	COMDAT ??_R2?$i3MetaTemplate@Vi3NetworkUDPSocket@@@@8
rdata$r	SEGMENT
??_R2?$i3MetaTemplate@Vi3NetworkUDPSocket@@@@8 DD FLAT:??_R1A@?0A@EA@?$i3MetaTemplate@Vi3NetworkUDPSocket@@@@8 ; i3MetaTemplate<i3NetworkUDPSocket>::`RTTI Base Class Array'
	DD	FLAT:??_R1A@?0A@EA@i3ClassMeta@@8
rdata$r	ENDS
;	COMDAT ??_R3?$i3MetaTemplate@Vi3NetworkUDPSocket@@@@8
rdata$r	SEGMENT
??_R3?$i3MetaTemplate@Vi3NetworkUDPSocket@@@@8 DD 00H	; i3MetaTemplate<i3NetworkUDPSocket>::`RTTI Class Hierarchy Descriptor'
	DD	00H
	DD	02H
	DD	FLAT:??_R2?$i3MetaTemplate@Vi3NetworkUDPSocket@@@@8
rdata$r	ENDS
;	COMDAT ??_R0?AV?$i3MetaTemplate@Vi3NetworkUDPSocket@@@@@8
data$rs	SEGMENT
??_R0?AV?$i3MetaTemplate@Vi3NetworkUDPSocket@@@@@8 DD FLAT:??_7type_info@@6B@ ; i3MetaTemplate<i3NetworkUDPSocket> `RTTI Type Descriptor'
	DD	00H
	DB	'.?AV?$i3MetaTemplate@Vi3NetworkUDPSocket@@@@', 00H
data$rs	ENDS
;	COMDAT ??_R4?$i3MetaTemplate@Vi3NetworkUDPSocket@@@@6B@
rdata$r	SEGMENT
??_R4?$i3MetaTemplate@Vi3NetworkUDPSocket@@@@6B@ DD 00H	; i3MetaTemplate<i3NetworkUDPSocket>::`RTTI Complete Object Locator'
	DD	00H
	DD	00H
	DD	FLAT:??_R0?AV?$i3MetaTemplate@Vi3NetworkUDPSocket@@@@@8
	DD	FLAT:??_R3?$i3MetaTemplate@Vi3NetworkUDPSocket@@@@8
rdata$r	ENDS
;	COMDAT ??_R1A@?0A@EA@i3ClassMeta@@8
rdata$r	SEGMENT
??_R1A@?0A@EA@i3ClassMeta@@8 DD FLAT:??_R0?AVi3ClassMeta@@@8 ; i3ClassMeta::`RTTI Base Class Descriptor at (0,-1,0,64)'
	DD	00H
	DD	00H
	DD	0ffffffffH
	DD	00H
	DD	040H
	DD	FLAT:??_R3i3ClassMeta@@8
rdata$r	ENDS
;	COMDAT ??_R2i3ClassMeta@@8
rdata$r	SEGMENT
??_R2i3ClassMeta@@8 DD FLAT:??_R1A@?0A@EA@i3ClassMeta@@8 ; i3ClassMeta::`RTTI Base Class Array'
rdata$r	ENDS
;	COMDAT ??_R3i3ClassMeta@@8
rdata$r	SEGMENT
??_R3i3ClassMeta@@8 DD 00H				; i3ClassMeta::`RTTI Class Hierarchy Descriptor'
	DD	00H
	DD	01H
	DD	FLAT:??_R2i3ClassMeta@@8
rdata$r	ENDS
;	COMDAT ??_R0?AVi3ClassMeta@@@8
data$rs	SEGMENT
??_R0?AVi3ClassMeta@@@8 DD FLAT:??_7type_info@@6B@	; i3ClassMeta `RTTI Type Descriptor'
	DD	00H
	DB	'.?AVi3ClassMeta@@', 00H
data$rs	ENDS
;	COMDAT ??_C@_0BD@JCKEAIDM@i3NetworkUDPSocket@
CONST	SEGMENT
??_C@_0BD@JCKEAIDM@i3NetworkUDPSocket@ DB 'i3NetworkUDPSocket', 00H ; `string'
CONST	ENDS
;	COMDAT ??_C@_0O@OCDFBOHM@i3ElementBase@
CONST	SEGMENT
??_C@_0O@OCDFBOHM@i3ElementBase@ DB 'i3ElementBase', 00H ; `string'
CONST	ENDS
;	COMDAT ??_7?$i3MetaTemplate@Vi3NetworkUDPSocket@@@@6B@
CONST	SEGMENT
??_7?$i3MetaTemplate@Vi3NetworkUDPSocket@@@@6B@ DD FLAT:??_R4?$i3MetaTemplate@Vi3NetworkUDPSocket@@@@6B@ ; i3MetaTemplate<i3NetworkUDPSocket>::`vftable'
	DD	FLAT:??_E?$i3MetaTemplate@Vi3NetworkUDPSocket@@@@UAEPAXI@Z
	DD	FLAT:?CreateInstance@?$i3MetaTemplate@Vi3NetworkUDPSocket@@@@UAEPAVi3ElementBase@@W4I3_CLASSMETA_TYPE@@@Z
	DD	FLAT:?BindInstance@?$i3MetaTemplate@Vi3NetworkUDPSocket@@@@UAEPAVi3ElementBase@@PAXW4I3_CLASSMETA_TYPE@@@Z
CONST	ENDS
PUBLIC	?__empty_global_delete@@YAXPAX@Z		; __empty_global_delete
PUBLIC	?__global_delete@@YAXPAX@Z			; __global_delete
PUBLIC	?__empty_global_delete@@YAXPAXI@Z		; __empty_global_delete
PUBLIC	?__global_delete@@YAXPAXI@Z			; __global_delete
PUBLIC	?__global_array_delete@@YAXPAX@Z		; __global_array_delete
PUBLIC	?__global_array_delete@@YAXPAXI@Z		; __global_array_delete
PUBLIC	?GetMemoryPool@i3ClassMeta@@QAEPAVi3MemoryPool@@XZ ; i3ClassMeta::GetMemoryPool
PUBLIC	?SetMemoryPool@i3ClassMeta@@QAEXPAVi3MemoryPool@@@Z ; i3ClassMeta::SetMemoryPool
PUBLIC	?GetClassSize@i3ClassMeta@@QAEIXZ		; i3ClassMeta::GetClassSize
PUBLIC	?GetClassNameA@i3ClassMeta@@QAEPADXZ		; i3ClassMeta::GetClassNameA
PUBLIC	?IsExactTypeOf@i3ClassMeta@@QAE_NPAV1@@Z	; i3ClassMeta::IsExactTypeOf
PUBLIC	?SetStyle@i3ClassMeta@@QAEXI@Z			; i3ClassMeta::SetStyle
PUBLIC	?GetStyle@i3ClassMeta@@QAEIXZ			; i3ClassMeta::GetStyle
PUBLIC	?AddStyle@i3ClassMeta@@QAEXI@Z			; i3ClassMeta::AddStyle
PUBLIC	?RemoveStyle@i3ClassMeta@@QAEXI@Z		; i3ClassMeta::RemoveStyle
PUBLIC	?IsStyle@i3ClassMeta@@QAEHI@Z			; i3ClassMeta::IsStyle
PUBLIC	?IsAbstractClass@i3ClassMeta@@QAEHXZ		; i3ClassMeta::IsAbstractClass
PUBLIC	?IsConcreteClass@i3ClassMeta@@QAEHXZ		; i3ClassMeta::IsConcreteClass
PUBLIC	?GetBaseClassMeta@i3ClassMeta@@QAEPAV1@XZ	; i3ClassMeta::GetBaseClassMeta
PUBLIC	?getHashCode@i3ClassMeta@@QAEIXZ		; i3ClassMeta::getHashCode
PUBLIC	??0i3ClassMeta@@QAE@ABV0@@Z			; i3ClassMeta::i3ClassMeta
PUBLIC	??4i3ClassMeta@@QAEAAV0@ABV0@@Z			; i3ClassMeta::operator=
PUBLIC	??_Gi3ClassMeta@@UAEPAXI@Z			; i3ClassMeta::`scalar deleting destructor'
PUBLIC	??_Ei3ClassMeta@@UAEPAXI@Z			; i3ClassMeta::`vector deleting destructor'
PUBLIC	?GetClassMeta@i3ElementBase@@SAPAVi3ClassMeta@@XZ ; i3ElementBase::GetClassMeta
PUBLIC	?GetRefCount@i3ElementBase@@QAEHXZ		; i3ElementBase::GetRefCount
PUBLIC	?__SetMemoryPool@i3ElementBase@@QAEXPAVi3MemoryPool@@@Z ; i3ElementBase::__SetMemoryPool
PUBLIC	?__GetMemoryPool@i3ElementBase@@QAEPAVi3MemoryPool@@XZ ; i3ElementBase::__GetMemoryPool
PUBLIC	?IsExactTypeOf@i3ElementBase@@QAE_NPAVi3ClassMeta@@@Z ; i3ElementBase::IsExactTypeOf
PUBLIC	?IsTypeOf@i3ElementBase@@QAE_NPAVi3ClassMeta@@@Z ; i3ElementBase::IsTypeOf
PUBLIC	?AddRef@i3ElementBase@@QAEHXZ			; i3ElementBase::AddRef
PUBLIC	?_internal_SetRefCount@i3ElementBase@@QAEXH@Z	; i3ElementBase::_internal_SetRefCount
PUBLIC	??0i3ElementBase@@QAE@ABV0@@Z			; i3ElementBase::i3ElementBase
PUBLIC	??4i3ElementBase@@QAEAAV0@ABV0@@Z		; i3ElementBase::operator=
PUBLIC	??_Gi3ElementBase@@UAEPAXI@Z			; i3ElementBase::`scalar deleting destructor'
PUBLIC	??_Ei3ElementBase@@UAEPAXI@Z			; i3ElementBase::`vector deleting destructor'
PUBLIC	??0i3MemoryPool@@QAE@ABV0@@Z			; i3MemoryPool::i3MemoryPool
PUBLIC	??4i3MemoryPool@@QAEAAV0@ABV0@@Z		; i3MemoryPool::operator=
PUBLIC	??_Gi3MemoryPool@@UAEPAXI@Z			; i3MemoryPool::`scalar deleting destructor'
PUBLIC	??_Ei3MemoryPool@@UAEPAXI@Z			; i3MemoryPool::`vector deleting destructor'
PUBLIC	?GetClassMeta@i3NetworkUDPSocket@@SAPAVi3ClassMeta@@XZ ; i3NetworkUDPSocket::GetClassMeta
PUBLIC	?GetMeta@i3NetworkUDPSocket@@UAEPAVi3ClassMeta@@XZ ; i3NetworkUDPSocket::GetMeta
PUBLIC	?RegisterMeta@i3NetworkUDPSocket@@SAXXZ		; i3NetworkUDPSocket::RegisterMeta
PUBLIC	?SetConcreteClass@i3NetworkUDPSocket@@SAXPAVi3ClassMeta@@@Z ; i3NetworkUDPSocket::SetConcreteClass
PUBLIC	?SetGhostClass@i3NetworkUDPSocket@@SAXPAVi3ClassMeta@@@Z ; i3NetworkUDPSocket::SetGhostClass
PUBLIC	?_NewObject@i3NetworkUDPSocket@@SAPAV1@XZ	; i3NetworkUDPSocket::_NewObject
PUBLIC	?_NewObjectRef@i3NetworkUDPSocket@@SAPAV1@XZ	; i3NetworkUDPSocket::_NewObjectRef
PUBLIC	?_BindObject@i3NetworkUDPSocket@@SAPAV1@PAX@Z	; i3NetworkUDPSocket::_BindObject
PUBLIC	?_BindObjectRef@i3NetworkUDPSocket@@SAPAV1@PAX@Z ; i3NetworkUDPSocket::_BindObjectRef
PUBLIC	?_NewObjectByType@i3NetworkUDPSocket@@SAPAV1@W4I3_CLASSMETA_TYPE@@@Z ; i3NetworkUDPSocket::_NewObjectByType
PUBLIC	?_NewObjectRefByType@i3NetworkUDPSocket@@SAPAV1@W4I3_CLASSMETA_TYPE@@@Z ; i3NetworkUDPSocket::_NewObjectRefByType
PUBLIC	?_BindObjectByType@i3NetworkUDPSocket@@SAPAV1@PAXW4I3_CLASSMETA_TYPE@@@Z ; i3NetworkUDPSocket::_BindObjectByType
PUBLIC	?_BindObjectRefByType@i3NetworkUDPSocket@@SAPAV1@PAXW4I3_CLASSMETA_TYPE@@@Z ; i3NetworkUDPSocket::_BindObjectRefByType
PUBLIC	??0i3NetworkUDPSocket@@QAE@XZ			; i3NetworkUDPSocket::i3NetworkUDPSocket
PUBLIC	??1i3NetworkUDPSocket@@UAE@XZ			; i3NetworkUDPSocket::~i3NetworkUDPSocket
PUBLIC	?Create@i3NetworkUDPSocket@@QAEHHG@Z		; i3NetworkUDPSocket::Create
PUBLIC	?Destroy@i3NetworkUDPSocket@@QAEHXZ		; i3NetworkUDPSocket::Destroy
PUBLIC	?Send@i3NetworkUDPSocket@@QAEHPADHIG@Z		; i3NetworkUDPSocket::Send
PUBLIC	?Recv@i3NetworkUDPSocket@@QAEHXZ		; i3NetworkUDPSocket::Recv
PUBLIC	?getPacket@i3NetworkUDPSocket@@QAEPADXZ		; i3NetworkUDPSocket::getPacket
PUBLIC	?getPacket@i3NetworkUDPSocket@@QAEPADH@Z	; i3NetworkUDPSocket::getPacket
PUBLIC	?getRecvAddr@i3NetworkUDPSocket@@QAEPAUsockaddr@@XZ ; i3NetworkUDPSocket::getRecvAddr
PUBLIC	??0i3NetworkUDPSocket@@QAE@ABV0@@Z		; i3NetworkUDPSocket::i3NetworkUDPSocket
PUBLIC	??4i3NetworkUDPSocket@@QAEAAV0@ABV0@@Z		; i3NetworkUDPSocket::operator=
PUBLIC	??_Gi3NetworkUDPSocket@@UAEPAXI@Z		; i3NetworkUDPSocket::`scalar deleting destructor'
PUBLIC	??_Ei3NetworkUDPSocket@@UAEPAXI@Z		; i3NetworkUDPSocket::`vector deleting destructor'
PUBLIC	?GetClassMeta@i3Udp@@SAPAVi3ClassMeta@@XZ	; i3Udp::GetClassMeta
PUBLIC	?getSocketHandle@i3Udp@@QAEIXZ			; i3Udp::getSocketHandle
PUBLIC	??0i3Udp@@QAE@ABV0@@Z				; i3Udp::i3Udp
PUBLIC	??4i3Udp@@QAEAAV0@ABV0@@Z			; i3Udp::operator=
PUBLIC	??_Gi3Udp@@UAEPAXI@Z				; i3Udp::`scalar deleting destructor'
PUBLIC	??_Ei3Udp@@UAEPAXI@Z				; i3Udp::`vector deleting destructor'
PUBLIC	?GetClassMeta@i3Tcp@@SAPAVi3ClassMeta@@XZ	; i3Tcp::GetClassMeta
PUBLIC	??0i3Tcp@@QAE@ABV0@@Z				; i3Tcp::i3Tcp
PUBLIC	??4i3Tcp@@QAEAAV0@ABV0@@Z			; i3Tcp::operator=
PUBLIC	??_Gi3Tcp@@UAEPAXI@Z				; i3Tcp::`scalar deleting destructor'
PUBLIC	??_Ei3Tcp@@UAEPAXI@Z				; i3Tcp::`vector deleting destructor'
PUBLIC	??0?$i3MetaTemplate@Vi3NetworkUDPSocket@@@@QAE@IPAD0W4I3_CLASSMETA_TYPE@@@Z ; i3MetaTemplate<i3NetworkUDPSocket>::i3MetaTemplate<i3NetworkUDPSocket>
PUBLIC	??_7i3ClassMeta@@6B@				; i3ClassMeta::`vftable'
PUBLIC	??_7i3ElementBase@@6B@				; i3ElementBase::`vftable'
PUBLIC	??_7i3MemoryPool@@6B@				; i3MemoryPool::`vftable'
PUBLIC	??_7i3NetworkUDPSocket@@6B@			; i3NetworkUDPSocket::`vftable'
PUBLIC	??_7i3Udp@@6B@					; i3Udp::`vftable'
PUBLIC	??_7i3Tcp@@6B@					; i3Tcp::`vftable'
PUBLIC	??_C@_0BH@IODNIFMA@Socket?5create?5failed?4?6@	; `string'
PUBLIC	??_C@_0BC@HDIOIOLH@UDP?5bind?5failed?4?6@	; `string'
PUBLIC	??_C@_0GN@DAMBCGJP@E?3?2Proyectos?2JuegosOnlineproyec@ ; `string'
PUBLIC	??_C@_0P@DFCOLBLC@UDP?5shutdown?4?6@		; `string'
PUBLIC	??_C@_0L@JCJHCMHJ@UDP?5close?6@			; `string'
PUBLIC	??_C@_0BA@GLJDAJJP@UDPSend?5failed?6@		; `string'
PUBLIC	??_R4i3ElementBase@@6B@				; i3ElementBase::`RTTI Complete Object Locator'
PUBLIC	??_R0?AVi3ElementBase@@@8			; i3ElementBase `RTTI Type Descriptor'
PUBLIC	??_R3i3ElementBase@@8				; i3ElementBase::`RTTI Class Hierarchy Descriptor'
PUBLIC	??_R2i3ElementBase@@8				; i3ElementBase::`RTTI Base Class Array'
PUBLIC	??_R1A@?0A@EA@i3ElementBase@@8			; i3ElementBase::`RTTI Base Class Descriptor at (0,-1,0,64)'
PUBLIC	??_R4i3MemoryPool@@6B@				; i3MemoryPool::`RTTI Complete Object Locator'
PUBLIC	??_R0?AVi3MemoryPool@@@8			; i3MemoryPool `RTTI Type Descriptor'
PUBLIC	??_R3i3MemoryPool@@8				; i3MemoryPool::`RTTI Class Hierarchy Descriptor'
PUBLIC	??_R2i3MemoryPool@@8				; i3MemoryPool::`RTTI Base Class Array'
PUBLIC	??_R1A@?0A@EA@i3MemoryPool@@8			; i3MemoryPool::`RTTI Base Class Descriptor at (0,-1,0,64)'
PUBLIC	??_R4i3ClassMeta@@6B@				; i3ClassMeta::`RTTI Complete Object Locator'
PUBLIC	??_R4i3NetworkUDPSocket@@6B@			; i3NetworkUDPSocket::`RTTI Complete Object Locator'
PUBLIC	??_R0?AVi3NetworkUDPSocket@@@8			; i3NetworkUDPSocket `RTTI Type Descriptor'
PUBLIC	??_R3i3NetworkUDPSocket@@8			; i3NetworkUDPSocket::`RTTI Class Hierarchy Descriptor'
PUBLIC	??_R2i3NetworkUDPSocket@@8			; i3NetworkUDPSocket::`RTTI Base Class Array'
PUBLIC	??_R1A@?0A@EA@i3NetworkUDPSocket@@8		; i3NetworkUDPSocket::`RTTI Base Class Descriptor at (0,-1,0,64)'
PUBLIC	??_R4i3Udp@@6B@					; i3Udp::`RTTI Complete Object Locator'
PUBLIC	??_R0?AVi3Udp@@@8				; i3Udp `RTTI Type Descriptor'
PUBLIC	??_R3i3Udp@@8					; i3Udp::`RTTI Class Hierarchy Descriptor'
PUBLIC	??_R2i3Udp@@8					; i3Udp::`RTTI Base Class Array'
PUBLIC	??_R1A@?0A@EA@i3Udp@@8				; i3Udp::`RTTI Base Class Descriptor at (0,-1,0,64)'
PUBLIC	??_R4i3Tcp@@6B@					; i3Tcp::`RTTI Complete Object Locator'
PUBLIC	??_R0?AVi3Tcp@@@8				; i3Tcp `RTTI Type Descriptor'
PUBLIC	??_R3i3Tcp@@8					; i3Tcp::`RTTI Class Hierarchy Descriptor'
PUBLIC	??_R2i3Tcp@@8					; i3Tcp::`RTTI Base Class Array'
PUBLIC	??_R1A@?0A@EA@i3Tcp@@8				; i3Tcp::`RTTI Base Class Descriptor at (0,-1,0,64)'
EXTRN	??_M@YGXPAXIIP6EX0@Z@Z:PROC			; `eh vector destructor iterator'
EXTRN	__purecall:PROC
EXTRN	??3@YAXPAX@Z:PROC				; operator delete
EXTRN	??3@YAXPAXI@Z:PROC				; operator delete
EXTRN	??_V@YAXPAX@Z:PROC				; operator delete[]
EXTRN	??_V@YAXPAXI@Z:PROC				; operator delete[]
EXTRN	_atexit:PROC
EXTRN	___std_terminate:PROC
EXTRN	__imp__bind@12:PROC
EXTRN	__imp__closesocket@4:PROC
EXTRN	__imp__htonl@4:PROC
EXTRN	__imp__htons@4:PROC
EXTRN	__imp__recvfrom@24:PROC
EXTRN	__imp__sendto@24:PROC
EXTRN	__imp__shutdown@8:PROC
EXTRN	__imp__socket@12:PROC
EXTRN	?AllocTool@i3mem@@YAPAXHHHPBDH@Z:PROC		; i3mem::AllocTool
EXTRN	?FreeTool@i3mem@@YAXPAXPBDH@Z:PROC		; i3mem::FreeTool
EXTRN	??0i3ClassMeta@@QAE@IPAD0W4I3_CLASSMETA_TYPE@@@Z:PROC ; i3ClassMeta::i3ClassMeta
EXTRN	??1i3ClassMeta@@UAE@XZ:PROC			; i3ClassMeta::~i3ClassMeta
EXTRN	?CreateInstance@i3ClassMeta@@UAEPAVi3ElementBase@@W4I3_CLASSMETA_TYPE@@@Z:PROC ; i3ClassMeta::CreateInstance
EXTRN	?BindInstance@i3ClassMeta@@UAEPAVi3ElementBase@@PAXW4I3_CLASSMETA_TYPE@@@Z:PROC ; i3ClassMeta::BindInstance
EXTRN	?IsTypeOf@i3ClassMeta@@QAE_NPAV1@@Z:PROC	; i3ClassMeta::IsTypeOf
EXTRN	?Register@i3ClassMeta@@QAEXXZ:PROC		; i3ClassMeta::Register
EXTRN	?GetConcreteClass@i3ClassMeta@@QAEPAV1@W4I3_CLASSMETA_TYPE@@@Z:PROC ; i3ClassMeta::GetConcreteClass
EXTRN	?SetConcreteClass@i3ClassMeta@@QAEXPAV1@@Z:PROC	; i3ClassMeta::SetConcreteClass
EXTRN	?SetGhostClass@i3ClassMeta@@QAEXPAV1@@Z:PROC	; i3ClassMeta::SetGhostClass
EXTRN	?GetMeta@i3ElementBase@@UAEPAVi3ClassMeta@@XZ:PROC ; i3ElementBase::GetMeta
EXTRN	??0i3ElementBase@@QAE@XZ:PROC			; i3ElementBase::i3ElementBase
EXTRN	??1i3ElementBase@@UAE@XZ:PROC			; i3ElementBase::~i3ElementBase
EXTRN	??2i3ElementBase@@SAPAXI@Z:PROC			; i3ElementBase::operator new
EXTRN	??2i3ElementBase@@SAPAXIPAX@Z:PROC		; i3ElementBase::operator new
EXTRN	??3i3ElementBase@@SAXPAX@Z:PROC			; i3ElementBase::operator delete
EXTRN	??3i3ElementBase@@SAXPAX0@Z:PROC		; i3ElementBase::operator delete
EXTRN	?CopyTo@i3ElementBase@@UAEXPAV1@W4I3_COPY_METHOD@@@Z:PROC ; i3ElementBase::CopyTo
EXTRN	??1i3MemoryPool@@UAE@XZ:PROC			; i3MemoryPool::~i3MemoryPool
EXTRN	?GetError@i3Net@@YAHPAD@Z:PROC			; i3Net::GetError
EXTRN	?GetMeta@i3Udp@@UAEPAVi3ClassMeta@@XZ:PROC	; i3Udp::GetMeta
EXTRN	??1i3Udp@@UAE@XZ:PROC				; i3Udp::~i3Udp
EXTRN	?GetMeta@i3Tcp@@UAEPAVi3ClassMeta@@XZ:PROC	; i3Tcp::GetMeta
EXTRN	??1i3Tcp@@UAE@XZ:PROC				; i3Tcp::~i3Tcp
EXTRN	@__security_check_cookie@4:PROC
EXTRN	___CxxFrameHandler3:PROC
EXTRN	?s_pClassMetai3ElementBase@i3ElementBase@@2PAVi3ClassMeta@@A:DWORD ; i3ElementBase::s_pClassMetai3ElementBase
EXTRN	?s_pClassMetai3Udp@i3Udp@@2PAVi3ClassMeta@@A:DWORD ; i3Udp::s_pClassMetai3Udp
EXTRN	?s_pClassMetai3Tcp@i3Tcp@@2PAVi3ClassMeta@@A:DWORD ; i3Tcp::s_pClassMetai3Tcp
EXTRN	___security_cookie:DWORD
_BSS	SEGMENT
?s_ClassMetai3NetworkUDPSocket@@3V?$i3MetaTemplate@Vi3NetworkUDPSocket@@@@A DB 038H DUP (?) ; s_ClassMetai3NetworkUDPSocket
_BSS	ENDS
CRT$XCU	SEGMENT
?s_ClassMetai3NetworkUDPSocket$initializer$@@3P6AXXZA DD FLAT:??__Es_ClassMetai3NetworkUDPSocket@@YAXXZ ; s_ClassMetai3NetworkUDPSocket$initializer$
CRT$XCU	ENDS
;	COMDAT ??_R1A@?0A@EA@i3Tcp@@8
rdata$r	SEGMENT
??_R1A@?0A@EA@i3Tcp@@8 DD FLAT:??_R0?AVi3Tcp@@@8	; i3Tcp::`RTTI Base Class Descriptor at (0,-1,0,64)'
	DD	01H
	DD	00H
	DD	0ffffffffH
	DD	00H
	DD	040H
	DD	FLAT:??_R3i3Tcp@@8
rdata$r	ENDS
;	COMDAT ??_R2i3Tcp@@8
rdata$r	SEGMENT
??_R2i3Tcp@@8 DD FLAT:??_R1A@?0A@EA@i3Tcp@@8		; i3Tcp::`RTTI Base Class Array'
	DD	FLAT:??_R1A@?0A@EA@i3ElementBase@@8
rdata$r	ENDS
;	COMDAT ??_R3i3Tcp@@8
rdata$r	SEGMENT
??_R3i3Tcp@@8 DD 00H					; i3Tcp::`RTTI Class Hierarchy Descriptor'
	DD	00H
	DD	02H
	DD	FLAT:??_R2i3Tcp@@8
rdata$r	ENDS
;	COMDAT ??_R0?AVi3Tcp@@@8
data$rs	SEGMENT
??_R0?AVi3Tcp@@@8 DD FLAT:??_7type_info@@6B@		; i3Tcp `RTTI Type Descriptor'
	DD	00H
	DB	'.?AVi3Tcp@@', 00H
data$rs	ENDS
;	COMDAT ??_R4i3Tcp@@6B@
rdata$r	SEGMENT
??_R4i3Tcp@@6B@ DD 00H					; i3Tcp::`RTTI Complete Object Locator'
	DD	00H
	DD	00H
	DD	FLAT:??_R0?AVi3Tcp@@@8
	DD	FLAT:??_R3i3Tcp@@8
rdata$r	ENDS
;	COMDAT ??_R1A@?0A@EA@i3Udp@@8
rdata$r	SEGMENT
??_R1A@?0A@EA@i3Udp@@8 DD FLAT:??_R0?AVi3Udp@@@8	; i3Udp::`RTTI Base Class Descriptor at (0,-1,0,64)'
	DD	01H
	DD	00H
	DD	0ffffffffH
	DD	00H
	DD	040H
	DD	FLAT:??_R3i3Udp@@8
rdata$r	ENDS
;	COMDAT ??_R2i3Udp@@8
rdata$r	SEGMENT
??_R2i3Udp@@8 DD FLAT:??_R1A@?0A@EA@i3Udp@@8		; i3Udp::`RTTI Base Class Array'
	DD	FLAT:??_R1A@?0A@EA@i3ElementBase@@8
rdata$r	ENDS
;	COMDAT ??_R3i3Udp@@8
rdata$r	SEGMENT
??_R3i3Udp@@8 DD 00H					; i3Udp::`RTTI Class Hierarchy Descriptor'
	DD	00H
	DD	02H
	DD	FLAT:??_R2i3Udp@@8
rdata$r	ENDS
;	COMDAT ??_R0?AVi3Udp@@@8
data$rs	SEGMENT
??_R0?AVi3Udp@@@8 DD FLAT:??_7type_info@@6B@		; i3Udp `RTTI Type Descriptor'
	DD	00H
	DB	'.?AVi3Udp@@', 00H
data$rs	ENDS
;	COMDAT ??_R4i3Udp@@6B@
rdata$r	SEGMENT
??_R4i3Udp@@6B@ DD 00H					; i3Udp::`RTTI Complete Object Locator'
	DD	00H
	DD	00H
	DD	FLAT:??_R0?AVi3Udp@@@8
	DD	FLAT:??_R3i3Udp@@8
rdata$r	ENDS
;	COMDAT ??_R1A@?0A@EA@i3NetworkUDPSocket@@8
rdata$r	SEGMENT
??_R1A@?0A@EA@i3NetworkUDPSocket@@8 DD FLAT:??_R0?AVi3NetworkUDPSocket@@@8 ; i3NetworkUDPSocket::`RTTI Base Class Descriptor at (0,-1,0,64)'
	DD	01H
	DD	00H
	DD	0ffffffffH
	DD	00H
	DD	040H
	DD	FLAT:??_R3i3NetworkUDPSocket@@8
rdata$r	ENDS
;	COMDAT ??_R2i3NetworkUDPSocket@@8
rdata$r	SEGMENT
??_R2i3NetworkUDPSocket@@8 DD FLAT:??_R1A@?0A@EA@i3NetworkUDPSocket@@8 ; i3NetworkUDPSocket::`RTTI Base Class Array'
	DD	FLAT:??_R1A@?0A@EA@i3ElementBase@@8
rdata$r	ENDS
;	COMDAT ??_R3i3NetworkUDPSocket@@8
rdata$r	SEGMENT
??_R3i3NetworkUDPSocket@@8 DD 00H			; i3NetworkUDPSocket::`RTTI Class Hierarchy Descriptor'
	DD	00H
	DD	02H
	DD	FLAT:??_R2i3NetworkUDPSocket@@8
rdata$r	ENDS
;	COMDAT ??_R0?AVi3NetworkUDPSocket@@@8
data$rs	SEGMENT
??_R0?AVi3NetworkUDPSocket@@@8 DD FLAT:??_7type_info@@6B@ ; i3NetworkUDPSocket `RTTI Type Descriptor'
	DD	00H
	DB	'.?AVi3NetworkUDPSocket@@', 00H
data$rs	ENDS
;	COMDAT ??_R4i3NetworkUDPSocket@@6B@
rdata$r	SEGMENT
??_R4i3NetworkUDPSocket@@6B@ DD 00H			; i3NetworkUDPSocket::`RTTI Complete Object Locator'
	DD	00H
	DD	00H
	DD	FLAT:??_R0?AVi3NetworkUDPSocket@@@8
	DD	FLAT:??_R3i3NetworkUDPSocket@@8
rdata$r	ENDS
;	COMDAT ??_R4i3ClassMeta@@6B@
rdata$r	SEGMENT
??_R4i3ClassMeta@@6B@ DD 00H				; i3ClassMeta::`RTTI Complete Object Locator'
	DD	00H
	DD	00H
	DD	FLAT:??_R0?AVi3ClassMeta@@@8
	DD	FLAT:??_R3i3ClassMeta@@8
rdata$r	ENDS
;	COMDAT ??_R1A@?0A@EA@i3MemoryPool@@8
rdata$r	SEGMENT
??_R1A@?0A@EA@i3MemoryPool@@8 DD FLAT:??_R0?AVi3MemoryPool@@@8 ; i3MemoryPool::`RTTI Base Class Descriptor at (0,-1,0,64)'
	DD	00H
	DD	00H
	DD	0ffffffffH
	DD	00H
	DD	040H
	DD	FLAT:??_R3i3MemoryPool@@8
rdata$r	ENDS
;	COMDAT ??_R2i3MemoryPool@@8
rdata$r	SEGMENT
??_R2i3MemoryPool@@8 DD FLAT:??_R1A@?0A@EA@i3MemoryPool@@8 ; i3MemoryPool::`RTTI Base Class Array'
rdata$r	ENDS
;	COMDAT ??_R3i3MemoryPool@@8
rdata$r	SEGMENT
??_R3i3MemoryPool@@8 DD 00H				; i3MemoryPool::`RTTI Class Hierarchy Descriptor'
	DD	00H
	DD	01H
	DD	FLAT:??_R2i3MemoryPool@@8
rdata$r	ENDS
;	COMDAT ??_R0?AVi3MemoryPool@@@8
data$rs	SEGMENT
??_R0?AVi3MemoryPool@@@8 DD FLAT:??_7type_info@@6B@	; i3MemoryPool `RTTI Type Descriptor'
	DD	00H
	DB	'.?AVi3MemoryPool@@', 00H
data$rs	ENDS
;	COMDAT ??_R4i3MemoryPool@@6B@
rdata$r	SEGMENT
??_R4i3MemoryPool@@6B@ DD 00H				; i3MemoryPool::`RTTI Complete Object Locator'
	DD	00H
	DD	00H
	DD	FLAT:??_R0?AVi3MemoryPool@@@8
	DD	FLAT:??_R3i3MemoryPool@@8
rdata$r	ENDS
;	COMDAT ??_R1A@?0A@EA@i3ElementBase@@8
rdata$r	SEGMENT
??_R1A@?0A@EA@i3ElementBase@@8 DD FLAT:??_R0?AVi3ElementBase@@@8 ; i3ElementBase::`RTTI Base Class Descriptor at (0,-1,0,64)'
	DD	00H
	DD	00H
	DD	0ffffffffH
	DD	00H
	DD	040H
	DD	FLAT:??_R3i3ElementBase@@8
rdata$r	ENDS
;	COMDAT ??_R2i3ElementBase@@8
rdata$r	SEGMENT
??_R2i3ElementBase@@8 DD FLAT:??_R1A@?0A@EA@i3ElementBase@@8 ; i3ElementBase::`RTTI Base Class Array'
rdata$r	ENDS
;	COMDAT ??_R3i3ElementBase@@8
rdata$r	SEGMENT
??_R3i3ElementBase@@8 DD 00H				; i3ElementBase::`RTTI Class Hierarchy Descriptor'
	DD	00H
	DD	01H
	DD	FLAT:??_R2i3ElementBase@@8
rdata$r	ENDS
;	COMDAT ??_R0?AVi3ElementBase@@@8
data$rs	SEGMENT
??_R0?AVi3ElementBase@@@8 DD FLAT:??_7type_info@@6B@	; i3ElementBase `RTTI Type Descriptor'
	DD	00H
	DB	'.?AVi3ElementBase@@', 00H
data$rs	ENDS
;	COMDAT ??_R4i3ElementBase@@6B@
rdata$r	SEGMENT
??_R4i3ElementBase@@6B@ DD 00H				; i3ElementBase::`RTTI Complete Object Locator'
	DD	00H
	DD	00H
	DD	FLAT:??_R0?AVi3ElementBase@@@8
	DD	FLAT:??_R3i3ElementBase@@8
rdata$r	ENDS
;	COMDAT ??_C@_0BA@GLJDAJJP@UDPSend?5failed?6@
CONST	SEGMENT
??_C@_0BA@GLJDAJJP@UDPSend?5failed?6@ DB 'UDPSend failed', 0aH, 00H ; `string'
CONST	ENDS
;	COMDAT ??_C@_0L@JCJHCMHJ@UDP?5close?6@
CONST	SEGMENT
??_C@_0L@JCJHCMHJ@UDP?5close?6@ DB 'UDP close', 0aH, 00H ; `string'
CONST	ENDS
;	COMDAT ??_C@_0P@DFCOLBLC@UDP?5shutdown?4?6@
CONST	SEGMENT
??_C@_0P@DFCOLBLC@UDP?5shutdown?4?6@ DB 'UDP shutdown.', 0aH, 00H ; `string'
CONST	ENDS
;	COMDAT ??_C@_0GN@DAMBCGJP@E?3?2Proyectos?2JuegosOnlineproyec@
CONST	SEGMENT
??_C@_0GN@DAMBCGJP@E?3?2Proyectos?2JuegosOnlineproyec@ DB 'E:\Proyectos\J'
	DB	'uegosOnlineproyectos\PB\pbblow\Piercing Blow Remake\i3Server\'
	DB	'src\i3Base\i3NetworkUDPSocket.cpp', 00H	; `string'
CONST	ENDS
;	COMDAT ??_C@_0BC@HDIOIOLH@UDP?5bind?5failed?4?6@
CONST	SEGMENT
??_C@_0BC@HDIOIOLH@UDP?5bind?5failed?4?6@ DB 'UDP bind failed.', 0aH, 00H ; `string'
CONST	ENDS
;	COMDAT ??_C@_0BH@IODNIFMA@Socket?5create?5failed?4?6@
CONST	SEGMENT
??_C@_0BH@IODNIFMA@Socket?5create?5failed?4?6@ DB 'Socket create failed.', 0aH
	DB	00H						; `string'
CONST	ENDS
;	COMDAT ??_7i3Tcp@@6B@
CONST	SEGMENT
??_7i3Tcp@@6B@ DD FLAT:??_R4i3Tcp@@6B@			; i3Tcp::`vftable'
	DD	FLAT:?GetMeta@i3Tcp@@UAEPAVi3ClassMeta@@XZ
	DD	FLAT:??_Ei3Tcp@@UAEPAXI@Z
	DD	FLAT:?CopyTo@i3ElementBase@@UAEXPAV1@W4I3_COPY_METHOD@@@Z
CONST	ENDS
;	COMDAT ??_7i3Udp@@6B@
CONST	SEGMENT
??_7i3Udp@@6B@ DD FLAT:??_R4i3Udp@@6B@			; i3Udp::`vftable'
	DD	FLAT:?GetMeta@i3Udp@@UAEPAVi3ClassMeta@@XZ
	DD	FLAT:??_Ei3Udp@@UAEPAXI@Z
	DD	FLAT:?CopyTo@i3ElementBase@@UAEXPAV1@W4I3_COPY_METHOD@@@Z
CONST	ENDS
;	COMDAT ??_7i3NetworkUDPSocket@@6B@
CONST	SEGMENT
??_7i3NetworkUDPSocket@@6B@ DD FLAT:??_R4i3NetworkUDPSocket@@6B@ ; i3NetworkUDPSocket::`vftable'
	DD	FLAT:?GetMeta@i3NetworkUDPSocket@@UAEPAVi3ClassMeta@@XZ
	DD	FLAT:??_Ei3NetworkUDPSocket@@UAEPAXI@Z
	DD	FLAT:?CopyTo@i3ElementBase@@UAEXPAV1@W4I3_COPY_METHOD@@@Z
CONST	ENDS
;	COMDAT ??_7i3MemoryPool@@6B@
CONST	SEGMENT
??_7i3MemoryPool@@6B@ DD FLAT:??_R4i3MemoryPool@@6B@	; i3MemoryPool::`vftable'
	DD	FLAT:??_Ei3MemoryPool@@UAEPAXI@Z
	DD	FLAT:__purecall
	DD	FLAT:__purecall
CONST	ENDS
;	COMDAT ??_7i3ElementBase@@6B@
CONST	SEGMENT
??_7i3ElementBase@@6B@ DD FLAT:??_R4i3ElementBase@@6B@	; i3ElementBase::`vftable'
	DD	FLAT:?GetMeta@i3ElementBase@@UAEPAVi3ClassMeta@@XZ
	DD	FLAT:??_Ei3ElementBase@@UAEPAXI@Z
	DD	FLAT:?CopyTo@i3ElementBase@@UAEXPAV1@W4I3_COPY_METHOD@@@Z
CONST	ENDS
;	COMDAT ??_7i3ClassMeta@@6B@
CONST	SEGMENT
??_7i3ClassMeta@@6B@ DD FLAT:??_R4i3ClassMeta@@6B@	; i3ClassMeta::`vftable'
	DD	FLAT:??_Ei3ClassMeta@@UAEPAXI@Z
	DD	FLAT:?CreateInstance@i3ClassMeta@@UAEPAVi3ElementBase@@W4I3_CLASSMETA_TYPE@@@Z
	DD	FLAT:?BindInstance@i3ClassMeta@@UAEPAVi3ElementBase@@PAXW4I3_CLASSMETA_TYPE@@@Z
CONST	ENDS
;	COMDAT xdata$x
xdata$x	SEGMENT
__unwindtable$?BindInstance@?$i3MetaTemplate@Vi3NetworkUDPSocket@@@@UAEPAVi3ElementBase@@PAXW4I3_CLASSMETA_TYPE@@@Z DD 0ffffffffH
	DD	FLAT:__unwindfunclet$?BindInstance@?$i3MetaTemplate@Vi3NetworkUDPSocket@@@@UAEPAVi3ElementBase@@PAXW4I3_CLASSMETA_TYPE@@@Z$0
__ehfuncinfo$?BindInstance@?$i3MetaTemplate@Vi3NetworkUDPSocket@@@@UAEPAVi3ElementBase@@PAXW4I3_CLASSMETA_TYPE@@@Z DD 019930522H
	DD	01H
	DD	FLAT:__unwindtable$?BindInstance@?$i3MetaTemplate@Vi3NetworkUDPSocket@@@@UAEPAVi3ElementBase@@PAXW4I3_CLASSMETA_TYPE@@@Z
	DD	2 DUP(00H)
	DD	2 DUP(00H)
	DD	00H
	DD	01H
xdata$x	ENDS
;	COMDAT xdata$x
xdata$x	SEGMENT
__unwindtable$?CreateInstance@?$i3MetaTemplate@Vi3NetworkUDPSocket@@@@UAEPAVi3ElementBase@@W4I3_CLASSMETA_TYPE@@@Z DD 0ffffffffH
	DD	FLAT:__unwindfunclet$?CreateInstance@?$i3MetaTemplate@Vi3NetworkUDPSocket@@@@UAEPAVi3ElementBase@@W4I3_CLASSMETA_TYPE@@@Z$0
__ehfuncinfo$?CreateInstance@?$i3MetaTemplate@Vi3NetworkUDPSocket@@@@UAEPAVi3ElementBase@@W4I3_CLASSMETA_TYPE@@@Z DD 019930522H
	DD	01H
	DD	FLAT:__unwindtable$?CreateInstance@?$i3MetaTemplate@Vi3NetworkUDPSocket@@@@UAEPAVi3ElementBase@@W4I3_CLASSMETA_TYPE@@@Z
	DD	2 DUP(00H)
	DD	2 DUP(00H)
	DD	00H
	DD	01H
xdata$x	ENDS
;	COMDAT xdata$x
xdata$x	SEGMENT
__ehfuncinfo$??_Ei3Tcp@@UAEPAXI@Z DD 019930522H
	DD	00H
	DD	00H
	DD	2 DUP(00H)
	DD	2 DUP(00H)
	DD	00H
	DD	05H
xdata$x	ENDS
;	COMDAT xdata$x
xdata$x	SEGMENT
__ehfuncinfo$??_Ei3Udp@@UAEPAXI@Z DD 019930522H
	DD	00H
	DD	00H
	DD	2 DUP(00H)
	DD	2 DUP(00H)
	DD	00H
	DD	05H
xdata$x	ENDS
;	COMDAT xdata$x
xdata$x	SEGMENT
__unwindtable$??_Ei3NetworkUDPSocket@@UAEPAXI@Z DD 0ffffffffH
	DD	FLAT:___std_terminate
__ehfuncinfo$??_Ei3NetworkUDPSocket@@UAEPAXI@Z DD 019930522H
	DD	01H
	DD	FLAT:__unwindtable$??_Ei3NetworkUDPSocket@@UAEPAXI@Z
	DD	2 DUP(00H)
	DD	2 DUP(00H)
	DD	00H
	DD	05H
xdata$x	ENDS
;	COMDAT xdata$x
xdata$x	SEGMENT
__unwindtable$??_Gi3NetworkUDPSocket@@UAEPAXI@Z DD 0ffffffffH
	DD	FLAT:___std_terminate
__ehfuncinfo$??_Gi3NetworkUDPSocket@@UAEPAXI@Z DD 019930522H
	DD	01H
	DD	FLAT:__unwindtable$??_Gi3NetworkUDPSocket@@UAEPAXI@Z
	DD	2 DUP(00H)
	DD	2 DUP(00H)
	DD	00H
	DD	05H
xdata$x	ENDS
;	COMDAT voltbl
voltbl	SEGMENT
_volmd	DB	020H
	DB	0d5H
voltbl	ENDS
;	COMDAT xdata$x
xdata$x	SEGMENT
__ehfuncinfo$??1i3NetworkUDPSocket@@UAE@XZ DD 019930522H
	DD	00H
	DD	00H
	DD	2 DUP(00H)
	DD	2 DUP(00H)
	DD	00H
	DD	05H
xdata$x	ENDS
;	COMDAT voltbl
voltbl	SEGMENT
_volmd	DB	030H
voltbl	ENDS
;	COMDAT xdata$x
xdata$x	SEGMENT
__ehfuncinfo$??_Ei3MemoryPool@@UAEPAXI@Z DD 019930522H
	DD	00H
	DD	00H
	DD	2 DUP(00H)
	DD	2 DUP(00H)
	DD	00H
	DD	05H
xdata$x	ENDS
;	COMDAT xdata$x
xdata$x	SEGMENT
__ehfuncinfo$??_Ei3ElementBase@@UAEPAXI@Z DD 019930522H
	DD	00H
	DD	00H
	DD	2 DUP(00H)
	DD	2 DUP(00H)
	DD	00H
	DD	05H
xdata$x	ENDS
;	COMDAT xdata$x
xdata$x	SEGMENT
__ehfuncinfo$??_Ei3ClassMeta@@UAEPAXI@Z DD 019930522H
	DD	00H
	DD	00H
	DD	2 DUP(00H)
	DD	2 DUP(00H)
	DD	00H
	DD	05H
xdata$x	ENDS
;	COMDAT voltbl
voltbl	SEGMENT
_volmd	DB	010H
voltbl	ENDS
;	COMDAT voltbl
voltbl	SEGMENT
_volmd	DB	010H
voltbl	ENDS
; Function compile flags: /Ogtp
;	COMDAT ??__Fs_ClassMetai3NetworkUDPSocket@@YAXXZ
text$yd	SEGMENT
??__Fs_ClassMetai3NetworkUDPSocket@@YAXXZ PROC		; `dynamic atexit destructor for 's_ClassMetai3NetworkUDPSocket'', COMDAT
  00000	b9 00 00 00 00	 mov	 ecx, OFFSET ?s_ClassMetai3NetworkUDPSocket@@3V?$i3MetaTemplate@Vi3NetworkUDPSocket@@@@A
  00005	e9 00 00 00 00	 jmp	 ??1i3ClassMeta@@UAE@XZ	; i3ClassMeta::~i3ClassMeta
??__Fs_ClassMetai3NetworkUDPSocket@@YAXXZ ENDP		; `dynamic atexit destructor for 's_ClassMetai3NetworkUDPSocket''
text$yd	ENDS
; Function compile flags: /Ogtp
; File E:\Proyectos\JuegosOnlineproyectos\PB\pbblow\Piercing Blow Remake\i3Server\src\i3Base\i3NetworkUDPSocket.cpp
; File E:\Proyectos\JuegosOnlineproyectos\PB\pbblow\Piercing Blow Remake\i3Server\include\i3Base\i3MetaTemplate.h
; File E:\Proyectos\JuegosOnlineproyectos\PB\pbblow\Piercing Blow Remake\i3Server\src\i3Base\i3NetworkUDPSocket.cpp
; File E:\Proyectos\JuegosOnlineproyectos\PB\pbblow\Piercing Blow Remake\i3Server\include\i3Base\i3MetaTemplate.h
; File E:\Proyectos\JuegosOnlineproyectos\PB\pbblow\Piercing Blow Remake\i3Server\src\i3Base\i3NetworkUDPSocket.cpp
;	COMDAT ??__Es_ClassMetai3NetworkUDPSocket@@YAXXZ
text$di	SEGMENT
??__Es_ClassMetai3NetworkUDPSocket@@YAXXZ PROC		; `dynamic initializer for 's_ClassMetai3NetworkUDPSocket'', COMDAT
; File E:\Proyectos\JuegosOnlineproyectos\PB\pbblow\Piercing Blow Remake\i3Server\include\i3Base\i3MetaTemplate.h

; 28   : : i3ClassMeta( classSz, pszClassName, pszBaseClassName, type)

  00000	6a 00		 push	 0
  00002	68 00 00 00 00	 push	 OFFSET ??_C@_0O@OCDFBOHM@i3ElementBase@
  00007	68 00 00 00 00	 push	 OFFSET ??_C@_0BD@JCKEAIDM@i3NetworkUDPSocket@
  0000c	6a 2c		 push	 44			; 0000002cH
  0000e	b9 00 00 00 00	 mov	 ecx, OFFSET ?s_ClassMetai3NetworkUDPSocket@@3V?$i3MetaTemplate@Vi3NetworkUDPSocket@@@@A
  00013	e8 00 00 00 00	 call	 ??0i3ClassMeta@@QAE@IPAD0W4I3_CLASSMETA_TYPE@@@Z ; i3ClassMeta::i3ClassMeta
; File E:\Proyectos\JuegosOnlineproyectos\PB\pbblow\Piercing Blow Remake\i3Server\src\i3Base\i3NetworkUDPSocket.cpp

; 5    : I3_CLASS_INSTANCE( i3NetworkUDPSocket, i3ElementBase );

  00018	68 00 00 00 00	 push	 OFFSET ??__Fs_ClassMetai3NetworkUDPSocket@@YAXXZ ; `dynamic atexit destructor for 's_ClassMetai3NetworkUDPSocket''
; File E:\Proyectos\JuegosOnlineproyectos\PB\pbblow\Piercing Blow Remake\i3Server\include\i3Base\i3MetaTemplate.h

; 29   : {

  0001d	c7 05 00 00 00
	00 00 00 00 00	 mov	 DWORD PTR ?s_ClassMetai3NetworkUDPSocket@@3V?$i3MetaTemplate@Vi3NetworkUDPSocket@@@@A, OFFSET ??_7?$i3MetaTemplate@Vi3NetworkUDPSocket@@@@6B@
; File E:\Proyectos\JuegosOnlineproyectos\PB\pbblow\Piercing Blow Remake\i3Server\src\i3Base\i3NetworkUDPSocket.cpp

; 5    : I3_CLASS_INSTANCE( i3NetworkUDPSocket, i3ElementBase );

  00027	e8 00 00 00 00	 call	 _atexit
  0002c	59		 pop	 ecx
  0002d	c3		 ret	 0
??__Es_ClassMetai3NetworkUDPSocket@@YAXXZ ENDP		; `dynamic initializer for 's_ClassMetai3NetworkUDPSocket''
text$di	ENDS
; Function compile flags: /Ogtp
;	COMDAT ??_G?$i3MetaTemplate@Vi3NetworkUDPSocket@@@@UAEPAXI@Z
_TEXT	SEGMENT
___flags$ = 8						; size = 4
??_G?$i3MetaTemplate@Vi3NetworkUDPSocket@@@@UAEPAXI@Z PROC ; i3MetaTemplate<i3NetworkUDPSocket>::`scalar deleting destructor', COMDAT
; _this$ = ecx
  00000	55		 push	 ebp
  00001	8b ec		 mov	 ebp, esp
  00003	56		 push	 esi
  00004	8b f1		 mov	 esi, ecx
  00006	e8 00 00 00 00	 call	 ??1i3ClassMeta@@UAE@XZ	; i3ClassMeta::~i3ClassMeta
  0000b	f6 45 08 01	 test	 BYTE PTR ___flags$[ebp], 1
  0000f	74 0b		 je	 SHORT $LN10@scalar
  00011	6a 38		 push	 56			; 00000038H
  00013	56		 push	 esi
  00014	e8 00 00 00 00	 call	 ??3@YAXPAXI@Z		; operator delete
  00019	83 c4 08	 add	 esp, 8
$LN10@scalar:
  0001c	8b c6		 mov	 eax, esi
  0001e	5e		 pop	 esi
  0001f	5d		 pop	 ebp
  00020	c2 04 00	 ret	 4
??_G?$i3MetaTemplate@Vi3NetworkUDPSocket@@@@UAEPAXI@Z ENDP ; i3MetaTemplate<i3NetworkUDPSocket>::`scalar deleting destructor'
_TEXT	ENDS
; Function compile flags: /Ogtp
; File E:\Proyectos\JuegosOnlineproyectos\PB\pbblow\Piercing Blow Remake\i3Server\include\i3Base\i3MetaTemplate.h
;	COMDAT ?BindInstance@?$i3MetaTemplate@Vi3NetworkUDPSocket@@@@UAEPAVi3ElementBase@@PAXW4I3_CLASSMETA_TYPE@@@Z
_TEXT	SEGMENT
__$EHRec$ = -12						; size = 12
_pBuf$ = 8						; size = 4
_type$ = 12						; size = 4
$T2 = 12						; size = 4
?BindInstance@?$i3MetaTemplate@Vi3NetworkUDPSocket@@@@UAEPAVi3ElementBase@@PAXW4I3_CLASSMETA_TYPE@@@Z PROC ; i3MetaTemplate<i3NetworkUDPSocket>::BindInstance, COMDAT
; _this$ = ecx

; 129  : 	{

  00000	55		 push	 ebp
  00001	8b ec		 mov	 ebp, esp
  00003	6a ff		 push	 -1
  00005	68 00 00 00 00	 push	 __ehhandler$?BindInstance@?$i3MetaTemplate@Vi3NetworkUDPSocket@@@@UAEPAVi3ElementBase@@PAXW4I3_CLASSMETA_TYPE@@@Z
  0000a	64 a1 00 00 00
	00		 mov	 eax, DWORD PTR fs:0
  00010	50		 push	 eax
  00011	a1 00 00 00 00	 mov	 eax, DWORD PTR ___security_cookie
  00016	33 c5		 xor	 eax, ebp
  00018	50		 push	 eax
  00019	8d 45 f4	 lea	 eax, DWORD PTR __$EHRec$[ebp]
  0001c	64 a3 00 00 00
	00		 mov	 DWORD PTR fs:0, eax

; 130  : 		if( m_ProxyCount > 0)

  00022	83 79 30 00	 cmp	 DWORD PTR [ecx+48], 0
  00026	7e 25		 jle	 SHORT $LN2@BindInstan

; 131  : 		{
; 132  : 			i3ClassMeta * pMeta = GetConcreteClass( type);

  00028	ff 75 0c	 push	 DWORD PTR _type$[ebp]
  0002b	e8 00 00 00 00	 call	 ?GetConcreteClass@i3ClassMeta@@QAEPAV1@W4I3_CLASSMETA_TYPE@@@Z ; i3ClassMeta::GetConcreteClass

; 133  : 
; 134  : 			return pMeta->BindInstance( pBuf, I3_CLASSMETA_TYPE_GENERAL);

  00030	6a 00		 push	 0
  00032	ff 75 08	 push	 DWORD PTR _pBuf$[ebp]
  00035	8b c8		 mov	 ecx, eax
  00037	8b 10		 mov	 edx, DWORD PTR [eax]
  00039	ff 52 08	 call	 DWORD PTR [edx+8]

; 142  : 			#endif
; 143  : 		}
; 144  : 	}

  0003c	8b 4d f4	 mov	 ecx, DWORD PTR __$EHRec$[ebp]
  0003f	64 89 0d 00 00
	00 00		 mov	 DWORD PTR fs:0, ecx
  00046	59		 pop	 ecx
  00047	8b e5		 mov	 esp, ebp
  00049	5d		 pop	 ebp
  0004a	c2 08 00	 ret	 8
$LN2@BindInstan:

; 135  : 		}
; 136  : 		else
; 137  : 		{
; 138  : 			#if defined( I3_DEBUG)
; 139  : 				return (i3ElementBase *) new( pBuf ) T;
; 140  : 			#else
; 141  : 				return (i3ElementBase *) new( pBuf ) T;

  0004d	ff 75 08	 push	 DWORD PTR _pBuf$[ebp]
  00050	6a 2c		 push	 44			; 0000002cH
  00052	e8 00 00 00 00	 call	 ??2i3ElementBase@@SAPAXIPAX@Z ; i3ElementBase::operator new
  00057	83 c4 08	 add	 esp, 8
  0005a	89 45 0c	 mov	 DWORD PTR $T2[ebp], eax
  0005d	c7 45 fc 00 00
	00 00		 mov	 DWORD PTR __$EHRec$[ebp+8], 0
  00064	85 c0		 test	 eax, eax
  00066	74 18		 je	 SHORT $LN5@BindInstan
  00068	8b c8		 mov	 ecx, eax
  0006a	e8 00 00 00 00	 call	 ??0i3NetworkUDPSocket@@QAE@XZ ; i3NetworkUDPSocket::i3NetworkUDPSocket

; 142  : 			#endif
; 143  : 		}
; 144  : 	}

  0006f	8b 4d f4	 mov	 ecx, DWORD PTR __$EHRec$[ebp]
  00072	64 89 0d 00 00
	00 00		 mov	 DWORD PTR fs:0, ecx
  00079	59		 pop	 ecx
  0007a	8b e5		 mov	 esp, ebp
  0007c	5d		 pop	 ebp
  0007d	c2 08 00	 ret	 8
$LN5@BindInstan:

; 135  : 		}
; 136  : 		else
; 137  : 		{
; 138  : 			#if defined( I3_DEBUG)
; 139  : 				return (i3ElementBase *) new( pBuf ) T;
; 140  : 			#else
; 141  : 				return (i3ElementBase *) new( pBuf ) T;

  00080	33 c0		 xor	 eax, eax

; 142  : 			#endif
; 143  : 		}
; 144  : 	}

  00082	8b 4d f4	 mov	 ecx, DWORD PTR __$EHRec$[ebp]
  00085	64 89 0d 00 00
	00 00		 mov	 DWORD PTR fs:0, ecx
  0008c	59		 pop	 ecx
  0008d	8b e5		 mov	 esp, ebp
  0008f	5d		 pop	 ebp
  00090	c2 08 00	 ret	 8
_TEXT	ENDS
;	COMDAT text$x
text$x	SEGMENT
__unwindfunclet$?BindInstance@?$i3MetaTemplate@Vi3NetworkUDPSocket@@@@UAEPAVi3ElementBase@@PAXW4I3_CLASSMETA_TYPE@@@Z$0:
  00000	8b 45 08	 mov	 eax, DWORD PTR _pBuf$[ebp]
  00003	50		 push	 eax
  00004	8b 45 0c	 mov	 eax, DWORD PTR $T2[ebp]
  00007	50		 push	 eax
  00008	e8 00 00 00 00	 call	 ??3i3ElementBase@@SAXPAX0@Z ; i3ElementBase::operator delete
  0000d	83 c4 08	 add	 esp, 8
  00010	c3		 ret	 0
  00011	cc		 int	 3
  00012	cc		 int	 3
  00013	cc		 int	 3
  00014	cc		 int	 3
  00015	cc		 int	 3
__ehhandler$?BindInstance@?$i3MetaTemplate@Vi3NetworkUDPSocket@@@@UAEPAVi3ElementBase@@PAXW4I3_CLASSMETA_TYPE@@@Z:
  00016	90		 npad	 1
  00017	90		 npad	 1
  00018	8b 54 24 08	 mov	 edx, DWORD PTR [esp+8]
  0001c	8d 42 0c	 lea	 eax, DWORD PTR [edx+12]
  0001f	8b 4a fc	 mov	 ecx, DWORD PTR [edx-4]
  00022	33 c8		 xor	 ecx, eax
  00024	e8 00 00 00 00	 call	 @__security_check_cookie@4
  00029	b8 00 00 00 00	 mov	 eax, OFFSET __ehfuncinfo$?BindInstance@?$i3MetaTemplate@Vi3NetworkUDPSocket@@@@UAEPAVi3ElementBase@@PAXW4I3_CLASSMETA_TYPE@@@Z
  0002e	e9 00 00 00 00	 jmp	 ___CxxFrameHandler3
text$x	ENDS
?BindInstance@?$i3MetaTemplate@Vi3NetworkUDPSocket@@@@UAEPAVi3ElementBase@@PAXW4I3_CLASSMETA_TYPE@@@Z ENDP ; i3MetaTemplate<i3NetworkUDPSocket>::BindInstance
; Function compile flags: /Ogtp
; File E:\Proyectos\JuegosOnlineproyectos\PB\pbblow\Piercing Blow Remake\i3Server\include\i3Base\i3MetaTemplate.h
; File E:\Proyectos\JuegosOnlineproyectos\PB\pbblow\Piercing Blow Remake\i3Server\include\i3Base\i3ElementBase.h
; File E:\Proyectos\JuegosOnlineproyectos\PB\pbblow\Piercing Blow Remake\i3Server\include\i3Base\i3MetaTemplate.h
; File E:\Proyectos\JuegosOnlineproyectos\PB\pbblow\Piercing Blow Remake\i3Server\include\i3Base\i3ElementBase.h
; File E:\Proyectos\JuegosOnlineproyectos\PB\pbblow\Piercing Blow Remake\i3Server\include\i3Base\i3MetaTemplate.h
;	COMDAT ?CreateInstance@?$i3MetaTemplate@Vi3NetworkUDPSocket@@@@UAEPAVi3ElementBase@@W4I3_CLASSMETA_TYPE@@@Z
_TEXT	SEGMENT
__$EHRec$ = -12						; size = 12
_type$ = 8						; size = 4
$T2 = 8							; size = 4
?CreateInstance@?$i3MetaTemplate@Vi3NetworkUDPSocket@@@@UAEPAVi3ElementBase@@W4I3_CLASSMETA_TYPE@@@Z PROC ; i3MetaTemplate<i3NetworkUDPSocket>::CreateInstance, COMDAT
; _this$ = ecx

; 97   : 	{

  00000	55		 push	 ebp
  00001	8b ec		 mov	 ebp, esp
  00003	6a ff		 push	 -1
  00005	68 00 00 00 00	 push	 __ehhandler$?CreateInstance@?$i3MetaTemplate@Vi3NetworkUDPSocket@@@@UAEPAVi3ElementBase@@W4I3_CLASSMETA_TYPE@@@Z
  0000a	64 a1 00 00 00
	00		 mov	 eax, DWORD PTR fs:0
  00010	50		 push	 eax
  00011	56		 push	 esi
  00012	57		 push	 edi
  00013	a1 00 00 00 00	 mov	 eax, DWORD PTR ___security_cookie
  00018	33 c5		 xor	 eax, ebp
  0001a	50		 push	 eax
  0001b	8d 45 f4	 lea	 eax, DWORD PTR __$EHRec$[ebp]
  0001e	64 a3 00 00 00
	00		 mov	 DWORD PTR fs:0, eax
  00024	8b f9		 mov	 edi, ecx

; 98   : 		if( m_ProxyCount > 0)

  00026	83 7f 30 00	 cmp	 DWORD PTR [edi+48], 0
  0002a	7e 28		 jle	 SHORT $LN3@CreateInst

; 99   : 		{
; 100  : 			i3ClassMeta * pMeta = GetConcreteClass( type);

  0002c	ff 75 08	 push	 DWORD PTR _type$[ebp]
  0002f	e8 00 00 00 00	 call	 ?GetConcreteClass@i3ClassMeta@@QAEPAV1@W4I3_CLASSMETA_TYPE@@@Z ; i3ClassMeta::GetConcreteClass

; 101  : 
; 102  : 			if( pMeta != NULL)

  00034	85 c0		 test	 eax, eax
  00036	74 1c		 je	 SHORT $LN3@CreateInst

; 103  : 				return pMeta->CreateInstance( I3_CLASSMETA_TYPE_GENERAL);

  00038	8b 10		 mov	 edx, DWORD PTR [eax]
  0003a	8b c8		 mov	 ecx, eax
  0003c	6a 00		 push	 0
  0003e	ff 52 04	 call	 DWORD PTR [edx+4]

; 125  : 	}

  00041	8b 4d f4	 mov	 ecx, DWORD PTR __$EHRec$[ebp]
  00044	64 89 0d 00 00
	00 00		 mov	 DWORD PTR fs:0, ecx
  0004b	59		 pop	 ecx
  0004c	5f		 pop	 edi
  0004d	5e		 pop	 esi
  0004e	8b e5		 mov	 esp, ebp
  00050	5d		 pop	 ebp
  00051	c2 04 00	 ret	 4
$LN3@CreateInst:

; 104  : 		}
; 105  : 
; 106  : 		{
; 107  : 			if( m_pPool == NULL)

  00054	8b 4f 34	 mov	 ecx, DWORD PTR [edi+52]
  00057	85 c9		 test	 ecx, ecx
  00059	75 47		 jne	 SHORT $LN4@CreateInst

; 108  : 			{
; 109  : 				#if defined( I3_DEBUG)
; 110  : 					return (i3ElementBase *) new T;
; 111  : 				#else
; 112  : 					return (i3ElementBase *) new T;

  0005b	6a 2c		 push	 44			; 0000002cH
  0005d	e8 00 00 00 00	 call	 ??2i3ElementBase@@SAPAXI@Z ; i3ElementBase::operator new
  00062	83 c4 04	 add	 esp, 4
  00065	89 45 08	 mov	 DWORD PTR $T2[ebp], eax
  00068	c7 45 fc 00 00
	00 00		 mov	 DWORD PTR __$EHRec$[ebp+8], 0
  0006f	85 c0		 test	 eax, eax
  00071	74 1a		 je	 SHORT $LN7@CreateInst
  00073	8b c8		 mov	 ecx, eax
  00075	e8 00 00 00 00	 call	 ??0i3NetworkUDPSocket@@QAE@XZ ; i3NetworkUDPSocket::i3NetworkUDPSocket

; 125  : 	}

  0007a	8b 4d f4	 mov	 ecx, DWORD PTR __$EHRec$[ebp]
  0007d	64 89 0d 00 00
	00 00		 mov	 DWORD PTR fs:0, ecx
  00084	59		 pop	 ecx
  00085	5f		 pop	 edi
  00086	5e		 pop	 esi
  00087	8b e5		 mov	 esp, ebp
  00089	5d		 pop	 ebp
  0008a	c2 04 00	 ret	 4
$LN7@CreateInst:

; 108  : 			{
; 109  : 				#if defined( I3_DEBUG)
; 110  : 					return (i3ElementBase *) new T;
; 111  : 				#else
; 112  : 					return (i3ElementBase *) new T;

  0008d	33 c0		 xor	 eax, eax

; 125  : 	}

  0008f	8b 4d f4	 mov	 ecx, DWORD PTR __$EHRec$[ebp]
  00092	64 89 0d 00 00
	00 00		 mov	 DWORD PTR fs:0, ecx
  00099	59		 pop	 ecx
  0009a	5f		 pop	 edi
  0009b	5e		 pop	 esi
  0009c	8b e5		 mov	 esp, ebp
  0009e	5d		 pop	 ebp
  0009f	c2 04 00	 ret	 4
$LN4@CreateInst:

; 113  : 				#endif
; 114  : 			}
; 115  : 			else
; 116  : 			{
; 117  : 				i3ElementBase * p = (i3ElementBase *) m_pPool->Alloc( sizeof(T), NULL, 0);

  000a2	8b 01		 mov	 eax, DWORD PTR [ecx]
  000a4	6a 00		 push	 0
  000a6	6a 00		 push	 0
  000a8	6a 2c		 push	 44			; 0000002cH
  000aa	ff 50 04	 call	 DWORD PTR [eax+4]

; 118  : 	
; 119  : 				BindInstance( p, type);

  000ad	ff 75 08	 push	 DWORD PTR _type$[ebp]
  000b0	8b 17		 mov	 edx, DWORD PTR [edi]
  000b2	8b f0		 mov	 esi, eax
  000b4	56		 push	 esi
  000b5	8b cf		 mov	 ecx, edi
  000b7	ff 52 08	 call	 DWORD PTR [edx+8]
; File E:\Proyectos\JuegosOnlineproyectos\PB\pbblow\Piercing Blow Remake\i3Server\include\i3Base\i3ElementBase.h

; 347  : 	void			__SetMemoryPool( i3MemoryPool * pPool)			{ m_pPool = pPool; }

  000ba	8b 4f 34	 mov	 ecx, DWORD PTR [edi+52]
; File E:\Proyectos\JuegosOnlineproyectos\PB\pbblow\Piercing Blow Remake\i3Server\include\i3Base\i3MetaTemplate.h

; 122  : 				return p;

  000bd	8b c6		 mov	 eax, esi
; File E:\Proyectos\JuegosOnlineproyectos\PB\pbblow\Piercing Blow Remake\i3Server\include\i3Base\i3ElementBase.h

; 347  : 	void			__SetMemoryPool( i3MemoryPool * pPool)			{ m_pPool = pPool; }

  000bf	89 4e 0c	 mov	 DWORD PTR [esi+12], ecx
; File E:\Proyectos\JuegosOnlineproyectos\PB\pbblow\Piercing Blow Remake\i3Server\include\i3Base\i3MetaTemplate.h

; 125  : 	}

  000c2	8b 4d f4	 mov	 ecx, DWORD PTR __$EHRec$[ebp]
  000c5	64 89 0d 00 00
	00 00		 mov	 DWORD PTR fs:0, ecx
  000cc	59		 pop	 ecx
  000cd	5f		 pop	 edi
  000ce	5e		 pop	 esi
  000cf	8b e5		 mov	 esp, ebp
  000d1	5d		 pop	 ebp
  000d2	c2 04 00	 ret	 4
_TEXT	ENDS
;	COMDAT text$x
text$x	SEGMENT
__unwindfunclet$?CreateInstance@?$i3MetaTemplate@Vi3NetworkUDPSocket@@@@UAEPAVi3ElementBase@@W4I3_CLASSMETA_TYPE@@@Z$0:
  00000	8b 45 08	 mov	 eax, DWORD PTR $T2[ebp]
  00003	50		 push	 eax
  00004	e8 00 00 00 00	 call	 ??3i3ElementBase@@SAXPAX@Z ; i3ElementBase::operator delete
  00009	59		 pop	 ecx
  0000a	c3		 ret	 0
  0000b	cc		 int	 3
  0000c	cc		 int	 3
  0000d	cc		 int	 3
  0000e	cc		 int	 3
  0000f	cc		 int	 3
__ehhandler$?CreateInstance@?$i3MetaTemplate@Vi3NetworkUDPSocket@@@@UAEPAVi3ElementBase@@W4I3_CLASSMETA_TYPE@@@Z:
  00010	90		 npad	 1
  00011	90		 npad	 1
  00012	8b 54 24 08	 mov	 edx, DWORD PTR [esp+8]
  00016	8d 42 0c	 lea	 eax, DWORD PTR [edx+12]
  00019	8b 4a f4	 mov	 ecx, DWORD PTR [edx-12]
  0001c	33 c8		 xor	 ecx, eax
  0001e	e8 00 00 00 00	 call	 @__security_check_cookie@4
  00023	b8 00 00 00 00	 mov	 eax, OFFSET __ehfuncinfo$?CreateInstance@?$i3MetaTemplate@Vi3NetworkUDPSocket@@@@UAEPAVi3ElementBase@@W4I3_CLASSMETA_TYPE@@@Z
  00028	e9 00 00 00 00	 jmp	 ___CxxFrameHandler3
text$x	ENDS
?CreateInstance@?$i3MetaTemplate@Vi3NetworkUDPSocket@@@@UAEPAVi3ElementBase@@W4I3_CLASSMETA_TYPE@@@Z ENDP ; i3MetaTemplate<i3NetworkUDPSocket>::CreateInstance
; Function compile flags: /Ogtp
; File E:\Proyectos\JuegosOnlineproyectos\PB\pbblow\Piercing Blow Remake\i3Server\include\i3Base\i3MetaTemplate.h
;	COMDAT ??0?$i3MetaTemplate@Vi3NetworkUDPSocket@@@@QAE@IPAD0W4I3_CLASSMETA_TYPE@@@Z
_TEXT	SEGMENT
_this$ = -4						; size = 4
_classSz$ = 8						; size = 4
_pszClassName$ = 12					; size = 4
_pszBaseClassName$ = 16					; size = 4
_type$ = 20						; size = 4
??0?$i3MetaTemplate@Vi3NetworkUDPSocket@@@@QAE@IPAD0W4I3_CLASSMETA_TYPE@@@Z PROC ; i3MetaTemplate<i3NetworkUDPSocket>::i3MetaTemplate<i3NetworkUDPSocket>, COMDAT
; _this$ = ecx

; 29   : {

  00000	55		 push	 ebp
  00001	8b ec		 mov	 ebp, esp
  00003	51		 push	 ecx
  00004	56		 push	 esi
  00005	ff 75 14	 push	 DWORD PTR _type$[ebp]
  00008	8b f1		 mov	 esi, ecx
  0000a	ff 75 10	 push	 DWORD PTR _pszBaseClassName$[ebp]
  0000d	89 75 fc	 mov	 DWORD PTR _this$[ebp], esi
  00010	ff 75 0c	 push	 DWORD PTR _pszClassName$[ebp]
  00013	ff 75 08	 push	 DWORD PTR _classSz$[ebp]
  00016	e8 00 00 00 00	 call	 ??0i3ClassMeta@@QAE@IPAD0W4I3_CLASSMETA_TYPE@@@Z ; i3ClassMeta::i3ClassMeta
  0001b	c7 06 00 00 00
	00		 mov	 DWORD PTR [esi], OFFSET ??_7?$i3MetaTemplate@Vi3NetworkUDPSocket@@@@6B@

; 30   : }

  00021	8b c6		 mov	 eax, esi
  00023	5e		 pop	 esi
  00024	8b e5		 mov	 esp, ebp
  00026	5d		 pop	 ebp
  00027	c2 10 00	 ret	 16			; 00000010H
??0?$i3MetaTemplate@Vi3NetworkUDPSocket@@@@QAE@IPAD0W4I3_CLASSMETA_TYPE@@@Z ENDP ; i3MetaTemplate<i3NetworkUDPSocket>::i3MetaTemplate<i3NetworkUDPSocket>
_TEXT	ENDS
; Function compile flags: /Ogtp
; File E:\Proyectos\JuegosOnlineproyectos\PB\pbblow\Piercing Blow Remake\i3Server\src\i3Base\i3NetworkUDPSocket.cpp
;	COMDAT ??_Ei3Tcp@@UAEPAXI@Z
_TEXT	SEGMENT
__$EHRec$ = -12						; size = 12
___flags$ = 8						; size = 4
??_Ei3Tcp@@UAEPAXI@Z PROC				; i3Tcp::`vector deleting destructor', COMDAT
; _this$ = ecx
  00000	55		 push	 ebp
  00001	8b ec		 mov	 ebp, esp
  00003	6a ff		 push	 -1
  00005	68 00 00 00 00	 push	 __ehhandler$??_Ei3Tcp@@UAEPAXI@Z
  0000a	64 a1 00 00 00
	00		 mov	 eax, DWORD PTR fs:0
  00010	50		 push	 eax
  00011	53		 push	 ebx
  00012	56		 push	 esi
  00013	57		 push	 edi
  00014	a1 00 00 00 00	 mov	 eax, DWORD PTR ___security_cookie
  00019	33 c5		 xor	 eax, ebp
  0001b	50		 push	 eax
  0001c	8d 45 f4	 lea	 eax, DWORD PTR __$EHRec$[ebp]
  0001f	64 a3 00 00 00
	00		 mov	 DWORD PTR fs:0, eax
  00025	8b f1		 mov	 esi, ecx
  00027	8b 5d 08	 mov	 ebx, DWORD PTR ___flags$[ebp]
  0002a	8b fb		 mov	 edi, ebx
  0002c	83 e7 01	 and	 edi, 1
  0002f	f6 c3 02	 test	 bl, 2
  00032	74 43		 je	 SHORT $LN2@vector
  00034	68 00 00 00 00	 push	 OFFSET ??1i3Tcp@@UAE@XZ	; i3Tcp::~i3Tcp
  00039	ff 76 fc	 push	 DWORD PTR [esi-4]
  0003c	8d 5e fc	 lea	 ebx, DWORD PTR [esi-4]
  0003f	6a 14		 push	 20			; 00000014H
  00041	56		 push	 esi
  00042	e8 00 00 00 00	 call	 ??_M@YGXPAXIIP6EX0@Z@Z
  00047	85 ff		 test	 edi, edi
  00049	74 16		 je	 SHORT $LN3@vector
  0004b	8b 0b		 mov	 ecx, DWORD PTR [ebx]
  0004d	8d 0c 89	 lea	 ecx, DWORD PTR [ecx+ecx*4]
  00050	8d 0c 8d 04 00
	00 00		 lea	 ecx, DWORD PTR [ecx*4+4]
  00057	51		 push	 ecx
  00058	53		 push	 ebx
  00059	e8 00 00 00 00	 call	 ??_V@YAXPAXI@Z		; operator delete[]
  0005e	83 c4 08	 add	 esp, 8
$LN3@vector:
  00061	8b c3		 mov	 eax, ebx
  00063	8b 4d f4	 mov	 ecx, DWORD PTR __$EHRec$[ebp]
  00066	64 89 0d 00 00
	00 00		 mov	 DWORD PTR fs:0, ecx
  0006d	59		 pop	 ecx
  0006e	5f		 pop	 edi
  0006f	5e		 pop	 esi
  00070	5b		 pop	 ebx
  00071	8b e5		 mov	 esp, ebp
  00073	5d		 pop	 ebp
  00074	c2 04 00	 ret	 4
$LN2@vector:
  00077	e8 00 00 00 00	 call	 ??1i3Tcp@@UAE@XZ	; i3Tcp::~i3Tcp
  0007c	85 ff		 test	 edi, edi
  0007e	74 1b		 je	 SHORT $LN6@vector
  00080	f6 c3 04	 test	 bl, 4
  00083	75 0b		 jne	 SHORT $LN5@vector
  00085	56		 push	 esi
  00086	e8 00 00 00 00	 call	 ??3i3ElementBase@@SAXPAX@Z ; i3ElementBase::operator delete
  0008b	83 c4 04	 add	 esp, 4
  0008e	eb 0b		 jmp	 SHORT $LN6@vector
$LN5@vector:

  00090	6a 14		 push	 20			; 00000014H
  00092	56		 push	 esi
  00093	e8 00 00 00 00	 call	 ??3@YAXPAXI@Z		; operator delete
  00098	83 c4 08	 add	 esp, 8
$LN6@vector:
  0009b	8b c6		 mov	 eax, esi
  0009d	8b 4d f4	 mov	 ecx, DWORD PTR __$EHRec$[ebp]
  000a0	64 89 0d 00 00
	00 00		 mov	 DWORD PTR fs:0, ecx
  000a7	59		 pop	 ecx
  000a8	5f		 pop	 edi
  000a9	5e		 pop	 esi
  000aa	5b		 pop	 ebx
  000ab	8b e5		 mov	 esp, ebp
  000ad	5d		 pop	 ebp
  000ae	c2 04 00	 ret	 4
  000b1	cc		 int	 3
  000b2	cc		 int	 3
  000b3	cc		 int	 3
  000b4	cc		 int	 3
  000b5	cc		 int	 3
_TEXT	ENDS
;	COMDAT text$x
text$x	SEGMENT
__ehhandler$??_Ei3Tcp@@UAEPAXI@Z:
  00000	90		 npad	 1
  00001	90		 npad	 1
  00002	8b 54 24 08	 mov	 edx, DWORD PTR [esp+8]
  00006	8d 42 0c	 lea	 eax, DWORD PTR [edx+12]
  00009	8b 4a f0	 mov	 ecx, DWORD PTR [edx-16]
  0000c	33 c8		 xor	 ecx, eax
  0000e	e8 00 00 00 00	 call	 @__security_check_cookie@4
  00013	b8 00 00 00 00	 mov	 eax, OFFSET __ehfuncinfo$??_Ei3Tcp@@UAEPAXI@Z
  00018	e9 00 00 00 00	 jmp	 ___CxxFrameHandler3
text$x	ENDS
??_Ei3Tcp@@UAEPAXI@Z ENDP				; i3Tcp::`vector deleting destructor'
; Function compile flags: /Ogtp
; File E:\Proyectos\JuegosOnlineproyectos\PB\pbblow\Piercing Blow Remake\i3Server\src\i3Base\i3NetworkUDPSocket.cpp
;	COMDAT ??_Gi3Tcp@@UAEPAXI@Z
_TEXT	SEGMENT
___flags$ = 8						; size = 4
??_Gi3Tcp@@UAEPAXI@Z PROC				; i3Tcp::`scalar deleting destructor', COMDAT
; _this$ = ecx
  00000	55		 push	 ebp
  00001	8b ec		 mov	 ebp, esp
  00003	56		 push	 esi
  00004	8b f1		 mov	 esi, ecx
  00006	e8 00 00 00 00	 call	 ??1i3Tcp@@UAE@XZ	; i3Tcp::~i3Tcp
  0000b	8b 45 08	 mov	 eax, DWORD PTR ___flags$[ebp]
  0000e	a8 01		 test	 al, 1
  00010	74 1f		 je	 SHORT $LN10@scalar
  00012	a8 04		 test	 al, 4
  00014	75 10		 jne	 SHORT $LN3@scalar
  00016	56		 push	 esi
  00017	e8 00 00 00 00	 call	 ??3i3ElementBase@@SAXPAX@Z ; i3ElementBase::operator delete
  0001c	83 c4 04	 add	 esp, 4
  0001f	8b c6		 mov	 eax, esi
  00021	5e		 pop	 esi
  00022	5d		 pop	 ebp
  00023	c2 04 00	 ret	 4
$LN3@scalar:

  00026	6a 14		 push	 20			; 00000014H
  00028	56		 push	 esi
  00029	e8 00 00 00 00	 call	 ??3@YAXPAXI@Z		; operator delete
  0002e	83 c4 08	 add	 esp, 8
$LN10@scalar:
  00031	8b c6		 mov	 eax, esi
  00033	5e		 pop	 esi
  00034	5d		 pop	 ebp
  00035	c2 04 00	 ret	 4
??_Gi3Tcp@@UAEPAXI@Z ENDP				; i3Tcp::`scalar deleting destructor'
_TEXT	ENDS
; Function compile flags: /Ogtp
;	COMDAT ??4i3Tcp@@QAEAAV0@ABV0@@Z
_TEXT	SEGMENT
___that$ = 8						; size = 4
??4i3Tcp@@QAEAAV0@ABV0@@Z PROC				; i3Tcp::operator=, COMDAT
; _this$ = ecx
  00000	55		 push	 ebp
  00001	8b ec		 mov	 ebp, esp
  00003	8b 55 08	 mov	 edx, DWORD PTR ___that$[ebp]
  00006	8b 42 04	 mov	 eax, DWORD PTR [edx+4]
  00009	89 41 04	 mov	 DWORD PTR [ecx+4], eax
  0000c	8b 42 08	 mov	 eax, DWORD PTR [edx+8]
  0000f	89 41 08	 mov	 DWORD PTR [ecx+8], eax
  00012	8b 42 0c	 mov	 eax, DWORD PTR [edx+12]
  00015	89 41 0c	 mov	 DWORD PTR [ecx+12], eax
  00018	8b 42 10	 mov	 eax, DWORD PTR [edx+16]
  0001b	89 41 10	 mov	 DWORD PTR [ecx+16], eax
  0001e	8b c1		 mov	 eax, ecx
  00020	5d		 pop	 ebp
  00021	c2 04 00	 ret	 4
??4i3Tcp@@QAEAAV0@ABV0@@Z ENDP				; i3Tcp::operator=
_TEXT	ENDS
; Function compile flags: /Ogtp
;	COMDAT ??0i3Tcp@@QAE@ABV0@@Z
_TEXT	SEGMENT
___that$ = 8						; size = 4
??0i3Tcp@@QAE@ABV0@@Z PROC				; i3Tcp::i3Tcp, COMDAT
; _this$ = ecx
  00000	55		 push	 ebp
  00001	8b ec		 mov	 ebp, esp
  00003	8b 55 08	 mov	 edx, DWORD PTR ___that$[ebp]
  00006	c7 01 00 00 00
	00		 mov	 DWORD PTR [ecx], OFFSET ??_7i3ElementBase@@6B@
  0000c	8b 42 04	 mov	 eax, DWORD PTR [edx+4]
  0000f	89 41 04	 mov	 DWORD PTR [ecx+4], eax
  00012	8b 42 08	 mov	 eax, DWORD PTR [edx+8]
  00015	89 41 08	 mov	 DWORD PTR [ecx+8], eax
  00018	8b 42 0c	 mov	 eax, DWORD PTR [edx+12]
  0001b	89 41 0c	 mov	 DWORD PTR [ecx+12], eax
  0001e	c7 01 00 00 00
	00		 mov	 DWORD PTR [ecx], OFFSET ??_7i3Tcp@@6B@
  00024	8b 42 10	 mov	 eax, DWORD PTR [edx+16]
  00027	89 41 10	 mov	 DWORD PTR [ecx+16], eax
  0002a	8b c1		 mov	 eax, ecx
  0002c	5d		 pop	 ebp
  0002d	c2 04 00	 ret	 4
??0i3Tcp@@QAE@ABV0@@Z ENDP				; i3Tcp::i3Tcp
_TEXT	ENDS
; Function compile flags: /Ogtp
; File E:\Proyectos\JuegosOnlineproyectos\PB\pbblow\Piercing Blow Remake\i3Server\include\i3Base\i3Inet.h
;	COMDAT ?GetClassMeta@i3Tcp@@SAPAVi3ClassMeta@@XZ
_TEXT	SEGMENT
?GetClassMeta@i3Tcp@@SAPAVi3ClassMeta@@XZ PROC		; i3Tcp::GetClassMeta, COMDAT

; 85   : 	I3_CLASS_DEFINE( i3Tcp );

  00000	a1 00 00 00 00	 mov	 eax, DWORD PTR ?s_pClassMetai3Tcp@i3Tcp@@2PAVi3ClassMeta@@A ; i3Tcp::s_pClassMetai3Tcp
  00005	c3		 ret	 0
?GetClassMeta@i3Tcp@@SAPAVi3ClassMeta@@XZ ENDP		; i3Tcp::GetClassMeta
_TEXT	ENDS
; Function compile flags: /Ogtp
; File E:\Proyectos\JuegosOnlineproyectos\PB\pbblow\Piercing Blow Remake\i3Server\src\i3Base\i3NetworkUDPSocket.cpp
;	COMDAT ??_Ei3Udp@@UAEPAXI@Z
_TEXT	SEGMENT
__$EHRec$ = -12						; size = 12
___flags$ = 8						; size = 4
??_Ei3Udp@@UAEPAXI@Z PROC				; i3Udp::`vector deleting destructor', COMDAT
; _this$ = ecx
  00000	55		 push	 ebp
  00001	8b ec		 mov	 ebp, esp
  00003	6a ff		 push	 -1
  00005	68 00 00 00 00	 push	 __ehhandler$??_Ei3Udp@@UAEPAXI@Z
  0000a	64 a1 00 00 00
	00		 mov	 eax, DWORD PTR fs:0
  00010	50		 push	 eax
  00011	53		 push	 ebx
  00012	56		 push	 esi
  00013	57		 push	 edi
  00014	a1 00 00 00 00	 mov	 eax, DWORD PTR ___security_cookie
  00019	33 c5		 xor	 eax, ebp
  0001b	50		 push	 eax
  0001c	8d 45 f4	 lea	 eax, DWORD PTR __$EHRec$[ebp]
  0001f	64 a3 00 00 00
	00		 mov	 DWORD PTR fs:0, eax
  00025	8b f1		 mov	 esi, ecx
  00027	8b 5d 08	 mov	 ebx, DWORD PTR ___flags$[ebp]
  0002a	8b fb		 mov	 edi, ebx
  0002c	83 e7 01	 and	 edi, 1
  0002f	f6 c3 02	 test	 bl, 2
  00032	74 43		 je	 SHORT $LN2@vector
  00034	68 00 00 00 00	 push	 OFFSET ??1i3Udp@@UAE@XZ	; i3Udp::~i3Udp
  00039	ff 76 fc	 push	 DWORD PTR [esi-4]
  0003c	8d 5e fc	 lea	 ebx, DWORD PTR [esi-4]
  0003f	6a 14		 push	 20			; 00000014H
  00041	56		 push	 esi
  00042	e8 00 00 00 00	 call	 ??_M@YGXPAXIIP6EX0@Z@Z
  00047	85 ff		 test	 edi, edi
  00049	74 16		 je	 SHORT $LN3@vector
  0004b	8b 0b		 mov	 ecx, DWORD PTR [ebx]
  0004d	8d 0c 89	 lea	 ecx, DWORD PTR [ecx+ecx*4]
  00050	8d 0c 8d 04 00
	00 00		 lea	 ecx, DWORD PTR [ecx*4+4]
  00057	51		 push	 ecx
  00058	53		 push	 ebx
  00059	e8 00 00 00 00	 call	 ??_V@YAXPAXI@Z		; operator delete[]
  0005e	83 c4 08	 add	 esp, 8
$LN3@vector:
  00061	8b c3		 mov	 eax, ebx
  00063	8b 4d f4	 mov	 ecx, DWORD PTR __$EHRec$[ebp]
  00066	64 89 0d 00 00
	00 00		 mov	 DWORD PTR fs:0, ecx
  0006d	59		 pop	 ecx
  0006e	5f		 pop	 edi
  0006f	5e		 pop	 esi
  00070	5b		 pop	 ebx
  00071	8b e5		 mov	 esp, ebp
  00073	5d		 pop	 ebp
  00074	c2 04 00	 ret	 4
$LN2@vector:
  00077	e8 00 00 00 00	 call	 ??1i3Udp@@UAE@XZ	; i3Udp::~i3Udp
  0007c	85 ff		 test	 edi, edi
  0007e	74 1b		 je	 SHORT $LN6@vector
  00080	f6 c3 04	 test	 bl, 4
  00083	75 0b		 jne	 SHORT $LN5@vector
  00085	56		 push	 esi
  00086	e8 00 00 00 00	 call	 ??3i3ElementBase@@SAXPAX@Z ; i3ElementBase::operator delete
  0008b	83 c4 04	 add	 esp, 4
  0008e	eb 0b		 jmp	 SHORT $LN6@vector
$LN5@vector:

  00090	6a 14		 push	 20			; 00000014H
  00092	56		 push	 esi
  00093	e8 00 00 00 00	 call	 ??3@YAXPAXI@Z		; operator delete
  00098	83 c4 08	 add	 esp, 8
$LN6@vector:
  0009b	8b c6		 mov	 eax, esi
  0009d	8b 4d f4	 mov	 ecx, DWORD PTR __$EHRec$[ebp]
  000a0	64 89 0d 00 00
	00 00		 mov	 DWORD PTR fs:0, ecx
  000a7	59		 pop	 ecx
  000a8	5f		 pop	 edi
  000a9	5e		 pop	 esi
  000aa	5b		 pop	 ebx
  000ab	8b e5		 mov	 esp, ebp
  000ad	5d		 pop	 ebp
  000ae	c2 04 00	 ret	 4
  000b1	cc		 int	 3
  000b2	cc		 int	 3
  000b3	cc		 int	 3
  000b4	cc		 int	 3
  000b5	cc		 int	 3
_TEXT	ENDS
;	COMDAT text$x
text$x	SEGMENT
__ehhandler$??_Ei3Udp@@UAEPAXI@Z:
  00000	90		 npad	 1
  00001	90		 npad	 1
  00002	8b 54 24 08	 mov	 edx, DWORD PTR [esp+8]
  00006	8d 42 0c	 lea	 eax, DWORD PTR [edx+12]
  00009	8b 4a f0	 mov	 ecx, DWORD PTR [edx-16]
  0000c	33 c8		 xor	 ecx, eax
  0000e	e8 00 00 00 00	 call	 @__security_check_cookie@4
  00013	b8 00 00 00 00	 mov	 eax, OFFSET __ehfuncinfo$??_Ei3Udp@@UAEPAXI@Z
  00018	e9 00 00 00 00	 jmp	 ___CxxFrameHandler3
text$x	ENDS
??_Ei3Udp@@UAEPAXI@Z ENDP				; i3Udp::`vector deleting destructor'
; Function compile flags: /Ogtp
; File E:\Proyectos\JuegosOnlineproyectos\PB\pbblow\Piercing Blow Remake\i3Server\src\i3Base\i3NetworkUDPSocket.cpp
;	COMDAT ??_Gi3Udp@@UAEPAXI@Z
_TEXT	SEGMENT
___flags$ = 8						; size = 4
??_Gi3Udp@@UAEPAXI@Z PROC				; i3Udp::`scalar deleting destructor', COMDAT
; _this$ = ecx
  00000	55		 push	 ebp
  00001	8b ec		 mov	 ebp, esp
  00003	56		 push	 esi
  00004	8b f1		 mov	 esi, ecx
  00006	e8 00 00 00 00	 call	 ??1i3Udp@@UAE@XZ	; i3Udp::~i3Udp
  0000b	8b 45 08	 mov	 eax, DWORD PTR ___flags$[ebp]
  0000e	a8 01		 test	 al, 1
  00010	74 1f		 je	 SHORT $LN10@scalar
  00012	a8 04		 test	 al, 4
  00014	75 10		 jne	 SHORT $LN3@scalar
  00016	56		 push	 esi
  00017	e8 00 00 00 00	 call	 ??3i3ElementBase@@SAXPAX@Z ; i3ElementBase::operator delete
  0001c	83 c4 04	 add	 esp, 4
  0001f	8b c6		 mov	 eax, esi
  00021	5e		 pop	 esi
  00022	5d		 pop	 ebp
  00023	c2 04 00	 ret	 4
$LN3@scalar:

  00026	6a 14		 push	 20			; 00000014H
  00028	56		 push	 esi
  00029	e8 00 00 00 00	 call	 ??3@YAXPAXI@Z		; operator delete
  0002e	83 c4 08	 add	 esp, 8
$LN10@scalar:
  00031	8b c6		 mov	 eax, esi
  00033	5e		 pop	 esi
  00034	5d		 pop	 ebp
  00035	c2 04 00	 ret	 4
??_Gi3Udp@@UAEPAXI@Z ENDP				; i3Udp::`scalar deleting destructor'
_TEXT	ENDS
; Function compile flags: /Ogtp
;	COMDAT ??4i3Udp@@QAEAAV0@ABV0@@Z
_TEXT	SEGMENT
___that$ = 8						; size = 4
??4i3Udp@@QAEAAV0@ABV0@@Z PROC				; i3Udp::operator=, COMDAT
; _this$ = ecx
  00000	55		 push	 ebp
  00001	8b ec		 mov	 ebp, esp
  00003	8b 55 08	 mov	 edx, DWORD PTR ___that$[ebp]
  00006	8b 42 04	 mov	 eax, DWORD PTR [edx+4]
  00009	89 41 04	 mov	 DWORD PTR [ecx+4], eax
  0000c	8b 42 08	 mov	 eax, DWORD PTR [edx+8]
  0000f	89 41 08	 mov	 DWORD PTR [ecx+8], eax
  00012	8b 42 0c	 mov	 eax, DWORD PTR [edx+12]
  00015	89 41 0c	 mov	 DWORD PTR [ecx+12], eax
  00018	8b 42 10	 mov	 eax, DWORD PTR [edx+16]
  0001b	89 41 10	 mov	 DWORD PTR [ecx+16], eax
  0001e	8b c1		 mov	 eax, ecx
  00020	5d		 pop	 ebp
  00021	c2 04 00	 ret	 4
??4i3Udp@@QAEAAV0@ABV0@@Z ENDP				; i3Udp::operator=
_TEXT	ENDS
; Function compile flags: /Ogtp
;	COMDAT ??0i3Udp@@QAE@ABV0@@Z
_TEXT	SEGMENT
___that$ = 8						; size = 4
??0i3Udp@@QAE@ABV0@@Z PROC				; i3Udp::i3Udp, COMDAT
; _this$ = ecx
  00000	55		 push	 ebp
  00001	8b ec		 mov	 ebp, esp
  00003	8b 55 08	 mov	 edx, DWORD PTR ___that$[ebp]
  00006	c7 01 00 00 00
	00		 mov	 DWORD PTR [ecx], OFFSET ??_7i3ElementBase@@6B@
  0000c	8b 42 04	 mov	 eax, DWORD PTR [edx+4]
  0000f	89 41 04	 mov	 DWORD PTR [ecx+4], eax
  00012	8b 42 08	 mov	 eax, DWORD PTR [edx+8]
  00015	89 41 08	 mov	 DWORD PTR [ecx+8], eax
  00018	8b 42 0c	 mov	 eax, DWORD PTR [edx+12]
  0001b	89 41 0c	 mov	 DWORD PTR [ecx+12], eax
  0001e	c7 01 00 00 00
	00		 mov	 DWORD PTR [ecx], OFFSET ??_7i3Udp@@6B@
  00024	8b 42 10	 mov	 eax, DWORD PTR [edx+16]
  00027	89 41 10	 mov	 DWORD PTR [ecx+16], eax
  0002a	8b c1		 mov	 eax, ecx
  0002c	5d		 pop	 ebp
  0002d	c2 04 00	 ret	 4
??0i3Udp@@QAE@ABV0@@Z ENDP				; i3Udp::i3Udp
_TEXT	ENDS
; Function compile flags: /Ogtp
; File E:\Proyectos\JuegosOnlineproyectos\PB\pbblow\Piercing Blow Remake\i3Server\include\i3Base\i3Inet.h
;	COMDAT ?getSocketHandle@i3Udp@@QAEIXZ
_TEXT	SEGMENT
?getSocketHandle@i3Udp@@QAEIXZ PROC			; i3Udp::getSocketHandle, COMDAT
; _this$ = ecx

; 80   : 	SOCKET	getSocketHandle( void )				{ return m_Socket; }

  00000	8b 41 10	 mov	 eax, DWORD PTR [ecx+16]
  00003	c3		 ret	 0
?getSocketHandle@i3Udp@@QAEIXZ ENDP			; i3Udp::getSocketHandle
_TEXT	ENDS
; Function compile flags: /Ogtp
; File E:\Proyectos\JuegosOnlineproyectos\PB\pbblow\Piercing Blow Remake\i3Server\include\i3Base\i3Inet.h
;	COMDAT ?GetClassMeta@i3Udp@@SAPAVi3ClassMeta@@XZ
_TEXT	SEGMENT
?GetClassMeta@i3Udp@@SAPAVi3ClassMeta@@XZ PROC		; i3Udp::GetClassMeta, COMDAT

; 60   : 	I3_CLASS_DEFINE( i3Udp );

  00000	a1 00 00 00 00	 mov	 eax, DWORD PTR ?s_pClassMetai3Udp@i3Udp@@2PAVi3ClassMeta@@A ; i3Udp::s_pClassMetai3Udp
  00005	c3		 ret	 0
?GetClassMeta@i3Udp@@SAPAVi3ClassMeta@@XZ ENDP		; i3Udp::GetClassMeta
_TEXT	ENDS
; Function compile flags: /Ogtp
; File E:\Proyectos\JuegosOnlineproyectos\PB\pbblow\Piercing Blow Remake\i3Server\src\i3Base\i3NetworkUDPSocket.cpp
;	COMDAT ??_Ei3NetworkUDPSocket@@UAEPAXI@Z
_TEXT	SEGMENT
__$EHRec$ = -12						; size = 12
___flags$ = 8						; size = 4
??_Ei3NetworkUDPSocket@@UAEPAXI@Z PROC			; i3NetworkUDPSocket::`vector deleting destructor', COMDAT
; _this$ = ecx
  00000	55		 push	 ebp
  00001	8b ec		 mov	 ebp, esp
  00003	6a ff		 push	 -1
  00005	68 00 00 00 00	 push	 __ehhandler$??_Ei3NetworkUDPSocket@@UAEPAXI@Z
  0000a	64 a1 00 00 00
	00		 mov	 eax, DWORD PTR fs:0
  00010	50		 push	 eax
  00011	53		 push	 ebx
  00012	56		 push	 esi
  00013	57		 push	 edi
  00014	a1 00 00 00 00	 mov	 eax, DWORD PTR ___security_cookie
  00019	33 c5		 xor	 eax, ebp
  0001b	50		 push	 eax
  0001c	8d 45 f4	 lea	 eax, DWORD PTR __$EHRec$[ebp]
  0001f	64 a3 00 00 00
	00		 mov	 DWORD PTR fs:0, eax
  00025	8b f1		 mov	 esi, ecx
  00027	8b 5d 08	 mov	 ebx, DWORD PTR ___flags$[ebp]
  0002a	8b fb		 mov	 edi, ebx
  0002c	83 e7 01	 and	 edi, 1
  0002f	f6 c3 02	 test	 bl, 2
  00032	74 3d		 je	 SHORT $LN2@vector
  00034	68 00 00 00 00	 push	 OFFSET ??1i3NetworkUDPSocket@@UAE@XZ ; i3NetworkUDPSocket::~i3NetworkUDPSocket
  00039	ff 76 fc	 push	 DWORD PTR [esi-4]
  0003c	8d 5e fc	 lea	 ebx, DWORD PTR [esi-4]
  0003f	6a 2c		 push	 44			; 0000002cH
  00041	56		 push	 esi
  00042	e8 00 00 00 00	 call	 ??_M@YGXPAXIIP6EX0@Z@Z
  00047	85 ff		 test	 edi, edi
  00049	74 10		 je	 SHORT $LN3@vector
  0004b	6b 0b 2c	 imul	 ecx, DWORD PTR [ebx], 44
  0004e	83 c1 04	 add	 ecx, 4
  00051	51		 push	 ecx
  00052	53		 push	 ebx
  00053	e8 00 00 00 00	 call	 ??_V@YAXPAXI@Z		; operator delete[]
  00058	83 c4 08	 add	 esp, 8
$LN3@vector:
  0005b	8b c3		 mov	 eax, ebx
  0005d	8b 4d f4	 mov	 ecx, DWORD PTR __$EHRec$[ebp]
  00060	64 89 0d 00 00
	00 00		 mov	 DWORD PTR fs:0, ecx
  00067	59		 pop	 ecx
  00068	5f		 pop	 edi
  00069	5e		 pop	 esi
  0006a	5b		 pop	 ebx
  0006b	8b e5		 mov	 esp, ebp
  0006d	5d		 pop	 ebp
  0006e	c2 04 00	 ret	 4
$LN2@vector:

; 25   : 	Destroy();

  00071	8b ce		 mov	 ecx, esi
  00073	c7 45 fc 00 00
	00 00		 mov	 DWORD PTR __$EHRec$[ebp+8], 0
  0007a	c7 06 00 00 00
	00		 mov	 DWORD PTR [esi], OFFSET ??_7i3NetworkUDPSocket@@6B@
  00080	e8 00 00 00 00	 call	 ?Destroy@i3NetworkUDPSocket@@QAEHXZ ; i3NetworkUDPSocket::Destroy

; 26   : }

  00085	8b ce		 mov	 ecx, esi
  00087	e8 00 00 00 00	 call	 ??1i3ElementBase@@UAE@XZ ; i3ElementBase::~i3ElementBase
  0008c	85 ff		 test	 edi, edi
  0008e	74 1b		 je	 SHORT $LN6@vector
  00090	f6 c3 04	 test	 bl, 4
  00093	75 0b		 jne	 SHORT $LN5@vector
  00095	56		 push	 esi
  00096	e8 00 00 00 00	 call	 ??3i3ElementBase@@SAXPAX@Z ; i3ElementBase::operator delete
  0009b	83 c4 04	 add	 esp, 4
  0009e	eb 0b		 jmp	 SHORT $LN6@vector
$LN5@vector:

  000a0	6a 2c		 push	 44			; 0000002cH
  000a2	56		 push	 esi
  000a3	e8 00 00 00 00	 call	 ??3@YAXPAXI@Z		; operator delete
  000a8	83 c4 08	 add	 esp, 8
$LN6@vector:
  000ab	8b c6		 mov	 eax, esi
  000ad	8b 4d f4	 mov	 ecx, DWORD PTR __$EHRec$[ebp]
  000b0	64 89 0d 00 00
	00 00		 mov	 DWORD PTR fs:0, ecx
  000b7	59		 pop	 ecx
  000b8	5f		 pop	 edi
  000b9	5e		 pop	 esi
  000ba	5b		 pop	 ebx
  000bb	8b e5		 mov	 esp, ebp
  000bd	5d		 pop	 ebp
  000be	c2 04 00	 ret	 4
  000c1	cc		 int	 3
  000c2	cc		 int	 3
  000c3	cc		 int	 3
  000c4	cc		 int	 3
  000c5	cc		 int	 3
_TEXT	ENDS
;	COMDAT text$x
text$x	SEGMENT
__ehhandler$??_Ei3NetworkUDPSocket@@UAEPAXI@Z:
  00000	90		 npad	 1
  00001	90		 npad	 1
  00002	8b 54 24 08	 mov	 edx, DWORD PTR [esp+8]
  00006	8d 42 0c	 lea	 eax, DWORD PTR [edx+12]
  00009	8b 4a f0	 mov	 ecx, DWORD PTR [edx-16]
  0000c	33 c8		 xor	 ecx, eax
  0000e	e8 00 00 00 00	 call	 @__security_check_cookie@4
  00013	b8 00 00 00 00	 mov	 eax, OFFSET __ehfuncinfo$??_Ei3NetworkUDPSocket@@UAEPAXI@Z
  00018	e9 00 00 00 00	 jmp	 ___CxxFrameHandler3
text$x	ENDS
??_Ei3NetworkUDPSocket@@UAEPAXI@Z ENDP			; i3NetworkUDPSocket::`vector deleting destructor'
; Function compile flags: /Ogtp
; File E:\Proyectos\JuegosOnlineproyectos\PB\pbblow\Piercing Blow Remake\i3Server\src\i3Base\i3NetworkUDPSocket.cpp
;	COMDAT ??_Gi3NetworkUDPSocket@@UAEPAXI@Z
_TEXT	SEGMENT
__$EHRec$ = -12						; size = 12
___flags$ = 8						; size = 4
??_Gi3NetworkUDPSocket@@UAEPAXI@Z PROC			; i3NetworkUDPSocket::`scalar deleting destructor', COMDAT
; _this$ = ecx
  00000	55		 push	 ebp
  00001	8b ec		 mov	 ebp, esp
  00003	6a ff		 push	 -1
  00005	68 00 00 00 00	 push	 __ehhandler$??_Gi3NetworkUDPSocket@@UAEPAXI@Z
  0000a	64 a1 00 00 00
	00		 mov	 eax, DWORD PTR fs:0
  00010	50		 push	 eax
  00011	56		 push	 esi
  00012	a1 00 00 00 00	 mov	 eax, DWORD PTR ___security_cookie
  00017	33 c5		 xor	 eax, ebp
  00019	50		 push	 eax
  0001a	8d 45 f4	 lea	 eax, DWORD PTR __$EHRec$[ebp]
  0001d	64 a3 00 00 00
	00		 mov	 DWORD PTR fs:0, eax
  00023	8b f1		 mov	 esi, ecx

; 24   : {

  00025	c7 45 fc 00 00
	00 00		 mov	 DWORD PTR __$EHRec$[ebp+8], 0
  0002c	c7 06 00 00 00
	00		 mov	 DWORD PTR [esi], OFFSET ??_7i3NetworkUDPSocket@@6B@

; 25   : 	Destroy();

  00032	e8 00 00 00 00	 call	 ?Destroy@i3NetworkUDPSocket@@QAEHXZ ; i3NetworkUDPSocket::Destroy

; 26   : }

  00037	8b ce		 mov	 ecx, esi
  00039	e8 00 00 00 00	 call	 ??1i3ElementBase@@UAE@XZ ; i3ElementBase::~i3ElementBase
  0003e	8b 45 08	 mov	 eax, DWORD PTR ___flags$[ebp]
  00041	a8 01		 test	 al, 1
  00043	74 2c		 je	 SHORT $LN15@scalar
  00045	a8 04		 test	 al, 4
  00047	75 1d		 jne	 SHORT $LN3@scalar
  00049	56		 push	 esi
  0004a	e8 00 00 00 00	 call	 ??3i3ElementBase@@SAXPAX@Z ; i3ElementBase::operator delete
  0004f	83 c4 04	 add	 esp, 4
  00052	8b c6		 mov	 eax, esi
  00054	8b 4d f4	 mov	 ecx, DWORD PTR __$EHRec$[ebp]
  00057	64 89 0d 00 00
	00 00		 mov	 DWORD PTR fs:0, ecx
  0005e	59		 pop	 ecx
  0005f	5e		 pop	 esi
  00060	8b e5		 mov	 esp, ebp
  00062	5d		 pop	 ebp
  00063	c2 04 00	 ret	 4
$LN3@scalar:

  00066	6a 2c		 push	 44			; 0000002cH
  00068	56		 push	 esi
  00069	e8 00 00 00 00	 call	 ??3@YAXPAXI@Z		; operator delete
  0006e	83 c4 08	 add	 esp, 8
$LN15@scalar:
  00071	8b c6		 mov	 eax, esi
  00073	8b 4d f4	 mov	 ecx, DWORD PTR __$EHRec$[ebp]
  00076	64 89 0d 00 00
	00 00		 mov	 DWORD PTR fs:0, ecx
  0007d	59		 pop	 ecx
  0007e	5e		 pop	 esi
  0007f	8b e5		 mov	 esp, ebp
  00081	5d		 pop	 ebp
  00082	c2 04 00	 ret	 4
  00085	cc		 int	 3
  00086	cc		 int	 3
  00087	cc		 int	 3
  00088	cc		 int	 3
  00089	cc		 int	 3
_TEXT	ENDS
;	COMDAT text$x
text$x	SEGMENT
__ehhandler$??_Gi3NetworkUDPSocket@@UAEPAXI@Z:
  00000	90		 npad	 1
  00001	90		 npad	 1
  00002	8b 54 24 08	 mov	 edx, DWORD PTR [esp+8]
  00006	8d 42 0c	 lea	 eax, DWORD PTR [edx+12]
  00009	8b 4a f8	 mov	 ecx, DWORD PTR [edx-8]
  0000c	33 c8		 xor	 ecx, eax
  0000e	e8 00 00 00 00	 call	 @__security_check_cookie@4
  00013	b8 00 00 00 00	 mov	 eax, OFFSET __ehfuncinfo$??_Gi3NetworkUDPSocket@@UAEPAXI@Z
  00018	e9 00 00 00 00	 jmp	 ___CxxFrameHandler3
text$x	ENDS
??_Gi3NetworkUDPSocket@@UAEPAXI@Z ENDP			; i3NetworkUDPSocket::`scalar deleting destructor'
; Function compile flags: /Ogtp
;	COMDAT ??4i3NetworkUDPSocket@@QAEAAV0@ABV0@@Z
_TEXT	SEGMENT
___that$ = 8						; size = 4
??4i3NetworkUDPSocket@@QAEAAV0@ABV0@@Z PROC		; i3NetworkUDPSocket::operator=, COMDAT
; _this$ = ecx
  00000	55		 push	 ebp
  00001	8b ec		 mov	 ebp, esp
  00003	8b 55 08	 mov	 edx, DWORD PTR ___that$[ebp]
  00006	8b 42 04	 mov	 eax, DWORD PTR [edx+4]
  00009	89 41 04	 mov	 DWORD PTR [ecx+4], eax
  0000c	8b 42 08	 mov	 eax, DWORD PTR [edx+8]
  0000f	89 41 08	 mov	 DWORD PTR [ecx+8], eax
  00012	8b 42 0c	 mov	 eax, DWORD PTR [edx+12]
  00015	89 41 0c	 mov	 DWORD PTR [ecx+12], eax
  00018	8b 42 10	 mov	 eax, DWORD PTR [edx+16]
  0001b	89 41 10	 mov	 DWORD PTR [ecx+16], eax
  0001e	8b 42 14	 mov	 eax, DWORD PTR [edx+20]
  00021	89 41 14	 mov	 DWORD PTR [ecx+20], eax
  00024	8b 42 18	 mov	 eax, DWORD PTR [edx+24]
  00027	89 41 18	 mov	 DWORD PTR [ecx+24], eax
  0002a	8b 42 1c	 mov	 eax, DWORD PTR [edx+28]
  0002d	89 41 1c	 mov	 DWORD PTR [ecx+28], eax
  00030	8b 42 20	 mov	 eax, DWORD PTR [edx+32]
  00033	89 41 20	 mov	 DWORD PTR [ecx+32], eax
  00036	8b 42 24	 mov	 eax, DWORD PTR [edx+36]
  00039	89 41 24	 mov	 DWORD PTR [ecx+36], eax
  0003c	8b 42 28	 mov	 eax, DWORD PTR [edx+40]
  0003f	89 41 28	 mov	 DWORD PTR [ecx+40], eax
  00042	8b c1		 mov	 eax, ecx
  00044	5d		 pop	 ebp
  00045	c2 04 00	 ret	 4
??4i3NetworkUDPSocket@@QAEAAV0@ABV0@@Z ENDP		; i3NetworkUDPSocket::operator=
_TEXT	ENDS
; Function compile flags: /Ogtp
;	COMDAT ??0i3NetworkUDPSocket@@QAE@ABV0@@Z
_TEXT	SEGMENT
___that$ = 8						; size = 4
??0i3NetworkUDPSocket@@QAE@ABV0@@Z PROC			; i3NetworkUDPSocket::i3NetworkUDPSocket, COMDAT
; _this$ = ecx
  00000	55		 push	 ebp
  00001	8b ec		 mov	 ebp, esp
  00003	8b 55 08	 mov	 edx, DWORD PTR ___that$[ebp]
  00006	c7 01 00 00 00
	00		 mov	 DWORD PTR [ecx], OFFSET ??_7i3ElementBase@@6B@
  0000c	8b 42 04	 mov	 eax, DWORD PTR [edx+4]
  0000f	89 41 04	 mov	 DWORD PTR [ecx+4], eax
  00012	8b 42 08	 mov	 eax, DWORD PTR [edx+8]
  00015	89 41 08	 mov	 DWORD PTR [ecx+8], eax
  00018	8b 42 0c	 mov	 eax, DWORD PTR [edx+12]
  0001b	89 41 0c	 mov	 DWORD PTR [ecx+12], eax
  0001e	c7 01 00 00 00
	00		 mov	 DWORD PTR [ecx], OFFSET ??_7i3NetworkUDPSocket@@6B@
  00024	8b 42 10	 mov	 eax, DWORD PTR [edx+16]
  00027	89 41 10	 mov	 DWORD PTR [ecx+16], eax
  0002a	8b 42 14	 mov	 eax, DWORD PTR [edx+20]
  0002d	89 41 14	 mov	 DWORD PTR [ecx+20], eax
  00030	8b 42 18	 mov	 eax, DWORD PTR [edx+24]
  00033	89 41 18	 mov	 DWORD PTR [ecx+24], eax
  00036	8b 42 1c	 mov	 eax, DWORD PTR [edx+28]
  00039	89 41 1c	 mov	 DWORD PTR [ecx+28], eax
  0003c	8b 42 20	 mov	 eax, DWORD PTR [edx+32]
  0003f	89 41 20	 mov	 DWORD PTR [ecx+32], eax
  00042	8b 42 24	 mov	 eax, DWORD PTR [edx+36]
  00045	89 41 24	 mov	 DWORD PTR [ecx+36], eax
  00048	8b 42 28	 mov	 eax, DWORD PTR [edx+40]
  0004b	89 41 28	 mov	 DWORD PTR [ecx+40], eax
  0004e	8b c1		 mov	 eax, ecx
  00050	5d		 pop	 ebp
  00051	c2 04 00	 ret	 4
??0i3NetworkUDPSocket@@QAE@ABV0@@Z ENDP			; i3NetworkUDPSocket::i3NetworkUDPSocket
_TEXT	ENDS
; Function compile flags: /Ogtp
; File E:\Proyectos\JuegosOnlineproyectos\PB\pbblow\Piercing Blow Remake\i3Server\include\i3Base\i3NetworkUDPSocket.h
;	COMDAT ?getRecvAddr@i3NetworkUDPSocket@@QAEPAUsockaddr@@XZ
_TEXT	SEGMENT
?getRecvAddr@i3NetworkUDPSocket@@QAEPAUsockaddr@@XZ PROC ; i3NetworkUDPSocket::getRecvAddr, COMDAT
; _this$ = ecx

; 39   : 	sockaddr * getRecvAddr( void )				{ return &m_RecvAddr; }

  00000	8d 41 14	 lea	 eax, DWORD PTR [ecx+20]
  00003	c3		 ret	 0
?getRecvAddr@i3NetworkUDPSocket@@QAEPAUsockaddr@@XZ ENDP ; i3NetworkUDPSocket::getRecvAddr
_TEXT	ENDS
; Function compile flags: /Ogtp
; File E:\Proyectos\JuegosOnlineproyectos\PB\pbblow\Piercing Blow Remake\i3Server\include\i3Base\i3NetworkUDPSocket.h
;	COMDAT ?getPacket@i3NetworkUDPSocket@@QAEPADH@Z
_TEXT	SEGMENT
_nPos$ = 8						; size = 4
?getPacket@i3NetworkUDPSocket@@QAEPADH@Z PROC		; i3NetworkUDPSocket::getPacket, COMDAT
; _this$ = ecx

; 38   : 	char *	getPacket( INT32 nPos )				{ return &m_pszReciveBuffer[ nPos ]; }

  00000	55		 push	 ebp
  00001	8b ec		 mov	 ebp, esp
  00003	8b 41 28	 mov	 eax, DWORD PTR [ecx+40]
  00006	03 45 08	 add	 eax, DWORD PTR _nPos$[ebp]
  00009	5d		 pop	 ebp
  0000a	c2 04 00	 ret	 4
?getPacket@i3NetworkUDPSocket@@QAEPADH@Z ENDP		; i3NetworkUDPSocket::getPacket
_TEXT	ENDS
; Function compile flags: /Ogtp
; File E:\Proyectos\JuegosOnlineproyectos\PB\pbblow\Piercing Blow Remake\i3Server\include\i3Base\i3NetworkUDPSocket.h
;	COMDAT ?getPacket@i3NetworkUDPSocket@@QAEPADXZ
_TEXT	SEGMENT
?getPacket@i3NetworkUDPSocket@@QAEPADXZ PROC		; i3NetworkUDPSocket::getPacket, COMDAT
; _this$ = ecx

; 37   : 	char *	getPacket(void)						{ return m_pszReciveBuffer; }

  00000	8b 41 28	 mov	 eax, DWORD PTR [ecx+40]
  00003	c3		 ret	 0
?getPacket@i3NetworkUDPSocket@@QAEPADXZ ENDP		; i3NetworkUDPSocket::getPacket
_TEXT	ENDS
; Function compile flags: /Ogtp
; File E:\Proyectos\JuegosOnlineproyectos\PB\pbblow\Piercing Blow Remake\i3Server\src\i3Base\i3NetworkUDPSocket.cpp
;	COMDAT ?Recv@i3NetworkUDPSocket@@QAEHXZ
_TEXT	SEGMENT
_len$ = -4						; size = 4
?Recv@i3NetworkUDPSocket@@QAEHXZ PROC			; i3NetworkUDPSocket::Recv, COMDAT
; _this$ = ecx

; 111  : {

  00000	55		 push	 ebp
  00001	8b ec		 mov	 ebp, esp
  00003	51		 push	 ecx

; 112  : 	INT32		len	= sizeof( sockaddr );
; 113  : 
; 114  : 	return ::recvfrom( m_hSocket, m_pszReciveBuffer, m_nBufSize, 0, &m_RecvAddr, &len );

  00004	8d 45 fc	 lea	 eax, DWORD PTR _len$[ebp]
  00007	c7 45 fc 10 00
	00 00		 mov	 DWORD PTR _len$[ebp], 16 ; 00000010H
  0000e	50		 push	 eax
  0000f	8d 41 14	 lea	 eax, DWORD PTR [ecx+20]
  00012	50		 push	 eax
  00013	6a 00		 push	 0
  00015	ff 71 24	 push	 DWORD PTR [ecx+36]
  00018	ff 71 28	 push	 DWORD PTR [ecx+40]
  0001b	ff 71 10	 push	 DWORD PTR [ecx+16]
  0001e	ff 15 00 00 00
	00		 call	 DWORD PTR __imp__recvfrom@24

; 115  : }

  00024	8b e5		 mov	 esp, ebp
  00026	5d		 pop	 ebp
  00027	c3		 ret	 0
?Recv@i3NetworkUDPSocket@@QAEHXZ ENDP			; i3NetworkUDPSocket::Recv
_TEXT	ENDS
; Function compile flags: /Ogtp
; File E:\Proyectos\JuegosOnlineproyectos\PB\pbblow\Piercing Blow Remake\i3Server\src\i3Base\i3NetworkUDPSocket.cpp
;	COMDAT ?Send@i3NetworkUDPSocket@@QAEHPADHIG@Z
_TEXT	SEGMENT
_cast$ = -20						; size = 16
__$ArrayPad$ = -4					; size = 4
_pBuf$ = 8						; size = 4
_nSize$ = 12						; size = 4
_nIP$ = 16						; size = 4
_nPort$ = 20						; size = 2
?Send@i3NetworkUDPSocket@@QAEHPADHIG@Z PROC		; i3NetworkUDPSocket::Send, COMDAT
; _this$ = ecx

; 88   : {

  00000	55		 push	 ebp
  00001	8b ec		 mov	 ebp, esp
  00003	83 ec 14	 sub	 esp, 20			; 00000014H
  00006	a1 00 00 00 00	 mov	 eax, DWORD PTR ___security_cookie
  0000b	33 c5		 xor	 eax, ebp
  0000d	89 45 fc	 mov	 DWORD PTR __$ArrayPad$[ebp], eax
  00010	56		 push	 esi
  00011	57		 push	 edi

; 89   : 	INT32	nRv;
; 90   : 	SOCKADDR_IN cast;
; 91   : 	cast.sin_family			= AF_INET;
; 92   : 	cast.sin_addr.s_addr	= nIP; 
; 93   : 	cast.sin_port			= ::htons( nPort );

  00012	ff 75 14	 push	 DWORD PTR _nPort$[ebp]
  00015	8b 7d 08	 mov	 edi, DWORD PTR _pBuf$[ebp]
  00018	b8 02 00 00 00	 mov	 eax, 2
  0001d	66 89 45 ec	 mov	 WORD PTR _cast$[ebp], ax
  00021	8b f1		 mov	 esi, ecx
  00023	8b 45 10	 mov	 eax, DWORD PTR _nIP$[ebp]
  00026	89 45 f0	 mov	 DWORD PTR _cast$[ebp+4], eax
  00029	ff 15 00 00 00
	00		 call	 DWORD PTR __imp__htons@4
  0002f	66 89 45 ee	 mov	 WORD PTR _cast$[ebp+2], ax

; 94   : 
; 95   : 	if( m_hSocket == INVALID_SOCKET )

  00033	8b 46 10	 mov	 eax, DWORD PTR [esi+16]
  00036	83 f8 ff	 cmp	 eax, -1
  00039	75 14		 jne	 SHORT $LN2@Send

; 96   : 	{
; 97   : 		I3TRACE( "UDP Socket invalid.\n" );
; 98   : 		return -1;

  0003b	5f		 pop	 edi
  0003c	0b c0		 or	 eax, eax

; 105  : 	}
; 106  : 
; 107  : 	return nRv;
; 108  : }

  0003e	5e		 pop	 esi
  0003f	8b 4d fc	 mov	 ecx, DWORD PTR __$ArrayPad$[ebp]
  00042	33 cd		 xor	 ecx, ebp
  00044	e8 00 00 00 00	 call	 @__security_check_cookie@4
  00049	8b e5		 mov	 esp, ebp
  0004b	5d		 pop	 ebp
  0004c	c2 10 00	 ret	 16			; 00000010H
$LN2@Send:

; 99   : 	}
; 100  : 	
; 101  : 	nRv = ::sendto( m_hSocket, pBuf, nSize, 0, (const sockaddr *)&cast, sizeof(sockaddr) );

  0004f	6a 10		 push	 16			; 00000010H
  00051	8d 4d ec	 lea	 ecx, DWORD PTR _cast$[ebp]
  00054	51		 push	 ecx
  00055	6a 00		 push	 0
  00057	ff 75 0c	 push	 DWORD PTR _nSize$[ebp]
  0005a	57		 push	 edi
  0005b	50		 push	 eax
  0005c	ff 15 00 00 00
	00		 call	 DWORD PTR __imp__sendto@24
  00062	8b f0		 mov	 esi, eax

; 102  : 	if( nRv < 0 )

  00064	85 f6		 test	 esi, esi
  00066	79 0d		 jns	 SHORT $LN3@Send

; 103  : 	{
; 104  : 		i3Net::GetError( "UDPSend failed\n" );

  00068	68 00 00 00 00	 push	 OFFSET ??_C@_0BA@GLJDAJJP@UDPSend?5failed?6@
  0006d	e8 00 00 00 00	 call	 ?GetError@i3Net@@YAHPAD@Z ; i3Net::GetError
  00072	83 c4 04	 add	 esp, 4
$LN3@Send:

; 105  : 	}
; 106  : 
; 107  : 	return nRv;
; 108  : }

  00075	8b 4d fc	 mov	 ecx, DWORD PTR __$ArrayPad$[ebp]
  00078	8b c6		 mov	 eax, esi
  0007a	5f		 pop	 edi
  0007b	33 cd		 xor	 ecx, ebp
  0007d	5e		 pop	 esi
  0007e	e8 00 00 00 00	 call	 @__security_check_cookie@4
  00083	8b e5		 mov	 esp, ebp
  00085	5d		 pop	 ebp
  00086	c2 10 00	 ret	 16			; 00000010H
?Send@i3NetworkUDPSocket@@QAEHPADHIG@Z ENDP		; i3NetworkUDPSocket::Send
_TEXT	ENDS
; Function compile flags: /Ogtp
; File E:\Proyectos\JuegosOnlineproyectos\PB\pbblow\Piercing Blow Remake\i3Server\src\i3Base\i3NetworkUDPSocket.cpp
;	COMDAT ?Destroy@i3NetworkUDPSocket@@QAEHXZ
_TEXT	SEGMENT
?Destroy@i3NetworkUDPSocket@@QAEHXZ PROC		; i3NetworkUDPSocket::Destroy, COMDAT
; _this$ = ecx

; 61   : {

  00000	56		 push	 esi
  00001	8b f1		 mov	 esi, ecx

; 62   : 	INT32	result;
; 63   : 
; 64   : 	if( m_hSocket != INVALID_SOCKET )

  00003	8b 46 10	 mov	 eax, DWORD PTR [esi+16]
  00006	83 f8 ff	 cmp	 eax, -1
  00009	74 43		 je	 SHORT $LN2@Destroy

; 65   : 	{
; 66   : 		result = ::shutdown( m_hSocket, SD_BOTH );

  0000b	6a 02		 push	 2
  0000d	50		 push	 eax
  0000e	ff 15 00 00 00
	00		 call	 DWORD PTR __imp__shutdown@8

; 67   : 		if( result < 0 )

  00014	85 c0		 test	 eax, eax
  00016	79 11		 jns	 SHORT $LN3@Destroy

; 68   : 		{
; 69   : 			i3Net::GetError( "UDP shutdown.\n" );

  00018	68 00 00 00 00	 push	 OFFSET ??_C@_0P@DFCOLBLC@UDP?5shutdown?4?6@
  0001d	e8 00 00 00 00	 call	 ?GetError@i3Net@@YAHPAD@Z ; i3Net::GetError
  00022	83 c4 04	 add	 esp, 4

; 70   : 			return FALSE;

  00025	33 c0		 xor	 eax, eax
  00027	5e		 pop	 esi

; 85   : }

  00028	c3		 ret	 0
$LN3@Destroy:

; 71   : 		}
; 72   : 		result = ::closesocket( m_hSocket );

  00029	ff 76 10	 push	 DWORD PTR [esi+16]
  0002c	ff 15 00 00 00
	00		 call	 DWORD PTR __imp__closesocket@4

; 73   : 		if( result < 0 )

  00032	85 c0		 test	 eax, eax
  00034	79 11		 jns	 SHORT $LN4@Destroy

; 74   : 		{
; 75   : 			i3Net::GetError( "UDP close\n" );

  00036	68 00 00 00 00	 push	 OFFSET ??_C@_0L@JCJHCMHJ@UDP?5close?6@
  0003b	e8 00 00 00 00	 call	 ?GetError@i3Net@@YAHPAD@Z ; i3Net::GetError
  00040	83 c4 04	 add	 esp, 4

; 76   : 			return FALSE;

  00043	33 c0		 xor	 eax, eax
  00045	5e		 pop	 esi

; 85   : }

  00046	c3		 ret	 0
$LN4@Destroy:

; 77   : 		}
; 78   : 
; 79   : 		m_hSocket = INVALID_SOCKET;

  00047	c7 46 10 ff ff
	ff ff		 mov	 DWORD PTR [esi+16], -1
$LN2@Destroy:

; 80   : 	}
; 81   : 
; 82   : 	I3MEM_SAFE_FREE_POINTER( m_pszReciveBuffer );

  0004e	8b 46 28	 mov	 eax, DWORD PTR [esi+40]
  00051	85 c0		 test	 eax, eax
  00053	74 17		 je	 SHORT $LN5@Destroy
  00055	6a 52		 push	 82			; 00000052H
  00057	68 00 00 00 00	 push	 OFFSET ??_C@_0GN@DAMBCGJP@E?3?2Proyectos?2JuegosOnlineproyec@
  0005c	50		 push	 eax
  0005d	e8 00 00 00 00	 call	 ?FreeTool@i3mem@@YAXPAXPBDH@Z ; i3mem::FreeTool
  00062	83 c4 0c	 add	 esp, 12			; 0000000cH
  00065	c7 46 28 00 00
	00 00		 mov	 DWORD PTR [esi+40], 0
$LN5@Destroy:

; 83   : 
; 84   : 	return TRUE;

  0006c	b8 01 00 00 00	 mov	 eax, 1
  00071	5e		 pop	 esi

; 85   : }

  00072	c3		 ret	 0
?Destroy@i3NetworkUDPSocket@@QAEHXZ ENDP		; i3NetworkUDPSocket::Destroy
_TEXT	ENDS
; Function compile flags: /Ogtp
; File E:\Proyectos\JuegosOnlineproyectos\PB\pbblow\Piercing Blow Remake\i3Server\src\i3Base\i3NetworkUDPSocket.cpp
; File C:\Program Files (x86)\Windows Kits\10\Include\10.0.26100.0\um\winnt.h
; File E:\Proyectos\JuegosOnlineproyectos\PB\pbblow\Piercing Blow Remake\i3Server\include\i3Base\i3Memory.h
; File C:\Program Files (x86)\Windows Kits\10\Include\10.0.26100.0\um\winnt.h
; File E:\Proyectos\JuegosOnlineproyectos\PB\pbblow\Piercing Blow Remake\i3Server\src\i3Base\i3NetworkUDPSocket.cpp
; File E:\Proyectos\JuegosOnlineproyectos\PB\pbblow\Piercing Blow Remake\i3Server\include\i3Base\i3Memory.h
; File C:\Program Files (x86)\Windows Kits\10\Include\10.0.26100.0\um\winnt.h
; File E:\Proyectos\JuegosOnlineproyectos\PB\pbblow\Piercing Blow Remake\i3Server\src\i3Base\i3NetworkUDPSocket.cpp
;	COMDAT ?Create@i3NetworkUDPSocket@@QAEHHG@Z
_TEXT	SEGMENT
_localAddr$ = -20					; size = 16
__$ArrayPad$ = -4					; size = 4
_nBufSize$ = 8						; size = 4
_nBindPort$ = 12					; size = 2
?Create@i3NetworkUDPSocket@@QAEHHG@Z PROC		; i3NetworkUDPSocket::Create, COMDAT
; _this$ = ecx

; 29   : {

  00000	55		 push	 ebp
  00001	8b ec		 mov	 ebp, esp
  00003	83 ec 14	 sub	 esp, 20			; 00000014H
  00006	a1 00 00 00 00	 mov	 eax, DWORD PTR ___security_cookie
  0000b	33 c5		 xor	 eax, ebp
  0000d	89 45 fc	 mov	 DWORD PTR __$ArrayPad$[ebp], eax
  00010	56		 push	 esi
  00011	8b f1		 mov	 esi, ecx
; File C:\Program Files (x86)\Windows Kits\10\Include\10.0.26100.0\um\winnt.h

; 23413:     volatile char *vptr = (volatile char *)ptr;

  00013	8d 45 ec	 lea	 eax, DWORD PTR _localAddr$[ebp]
; File E:\Proyectos\JuegosOnlineproyectos\PB\pbblow\Piercing Blow Remake\i3Server\include\i3Base\i3Memory.h

; 144  : 			::SecureZeroMemory( pDest, sz);

  00016	ba 10 00 00 00	 mov	 edx, 16			; 00000010H
  0001b	eb 03 8d 49 00	 npad	 5
$LL8@Create:
; File C:\Program Files (x86)\Windows Kits\10\Include\10.0.26100.0\um\winnt.h

; 23429:         *vptr = 0;

  00020	c6 00 00	 mov	 BYTE PTR [eax], 0

; 23430: 
; 23431: #endif
; 23432: 
; 23433:         vptr++;

  00023	8d 40 01	 lea	 eax, DWORD PTR [eax+1]

; 23434:         cnt--;

  00026	83 ea 01	 sub	 edx, 1
  00029	75 f5		 jne	 SHORT $LL8@Create
; File E:\Proyectos\JuegosOnlineproyectos\PB\pbblow\Piercing Blow Remake\i3Server\src\i3Base\i3NetworkUDPSocket.cpp

; 33   : 	m_hSocket	= ::socket( AF_INET, SOCK_DGRAM, 0 );

  0002b	52		 push	 edx
  0002c	6a 02		 push	 2
  0002e	6a 02		 push	 2
  00030	ff 15 00 00 00
	00		 call	 DWORD PTR __imp__socket@12
  00036	89 46 10	 mov	 DWORD PTR [esi+16], eax

; 34   : 
; 35   : 	if( m_hSocket == INVALID_SOCKET )

  00039	83 f8 ff	 cmp	 eax, -1
  0003c	75 20		 jne	 SHORT $LN2@Create

; 36   : 	{
; 37   : 		i3Net::GetError( "Socket create failed.\n" );

  0003e	68 00 00 00 00	 push	 OFFSET ??_C@_0BH@IODNIFMA@Socket?5create?5failed?4?6@
  00043	e8 00 00 00 00	 call	 ?GetError@i3Net@@YAHPAD@Z ; i3Net::GetError
  00048	83 c4 04	 add	 esp, 4

; 38   : 		return FALSE;

  0004b	33 c0		 xor	 eax, eax
  0004d	5e		 pop	 esi

; 58   : }

  0004e	8b 4d fc	 mov	 ecx, DWORD PTR __$ArrayPad$[ebp]
  00051	33 cd		 xor	 ecx, ebp
  00053	e8 00 00 00 00	 call	 @__security_check_cookie@4
  00058	8b e5		 mov	 esp, ebp
  0005a	5d		 pop	 ebp
  0005b	c2 08 00	 ret	 8
$LN2@Create:

; 39   : 	}
; 40   : 	
; 41   : 	// bind
; 42   : 	localAddr.sin_family		= AF_INET;

  0005e	b8 02 00 00 00	 mov	 eax, 2

; 43   : 	localAddr.sin_addr.s_addr	= htonl( INADDR_ANY );

  00063	6a 00		 push	 0
  00065	66 89 45 ec	 mov	 WORD PTR _localAddr$[ebp], ax
  00069	ff 15 00 00 00
	00		 call	 DWORD PTR __imp__htonl@4

; 44   : 	localAddr.sin_port			= htons( nBindPort );

  0006f	ff 75 0c	 push	 DWORD PTR _nBindPort$[ebp]
  00072	89 45 f0	 mov	 DWORD PTR _localAddr$[ebp+4], eax
  00075	ff 15 00 00 00
	00		 call	 DWORD PTR __imp__htons@4
  0007b	66 89 45 ee	 mov	 WORD PTR _localAddr$[ebp+2], ax

; 45   : 
; 46   : 	if( ::bind( m_hSocket, (struct sockaddr *) &localAddr, sizeof( localAddr ) ) == SOCKET_ERROR )

  0007f	8d 45 ec	 lea	 eax, DWORD PTR _localAddr$[ebp]
  00082	6a 10		 push	 16			; 00000010H
  00084	50		 push	 eax
  00085	ff 76 10	 push	 DWORD PTR [esi+16]
  00088	ff 15 00 00 00
	00		 call	 DWORD PTR __imp__bind@12
  0008e	83 f8 ff	 cmp	 eax, -1
  00091	75 20		 jne	 SHORT $LN3@Create

; 47   : 	{
; 48   : 		i3Net::GetError( "UDP bind failed.\n" );

  00093	68 00 00 00 00	 push	 OFFSET ??_C@_0BC@HDIOIOLH@UDP?5bind?5failed?4?6@
  00098	e8 00 00 00 00	 call	 ?GetError@i3Net@@YAHPAD@Z ; i3Net::GetError
  0009d	83 c4 04	 add	 esp, 4

; 49   : 		return FALSE;

  000a0	33 c0		 xor	 eax, eax
  000a2	5e		 pop	 esi

; 58   : }

  000a3	8b 4d fc	 mov	 ecx, DWORD PTR __$ArrayPad$[ebp]
  000a6	33 cd		 xor	 ecx, ebp
  000a8	e8 00 00 00 00	 call	 @__security_check_cookie@4
  000ad	8b e5		 mov	 esp, ebp
  000af	5d		 pop	 ebp
  000b0	c2 08 00	 ret	 8
$LN3@Create:

; 50   : 	}
; 51   : 
; 52   : 	// Buffer create
; 53   : 	m_nBufSize		= nBufSize;

  000b3	8b 45 08	 mov	 eax, DWORD PTR _nBufSize$[ebp]

; 54   : 	m_pszReciveBuffer = (char *) i3MemAlloc( m_nBufSize );

  000b6	6a 36		 push	 54			; 00000036H
  000b8	68 00 00 00 00	 push	 OFFSET ??_C@_0GN@DAMBCGJP@E?3?2Proyectos?2JuegosOnlineproyec@
  000bd	6a 10		 push	 16			; 00000010H
  000bf	6a 00		 push	 0
  000c1	50		 push	 eax
  000c2	89 46 24	 mov	 DWORD PTR [esi+36], eax
  000c5	e8 00 00 00 00	 call	 ?AllocTool@i3mem@@YAPAXHHHPBDH@Z ; i3mem::AllocTool
  000ca	83 c4 14	 add	 esp, 20			; 00000014H
  000cd	89 46 28	 mov	 DWORD PTR [esi+40], eax
; File E:\Proyectos\JuegosOnlineproyectos\PB\pbblow\Piercing Blow Remake\i3Server\include\i3Base\i3Memory.h

; 144  : 			::SecureZeroMemory( pDest, sz);

  000d0	b9 04 00 00 00	 mov	 ecx, 4
$LL14@Create:
; File C:\Program Files (x86)\Windows Kits\10\Include\10.0.26100.0\um\winnt.h

; 23429:         *vptr = 0;

  000d5	c6 00 00	 mov	 BYTE PTR [eax], 0

; 23430: 
; 23431: #endif
; 23432: 
; 23433:         vptr++;

  000d8	8d 40 01	 lea	 eax, DWORD PTR [eax+1]

; 23434:         cnt--;

  000db	83 e9 01	 sub	 ecx, 1
  000de	75 f5		 jne	 SHORT $LL14@Create
; File E:\Proyectos\JuegosOnlineproyectos\PB\pbblow\Piercing Blow Remake\i3Server\src\i3Base\i3NetworkUDPSocket.cpp

; 58   : }

  000e0	8d 41 01	 lea	 eax, DWORD PTR [ecx+1]
  000e3	8b 4d fc	 mov	 ecx, DWORD PTR __$ArrayPad$[ebp]
  000e6	33 cd		 xor	 ecx, ebp
  000e8	5e		 pop	 esi
  000e9	e8 00 00 00 00	 call	 @__security_check_cookie@4
  000ee	8b e5		 mov	 esp, ebp
  000f0	5d		 pop	 ebp
  000f1	c2 08 00	 ret	 8
?Create@i3NetworkUDPSocket@@QAEHHG@Z ENDP		; i3NetworkUDPSocket::Create
_TEXT	ENDS
; Function compile flags: /Ogtp
; File E:\Proyectos\JuegosOnlineproyectos\PB\pbblow\Piercing Blow Remake\i3Server\src\i3Base\i3NetworkUDPSocket.cpp
;	COMDAT ??1i3NetworkUDPSocket@@UAE@XZ
_TEXT	SEGMENT
__$EHRec$ = -12						; size = 12
??1i3NetworkUDPSocket@@UAE@XZ PROC			; i3NetworkUDPSocket::~i3NetworkUDPSocket, COMDAT
; _this$ = ecx

; 24   : {

  00000	55		 push	 ebp
  00001	8b ec		 mov	 ebp, esp
  00003	6a ff		 push	 -1
  00005	68 00 00 00 00	 push	 __ehhandler$??1i3NetworkUDPSocket@@UAE@XZ
  0000a	64 a1 00 00 00
	00		 mov	 eax, DWORD PTR fs:0
  00010	50		 push	 eax
  00011	56		 push	 esi
  00012	a1 00 00 00 00	 mov	 eax, DWORD PTR ___security_cookie
  00017	33 c5		 xor	 eax, ebp
  00019	50		 push	 eax
  0001a	8d 45 f4	 lea	 eax, DWORD PTR __$EHRec$[ebp]
  0001d	64 a3 00 00 00
	00		 mov	 DWORD PTR fs:0, eax
  00023	8b f1		 mov	 esi, ecx
  00025	c7 06 00 00 00
	00		 mov	 DWORD PTR [esi], OFFSET ??_7i3NetworkUDPSocket@@6B@

; 25   : 	Destroy();

  0002b	e8 00 00 00 00	 call	 ?Destroy@i3NetworkUDPSocket@@QAEHXZ ; i3NetworkUDPSocket::Destroy

; 26   : }

  00030	8b ce		 mov	 ecx, esi
  00032	e8 00 00 00 00	 call	 ??1i3ElementBase@@UAE@XZ ; i3ElementBase::~i3ElementBase
  00037	8b 4d f4	 mov	 ecx, DWORD PTR __$EHRec$[ebp]
  0003a	64 89 0d 00 00
	00 00		 mov	 DWORD PTR fs:0, ecx
  00041	59		 pop	 ecx
  00042	5e		 pop	 esi
  00043	8b e5		 mov	 esp, ebp
  00045	5d		 pop	 ebp
  00046	c3		 ret	 0
  00047	cc		 int	 3
  00048	cc		 int	 3
  00049	cc		 int	 3
  0004a	cc		 int	 3
  0004b	cc		 int	 3
_TEXT	ENDS
;	COMDAT text$x
text$x	SEGMENT
__ehhandler$??1i3NetworkUDPSocket@@UAE@XZ:
  00000	90		 npad	 1
  00001	90		 npad	 1
  00002	8b 54 24 08	 mov	 edx, DWORD PTR [esp+8]
  00006	8d 42 0c	 lea	 eax, DWORD PTR [edx+12]
  00009	8b 4a f8	 mov	 ecx, DWORD PTR [edx-8]
  0000c	33 c8		 xor	 ecx, eax
  0000e	e8 00 00 00 00	 call	 @__security_check_cookie@4
  00013	b8 00 00 00 00	 mov	 eax, OFFSET __ehfuncinfo$??1i3NetworkUDPSocket@@UAE@XZ
  00018	e9 00 00 00 00	 jmp	 ___CxxFrameHandler3
text$x	ENDS
??1i3NetworkUDPSocket@@UAE@XZ ENDP			; i3NetworkUDPSocket::~i3NetworkUDPSocket
; Function compile flags: /Ogtp
; File E:\Proyectos\JuegosOnlineproyectos\PB\pbblow\Piercing Blow Remake\i3Server\src\i3Base\i3NetworkUDPSocket.cpp
; File E:\Proyectos\JuegosOnlineproyectos\PB\pbblow\Piercing Blow Remake\i3Server\include\i3Base\i3Memory.h
; File E:\Proyectos\JuegosOnlineproyectos\PB\pbblow\Piercing Blow Remake\i3Server\src\i3Base\i3NetworkUDPSocket.cpp
; File C:\Program Files (x86)\Windows Kits\10\Include\10.0.26100.0\um\winnt.h
; File E:\Proyectos\JuegosOnlineproyectos\PB\pbblow\Piercing Blow Remake\i3Server\src\i3Base\i3NetworkUDPSocket.cpp
;	COMDAT ??0i3NetworkUDPSocket@@QAE@XZ
_TEXT	SEGMENT
_this$ = -4						; size = 4
??0i3NetworkUDPSocket@@QAE@XZ PROC			; i3NetworkUDPSocket::i3NetworkUDPSocket, COMDAT
; _this$ = ecx

; 8    : {

  00000	55		 push	 ebp
  00001	8b ec		 mov	 ebp, esp
  00003	51		 push	 ecx
  00004	56		 push	 esi
  00005	8b f1		 mov	 esi, ecx
  00007	89 75 fc	 mov	 DWORD PTR _this$[ebp], esi
  0000a	e8 00 00 00 00	 call	 ??0i3ElementBase@@QAE@XZ ; i3ElementBase::i3ElementBase
  0000f	c7 06 00 00 00
	00		 mov	 DWORD PTR [esi], OFFSET ??_7i3NetworkUDPSocket@@6B@

; 11   : 	i3mem::FillZero( &m_RecvAddr, sizeof( sockaddr ) );

  00015	8d 46 14	 lea	 eax, DWORD PTR [esi+20]
  00018	c7 46 10 ff ff
	ff ff		 mov	 DWORD PTR [esi+16], -1
; File E:\Proyectos\JuegosOnlineproyectos\PB\pbblow\Piercing Blow Remake\i3Server\include\i3Base\i3Memory.h

; 144  : 			::SecureZeroMemory( pDest, sz);

  0001f	ba 10 00 00 00	 mov	 edx, 16			; 00000010H
; File E:\Proyectos\JuegosOnlineproyectos\PB\pbblow\Piercing Blow Remake\i3Server\src\i3Base\i3NetworkUDPSocket.cpp

; 10   : 	m_pszReciveBuffer	= NULL;

  00024	c7 46 28 00 00
	00 00		 mov	 DWORD PTR [esi+40], 0
  0002b	eb 03 8d 49 00	 npad	 5
$LL7@i3NetworkU:
; File C:\Program Files (x86)\Windows Kits\10\Include\10.0.26100.0\um\winnt.h

; 23429:         *vptr = 0;

  00030	c6 00 00	 mov	 BYTE PTR [eax], 0

; 23430: 
; 23431: #endif
; 23432: 
; 23433:         vptr++;

  00033	8d 40 01	 lea	 eax, DWORD PTR [eax+1]

; 23434:         cnt--;

  00036	83 ea 01	 sub	 edx, 1
  00039	75 f5		 jne	 SHORT $LL7@i3NetworkU
; File E:\Proyectos\JuegosOnlineproyectos\PB\pbblow\Piercing Blow Remake\i3Server\src\i3Base\i3NetworkUDPSocket.cpp

; 21   : }

  0003b	89 56 24	 mov	 DWORD PTR [esi+36], edx
  0003e	8b c6		 mov	 eax, esi
  00040	5e		 pop	 esi
  00041	8b e5		 mov	 esp, ebp
  00043	5d		 pop	 ebp
  00044	c3		 ret	 0
??0i3NetworkUDPSocket@@QAE@XZ ENDP			; i3NetworkUDPSocket::i3NetworkUDPSocket
_TEXT	ENDS
; Function compile flags: /Ogtp
; File E:\Proyectos\JuegosOnlineproyectos\PB\pbblow\Piercing Blow Remake\i3Server\src\i3Base\i3NetworkUDPSocket.cpp
;	COMDAT ?_BindObjectRefByType@i3NetworkUDPSocket@@SAPAV1@PAXW4I3_CLASSMETA_TYPE@@@Z
_TEXT	SEGMENT
_pBuf$ = 8						; size = 4
_type$ = 12						; size = 4
?_BindObjectRefByType@i3NetworkUDPSocket@@SAPAV1@PAXW4I3_CLASSMETA_TYPE@@@Z PROC ; i3NetworkUDPSocket::_BindObjectRefByType, COMDAT

; 5    : I3_CLASS_INSTANCE( i3NetworkUDPSocket, i3ElementBase );

  00000	55		 push	 ebp
  00001	8b ec		 mov	 ebp, esp
  00003	8b 0d 00 00 00
	00		 mov	 ecx, DWORD PTR ?s_pClassMetai3NetworkUDPSocket@i3NetworkUDPSocket@@2PAVi3ClassMeta@@A ; i3NetworkUDPSocket::s_pClassMetai3NetworkUDPSocket
  00009	ff 75 0c	 push	 DWORD PTR _type$[ebp]
  0000c	ff 75 08	 push	 DWORD PTR _pBuf$[ebp]
  0000f	8b 01		 mov	 eax, DWORD PTR [ecx]
  00011	ff 50 08	 call	 DWORD PTR [eax+8]
  00014	5d		 pop	 ebp
  00015	c3		 ret	 0
?_BindObjectRefByType@i3NetworkUDPSocket@@SAPAV1@PAXW4I3_CLASSMETA_TYPE@@@Z ENDP ; i3NetworkUDPSocket::_BindObjectRefByType
_TEXT	ENDS
; Function compile flags: /Ogtp
; File E:\Proyectos\JuegosOnlineproyectos\PB\pbblow\Piercing Blow Remake\i3Server\src\i3Base\i3NetworkUDPSocket.cpp
; File E:\Proyectos\JuegosOnlineproyectos\PB\pbblow\Piercing Blow Remake\i3Server\include\i3Base\i3ElementBase.h
; File E:\Proyectos\JuegosOnlineproyectos\PB\pbblow\Piercing Blow Remake\i3Server\src\i3Base\i3NetworkUDPSocket.cpp
;	COMDAT ?_BindObjectByType@i3NetworkUDPSocket@@SAPAV1@PAXW4I3_CLASSMETA_TYPE@@@Z
_TEXT	SEGMENT
_pBuf$ = 8						; size = 4
_type$ = 12						; size = 4
?_BindObjectByType@i3NetworkUDPSocket@@SAPAV1@PAXW4I3_CLASSMETA_TYPE@@@Z PROC ; i3NetworkUDPSocket::_BindObjectByType, COMDAT

; 5    : I3_CLASS_INSTANCE( i3NetworkUDPSocket, i3ElementBase );

  00000	55		 push	 ebp
  00001	8b ec		 mov	 ebp, esp
  00003	8b 0d 00 00 00
	00		 mov	 ecx, DWORD PTR ?s_pClassMetai3NetworkUDPSocket@i3NetworkUDPSocket@@2PAVi3ClassMeta@@A ; i3NetworkUDPSocket::s_pClassMetai3NetworkUDPSocket
  00009	ff 75 0c	 push	 DWORD PTR _type$[ebp]
  0000c	ff 75 08	 push	 DWORD PTR _pBuf$[ebp]
  0000f	8b 01		 mov	 eax, DWORD PTR [ecx]
  00011	ff 50 08	 call	 DWORD PTR [eax+8]
; File E:\Proyectos\JuegosOnlineproyectos\PB\pbblow\Piercing Blow Remake\i3Server\include\i3Base\i3ElementBase.h

; 392  : 		m_RefCount++;

  00014	ff 40 04	 inc	 DWORD PTR [eax+4]
; File E:\Proyectos\JuegosOnlineproyectos\PB\pbblow\Piercing Blow Remake\i3Server\src\i3Base\i3NetworkUDPSocket.cpp

; 5    : I3_CLASS_INSTANCE( i3NetworkUDPSocket, i3ElementBase );

  00017	5d		 pop	 ebp
  00018	c3		 ret	 0
?_BindObjectByType@i3NetworkUDPSocket@@SAPAV1@PAXW4I3_CLASSMETA_TYPE@@@Z ENDP ; i3NetworkUDPSocket::_BindObjectByType
_TEXT	ENDS
; Function compile flags: /Ogtp
; File E:\Proyectos\JuegosOnlineproyectos\PB\pbblow\Piercing Blow Remake\i3Server\src\i3Base\i3NetworkUDPSocket.cpp
;	COMDAT ?_NewObjectRefByType@i3NetworkUDPSocket@@SAPAV1@W4I3_CLASSMETA_TYPE@@@Z
_TEXT	SEGMENT
_type$ = 8						; size = 4
?_NewObjectRefByType@i3NetworkUDPSocket@@SAPAV1@W4I3_CLASSMETA_TYPE@@@Z PROC ; i3NetworkUDPSocket::_NewObjectRefByType, COMDAT

; 5    : I3_CLASS_INSTANCE( i3NetworkUDPSocket, i3ElementBase );

  00000	55		 push	 ebp
  00001	8b ec		 mov	 ebp, esp
  00003	8b 0d 00 00 00
	00		 mov	 ecx, DWORD PTR ?s_pClassMetai3NetworkUDPSocket@i3NetworkUDPSocket@@2PAVi3ClassMeta@@A ; i3NetworkUDPSocket::s_pClassMetai3NetworkUDPSocket
  00009	ff 75 08	 push	 DWORD PTR _type$[ebp]
  0000c	8b 01		 mov	 eax, DWORD PTR [ecx]
  0000e	ff 50 04	 call	 DWORD PTR [eax+4]
  00011	5d		 pop	 ebp
  00012	c3		 ret	 0
?_NewObjectRefByType@i3NetworkUDPSocket@@SAPAV1@W4I3_CLASSMETA_TYPE@@@Z ENDP ; i3NetworkUDPSocket::_NewObjectRefByType
_TEXT	ENDS
; Function compile flags: /Ogtp
; File E:\Proyectos\JuegosOnlineproyectos\PB\pbblow\Piercing Blow Remake\i3Server\src\i3Base\i3NetworkUDPSocket.cpp
; File E:\Proyectos\JuegosOnlineproyectos\PB\pbblow\Piercing Blow Remake\i3Server\include\i3Base\i3ElementBase.h
; File E:\Proyectos\JuegosOnlineproyectos\PB\pbblow\Piercing Blow Remake\i3Server\src\i3Base\i3NetworkUDPSocket.cpp
;	COMDAT ?_NewObjectByType@i3NetworkUDPSocket@@SAPAV1@W4I3_CLASSMETA_TYPE@@@Z
_TEXT	SEGMENT
_type$ = 8						; size = 4
?_NewObjectByType@i3NetworkUDPSocket@@SAPAV1@W4I3_CLASSMETA_TYPE@@@Z PROC ; i3NetworkUDPSocket::_NewObjectByType, COMDAT

; 5    : I3_CLASS_INSTANCE( i3NetworkUDPSocket, i3ElementBase );

  00000	55		 push	 ebp
  00001	8b ec		 mov	 ebp, esp
  00003	8b 0d 00 00 00
	00		 mov	 ecx, DWORD PTR ?s_pClassMetai3NetworkUDPSocket@i3NetworkUDPSocket@@2PAVi3ClassMeta@@A ; i3NetworkUDPSocket::s_pClassMetai3NetworkUDPSocket
  00009	ff 75 08	 push	 DWORD PTR _type$[ebp]
  0000c	8b 01		 mov	 eax, DWORD PTR [ecx]
  0000e	ff 50 04	 call	 DWORD PTR [eax+4]
; File E:\Proyectos\JuegosOnlineproyectos\PB\pbblow\Piercing Blow Remake\i3Server\include\i3Base\i3ElementBase.h

; 392  : 		m_RefCount++;

  00011	ff 40 04	 inc	 DWORD PTR [eax+4]
; File E:\Proyectos\JuegosOnlineproyectos\PB\pbblow\Piercing Blow Remake\i3Server\src\i3Base\i3NetworkUDPSocket.cpp

; 5    : I3_CLASS_INSTANCE( i3NetworkUDPSocket, i3ElementBase );

  00014	5d		 pop	 ebp
  00015	c3		 ret	 0
?_NewObjectByType@i3NetworkUDPSocket@@SAPAV1@W4I3_CLASSMETA_TYPE@@@Z ENDP ; i3NetworkUDPSocket::_NewObjectByType
_TEXT	ENDS
; Function compile flags: /Ogtp
; File E:\Proyectos\JuegosOnlineproyectos\PB\pbblow\Piercing Blow Remake\i3Server\src\i3Base\i3NetworkUDPSocket.cpp
;	COMDAT ?_BindObjectRef@i3NetworkUDPSocket@@SAPAV1@PAX@Z
_TEXT	SEGMENT
_pBuf$ = 8						; size = 4
?_BindObjectRef@i3NetworkUDPSocket@@SAPAV1@PAX@Z PROC	; i3NetworkUDPSocket::_BindObjectRef, COMDAT

; 5    : I3_CLASS_INSTANCE( i3NetworkUDPSocket, i3ElementBase );

  00000	55		 push	 ebp
  00001	8b ec		 mov	 ebp, esp
  00003	8b 0d 00 00 00
	00		 mov	 ecx, DWORD PTR ?s_pClassMetai3NetworkUDPSocket@i3NetworkUDPSocket@@2PAVi3ClassMeta@@A ; i3NetworkUDPSocket::s_pClassMetai3NetworkUDPSocket
  00009	6a 00		 push	 0
  0000b	ff 75 08	 push	 DWORD PTR _pBuf$[ebp]
  0000e	8b 01		 mov	 eax, DWORD PTR [ecx]
  00010	ff 50 08	 call	 DWORD PTR [eax+8]
  00013	5d		 pop	 ebp
  00014	c3		 ret	 0
?_BindObjectRef@i3NetworkUDPSocket@@SAPAV1@PAX@Z ENDP	; i3NetworkUDPSocket::_BindObjectRef
_TEXT	ENDS
; Function compile flags: /Ogtp
; File E:\Proyectos\JuegosOnlineproyectos\PB\pbblow\Piercing Blow Remake\i3Server\src\i3Base\i3NetworkUDPSocket.cpp
; File E:\Proyectos\JuegosOnlineproyectos\PB\pbblow\Piercing Blow Remake\i3Server\include\i3Base\i3ElementBase.h
; File E:\Proyectos\JuegosOnlineproyectos\PB\pbblow\Piercing Blow Remake\i3Server\src\i3Base\i3NetworkUDPSocket.cpp
;	COMDAT ?_BindObject@i3NetworkUDPSocket@@SAPAV1@PAX@Z
_TEXT	SEGMENT
_pBuf$ = 8						; size = 4
?_BindObject@i3NetworkUDPSocket@@SAPAV1@PAX@Z PROC	; i3NetworkUDPSocket::_BindObject, COMDAT

; 5    : I3_CLASS_INSTANCE( i3NetworkUDPSocket, i3ElementBase );

  00000	55		 push	 ebp
  00001	8b ec		 mov	 ebp, esp
  00003	8b 0d 00 00 00
	00		 mov	 ecx, DWORD PTR ?s_pClassMetai3NetworkUDPSocket@i3NetworkUDPSocket@@2PAVi3ClassMeta@@A ; i3NetworkUDPSocket::s_pClassMetai3NetworkUDPSocket
  00009	6a 00		 push	 0
  0000b	ff 75 08	 push	 DWORD PTR _pBuf$[ebp]
  0000e	8b 01		 mov	 eax, DWORD PTR [ecx]
  00010	ff 50 08	 call	 DWORD PTR [eax+8]
; File E:\Proyectos\JuegosOnlineproyectos\PB\pbblow\Piercing Blow Remake\i3Server\include\i3Base\i3ElementBase.h

; 392  : 		m_RefCount++;

  00013	ff 40 04	 inc	 DWORD PTR [eax+4]
; File E:\Proyectos\JuegosOnlineproyectos\PB\pbblow\Piercing Blow Remake\i3Server\src\i3Base\i3NetworkUDPSocket.cpp

; 5    : I3_CLASS_INSTANCE( i3NetworkUDPSocket, i3ElementBase );

  00016	5d		 pop	 ebp
  00017	c3		 ret	 0
?_BindObject@i3NetworkUDPSocket@@SAPAV1@PAX@Z ENDP	; i3NetworkUDPSocket::_BindObject
_TEXT	ENDS
; Function compile flags: /Ogtp
; File E:\Proyectos\JuegosOnlineproyectos\PB\pbblow\Piercing Blow Remake\i3Server\src\i3Base\i3NetworkUDPSocket.cpp
;	COMDAT ?_NewObjectRef@i3NetworkUDPSocket@@SAPAV1@XZ
_TEXT	SEGMENT
?_NewObjectRef@i3NetworkUDPSocket@@SAPAV1@XZ PROC	; i3NetworkUDPSocket::_NewObjectRef, COMDAT

; 5    : I3_CLASS_INSTANCE( i3NetworkUDPSocket, i3ElementBase );

  00000	8b 0d 00 00 00
	00		 mov	 ecx, DWORD PTR ?s_pClassMetai3NetworkUDPSocket@i3NetworkUDPSocket@@2PAVi3ClassMeta@@A ; i3NetworkUDPSocket::s_pClassMetai3NetworkUDPSocket
  00006	6a 00		 push	 0
  00008	8b 01		 mov	 eax, DWORD PTR [ecx]
  0000a	ff 50 04	 call	 DWORD PTR [eax+4]
  0000d	c3		 ret	 0
?_NewObjectRef@i3NetworkUDPSocket@@SAPAV1@XZ ENDP	; i3NetworkUDPSocket::_NewObjectRef
_TEXT	ENDS
; Function compile flags: /Ogtp
; File E:\Proyectos\JuegosOnlineproyectos\PB\pbblow\Piercing Blow Remake\i3Server\src\i3Base\i3NetworkUDPSocket.cpp
; File E:\Proyectos\JuegosOnlineproyectos\PB\pbblow\Piercing Blow Remake\i3Server\include\i3Base\i3ElementBase.h
; File E:\Proyectos\JuegosOnlineproyectos\PB\pbblow\Piercing Blow Remake\i3Server\src\i3Base\i3NetworkUDPSocket.cpp
;	COMDAT ?_NewObject@i3NetworkUDPSocket@@SAPAV1@XZ
_TEXT	SEGMENT
?_NewObject@i3NetworkUDPSocket@@SAPAV1@XZ PROC		; i3NetworkUDPSocket::_NewObject, COMDAT

; 5    : I3_CLASS_INSTANCE( i3NetworkUDPSocket, i3ElementBase );

  00000	8b 0d 00 00 00
	00		 mov	 ecx, DWORD PTR ?s_pClassMetai3NetworkUDPSocket@i3NetworkUDPSocket@@2PAVi3ClassMeta@@A ; i3NetworkUDPSocket::s_pClassMetai3NetworkUDPSocket
  00006	6a 00		 push	 0
  00008	8b 01		 mov	 eax, DWORD PTR [ecx]
  0000a	ff 50 04	 call	 DWORD PTR [eax+4]
; File E:\Proyectos\JuegosOnlineproyectos\PB\pbblow\Piercing Blow Remake\i3Server\include\i3Base\i3ElementBase.h

; 392  : 		m_RefCount++;

  0000d	ff 40 04	 inc	 DWORD PTR [eax+4]
; File E:\Proyectos\JuegosOnlineproyectos\PB\pbblow\Piercing Blow Remake\i3Server\src\i3Base\i3NetworkUDPSocket.cpp

; 5    : I3_CLASS_INSTANCE( i3NetworkUDPSocket, i3ElementBase );

  00010	c3		 ret	 0
?_NewObject@i3NetworkUDPSocket@@SAPAV1@XZ ENDP		; i3NetworkUDPSocket::_NewObject
_TEXT	ENDS
; Function compile flags: /Ogtp
; File E:\Proyectos\JuegosOnlineproyectos\PB\pbblow\Piercing Blow Remake\i3Server\src\i3Base\i3NetworkUDPSocket.cpp
;	COMDAT ?SetGhostClass@i3NetworkUDPSocket@@SAXPAVi3ClassMeta@@@Z
_TEXT	SEGMENT
_pMeta$ = 8						; size = 4
?SetGhostClass@i3NetworkUDPSocket@@SAXPAVi3ClassMeta@@@Z PROC ; i3NetworkUDPSocket::SetGhostClass, COMDAT

; 5    : I3_CLASS_INSTANCE( i3NetworkUDPSocket, i3ElementBase );

  00000	55		 push	 ebp
  00001	8b ec		 mov	 ebp, esp
  00003	ff 75 08	 push	 DWORD PTR _pMeta$[ebp]
  00006	8b 0d 00 00 00
	00		 mov	 ecx, DWORD PTR ?s_pClassMetai3NetworkUDPSocket@i3NetworkUDPSocket@@2PAVi3ClassMeta@@A ; i3NetworkUDPSocket::s_pClassMetai3NetworkUDPSocket
  0000c	e8 00 00 00 00	 call	 ?SetGhostClass@i3ClassMeta@@QAEXPAV1@@Z ; i3ClassMeta::SetGhostClass
  00011	5d		 pop	 ebp
  00012	c3		 ret	 0
?SetGhostClass@i3NetworkUDPSocket@@SAXPAVi3ClassMeta@@@Z ENDP ; i3NetworkUDPSocket::SetGhostClass
_TEXT	ENDS
; Function compile flags: /Ogtp
; File E:\Proyectos\JuegosOnlineproyectos\PB\pbblow\Piercing Blow Remake\i3Server\src\i3Base\i3NetworkUDPSocket.cpp
;	COMDAT ?SetConcreteClass@i3NetworkUDPSocket@@SAXPAVi3ClassMeta@@@Z
_TEXT	SEGMENT
_pMeta$ = 8						; size = 4
?SetConcreteClass@i3NetworkUDPSocket@@SAXPAVi3ClassMeta@@@Z PROC ; i3NetworkUDPSocket::SetConcreteClass, COMDAT

; 5    : I3_CLASS_INSTANCE( i3NetworkUDPSocket, i3ElementBase );

  00000	55		 push	 ebp
  00001	8b ec		 mov	 ebp, esp
  00003	ff 75 08	 push	 DWORD PTR _pMeta$[ebp]
  00006	8b 0d 00 00 00
	00		 mov	 ecx, DWORD PTR ?s_pClassMetai3NetworkUDPSocket@i3NetworkUDPSocket@@2PAVi3ClassMeta@@A ; i3NetworkUDPSocket::s_pClassMetai3NetworkUDPSocket
  0000c	e8 00 00 00 00	 call	 ?SetConcreteClass@i3ClassMeta@@QAEXPAV1@@Z ; i3ClassMeta::SetConcreteClass
  00011	5d		 pop	 ebp
  00012	c3		 ret	 0
?SetConcreteClass@i3NetworkUDPSocket@@SAXPAVi3ClassMeta@@@Z ENDP ; i3NetworkUDPSocket::SetConcreteClass
_TEXT	ENDS
; Function compile flags: /Ogtp
; File E:\Proyectos\JuegosOnlineproyectos\PB\pbblow\Piercing Blow Remake\i3Server\src\i3Base\i3NetworkUDPSocket.cpp
;	COMDAT ?RegisterMeta@i3NetworkUDPSocket@@SAXXZ
_TEXT	SEGMENT
?RegisterMeta@i3NetworkUDPSocket@@SAXXZ PROC		; i3NetworkUDPSocket::RegisterMeta, COMDAT

; 5    : I3_CLASS_INSTANCE( i3NetworkUDPSocket, i3ElementBase );

  00000	8b 0d 00 00 00
	00		 mov	 ecx, DWORD PTR ?s_pClassMetai3NetworkUDPSocket@i3NetworkUDPSocket@@2PAVi3ClassMeta@@A ; i3NetworkUDPSocket::s_pClassMetai3NetworkUDPSocket
  00006	e9 00 00 00 00	 jmp	 ?Register@i3ClassMeta@@QAEXXZ ; i3ClassMeta::Register
?RegisterMeta@i3NetworkUDPSocket@@SAXXZ ENDP		; i3NetworkUDPSocket::RegisterMeta
_TEXT	ENDS
; Function compile flags: /Ogtp
; File E:\Proyectos\JuegosOnlineproyectos\PB\pbblow\Piercing Blow Remake\i3Server\src\i3Base\i3NetworkUDPSocket.cpp
;	COMDAT ?GetMeta@i3NetworkUDPSocket@@UAEPAVi3ClassMeta@@XZ
_TEXT	SEGMENT
?GetMeta@i3NetworkUDPSocket@@UAEPAVi3ClassMeta@@XZ PROC	; i3NetworkUDPSocket::GetMeta, COMDAT
; _this$ = ecx

; 5    : I3_CLASS_INSTANCE( i3NetworkUDPSocket, i3ElementBase );

  00000	a1 00 00 00 00	 mov	 eax, DWORD PTR ?s_pClassMetai3NetworkUDPSocket@i3NetworkUDPSocket@@2PAVi3ClassMeta@@A ; i3NetworkUDPSocket::s_pClassMetai3NetworkUDPSocket
  00005	c3		 ret	 0
?GetMeta@i3NetworkUDPSocket@@UAEPAVi3ClassMeta@@XZ ENDP	; i3NetworkUDPSocket::GetMeta
_TEXT	ENDS
; Function compile flags: /Ogtp
; File E:\Proyectos\JuegosOnlineproyectos\PB\pbblow\Piercing Blow Remake\i3Server\include\i3Base\i3NetworkUDPSocket.h
;	COMDAT ?GetClassMeta@i3NetworkUDPSocket@@SAPAVi3ClassMeta@@XZ
_TEXT	SEGMENT
?GetClassMeta@i3NetworkUDPSocket@@SAPAVi3ClassMeta@@XZ PROC ; i3NetworkUDPSocket::GetClassMeta, COMDAT

; 11   : 	I3_CLASS_DEFINE( i3NetworkUDPSocket );

  00000	a1 00 00 00 00	 mov	 eax, DWORD PTR ?s_pClassMetai3NetworkUDPSocket@i3NetworkUDPSocket@@2PAVi3ClassMeta@@A ; i3NetworkUDPSocket::s_pClassMetai3NetworkUDPSocket
  00005	c3		 ret	 0
?GetClassMeta@i3NetworkUDPSocket@@SAPAVi3ClassMeta@@XZ ENDP ; i3NetworkUDPSocket::GetClassMeta
_TEXT	ENDS
; Function compile flags: /Ogtp
;	COMDAT ??_Ei3MemoryPool@@UAEPAXI@Z
_TEXT	SEGMENT
__$EHRec$ = -12						; size = 12
___flags$ = 8						; size = 4
??_Ei3MemoryPool@@UAEPAXI@Z PROC			; i3MemoryPool::`vector deleting destructor', COMDAT
; _this$ = ecx
  00000	55		 push	 ebp
  00001	8b ec		 mov	 ebp, esp
  00003	6a ff		 push	 -1
  00005	68 00 00 00 00	 push	 __ehhandler$??_Ei3MemoryPool@@UAEPAXI@Z
  0000a	64 a1 00 00 00
	00		 mov	 eax, DWORD PTR fs:0
  00010	50		 push	 eax
  00011	53		 push	 ebx
  00012	56		 push	 esi
  00013	57		 push	 edi
  00014	a1 00 00 00 00	 mov	 eax, DWORD PTR ___security_cookie
  00019	33 c5		 xor	 eax, ebp
  0001b	50		 push	 eax
  0001c	8d 45 f4	 lea	 eax, DWORD PTR __$EHRec$[ebp]
  0001f	64 a3 00 00 00
	00		 mov	 DWORD PTR fs:0, eax
  00025	8b f1		 mov	 esi, ecx
  00027	8b 45 08	 mov	 eax, DWORD PTR ___flags$[ebp]
  0002a	8b f8		 mov	 edi, eax
  0002c	83 e7 01	 and	 edi, 1
  0002f	a8 02		 test	 al, 2
  00031	74 40		 je	 SHORT $LN2@vector
  00033	68 00 00 00 00	 push	 OFFSET ??1i3MemoryPool@@UAE@XZ ; i3MemoryPool::~i3MemoryPool
  00038	ff 76 fc	 push	 DWORD PTR [esi-4]
  0003b	8d 5e fc	 lea	 ebx, DWORD PTR [esi-4]
  0003e	6a 04		 push	 4
  00040	56		 push	 esi
  00041	e8 00 00 00 00	 call	 ??_M@YGXPAXIIP6EX0@Z@Z
  00046	85 ff		 test	 edi, edi
  00048	74 13		 je	 SHORT $LN3@vector
  0004a	8b 0b		 mov	 ecx, DWORD PTR [ebx]
  0004c	8d 0c 8d 04 00
	00 00		 lea	 ecx, DWORD PTR [ecx*4+4]
  00053	51		 push	 ecx
  00054	53		 push	 ebx
  00055	e8 00 00 00 00	 call	 ??_V@YAXPAXI@Z		; operator delete[]
  0005a	83 c4 08	 add	 esp, 8
$LN3@vector:
  0005d	8b c3		 mov	 eax, ebx
  0005f	8b 4d f4	 mov	 ecx, DWORD PTR __$EHRec$[ebp]
  00062	64 89 0d 00 00
	00 00		 mov	 DWORD PTR fs:0, ecx
  00069	59		 pop	 ecx
  0006a	5f		 pop	 edi
  0006b	5e		 pop	 esi
  0006c	5b		 pop	 ebx
  0006d	8b e5		 mov	 esp, ebp
  0006f	5d		 pop	 ebp
  00070	c2 04 00	 ret	 4
$LN2@vector:
  00073	e8 00 00 00 00	 call	 ??1i3MemoryPool@@UAE@XZ	; i3MemoryPool::~i3MemoryPool
  00078	85 ff		 test	 edi, edi
  0007a	74 0b		 je	 SHORT $LN4@vector
  0007c	6a 04		 push	 4
  0007e	56		 push	 esi
  0007f	e8 00 00 00 00	 call	 ??3@YAXPAXI@Z		; operator delete
  00084	83 c4 08	 add	 esp, 8
$LN4@vector:
  00087	8b c6		 mov	 eax, esi
  00089	8b 4d f4	 mov	 ecx, DWORD PTR __$EHRec$[ebp]
  0008c	64 89 0d 00 00
	00 00		 mov	 DWORD PTR fs:0, ecx
  00093	59		 pop	 ecx
  00094	5f		 pop	 edi
  00095	5e		 pop	 esi
  00096	5b		 pop	 ebx
  00097	8b e5		 mov	 esp, ebp
  00099	5d		 pop	 ebp
  0009a	c2 04 00	 ret	 4
  0009d	cc		 int	 3
  0009e	cc		 int	 3
  0009f	cc		 int	 3
  000a0	cc		 int	 3
  000a1	cc		 int	 3
_TEXT	ENDS
;	COMDAT text$x
text$x	SEGMENT
__ehhandler$??_Ei3MemoryPool@@UAEPAXI@Z:
  00000	90		 npad	 1
  00001	90		 npad	 1
  00002	8b 54 24 08	 mov	 edx, DWORD PTR [esp+8]
  00006	8d 42 0c	 lea	 eax, DWORD PTR [edx+12]
  00009	8b 4a f0	 mov	 ecx, DWORD PTR [edx-16]
  0000c	33 c8		 xor	 ecx, eax
  0000e	e8 00 00 00 00	 call	 @__security_check_cookie@4
  00013	b8 00 00 00 00	 mov	 eax, OFFSET __ehfuncinfo$??_Ei3MemoryPool@@UAEPAXI@Z
  00018	e9 00 00 00 00	 jmp	 ___CxxFrameHandler3
text$x	ENDS
??_Ei3MemoryPool@@UAEPAXI@Z ENDP			; i3MemoryPool::`vector deleting destructor'
; Function compile flags: /Ogtp
;	COMDAT ??_Gi3MemoryPool@@UAEPAXI@Z
_TEXT	SEGMENT
___flags$ = 8						; size = 4
??_Gi3MemoryPool@@UAEPAXI@Z PROC			; i3MemoryPool::`scalar deleting destructor', COMDAT
; _this$ = ecx
  00000	55		 push	 ebp
  00001	8b ec		 mov	 ebp, esp
  00003	56		 push	 esi
  00004	8b f1		 mov	 esi, ecx
  00006	e8 00 00 00 00	 call	 ??1i3MemoryPool@@UAE@XZ	; i3MemoryPool::~i3MemoryPool
  0000b	f6 45 08 01	 test	 BYTE PTR ___flags$[ebp], 1
  0000f	74 0b		 je	 SHORT $LN5@scalar
  00011	6a 04		 push	 4
  00013	56		 push	 esi
  00014	e8 00 00 00 00	 call	 ??3@YAXPAXI@Z		; operator delete
  00019	83 c4 08	 add	 esp, 8
$LN5@scalar:
  0001c	8b c6		 mov	 eax, esi
  0001e	5e		 pop	 esi
  0001f	5d		 pop	 ebp
  00020	c2 04 00	 ret	 4
??_Gi3MemoryPool@@UAEPAXI@Z ENDP			; i3MemoryPool::`scalar deleting destructor'
_TEXT	ENDS
; Function compile flags: /Ogtp
;	COMDAT ??4i3MemoryPool@@QAEAAV0@ABV0@@Z
_TEXT	SEGMENT
___that$ = 8						; size = 4
??4i3MemoryPool@@QAEAAV0@ABV0@@Z PROC			; i3MemoryPool::operator=, COMDAT
; _this$ = ecx
  00000	8b c1		 mov	 eax, ecx
  00002	c2 04 00	 ret	 4
??4i3MemoryPool@@QAEAAV0@ABV0@@Z ENDP			; i3MemoryPool::operator=
_TEXT	ENDS
; Function compile flags: /Ogtp
;	COMDAT ??0i3MemoryPool@@QAE@ABV0@@Z
_TEXT	SEGMENT
___that$ = 8						; size = 4
??0i3MemoryPool@@QAE@ABV0@@Z PROC			; i3MemoryPool::i3MemoryPool, COMDAT
; _this$ = ecx
  00000	c7 01 00 00 00
	00		 mov	 DWORD PTR [ecx], OFFSET ??_7i3MemoryPool@@6B@
  00006	8b c1		 mov	 eax, ecx
  00008	c2 04 00	 ret	 4
??0i3MemoryPool@@QAE@ABV0@@Z ENDP			; i3MemoryPool::i3MemoryPool
_TEXT	ENDS
; Function compile flags: /Ogtp
; File E:\Proyectos\JuegosOnlineproyectos\PB\pbblow\Piercing Blow Remake\i3Server\src\i3Base\i3NetworkUDPSocket.cpp
;	COMDAT ??_Ei3ElementBase@@UAEPAXI@Z
_TEXT	SEGMENT
__$EHRec$ = -12						; size = 12
___flags$ = 8						; size = 4
??_Ei3ElementBase@@UAEPAXI@Z PROC			; i3ElementBase::`vector deleting destructor', COMDAT
; _this$ = ecx
  00000	55		 push	 ebp
  00001	8b ec		 mov	 ebp, esp
  00003	6a ff		 push	 -1
  00005	68 00 00 00 00	 push	 __ehhandler$??_Ei3ElementBase@@UAEPAXI@Z
  0000a	64 a1 00 00 00
	00		 mov	 eax, DWORD PTR fs:0
  00010	50		 push	 eax
  00011	53		 push	 ebx
  00012	56		 push	 esi
  00013	57		 push	 edi
  00014	a1 00 00 00 00	 mov	 eax, DWORD PTR ___security_cookie
  00019	33 c5		 xor	 eax, ebp
  0001b	50		 push	 eax
  0001c	8d 45 f4	 lea	 eax, DWORD PTR __$EHRec$[ebp]
  0001f	64 a3 00 00 00
	00		 mov	 DWORD PTR fs:0, eax
  00025	8b f1		 mov	 esi, ecx
  00027	8b 5d 08	 mov	 ebx, DWORD PTR ___flags$[ebp]
  0002a	8b fb		 mov	 edi, ebx
  0002c	83 e7 01	 and	 edi, 1
  0002f	f6 c3 02	 test	 bl, 2
  00032	74 3f		 je	 SHORT $LN2@vector
  00034	68 00 00 00 00	 push	 OFFSET ??1i3ElementBase@@UAE@XZ ; i3ElementBase::~i3ElementBase
  00039	ff 76 fc	 push	 DWORD PTR [esi-4]
  0003c	8d 5e fc	 lea	 ebx, DWORD PTR [esi-4]
  0003f	6a 10		 push	 16			; 00000010H
  00041	56		 push	 esi
  00042	e8 00 00 00 00	 call	 ??_M@YGXPAXIIP6EX0@Z@Z
  00047	85 ff		 test	 edi, edi
  00049	74 12		 je	 SHORT $LN3@vector
  0004b	8b 0b		 mov	 ecx, DWORD PTR [ebx]
  0004d	c1 e1 04	 shl	 ecx, 4
  00050	83 c1 04	 add	 ecx, 4
  00053	51		 push	 ecx
  00054	53		 push	 ebx
  00055	e8 00 00 00 00	 call	 ??_V@YAXPAXI@Z		; operator delete[]
  0005a	83 c4 08	 add	 esp, 8
$LN3@vector:
  0005d	8b c3		 mov	 eax, ebx
  0005f	8b 4d f4	 mov	 ecx, DWORD PTR __$EHRec$[ebp]
  00062	64 89 0d 00 00
	00 00		 mov	 DWORD PTR fs:0, ecx
  00069	59		 pop	 ecx
  0006a	5f		 pop	 edi
  0006b	5e		 pop	 esi
  0006c	5b		 pop	 ebx
  0006d	8b e5		 mov	 esp, ebp
  0006f	5d		 pop	 ebp
  00070	c2 04 00	 ret	 4
$LN2@vector:
  00073	e8 00 00 00 00	 call	 ??1i3ElementBase@@UAE@XZ ; i3ElementBase::~i3ElementBase
  00078	85 ff		 test	 edi, edi
  0007a	74 1b		 je	 SHORT $LN6@vector
  0007c	f6 c3 04	 test	 bl, 4
  0007f	75 0b		 jne	 SHORT $LN5@vector
  00081	56		 push	 esi
  00082	e8 00 00 00 00	 call	 ??3i3ElementBase@@SAXPAX@Z ; i3ElementBase::operator delete
  00087	83 c4 04	 add	 esp, 4
  0008a	eb 0b		 jmp	 SHORT $LN6@vector
$LN5@vector:

  0008c	6a 10		 push	 16			; 00000010H
  0008e	56		 push	 esi
  0008f	e8 00 00 00 00	 call	 ??3@YAXPAXI@Z		; operator delete
  00094	83 c4 08	 add	 esp, 8
$LN6@vector:
  00097	8b c6		 mov	 eax, esi
  00099	8b 4d f4	 mov	 ecx, DWORD PTR __$EHRec$[ebp]
  0009c	64 89 0d 00 00
	00 00		 mov	 DWORD PTR fs:0, ecx
  000a3	59		 pop	 ecx
  000a4	5f		 pop	 edi
  000a5	5e		 pop	 esi
  000a6	5b		 pop	 ebx
  000a7	8b e5		 mov	 esp, ebp
  000a9	5d		 pop	 ebp
  000aa	c2 04 00	 ret	 4
  000ad	cc		 int	 3
  000ae	cc		 int	 3
  000af	cc		 int	 3
  000b0	cc		 int	 3
  000b1	cc		 int	 3
_TEXT	ENDS
;	COMDAT text$x
text$x	SEGMENT
__ehhandler$??_Ei3ElementBase@@UAEPAXI@Z:
  00000	90		 npad	 1
  00001	90		 npad	 1
  00002	8b 54 24 08	 mov	 edx, DWORD PTR [esp+8]
  00006	8d 42 0c	 lea	 eax, DWORD PTR [edx+12]
  00009	8b 4a f0	 mov	 ecx, DWORD PTR [edx-16]
  0000c	33 c8		 xor	 ecx, eax
  0000e	e8 00 00 00 00	 call	 @__security_check_cookie@4
  00013	b8 00 00 00 00	 mov	 eax, OFFSET __ehfuncinfo$??_Ei3ElementBase@@UAEPAXI@Z
  00018	e9 00 00 00 00	 jmp	 ___CxxFrameHandler3
text$x	ENDS
??_Ei3ElementBase@@UAEPAXI@Z ENDP			; i3ElementBase::`vector deleting destructor'
; Function compile flags: /Ogtp
; File E:\Proyectos\JuegosOnlineproyectos\PB\pbblow\Piercing Blow Remake\i3Server\src\i3Base\i3NetworkUDPSocket.cpp
;	COMDAT ??_Gi3ElementBase@@UAEPAXI@Z
_TEXT	SEGMENT
___flags$ = 8						; size = 4
??_Gi3ElementBase@@UAEPAXI@Z PROC			; i3ElementBase::`scalar deleting destructor', COMDAT
; _this$ = ecx
  00000	55		 push	 ebp
  00001	8b ec		 mov	 ebp, esp
  00003	56		 push	 esi
  00004	8b f1		 mov	 esi, ecx
  00006	e8 00 00 00 00	 call	 ??1i3ElementBase@@UAE@XZ ; i3ElementBase::~i3ElementBase
  0000b	8b 45 08	 mov	 eax, DWORD PTR ___flags$[ebp]
  0000e	a8 01		 test	 al, 1
  00010	74 1f		 je	 SHORT $LN10@scalar
  00012	a8 04		 test	 al, 4
  00014	75 10		 jne	 SHORT $LN3@scalar
  00016	56		 push	 esi
  00017	e8 00 00 00 00	 call	 ??3i3ElementBase@@SAXPAX@Z ; i3ElementBase::operator delete
  0001c	83 c4 04	 add	 esp, 4
  0001f	8b c6		 mov	 eax, esi
  00021	5e		 pop	 esi
  00022	5d		 pop	 ebp
  00023	c2 04 00	 ret	 4
$LN3@scalar:

  00026	6a 10		 push	 16			; 00000010H
  00028	56		 push	 esi
  00029	e8 00 00 00 00	 call	 ??3@YAXPAXI@Z		; operator delete
  0002e	83 c4 08	 add	 esp, 8
$LN10@scalar:
  00031	8b c6		 mov	 eax, esi
  00033	5e		 pop	 esi
  00034	5d		 pop	 ebp
  00035	c2 04 00	 ret	 4
??_Gi3ElementBase@@UAEPAXI@Z ENDP			; i3ElementBase::`scalar deleting destructor'
_TEXT	ENDS
; Function compile flags: /Ogtp
;	COMDAT ??4i3ElementBase@@QAEAAV0@ABV0@@Z
_TEXT	SEGMENT
___that$ = 8						; size = 4
??4i3ElementBase@@QAEAAV0@ABV0@@Z PROC			; i3ElementBase::operator=, COMDAT
; _this$ = ecx
  00000	55		 push	 ebp
  00001	8b ec		 mov	 ebp, esp
  00003	8b 55 08	 mov	 edx, DWORD PTR ___that$[ebp]
  00006	8b 42 04	 mov	 eax, DWORD PTR [edx+4]
  00009	89 41 04	 mov	 DWORD PTR [ecx+4], eax
  0000c	8b 42 08	 mov	 eax, DWORD PTR [edx+8]
  0000f	89 41 08	 mov	 DWORD PTR [ecx+8], eax
  00012	8b 42 0c	 mov	 eax, DWORD PTR [edx+12]
  00015	89 41 0c	 mov	 DWORD PTR [ecx+12], eax
  00018	8b c1		 mov	 eax, ecx
  0001a	5d		 pop	 ebp
  0001b	c2 04 00	 ret	 4
??4i3ElementBase@@QAEAAV0@ABV0@@Z ENDP			; i3ElementBase::operator=
_TEXT	ENDS
; Function compile flags: /Ogtp
;	COMDAT ??0i3ElementBase@@QAE@ABV0@@Z
_TEXT	SEGMENT
___that$ = 8						; size = 4
??0i3ElementBase@@QAE@ABV0@@Z PROC			; i3ElementBase::i3ElementBase, COMDAT
; _this$ = ecx
  00000	55		 push	 ebp
  00001	8b ec		 mov	 ebp, esp
  00003	8b 55 08	 mov	 edx, DWORD PTR ___that$[ebp]
  00006	c7 01 00 00 00
	00		 mov	 DWORD PTR [ecx], OFFSET ??_7i3ElementBase@@6B@
  0000c	8b 42 04	 mov	 eax, DWORD PTR [edx+4]
  0000f	89 41 04	 mov	 DWORD PTR [ecx+4], eax
  00012	8b 42 08	 mov	 eax, DWORD PTR [edx+8]
  00015	89 41 08	 mov	 DWORD PTR [ecx+8], eax
  00018	8b 42 0c	 mov	 eax, DWORD PTR [edx+12]
  0001b	89 41 0c	 mov	 DWORD PTR [ecx+12], eax
  0001e	8b c1		 mov	 eax, ecx
  00020	5d		 pop	 ebp
  00021	c2 04 00	 ret	 4
??0i3ElementBase@@QAE@ABV0@@Z ENDP			; i3ElementBase::i3ElementBase
_TEXT	ENDS
; Function compile flags: /Ogtp
; File E:\Proyectos\JuegosOnlineproyectos\PB\pbblow\Piercing Blow Remake\i3Server\include\i3Base\i3ElementBase.h
;	COMDAT ?_internal_SetRefCount@i3ElementBase@@QAEXH@Z
_TEXT	SEGMENT
_cnt$ = 8						; size = 4
?_internal_SetRefCount@i3ElementBase@@QAEXH@Z PROC	; i3ElementBase::_internal_SetRefCount, COMDAT
; _this$ = ecx

; 401  : 	{

  00000	55		 push	 ebp
  00001	8b ec		 mov	 ebp, esp

; 402  : 		m_RefCount = cnt;

  00003	8b 45 08	 mov	 eax, DWORD PTR _cnt$[ebp]
  00006	89 41 04	 mov	 DWORD PTR [ecx+4], eax

; 403  : 	}

  00009	5d		 pop	 ebp
  0000a	c2 04 00	 ret	 4
?_internal_SetRefCount@i3ElementBase@@QAEXH@Z ENDP	; i3ElementBase::_internal_SetRefCount
_TEXT	ENDS
; Function compile flags: /Ogtp
; File E:\Proyectos\JuegosOnlineproyectos\PB\pbblow\Piercing Blow Remake\i3Server\include\i3Base\i3ElementBase.h
;	COMDAT ?AddRef@i3ElementBase@@QAEHXZ
_TEXT	SEGMENT
?AddRef@i3ElementBase@@QAEHXZ PROC			; i3ElementBase::AddRef, COMDAT
; _this$ = ecx

; 392  : 		m_RefCount++;

  00000	ff 41 04	 inc	 DWORD PTR [ecx+4]

; 393  : 
; 394  : 		return m_RefCount;

  00003	8b 41 04	 mov	 eax, DWORD PTR [ecx+4]

; 395  : 	}

  00006	c3		 ret	 0
?AddRef@i3ElementBase@@QAEHXZ ENDP			; i3ElementBase::AddRef
_TEXT	ENDS
; Function compile flags: /Ogtp
; File E:\Proyectos\JuegosOnlineproyectos\PB\pbblow\Piercing Blow Remake\i3Server\include\i3Base\i3ElementBase.h
;	COMDAT ?IsTypeOf@i3ElementBase@@QAE_NPAVi3ClassMeta@@@Z
_TEXT	SEGMENT
_pMeta$ = 8						; size = 4
?IsTypeOf@i3ElementBase@@QAE_NPAVi3ClassMeta@@@Z PROC	; i3ElementBase::IsTypeOf, COMDAT
; _this$ = ecx

; 356  : 	{

  00000	55		 push	 ebp
  00001	8b ec		 mov	 ebp, esp

; 357  : 		return GetMeta()->IsTypeOf( pMeta);

  00003	8b 01		 mov	 eax, DWORD PTR [ecx]
  00005	ff 75 08	 push	 DWORD PTR _pMeta$[ebp]
  00008	ff 10		 call	 DWORD PTR [eax]
  0000a	8b c8		 mov	 ecx, eax
  0000c	e8 00 00 00 00	 call	 ?IsTypeOf@i3ClassMeta@@QAE_NPAV1@@Z ; i3ClassMeta::IsTypeOf

; 358  : 	}

  00011	5d		 pop	 ebp
  00012	c2 04 00	 ret	 4
?IsTypeOf@i3ElementBase@@QAE_NPAVi3ClassMeta@@@Z ENDP	; i3ElementBase::IsTypeOf
_TEXT	ENDS
; Function compile flags: /Ogtp
; File E:\Proyectos\JuegosOnlineproyectos\PB\pbblow\Piercing Blow Remake\i3Server\include\i3Base\i3ElementBase.h
; File E:\Proyectos\JuegosOnlineproyectos\PB\pbblow\Piercing Blow Remake\i3Server\include\i3Base\i3ClassMeta.h
; File E:\Proyectos\JuegosOnlineproyectos\PB\pbblow\Piercing Blow Remake\i3Server\include\i3Base\i3ElementBase.h
;	COMDAT ?IsExactTypeOf@i3ElementBase@@QAE_NPAVi3ClassMeta@@@Z
_TEXT	SEGMENT
_pMeta$ = 8						; size = 4
?IsExactTypeOf@i3ElementBase@@QAE_NPAVi3ClassMeta@@@Z PROC ; i3ElementBase::IsExactTypeOf, COMDAT
; _this$ = ecx

; 351  : 	{

  00000	55		 push	 ebp
  00001	8b ec		 mov	 ebp, esp

; 352  : 		return GetMeta()->IsExactTypeOf( pMeta);

  00003	8b 01		 mov	 eax, DWORD PTR [ecx]
  00005	ff 10		 call	 DWORD PTR [eax]
; File E:\Proyectos\JuegosOnlineproyectos\PB\pbblow\Piercing Blow Remake\i3Server\include\i3Base\i3ClassMeta.h

; 90   : 		return pMeta == this;

  00007	39 45 08	 cmp	 DWORD PTR _pMeta$[ebp], eax
  0000a	0f 94 c0	 sete	 al
; File E:\Proyectos\JuegosOnlineproyectos\PB\pbblow\Piercing Blow Remake\i3Server\include\i3Base\i3ElementBase.h

; 353  : 	}

  0000d	5d		 pop	 ebp
  0000e	c2 04 00	 ret	 4
?IsExactTypeOf@i3ElementBase@@QAE_NPAVi3ClassMeta@@@Z ENDP ; i3ElementBase::IsExactTypeOf
_TEXT	ENDS
; Function compile flags: /Ogtp
; File E:\Proyectos\JuegosOnlineproyectos\PB\pbblow\Piercing Blow Remake\i3Server\include\i3Base\i3ElementBase.h
;	COMDAT ?__GetMemoryPool@i3ElementBase@@QAEPAVi3MemoryPool@@XZ
_TEXT	SEGMENT
?__GetMemoryPool@i3ElementBase@@QAEPAVi3MemoryPool@@XZ PROC ; i3ElementBase::__GetMemoryPool, COMDAT
; _this$ = ecx

; 348  : 	i3MemoryPool *	__GetMemoryPool(void)							{ return m_pPool; }

  00000	8b 41 0c	 mov	 eax, DWORD PTR [ecx+12]
  00003	c3		 ret	 0
?__GetMemoryPool@i3ElementBase@@QAEPAVi3MemoryPool@@XZ ENDP ; i3ElementBase::__GetMemoryPool
_TEXT	ENDS
; Function compile flags: /Ogtp
; File E:\Proyectos\JuegosOnlineproyectos\PB\pbblow\Piercing Blow Remake\i3Server\include\i3Base\i3ElementBase.h
;	COMDAT ?__SetMemoryPool@i3ElementBase@@QAEXPAVi3MemoryPool@@@Z
_TEXT	SEGMENT
_pPool$ = 8						; size = 4
?__SetMemoryPool@i3ElementBase@@QAEXPAVi3MemoryPool@@@Z PROC ; i3ElementBase::__SetMemoryPool, COMDAT
; _this$ = ecx

; 347  : 	void			__SetMemoryPool( i3MemoryPool * pPool)			{ m_pPool = pPool; }

  00000	55		 push	 ebp
  00001	8b ec		 mov	 ebp, esp
  00003	8b 45 08	 mov	 eax, DWORD PTR _pPool$[ebp]
  00006	89 41 0c	 mov	 DWORD PTR [ecx+12], eax
  00009	5d		 pop	 ebp
  0000a	c2 04 00	 ret	 4
?__SetMemoryPool@i3ElementBase@@QAEXPAVi3MemoryPool@@@Z ENDP ; i3ElementBase::__SetMemoryPool
_TEXT	ENDS
; Function compile flags: /Ogtp
; File E:\Proyectos\JuegosOnlineproyectos\PB\pbblow\Piercing Blow Remake\i3Server\include\i3Base\i3ElementBase.h
;	COMDAT ?GetRefCount@i3ElementBase@@QAEHXZ
_TEXT	SEGMENT
?GetRefCount@i3ElementBase@@QAEHXZ PROC			; i3ElementBase::GetRefCount, COMDAT
; _this$ = ecx

; 344  : 		return m_RefCount;

  00000	8b 41 04	 mov	 eax, DWORD PTR [ecx+4]

; 345  : 	}

  00003	c3		 ret	 0
?GetRefCount@i3ElementBase@@QAEHXZ ENDP			; i3ElementBase::GetRefCount
_TEXT	ENDS
; Function compile flags: /Ogtp
; File E:\Proyectos\JuegosOnlineproyectos\PB\pbblow\Piercing Blow Remake\i3Server\include\i3Base\i3ElementBase.h
;	COMDAT ?GetClassMeta@i3ElementBase@@SAPAVi3ClassMeta@@XZ
_TEXT	SEGMENT
?GetClassMeta@i3ElementBase@@SAPAVi3ClassMeta@@XZ PROC	; i3ElementBase::GetClassMeta, COMDAT

; 314  : 	I3_ABSTRACT_CLASS_DEFINE( i3ElementBase);

  00000	a1 00 00 00 00	 mov	 eax, DWORD PTR ?s_pClassMetai3ElementBase@i3ElementBase@@2PAVi3ClassMeta@@A ; i3ElementBase::s_pClassMetai3ElementBase
  00005	c3		 ret	 0
?GetClassMeta@i3ElementBase@@SAPAVi3ClassMeta@@XZ ENDP	; i3ElementBase::GetClassMeta
_TEXT	ENDS
; Function compile flags: /Ogtp
;	COMDAT ??_Ei3ClassMeta@@UAEPAXI@Z
_TEXT	SEGMENT
__$EHRec$ = -12						; size = 12
___flags$ = 8						; size = 4
??_Ei3ClassMeta@@UAEPAXI@Z PROC				; i3ClassMeta::`vector deleting destructor', COMDAT
; _this$ = ecx
  00000	55		 push	 ebp
  00001	8b ec		 mov	 ebp, esp
  00003	6a ff		 push	 -1
  00005	68 00 00 00 00	 push	 __ehhandler$??_Ei3ClassMeta@@UAEPAXI@Z
  0000a	64 a1 00 00 00
	00		 mov	 eax, DWORD PTR fs:0
  00010	50		 push	 eax
  00011	53		 push	 ebx
  00012	56		 push	 esi
  00013	57		 push	 edi
  00014	a1 00 00 00 00	 mov	 eax, DWORD PTR ___security_cookie
  00019	33 c5		 xor	 eax, ebp
  0001b	50		 push	 eax
  0001c	8d 45 f4	 lea	 eax, DWORD PTR __$EHRec$[ebp]
  0001f	64 a3 00 00 00
	00		 mov	 DWORD PTR fs:0, eax
  00025	8b f1		 mov	 esi, ecx
  00027	8b 45 08	 mov	 eax, DWORD PTR ___flags$[ebp]
  0002a	8b f8		 mov	 edi, eax
  0002c	83 e7 01	 and	 edi, 1
  0002f	a8 02		 test	 al, 2
  00031	74 49		 je	 SHORT $LN2@vector
  00033	68 00 00 00 00	 push	 OFFSET ??1i3ClassMeta@@UAE@XZ ; i3ClassMeta::~i3ClassMeta
  00038	ff 76 fc	 push	 DWORD PTR [esi-4]
  0003b	8d 5e fc	 lea	 ebx, DWORD PTR [esi-4]
  0003e	6a 38		 push	 56			; 00000038H
  00040	56		 push	 esi
  00041	e8 00 00 00 00	 call	 ??_M@YGXPAXIIP6EX0@Z@Z
  00046	85 ff		 test	 edi, edi
  00048	74 1c		 je	 SHORT $LN3@vector
  0004a	8b 0b		 mov	 ecx, DWORD PTR [ebx]
  0004c	8d 14 cd 00 00
	00 00		 lea	 edx, DWORD PTR [ecx*8]
  00053	2b d1		 sub	 edx, ecx
  00055	8d 0c d5 04 00
	00 00		 lea	 ecx, DWORD PTR [edx*8+4]
  0005c	51		 push	 ecx
  0005d	53		 push	 ebx
  0005e	e8 00 00 00 00	 call	 ??_V@YAXPAXI@Z		; operator delete[]
  00063	83 c4 08	 add	 esp, 8
$LN3@vector:
  00066	8b c3		 mov	 eax, ebx
  00068	8b 4d f4	 mov	 ecx, DWORD PTR __$EHRec$[ebp]
  0006b	64 89 0d 00 00
	00 00		 mov	 DWORD PTR fs:0, ecx
  00072	59		 pop	 ecx
  00073	5f		 pop	 edi
  00074	5e		 pop	 esi
  00075	5b		 pop	 ebx
  00076	8b e5		 mov	 esp, ebp
  00078	5d		 pop	 ebp
  00079	c2 04 00	 ret	 4
$LN2@vector:
  0007c	e8 00 00 00 00	 call	 ??1i3ClassMeta@@UAE@XZ	; i3ClassMeta::~i3ClassMeta
  00081	85 ff		 test	 edi, edi
  00083	74 0b		 je	 SHORT $LN4@vector
  00085	6a 38		 push	 56			; 00000038H
  00087	56		 push	 esi
  00088	e8 00 00 00 00	 call	 ??3@YAXPAXI@Z		; operator delete
  0008d	83 c4 08	 add	 esp, 8
$LN4@vector:
  00090	8b c6		 mov	 eax, esi
  00092	8b 4d f4	 mov	 ecx, DWORD PTR __$EHRec$[ebp]
  00095	64 89 0d 00 00
	00 00		 mov	 DWORD PTR fs:0, ecx
  0009c	59		 pop	 ecx
  0009d	5f		 pop	 edi
  0009e	5e		 pop	 esi
  0009f	5b		 pop	 ebx
  000a0	8b e5		 mov	 esp, ebp
  000a2	5d		 pop	 ebp
  000a3	c2 04 00	 ret	 4
  000a6	cc		 int	 3
  000a7	cc		 int	 3
  000a8	cc		 int	 3
  000a9	cc		 int	 3
  000aa	cc		 int	 3
_TEXT	ENDS
;	COMDAT text$x
text$x	SEGMENT
__ehhandler$??_Ei3ClassMeta@@UAEPAXI@Z:
  00000	90		 npad	 1
  00001	90		 npad	 1
  00002	8b 54 24 08	 mov	 edx, DWORD PTR [esp+8]
  00006	8d 42 0c	 lea	 eax, DWORD PTR [edx+12]
  00009	8b 4a f0	 mov	 ecx, DWORD PTR [edx-16]
  0000c	33 c8		 xor	 ecx, eax
  0000e	e8 00 00 00 00	 call	 @__security_check_cookie@4
  00013	b8 00 00 00 00	 mov	 eax, OFFSET __ehfuncinfo$??_Ei3ClassMeta@@UAEPAXI@Z
  00018	e9 00 00 00 00	 jmp	 ___CxxFrameHandler3
text$x	ENDS
??_Ei3ClassMeta@@UAEPAXI@Z ENDP				; i3ClassMeta::`vector deleting destructor'
; Function compile flags: /Ogtp
;	COMDAT ??_Gi3ClassMeta@@UAEPAXI@Z
_TEXT	SEGMENT
___flags$ = 8						; size = 4
??_Gi3ClassMeta@@UAEPAXI@Z PROC				; i3ClassMeta::`scalar deleting destructor', COMDAT
; _this$ = ecx
  00000	55		 push	 ebp
  00001	8b ec		 mov	 ebp, esp
  00003	56		 push	 esi
  00004	8b f1		 mov	 esi, ecx
  00006	e8 00 00 00 00	 call	 ??1i3ClassMeta@@UAE@XZ	; i3ClassMeta::~i3ClassMeta
  0000b	f6 45 08 01	 test	 BYTE PTR ___flags$[ebp], 1
  0000f	74 0b		 je	 SHORT $LN5@scalar
  00011	6a 38		 push	 56			; 00000038H
  00013	56		 push	 esi
  00014	e8 00 00 00 00	 call	 ??3@YAXPAXI@Z		; operator delete
  00019	83 c4 08	 add	 esp, 8
$LN5@scalar:
  0001c	8b c6		 mov	 eax, esi
  0001e	5e		 pop	 esi
  0001f	5d		 pop	 ebp
  00020	c2 04 00	 ret	 4
??_Gi3ClassMeta@@UAEPAXI@Z ENDP				; i3ClassMeta::`scalar deleting destructor'
_TEXT	ENDS
; Function compile flags: /Ogtp
;	COMDAT ??4i3ClassMeta@@QAEAAV0@ABV0@@Z
_TEXT	SEGMENT
___that$ = 8						; size = 4
??4i3ClassMeta@@QAEAAV0@ABV0@@Z PROC			; i3ClassMeta::operator=, COMDAT
; _this$ = ecx
  00000	55		 push	 ebp
  00001	8b ec		 mov	 ebp, esp
  00003	8b 55 08	 mov	 edx, DWORD PTR ___that$[ebp]
  00006	8b 42 04	 mov	 eax, DWORD PTR [edx+4]
  00009	89 41 04	 mov	 DWORD PTR [ecx+4], eax
  0000c	8b 42 08	 mov	 eax, DWORD PTR [edx+8]
  0000f	89 41 08	 mov	 DWORD PTR [ecx+8], eax
  00012	8b 42 0c	 mov	 eax, DWORD PTR [edx+12]
  00015	89 41 0c	 mov	 DWORD PTR [ecx+12], eax
  00018	8b 42 10	 mov	 eax, DWORD PTR [edx+16]
  0001b	89 41 10	 mov	 DWORD PTR [ecx+16], eax
  0001e	8b 42 14	 mov	 eax, DWORD PTR [edx+20]
  00021	89 41 14	 mov	 DWORD PTR [ecx+20], eax
  00024	8b 42 18	 mov	 eax, DWORD PTR [edx+24]
  00027	89 41 18	 mov	 DWORD PTR [ecx+24], eax
  0002a	8b 42 1c	 mov	 eax, DWORD PTR [edx+28]
  0002d	89 41 1c	 mov	 DWORD PTR [ecx+28], eax
  00030	8b 42 20	 mov	 eax, DWORD PTR [edx+32]
  00033	89 41 20	 mov	 DWORD PTR [ecx+32], eax
  00036	8b 42 24	 mov	 eax, DWORD PTR [edx+36]
  00039	89 41 24	 mov	 DWORD PTR [ecx+36], eax
  0003c	8b 42 28	 mov	 eax, DWORD PTR [edx+40]
  0003f	89 41 28	 mov	 DWORD PTR [ecx+40], eax
  00042	8b 42 2c	 mov	 eax, DWORD PTR [edx+44]
  00045	89 41 2c	 mov	 DWORD PTR [ecx+44], eax
  00048	8b 42 30	 mov	 eax, DWORD PTR [edx+48]
  0004b	89 41 30	 mov	 DWORD PTR [ecx+48], eax
  0004e	8b 42 34	 mov	 eax, DWORD PTR [edx+52]
  00051	89 41 34	 mov	 DWORD PTR [ecx+52], eax
  00054	8b c1		 mov	 eax, ecx
  00056	5d		 pop	 ebp
  00057	c2 04 00	 ret	 4
??4i3ClassMeta@@QAEAAV0@ABV0@@Z ENDP			; i3ClassMeta::operator=
_TEXT	ENDS
; Function compile flags: /Ogtp
;	COMDAT ??0i3ClassMeta@@QAE@ABV0@@Z
_TEXT	SEGMENT
___that$ = 8						; size = 4
??0i3ClassMeta@@QAE@ABV0@@Z PROC			; i3ClassMeta::i3ClassMeta, COMDAT
; _this$ = ecx
  00000	55		 push	 ebp
  00001	8b ec		 mov	 ebp, esp
  00003	8b 55 08	 mov	 edx, DWORD PTR ___that$[ebp]
  00006	c7 01 00 00 00
	00		 mov	 DWORD PTR [ecx], OFFSET ??_7i3ClassMeta@@6B@
  0000c	8b 42 04	 mov	 eax, DWORD PTR [edx+4]
  0000f	89 41 04	 mov	 DWORD PTR [ecx+4], eax
  00012	8b 42 08	 mov	 eax, DWORD PTR [edx+8]
  00015	89 41 08	 mov	 DWORD PTR [ecx+8], eax
  00018	8b 42 0c	 mov	 eax, DWORD PTR [edx+12]
  0001b	89 41 0c	 mov	 DWORD PTR [ecx+12], eax
  0001e	8b 42 10	 mov	 eax, DWORD PTR [edx+16]
  00021	89 41 10	 mov	 DWORD PTR [ecx+16], eax
  00024	8b 42 14	 mov	 eax, DWORD PTR [edx+20]
  00027	89 41 14	 mov	 DWORD PTR [ecx+20], eax
  0002a	8b 42 18	 mov	 eax, DWORD PTR [edx+24]
  0002d	89 41 18	 mov	 DWORD PTR [ecx+24], eax
  00030	8b 42 1c	 mov	 eax, DWORD PTR [edx+28]
  00033	89 41 1c	 mov	 DWORD PTR [ecx+28], eax
  00036	8b 42 20	 mov	 eax, DWORD PTR [edx+32]
  00039	89 41 20	 mov	 DWORD PTR [ecx+32], eax
  0003c	8b 42 24	 mov	 eax, DWORD PTR [edx+36]
  0003f	89 41 24	 mov	 DWORD PTR [ecx+36], eax
  00042	8b 42 28	 mov	 eax, DWORD PTR [edx+40]
  00045	89 41 28	 mov	 DWORD PTR [ecx+40], eax
  00048	8b 42 2c	 mov	 eax, DWORD PTR [edx+44]
  0004b	89 41 2c	 mov	 DWORD PTR [ecx+44], eax
  0004e	8b 42 30	 mov	 eax, DWORD PTR [edx+48]
  00051	89 41 30	 mov	 DWORD PTR [ecx+48], eax
  00054	8b 42 34	 mov	 eax, DWORD PTR [edx+52]
  00057	89 41 34	 mov	 DWORD PTR [ecx+52], eax
  0005a	8b c1		 mov	 eax, ecx
  0005c	5d		 pop	 ebp
  0005d	c2 04 00	 ret	 4
??0i3ClassMeta@@QAE@ABV0@@Z ENDP			; i3ClassMeta::i3ClassMeta
_TEXT	ENDS
; Function compile flags: /Ogtp
; File E:\Proyectos\JuegosOnlineproyectos\PB\pbblow\Piercing Blow Remake\i3Server\include\i3Base\i3ClassMeta.h
;	COMDAT ?getHashCode@i3ClassMeta@@QAEIXZ
_TEXT	SEGMENT
?getHashCode@i3ClassMeta@@QAEIXZ PROC			; i3ClassMeta::getHashCode, COMDAT
; _this$ = ecx

; 112  : 	UINT32			getHashCode(void)						{ return m_HashCode; }

  00000	8b 41 18	 mov	 eax, DWORD PTR [ecx+24]
  00003	c3		 ret	 0
?getHashCode@i3ClassMeta@@QAEIXZ ENDP			; i3ClassMeta::getHashCode
_TEXT	ENDS
; Function compile flags: /Ogtp
; File E:\Proyectos\JuegosOnlineproyectos\PB\pbblow\Piercing Blow Remake\i3Server\include\i3Base\i3ClassMeta.h
;	COMDAT ?GetBaseClassMeta@i3ClassMeta@@QAEPAV1@XZ
_TEXT	SEGMENT
?GetBaseClassMeta@i3ClassMeta@@QAEPAV1@XZ PROC		; i3ClassMeta::GetBaseClassMeta, COMDAT
; _this$ = ecx

; 107  : 	i3ClassMeta *	GetBaseClassMeta(void)					{ return m_pBaseClass; }

  00000	8b 41 1c	 mov	 eax, DWORD PTR [ecx+28]
  00003	c3		 ret	 0
?GetBaseClassMeta@i3ClassMeta@@QAEPAV1@XZ ENDP		; i3ClassMeta::GetBaseClassMeta
_TEXT	ENDS
; Function compile flags: /Ogtp
; File E:\Proyectos\JuegosOnlineproyectos\PB\pbblow\Piercing Blow Remake\i3Server\include\i3Base\i3ClassMeta.h
;	COMDAT ?IsConcreteClass@i3ClassMeta@@QAEHXZ
_TEXT	SEGMENT
?IsConcreteClass@i3ClassMeta@@QAEHXZ PROC		; i3ClassMeta::IsConcreteClass, COMDAT
; _this$ = ecx

; 102  : 	BOOL			IsStyle( UINT32 style)					{ return (m_Style & style) == style; }

  00000	8b 41 14	 mov	 eax, DWORD PTR [ecx+20]
  00003	d1 e8		 shr	 eax, 1
  00005	83 e0 01	 and	 eax, 1

; 105  : 	BOOL			IsConcreteClass(void)					{ return IsStyle( I3_CLASSMETA_STYLE_CONCRETE); }

  00008	c3		 ret	 0
?IsConcreteClass@i3ClassMeta@@QAEHXZ ENDP		; i3ClassMeta::IsConcreteClass
_TEXT	ENDS
; Function compile flags: /Ogtp
; File E:\Proyectos\JuegosOnlineproyectos\PB\pbblow\Piercing Blow Remake\i3Server\include\i3Base\i3ClassMeta.h
;	COMDAT ?IsAbstractClass@i3ClassMeta@@QAEHXZ
_TEXT	SEGMENT
?IsAbstractClass@i3ClassMeta@@QAEHXZ PROC		; i3ClassMeta::IsAbstractClass, COMDAT
; _this$ = ecx

; 102  : 	BOOL			IsStyle( UINT32 style)					{ return (m_Style & style) == style; }

  00000	8b 41 14	 mov	 eax, DWORD PTR [ecx+20]
  00003	83 e0 01	 and	 eax, 1

; 104  : 	BOOL			IsAbstractClass(void)					{ return IsStyle( I3_CLASSMETA_STYLE_ABSTRACT); }

  00006	c3		 ret	 0
?IsAbstractClass@i3ClassMeta@@QAEHXZ ENDP		; i3ClassMeta::IsAbstractClass
_TEXT	ENDS
; Function compile flags: /Ogtp
; File E:\Proyectos\JuegosOnlineproyectos\PB\pbblow\Piercing Blow Remake\i3Server\include\i3Base\i3ClassMeta.h
;	COMDAT ?IsStyle@i3ClassMeta@@QAEHI@Z
_TEXT	SEGMENT
_style$ = 8						; size = 4
?IsStyle@i3ClassMeta@@QAEHI@Z PROC			; i3ClassMeta::IsStyle, COMDAT
; _this$ = ecx

; 102  : 	BOOL			IsStyle( UINT32 style)					{ return (m_Style & style) == style; }

  00000	55		 push	 ebp
  00001	8b ec		 mov	 ebp, esp
  00003	8b 51 14	 mov	 edx, DWORD PTR [ecx+20]
  00006	33 c0		 xor	 eax, eax
  00008	23 55 08	 and	 edx, DWORD PTR _style$[ebp]
  0000b	3b 55 08	 cmp	 edx, DWORD PTR _style$[ebp]
  0000e	0f 94 c0	 sete	 al
  00011	5d		 pop	 ebp
  00012	c2 04 00	 ret	 4
?IsStyle@i3ClassMeta@@QAEHI@Z ENDP			; i3ClassMeta::IsStyle
_TEXT	ENDS
; Function compile flags: /Ogtp
; File E:\Proyectos\JuegosOnlineproyectos\PB\pbblow\Piercing Blow Remake\i3Server\include\i3Base\i3ClassMeta.h
;	COMDAT ?RemoveStyle@i3ClassMeta@@QAEXI@Z
_TEXT	SEGMENT
_style$ = 8						; size = 4
?RemoveStyle@i3ClassMeta@@QAEXI@Z PROC			; i3ClassMeta::RemoveStyle, COMDAT
; _this$ = ecx

; 101  : 	void			RemoveStyle( UINT32 style)				{ m_Style &= ~style; }

  00000	55		 push	 ebp
  00001	8b ec		 mov	 ebp, esp
  00003	8b 45 08	 mov	 eax, DWORD PTR _style$[ebp]
  00006	f7 d0		 not	 eax
  00008	21 41 14	 and	 DWORD PTR [ecx+20], eax
  0000b	5d		 pop	 ebp
  0000c	c2 04 00	 ret	 4
?RemoveStyle@i3ClassMeta@@QAEXI@Z ENDP			; i3ClassMeta::RemoveStyle
_TEXT	ENDS
; Function compile flags: /Ogtp
; File E:\Proyectos\JuegosOnlineproyectos\PB\pbblow\Piercing Blow Remake\i3Server\include\i3Base\i3ClassMeta.h
;	COMDAT ?AddStyle@i3ClassMeta@@QAEXI@Z
_TEXT	SEGMENT
_style$ = 8						; size = 4
?AddStyle@i3ClassMeta@@QAEXI@Z PROC			; i3ClassMeta::AddStyle, COMDAT
; _this$ = ecx

; 100  : 	void			AddStyle( UINT32 style)					{ m_Style |= style; }

  00000	55		 push	 ebp
  00001	8b ec		 mov	 ebp, esp
  00003	8b 45 08	 mov	 eax, DWORD PTR _style$[ebp]
  00006	09 41 14	 or	 DWORD PTR [ecx+20], eax
  00009	5d		 pop	 ebp
  0000a	c2 04 00	 ret	 4
?AddStyle@i3ClassMeta@@QAEXI@Z ENDP			; i3ClassMeta::AddStyle
_TEXT	ENDS
; Function compile flags: /Ogtp
; File E:\Proyectos\JuegosOnlineproyectos\PB\pbblow\Piercing Blow Remake\i3Server\include\i3Base\i3ClassMeta.h
;	COMDAT ?GetStyle@i3ClassMeta@@QAEIXZ
_TEXT	SEGMENT
?GetStyle@i3ClassMeta@@QAEIXZ PROC			; i3ClassMeta::GetStyle, COMDAT
; _this$ = ecx

; 99   : 	UINT32			GetStyle(void)							{ return m_Style; }

  00000	8b 41 14	 mov	 eax, DWORD PTR [ecx+20]
  00003	c3		 ret	 0
?GetStyle@i3ClassMeta@@QAEIXZ ENDP			; i3ClassMeta::GetStyle
_TEXT	ENDS
; Function compile flags: /Ogtp
; File E:\Proyectos\JuegosOnlineproyectos\PB\pbblow\Piercing Blow Remake\i3Server\include\i3Base\i3ClassMeta.h
;	COMDAT ?SetStyle@i3ClassMeta@@QAEXI@Z
_TEXT	SEGMENT
_style$ = 8						; size = 4
?SetStyle@i3ClassMeta@@QAEXI@Z PROC			; i3ClassMeta::SetStyle, COMDAT
; _this$ = ecx

; 98   : 	void			SetStyle( UINT32 style)					{ m_Style = style; }

  00000	55		 push	 ebp
  00001	8b ec		 mov	 ebp, esp
  00003	8b 45 08	 mov	 eax, DWORD PTR _style$[ebp]
  00006	89 41 14	 mov	 DWORD PTR [ecx+20], eax
  00009	5d		 pop	 ebp
  0000a	c2 04 00	 ret	 4
?SetStyle@i3ClassMeta@@QAEXI@Z ENDP			; i3ClassMeta::SetStyle
_TEXT	ENDS
; Function compile flags: /Ogtp
; File E:\Proyectos\JuegosOnlineproyectos\PB\pbblow\Piercing Blow Remake\i3Server\include\i3Base\i3ClassMeta.h
;	COMDAT ?IsExactTypeOf@i3ClassMeta@@QAE_NPAV1@@Z
_TEXT	SEGMENT
_pMeta$ = 8						; size = 4
?IsExactTypeOf@i3ClassMeta@@QAE_NPAV1@@Z PROC		; i3ClassMeta::IsExactTypeOf, COMDAT
; _this$ = ecx

; 89   : 	{

  00000	55		 push	 ebp
  00001	8b ec		 mov	 ebp, esp

; 90   : 		return pMeta == this;

  00003	39 4d 08	 cmp	 DWORD PTR _pMeta$[ebp], ecx
  00006	0f 94 c0	 sete	 al

; 91   : 	}

  00009	5d		 pop	 ebp
  0000a	c2 04 00	 ret	 4
?IsExactTypeOf@i3ClassMeta@@QAE_NPAV1@@Z ENDP		; i3ClassMeta::IsExactTypeOf
_TEXT	ENDS
; Function compile flags: /Ogtp
; File E:\Proyectos\JuegosOnlineproyectos\PB\pbblow\Piercing Blow Remake\i3Server\include\i3Base\i3ClassMeta.h
;	COMDAT ?GetClassNameA@i3ClassMeta@@QAEPADXZ
_TEXT	SEGMENT
?GetClassNameA@i3ClassMeta@@QAEPADXZ PROC		; i3ClassMeta::GetClassNameA, COMDAT
; _this$ = ecx

; 83   : 		return m_pszClassName;

  00000	8b 41 0c	 mov	 eax, DWORD PTR [ecx+12]

; 84   : 	}

  00003	c3		 ret	 0
?GetClassNameA@i3ClassMeta@@QAEPADXZ ENDP		; i3ClassMeta::GetClassNameA
_TEXT	ENDS
; Function compile flags: /Ogtp
; File E:\Proyectos\JuegosOnlineproyectos\PB\pbblow\Piercing Blow Remake\i3Server\include\i3Base\i3ClassMeta.h
;	COMDAT ?GetClassSize@i3ClassMeta@@QAEIXZ
_TEXT	SEGMENT
?GetClassSize@i3ClassMeta@@QAEIXZ PROC			; i3ClassMeta::GetClassSize, COMDAT
; _this$ = ecx

; 78   : 		return m_ClassSize;

  00000	8b 41 08	 mov	 eax, DWORD PTR [ecx+8]

; 79   : 	}

  00003	c3		 ret	 0
?GetClassSize@i3ClassMeta@@QAEIXZ ENDP			; i3ClassMeta::GetClassSize
_TEXT	ENDS
; Function compile flags: /Ogtp
; File E:\Proyectos\JuegosOnlineproyectos\PB\pbblow\Piercing Blow Remake\i3Server\include\i3Base\i3ClassMeta.h
;	COMDAT ?SetMemoryPool@i3ClassMeta@@QAEXPAVi3MemoryPool@@@Z
_TEXT	SEGMENT
_pPool$ = 8						; size = 4
?SetMemoryPool@i3ClassMeta@@QAEXPAVi3MemoryPool@@@Z PROC ; i3ClassMeta::SetMemoryPool, COMDAT
; _this$ = ecx

; 66   : 	void			SetMemoryPool( i3MemoryPool * pPool)		{ m_pPool = pPool; }

  00000	55		 push	 ebp
  00001	8b ec		 mov	 ebp, esp
  00003	8b 45 08	 mov	 eax, DWORD PTR _pPool$[ebp]
  00006	89 41 34	 mov	 DWORD PTR [ecx+52], eax
  00009	5d		 pop	 ebp
  0000a	c2 04 00	 ret	 4
?SetMemoryPool@i3ClassMeta@@QAEXPAVi3MemoryPool@@@Z ENDP ; i3ClassMeta::SetMemoryPool
_TEXT	ENDS
; Function compile flags: /Ogtp
; File E:\Proyectos\JuegosOnlineproyectos\PB\pbblow\Piercing Blow Remake\i3Server\include\i3Base\i3ClassMeta.h
;	COMDAT ?GetMemoryPool@i3ClassMeta@@QAEPAVi3MemoryPool@@XZ
_TEXT	SEGMENT
?GetMemoryPool@i3ClassMeta@@QAEPAVi3MemoryPool@@XZ PROC	; i3ClassMeta::GetMemoryPool, COMDAT
; _this$ = ecx

; 65   : 	i3MemoryPool *	GetMemoryPool(void)							{ return m_pPool; }

  00000	8b 41 34	 mov	 eax, DWORD PTR [ecx+52]
  00003	c3		 ret	 0
?GetMemoryPool@i3ClassMeta@@QAEPAVi3MemoryPool@@XZ ENDP	; i3ClassMeta::GetMemoryPool
_TEXT	ENDS
; Function compile flags: /Ogtp
; File E:\Proyectos\JuegosOnlineproyectos\PB\pbblow\Piercing Blow Remake\i3Server\src\i3Base\i3NetworkUDPSocket.cpp
;	COMDAT ?__global_array_delete@@YAXPAXI@Z
_TEXT	SEGMENT
_p$ = 8							; size = 4
_sz$ = 12						; size = 4
?__global_array_delete@@YAXPAXI@Z PROC			; __global_array_delete, COMDAT

  00000	e9 00 00 00 00	 jmp	 ??_V@YAXPAXI@Z		; operator delete[]
?__global_array_delete@@YAXPAXI@Z ENDP			; __global_array_delete
_TEXT	ENDS
; Function compile flags: /Ogtp
; File E:\Proyectos\JuegosOnlineproyectos\PB\pbblow\Piercing Blow Remake\i3Server\src\i3Base\i3NetworkUDPSocket.cpp
;	COMDAT ?__global_array_delete@@YAXPAX@Z
_TEXT	SEGMENT
_p$ = 8							; size = 4
?__global_array_delete@@YAXPAX@Z PROC			; __global_array_delete, COMDAT

  00000	e9 00 00 00 00	 jmp	 ??_V@YAXPAX@Z		; operator delete[]
?__global_array_delete@@YAXPAX@Z ENDP			; __global_array_delete
_TEXT	ENDS
; Function compile flags: /Ogtp
; File E:\Proyectos\JuegosOnlineproyectos\PB\pbblow\Piercing Blow Remake\i3Server\src\i3Base\i3NetworkUDPSocket.cpp
;	COMDAT ?__global_delete@@YAXPAXI@Z
_TEXT	SEGMENT
_p$ = 8							; size = 4
_sz$ = 12						; size = 4
?__global_delete@@YAXPAXI@Z PROC			; __global_delete, COMDAT

  00000	e9 00 00 00 00	 jmp	 ??3@YAXPAXI@Z		; operator delete
?__global_delete@@YAXPAXI@Z ENDP			; __global_delete
_TEXT	ENDS
; Function compile flags: /Ogtp
; File E:\Proyectos\JuegosOnlineproyectos\PB\pbblow\Piercing Blow Remake\i3Server\src\i3Base\i3NetworkUDPSocket.cpp
;	COMDAT ?__empty_global_delete@@YAXPAXI@Z
_TEXT	SEGMENT
___formal$ = 8						; size = 4
___formal$ = 12						; size = 4
?__empty_global_delete@@YAXPAXI@Z PROC			; __empty_global_delete, COMDAT

  00000	c2 00 00	 ret	 0
?__empty_global_delete@@YAXPAXI@Z ENDP			; __empty_global_delete
_TEXT	ENDS
; Function compile flags: /Ogtp
; File E:\Proyectos\JuegosOnlineproyectos\PB\pbblow\Piercing Blow Remake\i3Server\src\i3Base\i3NetworkUDPSocket.cpp
;	COMDAT ?__global_delete@@YAXPAX@Z
_TEXT	SEGMENT
_p$ = 8							; size = 4
?__global_delete@@YAXPAX@Z PROC				; __global_delete, COMDAT

  00000	e9 00 00 00 00	 jmp	 ??3@YAXPAX@Z		; operator delete
?__global_delete@@YAXPAX@Z ENDP				; __global_delete
_TEXT	ENDS
; Function compile flags: /Ogtp
; File E:\Proyectos\JuegosOnlineproyectos\PB\pbblow\Piercing Blow Remake\i3Server\src\i3Base\i3NetworkUDPSocket.cpp
;	COMDAT ?__empty_global_delete@@YAXPAX@Z
_TEXT	SEGMENT
___formal$ = 8						; size = 4
?__empty_global_delete@@YAXPAX@Z PROC			; __empty_global_delete, COMDAT

  00000	c2 00 00	 ret	 0
?__empty_global_delete@@YAXPAX@Z ENDP			; __empty_global_delete
_TEXT	ENDS
END
