; Listing generated by Microsoft (R) Optimizing Compiler Version 19.50.35727.0 

	TITLE	E:\Proyectos\JuegosOnlineproyectos\PB\pbblow\Piercing Blow Remake\i3Server\Project\I3_DX\i3Server\x86\Release\i3PointerStack.obj
	.686P
	.XMM
	include listing.inc
	.model	flat

INCLUDELIB LIBCMT
INCLUDELIB OLDNAMES

PUBLIC	?s_pClassMetai3PointerStack@i3PointerStack@@2PAVi3ClassMeta@@A ; i3PointerStack::s_pClassMetai3PointerStack
PUBLIC	?CreateInstance@?$i3MetaTemplate@Vi3PointerStack@@@@UAEPAVi3ElementBase@@W4I3_CLASSMETA_TYPE@@@Z ; i3MetaTemplate<i3PointerStack>::CreateInstance
PUBLIC	?BindInstance@?$i3MetaTemplate@Vi3PointerStack@@@@UAEPAVi3ElementBase@@PAXW4I3_CLASSMETA_TYPE@@@Z ; i3MetaTemplate<i3PointerStack>::BindInstance
PUBLIC	??_7?$i3MetaTemplate@Vi3PointerStack@@@@6B@	; i3MetaTemplate<i3PointerStack>::`vftable'
PUBLIC	??_G?$i3MetaTemplate@Vi3PointerStack@@@@UAEPAXI@Z ; i3MetaTemplate<i3PointerStack>::`scalar deleting destructor'
PUBLIC	??_C@_0O@OCDFBOHM@i3ElementBase@		; `string'
PUBLIC	??_C@_0P@PLNFABKM@i3PointerStack@		; `string'
PUBLIC	??_R0?AVi3ClassMeta@@@8				; i3ClassMeta `RTTI Type Descriptor'
PUBLIC	??_R3i3ClassMeta@@8				; i3ClassMeta::`RTTI Class Hierarchy Descriptor'
PUBLIC	??_R2i3ClassMeta@@8				; i3ClassMeta::`RTTI Base Class Array'
PUBLIC	??_R1A@?0A@EA@i3ClassMeta@@8			; i3ClassMeta::`RTTI Base Class Descriptor at (0,-1,0,64)'
PUBLIC	??_R4?$i3MetaTemplate@Vi3PointerStack@@@@6B@	; i3MetaTemplate<i3PointerStack>::`RTTI Complete Object Locator'
PUBLIC	??_R0?AV?$i3MetaTemplate@Vi3PointerStack@@@@@8	; i3MetaTemplate<i3PointerStack> `RTTI Type Descriptor'
PUBLIC	??_R3?$i3MetaTemplate@Vi3PointerStack@@@@8	; i3MetaTemplate<i3PointerStack>::`RTTI Class Hierarchy Descriptor'
PUBLIC	??_R2?$i3MetaTemplate@Vi3PointerStack@@@@8	; i3MetaTemplate<i3PointerStack>::`RTTI Base Class Array'
PUBLIC	??_R1A@?0A@EA@?$i3MetaTemplate@Vi3PointerStack@@@@8 ; i3MetaTemplate<i3PointerStack>::`RTTI Base Class Descriptor at (0,-1,0,64)'
PUBLIC	__Avx2WmemEnabledWeakValue
EXTRN	??_E?$i3MetaTemplate@Vi3PointerStack@@@@UAEPAXI@Z:PROC ; i3MetaTemplate<i3PointerStack>::`vector deleting destructor'
EXTRN	??_7type_info@@6B@:QWORD			; type_info::`vftable'
;	COMDAT __Avx2WmemEnabledWeakValue
_BSS	SEGMENT
__Avx2WmemEnabledWeakValue DD 01H DUP (?)
_BSS	ENDS
;	COMDAT ??_R1A@?0A@EA@?$i3MetaTemplate@Vi3PointerStack@@@@8
rdata$r	SEGMENT
??_R1A@?0A@EA@?$i3MetaTemplate@Vi3PointerStack@@@@8 DD FLAT:??_R0?AV?$i3MetaTemplate@Vi3PointerStack@@@@@8 ; i3MetaTemplate<i3PointerStack>::`RTTI Base Class Descriptor at (0,-1,0,64)'
	DD	01H
	DD	00H
	DD	0ffffffffH
	DD	00H
	DD	040H
	DD	FLAT:??_R3?$i3MetaTemplate@Vi3PointerStack@@@@8
rdata$r	ENDS
;	COMDAT ??_R2?$i3MetaTemplate@Vi3PointerStack@@@@8
rdata$r	SEGMENT
??_R2?$i3MetaTemplate@Vi3PointerStack@@@@8 DD FLAT:??_R1A@?0A@EA@?$i3MetaTemplate@Vi3PointerStack@@@@8 ; i3MetaTemplate<i3PointerStack>::`RTTI Base Class Array'
	DD	FLAT:??_R1A@?0A@EA@i3ClassMeta@@8
rdata$r	ENDS
;	COMDAT ??_R3?$i3MetaTemplate@Vi3PointerStack@@@@8
rdata$r	SEGMENT
??_R3?$i3MetaTemplate@Vi3PointerStack@@@@8 DD 00H	; i3MetaTemplate<i3PointerStack>::`RTTI Class Hierarchy Descriptor'
	DD	00H
	DD	02H
	DD	FLAT:??_R2?$i3MetaTemplate@Vi3PointerStack@@@@8
rdata$r	ENDS
;	COMDAT ??_R0?AV?$i3MetaTemplate@Vi3PointerStack@@@@@8
data$rs	SEGMENT
??_R0?AV?$i3MetaTemplate@Vi3PointerStack@@@@@8 DD FLAT:??_7type_info@@6B@ ; i3MetaTemplate<i3PointerStack> `RTTI Type Descriptor'
	DD	00H
	DB	'.?AV?$i3MetaTemplate@Vi3PointerStack@@@@', 00H
data$rs	ENDS
;	COMDAT ??_R4?$i3MetaTemplate@Vi3PointerStack@@@@6B@
rdata$r	SEGMENT
??_R4?$i3MetaTemplate@Vi3PointerStack@@@@6B@ DD 00H	; i3MetaTemplate<i3PointerStack>::`RTTI Complete Object Locator'
	DD	00H
	DD	00H
	DD	FLAT:??_R0?AV?$i3MetaTemplate@Vi3PointerStack@@@@@8
	DD	FLAT:??_R3?$i3MetaTemplate@Vi3PointerStack@@@@8
rdata$r	ENDS
;	COMDAT ??_R1A@?0A@EA@i3ClassMeta@@8
rdata$r	SEGMENT
??_R1A@?0A@EA@i3ClassMeta@@8 DD FLAT:??_R0?AVi3ClassMeta@@@8 ; i3ClassMeta::`RTTI Base Class Descriptor at (0,-1,0,64)'
	DD	00H
	DD	00H
	DD	0ffffffffH
	DD	00H
	DD	040H
	DD	FLAT:??_R3i3ClassMeta@@8
rdata$r	ENDS
;	COMDAT ??_R2i3ClassMeta@@8
rdata$r	SEGMENT
??_R2i3ClassMeta@@8 DD FLAT:??_R1A@?0A@EA@i3ClassMeta@@8 ; i3ClassMeta::`RTTI Base Class Array'
rdata$r	ENDS
;	COMDAT ??_R3i3ClassMeta@@8
rdata$r	SEGMENT
??_R3i3ClassMeta@@8 DD 00H				; i3ClassMeta::`RTTI Class Hierarchy Descriptor'
	DD	00H
	DD	01H
	DD	FLAT:??_R2i3ClassMeta@@8
rdata$r	ENDS
;	COMDAT ??_R0?AVi3ClassMeta@@@8
data$rs	SEGMENT
??_R0?AVi3ClassMeta@@@8 DD FLAT:??_7type_info@@6B@	; i3ClassMeta `RTTI Type Descriptor'
	DD	00H
	DB	'.?AVi3ClassMeta@@', 00H
data$rs	ENDS
;	COMDAT ??_C@_0P@PLNFABKM@i3PointerStack@
CONST	SEGMENT
??_C@_0P@PLNFABKM@i3PointerStack@ DB 'i3PointerStack', 00H ; `string'
CONST	ENDS
;	COMDAT ??_C@_0O@OCDFBOHM@i3ElementBase@
CONST	SEGMENT
??_C@_0O@OCDFBOHM@i3ElementBase@ DB 'i3ElementBase', 00H ; `string'
CONST	ENDS
;	COMDAT ??_7?$i3MetaTemplate@Vi3PointerStack@@@@6B@
CONST	SEGMENT
??_7?$i3MetaTemplate@Vi3PointerStack@@@@6B@ DD FLAT:??_R4?$i3MetaTemplate@Vi3PointerStack@@@@6B@ ; i3MetaTemplate<i3PointerStack>::`vftable'
	DD	FLAT:??_E?$i3MetaTemplate@Vi3PointerStack@@@@UAEPAXI@Z
	DD	FLAT:?CreateInstance@?$i3MetaTemplate@Vi3PointerStack@@@@UAEPAVi3ElementBase@@W4I3_CLASSMETA_TYPE@@@Z
	DD	FLAT:?BindInstance@?$i3MetaTemplate@Vi3PointerStack@@@@UAEPAVi3ElementBase@@PAXW4I3_CLASSMETA_TYPE@@@Z
CONST	ENDS
_DATA	SEGMENT
?s_pClassMetai3PointerStack@i3PointerStack@@2PAVi3ClassMeta@@A DD FLAT:?s_ClassMetai3PointerStack@@3V?$i3MetaTemplate@Vi3PointerStack@@@@A ; i3PointerStack::s_pClassMetai3PointerStack
_DATA	ENDS
PUBLIC	?__empty_global_delete@@YAXPAX@Z		; __empty_global_delete
PUBLIC	?__global_delete@@YAXPAX@Z			; __global_delete
PUBLIC	?__empty_global_delete@@YAXPAXI@Z		; __empty_global_delete
PUBLIC	?__global_delete@@YAXPAXI@Z			; __global_delete
PUBLIC	?__global_array_delete@@YAXPAX@Z		; __global_array_delete
PUBLIC	?__global_array_delete@@YAXPAXI@Z		; __global_array_delete
PUBLIC	?GetMemoryPool@i3ClassMeta@@QAEPAVi3MemoryPool@@XZ ; i3ClassMeta::GetMemoryPool
PUBLIC	?SetMemoryPool@i3ClassMeta@@QAEXPAVi3MemoryPool@@@Z ; i3ClassMeta::SetMemoryPool
PUBLIC	?GetClassSize@i3ClassMeta@@QAEIXZ		; i3ClassMeta::GetClassSize
PUBLIC	?GetClassNameA@i3ClassMeta@@QAEPADXZ		; i3ClassMeta::GetClassNameA
PUBLIC	?IsExactTypeOf@i3ClassMeta@@QAE_NPAV1@@Z	; i3ClassMeta::IsExactTypeOf
PUBLIC	?SetStyle@i3ClassMeta@@QAEXI@Z			; i3ClassMeta::SetStyle
PUBLIC	?GetStyle@i3ClassMeta@@QAEIXZ			; i3ClassMeta::GetStyle
PUBLIC	?AddStyle@i3ClassMeta@@QAEXI@Z			; i3ClassMeta::AddStyle
PUBLIC	?RemoveStyle@i3ClassMeta@@QAEXI@Z		; i3ClassMeta::RemoveStyle
PUBLIC	?IsStyle@i3ClassMeta@@QAEHI@Z			; i3ClassMeta::IsStyle
PUBLIC	?IsAbstractClass@i3ClassMeta@@QAEHXZ		; i3ClassMeta::IsAbstractClass
PUBLIC	?IsConcreteClass@i3ClassMeta@@QAEHXZ		; i3ClassMeta::IsConcreteClass
PUBLIC	?GetBaseClassMeta@i3ClassMeta@@QAEPAV1@XZ	; i3ClassMeta::GetBaseClassMeta
PUBLIC	?getHashCode@i3ClassMeta@@QAEIXZ		; i3ClassMeta::getHashCode
PUBLIC	??0i3ClassMeta@@QAE@ABV0@@Z			; i3ClassMeta::i3ClassMeta
PUBLIC	??4i3ClassMeta@@QAEAAV0@ABV0@@Z			; i3ClassMeta::operator=
PUBLIC	??_Gi3ClassMeta@@UAEPAXI@Z			; i3ClassMeta::`scalar deleting destructor'
PUBLIC	??_Ei3ClassMeta@@UAEPAXI@Z			; i3ClassMeta::`vector deleting destructor'
PUBLIC	?GetClassMeta@i3ElementBase@@SAPAVi3ClassMeta@@XZ ; i3ElementBase::GetClassMeta
PUBLIC	?GetRefCount@i3ElementBase@@QAEHXZ		; i3ElementBase::GetRefCount
PUBLIC	?__SetMemoryPool@i3ElementBase@@QAEXPAVi3MemoryPool@@@Z ; i3ElementBase::__SetMemoryPool
PUBLIC	?__GetMemoryPool@i3ElementBase@@QAEPAVi3MemoryPool@@XZ ; i3ElementBase::__GetMemoryPool
PUBLIC	?IsExactTypeOf@i3ElementBase@@QAE_NPAVi3ClassMeta@@@Z ; i3ElementBase::IsExactTypeOf
PUBLIC	?IsTypeOf@i3ElementBase@@QAE_NPAVi3ClassMeta@@@Z ; i3ElementBase::IsTypeOf
PUBLIC	?AddRef@i3ElementBase@@QAEHXZ			; i3ElementBase::AddRef
PUBLIC	?_internal_SetRefCount@i3ElementBase@@QAEXH@Z	; i3ElementBase::_internal_SetRefCount
PUBLIC	??0i3ElementBase@@QAE@ABV0@@Z			; i3ElementBase::i3ElementBase
PUBLIC	??4i3ElementBase@@QAEAAV0@ABV0@@Z		; i3ElementBase::operator=
PUBLIC	??_Gi3ElementBase@@UAEPAXI@Z			; i3ElementBase::`scalar deleting destructor'
PUBLIC	??_Ei3ElementBase@@UAEPAXI@Z			; i3ElementBase::`vector deleting destructor'
PUBLIC	??0i3MemoryPool@@QAE@ABV0@@Z			; i3MemoryPool::i3MemoryPool
PUBLIC	??4i3MemoryPool@@QAEAAV0@ABV0@@Z		; i3MemoryPool::operator=
PUBLIC	??_Gi3MemoryPool@@UAEPAXI@Z			; i3MemoryPool::`scalar deleting destructor'
PUBLIC	??_Ei3MemoryPool@@UAEPAXI@Z			; i3MemoryPool::`vector deleting destructor'
PUBLIC	?GetClassMeta@i3PointerStack@@SAPAVi3ClassMeta@@XZ ; i3PointerStack::GetClassMeta
PUBLIC	?GetMeta@i3PointerStack@@UAEPAVi3ClassMeta@@XZ	; i3PointerStack::GetMeta
PUBLIC	?RegisterMeta@i3PointerStack@@SAXXZ		; i3PointerStack::RegisterMeta
PUBLIC	?SetConcreteClass@i3PointerStack@@SAXPAVi3ClassMeta@@@Z ; i3PointerStack::SetConcreteClass
PUBLIC	?SetGhostClass@i3PointerStack@@SAXPAVi3ClassMeta@@@Z ; i3PointerStack::SetGhostClass
PUBLIC	?_NewObject@i3PointerStack@@SAPAV1@XZ		; i3PointerStack::_NewObject
PUBLIC	?_NewObjectRef@i3PointerStack@@SAPAV1@XZ	; i3PointerStack::_NewObjectRef
PUBLIC	?_BindObject@i3PointerStack@@SAPAV1@PAX@Z	; i3PointerStack::_BindObject
PUBLIC	?_BindObjectRef@i3PointerStack@@SAPAV1@PAX@Z	; i3PointerStack::_BindObjectRef
PUBLIC	?_NewObjectByType@i3PointerStack@@SAPAV1@W4I3_CLASSMETA_TYPE@@@Z ; i3PointerStack::_NewObjectByType
PUBLIC	?_NewObjectRefByType@i3PointerStack@@SAPAV1@W4I3_CLASSMETA_TYPE@@@Z ; i3PointerStack::_NewObjectRefByType
PUBLIC	?_BindObjectByType@i3PointerStack@@SAPAV1@PAXW4I3_CLASSMETA_TYPE@@@Z ; i3PointerStack::_BindObjectByType
PUBLIC	?_BindObjectRefByType@i3PointerStack@@SAPAV1@PAXW4I3_CLASSMETA_TYPE@@@Z ; i3PointerStack::_BindObjectRefByType
PUBLIC	?AdjustBufferSize@i3PointerStack@@IAEXI@Z	; i3PointerStack::AdjustBufferSize
PUBLIC	??0i3PointerStack@@QAE@I@Z			; i3PointerStack::i3PointerStack
PUBLIC	??1i3PointerStack@@UAE@XZ			; i3PointerStack::~i3PointerStack
PUBLIC	?getCount@i3PointerStack@@QAEIXZ		; i3PointerStack::getCount
PUBLIC	?getBuffer@i3PointerStack@@QAEPAXXZ		; i3PointerStack::getBuffer
PUBLIC	?getTop@i3PointerStack@@QAEPAXXZ		; i3PointerStack::getTop
PUBLIC	?setTop@i3PointerStack@@QAEXPAX@Z		; i3PointerStack::setTop
PUBLIC	?Push@i3PointerStack@@QAEXPAX@Z			; i3PointerStack::Push
PUBLIC	?PushToTop@i3PointerStack@@QAEXPAX@Z		; i3PointerStack::PushToTop
PUBLIC	?Pop@i3PointerStack@@QAE_NPAPAX@Z		; i3PointerStack::Pop
PUBLIC	?IsEmpty@i3PointerStack@@QAE_NXZ		; i3PointerStack::IsEmpty
PUBLIC	?Reset@i3PointerStack@@QAEX_N@Z			; i3PointerStack::Reset
PUBLIC	??0i3PointerStack@@QAE@ABV0@@Z			; i3PointerStack::i3PointerStack
PUBLIC	??4i3PointerStack@@QAEAAV0@ABV0@@Z		; i3PointerStack::operator=
PUBLIC	??_Fi3PointerStack@@QAEXXZ			; i3PointerStack::`default constructor closure'
PUBLIC	??_Gi3PointerStack@@UAEPAXI@Z			; i3PointerStack::`scalar deleting destructor'
PUBLIC	??_Ei3PointerStack@@UAEPAXI@Z			; i3PointerStack::`vector deleting destructor'
PUBLIC	??0?$i3MetaTemplate@Vi3PointerStack@@@@QAE@IPAD0W4I3_CLASSMETA_TYPE@@@Z ; i3MetaTemplate<i3PointerStack>::i3MetaTemplate<i3PointerStack>
PUBLIC	??_7i3ClassMeta@@6B@				; i3ClassMeta::`vftable'
PUBLIC	??_7i3ElementBase@@6B@				; i3ElementBase::`vftable'
PUBLIC	??_7i3MemoryPool@@6B@				; i3MemoryPool::`vftable'
PUBLIC	??_7i3PointerStack@@6B@				; i3PointerStack::`vftable'
PUBLIC	??_C@_0GJ@KIDCANPD@E?3?2Proyectos?2JuegosOnlineproyec@ ; `string'
PUBLIC	??_R4i3ElementBase@@6B@				; i3ElementBase::`RTTI Complete Object Locator'
PUBLIC	??_R0?AVi3ElementBase@@@8			; i3ElementBase `RTTI Type Descriptor'
PUBLIC	??_R3i3ElementBase@@8				; i3ElementBase::`RTTI Class Hierarchy Descriptor'
PUBLIC	??_R2i3ElementBase@@8				; i3ElementBase::`RTTI Base Class Array'
PUBLIC	??_R1A@?0A@EA@i3ElementBase@@8			; i3ElementBase::`RTTI Base Class Descriptor at (0,-1,0,64)'
PUBLIC	??_R4i3MemoryPool@@6B@				; i3MemoryPool::`RTTI Complete Object Locator'
PUBLIC	??_R0?AVi3MemoryPool@@@8			; i3MemoryPool `RTTI Type Descriptor'
PUBLIC	??_R3i3MemoryPool@@8				; i3MemoryPool::`RTTI Class Hierarchy Descriptor'
PUBLIC	??_R2i3MemoryPool@@8				; i3MemoryPool::`RTTI Base Class Array'
PUBLIC	??_R1A@?0A@EA@i3MemoryPool@@8			; i3MemoryPool::`RTTI Base Class Descriptor at (0,-1,0,64)'
PUBLIC	??_R4i3ClassMeta@@6B@				; i3ClassMeta::`RTTI Complete Object Locator'
PUBLIC	??_R4i3PointerStack@@6B@			; i3PointerStack::`RTTI Complete Object Locator'
PUBLIC	??_R0?AVi3PointerStack@@@8			; i3PointerStack `RTTI Type Descriptor'
PUBLIC	??_R3i3PointerStack@@8				; i3PointerStack::`RTTI Class Hierarchy Descriptor'
PUBLIC	??_R2i3PointerStack@@8				; i3PointerStack::`RTTI Base Class Array'
PUBLIC	??_R1A@?0A@EA@i3PointerStack@@8			; i3PointerStack::`RTTI Base Class Descriptor at (0,-1,0,64)'
EXTRN	??_M@YGXPAXIIP6EX0@Z@Z:PROC			; `eh vector destructor iterator'
EXTRN	__purecall:PROC
EXTRN	??3@YAXPAX@Z:PROC				; operator delete
EXTRN	??3@YAXPAXI@Z:PROC				; operator delete
EXTRN	??_V@YAXPAX@Z:PROC				; operator delete[]
EXTRN	??_V@YAXPAXI@Z:PROC				; operator delete[]
EXTRN	_atexit:PROC
EXTRN	___std_terminate:PROC
EXTRN	?AllocTool@i3mem@@YAPAXHHHPBDH@Z:PROC		; i3mem::AllocTool
EXTRN	?FreeTool@i3mem@@YAXPAXPBDH@Z:PROC		; i3mem::FreeTool
EXTRN	??0i3ClassMeta@@QAE@IPAD0W4I3_CLASSMETA_TYPE@@@Z:PROC ; i3ClassMeta::i3ClassMeta
EXTRN	??1i3ClassMeta@@UAE@XZ:PROC			; i3ClassMeta::~i3ClassMeta
EXTRN	?CreateInstance@i3ClassMeta@@UAEPAVi3ElementBase@@W4I3_CLASSMETA_TYPE@@@Z:PROC ; i3ClassMeta::CreateInstance
EXTRN	?BindInstance@i3ClassMeta@@UAEPAVi3ElementBase@@PAXW4I3_CLASSMETA_TYPE@@@Z:PROC ; i3ClassMeta::BindInstance
EXTRN	?IsTypeOf@i3ClassMeta@@QAE_NPAV1@@Z:PROC	; i3ClassMeta::IsTypeOf
EXTRN	?Register@i3ClassMeta@@QAEXXZ:PROC		; i3ClassMeta::Register
EXTRN	?GetConcreteClass@i3ClassMeta@@QAEPAV1@W4I3_CLASSMETA_TYPE@@@Z:PROC ; i3ClassMeta::GetConcreteClass
EXTRN	?SetConcreteClass@i3ClassMeta@@QAEXPAV1@@Z:PROC	; i3ClassMeta::SetConcreteClass
EXTRN	?SetGhostClass@i3ClassMeta@@QAEXPAV1@@Z:PROC	; i3ClassMeta::SetGhostClass
EXTRN	?GetMeta@i3ElementBase@@UAEPAVi3ClassMeta@@XZ:PROC ; i3ElementBase::GetMeta
EXTRN	??0i3ElementBase@@QAE@XZ:PROC			; i3ElementBase::i3ElementBase
EXTRN	??1i3ElementBase@@UAE@XZ:PROC			; i3ElementBase::~i3ElementBase
EXTRN	??2i3ElementBase@@SAPAXI@Z:PROC			; i3ElementBase::operator new
EXTRN	??2i3ElementBase@@SAPAXIPAX@Z:PROC		; i3ElementBase::operator new
EXTRN	??3i3ElementBase@@SAXPAX@Z:PROC			; i3ElementBase::operator delete
EXTRN	??3i3ElementBase@@SAXPAX0@Z:PROC		; i3ElementBase::operator delete
EXTRN	?CopyTo@i3ElementBase@@UAEXPAV1@W4I3_COPY_METHOD@@@Z:PROC ; i3ElementBase::CopyTo
EXTRN	??1i3MemoryPool@@UAE@XZ:PROC			; i3MemoryPool::~i3MemoryPool
EXTRN	@__security_check_cookie@4:PROC
EXTRN	___CxxFrameHandler3:PROC
EXTRN	_memmove:PROC
EXTRN	?Realloc@i3mem@@3P6APAXPAXHHPBDH@ZA:DWORD	; i3mem::Realloc
EXTRN	?s_pClassMetai3ElementBase@i3ElementBase@@2PAVi3ClassMeta@@A:DWORD ; i3ElementBase::s_pClassMetai3ElementBase
EXTRN	___security_cookie:DWORD
_BSS	SEGMENT
?s_ClassMetai3PointerStack@@3V?$i3MetaTemplate@Vi3PointerStack@@@@A DB 038H DUP (?) ; s_ClassMetai3PointerStack
_BSS	ENDS
CRT$XCU	SEGMENT
?s_ClassMetai3PointerStack$initializer$@@3P6AXXZA DD FLAT:??__Es_ClassMetai3PointerStack@@YAXXZ ; s_ClassMetai3PointerStack$initializer$
CRT$XCU	ENDS
;	COMDAT ??_R1A@?0A@EA@i3PointerStack@@8
rdata$r	SEGMENT
??_R1A@?0A@EA@i3PointerStack@@8 DD FLAT:??_R0?AVi3PointerStack@@@8 ; i3PointerStack::`RTTI Base Class Descriptor at (0,-1,0,64)'
	DD	01H
	DD	00H
	DD	0ffffffffH
	DD	00H
	DD	040H
	DD	FLAT:??_R3i3PointerStack@@8
rdata$r	ENDS
;	COMDAT ??_R2i3PointerStack@@8
rdata$r	SEGMENT
??_R2i3PointerStack@@8 DD FLAT:??_R1A@?0A@EA@i3PointerStack@@8 ; i3PointerStack::`RTTI Base Class Array'
	DD	FLAT:??_R1A@?0A@EA@i3ElementBase@@8
rdata$r	ENDS
;	COMDAT ??_R3i3PointerStack@@8
rdata$r	SEGMENT
??_R3i3PointerStack@@8 DD 00H				; i3PointerStack::`RTTI Class Hierarchy Descriptor'
	DD	00H
	DD	02H
	DD	FLAT:??_R2i3PointerStack@@8
rdata$r	ENDS
;	COMDAT ??_R0?AVi3PointerStack@@@8
data$rs	SEGMENT
??_R0?AVi3PointerStack@@@8 DD FLAT:??_7type_info@@6B@	; i3PointerStack `RTTI Type Descriptor'
	DD	00H
	DB	'.?AVi3PointerStack@@', 00H
data$rs	ENDS
;	COMDAT ??_R4i3PointerStack@@6B@
rdata$r	SEGMENT
??_R4i3PointerStack@@6B@ DD 00H				; i3PointerStack::`RTTI Complete Object Locator'
	DD	00H
	DD	00H
	DD	FLAT:??_R0?AVi3PointerStack@@@8
	DD	FLAT:??_R3i3PointerStack@@8
rdata$r	ENDS
;	COMDAT ??_R4i3ClassMeta@@6B@
rdata$r	SEGMENT
??_R4i3ClassMeta@@6B@ DD 00H				; i3ClassMeta::`RTTI Complete Object Locator'
	DD	00H
	DD	00H
	DD	FLAT:??_R0?AVi3ClassMeta@@@8
	DD	FLAT:??_R3i3ClassMeta@@8
rdata$r	ENDS
;	COMDAT ??_R1A@?0A@EA@i3MemoryPool@@8
rdata$r	SEGMENT
??_R1A@?0A@EA@i3MemoryPool@@8 DD FLAT:??_R0?AVi3MemoryPool@@@8 ; i3MemoryPool::`RTTI Base Class Descriptor at (0,-1,0,64)'
	DD	00H
	DD	00H
	DD	0ffffffffH
	DD	00H
	DD	040H
	DD	FLAT:??_R3i3MemoryPool@@8
rdata$r	ENDS
;	COMDAT ??_R2i3MemoryPool@@8
rdata$r	SEGMENT
??_R2i3MemoryPool@@8 DD FLAT:??_R1A@?0A@EA@i3MemoryPool@@8 ; i3MemoryPool::`RTTI Base Class Array'
rdata$r	ENDS
;	COMDAT ??_R3i3MemoryPool@@8
rdata$r	SEGMENT
??_R3i3MemoryPool@@8 DD 00H				; i3MemoryPool::`RTTI Class Hierarchy Descriptor'
	DD	00H
	DD	01H
	DD	FLAT:??_R2i3MemoryPool@@8
rdata$r	ENDS
;	COMDAT ??_R0?AVi3MemoryPool@@@8
data$rs	SEGMENT
??_R0?AVi3MemoryPool@@@8 DD FLAT:??_7type_info@@6B@	; i3MemoryPool `RTTI Type Descriptor'
	DD	00H
	DB	'.?AVi3MemoryPool@@', 00H
data$rs	ENDS
;	COMDAT ??_R4i3MemoryPool@@6B@
rdata$r	SEGMENT
??_R4i3MemoryPool@@6B@ DD 00H				; i3MemoryPool::`RTTI Complete Object Locator'
	DD	00H
	DD	00H
	DD	FLAT:??_R0?AVi3MemoryPool@@@8
	DD	FLAT:??_R3i3MemoryPool@@8
rdata$r	ENDS
;	COMDAT ??_R1A@?0A@EA@i3ElementBase@@8
rdata$r	SEGMENT
??_R1A@?0A@EA@i3ElementBase@@8 DD FLAT:??_R0?AVi3ElementBase@@@8 ; i3ElementBase::`RTTI Base Class Descriptor at (0,-1,0,64)'
	DD	00H
	DD	00H
	DD	0ffffffffH
	DD	00H
	DD	040H
	DD	FLAT:??_R3i3ElementBase@@8
rdata$r	ENDS
;	COMDAT ??_R2i3ElementBase@@8
rdata$r	SEGMENT
??_R2i3ElementBase@@8 DD FLAT:??_R1A@?0A@EA@i3ElementBase@@8 ; i3ElementBase::`RTTI Base Class Array'
rdata$r	ENDS
;	COMDAT ??_R3i3ElementBase@@8
rdata$r	SEGMENT
??_R3i3ElementBase@@8 DD 00H				; i3ElementBase::`RTTI Class Hierarchy Descriptor'
	DD	00H
	DD	01H
	DD	FLAT:??_R2i3ElementBase@@8
rdata$r	ENDS
;	COMDAT ??_R0?AVi3ElementBase@@@8
data$rs	SEGMENT
??_R0?AVi3ElementBase@@@8 DD FLAT:??_7type_info@@6B@	; i3ElementBase `RTTI Type Descriptor'
	DD	00H
	DB	'.?AVi3ElementBase@@', 00H
data$rs	ENDS
;	COMDAT ??_R4i3ElementBase@@6B@
rdata$r	SEGMENT
??_R4i3ElementBase@@6B@ DD 00H				; i3ElementBase::`RTTI Complete Object Locator'
	DD	00H
	DD	00H
	DD	FLAT:??_R0?AVi3ElementBase@@@8
	DD	FLAT:??_R3i3ElementBase@@8
rdata$r	ENDS
;	COMDAT ??_C@_0GJ@KIDCANPD@E?3?2Proyectos?2JuegosOnlineproyec@
CONST	SEGMENT
??_C@_0GJ@KIDCANPD@E?3?2Proyectos?2JuegosOnlineproyec@ DB 'E:\Proyectos\J'
	DB	'uegosOnlineproyectos\PB\pbblow\Piercing Blow Remake\i3Server\'
	DB	'src\i3Base\i3PointerStack.cpp', 00H		; `string'
CONST	ENDS
;	COMDAT ??_7i3PointerStack@@6B@
CONST	SEGMENT
??_7i3PointerStack@@6B@ DD FLAT:??_R4i3PointerStack@@6B@ ; i3PointerStack::`vftable'
	DD	FLAT:?GetMeta@i3PointerStack@@UAEPAVi3ClassMeta@@XZ
	DD	FLAT:??_Ei3PointerStack@@UAEPAXI@Z
	DD	FLAT:?CopyTo@i3ElementBase@@UAEXPAV1@W4I3_COPY_METHOD@@@Z
CONST	ENDS
;	COMDAT ??_7i3MemoryPool@@6B@
CONST	SEGMENT
??_7i3MemoryPool@@6B@ DD FLAT:??_R4i3MemoryPool@@6B@	; i3MemoryPool::`vftable'
	DD	FLAT:??_Ei3MemoryPool@@UAEPAXI@Z
	DD	FLAT:__purecall
	DD	FLAT:__purecall
CONST	ENDS
;	COMDAT ??_7i3ElementBase@@6B@
CONST	SEGMENT
??_7i3ElementBase@@6B@ DD FLAT:??_R4i3ElementBase@@6B@	; i3ElementBase::`vftable'
	DD	FLAT:?GetMeta@i3ElementBase@@UAEPAVi3ClassMeta@@XZ
	DD	FLAT:??_Ei3ElementBase@@UAEPAXI@Z
	DD	FLAT:?CopyTo@i3ElementBase@@UAEXPAV1@W4I3_COPY_METHOD@@@Z
CONST	ENDS
;	COMDAT ??_7i3ClassMeta@@6B@
CONST	SEGMENT
??_7i3ClassMeta@@6B@ DD FLAT:??_R4i3ClassMeta@@6B@	; i3ClassMeta::`vftable'
	DD	FLAT:??_Ei3ClassMeta@@UAEPAXI@Z
	DD	FLAT:?CreateInstance@i3ClassMeta@@UAEPAVi3ElementBase@@W4I3_CLASSMETA_TYPE@@@Z
	DD	FLAT:?BindInstance@i3ClassMeta@@UAEPAVi3ElementBase@@PAXW4I3_CLASSMETA_TYPE@@@Z
CONST	ENDS
;	COMDAT xdata$x
xdata$x	SEGMENT
__unwindtable$?BindInstance@?$i3MetaTemplate@Vi3PointerStack@@@@UAEPAVi3ElementBase@@PAXW4I3_CLASSMETA_TYPE@@@Z DD 0ffffffffH
	DD	FLAT:__unwindfunclet$?BindInstance@?$i3MetaTemplate@Vi3PointerStack@@@@UAEPAVi3ElementBase@@PAXW4I3_CLASSMETA_TYPE@@@Z$0
__ehfuncinfo$?BindInstance@?$i3MetaTemplate@Vi3PointerStack@@@@UAEPAVi3ElementBase@@PAXW4I3_CLASSMETA_TYPE@@@Z DD 019930522H
	DD	01H
	DD	FLAT:__unwindtable$?BindInstance@?$i3MetaTemplate@Vi3PointerStack@@@@UAEPAVi3ElementBase@@PAXW4I3_CLASSMETA_TYPE@@@Z
	DD	2 DUP(00H)
	DD	2 DUP(00H)
	DD	00H
	DD	01H
xdata$x	ENDS
;	COMDAT xdata$x
xdata$x	SEGMENT
__unwindtable$?CreateInstance@?$i3MetaTemplate@Vi3PointerStack@@@@UAEPAVi3ElementBase@@W4I3_CLASSMETA_TYPE@@@Z DD 0ffffffffH
	DD	FLAT:__unwindfunclet$?CreateInstance@?$i3MetaTemplate@Vi3PointerStack@@@@UAEPAVi3ElementBase@@W4I3_CLASSMETA_TYPE@@@Z$0
__ehfuncinfo$?CreateInstance@?$i3MetaTemplate@Vi3PointerStack@@@@UAEPAVi3ElementBase@@W4I3_CLASSMETA_TYPE@@@Z DD 019930522H
	DD	01H
	DD	FLAT:__unwindtable$?CreateInstance@?$i3MetaTemplate@Vi3PointerStack@@@@UAEPAVi3ElementBase@@W4I3_CLASSMETA_TYPE@@@Z
	DD	2 DUP(00H)
	DD	2 DUP(00H)
	DD	00H
	DD	01H
xdata$x	ENDS
;	COMDAT xdata$x
xdata$x	SEGMENT
__unwindtable$??_Ei3PointerStack@@UAEPAXI@Z DD 0ffffffffH
	DD	FLAT:___std_terminate
__ehfuncinfo$??_Ei3PointerStack@@UAEPAXI@Z DD 019930522H
	DD	01H
	DD	FLAT:__unwindtable$??_Ei3PointerStack@@UAEPAXI@Z
	DD	2 DUP(00H)
	DD	2 DUP(00H)
	DD	00H
	DD	05H
xdata$x	ENDS
;	COMDAT xdata$x
xdata$x	SEGMENT
__unwindtable$??_Gi3PointerStack@@UAEPAXI@Z DD 0ffffffffH
	DD	FLAT:___std_terminate
__ehfuncinfo$??_Gi3PointerStack@@UAEPAXI@Z DD 019930522H
	DD	01H
	DD	FLAT:__unwindtable$??_Gi3PointerStack@@UAEPAXI@Z
	DD	2 DUP(00H)
	DD	2 DUP(00H)
	DD	00H
	DD	05H
xdata$x	ENDS
;	COMDAT xdata$x
xdata$x	SEGMENT
__ehfuncinfo$??1i3PointerStack@@UAE@XZ DD 019930522H
	DD	00H
	DD	00H
	DD	2 DUP(00H)
	DD	2 DUP(00H)
	DD	00H
	DD	05H
xdata$x	ENDS
;	COMDAT xdata$x
xdata$x	SEGMENT
__ehfuncinfo$??_Ei3MemoryPool@@UAEPAXI@Z DD 019930522H
	DD	00H
	DD	00H
	DD	2 DUP(00H)
	DD	2 DUP(00H)
	DD	00H
	DD	05H
xdata$x	ENDS
;	COMDAT xdata$x
xdata$x	SEGMENT
__ehfuncinfo$??_Ei3ElementBase@@UAEPAXI@Z DD 019930522H
	DD	00H
	DD	00H
	DD	2 DUP(00H)
	DD	2 DUP(00H)
	DD	00H
	DD	05H
xdata$x	ENDS
;	COMDAT xdata$x
xdata$x	SEGMENT
__ehfuncinfo$??_Ei3ClassMeta@@UAEPAXI@Z DD 019930522H
	DD	00H
	DD	00H
	DD	2 DUP(00H)
	DD	2 DUP(00H)
	DD	00H
	DD	05H
xdata$x	ENDS
; Function compile flags: /Ogtp
;	COMDAT ??__Fs_ClassMetai3PointerStack@@YAXXZ
text$yd	SEGMENT
??__Fs_ClassMetai3PointerStack@@YAXXZ PROC		; `dynamic atexit destructor for 's_ClassMetai3PointerStack'', COMDAT
  00000	b9 00 00 00 00	 mov	 ecx, OFFSET ?s_ClassMetai3PointerStack@@3V?$i3MetaTemplate@Vi3PointerStack@@@@A
  00005	e9 00 00 00 00	 jmp	 ??1i3ClassMeta@@UAE@XZ	; i3ClassMeta::~i3ClassMeta
??__Fs_ClassMetai3PointerStack@@YAXXZ ENDP		; `dynamic atexit destructor for 's_ClassMetai3PointerStack''
text$yd	ENDS
; Function compile flags: /Ogtp
; File E:\Proyectos\JuegosOnlineproyectos\PB\pbblow\Piercing Blow Remake\i3Server\src\i3Base\i3PointerStack.cpp
; File E:\Proyectos\JuegosOnlineproyectos\PB\pbblow\Piercing Blow Remake\i3Server\include\i3Base\i3MetaTemplate.h
; File E:\Proyectos\JuegosOnlineproyectos\PB\pbblow\Piercing Blow Remake\i3Server\src\i3Base\i3PointerStack.cpp
; File E:\Proyectos\JuegosOnlineproyectos\PB\pbblow\Piercing Blow Remake\i3Server\include\i3Base\i3MetaTemplate.h
; File E:\Proyectos\JuegosOnlineproyectos\PB\pbblow\Piercing Blow Remake\i3Server\src\i3Base\i3PointerStack.cpp
;	COMDAT ??__Es_ClassMetai3PointerStack@@YAXXZ
text$di	SEGMENT
??__Es_ClassMetai3PointerStack@@YAXXZ PROC		; `dynamic initializer for 's_ClassMetai3PointerStack'', COMDAT
; File E:\Proyectos\JuegosOnlineproyectos\PB\pbblow\Piercing Blow Remake\i3Server\include\i3Base\i3MetaTemplate.h

; 28   : : i3ClassMeta( classSz, pszClassName, pszBaseClassName, type)

  00000	6a 00		 push	 0
  00002	68 00 00 00 00	 push	 OFFSET ??_C@_0O@OCDFBOHM@i3ElementBase@
  00007	68 00 00 00 00	 push	 OFFSET ??_C@_0P@PLNFABKM@i3PointerStack@
  0000c	6a 20		 push	 32			; 00000020H
  0000e	b9 00 00 00 00	 mov	 ecx, OFFSET ?s_ClassMetai3PointerStack@@3V?$i3MetaTemplate@Vi3PointerStack@@@@A
  00013	e8 00 00 00 00	 call	 ??0i3ClassMeta@@QAE@IPAD0W4I3_CLASSMETA_TYPE@@@Z ; i3ClassMeta::i3ClassMeta
; File E:\Proyectos\JuegosOnlineproyectos\PB\pbblow\Piercing Blow Remake\i3Server\src\i3Base\i3PointerStack.cpp

; 4    : I3_CLASS_INSTANCE( i3PointerStack, i3ElementBase);

  00018	68 00 00 00 00	 push	 OFFSET ??__Fs_ClassMetai3PointerStack@@YAXXZ ; `dynamic atexit destructor for 's_ClassMetai3PointerStack''
; File E:\Proyectos\JuegosOnlineproyectos\PB\pbblow\Piercing Blow Remake\i3Server\include\i3Base\i3MetaTemplate.h

; 29   : {

  0001d	c7 05 00 00 00
	00 00 00 00 00	 mov	 DWORD PTR ?s_ClassMetai3PointerStack@@3V?$i3MetaTemplate@Vi3PointerStack@@@@A, OFFSET ??_7?$i3MetaTemplate@Vi3PointerStack@@@@6B@
; File E:\Proyectos\JuegosOnlineproyectos\PB\pbblow\Piercing Blow Remake\i3Server\src\i3Base\i3PointerStack.cpp

; 4    : I3_CLASS_INSTANCE( i3PointerStack, i3ElementBase);

  00027	e8 00 00 00 00	 call	 _atexit
  0002c	59		 pop	 ecx
  0002d	c3		 ret	 0
??__Es_ClassMetai3PointerStack@@YAXXZ ENDP		; `dynamic initializer for 's_ClassMetai3PointerStack''
text$di	ENDS
; Function compile flags: /Ogtp
;	COMDAT ??_G?$i3MetaTemplate@Vi3PointerStack@@@@UAEPAXI@Z
_TEXT	SEGMENT
___flags$ = 8						; size = 4
??_G?$i3MetaTemplate@Vi3PointerStack@@@@UAEPAXI@Z PROC	; i3MetaTemplate<i3PointerStack>::`scalar deleting destructor', COMDAT
; _this$ = ecx
  00000	55		 push	 ebp
  00001	8b ec		 mov	 ebp, esp
  00003	56		 push	 esi
  00004	8b f1		 mov	 esi, ecx
  00006	e8 00 00 00 00	 call	 ??1i3ClassMeta@@UAE@XZ	; i3ClassMeta::~i3ClassMeta
  0000b	f6 45 08 01	 test	 BYTE PTR ___flags$[ebp], 1
  0000f	74 0b		 je	 SHORT $LN10@scalar
  00011	6a 38		 push	 56			; 00000038H
  00013	56		 push	 esi
  00014	e8 00 00 00 00	 call	 ??3@YAXPAXI@Z		; operator delete
  00019	83 c4 08	 add	 esp, 8
$LN10@scalar:
  0001c	8b c6		 mov	 eax, esi
  0001e	5e		 pop	 esi
  0001f	5d		 pop	 ebp
  00020	c2 04 00	 ret	 4
??_G?$i3MetaTemplate@Vi3PointerStack@@@@UAEPAXI@Z ENDP	; i3MetaTemplate<i3PointerStack>::`scalar deleting destructor'
_TEXT	ENDS
; Function compile flags: /Ogtp
; File E:\Proyectos\JuegosOnlineproyectos\PB\pbblow\Piercing Blow Remake\i3Server\include\i3Base\i3MetaTemplate.h
; File E:\Proyectos\JuegosOnlineproyectos\PB\pbblow\Piercing Blow Remake\i3Server\src\i3Base\i3PointerStack.cpp
; File E:\Proyectos\JuegosOnlineproyectos\PB\pbblow\Piercing Blow Remake\i3Server\include\i3Base\i3MetaTemplate.h
; File E:\Proyectos\JuegosOnlineproyectos\PB\pbblow\Piercing Blow Remake\i3Server\src\i3Base\i3PointerStack.cpp
; File E:\Proyectos\JuegosOnlineproyectos\PB\pbblow\Piercing Blow Remake\i3Server\include\i3Base\i3MetaTemplate.h
;	COMDAT ?BindInstance@?$i3MetaTemplate@Vi3PointerStack@@@@UAEPAVi3ElementBase@@PAXW4I3_CLASSMETA_TYPE@@@Z
_TEXT	SEGMENT
__$EHRec$ = -12						; size = 12
_pBuf$ = 8						; size = 4
_type$ = 12						; size = 4
$T2 = 12						; size = 4
?BindInstance@?$i3MetaTemplate@Vi3PointerStack@@@@UAEPAVi3ElementBase@@PAXW4I3_CLASSMETA_TYPE@@@Z PROC ; i3MetaTemplate<i3PointerStack>::BindInstance, COMDAT
; _this$ = ecx

; 129  : 	{

  00000	55		 push	 ebp
  00001	8b ec		 mov	 ebp, esp
  00003	6a ff		 push	 -1
  00005	68 00 00 00 00	 push	 __ehhandler$?BindInstance@?$i3MetaTemplate@Vi3PointerStack@@@@UAEPAVi3ElementBase@@PAXW4I3_CLASSMETA_TYPE@@@Z
  0000a	64 a1 00 00 00
	00		 mov	 eax, DWORD PTR fs:0
  00010	50		 push	 eax
  00011	56		 push	 esi
  00012	a1 00 00 00 00	 mov	 eax, DWORD PTR ___security_cookie
  00017	33 c5		 xor	 eax, ebp
  00019	50		 push	 eax
  0001a	8d 45 f4	 lea	 eax, DWORD PTR __$EHRec$[ebp]
  0001d	64 a3 00 00 00
	00		 mov	 DWORD PTR fs:0, eax

; 130  : 		if( m_ProxyCount > 0)

  00023	83 79 30 00	 cmp	 DWORD PTR [ecx+48], 0
  00027	7e 26		 jle	 SHORT $LN2@BindInstan

; 131  : 		{
; 132  : 			i3ClassMeta * pMeta = GetConcreteClass( type);

  00029	ff 75 0c	 push	 DWORD PTR _type$[ebp]
  0002c	e8 00 00 00 00	 call	 ?GetConcreteClass@i3ClassMeta@@QAEPAV1@W4I3_CLASSMETA_TYPE@@@Z ; i3ClassMeta::GetConcreteClass

; 133  : 
; 134  : 			return pMeta->BindInstance( pBuf, I3_CLASSMETA_TYPE_GENERAL);

  00031	6a 00		 push	 0
  00033	ff 75 08	 push	 DWORD PTR _pBuf$[ebp]
  00036	8b c8		 mov	 ecx, eax
  00038	8b 10		 mov	 edx, DWORD PTR [eax]
  0003a	ff 52 08	 call	 DWORD PTR [edx+8]

; 144  : 	}

  0003d	8b 4d f4	 mov	 ecx, DWORD PTR __$EHRec$[ebp]
  00040	64 89 0d 00 00
	00 00		 mov	 DWORD PTR fs:0, ecx
  00047	59		 pop	 ecx
  00048	5e		 pop	 esi
  00049	8b e5		 mov	 esp, ebp
  0004b	5d		 pop	 ebp
  0004c	c2 08 00	 ret	 8
$LN2@BindInstan:

; 141  : 				return (i3ElementBase *) new( pBuf ) T;

  0004f	ff 75 08	 push	 DWORD PTR _pBuf$[ebp]
  00052	6a 20		 push	 32			; 00000020H
  00054	e8 00 00 00 00	 call	 ??2i3ElementBase@@SAPAXIPAX@Z ; i3ElementBase::operator new
  00059	8b f0		 mov	 esi, eax
  0005b	83 c4 08	 add	 esp, 8
  0005e	89 75 0c	 mov	 DWORD PTR $T2[ebp], esi
  00061	c7 45 fc 00 00
	00 00		 mov	 DWORD PTR __$EHRec$[ebp+8], 0
  00068	85 f6		 test	 esi, esi
  0006a	74 3d		 je	 SHORT $LN5@BindInstan
; File E:\Proyectos\JuegosOnlineproyectos\PB\pbblow\Piercing Blow Remake\i3Server\src\i3Base\i3PointerStack.cpp

; 7    : {

  0006c	8b ce		 mov	 ecx, esi
  0006e	e8 00 00 00 00	 call	 ??0i3ElementBase@@QAE@XZ ; i3ElementBase::i3ElementBase
  00073	c7 06 00 00 00
	00		 mov	 DWORD PTR [esi], OFFSET ??_7i3PointerStack@@6B@
; File E:\Proyectos\JuegosOnlineproyectos\PB\pbblow\Piercing Blow Remake\i3Server\include\i3Base\i3MetaTemplate.h

; 141  : 				return (i3ElementBase *) new( pBuf ) T;

  00079	8b c6		 mov	 eax, esi
; File E:\Proyectos\JuegosOnlineproyectos\PB\pbblow\Piercing Blow Remake\i3Server\src\i3Base\i3PointerStack.cpp

; 8    : 	m_pBuffer = NULL;

  0007b	c7 46 10 00 00
	00 00		 mov	 DWORD PTR [esi+16], 0

; 9    : 	m_Count = 0;

  00082	c7 46 14 00 00
	00 00		 mov	 DWORD PTR [esi+20], 0

; 10   : 	m_MaxCount = 0;

  00089	c7 46 18 00 00
	00 00		 mov	 DWORD PTR [esi+24], 0

; 11   : 	m_AllocUnit = allocUnit;

  00090	c7 46 1c 10 00
	00 00		 mov	 DWORD PTR [esi+28], 16	; 00000010H
; File E:\Proyectos\JuegosOnlineproyectos\PB\pbblow\Piercing Blow Remake\i3Server\include\i3Base\i3MetaTemplate.h

; 144  : 	}

  00097	8b 4d f4	 mov	 ecx, DWORD PTR __$EHRec$[ebp]
  0009a	64 89 0d 00 00
	00 00		 mov	 DWORD PTR fs:0, ecx
  000a1	59		 pop	 ecx
  000a2	5e		 pop	 esi
  000a3	8b e5		 mov	 esp, ebp
  000a5	5d		 pop	 ebp
  000a6	c2 08 00	 ret	 8
$LN5@BindInstan:

; 141  : 				return (i3ElementBase *) new( pBuf ) T;

  000a9	33 f6		 xor	 esi, esi
  000ab	8b c6		 mov	 eax, esi

; 144  : 	}

  000ad	8b 4d f4	 mov	 ecx, DWORD PTR __$EHRec$[ebp]
  000b0	64 89 0d 00 00
	00 00		 mov	 DWORD PTR fs:0, ecx
  000b7	59		 pop	 ecx
  000b8	5e		 pop	 esi
  000b9	8b e5		 mov	 esp, ebp
  000bb	5d		 pop	 ebp
  000bc	c2 08 00	 ret	 8
_TEXT	ENDS
;	COMDAT text$x
text$x	SEGMENT
__unwindfunclet$?BindInstance@?$i3MetaTemplate@Vi3PointerStack@@@@UAEPAVi3ElementBase@@PAXW4I3_CLASSMETA_TYPE@@@Z$0:
  00000	8b 45 08	 mov	 eax, DWORD PTR _pBuf$[ebp]
  00003	50		 push	 eax
  00004	8b 45 0c	 mov	 eax, DWORD PTR $T2[ebp]
  00007	50		 push	 eax
  00008	e8 00 00 00 00	 call	 ??3i3ElementBase@@SAXPAX0@Z ; i3ElementBase::operator delete
  0000d	83 c4 08	 add	 esp, 8
  00010	c3		 ret	 0
  00011	cc		 int	 3
  00012	cc		 int	 3
  00013	cc		 int	 3
  00014	cc		 int	 3
  00015	cc		 int	 3
__ehhandler$?BindInstance@?$i3MetaTemplate@Vi3PointerStack@@@@UAEPAVi3ElementBase@@PAXW4I3_CLASSMETA_TYPE@@@Z:
  00016	90		 npad	 1
  00017	90		 npad	 1
  00018	8b 54 24 08	 mov	 edx, DWORD PTR [esp+8]
  0001c	8d 42 0c	 lea	 eax, DWORD PTR [edx+12]
  0001f	8b 4a f8	 mov	 ecx, DWORD PTR [edx-8]
  00022	33 c8		 xor	 ecx, eax
  00024	e8 00 00 00 00	 call	 @__security_check_cookie@4
  00029	b8 00 00 00 00	 mov	 eax, OFFSET __ehfuncinfo$?BindInstance@?$i3MetaTemplate@Vi3PointerStack@@@@UAEPAVi3ElementBase@@PAXW4I3_CLASSMETA_TYPE@@@Z
  0002e	e9 00 00 00 00	 jmp	 ___CxxFrameHandler3
text$x	ENDS
?BindInstance@?$i3MetaTemplate@Vi3PointerStack@@@@UAEPAVi3ElementBase@@PAXW4I3_CLASSMETA_TYPE@@@Z ENDP ; i3MetaTemplate<i3PointerStack>::BindInstance
; Function compile flags: /Ogtp
; File E:\Proyectos\JuegosOnlineproyectos\PB\pbblow\Piercing Blow Remake\i3Server\include\i3Base\i3MetaTemplate.h
; File E:\Proyectos\JuegosOnlineproyectos\PB\pbblow\Piercing Blow Remake\i3Server\src\i3Base\i3PointerStack.cpp
; File E:\Proyectos\JuegosOnlineproyectos\PB\pbblow\Piercing Blow Remake\i3Server\include\i3Base\i3MetaTemplate.h
; File E:\Proyectos\JuegosOnlineproyectos\PB\pbblow\Piercing Blow Remake\i3Server\include\i3Base\i3ElementBase.h
; File E:\Proyectos\JuegosOnlineproyectos\PB\pbblow\Piercing Blow Remake\i3Server\include\i3Base\i3MetaTemplate.h
;	COMDAT ?CreateInstance@?$i3MetaTemplate@Vi3PointerStack@@@@UAEPAVi3ElementBase@@W4I3_CLASSMETA_TYPE@@@Z
_TEXT	SEGMENT
__$EHRec$ = -12						; size = 12
_type$ = 8						; size = 4
$T2 = 8							; size = 4
?CreateInstance@?$i3MetaTemplate@Vi3PointerStack@@@@UAEPAVi3ElementBase@@W4I3_CLASSMETA_TYPE@@@Z PROC ; i3MetaTemplate<i3PointerStack>::CreateInstance, COMDAT
; _this$ = ecx

; 97   : 	{

  00000	55		 push	 ebp
  00001	8b ec		 mov	 ebp, esp
  00003	6a ff		 push	 -1
  00005	68 00 00 00 00	 push	 __ehhandler$?CreateInstance@?$i3MetaTemplate@Vi3PointerStack@@@@UAEPAVi3ElementBase@@W4I3_CLASSMETA_TYPE@@@Z
  0000a	64 a1 00 00 00
	00		 mov	 eax, DWORD PTR fs:0
  00010	50		 push	 eax
  00011	56		 push	 esi
  00012	57		 push	 edi
  00013	a1 00 00 00 00	 mov	 eax, DWORD PTR ___security_cookie
  00018	33 c5		 xor	 eax, ebp
  0001a	50		 push	 eax
  0001b	8d 45 f4	 lea	 eax, DWORD PTR __$EHRec$[ebp]
  0001e	64 a3 00 00 00
	00		 mov	 DWORD PTR fs:0, eax
  00024	8b f9		 mov	 edi, ecx

; 98   : 		if( m_ProxyCount > 0)

  00026	83 7f 30 00	 cmp	 DWORD PTR [edi+48], 0
  0002a	7e 28		 jle	 SHORT $LN3@CreateInst

; 99   : 		{
; 100  : 			i3ClassMeta * pMeta = GetConcreteClass( type);

  0002c	ff 75 08	 push	 DWORD PTR _type$[ebp]
  0002f	e8 00 00 00 00	 call	 ?GetConcreteClass@i3ClassMeta@@QAEPAV1@W4I3_CLASSMETA_TYPE@@@Z ; i3ClassMeta::GetConcreteClass

; 101  : 
; 102  : 			if( pMeta != NULL)

  00034	85 c0		 test	 eax, eax
  00036	74 1c		 je	 SHORT $LN3@CreateInst

; 103  : 				return pMeta->CreateInstance( I3_CLASSMETA_TYPE_GENERAL);

  00038	8b 10		 mov	 edx, DWORD PTR [eax]
  0003a	8b c8		 mov	 ecx, eax
  0003c	6a 00		 push	 0
  0003e	ff 52 04	 call	 DWORD PTR [edx+4]

; 125  : 	}

  00041	8b 4d f4	 mov	 ecx, DWORD PTR __$EHRec$[ebp]
  00044	64 89 0d 00 00
	00 00		 mov	 DWORD PTR fs:0, ecx
  0004b	59		 pop	 ecx
  0004c	5f		 pop	 edi
  0004d	5e		 pop	 esi
  0004e	8b e5		 mov	 esp, ebp
  00050	5d		 pop	 ebp
  00051	c2 04 00	 ret	 4
$LN3@CreateInst:

; 104  : 		}
; 105  : 
; 106  : 		{
; 107  : 			if( m_pPool == NULL)

  00054	8b 4f 34	 mov	 ecx, DWORD PTR [edi+52]
  00057	85 c9		 test	 ecx, ecx
  00059	75 49		 jne	 SHORT $LN4@CreateInst

; 112  : 					return (i3ElementBase *) new T;

  0005b	6a 20		 push	 32			; 00000020H
  0005d	e8 00 00 00 00	 call	 ??2i3ElementBase@@SAPAXI@Z ; i3ElementBase::operator new
  00062	8b f0		 mov	 esi, eax
  00064	83 c4 04	 add	 esp, 4
  00067	89 75 08	 mov	 DWORD PTR $T2[ebp], esi
  0006a	c7 45 fc 00 00
	00 00		 mov	 DWORD PTR __$EHRec$[ebp+8], 0
  00071	85 f6		 test	 esi, esi
  00073	74 2b		 je	 SHORT $LN7@CreateInst
; File E:\Proyectos\JuegosOnlineproyectos\PB\pbblow\Piercing Blow Remake\i3Server\src\i3Base\i3PointerStack.cpp

; 7    : {

  00075	8b ce		 mov	 ecx, esi
  00077	e8 00 00 00 00	 call	 ??0i3ElementBase@@QAE@XZ ; i3ElementBase::i3ElementBase
  0007c	c7 06 00 00 00
	00		 mov	 DWORD PTR [esi], OFFSET ??_7i3PointerStack@@6B@

; 8    : 	m_pBuffer = NULL;

  00082	c7 46 10 00 00
	00 00		 mov	 DWORD PTR [esi+16], 0

; 9    : 	m_Count = 0;

  00089	c7 46 14 00 00
	00 00		 mov	 DWORD PTR [esi+20], 0

; 10   : 	m_MaxCount = 0;

  00090	c7 46 18 00 00
	00 00		 mov	 DWORD PTR [esi+24], 0

; 11   : 	m_AllocUnit = allocUnit;

  00097	c7 46 1c 10 00
	00 00		 mov	 DWORD PTR [esi+28], 16	; 00000010H
; File E:\Proyectos\JuegosOnlineproyectos\PB\pbblow\Piercing Blow Remake\i3Server\include\i3Base\i3MetaTemplate.h

; 112  : 					return (i3ElementBase *) new T;

  0009e	eb 22		 jmp	 SHORT $LN8@CreateInst
$LN7@CreateInst:
  000a0	33 f6		 xor	 esi, esi
  000a2	eb 1e		 jmp	 SHORT $LN8@CreateInst
$LN4@CreateInst:

; 113  : 				#endif
; 114  : 			}
; 115  : 			else
; 116  : 			{
; 117  : 				i3ElementBase * p = (i3ElementBase *) m_pPool->Alloc( sizeof(T), NULL, 0);

  000a4	8b 01		 mov	 eax, DWORD PTR [ecx]
  000a6	6a 00		 push	 0
  000a8	6a 00		 push	 0
  000aa	6a 20		 push	 32			; 00000020H
  000ac	ff 50 04	 call	 DWORD PTR [eax+4]

; 118  : 	
; 119  : 				BindInstance( p, type);

  000af	ff 75 08	 push	 DWORD PTR _type$[ebp]
  000b2	8b 17		 mov	 edx, DWORD PTR [edi]
  000b4	8b f0		 mov	 esi, eax
  000b6	56		 push	 esi
  000b7	8b cf		 mov	 ecx, edi
  000b9	ff 52 08	 call	 DWORD PTR [edx+8]
; File E:\Proyectos\JuegosOnlineproyectos\PB\pbblow\Piercing Blow Remake\i3Server\include\i3Base\i3ElementBase.h

; 347  : 	void			__SetMemoryPool( i3MemoryPool * pPool)			{ m_pPool = pPool; }

  000bc	8b 4f 34	 mov	 ecx, DWORD PTR [edi+52]
  000bf	89 4e 0c	 mov	 DWORD PTR [esi+12], ecx
$LN8@CreateInst:
; File E:\Proyectos\JuegosOnlineproyectos\PB\pbblow\Piercing Blow Remake\i3Server\include\i3Base\i3MetaTemplate.h

; 125  : 	}

  000c2	8b c6		 mov	 eax, esi
  000c4	8b 4d f4	 mov	 ecx, DWORD PTR __$EHRec$[ebp]
  000c7	64 89 0d 00 00
	00 00		 mov	 DWORD PTR fs:0, ecx
  000ce	59		 pop	 ecx
  000cf	5f		 pop	 edi
  000d0	5e		 pop	 esi
  000d1	8b e5		 mov	 esp, ebp
  000d3	5d		 pop	 ebp
  000d4	c2 04 00	 ret	 4
_TEXT	ENDS
;	COMDAT text$x
text$x	SEGMENT
__unwindfunclet$?CreateInstance@?$i3MetaTemplate@Vi3PointerStack@@@@UAEPAVi3ElementBase@@W4I3_CLASSMETA_TYPE@@@Z$0:
  00000	8b 45 08	 mov	 eax, DWORD PTR $T2[ebp]
  00003	50		 push	 eax
  00004	e8 00 00 00 00	 call	 ??3i3ElementBase@@SAXPAX@Z ; i3ElementBase::operator delete
  00009	59		 pop	 ecx
  0000a	c3		 ret	 0
  0000b	cc		 int	 3
  0000c	cc		 int	 3
  0000d	cc		 int	 3
  0000e	cc		 int	 3
  0000f	cc		 int	 3
__ehhandler$?CreateInstance@?$i3MetaTemplate@Vi3PointerStack@@@@UAEPAVi3ElementBase@@W4I3_CLASSMETA_TYPE@@@Z:
  00010	90		 npad	 1
  00011	90		 npad	 1
  00012	8b 54 24 08	 mov	 edx, DWORD PTR [esp+8]
  00016	8d 42 0c	 lea	 eax, DWORD PTR [edx+12]
  00019	8b 4a f4	 mov	 ecx, DWORD PTR [edx-12]
  0001c	33 c8		 xor	 ecx, eax
  0001e	e8 00 00 00 00	 call	 @__security_check_cookie@4
  00023	b8 00 00 00 00	 mov	 eax, OFFSET __ehfuncinfo$?CreateInstance@?$i3MetaTemplate@Vi3PointerStack@@@@UAEPAVi3ElementBase@@W4I3_CLASSMETA_TYPE@@@Z
  00028	e9 00 00 00 00	 jmp	 ___CxxFrameHandler3
text$x	ENDS
?CreateInstance@?$i3MetaTemplate@Vi3PointerStack@@@@UAEPAVi3ElementBase@@W4I3_CLASSMETA_TYPE@@@Z ENDP ; i3MetaTemplate<i3PointerStack>::CreateInstance
; Function compile flags: /Ogtp
; File E:\Proyectos\JuegosOnlineproyectos\PB\pbblow\Piercing Blow Remake\i3Server\include\i3Base\i3MetaTemplate.h
;	COMDAT ??0?$i3MetaTemplate@Vi3PointerStack@@@@QAE@IPAD0W4I3_CLASSMETA_TYPE@@@Z
_TEXT	SEGMENT
_this$ = -4						; size = 4
_classSz$ = 8						; size = 4
_pszClassName$ = 12					; size = 4
_pszBaseClassName$ = 16					; size = 4
_type$ = 20						; size = 4
??0?$i3MetaTemplate@Vi3PointerStack@@@@QAE@IPAD0W4I3_CLASSMETA_TYPE@@@Z PROC ; i3MetaTemplate<i3PointerStack>::i3MetaTemplate<i3PointerStack>, COMDAT
; _this$ = ecx

; 29   : {

  00000	55		 push	 ebp
  00001	8b ec		 mov	 ebp, esp
  00003	51		 push	 ecx
  00004	56		 push	 esi
  00005	ff 75 14	 push	 DWORD PTR _type$[ebp]
  00008	8b f1		 mov	 esi, ecx
  0000a	ff 75 10	 push	 DWORD PTR _pszBaseClassName$[ebp]
  0000d	89 75 fc	 mov	 DWORD PTR _this$[ebp], esi
  00010	ff 75 0c	 push	 DWORD PTR _pszClassName$[ebp]
  00013	ff 75 08	 push	 DWORD PTR _classSz$[ebp]
  00016	e8 00 00 00 00	 call	 ??0i3ClassMeta@@QAE@IPAD0W4I3_CLASSMETA_TYPE@@@Z ; i3ClassMeta::i3ClassMeta
  0001b	c7 06 00 00 00
	00		 mov	 DWORD PTR [esi], OFFSET ??_7?$i3MetaTemplate@Vi3PointerStack@@@@6B@

; 30   : }

  00021	8b c6		 mov	 eax, esi
  00023	5e		 pop	 esi
  00024	8b e5		 mov	 esp, ebp
  00026	5d		 pop	 ebp
  00027	c2 10 00	 ret	 16			; 00000010H
??0?$i3MetaTemplate@Vi3PointerStack@@@@QAE@IPAD0W4I3_CLASSMETA_TYPE@@@Z ENDP ; i3MetaTemplate<i3PointerStack>::i3MetaTemplate<i3PointerStack>
_TEXT	ENDS
; Function compile flags: /Ogtp
; File E:\Proyectos\JuegosOnlineproyectos\PB\pbblow\Piercing Blow Remake\i3Server\src\i3Base\i3PointerStack.cpp
;	COMDAT ??_Ei3PointerStack@@UAEPAXI@Z
_TEXT	SEGMENT
__$EHRec$ = -12						; size = 12
___flags$ = 8						; size = 4
??_Ei3PointerStack@@UAEPAXI@Z PROC			; i3PointerStack::`vector deleting destructor', COMDAT
; _this$ = ecx
  00000	55		 push	 ebp
  00001	8b ec		 mov	 ebp, esp
  00003	6a ff		 push	 -1
  00005	68 00 00 00 00	 push	 __ehhandler$??_Ei3PointerStack@@UAEPAXI@Z
  0000a	64 a1 00 00 00
	00		 mov	 eax, DWORD PTR fs:0
  00010	50		 push	 eax
  00011	53		 push	 ebx
  00012	56		 push	 esi
  00013	57		 push	 edi
  00014	a1 00 00 00 00	 mov	 eax, DWORD PTR ___security_cookie
  00019	33 c5		 xor	 eax, ebp
  0001b	50		 push	 eax
  0001c	8d 45 f4	 lea	 eax, DWORD PTR __$EHRec$[ebp]
  0001f	64 a3 00 00 00
	00		 mov	 DWORD PTR fs:0, eax
  00025	8b f1		 mov	 esi, ecx
  00027	8b 5d 08	 mov	 ebx, DWORD PTR ___flags$[ebp]
  0002a	f6 c3 02	 test	 bl, 2
  0002d	74 40		 je	 SHORT $LN2@vector
  0002f	68 00 00 00 00	 push	 OFFSET ??1i3PointerStack@@UAE@XZ ; i3PointerStack::~i3PointerStack
  00034	ff 76 fc	 push	 DWORD PTR [esi-4]
  00037	8d 7e fc	 lea	 edi, DWORD PTR [esi-4]
  0003a	6a 20		 push	 32			; 00000020H
  0003c	56		 push	 esi
  0003d	e8 00 00 00 00	 call	 ??_M@YGXPAXIIP6EX0@Z@Z
  00042	f6 c3 01	 test	 bl, 1
  00045	74 12		 je	 SHORT $LN3@vector
  00047	8b 0f		 mov	 ecx, DWORD PTR [edi]
  00049	c1 e1 05	 shl	 ecx, 5
  0004c	83 c1 04	 add	 ecx, 4
  0004f	51		 push	 ecx
  00050	57		 push	 edi
  00051	e8 00 00 00 00	 call	 ??_V@YAXPAXI@Z		; operator delete[]
  00056	83 c4 08	 add	 esp, 8
$LN3@vector:
  00059	8b c7		 mov	 eax, edi
  0005b	8b 4d f4	 mov	 ecx, DWORD PTR __$EHRec$[ebp]
  0005e	64 89 0d 00 00
	00 00		 mov	 DWORD PTR fs:0, ecx
  00065	59		 pop	 ecx
  00066	5f		 pop	 edi
  00067	5e		 pop	 esi
  00068	5b		 pop	 ebx
  00069	8b e5		 mov	 esp, ebp
  0006b	5d		 pop	 ebp
  0006c	c2 04 00	 ret	 4
$LN2@vector:

; 76   : 		if( m_pBuffer != NULL)

  0006f	8b 46 10	 mov	 eax, DWORD PTR [esi+16]

; 15   : {

  00072	c7 45 fc 00 00
	00 00		 mov	 DWORD PTR __$EHRec$[ebp+8], 0
  00079	c7 06 00 00 00
	00		 mov	 DWORD PTR [esi], OFFSET ??_7i3PointerStack@@6B@

; 76   : 		if( m_pBuffer != NULL)

  0007f	85 c0		 test	 eax, eax
  00081	74 17		 je	 SHORT $LN17@vector

; 77   : 		{
; 78   : 			i3MemFree( m_pBuffer );

  00083	6a 4e		 push	 78			; 0000004eH
  00085	68 00 00 00 00	 push	 OFFSET ??_C@_0GJ@KIDCANPD@E?3?2Proyectos?2JuegosOnlineproyec@
  0008a	50		 push	 eax
  0008b	e8 00 00 00 00	 call	 ?FreeTool@i3mem@@YAXPAXPBDH@Z ; i3mem::FreeTool
  00090	83 c4 0c	 add	 esp, 12			; 0000000cH

; 79   : 			m_pBuffer = NULL;

  00093	c7 46 10 00 00
	00 00		 mov	 DWORD PTR [esi+16], 0
$LN17@vector:

; 17   : }

  0009a	8b ce		 mov	 ecx, esi

; 82   : 		m_MaxCount = 0;

  0009c	c7 46 18 00 00
	00 00		 mov	 DWORD PTR [esi+24], 0

; 83   : 	}
; 84   : 
; 85   : 	m_Count = 0;	

  000a3	c7 46 14 00 00
	00 00		 mov	 DWORD PTR [esi+20], 0

; 17   : }

  000aa	e8 00 00 00 00	 call	 ??1i3ElementBase@@UAE@XZ ; i3ElementBase::~i3ElementBase
  000af	f6 c3 01	 test	 bl, 1
  000b2	74 1b		 je	 SHORT $LN6@vector
  000b4	f6 c3 04	 test	 bl, 4
  000b7	75 0b		 jne	 SHORT $LN5@vector
  000b9	56		 push	 esi
  000ba	e8 00 00 00 00	 call	 ??3i3ElementBase@@SAXPAX@Z ; i3ElementBase::operator delete
  000bf	83 c4 04	 add	 esp, 4
  000c2	eb 0b		 jmp	 SHORT $LN6@vector
$LN5@vector:

  000c4	6a 20		 push	 32			; 00000020H
  000c6	56		 push	 esi
  000c7	e8 00 00 00 00	 call	 ??3@YAXPAXI@Z		; operator delete
  000cc	83 c4 08	 add	 esp, 8
$LN6@vector:
  000cf	8b c6		 mov	 eax, esi
  000d1	8b 4d f4	 mov	 ecx, DWORD PTR __$EHRec$[ebp]
  000d4	64 89 0d 00 00
	00 00		 mov	 DWORD PTR fs:0, ecx
  000db	59		 pop	 ecx
  000dc	5f		 pop	 edi
  000dd	5e		 pop	 esi
  000de	5b		 pop	 ebx
  000df	8b e5		 mov	 esp, ebp
  000e1	5d		 pop	 ebp
  000e2	c2 04 00	 ret	 4
  000e5	cc		 int	 3
  000e6	cc		 int	 3
  000e7	cc		 int	 3
  000e8	cc		 int	 3
  000e9	cc		 int	 3
_TEXT	ENDS
;	COMDAT text$x
text$x	SEGMENT
__ehhandler$??_Ei3PointerStack@@UAEPAXI@Z:
  00000	90		 npad	 1
  00001	90		 npad	 1
  00002	8b 54 24 08	 mov	 edx, DWORD PTR [esp+8]
  00006	8d 42 0c	 lea	 eax, DWORD PTR [edx+12]
  00009	8b 4a f0	 mov	 ecx, DWORD PTR [edx-16]
  0000c	33 c8		 xor	 ecx, eax
  0000e	e8 00 00 00 00	 call	 @__security_check_cookie@4
  00013	b8 00 00 00 00	 mov	 eax, OFFSET __ehfuncinfo$??_Ei3PointerStack@@UAEPAXI@Z
  00018	e9 00 00 00 00	 jmp	 ___CxxFrameHandler3
text$x	ENDS
??_Ei3PointerStack@@UAEPAXI@Z ENDP			; i3PointerStack::`vector deleting destructor'
; Function compile flags: /Ogtp
; File E:\Proyectos\JuegosOnlineproyectos\PB\pbblow\Piercing Blow Remake\i3Server\src\i3Base\i3PointerStack.cpp
;	COMDAT ??_Gi3PointerStack@@UAEPAXI@Z
_TEXT	SEGMENT
__$EHRec$ = -12						; size = 12
___flags$ = 8						; size = 4
??_Gi3PointerStack@@UAEPAXI@Z PROC			; i3PointerStack::`scalar deleting destructor', COMDAT
; _this$ = ecx
  00000	55		 push	 ebp
  00001	8b ec		 mov	 ebp, esp
  00003	6a ff		 push	 -1
  00005	68 00 00 00 00	 push	 __ehhandler$??_Gi3PointerStack@@UAEPAXI@Z
  0000a	64 a1 00 00 00
	00		 mov	 eax, DWORD PTR fs:0
  00010	50		 push	 eax
  00011	56		 push	 esi
  00012	a1 00 00 00 00	 mov	 eax, DWORD PTR ___security_cookie
  00017	33 c5		 xor	 eax, ebp
  00019	50		 push	 eax
  0001a	8d 45 f4	 lea	 eax, DWORD PTR __$EHRec$[ebp]
  0001d	64 a3 00 00 00
	00		 mov	 DWORD PTR fs:0, eax
  00023	8b f1		 mov	 esi, ecx

; 76   : 		if( m_pBuffer != NULL)

  00025	8b 46 10	 mov	 eax, DWORD PTR [esi+16]

; 15   : {

  00028	c7 45 fc 00 00
	00 00		 mov	 DWORD PTR __$EHRec$[ebp+8], 0
  0002f	c7 06 00 00 00
	00		 mov	 DWORD PTR [esi], OFFSET ??_7i3PointerStack@@6B@

; 76   : 		if( m_pBuffer != NULL)

  00035	85 c0		 test	 eax, eax
  00037	74 17		 je	 SHORT $LN15@scalar

; 77   : 		{
; 78   : 			i3MemFree( m_pBuffer );

  00039	6a 4e		 push	 78			; 0000004eH
  0003b	68 00 00 00 00	 push	 OFFSET ??_C@_0GJ@KIDCANPD@E?3?2Proyectos?2JuegosOnlineproyec@
  00040	50		 push	 eax
  00041	e8 00 00 00 00	 call	 ?FreeTool@i3mem@@YAXPAXPBDH@Z ; i3mem::FreeTool
  00046	83 c4 0c	 add	 esp, 12			; 0000000cH

; 79   : 			m_pBuffer = NULL;

  00049	c7 46 10 00 00
	00 00		 mov	 DWORD PTR [esi+16], 0
$LN15@scalar:

; 17   : }

  00050	8b ce		 mov	 ecx, esi

; 82   : 		m_MaxCount = 0;

  00052	c7 46 18 00 00
	00 00		 mov	 DWORD PTR [esi+24], 0

; 83   : 	}
; 84   : 
; 85   : 	m_Count = 0;	

  00059	c7 46 14 00 00
	00 00		 mov	 DWORD PTR [esi+20], 0

; 17   : }

  00060	e8 00 00 00 00	 call	 ??1i3ElementBase@@UAE@XZ ; i3ElementBase::~i3ElementBase
  00065	8b 45 08	 mov	 eax, DWORD PTR ___flags$[ebp]
  00068	a8 01		 test	 al, 1
  0006a	74 2c		 je	 SHORT $LN19@scalar
  0006c	a8 04		 test	 al, 4
  0006e	75 1d		 jne	 SHORT $LN3@scalar
  00070	56		 push	 esi
  00071	e8 00 00 00 00	 call	 ??3i3ElementBase@@SAXPAX@Z ; i3ElementBase::operator delete
  00076	83 c4 04	 add	 esp, 4
  00079	8b c6		 mov	 eax, esi
  0007b	8b 4d f4	 mov	 ecx, DWORD PTR __$EHRec$[ebp]
  0007e	64 89 0d 00 00
	00 00		 mov	 DWORD PTR fs:0, ecx
  00085	59		 pop	 ecx
  00086	5e		 pop	 esi
  00087	8b e5		 mov	 esp, ebp
  00089	5d		 pop	 ebp
  0008a	c2 04 00	 ret	 4
$LN3@scalar:

  0008d	6a 20		 push	 32			; 00000020H
  0008f	56		 push	 esi
  00090	e8 00 00 00 00	 call	 ??3@YAXPAXI@Z		; operator delete
  00095	83 c4 08	 add	 esp, 8
$LN19@scalar:
  00098	8b c6		 mov	 eax, esi
  0009a	8b 4d f4	 mov	 ecx, DWORD PTR __$EHRec$[ebp]
  0009d	64 89 0d 00 00
	00 00		 mov	 DWORD PTR fs:0, ecx
  000a4	59		 pop	 ecx
  000a5	5e		 pop	 esi
  000a6	8b e5		 mov	 esp, ebp
  000a8	5d		 pop	 ebp
  000a9	c2 04 00	 ret	 4
  000ac	cc		 int	 3
  000ad	cc		 int	 3
  000ae	cc		 int	 3
  000af	cc		 int	 3
  000b0	cc		 int	 3
_TEXT	ENDS
;	COMDAT text$x
text$x	SEGMENT
__ehhandler$??_Gi3PointerStack@@UAEPAXI@Z:
  00000	90		 npad	 1
  00001	90		 npad	 1
  00002	8b 54 24 08	 mov	 edx, DWORD PTR [esp+8]
  00006	8d 42 0c	 lea	 eax, DWORD PTR [edx+12]
  00009	8b 4a f8	 mov	 ecx, DWORD PTR [edx-8]
  0000c	33 c8		 xor	 ecx, eax
  0000e	e8 00 00 00 00	 call	 @__security_check_cookie@4
  00013	b8 00 00 00 00	 mov	 eax, OFFSET __ehfuncinfo$??_Gi3PointerStack@@UAEPAXI@Z
  00018	e9 00 00 00 00	 jmp	 ___CxxFrameHandler3
text$x	ENDS
??_Gi3PointerStack@@UAEPAXI@Z ENDP			; i3PointerStack::`scalar deleting destructor'
; Function compile flags: /Ogtp
; File E:\Proyectos\JuegosOnlineproyectos\PB\pbblow\Piercing Blow Remake\i3Server\src\i3Base\i3PointerStack.cpp
;	COMDAT ??_Fi3PointerStack@@QAEXXZ
_TEXT	SEGMENT
??_Fi3PointerStack@@QAEXXZ PROC				; i3PointerStack::`default constructor closure', COMDAT
; _this$ = ecx

; 7    : {

  00000	56		 push	 esi
  00001	8b f1		 mov	 esi, ecx
  00003	e8 00 00 00 00	 call	 ??0i3ElementBase@@QAE@XZ ; i3ElementBase::i3ElementBase
  00008	c7 06 00 00 00
	00		 mov	 DWORD PTR [esi], OFFSET ??_7i3PointerStack@@6B@

; 8    : 	m_pBuffer = NULL;

  0000e	c7 46 10 00 00
	00 00		 mov	 DWORD PTR [esi+16], 0

; 9    : 	m_Count = 0;

  00015	c7 46 14 00 00
	00 00		 mov	 DWORD PTR [esi+20], 0

; 10   : 	m_MaxCount = 0;

  0001c	c7 46 18 00 00
	00 00		 mov	 DWORD PTR [esi+24], 0

; 11   : 	m_AllocUnit = allocUnit;

  00023	c7 46 1c 10 00
	00 00		 mov	 DWORD PTR [esi+28], 16	; 00000010H
  0002a	5e		 pop	 esi
  0002b	c3		 ret	 0
??_Fi3PointerStack@@QAEXXZ ENDP				; i3PointerStack::`default constructor closure'
_TEXT	ENDS
; Function compile flags: /Ogtp
;	COMDAT ??4i3PointerStack@@QAEAAV0@ABV0@@Z
_TEXT	SEGMENT
___that$ = 8						; size = 4
??4i3PointerStack@@QAEAAV0@ABV0@@Z PROC			; i3PointerStack::operator=, COMDAT
; _this$ = ecx
  00000	55		 push	 ebp
  00001	8b ec		 mov	 ebp, esp
  00003	8b 55 08	 mov	 edx, DWORD PTR ___that$[ebp]
  00006	8b 42 04	 mov	 eax, DWORD PTR [edx+4]
  00009	89 41 04	 mov	 DWORD PTR [ecx+4], eax
  0000c	8b 42 08	 mov	 eax, DWORD PTR [edx+8]
  0000f	89 41 08	 mov	 DWORD PTR [ecx+8], eax
  00012	8b 42 0c	 mov	 eax, DWORD PTR [edx+12]
  00015	89 41 0c	 mov	 DWORD PTR [ecx+12], eax
  00018	8b 42 10	 mov	 eax, DWORD PTR [edx+16]
  0001b	89 41 10	 mov	 DWORD PTR [ecx+16], eax
  0001e	8b 42 14	 mov	 eax, DWORD PTR [edx+20]
  00021	89 41 14	 mov	 DWORD PTR [ecx+20], eax
  00024	8b 42 18	 mov	 eax, DWORD PTR [edx+24]
  00027	89 41 18	 mov	 DWORD PTR [ecx+24], eax
  0002a	8b 42 1c	 mov	 eax, DWORD PTR [edx+28]
  0002d	89 41 1c	 mov	 DWORD PTR [ecx+28], eax
  00030	8b c1		 mov	 eax, ecx
  00032	5d		 pop	 ebp
  00033	c2 04 00	 ret	 4
??4i3PointerStack@@QAEAAV0@ABV0@@Z ENDP			; i3PointerStack::operator=
_TEXT	ENDS
; Function compile flags: /Ogtp
;	COMDAT ??0i3PointerStack@@QAE@ABV0@@Z
_TEXT	SEGMENT
___that$ = 8						; size = 4
??0i3PointerStack@@QAE@ABV0@@Z PROC			; i3PointerStack::i3PointerStack, COMDAT
; _this$ = ecx
  00000	55		 push	 ebp
  00001	8b ec		 mov	 ebp, esp
  00003	8b 55 08	 mov	 edx, DWORD PTR ___that$[ebp]
  00006	c7 01 00 00 00
	00		 mov	 DWORD PTR [ecx], OFFSET ??_7i3ElementBase@@6B@
  0000c	8b 42 04	 mov	 eax, DWORD PTR [edx+4]
  0000f	89 41 04	 mov	 DWORD PTR [ecx+4], eax
  00012	8b 42 08	 mov	 eax, DWORD PTR [edx+8]
  00015	89 41 08	 mov	 DWORD PTR [ecx+8], eax
  00018	8b 42 0c	 mov	 eax, DWORD PTR [edx+12]
  0001b	89 41 0c	 mov	 DWORD PTR [ecx+12], eax
  0001e	c7 01 00 00 00
	00		 mov	 DWORD PTR [ecx], OFFSET ??_7i3PointerStack@@6B@
  00024	8b 42 10	 mov	 eax, DWORD PTR [edx+16]
  00027	89 41 10	 mov	 DWORD PTR [ecx+16], eax
  0002a	8b 42 14	 mov	 eax, DWORD PTR [edx+20]
  0002d	89 41 14	 mov	 DWORD PTR [ecx+20], eax
  00030	8b 42 18	 mov	 eax, DWORD PTR [edx+24]
  00033	89 41 18	 mov	 DWORD PTR [ecx+24], eax
  00036	8b 42 1c	 mov	 eax, DWORD PTR [edx+28]
  00039	89 41 1c	 mov	 DWORD PTR [ecx+28], eax
  0003c	8b c1		 mov	 eax, ecx
  0003e	5d		 pop	 ebp
  0003f	c2 04 00	 ret	 4
??0i3PointerStack@@QAE@ABV0@@Z ENDP			; i3PointerStack::i3PointerStack
_TEXT	ENDS
; Function compile flags: /Ogtp
; File E:\Proyectos\JuegosOnlineproyectos\PB\pbblow\Piercing Blow Remake\i3Server\src\i3Base\i3PointerStack.cpp
;	COMDAT ?Reset@i3PointerStack@@QAEX_N@Z
_TEXT	SEGMENT
_bFreeMem$ = 8						; size = 1
?Reset@i3PointerStack@@QAEX_N@Z PROC			; i3PointerStack::Reset, COMDAT
; _this$ = ecx

; 73   : {

  00000	55		 push	 ebp
  00001	8b ec		 mov	 ebp, esp

; 74   : 	if( bFreeMem)

  00003	80 7d 08 00	 cmp	 BYTE PTR _bFreeMem$[ebp], 0
  00007	56		 push	 esi
  00008	8b f1		 mov	 esi, ecx
  0000a	74 25		 je	 SHORT $LN5@Reset

; 75   : 	{
; 76   : 		if( m_pBuffer != NULL)

  0000c	8b 46 10	 mov	 eax, DWORD PTR [esi+16]
  0000f	85 c0		 test	 eax, eax
  00011	74 17		 je	 SHORT $LN3@Reset

; 77   : 		{
; 78   : 			i3MemFree( m_pBuffer );

  00013	6a 4e		 push	 78			; 0000004eH
  00015	68 00 00 00 00	 push	 OFFSET ??_C@_0GJ@KIDCANPD@E?3?2Proyectos?2JuegosOnlineproyec@
  0001a	50		 push	 eax
  0001b	e8 00 00 00 00	 call	 ?FreeTool@i3mem@@YAXPAXPBDH@Z ; i3mem::FreeTool
  00020	83 c4 0c	 add	 esp, 12			; 0000000cH

; 79   : 			m_pBuffer = NULL;

  00023	c7 46 10 00 00
	00 00		 mov	 DWORD PTR [esi+16], 0
$LN3@Reset:

; 80   : 		}
; 81   : 
; 82   : 		m_MaxCount = 0;

  0002a	c7 46 18 00 00
	00 00		 mov	 DWORD PTR [esi+24], 0
$LN5@Reset:

; 83   : 	}
; 84   : 
; 85   : 	m_Count = 0;	
; 86   : }

  00031	c7 46 14 00 00
	00 00		 mov	 DWORD PTR [esi+20], 0
  00038	5e		 pop	 esi
  00039	5d		 pop	 ebp
  0003a	c2 04 00	 ret	 4
?Reset@i3PointerStack@@QAEX_N@Z ENDP			; i3PointerStack::Reset
_TEXT	ENDS
; Function compile flags: /Ogtp
; File E:\Proyectos\JuegosOnlineproyectos\PB\pbblow\Piercing Blow Remake\i3Server\include\i3Base\i3PointerStack.h
;	COMDAT ?IsEmpty@i3PointerStack@@QAE_NXZ
_TEXT	SEGMENT
?IsEmpty@i3PointerStack@@QAE_NXZ PROC			; i3PointerStack::IsEmpty, COMDAT
; _this$ = ecx

; 48   : 	bool	IsEmpty(void)			{ return (m_Count == 0); }

  00000	83 79 14 00	 cmp	 DWORD PTR [ecx+20], 0
  00004	0f 94 c0	 sete	 al
  00007	c3		 ret	 0
?IsEmpty@i3PointerStack@@QAE_NXZ ENDP			; i3PointerStack::IsEmpty
_TEXT	ENDS
; Function compile flags: /Ogtp
; File E:\Proyectos\JuegosOnlineproyectos\PB\pbblow\Piercing Blow Remake\i3Server\src\i3Base\i3PointerStack.cpp
;	COMDAT ?Pop@i3PointerStack@@QAE_NPAPAX@Z
_TEXT	SEGMENT
_pVal$ = 8						; size = 4
?Pop@i3PointerStack@@QAE_NPAPAX@Z PROC			; i3PointerStack::Pop, COMDAT
; _this$ = ecx

; 60   : {

  00000	55		 push	 ebp
  00001	8b ec		 mov	 ebp, esp

; 61   : 	if( m_Count <= 0)

  00003	8b 41 14	 mov	 eax, DWORD PTR [ecx+20]
  00006	85 c0		 test	 eax, eax
  00008	75 06		 jne	 SHORT $LN2@Pop

; 62   : 		return false;

  0000a	32 c0		 xor	 al, al

; 70   : }

  0000c	5d		 pop	 ebp
  0000d	c2 04 00	 ret	 4
$LN2@Pop:
  00010	56		 push	 esi

; 63   : 
; 64   : 	m_Count --;
; 65   : 
; 66   : 	if( pVal != NULL)

  00011	8b 75 08	 mov	 esi, DWORD PTR _pVal$[ebp]
  00014	8d 50 ff	 lea	 edx, DWORD PTR [eax-1]
  00017	89 51 14	 mov	 DWORD PTR [ecx+20], edx
  0001a	85 f6		 test	 esi, esi
  0001c	74 08		 je	 SHORT $LN3@Pop

; 67   : 		*pVal = m_pBuffer[ m_Count];

  0001e	8b 41 10	 mov	 eax, DWORD PTR [ecx+16]
  00021	8b 04 90	 mov	 eax, DWORD PTR [eax+edx*4]
  00024	89 06		 mov	 DWORD PTR [esi], eax
$LN3@Pop:

; 68   : 
; 69   : 	return true;

  00026	b0 01		 mov	 al, 1
  00028	5e		 pop	 esi

; 70   : }

  00029	5d		 pop	 ebp
  0002a	c2 04 00	 ret	 4
?Pop@i3PointerStack@@QAE_NPAPAX@Z ENDP			; i3PointerStack::Pop
_TEXT	ENDS
; Function compile flags: /Ogtp
; File E:\Proyectos\JuegosOnlineproyectos\PB\pbblow\Piercing Blow Remake\i3Server\src\i3Base\i3PointerStack.cpp
;	COMDAT ?PushToTop@i3PointerStack@@QAEXPAX@Z
_TEXT	SEGMENT
_p$ = 8							; size = 4
?PushToTop@i3PointerStack@@QAEXPAX@Z PROC		; i3PointerStack::PushToTop, COMDAT
; _this$ = ecx

; 43   : {

  00000	55		 push	 ebp
  00001	8b ec		 mov	 ebp, esp
  00003	56		 push	 esi
  00004	8b f1		 mov	 esi, ecx

; 44   : 	if( (m_Count + 1) > m_MaxCount)

  00006	8b 46 14	 mov	 eax, DWORD PTR [esi+20]
  00009	8b 4e 18	 mov	 ecx, DWORD PTR [esi+24]
  0000c	40		 inc	 eax
  0000d	3b c1		 cmp	 eax, ecx
  0000f	76 0b		 jbe	 SHORT $LN2@PushToTop

; 45   : 	{
; 46   : 		AdjustBufferSize( m_MaxCount + 1);

  00011	8d 41 01	 lea	 eax, DWORD PTR [ecx+1]
  00014	8b ce		 mov	 ecx, esi
  00016	50		 push	 eax
  00017	e8 00 00 00 00	 call	 ?AdjustBufferSize@i3PointerStack@@IAEXI@Z ; i3PointerStack::AdjustBufferSize
$LN2@PushToTop:

; 47   : 	}
; 48   : 
; 49   : 	if( m_Count > 0)

  0001c	8b 46 14	 mov	 eax, DWORD PTR [esi+20]
  0001f	85 c0		 test	 eax, eax
  00021	74 14		 je	 SHORT $LN5@PushToTop

; 50   : 	{
; 51   : 		memmove( &m_pBuffer[ 1], &m_pBuffer[0], sizeof(void *) * m_Count);

  00023	8b 4e 10	 mov	 ecx, DWORD PTR [esi+16]
  00026	c1 e0 02	 shl	 eax, 2
  00029	50		 push	 eax
  0002a	51		 push	 ecx
  0002b	8d 41 04	 lea	 eax, DWORD PTR [ecx+4]
  0002e	50		 push	 eax
  0002f	e8 00 00 00 00	 call	 _memmove
  00034	83 c4 0c	 add	 esp, 12			; 0000000cH
$LN5@PushToTop:

; 52   : 	}
; 53   : 
; 54   : 	m_pBuffer[ 0] = p;

  00037	8b 4e 10	 mov	 ecx, DWORD PTR [esi+16]
  0003a	8b 45 08	 mov	 eax, DWORD PTR _p$[ebp]
  0003d	89 01		 mov	 DWORD PTR [ecx], eax

; 55   : 
; 56   : 	m_Count++;

  0003f	ff 46 14	 inc	 DWORD PTR [esi+20]
  00042	5e		 pop	 esi

; 57   : }

  00043	5d		 pop	 ebp
  00044	c2 04 00	 ret	 4
?PushToTop@i3PointerStack@@QAEXPAX@Z ENDP		; i3PointerStack::PushToTop
_TEXT	ENDS
; Function compile flags: /Ogtp
; File E:\Proyectos\JuegosOnlineproyectos\PB\pbblow\Piercing Blow Remake\i3Server\src\i3Base\i3PointerStack.cpp
;	COMDAT ?Push@i3PointerStack@@QAEXPAX@Z
_TEXT	SEGMENT
_val$ = 8						; size = 4
?Push@i3PointerStack@@QAEXPAX@Z PROC			; i3PointerStack::Push, COMDAT
; _this$ = ecx

; 31   : {

  00000	55		 push	 ebp
  00001	8b ec		 mov	 ebp, esp
  00003	56		 push	 esi
  00004	8b f1		 mov	 esi, ecx

; 32   : 	if( (m_Count + 1) > m_MaxCount)

  00006	8b 46 14	 mov	 eax, DWORD PTR [esi+20]
  00009	8b 4e 18	 mov	 ecx, DWORD PTR [esi+24]
  0000c	40		 inc	 eax
  0000d	3b c1		 cmp	 eax, ecx
  0000f	76 0b		 jbe	 SHORT $LN2@Push

; 33   : 	{
; 34   : 		AdjustBufferSize( m_MaxCount + 1);

  00011	8d 41 01	 lea	 eax, DWORD PTR [ecx+1]
  00014	8b ce		 mov	 ecx, esi
  00016	50		 push	 eax
  00017	e8 00 00 00 00	 call	 ?AdjustBufferSize@i3PointerStack@@IAEXI@Z ; i3PointerStack::AdjustBufferSize
$LN2@Push:

; 35   : 	}
; 36   : 
; 37   : 	m_pBuffer[ m_Count] = val;

  0001c	8b 56 14	 mov	 edx, DWORD PTR [esi+20]
  0001f	8b 4e 10	 mov	 ecx, DWORD PTR [esi+16]
  00022	8b 45 08	 mov	 eax, DWORD PTR _val$[ebp]
  00025	89 04 91	 mov	 DWORD PTR [ecx+edx*4], eax

; 38   : 
; 39   : 	m_Count++;

  00028	ff 46 14	 inc	 DWORD PTR [esi+20]
  0002b	5e		 pop	 esi

; 40   : }

  0002c	5d		 pop	 ebp
  0002d	c2 04 00	 ret	 4
?Push@i3PointerStack@@QAEXPAX@Z ENDP			; i3PointerStack::Push
_TEXT	ENDS
; Function compile flags: /Ogtp
; File E:\Proyectos\JuegosOnlineproyectos\PB\pbblow\Piercing Blow Remake\i3Server\include\i3Base\i3PointerStack.h
;	COMDAT ?setTop@i3PointerStack@@QAEXPAX@Z
_TEXT	SEGMENT
_val$ = 8						; size = 4
?setTop@i3PointerStack@@QAEXPAX@Z PROC			; i3PointerStack::setTop, COMDAT
; _this$ = ecx

; 36   : 	{

  00000	55		 push	 ebp
  00001	8b ec		 mov	 ebp, esp
  00003	56		 push	 esi
  00004	8b f1		 mov	 esi, ecx

; 37   : 		if( (m_Count + 1) > m_MaxCount)

  00006	8b 46 14	 mov	 eax, DWORD PTR [esi+20]
  00009	8b 4e 18	 mov	 ecx, DWORD PTR [esi+24]
  0000c	40		 inc	 eax
  0000d	3b c1		 cmp	 eax, ecx
  0000f	76 0b		 jbe	 SHORT $LN2@setTop

; 38   : 		{
; 39   : 			AdjustBufferSize( m_MaxCount + 1);

  00011	8d 41 01	 lea	 eax, DWORD PTR [ecx+1]
  00014	8b ce		 mov	 ecx, esi
  00016	50		 push	 eax
  00017	e8 00 00 00 00	 call	 ?AdjustBufferSize@i3PointerStack@@IAEXI@Z ; i3PointerStack::AdjustBufferSize
$LN2@setTop:

; 40   : 		}
; 41   : 
; 42   : 		m_pBuffer[ m_Count - 1] = val;

  0001c	8b 56 14	 mov	 edx, DWORD PTR [esi+20]
  0001f	8b 4e 10	 mov	 ecx, DWORD PTR [esi+16]
  00022	8b 45 08	 mov	 eax, DWORD PTR _val$[ebp]
  00025	5e		 pop	 esi
  00026	89 44 91 fc	 mov	 DWORD PTR [ecx+edx*4-4], eax

; 43   : 	}

  0002a	5d		 pop	 ebp
  0002b	c2 04 00	 ret	 4
?setTop@i3PointerStack@@QAEXPAX@Z ENDP			; i3PointerStack::setTop
_TEXT	ENDS
; Function compile flags: /Ogtp
; File E:\Proyectos\JuegosOnlineproyectos\PB\pbblow\Piercing Blow Remake\i3Server\include\i3Base\i3PointerStack.h
;	COMDAT ?getTop@i3PointerStack@@QAEPAXXZ
_TEXT	SEGMENT
?getTop@i3PointerStack@@QAEPAXXZ PROC			; i3PointerStack::getTop, COMDAT
; _this$ = ecx

; 29   : 		if( m_Count <= 0)

  00000	8b 51 14	 mov	 edx, DWORD PTR [ecx+20]
  00003	85 d2		 test	 edx, edx
  00005	75 03		 jne	 SHORT $LN2@getTop

; 30   : 			return NULL;

  00007	33 c0		 xor	 eax, eax

; 33   : 	}

  00009	c3		 ret	 0
$LN2@getTop:

; 31   : 
; 32   : 		return m_pBuffer[ m_Count - 1]; 

  0000a	8b 41 10	 mov	 eax, DWORD PTR [ecx+16]
  0000d	8b 44 90 fc	 mov	 eax, DWORD PTR [eax+edx*4-4]

; 33   : 	}

  00011	c3		 ret	 0
?getTop@i3PointerStack@@QAEPAXXZ ENDP			; i3PointerStack::getTop
_TEXT	ENDS
; Function compile flags: /Ogtp
; File E:\Proyectos\JuegosOnlineproyectos\PB\pbblow\Piercing Blow Remake\i3Server\include\i3Base\i3PointerStack.h
;	COMDAT ?getBuffer@i3PointerStack@@QAEPAXXZ
_TEXT	SEGMENT
?getBuffer@i3PointerStack@@QAEPAXXZ PROC		; i3PointerStack::getBuffer, COMDAT
; _this$ = ecx

; 26   : 	void *		getBuffer(void)		{ return m_pBuffer; }

  00000	8b 41 10	 mov	 eax, DWORD PTR [ecx+16]
  00003	c3		 ret	 0
?getBuffer@i3PointerStack@@QAEPAXXZ ENDP		; i3PointerStack::getBuffer
_TEXT	ENDS
; Function compile flags: /Ogtp
; File E:\Proyectos\JuegosOnlineproyectos\PB\pbblow\Piercing Blow Remake\i3Server\include\i3Base\i3PointerStack.h
;	COMDAT ?getCount@i3PointerStack@@QAEIXZ
_TEXT	SEGMENT
?getCount@i3PointerStack@@QAEIXZ PROC			; i3PointerStack::getCount, COMDAT
; _this$ = ecx

; 23   : 	UINT32		getCount(void)		{ return m_Count; }

  00000	8b 41 14	 mov	 eax, DWORD PTR [ecx+20]
  00003	c3		 ret	 0
?getCount@i3PointerStack@@QAEIXZ ENDP			; i3PointerStack::getCount
_TEXT	ENDS
; Function compile flags: /Ogtp
; File E:\Proyectos\JuegosOnlineproyectos\PB\pbblow\Piercing Blow Remake\i3Server\src\i3Base\i3PointerStack.cpp
;	COMDAT ??1i3PointerStack@@UAE@XZ
_TEXT	SEGMENT
__$EHRec$ = -12						; size = 12
??1i3PointerStack@@UAE@XZ PROC				; i3PointerStack::~i3PointerStack, COMDAT
; _this$ = ecx

; 15   : {

  00000	55		 push	 ebp
  00001	8b ec		 mov	 ebp, esp
  00003	6a ff		 push	 -1
  00005	68 00 00 00 00	 push	 __ehhandler$??1i3PointerStack@@UAE@XZ
  0000a	64 a1 00 00 00
	00		 mov	 eax, DWORD PTR fs:0
  00010	50		 push	 eax
  00011	56		 push	 esi
  00012	a1 00 00 00 00	 mov	 eax, DWORD PTR ___security_cookie
  00017	33 c5		 xor	 eax, ebp
  00019	50		 push	 eax
  0001a	8d 45 f4	 lea	 eax, DWORD PTR __$EHRec$[ebp]
  0001d	64 a3 00 00 00
	00		 mov	 DWORD PTR fs:0, eax
  00023	8b f1		 mov	 esi, ecx

; 76   : 		if( m_pBuffer != NULL)

  00025	8b 46 10	 mov	 eax, DWORD PTR [esi+16]

; 15   : {

  00028	c7 06 00 00 00
	00		 mov	 DWORD PTR [esi], OFFSET ??_7i3PointerStack@@6B@

; 76   : 		if( m_pBuffer != NULL)

  0002e	85 c0		 test	 eax, eax
  00030	74 17		 je	 SHORT $LN6@i3PointerS

; 77   : 		{
; 78   : 			i3MemFree( m_pBuffer );

  00032	6a 4e		 push	 78			; 0000004eH
  00034	68 00 00 00 00	 push	 OFFSET ??_C@_0GJ@KIDCANPD@E?3?2Proyectos?2JuegosOnlineproyec@
  00039	50		 push	 eax
  0003a	e8 00 00 00 00	 call	 ?FreeTool@i3mem@@YAXPAXPBDH@Z ; i3mem::FreeTool
  0003f	83 c4 0c	 add	 esp, 12			; 0000000cH

; 79   : 			m_pBuffer = NULL;

  00042	c7 46 10 00 00
	00 00		 mov	 DWORD PTR [esi+16], 0
$LN6@i3PointerS:

; 16   : 	Reset();
; 17   : }

  00049	8b ce		 mov	 ecx, esi

; 82   : 		m_MaxCount = 0;

  0004b	c7 46 18 00 00
	00 00		 mov	 DWORD PTR [esi+24], 0

; 83   : 	}
; 84   : 
; 85   : 	m_Count = 0;	

  00052	c7 46 14 00 00
	00 00		 mov	 DWORD PTR [esi+20], 0

; 16   : 	Reset();
; 17   : }

  00059	e8 00 00 00 00	 call	 ??1i3ElementBase@@UAE@XZ ; i3ElementBase::~i3ElementBase
  0005e	8b 4d f4	 mov	 ecx, DWORD PTR __$EHRec$[ebp]
  00061	64 89 0d 00 00
	00 00		 mov	 DWORD PTR fs:0, ecx
  00068	59		 pop	 ecx
  00069	5e		 pop	 esi
  0006a	8b e5		 mov	 esp, ebp
  0006c	5d		 pop	 ebp
  0006d	c3		 ret	 0
  0006e	cc		 int	 3
  0006f	cc		 int	 3
  00070	cc		 int	 3
  00071	cc		 int	 3
  00072	cc		 int	 3
_TEXT	ENDS
;	COMDAT text$x
text$x	SEGMENT
__ehhandler$??1i3PointerStack@@UAE@XZ:
  00000	90		 npad	 1
  00001	90		 npad	 1
  00002	8b 54 24 08	 mov	 edx, DWORD PTR [esp+8]
  00006	8d 42 0c	 lea	 eax, DWORD PTR [edx+12]
  00009	8b 4a f8	 mov	 ecx, DWORD PTR [edx-8]
  0000c	33 c8		 xor	 ecx, eax
  0000e	e8 00 00 00 00	 call	 @__security_check_cookie@4
  00013	b8 00 00 00 00	 mov	 eax, OFFSET __ehfuncinfo$??1i3PointerStack@@UAE@XZ
  00018	e9 00 00 00 00	 jmp	 ___CxxFrameHandler3
text$x	ENDS
??1i3PointerStack@@UAE@XZ ENDP				; i3PointerStack::~i3PointerStack
; Function compile flags: /Ogtp
; File E:\Proyectos\JuegosOnlineproyectos\PB\pbblow\Piercing Blow Remake\i3Server\src\i3Base\i3PointerStack.cpp
;	COMDAT ??0i3PointerStack@@QAE@I@Z
_TEXT	SEGMENT
_this$ = -4						; size = 4
_allocUnit$ = 8						; size = 4
??0i3PointerStack@@QAE@I@Z PROC				; i3PointerStack::i3PointerStack, COMDAT
; _this$ = ecx

; 7    : {

  00000	55		 push	 ebp
  00001	8b ec		 mov	 ebp, esp
  00003	51		 push	 ecx
  00004	56		 push	 esi
  00005	8b f1		 mov	 esi, ecx
  00007	89 75 fc	 mov	 DWORD PTR _this$[ebp], esi
  0000a	e8 00 00 00 00	 call	 ??0i3ElementBase@@QAE@XZ ; i3ElementBase::i3ElementBase

; 8    : 	m_pBuffer = NULL;
; 9    : 	m_Count = 0;
; 10   : 	m_MaxCount = 0;
; 11   : 	m_AllocUnit = allocUnit;

  0000f	8b 45 08	 mov	 eax, DWORD PTR _allocUnit$[ebp]
  00012	89 46 1c	 mov	 DWORD PTR [esi+28], eax

; 12   : }

  00015	8b c6		 mov	 eax, esi
  00017	c7 06 00 00 00
	00		 mov	 DWORD PTR [esi], OFFSET ??_7i3PointerStack@@6B@
  0001d	c7 46 10 00 00
	00 00		 mov	 DWORD PTR [esi+16], 0
  00024	c7 46 14 00 00
	00 00		 mov	 DWORD PTR [esi+20], 0
  0002b	c7 46 18 00 00
	00 00		 mov	 DWORD PTR [esi+24], 0
  00032	5e		 pop	 esi
  00033	8b e5		 mov	 esp, ebp
  00035	5d		 pop	 ebp
  00036	c2 04 00	 ret	 4
??0i3PointerStack@@QAE@I@Z ENDP				; i3PointerStack::i3PointerStack
_TEXT	ENDS
; Function compile flags: /Ogtp
; File E:\Proyectos\JuegosOnlineproyectos\PB\pbblow\Piercing Blow Remake\i3Server\src\i3Base\i3PointerStack.cpp
;	COMDAT ?AdjustBufferSize@i3PointerStack@@IAEXI@Z
_TEXT	SEGMENT
_newsz$ = 8						; size = 4
?AdjustBufferSize@i3PointerStack@@IAEXI@Z PROC		; i3PointerStack::AdjustBufferSize, COMDAT
; _this$ = ecx

; 20   : {

  00000	55		 push	 ebp
  00001	8b ec		 mov	 ebp, esp

; 21   : 	m_MaxCount = (newsz + (m_AllocUnit - 1)) / m_AllocUnit;

  00003	8b 45 08	 mov	 eax, DWORD PTR _newsz$[ebp]
  00006	33 d2		 xor	 edx, edx
  00008	56		 push	 esi
  00009	57		 push	 edi
  0000a	8b f9		 mov	 edi, ecx
  0000c	48		 dec	 eax
  0000d	8b 77 1c	 mov	 esi, DWORD PTR [edi+28]
  00010	03 c6		 add	 eax, esi
  00012	f7 f6		 div	 esi

; 22   : 	m_MaxCount *= m_AllocUnit;

  00014	0f af f0	 imul	 esi, eax

; 23   : 
; 24   : 	if( m_pBuffer == NULL)

  00017	8b 47 10	 mov	 eax, DWORD PTR [edi+16]
  0001a	89 77 18	 mov	 DWORD PTR [edi+24], esi
  0001d	c1 e6 02	 shl	 esi, 2
  00020	85 c0		 test	 eax, eax
  00022	75 1c		 jne	 SHORT $LN2@AdjustBuff

; 25   : 		m_pBuffer = (void **)i3MemAlloc( m_MaxCount * sizeof(void *));

  00024	6a 19		 push	 25			; 00000019H
  00026	68 00 00 00 00	 push	 OFFSET ??_C@_0GJ@KIDCANPD@E?3?2Proyectos?2JuegosOnlineproyec@
  0002b	6a 10		 push	 16			; 00000010H
  0002d	50		 push	 eax
  0002e	56		 push	 esi
  0002f	e8 00 00 00 00	 call	 ?AllocTool@i3mem@@YAPAXHHHPBDH@Z ; i3mem::AllocTool

; 28   : }

  00034	83 c4 14	 add	 esp, 20			; 00000014H
  00037	89 47 10	 mov	 DWORD PTR [edi+16], eax
  0003a	5f		 pop	 edi
  0003b	5e		 pop	 esi
  0003c	5d		 pop	 ebp
  0003d	c2 04 00	 ret	 4
$LN2@AdjustBuff:

; 26   : 	else
; 27   : 		m_pBuffer = (void **) i3MemReAlloc( m_pBuffer, m_MaxCount * sizeof(void *));

  00040	6a 1b		 push	 27			; 0000001bH
  00042	68 00 00 00 00	 push	 OFFSET ??_C@_0GJ@KIDCANPD@E?3?2Proyectos?2JuegosOnlineproyec@
  00047	6a 10		 push	 16			; 00000010H
  00049	56		 push	 esi
  0004a	50		 push	 eax
  0004b	ff 15 00 00 00
	00		 call	 DWORD PTR ?Realloc@i3mem@@3P6APAXPAXHHPBDH@ZA ; i3mem::Realloc

; 28   : }

  00051	83 c4 14	 add	 esp, 20			; 00000014H
  00054	89 47 10	 mov	 DWORD PTR [edi+16], eax
  00057	5f		 pop	 edi
  00058	5e		 pop	 esi
  00059	5d		 pop	 ebp
  0005a	c2 04 00	 ret	 4
?AdjustBufferSize@i3PointerStack@@IAEXI@Z ENDP		; i3PointerStack::AdjustBufferSize
_TEXT	ENDS
; Function compile flags: /Ogtp
; File E:\Proyectos\JuegosOnlineproyectos\PB\pbblow\Piercing Blow Remake\i3Server\src\i3Base\i3PointerStack.cpp
;	COMDAT ?_BindObjectRefByType@i3PointerStack@@SAPAV1@PAXW4I3_CLASSMETA_TYPE@@@Z
_TEXT	SEGMENT
_pBuf$ = 8						; size = 4
_type$ = 12						; size = 4
?_BindObjectRefByType@i3PointerStack@@SAPAV1@PAXW4I3_CLASSMETA_TYPE@@@Z PROC ; i3PointerStack::_BindObjectRefByType, COMDAT

; 4    : I3_CLASS_INSTANCE( i3PointerStack, i3ElementBase);

  00000	55		 push	 ebp
  00001	8b ec		 mov	 ebp, esp
  00003	8b 0d 00 00 00
	00		 mov	 ecx, DWORD PTR ?s_pClassMetai3PointerStack@i3PointerStack@@2PAVi3ClassMeta@@A ; i3PointerStack::s_pClassMetai3PointerStack
  00009	ff 75 0c	 push	 DWORD PTR _type$[ebp]
  0000c	ff 75 08	 push	 DWORD PTR _pBuf$[ebp]
  0000f	8b 01		 mov	 eax, DWORD PTR [ecx]
  00011	ff 50 08	 call	 DWORD PTR [eax+8]
  00014	5d		 pop	 ebp
  00015	c3		 ret	 0
?_BindObjectRefByType@i3PointerStack@@SAPAV1@PAXW4I3_CLASSMETA_TYPE@@@Z ENDP ; i3PointerStack::_BindObjectRefByType
_TEXT	ENDS
; Function compile flags: /Ogtp
; File E:\Proyectos\JuegosOnlineproyectos\PB\pbblow\Piercing Blow Remake\i3Server\src\i3Base\i3PointerStack.cpp
; File E:\Proyectos\JuegosOnlineproyectos\PB\pbblow\Piercing Blow Remake\i3Server\include\i3Base\i3ElementBase.h
; File E:\Proyectos\JuegosOnlineproyectos\PB\pbblow\Piercing Blow Remake\i3Server\src\i3Base\i3PointerStack.cpp
;	COMDAT ?_BindObjectByType@i3PointerStack@@SAPAV1@PAXW4I3_CLASSMETA_TYPE@@@Z
_TEXT	SEGMENT
_pBuf$ = 8						; size = 4
_type$ = 12						; size = 4
?_BindObjectByType@i3PointerStack@@SAPAV1@PAXW4I3_CLASSMETA_TYPE@@@Z PROC ; i3PointerStack::_BindObjectByType, COMDAT

; 4    : I3_CLASS_INSTANCE( i3PointerStack, i3ElementBase);

  00000	55		 push	 ebp
  00001	8b ec		 mov	 ebp, esp
  00003	8b 0d 00 00 00
	00		 mov	 ecx, DWORD PTR ?s_pClassMetai3PointerStack@i3PointerStack@@2PAVi3ClassMeta@@A ; i3PointerStack::s_pClassMetai3PointerStack
  00009	ff 75 0c	 push	 DWORD PTR _type$[ebp]
  0000c	ff 75 08	 push	 DWORD PTR _pBuf$[ebp]
  0000f	8b 01		 mov	 eax, DWORD PTR [ecx]
  00011	ff 50 08	 call	 DWORD PTR [eax+8]
; File E:\Proyectos\JuegosOnlineproyectos\PB\pbblow\Piercing Blow Remake\i3Server\include\i3Base\i3ElementBase.h

; 392  : 		m_RefCount++;

  00014	ff 40 04	 inc	 DWORD PTR [eax+4]
; File E:\Proyectos\JuegosOnlineproyectos\PB\pbblow\Piercing Blow Remake\i3Server\src\i3Base\i3PointerStack.cpp

; 4    : I3_CLASS_INSTANCE( i3PointerStack, i3ElementBase);

  00017	5d		 pop	 ebp
  00018	c3		 ret	 0
?_BindObjectByType@i3PointerStack@@SAPAV1@PAXW4I3_CLASSMETA_TYPE@@@Z ENDP ; i3PointerStack::_BindObjectByType
_TEXT	ENDS
; Function compile flags: /Ogtp
; File E:\Proyectos\JuegosOnlineproyectos\PB\pbblow\Piercing Blow Remake\i3Server\src\i3Base\i3PointerStack.cpp
;	COMDAT ?_NewObjectRefByType@i3PointerStack@@SAPAV1@W4I3_CLASSMETA_TYPE@@@Z
_TEXT	SEGMENT
_type$ = 8						; size = 4
?_NewObjectRefByType@i3PointerStack@@SAPAV1@W4I3_CLASSMETA_TYPE@@@Z PROC ; i3PointerStack::_NewObjectRefByType, COMDAT

; 4    : I3_CLASS_INSTANCE( i3PointerStack, i3ElementBase);

  00000	55		 push	 ebp
  00001	8b ec		 mov	 ebp, esp
  00003	8b 0d 00 00 00
	00		 mov	 ecx, DWORD PTR ?s_pClassMetai3PointerStack@i3PointerStack@@2PAVi3ClassMeta@@A ; i3PointerStack::s_pClassMetai3PointerStack
  00009	ff 75 08	 push	 DWORD PTR _type$[ebp]
  0000c	8b 01		 mov	 eax, DWORD PTR [ecx]
  0000e	ff 50 04	 call	 DWORD PTR [eax+4]
  00011	5d		 pop	 ebp
  00012	c3		 ret	 0
?_NewObjectRefByType@i3PointerStack@@SAPAV1@W4I3_CLASSMETA_TYPE@@@Z ENDP ; i3PointerStack::_NewObjectRefByType
_TEXT	ENDS
; Function compile flags: /Ogtp
; File E:\Proyectos\JuegosOnlineproyectos\PB\pbblow\Piercing Blow Remake\i3Server\src\i3Base\i3PointerStack.cpp
; File E:\Proyectos\JuegosOnlineproyectos\PB\pbblow\Piercing Blow Remake\i3Server\include\i3Base\i3ElementBase.h
; File E:\Proyectos\JuegosOnlineproyectos\PB\pbblow\Piercing Blow Remake\i3Server\src\i3Base\i3PointerStack.cpp
;	COMDAT ?_NewObjectByType@i3PointerStack@@SAPAV1@W4I3_CLASSMETA_TYPE@@@Z
_TEXT	SEGMENT
_type$ = 8						; size = 4
?_NewObjectByType@i3PointerStack@@SAPAV1@W4I3_CLASSMETA_TYPE@@@Z PROC ; i3PointerStack::_NewObjectByType, COMDAT

; 4    : I3_CLASS_INSTANCE( i3PointerStack, i3ElementBase);

  00000	55		 push	 ebp
  00001	8b ec		 mov	 ebp, esp
  00003	8b 0d 00 00 00
	00		 mov	 ecx, DWORD PTR ?s_pClassMetai3PointerStack@i3PointerStack@@2PAVi3ClassMeta@@A ; i3PointerStack::s_pClassMetai3PointerStack
  00009	ff 75 08	 push	 DWORD PTR _type$[ebp]
  0000c	8b 01		 mov	 eax, DWORD PTR [ecx]
  0000e	ff 50 04	 call	 DWORD PTR [eax+4]
; File E:\Proyectos\JuegosOnlineproyectos\PB\pbblow\Piercing Blow Remake\i3Server\include\i3Base\i3ElementBase.h

; 392  : 		m_RefCount++;

  00011	ff 40 04	 inc	 DWORD PTR [eax+4]
; File E:\Proyectos\JuegosOnlineproyectos\PB\pbblow\Piercing Blow Remake\i3Server\src\i3Base\i3PointerStack.cpp

; 4    : I3_CLASS_INSTANCE( i3PointerStack, i3ElementBase);

  00014	5d		 pop	 ebp
  00015	c3		 ret	 0
?_NewObjectByType@i3PointerStack@@SAPAV1@W4I3_CLASSMETA_TYPE@@@Z ENDP ; i3PointerStack::_NewObjectByType
_TEXT	ENDS
; Function compile flags: /Ogtp
; File E:\Proyectos\JuegosOnlineproyectos\PB\pbblow\Piercing Blow Remake\i3Server\src\i3Base\i3PointerStack.cpp
;	COMDAT ?_BindObjectRef@i3PointerStack@@SAPAV1@PAX@Z
_TEXT	SEGMENT
_pBuf$ = 8						; size = 4
?_BindObjectRef@i3PointerStack@@SAPAV1@PAX@Z PROC	; i3PointerStack::_BindObjectRef, COMDAT

; 4    : I3_CLASS_INSTANCE( i3PointerStack, i3ElementBase);

  00000	55		 push	 ebp
  00001	8b ec		 mov	 ebp, esp
  00003	8b 0d 00 00 00
	00		 mov	 ecx, DWORD PTR ?s_pClassMetai3PointerStack@i3PointerStack@@2PAVi3ClassMeta@@A ; i3PointerStack::s_pClassMetai3PointerStack
  00009	6a 00		 push	 0
  0000b	ff 75 08	 push	 DWORD PTR _pBuf$[ebp]
  0000e	8b 01		 mov	 eax, DWORD PTR [ecx]
  00010	ff 50 08	 call	 DWORD PTR [eax+8]
  00013	5d		 pop	 ebp
  00014	c3		 ret	 0
?_BindObjectRef@i3PointerStack@@SAPAV1@PAX@Z ENDP	; i3PointerStack::_BindObjectRef
_TEXT	ENDS
; Function compile flags: /Ogtp
; File E:\Proyectos\JuegosOnlineproyectos\PB\pbblow\Piercing Blow Remake\i3Server\src\i3Base\i3PointerStack.cpp
; File E:\Proyectos\JuegosOnlineproyectos\PB\pbblow\Piercing Blow Remake\i3Server\include\i3Base\i3ElementBase.h
; File E:\Proyectos\JuegosOnlineproyectos\PB\pbblow\Piercing Blow Remake\i3Server\src\i3Base\i3PointerStack.cpp
;	COMDAT ?_BindObject@i3PointerStack@@SAPAV1@PAX@Z
_TEXT	SEGMENT
_pBuf$ = 8						; size = 4
?_BindObject@i3PointerStack@@SAPAV1@PAX@Z PROC		; i3PointerStack::_BindObject, COMDAT

; 4    : I3_CLASS_INSTANCE( i3PointerStack, i3ElementBase);

  00000	55		 push	 ebp
  00001	8b ec		 mov	 ebp, esp
  00003	8b 0d 00 00 00
	00		 mov	 ecx, DWORD PTR ?s_pClassMetai3PointerStack@i3PointerStack@@2PAVi3ClassMeta@@A ; i3PointerStack::s_pClassMetai3PointerStack
  00009	6a 00		 push	 0
  0000b	ff 75 08	 push	 DWORD PTR _pBuf$[ebp]
  0000e	8b 01		 mov	 eax, DWORD PTR [ecx]
  00010	ff 50 08	 call	 DWORD PTR [eax+8]
; File E:\Proyectos\JuegosOnlineproyectos\PB\pbblow\Piercing Blow Remake\i3Server\include\i3Base\i3ElementBase.h

; 392  : 		m_RefCount++;

  00013	ff 40 04	 inc	 DWORD PTR [eax+4]
; File E:\Proyectos\JuegosOnlineproyectos\PB\pbblow\Piercing Blow Remake\i3Server\src\i3Base\i3PointerStack.cpp

; 4    : I3_CLASS_INSTANCE( i3PointerStack, i3ElementBase);

  00016	5d		 pop	 ebp
  00017	c3		 ret	 0
?_BindObject@i3PointerStack@@SAPAV1@PAX@Z ENDP		; i3PointerStack::_BindObject
_TEXT	ENDS
; Function compile flags: /Ogtp
; File E:\Proyectos\JuegosOnlineproyectos\PB\pbblow\Piercing Blow Remake\i3Server\src\i3Base\i3PointerStack.cpp
;	COMDAT ?_NewObjectRef@i3PointerStack@@SAPAV1@XZ
_TEXT	SEGMENT
?_NewObjectRef@i3PointerStack@@SAPAV1@XZ PROC		; i3PointerStack::_NewObjectRef, COMDAT

; 4    : I3_CLASS_INSTANCE( i3PointerStack, i3ElementBase);

  00000	8b 0d 00 00 00
	00		 mov	 ecx, DWORD PTR ?s_pClassMetai3PointerStack@i3PointerStack@@2PAVi3ClassMeta@@A ; i3PointerStack::s_pClassMetai3PointerStack
  00006	6a 00		 push	 0
  00008	8b 01		 mov	 eax, DWORD PTR [ecx]
  0000a	ff 50 04	 call	 DWORD PTR [eax+4]
  0000d	c3		 ret	 0
?_NewObjectRef@i3PointerStack@@SAPAV1@XZ ENDP		; i3PointerStack::_NewObjectRef
_TEXT	ENDS
; Function compile flags: /Ogtp
; File E:\Proyectos\JuegosOnlineproyectos\PB\pbblow\Piercing Blow Remake\i3Server\src\i3Base\i3PointerStack.cpp
; File E:\Proyectos\JuegosOnlineproyectos\PB\pbblow\Piercing Blow Remake\i3Server\include\i3Base\i3ElementBase.h
; File E:\Proyectos\JuegosOnlineproyectos\PB\pbblow\Piercing Blow Remake\i3Server\src\i3Base\i3PointerStack.cpp
;	COMDAT ?_NewObject@i3PointerStack@@SAPAV1@XZ
_TEXT	SEGMENT
?_NewObject@i3PointerStack@@SAPAV1@XZ PROC		; i3PointerStack::_NewObject, COMDAT

; 4    : I3_CLASS_INSTANCE( i3PointerStack, i3ElementBase);

  00000	8b 0d 00 00 00
	00		 mov	 ecx, DWORD PTR ?s_pClassMetai3PointerStack@i3PointerStack@@2PAVi3ClassMeta@@A ; i3PointerStack::s_pClassMetai3PointerStack
  00006	6a 00		 push	 0
  00008	8b 01		 mov	 eax, DWORD PTR [ecx]
  0000a	ff 50 04	 call	 DWORD PTR [eax+4]
; File E:\Proyectos\JuegosOnlineproyectos\PB\pbblow\Piercing Blow Remake\i3Server\include\i3Base\i3ElementBase.h

; 392  : 		m_RefCount++;

  0000d	ff 40 04	 inc	 DWORD PTR [eax+4]
; File E:\Proyectos\JuegosOnlineproyectos\PB\pbblow\Piercing Blow Remake\i3Server\src\i3Base\i3PointerStack.cpp

; 4    : I3_CLASS_INSTANCE( i3PointerStack, i3ElementBase);

  00010	c3		 ret	 0
?_NewObject@i3PointerStack@@SAPAV1@XZ ENDP		; i3PointerStack::_NewObject
_TEXT	ENDS
; Function compile flags: /Ogtp
; File E:\Proyectos\JuegosOnlineproyectos\PB\pbblow\Piercing Blow Remake\i3Server\src\i3Base\i3PointerStack.cpp
;	COMDAT ?SetGhostClass@i3PointerStack@@SAXPAVi3ClassMeta@@@Z
_TEXT	SEGMENT
_pMeta$ = 8						; size = 4
?SetGhostClass@i3PointerStack@@SAXPAVi3ClassMeta@@@Z PROC ; i3PointerStack::SetGhostClass, COMDAT

; 4    : I3_CLASS_INSTANCE( i3PointerStack, i3ElementBase);

  00000	55		 push	 ebp
  00001	8b ec		 mov	 ebp, esp
  00003	ff 75 08	 push	 DWORD PTR _pMeta$[ebp]
  00006	8b 0d 00 00 00
	00		 mov	 ecx, DWORD PTR ?s_pClassMetai3PointerStack@i3PointerStack@@2PAVi3ClassMeta@@A ; i3PointerStack::s_pClassMetai3PointerStack
  0000c	e8 00 00 00 00	 call	 ?SetGhostClass@i3ClassMeta@@QAEXPAV1@@Z ; i3ClassMeta::SetGhostClass
  00011	5d		 pop	 ebp
  00012	c3		 ret	 0
?SetGhostClass@i3PointerStack@@SAXPAVi3ClassMeta@@@Z ENDP ; i3PointerStack::SetGhostClass
_TEXT	ENDS
; Function compile flags: /Ogtp
; File E:\Proyectos\JuegosOnlineproyectos\PB\pbblow\Piercing Blow Remake\i3Server\src\i3Base\i3PointerStack.cpp
;	COMDAT ?SetConcreteClass@i3PointerStack@@SAXPAVi3ClassMeta@@@Z
_TEXT	SEGMENT
_pMeta$ = 8						; size = 4
?SetConcreteClass@i3PointerStack@@SAXPAVi3ClassMeta@@@Z PROC ; i3PointerStack::SetConcreteClass, COMDAT

; 4    : I3_CLASS_INSTANCE( i3PointerStack, i3ElementBase);

  00000	55		 push	 ebp
  00001	8b ec		 mov	 ebp, esp
  00003	ff 75 08	 push	 DWORD PTR _pMeta$[ebp]
  00006	8b 0d 00 00 00
	00		 mov	 ecx, DWORD PTR ?s_pClassMetai3PointerStack@i3PointerStack@@2PAVi3ClassMeta@@A ; i3PointerStack::s_pClassMetai3PointerStack
  0000c	e8 00 00 00 00	 call	 ?SetConcreteClass@i3ClassMeta@@QAEXPAV1@@Z ; i3ClassMeta::SetConcreteClass
  00011	5d		 pop	 ebp
  00012	c3		 ret	 0
?SetConcreteClass@i3PointerStack@@SAXPAVi3ClassMeta@@@Z ENDP ; i3PointerStack::SetConcreteClass
_TEXT	ENDS
; Function compile flags: /Ogtp
; File E:\Proyectos\JuegosOnlineproyectos\PB\pbblow\Piercing Blow Remake\i3Server\src\i3Base\i3PointerStack.cpp
;	COMDAT ?RegisterMeta@i3PointerStack@@SAXXZ
_TEXT	SEGMENT
?RegisterMeta@i3PointerStack@@SAXXZ PROC		; i3PointerStack::RegisterMeta, COMDAT

; 4    : I3_CLASS_INSTANCE( i3PointerStack, i3ElementBase);

  00000	8b 0d 00 00 00
	00		 mov	 ecx, DWORD PTR ?s_pClassMetai3PointerStack@i3PointerStack@@2PAVi3ClassMeta@@A ; i3PointerStack::s_pClassMetai3PointerStack
  00006	e9 00 00 00 00	 jmp	 ?Register@i3ClassMeta@@QAEXXZ ; i3ClassMeta::Register
?RegisterMeta@i3PointerStack@@SAXXZ ENDP		; i3PointerStack::RegisterMeta
_TEXT	ENDS
; Function compile flags: /Ogtp
; File E:\Proyectos\JuegosOnlineproyectos\PB\pbblow\Piercing Blow Remake\i3Server\src\i3Base\i3PointerStack.cpp
;	COMDAT ?GetMeta@i3PointerStack@@UAEPAVi3ClassMeta@@XZ
_TEXT	SEGMENT
?GetMeta@i3PointerStack@@UAEPAVi3ClassMeta@@XZ PROC	; i3PointerStack::GetMeta, COMDAT
; _this$ = ecx

; 4    : I3_CLASS_INSTANCE( i3PointerStack, i3ElementBase);

  00000	a1 00 00 00 00	 mov	 eax, DWORD PTR ?s_pClassMetai3PointerStack@i3PointerStack@@2PAVi3ClassMeta@@A ; i3PointerStack::s_pClassMetai3PointerStack
  00005	c3		 ret	 0
?GetMeta@i3PointerStack@@UAEPAVi3ClassMeta@@XZ ENDP	; i3PointerStack::GetMeta
_TEXT	ENDS
; Function compile flags: /Ogtp
; File E:\Proyectos\JuegosOnlineproyectos\PB\pbblow\Piercing Blow Remake\i3Server\include\i3Base\i3PointerStack.h
;	COMDAT ?GetClassMeta@i3PointerStack@@SAPAVi3ClassMeta@@XZ
_TEXT	SEGMENT
?GetClassMeta@i3PointerStack@@SAPAVi3ClassMeta@@XZ PROC	; i3PointerStack::GetClassMeta, COMDAT

; 9    : 	I3_CLASS_DEFINE( i3PointerStack);

  00000	a1 00 00 00 00	 mov	 eax, DWORD PTR ?s_pClassMetai3PointerStack@i3PointerStack@@2PAVi3ClassMeta@@A ; i3PointerStack::s_pClassMetai3PointerStack
  00005	c3		 ret	 0
?GetClassMeta@i3PointerStack@@SAPAVi3ClassMeta@@XZ ENDP	; i3PointerStack::GetClassMeta
_TEXT	ENDS
; Function compile flags: /Ogtp
;	COMDAT ??_Ei3MemoryPool@@UAEPAXI@Z
_TEXT	SEGMENT
__$EHRec$ = -12						; size = 12
___flags$ = 8						; size = 4
??_Ei3MemoryPool@@UAEPAXI@Z PROC			; i3MemoryPool::`vector deleting destructor', COMDAT
; _this$ = ecx
  00000	55		 push	 ebp
  00001	8b ec		 mov	 ebp, esp
  00003	6a ff		 push	 -1
  00005	68 00 00 00 00	 push	 __ehhandler$??_Ei3MemoryPool@@UAEPAXI@Z
  0000a	64 a1 00 00 00
	00		 mov	 eax, DWORD PTR fs:0
  00010	50		 push	 eax
  00011	53		 push	 ebx
  00012	56		 push	 esi
  00013	57		 push	 edi
  00014	a1 00 00 00 00	 mov	 eax, DWORD PTR ___security_cookie
  00019	33 c5		 xor	 eax, ebp
  0001b	50		 push	 eax
  0001c	8d 45 f4	 lea	 eax, DWORD PTR __$EHRec$[ebp]
  0001f	64 a3 00 00 00
	00		 mov	 DWORD PTR fs:0, eax
  00025	8b f1		 mov	 esi, ecx
  00027	8b 45 08	 mov	 eax, DWORD PTR ___flags$[ebp]
  0002a	8b f8		 mov	 edi, eax
  0002c	83 e7 01	 and	 edi, 1
  0002f	a8 02		 test	 al, 2
  00031	74 40		 je	 SHORT $LN2@vector
  00033	68 00 00 00 00	 push	 OFFSET ??1i3MemoryPool@@UAE@XZ ; i3MemoryPool::~i3MemoryPool
  00038	ff 76 fc	 push	 DWORD PTR [esi-4]
  0003b	8d 5e fc	 lea	 ebx, DWORD PTR [esi-4]
  0003e	6a 04		 push	 4
  00040	56		 push	 esi
  00041	e8 00 00 00 00	 call	 ??_M@YGXPAXIIP6EX0@Z@Z
  00046	85 ff		 test	 edi, edi
  00048	74 13		 je	 SHORT $LN3@vector
  0004a	8b 0b		 mov	 ecx, DWORD PTR [ebx]
  0004c	8d 0c 8d 04 00
	00 00		 lea	 ecx, DWORD PTR [ecx*4+4]
  00053	51		 push	 ecx
  00054	53		 push	 ebx
  00055	e8 00 00 00 00	 call	 ??_V@YAXPAXI@Z		; operator delete[]
  0005a	83 c4 08	 add	 esp, 8
$LN3@vector:
  0005d	8b c3		 mov	 eax, ebx
  0005f	8b 4d f4	 mov	 ecx, DWORD PTR __$EHRec$[ebp]
  00062	64 89 0d 00 00
	00 00		 mov	 DWORD PTR fs:0, ecx
  00069	59		 pop	 ecx
  0006a	5f		 pop	 edi
  0006b	5e		 pop	 esi
  0006c	5b		 pop	 ebx
  0006d	8b e5		 mov	 esp, ebp
  0006f	5d		 pop	 ebp
  00070	c2 04 00	 ret	 4
$LN2@vector:
  00073	e8 00 00 00 00	 call	 ??1i3MemoryPool@@UAE@XZ	; i3MemoryPool::~i3MemoryPool
  00078	85 ff		 test	 edi, edi
  0007a	74 0b		 je	 SHORT $LN4@vector
  0007c	6a 04		 push	 4
  0007e	56		 push	 esi
  0007f	e8 00 00 00 00	 call	 ??3@YAXPAXI@Z		; operator delete
  00084	83 c4 08	 add	 esp, 8
$LN4@vector:
  00087	8b c6		 mov	 eax, esi
  00089	8b 4d f4	 mov	 ecx, DWORD PTR __$EHRec$[ebp]
  0008c	64 89 0d 00 00
	00 00		 mov	 DWORD PTR fs:0, ecx
  00093	59		 pop	 ecx
  00094	5f		 pop	 edi
  00095	5e		 pop	 esi
  00096	5b		 pop	 ebx
  00097	8b e5		 mov	 esp, ebp
  00099	5d		 pop	 ebp
  0009a	c2 04 00	 ret	 4
  0009d	cc		 int	 3
  0009e	cc		 int	 3
  0009f	cc		 int	 3
  000a0	cc		 int	 3
  000a1	cc		 int	 3
_TEXT	ENDS
;	COMDAT text$x
text$x	SEGMENT
__ehhandler$??_Ei3MemoryPool@@UAEPAXI@Z:
  00000	90		 npad	 1
  00001	90		 npad	 1
  00002	8b 54 24 08	 mov	 edx, DWORD PTR [esp+8]
  00006	8d 42 0c	 lea	 eax, DWORD PTR [edx+12]
  00009	8b 4a f0	 mov	 ecx, DWORD PTR [edx-16]
  0000c	33 c8		 xor	 ecx, eax
  0000e	e8 00 00 00 00	 call	 @__security_check_cookie@4
  00013	b8 00 00 00 00	 mov	 eax, OFFSET __ehfuncinfo$??_Ei3MemoryPool@@UAEPAXI@Z
  00018	e9 00 00 00 00	 jmp	 ___CxxFrameHandler3
text$x	ENDS
??_Ei3MemoryPool@@UAEPAXI@Z ENDP			; i3MemoryPool::`vector deleting destructor'
; Function compile flags: /Ogtp
;	COMDAT ??_Gi3MemoryPool@@UAEPAXI@Z
_TEXT	SEGMENT
___flags$ = 8						; size = 4
??_Gi3MemoryPool@@UAEPAXI@Z PROC			; i3MemoryPool::`scalar deleting destructor', COMDAT
; _this$ = ecx
  00000	55		 push	 ebp
  00001	8b ec		 mov	 ebp, esp
  00003	56		 push	 esi
  00004	8b f1		 mov	 esi, ecx
  00006	e8 00 00 00 00	 call	 ??1i3MemoryPool@@UAE@XZ	; i3MemoryPool::~i3MemoryPool
  0000b	f6 45 08 01	 test	 BYTE PTR ___flags$[ebp], 1
  0000f	74 0b		 je	 SHORT $LN5@scalar
  00011	6a 04		 push	 4
  00013	56		 push	 esi
  00014	e8 00 00 00 00	 call	 ??3@YAXPAXI@Z		; operator delete
  00019	83 c4 08	 add	 esp, 8
$LN5@scalar:
  0001c	8b c6		 mov	 eax, esi
  0001e	5e		 pop	 esi
  0001f	5d		 pop	 ebp
  00020	c2 04 00	 ret	 4
??_Gi3MemoryPool@@UAEPAXI@Z ENDP			; i3MemoryPool::`scalar deleting destructor'
_TEXT	ENDS
; Function compile flags: /Ogtp
;	COMDAT ??4i3MemoryPool@@QAEAAV0@ABV0@@Z
_TEXT	SEGMENT
___that$ = 8						; size = 4
??4i3MemoryPool@@QAEAAV0@ABV0@@Z PROC			; i3MemoryPool::operator=, COMDAT
; _this$ = ecx
  00000	8b c1		 mov	 eax, ecx
  00002	c2 04 00	 ret	 4
??4i3MemoryPool@@QAEAAV0@ABV0@@Z ENDP			; i3MemoryPool::operator=
_TEXT	ENDS
; Function compile flags: /Ogtp
;	COMDAT ??0i3MemoryPool@@QAE@ABV0@@Z
_TEXT	SEGMENT
___that$ = 8						; size = 4
??0i3MemoryPool@@QAE@ABV0@@Z PROC			; i3MemoryPool::i3MemoryPool, COMDAT
; _this$ = ecx
  00000	c7 01 00 00 00
	00		 mov	 DWORD PTR [ecx], OFFSET ??_7i3MemoryPool@@6B@
  00006	8b c1		 mov	 eax, ecx
  00008	c2 04 00	 ret	 4
??0i3MemoryPool@@QAE@ABV0@@Z ENDP			; i3MemoryPool::i3MemoryPool
_TEXT	ENDS
; Function compile flags: /Ogtp
; File E:\Proyectos\JuegosOnlineproyectos\PB\pbblow\Piercing Blow Remake\i3Server\src\i3Base\i3PointerStack.cpp
;	COMDAT ??_Ei3ElementBase@@UAEPAXI@Z
_TEXT	SEGMENT
__$EHRec$ = -12						; size = 12
___flags$ = 8						; size = 4
??_Ei3ElementBase@@UAEPAXI@Z PROC			; i3ElementBase::`vector deleting destructor', COMDAT
; _this$ = ecx
  00000	55		 push	 ebp
  00001	8b ec		 mov	 ebp, esp
  00003	6a ff		 push	 -1
  00005	68 00 00 00 00	 push	 __ehhandler$??_Ei3ElementBase@@UAEPAXI@Z
  0000a	64 a1 00 00 00
	00		 mov	 eax, DWORD PTR fs:0
  00010	50		 push	 eax
  00011	53		 push	 ebx
  00012	56		 push	 esi
  00013	57		 push	 edi
  00014	a1 00 00 00 00	 mov	 eax, DWORD PTR ___security_cookie
  00019	33 c5		 xor	 eax, ebp
  0001b	50		 push	 eax
  0001c	8d 45 f4	 lea	 eax, DWORD PTR __$EHRec$[ebp]
  0001f	64 a3 00 00 00
	00		 mov	 DWORD PTR fs:0, eax
  00025	8b f1		 mov	 esi, ecx
  00027	8b 5d 08	 mov	 ebx, DWORD PTR ___flags$[ebp]
  0002a	8b fb		 mov	 edi, ebx
  0002c	83 e7 01	 and	 edi, 1
  0002f	f6 c3 02	 test	 bl, 2
  00032	74 3f		 je	 SHORT $LN2@vector
  00034	68 00 00 00 00	 push	 OFFSET ??1i3ElementBase@@UAE@XZ ; i3ElementBase::~i3ElementBase
  00039	ff 76 fc	 push	 DWORD PTR [esi-4]
  0003c	8d 5e fc	 lea	 ebx, DWORD PTR [esi-4]
  0003f	6a 10		 push	 16			; 00000010H
  00041	56		 push	 esi
  00042	e8 00 00 00 00	 call	 ??_M@YGXPAXIIP6EX0@Z@Z
  00047	85 ff		 test	 edi, edi
  00049	74 12		 je	 SHORT $LN3@vector
  0004b	8b 0b		 mov	 ecx, DWORD PTR [ebx]
  0004d	c1 e1 04	 shl	 ecx, 4
  00050	83 c1 04	 add	 ecx, 4
  00053	51		 push	 ecx
  00054	53		 push	 ebx
  00055	e8 00 00 00 00	 call	 ??_V@YAXPAXI@Z		; operator delete[]
  0005a	83 c4 08	 add	 esp, 8
$LN3@vector:
  0005d	8b c3		 mov	 eax, ebx
  0005f	8b 4d f4	 mov	 ecx, DWORD PTR __$EHRec$[ebp]
  00062	64 89 0d 00 00
	00 00		 mov	 DWORD PTR fs:0, ecx
  00069	59		 pop	 ecx
  0006a	5f		 pop	 edi
  0006b	5e		 pop	 esi
  0006c	5b		 pop	 ebx
  0006d	8b e5		 mov	 esp, ebp
  0006f	5d		 pop	 ebp
  00070	c2 04 00	 ret	 4
$LN2@vector:
  00073	e8 00 00 00 00	 call	 ??1i3ElementBase@@UAE@XZ ; i3ElementBase::~i3ElementBase
  00078	85 ff		 test	 edi, edi
  0007a	74 1b		 je	 SHORT $LN6@vector
  0007c	f6 c3 04	 test	 bl, 4
  0007f	75 0b		 jne	 SHORT $LN5@vector
  00081	56		 push	 esi
  00082	e8 00 00 00 00	 call	 ??3i3ElementBase@@SAXPAX@Z ; i3ElementBase::operator delete
  00087	83 c4 04	 add	 esp, 4
  0008a	eb 0b		 jmp	 SHORT $LN6@vector
$LN5@vector:

  0008c	6a 10		 push	 16			; 00000010H
  0008e	56		 push	 esi
  0008f	e8 00 00 00 00	 call	 ??3@YAXPAXI@Z		; operator delete
  00094	83 c4 08	 add	 esp, 8
$LN6@vector:
  00097	8b c6		 mov	 eax, esi
  00099	8b 4d f4	 mov	 ecx, DWORD PTR __$EHRec$[ebp]
  0009c	64 89 0d 00 00
	00 00		 mov	 DWORD PTR fs:0, ecx
  000a3	59		 pop	 ecx
  000a4	5f		 pop	 edi
  000a5	5e		 pop	 esi
  000a6	5b		 pop	 ebx
  000a7	8b e5		 mov	 esp, ebp
  000a9	5d		 pop	 ebp
  000aa	c2 04 00	 ret	 4
  000ad	cc		 int	 3
  000ae	cc		 int	 3
  000af	cc		 int	 3
  000b0	cc		 int	 3
  000b1	cc		 int	 3
_TEXT	ENDS
;	COMDAT text$x
text$x	SEGMENT
__ehhandler$??_Ei3ElementBase@@UAEPAXI@Z:
  00000	90		 npad	 1
  00001	90		 npad	 1
  00002	8b 54 24 08	 mov	 edx, DWORD PTR [esp+8]
  00006	8d 42 0c	 lea	 eax, DWORD PTR [edx+12]
  00009	8b 4a f0	 mov	 ecx, DWORD PTR [edx-16]
  0000c	33 c8		 xor	 ecx, eax
  0000e	e8 00 00 00 00	 call	 @__security_check_cookie@4
  00013	b8 00 00 00 00	 mov	 eax, OFFSET __ehfuncinfo$??_Ei3ElementBase@@UAEPAXI@Z
  00018	e9 00 00 00 00	 jmp	 ___CxxFrameHandler3
text$x	ENDS
??_Ei3ElementBase@@UAEPAXI@Z ENDP			; i3ElementBase::`vector deleting destructor'
; Function compile flags: /Ogtp
; File E:\Proyectos\JuegosOnlineproyectos\PB\pbblow\Piercing Blow Remake\i3Server\src\i3Base\i3PointerStack.cpp
;	COMDAT ??_Gi3ElementBase@@UAEPAXI@Z
_TEXT	SEGMENT
___flags$ = 8						; size = 4
??_Gi3ElementBase@@UAEPAXI@Z PROC			; i3ElementBase::`scalar deleting destructor', COMDAT
; _this$ = ecx
  00000	55		 push	 ebp
  00001	8b ec		 mov	 ebp, esp
  00003	56		 push	 esi
  00004	8b f1		 mov	 esi, ecx
  00006	e8 00 00 00 00	 call	 ??1i3ElementBase@@UAE@XZ ; i3ElementBase::~i3ElementBase
  0000b	8b 45 08	 mov	 eax, DWORD PTR ___flags$[ebp]
  0000e	a8 01		 test	 al, 1
  00010	74 1f		 je	 SHORT $LN10@scalar
  00012	a8 04		 test	 al, 4
  00014	75 10		 jne	 SHORT $LN3@scalar
  00016	56		 push	 esi
  00017	e8 00 00 00 00	 call	 ??3i3ElementBase@@SAXPAX@Z ; i3ElementBase::operator delete
  0001c	83 c4 04	 add	 esp, 4
  0001f	8b c6		 mov	 eax, esi
  00021	5e		 pop	 esi
  00022	5d		 pop	 ebp
  00023	c2 04 00	 ret	 4
$LN3@scalar:

  00026	6a 10		 push	 16			; 00000010H
  00028	56		 push	 esi
  00029	e8 00 00 00 00	 call	 ??3@YAXPAXI@Z		; operator delete
  0002e	83 c4 08	 add	 esp, 8
$LN10@scalar:
  00031	8b c6		 mov	 eax, esi
  00033	5e		 pop	 esi
  00034	5d		 pop	 ebp
  00035	c2 04 00	 ret	 4
??_Gi3ElementBase@@UAEPAXI@Z ENDP			; i3ElementBase::`scalar deleting destructor'
_TEXT	ENDS
; Function compile flags: /Ogtp
;	COMDAT ??4i3ElementBase@@QAEAAV0@ABV0@@Z
_TEXT	SEGMENT
___that$ = 8						; size = 4
??4i3ElementBase@@QAEAAV0@ABV0@@Z PROC			; i3ElementBase::operator=, COMDAT
; _this$ = ecx
  00000	55		 push	 ebp
  00001	8b ec		 mov	 ebp, esp
  00003	8b 55 08	 mov	 edx, DWORD PTR ___that$[ebp]
  00006	8b 42 04	 mov	 eax, DWORD PTR [edx+4]
  00009	89 41 04	 mov	 DWORD PTR [ecx+4], eax
  0000c	8b 42 08	 mov	 eax, DWORD PTR [edx+8]
  0000f	89 41 08	 mov	 DWORD PTR [ecx+8], eax
  00012	8b 42 0c	 mov	 eax, DWORD PTR [edx+12]
  00015	89 41 0c	 mov	 DWORD PTR [ecx+12], eax
  00018	8b c1		 mov	 eax, ecx
  0001a	5d		 pop	 ebp
  0001b	c2 04 00	 ret	 4
??4i3ElementBase@@QAEAAV0@ABV0@@Z ENDP			; i3ElementBase::operator=
_TEXT	ENDS
; Function compile flags: /Ogtp
;	COMDAT ??0i3ElementBase@@QAE@ABV0@@Z
_TEXT	SEGMENT
___that$ = 8						; size = 4
??0i3ElementBase@@QAE@ABV0@@Z PROC			; i3ElementBase::i3ElementBase, COMDAT
; _this$ = ecx
  00000	55		 push	 ebp
  00001	8b ec		 mov	 ebp, esp
  00003	8b 55 08	 mov	 edx, DWORD PTR ___that$[ebp]
  00006	c7 01 00 00 00
	00		 mov	 DWORD PTR [ecx], OFFSET ??_7i3ElementBase@@6B@
  0000c	8b 42 04	 mov	 eax, DWORD PTR [edx+4]
  0000f	89 41 04	 mov	 DWORD PTR [ecx+4], eax
  00012	8b 42 08	 mov	 eax, DWORD PTR [edx+8]
  00015	89 41 08	 mov	 DWORD PTR [ecx+8], eax
  00018	8b 42 0c	 mov	 eax, DWORD PTR [edx+12]
  0001b	89 41 0c	 mov	 DWORD PTR [ecx+12], eax
  0001e	8b c1		 mov	 eax, ecx
  00020	5d		 pop	 ebp
  00021	c2 04 00	 ret	 4
??0i3ElementBase@@QAE@ABV0@@Z ENDP			; i3ElementBase::i3ElementBase
_TEXT	ENDS
; Function compile flags: /Ogtp
; File E:\Proyectos\JuegosOnlineproyectos\PB\pbblow\Piercing Blow Remake\i3Server\include\i3Base\i3ElementBase.h
;	COMDAT ?_internal_SetRefCount@i3ElementBase@@QAEXH@Z
_TEXT	SEGMENT
_cnt$ = 8						; size = 4
?_internal_SetRefCount@i3ElementBase@@QAEXH@Z PROC	; i3ElementBase::_internal_SetRefCount, COMDAT
; _this$ = ecx

; 401  : 	{

  00000	55		 push	 ebp
  00001	8b ec		 mov	 ebp, esp

; 402  : 		m_RefCount = cnt;

  00003	8b 45 08	 mov	 eax, DWORD PTR _cnt$[ebp]
  00006	89 41 04	 mov	 DWORD PTR [ecx+4], eax

; 403  : 	}

  00009	5d		 pop	 ebp
  0000a	c2 04 00	 ret	 4
?_internal_SetRefCount@i3ElementBase@@QAEXH@Z ENDP	; i3ElementBase::_internal_SetRefCount
_TEXT	ENDS
; Function compile flags: /Ogtp
; File E:\Proyectos\JuegosOnlineproyectos\PB\pbblow\Piercing Blow Remake\i3Server\include\i3Base\i3ElementBase.h
;	COMDAT ?AddRef@i3ElementBase@@QAEHXZ
_TEXT	SEGMENT
?AddRef@i3ElementBase@@QAEHXZ PROC			; i3ElementBase::AddRef, COMDAT
; _this$ = ecx

; 392  : 		m_RefCount++;

  00000	ff 41 04	 inc	 DWORD PTR [ecx+4]

; 393  : 
; 394  : 		return m_RefCount;

  00003	8b 41 04	 mov	 eax, DWORD PTR [ecx+4]

; 395  : 	}

  00006	c3		 ret	 0
?AddRef@i3ElementBase@@QAEHXZ ENDP			; i3ElementBase::AddRef
_TEXT	ENDS
; Function compile flags: /Ogtp
; File E:\Proyectos\JuegosOnlineproyectos\PB\pbblow\Piercing Blow Remake\i3Server\include\i3Base\i3ElementBase.h
;	COMDAT ?IsTypeOf@i3ElementBase@@QAE_NPAVi3ClassMeta@@@Z
_TEXT	SEGMENT
_pMeta$ = 8						; size = 4
?IsTypeOf@i3ElementBase@@QAE_NPAVi3ClassMeta@@@Z PROC	; i3ElementBase::IsTypeOf, COMDAT
; _this$ = ecx

; 356  : 	{

  00000	55		 push	 ebp
  00001	8b ec		 mov	 ebp, esp

; 357  : 		return GetMeta()->IsTypeOf( pMeta);

  00003	8b 01		 mov	 eax, DWORD PTR [ecx]
  00005	ff 75 08	 push	 DWORD PTR _pMeta$[ebp]
  00008	ff 10		 call	 DWORD PTR [eax]
  0000a	8b c8		 mov	 ecx, eax
  0000c	e8 00 00 00 00	 call	 ?IsTypeOf@i3ClassMeta@@QAE_NPAV1@@Z ; i3ClassMeta::IsTypeOf

; 358  : 	}

  00011	5d		 pop	 ebp
  00012	c2 04 00	 ret	 4
?IsTypeOf@i3ElementBase@@QAE_NPAVi3ClassMeta@@@Z ENDP	; i3ElementBase::IsTypeOf
_TEXT	ENDS
; Function compile flags: /Ogtp
; File E:\Proyectos\JuegosOnlineproyectos\PB\pbblow\Piercing Blow Remake\i3Server\include\i3Base\i3ElementBase.h
; File E:\Proyectos\JuegosOnlineproyectos\PB\pbblow\Piercing Blow Remake\i3Server\include\i3Base\i3ClassMeta.h
; File E:\Proyectos\JuegosOnlineproyectos\PB\pbblow\Piercing Blow Remake\i3Server\include\i3Base\i3ElementBase.h
;	COMDAT ?IsExactTypeOf@i3ElementBase@@QAE_NPAVi3ClassMeta@@@Z
_TEXT	SEGMENT
_pMeta$ = 8						; size = 4
?IsExactTypeOf@i3ElementBase@@QAE_NPAVi3ClassMeta@@@Z PROC ; i3ElementBase::IsExactTypeOf, COMDAT
; _this$ = ecx

; 351  : 	{

  00000	55		 push	 ebp
  00001	8b ec		 mov	 ebp, esp

; 352  : 		return GetMeta()->IsExactTypeOf( pMeta);

  00003	8b 01		 mov	 eax, DWORD PTR [ecx]
  00005	ff 10		 call	 DWORD PTR [eax]
; File E:\Proyectos\JuegosOnlineproyectos\PB\pbblow\Piercing Blow Remake\i3Server\include\i3Base\i3ClassMeta.h

; 90   : 		return pMeta == this;

  00007	39 45 08	 cmp	 DWORD PTR _pMeta$[ebp], eax
  0000a	0f 94 c0	 sete	 al
; File E:\Proyectos\JuegosOnlineproyectos\PB\pbblow\Piercing Blow Remake\i3Server\include\i3Base\i3ElementBase.h

; 353  : 	}

  0000d	5d		 pop	 ebp
  0000e	c2 04 00	 ret	 4
?IsExactTypeOf@i3ElementBase@@QAE_NPAVi3ClassMeta@@@Z ENDP ; i3ElementBase::IsExactTypeOf
_TEXT	ENDS
; Function compile flags: /Ogtp
; File E:\Proyectos\JuegosOnlineproyectos\PB\pbblow\Piercing Blow Remake\i3Server\include\i3Base\i3ElementBase.h
;	COMDAT ?__GetMemoryPool@i3ElementBase@@QAEPAVi3MemoryPool@@XZ
_TEXT	SEGMENT
?__GetMemoryPool@i3ElementBase@@QAEPAVi3MemoryPool@@XZ PROC ; i3ElementBase::__GetMemoryPool, COMDAT
; _this$ = ecx

; 348  : 	i3MemoryPool *	__GetMemoryPool(void)							{ return m_pPool; }

  00000	8b 41 0c	 mov	 eax, DWORD PTR [ecx+12]
  00003	c3		 ret	 0
?__GetMemoryPool@i3ElementBase@@QAEPAVi3MemoryPool@@XZ ENDP ; i3ElementBase::__GetMemoryPool
_TEXT	ENDS
; Function compile flags: /Ogtp
; File E:\Proyectos\JuegosOnlineproyectos\PB\pbblow\Piercing Blow Remake\i3Server\include\i3Base\i3ElementBase.h
;	COMDAT ?__SetMemoryPool@i3ElementBase@@QAEXPAVi3MemoryPool@@@Z
_TEXT	SEGMENT
_pPool$ = 8						; size = 4
?__SetMemoryPool@i3ElementBase@@QAEXPAVi3MemoryPool@@@Z PROC ; i3ElementBase::__SetMemoryPool, COMDAT
; _this$ = ecx

; 347  : 	void			__SetMemoryPool( i3MemoryPool * pPool)			{ m_pPool = pPool; }

  00000	55		 push	 ebp
  00001	8b ec		 mov	 ebp, esp
  00003	8b 45 08	 mov	 eax, DWORD PTR _pPool$[ebp]
  00006	89 41 0c	 mov	 DWORD PTR [ecx+12], eax
  00009	5d		 pop	 ebp
  0000a	c2 04 00	 ret	 4
?__SetMemoryPool@i3ElementBase@@QAEXPAVi3MemoryPool@@@Z ENDP ; i3ElementBase::__SetMemoryPool
_TEXT	ENDS
; Function compile flags: /Ogtp
; File E:\Proyectos\JuegosOnlineproyectos\PB\pbblow\Piercing Blow Remake\i3Server\include\i3Base\i3ElementBase.h
;	COMDAT ?GetRefCount@i3ElementBase@@QAEHXZ
_TEXT	SEGMENT
?GetRefCount@i3ElementBase@@QAEHXZ PROC			; i3ElementBase::GetRefCount, COMDAT
; _this$ = ecx

; 344  : 		return m_RefCount;

  00000	8b 41 04	 mov	 eax, DWORD PTR [ecx+4]

; 345  : 	}

  00003	c3		 ret	 0
?GetRefCount@i3ElementBase@@QAEHXZ ENDP			; i3ElementBase::GetRefCount
_TEXT	ENDS
; Function compile flags: /Ogtp
; File E:\Proyectos\JuegosOnlineproyectos\PB\pbblow\Piercing Blow Remake\i3Server\include\i3Base\i3ElementBase.h
;	COMDAT ?GetClassMeta@i3ElementBase@@SAPAVi3ClassMeta@@XZ
_TEXT	SEGMENT
?GetClassMeta@i3ElementBase@@SAPAVi3ClassMeta@@XZ PROC	; i3ElementBase::GetClassMeta, COMDAT

; 314  : 	I3_ABSTRACT_CLASS_DEFINE( i3ElementBase);

  00000	a1 00 00 00 00	 mov	 eax, DWORD PTR ?s_pClassMetai3ElementBase@i3ElementBase@@2PAVi3ClassMeta@@A ; i3ElementBase::s_pClassMetai3ElementBase
  00005	c3		 ret	 0
?GetClassMeta@i3ElementBase@@SAPAVi3ClassMeta@@XZ ENDP	; i3ElementBase::GetClassMeta
_TEXT	ENDS
; Function compile flags: /Ogtp
;	COMDAT ??_Ei3ClassMeta@@UAEPAXI@Z
_TEXT	SEGMENT
__$EHRec$ = -12						; size = 12
___flags$ = 8						; size = 4
??_Ei3ClassMeta@@UAEPAXI@Z PROC				; i3ClassMeta::`vector deleting destructor', COMDAT
; _this$ = ecx
  00000	55		 push	 ebp
  00001	8b ec		 mov	 ebp, esp
  00003	6a ff		 push	 -1
  00005	68 00 00 00 00	 push	 __ehhandler$??_Ei3ClassMeta@@UAEPAXI@Z
  0000a	64 a1 00 00 00
	00		 mov	 eax, DWORD PTR fs:0
  00010	50		 push	 eax
  00011	53		 push	 ebx
  00012	56		 push	 esi
  00013	57		 push	 edi
  00014	a1 00 00 00 00	 mov	 eax, DWORD PTR ___security_cookie
  00019	33 c5		 xor	 eax, ebp
  0001b	50		 push	 eax
  0001c	8d 45 f4	 lea	 eax, DWORD PTR __$EHRec$[ebp]
  0001f	64 a3 00 00 00
	00		 mov	 DWORD PTR fs:0, eax
  00025	8b f1		 mov	 esi, ecx
  00027	8b 45 08	 mov	 eax, DWORD PTR ___flags$[ebp]
  0002a	8b f8		 mov	 edi, eax
  0002c	83 e7 01	 and	 edi, 1
  0002f	a8 02		 test	 al, 2
  00031	74 49		 je	 SHORT $LN2@vector
  00033	68 00 00 00 00	 push	 OFFSET ??1i3ClassMeta@@UAE@XZ ; i3ClassMeta::~i3ClassMeta
  00038	ff 76 fc	 push	 DWORD PTR [esi-4]
  0003b	8d 5e fc	 lea	 ebx, DWORD PTR [esi-4]
  0003e	6a 38		 push	 56			; 00000038H
  00040	56		 push	 esi
  00041	e8 00 00 00 00	 call	 ??_M@YGXPAXIIP6EX0@Z@Z
  00046	85 ff		 test	 edi, edi
  00048	74 1c		 je	 SHORT $LN3@vector
  0004a	8b 0b		 mov	 ecx, DWORD PTR [ebx]
  0004c	8d 14 cd 00 00
	00 00		 lea	 edx, DWORD PTR [ecx*8]
  00053	2b d1		 sub	 edx, ecx
  00055	8d 0c d5 04 00
	00 00		 lea	 ecx, DWORD PTR [edx*8+4]
  0005c	51		 push	 ecx
  0005d	53		 push	 ebx
  0005e	e8 00 00 00 00	 call	 ??_V@YAXPAXI@Z		; operator delete[]
  00063	83 c4 08	 add	 esp, 8
$LN3@vector:
  00066	8b c3		 mov	 eax, ebx
  00068	8b 4d f4	 mov	 ecx, DWORD PTR __$EHRec$[ebp]
  0006b	64 89 0d 00 00
	00 00		 mov	 DWORD PTR fs:0, ecx
  00072	59		 pop	 ecx
  00073	5f		 pop	 edi
  00074	5e		 pop	 esi
  00075	5b		 pop	 ebx
  00076	8b e5		 mov	 esp, ebp
  00078	5d		 pop	 ebp
  00079	c2 04 00	 ret	 4
$LN2@vector:
  0007c	e8 00 00 00 00	 call	 ??1i3ClassMeta@@UAE@XZ	; i3ClassMeta::~i3ClassMeta
  00081	85 ff		 test	 edi, edi
  00083	74 0b		 je	 SHORT $LN4@vector
  00085	6a 38		 push	 56			; 00000038H
  00087	56		 push	 esi
  00088	e8 00 00 00 00	 call	 ??3@YAXPAXI@Z		; operator delete
  0008d	83 c4 08	 add	 esp, 8
$LN4@vector:
  00090	8b c6		 mov	 eax, esi
  00092	8b 4d f4	 mov	 ecx, DWORD PTR __$EHRec$[ebp]
  00095	64 89 0d 00 00
	00 00		 mov	 DWORD PTR fs:0, ecx
  0009c	59		 pop	 ecx
  0009d	5f		 pop	 edi
  0009e	5e		 pop	 esi
  0009f	5b		 pop	 ebx
  000a0	8b e5		 mov	 esp, ebp
  000a2	5d		 pop	 ebp
  000a3	c2 04 00	 ret	 4
  000a6	cc		 int	 3
  000a7	cc		 int	 3
  000a8	cc		 int	 3
  000a9	cc		 int	 3
  000aa	cc		 int	 3
_TEXT	ENDS
;	COMDAT text$x
text$x	SEGMENT
__ehhandler$??_Ei3ClassMeta@@UAEPAXI@Z:
  00000	90		 npad	 1
  00001	90		 npad	 1
  00002	8b 54 24 08	 mov	 edx, DWORD PTR [esp+8]
  00006	8d 42 0c	 lea	 eax, DWORD PTR [edx+12]
  00009	8b 4a f0	 mov	 ecx, DWORD PTR [edx-16]
  0000c	33 c8		 xor	 ecx, eax
  0000e	e8 00 00 00 00	 call	 @__security_check_cookie@4
  00013	b8 00 00 00 00	 mov	 eax, OFFSET __ehfuncinfo$??_Ei3ClassMeta@@UAEPAXI@Z
  00018	e9 00 00 00 00	 jmp	 ___CxxFrameHandler3
text$x	ENDS
??_Ei3ClassMeta@@UAEPAXI@Z ENDP				; i3ClassMeta::`vector deleting destructor'
; Function compile flags: /Ogtp
;	COMDAT ??_Gi3ClassMeta@@UAEPAXI@Z
_TEXT	SEGMENT
___flags$ = 8						; size = 4
??_Gi3ClassMeta@@UAEPAXI@Z PROC				; i3ClassMeta::`scalar deleting destructor', COMDAT
; _this$ = ecx
  00000	55		 push	 ebp
  00001	8b ec		 mov	 ebp, esp
  00003	56		 push	 esi
  00004	8b f1		 mov	 esi, ecx
  00006	e8 00 00 00 00	 call	 ??1i3ClassMeta@@UAE@XZ	; i3ClassMeta::~i3ClassMeta
  0000b	f6 45 08 01	 test	 BYTE PTR ___flags$[ebp], 1
  0000f	74 0b		 je	 SHORT $LN5@scalar
  00011	6a 38		 push	 56			; 00000038H
  00013	56		 push	 esi
  00014	e8 00 00 00 00	 call	 ??3@YAXPAXI@Z		; operator delete
  00019	83 c4 08	 add	 esp, 8
$LN5@scalar:
  0001c	8b c6		 mov	 eax, esi
  0001e	5e		 pop	 esi
  0001f	5d		 pop	 ebp
  00020	c2 04 00	 ret	 4
??_Gi3ClassMeta@@UAEPAXI@Z ENDP				; i3ClassMeta::`scalar deleting destructor'
_TEXT	ENDS
; Function compile flags: /Ogtp
;	COMDAT ??4i3ClassMeta@@QAEAAV0@ABV0@@Z
_TEXT	SEGMENT
___that$ = 8						; size = 4
??4i3ClassMeta@@QAEAAV0@ABV0@@Z PROC			; i3ClassMeta::operator=, COMDAT
; _this$ = ecx
  00000	55		 push	 ebp
  00001	8b ec		 mov	 ebp, esp
  00003	8b 55 08	 mov	 edx, DWORD PTR ___that$[ebp]
  00006	8b 42 04	 mov	 eax, DWORD PTR [edx+4]
  00009	89 41 04	 mov	 DWORD PTR [ecx+4], eax
  0000c	8b 42 08	 mov	 eax, DWORD PTR [edx+8]
  0000f	89 41 08	 mov	 DWORD PTR [ecx+8], eax
  00012	8b 42 0c	 mov	 eax, DWORD PTR [edx+12]
  00015	89 41 0c	 mov	 DWORD PTR [ecx+12], eax
  00018	8b 42 10	 mov	 eax, DWORD PTR [edx+16]
  0001b	89 41 10	 mov	 DWORD PTR [ecx+16], eax
  0001e	8b 42 14	 mov	 eax, DWORD PTR [edx+20]
  00021	89 41 14	 mov	 DWORD PTR [ecx+20], eax
  00024	8b 42 18	 mov	 eax, DWORD PTR [edx+24]
  00027	89 41 18	 mov	 DWORD PTR [ecx+24], eax
  0002a	8b 42 1c	 mov	 eax, DWORD PTR [edx+28]
  0002d	89 41 1c	 mov	 DWORD PTR [ecx+28], eax
  00030	8b 42 20	 mov	 eax, DWORD PTR [edx+32]
  00033	89 41 20	 mov	 DWORD PTR [ecx+32], eax
  00036	8b 42 24	 mov	 eax, DWORD PTR [edx+36]
  00039	89 41 24	 mov	 DWORD PTR [ecx+36], eax
  0003c	8b 42 28	 mov	 eax, DWORD PTR [edx+40]
  0003f	89 41 28	 mov	 DWORD PTR [ecx+40], eax
  00042	8b 42 2c	 mov	 eax, DWORD PTR [edx+44]
  00045	89 41 2c	 mov	 DWORD PTR [ecx+44], eax
  00048	8b 42 30	 mov	 eax, DWORD PTR [edx+48]
  0004b	89 41 30	 mov	 DWORD PTR [ecx+48], eax
  0004e	8b 42 34	 mov	 eax, DWORD PTR [edx+52]
  00051	89 41 34	 mov	 DWORD PTR [ecx+52], eax
  00054	8b c1		 mov	 eax, ecx
  00056	5d		 pop	 ebp
  00057	c2 04 00	 ret	 4
??4i3ClassMeta@@QAEAAV0@ABV0@@Z ENDP			; i3ClassMeta::operator=
_TEXT	ENDS
; Function compile flags: /Ogtp
;	COMDAT ??0i3ClassMeta@@QAE@ABV0@@Z
_TEXT	SEGMENT
___that$ = 8						; size = 4
??0i3ClassMeta@@QAE@ABV0@@Z PROC			; i3ClassMeta::i3ClassMeta, COMDAT
; _this$ = ecx
  00000	55		 push	 ebp
  00001	8b ec		 mov	 ebp, esp
  00003	8b 55 08	 mov	 edx, DWORD PTR ___that$[ebp]
  00006	c7 01 00 00 00
	00		 mov	 DWORD PTR [ecx], OFFSET ??_7i3ClassMeta@@6B@
  0000c	8b 42 04	 mov	 eax, DWORD PTR [edx+4]
  0000f	89 41 04	 mov	 DWORD PTR [ecx+4], eax
  00012	8b 42 08	 mov	 eax, DWORD PTR [edx+8]
  00015	89 41 08	 mov	 DWORD PTR [ecx+8], eax
  00018	8b 42 0c	 mov	 eax, DWORD PTR [edx+12]
  0001b	89 41 0c	 mov	 DWORD PTR [ecx+12], eax
  0001e	8b 42 10	 mov	 eax, DWORD PTR [edx+16]
  00021	89 41 10	 mov	 DWORD PTR [ecx+16], eax
  00024	8b 42 14	 mov	 eax, DWORD PTR [edx+20]
  00027	89 41 14	 mov	 DWORD PTR [ecx+20], eax
  0002a	8b 42 18	 mov	 eax, DWORD PTR [edx+24]
  0002d	89 41 18	 mov	 DWORD PTR [ecx+24], eax
  00030	8b 42 1c	 mov	 eax, DWORD PTR [edx+28]
  00033	89 41 1c	 mov	 DWORD PTR [ecx+28], eax
  00036	8b 42 20	 mov	 eax, DWORD PTR [edx+32]
  00039	89 41 20	 mov	 DWORD PTR [ecx+32], eax
  0003c	8b 42 24	 mov	 eax, DWORD PTR [edx+36]
  0003f	89 41 24	 mov	 DWORD PTR [ecx+36], eax
  00042	8b 42 28	 mov	 eax, DWORD PTR [edx+40]
  00045	89 41 28	 mov	 DWORD PTR [ecx+40], eax
  00048	8b 42 2c	 mov	 eax, DWORD PTR [edx+44]
  0004b	89 41 2c	 mov	 DWORD PTR [ecx+44], eax
  0004e	8b 42 30	 mov	 eax, DWORD PTR [edx+48]
  00051	89 41 30	 mov	 DWORD PTR [ecx+48], eax
  00054	8b 42 34	 mov	 eax, DWORD PTR [edx+52]
  00057	89 41 34	 mov	 DWORD PTR [ecx+52], eax
  0005a	8b c1		 mov	 eax, ecx
  0005c	5d		 pop	 ebp
  0005d	c2 04 00	 ret	 4
??0i3ClassMeta@@QAE@ABV0@@Z ENDP			; i3ClassMeta::i3ClassMeta
_TEXT	ENDS
; Function compile flags: /Ogtp
; File E:\Proyectos\JuegosOnlineproyectos\PB\pbblow\Piercing Blow Remake\i3Server\include\i3Base\i3ClassMeta.h
;	COMDAT ?getHashCode@i3ClassMeta@@QAEIXZ
_TEXT	SEGMENT
?getHashCode@i3ClassMeta@@QAEIXZ PROC			; i3ClassMeta::getHashCode, COMDAT
; _this$ = ecx

; 112  : 	UINT32			getHashCode(void)						{ return m_HashCode; }

  00000	8b 41 18	 mov	 eax, DWORD PTR [ecx+24]
  00003	c3		 ret	 0
?getHashCode@i3ClassMeta@@QAEIXZ ENDP			; i3ClassMeta::getHashCode
_TEXT	ENDS
; Function compile flags: /Ogtp
; File E:\Proyectos\JuegosOnlineproyectos\PB\pbblow\Piercing Blow Remake\i3Server\include\i3Base\i3ClassMeta.h
;	COMDAT ?GetBaseClassMeta@i3ClassMeta@@QAEPAV1@XZ
_TEXT	SEGMENT
?GetBaseClassMeta@i3ClassMeta@@QAEPAV1@XZ PROC		; i3ClassMeta::GetBaseClassMeta, COMDAT
; _this$ = ecx

; 107  : 	i3ClassMeta *	GetBaseClassMeta(void)					{ return m_pBaseClass; }

  00000	8b 41 1c	 mov	 eax, DWORD PTR [ecx+28]
  00003	c3		 ret	 0
?GetBaseClassMeta@i3ClassMeta@@QAEPAV1@XZ ENDP		; i3ClassMeta::GetBaseClassMeta
_TEXT	ENDS
; Function compile flags: /Ogtp
; File E:\Proyectos\JuegosOnlineproyectos\PB\pbblow\Piercing Blow Remake\i3Server\include\i3Base\i3ClassMeta.h
;	COMDAT ?IsConcreteClass@i3ClassMeta@@QAEHXZ
_TEXT	SEGMENT
?IsConcreteClass@i3ClassMeta@@QAEHXZ PROC		; i3ClassMeta::IsConcreteClass, COMDAT
; _this$ = ecx

; 102  : 	BOOL			IsStyle( UINT32 style)					{ return (m_Style & style) == style; }

  00000	8b 41 14	 mov	 eax, DWORD PTR [ecx+20]
  00003	d1 e8		 shr	 eax, 1
  00005	83 e0 01	 and	 eax, 1

; 105  : 	BOOL			IsConcreteClass(void)					{ return IsStyle( I3_CLASSMETA_STYLE_CONCRETE); }

  00008	c3		 ret	 0
?IsConcreteClass@i3ClassMeta@@QAEHXZ ENDP		; i3ClassMeta::IsConcreteClass
_TEXT	ENDS
; Function compile flags: /Ogtp
; File E:\Proyectos\JuegosOnlineproyectos\PB\pbblow\Piercing Blow Remake\i3Server\include\i3Base\i3ClassMeta.h
;	COMDAT ?IsAbstractClass@i3ClassMeta@@QAEHXZ
_TEXT	SEGMENT
?IsAbstractClass@i3ClassMeta@@QAEHXZ PROC		; i3ClassMeta::IsAbstractClass, COMDAT
; _this$ = ecx

; 102  : 	BOOL			IsStyle( UINT32 style)					{ return (m_Style & style) == style; }

  00000	8b 41 14	 mov	 eax, DWORD PTR [ecx+20]
  00003	83 e0 01	 and	 eax, 1

; 104  : 	BOOL			IsAbstractClass(void)					{ return IsStyle( I3_CLASSMETA_STYLE_ABSTRACT); }

  00006	c3		 ret	 0
?IsAbstractClass@i3ClassMeta@@QAEHXZ ENDP		; i3ClassMeta::IsAbstractClass
_TEXT	ENDS
; Function compile flags: /Ogtp
; File E:\Proyectos\JuegosOnlineproyectos\PB\pbblow\Piercing Blow Remake\i3Server\include\i3Base\i3ClassMeta.h
;	COMDAT ?IsStyle@i3ClassMeta@@QAEHI@Z
_TEXT	SEGMENT
_style$ = 8						; size = 4
?IsStyle@i3ClassMeta@@QAEHI@Z PROC			; i3ClassMeta::IsStyle, COMDAT
; _this$ = ecx

; 102  : 	BOOL			IsStyle( UINT32 style)					{ return (m_Style & style) == style; }

  00000	55		 push	 ebp
  00001	8b ec		 mov	 ebp, esp
  00003	8b 51 14	 mov	 edx, DWORD PTR [ecx+20]
  00006	33 c0		 xor	 eax, eax
  00008	23 55 08	 and	 edx, DWORD PTR _style$[ebp]
  0000b	3b 55 08	 cmp	 edx, DWORD PTR _style$[ebp]
  0000e	0f 94 c0	 sete	 al
  00011	5d		 pop	 ebp
  00012	c2 04 00	 ret	 4
?IsStyle@i3ClassMeta@@QAEHI@Z ENDP			; i3ClassMeta::IsStyle
_TEXT	ENDS
; Function compile flags: /Ogtp
; File E:\Proyectos\JuegosOnlineproyectos\PB\pbblow\Piercing Blow Remake\i3Server\include\i3Base\i3ClassMeta.h
;	COMDAT ?RemoveStyle@i3ClassMeta@@QAEXI@Z
_TEXT	SEGMENT
_style$ = 8						; size = 4
?RemoveStyle@i3ClassMeta@@QAEXI@Z PROC			; i3ClassMeta::RemoveStyle, COMDAT
; _this$ = ecx

; 101  : 	void			RemoveStyle( UINT32 style)				{ m_Style &= ~style; }

  00000	55		 push	 ebp
  00001	8b ec		 mov	 ebp, esp
  00003	8b 45 08	 mov	 eax, DWORD PTR _style$[ebp]
  00006	f7 d0		 not	 eax
  00008	21 41 14	 and	 DWORD PTR [ecx+20], eax
  0000b	5d		 pop	 ebp
  0000c	c2 04 00	 ret	 4
?RemoveStyle@i3ClassMeta@@QAEXI@Z ENDP			; i3ClassMeta::RemoveStyle
_TEXT	ENDS
; Function compile flags: /Ogtp
; File E:\Proyectos\JuegosOnlineproyectos\PB\pbblow\Piercing Blow Remake\i3Server\include\i3Base\i3ClassMeta.h
;	COMDAT ?AddStyle@i3ClassMeta@@QAEXI@Z
_TEXT	SEGMENT
_style$ = 8						; size = 4
?AddStyle@i3ClassMeta@@QAEXI@Z PROC			; i3ClassMeta::AddStyle, COMDAT
; _this$ = ecx

; 100  : 	void			AddStyle( UINT32 style)					{ m_Style |= style; }

  00000	55		 push	 ebp
  00001	8b ec		 mov	 ebp, esp
  00003	8b 45 08	 mov	 eax, DWORD PTR _style$[ebp]
  00006	09 41 14	 or	 DWORD PTR [ecx+20], eax
  00009	5d		 pop	 ebp
  0000a	c2 04 00	 ret	 4
?AddStyle@i3ClassMeta@@QAEXI@Z ENDP			; i3ClassMeta::AddStyle
_TEXT	ENDS
; Function compile flags: /Ogtp
; File E:\Proyectos\JuegosOnlineproyectos\PB\pbblow\Piercing Blow Remake\i3Server\include\i3Base\i3ClassMeta.h
;	COMDAT ?GetStyle@i3ClassMeta@@QAEIXZ
_TEXT	SEGMENT
?GetStyle@i3ClassMeta@@QAEIXZ PROC			; i3ClassMeta::GetStyle, COMDAT
; _this$ = ecx

; 99   : 	UINT32			GetStyle(void)							{ return m_Style; }

  00000	8b 41 14	 mov	 eax, DWORD PTR [ecx+20]
  00003	c3		 ret	 0
?GetStyle@i3ClassMeta@@QAEIXZ ENDP			; i3ClassMeta::GetStyle
_TEXT	ENDS
; Function compile flags: /Ogtp
; File E:\Proyectos\JuegosOnlineproyectos\PB\pbblow\Piercing Blow Remake\i3Server\include\i3Base\i3ClassMeta.h
;	COMDAT ?SetStyle@i3ClassMeta@@QAEXI@Z
_TEXT	SEGMENT
_style$ = 8						; size = 4
?SetStyle@i3ClassMeta@@QAEXI@Z PROC			; i3ClassMeta::SetStyle, COMDAT
; _this$ = ecx

; 98   : 	void			SetStyle( UINT32 style)					{ m_Style = style; }

  00000	55		 push	 ebp
  00001	8b ec		 mov	 ebp, esp
  00003	8b 45 08	 mov	 eax, DWORD PTR _style$[ebp]
  00006	89 41 14	 mov	 DWORD PTR [ecx+20], eax
  00009	5d		 pop	 ebp
  0000a	c2 04 00	 ret	 4
?SetStyle@i3ClassMeta@@QAEXI@Z ENDP			; i3ClassMeta::SetStyle
_TEXT	ENDS
; Function compile flags: /Ogtp
; File E:\Proyectos\JuegosOnlineproyectos\PB\pbblow\Piercing Blow Remake\i3Server\include\i3Base\i3ClassMeta.h
;	COMDAT ?IsExactTypeOf@i3ClassMeta@@QAE_NPAV1@@Z
_TEXT	SEGMENT
_pMeta$ = 8						; size = 4
?IsExactTypeOf@i3ClassMeta@@QAE_NPAV1@@Z PROC		; i3ClassMeta::IsExactTypeOf, COMDAT
; _this$ = ecx

; 89   : 	{

  00000	55		 push	 ebp
  00001	8b ec		 mov	 ebp, esp

; 90   : 		return pMeta == this;

  00003	39 4d 08	 cmp	 DWORD PTR _pMeta$[ebp], ecx
  00006	0f 94 c0	 sete	 al

; 91   : 	}

  00009	5d		 pop	 ebp
  0000a	c2 04 00	 ret	 4
?IsExactTypeOf@i3ClassMeta@@QAE_NPAV1@@Z ENDP		; i3ClassMeta::IsExactTypeOf
_TEXT	ENDS
; Function compile flags: /Ogtp
; File E:\Proyectos\JuegosOnlineproyectos\PB\pbblow\Piercing Blow Remake\i3Server\include\i3Base\i3ClassMeta.h
;	COMDAT ?GetClassNameA@i3ClassMeta@@QAEPADXZ
_TEXT	SEGMENT
?GetClassNameA@i3ClassMeta@@QAEPADXZ PROC		; i3ClassMeta::GetClassNameA, COMDAT
; _this$ = ecx

; 83   : 		return m_pszClassName;

  00000	8b 41 0c	 mov	 eax, DWORD PTR [ecx+12]

; 84   : 	}

  00003	c3		 ret	 0
?GetClassNameA@i3ClassMeta@@QAEPADXZ ENDP		; i3ClassMeta::GetClassNameA
_TEXT	ENDS
; Function compile flags: /Ogtp
; File E:\Proyectos\JuegosOnlineproyectos\PB\pbblow\Piercing Blow Remake\i3Server\include\i3Base\i3ClassMeta.h
;	COMDAT ?GetClassSize@i3ClassMeta@@QAEIXZ
_TEXT	SEGMENT
?GetClassSize@i3ClassMeta@@QAEIXZ PROC			; i3ClassMeta::GetClassSize, COMDAT
; _this$ = ecx

; 78   : 		return m_ClassSize;

  00000	8b 41 08	 mov	 eax, DWORD PTR [ecx+8]

; 79   : 	}

  00003	c3		 ret	 0
?GetClassSize@i3ClassMeta@@QAEIXZ ENDP			; i3ClassMeta::GetClassSize
_TEXT	ENDS
; Function compile flags: /Ogtp
; File E:\Proyectos\JuegosOnlineproyectos\PB\pbblow\Piercing Blow Remake\i3Server\include\i3Base\i3ClassMeta.h
;	COMDAT ?SetMemoryPool@i3ClassMeta@@QAEXPAVi3MemoryPool@@@Z
_TEXT	SEGMENT
_pPool$ = 8						; size = 4
?SetMemoryPool@i3ClassMeta@@QAEXPAVi3MemoryPool@@@Z PROC ; i3ClassMeta::SetMemoryPool, COMDAT
; _this$ = ecx

; 66   : 	void			SetMemoryPool( i3MemoryPool * pPool)		{ m_pPool = pPool; }

  00000	55		 push	 ebp
  00001	8b ec		 mov	 ebp, esp
  00003	8b 45 08	 mov	 eax, DWORD PTR _pPool$[ebp]
  00006	89 41 34	 mov	 DWORD PTR [ecx+52], eax
  00009	5d		 pop	 ebp
  0000a	c2 04 00	 ret	 4
?SetMemoryPool@i3ClassMeta@@QAEXPAVi3MemoryPool@@@Z ENDP ; i3ClassMeta::SetMemoryPool
_TEXT	ENDS
; Function compile flags: /Ogtp
; File E:\Proyectos\JuegosOnlineproyectos\PB\pbblow\Piercing Blow Remake\i3Server\include\i3Base\i3ClassMeta.h
;	COMDAT ?GetMemoryPool@i3ClassMeta@@QAEPAVi3MemoryPool@@XZ
_TEXT	SEGMENT
?GetMemoryPool@i3ClassMeta@@QAEPAVi3MemoryPool@@XZ PROC	; i3ClassMeta::GetMemoryPool, COMDAT
; _this$ = ecx

; 65   : 	i3MemoryPool *	GetMemoryPool(void)							{ return m_pPool; }

  00000	8b 41 34	 mov	 eax, DWORD PTR [ecx+52]
  00003	c3		 ret	 0
?GetMemoryPool@i3ClassMeta@@QAEPAVi3MemoryPool@@XZ ENDP	; i3ClassMeta::GetMemoryPool
_TEXT	ENDS
; Function compile flags: /Ogtp
; File E:\Proyectos\JuegosOnlineproyectos\PB\pbblow\Piercing Blow Remake\i3Server\src\i3Base\i3PointerStack.cpp
;	COMDAT ?__global_array_delete@@YAXPAXI@Z
_TEXT	SEGMENT
_p$ = 8							; size = 4
_sz$ = 12						; size = 4
?__global_array_delete@@YAXPAXI@Z PROC			; __global_array_delete, COMDAT

  00000	e9 00 00 00 00	 jmp	 ??_V@YAXPAXI@Z		; operator delete[]
?__global_array_delete@@YAXPAXI@Z ENDP			; __global_array_delete
_TEXT	ENDS
; Function compile flags: /Ogtp
; File E:\Proyectos\JuegosOnlineproyectos\PB\pbblow\Piercing Blow Remake\i3Server\src\i3Base\i3PointerStack.cpp
;	COMDAT ?__global_array_delete@@YAXPAX@Z
_TEXT	SEGMENT
_p$ = 8							; size = 4
?__global_array_delete@@YAXPAX@Z PROC			; __global_array_delete, COMDAT

  00000	e9 00 00 00 00	 jmp	 ??_V@YAXPAX@Z		; operator delete[]
?__global_array_delete@@YAXPAX@Z ENDP			; __global_array_delete
_TEXT	ENDS
; Function compile flags: /Ogtp
; File E:\Proyectos\JuegosOnlineproyectos\PB\pbblow\Piercing Blow Remake\i3Server\src\i3Base\i3PointerStack.cpp
;	COMDAT ?__global_delete@@YAXPAXI@Z
_TEXT	SEGMENT
_p$ = 8							; size = 4
_sz$ = 12						; size = 4
?__global_delete@@YAXPAXI@Z PROC			; __global_delete, COMDAT

  00000	e9 00 00 00 00	 jmp	 ??3@YAXPAXI@Z		; operator delete
?__global_delete@@YAXPAXI@Z ENDP			; __global_delete
_TEXT	ENDS
; Function compile flags: /Ogtp
; File E:\Proyectos\JuegosOnlineproyectos\PB\pbblow\Piercing Blow Remake\i3Server\src\i3Base\i3PointerStack.cpp
;	COMDAT ?__empty_global_delete@@YAXPAXI@Z
_TEXT	SEGMENT
___formal$ = 8						; size = 4
___formal$ = 12						; size = 4
?__empty_global_delete@@YAXPAXI@Z PROC			; __empty_global_delete, COMDAT

  00000	c2 00 00	 ret	 0
?__empty_global_delete@@YAXPAXI@Z ENDP			; __empty_global_delete
_TEXT	ENDS
; Function compile flags: /Ogtp
; File E:\Proyectos\JuegosOnlineproyectos\PB\pbblow\Piercing Blow Remake\i3Server\src\i3Base\i3PointerStack.cpp
;	COMDAT ?__global_delete@@YAXPAX@Z
_TEXT	SEGMENT
_p$ = 8							; size = 4
?__global_delete@@YAXPAX@Z PROC				; __global_delete, COMDAT

  00000	e9 00 00 00 00	 jmp	 ??3@YAXPAX@Z		; operator delete
?__global_delete@@YAXPAX@Z ENDP				; __global_delete
_TEXT	ENDS
; Function compile flags: /Ogtp
; File E:\Proyectos\JuegosOnlineproyectos\PB\pbblow\Piercing Blow Remake\i3Server\src\i3Base\i3PointerStack.cpp
;	COMDAT ?__empty_global_delete@@YAXPAX@Z
_TEXT	SEGMENT
___formal$ = 8						; size = 4
?__empty_global_delete@@YAXPAX@Z PROC			; __empty_global_delete, COMDAT

  00000	c2 00 00	 ret	 0
?__empty_global_delete@@YAXPAX@Z ENDP			; __empty_global_delete
_TEXT	ENDS
END
