; Listing generated by Microsoft (R) Optimizing Compiler Version 19.50.35727.0 

	TITLE	E:\Proyectos\JuegosOnlineproyectos\PB\pbblow\Piercing Blow Remake\i3Server\Project\I3_DX\i3Server\x86\Release\i3PropertyGridDefines.obj
	.686P
	.XMM
	include listing.inc
	.model	flat

INCLUDELIB LIBCMT
INCLUDELIB OLDNAMES

PUBLIC	__Avx2WmemEnabledWeakValue
;	COMDAT __Avx2WmemEnabledWeakValue
_BSS	SEGMENT
__Avx2WmemEnabledWeakValue DD 01H DUP (?)
_BSS	ENDS
PUBLIC	?__empty_global_delete@@YAXPAX@Z		; __empty_global_delete
PUBLIC	?__global_delete@@YAXPAX@Z			; __global_delete
PUBLIC	?__empty_global_delete@@YAXPAXI@Z		; __empty_global_delete
PUBLIC	?__global_delete@@YAXPAXI@Z			; __global_delete
PUBLIC	?__global_array_delete@@YAXPAX@Z		; __global_array_delete
PUBLIC	?__global_array_delete@@YAXPAXI@Z		; __global_array_delete
PUBLIC	?AddMFCProperty_BeginGroup@@YAXPAVi3List@@PBD1@Z ; AddMFCProperty_BeginGroup
PUBLIC	?AddMFCProperty_EndGroup@@YAXPAVi3List@@@Z	; AddMFCProperty_EndGroup
PUBLIC	?AddMFCProperty_Bool@@YAXPAVi3List@@PA_NPBD2_N@Z ; AddMFCProperty_Bool
PUBLIC	?AddMFCProperty_Int32@@YAXPAVi3List@@PAHPBD2HH_N@Z ; AddMFCProperty_Int32
PUBLIC	?AddMFCProperty_Real32@@YAXPAVi3List@@PAMPBD2MM_N@Z ; AddMFCProperty_Real32
PUBLIC	?AddMFCProperty_String@@YAXPAVi3List@@PADIPBD2_N@Z ; AddMFCProperty_String
PUBLIC	?AddMFCProperty_StringW@@YAXPAVi3List@@PAGIPBD2_N@Z ; AddMFCProperty_StringW
PUBLIC	?AddMFCProperty_Combo@@YAXPAVi3List@@PAVi3StringList@@PAHPBD3_N@Z ; AddMFCProperty_Combo
PUBLIC	?AddMFCProperty_File@@YAXPAVi3List@@PADIPBD2@Z	; AddMFCProperty_File
PUBLIC	?AddMFCProperty_Button@@YAXPAVi3List@@P6AXXZPBDPAD2@Z ; AddMFCProperty_Button
PUBLIC	?AddMFCProperty_Image@@YAXPAVi3List@@PADIPBD2@Z	; AddMFCProperty_Image
PUBLIC	?GetMemoryPool@i3ClassMeta@@QAEPAVi3MemoryPool@@XZ ; i3ClassMeta::GetMemoryPool
PUBLIC	?SetMemoryPool@i3ClassMeta@@QAEXPAVi3MemoryPool@@@Z ; i3ClassMeta::SetMemoryPool
PUBLIC	?GetClassSize@i3ClassMeta@@QAEIXZ		; i3ClassMeta::GetClassSize
PUBLIC	?GetClassNameA@i3ClassMeta@@QAEPADXZ		; i3ClassMeta::GetClassNameA
PUBLIC	?IsExactTypeOf@i3ClassMeta@@QAE_NPAV1@@Z	; i3ClassMeta::IsExactTypeOf
PUBLIC	?SetStyle@i3ClassMeta@@QAEXI@Z			; i3ClassMeta::SetStyle
PUBLIC	?GetStyle@i3ClassMeta@@QAEIXZ			; i3ClassMeta::GetStyle
PUBLIC	?AddStyle@i3ClassMeta@@QAEXI@Z			; i3ClassMeta::AddStyle
PUBLIC	?RemoveStyle@i3ClassMeta@@QAEXI@Z		; i3ClassMeta::RemoveStyle
PUBLIC	?IsStyle@i3ClassMeta@@QAEHI@Z			; i3ClassMeta::IsStyle
PUBLIC	?IsAbstractClass@i3ClassMeta@@QAEHXZ		; i3ClassMeta::IsAbstractClass
PUBLIC	?IsConcreteClass@i3ClassMeta@@QAEHXZ		; i3ClassMeta::IsConcreteClass
PUBLIC	?GetBaseClassMeta@i3ClassMeta@@QAEPAV1@XZ	; i3ClassMeta::GetBaseClassMeta
PUBLIC	?getHashCode@i3ClassMeta@@QAEIXZ		; i3ClassMeta::getHashCode
PUBLIC	??0i3ClassMeta@@QAE@ABV0@@Z			; i3ClassMeta::i3ClassMeta
PUBLIC	??4i3ClassMeta@@QAEAAV0@ABV0@@Z			; i3ClassMeta::operator=
PUBLIC	??_Gi3ClassMeta@@UAEPAXI@Z			; i3ClassMeta::`scalar deleting destructor'
PUBLIC	??_Ei3ClassMeta@@UAEPAXI@Z			; i3ClassMeta::`vector deleting destructor'
PUBLIC	?GetClassMeta@i3ElementBase@@SAPAVi3ClassMeta@@XZ ; i3ElementBase::GetClassMeta
PUBLIC	?GetRefCount@i3ElementBase@@QAEHXZ		; i3ElementBase::GetRefCount
PUBLIC	?__SetMemoryPool@i3ElementBase@@QAEXPAVi3MemoryPool@@@Z ; i3ElementBase::__SetMemoryPool
PUBLIC	?__GetMemoryPool@i3ElementBase@@QAEPAVi3MemoryPool@@XZ ; i3ElementBase::__GetMemoryPool
PUBLIC	?IsExactTypeOf@i3ElementBase@@QAE_NPAVi3ClassMeta@@@Z ; i3ElementBase::IsExactTypeOf
PUBLIC	?IsTypeOf@i3ElementBase@@QAE_NPAVi3ClassMeta@@@Z ; i3ElementBase::IsTypeOf
PUBLIC	?AddRef@i3ElementBase@@QAEHXZ			; i3ElementBase::AddRef
PUBLIC	?_internal_SetRefCount@i3ElementBase@@QAEXH@Z	; i3ElementBase::_internal_SetRefCount
PUBLIC	??0i3ElementBase@@QAE@ABV0@@Z			; i3ElementBase::i3ElementBase
PUBLIC	??4i3ElementBase@@QAEAAV0@ABV0@@Z		; i3ElementBase::operator=
PUBLIC	??_Gi3ElementBase@@UAEPAXI@Z			; i3ElementBase::`scalar deleting destructor'
PUBLIC	??_Ei3ElementBase@@UAEPAXI@Z			; i3ElementBase::`vector deleting destructor'
PUBLIC	??0i3MemoryPool@@QAE@ABV0@@Z			; i3MemoryPool::i3MemoryPool
PUBLIC	??4i3MemoryPool@@QAEAAV0@ABV0@@Z		; i3MemoryPool::operator=
PUBLIC	??_Gi3MemoryPool@@UAEPAXI@Z			; i3MemoryPool::`scalar deleting destructor'
PUBLIC	??_Ei3MemoryPool@@UAEPAXI@Z			; i3MemoryPool::`vector deleting destructor'
PUBLIC	?GetClassMeta@i3Stream@@SAPAVi3ClassMeta@@XZ	; i3Stream::GetClassMeta
PUBLIC	?GetSize@i3Stream@@QAEIXZ			; i3Stream::GetSize
PUBLIC	?GetLastError@i3Stream@@QAE?AW4STREAMCODE@1@XZ	; i3Stream::GetLastError
PUBLIC	?GetAccessMode@i3Stream@@QAEHXZ			; i3Stream::GetAccessMode
PUBLIC	?GetHandle@i3Stream@@UAEPAXXZ			; i3Stream::GetHandle
PUBLIC	?BeginRecord@i3Stream@@QAEXXZ			; i3Stream::BeginRecord
PUBLIC	?GetRecordSize@i3Stream@@QAEIXZ			; i3Stream::GetRecordSize
PUBLIC	??0i3Stream@@QAE@ABV0@@Z			; i3Stream::i3Stream
PUBLIC	??4i3Stream@@QAEAAV0@ABV0@@Z			; i3Stream::operator=
PUBLIC	??_Gi3Stream@@UAEPAXI@Z				; i3Stream::`scalar deleting destructor'
PUBLIC	??_Ei3Stream@@UAEPAXI@Z				; i3Stream::`vector deleting destructor'
PUBLIC	?GetClassMeta@i3FileStream@@SAPAVi3ClassMeta@@XZ ; i3FileStream::GetClassMeta
PUBLIC	?GetHandle@i3FileStream@@UAEPAXXZ		; i3FileStream::GetHandle
PUBLIC	?GetFileName@i3FileStream@@QAEPADXZ		; i3FileStream::GetFileName
PUBLIC	?SetCaseSensitive@i3FileStream@@SAXH@Z		; i3FileStream::SetCaseSensitive
PUBLIC	?IsCaseSensitive@i3FileStream@@SAHXZ		; i3FileStream::IsCaseSensitive
PUBLIC	??0i3FileStream@@QAE@ABV0@@Z			; i3FileStream::i3FileStream
PUBLIC	??4i3FileStream@@QAEAAV0@ABV0@@Z		; i3FileStream::operator=
PUBLIC	??_Gi3FileStream@@UAEPAXI@Z			; i3FileStream::`scalar deleting destructor'
PUBLIC	??_Ei3FileStream@@UAEPAXI@Z			; i3FileStream::`vector deleting destructor'
PUBLIC	??0TiXmlString@@QAE@XZ				; TiXmlString::TiXmlString
PUBLIC	??0TiXmlString@@QAE@ABV0@@Z			; TiXmlString::TiXmlString
PUBLIC	??0TiXmlString@@QAE@PBD@Z			; TiXmlString::TiXmlString
PUBLIC	??0TiXmlString@@QAE@PBDI@Z			; TiXmlString::TiXmlString
PUBLIC	??1TiXmlString@@QAE@XZ				; TiXmlString::~TiXmlString
PUBLIC	??4TiXmlString@@QAEAAV0@PBD@Z			; TiXmlString::operator=
PUBLIC	??4TiXmlString@@QAEAAV0@ABV0@@Z			; TiXmlString::operator=
PUBLIC	??YTiXmlString@@QAEAAV0@PBD@Z			; TiXmlString::operator+=
PUBLIC	??YTiXmlString@@QAEAAV0@D@Z			; TiXmlString::operator+=
PUBLIC	??YTiXmlString@@QAEAAV0@ABV0@@Z			; TiXmlString::operator+=
PUBLIC	?c_str@TiXmlString@@QBEPBDXZ			; TiXmlString::c_str
PUBLIC	?data@TiXmlString@@QBEPBDXZ			; TiXmlString::data
PUBLIC	?length@TiXmlString@@QBEIXZ			; TiXmlString::length
PUBLIC	?size@TiXmlString@@QBEIXZ			; TiXmlString::size
PUBLIC	?empty@TiXmlString@@QBE_NXZ			; TiXmlString::empty
PUBLIC	?capacity@TiXmlString@@QBEIXZ			; TiXmlString::capacity
PUBLIC	?at@TiXmlString@@QBEABDI@Z			; TiXmlString::at
PUBLIC	??ATiXmlString@@QBEAADI@Z			; TiXmlString::operator[]
PUBLIC	?find@TiXmlString@@QBEID@Z			; TiXmlString::find
PUBLIC	?find@TiXmlString@@QBEIDI@Z			; TiXmlString::find
PUBLIC	?clear@TiXmlString@@QAEXXZ			; TiXmlString::clear
PUBLIC	?swap@TiXmlString@@QAEXAAV1@@Z			; TiXmlString::swap
PUBLIC	?init@TiXmlString@@AAEXI@Z			; TiXmlString::init
PUBLIC	?set_size@TiXmlString@@AAEXI@Z			; TiXmlString::set_size
PUBLIC	?start@TiXmlString@@ABEPADXZ			; TiXmlString::start
PUBLIC	?finish@TiXmlString@@ABEPADXZ			; TiXmlString::finish
PUBLIC	?init@TiXmlString@@AAEXII@Z			; TiXmlString::init
PUBLIC	?quit@TiXmlString@@AAEXXZ			; TiXmlString::quit
PUBLIC	??0TiXmlCursor@@QAE@XZ				; TiXmlCursor::TiXmlCursor
PUBLIC	?Clear@TiXmlCursor@@QAEXXZ			; TiXmlCursor::Clear
PUBLIC	??4TiXmlCursor@@QAEAAU0@ABU0@@Z			; TiXmlCursor::operator=
PUBLIC	??4TiXmlCursor@@QAEAAU0@$$QAU0@@Z		; TiXmlCursor::operator=
PUBLIC	??1TiXmlVisitor@@UAE@XZ				; TiXmlVisitor::~TiXmlVisitor
PUBLIC	?VisitEnter@TiXmlVisitor@@UAE_NABVTiXmlDocument@@@Z ; TiXmlVisitor::VisitEnter
PUBLIC	?VisitExit@TiXmlVisitor@@UAE_NABVTiXmlDocument@@@Z ; TiXmlVisitor::VisitExit
PUBLIC	?VisitEnter@TiXmlVisitor@@UAE_NABVTiXmlElement@@PBVTiXmlAttribute@@@Z ; TiXmlVisitor::VisitEnter
PUBLIC	?VisitExit@TiXmlVisitor@@UAE_NABVTiXmlElement@@@Z ; TiXmlVisitor::VisitExit
PUBLIC	?Visit@TiXmlVisitor@@UAE_NABVTiXmlDeclaration@@@Z ; TiXmlVisitor::Visit
PUBLIC	?Visit@TiXmlVisitor@@UAE_NABVTiXmlText@@@Z	; TiXmlVisitor::Visit
PUBLIC	?Visit@TiXmlVisitor@@UAE_NABVTiXmlComment@@@Z	; TiXmlVisitor::Visit
PUBLIC	?Visit@TiXmlVisitor@@UAE_NABVTiXmlUnknown@@@Z	; TiXmlVisitor::Visit
PUBLIC	??0TiXmlVisitor@@QAE@XZ				; TiXmlVisitor::TiXmlVisitor
PUBLIC	??0TiXmlVisitor@@QAE@ABV0@@Z			; TiXmlVisitor::TiXmlVisitor
PUBLIC	??4TiXmlVisitor@@QAEAAV0@ABV0@@Z		; TiXmlVisitor::operator=
PUBLIC	??_GTiXmlVisitor@@UAEPAXI@Z			; TiXmlVisitor::`scalar deleting destructor'
PUBLIC	??_ETiXmlVisitor@@UAEPAXI@Z			; TiXmlVisitor::`vector deleting destructor'
PUBLIC	??0TiXmlBase@@QAE@XZ				; TiXmlBase::TiXmlBase
PUBLIC	??1TiXmlBase@@UAE@XZ				; TiXmlBase::~TiXmlBase
PUBLIC	?SetCondenseWhiteSpace@TiXmlBase@@SAX_N@Z	; TiXmlBase::SetCondenseWhiteSpace
PUBLIC	?IsWhiteSpaceCondensed@TiXmlBase@@SA_NXZ	; TiXmlBase::IsWhiteSpaceCondensed
PUBLIC	?Row@TiXmlBase@@QBEHXZ				; TiXmlBase::Row
PUBLIC	?Column@TiXmlBase@@QBEHXZ			; TiXmlBase::Column
PUBLIC	?SetUserData@TiXmlBase@@QAEXPAX@Z		; TiXmlBase::SetUserData
PUBLIC	?GetUserData@TiXmlBase@@QAEPAXXZ		; TiXmlBase::GetUserData
PUBLIC	?GetUserData@TiXmlBase@@QBEPBXXZ		; TiXmlBase::GetUserData
PUBLIC	?IsWhiteSpace@TiXmlBase@@KA_ND@Z		; TiXmlBase::IsWhiteSpace
PUBLIC	?IsWhiteSpace@TiXmlBase@@KA_NH@Z		; TiXmlBase::IsWhiteSpace
PUBLIC	?GetChar@TiXmlBase@@KAPBDPBDPADPAHW4TiXmlEncoding@@@Z ; TiXmlBase::GetChar
PUBLIC	?ToLower@TiXmlBase@@KAHHW4TiXmlEncoding@@@Z	; TiXmlBase::ToLower
PUBLIC	??_GTiXmlBase@@UAEPAXI@Z			; TiXmlBase::`scalar deleting destructor'
PUBLIC	??_ETiXmlBase@@UAEPAXI@Z			; TiXmlBase::`vector deleting destructor'
PUBLIC	?Value@TiXmlNode@@QBEPBDXZ			; TiXmlNode::Value
PUBLIC	?ValueTStr@TiXmlNode@@QBEABVTiXmlString@@XZ	; TiXmlNode::ValueTStr
PUBLIC	?SetValue@TiXmlNode@@QAEXPBD@Z			; TiXmlNode::SetValue
PUBLIC	?Parent@TiXmlNode@@QAEPAV1@XZ			; TiXmlNode::Parent
PUBLIC	?Parent@TiXmlNode@@QBEPBV1@XZ			; TiXmlNode::Parent
PUBLIC	?FirstChild@TiXmlNode@@QBEPBV1@XZ		; TiXmlNode::FirstChild
PUBLIC	?FirstChild@TiXmlNode@@QAEPAV1@XZ		; TiXmlNode::FirstChild
PUBLIC	?FirstChild@TiXmlNode@@QAEPAV1@PBD@Z		; TiXmlNode::FirstChild
PUBLIC	?LastChild@TiXmlNode@@QBEPBV1@XZ		; TiXmlNode::LastChild
PUBLIC	?LastChild@TiXmlNode@@QAEPAV1@XZ		; TiXmlNode::LastChild
PUBLIC	?LastChild@TiXmlNode@@QAEPAV1@PBD@Z		; TiXmlNode::LastChild
PUBLIC	?IterateChildren@TiXmlNode@@QAEPAV1@PBV1@@Z	; TiXmlNode::IterateChildren
PUBLIC	?IterateChildren@TiXmlNode@@QAEPAV1@PBDPBV1@@Z	; TiXmlNode::IterateChildren
PUBLIC	?PreviousSibling@TiXmlNode@@QBEPBV1@XZ		; TiXmlNode::PreviousSibling
PUBLIC	?PreviousSibling@TiXmlNode@@QAEPAV1@XZ		; TiXmlNode::PreviousSibling
PUBLIC	?PreviousSibling@TiXmlNode@@QAEPAV1@PBD@Z	; TiXmlNode::PreviousSibling
PUBLIC	?NextSibling@TiXmlNode@@QBEPBV1@XZ		; TiXmlNode::NextSibling
PUBLIC	?NextSibling@TiXmlNode@@QAEPAV1@XZ		; TiXmlNode::NextSibling
PUBLIC	?NextSibling@TiXmlNode@@QAEPAV1@PBD@Z		; TiXmlNode::NextSibling
PUBLIC	?NextSiblingElement@TiXmlNode@@QAEPAVTiXmlElement@@XZ ; TiXmlNode::NextSiblingElement
PUBLIC	?NextSiblingElement@TiXmlNode@@QAEPAVTiXmlElement@@PBD@Z ; TiXmlNode::NextSiblingElement
PUBLIC	?FirstChildElement@TiXmlNode@@QAEPAVTiXmlElement@@XZ ; TiXmlNode::FirstChildElement
PUBLIC	?FirstChildElement@TiXmlNode@@QAEPAVTiXmlElement@@PBD@Z ; TiXmlNode::FirstChildElement
PUBLIC	?Type@TiXmlNode@@QBEHXZ				; TiXmlNode::Type
PUBLIC	?GetDocument@TiXmlNode@@QAEPAVTiXmlDocument@@XZ	; TiXmlNode::GetDocument
PUBLIC	?NoChildren@TiXmlNode@@QBE_NXZ			; TiXmlNode::NoChildren
PUBLIC	?ToDocument@TiXmlNode@@UBEPBVTiXmlDocument@@XZ	; TiXmlNode::ToDocument
PUBLIC	?ToElement@TiXmlNode@@UBEPBVTiXmlElement@@XZ	; TiXmlNode::ToElement
PUBLIC	?ToComment@TiXmlNode@@UBEPBVTiXmlComment@@XZ	; TiXmlNode::ToComment
PUBLIC	?ToUnknown@TiXmlNode@@UBEPBVTiXmlUnknown@@XZ	; TiXmlNode::ToUnknown
PUBLIC	?ToText@TiXmlNode@@UBEPBVTiXmlText@@XZ		; TiXmlNode::ToText
PUBLIC	?ToDeclaration@TiXmlNode@@UBEPBVTiXmlDeclaration@@XZ ; TiXmlNode::ToDeclaration
PUBLIC	?ToDocument@TiXmlNode@@UAEPAVTiXmlDocument@@XZ	; TiXmlNode::ToDocument
PUBLIC	?ToElement@TiXmlNode@@UAEPAVTiXmlElement@@XZ	; TiXmlNode::ToElement
PUBLIC	?ToComment@TiXmlNode@@UAEPAVTiXmlComment@@XZ	; TiXmlNode::ToComment
PUBLIC	?ToUnknown@TiXmlNode@@UAEPAVTiXmlUnknown@@XZ	; TiXmlNode::ToUnknown
PUBLIC	?ToText@TiXmlNode@@UAEPAVTiXmlText@@XZ		; TiXmlNode::ToText
PUBLIC	?ToDeclaration@TiXmlNode@@UAEPAVTiXmlDeclaration@@XZ ; TiXmlNode::ToDeclaration
PUBLIC	??0TiXmlAttribute@@QAE@XZ			; TiXmlAttribute::TiXmlAttribute
PUBLIC	??0TiXmlAttribute@@QAE@PBD0@Z			; TiXmlAttribute::TiXmlAttribute
PUBLIC	?Name@TiXmlAttribute@@QBEPBDXZ			; TiXmlAttribute::Name
PUBLIC	?Value@TiXmlAttribute@@QBEPBDXZ			; TiXmlAttribute::Value
PUBLIC	?NameTStr@TiXmlAttribute@@QBEABVTiXmlString@@XZ	; TiXmlAttribute::NameTStr
PUBLIC	?SetName@TiXmlAttribute@@QAEXPBD@Z		; TiXmlAttribute::SetName
PUBLIC	?SetValue@TiXmlAttribute@@QAEXPBD@Z		; TiXmlAttribute::SetValue
PUBLIC	?Next@TiXmlAttribute@@QAEPAV1@XZ		; TiXmlAttribute::Next
PUBLIC	?Previous@TiXmlAttribute@@QAEPAV1@XZ		; TiXmlAttribute::Previous
PUBLIC	??8TiXmlAttribute@@QBE_NABV0@@Z			; TiXmlAttribute::operator==
PUBLIC	??MTiXmlAttribute@@QBE_NABV0@@Z			; TiXmlAttribute::operator<
PUBLIC	??OTiXmlAttribute@@QBE_NABV0@@Z			; TiXmlAttribute::operator>
PUBLIC	?Print@TiXmlAttribute@@UBEXPAVi3FileStream@@H@Z	; TiXmlAttribute::Print
PUBLIC	?SetDocument@TiXmlAttribute@@QAEXPAVTiXmlDocument@@@Z ; TiXmlAttribute::SetDocument
PUBLIC	??1TiXmlAttribute@@UAE@XZ			; TiXmlAttribute::~TiXmlAttribute
PUBLIC	??_GTiXmlAttribute@@UAEPAXI@Z			; TiXmlAttribute::`scalar deleting destructor'
PUBLIC	??_ETiXmlAttribute@@UAEPAXI@Z			; TiXmlAttribute::`vector deleting destructor'
PUBLIC	?First@TiXmlAttributeSet@@QBEPBVTiXmlAttribute@@XZ ; TiXmlAttributeSet::First
PUBLIC	?First@TiXmlAttributeSet@@QAEPAVTiXmlAttribute@@XZ ; TiXmlAttributeSet::First
PUBLIC	?Last@TiXmlAttributeSet@@QBEPBVTiXmlAttribute@@XZ ; TiXmlAttributeSet::Last
PUBLIC	?Last@TiXmlAttributeSet@@QAEPAVTiXmlAttribute@@XZ ; TiXmlAttributeSet::Last
PUBLIC	?Find@TiXmlAttributeSet@@QAEPAVTiXmlAttribute@@PBD@Z ; TiXmlAttributeSet::Find
PUBLIC	?QueryFloatAttribute@TiXmlElement@@QBEHPBDPAM@Z	; TiXmlElement::QueryFloatAttribute
PUBLIC	?FirstAttribute@TiXmlElement@@QBEPBVTiXmlAttribute@@XZ ; TiXmlElement::FirstAttribute
PUBLIC	?FirstAttribute@TiXmlElement@@QAEPAVTiXmlAttribute@@XZ ; TiXmlElement::FirstAttribute
PUBLIC	?LastAttribute@TiXmlElement@@QBEPBVTiXmlAttribute@@XZ ; TiXmlElement::LastAttribute
PUBLIC	?LastAttribute@TiXmlElement@@QAEPAVTiXmlAttribute@@XZ ; TiXmlElement::LastAttribute
PUBLIC	?ToElement@TiXmlElement@@UBEPBV1@XZ		; TiXmlElement::ToElement
PUBLIC	?ToElement@TiXmlElement@@UAEPAV1@XZ		; TiXmlElement::ToElement
PUBLIC	??0TiXmlComment@@QAE@XZ				; TiXmlComment::TiXmlComment
PUBLIC	??0TiXmlComment@@QAE@PBD@Z			; TiXmlComment::TiXmlComment
PUBLIC	??1TiXmlComment@@UAE@XZ				; TiXmlComment::~TiXmlComment
PUBLIC	?ToComment@TiXmlComment@@UBEPBV1@XZ		; TiXmlComment::ToComment
PUBLIC	?ToComment@TiXmlComment@@UAEPAV1@XZ		; TiXmlComment::ToComment
PUBLIC	??_GTiXmlComment@@UAEPAXI@Z			; TiXmlComment::`scalar deleting destructor'
PUBLIC	??_ETiXmlComment@@UAEPAXI@Z			; TiXmlComment::`vector deleting destructor'
PUBLIC	??0TiXmlText@@QAE@PBD@Z				; TiXmlText::TiXmlText
PUBLIC	??1TiXmlText@@UAE@XZ				; TiXmlText::~TiXmlText
PUBLIC	??0TiXmlText@@QAE@ABV0@@Z			; TiXmlText::TiXmlText
PUBLIC	??4TiXmlText@@QAEXABV0@@Z			; TiXmlText::operator=
PUBLIC	?CDATA@TiXmlText@@QBE_NXZ			; TiXmlText::CDATA
PUBLIC	?SetCDATA@TiXmlText@@QAEX_N@Z			; TiXmlText::SetCDATA
PUBLIC	?ToText@TiXmlText@@UBEPBV1@XZ			; TiXmlText::ToText
PUBLIC	?ToText@TiXmlText@@UAEPAV1@XZ			; TiXmlText::ToText
PUBLIC	??_GTiXmlText@@UAEPAXI@Z			; TiXmlText::`scalar deleting destructor'
PUBLIC	??_ETiXmlText@@UAEPAXI@Z			; TiXmlText::`vector deleting destructor'
PUBLIC	??0TiXmlDeclaration@@QAE@XZ			; TiXmlDeclaration::TiXmlDeclaration
PUBLIC	??1TiXmlDeclaration@@UAE@XZ			; TiXmlDeclaration::~TiXmlDeclaration
PUBLIC	?Version@TiXmlDeclaration@@QBEPBDXZ		; TiXmlDeclaration::Version
PUBLIC	?Encoding@TiXmlDeclaration@@QBEPBDXZ		; TiXmlDeclaration::Encoding
PUBLIC	?Standalone@TiXmlDeclaration@@QBEPBDXZ		; TiXmlDeclaration::Standalone
PUBLIC	?Print@TiXmlDeclaration@@UBEXPAVi3FileStream@@H@Z ; TiXmlDeclaration::Print
PUBLIC	?ToDeclaration@TiXmlDeclaration@@UBEPBV1@XZ	; TiXmlDeclaration::ToDeclaration
PUBLIC	?ToDeclaration@TiXmlDeclaration@@UAEPAV1@XZ	; TiXmlDeclaration::ToDeclaration
PUBLIC	??_GTiXmlDeclaration@@UAEPAXI@Z			; TiXmlDeclaration::`scalar deleting destructor'
PUBLIC	??_ETiXmlDeclaration@@UAEPAXI@Z			; TiXmlDeclaration::`vector deleting destructor'
PUBLIC	??0TiXmlUnknown@@QAE@XZ				; TiXmlUnknown::TiXmlUnknown
PUBLIC	??1TiXmlUnknown@@UAE@XZ				; TiXmlUnknown::~TiXmlUnknown
PUBLIC	??0TiXmlUnknown@@QAE@ABV0@@Z			; TiXmlUnknown::TiXmlUnknown
PUBLIC	??4TiXmlUnknown@@QAEXABV0@@Z			; TiXmlUnknown::operator=
PUBLIC	?ToUnknown@TiXmlUnknown@@UBEPBV1@XZ		; TiXmlUnknown::ToUnknown
PUBLIC	?ToUnknown@TiXmlUnknown@@UAEPAV1@XZ		; TiXmlUnknown::ToUnknown
PUBLIC	??_GTiXmlUnknown@@UAEPAXI@Z			; TiXmlUnknown::`scalar deleting destructor'
PUBLIC	??_ETiXmlUnknown@@UAEPAXI@Z			; TiXmlUnknown::`vector deleting destructor'
PUBLIC	??1TiXmlDocument@@UAE@XZ			; TiXmlDocument::~TiXmlDocument
PUBLIC	?RootElement@TiXmlDocument@@QBEPBVTiXmlElement@@XZ ; TiXmlDocument::RootElement
PUBLIC	?RootElement@TiXmlDocument@@QAEPAVTiXmlElement@@XZ ; TiXmlDocument::RootElement
PUBLIC	?Error@TiXmlDocument@@QBE_NXZ			; TiXmlDocument::Error
PUBLIC	?ErrorDesc@TiXmlDocument@@QBEPBDXZ		; TiXmlDocument::ErrorDesc
PUBLIC	?ErrorId@TiXmlDocument@@QBEHXZ			; TiXmlDocument::ErrorId
PUBLIC	?ErrorRow@TiXmlDocument@@QBEHXZ			; TiXmlDocument::ErrorRow
PUBLIC	?ErrorCol@TiXmlDocument@@QBEHXZ			; TiXmlDocument::ErrorCol
PUBLIC	?SetTabSize@TiXmlDocument@@QAEXH@Z		; TiXmlDocument::SetTabSize
PUBLIC	?TabSize@TiXmlDocument@@QBEHXZ			; TiXmlDocument::TabSize
PUBLIC	?ClearError@TiXmlDocument@@QAEXXZ		; TiXmlDocument::ClearError
PUBLIC	?ToDocument@TiXmlDocument@@UBEPBV1@XZ		; TiXmlDocument::ToDocument
PUBLIC	?ToDocument@TiXmlDocument@@UAEPAV1@XZ		; TiXmlDocument::ToDocument
PUBLIC	?GetSize@TiXmlDocument@@QAEIXZ			; TiXmlDocument::GetSize
PUBLIC	??_GTiXmlDocument@@UAEPAXI@Z			; TiXmlDocument::`scalar deleting destructor'
PUBLIC	??_ETiXmlDocument@@UAEPAXI@Z			; TiXmlDocument::`vector deleting destructor'
PUBLIC	??0TiXmlHandle@@QAE@PAVTiXmlNode@@@Z		; TiXmlHandle::TiXmlHandle
PUBLIC	??0TiXmlHandle@@QAE@ABV0@@Z			; TiXmlHandle::TiXmlHandle
PUBLIC	??4TiXmlHandle@@QAE?AV0@ABV0@@Z			; TiXmlHandle::operator=
PUBLIC	?ToNode@TiXmlHandle@@QBEPAVTiXmlNode@@XZ	; TiXmlHandle::ToNode
PUBLIC	?ToElement@TiXmlHandle@@QBEPAVTiXmlElement@@XZ	; TiXmlHandle::ToElement
PUBLIC	?ToText@TiXmlHandle@@QBEPAVTiXmlText@@XZ	; TiXmlHandle::ToText
PUBLIC	?ToUnknown@TiXmlHandle@@QBEPAVTiXmlUnknown@@XZ	; TiXmlHandle::ToUnknown
PUBLIC	?Node@TiXmlHandle@@QBEPAVTiXmlNode@@XZ		; TiXmlHandle::Node
PUBLIC	?Element@TiXmlHandle@@QBEPAVTiXmlElement@@XZ	; TiXmlHandle::Element
PUBLIC	?Text@TiXmlHandle@@QBEPAVTiXmlText@@XZ		; TiXmlHandle::Text
PUBLIC	?Unknown@TiXmlHandle@@QBEPAVTiXmlUnknown@@XZ	; TiXmlHandle::Unknown
PUBLIC	??0TiXmlPrinter@@QAE@XZ				; TiXmlPrinter::TiXmlPrinter
PUBLIC	?SetIndent@TiXmlPrinter@@QAEXPBD@Z		; TiXmlPrinter::SetIndent
PUBLIC	?Indent@TiXmlPrinter@@QAEPBDXZ			; TiXmlPrinter::Indent
PUBLIC	?SetLineBreak@TiXmlPrinter@@QAEXPBD@Z		; TiXmlPrinter::SetLineBreak
PUBLIC	?LineBreak@TiXmlPrinter@@QAEPBDXZ		; TiXmlPrinter::LineBreak
PUBLIC	?SetStreamPrinting@TiXmlPrinter@@QAEXXZ		; TiXmlPrinter::SetStreamPrinting
PUBLIC	?CStr@TiXmlPrinter@@QAEPBDXZ			; TiXmlPrinter::CStr
PUBLIC	?Size@TiXmlPrinter@@QAEIXZ			; TiXmlPrinter::Size
PUBLIC	?DoIndent@TiXmlPrinter@@AAEXXZ			; TiXmlPrinter::DoIndent
PUBLIC	?DoLineBreak@TiXmlPrinter@@AAEXXZ		; TiXmlPrinter::DoLineBreak
PUBLIC	??1TiXmlPrinter@@UAE@XZ				; TiXmlPrinter::~TiXmlPrinter
PUBLIC	??0TiXmlPrinter@@QAE@ABV0@@Z			; TiXmlPrinter::TiXmlPrinter
PUBLIC	??0TiXmlPrinter@@QAE@$$QAV0@@Z			; TiXmlPrinter::TiXmlPrinter
PUBLIC	??4TiXmlPrinter@@QAEAAV0@ABV0@@Z		; TiXmlPrinter::operator=
PUBLIC	??4TiXmlPrinter@@QAEAAV0@$$QAV0@@Z		; TiXmlPrinter::operator=
PUBLIC	??_GTiXmlPrinter@@UAEPAXI@Z			; TiXmlPrinter::`scalar deleting destructor'
PUBLIC	??_ETiXmlPrinter@@UAEPAXI@Z			; TiXmlPrinter::`vector deleting destructor'
PUBLIC	?addAttr@i3XMLElement@@QAEXPBD0@Z		; i3XMLElement::addAttr
PUBLIC	?addAttr@i3XMLElement@@QAEXPBDH@Z		; i3XMLElement::addAttr
PUBLIC	?addAttr@i3XMLElement@@QAEXPBDI@Z		; i3XMLElement::addAttr
PUBLIC	?addAttr@i3XMLElement@@QAEXPBDM@Z		; i3XMLElement::addAttr
PUBLIC	?addAttr@i3XMLElement@@QAEXPBD_J@Z		; i3XMLElement::addAttr
PUBLIC	?addAttr@i3XMLElement@@QAEXPBD_K@Z		; i3XMLElement::addAttr
PUBLIC	?getAttr@i3XMLElement@@QAEPBDPBD@Z		; i3XMLElement::getAttr
PUBLIC	?getAttr@i3XMLElement@@QAEPBDPBDPAH@Z		; i3XMLElement::getAttr
PUBLIC	?getAttr@i3XMLElement@@QAEPBDPBDPAI@Z		; i3XMLElement::getAttr
PUBLIC	?getAttr@i3XMLElement@@QAEPBDPBDPA_J@Z		; i3XMLElement::getAttr
PUBLIC	?getAttr@i3XMLElement@@QAEPBDPBDPA_K@Z		; i3XMLElement::getAttr
PUBLIC	?getAttr@i3XMLElement@@QAEPBDPBDPAM@Z		; i3XMLElement::getAttr
PUBLIC	?getAttr@i3XMLElement@@QAEPBDPBDPAG@Z		; i3XMLElement::getAttr
PUBLIC	??0i3XMLElement@@QAE@ABV0@@Z			; i3XMLElement::i3XMLElement
PUBLIC	??4i3XMLElement@@QAEAAV0@ABV0@@Z		; i3XMLElement::operator=
PUBLIC	??_Gi3XMLElement@@UAEPAXI@Z			; i3XMLElement::`scalar deleting destructor'
PUBLIC	??_Ei3XMLElement@@UAEPAXI@Z			; i3XMLElement::`vector deleting destructor'
PUBLIC	?GetClassMeta@i3List@@SAPAVi3ClassMeta@@XZ	; i3List::GetClassMeta
PUBLIC	?SetOptmizeEnableWhenClear@i3List@@QAEXH@Z	; i3List::SetOptmizeEnableWhenClear
PUBLIC	?SetOnceMode@i3List@@QAEXH@Z			; i3List::SetOnceMode
PUBLIC	?GetCount@i3List@@QBEHXZ			; i3List::GetCount
PUBLIC	?GetItem@i3List@@QAEPAXH@Z			; i3List::GetItem
PUBLIC	?GetItem@i3List@@QBEPBXH@Z			; i3List::GetItem
PUBLIC	?GetSafeItem@i3List@@QBEPBXH@Z			; i3List::GetSafeItem
PUBLIC	?GetSafeItem@i3List@@QAEPAXH@Z			; i3List::GetSafeItem
PUBLIC	?Find@i3List@@QBEHPAX@Z				; i3List::Find
PUBLIC	?GetFirst@i3List@@QAEPAXXZ			; i3List::GetFirst
PUBLIC	?GetLast@i3List@@QAEPAXXZ			; i3List::GetLast
PUBLIC	?AddFromList@i3List@@QAEXPAV1@@Z		; i3List::AddFromList
PUBLIC	?SafeReleaseAll@i3List@@QAEXXZ			; i3List::SafeReleaseAll
PUBLIC	?SafeFreeAll@i3List@@QAEXXZ			; i3List::SafeFreeAll
PUBLIC	??0i3List@@QAE@ABV0@@Z				; i3List::i3List
PUBLIC	??4i3List@@QAEAAV0@ABV0@@Z			; i3List::operator=
PUBLIC	??_Fi3List@@QAEXXZ				; i3List::`default constructor closure'
PUBLIC	??_Gi3List@@UAEPAXI@Z				; i3List::`scalar deleting destructor'
PUBLIC	??_Ei3List@@UAEPAXI@Z				; i3List::`vector deleting destructor'
PUBLIC	?GetClassMeta@i3StringList@@SAPAVi3ClassMeta@@XZ ; i3StringList::GetClassMeta
PUBLIC	?GetCount@i3StringList@@QBEHXZ			; i3StringList::GetCount
PUBLIC	?GetItem@i3StringList@@QAEPAXH@Z		; i3StringList::GetItem
PUBLIC	?SetItem@i3StringList@@QAEXHPAD@Z		; i3StringList::SetItem
PUBLIC	?Find@i3StringList@@QAEHPAD@Z			; i3StringList::Find
PUBLIC	?GetFirst@i3StringList@@QAEPADXZ		; i3StringList::GetFirst
PUBLIC	?GetLast@i3StringList@@QAEPADXZ			; i3StringList::GetLast
PUBLIC	?GetOnceMode@i3StringList@@QAEHXZ		; i3StringList::GetOnceMode
PUBLIC	?SetOnceMode@i3StringList@@QAEXH@Z		; i3StringList::SetOnceMode
PUBLIC	??0i3StringList@@QAE@ABV0@@Z			; i3StringList::i3StringList
PUBLIC	??4i3StringList@@QAEAAV0@ABV0@@Z		; i3StringList::operator=
PUBLIC	??_Fi3StringList@@QAEXXZ			; i3StringList::`default constructor closure'
PUBLIC	??_Gi3StringList@@UAEPAXI@Z			; i3StringList::`scalar deleting destructor'
PUBLIC	??_Ei3StringList@@UAEPAXI@Z			; i3StringList::`vector deleting destructor'
PUBLIC	??_7i3ClassMeta@@6B@				; i3ClassMeta::`vftable'
PUBLIC	??_7i3ElementBase@@6B@				; i3ElementBase::`vftable'
PUBLIC	??_7i3MemoryPool@@6B@				; i3MemoryPool::`vftable'
PUBLIC	??_7i3Stream@@6B@				; i3Stream::`vftable'
PUBLIC	??_7i3FileStream@@6B@				; i3FileStream::`vftable'
PUBLIC	??_7TiXmlVisitor@@6B@				; TiXmlVisitor::`vftable'
PUBLIC	??_7TiXmlBase@@6B@				; TiXmlBase::`vftable'
PUBLIC	??_7TiXmlAttribute@@6B@				; TiXmlAttribute::`vftable'
PUBLIC	??_7TiXmlComment@@6B@				; TiXmlComment::`vftable'
PUBLIC	??_7TiXmlText@@6B@				; TiXmlText::`vftable'
PUBLIC	??_7TiXmlDeclaration@@6B@			; TiXmlDeclaration::`vftable'
PUBLIC	??_7TiXmlUnknown@@6B@				; TiXmlUnknown::`vftable'
PUBLIC	??_7TiXmlDocument@@6B@				; TiXmlDocument::`vftable'
PUBLIC	??_C@_00CNPNBAHC@@				; `string'
PUBLIC	??_7TiXmlPrinter@@6B@				; TiXmlPrinter::`vftable'
PUBLIC	??_C@_04PFOHOKJK@?5?5?5?5@			; `string'
PUBLIC	??_C@_01EEMJAFIK@?6@				; `string'
PUBLIC	??_7i3XMLElement@@6B@				; i3XMLElement::`vftable'
PUBLIC	??_7i3List@@6B@					; i3List::`vftable'
PUBLIC	??_C@_0GD@LNMGNFKI@E?3?2Proyectos?2JuegosOnlineproyec@ ; `string'
PUBLIC	??_7i3StringList@@6B@				; i3StringList::`vftable'
PUBLIC	??_C@_0HA@MBFIGEMP@E?3?2Proyectos?2JuegosOnlineproyec@ ; `string'
PUBLIC	??_R4i3List@@6B@				; i3List::`RTTI Complete Object Locator'
PUBLIC	??_R0?AVi3List@@@8				; i3List `RTTI Type Descriptor'
PUBLIC	??_R3i3List@@8					; i3List::`RTTI Class Hierarchy Descriptor'
PUBLIC	??_R2i3List@@8					; i3List::`RTTI Base Class Array'
PUBLIC	??_R1A@?0A@EA@i3List@@8				; i3List::`RTTI Base Class Descriptor at (0,-1,0,64)'
PUBLIC	??_R1A@?0A@EA@i3ElementBase@@8			; i3ElementBase::`RTTI Base Class Descriptor at (0,-1,0,64)'
PUBLIC	??_R0?AVi3ElementBase@@@8			; i3ElementBase `RTTI Type Descriptor'
PUBLIC	??_R3i3ElementBase@@8				; i3ElementBase::`RTTI Class Hierarchy Descriptor'
PUBLIC	??_R2i3ElementBase@@8				; i3ElementBase::`RTTI Base Class Array'
PUBLIC	??_R4i3StringList@@6B@				; i3StringList::`RTTI Complete Object Locator'
PUBLIC	??_R0?AVi3StringList@@@8			; i3StringList `RTTI Type Descriptor'
PUBLIC	??_R3i3StringList@@8				; i3StringList::`RTTI Class Hierarchy Descriptor'
PUBLIC	??_R2i3StringList@@8				; i3StringList::`RTTI Base Class Array'
PUBLIC	??_R1A@?0A@EA@i3StringList@@8			; i3StringList::`RTTI Base Class Descriptor at (0,-1,0,64)'
PUBLIC	??_R4i3ElementBase@@6B@				; i3ElementBase::`RTTI Complete Object Locator'
PUBLIC	??_R4i3MemoryPool@@6B@				; i3MemoryPool::`RTTI Complete Object Locator'
PUBLIC	??_R0?AVi3MemoryPool@@@8			; i3MemoryPool `RTTI Type Descriptor'
PUBLIC	??_R3i3MemoryPool@@8				; i3MemoryPool::`RTTI Class Hierarchy Descriptor'
PUBLIC	??_R2i3MemoryPool@@8				; i3MemoryPool::`RTTI Base Class Array'
PUBLIC	??_R1A@?0A@EA@i3MemoryPool@@8			; i3MemoryPool::`RTTI Base Class Descriptor at (0,-1,0,64)'
PUBLIC	??_R4i3ClassMeta@@6B@				; i3ClassMeta::`RTTI Complete Object Locator'
PUBLIC	??_R0?AVi3ClassMeta@@@8				; i3ClassMeta `RTTI Type Descriptor'
PUBLIC	??_R3i3ClassMeta@@8				; i3ClassMeta::`RTTI Class Hierarchy Descriptor'
PUBLIC	??_R2i3ClassMeta@@8				; i3ClassMeta::`RTTI Base Class Array'
PUBLIC	??_R1A@?0A@EA@i3ClassMeta@@8			; i3ClassMeta::`RTTI Base Class Descriptor at (0,-1,0,64)'
PUBLIC	??_R4i3Stream@@6B@				; i3Stream::`RTTI Complete Object Locator'
PUBLIC	??_R0?AVi3Stream@@@8				; i3Stream `RTTI Type Descriptor'
PUBLIC	??_R3i3Stream@@8				; i3Stream::`RTTI Class Hierarchy Descriptor'
PUBLIC	??_R2i3Stream@@8				; i3Stream::`RTTI Base Class Array'
PUBLIC	??_R1A@?0A@EA@i3Stream@@8			; i3Stream::`RTTI Base Class Descriptor at (0,-1,0,64)'
PUBLIC	??_R4i3FileStream@@6B@				; i3FileStream::`RTTI Complete Object Locator'
PUBLIC	??_R0?AVi3FileStream@@@8			; i3FileStream `RTTI Type Descriptor'
PUBLIC	??_R3i3FileStream@@8				; i3FileStream::`RTTI Class Hierarchy Descriptor'
PUBLIC	??_R2i3FileStream@@8				; i3FileStream::`RTTI Base Class Array'
PUBLIC	??_R1A@?0A@EA@i3FileStream@@8			; i3FileStream::`RTTI Base Class Descriptor at (0,-1,0,64)'
PUBLIC	??_R4TiXmlDocument@@6B@				; TiXmlDocument::`RTTI Complete Object Locator'
PUBLIC	??_R0?AVTiXmlDocument@@@8			; TiXmlDocument `RTTI Type Descriptor'
PUBLIC	??_R3TiXmlDocument@@8				; TiXmlDocument::`RTTI Class Hierarchy Descriptor'
PUBLIC	??_R2TiXmlDocument@@8				; TiXmlDocument::`RTTI Base Class Array'
PUBLIC	??_R1A@?0A@EA@TiXmlDocument@@8			; TiXmlDocument::`RTTI Base Class Descriptor at (0,-1,0,64)'
PUBLIC	??_R1A@?0A@EA@TiXmlNode@@8			; TiXmlNode::`RTTI Base Class Descriptor at (0,-1,0,64)'
PUBLIC	??_R0?AVTiXmlNode@@@8				; TiXmlNode `RTTI Type Descriptor'
PUBLIC	??_R3TiXmlNode@@8				; TiXmlNode::`RTTI Class Hierarchy Descriptor'
PUBLIC	??_R2TiXmlNode@@8				; TiXmlNode::`RTTI Base Class Array'
PUBLIC	??_R1A@?0A@EA@TiXmlBase@@8			; TiXmlBase::`RTTI Base Class Descriptor at (0,-1,0,64)'
PUBLIC	??_R0?AVTiXmlBase@@@8				; TiXmlBase `RTTI Type Descriptor'
PUBLIC	??_R3TiXmlBase@@8				; TiXmlBase::`RTTI Class Hierarchy Descriptor'
PUBLIC	??_R2TiXmlBase@@8				; TiXmlBase::`RTTI Base Class Array'
PUBLIC	??_R4TiXmlComment@@6B@				; TiXmlComment::`RTTI Complete Object Locator'
PUBLIC	??_R0?AVTiXmlComment@@@8			; TiXmlComment `RTTI Type Descriptor'
PUBLIC	??_R3TiXmlComment@@8				; TiXmlComment::`RTTI Class Hierarchy Descriptor'
PUBLIC	??_R2TiXmlComment@@8				; TiXmlComment::`RTTI Base Class Array'
PUBLIC	??_R1A@?0A@EA@TiXmlComment@@8			; TiXmlComment::`RTTI Base Class Descriptor at (0,-1,0,64)'
PUBLIC	??_R4TiXmlUnknown@@6B@				; TiXmlUnknown::`RTTI Complete Object Locator'
PUBLIC	??_R0?AVTiXmlUnknown@@@8			; TiXmlUnknown `RTTI Type Descriptor'
PUBLIC	??_R3TiXmlUnknown@@8				; TiXmlUnknown::`RTTI Class Hierarchy Descriptor'
PUBLIC	??_R2TiXmlUnknown@@8				; TiXmlUnknown::`RTTI Base Class Array'
PUBLIC	??_R1A@?0A@EA@TiXmlUnknown@@8			; TiXmlUnknown::`RTTI Base Class Descriptor at (0,-1,0,64)'
PUBLIC	??_R4TiXmlAttribute@@6B@			; TiXmlAttribute::`RTTI Complete Object Locator'
PUBLIC	??_R0?AVTiXmlAttribute@@@8			; TiXmlAttribute `RTTI Type Descriptor'
PUBLIC	??_R3TiXmlAttribute@@8				; TiXmlAttribute::`RTTI Class Hierarchy Descriptor'
PUBLIC	??_R2TiXmlAttribute@@8				; TiXmlAttribute::`RTTI Base Class Array'
PUBLIC	??_R1A@?0A@EA@TiXmlAttribute@@8			; TiXmlAttribute::`RTTI Base Class Descriptor at (0,-1,0,64)'
PUBLIC	??_R4TiXmlText@@6B@				; TiXmlText::`RTTI Complete Object Locator'
PUBLIC	??_R0?AVTiXmlText@@@8				; TiXmlText `RTTI Type Descriptor'
PUBLIC	??_R3TiXmlText@@8				; TiXmlText::`RTTI Class Hierarchy Descriptor'
PUBLIC	??_R2TiXmlText@@8				; TiXmlText::`RTTI Base Class Array'
PUBLIC	??_R1A@?0A@EA@TiXmlText@@8			; TiXmlText::`RTTI Base Class Descriptor at (0,-1,0,64)'
PUBLIC	??_R4TiXmlDeclaration@@6B@			; TiXmlDeclaration::`RTTI Complete Object Locator'
PUBLIC	??_R0?AVTiXmlDeclaration@@@8			; TiXmlDeclaration `RTTI Type Descriptor'
PUBLIC	??_R3TiXmlDeclaration@@8			; TiXmlDeclaration::`RTTI Class Hierarchy Descriptor'
PUBLIC	??_R2TiXmlDeclaration@@8			; TiXmlDeclaration::`RTTI Base Class Array'
PUBLIC	??_R1A@?0A@EA@TiXmlDeclaration@@8		; TiXmlDeclaration::`RTTI Base Class Descriptor at (0,-1,0,64)'
PUBLIC	??_R4TiXmlVisitor@@6B@				; TiXmlVisitor::`RTTI Complete Object Locator'
PUBLIC	??_R0?AVTiXmlVisitor@@@8			; TiXmlVisitor `RTTI Type Descriptor'
PUBLIC	??_R3TiXmlVisitor@@8				; TiXmlVisitor::`RTTI Class Hierarchy Descriptor'
PUBLIC	??_R2TiXmlVisitor@@8				; TiXmlVisitor::`RTTI Base Class Array'
PUBLIC	??_R1A@?0A@EA@TiXmlVisitor@@8			; TiXmlVisitor::`RTTI Base Class Descriptor at (0,-1,0,64)'
PUBLIC	??_R4TiXmlBase@@6B@				; TiXmlBase::`RTTI Complete Object Locator'
PUBLIC	??_R4TiXmlPrinter@@6B@				; TiXmlPrinter::`RTTI Complete Object Locator'
PUBLIC	??_R0?AVTiXmlPrinter@@@8			; TiXmlPrinter `RTTI Type Descriptor'
PUBLIC	??_R3TiXmlPrinter@@8				; TiXmlPrinter::`RTTI Class Hierarchy Descriptor'
PUBLIC	??_R2TiXmlPrinter@@8				; TiXmlPrinter::`RTTI Base Class Array'
PUBLIC	??_R1A@?0A@EA@TiXmlPrinter@@8			; TiXmlPrinter::`RTTI Base Class Descriptor at (0,-1,0,64)'
PUBLIC	??_R4i3XMLElement@@6B@				; i3XMLElement::`RTTI Complete Object Locator'
PUBLIC	??_R0?AVi3XMLElement@@@8			; i3XMLElement `RTTI Type Descriptor'
PUBLIC	??_R3i3XMLElement@@8				; i3XMLElement::`RTTI Class Hierarchy Descriptor'
PUBLIC	??_R2i3XMLElement@@8				; i3XMLElement::`RTTI Base Class Array'
PUBLIC	??_R1A@?0A@EA@i3XMLElement@@8			; i3XMLElement::`RTTI Base Class Descriptor at (0,-1,0,64)'
PUBLIC	??_R1A@?0A@EA@TiXmlElement@@8			; TiXmlElement::`RTTI Base Class Descriptor at (0,-1,0,64)'
PUBLIC	??_R0?AVTiXmlElement@@@8			; TiXmlElement `RTTI Type Descriptor'
PUBLIC	??_R3TiXmlElement@@8				; TiXmlElement::`RTTI Class Hierarchy Descriptor'
PUBLIC	??_R2TiXmlElement@@8				; TiXmlElement::`RTTI Base Class Array'
EXTRN	??_M@YGXPAXIIP6EX0@Z@Z:PROC			; `eh vector destructor iterator'
EXTRN	__purecall:PROC
EXTRN	??3@YAXPAX@Z:PROC				; operator delete
EXTRN	??3@YAXPAXI@Z:PROC				; operator delete
EXTRN	??_U@YAPAXI@Z:PROC				; operator new[]
EXTRN	??_V@YAXPAX@Z:PROC				; operator delete[]
EXTRN	??_V@YAXPAXI@Z:PROC				; operator delete[]
EXTRN	_isspace:PROC
EXTRN	_tolower:PROC
EXTRN	?AllocTool@i3mem@@YAPAXHHHPBDH@Z:PROC		; i3mem::AllocTool
EXTRN	?FreeTool@i3mem@@YAXPAXPBDH@Z:PROC		; i3mem::FreeTool
EXTRN	??1i3ClassMeta@@UAE@XZ:PROC			; i3ClassMeta::~i3ClassMeta
EXTRN	?CreateInstance@i3ClassMeta@@UAEPAVi3ElementBase@@W4I3_CLASSMETA_TYPE@@@Z:PROC ; i3ClassMeta::CreateInstance
EXTRN	?BindInstance@i3ClassMeta@@UAEPAVi3ElementBase@@PAXW4I3_CLASSMETA_TYPE@@@Z:PROC ; i3ClassMeta::BindInstance
EXTRN	?IsTypeOf@i3ClassMeta@@QAE_NPAV1@@Z:PROC	; i3ClassMeta::IsTypeOf
EXTRN	?GetMeta@i3ElementBase@@UAEPAVi3ClassMeta@@XZ:PROC ; i3ElementBase::GetMeta
EXTRN	??1i3ElementBase@@UAE@XZ:PROC			; i3ElementBase::~i3ElementBase
EXTRN	??3i3ElementBase@@SAXPAX@Z:PROC			; i3ElementBase::operator delete
EXTRN	?Release@i3ElementBase@@QAEXXZ:PROC		; i3ElementBase::Release
EXTRN	?CopyTo@i3ElementBase@@UAEXPAV1@W4I3_COPY_METHOD@@@Z:PROC ; i3ElementBase::CopyTo
EXTRN	??1i3MemoryPool@@UAE@XZ:PROC			; i3MemoryPool::~i3MemoryPool
EXTRN	?GetMeta@i3Stream@@UAEPAVi3ClassMeta@@XZ:PROC	; i3Stream::GetMeta
EXTRN	??1i3Stream@@UAE@XZ:PROC			; i3Stream::~i3Stream
EXTRN	?CopyTo@i3Stream@@UAEIPAV1@I@Z:PROC		; i3Stream::CopyTo
EXTRN	?CopyFrom@i3Stream@@UAEIPAV1@I@Z:PROC		; i3Stream::CopyFrom
EXTRN	?ReadLine@i3Stream@@UAEIPADH@Z:PROC		; i3Stream::ReadLine
EXTRN	?ReadLineW@i3Stream@@UAEIPAGH@Z:PROC		; i3Stream::ReadLineW
EXTRN	?WriteLine@i3Stream@@UAEIPBD@Z:PROC		; i3Stream::WriteLine
EXTRN	?WriteLineW@i3Stream@@UAEIPBG@Z:PROC		; i3Stream::WriteLineW
EXTRN	?Printf@i3Stream@@UAAIPADPBDZZ:PROC		; i3Stream::Printf
EXTRN	?GetMeta@i3FileStream@@UAEPAVi3ClassMeta@@XZ:PROC ; i3FileStream::GetMeta
EXTRN	??1i3FileStream@@UAE@XZ:PROC			; i3FileStream::~i3FileStream
EXTRN	?Create@i3FileStream@@UAEHPBDHI@Z:PROC		; i3FileStream::Create
EXTRN	?Open@i3FileStream@@UAEHPBDHI@Z:PROC		; i3FileStream::Open
EXTRN	?Close@i3FileStream@@UAEHXZ:PROC		; i3FileStream::Close
EXTRN	?Read@i3FileStream@@UAEIPAXH@Z:PROC		; i3FileStream::Read
EXTRN	?Write@i3FileStream@@UAEIPBXH@Z:PROC		; i3FileStream::Write
EXTRN	?SetPosition@i3FileStream@@UAEIHH@Z:PROC	; i3FileStream::SetPosition
EXTRN	?GetPosition@i3FileStream@@UAEIXZ:PROC		; i3FileStream::GetPosition
EXTRN	?assign@TiXmlString@@QAEAAV1@PBDI@Z:PROC	; TiXmlString::assign
EXTRN	?append@TiXmlString@@QAEAAV1@PBDI@Z:PROC	; TiXmlString::append
EXTRN	?GetEntity@TiXmlBase@@KAPBDPBDPADPAHW4TiXmlEncoding@@@Z:PROC ; TiXmlBase::GetEntity
EXTRN	??1TiXmlNode@@UAE@XZ:PROC			; TiXmlNode::~TiXmlNode
EXTRN	?FirstChild@TiXmlNode@@QBEPBV1@PBD@Z:PROC	; TiXmlNode::FirstChild
EXTRN	?LastChild@TiXmlNode@@QBEPBV1@PBD@Z:PROC	; TiXmlNode::LastChild
EXTRN	?IterateChildren@TiXmlNode@@QBEPBV1@PBV1@@Z:PROC ; TiXmlNode::IterateChildren
EXTRN	?IterateChildren@TiXmlNode@@QBEPBV1@PBDPBV1@@Z:PROC ; TiXmlNode::IterateChildren
EXTRN	?PreviousSibling@TiXmlNode@@QBEPBV1@PBD@Z:PROC	; TiXmlNode::PreviousSibling
EXTRN	?NextSibling@TiXmlNode@@QBEPBV1@PBD@Z:PROC	; TiXmlNode::NextSibling
EXTRN	?NextSiblingElement@TiXmlNode@@QBEPBVTiXmlElement@@XZ:PROC ; TiXmlNode::NextSiblingElement
EXTRN	?NextSiblingElement@TiXmlNode@@QBEPBVTiXmlElement@@PBD@Z:PROC ; TiXmlNode::NextSiblingElement
EXTRN	?FirstChildElement@TiXmlNode@@QBEPBVTiXmlElement@@XZ:PROC ; TiXmlNode::FirstChildElement
EXTRN	?FirstChildElement@TiXmlNode@@QBEPBVTiXmlElement@@PBD@Z:PROC ; TiXmlNode::FirstChildElement
EXTRN	?GetDocument@TiXmlNode@@QBEPBVTiXmlDocument@@XZ:PROC ; TiXmlNode::GetDocument
EXTRN	??0TiXmlNode@@IAE@W4NodeType@0@@Z:PROC		; TiXmlNode::TiXmlNode
EXTRN	?Next@TiXmlAttribute@@QBEPBV1@XZ:PROC		; TiXmlAttribute::Next
EXTRN	?Previous@TiXmlAttribute@@QBEPBV1@XZ:PROC	; TiXmlAttribute::Previous
EXTRN	?Parse@TiXmlAttribute@@UAEPBDPBDPAVTiXmlParsingData@@W4TiXmlEncoding@@@Z:PROC ; TiXmlAttribute::Parse
EXTRN	?Print@TiXmlAttribute@@QBEXPAVi3FileStream@@HPAVTiXmlString@@@Z:PROC ; TiXmlAttribute::Print
EXTRN	?Find@TiXmlAttributeSet@@QBEPBVTiXmlAttribute@@PBD@Z:PROC ; TiXmlAttributeSet::Find
EXTRN	??0TiXmlElement@@QAE@ABV0@@Z:PROC		; TiXmlElement::TiXmlElement
EXTRN	??4TiXmlElement@@QAEXABV0@@Z:PROC		; TiXmlElement::operator=
EXTRN	?Attribute@TiXmlElement@@QBEPBDPBD@Z:PROC	; TiXmlElement::Attribute
EXTRN	?Attribute@TiXmlElement@@QBEPBDPBDPAH@Z:PROC	; TiXmlElement::Attribute
EXTRN	?AttributeLong@TiXmlElement@@QBEPBDPBDPA_J@Z:PROC ; TiXmlElement::AttributeLong
EXTRN	?Attribute@TiXmlElement@@QBEPBDPBDPAN@Z:PROC	; TiXmlElement::Attribute
EXTRN	?QueryDoubleAttribute@TiXmlElement@@QBEHPBDPAN@Z:PROC ; TiXmlElement::QueryDoubleAttribute
EXTRN	?SetAttribute@TiXmlElement@@QAEXPBD0@Z:PROC	; TiXmlElement::SetAttribute
EXTRN	?SetAttribute@TiXmlElement@@QAEXPBDH@Z:PROC	; TiXmlElement::SetAttribute
EXTRN	?SetLongLongAttribute@TiXmlElement@@QAEXPBD_J@Z:PROC ; TiXmlElement::SetLongLongAttribute
EXTRN	?SetAttribute@TiXmlElement@@QAEXPBDM@Z:PROC	; TiXmlElement::SetAttribute
EXTRN	?Clone@TiXmlElement@@UBEPAVTiXmlNode@@XZ:PROC	; TiXmlElement::Clone
EXTRN	?Print@TiXmlElement@@UBEXPAVi3FileStream@@H@Z:PROC ; TiXmlElement::Print
EXTRN	?Parse@TiXmlElement@@UAEPBDPBDPAVTiXmlParsingData@@W4TiXmlEncoding@@@Z:PROC ; TiXmlElement::Parse
EXTRN	?Accept@TiXmlElement@@UBE_NPAVTiXmlVisitor@@@Z:PROC ; TiXmlElement::Accept
EXTRN	?Clone@TiXmlComment@@UBEPAVTiXmlNode@@XZ:PROC	; TiXmlComment::Clone
EXTRN	?Print@TiXmlComment@@UBEXPAVi3FileStream@@H@Z:PROC ; TiXmlComment::Print
EXTRN	?Parse@TiXmlComment@@UAEPBDPBDPAVTiXmlParsingData@@W4TiXmlEncoding@@@Z:PROC ; TiXmlComment::Parse
EXTRN	?Accept@TiXmlComment@@UBE_NPAVTiXmlVisitor@@@Z:PROC ; TiXmlComment::Accept
EXTRN	?Print@TiXmlText@@UBEXPAVi3FileStream@@H@Z:PROC	; TiXmlText::Print
EXTRN	?Parse@TiXmlText@@UAEPBDPBDPAVTiXmlParsingData@@W4TiXmlEncoding@@@Z:PROC ; TiXmlText::Parse
EXTRN	?Accept@TiXmlText@@UBE_NPAVTiXmlVisitor@@@Z:PROC ; TiXmlText::Accept
EXTRN	?Clone@TiXmlText@@MBEPAVTiXmlNode@@XZ:PROC	; TiXmlText::Clone
EXTRN	?CopyTo@TiXmlText@@IBEXPAV1@@Z:PROC		; TiXmlText::CopyTo
EXTRN	?Clone@TiXmlDeclaration@@UBEPAVTiXmlNode@@XZ:PROC ; TiXmlDeclaration::Clone
EXTRN	?Print@TiXmlDeclaration@@UBEXPAVi3FileStream@@HPAVTiXmlString@@@Z:PROC ; TiXmlDeclaration::Print
EXTRN	?Parse@TiXmlDeclaration@@UAEPBDPBDPAVTiXmlParsingData@@W4TiXmlEncoding@@@Z:PROC ; TiXmlDeclaration::Parse
EXTRN	?Accept@TiXmlDeclaration@@UBE_NPAVTiXmlVisitor@@@Z:PROC ; TiXmlDeclaration::Accept
EXTRN	?Clone@TiXmlUnknown@@UBEPAVTiXmlNode@@XZ:PROC	; TiXmlUnknown::Clone
EXTRN	?Print@TiXmlUnknown@@UBEXPAVi3FileStream@@H@Z:PROC ; TiXmlUnknown::Print
EXTRN	?Parse@TiXmlUnknown@@UAEPBDPBDPAVTiXmlParsingData@@W4TiXmlEncoding@@@Z:PROC ; TiXmlUnknown::Parse
EXTRN	?Accept@TiXmlUnknown@@UBE_NPAVTiXmlVisitor@@@Z:PROC ; TiXmlUnknown::Accept
EXTRN	?CopyTo@TiXmlUnknown@@IBEXPAV1@@Z:PROC		; TiXmlUnknown::CopyTo
EXTRN	?Parse@TiXmlDocument@@UAEPBDPBDPAVTiXmlParsingData@@W4TiXmlEncoding@@@Z:PROC ; TiXmlDocument::Parse
EXTRN	?Print@TiXmlDocument@@UBEXPAVi3FileStream@@H@Z:PROC ; TiXmlDocument::Print
EXTRN	?Accept@TiXmlDocument@@UBE_NPAVTiXmlVisitor@@@Z:PROC ; TiXmlDocument::Accept
EXTRN	?Clone@TiXmlDocument@@MBEPAVTiXmlNode@@XZ:PROC	; TiXmlDocument::Clone
EXTRN	?VisitEnter@TiXmlPrinter@@UAE_NABVTiXmlDocument@@@Z:PROC ; TiXmlPrinter::VisitEnter
EXTRN	?VisitExit@TiXmlPrinter@@UAE_NABVTiXmlDocument@@@Z:PROC ; TiXmlPrinter::VisitExit
EXTRN	?VisitEnter@TiXmlPrinter@@UAE_NABVTiXmlElement@@PBVTiXmlAttribute@@@Z:PROC ; TiXmlPrinter::VisitEnter
EXTRN	?VisitExit@TiXmlPrinter@@UAE_NABVTiXmlElement@@@Z:PROC ; TiXmlPrinter::VisitExit
EXTRN	?Visit@TiXmlPrinter@@UAE_NABVTiXmlDeclaration@@@Z:PROC ; TiXmlPrinter::Visit
EXTRN	?Visit@TiXmlPrinter@@UAE_NABVTiXmlText@@@Z:PROC	; TiXmlPrinter::Visit
EXTRN	?Visit@TiXmlPrinter@@UAE_NABVTiXmlComment@@@Z:PROC ; TiXmlPrinter::Visit
EXTRN	?Visit@TiXmlPrinter@@UAE_NABVTiXmlUnknown@@@Z:PROC ; TiXmlPrinter::Visit
EXTRN	??1i3XMLElement@@UAE@XZ:PROC			; i3XMLElement::~i3XMLElement
EXTRN	?GetMeta@i3List@@UAEPAVi3ClassMeta@@XZ:PROC	; i3List::GetMeta
EXTRN	??0i3List@@QAE@H@Z:PROC				; i3List::i3List
EXTRN	??1i3List@@UAE@XZ:PROC				; i3List::~i3List
EXTRN	?IndexOf@i3List@@UBEHPBX@Z:PROC			; i3List::IndexOf
EXTRN	?Add@i3List@@UAEHPAX@Z:PROC			; i3List::Add
EXTRN	?Insert@i3List@@UAEHHPAX@Z:PROC			; i3List::Insert
EXTRN	?Delete@i3List@@UAEHH@Z:PROC			; i3List::Delete
EXTRN	?Remove@i3List@@UAEHPAX@Z:PROC			; i3List::Remove
EXTRN	?Clear@i3List@@UAEXH@Z:PROC			; i3List::Clear
EXTRN	?GetMeta@i3StringList@@UAEPAVi3ClassMeta@@XZ:PROC ; i3StringList::GetMeta
EXTRN	??0i3StringList@@QAE@H@Z:PROC			; i3StringList::i3StringList
EXTRN	??1i3StringList@@UAE@XZ:PROC			; i3StringList::~i3StringList
EXTRN	?IndexOf@i3StringList@@UBEHPAD@Z:PROC		; i3StringList::IndexOf
EXTRN	?Add@i3StringList@@UAEHPADH@Z:PROC		; i3StringList::Add
EXTRN	?Insert@i3StringList@@UAEHHPADH@Z:PROC		; i3StringList::Insert
EXTRN	?Delete@i3StringList@@UAEHH@Z:PROC		; i3StringList::Delete
EXTRN	?Remove@i3StringList@@UAEHPAD@Z:PROC		; i3StringList::Remove
EXTRN	?Clear@i3StringList@@UAEXXZ:PROC		; i3StringList::Clear
EXTRN	@__security_check_cookie@4:PROC
EXTRN	___CxxFrameHandler3:PROC
EXTRN	_memcpy:PROC
EXTRN	??_7type_info@@6B@:QWORD			; type_info::`vftable'
EXTRN	?s_pClassMetai3ElementBase@i3ElementBase@@2PAVi3ClassMeta@@A:DWORD ; i3ElementBase::s_pClassMetai3ElementBase
EXTRN	?s_pClassMetai3Stream@i3Stream@@2PAVi3ClassMeta@@A:DWORD ; i3Stream::s_pClassMetai3Stream
EXTRN	?s_pClassMetai3FileStream@i3FileStream@@2PAVi3ClassMeta@@A:DWORD ; i3FileStream::s_pClassMetai3FileStream
EXTRN	?m_bCaseSensitive@i3FileStream@@1HA:DWORD	; i3FileStream::m_bCaseSensitive
EXTRN	?npos@TiXmlString@@2IB:DWORD			; TiXmlString::npos
EXTRN	?nullrep_@TiXmlString@@0URep@1@A:BYTE		; TiXmlString::nullrep_
EXTRN	?utf8ByteTable@TiXmlBase@@2QBHB:BYTE		; TiXmlBase::utf8ByteTable
EXTRN	?condenseWhiteSpace@TiXmlBase@@0_NA:BYTE	; TiXmlBase::condenseWhiteSpace
EXTRN	?s_pClassMetai3List@i3List@@2PAVi3ClassMeta@@A:DWORD ; i3List::s_pClassMetai3List
EXTRN	?s_pClassMetai3StringList@i3StringList@@2PAVi3ClassMeta@@A:DWORD ; i3StringList::s_pClassMetai3StringList
EXTRN	___security_cookie:DWORD
EXTRN	__fltused:DWORD
;	COMDAT ??_R2TiXmlElement@@8
rdata$r	SEGMENT
??_R2TiXmlElement@@8 DD FLAT:??_R1A@?0A@EA@TiXmlElement@@8 ; TiXmlElement::`RTTI Base Class Array'
	DD	FLAT:??_R1A@?0A@EA@TiXmlNode@@8
	DD	FLAT:??_R1A@?0A@EA@TiXmlBase@@8
rdata$r	ENDS
;	COMDAT ??_R3TiXmlElement@@8
rdata$r	SEGMENT
??_R3TiXmlElement@@8 DD 00H				; TiXmlElement::`RTTI Class Hierarchy Descriptor'
	DD	00H
	DD	03H
	DD	FLAT:??_R2TiXmlElement@@8
rdata$r	ENDS
;	COMDAT ??_R0?AVTiXmlElement@@@8
data$rs	SEGMENT
??_R0?AVTiXmlElement@@@8 DD FLAT:??_7type_info@@6B@	; TiXmlElement `RTTI Type Descriptor'
	DD	00H
	DB	'.?AVTiXmlElement@@', 00H
data$rs	ENDS
;	COMDAT ??_R1A@?0A@EA@TiXmlElement@@8
rdata$r	SEGMENT
??_R1A@?0A@EA@TiXmlElement@@8 DD FLAT:??_R0?AVTiXmlElement@@@8 ; TiXmlElement::`RTTI Base Class Descriptor at (0,-1,0,64)'
	DD	02H
	DD	00H
	DD	0ffffffffH
	DD	00H
	DD	040H
	DD	FLAT:??_R3TiXmlElement@@8
rdata$r	ENDS
;	COMDAT ??_R1A@?0A@EA@i3XMLElement@@8
rdata$r	SEGMENT
??_R1A@?0A@EA@i3XMLElement@@8 DD FLAT:??_R0?AVi3XMLElement@@@8 ; i3XMLElement::`RTTI Base Class Descriptor at (0,-1,0,64)'
	DD	03H
	DD	00H
	DD	0ffffffffH
	DD	00H
	DD	040H
	DD	FLAT:??_R3i3XMLElement@@8
rdata$r	ENDS
;	COMDAT ??_R2i3XMLElement@@8
rdata$r	SEGMENT
??_R2i3XMLElement@@8 DD FLAT:??_R1A@?0A@EA@i3XMLElement@@8 ; i3XMLElement::`RTTI Base Class Array'
	DD	FLAT:??_R1A@?0A@EA@TiXmlElement@@8
	DD	FLAT:??_R1A@?0A@EA@TiXmlNode@@8
	DD	FLAT:??_R1A@?0A@EA@TiXmlBase@@8
rdata$r	ENDS
;	COMDAT ??_R3i3XMLElement@@8
rdata$r	SEGMENT
??_R3i3XMLElement@@8 DD 00H				; i3XMLElement::`RTTI Class Hierarchy Descriptor'
	DD	00H
	DD	04H
	DD	FLAT:??_R2i3XMLElement@@8
rdata$r	ENDS
;	COMDAT ??_R0?AVi3XMLElement@@@8
data$rs	SEGMENT
??_R0?AVi3XMLElement@@@8 DD FLAT:??_7type_info@@6B@	; i3XMLElement `RTTI Type Descriptor'
	DD	00H
	DB	'.?AVi3XMLElement@@', 00H
data$rs	ENDS
;	COMDAT ??_R4i3XMLElement@@6B@
rdata$r	SEGMENT
??_R4i3XMLElement@@6B@ DD 00H				; i3XMLElement::`RTTI Complete Object Locator'
	DD	00H
	DD	00H
	DD	FLAT:??_R0?AVi3XMLElement@@@8
	DD	FLAT:??_R3i3XMLElement@@8
rdata$r	ENDS
;	COMDAT ??_R1A@?0A@EA@TiXmlPrinter@@8
rdata$r	SEGMENT
??_R1A@?0A@EA@TiXmlPrinter@@8 DD FLAT:??_R0?AVTiXmlPrinter@@@8 ; TiXmlPrinter::`RTTI Base Class Descriptor at (0,-1,0,64)'
	DD	01H
	DD	00H
	DD	0ffffffffH
	DD	00H
	DD	040H
	DD	FLAT:??_R3TiXmlPrinter@@8
rdata$r	ENDS
;	COMDAT ??_R2TiXmlPrinter@@8
rdata$r	SEGMENT
??_R2TiXmlPrinter@@8 DD FLAT:??_R1A@?0A@EA@TiXmlPrinter@@8 ; TiXmlPrinter::`RTTI Base Class Array'
	DD	FLAT:??_R1A@?0A@EA@TiXmlVisitor@@8
rdata$r	ENDS
;	COMDAT ??_R3TiXmlPrinter@@8
rdata$r	SEGMENT
??_R3TiXmlPrinter@@8 DD 00H				; TiXmlPrinter::`RTTI Class Hierarchy Descriptor'
	DD	00H
	DD	02H
	DD	FLAT:??_R2TiXmlPrinter@@8
rdata$r	ENDS
;	COMDAT ??_R0?AVTiXmlPrinter@@@8
data$rs	SEGMENT
??_R0?AVTiXmlPrinter@@@8 DD FLAT:??_7type_info@@6B@	; TiXmlPrinter `RTTI Type Descriptor'
	DD	00H
	DB	'.?AVTiXmlPrinter@@', 00H
data$rs	ENDS
;	COMDAT ??_R4TiXmlPrinter@@6B@
rdata$r	SEGMENT
??_R4TiXmlPrinter@@6B@ DD 00H				; TiXmlPrinter::`RTTI Complete Object Locator'
	DD	00H
	DD	00H
	DD	FLAT:??_R0?AVTiXmlPrinter@@@8
	DD	FLAT:??_R3TiXmlPrinter@@8
rdata$r	ENDS
;	COMDAT ??_R4TiXmlBase@@6B@
rdata$r	SEGMENT
??_R4TiXmlBase@@6B@ DD 00H				; TiXmlBase::`RTTI Complete Object Locator'
	DD	00H
	DD	00H
	DD	FLAT:??_R0?AVTiXmlBase@@@8
	DD	FLAT:??_R3TiXmlBase@@8
rdata$r	ENDS
;	COMDAT ??_R1A@?0A@EA@TiXmlVisitor@@8
rdata$r	SEGMENT
??_R1A@?0A@EA@TiXmlVisitor@@8 DD FLAT:??_R0?AVTiXmlVisitor@@@8 ; TiXmlVisitor::`RTTI Base Class Descriptor at (0,-1,0,64)'
	DD	00H
	DD	00H
	DD	0ffffffffH
	DD	00H
	DD	040H
	DD	FLAT:??_R3TiXmlVisitor@@8
rdata$r	ENDS
;	COMDAT ??_R2TiXmlVisitor@@8
rdata$r	SEGMENT
??_R2TiXmlVisitor@@8 DD FLAT:??_R1A@?0A@EA@TiXmlVisitor@@8 ; TiXmlVisitor::`RTTI Base Class Array'
rdata$r	ENDS
;	COMDAT ??_R3TiXmlVisitor@@8
rdata$r	SEGMENT
??_R3TiXmlVisitor@@8 DD 00H				; TiXmlVisitor::`RTTI Class Hierarchy Descriptor'
	DD	00H
	DD	01H
	DD	FLAT:??_R2TiXmlVisitor@@8
rdata$r	ENDS
;	COMDAT ??_R0?AVTiXmlVisitor@@@8
data$rs	SEGMENT
??_R0?AVTiXmlVisitor@@@8 DD FLAT:??_7type_info@@6B@	; TiXmlVisitor `RTTI Type Descriptor'
	DD	00H
	DB	'.?AVTiXmlVisitor@@', 00H
data$rs	ENDS
;	COMDAT ??_R4TiXmlVisitor@@6B@
rdata$r	SEGMENT
??_R4TiXmlVisitor@@6B@ DD 00H				; TiXmlVisitor::`RTTI Complete Object Locator'
	DD	00H
	DD	00H
	DD	FLAT:??_R0?AVTiXmlVisitor@@@8
	DD	FLAT:??_R3TiXmlVisitor@@8
rdata$r	ENDS
;	COMDAT ??_R1A@?0A@EA@TiXmlDeclaration@@8
rdata$r	SEGMENT
??_R1A@?0A@EA@TiXmlDeclaration@@8 DD FLAT:??_R0?AVTiXmlDeclaration@@@8 ; TiXmlDeclaration::`RTTI Base Class Descriptor at (0,-1,0,64)'
	DD	02H
	DD	00H
	DD	0ffffffffH
	DD	00H
	DD	040H
	DD	FLAT:??_R3TiXmlDeclaration@@8
rdata$r	ENDS
;	COMDAT ??_R2TiXmlDeclaration@@8
rdata$r	SEGMENT
??_R2TiXmlDeclaration@@8 DD FLAT:??_R1A@?0A@EA@TiXmlDeclaration@@8 ; TiXmlDeclaration::`RTTI Base Class Array'
	DD	FLAT:??_R1A@?0A@EA@TiXmlNode@@8
	DD	FLAT:??_R1A@?0A@EA@TiXmlBase@@8
rdata$r	ENDS
;	COMDAT ??_R3TiXmlDeclaration@@8
rdata$r	SEGMENT
??_R3TiXmlDeclaration@@8 DD 00H				; TiXmlDeclaration::`RTTI Class Hierarchy Descriptor'
	DD	00H
	DD	03H
	DD	FLAT:??_R2TiXmlDeclaration@@8
rdata$r	ENDS
;	COMDAT ??_R0?AVTiXmlDeclaration@@@8
data$rs	SEGMENT
??_R0?AVTiXmlDeclaration@@@8 DD FLAT:??_7type_info@@6B@	; TiXmlDeclaration `RTTI Type Descriptor'
	DD	00H
	DB	'.?AVTiXmlDeclaration@@', 00H
data$rs	ENDS
;	COMDAT ??_R4TiXmlDeclaration@@6B@
rdata$r	SEGMENT
??_R4TiXmlDeclaration@@6B@ DD 00H			; TiXmlDeclaration::`RTTI Complete Object Locator'
	DD	00H
	DD	00H
	DD	FLAT:??_R0?AVTiXmlDeclaration@@@8
	DD	FLAT:??_R3TiXmlDeclaration@@8
rdata$r	ENDS
;	COMDAT ??_R1A@?0A@EA@TiXmlText@@8
rdata$r	SEGMENT
??_R1A@?0A@EA@TiXmlText@@8 DD FLAT:??_R0?AVTiXmlText@@@8 ; TiXmlText::`RTTI Base Class Descriptor at (0,-1,0,64)'
	DD	02H
	DD	00H
	DD	0ffffffffH
	DD	00H
	DD	040H
	DD	FLAT:??_R3TiXmlText@@8
rdata$r	ENDS
;	COMDAT ??_R2TiXmlText@@8
rdata$r	SEGMENT
??_R2TiXmlText@@8 DD FLAT:??_R1A@?0A@EA@TiXmlText@@8	; TiXmlText::`RTTI Base Class Array'
	DD	FLAT:??_R1A@?0A@EA@TiXmlNode@@8
	DD	FLAT:??_R1A@?0A@EA@TiXmlBase@@8
rdata$r	ENDS
;	COMDAT ??_R3TiXmlText@@8
rdata$r	SEGMENT
??_R3TiXmlText@@8 DD 00H				; TiXmlText::`RTTI Class Hierarchy Descriptor'
	DD	00H
	DD	03H
	DD	FLAT:??_R2TiXmlText@@8
rdata$r	ENDS
;	COMDAT ??_R0?AVTiXmlText@@@8
data$rs	SEGMENT
??_R0?AVTiXmlText@@@8 DD FLAT:??_7type_info@@6B@	; TiXmlText `RTTI Type Descriptor'
	DD	00H
	DB	'.?AVTiXmlText@@', 00H
data$rs	ENDS
;	COMDAT ??_R4TiXmlText@@6B@
rdata$r	SEGMENT
??_R4TiXmlText@@6B@ DD 00H				; TiXmlText::`RTTI Complete Object Locator'
	DD	00H
	DD	00H
	DD	FLAT:??_R0?AVTiXmlText@@@8
	DD	FLAT:??_R3TiXmlText@@8
rdata$r	ENDS
;	COMDAT ??_R1A@?0A@EA@TiXmlAttribute@@8
rdata$r	SEGMENT
??_R1A@?0A@EA@TiXmlAttribute@@8 DD FLAT:??_R0?AVTiXmlAttribute@@@8 ; TiXmlAttribute::`RTTI Base Class Descriptor at (0,-1,0,64)'
	DD	01H
	DD	00H
	DD	0ffffffffH
	DD	00H
	DD	040H
	DD	FLAT:??_R3TiXmlAttribute@@8
rdata$r	ENDS
;	COMDAT ??_R2TiXmlAttribute@@8
rdata$r	SEGMENT
??_R2TiXmlAttribute@@8 DD FLAT:??_R1A@?0A@EA@TiXmlAttribute@@8 ; TiXmlAttribute::`RTTI Base Class Array'
	DD	FLAT:??_R1A@?0A@EA@TiXmlBase@@8
rdata$r	ENDS
;	COMDAT ??_R3TiXmlAttribute@@8
rdata$r	SEGMENT
??_R3TiXmlAttribute@@8 DD 00H				; TiXmlAttribute::`RTTI Class Hierarchy Descriptor'
	DD	00H
	DD	02H
	DD	FLAT:??_R2TiXmlAttribute@@8
rdata$r	ENDS
;	COMDAT ??_R0?AVTiXmlAttribute@@@8
data$rs	SEGMENT
??_R0?AVTiXmlAttribute@@@8 DD FLAT:??_7type_info@@6B@	; TiXmlAttribute `RTTI Type Descriptor'
	DD	00H
	DB	'.?AVTiXmlAttribute@@', 00H
data$rs	ENDS
;	COMDAT ??_R4TiXmlAttribute@@6B@
rdata$r	SEGMENT
??_R4TiXmlAttribute@@6B@ DD 00H				; TiXmlAttribute::`RTTI Complete Object Locator'
	DD	00H
	DD	00H
	DD	FLAT:??_R0?AVTiXmlAttribute@@@8
	DD	FLAT:??_R3TiXmlAttribute@@8
rdata$r	ENDS
;	COMDAT ??_R1A@?0A@EA@TiXmlUnknown@@8
rdata$r	SEGMENT
??_R1A@?0A@EA@TiXmlUnknown@@8 DD FLAT:??_R0?AVTiXmlUnknown@@@8 ; TiXmlUnknown::`RTTI Base Class Descriptor at (0,-1,0,64)'
	DD	02H
	DD	00H
	DD	0ffffffffH
	DD	00H
	DD	040H
	DD	FLAT:??_R3TiXmlUnknown@@8
rdata$r	ENDS
;	COMDAT ??_R2TiXmlUnknown@@8
rdata$r	SEGMENT
??_R2TiXmlUnknown@@8 DD FLAT:??_R1A@?0A@EA@TiXmlUnknown@@8 ; TiXmlUnknown::`RTTI Base Class Array'
	DD	FLAT:??_R1A@?0A@EA@TiXmlNode@@8
	DD	FLAT:??_R1A@?0A@EA@TiXmlBase@@8
rdata$r	ENDS
;	COMDAT ??_R3TiXmlUnknown@@8
rdata$r	SEGMENT
??_R3TiXmlUnknown@@8 DD 00H				; TiXmlUnknown::`RTTI Class Hierarchy Descriptor'
	DD	00H
	DD	03H
	DD	FLAT:??_R2TiXmlUnknown@@8
rdata$r	ENDS
;	COMDAT ??_R0?AVTiXmlUnknown@@@8
data$rs	SEGMENT
??_R0?AVTiXmlUnknown@@@8 DD FLAT:??_7type_info@@6B@	; TiXmlUnknown `RTTI Type Descriptor'
	DD	00H
	DB	'.?AVTiXmlUnknown@@', 00H
data$rs	ENDS
;	COMDAT ??_R4TiXmlUnknown@@6B@
rdata$r	SEGMENT
??_R4TiXmlUnknown@@6B@ DD 00H				; TiXmlUnknown::`RTTI Complete Object Locator'
	DD	00H
	DD	00H
	DD	FLAT:??_R0?AVTiXmlUnknown@@@8
	DD	FLAT:??_R3TiXmlUnknown@@8
rdata$r	ENDS
;	COMDAT ??_R1A@?0A@EA@TiXmlComment@@8
rdata$r	SEGMENT
??_R1A@?0A@EA@TiXmlComment@@8 DD FLAT:??_R0?AVTiXmlComment@@@8 ; TiXmlComment::`RTTI Base Class Descriptor at (0,-1,0,64)'
	DD	02H
	DD	00H
	DD	0ffffffffH
	DD	00H
	DD	040H
	DD	FLAT:??_R3TiXmlComment@@8
rdata$r	ENDS
;	COMDAT ??_R2TiXmlComment@@8
rdata$r	SEGMENT
??_R2TiXmlComment@@8 DD FLAT:??_R1A@?0A@EA@TiXmlComment@@8 ; TiXmlComment::`RTTI Base Class Array'
	DD	FLAT:??_R1A@?0A@EA@TiXmlNode@@8
	DD	FLAT:??_R1A@?0A@EA@TiXmlBase@@8
rdata$r	ENDS
;	COMDAT ??_R3TiXmlComment@@8
rdata$r	SEGMENT
??_R3TiXmlComment@@8 DD 00H				; TiXmlComment::`RTTI Class Hierarchy Descriptor'
	DD	00H
	DD	03H
	DD	FLAT:??_R2TiXmlComment@@8
rdata$r	ENDS
;	COMDAT ??_R0?AVTiXmlComment@@@8
data$rs	SEGMENT
??_R0?AVTiXmlComment@@@8 DD FLAT:??_7type_info@@6B@	; TiXmlComment `RTTI Type Descriptor'
	DD	00H
	DB	'.?AVTiXmlComment@@', 00H
data$rs	ENDS
;	COMDAT ??_R4TiXmlComment@@6B@
rdata$r	SEGMENT
??_R4TiXmlComment@@6B@ DD 00H				; TiXmlComment::`RTTI Complete Object Locator'
	DD	00H
	DD	00H
	DD	FLAT:??_R0?AVTiXmlComment@@@8
	DD	FLAT:??_R3TiXmlComment@@8
rdata$r	ENDS
;	COMDAT ??_R2TiXmlBase@@8
rdata$r	SEGMENT
??_R2TiXmlBase@@8 DD FLAT:??_R1A@?0A@EA@TiXmlBase@@8	; TiXmlBase::`RTTI Base Class Array'
rdata$r	ENDS
;	COMDAT ??_R3TiXmlBase@@8
rdata$r	SEGMENT
??_R3TiXmlBase@@8 DD 00H				; TiXmlBase::`RTTI Class Hierarchy Descriptor'
	DD	00H
	DD	01H
	DD	FLAT:??_R2TiXmlBase@@8
rdata$r	ENDS
;	COMDAT ??_R0?AVTiXmlBase@@@8
data$rs	SEGMENT
??_R0?AVTiXmlBase@@@8 DD FLAT:??_7type_info@@6B@	; TiXmlBase `RTTI Type Descriptor'
	DD	00H
	DB	'.?AVTiXmlBase@@', 00H
data$rs	ENDS
;	COMDAT ??_R1A@?0A@EA@TiXmlBase@@8
rdata$r	SEGMENT
??_R1A@?0A@EA@TiXmlBase@@8 DD FLAT:??_R0?AVTiXmlBase@@@8 ; TiXmlBase::`RTTI Base Class Descriptor at (0,-1,0,64)'
	DD	00H
	DD	00H
	DD	0ffffffffH
	DD	00H
	DD	040H
	DD	FLAT:??_R3TiXmlBase@@8
rdata$r	ENDS
;	COMDAT ??_R2TiXmlNode@@8
rdata$r	SEGMENT
??_R2TiXmlNode@@8 DD FLAT:??_R1A@?0A@EA@TiXmlNode@@8	; TiXmlNode::`RTTI Base Class Array'
	DD	FLAT:??_R1A@?0A@EA@TiXmlBase@@8
rdata$r	ENDS
;	COMDAT ??_R3TiXmlNode@@8
rdata$r	SEGMENT
??_R3TiXmlNode@@8 DD 00H				; TiXmlNode::`RTTI Class Hierarchy Descriptor'
	DD	00H
	DD	02H
	DD	FLAT:??_R2TiXmlNode@@8
rdata$r	ENDS
;	COMDAT ??_R0?AVTiXmlNode@@@8
data$rs	SEGMENT
??_R0?AVTiXmlNode@@@8 DD FLAT:??_7type_info@@6B@	; TiXmlNode `RTTI Type Descriptor'
	DD	00H
	DB	'.?AVTiXmlNode@@', 00H
data$rs	ENDS
;	COMDAT ??_R1A@?0A@EA@TiXmlNode@@8
rdata$r	SEGMENT
??_R1A@?0A@EA@TiXmlNode@@8 DD FLAT:??_R0?AVTiXmlNode@@@8 ; TiXmlNode::`RTTI Base Class Descriptor at (0,-1,0,64)'
	DD	01H
	DD	00H
	DD	0ffffffffH
	DD	00H
	DD	040H
	DD	FLAT:??_R3TiXmlNode@@8
rdata$r	ENDS
;	COMDAT ??_R1A@?0A@EA@TiXmlDocument@@8
rdata$r	SEGMENT
??_R1A@?0A@EA@TiXmlDocument@@8 DD FLAT:??_R0?AVTiXmlDocument@@@8 ; TiXmlDocument::`RTTI Base Class Descriptor at (0,-1,0,64)'
	DD	02H
	DD	00H
	DD	0ffffffffH
	DD	00H
	DD	040H
	DD	FLAT:??_R3TiXmlDocument@@8
rdata$r	ENDS
;	COMDAT ??_R2TiXmlDocument@@8
rdata$r	SEGMENT
??_R2TiXmlDocument@@8 DD FLAT:??_R1A@?0A@EA@TiXmlDocument@@8 ; TiXmlDocument::`RTTI Base Class Array'
	DD	FLAT:??_R1A@?0A@EA@TiXmlNode@@8
	DD	FLAT:??_R1A@?0A@EA@TiXmlBase@@8
rdata$r	ENDS
;	COMDAT ??_R3TiXmlDocument@@8
rdata$r	SEGMENT
??_R3TiXmlDocument@@8 DD 00H				; TiXmlDocument::`RTTI Class Hierarchy Descriptor'
	DD	00H
	DD	03H
	DD	FLAT:??_R2TiXmlDocument@@8
rdata$r	ENDS
;	COMDAT ??_R0?AVTiXmlDocument@@@8
data$rs	SEGMENT
??_R0?AVTiXmlDocument@@@8 DD FLAT:??_7type_info@@6B@	; TiXmlDocument `RTTI Type Descriptor'
	DD	00H
	DB	'.?AVTiXmlDocument@@', 00H
data$rs	ENDS
;	COMDAT ??_R4TiXmlDocument@@6B@
rdata$r	SEGMENT
??_R4TiXmlDocument@@6B@ DD 00H				; TiXmlDocument::`RTTI Complete Object Locator'
	DD	00H
	DD	00H
	DD	FLAT:??_R0?AVTiXmlDocument@@@8
	DD	FLAT:??_R3TiXmlDocument@@8
rdata$r	ENDS
;	COMDAT ??_R1A@?0A@EA@i3FileStream@@8
rdata$r	SEGMENT
??_R1A@?0A@EA@i3FileStream@@8 DD FLAT:??_R0?AVi3FileStream@@@8 ; i3FileStream::`RTTI Base Class Descriptor at (0,-1,0,64)'
	DD	02H
	DD	00H
	DD	0ffffffffH
	DD	00H
	DD	040H
	DD	FLAT:??_R3i3FileStream@@8
rdata$r	ENDS
;	COMDAT ??_R2i3FileStream@@8
rdata$r	SEGMENT
??_R2i3FileStream@@8 DD FLAT:??_R1A@?0A@EA@i3FileStream@@8 ; i3FileStream::`RTTI Base Class Array'
	DD	FLAT:??_R1A@?0A@EA@i3Stream@@8
	DD	FLAT:??_R1A@?0A@EA@i3ElementBase@@8
rdata$r	ENDS
;	COMDAT ??_R3i3FileStream@@8
rdata$r	SEGMENT
??_R3i3FileStream@@8 DD 00H				; i3FileStream::`RTTI Class Hierarchy Descriptor'
	DD	00H
	DD	03H
	DD	FLAT:??_R2i3FileStream@@8
rdata$r	ENDS
;	COMDAT ??_R0?AVi3FileStream@@@8
data$rs	SEGMENT
??_R0?AVi3FileStream@@@8 DD FLAT:??_7type_info@@6B@	; i3FileStream `RTTI Type Descriptor'
	DD	00H
	DB	'.?AVi3FileStream@@', 00H
data$rs	ENDS
;	COMDAT ??_R4i3FileStream@@6B@
rdata$r	SEGMENT
??_R4i3FileStream@@6B@ DD 00H				; i3FileStream::`RTTI Complete Object Locator'
	DD	00H
	DD	00H
	DD	FLAT:??_R0?AVi3FileStream@@@8
	DD	FLAT:??_R3i3FileStream@@8
rdata$r	ENDS
;	COMDAT ??_R1A@?0A@EA@i3Stream@@8
rdata$r	SEGMENT
??_R1A@?0A@EA@i3Stream@@8 DD FLAT:??_R0?AVi3Stream@@@8	; i3Stream::`RTTI Base Class Descriptor at (0,-1,0,64)'
	DD	01H
	DD	00H
	DD	0ffffffffH
	DD	00H
	DD	040H
	DD	FLAT:??_R3i3Stream@@8
rdata$r	ENDS
;	COMDAT ??_R2i3Stream@@8
rdata$r	SEGMENT
??_R2i3Stream@@8 DD FLAT:??_R1A@?0A@EA@i3Stream@@8	; i3Stream::`RTTI Base Class Array'
	DD	FLAT:??_R1A@?0A@EA@i3ElementBase@@8
rdata$r	ENDS
;	COMDAT ??_R3i3Stream@@8
rdata$r	SEGMENT
??_R3i3Stream@@8 DD 00H					; i3Stream::`RTTI Class Hierarchy Descriptor'
	DD	00H
	DD	02H
	DD	FLAT:??_R2i3Stream@@8
rdata$r	ENDS
;	COMDAT ??_R0?AVi3Stream@@@8
data$rs	SEGMENT
??_R0?AVi3Stream@@@8 DD FLAT:??_7type_info@@6B@		; i3Stream `RTTI Type Descriptor'
	DD	00H
	DB	'.?AVi3Stream@@', 00H
data$rs	ENDS
;	COMDAT ??_R4i3Stream@@6B@
rdata$r	SEGMENT
??_R4i3Stream@@6B@ DD 00H				; i3Stream::`RTTI Complete Object Locator'
	DD	00H
	DD	00H
	DD	FLAT:??_R0?AVi3Stream@@@8
	DD	FLAT:??_R3i3Stream@@8
rdata$r	ENDS
;	COMDAT ??_R1A@?0A@EA@i3ClassMeta@@8
rdata$r	SEGMENT
??_R1A@?0A@EA@i3ClassMeta@@8 DD FLAT:??_R0?AVi3ClassMeta@@@8 ; i3ClassMeta::`RTTI Base Class Descriptor at (0,-1,0,64)'
	DD	00H
	DD	00H
	DD	0ffffffffH
	DD	00H
	DD	040H
	DD	FLAT:??_R3i3ClassMeta@@8
rdata$r	ENDS
;	COMDAT ??_R2i3ClassMeta@@8
rdata$r	SEGMENT
??_R2i3ClassMeta@@8 DD FLAT:??_R1A@?0A@EA@i3ClassMeta@@8 ; i3ClassMeta::`RTTI Base Class Array'
rdata$r	ENDS
;	COMDAT ??_R3i3ClassMeta@@8
rdata$r	SEGMENT
??_R3i3ClassMeta@@8 DD 00H				; i3ClassMeta::`RTTI Class Hierarchy Descriptor'
	DD	00H
	DD	01H
	DD	FLAT:??_R2i3ClassMeta@@8
rdata$r	ENDS
;	COMDAT ??_R0?AVi3ClassMeta@@@8
data$rs	SEGMENT
??_R0?AVi3ClassMeta@@@8 DD FLAT:??_7type_info@@6B@	; i3ClassMeta `RTTI Type Descriptor'
	DD	00H
	DB	'.?AVi3ClassMeta@@', 00H
data$rs	ENDS
;	COMDAT ??_R4i3ClassMeta@@6B@
rdata$r	SEGMENT
??_R4i3ClassMeta@@6B@ DD 00H				; i3ClassMeta::`RTTI Complete Object Locator'
	DD	00H
	DD	00H
	DD	FLAT:??_R0?AVi3ClassMeta@@@8
	DD	FLAT:??_R3i3ClassMeta@@8
rdata$r	ENDS
;	COMDAT ??_R1A@?0A@EA@i3MemoryPool@@8
rdata$r	SEGMENT
??_R1A@?0A@EA@i3MemoryPool@@8 DD FLAT:??_R0?AVi3MemoryPool@@@8 ; i3MemoryPool::`RTTI Base Class Descriptor at (0,-1,0,64)'
	DD	00H
	DD	00H
	DD	0ffffffffH
	DD	00H
	DD	040H
	DD	FLAT:??_R3i3MemoryPool@@8
rdata$r	ENDS
;	COMDAT ??_R2i3MemoryPool@@8
rdata$r	SEGMENT
??_R2i3MemoryPool@@8 DD FLAT:??_R1A@?0A@EA@i3MemoryPool@@8 ; i3MemoryPool::`RTTI Base Class Array'
rdata$r	ENDS
;	COMDAT ??_R3i3MemoryPool@@8
rdata$r	SEGMENT
??_R3i3MemoryPool@@8 DD 00H				; i3MemoryPool::`RTTI Class Hierarchy Descriptor'
	DD	00H
	DD	01H
	DD	FLAT:??_R2i3MemoryPool@@8
rdata$r	ENDS
;	COMDAT ??_R0?AVi3MemoryPool@@@8
data$rs	SEGMENT
??_R0?AVi3MemoryPool@@@8 DD FLAT:??_7type_info@@6B@	; i3MemoryPool `RTTI Type Descriptor'
	DD	00H
	DB	'.?AVi3MemoryPool@@', 00H
data$rs	ENDS
;	COMDAT ??_R4i3MemoryPool@@6B@
rdata$r	SEGMENT
??_R4i3MemoryPool@@6B@ DD 00H				; i3MemoryPool::`RTTI Complete Object Locator'
	DD	00H
	DD	00H
	DD	FLAT:??_R0?AVi3MemoryPool@@@8
	DD	FLAT:??_R3i3MemoryPool@@8
rdata$r	ENDS
;	COMDAT ??_R4i3ElementBase@@6B@
rdata$r	SEGMENT
??_R4i3ElementBase@@6B@ DD 00H				; i3ElementBase::`RTTI Complete Object Locator'
	DD	00H
	DD	00H
	DD	FLAT:??_R0?AVi3ElementBase@@@8
	DD	FLAT:??_R3i3ElementBase@@8
rdata$r	ENDS
;	COMDAT ??_R1A@?0A@EA@i3StringList@@8
rdata$r	SEGMENT
??_R1A@?0A@EA@i3StringList@@8 DD FLAT:??_R0?AVi3StringList@@@8 ; i3StringList::`RTTI Base Class Descriptor at (0,-1,0,64)'
	DD	01H
	DD	00H
	DD	0ffffffffH
	DD	00H
	DD	040H
	DD	FLAT:??_R3i3StringList@@8
rdata$r	ENDS
;	COMDAT ??_R2i3StringList@@8
rdata$r	SEGMENT
??_R2i3StringList@@8 DD FLAT:??_R1A@?0A@EA@i3StringList@@8 ; i3StringList::`RTTI Base Class Array'
	DD	FLAT:??_R1A@?0A@EA@i3ElementBase@@8
rdata$r	ENDS
;	COMDAT ??_R3i3StringList@@8
rdata$r	SEGMENT
??_R3i3StringList@@8 DD 00H				; i3StringList::`RTTI Class Hierarchy Descriptor'
	DD	00H
	DD	02H
	DD	FLAT:??_R2i3StringList@@8
rdata$r	ENDS
;	COMDAT ??_R0?AVi3StringList@@@8
data$rs	SEGMENT
??_R0?AVi3StringList@@@8 DD FLAT:??_7type_info@@6B@	; i3StringList `RTTI Type Descriptor'
	DD	00H
	DB	'.?AVi3StringList@@', 00H
data$rs	ENDS
;	COMDAT ??_R4i3StringList@@6B@
rdata$r	SEGMENT
??_R4i3StringList@@6B@ DD 00H				; i3StringList::`RTTI Complete Object Locator'
	DD	00H
	DD	00H
	DD	FLAT:??_R0?AVi3StringList@@@8
	DD	FLAT:??_R3i3StringList@@8
rdata$r	ENDS
;	COMDAT ??_R2i3ElementBase@@8
rdata$r	SEGMENT
??_R2i3ElementBase@@8 DD FLAT:??_R1A@?0A@EA@i3ElementBase@@8 ; i3ElementBase::`RTTI Base Class Array'
rdata$r	ENDS
;	COMDAT ??_R3i3ElementBase@@8
rdata$r	SEGMENT
??_R3i3ElementBase@@8 DD 00H				; i3ElementBase::`RTTI Class Hierarchy Descriptor'
	DD	00H
	DD	01H
	DD	FLAT:??_R2i3ElementBase@@8
rdata$r	ENDS
;	COMDAT ??_R0?AVi3ElementBase@@@8
data$rs	SEGMENT
??_R0?AVi3ElementBase@@@8 DD FLAT:??_7type_info@@6B@	; i3ElementBase `RTTI Type Descriptor'
	DD	00H
	DB	'.?AVi3ElementBase@@', 00H
data$rs	ENDS
;	COMDAT ??_R1A@?0A@EA@i3ElementBase@@8
rdata$r	SEGMENT
??_R1A@?0A@EA@i3ElementBase@@8 DD FLAT:??_R0?AVi3ElementBase@@@8 ; i3ElementBase::`RTTI Base Class Descriptor at (0,-1,0,64)'
	DD	00H
	DD	00H
	DD	0ffffffffH
	DD	00H
	DD	040H
	DD	FLAT:??_R3i3ElementBase@@8
rdata$r	ENDS
;	COMDAT ??_R1A@?0A@EA@i3List@@8
rdata$r	SEGMENT
??_R1A@?0A@EA@i3List@@8 DD FLAT:??_R0?AVi3List@@@8	; i3List::`RTTI Base Class Descriptor at (0,-1,0,64)'
	DD	01H
	DD	00H
	DD	0ffffffffH
	DD	00H
	DD	040H
	DD	FLAT:??_R3i3List@@8
rdata$r	ENDS
;	COMDAT ??_R2i3List@@8
rdata$r	SEGMENT
??_R2i3List@@8 DD FLAT:??_R1A@?0A@EA@i3List@@8		; i3List::`RTTI Base Class Array'
	DD	FLAT:??_R1A@?0A@EA@i3ElementBase@@8
rdata$r	ENDS
;	COMDAT ??_R3i3List@@8
rdata$r	SEGMENT
??_R3i3List@@8 DD 00H					; i3List::`RTTI Class Hierarchy Descriptor'
	DD	00H
	DD	02H
	DD	FLAT:??_R2i3List@@8
rdata$r	ENDS
;	COMDAT ??_R0?AVi3List@@@8
data$rs	SEGMENT
??_R0?AVi3List@@@8 DD FLAT:??_7type_info@@6B@		; i3List `RTTI Type Descriptor'
	DD	00H
	DB	'.?AVi3List@@', 00H
data$rs	ENDS
;	COMDAT ??_R4i3List@@6B@
rdata$r	SEGMENT
??_R4i3List@@6B@ DD 00H					; i3List::`RTTI Complete Object Locator'
	DD	00H
	DD	00H
	DD	FLAT:??_R0?AVi3List@@@8
	DD	FLAT:??_R3i3List@@8
rdata$r	ENDS
;	COMDAT ??_C@_0HA@MBFIGEMP@E?3?2Proyectos?2JuegosOnlineproyec@
CONST	SEGMENT
??_C@_0HA@MBFIGEMP@E?3?2Proyectos?2JuegosOnlineproyec@ DB 'E:\Proyectos\J'
	DB	'uegosOnlineproyectos\PB\pbblow\Piercing Blow Remake\i3Server\'
	DB	'src\i3Base\i3PropertyGridDefines.cpp', 00H	; `string'
CONST	ENDS
;	COMDAT ??_7i3StringList@@6B@
CONST	SEGMENT
??_7i3StringList@@6B@ DD FLAT:??_R4i3StringList@@6B@	; i3StringList::`vftable'
	DD	FLAT:?GetMeta@i3StringList@@UAEPAVi3ClassMeta@@XZ
	DD	FLAT:??_Ei3StringList@@UAEPAXI@Z
	DD	FLAT:?CopyTo@i3ElementBase@@UAEXPAV1@W4I3_COPY_METHOD@@@Z
	DD	FLAT:?IndexOf@i3StringList@@UBEHPAD@Z
	DD	FLAT:?Add@i3StringList@@UAEHPADH@Z
	DD	FLAT:?Insert@i3StringList@@UAEHHPADH@Z
	DD	FLAT:?Delete@i3StringList@@UAEHH@Z
	DD	FLAT:?Remove@i3StringList@@UAEHPAD@Z
	DD	FLAT:?Clear@i3StringList@@UAEXXZ
CONST	ENDS
;	COMDAT ??_C@_0GD@LNMGNFKI@E?3?2Proyectos?2JuegosOnlineproyec@
CONST	SEGMENT
??_C@_0GD@LNMGNFKI@E?3?2Proyectos?2JuegosOnlineproyec@ DB 'E:\Proyectos\J'
	DB	'uegosOnlineproyectos\PB\pbblow\Piercing Blow Remake\i3Server\'
	DB	'include\i3Base\i3List.h', 00H		; `string'
CONST	ENDS
;	COMDAT ??_7i3List@@6B@
CONST	SEGMENT
??_7i3List@@6B@ DD FLAT:??_R4i3List@@6B@		; i3List::`vftable'
	DD	FLAT:?GetMeta@i3List@@UAEPAVi3ClassMeta@@XZ
	DD	FLAT:??_Ei3List@@UAEPAXI@Z
	DD	FLAT:?CopyTo@i3ElementBase@@UAEXPAV1@W4I3_COPY_METHOD@@@Z
	DD	FLAT:?IndexOf@i3List@@UBEHPBX@Z
	DD	FLAT:?Add@i3List@@UAEHPAX@Z
	DD	FLAT:?Insert@i3List@@UAEHHPAX@Z
	DD	FLAT:?Delete@i3List@@UAEHH@Z
	DD	FLAT:?Remove@i3List@@UAEHPAX@Z
	DD	FLAT:?Clear@i3List@@UAEXH@Z
CONST	ENDS
;	COMDAT ??_7i3XMLElement@@6B@
CONST	SEGMENT
??_7i3XMLElement@@6B@ DD FLAT:??_R4i3XMLElement@@6B@	; i3XMLElement::`vftable'
	DD	FLAT:??_Ei3XMLElement@@UAEPAXI@Z
	DD	FLAT:?Print@TiXmlElement@@UBEXPAVi3FileStream@@H@Z
	DD	FLAT:?Parse@TiXmlElement@@UAEPBDPBDPAVTiXmlParsingData@@W4TiXmlEncoding@@@Z
	DD	FLAT:?ToDocument@TiXmlNode@@UAEPAVTiXmlDocument@@XZ
	DD	FLAT:?ToDocument@TiXmlNode@@UBEPBVTiXmlDocument@@XZ
	DD	FLAT:?ToElement@TiXmlElement@@UAEPAV1@XZ
	DD	FLAT:?ToElement@TiXmlElement@@UBEPBV1@XZ
	DD	FLAT:?ToComment@TiXmlNode@@UAEPAVTiXmlComment@@XZ
	DD	FLAT:?ToComment@TiXmlNode@@UBEPBVTiXmlComment@@XZ
	DD	FLAT:?ToUnknown@TiXmlNode@@UAEPAVTiXmlUnknown@@XZ
	DD	FLAT:?ToUnknown@TiXmlNode@@UBEPBVTiXmlUnknown@@XZ
	DD	FLAT:?ToText@TiXmlNode@@UAEPAVTiXmlText@@XZ
	DD	FLAT:?ToText@TiXmlNode@@UBEPBVTiXmlText@@XZ
	DD	FLAT:?ToDeclaration@TiXmlNode@@UAEPAVTiXmlDeclaration@@XZ
	DD	FLAT:?ToDeclaration@TiXmlNode@@UBEPBVTiXmlDeclaration@@XZ
	DD	FLAT:?Clone@TiXmlElement@@UBEPAVTiXmlNode@@XZ
	DD	FLAT:?Accept@TiXmlElement@@UBE_NPAVTiXmlVisitor@@@Z
CONST	ENDS
;	COMDAT ??_C@_01EEMJAFIK@?6@
CONST	SEGMENT
??_C@_01EEMJAFIK@?6@ DB 0aH, 00H			; `string'
CONST	ENDS
;	COMDAT ??_C@_04PFOHOKJK@?5?5?5?5@
CONST	SEGMENT
??_C@_04PFOHOKJK@?5?5?5?5@ DB '    ', 00H		; `string'
CONST	ENDS
;	COMDAT ??_7TiXmlPrinter@@6B@
CONST	SEGMENT
??_7TiXmlPrinter@@6B@ DD FLAT:??_R4TiXmlPrinter@@6B@	; TiXmlPrinter::`vftable'
	DD	FLAT:??_ETiXmlPrinter@@UAEPAXI@Z
	DD	FLAT:?VisitEnter@TiXmlPrinter@@UAE_NABVTiXmlElement@@PBVTiXmlAttribute@@@Z
	DD	FLAT:?VisitEnter@TiXmlPrinter@@UAE_NABVTiXmlDocument@@@Z
	DD	FLAT:?VisitExit@TiXmlPrinter@@UAE_NABVTiXmlElement@@@Z
	DD	FLAT:?VisitExit@TiXmlPrinter@@UAE_NABVTiXmlDocument@@@Z
	DD	FLAT:?Visit@TiXmlPrinter@@UAE_NABVTiXmlUnknown@@@Z
	DD	FLAT:?Visit@TiXmlPrinter@@UAE_NABVTiXmlComment@@@Z
	DD	FLAT:?Visit@TiXmlPrinter@@UAE_NABVTiXmlText@@@Z
	DD	FLAT:?Visit@TiXmlPrinter@@UAE_NABVTiXmlDeclaration@@@Z
CONST	ENDS
;	COMDAT ??_C@_00CNPNBAHC@@
CONST	SEGMENT
??_C@_00CNPNBAHC@@ DB 00H				; `string'
CONST	ENDS
;	COMDAT ??_7TiXmlDocument@@6B@
CONST	SEGMENT
??_7TiXmlDocument@@6B@ DD FLAT:??_R4TiXmlDocument@@6B@	; TiXmlDocument::`vftable'
	DD	FLAT:??_ETiXmlDocument@@UAEPAXI@Z
	DD	FLAT:?Print@TiXmlDocument@@UBEXPAVi3FileStream@@H@Z
	DD	FLAT:?Parse@TiXmlDocument@@UAEPBDPBDPAVTiXmlParsingData@@W4TiXmlEncoding@@@Z
	DD	FLAT:?ToDocument@TiXmlDocument@@UAEPAV1@XZ
	DD	FLAT:?ToDocument@TiXmlDocument@@UBEPBV1@XZ
	DD	FLAT:?ToElement@TiXmlNode@@UAEPAVTiXmlElement@@XZ
	DD	FLAT:?ToElement@TiXmlNode@@UBEPBVTiXmlElement@@XZ
	DD	FLAT:?ToComment@TiXmlNode@@UAEPAVTiXmlComment@@XZ
	DD	FLAT:?ToComment@TiXmlNode@@UBEPBVTiXmlComment@@XZ
	DD	FLAT:?ToUnknown@TiXmlNode@@UAEPAVTiXmlUnknown@@XZ
	DD	FLAT:?ToUnknown@TiXmlNode@@UBEPBVTiXmlUnknown@@XZ
	DD	FLAT:?ToText@TiXmlNode@@UAEPAVTiXmlText@@XZ
	DD	FLAT:?ToText@TiXmlNode@@UBEPBVTiXmlText@@XZ
	DD	FLAT:?ToDeclaration@TiXmlNode@@UAEPAVTiXmlDeclaration@@XZ
	DD	FLAT:?ToDeclaration@TiXmlNode@@UBEPBVTiXmlDeclaration@@XZ
	DD	FLAT:?Clone@TiXmlDocument@@MBEPAVTiXmlNode@@XZ
	DD	FLAT:?Accept@TiXmlDocument@@UBE_NPAVTiXmlVisitor@@@Z
CONST	ENDS
;	COMDAT ??_7TiXmlUnknown@@6B@
CONST	SEGMENT
??_7TiXmlUnknown@@6B@ DD FLAT:??_R4TiXmlUnknown@@6B@	; TiXmlUnknown::`vftable'
	DD	FLAT:??_ETiXmlUnknown@@UAEPAXI@Z
	DD	FLAT:?Print@TiXmlUnknown@@UBEXPAVi3FileStream@@H@Z
	DD	FLAT:?Parse@TiXmlUnknown@@UAEPBDPBDPAVTiXmlParsingData@@W4TiXmlEncoding@@@Z
	DD	FLAT:?ToDocument@TiXmlNode@@UAEPAVTiXmlDocument@@XZ
	DD	FLAT:?ToDocument@TiXmlNode@@UBEPBVTiXmlDocument@@XZ
	DD	FLAT:?ToElement@TiXmlNode@@UAEPAVTiXmlElement@@XZ
	DD	FLAT:?ToElement@TiXmlNode@@UBEPBVTiXmlElement@@XZ
	DD	FLAT:?ToComment@TiXmlNode@@UAEPAVTiXmlComment@@XZ
	DD	FLAT:?ToComment@TiXmlNode@@UBEPBVTiXmlComment@@XZ
	DD	FLAT:?ToUnknown@TiXmlUnknown@@UAEPAV1@XZ
	DD	FLAT:?ToUnknown@TiXmlUnknown@@UBEPBV1@XZ
	DD	FLAT:?ToText@TiXmlNode@@UAEPAVTiXmlText@@XZ
	DD	FLAT:?ToText@TiXmlNode@@UBEPBVTiXmlText@@XZ
	DD	FLAT:?ToDeclaration@TiXmlNode@@UAEPAVTiXmlDeclaration@@XZ
	DD	FLAT:?ToDeclaration@TiXmlNode@@UBEPBVTiXmlDeclaration@@XZ
	DD	FLAT:?Clone@TiXmlUnknown@@UBEPAVTiXmlNode@@XZ
	DD	FLAT:?Accept@TiXmlUnknown@@UBE_NPAVTiXmlVisitor@@@Z
CONST	ENDS
;	COMDAT ??_7TiXmlDeclaration@@6B@
CONST	SEGMENT
??_7TiXmlDeclaration@@6B@ DD FLAT:??_R4TiXmlDeclaration@@6B@ ; TiXmlDeclaration::`vftable'
	DD	FLAT:??_ETiXmlDeclaration@@UAEPAXI@Z
	DD	FLAT:?Print@TiXmlDeclaration@@UBEXPAVi3FileStream@@H@Z
	DD	FLAT:?Parse@TiXmlDeclaration@@UAEPBDPBDPAVTiXmlParsingData@@W4TiXmlEncoding@@@Z
	DD	FLAT:?ToDocument@TiXmlNode@@UAEPAVTiXmlDocument@@XZ
	DD	FLAT:?ToDocument@TiXmlNode@@UBEPBVTiXmlDocument@@XZ
	DD	FLAT:?ToElement@TiXmlNode@@UAEPAVTiXmlElement@@XZ
	DD	FLAT:?ToElement@TiXmlNode@@UBEPBVTiXmlElement@@XZ
	DD	FLAT:?ToComment@TiXmlNode@@UAEPAVTiXmlComment@@XZ
	DD	FLAT:?ToComment@TiXmlNode@@UBEPBVTiXmlComment@@XZ
	DD	FLAT:?ToUnknown@TiXmlNode@@UAEPAVTiXmlUnknown@@XZ
	DD	FLAT:?ToUnknown@TiXmlNode@@UBEPBVTiXmlUnknown@@XZ
	DD	FLAT:?ToText@TiXmlNode@@UAEPAVTiXmlText@@XZ
	DD	FLAT:?ToText@TiXmlNode@@UBEPBVTiXmlText@@XZ
	DD	FLAT:?ToDeclaration@TiXmlDeclaration@@UAEPAV1@XZ
	DD	FLAT:?ToDeclaration@TiXmlDeclaration@@UBEPBV1@XZ
	DD	FLAT:?Clone@TiXmlDeclaration@@UBEPAVTiXmlNode@@XZ
	DD	FLAT:?Accept@TiXmlDeclaration@@UBE_NPAVTiXmlVisitor@@@Z
	DD	FLAT:?Print@TiXmlDeclaration@@UBEXPAVi3FileStream@@HPAVTiXmlString@@@Z
CONST	ENDS
;	COMDAT ??_7TiXmlText@@6B@
CONST	SEGMENT
??_7TiXmlText@@6B@ DD FLAT:??_R4TiXmlText@@6B@		; TiXmlText::`vftable'
	DD	FLAT:??_ETiXmlText@@UAEPAXI@Z
	DD	FLAT:?Print@TiXmlText@@UBEXPAVi3FileStream@@H@Z
	DD	FLAT:?Parse@TiXmlText@@UAEPBDPBDPAVTiXmlParsingData@@W4TiXmlEncoding@@@Z
	DD	FLAT:?ToDocument@TiXmlNode@@UAEPAVTiXmlDocument@@XZ
	DD	FLAT:?ToDocument@TiXmlNode@@UBEPBVTiXmlDocument@@XZ
	DD	FLAT:?ToElement@TiXmlNode@@UAEPAVTiXmlElement@@XZ
	DD	FLAT:?ToElement@TiXmlNode@@UBEPBVTiXmlElement@@XZ
	DD	FLAT:?ToComment@TiXmlNode@@UAEPAVTiXmlComment@@XZ
	DD	FLAT:?ToComment@TiXmlNode@@UBEPBVTiXmlComment@@XZ
	DD	FLAT:?ToUnknown@TiXmlNode@@UAEPAVTiXmlUnknown@@XZ
	DD	FLAT:?ToUnknown@TiXmlNode@@UBEPBVTiXmlUnknown@@XZ
	DD	FLAT:?ToText@TiXmlText@@UAEPAV1@XZ
	DD	FLAT:?ToText@TiXmlText@@UBEPBV1@XZ
	DD	FLAT:?ToDeclaration@TiXmlNode@@UAEPAVTiXmlDeclaration@@XZ
	DD	FLAT:?ToDeclaration@TiXmlNode@@UBEPBVTiXmlDeclaration@@XZ
	DD	FLAT:?Clone@TiXmlText@@MBEPAVTiXmlNode@@XZ
	DD	FLAT:?Accept@TiXmlText@@UBE_NPAVTiXmlVisitor@@@Z
CONST	ENDS
;	COMDAT ??_7TiXmlComment@@6B@
CONST	SEGMENT
??_7TiXmlComment@@6B@ DD FLAT:??_R4TiXmlComment@@6B@	; TiXmlComment::`vftable'
	DD	FLAT:??_ETiXmlComment@@UAEPAXI@Z
	DD	FLAT:?Print@TiXmlComment@@UBEXPAVi3FileStream@@H@Z
	DD	FLAT:?Parse@TiXmlComment@@UAEPBDPBDPAVTiXmlParsingData@@W4TiXmlEncoding@@@Z
	DD	FLAT:?ToDocument@TiXmlNode@@UAEPAVTiXmlDocument@@XZ
	DD	FLAT:?ToDocument@TiXmlNode@@UBEPBVTiXmlDocument@@XZ
	DD	FLAT:?ToElement@TiXmlNode@@UAEPAVTiXmlElement@@XZ
	DD	FLAT:?ToElement@TiXmlNode@@UBEPBVTiXmlElement@@XZ
	DD	FLAT:?ToComment@TiXmlComment@@UAEPAV1@XZ
	DD	FLAT:?ToComment@TiXmlComment@@UBEPBV1@XZ
	DD	FLAT:?ToUnknown@TiXmlNode@@UAEPAVTiXmlUnknown@@XZ
	DD	FLAT:?ToUnknown@TiXmlNode@@UBEPBVTiXmlUnknown@@XZ
	DD	FLAT:?ToText@TiXmlNode@@UAEPAVTiXmlText@@XZ
	DD	FLAT:?ToText@TiXmlNode@@UBEPBVTiXmlText@@XZ
	DD	FLAT:?ToDeclaration@TiXmlNode@@UAEPAVTiXmlDeclaration@@XZ
	DD	FLAT:?ToDeclaration@TiXmlNode@@UBEPBVTiXmlDeclaration@@XZ
	DD	FLAT:?Clone@TiXmlComment@@UBEPAVTiXmlNode@@XZ
	DD	FLAT:?Accept@TiXmlComment@@UBE_NPAVTiXmlVisitor@@@Z
CONST	ENDS
;	COMDAT ??_7TiXmlAttribute@@6B@
CONST	SEGMENT
??_7TiXmlAttribute@@6B@ DD FLAT:??_R4TiXmlAttribute@@6B@ ; TiXmlAttribute::`vftable'
	DD	FLAT:??_ETiXmlAttribute@@UAEPAXI@Z
	DD	FLAT:?Print@TiXmlAttribute@@UBEXPAVi3FileStream@@H@Z
	DD	FLAT:?Parse@TiXmlAttribute@@UAEPBDPBDPAVTiXmlParsingData@@W4TiXmlEncoding@@@Z
CONST	ENDS
;	COMDAT ??_7TiXmlBase@@6B@
CONST	SEGMENT
??_7TiXmlBase@@6B@ DD FLAT:??_R4TiXmlBase@@6B@		; TiXmlBase::`vftable'
	DD	FLAT:??_ETiXmlBase@@UAEPAXI@Z
	DD	FLAT:__purecall
	DD	FLAT:__purecall
CONST	ENDS
;	COMDAT ??_7TiXmlVisitor@@6B@
CONST	SEGMENT
??_7TiXmlVisitor@@6B@ DD FLAT:??_R4TiXmlVisitor@@6B@	; TiXmlVisitor::`vftable'
	DD	FLAT:??_ETiXmlVisitor@@UAEPAXI@Z
	DD	FLAT:?VisitEnter@TiXmlVisitor@@UAE_NABVTiXmlElement@@PBVTiXmlAttribute@@@Z
	DD	FLAT:?VisitEnter@TiXmlVisitor@@UAE_NABVTiXmlDocument@@@Z
	DD	FLAT:?VisitExit@TiXmlVisitor@@UAE_NABVTiXmlElement@@@Z
	DD	FLAT:?VisitExit@TiXmlVisitor@@UAE_NABVTiXmlDocument@@@Z
	DD	FLAT:?Visit@TiXmlVisitor@@UAE_NABVTiXmlUnknown@@@Z
	DD	FLAT:?Visit@TiXmlVisitor@@UAE_NABVTiXmlComment@@@Z
	DD	FLAT:?Visit@TiXmlVisitor@@UAE_NABVTiXmlText@@@Z
	DD	FLAT:?Visit@TiXmlVisitor@@UAE_NABVTiXmlDeclaration@@@Z
CONST	ENDS
;	COMDAT ??_7i3FileStream@@6B@
CONST	SEGMENT
??_7i3FileStream@@6B@ DD FLAT:??_R4i3FileStream@@6B@	; i3FileStream::`vftable'
	DD	FLAT:?GetMeta@i3FileStream@@UAEPAVi3ClassMeta@@XZ
	DD	FLAT:??_Ei3FileStream@@UAEPAXI@Z
	DD	FLAT:?CopyTo@i3ElementBase@@UAEXPAV1@W4I3_COPY_METHOD@@@Z
	DD	FLAT:?GetHandle@i3FileStream@@UAEPAXXZ
	DD	FLAT:?Create@i3FileStream@@UAEHPBDHI@Z
	DD	FLAT:?Open@i3FileStream@@UAEHPBDHI@Z
	DD	FLAT:?Close@i3FileStream@@UAEHXZ
	DD	FLAT:?Read@i3FileStream@@UAEIPAXH@Z
	DD	FLAT:?CopyTo@i3Stream@@UAEIPAV1@I@Z
	DD	FLAT:?Write@i3FileStream@@UAEIPBXH@Z
	DD	FLAT:?CopyFrom@i3Stream@@UAEIPAV1@I@Z
	DD	FLAT:?SetPosition@i3FileStream@@UAEIHH@Z
	DD	FLAT:?GetPosition@i3FileStream@@UAEIXZ
	DD	FLAT:?ReadLine@i3Stream@@UAEIPADH@Z
	DD	FLAT:?ReadLineW@i3Stream@@UAEIPAGH@Z
	DD	FLAT:?WriteLine@i3Stream@@UAEIPBD@Z
	DD	FLAT:?WriteLineW@i3Stream@@UAEIPBG@Z
	DD	FLAT:?Printf@i3Stream@@UAAIPADPBDZZ
CONST	ENDS
;	COMDAT ??_7i3Stream@@6B@
CONST	SEGMENT
??_7i3Stream@@6B@ DD FLAT:??_R4i3Stream@@6B@		; i3Stream::`vftable'
	DD	FLAT:?GetMeta@i3Stream@@UAEPAVi3ClassMeta@@XZ
	DD	FLAT:??_Ei3Stream@@UAEPAXI@Z
	DD	FLAT:?CopyTo@i3ElementBase@@UAEXPAV1@W4I3_COPY_METHOD@@@Z
	DD	FLAT:?GetHandle@i3Stream@@UAEPAXXZ
	DD	FLAT:__purecall
	DD	FLAT:__purecall
	DD	FLAT:__purecall
	DD	FLAT:__purecall
	DD	FLAT:?CopyTo@i3Stream@@UAEIPAV1@I@Z
	DD	FLAT:__purecall
	DD	FLAT:?CopyFrom@i3Stream@@UAEIPAV1@I@Z
	DD	FLAT:__purecall
	DD	FLAT:__purecall
	DD	FLAT:?ReadLine@i3Stream@@UAEIPADH@Z
	DD	FLAT:?ReadLineW@i3Stream@@UAEIPAGH@Z
	DD	FLAT:?WriteLine@i3Stream@@UAEIPBD@Z
	DD	FLAT:?WriteLineW@i3Stream@@UAEIPBG@Z
	DD	FLAT:?Printf@i3Stream@@UAAIPADPBDZZ
CONST	ENDS
;	COMDAT ??_7i3MemoryPool@@6B@
CONST	SEGMENT
??_7i3MemoryPool@@6B@ DD FLAT:??_R4i3MemoryPool@@6B@	; i3MemoryPool::`vftable'
	DD	FLAT:??_Ei3MemoryPool@@UAEPAXI@Z
	DD	FLAT:__purecall
	DD	FLAT:__purecall
CONST	ENDS
;	COMDAT ??_7i3ElementBase@@6B@
CONST	SEGMENT
??_7i3ElementBase@@6B@ DD FLAT:??_R4i3ElementBase@@6B@	; i3ElementBase::`vftable'
	DD	FLAT:?GetMeta@i3ElementBase@@UAEPAVi3ClassMeta@@XZ
	DD	FLAT:??_Ei3ElementBase@@UAEPAXI@Z
	DD	FLAT:?CopyTo@i3ElementBase@@UAEXPAV1@W4I3_COPY_METHOD@@@Z
CONST	ENDS
;	COMDAT ??_7i3ClassMeta@@6B@
CONST	SEGMENT
??_7i3ClassMeta@@6B@ DD FLAT:??_R4i3ClassMeta@@6B@	; i3ClassMeta::`vftable'
	DD	FLAT:??_Ei3ClassMeta@@UAEPAXI@Z
	DD	FLAT:?CreateInstance@i3ClassMeta@@UAEPAVi3ElementBase@@W4I3_CLASSMETA_TYPE@@@Z
	DD	FLAT:?BindInstance@i3ClassMeta@@UAEPAVi3ElementBase@@PAXW4I3_CLASSMETA_TYPE@@@Z
CONST	ENDS
;	COMDAT xdata$x
xdata$x	SEGMENT
__ehfuncinfo$??_Ei3StringList@@UAEPAXI@Z DD 019930522H
	DD	00H
	DD	00H
	DD	2 DUP(00H)
	DD	2 DUP(00H)
	DD	00H
	DD	05H
xdata$x	ENDS
;	COMDAT xdata$x
xdata$x	SEGMENT
__ehfuncinfo$??_Ei3List@@UAEPAXI@Z DD 019930522H
	DD	00H
	DD	00H
	DD	2 DUP(00H)
	DD	2 DUP(00H)
	DD	00H
	DD	05H
xdata$x	ENDS
;	COMDAT xdata$x
xdata$x	SEGMENT
__ehfuncinfo$??_Ei3XMLElement@@UAEPAXI@Z DD 019930522H
	DD	00H
	DD	00H
	DD	2 DUP(00H)
	DD	2 DUP(00H)
	DD	00H
	DD	05H
xdata$x	ENDS
;	COMDAT xdata$x
xdata$x	SEGMENT
__ehfuncinfo$??_ETiXmlPrinter@@UAEPAXI@Z DD 019930522H
	DD	00H
	DD	00H
	DD	2 DUP(00H)
	DD	2 DUP(00H)
	DD	00H
	DD	05H
xdata$x	ENDS
;	COMDAT xdata$x
xdata$x	SEGMENT
__unwindtable$??0TiXmlPrinter@@QAE@$$QAV0@@Z DD 0ffffffffH
	DD	FLAT:__unwindfunclet$??0TiXmlPrinter@@QAE@$$QAV0@@Z$0
	DD	00H
	DD	FLAT:__unwindfunclet$??0TiXmlPrinter@@QAE@$$QAV0@@Z$1
	DD	01H
	DD	FLAT:__unwindfunclet$??0TiXmlPrinter@@QAE@$$QAV0@@Z$2
__ehfuncinfo$??0TiXmlPrinter@@QAE@$$QAV0@@Z DD 019930522H
	DD	03H
	DD	FLAT:__unwindtable$??0TiXmlPrinter@@QAE@$$QAV0@@Z
	DD	2 DUP(00H)
	DD	2 DUP(00H)
	DD	00H
	DD	01H
xdata$x	ENDS
;	COMDAT xdata$x
xdata$x	SEGMENT
__unwindtable$??0TiXmlPrinter@@QAE@ABV0@@Z DD 0ffffffffH
	DD	FLAT:__unwindfunclet$??0TiXmlPrinter@@QAE@ABV0@@Z$0
	DD	00H
	DD	FLAT:__unwindfunclet$??0TiXmlPrinter@@QAE@ABV0@@Z$1
	DD	01H
	DD	FLAT:__unwindfunclet$??0TiXmlPrinter@@QAE@ABV0@@Z$2
__ehfuncinfo$??0TiXmlPrinter@@QAE@ABV0@@Z DD 019930522H
	DD	03H
	DD	FLAT:__unwindtable$??0TiXmlPrinter@@QAE@ABV0@@Z
	DD	2 DUP(00H)
	DD	2 DUP(00H)
	DD	00H
	DD	01H
xdata$x	ENDS
;	COMDAT xdata$x
xdata$x	SEGMENT
__unwindtable$??0TiXmlPrinter@@QAE@XZ DD 0ffffffffH
	DD	FLAT:__unwindfunclet$??0TiXmlPrinter@@QAE@XZ$0
	DD	00H
	DD	FLAT:__unwindfunclet$??0TiXmlPrinter@@QAE@XZ$1
	DD	01H
	DD	FLAT:__unwindfunclet$??0TiXmlPrinter@@QAE@XZ$2
__ehfuncinfo$??0TiXmlPrinter@@QAE@XZ DD 019930522H
	DD	03H
	DD	FLAT:__unwindtable$??0TiXmlPrinter@@QAE@XZ
	DD	2 DUP(00H)
	DD	2 DUP(00H)
	DD	00H
	DD	01H
xdata$x	ENDS
;	COMDAT xdata$x
xdata$x	SEGMENT
__ehfuncinfo$??_ETiXmlDocument@@UAEPAXI@Z DD 019930522H
	DD	00H
	DD	00H
	DD	2 DUP(00H)
	DD	2 DUP(00H)
	DD	00H
	DD	05H
xdata$x	ENDS
;	COMDAT xdata$x
xdata$x	SEGMENT
__ehfuncinfo$??_ETiXmlUnknown@@UAEPAXI@Z DD 019930522H
	DD	00H
	DD	00H
	DD	2 DUP(00H)
	DD	2 DUP(00H)
	DD	00H
	DD	05H
xdata$x	ENDS
;	COMDAT xdata$x
xdata$x	SEGMENT
__unwindtable$??0TiXmlUnknown@@QAE@ABV0@@Z DD 0ffffffffH
	DD	FLAT:__unwindfunclet$??0TiXmlUnknown@@QAE@ABV0@@Z$0
__ehfuncinfo$??0TiXmlUnknown@@QAE@ABV0@@Z DD 019930522H
	DD	01H
	DD	FLAT:__unwindtable$??0TiXmlUnknown@@QAE@ABV0@@Z
	DD	2 DUP(00H)
	DD	2 DUP(00H)
	DD	00H
	DD	01H
xdata$x	ENDS
;	COMDAT xdata$x
xdata$x	SEGMENT
__ehfuncinfo$??_ETiXmlDeclaration@@UAEPAXI@Z DD 019930522H
	DD	00H
	DD	00H
	DD	2 DUP(00H)
	DD	2 DUP(00H)
	DD	00H
	DD	05H
xdata$x	ENDS
;	COMDAT xdata$x
xdata$x	SEGMENT
__ehfuncinfo$??_ETiXmlText@@UAEPAXI@Z DD 019930522H
	DD	00H
	DD	00H
	DD	2 DUP(00H)
	DD	2 DUP(00H)
	DD	00H
	DD	05H
xdata$x	ENDS
;	COMDAT xdata$x
xdata$x	SEGMENT
__unwindtable$??0TiXmlText@@QAE@ABV0@@Z DD 0ffffffffH
	DD	FLAT:__unwindfunclet$??0TiXmlText@@QAE@ABV0@@Z$0
__ehfuncinfo$??0TiXmlText@@QAE@ABV0@@Z DD 019930522H
	DD	01H
	DD	FLAT:__unwindtable$??0TiXmlText@@QAE@ABV0@@Z
	DD	2 DUP(00H)
	DD	2 DUP(00H)
	DD	00H
	DD	01H
xdata$x	ENDS
;	COMDAT xdata$x
xdata$x	SEGMENT
__unwindtable$??0TiXmlText@@QAE@PBD@Z DD 0ffffffffH
	DD	FLAT:__unwindfunclet$??0TiXmlText@@QAE@PBD@Z$0
__ehfuncinfo$??0TiXmlText@@QAE@PBD@Z DD 019930522H
	DD	01H
	DD	FLAT:__unwindtable$??0TiXmlText@@QAE@PBD@Z
	DD	2 DUP(00H)
	DD	2 DUP(00H)
	DD	00H
	DD	01H
xdata$x	ENDS
;	COMDAT xdata$x
xdata$x	SEGMENT
__ehfuncinfo$??_ETiXmlComment@@UAEPAXI@Z DD 019930522H
	DD	00H
	DD	00H
	DD	2 DUP(00H)
	DD	2 DUP(00H)
	DD	00H
	DD	05H
xdata$x	ENDS
;	COMDAT xdata$x
xdata$x	SEGMENT
__unwindtable$??0TiXmlComment@@QAE@PBD@Z DD 0ffffffffH
	DD	FLAT:__unwindfunclet$??0TiXmlComment@@QAE@PBD@Z$0
__ehfuncinfo$??0TiXmlComment@@QAE@PBD@Z DD 019930522H
	DD	01H
	DD	FLAT:__unwindtable$??0TiXmlComment@@QAE@PBD@Z
	DD	2 DUP(00H)
	DD	2 DUP(00H)
	DD	00H
	DD	01H
xdata$x	ENDS
;	COMDAT xdata$x
xdata$x	SEGMENT
__ehfuncinfo$??_ETiXmlAttribute@@UAEPAXI@Z DD 019930522H
	DD	00H
	DD	00H
	DD	2 DUP(00H)
	DD	2 DUP(00H)
	DD	00H
	DD	05H
xdata$x	ENDS
;	COMDAT xdata$x
xdata$x	SEGMENT
__unwindtable$??0TiXmlAttribute@@QAE@PBD0@Z DD 0ffffffffH
	DD	FLAT:__unwindfunclet$??0TiXmlAttribute@@QAE@PBD0@Z$0
	DD	00H
	DD	FLAT:__unwindfunclet$??0TiXmlAttribute@@QAE@PBD0@Z$1
	DD	01H
	DD	FLAT:__unwindfunclet$??0TiXmlAttribute@@QAE@PBD0@Z$2
__ehfuncinfo$??0TiXmlAttribute@@QAE@PBD0@Z DD 019930522H
	DD	03H
	DD	FLAT:__unwindtable$??0TiXmlAttribute@@QAE@PBD0@Z
	DD	2 DUP(00H)
	DD	2 DUP(00H)
	DD	00H
	DD	01H
xdata$x	ENDS
;	COMDAT xdata$x
xdata$x	SEGMENT
__ehfuncinfo$??_ETiXmlBase@@UAEPAXI@Z DD 019930522H
	DD	00H
	DD	00H
	DD	2 DUP(00H)
	DD	2 DUP(00H)
	DD	00H
	DD	05H
xdata$x	ENDS
;	COMDAT xdata$x
xdata$x	SEGMENT
__ehfuncinfo$??_ETiXmlVisitor@@UAEPAXI@Z DD 019930522H
	DD	00H
	DD	00H
	DD	2 DUP(00H)
	DD	2 DUP(00H)
	DD	00H
	DD	05H
xdata$x	ENDS
;	COMDAT xdata$x
xdata$x	SEGMENT
__ehfuncinfo$??_Ei3FileStream@@UAEPAXI@Z DD 019930522H
	DD	00H
	DD	00H
	DD	2 DUP(00H)
	DD	2 DUP(00H)
	DD	00H
	DD	05H
xdata$x	ENDS
;	COMDAT xdata$x
xdata$x	SEGMENT
__ehfuncinfo$??_Ei3Stream@@UAEPAXI@Z DD 019930522H
	DD	00H
	DD	00H
	DD	2 DUP(00H)
	DD	2 DUP(00H)
	DD	00H
	DD	05H
xdata$x	ENDS
;	COMDAT xdata$x
xdata$x	SEGMENT
__ehfuncinfo$??_Ei3MemoryPool@@UAEPAXI@Z DD 019930522H
	DD	00H
	DD	00H
	DD	2 DUP(00H)
	DD	2 DUP(00H)
	DD	00H
	DD	05H
xdata$x	ENDS
;	COMDAT xdata$x
xdata$x	SEGMENT
__ehfuncinfo$??_Ei3ElementBase@@UAEPAXI@Z DD 019930522H
	DD	00H
	DD	00H
	DD	2 DUP(00H)
	DD	2 DUP(00H)
	DD	00H
	DD	05H
xdata$x	ENDS
;	COMDAT xdata$x
xdata$x	SEGMENT
__ehfuncinfo$??_Ei3ClassMeta@@UAEPAXI@Z DD 019930522H
	DD	00H
	DD	00H
	DD	2 DUP(00H)
	DD	2 DUP(00H)
	DD	00H
	DD	05H
xdata$x	ENDS
; Function compile flags: /Ogtp
; File E:\Proyectos\JuegosOnlineproyectos\PB\pbblow\Piercing Blow Remake\i3Server\src\i3Base\i3PropertyGridDefines.cpp
;	COMDAT ??_Ei3StringList@@UAEPAXI@Z
_TEXT	SEGMENT
__$EHRec$ = -12						; size = 12
___flags$ = 8						; size = 4
??_Ei3StringList@@UAEPAXI@Z PROC			; i3StringList::`vector deleting destructor', COMDAT
; _this$ = ecx
  00000	55		 push	 ebp
  00001	8b ec		 mov	 ebp, esp
  00003	6a ff		 push	 -1
  00005	68 00 00 00 00	 push	 __ehhandler$??_Ei3StringList@@UAEPAXI@Z
  0000a	64 a1 00 00 00
	00		 mov	 eax, DWORD PTR fs:0
  00010	50		 push	 eax
  00011	53		 push	 ebx
  00012	56		 push	 esi
  00013	57		 push	 edi
  00014	a1 00 00 00 00	 mov	 eax, DWORD PTR ___security_cookie
  00019	33 c5		 xor	 eax, ebp
  0001b	50		 push	 eax
  0001c	8d 45 f4	 lea	 eax, DWORD PTR __$EHRec$[ebp]
  0001f	64 a3 00 00 00
	00		 mov	 DWORD PTR fs:0, eax
  00025	8b f1		 mov	 esi, ecx
  00027	8b 5d 08	 mov	 ebx, DWORD PTR ___flags$[ebp]
  0002a	8b fb		 mov	 edi, ebx
  0002c	83 e7 01	 and	 edi, 1
  0002f	f6 c3 02	 test	 bl, 2
  00032	74 43		 je	 SHORT $LN2@vector
  00034	68 00 00 00 00	 push	 OFFSET ??1i3StringList@@UAE@XZ ; i3StringList::~i3StringList
  00039	ff 76 fc	 push	 DWORD PTR [esi-4]
  0003c	8d 5e fc	 lea	 ebx, DWORD PTR [esi-4]
  0003f	6a 28		 push	 40			; 00000028H
  00041	56		 push	 esi
  00042	e8 00 00 00 00	 call	 ??_M@YGXPAXIIP6EX0@Z@Z
  00047	85 ff		 test	 edi, edi
  00049	74 16		 je	 SHORT $LN3@vector
  0004b	8b 0b		 mov	 ecx, DWORD PTR [ebx]
  0004d	8d 0c 89	 lea	 ecx, DWORD PTR [ecx+ecx*4]
  00050	8d 0c cd 04 00
	00 00		 lea	 ecx, DWORD PTR [ecx*8+4]
  00057	51		 push	 ecx
  00058	53		 push	 ebx
  00059	e8 00 00 00 00	 call	 ??_V@YAXPAXI@Z		; operator delete[]
  0005e	83 c4 08	 add	 esp, 8
$LN3@vector:
  00061	8b c3		 mov	 eax, ebx
  00063	8b 4d f4	 mov	 ecx, DWORD PTR __$EHRec$[ebp]
  00066	64 89 0d 00 00
	00 00		 mov	 DWORD PTR fs:0, ecx
  0006d	59		 pop	 ecx
  0006e	5f		 pop	 edi
  0006f	5e		 pop	 esi
  00070	5b		 pop	 ebx
  00071	8b e5		 mov	 esp, ebp
  00073	5d		 pop	 ebp
  00074	c2 04 00	 ret	 4
$LN2@vector:
  00077	e8 00 00 00 00	 call	 ??1i3StringList@@UAE@XZ	; i3StringList::~i3StringList
  0007c	85 ff		 test	 edi, edi
  0007e	74 1b		 je	 SHORT $LN6@vector
  00080	f6 c3 04	 test	 bl, 4
  00083	75 0b		 jne	 SHORT $LN5@vector
  00085	56		 push	 esi
  00086	e8 00 00 00 00	 call	 ??3i3ElementBase@@SAXPAX@Z ; i3ElementBase::operator delete
  0008b	83 c4 04	 add	 esp, 4
  0008e	eb 0b		 jmp	 SHORT $LN6@vector
$LN5@vector:

  00090	6a 28		 push	 40			; 00000028H
  00092	56		 push	 esi
  00093	e8 00 00 00 00	 call	 ??3@YAXPAXI@Z		; operator delete
  00098	83 c4 08	 add	 esp, 8
$LN6@vector:
  0009b	8b c6		 mov	 eax, esi
  0009d	8b 4d f4	 mov	 ecx, DWORD PTR __$EHRec$[ebp]
  000a0	64 89 0d 00 00
	00 00		 mov	 DWORD PTR fs:0, ecx
  000a7	59		 pop	 ecx
  000a8	5f		 pop	 edi
  000a9	5e		 pop	 esi
  000aa	5b		 pop	 ebx
  000ab	8b e5		 mov	 esp, ebp
  000ad	5d		 pop	 ebp
  000ae	c2 04 00	 ret	 4
  000b1	cc		 int	 3
  000b2	cc		 int	 3
  000b3	cc		 int	 3
  000b4	cc		 int	 3
  000b5	cc		 int	 3
_TEXT	ENDS
;	COMDAT text$x
text$x	SEGMENT
__ehhandler$??_Ei3StringList@@UAEPAXI@Z:
  00000	90		 npad	 1
  00001	90		 npad	 1
  00002	8b 54 24 08	 mov	 edx, DWORD PTR [esp+8]
  00006	8d 42 0c	 lea	 eax, DWORD PTR [edx+12]
  00009	8b 4a f0	 mov	 ecx, DWORD PTR [edx-16]
  0000c	33 c8		 xor	 ecx, eax
  0000e	e8 00 00 00 00	 call	 @__security_check_cookie@4
  00013	b8 00 00 00 00	 mov	 eax, OFFSET __ehfuncinfo$??_Ei3StringList@@UAEPAXI@Z
  00018	e9 00 00 00 00	 jmp	 ___CxxFrameHandler3
text$x	ENDS
??_Ei3StringList@@UAEPAXI@Z ENDP			; i3StringList::`vector deleting destructor'
; Function compile flags: /Ogtp
; File E:\Proyectos\JuegosOnlineproyectos\PB\pbblow\Piercing Blow Remake\i3Server\src\i3Base\i3PropertyGridDefines.cpp
;	COMDAT ??_Gi3StringList@@UAEPAXI@Z
_TEXT	SEGMENT
___flags$ = 8						; size = 4
??_Gi3StringList@@UAEPAXI@Z PROC			; i3StringList::`scalar deleting destructor', COMDAT
; _this$ = ecx
  00000	55		 push	 ebp
  00001	8b ec		 mov	 ebp, esp
  00003	56		 push	 esi
  00004	8b f1		 mov	 esi, ecx
  00006	e8 00 00 00 00	 call	 ??1i3StringList@@UAE@XZ	; i3StringList::~i3StringList
  0000b	8b 45 08	 mov	 eax, DWORD PTR ___flags$[ebp]
  0000e	a8 01		 test	 al, 1
  00010	74 1f		 je	 SHORT $LN10@scalar
  00012	a8 04		 test	 al, 4
  00014	75 10		 jne	 SHORT $LN3@scalar
  00016	56		 push	 esi
  00017	e8 00 00 00 00	 call	 ??3i3ElementBase@@SAXPAX@Z ; i3ElementBase::operator delete
  0001c	83 c4 04	 add	 esp, 4
  0001f	8b c6		 mov	 eax, esi
  00021	5e		 pop	 esi
  00022	5d		 pop	 ebp
  00023	c2 04 00	 ret	 4
$LN3@scalar:

  00026	6a 28		 push	 40			; 00000028H
  00028	56		 push	 esi
  00029	e8 00 00 00 00	 call	 ??3@YAXPAXI@Z		; operator delete
  0002e	83 c4 08	 add	 esp, 8
$LN10@scalar:
  00031	8b c6		 mov	 eax, esi
  00033	5e		 pop	 esi
  00034	5d		 pop	 ebp
  00035	c2 04 00	 ret	 4
??_Gi3StringList@@UAEPAXI@Z ENDP			; i3StringList::`scalar deleting destructor'
_TEXT	ENDS
; Function compile flags: /Ogtp
;	COMDAT ??_Fi3StringList@@QAEXXZ
_TEXT	SEGMENT
??_Fi3StringList@@QAEXXZ PROC				; i3StringList::`default constructor closure', COMDAT
; _this$ = ecx
  00000	6a 10		 push	 16			; 00000010H
  00002	e8 00 00 00 00	 call	 ??0i3StringList@@QAE@H@Z ; i3StringList::i3StringList
  00007	c3		 ret	 0
??_Fi3StringList@@QAEXXZ ENDP				; i3StringList::`default constructor closure'
_TEXT	ENDS
; Function compile flags: /Ogtp
;	COMDAT ??4i3StringList@@QAEAAV0@ABV0@@Z
_TEXT	SEGMENT
___that$ = 8						; size = 4
??4i3StringList@@QAEAAV0@ABV0@@Z PROC			; i3StringList::operator=, COMDAT
; _this$ = ecx
  00000	55		 push	 ebp
  00001	8b ec		 mov	 ebp, esp
  00003	8b 55 08	 mov	 edx, DWORD PTR ___that$[ebp]
  00006	8b 42 04	 mov	 eax, DWORD PTR [edx+4]
  00009	89 41 04	 mov	 DWORD PTR [ecx+4], eax
  0000c	8b 42 08	 mov	 eax, DWORD PTR [edx+8]
  0000f	89 41 08	 mov	 DWORD PTR [ecx+8], eax
  00012	8b 42 0c	 mov	 eax, DWORD PTR [edx+12]
  00015	89 41 0c	 mov	 DWORD PTR [ecx+12], eax
  00018	8b 42 10	 mov	 eax, DWORD PTR [edx+16]
  0001b	89 41 10	 mov	 DWORD PTR [ecx+16], eax
  0001e	8b 42 14	 mov	 eax, DWORD PTR [edx+20]
  00021	89 41 14	 mov	 DWORD PTR [ecx+20], eax
  00024	8b 42 18	 mov	 eax, DWORD PTR [edx+24]
  00027	89 41 18	 mov	 DWORD PTR [ecx+24], eax
  0002a	8b 42 1c	 mov	 eax, DWORD PTR [edx+28]
  0002d	89 41 1c	 mov	 DWORD PTR [ecx+28], eax
  00030	8b 42 20	 mov	 eax, DWORD PTR [edx+32]
  00033	89 41 20	 mov	 DWORD PTR [ecx+32], eax
  00036	8b 42 24	 mov	 eax, DWORD PTR [edx+36]
  00039	89 41 24	 mov	 DWORD PTR [ecx+36], eax
  0003c	8b c1		 mov	 eax, ecx
  0003e	5d		 pop	 ebp
  0003f	c2 04 00	 ret	 4
??4i3StringList@@QAEAAV0@ABV0@@Z ENDP			; i3StringList::operator=
_TEXT	ENDS
; Function compile flags: /Ogtp
;	COMDAT ??0i3StringList@@QAE@ABV0@@Z
_TEXT	SEGMENT
___that$ = 8						; size = 4
??0i3StringList@@QAE@ABV0@@Z PROC			; i3StringList::i3StringList, COMDAT
; _this$ = ecx
  00000	55		 push	 ebp
  00001	8b ec		 mov	 ebp, esp
  00003	8b 55 08	 mov	 edx, DWORD PTR ___that$[ebp]
  00006	c7 01 00 00 00
	00		 mov	 DWORD PTR [ecx], OFFSET ??_7i3ElementBase@@6B@
  0000c	8b 42 04	 mov	 eax, DWORD PTR [edx+4]
  0000f	89 41 04	 mov	 DWORD PTR [ecx+4], eax
  00012	8b 42 08	 mov	 eax, DWORD PTR [edx+8]
  00015	89 41 08	 mov	 DWORD PTR [ecx+8], eax
  00018	8b 42 0c	 mov	 eax, DWORD PTR [edx+12]
  0001b	89 41 0c	 mov	 DWORD PTR [ecx+12], eax
  0001e	c7 01 00 00 00
	00		 mov	 DWORD PTR [ecx], OFFSET ??_7i3StringList@@6B@
  00024	8b 42 10	 mov	 eax, DWORD PTR [edx+16]
  00027	89 41 10	 mov	 DWORD PTR [ecx+16], eax
  0002a	8b 42 14	 mov	 eax, DWORD PTR [edx+20]
  0002d	89 41 14	 mov	 DWORD PTR [ecx+20], eax
  00030	8b 42 18	 mov	 eax, DWORD PTR [edx+24]
  00033	89 41 18	 mov	 DWORD PTR [ecx+24], eax
  00036	8b 42 1c	 mov	 eax, DWORD PTR [edx+28]
  00039	89 41 1c	 mov	 DWORD PTR [ecx+28], eax
  0003c	8b 42 20	 mov	 eax, DWORD PTR [edx+32]
  0003f	89 41 20	 mov	 DWORD PTR [ecx+32], eax
  00042	8b 42 24	 mov	 eax, DWORD PTR [edx+36]
  00045	89 41 24	 mov	 DWORD PTR [ecx+36], eax
  00048	8b c1		 mov	 eax, ecx
  0004a	5d		 pop	 ebp
  0004b	c2 04 00	 ret	 4
??0i3StringList@@QAE@ABV0@@Z ENDP			; i3StringList::i3StringList
_TEXT	ENDS
; Function compile flags: /Ogtp
; File E:\Proyectos\JuegosOnlineproyectos\PB\pbblow\Piercing Blow Remake\i3Server\include\i3Base\i3List.h
;	COMDAT ?SetOnceMode@i3StringList@@QAEXH@Z
_TEXT	SEGMENT
_bFlag$ = 8						; size = 4
?SetOnceMode@i3StringList@@QAEXH@Z PROC			; i3StringList::SetOnceMode, COMDAT
; _this$ = ecx

; 242  : 	void	SetOnceMode( BOOL bFlag)		{ m_bOnceMode = bFlag; }

  00000	55		 push	 ebp
  00001	8b ec		 mov	 ebp, esp
  00003	8b 45 08	 mov	 eax, DWORD PTR _bFlag$[ebp]
  00006	89 41 1c	 mov	 DWORD PTR [ecx+28], eax
  00009	5d		 pop	 ebp
  0000a	c2 04 00	 ret	 4
?SetOnceMode@i3StringList@@QAEXH@Z ENDP			; i3StringList::SetOnceMode
_TEXT	ENDS
; Function compile flags: /Ogtp
; File E:\Proyectos\JuegosOnlineproyectos\PB\pbblow\Piercing Blow Remake\i3Server\include\i3Base\i3List.h
;	COMDAT ?GetOnceMode@i3StringList@@QAEHXZ
_TEXT	SEGMENT
?GetOnceMode@i3StringList@@QAEHXZ PROC			; i3StringList::GetOnceMode, COMDAT
; _this$ = ecx

; 241  : 	BOOL	GetOnceMode(void)				{ return m_bOnceMode; }

  00000	8b 41 1c	 mov	 eax, DWORD PTR [ecx+28]
  00003	c3		 ret	 0
?GetOnceMode@i3StringList@@QAEHXZ ENDP			; i3StringList::GetOnceMode
_TEXT	ENDS
; Function compile flags: /Ogtp
; File E:\Proyectos\JuegosOnlineproyectos\PB\pbblow\Piercing Blow Remake\i3Server\include\i3Base\i3List.h
;	COMDAT ?GetLast@i3StringList@@QAEPADXZ
_TEXT	SEGMENT
?GetLast@i3StringList@@QAEPADXZ PROC			; i3StringList::GetLast, COMDAT
; _this$ = ecx

; 239  : 	char *	GetLast(void)					{ return Items[ m_Count-1]; }

  00000	8b 51 14	 mov	 edx, DWORD PTR [ecx+20]
  00003	8b 41 24	 mov	 eax, DWORD PTR [ecx+36]
  00006	8b 44 90 fc	 mov	 eax, DWORD PTR [eax+edx*4-4]
  0000a	c3		 ret	 0
?GetLast@i3StringList@@QAEPADXZ ENDP			; i3StringList::GetLast
_TEXT	ENDS
; Function compile flags: /Ogtp
; File E:\Proyectos\JuegosOnlineproyectos\PB\pbblow\Piercing Blow Remake\i3Server\include\i3Base\i3List.h
;	COMDAT ?GetFirst@i3StringList@@QAEPADXZ
_TEXT	SEGMENT
?GetFirst@i3StringList@@QAEPADXZ PROC			; i3StringList::GetFirst, COMDAT
; _this$ = ecx

; 238  : 	char *	GetFirst(void)					{ return Items[ 0]; }

  00000	8b 41 24	 mov	 eax, DWORD PTR [ecx+36]
  00003	8b 00		 mov	 eax, DWORD PTR [eax]
  00005	c3		 ret	 0
?GetFirst@i3StringList@@QAEPADXZ ENDP			; i3StringList::GetFirst
_TEXT	ENDS
; Function compile flags: /Ogtp
; File E:\Proyectos\JuegosOnlineproyectos\PB\pbblow\Piercing Blow Remake\i3Server\include\i3Base\i3List.h
;	COMDAT ?Find@i3StringList@@QAEHPAD@Z
_TEXT	SEGMENT
_p$ = 8							; size = 4
?Find@i3StringList@@QAEHPAD@Z PROC			; i3StringList::Find, COMDAT
; _this$ = ecx

; 236  : 	INT32	Find( char * p)					{ return IndexOf( p); }

  00000	55		 push	 ebp
  00001	8b ec		 mov	 ebp, esp
  00003	8b 01		 mov	 eax, DWORD PTR [ecx]
  00005	5d		 pop	 ebp
  00006	ff 60 0c	 jmp	 DWORD PTR [eax+12]
?Find@i3StringList@@QAEHPAD@Z ENDP			; i3StringList::Find
_TEXT	ENDS
; Function compile flags: /Ogtp
; File E:\Proyectos\JuegosOnlineproyectos\PB\pbblow\Piercing Blow Remake\i3Server\include\i3Base\i3List.h
;	COMDAT ?SetItem@i3StringList@@QAEXHPAD@Z
_TEXT	SEGMENT
_idx$ = 8						; size = 4
_p$ = 12						; size = 4
?SetItem@i3StringList@@QAEXHPAD@Z PROC			; i3StringList::SetItem, COMDAT
; _this$ = ecx

; 235  : 	void	SetItem( INT32 idx, char * p)		{ Items[idx] = p; }

  00000	55		 push	 ebp
  00001	8b ec		 mov	 ebp, esp
  00003	8b 51 24	 mov	 edx, DWORD PTR [ecx+36]
  00006	8b 45 08	 mov	 eax, DWORD PTR _idx$[ebp]
  00009	8b 4d 0c	 mov	 ecx, DWORD PTR _p$[ebp]
  0000c	89 0c 82	 mov	 DWORD PTR [edx+eax*4], ecx
  0000f	5d		 pop	 ebp
  00010	c2 08 00	 ret	 8
?SetItem@i3StringList@@QAEXHPAD@Z ENDP			; i3StringList::SetItem
_TEXT	ENDS
; Function compile flags: /Ogtp
; File E:\Proyectos\JuegosOnlineproyectos\PB\pbblow\Piercing Blow Remake\i3Server\include\i3Base\i3List.h
;	COMDAT ?GetItem@i3StringList@@QAEPAXH@Z
_TEXT	SEGMENT
_idx$ = 8						; size = 4
?GetItem@i3StringList@@QAEPAXH@Z PROC			; i3StringList::GetItem, COMDAT
; _this$ = ecx

; 233  : 	void *	GetItem( INT32 idx)				{ if( idx >= GetCount() || idx < 0 )	return NULL;

  00000	55		 push	 ebp
  00001	8b ec		 mov	 ebp, esp
  00003	8b 55 08	 mov	 edx, DWORD PTR _idx$[ebp]
  00006	3b 51 14	 cmp	 edx, DWORD PTR [ecx+20]
  00009	7d 0e		 jge	 SHORT $LN4@GetItem
  0000b	85 d2		 test	 edx, edx
  0000d	78 0a		 js	 SHORT $LN4@GetItem

; 234  : 											  else									return Items[ idx];	 }

  0000f	8b 41 24	 mov	 eax, DWORD PTR [ecx+36]
  00012	8b 04 90	 mov	 eax, DWORD PTR [eax+edx*4]
  00015	5d		 pop	 ebp
  00016	c2 04 00	 ret	 4
$LN4@GetItem:

; 233  : 	void *	GetItem( INT32 idx)				{ if( idx >= GetCount() || idx < 0 )	return NULL;

  00019	33 c0		 xor	 eax, eax

; 234  : 											  else									return Items[ idx];	 }

  0001b	5d		 pop	 ebp
  0001c	c2 04 00	 ret	 4
?GetItem@i3StringList@@QAEPAXH@Z ENDP			; i3StringList::GetItem
_TEXT	ENDS
; Function compile flags: /Ogtp
; File E:\Proyectos\JuegosOnlineproyectos\PB\pbblow\Piercing Blow Remake\i3Server\include\i3Base\i3List.h
;	COMDAT ?GetCount@i3StringList@@QBEHXZ
_TEXT	SEGMENT
?GetCount@i3StringList@@QBEHXZ PROC			; i3StringList::GetCount, COMDAT
; _this$ = ecx

; 232  : 	INT32	GetCount(void) const			{ return m_Count; }

  00000	8b 41 14	 mov	 eax, DWORD PTR [ecx+20]
  00003	c3		 ret	 0
?GetCount@i3StringList@@QBEHXZ ENDP			; i3StringList::GetCount
_TEXT	ENDS
; Function compile flags: /Ogtp
; File E:\Proyectos\JuegosOnlineproyectos\PB\pbblow\Piercing Blow Remake\i3Server\include\i3Base\i3List.h
;	COMDAT ?GetClassMeta@i3StringList@@SAPAVi3ClassMeta@@XZ
_TEXT	SEGMENT
?GetClassMeta@i3StringList@@SAPAVi3ClassMeta@@XZ PROC	; i3StringList::GetClassMeta, COMDAT

; 198  : 	I3_CLASS_DEFINE( i3StringList);

  00000	a1 00 00 00 00	 mov	 eax, DWORD PTR ?s_pClassMetai3StringList@i3StringList@@2PAVi3ClassMeta@@A ; i3StringList::s_pClassMetai3StringList
  00005	c3		 ret	 0
?GetClassMeta@i3StringList@@SAPAVi3ClassMeta@@XZ ENDP	; i3StringList::GetClassMeta
_TEXT	ENDS
; Function compile flags: /Ogtp
; File E:\Proyectos\JuegosOnlineproyectos\PB\pbblow\Piercing Blow Remake\i3Server\src\i3Base\i3PropertyGridDefines.cpp
;	COMDAT ??_Ei3List@@UAEPAXI@Z
_TEXT	SEGMENT
__$EHRec$ = -12						; size = 12
___flags$ = 8						; size = 4
??_Ei3List@@UAEPAXI@Z PROC				; i3List::`vector deleting destructor', COMDAT
; _this$ = ecx
  00000	55		 push	 ebp
  00001	8b ec		 mov	 ebp, esp
  00003	6a ff		 push	 -1
  00005	68 00 00 00 00	 push	 __ehhandler$??_Ei3List@@UAEPAXI@Z
  0000a	64 a1 00 00 00
	00		 mov	 eax, DWORD PTR fs:0
  00010	50		 push	 eax
  00011	53		 push	 ebx
  00012	56		 push	 esi
  00013	57		 push	 edi
  00014	a1 00 00 00 00	 mov	 eax, DWORD PTR ___security_cookie
  00019	33 c5		 xor	 eax, ebp
  0001b	50		 push	 eax
  0001c	8d 45 f4	 lea	 eax, DWORD PTR __$EHRec$[ebp]
  0001f	64 a3 00 00 00
	00		 mov	 DWORD PTR fs:0, eax
  00025	8b f1		 mov	 esi, ecx
  00027	8b 5d 08	 mov	 ebx, DWORD PTR ___flags$[ebp]
  0002a	8b fb		 mov	 edi, ebx
  0002c	83 e7 01	 and	 edi, 1
  0002f	f6 c3 02	 test	 bl, 2
  00032	74 3d		 je	 SHORT $LN2@vector
  00034	68 00 00 00 00	 push	 OFFSET ??1i3List@@UAE@XZ ; i3List::~i3List
  00039	ff 76 fc	 push	 DWORD PTR [esi-4]
  0003c	8d 5e fc	 lea	 ebx, DWORD PTR [esi-4]
  0003f	6a 58		 push	 88			; 00000058H
  00041	56		 push	 esi
  00042	e8 00 00 00 00	 call	 ??_M@YGXPAXIIP6EX0@Z@Z
  00047	85 ff		 test	 edi, edi
  00049	74 10		 je	 SHORT $LN3@vector
  0004b	6b 0b 58	 imul	 ecx, DWORD PTR [ebx], 88
  0004e	83 c1 04	 add	 ecx, 4
  00051	51		 push	 ecx
  00052	53		 push	 ebx
  00053	e8 00 00 00 00	 call	 ??_V@YAXPAXI@Z		; operator delete[]
  00058	83 c4 08	 add	 esp, 8
$LN3@vector:
  0005b	8b c3		 mov	 eax, ebx
  0005d	8b 4d f4	 mov	 ecx, DWORD PTR __$EHRec$[ebp]
  00060	64 89 0d 00 00
	00 00		 mov	 DWORD PTR fs:0, ecx
  00067	59		 pop	 ecx
  00068	5f		 pop	 edi
  00069	5e		 pop	 esi
  0006a	5b		 pop	 ebx
  0006b	8b e5		 mov	 esp, ebp
  0006d	5d		 pop	 ebp
  0006e	c2 04 00	 ret	 4
$LN2@vector:
  00071	e8 00 00 00 00	 call	 ??1i3List@@UAE@XZ	; i3List::~i3List
  00076	85 ff		 test	 edi, edi
  00078	74 1b		 je	 SHORT $LN6@vector
  0007a	f6 c3 04	 test	 bl, 4
  0007d	75 0b		 jne	 SHORT $LN5@vector
  0007f	56		 push	 esi
  00080	e8 00 00 00 00	 call	 ??3i3ElementBase@@SAXPAX@Z ; i3ElementBase::operator delete
  00085	83 c4 04	 add	 esp, 4
  00088	eb 0b		 jmp	 SHORT $LN6@vector
$LN5@vector:

  0008a	6a 58		 push	 88			; 00000058H
  0008c	56		 push	 esi
  0008d	e8 00 00 00 00	 call	 ??3@YAXPAXI@Z		; operator delete
  00092	83 c4 08	 add	 esp, 8
$LN6@vector:
  00095	8b c6		 mov	 eax, esi
  00097	8b 4d f4	 mov	 ecx, DWORD PTR __$EHRec$[ebp]
  0009a	64 89 0d 00 00
	00 00		 mov	 DWORD PTR fs:0, ecx
  000a1	59		 pop	 ecx
  000a2	5f		 pop	 edi
  000a3	5e		 pop	 esi
  000a4	5b		 pop	 ebx
  000a5	8b e5		 mov	 esp, ebp
  000a7	5d		 pop	 ebp
  000a8	c2 04 00	 ret	 4
  000ab	cc		 int	 3
  000ac	cc		 int	 3
  000ad	cc		 int	 3
  000ae	cc		 int	 3
  000af	cc		 int	 3
_TEXT	ENDS
;	COMDAT text$x
text$x	SEGMENT
__ehhandler$??_Ei3List@@UAEPAXI@Z:
  00000	90		 npad	 1
  00001	90		 npad	 1
  00002	8b 54 24 08	 mov	 edx, DWORD PTR [esp+8]
  00006	8d 42 0c	 lea	 eax, DWORD PTR [edx+12]
  00009	8b 4a f0	 mov	 ecx, DWORD PTR [edx-16]
  0000c	33 c8		 xor	 ecx, eax
  0000e	e8 00 00 00 00	 call	 @__security_check_cookie@4
  00013	b8 00 00 00 00	 mov	 eax, OFFSET __ehfuncinfo$??_Ei3List@@UAEPAXI@Z
  00018	e9 00 00 00 00	 jmp	 ___CxxFrameHandler3
text$x	ENDS
??_Ei3List@@UAEPAXI@Z ENDP				; i3List::`vector deleting destructor'
; Function compile flags: /Ogtp
; File E:\Proyectos\JuegosOnlineproyectos\PB\pbblow\Piercing Blow Remake\i3Server\src\i3Base\i3PropertyGridDefines.cpp
;	COMDAT ??_Gi3List@@UAEPAXI@Z
_TEXT	SEGMENT
___flags$ = 8						; size = 4
??_Gi3List@@UAEPAXI@Z PROC				; i3List::`scalar deleting destructor', COMDAT
; _this$ = ecx
  00000	55		 push	 ebp
  00001	8b ec		 mov	 ebp, esp
  00003	56		 push	 esi
  00004	8b f1		 mov	 esi, ecx
  00006	e8 00 00 00 00	 call	 ??1i3List@@UAE@XZ	; i3List::~i3List
  0000b	8b 45 08	 mov	 eax, DWORD PTR ___flags$[ebp]
  0000e	a8 01		 test	 al, 1
  00010	74 1f		 je	 SHORT $LN10@scalar
  00012	a8 04		 test	 al, 4
  00014	75 10		 jne	 SHORT $LN3@scalar
  00016	56		 push	 esi
  00017	e8 00 00 00 00	 call	 ??3i3ElementBase@@SAXPAX@Z ; i3ElementBase::operator delete
  0001c	83 c4 04	 add	 esp, 4
  0001f	8b c6		 mov	 eax, esi
  00021	5e		 pop	 esi
  00022	5d		 pop	 ebp
  00023	c2 04 00	 ret	 4
$LN3@scalar:

  00026	6a 58		 push	 88			; 00000058H
  00028	56		 push	 esi
  00029	e8 00 00 00 00	 call	 ??3@YAXPAXI@Z		; operator delete
  0002e	83 c4 08	 add	 esp, 8
$LN10@scalar:
  00031	8b c6		 mov	 eax, esi
  00033	5e		 pop	 esi
  00034	5d		 pop	 ebp
  00035	c2 04 00	 ret	 4
??_Gi3List@@UAEPAXI@Z ENDP				; i3List::`scalar deleting destructor'
_TEXT	ENDS
; Function compile flags: /Ogtp
;	COMDAT ??_Fi3List@@QAEXXZ
_TEXT	SEGMENT
??_Fi3List@@QAEXXZ PROC					; i3List::`default constructor closure', COMDAT
; _this$ = ecx
  00000	6a 08		 push	 8
  00002	e8 00 00 00 00	 call	 ??0i3List@@QAE@H@Z	; i3List::i3List
  00007	c3		 ret	 0
??_Fi3List@@QAEXXZ ENDP					; i3List::`default constructor closure'
_TEXT	ENDS
; Function compile flags: /Ogtp
;	COMDAT ??4i3List@@QAEAAV0@ABV0@@Z
_TEXT	SEGMENT
___that$ = 8						; size = 4
??4i3List@@QAEAAV0@ABV0@@Z PROC				; i3List::operator=, COMDAT
; _this$ = ecx
  00000	55		 push	 ebp
  00001	8b ec		 mov	 ebp, esp
  00003	8b 55 08	 mov	 edx, DWORD PTR ___that$[ebp]
  00006	8b 42 04	 mov	 eax, DWORD PTR [edx+4]
  00009	89 41 04	 mov	 DWORD PTR [ecx+4], eax
  0000c	8b 42 08	 mov	 eax, DWORD PTR [edx+8]
  0000f	89 41 08	 mov	 DWORD PTR [ecx+8], eax
  00012	8b 42 0c	 mov	 eax, DWORD PTR [edx+12]
  00015	89 41 0c	 mov	 DWORD PTR [ecx+12], eax
  00018	8b 42 10	 mov	 eax, DWORD PTR [edx+16]
  0001b	89 41 10	 mov	 DWORD PTR [ecx+16], eax
  0001e	8b 42 14	 mov	 eax, DWORD PTR [edx+20]
  00021	89 41 14	 mov	 DWORD PTR [ecx+20], eax
  00024	8b 42 18	 mov	 eax, DWORD PTR [edx+24]
  00027	89 41 18	 mov	 DWORD PTR [ecx+24], eax
  0002a	8b 42 1c	 mov	 eax, DWORD PTR [edx+28]
  0002d	89 41 1c	 mov	 DWORD PTR [ecx+28], eax
  00030	8b 42 20	 mov	 eax, DWORD PTR [edx+32]
  00033	89 41 20	 mov	 DWORD PTR [ecx+32], eax
  00036	8b 42 24	 mov	 eax, DWORD PTR [edx+36]
  00039	89 41 24	 mov	 DWORD PTR [ecx+36], eax
  0003c	8b 42 28	 mov	 eax, DWORD PTR [edx+40]
  0003f	89 41 28	 mov	 DWORD PTR [ecx+40], eax
  00042	8b 42 2c	 mov	 eax, DWORD PTR [edx+44]
  00045	89 41 2c	 mov	 DWORD PTR [ecx+44], eax
  00048	8b 42 30	 mov	 eax, DWORD PTR [edx+48]
  0004b	89 41 30	 mov	 DWORD PTR [ecx+48], eax
  0004e	8b 42 34	 mov	 eax, DWORD PTR [edx+52]
  00051	89 41 34	 mov	 DWORD PTR [ecx+52], eax
  00054	8b 42 38	 mov	 eax, DWORD PTR [edx+56]
  00057	89 41 38	 mov	 DWORD PTR [ecx+56], eax
  0005a	8b 42 3c	 mov	 eax, DWORD PTR [edx+60]
  0005d	89 41 3c	 mov	 DWORD PTR [ecx+60], eax
  00060	8b 42 40	 mov	 eax, DWORD PTR [edx+64]
  00063	89 41 40	 mov	 DWORD PTR [ecx+64], eax
  00066	8b 42 44	 mov	 eax, DWORD PTR [edx+68]
  00069	89 41 44	 mov	 DWORD PTR [ecx+68], eax
  0006c	8b 42 48	 mov	 eax, DWORD PTR [edx+72]
  0006f	89 41 48	 mov	 DWORD PTR [ecx+72], eax
  00072	8b 42 4c	 mov	 eax, DWORD PTR [edx+76]
  00075	89 41 4c	 mov	 DWORD PTR [ecx+76], eax
  00078	8b 42 50	 mov	 eax, DWORD PTR [edx+80]
  0007b	89 41 50	 mov	 DWORD PTR [ecx+80], eax
  0007e	8b 42 54	 mov	 eax, DWORD PTR [edx+84]
  00081	89 41 54	 mov	 DWORD PTR [ecx+84], eax
  00084	8b c1		 mov	 eax, ecx
  00086	5d		 pop	 ebp
  00087	c2 04 00	 ret	 4
??4i3List@@QAEAAV0@ABV0@@Z ENDP				; i3List::operator=
_TEXT	ENDS
; Function compile flags: /Ogtp
;	COMDAT ??0i3List@@QAE@ABV0@@Z
_TEXT	SEGMENT
___that$ = 8						; size = 4
??0i3List@@QAE@ABV0@@Z PROC				; i3List::i3List, COMDAT
; _this$ = ecx
  00000	55		 push	 ebp
  00001	8b ec		 mov	 ebp, esp
  00003	8b 55 08	 mov	 edx, DWORD PTR ___that$[ebp]
  00006	53		 push	 ebx
  00007	8b d9		 mov	 ebx, ecx
  00009	b9 08 00 00 00	 mov	 ecx, 8
  0000e	56		 push	 esi
  0000f	57		 push	 edi
  00010	8d 72 28	 lea	 esi, DWORD PTR [edx+40]
  00013	c7 03 00 00 00
	00		 mov	 DWORD PTR [ebx], OFFSET ??_7i3ElementBase@@6B@
  00019	8d 7b 28	 lea	 edi, DWORD PTR [ebx+40]
  0001c	8b 42 04	 mov	 eax, DWORD PTR [edx+4]
  0001f	89 43 04	 mov	 DWORD PTR [ebx+4], eax
  00022	8b 42 08	 mov	 eax, DWORD PTR [edx+8]
  00025	89 43 08	 mov	 DWORD PTR [ebx+8], eax
  00028	8b 42 0c	 mov	 eax, DWORD PTR [edx+12]
  0002b	89 43 0c	 mov	 DWORD PTR [ebx+12], eax
  0002e	c7 03 00 00 00
	00		 mov	 DWORD PTR [ebx], OFFSET ??_7i3List@@6B@
  00034	8b 42 10	 mov	 eax, DWORD PTR [edx+16]
  00037	89 43 10	 mov	 DWORD PTR [ebx+16], eax
  0003a	8b 42 14	 mov	 eax, DWORD PTR [edx+20]
  0003d	89 43 14	 mov	 DWORD PTR [ebx+20], eax
  00040	8b 42 18	 mov	 eax, DWORD PTR [edx+24]
  00043	89 43 18	 mov	 DWORD PTR [ebx+24], eax
  00046	8b 42 1c	 mov	 eax, DWORD PTR [edx+28]
  00049	89 43 1c	 mov	 DWORD PTR [ebx+28], eax
  0004c	8b 42 20	 mov	 eax, DWORD PTR [edx+32]
  0004f	89 43 20	 mov	 DWORD PTR [ebx+32], eax
  00052	8b 42 24	 mov	 eax, DWORD PTR [edx+36]
  00055	89 43 24	 mov	 DWORD PTR [ebx+36], eax
  00058	f3 a5		 rep movsd
  0005a	8b 42 48	 mov	 eax, DWORD PTR [edx+72]
  0005d	89 43 48	 mov	 DWORD PTR [ebx+72], eax
  00060	8b 42 4c	 mov	 eax, DWORD PTR [edx+76]
  00063	89 43 4c	 mov	 DWORD PTR [ebx+76], eax
  00066	8b 42 50	 mov	 eax, DWORD PTR [edx+80]
  00069	89 43 50	 mov	 DWORD PTR [ebx+80], eax
  0006c	8b 42 54	 mov	 eax, DWORD PTR [edx+84]
  0006f	5f		 pop	 edi
  00070	89 43 54	 mov	 DWORD PTR [ebx+84], eax
  00073	8b c3		 mov	 eax, ebx
  00075	5e		 pop	 esi
  00076	5b		 pop	 ebx
  00077	5d		 pop	 ebp
  00078	c2 04 00	 ret	 4
??0i3List@@QAE@ABV0@@Z ENDP				; i3List::i3List
_TEXT	ENDS
; Function compile flags: /Ogtp
; File E:\Proyectos\JuegosOnlineproyectos\PB\pbblow\Piercing Blow Remake\i3Server\include\i3Base\i3List.h
;	COMDAT ?SafeFreeAll@i3List@@QAEXXZ
_TEXT	SEGMENT
?SafeFreeAll@i3List@@QAEXXZ PROC			; i3List::SafeFreeAll, COMDAT
; _this$ = ecx

; 184  : 	{

  00000	53		 push	 ebx
  00001	56		 push	 esi
  00002	57		 push	 edi
  00003	8b f9		 mov	 edi, ecx

; 185  : 		INT32 Count = GetCount();

  00005	33 f6		 xor	 esi, esi
  00007	8b 5f 14	 mov	 ebx, DWORD PTR [edi+20]

; 186  : 		for (INT i = 0 ; i < Count ; ++i)

  0000a	85 db		 test	 ebx, ebx
  0000c	7e 29		 jle	 SHORT $LN3@SafeFreeAl
  0000e	8b ff		 npad	 2
$LL4@SafeFreeAl:

; 93   : 	void *	GetItem( INT32 idx)				{ if( idx >= GetCount() || idx < 0 )	return NULL;

  00010	3b 77 14	 cmp	 esi, DWORD PTR [edi+20]
  00013	7d 1d		 jge	 SHORT $LN2@SafeFreeAl

; 94   : 											  else									return Items[ idx];	 }

  00015	8b 47 24	 mov	 eax, DWORD PTR [edi+36]
  00018	8b 04 b0	 mov	 eax, DWORD PTR [eax+esi*4]

; 187  : 		{
; 188  : 			void * p = GetItem(i);
; 189  : 			if ( p )

  0001b	85 c0		 test	 eax, eax
  0001d	74 13		 je	 SHORT $LN2@SafeFreeAl

; 190  : 				i3MemFree(p);

  0001f	68 be 00 00 00	 push	 190			; 000000beH
  00024	68 00 00 00 00	 push	 OFFSET ??_C@_0GD@LNMGNFKI@E?3?2Proyectos?2JuegosOnlineproyec@
  00029	50		 push	 eax
  0002a	e8 00 00 00 00	 call	 ?FreeTool@i3mem@@YAXPAXPBDH@Z ; i3mem::FreeTool
  0002f	83 c4 0c	 add	 esp, 12			; 0000000cH
$LN2@SafeFreeAl:

; 186  : 		for (INT i = 0 ; i < Count ; ++i)

  00032	46		 inc	 esi
  00033	3b f3		 cmp	 esi, ebx
  00035	7c d9		 jl	 SHORT $LL4@SafeFreeAl
$LN3@SafeFreeAl:

; 191  : 		}
; 192  : 		Clear();

  00037	8b 07		 mov	 eax, DWORD PTR [edi]
  00039	8b cf		 mov	 ecx, edi
  0003b	6a 00		 push	 0
  0003d	ff 50 20	 call	 DWORD PTR [eax+32]
  00040	5f		 pop	 edi
  00041	5e		 pop	 esi
  00042	5b		 pop	 ebx

; 193  : 	}

  00043	c3		 ret	 0
?SafeFreeAll@i3List@@QAEXXZ ENDP			; i3List::SafeFreeAll
_TEXT	ENDS
; Function compile flags: /Ogtp
; File E:\Proyectos\JuegosOnlineproyectos\PB\pbblow\Piercing Blow Remake\i3Server\include\i3Base\i3List.h
;	COMDAT ?SafeReleaseAll@i3List@@QAEXXZ
_TEXT	SEGMENT
?SafeReleaseAll@i3List@@QAEXXZ PROC			; i3List::SafeReleaseAll, COMDAT
; _this$ = ecx

; 170  : 	{

  00000	53		 push	 ebx
  00001	56		 push	 esi
  00002	57		 push	 edi
  00003	8b f9		 mov	 edi, ecx

; 171  : 		INT32 i,n = GetCount();

  00005	33 f6		 xor	 esi, esi
  00007	8b 5f 14	 mov	 ebx, DWORD PTR [edi+20]

; 172  : 		for( i=0; i<n; i++)

  0000a	85 db		 test	 ebx, ebx
  0000c	7e 1b		 jle	 SHORT $LN3@SafeReleas
  0000e	8b ff		 npad	 2
$LL4@SafeReleas:

; 93   : 	void *	GetItem( INT32 idx)				{ if( idx >= GetCount() || idx < 0 )	return NULL;

  00010	3b 77 14	 cmp	 esi, DWORD PTR [edi+20]
  00013	7d 0f		 jge	 SHORT $LN2@SafeReleas

; 94   : 											  else									return Items[ idx];	 }

  00015	8b 47 24	 mov	 eax, DWORD PTR [edi+36]
  00018	8b 0c b0	 mov	 ecx, DWORD PTR [eax+esi*4]

; 173  : 		{
; 174  : 			i3ElementBase *pItem = (i3ElementBase*)GetItem(i);
; 175  : 			if( pItem != NULL )

  0001b	85 c9		 test	 ecx, ecx
  0001d	74 05		 je	 SHORT $LN2@SafeReleas

; 176  : 			{
; 177  : 				pItem->Release();

  0001f	e8 00 00 00 00	 call	 ?Release@i3ElementBase@@QAEXXZ ; i3ElementBase::Release
$LN2@SafeReleas:

; 172  : 		for( i=0; i<n; i++)

  00024	46		 inc	 esi
  00025	3b f3		 cmp	 esi, ebx
  00027	7c e7		 jl	 SHORT $LL4@SafeReleas
$LN3@SafeReleas:

; 178  : 			}
; 179  : 		}
; 180  : 		Clear();

  00029	8b 07		 mov	 eax, DWORD PTR [edi]
  0002b	8b cf		 mov	 ecx, edi
  0002d	6a 00		 push	 0
  0002f	ff 50 20	 call	 DWORD PTR [eax+32]
  00032	5f		 pop	 edi
  00033	5e		 pop	 esi
  00034	5b		 pop	 ebx

; 181  : 	}

  00035	c3		 ret	 0
?SafeReleaseAll@i3List@@QAEXXZ ENDP			; i3List::SafeReleaseAll
_TEXT	ENDS
; Function compile flags: /Ogtp
; File E:\Proyectos\JuegosOnlineproyectos\PB\pbblow\Piercing Blow Remake\i3Server\include\i3Base\i3List.h
;	COMDAT ?AddFromList@i3List@@QAEXPAV1@@Z
_TEXT	SEGMENT
_pSrcList$ = 8						; size = 4
?AddFromList@i3List@@QAEXPAV1@@Z PROC			; i3List::AddFromList, COMDAT
; _this$ = ecx

; 126  : 	{

  00000	55		 push	 ebp
  00001	8b ec		 mov	 ebp, esp
  00003	53		 push	 ebx
  00004	56		 push	 esi
  00005	57		 push	 edi
  00006	8b 7d 08	 mov	 edi, DWORD PTR _pSrcList$[ebp]

; 127  : 		INT32 i;
; 128  : 		for( i = 0; i  < pSrcList->GetCount(); i++)

  00009	33 f6		 xor	 esi, esi
  0000b	8b d9		 mov	 ebx, ecx
  0000d	39 77 14	 cmp	 DWORD PTR [edi+20], esi
  00010	7e 13		 jle	 SHORT $LN3@AddFromLis
$LL4@AddFromLis:

; 129  : 		{
; 130  : 			Add( pSrcList->Items[i]);

  00012	8b 47 24	 mov	 eax, DWORD PTR [edi+36]
  00015	8b cb		 mov	 ecx, ebx
  00017	8b 13		 mov	 edx, DWORD PTR [ebx]
  00019	ff 34 b0	 push	 DWORD PTR [eax+esi*4]
  0001c	ff 52 10	 call	 DWORD PTR [edx+16]
  0001f	46		 inc	 esi
  00020	3b 77 14	 cmp	 esi, DWORD PTR [edi+20]
  00023	7c ed		 jl	 SHORT $LL4@AddFromLis
$LN3@AddFromLis:
  00025	5f		 pop	 edi

; 131  : 		}
; 132  : 	}

  00026	5e		 pop	 esi
  00027	5b		 pop	 ebx
  00028	5d		 pop	 ebp
  00029	c2 04 00	 ret	 4
?AddFromList@i3List@@QAEXPAV1@@Z ENDP			; i3List::AddFromList
_TEXT	ENDS
; Function compile flags: /Ogtp
; File E:\Proyectos\JuegosOnlineproyectos\PB\pbblow\Piercing Blow Remake\i3Server\include\i3Base\i3List.h
;	COMDAT ?GetLast@i3List@@QAEPAXXZ
_TEXT	SEGMENT
?GetLast@i3List@@QAEPAXXZ PROC				; i3List::GetLast, COMDAT
; _this$ = ecx

; 114  : 	void *	GetLast(void)					{ return Items[ m_Count-1]; }

  00000	8b 51 14	 mov	 edx, DWORD PTR [ecx+20]
  00003	8b 41 24	 mov	 eax, DWORD PTR [ecx+36]
  00006	8b 44 90 fc	 mov	 eax, DWORD PTR [eax+edx*4-4]
  0000a	c3		 ret	 0
?GetLast@i3List@@QAEPAXXZ ENDP				; i3List::GetLast
_TEXT	ENDS
; Function compile flags: /Ogtp
; File E:\Proyectos\JuegosOnlineproyectos\PB\pbblow\Piercing Blow Remake\i3Server\include\i3Base\i3List.h
;	COMDAT ?GetFirst@i3List@@QAEPAXXZ
_TEXT	SEGMENT
?GetFirst@i3List@@QAEPAXXZ PROC				; i3List::GetFirst, COMDAT
; _this$ = ecx

; 113  : 	void *	GetFirst(void)					{ return Items[ 0]; }

  00000	8b 41 24	 mov	 eax, DWORD PTR [ecx+36]
  00003	8b 00		 mov	 eax, DWORD PTR [eax]
  00005	c3		 ret	 0
?GetFirst@i3List@@QAEPAXXZ ENDP				; i3List::GetFirst
_TEXT	ENDS
; Function compile flags: /Ogtp
; File E:\Proyectos\JuegosOnlineproyectos\PB\pbblow\Piercing Blow Remake\i3Server\include\i3Base\i3List.h
;	COMDAT ?Find@i3List@@QBEHPAX@Z
_TEXT	SEGMENT
_p$ = 8							; size = 4
?Find@i3List@@QBEHPAX@Z PROC				; i3List::Find, COMDAT
; _this$ = ecx

; 111  : 	INT32	Find( void * p) const			{ return IndexOf( p); }

  00000	55		 push	 ebp
  00001	8b ec		 mov	 ebp, esp
  00003	8b 01		 mov	 eax, DWORD PTR [ecx]
  00005	5d		 pop	 ebp
  00006	ff 60 0c	 jmp	 DWORD PTR [eax+12]
?Find@i3List@@QBEHPAX@Z ENDP				; i3List::Find
_TEXT	ENDS
; Function compile flags: /Ogtp
; File E:\Proyectos\JuegosOnlineproyectos\PB\pbblow\Piercing Blow Remake\i3Server\include\i3Base\i3List.h
;	COMDAT ?GetSafeItem@i3List@@QAEPAXH@Z
_TEXT	SEGMENT
_idx$ = 8						; size = 4
?GetSafeItem@i3List@@QAEPAXH@Z PROC			; i3List::GetSafeItem, COMDAT
; _this$ = ecx

; 107  : 	{

  00000	55		 push	 ebp
  00001	8b ec		 mov	 ebp, esp

; 102  : 		if ( idx >= 0 && idx < m_Count )

  00003	8b 55 08	 mov	 edx, DWORD PTR _idx$[ebp]
  00006	85 d2		 test	 edx, edx
  00008	78 0f		 js	 SHORT $LN4@GetSafeIte
  0000a	3b 51 14	 cmp	 edx, DWORD PTR [ecx+20]
  0000d	7d 0a		 jge	 SHORT $LN4@GetSafeIte

; 103  : 			return Items[ idx];

  0000f	8b 41 24	 mov	 eax, DWORD PTR [ecx+36]

; 108  : 		return const_cast<void *>(static_cast<const i3List &>(*this).GetSafeItem(idx));

  00012	8b 04 90	 mov	 eax, DWORD PTR [eax+edx*4]

; 109  : 	}

  00015	5d		 pop	 ebp
  00016	c2 04 00	 ret	 4
$LN4@GetSafeIte:

; 108  : 		return const_cast<void *>(static_cast<const i3List &>(*this).GetSafeItem(idx));

  00019	33 c0		 xor	 eax, eax

; 109  : 	}

  0001b	5d		 pop	 ebp
  0001c	c2 04 00	 ret	 4
?GetSafeItem@i3List@@QAEPAXH@Z ENDP			; i3List::GetSafeItem
_TEXT	ENDS
; Function compile flags: /Ogtp
; File E:\Proyectos\JuegosOnlineproyectos\PB\pbblow\Piercing Blow Remake\i3Server\include\i3Base\i3List.h
;	COMDAT ?GetSafeItem@i3List@@QBEPBXH@Z
_TEXT	SEGMENT
_idx$ = 8						; size = 4
?GetSafeItem@i3List@@QBEPBXH@Z PROC			; i3List::GetSafeItem, COMDAT
; _this$ = ecx

; 101  : 	{

  00000	55		 push	 ebp
  00001	8b ec		 mov	 ebp, esp

; 102  : 		if ( idx >= 0 && idx < m_Count )

  00003	8b 55 08	 mov	 edx, DWORD PTR _idx$[ebp]
  00006	85 d2		 test	 edx, edx
  00008	78 0f		 js	 SHORT $LN2@GetSafeIte
  0000a	3b 51 14	 cmp	 edx, DWORD PTR [ecx+20]
  0000d	7d 0a		 jge	 SHORT $LN2@GetSafeIte

; 103  : 			return Items[ idx];

  0000f	8b 41 24	 mov	 eax, DWORD PTR [ecx+36]
  00012	8b 04 90	 mov	 eax, DWORD PTR [eax+edx*4]

; 105  : 	}

  00015	5d		 pop	 ebp
  00016	c2 04 00	 ret	 4
$LN2@GetSafeIte:

; 104  : 		return NULL;

  00019	33 c0		 xor	 eax, eax

; 105  : 	}

  0001b	5d		 pop	 ebp
  0001c	c2 04 00	 ret	 4
?GetSafeItem@i3List@@QBEPBXH@Z ENDP			; i3List::GetSafeItem
_TEXT	ENDS
; Function compile flags: /Ogtp
; File E:\Proyectos\JuegosOnlineproyectos\PB\pbblow\Piercing Blow Remake\i3Server\include\i3Base\i3List.h
;	COMDAT ?GetItem@i3List@@QBEPBXH@Z
_TEXT	SEGMENT
_idx$ = 8						; size = 4
?GetItem@i3List@@QBEPBXH@Z PROC				; i3List::GetItem, COMDAT
; _this$ = ecx

; 97   : 	const void *	GetItem( INT32 idx) const	{ if( idx >= GetCount() || idx < 0 )	return NULL;

  00000	55		 push	 ebp
  00001	8b ec		 mov	 ebp, esp
  00003	8b 55 08	 mov	 edx, DWORD PTR _idx$[ebp]
  00006	3b 51 14	 cmp	 edx, DWORD PTR [ecx+20]
  00009	7d 0e		 jge	 SHORT $LN4@GetItem
  0000b	85 d2		 test	 edx, edx
  0000d	78 0a		 js	 SHORT $LN4@GetItem

; 98   : 												  else									return Items[ idx];	 }

  0000f	8b 41 24	 mov	 eax, DWORD PTR [ecx+36]
  00012	8b 04 90	 mov	 eax, DWORD PTR [eax+edx*4]
  00015	5d		 pop	 ebp
  00016	c2 04 00	 ret	 4
$LN4@GetItem:

; 97   : 	const void *	GetItem( INT32 idx) const	{ if( idx >= GetCount() || idx < 0 )	return NULL;

  00019	33 c0		 xor	 eax, eax

; 98   : 												  else									return Items[ idx];	 }

  0001b	5d		 pop	 ebp
  0001c	c2 04 00	 ret	 4
?GetItem@i3List@@QBEPBXH@Z ENDP				; i3List::GetItem
_TEXT	ENDS
; Function compile flags: /Ogtp
; File E:\Proyectos\JuegosOnlineproyectos\PB\pbblow\Piercing Blow Remake\i3Server\include\i3Base\i3List.h
;	COMDAT ?GetItem@i3List@@QAEPAXH@Z
_TEXT	SEGMENT
_idx$ = 8						; size = 4
?GetItem@i3List@@QAEPAXH@Z PROC				; i3List::GetItem, COMDAT
; _this$ = ecx

; 93   : 	void *	GetItem( INT32 idx)				{ if( idx >= GetCount() || idx < 0 )	return NULL;

  00000	55		 push	 ebp
  00001	8b ec		 mov	 ebp, esp
  00003	8b 55 08	 mov	 edx, DWORD PTR _idx$[ebp]
  00006	3b 51 14	 cmp	 edx, DWORD PTR [ecx+20]
  00009	7d 0e		 jge	 SHORT $LN4@GetItem
  0000b	85 d2		 test	 edx, edx
  0000d	78 0a		 js	 SHORT $LN4@GetItem

; 94   : 											  else									return Items[ idx];	 }

  0000f	8b 41 24	 mov	 eax, DWORD PTR [ecx+36]
  00012	8b 04 90	 mov	 eax, DWORD PTR [eax+edx*4]
  00015	5d		 pop	 ebp
  00016	c2 04 00	 ret	 4
$LN4@GetItem:

; 93   : 	void *	GetItem( INT32 idx)				{ if( idx >= GetCount() || idx < 0 )	return NULL;

  00019	33 c0		 xor	 eax, eax

; 94   : 											  else									return Items[ idx];	 }

  0001b	5d		 pop	 ebp
  0001c	c2 04 00	 ret	 4
?GetItem@i3List@@QAEPAXH@Z ENDP				; i3List::GetItem
_TEXT	ENDS
; Function compile flags: /Ogtp
; File E:\Proyectos\JuegosOnlineproyectos\PB\pbblow\Piercing Blow Remake\i3Server\include\i3Base\i3List.h
;	COMDAT ?GetCount@i3List@@QBEHXZ
_TEXT	SEGMENT
?GetCount@i3List@@QBEHXZ PROC				; i3List::GetCount, COMDAT
; _this$ = ecx

; 91   : 	INT32	GetCount(void) const			{ return m_Count; }

  00000	8b 41 14	 mov	 eax, DWORD PTR [ecx+20]
  00003	c3		 ret	 0
?GetCount@i3List@@QBEHXZ ENDP				; i3List::GetCount
_TEXT	ENDS
; Function compile flags: /Ogtp
; File E:\Proyectos\JuegosOnlineproyectos\PB\pbblow\Piercing Blow Remake\i3Server\include\i3Base\i3List.h
;	COMDAT ?SetOnceMode@i3List@@QAEXH@Z
_TEXT	SEGMENT
_bFlag$ = 8						; size = 4
?SetOnceMode@i3List@@QAEXH@Z PROC			; i3List::SetOnceMode, COMDAT
; _this$ = ecx

; 89   : 	void	SetOnceMode( BOOL bFlag = TRUE ){ m_bOnceMode = bFlag;	}

  00000	55		 push	 ebp
  00001	8b ec		 mov	 ebp, esp
  00003	8b 45 08	 mov	 eax, DWORD PTR _bFlag$[ebp]
  00006	89 41 20	 mov	 DWORD PTR [ecx+32], eax
  00009	5d		 pop	 ebp
  0000a	c2 04 00	 ret	 4
?SetOnceMode@i3List@@QAEXH@Z ENDP			; i3List::SetOnceMode
_TEXT	ENDS
; Function compile flags: /Ogtp
; File E:\Proyectos\JuegosOnlineproyectos\PB\pbblow\Piercing Blow Remake\i3Server\include\i3Base\i3List.h
;	COMDAT ?SetOptmizeEnableWhenClear@i3List@@QAEXH@Z
_TEXT	SEGMENT
_bFlag$ = 8						; size = 4
?SetOptmizeEnableWhenClear@i3List@@QAEXH@Z PROC		; i3List::SetOptmizeEnableWhenClear, COMDAT
; _this$ = ecx

; 85   : 	void	SetOptmizeEnableWhenClear( BOOL bFlag)				{ m_bOptimizeWhenClear = bFlag; }

  00000	55		 push	 ebp
  00001	8b ec		 mov	 ebp, esp
  00003	8b 45 08	 mov	 eax, DWORD PTR _bFlag$[ebp]
  00006	89 41 1c	 mov	 DWORD PTR [ecx+28], eax
  00009	5d		 pop	 ebp
  0000a	c2 04 00	 ret	 4
?SetOptmizeEnableWhenClear@i3List@@QAEXH@Z ENDP		; i3List::SetOptmizeEnableWhenClear
_TEXT	ENDS
; Function compile flags: /Ogtp
; File E:\Proyectos\JuegosOnlineproyectos\PB\pbblow\Piercing Blow Remake\i3Server\include\i3Base\i3List.h
;	COMDAT ?GetClassMeta@i3List@@SAPAVi3ClassMeta@@XZ
_TEXT	SEGMENT
?GetClassMeta@i3List@@SAPAVi3ClassMeta@@XZ PROC		; i3List::GetClassMeta, COMDAT

; 22   : 	I3_CLASS_DEFINE( i3List);

  00000	a1 00 00 00 00	 mov	 eax, DWORD PTR ?s_pClassMetai3List@i3List@@2PAVi3ClassMeta@@A ; i3List::s_pClassMetai3List
  00005	c3		 ret	 0
?GetClassMeta@i3List@@SAPAVi3ClassMeta@@XZ ENDP		; i3List::GetClassMeta
_TEXT	ENDS
; Function compile flags: /Ogtp
;	COMDAT ??_Ei3XMLElement@@UAEPAXI@Z
_TEXT	SEGMENT
__$EHRec$ = -12						; size = 12
___flags$ = 8						; size = 4
??_Ei3XMLElement@@UAEPAXI@Z PROC			; i3XMLElement::`vector deleting destructor', COMDAT
; _this$ = ecx
  00000	55		 push	 ebp
  00001	8b ec		 mov	 ebp, esp
  00003	6a ff		 push	 -1
  00005	68 00 00 00 00	 push	 __ehhandler$??_Ei3XMLElement@@UAEPAXI@Z
  0000a	64 a1 00 00 00
	00		 mov	 eax, DWORD PTR fs:0
  00010	50		 push	 eax
  00011	53		 push	 ebx
  00012	56		 push	 esi
  00013	57		 push	 edi
  00014	a1 00 00 00 00	 mov	 eax, DWORD PTR ___security_cookie
  00019	33 c5		 xor	 eax, ebp
  0001b	50		 push	 eax
  0001c	8d 45 f4	 lea	 eax, DWORD PTR __$EHRec$[ebp]
  0001f	64 a3 00 00 00
	00		 mov	 DWORD PTR fs:0, eax
  00025	8b f1		 mov	 esi, ecx
  00027	8b 45 08	 mov	 eax, DWORD PTR ___flags$[ebp]
  0002a	8b f8		 mov	 edi, eax
  0002c	83 e7 01	 and	 edi, 1
  0002f	a8 02		 test	 al, 2
  00031	74 42		 je	 SHORT $LN2@vector
  00033	68 00 00 00 00	 push	 OFFSET ??1i3XMLElement@@UAE@XZ ; i3XMLElement::~i3XMLElement
  00038	ff 76 fc	 push	 DWORD PTR [esi-4]
  0003b	8d 5e fc	 lea	 ebx, DWORD PTR [esi-4]
  0003e	6a 50		 push	 80			; 00000050H
  00040	56		 push	 esi
  00041	e8 00 00 00 00	 call	 ??_M@YGXPAXIIP6EX0@Z@Z
  00046	85 ff		 test	 edi, edi
  00048	74 15		 je	 SHORT $LN3@vector
  0004a	8b 0b		 mov	 ecx, DWORD PTR [ebx]
  0004c	8d 0c 89	 lea	 ecx, DWORD PTR [ecx+ecx*4]
  0004f	c1 e1 04	 shl	 ecx, 4
  00052	83 c1 04	 add	 ecx, 4
  00055	51		 push	 ecx
  00056	53		 push	 ebx
  00057	e8 00 00 00 00	 call	 ??_V@YAXPAXI@Z		; operator delete[]
  0005c	83 c4 08	 add	 esp, 8
$LN3@vector:
  0005f	8b c3		 mov	 eax, ebx
  00061	8b 4d f4	 mov	 ecx, DWORD PTR __$EHRec$[ebp]
  00064	64 89 0d 00 00
	00 00		 mov	 DWORD PTR fs:0, ecx
  0006b	59		 pop	 ecx
  0006c	5f		 pop	 edi
  0006d	5e		 pop	 esi
  0006e	5b		 pop	 ebx
  0006f	8b e5		 mov	 esp, ebp
  00071	5d		 pop	 ebp
  00072	c2 04 00	 ret	 4
$LN2@vector:
  00075	e8 00 00 00 00	 call	 ??1i3XMLElement@@UAE@XZ	; i3XMLElement::~i3XMLElement
  0007a	85 ff		 test	 edi, edi
  0007c	74 0b		 je	 SHORT $LN4@vector
  0007e	6a 50		 push	 80			; 00000050H
  00080	56		 push	 esi
  00081	e8 00 00 00 00	 call	 ??3@YAXPAXI@Z		; operator delete
  00086	83 c4 08	 add	 esp, 8
$LN4@vector:
  00089	8b c6		 mov	 eax, esi
  0008b	8b 4d f4	 mov	 ecx, DWORD PTR __$EHRec$[ebp]
  0008e	64 89 0d 00 00
	00 00		 mov	 DWORD PTR fs:0, ecx
  00095	59		 pop	 ecx
  00096	5f		 pop	 edi
  00097	5e		 pop	 esi
  00098	5b		 pop	 ebx
  00099	8b e5		 mov	 esp, ebp
  0009b	5d		 pop	 ebp
  0009c	c2 04 00	 ret	 4
  0009f	cc		 int	 3
  000a0	cc		 int	 3
  000a1	cc		 int	 3
  000a2	cc		 int	 3
  000a3	cc		 int	 3
_TEXT	ENDS
;	COMDAT text$x
text$x	SEGMENT
__ehhandler$??_Ei3XMLElement@@UAEPAXI@Z:
  00000	90		 npad	 1
  00001	90		 npad	 1
  00002	8b 54 24 08	 mov	 edx, DWORD PTR [esp+8]
  00006	8d 42 0c	 lea	 eax, DWORD PTR [edx+12]
  00009	8b 4a f0	 mov	 ecx, DWORD PTR [edx-16]
  0000c	33 c8		 xor	 ecx, eax
  0000e	e8 00 00 00 00	 call	 @__security_check_cookie@4
  00013	b8 00 00 00 00	 mov	 eax, OFFSET __ehfuncinfo$??_Ei3XMLElement@@UAEPAXI@Z
  00018	e9 00 00 00 00	 jmp	 ___CxxFrameHandler3
text$x	ENDS
??_Ei3XMLElement@@UAEPAXI@Z ENDP			; i3XMLElement::`vector deleting destructor'
; Function compile flags: /Ogtp
;	COMDAT ??_Gi3XMLElement@@UAEPAXI@Z
_TEXT	SEGMENT
___flags$ = 8						; size = 4
??_Gi3XMLElement@@UAEPAXI@Z PROC			; i3XMLElement::`scalar deleting destructor', COMDAT
; _this$ = ecx
  00000	55		 push	 ebp
  00001	8b ec		 mov	 ebp, esp
  00003	56		 push	 esi
  00004	8b f1		 mov	 esi, ecx
  00006	e8 00 00 00 00	 call	 ??1i3XMLElement@@UAE@XZ	; i3XMLElement::~i3XMLElement
  0000b	f6 45 08 01	 test	 BYTE PTR ___flags$[ebp], 1
  0000f	74 0b		 je	 SHORT $LN5@scalar
  00011	6a 50		 push	 80			; 00000050H
  00013	56		 push	 esi
  00014	e8 00 00 00 00	 call	 ??3@YAXPAXI@Z		; operator delete
  00019	83 c4 08	 add	 esp, 8
$LN5@scalar:
  0001c	8b c6		 mov	 eax, esi
  0001e	5e		 pop	 esi
  0001f	5d		 pop	 ebp
  00020	c2 04 00	 ret	 4
??_Gi3XMLElement@@UAEPAXI@Z ENDP			; i3XMLElement::`scalar deleting destructor'
_TEXT	ENDS
; Function compile flags: /Ogtp
;	COMDAT ??4i3XMLElement@@QAEAAV0@ABV0@@Z
_TEXT	SEGMENT
___that$ = 8						; size = 4
??4i3XMLElement@@QAEAAV0@ABV0@@Z PROC			; i3XMLElement::operator=, COMDAT
; _this$ = ecx
  00000	55		 push	 ebp
  00001	8b ec		 mov	 ebp, esp
  00003	56		 push	 esi
  00004	ff 75 08	 push	 DWORD PTR ___that$[ebp]
  00007	8b f1		 mov	 esi, ecx
  00009	e8 00 00 00 00	 call	 ??4TiXmlElement@@QAEXABV0@@Z ; TiXmlElement::operator=
  0000e	8b c6		 mov	 eax, esi
  00010	5e		 pop	 esi
  00011	5d		 pop	 ebp
  00012	c2 04 00	 ret	 4
??4i3XMLElement@@QAEAAV0@ABV0@@Z ENDP			; i3XMLElement::operator=
_TEXT	ENDS
; Function compile flags: /Ogtp
;	COMDAT ??0i3XMLElement@@QAE@ABV0@@Z
_TEXT	SEGMENT
_this$ = -4						; size = 4
___that$ = 8						; size = 4
??0i3XMLElement@@QAE@ABV0@@Z PROC			; i3XMLElement::i3XMLElement, COMDAT
; _this$ = ecx
  00000	55		 push	 ebp
  00001	8b ec		 mov	 ebp, esp
  00003	51		 push	 ecx
  00004	56		 push	 esi
  00005	ff 75 08	 push	 DWORD PTR ___that$[ebp]
  00008	8b f1		 mov	 esi, ecx
  0000a	89 75 fc	 mov	 DWORD PTR _this$[ebp], esi
  0000d	e8 00 00 00 00	 call	 ??0TiXmlElement@@QAE@ABV0@@Z ; TiXmlElement::TiXmlElement
  00012	c7 06 00 00 00
	00		 mov	 DWORD PTR [esi], OFFSET ??_7i3XMLElement@@6B@
  00018	8b c6		 mov	 eax, esi
  0001a	5e		 pop	 esi
  0001b	8b e5		 mov	 esp, ebp
  0001d	5d		 pop	 ebp
  0001e	c2 04 00	 ret	 4
??0i3XMLElement@@QAE@ABV0@@Z ENDP			; i3XMLElement::i3XMLElement
_TEXT	ENDS
; Function compile flags: /Ogtp
; File E:\Proyectos\JuegosOnlineproyectos\PB\pbblow\Piercing Blow Remake\i3Server\include\i3Base\i3XMLElement.h
;	COMDAT ?getAttr@i3XMLElement@@QAEPBDPBDPAG@Z
_TEXT	SEGMENT
_val$ = -4						; size = 4
_pszName$ = 8						; size = 4
_pVal$ = 12						; size = 4
?getAttr@i3XMLElement@@QAEPBDPBDPAG@Z PROC		; i3XMLElement::getAttr, COMDAT
; _this$ = ecx

; 39   : 	{

  00000	55		 push	 ebp
  00001	8b ec		 mov	 ebp, esp
  00003	51		 push	 ecx

; 40   : 		INT32 val;
; 41   : 		const char * pRv;
; 42   : 
; 43   : 		pRv = Attribute( pszName, &val);

  00004	8d 45 fc	 lea	 eax, DWORD PTR _val$[ebp]
  00007	50		 push	 eax
  00008	ff 75 08	 push	 DWORD PTR _pszName$[ebp]
  0000b	e8 00 00 00 00	 call	 ?Attribute@TiXmlElement@@QBEPBDPBDPAH@Z ; TiXmlElement::Attribute

; 44   : 
; 45   : 		*pVal = (UINT16) val;

  00010	8b 55 0c	 mov	 edx, DWORD PTR _pVal$[ebp]
  00013	66 8b 4d fc	 mov	 cx, WORD PTR _val$[ebp]
  00017	66 89 0a	 mov	 WORD PTR [edx], cx

; 46   : 
; 47   : 		return pRv;
; 48   : 	}

  0001a	8b e5		 mov	 esp, ebp
  0001c	5d		 pop	 ebp
  0001d	c2 08 00	 ret	 8
?getAttr@i3XMLElement@@QAEPBDPBDPAG@Z ENDP		; i3XMLElement::getAttr
_TEXT	ENDS
; Function compile flags: /Ogtp
; File E:\Proyectos\JuegosOnlineproyectos\PB\pbblow\Piercing Blow Remake\i3Server\include\i3Base\i3XMLElement.h
;	COMDAT ?getAttr@i3XMLElement@@QAEPBDPBDPAM@Z
_TEXT	SEGMENT
_val$ = -8						; size = 8
_pszName$ = 8						; size = 4
_pVal$ = 12						; size = 4
?getAttr@i3XMLElement@@QAEPBDPBDPAM@Z PROC		; i3XMLElement::getAttr, COMDAT
; _this$ = ecx

; 27   : 	{ 

  00000	55		 push	 ebp
  00001	8b ec		 mov	 ebp, esp
  00003	83 ec 08	 sub	 esp, 8

; 28   : 		const char * pRv;
; 29   : 		double val;
; 30   : 
; 31   : 		pRv = Attribute( pszName, &val);

  00006	8d 45 f8	 lea	 eax, DWORD PTR _val$[ebp]
  00009	50		 push	 eax
  0000a	ff 75 08	 push	 DWORD PTR _pszName$[ebp]
  0000d	e8 00 00 00 00	 call	 ?Attribute@TiXmlElement@@QBEPBDPBDPAN@Z ; TiXmlElement::Attribute

; 32   : 
; 33   : 		*pVal = (REAL32) val;

  00012	8b 4d 0c	 mov	 ecx, DWORD PTR _pVal$[ebp]
  00015	dd 45 f8	 fld	 QWORD PTR _val$[ebp]
  00018	d9 19		 fstp	 DWORD PTR [ecx]

; 34   : 
; 35   : 		return pRv; 
; 36   : 	}

  0001a	8b e5		 mov	 esp, ebp
  0001c	5d		 pop	 ebp
  0001d	c2 08 00	 ret	 8
?getAttr@i3XMLElement@@QAEPBDPBDPAM@Z ENDP		; i3XMLElement::getAttr
_TEXT	ENDS
; Function compile flags: /Ogtp
; File E:\Proyectos\JuegosOnlineproyectos\PB\pbblow\Piercing Blow Remake\i3Server\include\i3Base\i3XMLElement.h
;	COMDAT ?getAttr@i3XMLElement@@QAEPBDPBDPA_K@Z
_TEXT	SEGMENT
_pszName$ = 8						; size = 4
_pVal$ = 12						; size = 4
?getAttr@i3XMLElement@@QAEPBDPBDPA_K@Z PROC		; i3XMLElement::getAttr, COMDAT
; _this$ = ecx

; 25   : 	const char *	getAttr( const char * pszName, UINT64 * pVal)			{ return AttributeLong( pszName, (INT64 *) pVal); }

  00000	55		 push	 ebp
  00001	8b ec		 mov	 ebp, esp
  00003	5d		 pop	 ebp
  00004	e9 00 00 00 00	 jmp	 ?AttributeLong@TiXmlElement@@QBEPBDPBDPA_J@Z ; TiXmlElement::AttributeLong
?getAttr@i3XMLElement@@QAEPBDPBDPA_K@Z ENDP		; i3XMLElement::getAttr
_TEXT	ENDS
; Function compile flags: /Ogtp
; File E:\Proyectos\JuegosOnlineproyectos\PB\pbblow\Piercing Blow Remake\i3Server\include\i3Base\i3XMLElement.h
;	COMDAT ?getAttr@i3XMLElement@@QAEPBDPBDPA_J@Z
_TEXT	SEGMENT
_pszName$ = 8						; size = 4
_pVal$ = 12						; size = 4
?getAttr@i3XMLElement@@QAEPBDPBDPA_J@Z PROC		; i3XMLElement::getAttr, COMDAT
; _this$ = ecx

; 24   : 	const char *	getAttr( const char * pszName, INT64 * pVal)			{ return AttributeLong( pszName, pVal); }

  00000	55		 push	 ebp
  00001	8b ec		 mov	 ebp, esp
  00003	5d		 pop	 ebp
  00004	e9 00 00 00 00	 jmp	 ?AttributeLong@TiXmlElement@@QBEPBDPBDPA_J@Z ; TiXmlElement::AttributeLong
?getAttr@i3XMLElement@@QAEPBDPBDPA_J@Z ENDP		; i3XMLElement::getAttr
_TEXT	ENDS
; Function compile flags: /Ogtp
; File E:\Proyectos\JuegosOnlineproyectos\PB\pbblow\Piercing Blow Remake\i3Server\include\i3Base\i3XMLElement.h
;	COMDAT ?getAttr@i3XMLElement@@QAEPBDPBDPAI@Z
_TEXT	SEGMENT
_pszName$ = 8						; size = 4
_pVal$ = 12						; size = 4
?getAttr@i3XMLElement@@QAEPBDPBDPAI@Z PROC		; i3XMLElement::getAttr, COMDAT
; _this$ = ecx

; 23   : 	const char *	getAttr( const char * pszName, UINT32 * pVal)			{ return Attribute( pszName, (INT32 *) pVal); }

  00000	55		 push	 ebp
  00001	8b ec		 mov	 ebp, esp
  00003	5d		 pop	 ebp
  00004	e9 00 00 00 00	 jmp	 ?Attribute@TiXmlElement@@QBEPBDPBDPAH@Z ; TiXmlElement::Attribute
?getAttr@i3XMLElement@@QAEPBDPBDPAI@Z ENDP		; i3XMLElement::getAttr
_TEXT	ENDS
; Function compile flags: /Ogtp
; File E:\Proyectos\JuegosOnlineproyectos\PB\pbblow\Piercing Blow Remake\i3Server\include\i3Base\i3XMLElement.h
;	COMDAT ?getAttr@i3XMLElement@@QAEPBDPBDPAH@Z
_TEXT	SEGMENT
_pszName$ = 8						; size = 4
_pVal$ = 12						; size = 4
?getAttr@i3XMLElement@@QAEPBDPBDPAH@Z PROC		; i3XMLElement::getAttr, COMDAT
; _this$ = ecx

; 22   : 	const char *	getAttr( const char * pszName, INT32 * pVal)			{ return Attribute( pszName, pVal); }

  00000	55		 push	 ebp
  00001	8b ec		 mov	 ebp, esp
  00003	5d		 pop	 ebp
  00004	e9 00 00 00 00	 jmp	 ?Attribute@TiXmlElement@@QBEPBDPBDPAH@Z ; TiXmlElement::Attribute
?getAttr@i3XMLElement@@QAEPBDPBDPAH@Z ENDP		; i3XMLElement::getAttr
_TEXT	ENDS
; Function compile flags: /Ogtp
; File E:\Proyectos\JuegosOnlineproyectos\PB\pbblow\Piercing Blow Remake\i3Server\include\i3Base\i3XMLElement.h
;	COMDAT ?getAttr@i3XMLElement@@QAEPBDPBD@Z
_TEXT	SEGMENT
_pszName$ = 8						; size = 4
?getAttr@i3XMLElement@@QAEPBDPBD@Z PROC			; i3XMLElement::getAttr, COMDAT
; _this$ = ecx

; 21   : 	const char *	getAttr( const char * pszName)							{ return Attribute( pszName); }

  00000	55		 push	 ebp
  00001	8b ec		 mov	 ebp, esp
  00003	5d		 pop	 ebp
  00004	e9 00 00 00 00	 jmp	 ?Attribute@TiXmlElement@@QBEPBDPBD@Z ; TiXmlElement::Attribute
?getAttr@i3XMLElement@@QAEPBDPBD@Z ENDP			; i3XMLElement::getAttr
_TEXT	ENDS
; Function compile flags: /Ogtp
; File E:\Proyectos\JuegosOnlineproyectos\PB\pbblow\Piercing Blow Remake\i3Server\include\i3Base\i3XMLElement.h
;	COMDAT ?addAttr@i3XMLElement@@QAEXPBD_K@Z
_TEXT	SEGMENT
_pszName$ = 8						; size = 4
_val$ = 12						; size = 8
?addAttr@i3XMLElement@@QAEXPBD_K@Z PROC			; i3XMLElement::addAttr, COMDAT
; _this$ = ecx

; 19   : 	void		addAttr( const char * pszName, UINT64 val)					{	SetLongLongAttribute( pszName, (INT64)val); }

  00000	55		 push	 ebp
  00001	8b ec		 mov	 ebp, esp
  00003	ff 75 10	 push	 DWORD PTR _val$[ebp+4]
  00006	ff 75 0c	 push	 DWORD PTR _val$[ebp]
  00009	ff 75 08	 push	 DWORD PTR _pszName$[ebp]
  0000c	e8 00 00 00 00	 call	 ?SetLongLongAttribute@TiXmlElement@@QAEXPBD_J@Z ; TiXmlElement::SetLongLongAttribute
  00011	5d		 pop	 ebp
  00012	c2 0c 00	 ret	 12			; 0000000cH
?addAttr@i3XMLElement@@QAEXPBD_K@Z ENDP			; i3XMLElement::addAttr
_TEXT	ENDS
; Function compile flags: /Ogtp
; File E:\Proyectos\JuegosOnlineproyectos\PB\pbblow\Piercing Blow Remake\i3Server\include\i3Base\i3XMLElement.h
;	COMDAT ?addAttr@i3XMLElement@@QAEXPBD_J@Z
_TEXT	SEGMENT
_pszName$ = 8						; size = 4
_val$ = 12						; size = 8
?addAttr@i3XMLElement@@QAEXPBD_J@Z PROC			; i3XMLElement::addAttr, COMDAT
; _this$ = ecx

; 18   : 	void		addAttr( const char * pszName, INT64 val)					{	SetLongLongAttribute( pszName, val); }

  00000	55		 push	 ebp
  00001	8b ec		 mov	 ebp, esp
  00003	ff 75 10	 push	 DWORD PTR _val$[ebp+4]
  00006	ff 75 0c	 push	 DWORD PTR _val$[ebp]
  00009	ff 75 08	 push	 DWORD PTR _pszName$[ebp]
  0000c	e8 00 00 00 00	 call	 ?SetLongLongAttribute@TiXmlElement@@QAEXPBD_J@Z ; TiXmlElement::SetLongLongAttribute
  00011	5d		 pop	 ebp
  00012	c2 0c 00	 ret	 12			; 0000000cH
?addAttr@i3XMLElement@@QAEXPBD_J@Z ENDP			; i3XMLElement::addAttr
_TEXT	ENDS
; Function compile flags: /Ogtp
; File E:\Proyectos\JuegosOnlineproyectos\PB\pbblow\Piercing Blow Remake\i3Server\include\i3Base\i3XMLElement.h
;	COMDAT ?addAttr@i3XMLElement@@QAEXPBDM@Z
_TEXT	SEGMENT
_pszName$ = 8						; size = 4
_val$ = 12						; size = 4
?addAttr@i3XMLElement@@QAEXPBDM@Z PROC			; i3XMLElement::addAttr, COMDAT
; _this$ = ecx

; 17   : 	void		addAttr( const char * pszName, REAL32 val)					{	SetAttribute( pszName, val); }

  00000	55		 push	 ebp
  00001	8b ec		 mov	 ebp, esp
  00003	d9 45 0c	 fld	 DWORD PTR _val$[ebp]
  00006	51		 push	 ecx
  00007	d9 1c 24	 fstp	 DWORD PTR [esp]
  0000a	ff 75 08	 push	 DWORD PTR _pszName$[ebp]
  0000d	e8 00 00 00 00	 call	 ?SetAttribute@TiXmlElement@@QAEXPBDM@Z ; TiXmlElement::SetAttribute
  00012	5d		 pop	 ebp
  00013	c2 08 00	 ret	 8
?addAttr@i3XMLElement@@QAEXPBDM@Z ENDP			; i3XMLElement::addAttr
_TEXT	ENDS
; Function compile flags: /Ogtp
; File E:\Proyectos\JuegosOnlineproyectos\PB\pbblow\Piercing Blow Remake\i3Server\include\i3Base\i3XMLElement.h
;	COMDAT ?addAttr@i3XMLElement@@QAEXPBDI@Z
_TEXT	SEGMENT
_pszName$ = 8						; size = 4
_val$ = 12						; size = 4
?addAttr@i3XMLElement@@QAEXPBDI@Z PROC			; i3XMLElement::addAttr, COMDAT
; _this$ = ecx

; 16   : 	void		addAttr( const char * pszName, UINT32 val)					{	SetAttribute( pszName, (INT32) val); }

  00000	55		 push	 ebp
  00001	8b ec		 mov	 ebp, esp
  00003	5d		 pop	 ebp
  00004	e9 00 00 00 00	 jmp	 ?SetAttribute@TiXmlElement@@QAEXPBDH@Z ; TiXmlElement::SetAttribute
?addAttr@i3XMLElement@@QAEXPBDI@Z ENDP			; i3XMLElement::addAttr
_TEXT	ENDS
; Function compile flags: /Ogtp
; File E:\Proyectos\JuegosOnlineproyectos\PB\pbblow\Piercing Blow Remake\i3Server\include\i3Base\i3XMLElement.h
;	COMDAT ?addAttr@i3XMLElement@@QAEXPBDH@Z
_TEXT	SEGMENT
_pszName$ = 8						; size = 4
_val$ = 12						; size = 4
?addAttr@i3XMLElement@@QAEXPBDH@Z PROC			; i3XMLElement::addAttr, COMDAT
; _this$ = ecx

; 15   : 	void		addAttr( const char * pszName, INT32 val)					{	SetAttribute( pszName, val); }

  00000	55		 push	 ebp
  00001	8b ec		 mov	 ebp, esp
  00003	5d		 pop	 ebp
  00004	e9 00 00 00 00	 jmp	 ?SetAttribute@TiXmlElement@@QAEXPBDH@Z ; TiXmlElement::SetAttribute
?addAttr@i3XMLElement@@QAEXPBDH@Z ENDP			; i3XMLElement::addAttr
_TEXT	ENDS
; Function compile flags: /Ogtp
; File E:\Proyectos\JuegosOnlineproyectos\PB\pbblow\Piercing Blow Remake\i3Server\include\i3Base\i3XMLElement.h
;	COMDAT ?addAttr@i3XMLElement@@QAEXPBD0@Z
_TEXT	SEGMENT
_pszName$ = 8						; size = 4
_pszStr$ = 12						; size = 4
?addAttr@i3XMLElement@@QAEXPBD0@Z PROC			; i3XMLElement::addAttr, COMDAT
; _this$ = ecx

; 14   : 	void		addAttr( const char * pszName, const char * pszStr)			{	SetAttribute( pszName, pszStr); }

  00000	55		 push	 ebp
  00001	8b ec		 mov	 ebp, esp
  00003	5d		 pop	 ebp
  00004	e9 00 00 00 00	 jmp	 ?SetAttribute@TiXmlElement@@QAEXPBD0@Z ; TiXmlElement::SetAttribute
?addAttr@i3XMLElement@@QAEXPBD0@Z ENDP			; i3XMLElement::addAttr
_TEXT	ENDS
; Function compile flags: /Ogtp
; File E:\Proyectos\JuegosOnlineproyectos\PB\pbblow\Piercing Blow Remake\i3Server\include\i3Base\tinystr.h
;	COMDAT ??_ETiXmlPrinter@@UAEPAXI@Z
_TEXT	SEGMENT
__$EHRec$ = -12						; size = 12
___flags$ = 8						; size = 4
??_ETiXmlPrinter@@UAEPAXI@Z PROC			; TiXmlPrinter::`vector deleting destructor', COMDAT
; _this$ = ecx
  00000	55		 push	 ebp
  00001	8b ec		 mov	 ebp, esp
  00003	6a ff		 push	 -1
  00005	68 00 00 00 00	 push	 __ehhandler$??_ETiXmlPrinter@@UAEPAXI@Z
  0000a	64 a1 00 00 00
	00		 mov	 eax, DWORD PTR fs:0
  00010	50		 push	 eax
  00011	53		 push	 ebx
  00012	56		 push	 esi
  00013	57		 push	 edi
  00014	a1 00 00 00 00	 mov	 eax, DWORD PTR ___security_cookie
  00019	33 c5		 xor	 eax, ebp
  0001b	50		 push	 eax
  0001c	8d 45 f4	 lea	 eax, DWORD PTR __$EHRec$[ebp]
  0001f	64 a3 00 00 00
	00		 mov	 DWORD PTR fs:0, eax
  00025	8b f1		 mov	 esi, ecx
  00027	8b 5d 08	 mov	 ebx, DWORD PTR ___flags$[ebp]
  0002a	f6 c3 02	 test	 bl, 2
  0002d	74 44		 je	 SHORT $LN2@vector
  0002f	68 00 00 00 00	 push	 OFFSET ??1TiXmlPrinter@@UAE@XZ
  00034	ff 76 fc	 push	 DWORD PTR [esi-4]
  00037	8d 7e fc	 lea	 edi, DWORD PTR [esi-4]
  0003a	6a 18		 push	 24			; 00000018H
  0003c	56		 push	 esi
  0003d	e8 00 00 00 00	 call	 ??_M@YGXPAXIIP6EX0@Z@Z
  00042	f6 c3 01	 test	 bl, 1
  00045	74 16		 je	 SHORT $LN3@vector
  00047	8b 0f		 mov	 ecx, DWORD PTR [edi]
  00049	8d 0c 49	 lea	 ecx, DWORD PTR [ecx+ecx*2]
  0004c	8d 0c cd 04 00
	00 00		 lea	 ecx, DWORD PTR [ecx*8+4]
  00053	51		 push	 ecx
  00054	57		 push	 edi
  00055	e8 00 00 00 00	 call	 ??_V@YAXPAXI@Z		; operator delete[]
  0005a	83 c4 08	 add	 esp, 8
$LN3@vector:
  0005d	8b c7		 mov	 eax, edi
  0005f	8b 4d f4	 mov	 ecx, DWORD PTR __$EHRec$[ebp]
  00062	64 89 0d 00 00
	00 00		 mov	 DWORD PTR fs:0, ecx
  00069	59		 pop	 ecx
  0006a	5f		 pop	 edi
  0006b	5e		 pop	 esi
  0006c	5b		 pop	 ebx
  0006d	8b e5		 mov	 esp, ebp
  0006f	5d		 pop	 ebp
  00070	c2 04 00	 ret	 4
$LN2@vector:

; 257  : 		if (rep_ != &nullrep_)

  00073	8b 46 14	 mov	 eax, DWORD PTR [esi+20]
  00076	3d 00 00 00 00	 cmp	 eax, OFFSET ?nullrep_@TiXmlString@@0URep@1@A ; TiXmlString::nullrep_
  0007b	74 09		 je	 SHORT $LN16@vector

; 258  : 		{
; 259  : 			// The rep_ is really an array of ints. (see the allocator, above).
; 260  : 			// Cast it back before delete, so the compiler won't incorrectly call destructors.
; 261  : 			delete [] ( reinterpret_cast<int*>( rep_ ) );

  0007d	50		 push	 eax
  0007e	e8 00 00 00 00	 call	 ??_V@YAXPAX@Z		; operator delete[]
  00083	83 c4 04	 add	 esp, 4
$LN16@vector:

; 257  : 		if (rep_ != &nullrep_)

  00086	8b 46 10	 mov	 eax, DWORD PTR [esi+16]
  00089	3d 00 00 00 00	 cmp	 eax, OFFSET ?nullrep_@TiXmlString@@0URep@1@A ; TiXmlString::nullrep_
  0008e	74 09		 je	 SHORT $LN22@vector

; 258  : 		{
; 259  : 			// The rep_ is really an array of ints. (see the allocator, above).
; 260  : 			// Cast it back before delete, so the compiler won't incorrectly call destructors.
; 261  : 			delete [] ( reinterpret_cast<int*>( rep_ ) );

  00090	50		 push	 eax
  00091	e8 00 00 00 00	 call	 ??_V@YAXPAX@Z		; operator delete[]
  00096	83 c4 04	 add	 esp, 4
$LN22@vector:

; 257  : 		if (rep_ != &nullrep_)

  00099	8b 46 0c	 mov	 eax, DWORD PTR [esi+12]
  0009c	3d 00 00 00 00	 cmp	 eax, OFFSET ?nullrep_@TiXmlString@@0URep@1@A ; TiXmlString::nullrep_
  000a1	74 09		 je	 SHORT $LN28@vector

; 258  : 		{
; 259  : 			// The rep_ is really an array of ints. (see the allocator, above).
; 260  : 			// Cast it back before delete, so the compiler won't incorrectly call destructors.
; 261  : 			delete [] ( reinterpret_cast<int*>( rep_ ) );

  000a3	50		 push	 eax
  000a4	e8 00 00 00 00	 call	 ??_V@YAXPAX@Z		; operator delete[]
  000a9	83 c4 04	 add	 esp, 4
$LN28@vector:
  000ac	c7 06 00 00 00
	00		 mov	 DWORD PTR [esi], OFFSET ??_7TiXmlVisitor@@6B@
  000b2	f6 c3 01	 test	 bl, 1
  000b5	74 0b		 je	 SHORT $LN4@vector
  000b7	6a 18		 push	 24			; 00000018H
  000b9	56		 push	 esi
  000ba	e8 00 00 00 00	 call	 ??3@YAXPAXI@Z		; operator delete
  000bf	83 c4 08	 add	 esp, 8
$LN4@vector:
  000c2	8b c6		 mov	 eax, esi
  000c4	8b 4d f4	 mov	 ecx, DWORD PTR __$EHRec$[ebp]
  000c7	64 89 0d 00 00
	00 00		 mov	 DWORD PTR fs:0, ecx
  000ce	59		 pop	 ecx
  000cf	5f		 pop	 edi
  000d0	5e		 pop	 esi
  000d1	5b		 pop	 ebx
  000d2	8b e5		 mov	 esp, ebp
  000d4	5d		 pop	 ebp
  000d5	c2 04 00	 ret	 4
  000d8	cc		 int	 3
  000d9	cc		 int	 3
  000da	cc		 int	 3
  000db	cc		 int	 3
  000dc	cc		 int	 3
_TEXT	ENDS
;	COMDAT text$x
text$x	SEGMENT
__ehhandler$??_ETiXmlPrinter@@UAEPAXI@Z:
  00000	90		 npad	 1
  00001	90		 npad	 1
  00002	8b 54 24 08	 mov	 edx, DWORD PTR [esp+8]
  00006	8d 42 0c	 lea	 eax, DWORD PTR [edx+12]
  00009	8b 4a f0	 mov	 ecx, DWORD PTR [edx-16]
  0000c	33 c8		 xor	 ecx, eax
  0000e	e8 00 00 00 00	 call	 @__security_check_cookie@4
  00013	b8 00 00 00 00	 mov	 eax, OFFSET __ehfuncinfo$??_ETiXmlPrinter@@UAEPAXI@Z
  00018	e9 00 00 00 00	 jmp	 ___CxxFrameHandler3
text$x	ENDS
??_ETiXmlPrinter@@UAEPAXI@Z ENDP			; TiXmlPrinter::`vector deleting destructor'
; Function compile flags: /Ogtp
; File E:\Proyectos\JuegosOnlineproyectos\PB\pbblow\Piercing Blow Remake\i3Server\include\i3Base\tinystr.h
;	COMDAT ??_GTiXmlPrinter@@UAEPAXI@Z
_TEXT	SEGMENT
___flags$ = 8						; size = 4
??_GTiXmlPrinter@@UAEPAXI@Z PROC			; TiXmlPrinter::`scalar deleting destructor', COMDAT
; _this$ = ecx
  00000	55		 push	 ebp
  00001	8b ec		 mov	 ebp, esp

; 257  : 		if (rep_ != &nullrep_)

  00003	56		 push	 esi
  00004	8b f1		 mov	 esi, ecx
  00006	8b 46 14	 mov	 eax, DWORD PTR [esi+20]
  00009	3d 00 00 00 00	 cmp	 eax, OFFSET ?nullrep_@TiXmlString@@0URep@1@A ; TiXmlString::nullrep_
  0000e	74 09		 je	 SHORT $LN14@scalar

; 258  : 		{
; 259  : 			// The rep_ is really an array of ints. (see the allocator, above).
; 260  : 			// Cast it back before delete, so the compiler won't incorrectly call destructors.
; 261  : 			delete [] ( reinterpret_cast<int*>( rep_ ) );

  00010	50		 push	 eax
  00011	e8 00 00 00 00	 call	 ??_V@YAXPAX@Z		; operator delete[]
  00016	83 c4 04	 add	 esp, 4
$LN14@scalar:

; 257  : 		if (rep_ != &nullrep_)

  00019	8b 46 10	 mov	 eax, DWORD PTR [esi+16]
  0001c	3d 00 00 00 00	 cmp	 eax, OFFSET ?nullrep_@TiXmlString@@0URep@1@A ; TiXmlString::nullrep_
  00021	74 09		 je	 SHORT $LN20@scalar

; 258  : 		{
; 259  : 			// The rep_ is really an array of ints. (see the allocator, above).
; 260  : 			// Cast it back before delete, so the compiler won't incorrectly call destructors.
; 261  : 			delete [] ( reinterpret_cast<int*>( rep_ ) );

  00023	50		 push	 eax
  00024	e8 00 00 00 00	 call	 ??_V@YAXPAX@Z		; operator delete[]
  00029	83 c4 04	 add	 esp, 4
$LN20@scalar:

; 257  : 		if (rep_ != &nullrep_)

  0002c	8b 46 0c	 mov	 eax, DWORD PTR [esi+12]
  0002f	3d 00 00 00 00	 cmp	 eax, OFFSET ?nullrep_@TiXmlString@@0URep@1@A ; TiXmlString::nullrep_
  00034	74 09		 je	 SHORT $LN26@scalar

; 258  : 		{
; 259  : 			// The rep_ is really an array of ints. (see the allocator, above).
; 260  : 			// Cast it back before delete, so the compiler won't incorrectly call destructors.
; 261  : 			delete [] ( reinterpret_cast<int*>( rep_ ) );

  00036	50		 push	 eax
  00037	e8 00 00 00 00	 call	 ??_V@YAXPAX@Z		; operator delete[]
  0003c	83 c4 04	 add	 esp, 4
$LN26@scalar:
  0003f	f6 45 08 01	 test	 BYTE PTR ___flags$[ebp], 1
  00043	c7 06 00 00 00
	00		 mov	 DWORD PTR [esi], OFFSET ??_7TiXmlVisitor@@6B@
  00049	74 0b		 je	 SHORT $LN28@scalar
  0004b	6a 18		 push	 24			; 00000018H
  0004d	56		 push	 esi
  0004e	e8 00 00 00 00	 call	 ??3@YAXPAXI@Z		; operator delete
  00053	83 c4 08	 add	 esp, 8
$LN28@scalar:
  00056	8b c6		 mov	 eax, esi
  00058	5e		 pop	 esi
  00059	5d		 pop	 ebp
  0005a	c2 04 00	 ret	 4
??_GTiXmlPrinter@@UAEPAXI@Z ENDP			; TiXmlPrinter::`scalar deleting destructor'
_TEXT	ENDS
; Function compile flags: /Ogtp
; File E:\Proyectos\JuegosOnlineproyectos\PB\pbblow\Piercing Blow Remake\i3Server\include\i3Base\tinystr.h
;	COMDAT ??4TiXmlPrinter@@QAEAAV0@$$QAV0@@Z
_TEXT	SEGMENT
___that$ = 8						; size = 4
??4TiXmlPrinter@@QAEAAV0@$$QAV0@@Z PROC			; TiXmlPrinter::operator=, COMDAT
; _this$ = ecx
  00000	55		 push	 ebp
  00001	8b ec		 mov	 ebp, esp

; 150  : 	size_type length () const { return rep_->size; }

  00003	56		 push	 esi
  00004	8b 75 08	 mov	 esi, DWORD PTR ___that$[ebp]
  00007	57		 push	 edi
  00008	8b f9		 mov	 edi, ecx
  0000a	8b 46 04	 mov	 eax, DWORD PTR [esi+4]
  0000d	89 47 04	 mov	 DWORD PTR [edi+4], eax
  00010	8d 4f 0c	 lea	 ecx, DWORD PTR [edi+12]
  00013	8a 46 08	 mov	 al, BYTE PTR [esi+8]
  00016	88 47 08	 mov	 BYTE PTR [edi+8], al
  00019	8b 46 0c	 mov	 eax, DWORD PTR [esi+12]

; 120  : 		return assign(copy.start(), copy.length());

  0001c	ff 30		 push	 DWORD PTR [eax]

; 224  : 	char* start() const { return rep_->str; }

  0001e	83 c0 08	 add	 eax, 8

; 120  : 		return assign(copy.start(), copy.length());

  00021	50		 push	 eax
  00022	e8 00 00 00 00	 call	 ?assign@TiXmlString@@QAEAAV1@PBDI@Z ; TiXmlString::assign

; 150  : 	size_type length () const { return rep_->size; }

  00027	8b 46 10	 mov	 eax, DWORD PTR [esi+16]
  0002a	8d 4f 10	 lea	 ecx, DWORD PTR [edi+16]

; 120  : 		return assign(copy.start(), copy.length());

  0002d	ff 30		 push	 DWORD PTR [eax]

; 224  : 	char* start() const { return rep_->str; }

  0002f	83 c0 08	 add	 eax, 8

; 120  : 		return assign(copy.start(), copy.length());

  00032	50		 push	 eax
  00033	e8 00 00 00 00	 call	 ?assign@TiXmlString@@QAEAAV1@PBDI@Z ; TiXmlString::assign

; 150  : 	size_type length () const { return rep_->size; }

  00038	8b 46 14	 mov	 eax, DWORD PTR [esi+20]
  0003b	8d 4f 14	 lea	 ecx, DWORD PTR [edi+20]

; 120  : 		return assign(copy.start(), copy.length());

  0003e	ff 30		 push	 DWORD PTR [eax]

; 224  : 	char* start() const { return rep_->str; }

  00040	83 c0 08	 add	 eax, 8

; 120  : 		return assign(copy.start(), copy.length());

  00043	50		 push	 eax
  00044	e8 00 00 00 00	 call	 ?assign@TiXmlString@@QAEAAV1@PBDI@Z ; TiXmlString::assign
  00049	8b c7		 mov	 eax, edi
  0004b	5f		 pop	 edi
  0004c	5e		 pop	 esi
  0004d	5d		 pop	 ebp
  0004e	c2 04 00	 ret	 4
??4TiXmlPrinter@@QAEAAV0@$$QAV0@@Z ENDP			; TiXmlPrinter::operator=
_TEXT	ENDS
; Function compile flags: /Ogtp
; File E:\Proyectos\JuegosOnlineproyectos\PB\pbblow\Piercing Blow Remake\i3Server\include\i3Base\tinystr.h
;	COMDAT ??4TiXmlPrinter@@QAEAAV0@ABV0@@Z
_TEXT	SEGMENT
___that$ = 8						; size = 4
??4TiXmlPrinter@@QAEAAV0@ABV0@@Z PROC			; TiXmlPrinter::operator=, COMDAT
; _this$ = ecx
  00000	55		 push	 ebp
  00001	8b ec		 mov	 ebp, esp

; 150  : 	size_type length () const { return rep_->size; }

  00003	56		 push	 esi
  00004	8b 75 08	 mov	 esi, DWORD PTR ___that$[ebp]
  00007	57		 push	 edi
  00008	8b f9		 mov	 edi, ecx
  0000a	8b 46 04	 mov	 eax, DWORD PTR [esi+4]
  0000d	89 47 04	 mov	 DWORD PTR [edi+4], eax
  00010	8d 4f 0c	 lea	 ecx, DWORD PTR [edi+12]
  00013	8a 46 08	 mov	 al, BYTE PTR [esi+8]
  00016	88 47 08	 mov	 BYTE PTR [edi+8], al
  00019	8b 46 0c	 mov	 eax, DWORD PTR [esi+12]

; 120  : 		return assign(copy.start(), copy.length());

  0001c	ff 30		 push	 DWORD PTR [eax]

; 224  : 	char* start() const { return rep_->str; }

  0001e	83 c0 08	 add	 eax, 8

; 120  : 		return assign(copy.start(), copy.length());

  00021	50		 push	 eax
  00022	e8 00 00 00 00	 call	 ?assign@TiXmlString@@QAEAAV1@PBDI@Z ; TiXmlString::assign

; 150  : 	size_type length () const { return rep_->size; }

  00027	8b 46 10	 mov	 eax, DWORD PTR [esi+16]
  0002a	8d 4f 10	 lea	 ecx, DWORD PTR [edi+16]

; 120  : 		return assign(copy.start(), copy.length());

  0002d	ff 30		 push	 DWORD PTR [eax]

; 224  : 	char* start() const { return rep_->str; }

  0002f	83 c0 08	 add	 eax, 8

; 120  : 		return assign(copy.start(), copy.length());

  00032	50		 push	 eax
  00033	e8 00 00 00 00	 call	 ?assign@TiXmlString@@QAEAAV1@PBDI@Z ; TiXmlString::assign

; 150  : 	size_type length () const { return rep_->size; }

  00038	8b 46 14	 mov	 eax, DWORD PTR [esi+20]
  0003b	8d 4f 14	 lea	 ecx, DWORD PTR [edi+20]

; 120  : 		return assign(copy.start(), copy.length());

  0003e	ff 30		 push	 DWORD PTR [eax]

; 224  : 	char* start() const { return rep_->str; }

  00040	83 c0 08	 add	 eax, 8

; 120  : 		return assign(copy.start(), copy.length());

  00043	50		 push	 eax
  00044	e8 00 00 00 00	 call	 ?assign@TiXmlString@@QAEAAV1@PBDI@Z ; TiXmlString::assign
  00049	8b c7		 mov	 eax, edi
  0004b	5f		 pop	 edi
  0004c	5e		 pop	 esi
  0004d	5d		 pop	 ebp
  0004e	c2 04 00	 ret	 4
??4TiXmlPrinter@@QAEAAV0@ABV0@@Z ENDP			; TiXmlPrinter::operator=
_TEXT	ENDS
; Function compile flags: /Ogtp
;	COMDAT ??0TiXmlPrinter@@QAE@$$QAV0@@Z
_TEXT	SEGMENT
_this$ = -16						; size = 4
__$EHRec$ = -12						; size = 12
___that$ = 8						; size = 4
??0TiXmlPrinter@@QAE@$$QAV0@@Z PROC			; TiXmlPrinter::TiXmlPrinter, COMDAT
; _this$ = ecx
  00000	55		 push	 ebp
  00001	8b ec		 mov	 ebp, esp
  00003	6a ff		 push	 -1
  00005	68 00 00 00 00	 push	 __ehhandler$??0TiXmlPrinter@@QAE@$$QAV0@@Z
  0000a	64 a1 00 00 00
	00		 mov	 eax, DWORD PTR fs:0
  00010	50		 push	 eax
  00011	51		 push	 ecx
  00012	56		 push	 esi
  00013	57		 push	 edi
  00014	a1 00 00 00 00	 mov	 eax, DWORD PTR ___security_cookie
  00019	33 c5		 xor	 eax, ebp
  0001b	50		 push	 eax
  0001c	8d 45 f4	 lea	 eax, DWORD PTR __$EHRec$[ebp]
  0001f	64 a3 00 00 00
	00		 mov	 DWORD PTR fs:0, eax
  00025	8b f9		 mov	 edi, ecx
  00027	89 7d f0	 mov	 DWORD PTR _this$[ebp], edi
  0002a	8b 75 08	 mov	 esi, DWORD PTR ___that$[ebp]
  0002d	8d 4f 0c	 lea	 ecx, DWORD PTR [edi+12]
  00030	c7 07 00 00 00
	00		 mov	 DWORD PTR [edi], OFFSET ??_7TiXmlPrinter@@6B@
  00036	c7 45 fc 00 00
	00 00		 mov	 DWORD PTR __$EHRec$[ebp+8], 0
  0003d	8b 46 04	 mov	 eax, DWORD PTR [esi+4]
  00040	89 47 04	 mov	 DWORD PTR [edi+4], eax
  00043	8a 46 08	 mov	 al, BYTE PTR [esi+8]
  00046	88 47 08	 mov	 BYTE PTR [edi+8], al
  00049	8d 46 0c	 lea	 eax, DWORD PTR [esi+12]
  0004c	50		 push	 eax
  0004d	e8 00 00 00 00	 call	 ??0TiXmlString@@QAE@ABV0@@Z ; TiXmlString::TiXmlString
  00052	8d 46 10	 lea	 eax, DWORD PTR [esi+16]
  00055	c6 45 fc 01	 mov	 BYTE PTR __$EHRec$[ebp+8], 1
  00059	50		 push	 eax
  0005a	8d 4f 10	 lea	 ecx, DWORD PTR [edi+16]
  0005d	e8 00 00 00 00	 call	 ??0TiXmlString@@QAE@ABV0@@Z ; TiXmlString::TiXmlString
  00062	8d 46 14	 lea	 eax, DWORD PTR [esi+20]
  00065	c6 45 fc 02	 mov	 BYTE PTR __$EHRec$[ebp+8], 2
  00069	50		 push	 eax
  0006a	8d 4f 14	 lea	 ecx, DWORD PTR [edi+20]
  0006d	e8 00 00 00 00	 call	 ??0TiXmlString@@QAE@ABV0@@Z ; TiXmlString::TiXmlString
  00072	8b c7		 mov	 eax, edi
  00074	8b 4d f4	 mov	 ecx, DWORD PTR __$EHRec$[ebp]
  00077	64 89 0d 00 00
	00 00		 mov	 DWORD PTR fs:0, ecx
  0007e	59		 pop	 ecx
  0007f	5f		 pop	 edi
  00080	5e		 pop	 esi
  00081	8b e5		 mov	 esp, ebp
  00083	5d		 pop	 ebp
  00084	c2 04 00	 ret	 4
_TEXT	ENDS
;	COMDAT text$x
text$x	SEGMENT
__unwindfunclet$??0TiXmlPrinter@@QAE@$$QAV0@@Z$0:
  00000	8b 4d f0	 mov	 ecx, DWORD PTR _this$[ebp]
  00003	e9 00 00 00 00	 jmp	 ??1TiXmlVisitor@@UAE@XZ	; TiXmlVisitor::~TiXmlVisitor
__unwindfunclet$??0TiXmlPrinter@@QAE@$$QAV0@@Z$1:
  00008	8b 4d f0	 mov	 ecx, DWORD PTR _this$[ebp]
  0000b	83 c1 0c	 add	 ecx, 12			; 0000000cH
  0000e	e9 00 00 00 00	 jmp	 ??1TiXmlString@@QAE@XZ	; TiXmlString::~TiXmlString
__unwindfunclet$??0TiXmlPrinter@@QAE@$$QAV0@@Z$2:
  00013	8b 4d f0	 mov	 ecx, DWORD PTR _this$[ebp]
  00016	83 c1 10	 add	 ecx, 16			; 00000010H
  00019	e9 00 00 00 00	 jmp	 ??1TiXmlString@@QAE@XZ	; TiXmlString::~TiXmlString
  0001e	cc		 int	 3
  0001f	cc		 int	 3
  00020	cc		 int	 3
  00021	cc		 int	 3
  00022	cc		 int	 3
__ehhandler$??0TiXmlPrinter@@QAE@$$QAV0@@Z:
  00023	90		 npad	 1
  00024	90		 npad	 1
  00025	8b 54 24 08	 mov	 edx, DWORD PTR [esp+8]
  00029	8d 42 0c	 lea	 eax, DWORD PTR [edx+12]
  0002c	8b 4a f0	 mov	 ecx, DWORD PTR [edx-16]
  0002f	33 c8		 xor	 ecx, eax
  00031	e8 00 00 00 00	 call	 @__security_check_cookie@4
  00036	b8 00 00 00 00	 mov	 eax, OFFSET __ehfuncinfo$??0TiXmlPrinter@@QAE@$$QAV0@@Z
  0003b	e9 00 00 00 00	 jmp	 ___CxxFrameHandler3
text$x	ENDS
??0TiXmlPrinter@@QAE@$$QAV0@@Z ENDP			; TiXmlPrinter::TiXmlPrinter
; Function compile flags: /Ogtp
;	COMDAT ??0TiXmlPrinter@@QAE@ABV0@@Z
_TEXT	SEGMENT
_this$ = -16						; size = 4
__$EHRec$ = -12						; size = 12
___that$ = 8						; size = 4
??0TiXmlPrinter@@QAE@ABV0@@Z PROC			; TiXmlPrinter::TiXmlPrinter, COMDAT
; _this$ = ecx
  00000	55		 push	 ebp
  00001	8b ec		 mov	 ebp, esp
  00003	6a ff		 push	 -1
  00005	68 00 00 00 00	 push	 __ehhandler$??0TiXmlPrinter@@QAE@ABV0@@Z
  0000a	64 a1 00 00 00
	00		 mov	 eax, DWORD PTR fs:0
  00010	50		 push	 eax
  00011	51		 push	 ecx
  00012	56		 push	 esi
  00013	57		 push	 edi
  00014	a1 00 00 00 00	 mov	 eax, DWORD PTR ___security_cookie
  00019	33 c5		 xor	 eax, ebp
  0001b	50		 push	 eax
  0001c	8d 45 f4	 lea	 eax, DWORD PTR __$EHRec$[ebp]
  0001f	64 a3 00 00 00
	00		 mov	 DWORD PTR fs:0, eax
  00025	8b f9		 mov	 edi, ecx
  00027	89 7d f0	 mov	 DWORD PTR _this$[ebp], edi
  0002a	8b 75 08	 mov	 esi, DWORD PTR ___that$[ebp]
  0002d	8d 4f 0c	 lea	 ecx, DWORD PTR [edi+12]
  00030	c7 07 00 00 00
	00		 mov	 DWORD PTR [edi], OFFSET ??_7TiXmlPrinter@@6B@
  00036	c7 45 fc 00 00
	00 00		 mov	 DWORD PTR __$EHRec$[ebp+8], 0
  0003d	8b 46 04	 mov	 eax, DWORD PTR [esi+4]
  00040	89 47 04	 mov	 DWORD PTR [edi+4], eax
  00043	8a 46 08	 mov	 al, BYTE PTR [esi+8]
  00046	88 47 08	 mov	 BYTE PTR [edi+8], al
  00049	8d 46 0c	 lea	 eax, DWORD PTR [esi+12]
  0004c	50		 push	 eax
  0004d	e8 00 00 00 00	 call	 ??0TiXmlString@@QAE@ABV0@@Z ; TiXmlString::TiXmlString
  00052	8d 46 10	 lea	 eax, DWORD PTR [esi+16]
  00055	c6 45 fc 01	 mov	 BYTE PTR __$EHRec$[ebp+8], 1
  00059	50		 push	 eax
  0005a	8d 4f 10	 lea	 ecx, DWORD PTR [edi+16]
  0005d	e8 00 00 00 00	 call	 ??0TiXmlString@@QAE@ABV0@@Z ; TiXmlString::TiXmlString
  00062	8d 46 14	 lea	 eax, DWORD PTR [esi+20]
  00065	c6 45 fc 02	 mov	 BYTE PTR __$EHRec$[ebp+8], 2
  00069	50		 push	 eax
  0006a	8d 4f 14	 lea	 ecx, DWORD PTR [edi+20]
  0006d	e8 00 00 00 00	 call	 ??0TiXmlString@@QAE@ABV0@@Z ; TiXmlString::TiXmlString
  00072	8b c7		 mov	 eax, edi
  00074	8b 4d f4	 mov	 ecx, DWORD PTR __$EHRec$[ebp]
  00077	64 89 0d 00 00
	00 00		 mov	 DWORD PTR fs:0, ecx
  0007e	59		 pop	 ecx
  0007f	5f		 pop	 edi
  00080	5e		 pop	 esi
  00081	8b e5		 mov	 esp, ebp
  00083	5d		 pop	 ebp
  00084	c2 04 00	 ret	 4
_TEXT	ENDS
;	COMDAT text$x
text$x	SEGMENT
__unwindfunclet$??0TiXmlPrinter@@QAE@ABV0@@Z$0:
  00000	8b 4d f0	 mov	 ecx, DWORD PTR _this$[ebp]
  00003	e9 00 00 00 00	 jmp	 ??1TiXmlVisitor@@UAE@XZ	; TiXmlVisitor::~TiXmlVisitor
__unwindfunclet$??0TiXmlPrinter@@QAE@ABV0@@Z$1:
  00008	8b 4d f0	 mov	 ecx, DWORD PTR _this$[ebp]
  0000b	83 c1 0c	 add	 ecx, 12			; 0000000cH
  0000e	e9 00 00 00 00	 jmp	 ??1TiXmlString@@QAE@XZ	; TiXmlString::~TiXmlString
__unwindfunclet$??0TiXmlPrinter@@QAE@ABV0@@Z$2:
  00013	8b 4d f0	 mov	 ecx, DWORD PTR _this$[ebp]
  00016	83 c1 10	 add	 ecx, 16			; 00000010H
  00019	e9 00 00 00 00	 jmp	 ??1TiXmlString@@QAE@XZ	; TiXmlString::~TiXmlString
  0001e	cc		 int	 3
  0001f	cc		 int	 3
  00020	cc		 int	 3
  00021	cc		 int	 3
  00022	cc		 int	 3
__ehhandler$??0TiXmlPrinter@@QAE@ABV0@@Z:
  00023	90		 npad	 1
  00024	90		 npad	 1
  00025	8b 54 24 08	 mov	 edx, DWORD PTR [esp+8]
  00029	8d 42 0c	 lea	 eax, DWORD PTR [edx+12]
  0002c	8b 4a f0	 mov	 ecx, DWORD PTR [edx-16]
  0002f	33 c8		 xor	 ecx, eax
  00031	e8 00 00 00 00	 call	 @__security_check_cookie@4
  00036	b8 00 00 00 00	 mov	 eax, OFFSET __ehfuncinfo$??0TiXmlPrinter@@QAE@ABV0@@Z
  0003b	e9 00 00 00 00	 jmp	 ___CxxFrameHandler3
text$x	ENDS
??0TiXmlPrinter@@QAE@ABV0@@Z ENDP			; TiXmlPrinter::TiXmlPrinter
; Function compile flags: /Ogtp
; File E:\Proyectos\JuegosOnlineproyectos\PB\pbblow\Piercing Blow Remake\i3Server\include\i3Base\tinystr.h
;	COMDAT ??1TiXmlPrinter@@UAE@XZ
_TEXT	SEGMENT
??1TiXmlPrinter@@UAE@XZ PROC				; TiXmlPrinter::~TiXmlPrinter, COMDAT
; _this$ = ecx

; 257  : 		if (rep_ != &nullrep_)

  00000	56		 push	 esi
  00001	8b f1		 mov	 esi, ecx
  00003	8b 46 14	 mov	 eax, DWORD PTR [esi+20]
  00006	3d 00 00 00 00	 cmp	 eax, OFFSET ?nullrep_@TiXmlString@@0URep@1@A ; TiXmlString::nullrep_
  0000b	74 09		 je	 SHORT $LN8@TiXmlPrint

; 258  : 		{
; 259  : 			// The rep_ is really an array of ints. (see the allocator, above).
; 260  : 			// Cast it back before delete, so the compiler won't incorrectly call destructors.
; 261  : 			delete [] ( reinterpret_cast<int*>( rep_ ) );

  0000d	50		 push	 eax
  0000e	e8 00 00 00 00	 call	 ??_V@YAXPAX@Z		; operator delete[]
  00013	83 c4 04	 add	 esp, 4
$LN8@TiXmlPrint:

; 257  : 		if (rep_ != &nullrep_)

  00016	8b 46 10	 mov	 eax, DWORD PTR [esi+16]
  00019	3d 00 00 00 00	 cmp	 eax, OFFSET ?nullrep_@TiXmlString@@0URep@1@A ; TiXmlString::nullrep_
  0001e	74 09		 je	 SHORT $LN14@TiXmlPrint

; 258  : 		{
; 259  : 			// The rep_ is really an array of ints. (see the allocator, above).
; 260  : 			// Cast it back before delete, so the compiler won't incorrectly call destructors.
; 261  : 			delete [] ( reinterpret_cast<int*>( rep_ ) );

  00020	50		 push	 eax
  00021	e8 00 00 00 00	 call	 ??_V@YAXPAX@Z		; operator delete[]
  00026	83 c4 04	 add	 esp, 4
$LN14@TiXmlPrint:

; 257  : 		if (rep_ != &nullrep_)

  00029	8b 46 0c	 mov	 eax, DWORD PTR [esi+12]
  0002c	3d 00 00 00 00	 cmp	 eax, OFFSET ?nullrep_@TiXmlString@@0URep@1@A ; TiXmlString::nullrep_
  00031	74 09		 je	 SHORT $LN22@TiXmlPrint

; 258  : 		{
; 259  : 			// The rep_ is really an array of ints. (see the allocator, above).
; 260  : 			// Cast it back before delete, so the compiler won't incorrectly call destructors.
; 261  : 			delete [] ( reinterpret_cast<int*>( rep_ ) );

  00033	50		 push	 eax
  00034	e8 00 00 00 00	 call	 ??_V@YAXPAX@Z		; operator delete[]
  00039	83 c4 04	 add	 esp, 4
$LN22@TiXmlPrint:
  0003c	c7 06 00 00 00
	00		 mov	 DWORD PTR [esi], OFFSET ??_7TiXmlVisitor@@6B@
  00042	5e		 pop	 esi
  00043	c3		 ret	 0
??1TiXmlPrinter@@UAE@XZ ENDP				; TiXmlPrinter::~TiXmlPrinter
_TEXT	ENDS
; Function compile flags: /Ogtp
; File E:\Proyectos\JuegosOnlineproyectos\PB\pbblow\Piercing Blow Remake\i3Server\include\i3Base\tinyxml.h
; File E:\Proyectos\JuegosOnlineproyectos\PB\pbblow\Piercing Blow Remake\i3Server\include\i3Base\tinystr.h
; File E:\Proyectos\JuegosOnlineproyectos\PB\pbblow\Piercing Blow Remake\i3Server\include\i3Base\tinyxml.h
; File E:\Proyectos\JuegosOnlineproyectos\PB\pbblow\Piercing Blow Remake\i3Server\include\i3Base\tinystr.h
; File E:\Proyectos\JuegosOnlineproyectos\PB\pbblow\Piercing Blow Remake\i3Server\include\i3Base\tinyxml.h
;	COMDAT ?DoLineBreak@TiXmlPrinter@@AAEXXZ
_TEXT	SEGMENT
?DoLineBreak@TiXmlPrinter@@AAEXXZ PROC			; TiXmlPrinter::DoLineBreak, COMDAT
; _this$ = ecx
; File E:\Proyectos\JuegosOnlineproyectos\PB\pbblow\Piercing Blow Remake\i3Server\include\i3Base\tinystr.h

; 150  : 	size_type length () const { return rep_->size; }

  00000	8b 41 14	 mov	 eax, DWORD PTR [ecx+20]
; File E:\Proyectos\JuegosOnlineproyectos\PB\pbblow\Piercing Blow Remake\i3Server\include\i3Base\tinyxml.h

; 1801 : 		buffer += lineBreak;

  00003	83 c1 0c	 add	 ecx, 12			; 0000000cH
; File E:\Proyectos\JuegosOnlineproyectos\PB\pbblow\Piercing Blow Remake\i3Server\include\i3Base\tinystr.h

; 139  : 		return append(suffix.data(), suffix.length());

  00006	ff 30		 push	 DWORD PTR [eax]

; 147  : 	const char * data () const { return rep_->str; }

  00008	83 c0 08	 add	 eax, 8

; 139  : 		return append(suffix.data(), suffix.length());

  0000b	50		 push	 eax
  0000c	e8 00 00 00 00	 call	 ?append@TiXmlString@@QAEAAV1@PBDI@Z ; TiXmlString::append
; File E:\Proyectos\JuegosOnlineproyectos\PB\pbblow\Piercing Blow Remake\i3Server\include\i3Base\tinyxml.h

; 1802 : 	}

  00011	c3		 ret	 0
?DoLineBreak@TiXmlPrinter@@AAEXXZ ENDP			; TiXmlPrinter::DoLineBreak
_TEXT	ENDS
; Function compile flags: /Ogtp
; File E:\Proyectos\JuegosOnlineproyectos\PB\pbblow\Piercing Blow Remake\i3Server\include\i3Base\tinyxml.h
; File E:\Proyectos\JuegosOnlineproyectos\PB\pbblow\Piercing Blow Remake\i3Server\include\i3Base\tinystr.h
; File E:\Proyectos\JuegosOnlineproyectos\PB\pbblow\Piercing Blow Remake\i3Server\include\i3Base\tinyxml.h
;	COMDAT ?DoIndent@TiXmlPrinter@@AAEXXZ
_TEXT	SEGMENT
?DoIndent@TiXmlPrinter@@AAEXXZ PROC			; TiXmlPrinter::DoIndent, COMDAT
; _this$ = ecx

; 1796 : 	void DoIndent()	{

  00000	56		 push	 esi
  00001	57		 push	 edi
  00002	8b f9		 mov	 edi, ecx

; 1797 : 		for( int i=0; i<depth; ++i )

  00004	33 f6		 xor	 esi, esi
  00006	39 77 04	 cmp	 DWORD PTR [edi+4], esi
  00009	7e 1d		 jle	 SHORT $LN3@DoIndent
  0000b	53		 push	 ebx
  0000c	8d 64 24 00	 npad	 4
$LL4@DoIndent:
; File E:\Proyectos\JuegosOnlineproyectos\PB\pbblow\Piercing Blow Remake\i3Server\include\i3Base\tinystr.h

; 150  : 	size_type length () const { return rep_->size; }

  00010	8b 47 10	 mov	 eax, DWORD PTR [edi+16]

; 139  : 		return append(suffix.data(), suffix.length());

  00013	8d 4f 0c	 lea	 ecx, DWORD PTR [edi+12]
  00016	ff 30		 push	 DWORD PTR [eax]

; 147  : 	const char * data () const { return rep_->str; }

  00018	83 c0 08	 add	 eax, 8

; 139  : 		return append(suffix.data(), suffix.length());

  0001b	50		 push	 eax
  0001c	e8 00 00 00 00	 call	 ?append@TiXmlString@@QAEAAV1@PBDI@Z ; TiXmlString::append
; File E:\Proyectos\JuegosOnlineproyectos\PB\pbblow\Piercing Blow Remake\i3Server\include\i3Base\tinyxml.h

; 1797 : 		for( int i=0; i<depth; ++i )

  00021	46		 inc	 esi
  00022	3b 77 04	 cmp	 esi, DWORD PTR [edi+4]
  00025	7c e9		 jl	 SHORT $LL4@DoIndent
  00027	5b		 pop	 ebx
$LN3@DoIndent:
  00028	5f		 pop	 edi

; 1798 : 			buffer += indent;
; 1799 : 	}

  00029	5e		 pop	 esi
  0002a	c3		 ret	 0
?DoIndent@TiXmlPrinter@@AAEXXZ ENDP			; TiXmlPrinter::DoIndent
_TEXT	ENDS
; Function compile flags: /Ogtp
; File E:\Proyectos\JuegosOnlineproyectos\PB\pbblow\Piercing Blow Remake\i3Server\include\i3Base\tinyxml.h
; File E:\Proyectos\JuegosOnlineproyectos\PB\pbblow\Piercing Blow Remake\i3Server\include\i3Base\tinystr.h
; File E:\Proyectos\JuegosOnlineproyectos\PB\pbblow\Piercing Blow Remake\i3Server\include\i3Base\tinyxml.h
;	COMDAT ?Size@TiXmlPrinter@@QAEIXZ
_TEXT	SEGMENT
?Size@TiXmlPrinter@@QAEIXZ PROC				; TiXmlPrinter::Size, COMDAT
; _this$ = ecx
; File E:\Proyectos\JuegosOnlineproyectos\PB\pbblow\Piercing Blow Remake\i3Server\include\i3Base\tinystr.h

; 153  : 	size_type size () const { return rep_->size; }

  00000	8b 41 0c	 mov	 eax, DWORD PTR [ecx+12]
; File E:\Proyectos\JuegosOnlineproyectos\PB\pbblow\Piercing Blow Remake\i3Server\include\i3Base\tinyxml.h

; 1788 : 	size_t Size()									{ return buffer.size(); }

  00003	8b 00		 mov	 eax, DWORD PTR [eax]
  00005	c3		 ret	 0
?Size@TiXmlPrinter@@QAEIXZ ENDP				; TiXmlPrinter::Size
_TEXT	ENDS
; Function compile flags: /Ogtp
; File E:\Proyectos\JuegosOnlineproyectos\PB\pbblow\Piercing Blow Remake\i3Server\include\i3Base\tinyxml.h
; File E:\Proyectos\JuegosOnlineproyectos\PB\pbblow\Piercing Blow Remake\i3Server\include\i3Base\tinystr.h
; File E:\Proyectos\JuegosOnlineproyectos\PB\pbblow\Piercing Blow Remake\i3Server\include\i3Base\tinyxml.h
;	COMDAT ?CStr@TiXmlPrinter@@QAEPBDXZ
_TEXT	SEGMENT
?CStr@TiXmlPrinter@@QAEPBDXZ PROC			; TiXmlPrinter::CStr, COMDAT
; _this$ = ecx
; File E:\Proyectos\JuegosOnlineproyectos\PB\pbblow\Piercing Blow Remake\i3Server\include\i3Base\tinystr.h

; 144  : 	const char * c_str () const { return rep_->str; }

  00000	8b 41 0c	 mov	 eax, DWORD PTR [ecx+12]
  00003	83 c0 08	 add	 eax, 8
; File E:\Proyectos\JuegosOnlineproyectos\PB\pbblow\Piercing Blow Remake\i3Server\include\i3Base\tinyxml.h

; 1786 : 	const char* CStr()								{ return buffer.c_str(); }

  00006	c3		 ret	 0
?CStr@TiXmlPrinter@@QAEPBDXZ ENDP			; TiXmlPrinter::CStr
_TEXT	ENDS
; Function compile flags: /Ogtp
; File E:\Proyectos\JuegosOnlineproyectos\PB\pbblow\Piercing Blow Remake\i3Server\include\i3Base\tinyxml.h
; File E:\Proyectos\JuegosOnlineproyectos\PB\pbblow\Piercing Blow Remake\i3Server\include\i3Base\tinystr.h
; File E:\Proyectos\JuegosOnlineproyectos\PB\pbblow\Piercing Blow Remake\i3Server\include\i3Base\tinyxml.h
; File E:\Proyectos\JuegosOnlineproyectos\PB\pbblow\Piercing Blow Remake\i3Server\include\i3Base\tinystr.h
; File E:\Proyectos\JuegosOnlineproyectos\PB\pbblow\Piercing Blow Remake\i3Server\include\i3Base\tinyxml.h
; File E:\Proyectos\JuegosOnlineproyectos\PB\pbblow\Piercing Blow Remake\i3Server\include\i3Base\tinystr.h
; File E:\Proyectos\JuegosOnlineproyectos\PB\pbblow\Piercing Blow Remake\i3Server\include\i3Base\tinyxml.h
;	COMDAT ?SetStreamPrinting@TiXmlPrinter@@QAEXXZ
_TEXT	SEGMENT
?SetStreamPrinting@TiXmlPrinter@@QAEXXZ PROC		; TiXmlPrinter::SetStreamPrinting, COMDAT
; _this$ = ecx

; 1782 : 	void SetStreamPrinting()						{ indent = "";

  00000	56		 push	 esi
  00001	8b f1		 mov	 esi, ecx
; File E:\Proyectos\JuegosOnlineproyectos\PB\pbblow\Piercing Blow Remake\i3Server\include\i3Base\tinystr.h

; 114  : 		return assign( copy, (size_type)strlen(copy));

  00003	6a 00		 push	 0
  00005	68 00 00 00 00	 push	 OFFSET ??_C@_00CNPNBAHC@@
; File E:\Proyectos\JuegosOnlineproyectos\PB\pbblow\Piercing Blow Remake\i3Server\include\i3Base\tinyxml.h

; 1782 : 	void SetStreamPrinting()						{ indent = "";

  0000a	8d 4e 10	 lea	 ecx, DWORD PTR [esi+16]
; File E:\Proyectos\JuegosOnlineproyectos\PB\pbblow\Piercing Blow Remake\i3Server\include\i3Base\tinystr.h

; 114  : 		return assign( copy, (size_type)strlen(copy));

  0000d	e8 00 00 00 00	 call	 ?assign@TiXmlString@@QAEAAV1@PBDI@Z ; TiXmlString::assign
  00012	6a 00		 push	 0
  00014	68 00 00 00 00	 push	 OFFSET ??_C@_00CNPNBAHC@@
; File E:\Proyectos\JuegosOnlineproyectos\PB\pbblow\Piercing Blow Remake\i3Server\include\i3Base\tinyxml.h

; 1783 : 													  lineBreak = "";

  00019	8d 4e 14	 lea	 ecx, DWORD PTR [esi+20]
; File E:\Proyectos\JuegosOnlineproyectos\PB\pbblow\Piercing Blow Remake\i3Server\include\i3Base\tinystr.h

; 114  : 		return assign( copy, (size_type)strlen(copy));

  0001c	e8 00 00 00 00	 call	 ?assign@TiXmlString@@QAEAAV1@PBDI@Z ; TiXmlString::assign
  00021	5e		 pop	 esi
; File E:\Proyectos\JuegosOnlineproyectos\PB\pbblow\Piercing Blow Remake\i3Server\include\i3Base\tinyxml.h

; 1784 : 													}	

  00022	c3		 ret	 0
?SetStreamPrinting@TiXmlPrinter@@QAEXXZ ENDP		; TiXmlPrinter::SetStreamPrinting
_TEXT	ENDS
; Function compile flags: /Ogtp
; File E:\Proyectos\JuegosOnlineproyectos\PB\pbblow\Piercing Blow Remake\i3Server\include\i3Base\tinyxml.h
; File E:\Proyectos\JuegosOnlineproyectos\PB\pbblow\Piercing Blow Remake\i3Server\include\i3Base\tinystr.h
; File E:\Proyectos\JuegosOnlineproyectos\PB\pbblow\Piercing Blow Remake\i3Server\include\i3Base\tinyxml.h
;	COMDAT ?LineBreak@TiXmlPrinter@@QAEPBDXZ
_TEXT	SEGMENT
?LineBreak@TiXmlPrinter@@QAEPBDXZ PROC			; TiXmlPrinter::LineBreak, COMDAT
; _this$ = ecx
; File E:\Proyectos\JuegosOnlineproyectos\PB\pbblow\Piercing Blow Remake\i3Server\include\i3Base\tinystr.h

; 144  : 	const char * c_str () const { return rep_->str; }

  00000	8b 41 14	 mov	 eax, DWORD PTR [ecx+20]
  00003	83 c0 08	 add	 eax, 8
; File E:\Proyectos\JuegosOnlineproyectos\PB\pbblow\Piercing Blow Remake\i3Server\include\i3Base\tinyxml.h

; 1777 : 	const char* LineBreak()							{ return lineBreak.c_str(); }

  00006	c3		 ret	 0
?LineBreak@TiXmlPrinter@@QAEPBDXZ ENDP			; TiXmlPrinter::LineBreak
_TEXT	ENDS
; Function compile flags: /Ogtp
; File E:\Proyectos\JuegosOnlineproyectos\PB\pbblow\Piercing Blow Remake\i3Server\include\i3Base\tinyxml.h
; File E:\Proyectos\JuegosOnlineproyectos\PB\pbblow\Piercing Blow Remake\i3Server\include\i3Base\tinystr.h
; File E:\Proyectos\JuegosOnlineproyectos\PB\pbblow\Piercing Blow Remake\i3Server\include\i3Base\tinyxml.h
; File E:\Proyectos\JuegosOnlineproyectos\PB\pbblow\Piercing Blow Remake\i3Server\include\i3Base\tinystr.h
; File E:\Proyectos\JuegosOnlineproyectos\PB\pbblow\Piercing Blow Remake\i3Server\include\i3Base\tinyxml.h
; File E:\Proyectos\JuegosOnlineproyectos\PB\pbblow\Piercing Blow Remake\i3Server\include\i3Base\tinystr.h
; File E:\Proyectos\JuegosOnlineproyectos\PB\pbblow\Piercing Blow Remake\i3Server\include\i3Base\tinyxml.h
;	COMDAT ?SetLineBreak@TiXmlPrinter@@QAEXPBD@Z
_TEXT	SEGMENT
__lineBreak$ = 8					; size = 4
?SetLineBreak@TiXmlPrinter@@QAEXPBD@Z PROC		; TiXmlPrinter::SetLineBreak, COMDAT
; _this$ = ecx

; 1775 : 	void SetLineBreak( const char* _lineBreak )		{ lineBreak = _lineBreak ? _lineBreak : ""; }

  00000	55		 push	 ebp
  00001	8b ec		 mov	 ebp, esp
  00003	8b 45 08	 mov	 eax, DWORD PTR __lineBreak$[ebp]
  00006	ba 00 00 00 00	 mov	 edx, OFFSET ??_C@_00CNPNBAHC@@
  0000b	85 c0		 test	 eax, eax
  0000d	56		 push	 esi
  0000e	0f 45 d0	 cmovne	 edx, eax
  00011	8b f1		 mov	 esi, ecx
; File E:\Proyectos\JuegosOnlineproyectos\PB\pbblow\Piercing Blow Remake\i3Server\include\i3Base\tinystr.h

; 114  : 		return assign( copy, (size_type)strlen(copy));

  00013	8b c2		 mov	 eax, edx
; File E:\Proyectos\JuegosOnlineproyectos\PB\pbblow\Piercing Blow Remake\i3Server\include\i3Base\tinyxml.h

; 1775 : 	void SetLineBreak( const char* _lineBreak )		{ lineBreak = _lineBreak ? _lineBreak : ""; }

  00015	57		 push	 edi
; File E:\Proyectos\JuegosOnlineproyectos\PB\pbblow\Piercing Blow Remake\i3Server\include\i3Base\tinystr.h

; 114  : 		return assign( copy, (size_type)strlen(copy));

  00016	8d 78 01	 lea	 edi, DWORD PTR [eax+1]
  00019	8d a4 24 00 00
	00 00		 npad	 7
$LL5@SetLineBre:
  00020	8a 08		 mov	 cl, BYTE PTR [eax]
  00022	40		 inc	 eax
  00023	84 c9		 test	 cl, cl
  00025	75 f9		 jne	 SHORT $LL5@SetLineBre
  00027	2b c7		 sub	 eax, edi
; File E:\Proyectos\JuegosOnlineproyectos\PB\pbblow\Piercing Blow Remake\i3Server\include\i3Base\tinyxml.h

; 1775 : 	void SetLineBreak( const char* _lineBreak )		{ lineBreak = _lineBreak ? _lineBreak : ""; }

  00029	8d 4e 14	 lea	 ecx, DWORD PTR [esi+20]
; File E:\Proyectos\JuegosOnlineproyectos\PB\pbblow\Piercing Blow Remake\i3Server\include\i3Base\tinystr.h

; 114  : 		return assign( copy, (size_type)strlen(copy));

  0002c	50		 push	 eax
  0002d	52		 push	 edx
  0002e	e8 00 00 00 00	 call	 ?assign@TiXmlString@@QAEAAV1@PBDI@Z ; TiXmlString::assign
  00033	5f		 pop	 edi
  00034	5e		 pop	 esi
; File E:\Proyectos\JuegosOnlineproyectos\PB\pbblow\Piercing Blow Remake\i3Server\include\i3Base\tinyxml.h

; 1775 : 	void SetLineBreak( const char* _lineBreak )		{ lineBreak = _lineBreak ? _lineBreak : ""; }

  00035	5d		 pop	 ebp
  00036	c2 04 00	 ret	 4
?SetLineBreak@TiXmlPrinter@@QAEXPBD@Z ENDP		; TiXmlPrinter::SetLineBreak
_TEXT	ENDS
; Function compile flags: /Ogtp
; File E:\Proyectos\JuegosOnlineproyectos\PB\pbblow\Piercing Blow Remake\i3Server\include\i3Base\tinyxml.h
; File E:\Proyectos\JuegosOnlineproyectos\PB\pbblow\Piercing Blow Remake\i3Server\include\i3Base\tinystr.h
; File E:\Proyectos\JuegosOnlineproyectos\PB\pbblow\Piercing Blow Remake\i3Server\include\i3Base\tinyxml.h
;	COMDAT ?Indent@TiXmlPrinter@@QAEPBDXZ
_TEXT	SEGMENT
?Indent@TiXmlPrinter@@QAEPBDXZ PROC			; TiXmlPrinter::Indent, COMDAT
; _this$ = ecx
; File E:\Proyectos\JuegosOnlineproyectos\PB\pbblow\Piercing Blow Remake\i3Server\include\i3Base\tinystr.h

; 144  : 	const char * c_str () const { return rep_->str; }

  00000	8b 41 10	 mov	 eax, DWORD PTR [ecx+16]
  00003	83 c0 08	 add	 eax, 8
; File E:\Proyectos\JuegosOnlineproyectos\PB\pbblow\Piercing Blow Remake\i3Server\include\i3Base\tinyxml.h

; 1770 : 	const char* Indent()							{ return indent.c_str(); }

  00006	c3		 ret	 0
?Indent@TiXmlPrinter@@QAEPBDXZ ENDP			; TiXmlPrinter::Indent
_TEXT	ENDS
; Function compile flags: /Ogtp
; File E:\Proyectos\JuegosOnlineproyectos\PB\pbblow\Piercing Blow Remake\i3Server\include\i3Base\tinyxml.h
; File E:\Proyectos\JuegosOnlineproyectos\PB\pbblow\Piercing Blow Remake\i3Server\include\i3Base\tinystr.h
; File E:\Proyectos\JuegosOnlineproyectos\PB\pbblow\Piercing Blow Remake\i3Server\include\i3Base\tinyxml.h
; File E:\Proyectos\JuegosOnlineproyectos\PB\pbblow\Piercing Blow Remake\i3Server\include\i3Base\tinystr.h
; File E:\Proyectos\JuegosOnlineproyectos\PB\pbblow\Piercing Blow Remake\i3Server\include\i3Base\tinyxml.h
; File E:\Proyectos\JuegosOnlineproyectos\PB\pbblow\Piercing Blow Remake\i3Server\include\i3Base\tinystr.h
; File E:\Proyectos\JuegosOnlineproyectos\PB\pbblow\Piercing Blow Remake\i3Server\include\i3Base\tinyxml.h
;	COMDAT ?SetIndent@TiXmlPrinter@@QAEXPBD@Z
_TEXT	SEGMENT
__indent$ = 8						; size = 4
?SetIndent@TiXmlPrinter@@QAEXPBD@Z PROC			; TiXmlPrinter::SetIndent, COMDAT
; _this$ = ecx

; 1768 : 	void SetIndent( const char* _indent )			{ indent = _indent ? _indent : "" ; }

  00000	55		 push	 ebp
  00001	8b ec		 mov	 ebp, esp
  00003	8b 45 08	 mov	 eax, DWORD PTR __indent$[ebp]
  00006	ba 00 00 00 00	 mov	 edx, OFFSET ??_C@_00CNPNBAHC@@
  0000b	85 c0		 test	 eax, eax
  0000d	56		 push	 esi
  0000e	0f 45 d0	 cmovne	 edx, eax
  00011	8b f1		 mov	 esi, ecx
; File E:\Proyectos\JuegosOnlineproyectos\PB\pbblow\Piercing Blow Remake\i3Server\include\i3Base\tinystr.h

; 114  : 		return assign( copy, (size_type)strlen(copy));

  00013	8b c2		 mov	 eax, edx
; File E:\Proyectos\JuegosOnlineproyectos\PB\pbblow\Piercing Blow Remake\i3Server\include\i3Base\tinyxml.h

; 1768 : 	void SetIndent( const char* _indent )			{ indent = _indent ? _indent : "" ; }

  00015	57		 push	 edi
; File E:\Proyectos\JuegosOnlineproyectos\PB\pbblow\Piercing Blow Remake\i3Server\include\i3Base\tinystr.h

; 114  : 		return assign( copy, (size_type)strlen(copy));

  00016	8d 78 01	 lea	 edi, DWORD PTR [eax+1]
  00019	8d a4 24 00 00
	00 00		 npad	 7
$LL5@SetIndent:
  00020	8a 08		 mov	 cl, BYTE PTR [eax]
  00022	40		 inc	 eax
  00023	84 c9		 test	 cl, cl
  00025	75 f9		 jne	 SHORT $LL5@SetIndent
  00027	2b c7		 sub	 eax, edi
; File E:\Proyectos\JuegosOnlineproyectos\PB\pbblow\Piercing Blow Remake\i3Server\include\i3Base\tinyxml.h

; 1768 : 	void SetIndent( const char* _indent )			{ indent = _indent ? _indent : "" ; }

  00029	8d 4e 10	 lea	 ecx, DWORD PTR [esi+16]
; File E:\Proyectos\JuegosOnlineproyectos\PB\pbblow\Piercing Blow Remake\i3Server\include\i3Base\tinystr.h

; 114  : 		return assign( copy, (size_type)strlen(copy));

  0002c	50		 push	 eax
  0002d	52		 push	 edx
  0002e	e8 00 00 00 00	 call	 ?assign@TiXmlString@@QAEAAV1@PBDI@Z ; TiXmlString::assign
  00033	5f		 pop	 edi
  00034	5e		 pop	 esi
; File E:\Proyectos\JuegosOnlineproyectos\PB\pbblow\Piercing Blow Remake\i3Server\include\i3Base\tinyxml.h

; 1768 : 	void SetIndent( const char* _indent )			{ indent = _indent ? _indent : "" ; }

  00035	5d		 pop	 ebp
  00036	c2 04 00	 ret	 4
?SetIndent@TiXmlPrinter@@QAEXPBD@Z ENDP			; TiXmlPrinter::SetIndent
_TEXT	ENDS
; Function compile flags: /Ogtp
; File E:\Proyectos\JuegosOnlineproyectos\PB\pbblow\Piercing Blow Remake\i3Server\include\i3Base\tinyxml.h
; File E:\Proyectos\JuegosOnlineproyectos\PB\pbblow\Piercing Blow Remake\i3Server\include\i3Base\tinystr.h
; File E:\Proyectos\JuegosOnlineproyectos\PB\pbblow\Piercing Blow Remake\i3Server\include\i3Base\tinyxml.h
; File E:\Proyectos\JuegosOnlineproyectos\PB\pbblow\Piercing Blow Remake\i3Server\include\i3Base\tinystr.h
; File E:\Proyectos\JuegosOnlineproyectos\PB\pbblow\Piercing Blow Remake\i3Server\include\i3Base\tinyxml.h
; File E:\Proyectos\JuegosOnlineproyectos\PB\pbblow\Piercing Blow Remake\i3Server\include\i3Base\tinystr.h
; File E:\Proyectos\JuegosOnlineproyectos\PB\pbblow\Piercing Blow Remake\i3Server\include\i3Base\tinyxml.h
;	COMDAT ??0TiXmlPrinter@@QAE@XZ
_TEXT	SEGMENT
_this$ = -16						; size = 4
__$EHRec$ = -12						; size = 12
??0TiXmlPrinter@@QAE@XZ PROC				; TiXmlPrinter::TiXmlPrinter, COMDAT
; _this$ = ecx

; 1752 : 					 buffer(), indent( "    " ), lineBreak( "\n" ) {}

  00000	55		 push	 ebp
  00001	8b ec		 mov	 ebp, esp
  00003	6a ff		 push	 -1
  00005	68 00 00 00 00	 push	 __ehhandler$??0TiXmlPrinter@@QAE@XZ
  0000a	64 a1 00 00 00
	00		 mov	 eax, DWORD PTR fs:0
  00010	50		 push	 eax
  00011	51		 push	 ecx
  00012	56		 push	 esi
  00013	a1 00 00 00 00	 mov	 eax, DWORD PTR ___security_cookie
  00018	33 c5		 xor	 eax, ebp
  0001a	50		 push	 eax
  0001b	8d 45 f4	 lea	 eax, DWORD PTR __$EHRec$[ebp]
  0001e	64 a3 00 00 00
	00		 mov	 DWORD PTR fs:0, eax
  00024	8b f1		 mov	 esi, ecx
  00026	89 75 f0	 mov	 DWORD PTR _this$[ebp], esi
  00029	c7 06 00 00 00
	00		 mov	 DWORD PTR [esi], OFFSET ??_7TiXmlPrinter@@6B@
  0002f	c7 46 04 00 00
	00 00		 mov	 DWORD PTR [esi+4], 0
  00036	c6 46 08 00	 mov	 BYTE PTR [esi+8], 0
  0003a	c7 45 fc 00 00
	00 00		 mov	 DWORD PTR __$EHRec$[ebp+8], 0
; File E:\Proyectos\JuegosOnlineproyectos\PB\pbblow\Piercing Blow Remake\i3Server\include\i3Base\tinystr.h

; 80   : 	TiXmlString () : rep_(&nullrep_)

  00041	c7 46 0c 00 00
	00 00		 mov	 DWORD PTR [esi+12], OFFSET ?nullrep_@TiXmlString@@0URep@1@A ; TiXmlString::nullrep_

; 244  : 			rep_ = reinterpret_cast<Rep*>( new int[ intsNeeded ] );

  00048	6a 10		 push	 16			; 00000010H
; File E:\Proyectos\JuegosOnlineproyectos\PB\pbblow\Piercing Blow Remake\i3Server\include\i3Base\tinyxml.h

; 1752 : 					 buffer(), indent( "    " ), lineBreak( "\n" ) {}

  0004a	c6 45 fc 01	 mov	 BYTE PTR __$EHRec$[ebp+8], 1
; File E:\Proyectos\JuegosOnlineproyectos\PB\pbblow\Piercing Blow Remake\i3Server\include\i3Base\tinystr.h

; 92   : 	TIXML_EXPLICIT TiXmlString ( const char * copy) : rep_(0)

  0004e	c7 46 10 00 00
	00 00		 mov	 DWORD PTR [esi+16], 0

; 244  : 			rep_ = reinterpret_cast<Rep*>( new int[ intsNeeded ] );

  00055	e8 00 00 00 00	 call	 ??_U@YAPAXI@Z		; operator new[]
  0005a	89 46 10	 mov	 DWORD PTR [esi+16], eax

; 245  : 
; 246  : 			rep_->str[ rep_->size = sz ] = '\0';

  0005d	c7 00 04 00 00
	00		 mov	 DWORD PTR [eax], 4
  00063	8b 46 10	 mov	 eax, DWORD PTR [esi+16]
  00066	c6 40 0c 00	 mov	 BYTE PTR [eax+12], 0

; 247  : 			rep_->capacity = cap;

  0006a	8b 46 10	 mov	 eax, DWORD PTR [esi+16]
  0006d	c7 40 04 04 00
	00 00		 mov	 DWORD PTR [eax+4], 4

; 150  : 	size_type length () const { return rep_->size; }

  00074	8b 46 10	 mov	 eax, DWORD PTR [esi+16]

; 95   : 		memcpy(start(), copy, length());

  00077	ff 30		 push	 DWORD PTR [eax]

; 224  : 	char* start() const { return rep_->str; }

  00079	83 c0 08	 add	 eax, 8

; 95   : 		memcpy(start(), copy, length());

  0007c	68 00 00 00 00	 push	 OFFSET ??_C@_04PFOHOKJK@?5?5?5?5@
  00081	50		 push	 eax
  00082	e8 00 00 00 00	 call	 _memcpy

; 244  : 			rep_ = reinterpret_cast<Rep*>( new int[ intsNeeded ] );

  00087	6a 10		 push	 16			; 00000010H
; File E:\Proyectos\JuegosOnlineproyectos\PB\pbblow\Piercing Blow Remake\i3Server\include\i3Base\tinyxml.h

; 1752 : 					 buffer(), indent( "    " ), lineBreak( "\n" ) {}

  00089	c6 45 fc 02	 mov	 BYTE PTR __$EHRec$[ebp+8], 2
; File E:\Proyectos\JuegosOnlineproyectos\PB\pbblow\Piercing Blow Remake\i3Server\include\i3Base\tinystr.h

; 92   : 	TIXML_EXPLICIT TiXmlString ( const char * copy) : rep_(0)

  0008d	c7 46 14 00 00
	00 00		 mov	 DWORD PTR [esi+20], 0

; 244  : 			rep_ = reinterpret_cast<Rep*>( new int[ intsNeeded ] );

  00094	e8 00 00 00 00	 call	 ??_U@YAPAXI@Z		; operator new[]
  00099	89 46 14	 mov	 DWORD PTR [esi+20], eax

; 245  : 
; 246  : 			rep_->str[ rep_->size = sz ] = '\0';

  0009c	c7 00 01 00 00
	00		 mov	 DWORD PTR [eax], 1
  000a2	8b 46 14	 mov	 eax, DWORD PTR [esi+20]
  000a5	c6 40 09 00	 mov	 BYTE PTR [eax+9], 0

; 247  : 			rep_->capacity = cap;

  000a9	8b 46 14	 mov	 eax, DWORD PTR [esi+20]
  000ac	c7 40 04 01 00
	00 00		 mov	 DWORD PTR [eax+4], 1

; 150  : 	size_type length () const { return rep_->size; }

  000b3	8b 46 14	 mov	 eax, DWORD PTR [esi+20]

; 95   : 		memcpy(start(), copy, length());

  000b6	ff 30		 push	 DWORD PTR [eax]

; 224  : 	char* start() const { return rep_->str; }

  000b8	83 c0 08	 add	 eax, 8

; 95   : 		memcpy(start(), copy, length());

  000bb	68 00 00 00 00	 push	 OFFSET ??_C@_01EEMJAFIK@?6@
  000c0	50		 push	 eax
  000c1	e8 00 00 00 00	 call	 _memcpy
  000c6	83 c4 20	 add	 esp, 32			; 00000020H
; File E:\Proyectos\JuegosOnlineproyectos\PB\pbblow\Piercing Blow Remake\i3Server\include\i3Base\tinyxml.h

; 1752 : 					 buffer(), indent( "    " ), lineBreak( "\n" ) {}

  000c9	8b c6		 mov	 eax, esi
  000cb	8b 4d f4	 mov	 ecx, DWORD PTR __$EHRec$[ebp]
  000ce	64 89 0d 00 00
	00 00		 mov	 DWORD PTR fs:0, ecx
  000d5	59		 pop	 ecx
  000d6	5e		 pop	 esi
  000d7	8b e5		 mov	 esp, ebp
  000d9	5d		 pop	 ebp
  000da	c3		 ret	 0
_TEXT	ENDS
;	COMDAT text$x
text$x	SEGMENT
__unwindfunclet$??0TiXmlPrinter@@QAE@XZ$0:
  00000	8b 4d f0	 mov	 ecx, DWORD PTR _this$[ebp]
  00003	e9 00 00 00 00	 jmp	 ??1TiXmlVisitor@@UAE@XZ	; TiXmlVisitor::~TiXmlVisitor
__unwindfunclet$??0TiXmlPrinter@@QAE@XZ$1:
  00008	8b 4d f0	 mov	 ecx, DWORD PTR _this$[ebp]
  0000b	83 c1 0c	 add	 ecx, 12			; 0000000cH
  0000e	e9 00 00 00 00	 jmp	 ??1TiXmlString@@QAE@XZ	; TiXmlString::~TiXmlString
__unwindfunclet$??0TiXmlPrinter@@QAE@XZ$2:
  00013	8b 4d f0	 mov	 ecx, DWORD PTR _this$[ebp]
  00016	83 c1 10	 add	 ecx, 16			; 00000010H
  00019	e9 00 00 00 00	 jmp	 ??1TiXmlString@@QAE@XZ	; TiXmlString::~TiXmlString
  0001e	cc		 int	 3
  0001f	cc		 int	 3
  00020	cc		 int	 3
  00021	cc		 int	 3
  00022	cc		 int	 3
__ehhandler$??0TiXmlPrinter@@QAE@XZ:
  00023	90		 npad	 1
  00024	90		 npad	 1
  00025	8b 54 24 08	 mov	 edx, DWORD PTR [esp+8]
  00029	8d 42 0c	 lea	 eax, DWORD PTR [edx+12]
  0002c	8b 4a f4	 mov	 ecx, DWORD PTR [edx-12]
  0002f	33 c8		 xor	 ecx, eax
  00031	e8 00 00 00 00	 call	 @__security_check_cookie@4
  00036	b8 00 00 00 00	 mov	 eax, OFFSET __ehfuncinfo$??0TiXmlPrinter@@QAE@XZ
  0003b	e9 00 00 00 00	 jmp	 ___CxxFrameHandler3
text$x	ENDS
??0TiXmlPrinter@@QAE@XZ ENDP				; TiXmlPrinter::TiXmlPrinter
; Function compile flags: /Ogtp
; File E:\Proyectos\JuegosOnlineproyectos\PB\pbblow\Piercing Blow Remake\i3Server\include\i3Base\tinyxml.h
;	COMDAT ?Unknown@TiXmlHandle@@QBEPAVTiXmlUnknown@@XZ
_TEXT	SEGMENT
?Unknown@TiXmlHandle@@QBEPAVTiXmlUnknown@@XZ PROC	; TiXmlHandle::Unknown, COMDAT
; _this$ = ecx

; 1722 : 	TiXmlUnknown* Unknown() const	{ return ToUnknown(); }

  00000	56		 push	 esi
  00001	8b f1		 mov	 esi, ecx

; 1705 : 	TiXmlUnknown* ToUnknown() const		{ return ( ( node && node->ToUnknown() ) ? node->ToUnknown() : 0 ); }

  00003	8b 0e		 mov	 ecx, DWORD PTR [esi]
  00005	85 c9		 test	 ecx, ecx
  00007	74 11		 je	 SHORT $LN5@Unknown
  00009	8b 01		 mov	 eax, DWORD PTR [ecx]
  0000b	ff 50 24	 call	 DWORD PTR [eax+36]
  0000e	85 c0		 test	 eax, eax
  00010	74 08		 je	 SHORT $LN5@Unknown
  00012	8b 0e		 mov	 ecx, DWORD PTR [esi]
  00014	5e		 pop	 esi
  00015	8b 01		 mov	 eax, DWORD PTR [ecx]
  00017	ff 60 24	 jmp	 DWORD PTR [eax+36]
$LN5@Unknown:

; 1722 : 	TiXmlUnknown* Unknown() const	{ return ToUnknown(); }

  0001a	33 c0		 xor	 eax, eax
  0001c	5e		 pop	 esi
  0001d	c3		 ret	 0
?Unknown@TiXmlHandle@@QBEPAVTiXmlUnknown@@XZ ENDP	; TiXmlHandle::Unknown
_TEXT	ENDS
; Function compile flags: /Ogtp
; File E:\Proyectos\JuegosOnlineproyectos\PB\pbblow\Piercing Blow Remake\i3Server\include\i3Base\tinyxml.h
;	COMDAT ?Text@TiXmlHandle@@QBEPAVTiXmlText@@XZ
_TEXT	SEGMENT
?Text@TiXmlHandle@@QBEPAVTiXmlText@@XZ PROC		; TiXmlHandle::Text, COMDAT
; _this$ = ecx

; 1718 : 	TiXmlText* Text() const			{ return ToText(); }

  00000	56		 push	 esi
  00001	8b f1		 mov	 esi, ecx

; 1702 : 	TiXmlText* ToText() const			{ return ( ( node && node->ToText() ) ? node->ToText() : 0 ); }

  00003	8b 0e		 mov	 ecx, DWORD PTR [esi]
  00005	85 c9		 test	 ecx, ecx
  00007	74 11		 je	 SHORT $LN5@Text
  00009	8b 01		 mov	 eax, DWORD PTR [ecx]
  0000b	ff 50 2c	 call	 DWORD PTR [eax+44]
  0000e	85 c0		 test	 eax, eax
  00010	74 08		 je	 SHORT $LN5@Text
  00012	8b 0e		 mov	 ecx, DWORD PTR [esi]
  00014	5e		 pop	 esi
  00015	8b 01		 mov	 eax, DWORD PTR [ecx]
  00017	ff 60 2c	 jmp	 DWORD PTR [eax+44]
$LN5@Text:

; 1718 : 	TiXmlText* Text() const			{ return ToText(); }

  0001a	33 c0		 xor	 eax, eax
  0001c	5e		 pop	 esi
  0001d	c3		 ret	 0
?Text@TiXmlHandle@@QBEPAVTiXmlText@@XZ ENDP		; TiXmlHandle::Text
_TEXT	ENDS
; Function compile flags: /Ogtp
; File E:\Proyectos\JuegosOnlineproyectos\PB\pbblow\Piercing Blow Remake\i3Server\include\i3Base\tinyxml.h
;	COMDAT ?Element@TiXmlHandle@@QBEPAVTiXmlElement@@XZ
_TEXT	SEGMENT
?Element@TiXmlHandle@@QBEPAVTiXmlElement@@XZ PROC	; TiXmlHandle::Element, COMDAT
; _this$ = ecx

; 1714 : 	TiXmlElement* Element() const	{ return ToElement(); }

  00000	56		 push	 esi
  00001	8b f1		 mov	 esi, ecx

; 1699 : 	TiXmlElement* ToElement() const		{ return ( ( node && node->ToElement() ) ? node->ToElement() : 0 ); }

  00003	8b 0e		 mov	 ecx, DWORD PTR [esi]
  00005	85 c9		 test	 ecx, ecx
  00007	74 11		 je	 SHORT $LN5@Element
  00009	8b 01		 mov	 eax, DWORD PTR [ecx]
  0000b	ff 50 14	 call	 DWORD PTR [eax+20]
  0000e	85 c0		 test	 eax, eax
  00010	74 08		 je	 SHORT $LN5@Element
  00012	8b 0e		 mov	 ecx, DWORD PTR [esi]
  00014	5e		 pop	 esi
  00015	8b 01		 mov	 eax, DWORD PTR [ecx]
  00017	ff 60 14	 jmp	 DWORD PTR [eax+20]
$LN5@Element:

; 1714 : 	TiXmlElement* Element() const	{ return ToElement(); }

  0001a	33 c0		 xor	 eax, eax
  0001c	5e		 pop	 esi
  0001d	c3		 ret	 0
?Element@TiXmlHandle@@QBEPAVTiXmlElement@@XZ ENDP	; TiXmlHandle::Element
_TEXT	ENDS
; Function compile flags: /Ogtp
; File E:\Proyectos\JuegosOnlineproyectos\PB\pbblow\Piercing Blow Remake\i3Server\include\i3Base\tinyxml.h
;	COMDAT ?Node@TiXmlHandle@@QBEPAVTiXmlNode@@XZ
_TEXT	SEGMENT
?Node@TiXmlHandle@@QBEPAVTiXmlNode@@XZ PROC		; TiXmlHandle::Node, COMDAT
; _this$ = ecx

; 1710 : 	TiXmlNode* Node() const			{ return ToNode(); } 

  00000	8b 01		 mov	 eax, DWORD PTR [ecx]
  00002	c3		 ret	 0
?Node@TiXmlHandle@@QBEPAVTiXmlNode@@XZ ENDP		; TiXmlHandle::Node
_TEXT	ENDS
; Function compile flags: /Ogtp
; File E:\Proyectos\JuegosOnlineproyectos\PB\pbblow\Piercing Blow Remake\i3Server\include\i3Base\tinyxml.h
;	COMDAT ?ToUnknown@TiXmlHandle@@QBEPAVTiXmlUnknown@@XZ
_TEXT	SEGMENT
?ToUnknown@TiXmlHandle@@QBEPAVTiXmlUnknown@@XZ PROC	; TiXmlHandle::ToUnknown, COMDAT
; _this$ = ecx

; 1705 : 	TiXmlUnknown* ToUnknown() const		{ return ( ( node && node->ToUnknown() ) ? node->ToUnknown() : 0 ); }

  00000	56		 push	 esi
  00001	8b f1		 mov	 esi, ecx
  00003	8b 0e		 mov	 ecx, DWORD PTR [esi]
  00005	85 c9		 test	 ecx, ecx
  00007	74 11		 je	 SHORT $LN3@ToUnknown
  00009	8b 01		 mov	 eax, DWORD PTR [ecx]
  0000b	ff 50 24	 call	 DWORD PTR [eax+36]
  0000e	85 c0		 test	 eax, eax
  00010	74 08		 je	 SHORT $LN3@ToUnknown
  00012	8b 0e		 mov	 ecx, DWORD PTR [esi]
  00014	5e		 pop	 esi
  00015	8b 01		 mov	 eax, DWORD PTR [ecx]
  00017	ff 60 24	 jmp	 DWORD PTR [eax+36]
$LN3@ToUnknown:
  0001a	33 c0		 xor	 eax, eax
  0001c	5e		 pop	 esi
  0001d	c3		 ret	 0
?ToUnknown@TiXmlHandle@@QBEPAVTiXmlUnknown@@XZ ENDP	; TiXmlHandle::ToUnknown
_TEXT	ENDS
; Function compile flags: /Ogtp
; File E:\Proyectos\JuegosOnlineproyectos\PB\pbblow\Piercing Blow Remake\i3Server\include\i3Base\tinyxml.h
;	COMDAT ?ToText@TiXmlHandle@@QBEPAVTiXmlText@@XZ
_TEXT	SEGMENT
?ToText@TiXmlHandle@@QBEPAVTiXmlText@@XZ PROC		; TiXmlHandle::ToText, COMDAT
; _this$ = ecx

; 1702 : 	TiXmlText* ToText() const			{ return ( ( node && node->ToText() ) ? node->ToText() : 0 ); }

  00000	56		 push	 esi
  00001	8b f1		 mov	 esi, ecx
  00003	8b 0e		 mov	 ecx, DWORD PTR [esi]
  00005	85 c9		 test	 ecx, ecx
  00007	74 11		 je	 SHORT $LN3@ToText
  00009	8b 01		 mov	 eax, DWORD PTR [ecx]
  0000b	ff 50 2c	 call	 DWORD PTR [eax+44]
  0000e	85 c0		 test	 eax, eax
  00010	74 08		 je	 SHORT $LN3@ToText
  00012	8b 0e		 mov	 ecx, DWORD PTR [esi]
  00014	5e		 pop	 esi
  00015	8b 01		 mov	 eax, DWORD PTR [ecx]
  00017	ff 60 2c	 jmp	 DWORD PTR [eax+44]
$LN3@ToText:
  0001a	33 c0		 xor	 eax, eax
  0001c	5e		 pop	 esi
  0001d	c3		 ret	 0
?ToText@TiXmlHandle@@QBEPAVTiXmlText@@XZ ENDP		; TiXmlHandle::ToText
_TEXT	ENDS
; Function compile flags: /Ogtp
; File E:\Proyectos\JuegosOnlineproyectos\PB\pbblow\Piercing Blow Remake\i3Server\include\i3Base\tinyxml.h
;	COMDAT ?ToElement@TiXmlHandle@@QBEPAVTiXmlElement@@XZ
_TEXT	SEGMENT
?ToElement@TiXmlHandle@@QBEPAVTiXmlElement@@XZ PROC	; TiXmlHandle::ToElement, COMDAT
; _this$ = ecx

; 1699 : 	TiXmlElement* ToElement() const		{ return ( ( node && node->ToElement() ) ? node->ToElement() : 0 ); }

  00000	56		 push	 esi
  00001	8b f1		 mov	 esi, ecx
  00003	8b 0e		 mov	 ecx, DWORD PTR [esi]
  00005	85 c9		 test	 ecx, ecx
  00007	74 11		 je	 SHORT $LN3@ToElement
  00009	8b 01		 mov	 eax, DWORD PTR [ecx]
  0000b	ff 50 14	 call	 DWORD PTR [eax+20]
  0000e	85 c0		 test	 eax, eax
  00010	74 08		 je	 SHORT $LN3@ToElement
  00012	8b 0e		 mov	 ecx, DWORD PTR [esi]
  00014	5e		 pop	 esi
  00015	8b 01		 mov	 eax, DWORD PTR [ecx]
  00017	ff 60 14	 jmp	 DWORD PTR [eax+20]
$LN3@ToElement:
  0001a	33 c0		 xor	 eax, eax
  0001c	5e		 pop	 esi
  0001d	c3		 ret	 0
?ToElement@TiXmlHandle@@QBEPAVTiXmlElement@@XZ ENDP	; TiXmlHandle::ToElement
_TEXT	ENDS
; Function compile flags: /Ogtp
; File E:\Proyectos\JuegosOnlineproyectos\PB\pbblow\Piercing Blow Remake\i3Server\include\i3Base\tinyxml.h
;	COMDAT ?ToNode@TiXmlHandle@@QBEPAVTiXmlNode@@XZ
_TEXT	SEGMENT
?ToNode@TiXmlHandle@@QBEPAVTiXmlNode@@XZ PROC		; TiXmlHandle::ToNode, COMDAT
; _this$ = ecx

; 1696 : 	TiXmlNode* ToNode() const			{ return node; } 

  00000	8b 01		 mov	 eax, DWORD PTR [ecx]
  00002	c3		 ret	 0
?ToNode@TiXmlHandle@@QBEPAVTiXmlNode@@XZ ENDP		; TiXmlHandle::ToNode
_TEXT	ENDS
; Function compile flags: /Ogtp
; File E:\Proyectos\JuegosOnlineproyectos\PB\pbblow\Piercing Blow Remake\i3Server\include\i3Base\tinyxml.h
;	COMDAT ??4TiXmlHandle@@QAE?AV0@ABV0@@Z
_TEXT	SEGMENT
___$ReturnUdt$ = 8					; size = 4
_ref$ = 12						; size = 4
??4TiXmlHandle@@QAE?AV0@ABV0@@Z PROC			; TiXmlHandle::operator=, COMDAT
; _this$ = ecx

; 1656 : 	TiXmlHandle operator=( const TiXmlHandle& ref ) { this->node = ref.node; return *this; }

  00000	55		 push	 ebp
  00001	8b ec		 mov	 ebp, esp
  00003	8b 45 0c	 mov	 eax, DWORD PTR _ref$[ebp]
  00006	8b 10		 mov	 edx, DWORD PTR [eax]

; 1655 : 	TiXmlHandle( const TiXmlHandle& ref )			{ this->node = ref.node; }

  00008	8b 45 08	 mov	 eax, DWORD PTR ___$ReturnUdt$[ebp]

; 1656 : 	TiXmlHandle operator=( const TiXmlHandle& ref ) { this->node = ref.node; return *this; }

  0000b	89 11		 mov	 DWORD PTR [ecx], edx

; 1655 : 	TiXmlHandle( const TiXmlHandle& ref )			{ this->node = ref.node; }

  0000d	89 10		 mov	 DWORD PTR [eax], edx

; 1656 : 	TiXmlHandle operator=( const TiXmlHandle& ref ) { this->node = ref.node; return *this; }

  0000f	5d		 pop	 ebp
  00010	c2 08 00	 ret	 8
??4TiXmlHandle@@QAE?AV0@ABV0@@Z ENDP			; TiXmlHandle::operator=
_TEXT	ENDS
; Function compile flags: /Ogtp
; File E:\Proyectos\JuegosOnlineproyectos\PB\pbblow\Piercing Blow Remake\i3Server\include\i3Base\tinyxml.h
;	COMDAT ??0TiXmlHandle@@QAE@ABV0@@Z
_TEXT	SEGMENT
_ref$ = 8						; size = 4
??0TiXmlHandle@@QAE@ABV0@@Z PROC			; TiXmlHandle::TiXmlHandle, COMDAT
; _this$ = ecx

; 1655 : 	TiXmlHandle( const TiXmlHandle& ref )			{ this->node = ref.node; }

  00000	55		 push	 ebp
  00001	8b ec		 mov	 ebp, esp
  00003	8b 45 08	 mov	 eax, DWORD PTR _ref$[ebp]
  00006	8b 00		 mov	 eax, DWORD PTR [eax]
  00008	89 01		 mov	 DWORD PTR [ecx], eax
  0000a	8b c1		 mov	 eax, ecx
  0000c	5d		 pop	 ebp
  0000d	c2 04 00	 ret	 4
??0TiXmlHandle@@QAE@ABV0@@Z ENDP			; TiXmlHandle::TiXmlHandle
_TEXT	ENDS
; Function compile flags: /Ogtp
; File E:\Proyectos\JuegosOnlineproyectos\PB\pbblow\Piercing Blow Remake\i3Server\include\i3Base\tinyxml.h
;	COMDAT ??0TiXmlHandle@@QAE@PAVTiXmlNode@@@Z
_TEXT	SEGMENT
__node$ = 8						; size = 4
??0TiXmlHandle@@QAE@PAVTiXmlNode@@@Z PROC		; TiXmlHandle::TiXmlHandle, COMDAT
; _this$ = ecx

; 1653 : 	TiXmlHandle( TiXmlNode* _node )					{ this->node = _node; }

  00000	55		 push	 ebp
  00001	8b ec		 mov	 ebp, esp
  00003	8b 45 08	 mov	 eax, DWORD PTR __node$[ebp]
  00006	89 01		 mov	 DWORD PTR [ecx], eax
  00008	8b c1		 mov	 eax, ecx
  0000a	5d		 pop	 ebp
  0000b	c2 04 00	 ret	 4
??0TiXmlHandle@@QAE@PAVTiXmlNode@@@Z ENDP		; TiXmlHandle::TiXmlHandle
_TEXT	ENDS
; Function compile flags: /Ogtp
; File E:\Proyectos\JuegosOnlineproyectos\PB\pbblow\Piercing Blow Remake\i3Server\include\i3Base\tinyxml.h
; File E:\Proyectos\JuegosOnlineproyectos\PB\pbblow\Piercing Blow Remake\i3Server\include\i3Base\tinystr.h
; File E:\Proyectos\JuegosOnlineproyectos\PB\pbblow\Piercing Blow Remake\i3Server\include\i3Base\tinyxml.h
;	COMDAT ??_ETiXmlDocument@@UAEPAXI@Z
_TEXT	SEGMENT
__$EHRec$ = -12						; size = 12
___flags$ = 8						; size = 4
??_ETiXmlDocument@@UAEPAXI@Z PROC			; TiXmlDocument::`vector deleting destructor', COMDAT
; _this$ = ecx
  00000	55		 push	 ebp
  00001	8b ec		 mov	 ebp, esp
  00003	6a ff		 push	 -1
  00005	68 00 00 00 00	 push	 __ehhandler$??_ETiXmlDocument@@UAEPAXI@Z
  0000a	64 a1 00 00 00
	00		 mov	 eax, DWORD PTR fs:0
  00010	50		 push	 eax
  00011	53		 push	 ebx
  00012	56		 push	 esi
  00013	57		 push	 edi
  00014	a1 00 00 00 00	 mov	 eax, DWORD PTR ___security_cookie
  00019	33 c5		 xor	 eax, ebp
  0001b	50		 push	 eax
  0001c	8d 45 f4	 lea	 eax, DWORD PTR __$EHRec$[ebp]
  0001f	64 a3 00 00 00
	00		 mov	 DWORD PTR fs:0, eax
  00025	8b f1		 mov	 esi, ecx
  00027	8b 5d 08	 mov	 ebx, DWORD PTR ___flags$[ebp]
  0002a	f6 c3 02	 test	 bl, 2
  0002d	74 3e		 je	 SHORT $LN2@vector
  0002f	68 00 00 00 00	 push	 OFFSET ??1TiXmlDocument@@UAE@XZ ; TiXmlDocument::~TiXmlDocument
  00034	ff 76 fc	 push	 DWORD PTR [esi-4]
  00037	8d 7e fc	 lea	 edi, DWORD PTR [esi-4]
  0003a	6a 4c		 push	 76			; 0000004cH
  0003c	56		 push	 esi
  0003d	e8 00 00 00 00	 call	 ??_M@YGXPAXIIP6EX0@Z@Z
  00042	f6 c3 01	 test	 bl, 1
  00045	74 10		 je	 SHORT $LN3@vector
  00047	6b 0f 4c	 imul	 ecx, DWORD PTR [edi], 76
  0004a	83 c1 04	 add	 ecx, 4
  0004d	51		 push	 ecx
  0004e	57		 push	 edi
  0004f	e8 00 00 00 00	 call	 ??_V@YAXPAXI@Z		; operator delete[]
  00054	83 c4 08	 add	 esp, 8
$LN3@vector:
  00057	8b c7		 mov	 eax, edi
  00059	8b 4d f4	 mov	 ecx, DWORD PTR __$EHRec$[ebp]
  0005c	64 89 0d 00 00
	00 00		 mov	 DWORD PTR fs:0, ecx
  00063	59		 pop	 ecx
  00064	5f		 pop	 edi
  00065	5e		 pop	 esi
  00066	5b		 pop	 ebx
  00067	8b e5		 mov	 esp, ebp
  00069	5d		 pop	 ebp
  0006a	c2 04 00	 ret	 4
$LN2@vector:

; 1411 : 	virtual ~TiXmlDocument() {}

  0006d	c7 06 00 00 00
	00		 mov	 DWORD PTR [esi], OFFSET ??_7TiXmlDocument@@6B@
; File E:\Proyectos\JuegosOnlineproyectos\PB\pbblow\Piercing Blow Remake\i3Server\include\i3Base\tinystr.h

; 257  : 		if (rep_ != &nullrep_)

  00073	8b 46 34	 mov	 eax, DWORD PTR [esi+52]
  00076	3d 00 00 00 00	 cmp	 eax, OFFSET ?nullrep_@TiXmlString@@0URep@1@A ; TiXmlString::nullrep_
  0007b	74 09		 je	 SHORT $LN16@vector

; 258  : 		{
; 259  : 			// The rep_ is really an array of ints. (see the allocator, above).
; 260  : 			// Cast it back before delete, so the compiler won't incorrectly call destructors.
; 261  : 			delete [] ( reinterpret_cast<int*>( rep_ ) );

  0007d	50		 push	 eax
  0007e	e8 00 00 00 00	 call	 ??_V@YAXPAX@Z		; operator delete[]
  00083	83 c4 04	 add	 esp, 4
$LN16@vector:
; File E:\Proyectos\JuegosOnlineproyectos\PB\pbblow\Piercing Blow Remake\i3Server\include\i3Base\tinyxml.h

; 1411 : 	virtual ~TiXmlDocument() {}

  00086	8b ce		 mov	 ecx, esi
  00088	e8 00 00 00 00	 call	 ??1TiXmlNode@@UAE@XZ	; TiXmlNode::~TiXmlNode
  0008d	f6 c3 01	 test	 bl, 1
  00090	74 0b		 je	 SHORT $LN4@vector
  00092	6a 4c		 push	 76			; 0000004cH
  00094	56		 push	 esi
  00095	e8 00 00 00 00	 call	 ??3@YAXPAXI@Z		; operator delete
  0009a	83 c4 08	 add	 esp, 8
$LN4@vector:
  0009d	8b c6		 mov	 eax, esi
  0009f	8b 4d f4	 mov	 ecx, DWORD PTR __$EHRec$[ebp]
  000a2	64 89 0d 00 00
	00 00		 mov	 DWORD PTR fs:0, ecx
  000a9	59		 pop	 ecx
  000aa	5f		 pop	 edi
  000ab	5e		 pop	 esi
  000ac	5b		 pop	 ebx
  000ad	8b e5		 mov	 esp, ebp
  000af	5d		 pop	 ebp
  000b0	c2 04 00	 ret	 4
  000b3	cc		 int	 3
  000b4	cc		 int	 3
  000b5	cc		 int	 3
  000b6	cc		 int	 3
  000b7	cc		 int	 3
_TEXT	ENDS
;	COMDAT text$x
text$x	SEGMENT
__ehhandler$??_ETiXmlDocument@@UAEPAXI@Z:
  00000	90		 npad	 1
  00001	90		 npad	 1
  00002	8b 54 24 08	 mov	 edx, DWORD PTR [esp+8]
  00006	8d 42 0c	 lea	 eax, DWORD PTR [edx+12]
  00009	8b 4a f0	 mov	 ecx, DWORD PTR [edx-16]
  0000c	33 c8		 xor	 ecx, eax
  0000e	e8 00 00 00 00	 call	 @__security_check_cookie@4
  00013	b8 00 00 00 00	 mov	 eax, OFFSET __ehfuncinfo$??_ETiXmlDocument@@UAEPAXI@Z
  00018	e9 00 00 00 00	 jmp	 ___CxxFrameHandler3
text$x	ENDS
??_ETiXmlDocument@@UAEPAXI@Z ENDP			; TiXmlDocument::`vector deleting destructor'
; Function compile flags: /Ogtp
; File E:\Proyectos\JuegosOnlineproyectos\PB\pbblow\Piercing Blow Remake\i3Server\include\i3Base\tinyxml.h
; File E:\Proyectos\JuegosOnlineproyectos\PB\pbblow\Piercing Blow Remake\i3Server\include\i3Base\tinystr.h
; File E:\Proyectos\JuegosOnlineproyectos\PB\pbblow\Piercing Blow Remake\i3Server\include\i3Base\tinyxml.h
;	COMDAT ??_GTiXmlDocument@@UAEPAXI@Z
_TEXT	SEGMENT
___flags$ = 8						; size = 4
??_GTiXmlDocument@@UAEPAXI@Z PROC			; TiXmlDocument::`scalar deleting destructor', COMDAT
; _this$ = ecx
  00000	55		 push	 ebp
  00001	8b ec		 mov	 ebp, esp

; 1411 : 	virtual ~TiXmlDocument() {}

  00003	56		 push	 esi
  00004	8b f1		 mov	 esi, ecx
  00006	c7 06 00 00 00
	00		 mov	 DWORD PTR [esi], OFFSET ??_7TiXmlDocument@@6B@
; File E:\Proyectos\JuegosOnlineproyectos\PB\pbblow\Piercing Blow Remake\i3Server\include\i3Base\tinystr.h

; 257  : 		if (rep_ != &nullrep_)

  0000c	8b 46 34	 mov	 eax, DWORD PTR [esi+52]
  0000f	3d 00 00 00 00	 cmp	 eax, OFFSET ?nullrep_@TiXmlString@@0URep@1@A ; TiXmlString::nullrep_
  00014	74 09		 je	 SHORT $LN14@scalar

; 258  : 		{
; 259  : 			// The rep_ is really an array of ints. (see the allocator, above).
; 260  : 			// Cast it back before delete, so the compiler won't incorrectly call destructors.
; 261  : 			delete [] ( reinterpret_cast<int*>( rep_ ) );

  00016	50		 push	 eax
  00017	e8 00 00 00 00	 call	 ??_V@YAXPAX@Z		; operator delete[]
  0001c	83 c4 04	 add	 esp, 4
$LN14@scalar:
; File E:\Proyectos\JuegosOnlineproyectos\PB\pbblow\Piercing Blow Remake\i3Server\include\i3Base\tinyxml.h

; 1411 : 	virtual ~TiXmlDocument() {}

  0001f	8b ce		 mov	 ecx, esi
  00021	e8 00 00 00 00	 call	 ??1TiXmlNode@@UAE@XZ	; TiXmlNode::~TiXmlNode
  00026	f6 45 08 01	 test	 BYTE PTR ___flags$[ebp], 1
  0002a	74 0b		 je	 SHORT $LN16@scalar
  0002c	6a 4c		 push	 76			; 0000004cH
  0002e	56		 push	 esi
  0002f	e8 00 00 00 00	 call	 ??3@YAXPAXI@Z		; operator delete
  00034	83 c4 08	 add	 esp, 8
$LN16@scalar:
  00037	8b c6		 mov	 eax, esi
  00039	5e		 pop	 esi
  0003a	5d		 pop	 ebp
  0003b	c2 04 00	 ret	 4
??_GTiXmlDocument@@UAEPAXI@Z ENDP			; TiXmlDocument::`scalar deleting destructor'
_TEXT	ENDS
; Function compile flags: /Ogtp
; File E:\Proyectos\JuegosOnlineproyectos\PB\pbblow\Piercing Blow Remake\i3Server\include\i3Base\tinyxml.h
;	COMDAT ?GetSize@TiXmlDocument@@QAEIXZ
_TEXT	SEGMENT
?GetSize@TiXmlDocument@@QAEIXZ PROC			; TiXmlDocument::GetSize, COMDAT
; _this$ = ecx

; 1546 : 	UINT32 GetSize(void)		{ return fileSize;		}

  00000	8b 41 48	 mov	 eax, DWORD PTR [ecx+72]
  00003	c3		 ret	 0
?GetSize@TiXmlDocument@@QAEIXZ ENDP			; TiXmlDocument::GetSize
_TEXT	ENDS
; Function compile flags: /Ogtp
; File E:\Proyectos\JuegosOnlineproyectos\PB\pbblow\Piercing Blow Remake\i3Server\include\i3Base\tinyxml.h
;	COMDAT ?ToDocument@TiXmlDocument@@UAEPAV1@XZ
_TEXT	SEGMENT
?ToDocument@TiXmlDocument@@UAEPAV1@XZ PROC		; TiXmlDocument::ToDocument, COMDAT
; _this$ = ecx

; 1539 : 	virtual TiXmlDocument*          ToDocument()          { return this; } ///< Cast to a more defined type. Will return null not of the requested type.

  00000	8b c1		 mov	 eax, ecx
  00002	c3		 ret	 0
?ToDocument@TiXmlDocument@@UAEPAV1@XZ ENDP		; TiXmlDocument::ToDocument
_TEXT	ENDS
; Function compile flags: /Ogtp
; File E:\Proyectos\JuegosOnlineproyectos\PB\pbblow\Piercing Blow Remake\i3Server\include\i3Base\tinyxml.h
;	COMDAT ?ToDocument@TiXmlDocument@@UBEPBV1@XZ
_TEXT	SEGMENT
?ToDocument@TiXmlDocument@@UBEPBV1@XZ PROC		; TiXmlDocument::ToDocument, COMDAT
; _this$ = ecx

; 1538 : 	virtual const TiXmlDocument*    ToDocument()    const { return this; } ///< Cast to a more defined type. Will return null not of the requested type.

  00000	8b c1		 mov	 eax, ecx
  00002	c3		 ret	 0
?ToDocument@TiXmlDocument@@UBEPBV1@XZ ENDP		; TiXmlDocument::ToDocument
_TEXT	ENDS
; Function compile flags: /Ogtp
; File E:\Proyectos\JuegosOnlineproyectos\PB\pbblow\Piercing Blow Remake\i3Server\include\i3Base\tinyxml.h
; File E:\Proyectos\JuegosOnlineproyectos\PB\pbblow\Piercing Blow Remake\i3Server\include\i3Base\tinystr.h
; File E:\Proyectos\JuegosOnlineproyectos\PB\pbblow\Piercing Blow Remake\i3Server\include\i3Base\tinyxml.h
; File E:\Proyectos\JuegosOnlineproyectos\PB\pbblow\Piercing Blow Remake\i3Server\include\i3Base\tinystr.h
; File E:\Proyectos\JuegosOnlineproyectos\PB\pbblow\Piercing Blow Remake\i3Server\include\i3Base\tinyxml.h
;	COMDAT ?ClearError@TiXmlDocument@@QAEXXZ
_TEXT	SEGMENT
?ClearError@TiXmlDocument@@QAEXXZ PROC			; TiXmlDocument::ClearError, COMDAT
; _this$ = ecx

; 1517 : 	void ClearError()						{	error = false; 

  00000	56		 push	 esi
  00001	8b f1		 mov	 esi, ecx
; File E:\Proyectos\JuegosOnlineproyectos\PB\pbblow\Piercing Blow Remake\i3Server\include\i3Base\tinystr.h

; 114  : 		return assign( copy, (size_type)strlen(copy));

  00003	6a 00		 push	 0
  00005	68 00 00 00 00	 push	 OFFSET ??_C@_00CNPNBAHC@@
; File E:\Proyectos\JuegosOnlineproyectos\PB\pbblow\Piercing Blow Remake\i3Server\include\i3Base\tinyxml.h

; 1519 : 												errorDesc = ""; 

  0000a	8d 4e 34	 lea	 ecx, DWORD PTR [esi+52]
  0000d	c6 46 2c 00	 mov	 BYTE PTR [esi+44], 0
  00011	c7 46 30 00 00
	00 00		 mov	 DWORD PTR [esi+48], 0
; File E:\Proyectos\JuegosOnlineproyectos\PB\pbblow\Piercing Blow Remake\i3Server\include\i3Base\tinystr.h

; 114  : 		return assign( copy, (size_type)strlen(copy));

  00018	e8 00 00 00 00	 call	 ?assign@TiXmlString@@QAEAAV1@PBDI@Z ; TiXmlString::assign
; File E:\Proyectos\JuegosOnlineproyectos\PB\pbblow\Piercing Blow Remake\i3Server\include\i3Base\tinyxml.h

; 1520 : 												errorLocation.row = errorLocation.col = 0; 

  0001d	c7 46 40 00 00
	00 00		 mov	 DWORD PTR [esi+64], 0
  00024	c7 46 3c 00 00
	00 00		 mov	 DWORD PTR [esi+60], 0
  0002b	5e		 pop	 esi

; 1521 : 												//errorLocation.last = 0; 
; 1522 : 											}

  0002c	c3		 ret	 0
?ClearError@TiXmlDocument@@QAEXXZ ENDP			; TiXmlDocument::ClearError
_TEXT	ENDS
; Function compile flags: /Ogtp
; File E:\Proyectos\JuegosOnlineproyectos\PB\pbblow\Piercing Blow Remake\i3Server\include\i3Base\tinyxml.h
;	COMDAT ?TabSize@TiXmlDocument@@QBEHXZ
_TEXT	SEGMENT
?TabSize@TiXmlDocument@@QBEHXZ PROC			; TiXmlDocument::TabSize, COMDAT
; _this$ = ecx

; 1512 : 	int TabSize() const	{ return tabsize; }

  00000	8b 41 38	 mov	 eax, DWORD PTR [ecx+56]
  00003	c3		 ret	 0
?TabSize@TiXmlDocument@@QBEHXZ ENDP			; TiXmlDocument::TabSize
_TEXT	ENDS
; Function compile flags: /Ogtp
; File E:\Proyectos\JuegosOnlineproyectos\PB\pbblow\Piercing Blow Remake\i3Server\include\i3Base\tinyxml.h
;	COMDAT ?SetTabSize@TiXmlDocument@@QAEXH@Z
_TEXT	SEGMENT
__tabsize$ = 8						; size = 4
?SetTabSize@TiXmlDocument@@QAEXH@Z PROC			; TiXmlDocument::SetTabSize, COMDAT
; _this$ = ecx

; 1510 : 	void SetTabSize( int _tabsize )		{ tabsize = _tabsize; }

  00000	55		 push	 ebp
  00001	8b ec		 mov	 ebp, esp
  00003	8b 45 08	 mov	 eax, DWORD PTR __tabsize$[ebp]
  00006	89 41 38	 mov	 DWORD PTR [ecx+56], eax
  00009	5d		 pop	 ebp
  0000a	c2 04 00	 ret	 4
?SetTabSize@TiXmlDocument@@QAEXH@Z ENDP			; TiXmlDocument::SetTabSize
_TEXT	ENDS
; Function compile flags: /Ogtp
; File E:\Proyectos\JuegosOnlineproyectos\PB\pbblow\Piercing Blow Remake\i3Server\include\i3Base\tinyxml.h
;	COMDAT ?ErrorCol@TiXmlDocument@@QBEHXZ
_TEXT	SEGMENT
?ErrorCol@TiXmlDocument@@QBEHXZ PROC			; TiXmlDocument::ErrorCol, COMDAT
; _this$ = ecx

; 1484 : 	int ErrorCol() const	{ return errorLocation.col+1; }	///< The column where the error occured. See ErrorRow()

  00000	8b 41 40	 mov	 eax, DWORD PTR [ecx+64]
  00003	40		 inc	 eax
  00004	c3		 ret	 0
?ErrorCol@TiXmlDocument@@QBEHXZ ENDP			; TiXmlDocument::ErrorCol
_TEXT	ENDS
; Function compile flags: /Ogtp
; File E:\Proyectos\JuegosOnlineproyectos\PB\pbblow\Piercing Blow Remake\i3Server\include\i3Base\tinyxml.h
;	COMDAT ?ErrorRow@TiXmlDocument@@QBEHXZ
_TEXT	SEGMENT
?ErrorRow@TiXmlDocument@@QBEHXZ PROC			; TiXmlDocument::ErrorRow, COMDAT
; _this$ = ecx

; 1483 : 	int ErrorRow() const	{ return errorLocation.row+1; }

  00000	8b 41 3c	 mov	 eax, DWORD PTR [ecx+60]
  00003	40		 inc	 eax
  00004	c3		 ret	 0
?ErrorRow@TiXmlDocument@@QBEHXZ ENDP			; TiXmlDocument::ErrorRow
_TEXT	ENDS
; Function compile flags: /Ogtp
; File E:\Proyectos\JuegosOnlineproyectos\PB\pbblow\Piercing Blow Remake\i3Server\include\i3Base\tinyxml.h
;	COMDAT ?ErrorId@TiXmlDocument@@QBEHXZ
_TEXT	SEGMENT
?ErrorId@TiXmlDocument@@QBEHXZ PROC			; TiXmlDocument::ErrorId, COMDAT
; _this$ = ecx

; 1474 : 	int ErrorId()	const				{ return errorId; }

  00000	8b 41 30	 mov	 eax, DWORD PTR [ecx+48]
  00003	c3		 ret	 0
?ErrorId@TiXmlDocument@@QBEHXZ ENDP			; TiXmlDocument::ErrorId
_TEXT	ENDS
; Function compile flags: /Ogtp
; File E:\Proyectos\JuegosOnlineproyectos\PB\pbblow\Piercing Blow Remake\i3Server\include\i3Base\tinyxml.h
; File E:\Proyectos\JuegosOnlineproyectos\PB\pbblow\Piercing Blow Remake\i3Server\include\i3Base\tinystr.h
; File E:\Proyectos\JuegosOnlineproyectos\PB\pbblow\Piercing Blow Remake\i3Server\include\i3Base\tinyxml.h
;	COMDAT ?ErrorDesc@TiXmlDocument@@QBEPBDXZ
_TEXT	SEGMENT
?ErrorDesc@TiXmlDocument@@QBEPBDXZ PROC			; TiXmlDocument::ErrorDesc, COMDAT
; _this$ = ecx
; File E:\Proyectos\JuegosOnlineproyectos\PB\pbblow\Piercing Blow Remake\i3Server\include\i3Base\tinystr.h

; 144  : 	const char * c_str () const { return rep_->str; }

  00000	8b 41 34	 mov	 eax, DWORD PTR [ecx+52]
  00003	83 c0 08	 add	 eax, 8
; File E:\Proyectos\JuegosOnlineproyectos\PB\pbblow\Piercing Blow Remake\i3Server\include\i3Base\tinyxml.h

; 1469 : 	const char * ErrorDesc() const	{ return errorDesc.c_str (); }

  00006	c3		 ret	 0
?ErrorDesc@TiXmlDocument@@QBEPBDXZ ENDP			; TiXmlDocument::ErrorDesc
_TEXT	ENDS
; Function compile flags: /Ogtp
; File E:\Proyectos\JuegosOnlineproyectos\PB\pbblow\Piercing Blow Remake\i3Server\include\i3Base\tinyxml.h
;	COMDAT ?Error@TiXmlDocument@@QBE_NXZ
_TEXT	SEGMENT
?Error@TiXmlDocument@@QBE_NXZ PROC			; TiXmlDocument::Error, COMDAT
; _this$ = ecx

; 1466 : 	bool Error() const						{ return error; }

  00000	8a 41 2c	 mov	 al, BYTE PTR [ecx+44]
  00003	c3		 ret	 0
?Error@TiXmlDocument@@QBE_NXZ ENDP			; TiXmlDocument::Error
_TEXT	ENDS
; Function compile flags: /Ogtp
; File E:\Proyectos\JuegosOnlineproyectos\PB\pbblow\Piercing Blow Remake\i3Server\include\i3Base\tinyxml.h
;	COMDAT ?RootElement@TiXmlDocument@@QAEPAVTiXmlElement@@XZ
_TEXT	SEGMENT
?RootElement@TiXmlDocument@@QAEPAVTiXmlElement@@XZ PROC	; TiXmlDocument::RootElement, COMDAT
; _this$ = ecx

; 670  : 		return const_cast< TiXmlElement* >( (const_cast< const TiXmlNode* >(this))->FirstChildElement() );

  00000	e9 00 00 00 00	 jmp	 ?FirstChildElement@TiXmlNode@@QBEPBVTiXmlElement@@XZ ; TiXmlNode::FirstChildElement
?RootElement@TiXmlDocument@@QAEPAVTiXmlElement@@XZ ENDP	; TiXmlDocument::RootElement
_TEXT	ENDS
; Function compile flags: /Ogtp
; File E:\Proyectos\JuegosOnlineproyectos\PB\pbblow\Piercing Blow Remake\i3Server\include\i3Base\tinyxml.h
;	COMDAT ?RootElement@TiXmlDocument@@QBEPBVTiXmlElement@@XZ
_TEXT	SEGMENT
?RootElement@TiXmlDocument@@QBEPBVTiXmlElement@@XZ PROC	; TiXmlDocument::RootElement, COMDAT
; _this$ = ecx

; 1458 : 	const TiXmlElement* RootElement() const		{ return FirstChildElement(); }

  00000	e9 00 00 00 00	 jmp	 ?FirstChildElement@TiXmlNode@@QBEPBVTiXmlElement@@XZ ; TiXmlNode::FirstChildElement
?RootElement@TiXmlDocument@@QBEPBVTiXmlElement@@XZ ENDP	; TiXmlDocument::RootElement
_TEXT	ENDS
; Function compile flags: /Ogtp
; File E:\Proyectos\JuegosOnlineproyectos\PB\pbblow\Piercing Blow Remake\i3Server\include\i3Base\tinyxml.h
; File E:\Proyectos\JuegosOnlineproyectos\PB\pbblow\Piercing Blow Remake\i3Server\include\i3Base\tinystr.h
; File E:\Proyectos\JuegosOnlineproyectos\PB\pbblow\Piercing Blow Remake\i3Server\include\i3Base\tinyxml.h
;	COMDAT ??1TiXmlDocument@@UAE@XZ
_TEXT	SEGMENT
??1TiXmlDocument@@UAE@XZ PROC				; TiXmlDocument::~TiXmlDocument, COMDAT
; _this$ = ecx

; 1411 : 	virtual ~TiXmlDocument() {}

  00000	56		 push	 esi
  00001	8b f1		 mov	 esi, ecx
  00003	c7 06 00 00 00
	00		 mov	 DWORD PTR [esi], OFFSET ??_7TiXmlDocument@@6B@
; File E:\Proyectos\JuegosOnlineproyectos\PB\pbblow\Piercing Blow Remake\i3Server\include\i3Base\tinystr.h

; 257  : 		if (rep_ != &nullrep_)

  00009	8b 46 34	 mov	 eax, DWORD PTR [esi+52]
  0000c	3d 00 00 00 00	 cmp	 eax, OFFSET ?nullrep_@TiXmlString@@0URep@1@A ; TiXmlString::nullrep_
  00011	74 09		 je	 SHORT $LN8@TiXmlDocum

; 258  : 		{
; 259  : 			// The rep_ is really an array of ints. (see the allocator, above).
; 260  : 			// Cast it back before delete, so the compiler won't incorrectly call destructors.
; 261  : 			delete [] ( reinterpret_cast<int*>( rep_ ) );

  00013	50		 push	 eax
  00014	e8 00 00 00 00	 call	 ??_V@YAXPAX@Z		; operator delete[]
  00019	83 c4 04	 add	 esp, 4
$LN8@TiXmlDocum:
; File E:\Proyectos\JuegosOnlineproyectos\PB\pbblow\Piercing Blow Remake\i3Server\include\i3Base\tinyxml.h

; 1411 : 	virtual ~TiXmlDocument() {}

  0001c	8b ce		 mov	 ecx, esi
  0001e	5e		 pop	 esi
  0001f	e9 00 00 00 00	 jmp	 ??1TiXmlNode@@UAE@XZ	; TiXmlNode::~TiXmlNode
??1TiXmlDocument@@UAE@XZ ENDP				; TiXmlDocument::~TiXmlDocument
_TEXT	ENDS
; Function compile flags: /Ogtp
; File E:\Proyectos\JuegosOnlineproyectos\PB\pbblow\Piercing Blow Remake\i3Server\include\i3Base\tinyxml.h
;	COMDAT ??_ETiXmlUnknown@@UAEPAXI@Z
_TEXT	SEGMENT
__$EHRec$ = -12						; size = 12
___flags$ = 8						; size = 4
??_ETiXmlUnknown@@UAEPAXI@Z PROC			; TiXmlUnknown::`vector deleting destructor', COMDAT
; _this$ = ecx
  00000	55		 push	 ebp
  00001	8b ec		 mov	 ebp, esp
  00003	6a ff		 push	 -1
  00005	68 00 00 00 00	 push	 __ehhandler$??_ETiXmlUnknown@@UAEPAXI@Z
  0000a	64 a1 00 00 00
	00		 mov	 eax, DWORD PTR fs:0
  00010	50		 push	 eax
  00011	53		 push	 ebx
  00012	56		 push	 esi
  00013	57		 push	 edi
  00014	a1 00 00 00 00	 mov	 eax, DWORD PTR ___security_cookie
  00019	33 c5		 xor	 eax, ebp
  0001b	50		 push	 eax
  0001c	8d 45 f4	 lea	 eax, DWORD PTR __$EHRec$[ebp]
  0001f	64 a3 00 00 00
	00		 mov	 DWORD PTR fs:0, eax
  00025	8b f1		 mov	 esi, ecx
  00027	8b 45 08	 mov	 eax, DWORD PTR ___flags$[ebp]
  0002a	8b f8		 mov	 edi, eax
  0002c	83 e7 01	 and	 edi, 1
  0002f	a8 02		 test	 al, 2
  00031	74 3d		 je	 SHORT $LN2@vector
  00033	68 00 00 00 00	 push	 OFFSET ??1TiXmlUnknown@@UAE@XZ ; TiXmlUnknown::~TiXmlUnknown
  00038	ff 76 fc	 push	 DWORD PTR [esi-4]
  0003b	8d 5e fc	 lea	 ebx, DWORD PTR [esi-4]
  0003e	6a 2c		 push	 44			; 0000002cH
  00040	56		 push	 esi
  00041	e8 00 00 00 00	 call	 ??_M@YGXPAXIIP6EX0@Z@Z
  00046	85 ff		 test	 edi, edi
  00048	74 10		 je	 SHORT $LN3@vector
  0004a	6b 0b 2c	 imul	 ecx, DWORD PTR [ebx], 44
  0004d	83 c1 04	 add	 ecx, 4
  00050	51		 push	 ecx
  00051	53		 push	 ebx
  00052	e8 00 00 00 00	 call	 ??_V@YAXPAXI@Z		; operator delete[]
  00057	83 c4 08	 add	 esp, 8
$LN3@vector:
  0005a	8b c3		 mov	 eax, ebx
  0005c	8b 4d f4	 mov	 ecx, DWORD PTR __$EHRec$[ebp]
  0005f	64 89 0d 00 00
	00 00		 mov	 DWORD PTR fs:0, ecx
  00066	59		 pop	 ecx
  00067	5f		 pop	 edi
  00068	5e		 pop	 esi
  00069	5b		 pop	 ebx
  0006a	8b e5		 mov	 esp, ebp
  0006c	5d		 pop	 ebp
  0006d	c2 04 00	 ret	 4
$LN2@vector:

; 1360 : 	virtual ~TiXmlUnknown() {}

  00070	c7 06 00 00 00
	00		 mov	 DWORD PTR [esi], OFFSET ??_7TiXmlUnknown@@6B@
  00076	e8 00 00 00 00	 call	 ??1TiXmlNode@@UAE@XZ	; TiXmlNode::~TiXmlNode
  0007b	85 ff		 test	 edi, edi
  0007d	74 0b		 je	 SHORT $LN4@vector
  0007f	6a 2c		 push	 44			; 0000002cH
  00081	56		 push	 esi
  00082	e8 00 00 00 00	 call	 ??3@YAXPAXI@Z		; operator delete
  00087	83 c4 08	 add	 esp, 8
$LN4@vector:
  0008a	8b c6		 mov	 eax, esi
  0008c	8b 4d f4	 mov	 ecx, DWORD PTR __$EHRec$[ebp]
  0008f	64 89 0d 00 00
	00 00		 mov	 DWORD PTR fs:0, ecx
  00096	59		 pop	 ecx
  00097	5f		 pop	 edi
  00098	5e		 pop	 esi
  00099	5b		 pop	 ebx
  0009a	8b e5		 mov	 esp, ebp
  0009c	5d		 pop	 ebp
  0009d	c2 04 00	 ret	 4
  000a0	cc		 int	 3
  000a1	cc		 int	 3
  000a2	cc		 int	 3
  000a3	cc		 int	 3
  000a4	cc		 int	 3
_TEXT	ENDS
;	COMDAT text$x
text$x	SEGMENT
__ehhandler$??_ETiXmlUnknown@@UAEPAXI@Z:
  00000	90		 npad	 1
  00001	90		 npad	 1
  00002	8b 54 24 08	 mov	 edx, DWORD PTR [esp+8]
  00006	8d 42 0c	 lea	 eax, DWORD PTR [edx+12]
  00009	8b 4a f0	 mov	 ecx, DWORD PTR [edx-16]
  0000c	33 c8		 xor	 ecx, eax
  0000e	e8 00 00 00 00	 call	 @__security_check_cookie@4
  00013	b8 00 00 00 00	 mov	 eax, OFFSET __ehfuncinfo$??_ETiXmlUnknown@@UAEPAXI@Z
  00018	e9 00 00 00 00	 jmp	 ___CxxFrameHandler3
text$x	ENDS
??_ETiXmlUnknown@@UAEPAXI@Z ENDP			; TiXmlUnknown::`vector deleting destructor'
; Function compile flags: /Ogtp
; File E:\Proyectos\JuegosOnlineproyectos\PB\pbblow\Piercing Blow Remake\i3Server\include\i3Base\tinyxml.h
;	COMDAT ??_GTiXmlUnknown@@UAEPAXI@Z
_TEXT	SEGMENT
___flags$ = 8						; size = 4
??_GTiXmlUnknown@@UAEPAXI@Z PROC			; TiXmlUnknown::`scalar deleting destructor', COMDAT
; _this$ = ecx
  00000	55		 push	 ebp
  00001	8b ec		 mov	 ebp, esp

; 1360 : 	virtual ~TiXmlUnknown() {}

  00003	56		 push	 esi
  00004	8b f1		 mov	 esi, ecx
  00006	c7 06 00 00 00
	00		 mov	 DWORD PTR [esi], OFFSET ??_7TiXmlUnknown@@6B@
  0000c	e8 00 00 00 00	 call	 ??1TiXmlNode@@UAE@XZ	; TiXmlNode::~TiXmlNode
  00011	f6 45 08 01	 test	 BYTE PTR ___flags$[ebp], 1
  00015	74 0b		 je	 SHORT $LN10@scalar
  00017	6a 2c		 push	 44			; 0000002cH
  00019	56		 push	 esi
  0001a	e8 00 00 00 00	 call	 ??3@YAXPAXI@Z		; operator delete
  0001f	83 c4 08	 add	 esp, 8
$LN10@scalar:
  00022	8b c6		 mov	 eax, esi
  00024	5e		 pop	 esi
  00025	5d		 pop	 ebp
  00026	c2 04 00	 ret	 4
??_GTiXmlUnknown@@UAEPAXI@Z ENDP			; TiXmlUnknown::`scalar deleting destructor'
_TEXT	ENDS
; Function compile flags: /Ogtp
; File E:\Proyectos\JuegosOnlineproyectos\PB\pbblow\Piercing Blow Remake\i3Server\include\i3Base\tinyxml.h
;	COMDAT ?ToUnknown@TiXmlUnknown@@UAEPAV1@XZ
_TEXT	SEGMENT
?ToUnknown@TiXmlUnknown@@UAEPAV1@XZ PROC		; TiXmlUnknown::ToUnknown, COMDAT
; _this$ = ecx

; 1373 : 	virtual TiXmlUnknown*           ToUnknown()	    { return this; } ///< Cast to a more defined type. Will return null not of the requested type.

  00000	8b c1		 mov	 eax, ecx
  00002	c3		 ret	 0
?ToUnknown@TiXmlUnknown@@UAEPAV1@XZ ENDP		; TiXmlUnknown::ToUnknown
_TEXT	ENDS
; Function compile flags: /Ogtp
; File E:\Proyectos\JuegosOnlineproyectos\PB\pbblow\Piercing Blow Remake\i3Server\include\i3Base\tinyxml.h
;	COMDAT ?ToUnknown@TiXmlUnknown@@UBEPBV1@XZ
_TEXT	SEGMENT
?ToUnknown@TiXmlUnknown@@UBEPBV1@XZ PROC		; TiXmlUnknown::ToUnknown, COMDAT
; _this$ = ecx

; 1372 : 	virtual const TiXmlUnknown*     ToUnknown()     const { return this; } ///< Cast to a more defined type. Will return null not of the requested type.

  00000	8b c1		 mov	 eax, ecx
  00002	c3		 ret	 0
?ToUnknown@TiXmlUnknown@@UBEPBV1@XZ ENDP		; TiXmlUnknown::ToUnknown
_TEXT	ENDS
; Function compile flags: /Ogtp
; File E:\Proyectos\JuegosOnlineproyectos\PB\pbblow\Piercing Blow Remake\i3Server\include\i3Base\tinyxml.h
;	COMDAT ??4TiXmlUnknown@@QAEXABV0@@Z
_TEXT	SEGMENT
_copy$ = 8						; size = 4
??4TiXmlUnknown@@QAEXABV0@@Z PROC			; TiXmlUnknown::operator=, COMDAT
; _this$ = ecx

; 1363 : 	void operator=( const TiXmlUnknown& copy )										{ copy.CopyTo( this ); }

  00000	55		 push	 ebp
  00001	8b ec		 mov	 ebp, esp
  00003	51		 push	 ecx
  00004	8b 4d 08	 mov	 ecx, DWORD PTR _copy$[ebp]
  00007	e8 00 00 00 00	 call	 ?CopyTo@TiXmlUnknown@@IBEXPAV1@@Z ; TiXmlUnknown::CopyTo
  0000c	5d		 pop	 ebp
  0000d	c2 04 00	 ret	 4
??4TiXmlUnknown@@QAEXABV0@@Z ENDP			; TiXmlUnknown::operator=
_TEXT	ENDS
; Function compile flags: /Ogtp
; File E:\Proyectos\JuegosOnlineproyectos\PB\pbblow\Piercing Blow Remake\i3Server\include\i3Base\tinyxml.h
;	COMDAT ??0TiXmlUnknown@@QAE@ABV0@@Z
_TEXT	SEGMENT
_this$ = -16						; size = 4
__$EHRec$ = -12						; size = 12
_copy$ = 8						; size = 4
??0TiXmlUnknown@@QAE@ABV0@@Z PROC			; TiXmlUnknown::TiXmlUnknown, COMDAT
; _this$ = ecx

; 1362 : 	TiXmlUnknown( const TiXmlUnknown& copy ) : TiXmlNode( TiXmlNode::UNKNOWN )		{ copy.CopyTo( this ); }

  00000	55		 push	 ebp
  00001	8b ec		 mov	 ebp, esp
  00003	6a ff		 push	 -1
  00005	68 00 00 00 00	 push	 __ehhandler$??0TiXmlUnknown@@QAE@ABV0@@Z
  0000a	64 a1 00 00 00
	00		 mov	 eax, DWORD PTR fs:0
  00010	50		 push	 eax
  00011	51		 push	 ecx
  00012	56		 push	 esi
  00013	a1 00 00 00 00	 mov	 eax, DWORD PTR ___security_cookie
  00018	33 c5		 xor	 eax, ebp
  0001a	50		 push	 eax
  0001b	8d 45 f4	 lea	 eax, DWORD PTR __$EHRec$[ebp]
  0001e	64 a3 00 00 00
	00		 mov	 DWORD PTR fs:0, eax
  00024	8b f1		 mov	 esi, ecx
  00026	89 75 f0	 mov	 DWORD PTR _this$[ebp], esi
  00029	6a 03		 push	 3
  0002b	e8 00 00 00 00	 call	 ??0TiXmlNode@@IAE@W4NodeType@0@@Z ; TiXmlNode::TiXmlNode
  00030	8b 4d 08	 mov	 ecx, DWORD PTR _copy$[ebp]
  00033	56		 push	 esi
  00034	c7 45 fc 00 00
	00 00		 mov	 DWORD PTR __$EHRec$[ebp+8], 0
  0003b	c7 06 00 00 00
	00		 mov	 DWORD PTR [esi], OFFSET ??_7TiXmlUnknown@@6B@
  00041	e8 00 00 00 00	 call	 ?CopyTo@TiXmlUnknown@@IBEXPAV1@@Z ; TiXmlUnknown::CopyTo
  00046	8b c6		 mov	 eax, esi
  00048	8b 4d f4	 mov	 ecx, DWORD PTR __$EHRec$[ebp]
  0004b	64 89 0d 00 00
	00 00		 mov	 DWORD PTR fs:0, ecx
  00052	59		 pop	 ecx
  00053	5e		 pop	 esi
  00054	8b e5		 mov	 esp, ebp
  00056	5d		 pop	 ebp
  00057	c2 04 00	 ret	 4
_TEXT	ENDS
;	COMDAT text$x
text$x	SEGMENT
__unwindfunclet$??0TiXmlUnknown@@QAE@ABV0@@Z$0:
  00000	8b 4d f0	 mov	 ecx, DWORD PTR _this$[ebp]
  00003	e9 00 00 00 00	 jmp	 ??1TiXmlNode@@UAE@XZ	; TiXmlNode::~TiXmlNode
  00008	cc		 int	 3
  00009	cc		 int	 3
  0000a	cc		 int	 3
  0000b	cc		 int	 3
  0000c	cc		 int	 3
__ehhandler$??0TiXmlUnknown@@QAE@ABV0@@Z:
  0000d	90		 npad	 1
  0000e	90		 npad	 1
  0000f	8b 54 24 08	 mov	 edx, DWORD PTR [esp+8]
  00013	8d 42 0c	 lea	 eax, DWORD PTR [edx+12]
  00016	8b 4a f4	 mov	 ecx, DWORD PTR [edx-12]
  00019	33 c8		 xor	 ecx, eax
  0001b	e8 00 00 00 00	 call	 @__security_check_cookie@4
  00020	b8 00 00 00 00	 mov	 eax, OFFSET __ehfuncinfo$??0TiXmlUnknown@@QAE@ABV0@@Z
  00025	e9 00 00 00 00	 jmp	 ___CxxFrameHandler3
text$x	ENDS
??0TiXmlUnknown@@QAE@ABV0@@Z ENDP			; TiXmlUnknown::TiXmlUnknown
; Function compile flags: /Ogtp
; File E:\Proyectos\JuegosOnlineproyectos\PB\pbblow\Piercing Blow Remake\i3Server\include\i3Base\tinyxml.h
;	COMDAT ??1TiXmlUnknown@@UAE@XZ
_TEXT	SEGMENT
??1TiXmlUnknown@@UAE@XZ PROC				; TiXmlUnknown::~TiXmlUnknown, COMDAT
; _this$ = ecx

; 1360 : 	virtual ~TiXmlUnknown() {}

  00000	c7 01 00 00 00
	00		 mov	 DWORD PTR [ecx], OFFSET ??_7TiXmlUnknown@@6B@
  00006	e9 00 00 00 00	 jmp	 ??1TiXmlNode@@UAE@XZ	; TiXmlNode::~TiXmlNode
??1TiXmlUnknown@@UAE@XZ ENDP				; TiXmlUnknown::~TiXmlUnknown
_TEXT	ENDS
; Function compile flags: /Ogtp
; File E:\Proyectos\JuegosOnlineproyectos\PB\pbblow\Piercing Blow Remake\i3Server\include\i3Base\tinyxml.h
;	COMDAT ??0TiXmlUnknown@@QAE@XZ
_TEXT	SEGMENT
_this$ = -4						; size = 4
??0TiXmlUnknown@@QAE@XZ PROC				; TiXmlUnknown::TiXmlUnknown, COMDAT
; _this$ = ecx

; 1359 : 	TiXmlUnknown() : TiXmlNode( TiXmlNode::UNKNOWN )	{}

  00000	55		 push	 ebp
  00001	8b ec		 mov	 ebp, esp
  00003	51		 push	 ecx
  00004	56		 push	 esi
  00005	8b f1		 mov	 esi, ecx
  00007	6a 03		 push	 3
  00009	89 75 fc	 mov	 DWORD PTR _this$[ebp], esi
  0000c	e8 00 00 00 00	 call	 ??0TiXmlNode@@IAE@W4NodeType@0@@Z ; TiXmlNode::TiXmlNode
  00011	c7 06 00 00 00
	00		 mov	 DWORD PTR [esi], OFFSET ??_7TiXmlUnknown@@6B@
  00017	8b c6		 mov	 eax, esi
  00019	5e		 pop	 esi
  0001a	8b e5		 mov	 esp, ebp
  0001c	5d		 pop	 ebp
  0001d	c3		 ret	 0
??0TiXmlUnknown@@QAE@XZ ENDP				; TiXmlUnknown::TiXmlUnknown
_TEXT	ENDS
; Function compile flags: /Ogtp
; File E:\Proyectos\JuegosOnlineproyectos\PB\pbblow\Piercing Blow Remake\i3Server\include\i3Base\tinyxml.h
; File E:\Proyectos\JuegosOnlineproyectos\PB\pbblow\Piercing Blow Remake\i3Server\include\i3Base\tinystr.h
; File E:\Proyectos\JuegosOnlineproyectos\PB\pbblow\Piercing Blow Remake\i3Server\include\i3Base\tinyxml.h
;	COMDAT ??_ETiXmlDeclaration@@UAEPAXI@Z
_TEXT	SEGMENT
__$EHRec$ = -12						; size = 12
___flags$ = 8						; size = 4
??_ETiXmlDeclaration@@UAEPAXI@Z PROC			; TiXmlDeclaration::`vector deleting destructor', COMDAT
; _this$ = ecx
  00000	55		 push	 ebp
  00001	8b ec		 mov	 ebp, esp
  00003	6a ff		 push	 -1
  00005	68 00 00 00 00	 push	 __ehhandler$??_ETiXmlDeclaration@@UAEPAXI@Z
  0000a	64 a1 00 00 00
	00		 mov	 eax, DWORD PTR fs:0
  00010	50		 push	 eax
  00011	53		 push	 ebx
  00012	56		 push	 esi
  00013	57		 push	 edi
  00014	a1 00 00 00 00	 mov	 eax, DWORD PTR ___security_cookie
  00019	33 c5		 xor	 eax, ebp
  0001b	50		 push	 eax
  0001c	8d 45 f4	 lea	 eax, DWORD PTR __$EHRec$[ebp]
  0001f	64 a3 00 00 00
	00		 mov	 DWORD PTR fs:0, eax
  00025	8b f1		 mov	 esi, ecx
  00027	8b 5d 08	 mov	 ebx, DWORD PTR ___flags$[ebp]
  0002a	f6 c3 02	 test	 bl, 2
  0002d	74 4a		 je	 SHORT $LN2@vector
  0002f	68 00 00 00 00	 push	 OFFSET ??1TiXmlDeclaration@@UAE@XZ ; TiXmlDeclaration::~TiXmlDeclaration
  00034	ff 76 fc	 push	 DWORD PTR [esi-4]
  00037	8d 7e fc	 lea	 edi, DWORD PTR [esi-4]
  0003a	6a 38		 push	 56			; 00000038H
  0003c	56		 push	 esi
  0003d	e8 00 00 00 00	 call	 ??_M@YGXPAXIIP6EX0@Z@Z
  00042	f6 c3 01	 test	 bl, 1
  00045	74 1c		 je	 SHORT $LN3@vector
  00047	8b 0f		 mov	 ecx, DWORD PTR [edi]
  00049	8d 14 cd 00 00
	00 00		 lea	 edx, DWORD PTR [ecx*8]
  00050	2b d1		 sub	 edx, ecx
  00052	8d 0c d5 04 00
	00 00		 lea	 ecx, DWORD PTR [edx*8+4]
  00059	51		 push	 ecx
  0005a	57		 push	 edi
  0005b	e8 00 00 00 00	 call	 ??_V@YAXPAXI@Z		; operator delete[]
  00060	83 c4 08	 add	 esp, 8
$LN3@vector:
  00063	8b c7		 mov	 eax, edi
  00065	8b 4d f4	 mov	 ecx, DWORD PTR __$EHRec$[ebp]
  00068	64 89 0d 00 00
	00 00		 mov	 DWORD PTR fs:0, ecx
  0006f	59		 pop	 ecx
  00070	5f		 pop	 edi
  00071	5e		 pop	 esi
  00072	5b		 pop	 ebx
  00073	8b e5		 mov	 esp, ebp
  00075	5d		 pop	 ebp
  00076	c2 04 00	 ret	 4
$LN2@vector:

; 1308 : 	virtual ~TiXmlDeclaration()	{}

  00079	c7 06 00 00 00
	00		 mov	 DWORD PTR [esi], OFFSET ??_7TiXmlDeclaration@@6B@
; File E:\Proyectos\JuegosOnlineproyectos\PB\pbblow\Piercing Blow Remake\i3Server\include\i3Base\tinystr.h

; 257  : 		if (rep_ != &nullrep_)

  0007f	8b 46 34	 mov	 eax, DWORD PTR [esi+52]
  00082	3d 00 00 00 00	 cmp	 eax, OFFSET ?nullrep_@TiXmlString@@0URep@1@A ; TiXmlString::nullrep_
  00087	74 09		 je	 SHORT $LN16@vector

; 258  : 		{
; 259  : 			// The rep_ is really an array of ints. (see the allocator, above).
; 260  : 			// Cast it back before delete, so the compiler won't incorrectly call destructors.
; 261  : 			delete [] ( reinterpret_cast<int*>( rep_ ) );

  00089	50		 push	 eax
  0008a	e8 00 00 00 00	 call	 ??_V@YAXPAX@Z		; operator delete[]
  0008f	83 c4 04	 add	 esp, 4
$LN16@vector:

; 257  : 		if (rep_ != &nullrep_)

  00092	8b 46 30	 mov	 eax, DWORD PTR [esi+48]
  00095	3d 00 00 00 00	 cmp	 eax, OFFSET ?nullrep_@TiXmlString@@0URep@1@A ; TiXmlString::nullrep_
  0009a	74 09		 je	 SHORT $LN22@vector

; 258  : 		{
; 259  : 			// The rep_ is really an array of ints. (see the allocator, above).
; 260  : 			// Cast it back before delete, so the compiler won't incorrectly call destructors.
; 261  : 			delete [] ( reinterpret_cast<int*>( rep_ ) );

  0009c	50		 push	 eax
  0009d	e8 00 00 00 00	 call	 ??_V@YAXPAX@Z		; operator delete[]
  000a2	83 c4 04	 add	 esp, 4
$LN22@vector:

; 257  : 		if (rep_ != &nullrep_)

  000a5	8b 46 2c	 mov	 eax, DWORD PTR [esi+44]
  000a8	3d 00 00 00 00	 cmp	 eax, OFFSET ?nullrep_@TiXmlString@@0URep@1@A ; TiXmlString::nullrep_
  000ad	74 09		 je	 SHORT $LN28@vector

; 258  : 		{
; 259  : 			// The rep_ is really an array of ints. (see the allocator, above).
; 260  : 			// Cast it back before delete, so the compiler won't incorrectly call destructors.
; 261  : 			delete [] ( reinterpret_cast<int*>( rep_ ) );

  000af	50		 push	 eax
  000b0	e8 00 00 00 00	 call	 ??_V@YAXPAX@Z		; operator delete[]
  000b5	83 c4 04	 add	 esp, 4
$LN28@vector:
; File E:\Proyectos\JuegosOnlineproyectos\PB\pbblow\Piercing Blow Remake\i3Server\include\i3Base\tinyxml.h

; 1308 : 	virtual ~TiXmlDeclaration()	{}

  000b8	8b ce		 mov	 ecx, esi
  000ba	e8 00 00 00 00	 call	 ??1TiXmlNode@@UAE@XZ	; TiXmlNode::~TiXmlNode
  000bf	f6 c3 01	 test	 bl, 1
  000c2	74 0b		 je	 SHORT $LN4@vector
  000c4	6a 38		 push	 56			; 00000038H
  000c6	56		 push	 esi
  000c7	e8 00 00 00 00	 call	 ??3@YAXPAXI@Z		; operator delete
  000cc	83 c4 08	 add	 esp, 8
$LN4@vector:
  000cf	8b c6		 mov	 eax, esi
  000d1	8b 4d f4	 mov	 ecx, DWORD PTR __$EHRec$[ebp]
  000d4	64 89 0d 00 00
	00 00		 mov	 DWORD PTR fs:0, ecx
  000db	59		 pop	 ecx
  000dc	5f		 pop	 edi
  000dd	5e		 pop	 esi
  000de	5b		 pop	 ebx
  000df	8b e5		 mov	 esp, ebp
  000e1	5d		 pop	 ebp
  000e2	c2 04 00	 ret	 4
  000e5	cc		 int	 3
  000e6	cc		 int	 3
  000e7	cc		 int	 3
  000e8	cc		 int	 3
  000e9	cc		 int	 3
_TEXT	ENDS
;	COMDAT text$x
text$x	SEGMENT
__ehhandler$??_ETiXmlDeclaration@@UAEPAXI@Z:
  00000	90		 npad	 1
  00001	90		 npad	 1
  00002	8b 54 24 08	 mov	 edx, DWORD PTR [esp+8]
  00006	8d 42 0c	 lea	 eax, DWORD PTR [edx+12]
  00009	8b 4a f0	 mov	 ecx, DWORD PTR [edx-16]
  0000c	33 c8		 xor	 ecx, eax
  0000e	e8 00 00 00 00	 call	 @__security_check_cookie@4
  00013	b8 00 00 00 00	 mov	 eax, OFFSET __ehfuncinfo$??_ETiXmlDeclaration@@UAEPAXI@Z
  00018	e9 00 00 00 00	 jmp	 ___CxxFrameHandler3
text$x	ENDS
??_ETiXmlDeclaration@@UAEPAXI@Z ENDP			; TiXmlDeclaration::`vector deleting destructor'
; Function compile flags: /Ogtp
; File E:\Proyectos\JuegosOnlineproyectos\PB\pbblow\Piercing Blow Remake\i3Server\include\i3Base\tinyxml.h
; File E:\Proyectos\JuegosOnlineproyectos\PB\pbblow\Piercing Blow Remake\i3Server\include\i3Base\tinystr.h
; File E:\Proyectos\JuegosOnlineproyectos\PB\pbblow\Piercing Blow Remake\i3Server\include\i3Base\tinyxml.h
;	COMDAT ??_GTiXmlDeclaration@@UAEPAXI@Z
_TEXT	SEGMENT
___flags$ = 8						; size = 4
??_GTiXmlDeclaration@@UAEPAXI@Z PROC			; TiXmlDeclaration::`scalar deleting destructor', COMDAT
; _this$ = ecx
  00000	55		 push	 ebp
  00001	8b ec		 mov	 ebp, esp

; 1308 : 	virtual ~TiXmlDeclaration()	{}

  00003	56		 push	 esi
  00004	8b f1		 mov	 esi, ecx
  00006	c7 06 00 00 00
	00		 mov	 DWORD PTR [esi], OFFSET ??_7TiXmlDeclaration@@6B@
; File E:\Proyectos\JuegosOnlineproyectos\PB\pbblow\Piercing Blow Remake\i3Server\include\i3Base\tinystr.h

; 257  : 		if (rep_ != &nullrep_)

  0000c	8b 46 34	 mov	 eax, DWORD PTR [esi+52]
  0000f	3d 00 00 00 00	 cmp	 eax, OFFSET ?nullrep_@TiXmlString@@0URep@1@A ; TiXmlString::nullrep_
  00014	74 09		 je	 SHORT $LN14@scalar

; 258  : 		{
; 259  : 			// The rep_ is really an array of ints. (see the allocator, above).
; 260  : 			// Cast it back before delete, so the compiler won't incorrectly call destructors.
; 261  : 			delete [] ( reinterpret_cast<int*>( rep_ ) );

  00016	50		 push	 eax
  00017	e8 00 00 00 00	 call	 ??_V@YAXPAX@Z		; operator delete[]
  0001c	83 c4 04	 add	 esp, 4
$LN14@scalar:

; 257  : 		if (rep_ != &nullrep_)

  0001f	8b 46 30	 mov	 eax, DWORD PTR [esi+48]
  00022	3d 00 00 00 00	 cmp	 eax, OFFSET ?nullrep_@TiXmlString@@0URep@1@A ; TiXmlString::nullrep_
  00027	74 09		 je	 SHORT $LN20@scalar

; 258  : 		{
; 259  : 			// The rep_ is really an array of ints. (see the allocator, above).
; 260  : 			// Cast it back before delete, so the compiler won't incorrectly call destructors.
; 261  : 			delete [] ( reinterpret_cast<int*>( rep_ ) );

  00029	50		 push	 eax
  0002a	e8 00 00 00 00	 call	 ??_V@YAXPAX@Z		; operator delete[]
  0002f	83 c4 04	 add	 esp, 4
$LN20@scalar:

; 257  : 		if (rep_ != &nullrep_)

  00032	8b 46 2c	 mov	 eax, DWORD PTR [esi+44]
  00035	3d 00 00 00 00	 cmp	 eax, OFFSET ?nullrep_@TiXmlString@@0URep@1@A ; TiXmlString::nullrep_
  0003a	74 09		 je	 SHORT $LN26@scalar

; 258  : 		{
; 259  : 			// The rep_ is really an array of ints. (see the allocator, above).
; 260  : 			// Cast it back before delete, so the compiler won't incorrectly call destructors.
; 261  : 			delete [] ( reinterpret_cast<int*>( rep_ ) );

  0003c	50		 push	 eax
  0003d	e8 00 00 00 00	 call	 ??_V@YAXPAX@Z		; operator delete[]
  00042	83 c4 04	 add	 esp, 4
$LN26@scalar:
; File E:\Proyectos\JuegosOnlineproyectos\PB\pbblow\Piercing Blow Remake\i3Server\include\i3Base\tinyxml.h

; 1308 : 	virtual ~TiXmlDeclaration()	{}

  00045	8b ce		 mov	 ecx, esi
  00047	e8 00 00 00 00	 call	 ??1TiXmlNode@@UAE@XZ	; TiXmlNode::~TiXmlNode
  0004c	f6 45 08 01	 test	 BYTE PTR ___flags$[ebp], 1
  00050	74 0b		 je	 SHORT $LN28@scalar
  00052	6a 38		 push	 56			; 00000038H
  00054	56		 push	 esi
  00055	e8 00 00 00 00	 call	 ??3@YAXPAXI@Z		; operator delete
  0005a	83 c4 08	 add	 esp, 8
$LN28@scalar:
  0005d	8b c6		 mov	 eax, esi
  0005f	5e		 pop	 esi
  00060	5d		 pop	 ebp
  00061	c2 04 00	 ret	 4
??_GTiXmlDeclaration@@UAEPAXI@Z ENDP			; TiXmlDeclaration::`scalar deleting destructor'
_TEXT	ENDS
; Function compile flags: /Ogtp
; File E:\Proyectos\JuegosOnlineproyectos\PB\pbblow\Piercing Blow Remake\i3Server\include\i3Base\tinyxml.h
;	COMDAT ?ToDeclaration@TiXmlDeclaration@@UAEPAV1@XZ
_TEXT	SEGMENT
?ToDeclaration@TiXmlDeclaration@@UAEPAV1@XZ PROC	; TiXmlDeclaration::ToDeclaration, COMDAT
; _this$ = ecx

; 1328 : 	virtual TiXmlDeclaration*       ToDeclaration()       { return this; } ///< Cast to a more defined type. Will return null not of the requested type.

  00000	8b c1		 mov	 eax, ecx
  00002	c3		 ret	 0
?ToDeclaration@TiXmlDeclaration@@UAEPAV1@XZ ENDP	; TiXmlDeclaration::ToDeclaration
_TEXT	ENDS
; Function compile flags: /Ogtp
; File E:\Proyectos\JuegosOnlineproyectos\PB\pbblow\Piercing Blow Remake\i3Server\include\i3Base\tinyxml.h
;	COMDAT ?ToDeclaration@TiXmlDeclaration@@UBEPBV1@XZ
_TEXT	SEGMENT
?ToDeclaration@TiXmlDeclaration@@UBEPBV1@XZ PROC	; TiXmlDeclaration::ToDeclaration, COMDAT
; _this$ = ecx

; 1327 : 	virtual const TiXmlDeclaration* ToDeclaration() const { return this; } ///< Cast to a more defined type. Will return null not of the requested type.

  00000	8b c1		 mov	 eax, ecx
  00002	c3		 ret	 0
?ToDeclaration@TiXmlDeclaration@@UBEPBV1@XZ ENDP	; TiXmlDeclaration::ToDeclaration
_TEXT	ENDS
; Function compile flags: /Ogtp
; File E:\Proyectos\JuegosOnlineproyectos\PB\pbblow\Piercing Blow Remake\i3Server\include\i3Base\tinyxml.h
;	COMDAT ?Print@TiXmlDeclaration@@UBEXPAVi3FileStream@@H@Z
_TEXT	SEGMENT
_cfile$ = 8						; size = 4
_depth$ = 12						; size = 4
?Print@TiXmlDeclaration@@UBEXPAVi3FileStream@@H@Z PROC	; TiXmlDeclaration::Print, COMDAT
; _this$ = ecx

; 1321 : 	virtual void Print( i3FileStream* cfile, int depth ) const {

  00000	55		 push	 ebp
  00001	8b ec		 mov	 ebp, esp

; 1322 : 		Print( cfile, depth, 0 );

  00003	8b 01		 mov	 eax, DWORD PTR [ecx]
  00005	6a 00		 push	 0
  00007	ff 75 0c	 push	 DWORD PTR _depth$[ebp]
  0000a	ff 75 08	 push	 DWORD PTR _cfile$[ebp]
  0000d	ff 50 44	 call	 DWORD PTR [eax+68]

; 1323 : 	}

  00010	5d		 pop	 ebp
  00011	c2 08 00	 ret	 8
?Print@TiXmlDeclaration@@UBEXPAVi3FileStream@@H@Z ENDP	; TiXmlDeclaration::Print
_TEXT	ENDS
; Function compile flags: /Ogtp
; File E:\Proyectos\JuegosOnlineproyectos\PB\pbblow\Piercing Blow Remake\i3Server\include\i3Base\tinyxml.h
; File E:\Proyectos\JuegosOnlineproyectos\PB\pbblow\Piercing Blow Remake\i3Server\include\i3Base\tinystr.h
; File E:\Proyectos\JuegosOnlineproyectos\PB\pbblow\Piercing Blow Remake\i3Server\include\i3Base\tinyxml.h
;	COMDAT ?Standalone@TiXmlDeclaration@@QBEPBDXZ
_TEXT	SEGMENT
?Standalone@TiXmlDeclaration@@QBEPBDXZ PROC		; TiXmlDeclaration::Standalone, COMDAT
; _this$ = ecx
; File E:\Proyectos\JuegosOnlineproyectos\PB\pbblow\Piercing Blow Remake\i3Server\include\i3Base\tinystr.h

; 144  : 	const char * c_str () const { return rep_->str; }

  00000	8b 41 34	 mov	 eax, DWORD PTR [ecx+52]
  00003	83 c0 08	 add	 eax, 8
; File E:\Proyectos\JuegosOnlineproyectos\PB\pbblow\Piercing Blow Remake\i3Server\include\i3Base\tinyxml.h

; 1315 : 	const char *Standalone() const		{ return standalone.c_str (); }

  00006	c3		 ret	 0
?Standalone@TiXmlDeclaration@@QBEPBDXZ ENDP		; TiXmlDeclaration::Standalone
_TEXT	ENDS
; Function compile flags: /Ogtp
; File E:\Proyectos\JuegosOnlineproyectos\PB\pbblow\Piercing Blow Remake\i3Server\include\i3Base\tinyxml.h
; File E:\Proyectos\JuegosOnlineproyectos\PB\pbblow\Piercing Blow Remake\i3Server\include\i3Base\tinystr.h
; File E:\Proyectos\JuegosOnlineproyectos\PB\pbblow\Piercing Blow Remake\i3Server\include\i3Base\tinyxml.h
;	COMDAT ?Encoding@TiXmlDeclaration@@QBEPBDXZ
_TEXT	SEGMENT
?Encoding@TiXmlDeclaration@@QBEPBDXZ PROC		; TiXmlDeclaration::Encoding, COMDAT
; _this$ = ecx
; File E:\Proyectos\JuegosOnlineproyectos\PB\pbblow\Piercing Blow Remake\i3Server\include\i3Base\tinystr.h

; 144  : 	const char * c_str () const { return rep_->str; }

  00000	8b 41 30	 mov	 eax, DWORD PTR [ecx+48]
  00003	83 c0 08	 add	 eax, 8
; File E:\Proyectos\JuegosOnlineproyectos\PB\pbblow\Piercing Blow Remake\i3Server\include\i3Base\tinyxml.h

; 1313 : 	const char *Encoding() const		{ return encoding.c_str (); }

  00006	c3		 ret	 0
?Encoding@TiXmlDeclaration@@QBEPBDXZ ENDP		; TiXmlDeclaration::Encoding
_TEXT	ENDS
; Function compile flags: /Ogtp
; File E:\Proyectos\JuegosOnlineproyectos\PB\pbblow\Piercing Blow Remake\i3Server\include\i3Base\tinyxml.h
; File E:\Proyectos\JuegosOnlineproyectos\PB\pbblow\Piercing Blow Remake\i3Server\include\i3Base\tinystr.h
; File E:\Proyectos\JuegosOnlineproyectos\PB\pbblow\Piercing Blow Remake\i3Server\include\i3Base\tinyxml.h
;	COMDAT ?Version@TiXmlDeclaration@@QBEPBDXZ
_TEXT	SEGMENT
?Version@TiXmlDeclaration@@QBEPBDXZ PROC		; TiXmlDeclaration::Version, COMDAT
; _this$ = ecx
; File E:\Proyectos\JuegosOnlineproyectos\PB\pbblow\Piercing Blow Remake\i3Server\include\i3Base\tinystr.h

; 144  : 	const char * c_str () const { return rep_->str; }

  00000	8b 41 2c	 mov	 eax, DWORD PTR [ecx+44]
  00003	83 c0 08	 add	 eax, 8
; File E:\Proyectos\JuegosOnlineproyectos\PB\pbblow\Piercing Blow Remake\i3Server\include\i3Base\tinyxml.h

; 1311 : 	const char *Version() const			{ return version.c_str (); }

  00006	c3		 ret	 0
?Version@TiXmlDeclaration@@QBEPBDXZ ENDP		; TiXmlDeclaration::Version
_TEXT	ENDS
; Function compile flags: /Ogtp
; File E:\Proyectos\JuegosOnlineproyectos\PB\pbblow\Piercing Blow Remake\i3Server\include\i3Base\tinyxml.h
; File E:\Proyectos\JuegosOnlineproyectos\PB\pbblow\Piercing Blow Remake\i3Server\include\i3Base\tinystr.h
; File E:\Proyectos\JuegosOnlineproyectos\PB\pbblow\Piercing Blow Remake\i3Server\include\i3Base\tinyxml.h
;	COMDAT ??1TiXmlDeclaration@@UAE@XZ
_TEXT	SEGMENT
??1TiXmlDeclaration@@UAE@XZ PROC			; TiXmlDeclaration::~TiXmlDeclaration, COMDAT
; _this$ = ecx

; 1308 : 	virtual ~TiXmlDeclaration()	{}

  00000	56		 push	 esi
  00001	8b f1		 mov	 esi, ecx
  00003	c7 06 00 00 00
	00		 mov	 DWORD PTR [esi], OFFSET ??_7TiXmlDeclaration@@6B@
; File E:\Proyectos\JuegosOnlineproyectos\PB\pbblow\Piercing Blow Remake\i3Server\include\i3Base\tinystr.h

; 257  : 		if (rep_ != &nullrep_)

  00009	8b 46 34	 mov	 eax, DWORD PTR [esi+52]
  0000c	3d 00 00 00 00	 cmp	 eax, OFFSET ?nullrep_@TiXmlString@@0URep@1@A ; TiXmlString::nullrep_
  00011	74 09		 je	 SHORT $LN8@TiXmlDecla

; 258  : 		{
; 259  : 			// The rep_ is really an array of ints. (see the allocator, above).
; 260  : 			// Cast it back before delete, so the compiler won't incorrectly call destructors.
; 261  : 			delete [] ( reinterpret_cast<int*>( rep_ ) );

  00013	50		 push	 eax
  00014	e8 00 00 00 00	 call	 ??_V@YAXPAX@Z		; operator delete[]
  00019	83 c4 04	 add	 esp, 4
$LN8@TiXmlDecla:

; 257  : 		if (rep_ != &nullrep_)

  0001c	8b 46 30	 mov	 eax, DWORD PTR [esi+48]
  0001f	3d 00 00 00 00	 cmp	 eax, OFFSET ?nullrep_@TiXmlString@@0URep@1@A ; TiXmlString::nullrep_
  00024	74 09		 je	 SHORT $LN14@TiXmlDecla

; 258  : 		{
; 259  : 			// The rep_ is really an array of ints. (see the allocator, above).
; 260  : 			// Cast it back before delete, so the compiler won't incorrectly call destructors.
; 261  : 			delete [] ( reinterpret_cast<int*>( rep_ ) );

  00026	50		 push	 eax
  00027	e8 00 00 00 00	 call	 ??_V@YAXPAX@Z		; operator delete[]
  0002c	83 c4 04	 add	 esp, 4
$LN14@TiXmlDecla:

; 257  : 		if (rep_ != &nullrep_)

  0002f	8b 46 2c	 mov	 eax, DWORD PTR [esi+44]
  00032	3d 00 00 00 00	 cmp	 eax, OFFSET ?nullrep_@TiXmlString@@0URep@1@A ; TiXmlString::nullrep_
  00037	74 09		 je	 SHORT $LN20@TiXmlDecla

; 258  : 		{
; 259  : 			// The rep_ is really an array of ints. (see the allocator, above).
; 260  : 			// Cast it back before delete, so the compiler won't incorrectly call destructors.
; 261  : 			delete [] ( reinterpret_cast<int*>( rep_ ) );

  00039	50		 push	 eax
  0003a	e8 00 00 00 00	 call	 ??_V@YAXPAX@Z		; operator delete[]
  0003f	83 c4 04	 add	 esp, 4
$LN20@TiXmlDecla:
; File E:\Proyectos\JuegosOnlineproyectos\PB\pbblow\Piercing Blow Remake\i3Server\include\i3Base\tinyxml.h

; 1308 : 	virtual ~TiXmlDeclaration()	{}

  00042	8b ce		 mov	 ecx, esi
  00044	5e		 pop	 esi
  00045	e9 00 00 00 00	 jmp	 ??1TiXmlNode@@UAE@XZ	; TiXmlNode::~TiXmlNode
??1TiXmlDeclaration@@UAE@XZ ENDP			; TiXmlDeclaration::~TiXmlDeclaration
_TEXT	ENDS
; Function compile flags: /Ogtp
; File E:\Proyectos\JuegosOnlineproyectos\PB\pbblow\Piercing Blow Remake\i3Server\include\i3Base\tinyxml.h
; File E:\Proyectos\JuegosOnlineproyectos\PB\pbblow\Piercing Blow Remake\i3Server\include\i3Base\tinystr.h
; File E:\Proyectos\JuegosOnlineproyectos\PB\pbblow\Piercing Blow Remake\i3Server\include\i3Base\tinyxml.h
;	COMDAT ??0TiXmlDeclaration@@QAE@XZ
_TEXT	SEGMENT
_this$ = -4						; size = 4
??0TiXmlDeclaration@@QAE@XZ PROC			; TiXmlDeclaration::TiXmlDeclaration, COMDAT
; _this$ = ecx

; 1291 : 	TiXmlDeclaration()   : TiXmlNode( TiXmlNode::DECLARATION ) {}

  00000	55		 push	 ebp
  00001	8b ec		 mov	 ebp, esp
  00003	51		 push	 ecx
  00004	56		 push	 esi
  00005	8b f1		 mov	 esi, ecx
  00007	6a 05		 push	 5
  00009	89 75 fc	 mov	 DWORD PTR _this$[ebp], esi
  0000c	e8 00 00 00 00	 call	 ??0TiXmlNode@@IAE@W4NodeType@0@@Z ; TiXmlNode::TiXmlNode
  00011	c7 06 00 00 00
	00		 mov	 DWORD PTR [esi], OFFSET ??_7TiXmlDeclaration@@6B@
  00017	8b c6		 mov	 eax, esi
; File E:\Proyectos\JuegosOnlineproyectos\PB\pbblow\Piercing Blow Remake\i3Server\include\i3Base\tinystr.h

; 80   : 	TiXmlString () : rep_(&nullrep_)

  00019	c7 46 2c 00 00
	00 00		 mov	 DWORD PTR [esi+44], OFFSET ?nullrep_@TiXmlString@@0URep@1@A ; TiXmlString::nullrep_
  00020	c7 46 30 00 00
	00 00		 mov	 DWORD PTR [esi+48], OFFSET ?nullrep_@TiXmlString@@0URep@1@A ; TiXmlString::nullrep_
  00027	c7 46 34 00 00
	00 00		 mov	 DWORD PTR [esi+52], OFFSET ?nullrep_@TiXmlString@@0URep@1@A ; TiXmlString::nullrep_
; File E:\Proyectos\JuegosOnlineproyectos\PB\pbblow\Piercing Blow Remake\i3Server\include\i3Base\tinyxml.h

; 1291 : 	TiXmlDeclaration()   : TiXmlNode( TiXmlNode::DECLARATION ) {}

  0002e	5e		 pop	 esi
  0002f	8b e5		 mov	 esp, ebp
  00031	5d		 pop	 ebp
  00032	c3		 ret	 0
??0TiXmlDeclaration@@QAE@XZ ENDP			; TiXmlDeclaration::TiXmlDeclaration
_TEXT	ENDS
; Function compile flags: /Ogtp
; File E:\Proyectos\JuegosOnlineproyectos\PB\pbblow\Piercing Blow Remake\i3Server\include\i3Base\tinyxml.h
;	COMDAT ??_ETiXmlText@@UAEPAXI@Z
_TEXT	SEGMENT
__$EHRec$ = -12						; size = 12
___flags$ = 8						; size = 4
??_ETiXmlText@@UAEPAXI@Z PROC				; TiXmlText::`vector deleting destructor', COMDAT
; _this$ = ecx
  00000	55		 push	 ebp
  00001	8b ec		 mov	 ebp, esp
  00003	6a ff		 push	 -1
  00005	68 00 00 00 00	 push	 __ehhandler$??_ETiXmlText@@UAEPAXI@Z
  0000a	64 a1 00 00 00
	00		 mov	 eax, DWORD PTR fs:0
  00010	50		 push	 eax
  00011	53		 push	 ebx
  00012	56		 push	 esi
  00013	57		 push	 edi
  00014	a1 00 00 00 00	 mov	 eax, DWORD PTR ___security_cookie
  00019	33 c5		 xor	 eax, ebp
  0001b	50		 push	 eax
  0001c	8d 45 f4	 lea	 eax, DWORD PTR __$EHRec$[ebp]
  0001f	64 a3 00 00 00
	00		 mov	 DWORD PTR fs:0, eax
  00025	8b f1		 mov	 esi, ecx
  00027	8b 45 08	 mov	 eax, DWORD PTR ___flags$[ebp]
  0002a	8b f8		 mov	 edi, eax
  0002c	83 e7 01	 and	 edi, 1
  0002f	a8 02		 test	 al, 2
  00031	74 42		 je	 SHORT $LN2@vector
  00033	68 00 00 00 00	 push	 OFFSET ??1TiXmlText@@UAE@XZ ; TiXmlText::~TiXmlText
  00038	ff 76 fc	 push	 DWORD PTR [esi-4]
  0003b	8d 5e fc	 lea	 ebx, DWORD PTR [esi-4]
  0003e	6a 30		 push	 48			; 00000030H
  00040	56		 push	 esi
  00041	e8 00 00 00 00	 call	 ??_M@YGXPAXIIP6EX0@Z@Z
  00046	85 ff		 test	 edi, edi
  00048	74 15		 je	 SHORT $LN3@vector
  0004a	8b 0b		 mov	 ecx, DWORD PTR [ebx]
  0004c	8d 0c 49	 lea	 ecx, DWORD PTR [ecx+ecx*2]
  0004f	c1 e1 04	 shl	 ecx, 4
  00052	83 c1 04	 add	 ecx, 4
  00055	51		 push	 ecx
  00056	53		 push	 ebx
  00057	e8 00 00 00 00	 call	 ??_V@YAXPAXI@Z		; operator delete[]
  0005c	83 c4 08	 add	 esp, 8
$LN3@vector:
  0005f	8b c3		 mov	 eax, ebx
  00061	8b 4d f4	 mov	 ecx, DWORD PTR __$EHRec$[ebp]
  00064	64 89 0d 00 00
	00 00		 mov	 DWORD PTR fs:0, ecx
  0006b	59		 pop	 ecx
  0006c	5f		 pop	 edi
  0006d	5e		 pop	 esi
  0006e	5b		 pop	 ebx
  0006f	8b e5		 mov	 esp, ebp
  00071	5d		 pop	 ebp
  00072	c2 04 00	 ret	 4
$LN2@vector:

; 1227 : 	virtual ~TiXmlText() {}

  00075	c7 06 00 00 00
	00		 mov	 DWORD PTR [esi], OFFSET ??_7TiXmlText@@6B@
  0007b	e8 00 00 00 00	 call	 ??1TiXmlNode@@UAE@XZ	; TiXmlNode::~TiXmlNode
  00080	85 ff		 test	 edi, edi
  00082	74 0b		 je	 SHORT $LN4@vector
  00084	6a 30		 push	 48			; 00000030H
  00086	56		 push	 esi
  00087	e8 00 00 00 00	 call	 ??3@YAXPAXI@Z		; operator delete
  0008c	83 c4 08	 add	 esp, 8
$LN4@vector:
  0008f	8b c6		 mov	 eax, esi
  00091	8b 4d f4	 mov	 ecx, DWORD PTR __$EHRec$[ebp]
  00094	64 89 0d 00 00
	00 00		 mov	 DWORD PTR fs:0, ecx
  0009b	59		 pop	 ecx
  0009c	5f		 pop	 edi
  0009d	5e		 pop	 esi
  0009e	5b		 pop	 ebx
  0009f	8b e5		 mov	 esp, ebp
  000a1	5d		 pop	 ebp
  000a2	c2 04 00	 ret	 4
  000a5	cc		 int	 3
  000a6	cc		 int	 3
  000a7	cc		 int	 3
  000a8	cc		 int	 3
  000a9	cc		 int	 3
_TEXT	ENDS
;	COMDAT text$x
text$x	SEGMENT
__ehhandler$??_ETiXmlText@@UAEPAXI@Z:
  00000	90		 npad	 1
  00001	90		 npad	 1
  00002	8b 54 24 08	 mov	 edx, DWORD PTR [esp+8]
  00006	8d 42 0c	 lea	 eax, DWORD PTR [edx+12]
  00009	8b 4a f0	 mov	 ecx, DWORD PTR [edx-16]
  0000c	33 c8		 xor	 ecx, eax
  0000e	e8 00 00 00 00	 call	 @__security_check_cookie@4
  00013	b8 00 00 00 00	 mov	 eax, OFFSET __ehfuncinfo$??_ETiXmlText@@UAEPAXI@Z
  00018	e9 00 00 00 00	 jmp	 ___CxxFrameHandler3
text$x	ENDS
??_ETiXmlText@@UAEPAXI@Z ENDP				; TiXmlText::`vector deleting destructor'
; Function compile flags: /Ogtp
; File E:\Proyectos\JuegosOnlineproyectos\PB\pbblow\Piercing Blow Remake\i3Server\include\i3Base\tinyxml.h
;	COMDAT ??_GTiXmlText@@UAEPAXI@Z
_TEXT	SEGMENT
___flags$ = 8						; size = 4
??_GTiXmlText@@UAEPAXI@Z PROC				; TiXmlText::`scalar deleting destructor', COMDAT
; _this$ = ecx
  00000	55		 push	 ebp
  00001	8b ec		 mov	 ebp, esp

; 1227 : 	virtual ~TiXmlText() {}

  00003	56		 push	 esi
  00004	8b f1		 mov	 esi, ecx
  00006	c7 06 00 00 00
	00		 mov	 DWORD PTR [esi], OFFSET ??_7TiXmlText@@6B@
  0000c	e8 00 00 00 00	 call	 ??1TiXmlNode@@UAE@XZ	; TiXmlNode::~TiXmlNode
  00011	f6 45 08 01	 test	 BYTE PTR ___flags$[ebp], 1
  00015	74 0b		 je	 SHORT $LN10@scalar
  00017	6a 30		 push	 48			; 00000030H
  00019	56		 push	 esi
  0001a	e8 00 00 00 00	 call	 ??3@YAXPAXI@Z		; operator delete
  0001f	83 c4 08	 add	 esp, 8
$LN10@scalar:
  00022	8b c6		 mov	 eax, esi
  00024	5e		 pop	 esi
  00025	5d		 pop	 ebp
  00026	c2 04 00	 ret	 4
??_GTiXmlText@@UAEPAXI@Z ENDP				; TiXmlText::`scalar deleting destructor'
_TEXT	ENDS
; Function compile flags: /Ogtp
; File E:\Proyectos\JuegosOnlineproyectos\PB\pbblow\Piercing Blow Remake\i3Server\include\i3Base\tinyxml.h
;	COMDAT ?ToText@TiXmlText@@UAEPAV1@XZ
_TEXT	SEGMENT
?ToText@TiXmlText@@UAEPAV1@XZ PROC			; TiXmlText::ToText, COMDAT
; _this$ = ecx

; 1252 : 	virtual TiXmlText*       ToText()       { return this; } ///< Cast to a more defined type. Will return null not of the requested type.

  00000	8b c1		 mov	 eax, ecx
  00002	c3		 ret	 0
?ToText@TiXmlText@@UAEPAV1@XZ ENDP			; TiXmlText::ToText
_TEXT	ENDS
; Function compile flags: /Ogtp
; File E:\Proyectos\JuegosOnlineproyectos\PB\pbblow\Piercing Blow Remake\i3Server\include\i3Base\tinyxml.h
;	COMDAT ?ToText@TiXmlText@@UBEPBV1@XZ
_TEXT	SEGMENT
?ToText@TiXmlText@@UBEPBV1@XZ PROC			; TiXmlText::ToText, COMDAT
; _this$ = ecx

; 1251 : 	virtual const TiXmlText* ToText() const { return this; } ///< Cast to a more defined type. Will return null not of the requested type.

  00000	8b c1		 mov	 eax, ecx
  00002	c3		 ret	 0
?ToText@TiXmlText@@UBEPBV1@XZ ENDP			; TiXmlText::ToText
_TEXT	ENDS
; Function compile flags: /Ogtp
; File E:\Proyectos\JuegosOnlineproyectos\PB\pbblow\Piercing Blow Remake\i3Server\include\i3Base\tinyxml.h
;	COMDAT ?SetCDATA@TiXmlText@@QAEX_N@Z
_TEXT	SEGMENT
__cdata$ = 8						; size = 1
?SetCDATA@TiXmlText@@QAEX_N@Z PROC			; TiXmlText::SetCDATA, COMDAT
; _this$ = ecx

; 1247 : 	void SetCDATA( bool _cdata )	{ cdata = _cdata; }

  00000	55		 push	 ebp
  00001	8b ec		 mov	 ebp, esp
  00003	8a 45 08	 mov	 al, BYTE PTR __cdata$[ebp]
  00006	88 41 2c	 mov	 BYTE PTR [ecx+44], al
  00009	5d		 pop	 ebp
  0000a	c2 04 00	 ret	 4
?SetCDATA@TiXmlText@@QAEX_N@Z ENDP			; TiXmlText::SetCDATA
_TEXT	ENDS
; Function compile flags: /Ogtp
; File E:\Proyectos\JuegosOnlineproyectos\PB\pbblow\Piercing Blow Remake\i3Server\include\i3Base\tinyxml.h
;	COMDAT ?CDATA@TiXmlText@@QBE_NXZ
_TEXT	SEGMENT
?CDATA@TiXmlText@@QBE_NXZ PROC				; TiXmlText::CDATA, COMDAT
; _this$ = ecx

; 1245 : 	bool CDATA() const				{ return cdata; }

  00000	8a 41 2c	 mov	 al, BYTE PTR [ecx+44]
  00003	c3		 ret	 0
?CDATA@TiXmlText@@QBE_NXZ ENDP				; TiXmlText::CDATA
_TEXT	ENDS
; Function compile flags: /Ogtp
; File E:\Proyectos\JuegosOnlineproyectos\PB\pbblow\Piercing Blow Remake\i3Server\include\i3Base\tinyxml.h
;	COMDAT ??4TiXmlText@@QAEXABV0@@Z
_TEXT	SEGMENT
_base$ = 8						; size = 4
??4TiXmlText@@QAEXABV0@@Z PROC				; TiXmlText::operator=, COMDAT
; _this$ = ecx

; 1239 : 	void operator=( const TiXmlText& base )							 	{ base.CopyTo( this ); }

  00000	55		 push	 ebp
  00001	8b ec		 mov	 ebp, esp
  00003	51		 push	 ecx
  00004	8b 4d 08	 mov	 ecx, DWORD PTR _base$[ebp]
  00007	e8 00 00 00 00	 call	 ?CopyTo@TiXmlText@@IBEXPAV1@@Z ; TiXmlText::CopyTo
  0000c	5d		 pop	 ebp
  0000d	c2 04 00	 ret	 4
??4TiXmlText@@QAEXABV0@@Z ENDP				; TiXmlText::operator=
_TEXT	ENDS
; Function compile flags: /Ogtp
; File E:\Proyectos\JuegosOnlineproyectos\PB\pbblow\Piercing Blow Remake\i3Server\include\i3Base\tinyxml.h
;	COMDAT ??0TiXmlText@@QAE@ABV0@@Z
_TEXT	SEGMENT
_this$ = -16						; size = 4
__$EHRec$ = -12						; size = 12
_copy$ = 8						; size = 4
??0TiXmlText@@QAE@ABV0@@Z PROC				; TiXmlText::TiXmlText, COMDAT
; _this$ = ecx

; 1238 : 	TiXmlText( const TiXmlText& copy ) : TiXmlNode( TiXmlNode::TEXT )	{ copy.CopyTo( this ); }

  00000	55		 push	 ebp
  00001	8b ec		 mov	 ebp, esp
  00003	6a ff		 push	 -1
  00005	68 00 00 00 00	 push	 __ehhandler$??0TiXmlText@@QAE@ABV0@@Z
  0000a	64 a1 00 00 00
	00		 mov	 eax, DWORD PTR fs:0
  00010	50		 push	 eax
  00011	51		 push	 ecx
  00012	56		 push	 esi
  00013	a1 00 00 00 00	 mov	 eax, DWORD PTR ___security_cookie
  00018	33 c5		 xor	 eax, ebp
  0001a	50		 push	 eax
  0001b	8d 45 f4	 lea	 eax, DWORD PTR __$EHRec$[ebp]
  0001e	64 a3 00 00 00
	00		 mov	 DWORD PTR fs:0, eax
  00024	8b f1		 mov	 esi, ecx
  00026	89 75 f0	 mov	 DWORD PTR _this$[ebp], esi
  00029	6a 04		 push	 4
  0002b	e8 00 00 00 00	 call	 ??0TiXmlNode@@IAE@W4NodeType@0@@Z ; TiXmlNode::TiXmlNode
  00030	8b 4d 08	 mov	 ecx, DWORD PTR _copy$[ebp]
  00033	56		 push	 esi
  00034	c7 45 fc 00 00
	00 00		 mov	 DWORD PTR __$EHRec$[ebp+8], 0
  0003b	c7 06 00 00 00
	00		 mov	 DWORD PTR [esi], OFFSET ??_7TiXmlText@@6B@
  00041	e8 00 00 00 00	 call	 ?CopyTo@TiXmlText@@IBEXPAV1@@Z ; TiXmlText::CopyTo
  00046	8b c6		 mov	 eax, esi
  00048	8b 4d f4	 mov	 ecx, DWORD PTR __$EHRec$[ebp]
  0004b	64 89 0d 00 00
	00 00		 mov	 DWORD PTR fs:0, ecx
  00052	59		 pop	 ecx
  00053	5e		 pop	 esi
  00054	8b e5		 mov	 esp, ebp
  00056	5d		 pop	 ebp
  00057	c2 04 00	 ret	 4
_TEXT	ENDS
;	COMDAT text$x
text$x	SEGMENT
__unwindfunclet$??0TiXmlText@@QAE@ABV0@@Z$0:
  00000	8b 4d f0	 mov	 ecx, DWORD PTR _this$[ebp]
  00003	e9 00 00 00 00	 jmp	 ??1TiXmlNode@@UAE@XZ	; TiXmlNode::~TiXmlNode
  00008	cc		 int	 3
  00009	cc		 int	 3
  0000a	cc		 int	 3
  0000b	cc		 int	 3
  0000c	cc		 int	 3
__ehhandler$??0TiXmlText@@QAE@ABV0@@Z:
  0000d	90		 npad	 1
  0000e	90		 npad	 1
  0000f	8b 54 24 08	 mov	 edx, DWORD PTR [esp+8]
  00013	8d 42 0c	 lea	 eax, DWORD PTR [edx+12]
  00016	8b 4a f4	 mov	 ecx, DWORD PTR [edx-12]
  00019	33 c8		 xor	 ecx, eax
  0001b	e8 00 00 00 00	 call	 @__security_check_cookie@4
  00020	b8 00 00 00 00	 mov	 eax, OFFSET __ehfuncinfo$??0TiXmlText@@QAE@ABV0@@Z
  00025	e9 00 00 00 00	 jmp	 ___CxxFrameHandler3
text$x	ENDS
??0TiXmlText@@QAE@ABV0@@Z ENDP				; TiXmlText::TiXmlText
; Function compile flags: /Ogtp
; File E:\Proyectos\JuegosOnlineproyectos\PB\pbblow\Piercing Blow Remake\i3Server\include\i3Base\tinyxml.h
;	COMDAT ??1TiXmlText@@UAE@XZ
_TEXT	SEGMENT
??1TiXmlText@@UAE@XZ PROC				; TiXmlText::~TiXmlText, COMDAT
; _this$ = ecx

; 1227 : 	virtual ~TiXmlText() {}

  00000	c7 01 00 00 00
	00		 mov	 DWORD PTR [ecx], OFFSET ??_7TiXmlText@@6B@
  00006	e9 00 00 00 00	 jmp	 ??1TiXmlNode@@UAE@XZ	; TiXmlNode::~TiXmlNode
??1TiXmlText@@UAE@XZ ENDP				; TiXmlText::~TiXmlText
_TEXT	ENDS
; Function compile flags: /Ogtp
; File E:\Proyectos\JuegosOnlineproyectos\PB\pbblow\Piercing Blow Remake\i3Server\include\i3Base\tinyxml.h
; File E:\Proyectos\JuegosOnlineproyectos\PB\pbblow\Piercing Blow Remake\i3Server\include\i3Base\tinystr.h
; File E:\Proyectos\JuegosOnlineproyectos\PB\pbblow\Piercing Blow Remake\i3Server\include\i3Base\tinyxml.h
; File E:\Proyectos\JuegosOnlineproyectos\PB\pbblow\Piercing Blow Remake\i3Server\include\i3Base\tinystr.h
; File E:\Proyectos\JuegosOnlineproyectos\PB\pbblow\Piercing Blow Remake\i3Server\include\i3Base\tinyxml.h
; File E:\Proyectos\JuegosOnlineproyectos\PB\pbblow\Piercing Blow Remake\i3Server\include\i3Base\tinystr.h
; File E:\Proyectos\JuegosOnlineproyectos\PB\pbblow\Piercing Blow Remake\i3Server\include\i3Base\tinyxml.h
;	COMDAT ??0TiXmlText@@QAE@PBD@Z
_TEXT	SEGMENT
_this$ = -16						; size = 4
__$EHRec$ = -12						; size = 12
_initValue$ = 8						; size = 4
??0TiXmlText@@QAE@PBD@Z PROC				; TiXmlText::TiXmlText, COMDAT
; _this$ = ecx

; 1223 : 	{

  00000	55		 push	 ebp
  00001	8b ec		 mov	 ebp, esp
  00003	6a ff		 push	 -1
  00005	68 00 00 00 00	 push	 __ehhandler$??0TiXmlText@@QAE@PBD@Z
  0000a	64 a1 00 00 00
	00		 mov	 eax, DWORD PTR fs:0
  00010	50		 push	 eax
  00011	51		 push	 ecx
  00012	56		 push	 esi
  00013	57		 push	 edi
  00014	a1 00 00 00 00	 mov	 eax, DWORD PTR ___security_cookie
  00019	33 c5		 xor	 eax, ebp
  0001b	50		 push	 eax
  0001c	8d 45 f4	 lea	 eax, DWORD PTR __$EHRec$[ebp]
  0001f	64 a3 00 00 00
	00		 mov	 DWORD PTR fs:0, eax
  00025	8b f1		 mov	 esi, ecx
  00027	89 75 f0	 mov	 DWORD PTR _this$[ebp], esi

; 1222 : 	TiXmlText (const char * initValue ) : TiXmlNode (TiXmlNode::TEXT)

  0002a	6a 04		 push	 4
  0002c	e8 00 00 00 00	 call	 ??0TiXmlNode@@IAE@W4NodeType@0@@Z ; TiXmlNode::TiXmlNode
; File E:\Proyectos\JuegosOnlineproyectos\PB\pbblow\Piercing Blow Remake\i3Server\include\i3Base\tinystr.h

; 114  : 		return assign( copy, (size_type)strlen(copy));

  00031	8b 55 08	 mov	 edx, DWORD PTR _initValue$[ebp]
  00034	8b c2		 mov	 eax, edx
; File E:\Proyectos\JuegosOnlineproyectos\PB\pbblow\Piercing Blow Remake\i3Server\include\i3Base\tinyxml.h

; 1222 : 	TiXmlText (const char * initValue ) : TiXmlNode (TiXmlNode::TEXT)

  00036	c7 45 fc 00 00
	00 00		 mov	 DWORD PTR __$EHRec$[ebp+8], 0

; 1223 : 	{

  0003d	c7 06 00 00 00
	00		 mov	 DWORD PTR [esi], OFFSET ??_7TiXmlText@@6B@
; File E:\Proyectos\JuegosOnlineproyectos\PB\pbblow\Piercing Blow Remake\i3Server\include\i3Base\tinystr.h

; 114  : 		return assign( copy, (size_type)strlen(copy));

  00043	8d 78 01	 lea	 edi, DWORD PTR [eax+1]
$LL8@TiXmlText:
  00046	8a 08		 mov	 cl, BYTE PTR [eax]
  00048	40		 inc	 eax
  00049	84 c9		 test	 cl, cl
  0004b	75 f9		 jne	 SHORT $LL8@TiXmlText
  0004d	2b c7		 sub	 eax, edi
; File E:\Proyectos\JuegosOnlineproyectos\PB\pbblow\Piercing Blow Remake\i3Server\include\i3Base\tinyxml.h

; 512  : 	void SetValue(const char * _value) { value = _value;}

  0004f	8d 4e 20	 lea	 ecx, DWORD PTR [esi+32]
; File E:\Proyectos\JuegosOnlineproyectos\PB\pbblow\Piercing Blow Remake\i3Server\include\i3Base\tinystr.h

; 114  : 		return assign( copy, (size_type)strlen(copy));

  00052	50		 push	 eax
  00053	52		 push	 edx
  00054	e8 00 00 00 00	 call	 ?assign@TiXmlString@@QAEAAV1@PBDI@Z ; TiXmlString::assign
; File E:\Proyectos\JuegosOnlineproyectos\PB\pbblow\Piercing Blow Remake\i3Server\include\i3Base\tinyxml.h

; 1225 : 		cdata = false;

  00059	c6 46 2c 00	 mov	 BYTE PTR [esi+44], 0

; 1226 : 	}

  0005d	8b c6		 mov	 eax, esi
  0005f	8b 4d f4	 mov	 ecx, DWORD PTR __$EHRec$[ebp]
  00062	64 89 0d 00 00
	00 00		 mov	 DWORD PTR fs:0, ecx
  00069	59		 pop	 ecx
  0006a	5f		 pop	 edi
  0006b	5e		 pop	 esi
  0006c	8b e5		 mov	 esp, ebp
  0006e	5d		 pop	 ebp
  0006f	c2 04 00	 ret	 4
_TEXT	ENDS
;	COMDAT text$x
text$x	SEGMENT
__unwindfunclet$??0TiXmlText@@QAE@PBD@Z$0:
  00000	8b 4d f0	 mov	 ecx, DWORD PTR _this$[ebp]
  00003	e9 00 00 00 00	 jmp	 ??1TiXmlNode@@UAE@XZ	; TiXmlNode::~TiXmlNode
  00008	cc		 int	 3
  00009	cc		 int	 3
  0000a	cc		 int	 3
  0000b	cc		 int	 3
  0000c	cc		 int	 3
__ehhandler$??0TiXmlText@@QAE@PBD@Z:
  0000d	90		 npad	 1
  0000e	90		 npad	 1
  0000f	8b 54 24 08	 mov	 edx, DWORD PTR [esp+8]
  00013	8d 42 0c	 lea	 eax, DWORD PTR [edx+12]
  00016	8b 4a f0	 mov	 ecx, DWORD PTR [edx-16]
  00019	33 c8		 xor	 ecx, eax
  0001b	e8 00 00 00 00	 call	 @__security_check_cookie@4
  00020	b8 00 00 00 00	 mov	 eax, OFFSET __ehfuncinfo$??0TiXmlText@@QAE@PBD@Z
  00025	e9 00 00 00 00	 jmp	 ___CxxFrameHandler3
text$x	ENDS
??0TiXmlText@@QAE@PBD@Z ENDP				; TiXmlText::TiXmlText
; Function compile flags: /Ogtp
; File E:\Proyectos\JuegosOnlineproyectos\PB\pbblow\Piercing Blow Remake\i3Server\include\i3Base\tinyxml.h
;	COMDAT ??_ETiXmlComment@@UAEPAXI@Z
_TEXT	SEGMENT
__$EHRec$ = -12						; size = 12
___flags$ = 8						; size = 4
??_ETiXmlComment@@UAEPAXI@Z PROC			; TiXmlComment::`vector deleting destructor', COMDAT
; _this$ = ecx
  00000	55		 push	 ebp
  00001	8b ec		 mov	 ebp, esp
  00003	6a ff		 push	 -1
  00005	68 00 00 00 00	 push	 __ehhandler$??_ETiXmlComment@@UAEPAXI@Z
  0000a	64 a1 00 00 00
	00		 mov	 eax, DWORD PTR fs:0
  00010	50		 push	 eax
  00011	53		 push	 ebx
  00012	56		 push	 esi
  00013	57		 push	 edi
  00014	a1 00 00 00 00	 mov	 eax, DWORD PTR ___security_cookie
  00019	33 c5		 xor	 eax, ebp
  0001b	50		 push	 eax
  0001c	8d 45 f4	 lea	 eax, DWORD PTR __$EHRec$[ebp]
  0001f	64 a3 00 00 00
	00		 mov	 DWORD PTR fs:0, eax
  00025	8b f1		 mov	 esi, ecx
  00027	8b 45 08	 mov	 eax, DWORD PTR ___flags$[ebp]
  0002a	8b f8		 mov	 edi, eax
  0002c	83 e7 01	 and	 edi, 1
  0002f	a8 02		 test	 al, 2
  00031	74 3d		 je	 SHORT $LN2@vector
  00033	68 00 00 00 00	 push	 OFFSET ??1TiXmlComment@@UAE@XZ ; TiXmlComment::~TiXmlComment
  00038	ff 76 fc	 push	 DWORD PTR [esi-4]
  0003b	8d 5e fc	 lea	 ebx, DWORD PTR [esi-4]
  0003e	6a 2c		 push	 44			; 0000002cH
  00040	56		 push	 esi
  00041	e8 00 00 00 00	 call	 ??_M@YGXPAXIIP6EX0@Z@Z
  00046	85 ff		 test	 edi, edi
  00048	74 10		 je	 SHORT $LN3@vector
  0004a	6b 0b 2c	 imul	 ecx, DWORD PTR [ebx], 44
  0004d	83 c1 04	 add	 ecx, 4
  00050	51		 push	 ecx
  00051	53		 push	 ebx
  00052	e8 00 00 00 00	 call	 ??_V@YAXPAXI@Z		; operator delete[]
  00057	83 c4 08	 add	 esp, 8
$LN3@vector:
  0005a	8b c3		 mov	 eax, ebx
  0005c	8b 4d f4	 mov	 ecx, DWORD PTR __$EHRec$[ebp]
  0005f	64 89 0d 00 00
	00 00		 mov	 DWORD PTR fs:0, ecx
  00066	59		 pop	 ecx
  00067	5f		 pop	 edi
  00068	5e		 pop	 esi
  00069	5b		 pop	 ebx
  0006a	8b e5		 mov	 esp, ebp
  0006c	5d		 pop	 ebp
  0006d	c2 04 00	 ret	 4
$LN2@vector:

; 1176 : 	virtual ~TiXmlComment()	{}

  00070	c7 06 00 00 00
	00		 mov	 DWORD PTR [esi], OFFSET ??_7TiXmlComment@@6B@
  00076	e8 00 00 00 00	 call	 ??1TiXmlNode@@UAE@XZ	; TiXmlNode::~TiXmlNode
  0007b	85 ff		 test	 edi, edi
  0007d	74 0b		 je	 SHORT $LN4@vector
  0007f	6a 2c		 push	 44			; 0000002cH
  00081	56		 push	 esi
  00082	e8 00 00 00 00	 call	 ??3@YAXPAXI@Z		; operator delete
  00087	83 c4 08	 add	 esp, 8
$LN4@vector:
  0008a	8b c6		 mov	 eax, esi
  0008c	8b 4d f4	 mov	 ecx, DWORD PTR __$EHRec$[ebp]
  0008f	64 89 0d 00 00
	00 00		 mov	 DWORD PTR fs:0, ecx
  00096	59		 pop	 ecx
  00097	5f		 pop	 edi
  00098	5e		 pop	 esi
  00099	5b		 pop	 ebx
  0009a	8b e5		 mov	 esp, ebp
  0009c	5d		 pop	 ebp
  0009d	c2 04 00	 ret	 4
  000a0	cc		 int	 3
  000a1	cc		 int	 3
  000a2	cc		 int	 3
  000a3	cc		 int	 3
  000a4	cc		 int	 3
_TEXT	ENDS
;	COMDAT text$x
text$x	SEGMENT
__ehhandler$??_ETiXmlComment@@UAEPAXI@Z:
  00000	90		 npad	 1
  00001	90		 npad	 1
  00002	8b 54 24 08	 mov	 edx, DWORD PTR [esp+8]
  00006	8d 42 0c	 lea	 eax, DWORD PTR [edx+12]
  00009	8b 4a f0	 mov	 ecx, DWORD PTR [edx-16]
  0000c	33 c8		 xor	 ecx, eax
  0000e	e8 00 00 00 00	 call	 @__security_check_cookie@4
  00013	b8 00 00 00 00	 mov	 eax, OFFSET __ehfuncinfo$??_ETiXmlComment@@UAEPAXI@Z
  00018	e9 00 00 00 00	 jmp	 ___CxxFrameHandler3
text$x	ENDS
??_ETiXmlComment@@UAEPAXI@Z ENDP			; TiXmlComment::`vector deleting destructor'
; Function compile flags: /Ogtp
; File E:\Proyectos\JuegosOnlineproyectos\PB\pbblow\Piercing Blow Remake\i3Server\include\i3Base\tinyxml.h
;	COMDAT ??_GTiXmlComment@@UAEPAXI@Z
_TEXT	SEGMENT
___flags$ = 8						; size = 4
??_GTiXmlComment@@UAEPAXI@Z PROC			; TiXmlComment::`scalar deleting destructor', COMDAT
; _this$ = ecx
  00000	55		 push	 ebp
  00001	8b ec		 mov	 ebp, esp

; 1176 : 	virtual ~TiXmlComment()	{}

  00003	56		 push	 esi
  00004	8b f1		 mov	 esi, ecx
  00006	c7 06 00 00 00
	00		 mov	 DWORD PTR [esi], OFFSET ??_7TiXmlComment@@6B@
  0000c	e8 00 00 00 00	 call	 ??1TiXmlNode@@UAE@XZ	; TiXmlNode::~TiXmlNode
  00011	f6 45 08 01	 test	 BYTE PTR ___flags$[ebp], 1
  00015	74 0b		 je	 SHORT $LN10@scalar
  00017	6a 2c		 push	 44			; 0000002cH
  00019	56		 push	 esi
  0001a	e8 00 00 00 00	 call	 ??3@YAXPAXI@Z		; operator delete
  0001f	83 c4 08	 add	 esp, 8
$LN10@scalar:
  00022	8b c6		 mov	 eax, esi
  00024	5e		 pop	 esi
  00025	5d		 pop	 ebp
  00026	c2 04 00	 ret	 4
??_GTiXmlComment@@UAEPAXI@Z ENDP			; TiXmlComment::`scalar deleting destructor'
_TEXT	ENDS
; Function compile flags: /Ogtp
; File E:\Proyectos\JuegosOnlineproyectos\PB\pbblow\Piercing Blow Remake\i3Server\include\i3Base\tinyxml.h
;	COMDAT ?ToComment@TiXmlComment@@UAEPAV1@XZ
_TEXT	SEGMENT
?ToComment@TiXmlComment@@UAEPAV1@XZ PROC		; TiXmlComment::ToComment, COMDAT
; _this$ = ecx

; 1189 : 	virtual TiXmlComment*  ToComment() { return this; } ///< Cast to a more defined type. Will return null not of the requested type.

  00000	8b c1		 mov	 eax, ecx
  00002	c3		 ret	 0
?ToComment@TiXmlComment@@UAEPAV1@XZ ENDP		; TiXmlComment::ToComment
_TEXT	ENDS
; Function compile flags: /Ogtp
; File E:\Proyectos\JuegosOnlineproyectos\PB\pbblow\Piercing Blow Remake\i3Server\include\i3Base\tinyxml.h
;	COMDAT ?ToComment@TiXmlComment@@UBEPBV1@XZ
_TEXT	SEGMENT
?ToComment@TiXmlComment@@UBEPBV1@XZ PROC		; TiXmlComment::ToComment, COMDAT
; _this$ = ecx

; 1188 : 	virtual const TiXmlComment*  ToComment() const { return this; } ///< Cast to a more defined type. Will return null not of the requested type.

  00000	8b c1		 mov	 eax, ecx
  00002	c3		 ret	 0
?ToComment@TiXmlComment@@UBEPBV1@XZ ENDP		; TiXmlComment::ToComment
_TEXT	ENDS
; Function compile flags: /Ogtp
; File E:\Proyectos\JuegosOnlineproyectos\PB\pbblow\Piercing Blow Remake\i3Server\include\i3Base\tinyxml.h
;	COMDAT ??1TiXmlComment@@UAE@XZ
_TEXT	SEGMENT
??1TiXmlComment@@UAE@XZ PROC				; TiXmlComment::~TiXmlComment, COMDAT
; _this$ = ecx

; 1176 : 	virtual ~TiXmlComment()	{}

  00000	c7 01 00 00 00
	00		 mov	 DWORD PTR [ecx], OFFSET ??_7TiXmlComment@@6B@
  00006	e9 00 00 00 00	 jmp	 ??1TiXmlNode@@UAE@XZ	; TiXmlNode::~TiXmlNode
??1TiXmlComment@@UAE@XZ ENDP				; TiXmlComment::~TiXmlComment
_TEXT	ENDS
; Function compile flags: /Ogtp
; File E:\Proyectos\JuegosOnlineproyectos\PB\pbblow\Piercing Blow Remake\i3Server\include\i3Base\tinyxml.h
; File E:\Proyectos\JuegosOnlineproyectos\PB\pbblow\Piercing Blow Remake\i3Server\include\i3Base\tinystr.h
; File E:\Proyectos\JuegosOnlineproyectos\PB\pbblow\Piercing Blow Remake\i3Server\include\i3Base\tinyxml.h
; File E:\Proyectos\JuegosOnlineproyectos\PB\pbblow\Piercing Blow Remake\i3Server\include\i3Base\tinystr.h
; File E:\Proyectos\JuegosOnlineproyectos\PB\pbblow\Piercing Blow Remake\i3Server\include\i3Base\tinyxml.h
; File E:\Proyectos\JuegosOnlineproyectos\PB\pbblow\Piercing Blow Remake\i3Server\include\i3Base\tinystr.h
; File E:\Proyectos\JuegosOnlineproyectos\PB\pbblow\Piercing Blow Remake\i3Server\include\i3Base\tinyxml.h
;	COMDAT ??0TiXmlComment@@QAE@PBD@Z
_TEXT	SEGMENT
_this$ = -16						; size = 4
__$EHRec$ = -12						; size = 12
__value$ = 8						; size = 4
??0TiXmlComment@@QAE@PBD@Z PROC				; TiXmlComment::TiXmlComment, COMDAT
; _this$ = ecx

; 1170 : 	TiXmlComment( const char* _value ) : TiXmlNode( TiXmlNode::COMMENT ) {

  00000	55		 push	 ebp
  00001	8b ec		 mov	 ebp, esp
  00003	6a ff		 push	 -1
  00005	68 00 00 00 00	 push	 __ehhandler$??0TiXmlComment@@QAE@PBD@Z
  0000a	64 a1 00 00 00
	00		 mov	 eax, DWORD PTR fs:0
  00010	50		 push	 eax
  00011	51		 push	 ecx
  00012	56		 push	 esi
  00013	57		 push	 edi
  00014	a1 00 00 00 00	 mov	 eax, DWORD PTR ___security_cookie
  00019	33 c5		 xor	 eax, ebp
  0001b	50		 push	 eax
  0001c	8d 45 f4	 lea	 eax, DWORD PTR __$EHRec$[ebp]
  0001f	64 a3 00 00 00
	00		 mov	 DWORD PTR fs:0, eax
  00025	8b f1		 mov	 esi, ecx
  00027	89 75 f0	 mov	 DWORD PTR _this$[ebp], esi
  0002a	6a 02		 push	 2
  0002c	e8 00 00 00 00	 call	 ??0TiXmlNode@@IAE@W4NodeType@0@@Z ; TiXmlNode::TiXmlNode
; File E:\Proyectos\JuegosOnlineproyectos\PB\pbblow\Piercing Blow Remake\i3Server\include\i3Base\tinystr.h

; 114  : 		return assign( copy, (size_type)strlen(copy));

  00031	8b 55 08	 mov	 edx, DWORD PTR __value$[ebp]
  00034	8b c2		 mov	 eax, edx
; File E:\Proyectos\JuegosOnlineproyectos\PB\pbblow\Piercing Blow Remake\i3Server\include\i3Base\tinyxml.h

; 1170 : 	TiXmlComment( const char* _value ) : TiXmlNode( TiXmlNode::COMMENT ) {

  00036	c7 45 fc 00 00
	00 00		 mov	 DWORD PTR __$EHRec$[ebp+8], 0
  0003d	c7 06 00 00 00
	00		 mov	 DWORD PTR [esi], OFFSET ??_7TiXmlComment@@6B@
; File E:\Proyectos\JuegosOnlineproyectos\PB\pbblow\Piercing Blow Remake\i3Server\include\i3Base\tinystr.h

; 114  : 		return assign( copy, (size_type)strlen(copy));

  00043	8d 78 01	 lea	 edi, DWORD PTR [eax+1]
$LL8@TiXmlComme:
  00046	8a 08		 mov	 cl, BYTE PTR [eax]
  00048	40		 inc	 eax
  00049	84 c9		 test	 cl, cl
  0004b	75 f9		 jne	 SHORT $LL8@TiXmlComme
  0004d	2b c7		 sub	 eax, edi
; File E:\Proyectos\JuegosOnlineproyectos\PB\pbblow\Piercing Blow Remake\i3Server\include\i3Base\tinyxml.h

; 512  : 	void SetValue(const char * _value) { value = _value;}

  0004f	8d 4e 20	 lea	 ecx, DWORD PTR [esi+32]
; File E:\Proyectos\JuegosOnlineproyectos\PB\pbblow\Piercing Blow Remake\i3Server\include\i3Base\tinystr.h

; 114  : 		return assign( copy, (size_type)strlen(copy));

  00052	50		 push	 eax
  00053	52		 push	 edx
  00054	e8 00 00 00 00	 call	 ?assign@TiXmlString@@QAEAAV1@PBDI@Z ; TiXmlString::assign
; File E:\Proyectos\JuegosOnlineproyectos\PB\pbblow\Piercing Blow Remake\i3Server\include\i3Base\tinyxml.h

; 1172 : 	}

  00059	8b c6		 mov	 eax, esi
  0005b	8b 4d f4	 mov	 ecx, DWORD PTR __$EHRec$[ebp]
  0005e	64 89 0d 00 00
	00 00		 mov	 DWORD PTR fs:0, ecx
  00065	59		 pop	 ecx
  00066	5f		 pop	 edi
  00067	5e		 pop	 esi
  00068	8b e5		 mov	 esp, ebp
  0006a	5d		 pop	 ebp
  0006b	c2 04 00	 ret	 4
_TEXT	ENDS
;	COMDAT text$x
text$x	SEGMENT
__unwindfunclet$??0TiXmlComment@@QAE@PBD@Z$0:
  00000	8b 4d f0	 mov	 ecx, DWORD PTR _this$[ebp]
  00003	e9 00 00 00 00	 jmp	 ??1TiXmlNode@@UAE@XZ	; TiXmlNode::~TiXmlNode
  00008	cc		 int	 3
  00009	cc		 int	 3
  0000a	cc		 int	 3
  0000b	cc		 int	 3
  0000c	cc		 int	 3
__ehhandler$??0TiXmlComment@@QAE@PBD@Z:
  0000d	90		 npad	 1
  0000e	90		 npad	 1
  0000f	8b 54 24 08	 mov	 edx, DWORD PTR [esp+8]
  00013	8d 42 0c	 lea	 eax, DWORD PTR [edx+12]
  00016	8b 4a f0	 mov	 ecx, DWORD PTR [edx-16]
  00019	33 c8		 xor	 ecx, eax
  0001b	e8 00 00 00 00	 call	 @__security_check_cookie@4
  00020	b8 00 00 00 00	 mov	 eax, OFFSET __ehfuncinfo$??0TiXmlComment@@QAE@PBD@Z
  00025	e9 00 00 00 00	 jmp	 ___CxxFrameHandler3
text$x	ENDS
??0TiXmlComment@@QAE@PBD@Z ENDP				; TiXmlComment::TiXmlComment
; Function compile flags: /Ogtp
; File E:\Proyectos\JuegosOnlineproyectos\PB\pbblow\Piercing Blow Remake\i3Server\include\i3Base\tinyxml.h
;	COMDAT ??0TiXmlComment@@QAE@XZ
_TEXT	SEGMENT
_this$ = -4						; size = 4
??0TiXmlComment@@QAE@XZ PROC				; TiXmlComment::TiXmlComment, COMDAT
; _this$ = ecx

; 1168 : 	TiXmlComment() : TiXmlNode( TiXmlNode::COMMENT ) {}

  00000	55		 push	 ebp
  00001	8b ec		 mov	 ebp, esp
  00003	51		 push	 ecx
  00004	56		 push	 esi
  00005	8b f1		 mov	 esi, ecx
  00007	6a 02		 push	 2
  00009	89 75 fc	 mov	 DWORD PTR _this$[ebp], esi
  0000c	e8 00 00 00 00	 call	 ??0TiXmlNode@@IAE@W4NodeType@0@@Z ; TiXmlNode::TiXmlNode
  00011	c7 06 00 00 00
	00		 mov	 DWORD PTR [esi], OFFSET ??_7TiXmlComment@@6B@
  00017	8b c6		 mov	 eax, esi
  00019	5e		 pop	 esi
  0001a	8b e5		 mov	 esp, ebp
  0001c	5d		 pop	 ebp
  0001d	c3		 ret	 0
??0TiXmlComment@@QAE@XZ ENDP				; TiXmlComment::TiXmlComment
_TEXT	ENDS
; Function compile flags: /Ogtp
; File E:\Proyectos\JuegosOnlineproyectos\PB\pbblow\Piercing Blow Remake\i3Server\include\i3Base\tinyxml.h
;	COMDAT ?ToElement@TiXmlElement@@UAEPAV1@XZ
_TEXT	SEGMENT
?ToElement@TiXmlElement@@UAEPAV1@XZ PROC		; TiXmlElement::ToElement, COMDAT
; _this$ = ecx

; 1135 : 	virtual TiXmlElement*           ToElement()	          { return this; } ///< Cast to a more defined type. Will return null not of the requested type.

  00000	8b c1		 mov	 eax, ecx
  00002	c3		 ret	 0
?ToElement@TiXmlElement@@UAEPAV1@XZ ENDP		; TiXmlElement::ToElement
_TEXT	ENDS
; Function compile flags: /Ogtp
; File E:\Proyectos\JuegosOnlineproyectos\PB\pbblow\Piercing Blow Remake\i3Server\include\i3Base\tinyxml.h
;	COMDAT ?ToElement@TiXmlElement@@UBEPBV1@XZ
_TEXT	SEGMENT
?ToElement@TiXmlElement@@UBEPBV1@XZ PROC		; TiXmlElement::ToElement, COMDAT
; _this$ = ecx

; 1134 : 	virtual const TiXmlElement*     ToElement()     const { return this; } ///< Cast to a more defined type. Will return null not of the requested type.

  00000	8b c1		 mov	 eax, ecx
  00002	c3		 ret	 0
?ToElement@TiXmlElement@@UBEPBV1@XZ ENDP		; TiXmlElement::ToElement
_TEXT	ENDS
; Function compile flags: /Ogtp
; File E:\Proyectos\JuegosOnlineproyectos\PB\pbblow\Piercing Blow Remake\i3Server\include\i3Base\tinyxml.h
;	COMDAT ?LastAttribute@TiXmlElement@@QAEPAVTiXmlAttribute@@XZ
_TEXT	SEGMENT
?LastAttribute@TiXmlElement@@QAEPAVTiXmlAttribute@@XZ PROC ; TiXmlElement::LastAttribute, COMDAT
; _this$ = ecx

; 919  : 	TiXmlAttribute* Last()					{ return ( sentinel.prev == &sentinel ) ? 0 : sentinel.prev; }

  00000	8b 41 48	 mov	 eax, DWORD PTR [ecx+72]

; 1088 : 	TiXmlAttribute* LastAttribute()					{ return attributeSet.Last(); }

  00003	83 c1 2c	 add	 ecx, 44			; 0000002cH

; 919  : 	TiXmlAttribute* Last()					{ return ( sentinel.prev == &sentinel ) ? 0 : sentinel.prev; }

  00006	33 d2		 xor	 edx, edx
  00008	3b c1		 cmp	 eax, ecx
  0000a	0f 44 c2	 cmove	 eax, edx

; 1088 : 	TiXmlAttribute* LastAttribute()					{ return attributeSet.Last(); }

  0000d	c3		 ret	 0
?LastAttribute@TiXmlElement@@QAEPAVTiXmlAttribute@@XZ ENDP ; TiXmlElement::LastAttribute
_TEXT	ENDS
; Function compile flags: /Ogtp
; File E:\Proyectos\JuegosOnlineproyectos\PB\pbblow\Piercing Blow Remake\i3Server\include\i3Base\tinyxml.h
;	COMDAT ?LastAttribute@TiXmlElement@@QBEPBVTiXmlAttribute@@XZ
_TEXT	SEGMENT
?LastAttribute@TiXmlElement@@QBEPBVTiXmlAttribute@@XZ PROC ; TiXmlElement::LastAttribute, COMDAT
; _this$ = ecx

; 918  : 	const TiXmlAttribute* Last() const		{ return ( sentinel.prev == &sentinel ) ? 0 : sentinel.prev; }

  00000	8b 41 48	 mov	 eax, DWORD PTR [ecx+72]

; 1087 : 	const TiXmlAttribute* LastAttribute()	const 	{ return attributeSet.Last(); }		///< Access the last attribute in this element.

  00003	83 c1 2c	 add	 ecx, 44			; 0000002cH

; 918  : 	const TiXmlAttribute* Last() const		{ return ( sentinel.prev == &sentinel ) ? 0 : sentinel.prev; }

  00006	33 d2		 xor	 edx, edx
  00008	3b c1		 cmp	 eax, ecx
  0000a	0f 44 c2	 cmove	 eax, edx

; 1087 : 	const TiXmlAttribute* LastAttribute()	const 	{ return attributeSet.Last(); }		///< Access the last attribute in this element.

  0000d	c3		 ret	 0
?LastAttribute@TiXmlElement@@QBEPBVTiXmlAttribute@@XZ ENDP ; TiXmlElement::LastAttribute
_TEXT	ENDS
; Function compile flags: /Ogtp
; File E:\Proyectos\JuegosOnlineproyectos\PB\pbblow\Piercing Blow Remake\i3Server\include\i3Base\tinyxml.h
;	COMDAT ?FirstAttribute@TiXmlElement@@QAEPAVTiXmlAttribute@@XZ
_TEXT	SEGMENT
?FirstAttribute@TiXmlElement@@QAEPAVTiXmlAttribute@@XZ PROC ; TiXmlElement::FirstAttribute, COMDAT
; _this$ = ecx

; 917  : 	TiXmlAttribute* First()					{ return ( sentinel.next == &sentinel ) ? 0 : sentinel.next; }

  00000	8b 41 4c	 mov	 eax, DWORD PTR [ecx+76]

; 1086 : 	TiXmlAttribute* FirstAttribute() 				{ return attributeSet.First(); }

  00003	83 c1 2c	 add	 ecx, 44			; 0000002cH

; 917  : 	TiXmlAttribute* First()					{ return ( sentinel.next == &sentinel ) ? 0 : sentinel.next; }

  00006	33 d2		 xor	 edx, edx
  00008	3b c1		 cmp	 eax, ecx
  0000a	0f 44 c2	 cmove	 eax, edx

; 1086 : 	TiXmlAttribute* FirstAttribute() 				{ return attributeSet.First(); }

  0000d	c3		 ret	 0
?FirstAttribute@TiXmlElement@@QAEPAVTiXmlAttribute@@XZ ENDP ; TiXmlElement::FirstAttribute
_TEXT	ENDS
; Function compile flags: /Ogtp
; File E:\Proyectos\JuegosOnlineproyectos\PB\pbblow\Piercing Blow Remake\i3Server\include\i3Base\tinyxml.h
;	COMDAT ?FirstAttribute@TiXmlElement@@QBEPBVTiXmlAttribute@@XZ
_TEXT	SEGMENT
?FirstAttribute@TiXmlElement@@QBEPBVTiXmlAttribute@@XZ PROC ; TiXmlElement::FirstAttribute, COMDAT
; _this$ = ecx

; 916  : 	const TiXmlAttribute* First()	const	{ return ( sentinel.next == &sentinel ) ? 0 : sentinel.next; }

  00000	8b 41 4c	 mov	 eax, DWORD PTR [ecx+76]

; 1085 : 	const TiXmlAttribute* FirstAttribute() const	{ return attributeSet.First(); }		///< Access the first attribute in this element.

  00003	83 c1 2c	 add	 ecx, 44			; 0000002cH

; 916  : 	const TiXmlAttribute* First()	const	{ return ( sentinel.next == &sentinel ) ? 0 : sentinel.next; }

  00006	33 d2		 xor	 edx, edx
  00008	3b c1		 cmp	 eax, ecx
  0000a	0f 44 c2	 cmove	 eax, edx

; 1085 : 	const TiXmlAttribute* FirstAttribute() const	{ return attributeSet.First(); }		///< Access the first attribute in this element.

  0000d	c3		 ret	 0
?FirstAttribute@TiXmlElement@@QBEPBVTiXmlAttribute@@XZ ENDP ; TiXmlElement::FirstAttribute
_TEXT	ENDS
; Function compile flags: /Ogtp
; File E:\Proyectos\JuegosOnlineproyectos\PB\pbblow\Piercing Blow Remake\i3Server\include\i3Base\tinyxml.h
;	COMDAT ?QueryFloatAttribute@TiXmlElement@@QBEHPBDPAM@Z
_TEXT	SEGMENT
_d$ = -8						; size = 8
_name$ = 8						; size = 4
__value$ = 12						; size = 4
?QueryFloatAttribute@TiXmlElement@@QBEHPBDPAM@Z PROC	; TiXmlElement::QueryFloatAttribute, COMDAT
; _this$ = ecx

; 999  : 	int QueryFloatAttribute( const char* name, float* _value ) const {

  00000	55		 push	 ebp
  00001	8b ec		 mov	 ebp, esp
  00003	83 ec 08	 sub	 esp, 8

; 1000 : 		double d;
; 1001 : 		int result = QueryDoubleAttribute( name, &d );

  00006	8d 45 f8	 lea	 eax, DWORD PTR _d$[ebp]
  00009	50		 push	 eax
  0000a	ff 75 08	 push	 DWORD PTR _name$[ebp]
  0000d	e8 00 00 00 00	 call	 ?QueryDoubleAttribute@TiXmlElement@@QBEHPBDPAN@Z ; TiXmlElement::QueryDoubleAttribute

; 1002 : 		if ( result == TIXML_SUCCESS ) {

  00012	85 c0		 test	 eax, eax
  00014	75 08		 jne	 SHORT $LN2@QueryFloat

; 1003 : 			*_value = (float)d;

  00016	8b 4d 0c	 mov	 ecx, DWORD PTR __value$[ebp]
  00019	dd 45 f8	 fld	 QWORD PTR _d$[ebp]
  0001c	d9 19		 fstp	 DWORD PTR [ecx]
$LN2@QueryFloat:

; 1004 : 		}
; 1005 : 		return result;
; 1006 : 	}

  0001e	8b e5		 mov	 esp, ebp
  00020	5d		 pop	 ebp
  00021	c2 08 00	 ret	 8
?QueryFloatAttribute@TiXmlElement@@QBEHPBDPAM@Z ENDP	; TiXmlElement::QueryFloatAttribute
_TEXT	ENDS
; Function compile flags: /Ogtp
; File E:\Proyectos\JuegosOnlineproyectos\PB\pbblow\Piercing Blow Remake\i3Server\include\i3Base\tinyxml.h
;	COMDAT ?Find@TiXmlAttributeSet@@QAEPAVTiXmlAttribute@@PBD@Z
_TEXT	SEGMENT
__name$ = 8						; size = 4
?Find@TiXmlAttributeSet@@QAEPAVTiXmlAttribute@@PBD@Z PROC ; TiXmlAttributeSet::Find, COMDAT
; _this$ = ecx

; 922  : 	TiXmlAttribute*	Find( const char* _name ) {

  00000	55		 push	 ebp
  00001	8b ec		 mov	 ebp, esp

; 924  : 	}

  00003	5d		 pop	 ebp

; 923  : 		return const_cast< TiXmlAttribute* >( (const_cast< const TiXmlAttributeSet* >(this))->Find( _name ) );

  00004	e9 00 00 00 00	 jmp	 ?Find@TiXmlAttributeSet@@QBEPBVTiXmlAttribute@@PBD@Z ; TiXmlAttributeSet::Find
?Find@TiXmlAttributeSet@@QAEPAVTiXmlAttribute@@PBD@Z ENDP ; TiXmlAttributeSet::Find
_TEXT	ENDS
; Function compile flags: /Ogtp
; File E:\Proyectos\JuegosOnlineproyectos\PB\pbblow\Piercing Blow Remake\i3Server\include\i3Base\tinyxml.h
;	COMDAT ?Last@TiXmlAttributeSet@@QAEPAVTiXmlAttribute@@XZ
_TEXT	SEGMENT
?Last@TiXmlAttributeSet@@QAEPAVTiXmlAttribute@@XZ PROC	; TiXmlAttributeSet::Last, COMDAT
; _this$ = ecx

; 919  : 	TiXmlAttribute* Last()					{ return ( sentinel.prev == &sentinel ) ? 0 : sentinel.prev; }

  00000	8b 41 1c	 mov	 eax, DWORD PTR [ecx+28]
  00003	33 d2		 xor	 edx, edx
  00005	3b c1		 cmp	 eax, ecx
  00007	0f 44 c2	 cmove	 eax, edx
  0000a	c3		 ret	 0
?Last@TiXmlAttributeSet@@QAEPAVTiXmlAttribute@@XZ ENDP	; TiXmlAttributeSet::Last
_TEXT	ENDS
; Function compile flags: /Ogtp
; File E:\Proyectos\JuegosOnlineproyectos\PB\pbblow\Piercing Blow Remake\i3Server\include\i3Base\tinyxml.h
;	COMDAT ?Last@TiXmlAttributeSet@@QBEPBVTiXmlAttribute@@XZ
_TEXT	SEGMENT
?Last@TiXmlAttributeSet@@QBEPBVTiXmlAttribute@@XZ PROC	; TiXmlAttributeSet::Last, COMDAT
; _this$ = ecx

; 918  : 	const TiXmlAttribute* Last() const		{ return ( sentinel.prev == &sentinel ) ? 0 : sentinel.prev; }

  00000	8b 41 1c	 mov	 eax, DWORD PTR [ecx+28]
  00003	33 d2		 xor	 edx, edx
  00005	3b c1		 cmp	 eax, ecx
  00007	0f 44 c2	 cmove	 eax, edx
  0000a	c3		 ret	 0
?Last@TiXmlAttributeSet@@QBEPBVTiXmlAttribute@@XZ ENDP	; TiXmlAttributeSet::Last
_TEXT	ENDS
; Function compile flags: /Ogtp
; File E:\Proyectos\JuegosOnlineproyectos\PB\pbblow\Piercing Blow Remake\i3Server\include\i3Base\tinyxml.h
;	COMDAT ?First@TiXmlAttributeSet@@QAEPAVTiXmlAttribute@@XZ
_TEXT	SEGMENT
?First@TiXmlAttributeSet@@QAEPAVTiXmlAttribute@@XZ PROC	; TiXmlAttributeSet::First, COMDAT
; _this$ = ecx

; 917  : 	TiXmlAttribute* First()					{ return ( sentinel.next == &sentinel ) ? 0 : sentinel.next; }

  00000	8b 41 20	 mov	 eax, DWORD PTR [ecx+32]
  00003	33 d2		 xor	 edx, edx
  00005	3b c1		 cmp	 eax, ecx
  00007	0f 44 c2	 cmove	 eax, edx
  0000a	c3		 ret	 0
?First@TiXmlAttributeSet@@QAEPAVTiXmlAttribute@@XZ ENDP	; TiXmlAttributeSet::First
_TEXT	ENDS
; Function compile flags: /Ogtp
; File E:\Proyectos\JuegosOnlineproyectos\PB\pbblow\Piercing Blow Remake\i3Server\include\i3Base\tinyxml.h
;	COMDAT ?First@TiXmlAttributeSet@@QBEPBVTiXmlAttribute@@XZ
_TEXT	SEGMENT
?First@TiXmlAttributeSet@@QBEPBVTiXmlAttribute@@XZ PROC	; TiXmlAttributeSet::First, COMDAT
; _this$ = ecx

; 916  : 	const TiXmlAttribute* First()	const	{ return ( sentinel.next == &sentinel ) ? 0 : sentinel.next; }

  00000	8b 41 20	 mov	 eax, DWORD PTR [ecx+32]
  00003	33 d2		 xor	 edx, edx
  00005	3b c1		 cmp	 eax, ecx
  00007	0f 44 c2	 cmove	 eax, edx
  0000a	c3		 ret	 0
?First@TiXmlAttributeSet@@QBEPBVTiXmlAttribute@@XZ ENDP	; TiXmlAttributeSet::First
_TEXT	ENDS
; Function compile flags: /Ogtp
; File E:\Proyectos\JuegosOnlineproyectos\PB\pbblow\Piercing Blow Remake\i3Server\include\i3Base\tinystr.h
;	COMDAT ??_ETiXmlAttribute@@UAEPAXI@Z
_TEXT	SEGMENT
__$EHRec$ = -12						; size = 12
___flags$ = 8						; size = 4
??_ETiXmlAttribute@@UAEPAXI@Z PROC			; TiXmlAttribute::`vector deleting destructor', COMDAT
; _this$ = ecx
  00000	55		 push	 ebp
  00001	8b ec		 mov	 ebp, esp
  00003	6a ff		 push	 -1
  00005	68 00 00 00 00	 push	 __ehhandler$??_ETiXmlAttribute@@UAEPAXI@Z
  0000a	64 a1 00 00 00
	00		 mov	 eax, DWORD PTR fs:0
  00010	50		 push	 eax
  00011	53		 push	 ebx
  00012	56		 push	 esi
  00013	57		 push	 edi
  00014	a1 00 00 00 00	 mov	 eax, DWORD PTR ___security_cookie
  00019	33 c5		 xor	 eax, ebp
  0001b	50		 push	 eax
  0001c	8d 45 f4	 lea	 eax, DWORD PTR __$EHRec$[ebp]
  0001f	64 a3 00 00 00
	00		 mov	 DWORD PTR fs:0, eax
  00025	8b f1		 mov	 esi, ecx
  00027	8b 5d 08	 mov	 ebx, DWORD PTR ___flags$[ebp]
  0002a	f6 c3 02	 test	 bl, 2
  0002d	74 44		 je	 SHORT $LN2@vector
  0002f	68 00 00 00 00	 push	 OFFSET ??1TiXmlAttribute@@UAE@XZ
  00034	ff 76 fc	 push	 DWORD PTR [esi-4]
  00037	8d 7e fc	 lea	 edi, DWORD PTR [esi-4]
  0003a	6a 24		 push	 36			; 00000024H
  0003c	56		 push	 esi
  0003d	e8 00 00 00 00	 call	 ??_M@YGXPAXIIP6EX0@Z@Z
  00042	f6 c3 01	 test	 bl, 1
  00045	74 16		 je	 SHORT $LN3@vector
  00047	8b 0f		 mov	 ecx, DWORD PTR [edi]
  00049	8d 0c c9	 lea	 ecx, DWORD PTR [ecx+ecx*8]
  0004c	8d 0c 8d 04 00
	00 00		 lea	 ecx, DWORD PTR [ecx*4+4]
  00053	51		 push	 ecx
  00054	57		 push	 edi
  00055	e8 00 00 00 00	 call	 ??_V@YAXPAXI@Z		; operator delete[]
  0005a	83 c4 08	 add	 esp, 8
$LN3@vector:
  0005d	8b c7		 mov	 eax, edi
  0005f	8b 4d f4	 mov	 ecx, DWORD PTR __$EHRec$[ebp]
  00062	64 89 0d 00 00
	00 00		 mov	 DWORD PTR fs:0, ecx
  00069	59		 pop	 ecx
  0006a	5f		 pop	 edi
  0006b	5e		 pop	 esi
  0006c	5b		 pop	 ebx
  0006d	8b e5		 mov	 esp, ebp
  0006f	5d		 pop	 ebp
  00070	c2 04 00	 ret	 4
$LN2@vector:

; 257  : 		if (rep_ != &nullrep_)

  00073	8b 46 18	 mov	 eax, DWORD PTR [esi+24]
  00076	3d 00 00 00 00	 cmp	 eax, OFFSET ?nullrep_@TiXmlString@@0URep@1@A ; TiXmlString::nullrep_
  0007b	74 09		 je	 SHORT $LN16@vector

; 258  : 		{
; 259  : 			// The rep_ is really an array of ints. (see the allocator, above).
; 260  : 			// Cast it back before delete, so the compiler won't incorrectly call destructors.
; 261  : 			delete [] ( reinterpret_cast<int*>( rep_ ) );

  0007d	50		 push	 eax
  0007e	e8 00 00 00 00	 call	 ??_V@YAXPAX@Z		; operator delete[]
  00083	83 c4 04	 add	 esp, 4
$LN16@vector:

; 257  : 		if (rep_ != &nullrep_)

  00086	8b 46 14	 mov	 eax, DWORD PTR [esi+20]
  00089	3d 00 00 00 00	 cmp	 eax, OFFSET ?nullrep_@TiXmlString@@0URep@1@A ; TiXmlString::nullrep_
  0008e	74 09		 je	 SHORT $LN22@vector

; 258  : 		{
; 259  : 			// The rep_ is really an array of ints. (see the allocator, above).
; 260  : 			// Cast it back before delete, so the compiler won't incorrectly call destructors.
; 261  : 			delete [] ( reinterpret_cast<int*>( rep_ ) );

  00090	50		 push	 eax
  00091	e8 00 00 00 00	 call	 ??_V@YAXPAX@Z		; operator delete[]
  00096	83 c4 04	 add	 esp, 4
$LN22@vector:
  00099	c7 06 00 00 00
	00		 mov	 DWORD PTR [esi], OFFSET ??_7TiXmlBase@@6B@
  0009f	f6 c3 01	 test	 bl, 1
  000a2	74 0b		 je	 SHORT $LN4@vector
  000a4	6a 24		 push	 36			; 00000024H
  000a6	56		 push	 esi
  000a7	e8 00 00 00 00	 call	 ??3@YAXPAXI@Z		; operator delete
  000ac	83 c4 08	 add	 esp, 8
$LN4@vector:
  000af	8b c6		 mov	 eax, esi
  000b1	8b 4d f4	 mov	 ecx, DWORD PTR __$EHRec$[ebp]
  000b4	64 89 0d 00 00
	00 00		 mov	 DWORD PTR fs:0, ecx
  000bb	59		 pop	 ecx
  000bc	5f		 pop	 edi
  000bd	5e		 pop	 esi
  000be	5b		 pop	 ebx
  000bf	8b e5		 mov	 esp, ebp
  000c1	5d		 pop	 ebp
  000c2	c2 04 00	 ret	 4
  000c5	cc		 int	 3
  000c6	cc		 int	 3
  000c7	cc		 int	 3
  000c8	cc		 int	 3
  000c9	cc		 int	 3
_TEXT	ENDS
;	COMDAT text$x
text$x	SEGMENT
__ehhandler$??_ETiXmlAttribute@@UAEPAXI@Z:
  00000	90		 npad	 1
  00001	90		 npad	 1
  00002	8b 54 24 08	 mov	 edx, DWORD PTR [esp+8]
  00006	8d 42 0c	 lea	 eax, DWORD PTR [edx+12]
  00009	8b 4a f0	 mov	 ecx, DWORD PTR [edx-16]
  0000c	33 c8		 xor	 ecx, eax
  0000e	e8 00 00 00 00	 call	 @__security_check_cookie@4
  00013	b8 00 00 00 00	 mov	 eax, OFFSET __ehfuncinfo$??_ETiXmlAttribute@@UAEPAXI@Z
  00018	e9 00 00 00 00	 jmp	 ___CxxFrameHandler3
text$x	ENDS
??_ETiXmlAttribute@@UAEPAXI@Z ENDP			; TiXmlAttribute::`vector deleting destructor'
; Function compile flags: /Ogtp
; File E:\Proyectos\JuegosOnlineproyectos\PB\pbblow\Piercing Blow Remake\i3Server\include\i3Base\tinystr.h
;	COMDAT ??_GTiXmlAttribute@@UAEPAXI@Z
_TEXT	SEGMENT
___flags$ = 8						; size = 4
??_GTiXmlAttribute@@UAEPAXI@Z PROC			; TiXmlAttribute::`scalar deleting destructor', COMDAT
; _this$ = ecx
  00000	55		 push	 ebp
  00001	8b ec		 mov	 ebp, esp

; 257  : 		if (rep_ != &nullrep_)

  00003	56		 push	 esi
  00004	8b f1		 mov	 esi, ecx
  00006	8b 46 18	 mov	 eax, DWORD PTR [esi+24]
  00009	3d 00 00 00 00	 cmp	 eax, OFFSET ?nullrep_@TiXmlString@@0URep@1@A ; TiXmlString::nullrep_
  0000e	74 09		 je	 SHORT $LN14@scalar

; 258  : 		{
; 259  : 			// The rep_ is really an array of ints. (see the allocator, above).
; 260  : 			// Cast it back before delete, so the compiler won't incorrectly call destructors.
; 261  : 			delete [] ( reinterpret_cast<int*>( rep_ ) );

  00010	50		 push	 eax
  00011	e8 00 00 00 00	 call	 ??_V@YAXPAX@Z		; operator delete[]
  00016	83 c4 04	 add	 esp, 4
$LN14@scalar:

; 257  : 		if (rep_ != &nullrep_)

  00019	8b 46 14	 mov	 eax, DWORD PTR [esi+20]
  0001c	3d 00 00 00 00	 cmp	 eax, OFFSET ?nullrep_@TiXmlString@@0URep@1@A ; TiXmlString::nullrep_
  00021	74 09		 je	 SHORT $LN20@scalar

; 258  : 		{
; 259  : 			// The rep_ is really an array of ints. (see the allocator, above).
; 260  : 			// Cast it back before delete, so the compiler won't incorrectly call destructors.
; 261  : 			delete [] ( reinterpret_cast<int*>( rep_ ) );

  00023	50		 push	 eax
  00024	e8 00 00 00 00	 call	 ??_V@YAXPAX@Z		; operator delete[]
  00029	83 c4 04	 add	 esp, 4
$LN20@scalar:
  0002c	f6 45 08 01	 test	 BYTE PTR ___flags$[ebp], 1
  00030	c7 06 00 00 00
	00		 mov	 DWORD PTR [esi], OFFSET ??_7TiXmlBase@@6B@
  00036	74 0b		 je	 SHORT $LN22@scalar
  00038	6a 24		 push	 36			; 00000024H
  0003a	56		 push	 esi
  0003b	e8 00 00 00 00	 call	 ??3@YAXPAXI@Z		; operator delete
  00040	83 c4 08	 add	 esp, 8
$LN22@scalar:
  00043	8b c6		 mov	 eax, esi
  00045	5e		 pop	 esi
  00046	5d		 pop	 ebp
  00047	c2 04 00	 ret	 4
??_GTiXmlAttribute@@UAEPAXI@Z ENDP			; TiXmlAttribute::`scalar deleting destructor'
_TEXT	ENDS
; Function compile flags: /Ogtp
; File E:\Proyectos\JuegosOnlineproyectos\PB\pbblow\Piercing Blow Remake\i3Server\include\i3Base\tinystr.h
;	COMDAT ??1TiXmlAttribute@@UAE@XZ
_TEXT	SEGMENT
??1TiXmlAttribute@@UAE@XZ PROC				; TiXmlAttribute::~TiXmlAttribute, COMDAT
; _this$ = ecx

; 257  : 		if (rep_ != &nullrep_)

  00000	56		 push	 esi
  00001	8b f1		 mov	 esi, ecx
  00003	8b 46 18	 mov	 eax, DWORD PTR [esi+24]
  00006	3d 00 00 00 00	 cmp	 eax, OFFSET ?nullrep_@TiXmlString@@0URep@1@A ; TiXmlString::nullrep_
  0000b	74 09		 je	 SHORT $LN8@TiXmlAttri

; 258  : 		{
; 259  : 			// The rep_ is really an array of ints. (see the allocator, above).
; 260  : 			// Cast it back before delete, so the compiler won't incorrectly call destructors.
; 261  : 			delete [] ( reinterpret_cast<int*>( rep_ ) );

  0000d	50		 push	 eax
  0000e	e8 00 00 00 00	 call	 ??_V@YAXPAX@Z		; operator delete[]
  00013	83 c4 04	 add	 esp, 4
$LN8@TiXmlAttri:

; 257  : 		if (rep_ != &nullrep_)

  00016	8b 46 14	 mov	 eax, DWORD PTR [esi+20]
  00019	3d 00 00 00 00	 cmp	 eax, OFFSET ?nullrep_@TiXmlString@@0URep@1@A ; TiXmlString::nullrep_
  0001e	74 09		 je	 SHORT $LN16@TiXmlAttri

; 258  : 		{
; 259  : 			// The rep_ is really an array of ints. (see the allocator, above).
; 260  : 			// Cast it back before delete, so the compiler won't incorrectly call destructors.
; 261  : 			delete [] ( reinterpret_cast<int*>( rep_ ) );

  00020	50		 push	 eax
  00021	e8 00 00 00 00	 call	 ??_V@YAXPAX@Z		; operator delete[]
  00026	83 c4 04	 add	 esp, 4
$LN16@TiXmlAttri:
  00029	c7 06 00 00 00
	00		 mov	 DWORD PTR [esi], OFFSET ??_7TiXmlBase@@6B@
  0002f	5e		 pop	 esi
  00030	c3		 ret	 0
??1TiXmlAttribute@@UAE@XZ ENDP				; TiXmlAttribute::~TiXmlAttribute
_TEXT	ENDS
; Function compile flags: /Ogtp
; File E:\Proyectos\JuegosOnlineproyectos\PB\pbblow\Piercing Blow Remake\i3Server\include\i3Base\tinyxml.h
;	COMDAT ?SetDocument@TiXmlAttribute@@QAEXPAVTiXmlDocument@@@Z
_TEXT	SEGMENT
_doc$ = 8						; size = 4
?SetDocument@TiXmlAttribute@@QAEXPAVTiXmlDocument@@@Z PROC ; TiXmlAttribute::SetDocument, COMDAT
; _this$ = ecx

; 881  : 	void SetDocument( TiXmlDocument* doc )	{ document = doc; }

  00000	55		 push	 ebp
  00001	8b ec		 mov	 ebp, esp
  00003	8b 45 08	 mov	 eax, DWORD PTR _doc$[ebp]
  00006	89 41 10	 mov	 DWORD PTR [ecx+16], eax
  00009	5d		 pop	 ebp
  0000a	c2 04 00	 ret	 4
?SetDocument@TiXmlAttribute@@QAEXPAVTiXmlDocument@@@Z ENDP ; TiXmlAttribute::SetDocument
_TEXT	ENDS
; Function compile flags: /Ogtp
; File E:\Proyectos\JuegosOnlineproyectos\PB\pbblow\Piercing Blow Remake\i3Server\include\i3Base\tinyxml.h
;	COMDAT ?Print@TiXmlAttribute@@UBEXPAVi3FileStream@@H@Z
_TEXT	SEGMENT
_cfile$ = 8						; size = 4
_depth$ = 12						; size = 4
?Print@TiXmlAttribute@@UBEXPAVi3FileStream@@H@Z PROC	; TiXmlAttribute::Print, COMDAT
; _this$ = ecx

; 874  : 	virtual void Print( i3FileStream* cfile, int depth ) const {

  00000	55		 push	 ebp
  00001	8b ec		 mov	 ebp, esp

; 875  : 		Print( cfile, depth, 0 );

  00003	6a 00		 push	 0
  00005	ff 75 0c	 push	 DWORD PTR _depth$[ebp]
  00008	ff 75 08	 push	 DWORD PTR _cfile$[ebp]
  0000b	e8 00 00 00 00	 call	 ?Print@TiXmlAttribute@@QBEXPAVi3FileStream@@HPAVTiXmlString@@@Z ; TiXmlAttribute::Print

; 876  : 	}

  00010	5d		 pop	 ebp
  00011	c2 08 00	 ret	 8
?Print@TiXmlAttribute@@UBEXPAVi3FileStream@@H@Z ENDP	; TiXmlAttribute::Print
_TEXT	ENDS
; Function compile flags: /Ogtp
; File E:\Proyectos\JuegosOnlineproyectos\PB\pbblow\Piercing Blow Remake\i3Server\include\i3Base\tinyxml.h
; File E:\Proyectos\JuegosOnlineproyectos\PB\pbblow\Piercing Blow Remake\i3Server\include\i3Base\tinystr.h
; File E:\Proyectos\JuegosOnlineproyectos\PB\pbblow\Piercing Blow Remake\i3Server\include\i3Base\tinyxml.h
; File E:\Proyectos\JuegosOnlineproyectos\PB\pbblow\Piercing Blow Remake\i3Server\include\i3Base\tinystr.h
; File E:\Proyectos\JuegosOnlineproyectos\PB\pbblow\Piercing Blow Remake\i3Server\include\i3Base\tinyxml.h
;	COMDAT ??OTiXmlAttribute@@QBE_NABV0@@Z
_TEXT	SEGMENT
_rhs$ = 8						; size = 4
??OTiXmlAttribute@@QBE_NABV0@@Z PROC			; TiXmlAttribute::operator>, COMDAT
; _this$ = ecx

; 866  : 	bool operator>( const TiXmlAttribute& rhs )  const { return name > rhs.name; }

  00000	55		 push	 ebp
  00001	8b ec		 mov	 ebp, esp
; File E:\Proyectos\JuegosOnlineproyectos\PB\pbblow\Piercing Blow Remake\i3Server\include\i3Base\tinystr.h

; 144  : 	const char * c_str () const { return rep_->str; }

  00003	8b 41 14	 mov	 eax, DWORD PTR [ecx+20]
  00006	8b 4d 08	 mov	 ecx, DWORD PTR _rhs$[ebp]
  00009	83 c0 08	 add	 eax, 8
  0000c	8b 49 14	 mov	 ecx, DWORD PTR [ecx+20]
  0000f	83 c1 08	 add	 ecx, 8
$LL11@operator:

; 278  : 	return strcmp(a.c_str(), b.c_str()) < 0;

  00012	8a 11		 mov	 dl, BYTE PTR [ecx]
  00014	3a 10		 cmp	 dl, BYTE PTR [eax]
  00016	75 1f		 jne	 SHORT $LN12@operator
  00018	84 d2		 test	 dl, dl
  0001a	74 12		 je	 SHORT $LN13@operator
  0001c	8a 51 01	 mov	 dl, BYTE PTR [ecx+1]
  0001f	3a 50 01	 cmp	 dl, BYTE PTR [eax+1]
  00022	75 13		 jne	 SHORT $LN12@operator
  00024	83 c1 02	 add	 ecx, 2
  00027	83 c0 02	 add	 eax, 2
  0002a	84 d2		 test	 dl, dl
  0002c	75 e4		 jne	 SHORT $LL11@operator
$LN13@operator:
  0002e	b8 00 00 00 00	 mov	 eax, 0
; File E:\Proyectos\JuegosOnlineproyectos\PB\pbblow\Piercing Blow Remake\i3Server\include\i3Base\tinyxml.h

; 866  : 	bool operator>( const TiXmlAttribute& rhs )  const { return name > rhs.name; }

  00033	5d		 pop	 ebp
  00034	c2 04 00	 ret	 4
$LN12@operator:
; File E:\Proyectos\JuegosOnlineproyectos\PB\pbblow\Piercing Blow Remake\i3Server\include\i3Base\tinystr.h

; 278  : 	return strcmp(a.c_str(), b.c_str()) < 0;

  00037	1b c0		 sbb	 eax, eax
  00039	83 c8 01	 or	 eax, 1
  0003c	c1 e8 1f	 shr	 eax, 31			; 0000001fH
; File E:\Proyectos\JuegosOnlineproyectos\PB\pbblow\Piercing Blow Remake\i3Server\include\i3Base\tinyxml.h

; 866  : 	bool operator>( const TiXmlAttribute& rhs )  const { return name > rhs.name; }

  0003f	5d		 pop	 ebp
  00040	c2 04 00	 ret	 4
??OTiXmlAttribute@@QBE_NABV0@@Z ENDP			; TiXmlAttribute::operator>
_TEXT	ENDS
; Function compile flags: /Ogtp
; File E:\Proyectos\JuegosOnlineproyectos\PB\pbblow\Piercing Blow Remake\i3Server\include\i3Base\tinyxml.h
; File E:\Proyectos\JuegosOnlineproyectos\PB\pbblow\Piercing Blow Remake\i3Server\include\i3Base\tinystr.h
; File E:\Proyectos\JuegosOnlineproyectos\PB\pbblow\Piercing Blow Remake\i3Server\include\i3Base\tinyxml.h
; File E:\Proyectos\JuegosOnlineproyectos\PB\pbblow\Piercing Blow Remake\i3Server\include\i3Base\tinystr.h
; File E:\Proyectos\JuegosOnlineproyectos\PB\pbblow\Piercing Blow Remake\i3Server\include\i3Base\tinyxml.h
;	COMDAT ??MTiXmlAttribute@@QBE_NABV0@@Z
_TEXT	SEGMENT
_rhs$ = 8						; size = 4
??MTiXmlAttribute@@QBE_NABV0@@Z PROC			; TiXmlAttribute::operator<, COMDAT
; _this$ = ecx

; 865  : 	bool operator<( const TiXmlAttribute& rhs )	 const { return name < rhs.name; }

  00000	55		 push	 ebp
  00001	8b ec		 mov	 ebp, esp
; File E:\Proyectos\JuegosOnlineproyectos\PB\pbblow\Piercing Blow Remake\i3Server\include\i3Base\tinystr.h

; 144  : 	const char * c_str () const { return rep_->str; }

  00003	8b 45 08	 mov	 eax, DWORD PTR _rhs$[ebp]
  00006	8b 49 14	 mov	 ecx, DWORD PTR [ecx+20]
  00009	8b 40 14	 mov	 eax, DWORD PTR [eax+20]
  0000c	83 c0 08	 add	 eax, 8
  0000f	83 c1 08	 add	 ecx, 8
$LL9@operator:

; 278  : 	return strcmp(a.c_str(), b.c_str()) < 0;

  00012	8a 11		 mov	 dl, BYTE PTR [ecx]
  00014	3a 10		 cmp	 dl, BYTE PTR [eax]
  00016	75 1f		 jne	 SHORT $LN10@operator
  00018	84 d2		 test	 dl, dl
  0001a	74 12		 je	 SHORT $LN11@operator
  0001c	8a 51 01	 mov	 dl, BYTE PTR [ecx+1]
  0001f	3a 50 01	 cmp	 dl, BYTE PTR [eax+1]
  00022	75 13		 jne	 SHORT $LN10@operator
  00024	83 c1 02	 add	 ecx, 2
  00027	83 c0 02	 add	 eax, 2
  0002a	84 d2		 test	 dl, dl
  0002c	75 e4		 jne	 SHORT $LL9@operator
$LN11@operator:
  0002e	b8 00 00 00 00	 mov	 eax, 0
; File E:\Proyectos\JuegosOnlineproyectos\PB\pbblow\Piercing Blow Remake\i3Server\include\i3Base\tinyxml.h

; 865  : 	bool operator<( const TiXmlAttribute& rhs )	 const { return name < rhs.name; }

  00033	5d		 pop	 ebp
  00034	c2 04 00	 ret	 4
$LN10@operator:
; File E:\Proyectos\JuegosOnlineproyectos\PB\pbblow\Piercing Blow Remake\i3Server\include\i3Base\tinystr.h

; 278  : 	return strcmp(a.c_str(), b.c_str()) < 0;

  00037	1b c0		 sbb	 eax, eax
  00039	83 c8 01	 or	 eax, 1
  0003c	c1 e8 1f	 shr	 eax, 31			; 0000001fH
; File E:\Proyectos\JuegosOnlineproyectos\PB\pbblow\Piercing Blow Remake\i3Server\include\i3Base\tinyxml.h

; 865  : 	bool operator<( const TiXmlAttribute& rhs )	 const { return name < rhs.name; }

  0003f	5d		 pop	 ebp
  00040	c2 04 00	 ret	 4
??MTiXmlAttribute@@QBE_NABV0@@Z ENDP			; TiXmlAttribute::operator<
_TEXT	ENDS
; Function compile flags: /Ogtp
; File E:\Proyectos\JuegosOnlineproyectos\PB\pbblow\Piercing Blow Remake\i3Server\include\i3Base\tinyxml.h
; File E:\Proyectos\JuegosOnlineproyectos\PB\pbblow\Piercing Blow Remake\i3Server\include\i3Base\tinystr.h
; File E:\Proyectos\JuegosOnlineproyectos\PB\pbblow\Piercing Blow Remake\i3Server\include\i3Base\tinyxml.h
; File E:\Proyectos\JuegosOnlineproyectos\PB\pbblow\Piercing Blow Remake\i3Server\include\i3Base\tinystr.h
; File E:\Proyectos\JuegosOnlineproyectos\PB\pbblow\Piercing Blow Remake\i3Server\include\i3Base\tinyxml.h
;	COMDAT ??8TiXmlAttribute@@QBE_NABV0@@Z
_TEXT	SEGMENT
_rhs$ = 8						; size = 4
??8TiXmlAttribute@@QBE_NABV0@@Z PROC			; TiXmlAttribute::operator==, COMDAT
; _this$ = ecx

; 864  : 	bool operator==( const TiXmlAttribute& rhs ) const { return rhs.name == name; }

  00000	55		 push	 ebp
  00001	8b ec		 mov	 ebp, esp
; File E:\Proyectos\JuegosOnlineproyectos\PB\pbblow\Piercing Blow Remake\i3Server\include\i3Base\tinystr.h

; 150  : 	size_type length () const { return rep_->size; }

  00003	8b 45 08	 mov	 eax, DWORD PTR _rhs$[ebp]
  00006	8b 49 14	 mov	 ecx, DWORD PTR [ecx+20]
  00009	8b 50 14	 mov	 edx, DWORD PTR [eax+20]

; 273  : 	return    ( a.length() == b.length() )				// optimization on some platforms

  0000c	8b 02		 mov	 eax, DWORD PTR [edx]
  0000e	3b 01		 cmp	 eax, DWORD PTR [ecx]
  00010	75 35		 jne	 SHORT $LN5@operator

; 144  : 	const char * c_str () const { return rep_->str; }

  00012	83 c1 08	 add	 ecx, 8
  00015	8d 42 08	 lea	 eax, DWORD PTR [edx+8]
$LL15@operator:

; 273  : 	return    ( a.length() == b.length() )				// optimization on some platforms

  00018	8a 10		 mov	 dl, BYTE PTR [eax]
  0001a	3a 11		 cmp	 dl, BYTE PTR [ecx]
  0001c	75 1a		 jne	 SHORT $LN16@operator
  0001e	84 d2		 test	 dl, dl
  00020	74 12		 je	 SHORT $LN17@operator
  00022	8a 50 01	 mov	 dl, BYTE PTR [eax+1]
  00025	3a 51 01	 cmp	 dl, BYTE PTR [ecx+1]
  00028	75 0e		 jne	 SHORT $LN16@operator
  0002a	83 c0 02	 add	 eax, 2
  0002d	83 c1 02	 add	 ecx, 2
  00030	84 d2		 test	 dl, dl
  00032	75 e4		 jne	 SHORT $LL15@operator
$LN17@operator:
  00034	33 c0		 xor	 eax, eax
  00036	eb 05		 jmp	 SHORT $LN18@operator
$LN16@operator:
  00038	1b c0		 sbb	 eax, eax
  0003a	83 c8 01	 or	 eax, 1
$LN18@operator:
  0003d	85 c0		 test	 eax, eax
  0003f	75 06		 jne	 SHORT $LN5@operator
  00041	b0 01		 mov	 al, 1
; File E:\Proyectos\JuegosOnlineproyectos\PB\pbblow\Piercing Blow Remake\i3Server\include\i3Base\tinyxml.h

; 864  : 	bool operator==( const TiXmlAttribute& rhs ) const { return rhs.name == name; }

  00043	5d		 pop	 ebp
  00044	c2 04 00	 ret	 4
$LN5@operator:
; File E:\Proyectos\JuegosOnlineproyectos\PB\pbblow\Piercing Blow Remake\i3Server\include\i3Base\tinystr.h

; 273  : 	return    ( a.length() == b.length() )				// optimization on some platforms

  00047	32 c0		 xor	 al, al
; File E:\Proyectos\JuegosOnlineproyectos\PB\pbblow\Piercing Blow Remake\i3Server\include\i3Base\tinyxml.h

; 864  : 	bool operator==( const TiXmlAttribute& rhs ) const { return rhs.name == name; }

  00049	5d		 pop	 ebp
  0004a	c2 04 00	 ret	 4
??8TiXmlAttribute@@QBE_NABV0@@Z ENDP			; TiXmlAttribute::operator==
_TEXT	ENDS
; Function compile flags: /Ogtp
; File E:\Proyectos\JuegosOnlineproyectos\PB\pbblow\Piercing Blow Remake\i3Server\include\i3Base\tinyxml.h
;	COMDAT ?Previous@TiXmlAttribute@@QAEPAV1@XZ
_TEXT	SEGMENT
?Previous@TiXmlAttribute@@QAEPAV1@XZ PROC		; TiXmlAttribute::Previous, COMDAT
; _this$ = ecx

; 861  : 		return const_cast< TiXmlAttribute* >( (const_cast< const TiXmlAttribute* >(this))->Previous() ); 

  00000	e9 00 00 00 00	 jmp	 ?Previous@TiXmlAttribute@@QBEPBV1@XZ ; TiXmlAttribute::Previous
?Previous@TiXmlAttribute@@QAEPAV1@XZ ENDP		; TiXmlAttribute::Previous
_TEXT	ENDS
; Function compile flags: /Ogtp
; File E:\Proyectos\JuegosOnlineproyectos\PB\pbblow\Piercing Blow Remake\i3Server\include\i3Base\tinyxml.h
;	COMDAT ?Next@TiXmlAttribute@@QAEPAV1@XZ
_TEXT	SEGMENT
?Next@TiXmlAttribute@@QAEPAV1@XZ PROC			; TiXmlAttribute::Next, COMDAT
; _this$ = ecx

; 855  : 		return const_cast< TiXmlAttribute* >( (const_cast< const TiXmlAttribute* >(this))->Next() ); 

  00000	e9 00 00 00 00	 jmp	 ?Next@TiXmlAttribute@@QBEPBV1@XZ ; TiXmlAttribute::Next
?Next@TiXmlAttribute@@QAEPAV1@XZ ENDP			; TiXmlAttribute::Next
_TEXT	ENDS
; Function compile flags: /Ogtp
; File E:\Proyectos\JuegosOnlineproyectos\PB\pbblow\Piercing Blow Remake\i3Server\include\i3Base\tinyxml.h
; File E:\Proyectos\JuegosOnlineproyectos\PB\pbblow\Piercing Blow Remake\i3Server\include\i3Base\tinystr.h
; File E:\Proyectos\JuegosOnlineproyectos\PB\pbblow\Piercing Blow Remake\i3Server\include\i3Base\tinyxml.h
; File E:\Proyectos\JuegosOnlineproyectos\PB\pbblow\Piercing Blow Remake\i3Server\include\i3Base\tinystr.h
; File E:\Proyectos\JuegosOnlineproyectos\PB\pbblow\Piercing Blow Remake\i3Server\include\i3Base\tinyxml.h
; File E:\Proyectos\JuegosOnlineproyectos\PB\pbblow\Piercing Blow Remake\i3Server\include\i3Base\tinystr.h
; File E:\Proyectos\JuegosOnlineproyectos\PB\pbblow\Piercing Blow Remake\i3Server\include\i3Base\tinyxml.h
;	COMDAT ?SetValue@TiXmlAttribute@@QAEXPBD@Z
_TEXT	SEGMENT
__value$ = 8						; size = 4
?SetValue@TiXmlAttribute@@QAEXPBD@Z PROC		; TiXmlAttribute::SetValue, COMDAT
; _this$ = ecx

; 840  : 	void SetValue( const char* _value )	{ value = _value; }				///< Set the value.

  00000	55		 push	 ebp
  00001	8b ec		 mov	 ebp, esp
; File E:\Proyectos\JuegosOnlineproyectos\PB\pbblow\Piercing Blow Remake\i3Server\include\i3Base\tinystr.h

; 114  : 		return assign( copy, (size_type)strlen(copy));

  00003	8b 55 08	 mov	 edx, DWORD PTR __value$[ebp]
  00006	8b c2		 mov	 eax, edx
; File E:\Proyectos\JuegosOnlineproyectos\PB\pbblow\Piercing Blow Remake\i3Server\include\i3Base\tinyxml.h

; 840  : 	void SetValue( const char* _value )	{ value = _value; }				///< Set the value.

  00008	56		 push	 esi
  00009	57		 push	 edi
  0000a	8b f1		 mov	 esi, ecx
; File E:\Proyectos\JuegosOnlineproyectos\PB\pbblow\Piercing Blow Remake\i3Server\include\i3Base\tinystr.h

; 114  : 		return assign( copy, (size_type)strlen(copy));

  0000c	8d 78 01	 lea	 edi, DWORD PTR [eax+1]
  0000f	90		 npad	 1
$LL5@SetValue:
  00010	8a 08		 mov	 cl, BYTE PTR [eax]
  00012	40		 inc	 eax
  00013	84 c9		 test	 cl, cl
  00015	75 f9		 jne	 SHORT $LL5@SetValue
  00017	2b c7		 sub	 eax, edi
; File E:\Proyectos\JuegosOnlineproyectos\PB\pbblow\Piercing Blow Remake\i3Server\include\i3Base\tinyxml.h

; 840  : 	void SetValue( const char* _value )	{ value = _value; }				///< Set the value.

  00019	8d 4e 18	 lea	 ecx, DWORD PTR [esi+24]
; File E:\Proyectos\JuegosOnlineproyectos\PB\pbblow\Piercing Blow Remake\i3Server\include\i3Base\tinystr.h

; 114  : 		return assign( copy, (size_type)strlen(copy));

  0001c	50		 push	 eax
  0001d	52		 push	 edx
  0001e	e8 00 00 00 00	 call	 ?assign@TiXmlString@@QAEAAV1@PBDI@Z ; TiXmlString::assign
  00023	5f		 pop	 edi
  00024	5e		 pop	 esi
; File E:\Proyectos\JuegosOnlineproyectos\PB\pbblow\Piercing Blow Remake\i3Server\include\i3Base\tinyxml.h

; 840  : 	void SetValue( const char* _value )	{ value = _value; }				///< Set the value.

  00025	5d		 pop	 ebp
  00026	c2 04 00	 ret	 4
?SetValue@TiXmlAttribute@@QAEXPBD@Z ENDP		; TiXmlAttribute::SetValue
_TEXT	ENDS
; Function compile flags: /Ogtp
; File E:\Proyectos\JuegosOnlineproyectos\PB\pbblow\Piercing Blow Remake\i3Server\include\i3Base\tinyxml.h
; File E:\Proyectos\JuegosOnlineproyectos\PB\pbblow\Piercing Blow Remake\i3Server\include\i3Base\tinystr.h
; File E:\Proyectos\JuegosOnlineproyectos\PB\pbblow\Piercing Blow Remake\i3Server\include\i3Base\tinyxml.h
; File E:\Proyectos\JuegosOnlineproyectos\PB\pbblow\Piercing Blow Remake\i3Server\include\i3Base\tinystr.h
; File E:\Proyectos\JuegosOnlineproyectos\PB\pbblow\Piercing Blow Remake\i3Server\include\i3Base\tinyxml.h
; File E:\Proyectos\JuegosOnlineproyectos\PB\pbblow\Piercing Blow Remake\i3Server\include\i3Base\tinystr.h
; File E:\Proyectos\JuegosOnlineproyectos\PB\pbblow\Piercing Blow Remake\i3Server\include\i3Base\tinyxml.h
;	COMDAT ?SetName@TiXmlAttribute@@QAEXPBD@Z
_TEXT	SEGMENT
__name$ = 8						; size = 4
?SetName@TiXmlAttribute@@QAEXPBD@Z PROC			; TiXmlAttribute::SetName, COMDAT
; _this$ = ecx

; 839  : 	void SetName( const char* _name )	{ name = _name; }				///< Set the name of this attribute.

  00000	55		 push	 ebp
  00001	8b ec		 mov	 ebp, esp
; File E:\Proyectos\JuegosOnlineproyectos\PB\pbblow\Piercing Blow Remake\i3Server\include\i3Base\tinystr.h

; 114  : 		return assign( copy, (size_type)strlen(copy));

  00003	8b 55 08	 mov	 edx, DWORD PTR __name$[ebp]
  00006	8b c2		 mov	 eax, edx
; File E:\Proyectos\JuegosOnlineproyectos\PB\pbblow\Piercing Blow Remake\i3Server\include\i3Base\tinyxml.h

; 839  : 	void SetName( const char* _name )	{ name = _name; }				///< Set the name of this attribute.

  00008	56		 push	 esi
  00009	57		 push	 edi
  0000a	8b f1		 mov	 esi, ecx
; File E:\Proyectos\JuegosOnlineproyectos\PB\pbblow\Piercing Blow Remake\i3Server\include\i3Base\tinystr.h

; 114  : 		return assign( copy, (size_type)strlen(copy));

  0000c	8d 78 01	 lea	 edi, DWORD PTR [eax+1]
  0000f	90		 npad	 1
$LL5@SetName:
  00010	8a 08		 mov	 cl, BYTE PTR [eax]
  00012	40		 inc	 eax
  00013	84 c9		 test	 cl, cl
  00015	75 f9		 jne	 SHORT $LL5@SetName
  00017	2b c7		 sub	 eax, edi
; File E:\Proyectos\JuegosOnlineproyectos\PB\pbblow\Piercing Blow Remake\i3Server\include\i3Base\tinyxml.h

; 839  : 	void SetName( const char* _name )	{ name = _name; }				///< Set the name of this attribute.

  00019	8d 4e 14	 lea	 ecx, DWORD PTR [esi+20]
; File E:\Proyectos\JuegosOnlineproyectos\PB\pbblow\Piercing Blow Remake\i3Server\include\i3Base\tinystr.h

; 114  : 		return assign( copy, (size_type)strlen(copy));

  0001c	50		 push	 eax
  0001d	52		 push	 edx
  0001e	e8 00 00 00 00	 call	 ?assign@TiXmlString@@QAEAAV1@PBDI@Z ; TiXmlString::assign
  00023	5f		 pop	 edi
  00024	5e		 pop	 esi
; File E:\Proyectos\JuegosOnlineproyectos\PB\pbblow\Piercing Blow Remake\i3Server\include\i3Base\tinyxml.h

; 839  : 	void SetName( const char* _name )	{ name = _name; }				///< Set the name of this attribute.

  00025	5d		 pop	 ebp
  00026	c2 04 00	 ret	 4
?SetName@TiXmlAttribute@@QAEXPBD@Z ENDP			; TiXmlAttribute::SetName
_TEXT	ENDS
; Function compile flags: /Ogtp
; File E:\Proyectos\JuegosOnlineproyectos\PB\pbblow\Piercing Blow Remake\i3Server\include\i3Base\tinyxml.h
;	COMDAT ?NameTStr@TiXmlAttribute@@QBEABVTiXmlString@@XZ
_TEXT	SEGMENT
?NameTStr@TiXmlAttribute@@QBEABVTiXmlString@@XZ PROC	; TiXmlAttribute::NameTStr, COMDAT
; _this$ = ecx

; 824  : 	const TIXML_STRING& NameTStr() const { return name; }

  00000	8d 41 14	 lea	 eax, DWORD PTR [ecx+20]
  00003	c3		 ret	 0
?NameTStr@TiXmlAttribute@@QBEABVTiXmlString@@XZ ENDP	; TiXmlAttribute::NameTStr
_TEXT	ENDS
; Function compile flags: /Ogtp
; File E:\Proyectos\JuegosOnlineproyectos\PB\pbblow\Piercing Blow Remake\i3Server\include\i3Base\tinyxml.h
; File E:\Proyectos\JuegosOnlineproyectos\PB\pbblow\Piercing Blow Remake\i3Server\include\i3Base\tinystr.h
; File E:\Proyectos\JuegosOnlineproyectos\PB\pbblow\Piercing Blow Remake\i3Server\include\i3Base\tinyxml.h
;	COMDAT ?Value@TiXmlAttribute@@QBEPBDXZ
_TEXT	SEGMENT
?Value@TiXmlAttribute@@QBEPBDXZ PROC			; TiXmlAttribute::Value, COMDAT
; _this$ = ecx
; File E:\Proyectos\JuegosOnlineproyectos\PB\pbblow\Piercing Blow Remake\i3Server\include\i3Base\tinystr.h

; 144  : 	const char * c_str () const { return rep_->str; }

  00000	8b 41 18	 mov	 eax, DWORD PTR [ecx+24]
  00003	83 c0 08	 add	 eax, 8
; File E:\Proyectos\JuegosOnlineproyectos\PB\pbblow\Piercing Blow Remake\i3Server\include\i3Base\tinyxml.h

; 816  : 	const char*		Value() const		{ return value.c_str(); }		///< Return the value of this attribute.

  00006	c3		 ret	 0
?Value@TiXmlAttribute@@QBEPBDXZ ENDP			; TiXmlAttribute::Value
_TEXT	ENDS
; Function compile flags: /Ogtp
; File E:\Proyectos\JuegosOnlineproyectos\PB\pbblow\Piercing Blow Remake\i3Server\include\i3Base\tinyxml.h
; File E:\Proyectos\JuegosOnlineproyectos\PB\pbblow\Piercing Blow Remake\i3Server\include\i3Base\tinystr.h
; File E:\Proyectos\JuegosOnlineproyectos\PB\pbblow\Piercing Blow Remake\i3Server\include\i3Base\tinyxml.h
;	COMDAT ?Name@TiXmlAttribute@@QBEPBDXZ
_TEXT	SEGMENT
?Name@TiXmlAttribute@@QBEPBDXZ PROC			; TiXmlAttribute::Name, COMDAT
; _this$ = ecx
; File E:\Proyectos\JuegosOnlineproyectos\PB\pbblow\Piercing Blow Remake\i3Server\include\i3Base\tinystr.h

; 144  : 	const char * c_str () const { return rep_->str; }

  00000	8b 41 14	 mov	 eax, DWORD PTR [ecx+20]
  00003	83 c0 08	 add	 eax, 8
; File E:\Proyectos\JuegosOnlineproyectos\PB\pbblow\Piercing Blow Remake\i3Server\include\i3Base\tinyxml.h

; 815  : 	const char*		Name()  const		{ return name.c_str(); }		///< Return the name of this attribute.

  00006	c3		 ret	 0
?Name@TiXmlAttribute@@QBEPBDXZ ENDP			; TiXmlAttribute::Name
_TEXT	ENDS
; Function compile flags: /Ogtp
; File E:\Proyectos\JuegosOnlineproyectos\PB\pbblow\Piercing Blow Remake\i3Server\include\i3Base\tinyxml.h
; File E:\Proyectos\JuegosOnlineproyectos\PB\pbblow\Piercing Blow Remake\i3Server\include\i3Base\tinystr.h
; File E:\Proyectos\JuegosOnlineproyectos\PB\pbblow\Piercing Blow Remake\i3Server\include\i3Base\tinyxml.h
; File E:\Proyectos\JuegosOnlineproyectos\PB\pbblow\Piercing Blow Remake\i3Server\include\i3Base\tinystr.h
; File E:\Proyectos\JuegosOnlineproyectos\PB\pbblow\Piercing Blow Remake\i3Server\include\i3Base\tinyxml.h
;	COMDAT ??0TiXmlAttribute@@QAE@PBD0@Z
_TEXT	SEGMENT
_this$ = -16						; size = 4
__$EHRec$ = -12						; size = 12
__name$ = 8						; size = 4
tv85 = 8						; size = 4
__value$ = 12						; size = 4
??0TiXmlAttribute@@QAE@PBD0@Z PROC			; TiXmlAttribute::TiXmlAttribute, COMDAT
; _this$ = ecx

; 807  : 	TiXmlAttribute( const char * _name, const char * _value )

  00000	55		 push	 ebp
  00001	8b ec		 mov	 ebp, esp
  00003	6a ff		 push	 -1
  00005	68 00 00 00 00	 push	 __ehhandler$??0TiXmlAttribute@@QAE@PBD0@Z
  0000a	64 a1 00 00 00
	00		 mov	 eax, DWORD PTR fs:0
  00010	50		 push	 eax
  00011	51		 push	 ecx
  00012	53		 push	 ebx
  00013	56		 push	 esi
  00014	57		 push	 edi
  00015	a1 00 00 00 00	 mov	 eax, DWORD PTR ___security_cookie
  0001a	33 c5		 xor	 eax, ebp
  0001c	50		 push	 eax
  0001d	8d 45 f4	 lea	 eax, DWORD PTR __$EHRec$[ebp]
  00020	64 a3 00 00 00
	00		 mov	 DWORD PTR fs:0, eax
  00026	8b f1		 mov	 esi, ecx
  00028	89 75 f0	 mov	 DWORD PTR _this$[ebp], esi

; 107  : 	void Clear()		{ row = col = -1; }

  0002b	c7 46 08 ff ff
	ff ff		 mov	 DWORD PTR [esi+8], -1
  00032	c7 46 04 ff ff
	ff ff		 mov	 DWORD PTR [esi+4], -1

; 205  : 	TiXmlBase()	:	userData(0)		{}

  00039	c7 46 0c 00 00
	00 00		 mov	 DWORD PTR [esi+12], 0

; 808  : 	{

  00040	8d 4e 14	 lea	 ecx, DWORD PTR [esi+20]
  00043	c7 06 00 00 00
	00		 mov	 DWORD PTR [esi], OFFSET ??_7TiXmlAttribute@@6B@
  00049	c7 45 fc 00 00
	00 00		 mov	 DWORD PTR __$EHRec$[ebp+8], 0
; File E:\Proyectos\JuegosOnlineproyectos\PB\pbblow\Piercing Blow Remake\i3Server\include\i3Base\tinystr.h

; 80   : 	TiXmlString () : rep_(&nullrep_)

  00050	c7 01 00 00 00
	00		 mov	 DWORD PTR [ecx], OFFSET ?nullrep_@TiXmlString@@0URep@1@A ; TiXmlString::nullrep_
  00056	c7 46 18 00 00
	00 00		 mov	 DWORD PTR [esi+24], OFFSET ?nullrep_@TiXmlString@@0URep@1@A ; TiXmlString::nullrep_

; 114  : 		return assign( copy, (size_type)strlen(copy));

  0005d	8b 7d 08	 mov	 edi, DWORD PTR __name$[ebp]
  00060	8b d7		 mov	 edx, edi
; File E:\Proyectos\JuegosOnlineproyectos\PB\pbblow\Piercing Blow Remake\i3Server\include\i3Base\tinyxml.h

; 808  : 	{

  00062	c6 45 fc 02	 mov	 BYTE PTR __$EHRec$[ebp+8], 2
; File E:\Proyectos\JuegosOnlineproyectos\PB\pbblow\Piercing Blow Remake\i3Server\include\i3Base\tinystr.h

; 114  : 		return assign( copy, (size_type)strlen(copy));

  00066	8d 42 01	 lea	 eax, DWORD PTR [edx+1]
  00069	89 45 08	 mov	 DWORD PTR tv85[ebp], eax
  0006c	8d 64 24 00	 npad	 4
$LL20@TiXmlAttri:
  00070	8a 02		 mov	 al, BYTE PTR [edx]
  00072	42		 inc	 edx
  00073	84 c0		 test	 al, al
  00075	75 f9		 jne	 SHORT $LL20@TiXmlAttri
  00077	2b 55 08	 sub	 edx, DWORD PTR tv85[ebp]
  0007a	52		 push	 edx
  0007b	57		 push	 edi
  0007c	e8 00 00 00 00	 call	 ?assign@TiXmlString@@QAEAAV1@PBDI@Z ; TiXmlString::assign
  00081	8b 7d 0c	 mov	 edi, DWORD PTR __value$[ebp]
  00084	8b c7		 mov	 eax, edi
  00086	8d 48 01	 lea	 ecx, DWORD PTR [eax+1]
  00089	8d a4 24 00 00
	00 00		 npad	 7
$LL21@TiXmlAttri:
  00090	8a 10		 mov	 dl, BYTE PTR [eax]
  00092	40		 inc	 eax
  00093	84 d2		 test	 dl, dl
  00095	75 f9		 jne	 SHORT $LL21@TiXmlAttri
  00097	2b c1		 sub	 eax, ecx
  00099	8d 4e 18	 lea	 ecx, DWORD PTR [esi+24]
  0009c	50		 push	 eax
  0009d	57		 push	 edi
  0009e	e8 00 00 00 00	 call	 ?assign@TiXmlString@@QAEAAV1@PBDI@Z ; TiXmlString::assign
; File E:\Proyectos\JuegosOnlineproyectos\PB\pbblow\Piercing Blow Remake\i3Server\include\i3Base\tinyxml.h

; 811  : 		document = 0;

  000a3	c7 46 10 00 00
	00 00		 mov	 DWORD PTR [esi+16], 0

; 812  : 		prev = next = 0;
; 813  : 	}

  000aa	8b c6		 mov	 eax, esi
  000ac	c7 46 20 00 00
	00 00		 mov	 DWORD PTR [esi+32], 0
  000b3	c7 46 1c 00 00
	00 00		 mov	 DWORD PTR [esi+28], 0
  000ba	8b 4d f4	 mov	 ecx, DWORD PTR __$EHRec$[ebp]
  000bd	64 89 0d 00 00
	00 00		 mov	 DWORD PTR fs:0, ecx
  000c4	59		 pop	 ecx
  000c5	5f		 pop	 edi
  000c6	5e		 pop	 esi
  000c7	5b		 pop	 ebx
  000c8	8b e5		 mov	 esp, ebp
  000ca	5d		 pop	 ebp
  000cb	c2 08 00	 ret	 8
_TEXT	ENDS
;	COMDAT text$x
text$x	SEGMENT
__unwindfunclet$??0TiXmlAttribute@@QAE@PBD0@Z$0:
  00000	8b 4d f0	 mov	 ecx, DWORD PTR _this$[ebp]
  00003	e9 00 00 00 00	 jmp	 ??1TiXmlBase@@UAE@XZ	; TiXmlBase::~TiXmlBase
__unwindfunclet$??0TiXmlAttribute@@QAE@PBD0@Z$1:
  00008	8b 4d f0	 mov	 ecx, DWORD PTR _this$[ebp]
  0000b	83 c1 14	 add	 ecx, 20			; 00000014H
  0000e	e9 00 00 00 00	 jmp	 ??1TiXmlString@@QAE@XZ	; TiXmlString::~TiXmlString
__unwindfunclet$??0TiXmlAttribute@@QAE@PBD0@Z$2:
  00013	8b 4d f0	 mov	 ecx, DWORD PTR _this$[ebp]
  00016	83 c1 18	 add	 ecx, 24			; 00000018H
  00019	e9 00 00 00 00	 jmp	 ??1TiXmlString@@QAE@XZ	; TiXmlString::~TiXmlString
  0001e	cc		 int	 3
  0001f	cc		 int	 3
  00020	cc		 int	 3
  00021	cc		 int	 3
  00022	cc		 int	 3
__ehhandler$??0TiXmlAttribute@@QAE@PBD0@Z:
  00023	90		 npad	 1
  00024	90		 npad	 1
  00025	8b 54 24 08	 mov	 edx, DWORD PTR [esp+8]
  00029	8d 42 0c	 lea	 eax, DWORD PTR [edx+12]
  0002c	8b 4a ec	 mov	 ecx, DWORD PTR [edx-20]
  0002f	33 c8		 xor	 ecx, eax
  00031	e8 00 00 00 00	 call	 @__security_check_cookie@4
  00036	b8 00 00 00 00	 mov	 eax, OFFSET __ehfuncinfo$??0TiXmlAttribute@@QAE@PBD0@Z
  0003b	e9 00 00 00 00	 jmp	 ___CxxFrameHandler3
text$x	ENDS
??0TiXmlAttribute@@QAE@PBD0@Z ENDP			; TiXmlAttribute::TiXmlAttribute
; Function compile flags: /Ogtp
; File E:\Proyectos\JuegosOnlineproyectos\PB\pbblow\Piercing Blow Remake\i3Server\include\i3Base\tinyxml.h
; File E:\Proyectos\JuegosOnlineproyectos\PB\pbblow\Piercing Blow Remake\i3Server\include\i3Base\tinystr.h
; File E:\Proyectos\JuegosOnlineproyectos\PB\pbblow\Piercing Blow Remake\i3Server\include\i3Base\tinyxml.h
;	COMDAT ??0TiXmlAttribute@@QAE@XZ
_TEXT	SEGMENT
_this$ = -4						; size = 4
??0TiXmlAttribute@@QAE@XZ PROC				; TiXmlAttribute::TiXmlAttribute, COMDAT
; _this$ = ecx

; 790  : 	{

  00000	55		 push	 ebp
  00001	8b ec		 mov	 ebp, esp
  00003	51		 push	 ecx

; 107  : 	void Clear()		{ row = col = -1; }

  00004	c7 41 08 ff ff
	ff ff		 mov	 DWORD PTR [ecx+8], -1

; 793  : 	}

  0000b	8b c1		 mov	 eax, ecx

; 107  : 	void Clear()		{ row = col = -1; }

  0000d	c7 41 04 ff ff
	ff ff		 mov	 DWORD PTR [ecx+4], -1

; 205  : 	TiXmlBase()	:	userData(0)		{}

  00014	c7 41 0c 00 00
	00 00		 mov	 DWORD PTR [ecx+12], 0

; 790  : 	{

  0001b	c7 01 00 00 00
	00		 mov	 DWORD PTR [ecx], OFFSET ??_7TiXmlAttribute@@6B@
; File E:\Proyectos\JuegosOnlineproyectos\PB\pbblow\Piercing Blow Remake\i3Server\include\i3Base\tinystr.h

; 80   : 	TiXmlString () : rep_(&nullrep_)

  00021	c7 41 14 00 00
	00 00		 mov	 DWORD PTR [ecx+20], OFFSET ?nullrep_@TiXmlString@@0URep@1@A ; TiXmlString::nullrep_
  00028	c7 41 18 00 00
	00 00		 mov	 DWORD PTR [ecx+24], OFFSET ?nullrep_@TiXmlString@@0URep@1@A ; TiXmlString::nullrep_
; File E:\Proyectos\JuegosOnlineproyectos\PB\pbblow\Piercing Blow Remake\i3Server\include\i3Base\tinyxml.h

; 790  : 	{

  0002f	89 4d fc	 mov	 DWORD PTR _this$[ebp], ecx

; 791  : 		document = 0;

  00032	c7 41 10 00 00
	00 00		 mov	 DWORD PTR [ecx+16], 0

; 792  : 		prev = next = 0;

  00039	c7 41 20 00 00
	00 00		 mov	 DWORD PTR [ecx+32], 0
  00040	c7 41 1c 00 00
	00 00		 mov	 DWORD PTR [ecx+28], 0

; 793  : 	}

  00047	8b e5		 mov	 esp, ebp
  00049	5d		 pop	 ebp
  0004a	c3		 ret	 0
??0TiXmlAttribute@@QAE@XZ ENDP				; TiXmlAttribute::TiXmlAttribute
_TEXT	ENDS
; Function compile flags: /Ogtp
; File E:\Proyectos\JuegosOnlineproyectos\PB\pbblow\Piercing Blow Remake\i3Server\include\i3Base\tinyxml.h
;	COMDAT ?ToDeclaration@TiXmlNode@@UAEPAVTiXmlDeclaration@@XZ
_TEXT	SEGMENT
?ToDeclaration@TiXmlNode@@UAEPAVTiXmlDeclaration@@XZ PROC ; TiXmlNode::ToDeclaration, COMDAT
; _this$ = ecx

; 713  : 	virtual TiXmlDeclaration*       ToDeclaration() { return 0; } ///< Cast to a more defined type. Will return null if not of the requested type.

  00000	33 c0		 xor	 eax, eax
  00002	c3		 ret	 0
?ToDeclaration@TiXmlNode@@UAEPAVTiXmlDeclaration@@XZ ENDP ; TiXmlNode::ToDeclaration
_TEXT	ENDS
; Function compile flags: /Ogtp
; File E:\Proyectos\JuegosOnlineproyectos\PB\pbblow\Piercing Blow Remake\i3Server\include\i3Base\tinyxml.h
;	COMDAT ?ToText@TiXmlNode@@UAEPAVTiXmlText@@XZ
_TEXT	SEGMENT
?ToText@TiXmlNode@@UAEPAVTiXmlText@@XZ PROC		; TiXmlNode::ToText, COMDAT
; _this$ = ecx

; 712  : 	virtual TiXmlText*	            ToText()        { return 0; } ///< Cast to a more defined type. Will return null if not of the requested type.

  00000	33 c0		 xor	 eax, eax
  00002	c3		 ret	 0
?ToText@TiXmlNode@@UAEPAVTiXmlText@@XZ ENDP		; TiXmlNode::ToText
_TEXT	ENDS
; Function compile flags: /Ogtp
; File E:\Proyectos\JuegosOnlineproyectos\PB\pbblow\Piercing Blow Remake\i3Server\include\i3Base\tinyxml.h
;	COMDAT ?ToUnknown@TiXmlNode@@UAEPAVTiXmlUnknown@@XZ
_TEXT	SEGMENT
?ToUnknown@TiXmlNode@@UAEPAVTiXmlUnknown@@XZ PROC	; TiXmlNode::ToUnknown, COMDAT
; _this$ = ecx

; 711  : 	virtual TiXmlUnknown*           ToUnknown()	    { return 0; } ///< Cast to a more defined type. Will return null if not of the requested type.

  00000	33 c0		 xor	 eax, eax
  00002	c3		 ret	 0
?ToUnknown@TiXmlNode@@UAEPAVTiXmlUnknown@@XZ ENDP	; TiXmlNode::ToUnknown
_TEXT	ENDS
; Function compile flags: /Ogtp
; File E:\Proyectos\JuegosOnlineproyectos\PB\pbblow\Piercing Blow Remake\i3Server\include\i3Base\tinyxml.h
;	COMDAT ?ToComment@TiXmlNode@@UAEPAVTiXmlComment@@XZ
_TEXT	SEGMENT
?ToComment@TiXmlNode@@UAEPAVTiXmlComment@@XZ PROC	; TiXmlNode::ToComment, COMDAT
; _this$ = ecx

; 710  : 	virtual TiXmlComment*           ToComment()     { return 0; } ///< Cast to a more defined type. Will return null if not of the requested type.

  00000	33 c0		 xor	 eax, eax
  00002	c3		 ret	 0
?ToComment@TiXmlNode@@UAEPAVTiXmlComment@@XZ ENDP	; TiXmlNode::ToComment
_TEXT	ENDS
; Function compile flags: /Ogtp
; File E:\Proyectos\JuegosOnlineproyectos\PB\pbblow\Piercing Blow Remake\i3Server\include\i3Base\tinyxml.h
;	COMDAT ?ToElement@TiXmlNode@@UAEPAVTiXmlElement@@XZ
_TEXT	SEGMENT
?ToElement@TiXmlNode@@UAEPAVTiXmlElement@@XZ PROC	; TiXmlNode::ToElement, COMDAT
; _this$ = ecx

; 709  : 	virtual TiXmlElement*           ToElement()	    { return 0; } ///< Cast to a more defined type. Will return null if not of the requested type.

  00000	33 c0		 xor	 eax, eax
  00002	c3		 ret	 0
?ToElement@TiXmlNode@@UAEPAVTiXmlElement@@XZ ENDP	; TiXmlNode::ToElement
_TEXT	ENDS
; Function compile flags: /Ogtp
; File E:\Proyectos\JuegosOnlineproyectos\PB\pbblow\Piercing Blow Remake\i3Server\include\i3Base\tinyxml.h
;	COMDAT ?ToDocument@TiXmlNode@@UAEPAVTiXmlDocument@@XZ
_TEXT	SEGMENT
?ToDocument@TiXmlNode@@UAEPAVTiXmlDocument@@XZ PROC	; TiXmlNode::ToDocument, COMDAT
; _this$ = ecx

; 708  : 	virtual TiXmlDocument*          ToDocument()    { return 0; } ///< Cast to a more defined type. Will return null if not of the requested type.

  00000	33 c0		 xor	 eax, eax
  00002	c3		 ret	 0
?ToDocument@TiXmlNode@@UAEPAVTiXmlDocument@@XZ ENDP	; TiXmlNode::ToDocument
_TEXT	ENDS
; Function compile flags: /Ogtp
; File E:\Proyectos\JuegosOnlineproyectos\PB\pbblow\Piercing Blow Remake\i3Server\include\i3Base\tinyxml.h
;	COMDAT ?ToDeclaration@TiXmlNode@@UBEPBVTiXmlDeclaration@@XZ
_TEXT	SEGMENT
?ToDeclaration@TiXmlNode@@UBEPBVTiXmlDeclaration@@XZ PROC ; TiXmlNode::ToDeclaration, COMDAT
; _this$ = ecx

; 706  : 	virtual const TiXmlDeclaration* ToDeclaration() const { return 0; } ///< Cast to a more defined type. Will return null if not of the requested type.

  00000	33 c0		 xor	 eax, eax
  00002	c3		 ret	 0
?ToDeclaration@TiXmlNode@@UBEPBVTiXmlDeclaration@@XZ ENDP ; TiXmlNode::ToDeclaration
_TEXT	ENDS
; Function compile flags: /Ogtp
; File E:\Proyectos\JuegosOnlineproyectos\PB\pbblow\Piercing Blow Remake\i3Server\include\i3Base\tinyxml.h
;	COMDAT ?ToText@TiXmlNode@@UBEPBVTiXmlText@@XZ
_TEXT	SEGMENT
?ToText@TiXmlNode@@UBEPBVTiXmlText@@XZ PROC		; TiXmlNode::ToText, COMDAT
; _this$ = ecx

; 705  : 	virtual const TiXmlText*        ToText()        const { return 0; } ///< Cast to a more defined type. Will return null if not of the requested type.

  00000	33 c0		 xor	 eax, eax
  00002	c3		 ret	 0
?ToText@TiXmlNode@@UBEPBVTiXmlText@@XZ ENDP		; TiXmlNode::ToText
_TEXT	ENDS
; Function compile flags: /Ogtp
; File E:\Proyectos\JuegosOnlineproyectos\PB\pbblow\Piercing Blow Remake\i3Server\include\i3Base\tinyxml.h
;	COMDAT ?ToUnknown@TiXmlNode@@UBEPBVTiXmlUnknown@@XZ
_TEXT	SEGMENT
?ToUnknown@TiXmlNode@@UBEPBVTiXmlUnknown@@XZ PROC	; TiXmlNode::ToUnknown, COMDAT
; _this$ = ecx

; 704  : 	virtual const TiXmlUnknown*     ToUnknown()     const { return 0; } ///< Cast to a more defined type. Will return null if not of the requested type.

  00000	33 c0		 xor	 eax, eax
  00002	c3		 ret	 0
?ToUnknown@TiXmlNode@@UBEPBVTiXmlUnknown@@XZ ENDP	; TiXmlNode::ToUnknown
_TEXT	ENDS
; Function compile flags: /Ogtp
; File E:\Proyectos\JuegosOnlineproyectos\PB\pbblow\Piercing Blow Remake\i3Server\include\i3Base\tinyxml.h
;	COMDAT ?ToComment@TiXmlNode@@UBEPBVTiXmlComment@@XZ
_TEXT	SEGMENT
?ToComment@TiXmlNode@@UBEPBVTiXmlComment@@XZ PROC	; TiXmlNode::ToComment, COMDAT
; _this$ = ecx

; 703  : 	virtual const TiXmlComment*     ToComment()     const { return 0; } ///< Cast to a more defined type. Will return null if not of the requested type.

  00000	33 c0		 xor	 eax, eax
  00002	c3		 ret	 0
?ToComment@TiXmlNode@@UBEPBVTiXmlComment@@XZ ENDP	; TiXmlNode::ToComment
_TEXT	ENDS
; Function compile flags: /Ogtp
; File E:\Proyectos\JuegosOnlineproyectos\PB\pbblow\Piercing Blow Remake\i3Server\include\i3Base\tinyxml.h
;	COMDAT ?ToElement@TiXmlNode@@UBEPBVTiXmlElement@@XZ
_TEXT	SEGMENT
?ToElement@TiXmlNode@@UBEPBVTiXmlElement@@XZ PROC	; TiXmlNode::ToElement, COMDAT
; _this$ = ecx

; 702  : 	virtual const TiXmlElement*     ToElement()     const { return 0; } ///< Cast to a more defined type. Will return null if not of the requested type.

  00000	33 c0		 xor	 eax, eax
  00002	c3		 ret	 0
?ToElement@TiXmlNode@@UBEPBVTiXmlElement@@XZ ENDP	; TiXmlNode::ToElement
_TEXT	ENDS
; Function compile flags: /Ogtp
; File E:\Proyectos\JuegosOnlineproyectos\PB\pbblow\Piercing Blow Remake\i3Server\include\i3Base\tinyxml.h
;	COMDAT ?ToDocument@TiXmlNode@@UBEPBVTiXmlDocument@@XZ
_TEXT	SEGMENT
?ToDocument@TiXmlNode@@UBEPBVTiXmlDocument@@XZ PROC	; TiXmlNode::ToDocument, COMDAT
; _this$ = ecx

; 701  : 	virtual const TiXmlDocument*    ToDocument()    const { return 0; } ///< Cast to a more defined type. Will return null if not of the requested type.

  00000	33 c0		 xor	 eax, eax
  00002	c3		 ret	 0
?ToDocument@TiXmlNode@@UBEPBVTiXmlDocument@@XZ ENDP	; TiXmlNode::ToDocument
_TEXT	ENDS
; Function compile flags: /Ogtp
; File E:\Proyectos\JuegosOnlineproyectos\PB\pbblow\Piercing Blow Remake\i3Server\include\i3Base\tinyxml.h
;	COMDAT ?NoChildren@TiXmlNode@@QBE_NXZ
_TEXT	SEGMENT
?NoChildren@TiXmlNode@@QBE_NXZ PROC			; TiXmlNode::NoChildren, COMDAT
; _this$ = ecx

; 699  : 	bool NoChildren() const						{ return !firstChild; }

  00000	83 79 18 00	 cmp	 DWORD PTR [ecx+24], 0
  00004	0f 94 c0	 sete	 al
  00007	c3		 ret	 0
?NoChildren@TiXmlNode@@QBE_NXZ ENDP			; TiXmlNode::NoChildren
_TEXT	ENDS
; Function compile flags: /Ogtp
; File E:\Proyectos\JuegosOnlineproyectos\PB\pbblow\Piercing Blow Remake\i3Server\include\i3Base\tinyxml.h
;	COMDAT ?GetDocument@TiXmlNode@@QAEPAVTiXmlDocument@@XZ
_TEXT	SEGMENT
?GetDocument@TiXmlNode@@QAEPAVTiXmlDocument@@XZ PROC	; TiXmlNode::GetDocument, COMDAT
; _this$ = ecx

; 695  : 		return const_cast< TiXmlDocument* >( (const_cast< const TiXmlNode* >(this))->GetDocument() );

  00000	e9 00 00 00 00	 jmp	 ?GetDocument@TiXmlNode@@QBEPBVTiXmlDocument@@XZ ; TiXmlNode::GetDocument
?GetDocument@TiXmlNode@@QAEPAVTiXmlDocument@@XZ ENDP	; TiXmlNode::GetDocument
_TEXT	ENDS
; Function compile flags: /Ogtp
; File E:\Proyectos\JuegosOnlineproyectos\PB\pbblow\Piercing Blow Remake\i3Server\include\i3Base\tinyxml.h
;	COMDAT ?Type@TiXmlNode@@QBEHXZ
_TEXT	SEGMENT
?Type@TiXmlNode@@QBEHXZ PROC				; TiXmlNode::Type, COMDAT
; _this$ = ecx

; 688  : 	int Type() const	{ return type; }

  00000	8b 41 14	 mov	 eax, DWORD PTR [ecx+20]
  00003	c3		 ret	 0
?Type@TiXmlNode@@QBEHXZ ENDP				; TiXmlNode::Type
_TEXT	ENDS
; Function compile flags: /Ogtp
; File E:\Proyectos\JuegosOnlineproyectos\PB\pbblow\Piercing Blow Remake\i3Server\include\i3Base\tinyxml.h
;	COMDAT ?FirstChildElement@TiXmlNode@@QAEPAVTiXmlElement@@PBD@Z
_TEXT	SEGMENT
__value$ = 8						; size = 4
?FirstChildElement@TiXmlNode@@QAEPAVTiXmlElement@@PBD@Z PROC ; TiXmlNode::FirstChildElement, COMDAT
; _this$ = ecx

; 675  : 	TiXmlElement* FirstChildElement( const char * _value ) {

  00000	55		 push	 ebp
  00001	8b ec		 mov	 ebp, esp

; 677  : 	}

  00003	5d		 pop	 ebp

; 676  : 		return const_cast< TiXmlElement* >( (const_cast< const TiXmlNode* >(this))->FirstChildElement( _value ) );

  00004	e9 00 00 00 00	 jmp	 ?FirstChildElement@TiXmlNode@@QBEPBVTiXmlElement@@PBD@Z ; TiXmlNode::FirstChildElement
?FirstChildElement@TiXmlNode@@QAEPAVTiXmlElement@@PBD@Z ENDP ; TiXmlNode::FirstChildElement
_TEXT	ENDS
; Function compile flags: /Ogtp
; File E:\Proyectos\JuegosOnlineproyectos\PB\pbblow\Piercing Blow Remake\i3Server\include\i3Base\tinyxml.h
;	COMDAT ?FirstChildElement@TiXmlNode@@QAEPAVTiXmlElement@@XZ
_TEXT	SEGMENT
?FirstChildElement@TiXmlNode@@QAEPAVTiXmlElement@@XZ PROC ; TiXmlNode::FirstChildElement, COMDAT
; _this$ = ecx

; 670  : 		return const_cast< TiXmlElement* >( (const_cast< const TiXmlNode* >(this))->FirstChildElement() );

  00000	e9 00 00 00 00	 jmp	 ?FirstChildElement@TiXmlNode@@QBEPBVTiXmlElement@@XZ ; TiXmlNode::FirstChildElement
?FirstChildElement@TiXmlNode@@QAEPAVTiXmlElement@@XZ ENDP ; TiXmlNode::FirstChildElement
_TEXT	ENDS
; Function compile flags: /Ogtp
; File E:\Proyectos\JuegosOnlineproyectos\PB\pbblow\Piercing Blow Remake\i3Server\include\i3Base\tinyxml.h
;	COMDAT ?NextSiblingElement@TiXmlNode@@QAEPAVTiXmlElement@@PBD@Z
_TEXT	SEGMENT
__next$ = 8						; size = 4
?NextSiblingElement@TiXmlNode@@QAEPAVTiXmlElement@@PBD@Z PROC ; TiXmlNode::NextSiblingElement, COMDAT
; _this$ = ecx

; 658  : 	TiXmlElement* NextSiblingElement( const char *_next ) {

  00000	55		 push	 ebp
  00001	8b ec		 mov	 ebp, esp

; 660  : 	}

  00003	5d		 pop	 ebp

; 659  : 		return const_cast< TiXmlElement* >( (const_cast< const TiXmlNode* >(this))->NextSiblingElement( _next ) );

  00004	e9 00 00 00 00	 jmp	 ?NextSiblingElement@TiXmlNode@@QBEPBVTiXmlElement@@PBD@Z ; TiXmlNode::NextSiblingElement
?NextSiblingElement@TiXmlNode@@QAEPAVTiXmlElement@@PBD@Z ENDP ; TiXmlNode::NextSiblingElement
_TEXT	ENDS
; Function compile flags: /Ogtp
; File E:\Proyectos\JuegosOnlineproyectos\PB\pbblow\Piercing Blow Remake\i3Server\include\i3Base\tinyxml.h
;	COMDAT ?NextSiblingElement@TiXmlNode@@QAEPAVTiXmlElement@@XZ
_TEXT	SEGMENT
?NextSiblingElement@TiXmlNode@@QAEPAVTiXmlElement@@XZ PROC ; TiXmlNode::NextSiblingElement, COMDAT
; _this$ = ecx

; 650  : 		return const_cast< TiXmlElement* >( (const_cast< const TiXmlNode* >(this))->NextSiblingElement() );

  00000	e9 00 00 00 00	 jmp	 ?NextSiblingElement@TiXmlNode@@QBEPBVTiXmlElement@@XZ ; TiXmlNode::NextSiblingElement
?NextSiblingElement@TiXmlNode@@QAEPAVTiXmlElement@@XZ ENDP ; TiXmlNode::NextSiblingElement
_TEXT	ENDS
; Function compile flags: /Ogtp
; File E:\Proyectos\JuegosOnlineproyectos\PB\pbblow\Piercing Blow Remake\i3Server\include\i3Base\tinyxml.h
;	COMDAT ?NextSibling@TiXmlNode@@QAEPAV1@PBD@Z
_TEXT	SEGMENT
__next$ = 8						; size = 4
?NextSibling@TiXmlNode@@QAEPAV1@PBD@Z PROC		; TiXmlNode::NextSibling, COMDAT
; _this$ = ecx

; 640  : 	TiXmlNode* NextSibling( const char* _next ) {

  00000	55		 push	 ebp
  00001	8b ec		 mov	 ebp, esp

; 642  : 	}

  00003	5d		 pop	 ebp

; 641  : 		return const_cast< TiXmlNode* >( (const_cast< const TiXmlNode* >(this))->NextSibling( _next ) );

  00004	e9 00 00 00 00	 jmp	 ?NextSibling@TiXmlNode@@QBEPBV1@PBD@Z ; TiXmlNode::NextSibling
?NextSibling@TiXmlNode@@QAEPAV1@PBD@Z ENDP		; TiXmlNode::NextSibling
_TEXT	ENDS
; Function compile flags: /Ogtp
; File E:\Proyectos\JuegosOnlineproyectos\PB\pbblow\Piercing Blow Remake\i3Server\include\i3Base\tinyxml.h
;	COMDAT ?NextSibling@TiXmlNode@@QAEPAV1@XZ
_TEXT	SEGMENT
?NextSibling@TiXmlNode@@QAEPAV1@XZ PROC			; TiXmlNode::NextSibling, COMDAT
; _this$ = ecx

; 636  : 	TiXmlNode* NextSibling()							{ return next; }

  00000	8b 41 28	 mov	 eax, DWORD PTR [ecx+40]
  00003	c3		 ret	 0
?NextSibling@TiXmlNode@@QAEPAV1@XZ ENDP			; TiXmlNode::NextSibling
_TEXT	ENDS
; Function compile flags: /Ogtp
; File E:\Proyectos\JuegosOnlineproyectos\PB\pbblow\Piercing Blow Remake\i3Server\include\i3Base\tinyxml.h
;	COMDAT ?NextSibling@TiXmlNode@@QBEPBV1@XZ
_TEXT	SEGMENT
?NextSibling@TiXmlNode@@QBEPBV1@XZ PROC			; TiXmlNode::NextSibling, COMDAT
; _this$ = ecx

; 635  : 	const TiXmlNode* NextSibling() const				{ return next; }

  00000	8b 41 28	 mov	 eax, DWORD PTR [ecx+40]
  00003	c3		 ret	 0
?NextSibling@TiXmlNode@@QBEPBV1@XZ ENDP			; TiXmlNode::NextSibling
_TEXT	ENDS
; Function compile flags: /Ogtp
; File E:\Proyectos\JuegosOnlineproyectos\PB\pbblow\Piercing Blow Remake\i3Server\include\i3Base\tinyxml.h
;	COMDAT ?PreviousSibling@TiXmlNode@@QAEPAV1@PBD@Z
_TEXT	SEGMENT
__prev$ = 8						; size = 4
?PreviousSibling@TiXmlNode@@QAEPAV1@PBD@Z PROC		; TiXmlNode::PreviousSibling, COMDAT
; _this$ = ecx

; 623  : 	TiXmlNode* PreviousSibling( const char *_prev ) {

  00000	55		 push	 ebp
  00001	8b ec		 mov	 ebp, esp

; 625  : 	}

  00003	5d		 pop	 ebp

; 624  : 		return const_cast< TiXmlNode* >( (const_cast< const TiXmlNode* >(this))->PreviousSibling( _prev ) );

  00004	e9 00 00 00 00	 jmp	 ?PreviousSibling@TiXmlNode@@QBEPBV1@PBD@Z ; TiXmlNode::PreviousSibling
?PreviousSibling@TiXmlNode@@QAEPAV1@PBD@Z ENDP		; TiXmlNode::PreviousSibling
_TEXT	ENDS
; Function compile flags: /Ogtp
; File E:\Proyectos\JuegosOnlineproyectos\PB\pbblow\Piercing Blow Remake\i3Server\include\i3Base\tinyxml.h
;	COMDAT ?PreviousSibling@TiXmlNode@@QAEPAV1@XZ
_TEXT	SEGMENT
?PreviousSibling@TiXmlNode@@QAEPAV1@XZ PROC		; TiXmlNode::PreviousSibling, COMDAT
; _this$ = ecx

; 619  : 	TiXmlNode* PreviousSibling()						{ return prev; }

  00000	8b 41 24	 mov	 eax, DWORD PTR [ecx+36]
  00003	c3		 ret	 0
?PreviousSibling@TiXmlNode@@QAEPAV1@XZ ENDP		; TiXmlNode::PreviousSibling
_TEXT	ENDS
; Function compile flags: /Ogtp
; File E:\Proyectos\JuegosOnlineproyectos\PB\pbblow\Piercing Blow Remake\i3Server\include\i3Base\tinyxml.h
;	COMDAT ?PreviousSibling@TiXmlNode@@QBEPBV1@XZ
_TEXT	SEGMENT
?PreviousSibling@TiXmlNode@@QBEPBV1@XZ PROC		; TiXmlNode::PreviousSibling, COMDAT
; _this$ = ecx

; 618  : 	const TiXmlNode* PreviousSibling() const			{ return prev; }

  00000	8b 41 24	 mov	 eax, DWORD PTR [ecx+36]
  00003	c3		 ret	 0
?PreviousSibling@TiXmlNode@@QBEPBV1@XZ ENDP		; TiXmlNode::PreviousSibling
_TEXT	ENDS
; Function compile flags: /Ogtp
; File E:\Proyectos\JuegosOnlineproyectos\PB\pbblow\Piercing Blow Remake\i3Server\include\i3Base\tinyxml.h
;	COMDAT ?IterateChildren@TiXmlNode@@QAEPAV1@PBDPBV1@@Z
_TEXT	SEGMENT
__value$ = 8						; size = 4
_previous$ = 12						; size = 4
?IterateChildren@TiXmlNode@@QAEPAV1@PBDPBV1@@Z PROC	; TiXmlNode::IterateChildren, COMDAT
; _this$ = ecx

; 573  : 	TiXmlNode* IterateChildren( const char * _value, const TiXmlNode* previous ) {

  00000	55		 push	 ebp
  00001	8b ec		 mov	 ebp, esp

; 575  : 	}

  00003	5d		 pop	 ebp

; 574  : 		return const_cast< TiXmlNode* >( (const_cast< const TiXmlNode* >(this))->IterateChildren( _value, previous ) );

  00004	e9 00 00 00 00	 jmp	 ?IterateChildren@TiXmlNode@@QBEPBV1@PBDPBV1@@Z ; TiXmlNode::IterateChildren
?IterateChildren@TiXmlNode@@QAEPAV1@PBDPBV1@@Z ENDP	; TiXmlNode::IterateChildren
_TEXT	ENDS
; Function compile flags: /Ogtp
; File E:\Proyectos\JuegosOnlineproyectos\PB\pbblow\Piercing Blow Remake\i3Server\include\i3Base\tinyxml.h
;	COMDAT ?IterateChildren@TiXmlNode@@QAEPAV1@PBV1@@Z
_TEXT	SEGMENT
_previous$ = 8						; size = 4
?IterateChildren@TiXmlNode@@QAEPAV1@PBV1@@Z PROC	; TiXmlNode::IterateChildren, COMDAT
; _this$ = ecx

; 567  : 	TiXmlNode* IterateChildren( const TiXmlNode* previous ) {

  00000	55		 push	 ebp
  00001	8b ec		 mov	 ebp, esp

; 569  : 	}

  00003	5d		 pop	 ebp

; 568  : 		return const_cast< TiXmlNode* >( (const_cast< const TiXmlNode* >(this))->IterateChildren( previous ) );

  00004	e9 00 00 00 00	 jmp	 ?IterateChildren@TiXmlNode@@QBEPBV1@PBV1@@Z ; TiXmlNode::IterateChildren
?IterateChildren@TiXmlNode@@QAEPAV1@PBV1@@Z ENDP	; TiXmlNode::IterateChildren
_TEXT	ENDS
; Function compile flags: /Ogtp
; File E:\Proyectos\JuegosOnlineproyectos\PB\pbblow\Piercing Blow Remake\i3Server\include\i3Base\tinyxml.h
;	COMDAT ?LastChild@TiXmlNode@@QAEPAV1@PBD@Z
_TEXT	SEGMENT
__value$ = 8						; size = 4
?LastChild@TiXmlNode@@QAEPAV1@PBD@Z PROC		; TiXmlNode::LastChild, COMDAT
; _this$ = ecx

; 539  : 	TiXmlNode* LastChild( const char * _value ) {

  00000	55		 push	 ebp
  00001	8b ec		 mov	 ebp, esp

; 541  : 	}

  00003	5d		 pop	 ebp

; 540  : 		return const_cast< TiXmlNode* > ((const_cast< const TiXmlNode* >(this))->LastChild( _value ));

  00004	e9 00 00 00 00	 jmp	 ?LastChild@TiXmlNode@@QBEPBV1@PBD@Z ; TiXmlNode::LastChild
?LastChild@TiXmlNode@@QAEPAV1@PBD@Z ENDP		; TiXmlNode::LastChild
_TEXT	ENDS
; Function compile flags: /Ogtp
; File E:\Proyectos\JuegosOnlineproyectos\PB\pbblow\Piercing Blow Remake\i3Server\include\i3Base\tinyxml.h
;	COMDAT ?LastChild@TiXmlNode@@QAEPAV1@XZ
_TEXT	SEGMENT
?LastChild@TiXmlNode@@QAEPAV1@XZ PROC			; TiXmlNode::LastChild, COMDAT
; _this$ = ecx

; 536  : 	TiXmlNode* LastChild()	{ return lastChild; }

  00000	8b 41 1c	 mov	 eax, DWORD PTR [ecx+28]
  00003	c3		 ret	 0
?LastChild@TiXmlNode@@QAEPAV1@XZ ENDP			; TiXmlNode::LastChild
_TEXT	ENDS
; Function compile flags: /Ogtp
; File E:\Proyectos\JuegosOnlineproyectos\PB\pbblow\Piercing Blow Remake\i3Server\include\i3Base\tinyxml.h
;	COMDAT ?LastChild@TiXmlNode@@QBEPBV1@XZ
_TEXT	SEGMENT
?LastChild@TiXmlNode@@QBEPBV1@XZ PROC			; TiXmlNode::LastChild, COMDAT
; _this$ = ecx

; 535  : 	const TiXmlNode* LastChild() const	{ return lastChild; }		/// The last child of this node. Will be null if there are no children.

  00000	8b 41 1c	 mov	 eax, DWORD PTR [ecx+28]
  00003	c3		 ret	 0
?LastChild@TiXmlNode@@QBEPBV1@XZ ENDP			; TiXmlNode::LastChild
_TEXT	ENDS
; Function compile flags: /Ogtp
; File E:\Proyectos\JuegosOnlineproyectos\PB\pbblow\Piercing Blow Remake\i3Server\include\i3Base\tinyxml.h
;	COMDAT ?FirstChild@TiXmlNode@@QAEPAV1@PBD@Z
_TEXT	SEGMENT
__value$ = 8						; size = 4
?FirstChild@TiXmlNode@@QAEPAV1@PBD@Z PROC		; TiXmlNode::FirstChild, COMDAT
; _this$ = ecx

; 530  : 	TiXmlNode* FirstChild( const char * _value ) {

  00000	55		 push	 ebp
  00001	8b ec		 mov	 ebp, esp

; 534  : 	}

  00003	5d		 pop	 ebp

; 531  : 		// Call through to the const version - safe since nothing is changed. Exiting syntax: cast this to a const (always safe)
; 532  : 		// call the method, cast the return back to non-const.
; 533  : 		return const_cast< TiXmlNode* > ((const_cast< const TiXmlNode* >(this))->FirstChild( _value ));

  00004	e9 00 00 00 00	 jmp	 ?FirstChild@TiXmlNode@@QBEPBV1@PBD@Z ; TiXmlNode::FirstChild
?FirstChild@TiXmlNode@@QAEPAV1@PBD@Z ENDP		; TiXmlNode::FirstChild
_TEXT	ENDS
; Function compile flags: /Ogtp
; File E:\Proyectos\JuegosOnlineproyectos\PB\pbblow\Piercing Blow Remake\i3Server\include\i3Base\tinyxml.h
;	COMDAT ?FirstChild@TiXmlNode@@QAEPAV1@XZ
_TEXT	SEGMENT
?FirstChild@TiXmlNode@@QAEPAV1@XZ PROC			; TiXmlNode::FirstChild, COMDAT
; _this$ = ecx

; 527  : 	TiXmlNode* FirstChild()						{ return firstChild; }

  00000	8b 41 18	 mov	 eax, DWORD PTR [ecx+24]
  00003	c3		 ret	 0
?FirstChild@TiXmlNode@@QAEPAV1@XZ ENDP			; TiXmlNode::FirstChild
_TEXT	ENDS
; Function compile flags: /Ogtp
; File E:\Proyectos\JuegosOnlineproyectos\PB\pbblow\Piercing Blow Remake\i3Server\include\i3Base\tinyxml.h
;	COMDAT ?FirstChild@TiXmlNode@@QBEPBV1@XZ
_TEXT	SEGMENT
?FirstChild@TiXmlNode@@QBEPBV1@XZ PROC			; TiXmlNode::FirstChild, COMDAT
; _this$ = ecx

; 526  : 	const TiXmlNode* FirstChild()	const		{ return firstChild; }	///< The first child of this node. Will be null if there are no children.

  00000	8b 41 18	 mov	 eax, DWORD PTR [ecx+24]
  00003	c3		 ret	 0
?FirstChild@TiXmlNode@@QBEPBV1@XZ ENDP			; TiXmlNode::FirstChild
_TEXT	ENDS
; Function compile flags: /Ogtp
; File E:\Proyectos\JuegosOnlineproyectos\PB\pbblow\Piercing Blow Remake\i3Server\include\i3Base\tinyxml.h
;	COMDAT ?Parent@TiXmlNode@@QBEPBV1@XZ
_TEXT	SEGMENT
?Parent@TiXmlNode@@QBEPBV1@XZ PROC			; TiXmlNode::Parent, COMDAT
; _this$ = ecx

; 524  : 	const TiXmlNode* Parent() const				{ return parent; }

  00000	8b 41 10	 mov	 eax, DWORD PTR [ecx+16]
  00003	c3		 ret	 0
?Parent@TiXmlNode@@QBEPBV1@XZ ENDP			; TiXmlNode::Parent
_TEXT	ENDS
; Function compile flags: /Ogtp
; File E:\Proyectos\JuegosOnlineproyectos\PB\pbblow\Piercing Blow Remake\i3Server\include\i3Base\tinyxml.h
;	COMDAT ?Parent@TiXmlNode@@QAEPAV1@XZ
_TEXT	SEGMENT
?Parent@TiXmlNode@@QAEPAV1@XZ PROC			; TiXmlNode::Parent, COMDAT
; _this$ = ecx

; 523  : 	TiXmlNode* Parent()							{ return parent; }

  00000	8b 41 10	 mov	 eax, DWORD PTR [ecx+16]
  00003	c3		 ret	 0
?Parent@TiXmlNode@@QAEPAV1@XZ ENDP			; TiXmlNode::Parent
_TEXT	ENDS
; Function compile flags: /Ogtp
; File E:\Proyectos\JuegosOnlineproyectos\PB\pbblow\Piercing Blow Remake\i3Server\include\i3Base\tinyxml.h
; File E:\Proyectos\JuegosOnlineproyectos\PB\pbblow\Piercing Blow Remake\i3Server\include\i3Base\tinystr.h
; File E:\Proyectos\JuegosOnlineproyectos\PB\pbblow\Piercing Blow Remake\i3Server\include\i3Base\tinyxml.h
; File E:\Proyectos\JuegosOnlineproyectos\PB\pbblow\Piercing Blow Remake\i3Server\include\i3Base\tinystr.h
; File E:\Proyectos\JuegosOnlineproyectos\PB\pbblow\Piercing Blow Remake\i3Server\include\i3Base\tinyxml.h
; File E:\Proyectos\JuegosOnlineproyectos\PB\pbblow\Piercing Blow Remake\i3Server\include\i3Base\tinystr.h
; File E:\Proyectos\JuegosOnlineproyectos\PB\pbblow\Piercing Blow Remake\i3Server\include\i3Base\tinyxml.h
;	COMDAT ?SetValue@TiXmlNode@@QAEXPBD@Z
_TEXT	SEGMENT
__value$ = 8						; size = 4
?SetValue@TiXmlNode@@QAEXPBD@Z PROC			; TiXmlNode::SetValue, COMDAT
; _this$ = ecx

; 512  : 	void SetValue(const char * _value) { value = _value;}

  00000	55		 push	 ebp
  00001	8b ec		 mov	 ebp, esp
; File E:\Proyectos\JuegosOnlineproyectos\PB\pbblow\Piercing Blow Remake\i3Server\include\i3Base\tinystr.h

; 114  : 		return assign( copy, (size_type)strlen(copy));

  00003	8b 55 08	 mov	 edx, DWORD PTR __value$[ebp]
  00006	8b c2		 mov	 eax, edx
; File E:\Proyectos\JuegosOnlineproyectos\PB\pbblow\Piercing Blow Remake\i3Server\include\i3Base\tinyxml.h

; 512  : 	void SetValue(const char * _value) { value = _value;}

  00008	56		 push	 esi
  00009	57		 push	 edi
  0000a	8b f1		 mov	 esi, ecx
; File E:\Proyectos\JuegosOnlineproyectos\PB\pbblow\Piercing Blow Remake\i3Server\include\i3Base\tinystr.h

; 114  : 		return assign( copy, (size_type)strlen(copy));

  0000c	8d 78 01	 lea	 edi, DWORD PTR [eax+1]
  0000f	90		 npad	 1
$LL5@SetValue:
  00010	8a 08		 mov	 cl, BYTE PTR [eax]
  00012	40		 inc	 eax
  00013	84 c9		 test	 cl, cl
  00015	75 f9		 jne	 SHORT $LL5@SetValue
  00017	2b c7		 sub	 eax, edi
; File E:\Proyectos\JuegosOnlineproyectos\PB\pbblow\Piercing Blow Remake\i3Server\include\i3Base\tinyxml.h

; 512  : 	void SetValue(const char * _value) { value = _value;}

  00019	8d 4e 20	 lea	 ecx, DWORD PTR [esi+32]
; File E:\Proyectos\JuegosOnlineproyectos\PB\pbblow\Piercing Blow Remake\i3Server\include\i3Base\tinystr.h

; 114  : 		return assign( copy, (size_type)strlen(copy));

  0001c	50		 push	 eax
  0001d	52		 push	 edx
  0001e	e8 00 00 00 00	 call	 ?assign@TiXmlString@@QAEAAV1@PBDI@Z ; TiXmlString::assign
  00023	5f		 pop	 edi
  00024	5e		 pop	 esi
; File E:\Proyectos\JuegosOnlineproyectos\PB\pbblow\Piercing Blow Remake\i3Server\include\i3Base\tinyxml.h

; 512  : 	void SetValue(const char * _value) { value = _value;}

  00025	5d		 pop	 ebp
  00026	c2 04 00	 ret	 4
?SetValue@TiXmlNode@@QAEXPBD@Z ENDP			; TiXmlNode::SetValue
_TEXT	ENDS
; Function compile flags: /Ogtp
; File E:\Proyectos\JuegosOnlineproyectos\PB\pbblow\Piercing Blow Remake\i3Server\include\i3Base\tinyxml.h
;	COMDAT ?ValueTStr@TiXmlNode@@QBEABVTiXmlString@@XZ
_TEXT	SEGMENT
?ValueTStr@TiXmlNode@@QBEABVTiXmlString@@XZ PROC	; TiXmlNode::ValueTStr, COMDAT
; _this$ = ecx

; 501  : 	const TIXML_STRING& ValueTStr() const { return value; }

  00000	8d 41 20	 lea	 eax, DWORD PTR [ecx+32]
  00003	c3		 ret	 0
?ValueTStr@TiXmlNode@@QBEABVTiXmlString@@XZ ENDP	; TiXmlNode::ValueTStr
_TEXT	ENDS
; Function compile flags: /Ogtp
; File E:\Proyectos\JuegosOnlineproyectos\PB\pbblow\Piercing Blow Remake\i3Server\include\i3Base\tinyxml.h
; File E:\Proyectos\JuegosOnlineproyectos\PB\pbblow\Piercing Blow Remake\i3Server\include\i3Base\tinystr.h
; File E:\Proyectos\JuegosOnlineproyectos\PB\pbblow\Piercing Blow Remake\i3Server\include\i3Base\tinyxml.h
;	COMDAT ?Value@TiXmlNode@@QBEPBDXZ
_TEXT	SEGMENT
?Value@TiXmlNode@@QBEPBDXZ PROC				; TiXmlNode::Value, COMDAT
; _this$ = ecx
; File E:\Proyectos\JuegosOnlineproyectos\PB\pbblow\Piercing Blow Remake\i3Server\include\i3Base\tinystr.h

; 144  : 	const char * c_str () const { return rep_->str; }

  00000	8b 41 20	 mov	 eax, DWORD PTR [ecx+32]
  00003	83 c0 08	 add	 eax, 8
; File E:\Proyectos\JuegosOnlineproyectos\PB\pbblow\Piercing Blow Remake\i3Server\include\i3Base\tinyxml.h

; 491  : 	const char *Value() const { return value.c_str (); }

  00006	c3		 ret	 0
?Value@TiXmlNode@@QBEPBDXZ ENDP				; TiXmlNode::Value
_TEXT	ENDS
; Function compile flags: /Ogtp
;	COMDAT ??_ETiXmlBase@@UAEPAXI@Z
_TEXT	SEGMENT
__$EHRec$ = -12						; size = 12
___flags$ = 8						; size = 4
??_ETiXmlBase@@UAEPAXI@Z PROC				; TiXmlBase::`vector deleting destructor', COMDAT
; _this$ = ecx
  00000	55		 push	 ebp
  00001	8b ec		 mov	 ebp, esp
  00003	6a ff		 push	 -1
  00005	68 00 00 00 00	 push	 __ehhandler$??_ETiXmlBase@@UAEPAXI@Z
  0000a	64 a1 00 00 00
	00		 mov	 eax, DWORD PTR fs:0
  00010	50		 push	 eax
  00011	53		 push	 ebx
  00012	56		 push	 esi
  00013	57		 push	 edi
  00014	a1 00 00 00 00	 mov	 eax, DWORD PTR ___security_cookie
  00019	33 c5		 xor	 eax, ebp
  0001b	50		 push	 eax
  0001c	8d 45 f4	 lea	 eax, DWORD PTR __$EHRec$[ebp]
  0001f	64 a3 00 00 00
	00		 mov	 DWORD PTR fs:0, eax
  00025	8b f1		 mov	 esi, ecx
  00027	8b 45 08	 mov	 eax, DWORD PTR ___flags$[ebp]
  0002a	8b f8		 mov	 edi, eax
  0002c	83 e7 01	 and	 edi, 1
  0002f	a8 02		 test	 al, 2
  00031	74 3f		 je	 SHORT $LN2@vector
  00033	68 00 00 00 00	 push	 OFFSET ??1TiXmlBase@@UAE@XZ ; TiXmlBase::~TiXmlBase
  00038	ff 76 fc	 push	 DWORD PTR [esi-4]
  0003b	8d 5e fc	 lea	 ebx, DWORD PTR [esi-4]
  0003e	6a 10		 push	 16			; 00000010H
  00040	56		 push	 esi
  00041	e8 00 00 00 00	 call	 ??_M@YGXPAXIIP6EX0@Z@Z
  00046	85 ff		 test	 edi, edi
  00048	74 12		 je	 SHORT $LN3@vector
  0004a	8b 0b		 mov	 ecx, DWORD PTR [ebx]
  0004c	c1 e1 04	 shl	 ecx, 4
  0004f	83 c1 04	 add	 ecx, 4
  00052	51		 push	 ecx
  00053	53		 push	 ebx
  00054	e8 00 00 00 00	 call	 ??_V@YAXPAXI@Z		; operator delete[]
  00059	83 c4 08	 add	 esp, 8
$LN3@vector:
  0005c	8b c3		 mov	 eax, ebx
  0005e	8b 4d f4	 mov	 ecx, DWORD PTR __$EHRec$[ebp]
  00061	64 89 0d 00 00
	00 00		 mov	 DWORD PTR fs:0, ecx
  00068	59		 pop	 ecx
  00069	5f		 pop	 edi
  0006a	5e		 pop	 esi
  0006b	5b		 pop	 ebx
  0006c	8b e5		 mov	 esp, ebp
  0006e	5d		 pop	 ebp
  0006f	c2 04 00	 ret	 4
$LN2@vector:
  00072	c7 06 00 00 00
	00		 mov	 DWORD PTR [esi], OFFSET ??_7TiXmlBase@@6B@
  00078	85 ff		 test	 edi, edi
  0007a	74 0b		 je	 SHORT $LN4@vector
  0007c	6a 10		 push	 16			; 00000010H
  0007e	56		 push	 esi
  0007f	e8 00 00 00 00	 call	 ??3@YAXPAXI@Z		; operator delete
  00084	83 c4 08	 add	 esp, 8
$LN4@vector:
  00087	8b c6		 mov	 eax, esi
  00089	8b 4d f4	 mov	 ecx, DWORD PTR __$EHRec$[ebp]
  0008c	64 89 0d 00 00
	00 00		 mov	 DWORD PTR fs:0, ecx
  00093	59		 pop	 ecx
  00094	5f		 pop	 edi
  00095	5e		 pop	 esi
  00096	5b		 pop	 ebx
  00097	8b e5		 mov	 esp, ebp
  00099	5d		 pop	 ebp
  0009a	c2 04 00	 ret	 4
  0009d	cc		 int	 3
  0009e	cc		 int	 3
  0009f	cc		 int	 3
  000a0	cc		 int	 3
  000a1	cc		 int	 3
_TEXT	ENDS
;	COMDAT text$x
text$x	SEGMENT
__ehhandler$??_ETiXmlBase@@UAEPAXI@Z:
  00000	90		 npad	 1
  00001	90		 npad	 1
  00002	8b 54 24 08	 mov	 edx, DWORD PTR [esp+8]
  00006	8d 42 0c	 lea	 eax, DWORD PTR [edx+12]
  00009	8b 4a f0	 mov	 ecx, DWORD PTR [edx-16]
  0000c	33 c8		 xor	 ecx, eax
  0000e	e8 00 00 00 00	 call	 @__security_check_cookie@4
  00013	b8 00 00 00 00	 mov	 eax, OFFSET __ehfuncinfo$??_ETiXmlBase@@UAEPAXI@Z
  00018	e9 00 00 00 00	 jmp	 ___CxxFrameHandler3
text$x	ENDS
??_ETiXmlBase@@UAEPAXI@Z ENDP				; TiXmlBase::`vector deleting destructor'
; Function compile flags: /Ogtp
;	COMDAT ??_GTiXmlBase@@UAEPAXI@Z
_TEXT	SEGMENT
___flags$ = 8						; size = 4
??_GTiXmlBase@@UAEPAXI@Z PROC				; TiXmlBase::`scalar deleting destructor', COMDAT
; _this$ = ecx
  00000	55		 push	 ebp
  00001	8b ec		 mov	 ebp, esp
  00003	f6 45 08 01	 test	 BYTE PTR ___flags$[ebp], 1
  00007	56		 push	 esi
  00008	8b f1		 mov	 esi, ecx
  0000a	c7 06 00 00 00
	00		 mov	 DWORD PTR [esi], OFFSET ??_7TiXmlBase@@6B@
  00010	74 0b		 je	 SHORT $LN5@scalar
  00012	6a 10		 push	 16			; 00000010H
  00014	56		 push	 esi
  00015	e8 00 00 00 00	 call	 ??3@YAXPAXI@Z		; operator delete
  0001a	83 c4 08	 add	 esp, 8
$LN5@scalar:
  0001d	8b c6		 mov	 eax, esi
  0001f	5e		 pop	 esi
  00020	5d		 pop	 ebp
  00021	c2 04 00	 ret	 4
??_GTiXmlBase@@UAEPAXI@Z ENDP				; TiXmlBase::`scalar deleting destructor'
_TEXT	ENDS
; Function compile flags: /Ogtp
; File E:\Proyectos\JuegosOnlineproyectos\PB\pbblow\Piercing Blow Remake\i3Server\include\i3Base\tinyxml.h
;	COMDAT ?ToLower@TiXmlBase@@KAHHW4TiXmlEncoding@@@Z
_TEXT	SEGMENT
_v$ = 8							; size = 4
_encoding$ = 12						; size = 4
?ToLower@TiXmlBase@@KAHHW4TiXmlEncoding@@@Z PROC	; TiXmlBase::ToLower, COMDAT

; 387  : 	{

  00000	55		 push	 ebp
  00001	8b ec		 mov	 ebp, esp

; 388  : 		if ( encoding == TIXML_ENCODING_UTF8 )

  00003	83 7d 0c 01	 cmp	 DWORD PTR _encoding$[ebp], 1
  00007	75 15		 jne	 SHORT $LN2@ToLower

; 389  : 		{
; 390  : 			if ( v < 128 ) return tolower( v );

  00009	8b 45 08	 mov	 eax, DWORD PTR _v$[ebp]
  0000c	3d 80 00 00 00	 cmp	 eax, 128		; 00000080H
  00011	7d 16		 jge	 SHORT $LN3@ToLower
  00013	50		 push	 eax

; 396  : 		}
; 397  : 	}

  00014	e8 00 00 00 00	 call	 _tolower
  00019	83 c4 04	 add	 esp, 4
  0001c	5d		 pop	 ebp
  0001d	c3		 ret	 0
$LN2@ToLower:

; 391  : 			return v;
; 392  : 		}
; 393  : 		else
; 394  : 		{
; 395  : 			return tolower( v );

  0001e	ff 75 08	 push	 DWORD PTR _v$[ebp]

; 396  : 		}
; 397  : 	}

  00021	e8 00 00 00 00	 call	 _tolower
  00026	83 c4 04	 add	 esp, 4
$LN3@ToLower:
  00029	5d		 pop	 ebp
  0002a	c3		 ret	 0
?ToLower@TiXmlBase@@KAHHW4TiXmlEncoding@@@Z ENDP	; TiXmlBase::ToLower
_TEXT	ENDS
; Function compile flags: /Ogtp
; File E:\Proyectos\JuegosOnlineproyectos\PB\pbblow\Piercing Blow Remake\i3Server\include\i3Base\tinyxml.h
;	COMDAT ?GetChar@TiXmlBase@@KAPBDPBDPADPAHW4TiXmlEncoding@@@Z
_TEXT	SEGMENT
_p$ = 8							; size = 4
__value$ = 12						; size = 4
_length$ = 16						; size = 4
_encoding$ = 20						; size = 4
?GetChar@TiXmlBase@@KAPBDPBDPADPAHW4TiXmlEncoding@@@Z PROC ; TiXmlBase::GetChar, COMDAT

; 332  : 	{

  00000	55		 push	 ebp
  00001	8b ec		 mov	 ebp, esp

; 333  : 		I3ASSERT( p );
; 334  : 		if ( encoding == TIXML_ENCODING_UTF8 )

  00003	8b 4d 14	 mov	 ecx, DWORD PTR _encoding$[ebp]
  00006	8b 55 08	 mov	 edx, DWORD PTR _p$[ebp]
  00009	56		 push	 esi
  0000a	8b 75 10	 mov	 esi, DWORD PTR _length$[ebp]
  0000d	57		 push	 edi
  0000e	8b 7d 0c	 mov	 edi, DWORD PTR __value$[ebp]
  00011	83 f9 01	 cmp	 ecx, 1
  00014	75 39		 jne	 SHORT $LN5@GetChar

; 335  : 		{
; 336  : 			*length = utf8ByteTable[ *((const unsigned char*)p) ];

  00016	0f b6 02	 movzx	 eax, BYTE PTR [edx]
  00019	8b 04 85 00 00
	00 00		 mov	 eax, DWORD PTR ?utf8ByteTable@TiXmlBase@@2QBHB[eax*4]

; 342  : 		}
; 343  : 
; 344  : 		if ( *length == 1 )

  00020	89 06		 mov	 DWORD PTR [esi], eax
  00022	3b c1		 cmp	 eax, ecx
  00024	74 2f		 je	 SHORT $LN17@GetChar

; 350  : 		}
; 351  : 		else if ( *length )

  00026	85 c0		 test	 eax, eax
  00028	74 1f		 je	 SHORT $LN10@GetChar

; 352  : 		{
; 353  : 			//strncpy( _value, p, *length );	// lots of compilers don't like this function (unsafe),
; 354  : 												// and the null terminator isn't needed
; 355  : 			for( int i=0; p[i] && i<*length; ++i ) {

  0002a	33 c9		 xor	 ecx, ecx
  0002c	38 0a		 cmp	 BYTE PTR [edx], cl
  0002e	74 11		 je	 SHORT $LN18@GetChar
$LL4@GetChar:
  00030	3b 0e		 cmp	 ecx, DWORD PTR [esi]
  00032	7d 0d		 jge	 SHORT $LN18@GetChar

; 356  : 				_value[i] = p[i];

  00034	8a 04 0a	 mov	 al, BYTE PTR [edx+ecx]
  00037	88 04 39	 mov	 BYTE PTR [ecx+edi], al
  0003a	41		 inc	 ecx
  0003b	80 3c 0a 00	 cmp	 BYTE PTR [edx+ecx], 0
  0003f	75 ef		 jne	 SHORT $LL4@GetChar
$LN18@GetChar:

; 357  : 			}
; 358  : 			return p + (*length);

  00041	8b 06		 mov	 eax, DWORD PTR [esi]
  00043	5f		 pop	 edi
  00044	03 c2		 add	 eax, edx

; 364  : 		}
; 365  : 	}

  00046	5e		 pop	 esi
  00047	5d		 pop	 ebp
  00048	c3		 ret	 0
$LN10@GetChar:
  00049	5f		 pop	 edi

; 359  : 		}
; 360  : 		else
; 361  : 		{
; 362  : 			// Not valid text.
; 363  : 			return 0;

  0004a	33 c0		 xor	 eax, eax

; 364  : 		}
; 365  : 	}

  0004c	5e		 pop	 esi
  0004d	5d		 pop	 ebp
  0004e	c3		 ret	 0
$LN5@GetChar:

; 337  : 			I3ASSERT( *length >= 0 && *length < 5 );
; 338  : 		}
; 339  : 		else
; 340  : 		{
; 341  : 			*length = 1;

  0004f	c7 06 01 00 00
	00		 mov	 DWORD PTR [esi], 1
$LN17@GetChar:

; 345  : 		{
; 346  : 			if ( *p == '&' )

  00055	8a 02		 mov	 al, BYTE PTR [edx]
  00057	3c 26		 cmp	 al, 38			; 00000026H
  00059	75 10		 jne	 SHORT $LN9@GetChar

; 347  : 				return GetEntity( p, _value, length, encoding );

  0005b	51		 push	 ecx
  0005c	56		 push	 esi
  0005d	57		 push	 edi
  0005e	52		 push	 edx
  0005f	e8 00 00 00 00	 call	 ?GetEntity@TiXmlBase@@KAPBDPBDPADPAHW4TiXmlEncoding@@@Z ; TiXmlBase::GetEntity
  00064	83 c4 10	 add	 esp, 16			; 00000010H
  00067	5f		 pop	 edi

; 364  : 		}
; 365  : 	}

  00068	5e		 pop	 esi
  00069	5d		 pop	 ebp
  0006a	c3		 ret	 0
$LN9@GetChar:

; 348  : 			*_value = *p;

  0006b	88 07		 mov	 BYTE PTR [edi], al

; 349  : 			return p+1;

  0006d	8d 42 01	 lea	 eax, DWORD PTR [edx+1]
  00070	5f		 pop	 edi

; 364  : 		}
; 365  : 	}

  00071	5e		 pop	 esi
  00072	5d		 pop	 ebp
  00073	c3		 ret	 0
?GetChar@TiXmlBase@@KAPBDPBDPADPAHW4TiXmlEncoding@@@Z ENDP ; TiXmlBase::GetChar
_TEXT	ENDS
; Function compile flags: /Ogtp
; File E:\Proyectos\JuegosOnlineproyectos\PB\pbblow\Piercing Blow Remake\i3Server\include\i3Base\tinyxml.h
;	COMDAT ?IsWhiteSpace@TiXmlBase@@KA_NH@Z
_TEXT	SEGMENT
_c$ = 8							; size = 4
?IsWhiteSpace@TiXmlBase@@KA_NH@Z PROC			; TiXmlBase::IsWhiteSpace, COMDAT

; 299  : 	{

  00000	55		 push	 ebp
  00001	8b ec		 mov	 ebp, esp
  00003	53		 push	 ebx

; 300  : 		if ( c < 256 )

  00004	8b 5d 08	 mov	 ebx, DWORD PTR _c$[ebp]
  00007	81 fb 00 01 00
	00		 cmp	 ebx, 256		; 00000100H
  0000d	7d 1f		 jge	 SHORT $LN2@IsWhiteSpa

; 296  : 		return ( isspace( (unsigned char) c ) || c == '\n' || c == '\r' ); 

  0000f	0f b6 c3	 movzx	 eax, bl
  00012	50		 push	 eax
  00013	e8 00 00 00 00	 call	 _isspace
  00018	83 c4 04	 add	 esp, 4
  0001b	85 c0		 test	 eax, eax
  0001d	75 0a		 jne	 SHORT $LN6@IsWhiteSpa
  0001f	80 fb 0a	 cmp	 bl, 10			; 0000000aH
  00022	74 05		 je	 SHORT $LN6@IsWhiteSpa
  00024	80 fb 0d	 cmp	 bl, 13			; 0000000dH
  00027	75 05		 jne	 SHORT $LN2@IsWhiteSpa
$LN6@IsWhiteSpa:
  00029	b0 01		 mov	 al, 1
  0002b	5b		 pop	 ebx

; 301  : 			return IsWhiteSpace( (char) c );
; 302  : 		return false;	// Again, only truly correct for English/Latin...but usually works.
; 303  : 	}

  0002c	5d		 pop	 ebp
  0002d	c3		 ret	 0
$LN2@IsWhiteSpa:
  0002e	32 c0		 xor	 al, al
  00030	5b		 pop	 ebx
  00031	5d		 pop	 ebp
  00032	c3		 ret	 0
?IsWhiteSpace@TiXmlBase@@KA_NH@Z ENDP			; TiXmlBase::IsWhiteSpace
_TEXT	ENDS
; Function compile flags: /Ogtp
; File E:\Proyectos\JuegosOnlineproyectos\PB\pbblow\Piercing Blow Remake\i3Server\include\i3Base\tinyxml.h
;	COMDAT ?IsWhiteSpace@TiXmlBase@@KA_ND@Z
_TEXT	SEGMENT
_c$ = 8							; size = 1
?IsWhiteSpace@TiXmlBase@@KA_ND@Z PROC			; TiXmlBase::IsWhiteSpace, COMDAT

; 295  : 	{ 

  00000	55		 push	 ebp
  00001	8b ec		 mov	 ebp, esp
  00003	53		 push	 ebx

; 296  : 		return ( isspace( (unsigned char) c ) || c == '\n' || c == '\r' ); 

  00004	8a 5d 08	 mov	 bl, BYTE PTR _c$[ebp]
  00007	0f b6 c3	 movzx	 eax, bl
  0000a	50		 push	 eax
  0000b	e8 00 00 00 00	 call	 _isspace
  00010	83 c4 04	 add	 esp, 4
  00013	85 c0		 test	 eax, eax
  00015	75 0f		 jne	 SHORT $LN3@IsWhiteSpa
  00017	80 fb 0a	 cmp	 bl, 10			; 0000000aH
  0001a	74 0a		 je	 SHORT $LN3@IsWhiteSpa
  0001c	80 fb 0d	 cmp	 bl, 13			; 0000000dH
  0001f	74 05		 je	 SHORT $LN3@IsWhiteSpa
  00021	32 c0		 xor	 al, al
  00023	5b		 pop	 ebx

; 297  : 	}

  00024	5d		 pop	 ebp
  00025	c3		 ret	 0
$LN3@IsWhiteSpa:

; 296  : 		return ( isspace( (unsigned char) c ) || c == '\n' || c == '\r' ); 

  00026	b0 01		 mov	 al, 1
  00028	5b		 pop	 ebx

; 297  : 	}

  00029	5d		 pop	 ebp
  0002a	c3		 ret	 0
?IsWhiteSpace@TiXmlBase@@KA_ND@Z ENDP			; TiXmlBase::IsWhiteSpace
_TEXT	ENDS
; Function compile flags: /Ogtp
; File E:\Proyectos\JuegosOnlineproyectos\PB\pbblow\Piercing Blow Remake\i3Server\include\i3Base\tinyxml.h
;	COMDAT ?GetUserData@TiXmlBase@@QBEPBXXZ
_TEXT	SEGMENT
?GetUserData@TiXmlBase@@QBEPBXXZ PROC			; TiXmlBase::GetUserData, COMDAT
; _this$ = ecx

; 253  : 	const void* GetUserData() const 		{ return userData; }	///< Get a pointer to arbitrary user data.

  00000	8b 41 0c	 mov	 eax, DWORD PTR [ecx+12]
  00003	c3		 ret	 0
?GetUserData@TiXmlBase@@QBEPBXXZ ENDP			; TiXmlBase::GetUserData
_TEXT	ENDS
; Function compile flags: /Ogtp
; File E:\Proyectos\JuegosOnlineproyectos\PB\pbblow\Piercing Blow Remake\i3Server\include\i3Base\tinyxml.h
;	COMDAT ?GetUserData@TiXmlBase@@QAEPAXXZ
_TEXT	SEGMENT
?GetUserData@TiXmlBase@@QAEPAXXZ PROC			; TiXmlBase::GetUserData, COMDAT
; _this$ = ecx

; 252  : 	void* GetUserData()						{ return userData; }	///< Get a pointer to arbitrary user data.

  00000	8b 41 0c	 mov	 eax, DWORD PTR [ecx+12]
  00003	c3		 ret	 0
?GetUserData@TiXmlBase@@QAEPAXXZ ENDP			; TiXmlBase::GetUserData
_TEXT	ENDS
; Function compile flags: /Ogtp
; File E:\Proyectos\JuegosOnlineproyectos\PB\pbblow\Piercing Blow Remake\i3Server\include\i3Base\tinyxml.h
;	COMDAT ?SetUserData@TiXmlBase@@QAEXPAX@Z
_TEXT	SEGMENT
_user$ = 8						; size = 4
?SetUserData@TiXmlBase@@QAEXPAX@Z PROC			; TiXmlBase::SetUserData, COMDAT
; _this$ = ecx

; 251  : 	void  SetUserData( void* user )			{ userData = user; }	///< Set a pointer to arbitrary user data.

  00000	55		 push	 ebp
  00001	8b ec		 mov	 ebp, esp
  00003	8b 45 08	 mov	 eax, DWORD PTR _user$[ebp]
  00006	89 41 0c	 mov	 DWORD PTR [ecx+12], eax
  00009	5d		 pop	 ebp
  0000a	c2 04 00	 ret	 4
?SetUserData@TiXmlBase@@QAEXPAX@Z ENDP			; TiXmlBase::SetUserData
_TEXT	ENDS
; Function compile flags: /Ogtp
; File E:\Proyectos\JuegosOnlineproyectos\PB\pbblow\Piercing Blow Remake\i3Server\include\i3Base\tinyxml.h
;	COMDAT ?Column@TiXmlBase@@QBEHXZ
_TEXT	SEGMENT
?Column@TiXmlBase@@QBEHXZ PROC				; TiXmlBase::Column, COMDAT
; _this$ = ecx

; 249  : 	int Column() const		{ return location.col + 1; }	///< See Row()

  00000	8b 41 08	 mov	 eax, DWORD PTR [ecx+8]
  00003	40		 inc	 eax
  00004	c3		 ret	 0
?Column@TiXmlBase@@QBEHXZ ENDP				; TiXmlBase::Column
_TEXT	ENDS
; Function compile flags: /Ogtp
; File E:\Proyectos\JuegosOnlineproyectos\PB\pbblow\Piercing Blow Remake\i3Server\include\i3Base\tinyxml.h
;	COMDAT ?Row@TiXmlBase@@QBEHXZ
_TEXT	SEGMENT
?Row@TiXmlBase@@QBEHXZ PROC				; TiXmlBase::Row, COMDAT
; _this$ = ecx

; 248  : 	int Row() const			{ return location.row + 1; }

  00000	8b 41 04	 mov	 eax, DWORD PTR [ecx+4]
  00003	40		 inc	 eax
  00004	c3		 ret	 0
?Row@TiXmlBase@@QBEHXZ ENDP				; TiXmlBase::Row
_TEXT	ENDS
; Function compile flags: /Ogtp
; File E:\Proyectos\JuegosOnlineproyectos\PB\pbblow\Piercing Blow Remake\i3Server\include\i3Base\tinyxml.h
;	COMDAT ?IsWhiteSpaceCondensed@TiXmlBase@@SA_NXZ
_TEXT	SEGMENT
?IsWhiteSpaceCondensed@TiXmlBase@@SA_NXZ PROC		; TiXmlBase::IsWhiteSpaceCondensed, COMDAT

; 228  : 	static bool IsWhiteSpaceCondensed()						{ return condenseWhiteSpace; }

  00000	a0 00 00 00 00	 mov	 al, BYTE PTR ?condenseWhiteSpace@TiXmlBase@@0_NA ; TiXmlBase::condenseWhiteSpace
  00005	c3		 ret	 0
?IsWhiteSpaceCondensed@TiXmlBase@@SA_NXZ ENDP		; TiXmlBase::IsWhiteSpaceCondensed
_TEXT	ENDS
; Function compile flags: /Ogtp
; File E:\Proyectos\JuegosOnlineproyectos\PB\pbblow\Piercing Blow Remake\i3Server\include\i3Base\tinyxml.h
;	COMDAT ?SetCondenseWhiteSpace@TiXmlBase@@SAX_N@Z
_TEXT	SEGMENT
_condense$ = 8						; size = 1
?SetCondenseWhiteSpace@TiXmlBase@@SAX_N@Z PROC		; TiXmlBase::SetCondenseWhiteSpace, COMDAT

; 225  : 	static void SetCondenseWhiteSpace( bool condense )		{ condenseWhiteSpace = condense; }

  00000	55		 push	 ebp
  00001	8b ec		 mov	 ebp, esp
  00003	8a 45 08	 mov	 al, BYTE PTR _condense$[ebp]
  00006	a2 00 00 00 00	 mov	 BYTE PTR ?condenseWhiteSpace@TiXmlBase@@0_NA, al ; TiXmlBase::condenseWhiteSpace
  0000b	5d		 pop	 ebp
  0000c	c3		 ret	 0
?SetCondenseWhiteSpace@TiXmlBase@@SAX_N@Z ENDP		; TiXmlBase::SetCondenseWhiteSpace
_TEXT	ENDS
; Function compile flags: /Ogtp
; File E:\Proyectos\JuegosOnlineproyectos\PB\pbblow\Piercing Blow Remake\i3Server\include\i3Base\tinyxml.h
;	COMDAT ??1TiXmlBase@@UAE@XZ
_TEXT	SEGMENT
??1TiXmlBase@@UAE@XZ PROC				; TiXmlBase::~TiXmlBase, COMDAT
; _this$ = ecx

; 206  : 	virtual ~TiXmlBase()			{}

  00000	c7 01 00 00 00
	00		 mov	 DWORD PTR [ecx], OFFSET ??_7TiXmlBase@@6B@
  00006	c3		 ret	 0
??1TiXmlBase@@UAE@XZ ENDP				; TiXmlBase::~TiXmlBase
_TEXT	ENDS
; Function compile flags: /Ogtp
; File E:\Proyectos\JuegosOnlineproyectos\PB\pbblow\Piercing Blow Remake\i3Server\include\i3Base\tinyxml.h
;	COMDAT ??0TiXmlBase@@QAE@XZ
_TEXT	SEGMENT
??0TiXmlBase@@QAE@XZ PROC				; TiXmlBase::TiXmlBase, COMDAT
; _this$ = ecx

; 205  : 	TiXmlBase()	:	userData(0)		{}

  00000	c7 01 00 00 00
	00		 mov	 DWORD PTR [ecx], OFFSET ??_7TiXmlBase@@6B@
  00006	8b c1		 mov	 eax, ecx

; 107  : 	void Clear()		{ row = col = -1; }

  00008	c7 41 08 ff ff
	ff ff		 mov	 DWORD PTR [ecx+8], -1
  0000f	c7 41 04 ff ff
	ff ff		 mov	 DWORD PTR [ecx+4], -1

; 205  : 	TiXmlBase()	:	userData(0)		{}

  00016	c7 41 0c 00 00
	00 00		 mov	 DWORD PTR [ecx+12], 0
  0001d	c3		 ret	 0
??0TiXmlBase@@QAE@XZ ENDP				; TiXmlBase::TiXmlBase
_TEXT	ENDS
; Function compile flags: /Ogtp
;	COMDAT ??_ETiXmlVisitor@@UAEPAXI@Z
_TEXT	SEGMENT
__$EHRec$ = -12						; size = 12
___flags$ = 8						; size = 4
??_ETiXmlVisitor@@UAEPAXI@Z PROC			; TiXmlVisitor::`vector deleting destructor', COMDAT
; _this$ = ecx
  00000	55		 push	 ebp
  00001	8b ec		 mov	 ebp, esp
  00003	6a ff		 push	 -1
  00005	68 00 00 00 00	 push	 __ehhandler$??_ETiXmlVisitor@@UAEPAXI@Z
  0000a	64 a1 00 00 00
	00		 mov	 eax, DWORD PTR fs:0
  00010	50		 push	 eax
  00011	53		 push	 ebx
  00012	56		 push	 esi
  00013	57		 push	 edi
  00014	a1 00 00 00 00	 mov	 eax, DWORD PTR ___security_cookie
  00019	33 c5		 xor	 eax, ebp
  0001b	50		 push	 eax
  0001c	8d 45 f4	 lea	 eax, DWORD PTR __$EHRec$[ebp]
  0001f	64 a3 00 00 00
	00		 mov	 DWORD PTR fs:0, eax
  00025	8b f1		 mov	 esi, ecx
  00027	8b 45 08	 mov	 eax, DWORD PTR ___flags$[ebp]
  0002a	8b f8		 mov	 edi, eax
  0002c	83 e7 01	 and	 edi, 1
  0002f	a8 02		 test	 al, 2
  00031	74 40		 je	 SHORT $LN2@vector
  00033	68 00 00 00 00	 push	 OFFSET ??1TiXmlVisitor@@UAE@XZ ; TiXmlVisitor::~TiXmlVisitor
  00038	ff 76 fc	 push	 DWORD PTR [esi-4]
  0003b	8d 5e fc	 lea	 ebx, DWORD PTR [esi-4]
  0003e	6a 04		 push	 4
  00040	56		 push	 esi
  00041	e8 00 00 00 00	 call	 ??_M@YGXPAXIIP6EX0@Z@Z
  00046	85 ff		 test	 edi, edi
  00048	74 13		 je	 SHORT $LN3@vector
  0004a	8b 0b		 mov	 ecx, DWORD PTR [ebx]
  0004c	8d 0c 8d 04 00
	00 00		 lea	 ecx, DWORD PTR [ecx*4+4]
  00053	51		 push	 ecx
  00054	53		 push	 ebx
  00055	e8 00 00 00 00	 call	 ??_V@YAXPAXI@Z		; operator delete[]
  0005a	83 c4 08	 add	 esp, 8
$LN3@vector:
  0005d	8b c3		 mov	 eax, ebx
  0005f	8b 4d f4	 mov	 ecx, DWORD PTR __$EHRec$[ebp]
  00062	64 89 0d 00 00
	00 00		 mov	 DWORD PTR fs:0, ecx
  00069	59		 pop	 ecx
  0006a	5f		 pop	 edi
  0006b	5e		 pop	 esi
  0006c	5b		 pop	 ebx
  0006d	8b e5		 mov	 esp, ebp
  0006f	5d		 pop	 ebp
  00070	c2 04 00	 ret	 4
$LN2@vector:
  00073	c7 06 00 00 00
	00		 mov	 DWORD PTR [esi], OFFSET ??_7TiXmlVisitor@@6B@
  00079	85 ff		 test	 edi, edi
  0007b	74 0b		 je	 SHORT $LN4@vector
  0007d	6a 04		 push	 4
  0007f	56		 push	 esi
  00080	e8 00 00 00 00	 call	 ??3@YAXPAXI@Z		; operator delete
  00085	83 c4 08	 add	 esp, 8
$LN4@vector:
  00088	8b c6		 mov	 eax, esi
  0008a	8b 4d f4	 mov	 ecx, DWORD PTR __$EHRec$[ebp]
  0008d	64 89 0d 00 00
	00 00		 mov	 DWORD PTR fs:0, ecx
  00094	59		 pop	 ecx
  00095	5f		 pop	 edi
  00096	5e		 pop	 esi
  00097	5b		 pop	 ebx
  00098	8b e5		 mov	 esp, ebp
  0009a	5d		 pop	 ebp
  0009b	c2 04 00	 ret	 4
  0009e	cc		 int	 3
  0009f	cc		 int	 3
  000a0	cc		 int	 3
  000a1	cc		 int	 3
  000a2	cc		 int	 3
_TEXT	ENDS
;	COMDAT text$x
text$x	SEGMENT
__ehhandler$??_ETiXmlVisitor@@UAEPAXI@Z:
  00000	90		 npad	 1
  00001	90		 npad	 1
  00002	8b 54 24 08	 mov	 edx, DWORD PTR [esp+8]
  00006	8d 42 0c	 lea	 eax, DWORD PTR [edx+12]
  00009	8b 4a f0	 mov	 ecx, DWORD PTR [edx-16]
  0000c	33 c8		 xor	 ecx, eax
  0000e	e8 00 00 00 00	 call	 @__security_check_cookie@4
  00013	b8 00 00 00 00	 mov	 eax, OFFSET __ehfuncinfo$??_ETiXmlVisitor@@UAEPAXI@Z
  00018	e9 00 00 00 00	 jmp	 ___CxxFrameHandler3
text$x	ENDS
??_ETiXmlVisitor@@UAEPAXI@Z ENDP			; TiXmlVisitor::`vector deleting destructor'
; Function compile flags: /Ogtp
;	COMDAT ??_GTiXmlVisitor@@UAEPAXI@Z
_TEXT	SEGMENT
___flags$ = 8						; size = 4
??_GTiXmlVisitor@@UAEPAXI@Z PROC			; TiXmlVisitor::`scalar deleting destructor', COMDAT
; _this$ = ecx
  00000	55		 push	 ebp
  00001	8b ec		 mov	 ebp, esp
  00003	f6 45 08 01	 test	 BYTE PTR ___flags$[ebp], 1
  00007	56		 push	 esi
  00008	8b f1		 mov	 esi, ecx
  0000a	c7 06 00 00 00
	00		 mov	 DWORD PTR [esi], OFFSET ??_7TiXmlVisitor@@6B@
  00010	74 0b		 je	 SHORT $LN5@scalar
  00012	6a 04		 push	 4
  00014	56		 push	 esi
  00015	e8 00 00 00 00	 call	 ??3@YAXPAXI@Z		; operator delete
  0001a	83 c4 08	 add	 esp, 8
$LN5@scalar:
  0001d	8b c6		 mov	 eax, esi
  0001f	5e		 pop	 esi
  00020	5d		 pop	 ebp
  00021	c2 04 00	 ret	 4
??_GTiXmlVisitor@@UAEPAXI@Z ENDP			; TiXmlVisitor::`scalar deleting destructor'
_TEXT	ENDS
; Function compile flags: /Ogtp
;	COMDAT ??4TiXmlVisitor@@QAEAAV0@ABV0@@Z
_TEXT	SEGMENT
___that$ = 8						; size = 4
??4TiXmlVisitor@@QAEAAV0@ABV0@@Z PROC			; TiXmlVisitor::operator=, COMDAT
; _this$ = ecx
  00000	8b c1		 mov	 eax, ecx
  00002	c2 04 00	 ret	 4
??4TiXmlVisitor@@QAEAAV0@ABV0@@Z ENDP			; TiXmlVisitor::operator=
_TEXT	ENDS
; Function compile flags: /Ogtp
;	COMDAT ??0TiXmlVisitor@@QAE@ABV0@@Z
_TEXT	SEGMENT
___that$ = 8						; size = 4
??0TiXmlVisitor@@QAE@ABV0@@Z PROC			; TiXmlVisitor::TiXmlVisitor, COMDAT
; _this$ = ecx
  00000	c7 01 00 00 00
	00		 mov	 DWORD PTR [ecx], OFFSET ??_7TiXmlVisitor@@6B@
  00006	8b c1		 mov	 eax, ecx
  00008	c2 04 00	 ret	 4
??0TiXmlVisitor@@QAE@ABV0@@Z ENDP			; TiXmlVisitor::TiXmlVisitor
_TEXT	ENDS
; Function compile flags: /Ogtp
;	COMDAT ??0TiXmlVisitor@@QAE@XZ
_TEXT	SEGMENT
??0TiXmlVisitor@@QAE@XZ PROC				; TiXmlVisitor::TiXmlVisitor, COMDAT
; _this$ = ecx
  00000	c7 01 00 00 00
	00		 mov	 DWORD PTR [ecx], OFFSET ??_7TiXmlVisitor@@6B@
  00006	8b c1		 mov	 eax, ecx
  00008	c3		 ret	 0
??0TiXmlVisitor@@QAE@XZ ENDP				; TiXmlVisitor::TiXmlVisitor
_TEXT	ENDS
; Function compile flags: /Ogtp
; File E:\Proyectos\JuegosOnlineproyectos\PB\pbblow\Piercing Blow Remake\i3Server\include\i3Base\tinyxml.h
;	COMDAT ?Visit@TiXmlVisitor@@UAE_NABVTiXmlUnknown@@@Z
_TEXT	SEGMENT
___formal$ = 8						; size = 4
?Visit@TiXmlVisitor@@UAE_NABVTiXmlUnknown@@@Z PROC	; TiXmlVisitor::Visit, COMDAT
; _this$ = ecx

; 154  : 	virtual bool Visit( const TiXmlUnknown& /*unknown*/ )			{ return true; }

  00000	b0 01		 mov	 al, 1
  00002	c2 04 00	 ret	 4
?Visit@TiXmlVisitor@@UAE_NABVTiXmlUnknown@@@Z ENDP	; TiXmlVisitor::Visit
_TEXT	ENDS
; Function compile flags: /Ogtp
; File E:\Proyectos\JuegosOnlineproyectos\PB\pbblow\Piercing Blow Remake\i3Server\include\i3Base\tinyxml.h
;	COMDAT ?Visit@TiXmlVisitor@@UAE_NABVTiXmlComment@@@Z
_TEXT	SEGMENT
___formal$ = 8						; size = 4
?Visit@TiXmlVisitor@@UAE_NABVTiXmlComment@@@Z PROC	; TiXmlVisitor::Visit, COMDAT
; _this$ = ecx

; 152  : 	virtual bool Visit( const TiXmlComment& /*comment*/ )			{ return true; }

  00000	b0 01		 mov	 al, 1
  00002	c2 04 00	 ret	 4
?Visit@TiXmlVisitor@@UAE_NABVTiXmlComment@@@Z ENDP	; TiXmlVisitor::Visit
_TEXT	ENDS
; Function compile flags: /Ogtp
; File E:\Proyectos\JuegosOnlineproyectos\PB\pbblow\Piercing Blow Remake\i3Server\include\i3Base\tinyxml.h
;	COMDAT ?Visit@TiXmlVisitor@@UAE_NABVTiXmlText@@@Z
_TEXT	SEGMENT
___formal$ = 8						; size = 4
?Visit@TiXmlVisitor@@UAE_NABVTiXmlText@@@Z PROC		; TiXmlVisitor::Visit, COMDAT
; _this$ = ecx

; 150  : 	virtual bool Visit( const TiXmlText& /*text*/ )					{ return true; }

  00000	b0 01		 mov	 al, 1
  00002	c2 04 00	 ret	 4
?Visit@TiXmlVisitor@@UAE_NABVTiXmlText@@@Z ENDP		; TiXmlVisitor::Visit
_TEXT	ENDS
; Function compile flags: /Ogtp
; File E:\Proyectos\JuegosOnlineproyectos\PB\pbblow\Piercing Blow Remake\i3Server\include\i3Base\tinyxml.h
;	COMDAT ?Visit@TiXmlVisitor@@UAE_NABVTiXmlDeclaration@@@Z
_TEXT	SEGMENT
___formal$ = 8						; size = 4
?Visit@TiXmlVisitor@@UAE_NABVTiXmlDeclaration@@@Z PROC	; TiXmlVisitor::Visit, COMDAT
; _this$ = ecx

; 148  : 	virtual bool Visit( const TiXmlDeclaration& /*declaration*/ )	{ return true; }

  00000	b0 01		 mov	 al, 1
  00002	c2 04 00	 ret	 4
?Visit@TiXmlVisitor@@UAE_NABVTiXmlDeclaration@@@Z ENDP	; TiXmlVisitor::Visit
_TEXT	ENDS
; Function compile flags: /Ogtp
; File E:\Proyectos\JuegosOnlineproyectos\PB\pbblow\Piercing Blow Remake\i3Server\include\i3Base\tinyxml.h
;	COMDAT ?VisitExit@TiXmlVisitor@@UAE_NABVTiXmlElement@@@Z
_TEXT	SEGMENT
___formal$ = 8						; size = 4
?VisitExit@TiXmlVisitor@@UAE_NABVTiXmlElement@@@Z PROC	; TiXmlVisitor::VisitExit, COMDAT
; _this$ = ecx

; 145  : 	virtual bool VisitExit( const TiXmlElement& /*element*/ )		{ return true; }

  00000	b0 01		 mov	 al, 1
  00002	c2 04 00	 ret	 4
?VisitExit@TiXmlVisitor@@UAE_NABVTiXmlElement@@@Z ENDP	; TiXmlVisitor::VisitExit
_TEXT	ENDS
; Function compile flags: /Ogtp
; File E:\Proyectos\JuegosOnlineproyectos\PB\pbblow\Piercing Blow Remake\i3Server\include\i3Base\tinyxml.h
;	COMDAT ?VisitEnter@TiXmlVisitor@@UAE_NABVTiXmlElement@@PBVTiXmlAttribute@@@Z
_TEXT	SEGMENT
___formal$ = 8						; size = 4
___formal$ = 12						; size = 4
?VisitEnter@TiXmlVisitor@@UAE_NABVTiXmlElement@@PBVTiXmlAttribute@@@Z PROC ; TiXmlVisitor::VisitEnter, COMDAT
; _this$ = ecx

; 143  : 	virtual bool VisitEnter( const TiXmlElement& /*element*/, const TiXmlAttribute* /*firstAttribute*/ )	{ return true; }

  00000	b0 01		 mov	 al, 1
  00002	c2 08 00	 ret	 8
?VisitEnter@TiXmlVisitor@@UAE_NABVTiXmlElement@@PBVTiXmlAttribute@@@Z ENDP ; TiXmlVisitor::VisitEnter
_TEXT	ENDS
; Function compile flags: /Ogtp
; File E:\Proyectos\JuegosOnlineproyectos\PB\pbblow\Piercing Blow Remake\i3Server\include\i3Base\tinyxml.h
;	COMDAT ?VisitExit@TiXmlVisitor@@UAE_NABVTiXmlDocument@@@Z
_TEXT	SEGMENT
___formal$ = 8						; size = 4
?VisitExit@TiXmlVisitor@@UAE_NABVTiXmlDocument@@@Z PROC	; TiXmlVisitor::VisitExit, COMDAT
; _this$ = ecx

; 140  : 	virtual bool VisitExit( const TiXmlDocument& /*doc*/ )			{ return true; }

  00000	b0 01		 mov	 al, 1
  00002	c2 04 00	 ret	 4
?VisitExit@TiXmlVisitor@@UAE_NABVTiXmlDocument@@@Z ENDP	; TiXmlVisitor::VisitExit
_TEXT	ENDS
; Function compile flags: /Ogtp
; File E:\Proyectos\JuegosOnlineproyectos\PB\pbblow\Piercing Blow Remake\i3Server\include\i3Base\tinyxml.h
;	COMDAT ?VisitEnter@TiXmlVisitor@@UAE_NABVTiXmlDocument@@@Z
_TEXT	SEGMENT
___formal$ = 8						; size = 4
?VisitEnter@TiXmlVisitor@@UAE_NABVTiXmlDocument@@@Z PROC ; TiXmlVisitor::VisitEnter, COMDAT
; _this$ = ecx

; 138  : 	virtual bool VisitEnter( const TiXmlDocument& /*doc*/ )			{ return true; }

  00000	b0 01		 mov	 al, 1
  00002	c2 04 00	 ret	 4
?VisitEnter@TiXmlVisitor@@UAE_NABVTiXmlDocument@@@Z ENDP ; TiXmlVisitor::VisitEnter
_TEXT	ENDS
; Function compile flags: /Ogtp
; File E:\Proyectos\JuegosOnlineproyectos\PB\pbblow\Piercing Blow Remake\i3Server\include\i3Base\tinyxml.h
;	COMDAT ??1TiXmlVisitor@@UAE@XZ
_TEXT	SEGMENT
??1TiXmlVisitor@@UAE@XZ PROC				; TiXmlVisitor::~TiXmlVisitor, COMDAT
; _this$ = ecx

; 135  : 	virtual ~TiXmlVisitor() {}

  00000	c7 01 00 00 00
	00		 mov	 DWORD PTR [ecx], OFFSET ??_7TiXmlVisitor@@6B@
  00006	c3		 ret	 0
??1TiXmlVisitor@@UAE@XZ ENDP				; TiXmlVisitor::~TiXmlVisitor
_TEXT	ENDS
; Function compile flags: /Ogtp
;	COMDAT ??4TiXmlCursor@@QAEAAU0@$$QAU0@@Z
_TEXT	SEGMENT
___that$ = 8						; size = 4
??4TiXmlCursor@@QAEAAU0@$$QAU0@@Z PROC			; TiXmlCursor::operator=, COMDAT
; _this$ = ecx
  00000	55		 push	 ebp
  00001	8b ec		 mov	 ebp, esp
  00003	8b 55 08	 mov	 edx, DWORD PTR ___that$[ebp]
  00006	8b 02		 mov	 eax, DWORD PTR [edx]
  00008	89 01		 mov	 DWORD PTR [ecx], eax
  0000a	8b 42 04	 mov	 eax, DWORD PTR [edx+4]
  0000d	89 41 04	 mov	 DWORD PTR [ecx+4], eax
  00010	8b c1		 mov	 eax, ecx
  00012	5d		 pop	 ebp
  00013	c2 04 00	 ret	 4
??4TiXmlCursor@@QAEAAU0@$$QAU0@@Z ENDP			; TiXmlCursor::operator=
_TEXT	ENDS
; Function compile flags: /Ogtp
;	COMDAT ??4TiXmlCursor@@QAEAAU0@ABU0@@Z
_TEXT	SEGMENT
___that$ = 8						; size = 4
??4TiXmlCursor@@QAEAAU0@ABU0@@Z PROC			; TiXmlCursor::operator=, COMDAT
; _this$ = ecx
  00000	55		 push	 ebp
  00001	8b ec		 mov	 ebp, esp
  00003	8b 45 08	 mov	 eax, DWORD PTR ___that$[ebp]
  00006	8b 10		 mov	 edx, DWORD PTR [eax]
  00008	8b 40 04	 mov	 eax, DWORD PTR [eax+4]
  0000b	89 41 04	 mov	 DWORD PTR [ecx+4], eax
  0000e	8b c1		 mov	 eax, ecx
  00010	89 11		 mov	 DWORD PTR [ecx], edx
  00012	5d		 pop	 ebp
  00013	c2 04 00	 ret	 4
??4TiXmlCursor@@QAEAAU0@ABU0@@Z ENDP			; TiXmlCursor::operator=
_TEXT	ENDS
; Function compile flags: /Ogtp
; File E:\Proyectos\JuegosOnlineproyectos\PB\pbblow\Piercing Blow Remake\i3Server\include\i3Base\tinyxml.h
;	COMDAT ?Clear@TiXmlCursor@@QAEXXZ
_TEXT	SEGMENT
?Clear@TiXmlCursor@@QAEXXZ PROC				; TiXmlCursor::Clear, COMDAT
; _this$ = ecx

; 107  : 	void Clear()		{ row = col = -1; }

  00000	c7 41 04 ff ff
	ff ff		 mov	 DWORD PTR [ecx+4], -1
  00007	c7 01 ff ff ff
	ff		 mov	 DWORD PTR [ecx], -1
  0000d	c3		 ret	 0
?Clear@TiXmlCursor@@QAEXXZ ENDP				; TiXmlCursor::Clear
_TEXT	ENDS
; Function compile flags: /Ogtp
; File E:\Proyectos\JuegosOnlineproyectos\PB\pbblow\Piercing Blow Remake\i3Server\include\i3Base\tinyxml.h
;	COMDAT ??0TiXmlCursor@@QAE@XZ
_TEXT	SEGMENT
??0TiXmlCursor@@QAE@XZ PROC				; TiXmlCursor::TiXmlCursor, COMDAT
; _this$ = ecx

; 107  : 	void Clear()		{ row = col = -1; }

  00000	c7 41 04 ff ff
	ff ff		 mov	 DWORD PTR [ecx+4], -1

; 106  : 	TiXmlCursor()		{ Clear(); }

  00007	8b c1		 mov	 eax, ecx

; 107  : 	void Clear()		{ row = col = -1; }

  00009	c7 01 ff ff ff
	ff		 mov	 DWORD PTR [ecx], -1

; 106  : 	TiXmlCursor()		{ Clear(); }

  0000f	c3		 ret	 0
??0TiXmlCursor@@QAE@XZ ENDP				; TiXmlCursor::TiXmlCursor
_TEXT	ENDS
; Function compile flags: /Ogtp
; File E:\Proyectos\JuegosOnlineproyectos\PB\pbblow\Piercing Blow Remake\i3Server\include\i3Base\tinystr.h
;	COMDAT ?quit@TiXmlString@@AAEXXZ
_TEXT	SEGMENT
?quit@TiXmlString@@AAEXXZ PROC				; TiXmlString::quit, COMDAT
; _this$ = ecx

; 257  : 		if (rep_ != &nullrep_)

  00000	8b 01		 mov	 eax, DWORD PTR [ecx]
  00002	3d 00 00 00 00	 cmp	 eax, OFFSET ?nullrep_@TiXmlString@@0URep@1@A ; TiXmlString::nullrep_
  00007	74 07		 je	 SHORT $LN2@quit

; 258  : 		{
; 259  : 			// The rep_ is really an array of ints. (see the allocator, above).
; 260  : 			// Cast it back before delete, so the compiler won't incorrectly call destructors.
; 261  : 			delete [] ( reinterpret_cast<int*>( rep_ ) );

  00009	50		 push	 eax
  0000a	e8 00 00 00 00	 call	 ??_V@YAXPAX@Z		; operator delete[]
  0000f	59		 pop	 ecx
$LN2@quit:

; 262  : 		}
; 263  : 	}

  00010	c3		 ret	 0
?quit@TiXmlString@@AAEXXZ ENDP				; TiXmlString::quit
_TEXT	ENDS
; Function compile flags: /Ogtp
; File E:\Proyectos\JuegosOnlineproyectos\PB\pbblow\Piercing Blow Remake\i3Server\include\i3Base\tinystr.h
;	COMDAT ?init@TiXmlString@@AAEXII@Z
_TEXT	SEGMENT
_sz$ = 8						; size = 4
_cap$ = 12						; size = 4
?init@TiXmlString@@AAEXII@Z PROC			; TiXmlString::init, COMDAT
; _this$ = ecx

; 234  : 	{

  00000	55		 push	 ebp
  00001	8b ec		 mov	 ebp, esp
  00003	56		 push	 esi
  00004	57		 push	 edi

; 235  : 		if (cap)

  00005	8b 7d 0c	 mov	 edi, DWORD PTR _cap$[ebp]
  00008	8b f1		 mov	 esi, ecx
  0000a	85 ff		 test	 edi, edi
  0000c	74 37		 je	 SHORT $LN2@init

; 236  : 		{
; 237  : 			// Lee: the original form:
; 238  : 			//	rep_ = static_cast<Rep*>(operator new(sizeof(Rep) + cap));
; 239  : 			// doesn't work in some cases of new being overloaded. Switching
; 240  : 			// to the normal allocation, although use an 'int' for systems
; 241  : 			// that are overly picky about structure alignment.
; 242  : 			const size_type bytesNeeded = sizeof(Rep) + cap;
; 243  : 			const size_type intsNeeded = ( bytesNeeded + sizeof(int) - 1 ) / sizeof( int ); 

  0000e	8d 47 0f	 lea	 eax, DWORD PTR [edi+15]

; 244  : 			rep_ = reinterpret_cast<Rep*>( new int[ intsNeeded ] );

  00011	b9 04 00 00 00	 mov	 ecx, 4
  00016	c1 e8 02	 shr	 eax, 2
  00019	f7 e1		 mul	 ecx
  0001b	b9 ff ff ff ff	 mov	 ecx, -1
  00020	0f 42 c1	 cmovb	 eax, ecx
  00023	50		 push	 eax
  00024	e8 00 00 00 00	 call	 ??_U@YAPAXI@Z		; operator new[]

; 245  : 
; 246  : 			rep_->str[ rep_->size = sz ] = '\0';

  00029	8b 4d 08	 mov	 ecx, DWORD PTR _sz$[ebp]
  0002c	83 c4 04	 add	 esp, 4
  0002f	89 06		 mov	 DWORD PTR [esi], eax
  00031	89 08		 mov	 DWORD PTR [eax], ecx
  00033	8b 06		 mov	 eax, DWORD PTR [esi]
  00035	c6 44 08 08 00	 mov	 BYTE PTR [eax+ecx+8], 0

; 247  : 			rep_->capacity = cap;

  0003a	8b 06		 mov	 eax, DWORD PTR [esi]
  0003c	89 78 04	 mov	 DWORD PTR [eax+4], edi
  0003f	5f		 pop	 edi

; 252  : 		}
; 253  : 	}

  00040	5e		 pop	 esi
  00041	5d		 pop	 ebp
  00042	c2 08 00	 ret	 8
$LN2@init:
  00045	5f		 pop	 edi

; 248  : 		}
; 249  : 		else
; 250  : 		{
; 251  : 			rep_ = &nullrep_;

  00046	c7 06 00 00 00
	00		 mov	 DWORD PTR [esi], OFFSET ?nullrep_@TiXmlString@@0URep@1@A ; TiXmlString::nullrep_

; 252  : 		}
; 253  : 	}

  0004c	5e		 pop	 esi
  0004d	5d		 pop	 ebp
  0004e	c2 08 00	 ret	 8
?init@TiXmlString@@AAEXII@Z ENDP			; TiXmlString::init
_TEXT	ENDS
; Function compile flags: /Ogtp
; File E:\Proyectos\JuegosOnlineproyectos\PB\pbblow\Piercing Blow Remake\i3Server\include\i3Base\tinystr.h
;	COMDAT ?finish@TiXmlString@@ABEPADXZ
_TEXT	SEGMENT
?finish@TiXmlString@@ABEPADXZ PROC			; TiXmlString::finish, COMDAT
; _this$ = ecx

; 225  : 	char* finish() const { return rep_->str + rep_->size; }

  00000	8b 09		 mov	 ecx, DWORD PTR [ecx]
  00002	8b 01		 mov	 eax, DWORD PTR [ecx]
  00004	83 c0 08	 add	 eax, 8
  00007	03 c1		 add	 eax, ecx
  00009	c3		 ret	 0
?finish@TiXmlString@@ABEPADXZ ENDP			; TiXmlString::finish
_TEXT	ENDS
; Function compile flags: /Ogtp
; File E:\Proyectos\JuegosOnlineproyectos\PB\pbblow\Piercing Blow Remake\i3Server\include\i3Base\tinystr.h
;	COMDAT ?start@TiXmlString@@ABEPADXZ
_TEXT	SEGMENT
?start@TiXmlString@@ABEPADXZ PROC			; TiXmlString::start, COMDAT
; _this$ = ecx

; 224  : 	char* start() const { return rep_->str; }

  00000	8b 01		 mov	 eax, DWORD PTR [ecx]
  00002	83 c0 08	 add	 eax, 8
  00005	c3		 ret	 0
?start@TiXmlString@@ABEPADXZ ENDP			; TiXmlString::start
_TEXT	ENDS
; Function compile flags: /Ogtp
; File E:\Proyectos\JuegosOnlineproyectos\PB\pbblow\Piercing Blow Remake\i3Server\include\i3Base\tinystr.h
;	COMDAT ?set_size@TiXmlString@@AAEXI@Z
_TEXT	SEGMENT
_sz$ = 8						; size = 4
?set_size@TiXmlString@@AAEXI@Z PROC			; TiXmlString::set_size, COMDAT
; _this$ = ecx

; 223  : 	void set_size(size_type sz) { rep_->str[ rep_->size = sz ] = '\0'; }

  00000	55		 push	 ebp
  00001	8b ec		 mov	 ebp, esp
  00003	8b 01		 mov	 eax, DWORD PTR [ecx]
  00005	8b 55 08	 mov	 edx, DWORD PTR _sz$[ebp]
  00008	89 10		 mov	 DWORD PTR [eax], edx
  0000a	8b 01		 mov	 eax, DWORD PTR [ecx]
  0000c	c6 44 10 08 00	 mov	 BYTE PTR [eax+edx+8], 0
  00011	5d		 pop	 ebp
  00012	c2 04 00	 ret	 4
?set_size@TiXmlString@@AAEXI@Z ENDP			; TiXmlString::set_size
_TEXT	ENDS
; Function compile flags: /Ogtp
; File E:\Proyectos\JuegosOnlineproyectos\PB\pbblow\Piercing Blow Remake\i3Server\include\i3Base\tinystr.h
;	COMDAT ?init@TiXmlString@@AAEXI@Z
_TEXT	SEGMENT
_sz$ = 8						; size = 4
?init@TiXmlString@@AAEXI@Z PROC				; TiXmlString::init, COMDAT
; _this$ = ecx

; 222  : 	void init(size_type sz) { init(sz, sz); }

  00000	55		 push	 ebp
  00001	8b ec		 mov	 ebp, esp
  00003	56		 push	 esi

; 235  : 		if (cap)

  00004	8b 75 08	 mov	 esi, DWORD PTR _sz$[ebp]

; 222  : 	void init(size_type sz) { init(sz, sz); }

  00007	57		 push	 edi
  00008	8b f9		 mov	 edi, ecx

; 235  : 		if (cap)

  0000a	85 f6		 test	 esi, esi
  0000c	74 34		 je	 SHORT $LN4@init

; 236  : 		{
; 237  : 			// Lee: the original form:
; 238  : 			//	rep_ = static_cast<Rep*>(operator new(sizeof(Rep) + cap));
; 239  : 			// doesn't work in some cases of new being overloaded. Switching
; 240  : 			// to the normal allocation, although use an 'int' for systems
; 241  : 			// that are overly picky about structure alignment.
; 242  : 			const size_type bytesNeeded = sizeof(Rep) + cap;
; 243  : 			const size_type intsNeeded = ( bytesNeeded + sizeof(int) - 1 ) / sizeof( int ); 

  0000e	8d 46 0f	 lea	 eax, DWORD PTR [esi+15]

; 244  : 			rep_ = reinterpret_cast<Rep*>( new int[ intsNeeded ] );

  00011	b9 04 00 00 00	 mov	 ecx, 4
  00016	c1 e8 02	 shr	 eax, 2
  00019	f7 e1		 mul	 ecx
  0001b	b9 ff ff ff ff	 mov	 ecx, -1
  00020	0f 42 c1	 cmovb	 eax, ecx
  00023	50		 push	 eax
  00024	e8 00 00 00 00	 call	 ??_U@YAPAXI@Z		; operator new[]
  00029	89 07		 mov	 DWORD PTR [edi], eax
  0002b	83 c4 04	 add	 esp, 4

; 245  : 
; 246  : 			rep_->str[ rep_->size = sz ] = '\0';

  0002e	89 30		 mov	 DWORD PTR [eax], esi
  00030	8b 07		 mov	 eax, DWORD PTR [edi]
  00032	c6 44 30 08 00	 mov	 BYTE PTR [eax+esi+8], 0

; 247  : 			rep_->capacity = cap;

  00037	8b 07		 mov	 eax, DWORD PTR [edi]
  00039	5f		 pop	 edi
  0003a	89 70 04	 mov	 DWORD PTR [eax+4], esi

; 222  : 	void init(size_type sz) { init(sz, sz); }

  0003d	5e		 pop	 esi
  0003e	5d		 pop	 ebp
  0003f	c2 04 00	 ret	 4
$LN4@init:

; 251  : 			rep_ = &nullrep_;

  00042	c7 07 00 00 00
	00		 mov	 DWORD PTR [edi], OFFSET ?nullrep_@TiXmlString@@0URep@1@A ; TiXmlString::nullrep_
  00048	5f		 pop	 edi

; 222  : 	void init(size_type sz) { init(sz, sz); }

  00049	5e		 pop	 esi
  0004a	5d		 pop	 ebp
  0004b	c2 04 00	 ret	 4
?init@TiXmlString@@AAEXI@Z ENDP				; TiXmlString::init
_TEXT	ENDS
; Function compile flags: /Ogtp
; File E:\Proyectos\JuegosOnlineproyectos\PB\pbblow\Piercing Blow Remake\i3Server\include\i3Base\tinystr.h
;	COMDAT ?swap@TiXmlString@@QAEXAAV1@@Z
_TEXT	SEGMENT
_other$ = 8						; size = 4
?swap@TiXmlString@@QAEXAAV1@@Z PROC			; TiXmlString::swap, COMDAT
; _this$ = ecx

; 214  : 	{

  00000	55		 push	 ebp
  00001	8b ec		 mov	 ebp, esp

; 215  : 		Rep* r = rep_;
; 216  : 		rep_ = other.rep_;

  00003	8b 55 08	 mov	 edx, DWORD PTR _other$[ebp]
  00006	56		 push	 esi
  00007	8b 31		 mov	 esi, DWORD PTR [ecx]
  00009	8b 02		 mov	 eax, DWORD PTR [edx]
  0000b	89 01		 mov	 DWORD PTR [ecx], eax

; 217  : 		other.rep_ = r;

  0000d	89 32		 mov	 DWORD PTR [edx], esi
  0000f	5e		 pop	 esi

; 218  : 	}

  00010	5d		 pop	 ebp
  00011	c2 04 00	 ret	 4
?swap@TiXmlString@@QAEXAAV1@@Z ENDP			; TiXmlString::swap
_TEXT	ENDS
; Function compile flags: /Ogtp
; File E:\Proyectos\JuegosOnlineproyectos\PB\pbblow\Piercing Blow Remake\i3Server\include\i3Base\tinystr.h
;	COMDAT ?clear@TiXmlString@@QAEXXZ
_TEXT	SEGMENT
?clear@TiXmlString@@QAEXXZ PROC				; TiXmlString::clear, COMDAT
; _this$ = ecx

; 195  : 	{

  00000	56		 push	 esi
  00001	8b f1		 mov	 esi, ecx

; 257  : 		if (rep_ != &nullrep_)

  00003	8b 06		 mov	 eax, DWORD PTR [esi]
  00005	3d 00 00 00 00	 cmp	 eax, OFFSET ?nullrep_@TiXmlString@@0URep@1@A ; TiXmlString::nullrep_
  0000a	74 09		 je	 SHORT $LN10@clear

; 258  : 		{
; 259  : 			// The rep_ is really an array of ints. (see the allocator, above).
; 260  : 			// Cast it back before delete, so the compiler won't incorrectly call destructors.
; 261  : 			delete [] ( reinterpret_cast<int*>( rep_ ) );

  0000c	50		 push	 eax
  0000d	e8 00 00 00 00	 call	 ??_V@YAXPAX@Z		; operator delete[]
  00012	83 c4 04	 add	 esp, 4
$LN10@clear:

; 196  : 		//Lee:
; 197  : 		//The original was just too strange, though correct:
; 198  : 		//	TiXmlString().swap(*this);
; 199  : 		//Instead use the quit & re-init:
; 200  : 		quit();
; 201  : 		init(0,0);
; 202  : 	}

  00015	c7 06 00 00 00
	00		 mov	 DWORD PTR [esi], OFFSET ?nullrep_@TiXmlString@@0URep@1@A ; TiXmlString::nullrep_
  0001b	5e		 pop	 esi
  0001c	c3		 ret	 0
?clear@TiXmlString@@QAEXXZ ENDP				; TiXmlString::clear
_TEXT	ENDS
; Function compile flags: /Ogtp
; File E:\Proyectos\JuegosOnlineproyectos\PB\pbblow\Piercing Blow Remake\i3Server\include\i3Base\tinystr.h
;	COMDAT ?find@TiXmlString@@QBEIDI@Z
_TEXT	SEGMENT
_tofind$ = 8						; size = 1
_offset$ = 12						; size = 4
?find@TiXmlString@@QBEIDI@Z PROC			; TiXmlString::find, COMDAT
; _this$ = ecx

; 184  : 	{

  00000	55		 push	 ebp
  00001	8b ec		 mov	 ebp, esp

; 185  : 		if (offset >= length()) return npos;

  00003	8b 45 0c	 mov	 eax, DWORD PTR _offset$[ebp]
  00006	56		 push	 esi

; 150  : 	size_type length () const { return rep_->size; }

  00007	8b 31		 mov	 esi, DWORD PTR [ecx]

; 185  : 		if (offset >= length()) return npos;

  00009	3b 06		 cmp	 eax, DWORD PTR [esi]
  0000b	73 1f		 jae	 SHORT $LN3@find

; 186  : 
; 187  : 		for (const char* p = c_str() + offset; *p != '\0'; ++p)

  0000d	83 c0 08	 add	 eax, 8
  00010	03 c6		 add	 eax, esi
  00012	8a 08		 mov	 cl, BYTE PTR [eax]
  00014	84 c9		 test	 cl, cl
  00016	74 14		 je	 SHORT $LN3@find
  00018	8a 55 08	 mov	 dl, BYTE PTR _tofind$[ebp]
  0001b	eb 03 8d 49 00	 npad	 5
$LL4@find:

; 188  : 		{
; 189  : 		   if (*p == tofind) return static_cast< size_type >( p - c_str() );

  00020	3a ca		 cmp	 cl, dl
  00022	74 12		 je	 SHORT $LN15@find

; 186  : 
; 187  : 		for (const char* p = c_str() + offset; *p != '\0'; ++p)

  00024	8a 48 01	 mov	 cl, BYTE PTR [eax+1]
  00027	40		 inc	 eax
  00028	84 c9		 test	 cl, cl
  0002a	75 f4		 jne	 SHORT $LL4@find
$LN3@find:

; 190  : 		}
; 191  : 		return npos;

  0002c	a1 00 00 00 00	 mov	 eax, DWORD PTR ?npos@TiXmlString@@2IB ; TiXmlString::npos
  00031	5e		 pop	 esi

; 192  : 	}

  00032	5d		 pop	 ebp
  00033	c2 08 00	 ret	 8
$LN15@find:

; 188  : 		{
; 189  : 		   if (*p == tofind) return static_cast< size_type >( p - c_str() );

  00036	2b c6		 sub	 eax, esi
  00038	83 e8 08	 sub	 eax, 8
  0003b	5e		 pop	 esi

; 192  : 	}

  0003c	5d		 pop	 ebp
  0003d	c2 08 00	 ret	 8
?find@TiXmlString@@QBEIDI@Z ENDP			; TiXmlString::find
_TEXT	ENDS
; Function compile flags: /Ogtp
; File E:\Proyectos\JuegosOnlineproyectos\PB\pbblow\Piercing Blow Remake\i3Server\include\i3Base\tinystr.h
;	COMDAT ?find@TiXmlString@@QBEID@Z
_TEXT	SEGMENT
_lookup$ = 8						; size = 1
?find@TiXmlString@@QBEID@Z PROC				; TiXmlString::find, COMDAT
; _this$ = ecx

; 178  : 	{

  00000	55		 push	 ebp
  00001	8b ec		 mov	 ebp, esp
  00003	56		 push	 esi

; 150  : 	size_type length () const { return rep_->size; }

  00004	8b 31		 mov	 esi, DWORD PTR [ecx]

; 185  : 		if (offset >= length()) return npos;

  00006	83 3e 00	 cmp	 DWORD PTR [esi], 0
  00009	76 19		 jbe	 SHORT $LN5@find

; 186  : 
; 187  : 		for (const char* p = c_str() + offset; *p != '\0'; ++p)

  0000b	8a 4e 08	 mov	 cl, BYTE PTR [esi+8]

; 144  : 	const char * c_str () const { return rep_->str; }

  0000e	8d 46 08	 lea	 eax, DWORD PTR [esi+8]

; 187  : 		for (const char* p = c_str() + offset; *p != '\0'; ++p)

  00011	84 c9		 test	 cl, cl
  00013	74 0f		 je	 SHORT $LN5@find
  00015	8a 55 08	 mov	 dl, BYTE PTR _lookup$[ebp]
$LL6@find:

; 188  : 		{
; 189  : 		   if (*p == tofind) return static_cast< size_type >( p - c_str() );

  00018	3a ca		 cmp	 cl, dl
  0001a	74 12		 je	 SHORT $LN17@find

; 186  : 
; 187  : 		for (const char* p = c_str() + offset; *p != '\0'; ++p)

  0001c	8a 48 01	 mov	 cl, BYTE PTR [eax+1]
  0001f	40		 inc	 eax
  00020	84 c9		 test	 cl, cl
  00022	75 f4		 jne	 SHORT $LL6@find
$LN5@find:

; 179  : 		return find(lookup, 0);
; 180  : 	}

  00024	a1 00 00 00 00	 mov	 eax, DWORD PTR ?npos@TiXmlString@@2IB ; TiXmlString::npos
  00029	5e		 pop	 esi
  0002a	5d		 pop	 ebp
  0002b	c2 04 00	 ret	 4
$LN17@find:

; 189  : 		   if (*p == tofind) return static_cast< size_type >( p - c_str() );

  0002e	2b c6		 sub	 eax, esi
  00030	83 e8 08	 sub	 eax, 8
  00033	5e		 pop	 esi

; 179  : 		return find(lookup, 0);
; 180  : 	}

  00034	5d		 pop	 ebp
  00035	c2 04 00	 ret	 4
?find@TiXmlString@@QBEID@Z ENDP				; TiXmlString::find
_TEXT	ENDS
; Function compile flags: /Ogtp
; File E:\Proyectos\JuegosOnlineproyectos\PB\pbblow\Piercing Blow Remake\i3Server\include\i3Base\tinystr.h
;	COMDAT ??ATiXmlString@@QBEAADI@Z
_TEXT	SEGMENT
_index$ = 8						; size = 4
??ATiXmlString@@QBEAADI@Z PROC				; TiXmlString::operator[], COMDAT
; _this$ = ecx

; 171  : 	{

  00000	55		 push	 ebp
  00001	8b ec		 mov	 ebp, esp

; 172  : 		I3ASSERT( index < length() );
; 173  : 		return rep_->str[ index ];

  00003	8b 45 08	 mov	 eax, DWORD PTR _index$[ebp]
  00006	83 c0 08	 add	 eax, 8
  00009	03 01		 add	 eax, DWORD PTR [ecx]

; 174  : 	}

  0000b	5d		 pop	 ebp
  0000c	c2 04 00	 ret	 4
??ATiXmlString@@QBEAADI@Z ENDP				; TiXmlString::operator[]
_TEXT	ENDS
; Function compile flags: /Ogtp
; File E:\Proyectos\JuegosOnlineproyectos\PB\pbblow\Piercing Blow Remake\i3Server\include\i3Base\tinystr.h
;	COMDAT ?at@TiXmlString@@QBEABDI@Z
_TEXT	SEGMENT
_index$ = 8						; size = 4
?at@TiXmlString@@QBEABDI@Z PROC				; TiXmlString::at, COMDAT
; _this$ = ecx

; 164  : 	{

  00000	55		 push	 ebp
  00001	8b ec		 mov	 ebp, esp

; 165  : 		I3ASSERT( index < length() );
; 166  : 		return rep_->str[ index ];

  00003	8b 45 08	 mov	 eax, DWORD PTR _index$[ebp]
  00006	83 c0 08	 add	 eax, 8
  00009	03 01		 add	 eax, DWORD PTR [ecx]

; 167  : 	}

  0000b	5d		 pop	 ebp
  0000c	c2 04 00	 ret	 4
?at@TiXmlString@@QBEABDI@Z ENDP				; TiXmlString::at
_TEXT	ENDS
; Function compile flags: /Ogtp
; File E:\Proyectos\JuegosOnlineproyectos\PB\pbblow\Piercing Blow Remake\i3Server\include\i3Base\tinystr.h
;	COMDAT ?capacity@TiXmlString@@QBEIXZ
_TEXT	SEGMENT
?capacity@TiXmlString@@QBEIXZ PROC			; TiXmlString::capacity, COMDAT
; _this$ = ecx

; 159  : 	size_type capacity () const { return rep_->capacity; }

  00000	8b 01		 mov	 eax, DWORD PTR [ecx]
  00002	8b 40 04	 mov	 eax, DWORD PTR [eax+4]
  00005	c3		 ret	 0
?capacity@TiXmlString@@QBEIXZ ENDP			; TiXmlString::capacity
_TEXT	ENDS
; Function compile flags: /Ogtp
; File E:\Proyectos\JuegosOnlineproyectos\PB\pbblow\Piercing Blow Remake\i3Server\include\i3Base\tinystr.h
;	COMDAT ?empty@TiXmlString@@QBE_NXZ
_TEXT	SEGMENT
?empty@TiXmlString@@QBE_NXZ PROC			; TiXmlString::empty, COMDAT
; _this$ = ecx

; 156  : 	bool empty () const { return rep_->size == 0; }

  00000	8b 01		 mov	 eax, DWORD PTR [ecx]
  00002	83 38 00	 cmp	 DWORD PTR [eax], 0
  00005	0f 94 c0	 sete	 al
  00008	c3		 ret	 0
?empty@TiXmlString@@QBE_NXZ ENDP			; TiXmlString::empty
_TEXT	ENDS
; Function compile flags: /Ogtp
; File E:\Proyectos\JuegosOnlineproyectos\PB\pbblow\Piercing Blow Remake\i3Server\include\i3Base\tinystr.h
;	COMDAT ?size@TiXmlString@@QBEIXZ
_TEXT	SEGMENT
?size@TiXmlString@@QBEIXZ PROC				; TiXmlString::size, COMDAT
; _this$ = ecx

; 153  : 	size_type size () const { return rep_->size; }

  00000	8b 01		 mov	 eax, DWORD PTR [ecx]
  00002	8b 00		 mov	 eax, DWORD PTR [eax]
  00004	c3		 ret	 0
?size@TiXmlString@@QBEIXZ ENDP				; TiXmlString::size
_TEXT	ENDS
; Function compile flags: /Ogtp
; File E:\Proyectos\JuegosOnlineproyectos\PB\pbblow\Piercing Blow Remake\i3Server\include\i3Base\tinystr.h
;	COMDAT ?length@TiXmlString@@QBEIXZ
_TEXT	SEGMENT
?length@TiXmlString@@QBEIXZ PROC			; TiXmlString::length, COMDAT
; _this$ = ecx

; 150  : 	size_type length () const { return rep_->size; }

  00000	8b 01		 mov	 eax, DWORD PTR [ecx]
  00002	8b 00		 mov	 eax, DWORD PTR [eax]
  00004	c3		 ret	 0
?length@TiXmlString@@QBEIXZ ENDP			; TiXmlString::length
_TEXT	ENDS
; Function compile flags: /Ogtp
; File E:\Proyectos\JuegosOnlineproyectos\PB\pbblow\Piercing Blow Remake\i3Server\include\i3Base\tinystr.h
;	COMDAT ?data@TiXmlString@@QBEPBDXZ
_TEXT	SEGMENT
?data@TiXmlString@@QBEPBDXZ PROC			; TiXmlString::data, COMDAT
; _this$ = ecx

; 147  : 	const char * data () const { return rep_->str; }

  00000	8b 01		 mov	 eax, DWORD PTR [ecx]
  00002	83 c0 08	 add	 eax, 8
  00005	c3		 ret	 0
?data@TiXmlString@@QBEPBDXZ ENDP			; TiXmlString::data
_TEXT	ENDS
; Function compile flags: /Ogtp
; File E:\Proyectos\JuegosOnlineproyectos\PB\pbblow\Piercing Blow Remake\i3Server\include\i3Base\tinystr.h
;	COMDAT ?c_str@TiXmlString@@QBEPBDXZ
_TEXT	SEGMENT
?c_str@TiXmlString@@QBEPBDXZ PROC			; TiXmlString::c_str, COMDAT
; _this$ = ecx

; 144  : 	const char * c_str () const { return rep_->str; }

  00000	8b 01		 mov	 eax, DWORD PTR [ecx]
  00002	83 c0 08	 add	 eax, 8
  00005	c3		 ret	 0
?c_str@TiXmlString@@QBEPBDXZ ENDP			; TiXmlString::c_str
_TEXT	ENDS
; Function compile flags: /Ogtp
; File E:\Proyectos\JuegosOnlineproyectos\PB\pbblow\Piercing Blow Remake\i3Server\include\i3Base\tinystr.h
;	COMDAT ??YTiXmlString@@QAEAAV0@ABV0@@Z
_TEXT	SEGMENT
_suffix$ = 8						; size = 4
??YTiXmlString@@QAEAAV0@ABV0@@Z PROC			; TiXmlString::operator+=, COMDAT
; _this$ = ecx

; 138  : 	{

  00000	55		 push	 ebp
  00001	8b ec		 mov	 ebp, esp

; 150  : 	size_type length () const { return rep_->size; }

  00003	8b 45 08	 mov	 eax, DWORD PTR _suffix$[ebp]
  00006	8b 00		 mov	 eax, DWORD PTR [eax]

; 139  : 		return append(suffix.data(), suffix.length());

  00008	ff 30		 push	 DWORD PTR [eax]

; 147  : 	const char * data () const { return rep_->str; }

  0000a	83 c0 08	 add	 eax, 8

; 139  : 		return append(suffix.data(), suffix.length());

  0000d	50		 push	 eax
  0000e	e8 00 00 00 00	 call	 ?append@TiXmlString@@QAEAAV1@PBDI@Z ; TiXmlString::append

; 140  : 	}

  00013	5d		 pop	 ebp
  00014	c2 04 00	 ret	 4
??YTiXmlString@@QAEAAV0@ABV0@@Z ENDP			; TiXmlString::operator+=
_TEXT	ENDS
; Function compile flags: /Ogtp
; File E:\Proyectos\JuegosOnlineproyectos\PB\pbblow\Piercing Blow Remake\i3Server\include\i3Base\tinystr.h
;	COMDAT ??YTiXmlString@@QAEAAV0@D@Z
_TEXT	SEGMENT
_single$ = 8						; size = 1
??YTiXmlString@@QAEAAV0@D@Z PROC			; TiXmlString::operator+=, COMDAT
; _this$ = ecx

; 132  : 	{

  00000	55		 push	 ebp
  00001	8b ec		 mov	 ebp, esp

; 133  : 		return append(&single, 1);

  00003	6a 01		 push	 1
  00005	8d 45 08	 lea	 eax, DWORD PTR _single$[ebp]
  00008	50		 push	 eax
  00009	e8 00 00 00 00	 call	 ?append@TiXmlString@@QAEAAV1@PBDI@Z ; TiXmlString::append

; 134  : 	}

  0000e	5d		 pop	 ebp
  0000f	c2 04 00	 ret	 4
??YTiXmlString@@QAEAAV0@D@Z ENDP			; TiXmlString::operator+=
_TEXT	ENDS
; Function compile flags: /Ogtp
; File E:\Proyectos\JuegosOnlineproyectos\PB\pbblow\Piercing Blow Remake\i3Server\include\i3Base\tinystr.h
;	COMDAT ??YTiXmlString@@QAEAAV0@PBD@Z
_TEXT	SEGMENT
_suffix$ = 8						; size = 4
??YTiXmlString@@QAEAAV0@PBD@Z PROC			; TiXmlString::operator+=, COMDAT
; _this$ = ecx

; 126  : 	{

  00000	55		 push	 ebp
  00001	8b ec		 mov	 ebp, esp

; 127  : 		return append(suffix, static_cast<size_type>( strlen(suffix) ));

  00003	8b 55 08	 mov	 edx, DWORD PTR _suffix$[ebp]
  00006	8b c2		 mov	 eax, edx
  00008	56		 push	 esi
  00009	57		 push	 edi
  0000a	8b f1		 mov	 esi, ecx
  0000c	8d 78 01	 lea	 edi, DWORD PTR [eax+1]
  0000f	90		 npad	 1
$LL3@operator:
  00010	8a 08		 mov	 cl, BYTE PTR [eax]
  00012	40		 inc	 eax
  00013	84 c9		 test	 cl, cl
  00015	75 f9		 jne	 SHORT $LL3@operator
  00017	2b c7		 sub	 eax, edi
  00019	8b ce		 mov	 ecx, esi
  0001b	50		 push	 eax
  0001c	52		 push	 edx
  0001d	e8 00 00 00 00	 call	 ?append@TiXmlString@@QAEAAV1@PBDI@Z ; TiXmlString::append
  00022	5f		 pop	 edi
  00023	5e		 pop	 esi

; 128  : 	}

  00024	5d		 pop	 ebp
  00025	c2 04 00	 ret	 4
??YTiXmlString@@QAEAAV0@PBD@Z ENDP			; TiXmlString::operator+=
_TEXT	ENDS
; Function compile flags: /Ogtp
; File E:\Proyectos\JuegosOnlineproyectos\PB\pbblow\Piercing Blow Remake\i3Server\include\i3Base\tinystr.h
;	COMDAT ??4TiXmlString@@QAEAAV0@ABV0@@Z
_TEXT	SEGMENT
_copy$ = 8						; size = 4
??4TiXmlString@@QAEAAV0@ABV0@@Z PROC			; TiXmlString::operator=, COMDAT
; _this$ = ecx

; 119  : 	{

  00000	55		 push	 ebp
  00001	8b ec		 mov	 ebp, esp

; 150  : 	size_type length () const { return rep_->size; }

  00003	8b 45 08	 mov	 eax, DWORD PTR _copy$[ebp]
  00006	8b 00		 mov	 eax, DWORD PTR [eax]

; 120  : 		return assign(copy.start(), copy.length());

  00008	ff 30		 push	 DWORD PTR [eax]

; 224  : 	char* start() const { return rep_->str; }

  0000a	83 c0 08	 add	 eax, 8

; 120  : 		return assign(copy.start(), copy.length());

  0000d	50		 push	 eax
  0000e	e8 00 00 00 00	 call	 ?assign@TiXmlString@@QAEAAV1@PBDI@Z ; TiXmlString::assign

; 121  : 	}

  00013	5d		 pop	 ebp
  00014	c2 04 00	 ret	 4
??4TiXmlString@@QAEAAV0@ABV0@@Z ENDP			; TiXmlString::operator=
_TEXT	ENDS
; Function compile flags: /Ogtp
; File E:\Proyectos\JuegosOnlineproyectos\PB\pbblow\Piercing Blow Remake\i3Server\include\i3Base\tinystr.h
;	COMDAT ??4TiXmlString@@QAEAAV0@PBD@Z
_TEXT	SEGMENT
_copy$ = 8						; size = 4
??4TiXmlString@@QAEAAV0@PBD@Z PROC			; TiXmlString::operator=, COMDAT
; _this$ = ecx

; 113  : 	{

  00000	55		 push	 ebp
  00001	8b ec		 mov	 ebp, esp

; 114  : 		return assign( copy, (size_type)strlen(copy));

  00003	8b 55 08	 mov	 edx, DWORD PTR _copy$[ebp]
  00006	8b c2		 mov	 eax, edx
  00008	56		 push	 esi
  00009	57		 push	 edi
  0000a	8b f1		 mov	 esi, ecx
  0000c	8d 78 01	 lea	 edi, DWORD PTR [eax+1]
  0000f	90		 npad	 1
$LL3@operator:
  00010	8a 08		 mov	 cl, BYTE PTR [eax]
  00012	40		 inc	 eax
  00013	84 c9		 test	 cl, cl
  00015	75 f9		 jne	 SHORT $LL3@operator
  00017	2b c7		 sub	 eax, edi
  00019	8b ce		 mov	 ecx, esi
  0001b	50		 push	 eax
  0001c	52		 push	 edx
  0001d	e8 00 00 00 00	 call	 ?assign@TiXmlString@@QAEAAV1@PBDI@Z ; TiXmlString::assign
  00022	5f		 pop	 edi
  00023	5e		 pop	 esi

; 115  : 	}

  00024	5d		 pop	 ebp
  00025	c2 04 00	 ret	 4
??4TiXmlString@@QAEAAV0@PBD@Z ENDP			; TiXmlString::operator=
_TEXT	ENDS
; Function compile flags: /Ogtp
; File E:\Proyectos\JuegosOnlineproyectos\PB\pbblow\Piercing Blow Remake\i3Server\include\i3Base\tinystr.h
;	COMDAT ??1TiXmlString@@QAE@XZ
_TEXT	SEGMENT
??1TiXmlString@@QAE@XZ PROC				; TiXmlString::~TiXmlString, COMDAT
; _this$ = ecx

; 257  : 		if (rep_ != &nullrep_)

  00000	8b 01		 mov	 eax, DWORD PTR [ecx]
  00002	3d 00 00 00 00	 cmp	 eax, OFFSET ?nullrep_@TiXmlString@@0URep@1@A ; TiXmlString::nullrep_
  00007	74 07		 je	 SHORT $LN5@TiXmlStrin

; 258  : 		{
; 259  : 			// The rep_ is really an array of ints. (see the allocator, above).
; 260  : 			// Cast it back before delete, so the compiler won't incorrectly call destructors.
; 261  : 			delete [] ( reinterpret_cast<int*>( rep_ ) );

  00009	50		 push	 eax
  0000a	e8 00 00 00 00	 call	 ??_V@YAXPAX@Z		; operator delete[]
  0000f	59		 pop	 ecx
$LN5@TiXmlStrin:

; 108  : 		quit();
; 109  : 	}

  00010	c3		 ret	 0
??1TiXmlString@@QAE@XZ ENDP				; TiXmlString::~TiXmlString
_TEXT	ENDS
; Function compile flags: /Ogtp
; File E:\Proyectos\JuegosOnlineproyectos\PB\pbblow\Piercing Blow Remake\i3Server\include\i3Base\tinystr.h
;	COMDAT ??0TiXmlString@@QAE@PBDI@Z
_TEXT	SEGMENT
_str$ = 8						; size = 4
_len$ = 12						; size = 4
??0TiXmlString@@QAE@PBDI@Z PROC				; TiXmlString::TiXmlString, COMDAT
; _this$ = ecx

; 100  : 	{

  00000	55		 push	 ebp
  00001	8b ec		 mov	 ebp, esp
  00003	56		 push	 esi
  00004	8b f1		 mov	 esi, ecx
  00006	57		 push	 edi

; 235  : 		if (cap)

  00007	8b 7d 0c	 mov	 edi, DWORD PTR _len$[ebp]

; 99   : 	TIXML_EXPLICIT TiXmlString ( const char * str, size_type len) : rep_(0)

  0000a	c7 06 00 00 00
	00		 mov	 DWORD PTR [esi], 0

; 235  : 		if (cap)

  00010	85 ff		 test	 edi, edi
  00012	74 30		 je	 SHORT $LN6@TiXmlStrin

; 236  : 		{
; 237  : 			// Lee: the original form:
; 238  : 			//	rep_ = static_cast<Rep*>(operator new(sizeof(Rep) + cap));
; 239  : 			// doesn't work in some cases of new being overloaded. Switching
; 240  : 			// to the normal allocation, although use an 'int' for systems
; 241  : 			// that are overly picky about structure alignment.
; 242  : 			const size_type bytesNeeded = sizeof(Rep) + cap;
; 243  : 			const size_type intsNeeded = ( bytesNeeded + sizeof(int) - 1 ) / sizeof( int ); 

  00014	8d 47 0f	 lea	 eax, DWORD PTR [edi+15]

; 244  : 			rep_ = reinterpret_cast<Rep*>( new int[ intsNeeded ] );

  00017	b9 04 00 00 00	 mov	 ecx, 4
  0001c	c1 e8 02	 shr	 eax, 2
  0001f	f7 e1		 mul	 ecx
  00021	b9 ff ff ff ff	 mov	 ecx, -1
  00026	0f 42 c1	 cmovb	 eax, ecx
  00029	50		 push	 eax
  0002a	e8 00 00 00 00	 call	 ??_U@YAPAXI@Z		; operator new[]
  0002f	89 06		 mov	 DWORD PTR [esi], eax
  00031	83 c4 04	 add	 esp, 4

; 245  : 
; 246  : 			rep_->str[ rep_->size = sz ] = '\0';

  00034	89 38		 mov	 DWORD PTR [eax], edi
  00036	8b 06		 mov	 eax, DWORD PTR [esi]
  00038	c6 44 38 08 00	 mov	 BYTE PTR [eax+edi+8], 0

; 247  : 			rep_->capacity = cap;

  0003d	8b 06		 mov	 eax, DWORD PTR [esi]
  0003f	89 78 04	 mov	 DWORD PTR [eax+4], edi

; 248  : 		}

  00042	eb 06		 jmp	 SHORT $LN7@TiXmlStrin
$LN6@TiXmlStrin:

; 249  : 		else
; 250  : 		{
; 251  : 			rep_ = &nullrep_;

  00044	c7 06 00 00 00
	00		 mov	 DWORD PTR [esi], OFFSET ?nullrep_@TiXmlString@@0URep@1@A ; TiXmlString::nullrep_
$LN7@TiXmlStrin:

; 224  : 	char* start() const { return rep_->str; }

  0004a	8b 06		 mov	 eax, DWORD PTR [esi]

; 101  : 		init(len);
; 102  : 		memcpy(start(), str, len);

  0004c	57		 push	 edi
  0004d	ff 75 08	 push	 DWORD PTR _str$[ebp]

; 224  : 	char* start() const { return rep_->str; }

  00050	83 c0 08	 add	 eax, 8

; 101  : 		init(len);
; 102  : 		memcpy(start(), str, len);

  00053	50		 push	 eax
  00054	e8 00 00 00 00	 call	 _memcpy
  00059	83 c4 0c	 add	 esp, 12			; 0000000cH

; 103  : 	}

  0005c	8b c6		 mov	 eax, esi
  0005e	5f		 pop	 edi
  0005f	5e		 pop	 esi
  00060	5d		 pop	 ebp
  00061	c2 08 00	 ret	 8
??0TiXmlString@@QAE@PBDI@Z ENDP				; TiXmlString::TiXmlString
_TEXT	ENDS
; Function compile flags: /Ogtp
; File E:\Proyectos\JuegosOnlineproyectos\PB\pbblow\Piercing Blow Remake\i3Server\include\i3Base\tinystr.h
;	COMDAT ??0TiXmlString@@QAE@PBD@Z
_TEXT	SEGMENT
_copy$ = 8						; size = 4
??0TiXmlString@@QAE@PBD@Z PROC				; TiXmlString::TiXmlString, COMDAT
; _this$ = ecx

; 93   : 	{

  00000	55		 push	 ebp
  00001	8b ec		 mov	 ebp, esp
  00003	56		 push	 esi

; 94   : 		init( static_cast<size_type>( strlen(copy) ));

  00004	8b 75 08	 mov	 esi, DWORD PTR _copy$[ebp]
  00007	57		 push	 edi
  00008	8b f9		 mov	 edi, ecx
  0000a	8d 4e 01	 lea	 ecx, DWORD PTR [esi+1]
  0000d	c7 07 00 00 00
	00		 mov	 DWORD PTR [edi], 0
$LL13@TiXmlStrin:
  00013	8a 06		 mov	 al, BYTE PTR [esi]
  00015	46		 inc	 esi
  00016	84 c0		 test	 al, al
  00018	75 f9		 jne	 SHORT $LL13@TiXmlStrin
  0001a	2b f1		 sub	 esi, ecx

; 235  : 		if (cap)

  0001c	74 30		 je	 SHORT $LN6@TiXmlStrin

; 236  : 		{
; 237  : 			// Lee: the original form:
; 238  : 			//	rep_ = static_cast<Rep*>(operator new(sizeof(Rep) + cap));
; 239  : 			// doesn't work in some cases of new being overloaded. Switching
; 240  : 			// to the normal allocation, although use an 'int' for systems
; 241  : 			// that are overly picky about structure alignment.
; 242  : 			const size_type bytesNeeded = sizeof(Rep) + cap;
; 243  : 			const size_type intsNeeded = ( bytesNeeded + sizeof(int) - 1 ) / sizeof( int ); 

  0001e	8d 46 0f	 lea	 eax, DWORD PTR [esi+15]

; 244  : 			rep_ = reinterpret_cast<Rep*>( new int[ intsNeeded ] );

  00021	b9 04 00 00 00	 mov	 ecx, 4
  00026	c1 e8 02	 shr	 eax, 2
  00029	f7 e1		 mul	 ecx
  0002b	b9 ff ff ff ff	 mov	 ecx, -1
  00030	0f 42 c1	 cmovb	 eax, ecx
  00033	50		 push	 eax
  00034	e8 00 00 00 00	 call	 ??_U@YAPAXI@Z		; operator new[]
  00039	89 07		 mov	 DWORD PTR [edi], eax
  0003b	83 c4 04	 add	 esp, 4

; 245  : 
; 246  : 			rep_->str[ rep_->size = sz ] = '\0';

  0003e	89 30		 mov	 DWORD PTR [eax], esi
  00040	8b 07		 mov	 eax, DWORD PTR [edi]
  00042	c6 44 30 08 00	 mov	 BYTE PTR [eax+esi+8], 0

; 247  : 			rep_->capacity = cap;

  00047	8b 07		 mov	 eax, DWORD PTR [edi]
  00049	89 70 04	 mov	 DWORD PTR [eax+4], esi

; 248  : 		}

  0004c	eb 06		 jmp	 SHORT $LN7@TiXmlStrin
$LN6@TiXmlStrin:

; 249  : 		else
; 250  : 		{
; 251  : 			rep_ = &nullrep_;

  0004e	c7 07 00 00 00
	00		 mov	 DWORD PTR [edi], OFFSET ?nullrep_@TiXmlString@@0URep@1@A ; TiXmlString::nullrep_
$LN7@TiXmlStrin:

; 150  : 	size_type length () const { return rep_->size; }

  00054	8b 07		 mov	 eax, DWORD PTR [edi]

; 95   : 		memcpy(start(), copy, length());

  00056	ff 30		 push	 DWORD PTR [eax]

; 224  : 	char* start() const { return rep_->str; }

  00058	83 c0 08	 add	 eax, 8

; 95   : 		memcpy(start(), copy, length());

  0005b	ff 75 08	 push	 DWORD PTR _copy$[ebp]
  0005e	50		 push	 eax
  0005f	e8 00 00 00 00	 call	 _memcpy
  00064	83 c4 0c	 add	 esp, 12			; 0000000cH

; 96   : 	}

  00067	8b c7		 mov	 eax, edi
  00069	5f		 pop	 edi
  0006a	5e		 pop	 esi
  0006b	5d		 pop	 ebp
  0006c	c2 04 00	 ret	 4
??0TiXmlString@@QAE@PBD@Z ENDP				; TiXmlString::TiXmlString
_TEXT	ENDS
; Function compile flags: /Ogtp
; File E:\Proyectos\JuegosOnlineproyectos\PB\pbblow\Piercing Blow Remake\i3Server\include\i3Base\tinystr.h
;	COMDAT ??0TiXmlString@@QAE@ABV0@@Z
_TEXT	SEGMENT
_copy$ = 8						; size = 4
??0TiXmlString@@QAE@ABV0@@Z PROC			; TiXmlString::TiXmlString, COMDAT
; _this$ = ecx

; 86   : 	{

  00000	55		 push	 ebp
  00001	8b ec		 mov	 ebp, esp
  00003	53		 push	 ebx

; 150  : 	size_type length () const { return rep_->size; }

  00004	8b 5d 08	 mov	 ebx, DWORD PTR _copy$[ebp]

; 86   : 	{

  00007	56		 push	 esi
  00008	8b f1		 mov	 esi, ecx
  0000a	57		 push	 edi
  0000b	c7 06 00 00 00
	00		 mov	 DWORD PTR [esi], 0

; 150  : 	size_type length () const { return rep_->size; }

  00011	8b 03		 mov	 eax, DWORD PTR [ebx]

; 87   : 		init(copy.length());

  00013	8b 38		 mov	 edi, DWORD PTR [eax]

; 235  : 		if (cap)

  00015	85 ff		 test	 edi, edi
  00017	74 30		 je	 SHORT $LN8@TiXmlStrin

; 236  : 		{
; 237  : 			// Lee: the original form:
; 238  : 			//	rep_ = static_cast<Rep*>(operator new(sizeof(Rep) + cap));
; 239  : 			// doesn't work in some cases of new being overloaded. Switching
; 240  : 			// to the normal allocation, although use an 'int' for systems
; 241  : 			// that are overly picky about structure alignment.
; 242  : 			const size_type bytesNeeded = sizeof(Rep) + cap;
; 243  : 			const size_type intsNeeded = ( bytesNeeded + sizeof(int) - 1 ) / sizeof( int ); 

  00019	8d 47 0f	 lea	 eax, DWORD PTR [edi+15]

; 244  : 			rep_ = reinterpret_cast<Rep*>( new int[ intsNeeded ] );

  0001c	b9 04 00 00 00	 mov	 ecx, 4
  00021	c1 e8 02	 shr	 eax, 2
  00024	f7 e1		 mul	 ecx
  00026	b9 ff ff ff ff	 mov	 ecx, -1
  0002b	0f 42 c1	 cmovb	 eax, ecx
  0002e	50		 push	 eax
  0002f	e8 00 00 00 00	 call	 ??_U@YAPAXI@Z		; operator new[]
  00034	89 06		 mov	 DWORD PTR [esi], eax
  00036	83 c4 04	 add	 esp, 4

; 245  : 
; 246  : 			rep_->str[ rep_->size = sz ] = '\0';

  00039	89 38		 mov	 DWORD PTR [eax], edi
  0003b	8b 06		 mov	 eax, DWORD PTR [esi]
  0003d	c6 44 38 08 00	 mov	 BYTE PTR [eax+edi+8], 0

; 247  : 			rep_->capacity = cap;

  00042	8b 06		 mov	 eax, DWORD PTR [esi]
  00044	89 78 04	 mov	 DWORD PTR [eax+4], edi

; 248  : 		}

  00047	eb 06		 jmp	 SHORT $LN9@TiXmlStrin
$LN8@TiXmlStrin:

; 249  : 		else
; 250  : 		{
; 251  : 			rep_ = &nullrep_;

  00049	c7 06 00 00 00
	00		 mov	 DWORD PTR [esi], OFFSET ?nullrep_@TiXmlString@@0URep@1@A ; TiXmlString::nullrep_
$LN9@TiXmlStrin:

; 150  : 	size_type length () const { return rep_->size; }

  0004f	8b 0e		 mov	 ecx, DWORD PTR [esi]

; 147  : 	const char * data () const { return rep_->str; }

  00051	8b 03		 mov	 eax, DWORD PTR [ebx]
  00053	83 c0 08	 add	 eax, 8

; 88   : 		memcpy(start(), copy.data(), length());

  00056	ff 31		 push	 DWORD PTR [ecx]
  00058	50		 push	 eax

; 224  : 	char* start() const { return rep_->str; }

  00059	8d 41 08	 lea	 eax, DWORD PTR [ecx+8]

; 88   : 		memcpy(start(), copy.data(), length());

  0005c	50		 push	 eax
  0005d	e8 00 00 00 00	 call	 _memcpy
  00062	83 c4 0c	 add	 esp, 12			; 0000000cH

; 89   : 	}

  00065	8b c6		 mov	 eax, esi
  00067	5f		 pop	 edi
  00068	5e		 pop	 esi
  00069	5b		 pop	 ebx
  0006a	5d		 pop	 ebp
  0006b	c2 04 00	 ret	 4
??0TiXmlString@@QAE@ABV0@@Z ENDP			; TiXmlString::TiXmlString
_TEXT	ENDS
; Function compile flags: /Ogtp
; File E:\Proyectos\JuegosOnlineproyectos\PB\pbblow\Piercing Blow Remake\i3Server\include\i3Base\tinystr.h
;	COMDAT ??0TiXmlString@@QAE@XZ
_TEXT	SEGMENT
??0TiXmlString@@QAE@XZ PROC				; TiXmlString::TiXmlString, COMDAT
; _this$ = ecx

; 80   : 	TiXmlString () : rep_(&nullrep_)

  00000	c7 01 00 00 00
	00		 mov	 DWORD PTR [ecx], OFFSET ?nullrep_@TiXmlString@@0URep@1@A ; TiXmlString::nullrep_

; 82   : 	}

  00006	8b c1		 mov	 eax, ecx
  00008	c3		 ret	 0
??0TiXmlString@@QAE@XZ ENDP				; TiXmlString::TiXmlString
_TEXT	ENDS
; Function compile flags: /Ogtp
; File E:\Proyectos\JuegosOnlineproyectos\PB\pbblow\Piercing Blow Remake\i3Server\src\i3Base\i3PropertyGridDefines.cpp
;	COMDAT ??_Ei3FileStream@@UAEPAXI@Z
_TEXT	SEGMENT
__$EHRec$ = -12						; size = 12
___flags$ = 8						; size = 4
??_Ei3FileStream@@UAEPAXI@Z PROC			; i3FileStream::`vector deleting destructor', COMDAT
; _this$ = ecx
  00000	55		 push	 ebp
  00001	8b ec		 mov	 ebp, esp
  00003	6a ff		 push	 -1
  00005	68 00 00 00 00	 push	 __ehhandler$??_Ei3FileStream@@UAEPAXI@Z
  0000a	64 a1 00 00 00
	00		 mov	 eax, DWORD PTR fs:0
  00010	50		 push	 eax
  00011	53		 push	 ebx
  00012	56		 push	 esi
  00013	57		 push	 edi
  00014	a1 00 00 00 00	 mov	 eax, DWORD PTR ___security_cookie
  00019	33 c5		 xor	 eax, ebp
  0001b	50		 push	 eax
  0001c	8d 45 f4	 lea	 eax, DWORD PTR __$EHRec$[ebp]
  0001f	64 a3 00 00 00
	00		 mov	 DWORD PTR fs:0, eax
  00025	8b f1		 mov	 esi, ecx
  00027	8b 5d 08	 mov	 ebx, DWORD PTR ___flags$[ebp]
  0002a	8b fb		 mov	 edi, ebx
  0002c	83 e7 01	 and	 edi, 1
  0002f	f6 c3 02	 test	 bl, 2
  00032	74 43		 je	 SHORT $LN2@vector
  00034	68 00 00 00 00	 push	 OFFSET ??1i3FileStream@@UAE@XZ ; i3FileStream::~i3FileStream
  00039	ff 76 fc	 push	 DWORD PTR [esi-4]
  0003c	8d 5e fc	 lea	 ebx, DWORD PTR [esi-4]
  0003f	68 38 01 00 00	 push	 312			; 00000138H
  00044	56		 push	 esi
  00045	e8 00 00 00 00	 call	 ??_M@YGXPAXIIP6EX0@Z@Z
  0004a	85 ff		 test	 edi, edi
  0004c	74 13		 je	 SHORT $LN3@vector
  0004e	69 0b 38 01 00
	00		 imul	 ecx, DWORD PTR [ebx], 312
  00054	83 c1 04	 add	 ecx, 4
  00057	51		 push	 ecx
  00058	53		 push	 ebx
  00059	e8 00 00 00 00	 call	 ??_V@YAXPAXI@Z		; operator delete[]
  0005e	83 c4 08	 add	 esp, 8
$LN3@vector:
  00061	8b c3		 mov	 eax, ebx
  00063	8b 4d f4	 mov	 ecx, DWORD PTR __$EHRec$[ebp]
  00066	64 89 0d 00 00
	00 00		 mov	 DWORD PTR fs:0, ecx
  0006d	59		 pop	 ecx
  0006e	5f		 pop	 edi
  0006f	5e		 pop	 esi
  00070	5b		 pop	 ebx
  00071	8b e5		 mov	 esp, ebp
  00073	5d		 pop	 ebp
  00074	c2 04 00	 ret	 4
$LN2@vector:
  00077	e8 00 00 00 00	 call	 ??1i3FileStream@@UAE@XZ	; i3FileStream::~i3FileStream
  0007c	85 ff		 test	 edi, edi
  0007e	74 1e		 je	 SHORT $LN6@vector
  00080	f6 c3 04	 test	 bl, 4
  00083	75 0b		 jne	 SHORT $LN5@vector
  00085	56		 push	 esi
  00086	e8 00 00 00 00	 call	 ??3i3ElementBase@@SAXPAX@Z ; i3ElementBase::operator delete
  0008b	83 c4 04	 add	 esp, 4
  0008e	eb 0e		 jmp	 SHORT $LN6@vector
$LN5@vector:

  00090	68 38 01 00 00	 push	 312			; 00000138H
  00095	56		 push	 esi
  00096	e8 00 00 00 00	 call	 ??3@YAXPAXI@Z		; operator delete
  0009b	83 c4 08	 add	 esp, 8
$LN6@vector:
  0009e	8b c6		 mov	 eax, esi
  000a0	8b 4d f4	 mov	 ecx, DWORD PTR __$EHRec$[ebp]
  000a3	64 89 0d 00 00
	00 00		 mov	 DWORD PTR fs:0, ecx
  000aa	59		 pop	 ecx
  000ab	5f		 pop	 edi
  000ac	5e		 pop	 esi
  000ad	5b		 pop	 ebx
  000ae	8b e5		 mov	 esp, ebp
  000b0	5d		 pop	 ebp
  000b1	c2 04 00	 ret	 4
  000b4	cc		 int	 3
  000b5	cc		 int	 3
  000b6	cc		 int	 3
  000b7	cc		 int	 3
  000b8	cc		 int	 3
_TEXT	ENDS
;	COMDAT text$x
text$x	SEGMENT
__ehhandler$??_Ei3FileStream@@UAEPAXI@Z:
  00000	90		 npad	 1
  00001	90		 npad	 1
  00002	8b 54 24 08	 mov	 edx, DWORD PTR [esp+8]
  00006	8d 42 0c	 lea	 eax, DWORD PTR [edx+12]
  00009	8b 4a f0	 mov	 ecx, DWORD PTR [edx-16]
  0000c	33 c8		 xor	 ecx, eax
  0000e	e8 00 00 00 00	 call	 @__security_check_cookie@4
  00013	b8 00 00 00 00	 mov	 eax, OFFSET __ehfuncinfo$??_Ei3FileStream@@UAEPAXI@Z
  00018	e9 00 00 00 00	 jmp	 ___CxxFrameHandler3
text$x	ENDS
??_Ei3FileStream@@UAEPAXI@Z ENDP			; i3FileStream::`vector deleting destructor'
; Function compile flags: /Ogtp
; File E:\Proyectos\JuegosOnlineproyectos\PB\pbblow\Piercing Blow Remake\i3Server\src\i3Base\i3PropertyGridDefines.cpp
;	COMDAT ??_Gi3FileStream@@UAEPAXI@Z
_TEXT	SEGMENT
___flags$ = 8						; size = 4
??_Gi3FileStream@@UAEPAXI@Z PROC			; i3FileStream::`scalar deleting destructor', COMDAT
; _this$ = ecx
  00000	55		 push	 ebp
  00001	8b ec		 mov	 ebp, esp
  00003	56		 push	 esi
  00004	8b f1		 mov	 esi, ecx
  00006	e8 00 00 00 00	 call	 ??1i3FileStream@@UAE@XZ	; i3FileStream::~i3FileStream
  0000b	8b 45 08	 mov	 eax, DWORD PTR ___flags$[ebp]
  0000e	a8 01		 test	 al, 1
  00010	74 22		 je	 SHORT $LN10@scalar
  00012	a8 04		 test	 al, 4
  00014	75 10		 jne	 SHORT $LN3@scalar
  00016	56		 push	 esi
  00017	e8 00 00 00 00	 call	 ??3i3ElementBase@@SAXPAX@Z ; i3ElementBase::operator delete
  0001c	83 c4 04	 add	 esp, 4
  0001f	8b c6		 mov	 eax, esi
  00021	5e		 pop	 esi
  00022	5d		 pop	 ebp
  00023	c2 04 00	 ret	 4
$LN3@scalar:

  00026	68 38 01 00 00	 push	 312			; 00000138H
  0002b	56		 push	 esi
  0002c	e8 00 00 00 00	 call	 ??3@YAXPAXI@Z		; operator delete
  00031	83 c4 08	 add	 esp, 8
$LN10@scalar:
  00034	8b c6		 mov	 eax, esi
  00036	5e		 pop	 esi
  00037	5d		 pop	 ebp
  00038	c2 04 00	 ret	 4
??_Gi3FileStream@@UAEPAXI@Z ENDP			; i3FileStream::`scalar deleting destructor'
_TEXT	ENDS
; Function compile flags: /Ogtp
;	COMDAT ??4i3FileStream@@QAEAAV0@ABV0@@Z
_TEXT	SEGMENT
___that$ = 8						; size = 4
??4i3FileStream@@QAEAAV0@ABV0@@Z PROC			; i3FileStream::operator=, COMDAT
; _this$ = ecx
  00000	55		 push	 ebp
  00001	8b ec		 mov	 ebp, esp
  00003	8b d1		 mov	 edx, ecx
  00005	56		 push	 esi
  00006	8b 75 08	 mov	 esi, DWORD PTR ___that$[ebp]
  00009	8b 46 04	 mov	 eax, DWORD PTR [esi+4]
  0000c	89 42 04	 mov	 DWORD PTR [edx+4], eax
  0000f	8b 46 08	 mov	 eax, DWORD PTR [esi+8]
  00012	89 42 08	 mov	 DWORD PTR [edx+8], eax
  00015	8b 46 0c	 mov	 eax, DWORD PTR [esi+12]
  00018	89 42 0c	 mov	 DWORD PTR [edx+12], eax
  0001b	8b 46 10	 mov	 eax, DWORD PTR [esi+16]
  0001e	89 42 10	 mov	 DWORD PTR [edx+16], eax
  00021	8b 46 14	 mov	 eax, DWORD PTR [esi+20]
  00024	89 42 14	 mov	 DWORD PTR [edx+20], eax
  00027	8b 46 18	 mov	 eax, DWORD PTR [esi+24]
  0002a	89 42 18	 mov	 DWORD PTR [edx+24], eax
  0002d	8b 46 1c	 mov	 eax, DWORD PTR [esi+28]
  00030	89 42 1c	 mov	 DWORD PTR [edx+28], eax
  00033	8b 46 20	 mov	 eax, DWORD PTR [esi+32]
  00036	89 42 20	 mov	 DWORD PTR [edx+32], eax
  00039	8b 46 24	 mov	 eax, DWORD PTR [esi+36]
  0003c	89 42 24	 mov	 DWORD PTR [edx+36], eax
  0003f	8b 46 28	 mov	 eax, DWORD PTR [esi+40]
  00042	89 42 28	 mov	 DWORD PTR [edx+40], eax
  00045	8b 46 2c	 mov	 eax, DWORD PTR [esi+44]
  00048	89 42 2c	 mov	 DWORD PTR [edx+44], eax
  0004b	8b 46 30	 mov	 eax, DWORD PTR [esi+48]
  0004e	89 42 30	 mov	 DWORD PTR [edx+48], eax
  00051	33 c0		 xor	 eax, eax
$LL4@operator:
  00053	8a 4c 06 34	 mov	 cl, BYTE PTR [esi+eax+52]
  00057	88 4c 02 34	 mov	 BYTE PTR [edx+eax+52], cl
  0005b	40		 inc	 eax
  0005c	3d 04 01 00 00	 cmp	 eax, 260		; 00000104H
  00061	72 f0		 jb	 SHORT $LL4@operator
  00063	5e		 pop	 esi
  00064	8b c2		 mov	 eax, edx
  00066	5d		 pop	 ebp
  00067	c2 04 00	 ret	 4
??4i3FileStream@@QAEAAV0@ABV0@@Z ENDP			; i3FileStream::operator=
_TEXT	ENDS
; Function compile flags: /Ogtp
;	COMDAT ??0i3FileStream@@QAE@ABV0@@Z
_TEXT	SEGMENT
___that$ = 8						; size = 4
??0i3FileStream@@QAE@ABV0@@Z PROC			; i3FileStream::i3FileStream, COMDAT
; _this$ = ecx
  00000	55		 push	 ebp
  00001	8b ec		 mov	 ebp, esp
  00003	8b d1		 mov	 edx, ecx
  00005	b9 41 00 00 00	 mov	 ecx, 65			; 00000041H
  0000a	56		 push	 esi
  0000b	8b 75 08	 mov	 esi, DWORD PTR ___that$[ebp]
  0000e	57		 push	 edi
  0000f	c7 02 00 00 00
	00		 mov	 DWORD PTR [edx], OFFSET ??_7i3ElementBase@@6B@
  00015	8d 7a 34	 lea	 edi, DWORD PTR [edx+52]
  00018	8b 46 04	 mov	 eax, DWORD PTR [esi+4]
  0001b	89 42 04	 mov	 DWORD PTR [edx+4], eax
  0001e	8b 46 08	 mov	 eax, DWORD PTR [esi+8]
  00021	89 42 08	 mov	 DWORD PTR [edx+8], eax
  00024	8b 46 0c	 mov	 eax, DWORD PTR [esi+12]
  00027	89 42 0c	 mov	 DWORD PTR [edx+12], eax
  0002a	c7 02 00 00 00
	00		 mov	 DWORD PTR [edx], OFFSET ??_7i3Stream@@6B@
  00030	8b 46 10	 mov	 eax, DWORD PTR [esi+16]
  00033	89 42 10	 mov	 DWORD PTR [edx+16], eax
  00036	8b 46 14	 mov	 eax, DWORD PTR [esi+20]
  00039	89 42 14	 mov	 DWORD PTR [edx+20], eax
  0003c	8b 46 18	 mov	 eax, DWORD PTR [esi+24]
  0003f	89 42 18	 mov	 DWORD PTR [edx+24], eax
  00042	8b 46 1c	 mov	 eax, DWORD PTR [esi+28]
  00045	89 42 1c	 mov	 DWORD PTR [edx+28], eax
  00048	8b 46 20	 mov	 eax, DWORD PTR [esi+32]
  0004b	89 42 20	 mov	 DWORD PTR [edx+32], eax
  0004e	c7 02 00 00 00
	00		 mov	 DWORD PTR [edx], OFFSET ??_7i3FileStream@@6B@
  00054	8b 46 24	 mov	 eax, DWORD PTR [esi+36]
  00057	89 42 24	 mov	 DWORD PTR [edx+36], eax
  0005a	8b 46 28	 mov	 eax, DWORD PTR [esi+40]
  0005d	89 42 28	 mov	 DWORD PTR [edx+40], eax
  00060	8b 46 2c	 mov	 eax, DWORD PTR [esi+44]
  00063	89 42 2c	 mov	 DWORD PTR [edx+44], eax
  00066	8b 46 30	 mov	 eax, DWORD PTR [esi+48]
  00069	83 c6 34	 add	 esi, 52			; 00000034H
  0006c	89 42 30	 mov	 DWORD PTR [edx+48], eax
  0006f	8b c2		 mov	 eax, edx
  00071	f3 a5		 rep movsd
  00073	5f		 pop	 edi
  00074	5e		 pop	 esi
  00075	5d		 pop	 ebp
  00076	c2 04 00	 ret	 4
??0i3FileStream@@QAE@ABV0@@Z ENDP			; i3FileStream::i3FileStream
_TEXT	ENDS
; Function compile flags: /Ogtp
; File E:\Proyectos\JuegosOnlineproyectos\PB\pbblow\Piercing Blow Remake\i3Server\include\i3Base\i3StreamFile.h
;	COMDAT ?IsCaseSensitive@i3FileStream@@SAHXZ
_TEXT	SEGMENT
?IsCaseSensitive@i3FileStream@@SAHXZ PROC		; i3FileStream::IsCaseSensitive, COMDAT

; 45   : 	static BOOL	IsCaseSensitive()						{ return m_bCaseSensitive; }

  00000	a1 00 00 00 00	 mov	 eax, DWORD PTR ?m_bCaseSensitive@i3FileStream@@1HA ; i3FileStream::m_bCaseSensitive
  00005	c3		 ret	 0
?IsCaseSensitive@i3FileStream@@SAHXZ ENDP		; i3FileStream::IsCaseSensitive
_TEXT	ENDS
; Function compile flags: /Ogtp
; File E:\Proyectos\JuegosOnlineproyectos\PB\pbblow\Piercing Blow Remake\i3Server\include\i3Base\i3StreamFile.h
;	COMDAT ?SetCaseSensitive@i3FileStream@@SAXH@Z
_TEXT	SEGMENT
_bTrue$ = 8						; size = 4
?SetCaseSensitive@i3FileStream@@SAXH@Z PROC		; i3FileStream::SetCaseSensitive, COMDAT

; 44   : 	static void	SetCaseSensitive( BOOL bTrue = TRUE )	{ m_bCaseSensitive = bTrue; }

  00000	55		 push	 ebp
  00001	8b ec		 mov	 ebp, esp
  00003	8b 45 08	 mov	 eax, DWORD PTR _bTrue$[ebp]
  00006	a3 00 00 00 00	 mov	 DWORD PTR ?m_bCaseSensitive@i3FileStream@@1HA, eax ; i3FileStream::m_bCaseSensitive
  0000b	5d		 pop	 ebp
  0000c	c3		 ret	 0
?SetCaseSensitive@i3FileStream@@SAXH@Z ENDP		; i3FileStream::SetCaseSensitive
_TEXT	ENDS
; Function compile flags: /Ogtp
; File E:\Proyectos\JuegosOnlineproyectos\PB\pbblow\Piercing Blow Remake\i3Server\include\i3Base\i3StreamFile.h
;	COMDAT ?GetFileName@i3FileStream@@QAEPADXZ
_TEXT	SEGMENT
?GetFileName@i3FileStream@@QAEPADXZ PROC		; i3FileStream::GetFileName, COMDAT
; _this$ = ecx

; 41   : 	char *  GetFileName(void)			{ return FileName; }

  00000	8d 41 34	 lea	 eax, DWORD PTR [ecx+52]
  00003	c3		 ret	 0
?GetFileName@i3FileStream@@QAEPADXZ ENDP		; i3FileStream::GetFileName
_TEXT	ENDS
; Function compile flags: /Ogtp
; File E:\Proyectos\JuegosOnlineproyectos\PB\pbblow\Piercing Blow Remake\i3Server\include\i3Base\i3StreamFile.h
;	COMDAT ?GetHandle@i3FileStream@@UAEPAXXZ
_TEXT	SEGMENT
?GetHandle@i3FileStream@@UAEPAXXZ PROC			; i3FileStream::GetHandle, COMDAT
; _this$ = ecx

; 39   : 	void * GetHandle(void)				{ return (void *)m_pHandle; }

  00000	8b 41 20	 mov	 eax, DWORD PTR [ecx+32]
  00003	c3		 ret	 0
?GetHandle@i3FileStream@@UAEPAXXZ ENDP			; i3FileStream::GetHandle
_TEXT	ENDS
; Function compile flags: /Ogtp
; File E:\Proyectos\JuegosOnlineproyectos\PB\pbblow\Piercing Blow Remake\i3Server\include\i3Base\i3StreamFile.h
;	COMDAT ?GetClassMeta@i3FileStream@@SAPAVi3ClassMeta@@XZ
_TEXT	SEGMENT
?GetClassMeta@i3FileStream@@SAPAVi3ClassMeta@@XZ PROC	; i3FileStream::GetClassMeta, COMDAT

; 20   : 	I3_CLASS_DEFINE( i3FileStream);

  00000	a1 00 00 00 00	 mov	 eax, DWORD PTR ?s_pClassMetai3FileStream@i3FileStream@@2PAVi3ClassMeta@@A ; i3FileStream::s_pClassMetai3FileStream
  00005	c3		 ret	 0
?GetClassMeta@i3FileStream@@SAPAVi3ClassMeta@@XZ ENDP	; i3FileStream::GetClassMeta
_TEXT	ENDS
; Function compile flags: /Ogtp
; File E:\Proyectos\JuegosOnlineproyectos\PB\pbblow\Piercing Blow Remake\i3Server\src\i3Base\i3PropertyGridDefines.cpp
;	COMDAT ??_Ei3Stream@@UAEPAXI@Z
_TEXT	SEGMENT
__$EHRec$ = -12						; size = 12
___flags$ = 8						; size = 4
??_Ei3Stream@@UAEPAXI@Z PROC				; i3Stream::`vector deleting destructor', COMDAT
; _this$ = ecx
  00000	55		 push	 ebp
  00001	8b ec		 mov	 ebp, esp
  00003	6a ff		 push	 -1
  00005	68 00 00 00 00	 push	 __ehhandler$??_Ei3Stream@@UAEPAXI@Z
  0000a	64 a1 00 00 00
	00		 mov	 eax, DWORD PTR fs:0
  00010	50		 push	 eax
  00011	53		 push	 ebx
  00012	56		 push	 esi
  00013	57		 push	 edi
  00014	a1 00 00 00 00	 mov	 eax, DWORD PTR ___security_cookie
  00019	33 c5		 xor	 eax, ebp
  0001b	50		 push	 eax
  0001c	8d 45 f4	 lea	 eax, DWORD PTR __$EHRec$[ebp]
  0001f	64 a3 00 00 00
	00		 mov	 DWORD PTR fs:0, eax
  00025	8b f1		 mov	 esi, ecx
  00027	8b 5d 08	 mov	 ebx, DWORD PTR ___flags$[ebp]
  0002a	8b fb		 mov	 edi, ebx
  0002c	83 e7 01	 and	 edi, 1
  0002f	f6 c3 02	 test	 bl, 2
  00032	74 43		 je	 SHORT $LN2@vector
  00034	68 00 00 00 00	 push	 OFFSET ??1i3Stream@@UAE@XZ ; i3Stream::~i3Stream
  00039	ff 76 fc	 push	 DWORD PTR [esi-4]
  0003c	8d 5e fc	 lea	 ebx, DWORD PTR [esi-4]
  0003f	6a 24		 push	 36			; 00000024H
  00041	56		 push	 esi
  00042	e8 00 00 00 00	 call	 ??_M@YGXPAXIIP6EX0@Z@Z
  00047	85 ff		 test	 edi, edi
  00049	74 16		 je	 SHORT $LN3@vector
  0004b	8b 0b		 mov	 ecx, DWORD PTR [ebx]
  0004d	8d 0c c9	 lea	 ecx, DWORD PTR [ecx+ecx*8]
  00050	8d 0c 8d 04 00
	00 00		 lea	 ecx, DWORD PTR [ecx*4+4]
  00057	51		 push	 ecx
  00058	53		 push	 ebx
  00059	e8 00 00 00 00	 call	 ??_V@YAXPAXI@Z		; operator delete[]
  0005e	83 c4 08	 add	 esp, 8
$LN3@vector:
  00061	8b c3		 mov	 eax, ebx
  00063	8b 4d f4	 mov	 ecx, DWORD PTR __$EHRec$[ebp]
  00066	64 89 0d 00 00
	00 00		 mov	 DWORD PTR fs:0, ecx
  0006d	59		 pop	 ecx
  0006e	5f		 pop	 edi
  0006f	5e		 pop	 esi
  00070	5b		 pop	 ebx
  00071	8b e5		 mov	 esp, ebp
  00073	5d		 pop	 ebp
  00074	c2 04 00	 ret	 4
$LN2@vector:
  00077	e8 00 00 00 00	 call	 ??1i3Stream@@UAE@XZ	; i3Stream::~i3Stream
  0007c	85 ff		 test	 edi, edi
  0007e	74 1b		 je	 SHORT $LN6@vector
  00080	f6 c3 04	 test	 bl, 4
  00083	75 0b		 jne	 SHORT $LN5@vector
  00085	56		 push	 esi
  00086	e8 00 00 00 00	 call	 ??3i3ElementBase@@SAXPAX@Z ; i3ElementBase::operator delete
  0008b	83 c4 04	 add	 esp, 4
  0008e	eb 0b		 jmp	 SHORT $LN6@vector
$LN5@vector:

  00090	6a 24		 push	 36			; 00000024H
  00092	56		 push	 esi
  00093	e8 00 00 00 00	 call	 ??3@YAXPAXI@Z		; operator delete
  00098	83 c4 08	 add	 esp, 8
$LN6@vector:
  0009b	8b c6		 mov	 eax, esi
  0009d	8b 4d f4	 mov	 ecx, DWORD PTR __$EHRec$[ebp]
  000a0	64 89 0d 00 00
	00 00		 mov	 DWORD PTR fs:0, ecx
  000a7	59		 pop	 ecx
  000a8	5f		 pop	 edi
  000a9	5e		 pop	 esi
  000aa	5b		 pop	 ebx
  000ab	8b e5		 mov	 esp, ebp
  000ad	5d		 pop	 ebp
  000ae	c2 04 00	 ret	 4
  000b1	cc		 int	 3
  000b2	cc		 int	 3
  000b3	cc		 int	 3
  000b4	cc		 int	 3
  000b5	cc		 int	 3
_TEXT	ENDS
;	COMDAT text$x
text$x	SEGMENT
__ehhandler$??_Ei3Stream@@UAEPAXI@Z:
  00000	90		 npad	 1
  00001	90		 npad	 1
  00002	8b 54 24 08	 mov	 edx, DWORD PTR [esp+8]
  00006	8d 42 0c	 lea	 eax, DWORD PTR [edx+12]
  00009	8b 4a f0	 mov	 ecx, DWORD PTR [edx-16]
  0000c	33 c8		 xor	 ecx, eax
  0000e	e8 00 00 00 00	 call	 @__security_check_cookie@4
  00013	b8 00 00 00 00	 mov	 eax, OFFSET __ehfuncinfo$??_Ei3Stream@@UAEPAXI@Z
  00018	e9 00 00 00 00	 jmp	 ___CxxFrameHandler3
text$x	ENDS
??_Ei3Stream@@UAEPAXI@Z ENDP				; i3Stream::`vector deleting destructor'
; Function compile flags: /Ogtp
; File E:\Proyectos\JuegosOnlineproyectos\PB\pbblow\Piercing Blow Remake\i3Server\src\i3Base\i3PropertyGridDefines.cpp
;	COMDAT ??_Gi3Stream@@UAEPAXI@Z
_TEXT	SEGMENT
___flags$ = 8						; size = 4
??_Gi3Stream@@UAEPAXI@Z PROC				; i3Stream::`scalar deleting destructor', COMDAT
; _this$ = ecx
  00000	55		 push	 ebp
  00001	8b ec		 mov	 ebp, esp
  00003	56		 push	 esi
  00004	8b f1		 mov	 esi, ecx
  00006	e8 00 00 00 00	 call	 ??1i3Stream@@UAE@XZ	; i3Stream::~i3Stream
  0000b	8b 45 08	 mov	 eax, DWORD PTR ___flags$[ebp]
  0000e	a8 01		 test	 al, 1
  00010	74 1f		 je	 SHORT $LN10@scalar
  00012	a8 04		 test	 al, 4
  00014	75 10		 jne	 SHORT $LN3@scalar
  00016	56		 push	 esi
  00017	e8 00 00 00 00	 call	 ??3i3ElementBase@@SAXPAX@Z ; i3ElementBase::operator delete
  0001c	83 c4 04	 add	 esp, 4
  0001f	8b c6		 mov	 eax, esi
  00021	5e		 pop	 esi
  00022	5d		 pop	 ebp
  00023	c2 04 00	 ret	 4
$LN3@scalar:

  00026	6a 24		 push	 36			; 00000024H
  00028	56		 push	 esi
  00029	e8 00 00 00 00	 call	 ??3@YAXPAXI@Z		; operator delete
  0002e	83 c4 08	 add	 esp, 8
$LN10@scalar:
  00031	8b c6		 mov	 eax, esi
  00033	5e		 pop	 esi
  00034	5d		 pop	 ebp
  00035	c2 04 00	 ret	 4
??_Gi3Stream@@UAEPAXI@Z ENDP				; i3Stream::`scalar deleting destructor'
_TEXT	ENDS
; Function compile flags: /Ogtp
;	COMDAT ??4i3Stream@@QAEAAV0@ABV0@@Z
_TEXT	SEGMENT
___that$ = 8						; size = 4
??4i3Stream@@QAEAAV0@ABV0@@Z PROC			; i3Stream::operator=, COMDAT
; _this$ = ecx
  00000	55		 push	 ebp
  00001	8b ec		 mov	 ebp, esp
  00003	8b 55 08	 mov	 edx, DWORD PTR ___that$[ebp]
  00006	8b 42 04	 mov	 eax, DWORD PTR [edx+4]
  00009	89 41 04	 mov	 DWORD PTR [ecx+4], eax
  0000c	8b 42 08	 mov	 eax, DWORD PTR [edx+8]
  0000f	89 41 08	 mov	 DWORD PTR [ecx+8], eax
  00012	8b 42 0c	 mov	 eax, DWORD PTR [edx+12]
  00015	89 41 0c	 mov	 DWORD PTR [ecx+12], eax
  00018	8b 42 10	 mov	 eax, DWORD PTR [edx+16]
  0001b	89 41 10	 mov	 DWORD PTR [ecx+16], eax
  0001e	8b 42 14	 mov	 eax, DWORD PTR [edx+20]
  00021	89 41 14	 mov	 DWORD PTR [ecx+20], eax
  00024	8b 42 18	 mov	 eax, DWORD PTR [edx+24]
  00027	89 41 18	 mov	 DWORD PTR [ecx+24], eax
  0002a	8b 42 1c	 mov	 eax, DWORD PTR [edx+28]
  0002d	89 41 1c	 mov	 DWORD PTR [ecx+28], eax
  00030	8b 42 20	 mov	 eax, DWORD PTR [edx+32]
  00033	89 41 20	 mov	 DWORD PTR [ecx+32], eax
  00036	8b c1		 mov	 eax, ecx
  00038	5d		 pop	 ebp
  00039	c2 04 00	 ret	 4
??4i3Stream@@QAEAAV0@ABV0@@Z ENDP			; i3Stream::operator=
_TEXT	ENDS
; Function compile flags: /Ogtp
;	COMDAT ??0i3Stream@@QAE@ABV0@@Z
_TEXT	SEGMENT
___that$ = 8						; size = 4
??0i3Stream@@QAE@ABV0@@Z PROC				; i3Stream::i3Stream, COMDAT
; _this$ = ecx
  00000	55		 push	 ebp
  00001	8b ec		 mov	 ebp, esp
  00003	8b 55 08	 mov	 edx, DWORD PTR ___that$[ebp]
  00006	c7 01 00 00 00
	00		 mov	 DWORD PTR [ecx], OFFSET ??_7i3ElementBase@@6B@
  0000c	8b 42 04	 mov	 eax, DWORD PTR [edx+4]
  0000f	89 41 04	 mov	 DWORD PTR [ecx+4], eax
  00012	8b 42 08	 mov	 eax, DWORD PTR [edx+8]
  00015	89 41 08	 mov	 DWORD PTR [ecx+8], eax
  00018	8b 42 0c	 mov	 eax, DWORD PTR [edx+12]
  0001b	89 41 0c	 mov	 DWORD PTR [ecx+12], eax
  0001e	c7 01 00 00 00
	00		 mov	 DWORD PTR [ecx], OFFSET ??_7i3Stream@@6B@
  00024	8b 42 10	 mov	 eax, DWORD PTR [edx+16]
  00027	89 41 10	 mov	 DWORD PTR [ecx+16], eax
  0002a	8b 42 14	 mov	 eax, DWORD PTR [edx+20]
  0002d	89 41 14	 mov	 DWORD PTR [ecx+20], eax
  00030	8b 42 18	 mov	 eax, DWORD PTR [edx+24]
  00033	89 41 18	 mov	 DWORD PTR [ecx+24], eax
  00036	8b 42 1c	 mov	 eax, DWORD PTR [edx+28]
  00039	89 41 1c	 mov	 DWORD PTR [ecx+28], eax
  0003c	8b 42 20	 mov	 eax, DWORD PTR [edx+32]
  0003f	89 41 20	 mov	 DWORD PTR [ecx+32], eax
  00042	8b c1		 mov	 eax, ecx
  00044	5d		 pop	 ebp
  00045	c2 04 00	 ret	 4
??0i3Stream@@QAE@ABV0@@Z ENDP				; i3Stream::i3Stream
_TEXT	ENDS
; Function compile flags: /Ogtp
; File E:\Proyectos\JuegosOnlineproyectos\PB\pbblow\Piercing Blow Remake\i3Server\include\i3Base\i3Stream.h
;	COMDAT ?GetRecordSize@i3Stream@@QAEIXZ
_TEXT	SEGMENT
?GetRecordSize@i3Stream@@QAEIXZ PROC			; i3Stream::GetRecordSize, COMDAT
; _this$ = ecx

; 58   : 	UINT32	GetRecordSize(void)							{ return m_RecordSize; }

  00000	8b 41 14	 mov	 eax, DWORD PTR [ecx+20]
  00003	c3		 ret	 0
?GetRecordSize@i3Stream@@QAEIXZ ENDP			; i3Stream::GetRecordSize
_TEXT	ENDS
; Function compile flags: /Ogtp
; File E:\Proyectos\JuegosOnlineproyectos\PB\pbblow\Piercing Blow Remake\i3Server\include\i3Base\i3Stream.h
;	COMDAT ?BeginRecord@i3Stream@@QAEXXZ
_TEXT	SEGMENT
?BeginRecord@i3Stream@@QAEXXZ PROC			; i3Stream::BeginRecord, COMDAT
; _this$ = ecx

; 57   : 	void	BeginRecord(void)							{ m_RecordSize = 0; }

  00000	c7 41 14 00 00
	00 00		 mov	 DWORD PTR [ecx+20], 0
  00007	c3		 ret	 0
?BeginRecord@i3Stream@@QAEXXZ ENDP			; i3Stream::BeginRecord
_TEXT	ENDS
; Function compile flags: /Ogtp
; File E:\Proyectos\JuegosOnlineproyectos\PB\pbblow\Piercing Blow Remake\i3Server\include\i3Base\i3Stream.h
;	COMDAT ?GetHandle@i3Stream@@UAEPAXXZ
_TEXT	SEGMENT
?GetHandle@i3Stream@@UAEPAXXZ PROC			; i3Stream::GetHandle, COMDAT
; _this$ = ecx

; 55   : 	virtual void *			GetHandle(void)				{ return m_pHandle; }

  00000	8b 41 20	 mov	 eax, DWORD PTR [ecx+32]
  00003	c3		 ret	 0
?GetHandle@i3Stream@@UAEPAXXZ ENDP			; i3Stream::GetHandle
_TEXT	ENDS
; Function compile flags: /Ogtp
; File E:\Proyectos\JuegosOnlineproyectos\PB\pbblow\Piercing Blow Remake\i3Server\include\i3Base\i3Stream.h
;	COMDAT ?GetAccessMode@i3Stream@@QAEHXZ
_TEXT	SEGMENT
?GetAccessMode@i3Stream@@QAEHXZ PROC			; i3Stream::GetAccessMode, COMDAT
; _this$ = ecx

; 53   : 	INT32			GetAccessMode(void)					{ return m_Access; }

  00000	8b 41 1c	 mov	 eax, DWORD PTR [ecx+28]
  00003	c3		 ret	 0
?GetAccessMode@i3Stream@@QAEHXZ ENDP			; i3Stream::GetAccessMode
_TEXT	ENDS
; Function compile flags: /Ogtp
; File E:\Proyectos\JuegosOnlineproyectos\PB\pbblow\Piercing Blow Remake\i3Server\include\i3Base\i3Stream.h
;	COMDAT ?GetLastError@i3Stream@@QAE?AW4STREAMCODE@1@XZ
_TEXT	SEGMENT
?GetLastError@i3Stream@@QAE?AW4STREAMCODE@1@XZ PROC	; i3Stream::GetLastError, COMDAT
; _this$ = ecx

; 52   : 	STREAMCODE		GetLastError(void)					{ return m_LastCode; }

  00000	8b 41 18	 mov	 eax, DWORD PTR [ecx+24]
  00003	c3		 ret	 0
?GetLastError@i3Stream@@QAE?AW4STREAMCODE@1@XZ ENDP	; i3Stream::GetLastError
_TEXT	ENDS
; Function compile flags: /Ogtp
; File E:\Proyectos\JuegosOnlineproyectos\PB\pbblow\Piercing Blow Remake\i3Server\include\i3Base\i3Stream.h
;	COMDAT ?GetSize@i3Stream@@QAEIXZ
_TEXT	SEGMENT
?GetSize@i3Stream@@QAEIXZ PROC				; i3Stream::GetSize, COMDAT
; _this$ = ecx

; 51   : 	UINT32			GetSize(void)						{ return m_Size; }

  00000	8b 41 10	 mov	 eax, DWORD PTR [ecx+16]
  00003	c3		 ret	 0
?GetSize@i3Stream@@QAEIXZ ENDP				; i3Stream::GetSize
_TEXT	ENDS
; Function compile flags: /Ogtp
; File E:\Proyectos\JuegosOnlineproyectos\PB\pbblow\Piercing Blow Remake\i3Server\include\i3Base\i3Stream.h
;	COMDAT ?GetClassMeta@i3Stream@@SAPAVi3ClassMeta@@XZ
_TEXT	SEGMENT
?GetClassMeta@i3Stream@@SAPAVi3ClassMeta@@XZ PROC	; i3Stream::GetClassMeta, COMDAT

; 24   : 	I3_ABSTRACT_CLASS_DEFINE( i3Stream);

  00000	a1 00 00 00 00	 mov	 eax, DWORD PTR ?s_pClassMetai3Stream@i3Stream@@2PAVi3ClassMeta@@A ; i3Stream::s_pClassMetai3Stream
  00005	c3		 ret	 0
?GetClassMeta@i3Stream@@SAPAVi3ClassMeta@@XZ ENDP	; i3Stream::GetClassMeta
_TEXT	ENDS
; Function compile flags: /Ogtp
;	COMDAT ??_Ei3MemoryPool@@UAEPAXI@Z
_TEXT	SEGMENT
__$EHRec$ = -12						; size = 12
___flags$ = 8						; size = 4
??_Ei3MemoryPool@@UAEPAXI@Z PROC			; i3MemoryPool::`vector deleting destructor', COMDAT
; _this$ = ecx
  00000	55		 push	 ebp
  00001	8b ec		 mov	 ebp, esp
  00003	6a ff		 push	 -1
  00005	68 00 00 00 00	 push	 __ehhandler$??_Ei3MemoryPool@@UAEPAXI@Z
  0000a	64 a1 00 00 00
	00		 mov	 eax, DWORD PTR fs:0
  00010	50		 push	 eax
  00011	53		 push	 ebx
  00012	56		 push	 esi
  00013	57		 push	 edi
  00014	a1 00 00 00 00	 mov	 eax, DWORD PTR ___security_cookie
  00019	33 c5		 xor	 eax, ebp
  0001b	50		 push	 eax
  0001c	8d 45 f4	 lea	 eax, DWORD PTR __$EHRec$[ebp]
  0001f	64 a3 00 00 00
	00		 mov	 DWORD PTR fs:0, eax
  00025	8b f1		 mov	 esi, ecx
  00027	8b 45 08	 mov	 eax, DWORD PTR ___flags$[ebp]
  0002a	8b f8		 mov	 edi, eax
  0002c	83 e7 01	 and	 edi, 1
  0002f	a8 02		 test	 al, 2
  00031	74 40		 je	 SHORT $LN2@vector
  00033	68 00 00 00 00	 push	 OFFSET ??1i3MemoryPool@@UAE@XZ ; i3MemoryPool::~i3MemoryPool
  00038	ff 76 fc	 push	 DWORD PTR [esi-4]
  0003b	8d 5e fc	 lea	 ebx, DWORD PTR [esi-4]
  0003e	6a 04		 push	 4
  00040	56		 push	 esi
  00041	e8 00 00 00 00	 call	 ??_M@YGXPAXIIP6EX0@Z@Z
  00046	85 ff		 test	 edi, edi
  00048	74 13		 je	 SHORT $LN3@vector
  0004a	8b 0b		 mov	 ecx, DWORD PTR [ebx]
  0004c	8d 0c 8d 04 00
	00 00		 lea	 ecx, DWORD PTR [ecx*4+4]
  00053	51		 push	 ecx
  00054	53		 push	 ebx
  00055	e8 00 00 00 00	 call	 ??_V@YAXPAXI@Z		; operator delete[]
  0005a	83 c4 08	 add	 esp, 8
$LN3@vector:
  0005d	8b c3		 mov	 eax, ebx
  0005f	8b 4d f4	 mov	 ecx, DWORD PTR __$EHRec$[ebp]
  00062	64 89 0d 00 00
	00 00		 mov	 DWORD PTR fs:0, ecx
  00069	59		 pop	 ecx
  0006a	5f		 pop	 edi
  0006b	5e		 pop	 esi
  0006c	5b		 pop	 ebx
  0006d	8b e5		 mov	 esp, ebp
  0006f	5d		 pop	 ebp
  00070	c2 04 00	 ret	 4
$LN2@vector:
  00073	e8 00 00 00 00	 call	 ??1i3MemoryPool@@UAE@XZ	; i3MemoryPool::~i3MemoryPool
  00078	85 ff		 test	 edi, edi
  0007a	74 0b		 je	 SHORT $LN4@vector
  0007c	6a 04		 push	 4
  0007e	56		 push	 esi
  0007f	e8 00 00 00 00	 call	 ??3@YAXPAXI@Z		; operator delete
  00084	83 c4 08	 add	 esp, 8
$LN4@vector:
  00087	8b c6		 mov	 eax, esi
  00089	8b 4d f4	 mov	 ecx, DWORD PTR __$EHRec$[ebp]
  0008c	64 89 0d 00 00
	00 00		 mov	 DWORD PTR fs:0, ecx
  00093	59		 pop	 ecx
  00094	5f		 pop	 edi
  00095	5e		 pop	 esi
  00096	5b		 pop	 ebx
  00097	8b e5		 mov	 esp, ebp
  00099	5d		 pop	 ebp
  0009a	c2 04 00	 ret	 4
  0009d	cc		 int	 3
  0009e	cc		 int	 3
  0009f	cc		 int	 3
  000a0	cc		 int	 3
  000a1	cc		 int	 3
_TEXT	ENDS
;	COMDAT text$x
text$x	SEGMENT
__ehhandler$??_Ei3MemoryPool@@UAEPAXI@Z:
  00000	90		 npad	 1
  00001	90		 npad	 1
  00002	8b 54 24 08	 mov	 edx, DWORD PTR [esp+8]
  00006	8d 42 0c	 lea	 eax, DWORD PTR [edx+12]
  00009	8b 4a f0	 mov	 ecx, DWORD PTR [edx-16]
  0000c	33 c8		 xor	 ecx, eax
  0000e	e8 00 00 00 00	 call	 @__security_check_cookie@4
  00013	b8 00 00 00 00	 mov	 eax, OFFSET __ehfuncinfo$??_Ei3MemoryPool@@UAEPAXI@Z
  00018	e9 00 00 00 00	 jmp	 ___CxxFrameHandler3
text$x	ENDS
??_Ei3MemoryPool@@UAEPAXI@Z ENDP			; i3MemoryPool::`vector deleting destructor'
; Function compile flags: /Ogtp
;	COMDAT ??_Gi3MemoryPool@@UAEPAXI@Z
_TEXT	SEGMENT
___flags$ = 8						; size = 4
??_Gi3MemoryPool@@UAEPAXI@Z PROC			; i3MemoryPool::`scalar deleting destructor', COMDAT
; _this$ = ecx
  00000	55		 push	 ebp
  00001	8b ec		 mov	 ebp, esp
  00003	56		 push	 esi
  00004	8b f1		 mov	 esi, ecx
  00006	e8 00 00 00 00	 call	 ??1i3MemoryPool@@UAE@XZ	; i3MemoryPool::~i3MemoryPool
  0000b	f6 45 08 01	 test	 BYTE PTR ___flags$[ebp], 1
  0000f	74 0b		 je	 SHORT $LN5@scalar
  00011	6a 04		 push	 4
  00013	56		 push	 esi
  00014	e8 00 00 00 00	 call	 ??3@YAXPAXI@Z		; operator delete
  00019	83 c4 08	 add	 esp, 8
$LN5@scalar:
  0001c	8b c6		 mov	 eax, esi
  0001e	5e		 pop	 esi
  0001f	5d		 pop	 ebp
  00020	c2 04 00	 ret	 4
??_Gi3MemoryPool@@UAEPAXI@Z ENDP			; i3MemoryPool::`scalar deleting destructor'
_TEXT	ENDS
; Function compile flags: /Ogtp
;	COMDAT ??4i3MemoryPool@@QAEAAV0@ABV0@@Z
_TEXT	SEGMENT
___that$ = 8						; size = 4
??4i3MemoryPool@@QAEAAV0@ABV0@@Z PROC			; i3MemoryPool::operator=, COMDAT
; _this$ = ecx
  00000	8b c1		 mov	 eax, ecx
  00002	c2 04 00	 ret	 4
??4i3MemoryPool@@QAEAAV0@ABV0@@Z ENDP			; i3MemoryPool::operator=
_TEXT	ENDS
; Function compile flags: /Ogtp
;	COMDAT ??0i3MemoryPool@@QAE@ABV0@@Z
_TEXT	SEGMENT
___that$ = 8						; size = 4
??0i3MemoryPool@@QAE@ABV0@@Z PROC			; i3MemoryPool::i3MemoryPool, COMDAT
; _this$ = ecx
  00000	c7 01 00 00 00
	00		 mov	 DWORD PTR [ecx], OFFSET ??_7i3MemoryPool@@6B@
  00006	8b c1		 mov	 eax, ecx
  00008	c2 04 00	 ret	 4
??0i3MemoryPool@@QAE@ABV0@@Z ENDP			; i3MemoryPool::i3MemoryPool
_TEXT	ENDS
; Function compile flags: /Ogtp
; File E:\Proyectos\JuegosOnlineproyectos\PB\pbblow\Piercing Blow Remake\i3Server\src\i3Base\i3PropertyGridDefines.cpp
;	COMDAT ??_Ei3ElementBase@@UAEPAXI@Z
_TEXT	SEGMENT
__$EHRec$ = -12						; size = 12
___flags$ = 8						; size = 4
??_Ei3ElementBase@@UAEPAXI@Z PROC			; i3ElementBase::`vector deleting destructor', COMDAT
; _this$ = ecx
  00000	55		 push	 ebp
  00001	8b ec		 mov	 ebp, esp
  00003	6a ff		 push	 -1
  00005	68 00 00 00 00	 push	 __ehhandler$??_Ei3ElementBase@@UAEPAXI@Z
  0000a	64 a1 00 00 00
	00		 mov	 eax, DWORD PTR fs:0
  00010	50		 push	 eax
  00011	53		 push	 ebx
  00012	56		 push	 esi
  00013	57		 push	 edi
  00014	a1 00 00 00 00	 mov	 eax, DWORD PTR ___security_cookie
  00019	33 c5		 xor	 eax, ebp
  0001b	50		 push	 eax
  0001c	8d 45 f4	 lea	 eax, DWORD PTR __$EHRec$[ebp]
  0001f	64 a3 00 00 00
	00		 mov	 DWORD PTR fs:0, eax
  00025	8b f1		 mov	 esi, ecx
  00027	8b 5d 08	 mov	 ebx, DWORD PTR ___flags$[ebp]
  0002a	8b fb		 mov	 edi, ebx
  0002c	83 e7 01	 and	 edi, 1
  0002f	f6 c3 02	 test	 bl, 2
  00032	74 3f		 je	 SHORT $LN2@vector
  00034	68 00 00 00 00	 push	 OFFSET ??1i3ElementBase@@UAE@XZ ; i3ElementBase::~i3ElementBase
  00039	ff 76 fc	 push	 DWORD PTR [esi-4]
  0003c	8d 5e fc	 lea	 ebx, DWORD PTR [esi-4]
  0003f	6a 10		 push	 16			; 00000010H
  00041	56		 push	 esi
  00042	e8 00 00 00 00	 call	 ??_M@YGXPAXIIP6EX0@Z@Z
  00047	85 ff		 test	 edi, edi
  00049	74 12		 je	 SHORT $LN3@vector
  0004b	8b 0b		 mov	 ecx, DWORD PTR [ebx]
  0004d	c1 e1 04	 shl	 ecx, 4
  00050	83 c1 04	 add	 ecx, 4
  00053	51		 push	 ecx
  00054	53		 push	 ebx
  00055	e8 00 00 00 00	 call	 ??_V@YAXPAXI@Z		; operator delete[]
  0005a	83 c4 08	 add	 esp, 8
$LN3@vector:
  0005d	8b c3		 mov	 eax, ebx
  0005f	8b 4d f4	 mov	 ecx, DWORD PTR __$EHRec$[ebp]
  00062	64 89 0d 00 00
	00 00		 mov	 DWORD PTR fs:0, ecx
  00069	59		 pop	 ecx
  0006a	5f		 pop	 edi
  0006b	5e		 pop	 esi
  0006c	5b		 pop	 ebx
  0006d	8b e5		 mov	 esp, ebp
  0006f	5d		 pop	 ebp
  00070	c2 04 00	 ret	 4
$LN2@vector:
  00073	e8 00 00 00 00	 call	 ??1i3ElementBase@@UAE@XZ ; i3ElementBase::~i3ElementBase
  00078	85 ff		 test	 edi, edi
  0007a	74 1b		 je	 SHORT $LN6@vector
  0007c	f6 c3 04	 test	 bl, 4
  0007f	75 0b		 jne	 SHORT $LN5@vector
  00081	56		 push	 esi
  00082	e8 00 00 00 00	 call	 ??3i3ElementBase@@SAXPAX@Z ; i3ElementBase::operator delete
  00087	83 c4 04	 add	 esp, 4
  0008a	eb 0b		 jmp	 SHORT $LN6@vector
$LN5@vector:

  0008c	6a 10		 push	 16			; 00000010H
  0008e	56		 push	 esi
  0008f	e8 00 00 00 00	 call	 ??3@YAXPAXI@Z		; operator delete
  00094	83 c4 08	 add	 esp, 8
$LN6@vector:
  00097	8b c6		 mov	 eax, esi
  00099	8b 4d f4	 mov	 ecx, DWORD PTR __$EHRec$[ebp]
  0009c	64 89 0d 00 00
	00 00		 mov	 DWORD PTR fs:0, ecx
  000a3	59		 pop	 ecx
  000a4	5f		 pop	 edi
  000a5	5e		 pop	 esi
  000a6	5b		 pop	 ebx
  000a7	8b e5		 mov	 esp, ebp
  000a9	5d		 pop	 ebp
  000aa	c2 04 00	 ret	 4
  000ad	cc		 int	 3
  000ae	cc		 int	 3
  000af	cc		 int	 3
  000b0	cc		 int	 3
  000b1	cc		 int	 3
_TEXT	ENDS
;	COMDAT text$x
text$x	SEGMENT
__ehhandler$??_Ei3ElementBase@@UAEPAXI@Z:
  00000	90		 npad	 1
  00001	90		 npad	 1
  00002	8b 54 24 08	 mov	 edx, DWORD PTR [esp+8]
  00006	8d 42 0c	 lea	 eax, DWORD PTR [edx+12]
  00009	8b 4a f0	 mov	 ecx, DWORD PTR [edx-16]
  0000c	33 c8		 xor	 ecx, eax
  0000e	e8 00 00 00 00	 call	 @__security_check_cookie@4
  00013	b8 00 00 00 00	 mov	 eax, OFFSET __ehfuncinfo$??_Ei3ElementBase@@UAEPAXI@Z
  00018	e9 00 00 00 00	 jmp	 ___CxxFrameHandler3
text$x	ENDS
??_Ei3ElementBase@@UAEPAXI@Z ENDP			; i3ElementBase::`vector deleting destructor'
; Function compile flags: /Ogtp
; File E:\Proyectos\JuegosOnlineproyectos\PB\pbblow\Piercing Blow Remake\i3Server\src\i3Base\i3PropertyGridDefines.cpp
;	COMDAT ??_Gi3ElementBase@@UAEPAXI@Z
_TEXT	SEGMENT
___flags$ = 8						; size = 4
??_Gi3ElementBase@@UAEPAXI@Z PROC			; i3ElementBase::`scalar deleting destructor', COMDAT
; _this$ = ecx
  00000	55		 push	 ebp
  00001	8b ec		 mov	 ebp, esp
  00003	56		 push	 esi
  00004	8b f1		 mov	 esi, ecx
  00006	e8 00 00 00 00	 call	 ??1i3ElementBase@@UAE@XZ ; i3ElementBase::~i3ElementBase
  0000b	8b 45 08	 mov	 eax, DWORD PTR ___flags$[ebp]
  0000e	a8 01		 test	 al, 1
  00010	74 1f		 je	 SHORT $LN10@scalar
  00012	a8 04		 test	 al, 4
  00014	75 10		 jne	 SHORT $LN3@scalar
  00016	56		 push	 esi
  00017	e8 00 00 00 00	 call	 ??3i3ElementBase@@SAXPAX@Z ; i3ElementBase::operator delete
  0001c	83 c4 04	 add	 esp, 4
  0001f	8b c6		 mov	 eax, esi
  00021	5e		 pop	 esi
  00022	5d		 pop	 ebp
  00023	c2 04 00	 ret	 4
$LN3@scalar:

  00026	6a 10		 push	 16			; 00000010H
  00028	56		 push	 esi
  00029	e8 00 00 00 00	 call	 ??3@YAXPAXI@Z		; operator delete
  0002e	83 c4 08	 add	 esp, 8
$LN10@scalar:
  00031	8b c6		 mov	 eax, esi
  00033	5e		 pop	 esi
  00034	5d		 pop	 ebp
  00035	c2 04 00	 ret	 4
??_Gi3ElementBase@@UAEPAXI@Z ENDP			; i3ElementBase::`scalar deleting destructor'
_TEXT	ENDS
; Function compile flags: /Ogtp
;	COMDAT ??4i3ElementBase@@QAEAAV0@ABV0@@Z
_TEXT	SEGMENT
___that$ = 8						; size = 4
??4i3ElementBase@@QAEAAV0@ABV0@@Z PROC			; i3ElementBase::operator=, COMDAT
; _this$ = ecx
  00000	55		 push	 ebp
  00001	8b ec		 mov	 ebp, esp
  00003	8b 55 08	 mov	 edx, DWORD PTR ___that$[ebp]
  00006	8b 42 04	 mov	 eax, DWORD PTR [edx+4]
  00009	89 41 04	 mov	 DWORD PTR [ecx+4], eax
  0000c	8b 42 08	 mov	 eax, DWORD PTR [edx+8]
  0000f	89 41 08	 mov	 DWORD PTR [ecx+8], eax
  00012	8b 42 0c	 mov	 eax, DWORD PTR [edx+12]
  00015	89 41 0c	 mov	 DWORD PTR [ecx+12], eax
  00018	8b c1		 mov	 eax, ecx
  0001a	5d		 pop	 ebp
  0001b	c2 04 00	 ret	 4
??4i3ElementBase@@QAEAAV0@ABV0@@Z ENDP			; i3ElementBase::operator=
_TEXT	ENDS
; Function compile flags: /Ogtp
;	COMDAT ??0i3ElementBase@@QAE@ABV0@@Z
_TEXT	SEGMENT
___that$ = 8						; size = 4
??0i3ElementBase@@QAE@ABV0@@Z PROC			; i3ElementBase::i3ElementBase, COMDAT
; _this$ = ecx
  00000	55		 push	 ebp
  00001	8b ec		 mov	 ebp, esp
  00003	8b 55 08	 mov	 edx, DWORD PTR ___that$[ebp]
  00006	c7 01 00 00 00
	00		 mov	 DWORD PTR [ecx], OFFSET ??_7i3ElementBase@@6B@
  0000c	8b 42 04	 mov	 eax, DWORD PTR [edx+4]
  0000f	89 41 04	 mov	 DWORD PTR [ecx+4], eax
  00012	8b 42 08	 mov	 eax, DWORD PTR [edx+8]
  00015	89 41 08	 mov	 DWORD PTR [ecx+8], eax
  00018	8b 42 0c	 mov	 eax, DWORD PTR [edx+12]
  0001b	89 41 0c	 mov	 DWORD PTR [ecx+12], eax
  0001e	8b c1		 mov	 eax, ecx
  00020	5d		 pop	 ebp
  00021	c2 04 00	 ret	 4
??0i3ElementBase@@QAE@ABV0@@Z ENDP			; i3ElementBase::i3ElementBase
_TEXT	ENDS
; Function compile flags: /Ogtp
; File E:\Proyectos\JuegosOnlineproyectos\PB\pbblow\Piercing Blow Remake\i3Server\include\i3Base\i3ElementBase.h
;	COMDAT ?_internal_SetRefCount@i3ElementBase@@QAEXH@Z
_TEXT	SEGMENT
_cnt$ = 8						; size = 4
?_internal_SetRefCount@i3ElementBase@@QAEXH@Z PROC	; i3ElementBase::_internal_SetRefCount, COMDAT
; _this$ = ecx

; 401  : 	{

  00000	55		 push	 ebp
  00001	8b ec		 mov	 ebp, esp

; 402  : 		m_RefCount = cnt;

  00003	8b 45 08	 mov	 eax, DWORD PTR _cnt$[ebp]
  00006	89 41 04	 mov	 DWORD PTR [ecx+4], eax

; 403  : 	}

  00009	5d		 pop	 ebp
  0000a	c2 04 00	 ret	 4
?_internal_SetRefCount@i3ElementBase@@QAEXH@Z ENDP	; i3ElementBase::_internal_SetRefCount
_TEXT	ENDS
; Function compile flags: /Ogtp
; File E:\Proyectos\JuegosOnlineproyectos\PB\pbblow\Piercing Blow Remake\i3Server\include\i3Base\i3ElementBase.h
;	COMDAT ?AddRef@i3ElementBase@@QAEHXZ
_TEXT	SEGMENT
?AddRef@i3ElementBase@@QAEHXZ PROC			; i3ElementBase::AddRef, COMDAT
; _this$ = ecx

; 392  : 		m_RefCount++;

  00000	ff 41 04	 inc	 DWORD PTR [ecx+4]

; 393  : 
; 394  : 		return m_RefCount;

  00003	8b 41 04	 mov	 eax, DWORD PTR [ecx+4]

; 395  : 	}

  00006	c3		 ret	 0
?AddRef@i3ElementBase@@QAEHXZ ENDP			; i3ElementBase::AddRef
_TEXT	ENDS
; Function compile flags: /Ogtp
; File E:\Proyectos\JuegosOnlineproyectos\PB\pbblow\Piercing Blow Remake\i3Server\include\i3Base\i3ElementBase.h
;	COMDAT ?IsTypeOf@i3ElementBase@@QAE_NPAVi3ClassMeta@@@Z
_TEXT	SEGMENT
_pMeta$ = 8						; size = 4
?IsTypeOf@i3ElementBase@@QAE_NPAVi3ClassMeta@@@Z PROC	; i3ElementBase::IsTypeOf, COMDAT
; _this$ = ecx

; 356  : 	{

  00000	55		 push	 ebp
  00001	8b ec		 mov	 ebp, esp

; 357  : 		return GetMeta()->IsTypeOf( pMeta);

  00003	8b 01		 mov	 eax, DWORD PTR [ecx]
  00005	ff 75 08	 push	 DWORD PTR _pMeta$[ebp]
  00008	ff 10		 call	 DWORD PTR [eax]
  0000a	8b c8		 mov	 ecx, eax
  0000c	e8 00 00 00 00	 call	 ?IsTypeOf@i3ClassMeta@@QAE_NPAV1@@Z ; i3ClassMeta::IsTypeOf

; 358  : 	}

  00011	5d		 pop	 ebp
  00012	c2 04 00	 ret	 4
?IsTypeOf@i3ElementBase@@QAE_NPAVi3ClassMeta@@@Z ENDP	; i3ElementBase::IsTypeOf
_TEXT	ENDS
; Function compile flags: /Ogtp
; File E:\Proyectos\JuegosOnlineproyectos\PB\pbblow\Piercing Blow Remake\i3Server\include\i3Base\i3ElementBase.h
; File E:\Proyectos\JuegosOnlineproyectos\PB\pbblow\Piercing Blow Remake\i3Server\include\i3Base\i3ClassMeta.h
; File E:\Proyectos\JuegosOnlineproyectos\PB\pbblow\Piercing Blow Remake\i3Server\include\i3Base\i3ElementBase.h
;	COMDAT ?IsExactTypeOf@i3ElementBase@@QAE_NPAVi3ClassMeta@@@Z
_TEXT	SEGMENT
_pMeta$ = 8						; size = 4
?IsExactTypeOf@i3ElementBase@@QAE_NPAVi3ClassMeta@@@Z PROC ; i3ElementBase::IsExactTypeOf, COMDAT
; _this$ = ecx

; 351  : 	{

  00000	55		 push	 ebp
  00001	8b ec		 mov	 ebp, esp

; 352  : 		return GetMeta()->IsExactTypeOf( pMeta);

  00003	8b 01		 mov	 eax, DWORD PTR [ecx]
  00005	ff 10		 call	 DWORD PTR [eax]
; File E:\Proyectos\JuegosOnlineproyectos\PB\pbblow\Piercing Blow Remake\i3Server\include\i3Base\i3ClassMeta.h

; 90   : 		return pMeta == this;

  00007	39 45 08	 cmp	 DWORD PTR _pMeta$[ebp], eax
  0000a	0f 94 c0	 sete	 al
; File E:\Proyectos\JuegosOnlineproyectos\PB\pbblow\Piercing Blow Remake\i3Server\include\i3Base\i3ElementBase.h

; 353  : 	}

  0000d	5d		 pop	 ebp
  0000e	c2 04 00	 ret	 4
?IsExactTypeOf@i3ElementBase@@QAE_NPAVi3ClassMeta@@@Z ENDP ; i3ElementBase::IsExactTypeOf
_TEXT	ENDS
; Function compile flags: /Ogtp
; File E:\Proyectos\JuegosOnlineproyectos\PB\pbblow\Piercing Blow Remake\i3Server\include\i3Base\i3ElementBase.h
;	COMDAT ?__GetMemoryPool@i3ElementBase@@QAEPAVi3MemoryPool@@XZ
_TEXT	SEGMENT
?__GetMemoryPool@i3ElementBase@@QAEPAVi3MemoryPool@@XZ PROC ; i3ElementBase::__GetMemoryPool, COMDAT
; _this$ = ecx

; 348  : 	i3MemoryPool *	__GetMemoryPool(void)							{ return m_pPool; }

  00000	8b 41 0c	 mov	 eax, DWORD PTR [ecx+12]
  00003	c3		 ret	 0
?__GetMemoryPool@i3ElementBase@@QAEPAVi3MemoryPool@@XZ ENDP ; i3ElementBase::__GetMemoryPool
_TEXT	ENDS
; Function compile flags: /Ogtp
; File E:\Proyectos\JuegosOnlineproyectos\PB\pbblow\Piercing Blow Remake\i3Server\include\i3Base\i3ElementBase.h
;	COMDAT ?__SetMemoryPool@i3ElementBase@@QAEXPAVi3MemoryPool@@@Z
_TEXT	SEGMENT
_pPool$ = 8						; size = 4
?__SetMemoryPool@i3ElementBase@@QAEXPAVi3MemoryPool@@@Z PROC ; i3ElementBase::__SetMemoryPool, COMDAT
; _this$ = ecx

; 347  : 	void			__SetMemoryPool( i3MemoryPool * pPool)			{ m_pPool = pPool; }

  00000	55		 push	 ebp
  00001	8b ec		 mov	 ebp, esp
  00003	8b 45 08	 mov	 eax, DWORD PTR _pPool$[ebp]
  00006	89 41 0c	 mov	 DWORD PTR [ecx+12], eax
  00009	5d		 pop	 ebp
  0000a	c2 04 00	 ret	 4
?__SetMemoryPool@i3ElementBase@@QAEXPAVi3MemoryPool@@@Z ENDP ; i3ElementBase::__SetMemoryPool
_TEXT	ENDS
; Function compile flags: /Ogtp
; File E:\Proyectos\JuegosOnlineproyectos\PB\pbblow\Piercing Blow Remake\i3Server\include\i3Base\i3ElementBase.h
;	COMDAT ?GetRefCount@i3ElementBase@@QAEHXZ
_TEXT	SEGMENT
?GetRefCount@i3ElementBase@@QAEHXZ PROC			; i3ElementBase::GetRefCount, COMDAT
; _this$ = ecx

; 344  : 		return m_RefCount;

  00000	8b 41 04	 mov	 eax, DWORD PTR [ecx+4]

; 345  : 	}

  00003	c3		 ret	 0
?GetRefCount@i3ElementBase@@QAEHXZ ENDP			; i3ElementBase::GetRefCount
_TEXT	ENDS
; Function compile flags: /Ogtp
; File E:\Proyectos\JuegosOnlineproyectos\PB\pbblow\Piercing Blow Remake\i3Server\include\i3Base\i3ElementBase.h
;	COMDAT ?GetClassMeta@i3ElementBase@@SAPAVi3ClassMeta@@XZ
_TEXT	SEGMENT
?GetClassMeta@i3ElementBase@@SAPAVi3ClassMeta@@XZ PROC	; i3ElementBase::GetClassMeta, COMDAT

; 314  : 	I3_ABSTRACT_CLASS_DEFINE( i3ElementBase);

  00000	a1 00 00 00 00	 mov	 eax, DWORD PTR ?s_pClassMetai3ElementBase@i3ElementBase@@2PAVi3ClassMeta@@A ; i3ElementBase::s_pClassMetai3ElementBase
  00005	c3		 ret	 0
?GetClassMeta@i3ElementBase@@SAPAVi3ClassMeta@@XZ ENDP	; i3ElementBase::GetClassMeta
_TEXT	ENDS
; Function compile flags: /Ogtp
;	COMDAT ??_Ei3ClassMeta@@UAEPAXI@Z
_TEXT	SEGMENT
__$EHRec$ = -12						; size = 12
___flags$ = 8						; size = 4
??_Ei3ClassMeta@@UAEPAXI@Z PROC				; i3ClassMeta::`vector deleting destructor', COMDAT
; _this$ = ecx
  00000	55		 push	 ebp
  00001	8b ec		 mov	 ebp, esp
  00003	6a ff		 push	 -1
  00005	68 00 00 00 00	 push	 __ehhandler$??_Ei3ClassMeta@@UAEPAXI@Z
  0000a	64 a1 00 00 00
	00		 mov	 eax, DWORD PTR fs:0
  00010	50		 push	 eax
  00011	53		 push	 ebx
  00012	56		 push	 esi
  00013	57		 push	 edi
  00014	a1 00 00 00 00	 mov	 eax, DWORD PTR ___security_cookie
  00019	33 c5		 xor	 eax, ebp
  0001b	50		 push	 eax
  0001c	8d 45 f4	 lea	 eax, DWORD PTR __$EHRec$[ebp]
  0001f	64 a3 00 00 00
	00		 mov	 DWORD PTR fs:0, eax
  00025	8b f1		 mov	 esi, ecx
  00027	8b 45 08	 mov	 eax, DWORD PTR ___flags$[ebp]
  0002a	8b f8		 mov	 edi, eax
  0002c	83 e7 01	 and	 edi, 1
  0002f	a8 02		 test	 al, 2
  00031	74 49		 je	 SHORT $LN2@vector
  00033	68 00 00 00 00	 push	 OFFSET ??1i3ClassMeta@@UAE@XZ ; i3ClassMeta::~i3ClassMeta
  00038	ff 76 fc	 push	 DWORD PTR [esi-4]
  0003b	8d 5e fc	 lea	 ebx, DWORD PTR [esi-4]
  0003e	6a 38		 push	 56			; 00000038H
  00040	56		 push	 esi
  00041	e8 00 00 00 00	 call	 ??_M@YGXPAXIIP6EX0@Z@Z
  00046	85 ff		 test	 edi, edi
  00048	74 1c		 je	 SHORT $LN3@vector
  0004a	8b 0b		 mov	 ecx, DWORD PTR [ebx]
  0004c	8d 14 cd 00 00
	00 00		 lea	 edx, DWORD PTR [ecx*8]
  00053	2b d1		 sub	 edx, ecx
  00055	8d 0c d5 04 00
	00 00		 lea	 ecx, DWORD PTR [edx*8+4]
  0005c	51		 push	 ecx
  0005d	53		 push	 ebx
  0005e	e8 00 00 00 00	 call	 ??_V@YAXPAXI@Z		; operator delete[]
  00063	83 c4 08	 add	 esp, 8
$LN3@vector:
  00066	8b c3		 mov	 eax, ebx
  00068	8b 4d f4	 mov	 ecx, DWORD PTR __$EHRec$[ebp]
  0006b	64 89 0d 00 00
	00 00		 mov	 DWORD PTR fs:0, ecx
  00072	59		 pop	 ecx
  00073	5f		 pop	 edi
  00074	5e		 pop	 esi
  00075	5b		 pop	 ebx
  00076	8b e5		 mov	 esp, ebp
  00078	5d		 pop	 ebp
  00079	c2 04 00	 ret	 4
$LN2@vector:
  0007c	e8 00 00 00 00	 call	 ??1i3ClassMeta@@UAE@XZ	; i3ClassMeta::~i3ClassMeta
  00081	85 ff		 test	 edi, edi
  00083	74 0b		 je	 SHORT $LN4@vector
  00085	6a 38		 push	 56			; 00000038H
  00087	56		 push	 esi
  00088	e8 00 00 00 00	 call	 ??3@YAXPAXI@Z		; operator delete
  0008d	83 c4 08	 add	 esp, 8
$LN4@vector:
  00090	8b c6		 mov	 eax, esi
  00092	8b 4d f4	 mov	 ecx, DWORD PTR __$EHRec$[ebp]
  00095	64 89 0d 00 00
	00 00		 mov	 DWORD PTR fs:0, ecx
  0009c	59		 pop	 ecx
  0009d	5f		 pop	 edi
  0009e	5e		 pop	 esi
  0009f	5b		 pop	 ebx
  000a0	8b e5		 mov	 esp, ebp
  000a2	5d		 pop	 ebp
  000a3	c2 04 00	 ret	 4
  000a6	cc		 int	 3
  000a7	cc		 int	 3
  000a8	cc		 int	 3
  000a9	cc		 int	 3
  000aa	cc		 int	 3
_TEXT	ENDS
;	COMDAT text$x
text$x	SEGMENT
__ehhandler$??_Ei3ClassMeta@@UAEPAXI@Z:
  00000	90		 npad	 1
  00001	90		 npad	 1
  00002	8b 54 24 08	 mov	 edx, DWORD PTR [esp+8]
  00006	8d 42 0c	 lea	 eax, DWORD PTR [edx+12]
  00009	8b 4a f0	 mov	 ecx, DWORD PTR [edx-16]
  0000c	33 c8		 xor	 ecx, eax
  0000e	e8 00 00 00 00	 call	 @__security_check_cookie@4
  00013	b8 00 00 00 00	 mov	 eax, OFFSET __ehfuncinfo$??_Ei3ClassMeta@@UAEPAXI@Z
  00018	e9 00 00 00 00	 jmp	 ___CxxFrameHandler3
text$x	ENDS
??_Ei3ClassMeta@@UAEPAXI@Z ENDP				; i3ClassMeta::`vector deleting destructor'
; Function compile flags: /Ogtp
;	COMDAT ??_Gi3ClassMeta@@UAEPAXI@Z
_TEXT	SEGMENT
___flags$ = 8						; size = 4
??_Gi3ClassMeta@@UAEPAXI@Z PROC				; i3ClassMeta::`scalar deleting destructor', COMDAT
; _this$ = ecx
  00000	55		 push	 ebp
  00001	8b ec		 mov	 ebp, esp
  00003	56		 push	 esi
  00004	8b f1		 mov	 esi, ecx
  00006	e8 00 00 00 00	 call	 ??1i3ClassMeta@@UAE@XZ	; i3ClassMeta::~i3ClassMeta
  0000b	f6 45 08 01	 test	 BYTE PTR ___flags$[ebp], 1
  0000f	74 0b		 je	 SHORT $LN5@scalar
  00011	6a 38		 push	 56			; 00000038H
  00013	56		 push	 esi
  00014	e8 00 00 00 00	 call	 ??3@YAXPAXI@Z		; operator delete
  00019	83 c4 08	 add	 esp, 8
$LN5@scalar:
  0001c	8b c6		 mov	 eax, esi
  0001e	5e		 pop	 esi
  0001f	5d		 pop	 ebp
  00020	c2 04 00	 ret	 4
??_Gi3ClassMeta@@UAEPAXI@Z ENDP				; i3ClassMeta::`scalar deleting destructor'
_TEXT	ENDS
; Function compile flags: /Ogtp
;	COMDAT ??4i3ClassMeta@@QAEAAV0@ABV0@@Z
_TEXT	SEGMENT
___that$ = 8						; size = 4
??4i3ClassMeta@@QAEAAV0@ABV0@@Z PROC			; i3ClassMeta::operator=, COMDAT
; _this$ = ecx
  00000	55		 push	 ebp
  00001	8b ec		 mov	 ebp, esp
  00003	8b 55 08	 mov	 edx, DWORD PTR ___that$[ebp]
  00006	8b 42 04	 mov	 eax, DWORD PTR [edx+4]
  00009	89 41 04	 mov	 DWORD PTR [ecx+4], eax
  0000c	8b 42 08	 mov	 eax, DWORD PTR [edx+8]
  0000f	89 41 08	 mov	 DWORD PTR [ecx+8], eax
  00012	8b 42 0c	 mov	 eax, DWORD PTR [edx+12]
  00015	89 41 0c	 mov	 DWORD PTR [ecx+12], eax
  00018	8b 42 10	 mov	 eax, DWORD PTR [edx+16]
  0001b	89 41 10	 mov	 DWORD PTR [ecx+16], eax
  0001e	8b 42 14	 mov	 eax, DWORD PTR [edx+20]
  00021	89 41 14	 mov	 DWORD PTR [ecx+20], eax
  00024	8b 42 18	 mov	 eax, DWORD PTR [edx+24]
  00027	89 41 18	 mov	 DWORD PTR [ecx+24], eax
  0002a	8b 42 1c	 mov	 eax, DWORD PTR [edx+28]
  0002d	89 41 1c	 mov	 DWORD PTR [ecx+28], eax
  00030	8b 42 20	 mov	 eax, DWORD PTR [edx+32]
  00033	89 41 20	 mov	 DWORD PTR [ecx+32], eax
  00036	8b 42 24	 mov	 eax, DWORD PTR [edx+36]
  00039	89 41 24	 mov	 DWORD PTR [ecx+36], eax
  0003c	8b 42 28	 mov	 eax, DWORD PTR [edx+40]
  0003f	89 41 28	 mov	 DWORD PTR [ecx+40], eax
  00042	8b 42 2c	 mov	 eax, DWORD PTR [edx+44]
  00045	89 41 2c	 mov	 DWORD PTR [ecx+44], eax
  00048	8b 42 30	 mov	 eax, DWORD PTR [edx+48]
  0004b	89 41 30	 mov	 DWORD PTR [ecx+48], eax
  0004e	8b 42 34	 mov	 eax, DWORD PTR [edx+52]
  00051	89 41 34	 mov	 DWORD PTR [ecx+52], eax
  00054	8b c1		 mov	 eax, ecx
  00056	5d		 pop	 ebp
  00057	c2 04 00	 ret	 4
??4i3ClassMeta@@QAEAAV0@ABV0@@Z ENDP			; i3ClassMeta::operator=
_TEXT	ENDS
; Function compile flags: /Ogtp
;	COMDAT ??0i3ClassMeta@@QAE@ABV0@@Z
_TEXT	SEGMENT
___that$ = 8						; size = 4
??0i3ClassMeta@@QAE@ABV0@@Z PROC			; i3ClassMeta::i3ClassMeta, COMDAT
; _this$ = ecx
  00000	55		 push	 ebp
  00001	8b ec		 mov	 ebp, esp
  00003	8b 55 08	 mov	 edx, DWORD PTR ___that$[ebp]
  00006	c7 01 00 00 00
	00		 mov	 DWORD PTR [ecx], OFFSET ??_7i3ClassMeta@@6B@
  0000c	8b 42 04	 mov	 eax, DWORD PTR [edx+4]
  0000f	89 41 04	 mov	 DWORD PTR [ecx+4], eax
  00012	8b 42 08	 mov	 eax, DWORD PTR [edx+8]
  00015	89 41 08	 mov	 DWORD PTR [ecx+8], eax
  00018	8b 42 0c	 mov	 eax, DWORD PTR [edx+12]
  0001b	89 41 0c	 mov	 DWORD PTR [ecx+12], eax
  0001e	8b 42 10	 mov	 eax, DWORD PTR [edx+16]
  00021	89 41 10	 mov	 DWORD PTR [ecx+16], eax
  00024	8b 42 14	 mov	 eax, DWORD PTR [edx+20]
  00027	89 41 14	 mov	 DWORD PTR [ecx+20], eax
  0002a	8b 42 18	 mov	 eax, DWORD PTR [edx+24]
  0002d	89 41 18	 mov	 DWORD PTR [ecx+24], eax
  00030	8b 42 1c	 mov	 eax, DWORD PTR [edx+28]
  00033	89 41 1c	 mov	 DWORD PTR [ecx+28], eax
  00036	8b 42 20	 mov	 eax, DWORD PTR [edx+32]
  00039	89 41 20	 mov	 DWORD PTR [ecx+32], eax
  0003c	8b 42 24	 mov	 eax, DWORD PTR [edx+36]
  0003f	89 41 24	 mov	 DWORD PTR [ecx+36], eax
  00042	8b 42 28	 mov	 eax, DWORD PTR [edx+40]
  00045	89 41 28	 mov	 DWORD PTR [ecx+40], eax
  00048	8b 42 2c	 mov	 eax, DWORD PTR [edx+44]
  0004b	89 41 2c	 mov	 DWORD PTR [ecx+44], eax
  0004e	8b 42 30	 mov	 eax, DWORD PTR [edx+48]
  00051	89 41 30	 mov	 DWORD PTR [ecx+48], eax
  00054	8b 42 34	 mov	 eax, DWORD PTR [edx+52]
  00057	89 41 34	 mov	 DWORD PTR [ecx+52], eax
  0005a	8b c1		 mov	 eax, ecx
  0005c	5d		 pop	 ebp
  0005d	c2 04 00	 ret	 4
??0i3ClassMeta@@QAE@ABV0@@Z ENDP			; i3ClassMeta::i3ClassMeta
_TEXT	ENDS
; Function compile flags: /Ogtp
; File E:\Proyectos\JuegosOnlineproyectos\PB\pbblow\Piercing Blow Remake\i3Server\include\i3Base\i3ClassMeta.h
;	COMDAT ?getHashCode@i3ClassMeta@@QAEIXZ
_TEXT	SEGMENT
?getHashCode@i3ClassMeta@@QAEIXZ PROC			; i3ClassMeta::getHashCode, COMDAT
; _this$ = ecx

; 112  : 	UINT32			getHashCode(void)						{ return m_HashCode; }

  00000	8b 41 18	 mov	 eax, DWORD PTR [ecx+24]
  00003	c3		 ret	 0
?getHashCode@i3ClassMeta@@QAEIXZ ENDP			; i3ClassMeta::getHashCode
_TEXT	ENDS
; Function compile flags: /Ogtp
; File E:\Proyectos\JuegosOnlineproyectos\PB\pbblow\Piercing Blow Remake\i3Server\include\i3Base\i3ClassMeta.h
;	COMDAT ?GetBaseClassMeta@i3ClassMeta@@QAEPAV1@XZ
_TEXT	SEGMENT
?GetBaseClassMeta@i3ClassMeta@@QAEPAV1@XZ PROC		; i3ClassMeta::GetBaseClassMeta, COMDAT
; _this$ = ecx

; 107  : 	i3ClassMeta *	GetBaseClassMeta(void)					{ return m_pBaseClass; }

  00000	8b 41 1c	 mov	 eax, DWORD PTR [ecx+28]
  00003	c3		 ret	 0
?GetBaseClassMeta@i3ClassMeta@@QAEPAV1@XZ ENDP		; i3ClassMeta::GetBaseClassMeta
_TEXT	ENDS
; Function compile flags: /Ogtp
; File E:\Proyectos\JuegosOnlineproyectos\PB\pbblow\Piercing Blow Remake\i3Server\include\i3Base\i3ClassMeta.h
;	COMDAT ?IsConcreteClass@i3ClassMeta@@QAEHXZ
_TEXT	SEGMENT
?IsConcreteClass@i3ClassMeta@@QAEHXZ PROC		; i3ClassMeta::IsConcreteClass, COMDAT
; _this$ = ecx

; 102  : 	BOOL			IsStyle( UINT32 style)					{ return (m_Style & style) == style; }

  00000	8b 41 14	 mov	 eax, DWORD PTR [ecx+20]
  00003	d1 e8		 shr	 eax, 1
  00005	83 e0 01	 and	 eax, 1

; 105  : 	BOOL			IsConcreteClass(void)					{ return IsStyle( I3_CLASSMETA_STYLE_CONCRETE); }

  00008	c3		 ret	 0
?IsConcreteClass@i3ClassMeta@@QAEHXZ ENDP		; i3ClassMeta::IsConcreteClass
_TEXT	ENDS
; Function compile flags: /Ogtp
; File E:\Proyectos\JuegosOnlineproyectos\PB\pbblow\Piercing Blow Remake\i3Server\include\i3Base\i3ClassMeta.h
;	COMDAT ?IsAbstractClass@i3ClassMeta@@QAEHXZ
_TEXT	SEGMENT
?IsAbstractClass@i3ClassMeta@@QAEHXZ PROC		; i3ClassMeta::IsAbstractClass, COMDAT
; _this$ = ecx

; 102  : 	BOOL			IsStyle( UINT32 style)					{ return (m_Style & style) == style; }

  00000	8b 41 14	 mov	 eax, DWORD PTR [ecx+20]
  00003	83 e0 01	 and	 eax, 1

; 104  : 	BOOL			IsAbstractClass(void)					{ return IsStyle( I3_CLASSMETA_STYLE_ABSTRACT); }

  00006	c3		 ret	 0
?IsAbstractClass@i3ClassMeta@@QAEHXZ ENDP		; i3ClassMeta::IsAbstractClass
_TEXT	ENDS
; Function compile flags: /Ogtp
; File E:\Proyectos\JuegosOnlineproyectos\PB\pbblow\Piercing Blow Remake\i3Server\include\i3Base\i3ClassMeta.h
;	COMDAT ?IsStyle@i3ClassMeta@@QAEHI@Z
_TEXT	SEGMENT
_style$ = 8						; size = 4
?IsStyle@i3ClassMeta@@QAEHI@Z PROC			; i3ClassMeta::IsStyle, COMDAT
; _this$ = ecx

; 102  : 	BOOL			IsStyle( UINT32 style)					{ return (m_Style & style) == style; }

  00000	55		 push	 ebp
  00001	8b ec		 mov	 ebp, esp
  00003	8b 51 14	 mov	 edx, DWORD PTR [ecx+20]
  00006	33 c0		 xor	 eax, eax
  00008	23 55 08	 and	 edx, DWORD PTR _style$[ebp]
  0000b	3b 55 08	 cmp	 edx, DWORD PTR _style$[ebp]
  0000e	0f 94 c0	 sete	 al
  00011	5d		 pop	 ebp
  00012	c2 04 00	 ret	 4
?IsStyle@i3ClassMeta@@QAEHI@Z ENDP			; i3ClassMeta::IsStyle
_TEXT	ENDS
; Function compile flags: /Ogtp
; File E:\Proyectos\JuegosOnlineproyectos\PB\pbblow\Piercing Blow Remake\i3Server\include\i3Base\i3ClassMeta.h
;	COMDAT ?RemoveStyle@i3ClassMeta@@QAEXI@Z
_TEXT	SEGMENT
_style$ = 8						; size = 4
?RemoveStyle@i3ClassMeta@@QAEXI@Z PROC			; i3ClassMeta::RemoveStyle, COMDAT
; _this$ = ecx

; 101  : 	void			RemoveStyle( UINT32 style)				{ m_Style &= ~style; }

  00000	55		 push	 ebp
  00001	8b ec		 mov	 ebp, esp
  00003	8b 45 08	 mov	 eax, DWORD PTR _style$[ebp]
  00006	f7 d0		 not	 eax
  00008	21 41 14	 and	 DWORD PTR [ecx+20], eax
  0000b	5d		 pop	 ebp
  0000c	c2 04 00	 ret	 4
?RemoveStyle@i3ClassMeta@@QAEXI@Z ENDP			; i3ClassMeta::RemoveStyle
_TEXT	ENDS
; Function compile flags: /Ogtp
; File E:\Proyectos\JuegosOnlineproyectos\PB\pbblow\Piercing Blow Remake\i3Server\include\i3Base\i3ClassMeta.h
;	COMDAT ?AddStyle@i3ClassMeta@@QAEXI@Z
_TEXT	SEGMENT
_style$ = 8						; size = 4
?AddStyle@i3ClassMeta@@QAEXI@Z PROC			; i3ClassMeta::AddStyle, COMDAT
; _this$ = ecx

; 100  : 	void			AddStyle( UINT32 style)					{ m_Style |= style; }

  00000	55		 push	 ebp
  00001	8b ec		 mov	 ebp, esp
  00003	8b 45 08	 mov	 eax, DWORD PTR _style$[ebp]
  00006	09 41 14	 or	 DWORD PTR [ecx+20], eax
  00009	5d		 pop	 ebp
  0000a	c2 04 00	 ret	 4
?AddStyle@i3ClassMeta@@QAEXI@Z ENDP			; i3ClassMeta::AddStyle
_TEXT	ENDS
; Function compile flags: /Ogtp
; File E:\Proyectos\JuegosOnlineproyectos\PB\pbblow\Piercing Blow Remake\i3Server\include\i3Base\i3ClassMeta.h
;	COMDAT ?GetStyle@i3ClassMeta@@QAEIXZ
_TEXT	SEGMENT
?GetStyle@i3ClassMeta@@QAEIXZ PROC			; i3ClassMeta::GetStyle, COMDAT
; _this$ = ecx

; 99   : 	UINT32			GetStyle(void)							{ return m_Style; }

  00000	8b 41 14	 mov	 eax, DWORD PTR [ecx+20]
  00003	c3		 ret	 0
?GetStyle@i3ClassMeta@@QAEIXZ ENDP			; i3ClassMeta::GetStyle
_TEXT	ENDS
; Function compile flags: /Ogtp
; File E:\Proyectos\JuegosOnlineproyectos\PB\pbblow\Piercing Blow Remake\i3Server\include\i3Base\i3ClassMeta.h
;	COMDAT ?SetStyle@i3ClassMeta@@QAEXI@Z
_TEXT	SEGMENT
_style$ = 8						; size = 4
?SetStyle@i3ClassMeta@@QAEXI@Z PROC			; i3ClassMeta::SetStyle, COMDAT
; _this$ = ecx

; 98   : 	void			SetStyle( UINT32 style)					{ m_Style = style; }

  00000	55		 push	 ebp
  00001	8b ec		 mov	 ebp, esp
  00003	8b 45 08	 mov	 eax, DWORD PTR _style$[ebp]
  00006	89 41 14	 mov	 DWORD PTR [ecx+20], eax
  00009	5d		 pop	 ebp
  0000a	c2 04 00	 ret	 4
?SetStyle@i3ClassMeta@@QAEXI@Z ENDP			; i3ClassMeta::SetStyle
_TEXT	ENDS
; Function compile flags: /Ogtp
; File E:\Proyectos\JuegosOnlineproyectos\PB\pbblow\Piercing Blow Remake\i3Server\include\i3Base\i3ClassMeta.h
;	COMDAT ?IsExactTypeOf@i3ClassMeta@@QAE_NPAV1@@Z
_TEXT	SEGMENT
_pMeta$ = 8						; size = 4
?IsExactTypeOf@i3ClassMeta@@QAE_NPAV1@@Z PROC		; i3ClassMeta::IsExactTypeOf, COMDAT
; _this$ = ecx

; 89   : 	{

  00000	55		 push	 ebp
  00001	8b ec		 mov	 ebp, esp

; 90   : 		return pMeta == this;

  00003	39 4d 08	 cmp	 DWORD PTR _pMeta$[ebp], ecx
  00006	0f 94 c0	 sete	 al

; 91   : 	}

  00009	5d		 pop	 ebp
  0000a	c2 04 00	 ret	 4
?IsExactTypeOf@i3ClassMeta@@QAE_NPAV1@@Z ENDP		; i3ClassMeta::IsExactTypeOf
_TEXT	ENDS
; Function compile flags: /Ogtp
; File E:\Proyectos\JuegosOnlineproyectos\PB\pbblow\Piercing Blow Remake\i3Server\include\i3Base\i3ClassMeta.h
;	COMDAT ?GetClassNameA@i3ClassMeta@@QAEPADXZ
_TEXT	SEGMENT
?GetClassNameA@i3ClassMeta@@QAEPADXZ PROC		; i3ClassMeta::GetClassNameA, COMDAT
; _this$ = ecx

; 83   : 		return m_pszClassName;

  00000	8b 41 0c	 mov	 eax, DWORD PTR [ecx+12]

; 84   : 	}

  00003	c3		 ret	 0
?GetClassNameA@i3ClassMeta@@QAEPADXZ ENDP		; i3ClassMeta::GetClassNameA
_TEXT	ENDS
; Function compile flags: /Ogtp
; File E:\Proyectos\JuegosOnlineproyectos\PB\pbblow\Piercing Blow Remake\i3Server\include\i3Base\i3ClassMeta.h
;	COMDAT ?GetClassSize@i3ClassMeta@@QAEIXZ
_TEXT	SEGMENT
?GetClassSize@i3ClassMeta@@QAEIXZ PROC			; i3ClassMeta::GetClassSize, COMDAT
; _this$ = ecx

; 78   : 		return m_ClassSize;

  00000	8b 41 08	 mov	 eax, DWORD PTR [ecx+8]

; 79   : 	}

  00003	c3		 ret	 0
?GetClassSize@i3ClassMeta@@QAEIXZ ENDP			; i3ClassMeta::GetClassSize
_TEXT	ENDS
; Function compile flags: /Ogtp
; File E:\Proyectos\JuegosOnlineproyectos\PB\pbblow\Piercing Blow Remake\i3Server\include\i3Base\i3ClassMeta.h
;	COMDAT ?SetMemoryPool@i3ClassMeta@@QAEXPAVi3MemoryPool@@@Z
_TEXT	SEGMENT
_pPool$ = 8						; size = 4
?SetMemoryPool@i3ClassMeta@@QAEXPAVi3MemoryPool@@@Z PROC ; i3ClassMeta::SetMemoryPool, COMDAT
; _this$ = ecx

; 66   : 	void			SetMemoryPool( i3MemoryPool * pPool)		{ m_pPool = pPool; }

  00000	55		 push	 ebp
  00001	8b ec		 mov	 ebp, esp
  00003	8b 45 08	 mov	 eax, DWORD PTR _pPool$[ebp]
  00006	89 41 34	 mov	 DWORD PTR [ecx+52], eax
  00009	5d		 pop	 ebp
  0000a	c2 04 00	 ret	 4
?SetMemoryPool@i3ClassMeta@@QAEXPAVi3MemoryPool@@@Z ENDP ; i3ClassMeta::SetMemoryPool
_TEXT	ENDS
; Function compile flags: /Ogtp
; File E:\Proyectos\JuegosOnlineproyectos\PB\pbblow\Piercing Blow Remake\i3Server\include\i3Base\i3ClassMeta.h
;	COMDAT ?GetMemoryPool@i3ClassMeta@@QAEPAVi3MemoryPool@@XZ
_TEXT	SEGMENT
?GetMemoryPool@i3ClassMeta@@QAEPAVi3MemoryPool@@XZ PROC	; i3ClassMeta::GetMemoryPool, COMDAT
; _this$ = ecx

; 65   : 	i3MemoryPool *	GetMemoryPool(void)							{ return m_pPool; }

  00000	8b 41 34	 mov	 eax, DWORD PTR [ecx+52]
  00003	c3		 ret	 0
?GetMemoryPool@i3ClassMeta@@QAEPAVi3MemoryPool@@XZ ENDP	; i3ClassMeta::GetMemoryPool
_TEXT	ENDS
; Function compile flags: /Ogtp
; File E:\Proyectos\JuegosOnlineproyectos\PB\pbblow\Piercing Blow Remake\i3Server\src\i3Base\i3PropertyGridDefines.cpp
; File E:\Proyectos\JuegosOnlineproyectos\PB\pbblow\Piercing Blow Remake\i3Server\include\i3Base\i3PropertyGridDefines.h
; File E:\Proyectos\JuegosOnlineproyectos\PB\pbblow\Piercing Blow Remake\i3Server\src\i3Base\i3PropertyGridDefines.cpp
; File E:\Proyectos\JuegosOnlineproyectos\PB\pbblow\Piercing Blow Remake\i3Server\include\i3Base\i3PropertyGridDefines.h
; File E:\Proyectos\JuegosOnlineproyectos\PB\pbblow\Piercing Blow Remake\i3Server\src\i3Base\i3PropertyGridDefines.cpp
; File E:\Proyectos\JuegosOnlineproyectos\PB\pbblow\Piercing Blow Remake\i3Server\include\i3Base\i3PropertyGridDefines.h
; File E:\Proyectos\JuegosOnlineproyectos\PB\pbblow\Piercing Blow Remake\i3Server\src\i3Base\i3PropertyGridDefines.cpp
;	COMDAT ?AddMFCProperty_Image@@YAXPAVi3List@@PADIPBD2@Z
_TEXT	SEGMENT
_pList$ = 8						; size = 4
_pFileName$ = 12					; size = 4
_nBufSize$ = 16						; size = 4
_pszName$ = 20						; size = 4
_pszDesc$ = 24						; size = 4
?AddMFCProperty_Image@@YAXPAVi3List@@PADIPBD2@Z PROC	; AddMFCProperty_Image, COMDAT

; 176  : {

  00000	55		 push	 ebp
  00001	8b ec		 mov	 ebp, esp

; 181  : 	PROPERTYINFO* pProp = (PROPERTYINFO*) i3MemAlloc( sizeof( PROPERTYINFO));

  00003	68 b5 00 00 00	 push	 181			; 000000b5H
  00008	68 00 00 00 00	 push	 OFFSET ??_C@_0HA@MBFIGEMP@E?3?2Proyectos?2JuegosOnlineproyec@
  0000d	6a 10		 push	 16			; 00000010H
  0000f	6a 00		 push	 0
  00011	6a 18		 push	 24			; 00000018H
  00013	e8 00 00 00 00	 call	 ?AllocTool@i3mem@@YAPAXHHHPBDH@Z ; i3mem::AllocTool
; File E:\Proyectos\JuegosOnlineproyectos\PB\pbblow\Piercing Blow Remake\i3Server\include\i3Base\i3PropertyGridDefines.h

; 64   : 		m_pData = pData;

  00018	8b 4d 0c	 mov	 ecx, DWORD PTR _pFileName$[ebp]
; File E:\Proyectos\JuegosOnlineproyectos\PB\pbblow\Piercing Blow Remake\i3Server\src\i3Base\i3PropertyGridDefines.cpp

; 181  : 	PROPERTYINFO* pProp = (PROPERTYINFO*) i3MemAlloc( sizeof( PROPERTYINFO));

  0001b	8b d0		 mov	 edx, eax
  0001d	83 c4 14	 add	 esp, 20			; 00000014H
; File E:\Proyectos\JuegosOnlineproyectos\PB\pbblow\Piercing Blow Remake\i3Server\include\i3Base\i3PropertyGridDefines.h

; 64   : 		m_pData = pData;

  00020	89 4a 04	 mov	 DWORD PTR [edx+4], ecx

; 65   : 		m_pszName = pszName;

  00023	8b 4d 14	 mov	 ecx, DWORD PTR _pszName$[ebp]
  00026	89 4a 08	 mov	 DWORD PTR [edx+8], ecx

; 66   : 		m_pszDesc = pszDesc;

  00029	8b 4d 18	 mov	 ecx, DWORD PTR _pszDesc$[ebp]
  0002c	89 4a 0c	 mov	 DWORD PTR [edx+12], ecx

; 67   : 		m_nFlag = flag;

  0002f	8b 4d 10	 mov	 ecx, DWORD PTR _nBufSize$[ebp]
  00032	89 4a 10	 mov	 DWORD PTR [edx+16], ecx
; File E:\Proyectos\JuegosOnlineproyectos\PB\pbblow\Piercing Blow Remake\i3Server\src\i3Base\i3PropertyGridDefines.cpp

; 184  : 	pList->Add( pProp);

  00035	8b 4d 08	 mov	 ecx, DWORD PTR _pList$[ebp]
; File E:\Proyectos\JuegosOnlineproyectos\PB\pbblow\Piercing Blow Remake\i3Server\include\i3Base\i3PropertyGridDefines.h

; 63   : 		m_eType = eType;

  00038	c7 02 0c 00 00
	00		 mov	 DWORD PTR [edx], 12	; 0000000cH

; 68   : 		m_pUserData = pUserData;

  0003e	c7 42 14 00 00
	00 00		 mov	 DWORD PTR [edx+20], 0
; File E:\Proyectos\JuegosOnlineproyectos\PB\pbblow\Piercing Blow Remake\i3Server\src\i3Base\i3PropertyGridDefines.cpp

; 184  : 	pList->Add( pProp);

  00045	52		 push	 edx
  00046	8b 01		 mov	 eax, DWORD PTR [ecx]
  00048	ff 50 10	 call	 DWORD PTR [eax+16]

; 185  : }

  0004b	5d		 pop	 ebp
  0004c	c3		 ret	 0
?AddMFCProperty_Image@@YAXPAVi3List@@PADIPBD2@Z ENDP	; AddMFCProperty_Image
_TEXT	ENDS
; Function compile flags: /Ogtp
; File E:\Proyectos\JuegosOnlineproyectos\PB\pbblow\Piercing Blow Remake\i3Server\src\i3Base\i3PropertyGridDefines.cpp
; File E:\Proyectos\JuegosOnlineproyectos\PB\pbblow\Piercing Blow Remake\i3Server\include\i3Base\i3PropertyGridDefines.h
; File E:\Proyectos\JuegosOnlineproyectos\PB\pbblow\Piercing Blow Remake\i3Server\src\i3Base\i3PropertyGridDefines.cpp
; File E:\Proyectos\JuegosOnlineproyectos\PB\pbblow\Piercing Blow Remake\i3Server\include\i3Base\i3PropertyGridDefines.h
; File E:\Proyectos\JuegosOnlineproyectos\PB\pbblow\Piercing Blow Remake\i3Server\src\i3Base\i3PropertyGridDefines.cpp
; File E:\Proyectos\JuegosOnlineproyectos\PB\pbblow\Piercing Blow Remake\i3Server\include\i3Base\i3PropertyGridDefines.h
; File E:\Proyectos\JuegosOnlineproyectos\PB\pbblow\Piercing Blow Remake\i3Server\src\i3Base\i3PropertyGridDefines.cpp
;	COMDAT ?AddMFCProperty_Button@@YAXPAVi3List@@P6AXXZPBDPAD2@Z
_TEXT	SEGMENT
_pList$ = 8						; size = 4
_pProc$ = 12						; size = 4
_pszName$ = 16						; size = 4
_pBtnName$ = 20						; size = 4
_pszDesc$ = 24						; size = 4
?AddMFCProperty_Button@@YAXPAVi3List@@P6AXXZPBDPAD2@Z PROC ; AddMFCProperty_Button, COMDAT

; 162  : {

  00000	55		 push	 ebp
  00001	8b ec		 mov	 ebp, esp

; 168  : 	PROPERTYINFO* pProp = (PROPERTYINFO*) i3MemAlloc( sizeof( PROPERTYINFO));

  00003	68 a8 00 00 00	 push	 168			; 000000a8H
  00008	68 00 00 00 00	 push	 OFFSET ??_C@_0HA@MBFIGEMP@E?3?2Proyectos?2JuegosOnlineproyec@
  0000d	6a 10		 push	 16			; 00000010H
  0000f	6a 00		 push	 0
  00011	6a 18		 push	 24			; 00000018H
  00013	e8 00 00 00 00	 call	 ?AllocTool@i3mem@@YAPAXHHHPBDH@Z ; i3mem::AllocTool
; File E:\Proyectos\JuegosOnlineproyectos\PB\pbblow\Piercing Blow Remake\i3Server\include\i3Base\i3PropertyGridDefines.h

; 64   : 		m_pData = pData;

  00018	8b 4d 14	 mov	 ecx, DWORD PTR _pBtnName$[ebp]
; File E:\Proyectos\JuegosOnlineproyectos\PB\pbblow\Piercing Blow Remake\i3Server\src\i3Base\i3PropertyGridDefines.cpp

; 168  : 	PROPERTYINFO* pProp = (PROPERTYINFO*) i3MemAlloc( sizeof( PROPERTYINFO));

  0001b	8b d0		 mov	 edx, eax
  0001d	83 c4 14	 add	 esp, 20			; 00000014H
; File E:\Proyectos\JuegosOnlineproyectos\PB\pbblow\Piercing Blow Remake\i3Server\include\i3Base\i3PropertyGridDefines.h

; 64   : 		m_pData = pData;

  00020	89 4a 04	 mov	 DWORD PTR [edx+4], ecx

; 65   : 		m_pszName = pszName;

  00023	8b 4d 10	 mov	 ecx, DWORD PTR _pszName$[ebp]
  00026	89 4a 08	 mov	 DWORD PTR [edx+8], ecx

; 66   : 		m_pszDesc = pszDesc;

  00029	8b 4d 18	 mov	 ecx, DWORD PTR _pszDesc$[ebp]
  0002c	89 4a 0c	 mov	 DWORD PTR [edx+12], ecx

; 68   : 		m_pUserData = pUserData;

  0002f	8b 4d 0c	 mov	 ecx, DWORD PTR _pProc$[ebp]
  00032	89 4a 14	 mov	 DWORD PTR [edx+20], ecx
; File E:\Proyectos\JuegosOnlineproyectos\PB\pbblow\Piercing Blow Remake\i3Server\src\i3Base\i3PropertyGridDefines.cpp

; 171  : 	pList->Add( pProp);

  00035	8b 4d 08	 mov	 ecx, DWORD PTR _pList$[ebp]
; File E:\Proyectos\JuegosOnlineproyectos\PB\pbblow\Piercing Blow Remake\i3Server\include\i3Base\i3PropertyGridDefines.h

; 63   : 		m_eType = eType;

  00038	c7 02 0b 00 00
	00		 mov	 DWORD PTR [edx], 11	; 0000000bH

; 67   : 		m_nFlag = flag;

  0003e	c7 42 10 00 00
	00 00		 mov	 DWORD PTR [edx+16], 0
; File E:\Proyectos\JuegosOnlineproyectos\PB\pbblow\Piercing Blow Remake\i3Server\src\i3Base\i3PropertyGridDefines.cpp

; 171  : 	pList->Add( pProp);

  00045	52		 push	 edx
  00046	8b 01		 mov	 eax, DWORD PTR [ecx]
  00048	ff 50 10	 call	 DWORD PTR [eax+16]

; 172  : }

  0004b	5d		 pop	 ebp
  0004c	c3		 ret	 0
?AddMFCProperty_Button@@YAXPAVi3List@@P6AXXZPBDPAD2@Z ENDP ; AddMFCProperty_Button
_TEXT	ENDS
; Function compile flags: /Ogtp
; File E:\Proyectos\JuegosOnlineproyectos\PB\pbblow\Piercing Blow Remake\i3Server\src\i3Base\i3PropertyGridDefines.cpp
; File E:\Proyectos\JuegosOnlineproyectos\PB\pbblow\Piercing Blow Remake\i3Server\include\i3Base\i3PropertyGridDefines.h
; File E:\Proyectos\JuegosOnlineproyectos\PB\pbblow\Piercing Blow Remake\i3Server\src\i3Base\i3PropertyGridDefines.cpp
; File E:\Proyectos\JuegosOnlineproyectos\PB\pbblow\Piercing Blow Remake\i3Server\include\i3Base\i3PropertyGridDefines.h
; File E:\Proyectos\JuegosOnlineproyectos\PB\pbblow\Piercing Blow Remake\i3Server\src\i3Base\i3PropertyGridDefines.cpp
; File E:\Proyectos\JuegosOnlineproyectos\PB\pbblow\Piercing Blow Remake\i3Server\include\i3Base\i3PropertyGridDefines.h
; File E:\Proyectos\JuegosOnlineproyectos\PB\pbblow\Piercing Blow Remake\i3Server\src\i3Base\i3PropertyGridDefines.cpp
;	COMDAT ?AddMFCProperty_File@@YAXPAVi3List@@PADIPBD2@Z
_TEXT	SEGMENT
_pList$ = 8						; size = 4
_pFileName$ = 12					; size = 4
_nBufSize$ = 16						; size = 4
_pszName$ = 20						; size = 4
_pszDesc$ = 24						; size = 4
?AddMFCProperty_File@@YAXPAVi3List@@PADIPBD2@Z PROC	; AddMFCProperty_File, COMDAT

; 149  : {

  00000	55		 push	 ebp
  00001	8b ec		 mov	 ebp, esp

; 154  : 	PROPERTYINFO* pProp = (PROPERTYINFO*) i3MemAlloc( sizeof( PROPERTYINFO));

  00003	68 9a 00 00 00	 push	 154			; 0000009aH
  00008	68 00 00 00 00	 push	 OFFSET ??_C@_0HA@MBFIGEMP@E?3?2Proyectos?2JuegosOnlineproyec@
  0000d	6a 10		 push	 16			; 00000010H
  0000f	6a 00		 push	 0
  00011	6a 18		 push	 24			; 00000018H
  00013	e8 00 00 00 00	 call	 ?AllocTool@i3mem@@YAPAXHHHPBDH@Z ; i3mem::AllocTool
; File E:\Proyectos\JuegosOnlineproyectos\PB\pbblow\Piercing Blow Remake\i3Server\include\i3Base\i3PropertyGridDefines.h

; 64   : 		m_pData = pData;

  00018	8b 4d 0c	 mov	 ecx, DWORD PTR _pFileName$[ebp]
; File E:\Proyectos\JuegosOnlineproyectos\PB\pbblow\Piercing Blow Remake\i3Server\src\i3Base\i3PropertyGridDefines.cpp

; 154  : 	PROPERTYINFO* pProp = (PROPERTYINFO*) i3MemAlloc( sizeof( PROPERTYINFO));

  0001b	8b d0		 mov	 edx, eax
  0001d	83 c4 14	 add	 esp, 20			; 00000014H
; File E:\Proyectos\JuegosOnlineproyectos\PB\pbblow\Piercing Blow Remake\i3Server\include\i3Base\i3PropertyGridDefines.h

; 64   : 		m_pData = pData;

  00020	89 4a 04	 mov	 DWORD PTR [edx+4], ecx

; 65   : 		m_pszName = pszName;

  00023	8b 4d 14	 mov	 ecx, DWORD PTR _pszName$[ebp]
  00026	89 4a 08	 mov	 DWORD PTR [edx+8], ecx

; 66   : 		m_pszDesc = pszDesc;

  00029	8b 4d 18	 mov	 ecx, DWORD PTR _pszDesc$[ebp]
  0002c	89 4a 0c	 mov	 DWORD PTR [edx+12], ecx

; 67   : 		m_nFlag = flag;

  0002f	8b 4d 10	 mov	 ecx, DWORD PTR _nBufSize$[ebp]
  00032	89 4a 10	 mov	 DWORD PTR [edx+16], ecx
; File E:\Proyectos\JuegosOnlineproyectos\PB\pbblow\Piercing Blow Remake\i3Server\src\i3Base\i3PropertyGridDefines.cpp

; 157  : 	pList->Add( pProp);

  00035	8b 4d 08	 mov	 ecx, DWORD PTR _pList$[ebp]
; File E:\Proyectos\JuegosOnlineproyectos\PB\pbblow\Piercing Blow Remake\i3Server\include\i3Base\i3PropertyGridDefines.h

; 63   : 		m_eType = eType;

  00038	c7 02 0a 00 00
	00		 mov	 DWORD PTR [edx], 10	; 0000000aH

; 68   : 		m_pUserData = pUserData;

  0003e	c7 42 14 00 00
	00 00		 mov	 DWORD PTR [edx+20], 0
; File E:\Proyectos\JuegosOnlineproyectos\PB\pbblow\Piercing Blow Remake\i3Server\src\i3Base\i3PropertyGridDefines.cpp

; 157  : 	pList->Add( pProp);

  00045	52		 push	 edx
  00046	8b 01		 mov	 eax, DWORD PTR [ecx]
  00048	ff 50 10	 call	 DWORD PTR [eax+16]

; 158  : }

  0004b	5d		 pop	 ebp
  0004c	c3		 ret	 0
?AddMFCProperty_File@@YAXPAVi3List@@PADIPBD2@Z ENDP	; AddMFCProperty_File
_TEXT	ENDS
; Function compile flags: /Ogtp
; File E:\Proyectos\JuegosOnlineproyectos\PB\pbblow\Piercing Blow Remake\i3Server\src\i3Base\i3PropertyGridDefines.cpp
; File E:\Proyectos\JuegosOnlineproyectos\PB\pbblow\Piercing Blow Remake\i3Server\include\i3Base\i3PropertyGridDefines.h
; File E:\Proyectos\JuegosOnlineproyectos\PB\pbblow\Piercing Blow Remake\i3Server\src\i3Base\i3PropertyGridDefines.cpp
; File E:\Proyectos\JuegosOnlineproyectos\PB\pbblow\Piercing Blow Remake\i3Server\include\i3Base\i3PropertyGridDefines.h
; File E:\Proyectos\JuegosOnlineproyectos\PB\pbblow\Piercing Blow Remake\i3Server\src\i3Base\i3PropertyGridDefines.cpp
; File E:\Proyectos\JuegosOnlineproyectos\PB\pbblow\Piercing Blow Remake\i3Server\include\i3Base\i3PropertyGridDefines.h
; File E:\Proyectos\JuegosOnlineproyectos\PB\pbblow\Piercing Blow Remake\i3Server\src\i3Base\i3PropertyGridDefines.cpp
;	COMDAT ?AddMFCProperty_Combo@@YAXPAVi3List@@PAVi3StringList@@PAHPBD3_N@Z
_TEXT	SEGMENT
_pList$ = 8						; size = 4
_pStrList$ = 12						; size = 4
_pIdx$ = 16						; size = 4
_pszName$ = 20						; size = 4
_pszDesc$ = 24						; size = 4
_bNoEdit$ = 28						; size = 1
?AddMFCProperty_Combo@@YAXPAVi3List@@PAVi3StringList@@PAHPBD3_N@Z PROC ; AddMFCProperty_Combo, COMDAT

; 135  : {

  00000	55		 push	 ebp
  00001	8b ec		 mov	 ebp, esp

; 138  : 	PROPERTYINFO* pProp = (PROPERTYINFO*) i3MemAlloc( sizeof( PROPERTYINFO));

  00003	68 8a 00 00 00	 push	 138			; 0000008aH
  00008	68 00 00 00 00	 push	 OFFSET ??_C@_0HA@MBFIGEMP@E?3?2Proyectos?2JuegosOnlineproyec@
  0000d	6a 10		 push	 16			; 00000010H
  0000f	6a 00		 push	 0
  00011	6a 18		 push	 24			; 00000018H
  00013	e8 00 00 00 00	 call	 ?AllocTool@i3mem@@YAPAXHHHPBDH@Z ; i3mem::AllocTool
; File E:\Proyectos\JuegosOnlineproyectos\PB\pbblow\Piercing Blow Remake\i3Server\include\i3Base\i3PropertyGridDefines.h

; 64   : 		m_pData = pData;

  00018	8b 4d 10	 mov	 ecx, DWORD PTR _pIdx$[ebp]
; File E:\Proyectos\JuegosOnlineproyectos\PB\pbblow\Piercing Blow Remake\i3Server\src\i3Base\i3PropertyGridDefines.cpp

; 138  : 	PROPERTYINFO* pProp = (PROPERTYINFO*) i3MemAlloc( sizeof( PROPERTYINFO));

  0001b	8b d0		 mov	 edx, eax
; File E:\Proyectos\JuegosOnlineproyectos\PB\pbblow\Piercing Blow Remake\i3Server\include\i3Base\i3PropertyGridDefines.h

; 68   : 		m_pUserData = pUserData;

  0001d	8b 45 0c	 mov	 eax, DWORD PTR _pStrList$[ebp]
; File E:\Proyectos\JuegosOnlineproyectos\PB\pbblow\Piercing Blow Remake\i3Server\src\i3Base\i3PropertyGridDefines.cpp

; 138  : 	PROPERTYINFO* pProp = (PROPERTYINFO*) i3MemAlloc( sizeof( PROPERTYINFO));

  00020	83 c4 14	 add	 esp, 20			; 00000014H

; 141  : 	if( bNoEdit)

  00023	80 7d 1c 00	 cmp	 BYTE PTR _bNoEdit$[ebp], 0
; File E:\Proyectos\JuegosOnlineproyectos\PB\pbblow\Piercing Blow Remake\i3Server\include\i3Base\i3PropertyGridDefines.h

; 64   : 		m_pData = pData;

  00027	89 4a 04	 mov	 DWORD PTR [edx+4], ecx

; 65   : 		m_pszName = pszName;

  0002a	8b 4d 14	 mov	 ecx, DWORD PTR _pszName$[ebp]
  0002d	89 4a 08	 mov	 DWORD PTR [edx+8], ecx

; 66   : 		m_pszDesc = pszDesc;

  00030	8b 4d 18	 mov	 ecx, DWORD PTR _pszDesc$[ebp]
  00033	c7 02 08 00 00
	00		 mov	 DWORD PTR [edx], 8
  00039	89 4a 0c	 mov	 DWORD PTR [edx+12], ecx

; 67   : 		m_nFlag = flag;

  0003c	c7 42 10 00 00
	00 00		 mov	 DWORD PTR [edx+16], 0

; 68   : 		m_pUserData = pUserData;

  00043	89 42 14	 mov	 DWORD PTR [edx+20], eax
; File E:\Proyectos\JuegosOnlineproyectos\PB\pbblow\Piercing Blow Remake\i3Server\src\i3Base\i3PropertyGridDefines.cpp

; 141  : 	if( bNoEdit)

  00046	74 07		 je	 SHORT $LN2@AddMFCProp

; 142  : 		pProp->m_nFlag |= PROPERTYFLAG_NOEDIT;

  00048	c7 42 10 02 00
	00 00		 mov	 DWORD PTR [edx+16], 2
$LN2@AddMFCProp:

; 143  : 
; 144  : 	pList->Add( pProp);

  0004f	8b 4d 08	 mov	 ecx, DWORD PTR _pList$[ebp]
  00052	52		 push	 edx
  00053	8b 01		 mov	 eax, DWORD PTR [ecx]
  00055	ff 50 10	 call	 DWORD PTR [eax+16]

; 145  : }

  00058	5d		 pop	 ebp
  00059	c3		 ret	 0
?AddMFCProperty_Combo@@YAXPAVi3List@@PAVi3StringList@@PAHPBD3_N@Z ENDP ; AddMFCProperty_Combo
_TEXT	ENDS
; Function compile flags: /Ogtp
; File E:\Proyectos\JuegosOnlineproyectos\PB\pbblow\Piercing Blow Remake\i3Server\src\i3Base\i3PropertyGridDefines.cpp
; File E:\Proyectos\JuegosOnlineproyectos\PB\pbblow\Piercing Blow Remake\i3Server\include\i3Base\i3PropertyGridDefines.h
; File E:\Proyectos\JuegosOnlineproyectos\PB\pbblow\Piercing Blow Remake\i3Server\src\i3Base\i3PropertyGridDefines.cpp
; File E:\Proyectos\JuegosOnlineproyectos\PB\pbblow\Piercing Blow Remake\i3Server\include\i3Base\i3PropertyGridDefines.h
; File E:\Proyectos\JuegosOnlineproyectos\PB\pbblow\Piercing Blow Remake\i3Server\src\i3Base\i3PropertyGridDefines.cpp
;	COMDAT ?AddMFCProperty_StringW@@YAXPAVi3List@@PAGIPBD2_N@Z
_TEXT	SEGMENT
_pList$ = 8						; size = 4
_pStringW$ = 12						; size = 4
_nBufSize$ = 16						; size = 4
_pszName$ = 20						; size = 4
_pszDesc$ = 24						; size = 4
_bNoEdit$ = 28						; size = 1
?AddMFCProperty_StringW@@YAXPAVi3List@@PAGIPBD2_N@Z PROC ; AddMFCProperty_StringW, COMDAT

; 116  : {

  00000	55		 push	 ebp
  00001	8b ec		 mov	 ebp, esp
  00003	56		 push	 esi

; 117  : 	I3ASSERT( pList != NULL);
; 118  : 
; 119  : 	INT32* pBufSize = (INT32*)i3MemAlloc( sizeof( INT32));

  00004	6a 77		 push	 119			; 00000077H
  00006	68 00 00 00 00	 push	 OFFSET ??_C@_0HA@MBFIGEMP@E?3?2Proyectos?2JuegosOnlineproyec@
  0000b	6a 10		 push	 16			; 00000010H
  0000d	6a 00		 push	 0
  0000f	6a 04		 push	 4
  00011	e8 00 00 00 00	 call	 ?AllocTool@i3mem@@YAPAXHHHPBDH@Z ; i3mem::AllocTool

; 120  : 	*pBufSize = nBufSize;

  00016	8b 4d 10	 mov	 ecx, DWORD PTR _nBufSize$[ebp]
  00019	8b f0		 mov	 esi, eax

; 122  : 	PROPERTYINFO* pProp = (PROPERTYINFO*) i3MemAlloc( sizeof( PROPERTYINFO));

  0001b	6a 7a		 push	 122			; 0000007aH
  0001d	68 00 00 00 00	 push	 OFFSET ??_C@_0HA@MBFIGEMP@E?3?2Proyectos?2JuegosOnlineproyec@
  00022	6a 10		 push	 16			; 00000010H
  00024	6a 00		 push	 0
  00026	6a 18		 push	 24			; 00000018H
  00028	89 0e		 mov	 DWORD PTR [esi], ecx
  0002a	e8 00 00 00 00	 call	 ?AllocTool@i3mem@@YAPAXHHHPBDH@Z ; i3mem::AllocTool
; File E:\Proyectos\JuegosOnlineproyectos\PB\pbblow\Piercing Blow Remake\i3Server\include\i3Base\i3PropertyGridDefines.h

; 64   : 		m_pData = pData;

  0002f	8b 4d 0c	 mov	 ecx, DWORD PTR _pStringW$[ebp]
; File E:\Proyectos\JuegosOnlineproyectos\PB\pbblow\Piercing Blow Remake\i3Server\src\i3Base\i3PropertyGridDefines.cpp

; 122  : 	PROPERTYINFO* pProp = (PROPERTYINFO*) i3MemAlloc( sizeof( PROPERTYINFO));

  00032	8b d0		 mov	 edx, eax
  00034	83 c4 28	 add	 esp, 40			; 00000028H

; 125  : 	if( bNoEdit)

  00037	80 7d 1c 00	 cmp	 BYTE PTR _bNoEdit$[ebp], 0
; File E:\Proyectos\JuegosOnlineproyectos\PB\pbblow\Piercing Blow Remake\i3Server\include\i3Base\i3PropertyGridDefines.h

; 64   : 		m_pData = pData;

  0003b	89 4a 04	 mov	 DWORD PTR [edx+4], ecx

; 65   : 		m_pszName = pszName;

  0003e	8b 4d 14	 mov	 ecx, DWORD PTR _pszName$[ebp]
  00041	89 4a 08	 mov	 DWORD PTR [edx+8], ecx

; 66   : 		m_pszDesc = pszDesc;

  00044	8b 4d 18	 mov	 ecx, DWORD PTR _pszDesc$[ebp]

; 67   : 		m_nFlag = flag;
; 68   : 		m_pUserData = pUserData;

  00047	89 72 14	 mov	 DWORD PTR [edx+20], esi
  0004a	c7 02 07 00 00
	00		 mov	 DWORD PTR [edx], 7
  00050	89 4a 0c	 mov	 DWORD PTR [edx+12], ecx
  00053	c7 42 10 00 00
	00 00		 mov	 DWORD PTR [edx+16], 0
  0005a	5e		 pop	 esi
; File E:\Proyectos\JuegosOnlineproyectos\PB\pbblow\Piercing Blow Remake\i3Server\src\i3Base\i3PropertyGridDefines.cpp

; 125  : 	if( bNoEdit)

  0005b	74 07		 je	 SHORT $LN2@AddMFCProp

; 126  : 		pProp->m_nFlag |= PROPERTYFLAG_NOEDIT;

  0005d	c7 42 10 02 00
	00 00		 mov	 DWORD PTR [edx+16], 2
$LN2@AddMFCProp:

; 127  : 	
; 128  : 	pList->Add( pProp);

  00064	8b 4d 08	 mov	 ecx, DWORD PTR _pList$[ebp]
  00067	52		 push	 edx
  00068	8b 01		 mov	 eax, DWORD PTR [ecx]
  0006a	ff 50 10	 call	 DWORD PTR [eax+16]

; 129  : }

  0006d	5d		 pop	 ebp
  0006e	c3		 ret	 0
?AddMFCProperty_StringW@@YAXPAVi3List@@PAGIPBD2_N@Z ENDP ; AddMFCProperty_StringW
_TEXT	ENDS
; Function compile flags: /Ogtp
; File E:\Proyectos\JuegosOnlineproyectos\PB\pbblow\Piercing Blow Remake\i3Server\src\i3Base\i3PropertyGridDefines.cpp
; File E:\Proyectos\JuegosOnlineproyectos\PB\pbblow\Piercing Blow Remake\i3Server\include\i3Base\i3PropertyGridDefines.h
; File E:\Proyectos\JuegosOnlineproyectos\PB\pbblow\Piercing Blow Remake\i3Server\src\i3Base\i3PropertyGridDefines.cpp
; File E:\Proyectos\JuegosOnlineproyectos\PB\pbblow\Piercing Blow Remake\i3Server\include\i3Base\i3PropertyGridDefines.h
; File E:\Proyectos\JuegosOnlineproyectos\PB\pbblow\Piercing Blow Remake\i3Server\src\i3Base\i3PropertyGridDefines.cpp
;	COMDAT ?AddMFCProperty_String@@YAXPAVi3List@@PADIPBD2_N@Z
_TEXT	SEGMENT
_pList$ = 8						; size = 4
_pString$ = 12						; size = 4
_nBufSize$ = 16						; size = 4
_pszName$ = 20						; size = 4
_pszDesc$ = 24						; size = 4
_bNoEdit$ = 28						; size = 1
?AddMFCProperty_String@@YAXPAVi3List@@PADIPBD2_N@Z PROC	; AddMFCProperty_String, COMDAT

; 98   : {

  00000	55		 push	 ebp
  00001	8b ec		 mov	 ebp, esp
  00003	56		 push	 esi

; 99   : 	I3ASSERT( pList != NULL);
; 100  : 
; 101  : 	INT32* pBufSize = (INT32*)i3MemAlloc( sizeof( INT32));

  00004	6a 65		 push	 101			; 00000065H
  00006	68 00 00 00 00	 push	 OFFSET ??_C@_0HA@MBFIGEMP@E?3?2Proyectos?2JuegosOnlineproyec@
  0000b	6a 10		 push	 16			; 00000010H
  0000d	6a 00		 push	 0
  0000f	6a 04		 push	 4
  00011	e8 00 00 00 00	 call	 ?AllocTool@i3mem@@YAPAXHHHPBDH@Z ; i3mem::AllocTool

; 102  : 	*pBufSize = nBufSize;

  00016	8b 4d 10	 mov	 ecx, DWORD PTR _nBufSize$[ebp]
  00019	8b f0		 mov	 esi, eax

; 104  : 	PROPERTYINFO* pProp = (PROPERTYINFO*) i3MemAlloc( sizeof( PROPERTYINFO));

  0001b	6a 68		 push	 104			; 00000068H
  0001d	68 00 00 00 00	 push	 OFFSET ??_C@_0HA@MBFIGEMP@E?3?2Proyectos?2JuegosOnlineproyec@
  00022	6a 10		 push	 16			; 00000010H
  00024	6a 00		 push	 0
  00026	6a 18		 push	 24			; 00000018H
  00028	89 0e		 mov	 DWORD PTR [esi], ecx
  0002a	e8 00 00 00 00	 call	 ?AllocTool@i3mem@@YAPAXHHHPBDH@Z ; i3mem::AllocTool
; File E:\Proyectos\JuegosOnlineproyectos\PB\pbblow\Piercing Blow Remake\i3Server\include\i3Base\i3PropertyGridDefines.h

; 64   : 		m_pData = pData;

  0002f	8b 4d 0c	 mov	 ecx, DWORD PTR _pString$[ebp]
; File E:\Proyectos\JuegosOnlineproyectos\PB\pbblow\Piercing Blow Remake\i3Server\src\i3Base\i3PropertyGridDefines.cpp

; 104  : 	PROPERTYINFO* pProp = (PROPERTYINFO*) i3MemAlloc( sizeof( PROPERTYINFO));

  00032	8b d0		 mov	 edx, eax
  00034	83 c4 28	 add	 esp, 40			; 00000028H

; 107  : 	if( bNoEdit)

  00037	80 7d 1c 00	 cmp	 BYTE PTR _bNoEdit$[ebp], 0
; File E:\Proyectos\JuegosOnlineproyectos\PB\pbblow\Piercing Blow Remake\i3Server\include\i3Base\i3PropertyGridDefines.h

; 64   : 		m_pData = pData;

  0003b	89 4a 04	 mov	 DWORD PTR [edx+4], ecx

; 65   : 		m_pszName = pszName;

  0003e	8b 4d 14	 mov	 ecx, DWORD PTR _pszName$[ebp]
  00041	89 4a 08	 mov	 DWORD PTR [edx+8], ecx

; 66   : 		m_pszDesc = pszDesc;

  00044	8b 4d 18	 mov	 ecx, DWORD PTR _pszDesc$[ebp]

; 67   : 		m_nFlag = flag;
; 68   : 		m_pUserData = pUserData;

  00047	89 72 14	 mov	 DWORD PTR [edx+20], esi
  0004a	c7 02 06 00 00
	00		 mov	 DWORD PTR [edx], 6
  00050	89 4a 0c	 mov	 DWORD PTR [edx+12], ecx
  00053	c7 42 10 00 00
	00 00		 mov	 DWORD PTR [edx+16], 0
  0005a	5e		 pop	 esi
; File E:\Proyectos\JuegosOnlineproyectos\PB\pbblow\Piercing Blow Remake\i3Server\src\i3Base\i3PropertyGridDefines.cpp

; 107  : 	if( bNoEdit)

  0005b	74 07		 je	 SHORT $LN2@AddMFCProp

; 108  : 		pProp->m_nFlag |= PROPERTYFLAG_NOEDIT;

  0005d	c7 42 10 02 00
	00 00		 mov	 DWORD PTR [edx+16], 2
$LN2@AddMFCProp:

; 109  : 	
; 110  : 	pList->Add( pProp);

  00064	8b 4d 08	 mov	 ecx, DWORD PTR _pList$[ebp]
  00067	52		 push	 edx
  00068	8b 01		 mov	 eax, DWORD PTR [ecx]
  0006a	ff 50 10	 call	 DWORD PTR [eax+16]

; 111  : }

  0006d	5d		 pop	 ebp
  0006e	c3		 ret	 0
?AddMFCProperty_String@@YAXPAVi3List@@PADIPBD2_N@Z ENDP	; AddMFCProperty_String
_TEXT	ENDS
; Function compile flags: /Ogtp
; File E:\Proyectos\JuegosOnlineproyectos\PB\pbblow\Piercing Blow Remake\i3Server\src\i3Base\i3PropertyGridDefines.cpp
; File E:\Proyectos\JuegosOnlineproyectos\PB\pbblow\Piercing Blow Remake\i3Server\include\i3Base\i3PropertyGridDefines.h
; File E:\Proyectos\JuegosOnlineproyectos\PB\pbblow\Piercing Blow Remake\i3Server\src\i3Base\i3PropertyGridDefines.cpp
; File E:\Proyectos\JuegosOnlineproyectos\PB\pbblow\Piercing Blow Remake\i3Server\include\i3Base\i3PropertyGridDefines.h
; File E:\Proyectos\JuegosOnlineproyectos\PB\pbblow\Piercing Blow Remake\i3Server\src\i3Base\i3PropertyGridDefines.cpp
; File E:\Proyectos\JuegosOnlineproyectos\PB\pbblow\Piercing Blow Remake\i3Server\include\i3Base\i3PropertyGridDefines.h
; File E:\Proyectos\JuegosOnlineproyectos\PB\pbblow\Piercing Blow Remake\i3Server\src\i3Base\i3PropertyGridDefines.cpp
; File E:\Proyectos\JuegosOnlineproyectos\PB\pbblow\Piercing Blow Remake\i3Server\include\i3Base\i3PropertyGridDefines.h
; File E:\Proyectos\JuegosOnlineproyectos\PB\pbblow\Piercing Blow Remake\i3Server\src\i3Base\i3PropertyGridDefines.cpp
; File E:\Proyectos\JuegosOnlineproyectos\PB\pbblow\Piercing Blow Remake\i3Server\include\i3Base\i3PropertyGridDefines.h
; File E:\Proyectos\JuegosOnlineproyectos\PB\pbblow\Piercing Blow Remake\i3Server\src\i3Base\i3PropertyGridDefines.cpp
;	COMDAT ?AddMFCProperty_Real32@@YAXPAVi3List@@PAMPBD2MM_N@Z
_TEXT	SEGMENT
_pList$ = 8						; size = 4
_pReal$ = 12						; size = 4
_pszName$ = 16						; size = 4
_pszDesc$ = 20						; size = 4
_fMin$ = 24						; size = 4
_fMax$ = 28						; size = 4
_bNoEdit$ = 32						; size = 1
?AddMFCProperty_Real32@@YAXPAVi3List@@PAMPBD2MM_N@Z PROC ; AddMFCProperty_Real32, COMDAT

; 72   : {

  00000	55		 push	 ebp
  00001	8b ec		 mov	 ebp, esp

; 73   : 	I3ASSERT( pList != NULL);
; 74   : 
; 75   : 	UINT32 nFlag = PROPERTYFLAG_NONE;
; 76   : 	REAL32* pUserData = NULL;
; 77   : 
; 78   : 	if( fMax > fMin)

  00003	d9 45 18	 fld	 DWORD PTR _fMin$[ebp]
  00006	d9 45 1c	 fld	 DWORD PTR _fMax$[ebp]
  00009	56		 push	 esi
  0000a	57		 push	 edi
  0000b	33 ff		 xor	 edi, edi
  0000d	33 f6		 xor	 esi, esi
  0000f	df f1		 fcomip	 ST(1)
  00011	dd d8		 fstp	 ST(0)
  00013	76 2c		 jbe	 SHORT $LN2@AddMFCProp

; 79   : 	{
; 80   : 		nFlag |= PROPERTYFLAG_HASRANGE;
; 81   : 		pUserData = (REAL32*) i3MemAlloc( sizeof( REAL32) * 2);

  00015	6a 51		 push	 81			; 00000051H
  00017	68 00 00 00 00	 push	 OFFSET ??_C@_0HA@MBFIGEMP@E?3?2Proyectos?2JuegosOnlineproyec@
  0001c	6a 10		 push	 16			; 00000010H
  0001e	56		 push	 esi
  0001f	6a 08		 push	 8
  00021	8d 7e 01	 lea	 edi, DWORD PTR [esi+1]
  00024	e8 00 00 00 00	 call	 ?AllocTool@i3mem@@YAPAXHHHPBDH@Z ; i3mem::AllocTool

; 82   : 		pUserData[0] = fMin;

  00029	f3 0f 10 45 18	 movss	 xmm0, DWORD PTR _fMin$[ebp]
  0002e	8b f0		 mov	 esi, eax
  00030	83 c4 14	 add	 esp, 20			; 00000014H
  00033	f3 0f 11 06	 movss	 DWORD PTR [esi], xmm0

; 83   : 		pUserData[1] = fMax;

  00037	f3 0f 10 45 1c	 movss	 xmm0, DWORD PTR _fMax$[ebp]
  0003c	f3 0f 11 46 04	 movss	 DWORD PTR [esi+4], xmm0
$LN2@AddMFCProp:

; 89   : 	PROPERTYINFO* pProp = (PROPERTYINFO*) i3MemAlloc( sizeof( PROPERTYINFO));

  00041	6a 59		 push	 89			; 00000059H
  00043	68 00 00 00 00	 push	 OFFSET ??_C@_0HA@MBFIGEMP@E?3?2Proyectos?2JuegosOnlineproyec@
  00048	6a 10		 push	 16			; 00000010H
  0004a	6a 00		 push	 0
  0004c	6a 18		 push	 24			; 00000018H
  0004e	e8 00 00 00 00	 call	 ?AllocTool@i3mem@@YAPAXHHHPBDH@Z ; i3mem::AllocTool
; File E:\Proyectos\JuegosOnlineproyectos\PB\pbblow\Piercing Blow Remake\i3Server\include\i3Base\i3PropertyGridDefines.h

; 64   : 		m_pData = pData;

  00053	8b 4d 0c	 mov	 ecx, DWORD PTR _pReal$[ebp]
; File E:\Proyectos\JuegosOnlineproyectos\PB\pbblow\Piercing Blow Remake\i3Server\src\i3Base\i3PropertyGridDefines.cpp

; 89   : 	PROPERTYINFO* pProp = (PROPERTYINFO*) i3MemAlloc( sizeof( PROPERTYINFO));

  00056	8b d0		 mov	 edx, eax
  00058	83 c4 14	 add	 esp, 20			; 00000014H
; File E:\Proyectos\JuegosOnlineproyectos\PB\pbblow\Piercing Blow Remake\i3Server\include\i3Base\i3PropertyGridDefines.h

; 64   : 		m_pData = pData;

  0005b	89 4a 04	 mov	 DWORD PTR [edx+4], ecx

; 65   : 		m_pszName = pszName;

  0005e	8b 4d 10	 mov	 ecx, DWORD PTR _pszName$[ebp]
  00061	89 4a 08	 mov	 DWORD PTR [edx+8], ecx

; 66   : 		m_pszDesc = pszDesc;

  00064	8b 4d 14	 mov	 ecx, DWORD PTR _pszDesc$[ebp]
  00067	89 4a 0c	 mov	 DWORD PTR [edx+12], ecx
; File E:\Proyectos\JuegosOnlineproyectos\PB\pbblow\Piercing Blow Remake\i3Server\src\i3Base\i3PropertyGridDefines.cpp

; 89   : 	PROPERTYINFO* pProp = (PROPERTYINFO*) i3MemAlloc( sizeof( PROPERTYINFO));

  0006a	8b cf		 mov	 ecx, edi
  0006c	83 c9 02	 or	 ecx, 2
; File E:\Proyectos\JuegosOnlineproyectos\PB\pbblow\Piercing Blow Remake\i3Server\include\i3Base\i3PropertyGridDefines.h

; 63   : 		m_eType = eType;

  0006f	c7 02 02 00 00
	00		 mov	 DWORD PTR [edx], 2
; File E:\Proyectos\JuegosOnlineproyectos\PB\pbblow\Piercing Blow Remake\i3Server\src\i3Base\i3PropertyGridDefines.cpp

; 89   : 	PROPERTYINFO* pProp = (PROPERTYINFO*) i3MemAlloc( sizeof( PROPERTYINFO));

  00075	80 7d 20 00	 cmp	 BYTE PTR _bNoEdit$[ebp], 0
; File E:\Proyectos\JuegosOnlineproyectos\PB\pbblow\Piercing Blow Remake\i3Server\include\i3Base\i3PropertyGridDefines.h

; 68   : 		m_pUserData = pUserData;

  00079	89 72 14	 mov	 DWORD PTR [edx+20], esi
; File E:\Proyectos\JuegosOnlineproyectos\PB\pbblow\Piercing Blow Remake\i3Server\src\i3Base\i3PropertyGridDefines.cpp

; 89   : 	PROPERTYINFO* pProp = (PROPERTYINFO*) i3MemAlloc( sizeof( PROPERTYINFO));

  0007c	0f 44 cf	 cmove	 ecx, edi
; File E:\Proyectos\JuegosOnlineproyectos\PB\pbblow\Piercing Blow Remake\i3Server\include\i3Base\i3PropertyGridDefines.h

; 67   : 		m_nFlag = flag;

  0007f	89 4a 10	 mov	 DWORD PTR [edx+16], ecx
; File E:\Proyectos\JuegosOnlineproyectos\PB\pbblow\Piercing Blow Remake\i3Server\src\i3Base\i3PropertyGridDefines.cpp

; 92   : 	pList->Add( pProp);

  00082	8b 4d 08	 mov	 ecx, DWORD PTR _pList$[ebp]
  00085	52		 push	 edx
  00086	8b 01		 mov	 eax, DWORD PTR [ecx]
  00088	ff 50 10	 call	 DWORD PTR [eax+16]
  0008b	5f		 pop	 edi
  0008c	5e		 pop	 esi

; 93   : }

  0008d	5d		 pop	 ebp
  0008e	c3		 ret	 0
?AddMFCProperty_Real32@@YAXPAVi3List@@PAMPBD2MM_N@Z ENDP ; AddMFCProperty_Real32
_TEXT	ENDS
; Function compile flags: /Ogtp
; File E:\Proyectos\JuegosOnlineproyectos\PB\pbblow\Piercing Blow Remake\i3Server\src\i3Base\i3PropertyGridDefines.cpp
; File E:\Proyectos\JuegosOnlineproyectos\PB\pbblow\Piercing Blow Remake\i3Server\include\i3Base\i3PropertyGridDefines.h
; File E:\Proyectos\JuegosOnlineproyectos\PB\pbblow\Piercing Blow Remake\i3Server\src\i3Base\i3PropertyGridDefines.cpp
; File E:\Proyectos\JuegosOnlineproyectos\PB\pbblow\Piercing Blow Remake\i3Server\include\i3Base\i3PropertyGridDefines.h
; File E:\Proyectos\JuegosOnlineproyectos\PB\pbblow\Piercing Blow Remake\i3Server\src\i3Base\i3PropertyGridDefines.cpp
; File E:\Proyectos\JuegosOnlineproyectos\PB\pbblow\Piercing Blow Remake\i3Server\include\i3Base\i3PropertyGridDefines.h
; File E:\Proyectos\JuegosOnlineproyectos\PB\pbblow\Piercing Blow Remake\i3Server\src\i3Base\i3PropertyGridDefines.cpp
; File E:\Proyectos\JuegosOnlineproyectos\PB\pbblow\Piercing Blow Remake\i3Server\include\i3Base\i3PropertyGridDefines.h
; File E:\Proyectos\JuegosOnlineproyectos\PB\pbblow\Piercing Blow Remake\i3Server\src\i3Base\i3PropertyGridDefines.cpp
; File E:\Proyectos\JuegosOnlineproyectos\PB\pbblow\Piercing Blow Remake\i3Server\include\i3Base\i3PropertyGridDefines.h
; File E:\Proyectos\JuegosOnlineproyectos\PB\pbblow\Piercing Blow Remake\i3Server\src\i3Base\i3PropertyGridDefines.cpp
;	COMDAT ?AddMFCProperty_Int32@@YAXPAVi3List@@PAHPBD2HH_N@Z
_TEXT	SEGMENT
_nFlag$1$ = -4						; size = 4
_pList$ = 8						; size = 4
_pInt$ = 12						; size = 4
_pszName$ = 16						; size = 4
_pszDesc$ = 20						; size = 4
_nMin$ = 24						; size = 4
_nMax$ = 28						; size = 4
_bNoEdit$ = 32						; size = 1
?AddMFCProperty_Int32@@YAXPAVi3List@@PAHPBD2HH_N@Z PROC	; AddMFCProperty_Int32, COMDAT

; 46   : {

  00000	55		 push	 ebp
  00001	8b ec		 mov	 ebp, esp
  00003	51		 push	 ecx
  00004	53		 push	 ebx

; 47   : 	I3ASSERT( pList != NULL);
; 48   : 
; 49   : 	UINT32 nFlag = PROPERTYFLAG_NONE;
; 50   : 	INT32* pUserData = NULL;
; 51   : 	
; 52   : 	if( nMax > nMin)

  00005	8b 5d 18	 mov	 ebx, DWORD PTR _nMin$[ebp]
  00008	33 c0		 xor	 eax, eax
  0000a	56		 push	 esi
  0000b	57		 push	 edi
  0000c	8b 7d 1c	 mov	 edi, DWORD PTR _nMax$[ebp]
  0000f	33 f6		 xor	 esi, esi
  00011	89 45 fc	 mov	 DWORD PTR _nFlag$1$[ebp], eax
  00014	3b fb		 cmp	 edi, ebx
  00016	7e 22		 jle	 SHORT $LN2@AddMFCProp

; 53   : 	{
; 54   : 		nFlag |= PROPERTYFLAG_HASRANGE;
; 55   : 		pUserData = (INT32*)i3MemAlloc( sizeof(INT32) * 2);		// delete´Â i3TDKPropertyGridProperty_Int32::i3TDKPropertyGridProperty_Int32() żˇĽ­ ÇŃ´Ů.

  00018	6a 37		 push	 55			; 00000037H
  0001a	68 00 00 00 00	 push	 OFFSET ??_C@_0HA@MBFIGEMP@E?3?2Proyectos?2JuegosOnlineproyec@
  0001f	6a 10		 push	 16			; 00000010H
  00021	56		 push	 esi
  00022	6a 08		 push	 8
  00024	c7 45 fc 01 00
	00 00		 mov	 DWORD PTR _nFlag$1$[ebp], 1
  0002b	e8 00 00 00 00	 call	 ?AllocTool@i3mem@@YAPAXHHHPBDH@Z ; i3mem::AllocTool
  00030	8b f0		 mov	 esi, eax
  00032	83 c4 14	 add	 esp, 20			; 00000014H

; 56   : 		pUserData[0] = nMin;

  00035	89 1e		 mov	 DWORD PTR [esi], ebx

; 57   : 		pUserData[1] = nMax;

  00037	89 7e 04	 mov	 DWORD PTR [esi+4], edi
$LN2@AddMFCProp:

; 63   : 	PROPERTYINFO* pProp = (PROPERTYINFO*) i3MemAlloc( sizeof( PROPERTYINFO));

  0003a	6a 3f		 push	 63			; 0000003fH
  0003c	68 00 00 00 00	 push	 OFFSET ??_C@_0HA@MBFIGEMP@E?3?2Proyectos?2JuegosOnlineproyec@
  00041	6a 10		 push	 16			; 00000010H
  00043	6a 00		 push	 0
  00045	6a 18		 push	 24			; 00000018H
  00047	e8 00 00 00 00	 call	 ?AllocTool@i3mem@@YAPAXHHHPBDH@Z ; i3mem::AllocTool
; File E:\Proyectos\JuegosOnlineproyectos\PB\pbblow\Piercing Blow Remake\i3Server\include\i3Base\i3PropertyGridDefines.h

; 64   : 		m_pData = pData;

  0004c	8b 4d 0c	 mov	 ecx, DWORD PTR _pInt$[ebp]
; File E:\Proyectos\JuegosOnlineproyectos\PB\pbblow\Piercing Blow Remake\i3Server\src\i3Base\i3PropertyGridDefines.cpp

; 63   : 	PROPERTYINFO* pProp = (PROPERTYINFO*) i3MemAlloc( sizeof( PROPERTYINFO));

  0004f	8b d0		 mov	 edx, eax
  00051	83 c4 14	 add	 esp, 20			; 00000014H
; File E:\Proyectos\JuegosOnlineproyectos\PB\pbblow\Piercing Blow Remake\i3Server\include\i3Base\i3PropertyGridDefines.h

; 64   : 		m_pData = pData;

  00054	89 4a 04	 mov	 DWORD PTR [edx+4], ecx

; 65   : 		m_pszName = pszName;

  00057	8b 4d 10	 mov	 ecx, DWORD PTR _pszName$[ebp]
  0005a	89 4a 08	 mov	 DWORD PTR [edx+8], ecx

; 66   : 		m_pszDesc = pszDesc;

  0005d	8b 4d 14	 mov	 ecx, DWORD PTR _pszDesc$[ebp]
  00060	89 4a 0c	 mov	 DWORD PTR [edx+12], ecx
; File E:\Proyectos\JuegosOnlineproyectos\PB\pbblow\Piercing Blow Remake\i3Server\src\i3Base\i3PropertyGridDefines.cpp

; 63   : 	PROPERTYINFO* pProp = (PROPERTYINFO*) i3MemAlloc( sizeof( PROPERTYINFO));

  00063	8b 4d fc	 mov	 ecx, DWORD PTR _nFlag$1$[ebp]
  00066	83 c9 02	 or	 ecx, 2
; File E:\Proyectos\JuegosOnlineproyectos\PB\pbblow\Piercing Blow Remake\i3Server\include\i3Base\i3PropertyGridDefines.h

; 63   : 		m_eType = eType;

  00069	c7 02 01 00 00
	00		 mov	 DWORD PTR [edx], 1
; File E:\Proyectos\JuegosOnlineproyectos\PB\pbblow\Piercing Blow Remake\i3Server\src\i3Base\i3PropertyGridDefines.cpp

; 63   : 	PROPERTYINFO* pProp = (PROPERTYINFO*) i3MemAlloc( sizeof( PROPERTYINFO));

  0006f	80 7d 20 00	 cmp	 BYTE PTR _bNoEdit$[ebp], 0
; File E:\Proyectos\JuegosOnlineproyectos\PB\pbblow\Piercing Blow Remake\i3Server\include\i3Base\i3PropertyGridDefines.h

; 68   : 		m_pUserData = pUserData;

  00073	89 72 14	 mov	 DWORD PTR [edx+20], esi
; File E:\Proyectos\JuegosOnlineproyectos\PB\pbblow\Piercing Blow Remake\i3Server\src\i3Base\i3PropertyGridDefines.cpp

; 63   : 	PROPERTYINFO* pProp = (PROPERTYINFO*) i3MemAlloc( sizeof( PROPERTYINFO));

  00076	0f 44 4d fc	 cmove	 ecx, DWORD PTR _nFlag$1$[ebp]
; File E:\Proyectos\JuegosOnlineproyectos\PB\pbblow\Piercing Blow Remake\i3Server\include\i3Base\i3PropertyGridDefines.h

; 67   : 		m_nFlag = flag;

  0007a	89 4a 10	 mov	 DWORD PTR [edx+16], ecx
; File E:\Proyectos\JuegosOnlineproyectos\PB\pbblow\Piercing Blow Remake\i3Server\src\i3Base\i3PropertyGridDefines.cpp

; 66   : 	pList->Add( pProp);

  0007d	8b 4d 08	 mov	 ecx, DWORD PTR _pList$[ebp]
  00080	52		 push	 edx
  00081	8b 01		 mov	 eax, DWORD PTR [ecx]
  00083	ff 50 10	 call	 DWORD PTR [eax+16]
  00086	5f		 pop	 edi
  00087	5e		 pop	 esi
  00088	5b		 pop	 ebx

; 67   : }

  00089	8b e5		 mov	 esp, ebp
  0008b	5d		 pop	 ebp
  0008c	c3		 ret	 0
?AddMFCProperty_Int32@@YAXPAVi3List@@PAHPBD2HH_N@Z ENDP	; AddMFCProperty_Int32
_TEXT	ENDS
; Function compile flags: /Ogtp
; File E:\Proyectos\JuegosOnlineproyectos\PB\pbblow\Piercing Blow Remake\i3Server\src\i3Base\i3PropertyGridDefines.cpp
; File E:\Proyectos\JuegosOnlineproyectos\PB\pbblow\Piercing Blow Remake\i3Server\include\i3Base\i3PropertyGridDefines.h
; File E:\Proyectos\JuegosOnlineproyectos\PB\pbblow\Piercing Blow Remake\i3Server\src\i3Base\i3PropertyGridDefines.cpp
; File E:\Proyectos\JuegosOnlineproyectos\PB\pbblow\Piercing Blow Remake\i3Server\include\i3Base\i3PropertyGridDefines.h
; File E:\Proyectos\JuegosOnlineproyectos\PB\pbblow\Piercing Blow Remake\i3Server\src\i3Base\i3PropertyGridDefines.cpp
; File E:\Proyectos\JuegosOnlineproyectos\PB\pbblow\Piercing Blow Remake\i3Server\include\i3Base\i3PropertyGridDefines.h
; File E:\Proyectos\JuegosOnlineproyectos\PB\pbblow\Piercing Blow Remake\i3Server\src\i3Base\i3PropertyGridDefines.cpp
; File E:\Proyectos\JuegosOnlineproyectos\PB\pbblow\Piercing Blow Remake\i3Server\include\i3Base\i3PropertyGridDefines.h
; File E:\Proyectos\JuegosOnlineproyectos\PB\pbblow\Piercing Blow Remake\i3Server\src\i3Base\i3PropertyGridDefines.cpp
;	COMDAT ?AddMFCProperty_Bool@@YAXPAVi3List@@PA_NPBD2_N@Z
_TEXT	SEGMENT
_pList$ = 8						; size = 4
_pBool$ = 12						; size = 4
_pszName$ = 16						; size = 4
_pszDesc$ = 20						; size = 4
_bNoEdit$ = 24						; size = 1
?AddMFCProperty_Bool@@YAXPAVi3List@@PA_NPBD2_N@Z PROC	; AddMFCProperty_Bool, COMDAT

; 29   : {

  00000	55		 push	 ebp
  00001	8b ec		 mov	 ebp, esp

; 36   : 	PROPERTYINFO* pProp = (PROPERTYINFO*) i3MemAlloc( sizeof( PROPERTYINFO));

  00003	6a 24		 push	 36			; 00000024H
  00005	68 00 00 00 00	 push	 OFFSET ??_C@_0HA@MBFIGEMP@E?3?2Proyectos?2JuegosOnlineproyec@
  0000a	6a 10		 push	 16			; 00000010H
  0000c	6a 00		 push	 0
  0000e	6a 18		 push	 24			; 00000018H
  00010	e8 00 00 00 00	 call	 ?AllocTool@i3mem@@YAPAXHHHPBDH@Z ; i3mem::AllocTool
; File E:\Proyectos\JuegosOnlineproyectos\PB\pbblow\Piercing Blow Remake\i3Server\include\i3Base\i3PropertyGridDefines.h

; 64   : 		m_pData = pData;

  00015	8b 4d 0c	 mov	 ecx, DWORD PTR _pBool$[ebp]
; File E:\Proyectos\JuegosOnlineproyectos\PB\pbblow\Piercing Blow Remake\i3Server\src\i3Base\i3PropertyGridDefines.cpp

; 36   : 	PROPERTYINFO* pProp = (PROPERTYINFO*) i3MemAlloc( sizeof( PROPERTYINFO));

  00018	8b d0		 mov	 edx, eax
  0001a	83 c4 14	 add	 esp, 20			; 00000014H
; File E:\Proyectos\JuegosOnlineproyectos\PB\pbblow\Piercing Blow Remake\i3Server\include\i3Base\i3PropertyGridDefines.h

; 64   : 		m_pData = pData;

  0001d	89 4a 04	 mov	 DWORD PTR [edx+4], ecx

; 65   : 		m_pszName = pszName;

  00020	8b 4d 10	 mov	 ecx, DWORD PTR _pszName$[ebp]
  00023	89 4a 08	 mov	 DWORD PTR [edx+8], ecx

; 66   : 		m_pszDesc = pszDesc;

  00026	8b 4d 14	 mov	 ecx, DWORD PTR _pszDesc$[ebp]
  00029	89 4a 0c	 mov	 DWORD PTR [edx+12], ecx
; File E:\Proyectos\JuegosOnlineproyectos\PB\pbblow\Piercing Blow Remake\i3Server\src\i3Base\i3PropertyGridDefines.cpp

; 36   : 	PROPERTYINFO* pProp = (PROPERTYINFO*) i3MemAlloc( sizeof( PROPERTYINFO));

  0002c	0f b6 4d 18	 movzx	 ecx, BYTE PTR _bNoEdit$[ebp]
  00030	03 c9		 add	 ecx, ecx
; File E:\Proyectos\JuegosOnlineproyectos\PB\pbblow\Piercing Blow Remake\i3Server\include\i3Base\i3PropertyGridDefines.h

; 63   : 		m_eType = eType;

  00032	c7 02 00 00 00
	00		 mov	 DWORD PTR [edx], 0

; 67   : 		m_nFlag = flag;

  00038	89 4a 10	 mov	 DWORD PTR [edx+16], ecx
; File E:\Proyectos\JuegosOnlineproyectos\PB\pbblow\Piercing Blow Remake\i3Server\src\i3Base\i3PropertyGridDefines.cpp

; 40   : 	pList->Add( pProp);

  0003b	8b 4d 08	 mov	 ecx, DWORD PTR _pList$[ebp]
; File E:\Proyectos\JuegosOnlineproyectos\PB\pbblow\Piercing Blow Remake\i3Server\include\i3Base\i3PropertyGridDefines.h

; 68   : 		m_pUserData = pUserData;

  0003e	c7 42 14 00 00
	00 00		 mov	 DWORD PTR [edx+20], 0
; File E:\Proyectos\JuegosOnlineproyectos\PB\pbblow\Piercing Blow Remake\i3Server\src\i3Base\i3PropertyGridDefines.cpp

; 40   : 	pList->Add( pProp);

  00045	52		 push	 edx
  00046	8b 01		 mov	 eax, DWORD PTR [ecx]
  00048	ff 50 10	 call	 DWORD PTR [eax+16]

; 41   : }

  0004b	5d		 pop	 ebp
  0004c	c3		 ret	 0
?AddMFCProperty_Bool@@YAXPAVi3List@@PA_NPBD2_N@Z ENDP	; AddMFCProperty_Bool
_TEXT	ENDS
; Function compile flags: /Ogtp
; File E:\Proyectos\JuegosOnlineproyectos\PB\pbblow\Piercing Blow Remake\i3Server\src\i3Base\i3PropertyGridDefines.cpp
; File E:\Proyectos\JuegosOnlineproyectos\PB\pbblow\Piercing Blow Remake\i3Server\include\i3Base\i3PropertyGridDefines.h
; File E:\Proyectos\JuegosOnlineproyectos\PB\pbblow\Piercing Blow Remake\i3Server\src\i3Base\i3PropertyGridDefines.cpp
;	COMDAT ?AddMFCProperty_EndGroup@@YAXPAVi3List@@@Z
_TEXT	SEGMENT
_pList$ = 8						; size = 4
?AddMFCProperty_EndGroup@@YAXPAVi3List@@@Z PROC		; AddMFCProperty_EndGroup, COMDAT

; 18   : {

  00000	55		 push	 ebp
  00001	8b ec		 mov	 ebp, esp

; 19   : 	I3ASSERT( pList != NULL);
; 20   : 
; 21   : 	PROPERTYINFO* pProp = (PROPERTYINFO*) i3MemAlloc( sizeof( PROPERTYINFO));

  00003	6a 15		 push	 21			; 00000015H
  00005	68 00 00 00 00	 push	 OFFSET ??_C@_0HA@MBFIGEMP@E?3?2Proyectos?2JuegosOnlineproyec@
  0000a	6a 10		 push	 16			; 00000010H
  0000c	6a 00		 push	 0
  0000e	6a 18		 push	 24			; 00000018H
  00010	e8 00 00 00 00	 call	 ?AllocTool@i3mem@@YAPAXHHHPBDH@Z ; i3mem::AllocTool

; 25   : 	pList->Add( pProp);

  00015	8b 4d 08	 mov	 ecx, DWORD PTR _pList$[ebp]
  00018	83 c4 14	 add	 esp, 20			; 00000014H
; File E:\Proyectos\JuegosOnlineproyectos\PB\pbblow\Piercing Blow Remake\i3Server\include\i3Base\i3PropertyGridDefines.h

; 63   : 		m_eType = eType;

  0001b	c7 00 ff ff ff
	ff		 mov	 DWORD PTR [eax], -1

; 64   : 		m_pData = pData;

  00021	c7 40 04 00 00
	00 00		 mov	 DWORD PTR [eax+4], 0

; 65   : 		m_pszName = pszName;

  00028	c7 40 08 00 00
	00 00		 mov	 DWORD PTR [eax+8], 0

; 66   : 		m_pszDesc = pszDesc;

  0002f	c7 40 0c 00 00
	00 00		 mov	 DWORD PTR [eax+12], 0

; 67   : 		m_nFlag = flag;

  00036	c7 40 10 00 00
	00 00		 mov	 DWORD PTR [eax+16], 0

; 68   : 		m_pUserData = pUserData;

  0003d	c7 40 14 00 00
	00 00		 mov	 DWORD PTR [eax+20], 0
; File E:\Proyectos\JuegosOnlineproyectos\PB\pbblow\Piercing Blow Remake\i3Server\src\i3Base\i3PropertyGridDefines.cpp

; 25   : 	pList->Add( pProp);

  00044	8b 11		 mov	 edx, DWORD PTR [ecx]
  00046	50		 push	 eax
  00047	ff 52 10	 call	 DWORD PTR [edx+16]

; 26   : }

  0004a	5d		 pop	 ebp
  0004b	c3		 ret	 0
?AddMFCProperty_EndGroup@@YAXPAVi3List@@@Z ENDP		; AddMFCProperty_EndGroup
_TEXT	ENDS
; Function compile flags: /Ogtp
; File E:\Proyectos\JuegosOnlineproyectos\PB\pbblow\Piercing Blow Remake\i3Server\src\i3Base\i3PropertyGridDefines.cpp
; File E:\Proyectos\JuegosOnlineproyectos\PB\pbblow\Piercing Blow Remake\i3Server\include\i3Base\i3PropertyGridDefines.h
; File E:\Proyectos\JuegosOnlineproyectos\PB\pbblow\Piercing Blow Remake\i3Server\src\i3Base\i3PropertyGridDefines.cpp
; File E:\Proyectos\JuegosOnlineproyectos\PB\pbblow\Piercing Blow Remake\i3Server\include\i3Base\i3PropertyGridDefines.h
; File E:\Proyectos\JuegosOnlineproyectos\PB\pbblow\Piercing Blow Remake\i3Server\src\i3Base\i3PropertyGridDefines.cpp
; File E:\Proyectos\JuegosOnlineproyectos\PB\pbblow\Piercing Blow Remake\i3Server\include\i3Base\i3PropertyGridDefines.h
; File E:\Proyectos\JuegosOnlineproyectos\PB\pbblow\Piercing Blow Remake\i3Server\src\i3Base\i3PropertyGridDefines.cpp
;	COMDAT ?AddMFCProperty_BeginGroup@@YAXPAVi3List@@PBD1@Z
_TEXT	SEGMENT
_pList$ = 8						; size = 4
_pszGroupName$ = 12					; size = 4
_pszDesc$ = 16						; size = 4
?AddMFCProperty_BeginGroup@@YAXPAVi3List@@PBD1@Z PROC	; AddMFCProperty_BeginGroup, COMDAT

; 7    : {

  00000	55		 push	 ebp
  00001	8b ec		 mov	 ebp, esp

; 10   : 	PROPERTYINFO* pProp = (PROPERTYINFO*) i3MemAlloc( sizeof( PROPERTYINFO));

  00003	6a 0a		 push	 10			; 0000000aH
  00005	68 00 00 00 00	 push	 OFFSET ??_C@_0HA@MBFIGEMP@E?3?2Proyectos?2JuegosOnlineproyec@
  0000a	6a 10		 push	 16			; 00000010H
  0000c	6a 00		 push	 0
  0000e	6a 18		 push	 24			; 00000018H
  00010	e8 00 00 00 00	 call	 ?AllocTool@i3mem@@YAPAXHHHPBDH@Z ; i3mem::AllocTool
; File E:\Proyectos\JuegosOnlineproyectos\PB\pbblow\Piercing Blow Remake\i3Server\include\i3Base\i3PropertyGridDefines.h

; 65   : 		m_pszName = pszName;

  00015	8b 4d 0c	 mov	 ecx, DWORD PTR _pszGroupName$[ebp]
; File E:\Proyectos\JuegosOnlineproyectos\PB\pbblow\Piercing Blow Remake\i3Server\src\i3Base\i3PropertyGridDefines.cpp

; 10   : 	PROPERTYINFO* pProp = (PROPERTYINFO*) i3MemAlloc( sizeof( PROPERTYINFO));

  00018	8b d0		 mov	 edx, eax
  0001a	83 c4 14	 add	 esp, 20			; 00000014H
; File E:\Proyectos\JuegosOnlineproyectos\PB\pbblow\Piercing Blow Remake\i3Server\include\i3Base\i3PropertyGridDefines.h

; 65   : 		m_pszName = pszName;

  0001d	89 4a 08	 mov	 DWORD PTR [edx+8], ecx

; 66   : 		m_pszDesc = pszDesc;

  00020	8b 4d 10	 mov	 ecx, DWORD PTR _pszDesc$[ebp]
  00023	89 4a 0c	 mov	 DWORD PTR [edx+12], ecx
; File E:\Proyectos\JuegosOnlineproyectos\PB\pbblow\Piercing Blow Remake\i3Server\src\i3Base\i3PropertyGridDefines.cpp

; 14   : 	pList->Add( pProp);

  00026	8b 4d 08	 mov	 ecx, DWORD PTR _pList$[ebp]
; File E:\Proyectos\JuegosOnlineproyectos\PB\pbblow\Piercing Blow Remake\i3Server\include\i3Base\i3PropertyGridDefines.h

; 63   : 		m_eType = eType;

  00029	c7 02 09 00 00
	00		 mov	 DWORD PTR [edx], 9

; 64   : 		m_pData = pData;

  0002f	c7 42 04 00 00
	00 00		 mov	 DWORD PTR [edx+4], 0

; 67   : 		m_nFlag = flag;

  00036	c7 42 10 00 00
	00 00		 mov	 DWORD PTR [edx+16], 0

; 68   : 		m_pUserData = pUserData;

  0003d	c7 42 14 00 00
	00 00		 mov	 DWORD PTR [edx+20], 0
; File E:\Proyectos\JuegosOnlineproyectos\PB\pbblow\Piercing Blow Remake\i3Server\src\i3Base\i3PropertyGridDefines.cpp

; 14   : 	pList->Add( pProp);

  00044	8b 01		 mov	 eax, DWORD PTR [ecx]
  00046	52		 push	 edx
  00047	ff 50 10	 call	 DWORD PTR [eax+16]

; 15   : }

  0004a	5d		 pop	 ebp
  0004b	c3		 ret	 0
?AddMFCProperty_BeginGroup@@YAXPAVi3List@@PBD1@Z ENDP	; AddMFCProperty_BeginGroup
_TEXT	ENDS
; Function compile flags: /Ogtp
; File E:\Proyectos\JuegosOnlineproyectos\PB\pbblow\Piercing Blow Remake\i3Server\src\i3Base\i3PropertyGridDefines.cpp
;	COMDAT ?__global_array_delete@@YAXPAXI@Z
_TEXT	SEGMENT
_p$ = 8							; size = 4
_sz$ = 12						; size = 4
?__global_array_delete@@YAXPAXI@Z PROC			; __global_array_delete, COMDAT

  00000	e9 00 00 00 00	 jmp	 ??_V@YAXPAXI@Z		; operator delete[]
?__global_array_delete@@YAXPAXI@Z ENDP			; __global_array_delete
_TEXT	ENDS
; Function compile flags: /Ogtp
; File E:\Proyectos\JuegosOnlineproyectos\PB\pbblow\Piercing Blow Remake\i3Server\src\i3Base\i3PropertyGridDefines.cpp
;	COMDAT ?__global_array_delete@@YAXPAX@Z
_TEXT	SEGMENT
_p$ = 8							; size = 4
?__global_array_delete@@YAXPAX@Z PROC			; __global_array_delete, COMDAT

  00000	e9 00 00 00 00	 jmp	 ??_V@YAXPAX@Z		; operator delete[]
?__global_array_delete@@YAXPAX@Z ENDP			; __global_array_delete
_TEXT	ENDS
; Function compile flags: /Ogtp
; File E:\Proyectos\JuegosOnlineproyectos\PB\pbblow\Piercing Blow Remake\i3Server\src\i3Base\i3PropertyGridDefines.cpp
;	COMDAT ?__global_delete@@YAXPAXI@Z
_TEXT	SEGMENT
_p$ = 8							; size = 4
_sz$ = 12						; size = 4
?__global_delete@@YAXPAXI@Z PROC			; __global_delete, COMDAT

  00000	e9 00 00 00 00	 jmp	 ??3@YAXPAXI@Z		; operator delete
?__global_delete@@YAXPAXI@Z ENDP			; __global_delete
_TEXT	ENDS
; Function compile flags: /Ogtp
; File E:\Proyectos\JuegosOnlineproyectos\PB\pbblow\Piercing Blow Remake\i3Server\src\i3Base\i3PropertyGridDefines.cpp
;	COMDAT ?__empty_global_delete@@YAXPAXI@Z
_TEXT	SEGMENT
___formal$ = 8						; size = 4
___formal$ = 12						; size = 4
?__empty_global_delete@@YAXPAXI@Z PROC			; __empty_global_delete, COMDAT

  00000	c2 00 00	 ret	 0
?__empty_global_delete@@YAXPAXI@Z ENDP			; __empty_global_delete
_TEXT	ENDS
; Function compile flags: /Ogtp
; File E:\Proyectos\JuegosOnlineproyectos\PB\pbblow\Piercing Blow Remake\i3Server\src\i3Base\i3PropertyGridDefines.cpp
;	COMDAT ?__global_delete@@YAXPAX@Z
_TEXT	SEGMENT
_p$ = 8							; size = 4
?__global_delete@@YAXPAX@Z PROC				; __global_delete, COMDAT

  00000	e9 00 00 00 00	 jmp	 ??3@YAXPAX@Z		; operator delete
?__global_delete@@YAXPAX@Z ENDP				; __global_delete
_TEXT	ENDS
; Function compile flags: /Ogtp
; File E:\Proyectos\JuegosOnlineproyectos\PB\pbblow\Piercing Blow Remake\i3Server\src\i3Base\i3PropertyGridDefines.cpp
;	COMDAT ?__empty_global_delete@@YAXPAX@Z
_TEXT	SEGMENT
___formal$ = 8						; size = 4
?__empty_global_delete@@YAXPAX@Z PROC			; __empty_global_delete, COMDAT

  00000	c2 00 00	 ret	 0
?__empty_global_delete@@YAXPAX@Z ENDP			; __empty_global_delete
_TEXT	ENDS
END
