 i3Server_32bit

 Timestamp is 69b9de41 (Tue Mar 17 19:05:37 2026)

 Preferred load address is 10000000

 Start         Length     Name                   Class
 0001:00000000 00001560H .text$di                CODE
 0001:00001560 000af9e0H .text$mn                CODE
 0001:000b0f40 000046e0H .text$x                 CODE
 0001:000b5620 00000ad4H .text$yd                CODE
 0002:00000000 00000428H .idata$5                DATA
 0002:00000428 0000000cH .00cfg                  DATA
 0002:00000434 00000004H .CRT$XCA                DATA
 0002:00000438 00000010H .CRT$XCC                DATA
 0002:00000448 00000008H .CRT$XCL                DATA
 0002:00000450 0000011cH .CRT$XCU                DATA
 0002:0000056c 00000004H .CRT$XCZ                DATA
 0002:00000570 00000004H .CRT$XIA                DATA
 0002:00000574 00000014H .CRT$XIC                DATA
 0002:00000588 00000004H .CRT$XIZ                DATA
 0002:0000058c 00000004H .CRT$XLA                DATA
 0002:00000590 00000004H .CRT$XLZ                DATA
 0002:00000594 00000004H .CRT$XPA                DATA
 0002:00000598 00000008H .CRT$XPX                DATA
 0002:000005a0 00000004H .CRT$XPXA               DATA
 0002:000005a4 00000004H .CRT$XPZ                DATA
 0002:000005a8 00000004H .CRT$XTA                DATA
 0002:000005ac 00000004H .CRT$XTZ                DATA
 0002:000005b0 00000000H .gfids$y                DATA
 0002:000005b0 0000fa50H .rdata                  DATA
 0002:00010000 00000040H .rdata$CastGuardVftablesA DATA
 0002:00010040 00000040H .rdata$CastGuardVftablesC DATA
 0002:00010080 00000018H .rdata$T                DATA
 0002:00010098 000031f8H .rdata$r                DATA
 0002:00013290 00000638H .rdata$sxdata           DATA
 0002:000138c8 0000029cH .rdata$voltmd           DATA
 0002:00013b64 000004c4H .rdata$zzzdbg           DATA
 0002:00014028 00000004H .rtc$IAA                DATA
 0002:0001402c 00000004H .rtc$IZZ                DATA
 0002:00014030 00000004H .rtc$TAA                DATA
 0002:00014034 00000004H .rtc$TZZ                DATA
 0002:00014038 00000004H .tls                    DATA
 0002:0001403c 00000004H .tls$                   DATA
 0002:00014040 00000008H .tls$ZZZ                DATA
 0002:00014048 00004f6cH .xdata$x                DATA
 0002:00018fb4 00000004H ATL$__a                 DATA
 0002:00018fb8 00000008H ATL$__z                 DATA
 0002:00018fc0 00023930H .edata                  DATA
 0002:0003c8f0 00000104H .idata$2                DATA
 0002:0003c9f4 00000014H .idata$3                DATA
 0002:0003ca08 00000428H .idata$4                DATA
 0002:0003ce30 00001058H .idata$6                DATA
 0003:00000000 00001b30H .data                   DATA
 0003:00001b30 00000234H .data$r                 DATA
 0003:00001d64 0000171cH .data$rs                DATA
 0003:00003480 000057c8H .bss                    DATA
 0004:00000000 00000080H .fptable                DATA
 0005:00000000 00000280H .rsrc$01                DATA
 0005:00000280 00005bb8H .rsrc$02                DATA

  Address         Publics by Value              Rva+Base       Lib:Object

 0000:00000000       ___AbsoluteZero            00000000     <absolute>
 0000:00000000       ___arm64x_extra_rfe_table  00000000     <absolute>
 0000:00000000       ___arm64x_extra_rfe_table_size 00000000     <absolute>
 0000:00000000       ___arm64x_native_entrypoint 00000000     <absolute>
 0000:00000000       ___arm64x_redirection_metadata 00000000     <absolute>
 0000:00000000       ___arm64x_redirection_metadata_count 00000000     <absolute>
 0000:00000000       ___dynamic_value_reloc_table 00000000     <absolute>
 0000:00000000       ___enclave_config          00000000     <absolute>
 0000:00000000       ___guard_check_icall_a64n_fptr 00000000     <absolute>
 0000:00000000       ___guard_eh_cont_count     00000000     <absolute>
 0000:00000000       ___guard_eh_cont_table     00000000     <absolute>
 0000:00000000       ___guard_fids_count        00000000     <absolute>
 0000:00000000       ___guard_fids_table        00000000     <absolute>
 0000:00000000       ___guard_iat_count         00000000     <absolute>
 0000:00000000       ___guard_iat_table         00000000     <absolute>
 0000:00000000       ___guard_longjmp_count     00000000     <absolute>
 0000:00000000       ___guard_longjmp_table     00000000     <absolute>
 0000:00000000       ___hybrid_auxiliary_delayload_iat 00000000     <absolute>
 0000:00000000       ___hybrid_auxiliary_delayload_iat_copy 00000000     <absolute>
 0000:00000000       ___hybrid_auxiliary_iat    00000000     <absolute>
 0000:00000000       ___hybrid_auxiliary_iat_copy 00000000     <absolute>
 0000:00000000       ___hybrid_code_map         00000000     <absolute>
 0000:00000000       ___hybrid_code_map_count   00000000     <absolute>
 0000:00000000       ___hybrid_image_info_bitfield 00000000     <absolute>
 0000:00000000       ___x64_code_ranges_to_entry_points 00000000     <absolute>
 0000:00000000       ___x64_code_ranges_to_entry_points_count 00000000     <absolute>
 0000:00000000       __except_list              00000000     <absolute>
 0000:0000002c       __tls_array                0000002c     <absolute>
 0000:00000100       ___guard_flags             00000100     <absolute>
 0000:0000018e       ___safe_se_handler_count   0000018e     <absolute>
 0000:00000000       ___ImageBase               10000000     <linker-defined>
 0001:00001560       ?Allocate@CAtlStringMgr@ATL@@UAEPAUCStringData@2@HH@Z 10002560 f i i3PDH.obj
 0001:000015d0       ?Free@CAtlStringMgr@ATL@@UAEXPAUCStringData@2@@Z 100025d0 f i i3PDH.obj
 0001:000015e0       ?Reallocate@CAtlStringMgr@ATL@@UAEPAUCStringData@2@PAU32@HH@Z 100025e0 f i i3PDH.obj
 0001:00001640       ?GetNilString@CAtlStringMgr@ATL@@UAEPAUCStringData@2@XZ 10002640 f i i3PDH.obj
 0001:00001650       ?Clone@CAtlStringMgr@ATL@@UAEPAUIAtlStringMgr@2@XZ 10002650 f i i3PDH.obj
 0001:00001660       ??_ECAtlStringMgr@ATL@@UAEPAXI@Z 10002660 f i i3PDH.obj
 0001:00001660       ??_GCAtlStringMgr@ATL@@UAEPAXI@Z 10002660 f i i3PDH.obj
 0001:00001690       ?Allocate@CWin32Heap@ATL@@UAEPAXI@Z 10002690 f i i3PDH.obj
 0001:000016b0       ?Free@CWin32Heap@ATL@@UAEXPAX@Z 100026b0 f i i3PDH.obj
 0001:000016d0       ?Reallocate@CWin32Heap@ATL@@UAEPAXPAXI@Z 100026d0 f i i3PDH.obj
 0001:00001710       ?GetSize@CWin32Heap@ATL@@UAEIPAX@Z 10002710 f i i3PDH.obj
 0001:00001730       ??_ECWin32Heap@ATL@@UAEPAXI@Z 10002730 f i i3PDH.obj
 0001:00001730       ??_GCWin32Heap@ATL@@UAEPAXI@Z 10002730 f i i3PDH.obj
 0001:00001770       ??0CAtlException@ATL@@QAE@J@Z 10002770 f i i3PDH.obj
 0001:00001780       ??0i3ClassMeta@@QAE@ABV0@@Z 10002780 f i i3PDH.obj
 0001:000017e0       ??0i3DateTime@@QAE@ABV0@@Z 100027e0 f i i3PDH.obj
 0001:00001840       ??0i3ElementBase@@QAE@ABV0@@Z 10002840 f i i3PDH.obj
 0001:00001870       ??0i3MemoryPool@@QAE@ABV0@@Z 10002870 f i i3PDH.obj
 0001:00001880       ??0i3PDH@@QAE@XZ           10002880 f   i3PDH.obj
 0001:00001920       ??0i3Thread@@QAE@ABV0@@Z   10002920 f i i3PDH.obj
 0001:000019a0       ??1CAtlStringMgr@ATL@@UAE@XZ 100029a0 f i i3PDH.obj
 0001:000019b0       ??1CWin32Heap@ATL@@UAE@XZ  100029b0 f i i3PDH.obj
 0001:000019d0       ??1i3PDH@@QAE@XZ           100029d0 f   i3PDH.obj
 0001:000019e0       ??4i3ClassMeta@@QAEAAV0@ABV0@@Z 100029e0 f i i3PDH.obj
 0001:00001a40       ??4i3DateTime@@QAEAAV0@ABV0@@Z 10002a40 f i i3PDH.obj
 0001:00001aa0       ??4i3ElementBase@@QAEAAV0@ABV0@@Z 10002aa0 f i i3PDH.obj
 0001:00001ac0       ??4i3MemoryPool@@QAEAAV0@ABV0@@Z 10002ac0 f i i3PDH.obj
 0001:00001ad0       ??4i3PDH@@QAEAAV0@ABV0@@Z  10002ad0 f i i3PDH.obj
 0001:00001af0       ??4i3Thread@@QAEAAV0@ABV0@@Z 10002af0 f i i3PDH.obj
 0001:00001b60       ??_Ei3ClassMeta@@UAEPAXI@Z 10002b60 f i i3PDH.obj
 0001:00001c10       ??_Ei3DateTime@@UAEPAXI@Z  10002c10 f i i3PDH.obj
 0001:00001cd0       ??_Ei3ElementBase@@UAEPAXI@Z 10002cd0 f i i3PDH.obj
 0001:00001d90       ??_Ei3MemoryPool@@UAEPAXI@Z 10002d90 f i i3PDH.obj
 0001:00001e40       ??_Ei3Thread@@UAEPAXI@Z    10002e40 f i i3PDH.obj
 0001:00001ef0       ??_Gi3ClassMeta@@UAEPAXI@Z 10002ef0 f i i3PDH.obj
 0001:00001f20       ??_Gi3DateTime@@UAEPAXI@Z  10002f20 f i i3PDH.obj
 0001:00001f60       ??_Gi3ElementBase@@UAEPAXI@Z 10002f60 f i i3PDH.obj
 0001:00001fa0       ??_Gi3MemoryPool@@UAEPAXI@Z 10002fa0 f i i3PDH.obj
 0001:00001fd0       ??_Gi3Thread@@UAEPAXI@Z    10002fd0 f i i3PDH.obj
 0001:00002010       ?AddRef@i3ElementBase@@QAEHXZ 10003010 f i i3PDH.obj
 0001:00002020       ?AddStyle@i3ClassMeta@@QAEXI@Z 10003020 f i i3PDH.obj
 0001:00002030       ?AtlThrowImpl@ATL@@YGXJ@Z  10003030 f i i3PDH.obj
 0001:00002050       ?CheckAllPerformWarning@i3PDH@@QAEHXZ 10003050 f   i3PDH.obj
 0001:00002130       ?Create@i3PDH@@QAEHPAD@Z   10003130 f   i3PDH.obj
 0001:000023b0       ?Destroy@i3PDH@@QAEXXZ     100033b0 f   i3PDH.obj
 0001:000023f0       ?EnsureLinked@CAtlStringMgrStaticInitializer@ATLImplementationDetails@ATL@@QAEPAXXZ 100033f0 f i i3PDH.obj
 0001:00002400       ?GetBaseClassMeta@i3ClassMeta@@QAEPAV1@XZ 10003400 f i i3PDH.obj
 0001:00002410       ?GetClassMeta@i3DateTime@@SAPAVi3ClassMeta@@XZ 10003410 f i i3PDH.obj
 0001:00002420       ?GetClassMeta@i3ElementBase@@SAPAVi3ClassMeta@@XZ 10003420 f i i3PDH.obj
 0001:00002430       ?GetClassMeta@i3Thread@@SAPAVi3ClassMeta@@XZ 10003430 f i i3PDH.obj
 0001:00002440       ?GetClassNameA@i3ClassMeta@@QAEPADXZ 10003440 f i i3PDH.obj
 0001:00002450       ?GetClassSize@i3ClassMeta@@QAEIXZ 10003450 f i i3PDH.obj
 0001:00002460       ?GetDate@DATE32@@QAEIXZ    10003460 f i i3PDH.obj
 0001:00002470       ?GetDay@DATE32@@QAEHXZ     10003470 f i i3PDH.obj
 0001:00002480       ?GetFirstThread@i3Thread@@SAPAV1@XZ 10003480 f i i3PDH.obj
 0001:00002490       ?GetHour@DATE32@@QAEHXZ    10003490 f i i3PDH.obj
 0001:000024a0       ?GetInstance@CAtlStringMgr@ATL@@SAPAUIAtlStringMgr@2@XZ 100034a0 f i i3PDH.obj
 0001:000025a0       ?GetLocalDiskCount@i3PDH@@QAEHXZ 100035a0 f i i3PDH.obj
 0001:000025b0       ?GetLocalTime@i3DateTime@@QAE?AVDATE32@@XZ 100035b0 f i i3PDH.obj
 0001:000025d0       ?GetMemoryPool@i3ClassMeta@@QAEPAVi3MemoryPool@@XZ 100035d0 f i i3PDH.obj
 0001:000025e0       ?GetMinute@DATE32@@QAEHXZ  100035e0 f i i3PDH.obj
 0001:000025f0       ?GetMonth@DATE32@@QAEHXZ   100035f0 f i i3PDH.obj
 0001:00002600       ?GetParam@i3Thread@@QAEPAXXZ 10003600 f i i3PDH.obj
 0001:00002610       ?GetPriority@i3Thread@@QAEHXZ 10003610 f i i3PDH.obj
 0001:00002620       ?GetRefCount@i3ElementBase@@QAEHXZ 10003620 f i i3PDH.obj
 0001:00002630       ?GetReturnCode@i3Thread@@QAEIXZ 10003630 f i i3PDH.obj
 0001:00002640       ?GetSecond@DATE32@@QAEHXZ  10003640 f i i3PDH.obj
 0001:00002650       ?GetServerTime@i3DateTime@@QAEIXZ 10003650 f i i3PDH.obj
 0001:00002660       ?GetServerTimeMilli@i3DateTime@@QAEIXZ 10003660 f i i3PDH.obj
 0001:00002670       ?GetStandTime@i3DateTime@@QAE?AVDATE32@@XZ 10003670 f i i3PDH.obj
 0001:00002690       ?GetState@i3Thread@@QAEIXZ 10003690 f i i3PDH.obj
 0001:000026a0       ?GetStyle@i3ClassMeta@@QAEIXZ 100036a0 f i i3PDH.obj
 0001:000026b0       ?GetThreadID@i3Thread@@QAEIXZ 100036b0 f i i3PDH.obj
 0001:000026c0       ?GetValue@i3PDH@@QAE_JH@Z  100036c0 f   i3PDH.obj
 0001:00002780       ?GetYear@DATE32@@QAEHXZ    10003780 f i i3PDH.obj
 0001:00002790       ?IsAbstractClass@i3ClassMeta@@QAEHXZ 10003790 f i i3PDH.obj
 0001:000027a0       ?IsConcreteClass@i3ClassMeta@@QAEHXZ 100037a0 f i i3PDH.obj
 0001:000027b0       ?IsExactTypeOf@i3ClassMeta@@QAE_NPAV1@@Z 100037b0 f i i3PDH.obj
 0001:000027c0       ?IsExactTypeOf@i3ElementBase@@QAE_NPAVi3ClassMeta@@@Z 100037c0 f i i3PDH.obj
 0001:000027e0       ?IsStyle@i3ClassMeta@@QAEHI@Z 100037e0 f i i3PDH.obj
 0001:00002800       ?IsTypeOf@i3ElementBase@@QAE_NPAVi3ClassMeta@@@Z 10003800 f i i3PDH.obj
 0001:00002820       ?OnRunning@i3Thread@@UAEIPAX@Z 10003820 f i i3PDH.obj
 0001:00002830       ?RemoveStyle@i3ClassMeta@@QAEXI@Z 10003830 f i i3PDH.obj
 0001:00002840       ?Reset@DATE32@@QAEXXZ      10003840 f i i3PDH.obj
 0001:00002850       ?SetMemoryPool@i3ClassMeta@@QAEXPAVi3MemoryPool@@@Z 10003850 f i i3PDH.obj
 0001:00002860       ?SetStyle@i3ClassMeta@@QAEXI@Z 10003860 f i i3PDH.obj
 0001:00002870       ?_AtlInitializeCriticalSectionEx@ATL@@YAHPAU_RTL_CRITICAL_SECTION@@KK@Z 10003870 f i i3PDH.obj
 0001:00002890       ?__GetMemoryPool@i3ElementBase@@QAEPAVi3MemoryPool@@XZ 10003890 f i i3PDH.obj
 0001:000028a0       ?__SetMemoryPool@i3ElementBase@@QAEXPAVi3MemoryPool@@@Z 100038a0 f i i3PDH.obj
 0001:000028b0       ?__empty_global_delete@@YAXPAX@Z 100038b0 f i i3PDH.obj
 0001:000028c0       ?__empty_global_delete@@YAXPAXI@Z 100038c0 f i i3PDH.obj
 0001:000028d0       ?__global_array_delete@@YAXPAX@Z 100038d0 f i i3PDH.obj
 0001:000028e0       ?__global_array_delete@@YAXPAXI@Z 100038e0 f i i3PDH.obj
 0001:000028f0       ?__global_delete@@YAXPAX@Z 100038f0 f i i3PDH.obj
 0001:00002900       ?__global_delete@@YAXPAXI@Z 10003900 f i i3PDH.obj
 0001:00002910       ?_internal_SetRefCount@i3ElementBase@@QAEXH@Z 10003910 f i i3PDH.obj
 0001:00002920       ?getHashCode@i3ClassMeta@@QAEIXZ 10003920 f i i3PDH.obj
 0001:00002930       ___local_stdio_printf_options 10003930 f i i3PDH.obj
 0001:00002940       _sprintf                   10003940 f i i3PDH.obj
 0001:00002980       ??0i3Warning@@QAE@XZ       10003980 f   i3Warning.obj
 0001:000029c0       ??1i3Warning@@QAE@XZ       100039c0 f   i3Warning.obj
 0001:000029d0       ??4i3Warning@@QAEAAV0@ABV0@@Z 100039d0 f i i3Warning.obj
 0001:000029f0       ?GetFlagWarningLevel@i3Warning@@QAEIH@Z 100039f0 f   i3Warning.obj
 0001:00002a20       ?GetWarningInfo@i3Warning@@QAEIH@Z 10003a20 f   i3Warning.obj
 0001:00002ac0       ?SetWarningInfo@i3Warning@@QAEHHH@Z 10003ac0 f   i3Warning.obj
 0001:00002b10       ??0DATE32@@QAE@I@Z         10003b10 f   DATE32.obj
 0001:00002b20       ??0DATE32@@QAE@XZ          10003b20 f   DATE32.obj
 0001:00002b30       ??1DATE32@@QAE@XZ          10003b30 f   DATE32.obj
 0001:00002b40       ??4DATE32@@QAEAAV0@ABN@Z   10003b40 f i DATE32.obj
 0001:00002ce0       ??4DATE32@@QAEAAV0@ABU_SYSTEMTIME@@@Z 10003ce0 f i DATE32.obj
 0001:00002d40       ??4DATE32@@QAEAAV0@ABUtm@@@Z 10003d40 f i DATE32.obj
 0001:00002d90       ??4DATE32@@QAEAAV0@ABV0@@Z 10003d90 f i DATE32.obj
 0001:00002da0       ??4DATE32@@QAEAAV0@I@Z     10003da0 f i DATE32.obj
 0001:00002db0       ?AddTime@DATE32@@QAEXW4I3DATE_ADD_TYPE@@H@Z 10003db0 f   DATE32.obj
 0001:00002ec0       ?CheckDATE32@DATE32@@QAEXXZ 10003ec0 f   DATE32.obj
 0001:00002f10       ?DiffTime@DATE32@@QAEHV1@@Z 10003f10 f   DATE32.obj
 0001:00002ff0       ?GetDateTimeBin@DATE32@@QAEIH@Z 10003ff0 f i DATE32.obj
 0001:00003000       ?GetDateTimeMMDDHHMISS@DATE32@@QAEIXZ 10004000 f i DATE32.obj
 0001:00003040       ?GetDateTimeYYMMDDHHMI@DATE32@@QAEIXZ 10004040 f i DATE32.obj
 0001:000030a0       ?GetDateTimeYYYYMMDD@DATE32@@QAEIXZ 100040a0 f i DATE32.obj
 0001:000030d0       ?GetSmallDate@DATE32@@QAEXPADH@Z 100040d0 f i DATE32.obj
 0001:00003150       ?GetSmallDate@DATE32@@QAEXPAGH@Z 10004150 f i DATE32.obj
 0001:000031d0       ?CreateInstance@?$i3MetaTemplate@Vi3DateTime@@@@UAEPAVi3ElementBase@@W4I3_CLASSMETA_TYPE@@@Z 100041d0 f i i3DateTime.obj
 0001:000032b0       ?BindInstance@?$i3MetaTemplate@Vi3DateTime@@@@UAEPAVi3ElementBase@@PAXW4I3_CLASSMETA_TYPE@@@Z 100042b0 f i i3DateTime.obj
 0001:00003350       ??_E?$i3MetaTemplate@Vi3DateTime@@@@UAEPAXI@Z 10004350 f i i3DateTime.obj
 0001:00003350       ??_G?$i3MetaTemplate@Vi3DateTime@@@@UAEPAXI@Z 10004350 f i i3DateTime.obj
 0001:00003380       ??0?$i3MetaTemplate@Vi3DateTime@@@@QAE@IPAD0W4I3_CLASSMETA_TYPE@@@Z 10004380 f i i3DateTime.obj
 0001:000033b0       ??0i3DateTime@@QAE@XZ      100043b0 f   i3DateTime.obj
 0001:00003440       ??1i3DateTime@@UAE@XZ      10004440 f   i3DateTime.obj
 0001:000034b0       ?Destroy@i3ThreadTimer@@YAXXZ 100044b0 f   i3DateTime.obj
 0001:000034d0       ?GetMeta@i3DateTime@@UAEPAVi3ClassMeta@@XZ 100044d0 f   i3DateTime.obj
 0001:000034e0       ?GetServerTime@i3ThreadTimer@@YAIXZ 100044e0 f   i3DateTime.obj
 0001:000034f0       ?GetServerTimeMilli@i3ThreadTimer@@YAIXZ 100044f0 f   i3DateTime.obj
 0001:00003500       ?Init@i3ThreadTimer@@YAHXZ 10004500 f   i3DateTime.obj
 0001:00003530       ?LocalTime@i3ThreadTimer@@YA?AVDATE32@@XZ 10004530 f   i3DateTime.obj
 0001:00003550       ?OnRunning@i3DateTime@@UAEIPAX@Z 10004550 f   i3DateTime.obj
 0001:00003620       ?RegisterMeta@i3DateTime@@SAXXZ 10004620 f   i3DateTime.obj
 0001:00003630       ?SetConcreteClass@i3DateTime@@SAXPAVi3ClassMeta@@@Z 10004630 f   i3DateTime.obj
 0001:00003650       ?SetGhostClass@i3DateTime@@SAXPAVi3ClassMeta@@@Z 10004650 f   i3DateTime.obj
 0001:00003670       ?StandTime@i3ThreadTimer@@YA?AVDATE32@@XZ 10004670 f   i3DateTime.obj
 0001:00003690       ?_BindObject@i3DateTime@@SAPAV1@PAX@Z 10004690 f   i3DateTime.obj
 0001:000036b0       ?_BindObjectByType@i3DateTime@@SAPAV1@PAXW4I3_CLASSMETA_TYPE@@@Z 100046b0 f   i3DateTime.obj
 0001:000036d0       ?_BindObjectRef@i3DateTime@@SAPAV1@PAX@Z 100046d0 f   i3DateTime.obj
 0001:000036f0       ?_BindObjectRefByType@i3DateTime@@SAPAV1@PAXW4I3_CLASSMETA_TYPE@@@Z 100046f0 f   i3DateTime.obj
 0001:00003710       ?_NewObject@i3DateTime@@SAPAV1@XZ 10004710 f   i3DateTime.obj
 0001:00003730       ?_NewObjectByType@i3DateTime@@SAPAV1@W4I3_CLASSMETA_TYPE@@@Z 10004730 f   i3DateTime.obj
 0001:00003750       ?_NewObjectRef@i3DateTime@@SAPAV1@XZ 10004750 f   i3DateTime.obj
 0001:00003760       ?_NewObjectRefByType@i3DateTime@@SAPAV1@W4I3_CLASSMETA_TYPE@@@Z 10004760 f   i3DateTime.obj
 0001:00003780       ?CreateInstance@?$i3MetaTemplate@Vi3LinearRand@@@@UAEPAVi3ElementBase@@W4I3_CLASSMETA_TYPE@@@Z 10004780 f i i3LinearRand.obj
 0001:00003850       ?BindInstance@?$i3MetaTemplate@Vi3LinearRand@@@@UAEPAVi3ElementBase@@PAXW4I3_CLASSMETA_TYPE@@@Z 10004850 f i i3LinearRand.obj
 0001:00003910       ??_E?$i3MetaTemplate@Vi3LinearRand@@@@UAEPAXI@Z 10004910 f i i3LinearRand.obj
 0001:00003910       ??_G?$i3MetaTemplate@Vi3LinearRand@@@@UAEPAXI@Z 10004910 f i i3LinearRand.obj
 0001:00003940       ??0?$i3MetaTemplate@Vi3LinearRand@@@@QAE@IPAD0W4I3_CLASSMETA_TYPE@@@Z 10004940 f i i3LinearRand.obj
 0001:00003970       ??0i3LinearRand@@QAE@ABV0@@Z 10004970 f i i3LinearRand.obj
 0001:000039d0       ??0i3LinearRand@@QAE@XZ    100049d0 f   i3LinearRand.obj
 0001:00003a10       ??1i3LinearRand@@UAE@XZ    10004a10 f   i3LinearRand.obj
 0001:00003a60       ??4i3LinearRand@@QAEAAV0@ABV0@@Z 10004a60 f i i3LinearRand.obj
 0001:00003ab0       ??_Ei3LinearRand@@UAEPAXI@Z 10004ab0 f i i3LinearRand.obj
 0001:00003b80       ??_Gi3LinearRand@@UAEPAXI@Z 10004b80 f i i3LinearRand.obj
 0001:00003c10       ?Create@i3LinearRand@@QAEHHH@Z 10004c10 f   i3LinearRand.obj
 0001:00003ca0       ?Destory@i3LinearRand@@QAEXXZ 10004ca0 f   i3LinearRand.obj
 0001:00003ce0       ?GetClassMeta@i3LinearRand@@SAPAVi3ClassMeta@@XZ 10004ce0 f i i3LinearRand.obj
 0001:00003cf0       ?GetMeta@i3LinearRand@@UAEPAVi3ClassMeta@@XZ 10004cf0 f   i3LinearRand.obj
 0001:00003d00       ?LockBuffer@i3LinearRand@@QAEXXZ 10004d00 f   i3LinearRand.obj
 0001:00003d30       ?Rand@i3LinearRand@@QAEHXZ 10004d30 f   i3LinearRand.obj
 0001:00003dc0       ?RegisterMeta@i3LinearRand@@SAXXZ 10004dc0 f   i3LinearRand.obj
 0001:00003dd0       ?SetConcreteClass@i3LinearRand@@SAXPAVi3ClassMeta@@@Z 10004dd0 f   i3LinearRand.obj
 0001:00003df0       ?SetData@i3LinearRand@@QAEHH@Z 10004df0 f   i3LinearRand.obj
 0001:00003e30       ?SetGhostClass@i3LinearRand@@SAXPAVi3ClassMeta@@@Z 10004e30 f   i3LinearRand.obj
 0001:00003e50       ?UnLockBuffer@i3LinearRand@@QAEXXZ 10004e50 f   i3LinearRand.obj
 0001:00003e60       ?_BindObject@i3LinearRand@@SAPAV1@PAX@Z 10004e60 f   i3LinearRand.obj
 0001:00003e80       ?_BindObjectByType@i3LinearRand@@SAPAV1@PAXW4I3_CLASSMETA_TYPE@@@Z 10004e80 f   i3LinearRand.obj
 0001:00003ea0       ?_BindObjectRef@i3LinearRand@@SAPAV1@PAX@Z 10004ea0 f   i3LinearRand.obj
 0001:00003ec0       ?_BindObjectRefByType@i3LinearRand@@SAPAV1@PAXW4I3_CLASSMETA_TYPE@@@Z 10004ec0 f   i3LinearRand.obj
 0001:00003ee0       ?_ChangeBuffer@i3LinearRand@@IAEXXZ 10004ee0 f i i3LinearRand.obj
 0001:00003ef0       ?_GetCurIdx@i3LinearRand@@IAEHXZ 10004ef0 f i i3LinearRand.obj
 0001:00003f00       ?_GetNexIdx@i3LinearRand@@IAEHXZ 10004f00 f i i3LinearRand.obj
 0001:00003f10       ?_NewObject@i3LinearRand@@SAPAV1@XZ 10004f10 f   i3LinearRand.obj
 0001:00003f30       ?_NewObjectByType@i3LinearRand@@SAPAV1@W4I3_CLASSMETA_TYPE@@@Z 10004f30 f   i3LinearRand.obj
 0001:00003f50       ?_NewObjectRef@i3LinearRand@@SAPAV1@XZ 10004f50 f   i3LinearRand.obj
 0001:00003f60       ?_NewObjectRefByType@i3LinearRand@@SAPAV1@W4I3_CLASSMETA_TYPE@@@Z 10004f60 f   i3LinearRand.obj
 0001:00003f80       ?CreateInstance@?$i3MetaTemplate@Vi3LogFileA@@@@UAEPAVi3ElementBase@@W4I3_CLASSMETA_TYPE@@@Z 10004f80 f i i3LogFileA.obj
 0001:00004050       ?BindInstance@?$i3MetaTemplate@Vi3LogFileA@@@@UAEPAVi3ElementBase@@PAXW4I3_CLASSMETA_TYPE@@@Z 10005050 f i i3LogFileA.obj
 0001:00004110       ??_E?$i3MetaTemplate@Vi3LogFileA@@@@UAEPAXI@Z 10005110 f i i3LogFileA.obj
 0001:00004110       ??_G?$i3MetaTemplate@Vi3LogFileA@@@@UAEPAXI@Z 10005110 f i i3LogFileA.obj
 0001:00004140       ??0?$i3MetaTemplate@Vi3LogFileA@@@@QAE@IPAD0W4I3_CLASSMETA_TYPE@@@Z 10005140 f i i3LogFileA.obj
 0001:00004170       ??0i3LogFileA@@QAE@ABV0@@Z 10005170 f i i3LogFileA.obj
 0001:000041d0       ??0i3LogFileA@@QAE@XZ      100051d0 f   i3LogFileA.obj
 0001:00004200       ??0i3LogFileBase@@QAE@ABV0@@Z 10005200 f i i3LogFileA.obj
 0001:000043d0       ??0i3Mutex@@QAE@ABV0@@Z    100053d0 f i i3LogFileA.obj
 0001:00004420       ??0i3RingBuffer@@QAE@ABV0@@Z 10005420 f i i3LogFileA.obj
 0001:00004470       ??1i3LogFileA@@UAE@XZ      10005470 f   i3LogFileA.obj
 0001:00004480       ??4i3LogFileA@@QAEAAV0@ABV0@@Z 10005480 f i i3LogFileA.obj
 0001:00004500       ??4i3LogFileBase@@QAEAAV0@ABV0@@Z 10005500 f i i3LogFileA.obj
 0001:000046d0       ??4i3Monitor2@@QAEAAV0@ABV0@@Z 100056d0 f i i3LogFileA.obj
 0001:000046e0       ??4i3Mutex2@@QAEAAV0@ABV0@@Z 100056e0 f i i3LogFileA.obj
 0001:00004710       ??4i3Mutex@@QAEAAV0@ABV0@@Z 10005710 f i i3LogFileA.obj
 0001:00004760       ??4i3RingBuffer@@QAEAAV0@ABV0@@Z 10005760 f i i3LogFileA.obj
 0001:000047a0       ??_Ei3LogFileA@@UAEPAXI@Z  100057a0 f i i3LogFileA.obj
 0001:00004860       ??_Ei3LogFileBase@@UAEPAXI@Z 10005860 f i i3LogFileA.obj
 0001:00004920       ??_Ei3Mutex@@UAEPAXI@Z     10005920 f i i3LogFileA.obj
 0001:000049e0       ??_Ei3RingBuffer@@UAEPAXI@Z 100059e0 f i i3LogFileA.obj
 0001:00004aa0       ??_Gi3LogFileA@@UAEPAXI@Z  10005aa0 f i i3LogFileA.obj
 0001:00004af0       ??_Gi3LogFileBase@@UAEPAXI@Z 10005af0 f i i3LogFileA.obj
 0001:00004b30       ??_Gi3Mutex@@UAEPAXI@Z     10005b30 f i i3LogFileA.obj
 0001:00004b70       ??_Gi3RingBuffer@@UAEPAXI@Z 10005b70 f i i3LogFileA.obj
 0001:00004bb0       ?AddLogThread@i3LogFileA@@QAEHPADHK@Z 10005bb0 f   i3LogFileA.obj
 0001:00004c90       ?Create@i3LogFileA@@QAEHPAD0HHH@Z 10005c90 f   i3LogFileA.obj
 0001:00004d60       ?Destroy@i3LogFileA@@QAEXXZ 10005d60 f   i3LogFileA.obj
 0001:00004d70       ?GetClassMeta@i3LogFileA@@SAPAVi3ClassMeta@@XZ 10005d70 f i i3LogFileA.obj
 0001:00004d80       ?GetClassMeta@i3LogFileBase@@SAPAVi3ClassMeta@@XZ 10005d80 f i i3LogFileA.obj
 0001:00004d90       ?GetClassMeta@i3Mutex@@SAPAVi3ClassMeta@@XZ 10005d90 f i i3LogFileA.obj
 0001:00004da0       ?GetClassMeta@i3RingBuffer@@SAPAVi3ClassMeta@@XZ 10005da0 f i i3LogFileA.obj
 0001:00004db0       ?GetMeta@i3LogFileA@@UAEPAVi3ClassMeta@@XZ 10005db0 f   i3LogFileA.obj
 0001:00004dc0       ?GetWarning@i3LogFileBase@@QAE?AVi3Warning@@XZ 10005dc0 f i i3LogFileA.obj
 0001:00004de0       ?RegisterMeta@i3LogFileA@@SAXXZ 10005de0 f   i3LogFileA.obj
 0001:00004df0       ?SetConcreteClass@i3LogFileA@@SAXPAVi3ClassMeta@@@Z 10005df0 f   i3LogFileA.obj
 0001:00004e10       ?SetGhostClass@i3LogFileA@@SAXPAVi3ClassMeta@@@Z 10005e10 f   i3LogFileA.obj
 0001:00004e30       ?WriteLog@i3LogFileA@@QAAXHHPADZZ 10005e30 f   i3LogFileA.obj
 0001:00004ec0       ?WriteLog@i3LogFileA@@QAAXPADZZ 10005ec0 f   i3LogFileA.obj
 0001:00004f30       ?_BindObject@i3LogFileA@@SAPAV1@PAX@Z 10005f30 f   i3LogFileA.obj
 0001:00004f50       ?_BindObjectByType@i3LogFileA@@SAPAV1@PAXW4I3_CLASSMETA_TYPE@@@Z 10005f50 f   i3LogFileA.obj
 0001:00004f70       ?_BindObjectRef@i3LogFileA@@SAPAV1@PAX@Z 10005f70 f   i3LogFileA.obj
 0001:00004f90       ?_BindObjectRefByType@i3LogFileA@@SAPAV1@PAXW4I3_CLASSMETA_TYPE@@@Z 10005f90 f   i3LogFileA.obj
 0001:00004fb0       ?_CreateFile@i3LogFileA@@MAEHXZ 10005fb0 f   i3LogFileA.obj
 0001:000050c0       ?_NewObject@i3LogFileA@@SAPAV1@XZ 100060c0 f   i3LogFileA.obj
 0001:000050e0       ?_NewObjectByType@i3LogFileA@@SAPAV1@W4I3_CLASSMETA_TYPE@@@Z 100060e0 f   i3LogFileA.obj
 0001:00005100       ?_NewObjectRef@i3LogFileA@@SAPAV1@XZ 10006100 f   i3LogFileA.obj
 0001:00005110       ?_NewObjectRefByType@i3LogFileA@@SAPAV1@W4I3_CLASSMETA_TYPE@@@Z 10006110 f   i3LogFileA.obj
 0001:00005130       ?_UpdateTime@i3LogFileBase@@IAEXXZ 10006130 f i i3LogFileA.obj
 0001:00005190       ?_Working@i3LogFileA@@MAEHXZ 10006190 f   i3LogFileA.obj
 0001:00005220       ?_WriteLog@i3LogFileA@@IAEXPAD@Z 10006220 f   i3LogFileA.obj
 0001:00005290       ?_WriteLogFile@i3LogFileA@@IAEXPAD@Z 10006290 f   i3LogFileA.obj
 0001:000052c0       _printf                    100062c0 f i i3LogFileA.obj
 0001:000052f0       ?CreateInstance@?$i3MetaTemplate@Vi3LogFileBase@@@@UAEPAVi3ElementBase@@W4I3_CLASSMETA_TYPE@@@Z 100062f0 f i i3LogFileBase.obj
 0001:000053d0       ?BindInstance@?$i3MetaTemplate@Vi3LogFileBase@@@@UAEPAVi3ElementBase@@PAXW4I3_CLASSMETA_TYPE@@@Z 100063d0 f i i3LogFileBase.obj
 0001:00005470       ??_E?$i3MetaTemplate@Vi3LogFileBase@@@@UAEPAXI@Z 10006470 f i i3LogFileBase.obj
 0001:00005470       ??_G?$i3MetaTemplate@Vi3LogFileBase@@@@UAEPAXI@Z 10006470 f i i3LogFileBase.obj
 0001:000054a0       ??0?$i3MetaTemplate@Vi3LogFileBase@@@@QAE@IPAD0W4I3_CLASSMETA_TYPE@@@Z 100064a0 f i i3LogFileBase.obj
 0001:000054d0       ??0i3LogFileBase@@QAE@XZ   100064d0 f   i3LogFileBase.obj
 0001:00005570       ??1i3LogFileBase@@UAE@XZ   10006570 f   i3LogFileBase.obj
 0001:000055e0       ?Destroy@i3LogFileBase@@QAEXXZ 100065e0 f   i3LogFileBase.obj
 0001:00005630       ?GetMeta@i3LogFileBase@@UAEPAVi3ClassMeta@@XZ 10006630 f   i3LogFileBase.obj
 0001:00005640       ?RegisterMeta@i3LogFileBase@@SAXXZ 10006640 f   i3LogFileBase.obj
 0001:00005650       ?SetConcreteClass@i3LogFileBase@@SAXPAVi3ClassMeta@@@Z 10006650 f   i3LogFileBase.obj
 0001:00005670       ?SetGhostClass@i3LogFileBase@@SAXPAVi3ClassMeta@@@Z 10006670 f   i3LogFileBase.obj
 0001:00005690       ?SetVersion@i3LogFileBase@@QAEXGGII@Z 10006690 f   i3LogFileBase.obj
 0001:000056c0       ?Working@i3LogFileBase@@QAEXXZ 100066c0 f   i3LogFileBase.obj
 0001:00005760       ?_BindObject@i3LogFileBase@@SAPAV1@PAX@Z 10006760 f   i3LogFileBase.obj
 0001:00005780       ?_BindObjectByType@i3LogFileBase@@SAPAV1@PAXW4I3_CLASSMETA_TYPE@@@Z 10006780 f   i3LogFileBase.obj
 0001:000057a0       ?_BindObjectRef@i3LogFileBase@@SAPAV1@PAX@Z 100067a0 f   i3LogFileBase.obj
 0001:000057c0       ?_BindObjectRefByType@i3LogFileBase@@SAPAV1@PAXW4I3_CLASSMETA_TYPE@@@Z 100067c0 f   i3LogFileBase.obj
 0001:000057e0       ?_Create@i3LogFileBase@@IAEHHHH@Z 100067e0 f   i3LogFileBase.obj
 0001:00005830       ?_CreateFile@i3LogFileBase@@MAEHXZ 10006830 f   i3LogFileBase.obj
 0001:00005850       ?_FindWorkIdx@i3LogFileBase@@IAEHK@Z 10006850 f   i3LogFileBase.obj
 0001:00005880       ?_FindWorkIdx@i3LogFileBase@@IAEHXZ 10006880 f   i3LogFileBase.obj
 0001:000058b0       ?_NewObject@i3LogFileBase@@SAPAV1@XZ 100068b0 f   i3LogFileBase.obj
 0001:000058d0       ?_NewObjectByType@i3LogFileBase@@SAPAV1@W4I3_CLASSMETA_TYPE@@@Z 100068d0 f   i3LogFileBase.obj
 0001:000058f0       ?_NewObjectRef@i3LogFileBase@@SAPAV1@XZ 100068f0 f   i3LogFileBase.obj
 0001:00005900       ?_NewObjectRefByType@i3LogFileBase@@SAPAV1@W4I3_CLASSMETA_TYPE@@@Z 10006900 f   i3LogFileBase.obj
 0001:00005920       ?_Working@i3LogFileBase@@MAEHXZ 10006920 f   i3LogFileBase.obj
 0001:00005930       ?CreateInstance@?$i3MetaTemplate@Vi3LogFileW@@@@UAEPAVi3ElementBase@@W4I3_CLASSMETA_TYPE@@@Z 10006930 f i i3LogFileW.obj
 0001:00005a10       ?BindInstance@?$i3MetaTemplate@Vi3LogFileW@@@@UAEPAVi3ElementBase@@PAXW4I3_CLASSMETA_TYPE@@@Z 10006a10 f i i3LogFileW.obj
 0001:00005ad0       ??_E?$i3MetaTemplate@Vi3LogFileW@@@@UAEPAXI@Z 10006ad0 f i i3LogFileW.obj
 0001:00005ad0       ??_G?$i3MetaTemplate@Vi3LogFileW@@@@UAEPAXI@Z 10006ad0 f i i3LogFileW.obj
 0001:00005b00       ??0?$i3MetaTemplate@Vi3LogFileW@@@@QAE@IPAD0W4I3_CLASSMETA_TYPE@@@Z 10006b00 f i i3LogFileW.obj
 0001:00005b30       ??0i3LogFileW@@QAE@ABV0@@Z 10006b30 f i i3LogFileW.obj
 0001:00005b90       ??0i3LogFileW@@QAE@XZ      10006b90 f   i3LogFileW.obj
 0001:00005bc0       ??1i3LogFileW@@UAE@XZ      10006bc0 f   i3LogFileW.obj
 0001:00005bd0       ??4i3LogFileW@@QAEAAV0@ABV0@@Z 10006bd0 f i i3LogFileW.obj
 0001:00005c50       ??_Ei3LogFileW@@UAEPAXI@Z  10006c50 f i i3LogFileW.obj
 0001:00005d10       ??_Gi3LogFileW@@UAEPAXI@Z  10006d10 f i i3LogFileW.obj
 0001:00005d60       ?AddLogThread@i3LogFileW@@QAEHPAGHK@Z 10006d60 f   i3LogFileW.obj
 0001:00005e40       ?Create@i3LogFileW@@QAEHPAG0HHH@Z 10006e40 f   i3LogFileW.obj
 0001:00005f70       ?Destroy@i3LogFileW@@QAEXXZ 10006f70 f   i3LogFileW.obj
 0001:00005f80       ?GetClassMeta@i3LogFileW@@SAPAVi3ClassMeta@@XZ 10006f80 f i i3LogFileW.obj
 0001:00005f90       ?GetMeta@i3LogFileW@@UAEPAVi3ClassMeta@@XZ 10006f90 f   i3LogFileW.obj
 0001:00005fa0       ?RegisterMeta@i3LogFileW@@SAXXZ 10006fa0 f   i3LogFileW.obj
 0001:00005fb0       ?SetConcreteClass@i3LogFileW@@SAXPAVi3ClassMeta@@@Z 10006fb0 f   i3LogFileW.obj
 0001:00005fd0       ?SetGhostClass@i3LogFileW@@SAXPAVi3ClassMeta@@@Z 10006fd0 f   i3LogFileW.obj
 0001:00005ff0       ?WriteLog@i3LogFileW@@QAAXHHPAGZZ 10006ff0 f   i3LogFileW.obj
 0001:00006080       ?WriteLog@i3LogFileW@@QAAXPAGZZ 10007080 f   i3LogFileW.obj
 0001:000060f0       ?_BindObject@i3LogFileW@@SAPAV1@PAX@Z 100070f0 f   i3LogFileW.obj
 0001:00006110       ?_BindObjectByType@i3LogFileW@@SAPAV1@PAXW4I3_CLASSMETA_TYPE@@@Z 10007110 f   i3LogFileW.obj
 0001:00006130       ?_BindObjectRef@i3LogFileW@@SAPAV1@PAX@Z 10007130 f   i3LogFileW.obj
 0001:00006150       ?_BindObjectRefByType@i3LogFileW@@SAPAV1@PAXW4I3_CLASSMETA_TYPE@@@Z 10007150 f   i3LogFileW.obj
 0001:00006170       ?_CreateFile@i3LogFileW@@MAEHXZ 10007170 f   i3LogFileW.obj
 0001:00006280       ?_NewObject@i3LogFileW@@SAPAV1@XZ 10007280 f   i3LogFileW.obj
 0001:000062a0       ?_NewObjectByType@i3LogFileW@@SAPAV1@W4I3_CLASSMETA_TYPE@@@Z 100072a0 f   i3LogFileW.obj
 0001:000062c0       ?_NewObjectRef@i3LogFileW@@SAPAV1@XZ 100072c0 f   i3LogFileW.obj
 0001:000062d0       ?_NewObjectRefByType@i3LogFileW@@SAPAV1@W4I3_CLASSMETA_TYPE@@@Z 100072d0 f   i3LogFileW.obj
 0001:000062f0       ?_Working@i3LogFileW@@MAEHXZ 100072f0 f   i3LogFileW.obj
 0001:00006380       ?_WriteLog@i3LogFileW@@IAEXPAG@Z 10007380 f   i3LogFileW.obj
 0001:000063f0       ?_WriteLogFile@i3LogFileW@@IAEXPAG@Z 100073f0 f   i3LogFileW.obj
 0001:00006430       ?CreateInstance@?$i3MetaTemplate@Vi3NetworkAcceptor@@@@UAEPAVi3ElementBase@@W4I3_CLASSMETA_TYPE@@@Z 10007430 f i i3NetworkAcceptor.obj
 0001:00006510       ?BindInstance@?$i3MetaTemplate@Vi3NetworkAcceptor@@@@UAEPAVi3ElementBase@@PAXW4I3_CLASSMETA_TYPE@@@Z 10007510 f i i3NetworkAcceptor.obj
 0001:000065b0       ??_E?$i3MetaTemplate@Vi3NetworkAcceptor@@@@UAEPAXI@Z 100075b0 f i i3NetworkAcceptor.obj
 0001:000065b0       ??_G?$i3MetaTemplate@Vi3NetworkAcceptor@@@@UAEPAXI@Z 100075b0 f i i3NetworkAcceptor.obj
 0001:000065e0       ??0?$i3MetaTemplate@Vi3NetworkAcceptor@@@@QAE@IPAD0W4I3_CLASSMETA_TYPE@@@Z 100075e0 f i i3NetworkAcceptor.obj
 0001:00006610       ??0TiXmlAttribute@@QAE@PBD0@Z 10007610 f i i3NetworkAcceptor.obj
 0001:000066e0       ??0TiXmlAttribute@@QAE@XZ  100076e0 f i i3NetworkAcceptor.obj
 0001:00006730       ??0TiXmlBase@@QAE@XZ       10007730 f i i3NetworkAcceptor.obj
 0001:00006750       ??0TiXmlComment@@QAE@PBD@Z 10007750 f i i3NetworkAcceptor.obj
 0001:000067c0       ??0TiXmlComment@@QAE@XZ    100077c0 f i i3NetworkAcceptor.obj
 0001:000067e0       ??0TiXmlCursor@@QAE@XZ     100077e0 f i i3NetworkAcceptor.obj
 0001:000067f0       ??0TiXmlDeclaration@@QAE@XZ 100077f0 f i i3NetworkAcceptor.obj
 0001:00006830       ??0TiXmlHandle@@QAE@ABV0@@Z 10007830 f i i3NetworkAcceptor.obj
 0001:00006840       ??0TiXmlHandle@@QAE@PAVTiXmlNode@@@Z 10007840 f i i3NetworkAcceptor.obj
 0001:00006850       ??0TiXmlPrinter@@QAE@$$QAV0@@Z 10007850 f i i3NetworkAcceptor.obj
 0001:000068e0       ??0TiXmlPrinter@@QAE@ABV0@@Z 100078e0 f i i3NetworkAcceptor.obj
 0001:00006970       ??0TiXmlPrinter@@QAE@XZ    10007970 f i i3NetworkAcceptor.obj
 0001:00006a50       ??0TiXmlString@@QAE@ABV0@@Z 10007a50 f i i3NetworkAcceptor.obj
 0001:00006ac0       ??0TiXmlString@@QAE@PBD@Z  10007ac0 f i i3NetworkAcceptor.obj
 0001:00006b30       ??0TiXmlString@@QAE@PBDI@Z 10007b30 f i i3NetworkAcceptor.obj
 0001:00006ba0       ??0TiXmlString@@QAE@XZ     10007ba0 f i i3NetworkAcceptor.obj
 0001:00006bb0       ??0TiXmlText@@QAE@ABV0@@Z  10007bb0 f i i3NetworkAcceptor.obj
 0001:00006c10       ??0TiXmlText@@QAE@PBD@Z    10007c10 f i i3NetworkAcceptor.obj
 0001:00006c90       ??0TiXmlUnknown@@QAE@ABV0@@Z 10007c90 f i i3NetworkAcceptor.obj
 0001:00006cf0       ??0TiXmlUnknown@@QAE@XZ    10007cf0 f i i3NetworkAcceptor.obj
 0001:00006d10       ??0TiXmlVisitor@@QAE@ABV0@@Z 10007d10 f i i3NetworkAcceptor.obj
 0001:00006d20       ??0TiXmlVisitor@@QAE@XZ    10007d20 f i i3NetworkAcceptor.obj
 0001:00006d30       ??0i3FileStream@@QAE@ABV0@@Z 10007d30 f i i3NetworkAcceptor.obj
 0001:00006db0       ??0i3List@@QAE@ABV0@@Z     10007db0 f i i3NetworkAcceptor.obj
 0001:00006e30       ??0i3NetworkAcceptor@@QAE@ABV0@@Z 10007e30 f i i3NetworkAcceptor.obj
 0001:00006e90       ??0i3NetworkAcceptor@@QAE@XZ 10007e90 f   i3NetworkAcceptor.obj
 0001:00006ee0       ??0i3NetworkCompletionHandler@@QAE@ABV0@@Z 10007ee0 f i i3NetworkAcceptor.obj
 0001:00006f90       ??0i3NetworkServerSocket@@QAE@ABV0@@Z 10007f90 f i i3NetworkAcceptor.obj
 0001:00006fc0       ??0i3NetworkSession@@QAE@ABV0@@Z 10007fc0 f i i3NetworkAcceptor.obj
 0001:000070d0       ??0i3NetworkSessionManager@@QAE@ABV0@@Z 100080d0 f i i3NetworkAcceptor.obj
 0001:00007160       ??0i3Stream@@QAE@ABV0@@Z   10008160 f i i3NetworkAcceptor.obj
 0001:000071b0       ??0i3StringList@@QAE@ABV0@@Z 100081b0 f i i3NetworkAcceptor.obj
 0001:00007200       ??0i3XMLElement@@QAE@ABV0@@Z 10008200 f i i3NetworkAcceptor.obj
 0001:00007230       ??1TiXmlAttribute@@UAE@XZ  10008230 f i i3NetworkAcceptor.obj
 0001:00007270       ??1TiXmlBase@@UAE@XZ       10008270 f i i3NetworkAcceptor.obj
 0001:00007280       ??1TiXmlComment@@UAE@XZ    10008280 f i i3NetworkAcceptor.obj
 0001:00007290       ??1TiXmlDeclaration@@UAE@XZ 10008290 f i i3NetworkAcceptor.obj
 0001:000072e0       ??1TiXmlDocument@@UAE@XZ   100082e0 f i i3NetworkAcceptor.obj
 0001:00007310       ??1TiXmlPrinter@@UAE@XZ    10008310 f i i3NetworkAcceptor.obj
 0001:00007360       ??1TiXmlString@@QAE@XZ     10008360 f i i3NetworkAcceptor.obj
 0001:00007380       ??1TiXmlText@@UAE@XZ       10008380 f i i3NetworkAcceptor.obj
 0001:00007390       ??1TiXmlUnknown@@UAE@XZ    10008390 f i i3NetworkAcceptor.obj
 0001:000073a0       ??1TiXmlVisitor@@UAE@XZ    100083a0 f i i3NetworkAcceptor.obj
 0001:000073b0       ??1i3NetworkAcceptor@@UAE@XZ 100083b0 f   i3NetworkAcceptor.obj
 0001:000074a0       ??4OVERLAPPED2@@QAEAAU0@$$QAU0@@Z 100084a0 f i i3NetworkAcceptor.obj
 0001:000074d0       ??4OVERLAPPED2@@QAEAAU0@ABU0@@Z 100084d0 f i i3NetworkAcceptor.obj
 0001:00007500       ??4TiXmlCursor@@QAEAAU0@$$QAU0@@Z 10008500 f i i3NetworkAcceptor.obj
 0001:00007520       ??4TiXmlCursor@@QAEAAU0@ABU0@@Z 10008520 f i i3NetworkAcceptor.obj
 0001:00007540       ??4TiXmlHandle@@QAE?AV0@ABV0@@Z 10008540 f i i3NetworkAcceptor.obj
 0001:00007560       ??4TiXmlPrinter@@QAEAAV0@$$QAV0@@Z 10008560 f i i3NetworkAcceptor.obj
 0001:000075c0       ??4TiXmlPrinter@@QAEAAV0@ABV0@@Z 100085c0 f i i3NetworkAcceptor.obj
 0001:00007620       ??4TiXmlString@@QAEAAV0@ABV0@@Z 10008620 f i i3NetworkAcceptor.obj
 0001:00007640       ??4TiXmlString@@QAEAAV0@PBD@Z 10008640 f i i3NetworkAcceptor.obj
 0001:00007670       ??4TiXmlText@@QAEXABV0@@Z  10008670 f i i3NetworkAcceptor.obj
 0001:00007680       ??4TiXmlUnknown@@QAEXABV0@@Z 10008680 f i i3NetworkAcceptor.obj
 0001:00007690       ??4TiXmlVisitor@@QAEAAV0@ABV0@@Z 10008690 f i i3NetworkAcceptor.obj
 0001:000076a0       ??4i3FileStream@@QAEAAV0@ABV0@@Z 100086a0 f i i3NetworkAcceptor.obj
 0001:00007710       ??4i3List@@QAEAAV0@ABV0@@Z 10008710 f i i3NetworkAcceptor.obj
 0001:000077a0       ??4i3NetworkAcceptor@@QAEAAV0@ABV0@@Z 100087a0 f i i3NetworkAcceptor.obj
 0001:000077f0       ??4i3NetworkCompletionHandler@@QAEAAV0@ABV0@@Z 100087f0 f i i3NetworkAcceptor.obj
 0001:00007880       ??4i3NetworkServerSocket@@QAEAAV0@ABV0@@Z 10008880 f i i3NetworkAcceptor.obj
 0001:000078b0       ??4i3NetworkSession@@QAEAAV0@ABV0@@Z 100088b0 f i i3NetworkAcceptor.obj
 0001:000079b0       ??4i3NetworkSessionManager@@QAEAAV0@ABV0@@Z 100089b0 f i i3NetworkAcceptor.obj
 0001:00007a30       ??4i3Stream@@QAEAAV0@ABV0@@Z 10008a30 f i i3NetworkAcceptor.obj
 0001:00007a70       ??4i3StringList@@QAEAAV0@ABV0@@Z 10008a70 f i i3NetworkAcceptor.obj
 0001:00007ac0       ??4i3XMLElement@@QAEAAV0@ABV0@@Z 10008ac0 f i i3NetworkAcceptor.obj
 0001:00007ae0       ??8TiXmlAttribute@@QBE_NABV0@@Z 10008ae0 f i i3NetworkAcceptor.obj
 0001:00007b30       ??ATiXmlString@@QBEAADI@Z  10008b30 f i i3NetworkAcceptor.obj
 0001:00007b40       ??MTiXmlAttribute@@QBE_NABV0@@Z 10008b40 f i i3NetworkAcceptor.obj
 0001:00007b90       ??OTiXmlAttribute@@QBE_NABV0@@Z 10008b90 f i i3NetworkAcceptor.obj
 0001:00007be0       ??YTiXmlString@@QAEAAV0@ABV0@@Z 10008be0 f i i3NetworkAcceptor.obj
 0001:00007c00       ??YTiXmlString@@QAEAAV0@D@Z 10008c00 f i i3NetworkAcceptor.obj
 0001:00007c20       ??YTiXmlString@@QAEAAV0@PBD@Z 10008c20 f i i3NetworkAcceptor.obj
 0001:00007c50       ??_ETiXmlAttribute@@UAEPAXI@Z 10008c50 f i i3NetworkAcceptor.obj
 0001:00007d20       ??_ETiXmlBase@@UAEPAXI@Z   10008d20 f i i3NetworkAcceptor.obj
 0001:00007dd0       ??_ETiXmlComment@@UAEPAXI@Z 10008dd0 f i i3NetworkAcceptor.obj
 0001:00007e80       ??_ETiXmlDeclaration@@UAEPAXI@Z 10008e80 f i i3NetworkAcceptor.obj
 0001:00007f70       ??_ETiXmlDocument@@UAEPAXI@Z 10008f70 f i i3NetworkAcceptor.obj
 0001:00008030       ??_ETiXmlPrinter@@UAEPAXI@Z 10009030 f i i3NetworkAcceptor.obj
 0001:00008110       ??_ETiXmlText@@UAEPAXI@Z   10009110 f i i3NetworkAcceptor.obj
 0001:000081c0       ??_ETiXmlUnknown@@UAEPAXI@Z 100091c0 f i i3NetworkAcceptor.obj
 0001:00008270       ??_ETiXmlVisitor@@UAEPAXI@Z 10009270 f i i3NetworkAcceptor.obj
 0001:00008320       ??_Ei3FileStream@@UAEPAXI@Z 10009320 f i i3NetworkAcceptor.obj
 0001:000083e0       ??_Ei3List@@UAEPAXI@Z      100093e0 f i i3NetworkAcceptor.obj
 0001:00008490       ??_Ei3NetworkAcceptor@@UAEPAXI@Z 10009490 f i i3NetworkAcceptor.obj
 0001:00008550       ??_Ei3NetworkCompletionHandler@@UAEPAXI@Z 10009550 f i i3NetworkAcceptor.obj
 0001:00008600       ??_Ei3NetworkServerSocket@@UAEPAXI@Z 10009600 f i i3NetworkAcceptor.obj
 0001:000086c0       ??_Ei3NetworkSession@@UAEPAXI@Z 100096c0 f i i3NetworkAcceptor.obj
 0001:00008780       ??_Ei3NetworkSessionManager@@UAEPAXI@Z 10009780 f i i3NetworkAcceptor.obj
 0001:00008830       ??_Ei3Stream@@UAEPAXI@Z    10009830 f i i3NetworkAcceptor.obj
 0001:000088f0       ??_Ei3StringList@@UAEPAXI@Z 100098f0 f i i3NetworkAcceptor.obj
 0001:000089b0       ??_Ei3XMLElement@@UAEPAXI@Z 100099b0 f i i3NetworkAcceptor.obj
 0001:00008a60       ??_Fi3List@@QAEXXZ         10009a60 f i i3NetworkAcceptor.obj
 0001:00008a70       ??_Fi3StringList@@QAEXXZ   10009a70 f i i3NetworkAcceptor.obj
 0001:00008a80       ??_GTiXmlAttribute@@UAEPAXI@Z 10009a80 f i i3NetworkAcceptor.obj
 0001:00008ad0       ??_GTiXmlBase@@UAEPAXI@Z   10009ad0 f i i3NetworkAcceptor.obj
 0001:00008b00       ??_GTiXmlComment@@UAEPAXI@Z 10009b00 f i i3NetworkAcceptor.obj
 0001:00008b30       ??_GTiXmlDeclaration@@UAEPAXI@Z 10009b30 f i i3NetworkAcceptor.obj
 0001:00008ba0       ??_GTiXmlDocument@@UAEPAXI@Z 10009ba0 f i i3NetworkAcceptor.obj
 0001:00008be0       ??_GTiXmlPrinter@@UAEPAXI@Z 10009be0 f i i3NetworkAcceptor.obj
 0001:00008c40       ??_GTiXmlText@@UAEPAXI@Z   10009c40 f i i3NetworkAcceptor.obj
 0001:00008c70       ??_GTiXmlUnknown@@UAEPAXI@Z 10009c70 f i i3NetworkAcceptor.obj
 0001:00008ca0       ??_GTiXmlVisitor@@UAEPAXI@Z 10009ca0 f i i3NetworkAcceptor.obj
 0001:00008cd0       ??_Gi3FileStream@@UAEPAXI@Z 10009cd0 f i i3NetworkAcceptor.obj
 0001:00008d10       ??_Gi3List@@UAEPAXI@Z      10009d10 f i i3NetworkAcceptor.obj
 0001:00008d50       ??_Gi3NetworkAcceptor@@UAEPAXI@Z 10009d50 f i i3NetworkAcceptor.obj
 0001:00008d90       ??_Gi3NetworkCompletionHandler@@UAEPAXI@Z 10009d90 f i i3NetworkAcceptor.obj
 0001:00008dd0       ??_Gi3NetworkServerSocket@@UAEPAXI@Z 10009dd0 f i i3NetworkAcceptor.obj
 0001:00008e10       ??_Gi3NetworkSession@@UAEPAXI@Z 10009e10 f i i3NetworkAcceptor.obj
 0001:00008e50       ??_Gi3NetworkSessionManager@@UAEPAXI@Z 10009e50 f i i3NetworkAcceptor.obj
 0001:00008e90       ??_Gi3Stream@@UAEPAXI@Z    10009e90 f i i3NetworkAcceptor.obj
 0001:00008ed0       ??_Gi3StringList@@UAEPAXI@Z 10009ed0 f i i3NetworkAcceptor.obj
 0001:00008f10       ??_Gi3XMLElement@@UAEPAXI@Z 10009f10 f i i3NetworkAcceptor.obj
 0001:00008f40       ?AddFromList@i3List@@QAEXPAV1@@Z 10009f40 f i i3NetworkAcceptor.obj
 0001:00008f70       ?AddPacketInfo@i3NetworkCompletionHandler@@QAEXHH@Z 10009f70 f i i3NetworkAcceptor.obj
 0001:00008fa0       ?AddSendPacketInfo@i3NetworkCompletionHandler@@QAEXHH@Z 10009fa0 f i i3NetworkAcceptor.obj
 0001:00008fd0       ?AddWorkingSession@i3NetworkCompletionHandler@@QAEHPAVi3NetworkSession@@H@Z 10009fd0 f i i3NetworkAcceptor.obj
 0001:00009040       ?AfterRunning@i3NetworkAcceptor@@UAEXPAX@Z 1000a040 f   i3NetworkAcceptor.obj
 0001:00009050       ?BeforeRunning@i3NetworkAcceptor@@UAEXPAX@Z 1000a050 f   i3NetworkAcceptor.obj
 0001:00009060       ?BeginRecord@i3Stream@@QAEXXZ 1000a060 f i i3NetworkAcceptor.obj
 0001:00009070       ?CDATA@TiXmlText@@QBE_NXZ  1000a070 f i i3NetworkAcceptor.obj
 0001:00009080       ?CStr@TiXmlPrinter@@QAEPBDXZ 1000a080 f i i3NetworkAcceptor.obj
 0001:00009090       ?Clear@TiXmlCursor@@QAEXXZ 1000a090 f i i3NetworkAcceptor.obj
 0001:000090a0       ?ClearError@TiXmlDocument@@QAEXXZ 1000a0a0 f i i3NetworkAcceptor.obj
 0001:000090d0       ?Column@TiXmlBase@@QBEHXZ  1000a0d0 f i i3NetworkAcceptor.obj
 0001:000090e0       ?DoIndent@TiXmlPrinter@@AAEXXZ 1000a0e0 f i i3NetworkAcceptor.obj
 0001:00009110       ?DoLineBreak@TiXmlPrinter@@AAEXXZ 1000a110 f i i3NetworkAcceptor.obj
 0001:00009130       ?Element@TiXmlHandle@@QBEPAVTiXmlElement@@XZ 1000a130 f i i3NetworkAcceptor.obj
 0001:00009150       ?Encoding@TiXmlDeclaration@@QBEPBDXZ 1000a150 f i i3NetworkAcceptor.obj
 0001:00009160       ?Error@TiXmlDocument@@QBE_NXZ 1000a160 f i i3NetworkAcceptor.obj
 0001:00009170       ?ErrorCol@TiXmlDocument@@QBEHXZ 1000a170 f i i3NetworkAcceptor.obj
 0001:00009180       ?ErrorDesc@TiXmlDocument@@QBEPBDXZ 1000a180 f i i3NetworkAcceptor.obj
 0001:00009190       ?ErrorId@TiXmlDocument@@QBEHXZ 1000a190 f i i3NetworkAcceptor.obj
 0001:000091a0       ?ErrorRow@TiXmlDocument@@QBEHXZ 1000a1a0 f i i3NetworkAcceptor.obj
 0001:000091b0       ?Find@TiXmlAttributeSet@@QAEPAVTiXmlAttribute@@PBD@Z 1000a1b0 f i i3NetworkAcceptor.obj
 0001:000091c0       ?Find@i3List@@QBEHPAX@Z    1000a1c0 f i i3NetworkAcceptor.obj
 0001:000091d0       ?Find@i3StringList@@QAEHPAD@Z 1000a1d0 f i i3NetworkAcceptor.obj
 0001:000091e0       ?First@TiXmlAttributeSet@@QAEPAVTiXmlAttribute@@XZ 1000a1e0 f i i3NetworkAcceptor.obj
 0001:000091f0       ?First@TiXmlAttributeSet@@QBEPBVTiXmlAttribute@@XZ 1000a1f0 f i i3NetworkAcceptor.obj
 0001:00009200       ?FirstAttribute@TiXmlElement@@QAEPAVTiXmlAttribute@@XZ 1000a200 f i i3NetworkAcceptor.obj
 0001:00009210       ?FirstAttribute@TiXmlElement@@QBEPBVTiXmlAttribute@@XZ 1000a210 f i i3NetworkAcceptor.obj
 0001:00009220       ?FirstChild@TiXmlNode@@QAEPAV1@PBD@Z 1000a220 f i i3NetworkAcceptor.obj
 0001:00009230       ?FirstChild@TiXmlNode@@QAEPAV1@XZ 1000a230 f i i3NetworkAcceptor.obj
 0001:00009240       ?FirstChild@TiXmlNode@@QBEPBV1@XZ 1000a240 f i i3NetworkAcceptor.obj
 0001:00009250       ?FirstChildElement@TiXmlNode@@QAEPAVTiXmlElement@@PBD@Z 1000a250 f i i3NetworkAcceptor.obj
 0001:00009260       ?FirstChildElement@TiXmlNode@@QAEPAVTiXmlElement@@XZ 1000a260 f i i3NetworkAcceptor.obj
 0001:00009270       ?GetAccessMode@i3Stream@@QAEHXZ 1000a270 f i i3NetworkAcceptor.obj
 0001:00009280       ?GetChar@TiXmlBase@@KAPBDPBDPADPAHW4TiXmlEncoding@@@Z 1000a280 f i i3NetworkAcceptor.obj
 0001:00009300       ?GetClassMeta@i3FileStream@@SAPAVi3ClassMeta@@XZ 1000a300 f i i3NetworkAcceptor.obj
 0001:00009310       ?GetClassMeta@i3List@@SAPAVi3ClassMeta@@XZ 1000a310 f i i3NetworkAcceptor.obj
 0001:00009320       ?GetClassMeta@i3NetworkAcceptor@@SAPAVi3ClassMeta@@XZ 1000a320 f i i3NetworkAcceptor.obj
 0001:00009330       ?GetClassMeta@i3NetworkCompletionHandler@@SAPAVi3ClassMeta@@XZ 1000a330 f i i3NetworkAcceptor.obj
 0001:00009340       ?GetClassMeta@i3NetworkServerSocket@@SAPAVi3ClassMeta@@XZ 1000a340 f i i3NetworkAcceptor.obj
 0001:00009350       ?GetClassMeta@i3NetworkSession@@SAPAVi3ClassMeta@@XZ 1000a350 f i i3NetworkAcceptor.obj
 0001:00009360       ?GetClassMeta@i3NetworkSessionManager@@SAPAVi3ClassMeta@@XZ 1000a360 f i i3NetworkAcceptor.obj
 0001:00009370       ?GetClassMeta@i3Stream@@SAPAVi3ClassMeta@@XZ 1000a370 f i i3NetworkAcceptor.obj
 0001:00009380       ?GetClassMeta@i3StringList@@SAPAVi3ClassMeta@@XZ 1000a380 f i i3NetworkAcceptor.obj
 0001:00009390       ?GetCount@i3List@@QBEHXZ   1000a390 f i i3NetworkAcceptor.obj
 0001:000093a0       ?GetCount@i3StringList@@QBEHXZ 1000a3a0 f i i3NetworkAcceptor.obj
 0001:000093b0       ?GetDocument@TiXmlNode@@QAEPAVTiXmlDocument@@XZ 1000a3b0 f i i3NetworkAcceptor.obj
 0001:000093c0       ?GetFileName@i3FileStream@@QAEPADXZ 1000a3c0 f i i3NetworkAcceptor.obj
 0001:000093d0       ?GetFirst@i3List@@QAEPAXXZ 1000a3d0 f i i3NetworkAcceptor.obj
 0001:000093e0       ?GetFirst@i3StringList@@QAEPADXZ 1000a3e0 f i i3NetworkAcceptor.obj
 0001:000093f0       ?GetHandle@i3FileStream@@UAEPAXXZ 1000a3f0 f i i3NetworkAcceptor.obj
 0001:00009400       ?GetHandle@i3Stream@@UAEPAXXZ 1000a400 f i i3NetworkAcceptor.obj
 0001:00009410       ?GetIPStringA@i3NetworkSession@@QAEPADXZ 1000a410 f i i3NetworkAcceptor.obj
 0001:00009420       ?GetIPStringW@i3NetworkSession@@QAEPAGXZ 1000a420 f i i3NetworkAcceptor.obj
 0001:00009430       ?GetIocpWorker@i3NetworkCompletionHandler@@QAEPAVi3NetworkIocpWorker@@I@Z 1000a430 f i i3NetworkAcceptor.obj
 0001:00009440       ?GetIsActive@i3NetworkSession@@QAEHXZ 1000a440 f i i3NetworkAcceptor.obj
 0001:00009450       ?GetItem@i3List@@QAEPAXH@Z 1000a450 f i i3NetworkAcceptor.obj
 0001:00009470       ?GetItem@i3List@@QBEPBXH@Z 1000a470 f i i3NetworkAcceptor.obj
 0001:00009490       ?GetItem@i3StringList@@QAEPAXH@Z 1000a490 f i i3NetworkAcceptor.obj
 0001:000094b0       ?GetLast@i3List@@QAEPAXXZ  1000a4b0 f i i3NetworkAcceptor.obj
 0001:000094c0       ?GetLast@i3StringList@@QAEPADXZ 1000a4c0 f i i3NetworkAcceptor.obj
 0001:000094d0       ?GetLastError@i3Stream@@QAE?AW4STREAMCODE@1@XZ 1000a4d0 f i i3NetworkAcceptor.obj
 0001:000094e0       ?GetMaxSessionCount@i3NetworkSessionManager@@QAEHXZ 1000a4e0 f i i3NetworkAcceptor.obj
 0001:000094f0       ?GetMeta@i3NetworkAcceptor@@UAEPAVi3ClassMeta@@XZ 1000a4f0 f   i3NetworkAcceptor.obj
 0001:00009500       ?GetOnceMode@i3StringList@@QAEHXZ 1000a500 f i i3NetworkAcceptor.obj
 0001:00009510       ?GetRecordSize@i3Stream@@QAEIXZ 1000a510 f i i3NetworkAcceptor.obj
 0001:00009520       ?GetSafeItem@i3List@@QAEPAXH@Z 1000a520 f i i3NetworkAcceptor.obj
 0001:00009540       ?GetSafeItem@i3List@@QBEPBXH@Z 1000a540 f i i3NetworkAcceptor.obj
 0001:00009560       ?GetSessionCount@i3NetworkSessionManager@@QAEHXZ 1000a560 f i i3NetworkAcceptor.obj
 0001:00009570       ?GetSize@TiXmlDocument@@QAEIXZ 1000a570 f i i3NetworkAcceptor.obj
 0001:00009580       ?GetSize@i3Stream@@QAEIXZ  1000a580 f i i3NetworkAcceptor.obj
 0001:00009590       ?GetUserData@TiXmlBase@@QAEPAXXZ 1000a590 f i i3NetworkAcceptor.obj
 0001:000095a0       ?GetUserData@TiXmlBase@@QBEPBXXZ 1000a5a0 f i i3NetworkAcceptor.obj
 0001:000095b0       ?GetWorkerThreadIdList@i3NetworkSessionManager@@QAEPAIXZ 1000a5b0 f i i3NetworkAcceptor.obj
 0001:000095c0       ?Indent@TiXmlPrinter@@QAEPBDXZ 1000a5c0 f i i3NetworkAcceptor.obj
 0001:000095d0       ?IsCaseSensitive@i3FileStream@@SAHXZ 1000a5d0 f i i3NetworkAcceptor.obj
 0001:000095e0       ?IsWhiteSpace@TiXmlBase@@KA_ND@Z 1000a5e0 f i i3NetworkAcceptor.obj
 0001:00009610       ?IsWhiteSpace@TiXmlBase@@KA_NH@Z 1000a610 f i i3NetworkAcceptor.obj
 0001:00009650       ?IsWhiteSpaceCondensed@TiXmlBase@@SA_NXZ 1000a650 f i i3NetworkAcceptor.obj
 0001:00009660       ?IterateChildren@TiXmlNode@@QAEPAV1@PBDPBV1@@Z 1000a660 f i i3NetworkAcceptor.obj
 0001:00009670       ?IterateChildren@TiXmlNode@@QAEPAV1@PBV1@@Z 1000a670 f i i3NetworkAcceptor.obj
 0001:00009680       ?Last@TiXmlAttributeSet@@QAEPAVTiXmlAttribute@@XZ 1000a680 f i i3NetworkAcceptor.obj
 0001:00009690       ?Last@TiXmlAttributeSet@@QBEPBVTiXmlAttribute@@XZ 1000a690 f i i3NetworkAcceptor.obj
 0001:000096a0       ?LastAttribute@TiXmlElement@@QAEPAVTiXmlAttribute@@XZ 1000a6a0 f i i3NetworkAcceptor.obj
 0001:000096b0       ?LastAttribute@TiXmlElement@@QBEPBVTiXmlAttribute@@XZ 1000a6b0 f i i3NetworkAcceptor.obj
 0001:000096c0       ?LastChild@TiXmlNode@@QAEPAV1@PBD@Z 1000a6c0 f i i3NetworkAcceptor.obj
 0001:000096d0       ?LastChild@TiXmlNode@@QAEPAV1@XZ 1000a6d0 f i i3NetworkAcceptor.obj
 0001:000096e0       ?LastChild@TiXmlNode@@QBEPBV1@XZ 1000a6e0 f i i3NetworkAcceptor.obj
 0001:000096f0       ?LineBreak@TiXmlPrinter@@QAEPBDXZ 1000a6f0 f i i3NetworkAcceptor.obj
 0001:00009700       ?Name@TiXmlAttribute@@QBEPBDXZ 1000a700 f i i3NetworkAcceptor.obj
 0001:00009710       ?NameTStr@TiXmlAttribute@@QBEABVTiXmlString@@XZ 1000a710 f i i3NetworkAcceptor.obj
 0001:00009720       ?Next@TiXmlAttribute@@QAEPAV1@XZ 1000a720 f i i3NetworkAcceptor.obj
 0001:00009730       ?NextSibling@TiXmlNode@@QAEPAV1@PBD@Z 1000a730 f i i3NetworkAcceptor.obj
 0001:00009740       ?NextSibling@TiXmlNode@@QAEPAV1@XZ 1000a740 f i i3NetworkAcceptor.obj
 0001:00009750       ?NextSibling@TiXmlNode@@QBEPBV1@XZ 1000a750 f i i3NetworkAcceptor.obj
 0001:00009760       ?NextSiblingElement@TiXmlNode@@QAEPAVTiXmlElement@@PBD@Z 1000a760 f i i3NetworkAcceptor.obj
 0001:00009770       ?NextSiblingElement@TiXmlNode@@QAEPAVTiXmlElement@@XZ 1000a770 f i i3NetworkAcceptor.obj
 0001:00009780       ?NoChildren@TiXmlNode@@QBE_NXZ 1000a780 f i i3NetworkAcceptor.obj
 0001:00009790       ?Node@TiXmlHandle@@QBEPAVTiXmlNode@@XZ 1000a790 f i i3NetworkAcceptor.obj
 0001:000097a0       ?OnCreate@i3NetworkAcceptor@@QAEHEPAIPAGPAEPAVi3NetworkSessionManager@@PAVi3NetworkCompletionHandler@@@Z 1000a7a0 f   i3NetworkAcceptor.obj
 0001:000098a0       ?OnRunning@i3NetworkAcceptor@@UAEIPAX@Z 1000a8a0 f   i3NetworkAcceptor.obj
 0001:00009980       ?PacketParsing@i3NetworkSession@@UAEHPADH@Z 1000a980 f i i3NetworkAcceptor.obj
 0001:00009990       ?Parent@TiXmlNode@@QAEPAV1@XZ 1000a990 f i i3NetworkAcceptor.obj
 0001:000099a0       ?Parent@TiXmlNode@@QBEPBV1@XZ 1000a9a0 f i i3NetworkAcceptor.obj
 0001:000099b0       ?Previous@TiXmlAttribute@@QAEPAV1@XZ 1000a9b0 f i i3NetworkAcceptor.obj
 0001:000099c0       ?PreviousSibling@TiXmlNode@@QAEPAV1@PBD@Z 1000a9c0 f i i3NetworkAcceptor.obj
 0001:000099d0       ?PreviousSibling@TiXmlNode@@QAEPAV1@XZ 1000a9d0 f i i3NetworkAcceptor.obj
 0001:000099e0       ?PreviousSibling@TiXmlNode@@QBEPBV1@XZ 1000a9e0 f i i3NetworkAcceptor.obj
 0001:000099f0       ?Print@TiXmlAttribute@@UBEXPAVi3FileStream@@H@Z 1000a9f0 f i i3NetworkAcceptor.obj
 0001:00009a10       ?Print@TiXmlDeclaration@@UBEXPAVi3FileStream@@H@Z 1000aa10 f i i3NetworkAcceptor.obj
 0001:00009a30       ?QueryFloatAttribute@TiXmlElement@@QBEHPBDPAM@Z 1000aa30 f i i3NetworkAcceptor.obj
 0001:00009a60       ?RegisterMeta@i3NetworkAcceptor@@SAXXZ 1000aa60 f   i3NetworkAcceptor.obj
 0001:00009a70       ?RemoveWorkingSession@i3NetworkCompletionHandler@@QAEXH@Z 1000aa70 f i i3NetworkAcceptor.obj
 0001:00009a90       ?RootElement@TiXmlDocument@@QAEPAVTiXmlElement@@XZ 1000aa90 f i i3NetworkAcceptor.obj
 0001:00009aa0       ?RootElement@TiXmlDocument@@QBEPBVTiXmlElement@@XZ 1000aaa0 f i i3NetworkAcceptor.obj
 0001:00009ab0       ?Row@TiXmlBase@@QBEHXZ     1000aab0 f i i3NetworkAcceptor.obj
 0001:00009ac0       ?SafeFreeAll@i3List@@QAEXXZ 1000aac0 f i i3NetworkAcceptor.obj
 0001:00009b10       ?SafeReleaseAll@i3List@@QAEXXZ 1000ab10 f i i3NetworkAcceptor.obj
 0001:00009b50       ?SetCDATA@TiXmlText@@QAEX_N@Z 1000ab50 f i i3NetworkAcceptor.obj
 0001:00009b60       ?SetCaseSensitive@i3FileStream@@SAXH@Z 1000ab60 f i i3NetworkAcceptor.obj
 0001:00009b70       ?SetConcreteClass@i3NetworkAcceptor@@SAXPAVi3ClassMeta@@@Z 1000ab70 f   i3NetworkAcceptor.obj
 0001:00009b90       ?SetCondenseWhiteSpace@TiXmlBase@@SAX_N@Z 1000ab90 f i i3NetworkAcceptor.obj
 0001:00009ba0       ?SetDocument@TiXmlAttribute@@QAEXPAVTiXmlDocument@@@Z 1000aba0 f i i3NetworkAcceptor.obj
 0001:00009bb0       ?SetGhostClass@i3NetworkAcceptor@@SAXPAVi3ClassMeta@@@Z 1000abb0 f   i3NetworkAcceptor.obj
 0001:00009bd0       ?SetIndent@TiXmlPrinter@@QAEXPBD@Z 1000abd0 f i i3NetworkAcceptor.obj
 0001:00009c10       ?SetItem@i3StringList@@QAEXHPAD@Z 1000ac10 f i i3NetworkAcceptor.obj
 0001:00009c30       ?SetLineBreak@TiXmlPrinter@@QAEXPBD@Z 1000ac30 f i i3NetworkAcceptor.obj
 0001:00009c70       ?SetName@TiXmlAttribute@@QAEXPBD@Z 1000ac70 f i i3NetworkAcceptor.obj
 0001:00009ca0       ?SetOnceMode@i3List@@QAEXH@Z 1000aca0 f i i3NetworkAcceptor.obj
 0001:00009cb0       ?SetOnceMode@i3StringList@@QAEXH@Z 1000acb0 f i i3NetworkAcceptor.obj
 0001:00009cc0       ?SetOptmizeEnableWhenClear@i3List@@QAEXH@Z 1000acc0 f i i3NetworkAcceptor.obj
 0001:00009cd0       ?SetStreamPrinting@TiXmlPrinter@@QAEXXZ 1000acd0 f i i3NetworkAcceptor.obj
 0001:00009d00       ?SetTabSize@TiXmlDocument@@QAEXH@Z 1000ad00 f i i3NetworkAcceptor.obj
 0001:00009d10       ?SetUserData@TiXmlBase@@QAEXPAX@Z 1000ad10 f i i3NetworkAcceptor.obj
 0001:00009d20       ?SetValue@TiXmlAttribute@@QAEXPBD@Z 1000ad20 f i i3NetworkAcceptor.obj
 0001:00009d50       ?SetValue@TiXmlNode@@QAEXPBD@Z 1000ad50 f i i3NetworkAcceptor.obj
 0001:00009d80       ?SetWorkerThreadIdList@i3NetworkSessionManager@@QAEXPAI@Z 1000ad80 f i i3NetworkAcceptor.obj
 0001:00009d90       ?Size@TiXmlPrinter@@QAEIXZ 1000ad90 f i i3NetworkAcceptor.obj
 0001:00009da0       ?Standalone@TiXmlDeclaration@@QBEPBDXZ 1000ada0 f i i3NetworkAcceptor.obj
 0001:00009db0       ?TabSize@TiXmlDocument@@QBEHXZ 1000adb0 f i i3NetworkAcceptor.obj
 0001:00009dc0       ?Text@TiXmlHandle@@QBEPAVTiXmlText@@XZ 1000adc0 f i i3NetworkAcceptor.obj
 0001:00009de0       ?ToComment@TiXmlComment@@UAEPAV1@XZ 1000ade0 f i i3NetworkAcceptor.obj
 0001:00009df0       ?ToComment@TiXmlComment@@UBEPBV1@XZ 1000adf0 f i i3NetworkAcceptor.obj
 0001:00009e00       ?ToComment@TiXmlNode@@UAEPAVTiXmlComment@@XZ 1000ae00 f i i3NetworkAcceptor.obj
 0001:00009e10       ?ToComment@TiXmlNode@@UBEPBVTiXmlComment@@XZ 1000ae10 f i i3NetworkAcceptor.obj
 0001:00009e20       ?ToDeclaration@TiXmlDeclaration@@UAEPAV1@XZ 1000ae20 f i i3NetworkAcceptor.obj
 0001:00009e30       ?ToDeclaration@TiXmlDeclaration@@UBEPBV1@XZ 1000ae30 f i i3NetworkAcceptor.obj
 0001:00009e40       ?ToDeclaration@TiXmlNode@@UAEPAVTiXmlDeclaration@@XZ 1000ae40 f i i3NetworkAcceptor.obj
 0001:00009e50       ?ToDeclaration@TiXmlNode@@UBEPBVTiXmlDeclaration@@XZ 1000ae50 f i i3NetworkAcceptor.obj
 0001:00009e60       ?ToDocument@TiXmlDocument@@UAEPAV1@XZ 1000ae60 f i i3NetworkAcceptor.obj
 0001:00009e70       ?ToDocument@TiXmlDocument@@UBEPBV1@XZ 1000ae70 f i i3NetworkAcceptor.obj
 0001:00009e80       ?ToDocument@TiXmlNode@@UAEPAVTiXmlDocument@@XZ 1000ae80 f i i3NetworkAcceptor.obj
 0001:00009e90       ?ToDocument@TiXmlNode@@UBEPBVTiXmlDocument@@XZ 1000ae90 f i i3NetworkAcceptor.obj
 0001:00009ea0       ?ToElement@TiXmlElement@@UAEPAV1@XZ 1000aea0 f i i3NetworkAcceptor.obj
 0001:00009eb0       ?ToElement@TiXmlElement@@UBEPBV1@XZ 1000aeb0 f i i3NetworkAcceptor.obj
 0001:00009ec0       ?ToElement@TiXmlHandle@@QBEPAVTiXmlElement@@XZ 1000aec0 f i i3NetworkAcceptor.obj
 0001:00009ee0       ?ToElement@TiXmlNode@@UAEPAVTiXmlElement@@XZ 1000aee0 f i i3NetworkAcceptor.obj
 0001:00009ef0       ?ToElement@TiXmlNode@@UBEPBVTiXmlElement@@XZ 1000aef0 f i i3NetworkAcceptor.obj
 0001:00009f00       ?ToLower@TiXmlBase@@KAHHW4TiXmlEncoding@@@Z 1000af00 f i i3NetworkAcceptor.obj
 0001:00009f30       ?ToNode@TiXmlHandle@@QBEPAVTiXmlNode@@XZ 1000af30 f i i3NetworkAcceptor.obj
 0001:00009f40       ?ToText@TiXmlHandle@@QBEPAVTiXmlText@@XZ 1000af40 f i i3NetworkAcceptor.obj
 0001:00009f60       ?ToText@TiXmlNode@@UAEPAVTiXmlText@@XZ 1000af60 f i i3NetworkAcceptor.obj
 0001:00009f70       ?ToText@TiXmlNode@@UBEPBVTiXmlText@@XZ 1000af70 f i i3NetworkAcceptor.obj
 0001:00009f80       ?ToText@TiXmlText@@UAEPAV1@XZ 1000af80 f i i3NetworkAcceptor.obj
 0001:00009f90       ?ToText@TiXmlText@@UBEPBV1@XZ 1000af90 f i i3NetworkAcceptor.obj
 0001:00009fa0       ?ToUnknown@TiXmlHandle@@QBEPAVTiXmlUnknown@@XZ 1000afa0 f i i3NetworkAcceptor.obj
 0001:00009fc0       ?ToUnknown@TiXmlNode@@UAEPAVTiXmlUnknown@@XZ 1000afc0 f i i3NetworkAcceptor.obj
 0001:00009fd0       ?ToUnknown@TiXmlNode@@UBEPBVTiXmlUnknown@@XZ 1000afd0 f i i3NetworkAcceptor.obj
 0001:00009fe0       ?ToUnknown@TiXmlUnknown@@UAEPAV1@XZ 1000afe0 f i i3NetworkAcceptor.obj
 0001:00009ff0       ?ToUnknown@TiXmlUnknown@@UBEPBV1@XZ 1000aff0 f i i3NetworkAcceptor.obj
 0001:0000a000       ?Type@TiXmlNode@@QBEHXZ    1000b000 f i i3NetworkAcceptor.obj
 0001:0000a010       ?Unknown@TiXmlHandle@@QBEPAVTiXmlUnknown@@XZ 1000b010 f i i3NetworkAcceptor.obj
 0001:0000a030       ?Value@TiXmlAttribute@@QBEPBDXZ 1000b030 f i i3NetworkAcceptor.obj
 0001:0000a040       ?Value@TiXmlNode@@QBEPBDXZ 1000b040 f i i3NetworkAcceptor.obj
 0001:0000a050       ?ValueTStr@TiXmlNode@@QBEABVTiXmlString@@XZ 1000b050 f i i3NetworkAcceptor.obj
 0001:0000a060       ?Version@TiXmlDeclaration@@QBEPBDXZ 1000b060 f i i3NetworkAcceptor.obj
 0001:0000a070       ?Visit@TiXmlVisitor@@UAE_NABVTiXmlComment@@@Z 1000b070 f i i3NetworkAcceptor.obj
 0001:0000a080       ?Visit@TiXmlVisitor@@UAE_NABVTiXmlDeclaration@@@Z 1000b080 f i i3NetworkAcceptor.obj
 0001:0000a090       ?Visit@TiXmlVisitor@@UAE_NABVTiXmlText@@@Z 1000b090 f i i3NetworkAcceptor.obj
 0001:0000a0a0       ?Visit@TiXmlVisitor@@UAE_NABVTiXmlUnknown@@@Z 1000b0a0 f i i3NetworkAcceptor.obj
 0001:0000a0b0       ?VisitEnter@TiXmlVisitor@@UAE_NABVTiXmlDocument@@@Z 1000b0b0 f i i3NetworkAcceptor.obj
 0001:0000a0c0       ?VisitEnter@TiXmlVisitor@@UAE_NABVTiXmlElement@@PBVTiXmlAttribute@@@Z 1000b0c0 f i i3NetworkAcceptor.obj
 0001:0000a0d0       ?VisitExit@TiXmlVisitor@@UAE_NABVTiXmlDocument@@@Z 1000b0d0 f i i3NetworkAcceptor.obj
 0001:0000a0e0       ?VisitExit@TiXmlVisitor@@UAE_NABVTiXmlElement@@@Z 1000b0e0 f i i3NetworkAcceptor.obj
 0001:0000a0f0       ?_BindObject@i3NetworkAcceptor@@SAPAV1@PAX@Z 1000b0f0 f   i3NetworkAcceptor.obj
 0001:0000a110       ?_BindObjectByType@i3NetworkAcceptor@@SAPAV1@PAXW4I3_CLASSMETA_TYPE@@@Z 1000b110 f   i3NetworkAcceptor.obj
 0001:0000a130       ?_BindObjectRef@i3NetworkAcceptor@@SAPAV1@PAX@Z 1000b130 f   i3NetworkAcceptor.obj
 0001:0000a150       ?_BindObjectRefByType@i3NetworkAcceptor@@SAPAV1@PAXW4I3_CLASSMETA_TYPE@@@Z 1000b150 f   i3NetworkAcceptor.obj
 0001:0000a170       ?_NewObject@i3NetworkAcceptor@@SAPAV1@XZ 1000b170 f   i3NetworkAcceptor.obj
 0001:0000a190       ?_NewObjectByType@i3NetworkAcceptor@@SAPAV1@W4I3_CLASSMETA_TYPE@@@Z 1000b190 f   i3NetworkAcceptor.obj
 0001:0000a1b0       ?_NewObjectRef@i3NetworkAcceptor@@SAPAV1@XZ 1000b1b0 f   i3NetworkAcceptor.obj
 0001:0000a1c0       ?_NewObjectRefByType@i3NetworkAcceptor@@SAPAV1@W4I3_CLASSMETA_TYPE@@@Z 1000b1c0 f   i3NetworkAcceptor.obj
 0001:0000a1e0       ?addAttr@i3XMLElement@@QAEXPBD0@Z 1000b1e0 f i i3NetworkAcceptor.obj
 0001:0000a1f0       ?addAttr@i3XMLElement@@QAEXPBDH@Z 1000b1f0 f i i3NetworkAcceptor.obj
 0001:0000a200       ?addAttr@i3XMLElement@@QAEXPBDI@Z 1000b200 f i i3NetworkAcceptor.obj
 0001:0000a210       ?addAttr@i3XMLElement@@QAEXPBDM@Z 1000b210 f i i3NetworkAcceptor.obj
 0001:0000a230       ?addAttr@i3XMLElement@@QAEXPBD_J@Z 1000b230 f i i3NetworkAcceptor.obj
 0001:0000a250       ?addAttr@i3XMLElement@@QAEXPBD_K@Z 1000b250 f i i3NetworkAcceptor.obj
 0001:0000a270       ?at@TiXmlString@@QBEABDI@Z 1000b270 f i i3NetworkAcceptor.obj
 0001:0000a280       ?c_str@TiXmlString@@QBEPBDXZ 1000b280 f i i3NetworkAcceptor.obj
 0001:0000a290       ?capacity@TiXmlString@@QBEIXZ 1000b290 f i i3NetworkAcceptor.obj
 0001:0000a2a0       ?clear@TiXmlString@@QAEXXZ 1000b2a0 f i i3NetworkAcceptor.obj
 0001:0000a2c0       ?data@TiXmlString@@QBEPBDXZ 1000b2c0 f i i3NetworkAcceptor.obj
 0001:0000a2d0       ?empty@TiXmlString@@QBE_NXZ 1000b2d0 f i i3NetworkAcceptor.obj
 0001:0000a2e0       ?find@TiXmlString@@QBEID@Z 1000b2e0 f i i3NetworkAcceptor.obj
 0001:0000a320       ?find@TiXmlString@@QBEIDI@Z 1000b320 f i i3NetworkAcceptor.obj
 0001:0000a360       ?finish@TiXmlString@@ABEPADXZ 1000b360 f i i3NetworkAcceptor.obj
 0001:0000a370       ?getAttr@i3XMLElement@@QAEPBDPBD@Z 1000b370 f i i3NetworkAcceptor.obj
 0001:0000a380       ?getAttr@i3XMLElement@@QAEPBDPBDPAG@Z 1000b380 f i i3NetworkAcceptor.obj
 0001:0000a3a0       ?getAttr@i3XMLElement@@QAEPBDPBDPAH@Z 1000b3a0 f i i3NetworkAcceptor.obj
 0001:0000a3b0       ?getAttr@i3XMLElement@@QAEPBDPBDPAI@Z 1000b3b0 f i i3NetworkAcceptor.obj
 0001:0000a3c0       ?getAttr@i3XMLElement@@QAEPBDPBDPAM@Z 1000b3c0 f i i3NetworkAcceptor.obj
 0001:0000a3e0       ?getAttr@i3XMLElement@@QAEPBDPBDPA_J@Z 1000b3e0 f i i3NetworkAcceptor.obj
 0001:0000a3f0       ?getAttr@i3XMLElement@@QAEPBDPBDPA_K@Z 1000b3f0 f i i3NetworkAcceptor.obj
 0001:0000a400       ?getListenSocket@i3NetworkServerSocket@@QAEIXZ 1000b400 f i i3NetworkAcceptor.obj
 0001:0000a410       ?getWorkerIOCPHandle@i3NetworkCompletionHandler@@QAEPAXXZ 1000b410 f i i3NetworkAcceptor.obj
 0001:0000a420       ?init@TiXmlString@@AAEXI@Z 1000b420 f i i3NetworkAcceptor.obj
 0001:0000a470       ?init@TiXmlString@@AAEXII@Z 1000b470 f i i3NetworkAcceptor.obj
 0001:0000a4d0       ?length@TiXmlString@@QBEIXZ 1000b4d0 f i i3NetworkAcceptor.obj
 0001:0000a4e0       ?quit@TiXmlString@@AAEXXZ  1000b4e0 f i i3NetworkAcceptor.obj
 0001:0000a500       ?set_size@TiXmlString@@AAEXI@Z 1000b500 f i i3NetworkAcceptor.obj
 0001:0000a520       ?size@TiXmlString@@QBEIXZ  1000b520 f i i3NetworkAcceptor.obj
 0001:0000a530       ?start@TiXmlString@@ABEPADXZ 1000b530 f i i3NetworkAcceptor.obj
 0001:0000a540       ?swap@TiXmlString@@QAEXAAV1@@Z 1000b540 f i i3NetworkAcceptor.obj
 0001:0000a560       ?CreateInstance@?$i3MetaTemplate@Vi3NetworkClientSocket@@@@UAEPAVi3ElementBase@@W4I3_CLASSMETA_TYPE@@@Z 1000b560 f i i3NetworkClientSocket.obj
 0001:0000a640       ?BindInstance@?$i3MetaTemplate@Vi3NetworkClientSocket@@@@UAEPAVi3ElementBase@@PAXW4I3_CLASSMETA_TYPE@@@Z 1000b640 f i i3NetworkClientSocket.obj
 0001:0000a6e0       ??_E?$i3MetaTemplate@Vi3NetworkClientSocket@@@@UAEPAXI@Z 1000b6e0 f i i3NetworkClientSocket.obj
 0001:0000a6e0       ??_G?$i3MetaTemplate@Vi3NetworkClientSocket@@@@UAEPAXI@Z 1000b6e0 f i i3NetworkClientSocket.obj
 0001:0000a710       ??0?$i3MetaTemplate@Vi3NetworkClientSocket@@@@QAE@IPAD0W4I3_CLASSMETA_TYPE@@@Z 1000b710 f i i3NetworkClientSocket.obj
 0001:0000a740       ??0i3NetworkClientSocket@@QAE@ABV0@@Z 1000b740 f i i3NetworkClientSocket.obj
 0001:0000a7b0       ??0i3NetworkClientSocket@@QAE@XZ 1000b7b0 f   i3NetworkClientSocket.obj
 0001:0000a800       ??0i3NetworkPacket@@QAE@ABV0@@Z 1000b800 f i i3NetworkClientSocket.obj
 0001:0000a890       ??0i3Tcp@@QAE@ABV0@@Z      1000b890 f i i3NetworkClientSocket.obj
 0001:0000a8c0       ??0i3Udp@@QAE@ABV0@@Z      1000b8c0 f i i3NetworkClientSocket.obj
 0001:0000a8f0       ??1i3NetworkClientSocket@@UAE@XZ 1000b8f0 f   i3NetworkClientSocket.obj
 0001:0000a940       ??4i3NetworkClientSocket@@QAEAAV0@ABV0@@Z 1000b940 f i i3NetworkClientSocket.obj
 0001:0000a9a0       ??4i3NetworkPacket@@QAEAAV0@ABV0@@Z 1000b9a0 f i i3NetworkClientSocket.obj
 0001:0000aa30       ??4i3Tcp@@QAEAAV0@ABV0@@Z  1000ba30 f i i3NetworkClientSocket.obj
 0001:0000aa60       ??4i3Udp@@QAEAAV0@ABV0@@Z  1000ba60 f i i3NetworkClientSocket.obj
 0001:0000aa90       ??_Ei3NetworkClientSocket@@UAEPAXI@Z 1000ba90 f i i3NetworkClientSocket.obj
 0001:0000ab60       ??_Ei3NetworkPacket@@UAEPAXI@Z 1000bb60 f i i3NetworkClientSocket.obj
 0001:0000ac20       ??_Ei3Tcp@@UAEPAXI@Z       1000bc20 f i i3NetworkClientSocket.obj
 0001:0000ace0       ??_Ei3Udp@@UAEPAXI@Z       1000bce0 f i i3NetworkClientSocket.obj
 0001:0000ada0       ??_Gi3NetworkClientSocket@@UAEPAXI@Z 1000bda0 f i i3NetworkClientSocket.obj
 0001:0000ae30       ??_Gi3NetworkPacket@@UAEPAXI@Z 1000be30 f i i3NetworkClientSocket.obj
 0001:0000ae70       ??_Gi3Tcp@@UAEPAXI@Z       1000be70 f i i3NetworkClientSocket.obj
 0001:0000aeb0       ??_Gi3Udp@@UAEPAXI@Z       1000beb0 f i i3NetworkClientSocket.obj
 0001:0000aef0       ?DisConnect@i3NetworkClientSocket@@UAEXXZ 1000bef0 f   i3NetworkClientSocket.obj
 0001:0000af40       ?GetClassMeta@i3NetworkClientSocket@@SAPAVi3ClassMeta@@XZ 1000bf40 f i i3NetworkClientSocket.obj
 0001:0000af50       ?GetClassMeta@i3NetworkPacket@@SAPAVi3ClassMeta@@XZ 1000bf50 f i i3NetworkClientSocket.obj
 0001:0000af60       ?GetClassMeta@i3Tcp@@SAPAVi3ClassMeta@@XZ 1000bf60 f i i3NetworkClientSocket.obj
 0001:0000af70       ?GetClassMeta@i3Udp@@SAPAVi3ClassMeta@@XZ 1000bf70 f i i3NetworkClientSocket.obj
 0001:0000af80       ?GetDataFieldSize@i3NetworkPacket@@QAEGXZ 1000bf80 f i i3NetworkClientSocket.obj
 0001:0000af90       ?GetFieldBuffer@i3NetworkPacket@@QAEPADXZ 1000bf90 f i i3NetworkClientSocket.obj
 0001:0000afa0       ?GetMeta@i3NetworkClientSocket@@UAEPAVi3ClassMeta@@XZ 1000bfa0 f   i3NetworkClientSocket.obj
 0001:0000afb0       ?GetPacketBuffer@i3NetworkPacket@@QAEPADXZ 1000bfb0 f i i3NetworkClientSocket.obj
 0001:0000afc0       ?GetPacketSize@i3NetworkPacket@@QAEHXZ 1000bfc0 f i i3NetworkClientSocket.obj
 0001:0000afd0       ?GetProtocolID@i3NetworkPacket@@QAEGXZ 1000bfd0 f i i3NetworkClientSocket.obj
 0001:0000afe0       ?GetReceivedSize@i3NetworkPacket@@QAEHXZ 1000bfe0 f i i3NetworkClientSocket.obj
 0001:0000aff0       ?GetRecvBuffer@i3NetworkClientSocket@@IAEPADXZ 1000bff0 f   i3NetworkClientSocket.obj
 0001:0000b000       ?GetSocket@i3NetworkClientSocket@@IAEIXZ 1000c000 f   i3NetworkClientSocket.obj
 0001:0000b010       ?IsConnected@i3NetworkClientSocket@@QBEHXZ 1000c010 f   i3NetworkClientSocket.obj
 0001:0000b020       ?OnCreate@i3NetworkClientSocket@@QAEHIGP6AHPAXPAVi3NetworkPacket@@@Z0@Z 1000c020 f   i3NetworkClientSocket.obj
 0001:0000b030       ?OnCreate@i3NetworkClientSocket@@QAEHPADGP6AHPAXPAVi3NetworkPacket@@@Z1@Z 1000c030 f   i3NetworkClientSocket.obj
 0001:0000b060       ?OnDestroy@i3NetworkClientSocket@@UAEXXZ 1000c060 f   i3NetworkClientSocket.obj
 0001:0000b070       ?OnReceive@i3NetworkClientSocket@@UAEXXZ 1000c070 f   i3NetworkClientSocket.obj
 0001:0000b1f0       ?PacketParsing@i3NetworkClientSocket@@UAEXPAVi3NetworkPacket@@@Z 1000c1f0 f   i3NetworkClientSocket.obj
 0001:0000b200       ?RegisterMeta@i3NetworkClientSocket@@SAXXZ 1000c200 f   i3NetworkClientSocket.obj
 0001:0000b210       ?SelectEvent@i3NetworkClientSocket@@QAEXXZ 1000c210 f   i3NetworkClientSocket.obj
 0001:0000b2d0       ?SendPacketMessage@i3NetworkClientSocket@@UAEHPAVi3NetworkPacket@@@Z 1000c2d0 f   i3NetworkClientSocket.obj
 0001:0000b300       ?SendPacketMessage@i3NetworkClientSocket@@UAEHPBDH@Z 1000c300 f   i3NetworkClientSocket.obj
 0001:0000b3d0       ?SetConcreteClass@i3NetworkClientSocket@@SAXPAVi3ClassMeta@@@Z 1000c3d0 f   i3NetworkClientSocket.obj
 0001:0000b3f0       ?SetGhostClass@i3NetworkClientSocket@@SAXPAVi3ClassMeta@@@Z 1000c3f0 f   i3NetworkClientSocket.obj
 0001:0000b410       ?SetProtocol@i3NetworkPacket@@QAEXG@Z 1000c410 f i i3NetworkClientSocket.obj
 0001:0000b430       ?SetSocket@i3NetworkClientSocket@@QAEHI@Z 1000c430 f   i3NetworkClientSocket.obj
 0001:0000b460       ?_BindObject@i3NetworkClientSocket@@SAPAV1@PAX@Z 1000c460 f   i3NetworkClientSocket.obj
 0001:0000b480       ?_BindObjectByType@i3NetworkClientSocket@@SAPAV1@PAXW4I3_CLASSMETA_TYPE@@@Z 1000c480 f   i3NetworkClientSocket.obj
 0001:0000b4a0       ?_BindObjectRef@i3NetworkClientSocket@@SAPAV1@PAX@Z 1000c4a0 f   i3NetworkClientSocket.obj
 0001:0000b4c0       ?_BindObjectRefByType@i3NetworkClientSocket@@SAPAV1@PAXW4I3_CLASSMETA_TYPE@@@Z 1000c4c0 f   i3NetworkClientSocket.obj
 0001:0000b4e0       ?_Create@i3NetworkClientSocket@@AAEHIGP6AHPAXPAVi3NetworkPacket@@@Z0@Z 1000c4e0 f   i3NetworkClientSocket.obj
 0001:0000b5b0       ?_NewObject@i3NetworkClientSocket@@SAPAV1@XZ 1000c5b0 f   i3NetworkClientSocket.obj
 0001:0000b5d0       ?_NewObjectByType@i3NetworkClientSocket@@SAPAV1@W4I3_CLASSMETA_TYPE@@@Z 1000c5d0 f   i3NetworkClientSocket.obj
 0001:0000b5f0       ?_NewObjectRef@i3NetworkClientSocket@@SAPAV1@XZ 1000c5f0 f   i3NetworkClientSocket.obj
 0001:0000b600       ?_NewObjectRefByType@i3NetworkClientSocket@@SAPAV1@W4I3_CLASSMETA_TYPE@@@Z 1000c600 f   i3NetworkClientSocket.obj
 0001:0000b620       ?getSocketHandle@i3Udp@@QAEIXZ 1000c620 f i i3NetworkClientSocket.obj
 0001:0000b630       ?CreateInstance@?$i3MetaTemplate@Vi3NetworkClientSocket2@@@@UAEPAVi3ElementBase@@W4I3_CLASSMETA_TYPE@@@Z 1000c630 f i i3NetworkClientSocket2.obj
 0001:0000b710       ?BindInstance@?$i3MetaTemplate@Vi3NetworkClientSocket2@@@@UAEPAVi3ElementBase@@PAXW4I3_CLASSMETA_TYPE@@@Z 1000c710 f i i3NetworkClientSocket2.obj
 0001:0000b7b0       ??_E?$i3MetaTemplate@Vi3NetworkClientSocket2@@@@UAEPAXI@Z 1000c7b0 f i i3NetworkClientSocket2.obj
 0001:0000b7b0       ??_G?$i3MetaTemplate@Vi3NetworkClientSocket2@@@@UAEPAXI@Z 1000c7b0 f i i3NetworkClientSocket2.obj
 0001:0000b7e0       ??0?$i3MetaTemplate@Vi3NetworkClientSocket2@@@@QAE@IPAD0W4I3_CLASSMETA_TYPE@@@Z 1000c7e0 f i i3NetworkClientSocket2.obj
 0001:0000b810       ??0i3NetworkClientSocket2@@QAE@ABV0@@Z 1000c810 f i i3NetworkClientSocket2.obj
 0001:0000b880       ??0i3NetworkClientSocket2@@QAE@XZ 1000c880 f   i3NetworkClientSocket2.obj
 0001:0000b8d0       ??1i3NetworkClientSocket2@@UAE@XZ 1000c8d0 f   i3NetworkClientSocket2.obj
 0001:0000b920       ??4i3NetworkClientSocket2@@QAEAAV0@ABV0@@Z 1000c920 f i i3NetworkClientSocket2.obj
 0001:0000b980       ??_Ei3NetworkClientSocket2@@UAEPAXI@Z 1000c980 f i i3NetworkClientSocket2.obj
 0001:0000ba50       ??_Gi3NetworkClientSocket2@@UAEPAXI@Z 1000ca50 f i i3NetworkClientSocket2.obj
 0001:0000bae0       ?DisConnect@i3NetworkClientSocket2@@UAEXXZ 1000cae0 f   i3NetworkClientSocket2.obj
 0001:0000bb30       ?GetClassMeta@i3NetworkClientSocket2@@SAPAVi3ClassMeta@@XZ 1000cb30 f i i3NetworkClientSocket2.obj
 0001:0000bb40       ?GetMeta@i3NetworkClientSocket2@@UAEPAVi3ClassMeta@@XZ 1000cb40 f   i3NetworkClientSocket2.obj
 0001:0000bb50       ?GetRecvBuffer@i3NetworkClientSocket2@@IAEPADXZ 1000cb50 f   i3NetworkClientSocket2.obj
 0001:0000bb60       ?GetSocket@i3NetworkClientSocket2@@IAEIXZ 1000cb60 f   i3NetworkClientSocket2.obj
 0001:0000bb70       ?IsConnected@i3NetworkClientSocket2@@QBEHXZ 1000cb70 f   i3NetworkClientSocket2.obj
 0001:0000bb80       ?OnCreate@i3NetworkClientSocket2@@QAEHIGP6AHPAXPADH@Z0@Z 1000cb80 f   i3NetworkClientSocket2.obj
 0001:0000bb90       ?OnCreate@i3NetworkClientSocket2@@QAEHPADGP6AHPAX0H@Z1@Z 1000cb90 f   i3NetworkClientSocket2.obj
 0001:0000bbc0       ?OnDestroy@i3NetworkClientSocket2@@UAEXXZ 1000cbc0 f   i3NetworkClientSocket2.obj
 0001:0000bbd0       ?OnReceive@i3NetworkClientSocket2@@UAEHXZ 1000cbd0 f   i3NetworkClientSocket2.obj
 0001:0000bd10       ?PacketParsing@i3NetworkClientSocket2@@UAEHPADH@Z 1000cd10 f   i3NetworkClientSocket2.obj
 0001:0000bd20       ?RegisterMeta@i3NetworkClientSocket2@@SAXXZ 1000cd20 f   i3NetworkClientSocket2.obj
 0001:0000bd30       ?SelectEvent@i3NetworkClientSocket2@@QAEHXZ 1000cd30 f   i3NetworkClientSocket2.obj
 0001:0000be00       ?SendPacketMessage@i3NetworkClientSocket2@@UAEHPAVi3NetworkPacket@@@Z 1000ce00 f   i3NetworkClientSocket2.obj
 0001:0000be30       ?SendPacketMessage@i3NetworkClientSocket2@@UAEHPBDH@Z 1000ce30 f   i3NetworkClientSocket2.obj
 0001:0000bf00       ?SetConcreteClass@i3NetworkClientSocket2@@SAXPAVi3ClassMeta@@@Z 1000cf00 f   i3NetworkClientSocket2.obj
 0001:0000bf20       ?SetGhostClass@i3NetworkClientSocket2@@SAXPAVi3ClassMeta@@@Z 1000cf20 f   i3NetworkClientSocket2.obj
 0001:0000bf40       ?SetSocket@i3NetworkClientSocket2@@QAEHI@Z 1000cf40 f   i3NetworkClientSocket2.obj
 0001:0000bf70       ?_BindObject@i3NetworkClientSocket2@@SAPAV1@PAX@Z 1000cf70 f   i3NetworkClientSocket2.obj
 0001:0000bf90       ?_BindObjectByType@i3NetworkClientSocket2@@SAPAV1@PAXW4I3_CLASSMETA_TYPE@@@Z 1000cf90 f   i3NetworkClientSocket2.obj
 0001:0000bfb0       ?_BindObjectRef@i3NetworkClientSocket2@@SAPAV1@PAX@Z 1000cfb0 f   i3NetworkClientSocket2.obj
 0001:0000bfd0       ?_BindObjectRefByType@i3NetworkClientSocket2@@SAPAV1@PAXW4I3_CLASSMETA_TYPE@@@Z 1000cfd0 f   i3NetworkClientSocket2.obj
 0001:0000bff0       ?_Create@i3NetworkClientSocket2@@AAEHIGP6AHPAXPADH@Z0@Z 1000cff0 f   i3NetworkClientSocket2.obj
 0001:0000c0c0       ?_NewObject@i3NetworkClientSocket2@@SAPAV1@XZ 1000d0c0 f   i3NetworkClientSocket2.obj
 0001:0000c0e0       ?_NewObjectByType@i3NetworkClientSocket2@@SAPAV1@W4I3_CLASSMETA_TYPE@@@Z 1000d0e0 f   i3NetworkClientSocket2.obj
 0001:0000c100       ?_NewObjectRef@i3NetworkClientSocket2@@SAPAV1@XZ 1000d100 f   i3NetworkClientSocket2.obj
 0001:0000c110       ?_NewObjectRefByType@i3NetworkClientSocket2@@SAPAV1@W4I3_CLASSMETA_TYPE@@@Z 1000d110 f   i3NetworkClientSocket2.obj
 0001:0000c130       ?CreateInstance@?$i3MetaTemplate@Vi3NetworkCompletionHandler@@@@UAEPAVi3ElementBase@@W4I3_CLASSMETA_TYPE@@@Z 1000d130 f i i3NetworkCompletionHandler.obj
 0001:0000c210       ?BindInstance@?$i3MetaTemplate@Vi3NetworkCompletionHandler@@@@UAEPAVi3ElementBase@@PAXW4I3_CLASSMETA_TYPE@@@Z 1000d210 f i i3NetworkCompletionHandler.obj
 0001:0000c2b0       ??_E?$i3MetaTemplate@Vi3NetworkCompletionHandler@@@@UAEPAXI@Z 1000d2b0 f i i3NetworkCompletionHandler.obj
 0001:0000c2b0       ??_G?$i3MetaTemplate@Vi3NetworkCompletionHandler@@@@UAEPAXI@Z 1000d2b0 f i i3NetworkCompletionHandler.obj
 0001:0000c2e0       ??0?$i3MetaTemplate@Vi3NetworkCompletionHandler@@@@QAE@IPAD0W4I3_CLASSMETA_TYPE@@@Z 1000d2e0 f i i3NetworkCompletionHandler.obj
 0001:0000c310       ??0i3NetworkCompletionHandler@@QAE@XZ 1000d310 f   i3NetworkCompletionHandler.obj
 0001:0000c390       ??0i3NetworkDataBase@@QAE@ABV0@@Z 1000d390 f i i3NetworkCompletionHandler.obj
 0001:0000c420       ??0i3NetworkIocpWorker@@QAE@ABV0@@Z 1000d420 f i i3NetworkCompletionHandler.obj
 0001:0000c480       ??1i3NetworkCompletionHandler@@UAE@XZ 1000d480 f   i3NetworkCompletionHandler.obj
 0001:0000c4e0       ??4i3NetworkDataBase@@QAEAAV0@ABV0@@Z 1000d4e0 f i i3NetworkCompletionHandler.obj
 0001:0000c570       ??4i3NetworkIocpWorker@@QAEAAV0@ABV0@@Z 1000d570 f i i3NetworkCompletionHandler.obj
 0001:0000c5c0       ??_Ei3NetworkDataBase@@UAEPAXI@Z 1000d5c0 f i i3NetworkCompletionHandler.obj
 0001:0000c680       ??_Ei3NetworkIocpWorker@@UAEPAXI@Z 1000d680 f i i3NetworkCompletionHandler.obj
 0001:0000c740       ??_Gi3NetworkDataBase@@UAEPAXI@Z 1000d740 f i i3NetworkCompletionHandler.obj
 0001:0000c780       ??_Gi3NetworkIocpWorker@@UAEPAXI@Z 1000d780 f i i3NetworkCompletionHandler.obj
 0001:0000c7c0       ?GetClassMeta@i3NetworkDataBase@@SAPAVi3ClassMeta@@XZ 1000d7c0 f i i3NetworkCompletionHandler.obj
 0001:0000c7d0       ?GetClassMeta@i3NetworkIocpWorker@@SAPAVi3ClassMeta@@XZ 1000d7d0 f i i3NetworkCompletionHandler.obj
 0001:0000c7e0       ?GetMeta@i3NetworkCompletionHandler@@UAEPAVi3ClassMeta@@XZ 1000d7e0 f   i3NetworkCompletionHandler.obj
 0001:0000c7f0       ?GetPacketInfo@i3NetworkCompletionHandler@@QAEXPA_K000@Z 1000d7f0 f   i3NetworkCompletionHandler.obj
 0001:0000c8c0       ?GetPacketInfoThread@i3NetworkCompletionHandler@@QAEXHPA_K000@Z 1000d8c0 f   i3NetworkCompletionHandler.obj
 0001:0000c930       ?OnAddIOCP@i3NetworkCompletionHandler@@QAEXPAXK@Z 1000d930 f   i3NetworkCompletionHandler.obj
 0001:0000c950       ?OnCreate@i3NetworkCompletionHandler@@QAEHHPAVi3NetworkSessionManager@@@Z 1000d950 f   i3NetworkCompletionHandler.obj
 0001:0000cb30       ?OnDestroy@i3NetworkCompletionHandler@@QAEHXZ 1000db30 f   i3NetworkCompletionHandler.obj
 0001:0000cc40       ?RegisterMeta@i3NetworkCompletionHandler@@SAXXZ 1000dc40 f   i3NetworkCompletionHandler.obj
 0001:0000cc50       ?SetConcreteClass@i3NetworkCompletionHandler@@SAXPAVi3ClassMeta@@@Z 1000dc50 f   i3NetworkCompletionHandler.obj
 0001:0000cc70       ?SetGhostClass@i3NetworkCompletionHandler@@SAXPAVi3ClassMeta@@@Z 1000dc70 f   i3NetworkCompletionHandler.obj
 0001:0000cc90       ?SetIocpHandle@i3NetworkIocpWorker@@QAEXPAXPAVi3NetworkSessionManager@@HPAVi3NetworkCompletionHandler@@@Z 1000dc90 f i i3NetworkCompletionHandler.obj
 0001:0000ccc0       ?_BindObject@i3NetworkCompletionHandler@@SAPAV1@PAX@Z 1000dcc0 f   i3NetworkCompletionHandler.obj
 0001:0000cce0       ?_BindObjectByType@i3NetworkCompletionHandler@@SAPAV1@PAXW4I3_CLASSMETA_TYPE@@@Z 1000dce0 f   i3NetworkCompletionHandler.obj
 0001:0000cd00       ?_BindObjectRef@i3NetworkCompletionHandler@@SAPAV1@PAX@Z 1000dd00 f   i3NetworkCompletionHandler.obj
 0001:0000cd20       ?_BindObjectRefByType@i3NetworkCompletionHandler@@SAPAV1@PAXW4I3_CLASSMETA_TYPE@@@Z 1000dd20 f   i3NetworkCompletionHandler.obj
 0001:0000cd40       ?_NewObject@i3NetworkCompletionHandler@@SAPAV1@XZ 1000dd40 f   i3NetworkCompletionHandler.obj
 0001:0000cd60       ?_NewObjectByType@i3NetworkCompletionHandler@@SAPAV1@W4I3_CLASSMETA_TYPE@@@Z 1000dd60 f   i3NetworkCompletionHandler.obj
 0001:0000cd80       ?_NewObjectRef@i3NetworkCompletionHandler@@SAPAV1@XZ 1000dd80 f   i3NetworkCompletionHandler.obj
 0001:0000cd90       ?_NewObjectRefByType@i3NetworkCompletionHandler@@SAPAV1@W4I3_CLASSMETA_TYPE@@@Z 1000dd90 f   i3NetworkCompletionHandler.obj
 0001:0000cdb0       ?CreateInstance@?$i3MetaTemplate@Vi3NetworkDataBase@@@@UAEPAVi3ElementBase@@W4I3_CLASSMETA_TYPE@@@Z 1000ddb0 f i i3NetworkDB.obj
 0001:0000ce90       ?BindInstance@?$i3MetaTemplate@Vi3NetworkDataBase@@@@UAEPAVi3ElementBase@@PAXW4I3_CLASSMETA_TYPE@@@Z 1000de90 f i i3NetworkDB.obj
 0001:0000cf30       ??_E?$i3MetaTemplate@Vi3NetworkDataBase@@@@UAEPAXI@Z 1000df30 f i i3NetworkDB.obj
 0001:0000cf30       ??_G?$i3MetaTemplate@Vi3NetworkDataBase@@@@UAEPAXI@Z 1000df30 f i i3NetworkDB.obj
 0001:0000cf60       ??0?$i3MetaTemplate@Vi3NetworkDataBase@@@@QAE@IPAD0W4I3_CLASSMETA_TYPE@@@Z 1000df60 f i i3NetworkDB.obj
 0001:0000cf90       ??0i3NetworkDataBase@@QAE@XZ 1000df90 f   i3NetworkDB.obj
 0001:0000cfe0       ??1i3NetworkDataBase@@UAE@XZ 1000dfe0 f   i3NetworkDB.obj
 0001:0000d000       ?Clean@i3NetworkDataBase@@QAEHXZ 1000e000 f   i3NetworkDB.obj
 0001:0000d040       ?Connect@i3NetworkDataBase@@QAEHPAD00@Z 1000e040 f   i3NetworkDB.obj
 0001:0000d1a0       ?Disconnect@i3NetworkDataBase@@QAEHXZ 1000e1a0 f   i3NetworkDB.obj
 0001:0000d290       ?ExecDirect@i3NetworkDataBase@@QAEHPAD@Z 1000e290 f   i3NetworkDB.obj
 0001:0000d360       ?FetchData@i3NetworkDataBase@@QAEHXZ 1000e360 f   i3NetworkDB.obj
 0001:0000d3a0       ?GetCurrentDate@i3NetworkDataBase@@QAEPADXZ 1000e3a0 f   i3NetworkDB.obj
 0001:0000d400       ?GetData@i3NetworkDataBase@@QAEHFFJPAX@Z 1000e400 f   i3NetworkDB.obj
 0001:0000d460       ?GetError@i3NetworkDataBase@@QAEXFPAXPBD@Z 1000e460 f   i3NetworkDB.obj
 0001:0000d560       ?GetMeta@i3NetworkDataBase@@UAEPAVi3ClassMeta@@XZ 1000e560 f   i3NetworkDB.obj
 0001:0000d570       ?ReConnect@i3NetworkDataBase@@QAEHXZ 1000e570 f   i3NetworkDB.obj
 0001:0000d590       ?RegisterMeta@i3NetworkDataBase@@SAXXZ 1000e590 f   i3NetworkDB.obj
 0001:0000d5a0       ?ResultColCount@i3NetworkDataBase@@QAEFXZ 1000e5a0 f   i3NetworkDB.obj
 0001:0000d5f0       ?ResultRowCount@i3NetworkDataBase@@QAEJXZ 1000e5f0 f   i3NetworkDB.obj
 0001:0000d640       ?SetConcreteClass@i3NetworkDataBase@@SAXPAVi3ClassMeta@@@Z 1000e640 f   i3NetworkDB.obj
 0001:0000d660       ?SetGhostClass@i3NetworkDataBase@@SAXPAVi3ClassMeta@@@Z 1000e660 f   i3NetworkDB.obj
 0001:0000d680       ?SetStmtOption@i3NetworkDataBase@@QAEHHI@Z 1000e680 f   i3NetworkDB.obj
 0001:0000d6d0       ?_BindObject@i3NetworkDataBase@@SAPAV1@PAX@Z 1000e6d0 f   i3NetworkDB.obj
 0001:0000d6f0       ?_BindObjectByType@i3NetworkDataBase@@SAPAV1@PAXW4I3_CLASSMETA_TYPE@@@Z 1000e6f0 f   i3NetworkDB.obj
 0001:0000d710       ?_BindObjectRef@i3NetworkDataBase@@SAPAV1@PAX@Z 1000e710 f   i3NetworkDB.obj
 0001:0000d730       ?_BindObjectRefByType@i3NetworkDataBase@@SAPAV1@PAXW4I3_CLASSMETA_TYPE@@@Z 1000e730 f   i3NetworkDB.obj
 0001:0000d750       ?_NewObject@i3NetworkDataBase@@SAPAV1@XZ 1000e750 f   i3NetworkDB.obj
 0001:0000d770       ?_NewObjectByType@i3NetworkDataBase@@SAPAV1@W4I3_CLASSMETA_TYPE@@@Z 1000e770 f   i3NetworkDB.obj
 0001:0000d790       ?_NewObjectRef@i3NetworkDataBase@@SAPAV1@XZ 1000e790 f   i3NetworkDB.obj
 0001:0000d7a0       ?_NewObjectRefByType@i3NetworkDataBase@@SAPAV1@W4I3_CLASSMETA_TYPE@@@Z 1000e7a0 f   i3NetworkDB.obj
 0001:0000d7c0       ?CreateInstance@?$i3MetaTemplate@Vi3NetworkFTP@@@@UAEPAVi3ElementBase@@W4I3_CLASSMETA_TYPE@@@Z 1000e7c0 f i i3NetworkFTP.obj
 0001:0000d8a0       ?BindInstance@?$i3MetaTemplate@Vi3NetworkFTP@@@@UAEPAVi3ElementBase@@PAXW4I3_CLASSMETA_TYPE@@@Z 1000e8a0 f i i3NetworkFTP.obj
 0001:0000d940       ??_E?$i3MetaTemplate@Vi3NetworkFTP@@@@UAEPAXI@Z 1000e940 f i i3NetworkFTP.obj
 0001:0000d940       ??_G?$i3MetaTemplate@Vi3NetworkFTP@@@@UAEPAXI@Z 1000e940 f i i3NetworkFTP.obj
 0001:0000d970       ??0?$i3MetaTemplate@Vi3NetworkFTP@@@@QAE@IPAD0W4I3_CLASSMETA_TYPE@@@Z 1000e970 f i i3NetworkFTP.obj
 0001:0000d9a0       ??0i3NetworkFTP@@QAE@ABV0@@Z 1000e9a0 f i i3NetworkFTP.obj
 0001:0000da70       ??0i3NetworkFTP@@QAE@XZ    1000ea70 f   i3NetworkFTP.obj
 0001:0000db30       ??1i3NetworkFTP@@UAE@XZ    1000eb30 f   i3NetworkFTP.obj
 0001:0000db40       ??4i3NetworkFTP@@QAEAAV0@ABV0@@Z 1000eb40 f i i3NetworkFTP.obj
 0001:0000dc30       ??_Ei3NetworkFTP@@UAEPAXI@Z 1000ec30 f i i3NetworkFTP.obj
 0001:0000dcf0       ??_Gi3NetworkFTP@@UAEPAXI@Z 1000ecf0 f i i3NetworkFTP.obj
 0001:0000dd40       ?CheckDirectory@i3NetworkFTP@@QAEHPBD@Z 1000ed40 f   i3NetworkFTP.obj
 0001:0000de10       ?CheckFile@i3NetworkFTP@@QAEHPBD@Z 1000ee10 f   i3NetworkFTP.obj
 0001:0000df20       ?CheckRemoteDir@i3NetworkFTP@@QAEHPAXPBD@Z 1000ef20 f   i3NetworkFTP.obj
 0001:0000e040       ?Connect@i3NetworkFTP@@QAEHXZ 1000f040 f   i3NetworkFTP.obj
 0001:0000e0a0       ?ConvertInternetDir@i3NetworkFTP@@QAEXPADH@Z 1000f0a0 f   i3NetworkFTP.obj
 0001:0000e0d0       ?Create@i3NetworkFTP@@QAEHPADH00I@Z 1000f0d0 f   i3NetworkFTP.obj
 0001:0000e200       ?DeleteFileA@i3NetworkFTP@@QAEHPBD@Z 1000f200 f   i3NetworkFTP.obj
 0001:0000e220       ?DisConnect@i3NetworkFTP@@QAEHXZ 1000f220 f   i3NetworkFTP.obj
 0001:0000e250       ?DownLoadFile2@i3NetworkFTP@@QAEHPAD@Z 1000f250 f   i3NetworkFTP.obj
 0001:0000e410       ?DownLoadFile@i3NetworkFTP@@QAEHPAD0@Z 1000f410 f   i3NetworkFTP.obj
 0001:0000e590       ?DownLoadFile@i3NetworkFTP@@QAEHPAD@Z 1000f590 f   i3NetworkFTP.obj
 0001:0000e620       ?GetClassMeta@i3NetworkFTP@@SAPAVi3ClassMeta@@XZ 1000f620 f i i3NetworkFTP.obj
 0001:0000e630       ?GetMeta@i3NetworkFTP@@UAEPAVi3ClassMeta@@XZ 1000f630 f   i3NetworkFTP.obj
 0001:0000e640       ?OnDownLoad@i3NetworkFTP@@UAEXXZ 1000f640 f   i3NetworkFTP.obj
 0001:0000e650       ?OnUpLoad@i3NetworkFTP@@UAEXXZ 1000f650 f   i3NetworkFTP.obj
 0001:0000e660       ?RegisterMeta@i3NetworkFTP@@SAXXZ 1000f660 f   i3NetworkFTP.obj
 0001:0000e670       ?SetConcreteClass@i3NetworkFTP@@SAXPAVi3ClassMeta@@@Z 1000f670 f   i3NetworkFTP.obj
 0001:0000e690       ?SetGhostClass@i3NetworkFTP@@SAXPAVi3ClassMeta@@@Z 1000f690 f   i3NetworkFTP.obj
 0001:0000e6b0       ?UploadFile2@i3NetworkFTP@@QAEHPBD0@Z 1000f6b0 f   i3NetworkFTP.obj
 0001:0000e880       ?UploadFile2@i3NetworkFTP@@QAEHPBD@Z 1000f880 f   i3NetworkFTP.obj
 0001:0000e910       ?UploadFile@i3NetworkFTP@@QAEHPBD0@Z 1000f910 f   i3NetworkFTP.obj
 0001:0000eae0       ?UploadFile@i3NetworkFTP@@QAEHPBD@Z 1000fae0 f   i3NetworkFTP.obj
 0001:0000eb70       ?_BindObject@i3NetworkFTP@@SAPAV1@PAX@Z 1000fb70 f   i3NetworkFTP.obj
 0001:0000eb90       ?_BindObjectByType@i3NetworkFTP@@SAPAV1@PAXW4I3_CLASSMETA_TYPE@@@Z 1000fb90 f   i3NetworkFTP.obj
 0001:0000ebb0       ?_BindObjectRef@i3NetworkFTP@@SAPAV1@PAX@Z 1000fbb0 f   i3NetworkFTP.obj
 0001:0000ebd0       ?_BindObjectRefByType@i3NetworkFTP@@SAPAV1@PAXW4I3_CLASSMETA_TYPE@@@Z 1000fbd0 f   i3NetworkFTP.obj
 0001:0000ebf0       ?_NewObject@i3NetworkFTP@@SAPAV1@XZ 1000fbf0 f   i3NetworkFTP.obj
 0001:0000ec10       ?_NewObjectByType@i3NetworkFTP@@SAPAV1@W4I3_CLASSMETA_TYPE@@@Z 1000fc10 f   i3NetworkFTP.obj
 0001:0000ec30       ?_NewObjectRef@i3NetworkFTP@@SAPAV1@XZ 1000fc30 f   i3NetworkFTP.obj
 0001:0000ec40       ?_NewObjectRefByType@i3NetworkFTP@@SAPAV1@W4I3_CLASSMETA_TYPE@@@Z 1000fc40 f   i3NetworkFTP.obj
 0001:0000ec60       ?addFlags@i3NetworkFTP@@QAEXI@Z 1000fc60 f i i3NetworkFTP.obj
 0001:0000ec70       ?getAddress@i3NetworkFTP@@QAEPADXZ 1000fc70 f i i3NetworkFTP.obj
 0001:0000ec80       ?getFlags@i3NetworkFTP@@QAEIXZ 1000fc80 f i i3NetworkFTP.obj
 0001:0000ec90       ?getLog@i3NetworkFTP@@QAEPADXZ 1000fc90 f i i3NetworkFTP.obj
 0001:0000eca0       ?getPort@i3NetworkFTP@@QAEGXZ 1000fca0 f i i3NetworkFTP.obj
 0001:0000ecb0       ?getUserID@i3NetworkFTP@@QAEPADXZ 1000fcb0 f i i3NetworkFTP.obj
 0001:0000ecc0       ?getUserPass@i3NetworkFTP@@QAEPADXZ 1000fcc0 f i i3NetworkFTP.obj
 0001:0000ecd0       ?removeFlags@i3NetworkFTP@@QAEXI@Z 1000fcd0 f i i3NetworkFTP.obj
 0001:0000ece0       ?setAddress@i3NetworkFTP@@QAEXPAD@Z 1000fce0 f i i3NetworkFTP.obj
 0001:0000ed00       ?setFlags@i3NetworkFTP@@QAEXI@Z 1000fd00 f i i3NetworkFTP.obj
 0001:0000ed10       ?setPort@i3NetworkFTP@@QAEXG@Z 1000fd10 f i i3NetworkFTP.obj
 0001:0000ed20       ?setUserID@i3NetworkFTP@@QAEXPAD@Z 1000fd20 f i i3NetworkFTP.obj
 0001:0000ed40       ?setUserPass@i3NetworkFTP@@QAEXPAD@Z 1000fd40 f i i3NetworkFTP.obj
 0001:0000ed60       ?CreateInstance@?$i3MetaTemplate@Vi3NetworkHTTP@@@@UAEPAVi3ElementBase@@W4I3_CLASSMETA_TYPE@@@Z 1000fd60 f i i3NetworkHTTP.obj
 0001:0000ee40       ?BindInstance@?$i3MetaTemplate@Vi3NetworkHTTP@@@@UAEPAVi3ElementBase@@PAXW4I3_CLASSMETA_TYPE@@@Z 1000fe40 f i i3NetworkHTTP.obj
 0001:0000eee0       ??_E?$i3MetaTemplate@Vi3NetworkHTTP@@@@UAEPAXI@Z 1000fee0 f i i3NetworkHTTP.obj
 0001:0000eee0       ??_G?$i3MetaTemplate@Vi3NetworkHTTP@@@@UAEPAXI@Z 1000fee0 f i i3NetworkHTTP.obj
 0001:0000ef10       ??0?$i3MetaTemplate@Vi3NetworkHTTP@@@@QAE@IPAD0W4I3_CLASSMETA_TYPE@@@Z 1000ff10 f i i3NetworkHTTP.obj
 0001:0000ef40       ??0UINT128@@QAE@XZ         1000ff40 f i i3NetworkHTTP.obj
 0001:0000ef50       ??0i3NetworkHTTP@@QAE@ABV0@@Z 1000ff50 f i i3NetworkHTTP.obj
 0001:0000f170       ??0i3NetworkHTTP@@QAE@XZ   10010170 f   i3NetworkHTTP.obj
 0001:0000f360       ??1i3NetworkHTTP@@UAE@XZ   10010360 f   i3NetworkHTTP.obj
 0001:0000f3c0       ??4i3NetworkHTTP@@QAEAAV0@ABV0@@Z 100103c0 f i i3NetworkHTTP.obj
 0001:0000f680       ??_Ei3NetworkHTTP@@UAEPAXI@Z 10010680 f i i3NetworkHTTP.obj
 0001:0000f760       ??_Gi3NetworkHTTP@@UAEPAXI@Z 10010760 f i i3NetworkHTTP.obj
 0001:0000f800       ?AddArgument@i3NetworkHTTP@@QAEHPAD0@Z 10010800 f   i3NetworkHTTP.obj
 0001:0000f8d0       ?AddArgument@i3NetworkHTTP@@QAEHPADH@Z 100108d0 f   i3NetworkHTTP.obj
 0001:0000f950       ?AddArgument@i3NetworkHTTP@@QAEHPADK@Z 10010950 f   i3NetworkHTTP.obj
 0001:0000f9d0       ?AddArgument@i3NetworkHTTP@@QAEHPADPAEH@Z 100109d0 f   i3NetworkHTTP.obj
 0001:0000fa90       ?AddArgument@i3NetworkHTTP@@QAEHPAD_J@Z 10010a90 f   i3NetworkHTTP.obj
 0001:0000fb20       ?Cancel@i3NetworkHTTP@@QAEXXZ 10010b20 f   i3NetworkHTTP.obj
 0001:0000fbb0       ?CheckFile@i3NetworkHTTP@@QAEHPAD@Z 10010bb0 f   i3NetworkHTTP.obj
 0001:0000fc30       ?Connect@i3NetworkHTTP@@QAEHPADW4REQUEST_METHOD@1@@Z 10010c30 f   i3NetworkHTTP.obj
 0001:0000fcd0       ?ConvertMD5@i3NetworkHTTP@@QAEXPAD0@Z 10010cd0 f   i3NetworkHTTP.obj
 0001:0000fd40       ?CreateMethod@i3NetworkHTTP@@QAEXIIIII@Z 10010d40 f   i3NetworkHTTP.obj
 0001:0000fdc0       ?DeleteFileA@i3NetworkHTTP@@QAEHPAD@Z 10010dc0 f   i3NetworkHTTP.obj
 0001:0000fdd0       ?Destroy@i3NetworkHTTP@@QAEXXZ 10010dd0 f   i3NetworkHTTP.obj
 0001:0000fe40       ?DisConnect@i3NetworkHTTP@@QAEXXZ 10010e40 f   i3NetworkHTTP.obj
 0001:0000fee0       ?DownFile@i3NetworkHTTP@@QAEHXZ 10010ee0 f   i3NetworkHTTP.obj
 0001:00010520       ?DownStart@i3NetworkHTTP@@QAEHPAD0@Z 10011520 f   i3NetworkHTTP.obj
 0001:00010720       ?GetClassMeta@i3NetworkHTTP@@SAPAVi3ClassMeta@@XZ 10011720 f i i3NetworkHTTP.obj
 0001:00010730       ?GetFileError@i3NetworkHTTP@@QAEHXZ 10011730 f i i3NetworkHTTP.obj
 0001:00010740       ?GetLastErrorCode@i3NetworkHTTP@@QAEHXZ 10011740 f i i3NetworkHTTP.obj
 0001:00010750       ?GetLastErrorString@i3NetworkHTTP@@QAEPADXZ 10011750 f i i3NetworkHTTP.obj
 0001:00010760       ?GetMeta@i3NetworkHTTP@@UAEPAVi3ClassMeta@@XZ 10011760 f   i3NetworkHTTP.obj
 0001:00010770       ?GetPostArguments@i3NetworkHTTP@@QAEXPADH@Z 10011770 f   i3NetworkHTTP.obj
 0001:00010790       ?GetReadBuffer@i3NetworkHTTP@@QAEPADXZ 10011790 f i i3NetworkHTTP.obj
 0001:000107a0       ?GetRequestResult@i3NetworkHTTP@@QAEPADXZ 100117a0 f i i3NetworkHTTP.obj
 0001:000107b0       ?GetState@i3NetworkHTTP@@QAEHXZ 100117b0 f i i3NetworkHTTP.obj
 0001:000107c0       ?IsInternetConnect@i3NetworkHTTP@@QAEHXZ 100117c0 f   i3NetworkHTTP.obj
 0001:000107e0       ?ParseURL@i3NetworkHTTP@@QAEXPAD00AAG0@Z 100117e0 f   i3NetworkHTTP.obj
 0001:00010a60       ?RecvRequest@i3NetworkHTTP@@QAEHXZ 10011a60 f   i3NetworkHTTP.obj
 0001:00010b20       ?RegisterMeta@i3NetworkHTTP@@SAXXZ 10011b20 f   i3NetworkHTTP.obj
 0001:00010b30       ?ReloadCheck@i3NetworkHTTP@@QAEHXZ 10011b30 f   i3NetworkHTTP.obj
 0001:00010b60       ?ResetArguments@i3NetworkHTTP@@QAEXXZ 10011b60 f   i3NetworkHTTP.obj
 0001:00010b70       ?RestartCheck@i3NetworkHTTP@@QAEHXZ 10011b70 f   i3NetworkHTTP.obj
 0001:00010b90       ?SendRequestGet@i3NetworkHTTP@@QAEHPAD@Z 10011b90 f   i3NetworkHTTP.obj
 0001:00010c30       ?SendRequestPost@i3NetworkHTTP@@QAEHXZ 10011c30 f   i3NetworkHTTP.obj
 0001:00010db0       ?SetConcreteClass@i3NetworkHTTP@@SAXPAVi3ClassMeta@@@Z 10011db0 f   i3NetworkHTTP.obj
 0001:00010dd0       ?SetGhostClass@i3NetworkHTTP@@SAXPAVi3ClassMeta@@@Z 10011dd0 f   i3NetworkHTTP.obj
 0001:00010df0       ?SetUpPostArguments@i3NetworkHTTP@@QAEXXZ 10011df0 f   i3NetworkHTTP.obj
 0001:00010e80       ?UpFile@i3NetworkHTTP@@QAEHXZ 10011e80 f   i3NetworkHTTP.obj
 0001:00010f90       ?UpStart@i3NetworkHTTP@@QAEHPAD0@Z 10011f90 f   i3NetworkHTTP.obj
 0001:00011080       ?_BindObject@i3NetworkHTTP@@SAPAV1@PAX@Z 10012080 f   i3NetworkHTTP.obj
 0001:000110a0       ?_BindObjectByType@i3NetworkHTTP@@SAPAV1@PAXW4I3_CLASSMETA_TYPE@@@Z 100120a0 f   i3NetworkHTTP.obj
 0001:000110c0       ?_BindObjectRef@i3NetworkHTTP@@SAPAV1@PAX@Z 100120c0 f   i3NetworkHTTP.obj
 0001:000110e0       ?_BindObjectRefByType@i3NetworkHTTP@@SAPAV1@PAXW4I3_CLASSMETA_TYPE@@@Z 100120e0 f   i3NetworkHTTP.obj
 0001:00011100       ?_CheckType@i3NetworkHTTP@@IAEHPAD@Z 10012100 f   i3NetworkHTTP.obj
 0001:00011130       ?_ConnectGET@i3NetworkHTTP@@IAEHPAD@Z 10012130 f   i3NetworkHTTP.obj
 0001:00011180       ?_ConnectPOST@i3NetworkHTTP@@IAEHPAD@Z 10012180 f   i3NetworkHTTP.obj
 0001:000112f0       ?_ConnectPUT@i3NetworkHTTP@@IAEHPAD@Z 100122f0 f   i3NetworkHTTP.obj
 0001:00011420       ?_DisConnectGET@i3NetworkHTTP@@IAEXXZ 10012420 f   i3NetworkHTTP.obj
 0001:00011450       ?_DisConnectPOST@i3NetworkHTTP@@IAEXXZ 10012450 f   i3NetworkHTTP.obj
 0001:00011490       ?_DisConnectPUT@i3NetworkHTTP@@IAEXXZ 10012490 f   i3NetworkHTTP.obj
 0001:000114d0       ?_NewObject@i3NetworkHTTP@@SAPAV1@XZ 100124d0 f   i3NetworkHTTP.obj
 0001:000114f0       ?_NewObjectByType@i3NetworkHTTP@@SAPAV1@W4I3_CLASSMETA_TYPE@@@Z 100124f0 f   i3NetworkHTTP.obj
 0001:00011510       ?_NewObjectRef@i3NetworkHTTP@@SAPAV1@XZ 10012510 f   i3NetworkHTTP.obj
 0001:00011520       ?_NewObjectRefByType@i3NetworkHTTP@@SAPAV1@W4I3_CLASSMETA_TYPE@@@Z 10012520 f   i3NetworkHTTP.obj
 0001:00011540       ?getFileSize@i3NetworkHTTP@@QAEIXZ 10012540 f i i3NetworkHTTP.obj
 0001:00011550       ?getRecvSize@i3NetworkHTTP@@QAEIXZ 10012550 f i i3NetworkHTTP.obj
 0001:00011560       ?CreateInstance@?$i3MetaTemplate@Vi3NetworkIocpWorker@@@@UAEPAVi3ElementBase@@W4I3_CLASSMETA_TYPE@@@Z 10012560 f i i3NetworkIocpWorker.obj
 0001:00011640       ?BindInstance@?$i3MetaTemplate@Vi3NetworkIocpWorker@@@@UAEPAVi3ElementBase@@PAXW4I3_CLASSMETA_TYPE@@@Z 10012640 f i i3NetworkIocpWorker.obj
 0001:00011700       ??_E?$i3MetaTemplate@Vi3NetworkIocpWorker@@@@UAEPAXI@Z 10012700 f i i3NetworkIocpWorker.obj
 0001:00011700       ??_G?$i3MetaTemplate@Vi3NetworkIocpWorker@@@@UAEPAXI@Z 10012700 f i i3NetworkIocpWorker.obj
 0001:00011730       ??0?$i3MetaTemplate@Vi3NetworkIocpWorker@@@@QAE@IPAD0W4I3_CLASSMETA_TYPE@@@Z 10012730 f i i3NetworkIocpWorker.obj
 0001:00011760       ??0i3NetworkIocpWorker@@QAE@XZ 10012760 f   i3NetworkIocpWorker.obj
 0001:000117a0       ??1i3NetworkIocpWorker@@UAE@XZ 100127a0 f   i3NetworkIocpWorker.obj
 0001:00011800       ?AfterRunning@i3NetworkIocpWorker@@UAEXPAX@Z 10012800 f   i3NetworkIocpWorker.obj
 0001:00011810       ?BeforeRunning@i3NetworkIocpWorker@@UAEXPAX@Z 10012810 f   i3NetworkIocpWorker.obj
 0001:00011820       ?GetMeta@i3NetworkIocpWorker@@UAEPAVi3ClassMeta@@XZ 10012820 f   i3NetworkIocpWorker.obj
 0001:00011830       ?OnRunning@i3NetworkIocpWorker@@UAEIPAX@Z 10012830 f   i3NetworkIocpWorker.obj
 0001:00011a30       ?RegisterMeta@i3NetworkIocpWorker@@SAXXZ 10012a30 f   i3NetworkIocpWorker.obj
 0001:00011a40       ?SetConcreteClass@i3NetworkIocpWorker@@SAXPAVi3ClassMeta@@@Z 10012a40 f   i3NetworkIocpWorker.obj
 0001:00011a60       ?SetGhostClass@i3NetworkIocpWorker@@SAXPAVi3ClassMeta@@@Z 10012a60 f   i3NetworkIocpWorker.obj
 0001:00011a80       ?_BindObject@i3NetworkIocpWorker@@SAPAV1@PAX@Z 10012a80 f   i3NetworkIocpWorker.obj
 0001:00011aa0       ?_BindObjectByType@i3NetworkIocpWorker@@SAPAV1@PAXW4I3_CLASSMETA_TYPE@@@Z 10012aa0 f   i3NetworkIocpWorker.obj
 0001:00011ac0       ?_BindObjectRef@i3NetworkIocpWorker@@SAPAV1@PAX@Z 10012ac0 f   i3NetworkIocpWorker.obj
 0001:00011ae0       ?_BindObjectRefByType@i3NetworkIocpWorker@@SAPAV1@PAXW4I3_CLASSMETA_TYPE@@@Z 10012ae0 f   i3NetworkIocpWorker.obj
 0001:00011b00       ?_NewObject@i3NetworkIocpWorker@@SAPAV1@XZ 10012b00 f   i3NetworkIocpWorker.obj
 0001:00011b20       ?_NewObjectByType@i3NetworkIocpWorker@@SAPAV1@W4I3_CLASSMETA_TYPE@@@Z 10012b20 f   i3NetworkIocpWorker.obj
 0001:00011b40       ?_NewObjectRef@i3NetworkIocpWorker@@SAPAV1@XZ 10012b40 f   i3NetworkIocpWorker.obj
 0001:00011b50       ?_NewObjectRefByType@i3NetworkIocpWorker@@SAPAV1@W4I3_CLASSMETA_TYPE@@@Z 10012b50 f   i3NetworkIocpWorker.obj
 0001:00011b70       ?CreateInstance@?$i3MetaTemplate@Vi3NetworkPacket@@@@UAEPAVi3ElementBase@@W4I3_CLASSMETA_TYPE@@@Z 10012b70 f i i3NetworkPacket.obj
 0001:00011c40       ?BindInstance@?$i3MetaTemplate@Vi3NetworkPacket@@@@UAEPAVi3ElementBase@@PAXW4I3_CLASSMETA_TYPE@@@Z 10012c40 f i i3NetworkPacket.obj
 0001:00011cf0       ??_E?$i3MetaTemplate@Vi3NetworkPacket@@@@UAEPAXI@Z 10012cf0 f i i3NetworkPacket.obj
 0001:00011cf0       ??_G?$i3MetaTemplate@Vi3NetworkPacket@@@@UAEPAXI@Z 10012cf0 f i i3NetworkPacket.obj
 0001:00011d20       ??0?$i3MetaTemplate@Vi3NetworkPacket@@@@QAE@IPAD0W4I3_CLASSMETA_TYPE@@@Z 10012d20 f i i3NetworkPacket.obj
 0001:00011d50       ??0i3NetworkPacket@@QAE@G@Z 10012d50 f   i3NetworkPacket.obj
 0001:00011d80       ??0i3NetworkPacket@@QAE@XZ 10012d80 f   i3NetworkPacket.obj
 0001:00011db0       ??1i3NetworkPacket@@UAE@XZ 10012db0 f   i3NetworkPacket.obj
 0001:00011dc0       ?Clear@i3NetworkPacket@@QAEXXZ 10012dc0 f   i3NetworkPacket.obj
 0001:00011e10       ?CopyToBuffer@i3NetworkPacket@@QAEXPBDHH@Z 10012e10 f   i3NetworkPacket.obj
 0001:00011e50       ?Decript@i3NetworkPacket@@QAEHI@Z 10012e50 f   i3NetworkPacket.obj
 0001:00011ea0       ?Encript@i3NetworkPacket@@QAEHI@Z 10012ea0 f   i3NetworkPacket.obj
 0001:00011ef0       ?GetMeta@i3NetworkPacket@@UAEPAVi3ClassMeta@@XZ 10012ef0 f   i3NetworkPacket.obj
 0001:00011f00       ?ReadData@i3NetworkPacket@@QAEXPAXI@Z 10012f00 f   i3NetworkPacket.obj
 0001:00011f40       ?RegisterMeta@i3NetworkPacket@@SAXXZ 10012f40 f   i3NetworkPacket.obj
 0001:00011f50       ?SetConcreteClass@i3NetworkPacket@@SAXPAVi3ClassMeta@@@Z 10012f50 f   i3NetworkPacket.obj
 0001:00011f70       ?SetGhostClass@i3NetworkPacket@@SAXPAVi3ClassMeta@@@Z 10012f70 f   i3NetworkPacket.obj
 0001:00011f90       ?WriteData@i3NetworkPacket@@QAEHPBXI@Z 10012f90 f   i3NetworkPacket.obj
 0001:00011ff0       ?WriteData@i3NetworkPacket@@QAEXIPBXI@Z 10012ff0 f   i3NetworkPacket.obj
 0001:00012060       ?_BindObject@i3NetworkPacket@@SAPAV1@PAX@Z 10013060 f   i3NetworkPacket.obj
 0001:00012080       ?_BindObjectByType@i3NetworkPacket@@SAPAV1@PAXW4I3_CLASSMETA_TYPE@@@Z 10013080 f   i3NetworkPacket.obj
 0001:000120a0       ?_BindObjectRef@i3NetworkPacket@@SAPAV1@PAX@Z 100130a0 f   i3NetworkPacket.obj
 0001:000120c0       ?_BindObjectRefByType@i3NetworkPacket@@SAPAV1@PAXW4I3_CLASSMETA_TYPE@@@Z 100130c0 f   i3NetworkPacket.obj
 0001:000120e0       ?_NewObject@i3NetworkPacket@@SAPAV1@XZ 100130e0 f   i3NetworkPacket.obj
 0001:00012100       ?_NewObjectByType@i3NetworkPacket@@SAPAV1@W4I3_CLASSMETA_TYPE@@@Z 10013100 f   i3NetworkPacket.obj
 0001:00012120       ?_NewObjectRef@i3NetworkPacket@@SAPAV1@XZ 10013120 f   i3NetworkPacket.obj
 0001:00012130       ?_NewObjectRefByType@i3NetworkPacket@@SAPAV1@W4I3_CLASSMETA_TYPE@@@Z 10013130 f   i3NetworkPacket.obj
 0001:00012150       ?CreateInstance@?$i3MetaTemplate@Vi3NetworkServerContext@@@@UAEPAVi3ElementBase@@W4I3_CLASSMETA_TYPE@@@Z 10013150 f i i3NetworkServerContext.obj
 0001:00012220       ?BindInstance@?$i3MetaTemplate@Vi3NetworkServerContext@@@@UAEPAVi3ElementBase@@PAXW4I3_CLASSMETA_TYPE@@@Z 10013220 f i i3NetworkServerContext.obj
 0001:000122e0       ??_E?$i3MetaTemplate@Vi3NetworkServerContext@@@@UAEPAXI@Z 100132e0 f i i3NetworkServerContext.obj
 0001:000122e0       ??_G?$i3MetaTemplate@Vi3NetworkServerContext@@@@UAEPAXI@Z 100132e0 f i i3NetworkServerContext.obj
 0001:00012310       ??0?$i3MetaTemplate@Vi3NetworkServerContext@@@@QAE@IPAD0W4I3_CLASSMETA_TYPE@@@Z 10013310 f i i3NetworkServerContext.obj
 0001:00012340       ??0i3NetworkServerContext@@QAE@ABV0@@Z 10013340 f i i3NetworkServerContext.obj
 0001:00012380       ??0i3NetworkServerContext@@QAE@XZ 10013380 f   i3NetworkServerContext.obj
 0001:000123c0       ??1i3NetworkServerContext@@UAE@XZ 100133c0 f   i3NetworkServerContext.obj
 0001:00012440       ??4i3NetworkServerContext@@QAEAAV0@ABV0@@Z 10013440 f i i3NetworkServerContext.obj
 0001:00012470       ??_Ei3NetworkServerContext@@UAEPAXI@Z 10013470 f i i3NetworkServerContext.obj
 0001:00012570       ??_Gi3NetworkServerContext@@UAEPAXI@Z 10013570 f i i3NetworkServerContext.obj
 0001:00012630       ?GetClassMeta@i3NetworkServerContext@@SAPAVi3ClassMeta@@XZ 10013630 f i i3NetworkServerContext.obj
 0001:00012640       ?GetCompletionHandler@i3NetworkServerContext@@QAEPAVi3NetworkCompletionHandler@@XZ 10013640 f i i3NetworkServerContext.obj
 0001:00012650       ?GetMeta@i3NetworkServerContext@@UAEPAVi3ClassMeta@@XZ 10013650 f   i3NetworkServerContext.obj
 0001:00012660       ?GetPacketInfo@i3NetworkServerContext@@QAEXPA_K000@Z 10013660 f i i3NetworkServerContext.obj
 0001:00012670       ?GetPacketInfoThread@i3NetworkServerContext@@QAEXHPA_K000@Z 10013670 f i i3NetworkServerContext.obj
 0001:00012680       ?GetSessionCount@i3NetworkServerContext@@QAEHXZ 10013680 f i i3NetworkServerContext.obj
 0001:00012690       ?OnCreate@i3NetworkServerContext@@UAEHEPAIPAGPAEHPAVi3NetworkSessionManager@@@Z 10013690 f   i3NetworkServerContext.obj
 0001:000126f0       ?OnDestroy@i3NetworkServerContext@@UAEHXZ 100136f0 f   i3NetworkServerContext.obj
 0001:00012730       ?OnUpdate@i3NetworkServerContext@@UAEXH@Z 10013730 f i i3NetworkServerContext.obj
 0001:00012740       ?RegisterMeta@i3NetworkServerContext@@SAXXZ 10013740 f   i3NetworkServerContext.obj
 0001:00012750       ?SetConcreteClass@i3NetworkServerContext@@SAXPAVi3ClassMeta@@@Z 10013750 f   i3NetworkServerContext.obj
 0001:00012770       ?SetGhostClass@i3NetworkServerContext@@SAXPAVi3ClassMeta@@@Z 10013770 f   i3NetworkServerContext.obj
 0001:00012790       ?_BindObject@i3NetworkServerContext@@SAPAV1@PAX@Z 10013790 f   i3NetworkServerContext.obj
 0001:000127b0       ?_BindObjectByType@i3NetworkServerContext@@SAPAV1@PAXW4I3_CLASSMETA_TYPE@@@Z 100137b0 f   i3NetworkServerContext.obj
 0001:000127d0       ?_BindObjectRef@i3NetworkServerContext@@SAPAV1@PAX@Z 100137d0 f   i3NetworkServerContext.obj
 0001:000127f0       ?_BindObjectRefByType@i3NetworkServerContext@@SAPAV1@PAXW4I3_CLASSMETA_TYPE@@@Z 100137f0 f   i3NetworkServerContext.obj
 0001:00012810       ?_NewObject@i3NetworkServerContext@@SAPAV1@XZ 10013810 f   i3NetworkServerContext.obj
 0001:00012830       ?_NewObjectByType@i3NetworkServerContext@@SAPAV1@W4I3_CLASSMETA_TYPE@@@Z 10013830 f   i3NetworkServerContext.obj
 0001:00012850       ?_NewObjectRef@i3NetworkServerContext@@SAPAV1@XZ 10013850 f   i3NetworkServerContext.obj
 0001:00012860       ?_NewObjectRefByType@i3NetworkServerContext@@SAPAV1@W4I3_CLASSMETA_TYPE@@@Z 10013860 f   i3NetworkServerContext.obj
 0001:00012880       ?CreateInstance@?$i3MetaTemplate@Vi3NetworkServerSocket@@@@UAEPAVi3ElementBase@@W4I3_CLASSMETA_TYPE@@@Z 10013880 f i i3NetworkServerSocket.obj
 0001:00012950       ?BindInstance@?$i3MetaTemplate@Vi3NetworkServerSocket@@@@UAEPAVi3ElementBase@@PAXW4I3_CLASSMETA_TYPE@@@Z 10013950 f i i3NetworkServerSocket.obj
 0001:00012a00       ??_E?$i3MetaTemplate@Vi3NetworkServerSocket@@@@UAEPAXI@Z 10013a00 f i i3NetworkServerSocket.obj
 0001:00012a00       ??_G?$i3MetaTemplate@Vi3NetworkServerSocket@@@@UAEPAXI@Z 10013a00 f i i3NetworkServerSocket.obj
 0001:00012a30       ??0?$i3MetaTemplate@Vi3NetworkServerSocket@@@@QAE@IPAD0W4I3_CLASSMETA_TYPE@@@Z 10013a30 f i i3NetworkServerSocket.obj
 0001:00012a60       ??0i3NetworkServerSocket@@QAE@XZ 10013a60 f   i3NetworkServerSocket.obj
 0001:00012a90       ??1i3NetworkServerSocket@@UAE@XZ 10013a90 f   i3NetworkServerSocket.obj
 0001:00012aa0       ?AcceptConnection@i3NetworkServerSocket@@QAEIPAUtimeval@@PAUsockaddr_in@@PAH@Z 10013aa0 f   i3NetworkServerSocket.obj
 0001:00012b50       ?GetMeta@i3NetworkServerSocket@@UAEPAVi3ClassMeta@@XZ 10013b50 f   i3NetworkServerSocket.obj
 0001:00012b60       ?OnCreate@i3NetworkServerSocket@@QAEHIGH@Z 10013b60 f   i3NetworkServerSocket.obj
 0001:00012c40       ?OnDestroy@i3NetworkServerSocket@@QAEXXZ 10013c40 f   i3NetworkServerSocket.obj
 0001:00012c60       ?RegisterMeta@i3NetworkServerSocket@@SAXXZ 10013c60 f   i3NetworkServerSocket.obj
 0001:00012c70       ?SetConcreteClass@i3NetworkServerSocket@@SAXPAVi3ClassMeta@@@Z 10013c70 f   i3NetworkServerSocket.obj
 0001:00012c90       ?SetGhostClass@i3NetworkServerSocket@@SAXPAVi3ClassMeta@@@Z 10013c90 f   i3NetworkServerSocket.obj
 0001:00012cb0       ?_BindObject@i3NetworkServerSocket@@SAPAV1@PAX@Z 10013cb0 f   i3NetworkServerSocket.obj
 0001:00012cd0       ?_BindObjectByType@i3NetworkServerSocket@@SAPAV1@PAXW4I3_CLASSMETA_TYPE@@@Z 10013cd0 f   i3NetworkServerSocket.obj
 0001:00012cf0       ?_BindObjectRef@i3NetworkServerSocket@@SAPAV1@PAX@Z 10013cf0 f   i3NetworkServerSocket.obj
 0001:00012d10       ?_BindObjectRefByType@i3NetworkServerSocket@@SAPAV1@PAXW4I3_CLASSMETA_TYPE@@@Z 10013d10 f   i3NetworkServerSocket.obj
 0001:00012d30       ?_NewObject@i3NetworkServerSocket@@SAPAV1@XZ 10013d30 f   i3NetworkServerSocket.obj
 0001:00012d50       ?_NewObjectByType@i3NetworkServerSocket@@SAPAV1@W4I3_CLASSMETA_TYPE@@@Z 10013d50 f   i3NetworkServerSocket.obj
 0001:00012d70       ?_NewObjectRef@i3NetworkServerSocket@@SAPAV1@XZ 10013d70 f   i3NetworkServerSocket.obj
 0001:00012d80       ?_NewObjectRefByType@i3NetworkServerSocket@@SAPAV1@W4I3_CLASSMETA_TYPE@@@Z 10013d80 f   i3NetworkServerSocket.obj
 0001:00012da0       ?CreateInstance@?$i3MetaTemplate@Vi3NetworkSession@@@@UAEPAVi3ElementBase@@W4I3_CLASSMETA_TYPE@@@Z 10013da0 f i i3NetworkSession.obj
 0001:00012e80       ?BindInstance@?$i3MetaTemplate@Vi3NetworkSession@@@@UAEPAVi3ElementBase@@PAXW4I3_CLASSMETA_TYPE@@@Z 10013e80 f i i3NetworkSession.obj
 0001:00012f20       ??_E?$i3MetaTemplate@Vi3NetworkSession@@@@UAEPAXI@Z 10013f20 f i i3NetworkSession.obj
 0001:00012f20       ??_G?$i3MetaTemplate@Vi3NetworkSession@@@@UAEPAXI@Z 10013f20 f i i3NetworkSession.obj
 0001:00012f50       ??0?$i3MetaTemplate@Vi3NetworkSession@@@@QAE@IPAD0W4I3_CLASSMETA_TYPE@@@Z 10013f50 f i i3NetworkSession.obj
 0001:00012f80       ??0i3NetworkSession@@QAE@XZ 10013f80 f   i3NetworkSession.obj
 0001:00012fe0       ??1i3NetworkSession@@UAE@XZ 10013fe0 f   i3NetworkSession.obj
 0001:00013060       ?Create@i3NetworkSession@@UAEHXZ 10014060 f   i3NetworkSession.obj
 0001:00013070       ?DataDecript@i3NetworkSession@@QAEX_KPAI1@Z 10014070 f   i3NetworkSession.obj
 0001:00013150       ?DataEncript@i3NetworkSession@@QAEXIIPA_K@Z 10014150 f   i3NetworkSession.obj
 0001:00013230       ?Destroy@i3NetworkSession@@UAEXXZ 10014230 f   i3NetworkSession.obj
 0001:00013240       ?Dispatch@i3NetworkSession@@QAEXK@Z 10014240 f   i3NetworkSession.obj
 0001:00013260       ?DispatchReceive@i3NetworkSession@@IAEXK@Z 10014260 f   i3NetworkSession.obj
 0001:000132f0       ?GetMeta@i3NetworkSession@@UAEPAVi3ClassMeta@@XZ 100142f0 f   i3NetworkSession.obj
 0001:00013300       ?OnConnect@i3NetworkSession@@UAEHIPAUsockaddr_in@@@Z 10014300 f   i3NetworkSession.obj
 0001:00013360       ?OnConnectInit@i3NetworkSession@@UAEHXZ 10014360 f   i3NetworkSession.obj
 0001:00013370       ?OnDisconnect@i3NetworkSession@@UAEHH@Z 10014370 f   i3NetworkSession.obj
 0001:000133c0       ?RegisterMeta@i3NetworkSession@@SAXXZ 100143c0 f   i3NetworkSession.obj
 0001:000133d0       ?SendMessageA@i3NetworkSession@@QAEHPAVi3NetworkPacket@@@Z 100143d0 f   i3NetworkSession.obj
 0001:00013460       ?SendPacketMessage@i3NetworkSession@@UAEHPAVi3NetworkPacket@@@Z 10014460 f   i3NetworkSession.obj
 0001:000134f0       ?SetConcreteClass@i3NetworkSession@@SAXPAVi3ClassMeta@@@Z 100144f0 f   i3NetworkSession.obj
 0001:00013510       ?SetGhostClass@i3NetworkSession@@SAXPAVi3ClassMeta@@@Z 10014510 f   i3NetworkSession.obj
 0001:00013530       ?WaitPacketReceive@i3NetworkSession@@UAEHH@Z 10014530 f   i3NetworkSession.obj
 0001:000135c0       ?_BindObject@i3NetworkSession@@SAPAV1@PAX@Z 100145c0 f   i3NetworkSession.obj
 0001:000135e0       ?_BindObjectByType@i3NetworkSession@@SAPAV1@PAXW4I3_CLASSMETA_TYPE@@@Z 100145e0 f   i3NetworkSession.obj
 0001:00013600       ?_BindObjectRef@i3NetworkSession@@SAPAV1@PAX@Z 10014600 f   i3NetworkSession.obj
 0001:00013620       ?_BindObjectRefByType@i3NetworkSession@@SAPAV1@PAXW4I3_CLASSMETA_TYPE@@@Z 10014620 f   i3NetworkSession.obj
 0001:00013640       ?_NewObject@i3NetworkSession@@SAPAV1@XZ 10014640 f   i3NetworkSession.obj
 0001:00013660       ?_NewObjectByType@i3NetworkSession@@SAPAV1@W4I3_CLASSMETA_TYPE@@@Z 10014660 f   i3NetworkSession.obj
 0001:00013680       ?_NewObjectRef@i3NetworkSession@@SAPAV1@XZ 10014680 f   i3NetworkSession.obj
 0001:00013690       ?_NewObjectRefByType@i3NetworkSession@@SAPAV1@W4I3_CLASSMETA_TYPE@@@Z 10014690 f   i3NetworkSession.obj
 0001:000136b0       ?CreateInstance@?$i3MetaTemplate@Vi3NetworkSessionManager@@@@UAEPAVi3ElementBase@@W4I3_CLASSMETA_TYPE@@@Z 100146b0 f i i3NetworkSessionManager.obj
 0001:00013790       ?BindInstance@?$i3MetaTemplate@Vi3NetworkSessionManager@@@@UAEPAVi3ElementBase@@PAXW4I3_CLASSMETA_TYPE@@@Z 10014790 f i i3NetworkSessionManager.obj
 0001:00013830       ??_E?$i3MetaTemplate@Vi3NetworkSessionManager@@@@UAEPAXI@Z 10014830 f i i3NetworkSessionManager.obj
 0001:00013830       ??_G?$i3MetaTemplate@Vi3NetworkSessionManager@@@@UAEPAXI@Z 10014830 f i i3NetworkSessionManager.obj
 0001:00013860       ??0?$i3MetaTemplate@Vi3NetworkSessionManager@@@@QAE@IPAD0W4I3_CLASSMETA_TYPE@@@Z 10014860 f i i3NetworkSessionManager.obj
 0001:00013890       ??0i3NetworkSessionManager@@QAE@XZ 10014890 f   i3NetworkSessionManager.obj
 0001:00013910       ??1i3NetworkSessionManager@@UAE@XZ 10014910 f   i3NetworkSessionManager.obj
 0001:00013930       ?ConnectSession@i3NetworkSessionManager@@UAEKIPAUsockaddr_in@@@Z 10014930 f   i3NetworkSessionManager.obj
 0001:00013980       ?DisConnectAllSession@i3NetworkSessionManager@@QAEXXZ 10014980 f   i3NetworkSessionManager.obj
 0001:000139d0       ?DisConnectSession@i3NetworkSessionManager@@QAEXPAVi3NetworkSession@@H@Z 100149d0 f   i3NetworkSessionManager.obj
 0001:00013a10       ?FindNewSession@i3NetworkSessionManager@@IAEPAVi3NetworkSession@@XZ 10014a10 f   i3NetworkSessionManager.obj
 0001:00013a70       ?GetMeta@i3NetworkSessionManager@@UAEPAVi3ClassMeta@@XZ 10014a70 f   i3NetworkSessionManager.obj
 0001:00013a80       ?OnCreate@i3NetworkSessionManager@@UAEHPAVi3List@@@Z 10014a80 f   i3NetworkSessionManager.obj
 0001:00013b00       ?OnDestroy@i3NetworkSessionManager@@UAEHXZ 10014b00 f   i3NetworkSessionManager.obj
 0001:00013b50       ?OnUpdate@i3NetworkSessionManager@@UAEXXZ 10014b50 f   i3NetworkSessionManager.obj
 0001:00013b60       ?RegisterMeta@i3NetworkSessionManager@@SAXXZ 10014b60 f   i3NetworkSessionManager.obj
 0001:00013b70       ?SetConcreteClass@i3NetworkSessionManager@@SAXPAVi3ClassMeta@@@Z 10014b70 f   i3NetworkSessionManager.obj
 0001:00013b90       ?SetGhostClass@i3NetworkSessionManager@@SAXPAVi3ClassMeta@@@Z 10014b90 f   i3NetworkSessionManager.obj
 0001:00013bb0       ?_BindObject@i3NetworkSessionManager@@SAPAV1@PAX@Z 10014bb0 f   i3NetworkSessionManager.obj
 0001:00013bd0       ?_BindObjectByType@i3NetworkSessionManager@@SAPAV1@PAXW4I3_CLASSMETA_TYPE@@@Z 10014bd0 f   i3NetworkSessionManager.obj
 0001:00013bf0       ?_BindObjectRef@i3NetworkSessionManager@@SAPAV1@PAX@Z 10014bf0 f   i3NetworkSessionManager.obj
 0001:00013c10       ?_BindObjectRefByType@i3NetworkSessionManager@@SAPAV1@PAXW4I3_CLASSMETA_TYPE@@@Z 10014c10 f   i3NetworkSessionManager.obj
 0001:00013c30       ?_NewObject@i3NetworkSessionManager@@SAPAV1@XZ 10014c30 f   i3NetworkSessionManager.obj
 0001:00013c50       ?_NewObjectByType@i3NetworkSessionManager@@SAPAV1@W4I3_CLASSMETA_TYPE@@@Z 10014c50 f   i3NetworkSessionManager.obj
 0001:00013c70       ?_NewObjectRef@i3NetworkSessionManager@@SAPAV1@XZ 10014c70 f   i3NetworkSessionManager.obj
 0001:00013c80       ?_NewObjectRefByType@i3NetworkSessionManager@@SAPAV1@W4I3_CLASSMETA_TYPE@@@Z 10014c80 f   i3NetworkSessionManager.obj
 0001:00013ca0       ?CreateInstance@?$i3MetaTemplate@Vi3NetworkTCPSocket@@@@UAEPAVi3ElementBase@@W4I3_CLASSMETA_TYPE@@@Z 10014ca0 f i i3NetworkTCPSocket.obj
 0001:00013d80       ?BindInstance@?$i3MetaTemplate@Vi3NetworkTCPSocket@@@@UAEPAVi3ElementBase@@PAXW4I3_CLASSMETA_TYPE@@@Z 10014d80 f i i3NetworkTCPSocket.obj
 0001:00013e20       ??_E?$i3MetaTemplate@Vi3NetworkTCPSocket@@@@UAEPAXI@Z 10014e20 f i i3NetworkTCPSocket.obj
 0001:00013e20       ??_G?$i3MetaTemplate@Vi3NetworkTCPSocket@@@@UAEPAXI@Z 10014e20 f i i3NetworkTCPSocket.obj
 0001:00013e50       ??0?$i3MetaTemplate@Vi3NetworkTCPSocket@@@@QAE@IPAD0W4I3_CLASSMETA_TYPE@@@Z 10014e50 f i i3NetworkTCPSocket.obj
 0001:00013e80       ??0i3NetworkTCPSocket@@QAE@ABV0@@Z 10014e80 f i i3NetworkTCPSocket.obj
 0001:00013f50       ??0i3NetworkTCPSocket@@QAE@XZ 10014f50 f   i3NetworkTCPSocket.obj
 0001:00013fd0       ??1i3NetworkTCPSocket@@UAE@XZ 10014fd0 f   i3NetworkTCPSocket.obj
 0001:00014020       ??4i3NetworkTCPSocket@@QAEAAV0@ABV0@@Z 10015020 f i i3NetworkTCPSocket.obj
 0001:000140f0       ??_Ei3NetworkTCPSocket@@UAEPAXI@Z 100150f0 f i i3NetworkTCPSocket.obj
 0001:000141f0       ??_Gi3NetworkTCPSocket@@UAEPAXI@Z 100151f0 f i i3NetworkTCPSocket.obj
 0001:00014270       ?GetClassMeta@i3NetworkTCPSocket@@SAPAVi3ClassMeta@@XZ 10015270 f i i3NetworkTCPSocket.obj
 0001:00014280       ?GetMeta@i3NetworkTCPSocket@@UAEPAVi3ClassMeta@@XZ 10015280 f   i3NetworkTCPSocket.obj
 0001:00014290       ?GetName@i3NetworkTCPSocket@@QAEXPAUsockaddr_in@@@Z 10015290 f   i3NetworkTCPSocket.obj
 0001:00014320       ?OnCreate@i3NetworkTCPSocket@@UAEHPADGP6AXPAVi3NetworkPacket@@@ZPAX@Z 10015320 f   i3NetworkTCPSocket.obj
 0001:000143f0       ?OnDestroy@i3NetworkTCPSocket@@UAEHXZ 100153f0 f   i3NetworkTCPSocket.obj
 0001:00014440       ?OnReceive@i3NetworkTCPSocket@@UAEXXZ 10015440 f   i3NetworkTCPSocket.obj
 0001:00014580       ?OnSend@i3NetworkTCPSocket@@UAEHXZ 10015580 f   i3NetworkTCPSocket.obj
 0001:00014640       ?PacketParsing@i3NetworkTCPSocket@@UAEXPAVi3NetworkPacket@@@Z 10015640 f   i3NetworkTCPSocket.obj
 0001:00014650       ?RegisterMeta@i3NetworkTCPSocket@@SAXXZ 10015650 f   i3NetworkTCPSocket.obj
 0001:00014660       ?SelectEvent@i3NetworkTCPSocket@@QAEXXZ 10015660 f   i3NetworkTCPSocket.obj
 0001:000146f0       ?SendMessageA@i3NetworkTCPSocket@@UAEHPAVi3NetworkPacket@@@Z 100156f0 f   i3NetworkTCPSocket.obj
 0001:00014760       ?SetConcreteClass@i3NetworkTCPSocket@@SAXPAVi3ClassMeta@@@Z 10015760 f   i3NetworkTCPSocket.obj
 0001:00014780       ?SetGhostClass@i3NetworkTCPSocket@@SAXPAVi3ClassMeta@@@Z 10015780 f   i3NetworkTCPSocket.obj
 0001:000147a0       ?_BindObject@i3NetworkTCPSocket@@SAPAV1@PAX@Z 100157a0 f   i3NetworkTCPSocket.obj
 0001:000147c0       ?_BindObjectByType@i3NetworkTCPSocket@@SAPAV1@PAXW4I3_CLASSMETA_TYPE@@@Z 100157c0 f   i3NetworkTCPSocket.obj
 0001:000147e0       ?_BindObjectRef@i3NetworkTCPSocket@@SAPAV1@PAX@Z 100157e0 f   i3NetworkTCPSocket.obj
 0001:00014800       ?_BindObjectRefByType@i3NetworkTCPSocket@@SAPAV1@PAXW4I3_CLASSMETA_TYPE@@@Z 10015800 f   i3NetworkTCPSocket.obj
 0001:00014820       ?_NewObject@i3NetworkTCPSocket@@SAPAV1@XZ 10015820 f   i3NetworkTCPSocket.obj
 0001:00014840       ?_NewObjectByType@i3NetworkTCPSocket@@SAPAV1@W4I3_CLASSMETA_TYPE@@@Z 10015840 f   i3NetworkTCPSocket.obj
 0001:00014860       ?_NewObjectRef@i3NetworkTCPSocket@@SAPAV1@XZ 10015860 f   i3NetworkTCPSocket.obj
 0001:00014870       ?_NewObjectRefByType@i3NetworkTCPSocket@@SAPAV1@W4I3_CLASSMETA_TYPE@@@Z 10015870 f   i3NetworkTCPSocket.obj
 0001:00014890       ?CreateInstance@?$i3MetaTemplate@Vi3NetworkUDPSocket@@@@UAEPAVi3ElementBase@@W4I3_CLASSMETA_TYPE@@@Z 10015890 f i i3NetworkUDPSocket.obj
 0001:00014970       ?BindInstance@?$i3MetaTemplate@Vi3NetworkUDPSocket@@@@UAEPAVi3ElementBase@@PAXW4I3_CLASSMETA_TYPE@@@Z 10015970 f i i3NetworkUDPSocket.obj
 0001:00014a10       ??_E?$i3MetaTemplate@Vi3NetworkUDPSocket@@@@UAEPAXI@Z 10015a10 f i i3NetworkUDPSocket.obj
 0001:00014a10       ??_G?$i3MetaTemplate@Vi3NetworkUDPSocket@@@@UAEPAXI@Z 10015a10 f i i3NetworkUDPSocket.obj
 0001:00014a40       ??0?$i3MetaTemplate@Vi3NetworkUDPSocket@@@@QAE@IPAD0W4I3_CLASSMETA_TYPE@@@Z 10015a40 f i i3NetworkUDPSocket.obj
 0001:00014a70       ??0i3NetworkUDPSocket@@QAE@ABV0@@Z 10015a70 f i i3NetworkUDPSocket.obj
 0001:00014ad0       ??0i3NetworkUDPSocket@@QAE@XZ 10015ad0 f   i3NetworkUDPSocket.obj
 0001:00014b20       ??1i3NetworkUDPSocket@@UAE@XZ 10015b20 f   i3NetworkUDPSocket.obj
 0001:00014b70       ??4i3NetworkUDPSocket@@QAEAAV0@ABV0@@Z 10015b70 f i i3NetworkUDPSocket.obj
 0001:00014bc0       ??_Ei3NetworkUDPSocket@@UAEPAXI@Z 10015bc0 f i i3NetworkUDPSocket.obj
 0001:00014c90       ??_Gi3NetworkUDPSocket@@UAEPAXI@Z 10015c90 f i i3NetworkUDPSocket.obj
 0001:00014d20       ?Create@i3NetworkUDPSocket@@QAEHHG@Z 10015d20 f   i3NetworkUDPSocket.obj
 0001:00014e20       ?Destroy@i3NetworkUDPSocket@@QAEHXZ 10015e20 f   i3NetworkUDPSocket.obj
 0001:00014ea0       ?GetClassMeta@i3NetworkUDPSocket@@SAPAVi3ClassMeta@@XZ 10015ea0 f i i3NetworkUDPSocket.obj
 0001:00014eb0       ?GetMeta@i3NetworkUDPSocket@@UAEPAVi3ClassMeta@@XZ 10015eb0 f   i3NetworkUDPSocket.obj
 0001:00014ec0       ?Recv@i3NetworkUDPSocket@@QAEHXZ 10015ec0 f   i3NetworkUDPSocket.obj
 0001:00014ef0       ?RegisterMeta@i3NetworkUDPSocket@@SAXXZ 10015ef0 f   i3NetworkUDPSocket.obj
 0001:00014f00       ?Send@i3NetworkUDPSocket@@QAEHPADHIG@Z 10015f00 f   i3NetworkUDPSocket.obj
 0001:00014f90       ?SetConcreteClass@i3NetworkUDPSocket@@SAXPAVi3ClassMeta@@@Z 10015f90 f   i3NetworkUDPSocket.obj
 0001:00014fb0       ?SetGhostClass@i3NetworkUDPSocket@@SAXPAVi3ClassMeta@@@Z 10015fb0 f   i3NetworkUDPSocket.obj
 0001:00014fd0       ?_BindObject@i3NetworkUDPSocket@@SAPAV1@PAX@Z 10015fd0 f   i3NetworkUDPSocket.obj
 0001:00014ff0       ?_BindObjectByType@i3NetworkUDPSocket@@SAPAV1@PAXW4I3_CLASSMETA_TYPE@@@Z 10015ff0 f   i3NetworkUDPSocket.obj
 0001:00015010       ?_BindObjectRef@i3NetworkUDPSocket@@SAPAV1@PAX@Z 10016010 f   i3NetworkUDPSocket.obj
 0001:00015030       ?_BindObjectRefByType@i3NetworkUDPSocket@@SAPAV1@PAXW4I3_CLASSMETA_TYPE@@@Z 10016030 f   i3NetworkUDPSocket.obj
 0001:00015050       ?_NewObject@i3NetworkUDPSocket@@SAPAV1@XZ 10016050 f   i3NetworkUDPSocket.obj
 0001:00015070       ?_NewObjectByType@i3NetworkUDPSocket@@SAPAV1@W4I3_CLASSMETA_TYPE@@@Z 10016070 f   i3NetworkUDPSocket.obj
 0001:00015090       ?_NewObjectRef@i3NetworkUDPSocket@@SAPAV1@XZ 10016090 f   i3NetworkUDPSocket.obj
 0001:000150a0       ?_NewObjectRefByType@i3NetworkUDPSocket@@SAPAV1@W4I3_CLASSMETA_TYPE@@@Z 100160a0 f   i3NetworkUDPSocket.obj
 0001:000150c0       ?getPacket@i3NetworkUDPSocket@@QAEPADH@Z 100160c0 f i i3NetworkUDPSocket.obj
 0001:000150d0       ?getPacket@i3NetworkUDPSocket@@QAEPADXZ 100160d0 f i i3NetworkUDPSocket.obj
 0001:000150e0       ?getRecvAddr@i3NetworkUDPSocket@@QAEPAUsockaddr@@XZ 100160e0 f i i3NetworkUDPSocket.obj
 0001:000150f0       ?CreateInstance@?$i3MetaTemplate@Vi3PackFile@@@@UAEPAVi3ElementBase@@W4I3_CLASSMETA_TYPE@@@Z 100160f0 f i i3PackFile.obj
 0001:000151d0       ?BindInstance@?$i3MetaTemplate@Vi3PackFile@@@@UAEPAVi3ElementBase@@PAXW4I3_CLASSMETA_TYPE@@@Z 100161d0 f i i3PackFile.obj
 0001:00015290       ??_E?$i3MetaTemplate@Vi3PackFile@@@@UAEPAXI@Z 10016290 f i i3PackFile.obj
 0001:00015290       ??_G?$i3MetaTemplate@Vi3PackFile@@@@UAEPAXI@Z 10016290 f i i3PackFile.obj
 0001:000152c0       ?reserve_value@?$tls_ptr@Vpool_by_thread@i3@@@i3@@EAEXK@Z 100162c0 f i i3PackFile.obj
 0001:000152e0       ??_E?$tls_ptr@Vpool_by_thread@i3@@@i3@@UAEPAXI@Z 100162e0 f i i3PackFile.obj
 0001:000152e0       ??_G?$tls_ptr@Vpool_by_thread@i3@@@i3@@UAEPAXI@Z 100162e0 f i i3PackFile.obj
 0001:00015310       ??$create@Vstatic_pool@i3@@@shared_inst@detail_inst@i3@@SA?AV012@XZ 10016310 f i i3PackFile.obj
 0001:00015380       ??$create_inst@Vstatic_pool@i3@@@inst_memory_mgr@detail_inst@i3@@QAEPAVstatic_pool@2@XZ 10016380 f i i3PackFile.obj
 0001:00015450       ??$create_value@Vpool_by_thread@i3@@@thread_data@detail_tls@i3@@QAEXI@Z 10016450 f i i3PackFile.obj
 0001:000154a0       ??$delete_inst@Vstatic_pool@i3@@@inst_memory_mgr@detail_inst@i3@@QAEXXZ 100164a0 f i i3PackFile.obj
 0001:00015570       ??$get_value_init@Vpool_by_thread@i3@@@detail_tls@i3@@YAPAXPBVtls_base@1@PBVthread_data@01@I@Z 10016570 f i i3PackFile.obj
 0001:000155e0       ??$release@Vstatic_pool@i3@@@shared_inst@detail_inst@i3@@QAEXXZ 100165e0 f i i3PackFile.obj
 0001:00015620       ??$reserve_value@Vpool_by_thread@i3@@@thread_data@detail_tls@i3@@QAEXXZ 10016620 f i i3PackFile.obj
 0001:000156b0       ??0?$i3MetaTemplate@Vi3PackFile@@@@QAE@IPAD0W4I3_CLASSMETA_TYPE@@@Z 100166b0 f i i3PackFile.obj
 0001:000156e0       ??0?$pool_tls_base@Vpool_by_thread@i3@@@i3@@IAE@I@Z 100166e0 f i i3PackFile.obj
 0001:00015700       ??0?$tls_ptr@Vpool_by_thread@i3@@@i3@@QAE@XZ 10016700 f i i3PackFile.obj
 0001:00015750       ??0i3NamedElement@@QAE@ABV0@@Z 10016750 f i i3PackFile.obj
 0001:000157a0       ??0i3NamedResourceManager@@QAE@ABV0@@Z 100167a0 f i i3PackFile.obj
 0001:000157e0       ??0i3PackFile@@QAE@XZ      100167e0 f   i3PackFile.obj
 0001:00015820       ??0i3PackNode@@QAE@ABV0@@Z 10016820 f i i3PackFile.obj
 0001:00015860       ??0i3PackVolume@@QAE@ABV0@@Z 10016860 f i i3PackFile.obj
 0001:000158c0       ??0i3PersistantElement@@QAE@ABV0@@Z 100168c0 f i i3PackFile.obj
 0001:000158f0       ??0i3ResourceFile@@QAE@ABV0@@Z 100168f0 f i i3PackFile.obj
 0001:00015af0       ??0i3TreeNode@@QAE@ABV0@@Z 10016af0 f i i3PackFile.obj
 0001:00015b80       ??0noncopyable@i3@@IAE@XZ  10016b80 f i i3PackFile.obj
 0001:00015b90       ??0tls_base@i3@@IAE@XZ     10016b90 f i i3PackFile.obj
 0001:00015c00       ??1?$pool_tls_base@Vpool_by_thread@i3@@@i3@@IAE@XZ 10016c00 f i i3PackFile.obj
 0001:00015c50       ??1?$tls_ptr@Vpool_by_thread@i3@@@i3@@UAE@XZ 10016c50 f i i3PackFile.obj
 0001:00015cd0       ??1i3PackFile@@UAE@XZ      10016cd0 f   i3PackFile.obj
 0001:00015d40       ??1noncopyable@i3@@IAE@XZ  10016d40 f i i3PackFile.obj
 0001:00015d50       ??1tls_base@i3@@UAE@XZ     10016d50 f i i3PackFile.obj
 0001:00015d60       ??4?$shared_tls@Vpool_by_thread@i3@@@i3@@QAEAAV01@$$QAV01@@Z 10016d60 f i i3PackFile.obj
 0001:00015d80       ??4?$shared_tls@Vpool_by_thread@i3@@@i3@@QAEAAV01@ABV01@@Z 10016d80 f i i3PackFile.obj
 0001:00015da0       ??4?$vector@PAVi3PersistantElement@@V?$pool_allocator@PAVi3PersistantElement@@@i3@@@i3@@QAEAAV01@ABV01@@Z 10016da0 f i i3PackFile.obj
 0001:00015f90       ??4i3NamedElement@@QAEAAV0@ABV0@@Z 10016f90 f i i3PackFile.obj
 0001:00015fd0       ??4i3NamedResourceManager@@QAEAAV0@ABV0@@Z 10016fd0 f i i3PackFile.obj
 0001:00016000       ??4i3PackNode@@QAEAAV0@ABV0@@Z 10017000 f i i3PackFile.obj
 0001:00016030       ??4i3PackVolume@@QAEAAV0@ABV0@@Z 10017030 f i i3PackFile.obj
 0001:00016080       ??4i3PersistantElement@@QAEAAV0@ABV0@@Z 10017080 f i i3PackFile.obj
 0001:000160b0       ??4i3ResourceFile@@QAEAAV0@ABV0@@Z 100170b0 f i i3PackFile.obj
 0001:000161b0       ??4i3TreeNode@@QAEAAV0@ABV0@@Z 100171b0 f i i3PackFile.obj
 0001:00016230       ??_Ei3NamedElement@@UAEPAXI@Z 10017230 f i i3PackFile.obj
 0001:000162f0       ??_Ei3NamedResourceManager@@UAEPAXI@Z 100172f0 f i i3PackFile.obj
 0001:000163b0       ??_Ei3PackNode@@UAEPAXI@Z  100173b0 f i i3PackFile.obj
 0001:00016470       ??_Ei3PackVolume@@UAEPAXI@Z 10017470 f i i3PackFile.obj
 0001:00016530       ??_Ei3PersistantElement@@UAEPAXI@Z 10017530 f i i3PackFile.obj
 0001:000165f0       ??_Ei3ResourceFile@@UAEPAXI@Z 100175f0 f i i3PackFile.obj
 0001:000166b0       ??_Ei3TreeNode@@UAEPAXI@Z  100176b0 f i i3PackFile.obj
 0001:00016770       ??_Etls_base@i3@@UAEPAXI@Z 10017770 f i i3PackFile.obj
 0001:00016820       ??_Gi3NamedElement@@UAEPAXI@Z 10017820 f i i3PackFile.obj
 0001:00016860       ??_Gi3NamedResourceManager@@UAEPAXI@Z 10017860 f i i3PackFile.obj
 0001:000168a0       ??_Ei3PackFile@@UAEPAXI@Z  100178a0 f i i3PackFile.obj
 0001:000168a0       ??_Gi3PackFile@@UAEPAXI@Z  100178a0 f i i3PackFile.obj
 0001:00016950       ??_Gi3PackNode@@UAEPAXI@Z  10017950 f i i3PackFile.obj
 0001:00016990       ??_Gi3PackVolume@@UAEPAXI@Z 10017990 f i i3PackFile.obj
 0001:000169d0       ??_Gi3PersistantElement@@UAEPAXI@Z 100179d0 f i i3PackFile.obj
 0001:00016a10       ??_Gi3ResourceFile@@UAEPAXI@Z 10017a10 f i i3PackFile.obj
 0001:00016a50       ??_Gi3TreeNode@@UAEPAXI@Z  10017a50 f i i3PackFile.obj
 0001:00016a90       ??_Gtls_base@i3@@UAEPAXI@Z 10017a90 f i i3PackFile.obj
 0001:00016ac0       ?AddObject@i3ResourceFile@@QAEXPAVi3PersistantElement@@@Z 10017ac0 f i i3PackFile.obj
 0001:00016b00       ?FindPath@i3PackVolume@@QAEPAVi3PackNode@@PADPAPAU_tagi3PackFileInfo@@@Z 10017b00 f i i3PackFile.obj
 0001:00016b20       ?GetClassMeta@i3NamedElement@@SAPAVi3ClassMeta@@XZ 10017b20 f i i3PackFile.obj
 0001:00016b30       ?GetClassMeta@i3NamedResourceManager@@SAPAVi3ClassMeta@@XZ 10017b30 f i i3PackFile.obj
 0001:00016b40       ?GetClassMeta@i3PackNode@@SAPAVi3ClassMeta@@XZ 10017b40 f i i3PackFile.obj
 0001:00016b50       ?GetClassMeta@i3PackVolume@@SAPAVi3ClassMeta@@XZ 10017b50 f i i3PackFile.obj
 0001:00016b60       ?GetClassMeta@i3PersistantElement@@SAPAVi3ClassMeta@@XZ 10017b60 f i i3PackFile.obj
 0001:00016b70       ?GetClassMeta@i3ResourceFile@@SAPAVi3ClassMeta@@XZ 10017b70 f i i3PackFile.obj
 0001:00016b80       ?GetClassMeta@i3TreeNode@@SAPAVi3ClassMeta@@XZ 10017b80 f i i3PackFile.obj
 0001:00016b90       ?GetMeta@i3PackFile@@UAEPAVi3ClassMeta@@XZ 10017b90 f   i3PackFile.obj
 0001:00016ba0       ?GetName@i3NamedElement@@QAEPBDXZ 10017ba0 f i i3PackFile.obj
 0001:00016bb0       ?GetObjectA@i3ResourceFile@@QAEPAVi3PersistantElement@@H@Z 10017bb0 f i i3PackFile.obj
 0001:00016bc0       ?GetObjectCount@i3ResourceFile@@QAEHXZ 10017bc0 f i i3PackFile.obj
 0001:00016bd0       ?GetOverwriteExternalResStatus@i3ResourceFile@@QAE_NXZ 10017bd0 f i i3PackFile.obj
 0001:00016be0       ?GetPosition@i3PackFile@@QAEIXZ 10017be0 f   i3PackFile.obj
 0001:00016bf0       ?GetStream@i3ResourceFile@@QAEPAVi3Stream@@XZ 10017bf0 f i i3PackFile.obj
 0001:00016c00       ?GetStringTable@i3ResourceFile@@QAEPAVi3StringList@@XZ 10017c00 f i i3PackFile.obj
 0001:00016c10       ?GetVersionMajor@i3ResourceFile@@QAEGXZ 10017c10 f i i3PackFile.obj
 0001:00016c20       ?GetVersionMinor@i3ResourceFile@@QAEGXZ 10017c20 f i i3PackFile.obj
 0001:00016c30       ?IsExternRes@i3PersistantElement@@QAEHXZ 10017c30 f i i3PackFile.obj
 0001:00016c40       ?IsLoaded@i3PersistantElement@@QAEHXZ 10017c40 f i i3PackFile.obj
 0001:00016c50       ?Open@i3PackFile@@QAE_NPAVi3PackVolume@@PAVi3PackNode@@PAU_tagi3PackFileInfo@@@Z 10017c50 f   i3PackFile.obj
 0001:00016ca0       ?Read@i3PackFile@@QAEIPAXI@Z 10017ca0 f   i3PackFile.obj
 0001:00016e80       ?Read@i3ResourceFile@@QAEIPAXI@Z 10017e80 f i i3PackFile.obj
 0001:00016e90       ?RegisterMeta@i3PackFile@@SAXXZ 10017e90 f   i3PackFile.obj
 0001:00016ea0       ?SetConcreteClass@i3PackFile@@SAXPAVi3ClassMeta@@@Z 10017ea0 f   i3PackFile.obj
 0001:00016ec0       ?SetExternRes@i3PersistantElement@@QAEXH@Z 10017ec0 f i i3PackFile.obj
 0001:00016ee0       ?SetGhostClass@i3PackFile@@SAXPAVi3ClassMeta@@@Z 10017ee0 f   i3PackFile.obj
 0001:00016f00       ?SetLoaded@i3PersistantElement@@QAEXH@Z 10017f00 f i i3PackFile.obj
 0001:00016f20       ?SetOverwriteExternalResStatus@i3ResourceFile@@QAEX_N@Z 10017f20 f i i3PackFile.obj
 0001:00016f30       ?SetPosition@i3PackFile@@QAEIHH@Z 10017f30 f   i3PackFile.obj
 0001:00016f80       ?SetStream@i3ResourceFile@@QAEXPAVi3Stream@@@Z 10017f80 f i i3PackFile.obj
 0001:00016f90       ?SetUserProgressProc@i3ResourceFile@@QAEXP6AXPAXII@Z0@Z 10017f90 f i i3PackFile.obj
 0001:00016fb0       ?Write@i3ResourceFile@@QAEIPBXI@Z 10017fb0 f i i3PackFile.obj
 0001:00016fc0       ?_BindObject@i3PackFile@@SAPAV1@PAX@Z 10017fc0 f   i3PackFile.obj
 0001:00016fe0       ?_BindObjectByType@i3PackFile@@SAPAV1@PAXW4I3_CLASSMETA_TYPE@@@Z 10017fe0 f   i3PackFile.obj
 0001:00017000       ?_BindObjectRef@i3PackFile@@SAPAV1@PAX@Z 10018000 f   i3PackFile.obj
 0001:00017020       ?_BindObjectRefByType@i3PackFile@@SAPAV1@PAXW4I3_CLASSMETA_TYPE@@@Z 10018020 f   i3PackFile.obj
 0001:00017040       ?_NewObject@i3PackFile@@SAPAV1@XZ 10018040 f   i3PackFile.obj
 0001:00017060       ?_NewObjectByType@i3PackFile@@SAPAV1@W4I3_CLASSMETA_TYPE@@@Z 10018060 f   i3PackFile.obj
 0001:00017080       ?_NewObjectRef@i3PackFile@@SAPAV1@XZ 10018080 f   i3PackFile.obj
 0001:00017090       ?_NewObjectRefByType@i3PackFile@@SAPAV1@W4I3_CLASSMETA_TYPE@@@Z 10018090 f   i3PackFile.obj
 0001:000170b0       ?_create@?$ginst@Vstatic_pool@i3@@@i3@@CAPAVstatic_pool@2@XZ 100180b0 f i i3PackFile.obj
 0001:000170d0       ?_destroy@?$ginst@Vstatic_pool@i3@@@i3@@CAXXZ 100180d0 f i i3PackFile.obj
 0001:000170f0       ?addNodeState@i3TreeNode@@QAEXI@Z 100180f0 f i i3PackFile.obj
 0001:00017100       ?addNodeStyle@i3TreeNode@@QAEXI@Z 10018100 f i i3PackFile.obj
 0001:00017110       ?allocate@?$pool_allocator@PAVi3PersistantElement@@@i3@@QAEPAPAVi3PersistantElement@@I@Z 10018110 f i i3PackFile.obj
 0001:00017150       ?allocate_from_new_block@pool_base@i3@@IAEPAXKAAPAUmem_block_header@2@II@Z 10018150 f i i3PackFile.obj
 0001:00017180       ?deallocate_same_thread@pool_base@i3@@IAEXAAPAUmem_block_header@2@PAU32@PAX@Z 10018180 f i i3PackFile.obj
 0001:000171a0       ?expand_memory_size_by_pow2@pool_base@i3@@IAEXI@Z 100181a0 f i i3PackFile.obj
 0001:000171b0       ?find@?$hash_table@V?$HashTableNode_Unique@U?$pair@QBVtype_info@@Vshared_inst@detail_inst@i3@@@i3@@V?$heap_allocator@U?$pair@PBVtype_info@@Vshared_inst@detail_inst@i3@@@i3@@@2@@i3@@U?$hash@PBVtype_info@@@2@U?$equal_to@PBVtype_info@@@2@@i3@@QAE?AViterator@?$HashTableValue@V?$HashTableNode_Unique@U?$pair@QBVtype_info@@Vshared_inst@detail_inst@i3@@@i3@@V?$heap_allocator@U?$pair@PBVtype_info@@Vshared_inst@detail_inst@i3@@@i3@@@2@@i3@@@2@ABQBVtype_info@@@Z 100181b0 f i i3PackFile.obj
 0001:00017220       ?find_node@?$hash_table@V?$HashTableNode_Unique@U?$pair@QBVtype_info@@Vshared_inst@detail_inst@i3@@@i3@@V?$heap_allocator@U?$pair@PBVtype_info@@Vshared_inst@detail_inst@i3@@@i3@@@2@@i3@@U?$hash@PBVtype_info@@@2@U?$equal_to@PBVtype_info@@@2@@i3@@IBEPAUNode@?$HashTableNode_Unique@U?$pair@QBVtype_info@@Vshared_inst@detail_inst@i3@@@i3@@V?$heap_allocator@U?$pair@PBVtype_info@@Vshared_inst@detail_inst@i3@@@i3@@@2@@2@PAUBucket@42@ABQBVtype_info@@@Z 10018220 f i i3PackFile.obj
 0001:00017260       ?get@tls_base@i3@@IBEPAXXZ 10018260 f i i3PackFile.obj
 0001:00017290       ?getBackgroundLoadEnable@i3ResourceFile@@QAE_NXZ 10018290 f i i3PackFile.obj
 0001:000172a0       ?getChild@i3TreeNode@@QAEPAV1@H@Z 100182a0 f i i3PackFile.obj
 0001:000172c0       ?getChildCount@i3TreeNode@@QAEHXZ 100182c0 f i i3PackFile.obj
 0001:000172d0       ?getChildList@i3TreeNode@@QAEPAVi3List@@XZ 100182d0 f i i3PackFile.obj
 0001:000172e0       ?getFile@i3PackNode@@QAEPAU_tagi3PackFileInfo@@H@Z 100182e0 f i i3PackFile.obj
 0001:00017300       ?getFileCount@i3PackNode@@QAEHXZ 10018300 f i i3PackFile.obj
 0001:00017310       ?getFileName@i3ResourceFile@@QAEPBDXZ 10018310 f i i3PackFile.obj
 0001:00017320       ?getHeader@i3ResourceFile@@QAEPAUi3ResourceFileHeader2@@XZ 10018320 f i i3PackFile.obj
 0001:00017330       ?getKeyObject@i3ResourceFile@@QAEPAVi3PersistantElement@@XZ 10018330 f i i3PackFile.obj
 0001:00017340       ?getNodeState@i3TreeNode@@QAEIXZ 10018340 f i i3PackFile.obj
 0001:00017350       ?getNodeStyle@i3TreeNode@@QAEIXZ 10018350 f i i3PackFile.obj
 0001:00017360       ?getObjectInfo@i3ResourceFile@@QAEPAUi3ResourceFileObjectInfo2@@H@Z 10018360 f i i3PackFile.obj
 0001:00017380       ?getParent@i3TreeNode@@QAEPAV1@XZ 10018380 f i i3PackFile.obj
 0001:00017390       ?getPreview@i3PackVolume@@QAEPAUPackVolumePreview@@XZ 10018390 f i i3PackFile.obj
 0001:000173a0       ?getRoot@i3PackVolume@@QAEPAVi3PackNode@@XZ 100183a0 f i i3PackFile.obj
 0001:000173b0       ?getStream@i3PackVolume@@QAEPAVi3FileStream@@XZ 100183b0 f i i3PackFile.obj
 0001:000173c0       ?get_by_thread_id@?$shared_tls@Vpool_by_thread@i3@@@i3@@QBEPAVpool_by_thread@2@K@Z 100183c0 f i i3PackFile.obj
 0001:000173f0       ?get_by_thread_id@tls_base@i3@@IBEPAXK@Z 100183f0 f i i3PackFile.obj
 0001:00017420       ?get_curr_tls_thread_id@i3@@YAKXZ 10018420 f i i3PackFile.obj
 0001:00017430       ?get_num_tls_ptr@i3@@YAIXZ 10018430 f i i3PackFile.obj
 0001:00017440       ?get_num_tls_thread_id@i3@@YAKXZ 10018440 f i i3PackFile.obj
 0001:00017450       ?get_raw@tls_base@i3@@IBEPAXXZ 10018450 f i i3PackFile.obj
 0001:00017470       ?get_raw_by_thread_id@tls_base@i3@@IBEPAXK@Z 10018470 f i i3PackFile.obj
 0001:00017490       ?get_thread_id@?$shared_tls@Vpool_by_thread@i3@@@i3@@QBEKXZ 10018490 f i i3PackFile.obj
 0001:000174a0       ?get_tls_ptr@?$shared_tls@Vpool_by_thread@i3@@@i3@@QBEAAV?$tls_ptr@Vpool_by_thread@i3@@@2@XZ 100184a0 f i i3PackFile.obj
 0001:000174b0       ?get_value_default@detail_tls@i3@@YAPAXPBVtls_base@2@PBVthread_data@12@I@Z 100184b0 f i i3PackFile.obj
 0001:000174d0       ?hasName@i3NamedElement@@QAE_NXZ 100184d0 f i i3PackFile.obj
 0001:000174e0       ?insert@?$hash_table_ext@V?$HashTableNode_Unique@U?$pair@QBVtype_info@@Vshared_inst@detail_inst@i3@@@i3@@V?$heap_allocator@U?$pair@PBVtype_info@@Vshared_inst@detail_inst@i3@@@i3@@@2@@i3@@U?$hash@PBVtype_info@@@2@U?$equal_to@PBVtype_info@@@2@@i3@@QAE?AU?$pair@Viterator@?$HashTableValue@V?$HashTableNode_Unique@U?$pair@QBVtype_info@@Vshared_inst@detail_inst@i3@@@i3@@V?$heap_allocator@U?$pair@PBVtype_info@@Vshared_inst@detail_inst@i3@@@i3@@@2@@i3@@@i3@@_N@2@ABU?$pair@QBVtype_info@@Vshared_inst@detail_inst@i3@@@2@@Z 100184e0 f i i3PackFile.obj
 0001:00017620       ?insert_1@?$vector@P6APAXPBVtls_base@i3@@PBVthread_data@detail_tls@2@I@ZV?$heap_allocator@P6APAXPBVtls_base@i3@@PBVthread_data@detail_tls@2@I@Z@2@@i3@@AAEXPBQ6APAXPBVtls_base@2@PBVthread_data@detail_tls@2@I@ZABQ6APAX01I@Z@Z 10018620 f i i3PackFile.obj
 0001:00017840       ?insert_1@?$vector@PAVi3PersistantElement@@V?$pool_allocator@PAVi3PersistantElement@@@i3@@@i3@@AAEXPBQAVi3PersistantElement@@ABQAV3@@Z 10018840 f i i3PackFile.obj
 0001:00017aa0       ?insert_1@?$vector@PAVtls_base@i3@@V?$heap_allocator@PAVtls_base@i3@@@2@@i3@@AAEXPBQAVtls_base@2@ABQAV32@@Z 10018aa0 f i i3PackFile.obj
 0001:00017cc0       ?insert_1@?$vector@PAXV?$heap_allocator@PAX@i3@@@i3@@AAEXPBQAXABQAX@Z 10018cc0 f i i3PackFile.obj
 0001:00017ee0       ?isNodeState@i3TreeNode@@QAE_NI@Z 10018ee0 f i i3PackFile.obj
 0001:00017f00       ?isNodeStyle@i3TreeNode@@QAE_NI@Z 10018f00 f i i3PackFile.obj
 0001:00017f20       ?on_create@?$shared_tls@Vpool_by_thread@i3@@@i3@@AAEXPAV?$tls_ptr@Vpool_by_thread@i3@@@2@K@Z 10018f20 f i i3PackFile.obj
 0001:00017f40       ?on_create_tls@?$shared_tls@Vpool_by_thread@i3@@@i3@@QAEXXZ 10018f40 f i i3PackFile.obj
 0001:00017f50       ?rehash_impl@?$hash_table@V?$HashTableNode_Unique@U?$pair@QBVtype_info@@Vshared_inst@detail_inst@i3@@@i3@@V?$heap_allocator@U?$pair@PBVtype_info@@Vshared_inst@detail_inst@i3@@@i3@@@2@@i3@@U?$hash@PBVtype_info@@@2@U?$equal_to@PBVtype_info@@@2@@i3@@AAEXI@Z 10018f50 f i i3PackFile.obj
 0001:000180f0       ?removeNodeState@i3TreeNode@@QAEXI@Z 100190f0 f i i3PackFile.obj
 0001:00018110       ?removeNodeStyle@i3TreeNode@@QAEXI@Z 10019110 f i i3PackFile.obj
 0001:00018130       ?setBackgroundLoadEnable@i3ResourceFile@@QAEX_N@Z 10019130 f i i3PackFile.obj
 0001:00018140       ?setChild@i3TreeNode@@QAEXHPAV1@@Z 10019140 f i i3PackFile.obj
 0001:00018160       ?setKeyObject@i3ResourceFile@@QAEXPAVi3PersistantElement@@@Z 10019160 f i i3PackFile.obj
 0001:00018170       ?setNodeState@i3TreeNode@@QAEXI@Z 10019170 f i i3PackFile.obj
 0001:00018180       ?setNodeStyle@i3TreeNode@@QAEXI@Z 10019180 f i i3PackFile.obj
 0001:00018190       ?setRoot@i3PackVolume@@QAEXPAVi3PackNode@@@Z 10019190 f i i3PackFile.obj
 0001:000181c0       ?slot_idx@tls_base@i3@@IBEIXZ 100191c0 f i i3PackFile.obj
 0001:000181d0       ?tls_aligned_free@i3@@YAXKPAX@Z 100191d0 f i i3PackFile.obj
 0001:00018200       ?tls_aligned_free@i3@@YAXPAX@Z 10019200 f i i3PackFile.obj
 0001:00018230       ?tls_aligned_malloc@i3@@YAPAXII@Z 10019230 f i i3PackFile.obj
 0001:00018280       ?tls_aligned_malloc@i3@@YAPAXKII@Z 10019280 f i i3PackFile.obj
 0001:000182d0       ?tls_free@i3@@YAXKPAX@Z    100192d0 f i i3PackFile.obj
 0001:00018300       ?tls_free@i3@@YAXPAX@Z     10019300 f i i3PackFile.obj
 0001:00018330       ?tls_malloc@i3@@YAPAXI@Z   10019330 f i i3PackFile.obj
 0001:00018350       ?tls_malloc@i3@@YAPAXKI@Z  10019350 f i i3PackFile.obj
 0001:00018370       ?tls_safe_aligned_free@i3@@YAXKPAX@Z 10019370 f i i3PackFile.obj
 0001:000183a0       ?tls_safe_aligned_free@i3@@YAXPAX@Z 100193a0 f i i3PackFile.obj
 0001:000183d0       ?tls_safe_aligned_malloc@i3@@YAPAXII@Z 100193d0 f i i3PackFile.obj
 0001:00018420       ?tls_safe_aligned_malloc@i3@@YAPAXKII@Z 10019420 f i i3PackFile.obj
 0001:00018470       ?tls_safe_free@i3@@YAXKPAX@Z 10019470 f i i3PackFile.obj
 0001:000184a0       ?tls_safe_free@i3@@YAXPAX@Z 100194a0 f i i3PackFile.obj
 0001:000184d0       ?tls_safe_malloc@i3@@YAPAXI@Z 100194d0 f i i3PackFile.obj
 0001:000184f0       ?tls_safe_malloc@i3@@YAPAXKI@Z 100194f0 f i i3PackFile.obj
 0001:00018510       ?Bind@i3Pack@@YA_NPBD@Z    10019510 f   i3PackFileSystem.obj
 0001:00018570       ?Bind@i3Pack@@YA_NXZ       10019570 f   i3PackFileSystem.obj
 0001:000185d0       ?Close@i3Pack@@YAXPAVi3PackFile@@@Z 100195d0 f   i3PackFileSystem.obj
 0001:000185e0       ?DumpList@i3Pack@@YAXXZ    100195e0 f   i3PackFileSystem.obj
 0001:00018610       ?FindDirectoryPackNode@i3Pack@@YAPAVi3PackNode@@PBD@Z 10019610 f   i3PackFileSystem.obj
 0001:000186f0       ?Finish@i3Pack@@YA_NXZ     100196f0 f   i3PackFileSystem.obj
 0001:00018740       ?Init@i3Pack@@YA_NXZ       10019740 f   i3PackFileSystem.obj
 0001:00018760       ?Open@i3Pack@@YAPAVi3PackFile@@PBD@Z 10019760 f   i3PackFileSystem.obj
 0001:000187e0       ?Preview@i3Pack@@YA_NPBD@Z 100197e0 f   i3PackFileSystem.obj
 0001:00018840       ?Sort@i3Pack@@YAXXZ        10019840 f   i3PackFileSystem.obj
 0001:00018860       ?comparebylatest@i3Pack@@YAHPAX0@Z 10019860 f   i3PackFileSystem.obj
 0001:000188e0       ?isFile@i3Pack@@YAPAVi3PackVolume@@PBD@Z 100198e0 f   i3PackFileSystem.obj
 0001:00018950       ?CreateInstance@?$i3MetaTemplate@Vi3PackNode@@@@UAEPAVi3ElementBase@@W4I3_CLASSMETA_TYPE@@@Z 10019950 f i i3PackNode.obj
 0001:00018a30       ?BindInstance@?$i3MetaTemplate@Vi3PackNode@@@@UAEPAVi3ElementBase@@PAXW4I3_CLASSMETA_TYPE@@@Z 10019a30 f i i3PackNode.obj
 0001:00018af0       ??_E?$i3MetaTemplate@Vi3PackNode@@@@UAEPAXI@Z 10019af0 f i i3PackNode.obj
 0001:00018af0       ??_G?$i3MetaTemplate@Vi3PackNode@@@@UAEPAXI@Z 10019af0 f i i3PackNode.obj
 0001:00018b20       ??0?$i3MetaTemplate@Vi3PackNode@@@@QAE@IPAD0W4I3_CLASSMETA_TYPE@@@Z 10019b20 f i i3PackNode.obj
 0001:00018b50       ??0i3PackNode@@QAE@XZ      10019b50 f   i3PackNode.obj
 0001:00018b80       ??1i3PackNode@@UAE@XZ      10019b80 f   i3PackNode.obj
 0001:00018bf0       ?AddFile@i3PackNode@@QAEHPBDIII@Z 10019bf0 f   i3PackNode.obj
 0001:00018cc0       ?DumpPack@i3PackNode@@QAEXXZ 10019cc0 f   i3PackNode.obj
 0001:00018d90       ?Find@i3PackNode@@QAEHPBD@Z 10019d90 f   i3PackNode.obj
 0001:00018e20       ?FindPath@i3PackNode@@QAEPAV1@PBDPAPAU_tagi3PackFileInfo@@@Z 10019e20 f   i3PackNode.obj
 0001:00018ff0       ?GetFullPath@i3PackNode@@QAEXPAD@Z 10019ff0 f   i3PackNode.obj
 0001:00019050       ?GetMeta@i3PackNode@@UAEPAVi3ClassMeta@@XZ 1001a050 f   i3PackNode.obj
 0001:00019060       ?OnLoad@i3PackNode@@UAEIPAVi3ResourceFile@@@Z 1001a060 f   i3PackNode.obj
 0001:000192a0       ?OnSave@i3PackNode@@UAEIPAVi3ResourceFile@@@Z 1001a2a0 f   i3PackNode.obj
 0001:00019660       ?RegisterMeta@i3PackNode@@SAXXZ 1001a660 f   i3PackNode.obj
 0001:00019670       ?RemoveFile@i3PackNode@@QAEXPBD@Z 1001a670 f   i3PackNode.obj
 0001:000196c0       ?SetConcreteClass@i3PackNode@@SAXPAVi3ClassMeta@@@Z 1001a6c0 f   i3PackNode.obj
 0001:000196e0       ?SetFileCount@i3PackNode@@QAEXH@Z 1001a6e0 f   i3PackNode.obj
 0001:00019760       ?SetGhostClass@i3PackNode@@SAXPAVi3ClassMeta@@@Z 1001a760 f   i3PackNode.obj
 0001:00019780       ?_BindObject@i3PackNode@@SAPAV1@PAX@Z 1001a780 f   i3PackNode.obj
 0001:000197a0       ?_BindObjectByType@i3PackNode@@SAPAV1@PAXW4I3_CLASSMETA_TYPE@@@Z 1001a7a0 f   i3PackNode.obj
 0001:000197c0       ?_BindObjectRef@i3PackNode@@SAPAV1@PAX@Z 1001a7c0 f   i3PackNode.obj
 0001:000197e0       ?_BindObjectRefByType@i3PackNode@@SAPAV1@PAXW4I3_CLASSMETA_TYPE@@@Z 1001a7e0 f   i3PackNode.obj
 0001:00019800       ?_NewObject@i3PackNode@@SAPAV1@XZ 1001a800 f   i3PackNode.obj
 0001:00019820       ?_NewObjectByType@i3PackNode@@SAPAV1@W4I3_CLASSMETA_TYPE@@@Z 1001a820 f   i3PackNode.obj
 0001:00019840       ?_NewObjectRef@i3PackNode@@SAPAV1@XZ 1001a840 f   i3PackNode.obj
 0001:00019850       ?_NewObjectRefByType@i3PackNode@@SAPAV1@W4I3_CLASSMETA_TYPE@@@Z 1001a850 f   i3PackNode.obj
 0001:00019870       ?getNameCode@i3PackNode@@IAEIPBD@Z 1001a870 f   i3PackNode.obj
 0001:000198d0       ?saveFile@i3PackNode@@IAEIPAVi3Stream@@0PAU_tagi3PackFileInfo@@@Z 1001a8d0 f   i3PackNode.obj
 0001:000199d0       ?CreateInstance@?$i3MetaTemplate@Vi3PackVolume@@@@UAEPAVi3ElementBase@@W4I3_CLASSMETA_TYPE@@@Z 1001a9d0 f i i3PackVolume.obj
 0001:00019ab0       ?BindInstance@?$i3MetaTemplate@Vi3PackVolume@@@@UAEPAVi3ElementBase@@PAXW4I3_CLASSMETA_TYPE@@@Z 1001aab0 f i i3PackVolume.obj
 0001:00019b50       ??_E?$i3MetaTemplate@Vi3PackVolume@@@@UAEPAXI@Z 1001ab50 f i i3PackVolume.obj
 0001:00019b50       ??_G?$i3MetaTemplate@Vi3PackVolume@@@@UAEPAXI@Z 1001ab50 f i i3PackVolume.obj
 0001:00019b80       ??0?$i3MetaTemplate@Vi3PackVolume@@@@QAE@IPAD0W4I3_CLASSMETA_TYPE@@@Z 1001ab80 f i i3PackVolume.obj
 0001:00019bb0       ??0i3PackVolume@@QAE@XZ    1001abb0 f   i3PackVolume.obj
 0001:00019c30       ??1i3PackVolume@@UAE@XZ    1001ac30 f   i3PackVolume.obj
 0001:00019ca0       ?DumpVolume@i3PackVolume@@QAEXXZ 1001aca0 f   i3PackVolume.obj
 0001:00019cb0       ?Export@i3PackVolume@@QAE_NPBD@Z 1001acb0 f   i3PackVolume.obj
 0001:00019cf0       ?Export_Rec@i3PackVolume@@AAEHPAVi3PackNode@@PBD@Z 1001acf0 f   i3PackVolume.obj
 0001:00019ee0       ?GetMeta@i3PackVolume@@UAEPAVi3ClassMeta@@XZ 1001aee0 f   i3PackVolume.obj
 0001:00019ef0       ?LoadFromFile@i3PackVolume@@QAE_NPBD@Z 1001aef0 f   i3PackVolume.obj
 0001:00019fb0       ?Preview@i3PackVolume@@QAEIPBD@Z 1001afb0 f   i3PackVolume.obj
 0001:0001a1a0       ?RegisterMeta@i3PackVolume@@SAXXZ 1001b1a0 f   i3PackVolume.obj
 0001:0001a1b0       ?SaveToFile@i3PackVolume@@QAE_NPBD@Z 1001b1b0 f   i3PackVolume.obj
 0001:0001a240       ?SetConcreteClass@i3PackVolume@@SAXPAVi3ClassMeta@@@Z 1001b240 f   i3PackVolume.obj
 0001:0001a260       ?SetGhostClass@i3PackVolume@@SAXPAVi3ClassMeta@@@Z 1001b260 f   i3PackVolume.obj
 0001:0001a280       ?_BindObject@i3PackVolume@@SAPAV1@PAX@Z 1001b280 f   i3PackVolume.obj
 0001:0001a2a0       ?_BindObjectByType@i3PackVolume@@SAPAV1@PAXW4I3_CLASSMETA_TYPE@@@Z 1001b2a0 f   i3PackVolume.obj
 0001:0001a2c0       ?_BindObjectRef@i3PackVolume@@SAPAV1@PAX@Z 1001b2c0 f   i3PackVolume.obj
 0001:0001a2e0       ?_BindObjectRefByType@i3PackVolume@@SAPAV1@PAXW4I3_CLASSMETA_TYPE@@@Z 1001b2e0 f   i3PackVolume.obj
 0001:0001a300       ?_NewObject@i3PackVolume@@SAPAV1@XZ 1001b300 f   i3PackVolume.obj
 0001:0001a320       ?_NewObjectByType@i3PackVolume@@SAPAV1@W4I3_CLASSMETA_TYPE@@@Z 1001b320 f   i3PackVolume.obj
 0001:0001a340       ?_NewObjectRef@i3PackVolume@@SAPAV1@XZ 1001b340 f   i3PackVolume.obj
 0001:0001a350       ?_NewObjectRefByType@i3PackVolume@@SAPAV1@W4I3_CLASSMETA_TYPE@@@Z 1001b350 f   i3PackVolume.obj
 0001:0001a370       ??0i3XMLElement@@QAE@PBD@Z 1001b370 f   i3XMLElement.obj
 0001:0001a3a0       ??1i3XMLElement@@UAE@XZ    1001b3a0 f   i3XMLElement.obj
 0001:0001a3b0       ?CreateInstance@?$i3MetaTemplate@Vi3XMLFile@@@@UAEPAVi3ElementBase@@W4I3_CLASSMETA_TYPE@@@Z 1001b3b0 f i i3XMLFile.obj
 0001:0001a490       ?BindInstance@?$i3MetaTemplate@Vi3XMLFile@@@@UAEPAVi3ElementBase@@PAXW4I3_CLASSMETA_TYPE@@@Z 1001b490 f i i3XMLFile.obj
 0001:0001a530       ??_E?$i3MetaTemplate@Vi3XMLFile@@@@UAEPAXI@Z 1001b530 f i i3XMLFile.obj
 0001:0001a530       ??_G?$i3MetaTemplate@Vi3XMLFile@@@@UAEPAXI@Z 1001b530 f i i3XMLFile.obj
 0001:0001a560       ??$fill@PAPAVi3PersistantElement@@PAV1@@i3@@YAXPAPAVi3PersistantElement@@0ABQAV1@@Z 1001b560 f i i3XMLFile.obj
 0001:0001a580       ??$insert_impl@PAPAVi3PersistantElement@@@?$vector@PAVi3PersistantElement@@V?$pool_allocator@PAVi3PersistantElement@@@i3@@@i3@@AAEXPBQAVi3PersistantElement@@PAPAV2@1Uforward_iterator_tag@1@@Z 1001b580 f i i3XMLFile.obj
 0001:0001a780       ??$uninitialized_fill_n@PAPAVi3PersistantElement@@IPAV1@V?$pool_allocator@PAVi3PersistantElement@@@i3@@@i3@@YAXPAPAVi3PersistantElement@@IABQAV1@AAV?$pool_allocator@PAVi3PersistantElement@@@0@@Z 1001b780 f i i3XMLFile.obj
 0001:0001a7b0       ??0?$i3MetaTemplate@Vi3XMLFile@@@@QAE@IPAD0W4I3_CLASSMETA_TYPE@@@Z 1001b7b0 f i i3XMLFile.obj
 0001:0001a7e0       ??0?$vector@PAVi3PersistantElement@@V?$pool_allocator@PAVi3PersistantElement@@@i3@@@i3@@QAE@ABV01@@Z 1001b7e0 f i i3XMLFile.obj
 0001:0001a8b0       ??0i3InstanceProxy@@QAE@ABV0@@Z 1001b8b0 f i i3XMLFile.obj
 0001:0001a900       ??0i3RefStack@@QAE@ABV0@@Z 1001b900 f i i3XMLFile.obj
 0001:0001a920       ??0i3ResourceObject@@QAE@ABV0@@Z 1001b920 f i i3XMLFile.obj
 0001:0001a9b0       ??0i3XMLFile@@QAE@ABV0@@Z  1001b9b0 f i i3XMLFile.obj
 0001:0001ab40       ??0i3XMLFile@@QAE@XZ       1001bb40 f   i3XMLFile.obj
 0001:0001ac20       ??1?$vector@PAVi3PersistantElement@@V?$pool_allocator@PAVi3PersistantElement@@@i3@@@i3@@QAE@XZ 1001bc20 f i i3XMLFile.obj
 0001:0001ac90       ??1i3XMLFile@@UAE@XZ       1001bc90 f   i3XMLFile.obj
 0001:0001ad70       ??4UINT128@@QAEAAV0@ABV0@@Z 1001bd70 f i i3XMLFile.obj
 0001:0001ada0       ??4i3InstanceProxy@@QAEAAV0@ABV0@@Z 1001bda0 f i i3XMLFile.obj
 0001:0001add0       ??4i3RefStack@@QAEAAV0@ABV0@@Z 1001bdd0 f i i3XMLFile.obj
 0001:0001adf0       ??4i3ResourceObject@@QAEAAV0@ABV0@@Z 1001bdf0 f i i3XMLFile.obj
 0001:0001ae70       ??4i3XMLFile@@QAEAAV0@ABV0@@Z 1001be70 f i i3XMLFile.obj
 0001:0001afb0       ??AUINT128@@QBE?B_KH@Z     1001bfb0 f i i3XMLFile.obj
 0001:0001afd0       ??_Ei3InstanceProxy@@UAEPAXI@Z 1001bfd0 f i i3XMLFile.obj
 0001:0001b090       ??_Ei3RefStack@@UAEPAXI@Z  1001c090 f i i3XMLFile.obj
 0001:0001b140       ??_Ei3ResourceObject@@UAEPAXI@Z 1001c140 f i i3XMLFile.obj
 0001:0001b200       ??_Ei3XMLFile@@UAEPAXI@Z   1001c200 f i i3XMLFile.obj
 0001:0001b2c0       ??_Gi3InstanceProxy@@UAEPAXI@Z 1001c2c0 f i i3XMLFile.obj
 0001:0001b300       ??_Gi3RefStack@@UAEPAXI@Z  1001c300 f i i3XMLFile.obj
 0001:0001b340       ??_Gi3ResourceObject@@UAEPAXI@Z 1001c340 f i i3XMLFile.obj
 0001:0001b380       ??_Gi3XMLFile@@UAEPAXI@Z   1001c380 f i i3XMLFile.obj
 0001:0001b3c0       ?AddObject@i3XMLFile@@QAEXPAVi3PersistantElement@@@Z 1001c3c0 f i i3XMLFile.obj
 0001:0001b410       ?FindObjectByID@i3XMLFile@@QAEPAVi3PersistantElement@@I@Z 1001c410 f   i3XMLFile.obj
 0001:0001b440       ?FindObjectByMeta@i3XMLFile@@QAEPAVi3PersistantElement@@PAVi3ClassMeta@@@Z 1001c440 f   i3XMLFile.obj
 0001:0001b4a0       ?GetClassMeta@i3InstanceProxy@@SAPAVi3ClassMeta@@XZ 1001c4a0 f i i3XMLFile.obj
 0001:0001b4b0       ?GetClassMeta@i3RefStack@@SAPAVi3ClassMeta@@XZ 1001c4b0 f i i3XMLFile.obj
 0001:0001b4c0       ?GetClassMeta@i3ResourceObject@@SAPAVi3ClassMeta@@XZ 1001c4c0 f i i3XMLFile.obj
 0001:0001b4d0       ?GetClassMeta@i3XMLFile@@SAPAVi3ClassMeta@@XZ 1001c4d0 f i i3XMLFile.obj
 0001:0001b4e0       ?GetMeta@i3XMLFile@@UAEPAVi3ClassMeta@@XZ 1001c4e0 f   i3XMLFile.obj
 0001:0001b4f0       ?GetObjectA@i3XMLFile@@QAEPAVi3PersistantElement@@H@Z 1001c4f0 f i i3XMLFile.obj
 0001:0001b510       ?GetObjectCount@i3XMLFile@@QAEHXZ 1001c510 f i i3XMLFile.obj
 0001:0001b520       ?GetObjectPersistID@i3XMLFile@@QAEIPAVi3PersistantElement@@@Z 1001c520 f   i3XMLFile.obj
 0001:0001b580       ?GetOverwriteExternalResStatus@i3XMLFile@@QAE_NXZ 1001c580 f i i3XMLFile.obj
 0001:0001b590       ?GetVersionMajor@i3XMLFile@@QAEGXZ 1001c590 f i i3XMLFile.obj
 0001:0001b5a0       ?GetVersionMinor@i3XMLFile@@QAEGXZ 1001c5a0 f i i3XMLFile.obj
 0001:0001b5b0       ?IsEmpty@i3RefStack@@QAE_NXZ 1001c5b0 f i i3XMLFile.obj
 0001:0001b5c0       ?Load@i3XMLFile@@UAE_NPBD@Z 1001c5c0 f   i3XMLFile.obj
 0001:0001bb00       ?RegisterMeta@i3XMLFile@@SAXXZ 1001cb00 f   i3XMLFile.obj
 0001:0001bb10       ?Reset@i3RefStack@@QAEXXZ  1001cb10 f i i3XMLFile.obj
 0001:0001bb20       ?Save@i3XMLFile@@UAE_NPBD@Z 1001cb20 f   i3XMLFile.obj
 0001:0001c060       ?SetConcreteClass@i3XMLFile@@SAXPAVi3ClassMeta@@@Z 1001d060 f   i3XMLFile.obj
 0001:0001c080       ?SetGhostClass@i3XMLFile@@SAXPAVi3ClassMeta@@@Z 1001d080 f   i3XMLFile.obj
 0001:0001c0a0       ?SetObjects@i3XMLFile@@QAEXAAV?$vector@PAVi3PersistantElement@@V?$pool_allocator@PAVi3PersistantElement@@@i3@@@i3@@@Z 1001d0a0 f   i3XMLFile.obj
 0001:0001c0b0       ?SetOverwriteExternalResStatus@i3XMLFile@@QAEX_N@Z 1001d0b0 f i i3XMLFile.obj
 0001:0001c0c0       ?_BindObject@i3XMLFile@@SAPAV1@PAX@Z 1001d0c0 f   i3XMLFile.obj
 0001:0001c0e0       ?_BindObjectByType@i3XMLFile@@SAPAV1@PAXW4I3_CLASSMETA_TYPE@@@Z 1001d0e0 f   i3XMLFile.obj
 0001:0001c100       ?_BindObjectRef@i3XMLFile@@SAPAV1@PAX@Z 1001d100 f   i3XMLFile.obj
 0001:0001c120       ?_BindObjectRefByType@i3XMLFile@@SAPAV1@PAXW4I3_CLASSMETA_TYPE@@@Z 1001d120 f   i3XMLFile.obj
 0001:0001c140       ?_CreateXMLDocument@i3XMLFile@@IAEXPBD@Z 1001d140 f   i3XMLFile.obj
 0001:0001c230       ?_NewObject@i3XMLFile@@SAPAV1@XZ 1001d230 f   i3XMLFile.obj
 0001:0001c250       ?_NewObjectByType@i3XMLFile@@SAPAV1@W4I3_CLASSMETA_TYPE@@@Z 1001d250 f   i3XMLFile.obj
 0001:0001c270       ?_NewObjectRef@i3XMLFile@@SAPAV1@XZ 1001d270 f   i3XMLFile.obj
 0001:0001c280       ?_NewObjectRefByType@i3XMLFile@@SAPAV1@W4I3_CLASSMETA_TYPE@@@Z 1001d280 f   i3XMLFile.obj
 0001:0001c2a0       ?_ResolveExtern@i3XMLFile@@IAEPAVi3PersistantElement@@PAVi3XMLElement@@@Z 1001d2a0 f   i3XMLFile.obj
 0001:0001c510       ?_SaveExtern@i3XMLFile@@IAEIHPAVi3ResourceObject@@PAVi3XMLElement@@@Z 1001d510 f   i3XMLFile.obj
 0001:0001c670       ?_setLastError@i3XMLFile@@IAEXW4CODE@i3Error@@PBD_N@Z 1001d670 f   i3XMLFile.obj
 0001:0001c6e0       ?getChecksum@i3ResourceObject@@QAE?AVUINT128@@XZ 1001d6e0 f i i3XMLFile.obj
 0001:0001c710       ?getChecksum@i3ResourceObject@@QAE_KH@Z 1001d710 f i i3XMLFile.obj
 0001:0001c730       ?getCurrent@i3XMLFile@@QAEPAVi3XMLElement@@XZ 1001d730 f i i3XMLFile.obj
 0001:0001c740       ?getCurrentObject@i3XMLFile@@QAEPAVi3PersistantElement@@XZ 1001d740 f i i3XMLFile.obj
 0001:0001c770       ?getDocument@i3XMLFile@@QAEPAVTiXmlDocument@@XZ 1001d770 f i i3XMLFile.obj
 0001:0001c780       ?getFileName@i3XMLFile@@QAEPADXZ 1001d780 f i i3XMLFile.obj
 0001:0001c790       ?getInstance@i3InstanceProxy@@QAEPAVi3PersistantElement@@XZ 1001d790 f i i3XMLFile.obj
 0001:0001c7a0       ?getKeyObject@i3XMLFile@@QAEPAVi3PersistantElement@@XZ 1001d7a0 f i i3XMLFile.obj
 0001:0001c7b0       ?getLastError@i3XMLFile@@QAE?AW4CODE@i3Error@@XZ 1001d7b0 f i i3XMLFile.obj
 0001:0001c7c0       ?getProxyClassName@i3InstanceProxy@@QAEPADXZ 1001d7c0 f i i3XMLFile.obj
 0001:0001c7d0       ?getRoot@i3XMLFile@@QAEPAVi3XMLElement@@XZ 1001d7d0 f i i3XMLFile.obj
 0001:0001c7e0       ?getTop@i3RefStack@@QAEPAVi3ElementBase@@XZ 1001d7e0 f i i3XMLFile.obj
 0001:0001c800       ?insert_n@?$vector@PAVi3PersistantElement@@V?$pool_allocator@PAVi3PersistantElement@@@i3@@@i3@@AAEXPBQAVi3PersistantElement@@IABQAV3@@Z 1001d800 f i i3XMLFile.obj
 0001:0001cab0       ?isCommonRes@i3ResourceObject@@QAE_NXZ 1001dab0 f i i3XMLFile.obj
 0001:0001cac0       ?popCurrentObject@i3XMLFile@@QAEXXZ 1001dac0 f i i3XMLFile.obj
 0001:0001cad0       ?pushCurrentObject@i3XMLFile@@QAEXPAVi3PersistantElement@@@Z 1001dad0 f i i3XMLFile.obj
 0001:0001cae0       ?reverse@?$vector@PAVi3PersistantElement@@V?$pool_allocator@PAVi3PersistantElement@@@i3@@@i3@@AAEXPAPAVi3PersistantElement@@0@Z 1001dae0 f i i3XMLFile.obj
 0001:0001cb10       ?setCommonRes@i3ResourceObject@@QAEX_N@Z 1001db10 f i i3XMLFile.obj
 0001:0001cb40       ?setInstance@i3InstanceProxy@@QAEXPAVi3PersistantElement@@@Z 1001db40 f i i3XMLFile.obj
 0001:0001cb70       ?setKeyObject@i3XMLFile@@QAEXPAVi3PersistantElement@@@Z 1001db70 f i i3XMLFile.obj
 0001:0001cb80       ??H@YA?AVTiXmlString@@ABV0@0@Z 1001db80 f   tinystr.obj
 0001:0001cc80       ??H@YA?AVTiXmlString@@ABV0@PBD@Z 1001dc80 f   tinystr.obj
 0001:0001cd80       ??H@YA?AVTiXmlString@@PBDABV0@@Z 1001dd80 f   tinystr.obj
 0001:0001ce80       ?append@TiXmlString@@QAEAAV1@PBDI@Z 1001de80 f   tinystr.obj
 0001:0001ced0       ?assign@TiXmlString@@QAEAAV1@PBDI@Z 1001ded0 f   tinystr.obj
 0001:0001cfb0       ?reserve@TiXmlString@@QAEXI@Z 1001dfb0 f   tinystr.obj
 0001:0001d070       ??$_snprintf_s@$0BAA@@@YAHAAY0BAA@DIPBDZZ 1001e070 f i tinyxml.obj
 0001:0001d0b0       ??$_snprintf_s@$0CA@@@YAHAAY0CA@DIPBDZZ 1001e0b0 f i tinyxml.obj
 0001:0001d0e0       ??$_snprintf_s@$0EA@@@YAHAAY0EA@DIPBDZZ 1001e0e0 f i tinyxml.obj
 0001:0001d110       ??0TiXmlAttributeSet@@QAE@XZ 1001e110 f   tinyxml.obj
 0001:0001d160       ??0TiXmlComment@@QAE@ABV0@@Z 1001e160 f   tinyxml.obj
 0001:0001d220       ??0TiXmlDeclaration@@QAE@ABV0@@Z 1001e220 f   tinyxml.obj
 0001:0001d2e0       ??0TiXmlDeclaration@@QAE@PBD00@Z 1001e2e0 f   tinyxml.obj
 0001:0001d3f0       ??0TiXmlDocument@@QAE@ABV0@@Z 1001e3f0 f   tinyxml.obj
 0001:0001d4b0       ??0TiXmlDocument@@QAE@PBD@Z 1001e4b0 f   tinyxml.obj
 0001:0001d5c0       ??0TiXmlDocument@@QAE@XZ   1001e5c0 f   tinyxml.obj
 0001:0001d6a0       ??0TiXmlElement@@QAE@ABV0@@Z 1001e6a0 f   tinyxml.obj
 0001:0001d780       ??0TiXmlElement@@QAE@PBD@Z 1001e780 f   tinyxml.obj
 0001:0001d870       ??0TiXmlNode@@IAE@W4NodeType@0@@Z 1001e870 f   tinyxml.obj
 0001:0001d8d0       ??1TiXmlAttributeSet@@QAE@XZ 1001e8d0 f   tinyxml.obj
 0001:0001d910       ??1TiXmlElement@@UAE@XZ    1001e910 f   tinyxml.obj
 0001:0001d990       ??1TiXmlNode@@UAE@XZ       1001e990 f   tinyxml.obj
 0001:0001d9d0       ??4TiXmlComment@@QAEXABV0@@Z 1001e9d0 f   tinyxml.obj
 0001:0001da30       ??4TiXmlDeclaration@@QAEXABV0@@Z 1001ea30 f   tinyxml.obj
 0001:0001da70       ??4TiXmlDocument@@QAEXABV0@@Z 1001ea70 f   tinyxml.obj
 0001:0001dab0       ??4TiXmlElement@@QAEXABV0@@Z 1001eab0 f   tinyxml.obj
 0001:0001dad0       ??_ETiXmlElement@@UAEPAXI@Z 1001ead0 f i tinyxml.obj
 0001:0001db80       ??_ETiXmlNode@@UAEPAXI@Z   1001eb80 f i tinyxml.obj
 0001:0001dc20       ??_GTiXmlElement@@UAEPAXI@Z 1001ec20 f i tinyxml.obj
 0001:0001dc50       ??_GTiXmlNode@@UAEPAXI@Z   1001ec50 f i tinyxml.obj
 0001:0001dcb0       ?Accept@TiXmlComment@@UBE_NPAVTiXmlVisitor@@@Z 1001ecb0 f   tinyxml.obj
 0001:0001dcd0       ?Accept@TiXmlDeclaration@@UBE_NPAVTiXmlVisitor@@@Z 1001ecd0 f   tinyxml.obj
 0001:0001dcf0       ?Accept@TiXmlDocument@@UBE_NPAVTiXmlVisitor@@@Z 1001ecf0 f   tinyxml.obj
 0001:0001dd40       ?Accept@TiXmlElement@@UBE_NPAVTiXmlVisitor@@@Z 1001ed40 f   tinyxml.obj
 0001:0001dda0       ?Accept@TiXmlText@@UBE_NPAVTiXmlVisitor@@@Z 1001eda0 f   tinyxml.obj
 0001:0001ddc0       ?Accept@TiXmlUnknown@@UBE_NPAVTiXmlVisitor@@@Z 1001edc0 f   tinyxml.obj
 0001:0001dde0       ?Add@TiXmlAttributeSet@@QAEXPAVTiXmlAttribute@@@Z 1001ede0 f   tinyxml.obj
 0001:0001de00       ?Attribute@TiXmlElement@@QBEPBDPBD@Z 1001ee00 f   tinyxml.obj
 0001:0001de30       ?Attribute@TiXmlElement@@QBEPBDPBDPAH@Z 1001ee30 f   tinyxml.obj
 0001:0001de80       ?Attribute@TiXmlElement@@QBEPBDPBDPAN@Z 1001ee80 f   tinyxml.obj
 0001:0001ded0       ?AttributeLong@TiXmlElement@@QBEPBDPBDPA_J@Z 1001eed0 f   tinyxml.obj
 0001:0001df30       ?Child@TiXmlHandle@@QBE?AV1@H@Z 1001ef30 f   tinyxml.obj
 0001:0001df70       ?Child@TiXmlHandle@@QBE?AV1@PBDH@Z 1001ef70 f   tinyxml.obj
 0001:0001dfc0       ?ChildElement@TiXmlHandle@@QBE?AV1@H@Z 1001efc0 f   tinyxml.obj
 0001:0001e060       ?ChildElement@TiXmlHandle@@QBE?AV1@PBDH@Z 1001f060 f   tinyxml.obj
 0001:0001e0b0       ?Clear@TiXmlNode@@QAEXXZ   1001f0b0 f   tinyxml.obj
 0001:0001e0e0       ?ClearThis@TiXmlElement@@IAEXXZ 1001f0e0 f   tinyxml.obj
 0001:0001e160       ?Clone@TiXmlComment@@UBEPAVTiXmlNode@@XZ 1001f160 f   tinyxml.obj
 0001:0001e200       ?Clone@TiXmlDeclaration@@UBEPAVTiXmlNode@@XZ 1001f200 f   tinyxml.obj
 0001:0001e2a0       ?Clone@TiXmlDocument@@MBEPAVTiXmlNode@@XZ 1001f2a0 f   tinyxml.obj
 0001:0001e330       ?Clone@TiXmlElement@@UBEPAVTiXmlNode@@XZ 1001f330 f   tinyxml.obj
 0001:0001e3c0       ?Clone@TiXmlText@@MBEPAVTiXmlNode@@XZ 1001f3c0 f   tinyxml.obj
 0001:0001e4d0       ?Clone@TiXmlUnknown@@UBEPAVTiXmlNode@@XZ 1001f4d0 f   tinyxml.obj
 0001:0001e570       ?CopyTo@TiXmlComment@@IBEXPAV1@@Z 1001f570 f   tinyxml.obj
 0001:0001e5b0       ?CopyTo@TiXmlDeclaration@@IBEXPAV1@@Z 1001f5b0 f   tinyxml.obj
 0001:0001e620       ?CopyTo@TiXmlDocument@@ABEXPAV1@@Z 1001f620 f   tinyxml.obj
 0001:0001e6b0       ?CopyTo@TiXmlElement@@IBEXPAV1@@Z 1001f6b0 f   tinyxml.obj
 0001:0001e740       ?CopyTo@TiXmlNode@@IBEXPAV1@@Z 1001f740 f   tinyxml.obj
 0001:0001e780       ?CopyTo@TiXmlText@@IBEXPAV1@@Z 1001f780 f   tinyxml.obj
 0001:0001e7c0       ?CopyTo@TiXmlUnknown@@IBEXPAV1@@Z 1001f7c0 f   tinyxml.obj
 0001:0001e800       ?DoubleValue@TiXmlAttribute@@QBENXZ 1001f800 f   tinyxml.obj
 0001:0001e810       ?EncodeString@TiXmlBase@@SAXABVTiXmlString@@PAV2@@Z 1001f810 f   tinyxml.obj
 0001:0001e950       ?Find@TiXmlAttributeSet@@QBEPBVTiXmlAttribute@@PBD@Z 1001f950 f   tinyxml.obj
 0001:0001e9c0       ?FirstChild@TiXmlHandle@@QBE?AV1@PBD@Z 1001f9c0 f   tinyxml.obj
 0001:0001e9f0       ?FirstChild@TiXmlHandle@@QBE?AV1@XZ 1001f9f0 f   tinyxml.obj
 0001:0001ea20       ?FirstChild@TiXmlNode@@QBEPBV1@PBD@Z 1001fa20 f   tinyxml.obj
 0001:0001ea80       ?FirstChildElement@TiXmlHandle@@QBE?AV1@PBD@Z 1001fa80 f   tinyxml.obj
 0001:0001eab0       ?FirstChildElement@TiXmlHandle@@QBE?AV1@XZ 1001fab0 f   tinyxml.obj
 0001:0001eb00       ?FirstChildElement@TiXmlNode@@QBEPBVTiXmlElement@@PBD@Z 1001fb00 f   tinyxml.obj
 0001:0001eb40       ?FirstChildElement@TiXmlNode@@QBEPBVTiXmlElement@@XZ 1001fb40 f   tinyxml.obj
 0001:0001eb70       ?GetDocument@TiXmlNode@@QBEPBVTiXmlDocument@@XZ 1001fb70 f   tinyxml.obj
 0001:0001eba0       ?GetText@TiXmlElement@@QBEPBDXZ 1001fba0 f   tinyxml.obj
 0001:0001ebc0       ?InsertAfterChild@TiXmlNode@@QAEPAV1@PAV1@ABV1@@Z 1001fbc0 f   tinyxml.obj
 0001:0001ec80       ?InsertBeforeChild@TiXmlNode@@QAEPAV1@PAV1@ABV1@@Z 1001fc80 f   tinyxml.obj
 0001:0001ed40       ?InsertEndChild@TiXmlNode@@QAEPAV1@ABV1@@Z 1001fd40 f   tinyxml.obj
 0001:0001ede0       ?IntValue@TiXmlAttribute@@QBEHXZ 1001fde0 f   tinyxml.obj
 0001:0001edf0       ?IterateChildren@TiXmlNode@@QBEPBV1@PBDPBV1@@Z 1001fdf0 f   tinyxml.obj
 0001:0001ee20       ?IterateChildren@TiXmlNode@@QBEPBV1@PBV1@@Z 1001fe20 f   tinyxml.obj
 0001:0001ee40       ?LastChild@TiXmlNode@@QBEPBV1@PBD@Z 1001fe40 f   tinyxml.obj
 0001:0001eea0       ?LinkEndChild@TiXmlNode@@QAEPAV1@PAV1@@Z 1001fea0 f   tinyxml.obj
 0001:0001ef50       ?LoadFile@TiXmlDocument@@QAE_NPAVi3FileStream@@W4TiXmlEncoding@@@Z 1001ff50 f   tinyxml.obj
 0001:0001f130       ?LoadFile@TiXmlDocument@@QAE_NPBDW4TiXmlEncoding@@@Z 10020130 f   tinyxml.obj
 0001:0001f230       ?LoadFile@TiXmlDocument@@QAE_NW4TiXmlEncoding@@@Z 10020230 f   tinyxml.obj
 0001:0001f250       ?Next@TiXmlAttribute@@QBEPBV1@XZ 10020250 f   tinyxml.obj
 0001:0001f270       ?NextSibling@TiXmlNode@@QBEPBV1@PBD@Z 10020270 f   tinyxml.obj
 0001:0001f2d0       ?NextSiblingElement@TiXmlNode@@QBEPBVTiXmlElement@@PBD@Z 100202d0 f   tinyxml.obj
 0001:0001f360       ?NextSiblingElement@TiXmlNode@@QBEPBVTiXmlElement@@XZ 10020360 f   tinyxml.obj
 0001:0001f390       ?Previous@TiXmlAttribute@@QBEPBV1@XZ 10020390 f   tinyxml.obj
 0001:0001f3b0       ?PreviousSibling@TiXmlNode@@QBEPBV1@PBD@Z 100203b0 f   tinyxml.obj
 0001:0001f410       ?Print@TiXmlAttribute@@QBEXPAVi3FileStream@@HPAVTiXmlString@@@Z 10020410 f   tinyxml.obj
 0001:0001f640       ?Print@TiXmlComment@@UBEXPAVi3FileStream@@H@Z 10020640 f   tinyxml.obj
 0001:0001f6e0       ?Print@TiXmlDeclaration@@UBEXPAVi3FileStream@@HPAVTiXmlString@@@Z 100206e0 f   tinyxml.obj
 0001:0001f8a0       ?Print@TiXmlDocument@@UBEXPAVi3FileStream@@H@Z 100208a0 f   tinyxml.obj
 0001:0001f8e0       ?Print@TiXmlElement@@UBEXPAVi3FileStream@@H@Z 100208e0 f   tinyxml.obj
 0001:0001fa90       ?Print@TiXmlText@@UBEXPAVi3FileStream@@H@Z 10020a90 f   tinyxml.obj
 0001:0001fbd0       ?Print@TiXmlUnknown@@UBEXPAVi3FileStream@@H@Z 10020bd0 f   tinyxml.obj
 0001:0001fc70       ?QueryDoubleAttribute@TiXmlElement@@QBEHPBDPAN@Z 10020c70 f   tinyxml.obj
 0001:0001fcb0       ?QueryDoubleValue@TiXmlAttribute@@QBEHPAN@Z 10020cb0 f   tinyxml.obj
 0001:0001fce0       ?QueryIntAttribute@TiXmlElement@@QBEHPBDPAH@Z 10020ce0 f   tinyxml.obj
 0001:0001fd20       ?QueryIntValue@TiXmlAttribute@@QBEHPAH@Z 10020d20 f   tinyxml.obj
 0001:0001fd50       ?Remove@TiXmlAttributeSet@@QAEXPAVTiXmlAttribute@@@Z 10020d50 f   tinyxml.obj
 0001:0001fda0       ?RemoveAttribute@TiXmlElement@@QAEXPBD@Z 10020da0 f   tinyxml.obj
 0001:0001fdd0       ?RemoveChild@TiXmlNode@@QAE_NPAV1@@Z 10020dd0 f   tinyxml.obj
 0001:0001fe20       ?ReplaceChild@TiXmlNode@@QAEPAV1@PAV1@ABV1@@Z 10020e20 f   tinyxml.obj
 0001:0001fea0       ?SaveFile@TiXmlDocument@@QAE_NPBD@Z 10020ea0 f   tinyxml.obj
 0001:0001ff00       ?SaveFile@TiXmlDocument@@QAE_NXZ 10020f00 f   tinyxml.obj
 0001:0001ff70       ?SaveFile@TiXmlDocument@@QBE_NPAVi3FileStream@@@Z 10020f70 f   tinyxml.obj
 0001:0001ffd0       ?SetAttribute@TiXmlElement@@QAEXPBD0@Z 10020fd0 f   tinyxml.obj
 0001:00020100       ?SetAttribute@TiXmlElement@@QAEXPBDH@Z 10021100 f   tinyxml.obj
 0001:00020150       ?SetAttribute@TiXmlElement@@QAEXPBDM@Z 10021150 f   tinyxml.obj
 0001:000201b0       ?SetDoubleAttribute@TiXmlElement@@QAEXPBDN@Z 100211b0 f   tinyxml.obj
 0001:00020210       ?SetDoubleValue@TiXmlAttribute@@QAEXN@Z 10021210 f   tinyxml.obj
 0001:00020280       ?SetIntValue@TiXmlAttribute@@QAEXH@Z 10021280 f   tinyxml.obj
 0001:000202e0       ?SetLongLongAttribute@TiXmlElement@@QAEXPBD_J@Z 100212e0 f   tinyxml.obj
 0001:00020330       ?TiXmlFOpen@@YAPAVi3FileStream@@PBDH@Z 10021330 f   tinyxml.obj
 0001:00020390       ?Visit@TiXmlPrinter@@UAE_NABVTiXmlComment@@@Z 10021390 f   tinyxml.obj
 0001:00020420       ?Visit@TiXmlPrinter@@UAE_NABVTiXmlDeclaration@@@Z 10021420 f   tinyxml.obj
 0001:00020480       ?Visit@TiXmlPrinter@@UAE_NABVTiXmlText@@@Z 10021480 f   tinyxml.obj
 0001:000205f0       ?Visit@TiXmlPrinter@@UAE_NABVTiXmlUnknown@@@Z 100215f0 f   tinyxml.obj
 0001:00020680       ?VisitEnter@TiXmlPrinter@@UAE_NABVTiXmlDocument@@@Z 10021680 f   tinyxml.obj
 0001:00020690       ?VisitEnter@TiXmlPrinter@@UAE_NABVTiXmlElement@@PBVTiXmlAttribute@@@Z 10021690 f   tinyxml.obj
 0001:000207a0       ?VisitExit@TiXmlPrinter@@UAE_NABVTiXmlDocument@@@Z 100217a0 f   tinyxml.obj
 0001:000207b0       ?VisitExit@TiXmlPrinter@@UAE_NABVTiXmlElement@@@Z 100217b0 f   tinyxml.obj
 0001:00020850       ___local_stdio_scanf_options 10021850 f i tinyxml.obj
 0001:00020860       _sscanf_s                  10021860 f i tinyxml.obj
 0001:00020890       ??0TiXmlParsingData@@AAE@PBDHHH@Z 10021890 f i tinyxmlparser.obj
 0001:000208b0       ??4TiXmlParsingData@@QAEAAV0@$$QAV0@@Z 100218b0 f i tinyxmlparser.obj
 0001:000208e0       ??4TiXmlParsingData@@QAEAAV0@ABV0@@Z 100218e0 f i tinyxmlparser.obj
 0001:00020910       ?Blank@TiXmlText@@IBE_NXZ  10021910 f   tinyxmlparser.obj
 0001:00020960       ?ConvertUTF32ToUTF8@TiXmlBase@@KAXKPADPAH@Z 10021960 f   tinyxmlparser.obj
 0001:00020a40       ?Cursor@TiXmlParsingData@@QAEABUTiXmlCursor@@XZ 10021a40 f i tinyxmlparser.obj
 0001:00020a50       ?GetEntity@TiXmlBase@@KAPBDPBDPADPAHW4TiXmlEncoding@@@Z 10021a50 f   tinyxmlparser.obj
 0001:00020c00       ?Identify@TiXmlNode@@IAEPAV1@PBDW4TiXmlEncoding@@@Z 10021c00 f   tinyxmlparser.obj
 0001:00020ee0       ?IsAlpha@TiXmlBase@@KAHEW4TiXmlEncoding@@@Z 10021ee0 f   tinyxmlparser.obj
 0001:00020f00       ?IsAlphaNum@TiXmlBase@@KAHEW4TiXmlEncoding@@@Z 10021f00 f   tinyxmlparser.obj
 0001:00020f20       ?Parse@TiXmlAttribute@@UAEPBDPBDPAVTiXmlParsingData@@W4TiXmlEncoding@@@Z 10021f20 f   tinyxmlparser.obj
 0001:00021230       ?Parse@TiXmlComment@@UAEPBDPBDPAVTiXmlParsingData@@W4TiXmlEncoding@@@Z 10022230 f   tinyxmlparser.obj
 0001:00021380       ?Parse@TiXmlDeclaration@@UAEPBDPBDPAVTiXmlParsingData@@W4TiXmlEncoding@@@Z 10022380 f   tinyxmlparser.obj
 0001:00021870       ?Parse@TiXmlDocument@@UAEPBDPBDPAVTiXmlParsingData@@W4TiXmlEncoding@@@Z 10022870 f   tinyxmlparser.obj
 0001:00021af0       ?Parse@TiXmlElement@@UAEPBDPBDPAVTiXmlParsingData@@W4TiXmlEncoding@@@Z 10022af0 f   tinyxmlparser.obj
 0001:000220b0       ?Parse@TiXmlText@@UAEPBDPBDPAVTiXmlParsingData@@W4TiXmlEncoding@@@Z 100230b0 f   tinyxmlparser.obj
 0001:000222d0       ?Parse@TiXmlUnknown@@UAEPBDPBDPAVTiXmlParsingData@@W4TiXmlEncoding@@@Z 100232d0 f   tinyxmlparser.obj
 0001:00022430       ?ReadName@TiXmlBase@@KAPBDPBDPAVTiXmlString@@W4TiXmlEncoding@@@Z 10023430 f   tinyxmlparser.obj
 0001:000224c0       ?ReadText@TiXmlBase@@KAPBDPBDPAVTiXmlString@@_N02W4TiXmlEncoding@@@Z 100234c0 f   tinyxmlparser.obj
 0001:000226c0       ?ReadValue@TiXmlElement@@IAEPBDPBDPAVTiXmlParsingData@@W4TiXmlEncoding@@@Z 100236c0 f   tinyxmlparser.obj
 0001:00022930       ?SetError@TiXmlDocument@@QAEXHPBDPAVTiXmlParsingData@@W4TiXmlEncoding@@@Z 10023930 f   tinyxmlparser.obj
 0001:000229a0       ?SkipWhiteSpace@TiXmlBase@@KAPBDPBDW4TiXmlEncoding@@@Z 100239a0 f   tinyxmlparser.obj
 0001:00022a70       ?Stamp@TiXmlParsingData@@QAEXPBDW4TiXmlEncoding@@@Z 10023a70 f   tinyxmlparser.obj
 0001:00022c60       ?StringEqual@TiXmlBase@@KA_NPBD0_NW4TiXmlEncoding@@@Z 10023c60 f   tinyxmlparser.obj
 0001:00022ce0       ??0i3Timer@@QAE@ABV0@@Z    10023ce0 f i i3CPUID.obj
 0001:00022d30       ??4i3Timer@@QAEAAV0@ABV0@@Z 10023d30 f i i3CPUID.obj
 0001:00022d70       ??_Ei3Timer@@UAEPAXI@Z     10023d70 f i i3CPUID.obj
 0001:00022e30       ??_Gi3Timer@@UAEPAXI@Z     10023e30 f i i3CPUID.obj
 0001:00022e70       ?GetClassMeta@i3Timer@@SAPAVi3ClassMeta@@XZ 10023e70 f i i3CPUID.obj
 0001:00022e80       ?IsCPUID@@YAHXZ            10023e80 f   i3CPUID.obj
 0001:00022e90       ?_os_support@@YAHH@Z       10023e90 f   i3CPUID.obj
 0001:00022ea0       ?calculateMHz@@YAIXZ       10023ea0 f   i3CPUID.obj
 0001:00022eb0       ?i3CPUid@@YAHPAU_tagi3ProcessorInfo@@@Z 10023eb0 f   i3CPUID.obj
 0001:00022ec0       ?map_mname@@YAXHHPBDPAD@Z  10023ec0 f   i3CPUID.obj
 0001:000233a0       ?AllocGame@i3mem@@YAPAXHHHPBDH@Z 100243a0 f   i3Memory.obj
 0001:00023550       ?AllocTool@i3mem@@YAPAXHHHPBDH@Z 10024550 f   i3Memory.obj
 0001:000235a0       ?CompactGame@i3mem@@YAXXZ  100245a0 f   i3Memory.obj
 0001:000236d0       ?CompactTool@i3mem@@YAXXZ  100246d0 f   i3Memory.obj
 0001:000236f0       ?Create@i3mem@@YAXHHPAD@Z  100246f0 f   i3Memory.obj
 0001:00023800       ?Destroy@i3mem@@YAXXZ      10024800 f   i3Memory.obj
 0001:00023850       ?Dump@i3mem@@YAXH@Z        10024850 f   i3Memory.obj
 0001:000239a0       ?Enum@i3mem@@YAXP6A_NPAUI3MEMBLOCK@@PAX@Z1@Z 100249a0 f   i3Memory.obj
 0001:000239e0       ?FreeGame@i3mem@@YAXPAXPBDH@Z 100249e0 f   i3Memory.obj
 0001:00023a90       ?FreeTool@i3mem@@YAXPAXPBDH@Z 10024a90 f   i3Memory.obj
 0001:00023ac0       ?GetAllocCount@i3mem@@YAHXZ 10024ac0 f   i3Memory.obj
 0001:00023ad0       ?GetAllocSize@i3mem@@YAIXZ 10024ad0 f   i3Memory.obj
 0001:00023ae0       ?GetState@i3mem@@YAHPAX@Z  10024ae0 f   i3Memory.obj
 0001:00023af0       ?ReallocGame@i3mem@@YAPAXPAXHHPBDH@Z 10024af0 f   i3Memory.obj
 0001:00023b60       ?ReallocTool@i3mem@@YAPAXPAXHHPBDH@Z 10024b60 f   i3Memory.obj
 0001:00023bb0       ?SetDumpEnable@i3mem@@YAXH@Z 10024bb0 f   i3Memory.obj
 0001:00023bc0       ?SetState@i3mem@@YAXPAX@Z  10024bc0 f   i3Memory.obj
 0001:00023bd0       ?i3MemoryInit@@YAXIPAD@Z   10024bd0 f   i3Memory.obj
 0001:00023c10       ?CreateInstance@?$i3MetaTemplate@Vi3Mutex@@@@UAEPAVi3ElementBase@@W4I3_CLASSMETA_TYPE@@@Z 10024c10 f i i3Mutex.obj
 0001:00023ce0       ?BindInstance@?$i3MetaTemplate@Vi3Mutex@@@@UAEPAVi3ElementBase@@PAXW4I3_CLASSMETA_TYPE@@@Z 10024ce0 f i i3Mutex.obj
 0001:00023d90       ??_E?$i3MetaTemplate@Vi3Mutex@@@@UAEPAXI@Z 10024d90 f i i3Mutex.obj
 0001:00023d90       ??_G?$i3MetaTemplate@Vi3Mutex@@@@UAEPAXI@Z 10024d90 f i i3Mutex.obj
 0001:00023dc0       ??0?$i3MetaTemplate@Vi3Mutex@@@@QAE@IPAD0W4I3_CLASSMETA_TYPE@@@Z 10024dc0 f i i3Mutex.obj
 0001:00023df0       ??0i3Monitor2@@QAE@PAVi3Mutex2@@@Z 10024df0 f   i3Mutex.obj
 0001:00023e10       ??0i3Mutex2@@QAE@XZ        10024e10 f   i3Mutex.obj
 0001:00023e20       ??0i3Mutex@@QAE@XZ         10024e20 f   i3Mutex.obj
 0001:00023e50       ??1i3Monitor2@@QAE@XZ      10024e50 f   i3Mutex.obj
 0001:00023e60       ??1i3Mutex2@@QAE@XZ        10024e60 f   i3Mutex.obj
 0001:00023e70       ??1i3Mutex@@UAE@XZ         10024e70 f   i3Mutex.obj
 0001:00023e90       ?Enter@i3Mutex2@@QAEXXZ    10024e90 f   i3Mutex.obj
 0001:00023ea0       ?Enter@i3Mutex@@QAEXXZ     10024ea0 f   i3Mutex.obj
 0001:00023eb0       ?GetMeta@i3Mutex@@UAEPAVi3ClassMeta@@XZ 10024eb0 f   i3Mutex.obj
 0001:00023ec0       ?Leave@i3Mutex2@@QAEXXZ    10024ec0 f   i3Mutex.obj
 0001:00023ed0       ?Leave@i3Mutex@@QAEXXZ     10024ed0 f   i3Mutex.obj
 0001:00023ee0       ?RegisterMeta@i3Mutex@@SAXXZ 10024ee0 f   i3Mutex.obj
 0001:00023ef0       ?SetConcreteClass@i3Mutex@@SAXPAVi3ClassMeta@@@Z 10024ef0 f   i3Mutex.obj
 0001:00023f10       ?SetGhostClass@i3Mutex@@SAXPAVi3ClassMeta@@@Z 10024f10 f   i3Mutex.obj
 0001:00023f30       ?TryEnter@i3Mutex2@@QAEHXZ 10024f30 f   i3Mutex.obj
 0001:00023f40       ?TryEnter@i3Mutex@@QAEHXZ  10024f40 f   i3Mutex.obj
 0001:00023f50       ?_BindObject@i3Mutex@@SAPAV1@PAX@Z 10024f50 f   i3Mutex.obj
 0001:00023f70       ?_BindObjectByType@i3Mutex@@SAPAV1@PAXW4I3_CLASSMETA_TYPE@@@Z 10024f70 f   i3Mutex.obj
 0001:00023f90       ?_BindObjectRef@i3Mutex@@SAPAV1@PAX@Z 10024f90 f   i3Mutex.obj
 0001:00023fb0       ?_BindObjectRefByType@i3Mutex@@SAPAV1@PAXW4I3_CLASSMETA_TYPE@@@Z 10024fb0 f   i3Mutex.obj
 0001:00023fd0       ?_NewObject@i3Mutex@@SAPAV1@XZ 10024fd0 f   i3Mutex.obj
 0001:00023ff0       ?_NewObjectByType@i3Mutex@@SAPAV1@W4I3_CLASSMETA_TYPE@@@Z 10024ff0 f   i3Mutex.obj
 0001:00024010       ?_NewObjectRef@i3Mutex@@SAPAV1@XZ 10025010 f   i3Mutex.obj
 0001:00024020       ?_NewObjectRefByType@i3Mutex@@SAPAV1@W4I3_CLASSMETA_TYPE@@@Z 10025020 f   i3Mutex.obj
 0001:00024040       ?CreateInstance@?$i3MetaTemplate@Vi3Signal@@@@UAEPAVi3ElementBase@@W4I3_CLASSMETA_TYPE@@@Z 10025040 f i i3Signal.obj
 0001:00024110       ?BindInstance@?$i3MetaTemplate@Vi3Signal@@@@UAEPAVi3ElementBase@@PAXW4I3_CLASSMETA_TYPE@@@Z 10025110 f i i3Signal.obj
 0001:000241c0       ??_E?$i3MetaTemplate@Vi3Signal@@@@UAEPAXI@Z 100251c0 f i i3Signal.obj
 0001:000241c0       ??_G?$i3MetaTemplate@Vi3Signal@@@@UAEPAXI@Z 100251c0 f i i3Signal.obj
 0001:000241f0       ??0?$i3MetaTemplate@Vi3Signal@@@@QAE@IPAD0W4I3_CLASSMETA_TYPE@@@Z 100251f0 f i i3Signal.obj
 0001:00024220       ??0i3Signal@@QAE@ABV0@@Z   10025220 f i i3Signal.obj
 0001:00024250       ??0i3Signal@@QAE@XZ        10025250 f   i3Signal.obj
 0001:00024280       ??1i3Signal@@UAE@XZ        10025280 f   i3Signal.obj
 0001:000242b0       ??4i3Signal@@QAEAAV0@ABV0@@Z 100252b0 f i i3Signal.obj
 0001:000242e0       ??_Ei3Signal@@UAEPAXI@Z    100252e0 f i i3Signal.obj
 0001:000243b0       ??_Gi3Signal@@UAEPAXI@Z    100253b0 f i i3Signal.obj
 0001:00024410       ?Create@i3Signal@@QAE_N_N0@Z 10025410 f   i3Signal.obj
 0001:00024460       ?GetClassMeta@i3Signal@@SAPAVi3ClassMeta@@XZ 10025460 f i i3Signal.obj
 0001:00024470       ?GetMeta@i3Signal@@UAEPAVi3ClassMeta@@XZ 10025470 f   i3Signal.obj
 0001:00024480       ?Raise@i3Signal@@QAE_NXZ   10025480 f   i3Signal.obj
 0001:00024490       ?RegisterMeta@i3Signal@@SAXXZ 10025490 f   i3Signal.obj
 0001:000244a0       ?Reset@i3Signal@@QAE_NXZ   100254a0 f   i3Signal.obj
 0001:000244b0       ?SetConcreteClass@i3Signal@@SAXPAVi3ClassMeta@@@Z 100254b0 f   i3Signal.obj
 0001:000244d0       ?SetGhostClass@i3Signal@@SAXPAVi3ClassMeta@@@Z 100254d0 f   i3Signal.obj
 0001:000244f0       ?WaitFor@i3Signal@@QAE_NI@Z 100254f0 f   i3Signal.obj
 0001:00024520       ?_BindObject@i3Signal@@SAPAV1@PAX@Z 10025520 f   i3Signal.obj
 0001:00024540       ?_BindObjectByType@i3Signal@@SAPAV1@PAXW4I3_CLASSMETA_TYPE@@@Z 10025540 f   i3Signal.obj
 0001:00024560       ?_BindObjectRef@i3Signal@@SAPAV1@PAX@Z 10025560 f   i3Signal.obj
 0001:00024580       ?_BindObjectRefByType@i3Signal@@SAPAV1@PAXW4I3_CLASSMETA_TYPE@@@Z 10025580 f   i3Signal.obj
 0001:000245a0       ?_NewObject@i3Signal@@SAPAV1@XZ 100255a0 f   i3Signal.obj
 0001:000245c0       ?_NewObjectByType@i3Signal@@SAPAV1@W4I3_CLASSMETA_TYPE@@@Z 100255c0 f   i3Signal.obj
 0001:000245e0       ?_NewObjectRef@i3Signal@@SAPAV1@XZ 100255e0 f   i3Signal.obj
 0001:000245f0       ?_NewObjectRefByType@i3Signal@@SAPAV1@W4I3_CLASSMETA_TYPE@@@Z 100255f0 f   i3Signal.obj
 0001:00024610       ?getEventObject@i3Signal@@QAEPAXXZ 10025610 f i i3Signal.obj
 0001:00024620       ?AddTerminateProc@i3System@@YAXHP6AHPAX@Z0@Z 10025620 f   i3System.obj
 0001:000246b0       ?Benchmark_FLOPS@i3System@@YAHHHM@Z 100256b0 f   i3System.obj
 0001:000246d0       ?CheckCPUName@i3System@@YAHPAD@Z 100256d0 f   i3System.obj
 0001:00024710       ?DisableInterrupt@i3System@@YAXXZ 10025710 f   i3System.obj
 0001:00024720       ?EnableInterrupt@i3System@@YAXXZ 10025720 f   i3System.obj
 0001:00024730       ?GetCPUInfo@i3System@@YAXPAD@Z 10025730 f   i3System.obj
 0001:000247e0       ?GetCurrentPath@i3System@@YAXPADH@Z 100257e0 f   i3System.obj
 0001:00024800       ?GetDXInfo@i3System@@YAXPAD@Z 10025800 f   i3System.obj
 0001:000248f0       ?GetDrive@i3System@@YAHPBDPADH@Z 100258f0 f   i3System.obj
 0001:00024930       ?GetDrive@i3System@@YAHPBGPAGH@Z 10025930 f   i3System.obj
 0001:00024980       ?GetExecPath@i3System@@YAXPAD@Z 10025980 f   i3System.obj
 0001:000249e0       ?GetGPUInfo@i3System@@YAXPAD@Z 100259e0 f   i3System.obj
 0001:00024bd0       ?GetMemoryInfo@i3System@@YAXPAD@Z 10025bd0 f   i3System.obj
 0001:00024c60       ?GetMultiMediaInfo@i3System@@YAXPAD@Z 10025c60 f   i3System.obj
 0001:00024c70       ?GetOSInfo@i3System@@YAXPAD@Z 10025c70 f   i3System.obj
 0001:00024dd0       ?GetProcessList@i3System@@YAXPAD@Z 10025dd0 f   i3System.obj
 0001:00024f10       ?GetRealFilename@i3System@@YAHPBDPAD@Z 10025f10 f   i3System.obj
 0001:00024fc0       ?IsDirectory@i3System@@YAHPBD@Z 10025fc0 f   i3System.obj
 0001:00025020       ?IsDirectory@i3System@@YAHPBG@Z 10026020 f   i3System.obj
 0001:00025080       ?IsFile@i3System@@YAHPBD@Z 10026080 f   i3System.obj
 0001:000250a0       ?LookForFiles@i3System@@YAHPBD0P6AHHPADPAX2@Z2I@Z 100260a0 f   i3System.obj
 0001:00025130       ?PrepareDirectory@i3System@@YAHPAD@Z 10026130 f   i3System.obj
 0001:00025280       ?PrepareDirectory@i3System@@YAHPAG@Z 10026280 f   i3System.obj
 0001:000253e0       ?RemoveFile@i3System@@YAHPBD@Z 100263e0 f   i3System.obj
 0001:000253f0       ?RemoveTerminateProc@i3System@@YAXP6AHPAX@Z@Z 100263f0 f   i3System.obj
 0001:00025460       ?RenameFile@i3System@@YAHPBD0@Z 10026460 f   i3System.obj
 0001:00025480       ?ResolvePath@i3System@@YAXPBDPADH@Z 10026480 f   i3System.obj
 0001:00025550       ?SendMailBugReport@i3System@@YAXPAD0@Z 10026550 f   i3System.obj
 0001:00025740       ?SetCurrentPath@i3System@@YAXPBD@Z 10026740 f   i3System.obj
 0001:00025750       ?SetFPUPrecision@i3System@@YAIW4I3_FPU_PRECISION@@@Z 10026750 f   i3System.obj
 0001:00025790       ?TerminateSys@i3System@@YAXXZ 10026790 f   i3System.obj
 0001:000259d0       ?isAbsolutePath@i3System@@YA_NPBD@Z 100269d0 f   i3System.obj
 0001:000259e0       ?CreateInstance@?$i3MetaTemplate@Vi3Thread@@@@UAEPAVi3ElementBase@@W4I3_CLASSMETA_TYPE@@@Z 100269e0 f i i3Thread.obj
 0001:00025ac0       ?BindInstance@?$i3MetaTemplate@Vi3Thread@@@@UAEPAVi3ElementBase@@PAXW4I3_CLASSMETA_TYPE@@@Z 10026ac0 f i i3Thread.obj
 0001:00025b60       ??_E?$i3MetaTemplate@Vi3Thread@@@@UAEPAXI@Z 10026b60 f i i3Thread.obj
 0001:00025b60       ??_G?$i3MetaTemplate@Vi3Thread@@@@UAEPAXI@Z 10026b60 f i i3Thread.obj
 0001:00025b90       ??0?$i3MetaTemplate@Vi3Thread@@@@QAE@IPAD0W4I3_CLASSMETA_TYPE@@@Z 10026b90 f i i3Thread.obj
 0001:00025bc0       ??0i3Thread@@QAE@XZ        10026bc0 f   i3Thread.obj
 0001:00025c20       ??1i3Thread@@UAE@XZ        10026c20 f   i3Thread.obj
 0001:00025c80       ?AfterRunning@i3Thread@@UAEXPAX@Z 10026c80 f   i3Thread.obj
 0001:00025c90       ?BeforeRunning@i3Thread@@UAEXPAX@Z 10026c90 f   i3Thread.obj
 0001:00025ca0       ?Create@i3Thread@@UAEHPADIIPAXH@Z 10026ca0 f   i3Thread.obj
 0001:00025d00       ?GetMeta@i3Thread@@UAEPAVi3ClassMeta@@XZ 10026d00 f   i3Thread.obj
 0001:00025d10       ?RegisterMeta@i3Thread@@SAXXZ 10026d10 f   i3Thread.obj
 0001:00025d20       ?Resume@i3Thread@@UAEHXZ   10026d20 f   i3Thread.obj
 0001:00025d30       ?SetConcreteClass@i3Thread@@SAXPAVi3ClassMeta@@@Z 10026d30 f   i3Thread.obj
 0001:00025d50       ?SetGhostClass@i3Thread@@SAXPAVi3ClassMeta@@@Z 10026d50 f   i3Thread.obj
 0001:00025d70       ?SetPriority@i3Thread@@UAEHH@Z 10026d70 f   i3Thread.obj
 0001:00025df0       ?Suspend@i3Thread@@UAEHXZ  10026df0 f   i3Thread.obj
 0001:00025e00       ?Terminate@i3Thread@@UAEH_N@Z 10026e00 f   i3Thread.obj
 0001:00025e40       ?WaitForFinish@i3Thread@@UAEIXZ 10026e40 f   i3Thread.obj
 0001:00025e50       ?_BindObject@i3Thread@@SAPAV1@PAX@Z 10026e50 f   i3Thread.obj
 0001:00025e70       ?_BindObjectByType@i3Thread@@SAPAV1@PAXW4I3_CLASSMETA_TYPE@@@Z 10026e70 f   i3Thread.obj
 0001:00025e90       ?_BindObjectRef@i3Thread@@SAPAV1@PAX@Z 10026e90 f   i3Thread.obj
 0001:00025eb0       ?_BindObjectRefByType@i3Thread@@SAPAV1@PAXW4I3_CLASSMETA_TYPE@@@Z 10026eb0 f   i3Thread.obj
 0001:00025f10       ?_NewObject@i3Thread@@SAPAV1@XZ 10026f10 f   i3Thread.obj
 0001:00025f30       ?_NewObjectByType@i3Thread@@SAPAV1@W4I3_CLASSMETA_TYPE@@@Z 10026f30 f   i3Thread.obj
 0001:00025f50       ?_NewObjectRef@i3Thread@@SAPAV1@XZ 10026f50 f   i3Thread.obj
 0001:00025f60       ?_NewObjectRefByType@i3Thread@@SAPAV1@W4I3_CLASSMETA_TYPE@@@Z 10026f60 f   i3Thread.obj
 0001:00025f80       ?CreateInstance@?$i3MetaTemplate@Vi3Timer@@@@UAEPAVi3ElementBase@@W4I3_CLASSMETA_TYPE@@@Z 10026f80 f i i3Timer.obj
 0001:00026050       ?BindInstance@?$i3MetaTemplate@Vi3Timer@@@@UAEPAVi3ElementBase@@PAXW4I3_CLASSMETA_TYPE@@@Z 10027050 f i i3Timer.obj
 0001:00026100       ??_E?$i3MetaTemplate@Vi3Timer@@@@UAEPAXI@Z 10027100 f i i3Timer.obj
 0001:00026100       ??_G?$i3MetaTemplate@Vi3Timer@@@@UAEPAXI@Z 10027100 f i i3Timer.obj
 0001:00026130       ??0?$i3MetaTemplate@Vi3Timer@@@@QAE@IPAD0W4I3_CLASSMETA_TYPE@@@Z 10027130 f i i3Timer.obj
 0001:00026160       ??0i3Timer@@QAE@XZ         10027160 f   i3Timer.obj
 0001:00026190       ??1i3Timer@@UAE@XZ         10027190 f   i3Timer.obj
 0001:000261a0       ?GetDeltaSec@i3Timer@@QAEMXZ 100271a0 f   i3Timer.obj
 0001:00026200       ?GetMeta@i3Timer@@UAEPAVi3ClassMeta@@XZ 10027200 f   i3Timer.obj
 0001:00026210       ?GetPerformanceTime@i3Timer@@SA_JXZ 10027210 f   i3Timer.obj
 0001:00026240       ?GetProfileResolution@i3Timer@@SANXZ 10027240 f   i3Timer.obj
 0001:00026290       ?GetProfileTime@i3Timer@@SA_JXZ 10027290 f   i3Timer.obj
 0001:000262b0       ?RegisterMeta@i3Timer@@SAXXZ 100272b0 f   i3Timer.obj
 0001:000262c0       ?SetConcreteClass@i3Timer@@SAXPAVi3ClassMeta@@@Z 100272c0 f   i3Timer.obj
 0001:000262e0       ?SetGhostClass@i3Timer@@SAXPAVi3ClassMeta@@@Z 100272e0 f   i3Timer.obj
 0001:00026300       ?Sleep@i3Timer@@SAXI@Z     10027300 f   i3Timer.obj
 0001:00026310       ?_BindObject@i3Timer@@SAPAV1@PAX@Z 10027310 f   i3Timer.obj
 0001:00026330       ?_BindObjectByType@i3Timer@@SAPAV1@PAXW4I3_CLASSMETA_TYPE@@@Z 10027330 f   i3Timer.obj
 0001:00026350       ?_BindObjectRef@i3Timer@@SAPAV1@PAX@Z 10027350 f   i3Timer.obj
 0001:00026370       ?_BindObjectRefByType@i3Timer@@SAPAV1@PAXW4I3_CLASSMETA_TYPE@@@Z 10027370 f   i3Timer.obj
 0001:00026390       ?_NewObject@i3Timer@@SAPAV1@XZ 10027390 f   i3Timer.obj
 0001:000263b0       ?_NewObjectByType@i3Timer@@SAPAV1@W4I3_CLASSMETA_TYPE@@@Z 100273b0 f   i3Timer.obj
 0001:000263d0       ?_NewObjectRef@i3Timer@@SAPAV1@XZ 100273d0 f   i3Timer.obj
 0001:000263e0       ?_NewObjectRefByType@i3Timer@@SAPAV1@W4I3_CLASSMETA_TYPE@@@Z 100273e0 f   i3Timer.obj
 0001:00026400       ?CalcFLOPS_Linpack@@YANHHM@Z 10027400 f   Linpack.obj
 0001:00026e10       ?daxpy@@YAXHMQAMH0H@Z      10027e10 f   Linpack.obj
 0001:00026f20       ?ddot@@YAMHQAMH0H@Z        10027f20 f   Linpack.obj
 0001:00027070       ?dgefa@@YAXQAMHHQAHPAH@Z   10028070 f   Linpack.obj
 0001:000272e0       ?dgesl@@YAXQAMHHQAH0H@Z    100282e0 f   Linpack.obj
 0001:000274f0       ?dmxpy@@YAXHQAMHH00@Z      100284f0 f   Linpack.obj
 0001:00027990       ?dscal@@YAXHMQAMH@Z        10028990 f   Linpack.obj
 0001:00027a90       ?end_time@@YANXZ           10028a90 f   Linpack.obj
 0001:00027ae0       ?epslon@@YAMM@Z            10028ae0 f   Linpack.obj
 0001:00027b00       ?idamax@@YAHHQAMH@Z        10028b00 f   Linpack.obj
 0001:00027be0       ?matgen@@YAXQAMHH0PAM@Z    10028be0 f   Linpack.obj
 0001:00027d40       ?start_time@@YAXXZ         10028d40 f   Linpack.obj
 0001:00027d50       ?CreateInstance@?$i3AbstractMetaTemplate@Vi3Stream@@@@UAEPAVi3ElementBase@@W4I3_CLASSMETA_TYPE@@@Z 10028d50 f i i3Stream.obj
 0001:00027d70       ?BindInstance@?$i3AbstractMetaTemplate@Vi3Stream@@@@UAEPAVi3ElementBase@@PAXW4I3_CLASSMETA_TYPE@@@Z 10028d70 f i i3Stream.obj
 0001:00027d90       ??_E?$i3AbstractMetaTemplate@Vi3Stream@@@@UAEPAXI@Z 10028d90 f i i3Stream.obj
 0001:00027d90       ??_G?$i3AbstractMetaTemplate@Vi3Stream@@@@UAEPAXI@Z 10028d90 f i i3Stream.obj
 0001:00027dc0       ??0?$i3AbstractMetaTemplate@Vi3Stream@@@@QAE@IPAD0W4I3_CLASSMETA_TYPE@@@Z 10028dc0 f i i3Stream.obj
 0001:00027df0       ??0i3Stream@@QAE@XZ        10028df0 f   i3Stream.obj
 0001:00027e30       ??1i3Stream@@UAE@XZ        10028e30 f   i3Stream.obj
 0001:00027e40       ?CopyFrom@i3Stream@@UAEIPAV1@I@Z 10028e40 f   i3Stream.obj
 0001:00027f20       ?CopyTo@i3Stream@@UAEIPAV1@I@Z 10028f20 f   i3Stream.obj
 0001:00028000       ?GetMeta@i3Stream@@UAEPAVi3ClassMeta@@XZ 10029000 f   i3Stream.obj
 0001:00028010       ?Printf@i3Stream@@UAAIPADPBDZZ 10029010 f   i3Stream.obj
 0001:00028050       ?ReadLine@i3Stream@@UAEIPADH@Z 10029050 f   i3Stream.obj
 0001:000280b0       ?ReadLineW@i3Stream@@UAEIPAGH@Z 100290b0 f   i3Stream.obj
 0001:00028130       ?RegisterMeta@i3Stream@@SAXXZ 10029130 f   i3Stream.obj
 0001:00028140       ?SetConcreteClass@i3Stream@@SAXPAVi3ClassMeta@@@Z 10029140 f   i3Stream.obj
 0001:00028160       ?SetGhostClass@i3Stream@@SAXPAVi3ClassMeta@@@Z 10029160 f   i3Stream.obj
 0001:00028180       ?WriteLine@i3Stream@@UAEIPBD@Z 10029180 f   i3Stream.obj
 0001:000281b0       ?WriteLineW@i3Stream@@UAEIPBG@Z 100291b0 f   i3Stream.obj
 0001:000281e0       ?_BindObject@i3Stream@@SAPAV1@PAX@Z 100291e0 f   i3Stream.obj
 0001:00028200       ?_BindObjectByType@i3Stream@@SAPAV1@PAXW4I3_CLASSMETA_TYPE@@@Z 10029200 f   i3Stream.obj
 0001:00028220       ?_BindObjectRef@i3Stream@@SAPAV1@PAX@Z 10029220 f   i3Stream.obj
 0001:00028240       ?_BindObjectRefByType@i3Stream@@SAPAV1@PAXW4I3_CLASSMETA_TYPE@@@Z 10029240 f   i3Stream.obj
 0001:00028260       ?_NewObject@i3Stream@@SAPAV1@XZ 10029260 f   i3Stream.obj
 0001:00028280       ?_NewObjectByType@i3Stream@@SAPAV1@W4I3_CLASSMETA_TYPE@@@Z 10029280 f   i3Stream.obj
 0001:000282a0       ?_NewObjectRef@i3Stream@@SAPAV1@XZ 100292a0 f   i3Stream.obj
 0001:000282b0       ?_NewObjectRefByType@i3Stream@@SAPAV1@W4I3_CLASSMETA_TYPE@@@Z 100292b0 f   i3Stream.obj
 0001:000282d0       ?CreateInstance@?$i3MetaTemplate@Vi3FileStream@@@@UAEPAVi3ElementBase@@W4I3_CLASSMETA_TYPE@@@Z 100292d0 f i i3StreamFile.obj
 0001:000283b0       ?BindInstance@?$i3MetaTemplate@Vi3FileStream@@@@UAEPAVi3ElementBase@@PAXW4I3_CLASSMETA_TYPE@@@Z 100293b0 f i i3StreamFile.obj
 0001:00028450       ??_E?$i3MetaTemplate@Vi3FileStream@@@@UAEPAXI@Z 10029450 f i i3StreamFile.obj
 0001:00028450       ??_G?$i3MetaTemplate@Vi3FileStream@@@@UAEPAXI@Z 10029450 f i i3StreamFile.obj
 0001:00028480       ??0?$i3MetaTemplate@Vi3FileStream@@@@QAE@IPAD0W4I3_CLASSMETA_TYPE@@@Z 10029480 f i i3StreamFile.obj
 0001:000284b0       ??0i3FileStream@@QAE@XZ    100294b0 f   i3StreamFile.obj
 0001:00028500       ??1i3FileStream@@UAE@XZ    10029500 f   i3StreamFile.obj
 0001:00028550       ?CalculateSize@i3FileStream@@QAEIXZ 10029550 f   i3StreamFile.obj
 0001:00028560       ?Close@i3FileStream@@UAEHXZ 10029560 f   i3StreamFile.obj
 0001:000285c0       ?Create@i3FileStream@@UAEHPBDHI@Z 100295c0 f   i3StreamFile.obj
 0001:000286c0       ?FromHandle@i3FileStream@@SAPAV1@PAX@Z 100296c0 f   i3StreamFile.obj
 0001:00028720       ?GetMeta@i3FileStream@@UAEPAVi3ClassMeta@@XZ 10029720 f   i3StreamFile.obj
 0001:00028730       ?GetPosition@i3FileStream@@UAEIXZ 10029730 f   i3StreamFile.obj
 0001:00028740       ?Open@i3FileStream@@UAEHPBDHI@Z 10029740 f   i3StreamFile.obj
 0001:00028900       ?Read@i3FileStream@@UAEIPAXH@Z 10029900 f   i3StreamFile.obj
 0001:000289b0       ?RegisterMeta@i3FileStream@@SAXXZ 100299b0 f   i3StreamFile.obj
 0001:000289c0       ?SetConcreteClass@i3FileStream@@SAXPAVi3ClassMeta@@@Z 100299c0 f   i3StreamFile.obj
 0001:000289e0       ?SetGhostClass@i3FileStream@@SAXPAVi3ClassMeta@@@Z 100299e0 f   i3StreamFile.obj
 0001:00028a00       ?SetPosition@i3FileStream@@UAEIHH@Z 10029a00 f   i3StreamFile.obj
 0001:00028a80       ?Write@i3FileStream@@UAEIPBXH@Z 10029a80 f   i3StreamFile.obj
 0001:00028b50       ?_BindObject@i3FileStream@@SAPAV1@PAX@Z 10029b50 f   i3StreamFile.obj
 0001:00028b70       ?_BindObjectByType@i3FileStream@@SAPAV1@PAXW4I3_CLASSMETA_TYPE@@@Z 10029b70 f   i3StreamFile.obj
 0001:00028b90       ?_BindObjectRef@i3FileStream@@SAPAV1@PAX@Z 10029b90 f   i3StreamFile.obj
 0001:00028bb0       ?_BindObjectRefByType@i3FileStream@@SAPAV1@PAXW4I3_CLASSMETA_TYPE@@@Z 10029bb0 f   i3StreamFile.obj
 0001:00028bd0       ?_NewObject@i3FileStream@@SAPAV1@XZ 10029bd0 f   i3StreamFile.obj
 0001:00028bf0       ?_NewObjectByType@i3FileStream@@SAPAV1@W4I3_CLASSMETA_TYPE@@@Z 10029bf0 f   i3StreamFile.obj
 0001:00028c10       ?_NewObjectRef@i3FileStream@@SAPAV1@XZ 10029c10 f   i3StreamFile.obj
 0001:00028c20       ?_NewObjectRefByType@i3FileStream@@SAPAV1@W4I3_CLASSMETA_TYPE@@@Z 10029c20 f   i3StreamFile.obj
 0001:00028c40       ?isFile@i3FileStream@@SA_NPBD@Z 10029c40 f   i3StreamFile.obj
 0001:00028c70       ?CreateInstance@?$i3MetaTemplate@Vi3AsyncFileStream@@@@UAEPAVi3ElementBase@@W4I3_CLASSMETA_TYPE@@@Z 10029c70 f i i3StreamFileAsync.obj
 0001:00028d50       ?BindInstance@?$i3MetaTemplate@Vi3AsyncFileStream@@@@UAEPAVi3ElementBase@@PAXW4I3_CLASSMETA_TYPE@@@Z 10029d50 f i i3StreamFileAsync.obj
 0001:00028df0       ??_E?$i3MetaTemplate@Vi3AsyncFileStream@@@@UAEPAXI@Z 10029df0 f i i3StreamFileAsync.obj
 0001:00028df0       ??_G?$i3MetaTemplate@Vi3AsyncFileStream@@@@UAEPAXI@Z 10029df0 f i i3StreamFileAsync.obj
 0001:00028e20       ??0?$i3MetaTemplate@Vi3AsyncFileStream@@@@QAE@IPAD0W4I3_CLASSMETA_TYPE@@@Z 10029e20 f i i3StreamFileAsync.obj
 0001:00028e50       ??0i3AsyncFileStream@@QAE@ABV0@@Z 10029e50 f i i3StreamFileAsync.obj
 0001:00028ed0       ??0i3AsyncFileStream@@QAE@XZ 10029ed0 f   i3StreamFileAsync.obj
 0001:00028f20       ??1i3AsyncFileStream@@UAE@XZ 10029f20 f   i3StreamFileAsync.obj
 0001:00028f30       ??4i3AsyncFileStream@@QAEAAV0@ABV0@@Z 10029f30 f i i3StreamFileAsync.obj
 0001:00028fa0       ??_Ei3AsyncFileStream@@UAEPAXI@Z 10029fa0 f i i3StreamFileAsync.obj
 0001:00029060       ??_Gi3AsyncFileStream@@UAEPAXI@Z 1002a060 f i i3StreamFileAsync.obj
 0001:000290b0       ?CancelIO@i3AsyncFileStream@@QAE_NXZ 1002a0b0 f   i3StreamFileAsync.obj
 0001:000290c0       ?Close@i3AsyncFileStream@@UAEHXZ 1002a0c0 f   i3StreamFileAsync.obj
 0001:000290f0       ?Create@i3AsyncFileStream@@UAEHPBDHI@Z 1002a0f0 f   i3StreamFileAsync.obj
 0001:00029100       ?GetClassMeta@i3AsyncFileStream@@SAPAVi3ClassMeta@@XZ 1002a100 f i i3StreamFileAsync.obj
 0001:00029110       ?GetMeta@i3AsyncFileStream@@UAEPAVi3ClassMeta@@XZ 1002a110 f   i3StreamFileAsync.obj
 0001:00029120       ?GetPosition@i3AsyncFileStream@@UAEIXZ 1002a120 f   i3StreamFileAsync.obj
 0001:00029130       ?HasFinished@i3AsyncFileStream@@QAE_NXZ 1002a130 f   i3StreamFileAsync.obj
 0001:00029140       ?Open@i3AsyncFileStream@@UAEHPBDHI@Z 1002a140 f   i3StreamFileAsync.obj
 0001:00029150       ?Read@i3AsyncFileStream@@UAEIPAXH@Z 1002a150 f   i3StreamFileAsync.obj
 0001:00029200       ?RegisterMeta@i3AsyncFileStream@@SAXXZ 1002a200 f   i3StreamFileAsync.obj
 0001:00029210       ?SetConcreteClass@i3AsyncFileStream@@SAXPAVi3ClassMeta@@@Z 1002a210 f   i3StreamFileAsync.obj
 0001:00029230       ?SetGhostClass@i3AsyncFileStream@@SAXPAVi3ClassMeta@@@Z 1002a230 f   i3StreamFileAsync.obj
 0001:00029250       ?SetPosition@i3AsyncFileStream@@UAEIHH@Z 1002a250 f   i3StreamFileAsync.obj
 0001:000292a0       ?WaitCompletion@i3AsyncFileStream@@QAE_NXZ 1002a2a0 f   i3StreamFileAsync.obj
 0001:000292d0       ?Write@i3AsyncFileStream@@UAEIPBXH@Z 1002a2d0 f   i3StreamFileAsync.obj
 0001:00029360       ?_BindObject@i3AsyncFileStream@@SAPAV1@PAX@Z 1002a360 f   i3StreamFileAsync.obj
 0001:00029380       ?_BindObjectByType@i3AsyncFileStream@@SAPAV1@PAXW4I3_CLASSMETA_TYPE@@@Z 1002a380 f   i3StreamFileAsync.obj
 0001:000293a0       ?_BindObjectRef@i3AsyncFileStream@@SAPAV1@PAX@Z 1002a3a0 f   i3StreamFileAsync.obj
 0001:000293c0       ?_BindObjectRefByType@i3AsyncFileStream@@SAPAV1@PAXW4I3_CLASSMETA_TYPE@@@Z 1002a3c0 f   i3StreamFileAsync.obj
 0001:000293e0       ?_NewObject@i3AsyncFileStream@@SAPAV1@XZ 1002a3e0 f   i3StreamFileAsync.obj
 0001:00029400       ?_NewObjectByType@i3AsyncFileStream@@SAPAV1@W4I3_CLASSMETA_TYPE@@@Z 1002a400 f   i3StreamFileAsync.obj
 0001:00029420       ?_NewObjectRef@i3AsyncFileStream@@SAPAV1@XZ 1002a420 f   i3StreamFileAsync.obj
 0001:00029430       ?_NewObjectRefByType@i3AsyncFileStream@@SAPAV1@W4I3_CLASSMETA_TYPE@@@Z 1002a430 f   i3StreamFileAsync.obj
 0001:00029450       ?CreateInstance@?$i3MetaTemplate@Vi3MemStream@@@@UAEPAVi3ElementBase@@W4I3_CLASSMETA_TYPE@@@Z 1002a450 f i i3StreamMem.obj
 0001:00029520       ?BindInstance@?$i3MetaTemplate@Vi3MemStream@@@@UAEPAVi3ElementBase@@PAXW4I3_CLASSMETA_TYPE@@@Z 1002a520 f i i3StreamMem.obj
 0001:000295e0       ??_E?$i3MetaTemplate@Vi3MemStream@@@@UAEPAXI@Z 1002a5e0 f i i3StreamMem.obj
 0001:000295e0       ??_G?$i3MetaTemplate@Vi3MemStream@@@@UAEPAXI@Z 1002a5e0 f i i3StreamMem.obj
 0001:00029610       ??0?$i3MetaTemplate@Vi3MemStream@@@@QAE@IPAD0W4I3_CLASSMETA_TYPE@@@Z 1002a610 f i i3StreamMem.obj
 0001:00029640       ??0i3MemStream@@QAE@ABV0@@Z 1002a640 f i i3StreamMem.obj
 0001:000296a0       ??0i3MemStream@@QAE@XZ     1002a6a0 f   i3StreamMem.obj
 0001:000296d0       ??1i3MemStream@@UAE@XZ     1002a6d0 f   i3StreamMem.obj
 0001:00029750       ??4i3MemStream@@QAEAAV0@ABV0@@Z 1002a750 f i i3StreamMem.obj
 0001:000297a0       ??_Ei3MemStream@@UAEPAXI@Z 1002a7a0 f i i3StreamMem.obj
 0001:000298a0       ??_Gi3MemStream@@UAEPAXI@Z 1002a8a0 f i i3StreamMem.obj
 0001:00029960       ?Close@i3MemStream@@UAEHXZ 1002a960 f   i3StreamMem.obj
 0001:000299b0       ?Create@i3MemStream@@UAEHPBDHI@Z 1002a9b0 f   i3StreamMem.obj
 0001:00029a20       ?CreateFromFile@i3MemStream@@SAPAV1@PBD@Z 1002aa20 f   i3StreamMem.obj
 0001:00029b20       ?FromHandle@i3MemStream@@SAPAV1@PAX@Z 1002ab20 f   i3StreamMem.obj
 0001:00029b70       ?GetClassMeta@i3MemStream@@SAPAVi3ClassMeta@@XZ 1002ab70 f i i3StreamMem.obj
 0001:00029b80       ?GetMeta@i3MemStream@@UAEPAVi3ClassMeta@@XZ 1002ab80 f   i3StreamMem.obj
 0001:00029b90       ?GetPosition@i3MemStream@@UAEIXZ 1002ab90 f   i3StreamMem.obj
 0001:00029ba0       ?Open@i3MemStream@@UAEHPBDHI@Z 1002aba0 f   i3StreamMem.obj
 0001:00029bb0       ?Read@i3MemStream@@UAEIPAXH@Z 1002abb0 f   i3StreamMem.obj
 0001:00029c10       ?RegisterMeta@i3MemStream@@SAXXZ 1002ac10 f   i3StreamMem.obj
 0001:00029c20       ?SetConcreteClass@i3MemStream@@SAXPAVi3ClassMeta@@@Z 1002ac20 f   i3StreamMem.obj
 0001:00029c40       ?SetGhostClass@i3MemStream@@SAXPAVi3ClassMeta@@@Z 1002ac40 f   i3StreamMem.obj
 0001:00029c60       ?SetPosition@i3MemStream@@UAEIHH@Z 1002ac60 f   i3StreamMem.obj
 0001:00029ca0       ?Write@i3MemStream@@UAEIPBXH@Z 1002aca0 f   i3StreamMem.obj
 0001:00029d10       ?_BindObject@i3MemStream@@SAPAV1@PAX@Z 1002ad10 f   i3StreamMem.obj
 0001:00029d30       ?_BindObjectByType@i3MemStream@@SAPAV1@PAXW4I3_CLASSMETA_TYPE@@@Z 1002ad30 f   i3StreamMem.obj
 0001:00029d50       ?_BindObjectRef@i3MemStream@@SAPAV1@PAX@Z 1002ad50 f   i3StreamMem.obj
 0001:00029d70       ?_BindObjectRefByType@i3MemStream@@SAPAV1@PAXW4I3_CLASSMETA_TYPE@@@Z 1002ad70 f   i3StreamMem.obj
 0001:00029d90       ?_NewObject@i3MemStream@@SAPAV1@XZ 1002ad90 f   i3StreamMem.obj
 0001:00029db0       ?_NewObjectByType@i3MemStream@@SAPAV1@W4I3_CLASSMETA_TYPE@@@Z 1002adb0 f   i3StreamMem.obj
 0001:00029dd0       ?_NewObjectRef@i3MemStream@@SAPAV1@XZ 1002add0 f   i3StreamMem.obj
 0001:00029de0       ?_NewObjectRefByType@i3MemStream@@SAPAV1@W4I3_CLASSMETA_TYPE@@@Z 1002ade0 f   i3StreamMem.obj
 0001:00029e00       ?CreateInstance@?$i3MetaTemplate@Vi3NullStream@@@@UAEPAVi3ElementBase@@W4I3_CLASSMETA_TYPE@@@Z 1002ae00 f i i3StreamNull.obj
 0001:00029ed0       ?BindInstance@?$i3MetaTemplate@Vi3NullStream@@@@UAEPAVi3ElementBase@@PAXW4I3_CLASSMETA_TYPE@@@Z 1002aed0 f i i3StreamNull.obj
 0001:00029f80       ??_E?$i3MetaTemplate@Vi3NullStream@@@@UAEPAXI@Z 1002af80 f i i3StreamNull.obj
 0001:00029f80       ??_G?$i3MetaTemplate@Vi3NullStream@@@@UAEPAXI@Z 1002af80 f i i3StreamNull.obj
 0001:00029fb0       ??0?$i3MetaTemplate@Vi3NullStream@@@@QAE@IPAD0W4I3_CLASSMETA_TYPE@@@Z 1002afb0 f i i3StreamNull.obj
 0001:00029fe0       ??0i3NullStream@@QAE@ABV0@@Z 1002afe0 f i i3StreamNull.obj
 0001:0002a040       ??0i3NullStream@@QAE@XZ    1002b040 f   i3StreamNull.obj
 0001:0002a070       ??1i3NullStream@@UAE@XZ    1002b070 f   i3StreamNull.obj
 0001:0002a080       ??4i3NullStream@@QAEAAV0@ABV0@@Z 1002b080 f i i3StreamNull.obj
 0001:0002a0d0       ??_Ei3NullStream@@UAEPAXI@Z 1002b0d0 f i i3StreamNull.obj
 0001:0002a190       ??_Gi3NullStream@@UAEPAXI@Z 1002b190 f i i3StreamNull.obj
 0001:0002a1d0       ?Close@i3NullStream@@UAEHXZ 1002b1d0 f   i3StreamNull.obj
 0001:0002a1e0       ?Create@i3NullStream@@UAEHPBDHI@Z 1002b1e0 f   i3StreamNull.obj
 0001:0002a1f0       ?GetClassMeta@i3NullStream@@SAPAVi3ClassMeta@@XZ 1002b1f0 f i i3StreamNull.obj
 0001:0002a200       ?GetMeta@i3NullStream@@UAEPAVi3ClassMeta@@XZ 1002b200 f   i3StreamNull.obj
 0001:0002a210       ?GetPosition@i3NullStream@@UAEIXZ 1002b210 f   i3StreamNull.obj
 0001:0002a220       ?Open@i3NullStream@@UAEHPBDHI@Z 1002b220 f   i3StreamNull.obj
 0001:0002a230       ?Read@i3NullStream@@UAEIPAXH@Z 1002b230 f   i3StreamNull.obj
 0001:0002a250       ?RegisterMeta@i3NullStream@@SAXXZ 1002b250 f   i3StreamNull.obj
 0001:0002a260       ?SetConcreteClass@i3NullStream@@SAXPAVi3ClassMeta@@@Z 1002b260 f   i3StreamNull.obj
 0001:0002a280       ?SetGhostClass@i3NullStream@@SAXPAVi3ClassMeta@@@Z 1002b280 f   i3StreamNull.obj
 0001:0002a2a0       ?SetPosition@i3NullStream@@UAEIHH@Z 1002b2a0 f   i3StreamNull.obj
 0001:0002a2e0       ?Write@i3NullStream@@UAEIPBXH@Z 1002b2e0 f   i3StreamNull.obj
 0001:0002a300       ?_BindObject@i3NullStream@@SAPAV1@PAX@Z 1002b300 f   i3StreamNull.obj
 0001:0002a320       ?_BindObjectByType@i3NullStream@@SAPAV1@PAXW4I3_CLASSMETA_TYPE@@@Z 1002b320 f   i3StreamNull.obj
 0001:0002a340       ?_BindObjectRef@i3NullStream@@SAPAV1@PAX@Z 1002b340 f   i3StreamNull.obj
 0001:0002a360       ?_BindObjectRefByType@i3NullStream@@SAPAV1@PAXW4I3_CLASSMETA_TYPE@@@Z 1002b360 f   i3StreamNull.obj
 0001:0002a380       ?_NewObject@i3NullStream@@SAPAV1@XZ 1002b380 f   i3StreamNull.obj
 0001:0002a3a0       ?_NewObjectByType@i3NullStream@@SAPAV1@W4I3_CLASSMETA_TYPE@@@Z 1002b3a0 f   i3StreamNull.obj
 0001:0002a3c0       ?_NewObjectRef@i3NullStream@@SAPAV1@XZ 1002b3c0 f   i3StreamNull.obj
 0001:0002a3d0       ?_NewObjectRefByType@i3NullStream@@SAPAV1@W4I3_CLASSMETA_TYPE@@@Z 1002b3d0 f   i3StreamNull.obj
 0001:0002a3f0       ??0inst_memory_mgr@detail_inst@i3@@QAE@XZ 1002b3f0 f   inst_memory_mgr.obj
 0001:0002a4f0       ??1?$hash_table@V?$HashTableNode_Unique@U?$pair@QBVtype_info@@Vshared_inst@detail_inst@i3@@@i3@@V?$heap_allocator@U?$pair@PBVtype_info@@Vshared_inst@detail_inst@i3@@@i3@@@2@@i3@@U?$hash@PBVtype_info@@@2@U?$equal_to@PBVtype_info@@@2@@i3@@QAE@XZ 1002b4f0 f i inst_memory_mgr.obj
 0001:0002a570       ??1inst_memory_mgr@detail_inst@i3@@QAE@XZ 1002b570 f   inst_memory_mgr.obj
 0001:0002a580       ??$create@V?$vector@P6AXXZV?$allocator@P6AXXZ@i3@@@i3@@@shared_inst@detail_inst@i3@@SA?AV012@XZ 1002b580 f i init_custom_memory.obj
 0001:0002a5c0       ??$create@Vstatic_large_object_cache@i3@@@shared_inst@detail_inst@i3@@SA?AV012@XZ 1002b5c0 f i init_custom_memory.obj
 0001:0002a600       ??$create_inst@V?$vector@P6AXXZV?$allocator@P6AXXZ@i3@@@i3@@@inst_memory_mgr@detail_inst@i3@@QAEPAV?$vector@P6AXXZV?$allocator@P6AXXZ@i3@@@2@XZ 1002b600 f i init_custom_memory.obj
 0001:0002a6a0       ??$create_inst@Vstatic_large_object_cache@i3@@@inst_memory_mgr@detail_inst@i3@@QAEPAVstatic_large_object_cache@2@XZ 1002b6a0 f i init_custom_memory.obj
 0001:0002a730       ??$delete_inst@V?$vector@P6AXXZV?$allocator@P6AXXZ@i3@@@i3@@@inst_memory_mgr@detail_inst@i3@@QAEXXZ 1002b730 f i init_custom_memory.obj
 0001:0002a7c0       ??$delete_inst@Vstatic_large_object_cache@i3@@@inst_memory_mgr@detail_inst@i3@@QAEXXZ 1002b7c0 f i init_custom_memory.obj
 0001:0002a840       ??$find_inst@V?$vector@P6AXXZV?$allocator@P6AXXZ@i3@@@i3@@@inst_memory_mgr@detail_inst@i3@@QAEPAV?$vector@P6AXXZV?$allocator@P6AXXZ@i3@@@2@XZ 1002b840 f i init_custom_memory.obj
 0001:0002a880       ??$release@V?$vector@P6AXXZV?$allocator@P6AXXZ@i3@@@i3@@@shared_inst@detail_inst@i3@@QAEXXZ 1002b880 f i init_custom_memory.obj
 0001:0002a8d0       ??$release@Vstatic_large_object_cache@i3@@@shared_inst@detail_inst@i3@@QAEXXZ 1002b8d0 f i init_custom_memory.obj
 0001:0002a910       ?_create@?$ginst@Vstatic_large_object_cache@i3@@@i3@@CAPAVstatic_large_object_cache@2@XZ 1002b910 f i init_custom_memory.obj
 0001:0002a930       ?_destroy@?$ginst@Vstatic_large_object_cache@i3@@@i3@@CAXXZ 1002b930 f i init_custom_memory.obj
 0001:0002a950       ?cleanup_memory_exit@detail@i3@@YAXXZ 1002b950 f   init_custom_memory.obj
 0001:0002a9e0       ?delayed_atexit@i3@@YAHP6AXXZ@Z 1002b9e0 f   init_custom_memory.obj
 0001:0002aa60       ?erase@?$hash_table@V?$HashTableNode_Unique@U?$pair@QBVtype_info@@Vshared_inst@detail_inst@i3@@@i3@@V?$heap_allocator@U?$pair@PBVtype_info@@Vshared_inst@detail_inst@i3@@@i3@@@2@@i3@@U?$hash@PBVtype_info@@@2@U?$equal_to@PBVtype_info@@@2@@i3@@QAE?AViterator@?$HashTableValue@V?$HashTableNode_Unique@U?$pair@QBVtype_info@@Vshared_inst@detail_inst@i3@@@i3@@V?$heap_allocator@U?$pair@PBVtype_info@@Vshared_inst@detail_inst@i3@@@i3@@@2@@i3@@@2@Vconst_iterator@42@@Z 1002ba60 f i init_custom_memory.obj
 0001:0002aae0       ?init_custom_memory@i3@@YAXXZ 1002bae0 f   init_custom_memory.obj
 0001:0002ab00       ?insert_1@?$vector@P6AXXZV?$allocator@P6AXXZ@i3@@@i3@@AAEXPBQ6AXXZABQ6AXXZ@Z 1002bb00 f i init_custom_memory.obj
 0001:0002ad10       ??0counter_cleanup@static_large_object_cache@i3@@QAE@XZ 1002bd10 f i large_object_cache.obj
 0001:0002ad20       ??0large_object_cache_base@i3@@IAE@XZ 1002bd20 f   large_object_cache.obj
 0001:0002ad40       ??0mem_stack_lock_free@i3@@QAE@XZ 1002bd40 f i large_object_cache.obj
 0001:0002ad50       ??0static_large_object_cache@i3@@QAE@XZ 1002bd50 f   large_object_cache.obj
 0001:0002adc0       ??1large_object_cache_base@i3@@IAE@XZ 1002bdc0 f   large_object_cache.obj
 0001:0002add0       ??1static_large_object_cache@i3@@QAE@XZ 1002bdd0 f   large_object_cache.obj
 0001:0002ae90       ??_H@YGXPAXIIP6EPAX0@Z@Z   1002be90 f i large_object_cache.obj
 0001:0002aec0       ?allocate@static_large_object_cache@i3@@QAEPAXI@Z 1002bec0 f   large_object_cache.obj
 0001:0002af90       ?allocate_from_malloc@large_object_cache_base@i3@@IAEPAXII@Z 1002bf90 f   large_object_cache.obj
 0001:0002afc0       ?cleanup_if_old@static_large_object_cache@i3@@AAEXJ@Z 1002bfc0 f   large_object_cache.obj
 0001:0002b010       ?cleanup_stack@large_object_cache_base@i3@@IAEXAAVmem_stack_lock_free@2@@Z 1002c010 f   large_object_cache.obj
 0001:0002b090       ?deallocate@static_large_object_cache@i3@@QAEXPAX@Z 1002c090 f   large_object_cache.obj
 0001:0002b0f0       ?pop@mem_stack_lock_free@i3@@QAEPAXXZ 1002c0f0 f i large_object_cache.obj
 0001:0002b160       ??0pool_base@i3@@IAE@I@Z   1002c160 f   pool_base.obj
 0001:0002b180       ??1pool_base@i3@@IAE@XZ    1002c180 f   pool_base.obj
 0001:0002b190       ?allocate_from_active_blocks@detail@i3@@YAPAXAAPAUmem_block_header@2@@Z 1002c190 f   pool_base.obj
 0001:0002b260       ?allocate_from_alloc_ptr@detail@i3@@YAPAXPAUmem_block_header@2@@Z 1002c260 f   pool_base.obj
 0001:0002b2a0       ?allocate_from_block@detail@i3@@YAPAXPAUmem_block_header@2@@Z 1002c2a0 f   pool_base.obj
 0001:0002b2f0       ?allocate_from_freelist@detail@i3@@YAPAXPAUmem_block_header@2@@Z 1002c2f0 f   pool_base.obj
 0001:0002b310       ?allocate_from_tss_blocks@detail@i3@@YAPAXAAPAUmem_block_header@2@PAUtss_free_block_by_size@2@@Z 1002c310 f   pool_base.obj
 0001:0002b3e0       ?clean_up@pool_base@i3@@IAEXK@Z 1002c3e0 f   pool_base.obj
 0001:0002b400       ?deallocate_other_thread@detail@i3@@YAXPAUtss_free_block_by_size@2@PAUmem_block_header@2@PAX@Z 1002c400 f   pool_base.obj
 0001:0002b470       ?deallocate_same_thread@detail@i3@@YAXAAPAUmem_block_header@2@0PAU32@PAX@Z 1002c470 f   pool_base.obj
 0001:0002b530       ?destroy_all@raw_memory_ctn@i3@@SAXKPAV12@@Z 1002c530 f i pool_base.obj
 0001:0002b590       ?get_new_block@pool_base@i3@@AAEPAUmem_block_header@2@KII@Z 1002c590 f   pool_base.obj
 0001:0002b600       ?get_raw_block@pool_base@i3@@AAEPAUmem_block_header@2@K@Z 1002c600 f   pool_base.obj
 0001:0002b630       ?malloc_raw_memory@pool_base@i3@@IAEXK@Z 1002c630 f   pool_base.obj
 0001:0002b6c0       ?process_restore_block_to_active@detail@i3@@YAXAAPAUmem_block_header@2@PAU32@@Z 1002c6c0 f   pool_base.obj
 0001:0002b730       ?process_return_block_to_free_block_list@detail@i3@@YAXAAPAUmem_block_header@2@0PAU32@@Z 1002c730 f   pool_base.obj
 0001:0002b770       ??0pool_by_thread@i3@@QAE@XZ 1002c770 f   pool_by_thread.obj
 0001:0002b7a0       ??1pool_by_thread@i3@@QAE@XZ 1002c7a0 f   pool_by_thread.obj
 0001:0002b840       ?allocate@pool_by_thread@i3@@QAEPAXII@Z 1002c840 f   pool_by_thread.obj
 0001:0002b8f0       ?deallocate@pool_by_thread@i3@@QAEXPAX@Z 1002c8f0 f   pool_by_thread.obj
 0001:0002b980       ?deallocate_other_thread@pool_by_thread@i3@@AAEXPAUmem_block_header@2@PAX@Z 1002c980 f i pool_by_thread.obj
 0001:0002b9b0       ?on_create_tls@pool_by_thread@i3@@QAEXXZ 1002c9b0 f   pool_by_thread.obj
 0001:0002ba30       ??0tls_mgr@detail_tls@i3@@QAE@XZ 1002ca30 f   tls_mgr.obj
 0001:0002baa0       ??1tls_mgr@detail_tls@i3@@QAE@XZ 1002caa0 f   tls_mgr.obj
 0001:0002bb80       ?OnProcessAttach@tls_mgr@detail_tls@i3@@QAEXXZ 1002cb80 f   tls_mgr.obj
 0001:0002bc80       ?OnProcessDetach@tls_mgr@detail_tls@i3@@QAEXXZ 1002cc80 f   tls_mgr.obj
 0001:0002bc90       ?OnThreadAttach@tls_mgr@detail_tls@i3@@QAEXXZ 1002cc90 f   tls_mgr.obj
 0001:0002bdf0       ?OnThreadDetach@tls_mgr@detail_tls@i3@@QAEXXZ 1002cdf0 f   tls_mgr.obj
 0001:0002be50       ?insert_1@?$vector@PAVthread_data@detail_tls@i3@@V?$heap_allocator@PAVthread_data@detail_tls@i3@@@3@@i3@@AAEXPBQAVthread_data@detail_tls@2@ABQAV342@@Z 1002ce50 f i tls_mgr.obj
 0001:0002c070       ?CreateInstance@?$i3MetaTemplate@Vi3Action@@@@UAEPAVi3ElementBase@@W4I3_CLASSMETA_TYPE@@@Z 1002d070 f i i3Action.obj
 0001:0002c150       ?BindInstance@?$i3MetaTemplate@Vi3Action@@@@UAEPAVi3ElementBase@@PAXW4I3_CLASSMETA_TYPE@@@Z 1002d150 f i i3Action.obj
 0001:0002c210       ??_E?$i3MetaTemplate@Vi3Action@@@@UAEPAXI@Z 1002d210 f i i3Action.obj
 0001:0002c210       ??_G?$i3MetaTemplate@Vi3Action@@@@UAEPAXI@Z 1002d210 f i i3Action.obj
 0001:0002c240       ??0?$i3MetaTemplate@Vi3Action@@@@QAE@IPAD0W4I3_CLASSMETA_TYPE@@@Z 1002d240 f i i3Action.obj
 0001:0002c270       ??0i3Action@@QAE@ABV0@@Z   1002d270 f i i3Action.obj
 0001:0002c2e0       ??0i3Action@@QAE@XZ        1002d2e0 f   i3Action.obj
 0001:0002c310       ??0i3EventReceiver@@QAE@$$QAV0@@Z 1002d310 f i i3Action.obj
 0001:0002c360       ??0i3EventReceiver@@QAE@ABV0@@Z 1002d360 f i i3Action.obj
 0001:0002c3b0       ??0i3EventReceiver@@QAE@XZ 1002d3b0 f i i3Action.obj
 0001:0002c3d0       ??1i3Action@@UAE@XZ        1002d3d0 f   i3Action.obj
 0001:0002c3e0       ??1i3EventReceiver@@UAE@XZ 1002d3e0 f i i3Action.obj
 0001:0002c3f0       ??4i3Action@@QAEAAV0@ABV0@@Z 1002d3f0 f i i3Action.obj
 0001:0002c450       ??4i3EventReceiver@@QAEAAV0@$$QAV0@@Z 1002d450 f i i3Action.obj
 0001:0002c490       ??4i3EventReceiver@@QAEAAV0@ABV0@@Z 1002d490 f i i3Action.obj
 0001:0002c4d0       ??_Ei3Action@@UAEPAXI@Z    1002d4d0 f i i3Action.obj
 0001:0002c590       ??_Ei3EventReceiver@@UAEPAXI@Z 1002d590 f i i3Action.obj
 0001:0002c650       ??_Gi3Action@@UAEPAXI@Z    1002d650 f i i3Action.obj
 0001:0002c6a0       ??_Gi3EventReceiver@@UAEPAXI@Z 1002d6a0 f i i3Action.obj
 0001:0002c6e0       ?GetClassMeta@i3Action@@SAPAVi3ClassMeta@@XZ 1002d6e0 f i i3Action.obj
 0001:0002c6f0       ?GetClassMeta@i3EventReceiver@@SAPAVi3ClassMeta@@XZ 1002d6f0 f i i3Action.obj
 0001:0002c700       ?GetInfoString@i3Action@@UAEXPAD_NH@Z 1002d700 f   i3Action.obj
 0001:0002c730       ?GetMeta@i3Action@@UAEPAVi3ClassMeta@@XZ 1002d730 f   i3Action.obj
 0001:0002c740       ?OnChangeTime@i3Action@@UAEXM@Z 1002d740 f   i3Action.obj
 0001:0002c750       ?OnEvent@i3Action@@UAEXPAVi3EventReceiver@@MW4I3_EVT_CODE@@@Z 1002d750 f   i3Action.obj
 0001:0002c760       ?OnLoad@i3Action@@UAEIPAVi3ResourceFile@@@Z 1002d760 f   i3Action.obj
 0001:0002c830       ?OnSave@i3Action@@UAEIPAVi3ResourceFile@@@Z 1002d830 f   i3Action.obj
 0001:0002c930       ?OnUpdate@i3Action@@UAEXM@Z 1002d930 f   i3Action.obj
 0001:0002c940       ?RegisterMeta@i3Action@@SAXXZ 1002d940 f   i3Action.obj
 0001:0002c950       ?SetConcreteClass@i3Action@@SAXPAVi3ClassMeta@@@Z 1002d950 f   i3Action.obj
 0001:0002c970       ?SetGhostClass@i3Action@@SAXPAVi3ClassMeta@@@Z 1002d970 f   i3Action.obj
 0001:0002c990       ?_BindObject@i3Action@@SAPAV1@PAX@Z 1002d990 f   i3Action.obj
 0001:0002c9b0       ?_BindObjectByType@i3Action@@SAPAV1@PAXW4I3_CLASSMETA_TYPE@@@Z 1002d9b0 f   i3Action.obj
 0001:0002c9d0       ?_BindObjectRef@i3Action@@SAPAV1@PAX@Z 1002d9d0 f   i3Action.obj
 0001:0002c9f0       ?_BindObjectRefByType@i3Action@@SAPAV1@PAXW4I3_CLASSMETA_TYPE@@@Z 1002d9f0 f   i3Action.obj
 0001:0002ca10       ?_NewObject@i3Action@@SAPAV1@XZ 1002da10 f   i3Action.obj
 0001:0002ca30       ?_NewObjectByType@i3Action@@SAPAV1@W4I3_CLASSMETA_TYPE@@@Z 1002da30 f   i3Action.obj
 0001:0002ca50       ?_NewObjectRef@i3Action@@SAPAV1@XZ 1002da50 f   i3Action.obj
 0001:0002ca60       ?_NewObjectRefByType@i3Action@@SAPAV1@W4I3_CLASSMETA_TYPE@@@Z 1002da60 f   i3Action.obj
 0001:0002ca80       ?addState@i3Action@@QAEXI@Z 1002da80 f i i3Action.obj
 0001:0002ca90       ?addStyle@i3Action@@QAEXI@Z 1002da90 f i i3Action.obj
 0001:0002caa0       ?getState@i3Action@@QAEIXZ 1002daa0 f i i3Action.obj
 0001:0002cab0       ?getStyle@i3Action@@QAEIXZ 1002dab0 f i i3Action.obj
 0001:0002cac0       ?removeState@i3Action@@QAEXI@Z 1002dac0 f i i3Action.obj
 0001:0002cae0       ?removeStyle@i3Action@@QAEXI@Z 1002dae0 f i i3Action.obj
 0001:0002cb00       ?setState@i3Action@@QAEXI@Z 1002db00 f i i3Action.obj
 0001:0002cb10       ?setStyle@i3Action@@QAEXI@Z 1002db10 f i i3Action.obj
 0001:0002cb20       ??0i3BinList@@QAE@ABV0@@Z  1002db20 f i i3BaseMeta.obj
 0001:0002cb50       ??0i3IniParser@@QAE@ABV0@@Z 1002db50 f i i3BaseMeta.obj
 0001:0002cc20       ??0i3LRUQueue@@QAE@ABV0@@Z 1002dc20 f i i3BaseMeta.obj
 0001:0002cca0       ??0i3LineLexer@@QAE@ABV0@@Z 1002dca0 f i i3BaseMeta.obj
 0001:0002ccf0       ??0i3MemoryBuffer@@QAE@ABV0@@Z 1002dcf0 f i i3BaseMeta.obj
 0001:0002cd70       ??0i3ObjectPool@@QAE@ABV0@@Z 1002dd70 f i i3BaseMeta.obj
 0001:0002cdc0       ??0i3PointerStack@@QAE@ABV0@@Z 1002ddc0 f i i3BaseMeta.obj
 0001:0002ce10       ??0i3SimpleLineLexer@@QAE@ABV0@@Z 1002de10 f i i3BaseMeta.obj
 0001:0002ce50       ??0i3StackMemoryPool@@QAE@ABV0@@Z 1002de50 f i i3BaseMeta.obj
 0001:0002cea0       ??0i3StringTable@@QAE@ABV0@@Z 1002dea0 f i i3BaseMeta.obj
 0001:0002cef0       ??0i3TimeEventGen@@QAE@ABV0@@Z 1002def0 f i i3BaseMeta.obj
 0001:0002cfc0       ??0i3TimeEventInfo@@QAE@ABV0@@Z 1002dfc0 f i i3BaseMeta.obj
 0001:0002d050       ??0i3ToolProgressCtrl@@QAE@ABV0@@Z 1002e050 f i i3BaseMeta.obj
 0001:0002d080       ??4i3BinList@@QAEAAV0@ABV0@@Z 1002e080 f i i3BaseMeta.obj
 0001:0002d0a0       ??4i3IniParser@@QAEAAV0@ABV0@@Z 1002e0a0 f i i3BaseMeta.obj
 0001:0002d190       ??4i3LRUQueue@@QAEAAV0@ABV0@@Z 1002e190 f i i3BaseMeta.obj
 0001:0002d1f0       ??4i3LineLexer@@QAEAAV0@ABV0@@Z 1002e1f0 f i i3BaseMeta.obj
 0001:0002d240       ??4i3MemoryBuffer@@QAEAAV0@ABV0@@Z 1002e240 f i i3BaseMeta.obj
 0001:0002d2a0       ??4i3ObjectPool@@QAEAAV0@ABV0@@Z 1002e2a0 f i i3BaseMeta.obj
 0001:0002d2e0       ??4i3PointerStack@@QAEAAV0@ABV0@@Z 1002e2e0 f i i3BaseMeta.obj
 0001:0002d320       ??4i3SimpleLineLexer@@QAEAAV0@ABV0@@Z 1002e320 f i i3BaseMeta.obj
 0001:0002d350       ??4i3StackMemoryPool@@QAEAAV0@ABV0@@Z 1002e350 f i i3BaseMeta.obj
 0001:0002d390       ??4i3StringTable@@QAEAAV0@ABV0@@Z 1002e390 f i i3BaseMeta.obj
 0001:0002d3e0       ??4i3TimeEventGen@@QAEAAV0@ABV0@@Z 1002e3e0 f i i3BaseMeta.obj
 0001:0002d490       ??4i3TimeEventInfo@@QAEAAV0@ABV0@@Z 1002e490 f i i3BaseMeta.obj
 0001:0002d510       ??4i3ToolProgressCtrl@@QAEAAV0@ABV0@@Z 1002e510 f i i3BaseMeta.obj
 0001:0002d530       ??_Ei3BinList@@UAEPAXI@Z   1002e530 f i i3BaseMeta.obj
 0001:0002d5e0       ??_Ei3IniParser@@UAEPAXI@Z 1002e5e0 f i i3BaseMeta.obj
 0001:0002d6a0       ??_Ei3LRUQueue@@UAEPAXI@Z  1002e6a0 f i i3BaseMeta.obj
 0001:0002d760       ??_Ei3LineLexer@@UAEPAXI@Z 1002e760 f i i3BaseMeta.obj
 0001:0002d820       ??_Ei3MemoryBuffer@@UAEPAXI@Z 1002e820 f i i3BaseMeta.obj
 0001:0002d8e0       ??_Ei3ObjectPool@@UAEPAXI@Z 1002e8e0 f i i3BaseMeta.obj
 0001:0002d9a0       ??_Ei3PointerStack@@UAEPAXI@Z 1002e9a0 f i i3BaseMeta.obj
 0001:0002da60       ??_Ei3SimpleLineLexer@@UAEPAXI@Z 1002ea60 f i i3BaseMeta.obj
 0001:0002db20       ??_Ei3StackMemoryPool@@UAEPAXI@Z 1002eb20 f i i3BaseMeta.obj
 0001:0002dbe0       ??_Ei3StringTable@@UAEPAXI@Z 1002ebe0 f i i3BaseMeta.obj
 0001:0002dca0       ??_Ei3TimeEventGen@@UAEPAXI@Z 1002eca0 f i i3BaseMeta.obj
 0001:0002dd60       ??_Ei3TimeEventInfo@@UAEPAXI@Z 1002ed60 f i i3BaseMeta.obj
 0001:0002de20       ??_Ei3ToolProgressCtrl@@UAEPAXI@Z 1002ee20 f i i3BaseMeta.obj
 0001:0002dee0       ??_Fi3BinList@@QAEXXZ      1002eee0 f i i3BaseMeta.obj
 0001:0002def0       ??_Fi3PointerStack@@QAEXXZ 1002eef0 f i i3BaseMeta.obj
 0001:0002df00       ??_Gi3BinList@@UAEPAXI@Z   1002ef00 f i i3BaseMeta.obj
 0001:0002df40       ??_Gi3IniParser@@UAEPAXI@Z 1002ef40 f i i3BaseMeta.obj
 0001:0002df80       ??_Gi3LRUQueue@@UAEPAXI@Z  1002ef80 f i i3BaseMeta.obj
 0001:0002dfc0       ??_Gi3LineLexer@@UAEPAXI@Z 1002efc0 f i i3BaseMeta.obj
 0001:0002e000       ??_Gi3MemoryBuffer@@UAEPAXI@Z 1002f000 f i i3BaseMeta.obj
 0001:0002e040       ??_Gi3ObjectPool@@UAEPAXI@Z 1002f040 f i i3BaseMeta.obj
 0001:0002e080       ??_Gi3PointerStack@@UAEPAXI@Z 1002f080 f i i3BaseMeta.obj
 0001:0002e0c0       ??_Gi3SimpleLineLexer@@UAEPAXI@Z 1002f0c0 f i i3BaseMeta.obj
 0001:0002e100       ??_Gi3StackMemoryPool@@UAEPAXI@Z 1002f100 f i i3BaseMeta.obj
 0001:0002e140       ??_Gi3StringTable@@UAEPAXI@Z 1002f140 f i i3BaseMeta.obj
 0001:0002e180       ??_Gi3TimeEventGen@@UAEPAXI@Z 1002f180 f i i3BaseMeta.obj
 0001:0002e1c0       ??_Gi3TimeEventInfo@@UAEPAXI@Z 1002f1c0 f i i3BaseMeta.obj
 0001:0002e200       ??_Gi3ToolProgressCtrl@@UAEPAXI@Z 1002f200 f i i3BaseMeta.obj
 0001:0002e240       ?Alloc@i3ObjectPool@@QAEPAVi3ElementBase@@XZ 1002f240 f i i3BaseMeta.obj
 0001:0002e270       ?Free@i3ObjectPool@@QAEXPAVi3ElementBase@@@Z 1002f270 f i i3BaseMeta.obj
 0001:0002e2d0       ?GetClassMeta@i3BinList@@SAPAVi3ClassMeta@@XZ 1002f2d0 f i i3BaseMeta.obj
 0001:0002e2e0       ?GetClassMeta@i3IniParser@@SAPAVi3ClassMeta@@XZ 1002f2e0 f i i3BaseMeta.obj
 0001:0002e2f0       ?GetClassMeta@i3LRUQueue@@SAPAVi3ClassMeta@@XZ 1002f2f0 f i i3BaseMeta.obj
 0001:0002e300       ?GetClassMeta@i3LineLexer@@SAPAVi3ClassMeta@@XZ 1002f300 f i i3BaseMeta.obj
 0001:0002e310       ?GetClassMeta@i3MemoryBuffer@@SAPAVi3ClassMeta@@XZ 1002f310 f i i3BaseMeta.obj
 0001:0002e320       ?GetClassMeta@i3ObjectPool@@SAPAVi3ClassMeta@@XZ 1002f320 f i i3BaseMeta.obj
 0001:0002e330       ?GetClassMeta@i3PointerStack@@SAPAVi3ClassMeta@@XZ 1002f330 f i i3BaseMeta.obj
 0001:0002e340       ?GetClassMeta@i3SimpleLineLexer@@SAPAVi3ClassMeta@@XZ 1002f340 f i i3BaseMeta.obj
 0001:0002e350       ?GetClassMeta@i3StackMemoryPool@@SAPAVi3ClassMeta@@XZ 1002f350 f i i3BaseMeta.obj
 0001:0002e360       ?GetClassMeta@i3StringTable@@SAPAVi3ClassMeta@@XZ 1002f360 f i i3BaseMeta.obj
 0001:0002e370       ?GetClassMeta@i3TimeEventGen@@SAPAVi3ClassMeta@@XZ 1002f370 f i i3BaseMeta.obj
 0001:0002e380       ?GetClassMeta@i3TimeEventInfo@@SAPAVi3ClassMeta@@XZ 1002f380 f i i3BaseMeta.obj
 0001:0002e390       ?GetClassMeta@i3ToolProgressCtrl@@SAPAVi3ClassMeta@@XZ 1002f390 f i i3BaseMeta.obj
 0001:0002e3a0       ?GetCompareProc@i3BinList@@QAEP6AHPAX0@ZXZ 1002f3a0 f i i3BaseMeta.obj
 0001:0002e3b0       ?GetCount@i3StringTable@@QAEIXZ 1002f3b0 f i i3BaseMeta.obj
 0001:0002e3c0       ?GetCurSectionName@i3IniParser@@QAEPBDXZ 1002f3c0 f i i3BaseMeta.obj
 0001:0002e3d0       ?GetEventIndex@i3TimeEventGen@@QAEHPAVi3TimeEventInfo@@@Z 1002f3d0 f i i3BaseMeta.obj
 0001:0002e3f0       ?GetFileName@i3IniParser@@QAEPBDXZ 1002f3f0 f i i3BaseMeta.obj
 0001:0002e400       ?GetFileNameExt@i3IniParser@@QAEPBDXZ 1002f400 f i i3BaseMeta.obj
 0001:0002e410       ?GetIndex@i3ObjectPool@@QAEHPAVi3ElementBase@@@Z 1002f410 f i i3BaseMeta.obj
 0001:0002e440       ?GetMasterString@i3LineLexer@@QAEPADXZ 1002f440 f i i3BaseMeta.obj
 0001:0002e450       ?GetSection@i3IniParser@@QAEPAUi3IniSectionInfo@@H@Z 1002f450 f i i3BaseMeta.obj
 0001:0002e480       ?GetSectionCount@i3IniParser@@QAEHXZ 1002f480 f i i3BaseMeta.obj
 0001:0002e490       ?GetSize@i3MemoryBuffer@@QAEIXZ 1002f490 f i i3BaseMeta.obj
 0001:0002e4a0       ?GetTempBuffer@i3IniParser@@QAEPADXZ 1002f4a0 f i i3BaseMeta.obj
 0001:0002e4b0       ?GetValueByIndex@i3IniParser@@QAEPAUi3IniValue@@H@Z 1002f4b0 f i i3BaseMeta.obj
 0001:0002e4d0       ?GetValueCount@i3IniParser@@QAEIXZ 1002f4d0 f i i3BaseMeta.obj
 0001:0002e4e0       ?IsEmpty@i3PointerStack@@QAE_NXZ 1002f4e0 f i i3BaseMeta.obj
 0001:0002e4f0       ?IsThereRoom@i3LRUQueue@@QAE_NXZ 1002f4f0 f i i3BaseMeta.obj
 0001:0002e500       ?SetCompareProc@i3BinList@@QAEXP6AHPAX0@Z@Z 1002f500 f i i3BaseMeta.obj
 0001:0002e510       ?addState@i3TimeEventInfo@@QAEXI@Z 1002f510 f i i3BaseMeta.obj
 0001:0002e520       ?getAction@i3TimeEventInfo@@QAEPAVi3Action@@XZ 1002f520 f i i3BaseMeta.obj
 0001:0002e530       ?getBuffer@i3MemoryBuffer@@QAEPAXXZ 1002f530 f i i3BaseMeta.obj
 0001:0002e540       ?getBuffer@i3PointerStack@@QAEPAXXZ 1002f540 f i i3BaseMeta.obj
 0001:0002e550       ?getCount@i3PointerStack@@QAEIXZ 1002f550 f i i3BaseMeta.obj
 0001:0002e560       ?getCurrentEvent@i3TimeEventGen@@QAEPAVi3TimeEventInfo@@XZ 1002f560 f i i3BaseMeta.obj
 0001:0002e580       ?getCurrentEventIndex@i3TimeEventGen@@QAEHXZ 1002f580 f i i3BaseMeta.obj
 0001:0002e590       ?getCurrentPosition@i3LineLexer@@QAEPADXZ 1002f590 f i i3BaseMeta.obj
 0001:0002e5a0       ?getDuration@i3TimeEventGen@@QAEMXZ 1002f5a0 f i i3BaseMeta.obj
 0001:0002e5b0       ?getDuration@i3TimeEventInfo@@QAEMXZ 1002f5b0 f i i3BaseMeta.obj
 0001:0002e5c0       ?getEvent@i3TimeEventGen@@QAEPAVi3TimeEventInfo@@H@Z 1002f5c0 f i i3BaseMeta.obj
 0001:0002e5e0       ?getEventCount@i3TimeEventGen@@QAEIXZ 1002f5e0 f i i3BaseMeta.obj
 0001:0002e5f0       ?getEventReceiver@i3TimeEventGen@@QAEPAVi3EventReceiver@@XZ 1002f5f0 f i i3BaseMeta.obj
 0001:0002e600       ?getLocalTime@i3TimeEventGen@@QAEMXZ 1002f600 f i i3BaseMeta.obj
 0001:0002e610       ?getParam@i3TimeEventInfo@@QAEIXZ 1002f610 f i i3BaseMeta.obj
 0001:0002e620       ?getStartTime@i3TimeEventInfo@@QAEMXZ 1002f620 f i i3BaseMeta.obj
 0001:0002e630       ?getState@i3TimeEventInfo@@QAEIXZ 1002f630 f i i3BaseMeta.obj
 0001:0002e640       ?getStyle@i3TimeEventGen@@QAEIXZ 1002f640 f i i3BaseMeta.obj
 0001:0002e650       ?getTop@i3PointerStack@@QAEPAXXZ 1002f650 f i i3BaseMeta.obj
 0001:0002e670       ?i3BaseRegisterMetas@@YAXXZ 1002f670 f   i3BaseMeta.obj
 0001:0002e760       ?isPointer@i3StackMemoryPool@@QAE_NPAX@Z 1002f760 f i i3BaseMeta.obj
 0001:0002e790       ?isStyle@i3TimeEventGen@@QAE_NI@Z 1002f790 f i i3BaseMeta.obj
 0001:0002e7b0       ?removeState@i3TimeEventInfo@@QAEXI@Z 1002f7b0 f i i3BaseMeta.obj
 0001:0002e7d0       ?setAction@i3TimeEventInfo@@QAEXPAVi3Action@@@Z 1002f7d0 f i i3BaseMeta.obj
 0001:0002e800       ?setCurrentEventIndex@i3TimeEventGen@@QAEXH@Z 1002f800 f i i3BaseMeta.obj
 0001:0002e810       ?setDuration@i3TimeEventGen@@QAEXM@Z 1002f810 f i i3BaseMeta.obj
 0001:0002e830       ?setDuration@i3TimeEventInfo@@QAEXM@Z 1002f830 f i i3BaseMeta.obj
 0001:0002e850       ?setEventReceiver@i3TimeEventGen@@QAEXPAVi3EventReceiver@@@Z 1002f850 f i i3BaseMeta.obj
 0001:0002e860       ?setLocalTime@i3TimeEventGen@@QAEXM@Z 1002f860 f i i3BaseMeta.obj
 0001:0002e880       ?setParam@i3TimeEventInfo@@QAEXI@Z 1002f880 f i i3BaseMeta.obj
 0001:0002e890       ?setStartTime@i3TimeEventInfo@@QAEXM@Z 1002f890 f i i3BaseMeta.obj
 0001:0002e8b0       ?setState@i3TimeEventInfo@@QAEXI@Z 1002f8b0 f i i3BaseMeta.obj
 0001:0002e8c0       ?setStyle@i3TimeEventGen@@QAEXI@Z 1002f8c0 f i i3BaseMeta.obj
 0001:0002e8d0       ?setTop@i3PointerStack@@QAEXPAX@Z 1002f8d0 f i i3BaseMeta.obj
 0001:0002e900       _DllMain@12                1002f900 f   i3BaseMeta.obj
 0001:0002e980       ?CreateInstance@?$i3MetaTemplate@Vi3ToolProgressCtrl@@@@UAEPAVi3ElementBase@@W4I3_CLASSMETA_TYPE@@@Z 1002f980 f i i3BaseUtil.obj
 0001:0002ea40       ?BindInstance@?$i3MetaTemplate@Vi3ToolProgressCtrl@@@@UAEPAVi3ElementBase@@PAXW4I3_CLASSMETA_TYPE@@@Z 1002fa40 f i i3BaseUtil.obj
 0001:0002eaf0       ??_E?$i3MetaTemplate@Vi3ToolProgressCtrl@@@@UAEPAXI@Z 1002faf0 f i i3BaseUtil.obj
 0001:0002eaf0       ??_G?$i3MetaTemplate@Vi3ToolProgressCtrl@@@@UAEPAXI@Z 1002faf0 f i i3BaseUtil.obj
 0001:0002eb20       ??0?$i3MetaTemplate@Vi3ToolProgressCtrl@@@@QAE@IPAD0W4I3_CLASSMETA_TYPE@@@Z 1002fb20 f i i3BaseUtil.obj
 0001:0002eb50       ??0i3ToolProgressCtrl@@QAE@XZ 1002fb50 f   i3BaseUtil.obj
 0001:0002eb70       ??1i3ToolProgressCtrl@@UAE@XZ 1002fb70 f   i3BaseUtil.obj
 0001:0002eb80       ?GetMeta@i3ToolProgressCtrl@@UAEPAVi3ClassMeta@@XZ 1002fb80 f   i3BaseUtil.obj
 0001:0002eb90       ?RegisterMeta@i3ToolProgressCtrl@@SAXXZ 1002fb90 f   i3BaseUtil.obj
 0001:0002eba0       ?SetConcreteClass@i3ToolProgressCtrl@@SAXPAVi3ClassMeta@@@Z 1002fba0 f   i3BaseUtil.obj
 0001:0002ebc0       ?SetGhostClass@i3ToolProgressCtrl@@SAXPAVi3ClassMeta@@@Z 1002fbc0 f   i3BaseUtil.obj
 0001:0002ebe0       ?SetPos@i3ToolProgressCtrl@@UAEXH@Z 1002fbe0 f   i3BaseUtil.obj
 0001:0002ebf0       ?SetRange@i3ToolProgressCtrl@@UAEXH@Z 1002fbf0 f   i3BaseUtil.obj
 0001:0002ec00       ?_BindObject@i3ToolProgressCtrl@@SAPAV1@PAX@Z 1002fc00 f   i3BaseUtil.obj
 0001:0002ec20       ?_BindObjectByType@i3ToolProgressCtrl@@SAPAV1@PAXW4I3_CLASSMETA_TYPE@@@Z 1002fc20 f   i3BaseUtil.obj
 0001:0002ec40       ?_BindObjectRef@i3ToolProgressCtrl@@SAPAV1@PAX@Z 1002fc40 f   i3BaseUtil.obj
 0001:0002ec60       ?_BindObjectRefByType@i3ToolProgressCtrl@@SAPAV1@PAXW4I3_CLASSMETA_TYPE@@@Z 1002fc60 f   i3BaseUtil.obj
 0001:0002ec80       ?_NewObject@i3ToolProgressCtrl@@SAPAV1@XZ 1002fc80 f   i3BaseUtil.obj
 0001:0002eca0       ?_NewObjectByType@i3ToolProgressCtrl@@SAPAV1@W4I3_CLASSMETA_TYPE@@@Z 1002fca0 f   i3BaseUtil.obj
 0001:0002ecc0       ?_NewObjectRef@i3ToolProgressCtrl@@SAPAV1@XZ 1002fcc0 f   i3BaseUtil.obj
 0001:0002ecd0       ?_NewObjectRefByType@i3ToolProgressCtrl@@SAPAV1@W4I3_CLASSMETA_TYPE@@@Z 1002fcd0 f   i3BaseUtil.obj
 0001:0002ecf0       ?CreateInstance@?$i3MetaTemplate@Vi3BinList@@@@UAEPAVi3ElementBase@@W4I3_CLASSMETA_TYPE@@@Z 1002fcf0 f i i3BinList.obj
 0001:0002edc0       ?BindInstance@?$i3MetaTemplate@Vi3BinList@@@@UAEPAVi3ElementBase@@PAXW4I3_CLASSMETA_TYPE@@@Z 1002fdc0 f i i3BinList.obj
 0001:0002ee70       ??_E?$i3MetaTemplate@Vi3BinList@@@@UAEPAXI@Z 1002fe70 f i i3BinList.obj
 0001:0002ee70       ??_G?$i3MetaTemplate@Vi3BinList@@@@UAEPAXI@Z 1002fe70 f i i3BinList.obj
 0001:0002eea0       ??0?$i3MetaTemplate@Vi3BinList@@@@QAE@IPAD0W4I3_CLASSMETA_TYPE@@@Z 1002fea0 f i i3BinList.obj
 0001:0002eed0       ??0i3BinList@@QAE@H@Z      1002fed0 f   i3BinList.obj
 0001:0002ef00       ??1i3BinList@@UAE@XZ       1002ff00 f   i3BinList.obj
 0001:0002ef10       ?Add@i3BinList@@UAEHPAX@Z  1002ff10 f   i3BinList.obj
 0001:0002ef40       ?FindItem@i3BinList@@UAEHPAX@Z 1002ff40 f   i3BinList.obj
 0001:0002efe0       ?GetAddPosition@i3BinList@@QBEHPAX@Z 1002ffe0 f   i3BinList.obj
 0001:0002f0a0       ?GetMeta@i3BinList@@UAEPAVi3ClassMeta@@XZ 100300a0 f   i3BinList.obj
 0001:0002f0b0       ?RegisterMeta@i3BinList@@SAXXZ 100300b0 f   i3BinList.obj
 0001:0002f0c0       ?SetConcreteClass@i3BinList@@SAXPAVi3ClassMeta@@@Z 100300c0 f   i3BinList.obj
 0001:0002f0e0       ?SetGhostClass@i3BinList@@SAXPAVi3ClassMeta@@@Z 100300e0 f   i3BinList.obj
 0001:0002f100       ?_BindObject@i3BinList@@SAPAV1@PAX@Z 10030100 f   i3BinList.obj
 0001:0002f120       ?_BindObjectByType@i3BinList@@SAPAV1@PAXW4I3_CLASSMETA_TYPE@@@Z 10030120 f   i3BinList.obj
 0001:0002f140       ?_BindObjectRef@i3BinList@@SAPAV1@PAX@Z 10030140 f   i3BinList.obj
 0001:0002f160       ?_BindObjectRefByType@i3BinList@@SAPAV1@PAXW4I3_CLASSMETA_TYPE@@@Z 10030160 f   i3BinList.obj
 0001:0002f190       ?_NewObject@i3BinList@@SAPAV1@XZ 10030190 f   i3BinList.obj
 0001:0002f1b0       ?_NewObjectByType@i3BinList@@SAPAV1@W4I3_CLASSMETA_TYPE@@@Z 100301b0 f   i3BinList.obj
 0001:0002f1d0       ?_NewObjectRef@i3BinList@@SAPAV1@XZ 100301d0 f   i3BinList.obj
 0001:0002f1e0       ?_NewObjectRefByType@i3BinList@@SAPAV1@W4I3_CLASSMETA_TYPE@@@Z 100301e0 f   i3BinList.obj
 0001:0002f200       ??0i3ClassMeta@@QAE@IPAD0W4I3_CLASSMETA_TYPE@@@Z 10030200 f   i3ClassMeta.obj
 0001:0002f2a0       ??1i3ClassMeta@@UAE@XZ     100302a0 f   i3ClassMeta.obj
 0001:0002f2b0       ?BindInstance@i3ClassMeta@@UAEPAVi3ElementBase@@PAXW4I3_CLASSMETA_TYPE@@@Z 100302b0 f   i3ClassMeta.obj
 0001:0002f310       ?CreateInstance@i3ClassMeta@@UAEPAVi3ElementBase@@W4I3_CLASSMETA_TYPE@@@Z 10030310 f   i3ClassMeta.obj
 0001:0002f320       ?FindClassMetaByHash@i3ClassMeta@@SAPAV1@I@Z 10030320 f   i3ClassMeta.obj
 0001:0002f3b0       ?FindClassMetaByName@i3ClassMeta@@SAPAV1@PBD@Z 100303b0 f   i3ClassMeta.obj
 0001:0002f3e0       ?GetAllDerivedClasses@i3ClassMeta@@QAEXPAVi3List@@_N@Z 100303e0 f   i3ClassMeta.obj
 0001:0002f440       ?GetConcreteClass@i3ClassMeta@@QAEPAV1@W4I3_CLASSMETA_TYPE@@@Z 10030440 f   i3ClassMeta.obj
 0001:0002f480       ?GetPersistClassName@i3ClassMeta@@QAEPADXZ 10030480 f   i3ClassMeta.obj
 0001:0002f4a0       ?IsTypeOf@i3ClassMeta@@QAE_NPAV1@@Z 100304a0 f   i3ClassMeta.obj
 0001:0002f4d0       ?PrintClassMeta@i3ClassMeta@@SAXXZ 100304d0 f   i3ClassMeta.obj
 0001:0002f4e0       ?Register@i3ClassMeta@@QAEXXZ 100304e0 f   i3ClassMeta.obj
 0001:0002f5f0       ?RemoveProxyInfo@i3ClassMeta@@QAEXXZ 100305f0 f   i3ClassMeta.obj
 0001:0002f600       ?SetConcreteClass@i3ClassMeta@@QAEXPAV1@@Z 10030600 f   i3ClassMeta.obj
 0001:0002f680       ?SetGhostClass@i3ClassMeta@@QAEXPAV1@@Z 10030680 f   i3ClassMeta.obj
 0001:0002f6a0       ?UnRegister@i3ClassMeta@@SAXXZ 100306a0 f   i3ClassMeta.obj
 0001:0002f790       ?_ClassMetaTerminateProc@i3ClassMeta@@SAHPAX@Z 10030790 f   i3ClassMeta.obj
 0001:0002f850       ?_hash_@@YAIPADH@Z         10030850 f   i3ClassMeta.obj
 0001:0002f870       ?i3GetClassMetaList@@YAPAXXZ 10030870 f   i3ClassMeta.obj
 0001:0002f880       ??0UINT128@@QAE@IIII@Z     10030880 f i i3CommonType.obj
 0001:0002f8b0       ??0UINT128@@QAE@_K0@Z      100308b0 f i i3CommonType.obj
 0001:0002f8d0       ??4UINT128@@QAEAAV0@ABH@Z  100308d0 f i i3CommonType.obj
 0001:0002f900       ??4UINT128@@QAEAAV0@ABI@Z  10030900 f i i3CommonType.obj
 0001:0002f930       ??4UINT128@@QAEAAV0@AB_J@Z 10030930 f i i3CommonType.obj
 0001:0002f960       ??4UINT128@@QAEAAV0@AB_K@Z 10030960 f i i3CommonType.obj
 0001:0002f990       ?Decode@i3CompressHuffman@@YAPAEPAEI@Z 10030990 f   i3CompressHuffman.obj
 0001:0002fa90       ?DecodeFile@i3CompressHuffman@@YAHPBD0@Z 10030a90 f   i3CompressHuffman.obj
 0001:0002fd50       ?Encode@i3CompressHuffman@@YAPAEPAEII@Z 10030d50 f   i3CompressHuffman.obj
 0001:00030350       ?EncodeFile@i3CompressHuffman@@YAHPBD0@Z 10031350 f   i3CompressHuffman.obj
 0001:00030510       ?GetResultSize@i3CompressHuffman@@YAIXZ 10031510 f   i3CompressHuffman.obj
 0001:00030520       ?GetSourceSize@i3CompressHuffman@@YAIXZ 10031520 f   i3CompressHuffman.obj
 0001:00030680       ?BitRotateDecript@@YAXPAEII@Z 10031680 f   i3CRC32.obj
 0001:000306d0       ?BitRotateEncript@@YAXPAEII@Z 100316d0 f   i3CRC32.obj
 0001:00030720       ?CRC32@@YAIIPAEI@Z         10031720 f   i3CRC32.obj
 0001:00030810       ?DebugBox@@YAHPAUHWND__@@PBDZZ 10031810 f   i3Debug.obj
 0001:000308b0       ?I3PRINTF@@YAXPBDZZ        100318b0 f   i3Debug.obj
 0001:000308f0       ?I3PRINTF@@YAXPBGZZ        100318f0 f   i3Debug.obj
 0001:00030930       ?NotifyBox@@YAHPAUHWND__@@PBDZZ 10031930 f   i3Debug.obj
 0001:000309a0       ?i3Log@@YAXPBD0ZZ          100319a0 f   i3Debug.obj
 0001:00030a20       ?i3SetLogCallBackFunc@@YAXP6AXPAD@Z@Z 10031a20 f   i3Debug.obj
 0001:00030aa0       ?_DefExternResolveProcWin32@@YA_NPBDPADH0_N@Z 10031aa0 f   i3DefExternRefResolveWin32.obj
 0001:00030e60       ?CreateInstance@?$i3AbstractMetaTemplate@Vi3ElementBase@@@@UAEPAVi3ElementBase@@W4I3_CLASSMETA_TYPE@@@Z 10031e60 f i i3ElementBase.obj
 0001:00030e80       ?BindInstance@?$i3AbstractMetaTemplate@Vi3ElementBase@@@@UAEPAVi3ElementBase@@PAXW4I3_CLASSMETA_TYPE@@@Z 10031e80 f i i3ElementBase.obj
 0001:00030ea0       ??_E?$i3AbstractMetaTemplate@Vi3ElementBase@@@@UAEPAXI@Z 10031ea0 f i i3ElementBase.obj
 0001:00030ea0       ??_G?$i3AbstractMetaTemplate@Vi3ElementBase@@@@UAEPAXI@Z 10031ea0 f i i3ElementBase.obj
 0001:00030ed0       ??0?$i3AbstractMetaTemplate@Vi3ElementBase@@@@QAE@IPAD0W4I3_CLASSMETA_TYPE@@@Z 10031ed0 f i i3ElementBase.obj
 0001:00030f00       ??0i3ElementBase@@QAE@XZ   10031f00 f   i3ElementBase.obj
 0001:00030f20       ??1i3ElementBase@@UAE@XZ   10031f20 f   i3ElementBase.obj
 0001:00030f30       ??2i3ElementBase@@SAPAXI@Z 10031f30 f   i3ElementBase.obj
 0001:00030f60       ??2i3ElementBase@@SAPAXIPAX@Z 10031f60 f   i3ElementBase.obj
 0001:00030f70       ??3i3ElementBase@@SAXPAX0@Z 10031f70 f   i3ElementBase.obj
 0001:00030fc0       ??3i3ElementBase@@SAXPAX@Z 10031fc0 f   i3ElementBase.obj
 0001:00031030       ??3i3ElementBase@@SAXPAXPBDH@Z 10032030 f   i3ElementBase.obj
 0001:000310a0       ?CopyTo@i3ElementBase@@UAEXPAV1@W4I3_COPY_METHOD@@@Z 100320a0 f   i3ElementBase.obj
 0001:000310b0       ?GetMeta@i3ElementBase@@UAEPAVi3ClassMeta@@XZ 100320b0 f   i3ElementBase.obj
 0001:000310c0       ?RegisterMeta@i3ElementBase@@SAXXZ 100320c0 f   i3ElementBase.obj
 0001:000310d0       ?Release@i3ElementBase@@QAEXXZ 100320d0 f   i3ElementBase.obj
 0001:000310f0       ?SetConcreteClass@i3ElementBase@@SAXPAVi3ClassMeta@@@Z 100320f0 f   i3ElementBase.obj
 0001:00031110       ?SetGhostClass@i3ElementBase@@SAXPAVi3ClassMeta@@@Z 10032110 f   i3ElementBase.obj
 0001:00031130       ?_BindObject@i3ElementBase@@SAPAV1@PAX@Z 10032130 f   i3ElementBase.obj
 0001:00031150       ?_BindObjectByType@i3ElementBase@@SAPAV1@PAXW4I3_CLASSMETA_TYPE@@@Z 10032150 f   i3ElementBase.obj
 0001:00031170       ?_BindObjectRef@i3ElementBase@@SAPAV1@PAX@Z 10032170 f   i3ElementBase.obj
 0001:00031190       ?_BindObjectRefByType@i3ElementBase@@SAPAV1@PAXW4I3_CLASSMETA_TYPE@@@Z 10032190 f   i3ElementBase.obj
 0001:000311b0       ?_NewObject@i3ElementBase@@SAPAV1@XZ 100321b0 f   i3ElementBase.obj
 0001:000311d0       ?_NewObjectByType@i3ElementBase@@SAPAV1@W4I3_CLASSMETA_TYPE@@@Z 100321d0 f   i3ElementBase.obj
 0001:000311f0       ?_NewObjectRef@i3ElementBase@@SAPAV1@XZ 100321f0 f   i3ElementBase.obj
 0001:00031200       ?_NewObjectRefByType@i3ElementBase@@SAPAV1@W4I3_CLASSMETA_TYPE@@@Z 10032200 f   i3ElementBase.obj
 0001:00031220       ??0I3ExceptionHandler@@QAE@XZ 10032220 f   i3ErrorHandler.obj
 0001:00031250       ??0i3MapFileParser@@QAE@XZ 10032250 f i i3ErrorHandler.obj
 0001:00031260       ??1I3ExceptionHandler@@UAE@XZ 10032260 f   i3ErrorHandler.obj
 0001:00031270       ??1i3MapFileParser@@QAE@XZ 10032270 f i i3ErrorHandler.obj
 0001:00031280       ??4i3MapFileParser@@QAEAAV0@ABV0@@Z 10032280 f i i3ErrorHandler.obj
 0001:000312a0       ??_EI3ExceptionHandler@@UAEPAXI@Z 100322a0 f i i3ErrorHandler.obj
 0001:000312a0       ??_GI3ExceptionHandler@@UAEPAXI@Z 100322a0 f i i3ErrorHandler.obj
 0001:000312d0       ?CheckUnhandledException@@YGJPAU_EXCEPTION_POINTERS@@@Z 100322d0 f   i3ErrorHandler.obj
 0001:000313b0       ?ExceptionInformation@I3ExceptionHandler@@UAEXPAU_EXCEPTION_POINTERS@@@Z 100323b0 f   i3ErrorHandler.obj
 0001:000313c0       ?GetClassNameA@i3MapFileParser@@QAEPADXZ 100323c0 f i i3ErrorHandler.obj
 0001:000313d0       ?GetEnvErrorFile@i3Error@@YAPBDXZ 100323d0 f   i3ErrorHandler.obj
 0001:000313e0       ?GetEnvErrorFunc@i3Error@@YAPBDXZ 100323e0 f   i3ErrorHandler.obj
 0001:000313f0       ?GetEnvErrorLine@i3Error@@YAHXZ 100323f0 f   i3ErrorHandler.obj
 0001:00031400       ?GetEnvLogType@i3Error@@YA?AW4I3LOG_TYPE@@XZ 10032400 f   i3ErrorHandler.obj
 0001:00031410       ?GetFunctionName@i3MapFileParser@@QAEPADXZ 10032410 f i i3ErrorHandler.obj
 0001:00031420       ?GetSourceLine@i3MapFileParser@@QAEHXZ 10032420 f i i3ErrorHandler.obj
 0001:00031430       ?GetSystemInfo@I3ExceptionHandler@@QAEXPAD@Z 10032430 f   i3ErrorHandler.obj
 0001:00031500       ?I3BCLog@i3Error@@YAXPBDH00ZZ 10032500 f   i3ErrorHandler.obj
 0001:00031620       ?I3assertForCoverity@@YAXXZ 10032620 f   i3ErrorHandler.obj
 0001:00031630       ?Init@i3Error@@YAXXZ       10032630 f   i3ErrorHandler.obj
 0001:00031690       ?Log@i3Error@@YAXPBDZZ     10032690 f   i3ErrorHandler.obj
 0001:00031790       ?SetCallback@i3Error@@YAXW4I3LOG_TYPE@@P6A?AW4I3ERROR_HANDLE@@0PAD1PAX@Z2@Z 10032790 f   i3ErrorHandler.obj
 0001:000317d0       ?SetChannel@i3Error@@YAXW4I3LOG_TYPE@@I@Z 100327d0 f   i3ErrorHandler.obj
 0001:000317f0       ?SetChannelName@i3Error@@YAXW4I3LOG_TYPE@@QAD@Z 100327f0 f   i3ErrorHandler.obj
 0001:00031820       ?SetCreateMiniDump@I3ExceptionHandler@@QAEXPAU_EXCEPTION_POINTERS@@@Z 10032820 f   i3ErrorHandler.obj
 0001:000318f0       ?SetDefaultCallback@i3Error@@YAXW4I3LOG_TYPE@@PAX@Z 100328f0 f   i3ErrorHandler.obj
 0001:00031920       ?SetEnv@i3Error@@YAXPBDH0W4I3LOG_TYPE@@@Z 10032920 f   i3ErrorHandler.obj
 0001:00031960       ?SetExceptionHandler@i3Error@@YAXPBD@Z 10032960 f   i3ErrorHandler.obj
 0001:00031990       ?SetExceptionHandlerOption@I3ExceptionHandler@@QAEXH@Z 10032990 f   i3ErrorHandler.obj
 0001:00031ab0       ?SetExceptionHandlerOption@i3Error@@YAXH@Z 10032ab0 f   i3ErrorHandler.obj
 0001:00031bd0       ?SetMainWindow@i3Error@@YAXPAX@Z 10032bd0 f   i3ErrorHandler.obj
 0001:00031be0       ?SetPath@I3ExceptionHandler@@QAEXPBD@Z 10032be0 f   i3ErrorHandler.obj
 0001:00031c00       ?_DefDumpThreadProc@@YAIPAUMinidumpInfo@@@Z 10032c00 f   i3ErrorHandler.obj
 0001:00031ed0       ?getMsg@i3Error@@YAPBDW4CODE@1@@Z 10032ed0 f   i3ErrorHandler.obj
 0001:00031f90       ?isErrorReporting@i3Error@@YA_NXZ 10032f90 f   i3ErrorHandler.obj
 0001:00032000       _fprintf                   10033000 f i i3ErrorHandler.obj
 0001:00032030       ?DefWindowsLogProc@@YA?AW4I3ERROR_HANDLE@@W4I3LOG_TYPE@@PAD1PAX@Z 10033030 f   i3ErrorHandlerWindows.obj
 0001:000320b0       ?_i3DefPopupProc@@YGHPAUHWND__@@IIJ@Z 100330b0 f   i3ErrorHandlerWindows.obj
 0001:00032150       ?DefWindowsExpectionProc@@YA?AW4I3ERROR_HANDLE@@PAD@Z 10033150 f   i3ErrorUnExpectionWindows.obj
 0001:00032180       ?_i3DefPopupExProc@@YGHPAUHWND__@@IIJ@Z 10033180 f   i3ErrorUnExpectionWindows.obj
 0001:000322a0       ?CreateInstance@?$i3AbstractMetaTemplate@Vi3EventReceiver@@@@UAEPAVi3ElementBase@@W4I3_CLASSMETA_TYPE@@@Z 100332a0 f i i3EventReceiver.obj
 0001:000322c0       ?BindInstance@?$i3AbstractMetaTemplate@Vi3EventReceiver@@@@UAEPAVi3ElementBase@@PAXW4I3_CLASSMETA_TYPE@@@Z 100332c0 f i i3EventReceiver.obj
 0001:000322e0       ??_E?$i3AbstractMetaTemplate@Vi3EventReceiver@@@@UAEPAXI@Z 100332e0 f i i3EventReceiver.obj
 0001:000322e0       ??_G?$i3AbstractMetaTemplate@Vi3EventReceiver@@@@UAEPAXI@Z 100332e0 f i i3EventReceiver.obj
 0001:00032310       ??0?$i3AbstractMetaTemplate@Vi3EventReceiver@@@@QAE@IPAD0W4I3_CLASSMETA_TYPE@@@Z 10033310 f i i3EventReceiver.obj
 0001:00032340       ?GetMeta@i3EventReceiver@@UAEPAVi3ClassMeta@@XZ 10033340 f   i3EventReceiver.obj
 0001:00032350       ?OnEvent@i3EventReceiver@@UAEHIPAVi3ElementBase@@IW4I3_EVT_CODE@@@Z 10033350 f   i3EventReceiver.obj
 0001:00032360       ?OnInput@i3EventReceiver@@UAEXXZ 10033360 f   i3EventReceiver.obj
 0001:00032370       ?OnKeyDown@i3EventReceiver@@UAEXI@Z 10033370 f   i3EventReceiver.obj
 0001:00032380       ?OnKeyUp@i3EventReceiver@@UAEXI@Z 10033380 f   i3EventReceiver.obj
 0001:00032390       ?OnLButtonDblClk@i3EventReceiver@@UAEXIUtagPOINT@@@Z 10033390 f   i3EventReceiver.obj
 0001:000323a0       ?OnLButtonDown@i3EventReceiver@@UAEXIUtagPOINT@@@Z 100333a0 f   i3EventReceiver.obj
 0001:000323b0       ?OnLButtonUp@i3EventReceiver@@UAEXIUtagPOINT@@@Z 100333b0 f   i3EventReceiver.obj
 0001:000323c0       ?OnMButtonDown@i3EventReceiver@@UAEXIUtagPOINT@@@Z 100333c0 f   i3EventReceiver.obj
 0001:000323d0       ?OnMButtonUp@i3EventReceiver@@UAEXIUtagPOINT@@@Z 100333d0 f   i3EventReceiver.obj
 0001:000323e0       ?OnMapCoord@i3EventReceiver@@UAEXPAUtagPOINT@@@Z 100333e0 f   i3EventReceiver.obj
 0001:000323f0       ?OnMouseMove@i3EventReceiver@@UAEXIUtagPOINT@@@Z 100333f0 f   i3EventReceiver.obj
 0001:00032400       ?OnMouseWheel@i3EventReceiver@@UAEXIFUtagPOINT@@@Z 10033400 f   i3EventReceiver.obj
 0001:00032410       ?OnRButtonDown@i3EventReceiver@@UAEXIUtagPOINT@@@Z 10033410 f   i3EventReceiver.obj
 0001:00032420       ?OnRButtonUp@i3EventReceiver@@UAEXIUtagPOINT@@@Z 10033420 f   i3EventReceiver.obj
 0001:00032430       ?RegisterMeta@i3EventReceiver@@SAXXZ 10033430 f   i3EventReceiver.obj
 0001:00032440       ?SetConcreteClass@i3EventReceiver@@SAXPAVi3ClassMeta@@@Z 10033440 f   i3EventReceiver.obj
 0001:00032460       ?SetGhostClass@i3EventReceiver@@SAXPAVi3ClassMeta@@@Z 10033460 f   i3EventReceiver.obj
 0001:00032480       ?_BindObject@i3EventReceiver@@SAPAV1@PAX@Z 10033480 f   i3EventReceiver.obj
 0001:000324a0       ?_BindObjectByType@i3EventReceiver@@SAPAV1@PAXW4I3_CLASSMETA_TYPE@@@Z 100334a0 f   i3EventReceiver.obj
 0001:000324c0       ?_BindObjectRef@i3EventReceiver@@SAPAV1@PAX@Z 100334c0 f   i3EventReceiver.obj
 0001:000324e0       ?_BindObjectRefByType@i3EventReceiver@@SAPAV1@PAXW4I3_CLASSMETA_TYPE@@@Z 100334e0 f   i3EventReceiver.obj
 0001:00032500       ?_NewObject@i3EventReceiver@@SAPAV1@XZ 10033500 f   i3EventReceiver.obj
 0001:00032520       ?_NewObjectByType@i3EventReceiver@@SAPAV1@W4I3_CLASSMETA_TYPE@@@Z 10033520 f   i3EventReceiver.obj
 0001:00032540       ?_NewObjectRef@i3EventReceiver@@SAPAV1@XZ 10033540 f   i3EventReceiver.obj
 0001:00032550       ?_NewObjectRefByType@i3EventReceiver@@SAPAV1@W4I3_CLASSMETA_TYPE@@@Z 10033550 f   i3EventReceiver.obj
 0001:00032570       ??0i3FixedMemoryPool@@QAE@ABV0@@Z 10033570 f i i3FixedMemoryPool.obj
 0001:000325d0       ??0i3FixedMemoryPool@@QAE@XZ 100335d0 f   i3FixedMemoryPool.obj
 0001:00032690       ??1i3FixedMemoryPool@@UAE@XZ 10033690 f   i3FixedMemoryPool.obj
 0001:00032740       ??4i3FixedMemoryPool@@QAEAAV0@ABV0@@Z 10033740 f i i3FixedMemoryPool.obj
 0001:000327a0       ??_Ei3FixedMemoryPool@@UAEPAXI@Z 100337a0 f i i3FixedMemoryPool.obj
 0001:00032840       ??_Gi3FixedMemoryPool@@UAEPAXI@Z 10033840 f i i3FixedMemoryPool.obj
 0001:00032870       ?Alloc@i3FixedMemoryPool@@UAEPAXIPBDH@Z 10033870 f   i3FixedMemoryPool.obj
 0001:000328e0       ?Compact@i3FixedMemoryPool@@QAEXXZ 100338e0 f   i3FixedMemoryPool.obj
 0001:000329a0       ?Create@i3FixedMemoryPool@@QAEHPBDIIIHH@Z 100339a0 f   i3FixedMemoryPool.obj
 0001:00032a10       ?FindPage@i3FixedMemoryPool@@IAEPAUPAGE@1@PAD@Z 10033a10 f   i3FixedMemoryPool.obj
 0001:00032a70       ?Free@i3FixedMemoryPool@@UAEXPAX@Z 10033a70 f   i3FixedMemoryPool.obj
 0001:00032ac0       ?GetAllocatedBlockCount@i3FixedMemoryPool@@QAEIXZ 10033ac0 f   i3FixedMemoryPool.obj
 0001:00032af0       ?GetAutoCompactEnable@i3FixedMemoryPool@@QAEHXZ 10033af0 f i i3FixedMemoryPool.obj
 0001:00032b00       ?GetPageCount@i3FixedMemoryPool@@QAEHXZ 10033b00 f   i3FixedMemoryPool.obj
 0001:00032b30       ?GetTotalBlockCount@i3FixedMemoryPool@@QAEIXZ 10033b30 f   i3FixedMemoryPool.obj
 0001:00032b70       ?InitPage@i3FixedMemoryPool@@IAEXPAUPAGE@1@@Z 10033b70 f   i3FixedMemoryPool.obj
 0001:00032bc0       ?NewPage@i3FixedMemoryPool@@IAEPAUPAGE@1@XZ 10033bc0 f   i3FixedMemoryPool.obj
 0001:00032c30       ?RemovePage@i3FixedMemoryPool@@IAEXPAUPAGE@1@@Z 10033c30 f   i3FixedMemoryPool.obj
 0001:00032cc0       ?Reset@i3FixedMemoryPool@@QAEXXZ 10033cc0 f   i3FixedMemoryPool.obj
 0001:00032d20       ?SetAutoCompactEnable@i3FixedMemoryPool@@QAEXH@Z 10033d20 f i i3FixedMemoryPool.obj
 0001:00032d30       ?getPageSize@i3FixedMemoryPool@@QAEIXZ 10033d30 f i i3FixedMemoryPool.obj
 0001:00032d40       ?getUnitSize@i3FixedMemoryPool@@QAEIXZ 10033d40 f i i3FixedMemoryPool.obj
 0001:00032d50       ?AP@i3Hash@@YAIPADH@Z      10033d50 f   i3Hash.obj
 0001:00032da0       ?BKDR@i3Hash@@YAIPADH@Z    10033da0 f   i3Hash.obj
 0001:00032dd0       ?BP@i3Hash@@YAIPADH@Z      10033dd0 f   i3Hash.obj
 0001:00032e00       ?DEK@i3Hash@@YAIPADH@Z     10033e00 f   i3Hash.obj
 0001:00032e30       ?DJB@i3Hash@@YAIPADH@Z     10033e30 f   i3Hash.obj
 0001:00032e60       ?ELF@i3Hash@@YAIPADH@Z     10033e60 f   i3Hash.obj
 0001:00032ea0       ?FNV@i3Hash@@YAIPADH@Z     10033ea0 f   i3Hash.obj
 0001:00032ed0       ?JS@i3Hash@@YAIPADH@Z      10033ed0 f   i3Hash.obj
 0001:00032f10       ?PJW@i3Hash@@YAIPADH@Z     10033f10 f   i3Hash.obj
 0001:00032f50       ?RS@i3Hash@@YAIPADH@Z      10033f50 f   i3Hash.obj
 0001:00032f90       ?SDBM@i3Hash@@YAIPADH@Z    10033f90 f   i3Hash.obj
 0001:00032fc0       ?CreateInstance@?$i3MetaTemplate@Vi3Udp@@@@UAEPAVi3ElementBase@@W4I3_CLASSMETA_TYPE@@@Z 10033fc0 f i i3Inet.obj
 0001:00033090       ?BindInstance@?$i3MetaTemplate@Vi3Udp@@@@UAEPAVi3ElementBase@@PAXW4I3_CLASSMETA_TYPE@@@Z 10034090 f i i3Inet.obj
 0001:00033140       ??_E?$i3MetaTemplate@Vi3Udp@@@@UAEPAXI@Z 10034140 f i i3Inet.obj
 0001:00033140       ??_G?$i3MetaTemplate@Vi3Udp@@@@UAEPAXI@Z 10034140 f i i3Inet.obj
 0001:00033170       ?CreateInstance@?$i3MetaTemplate@Vi3Tcp@@@@UAEPAVi3ElementBase@@W4I3_CLASSMETA_TYPE@@@Z 10034170 f i i3Inet.obj
 0001:00033250       ?BindInstance@?$i3MetaTemplate@Vi3Tcp@@@@UAEPAVi3ElementBase@@PAXW4I3_CLASSMETA_TYPE@@@Z 10034250 f i i3Inet.obj
 0001:00033310       ??_E?$i3MetaTemplate@Vi3Tcp@@@@UAEPAXI@Z 10034310 f i i3Inet.obj
 0001:00033310       ??_G?$i3MetaTemplate@Vi3Tcp@@@@UAEPAXI@Z 10034310 f i i3Inet.obj
 0001:00033340       ??0?$i3MetaTemplate@Vi3Tcp@@@@QAE@IPAD0W4I3_CLASSMETA_TYPE@@@Z 10034340 f i i3Inet.obj
 0001:00033370       ??0?$i3MetaTemplate@Vi3Udp@@@@QAE@IPAD0W4I3_CLASSMETA_TYPE@@@Z 10034370 f i i3Inet.obj
 0001:000333a0       ??0i3Tcp@@QAE@XZ           100343a0 f   i3Inet.obj
 0001:000333e0       ??0i3Udp@@QAE@XZ           100343e0 f   i3Inet.obj
 0001:00033410       ??1i3Tcp@@UAE@XZ           10034410 f   i3Inet.obj
 0001:00033450       ??1i3Udp@@UAE@XZ           10034450 f   i3Inet.obj
 0001:00033490       ?Bind@i3Udp@@QAEXIG@Z      10034490 f   i3Inet.obj
 0001:00033500       ?BindAny@i3Udp@@QAEXG@Z    10034500 f   i3Inet.obj
 0001:00033570       ?Connect@i3Tcp@@QAEHIG@Z   10034570 f   i3Inet.obj
 0001:00033600       ?Connect@i3Tcp@@QAEHPBDG@Z 10034600 f   i3Inet.obj
 0001:00033690       ?Create@i3Net@@YAHXZ       10034690 f   i3Inet.obj
 0001:00033700       ?CreateSocket@i3Tcp@@IAEIXZ 10034700 f   i3Inet.obj
 0001:00033720       ?CreateSocket@i3Udp@@QAEIXZ 10034720 f   i3Inet.obj
 0001:000337f0       ?DeleteSocket@i3Tcp@@IAEXXZ 100347f0 f   i3Inet.obj
 0001:00033810       ?DeleteSocket@i3Udp@@QAEXXZ 10034810 f   i3Inet.obj
 0001:00033830       ?Destroy@i3Net@@YAXXZ      10034830 f   i3Inet.obj
 0001:00033840       ?DestroySocket@i3Net@@YAXI@Z 10034840 f   i3Inet.obj
 0001:00033860       ?GetError@i3Net@@YAHPAD@Z  10034860 f   i3Inet.obj
 0001:00033870       ?GetIPToLongA@i3Net@@YAPADIPAD@Z 10034870 f   i3Inet.obj
 0001:00033900       ?GetIPToLongW@i3Net@@YAPAGIPAG@Z 10034900 f   i3Inet.obj
 0001:00033990       ?GetIPToSockA@i3Net@@YAPADPAUsockaddr_in@@PAD@Z 10034990 f   i3Inet.obj
 0001:000339b0       ?GetIPToSockW@i3Net@@YAPAGPAUsockaddr_in@@PAG@Z 100349b0 f   i3Inet.obj
 0001:000339d0       ?GetMACAddress@i3Net@@YAHPA_KH@Z 100349d0 f   i3Inet.obj
 0001:00033a70       ?GetMeta@i3Tcp@@UAEPAVi3ClassMeta@@XZ 10034a70 f   i3Inet.obj
 0001:00033a80       ?GetMeta@i3Udp@@UAEPAVi3ClassMeta@@XZ 10034a80 f   i3Inet.obj
 0001:00033a90       ?GetMyAddress@i3Net@@YAHPAD@Z 10034a90 f   i3Inet.obj
 0001:00033b00       ?GetMyAddressList@i3Net@@YAPADPAH@Z 10034b00 f   i3Inet.obj
 0001:00033bc0       ?GetName@i3Net@@YAXHPAUsockaddr_in@@@Z 10034bc0 f   i3Inet.obj
 0001:00033c20       ?GetName@i3Tcp@@QAEXPAUsockaddr@@@Z 10034c20 f   i3Inet.obj
 0001:00033c80       ?GetName@i3Udp@@QAEXPAUsockaddr@@@Z 10034c80 f   i3Inet.obj
 0001:00033ce0       ?GetOption@i3Udp@@QAEHHHPADPAH@Z 10034ce0 f   i3Inet.obj
 0001:00033d00       ?Init@i3Net@@YAHXZ         10034d00 f   i3Inet.obj
 0001:00033d70       ?Recv@i3Tcp@@QAEHPADHH@Z   10034d70 f   i3Inet.obj
 0001:00033d90       ?Recv@i3Udp@@QAEHPADHHPAUsockaddr@@PAH@Z 10034d90 f   i3Inet.obj
 0001:00033dc0       ?RegisterMeta@i3Tcp@@SAXXZ 10034dc0 f   i3Inet.obj
 0001:00033dd0       ?RegisterMeta@i3Udp@@SAXXZ 10034dd0 f   i3Inet.obj
 0001:00033de0       ?Send@i3Tcp@@QAEHPBDHH@Z   10034de0 f   i3Inet.obj
 0001:00033e00       ?Send@i3Udp@@QAEXPBDHIGH@Z 10034e00 f   i3Inet.obj
 0001:00033e70       ?SetConcreteClass@i3Tcp@@SAXPAVi3ClassMeta@@@Z 10034e70 f   i3Inet.obj
 0001:00033e90       ?SetConcreteClass@i3Udp@@SAXPAVi3ClassMeta@@@Z 10034e90 f   i3Inet.obj
 0001:00033eb0       ?SetGhostClass@i3Tcp@@SAXPAVi3ClassMeta@@@Z 10034eb0 f   i3Inet.obj
 0001:00033ed0       ?SetGhostClass@i3Udp@@SAXPAVi3ClassMeta@@@Z 10034ed0 f   i3Inet.obj
 0001:00033ef0       ?SetOption@i3Udp@@QAEHHHPBDH@Z 10034ef0 f   i3Inet.obj
 0001:00033f10       ?_BindObject@i3Tcp@@SAPAV1@PAX@Z 10034f10 f   i3Inet.obj
 0001:00033f30       ?_BindObject@i3Udp@@SAPAV1@PAX@Z 10034f30 f   i3Inet.obj
 0001:00033f50       ?_BindObjectByType@i3Tcp@@SAPAV1@PAXW4I3_CLASSMETA_TYPE@@@Z 10034f50 f   i3Inet.obj
 0001:00033f70       ?_BindObjectByType@i3Udp@@SAPAV1@PAXW4I3_CLASSMETA_TYPE@@@Z 10034f70 f   i3Inet.obj
 0001:00033f90       ?_BindObjectRef@i3Tcp@@SAPAV1@PAX@Z 10034f90 f   i3Inet.obj
 0001:00033fb0       ?_BindObjectRef@i3Udp@@SAPAV1@PAX@Z 10034fb0 f   i3Inet.obj
 0001:00033fd0       ?_BindObjectRefByType@i3Tcp@@SAPAV1@PAXW4I3_CLASSMETA_TYPE@@@Z 10034fd0 f   i3Inet.obj
 0001:00033ff0       ?_BindObjectRefByType@i3Udp@@SAPAV1@PAXW4I3_CLASSMETA_TYPE@@@Z 10034ff0 f   i3Inet.obj
 0001:00034010       ?_NewObject@i3Tcp@@SAPAV1@XZ 10035010 f   i3Inet.obj
 0001:00034030       ?_NewObject@i3Udp@@SAPAV1@XZ 10035030 f   i3Inet.obj
 0001:00034050       ?_NewObjectByType@i3Tcp@@SAPAV1@W4I3_CLASSMETA_TYPE@@@Z 10035050 f   i3Inet.obj
 0001:00034070       ?_NewObjectByType@i3Udp@@SAPAV1@W4I3_CLASSMETA_TYPE@@@Z 10035070 f   i3Inet.obj
 0001:00034090       ?_NewObjectRef@i3Tcp@@SAPAV1@XZ 10035090 f   i3Inet.obj
 0001:000340a0       ?_NewObjectRef@i3Udp@@SAPAV1@XZ 100350a0 f   i3Inet.obj
 0001:000340b0       ?_NewObjectRefByType@i3Tcp@@SAPAV1@W4I3_CLASSMETA_TYPE@@@Z 100350b0 f   i3Inet.obj
 0001:000340d0       ?_NewObjectRefByType@i3Udp@@SAPAV1@W4I3_CLASSMETA_TYPE@@@Z 100350d0 f   i3Inet.obj
 0001:000340f0       ?CreateInstance@?$i3MetaTemplate@Vi3IniParser@@@@UAEPAVi3ElementBase@@W4I3_CLASSMETA_TYPE@@@Z 100350f0 f i i3IniParser.obj
 0001:000341d0       ?BindInstance@?$i3MetaTemplate@Vi3IniParser@@@@UAEPAVi3ElementBase@@PAXW4I3_CLASSMETA_TYPE@@@Z 100351d0 f i i3IniParser.obj
 0001:00034270       ??_E?$i3MetaTemplate@Vi3IniParser@@@@UAEPAXI@Z 10035270 f i i3IniParser.obj
 0001:00034270       ??_G?$i3MetaTemplate@Vi3IniParser@@@@UAEPAXI@Z 10035270 f i i3IniParser.obj
 0001:000342a0       ??0?$i3MetaTemplate@Vi3IniParser@@@@QAE@IPAD0W4I3_CLASSMETA_TYPE@@@Z 100352a0 f i i3IniParser.obj
 0001:000342d0       ??0i3IniParser@@QAE@XZ     100352d0 f   i3IniParser.obj
 0001:00034370       ??1i3IniParser@@UAE@XZ     10035370 f   i3IniParser.obj
 0001:000343e0       ?Close@i3IniParser@@QAEXXZ 100353e0 f   i3IniParser.obj
 0001:00034480       ?Create@i3IniParser@@QAEHPBD@Z 10035480 f   i3IniParser.obj
 0001:000344f0       ?DeleteAllValues@i3IniParser@@IAEXXZ 100354f0 f   i3IniParser.obj
 0001:00034500       ?FindSection@i3IniParser@@QAEPAUi3IniSectionInfo@@PBD@Z 10035500 f   i3IniParser.obj
 0001:00034570       ?GetIndex@i3IniParser@@QAEHPBDQAPBDIAAHI@Z 10035570 f   i3IniParser.obj
 0001:000345e0       ?GetMeta@i3IniParser@@UAEPAVi3ClassMeta@@XZ 100355e0 f   i3IniParser.obj
 0001:000345f0       ?GetSectionIndex@i3IniParser@@QAEHPBD@Z 100355f0 f   i3IniParser.obj
 0001:00034650       ?GetStringValue@i3IniParser@@QAEPBDPBD@Z 10035650 f   i3IniParser.obj
 0001:000346f0       ?GetValue@i3IniParser@@QAEHPBD0PADH@Z 100356f0 f   i3IniParser.obj
 0001:00034730       ?GetValue@i3IniParser@@QAEHPBDHPAH@Z 10035730 f   i3IniParser.obj
 0001:00034760       ?GetValue@i3IniParser@@QAEHPBDIPAI@Z 10035760 f   i3IniParser.obj
 0001:00034790       ?GetValue@i3IniParser@@QAEHPBDMPAM@Z 10035790 f   i3IniParser.obj
 0001:000347e0       ?GetValue@i3IniParser@@QAEHPBDNPAN@Z 100357e0 f   i3IniParser.obj
 0001:00034820       ?GetValue@i3IniParser@@QAEHPBDPADH@Z 10035820 f   i3IniParser.obj
 0001:00034940       ?GetValue@i3IniParser@@QAEHPBDPAH@Z 10035940 f   i3IniParser.obj
 0001:000349f0       ?GetValue@i3IniParser@@QAEHPBDPAI@Z 100359f0 f   i3IniParser.obj
 0001:00034aa0       ?GetValue@i3IniParser@@QAEHPBDPAM@Z 10035aa0 f   i3IniParser.obj
 0001:00034ae0       ?GetValue@i3IniParser@@QAEHPBDPAN@Z 10035ae0 f   i3IniParser.obj
 0001:00034b20       ?GetValues@i3IniParser@@QAEHPBDHPAHHH@Z 10035b20 f   i3IniParser.obj
 0001:00034b60       ?GetValues@i3IniParser@@QAEHPBDMPAMHH@Z 10035b60 f   i3IniParser.obj
 0001:00034ba0       ?GetValues@i3IniParser@@QAEHPBDPAH1HH@Z 10035ba0 f   i3IniParser.obj
 0001:00034be0       ?GetValues@i3IniParser@@QAEHPBDPAHHH@Z 10035be0 f   i3IniParser.obj
 0001:00034ca0       ?GetValues@i3IniParser@@QAEHPBDPAM1HH@Z 10035ca0 f   i3IniParser.obj
 0001:00034d20       ?GetValues@i3IniParser@@QAEHPBDPAMHH@Z 10035d20 f   i3IniParser.obj
 0001:00034de0       ?Open@i3IniParser@@QAEHPAVi3Stream@@HH@Z 10035de0 f   i3IniParser.obj
 0001:00035070       ?OpenFromFile@i3IniParser@@QAEHPBDH@Z 10036070 f   i3IniParser.obj
 0001:00035160       ?ProcessString@i3IniParser@@IAEHPADPBDH@Z 10036160 f   i3IniParser.obj
 0001:00035280       ?ReadSection@i3IniParser@@QAEHPBD@Z 10036280 f   i3IniParser.obj
 0001:000352a0       ?ReadSectionByIndex@i3IniParser@@QAEHH@Z 100362a0 f   i3IniParser.obj
 0001:000352e0       ?ReadSectionByInfo@i3IniParser@@QAEHPAUi3IniSectionInfo@@@Z 100362e0 f   i3IniParser.obj
 0001:000355f0       ?RegisterMeta@i3IniParser@@SAXXZ 100365f0 f   i3IniParser.obj
 0001:00035600       ?RemoveWhiteSpace@i3IniParser@@IAEXPADPBD@Z 10036600 f   i3IniParser.obj
 0001:00035760       ?SetConcreteClass@i3IniParser@@SAXPAVi3ClassMeta@@@Z 10036760 f   i3IniParser.obj
 0001:00035780       ?SetGhostClass@i3IniParser@@SAXPAVi3ClassMeta@@@Z 10036780 f   i3IniParser.obj
 0001:000357a0       ?Write@i3IniParser@@QAAHPBD0ZZ 100367a0 f   i3IniParser.obj
 0001:00035830       ?WriteBool@i3IniParser@@QAEHPBDH@Z 10036830 f   i3IniParser.obj
 0001:00035860       ?WriteSectionName@i3IniParser@@QAEHPBD@Z 10036860 f   i3IniParser.obj
 0001:00035880       ?WriteValue@i3IniParser@@QAEHPBD0@Z 10036880 f   i3IniParser.obj
 0001:000358f0       ?WriteValue@i3IniParser@@QAEHPBDH@Z 100368f0 f   i3IniParser.obj
 0001:00035910       ?WriteValue@i3IniParser@@QAEHPBDI@Z 10036910 f   i3IniParser.obj
 0001:00035930       ?WriteValue@i3IniParser@@QAEHPBDM@Z 10036930 f   i3IniParser.obj
 0001:00035960       ?WriteValue@i3IniParser@@QAEHPBDN@Z 10036960 f   i3IniParser.obj
 0001:00035990       ?_BindObject@i3IniParser@@SAPAV1@PAX@Z 10036990 f   i3IniParser.obj
 0001:000359b0       ?_BindObjectByType@i3IniParser@@SAPAV1@PAXW4I3_CLASSMETA_TYPE@@@Z 100369b0 f   i3IniParser.obj
 0001:000359d0       ?_BindObjectRef@i3IniParser@@SAPAV1@PAX@Z 100369d0 f   i3IniParser.obj
 0001:000359f0       ?_BindObjectRefByType@i3IniParser@@SAPAV1@PAXW4I3_CLASSMETA_TYPE@@@Z 100369f0 f   i3IniParser.obj
 0001:00035a10       ?_NewObject@i3IniParser@@SAPAV1@XZ 10036a10 f   i3IniParser.obj
 0001:00035a30       ?_NewObjectByType@i3IniParser@@SAPAV1@W4I3_CLASSMETA_TYPE@@@Z 10036a30 f   i3IniParser.obj
 0001:00035a50       ?_NewObjectRef@i3IniParser@@SAPAV1@XZ 10036a50 f   i3IniParser.obj
 0001:00035a60       ?_NewObjectRefByType@i3IniParser@@SAPAV1@W4I3_CLASSMETA_TYPE@@@Z 10036a60 f   i3IniParser.obj
 0001:00035a80       ?_ReadLine@i3IniParser@@IAEIPAD@Z 10036a80 f   i3IniParser.obj
 0001:00035b50       ?CreateInstance@?$i3MetaTemplate@Vi3InstanceProxy@@@@UAEPAVi3ElementBase@@W4I3_CLASSMETA_TYPE@@@Z 10036b50 f i i3InstanceProxy.obj
 0001:00035c20       ?BindInstance@?$i3MetaTemplate@Vi3InstanceProxy@@@@UAEPAVi3ElementBase@@PAXW4I3_CLASSMETA_TYPE@@@Z 10036c20 f i i3InstanceProxy.obj
 0001:00035ce0       ??_E?$i3MetaTemplate@Vi3InstanceProxy@@@@UAEPAXI@Z 10036ce0 f i i3InstanceProxy.obj
 0001:00035ce0       ??_G?$i3MetaTemplate@Vi3InstanceProxy@@@@UAEPAXI@Z 10036ce0 f i i3InstanceProxy.obj
 0001:00035d10       ??0?$i3MetaTemplate@Vi3InstanceProxy@@@@QAE@IPAD0W4I3_CLASSMETA_TYPE@@@Z 10036d10 f i i3InstanceProxy.obj
 0001:00035d40       ??0i3InstanceProxy@@QAE@XZ 10036d40 f   i3InstanceProxy.obj
 0001:00035d70       ??1i3InstanceProxy@@UAE@XZ 10036d70 f   i3InstanceProxy.obj
 0001:00035df0       ?GetMeta@i3InstanceProxy@@UAEPAVi3ClassMeta@@XZ 10036df0 f   i3InstanceProxy.obj
 0001:00035e00       ?OnBuildObjectList@i3InstanceProxy@@UAEXAAV?$vector@PAVi3PersistantElement@@V?$pool_allocator@PAVi3PersistantElement@@@i3@@@i3@@@Z 10036e00 f   i3InstanceProxy.obj
 0001:00035ea0       ?OnLoad@i3InstanceProxy@@UAEIPAVi3ResourceFile@@@Z 10036ea0 f   i3InstanceProxy.obj
 0001:00035f80       ?OnQueryStrings@i3InstanceProxy@@UAEXPAVi3StringList@@@Z 10036f80 f   i3InstanceProxy.obj
 0001:00035fb0       ?OnSave@i3InstanceProxy@@UAEIPAVi3ResourceFile@@@Z 10036fb0 f   i3InstanceProxy.obj
 0001:000360a0       ?RegisterMeta@i3InstanceProxy@@SAXXZ 100370a0 f   i3InstanceProxy.obj
 0001:000360b0       ?SetConcreteClass@i3InstanceProxy@@SAXPAVi3ClassMeta@@@Z 100370b0 f   i3InstanceProxy.obj
 0001:000360d0       ?SetGhostClass@i3InstanceProxy@@SAXPAVi3ClassMeta@@@Z 100370d0 f   i3InstanceProxy.obj
 0001:000360f0       ?SetProxyClassName@i3InstanceProxy@@QAEXPBD@Z 100370f0 f   i3InstanceProxy.obj
 0001:00036150       ?_BindObject@i3InstanceProxy@@SAPAV1@PAX@Z 10037150 f   i3InstanceProxy.obj
 0001:00036170       ?_BindObjectByType@i3InstanceProxy@@SAPAV1@PAXW4I3_CLASSMETA_TYPE@@@Z 10037170 f   i3InstanceProxy.obj
 0001:00036190       ?_BindObjectRef@i3InstanceProxy@@SAPAV1@PAX@Z 10037190 f   i3InstanceProxy.obj
 0001:000361b0       ?_BindObjectRefByType@i3InstanceProxy@@SAPAV1@PAXW4I3_CLASSMETA_TYPE@@@Z 100371b0 f   i3InstanceProxy.obj
 0001:000361d0       ?_NewObject@i3InstanceProxy@@SAPAV1@XZ 100371d0 f   i3InstanceProxy.obj
 0001:000361f0       ?_NewObjectByType@i3InstanceProxy@@SAPAV1@W4I3_CLASSMETA_TYPE@@@Z 100371f0 f   i3InstanceProxy.obj
 0001:00036210       ?_NewObjectRef@i3InstanceProxy@@SAPAV1@XZ 10037210 f   i3InstanceProxy.obj
 0001:00036220       ?_NewObjectRefByType@i3InstanceProxy@@SAPAV1@W4I3_CLASSMETA_TYPE@@@Z 10037220 f   i3InstanceProxy.obj
 0001:00036240       ?GetCharByte@i3Language@@YAHI@Z 10037240 f   i3Language.obj
 0001:00036290       ?GetCharMaxCount@i3Language@@YAHIH@Z 10037290 f   i3Language.obj
 0001:000362e0       ?GetCharasetFromCodePage@i3Language@@YAHI@Z 100372e0 f   i3Language.obj
 0001:00036430       ?GetCharsetFromLang@i3Language@@YAHG@Z 10037430 f   i3Language.obj
 0001:00036530       ?GetCodePageFromCharset@i3Language@@YAHH@Z 10037530 f   i3Language.obj
 0001:00036710       ?GetCodePageFromLang@i3Language@@YAHG@Z 10037710 f   i3Language.obj
 0001:00036750       ?GetCodepageFromLocaleId@i3Language@@YAHI@Z 10037750 f   i3Language.obj
 0001:00036b60       ?GetCurrentCodePage@i3Language@@YAIXZ 10037b60 f   i3Language.obj
 0001:00036b80       ?GetDefaultFontName@i3Language@@YAPBDI@Z 10037b80 f   i3Language.obj
 0001:00036c00       ?GetLanguage@i3Language@@YAPBDI@Z 10037c00 f   i3Language.obj
 0001:00036ce0       ?SetCurrentCodePage@i3Language@@YAXI@Z 10037ce0 f   i3Language.obj
 0001:00036cf0       ?CreateInstance@?$i3MetaTemplate@Vi3LineLexer@@@@UAEPAVi3ElementBase@@W4I3_CLASSMETA_TYPE@@@Z 10037cf0 f i i3Lexer.obj
 0001:00036dd0       ?BindInstance@?$i3MetaTemplate@Vi3LineLexer@@@@UAEPAVi3ElementBase@@PAXW4I3_CLASSMETA_TYPE@@@Z 10037dd0 f i i3Lexer.obj
 0001:00036e70       ??_E?$i3MetaTemplate@Vi3LineLexer@@@@UAEPAXI@Z 10037e70 f i i3Lexer.obj
 0001:00036e70       ??_G?$i3MetaTemplate@Vi3LineLexer@@@@UAEPAXI@Z 10037e70 f i i3Lexer.obj
 0001:00036ea0       ?CreateInstance@?$i3MetaTemplate@Vi3SimpleLineLexer@@@@UAEPAVi3ElementBase@@W4I3_CLASSMETA_TYPE@@@Z 10037ea0 f i i3Lexer.obj
 0001:00036f60       ?BindInstance@?$i3MetaTemplate@Vi3SimpleLineLexer@@@@UAEPAVi3ElementBase@@PAXW4I3_CLASSMETA_TYPE@@@Z 10037f60 f i i3Lexer.obj
 0001:00037010       ??_E?$i3MetaTemplate@Vi3SimpleLineLexer@@@@UAEPAXI@Z 10038010 f i i3Lexer.obj
 0001:00037010       ??_G?$i3MetaTemplate@Vi3SimpleLineLexer@@@@UAEPAXI@Z 10038010 f i i3Lexer.obj
 0001:00037040       ??0?$i3MetaTemplate@Vi3LineLexer@@@@QAE@IPAD0W4I3_CLASSMETA_TYPE@@@Z 10038040 f i i3Lexer.obj
 0001:00037070       ??0?$i3MetaTemplate@Vi3SimpleLineLexer@@@@QAE@IPAD0W4I3_CLASSMETA_TYPE@@@Z 10038070 f i i3Lexer.obj
 0001:000370a0       ??0i3LineLexer@@QAE@XZ     100380a0 f   i3Lexer.obj
 0001:000370f0       ??0i3SimpleLineLexer@@QAE@XZ 100380f0 f   i3Lexer.obj
 0001:00037110       ??1i3LineLexer@@UAE@XZ     10038110 f   i3Lexer.obj
 0001:00037120       ??1i3SimpleLineLexer@@UAE@XZ 10038120 f   i3Lexer.obj
 0001:00037130       ?GetMeta@i3LineLexer@@UAEPAVi3ClassMeta@@XZ 10038130 f   i3Lexer.obj
 0001:00037140       ?GetMeta@i3SimpleLineLexer@@UAEPAVi3ClassMeta@@XZ 10038140 f   i3Lexer.obj
 0001:00037150       ?GetNextToken@i3LineLexer@@QAEHPAD00@Z 10038150 f   i3Lexer.obj
 0001:00037270       ?GetNextToken@i3SimpleLineLexer@@QAEPADH@Z 10038270 f   i3Lexer.obj
 0001:000372e0       ?GetNextTokenWithoutWhite@i3LineLexer@@QAEHPAD0@Z 100382e0 f   i3Lexer.obj
 0001:000373b0       ?GetValuesFromString@i3SimpleLineLexer@@QAEHPAHHHPAD@Z 100383b0 f   i3Lexer.obj
 0001:00037470       ?GetValuesFromString@i3SimpleLineLexer@@QAEHPAMHHPAD@Z 10038470 f   i3Lexer.obj
 0001:00037520       ?IsSeparator@i3LineLexer@@QAE_NDPAD@Z 10038520 f   i3Lexer.obj
 0001:00037550       ?IsWhiteCode@i3LineLexer@@QAE_ND@Z 10038550 f   i3Lexer.obj
 0001:00037580       ?RegisterMeta@i3LineLexer@@SAXXZ 10038580 f   i3Lexer.obj
 0001:00037590       ?RegisterMeta@i3SimpleLineLexer@@SAXXZ 10038590 f   i3Lexer.obj
 0001:000375a0       ?SetConcreteClass@i3LineLexer@@SAXPAVi3ClassMeta@@@Z 100385a0 f   i3Lexer.obj
 0001:000375c0       ?SetConcreteClass@i3SimpleLineLexer@@SAXPAVi3ClassMeta@@@Z 100385c0 f   i3Lexer.obj
 0001:000375e0       ?SetGhostClass@i3LineLexer@@SAXPAVi3ClassMeta@@@Z 100385e0 f   i3Lexer.obj
 0001:00037600       ?SetGhostClass@i3SimpleLineLexer@@SAXPAVi3ClassMeta@@@Z 10038600 f   i3Lexer.obj
 0001:00037620       ?SetMasterString@i3LineLexer@@QAEXPAD@Z 10038620 f   i3Lexer.obj
 0001:00037650       ?SetText@i3SimpleLineLexer@@QAEXPAD@Z 10038650 f   i3Lexer.obj
 0001:00037680       ?_BindObject@i3LineLexer@@SAPAV1@PAX@Z 10038680 f   i3Lexer.obj
 0001:000376a0       ?_BindObject@i3SimpleLineLexer@@SAPAV1@PAX@Z 100386a0 f   i3Lexer.obj
 0001:000376c0       ?_BindObjectByType@i3LineLexer@@SAPAV1@PAXW4I3_CLASSMETA_TYPE@@@Z 100386c0 f   i3Lexer.obj
 0001:000376e0       ?_BindObjectByType@i3SimpleLineLexer@@SAPAV1@PAXW4I3_CLASSMETA_TYPE@@@Z 100386e0 f   i3Lexer.obj
 0001:00037700       ?_BindObjectRef@i3LineLexer@@SAPAV1@PAX@Z 10038700 f   i3Lexer.obj
 0001:00037720       ?_BindObjectRef@i3SimpleLineLexer@@SAPAV1@PAX@Z 10038720 f   i3Lexer.obj
 0001:00037740       ?_BindObjectRefByType@i3LineLexer@@SAPAV1@PAXW4I3_CLASSMETA_TYPE@@@Z 10038740 f   i3Lexer.obj
 0001:00037760       ?_BindObjectRefByType@i3SimpleLineLexer@@SAPAV1@PAXW4I3_CLASSMETA_TYPE@@@Z 10038760 f   i3Lexer.obj
 0001:00037780       ?_NewObject@i3LineLexer@@SAPAV1@XZ 10038780 f   i3Lexer.obj
 0001:000377a0       ?_NewObject@i3SimpleLineLexer@@SAPAV1@XZ 100387a0 f   i3Lexer.obj
 0001:000377c0       ?_NewObjectByType@i3LineLexer@@SAPAV1@W4I3_CLASSMETA_TYPE@@@Z 100387c0 f   i3Lexer.obj
 0001:000377e0       ?_NewObjectByType@i3SimpleLineLexer@@SAPAV1@W4I3_CLASSMETA_TYPE@@@Z 100387e0 f   i3Lexer.obj
 0001:00037800       ?_NewObjectRef@i3LineLexer@@SAPAV1@XZ 10038800 f   i3Lexer.obj
 0001:00037810       ?_NewObjectRef@i3SimpleLineLexer@@SAPAV1@XZ 10038810 f   i3Lexer.obj
 0001:00037820       ?_NewObjectRefByType@i3LineLexer@@SAPAV1@W4I3_CLASSMETA_TYPE@@@Z 10038820 f   i3Lexer.obj
 0001:00037840       ?_NewObjectRefByType@i3SimpleLineLexer@@SAPAV1@W4I3_CLASSMETA_TYPE@@@Z 10038840 f   i3Lexer.obj
 0001:00037860       ?CreateInstance@?$i3MetaTemplate@Vi3List@@@@UAEPAVi3ElementBase@@W4I3_CLASSMETA_TYPE@@@Z 10038860 f i i3List.obj
 0001:00037940       ?BindInstance@?$i3MetaTemplate@Vi3List@@@@UAEPAVi3ElementBase@@PAXW4I3_CLASSMETA_TYPE@@@Z 10038940 f i i3List.obj
 0001:000379e0       ??_E?$i3MetaTemplate@Vi3List@@@@UAEPAXI@Z 100389e0 f i i3List.obj
 0001:000379e0       ??_G?$i3MetaTemplate@Vi3List@@@@UAEPAXI@Z 100389e0 f i i3List.obj
 0001:00037a10       ?CreateInstance@?$i3MetaTemplate@Vi3StringList@@@@UAEPAVi3ElementBase@@W4I3_CLASSMETA_TYPE@@@Z 10038a10 f i i3List.obj
 0001:00037b00       ?BindInstance@?$i3MetaTemplate@Vi3StringList@@@@UAEPAVi3ElementBase@@PAXW4I3_CLASSMETA_TYPE@@@Z 10038b00 f i i3List.obj
 0001:00037bd0       ??_E?$i3MetaTemplate@Vi3StringList@@@@UAEPAXI@Z 10038bd0 f i i3List.obj
 0001:00037bd0       ??_G?$i3MetaTemplate@Vi3StringList@@@@UAEPAXI@Z 10038bd0 f i i3List.obj
 0001:00037c00       ??0?$i3MetaTemplate@Vi3List@@@@QAE@IPAD0W4I3_CLASSMETA_TYPE@@@Z 10038c00 f i i3List.obj
 0001:00037c30       ??0?$i3MetaTemplate@Vi3StringList@@@@QAE@IPAD0W4I3_CLASSMETA_TYPE@@@Z 10038c30 f i i3List.obj
 0001:00037c60       ??0i3List@@QAE@H@Z         10038c60 f   i3List.obj
 0001:00037cd0       ??0i3StringList@@QAE@H@Z   10038cd0 f   i3List.obj
 0001:00037d20       ??1i3List@@UAE@XZ          10038d20 f   i3List.obj
 0001:00037d70       ??1i3StringList@@UAE@XZ    10038d70 f   i3List.obj
 0001:00037e10       ?Add@i3List@@UAEHPAX@Z     10038e10 f   i3List.obj
 0001:00037e70       ?Add@i3StringList@@UAEHPADH@Z 10038e70 f   i3List.obj
 0001:00037f40       ?Clear@i3List@@UAEXH@Z     10038f40 f   i3List.obj
 0001:00037f80       ?Clear@i3StringList@@UAEXXZ 10038f80 f   i3List.obj
 0001:00038020       ?Copy@i3List@@QAEXPBV1@@Z  10039020 f   i3List.obj
 0001:00038060       ?CopyFromBuffer@i3StringList@@QAEXPAD_N@Z 10039060 f   i3List.obj
 0001:000380d0       ?CopyToBuffer@i3StringList@@QAEXPADHPAH@Z 100390d0 f   i3List.obj
 0001:000381d0       ?Delete@i3List@@UAEHH@Z    100391d0 f   i3List.obj
 0001:00038220       ?Delete@i3StringList@@UAEHH@Z 10039220 f   i3List.obj
 0001:00038280       ?GetBufferSize@i3StringList@@QAEHXZ 10039280 f   i3List.obj
 0001:000382b0       ?GetMeta@i3List@@UAEPAVi3ClassMeta@@XZ 100392b0 f   i3List.obj
 0001:000382c0       ?GetMeta@i3StringList@@UAEPAVi3ClassMeta@@XZ 100392c0 f   i3List.obj
 0001:000382d0       ?IndexOf@i3List@@UBEHPBX@Z 100392d0 f   i3List.obj
 0001:00038300       ?IndexOf@i3StringList@@UBEHPAD@Z 10039300 f   i3List.obj
 0001:00038360       ?Insert@i3List@@UAEHHPAX@Z 10039360 f   i3List.obj
 0001:000383d0       ?Insert@i3StringList@@UAEHHPADH@Z 100393d0 f   i3List.obj
 0001:000384b0       ?LoadFrom@i3List@@QAEIPAVi3ResourceFile@@_N@Z 100394b0 f   i3List.obj
 0001:000385b0       ?LoadFrom@i3StringList@@QAEIPAVi3ResourceFile@@@Z 100395b0 f   i3List.obj
 0001:000386a0       ?LoadFromXML@i3List@@QAE_NPBDPAVi3XMLFile@@PAVi3XMLElement@@_N@Z 100396a0 f   i3List.obj
 0001:00038800       ?LoadFromXML@i3StringList@@QAE_NPBDPAVi3XMLFile@@PAVi3XMLElement@@@Z 10039800 f   i3List.obj
 0001:000388c0       ?MakeFileFilter@i3StringList@@QAEPADXZ 100398c0 f   i3List.obj
 0001:00038970       ?OptimizeMemory@i3List@@QAEXXZ 10039970 f   i3List.obj
 0001:00038980       ?OptimizeMemory@i3StringList@@QAEXXZ 10039980 f   i3List.obj
 0001:00038990       ?RegisterMeta@i3List@@SAXXZ 10039990 f   i3List.obj
 0001:000389a0       ?RegisterMeta@i3StringList@@SAXXZ 100399a0 f   i3List.obj
 0001:000389b0       ?Remove@i3List@@UAEHPAX@Z  100399b0 f   i3List.obj
 0001:000389e0       ?Remove@i3StringList@@UAEHPAD@Z 100399e0 f   i3List.obj
 0001:00038a10       ?ResizeBuffer@i3List@@IAEHH@Z 10039a10 f   i3List.obj
 0001:00038ad0       ?ResizeBuffer@i3StringList@@IAEHH@Z 10039ad0 f   i3List.obj
 0001:00038b50       ?SaveTo@i3List@@QAEIPAVi3ResourceFile@@@Z 10039b50 f   i3List.obj
 0001:00038c20       ?SaveTo@i3StringList@@QAEIPAVi3ResourceFile@@@Z 10039c20 f   i3List.obj
 0001:00038d30       ?SaveToXML@i3List@@QAE_NPBDPAVi3XMLFile@@PAVi3XMLElement@@_N@Z 10039d30 f   i3List.obj
 0001:00038e40       ?SaveToXML@i3StringList@@QAE_NPBDPAVi3XMLFile@@PAVi3XMLElement@@@Z 10039e40 f   i3List.obj
 0001:00038f20       ?SetAllocationUnit@i3List@@QAEXH@Z 10039f20 f   i3List.obj
 0001:00038f50       ?SetAllocationUnit@i3StringList@@QAEXH@Z 10039f50 f   i3List.obj
 0001:00038f80       ?SetConcreteClass@i3List@@SAXPAVi3ClassMeta@@@Z 10039f80 f   i3List.obj
 0001:00038fa0       ?SetConcreteClass@i3StringList@@SAXPAVi3ClassMeta@@@Z 10039fa0 f   i3List.obj
 0001:00038fc0       ?SetCount@i3List@@QAEXH@Z  10039fc0 f   i3List.obj
 0001:00038ff0       ?SetGhostClass@i3List@@SAXPAVi3ClassMeta@@@Z 10039ff0 f   i3List.obj
 0001:00039010       ?SetGhostClass@i3StringList@@SAXPAVi3ClassMeta@@@Z 1003a010 f   i3List.obj
 0001:00039030       ?SetItem@i3List@@QAEXHPAX@Z 1003a030 f   i3List.obj
 0001:00039060       ?Sort@i3List@@QAEXP6AHPAX0@Z@Z 1003a060 f   i3List.obj
 0001:00039090       ?_BindObject@i3List@@SAPAV1@PAX@Z 1003a090 f   i3List.obj
 0001:000390b0       ?_BindObject@i3StringList@@SAPAV1@PAX@Z 1003a0b0 f   i3List.obj
 0001:000390d0       ?_BindObjectByType@i3List@@SAPAV1@PAXW4I3_CLASSMETA_TYPE@@@Z 1003a0d0 f   i3List.obj
 0001:000390f0       ?_BindObjectByType@i3StringList@@SAPAV1@PAXW4I3_CLASSMETA_TYPE@@@Z 1003a0f0 f   i3List.obj
 0001:00039110       ?_BindObjectRef@i3List@@SAPAV1@PAX@Z 1003a110 f   i3List.obj
 0001:00039130       ?_BindObjectRef@i3StringList@@SAPAV1@PAX@Z 1003a130 f   i3List.obj
 0001:00039150       ?_BindObjectRefByType@i3List@@SAPAV1@PAXW4I3_CLASSMETA_TYPE@@@Z 1003a150 f   i3List.obj
 0001:00039170       ?_BindObjectRefByType@i3StringList@@SAPAV1@PAXW4I3_CLASSMETA_TYPE@@@Z 1003a170 f   i3List.obj
 0001:00039190       ?_InsertionSort@i3List@@IAEXHHP6AHPAX0@Z@Z 1003a190 f   i3List.obj
 0001:00039200       ?_NewObject@i3List@@SAPAV1@XZ 1003a200 f   i3List.obj
 0001:00039220       ?_NewObject@i3StringList@@SAPAV1@XZ 1003a220 f   i3List.obj
 0001:00039240       ?_NewObjectByType@i3List@@SAPAV1@W4I3_CLASSMETA_TYPE@@@Z 1003a240 f   i3List.obj
 0001:00039260       ?_NewObjectByType@i3StringList@@SAPAV1@W4I3_CLASSMETA_TYPE@@@Z 1003a260 f   i3List.obj
 0001:00039280       ?_NewObjectRef@i3List@@SAPAV1@XZ 1003a280 f   i3List.obj
 0001:00039290       ?_NewObjectRef@i3StringList@@SAPAV1@XZ 1003a290 f   i3List.obj
 0001:000392a0       ?_NewObjectRefByType@i3List@@SAPAV1@W4I3_CLASSMETA_TYPE@@@Z 1003a2a0 f   i3List.obj
 0001:000392c0       ?_NewObjectRefByType@i3StringList@@SAPAV1@W4I3_CLASSMETA_TYPE@@@Z 1003a2c0 f   i3List.obj
 0001:000392e0       ?_NonRecursiveQuickSort@i3List@@IAEXHHP6AHPAX0@Z@Z 1003a2e0 f   i3List.obj
 0001:00039490       ?_Partition@i3List@@IAEHHHP6AHPAX0@Z@Z 1003a490 f   i3List.obj
 0001:00039540       ?_Qpop@i3List@@IAEXPAH0@Z  1003a540 f   i3List.obj
 0001:00039570       ?_Qpush@i3List@@IAEXHH@Z   1003a570 f   i3List.obj
 0001:000395a0       ?_RecursiveQuickSort@i3List@@IAEXHHP6AHPAX0@Z@Z 1003a5a0 f   i3List.obj
 0001:000395f0       ?__Free@i3List@@AAEXXZ     1003a5f0 f i i3List.obj
 0001:00039650       ?CreateInstance@?$i3MetaTemplate@Vi3LRUQueue@@@@UAEPAVi3ElementBase@@W4I3_CLASSMETA_TYPE@@@Z 1003a650 f i i3LRUQueue.obj
 0001:00039730       ?BindInstance@?$i3MetaTemplate@Vi3LRUQueue@@@@UAEPAVi3ElementBase@@PAXW4I3_CLASSMETA_TYPE@@@Z 1003a730 f i i3LRUQueue.obj
 0001:000397d0       ??_E?$i3MetaTemplate@Vi3LRUQueue@@@@UAEPAXI@Z 1003a7d0 f i i3LRUQueue.obj
 0001:000397d0       ??_G?$i3MetaTemplate@Vi3LRUQueue@@@@UAEPAXI@Z 1003a7d0 f i i3LRUQueue.obj
 0001:00039800       ??0?$i3MetaTemplate@Vi3LRUQueue@@@@QAE@IPAD0W4I3_CLASSMETA_TYPE@@@Z 1003a800 f i i3LRUQueue.obj
 0001:00039830       ??0i3LRUQueue@@QAE@XZ      1003a830 f   i3LRUQueue.obj
 0001:000398c0       ??1i3LRUQueue@@UAE@XZ      1003a8c0 f   i3LRUQueue.obj
 0001:00039950       ?AllocEntry@i3LRUQueue@@IAEPAUI3_LRU_ENTRY@@PAX@Z 1003a950 f   i3LRUQueue.obj
 0001:000399b0       ?Create@i3LRUQueue@@QAEXH@Z 1003a9b0 f   i3LRUQueue.obj
 0001:000399f0       ?DeleteAllData@i3LRUQueue@@IAEXXZ 1003a9f0 f   i3LRUQueue.obj
 0001:00039a40       ?DeleteData@i3LRUQueue@@IAEXPAX@Z 1003aa40 f   i3LRUQueue.obj
 0001:00039aa0       ?DumpUsed@i3LRUQueue@@QAEXXZ 1003aaa0 f   i3LRUQueue.obj
 0001:00039ab0       ?FindData@i3LRUQueue@@QAEPAXPAX@Z 1003aab0 f   i3LRUQueue.obj
 0001:00039b00       ?FreeEntry@i3LRUQueue@@IAEXPAUI3_LRU_ENTRY@@@Z 1003ab00 f   i3LRUQueue.obj
 0001:00039ba0       ?GetMeta@i3LRUQueue@@UAEPAVi3ClassMeta@@XZ 1003aba0 f   i3LRUQueue.obj
 0001:00039bb0       ?GetUsedData@i3LRUQueue@@QAEHPAPAXH@Z 1003abb0 f   i3LRUQueue.obj
 0001:00039be0       ?LinkToUsedList@i3LRUQueue@@IAEXPAUI3_LRU_ENTRY@@@Z 1003abe0 f   i3LRUQueue.obj
 0001:00039c10       ?PopOldest@i3LRUQueue@@QAEPAXXZ 1003ac10 f   i3LRUQueue.obj
 0001:00039c20       ?PushUsed@i3LRUQueue@@QAEXPAXI@Z 1003ac20 f   i3LRUQueue.obj
 0001:00039d00       ?RegisterMeta@i3LRUQueue@@SAXXZ 1003ad00 f   i3LRUQueue.obj
 0001:00039d10       ?Remove@i3LRUQueue@@QAEXPAX@Z 1003ad10 f   i3LRUQueue.obj
 0001:00039d70       ?Reset@i3LRUQueue@@QAEXXZ  1003ad70 f   i3LRUQueue.obj
 0001:00039e10       ?SetCompareProc@i3LRUQueue@@QAEXP6AHPAX0@Z@Z 1003ae10 f   i3LRUQueue.obj
 0001:00039e20       ?SetConcreteClass@i3LRUQueue@@SAXPAVi3ClassMeta@@@Z 1003ae20 f   i3LRUQueue.obj
 0001:00039e40       ?SetGhostClass@i3LRUQueue@@SAXPAVi3ClassMeta@@@Z 1003ae40 f   i3LRUQueue.obj
 0001:00039e60       ?UnlinkFromUsedList@i3LRUQueue@@IAEXPAUI3_LRU_ENTRY@@@Z 1003ae60 f   i3LRUQueue.obj
 0001:00039ea0       ?VerifyUsed@i3LRUQueue@@QAEXXZ 1003aea0 f   i3LRUQueue.obj
 0001:00039eb0       ?_BindObject@i3LRUQueue@@SAPAV1@PAX@Z 1003aeb0 f   i3LRUQueue.obj
 0001:00039ed0       ?_BindObjectByType@i3LRUQueue@@SAPAV1@PAXW4I3_CLASSMETA_TYPE@@@Z 1003aed0 f   i3LRUQueue.obj
 0001:00039ef0       ?_BindObjectRef@i3LRUQueue@@SAPAV1@PAX@Z 1003aef0 f   i3LRUQueue.obj
 0001:00039f10       ?_BindObjectRefByType@i3LRUQueue@@SAPAV1@PAXW4I3_CLASSMETA_TYPE@@@Z 1003af10 f   i3LRUQueue.obj
 0001:00039f30       ?_FindData@i3LRUQueue@@IAEHPAX@Z 1003af30 f   i3LRUQueue.obj
 0001:00039f50       ?_NewObject@i3LRUQueue@@SAPAV1@XZ 1003af50 f   i3LRUQueue.obj
 0001:00039f70       ?_NewObjectByType@i3LRUQueue@@SAPAV1@W4I3_CLASSMETA_TYPE@@@Z 1003af70 f   i3LRUQueue.obj
 0001:00039f90       ?_NewObjectRef@i3LRUQueue@@SAPAV1@XZ 1003af90 f   i3LRUQueue.obj
 0001:00039fa0       ?_NewObjectRefByType@i3LRUQueue@@SAPAV1@W4I3_CLASSMETA_TYPE@@@Z 1003afa0 f   i3LRUQueue.obj
 0001:00039fe0       ?CheckExpection@i3MapFileParser@@QAEHPBD0@Z 1003afe0 f   i3MapFileParser.obj
 0001:0003a010       ?CheckExpection@i3MapFileParser@@QAEHPBDK@Z 1003b010 f   i3MapFileParser.obj
 0001:0003a030       ?CheckExpection@i3MapFileParser@@QAEHPBDPAX@Z 1003b030 f   i3MapFileParser.obj
 0001:0003a0a0       ?GetAddressInfo@i3MapFileParser@@QAEHPAU_iobuf@@KPAD11@Z 1003b0a0 f   i3MapFileParser.obj
 0001:0003a170       ?GetAddressInfoReal@i3MapFileParser@@QAEHPAU_iobuf@@KPAD11@Z 1003b170 f   i3MapFileParser.obj
 0001:0003a310       ?GetFunctionName@i3MapFileParser@@QAEXPAD0@Z 1003b310 f   i3MapFileParser.obj
 0001:0003a370       ?GetHexConvert@i3MapFileParser@@QAEHD@Z 1003b370 f   i3MapFileParser.obj
 0001:0003a3b0       ?GetHexMult@i3MapFileParser@@QAEHH@Z 1003b3b0 f   i3MapFileParser.obj
 0001:0003a3e0       ?GetHexValue@i3MapFileParser@@QAEKPBD@Z 1003b3e0 f   i3MapFileParser.obj
 0001:0003a470       ?GetLineClassName@i3MapFileParser@@QAEXPBDPAD@Z 1003b470 f   i3MapFileParser.obj
 0001:0003a4d0       ?GetLineInfo@i3MapFileParser@@QAEHPAU_iobuf@@KPBD1PAHPAD@Z 1003b4d0 f   i3MapFileParser.obj
 0001:0003a5d0       ?GetLineReal@i3MapFileParser@@QAEHPAU_iobuf@@KPBDPAH@Z 1003b5d0 f   i3MapFileParser.obj
 0001:0003a7e0       ?GetObjectName@i3MapFileParser@@QAEXPAD0@Z 1003b7e0 f   i3MapFileParser.obj
 0001:0003a840       ?GetStartAddress@i3MapFileParser@@QAEHPAU_iobuf@@PAK@Z 1003b840 f   i3MapFileParser.obj
 0001:0003a920       ?SetCheckExpection@i3MapFileParser@@QAEHPBDK@Z 1003b920 f   i3MapFileParser.obj
 0001:0003aa60       _sscanf                    1003ba60 f i i3MapFileParser.obj
 0001:0003aa90       ?Gen@i3MD5@@YAXPADHQAD@Z   1003ba90 f   i3MD5.obj
 0001:0003aaa0       ?GenHMAC@i3MD5@@YAXPADH0HQAD@Z 1003baa0 f   i3MD5.obj
 0001:0003ab70       ?GetMD5String@i3MD5@@YAXPADVUINT128@@@Z 1003bb70 f   i3MD5.obj
 0001:0003acf0       ?Getmd5_file@i3MD5@@YAHPADQAE@Z 1003bcf0 f   i3MD5.obj
 0001:0003ae20       ?HMAC_Finish@i3MD5@@YAXPAUmd5_context@@QAD@Z 1003be20 f   i3MD5.obj
 0001:0003ae30       ?HMAC_Start@i3MD5@@YAXPAUmd5_context@@PADH@Z 1003be30 f   i3MD5.obj
 0001:0003ae40       ?HMAC_Update@i3MD5@@YAXPAUmd5_context@@PADH@Z 1003be40 f   i3MD5.obj
 0001:0003b660       _md5                       1003c660 f   i3MD5.obj
 0001:0003b6f0       _md5_file                  1003c6f0 f   i3MD5.obj
 0001:0003b820       _md5_finish                1003c820 f   i3MD5.obj
 0001:0003b940       _md5_hmac                  1003c940 f   i3MD5.obj
 0001:0003ba10       _md5_hmac_finish           1003ca10 f   i3MD5.obj
 0001:0003ba90       _md5_hmac_starts           1003ca90 f   i3MD5.obj
 0001:0003bb40       _md5_hmac_update           1003cb40 f   i3MD5.obj
 0001:0003bb50       _md5_starts                1003cb50 f   i3MD5.obj
 0001:0003bb90       _md5_update                1003cb90 f   i3MD5.obj
 0001:0003bc40       ?CreateInstance@?$i3MetaTemplate@Vi3MemoryBuffer@@@@UAEPAVi3ElementBase@@W4I3_CLASSMETA_TYPE@@@Z 1003cc40 f i i3MemoryBuffer.obj
 0001:0003bd20       ?BindInstance@?$i3MetaTemplate@Vi3MemoryBuffer@@@@UAEPAVi3ElementBase@@PAXW4I3_CLASSMETA_TYPE@@@Z 1003cd20 f i i3MemoryBuffer.obj
 0001:0003bdf0       ??_E?$i3MetaTemplate@Vi3MemoryBuffer@@@@UAEPAXI@Z 1003cdf0 f i i3MemoryBuffer.obj
 0001:0003bdf0       ??_G?$i3MetaTemplate@Vi3MemoryBuffer@@@@UAEPAXI@Z 1003cdf0 f i i3MemoryBuffer.obj
 0001:0003be20       ??0?$i3MetaTemplate@Vi3MemoryBuffer@@@@QAE@IPAD0W4I3_CLASSMETA_TYPE@@@Z 1003ce20 f i i3MemoryBuffer.obj
 0001:0003be50       ??0i3MemoryBuffer@@QAE@XZ  1003ce50 f   i3MemoryBuffer.obj
 0001:0003be90       ??1i3MemoryBuffer@@UAE@XZ  1003ce90 f   i3MemoryBuffer.obj
 0001:0003bf10       ?Bind@i3MemoryBuffer@@QAEHPAXI@Z 1003cf10 f   i3MemoryBuffer.obj
 0001:0003bf40       ?Create@i3MemoryBuffer@@QAEHI@Z 1003cf40 f   i3MemoryBuffer.obj
 0001:0003bfa0       ?GetMeta@i3MemoryBuffer@@UAEPAVi3ClassMeta@@XZ 1003cfa0 f   i3MemoryBuffer.obj
 0001:0003bfb0       ?OnLoad@i3MemoryBuffer@@UAEIPAVi3ResourceFile@@@Z 1003cfb0 f   i3MemoryBuffer.obj
 0001:0003c030       ?OnSave@i3MemoryBuffer@@UAEIPAVi3ResourceFile@@@Z 1003d030 f   i3MemoryBuffer.obj
 0001:0003c0b0       ?RegisterMeta@i3MemoryBuffer@@SAXXZ 1003d0b0 f   i3MemoryBuffer.obj
 0001:0003c0c0       ?SetConcreteClass@i3MemoryBuffer@@SAXPAVi3ClassMeta@@@Z 1003d0c0 f   i3MemoryBuffer.obj
 0001:0003c0e0       ?SetGhostClass@i3MemoryBuffer@@SAXPAVi3ClassMeta@@@Z 1003d0e0 f   i3MemoryBuffer.obj
 0001:0003c100       ?_BindObject@i3MemoryBuffer@@SAPAV1@PAX@Z 1003d100 f   i3MemoryBuffer.obj
 0001:0003c120       ?_BindObjectByType@i3MemoryBuffer@@SAPAV1@PAXW4I3_CLASSMETA_TYPE@@@Z 1003d120 f   i3MemoryBuffer.obj
 0001:0003c140       ?_BindObjectRef@i3MemoryBuffer@@SAPAV1@PAX@Z 1003d140 f   i3MemoryBuffer.obj
 0001:0003c160       ?_BindObjectRefByType@i3MemoryBuffer@@SAPAV1@PAXW4I3_CLASSMETA_TYPE@@@Z 1003d160 f   i3MemoryBuffer.obj
 0001:0003c180       ?_NewObject@i3MemoryBuffer@@SAPAV1@XZ 1003d180 f   i3MemoryBuffer.obj
 0001:0003c1a0       ?_NewObjectByType@i3MemoryBuffer@@SAPAV1@W4I3_CLASSMETA_TYPE@@@Z 1003d1a0 f   i3MemoryBuffer.obj
 0001:0003c1c0       ?_NewObjectRef@i3MemoryBuffer@@SAPAV1@XZ 1003d1c0 f   i3MemoryBuffer.obj
 0001:0003c1d0       ?_NewObjectRefByType@i3MemoryBuffer@@SAPAV1@W4I3_CLASSMETA_TYPE@@@Z 1003d1d0 f   i3MemoryBuffer.obj
 0001:0003c1f0       ??0i3MemoryPool@@QAE@XZ    1003d1f0 f   i3MemoryPool.obj
 0001:0003c200       ??1i3MemoryPool@@UAE@XZ    1003d200 f   i3MemoryPool.obj
 0001:0003c210       ?CreateInstance@?$i3MetaTemplate@Vi3NamedElement@@@@UAEPAVi3ElementBase@@W4I3_CLASSMETA_TYPE@@@Z 1003d210 f i i3NamedElement.obj
 0001:0003c2e0       ?BindInstance@?$i3MetaTemplate@Vi3NamedElement@@@@UAEPAVi3ElementBase@@PAXW4I3_CLASSMETA_TYPE@@@Z 1003d2e0 f i i3NamedElement.obj
 0001:0003c390       ??_E?$i3MetaTemplate@Vi3NamedElement@@@@UAEPAXI@Z 1003d390 f i i3NamedElement.obj
 0001:0003c390       ??_G?$i3MetaTemplate@Vi3NamedElement@@@@UAEPAXI@Z 1003d390 f i i3NamedElement.obj
 0001:0003c3c0       ??0?$i3MetaTemplate@Vi3NamedElement@@@@QAE@IPAD0W4I3_CLASSMETA_TYPE@@@Z 1003d3c0 f i i3NamedElement.obj
 0001:0003c3f0       ??0i3NamedElement@@QAE@XZ  1003d3f0 f   i3NamedElement.obj
 0001:0003c410       ??1i3NamedElement@@UAE@XZ  1003d410 f   i3NamedElement.obj
 0001:0003c420       ?CopyTo@i3NamedElement@@UAEXPAVi3ElementBase@@W4I3_COPY_METHOD@@@Z 1003d420 f   i3NamedElement.obj
 0001:0003c450       ?GetMeta@i3NamedElement@@UAEPAVi3ClassMeta@@XZ 1003d450 f   i3NamedElement.obj
 0001:0003c460       ?OnLoad@i3NamedElement@@UAEIPAVi3ResourceFile@@@Z 1003d460 f   i3NamedElement.obj
 0001:0003c520       ?OnLoadXML@i3NamedElement@@UAE_NPAVi3XMLFile@@PAVi3XMLElement@@@Z 1003d520 f   i3NamedElement.obj
 0001:0003c550       ?OnQueryStrings@i3NamedElement@@UAEXPAVi3StringList@@@Z 1003d550 f   i3NamedElement.obj
 0001:0003c580       ?OnSave@i3NamedElement@@UAEIPAVi3ResourceFile@@@Z 1003d580 f   i3NamedElement.obj
 0001:0003c600       ?OnSaveXML@i3NamedElement@@UAE_NPAVi3XMLFile@@PAVi3XMLElement@@@Z 1003d600 f   i3NamedElement.obj
 0001:0003c630       ?RegisterMeta@i3NamedElement@@SAXXZ 1003d630 f   i3NamedElement.obj
 0001:0003c640       ?SetConcreteClass@i3NamedElement@@SAXPAVi3ClassMeta@@@Z 1003d640 f   i3NamedElement.obj
 0001:0003c660       ?SetGhostClass@i3NamedElement@@SAXPAVi3ClassMeta@@@Z 1003d660 f   i3NamedElement.obj
 0001:0003c680       ?SetName@i3NamedElement@@UAEXPBD@Z 1003d680 f   i3NamedElement.obj
 0001:0003c6a0       ?_BindObject@i3NamedElement@@SAPAV1@PAX@Z 1003d6a0 f   i3NamedElement.obj
 0001:0003c6c0       ?_BindObjectByType@i3NamedElement@@SAPAV1@PAXW4I3_CLASSMETA_TYPE@@@Z 1003d6c0 f   i3NamedElement.obj
 0001:0003c6e0       ?_BindObjectRef@i3NamedElement@@SAPAV1@PAX@Z 1003d6e0 f   i3NamedElement.obj
 0001:0003c700       ?_BindObjectRefByType@i3NamedElement@@SAPAV1@PAXW4I3_CLASSMETA_TYPE@@@Z 1003d700 f   i3NamedElement.obj
 0001:0003c720       ?_NewObject@i3NamedElement@@SAPAV1@XZ 1003d720 f   i3NamedElement.obj
 0001:0003c740       ?_NewObjectByType@i3NamedElement@@SAPAV1@W4I3_CLASSMETA_TYPE@@@Z 1003d740 f   i3NamedElement.obj
 0001:0003c760       ?_NewObjectRef@i3NamedElement@@SAPAV1@XZ 1003d760 f   i3NamedElement.obj
 0001:0003c770       ?_NewObjectRefByType@i3NamedElement@@SAPAV1@W4I3_CLASSMETA_TYPE@@@Z 1003d770 f   i3NamedElement.obj
 0001:0003c790       ?CreateInstance@?$i3MetaTemplate@Vi3NamedResourceManager@@@@UAEPAVi3ElementBase@@W4I3_CLASSMETA_TYPE@@@Z 1003d790 f i i3NamedResourceManager.obj
 0001:0003c870       ?BindInstance@?$i3MetaTemplate@Vi3NamedResourceManager@@@@UAEPAVi3ElementBase@@PAXW4I3_CLASSMETA_TYPE@@@Z 1003d870 f i i3NamedResourceManager.obj
 0001:0003c910       ??_E?$i3MetaTemplate@Vi3NamedResourceManager@@@@UAEPAXI@Z 1003d910 f i i3NamedResourceManager.obj
 0001:0003c910       ??_G?$i3MetaTemplate@Vi3NamedResourceManager@@@@UAEPAXI@Z 1003d910 f i i3NamedResourceManager.obj
 0001:0003c940       ??0?$i3MetaTemplate@Vi3NamedResourceManager@@@@QAE@IPAD0W4I3_CLASSMETA_TYPE@@@Z 1003d940 f i i3NamedResourceManager.obj
 0001:0003c970       ??0i3NamedResourceManager@@QAE@XZ 1003d970 f   i3NamedResourceManager.obj
 0001:0003ca60       ??1i3NamedResourceManager@@UAE@XZ 1003da60 f   i3NamedResourceManager.obj
 0001:0003cb80       ?AddResource@i3NamedResourceManager@@QAEXPAVi3ResourceObject@@PBD@Z 1003db80 f   i3NamedResourceManager.obj
 0001:0003cc10       ?DeleteUnusedObjects@i3NamedResourceManager@@QAEHXZ 1003dc10 f   i3NamedResourceManager.obj
 0001:0003cca0       ?Dump@i3NamedResourceManager@@QAEXXZ 1003dca0 f   i3NamedResourceManager.obj
 0001:0003ccc0       ?FindByMeta@i3NamedResourceManager@@SAPAV1@PAVi3ClassMeta@@@Z 1003dcc0 f   i3NamedResourceManager.obj
 0001:0003cd40       ?FindResourceA@i3NamedResourceManager@@QAEPAVi3ResourceObject@@PBD@Z 1003dd40 f   i3NamedResourceManager.obj
 0001:0003ce40       ?GetMeta@i3NamedResourceManager@@UAEPAVi3ClassMeta@@XZ 1003de40 f   i3NamedResourceManager.obj
 0001:0003ce50       ?GetResource@i3NamedResourceManager@@UAEPAVi3ResourceObject@@PBD00@Z 1003de50 f   i3NamedResourceManager.obj
 0001:0003ce60       ?RegisterMeta@i3NamedResourceManager@@SAXXZ 1003de60 f   i3NamedResourceManager.obj
 0001:0003ce70       ?Reset@i3NamedResourceManager@@SAXXZ 1003de70 f   i3NamedResourceManager.obj
 0001:0003cf50       ?SaveResource@i3NamedResourceManager@@UAEIPBDPAVi3ResourceObject@@@Z 1003df50 f   i3NamedResourceManager.obj
 0001:0003cf60       ?SetCommonResourceState@i3NamedResourceManager@@SAX_N@Z 1003df60 f   i3NamedResourceManager.obj
 0001:0003cf70       ?SetConcreteClass@i3NamedResourceManager@@SAXPAVi3ClassMeta@@@Z 1003df70 f   i3NamedResourceManager.obj
 0001:0003cf90       ?SetGhostClass@i3NamedResourceManager@@SAXPAVi3ClassMeta@@@Z 1003df90 f   i3NamedResourceManager.obj
 0001:0003cfb0       ?_BindObject@i3NamedResourceManager@@SAPAV1@PAX@Z 1003dfb0 f   i3NamedResourceManager.obj
 0001:0003cfd0       ?_BindObjectByType@i3NamedResourceManager@@SAPAV1@PAXW4I3_CLASSMETA_TYPE@@@Z 1003dfd0 f   i3NamedResourceManager.obj
 0001:0003cff0       ?_BindObjectRef@i3NamedResourceManager@@SAPAV1@PAX@Z 1003dff0 f   i3NamedResourceManager.obj
 0001:0003d010       ?_BindObjectRefByType@i3NamedResourceManager@@SAPAV1@PAXW4I3_CLASSMETA_TYPE@@@Z 1003e010 f   i3NamedResourceManager.obj
 0001:0003d1a0       ?_NewObject@i3NamedResourceManager@@SAPAV1@XZ 1003e1a0 f   i3NamedResourceManager.obj
 0001:0003d1c0       ?_NewObjectByType@i3NamedResourceManager@@SAPAV1@W4I3_CLASSMETA_TYPE@@@Z 1003e1c0 f   i3NamedResourceManager.obj
 0001:0003d1e0       ?_NewObjectRef@i3NamedResourceManager@@SAPAV1@XZ 1003e1e0 f   i3NamedResourceManager.obj
 0001:0003d1f0       ?_NewObjectRefByType@i3NamedResourceManager@@SAPAV1@W4I3_CLASSMETA_TYPE@@@Z 1003e1f0 f   i3NamedResourceManager.obj
 0001:0003d240       ?CreateInstance@?$i3MetaTemplate@Vi3ObjectPool@@@@UAEPAVi3ElementBase@@W4I3_CLASSMETA_TYPE@@@Z 1003e240 f i i3ObjectPool.obj
 0001:0003d320       ?BindInstance@?$i3MetaTemplate@Vi3ObjectPool@@@@UAEPAVi3ElementBase@@PAXW4I3_CLASSMETA_TYPE@@@Z 1003e320 f i i3ObjectPool.obj
 0001:0003d3f0       ??_E?$i3MetaTemplate@Vi3ObjectPool@@@@UAEPAXI@Z 1003e3f0 f i i3ObjectPool.obj
 0001:0003d3f0       ??_G?$i3MetaTemplate@Vi3ObjectPool@@@@UAEPAXI@Z 1003e3f0 f i i3ObjectPool.obj
 0001:0003d420       ??0?$i3MetaTemplate@Vi3ObjectPool@@@@QAE@IPAD0W4I3_CLASSMETA_TYPE@@@Z 1003e420 f i i3ObjectPool.obj
 0001:0003d450       ??0i3ObjectPool@@QAE@XZ    1003e450 f   i3ObjectPool.obj
 0001:0003d490       ??1i3ObjectPool@@UAE@XZ    1003e490 f   i3ObjectPool.obj
 0001:0003d520       ?AddToFree@i3ObjectPool@@IAEXII@Z 1003e520 f   i3ObjectPool.obj
 0001:0003d560       ?Create@i3ObjectPool@@QAEHPAVi3ClassMeta@@II@Z 1003e560 f   i3ObjectPool.obj
 0001:0003d5c0       ?GetMeta@i3ObjectPool@@UAEPAVi3ClassMeta@@XZ 1003e5c0 f   i3ObjectPool.obj
 0001:0003d5d0       ?RegisterMeta@i3ObjectPool@@SAXXZ 1003e5d0 f   i3ObjectPool.obj
 0001:0003d5e0       ?Reset@i3ObjectPool@@QAEXXZ 1003e5e0 f   i3ObjectPool.obj
 0001:0003d620       ?Resize@i3ObjectPool@@IAEXI@Z 1003e620 f   i3ObjectPool.obj
 0001:0003d700       ?SetConcreteClass@i3ObjectPool@@SAXPAVi3ClassMeta@@@Z 1003e700 f   i3ObjectPool.obj
 0001:0003d720       ?SetGhostClass@i3ObjectPool@@SAXPAVi3ClassMeta@@@Z 1003e720 f   i3ObjectPool.obj
 0001:0003d740       ?_BindObject@i3ObjectPool@@SAPAV1@PAX@Z 1003e740 f   i3ObjectPool.obj
 0001:0003d760       ?_BindObjectByType@i3ObjectPool@@SAPAV1@PAXW4I3_CLASSMETA_TYPE@@@Z 1003e760 f   i3ObjectPool.obj
 0001:0003d780       ?_BindObjectRef@i3ObjectPool@@SAPAV1@PAX@Z 1003e780 f   i3ObjectPool.obj
 0001:0003d7a0       ?_BindObjectRefByType@i3ObjectPool@@SAPAV1@PAXW4I3_CLASSMETA_TYPE@@@Z 1003e7a0 f   i3ObjectPool.obj
 0001:0003d7c0       ?_NewObject@i3ObjectPool@@SAPAV1@XZ 1003e7c0 f   i3ObjectPool.obj
 0001:0003d7e0       ?_NewObjectByType@i3ObjectPool@@SAPAV1@W4I3_CLASSMETA_TYPE@@@Z 1003e7e0 f   i3ObjectPool.obj
 0001:0003d800       ?_NewObjectRef@i3ObjectPool@@SAPAV1@XZ 1003e800 f   i3ObjectPool.obj
 0001:0003d810       ?_NewObjectRefByType@i3ObjectPool@@SAPAV1@W4I3_CLASSMETA_TYPE@@@Z 1003e810 f   i3ObjectPool.obj
 0001:0003d830       ?CreateInstance@?$i3AbstractMetaTemplate@Vi3PersistantElement@@@@UAEPAVi3ElementBase@@W4I3_CLASSMETA_TYPE@@@Z 1003e830 f i i3PersistantElement.obj
 0001:0003d850       ?BindInstance@?$i3AbstractMetaTemplate@Vi3PersistantElement@@@@UAEPAVi3ElementBase@@PAXW4I3_CLASSMETA_TYPE@@@Z 1003e850 f i i3PersistantElement.obj
 0001:0003d870       ??_E?$i3AbstractMetaTemplate@Vi3PersistantElement@@@@UAEPAXI@Z 1003e870 f i i3PersistantElement.obj
 0001:0003d870       ??_G?$i3AbstractMetaTemplate@Vi3PersistantElement@@@@UAEPAXI@Z 1003e870 f i i3PersistantElement.obj
 0001:0003d8a0       ??0?$i3AbstractMetaTemplate@Vi3PersistantElement@@@@QAE@IPAD0W4I3_CLASSMETA_TYPE@@@Z 1003e8a0 f i i3PersistantElement.obj
 0001:0003d8d0       ??0i3PersistantElement@@QAE@XZ 1003e8d0 f   i3PersistantElement.obj
 0001:0003d900       ??1i3PersistantElement@@UAE@XZ 1003e900 f   i3PersistantElement.obj
 0001:0003d910       ?GetMeta@i3PersistantElement@@UAEPAVi3ClassMeta@@XZ 1003e910 f   i3PersistantElement.obj
 0001:0003d920       ?OnBuildObjectList@i3PersistantElement@@UAEXAAV?$vector@PAVi3PersistantElement@@V?$pool_allocator@PAVi3PersistantElement@@@i3@@@i3@@@Z 1003e920 f   i3PersistantElement.obj
 0001:0003d970       ?OnInitAfterLoad@i3PersistantElement@@UAEXXZ 1003e970 f   i3PersistantElement.obj
 0001:0003d980       ?OnLoadXML@i3PersistantElement@@UAE_NPAVi3XMLFile@@PAVi3XMLElement@@@Z 1003e980 f   i3PersistantElement.obj
 0001:0003d990       ?OnQueryStrings@i3PersistantElement@@UAEXPAVi3StringList@@@Z 1003e990 f   i3PersistantElement.obj
 0001:0003d9e0       ?OnSaveXML@i3PersistantElement@@UAE_NPAVi3XMLFile@@PAVi3XMLElement@@@Z 1003e9e0 f   i3PersistantElement.obj
 0001:0003d9f0       ?RegisterMeta@i3PersistantElement@@SAXXZ 1003e9f0 f   i3PersistantElement.obj
 0001:0003da00       ?SetConcreteClass@i3PersistantElement@@SAXPAVi3ClassMeta@@@Z 1003ea00 f   i3PersistantElement.obj
 0001:0003da20       ?SetGhostClass@i3PersistantElement@@SAXPAVi3ClassMeta@@@Z 1003ea20 f   i3PersistantElement.obj
 0001:0003da40       ?_BindObject@i3PersistantElement@@SAPAV1@PAX@Z 1003ea40 f   i3PersistantElement.obj
 0001:0003da60       ?_BindObjectByType@i3PersistantElement@@SAPAV1@PAXW4I3_CLASSMETA_TYPE@@@Z 1003ea60 f   i3PersistantElement.obj
 0001:0003da80       ?_BindObjectRef@i3PersistantElement@@SAPAV1@PAX@Z 1003ea80 f   i3PersistantElement.obj
 0001:0003daa0       ?_BindObjectRefByType@i3PersistantElement@@SAPAV1@PAXW4I3_CLASSMETA_TYPE@@@Z 1003eaa0 f   i3PersistantElement.obj
 0001:0003dac0       ?_NewObject@i3PersistantElement@@SAPAV1@XZ 1003eac0 f   i3PersistantElement.obj
 0001:0003dae0       ?_NewObjectByType@i3PersistantElement@@SAPAV1@W4I3_CLASSMETA_TYPE@@@Z 1003eae0 f   i3PersistantElement.obj
 0001:0003db00       ?_NewObjectRef@i3PersistantElement@@SAPAV1@XZ 1003eb00 f   i3PersistantElement.obj
 0001:0003db10       ?_NewObjectRefByType@i3PersistantElement@@SAPAV1@W4I3_CLASSMETA_TYPE@@@Z 1003eb10 f   i3PersistantElement.obj
 0001:0003db30       ?CreateInstance@?$i3MetaTemplate@Vi3PointerStack@@@@UAEPAVi3ElementBase@@W4I3_CLASSMETA_TYPE@@@Z 1003eb30 f i i3PointerStack.obj
 0001:0003dc10       ?BindInstance@?$i3MetaTemplate@Vi3PointerStack@@@@UAEPAVi3ElementBase@@PAXW4I3_CLASSMETA_TYPE@@@Z 1003ec10 f i i3PointerStack.obj
 0001:0003dcd0       ??_E?$i3MetaTemplate@Vi3PointerStack@@@@UAEPAXI@Z 1003ecd0 f i i3PointerStack.obj
 0001:0003dcd0       ??_G?$i3MetaTemplate@Vi3PointerStack@@@@UAEPAXI@Z 1003ecd0 f i i3PointerStack.obj
 0001:0003dd00       ??0?$i3MetaTemplate@Vi3PointerStack@@@@QAE@IPAD0W4I3_CLASSMETA_TYPE@@@Z 1003ed00 f i i3PointerStack.obj
 0001:0003dd30       ??0i3PointerStack@@QAE@I@Z 1003ed30 f   i3PointerStack.obj
 0001:0003dd70       ??1i3PointerStack@@UAE@XZ  1003ed70 f   i3PointerStack.obj
 0001:0003ddf0       ?AdjustBufferSize@i3PointerStack@@IAEXI@Z 1003edf0 f   i3PointerStack.obj
 0001:0003de50       ?GetMeta@i3PointerStack@@UAEPAVi3ClassMeta@@XZ 1003ee50 f   i3PointerStack.obj
 0001:0003de60       ?Pop@i3PointerStack@@QAE_NPAPAX@Z 1003ee60 f   i3PointerStack.obj
 0001:0003de90       ?Push@i3PointerStack@@QAEXPAX@Z 1003ee90 f   i3PointerStack.obj
 0001:0003dec0       ?PushToTop@i3PointerStack@@QAEXPAX@Z 1003eec0 f   i3PointerStack.obj
 0001:0003df10       ?RegisterMeta@i3PointerStack@@SAXXZ 1003ef10 f   i3PointerStack.obj
 0001:0003df20       ?Reset@i3PointerStack@@QAEX_N@Z 1003ef20 f   i3PointerStack.obj
 0001:0003df60       ?SetConcreteClass@i3PointerStack@@SAXPAVi3ClassMeta@@@Z 1003ef60 f   i3PointerStack.obj
 0001:0003df80       ?SetGhostClass@i3PointerStack@@SAXPAVi3ClassMeta@@@Z 1003ef80 f   i3PointerStack.obj
 0001:0003dfa0       ?_BindObject@i3PointerStack@@SAPAV1@PAX@Z 1003efa0 f   i3PointerStack.obj
 0001:0003dfc0       ?_BindObjectByType@i3PointerStack@@SAPAV1@PAXW4I3_CLASSMETA_TYPE@@@Z 1003efc0 f   i3PointerStack.obj
 0001:0003dfe0       ?_BindObjectRef@i3PointerStack@@SAPAV1@PAX@Z 1003efe0 f   i3PointerStack.obj
 0001:0003e000       ?_BindObjectRefByType@i3PointerStack@@SAPAV1@PAXW4I3_CLASSMETA_TYPE@@@Z 1003f000 f   i3PointerStack.obj
 0001:0003e020       ?_NewObject@i3PointerStack@@SAPAV1@XZ 1003f020 f   i3PointerStack.obj
 0001:0003e040       ?_NewObjectByType@i3PointerStack@@SAPAV1@W4I3_CLASSMETA_TYPE@@@Z 1003f040 f   i3PointerStack.obj
 0001:0003e060       ?_NewObjectRef@i3PointerStack@@SAPAV1@XZ 1003f060 f   i3PointerStack.obj
 0001:0003e070       ?_NewObjectRefByType@i3PointerStack@@SAPAV1@W4I3_CLASSMETA_TYPE@@@Z 1003f070 f   i3PointerStack.obj
 0001:0003e090       ?AddMFCProperty_BeginGroup@@YAXPAVi3List@@PBD1@Z 1003f090 f   i3PropertyGridDefines.obj
 0001:0003e0e0       ?AddMFCProperty_Bool@@YAXPAVi3List@@PA_NPBD2_N@Z 1003f0e0 f   i3PropertyGridDefines.obj
 0001:0003e130       ?AddMFCProperty_Button@@YAXPAVi3List@@P6AXXZPBDPAD2@Z 1003f130 f   i3PropertyGridDefines.obj
 0001:0003e180       ?AddMFCProperty_Combo@@YAXPAVi3List@@PAVi3StringList@@PAHPBD3_N@Z 1003f180 f   i3PropertyGridDefines.obj
 0001:0003e1e0       ?AddMFCProperty_EndGroup@@YAXPAVi3List@@@Z 1003f1e0 f   i3PropertyGridDefines.obj
 0001:0003e230       ?AddMFCProperty_File@@YAXPAVi3List@@PADIPBD2@Z 1003f230 f   i3PropertyGridDefines.obj
 0001:0003e280       ?AddMFCProperty_Image@@YAXPAVi3List@@PADIPBD2@Z 1003f280 f   i3PropertyGridDefines.obj
 0001:0003e2d0       ?AddMFCProperty_Int32@@YAXPAVi3List@@PAHPBD2HH_N@Z 1003f2d0 f   i3PropertyGridDefines.obj
 0001:0003e360       ?AddMFCProperty_Real32@@YAXPAVi3List@@PAMPBD2MM_N@Z 1003f360 f   i3PropertyGridDefines.obj
 0001:0003e3f0       ?AddMFCProperty_String@@YAXPAVi3List@@PADIPBD2_N@Z 1003f3f0 f   i3PropertyGridDefines.obj
 0001:0003e460       ?AddMFCProperty_StringW@@YAXPAVi3List@@PAGIPBD2_N@Z 1003f460 f   i3PropertyGridDefines.obj
 0001:0003e4d0       ?CreateInstance@?$i3MetaTemplate@Vi3RefStack@@@@UAEPAVi3ElementBase@@W4I3_CLASSMETA_TYPE@@@Z 1003f4d0 f i i3RefStack.obj
 0001:0003e5b0       ?BindInstance@?$i3MetaTemplate@Vi3RefStack@@@@UAEPAVi3ElementBase@@PAXW4I3_CLASSMETA_TYPE@@@Z 1003f5b0 f i i3RefStack.obj
 0001:0003e670       ??_E?$i3MetaTemplate@Vi3RefStack@@@@UAEPAXI@Z 1003f670 f i i3RefStack.obj
 0001:0003e670       ??_G?$i3MetaTemplate@Vi3RefStack@@@@UAEPAXI@Z 1003f670 f i i3RefStack.obj
 0001:0003e6a0       ??0?$i3MetaTemplate@Vi3RefStack@@@@QAE@IPAD0W4I3_CLASSMETA_TYPE@@@Z 1003f6a0 f i i3RefStack.obj
 0001:0003e6d0       ??0i3RefStack@@QAE@XZ      1003f6d0 f   i3RefStack.obj
 0001:0003e740       ??1i3RefStack@@UAE@XZ      1003f740 f   i3RefStack.obj
 0001:0003e750       ?GetMeta@i3RefStack@@UAEPAVi3ClassMeta@@XZ 1003f750 f   i3RefStack.obj
 0001:0003e760       ?Pop@i3RefStack@@QAEXPAPAVi3ElementBase@@@Z 1003f760 f   i3RefStack.obj
 0001:0003e790       ?Push@i3RefStack@@QAEXPAVi3ElementBase@@@Z 1003f790 f   i3RefStack.obj
 0001:0003e7a0       ?RegisterMeta@i3RefStack@@SAXXZ 1003f7a0 f   i3RefStack.obj
 0001:0003e7b0       ?SetConcreteClass@i3RefStack@@SAXPAVi3ClassMeta@@@Z 1003f7b0 f   i3RefStack.obj
 0001:0003e7d0       ?SetGhostClass@i3RefStack@@SAXPAVi3ClassMeta@@@Z 1003f7d0 f   i3RefStack.obj
 0001:0003e7f0       ?_BindObject@i3RefStack@@SAPAV1@PAX@Z 1003f7f0 f   i3RefStack.obj
 0001:0003e810       ?_BindObjectByType@i3RefStack@@SAPAV1@PAXW4I3_CLASSMETA_TYPE@@@Z 1003f810 f   i3RefStack.obj
 0001:0003e830       ?_BindObjectRef@i3RefStack@@SAPAV1@PAX@Z 1003f830 f   i3RefStack.obj
 0001:0003e850       ?_BindObjectRefByType@i3RefStack@@SAPAV1@PAXW4I3_CLASSMETA_TYPE@@@Z 1003f850 f   i3RefStack.obj
 0001:0003e870       ?_NewObject@i3RefStack@@SAPAV1@XZ 1003f870 f   i3RefStack.obj
 0001:0003e890       ?_NewObjectByType@i3RefStack@@SAPAV1@W4I3_CLASSMETA_TYPE@@@Z 1003f890 f   i3RefStack.obj
 0001:0003e8b0       ?_NewObjectRef@i3RefStack@@SAPAV1@XZ 1003f8b0 f   i3RefStack.obj
 0001:0003e8c0       ?_NewObjectRefByType@i3RefStack@@SAPAV1@W4I3_CLASSMETA_TYPE@@@Z 1003f8c0 f   i3RefStack.obj
 0001:0003e8e0       ?CreateInstance@?$i3MetaTemplate@Vi3ResourceFile@@@@UAEPAVi3ElementBase@@W4I3_CLASSMETA_TYPE@@@Z 1003f8e0 f i i3ResourceFile.obj
 0001:0003e9c0       ?BindInstance@?$i3MetaTemplate@Vi3ResourceFile@@@@UAEPAVi3ElementBase@@PAXW4I3_CLASSMETA_TYPE@@@Z 1003f9c0 f i i3ResourceFile.obj
 0001:0003ea60       ??_E?$i3MetaTemplate@Vi3ResourceFile@@@@UAEPAXI@Z 1003fa60 f i i3ResourceFile.obj
 0001:0003ea60       ??_G?$i3MetaTemplate@Vi3ResourceFile@@@@UAEPAXI@Z 1003fa60 f i i3ResourceFile.obj
 0001:0003ea90       ??0?$i3MetaTemplate@Vi3ResourceFile@@@@QAE@IPAD0W4I3_CLASSMETA_TYPE@@@Z 1003fa90 f i i3ResourceFile.obj
 0001:0003eac0       ??0i3ResourceFile@@QAE@XZ  1003fac0 f   i3ResourceFile.obj
 0001:0003eba0       ??1i3ResourceFile@@UAE@XZ  1003fba0 f   i3ResourceFile.obj
 0001:0003ec70       ?AddResourceManager@i3ResourceFile@@SAXPAVi3ClassMeta@@PAVi3NamedResourceManager@@@Z 1003fc70 f   i3ResourceFile.obj
 0001:0003ece0       ?Align@i3ResourceFile@@IAEIPAVi3Stream@@@Z 1003fce0 f   i3ResourceFile.obj
 0001:0003ecf0       ?CallExternRefCallback@i3ResourceFile@@SAXPAVi3ResourceObject@@PBD@Z 1003fcf0 f   i3ResourceFile.obj
 0001:0003ed10       ?CheckProtectionCode@i3ResourceFile@@SA_NPBD0H@Z 1003fd10 f   i3ResourceFile.obj
 0001:0003ee90       ?FindObjectByID@i3ResourceFile@@QAEPAVi3PersistantElement@@I@Z 1003fe90 f   i3ResourceFile.obj
 0001:0003ef40       ?FindObjectByMeta@i3ResourceFile@@QAEPAVi3PersistantElement@@PAVi3ClassMeta@@@Z 1003ff40 f   i3ResourceFile.obj
 0001:0003efa0       ?FindObjectInfoByID@i3ResourceFile@@QAEHI@Z 1003ffa0 f   i3ResourceFile.obj
 0001:0003eff0       ?GetAlignedPos@i3ResourceFile@@IAEII@Z 1003fff0 f   i3ResourceFile.obj
 0001:0003f000       ?GetMeta@i3ResourceFile@@UAEPAVi3ClassMeta@@XZ 10040000 f   i3ResourceFile.obj
 0001:0003f010       ?GetObjectPersistID@i3ResourceFile@@QAEIPAVi3PersistantElement@@@Z 10040010 f   i3ResourceFile.obj
 0001:0003f140       ?GetResourceManager@i3ResourceFile@@SAPAVi3NamedResourceManager@@PAVi3ClassMeta@@@Z 10040140 f   i3ResourceFile.obj
 0001:0003f190       ?GetWorkingFolder@i3ResourceFile@@SAPADXZ 10040190 f   i3ResourceFile.obj
 0001:0003f1a0       ?Load@i3ResourceFile@@UAEIPAVi3Stream@@@Z 100401a0 f   i3ResourceFile.obj
 0001:0003f540       ?Load@i3ResourceFile@@UAEIPBD@Z 10040540 f   i3ResourceFile.obj
 0001:0003f620       ?LoadHeader@i3ResourceFile@@UAEIPAVi3Stream@@@Z 10040620 f   i3ResourceFile.obj
 0001:0003f9d0       ?RegisterMeta@i3ResourceFile@@SAXXZ 100409d0 f   i3ResourceFile.obj
 0001:0003f9e0       ?RemoveResourceManager@i3ResourceFile@@SAXPAVi3ClassMeta@@@Z 100409e0 f   i3ResourceFile.obj
 0001:0003fa60       ?Save@i3ResourceFile@@UAEIPAVi3Stream@@@Z 10040a60 f   i3ResourceFile.obj
 0001:00040210       ?Save@i3ResourceFile@@UAEIPBD@Z 10041210 f   i3ResourceFile.obj
 0001:000402f0       ?SetConcreteClass@i3ResourceFile@@SAXPAVi3ClassMeta@@@Z 100412f0 f   i3ResourceFile.obj
 0001:00040310       ?SetExternalRefCallback@i3ResourceFile@@SAXP6AXPAVi3PersistantElement@@PBDPAX@Z2@Z 10041310 f   i3ResourceFile.obj
 0001:00040330       ?SetGhostClass@i3ResourceFile@@SAXPAVi3ClassMeta@@@Z 10041330 f   i3ResourceFile.obj
 0001:00040350       ?SetObjects@i3ResourceFile@@QAEXAAV?$vector@PAVi3PersistantElement@@V?$pool_allocator@PAVi3PersistantElement@@@i3@@@i3@@@Z 10041350 f   i3ResourceFile.obj
 0001:00040360       ?SetProtectionCode@i3ResourceFile@@SA_NPBD0H@Z 10041360 f   i3ResourceFile.obj
 0001:00040560       ?SetWorkingFolder@i3ResourceFile@@SAXPAD@Z 10041560 f   i3ResourceFile.obj
 0001:00040590       ?_BindObject@i3ResourceFile@@SAPAV1@PAX@Z 10041590 f   i3ResourceFile.obj
 0001:000405b0       ?_BindObjectByType@i3ResourceFile@@SAPAV1@PAXW4I3_CLASSMETA_TYPE@@@Z 100415b0 f   i3ResourceFile.obj
 0001:000405d0       ?_BindObjectRef@i3ResourceFile@@SAPAV1@PAX@Z 100415d0 f   i3ResourceFile.obj
 0001:000405f0       ?_BindObjectRefByType@i3ResourceFile@@SAPAV1@PAXW4I3_CLASSMETA_TYPE@@@Z 100415f0 f   i3ResourceFile.obj
 0001:00040610       ?_BuildIDTable@i3ResourceFile@@IAEXH@Z 10041610 f   i3ResourceFile.obj
 0001:00040960       ?_NewObject@i3ResourceFile@@SAPAV1@XZ 10041960 f   i3ResourceFile.obj
 0001:00040980       ?_NewObjectByType@i3ResourceFile@@SAPAV1@W4I3_CLASSMETA_TYPE@@@Z 10041980 f   i3ResourceFile.obj
 0001:000409a0       ?_NewObjectRef@i3ResourceFile@@SAPAV1@XZ 100419a0 f   i3ResourceFile.obj
 0001:000409b0       ?_NewObjectRefByType@i3ResourceFile@@SAPAV1@W4I3_CLASSMETA_TYPE@@@Z 100419b0 f   i3ResourceFile.obj
 0001:000409d0       ?_Rec_QuickSort@i3ResourceFile@@IAEXPAU_tagObjectIdTableInfo@@HH@Z 100419d0 f   i3ResourceFile.obj
 0001:00040a90       ?_ResolveExtern@i3ResourceFile@@IAEPAVi3PersistantElement@@H@Z 10041a90 f   i3ResourceFile.obj
 0001:00040e40       ?_SaveExtern@i3ResourceFile@@IAEIHPAVi3ResourceObject@@@Z 10041e40 f   i3ResourceFile.obj
 0001:00041000       ?_getRefOrdinal@i3ResourceFile@@IAEHI@Z 10042000 f   i3ResourceFile.obj
 0001:00041010       ?_getRefStringIndex@i3ResourceFile@@IAEHI@Z 10042010 f   i3ResourceFile.obj
 0001:00041070       ?_isExtern@i3ResourceFile@@IAE_NI@Z 10042070 f   i3ResourceFile.obj
 0001:000410b0       ?getExternRefResolveCallback@i3ResourceFile@@SAP6A_NPBDPADH0_N@ZXZ 100420b0 f   i3ResourceFile.obj
 0001:000410c0       ?setExternRefResolveCallback@i3ResourceFile@@SAXP6A_NPBDPADH0_N@ZPAX@Z 100420c0 f   i3ResourceFile.obj
 0001:000410e0       ?setProfileEnable@i3ResourceFile@@SAX_N@Z 100420e0 f   i3ResourceFile.obj
 0001:000410f0       ?setSearchExternRefEnable@i3ResourceFile@@SAX_N@Z 100420f0 f   i3ResourceFile.obj
 0001:00041100       ?CreateInstance@?$i3AbstractMetaTemplate@Vi3ResourceObject@@@@UAEPAVi3ElementBase@@W4I3_CLASSMETA_TYPE@@@Z 10042100 f i i3ResourceObject.obj
 0001:00041120       ?BindInstance@?$i3AbstractMetaTemplate@Vi3ResourceObject@@@@UAEPAVi3ElementBase@@PAXW4I3_CLASSMETA_TYPE@@@Z 10042120 f i i3ResourceObject.obj
 0001:00041140       ??_E?$i3AbstractMetaTemplate@Vi3ResourceObject@@@@UAEPAXI@Z 10042140 f i i3ResourceObject.obj
 0001:00041140       ??_G?$i3AbstractMetaTemplate@Vi3ResourceObject@@@@UAEPAXI@Z 10042140 f i i3ResourceObject.obj
 0001:00041170       ??0?$i3AbstractMetaTemplate@Vi3ResourceObject@@@@QAE@IPAD0W4I3_CLASSMETA_TYPE@@@Z 10042170 f i i3ResourceObject.obj
 0001:000411a0       ??0i3ResourceObject@@QAE@XZ 100421a0 f   i3ResourceObject.obj
 0001:000411f0       ??1i3ResourceObject@@UAE@XZ 100421f0 f   i3ResourceObject.obj
 0001:00041200       ?GetMeta@i3ResourceObject@@UAEPAVi3ClassMeta@@XZ 10042200 f   i3ResourceObject.obj
 0001:00041210       ?OnLoad@i3ResourceObject@@UAEIPAVi3ResourceFile@@@Z 10042210 f   i3ResourceObject.obj
 0001:00041230       ?OnLoadXML@i3ResourceObject@@UAE_NPAVi3XMLFile@@PAVi3XMLElement@@@Z 10042230 f   i3ResourceObject.obj
 0001:00041260       ?RegisterMeta@i3ResourceObject@@SAXXZ 10042260 f   i3ResourceObject.obj
 0001:00041270       ?SetConcreteClass@i3ResourceObject@@SAXPAVi3ClassMeta@@@Z 10042270 f   i3ResourceObject.obj
 0001:00041290       ?SetGhostClass@i3ResourceObject@@SAXPAVi3ClassMeta@@@Z 10042290 f   i3ResourceObject.obj
 0001:000412b0       ?SetResourcePath@i3ResourceObject@@QAEXPBD@Z 100422b0 f   i3ResourceObject.obj
 0001:00041310       ?_BindObject@i3ResourceObject@@SAPAV1@PAX@Z 10042310 f   i3ResourceObject.obj
 0001:00041330       ?_BindObjectByType@i3ResourceObject@@SAPAV1@PAXW4I3_CLASSMETA_TYPE@@@Z 10042330 f   i3ResourceObject.obj
 0001:00041350       ?_BindObjectRef@i3ResourceObject@@SAPAV1@PAX@Z 10042350 f   i3ResourceObject.obj
 0001:00041370       ?_BindObjectRefByType@i3ResourceObject@@SAPAV1@PAXW4I3_CLASSMETA_TYPE@@@Z 10042370 f   i3ResourceObject.obj
 0001:00041390       ?_CalcChecksum@i3ResourceObject@@IAEIXZ 10042390 f   i3ResourceObject.obj
 0001:00041440       ?_NewObject@i3ResourceObject@@SAPAV1@XZ 10042440 f   i3ResourceObject.obj
 0001:00041460       ?_NewObjectByType@i3ResourceObject@@SAPAV1@W4I3_CLASSMETA_TYPE@@@Z 10042460 f   i3ResourceObject.obj
 0001:00041480       ?_NewObjectRef@i3ResourceObject@@SAPAV1@XZ 10042480 f   i3ResourceObject.obj
 0001:00041490       ?_NewObjectRefByType@i3ResourceObject@@SAPAV1@W4I3_CLASSMETA_TYPE@@@Z 10042490 f   i3ResourceObject.obj
 0001:000414b0       ?CreateInstance@?$i3MetaTemplate@Vi3RingBuffer@@@@UAEPAVi3ElementBase@@W4I3_CLASSMETA_TYPE@@@Z 100424b0 f i i3RingBuffer.obj
 0001:00041590       ?BindInstance@?$i3MetaTemplate@Vi3RingBuffer@@@@UAEPAVi3ElementBase@@PAXW4I3_CLASSMETA_TYPE@@@Z 10042590 f i i3RingBuffer.obj
 0001:00041660       ??_E?$i3MetaTemplate@Vi3RingBuffer@@@@UAEPAXI@Z 10042660 f i i3RingBuffer.obj
 0001:00041660       ??_G?$i3MetaTemplate@Vi3RingBuffer@@@@UAEPAXI@Z 10042660 f i i3RingBuffer.obj
 0001:00041690       ??0?$i3MetaTemplate@Vi3RingBuffer@@@@QAE@IPAD0W4I3_CLASSMETA_TYPE@@@Z 10042690 f i i3RingBuffer.obj
 0001:000416c0       ??0i3RingBuffer@@QAE@XZ    100426c0 f   i3RingBuffer.obj
 0001:00041700       ??1i3RingBuffer@@UAE@XZ    10042700 f   i3RingBuffer.obj
 0001:00041770       ?Create@i3RingBuffer@@QAEHHH@Z 10042770 f   i3RingBuffer.obj
 0001:000417c0       ?Destroy@i3RingBuffer@@QAEXXZ 100427c0 f   i3RingBuffer.obj
 0001:000417f0       ?GetBufferCount@i3RingBuffer@@QAEHXZ 100427f0 f i i3RingBuffer.obj
 0001:00041810       ?GetEmptyBufferCount@i3RingBuffer@@QAEHXZ 10042810 f i i3RingBuffer.obj
 0001:00041830       ?GetMeta@i3RingBuffer@@UAEPAVi3ClassMeta@@XZ 10042830 f   i3RingBuffer.obj
 0001:00041840       ?Pop@i3RingBuffer@@QAEPAXXZ 10042840 f   i3RingBuffer.obj
 0001:00041870       ?PopIdx@i3RingBuffer@@QAEXXZ 10042870 f   i3RingBuffer.obj
 0001:00041890       ?Push@i3RingBuffer@@QAEHPAX@Z 10042890 f   i3RingBuffer.obj
 0001:00041910       ?PushPointer@i3RingBuffer@@QAEPAXXZ 10042910 f   i3RingBuffer.obj
 0001:00041960       ?PushPointerIdx@i3RingBuffer@@QAEXXZ 10042960 f   i3RingBuffer.obj
 0001:00041970       ?RegisterMeta@i3RingBuffer@@SAXXZ 10042970 f   i3RingBuffer.obj
 0001:00041980       ?SetConcreteClass@i3RingBuffer@@SAXPAVi3ClassMeta@@@Z 10042980 f   i3RingBuffer.obj
 0001:000419a0       ?SetGhostClass@i3RingBuffer@@SAXPAVi3ClassMeta@@@Z 100429a0 f   i3RingBuffer.obj
 0001:000419c0       ?_BindObject@i3RingBuffer@@SAPAV1@PAX@Z 100429c0 f   i3RingBuffer.obj
 0001:000419e0       ?_BindObjectByType@i3RingBuffer@@SAPAV1@PAXW4I3_CLASSMETA_TYPE@@@Z 100429e0 f   i3RingBuffer.obj
 0001:00041a00       ?_BindObjectRef@i3RingBuffer@@SAPAV1@PAX@Z 10042a00 f   i3RingBuffer.obj
 0001:00041a20       ?_BindObjectRefByType@i3RingBuffer@@SAPAV1@PAXW4I3_CLASSMETA_TYPE@@@Z 10042a20 f   i3RingBuffer.obj
 0001:00041a40       ?_NewObject@i3RingBuffer@@SAPAV1@XZ 10042a40 f   i3RingBuffer.obj
 0001:00041a60       ?_NewObjectByType@i3RingBuffer@@SAPAV1@W4I3_CLASSMETA_TYPE@@@Z 10042a60 f   i3RingBuffer.obj
 0001:00041a80       ?_NewObjectRef@i3RingBuffer@@SAPAV1@XZ 10042a80 f   i3RingBuffer.obj
 0001:00041a90       ?_NewObjectRefByType@i3RingBuffer@@SAPAV1@W4I3_CLASSMETA_TYPE@@@Z 10042a90 f   i3RingBuffer.obj
 0001:00041ab0       ?Input@i3SHA1@@YA?AW4I3_SHA_RESULT@@PAUSHA1Context@@PBEI@Z 10042ab0 f   i3SHA1.obj
 0001:00041b40       ?Reset@i3SHA1@@YA?AW4I3_SHA_RESULT@@PAUSHA1Context@@@Z 10042b40 f   i3SHA1.obj
 0001:00041b90       ?Result@i3SHA1@@YA?AW4I3_SHA_RESULT@@PAUSHA1Context@@QAE@Z 10042b90 f   i3SHA1.obj
 0001:00041ee0       ??$_Allocate_for_capacity@$0A@@?$basic_string@DU?$char_traits@D@std@@V?$allocator@D@2@@std@@CAPADAAV?$allocator@D@1@AAI@Z 10042ee0 f i i3SMTPMail.obj
 0001:00041f40       ??$_Allocate_manually_vector_aligned@U_Default_allocate_traits@std@@@std@@YAPAXI@Z 10042f40 f i i3SMTPMail.obj
 0001:00041f80       ??$_Construct@$00PBD@?$basic_string@DU?$char_traits@D@std@@V?$allocator@D@2@@std@@AAEXQBDI@Z 10042f80 f i i3SMTPMail.obj
 0001:00042010       ??$_Copy_memmove@PAVTAttach@@PAV1@@std@@YAPAVTAttach@@PAV1@00@Z 10043010 f i i3SMTPMail.obj
 0001:00042040       ??$_Copy_memmove_tail@PAVTAttach@@@std@@YAPAVTAttach@@QBDQAV1@II@Z 10043040 f i i3SMTPMail.obj
 0001:00042060       ??$_Destroy_range@V?$allocator@VTRecipient@@@std@@@std@@YAXPAVTRecipient@@QAV1@AAV?$allocator@VTRecipient@@@0@@Z 10043060 f i i3SMTPMail.obj
 0001:000420d0       ??$_Emplace_reallocate@ABVTAttach@@@?$vector@VTAttach@@V?$allocator@VTAttach@@@std@@@std@@AAEPAVTAttach@@QAV2@ABV2@@Z 100430d0 f i i3SMTPMail.obj
 0001:00042290       ??$_Emplace_reallocate@ABVTRecipient@@@?$vector@VTRecipient@@V?$allocator@VTRecipient@@@std@@@std@@AAEPAVTRecipient@@QAV2@ABV2@@Z 10043290 f i i3SMTPMail.obj
 0001:00042490       ??$_Uninitialized_move@PAVTRecipient@@V?$allocator@VTRecipient@@@std@@@std@@YAPAVTRecipient@@QAV1@0PAV1@AAV?$allocator@VTRecipient@@@0@@Z 10043490 f i i3SMTPMail.obj
 0001:00042510       ??$construct@VTRecipient@@ABV1@@?$_Default_allocator_traits@V?$allocator@VTRecipient@@@std@@@std@@SAXAAV?$allocator@VTRecipient@@@1@QAVTRecipient@@ABV3@@Z 10043510 f i i3SMTPMail.obj
 0001:000425c0       ??0bad_alloc@std@@QAE@ABV01@@Z 100435c0 f i i3SMTPMail.obj
 0001:00042600       ??0bad_array_new_length@std@@QAE@ABV01@@Z 10043600 f i i3SMTPMail.obj
 0001:00042640       ??0bad_array_new_length@std@@QAE@XZ 10043640 f i i3SMTPMail.obj
 0001:00042660       ??0exception@std@@QAE@ABV01@@Z 10043660 f i i3SMTPMail.obj
 0001:00042690       ??0i3SMTPMail@@QAE@XZ      10043690 f   i3SMTPMail.obj
 0001:00042740       ??1?$basic_string@DU?$char_traits@D@std@@V?$allocator@D@2@@std@@QAE@XZ 10043740 f i i3SMTPMail.obj
 0001:00042790       ??1?$vector@VTAttach@@V?$allocator@VTAttach@@@std@@@std@@QAE@XZ 10043790 f i i3SMTPMail.obj
 0001:00042800       ??1?$vector@VTRecipient@@V?$allocator@VTRecipient@@@std@@@std@@QAE@XZ 10043800 f i i3SMTPMail.obj
 0001:00042880       ??1TRecipient@@QAE@XZ      10043880 f i i3SMTPMail.obj
 0001:000428d0       ??1_Reallocation_guard@?$vector@VTRecipient@@V?$allocator@VTRecipient@@@std@@@std@@QAE@XZ 100438d0 f i i3SMTPMail.obj
 0001:00042930       ??1bad_array_new_length@std@@UAE@XZ 10043930 f i i3SMTPMail.obj
 0001:00042950       ??1exception@std@@UAE@XZ   10043950 f i i3SMTPMail.obj
 0001:00042970       ??1i3SMTPMail@@UAE@XZ      10043970 f   i3SMTPMail.obj
 0001:000429d0       ??_Ei3SMTPMail@@UAEPAXI@Z  100439d0 f i i3SMTPMail.obj
 0001:00042a80       ??_Ebad_alloc@std@@UAEPAXI@Z 10043a80 f i i3SMTPMail.obj
 0001:00042a80       ??_Gbad_alloc@std@@UAEPAXI@Z 10043a80 f i i3SMTPMail.obj
 0001:00042ab0       ??_Ebad_array_new_length@std@@UAEPAXI@Z 10043ab0 f i i3SMTPMail.obj
 0001:00042ab0       ??_Gbad_array_new_length@std@@UAEPAXI@Z 10043ab0 f i i3SMTPMail.obj
 0001:00042ae0       ??_Eexception@std@@UAEPAXI@Z 10043ae0 f i i3SMTPMail.obj
 0001:00042ae0       ??_Gexception@std@@UAEPAXI@Z 10043ae0 f i i3SMTPMail.obj
 0001:00042b10       ?AddRecipient@i3SMTPMail@@QAEHQBD0@Z 10043b10 f   i3SMTPMail.obj
 0001:00042d30       ?Base64BufferSize@i3SMTPMail@@QAEHH@Z 10043d30 f   i3SMTPMail.obj
 0001:00042d70       ?ConnectServer@i3SMTPMail@@QAEHPBDG@Z 10043d70 f   i3SMTPMail.obj
 0001:00042f90       ?ConnectServerSocket@i3SMTPMail@@AAEIPBDG@Z 10043f90 f   i3SMTPMail.obj
 0001:00043080       ?Disconnect@i3SMTPMail@@QAEHXZ 10044080 f   i3SMTPMail.obj
 0001:00043130       ?EncodeBase64@i3SMTPMail@@QAEHPBDHPAD@Z 10044130 f   i3SMTPMail.obj
 0001:00043310       ?FormatHeader@i3SMTPMail@@AAEPADXZ 10044310 f   i3SMTPMail.obj
 0001:00043960       ?GetConnectStatus@i3SMTPMail@@QAEHXZ 10044960 f   i3SMTPMail.obj
 0001:00043970       ?Send@i3SMTPMail@@QAEHXZ   10044970 f   i3SMTPMail.obj
 0001:00043f70       ?SendSocketData@i3SMTPMail@@AAEHPAD@Z 10044f70 f   i3SMTPMail.obj
 0001:00043fb0       ?SetEmail@TRecipient@@QAEXV?$basic_string@DU?$char_traits@D@std@@V?$allocator@D@2@@std@@@Z 10044fb0 f i i3SMTPMail.obj
 0001:00044130       ?SetFileAttach@i3SMTPMail@@QAEHPAD@Z 10045130 f   i3SMTPMail.obj
 0001:00044290       ?SetMessageBody@i3SMTPMail@@QAEXPBD@Z 10045290 f   i3SMTPMail.obj
 0001:00044330       ?SetReplyTo@i3SMTPMail@@QAEXPBD@Z 10045330 f   i3SMTPMail.obj
 0001:000443d0       ?SetSenderEmail@i3SMTPMail@@QAEXPBD@Z 100453d0 f   i3SMTPMail.obj
 0001:00044470       ?SetSenderName@i3SMTPMail@@QAEXPBD@Z 10045470 f   i3SMTPMail.obj
 0001:00044510       ?SetSubject@i3SMTPMail@@QAEXPBD@Z 10045510 f   i3SMTPMail.obj
 0001:000445a0       ?SetXMailer@i3SMTPMail@@QAEXPBD@Z 100455a0 f   i3SMTPMail.obj
 0001:00044640       ?_Throw_bad_array_new_length@std@@YAXXZ 10045640 f i i3SMTPMail.obj
 0001:00044660       ?_Xlen_string@std@@YAXXZ   10045660 f i i3SMTPMail.obj
 0001:00044670       ?_Xlength@?$vector@VTAttach@@V?$allocator@VTAttach@@@std@@@std@@CAXXZ 10045670 f i i3SMTPMail.obj
 0001:00044680       ?_Xlength@?$vector@VTRecipient@@V?$allocator@VTRecipient@@@std@@@std@@CAXXZ 10045680 f i i3SMTPMail.obj
 0001:00044690       ?_Xrange@?$vector@VTAttach@@V?$allocator@VTAttach@@@std@@@std@@CAXXZ 10045690 f i i3SMTPMail.obj
 0001:000446a0       ?_Xrange@?$vector@VTRecipient@@V?$allocator@VTRecipient@@@std@@@std@@CAXXZ 100456a0 f i i3SMTPMail.obj
 0001:000446b0       ?what@exception@std@@UBEPBDXZ 100456b0 f i i3SMTPMail.obj
 0001:000446c0       ?CreateInstance@?$i3MetaTemplate@Vi3StackMemoryPool@@@@UAEPAVi3ElementBase@@W4I3_CLASSMETA_TYPE@@@Z 100456c0 f i i3StackMemoryPool.obj
 0001:000447a0       ?BindInstance@?$i3MetaTemplate@Vi3StackMemoryPool@@@@UAEPAVi3ElementBase@@PAXW4I3_CLASSMETA_TYPE@@@Z 100457a0 f i i3StackMemoryPool.obj
 0001:00044860       ??_E?$i3MetaTemplate@Vi3StackMemoryPool@@@@UAEPAXI@Z 10045860 f i i3StackMemoryPool.obj
 0001:00044860       ??_G?$i3MetaTemplate@Vi3StackMemoryPool@@@@UAEPAXI@Z 10045860 f i i3StackMemoryPool.obj
 0001:00044890       ??0?$i3MetaTemplate@Vi3StackMemoryPool@@@@QAE@IPAD0W4I3_CLASSMETA_TYPE@@@Z 10045890 f i i3StackMemoryPool.obj
 0001:000448c0       ??0i3StackMemoryPool@@QAE@XZ 100458c0 f   i3StackMemoryPool.obj
 0001:00044900       ??1i3StackMemoryPool@@UAE@XZ 10045900 f   i3StackMemoryPool.obj
 0001:00044970       ?Alloc@i3StackMemoryPool@@QAEPAXI@Z 10045970 f   i3StackMemoryPool.obj
 0001:000449a0       ?Create@i3StackMemoryPool@@QAE_NI@Z 100459a0 f   i3StackMemoryPool.obj
 0001:00044a00       ?Dump@i3StackMemoryPool@@QAEXXZ 10045a00 f   i3StackMemoryPool.obj
 0001:00044a60       ?Free@i3StackMemoryPool@@QAEXPAX@Z 10045a60 f   i3StackMemoryPool.obj
 0001:00044ab0       ?GetMeta@i3StackMemoryPool@@UAEPAVi3ClassMeta@@XZ 10045ab0 f   i3StackMemoryPool.obj
 0001:00044ac0       ?RegisterMeta@i3StackMemoryPool@@SAXXZ 10045ac0 f   i3StackMemoryPool.obj
 0001:00044ad0       ?Reset@i3StackMemoryPool@@QAEXXZ 10045ad0 f   i3StackMemoryPool.obj
 0001:00044ae0       ?SetConcreteClass@i3StackMemoryPool@@SAXPAVi3ClassMeta@@@Z 10045ae0 f   i3StackMemoryPool.obj
 0001:00044b00       ?SetGhostClass@i3StackMemoryPool@@SAXPAVi3ClassMeta@@@Z 10045b00 f   i3StackMemoryPool.obj
 0001:00044b20       ?_BindObject@i3StackMemoryPool@@SAPAV1@PAX@Z 10045b20 f   i3StackMemoryPool.obj
 0001:00044b40       ?_BindObjectByType@i3StackMemoryPool@@SAPAV1@PAXW4I3_CLASSMETA_TYPE@@@Z 10045b40 f   i3StackMemoryPool.obj
 0001:00044b60       ?_BindObjectRef@i3StackMemoryPool@@SAPAV1@PAX@Z 10045b60 f   i3StackMemoryPool.obj
 0001:00044b80       ?_BindObjectRefByType@i3StackMemoryPool@@SAPAV1@PAXW4I3_CLASSMETA_TYPE@@@Z 10045b80 f   i3StackMemoryPool.obj
 0001:00044ba0       ?_NewObject@i3StackMemoryPool@@SAPAV1@XZ 10045ba0 f   i3StackMemoryPool.obj
 0001:00044bc0       ?_NewObjectByType@i3StackMemoryPool@@SAPAV1@W4I3_CLASSMETA_TYPE@@@Z 10045bc0 f   i3StackMemoryPool.obj
 0001:00044be0       ?_NewObjectRef@i3StackMemoryPool@@SAPAV1@XZ 10045be0 f   i3StackMemoryPool.obj
 0001:00044bf0       ?_NewObjectRefByType@i3StackMemoryPool@@SAPAV1@W4I3_CLASSMETA_TYPE@@@Z 10045bf0 f   i3StackMemoryPool.obj
 0001:00044c10       ?AddPostfix@i3String@@YAXPADHPBD1D@Z 10045c10 f   i3String.obj
 0001:00044db0       ?BF_search@@YAHPAD0@Z      10045db0 f   i3String.obj
 0001:00044e30       ?BM_search@@YAHPAD0@Z      10045e30 f   i3String.obj
 0001:00044fd0       ?CharNextA@i3String@@YAPBDHPBD@Z 10045fd0 f   i3String.obj
 0001:000450c0       ?CharPrevA@i3String@@YAPBDHPBD0@Z 100460c0 f   i3String.obj
 0001:00045180       ?Compare@i3String@@YAHPBD0@Z 10046180 f   i3String.obj
 0001:00045190       ?Compare@i3String@@YAHPBG0@Z 10046190 f   i3String.obj
 0001:000451a0       ?CompareCase@i3String@@YAHPBD0@Z 100461a0 f   i3String.obj
 0001:000451e0       ?CompareCaseW@i3String@@YAHPBG0@Z 100461e0 f   i3String.obj
 0001:00045230       ?Concat@i3String@@YAXPADPBD@Z 10046230 f   i3String.obj
 0001:00045270       ?Concat@i3String@@YAXPAGPBG@Z 10046270 f   i3String.obj
 0001:000452c0       ?Contain@i3String@@YAHPBD0@Z 100462c0 f   i3String.obj
 0001:00045330       ?ContainChar@i3String@@YAHPBDD@Z 10046330 f   i3String.obj
 0001:00045360       ?ContainChar@i3String@@YAHPBGG@Z 10046360 f   i3String.obj
 0001:000453a0       ?ContainCharRev@i3String@@YAHPBDD@Z 100463a0 f   i3String.obj
 0001:000453e0       ?ContainNative@i3String@@YAHPBD@Z 100463e0 f   i3String.obj
 0001:00045410       ?ContainNew@i3String@@YAHPBD0@Z 10046410 f   i3String.obj
 0001:00045480       ?ContainNoCase@i3String@@YAHPBD0@Z 10046480 f   i3String.obj
 0001:00045530       ?ContainW@i3String@@YAHPBG0@Z 10046530 f   i3String.obj
 0001:000455a0       ?Copy@i3String@@YAXPADPBDH@Z 100465a0 f   i3String.obj
 0001:000455d0       ?Copy@i3String@@YAXPAGPBGH@Z 100465d0 f   i3String.obj
 0001:00045610       ?CopyASCIItoWCHAR@i3String@@YAXPAGPBD@Z 10046610 f   i3String.obj
 0001:00045670       ?CopyWCHARtoASCII@i3String@@YAXPADHPBGH@Z 10046670 f   i3String.obj
 0001:000456a0       ?EraseSpace@i3String@@YAHPBDPAD@Z 100466a0 f   i3String.obj
 0001:000456e0       ?Format@i3String@@YAHPADHPBDZZ 100466e0 f   i3String.obj
 0001:00045720       ?Format@i3String@@YAHPAGHPBGZZ 10046720 f   i3String.obj
 0001:00045760       ?GetFirstValidCharater@i3String@@YAPBDPBD@Z 10046760 f   i3String.obj
 0001:00045780       ?GetPrefixName@i3String@@YAXPADPBD@Z 10046780 f   i3String.obj
 0001:000457e0       ?InsertStr@i3String@@YAPADPADPBDHH@Z 100467e0 f   i3String.obj
 0001:00045860       ?InsertStrW@i3String@@YAPAGPAGPBGHH@Z 10046860 f   i3String.obj
 0001:000458e0       ?IsComposite@i3String@@YAHHDDH@Z 100468e0 f   i3String.obj
 0001:00045930       ?IsDigitString@i3String@@YA_NPBD@Z 10046930 f   i3String.obj
 0001:00045980       ?IsMatchedWildcard@i3String@@YA_NPAD0@Z 10046980 f   i3String.obj
 0001:00045b60       ?KMP_init@@YAPAHPAD@Z      10046b60 f   i3String.obj
 0001:00045bd0       ?KMP_search@@YAHPAD0@Z     10046bd0 f   i3String.obj
 0001:00045d00       ?Length@i3String@@YAHPBD@Z 10046d00 f   i3String.obj
 0001:00045d20       ?Length@i3String@@YAHPBG@Z 10046d20 f   i3String.obj
 0001:00045d40       ?LengthChar@i3String@@YAHHPBD@Z 10046d40 f   i3String.obj
 0001:00045e40       ?MakeCStylePath@i3String@@YAXPADPBD@Z 10046e40 f   i3String.obj
 0001:00045e70       ?MakePointFix@i3String@@YAXNPADH_N@Z 10046e70 f   i3String.obj
 0001:00045fd0       ?MakePointFix@i3String@@YAXNPAGH_N@Z 10046fd0 f   i3String.obj
 0001:00046140       ?MakeRelativePath@i3String@@YAXPBD0PADH@Z 10047140 f   i3String.obj
 0001:000462f0       ?MakeUnixPath@i3String@@YAXPAD@Z 100472f0 f   i3String.obj
 0001:00046320       ?NCompare@i3String@@YAHPBD0H@Z 10047320 f   i3String.obj
 0001:00046330       ?NCompareW@i3String@@YAHPBG0H@Z 10047330 f   i3String.obj
 0001:00046340       ?NCopy@i3String@@YAXPADPBDH@Z 10047340 f   i3String.obj
 0001:00046380       ?NCopy@i3String@@YAXPAGPBGH@Z 10047380 f   i3String.obj
 0001:000463d0       ?NReplace@i3String@@YA_NPADHHHPBDH@Z 100473d0 f   i3String.obj
 0001:000464a0       ?NewString@i3String@@YAPADPBD@Z 100474a0 f   i3String.obj
 0001:00046500       ?NormalizePath@i3String@@YAXPAD@Z 10047500 f   i3String.obj
 0001:00046530       ?ParseMultiSelectFileName@i3String@@YAXPADPAVi3StringList@@@Z 10047530 f   i3String.obj
 0001:000465b0       ?PreprocessMacro@i3String@@YAXPADHPBDPAUi3SymbolTableInfo@@H@Z 100475b0 f   i3String.obj
 0001:000466c0       ?Q_search@@YAHPAD0@Z       100476c0 f   i3String.obj
 0001:00046850       ?RK_search@@YAHPAD0@Z      10047850 f   i3String.obj
 0001:000469b0       ?RemoveAllBlank@i3String@@YAXPAD@Z 100479b0 f   i3String.obj
 0001:000469f0       ?RemoveAllChar@i3String@@YAXPADD@Z 100479f0 f   i3String.obj
 0001:00046a30       ?RemoveBlankFromHead@i3String@@YAXPAD@Z 10047a30 f   i3String.obj
 0001:00046a70       ?RemoveBlankFromTail@i3String@@YAXPAD@Z 10047a70 f   i3String.obj
 0001:00046ab0       ?RemoveDriveChar@i3String@@YAXPAD@Z 10047ab0 f   i3String.obj
 0001:00046b00       ?RemoveExt@i3String@@YAXPAD@Z 10047b00 f   i3String.obj
 0001:00046b40       ?RemoveFileName@i3String@@YAXPAD@Z 10047b40 f   i3String.obj
 0001:00046b70       ?Replace@i3String@@YAHPADHPBD1@Z 10047b70 f   i3String.obj
 0001:00046d50       ?ReplaceNoCase@i3String@@YAHPADHPBD1@Z 10047d50 f   i3String.obj
 0001:00046fd0       ?ResolvePathToken@i3String@@YAXPBDPAVi3StringList@@@Z 10047fd0 f   i3String.obj
 0001:00047090       ?Search@i3String@@YAHPAD0W4ALGORITHM@1@@Z 10048090 f   i3String.obj
 0001:000475e0       ?SplitFileExt@i3String@@YAHPBDPADH@Z 100485e0 f   i3String.obj
 0001:00047640       ?SplitFileName@i3String@@YAPADPBDPADH@Z 10048640 f   i3String.obj
 0001:000476d0       ?SplitPath@i3String@@YAXPBDPAD@Z 100486d0 f   i3String.obj
 0001:00047730       ?SwapExt@i3String@@YAXPADHPBD1@Z 10048730 f   i3String.obj
 0001:00047800       ?ToInt@i3String@@YAHPBD@Z  10048800 f   i3String.obj
 0001:000478b0       ?ToLower@i3String@@YADD@Z  100488b0 f   i3String.obj
 0001:000478d0       ?ToLower@i3String@@YAXPAD@Z 100488d0 f   i3String.obj
 0001:00047900       ?ToLower@i3String@@YAXPADIPBD@Z 10048900 f   i3String.obj
 0001:00047960       ?ToUpper@i3String@@YADD@Z  10048960 f   i3String.obj
 0001:00047980       ?ToUpper@i3String@@YAXPAD@Z 10048980 f   i3String.obj
 0001:000479b0       ?ToUpperAfterN@i3String@@YAXPADH@Z 100489b0 f   i3String.obj
 0001:000479e0       ?ToUpperBeforeN@i3String@@YAXPADH@Z 100489e0 f   i3String.obj
 0001:00047a10       ?UCS2toUTF8@i3String@@YAHPADPBGH@Z 10048a10 f   i3String.obj
 0001:00047b20       ?UTF8toUCS2@i3String@@YAHPAGPBDH@Z 10048b20 f   i3String.obj
 0001:00047c20       ?ValueToStr@i3String@@YAHHPADH@Z 10048c20 f   i3String.obj
 0001:00047cf0       ?WhatIsCode@i3String@@YAHPBDH@Z 10048cf0 f   i3String.obj
 0001:00047d20       ?_scanWildcard@@YA_NPAD0@Z 10048d20 f   i3String.obj
 0001:00047d80       ?ftoa@i3String@@YAXMPADH@Z 10048d80 f   i3String.obj
 0001:00047e10       ?preBmBc@@YAXPADHPAHH@Z    10048e10 f   i3String.obj
 0001:00047e60       ?preBmGs@@YAXPADHPAHH@Z    10048e60 f   i3String.obj
 0001:00047f90       ?preQsBc@@YAXPADHPAHH@Z    10048f90 f   i3String.obj
 0001:00047fe0       ?substr@i3String@@YAXPADPBDHH@Z 10048fe0 f   i3String.obj
 0001:00048040       ?suffixes@@YAXPADHPAH@Z    10049040 f   i3String.obj
 0001:000480c0       __swprintf                 100490c0 f i i3String.obj
 0001:000480f0       ?CreateInstance@?$i3MetaTemplate@Vi3StringTable@@@@UAEPAVi3ElementBase@@W4I3_CLASSMETA_TYPE@@@Z 100490f0 f i i3StringTable.obj
 0001:000481d0       ?BindInstance@?$i3MetaTemplate@Vi3StringTable@@@@UAEPAVi3ElementBase@@PAXW4I3_CLASSMETA_TYPE@@@Z 100491d0 f i i3StringTable.obj
 0001:000482a0       ??_E?$i3MetaTemplate@Vi3StringTable@@@@UAEPAXI@Z 100492a0 f i i3StringTable.obj
 0001:000482a0       ??_G?$i3MetaTemplate@Vi3StringTable@@@@UAEPAXI@Z 100492a0 f i i3StringTable.obj
 0001:000482d0       ??0?$i3MetaTemplate@Vi3StringTable@@@@QAE@IPAD0W4I3_CLASSMETA_TYPE@@@Z 100492d0 f i i3StringTable.obj
 0001:00048300       ??0i3StringTable@@QAE@XZ   10049300 f   i3StringTable.obj
 0001:00048350       ??1i3StringTable@@UAE@XZ   10049350 f   i3StringTable.obj
 0001:000483a0       ?CreateFromStream@i3StringTable@@QAEHPAVi3Stream@@@Z 100493a0 f   i3StringTable.obj
 0001:000484c0       ?DestroyBuffers@i3StringTable@@QAEXXZ 100494c0 f   i3StringTable.obj
 0001:00048540       ?GetLabel@i3StringTable@@QAEPBDH@Z 10049540 f   i3StringTable.obj
 0001:00048570       ?GetMeta@i3StringTable@@UAEPAVi3ClassMeta@@XZ 10049570 f   i3StringTable.obj
 0001:00048580       ?GetString@i3StringTable@@QAEPBGH@Z 10049580 f   i3StringTable.obj
 0001:000485b0       ?GetString@i3StringTable@@QAEPBGPBD@Z 100495b0 f   i3StringTable.obj
 0001:00048610       ?GetStringIndex@i3StringTable@@QAEHPBD@Z 10049610 f   i3StringTable.obj
 0001:00048660       ?NewBuffers@i3StringTable@@IAEHXZ 10049660 f   i3StringTable.obj
 0001:000486c0       ?RegisterMeta@i3StringTable@@SAXXZ 100496c0 f   i3StringTable.obj
 0001:000486d0       ?SetConcreteClass@i3StringTable@@SAXPAVi3ClassMeta@@@Z 100496d0 f   i3StringTable.obj
 0001:000486f0       ?SetGhostClass@i3StringTable@@SAXPAVi3ClassMeta@@@Z 100496f0 f   i3StringTable.obj
 0001:00048710       ?_BindObject@i3StringTable@@SAPAV1@PAX@Z 10049710 f   i3StringTable.obj
 0001:00048730       ?_BindObjectByType@i3StringTable@@SAPAV1@PAXW4I3_CLASSMETA_TYPE@@@Z 10049730 f   i3StringTable.obj
 0001:00048750       ?_BindObjectRef@i3StringTable@@SAPAV1@PAX@Z 10049750 f   i3StringTable.obj
 0001:00048770       ?_BindObjectRefByType@i3StringTable@@SAPAV1@PAXW4I3_CLASSMETA_TYPE@@@Z 10049770 f   i3StringTable.obj
 0001:00048790       ?_NewObject@i3StringTable@@SAPAV1@XZ 10049790 f   i3StringTable.obj
 0001:000487b0       ?_NewObjectByType@i3StringTable@@SAPAV1@W4I3_CLASSMETA_TYPE@@@Z 100497b0 f   i3StringTable.obj
 0001:000487d0       ?_NewObjectRef@i3StringTable@@SAPAV1@XZ 100497d0 f   i3StringTable.obj
 0001:000487e0       ?_NewObjectRefByType@i3StringTable@@SAPAV1@W4I3_CLASSMETA_TYPE@@@Z 100497e0 f   i3StringTable.obj
 0001:00048800       ?CreateInstance@?$i3MetaTemplate@Vi3TimeEventGen@@@@UAEPAVi3ElementBase@@W4I3_CLASSMETA_TYPE@@@Z 10049800 f i i3TimeEventGen.obj
 0001:000488e0       ?BindInstance@?$i3MetaTemplate@Vi3TimeEventGen@@@@UAEPAVi3ElementBase@@PAXW4I3_CLASSMETA_TYPE@@@Z 100498e0 f i i3TimeEventGen.obj
 0001:00048980       ??_E?$i3MetaTemplate@Vi3TimeEventGen@@@@UAEPAXI@Z 10049980 f i i3TimeEventGen.obj
 0001:00048980       ??_G?$i3MetaTemplate@Vi3TimeEventGen@@@@UAEPAXI@Z 10049980 f i i3TimeEventGen.obj
 0001:000489b0       ??0?$i3MetaTemplate@Vi3TimeEventGen@@@@QAE@IPAD0W4I3_CLASSMETA_TYPE@@@Z 100499b0 f i i3TimeEventGen.obj
 0001:000489e0       ??0i3TimeEventGen@@QAE@XZ  100499e0 f   i3TimeEventGen.obj
 0001:00048a80       ??1i3TimeEventGen@@UAE@XZ  10049a80 f   i3TimeEventGen.obj
 0001:00048b10       ?AddEvent@i3TimeEventGen@@QAEHPAVi3TimeEventInfo@@@Z 10049b10 f   i3TimeEventGen.obj
 0001:00048b50       ?CopyTo@i3TimeEventGen@@UAEXPAVi3ElementBase@@W4I3_COPY_METHOD@@@Z 10049b50 f   i3TimeEventGen.obj
 0001:00048c00       ?GetMeta@i3TimeEventGen@@UAEPAVi3ClassMeta@@XZ 10049c00 f   i3TimeEventGen.obj
 0001:00048c10       ?OnBuildObjectList@i3TimeEventGen@@UAEXAAV?$vector@PAVi3PersistantElement@@V?$pool_allocator@PAVi3PersistantElement@@@i3@@@i3@@@Z 10049c10 f   i3TimeEventGen.obj
 0001:00048c50       ?OnChangeTime@i3TimeEventGen@@UAEXM@Z 10049c50 f   i3TimeEventGen.obj
 0001:00048d70       ?OnLoad@i3TimeEventGen@@UAEIPAVi3ResourceFile@@@Z 10049d70 f   i3TimeEventGen.obj
 0001:00048ea0       ?OnSave@i3TimeEventGen@@UAEIPAVi3ResourceFile@@@Z 10049ea0 f   i3TimeEventGen.obj
 0001:00048fe0       ?OnUpdate@i3TimeEventGen@@UAEXM@Z 10049fe0 f   i3TimeEventGen.obj
 0001:00049100       ?RegisterMeta@i3TimeEventGen@@SAXXZ 1004a100 f   i3TimeEventGen.obj
 0001:00049110       ?RemoveAllEvents@i3TimeEventGen@@QAEXXZ 1004a110 f   i3TimeEventGen.obj
 0001:00049150       ?RemoveEvent@i3TimeEventGen@@QAEXH@Z 1004a150 f   i3TimeEventGen.obj
 0001:00049190       ?RemoveEvent@i3TimeEventGen@@QAEXPAVi3TimeEventInfo@@@Z 1004a190 f   i3TimeEventGen.obj
 0001:000491e0       ?Reset@i3TimeEventGen@@QAEXXZ 1004a1e0 f   i3TimeEventGen.obj
 0001:00049200       ?SetConcreteClass@i3TimeEventGen@@SAXPAVi3ClassMeta@@@Z 1004a200 f   i3TimeEventGen.obj
 0001:00049220       ?SetGhostClass@i3TimeEventGen@@SAXPAVi3ClassMeta@@@Z 1004a220 f   i3TimeEventGen.obj
 0001:00049240       ?SortEvents@i3TimeEventGen@@QAEXXZ 1004a240 f   i3TimeEventGen.obj
 0001:00049260       ?Stop@i3TimeEventGen@@QAEXXZ 1004a260 f   i3TimeEventGen.obj
 0001:000492d0       ?_BindObject@i3TimeEventGen@@SAPAV1@PAX@Z 1004a2d0 f   i3TimeEventGen.obj
 0001:000492f0       ?_BindObjectByType@i3TimeEventGen@@SAPAV1@PAXW4I3_CLASSMETA_TYPE@@@Z 1004a2f0 f   i3TimeEventGen.obj
 0001:00049310       ?_BindObjectRef@i3TimeEventGen@@SAPAV1@PAX@Z 1004a310 f   i3TimeEventGen.obj
 0001:00049330       ?_BindObjectRefByType@i3TimeEventGen@@SAPAV1@PAXW4I3_CLASSMETA_TYPE@@@Z 1004a330 f   i3TimeEventGen.obj
 0001:00049350       ?_NewObject@i3TimeEventGen@@SAPAV1@XZ 1004a350 f   i3TimeEventGen.obj
 0001:00049370       ?_NewObjectByType@i3TimeEventGen@@SAPAV1@W4I3_CLASSMETA_TYPE@@@Z 1004a370 f   i3TimeEventGen.obj
 0001:00049390       ?_NewObjectRef@i3TimeEventGen@@SAPAV1@XZ 1004a390 f   i3TimeEventGen.obj
 0001:000493a0       ?_NewObjectRefByType@i3TimeEventGen@@SAPAV1@W4I3_CLASSMETA_TYPE@@@Z 1004a3a0 f   i3TimeEventGen.obj
 0001:00049400       ?_UpdateDuration@i3TimeEventGen@@IAEXXZ 1004a400 f   i3TimeEventGen.obj
 0001:00049480       ?CreateInstance@?$i3MetaTemplate@Vi3TimeEventInfo@@@@UAEPAVi3ElementBase@@W4I3_CLASSMETA_TYPE@@@Z 1004a480 f i i3TimeEventInfo.obj
 0001:00049560       ?BindInstance@?$i3MetaTemplate@Vi3TimeEventInfo@@@@UAEPAVi3ElementBase@@PAXW4I3_CLASSMETA_TYPE@@@Z 1004a560 f i i3TimeEventInfo.obj
 0001:00049600       ??_E?$i3MetaTemplate@Vi3TimeEventInfo@@@@UAEPAXI@Z 1004a600 f i i3TimeEventInfo.obj
 0001:00049600       ??_G?$i3MetaTemplate@Vi3TimeEventInfo@@@@UAEPAXI@Z 1004a600 f i i3TimeEventInfo.obj
 0001:00049630       ??0?$i3MetaTemplate@Vi3TimeEventInfo@@@@QAE@IPAD0W4I3_CLASSMETA_TYPE@@@Z 1004a630 f i i3TimeEventInfo.obj
 0001:00049660       ??0i3TimeEventInfo@@QAE@XZ 1004a660 f   i3TimeEventInfo.obj
 0001:000496b0       ??1i3TimeEventInfo@@UAE@XZ 1004a6b0 f   i3TimeEventInfo.obj
 0001:00049710       ?CopyTo@i3TimeEventInfo@@UAEXPAVi3ElementBase@@W4I3_COPY_METHOD@@@Z 1004a710 f   i3TimeEventInfo.obj
 0001:000497c0       ?GetMeta@i3TimeEventInfo@@UAEPAVi3ClassMeta@@XZ 1004a7c0 f   i3TimeEventInfo.obj
 0001:000497d0       ?OnBuildObjectList@i3TimeEventInfo@@UAEXAAV?$vector@PAVi3PersistantElement@@V?$pool_allocator@PAVi3PersistantElement@@@i3@@@i3@@@Z 1004a7d0 f   i3TimeEventInfo.obj
 0001:00049800       ?OnLoad@i3TimeEventInfo@@UAEIPAVi3ResourceFile@@@Z 1004a800 f   i3TimeEventInfo.obj
 0001:00049920       ?OnSave@i3TimeEventInfo@@UAEIPAVi3ResourceFile@@@Z 1004a920 f   i3TimeEventInfo.obj
 0001:00049a30       ?RegisterMeta@i3TimeEventInfo@@SAXXZ 1004aa30 f   i3TimeEventInfo.obj
 0001:00049a40       ?SetConcreteClass@i3TimeEventInfo@@SAXPAVi3ClassMeta@@@Z 1004aa40 f   i3TimeEventInfo.obj
 0001:00049a60       ?SetGhostClass@i3TimeEventInfo@@SAXPAVi3ClassMeta@@@Z 1004aa60 f   i3TimeEventInfo.obj
 0001:00049a80       ?_BindObject@i3TimeEventInfo@@SAPAV1@PAX@Z 1004aa80 f   i3TimeEventInfo.obj
 0001:00049aa0       ?_BindObjectByType@i3TimeEventInfo@@SAPAV1@PAXW4I3_CLASSMETA_TYPE@@@Z 1004aaa0 f   i3TimeEventInfo.obj
 0001:00049ac0       ?_BindObjectRef@i3TimeEventInfo@@SAPAV1@PAX@Z 1004aac0 f   i3TimeEventInfo.obj
 0001:00049ae0       ?_BindObjectRefByType@i3TimeEventInfo@@SAPAV1@PAXW4I3_CLASSMETA_TYPE@@@Z 1004aae0 f   i3TimeEventInfo.obj
 0001:00049b00       ?_NewObject@i3TimeEventInfo@@SAPAV1@XZ 1004ab00 f   i3TimeEventInfo.obj
 0001:00049b20       ?_NewObjectByType@i3TimeEventInfo@@SAPAV1@W4I3_CLASSMETA_TYPE@@@Z 1004ab20 f   i3TimeEventInfo.obj
 0001:00049b40       ?_NewObjectRef@i3TimeEventInfo@@SAPAV1@XZ 1004ab40 f   i3TimeEventInfo.obj
 0001:00049b50       ?_NewObjectRefByType@i3TimeEventInfo@@SAPAV1@W4I3_CLASSMETA_TYPE@@@Z 1004ab50 f   i3TimeEventInfo.obj
 0001:00049b70       ?CreateInstance@?$i3MetaTemplate@Vi3TreeNode@@@@UAEPAVi3ElementBase@@W4I3_CLASSMETA_TYPE@@@Z 1004ab70 f i i3TreeNode.obj
 0001:00049c50       ?BindInstance@?$i3MetaTemplate@Vi3TreeNode@@@@UAEPAVi3ElementBase@@PAXW4I3_CLASSMETA_TYPE@@@Z 1004ac50 f i i3TreeNode.obj
 0001:00049cf0       ??_E?$i3MetaTemplate@Vi3TreeNode@@@@UAEPAXI@Z 1004acf0 f i i3TreeNode.obj
 0001:00049cf0       ??_G?$i3MetaTemplate@Vi3TreeNode@@@@UAEPAXI@Z 1004acf0 f i i3TreeNode.obj
 0001:00049d20       ??0?$i3MetaTemplate@Vi3TreeNode@@@@QAE@IPAD0W4I3_CLASSMETA_TYPE@@@Z 1004ad20 f i i3TreeNode.obj
 0001:00049d50       ??0i3TreeNode@@QAE@XZ      1004ad50 f   i3TreeNode.obj
 0001:00049dd0       ??1i3TreeNode@@UAE@XZ      1004add0 f   i3TreeNode.obj
 0001:00049e40       ?AddChild@i3TreeNode@@QAEXPAV1@@Z 1004ae40 f   i3TreeNode.obj
 0001:00049e70       ?CopyTo@i3TreeNode@@UAEXPAVi3ElementBase@@W4I3_COPY_METHOD@@@Z 1004ae70 f   i3TreeNode.obj
 0001:00049e80       ?CreateClone@i3TreeNode@@SAPAV1@PAV1@W4I3_COPY_METHOD@@@Z 1004ae80 f   i3TreeNode.obj
 0001:00049ec0       ?DetachChild@i3TreeNode@@QAEXPAV1@@Z 1004aec0 f   i3TreeNode.obj
 0001:00049ee0       ?FindChildByName@i3TreeNode@@QAEPAV1@PBD@Z 1004aee0 f   i3TreeNode.obj
 0001:00049f30       ?FindNodeByExactType@i3TreeNode@@SAPAV1@PAV1@PAVi3ClassMeta@@_N@Z 1004af30 f   i3TreeNode.obj
 0001:00049f90       ?FindNodeByExactType@i3TreeNode@@SAXPAV1@PAVi3ClassMeta@@PAVi3List@@_N@Z 1004af90 f   i3TreeNode.obj
 0001:00049ff0       ?FindNodeByName@i3TreeNode@@SAPAV1@PAV1@PBD_N@Z 1004aff0 f   i3TreeNode.obj
 0001:0004a060       ?FindNodeByName@i3TreeNode@@SAXPAV1@PBDPAVi3List@@_N@Z 1004b060 f   i3TreeNode.obj
 0001:0004a0d0       ?FindNodeByType@i3TreeNode@@SAPAV1@PAV1@PAVi3ClassMeta@@_N@Z 1004b0d0 f   i3TreeNode.obj
 0001:0004a130       ?FindNodeByType@i3TreeNode@@SAXPAV1@PAVi3ClassMeta@@PAVi3List@@_N@Z 1004b130 f   i3TreeNode.obj
 0001:0004a1a0       ?GetMeta@i3TreeNode@@UAEPAVi3ClassMeta@@XZ 1004b1a0 f   i3TreeNode.obj
 0001:0004a1b0       ?InsertChild@i3TreeNode@@QAEXHPAV1@@Z 1004b1b0 f   i3TreeNode.obj
 0001:0004a1e0       ?IsChild@i3TreeNode@@QAEHPAV1@@Z 1004b1e0 f   i3TreeNode.obj
 0001:0004a210       ?OnBuildObjectList@i3TreeNode@@UAEXAAV?$vector@PAVi3PersistantElement@@V?$pool_allocator@PAVi3PersistantElement@@@i3@@@i3@@@Z 1004b210 f   i3TreeNode.obj
 0001:0004a260       ?OnLoad@i3TreeNode@@UAEIPAVi3ResourceFile@@@Z 1004b260 f   i3TreeNode.obj
 0001:0004a430       ?OnLoadXML@i3TreeNode@@UAE_NPAVi3XMLFile@@PAVi3XMLElement@@@Z 1004b430 f   i3TreeNode.obj
 0001:0004a540       ?OnSave@i3TreeNode@@UAEIPAVi3ResourceFile@@@Z 1004b540 f   i3TreeNode.obj
 0001:0004a6f0       ?OnSaveXML@i3TreeNode@@UAE_NPAVi3XMLFile@@PAVi3XMLElement@@@Z 1004b6f0 f   i3TreeNode.obj
 0001:0004a810       ?RegisterMeta@i3TreeNode@@SAXXZ 1004b810 f   i3TreeNode.obj
 0001:0004a820       ?RemoveAllChild@i3TreeNode@@QAEXXZ 1004b820 f   i3TreeNode.obj
 0001:0004a870       ?RemoveChild@i3TreeNode@@QAEXPAV1@@Z 1004b870 f   i3TreeNode.obj
 0001:0004a8b0       ?RemoveFromParent@i3TreeNode@@QAEXXZ 1004b8b0 f   i3TreeNode.obj
 0001:0004a8f0       ?SetConcreteClass@i3TreeNode@@SAXPAVi3ClassMeta@@@Z 1004b8f0 f   i3TreeNode.obj
 0001:0004a910       ?SetGhostClass@i3TreeNode@@SAXPAVi3ClassMeta@@@Z 1004b910 f   i3TreeNode.obj
 0001:0004a930       ?SetParent@i3TreeNode@@QAEXPAV1@@Z 1004b930 f   i3TreeNode.obj
 0001:0004a940       ?Traverse@i3TreeNode@@SA_NPAV1@P6AHH0PAX@Z1@Z 1004b940 f   i3TreeNode.obj
 0001:0004a9b0       ?_BindObject@i3TreeNode@@SAPAV1@PAX@Z 1004b9b0 f   i3TreeNode.obj
 0001:0004a9d0       ?_BindObjectByType@i3TreeNode@@SAPAV1@PAXW4I3_CLASSMETA_TYPE@@@Z 1004b9d0 f   i3TreeNode.obj
 0001:0004a9f0       ?_BindObjectRef@i3TreeNode@@SAPAV1@PAX@Z 1004b9f0 f   i3TreeNode.obj
 0001:0004aa10       ?_BindObjectRefByType@i3TreeNode@@SAPAV1@PAXW4I3_CLASSMETA_TYPE@@@Z 1004ba10 f   i3TreeNode.obj
 0001:0004aa30       ?_NewObject@i3TreeNode@@SAPAV1@XZ 1004ba30 f   i3TreeNode.obj
 0001:0004aa50       ?_NewObjectByType@i3TreeNode@@SAPAV1@W4I3_CLASSMETA_TYPE@@@Z 1004ba50 f   i3TreeNode.obj
 0001:0004aa70       ?_NewObjectRef@i3TreeNode@@SAPAV1@XZ 1004ba70 f   i3TreeNode.obj
 0001:0004aa80       ?_NewObjectRefByType@i3TreeNode@@SAPAV1@W4I3_CLASSMETA_TYPE@@@Z 1004ba80 f   i3TreeNode.obj
 0001:0004ac30       ??0REAL16@@QAE@M@Z         1004bc30 f i REAL16.obj
 0001:0004ac50       ??0REAL16@@QAE@XZ          1004bc50 f i REAL16.obj
 0001:0004ac60       ??4REAL16@@QAEAAV0@ABH@Z   1004bc60 f i REAL16.obj
 0001:0004ac90       ??4REAL16@@QAEAAV0@ABI@Z   1004bc90 f i REAL16.obj
 0001:0004acd0       ??4REAL16@@QAEAAV0@ABM@Z   1004bcd0 f i REAL16.obj
 0001:0004ad00       ??4REAL16@@QAEAAV0@ABV0@@Z 1004bd00 f i REAL16.obj
 0001:0004ad20       ??BREAL16@@QBE?BMXZ        1004bd20 f i REAL16.obj
 0001:0004ad30       ?F2H@REAL16@@KAGM@Z        1004bd30 f   REAL16.obj
 0001:0004ae20       ?H2F@REAL16@@KAMG@Z        1004be20 f   REAL16.obj
 0001:0004aec0       _closesocket@4             1004bec0 f   ws2_32:WS2_32.dll
 0001:0004aec6       _shutdown@8                1004bec6 f   ws2_32:WS2_32.dll
 0001:0004aecc       _connect@12                1004becc f   ws2_32:WS2_32.dll
 0001:0004aed2       _htons@4                   1004bed2 f   ws2_32:WS2_32.dll
 0001:0004aed8       _inet_addr@4               1004bed8 f   ws2_32:WS2_32.dll
 0001:0004aede       _recv@16                   1004bede f   ws2_32:WS2_32.dll
 0001:0004aee4       _send@16                   1004bee4 f   ws2_32:WS2_32.dll
 0001:0004aeea       _socket@12                 1004beea f   ws2_32:WS2_32.dll
 0001:0004aef0       _WSAGetLastError@0         1004bef0 f   ws2_32:WS2_32.dll
 0001:0004aef6       _WSACloseEvent@4           1004bef6 f   ws2_32:WS2_32.dll
 0001:0004aefc       _WSACreateEvent@0          1004befc f   ws2_32:WS2_32.dll
 0001:0004af02       _WSAEnumNetworkEvents@12   1004bf02 f   ws2_32:WS2_32.dll
 0001:0004af08       _WSAEventSelect@12         1004bf08 f   ws2_32:WS2_32.dll
 0001:0004af0e       ___WSAFDIsSet@8            1004bf0e f   ws2_32:WS2_32.dll
 0001:0004af14       _accept@12                 1004bf14 f   ws2_32:WS2_32.dll
 0001:0004af1a       _bind@12                   1004bf1a f   ws2_32:WS2_32.dll
 0001:0004af20       _ioctlsocket@12            1004bf20 f   ws2_32:WS2_32.dll
 0001:0004af26       _listen@8                  1004bf26 f   ws2_32:WS2_32.dll
 0001:0004af2c       _select@20                 1004bf2c f   ws2_32:WS2_32.dll
 0001:0004af32       _setsockopt@20             1004bf32 f   ws2_32:WS2_32.dll
 0001:0004af38       _getsockname@12            1004bf38 f   ws2_32:WS2_32.dll
 0001:0004af3e       _htonl@4                   1004bf3e f   ws2_32:WS2_32.dll
 0001:0004af44       _recvfrom@24               1004bf44 f   ws2_32:WS2_32.dll
 0001:0004af4a       _sendto@24                 1004bf4a f   ws2_32:WS2_32.dll
 0001:0004af50       _gethostbyname@4           1004bf50 f   ws2_32:WS2_32.dll
 0001:0004af56       _WSAStartup@8              1004bf56 f   ws2_32:WS2_32.dll
 0001:0004af5c       _getsockopt@20             1004bf5c f   ws2_32:WS2_32.dll
 0001:0004af62       _gethostname@8             1004bf62 f   ws2_32:WS2_32.dll
 0001:0004af68       _WSACleanup@0              1004bf68 f   ws2_32:WS2_32.dll
 0001:0004af6e       _getservbyname@8           1004bf6e f   ws2_32:WS2_32.dll
 0001:0004af74       _InternetOpenA@20          1004bf74 f   wininet:WININET.dll
 0001:0004af7a       _InternetCloseHandle@4     1004bf7a f   wininet:WININET.dll
 0001:0004af80       _InternetConnectA@32       1004bf80 f   wininet:WININET.dll
 0001:0004af86       _InternetReadFile@16       1004bf86 f   wininet:WININET.dll
 0001:0004af8c       _InternetWriteFile@16      1004bf8c f   wininet:WININET.dll
 0001:0004af92       _FtpFindFirstFileA@20      1004bf92 f   wininet:WININET.dll
 0001:0004af98       _FtpGetFileA@28            1004bf98 f   wininet:WININET.dll
 0001:0004af9e       _FtpDeleteFileA@8          1004bf9e f   wininet:WININET.dll
 0001:0004afa4       _FtpOpenFileA@20           1004bfa4 f   wininet:WININET.dll
 0001:0004afaa       _FtpCreateDirectoryA@8     1004bfaa f   wininet:WININET.dll
 0001:0004afb0       _FtpSetCurrentDirectoryA@8 1004bfb0 f   wininet:WININET.dll
 0001:0004afb6       _FtpGetCurrentDirectoryA@12 1004bfb6 f   wininet:WININET.dll
 0001:0004afbc       _InternetOpenUrlA@24       1004bfbc f   wininet:WININET.dll
 0001:0004afc2       _InternetQueryDataAvailable@16 1004bfc2 f   wininet:WININET.dll
 0001:0004afc8       _InternetQueryOptionA@16   1004bfc8 f   wininet:WININET.dll
 0001:0004afce       _InternetSetOptionA@16     1004bfce f   wininet:WININET.dll
 0001:0004afd4       _HttpOpenRequestA@32       1004bfd4 f   wininet:WININET.dll
 0001:0004afda       _HttpSendRequestA@20       1004bfda f   wininet:WININET.dll
 0001:0004afe0       _InternetAttemptConnect@4  1004bfe0 f   wininet:WININET.dll
 0001:0004afe6       _InternetGetConnectedState@8 1004bfe6 f   wininet:WININET.dll
 0001:0004afec       _GetAdaptersInfo@8         1004bfec f   iphlpapi:IPHLPAPI.DLL
 0001:0004aff2       _timeGetTime@0             1004bff2 f   Winmm:WINMM.dll
 0001:0004aff8       _MiniDumpWriteDump@28      1004bff8 f   Dbghelp:dbghelp.dll
 0001:0004affe       _DecodePointer@4           1004bffe f   kernel32:KERNEL32.dll
 0001:0004b004       _GetLastError@0            1004c004 f   kernel32:KERNEL32.dll
 0001:0004b00a       _HeapDestroy@4             1004c00a f   kernel32:KERNEL32.dll
 0001:0004b010       _HeapAlloc@12              1004c010 f   kernel32:KERNEL32.dll
 0001:0004b016       _HeapReAlloc@16            1004c016 f   kernel32:KERNEL32.dll
 0001:0004b01c       _HeapFree@12               1004c01c f   kernel32:KERNEL32.dll
 0001:0004b022       _HeapSize@12               1004c022 f   kernel32:KERNEL32.dll
 0001:0004b028       _GetProcessHeap@0          1004c028 f   kernel32:KERNEL32.dll
 0001:0004b02e       _InitializeCriticalSectionAndSpinCount@8 1004c02e f   kernel32:KERNEL32.dll
 0001:0004b034       _DeleteCriticalSection@4   1004c034 f   kernel32:KERNEL32.dll
 0001:0004b03a       _GetSystemInfo@4           1004c03a f   kernel32:KERNEL32.dll
 0001:0004b040       _GetModuleFileNameA@12     1004c040 f   kernel32:KERNEL32.dll
 0001:0004b046       _GetLogicalDriveStringsA@8 1004c046 f   kernel32:KERNEL32.dll
 0001:0004b04c       _WaitForSingleObject@8     1004c04c f   kernel32:KERNEL32.dll
 0001:0004b052       _GetSystemTime@4           1004c052 f   kernel32:KERNEL32.dll
 0001:0004b058       _GetLocalTime@4            1004c058 f   kernel32:KERNEL32.dll
 0001:0004b05e       _SystemTimeToTzSpecificLocalTime@12 1004c05e f   kernel32:KERNEL32.dll
 0001:0004b064       _GetTimeZoneInformation@4  1004c064 f   kernel32:KERNEL32.dll
 0001:0004b06a       _CreateFileA@28            1004c06a f   kernel32:KERNEL32.dll
 0001:0004b070       _SetFilePointer@16         1004c070 f   kernel32:KERNEL32.dll
 0001:0004b076       _WriteFile@20              1004c076 f   kernel32:KERNEL32.dll
 0001:0004b07c       _CloseHandle@4             1004c07c f   kernel32:KERNEL32.dll
 0001:0004b082       _Sleep@4                   1004c082 f   kernel32:KERNEL32.dll
 0001:0004b088       _CreateThread@24           1004c088 f   kernel32:KERNEL32.dll
 0001:0004b08e       _GetCurrentThreadId@0      1004c08e f   kernel32:KERNEL32.dll
 0001:0004b094       _SetThreadPriority@8       1004c094 f   kernel32:KERNEL32.dll
 0001:0004b09a       _CreateFileW@28            1004c09a f   kernel32:KERNEL32.dll
 0001:0004b0a0       _MultiByteToWideChar@24    1004c0a0 f   kernel32:KERNEL32.dll
 0001:0004b0a6       _CreateIoCompletionPort@16 1004c0a6 f   kernel32:KERNEL32.dll
 0001:0004b0ac       _SetCurrentDirectoryA@4    1004c0ac f   kernel32:KERNEL32.dll
 0001:0004b0b2       _GetCurrentDirectoryA@8    1004c0b2 f   kernel32:KERNEL32.dll
 0001:0004b0b8       _CreateDirectoryA@8        1004c0b8 f   kernel32:KERNEL32.dll
 0001:0004b0be       _GetFileInformationByHandle@8 1004c0be f   kernel32:KERNEL32.dll
 0001:0004b0c4       _ReadFile@20               1004c0c4 f   kernel32:KERNEL32.dll
 0001:0004b0ca       _GetTickCount@0            1004c0ca f   kernel32:KERNEL32.dll
 0001:0004b0d0       _GetQueuedCompletionStatus@20 1004c0d0 f   kernel32:KERNEL32.dll
 0001:0004b0d6       _TlsGetValue@4             1004c0d6 f   kernel32:KERNEL32.dll
 0001:0004b0dc       _CompareFileTime@8         1004c0dc f   kernel32:KERNEL32.dll
 0001:0004b0e2       _LocalAlloc@8              1004c0e2 f   kernel32:KERNEL32.dll
 0001:0004b0e8       _LocalFree@4               1004c0e8 f   kernel32:KERNEL32.dll
 0001:0004b0ee       _InitializeCriticalSection@4 1004c0ee f   kernel32:KERNEL32.dll
 0001:0004b0f4       _EnterCriticalSection@4    1004c0f4 f   kernel32:KERNEL32.dll
 0001:0004b0fa       _LeaveCriticalSection@4    1004c0fa f   kernel32:KERNEL32.dll
 0001:0004b100       _TryEnterCriticalSection@4 1004c100 f   kernel32:KERNEL32.dll
 0001:0004b106       _SetEvent@4                1004c106 f   kernel32:KERNEL32.dll
 0001:0004b10c       _ResetEvent@4              1004c10c f   kernel32:KERNEL32.dll
 0001:0004b112       _WaitForSingleObjectEx@12  1004c112 f   kernel32:KERNEL32.dll
 0001:0004b118       _CreateEventA@16           1004c118 f   kernel32:KERNEL32.dll
 0001:0004b11e       _GetEnvironmentVariableA@12 1004c11e f   kernel32:KERNEL32.dll
 0001:0004b124       _SetCurrentDirectoryW@4    1004c124 f   kernel32:KERNEL32.dll
 0001:0004b12a       _GetCurrentDirectoryW@8    1004c12a f   kernel32:KERNEL32.dll
 0001:0004b130       _CreateDirectoryW@8        1004c130 f   kernel32:KERNEL32.dll
 0001:0004b136       _DeleteFileA@4             1004c136 f   kernel32:KERNEL32.dll
 0001:0004b13c       _FindClose@4               1004c13c f   kernel32:KERNEL32.dll
 0001:0004b142       _FindFirstFileA@8          1004c142 f   kernel32:KERNEL32.dll
 0001:0004b148       _FindNextFileA@8           1004c148 f   kernel32:KERNEL32.dll
 0001:0004b14e       _GetFileAttributesA@4      1004c14e f   kernel32:KERNEL32.dll
 0001:0004b154       _GetPriorityClass@4        1004c154 f   kernel32:KERNEL32.dll
 0001:0004b15a       _OpenProcess@12            1004c15a f   kernel32:KERNEL32.dll
 0001:0004b160       _GetVersionExA@4           1004c160 f   kernel32:KERNEL32.dll
 0001:0004b166       _GetModuleHandleA@4        1004c166 f   kernel32:KERNEL32.dll
 0001:0004b16c       _GlobalMemoryStatus@4      1004c16c f   kernel32:KERNEL32.dll
 0001:0004b172       _MoveFileA@8               1004c172 f   kernel32:KERNEL32.dll
 0001:0004b178       _CreateToolhelp32Snapshot@8 1004c178 f   kernel32:KERNEL32.dll
 0001:0004b17e       _Process32First@8          1004c17e f   kernel32:KERNEL32.dll
 0001:0004b184       _Process32Next@8           1004c184 f   kernel32:KERNEL32.dll
 0001:0004b18a       _TerminateThread@8         1004c18a f   kernel32:KERNEL32.dll
 0001:0004b190       _SuspendThread@4           1004c190 f   kernel32:KERNEL32.dll
 0001:0004b196       _ResumeThread@4            1004c196 f   kernel32:KERNEL32.dll
 0001:0004b19c       _QueryPerformanceCounter@4 1004c19c f   kernel32:KERNEL32.dll
 0001:0004b1a2       _QueryPerformanceFrequency@4 1004c1a2 f   kernel32:KERNEL32.dll
 0001:0004b1a8       _SleepEx@8                 1004c1a8 f   kernel32:KERNEL32.dll
 0001:0004b1ae       _GetFileSize@8             1004c1ae f   kernel32:KERNEL32.dll
 0001:0004b1b4       _GetLongPathNameA@12       1004c1b4 f   kernel32:KERNEL32.dll
 0001:0004b1ba       _GetShortPathNameA@12      1004c1ba f   kernel32:KERNEL32.dll
 0001:0004b1c0       _GetOverlappedResult@16    1004c1c0 f   kernel32:KERNEL32.dll
 0001:0004b1c6       _CancelIo@4                1004c1c6 f   kernel32:KERNEL32.dll
 0001:0004b1cc       _LocalSize@4               1004c1cc f   kernel32:KERNEL32.dll
 0001:0004b1d2       _HeapCreate@12             1004c1d2 f   kernel32:KERNEL32.dll
 0001:0004b1d8       _VirtualAlloc@16           1004c1d8 f   kernel32:KERNEL32.dll
 0001:0004b1de       _VirtualFree@12            1004c1de f   kernel32:KERNEL32.dll
 0001:0004b1e4       _HeapSetInformation@16     1004c1e4 f   kernel32:KERNEL32.dll
 0001:0004b1ea       _TlsAlloc@0                1004c1ea f   kernel32:KERNEL32.dll
 0001:0004b1f0       _TlsSetValue@8             1004c1f0 f   kernel32:KERNEL32.dll
 0001:0004b1f6       _TlsFree@4                 1004c1f6 f   kernel32:KERNEL32.dll
 0001:0004b1fc       _OutputDebugStringA@4      1004c1fc f   kernel32:KERNEL32.dll
 0001:0004b202       _OutputDebugStringW@4      1004c202 f   kernel32:KERNEL32.dll
 0001:0004b208       _FormatMessageA@28         1004c208 f   kernel32:KERNEL32.dll
 0001:0004b20e       _SetUnhandledExceptionFilter@4 1004c20e f   kernel32:KERNEL32.dll
 0001:0004b214       _SetErrorMode@4            1004c214 f   kernel32:KERNEL32.dll
 0001:0004b21a       _GetCurrentProcess@0       1004c21a f   kernel32:KERNEL32.dll
 0001:0004b220       _GetCurrentProcessId@0     1004c220 f   kernel32:KERNEL32.dll
 0001:0004b226       _WideCharToMultiByte@32    1004c226 f   kernel32:KERNEL32.dll
 0001:0004b22c       _GetACP@0                  1004c22c f   kernel32:KERNEL32.dll
 0001:0004b232       _GetDateFormatA@24         1004c232 f   kernel32:KERNEL32.dll
 0001:0004b238       _GetTimeFormatA@24         1004c238 f   kernel32:KERNEL32.dll
 0001:0004b23e       _UnregisterClassA@8        1004c23e f   user32:USER32.dll
 0001:0004b244       _wsprintfA                 1004c244 f   user32:USER32.dll
 0001:0004b24a       _MessageBoxA@16            1004c24a f   user32:USER32.dll
 0001:0004b250       _GetDesktopWindow@0        1004c250 f   user32:USER32.dll
 0001:0004b256       _SendMessageA@16           1004c256 f   user32:USER32.dll
 0001:0004b25c       _DialogBoxParamA@20        1004c25c f   user32:USER32.dll
 0001:0004b262       _EndDialog@8               1004c262 f   user32:USER32.dll
 0001:0004b268       _GetDlgItem@8              1004c268 f   user32:USER32.dll
 0001:0004b26e       _SetWindowTextA@8          1004c26e f   user32:USER32.dll
 0001:0004b274       _SetWindowPos@28           1004c274 f   user32:USER32.dll
 0001:0004b27a       _SetFocus@4                1004c27a f   user32:USER32.dll
 0001:0004b280       _CharNextExA@12            1004c280 f   user32:USER32.dll
 0001:0004b286       _CharPrevExA@16            1004c286 f   user32:USER32.dll
 0001:0004b28c       _GetOpenFileNameA@4        1004c28c f   comdlg32:COMDLG32.dll
 0001:0004b292       _RegCloseKey@4             1004c292 f   advapi32:ADVAPI32.dll
 0001:0004b298       _RegOpenKeyExA@20          1004c298 f   advapi32:ADVAPI32.dll
 0001:0004b29e       _RegQueryValueExA@24       1004c29e f   advapi32:ADVAPI32.dll
 0001:0004b2a4       _SHGetMalloc@4             1004c2a4 f   shell32:SHELL32.dll
 0001:0004b2aa       _SHGetPathFromIDListA@8    1004c2aa f   shell32:SHELL32.dll
 0001:0004b2b0       _SHBrowseForFolderA@4      1004c2b0 f   shell32:SHELL32.dll
 0001:0004b2b6       _VariantTimeToSystemTime@12 1004c2b6 f   oleaut32:OLEAUT32.dll
 0001:0004b2bc       _SQLAllocHandle@12         1004c2bc f   odbc32:ODBC32.dll
 0001:0004b2c2       _SQLCloseCursor@4          1004c2c2 f   odbc32:ODBC32.dll
 0001:0004b2c8       _SQLConnect@28             1004c2c8 f   odbc32:ODBC32.dll
 0001:0004b2ce       _SQLDisconnect@4           1004c2ce f   odbc32:ODBC32.dll
 0001:0004b2d4       _SQLExecDirect@12          1004c2d4 f   odbc32:ODBC32.dll
 0001:0004b2da       _SQLFetch@4                1004c2da f   odbc32:ODBC32.dll
 0001:0004b2e0       _SQLFreeHandle@8           1004c2e0 f   odbc32:ODBC32.dll
 0001:0004b2e6       _SQLGetData@24             1004c2e6 f   odbc32:ODBC32.dll
 0001:0004b2ec       _SQLGetDiagField@28        1004c2ec f   odbc32:ODBC32.dll
 0001:0004b2f2       _SQLGetDiagRec@32          1004c2f2 f   odbc32:ODBC32.dll
 0001:0004b2f8       _SQLNumResultCols@8        1004c2f8 f   odbc32:ODBC32.dll
 0001:0004b2fe       _SQLRowCount@8             1004c2fe f   odbc32:ODBC32.dll
 0001:0004b304       _SQLSetEnvAttr@16          1004c304 f   odbc32:ODBC32.dll
 0001:0004b30a       _SQLSetStmtAttr@16         1004c30a f   odbc32:ODBC32.dll
 0001:0004b310       _PdhOpenQueryA@12          1004c310 f   pdh:pdh.dll
 0001:0004b316       _PdhAddCounterA@16         1004c316 f   pdh:pdh.dll
 0001:0004b31c       _PdhCollectQueryData@4     1004c31c f   pdh:pdh.dll
 0001:0004b322       _PdhCloseQuery@4           1004c322 f   pdh:pdh.dll
 0001:0004b328       _PdhGetFormattedCounterValue@16 1004c328 f   pdh:pdh.dll
 0001:0004b32e       ??0bad_alloc@std@@QAE@XZ   1004c32e f i libcpmt:xthrow.obj
 0001:0004b34c       ??0bad_function_call@std@@QAE@ABV01@@Z 1004c34c f i libcpmt:xthrow.obj
 0001:0004b367       ??0bad_function_call@std@@QAE@XZ 1004c367 f i libcpmt:xthrow.obj
 0001:0004b37e       ??0exception@std@@QAE@QBD@Z 1004c37e f i libcpmt:xthrow.obj
 0001:0004b3b9       ??0exception@std@@QAE@QBDH@Z 1004c3b9 f i libcpmt:xthrow.obj
 0001:0004b3dc       ??0exception@std@@QAE@XZ   1004c3dc f i libcpmt:xthrow.obj
 0001:0004b3f3       ??0invalid_argument@std@@QAE@ABV01@@Z 1004c3f3 f i libcpmt:xthrow.obj
 0001:0004b40e       ??0invalid_argument@std@@QAE@PBD@Z 1004c40e f i libcpmt:xthrow.obj
 0001:0004b42d       ??0length_error@std@@QAE@ABV01@@Z 1004c42d f i libcpmt:xthrow.obj
 0001:0004b448       ??0length_error@std@@QAE@PBD@Z 1004c448 f i libcpmt:xthrow.obj
 0001:0004b467       ??0logic_error@std@@QAE@ABV01@@Z 1004c467 f i libcpmt:xthrow.obj
 0001:0004b482       ??0logic_error@std@@QAE@PBD@Z 1004c482 f i libcpmt:xthrow.obj
 0001:0004b4a1       ??0out_of_range@std@@QAE@ABV01@@Z 1004c4a1 f i libcpmt:xthrow.obj
 0001:0004b4bc       ??0out_of_range@std@@QAE@PBD@Z 1004c4bc f i libcpmt:xthrow.obj
 0001:0004b4db       ??0overflow_error@std@@QAE@ABV01@@Z 1004c4db f i libcpmt:xthrow.obj
 0001:0004b4f6       ??0overflow_error@std@@QAE@PBD@Z 1004c4f6 f i libcpmt:xthrow.obj
 0001:0004b515       ??0regex_error@std@@QAE@ABV01@@Z 1004c515 f i libcpmt:xthrow.obj
 0001:0004b539       ??0regex_error@std@@QAE@W4error_type@regex_constants@1@@Z 1004c539 f i libcpmt:xthrow.obj
 0001:0004b567       ??0runtime_error@std@@QAE@ABV01@@Z 1004c567 f i libcpmt:xthrow.obj
 0001:0004b582       ??0runtime_error@std@@QAE@PBD@Z 1004c582 f i libcpmt:xthrow.obj
 0001:0004b5a1       ??1bad_alloc@std@@UAE@XZ   1004c5a1 f i libcpmt:xthrow.obj
 0001:0004b5b2       ??1bad_function_call@std@@UAE@XZ 1004c5b2 f i libcpmt:xthrow.obj
 0001:0004b5c3       ??1invalid_argument@std@@UAE@XZ 1004c5c3 f i libcpmt:xthrow.obj
 0001:0004b5d4       ??1length_error@std@@UAE@XZ 1004c5d4 f i libcpmt:xthrow.obj
 0001:0004b5e5       ??1logic_error@std@@UAE@XZ 1004c5e5 f i libcpmt:xthrow.obj
 0001:0004b5f6       ??1out_of_range@std@@UAE@XZ 1004c5f6 f i libcpmt:xthrow.obj
 0001:0004b607       ??1overflow_error@std@@UAE@XZ 1004c607 f i libcpmt:xthrow.obj
 0001:0004b618       ??1regex_error@std@@UAE@XZ 1004c618 f i libcpmt:xthrow.obj
 0001:0004b629       ??1runtime_error@std@@UAE@XZ 1004c629 f i libcpmt:xthrow.obj
 0001:0004b63a       ??_Ebad_function_call@std@@UAEPAXI@Z 1004c63a f i libcpmt:xthrow.obj
 0001:0004b63a       ??_Gbad_function_call@std@@UAEPAXI@Z 1004c63a f i libcpmt:xthrow.obj
 0001:0004b667       ??_Einvalid_argument@std@@UAEPAXI@Z 1004c667 f i libcpmt:xthrow.obj
 0001:0004b667       ??_Ginvalid_argument@std@@UAEPAXI@Z 1004c667 f i libcpmt:xthrow.obj
 0001:0004b694       ??_Elength_error@std@@UAEPAXI@Z 1004c694 f i libcpmt:xthrow.obj
 0001:0004b694       ??_Glength_error@std@@UAEPAXI@Z 1004c694 f i libcpmt:xthrow.obj
 0001:0004b6c1       ??_Elogic_error@std@@UAEPAXI@Z 1004c6c1 f i libcpmt:xthrow.obj
 0001:0004b6c1       ??_Glogic_error@std@@UAEPAXI@Z 1004c6c1 f i libcpmt:xthrow.obj
 0001:0004b6ee       ??_Eout_of_range@std@@UAEPAXI@Z 1004c6ee f i libcpmt:xthrow.obj
 0001:0004b6ee       ??_Gout_of_range@std@@UAEPAXI@Z 1004c6ee f i libcpmt:xthrow.obj
 0001:0004b71b       ??_Eoverflow_error@std@@UAEPAXI@Z 1004c71b f i libcpmt:xthrow.obj
 0001:0004b71b       ??_Goverflow_error@std@@UAEPAXI@Z 1004c71b f i libcpmt:xthrow.obj
 0001:0004b748       ??_Eregex_error@std@@UAEPAXI@Z 1004c748 f i libcpmt:xthrow.obj
 0001:0004b748       ??_Gregex_error@std@@UAEPAXI@Z 1004c748 f i libcpmt:xthrow.obj
 0001:0004b775       ??_Eruntime_error@std@@UAEPAXI@Z 1004c775 f i libcpmt:xthrow.obj
 0001:0004b775       ??_Gruntime_error@std@@UAEPAXI@Z 1004c775 f i libcpmt:xthrow.obj
 0001:0004b7a2       ?_Stringify@regex_error@std@@CAPBDW4error_type@regex_constants@2@@Z 1004c7a2 f i libcpmt:xthrow.obj
 0001:0004b862       ?_Xbad_alloc@std@@YAXXZ    1004c862 f   libcpmt:xthrow.obj
 0001:0004b87f       ?_Xbad_function_call@std@@YAXXZ 1004c87f f   libcpmt:xthrow.obj
 0001:0004b89c       ?_Xinvalid_argument@std@@YAXPBD@Z 1004c89c f   libcpmt:xthrow.obj
 0001:0004b8bc       ?_Xlength_error@std@@YAXPBD@Z 1004c8bc f   libcpmt:xthrow.obj
 0001:0004b8dc       ?_Xout_of_range@std@@YAXPBD@Z 1004c8dc f   libcpmt:xthrow.obj
 0001:0004b8fc       ?_Xoverflow_error@std@@YAXPBD@Z 1004c8fc f   libcpmt:xthrow.obj
 0001:0004b91c       ?_Xregex_error@std@@YAXW4error_type@regex_constants@1@@Z 1004c91c f   libcpmt:xthrow.obj
 0001:0004b93c       ?_Xruntime_error@std@@YAXPBD@Z 1004c93c f   libcpmt:xthrow.obj
 0001:0004b95c       ?what@bad_function_call@std@@UBEPBDXZ 1004c95c f i libcpmt:xthrow.obj
 0001:0004b962       ??$?2PAUHINSTANCE__@@@Wrapper@?$CSimpleArray@PAUHINSTANCE__@@V?$CSimpleArrayEqualHelper@PAUHINSTANCE__@@@ATL@@@ATL@@SAPAXIPAPAUHINSTANCE__@@@Z 1004c962 f i atls:atlbase.obj
 0001:0004b96a       ??0?$CComCritSecLock@VCComCriticalSection@ATL@@@ATL@@QAE@AAVCComCriticalSection@1@_N@Z 1004c96a f i atls:atlbase.obj
 0001:0004b991       ??0?$CSimpleArray@PAUHINSTANCE__@@V?$CSimpleArrayEqualHelper@PAUHINSTANCE__@@@ATL@@@ATL@@QAE@XZ 1004c991 f i atls:atlbase.obj
 0001:0004b99e       ??0CAtlBaseModule@ATL@@QAE@XZ 1004c99e f   atls:atlbase.obj
 0001:0004b9f1       ??0CComCriticalSection@ATL@@QAE@XZ 1004c9f1 f i atls:atlbase.obj
 0001:0004ba05       ??0Wrapper@?$CSimpleArray@PAUHINSTANCE__@@V?$CSimpleArrayEqualHelper@PAUHINSTANCE__@@@ATL@@@ATL@@QAE@ABQAUHINSTANCE__@@@Z 1004ca05 f i atls:atlbase.obj
 0001:0004ba15       ??0_ATL_BASE_MODULE70@ATL@@QAE@XZ 1004ca15 f i atls:atlbase.obj
 0001:0004ba38       ??1?$CComCritSecLock@VCComCriticalSection@ATL@@@ATL@@QAE@XZ 1004ca38 f i atls:atlbase.obj
 0001:0004ba4f       ??1?$CSimpleArray@PAUHINSTANCE__@@V?$CSimpleArrayEqualHelper@PAUHINSTANCE__@@@ATL@@@ATL@@QAE@XZ 1004ca4f f i atls:atlbase.obj
 0001:0004ba54       ??1CAtlBaseModule@ATL@@QAE@XZ 1004ca54 f   atls:atlbase.obj
 0001:0004ba6a       ??1CComCriticalSection@ATL@@QAE@XZ 1004ca6a f i atls:atlbase.obj
 0001:0004ba6d       ??1_ATL_BASE_MODULE70@ATL@@QAE@XZ 1004ca6d f i atls:atlbase.obj
 0001:0004ba75       ??A?$CSimpleArray@PAUHINSTANCE__@@V?$CSimpleArrayEqualHelper@PAUHINSTANCE__@@@ATL@@@ATL@@QAEAAPAUHINSTANCE__@@H@Z 1004ca75 f i atls:atlbase.obj
 0001:0004ba98       ?Add@?$CSimpleArray@PAUHINSTANCE__@@V?$CSimpleArrayEqualHelper@PAUHINSTANCE__@@@ATL@@@ATL@@QAEHABQAUHINSTANCE__@@@Z 1004ca98 f i atls:atlbase.obj
 0001:0004bb10       ?AddResourceInstance@CAtlBaseModule@ATL@@QAE_NPAUHINSTANCE__@@@Z 1004cb10 f   atls:atlbase.obj
 0001:0004bb43       ?AtlCrtErrorCheck@ATL@@YAHH@Z 1004cb43 f i atls:atlbase.obj
 0001:0004bb7e       ?GetHInstanceAt@CAtlBaseModule@ATL@@QAEPAUHINSTANCE__@@H@Z 1004cb7e f   atls:atlbase.obj
 0001:0004bbc3       ?GetSize@?$CSimpleArray@PAUHINSTANCE__@@V?$CSimpleArrayEqualHelper@PAUHINSTANCE__@@@ATL@@@ATL@@QBEHXZ 1004cbc3 f i atls:atlbase.obj
 0001:0004bbc7       ?Init@CComCriticalSection@ATL@@QAEJXZ 1004cbc7 f i atls:atlbase.obj
 0001:0004bbf1       ?InternalSetAtIndex@?$CSimpleArray@PAUHINSTANCE__@@V?$CSimpleArrayEqualHelper@PAUHINSTANCE__@@@ATL@@@ATL@@QAEXHABQAUHINSTANCE__@@@Z 1004cbf1 f i atls:atlbase.obj
 0001:0004bc0b       ?Lock@?$CComCritSecLock@VCComCriticalSection@ATL@@@ATL@@QAEJXZ 1004cc0b f i atls:atlbase.obj
 0001:0004bc1e       ?Lock@CComCriticalSection@ATL@@QAEJXZ 1004cc1e f i atls:atlbase.obj
 0001:0004bc28       ?RemoveAll@?$CSimpleArray@PAUHINSTANCE__@@V?$CSimpleArrayEqualHelper@PAUHINSTANCE__@@@ATL@@@ATL@@QAEXXZ 1004cc28 f i atls:atlbase.obj
 0001:0004bc50       ?RemoveAt@?$CSimpleArray@PAUHINSTANCE__@@V?$CSimpleArrayEqualHelper@PAUHINSTANCE__@@@ATL@@@ATL@@QAEHH@Z 1004cc50 f i atls:atlbase.obj
 0001:0004bc98       ?RemoveResourceInstance@CAtlBaseModule@ATL@@QAE_NPAUHINSTANCE__@@@Z 1004cc98 f   atls:atlbase.obj
 0001:0004bcf5       ?Term@CComCriticalSection@ATL@@QAEJXZ 1004ccf5 f i atls:atlbase.obj
 0001:0004bcff       ?Unlock@?$CComCritSecLock@VCComCriticalSection@ATL@@@ATL@@QAEXXZ 1004ccff f i atls:atlbase.obj
 0001:0004bd10       ?Unlock@CComCriticalSection@ATL@@QAEJXZ 1004cd10 f i atls:atlbase.obj
 0001:0004bd1a       ?_AtlRaiseException@ATL@@YAXKK@Z 1004cd1a f i atls:atlbase.obj
 0001:0004bd2f       ?memmove_s@Checked@ATL@@YAXPAXIPBXI@Z 1004cd2f f i atls:atlbase.obj
 0001:0004bd80       _HRESULT_FROM_WIN32        1004cd80 f i atls:atlbase.obj
 0001:0004bde1       ??0?$CTraceCategoryEx@$00$0A@@ATL@@QAE@PB_W@Z 1004cde1 f i atls:stdafx.obj
 0001:0004bde6       ??0?$CTraceCategoryEx@$01$0A@@ATL@@QAE@PB_W@Z 1004cde6 f i atls:stdafx.obj
 0001:0004bdeb       ??0?$CTraceCategoryEx@$03$0A@@ATL@@QAE@PB_W@Z 1004cdeb f i atls:stdafx.obj
 0001:0004bdf0       ??0?$CTraceCategoryEx@$07$0A@@ATL@@QAE@PB_W@Z 1004cdf0 f i atls:stdafx.obj
 0001:0004bdf5       ??0?$CTraceCategoryEx@$0BA@$0A@@ATL@@QAE@PB_W@Z 1004cdf5 f i atls:stdafx.obj
 0001:0004bdfa       ??0?$CTraceCategoryEx@$0BAA@$0A@@ATL@@QAE@PB_W@Z 1004cdfa f i atls:stdafx.obj
 0001:0004bdff       ??0?$CTraceCategoryEx@$0BAAA@$0A@@ATL@@QAE@PB_W@Z 1004cdff f i atls:stdafx.obj
 0001:0004be04       ??0?$CTraceCategoryEx@$0BAAAA@$0A@@ATL@@QAE@PB_W@Z 1004ce04 f i atls:stdafx.obj
 0001:0004be09       ??0?$CTraceCategoryEx@$0BAAAAA@$0A@@ATL@@QAE@PB_W@Z 1004ce09 f i atls:stdafx.obj
 0001:0004be0e       ??0?$CTraceCategoryEx@$0CA@$0A@@ATL@@QAE@PB_W@Z 1004ce0e f i atls:stdafx.obj
 0001:0004be13       ??0?$CTraceCategoryEx@$0CAA@$0A@@ATL@@QAE@PB_W@Z 1004ce13 f i atls:stdafx.obj
 0001:0004be18       ??0?$CTraceCategoryEx@$0CAAA@$0A@@ATL@@QAE@PB_W@Z 1004ce18 f i atls:stdafx.obj
 0001:0004be1d       ??0?$CTraceCategoryEx@$0CAAAA@$0A@@ATL@@QAE@PB_W@Z 1004ce1d f i atls:stdafx.obj
 0001:0004be22       ??0?$CTraceCategoryEx@$0CAAAAA@$0A@@ATL@@QAE@PB_W@Z 1004ce22 f i atls:stdafx.obj
 0001:0004be27       ??0?$CTraceCategoryEx@$0EA@$0A@@ATL@@QAE@PB_W@Z 1004ce27 f i atls:stdafx.obj
 0001:0004be2c       ??0?$CTraceCategoryEx@$0EAA@$0A@@ATL@@QAE@PB_W@Z 1004ce2c f i atls:stdafx.obj
 0001:0004be31       ??0?$CTraceCategoryEx@$0EAAA@$0A@@ATL@@QAE@PB_W@Z 1004ce31 f i atls:stdafx.obj
 0001:0004be36       ??0?$CTraceCategoryEx@$0EAAAA@$0A@@ATL@@QAE@PB_W@Z 1004ce36 f i atls:stdafx.obj
 0001:0004be3b       ??0?$CTraceCategoryEx@$0EAAAAA@$0A@@ATL@@QAE@PB_W@Z 1004ce3b f i atls:stdafx.obj
 0001:0004be40       ??0?$CTraceCategoryEx@$0IA@$0A@@ATL@@QAE@PB_W@Z 1004ce40 f i atls:stdafx.obj
 0001:0004be45       ??0?$CTraceCategoryEx@$0IAA@$0A@@ATL@@QAE@PB_W@Z 1004ce45 f i atls:stdafx.obj
 0001:0004be4a       ??0?$CTraceCategoryEx@$0IAAA@$0A@@ATL@@QAE@PB_W@Z 1004ce4a f i atls:stdafx.obj
 0001:0004be4f       ??0?$CTraceCategoryEx@$0IAAAA@$0A@@ATL@@QAE@PB_W@Z 1004ce4f f i atls:stdafx.obj
 0001:0004be54       ??_I@YGXPAXIIP6EX0@Z@Z     1004ce54 f i atls:stdafx.obj
 0001:0004be87       __Init_thread_abort        1004ce87 f   LIBCMT:thread_safe_statics.obj
 0001:0004beb5       __Init_thread_footer       1004ceb5 f   LIBCMT:thread_safe_statics.obj
 0001:0004bf06       __Init_thread_header       1004cf06 f   LIBCMT:thread_safe_statics.obj
 0001:0004bf58       __Init_thread_lock         1004cf58 f   LIBCMT:thread_safe_statics.obj
 0001:0004bf64       __Init_thread_notify       1004cf64 f   LIBCMT:thread_safe_statics.obj
 0001:0004bf70       __Init_thread_unlock       1004cf70 f   LIBCMT:thread_safe_statics.obj
 0001:0004bf7c       __Init_thread_wait_v2      1004cf7c f   LIBCMT:thread_safe_statics.obj
 0001:0004bf91       ??1type_info@@UAE@XZ       1004cf91 f   LIBCMT:std_type_info_static.obj
 0001:0004bf98       ??_Etype_info@@UAEPAXI@Z   1004cf98 f i LIBCMT:std_type_info_static.obj
 0001:0004bf98       ??_Gtype_info@@UAEPAXI@Z   1004cf98 f i LIBCMT:std_type_info_static.obj
 0001:0004bfbb       ??_M@YGXPAXIHP6EX0@Z@Z     1004cfbb f   LIBCMT:ehvecdtr.obj
 0001:0004bfc0       ??_M@YGXPAXIIP6EX0@Z@Z     1004cfc0 f   LIBCMT:ehvecdtr.obj
 0001:0004c077       ?__ArrayUnwind@@YGXPAXIIP6EX0@Z@Z 1004d077 f   LIBCMT:ehvecdtr.obj
 0001:0004c107       ??3@YAXPAX@Z               1004d107 f   LIBCMT:delete_scalar.obj
 0001:0004c10c       ??3@YAXPAXI@Z              1004d10c f   LIBCMT:delete_scalar_size.obj
 0001:0004c11a       ??_V@YAXPAX@Z              1004d11a f   LIBCMT:delete_array.obj
 0001:0004c11f       ??_V@YAXPAXI@Z             1004d11f f   LIBCMT:delete_array_size.obj
 0001:0004c12d       ?configure_argv@__scrt_narrow_argv_policy@@SAHXZ 1004d12d f i LIBCMT:utility.obj
 0001:0004c17c       ?initialize_environment@__scrt_narrow_environment_policy@@SAHXZ 1004d17c f i LIBCMT:utility.obj
 0001:0004c1b4       _NtCurrentTeb              1004d1b4 f i LIBCMT:utility.obj
 0001:0004c1bb       ___scrt_acquire_startup_lock 1004d1bb f   LIBCMT:utility.obj
 0001:0004c1ed       ___scrt_dllmain_after_initialize_c 1004d1ed f   LIBCMT:utility.obj
 0001:0004c218       ___scrt_dllmain_before_initialize_c 1004d218 f   LIBCMT:utility.obj
 0001:0004c226       ___scrt_dllmain_crt_thread_attach 1004d226 f   LIBCMT:utility.obj
 0001:0004c245       ___scrt_dllmain_crt_thread_detach 1004d245 f   LIBCMT:utility.obj
 0001:0004c252       ___scrt_dllmain_exception_filter 1004d252 f   LIBCMT:utility.obj
 0001:0004c286       ___scrt_dllmain_uninitialize_c 1004d286 f   LIBCMT:utility.obj
 0001:0004c2a9       ___scrt_dllmain_uninitialize_critical 1004d2a9 f   LIBCMT:utility.obj
 0001:0004c2b6       ___scrt_initialize_crt     1004d2b6 f   LIBCMT:utility.obj
 0001:0004c2ef       ___scrt_initialize_onexit_tables 1004d2ef f   LIBCMT:utility.obj
 0001:0004c376       ___scrt_is_nonwritable_in_current_image 1004d376 f   LIBCMT:utility.obj
 0001:0004c40d       ___scrt_release_startup_lock 1004d40d f   LIBCMT:utility.obj
 0001:0004c42a       ___scrt_uninitialize_crt   1004d42a f   LIBCMT:utility.obj
 0001:0004c452       __onexit                   1004d452 f   LIBCMT:utility.obj
 0001:0004c480       _at_quick_exit             1004d480 f   LIBCMT:utility.obj
 0001:0004c4a3       _atexit                    1004d4a3 f   LIBCMT:utility.obj
 0001:0004c4b8       ___report_gsfailure        1004d4b8 f   LIBCMT:gs_report.obj
 0001:0004c4be       ___report_rangecheckfailure 1004d4be f   LIBCMT:gs_report.obj
 0001:0004c4c4       ___report_securityfailure  1004d4c4 f   LIBCMT:gs_report.obj
 0001:0004c4ce       ___report_securityfailureEx 1004d4ce f   LIBCMT:gs_report.obj
 0001:0004c4d8       @__security_check_cookie@4 1004d4d8 f   LIBCMT:secchk.obj
 0001:0004c4f0       __ftol2_sse_excpt          1004d4f0 f   LIBCMT:ftol2.obj
 0001:0004c500       __ftol2_sse                1004d500 f   LIBCMT:ftol2.obj
 0001:0004c510       __ftoi2                    1004d510 f   LIBCMT:ftol2.obj
 0001:0004c590       __ftoui2                   1004d590 f   LIBCMT:ftol2.obj
 0001:0004c640       __ftol2                    1004d640 f   LIBCMT:ftol2.obj
 0001:0004c6f0       __ftoul2                   1004d6f0 f   LIBCMT:ftol2.obj
 0001:0004c7b0       __ftoul2_legacy            1004d7b0 f   LIBCMT:ftol2.obj
 0001:0004c7c6       ??_U@YAPAXI@Z              1004d7c6 f   LIBCMT:new_array.obj
 0001:0004c7d0       __alloca_probe             1004d7d0 f   LIBCMT:chkstk.obj
 0001:0004c7d0       __chkstk                   1004d7d0 f   LIBCMT:chkstk.obj
 0001:0004c800       __aullshr                  1004d800 f   LIBCMT:ullshr.obj
 0001:0004c81f       ??2@YAPAXI@Z               1004d81f f   LIBCMT:new_scalar.obj
 0001:0004cb9c       __CRT_INIT@12              1004db9c f   LIBCMT:dll_dllmain.obj
 0001:0004cba5       __DllMainCRTStartup@12     1004dba5 f   LIBCMT:dll_dllmain.obj
 0001:0004cbc8       @_guard_check_icall_nop@4  1004dbc8 f i LIBCMT:guard_support.obj
 0001:0004cbcb       _ReadNoFence               1004dbcb f i LIBCMT:guard_support.obj
 0001:0004cbd5       _ReadPointerNoFence        1004dbd5 f i LIBCMT:guard_support.obj
 0001:0004cbdf       __InlineInterlockedExchangePointer 1004dbdf f i LIBCMT:guard_support.obj
 0001:0004cbec       ___castguard_check_failure_debugbreak 1004dbec f i LIBCMT:guard_support.obj
 0001:0004cc07       ___castguard_check_failure_fastfail 1004dc07 f i LIBCMT:guard_support.obj
 0001:0004cc26       ___castguard_check_failure_nop 1004dc26 f i LIBCMT:guard_support.obj
 0001:0004cc29       ___castguard_check_failure_os_handled 1004dc29 f i LIBCMT:guard_support.obj
 0001:0004cc60       ___castguard_check_failure_user_handled 1004dc60 f i LIBCMT:guard_support.obj
 0001:0004ccce       ___castguard_set_user_handler 1004dcce f i LIBCMT:guard_support.obj
 0001:0004ccdd       ___castguard_slow_path_check_debugbreak 1004dcdd f i LIBCMT:guard_support.obj
 0001:0004cd0a       ___castguard_slow_path_check_fastfail 1004dd0a f i LIBCMT:guard_support.obj
 0001:0004cd3b       ___castguard_slow_path_check_nop 1004dd3b f i LIBCMT:guard_support.obj
 0001:0004cd3e       ___castguard_slow_path_check_os_handled 1004dd3e f i LIBCMT:guard_support.obj
 0001:0004cd7a       ___castguard_slow_path_check_user_handled 1004dd7a f i LIBCMT:guard_support.obj
 0001:0004cddb       __guard_icall_checks_enforced 1004dddb f i LIBCMT:guard_support.obj
 0001:0004cdf0       __SEH_prolog4              1004ddf0 f   LIBCMT:sehprolg4.obj
 0001:0004ce40       __SEH_epilog4              1004de40 f   LIBCMT:sehprolg4.obj
 0001:0004ce54       ___isa_available_init      1004de54 f   LIBCMT:cpu_disp.obj
 0001:0004d16e       __get_startup_argv_mode    1004e16e f   LIBCMT:argv_mode.obj
 0001:0004d172       ___scrt_is_ucrt_dll_in_use 1004e172 f   LIBCMT:ucrt_detection.obj
 0001:0004d17e       ___scrt_fastfail           1004e17e f   LIBCMT:utility_desktop.obj
 0001:0004d188       ___scrt_get_show_window_mode 1004e188 f   LIBCMT:utility_desktop.obj
 0001:0004d1b8       ___scrt_initialize_mta     1004e1b8 f   LIBCMT:utility_desktop.obj
 0001:0004d1bd       ___scrt_initialize_winrt   1004e1bd f   LIBCMT:utility_desktop.obj
 0001:0004d1c0       ___scrt_is_managed_app     1004e1c0 f   LIBCMT:utility_desktop.obj
 0001:0004d202       ___scrt_set_unhandled_exception_filter 1004e202 f   LIBCMT:utility_desktop.obj
 0001:0004d20e       ___scrt_exe_initialize_mta 1004e20e f   LIBCMT:utility_desktop.obj
 0001:0004d20e       ___scrt_stub_for_initialize_mta 1004e20e f   LIBCMT:utility_desktop.obj
 0001:0004d211       ___scrt_unhandled_exception_filter@4 1004e211 f   LIBCMT:utility_desktop.obj
 0001:0004d267       __crt_debugger_hook        1004e267 f   LIBCMT:utility_desktop.obj
 0001:0004d272       ??0bad_alloc@std@@AAE@QBD@Z 1004e272 f i LIBCMT:throw_bad_alloc.obj
 0001:0004d295       ?__scrt_throw_std_bad_alloc@@YAXXZ 1004e295 f   LIBCMT:throw_bad_alloc.obj
 0001:0004d2b2       ?__scrt_throw_std_bad_array_new_length@@YAXXZ 1004e2b2 f   LIBCMT:throw_bad_alloc.obj
 0001:0004d31c       ___security_init_cookie    1004e31c f   LIBCMT:gs_support.obj
 0001:0004d367       ?__scrt_initialize_type_info@@YAXXZ 1004e367 f   LIBCMT:tncleanup.obj
 0001:0004d373       ?__scrt_uninitialize_type_info@@YAXXZ 1004e373 f   LIBCMT:tncleanup.obj
 0001:0004d37f       ___scrt_initialize_default_local_stdio_options 1004e37f f   LIBCMT:default_local_stdio_options.obj
 0001:0004d39c       ___scrt_get_dyn_tls_init_callback 1004e39c f   LIBCMT:dyn_tls_init.obj
 0001:0004d3a2       __RTC_Initialize           1004e3a2 f   LIBCMT:initsect.obj
 0001:0004d3ce       __RTC_Terminate            1004e3ce f   LIBCMT:initsect.obj
 0001:0004d3fa       ??$__crt_interlocked_exchange_pointer@$$A6AXXZP6AXXZ@@YAP6AXXZPDS6AXXZQ6AXXZ@Z 1004e3fa f i libvcruntime:purevirt.obj
 0001:0004d407       ??$__crt_interlocked_read_pointer@$$A6AXXZ@@YAP6AXXZPDS6AXXZ@Z 1004e407 f i libvcruntime:purevirt.obj
 0001:0004d412       ?__crt_interlocked_read_32@@YAHPDH@Z 1004e412 f i libvcruntime:purevirt.obj
 0001:0004d41d       __get_purecall_handler     1004e41d f   libvcruntime:purevirt.obj
 0001:0004d424       __purecall                 1004e424 f   libvcruntime:purevirt.obj
 0001:0004d440       __set_purecall_handler     1004e440 f   libvcruntime:purevirt.obj
 0001:0004d44f       ___DestructExceptionObject 1004e44f f   libvcruntime:ehhelpers.obj
 0001:0004d4f7       ?_CallMemberFunction0@@YGXQAX0@Z 1004e4f7 f i libvcruntime:ehhelpers.obj
 0001:0004d55c       ?raw_name@type_info@@QBEPBDXZ 1004e55c f i libvcruntime:ehhelpers.obj
 0001:0004d560       __IsExceptionObjectToBeDestroyed 1004e560 f   libvcruntime:ehhelpers.obj
 0001:0004d586       __SetWinRTOutOfMemoryExceptionCallback 1004e586 f   libvcruntime:ehhelpers.obj
 0001:0004d593       ___AdjustPointer           1004e593 f   libvcruntime:ehhelpers.obj
 0001:0004d5b8       ___FrameUnwindFilter       1004e5b8 f   libvcruntime:ehhelpers.obj
 0001:0004d60e       ___GetPlatformExceptionInfo 1004e60e f   libvcruntime:ehhelpers.obj
 0001:0004d660       ___current_exception       1004e660 f   libvcruntime:ehhelpers.obj
 0001:0004d669       ___current_exception_context 1004e669 f   libvcruntime:ehhelpers.obj
 0001:0004d672       ___processing_throw        1004e672 f   libvcruntime:ehhelpers.obj
 0001:0004d67b       ___std_terminate           1004e67b f   libvcruntime:ehhelpers.obj
 0001:0004d680       __is_exception_typeof      1004e680 f   libvcruntime:ehhelpers.obj
 0001:0004d726       __CxxThrowException@8      1004e726 f   libvcruntime:throw.obj
 0001:0004d793       ??$?0AAViterator@TryBlockMap@__FrameHandler3@@AAV012@$0A@@?$pair@Viterator@TryBlockMap@__FrameHandler3@@V123@@std@@QAE@AAViterator@TryBlockMap@__FrameHandler3@@0@Z 1004e793 f i libvcruntime:trnsctrl.obj
 0001:0004d7b7       ??$forward@AAViterator@TryBlockMap@__FrameHandler3@@@std@@YAAAViterator@TryBlockMap@__FrameHandler3@@AAV123@@Z 1004e7b7 f i libvcruntime:trnsctrl.obj
 0001:0004d7bf       ??0iterator@TryBlockMap@__FrameHandler3@@QAE@AAV12@I@Z 1004e7bf f i libvcruntime:trnsctrl.obj
 0001:0004d7d3       ?GetRangeOfTrysToCheck@__FrameHandler3@@SA?AU?$pair@Viterator@TryBlockMap@__FrameHandler3@@V123@@std@@AAVTryBlockMap@1@HPAXPBU_s_FuncInfo@@H@Z 1004e7d3 f   libvcruntime:trnsctrl.obj
 0001:0004d852       ?_CallCatchBlock2@@YAPAXPAUEHRegistrationNode@@PBU_s_FuncInfo@@PAXHK@Z 1004e852 f   libvcruntime:trnsctrl.obj
 0001:0004d8b2       ?_CallSETranslator@@YAHPAUEHExceptionRecord@@PAUEHRegistrationNode@@PAX2PBU_s_FuncInfo@@H1@Z 1004e8b2 f   libvcruntime:trnsctrl.obj
 0001:0004d9b1       ?_JumpToContinuation@@YGXPAXPAUEHRegistrationNode@@@Z 1004e9b1 f   libvcruntime:trnsctrl.obj
 0001:0004d9e1       ?_UnwindNestedFrames@@YGXPAUEHRegistrationNode@@PAUEHExceptionRecord@@@Z 1004e9e1 f   libvcruntime:trnsctrl.obj
 0001:0004da35       __CatchGuardHandler        1004ea35 f   libvcruntime:trnsctrl.obj
 0001:0004da66       __CreateFrameInfo          1004ea66 f   libvcruntime:trnsctrl.obj
 0001:0004da8a       __FindAndUnlinkFrame       1004ea8a f   libvcruntime:trnsctrl.obj
 0001:0004dad1       __TranslatorGuardHandler   1004ead1 f   libvcruntime:trnsctrl.obj
 0001:0004db70       ___CxxFrameHandler         1004eb70 f   libvcruntime:trnsctrl.obj
 0001:0004dba6       ___CxxFrameHandler2        1004eba6 f   libvcruntime:trnsctrl.obj
 0001:0004dbdc       ___CxxFrameHandler3        1004ebdc f   libvcruntime:trnsctrl.obj
 0001:0004dc12       ___CxxLongjmpUnwind@4      1004ec12 f   libvcruntime:trnsctrl.obj
 0001:0004dc40       _memcpy                    1004ec40 f   libvcruntime:memcpy.obj
 0001:0004e1c0       _memmove                   1004f1c0 f   libvcruntime:memmove.obj
 0001:0004e740       _memset                    1004f740 f   libvcruntime:memset.obj
 0001:0004e8a8       ??$?RD@__crt_internal_free_policy@@QBEXQBD@Z 1004f8a8 f i libvcruntime:std_type_info.obj
 0001:0004e8b8       ??$?RX@__crt_internal_free_policy@@QBEXQBX@Z 1004f8b8 f i libvcruntime:std_type_info.obj
 0001:0004e8c8       ??$__crt_interlocked_compare_exchange_pointer@$$CBDPAD$$T@@YAPBDPDSBDQAD$$T@Z 1004f8c8 f i libvcruntime:std_type_info.obj
 0001:0004e8da       ??$__crt_interlocked_read_pointer@$$CBD@@YAPBDPDSBD@Z 1004f8da f i libvcruntime:std_type_info.obj
 0001:0004e8e5       ??0?$__crt_unique_heap_ptr@DU__crt_internal_free_policy@@@@QAE@QAD@Z 1004f8e5 f i libvcruntime:std_type_info.obj
 0001:0004e8f3       ??0?$__crt_unique_heap_ptr@XU__crt_internal_free_policy@@@@QAE@QAX@Z 1004f8f3 f i libvcruntime:std_type_info.obj
 0001:0004e901       ??1?$__crt_unique_heap_ptr@DU__crt_internal_free_policy@@@@QAE@XZ 1004f901 f i libvcruntime:std_type_info.obj
 0001:0004e914       ??1?$__crt_unique_heap_ptr@XU__crt_internal_free_policy@@@@QAE@XZ 1004f914 f i libvcruntime:std_type_info.obj
 0001:0004e927       ??B?$__crt_unique_heap_ptr@DU__crt_internal_free_policy@@@@QBE_NXZ 1004f927 f i libvcruntime:std_type_info.obj
 0001:0004e92e       ??B?$__crt_unique_heap_ptr@XU__crt_internal_free_policy@@@@QBE_NXZ 1004f92e f i libvcruntime:std_type_info.obj
 0001:0004e955       ?detach@?$__crt_unique_heap_ptr@XU__crt_internal_free_policy@@@@QAEPAXXZ 1004f955 f i libvcruntime:std_type_info.obj
 0001:0004e95e       ?get@?$__crt_unique_heap_ptr@DU__crt_internal_free_policy@@@@QBEPADXZ 1004f95e f i libvcruntime:std_type_info.obj
 0001:0004e961       ?get@?$__crt_unique_heap_ptr@XU__crt_internal_free_policy@@@@QBEPAXXZ 1004f961 f i libvcruntime:std_type_info.obj
 0001:0004e964       ?is_valid@?$__crt_unique_heap_ptr@DU__crt_internal_free_policy@@@@QBE_NXZ 1004f964 f i libvcruntime:std_type_info.obj
 0001:0004e96b       ?is_valid@?$__crt_unique_heap_ptr@XU__crt_internal_free_policy@@@@QBE_NXZ 1004f96b f i libvcruntime:std_type_info.obj
 0001:0004e972       ?release@?$__crt_unique_heap_ptr@DU__crt_internal_free_policy@@@@QAEXXZ 1004f972 f i libvcruntime:std_type_info.obj
 0001:0004e985       ?release@?$__crt_unique_heap_ptr@XU__crt_internal_free_policy@@@@QAEXXZ 1004f985 f i libvcruntime:std_type_info.obj
 0001:0004e998       ___std_type_info_compare   1004f998 f   libvcruntime:std_type_info.obj
 0001:0004e9d4       ___std_type_info_destroy_list 1004f9d4 f   libvcruntime:std_type_info.obj
 0001:0004e9f7       ___std_type_info_hash      1004f9f7 f   libvcruntime:std_type_info.obj
 0001:0004ea1d       ___std_type_info_name      1004fa1d f   libvcruntime:std_type_info.obj
 0001:0004eaf0       _strchr                    1004faf0 f   libvcruntime:strchr.obj
 0001:0004eb5e       ___from_strstr_to_strchr   1004fb5e     libvcruntime:strchr.obj
 0001:0004ec1b       ??$?RD@__crt_public_free_policy@@QBEXQBD@Z 1004fc1b f i libvcruntime:std_exception.obj
 0001:0004ec2b       ??0?$__crt_unique_heap_ptr@DU__crt_public_free_policy@@@@QAE@QAD@Z 1004fc2b f i libvcruntime:std_exception.obj
 0001:0004ec39       ??1?$__crt_unique_heap_ptr@DU__crt_public_free_policy@@@@QAE@XZ 1004fc39 f i libvcruntime:std_exception.obj
 0001:0004ec4c       ??B?$__crt_unique_heap_ptr@DU__crt_public_free_policy@@@@QBE_NXZ 1004fc4c f i libvcruntime:std_exception.obj
 0001:0004ec53       ?detach@?$__crt_unique_heap_ptr@DU__crt_public_free_policy@@@@QAEPADXZ 1004fc53 f i libvcruntime:std_exception.obj
 0001:0004ec5c       ?get@?$__crt_unique_heap_ptr@DU__crt_public_free_policy@@@@QBEPADXZ 1004fc5c f i libvcruntime:std_exception.obj
 0001:0004ec5f       ?is_valid@?$__crt_unique_heap_ptr@DU__crt_public_free_policy@@@@QBE_NXZ 1004fc5f f i libvcruntime:std_exception.obj
 0001:0004ec66       ?release@?$__crt_unique_heap_ptr@DU__crt_public_free_policy@@@@QAEXXZ 1004fc66 f i libvcruntime:std_exception.obj
 0001:0004ec79       ___std_exception_copy      1004fc79 f   libvcruntime:std_exception.obj
 0001:0004ecdc       ___std_exception_destroy   1004fcdc f   libvcruntime:std_exception.obj
 0001:0004ed40       __except_handler4          1004fd40 f   libvcruntime:chandler4.obj
 0001:0004eea7       ___vcrt_initialize         1004fea7 f   libvcruntime:initialization.obj
 0001:0004eec6       ___vcrt_thread_attach      1004fec6 f   libvcruntime:initialization.obj
 0001:0004eed1       ___vcrt_thread_detach      1004fed1 f   libvcruntime:initialization.obj
 0001:0004eed9       ___vcrt_uninitialize       1004fed9 f   libvcruntime:initialization.obj
 0001:0004eef0       ___vcrt_uninitialize_critical 1004fef0 f   libvcruntime:initialization.obj
 0001:0004eef8       ??$?RU__vcrt_ptd@@@__crt_internal_free_policy@@QBEXQBU__vcrt_ptd@@@Z 1004fef8 f i libvcruntime:per_thread_data.obj
 0001:0004ef08       ??0?$__crt_unique_heap_ptr@U__vcrt_ptd@@U__crt_internal_free_policy@@@@QAE@QAU__vcrt_ptd@@@Z 1004ff08 f i libvcruntime:per_thread_data.obj
 0001:0004ef25       ??1?$__crt_unique_heap_ptr@U__vcrt_ptd@@U__crt_internal_free_policy@@@@QAE@XZ 1004ff25 f i libvcruntime:per_thread_data.obj
 0001:0004ef41       ??B?$__crt_unique_heap_ptr@U__vcrt_ptd@@U__crt_internal_free_policy@@@@QBE_NXZ 1004ff41 f i libvcruntime:per_thread_data.obj
 0001:0004ef48       ?detach@?$__crt_unique_heap_ptr@U__vcrt_ptd@@U__crt_internal_free_policy@@@@QAEPAU__vcrt_ptd@@XZ 1004ff48 f i libvcruntime:per_thread_data.obj
 0001:0004ef51       ?get@?$__crt_unique_heap_ptr@U__vcrt_ptd@@U__crt_internal_free_policy@@@@QBEPAU__vcrt_ptd@@XZ 1004ff51 f i libvcruntime:per_thread_data.obj
 0001:0004ef54       ?is_valid@?$__crt_unique_heap_ptr@U__vcrt_ptd@@U__crt_internal_free_policy@@@@QBE_NXZ 1004ff54 f i libvcruntime:per_thread_data.obj
 0001:0004ef5b       ?release@?$__crt_unique_heap_ptr@U__vcrt_ptd@@U__crt_internal_free_policy@@@@QAEXXZ 1004ff5b f i libvcruntime:per_thread_data.obj
 0001:0004ef87       ___vcrt_freefls@4          1004ff87 f   libvcruntime:per_thread_data.obj
 0001:0004efa3       ___vcrt_freeptd_for_this_thread 1004ffa3 f   libvcruntime:per_thread_data.obj
 0001:0004efcd       ___vcrt_getptd             1004ffcd f   libvcruntime:per_thread_data.obj
 0001:0004efdb       ___vcrt_getptd_noexit      1004ffdb f   libvcruntime:per_thread_data.obj
 0001:0004f06a       ___vcrt_getptd_noinit      1005006a f   libvcruntime:per_thread_data.obj
 0001:0004f0a2       ___vcrt_initialize_ptd     100500a2 f   libvcruntime:per_thread_data.obj
 0001:0004f0d4       ___vcrt_uninitialize_ptd   100500d4 f   libvcruntime:per_thread_data.obj
 0001:0004f808       ??$TypeMatchHelper@V__FrameHandler3@@@@YAHPBU_s_HandlerType@@PBU_s_CatchableType@@PBU_s_ThrowInfo@@@Z 10050808 f i libvcruntime:frame.obj
 0001:0004f896       ??$__InternalCxxFrameHandler@V__FrameHandler3@@@@YA?AW4_EXCEPTION_DISPOSITION@@PAUEHExceptionRecord@@PAUEHRegistrationNode@@PAU_CONTEXT@@PAXPBU_s_FuncInfo@@H1E@Z 10050896 f i libvcruntime:frame.obj
 0001:0004f998       ??$__InternalCxxFrameHandlerWrapper@V__FrameHandler3@@@@YA?AW4_EXCEPTION_DISPOSITION@@PAUEHExceptionRecord@@PAUEHRegistrationNode@@PAU_CONTEXT@@PAXPBU_s_FuncInfo@@H1E@Z 10050998 f i libvcruntime:frame.obj
 0001:0004f9a1       ??0HandlerMap@__FrameHandler3@@QAE@PBU_s_TryBlockMapEntry@@II@Z 100509a1 f i libvcruntime:frame.obj
 0001:0004f9b8       ??0TryBlockMap@__FrameHandler3@@QAE@PBU_s_FuncInfo@@I@Z 100509b8 f i libvcruntime:frame.obj
 0001:0004f9cc       ??0bad_exception@std@@QAE@ABV01@@Z 100509cc f i libvcruntime:frame.obj
 0001:0004f9e7       ??0bad_exception@std@@QAE@XZ 100509e7 f i libvcruntime:frame.obj
 0001:0004fa05       ??0iterator@HandlerMap@__FrameHandler3@@QAE@AAV12@I@Z 10050a05 f i libvcruntime:frame.obj
 0001:0004fa19       ??1bad_exception@std@@UAE@XZ 10050a19 f i libvcruntime:frame.obj
 0001:0004fa2a       ??8iterator@HandlerMap@__FrameHandler3@@QBE_NABV012@@Z 10050a2a f i libvcruntime:frame.obj
 0001:0004fa3d       ??8type_info@@QBE_NABV0@@Z 10050a3d f i libvcruntime:frame.obj
 0001:0004fa5c       ??9iterator@HandlerMap@__FrameHandler3@@QBE_NABV012@@Z 10050a5c f i libvcruntime:frame.obj
 0001:0004fa6f       ??Diterator@HandlerMap@__FrameHandler3@@QAE?BU_s_HandlerType@@XZ 10050a6f f i libvcruntime:frame.obj
 0001:0004fa8e       ??Diterator@TryBlockMap@__FrameHandler3@@QAE?BU_s_TryBlockMapEntry@@XZ 10050a8e f i libvcruntime:frame.obj
 0001:0004fab0       ??Eiterator@HandlerMap@__FrameHandler3@@QAEAAV012@XZ 10050ab0 f i libvcruntime:frame.obj
 0001:0004fab6       ??Eiterator@TryBlockMap@__FrameHandler3@@QAEAAV012@XZ 10050ab6 f i libvcruntime:frame.obj
 0001:0004fabc       ??Miterator@TryBlockMap@__FrameHandler3@@QBE_NABV012@@Z 10050abc f i libvcruntime:frame.obj
 0001:0004facf       ??_Ebad_exception@std@@UAEPAXI@Z 10050acf f i libvcruntime:frame.obj
 0001:0004facf       ??_Gbad_exception@std@@UAEPAXI@Z 10050acf f i libvcruntime:frame.obj
 0001:0004fafc       ?BuildCatchObject@__FrameHandler3@@SAXPAUEHExceptionRecord@@PAXPBU_s_HandlerType@@PBU_s_CatchableType@@@Z 10050afc f   libvcruntime:frame.obj
 0001:0004fb01       ?BuildCatchObjectHelper@__FrameHandler3@@SAHPAUEHExceptionRecord@@PAXPBU_s_HandlerType@@PBU_s_CatchableType@@@Z 10050b01 f   libvcruntime:frame.obj
 0001:0004fd71       ?FrameUnwindToEmptyState@__FrameHandler3@@SAXPAUEHRegistrationNode@@PAXPBU_s_FuncInfo@@@Z 10050d71 f   libvcruntime:frame.obj
 0001:0004fd89       ?FrameUnwindToState@__FrameHandler3@@SAXPAUEHRegistrationNode@@PAXPBU_s_FuncInfo@@H@Z 10050d89 f   libvcruntime:frame.obj
 0001:0004fe7d       ?GetMaxState@__FrameHandler3@@SAHPAXPBU_s_FuncInfo@@@Z 10050e7d f i libvcruntime:frame.obj
 0001:0004ff4a       ?TypeMatch@__FrameHandler3@@SAHPBU_s_HandlerType@@PBU_s_CatchableType@@PBU_s_ThrowInfo@@@Z 10050f4a f   libvcruntime:frame.obj
 0001:0004ff53       ?_CallMemberFunction1@@YGXQAX00@Z 10050f53 f i libvcruntime:frame.obj
 0001:0004ff63       ?_CallMemberFunction2@@YGXQAX00H@Z 10050f63 f i libvcruntime:frame.obj
 0001:0004ff76       ?begin@HandlerMap@__FrameHandler3@@QAE?AViterator@12@XZ 10050f76 f i libvcruntime:frame.obj
 0001:0004ff89       ?end@HandlerMap@__FrameHandler3@@QAE?AViterator@12@XZ 10050f89 f i libvcruntime:frame.obj
 0001:0004ff9a       ?getESTypes@__FrameHandler3@@SAPBU_s_ESTypeList@@PBU_s_FuncInfo@@@Z 10050f9a f i libvcruntime:frame.obj
 0001:0004ffa5       ?getLastEntry@HandlerMap@__FrameHandler3@@QAEPBU_s_HandlerType@@XZ 10050fa5 f i libvcruntime:frame.obj
 0001:0004ffb3       ?getMagicNum@__FrameHandler3@@SAIPBU_s_FuncInfo@@@Z 10050fb3 f i libvcruntime:frame.obj
 0001:0004ffc2       ?getNumTryBlocks@TryBlockMap@__FrameHandler3@@QAEIXZ 10050fc2 f i libvcruntime:frame.obj
 0001:0004ffc8       ?isEHs@__FrameHandler3@@SA_NPBU_s_FuncInfo@@@Z 10050fc8 f i libvcruntime:frame.obj
 0001:0004ffd5       ?isNoExcept@__FrameHandler3@@SA_NPBU_s_FuncInfo@@@Z 10050fd5 f i libvcruntime:frame.obj
 0001:0004ffe5       ___BuildCatchObject        10050fe5 f   libvcruntime:frame.obj
 0001:0004ffea       ___BuildCatchObjectHelper  10050fea f   libvcruntime:frame.obj
 0001:0004fff3       ___TypeMatch               10050ff3 f   libvcruntime:frame.obj
 0001:00050000       __CallSettingFrame@12      10051000 f   libvcruntime:lowhelpr.obj
 0001:00050027       __NLG_Return               10051027     libvcruntime:lowhelpr.obj
 0001:00050057       ___except_validate_context_record 10051057 f   libvcruntime:jbcxrval.obj
 0001:00050087       ___except_validate_jump_buffer 10051087 f   libvcruntime:jbcxrval.obj
 0001:000500b4       ___except_validate_jump_buffer_common 100510b4 f i libvcruntime:jbcxrval.obj
 0001:000500ed       ??$?0$00@DName@@QAE@PAVUnDecorator@@PBDU?$StringLifeSelector@$00@@@Z 100510ed f i libvcruntime:undname.obj
 0001:00050128       ??$?0$00@pcharNode@@QAE@PBDHU?$StringLifeSelector@$00@@AAV_HeapManager@@@Z 10051128 f i libvcruntime:undname.obj
 0001:00050143       ??$?0$01@DName@@QAE@PAVUnDecorator@@PBDU?$StringLifeSelector@$01@@@Z 10051143 f i libvcruntime:undname.obj
 0001:0005017e       ??$?0$01@pcharNode@@QAE@PBDHU?$StringLifeSelector@$01@@AAV_HeapManager@@@Z 1005117e f i libvcruntime:undname.obj
 0001:000501ca       ??$?0$0A@@DName@@QAE@PAVUnDecorator@@PBDU?$StringLifeSelector@$0A@@@@Z 100511ca f i libvcruntime:undname.obj
 0001:00050205       ??$?0$0A@@pcharNode@@QAE@PBDHU?$StringLifeSelector@$0A@@@AAV_HeapManager@@@Z 10051205 f i libvcruntime:undname.obj
 0001:00050251       ??$?0_K$0A@@?$optional@_K@std@@QAE@$$QA_K@Z 10051251 f i libvcruntime:undname.obj
 0001:0005026b       ??$?0_K@?$_Optional_construct_base@_K@std@@QAE@Uin_place_t@1@$$QA_K@Z 1005126b f i libvcruntime:undname.obj
 0001:00050285       ??$?0_K@?$_Optional_destruct_base@_K$00@std@@QAE@Uin_place_t@1@$$QA_K@Z 10051285 f i libvcruntime:undname.obj
 0001:0005029f       ??$append@VDNameNode@@@DName@@AAEXPBVDNameNode@@@Z 1005129f f i libvcruntime:undname.obj
 0001:000502e7       ??$append@VDNameStatusNode@@@DName@@AAEXPBVDNameStatusNode@@@Z 100512e7 f i libvcruntime:undname.obj
 0001:0005032f       ??$append@VcharNode@@@DName@@AAEXPBVcharNode@@@Z 1005132f f i libvcruntime:undname.obj
 0001:00050377       ??$append@VpDNameNode@@@DName@@AAEXPBVpDNameNode@@@Z 10051377 f i libvcruntime:undname.obj
 0001:000503bf       ??$append@VpcharNode@@@DName@@AAEXPBVpcharNode@@@Z 100513bf f i libvcruntime:undname.obj
 0001:00050407       ??$doPchar@$00@DName@@AAEXPBDH@Z 10051407 f i libvcruntime:undname.obj
 0001:00050474       ??$doPchar@$01@DName@@AAEXPBDH@Z 10051474 f i libvcruntime:undname.obj
 0001:000504ed       ??$doPchar@$0A@@DName@@AAEXPBDH@Z 100514ed f i libvcruntime:undname.obj
 0001:00050566       ??$forward@_K@std@@YA$$QA_KAA_K@Z 10051566 f i libvcruntime:undname.obj
 0001:00050654       ??0?$_Optional_construct_base@_K@std@@QAE@XZ 10051654 f i libvcruntime:undname.obj
 0001:0005065b       ??0?$_Optional_destruct_base@_K$00@std@@QAE@XZ 1005165b f i libvcruntime:undname.obj
 0001:00050662       ??0?$optional@_K@std@@QAE@XZ 10051662 f i libvcruntime:undname.obj
 0001:00050669       ??0Block@_HeapManager@@QAE@XZ 10051669 f i libvcruntime:undname.obj
 0001:00050672       ??0DName@@QAE@ABV0@@Z      10051672 f i libvcruntime:undname.obj
 0001:0005068e       ??0DName@@QAE@PAVUnDecorator@@@Z 1005168e f i libvcruntime:undname.obj
 0001:000506aa       ??0DName@@QAE@PAVUnDecorator@@AAPBDD@Z 100516aa f   libvcruntime:undname.obj
 0001:0005073c       ??0DName@@QAE@PAVUnDecorator@@ABUStringLiteral@@@Z 1005173c f   libvcruntime:undname.obj
 0001:0005076f       ??0DName@@QAE@PAVUnDecorator@@D@Z 1005176f f   libvcruntime:undname.obj
 0001:00050797       ??0DName@@QAE@PAVUnDecorator@@PAV0@@Z 10051797 f   libvcruntime:undname.obj
 0001:000507e2       ??0DName@@QAE@PAVUnDecorator@@W4DNameStatus@@@Z 100517e2 f   libvcruntime:undname.obj
 0001:0005082e       ??0DName@@QAE@PAVUnDecorator@@_J@Z 1005182e f   libvcruntime:undname.obj
 0001:000508bc       ??0DName@@QAE@PAVUnDecorator@@_K@Z 100518bc f   libvcruntime:undname.obj
 0001:0005092c       ??0DNameNode@@IAE@XZ       1005192c f i libvcruntime:undname.obj
 0001:00050935       ??0Replicator@@QAE@PAVUnDecorator@@@Z 10051935 f i libvcruntime:undname.obj
 0001:00050968       ??0UnDecorator@@QAE@PBDP6APADJ@ZKP6APAXI@ZP6AXPAX@Z@Z 10051968 f i libvcruntime:undname.obj
 0001:000509f2       ??0_HeapManager@@QAE@P6APAXI@ZP6AXPAX@Z@Z 100519f2 f i libvcruntime:undname.obj
 0001:00050a11       ??0_Nontrivial_dummy_type@std@@QAE@XZ 10051a11 f i libvcruntime:undname.obj
 0001:00050a14       ??0charNode@@QAE@D@Z       10051a14 f i libvcruntime:undname.obj
 0001:00050a29       ??0pDNameNode@@QAE@PAVDName@@@Z 10051a29 f   libvcruntime:undname.obj
 0001:00050a51       ??0pairNode@@QAE@PBVDNameNode@@0@Z 10051a51 f i libvcruntime:undname.obj
 0001:00050a78       ??2@YAPAXIAAV_HeapManager@@H@Z 10051a78 f   libvcruntime:undname.obj
 0001:00050a95       ??4DName@@QAEAAV0@ABUStringLiteral@@@Z 10051a95 f   libvcruntime:undname.obj
 0001:00050abc       ??4DName@@QAEAAV0@ABV0@@Z  10051abc f   libvcruntime:undname.obj
 0001:00050ad2       ??4DName@@QAEAAV0@D@Z      10051ad2 f i libvcruntime:undname.obj
 0001:00050af4       ??4DName@@QAEAAV0@PAV0@@Z  10051af4 f   libvcruntime:undname.obj
 0001:00050b41       ??4DName@@QAEAAV0@W4DNameStatus@@@Z 10051b41 f   libvcruntime:undname.obj
 0001:00050b79       ??AReplicator@@QBE?AVDName@@H@Z 10051b79 f   libvcruntime:undname.obj
 0001:00050bbe       ??B?$optional@_K@std@@QBE_NXZ 10051bbe f i libvcruntime:undname.obj
 0001:00050bc2       ??D?$_Optional_construct_base@_K@std@@QGAEAA_KXZ 10051bc2 f i libvcruntime:undname.obj
 0001:00050bc5       ??H@YA?AVDName@@ABUStringLiteral@@ABV0@@Z 10051bc5 f i libvcruntime:undname.obj
 0001:00050bee       ??H@YA?AVDName@@DABV0@@Z   10051bee f i libvcruntime:undname.obj
 0001:00050c17       ??H@YA?AVDName@@W4DNameStatus@@ABV0@@Z 10051c17 f i libvcruntime:undname.obj
 0001:00050c40       ??HDName@@QBE?AV0@ABUStringLiteral@@@Z 10051c40 f   libvcruntime:undname.obj
 0001:00050c68       ??HDName@@QBE?AV0@ABV0@@Z  10051c68 f   libvcruntime:undname.obj
 0001:00050c90       ??HDName@@QBE?AV0@D@Z      10051c90 f   libvcruntime:undname.obj
 0001:00050cb8       ??HDName@@QBE?AV0@PAV0@@Z  10051cb8 f   libvcruntime:undname.obj
 0001:00050ce0       ??HDName@@QBE?AV0@W4DNameStatus@@@Z 10051ce0 f   libvcruntime:undname.obj
 0001:00050d08       ??HStringLiteral@@QBE?AU0@H@Z 10051d08 f i libvcruntime:undname.obj
 0001:00050d7a       ??YDName@@QAEAAV0@ABUStringLiteral@@@Z 10051d7a f   libvcruntime:undname.obj
 0001:00050dd3       ??YDName@@QAEAAV0@ABV0@@Z  10051dd3 f   libvcruntime:undname.obj
 0001:00050e2a       ??YDName@@QAEAAV0@D@Z      10051e2a f   libvcruntime:undname.obj
 0001:00050e79       ??YDName@@QAEAAV0@PAV0@@Z  10051e79 f   libvcruntime:undname.obj
 0001:00050ede       ??YDName@@QAEAAV0@W4DNameStatus@@@Z 10051ede f   libvcruntime:undname.obj
 0001:00050f1e       ??YReplicator@@QAEAAV0@ABVDName@@@Z 10051f1e f   libvcruntime:undname.obj
 0001:00050f65       ??_5DName@@QAEAAV0@ABV0@@Z 10051f65 f   libvcruntime:undname.obj
 0001:00050f87       ??__K_l@@YA?AUStringLiteral@@PBDI@Z 10051f87 f i libvcruntime:undname.obj
 0001:00050f92       ?Destructor@UnDecorator@@QAEXXZ 10051f92 f i libvcruntime:undname.obj
 0001:00050f9a       ?Destructor@_HeapManager@@QAEXXZ 10051f9a f i libvcruntime:undname.obj
 0001:00050fde       ?UScore@UnDecorator@@QAE?AUStringLiteral@@W4Tokens@@@Z 10051fde f   libvcruntime:undname.obj
 0001:0005101e       ?composeDeclaration@UnDecorator@@AAE?AVDName@@ABV2@@Z 1005201e f i libvcruntime:undname.obj
 0001:00051c61       ?doAccessSpecifiers@UnDecorator@@QAEHXZ 10052c61 f i libvcruntime:undname.obj
 0001:00051c70       ?doAllocationLanguage@UnDecorator@@QAEHXZ 10052c70 f i libvcruntime:undname.obj
 0001:00051c7f       ?doAllocationModel@UnDecorator@@QAEHXZ 10052c7f f i libvcruntime:undname.obj
 0001:00051c8e       ?doEcsu@UnDecorator@@QAEHXZ 10052c8e f i libvcruntime:undname.obj
 0001:00051c9d       ?doEllipsis@UnDecorator@@QAEHXZ 10052c9d f i libvcruntime:undname.obj
 0001:00051cac       ?doFunctionReturns@UnDecorator@@QAEHXZ 10052cac f i libvcruntime:undname.obj
 0001:00051cbb       ?doMSKeywords@UnDecorator@@QAEHXZ 10052cbb f i libvcruntime:undname.obj
 0001:00051cc9       ?doMemberTypes@UnDecorator@@QAEHXZ 10052cc9 f i libvcruntime:undname.obj
 0001:00051cd8       ?doNameOnly@UnDecorator@@QAEHXZ 10052cd8 f i libvcruntime:undname.obj
 0001:00051ce4       ?doNoIdentCharCheck@UnDecorator@@QAEHXZ 10052ce4 f i libvcruntime:undname.obj
 0001:00051cf0       ?doPchar@DName@@AAEXD@Z    10052cf0 f   libvcruntime:undname.obj
 0001:00051d2c       ?doPtr64@UnDecorator@@QAEHXZ 10052d2c f i libvcruntime:undname.obj
 0001:00051d3b       ?doRestrictionSpec@UnDecorator@@QAEHXZ 10052d3b f i libvcruntime:undname.obj
 0001:00051d4a       ?doThisTypes@UnDecorator@@QAEHXZ 10052d4a f i libvcruntime:undname.obj
 0001:00051d5c       ?doThrowTypes@UnDecorator@@QAEHXZ 10052d5c f i libvcruntime:undname.obj
 0001:00051d6b       ?doTypeOnly@UnDecorator@@QAEHXZ 10052d6b f i libvcruntime:undname.obj
 0001:00051d77       ?doUnderScore@UnDecorator@@QAEHXZ 10052d77 f i libvcruntime:undname.obj
 0001:00051d83       ?getAddressOf@UnDecorator@@AAE?AVDName@@XZ 10052d83 f   libvcruntime:undname.obj
 0001:00051df5       ?getArgumentList@UnDecorator@@AAE?AVDName@@XZ 10052df5 f   libvcruntime:undname.obj
 0001:00051f47       ?getArgumentTypes@UnDecorator@@AAE?AVDName@@XZ 10052f47 f   libvcruntime:undname.obj
 0001:0005206c       ?getArrayAccess@UnDecorator@@AAE?AVDName@@XZ 1005306c f   libvcruntime:undname.obj
 0001:000520f0       ?getArrayObject@UnDecorator@@AAE?AVDName@@XZ 100530f0 f   libvcruntime:undname.obj
 0001:000521a3       ?getArrayType@UnDecorator@@AAE?AVDName@@ABV2@@Z 100531a3 f i libvcruntime:undname.obj
 0001:0005236e       ?getBasedType@UnDecorator@@AAE?AVDName@@XZ 1005336e f   libvcruntime:undname.obj
 0001:00052428       ?getBasicDataType@UnDecorator@@AAE?AVDName@@ABV2@@Z 10053428 f   libvcruntime:undname.obj
 0001:000529e4       ?getCHPEName@UnDecorator@@QAEPADPADH@Z 100539e4 f i libvcruntime:undname.obj
 0001:00052ac9       ?getCallIndex@UnDecorator@@AAE?AVDName@@XZ 10053ac9 f i libvcruntime:undname.obj
 0001:00052add       ?getCallingConvention@UnDecorator@@AAE?AVDName@@XZ 10053add f   libvcruntime:undname.obj
 0001:00052bbb       ?getDataIndirectType@UnDecorator@@AAE?AVDName@@ABV2@W4IndirectionKind@@0H@Z 10053bbb f   libvcruntime:undname.obj
 0001:0005326d       ?getDataIndirectType@UnDecorator@@AAE?AVDName@@XZ 1005426d f i libvcruntime:undname.obj
 0001:000532a0       ?getDataType@UnDecorator@@AAE?AVDName@@PAV2@@Z 100542a0 f   libvcruntime:undname.obj
 0001:0005337e       ?getDecoratedName@UnDecorator@@AAE?AVDName@@XZ 1005437e f   libvcruntime:undname.obj
 0001:00053618       ?getDimension@UnDecorator@@AAE?AVDName@@_N@Z 10054618 f   libvcruntime:undname.obj
 0001:00053714       ?getDispatchTarget@UnDecorator@@AAE?AVDName@@XZ 10054714 f   libvcruntime:undname.obj
 0001:00053774       ?getDisplacement@UnDecorator@@AAE?AVDName@@XZ 10054774 f i libvcruntime:undname.obj
 0001:00053788       ?getECSUDataType@UnDecorator@@AAE?AVDName@@XZ 10054788 f   libvcruntime:undname.obj
 0001:0005393b       ?getECSUName@UnDecorator@@AAE?AVDName@@XZ 1005493b f i libvcruntime:undname.obj
 0001:0005394d       ?getEnumEncoding@UnDecorator@@AAE?AVDName@@XZ 1005494d f   libvcruntime:undname.obj
 0001:000539cb       ?getEnumType@UnDecorator@@AAE?AVDName@@XZ 100549cb f i libvcruntime:undname.obj
 0001:00053afb       ?getExtendedDataIndirectType@UnDecorator@@AAE?AVDName@@AAW4IndirectionKind@@AA_NH@Z 10054afb f   libvcruntime:undname.obj
 0001:00053cfd       ?getExternalDataType@UnDecorator@@AAE?AVDName@@ABV2@@Z 10054cfd f i libvcruntime:undname.obj
 0001:00053d70       ?getFloatingPoint@UnDecorator@@AAE?AVDName@@H@Z 10054d70 f   libvcruntime:undname.obj
 0001:00053e1f       ?getFunctionIndirectType@UnDecorator@@AAE?AVDName@@ABV2@@Z 10054e1f f   libvcruntime:undname.obj
 0001:000541f6       ?getGuardNumber@UnDecorator@@AAE?AVDName@@XZ 100551f6 f i libvcruntime:undname.obj
 0001:0005420a       ?getHeap@UnDecorator@@QAEAAV_HeapManager@@XZ 1005520a f i libvcruntime:undname.obj
 0001:0005420e       ?getLastChar@DName@@QBEDXZ 1005520e f i libvcruntime:undname.obj
 0001:0005422e       ?getLastChar@DNameStatusNode@@UBEDXZ 1005522e f i libvcruntime:undname.obj
 0001:0005423a       ?getLastChar@charNode@@UBEDXZ 1005523a f i libvcruntime:undname.obj
 0001:0005423e       ?getLastChar@pDNameNode@@UBEDXZ 1005523e f i libvcruntime:undname.obj
 0001:0005424c       ?getLastChar@pairNode@@UBEDXZ 1005524c f i libvcruntime:undname.obj
 0001:00054281       ?getLastChar@pcharNode@@UBEDXZ 10055281 f i libvcruntime:undname.obj
 0001:00054293       ?getLexicalFrame@UnDecorator@@AAE?AVDName@@XZ 10055293 f i libvcruntime:undname.obj
 0001:000542c6       ?getMemberAccess@UnDecorator@@AAE?AVDName@@XZ 100552c6 f   libvcruntime:undname.obj
 0001:00054344       ?getMemoryWithBuffer@_HeapManager@@QAEPAXI@Z 10055344 f   libvcruntime:undname.obj
 0001:000543ae       ?getMemoryWithoutBuffer@_HeapManager@@QAEPAXI@Z 100553ae f   libvcruntime:undname.obj
 0001:000543ce       ?getModuleOwner@UnDecorator@@AAE?AVDName@@ABV2@@Z 100553ce f   libvcruntime:undname.obj
 0001:0005449c       ?getNoexcept@UnDecorator@@AAE?AVDName@@XZ 1005549c f   libvcruntime:undname.obj
 0001:000544f2       ?getNumberOfDimensions@UnDecorator@@AAEHXZ 100554f2 f   libvcruntime:undname.obj
 0001:00054556       ?getOperatorName@UnDecorator@@AAE?AVDName@@_NPA_N@Z 10055556 f i libvcruntime:undname.obj
 0001:00054d8c       ?getPointerToMember@UnDecorator@@AAE?AVDName@@XZ 10055d8c f   libvcruntime:undname.obj
 0001:00054e4b       ?getPointerType@UnDecorator@@AAE?AVDName@@ABV2@0@Z 10055e4b f i libvcruntime:undname.obj
 0001:00054e65       ?getPointerTypeArray@UnDecorator@@AAE?AVDName@@ABV2@0@Z 10055e65 f i libvcruntime:undname.obj
 0001:00054e7f       ?getPrimaryDataType@UnDecorator@@AAE?AVDName@@ABV2@@Z 10055e7f f   libvcruntime:undname.obj
 0001:00055357       ?getPtrRefDataType@UnDecorator@@AAE?AVDName@@ABV2@H@Z 10056357 f   libvcruntime:undname.obj
 0001:000554db       ?getPtrRefType@UnDecorator@@AAE?AVDName@@ABV2@0W4IndirectionKind@@@Z 100564db f   libvcruntime:undname.obj
 0001:000555f8       ?getReferenceType@UnDecorator@@AAE?AVDName@@ABV2@0W4IndirectionKind@@@Z 100565f8 f i libvcruntime:undname.obj
 0001:00055613       ?getRestrictionSpec@UnDecorator@@AAE?AVDName@@XZ 10056613 f   libvcruntime:undname.obj
 0001:00055788       ?getReturnType@UnDecorator@@AAE?AVDName@@PAV2@@Z 10056788 f   libvcruntime:undname.obj
 0001:000557ba       ?getScope@UnDecorator@@AAE?AVDName@@XZ 100567ba f   libvcruntime:undname.obj
 0001:00055b80       ?getScopedName@UnDecorator@@AAE?AVDName@@XZ 10056b80 f   libvcruntime:undname.obj
 0001:00055c86       ?getSignedDimension@UnDecorator@@AAE?AVDName@@XZ 10056c86 f   libvcruntime:undname.obj
 0001:00055cdc       ?getStorageConvention@UnDecorator@@AAE?AVDName@@XZ 10056cdc f i libvcruntime:undname.obj
 0001:00055cee       ?getString@DName@@QBEPADPAD0@Z 10056cee f i libvcruntime:undname.obj
 0001:00055d1b       ?getString@DName@@QBEPADPADH@Z 10056d1b f i libvcruntime:undname.obj
 0001:00055d71       ?getString@DNameStatusNode@@UBEPADPAD0@Z 10056d71 f i libvcruntime:undname.obj
 0001:00055dab       ?getString@charNode@@UBEPADPAD0@Z 10056dab f i libvcruntime:undname.obj
 0001:00055dc0       ?getString@pDNameNode@@UBEPADPAD0@Z 10056dc0 f i libvcruntime:undname.obj
 0001:00055dd7       ?getString@pairNode@@UBEPADPAD0@Z 10056dd7 f i libvcruntime:undname.obj
 0001:00055e1d       ?getString@pcharNode@@UBEPADPAD0@Z 10056e1d f i libvcruntime:undname.obj
 0001:00055e38       ?getStringEncoding@UnDecorator@@AAE?AVDName@@W4PrefixKind@@H@Z 10056e38 f   libvcruntime:undname.obj
 0001:00055efe       ?getStringHelper@@YAPADPADPBD1H@Z 10056efe f i libvcruntime:undname.obj
 0001:00055f2e       ?getStringObject@UnDecorator@@AAE?AVDName@@XZ 10056f2e f   libvcruntime:undname.obj
 0001:00055faf       ?getSymbolName@UnDecorator@@AAE?AVDName@@XZ 10056faf f i libvcruntime:undname.obj
 0001:00055ff6       ?getTemplateArgumentList@UnDecorator@@AAE?AVDName@@XZ 10056ff6 f   libvcruntime:undname.obj
 0001:000561c5       ?getTemplateName@UnDecorator@@AAE?AVDName@@_N@Z 100571c5 f   libvcruntime:undname.obj
 0001:000563f9       ?getTemplateNonTypeArgument@UnDecorator@@AAE?AVDName@@XZ 100573f9 f   libvcruntime:undname.obj
 0001:00056805       ?getTemplateTypeArgument@UnDecorator@@AAE?AVDName@@XZ 10057805 f   libvcruntime:undname.obj
 0001:00056968       ?getThisType@UnDecorator@@AAE?AVDName@@XZ 10057968 f i libvcruntime:undname.obj
 0001:0005699c       ?getThrowTypes@UnDecorator@@AAE?AVDName@@XZ 1005799c f   libvcruntime:undname.obj
 0001:000569c8       ?getTypeEncoding@UnDecorator@@AAEHXZ 100579c8 f i libvcruntime:undname.obj
 0001:00056d50       ?getUndecoratedName@UnDecorator@@QAEPADPADH@Z 10057d50 f i libvcruntime:undname.obj
 0001:00056e7a       ?getUnionObject@UnDecorator@@AAE?AVDName@@XZ 10057e7a f   libvcruntime:undname.obj
 0001:00056f31       ?getVCallThunkType@UnDecorator@@AAE?AVDName@@XZ 10057f31 f i libvcruntime:undname.obj
 0001:00056f82       ?getValue@UnDecorator@@AAE?AV?$optional@_K@std@@XZ 10057f82 f   libvcruntime:undname.obj
 0001:00056fe8       ?getValueObject@UnDecorator@@AAE?AVDName@@XZ 10057fe8 f   libvcruntime:undname.obj
 0001:00057144       ?getVbTableType@UnDecorator@@AAE?AVDName@@ABV2@@Z 10058144 f i libvcruntime:undname.obj
 0001:00057159       ?getVdispMapType@UnDecorator@@AAE?AVDName@@ABV2@@Z 10058159 f i libvcruntime:undname.obj
 0001:000571c8       ?getVfTableType@UnDecorator@@AAE?AVDName@@ABV2@@Z 100581c8 f i libvcruntime:undname.obj
 0001:00057329       ?getZName@UnDecorator@@AAE?AVDName@@_N0@Z 10058329 f   libvcruntime:undname.obj
 0001:00057576       ?get_current_character_and_increment_buffer@UnDecorator@@AAEDXZ 10058576 f i libvcruntime:undname.obj
 0001:0005758a       ?haveTemplateParameters@UnDecorator@@QAEHXZ 1005858a f i libvcruntime:undname.obj
 0001:00057596       ?increment_buffer@UnDecorator@@AAE_NI@Z 10058596 f i libvcruntime:undname.obj
 0001:000575c2       ?increment_buffer_no_check@UnDecorator@@AAEXI@Z 100585c2 f i libvcruntime:undname.obj
 0001:000575d2       ?increment_buffer_no_check@UnDecorator@@AAEXXZ 100585d2 f i libvcruntime:undname.obj
 0001:000575d9       ?isArray@DName@@QBEHXZ     100585d9 f i libvcruntime:undname.obj
 0001:000575e3       ?isComArray@DName@@QBEHXZ  100585e3 f i libvcruntime:undname.obj
 0001:000575ed       ?isEmpty@DName@@QBEHXZ     100585ed f i libvcruntime:undname.obj
 0001:000575f5       ?isFull@Replicator@@QBEHXZ 100585f5 f i libvcruntime:undname.obj
 0001:000575fe       ?isNoTE@DName@@QBEHXZ      100585fe f i libvcruntime:undname.obj
 0001:00057608       ?isPinPtr@DName@@QBEHXZ    10058608 f i libvcruntime:undname.obj
 0001:00057612       ?isPtrRef@DName@@QBEHXZ    10058612 f i libvcruntime:undname.obj
 0001:0005761c       ?isUDC@DName@@QBEHXZ       1005861c f i libvcruntime:undname.obj
 0001:0005762d       ?isUDTThunk@DName@@QBEHXZ  1005862d f i libvcruntime:undname.obj
 0001:0005763e       ?isVCallThunk@DName@@QBEHXZ 1005863e f i libvcruntime:undname.obj
 0001:00057648       ?isValid@DName@@QBEHXZ     10058648 f i libvcruntime:undname.obj
 0001:00057652       ?length@DName@@QBEHXZ      10058652 f i libvcruntime:undname.obj
 0001:00057671       ?length@DNameStatusNode@@UBEHXZ 10058671 f i libvcruntime:undname.obj
 0001:00057675       ?length@charNode@@UBEHXZ   10058675 f i libvcruntime:undname.obj
 0001:00057679       ?length@pDNameNode@@UBEHXZ 10058679 f i libvcruntime:undname.obj
 0001:00057687       ?length@pairNode@@UBEHXZ   10058687 f i libvcruntime:undname.obj
 0001:000576d0       ?length@pcharNode@@UBEHXZ  100586d0 f i libvcruntime:undname.obj
 0001:000576d4       ?make@DNameStatusNode@@SAPBV1@W4DNameStatus@@@Z 100586d4 f i libvcruntime:undname.obj
 0001:000576f0       ?parseDecoratedName@UnDecorator@@AAE?AVDName@@XZ 100586f0 f   libvcruntime:undname.obj
 0001:000577eb       ?raw_length@DNameStatusNode@@UBEHXZ 100587eb f i libvcruntime:undname.obj
 0001:000577ef       ?raw_length@charNode@@UBEHXZ 100587ef f i libvcruntime:undname.obj
 0001:000577f3       ?raw_length@pDNameNode@@UBEHXZ 100587f3 f i libvcruntime:undname.obj
 0001:000577f7       ?raw_length@pairNode@@UBEHXZ 100587f7 f i libvcruntime:undname.obj
 0001:000577fb       ?raw_length@pcharNode@@UBEHXZ 100587fb f i libvcruntime:undname.obj
 0001:000577ff       ?setIsArray@DName@@QAEXXZ  100587ff f i libvcruntime:undname.obj
 0001:00057807       ?setIsComArray@DName@@QAEXXZ 10058807 f i libvcruntime:undname.obj
 0001:0005780f       ?setIsNoTE@DName@@QAEXXZ   1005880f f i libvcruntime:undname.obj
 0001:00057817       ?setIsPinPtr@DName@@QAEXXZ 10058817 f i libvcruntime:undname.obj
 0001:0005781f       ?setIsUDC@DName@@QAEXXZ    1005881f f i libvcruntime:undname.obj
 0001:0005782c       ?setIsVCallThunk@DName@@QAEXXZ 1005882c f i libvcruntime:undname.obj
 0001:00057834       ?setPtrRef@DName@@QAEAAV1@XZ 10058834 f i libvcruntime:undname.obj
 0001:0005783e       ?status@DName@@QBE?AW4DNameStatus@@XZ 1005883e f i libvcruntime:undname.obj
 0001:000578a9       ___unDName                 100588a9 f   libvcruntime:undname.obj
 0001:000578cc       ___unDNameEx               100588cc f   libvcruntime:undname.obj
 0001:0005795d       __vsprintf_s_l             1005895d f i libvcruntime:undname.obj
 0001:0005798b       _snprintf                  1005898b f i libvcruntime:undname.obj
 0001:000579a5       _sprintf_s                 100589a5 f i libvcruntime:undname.obj
 0001:000579c1       _unDNameGenerateCHPE       100589c1 f   libvcruntime:undname.obj
 0001:00057a0e       _vsnprintf                 10058a0e f i libvcruntime:undname.obj
 0001:00057a40       __local_unwind4            10058a40 f   libvcruntime:exsup4.obj
 0001:00057b30       __seh_longjmp_unwind4@4    10058b30 f   libvcruntime:exsup4.obj
 0001:00057b60       @_EH4_CallFilterFunc@8     10058b60 f   libvcruntime:exsup4.obj
 0001:00057b80       @_EH4_TransferToHandler@8  10058b80 f   libvcruntime:exsup4.obj
 0001:00057ba0       @_EH4_GlobalUnwind2@8      10058ba0 f   libvcruntime:exsup4.obj
 0001:00057bc0       @_EH4_LocalUnwind@16       10058bc0 f   libvcruntime:exsup4.obj
 0001:00057bd7       ___vcrt_initialize_locks   10058bd7 f   libvcruntime:locks.obj
 0001:00057c0d       ___vcrt_lock               10058c0d f   libvcruntime:locks.obj
 0001:00057c22       ___vcrt_uninitialize_locks 10058c22 f   libvcruntime:locks.obj
 0001:00057c4c       ___vcrt_unlock             10058c4c f   libvcruntime:locks.obj
 0001:00057c78       __get_unexpected           10058c78 f   libvcruntime:unexpected.obj
 0001:00057c8d       _set_unexpected            10058c8d f   libvcruntime:unexpected.obj
 0001:00057cac       _unexpected                10058cac f   libvcruntime:unexpected.obj
 0001:00057cc9       ?GetCurrentState@__FrameHandler3@@SAHPAUEHRegistrationNode@@PAXPBU_s_FuncInfo@@@Z 10058cc9 f   libvcruntime:ehstate.obj
 0001:00057ce6       ?SetState@__FrameHandler3@@SAXPAUEHRegistrationNode@@PAXPBU_s_FuncInfo@@H@Z 10058ce6 f   libvcruntime:ehstate.obj
 0001:00057d00       __global_unwind2           10058d00 f   libvcruntime:exsup.obj
 0001:00057d80       __local_unwind2            10058d80 f   libvcruntime:exsup.obj
 0001:00057e20       __abnormal_termination     10058e20 f   libvcruntime:exsup.obj
 0001:00057e50       __NLG_Notify1              10058e50 f   libvcruntime:exsup.obj
 0001:00057e60       __NLG_Notify               10058e60 f   libvcruntime:exsup.obj
 0001:00057e77       __NLG_Dispatch             10058e77     libvcruntime:exsup.obj
 0001:00057e77       __NLG_Dispatch2            10058e77     libvcruntime:exsup.obj
 0001:00057e80       __NLG_Call                 10058e80 f   libvcruntime:exsup.obj
 0001:00057e82       __NLG_Return2              10058e82     libvcruntime:exsup.obj
 0001:00057f20       _strcpy_s                  10058f20 f   libucrt:strcpy_s.obj
 0001:00057faf       ??$?0ABV?$stream_output_adapter@D@__crt_stdio_output@@AB_KABQBDAAV__crt_cached_ptd_host@@ABQAD@?$format_validation_base@DV?$stream_output_adapter@D@__crt_stdio_output@@@__crt_stdio_output@@IAE@ABV?$stream_output_adapter@D@1@AB_KABQBDAAV__crt_cached_ptd_host@@ABQAD@Z 10058faf f i libucrt:output.obj
 0001:00057fd2       ??$?0ABV?$stream_output_adapter@D@__crt_stdio_output@@AB_KABQBDAAV__crt_cached_ptd_host@@ABQAD@?$positional_parameter_base@DV?$stream_output_adapter@D@__crt_stdio_output@@@__crt_stdio_output@@IAE@ABV?$stream_output_adapter@D@1@AB_KABQBDAAV__crt_cached_ptd_host@@ABQAD@Z 10058fd2 f i libucrt:output.obj
 0001:0005801a       ??$?0ABV?$stream_output_adapter@D@__crt_stdio_output@@AB_KABQBDAAV__crt_cached_ptd_host@@ABQAD@?$standard_base@DV?$stream_output_adapter@D@__crt_stdio_output@@@__crt_stdio_output@@IAE@ABV?$stream_output_adapter@D@1@AB_KABQBDAAV__crt_cached_ptd_host@@ABQAD@Z 1005901a f i libucrt:output.obj
 0001:0005804d       ??$?0ABV?$stream_output_adapter@_W@__crt_stdio_output@@AB_KABQB_WAAV__crt_cached_ptd_host@@ABQAD@?$format_validation_base@_WV?$stream_output_adapter@_W@__crt_stdio_output@@@__crt_stdio_output@@IAE@ABV?$stream_output_adapter@_W@1@AB_KABQB_WAAV__crt_cached_ptd_host@@ABQAD@Z 1005904d f i libucrt:output.obj
 0001:00058070       ??$?0ABV?$stream_output_adapter@_W@__crt_stdio_output@@AB_KABQB_WAAV__crt_cached_ptd_host@@ABQAD@?$positional_parameter_base@_WV?$stream_output_adapter@_W@__crt_stdio_output@@@__crt_stdio_output@@IAE@ABV?$stream_output_adapter@_W@1@AB_KABQB_WAAV__crt_cached_ptd_host@@ABQAD@Z 10059070 f i libucrt:output.obj
 0001:000580b8       ??$?0ABV?$stream_output_adapter@_W@__crt_stdio_output@@AB_KABQB_WAAV__crt_cached_ptd_host@@ABQAD@?$standard_base@_WV?$stream_output_adapter@_W@__crt_stdio_output@@@__crt_stdio_output@@IAE@ABV?$stream_output_adapter@_W@1@AB_KABQB_WAAV__crt_cached_ptd_host@@ABQAD@Z 100590b8 f i libucrt:output.obj
 0001:000580eb       ??$?0ABV?$string_output_adapter@D@__crt_stdio_output@@AB_KABQBDAAV__crt_cached_ptd_host@@ABQAD@?$format_validation_base@DV?$string_output_adapter@D@__crt_stdio_output@@@__crt_stdio_output@@IAE@ABV?$string_output_adapter@D@1@AB_KABQBDAAV__crt_cached_ptd_host@@ABQAD@Z 100590eb f i libucrt:output.obj
 0001:0005810e       ??$?0ABV?$string_output_adapter@D@__crt_stdio_output@@AB_KABQBDAAV__crt_cached_ptd_host@@ABQAD@?$positional_parameter_base@DV?$string_output_adapter@D@__crt_stdio_output@@@__crt_stdio_output@@IAE@ABV?$string_output_adapter@D@1@AB_KABQBDAAV__crt_cached_ptd_host@@ABQAD@Z 1005910e f i libucrt:output.obj
 0001:00058156       ??$?0ABV?$string_output_adapter@D@__crt_stdio_output@@AB_KABQBDAAV__crt_cached_ptd_host@@ABQAD@?$standard_base@DV?$string_output_adapter@D@__crt_stdio_output@@@__crt_stdio_output@@IAE@ABV?$string_output_adapter@D@1@AB_KABQBDAAV__crt_cached_ptd_host@@ABQAD@Z 10059156 f i libucrt:output.obj
 0001:00058189       ??$?0ABV?$string_output_adapter@_W@__crt_stdio_output@@AB_KABQB_WAAV__crt_cached_ptd_host@@ABQAD@?$format_validation_base@_WV?$string_output_adapter@_W@__crt_stdio_output@@@__crt_stdio_output@@IAE@ABV?$string_output_adapter@_W@1@AB_KABQB_WAAV__crt_cached_ptd_host@@ABQAD@Z 10059189 f i libucrt:output.obj
 0001:000581ac       ??$?0ABV?$string_output_adapter@_W@__crt_stdio_output@@AB_KABQB_WAAV__crt_cached_ptd_host@@ABQAD@?$positional_parameter_base@_WV?$string_output_adapter@_W@__crt_stdio_output@@@__crt_stdio_output@@IAE@ABV?$string_output_adapter@_W@1@AB_KABQB_WAAV__crt_cached_ptd_host@@ABQAD@Z 100591ac f i libucrt:output.obj
 0001:000581f4       ??$?0ABV?$string_output_adapter@_W@__crt_stdio_output@@AB_KABQB_WAAV__crt_cached_ptd_host@@ABQAD@?$standard_base@_WV?$string_output_adapter@_W@__crt_stdio_output@@@__crt_stdio_output@@IAE@ABV?$string_output_adapter@_W@1@AB_KABQB_WAAV__crt_cached_ptd_host@@ABQAD@Z 100591f4 f i libucrt:output.obj
 0001:0005852d       ??$__crt_interlocked_read@J@@YAJPDJ@Z 1005952d f i libucrt:output.obj
 0001:0005853a       ??$_tcstol_internal@DPAPAD$0A@@@YAJAAV__crt_cached_ptd_host@@QBDQAPADH@Z 1005953a f i libucrt:output.obj
 0001:00058565       ??$_tcstol_internal@_WPAPA_W$0A@@@YAJAAV__crt_cached_ptd_host@@QB_WQAPA_WH@Z 10059565 f i libucrt:output.obj
 0001:000594bf       ??$count@D@formatting_buffer@__crt_stdio_output@@QBEIXZ 1005a4bf f i libucrt:output.obj
 0001:000594d7       ??$count@_W@formatting_buffer@__crt_stdio_output@@QBEIXZ 1005a4d7 f i libucrt:output.obj
 0001:000594f0       ??$data@D@formatting_buffer@__crt_stdio_output@@QAEPADXZ 1005a4f0 f i libucrt:output.obj
 0001:000594fc       ??$data@_W@formatting_buffer@__crt_stdio_output@@QAEPA_WXZ 1005a4fc f i libucrt:output.obj
 0001:00059508       ??$ensure_buffer_is_big_enough@D@formatting_buffer@__crt_stdio_output@@QAE_NIAAV__crt_cached_ptd_host@@@Z 1005a508 f i libucrt:output.obj
 0001:00059588       ??$ensure_buffer_is_big_enough@_W@formatting_buffer@__crt_stdio_output@@QAE_NIAAV__crt_cached_ptd_host@@@Z 1005a588 f i libucrt:output.obj
 0001:00059609       ??$extract_argument_from_va_list@C_J@?$positional_parameter_base@DV?$stream_output_adapter@D@__crt_stdio_output@@@__crt_stdio_output@@IAE_NAA_J@Z 1005a609 f i libucrt:output.obj
 0001:00059698       ??$extract_argument_from_va_list@C_J@?$positional_parameter_base@DV?$string_output_adapter@D@__crt_stdio_output@@@__crt_stdio_output@@IAE_NAA_J@Z 1005a698 f i libucrt:output.obj
 0001:00059727       ??$extract_argument_from_va_list@C_J@?$positional_parameter_base@_WV?$stream_output_adapter@_W@__crt_stdio_output@@@__crt_stdio_output@@IAE_NAA_J@Z 1005a727 f i libucrt:output.obj
 0001:000597b7       ??$extract_argument_from_va_list@C_J@?$positional_parameter_base@_WV?$string_output_adapter@_W@__crt_stdio_output@@@__crt_stdio_output@@IAE_NAA_J@Z 1005a7b7 f i libucrt:output.obj
 0001:00059847       ??$extract_argument_from_va_list@C_J@?$standard_base@DV?$stream_output_adapter@D@__crt_stdio_output@@@__crt_stdio_output@@IAE_NAA_J@Z 1005a847 f i libucrt:output.obj
 0001:00059867       ??$extract_argument_from_va_list@C_J@?$standard_base@DV?$string_output_adapter@D@__crt_stdio_output@@@__crt_stdio_output@@IAE_NAA_J@Z 1005a867 f i libucrt:output.obj
 0001:00059887       ??$extract_argument_from_va_list@C_J@?$standard_base@_WV?$stream_output_adapter@_W@__crt_stdio_output@@@__crt_stdio_output@@IAE_NAA_J@Z 1005a887 f i libucrt:output.obj
 0001:000598a7       ??$extract_argument_from_va_list@C_J@?$standard_base@_WV?$string_output_adapter@_W@__crt_stdio_output@@@__crt_stdio_output@@IAE_NAA_J@Z 1005a8a7 f i libucrt:output.obj
 0001:000598c7       ??$extract_argument_from_va_list@E_J@?$positional_parameter_base@DV?$stream_output_adapter@D@__crt_stdio_output@@@__crt_stdio_output@@IAE_NAA_J@Z 1005a8c7 f i libucrt:output.obj
 0001:00059956       ??$extract_argument_from_va_list@E_J@?$positional_parameter_base@DV?$string_output_adapter@D@__crt_stdio_output@@@__crt_stdio_output@@IAE_NAA_J@Z 1005a956 f i libucrt:output.obj
 0001:000599e5       ??$extract_argument_from_va_list@E_J@?$positional_parameter_base@_WV?$stream_output_adapter@_W@__crt_stdio_output@@@__crt_stdio_output@@IAE_NAA_J@Z 1005a9e5 f i libucrt:output.obj
 0001:00059a75       ??$extract_argument_from_va_list@E_J@?$positional_parameter_base@_WV?$string_output_adapter@_W@__crt_stdio_output@@@__crt_stdio_output@@IAE_NAA_J@Z 1005aa75 f i libucrt:output.obj
 0001:00059b05       ??$extract_argument_from_va_list@E_J@?$standard_base@DV?$stream_output_adapter@D@__crt_stdio_output@@@__crt_stdio_output@@IAE_NAA_J@Z 1005ab05 f i libucrt:output.obj
 0001:00059b25       ??$extract_argument_from_va_list@E_J@?$standard_base@DV?$string_output_adapter@D@__crt_stdio_output@@@__crt_stdio_output@@IAE_NAA_J@Z 1005ab25 f i libucrt:output.obj
 0001:00059b45       ??$extract_argument_from_va_list@E_J@?$standard_base@_WV?$stream_output_adapter@_W@__crt_stdio_output@@@__crt_stdio_output@@IAE_NAA_J@Z 1005ab45 f i libucrt:output.obj
 0001:00059b65       ??$extract_argument_from_va_list@E_J@?$standard_base@_WV?$string_output_adapter@_W@__crt_stdio_output@@@__crt_stdio_output@@IAE_NAA_J@Z 1005ab65 f i libucrt:output.obj
 0001:00059b85       ??$extract_argument_from_va_list@F_J@?$positional_parameter_base@DV?$stream_output_adapter@D@__crt_stdio_output@@@__crt_stdio_output@@IAE_NAA_J@Z 1005ab85 f i libucrt:output.obj
 0001:00059c14       ??$extract_argument_from_va_list@F_J@?$positional_parameter_base@DV?$string_output_adapter@D@__crt_stdio_output@@@__crt_stdio_output@@IAE_NAA_J@Z 1005ac14 f i libucrt:output.obj
 0001:00059ca3       ??$extract_argument_from_va_list@F_J@?$positional_parameter_base@_WV?$stream_output_adapter@_W@__crt_stdio_output@@@__crt_stdio_output@@IAE_NAA_J@Z 1005aca3 f i libucrt:output.obj
 0001:00059d33       ??$extract_argument_from_va_list@F_J@?$positional_parameter_base@_WV?$string_output_adapter@_W@__crt_stdio_output@@@__crt_stdio_output@@IAE_NAA_J@Z 1005ad33 f i libucrt:output.obj
 0001:00059dc3       ??$extract_argument_from_va_list@F_J@?$standard_base@DV?$stream_output_adapter@D@__crt_stdio_output@@@__crt_stdio_output@@IAE_NAA_J@Z 1005adc3 f i libucrt:output.obj
 0001:00059de3       ??$extract_argument_from_va_list@F_J@?$standard_base@DV?$string_output_adapter@D@__crt_stdio_output@@@__crt_stdio_output@@IAE_NAA_J@Z 1005ade3 f i libucrt:output.obj
 0001:00059e03       ??$extract_argument_from_va_list@F_J@?$standard_base@_WV?$stream_output_adapter@_W@__crt_stdio_output@@@__crt_stdio_output@@IAE_NAA_J@Z 1005ae03 f i libucrt:output.obj
 0001:00059e23       ??$extract_argument_from_va_list@F_J@?$standard_base@_WV?$string_output_adapter@_W@__crt_stdio_output@@@__crt_stdio_output@@IAE_NAA_J@Z 1005ae23 f i libucrt:output.obj
 0001:00059e43       ??$extract_argument_from_va_list@GD@?$positional_parameter_base@DV?$stream_output_adapter@D@__crt_stdio_output@@@__crt_stdio_output@@IAE_NAAD@Z 1005ae43 f i libucrt:output.obj
 0001:00059ed1       ??$extract_argument_from_va_list@GD@?$positional_parameter_base@DV?$string_output_adapter@D@__crt_stdio_output@@@__crt_stdio_output@@IAE_NAAD@Z 1005aed1 f i libucrt:output.obj
 0001:00059f5f       ??$extract_argument_from_va_list@GD@?$standard_base@DV?$stream_output_adapter@D@__crt_stdio_output@@@__crt_stdio_output@@IAE_NAAD@Z 1005af5f f i libucrt:output.obj
 0001:00059f7c       ??$extract_argument_from_va_list@GD@?$standard_base@DV?$string_output_adapter@D@__crt_stdio_output@@@__crt_stdio_output@@IAE_NAAD@Z 1005af7c f i libucrt:output.obj
 0001:00059f99       ??$extract_argument_from_va_list@G_J@?$positional_parameter_base@DV?$stream_output_adapter@D@__crt_stdio_output@@@__crt_stdio_output@@IAE_NAA_J@Z 1005af99 f i libucrt:output.obj
 0001:0005a028       ??$extract_argument_from_va_list@G_J@?$positional_parameter_base@DV?$string_output_adapter@D@__crt_stdio_output@@@__crt_stdio_output@@IAE_NAA_J@Z 1005b028 f i libucrt:output.obj
 0001:0005a0b7       ??$extract_argument_from_va_list@G_J@?$positional_parameter_base@_WV?$stream_output_adapter@_W@__crt_stdio_output@@@__crt_stdio_output@@IAE_NAA_J@Z 1005b0b7 f i libucrt:output.obj
 0001:0005a147       ??$extract_argument_from_va_list@G_J@?$positional_parameter_base@_WV?$string_output_adapter@_W@__crt_stdio_output@@@__crt_stdio_output@@IAE_NAA_J@Z 1005b147 f i libucrt:output.obj
 0001:0005a1d7       ??$extract_argument_from_va_list@G_J@?$standard_base@DV?$stream_output_adapter@D@__crt_stdio_output@@@__crt_stdio_output@@IAE_NAA_J@Z 1005b1d7 f i libucrt:output.obj
 0001:0005a1f7       ??$extract_argument_from_va_list@G_J@?$standard_base@DV?$string_output_adapter@D@__crt_stdio_output@@@__crt_stdio_output@@IAE_NAA_J@Z 1005b1f7 f i libucrt:output.obj
 0001:0005a217       ??$extract_argument_from_va_list@G_J@?$standard_base@_WV?$stream_output_adapter@_W@__crt_stdio_output@@@__crt_stdio_output@@IAE_NAA_J@Z 1005b217 f i libucrt:output.obj
 0001:0005a237       ??$extract_argument_from_va_list@G_J@?$standard_base@_WV?$string_output_adapter@_W@__crt_stdio_output@@@__crt_stdio_output@@IAE_NAA_J@Z 1005b237 f i libucrt:output.obj
 0001:0005a257       ??$extract_argument_from_va_list@H_J@?$positional_parameter_base@DV?$stream_output_adapter@D@__crt_stdio_output@@@__crt_stdio_output@@IAE_NAA_J@Z 1005b257 f i libucrt:output.obj
 0001:0005a2e0       ??$extract_argument_from_va_list@H_J@?$positional_parameter_base@DV?$string_output_adapter@D@__crt_stdio_output@@@__crt_stdio_output@@IAE_NAA_J@Z 1005b2e0 f i libucrt:output.obj
 0001:0005a369       ??$extract_argument_from_va_list@H_J@?$positional_parameter_base@_WV?$stream_output_adapter@_W@__crt_stdio_output@@@__crt_stdio_output@@IAE_NAA_J@Z 1005b369 f i libucrt:output.obj
 0001:0005a3f3       ??$extract_argument_from_va_list@H_J@?$positional_parameter_base@_WV?$string_output_adapter@_W@__crt_stdio_output@@@__crt_stdio_output@@IAE_NAA_J@Z 1005b3f3 f i libucrt:output.obj
 0001:0005a47d       ??$extract_argument_from_va_list@H_J@?$standard_base@DV?$stream_output_adapter@D@__crt_stdio_output@@@__crt_stdio_output@@IAE_NAA_J@Z 1005b47d f i libucrt:output.obj
 0001:0005a49c       ??$extract_argument_from_va_list@H_J@?$standard_base@DV?$string_output_adapter@D@__crt_stdio_output@@@__crt_stdio_output@@IAE_NAA_J@Z 1005b49c f i libucrt:output.obj
 0001:0005a4bb       ??$extract_argument_from_va_list@H_J@?$standard_base@_WV?$stream_output_adapter@_W@__crt_stdio_output@@@__crt_stdio_output@@IAE_NAA_J@Z 1005b4bb f i libucrt:output.obj
 0001:0005a4da       ??$extract_argument_from_va_list@H_J@?$standard_base@_WV?$string_output_adapter@_W@__crt_stdio_output@@@__crt_stdio_output@@IAE_NAA_J@Z 1005b4da f i libucrt:output.obj
 0001:0005a4f9       ??$extract_argument_from_va_list@I_J@?$positional_parameter_base@DV?$stream_output_adapter@D@__crt_stdio_output@@@__crt_stdio_output@@IAE_NAA_J@Z 1005b4f9 f i libucrt:output.obj
 0001:0005a58f       ??$extract_argument_from_va_list@I_J@?$positional_parameter_base@DV?$string_output_adapter@D@__crt_stdio_output@@@__crt_stdio_output@@IAE_NAA_J@Z 1005b58f f i libucrt:output.obj
 0001:0005a625       ??$extract_argument_from_va_list@I_J@?$positional_parameter_base@_WV?$stream_output_adapter@_W@__crt_stdio_output@@@__crt_stdio_output@@IAE_NAA_J@Z 1005b625 f i libucrt:output.obj
 0001:0005a6bc       ??$extract_argument_from_va_list@I_J@?$positional_parameter_base@_WV?$string_output_adapter@_W@__crt_stdio_output@@@__crt_stdio_output@@IAE_NAA_J@Z 1005b6bc f i libucrt:output.obj
 0001:0005a753       ??$extract_argument_from_va_list@I_J@?$standard_base@DV?$stream_output_adapter@D@__crt_stdio_output@@@__crt_stdio_output@@IAE_NAA_J@Z 1005b753 f i libucrt:output.obj
 0001:0005a772       ??$extract_argument_from_va_list@I_J@?$standard_base@DV?$string_output_adapter@D@__crt_stdio_output@@@__crt_stdio_output@@IAE_NAA_J@Z 1005b772 f i libucrt:output.obj
 0001:0005a791       ??$extract_argument_from_va_list@I_J@?$standard_base@_WV?$stream_output_adapter@_W@__crt_stdio_output@@@__crt_stdio_output@@IAE_NAA_J@Z 1005b791 f i libucrt:output.obj
 0001:0005a7b0       ??$extract_argument_from_va_list@I_J@?$standard_base@_WV?$string_output_adapter@_W@__crt_stdio_output@@@__crt_stdio_output@@IAE_NAA_J@Z 1005b7b0 f i libucrt:output.obj
 0001:0005a7cf       ??$extract_argument_from_va_list@PADPAD@?$positional_parameter_base@DV?$stream_output_adapter@D@__crt_stdio_output@@@__crt_stdio_output@@IAE_NAAPAD@Z 1005b7cf f i libucrt:output.obj
 0001:0005a85d       ??$extract_argument_from_va_list@PADPAD@?$positional_parameter_base@DV?$string_output_adapter@D@__crt_stdio_output@@@__crt_stdio_output@@IAE_NAAPAD@Z 1005b85d f i libucrt:output.obj
 0001:0005a8eb       ??$extract_argument_from_va_list@PADPAD@?$positional_parameter_base@_WV?$stream_output_adapter@_W@__crt_stdio_output@@@__crt_stdio_output@@IAE_NAAPAD@Z 1005b8eb f i libucrt:output.obj
 0001:0005a97a       ??$extract_argument_from_va_list@PADPAD@?$positional_parameter_base@_WV?$string_output_adapter@_W@__crt_stdio_output@@@__crt_stdio_output@@IAE_NAAPAD@Z 1005b97a f i libucrt:output.obj
 0001:0005aa09       ??$extract_argument_from_va_list@PADPAD@?$standard_base@DV?$stream_output_adapter@D@__crt_stdio_output@@@__crt_stdio_output@@IAE_NAAPAD@Z 1005ba09 f i libucrt:output.obj
 0001:0005aa26       ??$extract_argument_from_va_list@PADPAD@?$standard_base@DV?$string_output_adapter@D@__crt_stdio_output@@@__crt_stdio_output@@IAE_NAAPAD@Z 1005ba26 f i libucrt:output.obj
 0001:0005aa43       ??$extract_argument_from_va_list@PADPAD@?$standard_base@_WV?$stream_output_adapter@_W@__crt_stdio_output@@@__crt_stdio_output@@IAE_NAAPAD@Z 1005ba43 f i libucrt:output.obj
 0001:0005aa60       ??$extract_argument_from_va_list@PADPAD@?$standard_base@_WV?$string_output_adapter@_W@__crt_stdio_output@@@__crt_stdio_output@@IAE_NAAPAD@Z 1005ba60 f i libucrt:output.obj
 0001:0005aa7d       ??$extract_argument_from_va_list@PAUansi_string@?1??type_case_Z@?$output_processor@DV?$stream_output_adapter@D@__crt_stdio_output@@V?$format_validation_base@DV?$stream_output_adapter@D@__crt_stdio_output@@@2@@__crt_stdio_output@@AAE_NXZ@PAU1?1??234@AAE_NXZ@@?$standard_base@DV?$stream_output_adapter@D@__crt_stdio_output@@@__crt_stdio_output@@IAE_NAAPAUansi_string@?1??type_case_Z@?$output_processor@DV?$stream_output_adapter@D@__crt_stdio_output@@V?$format_validation_base@DV?$stream_output_adapter@D@__crt_stdio_output@@@2@@1@AAE_NXZ@@Z 1005ba7d f i libucrt:output.obj
 0001:0005aa9a       ??$extract_argument_from_va_list@PAUansi_string@?1??type_case_Z@?$output_processor@DV?$stream_output_adapter@D@__crt_stdio_output@@V?$positional_parameter_base@DV?$stream_output_adapter@D@__crt_stdio_output@@@2@@__crt_stdio_output@@AAE_NXZ@PAU1?1??234@AAE_NXZ@@?$positional_parameter_base@DV?$stream_output_adapter@D@__crt_stdio_output@@@__crt_stdio_output@@IAE_NAAPAUansi_string@?1??type_case_Z@?$output_processor@DV?$stream_output_adapter@D@__crt_stdio_output@@V?$positional_parameter_base@DV?$stream_output_adapter@D@__crt_stdio_output@@@2@@1@AAE_NXZ@@Z 1005ba9a f i libucrt:output.obj
 0001:0005ab28       ??$extract_argument_from_va_list@PAUansi_string@?1??type_case_Z@?$output_processor@DV?$stream_output_adapter@D@__crt_stdio_output@@V?$positional_parameter_base@DV?$stream_output_adapter@D@__crt_stdio_output@@@2@@__crt_stdio_output@@AAE_NXZ@PAU1?1??234@AAE_NXZ@@?$standard_base@DV?$stream_output_adapter@D@__crt_stdio_output@@@__crt_stdio_output@@IAE_NAAPAUansi_string@?1??type_case_Z@?$output_processor@DV?$stream_output_adapter@D@__crt_stdio_output@@V?$positional_parameter_base@DV?$stream_output_adapter@D@__crt_stdio_output@@@2@@1@AAE_NXZ@@Z 1005bb28 f i libucrt:output.obj
 0001:0005ab45       ??$extract_argument_from_va_list@PAUansi_string@?1??type_case_Z@?$output_processor@DV?$stream_output_adapter@D@__crt_stdio_output@@V?$standard_base@DV?$stream_output_adapter@D@__crt_stdio_output@@@2@@__crt_stdio_output@@AAE_NXZ@PAU1?1??234@AAE_NXZ@@?$standard_base@DV?$stream_output_adapter@D@__crt_stdio_output@@@__crt_stdio_output@@IAE_NAAPAUansi_string@?1??type_case_Z@?$output_processor@DV?$stream_output_adapter@D@__crt_stdio_output@@V?$standard_base@DV?$stream_output_adapter@D@__crt_stdio_output@@@2@@1@AAE_NXZ@@Z 1005bb45 f i libucrt:output.obj
 0001:0005ab62       ??$extract_argument_from_va_list@PAUansi_string@?1??type_case_Z@?$output_processor@DV?$string_output_adapter@D@__crt_stdio_output@@V?$format_validation_base@DV?$string_output_adapter@D@__crt_stdio_output@@@2@@__crt_stdio_output@@AAE_NXZ@PAU1?1??234@AAE_NXZ@@?$standard_base@DV?$string_output_adapter@D@__crt_stdio_output@@@__crt_stdio_output@@IAE_NAAPAUansi_string@?1??type_case_Z@?$output_processor@DV?$string_output_adapter@D@__crt_stdio_output@@V?$format_validation_base@DV?$string_output_adapter@D@__crt_stdio_output@@@2@@1@AAE_NXZ@@Z 1005bb62 f i libucrt:output.obj
 0001:0005ab7f       ??$extract_argument_from_va_list@PAUansi_string@?1??type_case_Z@?$output_processor@DV?$string_output_adapter@D@__crt_stdio_output@@V?$positional_parameter_base@DV?$string_output_adapter@D@__crt_stdio_output@@@2@@__crt_stdio_output@@AAE_NXZ@PAU1?1??234@AAE_NXZ@@?$positional_parameter_base@DV?$string_output_adapter@D@__crt_stdio_output@@@__crt_stdio_output@@IAE_NAAPAUansi_string@?1??type_case_Z@?$output_processor@DV?$string_output_adapter@D@__crt_stdio_output@@V?$positional_parameter_base@DV?$string_output_adapter@D@__crt_stdio_output@@@2@@1@AAE_NXZ@@Z 1005bb7f f i libucrt:output.obj
 0001:0005ac0d       ??$extract_argument_from_va_list@PAUansi_string@?1??type_case_Z@?$output_processor@DV?$string_output_adapter@D@__crt_stdio_output@@V?$positional_parameter_base@DV?$string_output_adapter@D@__crt_stdio_output@@@2@@__crt_stdio_output@@AAE_NXZ@PAU1?1??234@AAE_NXZ@@?$standard_base@DV?$string_output_adapter@D@__crt_stdio_output@@@__crt_stdio_output@@IAE_NAAPAUansi_string@?1??type_case_Z@?$output_processor@DV?$string_output_adapter@D@__crt_stdio_output@@V?$positional_parameter_base@DV?$string_output_adapter@D@__crt_stdio_output@@@2@@1@AAE_NXZ@@Z 1005bc0d f i libucrt:output.obj
 0001:0005ac2a       ??$extract_argument_from_va_list@PAUansi_string@?1??type_case_Z@?$output_processor@DV?$string_output_adapter@D@__crt_stdio_output@@V?$standard_base@DV?$string_output_adapter@D@__crt_stdio_output@@@2@@__crt_stdio_output@@AAE_NXZ@PAU1?1??234@AAE_NXZ@@?$standard_base@DV?$string_output_adapter@D@__crt_stdio_output@@@__crt_stdio_output@@IAE_NAAPAUansi_string@?1??type_case_Z@?$output_processor@DV?$string_output_adapter@D@__crt_stdio_output@@V?$standard_base@DV?$string_output_adapter@D@__crt_stdio_output@@@2@@1@AAE_NXZ@@Z 1005bc2a f i libucrt:output.obj
 0001:0005ac47       ??$extract_argument_from_va_list@PAUansi_string@?1??type_case_Z@?$output_processor@_WV?$stream_output_adapter@_W@__crt_stdio_output@@V?$format_validation_base@_WV?$stream_output_adapter@_W@__crt_stdio_output@@@2@@__crt_stdio_output@@AAE_NXZ@PAU1?1??234@AAE_NXZ@@?$standard_base@_WV?$stream_output_adapter@_W@__crt_stdio_output@@@__crt_stdio_output@@IAE_NAAPAUansi_string@?1??type_case_Z@?$output_processor@_WV?$stream_output_adapter@_W@__crt_stdio_output@@V?$format_validation_base@_WV?$stream_output_adapter@_W@__crt_stdio_output@@@2@@1@AAE_NXZ@@Z 1005bc47 f i libucrt:output.obj
 0001:0005ac64       ??$extract_argument_from_va_list@PAUansi_string@?1??type_case_Z@?$output_processor@_WV?$stream_output_adapter@_W@__crt_stdio_output@@V?$positional_parameter_base@_WV?$stream_output_adapter@_W@__crt_stdio_output@@@2@@__crt_stdio_output@@AAE_NXZ@PAU1?1??234@AAE_NXZ@@?$positional_parameter_base@_WV?$stream_output_adapter@_W@__crt_stdio_output@@@__crt_stdio_output@@IAE_NAAPAUansi_string@?1??type_case_Z@?$output_processor@_WV?$stream_output_adapter@_W@__crt_stdio_output@@V?$positional_parameter_base@_WV?$stream_output_adapter@_W@__crt_stdio_output@@@2@@1@AAE_NXZ@@Z 1005bc64 f i libucrt:output.obj
 0001:0005acf3       ??$extract_argument_from_va_list@PAUansi_string@?1??type_case_Z@?$output_processor@_WV?$stream_output_adapter@_W@__crt_stdio_output@@V?$positional_parameter_base@_WV?$stream_output_adapter@_W@__crt_stdio_output@@@2@@__crt_stdio_output@@AAE_NXZ@PAU1?1??234@AAE_NXZ@@?$standard_base@_WV?$stream_output_adapter@_W@__crt_stdio_output@@@__crt_stdio_output@@IAE_NAAPAUansi_string@?1??type_case_Z@?$output_processor@_WV?$stream_output_adapter@_W@__crt_stdio_output@@V?$positional_parameter_base@_WV?$stream_output_adapter@_W@__crt_stdio_output@@@2@@1@AAE_NXZ@@Z 1005bcf3 f i libucrt:output.obj
 0001:0005ad10       ??$extract_argument_from_va_list@PAUansi_string@?1??type_case_Z@?$output_processor@_WV?$stream_output_adapter@_W@__crt_stdio_output@@V?$standard_base@_WV?$stream_output_adapter@_W@__crt_stdio_output@@@2@@__crt_stdio_output@@AAE_NXZ@PAU1?1??234@AAE_NXZ@@?$standard_base@_WV?$stream_output_adapter@_W@__crt_stdio_output@@@__crt_stdio_output@@IAE_NAAPAUansi_string@?1??type_case_Z@?$output_processor@_WV?$stream_output_adapter@_W@__crt_stdio_output@@V?$standard_base@_WV?$stream_output_adapter@_W@__crt_stdio_output@@@2@@1@AAE_NXZ@@Z 1005bd10 f i libucrt:output.obj
 0001:0005ad2d       ??$extract_argument_from_va_list@PAUansi_string@?1??type_case_Z@?$output_processor@_WV?$string_output_adapter@_W@__crt_stdio_output@@V?$format_validation_base@_WV?$string_output_adapter@_W@__crt_stdio_output@@@2@@__crt_stdio_output@@AAE_NXZ@PAU1?1??234@AAE_NXZ@@?$standard_base@_WV?$string_output_adapter@_W@__crt_stdio_output@@@__crt_stdio_output@@IAE_NAAPAUansi_string@?1??type_case_Z@?$output_processor@_WV?$string_output_adapter@_W@__crt_stdio_output@@V?$format_validation_base@_WV?$string_output_adapter@_W@__crt_stdio_output@@@2@@1@AAE_NXZ@@Z 1005bd2d f i libucrt:output.obj
 0001:0005ad4a       ??$extract_argument_from_va_list@PAUansi_string@?1??type_case_Z@?$output_processor@_WV?$string_output_adapter@_W@__crt_stdio_output@@V?$positional_parameter_base@_WV?$string_output_adapter@_W@__crt_stdio_output@@@2@@__crt_stdio_output@@AAE_NXZ@PAU1?1??234@AAE_NXZ@@?$positional_parameter_base@_WV?$string_output_adapter@_W@__crt_stdio_output@@@__crt_stdio_output@@IAE_NAAPAUansi_string@?1??type_case_Z@?$output_processor@_WV?$string_output_adapter@_W@__crt_stdio_output@@V?$positional_parameter_base@_WV?$string_output_adapter@_W@__crt_stdio_output@@@2@@1@AAE_NXZ@@Z 1005bd4a f i libucrt:output.obj
 0001:0005add9       ??$extract_argument_from_va_list@PAUansi_string@?1??type_case_Z@?$output_processor@_WV?$string_output_adapter@_W@__crt_stdio_output@@V?$positional_parameter_base@_WV?$string_output_adapter@_W@__crt_stdio_output@@@2@@__crt_stdio_output@@AAE_NXZ@PAU1?1??234@AAE_NXZ@@?$standard_base@_WV?$string_output_adapter@_W@__crt_stdio_output@@@__crt_stdio_output@@IAE_NAAPAUansi_string@?1??type_case_Z@?$output_processor@_WV?$string_output_adapter@_W@__crt_stdio_output@@V?$positional_parameter_base@_WV?$string_output_adapter@_W@__crt_stdio_output@@@2@@1@AAE_NXZ@@Z 1005bdd9 f i libucrt:output.obj
 0001:0005adf6       ??$extract_argument_from_va_list@PAUansi_string@?1??type_case_Z@?$output_processor@_WV?$string_output_adapter@_W@__crt_stdio_output@@V?$standard_base@_WV?$string_output_adapter@_W@__crt_stdio_output@@@2@@__crt_stdio_output@@AAE_NXZ@PAU1?1??234@AAE_NXZ@@?$standard_base@_WV?$string_output_adapter@_W@__crt_stdio_output@@@__crt_stdio_output@@IAE_NAAPAUansi_string@?1??type_case_Z@?$output_processor@_WV?$string_output_adapter@_W@__crt_stdio_output@@V?$standard_base@_WV?$string_output_adapter@_W@__crt_stdio_output@@@2@@1@AAE_NXZ@@Z 1005bdf6 f i libucrt:output.obj
 0001:0005ae13       ??$extract_argument_from_va_list@PAXPAX@?$positional_parameter_base@DV?$stream_output_adapter@D@__crt_stdio_output@@@__crt_stdio_output@@IAE_NAAPAX@Z 1005be13 f i libucrt:output.obj
 0001:0005aea1       ??$extract_argument_from_va_list@PAXPAX@?$positional_parameter_base@DV?$string_output_adapter@D@__crt_stdio_output@@@__crt_stdio_output@@IAE_NAAPAX@Z 1005bea1 f i libucrt:output.obj
 0001:0005af2f       ??$extract_argument_from_va_list@PAXPAX@?$positional_parameter_base@_WV?$stream_output_adapter@_W@__crt_stdio_output@@@__crt_stdio_output@@IAE_NAAPAX@Z 1005bf2f f i libucrt:output.obj
 0001:0005afbe       ??$extract_argument_from_va_list@PAXPAX@?$positional_parameter_base@_WV?$string_output_adapter@_W@__crt_stdio_output@@@__crt_stdio_output@@IAE_NAAPAX@Z 1005bfbe f i libucrt:output.obj
 0001:0005b04d       ??$extract_argument_from_va_list@PAXPAX@?$standard_base@DV?$stream_output_adapter@D@__crt_stdio_output@@@__crt_stdio_output@@IAE_NAAPAX@Z 1005c04d f i libucrt:output.obj
 0001:0005b06a       ??$extract_argument_from_va_list@PAXPAX@?$standard_base@DV?$string_output_adapter@D@__crt_stdio_output@@@__crt_stdio_output@@IAE_NAAPAX@Z 1005c06a f i libucrt:output.obj
 0001:0005b087       ??$extract_argument_from_va_list@PAXPAX@?$standard_base@_WV?$stream_output_adapter@_W@__crt_stdio_output@@@__crt_stdio_output@@IAE_NAAPAX@Z 1005c087 f i libucrt:output.obj
 0001:0005b0a4       ??$extract_argument_from_va_list@PAXPAX@?$standard_base@_WV?$string_output_adapter@_W@__crt_stdio_output@@@__crt_stdio_output@@IAE_NAAPAX@Z 1005c0a4 f i libucrt:output.obj
 0001:0005b0c1       ??$extract_argument_from_va_list@U_CRT_DOUBLE@@U1@@?$positional_parameter_base@DV?$stream_output_adapter@D@__crt_stdio_output@@@__crt_stdio_output@@IAE_NAAU_CRT_DOUBLE@@@Z 1005c0c1 f i libucrt:output.obj
 0001:0005b157       ??$extract_argument_from_va_list@U_CRT_DOUBLE@@U1@@?$positional_parameter_base@DV?$string_output_adapter@D@__crt_stdio_output@@@__crt_stdio_output@@IAE_NAAU_CRT_DOUBLE@@@Z 1005c157 f i libucrt:output.obj
 0001:0005b1ed       ??$extract_argument_from_va_list@U_CRT_DOUBLE@@U1@@?$positional_parameter_base@_WV?$stream_output_adapter@_W@__crt_stdio_output@@@__crt_stdio_output@@IAE_NAAU_CRT_DOUBLE@@@Z 1005c1ed f i libucrt:output.obj
 0001:0005b284       ??$extract_argument_from_va_list@U_CRT_DOUBLE@@U1@@?$positional_parameter_base@_WV?$string_output_adapter@_W@__crt_stdio_output@@@__crt_stdio_output@@IAE_NAAU_CRT_DOUBLE@@@Z 1005c284 f i libucrt:output.obj
 0001:0005b31b       ??$extract_argument_from_va_list@U_CRT_DOUBLE@@U1@@?$standard_base@DV?$stream_output_adapter@D@__crt_stdio_output@@@__crt_stdio_output@@IAE_NAAU_CRT_DOUBLE@@@Z 1005c31b f i libucrt:output.obj
 0001:0005b33c       ??$extract_argument_from_va_list@U_CRT_DOUBLE@@U1@@?$standard_base@DV?$string_output_adapter@D@__crt_stdio_output@@@__crt_stdio_output@@IAE_NAAU_CRT_DOUBLE@@@Z 1005c33c f i libucrt:output.obj
 0001:0005b35d       ??$extract_argument_from_va_list@U_CRT_DOUBLE@@U1@@?$standard_base@_WV?$stream_output_adapter@_W@__crt_stdio_output@@@__crt_stdio_output@@IAE_NAAU_CRT_DOUBLE@@@Z 1005c35d f i libucrt:output.obj
 0001:0005b37e       ??$extract_argument_from_va_list@U_CRT_DOUBLE@@U1@@?$standard_base@_WV?$string_output_adapter@_W@__crt_stdio_output@@@__crt_stdio_output@@IAE_NAAU_CRT_DOUBLE@@@Z 1005c37e f i libucrt:output.obj
 0001:0005b39f       ??$extract_argument_from_va_list@_J_J@?$positional_parameter_base@DV?$stream_output_adapter@D@__crt_stdio_output@@@__crt_stdio_output@@IAE_NAA_J@Z 1005c39f f i libucrt:output.obj
 0001:0005b439       ??$extract_argument_from_va_list@_J_J@?$positional_parameter_base@DV?$string_output_adapter@D@__crt_stdio_output@@@__crt_stdio_output@@IAE_NAA_J@Z 1005c439 f i libucrt:output.obj
 0001:0005b4d3       ??$extract_argument_from_va_list@_J_J@?$positional_parameter_base@_WV?$stream_output_adapter@_W@__crt_stdio_output@@@__crt_stdio_output@@IAE_NAA_J@Z 1005c4d3 f i libucrt:output.obj
 0001:0005b56e       ??$extract_argument_from_va_list@_J_J@?$positional_parameter_base@_WV?$string_output_adapter@_W@__crt_stdio_output@@@__crt_stdio_output@@IAE_NAA_J@Z 1005c56e f i libucrt:output.obj
 0001:0005b609       ??$extract_argument_from_va_list@_J_J@?$standard_base@DV?$stream_output_adapter@D@__crt_stdio_output@@@__crt_stdio_output@@IAE_NAA_J@Z 1005c609 f i libucrt:output.obj
 0001:0005b62a       ??$extract_argument_from_va_list@_J_J@?$standard_base@DV?$string_output_adapter@D@__crt_stdio_output@@@__crt_stdio_output@@IAE_NAA_J@Z 1005c62a f i libucrt:output.obj
 0001:0005b64b       ??$extract_argument_from_va_list@_J_J@?$standard_base@_WV?$stream_output_adapter@_W@__crt_stdio_output@@@__crt_stdio_output@@IAE_NAA_J@Z 1005c64b f i libucrt:output.obj
 0001:0005b66c       ??$extract_argument_from_va_list@_J_J@?$standard_base@_WV?$string_output_adapter@_W@__crt_stdio_output@@@__crt_stdio_output@@IAE_NAA_J@Z 1005c66c f i libucrt:output.obj
 0001:0005b68d       ??$extract_argument_from_va_list@_K_J@?$positional_parameter_base@DV?$stream_output_adapter@D@__crt_stdio_output@@@__crt_stdio_output@@IAE_NAA_J@Z 1005c68d f i libucrt:output.obj
 0001:0005b727       ??$extract_argument_from_va_list@_K_J@?$positional_parameter_base@DV?$string_output_adapter@D@__crt_stdio_output@@@__crt_stdio_output@@IAE_NAA_J@Z 1005c727 f i libucrt:output.obj
 0001:0005b7c1       ??$extract_argument_from_va_list@_K_J@?$positional_parameter_base@_WV?$stream_output_adapter@_W@__crt_stdio_output@@@__crt_stdio_output@@IAE_NAA_J@Z 1005c7c1 f i libucrt:output.obj
 0001:0005b85c       ??$extract_argument_from_va_list@_K_J@?$positional_parameter_base@_WV?$string_output_adapter@_W@__crt_stdio_output@@@__crt_stdio_output@@IAE_NAA_J@Z 1005c85c f i libucrt:output.obj
 0001:0005b8f7       ??$extract_argument_from_va_list@_K_J@?$standard_base@DV?$stream_output_adapter@D@__crt_stdio_output@@@__crt_stdio_output@@IAE_NAA_J@Z 1005c8f7 f i libucrt:output.obj
 0001:0005b918       ??$extract_argument_from_va_list@_K_J@?$standard_base@DV?$string_output_adapter@D@__crt_stdio_output@@@__crt_stdio_output@@IAE_NAA_J@Z 1005c918 f i libucrt:output.obj
 0001:0005b939       ??$extract_argument_from_va_list@_K_J@?$standard_base@_WV?$stream_output_adapter@_W@__crt_stdio_output@@@__crt_stdio_output@@IAE_NAA_J@Z 1005c939 f i libucrt:output.obj
 0001:0005b95a       ??$extract_argument_from_va_list@_K_J@?$standard_base@_WV?$string_output_adapter@_W@__crt_stdio_output@@@__crt_stdio_output@@IAE_NAA_J@Z 1005c95a f i libucrt:output.obj
 0001:0005b97b       ??$extract_argument_from_va_list@_W_W@?$positional_parameter_base@DV?$stream_output_adapter@D@__crt_stdio_output@@@__crt_stdio_output@@IAE_NAA_W@Z 1005c97b f i libucrt:output.obj
 0001:0005ba0d       ??$extract_argument_from_va_list@_W_W@?$positional_parameter_base@DV?$string_output_adapter@D@__crt_stdio_output@@@__crt_stdio_output@@IAE_NAA_W@Z 1005ca0d f i libucrt:output.obj
 0001:0005ba9f       ??$extract_argument_from_va_list@_W_W@?$positional_parameter_base@_WV?$stream_output_adapter@_W@__crt_stdio_output@@@__crt_stdio_output@@IAE_NAA_W@Z 1005ca9f f i libucrt:output.obj
 0001:0005bb32       ??$extract_argument_from_va_list@_W_W@?$positional_parameter_base@_WV?$string_output_adapter@_W@__crt_stdio_output@@@__crt_stdio_output@@IAE_NAA_W@Z 1005cb32 f i libucrt:output.obj
 0001:0005bbc5       ??$extract_argument_from_va_list@_W_W@?$standard_base@DV?$stream_output_adapter@D@__crt_stdio_output@@@__crt_stdio_output@@IAE_NAA_W@Z 1005cbc5 f i libucrt:output.obj
 0001:0005bbe4       ??$extract_argument_from_va_list@_W_W@?$standard_base@DV?$string_output_adapter@D@__crt_stdio_output@@@__crt_stdio_output@@IAE_NAA_W@Z 1005cbe4 f i libucrt:output.obj
 0001:0005bc03       ??$extract_argument_from_va_list@_W_W@?$standard_base@_WV?$stream_output_adapter@_W@__crt_stdio_output@@@__crt_stdio_output@@IAE_NAA_W@Z 1005cc03 f i libucrt:output.obj
 0001:0005bc22       ??$extract_argument_from_va_list@_W_W@?$standard_base@_WV?$string_output_adapter@_W@__crt_stdio_output@@@__crt_stdio_output@@IAE_NAA_W@Z 1005cc22 f i libucrt:output.obj
 0001:0005bc41       ??$get_parameter_type@D@?$positional_parameter_base@DV?$stream_output_adapter@D@__crt_stdio_output@@@__crt_stdio_output@@CA?AW4parameter_type@01@PAD@Z 1005cc41 f i libucrt:output.obj
 0001:0005bc45       ??$get_parameter_type@D@?$positional_parameter_base@DV?$string_output_adapter@D@__crt_stdio_output@@@__crt_stdio_output@@CA?AW4parameter_type@01@PAD@Z 1005cc45 f i libucrt:output.obj
 0001:0005bc49       ??$get_parameter_type@D@?$positional_parameter_base@_WV?$stream_output_adapter@_W@__crt_stdio_output@@@__crt_stdio_output@@CA?AW4parameter_type@01@PAD@Z 1005cc49 f i libucrt:output.obj
 0001:0005bc4d       ??$get_parameter_type@D@?$positional_parameter_base@_WV?$string_output_adapter@_W@__crt_stdio_output@@@__crt_stdio_output@@CA?AW4parameter_type@01@PAD@Z 1005cc4d f i libucrt:output.obj
 0001:0005bc51       ??$get_parameter_type@Uansi_string@?1??type_case_Z@?$output_processor@DV?$stream_output_adapter@D@__crt_stdio_output@@V?$positional_parameter_base@DV?$stream_output_adapter@D@__crt_stdio_output@@@2@@__crt_stdio_output@@AAE_NXZ@@?$positional_parameter_base@DV?$stream_output_adapter@D@__crt_stdio_output@@@__crt_stdio_output@@CA?AW4parameter_type@01@PAUansi_string@?1??type_case_Z@?$output_processor@DV?$stream_output_adapter@D@__crt_stdio_output@@V?$positional_parameter_base@DV?$stream_output_adapter@D@__crt_stdio_output@@@2@@1@AAE_NXZ@@Z 1005cc51 f i libucrt:output.obj
 0001:0005bc55       ??$get_parameter_type@Uansi_string@?1??type_case_Z@?$output_processor@DV?$string_output_adapter@D@__crt_stdio_output@@V?$positional_parameter_base@DV?$string_output_adapter@D@__crt_stdio_output@@@2@@__crt_stdio_output@@AAE_NXZ@@?$positional_parameter_base@DV?$string_output_adapter@D@__crt_stdio_output@@@__crt_stdio_output@@CA?AW4parameter_type@01@PAUansi_string@?1??type_case_Z@?$output_processor@DV?$string_output_adapter@D@__crt_stdio_output@@V?$positional_parameter_base@DV?$string_output_adapter@D@__crt_stdio_output@@@2@@1@AAE_NXZ@@Z 1005cc55 f i libucrt:output.obj
 0001:0005bc59       ??$get_parameter_type@Uansi_string@?1??type_case_Z@?$output_processor@_WV?$stream_output_adapter@_W@__crt_stdio_output@@V?$positional_parameter_base@_WV?$stream_output_adapter@_W@__crt_stdio_output@@@2@@__crt_stdio_output@@AAE_NXZ@@?$positional_parameter_base@_WV?$stream_output_adapter@_W@__crt_stdio_output@@@__crt_stdio_output@@CA?AW4parameter_type@01@PAUansi_string@?1??type_case_Z@?$output_processor@_WV?$stream_output_adapter@_W@__crt_stdio_output@@V?$positional_parameter_base@_WV?$stream_output_adapter@_W@__crt_stdio_output@@@2@@1@AAE_NXZ@@Z 1005cc59 f i libucrt:output.obj
 0001:0005bc5d       ??$get_parameter_type@Uansi_string@?1??type_case_Z@?$output_processor@_WV?$string_output_adapter@_W@__crt_stdio_output@@V?$positional_parameter_base@_WV?$string_output_adapter@_W@__crt_stdio_output@@@2@@__crt_stdio_output@@AAE_NXZ@@?$positional_parameter_base@_WV?$string_output_adapter@_W@__crt_stdio_output@@@__crt_stdio_output@@CA?AW4parameter_type@01@PAUansi_string@?1??type_case_Z@?$output_processor@_WV?$string_output_adapter@_W@__crt_stdio_output@@V?$positional_parameter_base@_WV?$string_output_adapter@_W@__crt_stdio_output@@@2@@1@AAE_NXZ@@Z 1005cc5d f i libucrt:output.obj
 0001:0005bc61       ??$get_parameter_type@X@?$positional_parameter_base@DV?$stream_output_adapter@D@__crt_stdio_output@@@__crt_stdio_output@@CA?AW4parameter_type@01@PAX@Z 1005cc61 f i libucrt:output.obj
 0001:0005bc65       ??$get_parameter_type@X@?$positional_parameter_base@DV?$string_output_adapter@D@__crt_stdio_output@@@__crt_stdio_output@@CA?AW4parameter_type@01@PAX@Z 1005cc65 f i libucrt:output.obj
 0001:0005bc69       ??$get_parameter_type@X@?$positional_parameter_base@_WV?$stream_output_adapter@_W@__crt_stdio_output@@@__crt_stdio_output@@CA?AW4parameter_type@01@PAX@Z 1005cc69 f i libucrt:output.obj
 0001:0005bc6d       ??$get_parameter_type@X@?$positional_parameter_base@_WV?$string_output_adapter@_W@__crt_stdio_output@@@__crt_stdio_output@@CA?AW4parameter_type@01@PAX@Z 1005cc6d f i libucrt:output.obj
 0001:0005bc71       ??$is_character_specifier@D@?$positional_parameter_base@DV?$stream_output_adapter@D@__crt_stdio_output@@@__crt_stdio_output@@CA_ND@Z 1005cc71 f i libucrt:output.obj
 0001:0005bc89       ??$is_character_specifier@D@?$positional_parameter_base@DV?$string_output_adapter@D@__crt_stdio_output@@@__crt_stdio_output@@CA_ND@Z 1005cc89 f i libucrt:output.obj
 0001:0005bca1       ??$is_character_specifier@_W@?$positional_parameter_base@_WV?$stream_output_adapter@_W@__crt_stdio_output@@@__crt_stdio_output@@CA_N_W@Z 1005cca1 f i libucrt:output.obj
 0001:0005bcbc       ??$is_character_specifier@_W@?$positional_parameter_base@_WV?$string_output_adapter@_W@__crt_stdio_output@@@__crt_stdio_output@@CA_N_W@Z 1005ccbc f i libucrt:output.obj
 0001:0005bcd7       ??$is_integral_specifier@D@?$positional_parameter_base@DV?$stream_output_adapter@D@__crt_stdio_output@@@__crt_stdio_output@@CA_ND@Z 1005ccd7 f i libucrt:output.obj
 0001:0005bd03       ??$is_integral_specifier@D@?$positional_parameter_base@DV?$string_output_adapter@D@__crt_stdio_output@@@__crt_stdio_output@@CA_ND@Z 1005cd03 f i libucrt:output.obj
 0001:0005bd2f       ??$is_integral_specifier@_W@?$positional_parameter_base@_WV?$stream_output_adapter@_W@__crt_stdio_output@@@__crt_stdio_output@@CA_N_W@Z 1005cd2f f i libucrt:output.obj
 0001:0005bd6a       ??$is_integral_specifier@_W@?$positional_parameter_base@_WV?$string_output_adapter@_W@__crt_stdio_output@@@__crt_stdio_output@@CA_N_W@Z 1005cd6a f i libucrt:output.obj
 0001:0005bda5       ??$is_overflow_condition@K@__crt_strtox@@YA_NIK@Z 1005cda5 f i libucrt:output.obj
 0001:0005bdd9       ??$is_pointer_specifier@D@?$positional_parameter_base@DV?$stream_output_adapter@D@__crt_stdio_output@@@__crt_stdio_output@@CA_ND@Z 1005cdd9 f i libucrt:output.obj
 0001:0005bde7       ??$is_pointer_specifier@D@?$positional_parameter_base@DV?$string_output_adapter@D@__crt_stdio_output@@@__crt_stdio_output@@CA_ND@Z 1005cde7 f i libucrt:output.obj
 0001:0005bdf5       ??$is_pointer_specifier@_W@?$positional_parameter_base@_WV?$stream_output_adapter@_W@__crt_stdio_output@@@__crt_stdio_output@@CA_N_W@Z 1005cdf5 f i libucrt:output.obj
 0001:0005be04       ??$is_pointer_specifier@_W@?$positional_parameter_base@_WV?$string_output_adapter@_W@__crt_stdio_output@@@__crt_stdio_output@@CA_N_W@Z 1005ce04 f i libucrt:output.obj
 0001:0005be13       ??$is_string_specifier@D@?$positional_parameter_base@DV?$stream_output_adapter@D@__crt_stdio_output@@@__crt_stdio_output@@CA_ND@Z 1005ce13 f i libucrt:output.obj
 0001:0005be2b       ??$is_string_specifier@D@?$positional_parameter_base@DV?$string_output_adapter@D@__crt_stdio_output@@@__crt_stdio_output@@CA_ND@Z 1005ce2b f i libucrt:output.obj
 0001:0005be43       ??$is_string_specifier@_W@?$positional_parameter_base@_WV?$stream_output_adapter@_W@__crt_stdio_output@@@__crt_stdio_output@@CA_N_W@Z 1005ce43 f i libucrt:output.obj
 0001:0005be5e       ??$is_string_specifier@_W@?$positional_parameter_base@_WV?$string_output_adapter@_W@__crt_stdio_output@@@__crt_stdio_output@@CA_N_W@Z 1005ce5e f i libucrt:output.obj
 0001:0005be79       ??$is_wide_character_specifier@D@__crt_stdio_output@@YA_N_KDW4length_modifier@0@@Z 1005ce79 f i libucrt:output.obj
 0001:0005beaa       ??$is_wide_character_specifier@_W@__crt_stdio_output@@YA_N_K_WW4length_modifier@0@@Z 1005ceaa f i libucrt:output.obj
 0001:0005bef8       ??$make_c_string_character_source@DPAPAD@__crt_strtox@@YA?AV?$c_string_character_source@D@0@QBDQAPAD@Z 1005cef8 f i libucrt:output.obj
 0001:0005bf13       ??$make_c_string_character_source@_WPAPA_W@__crt_strtox@@YA?AV?$c_string_character_source@_W@0@QB_WQAPA_W@Z 1005cf13 f i libucrt:output.obj
 0001:0005bf2e       ??$parse_integer@KV?$c_string_character_source@D@__crt_strtox@@$0A@@__crt_strtox@@YAKAAV__crt_cached_ptd_host@@V?$c_string_character_source@D@0@H_N@Z 1005cf2e f i libucrt:output.obj
 0001:0005c141       ??$parse_integer@KV?$c_string_character_source@_W@__crt_strtox@@$0A@@__crt_strtox@@YAKAAV__crt_cached_ptd_host@@V?$c_string_character_source@_W@0@H_N@Z 1005d141 f i libucrt:output.obj
 0001:0005c725       ??$peek_va_arg@C@__crt_stdio_output@@YACPAD@Z 1005d725 f i libucrt:output.obj
 0001:0005c731       ??$peek_va_arg@E@__crt_stdio_output@@YAEPAD@Z 1005d731 f i libucrt:output.obj
 0001:0005c73d       ??$peek_va_arg@F@__crt_stdio_output@@YAFPAD@Z 1005d73d f i libucrt:output.obj
 0001:0005c74a       ??$peek_va_arg@G@__crt_stdio_output@@YAGPAD@Z 1005d74a f i libucrt:output.obj
 0001:0005c757       ??$peek_va_arg@H@__crt_stdio_output@@YAHPAD@Z 1005d757 f i libucrt:output.obj
 0001:0005c763       ??$peek_va_arg@I@__crt_stdio_output@@YAIPAD@Z 1005d763 f i libucrt:output.obj
 0001:0005c76f       ??$peek_va_arg@PAD@__crt_stdio_output@@YAPADPAD@Z 1005d76f f i libucrt:output.obj
 0001:0005c77b       ??$peek_va_arg@PAUansi_string@?1??type_case_Z@?$output_processor@DV?$stream_output_adapter@D@__crt_stdio_output@@V?$positional_parameter_base@DV?$stream_output_adapter@D@__crt_stdio_output@@@2@@__crt_stdio_output@@AAE_NXZ@@__crt_stdio_output@@YAPAUansi_string@?1??type_case_Z@?$output_processor@DV?$stream_output_adapter@D@__crt_stdio_output@@V?$positional_parameter_base@DV?$stream_output_adapter@D@__crt_stdio_output@@@2@@0@AAE_NXZ@PAD@Z 1005d77b f i libucrt:output.obj
 0001:0005c787       ??$peek_va_arg@PAUansi_string@?1??type_case_Z@?$output_processor@DV?$string_output_adapter@D@__crt_stdio_output@@V?$positional_parameter_base@DV?$string_output_adapter@D@__crt_stdio_output@@@2@@__crt_stdio_output@@AAE_NXZ@@__crt_stdio_output@@YAPAUansi_string@?1??type_case_Z@?$output_processor@DV?$string_output_adapter@D@__crt_stdio_output@@V?$positional_parameter_base@DV?$string_output_adapter@D@__crt_stdio_output@@@2@@0@AAE_NXZ@PAD@Z 1005d787 f i libucrt:output.obj
 0001:0005c793       ??$peek_va_arg@PAUansi_string@?1??type_case_Z@?$output_processor@_WV?$stream_output_adapter@_W@__crt_stdio_output@@V?$positional_parameter_base@_WV?$stream_output_adapter@_W@__crt_stdio_output@@@2@@__crt_stdio_output@@AAE_NXZ@@__crt_stdio_output@@YAPAUansi_string@?1??type_case_Z@?$output_processor@_WV?$stream_output_adapter@_W@__crt_stdio_output@@V?$positional_parameter_base@_WV?$stream_output_adapter@_W@__crt_stdio_output@@@2@@0@AAE_NXZ@PAD@Z 1005d793 f i libucrt:output.obj
 0001:0005c79f       ??$peek_va_arg@PAUansi_string@?1??type_case_Z@?$output_processor@_WV?$string_output_adapter@_W@__crt_stdio_output@@V?$positional_parameter_base@_WV?$string_output_adapter@_W@__crt_stdio_output@@@2@@__crt_stdio_output@@AAE_NXZ@@__crt_stdio_output@@YAPAUansi_string@?1??type_case_Z@?$output_processor@_WV?$string_output_adapter@_W@__crt_stdio_output@@V?$positional_parameter_base@_WV?$string_output_adapter@_W@__crt_stdio_output@@@2@@0@AAE_NXZ@PAD@Z 1005d79f f i libucrt:output.obj
 0001:0005c7ab       ??$peek_va_arg@PAX@__crt_stdio_output@@YAPAXPAD@Z 1005d7ab f i libucrt:output.obj
 0001:0005c7b7       ??$peek_va_arg@U_CRT_DOUBLE@@@__crt_stdio_output@@YA?AU_CRT_DOUBLE@@PAD@Z 1005d7b7 f i libucrt:output.obj
 0001:0005c7c6       ??$peek_va_arg@_J@__crt_stdio_output@@YA_JPAD@Z 1005d7c6 f i libucrt:output.obj
 0001:0005c7d5       ??$peek_va_arg@_K@__crt_stdio_output@@YA_KPAD@Z 1005d7d5 f i libucrt:output.obj
 0001:0005c7e4       ??$peek_va_arg@_W@__crt_stdio_output@@YA_WPAD@Z 1005d7e4 f i libucrt:output.obj
 0001:0005c7f1       ??$puttc_nolock_internal@ABDPAU_iobuf@@AAV__crt_cached_ptd_host@@@?$__crt_char_traits@D@@SAHABD$$QAPAU_iobuf@@AAV__crt_cached_ptd_host@@@Z 1005d7f1 f i libucrt:output.obj
 0001:0005c80f       ??$puttc_nolock_internal@AB_WPAU_iobuf@@AAV__crt_cached_ptd_host@@@?$__crt_char_traits@_W@@SAGAB_W$$QAPAU_iobuf@@AAV__crt_cached_ptd_host@@@Z 1005d80f f i libucrt:output.obj
 0001:0005c82d       ??$read_va_arg@C@__crt_stdio_output@@YACAAPAD@Z 1005d82d f i libucrt:output.obj
 0001:0005c840       ??$read_va_arg@E@__crt_stdio_output@@YAEAAPAD@Z 1005d840 f i libucrt:output.obj
 0001:0005c853       ??$read_va_arg@F@__crt_stdio_output@@YAFAAPAD@Z 1005d853 f i libucrt:output.obj
 0001:0005c867       ??$read_va_arg@G@__crt_stdio_output@@YAGAAPAD@Z 1005d867 f i libucrt:output.obj
 0001:0005c87b       ??$read_va_arg@H@__crt_stdio_output@@YAHAAPAD@Z 1005d87b f i libucrt:output.obj
 0001:0005c88e       ??$read_va_arg@I@__crt_stdio_output@@YAIAAPAD@Z 1005d88e f i libucrt:output.obj
 0001:0005c8a1       ??$read_va_arg@PAD@__crt_stdio_output@@YAPADAAPAD@Z 1005d8a1 f i libucrt:output.obj
 0001:0005c8b4       ??$read_va_arg@PAUansi_string@?1??type_case_Z@?$output_processor@DV?$stream_output_adapter@D@__crt_stdio_output@@V?$format_validation_base@DV?$stream_output_adapter@D@__crt_stdio_output@@@2@@__crt_stdio_output@@AAE_NXZ@@__crt_stdio_output@@YAPAUansi_string@?1??type_case_Z@?$output_processor@DV?$stream_output_adapter@D@__crt_stdio_output@@V?$format_validation_base@DV?$stream_output_adapter@D@__crt_stdio_output@@@2@@0@AAE_NXZ@AAPAD@Z 1005d8b4 f i libucrt:output.obj
 0001:0005c8c7       ??$read_va_arg@PAUansi_string@?1??type_case_Z@?$output_processor@DV?$stream_output_adapter@D@__crt_stdio_output@@V?$positional_parameter_base@DV?$stream_output_adapter@D@__crt_stdio_output@@@2@@__crt_stdio_output@@AAE_NXZ@@__crt_stdio_output@@YAPAUansi_string@?1??type_case_Z@?$output_processor@DV?$stream_output_adapter@D@__crt_stdio_output@@V?$positional_parameter_base@DV?$stream_output_adapter@D@__crt_stdio_output@@@2@@0@AAE_NXZ@AAPAD@Z 1005d8c7 f i libucrt:output.obj
 0001:0005c8da       ??$read_va_arg@PAUansi_string@?1??type_case_Z@?$output_processor@DV?$stream_output_adapter@D@__crt_stdio_output@@V?$standard_base@DV?$stream_output_adapter@D@__crt_stdio_output@@@2@@__crt_stdio_output@@AAE_NXZ@@__crt_stdio_output@@YAPAUansi_string@?1??type_case_Z@?$output_processor@DV?$stream_output_adapter@D@__crt_stdio_output@@V?$standard_base@DV?$stream_output_adapter@D@__crt_stdio_output@@@2@@0@AAE_NXZ@AAPAD@Z 1005d8da f i libucrt:output.obj
 0001:0005c8ed       ??$read_va_arg@PAUansi_string@?1??type_case_Z@?$output_processor@DV?$string_output_adapter@D@__crt_stdio_output@@V?$format_validation_base@DV?$string_output_adapter@D@__crt_stdio_output@@@2@@__crt_stdio_output@@AAE_NXZ@@__crt_stdio_output@@YAPAUansi_string@?1??type_case_Z@?$output_processor@DV?$string_output_adapter@D@__crt_stdio_output@@V?$format_validation_base@DV?$string_output_adapter@D@__crt_stdio_output@@@2@@0@AAE_NXZ@AAPAD@Z 1005d8ed f i libucrt:output.obj
 0001:0005c900       ??$read_va_arg@PAUansi_string@?1??type_case_Z@?$output_processor@DV?$string_output_adapter@D@__crt_stdio_output@@V?$positional_parameter_base@DV?$string_output_adapter@D@__crt_stdio_output@@@2@@__crt_stdio_output@@AAE_NXZ@@__crt_stdio_output@@YAPAUansi_string@?1??type_case_Z@?$output_processor@DV?$string_output_adapter@D@__crt_stdio_output@@V?$positional_parameter_base@DV?$string_output_adapter@D@__crt_stdio_output@@@2@@0@AAE_NXZ@AAPAD@Z 1005d900 f i libucrt:output.obj
 0001:0005c913       ??$read_va_arg@PAUansi_string@?1??type_case_Z@?$output_processor@DV?$string_output_adapter@D@__crt_stdio_output@@V?$standard_base@DV?$string_output_adapter@D@__crt_stdio_output@@@2@@__crt_stdio_output@@AAE_NXZ@@__crt_stdio_output@@YAPAUansi_string@?1??type_case_Z@?$output_processor@DV?$string_output_adapter@D@__crt_stdio_output@@V?$standard_base@DV?$string_output_adapter@D@__crt_stdio_output@@@2@@0@AAE_NXZ@AAPAD@Z 1005d913 f i libucrt:output.obj
 0001:0005c926       ??$read_va_arg@PAUansi_string@?1??type_case_Z@?$output_processor@_WV?$stream_output_adapter@_W@__crt_stdio_output@@V?$format_validation_base@_WV?$stream_output_adapter@_W@__crt_stdio_output@@@2@@__crt_stdio_output@@AAE_NXZ@@__crt_stdio_output@@YAPAUansi_string@?1??type_case_Z@?$output_processor@_WV?$stream_output_adapter@_W@__crt_stdio_output@@V?$format_validation_base@_WV?$stream_output_adapter@_W@__crt_stdio_output@@@2@@0@AAE_NXZ@AAPAD@Z 1005d926 f i libucrt:output.obj
 0001:0005c939       ??$read_va_arg@PAUansi_string@?1??type_case_Z@?$output_processor@_WV?$stream_output_adapter@_W@__crt_stdio_output@@V?$positional_parameter_base@_WV?$stream_output_adapter@_W@__crt_stdio_output@@@2@@__crt_stdio_output@@AAE_NXZ@@__crt_stdio_output@@YAPAUansi_string@?1??type_case_Z@?$output_processor@_WV?$stream_output_adapter@_W@__crt_stdio_output@@V?$positional_parameter_base@_WV?$stream_output_adapter@_W@__crt_stdio_output@@@2@@0@AAE_NXZ@AAPAD@Z 1005d939 f i libucrt:output.obj
 0001:0005c94c       ??$read_va_arg@PAUansi_string@?1??type_case_Z@?$output_processor@_WV?$stream_output_adapter@_W@__crt_stdio_output@@V?$standard_base@_WV?$stream_output_adapter@_W@__crt_stdio_output@@@2@@__crt_stdio_output@@AAE_NXZ@@__crt_stdio_output@@YAPAUansi_string@?1??type_case_Z@?$output_processor@_WV?$stream_output_adapter@_W@__crt_stdio_output@@V?$standard_base@_WV?$stream_output_adapter@_W@__crt_stdio_output@@@2@@0@AAE_NXZ@AAPAD@Z 1005d94c f i libucrt:output.obj
 0001:0005c95f       ??$read_va_arg@PAUansi_string@?1??type_case_Z@?$output_processor@_WV?$string_output_adapter@_W@__crt_stdio_output@@V?$format_validation_base@_WV?$string_output_adapter@_W@__crt_stdio_output@@@2@@__crt_stdio_output@@AAE_NXZ@@__crt_stdio_output@@YAPAUansi_string@?1??type_case_Z@?$output_processor@_WV?$string_output_adapter@_W@__crt_stdio_output@@V?$format_validation_base@_WV?$string_output_adapter@_W@__crt_stdio_output@@@2@@0@AAE_NXZ@AAPAD@Z 1005d95f f i libucrt:output.obj
 0001:0005c972       ??$read_va_arg@PAUansi_string@?1??type_case_Z@?$output_processor@_WV?$string_output_adapter@_W@__crt_stdio_output@@V?$positional_parameter_base@_WV?$string_output_adapter@_W@__crt_stdio_output@@@2@@__crt_stdio_output@@AAE_NXZ@@__crt_stdio_output@@YAPAUansi_string@?1??type_case_Z@?$output_processor@_WV?$string_output_adapter@_W@__crt_stdio_output@@V?$positional_parameter_base@_WV?$string_output_adapter@_W@__crt_stdio_output@@@2@@0@AAE_NXZ@AAPAD@Z 1005d972 f i libucrt:output.obj
 0001:0005c985       ??$read_va_arg@PAUansi_string@?1??type_case_Z@?$output_processor@_WV?$string_output_adapter@_W@__crt_stdio_output@@V?$standard_base@_WV?$string_output_adapter@_W@__crt_stdio_output@@@2@@__crt_stdio_output@@AAE_NXZ@@__crt_stdio_output@@YAPAUansi_string@?1??type_case_Z@?$output_processor@_WV?$string_output_adapter@_W@__crt_stdio_output@@V?$standard_base@_WV?$string_output_adapter@_W@__crt_stdio_output@@@2@@0@AAE_NXZ@AAPAD@Z 1005d985 f i libucrt:output.obj
 0001:0005c998       ??$read_va_arg@PAX@__crt_stdio_output@@YAPAXAAPAD@Z 1005d998 f i libucrt:output.obj
 0001:0005c9ab       ??$read_va_arg@U_CRT_DOUBLE@@@__crt_stdio_output@@YA?AU_CRT_DOUBLE@@AAPAD@Z 1005d9ab f i libucrt:output.obj
 0001:0005c9c1       ??$read_va_arg@_J@__crt_stdio_output@@YA_JAAPAD@Z 1005d9c1 f i libucrt:output.obj
 0001:0005c9d7       ??$read_va_arg@_K@__crt_stdio_output@@YA_KAAPAD@Z 1005d9d7 f i libucrt:output.obj
 0001:0005c9ed       ??$read_va_arg@_W@__crt_stdio_output@@YA_WAAPAD@Z 1005d9ed f i libucrt:output.obj
 0001:0005ca01       ??$scratch_count@D@formatting_buffer@__crt_stdio_output@@QBEIXZ 1005da01 f i libucrt:output.obj
 0001:0005ca06       ??$scratch_data@D@formatting_buffer@__crt_stdio_output@@QAEPADXZ 1005da06 f i libucrt:output.obj
 0001:0005ca24       ??$type_case_integer@$07@?$output_processor@DV?$stream_output_adapter@D@__crt_stdio_output@@V?$format_validation_base@DV?$stream_output_adapter@D@__crt_stdio_output@@@2@@__crt_stdio_output@@AAE_N_N@Z 1005da24 f i libucrt:output.obj
 0001:0005cbb1       ??$type_case_integer@$07@?$output_processor@DV?$stream_output_adapter@D@__crt_stdio_output@@V?$positional_parameter_base@DV?$stream_output_adapter@D@__crt_stdio_output@@@2@@__crt_stdio_output@@AAE_N_N@Z 1005dbb1 f i libucrt:output.obj
 0001:0005cd5c       ??$type_case_integer@$07@?$output_processor@DV?$stream_output_adapter@D@__crt_stdio_output@@V?$standard_base@DV?$stream_output_adapter@D@__crt_stdio_output@@@2@@__crt_stdio_output@@AAE_N_N@Z 1005dd5c f i libucrt:output.obj
 0001:0005cee9       ??$type_case_integer@$07@?$output_processor@DV?$string_output_adapter@D@__crt_stdio_output@@V?$format_validation_base@DV?$string_output_adapter@D@__crt_stdio_output@@@2@@__crt_stdio_output@@AAE_N_N@Z 1005dee9 f i libucrt:output.obj
 0001:0005d076       ??$type_case_integer@$07@?$output_processor@DV?$string_output_adapter@D@__crt_stdio_output@@V?$positional_parameter_base@DV?$string_output_adapter@D@__crt_stdio_output@@@2@@__crt_stdio_output@@AAE_N_N@Z 1005e076 f i libucrt:output.obj
 0001:0005d221       ??$type_case_integer@$07@?$output_processor@DV?$string_output_adapter@D@__crt_stdio_output@@V?$standard_base@DV?$string_output_adapter@D@__crt_stdio_output@@@2@@__crt_stdio_output@@AAE_N_N@Z 1005e221 f i libucrt:output.obj
 0001:0005d3ae       ??$type_case_integer@$07@?$output_processor@_WV?$stream_output_adapter@_W@__crt_stdio_output@@V?$format_validation_base@_WV?$stream_output_adapter@_W@__crt_stdio_output@@@2@@__crt_stdio_output@@AAE_N_N@Z 1005e3ae f i libucrt:output.obj
 0001:0005d540       ??$type_case_integer@$07@?$output_processor@_WV?$stream_output_adapter@_W@__crt_stdio_output@@V?$positional_parameter_base@_WV?$stream_output_adapter@_W@__crt_stdio_output@@@2@@__crt_stdio_output@@AAE_N_N@Z 1005e540 f i libucrt:output.obj
 0001:0005d6f0       ??$type_case_integer@$07@?$output_processor@_WV?$stream_output_adapter@_W@__crt_stdio_output@@V?$standard_base@_WV?$stream_output_adapter@_W@__crt_stdio_output@@@2@@__crt_stdio_output@@AAE_N_N@Z 1005e6f0 f i libucrt:output.obj
 0001:0005d882       ??$type_case_integer@$07@?$output_processor@_WV?$string_output_adapter@_W@__crt_stdio_output@@V?$format_validation_base@_WV?$string_output_adapter@_W@__crt_stdio_output@@@2@@__crt_stdio_output@@AAE_N_N@Z 1005e882 f i libucrt:output.obj
 0001:0005da14       ??$type_case_integer@$07@?$output_processor@_WV?$string_output_adapter@_W@__crt_stdio_output@@V?$positional_parameter_base@_WV?$string_output_adapter@_W@__crt_stdio_output@@@2@@__crt_stdio_output@@AAE_N_N@Z 1005ea14 f i libucrt:output.obj
 0001:0005dbc4       ??$type_case_integer@$07@?$output_processor@_WV?$string_output_adapter@_W@__crt_stdio_output@@V?$standard_base@_WV?$string_output_adapter@_W@__crt_stdio_output@@@2@@__crt_stdio_output@@AAE_N_N@Z 1005ebc4 f i libucrt:output.obj
 0001:0005dd56       ??$type_case_integer@$09@?$output_processor@DV?$stream_output_adapter@D@__crt_stdio_output@@V?$format_validation_base@DV?$stream_output_adapter@D@__crt_stdio_output@@@2@@__crt_stdio_output@@AAE_N_N@Z 1005ed56 f i libucrt:output.obj
 0001:0005dee3       ??$type_case_integer@$09@?$output_processor@DV?$stream_output_adapter@D@__crt_stdio_output@@V?$positional_parameter_base@DV?$stream_output_adapter@D@__crt_stdio_output@@@2@@__crt_stdio_output@@AAE_N_N@Z 1005eee3 f i libucrt:output.obj
 0001:0005e08e       ??$type_case_integer@$09@?$output_processor@DV?$stream_output_adapter@D@__crt_stdio_output@@V?$standard_base@DV?$stream_output_adapter@D@__crt_stdio_output@@@2@@__crt_stdio_output@@AAE_N_N@Z 1005f08e f i libucrt:output.obj
 0001:0005e21b       ??$type_case_integer@$09@?$output_processor@DV?$string_output_adapter@D@__crt_stdio_output@@V?$format_validation_base@DV?$string_output_adapter@D@__crt_stdio_output@@@2@@__crt_stdio_output@@AAE_N_N@Z 1005f21b f i libucrt:output.obj
 0001:0005e3a8       ??$type_case_integer@$09@?$output_processor@DV?$string_output_adapter@D@__crt_stdio_output@@V?$positional_parameter_base@DV?$string_output_adapter@D@__crt_stdio_output@@@2@@__crt_stdio_output@@AAE_N_N@Z 1005f3a8 f i libucrt:output.obj
 0001:0005e553       ??$type_case_integer@$09@?$output_processor@DV?$string_output_adapter@D@__crt_stdio_output@@V?$standard_base@DV?$string_output_adapter@D@__crt_stdio_output@@@2@@__crt_stdio_output@@AAE_N_N@Z 1005f553 f i libucrt:output.obj
 0001:0005e6e0       ??$type_case_integer@$09@?$output_processor@_WV?$stream_output_adapter@_W@__crt_stdio_output@@V?$format_validation_base@_WV?$stream_output_adapter@_W@__crt_stdio_output@@@2@@__crt_stdio_output@@AAE_N_N@Z 1005f6e0 f i libucrt:output.obj
 0001:0005e872       ??$type_case_integer@$09@?$output_processor@_WV?$stream_output_adapter@_W@__crt_stdio_output@@V?$positional_parameter_base@_WV?$stream_output_adapter@_W@__crt_stdio_output@@@2@@__crt_stdio_output@@AAE_N_N@Z 1005f872 f i libucrt:output.obj
 0001:0005ea22       ??$type_case_integer@$09@?$output_processor@_WV?$stream_output_adapter@_W@__crt_stdio_output@@V?$standard_base@_WV?$stream_output_adapter@_W@__crt_stdio_output@@@2@@__crt_stdio_output@@AAE_N_N@Z 1005fa22 f i libucrt:output.obj
 0001:0005ebb4       ??$type_case_integer@$09@?$output_processor@_WV?$string_output_adapter@_W@__crt_stdio_output@@V?$format_validation_base@_WV?$string_output_adapter@_W@__crt_stdio_output@@@2@@__crt_stdio_output@@AAE_N_N@Z 1005fbb4 f i libucrt:output.obj
 0001:0005ed46       ??$type_case_integer@$09@?$output_processor@_WV?$string_output_adapter@_W@__crt_stdio_output@@V?$positional_parameter_base@_WV?$string_output_adapter@_W@__crt_stdio_output@@@2@@__crt_stdio_output@@AAE_N_N@Z 1005fd46 f i libucrt:output.obj
 0001:0005eef6       ??$type_case_integer@$09@?$output_processor@_WV?$string_output_adapter@_W@__crt_stdio_output@@V?$standard_base@_WV?$string_output_adapter@_W@__crt_stdio_output@@@2@@__crt_stdio_output@@AAE_N_N@Z 1005fef6 f i libucrt:output.obj
 0001:0005f088       ??$type_case_integer@$0BA@@?$output_processor@DV?$stream_output_adapter@D@__crt_stdio_output@@V?$format_validation_base@DV?$stream_output_adapter@D@__crt_stdio_output@@@2@@__crt_stdio_output@@AAE_N_N@Z 10060088 f i libucrt:output.obj
 0001:0005f215       ??$type_case_integer@$0BA@@?$output_processor@DV?$stream_output_adapter@D@__crt_stdio_output@@V?$positional_parameter_base@DV?$stream_output_adapter@D@__crt_stdio_output@@@2@@__crt_stdio_output@@AAE_N_N@Z 10060215 f i libucrt:output.obj
 0001:0005f3c0       ??$type_case_integer@$0BA@@?$output_processor@DV?$stream_output_adapter@D@__crt_stdio_output@@V?$standard_base@DV?$stream_output_adapter@D@__crt_stdio_output@@@2@@__crt_stdio_output@@AAE_N_N@Z 100603c0 f i libucrt:output.obj
 0001:0005f54d       ??$type_case_integer@$0BA@@?$output_processor@DV?$string_output_adapter@D@__crt_stdio_output@@V?$format_validation_base@DV?$string_output_adapter@D@__crt_stdio_output@@@2@@__crt_stdio_output@@AAE_N_N@Z 1006054d f i libucrt:output.obj
 0001:0005f6da       ??$type_case_integer@$0BA@@?$output_processor@DV?$string_output_adapter@D@__crt_stdio_output@@V?$positional_parameter_base@DV?$string_output_adapter@D@__crt_stdio_output@@@2@@__crt_stdio_output@@AAE_N_N@Z 100606da f i libucrt:output.obj
 0001:0005f885       ??$type_case_integer@$0BA@@?$output_processor@DV?$string_output_adapter@D@__crt_stdio_output@@V?$standard_base@DV?$string_output_adapter@D@__crt_stdio_output@@@2@@__crt_stdio_output@@AAE_N_N@Z 10060885 f i libucrt:output.obj
 0001:0005fa12       ??$type_case_integer@$0BA@@?$output_processor@_WV?$stream_output_adapter@_W@__crt_stdio_output@@V?$format_validation_base@_WV?$stream_output_adapter@_W@__crt_stdio_output@@@2@@__crt_stdio_output@@AAE_N_N@Z 10060a12 f i libucrt:output.obj
 0001:0005fba4       ??$type_case_integer@$0BA@@?$output_processor@_WV?$stream_output_adapter@_W@__crt_stdio_output@@V?$positional_parameter_base@_WV?$stream_output_adapter@_W@__crt_stdio_output@@@2@@__crt_stdio_output@@AAE_N_N@Z 10060ba4 f i libucrt:output.obj
 0001:0005fd54       ??$type_case_integer@$0BA@@?$output_processor@_WV?$stream_output_adapter@_W@__crt_stdio_output@@V?$standard_base@_WV?$stream_output_adapter@_W@__crt_stdio_output@@@2@@__crt_stdio_output@@AAE_N_N@Z 10060d54 f i libucrt:output.obj
 0001:0005fee6       ??$type_case_integer@$0BA@@?$output_processor@_WV?$string_output_adapter@_W@__crt_stdio_output@@V?$format_validation_base@_WV?$string_output_adapter@_W@__crt_stdio_output@@@2@@__crt_stdio_output@@AAE_N_N@Z 10060ee6 f i libucrt:output.obj
 0001:00060078       ??$type_case_integer@$0BA@@?$output_processor@_WV?$string_output_adapter@_W@__crt_stdio_output@@V?$positional_parameter_base@_WV?$string_output_adapter@_W@__crt_stdio_output@@@2@@__crt_stdio_output@@AAE_N_N@Z 10061078 f i libucrt:output.obj
 0001:00060228       ??$type_case_integer@$0BA@@?$output_processor@_WV?$string_output_adapter@_W@__crt_stdio_output@@V?$standard_base@_WV?$string_output_adapter@_W@__crt_stdio_output@@@2@@__crt_stdio_output@@AAE_N_N@Z 10061228 f i libucrt:output.obj
 0001:000603ba       ??$type_case_integer_parse_into_buffer@I$07@?$output_processor@DV?$stream_output_adapter@D@__crt_stdio_output@@V?$format_validation_base@DV?$stream_output_adapter@D@__crt_stdio_output@@@2@@__crt_stdio_output@@AAEXI_N@Z 100613ba f i libucrt:output.obj
 0001:0006041c       ??$type_case_integer_parse_into_buffer@I$07@?$output_processor@DV?$stream_output_adapter@D@__crt_stdio_output@@V?$positional_parameter_base@DV?$stream_output_adapter@D@__crt_stdio_output@@@2@@__crt_stdio_output@@AAEXI_N@Z 1006141c f i libucrt:output.obj
 0001:0006047e       ??$type_case_integer_parse_into_buffer@I$07@?$output_processor@DV?$stream_output_adapter@D@__crt_stdio_output@@V?$standard_base@DV?$stream_output_adapter@D@__crt_stdio_output@@@2@@__crt_stdio_output@@AAEXI_N@Z 1006147e f i libucrt:output.obj
 0001:000604e0       ??$type_case_integer_parse_into_buffer@I$07@?$output_processor@DV?$string_output_adapter@D@__crt_stdio_output@@V?$format_validation_base@DV?$string_output_adapter@D@__crt_stdio_output@@@2@@__crt_stdio_output@@AAEXI_N@Z 100614e0 f i libucrt:output.obj
 0001:00060542       ??$type_case_integer_parse_into_buffer@I$07@?$output_processor@DV?$string_output_adapter@D@__crt_stdio_output@@V?$positional_parameter_base@DV?$string_output_adapter@D@__crt_stdio_output@@@2@@__crt_stdio_output@@AAEXI_N@Z 10061542 f i libucrt:output.obj
 0001:000605a4       ??$type_case_integer_parse_into_buffer@I$07@?$output_processor@DV?$string_output_adapter@D@__crt_stdio_output@@V?$standard_base@DV?$string_output_adapter@D@__crt_stdio_output@@@2@@__crt_stdio_output@@AAEXI_N@Z 100615a4 f i libucrt:output.obj
 0001:00060606       ??$type_case_integer_parse_into_buffer@I$07@?$output_processor@_WV?$stream_output_adapter@_W@__crt_stdio_output@@V?$format_validation_base@_WV?$stream_output_adapter@_W@__crt_stdio_output@@@2@@__crt_stdio_output@@AAEXI_N@Z 10061606 f i libucrt:output.obj
 0001:00060677       ??$type_case_integer_parse_into_buffer@I$07@?$output_processor@_WV?$stream_output_adapter@_W@__crt_stdio_output@@V?$positional_parameter_base@_WV?$stream_output_adapter@_W@__crt_stdio_output@@@2@@__crt_stdio_output@@AAEXI_N@Z 10061677 f i libucrt:output.obj
 0001:000606e8       ??$type_case_integer_parse_into_buffer@I$07@?$output_processor@_WV?$stream_output_adapter@_W@__crt_stdio_output@@V?$standard_base@_WV?$stream_output_adapter@_W@__crt_stdio_output@@@2@@__crt_stdio_output@@AAEXI_N@Z 100616e8 f i libucrt:output.obj
 0001:00060759       ??$type_case_integer_parse_into_buffer@I$07@?$output_processor@_WV?$string_output_adapter@_W@__crt_stdio_output@@V?$format_validation_base@_WV?$string_output_adapter@_W@__crt_stdio_output@@@2@@__crt_stdio_output@@AAEXI_N@Z 10061759 f i libucrt:output.obj
 0001:000607ca       ??$type_case_integer_parse_into_buffer@I$07@?$output_processor@_WV?$string_output_adapter@_W@__crt_stdio_output@@V?$positional_parameter_base@_WV?$string_output_adapter@_W@__crt_stdio_output@@@2@@__crt_stdio_output@@AAEXI_N@Z 100617ca f i libucrt:output.obj
 0001:0006083b       ??$type_case_integer_parse_into_buffer@I$07@?$output_processor@_WV?$string_output_adapter@_W@__crt_stdio_output@@V?$standard_base@_WV?$string_output_adapter@_W@__crt_stdio_output@@@2@@__crt_stdio_output@@AAEXI_N@Z 1006183b f i libucrt:output.obj
 0001:000608ac       ??$type_case_integer_parse_into_buffer@I$09@?$output_processor@DV?$stream_output_adapter@D@__crt_stdio_output@@V?$format_validation_base@DV?$stream_output_adapter@D@__crt_stdio_output@@@2@@__crt_stdio_output@@AAEXI_N@Z 100618ac f i libucrt:output.obj
 0001:0006092b       ??$type_case_integer_parse_into_buffer@I$09@?$output_processor@DV?$stream_output_adapter@D@__crt_stdio_output@@V?$positional_parameter_base@DV?$stream_output_adapter@D@__crt_stdio_output@@@2@@__crt_stdio_output@@AAEXI_N@Z 1006192b f i libucrt:output.obj
 0001:000609aa       ??$type_case_integer_parse_into_buffer@I$09@?$output_processor@DV?$stream_output_adapter@D@__crt_stdio_output@@V?$standard_base@DV?$stream_output_adapter@D@__crt_stdio_output@@@2@@__crt_stdio_output@@AAEXI_N@Z 100619aa f i libucrt:output.obj
 0001:00060a29       ??$type_case_integer_parse_into_buffer@I$09@?$output_processor@DV?$string_output_adapter@D@__crt_stdio_output@@V?$format_validation_base@DV?$string_output_adapter@D@__crt_stdio_output@@@2@@__crt_stdio_output@@AAEXI_N@Z 10061a29 f i libucrt:output.obj
 0001:00060aa8       ??$type_case_integer_parse_into_buffer@I$09@?$output_processor@DV?$string_output_adapter@D@__crt_stdio_output@@V?$positional_parameter_base@DV?$string_output_adapter@D@__crt_stdio_output@@@2@@__crt_stdio_output@@AAEXI_N@Z 10061aa8 f i libucrt:output.obj
 0001:00060b27       ??$type_case_integer_parse_into_buffer@I$09@?$output_processor@DV?$string_output_adapter@D@__crt_stdio_output@@V?$standard_base@DV?$string_output_adapter@D@__crt_stdio_output@@@2@@__crt_stdio_output@@AAEXI_N@Z 10061b27 f i libucrt:output.obj
 0001:00060ba6       ??$type_case_integer_parse_into_buffer@I$09@?$output_processor@_WV?$stream_output_adapter@_W@__crt_stdio_output@@V?$format_validation_base@_WV?$stream_output_adapter@_W@__crt_stdio_output@@@2@@__crt_stdio_output@@AAEXI_N@Z 10061ba6 f i libucrt:output.obj
 0001:00060c3b       ??$type_case_integer_parse_into_buffer@I$09@?$output_processor@_WV?$stream_output_adapter@_W@__crt_stdio_output@@V?$positional_parameter_base@_WV?$stream_output_adapter@_W@__crt_stdio_output@@@2@@__crt_stdio_output@@AAEXI_N@Z 10061c3b f i libucrt:output.obj
 0001:00060cd0       ??$type_case_integer_parse_into_buffer@I$09@?$output_processor@_WV?$stream_output_adapter@_W@__crt_stdio_output@@V?$standard_base@_WV?$stream_output_adapter@_W@__crt_stdio_output@@@2@@__crt_stdio_output@@AAEXI_N@Z 10061cd0 f i libucrt:output.obj
 0001:00060d65       ??$type_case_integer_parse_into_buffer@I$09@?$output_processor@_WV?$string_output_adapter@_W@__crt_stdio_output@@V?$format_validation_base@_WV?$string_output_adapter@_W@__crt_stdio_output@@@2@@__crt_stdio_output@@AAEXI_N@Z 10061d65 f i libucrt:output.obj
 0001:00060dfa       ??$type_case_integer_parse_into_buffer@I$09@?$output_processor@_WV?$string_output_adapter@_W@__crt_stdio_output@@V?$positional_parameter_base@_WV?$string_output_adapter@_W@__crt_stdio_output@@@2@@__crt_stdio_output@@AAEXI_N@Z 10061dfa f i libucrt:output.obj
 0001:00060e8f       ??$type_case_integer_parse_into_buffer@I$09@?$output_processor@_WV?$string_output_adapter@_W@__crt_stdio_output@@V?$standard_base@_WV?$string_output_adapter@_W@__crt_stdio_output@@@2@@__crt_stdio_output@@AAEXI_N@Z 10061e8f f i libucrt:output.obj
 0001:00060f24       ??$type_case_integer_parse_into_buffer@I$0BA@@?$output_processor@DV?$stream_output_adapter@D@__crt_stdio_output@@V?$format_validation_base@DV?$stream_output_adapter@D@__crt_stdio_output@@@2@@__crt_stdio_output@@AAEXI_N@Z 10061f24 f i libucrt:output.obj
 0001:00060fa0       ??$type_case_integer_parse_into_buffer@I$0BA@@?$output_processor@DV?$stream_output_adapter@D@__crt_stdio_output@@V?$positional_parameter_base@DV?$stream_output_adapter@D@__crt_stdio_output@@@2@@__crt_stdio_output@@AAEXI_N@Z 10061fa0 f i libucrt:output.obj
 0001:0006101c       ??$type_case_integer_parse_into_buffer@I$0BA@@?$output_processor@DV?$stream_output_adapter@D@__crt_stdio_output@@V?$standard_base@DV?$stream_output_adapter@D@__crt_stdio_output@@@2@@__crt_stdio_output@@AAEXI_N@Z 1006201c f i libucrt:output.obj
 0001:00061098       ??$type_case_integer_parse_into_buffer@I$0BA@@?$output_processor@DV?$string_output_adapter@D@__crt_stdio_output@@V?$format_validation_base@DV?$string_output_adapter@D@__crt_stdio_output@@@2@@__crt_stdio_output@@AAEXI_N@Z 10062098 f i libucrt:output.obj
 0001:00061114       ??$type_case_integer_parse_into_buffer@I$0BA@@?$output_processor@DV?$string_output_adapter@D@__crt_stdio_output@@V?$positional_parameter_base@DV?$string_output_adapter@D@__crt_stdio_output@@@2@@__crt_stdio_output@@AAEXI_N@Z 10062114 f i libucrt:output.obj
 0001:00061190       ??$type_case_integer_parse_into_buffer@I$0BA@@?$output_processor@DV?$string_output_adapter@D@__crt_stdio_output@@V?$standard_base@DV?$string_output_adapter@D@__crt_stdio_output@@@2@@__crt_stdio_output@@AAEXI_N@Z 10062190 f i libucrt:output.obj
 0001:0006120c       ??$type_case_integer_parse_into_buffer@I$0BA@@?$output_processor@_WV?$stream_output_adapter@_W@__crt_stdio_output@@V?$format_validation_base@_WV?$stream_output_adapter@_W@__crt_stdio_output@@@2@@__crt_stdio_output@@AAEXI_N@Z 1006220c f i libucrt:output.obj
 0001:00061297       ??$type_case_integer_parse_into_buffer@I$0BA@@?$output_processor@_WV?$stream_output_adapter@_W@__crt_stdio_output@@V?$positional_parameter_base@_WV?$stream_output_adapter@_W@__crt_stdio_output@@@2@@__crt_stdio_output@@AAEXI_N@Z 10062297 f i libucrt:output.obj
 0001:00061322       ??$type_case_integer_parse_into_buffer@I$0BA@@?$output_processor@_WV?$stream_output_adapter@_W@__crt_stdio_output@@V?$standard_base@_WV?$stream_output_adapter@_W@__crt_stdio_output@@@2@@__crt_stdio_output@@AAEXI_N@Z 10062322 f i libucrt:output.obj
 0001:000613ad       ??$type_case_integer_parse_into_buffer@I$0BA@@?$output_processor@_WV?$string_output_adapter@_W@__crt_stdio_output@@V?$format_validation_base@_WV?$string_output_adapter@_W@__crt_stdio_output@@@2@@__crt_stdio_output@@AAEXI_N@Z 100623ad f i libucrt:output.obj
 0001:00061438       ??$type_case_integer_parse_into_buffer@I$0BA@@?$output_processor@_WV?$string_output_adapter@_W@__crt_stdio_output@@V?$positional_parameter_base@_WV?$string_output_adapter@_W@__crt_stdio_output@@@2@@__crt_stdio_output@@AAEXI_N@Z 10062438 f i libucrt:output.obj
 0001:000614c3       ??$type_case_integer_parse_into_buffer@I$0BA@@?$output_processor@_WV?$string_output_adapter@_W@__crt_stdio_output@@V?$standard_base@_WV?$string_output_adapter@_W@__crt_stdio_output@@@2@@__crt_stdio_output@@AAEXI_N@Z 100624c3 f i libucrt:output.obj
 0001:0006154e       ??$type_case_integer_parse_into_buffer@_K$07@?$output_processor@DV?$stream_output_adapter@D@__crt_stdio_output@@V?$format_validation_base@DV?$stream_output_adapter@D@__crt_stdio_output@@@2@@__crt_stdio_output@@AAEX_K_N@Z 1006254e f i libucrt:output.obj
 0001:000615c2       ??$type_case_integer_parse_into_buffer@_K$07@?$output_processor@DV?$stream_output_adapter@D@__crt_stdio_output@@V?$positional_parameter_base@DV?$stream_output_adapter@D@__crt_stdio_output@@@2@@__crt_stdio_output@@AAEX_K_N@Z 100625c2 f i libucrt:output.obj
 0001:00061636       ??$type_case_integer_parse_into_buffer@_K$07@?$output_processor@DV?$stream_output_adapter@D@__crt_stdio_output@@V?$standard_base@DV?$stream_output_adapter@D@__crt_stdio_output@@@2@@__crt_stdio_output@@AAEX_K_N@Z 10062636 f i libucrt:output.obj
 0001:000616aa       ??$type_case_integer_parse_into_buffer@_K$07@?$output_processor@DV?$string_output_adapter@D@__crt_stdio_output@@V?$format_validation_base@DV?$string_output_adapter@D@__crt_stdio_output@@@2@@__crt_stdio_output@@AAEX_K_N@Z 100626aa f i libucrt:output.obj
 0001:0006171e       ??$type_case_integer_parse_into_buffer@_K$07@?$output_processor@DV?$string_output_adapter@D@__crt_stdio_output@@V?$positional_parameter_base@DV?$string_output_adapter@D@__crt_stdio_output@@@2@@__crt_stdio_output@@AAEX_K_N@Z 1006271e f i libucrt:output.obj
 0001:00061792       ??$type_case_integer_parse_into_buffer@_K$07@?$output_processor@DV?$string_output_adapter@D@__crt_stdio_output@@V?$standard_base@DV?$string_output_adapter@D@__crt_stdio_output@@@2@@__crt_stdio_output@@AAEX_K_N@Z 10062792 f i libucrt:output.obj
 0001:00061806       ??$type_case_integer_parse_into_buffer@_K$07@?$output_processor@_WV?$stream_output_adapter@_W@__crt_stdio_output@@V?$format_validation_base@_WV?$stream_output_adapter@_W@__crt_stdio_output@@@2@@__crt_stdio_output@@AAEX_K_N@Z 10062806 f i libucrt:output.obj
 0001:00061886       ??$type_case_integer_parse_into_buffer@_K$07@?$output_processor@_WV?$stream_output_adapter@_W@__crt_stdio_output@@V?$positional_parameter_base@_WV?$stream_output_adapter@_W@__crt_stdio_output@@@2@@__crt_stdio_output@@AAEX_K_N@Z 10062886 f i libucrt:output.obj
 0001:00061906       ??$type_case_integer_parse_into_buffer@_K$07@?$output_processor@_WV?$stream_output_adapter@_W@__crt_stdio_output@@V?$standard_base@_WV?$stream_output_adapter@_W@__crt_stdio_output@@@2@@__crt_stdio_output@@AAEX_K_N@Z 10062906 f i libucrt:output.obj
 0001:00061986       ??$type_case_integer_parse_into_buffer@_K$07@?$output_processor@_WV?$string_output_adapter@_W@__crt_stdio_output@@V?$format_validation_base@_WV?$string_output_adapter@_W@__crt_stdio_output@@@2@@__crt_stdio_output@@AAEX_K_N@Z 10062986 f i libucrt:output.obj
 0001:00061a06       ??$type_case_integer_parse_into_buffer@_K$07@?$output_processor@_WV?$string_output_adapter@_W@__crt_stdio_output@@V?$positional_parameter_base@_WV?$string_output_adapter@_W@__crt_stdio_output@@@2@@__crt_stdio_output@@AAEX_K_N@Z 10062a06 f i libucrt:output.obj
 0001:00061a86       ??$type_case_integer_parse_into_buffer@_K$07@?$output_processor@_WV?$string_output_adapter@_W@__crt_stdio_output@@V?$standard_base@_WV?$string_output_adapter@_W@__crt_stdio_output@@@2@@__crt_stdio_output@@AAEX_K_N@Z 10062a86 f i libucrt:output.obj
 0001:00061b06       ??$type_case_integer_parse_into_buffer@_K$09@?$output_processor@DV?$stream_output_adapter@D@__crt_stdio_output@@V?$format_validation_base@DV?$stream_output_adapter@D@__crt_stdio_output@@@2@@__crt_stdio_output@@AAEX_K_N@Z 10062b06 f i libucrt:output.obj
 0001:00061b98       ??$type_case_integer_parse_into_buffer@_K$09@?$output_processor@DV?$stream_output_adapter@D@__crt_stdio_output@@V?$positional_parameter_base@DV?$stream_output_adapter@D@__crt_stdio_output@@@2@@__crt_stdio_output@@AAEX_K_N@Z 10062b98 f i libucrt:output.obj
 0001:00061c2a       ??$type_case_integer_parse_into_buffer@_K$09@?$output_processor@DV?$stream_output_adapter@D@__crt_stdio_output@@V?$standard_base@DV?$stream_output_adapter@D@__crt_stdio_output@@@2@@__crt_stdio_output@@AAEX_K_N@Z 10062c2a f i libucrt:output.obj
 0001:00061cbc       ??$type_case_integer_parse_into_buffer@_K$09@?$output_processor@DV?$string_output_adapter@D@__crt_stdio_output@@V?$format_validation_base@DV?$string_output_adapter@D@__crt_stdio_output@@@2@@__crt_stdio_output@@AAEX_K_N@Z 10062cbc f i libucrt:output.obj
 0001:00061d4e       ??$type_case_integer_parse_into_buffer@_K$09@?$output_processor@DV?$string_output_adapter@D@__crt_stdio_output@@V?$positional_parameter_base@DV?$string_output_adapter@D@__crt_stdio_output@@@2@@__crt_stdio_output@@AAEX_K_N@Z 10062d4e f i libucrt:output.obj
 0001:00061de0       ??$type_case_integer_parse_into_buffer@_K$09@?$output_processor@DV?$string_output_adapter@D@__crt_stdio_output@@V?$standard_base@DV?$string_output_adapter@D@__crt_stdio_output@@@2@@__crt_stdio_output@@AAEX_K_N@Z 10062de0 f i libucrt:output.obj
 0001:00061e72       ??$type_case_integer_parse_into_buffer@_K$09@?$output_processor@_WV?$stream_output_adapter@_W@__crt_stdio_output@@V?$format_validation_base@_WV?$stream_output_adapter@_W@__crt_stdio_output@@@2@@__crt_stdio_output@@AAEX_K_N@Z 10062e72 f i libucrt:output.obj
 0001:00061f17       ??$type_case_integer_parse_into_buffer@_K$09@?$output_processor@_WV?$stream_output_adapter@_W@__crt_stdio_output@@V?$positional_parameter_base@_WV?$stream_output_adapter@_W@__crt_stdio_output@@@2@@__crt_stdio_output@@AAEX_K_N@Z 10062f17 f i libucrt:output.obj
 0001:00061fbc       ??$type_case_integer_parse_into_buffer@_K$09@?$output_processor@_WV?$stream_output_adapter@_W@__crt_stdio_output@@V?$standard_base@_WV?$stream_output_adapter@_W@__crt_stdio_output@@@2@@__crt_stdio_output@@AAEX_K_N@Z 10062fbc f i libucrt:output.obj
 0001:00062061       ??$type_case_integer_parse_into_buffer@_K$09@?$output_processor@_WV?$string_output_adapter@_W@__crt_stdio_output@@V?$format_validation_base@_WV?$string_output_adapter@_W@__crt_stdio_output@@@2@@__crt_stdio_output@@AAEX_K_N@Z 10063061 f i libucrt:output.obj
 0001:00062106       ??$type_case_integer_parse_into_buffer@_K$09@?$output_processor@_WV?$string_output_adapter@_W@__crt_stdio_output@@V?$positional_parameter_base@_WV?$string_output_adapter@_W@__crt_stdio_output@@@2@@__crt_stdio_output@@AAEX_K_N@Z 10063106 f i libucrt:output.obj
 0001:000621ab       ??$type_case_integer_parse_into_buffer@_K$09@?$output_processor@_WV?$string_output_adapter@_W@__crt_stdio_output@@V?$standard_base@_WV?$string_output_adapter@_W@__crt_stdio_output@@@2@@__crt_stdio_output@@AAEX_K_N@Z 100631ab f i libucrt:output.obj
 0001:00062250       ??$type_case_integer_parse_into_buffer@_K$0BA@@?$output_processor@DV?$stream_output_adapter@D@__crt_stdio_output@@V?$format_validation_base@DV?$stream_output_adapter@D@__crt_stdio_output@@@2@@__crt_stdio_output@@AAEX_K_N@Z 10063250 f i libucrt:output.obj
 0001:000622d6       ??$type_case_integer_parse_into_buffer@_K$0BA@@?$output_processor@DV?$stream_output_adapter@D@__crt_stdio_output@@V?$positional_parameter_base@DV?$stream_output_adapter@D@__crt_stdio_output@@@2@@__crt_stdio_output@@AAEX_K_N@Z 100632d6 f i libucrt:output.obj
 0001:0006235c       ??$type_case_integer_parse_into_buffer@_K$0BA@@?$output_processor@DV?$stream_output_adapter@D@__crt_stdio_output@@V?$standard_base@DV?$stream_output_adapter@D@__crt_stdio_output@@@2@@__crt_stdio_output@@AAEX_K_N@Z 1006335c f i libucrt:output.obj
 0001:000623e2       ??$type_case_integer_parse_into_buffer@_K$0BA@@?$output_processor@DV?$string_output_adapter@D@__crt_stdio_output@@V?$format_validation_base@DV?$string_output_adapter@D@__crt_stdio_output@@@2@@__crt_stdio_output@@AAEX_K_N@Z 100633e2 f i libucrt:output.obj
 0001:00062468       ??$type_case_integer_parse_into_buffer@_K$0BA@@?$output_processor@DV?$string_output_adapter@D@__crt_stdio_output@@V?$positional_parameter_base@DV?$string_output_adapter@D@__crt_stdio_output@@@2@@__crt_stdio_output@@AAEX_K_N@Z 10063468 f i libucrt:output.obj
 0001:000624ee       ??$type_case_integer_parse_into_buffer@_K$0BA@@?$output_processor@DV?$string_output_adapter@D@__crt_stdio_output@@V?$standard_base@DV?$string_output_adapter@D@__crt_stdio_output@@@2@@__crt_stdio_output@@AAEX_K_N@Z 100634ee f i libucrt:output.obj
 0001:00062574       ??$type_case_integer_parse_into_buffer@_K$0BA@@?$output_processor@_WV?$stream_output_adapter@_W@__crt_stdio_output@@V?$format_validation_base@_WV?$stream_output_adapter@_W@__crt_stdio_output@@@2@@__crt_stdio_output@@AAEX_K_N@Z 10063574 f i libucrt:output.obj
 0001:00062606       ??$type_case_integer_parse_into_buffer@_K$0BA@@?$output_processor@_WV?$stream_output_adapter@_W@__crt_stdio_output@@V?$positional_parameter_base@_WV?$stream_output_adapter@_W@__crt_stdio_output@@@2@@__crt_stdio_output@@AAEX_K_N@Z 10063606 f i libucrt:output.obj
 0001:00062698       ??$type_case_integer_parse_into_buffer@_K$0BA@@?$output_processor@_WV?$stream_output_adapter@_W@__crt_stdio_output@@V?$standard_base@_WV?$stream_output_adapter@_W@__crt_stdio_output@@@2@@__crt_stdio_output@@AAEX_K_N@Z 10063698 f i libucrt:output.obj
 0001:0006272a       ??$type_case_integer_parse_into_buffer@_K$0BA@@?$output_processor@_WV?$string_output_adapter@_W@__crt_stdio_output@@V?$format_validation_base@_WV?$string_output_adapter@_W@__crt_stdio_output@@@2@@__crt_stdio_output@@AAEX_K_N@Z 1006372a f i libucrt:output.obj
 0001:000627bc       ??$type_case_integer_parse_into_buffer@_K$0BA@@?$output_processor@_WV?$string_output_adapter@_W@__crt_stdio_output@@V?$positional_parameter_base@_WV?$string_output_adapter@_W@__crt_stdio_output@@@2@@__crt_stdio_output@@AAEX_K_N@Z 100637bc f i libucrt:output.obj
 0001:0006284e       ??$type_case_integer_parse_into_buffer@_K$0BA@@?$output_processor@_WV?$string_output_adapter@_W@__crt_stdio_output@@V?$standard_base@_WV?$string_output_adapter@_W@__crt_stdio_output@@@2@@__crt_stdio_output@@AAEX_K_N@Z 1006384e f i libucrt:output.obj
 0001:000628e0       ??$write_multiple_characters@V?$stream_output_adapter@D@__crt_stdio_output@@D@__crt_stdio_output@@YAXABV?$stream_output_adapter@D@0@DHQAHAAV__crt_cached_ptd_host@@@Z 100638e0 f i libucrt:output.obj
 0001:0006290f       ??$write_multiple_characters@V?$stream_output_adapter@_W@__crt_stdio_output@@D@__crt_stdio_output@@YAXABV?$stream_output_adapter@_W@0@DHQAHAAV__crt_cached_ptd_host@@@Z 1006390f f i libucrt:output.obj
 0001:00062943       ??$write_multiple_characters@V?$string_output_adapter@D@__crt_stdio_output@@D@__crt_stdio_output@@YAXABV?$string_output_adapter@D@0@DHQAHAAV__crt_cached_ptd_host@@@Z 10063943 f i libucrt:output.obj
 0001:0006299d       ??$write_multiple_characters@V?$string_output_adapter@_W@__crt_stdio_output@@D@__crt_stdio_output@@YAXABV?$string_output_adapter@_W@0@DHQAHAAV__crt_cached_ptd_host@@@Z 1006399d f i libucrt:output.obj
 0001:00062bc3       ??0?$c_string_character_source@D@__crt_strtox@@QAE@QBDQAPBD@Z 10063bc3 f i libucrt:output.obj
 0001:00062bdf       ??0?$c_string_character_source@_W@__crt_strtox@@QAE@QB_WQAPB_W@Z 10063bdf f i libucrt:output.obj
 0001:00062bfb       ??0?$cached@H@__crt_cached_ptd_host@@QAE@XZ 10063bfb f i libucrt:output.obj
 0001:00062c02       ??0?$cached@K@__crt_cached_ptd_host@@QAE@XZ 10063c02 f i libucrt:output.obj
 0001:00062c09       ??0?$common_data@D@__crt_stdio_output@@IAE@AAV__crt_cached_ptd_host@@@Z 10063c09 f i libucrt:output.obj
 0001:00062c50       ??0?$common_data@_W@__crt_stdio_output@@IAE@AAV__crt_cached_ptd_host@@@Z 10063c50 f i libucrt:output.obj
 0001:00062c9c       ??0?$output_adapter_data@DV?$stream_output_adapter@D@__crt_stdio_output@@@__crt_stdio_output@@IAE@ABV?$stream_output_adapter@D@1@_KQBDAAV__crt_cached_ptd_host@@QAD@Z 10063c9c f i libucrt:output.obj
 0001:00062d03       ??0?$output_adapter_data@DV?$string_output_adapter@D@__crt_stdio_output@@@__crt_stdio_output@@IAE@ABV?$string_output_adapter@D@1@_KQBDAAV__crt_cached_ptd_host@@QAD@Z 10063d03 f i libucrt:output.obj
 0001:00062d6a       ??0?$output_adapter_data@_WV?$stream_output_adapter@_W@__crt_stdio_output@@@__crt_stdio_output@@IAE@ABV?$stream_output_adapter@_W@1@_KQB_WAAV__crt_cached_ptd_host@@QAD@Z 10063d6a f i libucrt:output.obj
 0001:00062dd6       ??0?$output_adapter_data@_WV?$string_output_adapter@_W@__crt_stdio_output@@@__crt_stdio_output@@IAE@ABV?$string_output_adapter@_W@1@_KQB_WAAV__crt_cached_ptd_host@@QAD@Z 10063dd6 f i libucrt:output.obj
 0001:00062e42       ??0?$output_processor@DV?$stream_output_adapter@D@__crt_stdio_output@@V?$format_validation_base@DV?$stream_output_adapter@D@__crt_stdio_output@@@2@@__crt_stdio_output@@QAE@ABV?$stream_output_adapter@D@1@_KQBDAAV__crt_cached_ptd_host@@QAD@Z 10063e42 f i libucrt:output.obj
 0001:00062e6f       ??0?$output_processor@DV?$stream_output_adapter@D@__crt_stdio_output@@V?$positional_parameter_base@DV?$stream_output_adapter@D@__crt_stdio_output@@@2@@__crt_stdio_output@@QAE@ABV?$stream_output_adapter@D@1@_KQBDAAV__crt_cached_ptd_host@@QAD@Z 10063e6f f i libucrt:output.obj
 0001:00062e95       ??0?$output_processor@DV?$stream_output_adapter@D@__crt_stdio_output@@V?$standard_base@DV?$stream_output_adapter@D@__crt_stdio_output@@@2@@__crt_stdio_output@@QAE@ABV?$stream_output_adapter@D@1@_KQBDAAV__crt_cached_ptd_host@@QAD@Z 10063e95 f i libucrt:output.obj
 0001:00062ec2       ??0?$output_processor@DV?$string_output_adapter@D@__crt_stdio_output@@V?$format_validation_base@DV?$string_output_adapter@D@__crt_stdio_output@@@2@@__crt_stdio_output@@QAE@ABV?$string_output_adapter@D@1@_KQBDAAV__crt_cached_ptd_host@@QAD@Z 10063ec2 f i libucrt:output.obj
 0001:00062eef       ??0?$output_processor@DV?$string_output_adapter@D@__crt_stdio_output@@V?$positional_parameter_base@DV?$string_output_adapter@D@__crt_stdio_output@@@2@@__crt_stdio_output@@QAE@ABV?$string_output_adapter@D@1@_KQBDAAV__crt_cached_ptd_host@@QAD@Z 10063eef f i libucrt:output.obj
 0001:00062f15       ??0?$output_processor@DV?$string_output_adapter@D@__crt_stdio_output@@V?$standard_base@DV?$string_output_adapter@D@__crt_stdio_output@@@2@@__crt_stdio_output@@QAE@ABV?$string_output_adapter@D@1@_KQBDAAV__crt_cached_ptd_host@@QAD@Z 10063f15 f i libucrt:output.obj
 0001:00062f42       ??0?$output_processor@_WV?$stream_output_adapter@_W@__crt_stdio_output@@V?$format_validation_base@_WV?$stream_output_adapter@_W@__crt_stdio_output@@@2@@__crt_stdio_output@@QAE@ABV?$stream_output_adapter@_W@1@_KQB_WAAV__crt_cached_ptd_host@@QAD@Z 10063f42 f i libucrt:output.obj
 0001:00062f6f       ??0?$output_processor@_WV?$stream_output_adapter@_W@__crt_stdio_output@@V?$positional_parameter_base@_WV?$stream_output_adapter@_W@__crt_stdio_output@@@2@@__crt_stdio_output@@QAE@ABV?$stream_output_adapter@_W@1@_KQB_WAAV__crt_cached_ptd_host@@QAD@Z 10063f6f f i libucrt:output.obj
 0001:00062f95       ??0?$output_processor@_WV?$stream_output_adapter@_W@__crt_stdio_output@@V?$standard_base@_WV?$stream_output_adapter@_W@__crt_stdio_output@@@2@@__crt_stdio_output@@QAE@ABV?$stream_output_adapter@_W@1@_KQB_WAAV__crt_cached_ptd_host@@QAD@Z 10063f95 f i libucrt:output.obj
 0001:00062fc2       ??0?$output_processor@_WV?$string_output_adapter@_W@__crt_stdio_output@@V?$format_validation_base@_WV?$string_output_adapter@_W@__crt_stdio_output@@@2@@__crt_stdio_output@@QAE@ABV?$string_output_adapter@_W@1@_KQB_WAAV__crt_cached_ptd_host@@QAD@Z 10063fc2 f i libucrt:output.obj
 0001:00062fef       ??0?$output_processor@_WV?$string_output_adapter@_W@__crt_stdio_output@@V?$positional_parameter_base@_WV?$string_output_adapter@_W@__crt_stdio_output@@@2@@__crt_stdio_output@@QAE@ABV?$string_output_adapter@_W@1@_KQB_WAAV__crt_cached_ptd_host@@QAD@Z 10063fef f i libucrt:output.obj
 0001:00063015       ??0?$output_processor@_WV?$string_output_adapter@_W@__crt_stdio_output@@V?$standard_base@_WV?$string_output_adapter@_W@__crt_stdio_output@@@2@@__crt_stdio_output@@QAE@ABV?$string_output_adapter@_W@1@_KQB_WAAV__crt_cached_ptd_host@@QAD@Z 10064015 f i libucrt:output.obj
 0001:00063042       ??0?$stream_output_adapter@D@__crt_stdio_output@@QAE@QAU_iobuf@@@Z 10064042 f i libucrt:output.obj
 0001:00063052       ??0?$stream_output_adapter@_W@__crt_stdio_output@@QAE@QAU_iobuf@@@Z 10064052 f i libucrt:output.obj
 0001:00063062       ??0?$string_output_adapter@D@__crt_stdio_output@@QAE@QAU?$string_output_adapter_context@D@1@@Z 10064062 f i libucrt:output.obj
 0001:00063072       ??0?$string_output_adapter@_W@__crt_stdio_output@@QAE@QAU?$string_output_adapter_context@_W@1@@Z 10064072 f i libucrt:output.obj
 0001:00063082       ??0__acrt_stdio_temporary_buffering_guard@@QAE@QAU_iobuf@@AAV__crt_cached_ptd_host@@@Z 10064082 f i libucrt:output.obj
 0001:000630b0       ??0__crt_cached_ptd_host@@QAE@QAU__crt_locale_pointers@@@Z 100640b0 f i libucrt:output.obj
 0001:0006310d       ??0__crt_scoped_get_last_error_reset@@QAE@XZ 1006410d f i libucrt:output.obj
 0001:0006311e       ??0__crt_stdio_stream@@QAE@QAU_iobuf@@@Z 1006411e f i libucrt:output.obj
 0001:0006312e       ??0formatting_buffer@__crt_stdio_output@@QAE@XZ 1006412e f i libucrt:output.obj
 0001:0006313f       ??0guard@?$cached@H@__crt_cached_ptd_host@@QAE@AAU12@@Z 1006413f f i libucrt:output.obj
 0001:0006315e       ??1?$c_string_character_source@D@__crt_strtox@@QAE@XZ 1006415e f i libucrt:output.obj
 0001:0006316a       ??1?$c_string_character_source@_W@__crt_strtox@@QAE@XZ 1006416a f i libucrt:output.obj
 0001:00063176       ??1?$common_data@D@__crt_stdio_output@@QAE@XZ 10064176 f i libucrt:output.obj
 0001:0006317e       ??1?$common_data@_W@__crt_stdio_output@@QAE@XZ 1006417e f i libucrt:output.obj
 0001:00063186       ??1?$format_validation_base@DV?$stream_output_adapter@D@__crt_stdio_output@@@__crt_stdio_output@@QAE@XZ 10064186 f i libucrt:output.obj
 0001:0006318e       ??1?$format_validation_base@DV?$string_output_adapter@D@__crt_stdio_output@@@__crt_stdio_output@@QAE@XZ 1006418e f i libucrt:output.obj
 0001:00063196       ??1?$format_validation_base@_WV?$stream_output_adapter@_W@__crt_stdio_output@@@__crt_stdio_output@@QAE@XZ 10064196 f i libucrt:output.obj
 0001:0006319e       ??1?$format_validation_base@_WV?$string_output_adapter@_W@__crt_stdio_output@@@__crt_stdio_output@@QAE@XZ 1006419e f i libucrt:output.obj
 0001:000631a6       ??1?$output_adapter_data@DV?$stream_output_adapter@D@__crt_stdio_output@@@__crt_stdio_output@@QAE@XZ 100641a6 f i libucrt:output.obj
 0001:000631ae       ??1?$output_adapter_data@DV?$string_output_adapter@D@__crt_stdio_output@@@__crt_stdio_output@@QAE@XZ 100641ae f i libucrt:output.obj
 0001:000631b6       ??1?$output_adapter_data@_WV?$stream_output_adapter@_W@__crt_stdio_output@@@__crt_stdio_output@@QAE@XZ 100641b6 f i libucrt:output.obj
 0001:000631be       ??1?$output_adapter_data@_WV?$string_output_adapter@_W@__crt_stdio_output@@@__crt_stdio_output@@QAE@XZ 100641be f i libucrt:output.obj
 0001:000631c6       ??1?$output_processor@DV?$stream_output_adapter@D@__crt_stdio_output@@V?$format_validation_base@DV?$stream_output_adapter@D@__crt_stdio_output@@@2@@__crt_stdio_output@@QAE@XZ 100641c6 f i libucrt:output.obj
 0001:000631ce       ??1?$output_processor@DV?$stream_output_adapter@D@__crt_stdio_output@@V?$positional_parameter_base@DV?$stream_output_adapter@D@__crt_stdio_output@@@2@@__crt_stdio_output@@QAE@XZ 100641ce f i libucrt:output.obj
 0001:000631d6       ??1?$output_processor@DV?$stream_output_adapter@D@__crt_stdio_output@@V?$standard_base@DV?$stream_output_adapter@D@__crt_stdio_output@@@2@@__crt_stdio_output@@QAE@XZ 100641d6 f i libucrt:output.obj
 0001:000631de       ??1?$output_processor@DV?$string_output_adapter@D@__crt_stdio_output@@V?$format_validation_base@DV?$string_output_adapter@D@__crt_stdio_output@@@2@@__crt_stdio_output@@QAE@XZ 100641de f i libucrt:output.obj
 0001:000631e6       ??1?$output_processor@DV?$string_output_adapter@D@__crt_stdio_output@@V?$positional_parameter_base@DV?$string_output_adapter@D@__crt_stdio_output@@@2@@__crt_stdio_output@@QAE@XZ 100641e6 f i libucrt:output.obj
 0001:000631ee       ??1?$output_processor@DV?$string_output_adapter@D@__crt_stdio_output@@V?$standard_base@DV?$string_output_adapter@D@__crt_stdio_output@@@2@@__crt_stdio_output@@QAE@XZ 100641ee f i libucrt:output.obj
 0001:000631f6       ??1?$output_processor@_WV?$stream_output_adapter@_W@__crt_stdio_output@@V?$format_validation_base@_WV?$stream_output_adapter@_W@__crt_stdio_output@@@2@@__crt_stdio_output@@QAE@XZ 100641f6 f i libucrt:output.obj
 0001:000631fe       ??1?$output_processor@_WV?$stream_output_adapter@_W@__crt_stdio_output@@V?$positional_parameter_base@_WV?$stream_output_adapter@_W@__crt_stdio_output@@@2@@__crt_stdio_output@@QAE@XZ 100641fe f i libucrt:output.obj
 0001:00063206       ??1?$output_processor@_WV?$stream_output_adapter@_W@__crt_stdio_output@@V?$standard_base@_WV?$stream_output_adapter@_W@__crt_stdio_output@@@2@@__crt_stdio_output@@QAE@XZ 10064206 f i libucrt:output.obj
 0001:0006320e       ??1?$output_processor@_WV?$string_output_adapter@_W@__crt_stdio_output@@V?$format_validation_base@_WV?$string_output_adapter@_W@__crt_stdio_output@@@2@@__crt_stdio_output@@QAE@XZ 1006420e f i libucrt:output.obj
 0001:00063216       ??1?$output_processor@_WV?$string_output_adapter@_W@__crt_stdio_output@@V?$positional_parameter_base@_WV?$string_output_adapter@_W@__crt_stdio_output@@@2@@__crt_stdio_output@@QAE@XZ 10064216 f i libucrt:output.obj
 0001:0006321e       ??1?$output_processor@_WV?$string_output_adapter@_W@__crt_stdio_output@@V?$standard_base@_WV?$string_output_adapter@_W@__crt_stdio_output@@@2@@__crt_stdio_output@@QAE@XZ 1006421e f i libucrt:output.obj
 0001:00063226       ??1?$positional_parameter_base@DV?$stream_output_adapter@D@__crt_stdio_output@@@__crt_stdio_output@@QAE@XZ 10064226 f i libucrt:output.obj
 0001:0006322e       ??1?$positional_parameter_base@DV?$string_output_adapter@D@__crt_stdio_output@@@__crt_stdio_output@@QAE@XZ 1006422e f i libucrt:output.obj
 0001:00063236       ??1?$positional_parameter_base@_WV?$stream_output_adapter@_W@__crt_stdio_output@@@__crt_stdio_output@@QAE@XZ 10064236 f i libucrt:output.obj
 0001:0006323e       ??1?$positional_parameter_base@_WV?$string_output_adapter@_W@__crt_stdio_output@@@__crt_stdio_output@@QAE@XZ 1006423e f i libucrt:output.obj
 0001:00063246       ??1?$standard_base@DV?$stream_output_adapter@D@__crt_stdio_output@@@__crt_stdio_output@@QAE@XZ 10064246 f i libucrt:output.obj
 0001:0006324e       ??1?$standard_base@DV?$string_output_adapter@D@__crt_stdio_output@@@__crt_stdio_output@@QAE@XZ 1006424e f i libucrt:output.obj
 0001:00063256       ??1?$standard_base@_WV?$stream_output_adapter@_W@__crt_stdio_output@@@__crt_stdio_output@@QAE@XZ 10064256 f i libucrt:output.obj
 0001:0006325e       ??1?$standard_base@_WV?$string_output_adapter@_W@__crt_stdio_output@@@__crt_stdio_output@@QAE@XZ 1006425e f i libucrt:output.obj
 0001:00063266       ??1__acrt_stdio_temporary_buffering_guard@@QAE@XZ 10064266 f i libucrt:output.obj
