; Listing generated by Microsoft (R) Optimizing Compiler Version 19.50.35727.0 

	TITLE	E:\Proyectos\JuegosOnlineproyectos\PB\pbblow\Piercing Blow Remake\i3Server\Project\I3_DX\i3Server\x86\Release\i3SHA1.obj
	.686P
	.XMM
	include listing.inc
	.model	flat

INCLUDELIB LIBCMT
INCLUDELIB OLDNAMES

PUBLIC	?Reset@i3SHA1@@YA?AW4I3_SHA_RESULT@@PAUSHA1Context@@@Z ; i3SHA1::Reset
PUBLIC	?Input@i3SHA1@@YA?AW4I3_SHA_RESULT@@PAUSHA1Context@@PBEI@Z ; i3SHA1::Input
PUBLIC	?Result@i3SHA1@@YA?AW4I3_SHA_RESULT@@PAUSHA1Context@@QAE@Z ; i3SHA1::Result
EXTRN	_memset:PROC
; Function compile flags: /Ogtp
; File E:\Proyectos\JuegosOnlineproyectos\PB\pbblow\Piercing Blow Remake\i3Server\src\i3Base\i3SHA1.cpp
;	COMDAT ?SHA1ProcessMessageBlock@@YAXPAUSHA1Context@@@Z
_TEXT	SEGMENT
_W$ = -340						; size = 320
_context$GSCopy$1$ = -20				; size = 4
_E$1$ = -16						; size = 4
_t$3$ = -12						; size = 4
_t$5$ = -12						; size = 4
_t$6$ = -12						; size = 4
_D$1$ = -8						; size = 4
_t$4$ = -4						; size = 4
_A$1$ = -4						; size = 4
_context$ = 8						; size = 4
?SHA1ProcessMessageBlock@@YAXPAUSHA1Context@@@Z PROC	; SHA1ProcessMessageBlock, COMDAT

; 230  : {

  00000	55		 push	 ebp
  00001	8b ec		 mov	 ebp, esp
  00003	81 ec 54 01 00
	00		 sub	 esp, 340		; 00000154H
  00009	53		 push	 ebx
  0000a	56		 push	 esi
  0000b	57		 push	 edi
  0000c	8b 7d 08	 mov	 edi, DWORD PTR _context$[ebp]
  0000f	33 d2		 xor	 edx, edx
  00011	89 7d ec	 mov	 DWORD PTR _context$GSCopy$1$[ebp], edi
  00014	eb 0a 8d a4 24
	00 00 00 00 8d
	49 00		 npad	 12
$LL4@SHA1Proces:

; 231  :     const UINT32 K[] =    {       /* Constants defined in SHA-1   */
; 232  :                             0x5A827999,
; 233  :                             0x6ED9EBA1,
; 234  :                             0x8F1BBCDC,
; 235  :                             0xCA62C1D6
; 236  :                             };
; 237  :     INT32           t;                 /* Loop counter                */
; 238  :     UINT32      temp;              /* Temporary word value        */
; 239  :     UINT32      W[80];             /* Word sequence               */
; 240  :     UINT32      A, B, C, D, E;     /* Word buffers                */
; 241  : 
; 242  :     /*
; 243  :      *  Initialize the first 16 words in the array W
; 244  :      */
; 245  :     for(t = 0; t < 16; t++)
; 246  :     {
; 247  :         W[t] = context->Message_Block[t * 4] << 24;

  00020	0f b6 4c 97 20	 movzx	 ecx, BYTE PTR [edi+edx*4+32]

; 248  :         W[t] |= context->Message_Block[t * 4 + 1] << 16;

  00025	0f b6 44 97 21	 movzx	 eax, BYTE PTR [edi+edx*4+33]
  0002a	c1 e1 08	 shl	 ecx, 8

; 249  :         W[t] |= context->Message_Block[t * 4 + 2] << 8;
; 250  :         W[t] |= context->Message_Block[t * 4 + 3];

  0002d	0b c8		 or	 ecx, eax
  0002f	0f b6 44 97 22	 movzx	 eax, BYTE PTR [edi+edx*4+34]
  00034	c1 e1 08	 shl	 ecx, 8
  00037	0b c8		 or	 ecx, eax
  00039	0f b6 44 97 23	 movzx	 eax, BYTE PTR [edi+edx*4+35]
  0003e	c1 e1 08	 shl	 ecx, 8
  00041	0b c8		 or	 ecx, eax
  00043	89 8c 95 ac fe
	ff ff		 mov	 DWORD PTR _W$[ebp+edx*4], ecx
  0004a	42		 inc	 edx
  0004b	83 fa 10	 cmp	 edx, 16			; 00000010H
  0004e	7c d0		 jl	 SHORT $LL4@SHA1Proces

; 251  :     }
; 252  : 
; 253  :     for(t = 16; t < 80; t++)

  00050	b8 10 00 00 00	 mov	 eax, 16			; 00000010H
  00055	eb 09 8d a4 24
	00 00 00 00 8b
	ff		 npad	 11
$LL7@SHA1Proces:

; 254  :     {
; 255  :        W[t] = SHA1CircularShift(1,W[t-3] ^ W[t-8] ^ W[t-14] ^ W[t-16]);

  00060	8b 8c 85 6c fe
	ff ff		 mov	 ecx, DWORD PTR _W$[ebp+eax*4-64]
  00067	33 8c 85 74 fe
	ff ff		 xor	 ecx, DWORD PTR _W$[ebp+eax*4-56]
  0006e	33 8c 85 8c fe
	ff ff		 xor	 ecx, DWORD PTR _W$[ebp+eax*4-32]
  00075	33 8c 85 a0 fe
	ff ff		 xor	 ecx, DWORD PTR _W$[ebp+eax*4-12]
  0007c	c1 c9 1f	 ror	 ecx, 31			; 0000001fH
  0007f	89 8c 85 ac fe
	ff ff		 mov	 DWORD PTR _W$[ebp+eax*4], ecx
  00086	40		 inc	 eax
  00087	83 f8 50	 cmp	 eax, 80			; 00000050H
  0008a	7c d4		 jl	 SHORT $LL7@SHA1Proces

; 256  :     }
; 257  : 
; 258  :     A = context->Intermediate_Hash[0];
; 259  :     B = context->Intermediate_Hash[1];
; 260  :     C = context->Intermediate_Hash[2];
; 261  :     D = context->Intermediate_Hash[3];

  0008c	8b 47 0c	 mov	 eax, DWORD PTR [edi+12]
  0008f	8b 0f		 mov	 ecx, DWORD PTR [edi]
  00091	8b 5f 04	 mov	 ebx, DWORD PTR [edi+4]
  00094	8b 77 08	 mov	 esi, DWORD PTR [edi+8]
  00097	89 45 f8	 mov	 DWORD PTR _D$1$[ebp], eax

; 262  :     E = context->Intermediate_Hash[4];

  0009a	8b 47 10	 mov	 eax, DWORD PTR [edi+16]
  0009d	8b 7d f8	 mov	 edi, DWORD PTR _D$1$[ebp]
  000a0	89 4d fc	 mov	 DWORD PTR _A$1$[ebp], ecx
  000a3	89 45 f0	 mov	 DWORD PTR _E$1$[ebp], eax
  000a6	c7 45 f4 00 00
	00 00		 mov	 DWORD PTR _t$3$[ebp], 0
  000ad	8d 49 00	 npad	 3
$LL10@SHA1Proces:

; 263  : 
; 264  :     for(t = 0; t < 20; t++)
; 265  :     {
; 266  :         temp =  SHA1CircularShift(5,A) +

  000b0	8b d1		 mov	 edx, ecx
  000b2	8b c6		 mov	 eax, esi
  000b4	23 c3		 and	 eax, ebx
  000b6	c1 ca 1b	 ror	 edx, 27			; 0000001bH
  000b9	8b cb		 mov	 ecx, ebx
  000bb	f7 d1		 not	 ecx
  000bd	23 cf		 and	 ecx, edi
  000bf	0b c8		 or	 ecx, eax
  000c1	8b 45 f4	 mov	 eax, DWORD PTR _t$3$[ebp]
  000c4	03 d1		 add	 edx, ecx
  000c6	03 94 85 ac fe
	ff ff		 add	 edx, DWORD PTR _W$[ebp+eax*4]
  000cd	8b 45 f0	 mov	 eax, DWORD PTR _E$1$[ebp]
  000d0	05 99 79 82 5a	 add	 eax, 1518500249		; 5a827999H

; 267  :                 ((B & C) | ((~B) & D)) + E + W[t] + K[0];
; 268  :         E = D;

  000d5	89 7d f0	 mov	 DWORD PTR _E$1$[ebp], edi
  000d8	03 d0		 add	 edx, eax

; 269  :         D = C;

  000da	8b fe		 mov	 edi, esi
  000dc	8b 45 f4	 mov	 eax, DWORD PTR _t$3$[ebp]

; 270  :         C = SHA1CircularShift(30,B);

  000df	8b f3		 mov	 esi, ebx

; 271  : 
; 272  :         B = A;

  000e1	8b 5d fc	 mov	 ebx, DWORD PTR _A$1$[ebp]
  000e4	40		 inc	 eax
  000e5	c1 ce 02	 ror	 esi, 2

; 273  :         A = temp;

  000e8	8b ca		 mov	 ecx, edx
  000ea	89 55 fc	 mov	 DWORD PTR _A$1$[ebp], edx
  000ed	89 45 f4	 mov	 DWORD PTR _t$3$[ebp], eax
  000f0	83 f8 14	 cmp	 eax, 20			; 00000014H
  000f3	7c bb		 jl	 SHORT $LL10@SHA1Proces

; 274  :     }
; 275  : 
; 276  :     for(t = 20; t < 40; t++)

  000f5	89 7d f8	 mov	 DWORD PTR _D$1$[ebp], edi
  000f8	8b c7		 mov	 eax, edi
  000fa	c7 45 fc 14 00
	00 00		 mov	 DWORD PTR _t$4$[ebp], 20 ; 00000014H
$LL13@SHA1Proces:

; 277  :     {
; 278  :         temp = SHA1CircularShift(5,A) + (B ^ C ^ D) + E + W[t] + K[1];

  00101	33 c6		 xor	 eax, esi
  00103	c1 ca 1b	 ror	 edx, 27			; 0000001bH
  00106	33 c3		 xor	 eax, ebx
  00108	03 d0		 add	 edx, eax
  0010a	8b 45 fc	 mov	 eax, DWORD PTR _t$4$[ebp]
  0010d	ff 45 fc	 inc	 DWORD PTR _t$4$[ebp]
  00110	03 94 85 ac fe
	ff ff		 add	 edx, DWORD PTR _W$[ebp+eax*4]
  00117	8b 45 f0	 mov	 eax, DWORD PTR _E$1$[ebp]
  0011a	05 a1 eb d9 6e	 add	 eax, 1859775393		; 6ed9eba1H
  0011f	03 d0		 add	 edx, eax

; 279  :         E = D;

  00121	8b 45 f8	 mov	 eax, DWORD PTR _D$1$[ebp]
  00124	89 45 f0	 mov	 DWORD PTR _E$1$[ebp], eax

; 280  :         D = C;

  00127	8b c6		 mov	 eax, esi

; 281  :         C = SHA1CircularShift(30,B);

  00129	8b f3		 mov	 esi, ebx
  0012b	89 45 f8	 mov	 DWORD PTR _D$1$[ebp], eax
  0012e	c1 ce 02	 ror	 esi, 2

; 282  :         B = A;

  00131	8b d9		 mov	 ebx, ecx
  00133	83 7d fc 28	 cmp	 DWORD PTR _t$4$[ebp], 40 ; 00000028H

; 283  :         A = temp;

  00137	8b ca		 mov	 ecx, edx
  00139	7c c6		 jl	 SHORT $LL13@SHA1Proces

; 284  :     }
; 285  : 
; 286  :     for(t = 40; t < 60; t++)

  0013b	89 4d fc	 mov	 DWORD PTR _A$1$[ebp], ecx
  0013e	8b fa		 mov	 edi, edx
  00140	c7 45 f4 28 00
	00 00		 mov	 DWORD PTR _t$5$[ebp], 40 ; 00000028H
$LL16@SHA1Proces:

; 287  :     {
; 288  :         temp = SHA1CircularShift(5,A) +

  00147	8b ce		 mov	 ecx, esi
  00149	c1 ca 1b	 ror	 edx, 27			; 0000001bH
  0014c	03 55 f0	 add	 edx, DWORD PTR _E$1$[ebp]
  0014f	0b cb		 or	 ecx, ebx
  00151	23 c8		 and	 ecx, eax
  00153	8b c6		 mov	 eax, esi
  00155	23 c3		 and	 eax, ebx
  00157	0b c8		 or	 ecx, eax
  00159	8b 45 f4	 mov	 eax, DWORD PTR _t$5$[ebp]
  0015c	81 c1 dc bc 1b
	8f		 add	 ecx, -1894007588	; 8f1bbcdcH
  00162	03 8c 85 ac fe
	ff ff		 add	 ecx, DWORD PTR _W$[ebp+eax*4]

; 289  :                ((B & C) | (B & D) | (C & D)) + E + W[t] + K[2];
; 290  :         E = D;

  00169	8b 45 f8	 mov	 eax, DWORD PTR _D$1$[ebp]
  0016c	03 d1		 add	 edx, ecx
  0016e	8b 4d f4	 mov	 ecx, DWORD PTR _t$5$[ebp]
  00171	89 45 f0	 mov	 DWORD PTR _E$1$[ebp], eax
  00174	41		 inc	 ecx

; 291  :         D = C;

  00175	8b c6		 mov	 eax, esi
  00177	89 4d f4	 mov	 DWORD PTR _t$5$[ebp], ecx

; 292  :         C = SHA1CircularShift(30,B);

  0017a	8b f3		 mov	 esi, ebx
  0017c	89 45 f8	 mov	 DWORD PTR _D$1$[ebp], eax
  0017f	c1 ce 02	 ror	 esi, 2

; 293  :         B = A;

  00182	8b df		 mov	 ebx, edi

; 294  :         A = temp;

  00184	8b fa		 mov	 edi, edx
  00186	83 f9 3c	 cmp	 ecx, 60			; 0000003cH
  00189	7c bc		 jl	 SHORT $LL16@SHA1Proces

; 295  :     }
; 296  : 
; 297  :     for(t = 60; t < 80; t++)

  0018b	89 7d fc	 mov	 DWORD PTR _A$1$[ebp], edi
  0018e	8b ca		 mov	 ecx, edx
  00190	c7 45 f4 3c 00
	00 00		 mov	 DWORD PTR _t$6$[ebp], 60 ; 0000003cH
$LL19@SHA1Proces:

; 298  :     {
; 299  :         temp = SHA1CircularShift(5,A) + (B ^ C ^ D) + E + W[t] + K[3];

  00197	8b 7d f4	 mov	 edi, DWORD PTR _t$6$[ebp]
  0019a	33 c6		 xor	 eax, esi
  0019c	33 c3		 xor	 eax, ebx
  0019e	c1 ca 1b	 ror	 edx, 27			; 0000001bH
  001a1	03 55 f0	 add	 edx, DWORD PTR _E$1$[ebp]
  001a4	05 d6 c1 62 ca	 add	 eax, -899497514		; ca62c1d6H
  001a9	03 84 bd ac fe
	ff ff		 add	 eax, DWORD PTR _W$[ebp+edi*4]
  001b0	47		 inc	 edi
  001b1	03 d0		 add	 edx, eax
  001b3	89 7d f4	 mov	 DWORD PTR _t$6$[ebp], edi

; 300  :         E = D;

  001b6	8b 45 f8	 mov	 eax, DWORD PTR _D$1$[ebp]
  001b9	89 45 f0	 mov	 DWORD PTR _E$1$[ebp], eax

; 301  :         D = C;

  001bc	8b c6		 mov	 eax, esi

; 302  :         C = SHA1CircularShift(30,B);

  001be	8b f3		 mov	 esi, ebx
  001c0	89 45 f8	 mov	 DWORD PTR _D$1$[ebp], eax
  001c3	c1 ce 02	 ror	 esi, 2

; 303  :         B = A;

  001c6	8b d9		 mov	 ebx, ecx
  001c8	83 ff 50	 cmp	 edi, 80			; 00000050H

; 304  :         A = temp;

  001cb	8b ca		 mov	 ecx, edx
  001cd	8b 7d ec	 mov	 edi, DWORD PTR _context$GSCopy$1$[ebp]
  001d0	7c c5		 jl	 SHORT $LL19@SHA1Proces

; 305  :     }
; 306  : 
; 307  :     context->Intermediate_Hash[0] += A;
; 308  :     context->Intermediate_Hash[1] += B;
; 309  :     context->Intermediate_Hash[2] += C;
; 310  :     context->Intermediate_Hash[3] += D;

  001d2	01 47 0c	 add	 DWORD PTR [edi+12], eax
  001d5	01 5f 04	 add	 DWORD PTR [edi+4], ebx
  001d8	01 77 08	 add	 DWORD PTR [edi+8], esi
  001db	01 17		 add	 DWORD PTR [edi], edx

; 311  :     context->Intermediate_Hash[4] += E;

  001dd	8b 45 f0	 mov	 eax, DWORD PTR _E$1$[ebp]
  001e0	01 47 10	 add	 DWORD PTR [edi+16], eax

; 312  : 
; 313  :     context->Message_Block_Index = 0;

  001e3	c7 47 1c 00 00
	00 00		 mov	 DWORD PTR [edi+28], 0
  001ea	5f		 pop	 edi
  001eb	5e		 pop	 esi
  001ec	5b		 pop	 ebx

; 314  : }

  001ed	8b e5		 mov	 esp, ebp
  001ef	5d		 pop	 ebp
  001f0	c3		 ret	 0
?SHA1ProcessMessageBlock@@YAXPAUSHA1Context@@@Z ENDP	; SHA1ProcessMessageBlock
_TEXT	ENDS
; Function compile flags: /Ogtp
; File E:\Proyectos\JuegosOnlineproyectos\PB\pbblow\Piercing Blow Remake\i3Server\src\i3Base\i3SHA1.cpp
;	COMDAT ?Result@i3SHA1@@YA?AW4I3_SHA_RESULT@@PAUSHA1Context@@QAE@Z
_TEXT	SEGMENT
_context$ = 8						; size = 4
_Message_Digest$ = 12					; size = 4
?Result@i3SHA1@@YA?AW4I3_SHA_RESULT@@PAUSHA1Context@@QAE@Z PROC ; i3SHA1::Result, COMDAT

; 102  : {

  00000	55		 push	 ebp
  00001	8b ec		 mov	 ebp, esp
  00003	56		 push	 esi
  00004	8b 75 08	 mov	 esi, DWORD PTR _context$[ebp]
  00007	57		 push	 edi
  00008	8b 7d 0c	 mov	 edi, DWORD PTR _Message_Digest$[ebp]

; 103  :     INT32 i;
; 104  : 
; 105  :     if (!context || !Message_Digest)

  0000b	85 f6		 test	 esi, esi
  0000d	0f 84 25 01 00
	00		 je	 $LN9@Result
  00013	85 ff		 test	 edi, edi
  00015	0f 84 1d 01 00
	00		 je	 $LN9@Result

; 108  :     }
; 109  : 
; 110  :     if (context->Corrupted != shaSuccess)

  0001b	8b 46 64	 mov	 eax, DWORD PTR [esi+100]
  0001e	85 c0		 test	 eax, eax
  00020	0f 85 17 01 00
	00		 jne	 $LN1@Result

; 111  :     {
; 112  :         return context->Corrupted;
; 113  :     }
; 114  : 
; 115  :     if (!context->Computed)

  00026	39 46 60	 cmp	 DWORD PTR [esi+96], eax
  00029	0f 85 d9 00 00
	00		 jne	 $LN11@Result

; 348  :     if (context->Message_Block_Index > 55)

  0002f	8b 46 1c	 mov	 eax, DWORD PTR [esi+28]
  00032	c6 44 30 20 80	 mov	 BYTE PTR [eax+esi+32], 128 ; 00000080H
  00037	8b 4e 1c	 mov	 ecx, DWORD PTR [esi+28]
  0003a	41		 inc	 ecx
  0003b	89 4e 1c	 mov	 DWORD PTR [esi+28], ecx
  0003e	83 f8 37	 cmp	 eax, 55			; 00000037H
  00041	7e 42		 jle	 SHORT $LN20@Result

; 349  :     {
; 350  :         context->Message_Block[context->Message_Block_Index++] = 0x80;
; 351  :         while(context->Message_Block_Index < 64)

  00043	83 f9 40	 cmp	 ecx, 64			; 00000040H
  00046	7d 19		 jge	 SHORT $LN43@Result
  00048	eb 06 8d 9b 00
	00 00 00	 npad	 8
$LL14@Result:

; 352  :         {
; 353  :             context->Message_Block[context->Message_Block_Index++] = 0;

  00050	c6 44 0e 20 00	 mov	 BYTE PTR [esi+ecx+32], 0
  00055	8b 4e 1c	 mov	 ecx, DWORD PTR [esi+28]
  00058	41		 inc	 ecx
  00059	89 4e 1c	 mov	 DWORD PTR [esi+28], ecx
  0005c	83 f9 40	 cmp	 ecx, 64			; 00000040H
  0005f	7c ef		 jl	 SHORT $LL14@Result
$LN43@Result:

; 354  :         }
; 355  : 
; 356  :         SHA1ProcessMessageBlock(context);

  00061	56		 push	 esi
  00062	e8 00 00 00 00	 call	 ?SHA1ProcessMessageBlock@@YAXPAUSHA1Context@@@Z ; SHA1ProcessMessageBlock

; 357  : 
; 358  :         while(context->Message_Block_Index < 56)

  00067	8b 46 1c	 mov	 eax, DWORD PTR [esi+28]
  0006a	83 c4 04	 add	 esp, 4
  0006d	83 f8 38	 cmp	 eax, 56			; 00000038H
  00070	7d 2f		 jge	 SHORT $LN19@Result
$LL16@Result:

; 359  :         {
; 360  :             context->Message_Block[context->Message_Block_Index++] = 0;

  00072	c6 44 06 20 00	 mov	 BYTE PTR [esi+eax+32], 0
  00077	8b 46 1c	 mov	 eax, DWORD PTR [esi+28]
  0007a	40		 inc	 eax
  0007b	89 46 1c	 mov	 DWORD PTR [esi+28], eax
  0007e	83 f8 38	 cmp	 eax, 56			; 00000038H
  00081	7c ef		 jl	 SHORT $LL16@Result

; 361  :         }
; 362  :     }

  00083	eb 1c		 jmp	 SHORT $LN19@Result
$LN20@Result:

; 363  :     else
; 364  :     {
; 365  :         context->Message_Block[context->Message_Block_Index++] = 0x80;
; 366  :         while(context->Message_Block_Index < 56)

  00085	83 f9 38	 cmp	 ecx, 56			; 00000038H
  00088	7d 17		 jge	 SHORT $LN19@Result
  0008a	8d 9b 00 00 00
	00		 npad	 6
$LL18@Result:

; 367  :         {
; 368  : 
; 369  :             context->Message_Block[context->Message_Block_Index++] = 0;

  00090	c6 44 0e 20 00	 mov	 BYTE PTR [esi+ecx+32], 0
  00095	8b 4e 1c	 mov	 ecx, DWORD PTR [esi+28]
  00098	41		 inc	 ecx
  00099	89 4e 1c	 mov	 DWORD PTR [esi+28], ecx
  0009c	83 f9 38	 cmp	 ecx, 56			; 00000038H
  0009f	7c ef		 jl	 SHORT $LL18@Result
$LN19@Result:

; 370  :         }
; 371  :     }
; 372  : 
; 373  :     /*
; 374  :      *  Store the message length as the last 8 octets
; 375  :      */
; 376  :     context->Message_Block[56] = (UINT8) ( context->Length_High >> 24 );

  000a1	8b 4e 18	 mov	 ecx, DWORD PTR [esi+24]
  000a4	8b c1		 mov	 eax, ecx
  000a6	c1 e8 18	 shr	 eax, 24			; 00000018H
  000a9	88 46 58	 mov	 BYTE PTR [esi+88], al

; 377  :     context->Message_Block[57] = (UINT8) ( context->Length_High >> 16 );

  000ac	8b c1		 mov	 eax, ecx
  000ae	c1 e8 10	 shr	 eax, 16			; 00000010H
  000b1	88 46 59	 mov	 BYTE PTR [esi+89], al

; 378  :     context->Message_Block[58] = (UINT8) ( context->Length_High >> 8 );

  000b4	8b c1		 mov	 eax, ecx
  000b6	c1 e8 08	 shr	 eax, 8
  000b9	88 46 5a	 mov	 BYTE PTR [esi+90], al

; 379  :     context->Message_Block[59] = (UINT8) ( context->Length_High );

  000bc	88 4e 5b	 mov	 BYTE PTR [esi+91], cl

; 380  :     context->Message_Block[60] = (UINT8) ( context->Length_Low >> 24 );

  000bf	8b 4e 14	 mov	 ecx, DWORD PTR [esi+20]
  000c2	8b c1		 mov	 eax, ecx
  000c4	c1 e8 18	 shr	 eax, 24			; 00000018H
  000c7	88 46 5c	 mov	 BYTE PTR [esi+92], al

; 381  :     context->Message_Block[61] = (UINT8) ( context->Length_Low >> 16 );

  000ca	8b c1		 mov	 eax, ecx
  000cc	c1 e8 10	 shr	 eax, 16			; 00000010H
  000cf	88 46 5d	 mov	 BYTE PTR [esi+93], al

; 382  :     context->Message_Block[62] = (UINT8) ( context->Length_Low >> 8 );

  000d2	8b c1		 mov	 eax, ecx
  000d4	c1 e8 08	 shr	 eax, 8

; 383  :     context->Message_Block[63] = (UINT8) ( context->Length_Low );
; 384  : 
; 385  :     SHA1ProcessMessageBlock(context);

  000d7	56		 push	 esi
  000d8	88 46 5e	 mov	 BYTE PTR [esi+94], al
  000db	88 4e 5f	 mov	 BYTE PTR [esi+95], cl
  000de	e8 00 00 00 00	 call	 ?SHA1ProcessMessageBlock@@YAXPAUSHA1Context@@@Z ; SHA1ProcessMessageBlock
  000e3	6a 40		 push	 64			; 00000040H
  000e5	8d 46 20	 lea	 eax, DWORD PTR [esi+32]
  000e8	6a 00		 push	 0
  000ea	50		 push	 eax
  000eb	e8 00 00 00 00	 call	 _memset
  000f0	83 c4 10	 add	 esp, 16			; 00000010H

; 116  :     {
; 117  :         SHA1PadMessage(context);
; 118  :         for(i = 0; i < 64; ++i)
; 119  :         {
; 120  :             /* message may be sensitive, clear it out */
; 121  :             context->Message_Block[i] = 0;
; 122  :         }
; 123  :         context->Length_Low = 0;    /* and clear length */

  000f3	c7 46 14 00 00
	00 00		 mov	 DWORD PTR [esi+20], 0

; 124  :         context->Length_High = 0;

  000fa	c7 46 18 00 00
	00 00		 mov	 DWORD PTR [esi+24], 0

; 125  :         context->Computed = 1;

  00101	c7 46 60 01 00
	00 00		 mov	 DWORD PTR [esi+96], 1
$LN11@Result:

; 126  : 
; 127  :     }
; 128  : 
; 129  :     for(i = 0; i < SHA1HashSize; ++i)

  00108	33 d2		 xor	 edx, edx
  0010a	8d 9b 00 00 00
	00		 npad	 6
$LL7@Result:

; 130  :     {
; 131  :         Message_Digest[i] = (UINT8) ( context->Intermediate_Hash[i>>2] >> 8 * ( 3 - ( i & 0x03 ) ) );

  00110	8b c2		 mov	 eax, edx
  00112	b9 03 00 00 00	 mov	 ecx, 3
  00117	83 e0 03	 and	 eax, 3
  0011a	2b c8		 sub	 ecx, eax
  0011c	8b c2		 mov	 eax, edx
  0011e	83 e0 fc	 and	 eax, -4			; fffffffcH
  00121	c1 e1 03	 shl	 ecx, 3
  00124	8b 04 30	 mov	 eax, DWORD PTR [eax+esi]
  00127	d3 e8		 shr	 eax, cl
  00129	88 04 17	 mov	 BYTE PTR [edi+edx], al
  0012c	42		 inc	 edx
  0012d	83 fa 14	 cmp	 edx, 20			; 00000014H
  00130	7c de		 jl	 SHORT $LL7@Result

; 132  :     }
; 133  : 
; 134  :     return shaSuccess;

  00132	5f		 pop	 edi
  00133	33 c0		 xor	 eax, eax

; 135  : }

  00135	5e		 pop	 esi
  00136	5d		 pop	 ebp
  00137	c3		 ret	 0
$LN9@Result:

; 106  :     {
; 107  :         return shaNull;

  00138	b8 01 00 00 00	 mov	 eax, 1
$LN1@Result:
  0013d	5f		 pop	 edi

; 135  : }

  0013e	5e		 pop	 esi
  0013f	5d		 pop	 ebp
  00140	c3		 ret	 0
?Result@i3SHA1@@YA?AW4I3_SHA_RESULT@@PAUSHA1Context@@QAE@Z ENDP ; i3SHA1::Result
_TEXT	ENDS
; Function compile flags: /Ogtp
; File E:\Proyectos\JuegosOnlineproyectos\PB\pbblow\Piercing Blow Remake\i3Server\src\i3Base\i3SHA1.cpp
;	COMDAT ?Input@i3SHA1@@YA?AW4I3_SHA_RESULT@@PAUSHA1Context@@PBEI@Z
_TEXT	SEGMENT
_context$ = 8						; size = 4
_message_array$ = 12					; size = 4
_length$ = 16						; size = 4
tv188 = 16						; size = 4
tv193 = 16						; size = 4
?Input@i3SHA1@@YA?AW4I3_SHA_RESULT@@PAUSHA1Context@@PBEI@Z PROC ; i3SHA1::Input, COMDAT

; 159  : {

  00000	55		 push	 ebp
  00001	8b ec		 mov	 ebp, esp
  00003	57		 push	 edi

; 160  :     if (!length)

  00004	8b 7d 10	 mov	 edi, DWORD PTR _length$[ebp]
  00007	85 ff		 test	 edi, edi
  00009	75 05		 jne	 SHORT $LN4@Input

; 161  :     {
; 162  :         return shaSuccess;

  0000b	33 c0		 xor	 eax, eax
  0000d	5f		 pop	 edi

; 206  : }

  0000e	5d		 pop	 ebp
  0000f	c3		 ret	 0
$LN4@Input:
  00010	53		 push	 ebx
  00011	56		 push	 esi

; 163  :     }
; 164  : 
; 165  :     if (!context || !message_array)

  00012	8b 75 08	 mov	 esi, DWORD PTR _context$[ebp]
  00015	85 f6		 test	 esi, esi
  00017	74 6b		 je	 SHORT $LN6@Input
  00019	8b 5d 0c	 mov	 ebx, DWORD PTR _message_array$[ebp]
  0001c	85 db		 test	 ebx, ebx
  0001e	74 64		 je	 SHORT $LN6@Input

; 168  :     }
; 169  : 
; 170  :     if (context->Computed)

  00020	83 7e 60 00	 cmp	 DWORD PTR [esi+96], 0
  00024	74 11		 je	 SHORT $LN7@Input

; 171  :     {
; 172  :         context->Corrupted = shaStateError;

  00026	c7 46 64 03 00
	00 00		 mov	 DWORD PTR [esi+100], 3

; 173  : 
; 174  :         return shaStateError;

  0002d	b8 03 00 00 00	 mov	 eax, 3
  00032	5e		 pop	 esi
  00033	5b		 pop	 ebx
  00034	5f		 pop	 edi

; 206  : }

  00035	5d		 pop	 ebp
  00036	c3		 ret	 0
$LN7@Input:

; 175  :     }
; 176  : 
; 177  :     if (context->Corrupted != shaSuccess)

  00037	8b 46 64	 mov	 eax, DWORD PTR [esi+100]
  0003a	85 c0		 test	 eax, eax
  0003c	75 4b		 jne	 SHORT $LN29@Input
  0003e	8b ff		 npad	 2
$LL2@Input:

; 178  :     {
; 179  :          return context->Corrupted;
; 180  :     }
; 181  : 
; 182  :     while(length-- && !(context->Corrupted != shaSuccess))

  00040	4f		 dec	 edi
  00041	83 7e 64 00	 cmp	 DWORD PTR [esi+100], 0
  00045	75 36		 jne	 SHORT $LN14@Input

; 183  :     {
; 184  : 		context->Message_Block[context->Message_Block_Index++] = (*message_array & 0xFF);

  00047	8b 4e 1c	 mov	 ecx, DWORD PTR [esi+28]
  0004a	8a 03		 mov	 al, BYTE PTR [ebx]
  0004c	88 44 0e 20	 mov	 BYTE PTR [esi+ecx+32], al
  00050	8b 4e 1c	 mov	 ecx, DWORD PTR [esi+28]
  00053	41		 inc	 ecx

; 185  : 
; 186  : 		context->Length_Low += 8;

  00054	83 46 14 08	 add	 DWORD PTR [esi+20], 8
  00058	89 4e 1c	 mov	 DWORD PTR [esi+28], ecx

; 187  : 		if (context->Length_Low == 0)

  0005b	75 0d		 jne	 SHORT $LN10@Input

; 188  : 		{
; 189  : 			context->Length_High++;

  0005d	83 46 18 01	 add	 DWORD PTR [esi+24], 1

; 190  : 			if (context->Length_High == 0)

  00061	75 07		 jne	 SHORT $LN10@Input

; 191  : 			{
; 192  : 				/* Message is too long */
; 193  : 				context->Corrupted = shaInputTooLong;

  00063	c7 46 64 02 00
	00 00		 mov	 DWORD PTR [esi+100], 2
$LN10@Input:

; 194  : 			}
; 195  : 		}
; 196  : 
; 197  : 		if (context->Message_Block_Index == 64)

  0006a	83 f9 40	 cmp	 ecx, 64			; 00000040H
  0006d	75 09		 jne	 SHORT $LN11@Input

; 198  : 		{
; 199  : 			SHA1ProcessMessageBlock(context);

  0006f	56		 push	 esi
  00070	e8 00 00 00 00	 call	 ?SHA1ProcessMessageBlock@@YAXPAUSHA1Context@@@Z ; SHA1ProcessMessageBlock
  00075	83 c4 04	 add	 esp, 4
$LN11@Input:

; 200  : 		}
; 201  : 
; 202  : 		message_array++;

  00078	43		 inc	 ebx
  00079	85 ff		 test	 edi, edi
  0007b	75 c3		 jne	 SHORT $LL2@Input
$LN14@Input:
  0007d	5e		 pop	 esi
  0007e	5b		 pop	 ebx

; 203  :     }
; 204  : 
; 205  :     return shaSuccess;

  0007f	33 c0		 xor	 eax, eax
  00081	5f		 pop	 edi

; 206  : }

  00082	5d		 pop	 ebp
  00083	c3		 ret	 0
$LN6@Input:

; 166  :     {
; 167  :         return shaNull;

  00084	b8 01 00 00 00	 mov	 eax, 1
$LN29@Input:
  00089	5e		 pop	 esi
  0008a	5b		 pop	 ebx
  0008b	5f		 pop	 edi

; 206  : }

  0008c	5d		 pop	 ebp
  0008d	c3		 ret	 0
?Input@i3SHA1@@YA?AW4I3_SHA_RESULT@@PAUSHA1Context@@PBEI@Z ENDP ; i3SHA1::Input
_TEXT	ENDS
; Function compile flags: /Ogtp
; File E:\Proyectos\JuegosOnlineproyectos\PB\pbblow\Piercing Blow Remake\i3Server\src\i3Base\i3SHA1.cpp
;	COMDAT ?Reset@i3SHA1@@YA?AW4I3_SHA_RESULT@@PAUSHA1Context@@@Z
_TEXT	SEGMENT
_context$ = 8						; size = 4
?Reset@i3SHA1@@YA?AW4I3_SHA_RESULT@@PAUSHA1Context@@@Z PROC ; i3SHA1::Reset, COMDAT

; 62   : {

  00000	55		 push	 ebp
  00001	8b ec		 mov	 ebp, esp

; 63   : 	I3ASSERT( context != NULL);
; 64   : 
; 65   :     context->Length_Low             = 0;

  00003	8b 45 08	 mov	 eax, DWORD PTR _context$[ebp]
  00006	c7 40 14 00 00
	00 00		 mov	 DWORD PTR [eax+20], 0

; 66   :     context->Length_High            = 0;

  0000d	c7 40 18 00 00
	00 00		 mov	 DWORD PTR [eax+24], 0

; 67   :     context->Message_Block_Index    = 0;

  00014	c7 40 1c 00 00
	00 00		 mov	 DWORD PTR [eax+28], 0

; 68   : 
; 69   :     context->Intermediate_Hash[0]   = 0x67452301;

  0001b	c7 00 01 23 45
	67		 mov	 DWORD PTR [eax], 1732584193 ; 67452301H

; 70   :     context->Intermediate_Hash[1]   = 0xEFCDAB89;

  00021	c7 40 04 89 ab
	cd ef		 mov	 DWORD PTR [eax+4], -271733879 ; efcdab89H

; 71   :     context->Intermediate_Hash[2]   = 0x98BADCFE;

  00028	c7 40 08 fe dc
	ba 98		 mov	 DWORD PTR [eax+8], -1732584194 ; 98badcfeH

; 72   :     context->Intermediate_Hash[3]   = 0x10325476;

  0002f	c7 40 0c 76 54
	32 10		 mov	 DWORD PTR [eax+12], 271733878 ; 10325476H

; 73   :     context->Intermediate_Hash[4]   = 0xC3D2E1F0;

  00036	c7 40 10 f0 e1
	d2 c3		 mov	 DWORD PTR [eax+16], -1009589776 ; c3d2e1f0H

; 74   : 
; 75   :     context->Computed   = 0;

  0003d	c7 40 60 00 00
	00 00		 mov	 DWORD PTR [eax+96], 0

; 76   :     context->Corrupted  = shaSuccess;

  00044	c7 40 64 00 00
	00 00		 mov	 DWORD PTR [eax+100], 0

; 77   : 
; 78   :     return shaSuccess;

  0004b	33 c0		 xor	 eax, eax

; 79   : }

  0004d	5d		 pop	 ebp
  0004e	c3		 ret	 0
?Reset@i3SHA1@@YA?AW4I3_SHA_RESULT@@PAUSHA1Context@@@Z ENDP ; i3SHA1::Reset
_TEXT	ENDS
END
