; Listing generated by Microsoft (R) Optimizing Compiler Version 19.50.35727.0 

	TITLE	E:\Proyectos\JuegosOnlineproyectos\PB\pbblow\Piercing Blow Remake\i3Server\Project\I3_DX\i3Server\x86\Release\i3SMTPMail.obj
	.686P
	.XMM
	include listing.inc
	.model	flat

INCLUDELIB LIBCMT
INCLUDELIB OLDNAMES

PUBLIC	__Avx2WmemEnabledWeakValue
;	COMDAT __Avx2WmemEnabledWeakValue
_BSS	SEGMENT
__Avx2WmemEnabledWeakValue DD 01H DUP (?)
_BSS	ENDS
PUBLIC	___local_stdio_printf_options
PUBLIC	_sprintf
PUBLIC	??0exception@std@@QAE@ABV01@@Z			; std::exception::exception
PUBLIC	??1exception@std@@UAE@XZ			; std::exception::~exception
PUBLIC	?what@exception@std@@UBEPBDXZ			; std::exception::what
PUBLIC	??_Gexception@std@@UAEPAXI@Z			; std::exception::`scalar deleting destructor'
PUBLIC	??0bad_alloc@std@@QAE@ABV01@@Z			; std::bad_alloc::bad_alloc
PUBLIC	??_Gbad_alloc@std@@UAEPAXI@Z			; std::bad_alloc::`scalar deleting destructor'
PUBLIC	??0bad_array_new_length@std@@QAE@XZ		; std::bad_array_new_length::bad_array_new_length
PUBLIC	??1bad_array_new_length@std@@UAE@XZ		; std::bad_array_new_length::~bad_array_new_length
PUBLIC	??0bad_array_new_length@std@@QAE@ABV01@@Z	; std::bad_array_new_length::bad_array_new_length
PUBLIC	??_Gbad_array_new_length@std@@UAEPAXI@Z		; std::bad_array_new_length::`scalar deleting destructor'
PUBLIC	?_Throw_bad_array_new_length@std@@YAXXZ		; std::_Throw_bad_array_new_length
PUBLIC	?_Xlen_string@std@@YAXXZ			; std::_Xlen_string
PUBLIC	??1?$basic_string@DU?$char_traits@D@std@@V?$allocator@D@2@@std@@QAE@XZ ; std::basic_string<char,std::char_traits<char>,std::allocator<char> >::~basic_string<char,std::char_traits<char>,std::allocator<char> >
PUBLIC	?SetEmail@TRecipient@@QAEXV?$basic_string@DU?$char_traits@D@std@@V?$allocator@D@2@@std@@@Z ; TRecipient::SetEmail
PUBLIC	??1TRecipient@@QAE@XZ				; TRecipient::~TRecipient
PUBLIC	??0i3SMTPMail@@QAE@XZ				; i3SMTPMail::i3SMTPMail
PUBLIC	??1i3SMTPMail@@UAE@XZ				; i3SMTPMail::~i3SMTPMail
PUBLIC	?AddRecipient@i3SMTPMail@@QAEHQBD0@Z		; i3SMTPMail::AddRecipient
PUBLIC	?ConnectServer@i3SMTPMail@@QAEHPBDG@Z		; i3SMTPMail::ConnectServer
PUBLIC	?Disconnect@i3SMTPMail@@QAEHXZ			; i3SMTPMail::Disconnect
PUBLIC	?GetConnectStatus@i3SMTPMail@@QAEHXZ		; i3SMTPMail::GetConnectStatus
PUBLIC	?Send@i3SMTPMail@@QAEHXZ			; i3SMTPMail::Send
PUBLIC	?SetMessageBody@i3SMTPMail@@QAEXPBD@Z		; i3SMTPMail::SetMessageBody
PUBLIC	?SetSubject@i3SMTPMail@@QAEXPBD@Z		; i3SMTPMail::SetSubject
PUBLIC	?SetSenderName@i3SMTPMail@@QAEXPBD@Z		; i3SMTPMail::SetSenderName
PUBLIC	?SetSenderEmail@i3SMTPMail@@QAEXPBD@Z		; i3SMTPMail::SetSenderEmail
PUBLIC	?SetReplyTo@i3SMTPMail@@QAEXPBD@Z		; i3SMTPMail::SetReplyTo
PUBLIC	?SetXMailer@i3SMTPMail@@QAEXPBD@Z		; i3SMTPMail::SetXMailer
PUBLIC	?SetFileAttach@i3SMTPMail@@QAEHPAD@Z		; i3SMTPMail::SetFileAttach
PUBLIC	?Base64BufferSize@i3SMTPMail@@QAEHH@Z		; i3SMTPMail::Base64BufferSize
PUBLIC	?EncodeBase64@i3SMTPMail@@QAEHPBDHPAD@Z		; i3SMTPMail::EncodeBase64
PUBLIC	??1?$vector@VTRecipient@@V?$allocator@VTRecipient@@@std@@@std@@QAE@XZ ; std::vector<TRecipient,std::allocator<TRecipient> >::~vector<TRecipient,std::allocator<TRecipient> >
PUBLIC	?_Xlength@?$vector@VTRecipient@@V?$allocator@VTRecipient@@@std@@@std@@CAXXZ ; std::vector<TRecipient,std::allocator<TRecipient> >::_Xlength
PUBLIC	?_Xrange@?$vector@VTRecipient@@V?$allocator@VTRecipient@@@std@@@std@@CAXXZ ; std::vector<TRecipient,std::allocator<TRecipient> >::_Xrange
PUBLIC	?FormatHeader@i3SMTPMail@@AAEPADXZ		; i3SMTPMail::FormatHeader
PUBLIC	?ConnectServerSocket@i3SMTPMail@@AAEIPBDG@Z	; i3SMTPMail::ConnectServerSocket
PUBLIC	?SendSocketData@i3SMTPMail@@AAEHPAD@Z		; i3SMTPMail::SendSocketData
PUBLIC	??1?$vector@VTAttach@@V?$allocator@VTAttach@@@std@@@std@@QAE@XZ ; std::vector<TAttach,std::allocator<TAttach> >::~vector<TAttach,std::allocator<TAttach> >
PUBLIC	?_Xlength@?$vector@VTAttach@@V?$allocator@VTAttach@@@std@@@std@@CAXXZ ; std::vector<TAttach,std::allocator<TAttach> >::_Xlength
PUBLIC	?_Xrange@?$vector@VTAttach@@V?$allocator@VTAttach@@@std@@@std@@CAXXZ ; std::vector<TAttach,std::allocator<TAttach> >::_Xrange
PUBLIC	??_Ei3SMTPMail@@UAEPAXI@Z			; i3SMTPMail::`vector deleting destructor'
PUBLIC	??$_Construct@$00PBD@?$basic_string@DU?$char_traits@D@std@@V?$allocator@D@2@@std@@AAEXQBDI@Z ; std::basic_string<char,std::char_traits<char>,std::allocator<char> >::_Construct<1,char const *>
PUBLIC	??$_Emplace_reallocate@ABVTAttach@@@?$vector@VTAttach@@V?$allocator@VTAttach@@@std@@@std@@AAEPAVTAttach@@QAV2@ABV2@@Z ; std::vector<TAttach,std::allocator<TAttach> >::_Emplace_reallocate<TAttach const &>
PUBLIC	??$construct@VTRecipient@@ABV1@@?$_Default_allocator_traits@V?$allocator@VTRecipient@@@std@@@std@@SAXAAV?$allocator@VTRecipient@@@1@QAVTRecipient@@ABV3@@Z ; std::_Default_allocator_traits<std::allocator<TRecipient> >::construct<TRecipient,TRecipient const &>
PUBLIC	??$_Emplace_reallocate@ABVTRecipient@@@?$vector@VTRecipient@@V?$allocator@VTRecipient@@@std@@@std@@AAEPAVTRecipient@@QAV2@ABV2@@Z ; std::vector<TRecipient,std::allocator<TRecipient> >::_Emplace_reallocate<TRecipient const &>
PUBLIC	??$_Allocate_for_capacity@$0A@@?$basic_string@DU?$char_traits@D@std@@V?$allocator@D@2@@std@@CAPADAAV?$allocator@D@1@AAI@Z ; std::basic_string<char,std::char_traits<char>,std::allocator<char> >::_Allocate_for_capacity<0>
PUBLIC	??$_Destroy_range@V?$allocator@VTRecipient@@@std@@@std@@YAXPAVTRecipient@@QAV1@AAV?$allocator@VTRecipient@@@0@@Z ; std::_Destroy_range<std::allocator<TRecipient> >
PUBLIC	??1_Reallocation_guard@?$vector@VTRecipient@@V?$allocator@VTRecipient@@@std@@@std@@QAE@XZ ; std::vector<TRecipient,std::allocator<TRecipient> >::_Reallocation_guard::~_Reallocation_guard
PUBLIC	??$_Uninitialized_move@PAVTRecipient@@V?$allocator@VTRecipient@@@std@@@std@@YAPAVTRecipient@@QAV1@0PAV1@AAV?$allocator@VTRecipient@@@0@@Z ; std::_Uninitialized_move<TRecipient *,std::allocator<TRecipient> >
PUBLIC	??$_Copy_memmove@PAVTAttach@@PAV1@@std@@YAPAVTAttach@@PAV1@00@Z ; std::_Copy_memmove<TAttach *,TAttach *>
PUBLIC	??$_Copy_memmove_tail@PAVTAttach@@@std@@YAPAVTAttach@@QBDQAV1@II@Z ; std::_Copy_memmove_tail<TAttach *>
PUBLIC	??$_Allocate_manually_vector_aligned@U_Default_allocate_traits@std@@@std@@YAPAXI@Z ; std::_Allocate_manually_vector_aligned<std::_Default_allocate_traits>
PUBLIC	?_OptionsStorage@?1??__local_stdio_printf_options@@9@4_KA ; `__local_stdio_printf_options'::`2'::_OptionsStorage
PUBLIC	??_7exception@std@@6B@				; std::exception::`vftable'
PUBLIC	??_C@_0BC@EOODALEL@Unknown?5exception@		; `string'
PUBLIC	??_7bad_alloc@std@@6B@				; std::bad_alloc::`vftable'
PUBLIC	??_7bad_array_new_length@std@@6B@		; std::bad_array_new_length::`vftable'
PUBLIC	??_C@_0BF@KINCDENJ@bad?5array?5new?5length@	; `string'
PUBLIC	??_R0?AVexception@std@@@8			; std::exception `RTTI Type Descriptor'
PUBLIC	__CT??_R0?AVexception@std@@@8??0exception@std@@QAE@ABV01@@Z12
PUBLIC	__TI3?AVbad_array_new_length@std@@
PUBLIC	__CTA3?AVbad_array_new_length@std@@
PUBLIC	??_R0?AVbad_array_new_length@std@@@8		; std::bad_array_new_length `RTTI Type Descriptor'
PUBLIC	__CT??_R0?AVbad_array_new_length@std@@@8??0bad_array_new_length@std@@QAE@ABV01@@Z12
PUBLIC	??_R0?AVbad_alloc@std@@@8			; std::bad_alloc `RTTI Type Descriptor'
PUBLIC	__CT??_R0?AVbad_alloc@std@@@8??0bad_alloc@std@@QAE@ABV01@@Z12
PUBLIC	??_C@_0BA@JFNIOLAK@string?5too?5long@		; `string'
PUBLIC	??_7i3SMTPMail@@6B@				; i3SMTPMail::`vftable'
PUBLIC	??_C@_06FIMJICNC@QUIT?$AN?6@			; `string'
PUBLIC	??_C@_05CKFAILO@HELO?5@				; `string'
PUBLIC	??_C@_02PCIJFNDE@?$AN?6@			; `string'
PUBLIC	??_C@_04FFKLPPHM@mail@				; `string'
PUBLIC	??_C@_0N@NLGDMBLP@MAIL?5FROM?3?5?$DM@		; `string'
PUBLIC	??_C@_03DMHINEKI@?$DO?$AN?6@			; `string'
PUBLIC	??_C@_01MNNFJEPP@?$DM@				; `string'
PUBLIC	??_C@_0L@DEDALBCA@RCPT?5TO?3?5?$DM@		; `string'
PUBLIC	??_C@_06KNPIFKI@DATA?$AN?6@			; `string'
PUBLIC	??_C@_0DN@EBPLIHBN@?$AN?6?9?9?$CDBOUNDARY?$CD?$AN?6Content?9Type?3?5t@ ; `string'
PUBLIC	??_C@_0JH@FHMCHHEK@?$AN?6?$AN?6?9?9?$CDBOUNDARY?$CD?$AN?6Content?9Type?3@ ; `string'
PUBLIC	??_C@_0BB@JJKPBMJJ@?$AN?6?9?9?$CDBOUNDARY?$CD?9?9@ ; `string'
PUBLIC	??_C@_05KMJPGPH@?$AN?6?4?$AN?6@			; `string'
PUBLIC	??_C@_01IHBHIGKO@?0@				; `string'
PUBLIC	??_C@_00CNPNBAHC@@				; `string'
PUBLIC	??_C@_0BD@LKFCMHA@ddd?8?0?8?5dd?5MMM?5yyyy@	; `string'
PUBLIC	??_C@_0BA@HOPOMEIB@HH?8?3?8mm?8?3?8ss?5tt@	; `string'
PUBLIC	??_C@_0O@JKCOIFBN@DATE?3?5?$CFs?5?$CFs?$AN?6@	; `string'
PUBLIC	??_C@_06LKLMCKC@FROM?3?5@			; `string'
PUBLIC	??_C@_08HHMMIEDC@?$CC?$CFs?$CC?$DM?$CFs?$DO@	; `string'
PUBLIC	??_C@_04CLHDMCFI@To?3?5@			; `string'
PUBLIC	??_C@_04LDGFDGHC@Cc?3?5@			; `string'
PUBLIC	??_C@_09JHOEHIGO@Subject?3?5@			; `string'
PUBLIC	??_C@_0L@JCLOKMLO@X?9Mailer?3?5@		; `string'
PUBLIC	??_C@_0L@CEOPNKEJ@Reply?9To?3?5@		; `string'
PUBLIC	??_C@_0EK@PBHEMFNJ@MIME?9Version?3?51?40?$AN?6Content?9type@ ; `string'
PUBLIC	??_C@_0DO@JJKEBIHI@MIME?9Version?3?51?40?$AN?6Content?9type@ ; `string'
PUBLIC	??_C@_06JGOPIOCK@?$CFs?$DM?$CFs?$DO@		; `string'
PUBLIC	??_C@_02JDPG@rb@				; `string'
PUBLIC	??_C@_0EB@NFPJKBDG@ABCDEFGHIJKLMNOPQRSTUVWXYZabcde@ ; `string'
PUBLIC	??_C@_0BJ@DHFDPMIM@invalid?5vector?5subscript@	; `string'
PUBLIC	??_C@_0BA@FOIKENOD@vector?5too?5long@		; `string'
PUBLIC	??_R4exception@std@@6B@				; std::exception::`RTTI Complete Object Locator'
PUBLIC	??_R3exception@std@@8				; std::exception::`RTTI Class Hierarchy Descriptor'
PUBLIC	??_R2exception@std@@8				; std::exception::`RTTI Base Class Array'
PUBLIC	??_R1A@?0A@EA@exception@std@@8			; std::exception::`RTTI Base Class Descriptor at (0,-1,0,64)'
PUBLIC	??_R4bad_array_new_length@std@@6B@		; std::bad_array_new_length::`RTTI Complete Object Locator'
PUBLIC	??_R3bad_array_new_length@std@@8		; std::bad_array_new_length::`RTTI Class Hierarchy Descriptor'
PUBLIC	??_R2bad_array_new_length@std@@8		; std::bad_array_new_length::`RTTI Base Class Array'
PUBLIC	??_R1A@?0A@EA@bad_array_new_length@std@@8	; std::bad_array_new_length::`RTTI Base Class Descriptor at (0,-1,0,64)'
PUBLIC	??_R1A@?0A@EA@bad_alloc@std@@8			; std::bad_alloc::`RTTI Base Class Descriptor at (0,-1,0,64)'
PUBLIC	??_R3bad_alloc@std@@8				; std::bad_alloc::`RTTI Class Hierarchy Descriptor'
PUBLIC	??_R2bad_alloc@std@@8				; std::bad_alloc::`RTTI Base Class Array'
PUBLIC	??_R4bad_alloc@std@@6B@				; std::bad_alloc::`RTTI Complete Object Locator'
PUBLIC	??_R4i3SMTPMail@@6B@				; i3SMTPMail::`RTTI Complete Object Locator'
PUBLIC	??_R0?AVi3SMTPMail@@@8				; i3SMTPMail `RTTI Type Descriptor'
PUBLIC	??_R3i3SMTPMail@@8				; i3SMTPMail::`RTTI Class Hierarchy Descriptor'
PUBLIC	??_R2i3SMTPMail@@8				; i3SMTPMail::`RTTI Base Class Array'
PUBLIC	??_R1A@?0A@EA@i3SMTPMail@@8			; i3SMTPMail::`RTTI Base Class Descriptor at (0,-1,0,64)'
EXTRN	??_M@YGXPAXIIP6EX0@Z@Z:PROC			; `eh vector destructor iterator'
EXTRN	??2@YAPAXI@Z:PROC				; operator new
EXTRN	??3@YAXPAXI@Z:PROC				; operator delete
EXTRN	??_U@YAPAXI@Z:PROC				; operator new[]
EXTRN	??_V@YAXPAX@Z:PROC				; operator delete[]
EXTRN	??_V@YAXPAXI@Z:PROC				; operator delete[]
EXTRN	___report_rangecheckfailure:PROC
EXTRN	_strtok:PROC
EXTRN	_strdup:PROC
EXTRN	__imp__GetSystemTime@4:PROC
EXTRN	__imp__wsprintfA:PROC
EXTRN	__imp__GetDateFormatA@24:PROC
EXTRN	__imp__GetTimeFormatA@24:PROC
EXTRN	_fclose:PROC
EXTRN	__fileno:PROC
EXTRN	_fopen:PROC
EXTRN	_fread:PROC
EXTRN	___stdio_common_vsprintf:PROC
EXTRN	_free:PROC
EXTRN	__filelength:PROC
EXTRN	__imp__closesocket@4:PROC
EXTRN	__imp__connect@12:PROC
EXTRN	__imp__htons@4:PROC
EXTRN	__imp__recv@16:PROC
EXTRN	__imp__send@16:PROC
EXTRN	__imp__socket@12:PROC
EXTRN	__imp__gethostbyname@4:PROC
EXTRN	__imp__getservbyname@8:PROC
EXTRN	__imp__WSAStartup@8:PROC
EXTRN	___std_exception_copy:PROC
EXTRN	___std_exception_destroy:PROC
EXTRN	??_Eexception@std@@UAEPAXI@Z:PROC		; std::exception::`vector deleting destructor'
EXTRN	??_Ebad_alloc@std@@UAEPAXI@Z:PROC		; std::bad_alloc::`vector deleting destructor'
EXTRN	??_Ebad_array_new_length@std@@UAEPAXI@Z:PROC	; std::bad_array_new_length::`vector deleting destructor'
EXTRN	?_Xlength_error@std@@YAXPBD@Z:PROC		; std::_Xlength_error
EXTRN	?_Xout_of_range@std@@YAXPBD@Z:PROC		; std::_Xout_of_range
EXTRN	?SplitFileName@i3String@@YAPADPBDPADH@Z:PROC	; i3String::SplitFileName
EXTRN	?Copy@i3String@@YAXPADPBDH@Z:PROC		; i3String::Copy
EXTRN	@__security_check_cookie@4:PROC
EXTRN	__CxxThrowException@8:PROC
EXTRN	___CxxFrameHandler3:PROC
EXTRN	__chkstk:PROC
EXTRN	_memcpy:PROC
EXTRN	_memmove:PROC
EXTRN	??_7type_info@@6B@:QWORD			; type_info::`vftable'
EXTRN	___security_cookie:DWORD
;	COMDAT ?_OptionsStorage@?1??__local_stdio_printf_options@@9@4_KA
_BSS	SEGMENT
?_OptionsStorage@?1??__local_stdio_printf_options@@9@4_KA DQ 01H DUP (?) ; `__local_stdio_printf_options'::`2'::_OptionsStorage
_BSS	ENDS
;	COMDAT ??_R1A@?0A@EA@i3SMTPMail@@8
rdata$r	SEGMENT
??_R1A@?0A@EA@i3SMTPMail@@8 DD FLAT:??_R0?AVi3SMTPMail@@@8 ; i3SMTPMail::`RTTI Base Class Descriptor at (0,-1,0,64)'
	DD	00H
	DD	00H
	DD	0ffffffffH
	DD	00H
	DD	040H
	DD	FLAT:??_R3i3SMTPMail@@8
rdata$r	ENDS
;	COMDAT ??_R2i3SMTPMail@@8
rdata$r	SEGMENT
??_R2i3SMTPMail@@8 DD FLAT:??_R1A@?0A@EA@i3SMTPMail@@8	; i3SMTPMail::`RTTI Base Class Array'
rdata$r	ENDS
;	COMDAT ??_R3i3SMTPMail@@8
rdata$r	SEGMENT
??_R3i3SMTPMail@@8 DD 00H				; i3SMTPMail::`RTTI Class Hierarchy Descriptor'
	DD	00H
	DD	01H
	DD	FLAT:??_R2i3SMTPMail@@8
rdata$r	ENDS
;	COMDAT ??_R0?AVi3SMTPMail@@@8
data$rs	SEGMENT
??_R0?AVi3SMTPMail@@@8 DD FLAT:??_7type_info@@6B@	; i3SMTPMail `RTTI Type Descriptor'
	DD	00H
	DB	'.?AVi3SMTPMail@@', 00H
data$rs	ENDS
;	COMDAT ??_R4i3SMTPMail@@6B@
rdata$r	SEGMENT
??_R4i3SMTPMail@@6B@ DD 00H				; i3SMTPMail::`RTTI Complete Object Locator'
	DD	00H
	DD	00H
	DD	FLAT:??_R0?AVi3SMTPMail@@@8
	DD	FLAT:??_R3i3SMTPMail@@8
rdata$r	ENDS
;	COMDAT ??_R4bad_alloc@std@@6B@
rdata$r	SEGMENT
??_R4bad_alloc@std@@6B@ DD 00H				; std::bad_alloc::`RTTI Complete Object Locator'
	DD	00H
	DD	00H
	DD	FLAT:??_R0?AVbad_alloc@std@@@8
	DD	FLAT:??_R3bad_alloc@std@@8
rdata$r	ENDS
;	COMDAT ??_R2bad_alloc@std@@8
rdata$r	SEGMENT
??_R2bad_alloc@std@@8 DD FLAT:??_R1A@?0A@EA@bad_alloc@std@@8 ; std::bad_alloc::`RTTI Base Class Array'
	DD	FLAT:??_R1A@?0A@EA@exception@std@@8
rdata$r	ENDS
;	COMDAT ??_R3bad_alloc@std@@8
rdata$r	SEGMENT
??_R3bad_alloc@std@@8 DD 00H				; std::bad_alloc::`RTTI Class Hierarchy Descriptor'
	DD	00H
	DD	02H
	DD	FLAT:??_R2bad_alloc@std@@8
rdata$r	ENDS
;	COMDAT ??_R1A@?0A@EA@bad_alloc@std@@8
rdata$r	SEGMENT
??_R1A@?0A@EA@bad_alloc@std@@8 DD FLAT:??_R0?AVbad_alloc@std@@@8 ; std::bad_alloc::`RTTI Base Class Descriptor at (0,-1,0,64)'
	DD	01H
	DD	00H
	DD	0ffffffffH
	DD	00H
	DD	040H
	DD	FLAT:??_R3bad_alloc@std@@8
rdata$r	ENDS
;	COMDAT ??_R1A@?0A@EA@bad_array_new_length@std@@8
rdata$r	SEGMENT
??_R1A@?0A@EA@bad_array_new_length@std@@8 DD FLAT:??_R0?AVbad_array_new_length@std@@@8 ; std::bad_array_new_length::`RTTI Base Class Descriptor at (0,-1,0,64)'
	DD	02H
	DD	00H
	DD	0ffffffffH
	DD	00H
	DD	040H
	DD	FLAT:??_R3bad_array_new_length@std@@8
rdata$r	ENDS
;	COMDAT ??_R2bad_array_new_length@std@@8
rdata$r	SEGMENT
??_R2bad_array_new_length@std@@8 DD FLAT:??_R1A@?0A@EA@bad_array_new_length@std@@8 ; std::bad_array_new_length::`RTTI Base Class Array'
	DD	FLAT:??_R1A@?0A@EA@bad_alloc@std@@8
	DD	FLAT:??_R1A@?0A@EA@exception@std@@8
rdata$r	ENDS
;	COMDAT ??_R3bad_array_new_length@std@@8
rdata$r	SEGMENT
??_R3bad_array_new_length@std@@8 DD 00H			; std::bad_array_new_length::`RTTI Class Hierarchy Descriptor'
	DD	00H
	DD	03H
	DD	FLAT:??_R2bad_array_new_length@std@@8
rdata$r	ENDS
;	COMDAT ??_R4bad_array_new_length@std@@6B@
rdata$r	SEGMENT
??_R4bad_array_new_length@std@@6B@ DD 00H		; std::bad_array_new_length::`RTTI Complete Object Locator'
	DD	00H
	DD	00H
	DD	FLAT:??_R0?AVbad_array_new_length@std@@@8
	DD	FLAT:??_R3bad_array_new_length@std@@8
rdata$r	ENDS
;	COMDAT ??_R1A@?0A@EA@exception@std@@8
rdata$r	SEGMENT
??_R1A@?0A@EA@exception@std@@8 DD FLAT:??_R0?AVexception@std@@@8 ; std::exception::`RTTI Base Class Descriptor at (0,-1,0,64)'
	DD	00H
	DD	00H
	DD	0ffffffffH
	DD	00H
	DD	040H
	DD	FLAT:??_R3exception@std@@8
rdata$r	ENDS
;	COMDAT ??_R2exception@std@@8
rdata$r	SEGMENT
??_R2exception@std@@8 DD FLAT:??_R1A@?0A@EA@exception@std@@8 ; std::exception::`RTTI Base Class Array'
rdata$r	ENDS
;	COMDAT ??_R3exception@std@@8
rdata$r	SEGMENT
??_R3exception@std@@8 DD 00H				; std::exception::`RTTI Class Hierarchy Descriptor'
	DD	00H
	DD	01H
	DD	FLAT:??_R2exception@std@@8
rdata$r	ENDS
;	COMDAT ??_R4exception@std@@6B@
rdata$r	SEGMENT
??_R4exception@std@@6B@ DD 00H				; std::exception::`RTTI Complete Object Locator'
	DD	00H
	DD	00H
	DD	FLAT:??_R0?AVexception@std@@@8
	DD	FLAT:??_R3exception@std@@8
rdata$r	ENDS
;	COMDAT ??_C@_0BA@FOIKENOD@vector?5too?5long@
CONST	SEGMENT
??_C@_0BA@FOIKENOD@vector?5too?5long@ DB 'vector too long', 00H ; `string'
CONST	ENDS
;	COMDAT ??_C@_0BJ@DHFDPMIM@invalid?5vector?5subscript@
CONST	SEGMENT
??_C@_0BJ@DHFDPMIM@invalid?5vector?5subscript@ DB 'invalid vector subscri'
	DB	'pt', 00H					; `string'
CONST	ENDS
;	COMDAT ??_C@_0EB@NFPJKBDG@ABCDEFGHIJKLMNOPQRSTUVWXYZabcde@
CONST	SEGMENT
??_C@_0EB@NFPJKBDG@ABCDEFGHIJKLMNOPQRSTUVWXYZabcde@ DB 'ABCDEFGHIJKLMNOPQ'
	DB	'RSTUVWXYZabcdefghijklmnopqrstuvwxyz0123456789+/', 00H ; `string'
CONST	ENDS
;	COMDAT ??_C@_02JDPG@rb@
CONST	SEGMENT
??_C@_02JDPG@rb@ DB 'rb', 00H				; `string'
CONST	ENDS
;	COMDAT ??_C@_06JGOPIOCK@?$CFs?$DM?$CFs?$DO@
CONST	SEGMENT
??_C@_06JGOPIOCK@?$CFs?$DM?$CFs?$DO@ DB '%s<%s>', 00H	; `string'
CONST	ENDS
;	COMDAT ??_C@_0DO@JJKEBIHI@MIME?9Version?3?51?40?$AN?6Content?9type@
CONST	SEGMENT
??_C@_0DO@JJKEBIHI@MIME?9Version?3?51?40?$AN?6Content?9type@ DB 'MIME-Ver'
	DB	'sion: 1.0', 0dH, 0aH, 'Content-type: text/plain; charset=euc-'
	DB	'kr', 0dH, 0aH, 00H				; `string'
CONST	ENDS
;	COMDAT ??_C@_0EK@PBHEMFNJ@MIME?9Version?3?51?40?$AN?6Content?9type@
CONST	SEGMENT
??_C@_0EK@PBHEMFNJ@MIME?9Version?3?51?40?$AN?6Content?9type@ DB 'MIME-Ver'
	DB	'sion: 1.0', 0dH, 0aH, 'Content-type: multipart/mixed; boundar'
	DB	'y="#BOUNDARY#"', 0dH, 0aH, 00H		; `string'
CONST	ENDS
;	COMDAT ??_C@_0L@CEOPNKEJ@Reply?9To?3?5@
CONST	SEGMENT
??_C@_0L@CEOPNKEJ@Reply?9To?3?5@ DB 'Reply-To: ', 00H	; `string'
CONST	ENDS
;	COMDAT ??_C@_0L@JCLOKMLO@X?9Mailer?3?5@
CONST	SEGMENT
??_C@_0L@JCLOKMLO@X?9Mailer?3?5@ DB 'X-Mailer: ', 00H	; `string'
CONST	ENDS
;	COMDAT ??_C@_09JHOEHIGO@Subject?3?5@
CONST	SEGMENT
??_C@_09JHOEHIGO@Subject?3?5@ DB 'Subject: ', 00H	; `string'
CONST	ENDS
;	COMDAT ??_C@_04LDGFDGHC@Cc?3?5@
CONST	SEGMENT
??_C@_04LDGFDGHC@Cc?3?5@ DB 'Cc: ', 00H			; `string'
CONST	ENDS
;	COMDAT ??_C@_04CLHDMCFI@To?3?5@
CONST	SEGMENT
??_C@_04CLHDMCFI@To?3?5@ DB 'To: ', 00H			; `string'
CONST	ENDS
;	COMDAT ??_C@_08HHMMIEDC@?$CC?$CFs?$CC?$DM?$CFs?$DO@
CONST	SEGMENT
??_C@_08HHMMIEDC@?$CC?$CFs?$CC?$DM?$CFs?$DO@ DB '"%s"<%s>', 00H ; `string'
CONST	ENDS
;	COMDAT ??_C@_06LKLMCKC@FROM?3?5@
CONST	SEGMENT
??_C@_06LKLMCKC@FROM?3?5@ DB 'FROM: ', 00H		; `string'
CONST	ENDS
;	COMDAT ??_C@_0O@JKCOIFBN@DATE?3?5?$CFs?5?$CFs?$AN?6@
CONST	SEGMENT
??_C@_0O@JKCOIFBN@DATE?3?5?$CFs?5?$CFs?$AN?6@ DB 'DATE: %s %s', 0dH, 0aH, 00H ; `string'
CONST	ENDS
;	COMDAT ??_C@_0BA@HOPOMEIB@HH?8?3?8mm?8?3?8ss?5tt@
CONST	SEGMENT
??_C@_0BA@HOPOMEIB@HH?8?3?8mm?8?3?8ss?5tt@ DB 'HH'':''mm'':''ss tt', 00H ; `string'
CONST	ENDS
;	COMDAT ??_C@_0BD@LKFCMHA@ddd?8?0?8?5dd?5MMM?5yyyy@
CONST	SEGMENT
??_C@_0BD@LKFCMHA@ddd?8?0?8?5dd?5MMM?5yyyy@ DB 'ddd'','' dd MMM yyyy', 00H ; `string'
CONST	ENDS
;	COMDAT ??_C@_00CNPNBAHC@@
CONST	SEGMENT
??_C@_00CNPNBAHC@@ DB 00H				; `string'
CONST	ENDS
;	COMDAT ??_C@_01IHBHIGKO@?0@
CONST	SEGMENT
??_C@_01IHBHIGKO@?0@ DB ',', 00H			; `string'
CONST	ENDS
;	COMDAT ??_C@_05KMJPGPH@?$AN?6?4?$AN?6@
CONST	SEGMENT
??_C@_05KMJPGPH@?$AN?6?4?$AN?6@ DB 0dH, 0aH, '.', 0dH, 0aH, 00H ; `string'
CONST	ENDS
;	COMDAT ??_C@_0BB@JJKPBMJJ@?$AN?6?9?9?$CDBOUNDARY?$CD?9?9@
CONST	SEGMENT
??_C@_0BB@JJKPBMJJ@?$AN?6?9?9?$CDBOUNDARY?$CD?9?9@ DB 0dH, 0aH, '--#BOUND'
	DB	'ARY#--', 00H				; `string'
CONST	ENDS
;	COMDAT ??_C@_0JH@FHMCHHEK@?$AN?6?$AN?6?9?9?$CDBOUNDARY?$CD?$AN?6Content?9Type?3@
CONST	SEGMENT
??_C@_0JH@FHMCHHEK@?$AN?6?$AN?6?9?9?$CDBOUNDARY?$CD?$AN?6Content?9Type?3@ DB 0dH
	DB	0aH, 0dH, 0aH, '--#BOUNDARY#', 0dH, 0aH, 'Content-Type: applic'
	DB	'ation/octet-stream; name=%s', 0dH, 0aH, 'Content-Transfer-Enc'
	DB	'oding: base64', 0dH, 0aH, 'Content-Disposition: attachment; f'
	DB	'ilename=%s', 0dH, 0aH, 0dH, 0aH, 00H	; `string'
CONST	ENDS
;	COMDAT ??_C@_0DN@EBPLIHBN@?$AN?6?9?9?$CDBOUNDARY?$CD?$AN?6Content?9Type?3?5t@
CONST	SEGMENT
??_C@_0DN@EBPLIHBN@?$AN?6?9?9?$CDBOUNDARY?$CD?$AN?6Content?9Type?3?5t@ DB 0dH
	DB	0aH, '--#BOUNDARY#', 0dH, 0aH, 'Content-Type: text/plain; char'
	DB	'set=euc-kr', 0dH, 0aH, 0dH, 0aH, 00H	; `string'
CONST	ENDS
;	COMDAT ??_C@_06KNPIFKI@DATA?$AN?6@
CONST	SEGMENT
??_C@_06KNPIFKI@DATA?$AN?6@ DB 'DATA', 0dH, 0aH, 00H	; `string'
CONST	ENDS
;	COMDAT ??_C@_0L@DEDALBCA@RCPT?5TO?3?5?$DM@
CONST	SEGMENT
??_C@_0L@DEDALBCA@RCPT?5TO?3?5?$DM@ DB 'RCPT TO: <', 00H ; `string'
CONST	ENDS
;	COMDAT ??_C@_01MNNFJEPP@?$DM@
CONST	SEGMENT
??_C@_01MNNFJEPP@?$DM@ DB '<', 00H			; `string'
CONST	ENDS
;	COMDAT ??_C@_03DMHINEKI@?$DO?$AN?6@
CONST	SEGMENT
??_C@_03DMHINEKI@?$DO?$AN?6@ DB '>', 0dH, 0aH, 00H	; `string'
CONST	ENDS
;	COMDAT ??_C@_0N@NLGDMBLP@MAIL?5FROM?3?5?$DM@
CONST	SEGMENT
??_C@_0N@NLGDMBLP@MAIL?5FROM?3?5?$DM@ DB 'MAIL FROM: <', 00H ; `string'
CONST	ENDS
;	COMDAT ??_C@_04FFKLPPHM@mail@
CONST	SEGMENT
??_C@_04FFKLPPHM@mail@ DB 'mail', 00H			; `string'
CONST	ENDS
;	COMDAT ??_C@_02PCIJFNDE@?$AN?6@
CONST	SEGMENT
??_C@_02PCIJFNDE@?$AN?6@ DB 0dH, 0aH, 00H		; `string'
CONST	ENDS
;	COMDAT ??_C@_05CKFAILO@HELO?5@
CONST	SEGMENT
??_C@_05CKFAILO@HELO?5@ DB 'HELO ', 00H			; `string'
CONST	ENDS
;	COMDAT ??_C@_06FIMJICNC@QUIT?$AN?6@
CONST	SEGMENT
??_C@_06FIMJICNC@QUIT?$AN?6@ DB 'QUIT', 0dH, 0aH, 00H	; `string'
CONST	ENDS
;	COMDAT ??_7i3SMTPMail@@6B@
CONST	SEGMENT
??_7i3SMTPMail@@6B@ DD FLAT:??_R4i3SMTPMail@@6B@	; i3SMTPMail::`vftable'
	DD	FLAT:??_Ei3SMTPMail@@UAEPAXI@Z
CONST	ENDS
;	COMDAT ??_C@_0BA@JFNIOLAK@string?5too?5long@
CONST	SEGMENT
??_C@_0BA@JFNIOLAK@string?5too?5long@ DB 'string too long', 00H ; `string'
CONST	ENDS
;	COMDAT __CT??_R0?AVbad_alloc@std@@@8??0bad_alloc@std@@QAE@ABV01@@Z12
xdata$x	SEGMENT
__CT??_R0?AVbad_alloc@std@@@8??0bad_alloc@std@@QAE@ABV01@@Z12 DD 010H
	DD	FLAT:??_R0?AVbad_alloc@std@@@8
	DD	00H
	DD	0ffffffffH
	ORG $+4
	DD	0cH
	DD	FLAT:??0bad_alloc@std@@QAE@ABV01@@Z
xdata$x	ENDS
;	COMDAT ??_R0?AVbad_alloc@std@@@8
data$r	SEGMENT
??_R0?AVbad_alloc@std@@@8 DD FLAT:??_7type_info@@6B@	; std::bad_alloc `RTTI Type Descriptor'
	DD	00H
	DB	'.?AVbad_alloc@std@@', 00H
data$r	ENDS
;	COMDAT __CT??_R0?AVbad_array_new_length@std@@@8??0bad_array_new_length@std@@QAE@ABV01@@Z12
xdata$x	SEGMENT
__CT??_R0?AVbad_array_new_length@std@@@8??0bad_array_new_length@std@@QAE@ABV01@@Z12 DD 00H
	DD	FLAT:??_R0?AVbad_array_new_length@std@@@8
	DD	00H
	DD	0ffffffffH
	ORG $+4
	DD	0cH
	DD	FLAT:??0bad_array_new_length@std@@QAE@ABV01@@Z
xdata$x	ENDS
;	COMDAT ??_R0?AVbad_array_new_length@std@@@8
data$r	SEGMENT
??_R0?AVbad_array_new_length@std@@@8 DD FLAT:??_7type_info@@6B@ ; std::bad_array_new_length `RTTI Type Descriptor'
	DD	00H
	DB	'.?AVbad_array_new_length@std@@', 00H
data$r	ENDS
;	COMDAT __CTA3?AVbad_array_new_length@std@@
xdata$x	SEGMENT
__CTA3?AVbad_array_new_length@std@@ DD 03H
	DD	FLAT:__CT??_R0?AVbad_array_new_length@std@@@8??0bad_array_new_length@std@@QAE@ABV01@@Z12
	DD	FLAT:__CT??_R0?AVbad_alloc@std@@@8??0bad_alloc@std@@QAE@ABV01@@Z12
	DD	FLAT:__CT??_R0?AVexception@std@@@8??0exception@std@@QAE@ABV01@@Z12
xdata$x	ENDS
;	COMDAT __TI3?AVbad_array_new_length@std@@
xdata$x	SEGMENT
__TI3?AVbad_array_new_length@std@@ DD 00H
	DD	FLAT:??1bad_array_new_length@std@@UAE@XZ
	DD	00H
	DD	FLAT:__CTA3?AVbad_array_new_length@std@@
xdata$x	ENDS
;	COMDAT __CT??_R0?AVexception@std@@@8??0exception@std@@QAE@ABV01@@Z12
xdata$x	SEGMENT
__CT??_R0?AVexception@std@@@8??0exception@std@@QAE@ABV01@@Z12 DD 00H
	DD	FLAT:??_R0?AVexception@std@@@8
	DD	00H
	DD	0ffffffffH
	ORG $+4
	DD	0cH
	DD	FLAT:??0exception@std@@QAE@ABV01@@Z
xdata$x	ENDS
;	COMDAT ??_R0?AVexception@std@@@8
data$r	SEGMENT
??_R0?AVexception@std@@@8 DD FLAT:??_7type_info@@6B@	; std::exception `RTTI Type Descriptor'
	DD	00H
	DB	'.?AVexception@std@@', 00H
data$r	ENDS
;	COMDAT ??_C@_0BF@KINCDENJ@bad?5array?5new?5length@
CONST	SEGMENT
??_C@_0BF@KINCDENJ@bad?5array?5new?5length@ DB 'bad array new length', 00H ; `string'
CONST	ENDS
;	COMDAT ??_7bad_array_new_length@std@@6B@
CONST	SEGMENT
??_7bad_array_new_length@std@@6B@ DD FLAT:??_R4bad_array_new_length@std@@6B@ ; std::bad_array_new_length::`vftable'
	DD	FLAT:??_Ebad_array_new_length@std@@UAEPAXI@Z
	DD	FLAT:?what@exception@std@@UBEPBDXZ
CONST	ENDS
;	COMDAT ??_7bad_alloc@std@@6B@
CONST	SEGMENT
??_7bad_alloc@std@@6B@ DD FLAT:??_R4bad_alloc@std@@6B@	; std::bad_alloc::`vftable'
	DD	FLAT:??_Ebad_alloc@std@@UAEPAXI@Z
	DD	FLAT:?what@exception@std@@UBEPBDXZ
CONST	ENDS
;	COMDAT ??_C@_0BC@EOODALEL@Unknown?5exception@
CONST	SEGMENT
??_C@_0BC@EOODALEL@Unknown?5exception@ DB 'Unknown exception', 00H ; `string'
CONST	ENDS
;	COMDAT ??_7exception@std@@6B@
CONST	SEGMENT
??_7exception@std@@6B@ DD FLAT:??_R4exception@std@@6B@	; std::exception::`vftable'
	DD	FLAT:??_Eexception@std@@UAEPAXI@Z
	DD	FLAT:?what@exception@std@@UBEPBDXZ
CONST	ENDS
;	COMDAT xdata$x
xdata$x	SEGMENT
__unwindtable$??$_Emplace_reallocate@ABVTRecipient@@@?$vector@VTRecipient@@V?$allocator@VTRecipient@@@std@@@std@@AAEPAVTRecipient@@QAV2@ABV2@@Z DD 0ffffffffH
	DD	FLAT:__unwindfunclet$??$_Emplace_reallocate@ABVTRecipient@@@?$vector@VTRecipient@@V?$allocator@VTRecipient@@@std@@@std@@AAEPAVTRecipient@@QAV2@ABV2@@Z$0
__ehfuncinfo$??$_Emplace_reallocate@ABVTRecipient@@@?$vector@VTRecipient@@V?$allocator@VTRecipient@@@std@@@std@@AAEPAVTRecipient@@QAV2@ABV2@@Z DD 019930522H
	DD	01H
	DD	FLAT:__unwindtable$??$_Emplace_reallocate@ABVTRecipient@@@?$vector@VTRecipient@@V?$allocator@VTRecipient@@@std@@@std@@AAEPAVTRecipient@@QAV2@ABV2@@Z
	DD	2 DUP(00H)
	DD	2 DUP(00H)
	DD	00H
	DD	01H
xdata$x	ENDS
;	COMDAT voltbl
voltbl	SEGMENT
_volmd	DB	010H
voltbl	ENDS
;	COMDAT xdata$x
xdata$x	SEGMENT
__ehfuncinfo$??_Ei3SMTPMail@@UAEPAXI@Z DD 019930522H
	DD	00H
	DD	00H
	DD	2 DUP(00H)
	DD	2 DUP(00H)
	DD	00H
	DD	05H
xdata$x	ENDS
;	COMDAT voltbl
voltbl	SEGMENT
_volmd	DB	071H
voltbl	ENDS
;	COMDAT voltbl
voltbl	SEGMENT
_volmd	DB	0b4H
voltbl	ENDS
;	COMDAT xdata$x
xdata$x	SEGMENT
__unwindtable$?AddRecipient@i3SMTPMail@@QAEHQBD0@Z DD 0ffffffffH
	DD	FLAT:__unwindfunclet$?AddRecipient@i3SMTPMail@@QAEHQBD0@Z$0
__ehfuncinfo$?AddRecipient@i3SMTPMail@@QAEHQBD0@Z DD 019930522H
	DD	01H
	DD	FLAT:__unwindtable$?AddRecipient@i3SMTPMail@@QAEHQBD0@Z
	DD	2 DUP(00H)
	DD	2 DUP(00H)
	DD	00H
	DD	01H
xdata$x	ENDS
;	COMDAT xdata$x
xdata$x	SEGMENT
__unwindtable$?SetEmail@TRecipient@@QAEXV?$basic_string@DU?$char_traits@D@std@@V?$allocator@D@2@@std@@@Z DD 0ffffffffH
	DD	FLAT:__unwindfunclet$?SetEmail@TRecipient@@QAEXV?$basic_string@DU?$char_traits@D@std@@V?$allocator@D@2@@std@@@Z$0
__ehfuncinfo$?SetEmail@TRecipient@@QAEXV?$basic_string@DU?$char_traits@D@std@@V?$allocator@D@2@@std@@@Z DD 019930522H
	DD	01H
	DD	FLAT:__unwindtable$?SetEmail@TRecipient@@QAEXV?$basic_string@DU?$char_traits@D@std@@V?$allocator@D@2@@std@@@Z
	DD	2 DUP(00H)
	DD	2 DUP(00H)
	DD	00H
	DD	01H
xdata$x	ENDS
;	COMDAT voltbl
voltbl	SEGMENT
_volmd	DB	010H
voltbl	ENDS
; Function compile flags: /Ogtp
; File D:\Program Files\Microsoft Visual Studio\18\Community\VC\Tools\MSVC\14.50.35717\include\xmemory
;	COMDAT ??$_Allocate_manually_vector_aligned@U_Default_allocate_traits@std@@@std@@YAPAXI@Z
_TEXT	SEGMENT
__Bytes$ = 8						; size = 4
??$_Allocate_manually_vector_aligned@U_Default_allocate_traits@std@@@std@@YAPAXI@Z PROC ; std::_Allocate_manually_vector_aligned<std::_Default_allocate_traits>, COMDAT

; 186  : __declspec(allocator) void* _Allocate_manually_vector_aligned(const size_t _Bytes) {

  00000	55		 push	 ebp
  00001	8b ec		 mov	 ebp, esp

; 187  :     // allocate _Bytes manually aligned to at least _Big_allocation_alignment
; 188  :     const size_t _Block_size = _Non_user_size + _Bytes;

  00003	8b 45 08	 mov	 eax, DWORD PTR __Bytes$[ebp]
  00006	8d 48 23	 lea	 ecx, DWORD PTR [eax+35]

; 189  :     if (_Block_size <= _Bytes) {

  00009	3b c8		 cmp	 ecx, eax
  0000b	0f 86 00 00 00
	00		 jbe	 ?_Throw_bad_array_new_length@std@@YAXXZ ; std::_Throw_bad_array_new_length

; 140  :         return ::operator new(_Bytes);

  00011	51		 push	 ecx
  00012	e8 00 00 00 00	 call	 ??2@YAPAXI@Z		; operator new

; 190  :         _Throw_bad_array_new_length(); // add overflow
; 191  :     }
; 192  : 
; 193  :     const uintptr_t _Ptr_container = reinterpret_cast<uintptr_t>(_Traits::_Allocate(_Block_size));

  00017	8b c8		 mov	 ecx, eax

; 140  :         return ::operator new(_Bytes);

  00019	83 c4 04	 add	 esp, 4

; 194  :     _STL_VERIFY(_Ptr_container != 0, "invalid argument"); // validate even in release since we're doing p[-1]

  0001c	85 c9		 test	 ecx, ecx
  0001e	75 07		 jne	 SHORT $LN3@Allocate_m
  00020	b9 05 00 00 00	 mov	 ecx, 5
  00025	cd 29		 int	 41			; 00000029H
$LN9@Allocate_m:
$LN3@Allocate_m:

; 195  :     void* const _Ptr = reinterpret_cast<void*>((_Ptr_container + _Non_user_size) & ~(_Big_allocation_alignment - 1));

  00027	8d 41 23	 lea	 eax, DWORD PTR [ecx+35]
  0002a	83 e0 e0	 and	 eax, -32		; ffffffe0H

; 196  :     static_cast<uintptr_t*>(_Ptr)[-1] = _Ptr_container;

  0002d	89 48 fc	 mov	 DWORD PTR [eax-4], ecx

; 197  : 
; 198  : #ifdef _DEBUG
; 199  :     static_cast<uintptr_t*>(_Ptr)[-2] = _Big_allocation_sentinel;
; 200  : #endif // defined(_DEBUG)
; 201  :     return _Ptr;
; 202  : }

  00030	5d		 pop	 ebp
  00031	c3		 ret	 0
$LN7@Allocate_m:
??$_Allocate_manually_vector_aligned@U_Default_allocate_traits@std@@@std@@YAPAXI@Z ENDP ; std::_Allocate_manually_vector_aligned<std::_Default_allocate_traits>
_TEXT	ENDS
; Function compile flags: /Ogtp
; File D:\Program Files\Microsoft Visual Studio\18\Community\VC\Tools\MSVC\14.50.35717\include\xutility
;	COMDAT ??$_Copy_memmove_tail@PAVTAttach@@@std@@YAPAVTAttach@@QBDQAV1@II@Z
_TEXT	SEGMENT
__First_ch$ = 8						; size = 4
__Dest$ = 12						; size = 4
__Byte_count$ = 16					; size = 4
__Object_count$ = 20					; size = 4
??$_Copy_memmove_tail@PAVTAttach@@@std@@YAPAVTAttach@@QBDQAV1@II@Z PROC ; std::_Copy_memmove_tail<TAttach *>, COMDAT

; 4858 :     const char* const _First_ch, const _OutCtgIt _Dest, const size_t _Byte_count, const size_t _Object_count) {

  00000	55		 push	 ebp
  00001	8b ec		 mov	 ebp, esp
  00003	56		 push	 esi

; 4859 :     _STL_INTERNAL_CHECK(_Byte_count == _Object_count * sizeof(*_Dest));
; 4860 :     const auto _Dest_ptr = _STD _To_address(_Dest);
; 4861 :     const auto _Dest_ch  = const_cast<char*>(reinterpret_cast<const volatile char*>(_Dest_ptr));
; 4862 :     _CSTD memmove(_Dest_ch, _First_ch, _Byte_count);

  00004	8b 75 0c	 mov	 esi, DWORD PTR __Dest$[ebp]
  00007	57		 push	 edi
  00008	8b 7d 10	 mov	 edi, DWORD PTR __Byte_count$[ebp]
  0000b	57		 push	 edi
  0000c	ff 75 08	 push	 DWORD PTR __First_ch$[ebp]
  0000f	56		 push	 esi
  00010	e8 00 00 00 00	 call	 _memmove
  00015	83 c4 0c	 add	 esp, 12			; 0000000cH

; 4863 :     if constexpr (is_pointer_v<_OutCtgIt>) {
; 4864 :         (void) _Object_count;
; 4865 :         // CodeQL [SM02986] This cast is correct: we're bypassing pointer arithmetic for performance.
; 4866 :         return reinterpret_cast<_OutCtgIt>(_Dest_ch + _Byte_count);

  00018	8d 04 3e	 lea	 eax, DWORD PTR [esi+edi]
  0001b	5f		 pop	 edi
  0001c	5e		 pop	 esi

; 4867 :     } else {
; 4868 :         return _Dest + static_cast<_Iter_diff_t<_OutCtgIt>>(_Object_count);
; 4869 :     }
; 4870 : }

  0001d	5d		 pop	 ebp
  0001e	c3		 ret	 0
??$_Copy_memmove_tail@PAVTAttach@@@std@@YAPAVTAttach@@QBDQAV1@II@Z ENDP ; std::_Copy_memmove_tail<TAttach *>
_TEXT	ENDS
; Function compile flags: /Ogtp
; File D:\Program Files\Microsoft Visual Studio\18\Community\VC\Tools\MSVC\14.50.35717\include\xutility
;	COMDAT ??$_Copy_memmove@PAVTAttach@@PAV1@@std@@YAPAVTAttach@@PAV1@00@Z
_TEXT	SEGMENT
__First$ = 8						; size = 4
__Last$ = 12						; size = 4
__Dest$ = 16						; size = 4
??$_Copy_memmove@PAVTAttach@@PAV1@@std@@YAPAVTAttach@@PAV1@00@Z PROC ; std::_Copy_memmove<TAttach *,TAttach *>, COMDAT

; 4873 : _OutCtgIt _Copy_memmove(_CtgIt _First, _CtgIt _Last, _OutCtgIt _Dest) {

  00000	55		 push	 ebp
  00001	8b ec		 mov	 ebp, esp

; 4874 :     _STL_INTERNAL_CHECK(_First <= _Last);
; 4875 :     const auto _First_ptr    = _STD _To_address(_First);
; 4876 :     const auto _Last_ptr     = _STD _To_address(_Last);
; 4877 :     const auto _Object_count = static_cast<size_t>(_Last_ptr - _First_ptr);
; 4878 :     const auto _First_ch     = const_cast<const char*>(reinterpret_cast<const volatile char*>(_First_ptr));
; 4879 :     const auto _Last_ch      = const_cast<const char*>(reinterpret_cast<const volatile char*>(_Last_ptr));
; 4880 :     const auto _Byte_count   = static_cast<size_t>(_Last_ch - _First_ch);

  00003	8b 45 08	 mov	 eax, DWORD PTR __First$[ebp]
  00006	56		 push	 esi

; 4862 :     _CSTD memmove(_Dest_ch, _First_ch, _Byte_count);

  00007	8b 75 10	 mov	 esi, DWORD PTR __Dest$[ebp]

; 4873 : _OutCtgIt _Copy_memmove(_CtgIt _First, _CtgIt _Last, _OutCtgIt _Dest) {

  0000a	57		 push	 edi

; 4874 :     _STL_INTERNAL_CHECK(_First <= _Last);
; 4875 :     const auto _First_ptr    = _STD _To_address(_First);
; 4876 :     const auto _Last_ptr     = _STD _To_address(_Last);
; 4877 :     const auto _Object_count = static_cast<size_t>(_Last_ptr - _First_ptr);
; 4878 :     const auto _First_ch     = const_cast<const char*>(reinterpret_cast<const volatile char*>(_First_ptr));
; 4879 :     const auto _Last_ch      = const_cast<const char*>(reinterpret_cast<const volatile char*>(_Last_ptr));
; 4880 :     const auto _Byte_count   = static_cast<size_t>(_Last_ch - _First_ch);

  0000b	8b 7d 0c	 mov	 edi, DWORD PTR __Last$[ebp]
  0000e	2b f8		 sub	 edi, eax

; 4862 :     _CSTD memmove(_Dest_ch, _First_ch, _Byte_count);

  00010	57		 push	 edi
  00011	50		 push	 eax
  00012	56		 push	 esi
  00013	e8 00 00 00 00	 call	 _memmove
  00018	83 c4 0c	 add	 esp, 12			; 0000000cH

; 4863 :     if constexpr (is_pointer_v<_OutCtgIt>) {
; 4864 :         (void) _Object_count;
; 4865 :         // CodeQL [SM02986] This cast is correct: we're bypassing pointer arithmetic for performance.
; 4866 :         return reinterpret_cast<_OutCtgIt>(_Dest_ch + _Byte_count);

  0001b	8d 04 37	 lea	 eax, DWORD PTR [edi+esi]

; 4881 :     return _STD _Copy_memmove_tail(_First_ch, _STD move(_Dest), _Byte_count, _Object_count);

  0001e	5f		 pop	 edi
  0001f	5e		 pop	 esi

; 4882 : }

  00020	5d		 pop	 ebp
  00021	c3		 ret	 0
??$_Copy_memmove@PAVTAttach@@PAV1@@std@@YAPAVTAttach@@PAV1@00@Z ENDP ; std::_Copy_memmove<TAttach *,TAttach *>
_TEXT	ENDS
; Function compile flags: /Ogtp
; File D:\Program Files\Microsoft Visual Studio\18\Community\VC\Tools\MSVC\14.50.35717\include\xmemory
; File D:\Program Files\Microsoft Visual Studio\18\Community\VC\Tools\MSVC\14.50.35717\include\xstring
; File D:\Program Files\Microsoft Visual Studio\18\Community\VC\Tools\MSVC\14.50.35717\include\xmemory
; File D:\Program Files\Microsoft Visual Studio\18\Community\VC\Tools\MSVC\14.50.35717\include\xstring
; File D:\Program Files\Microsoft Visual Studio\18\Community\VC\Tools\MSVC\14.50.35717\include\xmemory
;	COMDAT ??$_Uninitialized_move@PAVTRecipient@@V?$allocator@VTRecipient@@@std@@@std@@YAPAVTRecipient@@QAV1@0PAV1@AAV?$allocator@VTRecipient@@@0@@Z
_TEXT	SEGMENT
__First$ = 8						; size = 4
__Last$ = 12						; size = 4
__Dest$ = 16						; size = 4
__Al$ = 20						; size = 4
??$_Uninitialized_move@PAVTRecipient@@V?$allocator@VTRecipient@@@std@@@std@@YAPAVTRecipient@@QAV1@0PAV1@AAV?$allocator@VTRecipient@@@0@@Z PROC ; std::_Uninitialized_move<TRecipient *,std::allocator<TRecipient> >, COMDAT

; 1997 :     const _InIt _First, const _InIt _Last, _Alloc_ptr_t<_Alloc> _Dest, _Alloc& _Al) {

  00000	55		 push	 ebp
  00001	8b ec		 mov	 ebp, esp

; 1998 :     // move [_First, _Last) to raw _Dest, using _Al
; 1999 :     // note: only called internally from elsewhere in the STL
; 2000 : #ifdef _ENABLE_STL_INTERNAL_CHECK
; 2001 :     _STD _Adl_verify_range(_First, _Last);
; 2002 : #endif // ^^^ defined(_ENABLE_STL_INTERNAL_CHECK) ^^^
; 2003 :     using _Ptrval     = typename _Alloc::value_type*;
; 2004 :     auto _UFirst      = _STD _Get_unwrapped(_First);

  00003	8b 4d 08	 mov	 ecx, DWORD PTR __First$[ebp]

; 2018 :     for (; _UFirst != _ULast; ++_UFirst) {

  00006	8b 55 0c	 mov	 edx, DWORD PTR __Last$[ebp]
  00009	56		 push	 esi

; 1853 :     _CONSTEXPR20 _Uninitialized_backout_al(pointer _Dest, _Alloc& _Al_) : _First(_Dest), _Last(_Dest), _Al(_Al_) {}

  0000a	8b 75 10	 mov	 esi, DWORD PTR __Dest$[ebp]

; 2018 :     for (; _UFirst != _ULast; ++_UFirst) {

  0000d	3b ca		 cmp	 ecx, edx
  0000f	74 50		 je	 SHORT $LN3@Uninitiali
$LL4@Uninitiali:
; File D:\Program Files\Microsoft Visual Studio\18\Community\VC\Tools\MSVC\14.50.35717\include\xstring

; 493  :         _CONSTEXPR20 _Bxty() noexcept : _Buf() {} // user-provided, for fancy pointers

  00011	33 c0		 xor	 eax, eax
  00013	89 06		 mov	 DWORD PTR [esi], eax
  00015	89 46 04	 mov	 DWORD PTR [esi+4], eax
  00018	89 46 08	 mov	 DWORD PTR [esi+8], eax
  0001b	89 46 0c	 mov	 DWORD PTR [esi+12], eax

; 517  :     size_type _Mysize = 0; // current length of string (size)

  0001e	89 46 10	 mov	 DWORD PTR [esi+16], eax

; 518  :     size_type _Myres  = 0; // current storage reserved for string (capacity)

  00021	89 46 14	 mov	 DWORD PTR [esi+20], eax

; 1336 :                 _CSTD memcpy(_My_data_mem, _Right_data_mem, _Memcpy_val_size);

  00024	8b 01		 mov	 eax, DWORD PTR [ecx]
  00026	89 06		 mov	 DWORD PTR [esi], eax
  00028	8b 41 04	 mov	 eax, DWORD PTR [ecx+4]
  0002b	89 46 04	 mov	 DWORD PTR [esi+4], eax
  0002e	8b 41 08	 mov	 eax, DWORD PTR [ecx+8]
  00031	89 46 08	 mov	 DWORD PTR [esi+8], eax
  00034	8b 41 0c	 mov	 eax, DWORD PTR [ecx+12]
  00037	89 46 0c	 mov	 DWORD PTR [esi+12], eax
  0003a	8b 41 10	 mov	 eax, DWORD PTR [ecx+16]
  0003d	89 46 10	 mov	 DWORD PTR [esi+16], eax
  00040	8b 41 14	 mov	 eax, DWORD PTR [ecx+20]
  00043	89 46 14	 mov	 DWORD PTR [esi+20], eax
; File D:\Program Files\Microsoft Visual Studio\18\Community\VC\Tools\MSVC\14.50.35717\include\xmemory

; 1865 :         ++_Last;

  00046	83 c6 18	 add	 esi, 24			; 00000018H
; File D:\Program Files\Microsoft Visual Studio\18\Community\VC\Tools\MSVC\14.50.35717\include\xstring

; 1338 :                 _Right_data._Mysize = 0;

  00049	c7 41 10 00 00
	00 00		 mov	 DWORD PTR [ecx+16], 0

; 1339 :                 _Right_data._Myres  = _Small_string_capacity;

  00050	c7 41 14 0f 00
	00 00		 mov	 DWORD PTR [ecx+20], 15	; 0000000fH

; 1340 :                 _Right_data._Activate_SSO_buffer();
; 1341 :                 _Traits::assign(_Right_data._Bx._Buf[0], _Elem());

  00057	c6 01 00	 mov	 BYTE PTR [ecx], 0
; File D:\Program Files\Microsoft Visual Studio\18\Community\VC\Tools\MSVC\14.50.35717\include\xmemory

; 2018 :     for (; _UFirst != _ULast; ++_UFirst) {

  0005a	83 c1 18	 add	 ecx, 24			; 00000018H
  0005d	3b ca		 cmp	 ecx, edx
  0005f	75 b0		 jne	 SHORT $LL4@Uninitiali
$LN3@Uninitiali:

; 1859 :         _STD _Destroy_range(_First, _Last, _Al);

  00061	ff 75 14	 push	 DWORD PTR __Al$[ebp]
  00064	56		 push	 esi
  00065	56		 push	 esi
  00066	e8 00 00 00 00	 call	 ??$_Destroy_range@V?$allocator@VTRecipient@@@std@@@std@@YAXPAVTRecipient@@QAV1@AAV?$allocator@VTRecipient@@@0@@Z ; std::_Destroy_range<std::allocator<TRecipient> >
  0006b	83 c4 0c	 add	 esp, 12			; 0000000cH

; 2019 :         _Backout._Emplace_back(_STD move(*_UFirst));
; 2020 :     }
; 2021 : 
; 2022 :     return _Backout._Release();

  0006e	8b c6		 mov	 eax, esi
  00070	5e		 pop	 esi

; 2023 : }

  00071	5d		 pop	 ebp
  00072	c3		 ret	 0
??$_Uninitialized_move@PAVTRecipient@@V?$allocator@VTRecipient@@@std@@@std@@YAPAVTRecipient@@QAV1@0PAV1@AAV?$allocator@VTRecipient@@@0@@Z ENDP ; std::_Uninitialized_move<TRecipient *,std::allocator<TRecipient> >
_TEXT	ENDS
; Function compile flags: /Ogtp
; File D:\Program Files\Microsoft Visual Studio\18\Community\VC\Tools\MSVC\14.50.35717\include\vector
; File D:\Program Files\Microsoft Visual Studio\18\Community\VC\Tools\MSVC\14.50.35717\include\xmemory
; File D:\Program Files\Microsoft Visual Studio\18\Community\VC\Tools\MSVC\14.50.35717\include\vector
; File D:\Program Files\Microsoft Visual Studio\18\Community\VC\Tools\MSVC\14.50.35717\include\xmemory
; File D:\Program Files\Microsoft Visual Studio\18\Community\VC\Tools\MSVC\14.50.35717\include\vector
;	COMDAT ??1_Reallocation_guard@?$vector@VTRecipient@@V?$allocator@VTRecipient@@@std@@@std@@QAE@XZ
_TEXT	SEGMENT
??1_Reallocation_guard@?$vector@VTRecipient@@V?$allocator@VTRecipient@@@std@@@std@@QAE@XZ PROC ; std::vector<TRecipient,std::allocator<TRecipient> >::_Reallocation_guard::~_Reallocation_guard, COMDAT
; _this$ = ecx

; 620  :         _CONSTEXPR20 ~_Reallocation_guard() noexcept {

  00000	56		 push	 esi
  00001	8b f1		 mov	 esi, ecx

; 621  :             if (_New_begin != nullptr) {

  00003	83 7e 04 00	 cmp	 DWORD PTR [esi+4], 0
  00007	74 40		 je	 SHORT $LN10@Reallocati

; 622  :                 _STD _Destroy_range(_Constructed_first, _Constructed_last, _Al);

  00009	ff 36		 push	 DWORD PTR [esi]
  0000b	ff 76 10	 push	 DWORD PTR [esi+16]
  0000e	ff 76 0c	 push	 DWORD PTR [esi+12]
  00011	e8 00 00 00 00	 call	 ??$_Destroy_range@V?$allocator@VTRecipient@@@std@@@std@@YAXPAVTRecipient@@QAV1@AAV?$allocator@VTRecipient@@@0@@Z ; std::_Destroy_range<std::allocator<TRecipient> >

; 623  :                 _Al.deallocate(_New_begin, _New_capacity);

  00016	8b 46 08	 mov	 eax, DWORD PTR [esi+8]
  00019	83 c4 0c	 add	 esp, 12			; 0000000cH
  0001c	8b 4e 04	 mov	 ecx, DWORD PTR [esi+4]
; File D:\Program Files\Microsoft Visual Studio\18\Community\VC\Tools\MSVC\14.50.35717\include\xmemory

; 989  :         _STD _Deallocate<_New_alignof<_Ty>>(_Ptr, sizeof(_Ty) * _Count);

  0001f	8d 14 40	 lea	 edx, DWORD PTR [eax+eax*2]
  00022	c1 e2 03	 shl	 edx, 3

; 288  :         if (_Bytes >= _Big_allocation_threshold) {

  00025	81 fa 00 10 00
	00		 cmp	 edx, 4096		; 00001000H
  0002b	72 12		 jb	 SHORT $LN15@Reallocati

; 209  :     const uintptr_t _Ptr_container   = _Ptr_user[-1];

  0002d	8b 71 fc	 mov	 esi, DWORD PTR [ecx-4]
  00030	83 c2 23	 add	 edx, 35			; 00000023H

; 210  : 
; 211  :     // If the following asserts, it likely means that we are performing
; 212  :     // an aligned delete on memory coming from an unaligned allocation.
; 213  :     _STL_ASSERT(_Ptr_user[-2] == _Big_allocation_sentinel, "invalid argument");
; 214  : 
; 215  :     // Extra paranoia on aligned allocation/deallocation; ensure _Ptr_container is
; 216  :     // in range [_Min_back_shift, _Non_user_size]
; 217  : #ifdef _DEBUG
; 218  :     constexpr uintptr_t _Min_back_shift = 2 * sizeof(void*);
; 219  : #else // ^^^ defined(_DEBUG) / !defined(_DEBUG) vvv
; 220  :     constexpr uintptr_t _Min_back_shift = sizeof(void*);
; 221  : #endif // ^^^ !defined(_DEBUG) ^^^
; 222  :     const uintptr_t _Back_shift = reinterpret_cast<uintptr_t>(_Ptr) - _Ptr_container;

  00033	2b ce		 sub	 ecx, esi

; 223  :     _STL_VERIFY(_Back_shift >= _Min_back_shift && _Back_shift <= _Non_user_size, "invalid argument");

  00035	8d 41 fc	 lea	 eax, DWORD PTR [ecx-4]
  00038	83 f8 1f	 cmp	 eax, 31			; 0000001fH
  0003b	77 0e		 ja	 SHORT $LN14@Reallocati

; 224  :     _Ptr = reinterpret_cast<void*>(_Ptr_container);

  0003d	8b ce		 mov	 ecx, esi
$LN15@Reallocati:

; 293  :         ::operator delete(_Ptr, _Bytes);

  0003f	52		 push	 edx
  00040	51		 push	 ecx
  00041	e8 00 00 00 00	 call	 ??3@YAXPAXI@Z		; operator delete
  00046	83 c4 08	 add	 esp, 8
$LN10@Reallocati:
  00049	5e		 pop	 esi
; File D:\Program Files\Microsoft Visual Studio\18\Community\VC\Tools\MSVC\14.50.35717\include\vector

; 625  :         }

  0004a	c3		 ret	 0
$LN14@Reallocati:
; File D:\Program Files\Microsoft Visual Studio\18\Community\VC\Tools\MSVC\14.50.35717\include\xmemory

; 223  :     _STL_VERIFY(_Back_shift >= _Min_back_shift && _Back_shift <= _Non_user_size, "invalid argument");

  0004b	b9 05 00 00 00	 mov	 ecx, 5
  00050	cd 29		 int	 41			; 00000029H
$LN24@Reallocati:
$LN22@Reallocati:
??1_Reallocation_guard@?$vector@VTRecipient@@V?$allocator@VTRecipient@@@std@@@std@@QAE@XZ ENDP ; std::vector<TRecipient,std::allocator<TRecipient> >::_Reallocation_guard::~_Reallocation_guard
_TEXT	ENDS
; Function compile flags: /Ogtp
; File D:\Program Files\Microsoft Visual Studio\18\Community\VC\Tools\MSVC\14.50.35717\include\xmemory
; File D:\Program Files\Microsoft Visual Studio\18\Community\VC\Tools\MSVC\14.50.35717\include\xstring
; File D:\Program Files\Microsoft Visual Studio\18\Community\VC\Tools\MSVC\14.50.35717\include\xmemory
; File D:\Program Files\Microsoft Visual Studio\18\Community\VC\Tools\MSVC\14.50.35717\include\xstring
; File D:\Program Files\Microsoft Visual Studio\18\Community\VC\Tools\MSVC\14.50.35717\include\xmemory
;	COMDAT ??$_Destroy_range@V?$allocator@VTRecipient@@@std@@@std@@YAXPAVTRecipient@@QAV1@AAV?$allocator@VTRecipient@@@0@@Z
_TEXT	SEGMENT
__First$ = 8						; size = 4
__Last$ = 12						; size = 4
__Al$ = 16						; size = 4
??$_Destroy_range@V?$allocator@VTRecipient@@@std@@@std@@YAXPAVTRecipient@@QAV1@AAV?$allocator@VTRecipient@@@0@@Z PROC ; std::_Destroy_range<std::allocator<TRecipient> >, COMDAT

; 1102 : _CONSTEXPR20 void _Destroy_range(_Alloc_ptr_t<_Alloc> _First, const _Alloc_ptr_t<_Alloc> _Last, _Alloc& _Al) noexcept {

  00000	55		 push	 ebp
  00001	8b ec		 mov	 ebp, esp
  00003	56		 push	 esi

; 1106 :         for (; _First != _Last; ++_First) {

  00004	8b 75 08	 mov	 esi, DWORD PTR __First$[ebp]
  00007	57		 push	 edi
  00008	8b 7d 0c	 mov	 edi, DWORD PTR __Last$[ebp]
  0000b	3b f7		 cmp	 esi, edi
  0000d	74 48		 je	 SHORT $LN58@Destroy_ra
  0000f	90		 npad	 1
$LL4@Destroy_ra:
; File D:\Program Files\Microsoft Visual Studio\18\Community\VC\Tools\MSVC\14.50.35717\include\xstring

; 453  :         return _Myres > _Small_string_capacity;

  00010	8b 4e 14	 mov	 ecx, DWORD PTR [esi+20]
  00013	83 f9 0f	 cmp	 ecx, 15			; 0000000fH

; 3169 :         if (_My_data._Large_mode_engaged()) {

  00016	76 27		 jbe	 SHORT $LN38@Destroy_ra

; 3170 :             _ASAN_STRING_REMOVE(*this);
; 3171 :             auto& _Al = _Getal();
; 3172 :             _Deallocate_for_capacity(_Al, _My_data._Bx._Ptr, _My_data._Myres);

  00018	8b 06		 mov	 eax, DWORD PTR [esi]

; 902  :         _Al.deallocate(_Old_ptr, _Capacity + 1); // +1 for null terminator

  0001a	41		 inc	 ecx
; File D:\Program Files\Microsoft Visual Studio\18\Community\VC\Tools\MSVC\14.50.35717\include\xmemory

; 288  :         if (_Bytes >= _Big_allocation_threshold) {

  0001b	81 f9 00 10 00
	00		 cmp	 ecx, 4096		; 00001000H
  00021	72 12		 jb	 SHORT $LN43@Destroy_ra

; 209  :     const uintptr_t _Ptr_container   = _Ptr_user[-1];

  00023	8b 50 fc	 mov	 edx, DWORD PTR [eax-4]
  00026	83 c1 23	 add	 ecx, 35			; 00000023H

; 210  : 
; 211  :     // If the following asserts, it likely means that we are performing
; 212  :     // an aligned delete on memory coming from an unaligned allocation.
; 213  :     _STL_ASSERT(_Ptr_user[-2] == _Big_allocation_sentinel, "invalid argument");
; 214  : 
; 215  :     // Extra paranoia on aligned allocation/deallocation; ensure _Ptr_container is
; 216  :     // in range [_Min_back_shift, _Non_user_size]
; 217  : #ifdef _DEBUG
; 218  :     constexpr uintptr_t _Min_back_shift = 2 * sizeof(void*);
; 219  : #else // ^^^ defined(_DEBUG) / !defined(_DEBUG) vvv
; 220  :     constexpr uintptr_t _Min_back_shift = sizeof(void*);
; 221  : #endif // ^^^ !defined(_DEBUG) ^^^
; 222  :     const uintptr_t _Back_shift = reinterpret_cast<uintptr_t>(_Ptr) - _Ptr_container;

  00029	2b c2		 sub	 eax, edx

; 223  :     _STL_VERIFY(_Back_shift >= _Min_back_shift && _Back_shift <= _Non_user_size, "invalid argument");

  0002b	83 c0 fc	 add	 eax, -4			; fffffffcH
  0002e	83 f8 1f	 cmp	 eax, 31			; 0000001fH
  00031	77 28		 ja	 SHORT $LN54@Destroy_ra

; 224  :     _Ptr = reinterpret_cast<void*>(_Ptr_container);

  00033	8b c2		 mov	 eax, edx
$LN43@Destroy_ra:

; 293  :         ::operator delete(_Ptr, _Bytes);

  00035	51		 push	 ecx
  00036	50		 push	 eax
  00037	e8 00 00 00 00	 call	 ??3@YAXPAXI@Z		; operator delete
  0003c	83 c4 08	 add	 esp, 8
$LN38@Destroy_ra:
; File D:\Program Files\Microsoft Visual Studio\18\Community\VC\Tools\MSVC\14.50.35717\include\xstring

; 3176 :         _My_data._Mysize = 0;

  0003f	c7 46 10 00 00
	00 00		 mov	 DWORD PTR [esi+16], 0

; 3177 :         _My_data._Myres  = _Small_string_capacity;

  00046	c7 46 14 0f 00
	00 00		 mov	 DWORD PTR [esi+20], 15	; 0000000fH

; 3178 :         // the _Traits::assign is last so the codegen doesn't think the char write can alias this
; 3179 :         _Traits::assign(_My_data._Bx._Buf[0], _Elem());

  0004d	c6 06 00	 mov	 BYTE PTR [esi], 0
; File D:\Program Files\Microsoft Visual Studio\18\Community\VC\Tools\MSVC\14.50.35717\include\xmemory

; 1106 :         for (; _First != _Last; ++_First) {

  00050	83 c6 18	 add	 esi, 24			; 00000018H
  00053	3b f7		 cmp	 esi, edi
  00055	75 b9		 jne	 SHORT $LL4@Destroy_ra
$LN58@Destroy_ra:
  00057	5f		 pop	 edi

; 1107 :             allocator_traits<_Alloc>::destroy(_Al, _STD _Unfancy(_First));
; 1108 :         }
; 1109 :     }
; 1110 : }

  00058	5e		 pop	 esi
  00059	5d		 pop	 ebp
  0005a	c3		 ret	 0
$LN54@Destroy_ra:

; 223  :     _STL_VERIFY(_Back_shift >= _Min_back_shift && _Back_shift <= _Non_user_size, "invalid argument");

  0005b	b9 05 00 00 00	 mov	 ecx, 5
  00060	cd 29		 int	 41			; 00000029H
$LN65@Destroy_ra:
$LN63@Destroy_ra:
??$_Destroy_range@V?$allocator@VTRecipient@@@std@@@std@@YAXPAVTRecipient@@QAV1@AAV?$allocator@VTRecipient@@@0@@Z ENDP ; std::_Destroy_range<std::allocator<TRecipient> >
_TEXT	ENDS
; Function compile flags: /Ogtp
; File D:\Program Files\Microsoft Visual Studio\18\Community\VC\Tools\MSVC\14.50.35717\include\xstring
; File D:\Program Files\Microsoft Visual Studio\18\Community\VC\Tools\MSVC\14.50.35717\include\xmemory
; File D:\Program Files\Microsoft Visual Studio\18\Community\VC\Tools\MSVC\14.50.35717\include\xstring
; File D:\Program Files\Microsoft Visual Studio\18\Community\VC\Tools\MSVC\14.50.35717\include\xmemory
; File D:\Program Files\Microsoft Visual Studio\18\Community\VC\Tools\MSVC\14.50.35717\include\xstring
; File D:\Program Files\Microsoft Visual Studio\18\Community\VC\Tools\MSVC\14.50.35717\include\xmemory
; File D:\Program Files\Microsoft Visual Studio\18\Community\VC\Tools\MSVC\14.50.35717\include\xstring
; File D:\Program Files\Microsoft Visual Studio\18\Community\VC\Tools\MSVC\14.50.35717\include\xmemory
; File D:\Program Files\Microsoft Visual Studio\18\Community\VC\Tools\MSVC\14.50.35717\include\xstring
;	COMDAT ??$_Allocate_for_capacity@$0A@@?$basic_string@DU?$char_traits@D@std@@V?$allocator@D@2@@std@@CAPADAAV?$allocator@D@1@AAI@Z
_TEXT	SEGMENT
__Al$ = 8						; size = 4
__Capacity$ = 12					; size = 4
??$_Allocate_for_capacity@$0A@@?$basic_string@DU?$char_traits@D@std@@V?$allocator@D@2@@std@@CAPADAAV?$allocator@D@1@AAI@Z PROC ; std::basic_string<char,std::char_traits<char>,std::allocator<char> >::_Allocate_for_capacity<0>, COMDAT

; 873  :     _NODISCARD static _CONSTEXPR20 pointer _Allocate_for_capacity(_Alty& _Al, size_type& _Capacity) {

  00000	55		 push	 ebp
  00001	8b ec		 mov	 ebp, esp
  00003	56		 push	 esi

; 874  :         _STL_INTERNAL_CHECK(_Capacity > _Small_string_capacity);
; 875  :         ++_Capacity; // Take null terminator into consideration

  00004	8b 75 0c	 mov	 esi, DWORD PTR __Capacity$[ebp]
  00007	83 06 01	 add	 DWORD PTR [esi], 1
  0000a	8b 06		 mov	 eax, DWORD PTR [esi]
; File D:\Program Files\Microsoft Visual Studio\18\Community\VC\Tools\MSVC\14.50.35717\include\xmemory

; 231  :     if (_Bytes == 0) {

  0000c	75 07		 jne	 SHORT $LN8@Allocate_f

; 232  :         return nullptr;

  0000e	33 c0		 xor	 eax, eax
; File D:\Program Files\Microsoft Visual Studio\18\Community\VC\Tools\MSVC\14.50.35717\include\xstring

; 895  :         --_Capacity;

  00010	ff 0e		 dec	 DWORD PTR [esi]

; 897  :     }

  00012	5e		 pop	 esi
  00013	5d		 pop	 ebp
  00014	c3		 ret	 0
$LN8@Allocate_f:
; File D:\Program Files\Microsoft Visual Studio\18\Community\VC\Tools\MSVC\14.50.35717\include\xmemory

; 255  :         if (_Bytes >= _Big_allocation_threshold) {

  00015	3d 00 10 00 00	 cmp	 eax, 4096		; 00001000H
  0001a	72 2b		 jb	 SHORT $LN9@Allocate_f

; 188  :     const size_t _Block_size = _Non_user_size + _Bytes;

  0001c	8d 48 23	 lea	 ecx, DWORD PTR [eax+35]

; 189  :     if (_Block_size <= _Bytes) {

  0001f	3b c8		 cmp	 ecx, eax
  00021	76 32		 jbe	 SHORT $LN29@Allocate_f

; 140  :         return ::operator new(_Bytes);

  00023	51		 push	 ecx
  00024	e8 00 00 00 00	 call	 ??2@YAPAXI@Z		; operator new

; 193  :     const uintptr_t _Ptr_container = reinterpret_cast<uintptr_t>(_Traits::_Allocate(_Block_size));

  00029	8b c8		 mov	 ecx, eax

; 140  :         return ::operator new(_Bytes);

  0002b	83 c4 04	 add	 esp, 4

; 194  :     _STL_VERIFY(_Ptr_container != 0, "invalid argument"); // validate even in release since we're doing p[-1]

  0002e	85 c9		 test	 ecx, ecx
  00030	75 07		 jne	 SHORT $LN13@Allocate_f
  00032	b9 05 00 00 00	 mov	 ecx, 5
  00037	cd 29		 int	 41			; 00000029H
$LN30@Allocate_f:
$LN13@Allocate_f:

; 195  :     void* const _Ptr = reinterpret_cast<void*>((_Ptr_container + _Non_user_size) & ~(_Big_allocation_alignment - 1));

  00039	8d 41 23	 lea	 eax, DWORD PTR [ecx+35]
  0003c	83 e0 e0	 and	 eax, -32		; ffffffe0H

; 196  :     static_cast<uintptr_t*>(_Ptr)[-1] = _Ptr_container;

  0003f	89 48 fc	 mov	 DWORD PTR [eax-4], ecx
; File D:\Program Files\Microsoft Visual Studio\18\Community\VC\Tools\MSVC\14.50.35717\include\xstring

; 895  :         --_Capacity;

  00042	ff 0e		 dec	 DWORD PTR [esi]

; 897  :     }

  00044	5e		 pop	 esi
  00045	5d		 pop	 ebp
  00046	c3		 ret	 0
$LN9@Allocate_f:
; File D:\Program Files\Microsoft Visual Studio\18\Community\VC\Tools\MSVC\14.50.35717\include\xmemory

; 140  :         return ::operator new(_Bytes);

  00047	50		 push	 eax
  00048	e8 00 00 00 00	 call	 ??2@YAPAXI@Z		; operator new
  0004d	83 c4 04	 add	 esp, 4
; File D:\Program Files\Microsoft Visual Studio\18\Community\VC\Tools\MSVC\14.50.35717\include\xstring

; 895  :         --_Capacity;

  00050	ff 0e		 dec	 DWORD PTR [esi]

; 897  :     }

  00052	5e		 pop	 esi
  00053	5d		 pop	 ebp
  00054	c3		 ret	 0
$LN29@Allocate_f:
; File D:\Program Files\Microsoft Visual Studio\18\Community\VC\Tools\MSVC\14.50.35717\include\xmemory

; 190  :         _Throw_bad_array_new_length(); // add overflow

  00055	e8 00 00 00 00	 call	 ?_Throw_bad_array_new_length@std@@YAXXZ ; std::_Throw_bad_array_new_length
$LN27@Allocate_f:
  0005a	cc		 int	 3
??$_Allocate_for_capacity@$0A@@?$basic_string@DU?$char_traits@D@std@@V?$allocator@D@2@@std@@CAPADAAV?$allocator@D@1@AAI@Z ENDP ; std::basic_string<char,std::char_traits<char>,std::allocator<char> >::_Allocate_for_capacity<0>
_TEXT	ENDS
; Function compile flags: /Ogtp
; File D:\Program Files\Microsoft Visual Studio\18\Community\VC\Tools\MSVC\14.50.35717\include\vector
; File D:\Program Files\Microsoft Visual Studio\18\Community\VC\Tools\MSVC\14.50.35717\include\xmemory
; File D:\Program Files\Microsoft Visual Studio\18\Community\VC\Tools\MSVC\14.50.35717\include\vector
; File D:\Program Files\Microsoft Visual Studio\18\Community\VC\Tools\MSVC\14.50.35717\include\xmemory
; File D:\Program Files\Microsoft Visual Studio\18\Community\VC\Tools\MSVC\14.50.35717\include\vector
; File D:\Program Files\Microsoft Visual Studio\18\Community\VC\Tools\MSVC\14.50.35717\include\xmemory
; File D:\Program Files\Microsoft Visual Studio\18\Community\VC\Tools\MSVC\14.50.35717\include\vector
;	COMDAT ??$_Emplace_reallocate@ABVTRecipient@@@?$vector@VTRecipient@@V?$allocator@VTRecipient@@@std@@@std@@AAEPAVTRecipient@@QAV2@ABV2@@Z
_TEXT	SEGMENT
__Guard$ = -48						; size = 20
tv500 = -28						; size = 4
__Bytes$1$ = -24					; size = 4
__Oldsize$1$ = -20					; size = 4
__Whereoff$1$ = -16					; size = 4
$T2 = -16						; size = 4
__$EHRec$ = -12						; size = 12
__Whereptr$ = 8						; size = 4
_<_Val_0>$ = 12						; size = 4
??$_Emplace_reallocate@ABVTRecipient@@@?$vector@VTRecipient@@V?$allocator@VTRecipient@@@std@@@std@@AAEPAVTRecipient@@QAV2@ABV2@@Z PROC ; std::vector<TRecipient,std::allocator<TRecipient> >::_Emplace_reallocate<TRecipient const &>, COMDAT
; _this$ = ecx

; 875  :     _CONSTEXPR20 pointer _Emplace_reallocate(const pointer _Whereptr, _Valty&&... _Val) {

  00000	55		 push	 ebp
  00001	8b ec		 mov	 ebp, esp
  00003	6a ff		 push	 -1
  00005	68 00 00 00 00	 push	 __ehhandler$??$_Emplace_reallocate@ABVTRecipient@@@?$vector@VTRecipient@@V?$allocator@VTRecipient@@@std@@@std@@AAEPAVTRecipient@@QAV2@ABV2@@Z
  0000a	64 a1 00 00 00
	00		 mov	 eax, DWORD PTR fs:0
  00010	50		 push	 eax
  00011	83 ec 24	 sub	 esp, 36			; 00000024H
  00014	53		 push	 ebx
  00015	56		 push	 esi
  00016	57		 push	 edi
  00017	a1 00 00 00 00	 mov	 eax, DWORD PTR ___security_cookie
  0001c	33 c5		 xor	 eax, ebp
  0001e	50		 push	 eax
  0001f	8d 45 f4	 lea	 eax, DWORD PTR __$EHRec$[ebp]
  00022	64 a3 00 00 00
	00		 mov	 DWORD PTR fs:0, eax
  00028	8b f9		 mov	 edi, ecx

; 876  :         // reallocate and insert by perfectly forwarding _Val at _Whereptr
; 877  :         _Alty& _Al        = _Getal();
; 878  :         auto& _My_data    = _Mypair._Myval2;
; 879  :         pointer& _Myfirst = _My_data._Myfirst;
; 880  :         pointer& _Mylast  = _My_data._Mylast;
; 881  : 
; 882  :         _STL_INTERNAL_CHECK(_Mylast == _My_data._Myend); // check that we have no unused capacity
; 883  : 
; 884  :         const auto _Whereoff = static_cast<size_type>(_Whereptr - _Myfirst);

  0002a	8b 1f		 mov	 ebx, DWORD PTR [edi]
  0002c	b8 ab aa aa 2a	 mov	 eax, 715827883		; 2aaaaaabH
  00031	8b 4d 08	 mov	 ecx, DWORD PTR __Whereptr$[ebp]
  00034	2b cb		 sub	 ecx, ebx
  00036	f7 e9		 imul	 ecx

; 885  :         const auto _Oldsize  = static_cast<size_type>(_Mylast - _Myfirst);

  00038	8b 4f 04	 mov	 ecx, DWORD PTR [edi+4]
  0003b	c1 fa 02	 sar	 edx, 2
  0003e	2b cb		 sub	 ecx, ebx
  00040	8b c2		 mov	 eax, edx
  00042	c1 e8 1f	 shr	 eax, 31			; 0000001fH
  00045	03 c2		 add	 eax, edx
  00047	89 45 f0	 mov	 DWORD PTR __Whereoff$1$[ebp], eax
  0004a	b8 ab aa aa 2a	 mov	 eax, 715827883		; 2aaaaaabH
  0004f	f7 e9		 imul	 ecx
  00051	c1 fa 02	 sar	 edx, 2
  00054	8b c2		 mov	 eax, edx
  00056	c1 e8 1f	 shr	 eax, 31			; 0000001fH
  00059	03 c2		 add	 eax, edx
  0005b	89 45 ec	 mov	 DWORD PTR __Oldsize$1$[ebp], eax

; 886  : 
; 887  :         if (_Oldsize == max_size()) {

  0005e	3d aa aa aa 0a	 cmp	 eax, 178956970		; 0aaaaaaaH
  00063	0f 84 85 01 00
	00		 je	 $LN81@Emplace_re

; 1924 :         return static_cast<size_type>(_My_data._Myend - _My_data._Myfirst);

  00069	8b 4f 08	 mov	 ecx, DWORD PTR [edi+8]

; 889  :         }
; 890  : 
; 891  :         const size_type _Newsize = _Oldsize + 1;

  0006c	8d 70 01	 lea	 esi, DWORD PTR [eax+1]

; 1924 :         return static_cast<size_type>(_My_data._Myend - _My_data._Myfirst);

  0006f	2b cb		 sub	 ecx, ebx
  00071	b8 ab aa aa 2a	 mov	 eax, 715827883		; 2aaaaaabH
  00076	f7 e9		 imul	 ecx

; 2011 :         if (_Oldcapacity > _Max - _Oldcapacity / 2) {

  00078	b8 aa aa aa 0a	 mov	 eax, 178956970		; 0aaaaaaaH

; 1924 :         return static_cast<size_type>(_My_data._Myend - _My_data._Myfirst);

  0007d	c1 fa 02	 sar	 edx, 2
  00080	8b ca		 mov	 ecx, edx
  00082	c1 e9 1f	 shr	 ecx, 31			; 0000001fH
  00085	03 ca		 add	 ecx, edx

; 2011 :         if (_Oldcapacity > _Max - _Oldcapacity / 2) {

  00087	8b d1		 mov	 edx, ecx
  00089	d1 ea		 shr	 edx, 1
  0008b	2b c2		 sub	 eax, edx
  0008d	3b c8		 cmp	 ecx, eax
  0008f	0f 87 54 01 00
	00		 ja	 $LN74@Emplace_re

; 2012 :             return _Max; // geometric growth would overflow
; 2013 :         }
; 2014 : 
; 2015 :         const size_type _Geometric = _Oldcapacity + _Oldcapacity / 2;

  00095	8d 04 0a	 lea	 eax, DWORD PTR [edx+ecx]
; File D:\Program Files\Microsoft Visual Studio\18\Community\VC\Tools\MSVC\14.50.35717\include\xmemory

; 121  :         if (_Count > _Max_possible) {

  00098	8b de		 mov	 ebx, esi
  0009a	3b c6		 cmp	 eax, esi
  0009c	0f 43 d8	 cmovae	 ebx, eax
  0009f	81 fb aa aa aa
	0a		 cmp	 ebx, 178956970		; 0aaaaaaaH
  000a5	0f 87 3e 01 00
	00		 ja	 $LN74@Emplace_re

; 122  :             _Throw_bad_array_new_length(); // multiply overflow
; 123  :         }
; 124  :     }
; 125  : 
; 126  :     return _Count * _Ty_size;

  000ab	8d 04 5b	 lea	 eax, DWORD PTR [ebx+ebx*2]
  000ae	c1 e0 03	 shl	 eax, 3
  000b1	89 45 e8	 mov	 DWORD PTR __Bytes$1$[ebp], eax

; 231  :     if (_Bytes == 0) {

  000b4	85 c0		 test	 eax, eax
  000b6	75 04		 jne	 SHORT $LN23@Emplace_re

; 232  :         return nullptr;

  000b8	33 f6		 xor	 esi, esi
  000ba	eb 39		 jmp	 SHORT $LN22@Emplace_re
$LN23@Emplace_re:

; 233  :     }
; 234  : 
; 235  : #if _HAS_CXX20 // TRANSITION, GH-1532
; 236  :     if (_STD is_constant_evaluated()) {
; 237  :         return _Traits::_Allocate(_Bytes);
; 238  :     }
; 239  : #endif // _HAS_CXX20
; 240  : 
; 241  : #ifdef __cpp_aligned_new
; 242  :     if constexpr (_Align > __STDCPP_DEFAULT_NEW_ALIGNMENT__) {
; 243  :         size_t _Passed_align = _Align;
; 244  : #if defined(_M_IX86) || defined(_M_X64)
; 245  :         if (_Bytes >= _Big_allocation_threshold) {
; 246  :             // boost the alignment of big allocations to help autovectorization
; 247  :             _Passed_align = (_STD max)(_Align, _Big_allocation_alignment);
; 248  :         }
; 249  : #endif // defined(_M_IX86) || defined(_M_X64)
; 250  :         return _Traits::_Allocate_aligned(_Bytes, _Passed_align);
; 251  :     } else
; 252  : #endif // defined(__cpp_aligned_new)
; 253  :     {
; 254  : #if defined(_M_IX86) || defined(_M_X64)
; 255  :         if (_Bytes >= _Big_allocation_threshold) {

  000bc	3d 00 10 00 00	 cmp	 eax, 4096		; 00001000H
  000c1	72 27		 jb	 SHORT $LN24@Emplace_re

; 188  :     const size_t _Block_size = _Non_user_size + _Bytes;

  000c3	8d 48 23	 lea	 ecx, DWORD PTR [eax+35]

; 189  :     if (_Block_size <= _Bytes) {

  000c6	3b c8		 cmp	 ecx, eax
  000c8	0f 86 1b 01 00
	00		 jbe	 $LN74@Emplace_re

; 140  :         return ::operator new(_Bytes);

  000ce	51		 push	 ecx
  000cf	e8 00 00 00 00	 call	 ??2@YAPAXI@Z		; operator new
  000d4	83 c4 04	 add	 esp, 4

; 194  :     _STL_VERIFY(_Ptr_container != 0, "invalid argument"); // validate even in release since we're doing p[-1]

  000d7	85 c0		 test	 eax, eax
  000d9	0f 84 03 01 00
	00		 je	 $LN50@Emplace_re

; 195  :     void* const _Ptr = reinterpret_cast<void*>((_Ptr_container + _Non_user_size) & ~(_Big_allocation_alignment - 1));

  000df	8d 70 23	 lea	 esi, DWORD PTR [eax+35]
  000e2	83 e6 e0	 and	 esi, -32		; ffffffe0H

; 196  :     static_cast<uintptr_t*>(_Ptr)[-1] = _Ptr_container;

  000e5	89 46 fc	 mov	 DWORD PTR [esi-4], eax

; 257  :             return _Allocate_manually_vector_aligned<_Traits>(_Bytes);

  000e8	eb 0b		 jmp	 SHORT $LN22@Emplace_re
$LN24@Emplace_re:

; 140  :         return ::operator new(_Bytes);

  000ea	50		 push	 eax
  000eb	e8 00 00 00 00	 call	 ??2@YAPAXI@Z		; operator new
  000f0	83 c4 04	 add	 esp, 4

; 260  :         return _Traits::_Allocate(_Bytes);

  000f3	8b f0		 mov	 esi, eax
$LN22@Emplace_re:
; File D:\Program Files\Microsoft Visual Studio\18\Community\VC\Tools\MSVC\14.50.35717\include\vector

; 895  :         const pointer _Constructed_last = _Newvec + _Whereoff + 1;

  000f5	8b 45 f0	 mov	 eax, DWORD PTR __Whereoff$1$[ebp]

; 896  : 
; 897  :         _Reallocation_guard _Guard{_Al, _Newvec, _Newcapacity, _Constructed_last, _Constructed_last};

  000f8	89 7d d0	 mov	 DWORD PTR __Guard$[ebp], edi
  000fb	89 75 d4	 mov	 DWORD PTR __Guard$[ebp+4], esi
  000fe	89 5d d8	 mov	 DWORD PTR __Guard$[ebp+8], ebx
  00101	8d 04 40	 lea	 eax, DWORD PTR [eax+eax*2]
  00104	8d 0c c6	 lea	 ecx, DWORD PTR [esi+eax*8]
  00107	8d 41 18	 lea	 eax, DWORD PTR [ecx+24]
  0010a	89 4d e4	 mov	 DWORD PTR tv500[ebp], ecx
  0010d	89 45 f0	 mov	 DWORD PTR $T2[ebp], eax
  00110	89 45 dc	 mov	 DWORD PTR __Guard$[ebp+12], eax
  00113	89 45 e0	 mov	 DWORD PTR __Guard$[ebp+16], eax

; 898  :         auto& _Constructed_first = _Guard._Constructed_first;
; 899  : 
; 900  :         _Alty_traits::construct(_Al, _STD _Unfancy(_Newvec + _Whereoff), _STD forward<_Valty>(_Val)...);

  00116	ff 75 0c	 push	 DWORD PTR _<_Val_0>$[ebp]
  00119	c7 45 fc 00 00
	00 00		 mov	 DWORD PTR __$EHRec$[ebp+8], 0
  00120	51		 push	 ecx
  00121	57		 push	 edi
  00122	e8 00 00 00 00	 call	 ??$construct@VTRecipient@@ABV1@@?$_Default_allocator_traits@V?$allocator@VTRecipient@@@std@@@std@@SAXAAV?$allocator@VTRecipient@@@1@QAVTRecipient@@ABV3@@Z ; std::_Default_allocator_traits<std::allocator<TRecipient> >::construct<TRecipient,TRecipient const &>

; 901  :         _Constructed_first = _Newvec + _Whereoff;
; 902  : 
; 903  :         if (_Whereptr == _Mylast) { // at back, provide strong guarantee

  00127	8b 5f 04	 mov	 ebx, DWORD PTR [edi+4]
  0012a	83 c4 0c	 add	 esp, 12			; 0000000cH
  0012d	8b 45 08	 mov	 eax, DWORD PTR __Whereptr$[ebp]
  00130	8b 17		 mov	 edx, DWORD PTR [edi]
  00132	3b c3		 cmp	 eax, ebx
  00134	75 04		 jne	 SHORT $LN3@Emplace_re

; 904  :             if constexpr (is_nothrow_move_constructible_v<_Ty> || !is_copy_constructible_v<_Ty>) {
; 905  :                 _STD _Uninitialized_move(_Myfirst, _Mylast, _Newvec, _Al);

  00136	8b c6		 mov	 eax, esi

; 906  :             } else {
; 907  :                 _STD _Uninitialized_copy(_Myfirst, _Mylast, _Newvec, _Al);
; 908  :             }
; 909  :         } else { // provide basic guarantee

  00138	eb 15		 jmp	 SHORT $LN79@Emplace_re
$LN3@Emplace_re:

; 910  :             _STD _Uninitialized_move(_Myfirst, _Whereptr, _Newvec, _Al);

  0013a	57		 push	 edi
  0013b	56		 push	 esi
  0013c	50		 push	 eax
  0013d	52		 push	 edx
  0013e	e8 00 00 00 00	 call	 ??$_Uninitialized_move@PAVTRecipient@@V?$allocator@VTRecipient@@@std@@@std@@YAPAVTRecipient@@QAV1@0PAV1@AAV?$allocator@VTRecipient@@@0@@Z ; std::_Uninitialized_move<TRecipient *,std::allocator<TRecipient> >

; 911  :             _Constructed_first = _Newvec;
; 912  :             _STD _Uninitialized_move(_Whereptr, _Mylast, _Newvec + _Whereoff + 1, _Al);

  00143	8b 55 08	 mov	 edx, DWORD PTR __Whereptr$[ebp]
  00146	83 c4 10	 add	 esp, 16			; 00000010H
  00149	8b 5f 04	 mov	 ebx, DWORD PTR [edi+4]
  0014c	8b 45 f0	 mov	 eax, DWORD PTR $T2[ebp]
$LN79@Emplace_re:

; 2064 :         pointer& _Mylast  = _My_data._Mylast;

  0014f	8b cf		 mov	 ecx, edi
  00151	51		 push	 ecx
  00152	50		 push	 eax
  00153	53		 push	 ebx
  00154	52		 push	 edx
  00155	e8 00 00 00 00	 call	 ??$_Uninitialized_move@PAVTRecipient@@V?$allocator@VTRecipient@@@std@@@std@@YAPAVTRecipient@@QAV1@0PAV1@AAV?$allocator@VTRecipient@@@0@@Z ; std::_Uninitialized_move<TRecipient *,std::allocator<TRecipient> >

; 2065 :         pointer& _Myend   = _My_data._Myend;
; 2066 : 
; 2067 :         _My_data._Orphan_all();
; 2068 : 
; 2069 :         if (_Myfirst) { // destroy and deallocate old array

  0015a	8b 0f		 mov	 ecx, DWORD PTR [edi]
  0015c	83 c4 10	 add	 esp, 16			; 00000010H
  0015f	85 c9		 test	 ecx, ecx
  00161	74 4f		 je	 SHORT $LN46@Emplace_re

; 2070 :             _STD _Destroy_range(_Myfirst, _Mylast, _Al);

  00163	57		 push	 edi
  00164	ff 77 04	 push	 DWORD PTR [edi+4]
  00167	51		 push	 ecx
  00168	e8 00 00 00 00	 call	 ??$_Destroy_range@V?$allocator@VTRecipient@@@std@@@std@@YAXPAVTRecipient@@QAV1@AAV?$allocator@VTRecipient@@@0@@Z ; std::_Destroy_range<std::allocator<TRecipient> >

; 2071 :             _ASAN_VECTOR_REMOVE;
; 2072 :             _Al.deallocate(_Myfirst, static_cast<size_type>(_Myend - _Myfirst));

  0016d	8b 4f 08	 mov	 ecx, DWORD PTR [edi+8]
  00170	b8 ab aa aa 2a	 mov	 eax, 715827883		; 2aaaaaabH
  00175	8b 1f		 mov	 ebx, DWORD PTR [edi]
  00177	83 c4 0c	 add	 esp, 12			; 0000000cH
  0017a	2b cb		 sub	 ecx, ebx
  0017c	f7 e9		 imul	 ecx
  0017e	c1 fa 02	 sar	 edx, 2
  00181	8b c2		 mov	 eax, edx
  00183	c1 e8 1f	 shr	 eax, 31			; 0000001fH
  00186	03 c2		 add	 eax, edx
; File D:\Program Files\Microsoft Visual Studio\18\Community\VC\Tools\MSVC\14.50.35717\include\xmemory

; 989  :         _STD _Deallocate<_New_alignof<_Ty>>(_Ptr, sizeof(_Ty) * _Count);

  00188	8d 0c 40	 lea	 ecx, DWORD PTR [eax+eax*2]
  0018b	c1 e1 03	 shl	 ecx, 3

; 288  :         if (_Bytes >= _Big_allocation_threshold) {

  0018e	81 f9 00 10 00
	00		 cmp	 ecx, 4096		; 00001000H
  00194	72 12		 jb	 SHORT $LN51@Emplace_re

; 209  :     const uintptr_t _Ptr_container   = _Ptr_user[-1];

  00196	8b 53 fc	 mov	 edx, DWORD PTR [ebx-4]
  00199	83 c1 23	 add	 ecx, 35			; 00000023H

; 210  : 
; 211  :     // If the following asserts, it likely means that we are performing
; 212  :     // an aligned delete on memory coming from an unaligned allocation.
; 213  :     _STL_ASSERT(_Ptr_user[-2] == _Big_allocation_sentinel, "invalid argument");
; 214  : 
; 215  :     // Extra paranoia on aligned allocation/deallocation; ensure _Ptr_container is
; 216  :     // in range [_Min_back_shift, _Non_user_size]
; 217  : #ifdef _DEBUG
; 218  :     constexpr uintptr_t _Min_back_shift = 2 * sizeof(void*);
; 219  : #else // ^^^ defined(_DEBUG) / !defined(_DEBUG) vvv
; 220  :     constexpr uintptr_t _Min_back_shift = sizeof(void*);
; 221  : #endif // ^^^ !defined(_DEBUG) ^^^
; 222  :     const uintptr_t _Back_shift = reinterpret_cast<uintptr_t>(_Ptr) - _Ptr_container;

  0019c	2b da		 sub	 ebx, edx

; 223  :     _STL_VERIFY(_Back_shift >= _Min_back_shift && _Back_shift <= _Non_user_size, "invalid argument");

  0019e	8d 43 fc	 lea	 eax, DWORD PTR [ebx-4]
  001a1	83 f8 1f	 cmp	 eax, 31			; 0000001fH
  001a4	77 3c		 ja	 SHORT $LN50@Emplace_re

; 224  :     _Ptr = reinterpret_cast<void*>(_Ptr_container);

  001a6	8b da		 mov	 ebx, edx
$LN51@Emplace_re:

; 293  :         ::operator delete(_Ptr, _Bytes);

  001a8	51		 push	 ecx
  001a9	53		 push	 ebx
  001aa	e8 00 00 00 00	 call	 ??3@YAXPAXI@Z		; operator delete
  001af	83 c4 08	 add	 esp, 8
$LN46@Emplace_re:
; File D:\Program Files\Microsoft Visual Studio\18\Community\VC\Tools\MSVC\14.50.35717\include\vector

; 2076 :         _Mylast  = _Newvec + _Newsize;

  001b2	8b 4d ec	 mov	 ecx, DWORD PTR __Oldsize$1$[ebp]

; 913  :         }
; 914  : 
; 915  :         _Guard._New_begin = nullptr;
; 916  :         _Change_array(_Newvec, _Newsize, _Newcapacity);
; 917  :         return _Newvec + _Whereoff;

  001b5	8b 45 e4	 mov	 eax, DWORD PTR tv500[ebp]

; 2075 :         _Myfirst = _Newvec;

  001b8	89 37		 mov	 DWORD PTR [edi], esi

; 2076 :         _Mylast  = _Newvec + _Newsize;

  001ba	8d 0c 49	 lea	 ecx, DWORD PTR [ecx+ecx*2]
  001bd	8d 49 03	 lea	 ecx, DWORD PTR [ecx+3]
  001c0	8d 0c ce	 lea	 ecx, DWORD PTR [esi+ecx*8]
  001c3	89 4f 04	 mov	 DWORD PTR [edi+4], ecx

; 2077 :         _Myend   = _Newvec + _Newcapacity;

  001c6	8b 4d e8	 mov	 ecx, DWORD PTR __Bytes$1$[ebp]
  001c9	03 ce		 add	 ecx, esi
  001cb	89 4f 08	 mov	 DWORD PTR [edi+8], ecx

; 918  :     }

  001ce	8b 4d f4	 mov	 ecx, DWORD PTR __$EHRec$[ebp]
  001d1	64 89 0d 00 00
	00 00		 mov	 DWORD PTR fs:0, ecx
  001d8	59		 pop	 ecx
  001d9	5f		 pop	 edi
  001da	5e		 pop	 esi
  001db	5b		 pop	 ebx
  001dc	8b e5		 mov	 esp, ebp
  001de	5d		 pop	 ebp
  001df	c2 08 00	 ret	 8
$LN50@Emplace_re:
; File D:\Program Files\Microsoft Visual Studio\18\Community\VC\Tools\MSVC\14.50.35717\include\xmemory

; 223  :     _STL_VERIFY(_Back_shift >= _Min_back_shift && _Back_shift <= _Non_user_size, "invalid argument");

  001e2	b9 05 00 00 00	 mov	 ecx, 5
  001e7	cd 29		 int	 41			; 00000029H
$LN82@Emplace_re:
$LN74@Emplace_re:

; 190  :         _Throw_bad_array_new_length(); // add overflow

  001e9	e8 00 00 00 00	 call	 ?_Throw_bad_array_new_length@std@@YAXXZ ; std::_Throw_bad_array_new_length
$LN81@Emplace_re:
; File D:\Program Files\Microsoft Visual Studio\18\Community\VC\Tools\MSVC\14.50.35717\include\vector

; 888  :             _Xlength();

  001ee	e8 00 00 00 00	 call	 ?_Xlength@?$vector@VTRecipient@@V?$allocator@VTRecipient@@@std@@@std@@CAXXZ ; std::vector<TRecipient,std::allocator<TRecipient> >::_Xlength
$LN78@Emplace_re:
  001f3	cc		 int	 3
_TEXT	ENDS
;	COMDAT text$x
text$x	SEGMENT
__unwindfunclet$??$_Emplace_reallocate@ABVTRecipient@@@?$vector@VTRecipient@@V?$allocator@VTRecipient@@@std@@@std@@AAEPAVTRecipient@@QAV2@ABV2@@Z$0:
  00000	8d 4d d0	 lea	 ecx, DWORD PTR __Guard$[ebp]
  00003	e9 00 00 00 00	 jmp	 ??1_Reallocation_guard@?$vector@VTRecipient@@V?$allocator@VTRecipient@@@std@@@std@@QAE@XZ ; std::vector<TRecipient,std::allocator<TRecipient> >::_Reallocation_guard::~_Reallocation_guard
  00008	cc		 int	 3
  00009	cc		 int	 3
  0000a	cc		 int	 3
  0000b	cc		 int	 3
  0000c	cc		 int	 3
__ehhandler$??$_Emplace_reallocate@ABVTRecipient@@@?$vector@VTRecipient@@V?$allocator@VTRecipient@@@std@@@std@@AAEPAVTRecipient@@QAV2@ABV2@@Z:
  0000d	90		 npad	 1
  0000e	90		 npad	 1
  0000f	8b 54 24 08	 mov	 edx, DWORD PTR [esp+8]
  00013	8d 42 0c	 lea	 eax, DWORD PTR [edx+12]
  00016	8b 4a cc	 mov	 ecx, DWORD PTR [edx-52]
  00019	33 c8		 xor	 ecx, eax
  0001b	e8 00 00 00 00	 call	 @__security_check_cookie@4
  00020	b8 00 00 00 00	 mov	 eax, OFFSET __ehfuncinfo$??$_Emplace_reallocate@ABVTRecipient@@@?$vector@VTRecipient@@V?$allocator@VTRecipient@@@std@@@std@@AAEPAVTRecipient@@QAV2@ABV2@@Z
  00025	e9 00 00 00 00	 jmp	 ___CxxFrameHandler3
text$x	ENDS
??$_Emplace_reallocate@ABVTRecipient@@@?$vector@VTRecipient@@V?$allocator@VTRecipient@@@std@@@std@@AAEPAVTRecipient@@QAV2@ABV2@@Z ENDP ; std::vector<TRecipient,std::allocator<TRecipient> >::_Emplace_reallocate<TRecipient const &>
; Function compile flags: /Ogtp
; File D:\Program Files\Microsoft Visual Studio\18\Community\VC\Tools\MSVC\14.50.35717\include\xmemory
; File D:\Program Files\Microsoft Visual Studio\18\Community\VC\Tools\MSVC\14.50.35717\include\xstring
; File D:\Program Files\Microsoft Visual Studio\18\Community\VC\Tools\MSVC\14.50.35717\include\xmemory
; File D:\Program Files\Microsoft Visual Studio\18\Community\VC\Tools\MSVC\14.50.35717\include\xstring
; File D:\Program Files\Microsoft Visual Studio\18\Community\VC\Tools\MSVC\14.50.35717\include\xmemory
; File D:\Program Files\Microsoft Visual Studio\18\Community\VC\Tools\MSVC\14.50.35717\include\xstring
; File D:\Program Files\Microsoft Visual Studio\18\Community\VC\Tools\MSVC\14.50.35717\include\__msvc_string_view.hpp
; File D:\Program Files\Microsoft Visual Studio\18\Community\VC\Tools\MSVC\14.50.35717\include\xmemory
; File D:\Program Files\Microsoft Visual Studio\18\Community\VC\Tools\MSVC\14.50.35717\include\xstring
; File D:\Program Files\Microsoft Visual Studio\18\Community\VC\Tools\MSVC\14.50.35717\include\__msvc_string_view.hpp
; File D:\Program Files\Microsoft Visual Studio\18\Community\VC\Tools\MSVC\14.50.35717\include\xstring
; File D:\Program Files\Microsoft Visual Studio\18\Community\VC\Tools\MSVC\14.50.35717\include\__msvc_string_view.hpp
; File D:\Program Files\Microsoft Visual Studio\18\Community\VC\Tools\MSVC\14.50.35717\include\xmemory
; File D:\Program Files\Microsoft Visual Studio\18\Community\VC\Tools\MSVC\14.50.35717\include\xstring
; File D:\Program Files\Microsoft Visual Studio\18\Community\VC\Tools\MSVC\14.50.35717\include\xmemory
;	COMDAT ??$construct@VTRecipient@@ABV1@@?$_Default_allocator_traits@V?$allocator@VTRecipient@@@std@@@std@@SAXAAV?$allocator@VTRecipient@@@1@QAVTRecipient@@ABV3@@Z
_TEXT	SEGMENT
___formal$ = 8						; size = 4
__Ptr$ = 12						; size = 4
__New_capacity$1 = 12					; size = 4
_<_Args_0>$ = 16					; size = 4
??$construct@VTRecipient@@ABV1@@?$_Default_allocator_traits@V?$allocator@VTRecipient@@@std@@@std@@SAXAAV?$allocator@VTRecipient@@@1@QAVTRecipient@@ABV3@@Z PROC ; std::_Default_allocator_traits<std::allocator<TRecipient> >::construct<TRecipient,TRecipient const &>, COMDAT

; 732  :     static _CONSTEXPR20 void construct(_Alloc&, _Objty* const _Ptr, _Types&&... _Args) {

  00000	55		 push	 ebp
  00001	8b ec		 mov	 ebp, esp
  00003	53		 push	 ebx
; File D:\Program Files\Microsoft Visual Studio\18\Community\VC\Tools\MSVC\14.50.35717\include\xstring

; 493  :         _CONSTEXPR20 _Bxty() noexcept : _Buf() {} // user-provided, for fancy pointers

  00004	33 c0		 xor	 eax, eax
; File D:\Program Files\Microsoft Visual Studio\18\Community\VC\Tools\MSVC\14.50.35717\include\xmemory

; 732  :     static _CONSTEXPR20 void construct(_Alloc&, _Objty* const _Ptr, _Types&&... _Args) {

  00006	56		 push	 esi
; File D:\Program Files\Microsoft Visual Studio\18\Community\VC\Tools\MSVC\14.50.35717\include\xstring

; 493  :         _CONSTEXPR20 _Bxty() noexcept : _Buf() {} // user-provided, for fancy pointers

  00007	8b 75 0c	 mov	 esi, DWORD PTR __Ptr$[ebp]
; File D:\Program Files\Microsoft Visual Studio\18\Community\VC\Tools\MSVC\14.50.35717\include\xmemory

; 732  :     static _CONSTEXPR20 void construct(_Alloc&, _Objty* const _Ptr, _Types&&... _Args) {

  0000a	57		 push	 edi
; File D:\Program Files\Microsoft Visual Studio\18\Community\VC\Tools\MSVC\14.50.35717\include\xstring

; 444  :         const value_type* _Result = _Bx._Buf;

  0000b	8b 7d 10	 mov	 edi, DWORD PTR _<_Args_0>$[ebp]
  0000e	8b df		 mov	 ebx, edi

; 493  :         _CONSTEXPR20 _Bxty() noexcept : _Buf() {} // user-provided, for fancy pointers

  00010	89 06		 mov	 DWORD PTR [esi], eax
  00012	89 46 04	 mov	 DWORD PTR [esi+4], eax
  00015	89 46 08	 mov	 DWORD PTR [esi+8], eax
  00018	89 46 0c	 mov	 DWORD PTR [esi+12], eax

; 517  :     size_type _Mysize = 0; // current length of string (size)

  0001b	89 46 10	 mov	 DWORD PTR [esi+16], eax

; 518  :     size_type _Myres  = 0; // current storage reserved for string (capacity)

  0001e	89 46 14	 mov	 DWORD PTR [esi+20], eax

; 453  :         return _Myres > _Small_string_capacity;

  00021	83 7f 14 0f	 cmp	 DWORD PTR [edi+20], 15	; 0000000fH

; 445  :         if (_Large_mode_engaged()) {

  00025	76 02		 jbe	 SHORT $LN22@construct

; 446  :             _Result = _Unfancy(_Bx._Ptr);

  00027	8b 1f		 mov	 ebx, DWORD PTR [edi]
$LN22@construct:

; 768  :         _Construct<_Construct_strategy::_From_string>(_Right._Mypair._Myval2._Myptr(), _Right._Mypair._Myval2._Mysize);

  00029	8b 7f 10	 mov	 edi, DWORD PTR [edi+16]

; 931  :         if (_Count > max_size()) {

  0002c	81 ff ff ff ff
	7f		 cmp	 edi, 2147483647		; 7fffffffH
  00032	77 72		 ja	 SHORT $LN58@construct

; 933  :         }
; 934  : 
; 935  :         auto& _Al     = _Getal();
; 936  :         auto _Alproxy = _STD _Get_proxy_allocator(_Al);
; 937  :         _Container_proxy_ptr<_Alty> _Proxy(_Alproxy, _My_data);
; 938  : 
; 939  :         if (_Count <= _Small_string_capacity) {

  00034	83 ff 0f	 cmp	 edi, 15			; 0000000fH
  00037	77 25		 ja	 SHORT $LN30@construct

; 940  :             _My_data._Mysize = _Count;

  00039	89 7e 10	 mov	 DWORD PTR [esi+16], edi

; 941  :             _My_data._Myres  = _Small_string_capacity;

  0003c	c7 46 14 0f 00
	00 00		 mov	 DWORD PTR [esi+20], 15	; 0000000fH
; File D:\Program Files\Microsoft Visual Studio\18\Community\VC\Tools\MSVC\14.50.35717\include\__msvc_string_view.hpp

; 200  :         _CSTD memcpy(_First1, _First2, _Count * sizeof(_Elem));

  00043	8b 03		 mov	 eax, DWORD PTR [ebx]
  00045	89 06		 mov	 DWORD PTR [esi], eax
  00047	8b 43 04	 mov	 eax, DWORD PTR [ebx+4]
  0004a	89 46 04	 mov	 DWORD PTR [esi+4], eax
  0004d	8b 43 08	 mov	 eax, DWORD PTR [ebx+8]
  00050	89 46 08	 mov	 DWORD PTR [esi+8], eax
  00053	8b 43 0c	 mov	 eax, DWORD PTR [ebx+12]
  00056	5f		 pop	 edi
  00057	89 46 0c	 mov	 DWORD PTR [esi+12], eax
; File D:\Program Files\Microsoft Visual Studio\18\Community\VC\Tools\MSVC\14.50.35717\include\xmemory

; 738  :     }

  0005a	5e		 pop	 esi
  0005b	5b		 pop	 ebx
  0005c	5d		 pop	 ebp
  0005d	c3		 ret	 0
$LN30@construct:
; File D:\Program Files\Microsoft Visual Studio\18\Community\VC\Tools\MSVC\14.50.35717\include\xstring

; 2885 :         const size_type _Masked = _Requested | _Alloc_mask;

  0005e	8b c7		 mov	 eax, edi
  00060	83 c8 0f	 or	 eax, 15			; 0000000fH
  00063	3d ff ff ff 7f	 cmp	 eax, 2147483647		; 7fffffffH

; 2886 :         if (_Masked > _Max) { // the mask overflows, settle for max_size()

  00068	76 07		 jbe	 SHORT $LN39@construct

; 2887 :             return _Max;

  0006a	b8 ff ff ff 7f	 mov	 eax, 2147483647		; 7fffffffH
  0006f	eb 0a		 jmp	 SHORT $LN38@construct
$LN39@construct:

; 2888 :         }
; 2889 : 
; 2890 :         if (_Old > _Max - _Old / 2) { // similarly, geometric overflows
; 2891 :             return _Max;
; 2892 :         }
; 2893 : 
; 2894 :         return (_STD max)(_Masked, _Old + _Old / 2);

  00071	b9 16 00 00 00	 mov	 ecx, 22			; 00000016H
  00076	3b c1		 cmp	 eax, ecx
  00078	0f 42 c1	 cmovb	 eax, ecx
$LN38@construct:

; 961  :         size_type _New_capacity = _Calculate_growth(_Count, _Small_string_capacity, max_size());

  0007b	89 45 0c	 mov	 DWORD PTR __New_capacity$1[ebp], eax

; 962  :         const pointer _New_ptr  = _Allocate_for_capacity(_Al, _New_capacity); // throws

  0007e	8d 45 0c	 lea	 eax, DWORD PTR __New_capacity$1[ebp]
  00081	50		 push	 eax
  00082	56		 push	 esi
  00083	e8 00 00 00 00	 call	 ??$_Allocate_for_capacity@$0A@@?$basic_string@DU?$char_traits@D@std@@V?$allocator@D@2@@std@@CAPADAAV?$allocator@D@1@AAI@Z ; std::basic_string<char,std::char_traits<char>,std::allocator<char> >::_Allocate_for_capacity<0>

; 966  :         _My_data._Myres  = _New_capacity;

  00088	8b 4d 0c	 mov	 ecx, DWORD PTR __New_capacity$1[ebp]
  0008b	89 4e 14	 mov	 DWORD PTR [esi+20], ecx

; 967  :         if constexpr (_Strat == _Construct_strategy::_From_char) {
; 968  :             _Traits::assign(_Unfancy(_New_ptr), _Count, _Arg);
; 969  :             _Traits::assign(_Unfancy(_New_ptr)[_Count], _Elem());
; 970  :         } else if constexpr (_Strat == _Construct_strategy::_From_ptr) {
; 971  :             _STD _Traits_copy_batch<_Traits>(_Unfancy(_New_ptr), _Arg, _Count);
; 972  :             _Traits::assign(_Unfancy(_New_ptr)[_Count], _Elem());
; 973  :         } else { // _Strat == _Construct_strategy::_From_string
; 974  :             _Traits::copy(_Unfancy(_New_ptr), _Arg, _Count + 1);

  0008e	8d 4f 01	 lea	 ecx, DWORD PTR [edi+1]
; File D:\Program Files\Microsoft Visual Studio\18\Community\VC\Tools\MSVC\14.50.35717\include\__msvc_string_view.hpp

; 200  :         _CSTD memcpy(_First1, _First2, _Count * sizeof(_Elem));

  00091	51		 push	 ecx
  00092	53		 push	 ebx
  00093	50		 push	 eax
; File D:\Program Files\Microsoft Visual Studio\18\Community\VC\Tools\MSVC\14.50.35717\include\xstring

; 963  :         _Construct_in_place(_My_data._Bx._Ptr, _New_ptr);

  00094	89 06		 mov	 DWORD PTR [esi], eax

; 964  : 
; 965  :         _My_data._Mysize = _Count;

  00096	89 7e 10	 mov	 DWORD PTR [esi+16], edi
; File D:\Program Files\Microsoft Visual Studio\18\Community\VC\Tools\MSVC\14.50.35717\include\__msvc_string_view.hpp

; 200  :         _CSTD memcpy(_First1, _First2, _Count * sizeof(_Elem));

  00099	e8 00 00 00 00	 call	 _memcpy
  0009e	83 c4 14	 add	 esp, 20			; 00000014H
  000a1	5f		 pop	 edi
; File D:\Program Files\Microsoft Visual Studio\18\Community\VC\Tools\MSVC\14.50.35717\include\xmemory

; 738  :     }

  000a2	5e		 pop	 esi
  000a3	5b		 pop	 ebx
  000a4	5d		 pop	 ebp
  000a5	c3		 ret	 0
$LN58@construct:
; File D:\Program Files\Microsoft Visual Studio\18\Community\VC\Tools\MSVC\14.50.35717\include\xstring

; 932  :             _Xlen_string(); // result too long

  000a6	e8 00 00 00 00	 call	 ?_Xlen_string@std@@YAXXZ ; std::_Xlen_string
$LN56@construct:
  000ab	cc		 int	 3
??$construct@VTRecipient@@ABV1@@?$_Default_allocator_traits@V?$allocator@VTRecipient@@@std@@@std@@SAXAAV?$allocator@VTRecipient@@@1@QAVTRecipient@@ABV3@@Z ENDP ; std::_Default_allocator_traits<std::allocator<TRecipient> >::construct<TRecipient,TRecipient const &>
_TEXT	ENDS
; Function compile flags: /Ogtp
; File D:\Program Files\Microsoft Visual Studio\18\Community\VC\Tools\MSVC\14.50.35717\include\vector
; File D:\Program Files\Microsoft Visual Studio\18\Community\VC\Tools\MSVC\14.50.35717\include\xmemory
; File D:\Program Files\Microsoft Visual Studio\18\Community\VC\Tools\MSVC\14.50.35717\include\vector
; File D:\Program Files\Microsoft Visual Studio\18\Community\VC\Tools\MSVC\14.50.35717\include\xmemory
; File D:\Program Files\Microsoft Visual Studio\18\Community\VC\Tools\MSVC\14.50.35717\include\vector
; File D:\Program Files\Microsoft Visual Studio\18\Community\VC\Tools\MSVC\14.50.35717\include\xmemory
; File D:\Program Files\Microsoft Visual Studio\18\Community\VC\Tools\MSVC\14.50.35717\include\vector
; File D:\Program Files\Microsoft Visual Studio\18\Community\VC\Tools\MSVC\14.50.35717\include\xmemory
; File D:\Program Files\Microsoft Visual Studio\18\Community\VC\Tools\MSVC\14.50.35717\include\vector
; File D:\Program Files\Microsoft Visual Studio\18\Community\VC\Tools\MSVC\14.50.35717\include\xutility
; File D:\Program Files\Microsoft Visual Studio\18\Community\VC\Tools\MSVC\14.50.35717\include\vector
; File D:\Program Files\Microsoft Visual Studio\18\Community\VC\Tools\MSVC\14.50.35717\include\xutility
; File D:\Program Files\Microsoft Visual Studio\18\Community\VC\Tools\MSVC\14.50.35717\include\vector
; File D:\Program Files\Microsoft Visual Studio\18\Community\VC\Tools\MSVC\14.50.35717\include\xutility
; File D:\Program Files\Microsoft Visual Studio\18\Community\VC\Tools\MSVC\14.50.35717\include\vector
; File D:\Program Files\Microsoft Visual Studio\18\Community\VC\Tools\MSVC\14.50.35717\include\xutility
; File D:\Program Files\Microsoft Visual Studio\18\Community\VC\Tools\MSVC\14.50.35717\include\vector
; File D:\Program Files\Microsoft Visual Studio\18\Community\VC\Tools\MSVC\14.50.35717\include\xmemory
; File D:\Program Files\Microsoft Visual Studio\18\Community\VC\Tools\MSVC\14.50.35717\include\vector
; File D:\Program Files\Microsoft Visual Studio\18\Community\VC\Tools\MSVC\14.50.35717\include\xmemory
; File D:\Program Files\Microsoft Visual Studio\18\Community\VC\Tools\MSVC\14.50.35717\include\vector
;	COMDAT ??$_Emplace_reallocate@ABVTAttach@@@?$vector@VTAttach@@V?$allocator@VTAttach@@@std@@@std@@AAEPAVTAttach@@QAV2@ABV2@@Z
_TEXT	SEGMENT
__Newsize$1$ = -16					; size = 4
_this$1$ = -12						; size = 4
__Whereoff$1$ = -8					; size = 4
tv794 = -8						; size = 4
__Bytes$2$ = -4						; size = 4
__Whereptr$ = 8						; size = 4
_<_Val_0>$ = 12						; size = 4
??$_Emplace_reallocate@ABVTAttach@@@?$vector@VTAttach@@V?$allocator@VTAttach@@@std@@@std@@AAEPAVTAttach@@QAV2@ABV2@@Z PROC ; std::vector<TAttach,std::allocator<TAttach> >::_Emplace_reallocate<TAttach const &>, COMDAT
; _this$ = ecx

; 875  :     _CONSTEXPR20 pointer _Emplace_reallocate(const pointer _Whereptr, _Valty&&... _Val) {

  00000	55		 push	 ebp
  00001	8b ec		 mov	 ebp, esp
  00003	83 ec 10	 sub	 esp, 16			; 00000010H

; 876  :         // reallocate and insert by perfectly forwarding _Val at _Whereptr
; 877  :         _Alty& _Al        = _Getal();
; 878  :         auto& _My_data    = _Mypair._Myval2;
; 879  :         pointer& _Myfirst = _My_data._Myfirst;
; 880  :         pointer& _Mylast  = _My_data._Mylast;
; 881  : 
; 882  :         _STL_INTERNAL_CHECK(_Mylast == _My_data._Myend); // check that we have no unused capacity
; 883  : 
; 884  :         const auto _Whereoff = static_cast<size_type>(_Whereptr - _Myfirst);

  00006	8b 55 08	 mov	 edx, DWORD PTR __Whereptr$[ebp]
  00009	b8 e1 83 0f 3e	 mov	 eax, 1041204193		; 3e0f83e1H
  0000e	53		 push	 ebx
  0000f	56		 push	 esi
  00010	8b f1		 mov	 esi, ecx
  00012	57		 push	 edi
  00013	89 75 f4	 mov	 DWORD PTR _this$1$[ebp], esi
  00016	8b 3e		 mov	 edi, DWORD PTR [esi]
  00018	2b d7		 sub	 edx, edi

; 885  :         const auto _Oldsize  = static_cast<size_type>(_Mylast - _Myfirst);

  0001a	8b 4e 04	 mov	 ecx, DWORD PTR [esi+4]
  0001d	f7 ea		 imul	 edx
  0001f	2b cf		 sub	 ecx, edi
  00021	c1 fa 06	 sar	 edx, 6
  00024	8b c2		 mov	 eax, edx
  00026	c1 e8 1f	 shr	 eax, 31			; 0000001fH
  00029	03 c2		 add	 eax, edx
  0002b	89 45 f8	 mov	 DWORD PTR __Whereoff$1$[ebp], eax
  0002e	b8 e1 83 0f 3e	 mov	 eax, 1041204193		; 3e0f83e1H
  00033	f7 e9		 imul	 ecx
  00035	c1 fa 06	 sar	 edx, 6
  00038	8b c2		 mov	 eax, edx
  0003a	c1 e8 1f	 shr	 eax, 31			; 0000001fH
  0003d	03 c2		 add	 eax, edx

; 886  : 
; 887  :         if (_Oldsize == max_size()) {

  0003f	3d 0f 3e f8 00	 cmp	 eax, 16268815		; 00f83e0fH
  00044	0f 84 68 01 00
	00		 je	 $LN142@Emplace_re

; 1924 :         return static_cast<size_type>(_My_data._Myend - _My_data._Myfirst);

  0004a	8b 4e 08	 mov	 ecx, DWORD PTR [esi+8]

; 889  :         }
; 890  : 
; 891  :         const size_type _Newsize = _Oldsize + 1;

  0004d	8d 58 01	 lea	 ebx, DWORD PTR [eax+1]

; 1924 :         return static_cast<size_type>(_My_data._Myend - _My_data._Myfirst);

  00050	2b cf		 sub	 ecx, edi

; 889  :         }
; 890  : 
; 891  :         const size_type _Newsize = _Oldsize + 1;

  00052	89 5d f0	 mov	 DWORD PTR __Newsize$1$[ebp], ebx

; 1924 :         return static_cast<size_type>(_My_data._Myend - _My_data._Myfirst);

  00055	b8 e1 83 0f 3e	 mov	 eax, 1041204193		; 3e0f83e1H
  0005a	f7 e9		 imul	 ecx

; 2011 :         if (_Oldcapacity > _Max - _Oldcapacity / 2) {

  0005c	b8 0f 3e f8 00	 mov	 eax, 16268815		; 00f83e0fH

; 1924 :         return static_cast<size_type>(_My_data._Myend - _My_data._Myfirst);

  00061	c1 fa 06	 sar	 edx, 6
  00064	8b ca		 mov	 ecx, edx
  00066	c1 e9 1f	 shr	 ecx, 31			; 0000001fH
  00069	03 ca		 add	 ecx, edx

; 2011 :         if (_Oldcapacity > _Max - _Oldcapacity / 2) {

  0006b	8b d1		 mov	 edx, ecx
  0006d	d1 ea		 shr	 edx, 1
  0006f	2b c2		 sub	 eax, edx
  00071	3b c8		 cmp	 ecx, eax
  00073	76 11		 jbe	 SHORT $LN8@Emplace_re

; 2012 :             return _Max; // geometric growth would overflow

  00075	b8 78 ff ff ff	 mov	 eax, -136		; ffffff78H
  0007a	c7 45 fc 78 ff
	ff ff		 mov	 DWORD PTR __Bytes$2$[ebp], -136 ; ffffff78H
  00081	83 c0 23	 add	 eax, 35			; 00000023H
  00084	eb 36		 jmp	 SHORT $LN27@Emplace_re
$LN8@Emplace_re:

; 2013 :         }
; 2014 : 
; 2015 :         const size_type _Geometric = _Oldcapacity + _Oldcapacity / 2;

  00086	8d 04 0a	 lea	 eax, DWORD PTR [edx+ecx]
; File D:\Program Files\Microsoft Visual Studio\18\Community\VC\Tools\MSVC\14.50.35717\include\xmemory

; 121  :         if (_Count > _Max_possible) {

  00089	8b cb		 mov	 ecx, ebx
  0008b	3b c3		 cmp	 eax, ebx
  0008d	0f 43 c8	 cmovae	 ecx, eax
  00090	81 f9 0f 3e f8
	00		 cmp	 ecx, 16268815		; 00f83e0fH
  00096	0f 87 11 01 00
	00		 ja	 $LN128@Emplace_re

; 122  :             _Throw_bad_array_new_length(); // multiply overflow
; 123  :         }
; 124  :     }
; 125  : 
; 126  :     return _Count * _Ty_size;

  0009c	69 d9 08 01 00
	00		 imul	 ebx, ecx, 264
  000a2	89 5d fc	 mov	 DWORD PTR __Bytes$2$[ebp], ebx

; 231  :     if (_Bytes == 0) {

  000a5	85 db		 test	 ebx, ebx
  000a7	74 3a		 je	 SHORT $LN22@Emplace_re
$LN23@Emplace_re:

; 232  :         return nullptr;
; 233  :     }
; 234  : 
; 235  : #if _HAS_CXX20 // TRANSITION, GH-1532
; 236  :     if (_STD is_constant_evaluated()) {
; 237  :         return _Traits::_Allocate(_Bytes);
; 238  :     }
; 239  : #endif // _HAS_CXX20
; 240  : 
; 241  : #ifdef __cpp_aligned_new
; 242  :     if constexpr (_Align > __STDCPP_DEFAULT_NEW_ALIGNMENT__) {
; 243  :         size_t _Passed_align = _Align;
; 244  : #if defined(_M_IX86) || defined(_M_X64)
; 245  :         if (_Bytes >= _Big_allocation_threshold) {
; 246  :             // boost the alignment of big allocations to help autovectorization
; 247  :             _Passed_align = (_STD max)(_Align, _Big_allocation_alignment);
; 248  :         }
; 249  : #endif // defined(_M_IX86) || defined(_M_X64)
; 250  :         return _Traits::_Allocate_aligned(_Bytes, _Passed_align);
; 251  :     } else
; 252  : #endif // defined(__cpp_aligned_new)
; 253  :     {
; 254  : #if defined(_M_IX86) || defined(_M_X64)
; 255  :         if (_Bytes >= _Big_allocation_threshold) {

  000a9	81 fb 00 10 00
	00		 cmp	 ebx, 4096		; 00001000H
  000af	72 27		 jb	 SHORT $LN24@Emplace_re

; 188  :     const size_t _Block_size = _Non_user_size + _Bytes;

  000b1	8d 43 23	 lea	 eax, DWORD PTR [ebx+35]

; 189  :     if (_Block_size <= _Bytes) {

  000b4	3b c3		 cmp	 eax, ebx
  000b6	0f 86 f1 00 00
	00		 jbe	 $LN128@Emplace_re
$LN27@Emplace_re:

; 140  :         return ::operator new(_Bytes);

  000bc	50		 push	 eax
  000bd	e8 00 00 00 00	 call	 ??2@YAPAXI@Z		; operator new
  000c2	83 c4 04	 add	 esp, 4

; 194  :     _STL_VERIFY(_Ptr_container != 0, "invalid argument"); // validate even in release since we're doing p[-1]

  000c5	85 c0		 test	 eax, eax
  000c7	0f 84 d9 00 00
	00		 je	 $LN103@Emplace_re

; 195  :     void* const _Ptr = reinterpret_cast<void*>((_Ptr_container + _Non_user_size) & ~(_Big_allocation_alignment - 1));

  000cd	8d 58 23	 lea	 ebx, DWORD PTR [eax+35]
  000d0	83 e3 e0	 and	 ebx, -32		; ffffffe0H

; 196  :     static_cast<uintptr_t*>(_Ptr)[-1] = _Ptr_container;

  000d3	89 43 fc	 mov	 DWORD PTR [ebx-4], eax

; 257  :             return _Allocate_manually_vector_aligned<_Traits>(_Bytes);

  000d6	eb 0b		 jmp	 SHORT $LN22@Emplace_re
$LN24@Emplace_re:

; 140  :         return ::operator new(_Bytes);

  000d8	53		 push	 ebx
  000d9	e8 00 00 00 00	 call	 ??2@YAPAXI@Z		; operator new
  000de	83 c4 04	 add	 esp, 4

; 260  :         return _Traits::_Allocate(_Bytes);

  000e1	8b d8		 mov	 ebx, eax
$LN22@Emplace_re:
; File D:\Program Files\Microsoft Visual Studio\18\Community\VC\Tools\MSVC\14.50.35717\include\vector

; 900  :         _Alty_traits::construct(_Al, _STD _Unfancy(_Newvec + _Whereoff), _STD forward<_Valty>(_Val)...);

  000e3	69 45 f8 08 01
	00 00		 imul	 eax, DWORD PTR __Whereoff$1$[ebp], 264
; File D:\Program Files\Microsoft Visual Studio\18\Community\VC\Tools\MSVC\14.50.35717\include\xmemory

; 736  :         ::new (const_cast<void*>(static_cast<const volatile void*>(_Ptr))) _Objty(_STD forward<_Types>(_Args)...);

  000ea	b9 42 00 00 00	 mov	 ecx, 66			; 00000042H
  000ef	8b 75 0c	 mov	 esi, DWORD PTR _<_Val_0>$[ebp]
; File D:\Program Files\Microsoft Visual Studio\18\Community\VC\Tools\MSVC\14.50.35717\include\vector

; 900  :         _Alty_traits::construct(_Al, _STD _Unfancy(_Newvec + _Whereoff), _STD forward<_Valty>(_Val)...);

  000f2	03 c3		 add	 eax, ebx
; File D:\Program Files\Microsoft Visual Studio\18\Community\VC\Tools\MSVC\14.50.35717\include\xmemory

; 736  :         ::new (const_cast<void*>(static_cast<const volatile void*>(_Ptr))) _Objty(_STD forward<_Types>(_Args)...);

  000f4	8b f8		 mov	 edi, eax
; File D:\Program Files\Microsoft Visual Studio\18\Community\VC\Tools\MSVC\14.50.35717\include\vector

; 900  :         _Alty_traits::construct(_Al, _STD _Unfancy(_Newvec + _Whereoff), _STD forward<_Valty>(_Val)...);

  000f6	89 45 f8	 mov	 DWORD PTR tv794[ebp], eax
; File D:\Program Files\Microsoft Visual Studio\18\Community\VC\Tools\MSVC\14.50.35717\include\xmemory

; 736  :         ::new (const_cast<void*>(static_cast<const volatile void*>(_Ptr))) _Objty(_STD forward<_Types>(_Args)...);

  000f9	f3 a5		 rep movsd
; File D:\Program Files\Microsoft Visual Studio\18\Community\VC\Tools\MSVC\14.50.35717\include\vector

; 903  :         if (_Whereptr == _Mylast) { // at back, provide strong guarantee

  000fb	8b 7d f4	 mov	 edi, DWORD PTR _this$1$[ebp]
  000fe	8b 75 08	 mov	 esi, DWORD PTR __Whereptr$[ebp]
  00101	8b 47 04	 mov	 eax, DWORD PTR [edi+4]
  00104	8b 0f		 mov	 ecx, DWORD PTR [edi]
  00106	3b f0		 cmp	 esi, eax
  00108	75 0f		 jne	 SHORT $LN3@Emplace_re
; File D:\Program Files\Microsoft Visual Studio\18\Community\VC\Tools\MSVC\14.50.35717\include\xutility

; 4880 :     const auto _Byte_count   = static_cast<size_t>(_Last_ch - _First_ch);

  0010a	2b c1		 sub	 eax, ecx

; 4862 :     _CSTD memmove(_Dest_ch, _First_ch, _Byte_count);

  0010c	50		 push	 eax
  0010d	51		 push	 ecx
  0010e	53		 push	 ebx
  0010f	e8 00 00 00 00	 call	 _memmove
  00114	83 c4 0c	 add	 esp, 12			; 0000000cH
; File D:\Program Files\Microsoft Visual Studio\18\Community\VC\Tools\MSVC\14.50.35717\include\vector

; 909  :         } else { // provide basic guarantee

  00117	eb 25		 jmp	 SHORT $LN73@Emplace_re
$LN3@Emplace_re:
; File D:\Program Files\Microsoft Visual Studio\18\Community\VC\Tools\MSVC\14.50.35717\include\xutility

; 4880 :     const auto _Byte_count   = static_cast<size_t>(_Last_ch - _First_ch);

  00119	8b c6		 mov	 eax, esi
  0011b	2b c1		 sub	 eax, ecx

; 4862 :     _CSTD memmove(_Dest_ch, _First_ch, _Byte_count);

  0011d	50		 push	 eax
  0011e	51		 push	 ecx
  0011f	53		 push	 ebx
  00120	e8 00 00 00 00	 call	 _memmove
; File D:\Program Files\Microsoft Visual Studio\18\Community\VC\Tools\MSVC\14.50.35717\include\vector

; 912  :             _STD _Uninitialized_move(_Whereptr, _Mylast, _Newvec + _Whereoff + 1, _Al);

  00125	8b 47 04	 mov	 eax, DWORD PTR [edi+4]
  00128	8b 4d f8	 mov	 ecx, DWORD PTR tv794[ebp]
; File D:\Program Files\Microsoft Visual Studio\18\Community\VC\Tools\MSVC\14.50.35717\include\xutility

; 4880 :     const auto _Byte_count   = static_cast<size_t>(_Last_ch - _First_ch);

  0012b	2b c6		 sub	 eax, esi

; 4862 :     _CSTD memmove(_Dest_ch, _First_ch, _Byte_count);

  0012d	50		 push	 eax
; File D:\Program Files\Microsoft Visual Studio\18\Community\VC\Tools\MSVC\14.50.35717\include\vector

; 912  :             _STD _Uninitialized_move(_Whereptr, _Mylast, _Newvec + _Whereoff + 1, _Al);

  0012e	81 c1 08 01 00
	00		 add	 ecx, 264		; 00000108H
; File D:\Program Files\Microsoft Visual Studio\18\Community\VC\Tools\MSVC\14.50.35717\include\xutility

; 4862 :     _CSTD memmove(_Dest_ch, _First_ch, _Byte_count);

  00134	56		 push	 esi
  00135	51		 push	 ecx
  00136	e8 00 00 00 00	 call	 _memmove
  0013b	83 c4 18	 add	 esp, 24			; 00000018H
$LN73@Emplace_re:
; File D:\Program Files\Microsoft Visual Studio\18\Community\VC\Tools\MSVC\14.50.35717\include\vector

; 2069 :         if (_Myfirst) { // destroy and deallocate old array

  0013e	8b 37		 mov	 esi, DWORD PTR [edi]
  00140	85 f6		 test	 esi, esi
  00142	74 40		 je	 SHORT $LN99@Emplace_re

; 2070 :             _STD _Destroy_range(_Myfirst, _Mylast, _Al);
; 2071 :             _ASAN_VECTOR_REMOVE;
; 2072 :             _Al.deallocate(_Myfirst, static_cast<size_type>(_Myend - _Myfirst));

  00144	8b 4f 08	 mov	 ecx, DWORD PTR [edi+8]
  00147	b8 e1 83 0f 3e	 mov	 eax, 1041204193		; 3e0f83e1H
  0014c	2b ce		 sub	 ecx, esi
  0014e	f7 e9		 imul	 ecx
  00150	c1 fa 06	 sar	 edx, 6
  00153	8b c2		 mov	 eax, edx
  00155	c1 e8 1f	 shr	 eax, 31			; 0000001fH
  00158	03 c2		 add	 eax, edx
; File D:\Program Files\Microsoft Visual Studio\18\Community\VC\Tools\MSVC\14.50.35717\include\xmemory

; 989  :         _STD _Deallocate<_New_alignof<_Ty>>(_Ptr, sizeof(_Ty) * _Count);

  0015a	69 c8 08 01 00
	00		 imul	 ecx, eax, 264

; 288  :         if (_Bytes >= _Big_allocation_threshold) {

  00160	81 f9 00 10 00
	00		 cmp	 ecx, 4096		; 00001000H
  00166	72 12		 jb	 SHORT $LN104@Emplace_re

; 209  :     const uintptr_t _Ptr_container   = _Ptr_user[-1];

  00168	8b 56 fc	 mov	 edx, DWORD PTR [esi-4]
  0016b	83 c1 23	 add	 ecx, 35			; 00000023H

; 210  : 
; 211  :     // If the following asserts, it likely means that we are performing
; 212  :     // an aligned delete on memory coming from an unaligned allocation.
; 213  :     _STL_ASSERT(_Ptr_user[-2] == _Big_allocation_sentinel, "invalid argument");
; 214  : 
; 215  :     // Extra paranoia on aligned allocation/deallocation; ensure _Ptr_container is
; 216  :     // in range [_Min_back_shift, _Non_user_size]
; 217  : #ifdef _DEBUG
; 218  :     constexpr uintptr_t _Min_back_shift = 2 * sizeof(void*);
; 219  : #else // ^^^ defined(_DEBUG) / !defined(_DEBUG) vvv
; 220  :     constexpr uintptr_t _Min_back_shift = sizeof(void*);
; 221  : #endif // ^^^ !defined(_DEBUG) ^^^
; 222  :     const uintptr_t _Back_shift = reinterpret_cast<uintptr_t>(_Ptr) - _Ptr_container;

  0016e	2b f2		 sub	 esi, edx

; 223  :     _STL_VERIFY(_Back_shift >= _Min_back_shift && _Back_shift <= _Non_user_size, "invalid argument");

  00170	8d 46 fc	 lea	 eax, DWORD PTR [esi-4]
  00173	83 f8 1f	 cmp	 eax, 31			; 0000001fH
  00176	77 2e		 ja	 SHORT $LN103@Emplace_re

; 224  :     _Ptr = reinterpret_cast<void*>(_Ptr_container);

  00178	8b f2		 mov	 esi, edx
$LN104@Emplace_re:

; 293  :         ::operator delete(_Ptr, _Bytes);

  0017a	51		 push	 ecx
  0017b	56		 push	 esi
  0017c	e8 00 00 00 00	 call	 ??3@YAXPAXI@Z		; operator delete
  00181	83 c4 08	 add	 esp, 8
$LN99@Emplace_re:
; File D:\Program Files\Microsoft Visual Studio\18\Community\VC\Tools\MSVC\14.50.35717\include\vector

; 2076 :         _Mylast  = _Newvec + _Newsize;

  00184	69 4d f0 08 01
	00 00		 imul	 ecx, DWORD PTR __Newsize$1$[ebp], 264

; 913  :         }
; 914  : 
; 915  :         _Guard._New_begin = nullptr;
; 916  :         _Change_array(_Newvec, _Newsize, _Newcapacity);
; 917  :         return _Newvec + _Whereoff;

  0018b	8b 45 f8	 mov	 eax, DWORD PTR tv794[ebp]

; 2075 :         _Myfirst = _Newvec;

  0018e	89 1f		 mov	 DWORD PTR [edi], ebx

; 2076 :         _Mylast  = _Newvec + _Newsize;

  00190	03 cb		 add	 ecx, ebx
  00192	89 4f 04	 mov	 DWORD PTR [edi+4], ecx

; 2077 :         _Myend   = _Newvec + _Newcapacity;

  00195	8b 4d fc	 mov	 ecx, DWORD PTR __Bytes$2$[ebp]
  00198	03 cb		 add	 ecx, ebx
  0019a	89 4f 08	 mov	 DWORD PTR [edi+8], ecx

; 918  :     }

  0019d	5f		 pop	 edi
  0019e	5e		 pop	 esi
  0019f	5b		 pop	 ebx
  001a0	8b e5		 mov	 esp, ebp
  001a2	5d		 pop	 ebp
  001a3	c2 08 00	 ret	 8
$LN103@Emplace_re:
; File D:\Program Files\Microsoft Visual Studio\18\Community\VC\Tools\MSVC\14.50.35717\include\xmemory

; 223  :     _STL_VERIFY(_Back_shift >= _Min_back_shift && _Back_shift <= _Non_user_size, "invalid argument");

  001a6	b9 05 00 00 00	 mov	 ecx, 5
  001ab	cd 29		 int	 41			; 00000029H
$LN143@Emplace_re:
$LN128@Emplace_re:

; 190  :         _Throw_bad_array_new_length(); // add overflow

  001ad	e8 00 00 00 00	 call	 ?_Throw_bad_array_new_length@std@@YAXXZ ; std::_Throw_bad_array_new_length
$LN142@Emplace_re:
; File D:\Program Files\Microsoft Visual Studio\18\Community\VC\Tools\MSVC\14.50.35717\include\vector

; 888  :             _Xlength();

  001b2	e8 00 00 00 00	 call	 ?_Xlength@?$vector@VTAttach@@V?$allocator@VTAttach@@@std@@@std@@CAXXZ ; std::vector<TAttach,std::allocator<TAttach> >::_Xlength
$LN140@Emplace_re:
  001b7	cc		 int	 3
??$_Emplace_reallocate@ABVTAttach@@@?$vector@VTAttach@@V?$allocator@VTAttach@@@std@@@std@@AAEPAVTAttach@@QAV2@ABV2@@Z ENDP ; std::vector<TAttach,std::allocator<TAttach> >::_Emplace_reallocate<TAttach const &>
_TEXT	ENDS
; Function compile flags: /Ogtp
; File D:\Program Files\Microsoft Visual Studio\18\Community\VC\Tools\MSVC\14.50.35717\include\xstring
; File D:\Program Files\Microsoft Visual Studio\18\Community\VC\Tools\MSVC\14.50.35717\include\__msvc_string_view.hpp
; File D:\Program Files\Microsoft Visual Studio\18\Community\VC\Tools\MSVC\14.50.35717\include\xstring
; File D:\Program Files\Microsoft Visual Studio\18\Community\VC\Tools\MSVC\14.50.35717\include\__msvc_string_view.hpp
; File D:\Program Files\Microsoft Visual Studio\18\Community\VC\Tools\MSVC\14.50.35717\include\xstring
; File D:\Program Files\Microsoft Visual Studio\18\Community\VC\Tools\MSVC\14.50.35717\include\__msvc_string_view.hpp
; File D:\Program Files\Microsoft Visual Studio\18\Community\VC\Tools\MSVC\14.50.35717\include\xstring
; File D:\Program Files\Microsoft Visual Studio\18\Community\VC\Tools\MSVC\14.50.35717\include\__msvc_string_view.hpp
; File D:\Program Files\Microsoft Visual Studio\18\Community\VC\Tools\MSVC\14.50.35717\include\xstring
; File D:\Program Files\Microsoft Visual Studio\18\Community\VC\Tools\MSVC\14.50.35717\include\__msvc_string_view.hpp
; File D:\Program Files\Microsoft Visual Studio\18\Community\VC\Tools\MSVC\14.50.35717\include\xstring
; File D:\Program Files\Microsoft Visual Studio\18\Community\VC\Tools\MSVC\14.50.35717\include\__msvc_string_view.hpp
; File D:\Program Files\Microsoft Visual Studio\18\Community\VC\Tools\MSVC\14.50.35717\include\xstring
;	COMDAT ??$_Construct@$00PBD@?$basic_string@DU?$char_traits@D@std@@V?$allocator@D@2@@std@@AAEXQBDI@Z
_TEXT	SEGMENT
__Arg$ = 8						; size = 4
__Count$ = 12						; size = 4
__New_capacity$ = 12					; size = 4
??$_Construct@$00PBD@?$basic_string@DU?$char_traits@D@std@@V?$allocator@D@2@@std@@AAEXQBDI@Z PROC ; std::basic_string<char,std::char_traits<char>,std::allocator<char> >::_Construct<1,char const *>, COMDAT
; _this$ = ecx

; 921  :     _CONSTEXPR20 void _Construct(const _Char_or_ptr _Arg, _CRT_GUARDOVERFLOW const size_type _Count) {

  00000	55		 push	 ebp
  00001	8b ec		 mov	 ebp, esp
  00003	53		 push	 ebx
  00004	57		 push	 edi

; 922  :         auto& _My_data = _Mypair._Myval2;
; 923  :         _STL_INTERNAL_CHECK(!_My_data._Large_mode_engaged());
; 924  : 
; 925  :         if constexpr (_Strat == _Construct_strategy::_From_char) {
; 926  :             _STL_INTERNAL_STATIC_ASSERT(is_same_v<_Char_or_ptr, _Elem>);
; 927  :         } else {
; 928  :             _STL_INTERNAL_STATIC_ASSERT(_Is_elem_cvptr<_Char_or_ptr>::value);
; 929  :         }
; 930  : 
; 931  :         if (_Count > max_size()) {

  00005	8b 7d 0c	 mov	 edi, DWORD PTR __Count$[ebp]
  00008	8b d9		 mov	 ebx, ecx
  0000a	81 ff ff ff ff
	7f		 cmp	 edi, 2147483647		; 7fffffffH
  00010	77 76		 ja	 SHORT $LN33@Construct

; 933  :         }
; 934  : 
; 935  :         auto& _Al     = _Getal();
; 936  :         auto _Alproxy = _STD _Get_proxy_allocator(_Al);
; 937  :         _Container_proxy_ptr<_Alty> _Proxy(_Alproxy, _My_data);
; 938  : 
; 939  :         if (_Count <= _Small_string_capacity) {

  00012	83 ff 0f	 cmp	 edi, 15			; 0000000fH
  00015	77 21		 ja	 SHORT $LN3@Construct
; File D:\Program Files\Microsoft Visual Studio\18\Community\VC\Tools\MSVC\14.50.35717\include\__msvc_string_view.hpp

; 200  :         _CSTD memcpy(_First1, _First2, _Count * sizeof(_Elem));

  00017	57		 push	 edi
  00018	ff 75 08	 push	 DWORD PTR __Arg$[ebp]
; File D:\Program Files\Microsoft Visual Studio\18\Community\VC\Tools\MSVC\14.50.35717\include\xstring

; 940  :             _My_data._Mysize = _Count;

  0001b	89 7b 10	 mov	 DWORD PTR [ebx+16], edi
; File D:\Program Files\Microsoft Visual Studio\18\Community\VC\Tools\MSVC\14.50.35717\include\__msvc_string_view.hpp

; 200  :         _CSTD memcpy(_First1, _First2, _Count * sizeof(_Elem));

  0001e	53		 push	 ebx
; File D:\Program Files\Microsoft Visual Studio\18\Community\VC\Tools\MSVC\14.50.35717\include\xstring

; 941  :             _My_data._Myres  = _Small_string_capacity;

  0001f	c7 43 14 0f 00
	00 00		 mov	 DWORD PTR [ebx+20], 15	; 0000000fH
; File D:\Program Files\Microsoft Visual Studio\18\Community\VC\Tools\MSVC\14.50.35717\include\__msvc_string_view.hpp

; 200  :         _CSTD memcpy(_First1, _First2, _Count * sizeof(_Elem));

  00026	e8 00 00 00 00	 call	 _memcpy
  0002b	83 c4 0c	 add	 esp, 12			; 0000000cH
; File D:\Program Files\Microsoft Visual Studio\18\Community\VC\Tools\MSVC\14.50.35717\include\xstring

; 948  :                 _Traits::assign(_My_data._Bx._Buf[_Count], _Elem());

  0002e	c6 04 1f 00	 mov	 BYTE PTR [edi+ebx], 0
  00032	5f		 pop	 edi

; 973  :         } else { // _Strat == _Construct_strategy::_From_string
; 974  :             _Traits::copy(_Unfancy(_New_ptr), _Arg, _Count + 1);
; 975  :         }
; 976  : 
; 977  :         _ASAN_STRING_CREATE(*this);
; 978  :         _Proxy._Release();
; 979  :     }

  00033	5b		 pop	 ebx
  00034	5d		 pop	 ebp
  00035	c2 08 00	 ret	 8
$LN3@Construct:

; 2885 :         const size_type _Masked = _Requested | _Alloc_mask;

  00038	8b c7		 mov	 eax, edi
  0003a	83 c8 0f	 or	 eax, 15			; 0000000fH
  0003d	3d ff ff ff 7f	 cmp	 eax, 2147483647		; 7fffffffH

; 2886 :         if (_Masked > _Max) { // the mask overflows, settle for max_size()

  00042	76 07		 jbe	 SHORT $LN15@Construct

; 2887 :             return _Max;

  00044	b8 ff ff ff 7f	 mov	 eax, 2147483647		; 7fffffffH
  00049	eb 0a		 jmp	 SHORT $LN14@Construct
$LN15@Construct:

; 2888 :         }
; 2889 : 
; 2890 :         if (_Old > _Max - _Old / 2) { // similarly, geometric overflows
; 2891 :             return _Max;
; 2892 :         }
; 2893 : 
; 2894 :         return (_STD max)(_Masked, _Old + _Old / 2);

  0004b	b9 16 00 00 00	 mov	 ecx, 22			; 00000016H
  00050	3b c1		 cmp	 eax, ecx
  00052	0f 42 c1	 cmovb	 eax, ecx
$LN14@Construct:

; 949  :             } else { // _Strat == _Construct_strategy::_From_string
; 950  : #ifdef _INSERT_STRING_ANNOTATION
; 951  :                 _Traits::copy(_My_data._Bx._Buf, _Arg, _Count + 1);
; 952  : #else // ^^^ _INSERT_STRING_ANNOTATION / !_INSERT_STRING_ANNOTATION vvv
; 953  :                 _Traits::copy(_My_data._Bx._Buf, _Arg, _BUF_SIZE);
; 954  : #endif // ^^^ !_INSERT_STRING_ANNOTATION ^^^
; 955  :             }
; 956  : 
; 957  :             _Proxy._Release();
; 958  :             return;
; 959  :         }
; 960  : 
; 961  :         size_type _New_capacity = _Calculate_growth(_Count, _Small_string_capacity, max_size());

  00055	89 45 0c	 mov	 DWORD PTR __New_capacity$[ebp], eax

; 962  :         const pointer _New_ptr  = _Allocate_for_capacity(_Al, _New_capacity); // throws

  00058	8d 45 0c	 lea	 eax, DWORD PTR __New_capacity$[ebp]
  0005b	56		 push	 esi
  0005c	50		 push	 eax
  0005d	53		 push	 ebx
  0005e	e8 00 00 00 00	 call	 ??$_Allocate_for_capacity@$0A@@?$basic_string@DU?$char_traits@D@std@@V?$allocator@D@2@@std@@CAPADAAV?$allocator@D@1@AAI@Z ; std::basic_string<char,std::char_traits<char>,std::allocator<char> >::_Allocate_for_capacity<0>

; 966  :         _My_data._Myres  = _New_capacity;

  00063	8b 4d 0c	 mov	 ecx, DWORD PTR __New_capacity$[ebp]
  00066	8b f0		 mov	 esi, eax
; File D:\Program Files\Microsoft Visual Studio\18\Community\VC\Tools\MSVC\14.50.35717\include\__msvc_string_view.hpp

; 200  :         _CSTD memcpy(_First1, _First2, _Count * sizeof(_Elem));

  00068	57		 push	 edi
  00069	ff 75 08	 push	 DWORD PTR __Arg$[ebp]
; File D:\Program Files\Microsoft Visual Studio\18\Community\VC\Tools\MSVC\14.50.35717\include\xstring

; 963  :         _Construct_in_place(_My_data._Bx._Ptr, _New_ptr);

  0006c	89 33		 mov	 DWORD PTR [ebx], esi
; File D:\Program Files\Microsoft Visual Studio\18\Community\VC\Tools\MSVC\14.50.35717\include\__msvc_string_view.hpp

; 200  :         _CSTD memcpy(_First1, _First2, _Count * sizeof(_Elem));

  0006e	56		 push	 esi
; File D:\Program Files\Microsoft Visual Studio\18\Community\VC\Tools\MSVC\14.50.35717\include\xstring

; 965  :         _My_data._Mysize = _Count;

  0006f	89 7b 10	 mov	 DWORD PTR [ebx+16], edi

; 966  :         _My_data._Myres  = _New_capacity;

  00072	89 4b 14	 mov	 DWORD PTR [ebx+20], ecx
; File D:\Program Files\Microsoft Visual Studio\18\Community\VC\Tools\MSVC\14.50.35717\include\__msvc_string_view.hpp

; 200  :         _CSTD memcpy(_First1, _First2, _Count * sizeof(_Elem));

  00075	e8 00 00 00 00	 call	 _memcpy
  0007a	83 c4 14	 add	 esp, 20			; 00000014H
; File D:\Program Files\Microsoft Visual Studio\18\Community\VC\Tools\MSVC\14.50.35717\include\xstring

; 972  :             _Traits::assign(_Unfancy(_New_ptr)[_Count], _Elem());

  0007d	c6 04 3e 00	 mov	 BYTE PTR [esi+edi], 0
  00081	5e		 pop	 esi
  00082	5f		 pop	 edi

; 973  :         } else { // _Strat == _Construct_strategy::_From_string
; 974  :             _Traits::copy(_Unfancy(_New_ptr), _Arg, _Count + 1);
; 975  :         }
; 976  : 
; 977  :         _ASAN_STRING_CREATE(*this);
; 978  :         _Proxy._Release();
; 979  :     }

  00083	5b		 pop	 ebx
  00084	5d		 pop	 ebp
  00085	c2 08 00	 ret	 8
$LN33@Construct:

; 932  :             _Xlen_string(); // result too long

  00088	e8 00 00 00 00	 call	 ?_Xlen_string@std@@YAXXZ ; std::_Xlen_string
$LN31@Construct:
  0008d	cc		 int	 3
??$_Construct@$00PBD@?$basic_string@DU?$char_traits@D@std@@V?$allocator@D@2@@std@@AAEXQBDI@Z ENDP ; std::basic_string<char,std::char_traits<char>,std::allocator<char> >::_Construct<1,char const *>
_TEXT	ENDS
; Function compile flags: /Ogtp
;	COMDAT ??_Ei3SMTPMail@@UAEPAXI@Z
_TEXT	SEGMENT
__$EHRec$ = -12						; size = 12
___flags$ = 8						; size = 4
??_Ei3SMTPMail@@UAEPAXI@Z PROC				; i3SMTPMail::`vector deleting destructor', COMDAT
; _this$ = ecx
  00000	55		 push	 ebp
  00001	8b ec		 mov	 ebp, esp
  00003	6a ff		 push	 -1
  00005	68 00 00 00 00	 push	 __ehhandler$??_Ei3SMTPMail@@UAEPAXI@Z
  0000a	64 a1 00 00 00
	00		 mov	 eax, DWORD PTR fs:0
  00010	50		 push	 eax
  00011	53		 push	 ebx
  00012	56		 push	 esi
  00013	57		 push	 edi
  00014	a1 00 00 00 00	 mov	 eax, DWORD PTR ___security_cookie
  00019	33 c5		 xor	 eax, ebp
  0001b	50		 push	 eax
  0001c	8d 45 f4	 lea	 eax, DWORD PTR __$EHRec$[ebp]
  0001f	64 a3 00 00 00
	00		 mov	 DWORD PTR fs:0, eax
  00025	8b f1		 mov	 esi, ecx
  00027	8b 45 08	 mov	 eax, DWORD PTR ___flags$[ebp]
  0002a	8b f8		 mov	 edi, eax
  0002c	83 e7 01	 and	 edi, 1
  0002f	a8 02		 test	 al, 2
  00031	74 43		 je	 SHORT $LN2@vector
  00033	68 00 00 00 00	 push	 OFFSET ??1i3SMTPMail@@UAE@XZ ; i3SMTPMail::~i3SMTPMail
  00038	ff 76 fc	 push	 DWORD PTR [esi-4]
  0003b	8d 5e fc	 lea	 ebx, DWORD PTR [esi-4]
  0003e	68 d0 01 00 00	 push	 464			; 000001d0H
  00043	56		 push	 esi
  00044	e8 00 00 00 00	 call	 ??_M@YGXPAXIIP6EX0@Z@Z
  00049	85 ff		 test	 edi, edi
  0004b	74 13		 je	 SHORT $LN3@vector
  0004d	69 0b d0 01 00
	00		 imul	 ecx, DWORD PTR [ebx], 464
  00053	83 c1 04	 add	 ecx, 4
  00056	51		 push	 ecx
  00057	53		 push	 ebx
  00058	e8 00 00 00 00	 call	 ??_V@YAXPAXI@Z		; operator delete[]
  0005d	83 c4 08	 add	 esp, 8
$LN3@vector:
  00060	8b c3		 mov	 eax, ebx
  00062	8b 4d f4	 mov	 ecx, DWORD PTR __$EHRec$[ebp]
  00065	64 89 0d 00 00
	00 00		 mov	 DWORD PTR fs:0, ecx
  0006c	59		 pop	 ecx
  0006d	5f		 pop	 edi
  0006e	5e		 pop	 esi
  0006f	5b		 pop	 ebx
  00070	8b e5		 mov	 esp, ebp
  00072	5d		 pop	 ebp
  00073	c2 04 00	 ret	 4
$LN2@vector:
  00076	e8 00 00 00 00	 call	 ??1i3SMTPMail@@UAE@XZ	; i3SMTPMail::~i3SMTPMail
  0007b	85 ff		 test	 edi, edi
  0007d	74 0e		 je	 SHORT $LN4@vector
  0007f	68 d0 01 00 00	 push	 464			; 000001d0H
  00084	56		 push	 esi
  00085	e8 00 00 00 00	 call	 ??3@YAXPAXI@Z		; operator delete
  0008a	83 c4 08	 add	 esp, 8
$LN4@vector:
  0008d	8b c6		 mov	 eax, esi
  0008f	8b 4d f4	 mov	 ecx, DWORD PTR __$EHRec$[ebp]
  00092	64 89 0d 00 00
	00 00		 mov	 DWORD PTR fs:0, ecx
  00099	59		 pop	 ecx
  0009a	5f		 pop	 edi
  0009b	5e		 pop	 esi
  0009c	5b		 pop	 ebx
  0009d	8b e5		 mov	 esp, ebp
  0009f	5d		 pop	 ebp
  000a0	c2 04 00	 ret	 4
  000a3	cc		 int	 3
  000a4	cc		 int	 3
  000a5	cc		 int	 3
  000a6	cc		 int	 3
  000a7	cc		 int	 3
_TEXT	ENDS
;	COMDAT text$x
text$x	SEGMENT
__ehhandler$??_Ei3SMTPMail@@UAEPAXI@Z:
  00000	90		 npad	 1
  00001	90		 npad	 1
  00002	8b 54 24 08	 mov	 edx, DWORD PTR [esp+8]
  00006	8d 42 0c	 lea	 eax, DWORD PTR [edx+12]
  00009	8b 4a f0	 mov	 ecx, DWORD PTR [edx-16]
  0000c	33 c8		 xor	 ecx, eax
  0000e	e8 00 00 00 00	 call	 @__security_check_cookie@4
  00013	b8 00 00 00 00	 mov	 eax, OFFSET __ehfuncinfo$??_Ei3SMTPMail@@UAEPAXI@Z
  00018	e9 00 00 00 00	 jmp	 ___CxxFrameHandler3
text$x	ENDS
??_Ei3SMTPMail@@UAEPAXI@Z ENDP				; i3SMTPMail::`vector deleting destructor'
; Function compile flags: /Ogtp
; File D:\Program Files\Microsoft Visual Studio\18\Community\VC\Tools\MSVC\14.50.35717\include\vector
;	COMDAT ?_Xrange@?$vector@VTAttach@@V?$allocator@VTAttach@@@std@@@std@@CAXXZ
_TEXT	SEGMENT
?_Xrange@?$vector@VTAttach@@V?$allocator@VTAttach@@@std@@@std@@CAXXZ PROC ; std::vector<TAttach,std::allocator<TAttach> >::_Xrange, COMDAT

; 2188 :         _Xout_of_range("invalid vector subscript");

  00000	68 00 00 00 00	 push	 OFFSET ??_C@_0BJ@DHFDPMIM@invalid?5vector?5subscript@
  00005	e8 00 00 00 00	 call	 ?_Xout_of_range@std@@YAXPBD@Z ; std::_Xout_of_range
$LN3@Xrange:
  0000a	cc		 int	 3
?_Xrange@?$vector@VTAttach@@V?$allocator@VTAttach@@@std@@@std@@CAXXZ ENDP ; std::vector<TAttach,std::allocator<TAttach> >::_Xrange
_TEXT	ENDS
; Function compile flags: /Ogtp
; File D:\Program Files\Microsoft Visual Studio\18\Community\VC\Tools\MSVC\14.50.35717\include\vector
;	COMDAT ?_Xlength@?$vector@VTAttach@@V?$allocator@VTAttach@@@std@@@std@@CAXXZ
_TEXT	SEGMENT
?_Xlength@?$vector@VTAttach@@V?$allocator@VTAttach@@@std@@@std@@CAXXZ PROC ; std::vector<TAttach,std::allocator<TAttach> >::_Xlength, COMDAT

; 2184 :         _Xlength_error("vector too long");

  00000	68 00 00 00 00	 push	 OFFSET ??_C@_0BA@FOIKENOD@vector?5too?5long@
  00005	e8 00 00 00 00	 call	 ?_Xlength_error@std@@YAXPBD@Z ; std::_Xlength_error
$LN3@Xlength:
  0000a	cc		 int	 3
?_Xlength@?$vector@VTAttach@@V?$allocator@VTAttach@@@std@@@std@@CAXXZ ENDP ; std::vector<TAttach,std::allocator<TAttach> >::_Xlength
_TEXT	ENDS
; Function compile flags: /Ogtp
; File D:\Program Files\Microsoft Visual Studio\18\Community\VC\Tools\MSVC\14.50.35717\include\vector
; File D:\Program Files\Microsoft Visual Studio\18\Community\VC\Tools\MSVC\14.50.35717\include\xmemory
; File D:\Program Files\Microsoft Visual Studio\18\Community\VC\Tools\MSVC\14.50.35717\include\vector
; File D:\Program Files\Microsoft Visual Studio\18\Community\VC\Tools\MSVC\14.50.35717\include\xmemory
; File D:\Program Files\Microsoft Visual Studio\18\Community\VC\Tools\MSVC\14.50.35717\include\vector
; File D:\Program Files\Microsoft Visual Studio\18\Community\VC\Tools\MSVC\14.50.35717\include\xmemory
; File D:\Program Files\Microsoft Visual Studio\18\Community\VC\Tools\MSVC\14.50.35717\include\vector
;	COMDAT ??1?$vector@VTAttach@@V?$allocator@VTAttach@@@std@@@std@@QAE@XZ
_TEXT	SEGMENT
??1?$vector@VTAttach@@V?$allocator@VTAttach@@@std@@@std@@QAE@XZ PROC ; std::vector<TAttach,std::allocator<TAttach> >::~vector<TAttach,std::allocator<TAttach> >, COMDAT
; _this$ = ecx

; 829  :     _CONSTEXPR20 ~vector() noexcept {

  00000	56		 push	 esi
  00001	57		 push	 edi
  00002	8b f9		 mov	 edi, ecx

; 2090 :         if (_Myfirst) { // destroy and deallocate old array

  00004	8b 37		 mov	 esi, DWORD PTR [edi]
  00006	85 f6		 test	 esi, esi
  00008	74 54		 je	 SHORT $LN5@vector

; 2091 :             _STD _Destroy_range(_Myfirst, _Mylast, _Al);
; 2092 :             _ASAN_VECTOR_REMOVE;
; 2093 :             _Al.deallocate(_Myfirst, static_cast<size_type>(_Myend - _Myfirst));

  0000a	8b 4f 08	 mov	 ecx, DWORD PTR [edi+8]
  0000d	b8 e1 83 0f 3e	 mov	 eax, 1041204193		; 3e0f83e1H
  00012	2b ce		 sub	 ecx, esi
  00014	f7 e9		 imul	 ecx
  00016	c1 fa 06	 sar	 edx, 6
  00019	8b c2		 mov	 eax, edx
  0001b	c1 e8 1f	 shr	 eax, 31			; 0000001fH
  0001e	03 c2		 add	 eax, edx
; File D:\Program Files\Microsoft Visual Studio\18\Community\VC\Tools\MSVC\14.50.35717\include\xmemory

; 989  :         _STD _Deallocate<_New_alignof<_Ty>>(_Ptr, sizeof(_Ty) * _Count);

  00020	69 c8 08 01 00
	00		 imul	 ecx, eax, 264

; 288  :         if (_Bytes >= _Big_allocation_threshold) {

  00026	81 f9 00 10 00
	00		 cmp	 ecx, 4096		; 00001000H
  0002c	72 12		 jb	 SHORT $LN18@vector

; 209  :     const uintptr_t _Ptr_container   = _Ptr_user[-1];

  0002e	8b 56 fc	 mov	 edx, DWORD PTR [esi-4]
  00031	83 c1 23	 add	 ecx, 35			; 00000023H

; 210  : 
; 211  :     // If the following asserts, it likely means that we are performing
; 212  :     // an aligned delete on memory coming from an unaligned allocation.
; 213  :     _STL_ASSERT(_Ptr_user[-2] == _Big_allocation_sentinel, "invalid argument");
; 214  : 
; 215  :     // Extra paranoia on aligned allocation/deallocation; ensure _Ptr_container is
; 216  :     // in range [_Min_back_shift, _Non_user_size]
; 217  : #ifdef _DEBUG
; 218  :     constexpr uintptr_t _Min_back_shift = 2 * sizeof(void*);
; 219  : #else // ^^^ defined(_DEBUG) / !defined(_DEBUG) vvv
; 220  :     constexpr uintptr_t _Min_back_shift = sizeof(void*);
; 221  : #endif // ^^^ !defined(_DEBUG) ^^^
; 222  :     const uintptr_t _Back_shift = reinterpret_cast<uintptr_t>(_Ptr) - _Ptr_container;

  00034	2b f2		 sub	 esi, edx

; 223  :     _STL_VERIFY(_Back_shift >= _Min_back_shift && _Back_shift <= _Non_user_size, "invalid argument");

  00036	8d 46 fc	 lea	 eax, DWORD PTR [esi-4]
  00039	83 f8 1f	 cmp	 eax, 31			; 0000001fH
  0003c	77 23		 ja	 SHORT $LN17@vector

; 224  :     _Ptr = reinterpret_cast<void*>(_Ptr_container);

  0003e	8b f2		 mov	 esi, edx
$LN18@vector:

; 293  :         ::operator delete(_Ptr, _Bytes);

  00040	51		 push	 ecx
  00041	56		 push	 esi
  00042	e8 00 00 00 00	 call	 ??3@YAXPAXI@Z		; operator delete
; File D:\Program Files\Microsoft Visual Studio\18\Community\VC\Tools\MSVC\14.50.35717\include\vector

; 2095 :             _Myfirst = nullptr;

  00047	c7 07 00 00 00
	00		 mov	 DWORD PTR [edi], 0
; File D:\Program Files\Microsoft Visual Studio\18\Community\VC\Tools\MSVC\14.50.35717\include\xmemory

; 293  :         ::operator delete(_Ptr, _Bytes);

  0004d	83 c4 08	 add	 esp, 8
; File D:\Program Files\Microsoft Visual Studio\18\Community\VC\Tools\MSVC\14.50.35717\include\vector

; 2096 :             _Mylast  = nullptr;

  00050	c7 47 04 00 00
	00 00		 mov	 DWORD PTR [edi+4], 0

; 2097 :             _Myend   = nullptr;

  00057	c7 47 08 00 00
	00 00		 mov	 DWORD PTR [edi+8], 0
$LN5@vector:
  0005e	5f		 pop	 edi

; 835  :     }

  0005f	5e		 pop	 esi
  00060	c3		 ret	 0
$LN17@vector:
; File D:\Program Files\Microsoft Visual Studio\18\Community\VC\Tools\MSVC\14.50.35717\include\xmemory

; 223  :     _STL_VERIFY(_Back_shift >= _Min_back_shift && _Back_shift <= _Non_user_size, "invalid argument");

  00061	b9 05 00 00 00	 mov	 ecx, 5
  00066	cd 29		 int	 41			; 00000029H
$LN28@vector:
$LN26@vector:
??1?$vector@VTAttach@@V?$allocator@VTAttach@@@std@@@std@@QAE@XZ ENDP ; std::vector<TAttach,std::allocator<TAttach> >::~vector<TAttach,std::allocator<TAttach> >
_TEXT	ENDS
; Function compile flags: /Ogtp
; File E:\Proyectos\JuegosOnlineproyectos\PB\pbblow\Piercing Blow Remake\i3Server\src\i3Base\i3SMTPMail.cpp
;	COMDAT ?SendSocketData@i3SMTPMail@@AAEHPAD@Z
_TEXT	SEGMENT
_pcMsg$ = 8						; size = 4
?SendSocketData@i3SMTPMail@@AAEHPAD@Z PROC		; i3SMTPMail::SendSocketData, COMDAT
; _this$ = ecx

; 40   : {

  00000	55		 push	 ebp
  00001	8b ec		 mov	 ebp, esp

; 41   : 	if( send( hSocket, (char*)pcMsg, strlen( pcMsg ), NO_FLAGS ) == SOCKET_ERROR )	return	FALSE;

  00003	8b 55 08	 mov	 edx, DWORD PTR _pcMsg$[ebp]
  00006	8b c2		 mov	 eax, edx
  00008	56		 push	 esi
  00009	57		 push	 edi
  0000a	8b f1		 mov	 esi, ecx
  0000c	8d 78 01	 lea	 edi, DWORD PTR [eax+1]
  0000f	90		 npad	 1
$LL4@SendSocket:
  00010	8a 08		 mov	 cl, BYTE PTR [eax]
  00012	40		 inc	 eax
  00013	84 c9		 test	 cl, cl
  00015	75 f9		 jne	 SHORT $LL4@SendSocket
  00017	6a 00		 push	 0
  00019	2b c7		 sub	 eax, edi
  0001b	50		 push	 eax
  0001c	52		 push	 edx
  0001d	ff b6 b4 01 00
	00		 push	 DWORD PTR [esi+436]
  00023	ff 15 00 00 00
	00		 call	 DWORD PTR __imp__send@16

; 42   : 	
; 43   : 	return	TRUE;
; 44   : }

  00029	33 c9		 xor	 ecx, ecx
  0002b	83 f8 ff	 cmp	 eax, -1
  0002e	5f		 pop	 edi
  0002f	0f 95 c1	 setne	 cl
  00032	8b c1		 mov	 eax, ecx
  00034	5e		 pop	 esi
  00035	5d		 pop	 ebp
  00036	c2 04 00	 ret	 4
?SendSocketData@i3SMTPMail@@AAEHPAD@Z ENDP		; i3SMTPMail::SendSocketData
_TEXT	ENDS
; Function compile flags: /Ogtp
; File E:\Proyectos\JuegosOnlineproyectos\PB\pbblow\Piercing Blow Remake\i3Server\src\i3Base\i3SMTPMail.cpp
; File E:\Proyectos\JuegosOnlineproyectos\PB\pbblow\Piercing Blow Remake\i3Server\include\i3Base\i3Memory.h
; File C:\Program Files (x86)\Windows Kits\10\Include\10.0.26100.0\um\winnt.h
; File E:\Proyectos\JuegosOnlineproyectos\PB\pbblow\Piercing Blow Remake\i3Server\src\i3Base\i3SMTPMail.cpp
;	COMDAT ?ConnectServerSocket@i3SMTPMail@@AAEIPBDG@Z
_TEXT	SEGMENT
_sockAddr$ = -20					; size = 16
__$ArrayPad$ = -4					; size = 4
_server$ = 8						; size = 4
_port$ = 12						; size = 2
?ConnectServerSocket@i3SMTPMail@@AAEIPBDG@Z PROC	; i3SMTPMail::ConnectServerSocket, COMDAT
; _this$ = ecx

; 107  : {

  00000	55		 push	 ebp
  00001	8b ec		 mov	 ebp, esp
  00003	83 ec 14	 sub	 esp, 20			; 00000014H
  00006	a1 00 00 00 00	 mov	 eax, DWORD PTR ___security_cookie
  0000b	33 c5		 xor	 eax, ebp
  0000d	89 45 fc	 mov	 DWORD PTR __$ArrayPad$[ebp], eax
  00010	8b 45 08	 mov	 eax, DWORD PTR _server$[ebp]
  00013	57		 push	 edi

; 108  : 	int				nConnect;
; 109  : 	short			nProtocolPort;
; 110  : 	LPHOSTENT		lpHostEnt;
; 111  :     LPSERVENT		lpServEnt;
; 112  : 	SOCKADDR_IN		sockAddr;        
; 113  : 
; 114  : 	SOCKET			hServerSocket = INVALID_SOCKET;
; 115  :      
; 116  :     lpHostEnt	=	gethostbyname( server );

  00014	50		 push	 eax
  00015	ff 15 00 00 00
	00		 call	 DWORD PTR __imp__gethostbyname@4
  0001b	8b f8		 mov	 edi, eax

; 117  : 
; 118  :     if ( lpHostEnt ) 

  0001d	85 ff		 test	 edi, edi
  0001f	0f 84 af 00 00
	00		 je	 $LN22@ConnectSer

; 119  : 	{		
; 120  :         hServerSocket	=	socket( PF_INET, SOCK_STREAM, DEFAULT_PROTOCOL );

  00025	56		 push	 esi
  00026	6a 00		 push	 0
  00028	6a 01		 push	 1
  0002a	6a 02		 push	 2
  0002c	ff 15 00 00 00
	00		 call	 DWORD PTR __imp__socket@12
  00032	8b f0		 mov	 esi, eax

; 121  : 
; 122  :         if ( hServerSocket != INVALID_SOCKET ) 

  00034	83 fe ff	 cmp	 esi, -1
  00037	74 75		 je	 SHORT $LN29@ConnectSer

; 123  : 		{
; 124  : 			if ( port != NULL )	nProtocolPort = port;

  00039	66 8b 45 0c	 mov	 ax, WORD PTR _port$[ebp]
  0003d	66 85 c0	 test	 ax, ax
  00040	74 05		 je	 SHORT $LN4@ConnectSer
  00042	0f b7 d0	 movzx	 edx, ax
  00045	eb 22		 jmp	 SHORT $LN7@ConnectSer
$LN4@ConnectSer:

; 125  : 			else
; 126  : 			{
; 127  : 				lpServEnt	=	getservbyname( "mail", DEFAULT_PROTOCOL );                 

  00047	6a 00		 push	 0
  00049	68 00 00 00 00	 push	 OFFSET ??_C@_04FFKLPPHM@mail@
  0004e	ff 15 00 00 00
	00		 call	 DWORD PTR __imp__getservbyname@8

; 128  : 				if ( lpServEnt == NULL )	nProtocolPort = htons( IPPORT_SMTP ); 

  00054	85 c0		 test	 eax, eax
  00056	75 0d		 jne	 SHORT $LN6@ConnectSer
  00058	6a 19		 push	 25			; 00000019H
  0005a	ff 15 00 00 00
	00		 call	 DWORD PTR __imp__htons@4
  00060	0f b7 d0	 movzx	 edx, ax
  00063	eb 04		 jmp	 SHORT $LN7@ConnectSer
$LN6@ConnectSer:

; 129  : 				else						nProtocolPort = lpServEnt->s_port;

  00065	0f b7 50 08	 movzx	 edx, WORD PTR [eax+8]
$LN7@ConnectSer:
; File E:\Proyectos\JuegosOnlineproyectos\PB\pbblow\Piercing Blow Remake\i3Server\include\i3Base\i3Memory.h

; 144  : 			::SecureZeroMemory( pDest, sz);

  00069	b9 10 00 00 00	 mov	 ecx, 16			; 00000010H
; File C:\Program Files (x86)\Windows Kits\10\Include\10.0.26100.0\um\winnt.h

; 23413:     volatile char *vptr = (volatile char *)ptr;

  0006e	8d 45 ec	 lea	 eax, DWORD PTR _sockAddr$[ebp]
$LL13@ConnectSer:

; 23414: 
; 23415: #if defined(_M_AMD64) && !defined(_M_ARM64EC)
; 23416: 
; 23417:     __stosb((PBYTE )((DWORD64)vptr), 0, cnt);
; 23418: 
; 23419: #else
; 23420: 
; 23421:     while (cnt) {
; 23422: 
; 23423: #if !defined(_M_CEE) && (defined(_M_ARM) || defined(_M_ARM64) || defined(_M_ARM64EC))
; 23424: 
; 23425:         __iso_volatile_store8(vptr, 0);
; 23426: 
; 23427: #else
; 23428: 
; 23429:         *vptr = 0;

  00071	c6 00 00	 mov	 BYTE PTR [eax], 0

; 23430: 
; 23431: #endif
; 23432: 
; 23433:         vptr++;

  00074	8d 40 01	 lea	 eax, DWORD PTR [eax+1]

; 23434:         cnt--;

  00077	83 e9 01	 sub	 ecx, 1
  0007a	75 f5		 jne	 SHORT $LL13@ConnectSer
; File E:\Proyectos\JuegosOnlineproyectos\PB\pbblow\Piercing Blow Remake\i3Server\src\i3Base\i3SMTPMail.cpp

; 135  :             sockAddr.sin_port		= nProtocolPort;

  0007c	b8 02 00 00 00	 mov	 eax, 2
  00081	66 89 55 ee	 mov	 WORD PTR _sockAddr$[ebp+2], dx
  00085	66 89 45 ec	 mov	 WORD PTR _sockAddr$[ebp], ax

; 136  :             sockAddr.sin_addr		= *((LPIN_ADDR)*lpHostEnt->h_addr_list);

  00089	8b 47 0c	 mov	 eax, DWORD PTR [edi+12]

; 137  : 
; 138  :             nConnect	=	connect( hServerSocket, 

  0008c	6a 10		 push	 16			; 00000010H
  0008e	8b 00		 mov	 eax, DWORD PTR [eax]
  00090	8b 00		 mov	 eax, DWORD PTR [eax]
  00092	89 45 f0	 mov	 DWORD PTR _sockAddr$[ebp+4], eax
  00095	8d 45 ec	 lea	 eax, DWORD PTR _sockAddr$[ebp]
  00098	50		 push	 eax
  00099	56		 push	 esi
  0009a	ff 15 00 00 00
	00		 call	 DWORD PTR __imp__connect@12

; 139  : 									 (PSOCKADDR)&sockAddr, 
; 140  : 									 sizeof(sockAddr) );
; 141  :             if( nConnect )	

  000a0	85 c0		 test	 eax, eax
  000a2	74 1c		 je	 SHORT $LN20@ConnectSer

; 142  : 			{
; 143  : 				closesocket(hServerSocket);

  000a4	56		 push	 esi
  000a5	ff 15 00 00 00
	00		 call	 DWORD PTR __imp__closesocket@4

; 144  : 				hServerSocket = INVALID_SOCKET;
; 145  : 			}
; 146  : 
; 147  :         }
; 148  :     }
; 149  : 
; 150  :     return	hServerSocket;

  000ab	83 c8 ff	 or	 eax, -1
$LN29@ConnectSer:
  000ae	5e		 pop	 esi
  000af	5f		 pop	 edi

; 151  : }

  000b0	8b 4d fc	 mov	 ecx, DWORD PTR __$ArrayPad$[ebp]
  000b3	33 cd		 xor	 ecx, ebp
  000b5	e8 00 00 00 00	 call	 @__security_check_cookie@4
  000ba	8b e5		 mov	 esp, ebp
  000bc	5d		 pop	 ebp
  000bd	c2 08 00	 ret	 8
$LN20@ConnectSer:

; 144  : 				hServerSocket = INVALID_SOCKET;
; 145  : 			}
; 146  : 
; 147  :         }
; 148  :     }
; 149  : 
; 150  :     return	hServerSocket;

  000c0	8b c6		 mov	 eax, esi
  000c2	5e		 pop	 esi
  000c3	5f		 pop	 edi

; 151  : }

  000c4	8b 4d fc	 mov	 ecx, DWORD PTR __$ArrayPad$[ebp]
  000c7	33 cd		 xor	 ecx, ebp
  000c9	e8 00 00 00 00	 call	 @__security_check_cookie@4
  000ce	8b e5		 mov	 esp, ebp
  000d0	5d		 pop	 ebp
  000d1	c2 08 00	 ret	 8
$LN22@ConnectSer:
  000d4	8b 4d fc	 mov	 ecx, DWORD PTR __$ArrayPad$[ebp]
  000d7	83 c8 ff	 or	 eax, -1
  000da	33 cd		 xor	 ecx, ebp
  000dc	5f		 pop	 edi
  000dd	e8 00 00 00 00	 call	 @__security_check_cookie@4
  000e2	8b e5		 mov	 esp, ebp
  000e4	5d		 pop	 ebp
  000e5	c2 08 00	 ret	 8
?ConnectServerSocket@i3SMTPMail@@AAEIPBDG@Z ENDP	; i3SMTPMail::ConnectServerSocket
_TEXT	ENDS
; Function compile flags: /Ogtp
; File E:\Proyectos\JuegosOnlineproyectos\PB\pbblow\Piercing Blow Remake\i3Server\src\i3Base\i3SMTPMail.cpp
; File D:\Program Files\Microsoft Visual Studio\18\Community\VC\Tools\MSVC\14.50.35717\include\vector
; File E:\Proyectos\JuegosOnlineproyectos\PB\pbblow\Piercing Blow Remake\i3Server\src\i3Base\i3SMTPMail.cpp
; File D:\Program Files\Microsoft Visual Studio\18\Community\VC\Tools\MSVC\14.50.35717\include\vector
; File E:\Proyectos\JuegosOnlineproyectos\PB\pbblow\Piercing Blow Remake\i3Server\src\i3Base\i3SMTPMail.cpp
; File D:\Program Files\Microsoft Visual Studio\18\Community\VC\Tools\MSVC\14.50.35717\include\vector
; File E:\Proyectos\JuegosOnlineproyectos\PB\pbblow\Piercing Blow Remake\i3Server\src\i3Base\i3SMTPMail.cpp
; File D:\Program Files\Microsoft Visual Studio\18\Community\VC\Tools\MSVC\14.50.35717\include\vector
; File E:\Proyectos\JuegosOnlineproyectos\PB\pbblow\Piercing Blow Remake\i3Server\src\i3Base\i3SMTPMail.cpp
; File D:\Program Files\Microsoft Visual Studio\18\Community\VC\Tools\MSVC\14.50.35717\include\vector
; File E:\Proyectos\JuegosOnlineproyectos\PB\pbblow\Piercing Blow Remake\i3Server\src\i3Base\i3SMTPMail.cpp
; File D:\Program Files\Microsoft Visual Studio\18\Community\VC\Tools\MSVC\14.50.35717\include\vector
; File D:\Program Files\Microsoft Visual Studio\18\Community\VC\Tools\MSVC\14.50.35717\include\xstring
; File D:\Program Files\Microsoft Visual Studio\18\Community\VC\Tools\MSVC\14.50.35717\include\vector
; File D:\Program Files\Microsoft Visual Studio\18\Community\VC\Tools\MSVC\14.50.35717\include\xstring
; File E:\Proyectos\JuegosOnlineproyectos\PB\pbblow\Piercing Blow Remake\i3Server\src\i3Base\i3SMTPMail.cpp
; File D:\Program Files\Microsoft Visual Studio\18\Community\VC\Tools\MSVC\14.50.35717\include\vector
; File E:\Proyectos\JuegosOnlineproyectos\PB\pbblow\Piercing Blow Remake\i3Server\src\i3Base\i3SMTPMail.cpp
; File D:\Program Files\Microsoft Visual Studio\18\Community\VC\Tools\MSVC\14.50.35717\include\vector
; File E:\Proyectos\JuegosOnlineproyectos\PB\pbblow\Piercing Blow Remake\i3Server\src\i3Base\i3SMTPMail.cpp
; File D:\Program Files\Microsoft Visual Studio\18\Community\VC\Tools\MSVC\14.50.35717\include\vector
; File E:\Proyectos\JuegosOnlineproyectos\PB\pbblow\Piercing Blow Remake\i3Server\src\i3Base\i3SMTPMail.cpp
; File D:\Program Files\Microsoft Visual Studio\18\Community\VC\Tools\MSVC\14.50.35717\include\vector
; File E:\Proyectos\JuegosOnlineproyectos\PB\pbblow\Piercing Blow Remake\i3Server\src\i3Base\i3SMTPMail.cpp
; File D:\Program Files\Microsoft Visual Studio\18\Community\VC\Tools\MSVC\14.50.35717\include\vector
; File E:\Proyectos\JuegosOnlineproyectos\PB\pbblow\Piercing Blow Remake\i3Server\src\i3Base\i3SMTPMail.cpp
; File D:\Program Files\Microsoft Visual Studio\18\Community\VC\Tools\MSVC\14.50.35717\include\vector
; File D:\Program Files\Microsoft Visual Studio\18\Community\VC\Tools\MSVC\14.50.35717\include\xstring
; File D:\Program Files\Microsoft Visual Studio\18\Community\VC\Tools\MSVC\14.50.35717\include\vector
; File D:\Program Files\Microsoft Visual Studio\18\Community\VC\Tools\MSVC\14.50.35717\include\xstring
; File E:\Proyectos\JuegosOnlineproyectos\PB\pbblow\Piercing Blow Remake\i3Server\src\i3Base\i3SMTPMail.cpp
; File D:\Program Files\Microsoft Visual Studio\18\Community\VC\Tools\MSVC\14.50.35717\include\vector
; File E:\Proyectos\JuegosOnlineproyectos\PB\pbblow\Piercing Blow Remake\i3Server\src\i3Base\i3SMTPMail.cpp
; File D:\Program Files\Microsoft Visual Studio\18\Community\VC\Tools\MSVC\14.50.35717\include\vector
; File E:\Proyectos\JuegosOnlineproyectos\PB\pbblow\Piercing Blow Remake\i3Server\src\i3Base\i3SMTPMail.cpp
; File D:\Program Files\Microsoft Visual Studio\18\Community\VC\Tools\MSVC\14.50.35717\include\vector
; File E:\Proyectos\JuegosOnlineproyectos\PB\pbblow\Piercing Blow Remake\i3Server\src\i3Base\i3SMTPMail.cpp
; File D:\Program Files\Microsoft Visual Studio\18\Community\VC\Tools\MSVC\14.50.35717\include\vector
; File E:\Proyectos\JuegosOnlineproyectos\PB\pbblow\Piercing Blow Remake\i3Server\src\i3Base\i3SMTPMail.cpp
;	COMDAT ?FormatHeader@i3SMTPMail@@AAEPADXZ
_TEXT	SEGMENT
_this$GSCopy$1$ = -1036					; size = 4
_to$1$ = -1032						; size = 4
tv942 = -1032						; size = 4
_line$1$ = -1028					; size = 4
tv982 = -1028						; size = 4
tv995 = -1028						; size = 4
tv1008 = -1028						; size = 4
_msgHeader$1$ = -1024					; size = 4
_st$ = -1020						; size = 16
_szDate$ = -1004					; size = 500
_sztTime$ = -504					; size = 500
__$ArrayPad$ = -4					; size = 4
?FormatHeader@i3SMTPMail@@AAEPADXZ PROC			; i3SMTPMail::FormatHeader, COMDAT
; _this$ = ecx

; 290  : {	

  00000	55		 push	 ebp
  00001	8b ec		 mov	 ebp, esp
  00003	81 ec 0c 04 00
	00		 sub	 esp, 1036		; 0000040cH
  00009	a1 00 00 00 00	 mov	 eax, DWORD PTR ___security_cookie
  0000e	33 c5		 xor	 eax, ebp
  00010	89 45 fc	 mov	 DWORD PTR __$ArrayPad$[ebp], eax
  00013	53		 push	 ebx
  00014	8b d9		 mov	 ebx, ecx
; File D:\Program Files\Microsoft Visual Studio\18\Community\VC\Tools\MSVC\14.50.35717\include\vector

; 1915 :         return static_cast<size_type>(_My_data._Mylast - _My_data._Myfirst);

  00016	b8 ab aa aa 2a	 mov	 eax, 715827883		; 2aaaaaabH
; File E:\Proyectos\JuegosOnlineproyectos\PB\pbblow\Piercing Blow Remake\i3Server\src\i3Base\i3SMTPMail.cpp

; 290  : {	

  0001b	89 9d f4 fb ff
	ff		 mov	 DWORD PTR _this$GSCopy$1$[ebp], ebx
; File D:\Program Files\Microsoft Visual Studio\18\Community\VC\Tools\MSVC\14.50.35717\include\vector

; 1915 :         return static_cast<size_type>(_My_data._Mylast - _My_data._Myfirst);

  00021	8b 8b bc 01 00
	00		 mov	 ecx, DWORD PTR [ebx+444]
  00027	2b 8b b8 01 00
	00		 sub	 ecx, DWORD PTR [ebx+440]
  0002d	f7 e9		 imul	 ecx
  0002f	c1 fa 02	 sar	 edx, 2
  00032	8b c2		 mov	 eax, edx
  00034	c1 e8 1f	 shr	 eax, 31			; 0000001fH
  00037	03 c2		 add	 eax, edx
; File E:\Proyectos\JuegosOnlineproyectos\PB\pbblow\Piercing Blow Remake\i3Server\src\i3Base\i3SMTPMail.cpp

; 291  : 	if( Recipients.size() <= 0 )	return	NULL;

  00039	75 0f		 jne	 SHORT $LN8@FormatHead
  0003b	5b		 pop	 ebx

; 378  : }

  0003c	8b 4d fc	 mov	 ecx, DWORD PTR __$ArrayPad$[ebp]
  0003f	33 cd		 xor	 ecx, ebp
  00041	e8 00 00 00 00	 call	 @__security_check_cookie@4
  00046	8b e5		 mov	 esp, ebp
  00048	5d		 pop	 ebp
  00049	c3		 ret	 0
$LN8@FormatHead:
  0004a	56		 push	 esi
  0004b	57		 push	 edi

; 294  : 	char*	msgHeader	=	new char[SMTP_BUF_SIZE];	

  0004c	68 00 10 00 00	 push	 4096			; 00001000H
  00051	e8 00 00 00 00	 call	 ??_U@YAPAXI@Z		; operator new[]
; File D:\Program Files\Microsoft Visual Studio\18\Community\VC\Tools\MSVC\14.50.35717\include\vector

; 1915 :         return static_cast<size_type>(_My_data._Mylast - _My_data._Myfirst);

  00056	8b 8b bc 01 00
	00		 mov	 ecx, DWORD PTR [ebx+444]
; File E:\Proyectos\JuegosOnlineproyectos\PB\pbblow\Piercing Blow Remake\i3Server\src\i3Base\i3SMTPMail.cpp

; 294  : 	char*	msgHeader	=	new char[SMTP_BUF_SIZE];	

  0005c	83 c4 04	 add	 esp, 4
  0005f	89 85 00 fc ff
	ff		 mov	 DWORD PTR _msgHeader$1$[ebp], eax

; 297  : 	for( i = s = 0; i < Recipients.size(); i++ ) 

  00065	33 ff		 xor	 edi, edi
; File D:\Program Files\Microsoft Visual Studio\18\Community\VC\Tools\MSVC\14.50.35717\include\vector

; 1915 :         return static_cast<size_type>(_My_data._Mylast - _My_data._Myfirst);

  00067	8b 83 b8 01 00
	00		 mov	 eax, DWORD PTR [ebx+440]
; File E:\Proyectos\JuegosOnlineproyectos\PB\pbblow\Piercing Blow Remake\i3Server\src\i3Base\i3SMTPMail.cpp

; 297  : 	for( i = s = 0; i < Recipients.size(); i++ ) 

  0006d	33 f6		 xor	 esi, esi
; File D:\Program Files\Microsoft Visual Studio\18\Community\VC\Tools\MSVC\14.50.35717\include\vector

; 1915 :         return static_cast<size_type>(_My_data._Mylast - _My_data._Myfirst);

  0006f	2b c8		 sub	 ecx, eax
  00071	89 85 f8 fb ff
	ff		 mov	 DWORD PTR tv942[ebp], eax
  00077	b8 ab aa aa 2a	 mov	 eax, 715827883		; 2aaaaaabH
  0007c	f7 e9		 imul	 ecx
  0007e	c1 fa 02	 sar	 edx, 2
  00081	8b da		 mov	 ebx, edx
  00083	c1 eb 1f	 shr	 ebx, 31			; 0000001fH
  00086	03 da		 add	 ebx, edx
; File E:\Proyectos\JuegosOnlineproyectos\PB\pbblow\Piercing Blow Remake\i3Server\src\i3Base\i3SMTPMail.cpp

; 297  : 	for( i = s = 0; i < Recipients.size(); i++ ) 

  00088	74 33		 je	 SHORT $LN72@FormatHead
  0008a	8d 9b 00 00 00
	00		 npad	 6
$LL4@FormatHead:
; File D:\Program Files\Microsoft Visual Studio\18\Community\VC\Tools\MSVC\14.50.35717\include\vector

; 1953 :         return _My_data._Myfirst[_Pos];

  00090	8b 8d f8 fb ff
	ff		 mov	 ecx, DWORD PTR tv942[ebp]
  00096	8d 04 76	 lea	 eax, DWORD PTR [esi+esi*2]
; File D:\Program Files\Microsoft Visual Studio\18\Community\VC\Tools\MSVC\14.50.35717\include\xstring

; 453  :         return _Myres > _Small_string_capacity;

  00099	83 7c c1 14 0f	 cmp	 DWORD PTR [ecx+eax*8+20], 15 ; 0000000fH
; File D:\Program Files\Microsoft Visual Studio\18\Community\VC\Tools\MSVC\14.50.35717\include\vector

; 1953 :         return _My_data._Myfirst[_Pos];

  0009e	8d 0c c1	 lea	 ecx, DWORD PTR [ecx+eax*8]
; File D:\Program Files\Microsoft Visual Studio\18\Community\VC\Tools\MSVC\14.50.35717\include\xstring

; 445  :         if (_Large_mode_engaged()) {

  000a1	76 02		 jbe	 SHORT $LN35@FormatHead

; 446  :             _Result = _Unfancy(_Bx._Ptr);

  000a3	8b 09		 mov	 ecx, DWORD PTR [ecx]
$LN35@FormatHead:
; File E:\Proyectos\JuegosOnlineproyectos\PB\pbblow\Piercing Blow Remake\i3Server\src\i3Base\i3SMTPMail.cpp

; 299  : 		s	+=	strlen( Recipients.at(i).GetEmail() ) + 1;

  000a5	8d 51 01	 lea	 edx, DWORD PTR [ecx+1]
$LL73@FormatHead:
  000a8	8a 01		 mov	 al, BYTE PTR [ecx]
  000aa	41		 inc	 ecx
  000ab	84 c0		 test	 al, al
  000ad	75 f9		 jne	 SHORT $LL73@FormatHead
  000af	2b ca		 sub	 ecx, edx
  000b1	47		 inc	 edi
  000b2	46		 inc	 esi
  000b3	03 f9		 add	 edi, ecx
  000b5	3b f3		 cmp	 esi, ebx
  000b7	72 d7		 jb	 SHORT $LL4@FormatHead

; 300  : 	} 
; 301  : 	if( s == 0 )	s = 1; 

  000b9	85 ff		 test	 edi, edi
  000bb	75 05		 jne	 SHORT $LN9@FormatHead
$LN72@FormatHead:
  000bd	bf 01 00 00 00	 mov	 edi, 1
$LN9@FormatHead:

; 302  : 	char*	to	=	new char[s];

  000c2	57		 push	 edi
  000c3	e8 00 00 00 00	 call	 ??_U@YAPAXI@Z		; operator new[]
; File D:\Program Files\Microsoft Visual Studio\18\Community\VC\Tools\MSVC\14.50.35717\include\vector

; 1915 :         return static_cast<size_type>(_My_data._Mylast - _My_data._Myfirst);

  000c8	8b b5 f4 fb ff
	ff		 mov	 esi, DWORD PTR _this$GSCopy$1$[ebp]
; File E:\Proyectos\JuegosOnlineproyectos\PB\pbblow\Piercing Blow Remake\i3Server\src\i3Base\i3SMTPMail.cpp

; 302  : 	char*	to	=	new char[s];

  000ce	8b f8		 mov	 edi, eax
; File D:\Program Files\Microsoft Visual Studio\18\Community\VC\Tools\MSVC\14.50.35717\include\vector

; 1915 :         return static_cast<size_type>(_My_data._Mylast - _My_data._Myfirst);

  000d0	b8 ab aa aa 2a	 mov	 eax, 715827883		; 2aaaaaabH
; File E:\Proyectos\JuegosOnlineproyectos\PB\pbblow\Piercing Blow Remake\i3Server\src\i3Base\i3SMTPMail.cpp

; 302  : 	char*	to	=	new char[s];

  000d5	89 bd f8 fb ff
	ff		 mov	 DWORD PTR _to$1$[ebp], edi
  000db	83 c4 04	 add	 esp, 4

; 308  : 	for( i = 0; i < Recipients.size(); i++ ) 

  000de	33 db		 xor	 ebx, ebx
  000e0	c6 07 00	 mov	 BYTE PTR [edi], 0
; File D:\Program Files\Microsoft Visual Studio\18\Community\VC\Tools\MSVC\14.50.35717\include\vector

; 1915 :         return static_cast<size_type>(_My_data._Mylast - _My_data._Myfirst);

  000e3	8b 8e bc 01 00
	00		 mov	 ecx, DWORD PTR [esi+444]
  000e9	2b 8e b8 01 00
	00		 sub	 ecx, DWORD PTR [esi+440]
  000ef	f7 e9		 imul	 ecx
  000f1	c1 fa 02	 sar	 edx, 2
  000f4	8b c2		 mov	 eax, edx
  000f6	c1 e8 1f	 shr	 eax, 31			; 0000001fH
  000f9	03 c2		 add	 eax, edx
; File E:\Proyectos\JuegosOnlineproyectos\PB\pbblow\Piercing Blow Remake\i3Server\src\i3Base\i3SMTPMail.cpp

; 308  : 	for( i = 0; i < Recipients.size(); i++ ) 

  000fb	0f 85 3c 04 00
	00		 jne	 $LN7@FormatHead
$LN6@FormatHead:

; 312  : 	}
; 313  : 
; 314  : 	SYSTEMTIME	st	= { 0 };

  00101	33 c0		 xor	 eax, eax
  00103	89 85 04 fc ff
	ff		 mov	 DWORD PTR _st$[ebp], eax
  00109	89 85 08 fc ff
	ff		 mov	 DWORD PTR _st$[ebp+4], eax
  0010f	89 85 0c fc ff
	ff		 mov	 DWORD PTR _st$[ebp+8], eax
  00115	89 85 10 fc ff
	ff		 mov	 DWORD PTR _st$[ebp+12], eax

; 315  : 	::GetSystemTime( &st );

  0011b	8d 85 04 fc ff
	ff		 lea	 eax, DWORD PTR _st$[ebp]
  00121	50		 push	 eax
  00122	ff 15 00 00 00
	00		 call	 DWORD PTR __imp__GetSystemTime@4

; 316  : 	::GetDateFormat( LOCALE_SYSTEM_DEFAULT, 

  00128	68 f4 01 00 00	 push	 500			; 000001f4H
  0012d	8d 85 14 fc ff
	ff		 lea	 eax, DWORD PTR _szDate$[ebp]
  00133	50		 push	 eax
  00134	68 00 00 00 00	 push	 OFFSET ??_C@_0BD@LKFCMHA@ddd?8?0?8?5dd?5MMM?5yyyy@
  00139	8d 85 04 fc ff
	ff		 lea	 eax, DWORD PTR _st$[ebp]
  0013f	50		 push	 eax
  00140	6a 00		 push	 0
  00142	68 00 08 00 00	 push	 2048			; 00000800H
  00147	ff 15 00 00 00
	00		 call	 DWORD PTR __imp__GetDateFormatA@24

; 317  : 					 0, 
; 318  : 					 &st, 
; 319  : 					 "ddd',' dd MMM yyyy", 
; 320  : 					 szDate, 
; 321  : 					 sizeof( szDate ) );
; 322  : 	::GetTimeFormat( LOCALE_SYSTEM_DEFAULT,

  0014d	68 f4 01 00 00	 push	 500			; 000001f4H
  00152	8d 85 08 fe ff
	ff		 lea	 eax, DWORD PTR _sztTime$[ebp]
  00158	50		 push	 eax
  00159	68 00 00 00 00	 push	 OFFSET ??_C@_0BA@HOPOMEIB@HH?8?3?8mm?8?3?8ss?5tt@
  0015e	8d 85 04 fc ff
	ff		 lea	 eax, DWORD PTR _st$[ebp]
  00164	50		 push	 eax
  00165	6a 08		 push	 8
  00167	68 00 08 00 00	 push	 2048			; 00000800H
  0016c	ff 15 00 00 00
	00		 call	 DWORD PTR __imp__GetTimeFormatA@24

; 323  : 					 TIME_FORCE24HOURFORMAT,
; 324  : 					 &st,
; 325  : 					 "HH':'mm':'ss tt",
; 326  : 					 sztTime,
; 327  : 					 sizeof( sztTime ) );
; 328  : 
; 329  : 	wsprintf( msgHeader, "DATE: %s %s\r\n", szDate, sztTime );	

  00172	8b 9d 00 fc ff
	ff		 mov	 ebx, DWORD PTR _msgHeader$1$[ebp]
  00178	8d 85 08 fe ff
	ff		 lea	 eax, DWORD PTR _sztTime$[ebp]
  0017e	50		 push	 eax
  0017f	8d 85 14 fc ff
	ff		 lea	 eax, DWORD PTR _szDate$[ebp]
  00185	50		 push	 eax
  00186	68 00 00 00 00	 push	 OFFSET ??_C@_0O@JKCOIFBN@DATE?3?5?$CFs?5?$CFs?$AN?6@
  0018b	53		 push	 ebx
  0018c	ff 15 00 00 00
	00		 call	 DWORD PTR __imp__wsprintfA
  00192	83 c4 10	 add	 esp, 16			; 00000010H

; 330  : 
; 331  : 	if( m_pcFromName != NULL ) 

  00195	83 7e 0c 00	 cmp	 DWORD PTR [esi+12], 0
  00199	0f 84 ca 00 00
	00		 je	 $LN10@FormatHead

; 332  : 	{
; 333  : 		strcat( msgHeader, "FROM: " );

  0019f	8d 4b ff	 lea	 ecx, DWORD PTR [ebx-1]
$LL78@FormatHead:
  001a2	8a 41 01	 mov	 al, BYTE PTR [ecx+1]
  001a5	8d 49 01	 lea	 ecx, DWORD PTR [ecx+1]
  001a8	84 c0		 test	 al, al
  001aa	75 f6		 jne	 SHORT $LL78@FormatHead
  001ac	a1 00 00 00 00	 mov	 eax, DWORD PTR ??_C@_06LKLMCKC@FROM?3?5@
  001b1	89 01		 mov	 DWORD PTR [ecx], eax
  001b3	66 a1 04 00 00
	00		 mov	 ax, WORD PTR ??_C@_06LKLMCKC@FROM?3?5@+4
  001b9	66 89 41 04	 mov	 WORD PTR [ecx+4], ax
  001bd	a0 06 00 00 00	 mov	 al, BYTE PTR ??_C@_06LKLMCKC@FROM?3?5@+6
  001c2	88 41 06	 mov	 BYTE PTR [ecx+6], al

; 334  : 		char*	line	=	new char[ strlen( m_pcFromName ) + strlen( m_pcFromEmail ) + 5 ];

  001c5	8b 4e 0c	 mov	 ecx, DWORD PTR [esi+12]
  001c8	8d 51 01	 lea	 edx, DWORD PTR [ecx+1]
  001cb	eb 03 8d 49 00	 npad	 5
$LL79@FormatHead:
  001d0	8a 01		 mov	 al, BYTE PTR [ecx]
  001d2	41		 inc	 ecx
  001d3	84 c0		 test	 al, al
  001d5	75 f9		 jne	 SHORT $LL79@FormatHead
  001d7	2b ca		 sub	 ecx, edx
  001d9	8b 56 08	 mov	 edx, DWORD PTR [esi+8]
  001dc	8d 7a 01	 lea	 edi, DWORD PTR [edx+1]
  001df	90		 npad	 1
$LL80@FormatHead:
  001e0	8a 02		 mov	 al, BYTE PTR [edx]
  001e2	42		 inc	 edx
  001e3	84 c0		 test	 al, al
  001e5	75 f9		 jne	 SHORT $LL80@FormatHead
  001e7	2b d7		 sub	 edx, edi
  001e9	8d 42 05	 lea	 eax, DWORD PTR [edx+5]
  001ec	03 c1		 add	 eax, ecx
  001ee	50		 push	 eax
  001ef	e8 00 00 00 00	 call	 ??_U@YAPAXI@Z		; operator new[]

; 335  : 		sprintf( line, "\"%s\"<%s>", m_pcFromName, m_pcFromEmail );

  001f4	ff 76 08	 push	 DWORD PTR [esi+8]
  001f7	8b f8		 mov	 edi, eax
  001f9	ff 76 0c	 push	 DWORD PTR [esi+12]
  001fc	89 bd fc fb ff
	ff		 mov	 DWORD PTR _line$1$[ebp], edi
  00202	68 00 00 00 00	 push	 OFFSET ??_C@_08HHMMIEDC@?$CC?$CFs?$CC?$DM?$CFs?$DO@
  00207	57		 push	 edi
  00208	e8 00 00 00 00	 call	 _sprintf

; 336  : 		strcat( msgHeader, line );

  0020d	8b d7		 mov	 edx, edi
  0020f	83 c4 14	 add	 esp, 20			; 00000014H
  00212	8b f2		 mov	 esi, edx
$LL81@FormatHead:
  00214	8a 02		 mov	 al, BYTE PTR [edx]
  00216	42		 inc	 edx
  00217	84 c0		 test	 al, al
  00219	75 f9		 jne	 SHORT $LL81@FormatHead
  0021b	2b d6		 sub	 edx, esi
  0021d	8d 7b ff	 lea	 edi, DWORD PTR [ebx-1]
$LL82@FormatHead:
  00220	8a 47 01	 mov	 al, BYTE PTR [edi+1]
  00223	47		 inc	 edi
  00224	84 c0		 test	 al, al
  00226	75 f8		 jne	 SHORT $LL82@FormatHead
  00228	8b ca		 mov	 ecx, edx
  0022a	c1 e9 02	 shr	 ecx, 2
  0022d	f3 a5		 rep movsd
  0022f	8b ca		 mov	 ecx, edx
  00231	83 e1 03	 and	 ecx, 3
  00234	f3 a4		 rep movsb

; 337  : 		strcat( msgHeader, "\r\n" );

  00236	8d 4b ff	 lea	 ecx, DWORD PTR [ebx-1]
  00239	8d a4 24 00 00
	00 00		 npad	 7
$LL83@FormatHead:
  00240	8a 41 01	 mov	 al, BYTE PTR [ecx+1]
  00243	8d 49 01	 lea	 ecx, DWORD PTR [ecx+1]
  00246	84 c0		 test	 al, al
  00248	75 f6		 jne	 SHORT $LL83@FormatHead
  0024a	66 a1 00 00 00
	00		 mov	 ax, WORD PTR ??_C@_02PCIJFNDE@?$AN?6@

; 338  : 		delete[] line;

  00250	ff b5 fc fb ff
	ff		 push	 DWORD PTR _line$1$[ebp]
  00256	66 89 01	 mov	 WORD PTR [ecx], ax
  00259	a0 02 00 00 00	 mov	 al, BYTE PTR ??_C@_02PCIJFNDE@?$AN?6@+2
  0025e	88 41 02	 mov	 BYTE PTR [ecx+2], al
  00261	e8 00 00 00 00	 call	 ??_V@YAXPAX@Z		; operator delete[]
  00266	83 c4 04	 add	 esp, 4
$LN10@FormatHead:

; 339  : 	}
; 340  : 
; 341  : 	strcat( msgHeader, "To: " );

  00269	8d 4b ff	 lea	 ecx, DWORD PTR [ebx-1]
  0026c	8d 64 24 00	 npad	 4
$LL84@FormatHead:
  00270	8a 41 01	 mov	 al, BYTE PTR [ecx+1]
  00273	8d 49 01	 lea	 ecx, DWORD PTR [ecx+1]
  00276	84 c0		 test	 al, al
  00278	75 f6		 jne	 SHORT $LL84@FormatHead
  0027a	a1 00 00 00 00	 mov	 eax, DWORD PTR ??_C@_04CLHDMCFI@To?3?5@

; 342  : 	strcat( msgHeader, to );

  0027f	8b 95 f8 fb ff
	ff		 mov	 edx, DWORD PTR _to$1$[ebp]
  00285	8b f2		 mov	 esi, edx
  00287	89 01		 mov	 DWORD PTR [ecx], eax
  00289	a0 04 00 00 00	 mov	 al, BYTE PTR ??_C@_04CLHDMCFI@To?3?5@+4
  0028e	88 41 04	 mov	 BYTE PTR [ecx+4], al
$LL85@FormatHead:
  00291	8a 02		 mov	 al, BYTE PTR [edx]
  00293	42		 inc	 edx
  00294	84 c0		 test	 al, al
  00296	75 f9		 jne	 SHORT $LL85@FormatHead
  00298	2b d6		 sub	 edx, esi
  0029a	8d 7b ff	 lea	 edi, DWORD PTR [ebx-1]
  0029d	8d 49 00	 npad	 3
$LL86@FormatHead:
  002a0	8a 47 01	 mov	 al, BYTE PTR [edi+1]
  002a3	47		 inc	 edi
  002a4	84 c0		 test	 al, al
  002a6	75 f8		 jne	 SHORT $LL86@FormatHead
  002a8	8b ca		 mov	 ecx, edx
  002aa	c1 e9 02	 shr	 ecx, 2
  002ad	f3 a5		 rep movsd
  002af	8b ca		 mov	 ecx, edx
  002b1	83 e1 03	 and	 ecx, 3
  002b4	f3 a4		 rep movsb

; 343  : 	strcat( msgHeader, "\r\n" );

  002b6	8b f3		 mov	 esi, ebx
  002b8	8d 4e ff	 lea	 ecx, DWORD PTR [esi-1]
  002bb	eb 03 8d 49 00	 npad	 5
$LL87@FormatHead:
  002c0	8a 41 01	 mov	 al, BYTE PTR [ecx+1]
  002c3	8d 49 01	 lea	 ecx, DWORD PTR [ecx+1]
  002c6	84 c0		 test	 al, al
  002c8	75 f6		 jne	 SHORT $LL87@FormatHead
  002ca	66 a1 00 00 00
	00		 mov	 ax, WORD PTR ??_C@_02PCIJFNDE@?$AN?6@
  002d0	66 89 01	 mov	 WORD PTR [ecx], ax
  002d3	a0 02 00 00 00	 mov	 al, BYTE PTR ??_C@_02PCIJFNDE@?$AN?6@+2
  002d8	88 41 02	 mov	 BYTE PTR [ecx+2], al

; 344  : 	strcat( msgHeader, "Cc: " );

  002db	8d 4e ff	 lea	 ecx, DWORD PTR [esi-1]
  002de	8b ff		 npad	 2
$LL88@FormatHead:
  002e0	8a 41 01	 mov	 al, BYTE PTR [ecx+1]
  002e3	8d 49 01	 lea	 ecx, DWORD PTR [ecx+1]
  002e6	84 c0		 test	 al, al
  002e8	75 f6		 jne	 SHORT $LL88@FormatHead
  002ea	a1 00 00 00 00	 mov	 eax, DWORD PTR ??_C@_04LDGFDGHC@Cc?3?5@
  002ef	89 01		 mov	 DWORD PTR [ecx], eax
  002f1	a0 04 00 00 00	 mov	 al, BYTE PTR ??_C@_04LDGFDGHC@Cc?3?5@+4
  002f6	88 41 04	 mov	 BYTE PTR [ecx+4], al

; 345  : 	strcat( msgHeader, "\r\n" );

  002f9	8d 4e ff	 lea	 ecx, DWORD PTR [esi-1]
  002fc	8d 64 24 00	 npad	 4
$LL89@FormatHead:
  00300	8a 41 01	 mov	 al, BYTE PTR [ecx+1]
  00303	8d 49 01	 lea	 ecx, DWORD PTR [ecx+1]
  00306	84 c0		 test	 al, al
  00308	75 f6		 jne	 SHORT $LL89@FormatHead
  0030a	66 a1 00 00 00
	00		 mov	 ax, WORD PTR ??_C@_02PCIJFNDE@?$AN?6@

; 346  : 
; 347  : 	if( m_pcSubject != NULL ) 

  00310	8b 9d f4 fb ff
	ff		 mov	 ebx, DWORD PTR _this$GSCopy$1$[ebp]
  00316	66 89 01	 mov	 WORD PTR [ecx], ax
  00319	a0 02 00 00 00	 mov	 al, BYTE PTR ??_C@_02PCIJFNDE@?$AN?6@+2
  0031e	88 41 02	 mov	 BYTE PTR [ecx+2], al
  00321	83 7b 10 00	 cmp	 DWORD PTR [ebx+16], 0
  00325	0f 84 85 00 00
	00		 je	 $LN11@FormatHead

; 348  : 	{
; 349  : 		strcat( msgHeader, "Subject: " );

  0032b	8d 4e ff	 lea	 ecx, DWORD PTR [esi-1]
  0032e	8b ff		 npad	 2
$LL90@FormatHead:
  00330	8a 41 01	 mov	 al, BYTE PTR [ecx+1]
  00333	8d 49 01	 lea	 ecx, DWORD PTR [ecx+1]
  00336	84 c0		 test	 al, al
  00338	75 f6		 jne	 SHORT $LL90@FormatHead
  0033a	a1 00 00 00 00	 mov	 eax, DWORD PTR ??_C@_09JHOEHIGO@Subject?3?5@
  0033f	89 01		 mov	 DWORD PTR [ecx], eax
  00341	a1 04 00 00 00	 mov	 eax, DWORD PTR ??_C@_09JHOEHIGO@Subject?3?5@+4
  00346	89 41 04	 mov	 DWORD PTR [ecx+4], eax
  00349	66 a1 08 00 00
	00		 mov	 ax, WORD PTR ??_C@_09JHOEHIGO@Subject?3?5@+8
  0034f	66 89 41 08	 mov	 WORD PTR [ecx+8], ax

; 350  : 		strcat( msgHeader, m_pcSubject );

  00353	8b 53 10	 mov	 edx, DWORD PTR [ebx+16]
  00356	8b ca		 mov	 ecx, edx
  00358	89 8d fc fb ff
	ff		 mov	 DWORD PTR tv982[ebp], ecx
  0035e	8b ff		 npad	 2
$LL91@FormatHead:
  00360	8a 02		 mov	 al, BYTE PTR [edx]
  00362	42		 inc	 edx
  00363	84 c0		 test	 al, al
  00365	75 f9		 jne	 SHORT $LL91@FormatHead
  00367	2b d1		 sub	 edx, ecx
  00369	8d 7e ff	 lea	 edi, DWORD PTR [esi-1]
  0036c	8d 64 24 00	 npad	 4
$LL92@FormatHead:
  00370	8a 47 01	 mov	 al, BYTE PTR [edi+1]
  00373	47		 inc	 edi
  00374	84 c0		 test	 al, al
  00376	75 f8		 jne	 SHORT $LL92@FormatHead
  00378	8b b5 fc fb ff
	ff		 mov	 esi, DWORD PTR tv982[ebp]
  0037e	8b ca		 mov	 ecx, edx
  00380	c1 e9 02	 shr	 ecx, 2
  00383	f3 a5		 rep movsd
  00385	8b ca		 mov	 ecx, edx
  00387	83 e1 03	 and	 ecx, 3
  0038a	f3 a4		 rep movsb

; 351  : 		strcat( msgHeader, "\r\n" );

  0038c	8b b5 00 fc ff
	ff		 mov	 esi, DWORD PTR _msgHeader$1$[ebp]
  00392	8d 4e ff	 lea	 ecx, DWORD PTR [esi-1]
$LL93@FormatHead:
  00395	8a 41 01	 mov	 al, BYTE PTR [ecx+1]
  00398	8d 49 01	 lea	 ecx, DWORD PTR [ecx+1]
  0039b	84 c0		 test	 al, al
  0039d	75 f6		 jne	 SHORT $LL93@FormatHead
  0039f	66 a1 00 00 00
	00		 mov	 ax, WORD PTR ??_C@_02PCIJFNDE@?$AN?6@
  003a5	66 89 01	 mov	 WORD PTR [ecx], ax
  003a8	a0 02 00 00 00	 mov	 al, BYTE PTR ??_C@_02PCIJFNDE@?$AN?6@+2
  003ad	88 41 02	 mov	 BYTE PTR [ecx+2], al
$LN11@FormatHead:

; 352  : 	}
; 353  : 	if( m_pcXMailer != NULL ) 

  003b0	83 7b 18 00	 cmp	 DWORD PTR [ebx+24], 0
  003b4	0f 84 88 00 00
	00		 je	 $LN12@FormatHead

; 354  : 	{
; 355  : 		strcat( msgHeader,"X-Mailer: " );

  003ba	8d 4e ff	 lea	 ecx, DWORD PTR [esi-1]
  003bd	8d 49 00	 npad	 3
$LL94@FormatHead:
  003c0	8a 41 01	 mov	 al, BYTE PTR [ecx+1]
  003c3	8d 49 01	 lea	 ecx, DWORD PTR [ecx+1]
  003c6	84 c0		 test	 al, al
  003c8	75 f6		 jne	 SHORT $LL94@FormatHead
  003ca	a1 00 00 00 00	 mov	 eax, DWORD PTR ??_C@_0L@JCLOKMLO@X?9Mailer?3?5@
  003cf	89 01		 mov	 DWORD PTR [ecx], eax
  003d1	a1 04 00 00 00	 mov	 eax, DWORD PTR ??_C@_0L@JCLOKMLO@X?9Mailer?3?5@+4
  003d6	89 41 04	 mov	 DWORD PTR [ecx+4], eax
  003d9	66 a1 08 00 00
	00		 mov	 ax, WORD PTR ??_C@_0L@JCLOKMLO@X?9Mailer?3?5@+8
  003df	66 89 41 08	 mov	 WORD PTR [ecx+8], ax
  003e3	a0 0a 00 00 00	 mov	 al, BYTE PTR ??_C@_0L@JCLOKMLO@X?9Mailer?3?5@+10
  003e8	88 41 0a	 mov	 BYTE PTR [ecx+10], al

; 356  : 		strcat( msgHeader, m_pcXMailer );

  003eb	8b 53 18	 mov	 edx, DWORD PTR [ebx+24]
  003ee	8b ca		 mov	 ecx, edx
  003f0	89 8d fc fb ff
	ff		 mov	 DWORD PTR tv995[ebp], ecx
$LL95@FormatHead:
  003f6	8a 02		 mov	 al, BYTE PTR [edx]
  003f8	42		 inc	 edx
  003f9	84 c0		 test	 al, al
  003fb	75 f9		 jne	 SHORT $LL95@FormatHead
  003fd	2b d1		 sub	 edx, ecx
  003ff	8d 7e ff	 lea	 edi, DWORD PTR [esi-1]
$LL96@FormatHead:
  00402	8a 47 01	 mov	 al, BYTE PTR [edi+1]
  00405	47		 inc	 edi
  00406	84 c0		 test	 al, al
  00408	75 f8		 jne	 SHORT $LL96@FormatHead
  0040a	8b b5 fc fb ff
	ff		 mov	 esi, DWORD PTR tv995[ebp]
  00410	8b ca		 mov	 ecx, edx
  00412	c1 e9 02	 shr	 ecx, 2
  00415	f3 a5		 rep movsd
  00417	8b ca		 mov	 ecx, edx
  00419	83 e1 03	 and	 ecx, 3
  0041c	f3 a4		 rep movsb

; 357  : 		strcat( msgHeader, "\r\n" );

  0041e	8b b5 00 fc ff
	ff		 mov	 esi, DWORD PTR _msgHeader$1$[ebp]
  00424	8d 4e ff	 lea	 ecx, DWORD PTR [esi-1]
$LL97@FormatHead:
  00427	8a 41 01	 mov	 al, BYTE PTR [ecx+1]
  0042a	8d 49 01	 lea	 ecx, DWORD PTR [ecx+1]
  0042d	84 c0		 test	 al, al
  0042f	75 f6		 jne	 SHORT $LL97@FormatHead
  00431	66 a1 00 00 00
	00		 mov	 ax, WORD PTR ??_C@_02PCIJFNDE@?$AN?6@
  00437	66 89 01	 mov	 WORD PTR [ecx], ax
  0043a	a0 02 00 00 00	 mov	 al, BYTE PTR ??_C@_02PCIJFNDE@?$AN?6@+2
  0043f	88 41 02	 mov	 BYTE PTR [ecx+2], al
$LN12@FormatHead:

; 358  : 	}
; 359  : 
; 360  : 	if( m_pcReplyTo != NULL ) 

  00442	83 7b 1c 00	 cmp	 DWORD PTR [ebx+28], 0
  00446	0f 84 86 00 00
	00		 je	 $LN13@FormatHead

; 361  : 	{
; 362  : 		strcat( msgHeader, "Reply-To: " );

  0044c	8d 4e ff	 lea	 ecx, DWORD PTR [esi-1]
  0044f	90		 npad	 1
$LL98@FormatHead:
  00450	8a 41 01	 mov	 al, BYTE PTR [ecx+1]
  00453	8d 49 01	 lea	 ecx, DWORD PTR [ecx+1]
  00456	84 c0		 test	 al, al
  00458	75 f6		 jne	 SHORT $LL98@FormatHead
  0045a	a1 00 00 00 00	 mov	 eax, DWORD PTR ??_C@_0L@CEOPNKEJ@Reply?9To?3?5@
  0045f	89 01		 mov	 DWORD PTR [ecx], eax
  00461	a1 04 00 00 00	 mov	 eax, DWORD PTR ??_C@_0L@CEOPNKEJ@Reply?9To?3?5@+4
  00466	89 41 04	 mov	 DWORD PTR [ecx+4], eax
  00469	66 a1 08 00 00
	00		 mov	 ax, WORD PTR ??_C@_0L@CEOPNKEJ@Reply?9To?3?5@+8
  0046f	66 89 41 08	 mov	 WORD PTR [ecx+8], ax
  00473	a0 0a 00 00 00	 mov	 al, BYTE PTR ??_C@_0L@CEOPNKEJ@Reply?9To?3?5@+10
  00478	88 41 0a	 mov	 BYTE PTR [ecx+10], al

; 363  : 		strcat( msgHeader, m_pcReplyTo );

  0047b	8b 53 1c	 mov	 edx, DWORD PTR [ebx+28]
  0047e	8b ca		 mov	 ecx, edx
  00480	89 8d fc fb ff
	ff		 mov	 DWORD PTR tv1008[ebp], ecx
$LL99@FormatHead:
  00486	8a 02		 mov	 al, BYTE PTR [edx]
  00488	42		 inc	 edx
  00489	84 c0		 test	 al, al
  0048b	75 f9		 jne	 SHORT $LL99@FormatHead
  0048d	2b d1		 sub	 edx, ecx
  0048f	8d 7e ff	 lea	 edi, DWORD PTR [esi-1]
$LL100@FormatHead:
  00492	8a 47 01	 mov	 al, BYTE PTR [edi+1]
  00495	47		 inc	 edi
  00496	84 c0		 test	 al, al
  00498	75 f8		 jne	 SHORT $LL100@FormatHead
  0049a	8b b5 fc fb ff
	ff		 mov	 esi, DWORD PTR tv1008[ebp]
  004a0	8b ca		 mov	 ecx, edx
  004a2	c1 e9 02	 shr	 ecx, 2
  004a5	f3 a5		 rep movsd
  004a7	8b ca		 mov	 ecx, edx
  004a9	83 e1 03	 and	 ecx, 3
  004ac	f3 a4		 rep movsb

; 364  : 		strcat( msgHeader, "\r\n" );

  004ae	8b b5 00 fc ff
	ff		 mov	 esi, DWORD PTR _msgHeader$1$[ebp]
  004b4	8d 4e ff	 lea	 ecx, DWORD PTR [esi-1]
$LL101@FormatHead:
  004b7	8a 41 01	 mov	 al, BYTE PTR [ecx+1]
  004ba	8d 49 01	 lea	 ecx, DWORD PTR [ecx+1]
  004bd	84 c0		 test	 al, al
  004bf	75 f6		 jne	 SHORT $LL101@FormatHead
  004c1	66 a1 00 00 00
	00		 mov	 ax, WORD PTR ??_C@_02PCIJFNDE@?$AN?6@
  004c7	66 89 01	 mov	 WORD PTR [ecx], ax
  004ca	a0 02 00 00 00	 mov	 al, BYTE PTR ??_C@_02PCIJFNDE@?$AN?6@+2
  004cf	88 41 02	 mov	 BYTE PTR [ecx+2], al
$LN13@FormatHead:
; File D:\Program Files\Microsoft Visual Studio\18\Community\VC\Tools\MSVC\14.50.35717\include\vector

; 1915 :         return static_cast<size_type>(_My_data._Mylast - _My_data._Myfirst);

  004d2	8b 8b c8 01 00
	00		 mov	 ecx, DWORD PTR [ebx+456]
; File E:\Proyectos\JuegosOnlineproyectos\PB\pbblow\Piercing Blow Remake\i3Server\src\i3Base\i3SMTPMail.cpp

; 367  : 	if( Attach.size() > 0 ) {		// ĆÄŔĎŔĚ ŔÖŔ»¶§

  004d8	8d 7e ff	 lea	 edi, DWORD PTR [esi-1]
; File D:\Program Files\Microsoft Visual Studio\18\Community\VC\Tools\MSVC\14.50.35717\include\vector

; 1915 :         return static_cast<size_type>(_My_data._Mylast - _My_data._Myfirst);

  004db	2b 8b c4 01 00
	00		 sub	 ecx, DWORD PTR [ebx+452]
  004e1	b8 e1 83 0f 3e	 mov	 eax, 1041204193		; 3e0f83e1H
  004e6	f7 e9		 imul	 ecx
  004e8	c1 fa 06	 sar	 edx, 6
  004eb	8b c2		 mov	 eax, edx
  004ed	c1 e8 1f	 shr	 eax, 31			; 0000001fH
  004f0	03 c2		 add	 eax, edx
; File E:\Proyectos\JuegosOnlineproyectos\PB\pbblow\Piercing Blow Remake\i3Server\src\i3Base\i3SMTPMail.cpp

; 367  : 	if( Attach.size() > 0 ) {		// ĆÄŔĎŔĚ ŔÖŔ»¶§

  004f2	0f 84 08 01 00
	00		 je	 $LL104@FormatHead
$LL102@FormatHead:

; 368  : 		strcat( msgHeader, "MIME-Version: 1.0\r\nContent-type: multipart/mixed; boundary=\"#BOUNDARY#\"\r\n" );

  004f8	8a 47 01	 mov	 al, BYTE PTR [edi+1]
  004fb	47		 inc	 edi
  004fc	84 c0		 test	 al, al
  004fe	75 f8		 jne	 SHORT $LL102@FormatHead
  00500	b9 12 00 00 00	 mov	 ecx, 18			; 00000012H
  00505	be 00 00 00 00	 mov	 esi, OFFSET ??_C@_0EK@PBHEMFNJ@MIME?9Version?3?51?40?$AN?6Content?9type@
  0050a	f3 a5		 rep movsd
  0050c	66 a5		 movsw

; 369  : 		strcat( msgHeader, "\r\n" );

  0050e	8b b5 00 fc ff
	ff		 mov	 esi, DWORD PTR _msgHeader$1$[ebp]
  00514	8d 4e ff	 lea	 ecx, DWORD PTR [esi-1]
$LL103@FormatHead:
  00517	8a 41 01	 mov	 al, BYTE PTR [ecx+1]
  0051a	8d 49 01	 lea	 ecx, DWORD PTR [ecx+1]
  0051d	84 c0		 test	 al, al
  0051f	75 f6		 jne	 SHORT $LL103@FormatHead
  00521	66 a1 00 00 00
	00		 mov	 ax, WORD PTR ??_C@_02PCIJFNDE@?$AN?6@
  00527	66 89 01	 mov	 WORD PTR [ecx], ax
  0052a	a0 02 00 00 00	 mov	 al, BYTE PTR ??_C@_02PCIJFNDE@?$AN?6@+2
  0052f	88 41 02	 mov	 BYTE PTR [ecx+2], al

; 370  : 	}

  00532	e9 e5 00 00 00	 jmp	 $LN15@FormatHead
$LL105@FormatHead:

; 308  : 	for( i = 0; i < Recipients.size(); i++ ) 

  00537	8b bd f8 fb ff
	ff		 mov	 edi, DWORD PTR _to$1$[ebp]
$LN7@FormatHead:

; 309  : 	{		
; 310  : 		i > 0 ? strcat( to,"," ) : strcat( to, "" );

  0053d	4f		 dec	 edi
  0053e	85 db		 test	 ebx, ebx
  00540	74 15		 je	 SHORT $LL75@FormatHead
$LL74@FormatHead:
  00542	8a 47 01	 mov	 al, BYTE PTR [edi+1]
  00545	8d 7f 01	 lea	 edi, DWORD PTR [edi+1]
  00548	84 c0		 test	 al, al
  0054a	75 f6		 jne	 SHORT $LL74@FormatHead
  0054c	66 a1 00 00 00
	00		 mov	 ax, WORD PTR ??_C@_01IHBHIGKO@?0@
  00552	66 89 07	 mov	 WORD PTR [edi], ax
  00555	eb 11		 jmp	 SHORT $LN18@FormatHead
$LL75@FormatHead:
  00557	8a 47 01	 mov	 al, BYTE PTR [edi+1]
  0055a	8d 7f 01	 lea	 edi, DWORD PTR [edi+1]
  0055d	84 c0		 test	 al, al
  0055f	75 f6		 jne	 SHORT $LL75@FormatHead
  00561	a0 00 00 00 00	 mov	 al, BYTE PTR ??_C@_00CNPNBAHC@@
  00566	88 07		 mov	 BYTE PTR [edi], al
$LN18@FormatHead:
; File D:\Program Files\Microsoft Visual Studio\18\Community\VC\Tools\MSVC\14.50.35717\include\vector

; 1949 :         if (static_cast<size_type>(_My_data._Mylast - _My_data._Myfirst) <= _Pos) {

  00568	8b 8d f4 fb ff
	ff		 mov	 ecx, DWORD PTR _this$GSCopy$1$[ebp]
  0056e	b8 ab aa aa 2a	 mov	 eax, 715827883		; 2aaaaaabH
  00573	8b b6 b8 01 00
	00		 mov	 esi, DWORD PTR [esi+440]
  00579	8b 89 bc 01 00
	00		 mov	 ecx, DWORD PTR [ecx+444]
  0057f	2b ce		 sub	 ecx, esi
  00581	f7 e9		 imul	 ecx
  00583	c1 fa 02	 sar	 edx, 2
  00586	8b c2		 mov	 eax, edx
  00588	c1 e8 1f	 shr	 eax, 31			; 0000001fH
  0058b	03 c2		 add	 eax, edx
  0058d	3b c3		 cmp	 eax, ebx
  0058f	0f 86 a8 00 00
	00		 jbe	 $LN65@FormatHead

; 1953 :         return _My_data._Myfirst[_Pos];

  00595	8d 04 5b	 lea	 eax, DWORD PTR [ebx+ebx*2]
; File D:\Program Files\Microsoft Visual Studio\18\Community\VC\Tools\MSVC\14.50.35717\include\xstring

; 453  :         return _Myres > _Small_string_capacity;

  00598	83 7c c6 14 0f	 cmp	 DWORD PTR [esi+eax*8+20], 15 ; 0000000fH
; File D:\Program Files\Microsoft Visual Studio\18\Community\VC\Tools\MSVC\14.50.35717\include\vector

; 1953 :         return _My_data._Myfirst[_Pos];

  0059d	8d 14 c6	 lea	 edx, DWORD PTR [esi+eax*8]
; File D:\Program Files\Microsoft Visual Studio\18\Community\VC\Tools\MSVC\14.50.35717\include\xstring

; 445  :         if (_Large_mode_engaged()) {

  005a0	76 02		 jbe	 SHORT $LN53@FormatHead

; 446  :             _Result = _Unfancy(_Bx._Ptr);

  005a2	8b 12		 mov	 edx, DWORD PTR [edx]
$LN53@FormatHead:
; File E:\Proyectos\JuegosOnlineproyectos\PB\pbblow\Piercing Blow Remake\i3Server\src\i3Base\i3SMTPMail.cpp

; 311  : 		strcat( to, Recipients.at(i).GetEmail() );

  005a4	8b f2		 mov	 esi, edx
$LL76@FormatHead:
  005a6	8a 02		 mov	 al, BYTE PTR [edx]
  005a8	42		 inc	 edx
  005a9	84 c0		 test	 al, al
  005ab	75 f9		 jne	 SHORT $LL76@FormatHead
  005ad	8b bd f8 fb ff
	ff		 mov	 edi, DWORD PTR _to$1$[ebp]
  005b3	2b d6		 sub	 edx, esi
  005b5	4f		 dec	 edi
$LL77@FormatHead:
  005b6	8a 47 01	 mov	 al, BYTE PTR [edi+1]
  005b9	47		 inc	 edi
  005ba	84 c0		 test	 al, al
  005bc	75 f8		 jne	 SHORT $LL77@FormatHead
  005be	8b ca		 mov	 ecx, edx
; File D:\Program Files\Microsoft Visual Studio\18\Community\VC\Tools\MSVC\14.50.35717\include\vector

; 1915 :         return static_cast<size_type>(_My_data._Mylast - _My_data._Myfirst);

  005c0	b8 ab aa aa 2a	 mov	 eax, 715827883		; 2aaaaaabH
; File E:\Proyectos\JuegosOnlineproyectos\PB\pbblow\Piercing Blow Remake\i3Server\src\i3Base\i3SMTPMail.cpp

; 311  : 		strcat( to, Recipients.at(i).GetEmail() );

  005c5	c1 e9 02	 shr	 ecx, 2
  005c8	43		 inc	 ebx
  005c9	f3 a5		 rep movsd
  005cb	8b ca		 mov	 ecx, edx
  005cd	83 e1 03	 and	 ecx, 3
  005d0	f3 a4		 rep movsb
; File D:\Program Files\Microsoft Visual Studio\18\Community\VC\Tools\MSVC\14.50.35717\include\vector

; 1915 :         return static_cast<size_type>(_My_data._Mylast - _My_data._Myfirst);

  005d2	8b b5 f4 fb ff
	ff		 mov	 esi, DWORD PTR _this$GSCopy$1$[ebp]
  005d8	8b 8e bc 01 00
	00		 mov	 ecx, DWORD PTR [esi+444]
  005de	2b 8e b8 01 00
	00		 sub	 ecx, DWORD PTR [esi+440]
  005e4	f7 e9		 imul	 ecx
  005e6	c1 fa 02	 sar	 edx, 2
  005e9	8b c2		 mov	 eax, edx
  005eb	c1 e8 1f	 shr	 eax, 31			; 0000001fH
  005ee	03 c2		 add	 eax, edx
; File E:\Proyectos\JuegosOnlineproyectos\PB\pbblow\Piercing Blow Remake\i3Server\src\i3Base\i3SMTPMail.cpp

; 308  : 	for( i = 0; i < Recipients.size(); i++ ) 

  005f0	3b d8		 cmp	 ebx, eax
  005f2	0f 82 3f ff ff
	ff		 jb	 $LL105@FormatHead
; File D:\Program Files\Microsoft Visual Studio\18\Community\VC\Tools\MSVC\14.50.35717\include\vector

; 1949 :         if (static_cast<size_type>(_My_data._Mylast - _My_data._Myfirst) <= _Pos) {

  005f8	e9 04 fb ff ff	 jmp	 $LN6@FormatHead
  005fd	8d 49 00	 npad	 3
$LL104@FormatHead:
; File E:\Proyectos\JuegosOnlineproyectos\PB\pbblow\Piercing Blow Remake\i3Server\src\i3Base\i3SMTPMail.cpp

; 372  : 		strcat( msgHeader, "MIME-Version: 1.0\r\nContent-type: text/plain; charset=euc-kr\r\n" );

  00600	8a 47 01	 mov	 al, BYTE PTR [edi+1]
  00603	47		 inc	 edi
  00604	84 c0		 test	 al, al
  00606	75 f8		 jne	 SHORT $LL104@FormatHead
  00608	b9 0f 00 00 00	 mov	 ecx, 15			; 0000000fH
  0060d	be 00 00 00 00	 mov	 esi, OFFSET ??_C@_0DO@JJKEBIHI@MIME?9Version?3?51?40?$AN?6Content?9type@
  00612	f3 a5		 rep movsd
  00614	66 a5		 movsw
  00616	8b b5 00 fc ff
	ff		 mov	 esi, DWORD PTR _msgHeader$1$[ebp]
$LN15@FormatHead:

; 373  : 	}
; 374  : 	
; 375  : 	delete[] to;

  0061c	ff b5 f8 fb ff
	ff		 push	 DWORD PTR _to$1$[ebp]
  00622	e8 00 00 00 00	 call	 ??_V@YAXPAX@Z		; operator delete[]

; 378  : }

  00627	8b 4d fc	 mov	 ecx, DWORD PTR __$ArrayPad$[ebp]
  0062a	83 c4 04	 add	 esp, 4
  0062d	8b c6		 mov	 eax, esi
  0062f	33 cd		 xor	 ecx, ebp
  00631	5f		 pop	 edi
  00632	5e		 pop	 esi
  00633	5b		 pop	 ebx
  00634	e8 00 00 00 00	 call	 @__security_check_cookie@4
  00639	8b e5		 mov	 esp, ebp
  0063b	5d		 pop	 ebp
  0063c	c3		 ret	 0
$LN65@FormatHead:
; File D:\Program Files\Microsoft Visual Studio\18\Community\VC\Tools\MSVC\14.50.35717\include\vector

; 1950 :             _Xrange();

  0063d	e8 00 00 00 00	 call	 ?_Xrange@?$vector@VTRecipient@@V?$allocator@VTRecipient@@@std@@@std@@CAXXZ ; std::vector<TRecipient,std::allocator<TRecipient> >::_Xrange
$LN182@FormatHead:
  00642	cc		 int	 3
?FormatHeader@i3SMTPMail@@AAEPADXZ ENDP			; i3SMTPMail::FormatHeader
_TEXT	ENDS
; Function compile flags: /Ogtp
; File D:\Program Files\Microsoft Visual Studio\18\Community\VC\Tools\MSVC\14.50.35717\include\vector
;	COMDAT ?_Xrange@?$vector@VTRecipient@@V?$allocator@VTRecipient@@@std@@@std@@CAXXZ
_TEXT	SEGMENT
?_Xrange@?$vector@VTRecipient@@V?$allocator@VTRecipient@@@std@@@std@@CAXXZ PROC ; std::vector<TRecipient,std::allocator<TRecipient> >::_Xrange, COMDAT

; 2188 :         _Xout_of_range("invalid vector subscript");

  00000	68 00 00 00 00	 push	 OFFSET ??_C@_0BJ@DHFDPMIM@invalid?5vector?5subscript@
  00005	e8 00 00 00 00	 call	 ?_Xout_of_range@std@@YAXPBD@Z ; std::_Xout_of_range
$LN3@Xrange:
  0000a	cc		 int	 3
?_Xrange@?$vector@VTRecipient@@V?$allocator@VTRecipient@@@std@@@std@@CAXXZ ENDP ; std::vector<TRecipient,std::allocator<TRecipient> >::_Xrange
_TEXT	ENDS
; Function compile flags: /Ogtp
; File D:\Program Files\Microsoft Visual Studio\18\Community\VC\Tools\MSVC\14.50.35717\include\vector
;	COMDAT ?_Xlength@?$vector@VTRecipient@@V?$allocator@VTRecipient@@@std@@@std@@CAXXZ
_TEXT	SEGMENT
?_Xlength@?$vector@VTRecipient@@V?$allocator@VTRecipient@@@std@@@std@@CAXXZ PROC ; std::vector<TRecipient,std::allocator<TRecipient> >::_Xlength, COMDAT

; 2184 :         _Xlength_error("vector too long");

  00000	68 00 00 00 00	 push	 OFFSET ??_C@_0BA@FOIKENOD@vector?5too?5long@
  00005	e8 00 00 00 00	 call	 ?_Xlength_error@std@@YAXPBD@Z ; std::_Xlength_error
$LN3@Xlength:
  0000a	cc		 int	 3
?_Xlength@?$vector@VTRecipient@@V?$allocator@VTRecipient@@@std@@@std@@CAXXZ ENDP ; std::vector<TRecipient,std::allocator<TRecipient> >::_Xlength
_TEXT	ENDS
; Function compile flags: /Ogtp
; File D:\Program Files\Microsoft Visual Studio\18\Community\VC\Tools\MSVC\14.50.35717\include\vector
; File D:\Program Files\Microsoft Visual Studio\18\Community\VC\Tools\MSVC\14.50.35717\include\xmemory
; File D:\Program Files\Microsoft Visual Studio\18\Community\VC\Tools\MSVC\14.50.35717\include\vector
; File D:\Program Files\Microsoft Visual Studio\18\Community\VC\Tools\MSVC\14.50.35717\include\xmemory
; File D:\Program Files\Microsoft Visual Studio\18\Community\VC\Tools\MSVC\14.50.35717\include\vector
;	COMDAT ??1?$vector@VTRecipient@@V?$allocator@VTRecipient@@@std@@@std@@QAE@XZ
_TEXT	SEGMENT
??1?$vector@VTRecipient@@V?$allocator@VTRecipient@@@std@@@std@@QAE@XZ PROC ; std::vector<TRecipient,std::allocator<TRecipient> >::~vector<TRecipient,std::allocator<TRecipient> >, COMDAT
; _this$ = ecx

; 829  :     _CONSTEXPR20 ~vector() noexcept {

  00000	57		 push	 edi
  00001	8b f9		 mov	 edi, ecx

; 2090 :         if (_Myfirst) { // destroy and deallocate old array

  00003	8b 07		 mov	 eax, DWORD PTR [edi]
  00005	85 c0		 test	 eax, eax
  00007	74 65		 je	 SHORT $LN5@vector
  00009	56		 push	 esi

; 2091 :             _STD _Destroy_range(_Myfirst, _Mylast, _Al);

  0000a	57		 push	 edi
  0000b	ff 77 04	 push	 DWORD PTR [edi+4]
  0000e	50		 push	 eax
  0000f	e8 00 00 00 00	 call	 ??$_Destroy_range@V?$allocator@VTRecipient@@@std@@@std@@YAXPAVTRecipient@@QAV1@AAV?$allocator@VTRecipient@@@0@@Z ; std::_Destroy_range<std::allocator<TRecipient> >

; 2092 :             _ASAN_VECTOR_REMOVE;
; 2093 :             _Al.deallocate(_Myfirst, static_cast<size_type>(_Myend - _Myfirst));

  00014	8b 4f 08	 mov	 ecx, DWORD PTR [edi+8]
  00017	b8 ab aa aa 2a	 mov	 eax, 715827883		; 2aaaaaabH
  0001c	8b 37		 mov	 esi, DWORD PTR [edi]
  0001e	83 c4 0c	 add	 esp, 12			; 0000000cH
  00021	2b ce		 sub	 ecx, esi
  00023	f7 e9		 imul	 ecx
  00025	c1 fa 02	 sar	 edx, 2
  00028	8b c2		 mov	 eax, edx
  0002a	c1 e8 1f	 shr	 eax, 31			; 0000001fH
  0002d	03 c2		 add	 eax, edx
; File D:\Program Files\Microsoft Visual Studio\18\Community\VC\Tools\MSVC\14.50.35717\include\xmemory

; 989  :         _STD _Deallocate<_New_alignof<_Ty>>(_Ptr, sizeof(_Ty) * _Count);

  0002f	8d 0c 40	 lea	 ecx, DWORD PTR [eax+eax*2]
  00032	c1 e1 03	 shl	 ecx, 3

; 288  :         if (_Bytes >= _Big_allocation_threshold) {

  00035	81 f9 00 10 00
	00		 cmp	 ecx, 4096		; 00001000H
  0003b	72 12		 jb	 SHORT $LN18@vector

; 209  :     const uintptr_t _Ptr_container   = _Ptr_user[-1];

  0003d	8b 56 fc	 mov	 edx, DWORD PTR [esi-4]
  00040	83 c1 23	 add	 ecx, 35			; 00000023H

; 210  : 
; 211  :     // If the following asserts, it likely means that we are performing
; 212  :     // an aligned delete on memory coming from an unaligned allocation.
; 213  :     _STL_ASSERT(_Ptr_user[-2] == _Big_allocation_sentinel, "invalid argument");
; 214  : 
; 215  :     // Extra paranoia on aligned allocation/deallocation; ensure _Ptr_container is
; 216  :     // in range [_Min_back_shift, _Non_user_size]
; 217  : #ifdef _DEBUG
; 218  :     constexpr uintptr_t _Min_back_shift = 2 * sizeof(void*);
; 219  : #else // ^^^ defined(_DEBUG) / !defined(_DEBUG) vvv
; 220  :     constexpr uintptr_t _Min_back_shift = sizeof(void*);
; 221  : #endif // ^^^ !defined(_DEBUG) ^^^
; 222  :     const uintptr_t _Back_shift = reinterpret_cast<uintptr_t>(_Ptr) - _Ptr_container;

  00043	2b f2		 sub	 esi, edx

; 223  :     _STL_VERIFY(_Back_shift >= _Min_back_shift && _Back_shift <= _Non_user_size, "invalid argument");

  00045	8d 46 fc	 lea	 eax, DWORD PTR [esi-4]
  00048	83 f8 1f	 cmp	 eax, 31			; 0000001fH
  0004b	77 23		 ja	 SHORT $LN17@vector

; 224  :     _Ptr = reinterpret_cast<void*>(_Ptr_container);

  0004d	8b f2		 mov	 esi, edx
$LN18@vector:

; 293  :         ::operator delete(_Ptr, _Bytes);

  0004f	51		 push	 ecx
  00050	56		 push	 esi
  00051	e8 00 00 00 00	 call	 ??3@YAXPAXI@Z		; operator delete
  00056	83 c4 08	 add	 esp, 8
; File D:\Program Files\Microsoft Visual Studio\18\Community\VC\Tools\MSVC\14.50.35717\include\vector

; 2095 :             _Myfirst = nullptr;

  00059	c7 07 00 00 00
	00		 mov	 DWORD PTR [edi], 0

; 2096 :             _Mylast  = nullptr;

  0005f	c7 47 04 00 00
	00 00		 mov	 DWORD PTR [edi+4], 0

; 2097 :             _Myend   = nullptr;

  00066	c7 47 08 00 00
	00 00		 mov	 DWORD PTR [edi+8], 0
  0006d	5e		 pop	 esi
$LN5@vector:
  0006e	5f		 pop	 edi

; 835  :     }

  0006f	c3		 ret	 0
$LN17@vector:
; File D:\Program Files\Microsoft Visual Studio\18\Community\VC\Tools\MSVC\14.50.35717\include\xmemory

; 223  :     _STL_VERIFY(_Back_shift >= _Min_back_shift && _Back_shift <= _Non_user_size, "invalid argument");

  00070	b9 05 00 00 00	 mov	 ecx, 5
  00075	cd 29		 int	 41			; 00000029H
$LN28@vector:
$LN26@vector:
??1?$vector@VTRecipient@@V?$allocator@VTRecipient@@@std@@@std@@QAE@XZ ENDP ; std::vector<TRecipient,std::allocator<TRecipient> >::~vector<TRecipient,std::allocator<TRecipient> >
_TEXT	ENDS
; Function compile flags: /Ogtp
; File E:\Proyectos\JuegosOnlineproyectos\PB\pbblow\Piercing Blow Remake\i3Server\src\i3Base\i3SMTPMail.cpp
;	COMDAT ?EncodeBase64@i3SMTPMail@@QAEHPBDHPAD@Z
_TEXT	SEGMENT
_pbase64tab$ = -96					; size = 65
tv435 = -28						; size = 4
tv444 = -24						; size = 4
tv450 = -20						; size = 4
_i$1$ = -16						; size = 4
tv442 = -12						; size = 4
_nInPos$1$ = -8						; size = 4
_nLineLen$1$ = -4					; size = 4
_pszIn$ = 8						; size = 4
_nInLen$ = 12						; size = 4
_pszOut$ = 16						; size = 4
?EncodeBase64@i3SMTPMail@@QAEHPBDHPAD@Z PROC		; i3SMTPMail::EncodeBase64, COMDAT
; _this$ = ecx

; 608  : {

  00000	55		 push	 ebp
  00001	8b ec		 mov	 ebp, esp
  00003	83 ec 60	 sub	 esp, 96			; 00000060H
  00006	53		 push	 ebx
  00007	56		 push	 esi
  00008	57		 push	 edi

; 609  : 	char pbase64tab[] =	"ABCDEFGHIJKLMNOPQRSTUVWXYZ"

  00009	b9 10 00 00 00	 mov	 ecx, 16			; 00000010H
  0000e	8d 7d a0	 lea	 edi, DWORD PTR _pbase64tab$[ebp]
  00011	be 00 00 00 00	 mov	 esi, OFFSET ??_C@_0EB@NFPJKBDG@ABCDEFGHIJKLMNOPQRSTUVWXYZabcde@

; 610  : 						"abcdefghijklmnopqrstuvwxyz0123456789+/";
; 611  : 
; 612  : 	//Set up the parameters prior to the main encoding loop
; 613  : 	INT32 nInPos	= 0;
; 614  : 	INT32 nOutPos	= 0;
; 615  : 	INT32 nLineLen	= 0;

  00016	33 c0		 xor	 eax, eax
  00018	f3 a5		 rep movsd
  0001a	89 45 fc	 mov	 DWORD PTR _nLineLen$1$[ebp], eax
  0001d	33 c9		 xor	 ecx, ecx

; 616  : 
; 617  : 	
; 618  : 	// Get three characters at a time from the input buffer and encode them
; 619  : 	for (INT32 i = 0; i < nInLen / 3; ++i) 

  0001f	b8 56 55 55 55	 mov	 eax, 1431655766		; 55555556H
  00024	89 4d f0	 mov	 DWORD PTR _i$1$[ebp], ecx
  00027	f7 6d 0c	 imul	 DWORD PTR _nInLen$[ebp]
  0002a	a4		 movsb
  0002b	8b c2		 mov	 eax, edx
  0002d	33 f6		 xor	 esi, esi
  0002f	c1 e8 1f	 shr	 eax, 31			; 0000001fH
  00032	03 c2		 add	 eax, edx
  00034	89 75 f8	 mov	 DWORD PTR _nInPos$1$[ebp], esi
  00037	89 45 ec	 mov	 DWORD PTR tv450[ebp], eax
  0003a	85 c0		 test	 eax, eax
  0003c	0f 8e b9 00 00
	00		 jle	 $LN3@EncodeBase
  00042	8b 55 08	 mov	 edx, DWORD PTR _pszIn$[ebp]
  00045	8b 45 10	 mov	 eax, DWORD PTR _pszOut$[ebp]
  00048	40		 inc	 eax
  00049	89 45 f4	 mov	 DWORD PTR tv442[ebp], eax
  0004c	8d 5a 01	 lea	 ebx, DWORD PTR [edx+1]
  0004f	90		 npad	 1
$LL4@EncodeBase:

; 620  : 	{
; 621  : 		//Get the next 2 characters
; 622  : 		INT32 c1 = pszIn[nInPos++] & 0xFF;

  00050	8b 45 f8	 mov	 eax, DWORD PTR _nInPos$1$[ebp]

; 623  : 		INT32 c2 = pszIn[nInPos++] & 0xFF;
; 624  : 		INT32 c3 = pszIn[nInPos++] & 0xFF;
; 625  : 
; 626  : 		//Encode into the 4 6 bit characters
; 627  : 		pszOut[nOutPos++] = pbase64tab[(c1 & 0xFC) >> 2];

  00053	8b 75 10	 mov	 esi, DWORD PTR _pszOut$[ebp]
  00056	89 4d e4	 mov	 DWORD PTR tv435[ebp], ecx
  00059	89 4d e8	 mov	 DWORD PTR tv444[ebp], ecx
  0005c	0f b6 14 10	 movzx	 edx, BYTE PTR [eax+edx]
  00060	0f b6 3c 03	 movzx	 edi, BYTE PTR [ebx+eax]
  00064	0f b6 5c 03 01	 movzx	 ebx, BYTE PTR [ebx+eax+1]
  00069	83 c0 03	 add	 eax, 3
  0006c	89 45 f8	 mov	 DWORD PTR _nInPos$1$[ebp], eax
  0006f	8b c2		 mov	 eax, edx
  00071	c1 e8 02	 shr	 eax, 2

; 628  : 		pszOut[nOutPos++] = pbase64tab[((c1 & 0x03) << 4) | ((c2 & 0xF0) >> 4)];

  00074	83 e2 03	 and	 edx, 3
  00077	c1 e2 04	 shl	 edx, 4
  0007a	0f b6 44 05 a0	 movzx	 eax, BYTE PTR _pbase64tab$[ebp+eax]
  0007f	88 04 31	 mov	 BYTE PTR [ecx+esi], al
  00082	8b c7		 mov	 eax, edi
  00084	c1 e8 04	 shr	 eax, 4
  00087	8b f1		 mov	 esi, ecx
  00089	0b d0		 or	 edx, eax

; 629  : 		pszOut[nOutPos++] = pbase64tab[((c2 & 0x0F) << 2) | ((c3 & 0xC0) >> 6)];

  0008b	83 e7 0f	 and	 edi, 15			; 0000000fH
  0008e	c1 e7 02	 shl	 edi, 2
  00091	0f b6 44 15 a0	 movzx	 eax, BYTE PTR _pbase64tab$[ebp+edx]
  00096	8b 55 f4	 mov	 edx, DWORD PTR tv442[ebp]
  00099	88 04 32	 mov	 BYTE PTR [edx+esi], al
  0009c	8b c3		 mov	 eax, ebx
  0009e	8b 75 f4	 mov	 esi, DWORD PTR tv442[ebp]
  000a1	8b d1		 mov	 edx, ecx
  000a3	c1 e8 06	 shr	 eax, 6

; 630  : 		pszOut[nOutPos++] = pbase64tab[c3 & 0x3F];

  000a6	83 e3 3f	 and	 ebx, 63			; 0000003fH
  000a9	0b c7		 or	 eax, edi
  000ab	0f b6 44 05 a0	 movzx	 eax, BYTE PTR _pbase64tab$[ebp+eax]
  000b0	88 44 32 01	 mov	 BYTE PTR [edx+esi+1], al

; 631  : 		nLineLen += 4;

  000b4	8b 55 fc	 mov	 edx, DWORD PTR _nLineLen$1$[ebp]
  000b7	0f b6 44 1d a0	 movzx	 eax, BYTE PTR _pbase64tab$[ebp+ebx]
  000bc	83 c2 04	 add	 edx, 4
  000bf	88 44 0e 02	 mov	 BYTE PTR [esi+ecx+2], al
  000c3	83 c1 04	 add	 ecx, 4
  000c6	89 55 fc	 mov	 DWORD PTR _nLineLen$1$[ebp], edx

; 632  : 
; 633  : 		//Handle the case where we have gone over the max line boundary
; 634  : 		if (nLineLen >= BASE64_MAXLINE - 3) 

  000c9	83 fa 49	 cmp	 edx, 73			; 00000049H
  000cc	7c 11		 jl	 SHORT $LN2@EncodeBase

; 635  : 		{
; 636  : 			char* cp = EOL;
; 637  : 			pszOut[nOutPos++] = *cp++;

  000ce	8b 45 10	 mov	 eax, DWORD PTR _pszOut$[ebp]
  000d1	66 c7 04 01 0d
	0a		 mov	 WORD PTR [ecx+eax], 2573 ; 00000a0dH

; 638  : 			if(*cp) 
; 639  : 				pszOut[nOutPos++] = *cp;

  000d7	83 c1 02	 add	 ecx, 2

; 640  : 			nLineLen = 0;

  000da	33 c0		 xor	 eax, eax
  000dc	89 45 fc	 mov	 DWORD PTR _nLineLen$1$[ebp], eax
$LN2@EncodeBase:

; 616  : 
; 617  : 	
; 618  : 	// Get three characters at a time from the input buffer and encode them
; 619  : 	for (INT32 i = 0; i < nInLen / 3; ++i) 

  000df	8b 45 f0	 mov	 eax, DWORD PTR _i$1$[ebp]
  000e2	8b 55 08	 mov	 edx, DWORD PTR _pszIn$[ebp]
  000e5	40		 inc	 eax
  000e6	89 45 f0	 mov	 DWORD PTR _i$1$[ebp], eax
  000e9	8d 5a 01	 lea	 ebx, DWORD PTR [edx+1]
  000ec	3b 45 ec	 cmp	 eax, DWORD PTR tv450[ebp]
  000ef	0f 8c 5b ff ff
	ff		 jl	 $LL4@EncodeBase
  000f5	8b 45 ec	 mov	 eax, DWORD PTR tv450[ebp]
  000f8	8b 75 f8	 mov	 esi, DWORD PTR _nInPos$1$[ebp]
$LN3@EncodeBase:

; 641  : 		}
; 642  : 	}
; 643  : 
; 644  : 	// Encode the remaining one or two characters in the input buffer
; 645  : 	char* cp;
; 646  : 	switch (nInLen % 3) 

  000fb	8b 55 0c	 mov	 edx, DWORD PTR _nInLen$[ebp]
  000fe	8d 04 40	 lea	 eax, DWORD PTR [eax+eax*2]
  00101	2b d0		 sub	 edx, eax
  00103	83 ea 00	 sub	 edx, 0
  00106	0f 84 b3 00 00
	00		 je	 $LN9@EncodeBase
  0010c	83 ea 01	 sub	 edx, 1
  0010f	74 6e		 je	 SHORT $LN11@EncodeBase
  00111	83 ea 01	 sub	 edx, 1
  00114	75 54		 jne	 SHORT $LN20@EncodeBase

; 661  : 			pszOut[nOutPos++] = '=';
; 662  : 			pszOut[nOutPos++] = '=';
; 663  : 			cp = EOL;
; 664  : 			pszOut[nOutPos++] = *cp++;
; 665  : 			if (*cp) 
; 666  : 				pszOut[nOutPos++] = *cp;
; 667  : 			break;
; 668  : 		}
; 669  : 	case 2:
; 670  : 		{
; 671  : 			INT32 c1 = pszIn[nInPos++] & 0xFF;

  00116	8b 45 08	 mov	 eax, DWORD PTR _pszIn$[ebp]

; 672  : 			INT32 c2 = pszIn[nInPos] & 0xFF;
; 673  : 			pszOut[nOutPos++] = pbase64tab[(c1 & 0xFC) >> 2];

  00119	8b 5d 10	 mov	 ebx, DWORD PTR _pszOut$[ebp]
  0011c	5f		 pop	 edi
  0011d	0f b6 14 06	 movzx	 edx, BYTE PTR [esi+eax]
  00121	0f b6 74 06 01	 movzx	 esi, BYTE PTR [esi+eax+1]
  00126	8b c2		 mov	 eax, edx
  00128	c1 e8 02	 shr	 eax, 2

; 674  : 			pszOut[nOutPos++] = pbase64tab[((c1 & 0x03) << 4) | ((c2 & 0xF0) >> 4)];

  0012b	83 e2 03	 and	 edx, 3
  0012e	c1 e2 04	 shl	 edx, 4
  00131	0f b6 44 05 a0	 movzx	 eax, BYTE PTR _pbase64tab$[ebp+eax]
  00136	88 04 19	 mov	 BYTE PTR [ecx+ebx], al
  00139	8b c6		 mov	 eax, esi
  0013b	c1 e8 04	 shr	 eax, 4
  0013e	0b d0		 or	 edx, eax

; 675  : 			pszOut[nOutPos++] = pbase64tab[((c2 & 0x0F) << 2)];

  00140	83 e6 0f	 and	 esi, 15			; 0000000fH
  00143	0f b6 44 15 a0	 movzx	 eax, BYTE PTR _pbase64tab$[ebp+edx]
  00148	88 44 19 01	 mov	 BYTE PTR [ecx+ebx+1], al
  0014c	0f b6 44 b5 a0	 movzx	 eax, BYTE PTR _pbase64tab$[ebp+esi*4]
  00151	88 44 19 02	 mov	 BYTE PTR [ecx+ebx+2], al

; 685  : 	return TRUE;
; 686  : }

  00155	b8 01 00 00 00	 mov	 eax, 1
  0015a	5e		 pop	 esi
  0015b	c7 44 19 03 3d
	0d 0a 00	 mov	 DWORD PTR [ecx+ebx+3], 658749 ; 000a0d3dH
  00163	5b		 pop	 ebx
  00164	8b e5		 mov	 esp, ebp
  00166	5d		 pop	 ebp
  00167	c2 0c 00	 ret	 12			; 0000000cH
$LN20@EncodeBase:

; 676  : 			pszOut[nOutPos++] = '=';
; 677  : 			cp = EOL;
; 678  : 			pszOut[nOutPos++] = *cp++;
; 679  : 			if (*cp) 
; 680  : 				pszOut[nOutPos++] = *cp;
; 681  : 			break;
; 682  : 		}   
; 683  : 	}
; 684  : 	pszOut[nOutPos] = 0;

  0016a	8b 45 10	 mov	 eax, DWORD PTR _pszOut$[ebp]
  0016d	5f		 pop	 edi

; 685  : 	return TRUE;
; 686  : }

  0016e	5e		 pop	 esi
  0016f	5b		 pop	 ebx
  00170	c6 04 01 00	 mov	 BYTE PTR [ecx+eax], 0
  00174	b8 01 00 00 00	 mov	 eax, 1
  00179	8b e5		 mov	 esp, ebp
  0017b	5d		 pop	 ebp
  0017c	c2 0c 00	 ret	 12			; 0000000cH
$LN11@EncodeBase:

; 652  : 			if (*cp) 
; 653  : 				pszOut[nOutPos++] = *cp;
; 654  : 			break;
; 655  : 		}
; 656  : 	case 1:
; 657  : 		{
; 658  : 			int c1 = pszIn[nInPos] & 0xFF;

  0017f	8b 45 08	 mov	 eax, DWORD PTR _pszIn$[ebp]

; 659  : 			pszOut[nOutPos++] = pbase64tab[(c1 & 0xFC) >> 2];

  00182	8b 5d 10	 mov	 ebx, DWORD PTR _pszOut$[ebp]
  00185	5f		 pop	 edi
  00186	0f b6 14 06	 movzx	 edx, BYTE PTR [esi+eax]
  0018a	8b c2		 mov	 eax, edx

; 660  : 			pszOut[nOutPos++] = pbase64tab[((c1 & 0x03) << 4)];

  0018c	83 e2 03	 and	 edx, 3
  0018f	c1 e8 02	 shr	 eax, 2
  00192	03 d2		 add	 edx, edx

; 685  : 	return TRUE;
; 686  : }

  00194	5e		 pop	 esi
  00195	0f b6 44 05 a0	 movzx	 eax, BYTE PTR _pbase64tab$[ebp+eax]
  0019a	88 04 19	 mov	 BYTE PTR [ecx+ebx], al
  0019d	0f b6 44 d5 a0	 movzx	 eax, BYTE PTR _pbase64tab$[ebp+edx*8]
  001a2	88 44 19 01	 mov	 BYTE PTR [ecx+ebx+1], al
  001a6	b8 01 00 00 00	 mov	 eax, 1
  001ab	c7 44 19 02 3d
	3d 0d 0a	 mov	 DWORD PTR [ecx+ebx+2], 168639805 ; 0a0d3d3dH
  001b3	c6 44 19 06 00	 mov	 BYTE PTR [ecx+ebx+6], 0
  001b8	5b		 pop	 ebx
  001b9	8b e5		 mov	 esp, ebp
  001bb	5d		 pop	 ebp
  001bc	c2 0c 00	 ret	 12			; 0000000cH
$LN9@EncodeBase:

; 647  : 	{
; 648  : 	case 0:
; 649  : 		{
; 650  : 			cp = EOL;
; 651  : 			pszOut[nOutPos++] = *cp++;

  001bf	8b 45 10	 mov	 eax, DWORD PTR _pszOut$[ebp]
  001c2	5f		 pop	 edi

; 685  : 	return TRUE;
; 686  : }

  001c3	5e		 pop	 esi
  001c4	5b		 pop	 ebx
  001c5	66 c7 04 01 0d
	0a		 mov	 WORD PTR [ecx+eax], 2573 ; 00000a0dH
  001cb	c6 44 01 02 00	 mov	 BYTE PTR [ecx+eax+2], 0
  001d0	b8 01 00 00 00	 mov	 eax, 1
  001d5	8b e5		 mov	 esp, ebp
  001d7	5d		 pop	 ebp
  001d8	c2 0c 00	 ret	 12			; 0000000cH
?EncodeBase64@i3SMTPMail@@QAEHPBDHPAD@Z ENDP		; i3SMTPMail::EncodeBase64
_TEXT	ENDS
; Function compile flags: /Ogtp
; File E:\Proyectos\JuegosOnlineproyectos\PB\pbblow\Piercing Blow Remake\i3Server\src\i3Base\i3SMTPMail.cpp
;	COMDAT ?Base64BufferSize@i3SMTPMail@@QAEHH@Z
_TEXT	SEGMENT
_nInputSize$ = 8					; size = 4
?Base64BufferSize@i3SMTPMail@@QAEHH@Z PROC		; i3SMTPMail::Base64BufferSize, COMDAT
; _this$ = ecx

; 601  : {

  00000	55		 push	 ebp
  00001	8b ec		 mov	 ebp, esp

; 602  : 	INT32 nOutSize = (nInputSize+2)/3*4;                    // 3:4 conversion ratio

  00003	8b 4d 08	 mov	 ecx, DWORD PTR _nInputSize$[ebp]
  00006	b8 56 55 55 55	 mov	 eax, 1431655766		; 55555556H
  0000b	56		 push	 esi
  0000c	8d 49 02	 lea	 ecx, DWORD PTR [ecx+2]
  0000f	f7 e9		 imul	 ecx

; 603  : 	nOutSize += strlen(EOL)*nOutSize/BASE64_MAXLINE + 3;  // Space for newlines and NUL

  00011	b8 f3 1a ca 6b	 mov	 eax, 1808407283		; 6bca1af3H
  00016	8b f2		 mov	 esi, edx
  00018	c1 ee 1f	 shr	 esi, 31			; 0000001fH
  0001b	03 f2		 add	 esi, edx
  0001d	c1 e6 02	 shl	 esi, 2
  00020	8d 0c 36	 lea	 ecx, DWORD PTR [esi+esi]
  00023	83 c6 03	 add	 esi, 3
  00026	f7 e9		 imul	 ecx
  00028	c1 fa 05	 sar	 edx, 5
  0002b	8b c2		 mov	 eax, edx
  0002d	c1 e8 1f	 shr	 eax, 31			; 0000001fH
  00030	03 c2		 add	 eax, edx
  00032	03 c6		 add	 eax, esi

; 604  : 	return nOutSize;

  00034	5e		 pop	 esi

; 605  : }

  00035	5d		 pop	 ebp
  00036	c2 04 00	 ret	 4
?Base64BufferSize@i3SMTPMail@@QAEHH@Z ENDP		; i3SMTPMail::Base64BufferSize
_TEXT	ENDS
; Function compile flags: /Ogtp
; File E:\Proyectos\JuegosOnlineproyectos\PB\pbblow\Piercing Blow Remake\i3Server\src\i3Base\i3SMTPMail.cpp
; File D:\Program Files\Microsoft Visual Studio\18\Community\VC\Tools\MSVC\14.50.35717\include\vector
; File E:\Proyectos\JuegosOnlineproyectos\PB\pbblow\Piercing Blow Remake\i3Server\src\i3Base\i3SMTPMail.cpp
; File D:\Program Files\Microsoft Visual Studio\18\Community\VC\Tools\MSVC\14.50.35717\include\vector
; File D:\Program Files\Microsoft Visual Studio\18\Community\VC\Tools\MSVC\14.50.35717\include\xutility
; File D:\Program Files\Microsoft Visual Studio\18\Community\VC\Tools\MSVC\14.50.35717\include\vector
; File E:\Proyectos\JuegosOnlineproyectos\PB\pbblow\Piercing Blow Remake\i3Server\src\i3Base\i3SMTPMail.cpp
;	COMDAT ?SetFileAttach@i3SMTPMail@@QAEHPAD@Z
_TEXT	SEGMENT
_szFilename$GSCopy$1$ = -536				; size = 4
_pFile$1$ = -532					; size = 4
_this$GSCopy$1$ = -528					; size = 4
_tAttach$ = -524					; size = 264
_szName$ = -260						; size = 256
__$ArrayPad$ = -4					; size = 4
_szFilename$ = 8					; size = 4
?SetFileAttach@i3SMTPMail@@QAEHPAD@Z PROC		; i3SMTPMail::SetFileAttach, COMDAT
; _this$ = ecx

; 563  : {

  00000	55		 push	 ebp
  00001	8b ec		 mov	 ebp, esp
  00003	81 ec 18 02 00
	00		 sub	 esp, 536		; 00000218H
  00009	a1 00 00 00 00	 mov	 eax, DWORD PTR ___security_cookie
  0000e	33 c5		 xor	 eax, ebp
  00010	89 45 fc	 mov	 DWORD PTR __$ArrayPad$[ebp], eax
  00013	8b 45 08	 mov	 eax, DWORD PTR _szFilename$[ebp]
  00016	56		 push	 esi

; 564  : 	FILE* pFile = NULL;
; 565  : 	pFile = fopen( szFilename , "rb");

  00017	68 00 00 00 00	 push	 OFFSET ??_C@_02JDPG@rb@
  0001c	50		 push	 eax
  0001d	89 8d f0 fd ff
	ff		 mov	 DWORD PTR _this$GSCopy$1$[ebp], ecx
  00023	89 85 e8 fd ff
	ff		 mov	 DWORD PTR _szFilename$GSCopy$1$[ebp], eax
  00029	e8 00 00 00 00	 call	 _fopen
  0002e	8b f0		 mov	 esi, eax
  00030	83 c4 08	 add	 esp, 8
  00033	89 b5 ec fd ff
	ff		 mov	 DWORD PTR _pFile$1$[ebp], esi

; 566  : 	if(NULL == pFile )			return FALSE;

  00039	85 f6		 test	 esi, esi
  0003b	75 11		 jne	 SHORT $LN2@SetFileAtt
  0003d	5e		 pop	 esi

; 598  : }

  0003e	8b 4d fc	 mov	 ecx, DWORD PTR __$ArrayPad$[ebp]
  00041	33 cd		 xor	 ecx, ebp
  00043	e8 00 00 00 00	 call	 @__security_check_cookie@4
  00048	8b e5		 mov	 esp, ebp
  0004a	5d		 pop	 ebp
  0004b	c2 04 00	 ret	 4
$LN2@SetFileAtt:
  0004e	53		 push	 ebx
  0004f	57		 push	 edi

; 567  : 
; 568  : 	INT32 hFile		= _fileno(pFile);

  00050	56		 push	 esi
  00051	e8 00 00 00 00	 call	 __fileno

; 569  : 	INT32 nFileSize = _filelength(hFile);

  00056	50		 push	 eax
  00057	e8 00 00 00 00	 call	 __filelength
  0005c	8b f8		 mov	 edi, eax

; 570  : 
; 571  : 	char* pszIn = new char[nFileSize]; 

  0005e	57		 push	 edi
  0005f	e8 00 00 00 00	 call	 ??_U@YAPAXI@Z		; operator new[]

; 572  : 	fread( pszIn, sizeof(char), nFileSize, pFile );

  00064	56		 push	 esi
  00065	57		 push	 edi
  00066	8b d8		 mov	 ebx, eax
  00068	6a 01		 push	 1
  0006a	53		 push	 ebx
  0006b	e8 00 00 00 00	 call	 _fread

; 602  : 	INT32 nOutSize = (nInputSize+2)/3*4;                    // 3:4 conversion ratio

  00070	8d 4f 02	 lea	 ecx, DWORD PTR [edi+2]

; 573  : 
; 574  : 	//////ČŁČŻĽşŔ» Ŕ§ÇŘ base64·Î ŔÎÄÚµůÇĎ±âŔ§ÇŃ ÁŘşń
; 575  : 
; 576  : 	//SMTP żˇ »çżëµÉ 64ąöĆŰ¸¦ ÇŇ´çÇŃ´Ů.
; 577  : 	TAttach		tAttach;
; 578  : 	tAttach.m_pszEncoded = NULL;

  00073	c7 85 f8 fe ff
	ff 00 00 00 00	 mov	 DWORD PTR _tAttach$[ebp+260], 0

; 602  : 	INT32 nOutSize = (nInputSize+2)/3*4;                    // 3:4 conversion ratio

  0007d	b8 56 55 55 55	 mov	 eax, 1431655766		; 55555556H
  00082	f7 e9		 imul	 ecx

; 603  : 	nOutSize += strlen(EOL)*nOutSize/BASE64_MAXLINE + 3;  // Space for newlines and NUL

  00084	b8 f3 1a ca 6b	 mov	 eax, 1808407283		; 6bca1af3H
  00089	8b f2		 mov	 esi, edx
  0008b	c1 ee 1f	 shr	 esi, 31			; 0000001fH
  0008e	03 f2		 add	 esi, edx
  00090	c1 e6 02	 shl	 esi, 2
  00093	8d 0c 36	 lea	 ecx, DWORD PTR [esi+esi]
  00096	83 c6 03	 add	 esi, 3
  00099	f7 e9		 imul	 ecx
  0009b	c1 fa 05	 sar	 edx, 5
  0009e	8b c2		 mov	 eax, edx
  000a0	c1 e8 1f	 shr	 eax, 31			; 0000001fH
  000a3	03 c2		 add	 eax, edx
  000a5	03 c6		 add	 eax, esi

; 579  : 
; 580  : 	INT32 nOutSize			= Base64BufferSize(nFileSize);
; 581  : 	tAttach.m_pszEncoded	= new char[nOutSize];

  000a7	50		 push	 eax
  000a8	e8 00 00 00 00	 call	 ??_U@YAPAXI@Z		; operator new[]

; 582  : 
; 583  : 	//64ąöĆŰ·Î ŔÎÄÚµůÇŃ´Ů.
; 584  : 	EncodeBase64( pszIn, nFileSize, tAttach.m_pszEncoded );

  000ad	8b b5 f0 fd ff
	ff		 mov	 esi, DWORD PTR _this$GSCopy$1$[ebp]
  000b3	83 c4 20	 add	 esp, 32			; 00000020H
  000b6	8b ce		 mov	 ecx, esi
  000b8	89 85 f8 fe ff
	ff		 mov	 DWORD PTR _tAttach$[ebp+260], eax
  000be	50		 push	 eax
  000bf	57		 push	 edi
  000c0	53		 push	 ebx
  000c1	e8 00 00 00 00	 call	 ?EncodeBase64@i3SMTPMail@@QAEHPBDHPAD@Z ; i3SMTPMail::EncodeBase64

; 585  : 	
; 586  : 	delete [] pszIn;

  000c6	53		 push	 ebx
  000c7	e8 00 00 00 00	 call	 ??_V@YAXPAX@Z		; operator delete[]

; 587  : 	pszIn = NULL;
; 588  : 
; 589  : 	fclose( pFile );

  000cc	ff b5 ec fd ff
	ff		 push	 DWORD PTR _pFile$1$[ebp]
  000d2	e8 00 00 00 00	 call	 _fclose

; 590  : 
; 591  : 	TCHAR szName[256];
; 592  : 	i3String::SplitFileName( szFilename, szName, TRUE );

  000d7	6a 01		 push	 1
  000d9	8d 85 fc fe ff
	ff		 lea	 eax, DWORD PTR _szName$[ebp]
  000df	50		 push	 eax
  000e0	ff b5 e8 fd ff
	ff		 push	 DWORD PTR _szFilename$GSCopy$1$[ebp]
  000e6	e8 00 00 00 00	 call	 ?SplitFileName@i3String@@YAPADPBDPADH@Z ; i3String::SplitFileName

; 593  : 	i3String::Copy( tAttach.m_szFilename, szName, MAX_PATH);

  000eb	68 04 01 00 00	 push	 260			; 00000104H
  000f0	8d 85 fc fe ff
	ff		 lea	 eax, DWORD PTR _szName$[ebp]
  000f6	50		 push	 eax
  000f7	8d 85 f4 fd ff
	ff		 lea	 eax, DWORD PTR _tAttach$[ebp]
  000fd	50		 push	 eax
  000fe	e8 00 00 00 00	 call	 ?Copy@i3String@@YAXPADPBDH@Z ; i3String::Copy
; File D:\Program Files\Microsoft Visual Studio\18\Community\VC\Tools\MSVC\14.50.35717\include\vector

; 844  :         if (_Mylast != _My_data._Myend) {

  00103	8b 96 c8 01 00
	00		 mov	 edx, DWORD PTR [esi+456]
; File E:\Proyectos\JuegosOnlineproyectos\PB\pbblow\Piercing Blow Remake\i3Server\src\i3Base\i3SMTPMail.cpp

; 595  : 	Attach.push_back( tAttach );

  00109	8d 86 c4 01 00
	00		 lea	 eax, DWORD PTR [esi+452]
  0010f	83 c4 20	 add	 esp, 32			; 00000020H
; File D:\Program Files\Microsoft Visual Studio\18\Community\VC\Tools\MSVC\14.50.35717\include\vector

; 844  :         if (_Mylast != _My_data._Myend) {

  00112	3b 50 08	 cmp	 edx, DWORD PTR [eax+8]
  00115	74 18		 je	 SHORT $LN9@SetFileAtt
; File D:\Program Files\Microsoft Visual Studio\18\Community\VC\Tools\MSVC\14.50.35717\include\xutility

; 522  :         ::new (static_cast<void*>(_STD addressof(_Obj))) _Ty(_STD forward<_Types>(_Args)...);

  00117	b9 42 00 00 00	 mov	 ecx, 66			; 00000042H
  0011c	8d b5 f4 fd ff
	ff		 lea	 esi, DWORD PTR _tAttach$[ebp]
  00122	8b fa		 mov	 edi, edx
  00124	f3 a5		 rep movsd
; File D:\Program Files\Microsoft Visual Studio\18\Community\VC\Tools\MSVC\14.50.35717\include\vector

; 869  :         ++_Mylast;

  00126	81 40 04 08 01
	00 00		 add	 DWORD PTR [eax+4], 264	; 00000108H

; 845  :             return _Emplace_back_with_unused_capacity(_STD forward<_Valty>(_Val)...);

  0012d	eb 0f		 jmp	 SHORT $LN8@SetFileAtt
$LN9@SetFileAtt:

; 846  :         }
; 847  : 
; 848  :         return *_Emplace_reallocate(_Mylast, _STD forward<_Valty>(_Val)...);

  0012f	8d 8d f4 fd ff
	ff		 lea	 ecx, DWORD PTR _tAttach$[ebp]
  00135	51		 push	 ecx
  00136	52		 push	 edx
  00137	8b c8		 mov	 ecx, eax
  00139	e8 00 00 00 00	 call	 ??$_Emplace_reallocate@ABVTAttach@@@?$vector@VTAttach@@V?$allocator@VTAttach@@@std@@@std@@AAEPAVTAttach@@QAV2@ABV2@@Z ; std::vector<TAttach,std::allocator<TAttach> >::_Emplace_reallocate<TAttach const &>
$LN8@SetFileAtt:
; File E:\Proyectos\JuegosOnlineproyectos\PB\pbblow\Piercing Blow Remake\i3Server\src\i3Base\i3SMTPMail.cpp

; 598  : }

  0013e	8b 4d fc	 mov	 ecx, DWORD PTR __$ArrayPad$[ebp]
  00141	b8 01 00 00 00	 mov	 eax, 1
  00146	5f		 pop	 edi
  00147	5b		 pop	 ebx
  00148	33 cd		 xor	 ecx, ebp
  0014a	5e		 pop	 esi
  0014b	e8 00 00 00 00	 call	 @__security_check_cookie@4
  00150	8b e5		 mov	 esp, ebp
  00152	5d		 pop	 ebp
  00153	c2 04 00	 ret	 4
?SetFileAttach@i3SMTPMail@@QAEHPAD@Z ENDP		; i3SMTPMail::SetFileAttach
_TEXT	ENDS
; Function compile flags: /Ogtp
; File E:\Proyectos\JuegosOnlineproyectos\PB\pbblow\Piercing Blow Remake\i3Server\src\i3Base\i3SMTPMail.cpp
;	COMDAT ?SetXMailer@i3SMTPMail@@QAEXPBD@Z
_TEXT	SEGMENT
_xmailer$ = 8						; size = 4
tv178 = 8						; size = 4
?SetXMailer@i3SMTPMail@@QAEXPBD@Z PROC			; i3SMTPMail::SetXMailer, COMDAT
; _this$ = ecx

; 515  : {

  00000	55		 push	 ebp
  00001	8b ec		 mov	 ebp, esp
  00003	53		 push	 ebx
  00004	8b d9		 mov	 ebx, ecx
  00006	56		 push	 esi
  00007	57		 push	 edi

; 516  : 	unsigned int uio = m_pcXMailer ? strlen( m_pcXMailer ) : 0;

  00008	8b 53 18	 mov	 edx, DWORD PTR [ebx+24]
  0000b	85 d2		 test	 edx, edx
  0000d	74 10		 je	 SHORT $LN9@SetXMailer
  0000f	8b fa		 mov	 edi, edx
  00011	8d 4f 01	 lea	 ecx, DWORD PTR [edi+1]
$LL19@SetXMailer:
  00014	8a 07		 mov	 al, BYTE PTR [edi]
  00016	47		 inc	 edi
  00017	84 c0		 test	 al, al
  00019	75 f9		 jne	 SHORT $LL19@SetXMailer
  0001b	2b f9		 sub	 edi, ecx
  0001d	eb 02		 jmp	 SHORT $LN10@SetXMailer
$LN9@SetXMailer:
  0001f	33 ff		 xor	 edi, edi
$LN10@SetXMailer:

; 517  : 	unsigned int uin = xmailer ? strlen( xmailer ) : 0;

  00021	8b 75 08	 mov	 esi, DWORD PTR _xmailer$[ebp]
  00024	85 f6		 test	 esi, esi
  00026	74 36		 je	 SHORT $LN2@SetXMailer
  00028	8b ce		 mov	 ecx, esi
  0002a	8d 41 01	 lea	 eax, DWORD PTR [ecx+1]
  0002d	89 45 08	 mov	 DWORD PTR tv178[ebp], eax
$LL20@SetXMailer:
  00030	8a 01		 mov	 al, BYTE PTR [ecx]
  00032	41		 inc	 ecx
  00033	84 c0		 test	 al, al
  00035	75 f9		 jne	 SHORT $LL20@SetXMailer
  00037	2b 4d 08	 sub	 ecx, DWORD PTR tv178[ebp]

; 518  : 
; 519  : 	if( uio < uin )

  0003a	3b f9		 cmp	 edi, ecx
  0003c	73 20		 jae	 SHORT $LN2@SetXMailer

; 520  : 	{
; 521  : 		if( m_pcXMailer != NULL)

  0003e	85 d2		 test	 edx, edx
  00040	74 09		 je	 SHORT $LN4@SetXMailer

; 522  : 			free( m_pcXMailer);

  00042	52		 push	 edx
  00043	e8 00 00 00 00	 call	 _free
  00048	83 c4 04	 add	 esp, 4
$LN4@SetXMailer:

; 523  : 
; 524  : 		m_pcXMailer =	xmailer ? strdup( xmailer ) : 0;

  0004b	56		 push	 esi
  0004c	e8 00 00 00 00	 call	 _strdup

; 536  : 			}
; 537  : 		}
; 538  : 	}
; 539  : }

  00051	83 c4 04	 add	 esp, 4
  00054	89 43 18	 mov	 DWORD PTR [ebx+24], eax
  00057	5f		 pop	 edi
  00058	5e		 pop	 esi
  00059	5b		 pop	 ebx
  0005a	5d		 pop	 ebp
  0005b	c2 04 00	 ret	 4
$LN2@SetXMailer:

; 525  : 	}
; 526  : 	else
; 527  : 	{
; 528  : 		if( m_pcXMailer != NULL)

  0005e	85 d2		 test	 edx, edx
  00060	74 29		 je	 SHORT $LN7@SetXMailer

; 529  : 		{
; 530  : 			if( xmailer )	

  00062	85 f6		 test	 esi, esi
  00064	74 15		 je	 SHORT $LN6@SetXMailer
$LL15@SetXMailer:

; 531  : 				strcpy( m_pcXMailer, xmailer );

  00066	8a 06		 mov	 al, BYTE PTR [esi]
  00068	8d 76 01	 lea	 esi, DWORD PTR [esi+1]
  0006b	88 02		 mov	 BYTE PTR [edx], al
  0006d	8d 52 01	 lea	 edx, DWORD PTR [edx+1]
  00070	84 c0		 test	 al, al
  00072	75 f2		 jne	 SHORT $LL15@SetXMailer

; 536  : 			}
; 537  : 		}
; 538  : 	}
; 539  : }

  00074	5f		 pop	 edi
  00075	5e		 pop	 esi
  00076	5b		 pop	 ebx
  00077	5d		 pop	 ebp
  00078	c2 04 00	 ret	 4
$LN6@SetXMailer:

; 532  : 			else 
; 533  : 			{
; 534  : 				free( m_pcXMailer); 

  0007b	52		 push	 edx
  0007c	e8 00 00 00 00	 call	 _free

; 535  : 				m_pcXMailer = 0;

  00081	c7 43 18 00 00
	00 00		 mov	 DWORD PTR [ebx+24], 0

; 536  : 			}
; 537  : 		}
; 538  : 	}
; 539  : }

  00088	83 c4 04	 add	 esp, 4
$LN7@SetXMailer:
  0008b	5f		 pop	 edi
  0008c	5e		 pop	 esi
  0008d	5b		 pop	 ebx
  0008e	5d		 pop	 ebp
  0008f	c2 04 00	 ret	 4
?SetXMailer@i3SMTPMail@@QAEXPBD@Z ENDP			; i3SMTPMail::SetXMailer
_TEXT	ENDS
; Function compile flags: /Ogtp
; File E:\Proyectos\JuegosOnlineproyectos\PB\pbblow\Piercing Blow Remake\i3Server\src\i3Base\i3SMTPMail.cpp
;	COMDAT ?SetReplyTo@i3SMTPMail@@QAEXPBD@Z
_TEXT	SEGMENT
_replyto$ = 8						; size = 4
tv178 = 8						; size = 4
?SetReplyTo@i3SMTPMail@@QAEXPBD@Z PROC			; i3SMTPMail::SetReplyTo, COMDAT
; _this$ = ecx

; 488  : {	

  00000	55		 push	 ebp
  00001	8b ec		 mov	 ebp, esp
  00003	53		 push	 ebx
  00004	8b d9		 mov	 ebx, ecx
  00006	56		 push	 esi
  00007	57		 push	 edi

; 489  : 	unsigned int uio = m_pcReplyTo ? strlen( m_pcReplyTo ) : 0;

  00008	8b 53 1c	 mov	 edx, DWORD PTR [ebx+28]
  0000b	85 d2		 test	 edx, edx
  0000d	74 10		 je	 SHORT $LN9@SetReplyTo
  0000f	8b fa		 mov	 edi, edx
  00011	8d 4f 01	 lea	 ecx, DWORD PTR [edi+1]
$LL19@SetReplyTo:
  00014	8a 07		 mov	 al, BYTE PTR [edi]
  00016	47		 inc	 edi
  00017	84 c0		 test	 al, al
  00019	75 f9		 jne	 SHORT $LL19@SetReplyTo
  0001b	2b f9		 sub	 edi, ecx
  0001d	eb 02		 jmp	 SHORT $LN10@SetReplyTo
$LN9@SetReplyTo:
  0001f	33 ff		 xor	 edi, edi
$LN10@SetReplyTo:

; 490  : 	unsigned int uin = replyto ? strlen( replyto ) : 0;

  00021	8b 75 08	 mov	 esi, DWORD PTR _replyto$[ebp]
  00024	85 f6		 test	 esi, esi
  00026	74 36		 je	 SHORT $LN2@SetReplyTo
  00028	8b ce		 mov	 ecx, esi
  0002a	8d 41 01	 lea	 eax, DWORD PTR [ecx+1]
  0002d	89 45 08	 mov	 DWORD PTR tv178[ebp], eax
$LL20@SetReplyTo:
  00030	8a 01		 mov	 al, BYTE PTR [ecx]
  00032	41		 inc	 ecx
  00033	84 c0		 test	 al, al
  00035	75 f9		 jne	 SHORT $LL20@SetReplyTo
  00037	2b 4d 08	 sub	 ecx, DWORD PTR tv178[ebp]

; 491  : 
; 492  : 	if( uio < uin )

  0003a	3b f9		 cmp	 edi, ecx
  0003c	73 20		 jae	 SHORT $LN2@SetReplyTo

; 493  : 	{
; 494  : 		if( m_pcReplyTo != NULL)

  0003e	85 d2		 test	 edx, edx
  00040	74 09		 je	 SHORT $LN4@SetReplyTo

; 495  : 			free( m_pcReplyTo);

  00042	52		 push	 edx
  00043	e8 00 00 00 00	 call	 _free
  00048	83 c4 04	 add	 esp, 4
$LN4@SetReplyTo:

; 496  : 
; 497  : 		m_pcReplyTo =	replyto ? strdup( replyto ) : 0;

  0004b	56		 push	 esi
  0004c	e8 00 00 00 00	 call	 _strdup

; 509  : 			}
; 510  : 		}
; 511  : 	}
; 512  : }

  00051	83 c4 04	 add	 esp, 4
  00054	89 43 1c	 mov	 DWORD PTR [ebx+28], eax
  00057	5f		 pop	 edi
  00058	5e		 pop	 esi
  00059	5b		 pop	 ebx
  0005a	5d		 pop	 ebp
  0005b	c2 04 00	 ret	 4
$LN2@SetReplyTo:

; 498  : 	}
; 499  : 	else
; 500  : 	{
; 501  : 		if( m_pcReplyTo != NULL)

  0005e	85 d2		 test	 edx, edx
  00060	74 29		 je	 SHORT $LN7@SetReplyTo

; 502  : 		{
; 503  : 			if( replyto )

  00062	85 f6		 test	 esi, esi
  00064	74 15		 je	 SHORT $LN6@SetReplyTo
$LL15@SetReplyTo:

; 504  : 				strcpy( m_pcReplyTo, replyto );

  00066	8a 06		 mov	 al, BYTE PTR [esi]
  00068	8d 76 01	 lea	 esi, DWORD PTR [esi+1]
  0006b	88 02		 mov	 BYTE PTR [edx], al
  0006d	8d 52 01	 lea	 edx, DWORD PTR [edx+1]
  00070	84 c0		 test	 al, al
  00072	75 f2		 jne	 SHORT $LL15@SetReplyTo

; 509  : 			}
; 510  : 		}
; 511  : 	}
; 512  : }

  00074	5f		 pop	 edi
  00075	5e		 pop	 esi
  00076	5b		 pop	 ebx
  00077	5d		 pop	 ebp
  00078	c2 04 00	 ret	 4
$LN6@SetReplyTo:

; 505  : 			else 
; 506  : 			{
; 507  : 				free(	m_pcReplyTo); 

  0007b	52		 push	 edx
  0007c	e8 00 00 00 00	 call	 _free

; 508  : 				m_pcReplyTo = 0;

  00081	c7 43 1c 00 00
	00 00		 mov	 DWORD PTR [ebx+28], 0

; 509  : 			}
; 510  : 		}
; 511  : 	}
; 512  : }

  00088	83 c4 04	 add	 esp, 4
$LN7@SetReplyTo:
  0008b	5f		 pop	 edi
  0008c	5e		 pop	 esi
  0008d	5b		 pop	 ebx
  0008e	5d		 pop	 ebp
  0008f	c2 04 00	 ret	 4
?SetReplyTo@i3SMTPMail@@QAEXPBD@Z ENDP			; i3SMTPMail::SetReplyTo
_TEXT	ENDS
; Function compile flags: /Ogtp
; File E:\Proyectos\JuegosOnlineproyectos\PB\pbblow\Piercing Blow Remake\i3Server\src\i3Base\i3SMTPMail.cpp
;	COMDAT ?SetSenderEmail@i3SMTPMail@@QAEXPBD@Z
_TEXT	SEGMENT
_email$ = 8						; size = 4
tv178 = 8						; size = 4
?SetSenderEmail@i3SMTPMail@@QAEXPBD@Z PROC		; i3SMTPMail::SetSenderEmail, COMDAT
; _this$ = ecx

; 461  : {	

  00000	55		 push	 ebp
  00001	8b ec		 mov	 ebp, esp
  00003	53		 push	 ebx
  00004	8b d9		 mov	 ebx, ecx
  00006	56		 push	 esi
  00007	57		 push	 edi

; 462  : 	unsigned int uio = m_pcFromEmail ? strlen( m_pcFromEmail ) : 0;

  00008	8b 53 08	 mov	 edx, DWORD PTR [ebx+8]
  0000b	85 d2		 test	 edx, edx
  0000d	74 10		 je	 SHORT $LN9@SetSenderE
  0000f	8b fa		 mov	 edi, edx
  00011	8d 4f 01	 lea	 ecx, DWORD PTR [edi+1]
$LL19@SetSenderE:
  00014	8a 07		 mov	 al, BYTE PTR [edi]
  00016	47		 inc	 edi
  00017	84 c0		 test	 al, al
  00019	75 f9		 jne	 SHORT $LL19@SetSenderE
  0001b	2b f9		 sub	 edi, ecx
  0001d	eb 02		 jmp	 SHORT $LN10@SetSenderE
$LN9@SetSenderE:
  0001f	33 ff		 xor	 edi, edi
$LN10@SetSenderE:

; 463  : 	unsigned int uin = email ? strlen( email ) : 0;

  00021	8b 75 08	 mov	 esi, DWORD PTR _email$[ebp]
  00024	85 f6		 test	 esi, esi
  00026	74 36		 je	 SHORT $LN2@SetSenderE
  00028	8b ce		 mov	 ecx, esi
  0002a	8d 41 01	 lea	 eax, DWORD PTR [ecx+1]
  0002d	89 45 08	 mov	 DWORD PTR tv178[ebp], eax
$LL20@SetSenderE:
  00030	8a 01		 mov	 al, BYTE PTR [ecx]
  00032	41		 inc	 ecx
  00033	84 c0		 test	 al, al
  00035	75 f9		 jne	 SHORT $LL20@SetSenderE
  00037	2b 4d 08	 sub	 ecx, DWORD PTR tv178[ebp]

; 464  : 
; 465  : 	if( uio < uin )

  0003a	3b f9		 cmp	 edi, ecx
  0003c	73 20		 jae	 SHORT $LN2@SetSenderE

; 466  : 	{
; 467  : 		if( m_pcFromEmail != NULL)

  0003e	85 d2		 test	 edx, edx
  00040	74 09		 je	 SHORT $LN4@SetSenderE

; 468  : 			free( m_pcFromEmail);

  00042	52		 push	 edx
  00043	e8 00 00 00 00	 call	 _free
  00048	83 c4 04	 add	 esp, 4
$LN4@SetSenderE:

; 469  : 
; 470  : 		m_pcFromEmail = email ? strdup( email ) : 0;

  0004b	56		 push	 esi
  0004c	e8 00 00 00 00	 call	 _strdup

; 482  : 			}
; 483  : 		}
; 484  : 	}
; 485  : }

  00051	83 c4 04	 add	 esp, 4
  00054	89 43 08	 mov	 DWORD PTR [ebx+8], eax
  00057	5f		 pop	 edi
  00058	5e		 pop	 esi
  00059	5b		 pop	 ebx
  0005a	5d		 pop	 ebp
  0005b	c2 04 00	 ret	 4
$LN2@SetSenderE:

; 471  : 	}
; 472  : 	else
; 473  : 	{
; 474  : 		if( m_pcFromEmail != NULL)

  0005e	85 d2		 test	 edx, edx
  00060	74 29		 je	 SHORT $LN7@SetSenderE

; 475  : 		{
; 476  : 			if( email )	

  00062	85 f6		 test	 esi, esi
  00064	74 15		 je	 SHORT $LN6@SetSenderE
$LL15@SetSenderE:

; 477  : 				strcpy( m_pcFromEmail, email );

  00066	8a 06		 mov	 al, BYTE PTR [esi]
  00068	8d 76 01	 lea	 esi, DWORD PTR [esi+1]
  0006b	88 02		 mov	 BYTE PTR [edx], al
  0006d	8d 52 01	 lea	 edx, DWORD PTR [edx+1]
  00070	84 c0		 test	 al, al
  00072	75 f2		 jne	 SHORT $LL15@SetSenderE

; 482  : 			}
; 483  : 		}
; 484  : 	}
; 485  : }

  00074	5f		 pop	 edi
  00075	5e		 pop	 esi
  00076	5b		 pop	 ebx
  00077	5d		 pop	 ebp
  00078	c2 04 00	 ret	 4
$LN6@SetSenderE:

; 478  : 			else 
; 479  : 			{
; 480  : 				free(	m_pcFromEmail); 

  0007b	52		 push	 edx
  0007c	e8 00 00 00 00	 call	 _free

; 481  : 				m_pcFromEmail = 0;

  00081	c7 43 08 00 00
	00 00		 mov	 DWORD PTR [ebx+8], 0

; 482  : 			}
; 483  : 		}
; 484  : 	}
; 485  : }

  00088	83 c4 04	 add	 esp, 4
$LN7@SetSenderE:
  0008b	5f		 pop	 edi
  0008c	5e		 pop	 esi
  0008d	5b		 pop	 ebx
  0008e	5d		 pop	 ebp
  0008f	c2 04 00	 ret	 4
?SetSenderEmail@i3SMTPMail@@QAEXPBD@Z ENDP		; i3SMTPMail::SetSenderEmail
_TEXT	ENDS
; Function compile flags: /Ogtp
; File E:\Proyectos\JuegosOnlineproyectos\PB\pbblow\Piercing Blow Remake\i3Server\src\i3Base\i3SMTPMail.cpp
;	COMDAT ?SetSenderName@i3SMTPMail@@QAEXPBD@Z
_TEXT	SEGMENT
_name$ = 8						; size = 4
tv178 = 8						; size = 4
?SetSenderName@i3SMTPMail@@QAEXPBD@Z PROC		; i3SMTPMail::SetSenderName, COMDAT
; _this$ = ecx

; 381  : {

  00000	55		 push	 ebp
  00001	8b ec		 mov	 ebp, esp
  00003	53		 push	 ebx
  00004	8b d9		 mov	 ebx, ecx
  00006	56		 push	 esi
  00007	57		 push	 edi

; 382  : 	unsigned int uio = m_pcFromName ? strlen( m_pcFromName ) : 0;

  00008	8b 53 0c	 mov	 edx, DWORD PTR [ebx+12]
  0000b	85 d2		 test	 edx, edx
  0000d	74 10		 je	 SHORT $LN9@SetSenderN
  0000f	8b fa		 mov	 edi, edx
  00011	8d 4f 01	 lea	 ecx, DWORD PTR [edi+1]
$LL19@SetSenderN:
  00014	8a 07		 mov	 al, BYTE PTR [edi]
  00016	47		 inc	 edi
  00017	84 c0		 test	 al, al
  00019	75 f9		 jne	 SHORT $LL19@SetSenderN
  0001b	2b f9		 sub	 edi, ecx
  0001d	eb 02		 jmp	 SHORT $LN10@SetSenderN
$LN9@SetSenderN:
  0001f	33 ff		 xor	 edi, edi
$LN10@SetSenderN:

; 383  : 	unsigned int uin = name ? strlen( name ) : 0;

  00021	8b 75 08	 mov	 esi, DWORD PTR _name$[ebp]
  00024	85 f6		 test	 esi, esi
  00026	74 36		 je	 SHORT $LN2@SetSenderN
  00028	8b ce		 mov	 ecx, esi
  0002a	8d 41 01	 lea	 eax, DWORD PTR [ecx+1]
  0002d	89 45 08	 mov	 DWORD PTR tv178[ebp], eax
$LL20@SetSenderN:
  00030	8a 01		 mov	 al, BYTE PTR [ecx]
  00032	41		 inc	 ecx
  00033	84 c0		 test	 al, al
  00035	75 f9		 jne	 SHORT $LL20@SetSenderN
  00037	2b 4d 08	 sub	 ecx, DWORD PTR tv178[ebp]

; 384  : 
; 385  : 	if ( uio < uin )

  0003a	3b f9		 cmp	 edi, ecx
  0003c	73 20		 jae	 SHORT $LN2@SetSenderN

; 386  : 	{
; 387  : 		if( m_pcFromName != NULL)

  0003e	85 d2		 test	 edx, edx
  00040	74 09		 je	 SHORT $LN4@SetSenderN

; 388  : 			free(	m_pcFromName);

  00042	52		 push	 edx
  00043	e8 00 00 00 00	 call	 _free
  00048	83 c4 04	 add	 esp, 4
$LN4@SetSenderN:

; 389  : 
; 390  : 		m_pcFromName = name ? strdup( name ) : 0;

  0004b	56		 push	 esi
  0004c	e8 00 00 00 00	 call	 _strdup

; 402  : 			}
; 403  : 		}
; 404  : 	}
; 405  : }

  00051	83 c4 04	 add	 esp, 4
  00054	89 43 0c	 mov	 DWORD PTR [ebx+12], eax
  00057	5f		 pop	 edi
  00058	5e		 pop	 esi
  00059	5b		 pop	 ebx
  0005a	5d		 pop	 ebp
  0005b	c2 04 00	 ret	 4
$LN2@SetSenderN:

; 391  : 	}
; 392  : 	else
; 393  : 	{
; 394  : 		if( m_pcFromName != NULL)

  0005e	85 d2		 test	 edx, edx
  00060	74 29		 je	 SHORT $LN7@SetSenderN

; 395  : 		{
; 396  : 			if( name )

  00062	85 f6		 test	 esi, esi
  00064	74 15		 je	 SHORT $LN6@SetSenderN
$LL15@SetSenderN:

; 397  : 				strcpy( m_pcFromName, name );

  00066	8a 06		 mov	 al, BYTE PTR [esi]
  00068	8d 76 01	 lea	 esi, DWORD PTR [esi+1]
  0006b	88 02		 mov	 BYTE PTR [edx], al
  0006d	8d 52 01	 lea	 edx, DWORD PTR [edx+1]
  00070	84 c0		 test	 al, al
  00072	75 f2		 jne	 SHORT $LL15@SetSenderN

; 402  : 			}
; 403  : 		}
; 404  : 	}
; 405  : }

  00074	5f		 pop	 edi
  00075	5e		 pop	 esi
  00076	5b		 pop	 ebx
  00077	5d		 pop	 ebp
  00078	c2 04 00	 ret	 4
$LN6@SetSenderN:

; 398  : 			else 
; 399  : 			{
; 400  : 				free(	m_pcFromName); 

  0007b	52		 push	 edx
  0007c	e8 00 00 00 00	 call	 _free

; 401  : 				m_pcFromName = 0;

  00081	c7 43 0c 00 00
	00 00		 mov	 DWORD PTR [ebx+12], 0

; 402  : 			}
; 403  : 		}
; 404  : 	}
; 405  : }

  00088	83 c4 04	 add	 esp, 4
$LN7@SetSenderN:
  0008b	5f		 pop	 edi
  0008c	5e		 pop	 esi
  0008d	5b		 pop	 ebx
  0008e	5d		 pop	 ebp
  0008f	c2 04 00	 ret	 4
?SetSenderName@i3SMTPMail@@QAEXPBD@Z ENDP		; i3SMTPMail::SetSenderName
_TEXT	ENDS
; Function compile flags: /Ogtp
; File E:\Proyectos\JuegosOnlineproyectos\PB\pbblow\Piercing Blow Remake\i3Server\src\i3Base\i3SMTPMail.cpp
;	COMDAT ?SetSubject@i3SMTPMail@@QAEXPBD@Z
_TEXT	SEGMENT
_subject$ = 8						; size = 4
tv180 = 8						; size = 4
?SetSubject@i3SMTPMail@@QAEXPBD@Z PROC			; i3SMTPMail::SetSubject, COMDAT
; _this$ = ecx

; 435  : {	

  00000	55		 push	 ebp
  00001	8b ec		 mov	 ebp, esp
  00003	53		 push	 ebx
  00004	8b d9		 mov	 ebx, ecx
  00006	56		 push	 esi
  00007	57		 push	 edi

; 436  : 
; 437  : 	unsigned int uio = m_pcSubject ? strlen( m_pcSubject ) : 0;

  00008	8b 53 10	 mov	 edx, DWORD PTR [ebx+16]
  0000b	85 d2		 test	 edx, edx
  0000d	74 10		 je	 SHORT $LN8@SetSubject
  0000f	8b fa		 mov	 edi, edx
  00011	8d 4f 01	 lea	 ecx, DWORD PTR [edi+1]
$LL18@SetSubject:
  00014	8a 07		 mov	 al, BYTE PTR [edi]
  00016	47		 inc	 edi
  00017	84 c0		 test	 al, al
  00019	75 f9		 jne	 SHORT $LL18@SetSubject
  0001b	2b f9		 sub	 edi, ecx
  0001d	eb 02		 jmp	 SHORT $LN9@SetSubject
$LN8@SetSubject:
  0001f	33 ff		 xor	 edi, edi
$LN9@SetSubject:

; 438  : 	unsigned int uin = subject ? strlen( subject ):0;

  00021	8b 75 08	 mov	 esi, DWORD PTR _subject$[ebp]
  00024	85 f6		 test	 esi, esi
  00026	74 2f		 je	 SHORT $LN2@SetSubject
  00028	8b ce		 mov	 ecx, esi
  0002a	8d 41 01	 lea	 eax, DWORD PTR [ecx+1]
  0002d	89 45 08	 mov	 DWORD PTR tv180[ebp], eax
$LL19@SetSubject:
  00030	8a 01		 mov	 al, BYTE PTR [ecx]
  00032	41		 inc	 ecx
  00033	84 c0		 test	 al, al
  00035	75 f9		 jne	 SHORT $LL19@SetSubject
  00037	2b 4d 08	 sub	 ecx, DWORD PTR tv180[ebp]

; 439  : 
; 440  : 	if( uio < uin )

  0003a	3b f9		 cmp	 edi, ecx
  0003c	73 19		 jae	 SHORT $LN2@SetSubject

; 441  : 	{
; 442  : 		delete[]	m_pcSubject;

  0003e	52		 push	 edx
  0003f	e8 00 00 00 00	 call	 ??_V@YAXPAX@Z		; operator delete[]

; 443  : 		m_pcSubject = subject ? strdup( subject ) : 0;

  00044	56		 push	 esi
  00045	e8 00 00 00 00	 call	 _strdup
  0004a	83 c4 08	 add	 esp, 8
  0004d	89 43 10	 mov	 DWORD PTR [ebx+16], eax
  00050	5f		 pop	 edi

; 455  : 			}
; 456  : 		}
; 457  : 	}
; 458  : }

  00051	5e		 pop	 esi
  00052	5b		 pop	 ebx
  00053	5d		 pop	 ebp
  00054	c2 04 00	 ret	 4
$LN2@SetSubject:

; 444  : 	}
; 445  : 	else
; 446  : 	{
; 447  : 		if( m_pcSubject != NULL)

  00057	85 d2		 test	 edx, edx
  00059	74 2a		 je	 SHORT $LN6@SetSubject

; 448  : 		{
; 449  : 			if( subject )	

  0005b	85 f6		 test	 esi, esi
  0005d	74 16		 je	 SHORT $LN5@SetSubject
  0005f	90		 npad	 1
$LL14@SetSubject:

; 450  : 				strcpy( m_pcSubject, subject );

  00060	8a 06		 mov	 al, BYTE PTR [esi]
  00062	8d 76 01	 lea	 esi, DWORD PTR [esi+1]
  00065	88 02		 mov	 BYTE PTR [edx], al
  00067	8d 52 01	 lea	 edx, DWORD PTR [edx+1]
  0006a	84 c0		 test	 al, al
  0006c	75 f2		 jne	 SHORT $LL14@SetSubject

; 455  : 			}
; 456  : 		}
; 457  : 	}
; 458  : }

  0006e	5f		 pop	 edi
  0006f	5e		 pop	 esi
  00070	5b		 pop	 ebx
  00071	5d		 pop	 ebp
  00072	c2 04 00	 ret	 4
$LN5@SetSubject:

; 451  : 			else 
; 452  : 			{
; 453  : 				delete[] m_pcSubject; 

  00075	52		 push	 edx
  00076	e8 00 00 00 00	 call	 ??_V@YAXPAX@Z		; operator delete[]
  0007b	83 c4 04	 add	 esp, 4

; 454  : 				m_pcSubject = 0;

  0007e	c7 43 10 00 00
	00 00		 mov	 DWORD PTR [ebx+16], 0
$LN6@SetSubject:

; 455  : 			}
; 456  : 		}
; 457  : 	}
; 458  : }

  00085	5f		 pop	 edi
  00086	5e		 pop	 esi
  00087	5b		 pop	 ebx
  00088	5d		 pop	 ebp
  00089	c2 04 00	 ret	 4
?SetSubject@i3SMTPMail@@QAEXPBD@Z ENDP			; i3SMTPMail::SetSubject
_TEXT	ENDS
; Function compile flags: /Ogtp
; File E:\Proyectos\JuegosOnlineproyectos\PB\pbblow\Piercing Blow Remake\i3Server\src\i3Base\i3SMTPMail.cpp
;	COMDAT ?SetMessageBody@i3SMTPMail@@QAEXPBD@Z
_TEXT	SEGMENT
_body$ = 8						; size = 4
tv178 = 8						; size = 4
?SetMessageBody@i3SMTPMail@@QAEXPBD@Z PROC		; i3SMTPMail::SetMessageBody, COMDAT
; _this$ = ecx

; 408  : {

  00000	55		 push	 ebp
  00001	8b ec		 mov	 ebp, esp
  00003	53		 push	 ebx
  00004	8b d9		 mov	 ebx, ecx
  00006	56		 push	 esi
  00007	57		 push	 edi

; 409  : 	unsigned int uio = m_pcMsgBody ? strlen( m_pcMsgBody ) : 0;

  00008	8b 53 14	 mov	 edx, DWORD PTR [ebx+20]
  0000b	85 d2		 test	 edx, edx
  0000d	74 10		 je	 SHORT $LN9@SetMessage
  0000f	8b fa		 mov	 edi, edx
  00011	8d 4f 01	 lea	 ecx, DWORD PTR [edi+1]
$LL19@SetMessage:
  00014	8a 07		 mov	 al, BYTE PTR [edi]
  00016	47		 inc	 edi
  00017	84 c0		 test	 al, al
  00019	75 f9		 jne	 SHORT $LL19@SetMessage
  0001b	2b f9		 sub	 edi, ecx
  0001d	eb 02		 jmp	 SHORT $LN10@SetMessage
$LN9@SetMessage:
  0001f	33 ff		 xor	 edi, edi
$LN10@SetMessage:

; 410  : 	unsigned int uin = body ? strlen( body ) : 0;

  00021	8b 75 08	 mov	 esi, DWORD PTR _body$[ebp]
  00024	85 f6		 test	 esi, esi
  00026	74 36		 je	 SHORT $LN2@SetMessage
  00028	8b ce		 mov	 ecx, esi
  0002a	8d 41 01	 lea	 eax, DWORD PTR [ecx+1]
  0002d	89 45 08	 mov	 DWORD PTR tv178[ebp], eax
$LL20@SetMessage:
  00030	8a 01		 mov	 al, BYTE PTR [ecx]
  00032	41		 inc	 ecx
  00033	84 c0		 test	 al, al
  00035	75 f9		 jne	 SHORT $LL20@SetMessage
  00037	2b 4d 08	 sub	 ecx, DWORD PTR tv178[ebp]

; 411  : 
; 412  : 	if( uio < uin )

  0003a	3b f9		 cmp	 edi, ecx
  0003c	73 20		 jae	 SHORT $LN2@SetMessage

; 413  : 	{
; 414  : 		if( m_pcMsgBody != NULL)

  0003e	85 d2		 test	 edx, edx
  00040	74 09		 je	 SHORT $LN4@SetMessage

; 415  : 			free( m_pcMsgBody);

  00042	52		 push	 edx
  00043	e8 00 00 00 00	 call	 _free
  00048	83 c4 04	 add	 esp, 4
$LN4@SetMessage:

; 416  : 
; 417  : 		m_pcMsgBody	=	body ? strdup( body ) : 0;

  0004b	56		 push	 esi
  0004c	e8 00 00 00 00	 call	 _strdup

; 429  : 			}
; 430  : 		}
; 431  : 	}
; 432  : }

  00051	83 c4 04	 add	 esp, 4
  00054	89 43 14	 mov	 DWORD PTR [ebx+20], eax
  00057	5f		 pop	 edi
  00058	5e		 pop	 esi
  00059	5b		 pop	 ebx
  0005a	5d		 pop	 ebp
  0005b	c2 04 00	 ret	 4
$LN2@SetMessage:

; 418  : 	}
; 419  : 	else
; 420  : 	{
; 421  : 		if( m_pcMsgBody != NULL)

  0005e	85 d2		 test	 edx, edx
  00060	74 29		 je	 SHORT $LN7@SetMessage

; 422  : 		{
; 423  : 			if( body )

  00062	85 f6		 test	 esi, esi
  00064	74 15		 je	 SHORT $LN6@SetMessage
$LL15@SetMessage:

; 424  : 				strcpy( m_pcMsgBody, body );

  00066	8a 06		 mov	 al, BYTE PTR [esi]
  00068	8d 76 01	 lea	 esi, DWORD PTR [esi+1]
  0006b	88 02		 mov	 BYTE PTR [edx], al
  0006d	8d 52 01	 lea	 edx, DWORD PTR [edx+1]
  00070	84 c0		 test	 al, al
  00072	75 f2		 jne	 SHORT $LL15@SetMessage

; 429  : 			}
; 430  : 		}
; 431  : 	}
; 432  : }

  00074	5f		 pop	 edi
  00075	5e		 pop	 esi
  00076	5b		 pop	 ebx
  00077	5d		 pop	 ebp
  00078	c2 04 00	 ret	 4
$LN6@SetMessage:

; 425  : 			else 
; 426  : 			{
; 427  : 				free( m_pcMsgBody); 

  0007b	52		 push	 edx
  0007c	e8 00 00 00 00	 call	 _free

; 428  : 				m_pcMsgBody	= 0;

  00081	c7 43 14 00 00
	00 00		 mov	 DWORD PTR [ebx+20], 0

; 429  : 			}
; 430  : 		}
; 431  : 	}
; 432  : }

  00088	83 c4 04	 add	 esp, 4
$LN7@SetMessage:
  0008b	5f		 pop	 edi
  0008c	5e		 pop	 esi
  0008d	5b		 pop	 ebx
  0008e	5d		 pop	 ebp
  0008f	c2 04 00	 ret	 4
?SetMessageBody@i3SMTPMail@@QAEXPBD@Z ENDP		; i3SMTPMail::SetMessageBody
_TEXT	ENDS
; Function compile flags: /Ogtp
; File E:\Proyectos\JuegosOnlineproyectos\PB\pbblow\Piercing Blow Remake\i3Server\src\i3Base\i3SMTPMail.cpp
; File D:\Program Files\Microsoft Visual Studio\18\Community\VC\Tools\MSVC\14.50.35717\include\vector
; File E:\Proyectos\JuegosOnlineproyectos\PB\pbblow\Piercing Blow Remake\i3Server\src\i3Base\i3SMTPMail.cpp
; File D:\Program Files\Microsoft Visual Studio\18\Community\VC\Tools\MSVC\14.50.35717\include\vector
; File E:\Proyectos\JuegosOnlineproyectos\PB\pbblow\Piercing Blow Remake\i3Server\src\i3Base\i3SMTPMail.cpp
; File D:\Program Files\Microsoft Visual Studio\18\Community\VC\Tools\MSVC\14.50.35717\include\vector
; File E:\Proyectos\JuegosOnlineproyectos\PB\pbblow\Piercing Blow Remake\i3Server\src\i3Base\i3SMTPMail.cpp
; File D:\Program Files\Microsoft Visual Studio\18\Community\VC\Tools\MSVC\14.50.35717\include\vector
; File D:\Program Files\Microsoft Visual Studio\18\Community\VC\Tools\MSVC\14.50.35717\include\xstring
; File D:\Program Files\Microsoft Visual Studio\18\Community\VC\Tools\MSVC\14.50.35717\include\vector
; File D:\Program Files\Microsoft Visual Studio\18\Community\VC\Tools\MSVC\14.50.35717\include\xstring
; File E:\Proyectos\JuegosOnlineproyectos\PB\pbblow\Piercing Blow Remake\i3Server\src\i3Base\i3SMTPMail.cpp
; File D:\Program Files\Microsoft Visual Studio\18\Community\VC\Tools\MSVC\14.50.35717\include\vector
; File D:\Program Files\Microsoft Visual Studio\18\Community\VC\Tools\MSVC\14.50.35717\include\xstring
; File D:\Program Files\Microsoft Visual Studio\18\Community\VC\Tools\MSVC\14.50.35717\include\vector
; File D:\Program Files\Microsoft Visual Studio\18\Community\VC\Tools\MSVC\14.50.35717\include\xstring
; File E:\Proyectos\JuegosOnlineproyectos\PB\pbblow\Piercing Blow Remake\i3Server\src\i3Base\i3SMTPMail.cpp
; File D:\Program Files\Microsoft Visual Studio\18\Community\VC\Tools\MSVC\14.50.35717\include\vector
; File E:\Proyectos\JuegosOnlineproyectos\PB\pbblow\Piercing Blow Remake\i3Server\src\i3Base\i3SMTPMail.cpp
; File D:\Program Files\Microsoft Visual Studio\18\Community\VC\Tools\MSVC\14.50.35717\include\vector
; File E:\Proyectos\JuegosOnlineproyectos\PB\pbblow\Piercing Blow Remake\i3Server\src\i3Base\i3SMTPMail.cpp
; File D:\Program Files\Microsoft Visual Studio\18\Community\VC\Tools\MSVC\14.50.35717\include\vector
; File E:\Proyectos\JuegosOnlineproyectos\PB\pbblow\Piercing Blow Remake\i3Server\src\i3Base\i3SMTPMail.cpp
; File D:\Program Files\Microsoft Visual Studio\18\Community\VC\Tools\MSVC\14.50.35717\include\vector
; File E:\Proyectos\JuegosOnlineproyectos\PB\pbblow\Piercing Blow Remake\i3Server\src\i3Base\i3SMTPMail.cpp
; File D:\Program Files\Microsoft Visual Studio\18\Community\VC\Tools\MSVC\14.50.35717\include\vector
; File E:\Proyectos\JuegosOnlineproyectos\PB\pbblow\Piercing Blow Remake\i3Server\src\i3Base\i3SMTPMail.cpp
; File D:\Program Files\Microsoft Visual Studio\18\Community\VC\Tools\MSVC\14.50.35717\include\vector
; File E:\Proyectos\JuegosOnlineproyectos\PB\pbblow\Piercing Blow Remake\i3Server\src\i3Base\i3SMTPMail.cpp
; File D:\Program Files\Microsoft Visual Studio\18\Community\VC\Tools\MSVC\14.50.35717\include\vector
; File E:\Proyectos\JuegosOnlineproyectos\PB\pbblow\Piercing Blow Remake\i3Server\src\i3Base\i3SMTPMail.cpp
; File D:\Program Files\Microsoft Visual Studio\18\Community\VC\Tools\MSVC\14.50.35717\include\vector
; File E:\Proyectos\JuegosOnlineproyectos\PB\pbblow\Piercing Blow Remake\i3Server\src\i3Base\i3SMTPMail.cpp
; File D:\Program Files\Microsoft Visual Studio\18\Community\VC\Tools\MSVC\14.50.35717\include\vector
; File E:\Proyectos\JuegosOnlineproyectos\PB\pbblow\Piercing Blow Remake\i3Server\src\i3Base\i3SMTPMail.cpp
; File D:\Program Files\Microsoft Visual Studio\18\Community\VC\Tools\MSVC\14.50.35717\include\vector
; File E:\Proyectos\JuegosOnlineproyectos\PB\pbblow\Piercing Blow Remake\i3Server\src\i3Base\i3SMTPMail.cpp
; File D:\Program Files\Microsoft Visual Studio\18\Community\VC\Tools\MSVC\14.50.35717\include\vector
; File E:\Proyectos\JuegosOnlineproyectos\PB\pbblow\Piercing Blow Remake\i3Server\src\i3Base\i3SMTPMail.cpp
; File D:\Program Files\Microsoft Visual Studio\18\Community\VC\Tools\MSVC\14.50.35717\include\vector
; File E:\Proyectos\JuegosOnlineproyectos\PB\pbblow\Piercing Blow Remake\i3Server\src\i3Base\i3SMTPMail.cpp
; File D:\Program Files\Microsoft Visual Studio\18\Community\VC\Tools\MSVC\14.50.35717\include\vector
; File E:\Proyectos\JuegosOnlineproyectos\PB\pbblow\Piercing Blow Remake\i3Server\src\i3Base\i3SMTPMail.cpp
; File D:\Program Files\Microsoft Visual Studio\18\Community\VC\Tools\MSVC\14.50.35717\include\vector
; File E:\Proyectos\JuegosOnlineproyectos\PB\pbblow\Piercing Blow Remake\i3Server\src\i3Base\i3SMTPMail.cpp
; File D:\Program Files\Microsoft Visual Studio\18\Community\VC\Tools\MSVC\14.50.35717\include\vector
; File E:\Proyectos\JuegosOnlineproyectos\PB\pbblow\Piercing Blow Remake\i3Server\src\i3Base\i3SMTPMail.cpp
;	COMDAT ?Send@i3SMTPMail@@QAEHXZ
_TEXT	SEGMENT
_msgHeader$1$ = -8476					; size = 4
tv702 = -8472						; size = 4
_bResult$1$ = -8468					; size = 4
_iEnd$1$ = -8464					; size = 4
_i$1$ = -8460						; size = 4
_i$1$ = -8460						; size = 4
_sReceiveBuffer$ = -8456				; size = 4096
_buf$ = -4360						; size = 4096
_pszContent$1 = -264					; size = 260
__$ArrayPad$ = -4					; size = 4
?Send@i3SMTPMail@@QAEHXZ PROC				; i3SMTPMail::Send, COMDAT
; _this$ = ecx

; 154  : {

  00000	55		 push	 ebp
  00001	8b ec		 mov	 ebp, esp
  00003	b8 1c 21 00 00	 mov	 eax, 8476		; 0000211cH
  00008	e8 00 00 00 00	 call	 __chkstk
  0000d	a1 00 00 00 00	 mov	 eax, DWORD PTR ___security_cookie
  00012	33 c5		 xor	 eax, ebp
  00014	89 45 fc	 mov	 DWORD PTR __$ArrayPad$[ebp], eax
  00017	53		 push	 ebx
  00018	8b d9		 mov	 ebx, ecx
  0001a	56		 push	 esi
  0001b	57		 push	 edi

; 155  : 	if( m_pcFromEmail == NULL ) return	FALSE;

  0001c	8b 53 08	 mov	 edx, DWORD PTR [ebx+8]
  0001f	85 d2		 test	 edx, edx
  00021	0f 84 ae 05 00
	00		 je	 $LN143@Send

; 156  : 
; 157  : 	BYTE		sReceiveBuffer[SMTP_BUF_SIZE];
; 158  : 	int			iLength		= 0;
; 159  : 	int			iEnd		= 0;
; 160  : 	char		buf[SMTP_BUF_SIZE];
; 161  : 	BOOL	bResult = FALSE;
; 162  : 
; 163  : 	//  ş¸ł»´Â »ç¶÷ ÁöÁ¤
; 164  : 	strcpy( buf, "MAIL FROM: <" );

  00027	a1 00 00 00 00	 mov	 eax, DWORD PTR ??_C@_0N@NLGDMBLP@MAIL?5FROM?3?5?$DM@

; 165  :     strcat( buf, m_pcFromEmail );

  0002c	8b f2		 mov	 esi, edx
  0002e	89 85 f8 ee ff
	ff		 mov	 DWORD PTR _buf$[ebp], eax
  00034	a1 04 00 00 00	 mov	 eax, DWORD PTR ??_C@_0N@NLGDMBLP@MAIL?5FROM?3?5?$DM@+4
  00039	89 85 fc ee ff
	ff		 mov	 DWORD PTR _buf$[ebp+4], eax
  0003f	a1 08 00 00 00	 mov	 eax, DWORD PTR ??_C@_0N@NLGDMBLP@MAIL?5FROM?3?5?$DM@+8
  00044	89 85 00 ef ff
	ff		 mov	 DWORD PTR _buf$[ebp+8], eax
  0004a	a0 0c 00 00 00	 mov	 al, BYTE PTR ??_C@_0N@NLGDMBLP@MAIL?5FROM?3?5?$DM@+12
  0004f	c7 85 ec de ff
	ff 00 00 00 00	 mov	 DWORD PTR _bResult$1$[ebp], 0
  00059	88 85 04 ef ff
	ff		 mov	 BYTE PTR _buf$[ebp+12], al
  0005f	90		 npad	 1
$LL154@Send:
  00060	8a 02		 mov	 al, BYTE PTR [edx]
  00062	42		 inc	 edx
  00063	84 c0		 test	 al, al
  00065	75 f9		 jne	 SHORT $LL154@Send
  00067	8d bd f8 ee ff
	ff		 lea	 edi, DWORD PTR _buf$[ebp]
  0006d	2b d6		 sub	 edx, esi
  0006f	4f		 dec	 edi
$LL155@Send:
  00070	8a 47 01	 mov	 al, BYTE PTR [edi+1]
  00073	47		 inc	 edi
  00074	84 c0		 test	 al, al
  00076	75 f8		 jne	 SHORT $LL155@Send
  00078	8b ca		 mov	 ecx, edx
  0007a	c1 e9 02	 shr	 ecx, 2
  0007d	f3 a5		 rep movsd
  0007f	8b ca		 mov	 ecx, edx
  00081	83 e1 03	 and	 ecx, 3
  00084	f3 a4		 rep movsb

; 166  :     strcat( buf, ">\r\n" );

  00086	8d bd f8 ee ff
	ff		 lea	 edi, DWORD PTR _buf$[ebp]
  0008c	4f		 dec	 edi
  0008d	8d 49 00	 npad	 3
$LL156@Send:
  00090	8a 47 01	 mov	 al, BYTE PTR [edi+1]
  00093	8d 7f 01	 lea	 edi, DWORD PTR [edi+1]
  00096	84 c0		 test	 al, al
  00098	75 f6		 jne	 SHORT $LL156@Send
  0009a	a1 00 00 00 00	 mov	 eax, DWORD PTR ??_C@_03DMHINEKI@?$DO?$AN?6@

; 167  : 
; 168  :     if( send( hSocket, (LPSTR)buf, strlen(buf), NO_FLAGS ) == SOCKET_ERROR ) 

  0009f	8d 8d f8 ee ff
	ff		 lea	 ecx, DWORD PTR _buf$[ebp]
  000a5	89 07		 mov	 DWORD PTR [edi], eax
  000a7	8d 51 01	 lea	 edx, DWORD PTR [ecx+1]
  000aa	8d 9b 00 00 00
	00		 npad	 6
$LL157@Send:
  000b0	8a 01		 mov	 al, BYTE PTR [ecx]
  000b2	41		 inc	 ecx
  000b3	84 c0		 test	 al, al
  000b5	75 f9		 jne	 SHORT $LL157@Send
  000b7	6a 00		 push	 0
  000b9	2b ca		 sub	 ecx, edx
  000bb	8d 85 f8 ee ff
	ff		 lea	 eax, DWORD PTR _buf$[ebp]
  000c1	51		 push	 ecx
  000c2	50		 push	 eax
  000c3	ff b3 b4 01 00
	00		 push	 DWORD PTR [ebx+436]
  000c9	ff 15 00 00 00
	00		 call	 DWORD PTR __imp__send@16
  000cf	83 f8 ff	 cmp	 eax, -1
  000d2	0f 84 fd 04 00
	00		 je	 $LN143@Send

; 169  : 	{		
; 170  : 		return	FALSE;
; 171  : 	}
; 172  : 
; 173  :     iLength = recv( hSocket, 

  000d8	6a 00		 push	 0
  000da	68 00 10 00 00	 push	 4096			; 00001000H
  000df	8d 85 f8 de ff
	ff		 lea	 eax, DWORD PTR _sReceiveBuffer$[ebp]
  000e5	50		 push	 eax
  000e6	ff b3 b4 01 00
	00		 push	 DWORD PTR [ebx+436]
  000ec	ff 15 00 00 00
	00		 call	 DWORD PTR __imp__recv@16

; 174  : 					(LPSTR)sReceiveBuffer + iEnd,
; 175  : 					sizeof( sReceiveBuffer ) - iEnd, 
; 176  : 					NO_FLAGS );
; 177  :     iEnd	+= iLength;

  000f2	8b f0		 mov	 esi, eax
  000f4	89 b5 f0 de ff
	ff		 mov	 DWORD PTR _iEnd$1$[ebp], esi

; 179  :     sReceiveBuffer[ iEnd ] = '\0';

  000fa	81 fe 00 10 00
	00		 cmp	 esi, 4096		; 00001000H
  00100	0f 83 ec 04 00
	00		 jae	 $LN35@Send
; File D:\Program Files\Microsoft Visual Studio\18\Community\VC\Tools\MSVC\14.50.35717\include\vector

; 1915 :         return static_cast<size_type>(_My_data._Mylast - _My_data._Myfirst);

  00106	8b bb b8 01 00
	00		 mov	 edi, DWORD PTR [ebx+440]
; File E:\Proyectos\JuegosOnlineproyectos\PB\pbblow\Piercing Blow Remake\i3Server\src\i3Base\i3SMTPMail.cpp

; 186  : 	for( UINT32 i = 0; i < Recipients.size(); i++ ) 

  0010c	33 c9		 xor	 ecx, ecx
  0010e	c6 84 35 f8 de
	ff ff 00	 mov	 BYTE PTR _sReceiveBuffer$[ebp+esi], 0
; File D:\Program Files\Microsoft Visual Studio\18\Community\VC\Tools\MSVC\14.50.35717\include\vector

; 1915 :         return static_cast<size_type>(_My_data._Mylast - _My_data._Myfirst);

  00116	b8 ab aa aa 2a	 mov	 eax, 715827883		; 2aaaaaabH
  0011b	8b b3 bc 01 00
	00		 mov	 esi, DWORD PTR [ebx+444]
; File E:\Proyectos\JuegosOnlineproyectos\PB\pbblow\Piercing Blow Remake\i3Server\src\i3Base\i3SMTPMail.cpp

; 186  : 	for( UINT32 i = 0; i < Recipients.size(); i++ ) 

  00121	89 8d f4 de ff
	ff		 mov	 DWORD PTR _i$1$[ebp], ecx
; File D:\Program Files\Microsoft Visual Studio\18\Community\VC\Tools\MSVC\14.50.35717\include\vector

; 1915 :         return static_cast<size_type>(_My_data._Mylast - _My_data._Myfirst);

  00127	8b ce		 mov	 ecx, esi
  00129	2b cf		 sub	 ecx, edi
  0012b	f7 e9		 imul	 ecx
  0012d	c1 fa 02	 sar	 edx, 2
  00130	8b c2		 mov	 eax, edx
  00132	c1 e8 1f	 shr	 eax, 31			; 0000001fH
  00135	03 c2		 add	 eax, edx
; File E:\Proyectos\JuegosOnlineproyectos\PB\pbblow\Piercing Blow Remake\i3Server\src\i3Base\i3SMTPMail.cpp

; 186  : 	for( UINT32 i = 0; i < Recipients.size(); i++ ) 

  00137	0f 84 b5 01 00
	00		 je	 $LN3@Send
  0013d	33 c9		 xor	 ecx, ecx
  0013f	90		 npad	 1
$LL4@Send:
; File D:\Program Files\Microsoft Visual Studio\18\Community\VC\Tools\MSVC\14.50.35717\include\vector

; 1949 :         if (static_cast<size_type>(_My_data._Mylast - _My_data._Myfirst) <= _Pos) {

  00140	2b f7		 sub	 esi, edi
  00142	b8 ab aa aa 2a	 mov	 eax, 715827883		; 2aaaaaabH
  00147	f7 ee		 imul	 esi
  00149	c1 fa 02	 sar	 edx, 2
  0014c	8b c2		 mov	 eax, edx
  0014e	c1 e8 1f	 shr	 eax, 31			; 0000001fH
  00151	03 c2		 add	 eax, edx
  00153	3b c1		 cmp	 eax, ecx
  00155	0f 86 8d 04 00
	00		 jbe	 $LN120@Send

; 1953 :         return _My_data._Myfirst[_Pos];

  0015b	8d 34 49	 lea	 esi, DWORD PTR [ecx+ecx*2]
; File D:\Program Files\Microsoft Visual Studio\18\Community\VC\Tools\MSVC\14.50.35717\include\xstring

; 453  :         return _Myres > _Small_string_capacity;

  0015e	83 7c f7 14 0f	 cmp	 DWORD PTR [edi+esi*8+20], 15 ; 0000000fH
; File D:\Program Files\Microsoft Visual Studio\18\Community\VC\Tools\MSVC\14.50.35717\include\vector

; 1953 :         return _My_data._Myfirst[_Pos];

  00163	8d 04 f7	 lea	 eax, DWORD PTR [edi+esi*8]
; File D:\Program Files\Microsoft Visual Studio\18\Community\VC\Tools\MSVC\14.50.35717\include\xstring

; 445  :         if (_Large_mode_engaged()) {

  00166	76 02		 jbe	 SHORT $LN53@Send

; 446  :             _Result = _Unfancy(_Bx._Ptr);

  00168	8b 00		 mov	 eax, DWORD PTR [eax]
$LN53@Send:
; File E:\Proyectos\JuegosOnlineproyectos\PB\pbblow\Piercing Blow Remake\i3Server\src\i3Base\i3SMTPMail.cpp

; 188  : 		token	= strtok( Recipients.at(i).GetEmail(), "<" );

  0016a	68 00 00 00 00	 push	 OFFSET ??_C@_01MNNFJEPP@?$DM@
  0016f	50		 push	 eax
  00170	e8 00 00 00 00	 call	 _strtok

; 189  : 		token	= strtok( NULL, "<" );	

  00175	68 00 00 00 00	 push	 OFFSET ??_C@_01MNNFJEPP@?$DM@
  0017a	6a 00		 push	 0
  0017c	e8 00 00 00 00	 call	 _strtok
  00181	8b d0		 mov	 edx, eax
  00183	83 c4 10	 add	 esp, 16			; 00000010H

; 191  : 		if( token == NULL )	token	= strtok( Recipients.at(i).GetEmail(), "<" );

  00186	85 d2		 test	 edx, edx
  00188	75 47		 jne	 SHORT $LN13@Send
; File D:\Program Files\Microsoft Visual Studio\18\Community\VC\Tools\MSVC\14.50.35717\include\vector

; 1949 :         if (static_cast<size_type>(_My_data._Mylast - _My_data._Myfirst) <= _Pos) {

  0018a	8b 8b bc 01 00
	00		 mov	 ecx, DWORD PTR [ebx+444]
  00190	b8 ab aa aa 2a	 mov	 eax, 715827883		; 2aaaaaabH
  00195	8b bb b8 01 00
	00		 mov	 edi, DWORD PTR [ebx+440]
  0019b	2b cf		 sub	 ecx, edi
  0019d	f7 e9		 imul	 ecx
  0019f	c1 fa 02	 sar	 edx, 2
  001a2	8b c2		 mov	 eax, edx
  001a4	c1 e8 1f	 shr	 eax, 31			; 0000001fH
  001a7	03 c2		 add	 eax, edx
  001a9	3b 85 f4 de ff
	ff		 cmp	 eax, DWORD PTR _i$1$[ebp]
  001af	0f 86 33 04 00
	00		 jbe	 $LN120@Send
; File D:\Program Files\Microsoft Visual Studio\18\Community\VC\Tools\MSVC\14.50.35717\include\xstring

; 453  :         return _Myres > _Small_string_capacity;

  001b5	83 7c f7 14 0f	 cmp	 DWORD PTR [edi+esi*8+20], 15 ; 0000000fH
; File D:\Program Files\Microsoft Visual Studio\18\Community\VC\Tools\MSVC\14.50.35717\include\vector

; 1953 :         return _My_data._Myfirst[_Pos];

  001ba	8d 04 f7	 lea	 eax, DWORD PTR [edi+esi*8]
; File D:\Program Files\Microsoft Visual Studio\18\Community\VC\Tools\MSVC\14.50.35717\include\xstring

; 445  :         if (_Large_mode_engaged()) {

  001bd	76 02		 jbe	 SHORT $LN80@Send

; 446  :             _Result = _Unfancy(_Bx._Ptr);

  001bf	8b 00		 mov	 eax, DWORD PTR [eax]
$LN80@Send:
; File E:\Proyectos\JuegosOnlineproyectos\PB\pbblow\Piercing Blow Remake\i3Server\src\i3Base\i3SMTPMail.cpp

; 191  : 		if( token == NULL )	token	= strtok( Recipients.at(i).GetEmail(), "<" );

  001c1	68 00 00 00 00	 push	 OFFSET ??_C@_01MNNFJEPP@?$DM@
  001c6	50		 push	 eax
  001c7	e8 00 00 00 00	 call	 _strtok
  001cc	83 c4 08	 add	 esp, 8
  001cf	8b d0		 mov	 edx, eax
$LN13@Send:

; 192  : 		strcpy( buf, "RCPT TO: <" );

  001d1	a1 00 00 00 00	 mov	 eax, DWORD PTR ??_C@_0L@DEDALBCA@RCPT?5TO?3?5?$DM@

; 193  : 		strcat( buf, token );

  001d6	8b f2		 mov	 esi, edx
  001d8	89 85 f8 ee ff
	ff		 mov	 DWORD PTR _buf$[ebp], eax
  001de	a1 04 00 00 00	 mov	 eax, DWORD PTR ??_C@_0L@DEDALBCA@RCPT?5TO?3?5?$DM@+4
  001e3	89 85 fc ee ff
	ff		 mov	 DWORD PTR _buf$[ebp+4], eax
  001e9	66 a1 08 00 00
	00		 mov	 ax, WORD PTR ??_C@_0L@DEDALBCA@RCPT?5TO?3?5?$DM@+8
  001ef	66 89 85 00 ef
	ff ff		 mov	 WORD PTR _buf$[ebp+8], ax
  001f6	a0 0a 00 00 00	 mov	 al, BYTE PTR ??_C@_0L@DEDALBCA@RCPT?5TO?3?5?$DM@+10
  001fb	88 85 02 ef ff
	ff		 mov	 BYTE PTR _buf$[ebp+10], al
$LL158@Send:
  00201	8a 02		 mov	 al, BYTE PTR [edx]
  00203	42		 inc	 edx
  00204	84 c0		 test	 al, al
  00206	75 f9		 jne	 SHORT $LL158@Send
  00208	8d bd f8 ee ff
	ff		 lea	 edi, DWORD PTR _buf$[ebp]
  0020e	2b d6		 sub	 edx, esi
  00210	4f		 dec	 edi
$LL159@Send:
  00211	8a 47 01	 mov	 al, BYTE PTR [edi+1]
  00214	47		 inc	 edi
  00215	84 c0		 test	 al, al
  00217	75 f8		 jne	 SHORT $LL159@Send
  00219	8b ca		 mov	 ecx, edx
  0021b	c1 e9 02	 shr	 ecx, 2
  0021e	f3 a5		 rep movsd
  00220	8b ca		 mov	 ecx, edx
  00222	83 e1 03	 and	 ecx, 3
  00225	f3 a4		 rep movsb

; 194  : 		strcat( buf, "\r\n" );

  00227	8d 8d f8 ee ff
	ff		 lea	 ecx, DWORD PTR _buf$[ebp]
  0022d	49		 dec	 ecx
  0022e	8b ff		 npad	 2
$LL160@Send:
  00230	8a 41 01	 mov	 al, BYTE PTR [ecx+1]
  00233	8d 49 01	 lea	 ecx, DWORD PTR [ecx+1]
  00236	84 c0		 test	 al, al
  00238	75 f6		 jne	 SHORT $LL160@Send
  0023a	66 a1 00 00 00
	00		 mov	 ax, WORD PTR ??_C@_02PCIJFNDE@?$AN?6@
  00240	66 89 01	 mov	 WORD PTR [ecx], ax
  00243	a0 02 00 00 00	 mov	 al, BYTE PTR ??_C@_02PCIJFNDE@?$AN?6@+2
  00248	88 41 02	 mov	 BYTE PTR [ecx+2], al

; 41   : 	if( send( hSocket, (char*)pcMsg, strlen( pcMsg ), NO_FLAGS ) == SOCKET_ERROR )	return	FALSE;

  0024b	8d 8d f8 ee ff
	ff		 lea	 ecx, DWORD PTR _buf$[ebp]
  00251	8d 51 01	 lea	 edx, DWORD PTR [ecx+1]
$LL161@Send:
  00254	8a 01		 mov	 al, BYTE PTR [ecx]
  00256	41		 inc	 ecx
  00257	84 c0		 test	 al, al
  00259	75 f9		 jne	 SHORT $LL161@Send
  0025b	6a 00		 push	 0
  0025d	2b ca		 sub	 ecx, edx
  0025f	8d 85 f8 ee ff
	ff		 lea	 eax, DWORD PTR _buf$[ebp]
  00265	51		 push	 ecx
  00266	50		 push	 eax
  00267	ff b3 b4 01 00
	00		 push	 DWORD PTR [ebx+436]
  0026d	ff 15 00 00 00
	00		 call	 DWORD PTR __imp__send@16
  00273	83 f8 ff	 cmp	 eax, -1
  00276	0f 84 59 03 00
	00		 je	 $LN143@Send

; 195  : 
; 196  : 		if( !SendSocketData( (char*)buf ) )	return	FALSE;		
; 197  : 
; 198  : 		iLength		= recv( hSocket, 

  0027c	8b b5 f0 de ff
	ff		 mov	 esi, DWORD PTR _iEnd$1$[ebp]
  00282	b8 00 10 00 00	 mov	 eax, 4096		; 00001000H
  00287	6a 00		 push	 0
  00289	2b c6		 sub	 eax, esi
  0028b	50		 push	 eax
  0028c	8d 85 f8 de ff
	ff		 lea	 eax, DWORD PTR _sReceiveBuffer$[ebp]
  00292	03 c6		 add	 eax, esi
  00294	50		 push	 eax
  00295	ff b3 b4 01 00
	00		 push	 DWORD PTR [ebx+436]
  0029b	ff 15 00 00 00
	00		 call	 DWORD PTR __imp__recv@16

; 199  : 							(LPSTR)sReceiveBuffer + iEnd,
; 200  : 							sizeof( sReceiveBuffer ) - iEnd, 
; 201  : 							NO_FLAGS );
; 202  : 		iEnd		+= iLength;

  002a1	03 f0		 add	 esi, eax
  002a3	89 b5 f0 de ff
	ff		 mov	 DWORD PTR _iEnd$1$[ebp], esi

; 203  : 
; 204  : 		sReceiveBuffer[iEnd] = '\0';

  002a9	81 fe 00 10 00
	00		 cmp	 esi, 4096		; 00001000H
  002af	0f 83 3d 03 00
	00		 jae	 $LN35@Send
; File D:\Program Files\Microsoft Visual Studio\18\Community\VC\Tools\MSVC\14.50.35717\include\vector

; 1915 :         return static_cast<size_type>(_My_data._Mylast - _My_data._Myfirst);

  002b5	8b bb b8 01 00
	00		 mov	 edi, DWORD PTR [ebx+440]
  002bb	b8 ab aa aa 2a	 mov	 eax, 715827883		; 2aaaaaabH
; File E:\Proyectos\JuegosOnlineproyectos\PB\pbblow\Piercing Blow Remake\i3Server\src\i3Base\i3SMTPMail.cpp

; 186  : 	for( UINT32 i = 0; i < Recipients.size(); i++ ) 

  002c0	ff 85 f4 de ff
	ff		 inc	 DWORD PTR _i$1$[ebp]

; 203  : 
; 204  : 		sReceiveBuffer[iEnd] = '\0';

  002c6	c6 84 35 f8 de
	ff ff 00	 mov	 BYTE PTR _sReceiveBuffer$[ebp+esi], 0
; File D:\Program Files\Microsoft Visual Studio\18\Community\VC\Tools\MSVC\14.50.35717\include\vector

; 1915 :         return static_cast<size_type>(_My_data._Mylast - _My_data._Myfirst);

  002ce	8b b3 bc 01 00
	00		 mov	 esi, DWORD PTR [ebx+444]
  002d4	8b ce		 mov	 ecx, esi
  002d6	2b cf		 sub	 ecx, edi
  002d8	f7 e9		 imul	 ecx
; File E:\Proyectos\JuegosOnlineproyectos\PB\pbblow\Piercing Blow Remake\i3Server\src\i3Base\i3SMTPMail.cpp

; 186  : 	for( UINT32 i = 0; i < Recipients.size(); i++ ) 

  002da	8b 8d f4 de ff
	ff		 mov	 ecx, DWORD PTR _i$1$[ebp]
; File D:\Program Files\Microsoft Visual Studio\18\Community\VC\Tools\MSVC\14.50.35717\include\vector

; 1915 :         return static_cast<size_type>(_My_data._Mylast - _My_data._Myfirst);

  002e0	c1 fa 02	 sar	 edx, 2
  002e3	8b c2		 mov	 eax, edx
  002e5	c1 e8 1f	 shr	 eax, 31			; 0000001fH
  002e8	03 c2		 add	 eax, edx
; File E:\Proyectos\JuegosOnlineproyectos\PB\pbblow\Piercing Blow Remake\i3Server\src\i3Base\i3SMTPMail.cpp

; 186  : 	for( UINT32 i = 0; i < Recipients.size(); i++ ) 

  002ea	3b c8		 cmp	 ecx, eax
  002ec	0f 82 4e fe ff
	ff		 jb	 $LL4@Send
$LN3@Send:

; 41   : 	if( send( hSocket, (char*)pcMsg, strlen( pcMsg ), NO_FLAGS ) == SOCKET_ERROR )	return	FALSE;

  002f2	8b 3d 00 00 00
	00		 mov	 edi, DWORD PTR __imp__send@16
  002f8	6a 00		 push	 0
  002fa	6a 06		 push	 6
  002fc	68 00 00 00 00	 push	 OFFSET ??_C@_06KNPIFKI@DATA?$AN?6@
  00301	ff b3 b4 01 00
	00		 push	 DWORD PTR [ebx+436]
  00307	ff d7		 call	 edi
  00309	83 f8 ff	 cmp	 eax, -1
  0030c	0f 84 c3 02 00
	00		 je	 $LN143@Send

; 205  : 	}
; 206  : 	// ąŢ´Â »ç¶÷ ÁöÁ¤
; 207  : 
; 208  : 
; 209  : 	// ş»ą®ŔÔ·Â ˝ĂŔŰ
; 210  : 	// DATA ¸í·ÉŔ» ŔüĽŰÇĎż© ş»ą®Ŕ» ŔÔ·ÂÇŇ°ÍŔĚ¶ó°í Ŕü´Ţ
; 211  : 	if( !SendSocketData( (char*)"DATA\r\n" ) ) return	FALSE;   
; 212  : 
; 213  : 	iLength		= recv( hSocket, 

  00312	8b b5 f0 de ff
	ff		 mov	 esi, DWORD PTR _iEnd$1$[ebp]
  00318	b8 00 10 00 00	 mov	 eax, 4096		; 00001000H
  0031d	6a 00		 push	 0
  0031f	2b c6		 sub	 eax, esi
  00321	50		 push	 eax
  00322	8d 85 f8 de ff
	ff		 lea	 eax, DWORD PTR _sReceiveBuffer$[ebp]
  00328	03 c6		 add	 eax, esi
  0032a	50		 push	 eax
  0032b	ff b3 b4 01 00
	00		 push	 DWORD PTR [ebx+436]
  00331	ff 15 00 00 00
	00		 call	 DWORD PTR __imp__recv@16

; 214  : 						(LPSTR)sReceiveBuffer + iEnd,
; 215  : 						sizeof( sReceiveBuffer ) - iEnd, 
; 216  : 						NO_FLAGS );
; 217  :     iEnd		+= iLength;

  00337	03 f0		 add	 esi, eax
  00339	89 b5 f0 de ff
	ff		 mov	 DWORD PTR _iEnd$1$[ebp], esi

; 218  : 
; 219  :     sReceiveBuffer[iEnd] = '\0';

  0033f	81 fe 00 10 00
	00		 cmp	 esi, 4096		; 00001000H
  00345	0f 83 a7 02 00
	00		 jae	 $LN35@Send

; 220  : 	// DATA ¸í·ÉŔ» ŔüĽŰÇĎż© ş»ą®Ŕ» ŔÔ·ÂÇŇ°ÍŔĚ¶ó°í Ŕü´Ţ
; 221  : 
; 222  : 
; 223  : 	// ş»ą® Çě´ő
; 224  : 	char*		msgHeader	= FormatHeader();

  0034b	8b cb		 mov	 ecx, ebx
  0034d	c6 84 35 f8 de
	ff ff 00	 mov	 BYTE PTR _sReceiveBuffer$[ebp+esi], 0
  00355	e8 00 00 00 00	 call	 ?FormatHeader@i3SMTPMail@@AAEPADXZ ; i3SMTPMail::FormatHeader
  0035a	89 85 e4 de ff
	ff		 mov	 DWORD PTR _msgHeader$1$[ebp], eax

; 225  : 	if( msgHeader == NULL ) 

  00360	85 c0		 test	 eax, eax
  00362	0f 84 56 02 00
	00		 je	 $LN33@Send

; 226  : 	{
; 227  : 		goto ExitPart;
; 228  : 	}
; 229  : 
; 230  : 	if( !SendSocketData( (char*)msgHeader ) )

  00368	50		 push	 eax
  00369	8b cb		 mov	 ecx, ebx
  0036b	e8 00 00 00 00	 call	 ?SendSocketData@i3SMTPMail@@AAEHPAD@Z ; i3SMTPMail::SendSocketData
  00370	85 c0		 test	 eax, eax
  00372	0f 84 38 02 00
	00		 je	 $ExitPart$202
; File D:\Program Files\Microsoft Visual Studio\18\Community\VC\Tools\MSVC\14.50.35717\include\vector

; 1915 :         return static_cast<size_type>(_My_data._Mylast - _My_data._Myfirst);

  00378	8b 8b c8 01 00
	00		 mov	 ecx, DWORD PTR [ebx+456]
  0037e	b8 e1 83 0f 3e	 mov	 eax, 1041204193		; 3e0f83e1H
  00383	2b 8b c4 01 00
	00		 sub	 ecx, DWORD PTR [ebx+452]
  00389	f7 e9		 imul	 ecx
  0038b	c1 fa 06	 sar	 edx, 6
  0038e	8b c2		 mov	 eax, edx
  00390	c1 e8 1f	 shr	 eax, 31			; 0000001fH
  00393	03 c2		 add	 eax, edx
; File E:\Proyectos\JuegosOnlineproyectos\PB\pbblow\Piercing Blow Remake\i3Server\src\i3Base\i3SMTPMail.cpp

; 237  : 	if( Attach.size() > 0 ) {

  00395	74 1a		 je	 SHORT $LN21@Send

; 41   : 	if( send( hSocket, (char*)pcMsg, strlen( pcMsg ), NO_FLAGS ) == SOCKET_ERROR )	return	FALSE;

  00397	6a 00		 push	 0
  00399	6a 3c		 push	 60			; 0000003cH
  0039b	68 00 00 00 00	 push	 OFFSET ??_C@_0DN@EBPLIHBN@?$AN?6?9?9?$CDBOUNDARY?$CD?$AN?6Content?9Type?3?5t@
  003a0	ff b3 b4 01 00
	00		 push	 DWORD PTR [ebx+436]
  003a6	ff d7		 call	 edi
  003a8	83 f8 ff	 cmp	 eax, -1
  003ab	0f 84 ff 01 00
	00		 je	 $ExitPart$202
$LN21@Send:

; 240  : 		{
; 241  : 			goto ExitPart;
; 242  : 		}
; 243  : 	}
; 244  : 
; 245  : 	if( !SendSocketData( (char*)m_pcMsgBody ) )

  003b1	ff 73 14	 push	 DWORD PTR [ebx+20]
  003b4	8b cb		 mov	 ecx, ebx
  003b6	e8 00 00 00 00	 call	 ?SendSocketData@i3SMTPMail@@AAEHPAD@Z ; i3SMTPMail::SendSocketData
  003bb	85 c0		 test	 eax, eax
  003bd	0f 84 ed 01 00
	00		 je	 $ExitPart$202
; File D:\Program Files\Microsoft Visual Studio\18\Community\VC\Tools\MSVC\14.50.35717\include\vector

; 1915 :         return static_cast<size_type>(_My_data._Mylast - _My_data._Myfirst);

  003c3	8b b3 c8 01 00
	00		 mov	 esi, DWORD PTR [ebx+456]
  003c9	b8 e1 83 0f 3e	 mov	 eax, 1041204193		; 3e0f83e1H
  003ce	8b bb c4 01 00
	00		 mov	 edi, DWORD PTR [ebx+452]
  003d4	8b ce		 mov	 ecx, esi
  003d6	2b cf		 sub	 ecx, edi
; File E:\Proyectos\JuegosOnlineproyectos\PB\pbblow\Piercing Blow Remake\i3Server\src\i3Base\i3SMTPMail.cpp

; 252  : 	for( UINT32 i = 0 ; i < Attach.size() ; i++ ) {

  003d8	c7 85 f4 de ff
	ff 00 00 00 00	 mov	 DWORD PTR _i$1$[ebp], 0
; File D:\Program Files\Microsoft Visual Studio\18\Community\VC\Tools\MSVC\14.50.35717\include\vector

; 1915 :         return static_cast<size_type>(_My_data._Mylast - _My_data._Myfirst);

  003e2	f7 e9		 imul	 ecx
  003e4	c1 fa 06	 sar	 edx, 6
  003e7	8b c2		 mov	 eax, edx
  003e9	c1 e8 1f	 shr	 eax, 31			; 0000001fH
  003ec	03 c2		 add	 eax, edx
; File E:\Proyectos\JuegosOnlineproyectos\PB\pbblow\Piercing Blow Remake\i3Server\src\i3Base\i3SMTPMail.cpp

; 252  : 	for( UINT32 i = 0 ; i < Attach.size() ; i++ ) {

  003ee	0f 84 0b 01 00
	00		 je	 $LN6@Send

; 238  : 		char* psBodyHeader = "\r\n--#BOUNDARY#\r\nContent-Type: text/plain; charset=euc-kr\r\n\r\n";
; 239  : 		if (!SendSocketData( (char*)psBodyHeader))

  003f4	33 c9		 xor	 ecx, ecx
$LL7@Send:
; File D:\Program Files\Microsoft Visual Studio\18\Community\VC\Tools\MSVC\14.50.35717\include\vector

; 1949 :         if (static_cast<size_type>(_My_data._Mylast - _My_data._Myfirst) <= _Pos) {

  003f6	2b f7		 sub	 esi, edi
  003f8	b8 e1 83 0f 3e	 mov	 eax, 1041204193		; 3e0f83e1H
  003fd	f7 ee		 imul	 esi
  003ff	c1 fa 06	 sar	 edx, 6
  00402	8b c2		 mov	 eax, edx
  00404	c1 e8 1f	 shr	 eax, 31			; 0000001fH
  00407	03 c2		 add	 eax, edx
  00409	3b c1		 cmp	 eax, ecx
  0040b	0f 86 dc 01 00
	00		 jbe	 $LN125@Send

; 1953 :         return _My_data._Myfirst[_Pos];

  00411	69 c1 08 01 00
	00		 imul	 eax, ecx, 264
  00417	89 85 e8 de ff
	ff		 mov	 DWORD PTR tv702[ebp], eax
  0041d	03 c7		 add	 eax, edi
; File E:\Proyectos\JuegosOnlineproyectos\PB\pbblow\Piercing Blow Remake\i3Server\src\i3Base\i3SMTPMail.cpp

; 254  : 		sprintf(pszContent, "\r\n\r\n--#BOUNDARY#\r\nContent-Type: application/octet-stream; name=%s\r\nContent-Transfer-Encoding: base64\r\nContent-Disposition: attachment; filename=%s\r\n\r\n", 

  0041f	50		 push	 eax
  00420	50		 push	 eax
  00421	8d 85 f8 fe ff
	ff		 lea	 eax, DWORD PTR _pszContent$1[ebp]
  00427	68 00 00 00 00	 push	 OFFSET ??_C@_0JH@FHMCHHEK@?$AN?6?$AN?6?9?9?$CDBOUNDARY?$CD?$AN?6Content?9Type?3@
  0042c	50		 push	 eax
  0042d	e8 00 00 00 00	 call	 _sprintf

; 41   : 	if( send( hSocket, (char*)pcMsg, strlen( pcMsg ), NO_FLAGS ) == SOCKET_ERROR )	return	FALSE;

  00432	8d 8d f8 fe ff
	ff		 lea	 ecx, DWORD PTR _pszContent$1[ebp]

; 254  : 		sprintf(pszContent, "\r\n\r\n--#BOUNDARY#\r\nContent-Type: application/octet-stream; name=%s\r\nContent-Transfer-Encoding: base64\r\nContent-Disposition: attachment; filename=%s\r\n\r\n", 

  00438	83 c4 10	 add	 esp, 16			; 00000010H

; 41   : 	if( send( hSocket, (char*)pcMsg, strlen( pcMsg ), NO_FLAGS ) == SOCKET_ERROR )	return	FALSE;

  0043b	8d 51 01	 lea	 edx, DWORD PTR [ecx+1]
  0043e	8b ff		 npad	 2
$LL162@Send:
  00440	8a 01		 mov	 al, BYTE PTR [ecx]
  00442	41		 inc	 ecx
  00443	84 c0		 test	 al, al
  00445	75 f9		 jne	 SHORT $LL162@Send
  00447	6a 00		 push	 0
  00449	2b ca		 sub	 ecx, edx
  0044b	8d 85 f8 fe ff
	ff		 lea	 eax, DWORD PTR _pszContent$1[ebp]
  00451	51		 push	 ecx
  00452	50		 push	 eax
  00453	ff b3 b4 01 00
	00		 push	 DWORD PTR [ebx+436]
  00459	ff 15 00 00 00
	00		 call	 DWORD PTR __imp__send@16
  0045f	83 f8 ff	 cmp	 eax, -1
  00462	0f 84 48 01 00
	00		 je	 $ExitPart$202
; File D:\Program Files\Microsoft Visual Studio\18\Community\VC\Tools\MSVC\14.50.35717\include\vector

; 1949 :         if (static_cast<size_type>(_My_data._Mylast - _My_data._Myfirst) <= _Pos) {

  00468	8b 8b c8 01 00
	00		 mov	 ecx, DWORD PTR [ebx+456]
  0046e	b8 e1 83 0f 3e	 mov	 eax, 1041204193		; 3e0f83e1H
  00473	8b b3 c4 01 00
	00		 mov	 esi, DWORD PTR [ebx+452]
  00479	2b ce		 sub	 ecx, esi
  0047b	8b bd f4 de ff
	ff		 mov	 edi, DWORD PTR _i$1$[ebp]
  00481	f7 e9		 imul	 ecx
  00483	c1 fa 06	 sar	 edx, 6
  00486	8b c2		 mov	 eax, edx
  00488	c1 e8 1f	 shr	 eax, 31			; 0000001fH
  0048b	03 c2		 add	 eax, edx
  0048d	3b c7		 cmp	 eax, edi
  0048f	0f 86 58 01 00
	00		 jbe	 $LN125@Send
; File E:\Proyectos\JuegosOnlineproyectos\PB\pbblow\Piercing Blow Remake\i3Server\src\i3Base\i3SMTPMail.cpp

; 258  : 		if( !SendSocketData( (char*)Attach.at(i).m_pszEncoded ) )	goto ExitPart;

  00495	8b 95 e8 de ff
	ff		 mov	 edx, DWORD PTR tv702[ebp]
  0049b	8b 94 16 04 01
	00 00		 mov	 edx, DWORD PTR [esi+edx+260]

; 41   : 	if( send( hSocket, (char*)pcMsg, strlen( pcMsg ), NO_FLAGS ) == SOCKET_ERROR )	return	FALSE;

  004a2	8b ca		 mov	 ecx, edx
  004a4	8d 71 01	 lea	 esi, DWORD PTR [ecx+1]
$LL163@Send:
  004a7	8a 01		 mov	 al, BYTE PTR [ecx]
  004a9	41		 inc	 ecx
  004aa	84 c0		 test	 al, al
  004ac	75 f9		 jne	 SHORT $LL163@Send
  004ae	6a 00		 push	 0
  004b0	2b ce		 sub	 ecx, esi
  004b2	51		 push	 ecx
  004b3	52		 push	 edx
  004b4	ff b3 b4 01 00
	00		 push	 DWORD PTR [ebx+436]
  004ba	ff 15 00 00 00
	00		 call	 DWORD PTR __imp__send@16
  004c0	83 f8 ff	 cmp	 eax, -1
  004c3	0f 84 e7 00 00
	00		 je	 $ExitPart$202
; File D:\Program Files\Microsoft Visual Studio\18\Community\VC\Tools\MSVC\14.50.35717\include\vector

; 1915 :         return static_cast<size_type>(_My_data._Mylast - _My_data._Myfirst);

  004c9	8b b3 c8 01 00
	00		 mov	 esi, DWORD PTR [ebx+456]
; File E:\Proyectos\JuegosOnlineproyectos\PB\pbblow\Piercing Blow Remake\i3Server\src\i3Base\i3SMTPMail.cpp

; 252  : 	for( UINT32 i = 0 ; i < Attach.size() ; i++ ) {

  004cf	47		 inc	 edi
  004d0	89 bd f4 de ff
	ff		 mov	 DWORD PTR _i$1$[ebp], edi
; File D:\Program Files\Microsoft Visual Studio\18\Community\VC\Tools\MSVC\14.50.35717\include\vector

; 1915 :         return static_cast<size_type>(_My_data._Mylast - _My_data._Myfirst);

  004d6	8b ce		 mov	 ecx, esi
  004d8	8b bb c4 01 00
	00		 mov	 edi, DWORD PTR [ebx+452]
  004de	b8 e1 83 0f 3e	 mov	 eax, 1041204193		; 3e0f83e1H
  004e3	2b cf		 sub	 ecx, edi
  004e5	f7 e9		 imul	 ecx
; File E:\Proyectos\JuegosOnlineproyectos\PB\pbblow\Piercing Blow Remake\i3Server\src\i3Base\i3SMTPMail.cpp

; 252  : 	for( UINT32 i = 0 ; i < Attach.size() ; i++ ) {

  004e7	8b 8d f4 de ff
	ff		 mov	 ecx, DWORD PTR _i$1$[ebp]
; File D:\Program Files\Microsoft Visual Studio\18\Community\VC\Tools\MSVC\14.50.35717\include\vector

; 1915 :         return static_cast<size_type>(_My_data._Mylast - _My_data._Myfirst);

  004ed	c1 fa 06	 sar	 edx, 6
  004f0	8b c2		 mov	 eax, edx
  004f2	c1 e8 1f	 shr	 eax, 31			; 0000001fH
  004f5	03 c2		 add	 eax, edx
; File E:\Proyectos\JuegosOnlineproyectos\PB\pbblow\Piercing Blow Remake\i3Server\src\i3Base\i3SMTPMail.cpp

; 252  : 	for( UINT32 i = 0 ; i < Attach.size() ; i++ ) {

  004f7	3b c8		 cmp	 ecx, eax
  004f9	0f 82 f7 fe ff
	ff		 jb	 $LL7@Send
$LN6@Send:
; File D:\Program Files\Microsoft Visual Studio\18\Community\VC\Tools\MSVC\14.50.35717\include\vector

; 1915 :         return static_cast<size_type>(_My_data._Mylast - _My_data._Myfirst);

  004ff	2b f7		 sub	 esi, edi
  00501	b8 e1 83 0f 3e	 mov	 eax, 1041204193		; 3e0f83e1H
  00506	f7 ee		 imul	 esi
  00508	c1 fa 06	 sar	 edx, 6
  0050b	8b c2		 mov	 eax, edx
  0050d	c1 e8 1f	 shr	 eax, 31			; 0000001fH
  00510	03 c2		 add	 eax, edx
; File E:\Proyectos\JuegosOnlineproyectos\PB\pbblow\Piercing Blow Remake\i3Server\src\i3Base\i3SMTPMail.cpp

; 261  : 	for( UINT32 i = 0 ; i < Attach.size() ; i++ ) {

  00512	74 42		 je	 SHORT $LN153@Send
  00514	33 f6		 xor	 esi, esi
$LL10@Send:

; 41   : 	if( send( hSocket, (char*)pcMsg, strlen( pcMsg ), NO_FLAGS ) == SOCKET_ERROR )	return	FALSE;

  00516	6a 00		 push	 0
  00518	6a 10		 push	 16			; 00000010H
  0051a	68 00 00 00 00	 push	 OFFSET ??_C@_0BB@JJKPBMJJ@?$AN?6?9?9?$CDBOUNDARY?$CD?9?9@
  0051f	ff b3 b4 01 00
	00		 push	 DWORD PTR [ebx+436]
  00525	ff 15 00 00 00
	00		 call	 DWORD PTR __imp__send@16
  0052b	83 f8 ff	 cmp	 eax, -1
  0052e	0f 84 7c 00 00
	00		 je	 $ExitPart$202
; File D:\Program Files\Microsoft Visual Studio\18\Community\VC\Tools\MSVC\14.50.35717\include\vector

; 1915 :         return static_cast<size_type>(_My_data._Mylast - _My_data._Myfirst);

  00534	8b 8b c8 01 00
	00		 mov	 ecx, DWORD PTR [ebx+456]
  0053a	b8 e1 83 0f 3e	 mov	 eax, 1041204193		; 3e0f83e1H
  0053f	2b 8b c4 01 00
	00		 sub	 ecx, DWORD PTR [ebx+452]
; File E:\Proyectos\JuegosOnlineproyectos\PB\pbblow\Piercing Blow Remake\i3Server\src\i3Base\i3SMTPMail.cpp

; 261  : 	for( UINT32 i = 0 ; i < Attach.size() ; i++ ) {

  00545	46		 inc	 esi
; File D:\Program Files\Microsoft Visual Studio\18\Community\VC\Tools\MSVC\14.50.35717\include\vector

; 1915 :         return static_cast<size_type>(_My_data._Mylast - _My_data._Myfirst);

  00546	f7 e9		 imul	 ecx
  00548	c1 fa 06	 sar	 edx, 6
  0054b	8b c2		 mov	 eax, edx
  0054d	c1 e8 1f	 shr	 eax, 31			; 0000001fH
  00550	03 c2		 add	 eax, edx
; File E:\Proyectos\JuegosOnlineproyectos\PB\pbblow\Piercing Blow Remake\i3Server\src\i3Base\i3SMTPMail.cpp

; 261  : 	for( UINT32 i = 0 ; i < Attach.size() ; i++ ) {

  00552	3b f0		 cmp	 esi, eax
  00554	72 c0		 jb	 SHORT $LL10@Send
$LN153@Send:

; 41   : 	if( send( hSocket, (char*)pcMsg, strlen( pcMsg ), NO_FLAGS ) == SOCKET_ERROR )	return	FALSE;

  00556	6a 00		 push	 0
  00558	6a 05		 push	 5
  0055a	68 00 00 00 00	 push	 OFFSET ??_C@_05KMJPGPH@?$AN?6?4?$AN?6@
  0055f	ff b3 b4 01 00
	00		 push	 DWORD PTR [ebx+436]
  00565	ff 15 00 00 00
	00		 call	 DWORD PTR __imp__send@16
  0056b	83 f8 ff	 cmp	 eax, -1
  0056e	74 40		 je	 SHORT $ExitPart$202

; 262  : 		if( !SendSocketData( (char*)"\r\n--#BOUNDARY#--" ) )		goto ExitPart;
; 263  : 	}
; 264  : 	// Ă·şÎĆÄŔĎ
; 265  : 
; 266  : 	// ş»ą® ł»żë Áľ·á
; 267  : 	if( !SendSocketData( (char*)"\r\n.\r\n" ) )						goto ExitPart;
; 268  : 	// ş»ą® ł»żë Áľ·á
; 269  : 
; 270  : 	iLength		= recv( hSocket, 

  00570	8b b5 f0 de ff
	ff		 mov	 esi, DWORD PTR _iEnd$1$[ebp]
  00576	b8 00 10 00 00	 mov	 eax, 4096		; 00001000H
  0057b	6a 00		 push	 0
  0057d	2b c6		 sub	 eax, esi
  0057f	50		 push	 eax
  00580	8d 85 f8 de ff
	ff		 lea	 eax, DWORD PTR _sReceiveBuffer$[ebp]
  00586	03 c6		 add	 eax, esi
  00588	50		 push	 eax
  00589	ff b3 b4 01 00
	00		 push	 DWORD PTR [ebx+436]
  0058f	ff 15 00 00 00
	00		 call	 DWORD PTR __imp__recv@16

; 271  : 						(LPSTR)sReceiveBuffer + iEnd,
; 272  : 						sizeof( sReceiveBuffer ) - iEnd, 
; 273  : 						NO_FLAGS );
; 274  :     iEnd		+= iLength;

  00595	03 c6		 add	 eax, esi

; 275  : 
; 276  :     sReceiveBuffer[iEnd] = '\0';

  00597	3d 00 10 00 00	 cmp	 eax, 4096		; 00001000H
  0059c	73 54		 jae	 SHORT $LN35@Send
  0059e	c6 84 05 f8 de
	ff ff 00	 mov	 BYTE PTR _sReceiveBuffer$[ebp+eax], 0

; 277  : 
; 278  : 	bResult = TRUE;

  005a6	c7 85 ec de ff
	ff 01 00 00 00	 mov	 DWORD PTR _bResult$1$[ebp], 1
$ExitPart$202:

; 279  : 
