; Listing generated by Microsoft (R) Optimizing Compiler Version 19.50.35727.0 

	TITLE	E:\Proyectos\JuegosOnlineproyectos\PB\pbblow\Piercing Blow Remake\i3Server\Project\I3_DX\i3Server\x86\Release\i3String.obj
	.686P
	.XMM
	include listing.inc
	.model	flat

INCLUDELIB LIBCMT
INCLUDELIB OLDNAMES

PUBLIC	?THAI_CLASS_TABLE@@3PAW4THAI_CLASS@@A		; THAI_CLASS_TABLE
PUBLIC	?THAI_INPUT_COMPOSIBLE@@3PAY04HA		; THAI_INPUT_COMPOSIBLE
PUBLIC	?THAI_INPUT_STATE_CHECK@@3PAY0BB@W4THAI_INPUT_TYPE@@A ; THAI_INPUT_STATE_CHECK
PUBLIC	?THAI_OUTPUT_STATE_CHECK@@3PAY0BB@W4THAI_OUTPUT_TYPE@@A ; THAI_OUTPUT_STATE_CHECK
PUBLIC	__Avx2WmemEnabledWeakValue
;	COMDAT __Avx2WmemEnabledWeakValue
_BSS	SEGMENT
__Avx2WmemEnabledWeakValue DD 01H DUP (?)
_BSS	ENDS
_DATA	SEGMENT
?THAI_CLASS_TABLE@@3PAW4THAI_CLASS@@A DD 00H		; THAI_CLASS_TABLE
	DD	00H
	DD	00H
	DD	00H
	DD	00H
	DD	00H
	DD	00H
	DD	00H
	DD	00H
	DD	00H
	DD	00H
	DD	00H
	DD	00H
	DD	00H
	DD	00H
	DD	00H
	DD	00H
	DD	00H
	DD	00H
	DD	00H
	DD	00H
	DD	00H
	DD	00H
	DD	00H
	DD	00H
	DD	00H
	DD	00H
	DD	00H
	DD	00H
	DD	00H
	DD	00H
	DD	00H
	DD	01H
	DD	01H
	DD	01H
	DD	01H
	DD	01H
	DD	01H
	DD	01H
	DD	01H
	DD	01H
	DD	01H
	DD	01H
	DD	01H
	DD	01H
	DD	01H
	DD	01H
	DD	01H
	DD	01H
	DD	01H
	DD	01H
	DD	01H
	DD	01H
	DD	01H
	DD	01H
	DD	01H
	DD	01H
	DD	01H
	DD	01H
	DD	01H
	DD	01H
	DD	01H
	DD	01H
	DD	01H
	DD	01H
	DD	01H
	DD	01H
	DD	01H
	DD	01H
	DD	01H
	DD	01H
	DD	01H
	DD	01H
	DD	01H
	DD	01H
	DD	01H
	DD	01H
	DD	01H
	DD	01H
	DD	01H
	DD	01H
	DD	01H
	DD	01H
	DD	01H
	DD	01H
	DD	01H
	DD	01H
	DD	01H
	DD	01H
	DD	01H
	DD	01H
	DD	01H
	DD	01H
	DD	01H
	DD	01H
	DD	01H
	DD	01H
	DD	01H
	DD	01H
	DD	01H
	DD	01H
	DD	01H
	DD	01H
	DD	01H
	DD	01H
	DD	01H
	DD	01H
	DD	01H
	DD	01H
	DD	01H
	DD	01H
	DD	01H
	DD	01H
	DD	01H
	DD	01H
	DD	01H
	DD	01H
	DD	01H
	DD	01H
	DD	01H
	DD	01H
	DD	01H
	DD	01H
	DD	01H
	DD	01H
	DD	01H
	DD	01H
	DD	00H
	DD	00H
	DD	00H
	DD	00H
	DD	00H
	DD	00H
	DD	00H
	DD	00H
	DD	00H
	DD	00H
	DD	00H
	DD	00H
	DD	00H
	DD	00H
	DD	00H
	DD	00H
	DD	00H
	DD	00H
	DD	00H
	DD	00H
	DD	00H
	DD	00H
	DD	00H
	DD	00H
	DD	00H
	DD	00H
	DD	00H
	DD	00H
	DD	00H
	DD	00H
	DD	00H
	DD	00H
	DD	00H
	DD	01H
	DD	02H
	DD	02H
	DD	02H
	DD	02H
	DD	02H
	DD	02H
	DD	02H
	DD	02H
	DD	02H
	DD	02H
	DD	02H
	DD	02H
	DD	02H
	DD	02H
	DD	02H
	DD	02H
	DD	02H
	DD	02H
	DD	02H
	DD	02H
	DD	02H
	DD	02H
	DD	02H
	DD	02H
	DD	02H
	DD	02H
	DD	02H
	DD	02H
	DD	02H
	DD	02H
	DD	02H
	DD	02H
	DD	02H
	DD	02H
	DD	02H
	DD	06H
	DD	02H
	DD	06H
	DD	02H
	DD	02H
	DD	02H
	DD	02H
	DD	02H
	DD	02H
	DD	02H
	DD	02H
	DD	01H
	DD	04H
	DD	0fH
	DD	04H
	DD	04H
	DD	0eH
	DD	010H
	DD	0fH
	DD	010H
	DD	07H
	DD	08H
	DD	09H
	DD	01H
	DD	01H
	DD	01H
	DD	01H
	DD	01H
	DD	03H
	DD	03H
	DD	03H
	DD	03H
	DD	03H
	DD	05H
	DD	01H
	DD	0cH
	DD	0aH
	DD	0aH
	DD	0aH
	DD	0aH
	DD	0bH
	DD	0bH
	DD	0dH
	DD	01H
	DD	01H
	DD	01H
	DD	01H
	DD	01H
	DD	01H
	DD	01H
	DD	01H
	DD	01H
	DD	01H
	DD	01H
	DD	01H
	DD	01H
	DD	01H
	DD	01H
	DD	01H
	DD	00H
?THAI_INPUT_COMPOSIBLE@@3PAY04HA DD 01H			; THAI_INPUT_COMPOSIBLE
	DD	01H
	DD	01H
	DD	01H
	DD	01H
	DD	01H
	DD	01H
	DD	01H
	DD	00H
	DD	01H
	DD	01H
	DD	01H
	DD	00H
	DD	00H
	DD	01H
	ORG $+4
?THAI_INPUT_STATE_CHECK@@3PAY0BB@W4THAI_INPUT_TYPE@@A DD 04H ; THAI_INPUT_STATE_CHECK
	DD	00H
	DD	00H
	DD	00H
	DD	03H
	DD	03H
	DD	03H
	DD	03H
	DD	03H
	DD	03H
	DD	03H
	DD	03H
	DD	03H
	DD	03H
	DD	03H
	DD	03H
	DD	03H
	DD	04H
	DD	00H
	DD	00H
	DD	00H
	DD	03H
	DD	03H
	DD	03H
	DD	03H
	DD	03H
	DD	03H
	DD	03H
	DD	03H
	DD	03H
	DD	03H
	DD	03H
	DD	03H
	DD	03H
	DD	04H
	DD	00H
	DD	00H
	DD	00H
	DD	00H
	DD	02H
	DD	00H
	DD	01H
	DD	01H
	DD	01H
	DD	01H
	DD	01H
	DD	01H
	DD	01H
	DD	01H
	DD	01H
	DD	01H
	DD	04H
	DD	02H
	DD	00H
	DD	02H
	DD	02H
	DD	02H
	DD	02H
	DD	03H
	DD	03H
	DD	03H
	DD	03H
	DD	03H
	DD	03H
	DD	03H
	DD	03H
	DD	03H
	DD	03H
	DD	04H
	DD	02H
	DD	00H
	DD	02H
	DD	00H
	DD	02H
	DD	00H
	DD	03H
	DD	03H
	DD	03H
	DD	03H
	DD	03H
	DD	03H
	DD	03H
	DD	03H
	DD	03H
	DD	03H
	DD	04H
	DD	00H
	DD	00H
	DD	00H
	DD	00H
	DD	02H
	DD	00H
	DD	03H
	DD	03H
	DD	03H
	DD	03H
	DD	03H
	DD	03H
	DD	03H
	DD	03H
	DD	03H
	DD	03H
	DD	04H
	DD	00H
	DD	00H
	DD	00H
	DD	02H
	DD	00H
	DD	02H
	DD	03H
	DD	03H
	DD	03H
	DD	03H
	DD	03H
	DD	03H
	DD	03H
	DD	03H
	DD	03H
	DD	03H
	DD	04H
	DD	00H
	DD	00H
	DD	00H
	DD	00H
	DD	02H
	DD	00H
	DD	03H
	DD	03H
	DD	03H
	DD	01H
	DD	01H
	DD	03H
	DD	03H
	DD	03H
	DD	03H
	DD	03H
	DD	04H
	DD	00H
	DD	00H
	DD	00H
	DD	02H
	DD	02H
	DD	00H
	DD	03H
	DD	03H
	DD	03H
	DD	01H
	DD	03H
	DD	03H
	DD	03H
	DD	03H
	DD	03H
	DD	03H
	DD	04H
	DD	00H
	DD	00H
	DD	00H
	DD	02H
	DD	02H
	DD	00H
	DD	03H
	DD	03H
	DD	03H
	DD	03H
	DD	03H
	DD	03H
	DD	03H
	DD	03H
	DD	03H
	DD	03H
	DD	04H
	DD	00H
	DD	00H
	DD	00H
	DD	00H
	DD	00H
	DD	00H
	DD	03H
	DD	03H
	DD	03H
	DD	03H
	DD	03H
	DD	03H
	DD	03H
	DD	03H
	DD	03H
	DD	03H
	DD	04H
	DD	00H
	DD	00H
	DD	00H
	DD	02H
	DD	02H
	DD	00H
	DD	03H
	DD	03H
	DD	03H
	DD	03H
	DD	03H
	DD	03H
	DD	03H
	DD	03H
	DD	03H
	DD	03H
	DD	04H
	DD	00H
	DD	00H
	DD	00H
	DD	02H
	DD	02H
	DD	00H
	DD	03H
	DD	03H
	DD	03H
	DD	03H
	DD	03H
	DD	03H
	DD	03H
	DD	03H
	DD	03H
	DD	03H
	DD	04H
	DD	00H
	DD	00H
	DD	00H
	DD	02H
	DD	02H
	DD	00H
	DD	03H
	DD	03H
	DD	03H
	DD	03H
	DD	03H
	DD	03H
	DD	03H
	DD	03H
	DD	03H
	DD	03H
	DD	04H
	DD	00H
	DD	00H
	DD	00H
	DD	02H
	DD	02H
	DD	00H
	DD	03H
	DD	03H
	DD	03H
	DD	01H
	DD	01H
	DD	03H
	DD	03H
	DD	03H
	DD	03H
	DD	03H
	DD	04H
	DD	00H
	DD	00H
	DD	00H
	DD	02H
	DD	02H
	DD	00H
	DD	03H
	DD	03H
	DD	03H
	DD	01H
	DD	03H
	DD	03H
	DD	03H
	DD	03H
	DD	03H
	DD	03H
	DD	04H
	DD	00H
	DD	00H
	DD	00H
	DD	02H
	DD	02H
	DD	00H
	DD	03H
	DD	03H
	DD	03H
	DD	01H
	DD	03H
	DD	01H
	DD	03H
	DD	03H
	DD	03H
	DD	03H
	ORG $+4
?THAI_OUTPUT_STATE_CHECK@@3PAY0BB@W4THAI_OUTPUT_TYPE@@A DD 02H ; THAI_OUTPUT_STATE_CHECK
	DD	00H
	DD	00H
	DD	00H
	DD	00H
	DD	00H
	DD	00H
	DD	00H
	DD	00H
	DD	00H
	DD	00H
	DD	00H
	DD	00H
	DD	00H
	DD	00H
	DD	00H
	DD	00H
	DD	02H
	DD	00H
	DD	00H
	DD	00H
	DD	00H
	DD	00H
	DD	00H
	DD	00H
	DD	00H
	DD	00H
	DD	00H
	DD	00H
	DD	00H
	DD	00H
	DD	00H
	DD	00H
	DD	00H
	DD	02H
	DD	00H
	DD	00H
	DD	00H
	DD	01H
	DD	01H
	DD	01H
	DD	01H
	DD	01H
	DD	01H
	DD	01H
	DD	01H
	DD	01H
	DD	01H
	DD	01H
	DD	01H
	DD	01H
	DD	02H
	DD	00H
	DD	00H
	DD	00H
	DD	00H
	DD	00H
	DD	00H
	DD	00H
	DD	00H
	DD	00H
	DD	00H
	DD	00H
	DD	00H
	DD	00H
	DD	00H
	DD	00H
	DD	00H
	DD	02H
	DD	00H
	DD	00H
	DD	00H
	DD	00H
	DD	00H
	DD	00H
	DD	00H
	DD	00H
	DD	00H
	DD	00H
	DD	00H
	DD	00H
	DD	00H
	DD	00H
	DD	00H
	DD	00H
	DD	02H
	DD	00H
	DD	00H
	DD	00H
	DD	00H
	DD	00H
	DD	00H
	DD	00H
	DD	00H
	DD	00H
	DD	00H
	DD	00H
	DD	00H
	DD	00H
	DD	00H
	DD	00H
	DD	00H
	DD	02H
	DD	00H
	DD	00H
	DD	00H
	DD	00H
	DD	00H
	DD	00H
	DD	00H
	DD	00H
	DD	00H
	DD	00H
	DD	00H
	DD	00H
	DD	00H
	DD	00H
	DD	00H
	DD	00H
	DD	02H
	DD	00H
	DD	00H
	DD	00H
	DD	00H
	DD	00H
	DD	00H
	DD	00H
	DD	00H
	DD	00H
	DD	01H
	DD	01H
	DD	00H
	DD	00H
	DD	00H
	DD	00H
	DD	00H
	DD	02H
	DD	00H
	DD	00H
	DD	00H
	DD	00H
	DD	00H
	DD	00H
	DD	00H
	DD	00H
	DD	00H
	DD	01H
	DD	00H
	DD	00H
	DD	00H
	DD	00H
	DD	00H
	DD	00H
	DD	02H
	DD	00H
	DD	00H
	DD	00H
	DD	00H
	DD	00H
	DD	00H
	DD	00H
	DD	00H
	DD	00H
	DD	00H
	DD	00H
	DD	00H
	DD	00H
	DD	00H
	DD	00H
	DD	00H
	DD	02H
	DD	00H
	DD	00H
	DD	00H
	DD	00H
	DD	00H
	DD	00H
	DD	00H
	DD	00H
	DD	00H
	DD	00H
	DD	00H
	DD	00H
	DD	00H
	DD	00H
	DD	00H
	DD	00H
	DD	02H
	DD	00H
	DD	00H
	DD	00H
	DD	00H
	DD	00H
	DD	00H
	DD	00H
	DD	00H
	DD	00H
	DD	00H
	DD	00H
	DD	00H
	DD	00H
	DD	00H
	DD	00H
	DD	00H
	DD	02H
	DD	00H
	DD	00H
	DD	00H
	DD	00H
	DD	00H
	DD	00H
	DD	00H
	DD	00H
	DD	00H
	DD	00H
	DD	00H
	DD	00H
	DD	00H
	DD	00H
	DD	00H
	DD	00H
	DD	02H
	DD	00H
	DD	00H
	DD	00H
	DD	00H
	DD	00H
	DD	00H
	DD	00H
	DD	00H
	DD	00H
	DD	00H
	DD	00H
	DD	00H
	DD	00H
	DD	00H
	DD	00H
	DD	00H
	DD	02H
	DD	00H
	DD	00H
	DD	00H
	DD	00H
	DD	00H
	DD	00H
	DD	00H
	DD	00H
	DD	00H
	DD	01H
	DD	01H
	DD	00H
	DD	00H
	DD	00H
	DD	00H
	DD	00H
	DD	02H
	DD	00H
	DD	00H
	DD	00H
	DD	00H
	DD	00H
	DD	00H
	DD	00H
	DD	00H
	DD	00H
	DD	01H
	DD	00H
	DD	00H
	DD	00H
	DD	00H
	DD	00H
	DD	00H
	DD	02H
	DD	00H
	DD	00H
	DD	00H
	DD	00H
	DD	00H
	DD	00H
	DD	00H
	DD	00H
	DD	00H
	DD	01H
	DD	00H
	DD	01H
	DD	00H
	DD	00H
	DD	00H
	DD	00H
_DATA	ENDS
PUBLIC	?__empty_global_delete@@YAXPAX@Z		; __empty_global_delete
PUBLIC	?__global_delete@@YAXPAX@Z			; __global_delete
PUBLIC	?__empty_global_delete@@YAXPAXI@Z		; __empty_global_delete
PUBLIC	?__global_delete@@YAXPAXI@Z			; __global_delete
PUBLIC	?__global_array_delete@@YAXPAX@Z		; __global_array_delete
PUBLIC	?__global_array_delete@@YAXPAXI@Z		; __global_array_delete
PUBLIC	___local_stdio_printf_options
PUBLIC	__swprintf
PUBLIC	_sprintf
PUBLIC	?GetMemoryPool@i3ClassMeta@@QAEPAVi3MemoryPool@@XZ ; i3ClassMeta::GetMemoryPool
PUBLIC	?SetMemoryPool@i3ClassMeta@@QAEXPAVi3MemoryPool@@@Z ; i3ClassMeta::SetMemoryPool
PUBLIC	?GetClassSize@i3ClassMeta@@QAEIXZ		; i3ClassMeta::GetClassSize
PUBLIC	?GetClassNameA@i3ClassMeta@@QAEPADXZ		; i3ClassMeta::GetClassNameA
PUBLIC	?IsExactTypeOf@i3ClassMeta@@QAE_NPAV1@@Z	; i3ClassMeta::IsExactTypeOf
PUBLIC	?SetStyle@i3ClassMeta@@QAEXI@Z			; i3ClassMeta::SetStyle
PUBLIC	?GetStyle@i3ClassMeta@@QAEIXZ			; i3ClassMeta::GetStyle
PUBLIC	?AddStyle@i3ClassMeta@@QAEXI@Z			; i3ClassMeta::AddStyle
PUBLIC	?RemoveStyle@i3ClassMeta@@QAEXI@Z		; i3ClassMeta::RemoveStyle
PUBLIC	?IsStyle@i3ClassMeta@@QAEHI@Z			; i3ClassMeta::IsStyle
PUBLIC	?IsAbstractClass@i3ClassMeta@@QAEHXZ		; i3ClassMeta::IsAbstractClass
PUBLIC	?IsConcreteClass@i3ClassMeta@@QAEHXZ		; i3ClassMeta::IsConcreteClass
PUBLIC	?GetBaseClassMeta@i3ClassMeta@@QAEPAV1@XZ	; i3ClassMeta::GetBaseClassMeta
PUBLIC	?getHashCode@i3ClassMeta@@QAEIXZ		; i3ClassMeta::getHashCode
PUBLIC	??0i3ClassMeta@@QAE@ABV0@@Z			; i3ClassMeta::i3ClassMeta
PUBLIC	??4i3ClassMeta@@QAEAAV0@ABV0@@Z			; i3ClassMeta::operator=
PUBLIC	??_Gi3ClassMeta@@UAEPAXI@Z			; i3ClassMeta::`scalar deleting destructor'
PUBLIC	??_Ei3ClassMeta@@UAEPAXI@Z			; i3ClassMeta::`vector deleting destructor'
PUBLIC	?GetClassMeta@i3ElementBase@@SAPAVi3ClassMeta@@XZ ; i3ElementBase::GetClassMeta
PUBLIC	?GetRefCount@i3ElementBase@@QAEHXZ		; i3ElementBase::GetRefCount
PUBLIC	?__SetMemoryPool@i3ElementBase@@QAEXPAVi3MemoryPool@@@Z ; i3ElementBase::__SetMemoryPool
PUBLIC	?__GetMemoryPool@i3ElementBase@@QAEPAVi3MemoryPool@@XZ ; i3ElementBase::__GetMemoryPool
PUBLIC	?IsExactTypeOf@i3ElementBase@@QAE_NPAVi3ClassMeta@@@Z ; i3ElementBase::IsExactTypeOf
PUBLIC	?IsTypeOf@i3ElementBase@@QAE_NPAVi3ClassMeta@@@Z ; i3ElementBase::IsTypeOf
PUBLIC	?AddRef@i3ElementBase@@QAEHXZ			; i3ElementBase::AddRef
PUBLIC	?_internal_SetRefCount@i3ElementBase@@QAEXH@Z	; i3ElementBase::_internal_SetRefCount
PUBLIC	??0i3ElementBase@@QAE@ABV0@@Z			; i3ElementBase::i3ElementBase
PUBLIC	??4i3ElementBase@@QAEAAV0@ABV0@@Z		; i3ElementBase::operator=
PUBLIC	??_Gi3ElementBase@@UAEPAXI@Z			; i3ElementBase::`scalar deleting destructor'
PUBLIC	??_Ei3ElementBase@@UAEPAXI@Z			; i3ElementBase::`vector deleting destructor'
PUBLIC	??0i3MemoryPool@@QAE@ABV0@@Z			; i3MemoryPool::i3MemoryPool
PUBLIC	??4i3MemoryPool@@QAEAAV0@ABV0@@Z		; i3MemoryPool::operator=
PUBLIC	??_Gi3MemoryPool@@UAEPAXI@Z			; i3MemoryPool::`scalar deleting destructor'
PUBLIC	??_Ei3MemoryPool@@UAEPAXI@Z			; i3MemoryPool::`vector deleting destructor'
PUBLIC	?GetClassMeta@i3Stream@@SAPAVi3ClassMeta@@XZ	; i3Stream::GetClassMeta
PUBLIC	?GetSize@i3Stream@@QAEIXZ			; i3Stream::GetSize
PUBLIC	?GetLastError@i3Stream@@QAE?AW4STREAMCODE@1@XZ	; i3Stream::GetLastError
PUBLIC	?GetAccessMode@i3Stream@@QAEHXZ			; i3Stream::GetAccessMode
PUBLIC	?GetHandle@i3Stream@@UAEPAXXZ			; i3Stream::GetHandle
PUBLIC	?BeginRecord@i3Stream@@QAEXXZ			; i3Stream::BeginRecord
PUBLIC	?GetRecordSize@i3Stream@@QAEIXZ			; i3Stream::GetRecordSize
PUBLIC	??0i3Stream@@QAE@ABV0@@Z			; i3Stream::i3Stream
PUBLIC	??4i3Stream@@QAEAAV0@ABV0@@Z			; i3Stream::operator=
PUBLIC	??_Gi3Stream@@UAEPAXI@Z				; i3Stream::`scalar deleting destructor'
PUBLIC	??_Ei3Stream@@UAEPAXI@Z				; i3Stream::`vector deleting destructor'
PUBLIC	?GetClassMeta@i3FileStream@@SAPAVi3ClassMeta@@XZ ; i3FileStream::GetClassMeta
PUBLIC	?GetHandle@i3FileStream@@UAEPAXXZ		; i3FileStream::GetHandle
PUBLIC	?GetFileName@i3FileStream@@QAEPADXZ		; i3FileStream::GetFileName
PUBLIC	?SetCaseSensitive@i3FileStream@@SAXH@Z		; i3FileStream::SetCaseSensitive
PUBLIC	?IsCaseSensitive@i3FileStream@@SAHXZ		; i3FileStream::IsCaseSensitive
PUBLIC	??0i3FileStream@@QAE@ABV0@@Z			; i3FileStream::i3FileStream
PUBLIC	??4i3FileStream@@QAEAAV0@ABV0@@Z		; i3FileStream::operator=
PUBLIC	??_Gi3FileStream@@UAEPAXI@Z			; i3FileStream::`scalar deleting destructor'
PUBLIC	??_Ei3FileStream@@UAEPAXI@Z			; i3FileStream::`vector deleting destructor'
PUBLIC	??0TiXmlString@@QAE@XZ				; TiXmlString::TiXmlString
PUBLIC	??0TiXmlString@@QAE@ABV0@@Z			; TiXmlString::TiXmlString
PUBLIC	??0TiXmlString@@QAE@PBD@Z			; TiXmlString::TiXmlString
PUBLIC	??0TiXmlString@@QAE@PBDI@Z			; TiXmlString::TiXmlString
PUBLIC	??1TiXmlString@@QAE@XZ				; TiXmlString::~TiXmlString
PUBLIC	??4TiXmlString@@QAEAAV0@PBD@Z			; TiXmlString::operator=
PUBLIC	??4TiXmlString@@QAEAAV0@ABV0@@Z			; TiXmlString::operator=
PUBLIC	??YTiXmlString@@QAEAAV0@PBD@Z			; TiXmlString::operator+=
PUBLIC	??YTiXmlString@@QAEAAV0@D@Z			; TiXmlString::operator+=
PUBLIC	??YTiXmlString@@QAEAAV0@ABV0@@Z			; TiXmlString::operator+=
PUBLIC	?c_str@TiXmlString@@QBEPBDXZ			; TiXmlString::c_str
PUBLIC	?data@TiXmlString@@QBEPBDXZ			; TiXmlString::data
PUBLIC	?length@TiXmlString@@QBEIXZ			; TiXmlString::length
PUBLIC	?size@TiXmlString@@QBEIXZ			; TiXmlString::size
PUBLIC	?empty@TiXmlString@@QBE_NXZ			; TiXmlString::empty
PUBLIC	?capacity@TiXmlString@@QBEIXZ			; TiXmlString::capacity
PUBLIC	?at@TiXmlString@@QBEABDI@Z			; TiXmlString::at
PUBLIC	??ATiXmlString@@QBEAADI@Z			; TiXmlString::operator[]
PUBLIC	?find@TiXmlString@@QBEID@Z			; TiXmlString::find
PUBLIC	?find@TiXmlString@@QBEIDI@Z			; TiXmlString::find
PUBLIC	?clear@TiXmlString@@QAEXXZ			; TiXmlString::clear
PUBLIC	?swap@TiXmlString@@QAEXAAV1@@Z			; TiXmlString::swap
PUBLIC	?init@TiXmlString@@AAEXI@Z			; TiXmlString::init
PUBLIC	?set_size@TiXmlString@@AAEXI@Z			; TiXmlString::set_size
PUBLIC	?start@TiXmlString@@ABEPADXZ			; TiXmlString::start
PUBLIC	?finish@TiXmlString@@ABEPADXZ			; TiXmlString::finish
PUBLIC	?init@TiXmlString@@AAEXII@Z			; TiXmlString::init
PUBLIC	?quit@TiXmlString@@AAEXXZ			; TiXmlString::quit
PUBLIC	??0TiXmlCursor@@QAE@XZ				; TiXmlCursor::TiXmlCursor
PUBLIC	?Clear@TiXmlCursor@@QAEXXZ			; TiXmlCursor::Clear
PUBLIC	??4TiXmlCursor@@QAEAAU0@ABU0@@Z			; TiXmlCursor::operator=
PUBLIC	??4TiXmlCursor@@QAEAAU0@$$QAU0@@Z		; TiXmlCursor::operator=
PUBLIC	??1TiXmlVisitor@@UAE@XZ				; TiXmlVisitor::~TiXmlVisitor
PUBLIC	?VisitEnter@TiXmlVisitor@@UAE_NABVTiXmlDocument@@@Z ; TiXmlVisitor::VisitEnter
PUBLIC	?VisitExit@TiXmlVisitor@@UAE_NABVTiXmlDocument@@@Z ; TiXmlVisitor::VisitExit
PUBLIC	?VisitEnter@TiXmlVisitor@@UAE_NABVTiXmlElement@@PBVTiXmlAttribute@@@Z ; TiXmlVisitor::VisitEnter
PUBLIC	?VisitExit@TiXmlVisitor@@UAE_NABVTiXmlElement@@@Z ; TiXmlVisitor::VisitExit
PUBLIC	?Visit@TiXmlVisitor@@UAE_NABVTiXmlDeclaration@@@Z ; TiXmlVisitor::Visit
PUBLIC	?Visit@TiXmlVisitor@@UAE_NABVTiXmlText@@@Z	; TiXmlVisitor::Visit
PUBLIC	?Visit@TiXmlVisitor@@UAE_NABVTiXmlComment@@@Z	; TiXmlVisitor::Visit
PUBLIC	?Visit@TiXmlVisitor@@UAE_NABVTiXmlUnknown@@@Z	; TiXmlVisitor::Visit
PUBLIC	??0TiXmlVisitor@@QAE@XZ				; TiXmlVisitor::TiXmlVisitor
PUBLIC	??0TiXmlVisitor@@QAE@ABV0@@Z			; TiXmlVisitor::TiXmlVisitor
PUBLIC	??4TiXmlVisitor@@QAEAAV0@ABV0@@Z		; TiXmlVisitor::operator=
PUBLIC	??_GTiXmlVisitor@@UAEPAXI@Z			; TiXmlVisitor::`scalar deleting destructor'
PUBLIC	??_ETiXmlVisitor@@UAEPAXI@Z			; TiXmlVisitor::`vector deleting destructor'
PUBLIC	??0TiXmlBase@@QAE@XZ				; TiXmlBase::TiXmlBase
PUBLIC	??1TiXmlBase@@UAE@XZ				; TiXmlBase::~TiXmlBase
PUBLIC	?SetCondenseWhiteSpace@TiXmlBase@@SAX_N@Z	; TiXmlBase::SetCondenseWhiteSpace
PUBLIC	?IsWhiteSpaceCondensed@TiXmlBase@@SA_NXZ	; TiXmlBase::IsWhiteSpaceCondensed
PUBLIC	?Row@TiXmlBase@@QBEHXZ				; TiXmlBase::Row
PUBLIC	?Column@TiXmlBase@@QBEHXZ			; TiXmlBase::Column
PUBLIC	?SetUserData@TiXmlBase@@QAEXPAX@Z		; TiXmlBase::SetUserData
PUBLIC	?GetUserData@TiXmlBase@@QAEPAXXZ		; TiXmlBase::GetUserData
PUBLIC	?GetUserData@TiXmlBase@@QBEPBXXZ		; TiXmlBase::GetUserData
PUBLIC	?IsWhiteSpace@TiXmlBase@@KA_ND@Z		; TiXmlBase::IsWhiteSpace
PUBLIC	?IsWhiteSpace@TiXmlBase@@KA_NH@Z		; TiXmlBase::IsWhiteSpace
PUBLIC	?GetChar@TiXmlBase@@KAPBDPBDPADPAHW4TiXmlEncoding@@@Z ; TiXmlBase::GetChar
PUBLIC	?ToLower@TiXmlBase@@KAHHW4TiXmlEncoding@@@Z	; TiXmlBase::ToLower
PUBLIC	??_GTiXmlBase@@UAEPAXI@Z			; TiXmlBase::`scalar deleting destructor'
PUBLIC	??_ETiXmlBase@@UAEPAXI@Z			; TiXmlBase::`vector deleting destructor'
PUBLIC	?Value@TiXmlNode@@QBEPBDXZ			; TiXmlNode::Value
PUBLIC	?ValueTStr@TiXmlNode@@QBEABVTiXmlString@@XZ	; TiXmlNode::ValueTStr
PUBLIC	?SetValue@TiXmlNode@@QAEXPBD@Z			; TiXmlNode::SetValue
PUBLIC	?Parent@TiXmlNode@@QAEPAV1@XZ			; TiXmlNode::Parent
PUBLIC	?Parent@TiXmlNode@@QBEPBV1@XZ			; TiXmlNode::Parent
PUBLIC	?FirstChild@TiXmlNode@@QBEPBV1@XZ		; TiXmlNode::FirstChild
PUBLIC	?FirstChild@TiXmlNode@@QAEPAV1@XZ		; TiXmlNode::FirstChild
PUBLIC	?FirstChild@TiXmlNode@@QAEPAV1@PBD@Z		; TiXmlNode::FirstChild
PUBLIC	?LastChild@TiXmlNode@@QBEPBV1@XZ		; TiXmlNode::LastChild
PUBLIC	?LastChild@TiXmlNode@@QAEPAV1@XZ		; TiXmlNode::LastChild
PUBLIC	?LastChild@TiXmlNode@@QAEPAV1@PBD@Z		; TiXmlNode::LastChild
PUBLIC	?IterateChildren@TiXmlNode@@QAEPAV1@PBV1@@Z	; TiXmlNode::IterateChildren
PUBLIC	?IterateChildren@TiXmlNode@@QAEPAV1@PBDPBV1@@Z	; TiXmlNode::IterateChildren
PUBLIC	?PreviousSibling@TiXmlNode@@QBEPBV1@XZ		; TiXmlNode::PreviousSibling
PUBLIC	?PreviousSibling@TiXmlNode@@QAEPAV1@XZ		; TiXmlNode::PreviousSibling
PUBLIC	?PreviousSibling@TiXmlNode@@QAEPAV1@PBD@Z	; TiXmlNode::PreviousSibling
PUBLIC	?NextSibling@TiXmlNode@@QBEPBV1@XZ		; TiXmlNode::NextSibling
PUBLIC	?NextSibling@TiXmlNode@@QAEPAV1@XZ		; TiXmlNode::NextSibling
PUBLIC	?NextSibling@TiXmlNode@@QAEPAV1@PBD@Z		; TiXmlNode::NextSibling
PUBLIC	?NextSiblingElement@TiXmlNode@@QAEPAVTiXmlElement@@XZ ; TiXmlNode::NextSiblingElement
PUBLIC	?NextSiblingElement@TiXmlNode@@QAEPAVTiXmlElement@@PBD@Z ; TiXmlNode::NextSiblingElement
PUBLIC	?FirstChildElement@TiXmlNode@@QAEPAVTiXmlElement@@XZ ; TiXmlNode::FirstChildElement
PUBLIC	?FirstChildElement@TiXmlNode@@QAEPAVTiXmlElement@@PBD@Z ; TiXmlNode::FirstChildElement
PUBLIC	?Type@TiXmlNode@@QBEHXZ				; TiXmlNode::Type
PUBLIC	?GetDocument@TiXmlNode@@QAEPAVTiXmlDocument@@XZ	; TiXmlNode::GetDocument
PUBLIC	?NoChildren@TiXmlNode@@QBE_NXZ			; TiXmlNode::NoChildren
PUBLIC	?ToDocument@TiXmlNode@@UBEPBVTiXmlDocument@@XZ	; TiXmlNode::ToDocument
PUBLIC	?ToElement@TiXmlNode@@UBEPBVTiXmlElement@@XZ	; TiXmlNode::ToElement
PUBLIC	?ToComment@TiXmlNode@@UBEPBVTiXmlComment@@XZ	; TiXmlNode::ToComment
PUBLIC	?ToUnknown@TiXmlNode@@UBEPBVTiXmlUnknown@@XZ	; TiXmlNode::ToUnknown
PUBLIC	?ToText@TiXmlNode@@UBEPBVTiXmlText@@XZ		; TiXmlNode::ToText
PUBLIC	?ToDeclaration@TiXmlNode@@UBEPBVTiXmlDeclaration@@XZ ; TiXmlNode::ToDeclaration
PUBLIC	?ToDocument@TiXmlNode@@UAEPAVTiXmlDocument@@XZ	; TiXmlNode::ToDocument
PUBLIC	?ToElement@TiXmlNode@@UAEPAVTiXmlElement@@XZ	; TiXmlNode::ToElement
PUBLIC	?ToComment@TiXmlNode@@UAEPAVTiXmlComment@@XZ	; TiXmlNode::ToComment
PUBLIC	?ToUnknown@TiXmlNode@@UAEPAVTiXmlUnknown@@XZ	; TiXmlNode::ToUnknown
PUBLIC	?ToText@TiXmlNode@@UAEPAVTiXmlText@@XZ		; TiXmlNode::ToText
PUBLIC	?ToDeclaration@TiXmlNode@@UAEPAVTiXmlDeclaration@@XZ ; TiXmlNode::ToDeclaration
PUBLIC	??0TiXmlAttribute@@QAE@XZ			; TiXmlAttribute::TiXmlAttribute
PUBLIC	??0TiXmlAttribute@@QAE@PBD0@Z			; TiXmlAttribute::TiXmlAttribute
PUBLIC	?Name@TiXmlAttribute@@QBEPBDXZ			; TiXmlAttribute::Name
PUBLIC	?Value@TiXmlAttribute@@QBEPBDXZ			; TiXmlAttribute::Value
PUBLIC	?NameTStr@TiXmlAttribute@@QBEABVTiXmlString@@XZ	; TiXmlAttribute::NameTStr
PUBLIC	?SetName@TiXmlAttribute@@QAEXPBD@Z		; TiXmlAttribute::SetName
PUBLIC	?SetValue@TiXmlAttribute@@QAEXPBD@Z		; TiXmlAttribute::SetValue
PUBLIC	?Next@TiXmlAttribute@@QAEPAV1@XZ		; TiXmlAttribute::Next
PUBLIC	?Previous@TiXmlAttribute@@QAEPAV1@XZ		; TiXmlAttribute::Previous
PUBLIC	??8TiXmlAttribute@@QBE_NABV0@@Z			; TiXmlAttribute::operator==
PUBLIC	??MTiXmlAttribute@@QBE_NABV0@@Z			; TiXmlAttribute::operator<
PUBLIC	??OTiXmlAttribute@@QBE_NABV0@@Z			; TiXmlAttribute::operator>
PUBLIC	?Print@TiXmlAttribute@@UBEXPAVi3FileStream@@H@Z	; TiXmlAttribute::Print
PUBLIC	?SetDocument@TiXmlAttribute@@QAEXPAVTiXmlDocument@@@Z ; TiXmlAttribute::SetDocument
PUBLIC	??1TiXmlAttribute@@UAE@XZ			; TiXmlAttribute::~TiXmlAttribute
PUBLIC	??_GTiXmlAttribute@@UAEPAXI@Z			; TiXmlAttribute::`scalar deleting destructor'
PUBLIC	??_ETiXmlAttribute@@UAEPAXI@Z			; TiXmlAttribute::`vector deleting destructor'
PUBLIC	?First@TiXmlAttributeSet@@QBEPBVTiXmlAttribute@@XZ ; TiXmlAttributeSet::First
PUBLIC	?First@TiXmlAttributeSet@@QAEPAVTiXmlAttribute@@XZ ; TiXmlAttributeSet::First
PUBLIC	?Last@TiXmlAttributeSet@@QBEPBVTiXmlAttribute@@XZ ; TiXmlAttributeSet::Last
PUBLIC	?Last@TiXmlAttributeSet@@QAEPAVTiXmlAttribute@@XZ ; TiXmlAttributeSet::Last
PUBLIC	?Find@TiXmlAttributeSet@@QAEPAVTiXmlAttribute@@PBD@Z ; TiXmlAttributeSet::Find
PUBLIC	?QueryFloatAttribute@TiXmlElement@@QBEHPBDPAM@Z	; TiXmlElement::QueryFloatAttribute
PUBLIC	?FirstAttribute@TiXmlElement@@QBEPBVTiXmlAttribute@@XZ ; TiXmlElement::FirstAttribute
PUBLIC	?FirstAttribute@TiXmlElement@@QAEPAVTiXmlAttribute@@XZ ; TiXmlElement::FirstAttribute
PUBLIC	?LastAttribute@TiXmlElement@@QBEPBVTiXmlAttribute@@XZ ; TiXmlElement::LastAttribute
PUBLIC	?LastAttribute@TiXmlElement@@QAEPAVTiXmlAttribute@@XZ ; TiXmlElement::LastAttribute
PUBLIC	?ToElement@TiXmlElement@@UBEPBV1@XZ		; TiXmlElement::ToElement
PUBLIC	?ToElement@TiXmlElement@@UAEPAV1@XZ		; TiXmlElement::ToElement
PUBLIC	??0TiXmlComment@@QAE@XZ				; TiXmlComment::TiXmlComment
PUBLIC	??0TiXmlComment@@QAE@PBD@Z			; TiXmlComment::TiXmlComment
PUBLIC	??1TiXmlComment@@UAE@XZ				; TiXmlComment::~TiXmlComment
PUBLIC	?ToComment@TiXmlComment@@UBEPBV1@XZ		; TiXmlComment::ToComment
PUBLIC	?ToComment@TiXmlComment@@UAEPAV1@XZ		; TiXmlComment::ToComment
PUBLIC	??_GTiXmlComment@@UAEPAXI@Z			; TiXmlComment::`scalar deleting destructor'
PUBLIC	??_ETiXmlComment@@UAEPAXI@Z			; TiXmlComment::`vector deleting destructor'
PUBLIC	??0TiXmlText@@QAE@PBD@Z				; TiXmlText::TiXmlText
PUBLIC	??1TiXmlText@@UAE@XZ				; TiXmlText::~TiXmlText
PUBLIC	??0TiXmlText@@QAE@ABV0@@Z			; TiXmlText::TiXmlText
PUBLIC	??4TiXmlText@@QAEXABV0@@Z			; TiXmlText::operator=
PUBLIC	?CDATA@TiXmlText@@QBE_NXZ			; TiXmlText::CDATA
PUBLIC	?SetCDATA@TiXmlText@@QAEX_N@Z			; TiXmlText::SetCDATA
PUBLIC	?ToText@TiXmlText@@UBEPBV1@XZ			; TiXmlText::ToText
PUBLIC	?ToText@TiXmlText@@UAEPAV1@XZ			; TiXmlText::ToText
PUBLIC	??_GTiXmlText@@UAEPAXI@Z			; TiXmlText::`scalar deleting destructor'
PUBLIC	??_ETiXmlText@@UAEPAXI@Z			; TiXmlText::`vector deleting destructor'
PUBLIC	??0TiXmlDeclaration@@QAE@XZ			; TiXmlDeclaration::TiXmlDeclaration
PUBLIC	??1TiXmlDeclaration@@UAE@XZ			; TiXmlDeclaration::~TiXmlDeclaration
PUBLIC	?Version@TiXmlDeclaration@@QBEPBDXZ		; TiXmlDeclaration::Version
PUBLIC	?Encoding@TiXmlDeclaration@@QBEPBDXZ		; TiXmlDeclaration::Encoding
PUBLIC	?Standalone@TiXmlDeclaration@@QBEPBDXZ		; TiXmlDeclaration::Standalone
PUBLIC	?Print@TiXmlDeclaration@@UBEXPAVi3FileStream@@H@Z ; TiXmlDeclaration::Print
PUBLIC	?ToDeclaration@TiXmlDeclaration@@UBEPBV1@XZ	; TiXmlDeclaration::ToDeclaration
PUBLIC	?ToDeclaration@TiXmlDeclaration@@UAEPAV1@XZ	; TiXmlDeclaration::ToDeclaration
PUBLIC	??_GTiXmlDeclaration@@UAEPAXI@Z			; TiXmlDeclaration::`scalar deleting destructor'
PUBLIC	??_ETiXmlDeclaration@@UAEPAXI@Z			; TiXmlDeclaration::`vector deleting destructor'
PUBLIC	??0TiXmlUnknown@@QAE@XZ				; TiXmlUnknown::TiXmlUnknown
PUBLIC	??1TiXmlUnknown@@UAE@XZ				; TiXmlUnknown::~TiXmlUnknown
PUBLIC	??0TiXmlUnknown@@QAE@ABV0@@Z			; TiXmlUnknown::TiXmlUnknown
PUBLIC	??4TiXmlUnknown@@QAEXABV0@@Z			; TiXmlUnknown::operator=
PUBLIC	?ToUnknown@TiXmlUnknown@@UBEPBV1@XZ		; TiXmlUnknown::ToUnknown
PUBLIC	?ToUnknown@TiXmlUnknown@@UAEPAV1@XZ		; TiXmlUnknown::ToUnknown
PUBLIC	??_GTiXmlUnknown@@UAEPAXI@Z			; TiXmlUnknown::`scalar deleting destructor'
PUBLIC	??_ETiXmlUnknown@@UAEPAXI@Z			; TiXmlUnknown::`vector deleting destructor'
PUBLIC	??1TiXmlDocument@@UAE@XZ			; TiXmlDocument::~TiXmlDocument
PUBLIC	?RootElement@TiXmlDocument@@QBEPBVTiXmlElement@@XZ ; TiXmlDocument::RootElement
PUBLIC	?RootElement@TiXmlDocument@@QAEPAVTiXmlElement@@XZ ; TiXmlDocument::RootElement
PUBLIC	?Error@TiXmlDocument@@QBE_NXZ			; TiXmlDocument::Error
PUBLIC	?ErrorDesc@TiXmlDocument@@QBEPBDXZ		; TiXmlDocument::ErrorDesc
PUBLIC	?ErrorId@TiXmlDocument@@QBEHXZ			; TiXmlDocument::ErrorId
PUBLIC	?ErrorRow@TiXmlDocument@@QBEHXZ			; TiXmlDocument::ErrorRow
PUBLIC	?ErrorCol@TiXmlDocument@@QBEHXZ			; TiXmlDocument::ErrorCol
PUBLIC	?SetTabSize@TiXmlDocument@@QAEXH@Z		; TiXmlDocument::SetTabSize
PUBLIC	?TabSize@TiXmlDocument@@QBEHXZ			; TiXmlDocument::TabSize
PUBLIC	?ClearError@TiXmlDocument@@QAEXXZ		; TiXmlDocument::ClearError
PUBLIC	?ToDocument@TiXmlDocument@@UBEPBV1@XZ		; TiXmlDocument::ToDocument
PUBLIC	?ToDocument@TiXmlDocument@@UAEPAV1@XZ		; TiXmlDocument::ToDocument
PUBLIC	?GetSize@TiXmlDocument@@QAEIXZ			; TiXmlDocument::GetSize
PUBLIC	??_GTiXmlDocument@@UAEPAXI@Z			; TiXmlDocument::`scalar deleting destructor'
PUBLIC	??_ETiXmlDocument@@UAEPAXI@Z			; TiXmlDocument::`vector deleting destructor'
PUBLIC	??0TiXmlHandle@@QAE@PAVTiXmlNode@@@Z		; TiXmlHandle::TiXmlHandle
PUBLIC	??0TiXmlHandle@@QAE@ABV0@@Z			; TiXmlHandle::TiXmlHandle
PUBLIC	??4TiXmlHandle@@QAE?AV0@ABV0@@Z			; TiXmlHandle::operator=
PUBLIC	?ToNode@TiXmlHandle@@QBEPAVTiXmlNode@@XZ	; TiXmlHandle::ToNode
PUBLIC	?ToElement@TiXmlHandle@@QBEPAVTiXmlElement@@XZ	; TiXmlHandle::ToElement
PUBLIC	?ToText@TiXmlHandle@@QBEPAVTiXmlText@@XZ	; TiXmlHandle::ToText
PUBLIC	?ToUnknown@TiXmlHandle@@QBEPAVTiXmlUnknown@@XZ	; TiXmlHandle::ToUnknown
PUBLIC	?Node@TiXmlHandle@@QBEPAVTiXmlNode@@XZ		; TiXmlHandle::Node
PUBLIC	?Element@TiXmlHandle@@QBEPAVTiXmlElement@@XZ	; TiXmlHandle::Element
PUBLIC	?Text@TiXmlHandle@@QBEPAVTiXmlText@@XZ		; TiXmlHandle::Text
PUBLIC	?Unknown@TiXmlHandle@@QBEPAVTiXmlUnknown@@XZ	; TiXmlHandle::Unknown
PUBLIC	??0TiXmlPrinter@@QAE@XZ				; TiXmlPrinter::TiXmlPrinter
PUBLIC	?SetIndent@TiXmlPrinter@@QAEXPBD@Z		; TiXmlPrinter::SetIndent
PUBLIC	?Indent@TiXmlPrinter@@QAEPBDXZ			; TiXmlPrinter::Indent
PUBLIC	?SetLineBreak@TiXmlPrinter@@QAEXPBD@Z		; TiXmlPrinter::SetLineBreak
PUBLIC	?LineBreak@TiXmlPrinter@@QAEPBDXZ		; TiXmlPrinter::LineBreak
PUBLIC	?SetStreamPrinting@TiXmlPrinter@@QAEXXZ		; TiXmlPrinter::SetStreamPrinting
PUBLIC	?CStr@TiXmlPrinter@@QAEPBDXZ			; TiXmlPrinter::CStr
PUBLIC	?Size@TiXmlPrinter@@QAEIXZ			; TiXmlPrinter::Size
PUBLIC	?DoIndent@TiXmlPrinter@@AAEXXZ			; TiXmlPrinter::DoIndent
PUBLIC	?DoLineBreak@TiXmlPrinter@@AAEXXZ		; TiXmlPrinter::DoLineBreak
PUBLIC	??1TiXmlPrinter@@UAE@XZ				; TiXmlPrinter::~TiXmlPrinter
PUBLIC	??0TiXmlPrinter@@QAE@ABV0@@Z			; TiXmlPrinter::TiXmlPrinter
PUBLIC	??0TiXmlPrinter@@QAE@$$QAV0@@Z			; TiXmlPrinter::TiXmlPrinter
PUBLIC	??4TiXmlPrinter@@QAEAAV0@ABV0@@Z		; TiXmlPrinter::operator=
PUBLIC	??4TiXmlPrinter@@QAEAAV0@$$QAV0@@Z		; TiXmlPrinter::operator=
PUBLIC	??_GTiXmlPrinter@@UAEPAXI@Z			; TiXmlPrinter::`scalar deleting destructor'
PUBLIC	??_ETiXmlPrinter@@UAEPAXI@Z			; TiXmlPrinter::`vector deleting destructor'
PUBLIC	?addAttr@i3XMLElement@@QAEXPBD0@Z		; i3XMLElement::addAttr
PUBLIC	?addAttr@i3XMLElement@@QAEXPBDH@Z		; i3XMLElement::addAttr
PUBLIC	?addAttr@i3XMLElement@@QAEXPBDI@Z		; i3XMLElement::addAttr
PUBLIC	?addAttr@i3XMLElement@@QAEXPBDM@Z		; i3XMLElement::addAttr
PUBLIC	?addAttr@i3XMLElement@@QAEXPBD_J@Z		; i3XMLElement::addAttr
PUBLIC	?addAttr@i3XMLElement@@QAEXPBD_K@Z		; i3XMLElement::addAttr
PUBLIC	?getAttr@i3XMLElement@@QAEPBDPBD@Z		; i3XMLElement::getAttr
PUBLIC	?getAttr@i3XMLElement@@QAEPBDPBDPAH@Z		; i3XMLElement::getAttr
PUBLIC	?getAttr@i3XMLElement@@QAEPBDPBDPAI@Z		; i3XMLElement::getAttr
PUBLIC	?getAttr@i3XMLElement@@QAEPBDPBDPA_J@Z		; i3XMLElement::getAttr
PUBLIC	?getAttr@i3XMLElement@@QAEPBDPBDPA_K@Z		; i3XMLElement::getAttr
PUBLIC	?getAttr@i3XMLElement@@QAEPBDPBDPAM@Z		; i3XMLElement::getAttr
PUBLIC	?getAttr@i3XMLElement@@QAEPBDPBDPAG@Z		; i3XMLElement::getAttr
PUBLIC	??0i3XMLElement@@QAE@ABV0@@Z			; i3XMLElement::i3XMLElement
PUBLIC	??4i3XMLElement@@QAEAAV0@ABV0@@Z		; i3XMLElement::operator=
PUBLIC	??_Gi3XMLElement@@UAEPAXI@Z			; i3XMLElement::`scalar deleting destructor'
PUBLIC	??_Ei3XMLElement@@UAEPAXI@Z			; i3XMLElement::`vector deleting destructor'
PUBLIC	?GetClassMeta@i3List@@SAPAVi3ClassMeta@@XZ	; i3List::GetClassMeta
PUBLIC	?SetOptmizeEnableWhenClear@i3List@@QAEXH@Z	; i3List::SetOptmizeEnableWhenClear
PUBLIC	?SetOnceMode@i3List@@QAEXH@Z			; i3List::SetOnceMode
PUBLIC	?GetCount@i3List@@QBEHXZ			; i3List::GetCount
PUBLIC	?GetItem@i3List@@QAEPAXH@Z			; i3List::GetItem
PUBLIC	?GetItem@i3List@@QBEPBXH@Z			; i3List::GetItem
PUBLIC	?GetSafeItem@i3List@@QBEPBXH@Z			; i3List::GetSafeItem
PUBLIC	?GetSafeItem@i3List@@QAEPAXH@Z			; i3List::GetSafeItem
PUBLIC	?Find@i3List@@QBEHPAX@Z				; i3List::Find
PUBLIC	?GetFirst@i3List@@QAEPAXXZ			; i3List::GetFirst
PUBLIC	?GetLast@i3List@@QAEPAXXZ			; i3List::GetLast
PUBLIC	?AddFromList@i3List@@QAEXPAV1@@Z		; i3List::AddFromList
PUBLIC	?SafeReleaseAll@i3List@@QAEXXZ			; i3List::SafeReleaseAll
PUBLIC	?SafeFreeAll@i3List@@QAEXXZ			; i3List::SafeFreeAll
PUBLIC	??0i3List@@QAE@ABV0@@Z				; i3List::i3List
PUBLIC	??4i3List@@QAEAAV0@ABV0@@Z			; i3List::operator=
PUBLIC	??_Fi3List@@QAEXXZ				; i3List::`default constructor closure'
PUBLIC	??_Gi3List@@UAEPAXI@Z				; i3List::`scalar deleting destructor'
PUBLIC	??_Ei3List@@UAEPAXI@Z				; i3List::`vector deleting destructor'
PUBLIC	?GetClassMeta@i3StringList@@SAPAVi3ClassMeta@@XZ ; i3StringList::GetClassMeta
PUBLIC	?GetCount@i3StringList@@QBEHXZ			; i3StringList::GetCount
PUBLIC	?GetItem@i3StringList@@QAEPAXH@Z		; i3StringList::GetItem
PUBLIC	?SetItem@i3StringList@@QAEXHPAD@Z		; i3StringList::SetItem
PUBLIC	?Find@i3StringList@@QAEHPAD@Z			; i3StringList::Find
PUBLIC	?GetFirst@i3StringList@@QAEPADXZ		; i3StringList::GetFirst
PUBLIC	?GetLast@i3StringList@@QAEPADXZ			; i3StringList::GetLast
PUBLIC	?GetOnceMode@i3StringList@@QAEHXZ		; i3StringList::GetOnceMode
PUBLIC	?SetOnceMode@i3StringList@@QAEXH@Z		; i3StringList::SetOnceMode
PUBLIC	??0i3StringList@@QAE@ABV0@@Z			; i3StringList::i3StringList
PUBLIC	??4i3StringList@@QAEAAV0@ABV0@@Z		; i3StringList::operator=
PUBLIC	??_Fi3StringList@@QAEXXZ			; i3StringList::`default constructor closure'
PUBLIC	??_Gi3StringList@@UAEPAXI@Z			; i3StringList::`scalar deleting destructor'
PUBLIC	??_Ei3StringList@@UAEPAXI@Z			; i3StringList::`vector deleting destructor'
PUBLIC	?MakePointFix@i3String@@YAXNPADH_N@Z		; i3String::MakePointFix
PUBLIC	?MakePointFix@i3String@@YAXNPAGH_N@Z		; i3String::MakePointFix
PUBLIC	?ValueToStr@i3String@@YAHHPADH@Z		; i3String::ValueToStr
PUBLIC	?GetFirstValidCharater@i3String@@YAPBDPBD@Z	; i3String::GetFirstValidCharater
PUBLIC	?WhatIsCode@i3String@@YAHPBDH@Z			; i3String::WhatIsCode
PUBLIC	?InsertStr@i3String@@YAPADPADPBDHH@Z		; i3String::InsertStr
PUBLIC	?InsertStrW@i3String@@YAPAGPAGPBGHH@Z		; i3String::InsertStrW
PUBLIC	?RemoveBlankFromHead@i3String@@YAXPAD@Z		; i3String::RemoveBlankFromHead
PUBLIC	?RemoveBlankFromTail@i3String@@YAXPAD@Z		; i3String::RemoveBlankFromTail
PUBLIC	?RemoveAllBlank@i3String@@YAXPAD@Z		; i3String::RemoveAllBlank
PUBLIC	?RemoveAllChar@i3String@@YAXPADD@Z		; i3String::RemoveAllChar
PUBLIC	?RemoveExt@i3String@@YAXPAD@Z			; i3String::RemoveExt
PUBLIC	?SwapExt@i3String@@YAXPADHPBD1@Z		; i3String::SwapExt
PUBLIC	?SplitFileName@i3String@@YAPADPBDPADH@Z		; i3String::SplitFileName
PUBLIC	?SplitPath@i3String@@YAXPBDPAD@Z		; i3String::SplitPath
PUBLIC	?SplitFileExt@i3String@@YAHPBDPADH@Z		; i3String::SplitFileExt
PUBLIC	?RemoveDriveChar@i3String@@YAXPAD@Z		; i3String::RemoveDriveChar
PUBLIC	?ResolvePathToken@i3String@@YAXPBDPAVi3StringList@@@Z ; i3String::ResolvePathToken
PUBLIC	?MakeRelativePath@i3String@@YAXPBD0PADH@Z	; i3String::MakeRelativePath
PUBLIC	?MakeCStylePath@i3String@@YAXPADPBD@Z		; i3String::MakeCStylePath
PUBLIC	?EraseSpace@i3String@@YAHPBDPAD@Z		; i3String::EraseSpace
PUBLIC	?IsDigitString@i3String@@YA_NPBD@Z		; i3String::IsDigitString
PUBLIC	?ParseMultiSelectFileName@i3String@@YAXPADPAVi3StringList@@@Z ; i3String::ParseMultiSelectFileName
PUBLIC	?AddPostfix@i3String@@YAXPADHPBD1D@Z		; i3String::AddPostfix
PUBLIC	?NormalizePath@i3String@@YAXPAD@Z		; i3String::NormalizePath
PUBLIC	?MakeUnixPath@i3String@@YAXPAD@Z		; i3String::MakeUnixPath
PUBLIC	?PreprocessMacro@i3String@@YAXPADHPBDPAUi3SymbolTableInfo@@H@Z ; i3String::PreprocessMacro
PUBLIC	?RemoveFileName@i3String@@YAXPAD@Z		; i3String::RemoveFileName
PUBLIC	?IsMatchedWildcard@i3String@@YA_NPAD0@Z		; i3String::IsMatchedWildcard
PUBLIC	?Compare@i3String@@YAHPBD0@Z			; i3String::Compare
PUBLIC	?Compare@i3String@@YAHPBG0@Z			; i3String::Compare
PUBLIC	?NCompare@i3String@@YAHPBD0H@Z			; i3String::NCompare
PUBLIC	?NCompareW@i3String@@YAHPBG0H@Z			; i3String::NCompareW
PUBLIC	?CompareCase@i3String@@YAHPBD0@Z		; i3String::CompareCase
PUBLIC	?CompareCaseW@i3String@@YAHPBG0@Z		; i3String::CompareCaseW
PUBLIC	?ToUpper@i3String@@YADD@Z			; i3String::ToUpper
PUBLIC	?ToUpper@i3String@@YAXPAD@Z			; i3String::ToUpper
PUBLIC	?ToUpperAfterN@i3String@@YAXPADH@Z		; i3String::ToUpperAfterN
PUBLIC	?ToUpperBeforeN@i3String@@YAXPADH@Z		; i3String::ToUpperBeforeN
PUBLIC	?ToLower@i3String@@YADD@Z			; i3String::ToLower
PUBLIC	?ToLower@i3String@@YAXPAD@Z			; i3String::ToLower
PUBLIC	?ToLower@i3String@@YAXPADIPBD@Z			; i3String::ToLower
PUBLIC	?Copy@i3String@@YAXPADPBDH@Z			; i3String::Copy
PUBLIC	?Copy@i3String@@YAXPAGPBGH@Z			; i3String::Copy
PUBLIC	?NCopy@i3String@@YAXPADPBDH@Z			; i3String::NCopy
PUBLIC	?NCopy@i3String@@YAXPAGPBGH@Z			; i3String::NCopy
PUBLIC	?CopyASCIItoWCHAR@i3String@@YAXPAGPBD@Z		; i3String::CopyASCIItoWCHAR
PUBLIC	?CopyWCHARtoASCII@i3String@@YAXPADHPBGH@Z	; i3String::CopyWCHARtoASCII
PUBLIC	?UCS2toUTF8@i3String@@YAHPADPBGH@Z		; i3String::UCS2toUTF8
PUBLIC	?UTF8toUCS2@i3String@@YAHPAGPBDH@Z		; i3String::UTF8toUCS2
PUBLIC	?Length@i3String@@YAHPBD@Z			; i3String::Length
PUBLIC	?Length@i3String@@YAHPBG@Z			; i3String::Length
PUBLIC	?ContainChar@i3String@@YAHPBDD@Z		; i3String::ContainChar
PUBLIC	?ContainChar@i3String@@YAHPBGG@Z		; i3String::ContainChar
PUBLIC	?ContainCharRev@i3String@@YAHPBDD@Z		; i3String::ContainCharRev
PUBLIC	?Contain@i3String@@YAHPBD0@Z			; i3String::Contain
PUBLIC	?ContainNew@i3String@@YAHPBD0@Z			; i3String::ContainNew
PUBLIC	?ContainW@i3String@@YAHPBG0@Z			; i3String::ContainW
PUBLIC	?ContainNative@i3String@@YAHPBD@Z		; i3String::ContainNative
PUBLIC	?ContainNoCase@i3String@@YAHPBD0@Z		; i3String::ContainNoCase
PUBLIC	?Concat@i3String@@YAXPADPBD@Z			; i3String::Concat
PUBLIC	?Concat@i3String@@YAXPAGPBG@Z			; i3String::Concat
PUBLIC	?NewString@i3String@@YAPADPBD@Z			; i3String::NewString
PUBLIC	?ftoa@i3String@@YAXMPADH@Z			; i3String::ftoa
PUBLIC	?ToInt@i3String@@YAHPBD@Z			; i3String::ToInt
PUBLIC	?GetPrefixName@i3String@@YAXPADPBD@Z		; i3String::GetPrefixName
PUBLIC	?Replace@i3String@@YAHPADHPBD1@Z		; i3String::Replace
PUBLIC	?ReplaceNoCase@i3String@@YAHPADHPBD1@Z		; i3String::ReplaceNoCase
PUBLIC	?CharNextA@i3String@@YAPBDHPBD@Z		; i3String::CharNextA
PUBLIC	?CharPrevA@i3String@@YAPBDHPBD0@Z		; i3String::CharPrevA
PUBLIC	?LengthChar@i3String@@YAHHPBD@Z			; i3String::LengthChar
PUBLIC	?IsComposite@i3String@@YAHHDDH@Z		; i3String::IsComposite
PUBLIC	?Format@i3String@@YAHPADHPBDZZ			; i3String::Format
PUBLIC	?Format@i3String@@YAHPAGHPBGZZ			; i3String::Format
PUBLIC	?Search@i3String@@YAHPAD0W4ALGORITHM@1@@Z	; i3String::Search
PUBLIC	?NReplace@i3String@@YA_NPADHHHPBDH@Z		; i3String::NReplace
PUBLIC	?substr@i3String@@YAXPADPBDHH@Z			; i3String::substr
PUBLIC	?_scanWildcard@@YA_NPAD0@Z			; _scanWildcard
PUBLIC	?BF_search@@YAHPAD0@Z				; BF_search
PUBLIC	?KMP_init@@YAPAHPAD@Z				; KMP_init
PUBLIC	?KMP_search@@YAHPAD0@Z				; KMP_search
PUBLIC	?preBmBc@@YAXPADHPAHH@Z				; preBmBc
PUBLIC	?suffixes@@YAXPADHPAH@Z				; suffixes
PUBLIC	?preBmGs@@YAXPADHPAHH@Z				; preBmGs
PUBLIC	?BM_search@@YAHPAD0@Z				; BM_search
PUBLIC	?preQsBc@@YAXPADHPAHH@Z				; preQsBc
PUBLIC	?Q_search@@YAHPAD0@Z				; Q_search
PUBLIC	?RK_search@@YAHPAD0@Z				; RK_search
PUBLIC	?_OptionsStorage@?1??__local_stdio_printf_options@@9@4_KA ; `__local_stdio_printf_options'::`2'::_OptionsStorage
PUBLIC	??_7i3ClassMeta@@6B@				; i3ClassMeta::`vftable'
PUBLIC	??_7i3ElementBase@@6B@				; i3ElementBase::`vftable'
PUBLIC	??_7i3MemoryPool@@6B@				; i3MemoryPool::`vftable'
PUBLIC	??_7i3Stream@@6B@				; i3Stream::`vftable'
PUBLIC	??_7i3FileStream@@6B@				; i3FileStream::`vftable'
PUBLIC	??_7TiXmlVisitor@@6B@				; TiXmlVisitor::`vftable'
PUBLIC	??_7TiXmlBase@@6B@				; TiXmlBase::`vftable'
PUBLIC	??_7TiXmlAttribute@@6B@				; TiXmlAttribute::`vftable'
PUBLIC	??_7TiXmlComment@@6B@				; TiXmlComment::`vftable'
PUBLIC	??_7TiXmlText@@6B@				; TiXmlText::`vftable'
PUBLIC	??_7TiXmlDeclaration@@6B@			; TiXmlDeclaration::`vftable'
PUBLIC	??_7TiXmlUnknown@@6B@				; TiXmlUnknown::`vftable'
PUBLIC	??_7TiXmlDocument@@6B@				; TiXmlDocument::`vftable'
PUBLIC	??_C@_00CNPNBAHC@@				; `string'
PUBLIC	??_7TiXmlPrinter@@6B@				; TiXmlPrinter::`vftable'
PUBLIC	??_C@_04PFOHOKJK@?5?5?5?5@			; `string'
PUBLIC	??_C@_01EEMJAFIK@?6@				; `string'
PUBLIC	??_7i3XMLElement@@6B@				; i3XMLElement::`vftable'
PUBLIC	??_7i3List@@6B@					; i3List::`vftable'
PUBLIC	??_C@_0GD@LNMGNFKI@E?3?2Proyectos?2JuegosOnlineproyec@ ; `string'
PUBLIC	??_7i3StringList@@6B@				; i3StringList::`vftable'
PUBLIC	??_C@_02NJPGOMH@?$CFf@				; `string'
PUBLIC	??_C@_15HBBGCAG@?$AA?$CF?$AAf@			; `string'
PUBLIC	??_C@_03JALODAI@?$CFld@				; `string'
PUBLIC	??_C@_01LFCBOECM@?4@				; `string'
PUBLIC	??_C@_0EE@BFOIMKAA@int?5__cdecl?5i3String?3?3UCS2toUTF@ ; `string'
PUBLIC	??_C@_0GD@CAEEIHCP@E?3?2Proyectos?2JuegosOnlineproyec@ ; `string'
PUBLIC	??_C@_0BI@PALGGMBM@Need?5more?5buffer?5size?4?6@ ; `string'
PUBLIC	??_C@_0EE@HPFMMEMJ@int?5__cdecl?5i3String?3?3UTF8toUCS@ ; `string'
PUBLIC	??_C@_06DNBDMDIL@?$CF?$CF?4?$CFdf@		; `string'
PUBLIC	??_C@_02DJGKEECL@?4?4@				; `string'
PUBLIC	??_C@_01KICIPPFI@?2@				; `string'
PUBLIC	??_R4i3ElementBase@@6B@				; i3ElementBase::`RTTI Complete Object Locator'
PUBLIC	??_R0?AVi3ElementBase@@@8			; i3ElementBase `RTTI Type Descriptor'
PUBLIC	??_R3i3ElementBase@@8				; i3ElementBase::`RTTI Class Hierarchy Descriptor'
PUBLIC	??_R2i3ElementBase@@8				; i3ElementBase::`RTTI Base Class Array'
PUBLIC	??_R1A@?0A@EA@i3ElementBase@@8			; i3ElementBase::`RTTI Base Class Descriptor at (0,-1,0,64)'
PUBLIC	??_R4i3List@@6B@				; i3List::`RTTI Complete Object Locator'
PUBLIC	??_R0?AVi3List@@@8				; i3List `RTTI Type Descriptor'
PUBLIC	??_R3i3List@@8					; i3List::`RTTI Class Hierarchy Descriptor'
PUBLIC	??_R2i3List@@8					; i3List::`RTTI Base Class Array'
PUBLIC	??_R1A@?0A@EA@i3List@@8				; i3List::`RTTI Base Class Descriptor at (0,-1,0,64)'
PUBLIC	??_R4i3MemoryPool@@6B@				; i3MemoryPool::`RTTI Complete Object Locator'
PUBLIC	??_R0?AVi3MemoryPool@@@8			; i3MemoryPool `RTTI Type Descriptor'
PUBLIC	??_R3i3MemoryPool@@8				; i3MemoryPool::`RTTI Class Hierarchy Descriptor'
PUBLIC	??_R2i3MemoryPool@@8				; i3MemoryPool::`RTTI Base Class Array'
PUBLIC	??_R1A@?0A@EA@i3MemoryPool@@8			; i3MemoryPool::`RTTI Base Class Descriptor at (0,-1,0,64)'
PUBLIC	??_R4i3ClassMeta@@6B@				; i3ClassMeta::`RTTI Complete Object Locator'
PUBLIC	??_R0?AVi3ClassMeta@@@8				; i3ClassMeta `RTTI Type Descriptor'
PUBLIC	??_R3i3ClassMeta@@8				; i3ClassMeta::`RTTI Class Hierarchy Descriptor'
PUBLIC	??_R2i3ClassMeta@@8				; i3ClassMeta::`RTTI Base Class Array'
PUBLIC	??_R1A@?0A@EA@i3ClassMeta@@8			; i3ClassMeta::`RTTI Base Class Descriptor at (0,-1,0,64)'
PUBLIC	??_R4i3StringList@@6B@				; i3StringList::`RTTI Complete Object Locator'
PUBLIC	??_R0?AVi3StringList@@@8			; i3StringList `RTTI Type Descriptor'
PUBLIC	??_R3i3StringList@@8				; i3StringList::`RTTI Class Hierarchy Descriptor'
PUBLIC	??_R2i3StringList@@8				; i3StringList::`RTTI Base Class Array'
PUBLIC	??_R1A@?0A@EA@i3StringList@@8			; i3StringList::`RTTI Base Class Descriptor at (0,-1,0,64)'
PUBLIC	??_R4i3Stream@@6B@				; i3Stream::`RTTI Complete Object Locator'
PUBLIC	??_R0?AVi3Stream@@@8				; i3Stream `RTTI Type Descriptor'
PUBLIC	??_R3i3Stream@@8				; i3Stream::`RTTI Class Hierarchy Descriptor'
PUBLIC	??_R2i3Stream@@8				; i3Stream::`RTTI Base Class Array'
PUBLIC	??_R1A@?0A@EA@i3Stream@@8			; i3Stream::`RTTI Base Class Descriptor at (0,-1,0,64)'
PUBLIC	??_R4i3FileStream@@6B@				; i3FileStream::`RTTI Complete Object Locator'
PUBLIC	??_R0?AVi3FileStream@@@8			; i3FileStream `RTTI Type Descriptor'
PUBLIC	??_R3i3FileStream@@8				; i3FileStream::`RTTI Class Hierarchy Descriptor'
PUBLIC	??_R2i3FileStream@@8				; i3FileStream::`RTTI Base Class Array'
PUBLIC	??_R1A@?0A@EA@i3FileStream@@8			; i3FileStream::`RTTI Base Class Descriptor at (0,-1,0,64)'
PUBLIC	??_R4TiXmlDocument@@6B@				; TiXmlDocument::`RTTI Complete Object Locator'
PUBLIC	??_R0?AVTiXmlDocument@@@8			; TiXmlDocument `RTTI Type Descriptor'
PUBLIC	??_R3TiXmlDocument@@8				; TiXmlDocument::`RTTI Class Hierarchy Descriptor'
PUBLIC	??_R2TiXmlDocument@@8				; TiXmlDocument::`RTTI Base Class Array'
PUBLIC	??_R1A@?0A@EA@TiXmlDocument@@8			; TiXmlDocument::`RTTI Base Class Descriptor at (0,-1,0,64)'
PUBLIC	??_R1A@?0A@EA@TiXmlNode@@8			; TiXmlNode::`RTTI Base Class Descriptor at (0,-1,0,64)'
PUBLIC	??_R0?AVTiXmlNode@@@8				; TiXmlNode `RTTI Type Descriptor'
PUBLIC	??_R3TiXmlNode@@8				; TiXmlNode::`RTTI Class Hierarchy Descriptor'
PUBLIC	??_R2TiXmlNode@@8				; TiXmlNode::`RTTI Base Class Array'
PUBLIC	??_R1A@?0A@EA@TiXmlBase@@8			; TiXmlBase::`RTTI Base Class Descriptor at (0,-1,0,64)'
PUBLIC	??_R0?AVTiXmlBase@@@8				; TiXmlBase `RTTI Type Descriptor'
PUBLIC	??_R3TiXmlBase@@8				; TiXmlBase::`RTTI Class Hierarchy Descriptor'
PUBLIC	??_R2TiXmlBase@@8				; TiXmlBase::`RTTI Base Class Array'
PUBLIC	??_R4TiXmlComment@@6B@				; TiXmlComment::`RTTI Complete Object Locator'
PUBLIC	??_R0?AVTiXmlComment@@@8			; TiXmlComment `RTTI Type Descriptor'
PUBLIC	??_R3TiXmlComment@@8				; TiXmlComment::`RTTI Class Hierarchy Descriptor'
PUBLIC	??_R2TiXmlComment@@8				; TiXmlComment::`RTTI Base Class Array'
PUBLIC	??_R1A@?0A@EA@TiXmlComment@@8			; TiXmlComment::`RTTI Base Class Descriptor at (0,-1,0,64)'
PUBLIC	??_R4TiXmlUnknown@@6B@				; TiXmlUnknown::`RTTI Complete Object Locator'
PUBLIC	??_R0?AVTiXmlUnknown@@@8			; TiXmlUnknown `RTTI Type Descriptor'
PUBLIC	??_R3TiXmlUnknown@@8				; TiXmlUnknown::`RTTI Class Hierarchy Descriptor'
PUBLIC	??_R2TiXmlUnknown@@8				; TiXmlUnknown::`RTTI Base Class Array'
PUBLIC	??_R1A@?0A@EA@TiXmlUnknown@@8			; TiXmlUnknown::`RTTI Base Class Descriptor at (0,-1,0,64)'
PUBLIC	??_R4TiXmlAttribute@@6B@			; TiXmlAttribute::`RTTI Complete Object Locator'
PUBLIC	??_R0?AVTiXmlAttribute@@@8			; TiXmlAttribute `RTTI Type Descriptor'
PUBLIC	??_R3TiXmlAttribute@@8				; TiXmlAttribute::`RTTI Class Hierarchy Descriptor'
PUBLIC	??_R2TiXmlAttribute@@8				; TiXmlAttribute::`RTTI Base Class Array'
PUBLIC	??_R1A@?0A@EA@TiXmlAttribute@@8			; TiXmlAttribute::`RTTI Base Class Descriptor at (0,-1,0,64)'
PUBLIC	??_R4TiXmlText@@6B@				; TiXmlText::`RTTI Complete Object Locator'
PUBLIC	??_R0?AVTiXmlText@@@8				; TiXmlText `RTTI Type Descriptor'
PUBLIC	??_R3TiXmlText@@8				; TiXmlText::`RTTI Class Hierarchy Descriptor'
PUBLIC	??_R2TiXmlText@@8				; TiXmlText::`RTTI Base Class Array'
PUBLIC	??_R1A@?0A@EA@TiXmlText@@8			; TiXmlText::`RTTI Base Class Descriptor at (0,-1,0,64)'
PUBLIC	??_R4TiXmlDeclaration@@6B@			; TiXmlDeclaration::`RTTI Complete Object Locator'
PUBLIC	??_R0?AVTiXmlDeclaration@@@8			; TiXmlDeclaration `RTTI Type Descriptor'
PUBLIC	??_R3TiXmlDeclaration@@8			; TiXmlDeclaration::`RTTI Class Hierarchy Descriptor'
PUBLIC	??_R2TiXmlDeclaration@@8			; TiXmlDeclaration::`RTTI Base Class Array'
PUBLIC	??_R1A@?0A@EA@TiXmlDeclaration@@8		; TiXmlDeclaration::`RTTI Base Class Descriptor at (0,-1,0,64)'
PUBLIC	??_R4TiXmlVisitor@@6B@				; TiXmlVisitor::`RTTI Complete Object Locator'
PUBLIC	??_R0?AVTiXmlVisitor@@@8			; TiXmlVisitor `RTTI Type Descriptor'
PUBLIC	??_R3TiXmlVisitor@@8				; TiXmlVisitor::`RTTI Class Hierarchy Descriptor'
PUBLIC	??_R2TiXmlVisitor@@8				; TiXmlVisitor::`RTTI Base Class Array'
PUBLIC	??_R1A@?0A@EA@TiXmlVisitor@@8			; TiXmlVisitor::`RTTI Base Class Descriptor at (0,-1,0,64)'
PUBLIC	??_R4TiXmlBase@@6B@				; TiXmlBase::`RTTI Complete Object Locator'
PUBLIC	??_R4TiXmlPrinter@@6B@				; TiXmlPrinter::`RTTI Complete Object Locator'
PUBLIC	??_R0?AVTiXmlPrinter@@@8			; TiXmlPrinter `RTTI Type Descriptor'
PUBLIC	??_R3TiXmlPrinter@@8				; TiXmlPrinter::`RTTI Class Hierarchy Descriptor'
PUBLIC	??_R2TiXmlPrinter@@8				; TiXmlPrinter::`RTTI Base Class Array'
PUBLIC	??_R1A@?0A@EA@TiXmlPrinter@@8			; TiXmlPrinter::`RTTI Base Class Descriptor at (0,-1,0,64)'
PUBLIC	??_R4i3XMLElement@@6B@				; i3XMLElement::`RTTI Complete Object Locator'
PUBLIC	??_R0?AVi3XMLElement@@@8			; i3XMLElement `RTTI Type Descriptor'
PUBLIC	??_R3i3XMLElement@@8				; i3XMLElement::`RTTI Class Hierarchy Descriptor'
PUBLIC	??_R2i3XMLElement@@8				; i3XMLElement::`RTTI Base Class Array'
PUBLIC	??_R1A@?0A@EA@i3XMLElement@@8			; i3XMLElement::`RTTI Base Class Descriptor at (0,-1,0,64)'
PUBLIC	??_R1A@?0A@EA@TiXmlElement@@8			; TiXmlElement::`RTTI Base Class Descriptor at (0,-1,0,64)'
PUBLIC	??_R0?AVTiXmlElement@@@8			; TiXmlElement `RTTI Type Descriptor'
PUBLIC	??_R3TiXmlElement@@8				; TiXmlElement::`RTTI Class Hierarchy Descriptor'
PUBLIC	??_R2TiXmlElement@@8				; TiXmlElement::`RTTI Base Class Array'
EXTRN	??_M@YGXPAXIIP6EX0@Z@Z:PROC			; `eh vector destructor iterator'
EXTRN	__purecall:PROC
EXTRN	??3@YAXPAX@Z:PROC				; operator delete
EXTRN	??3@YAXPAXI@Z:PROC				; operator delete
EXTRN	??_U@YAPAXI@Z:PROC				; operator new[]
EXTRN	??_V@YAXPAX@Z:PROC				; operator delete[]
EXTRN	??_V@YAXPAXI@Z:PROC				; operator delete[]
EXTRN	___report_rangecheckfailure:PROC
EXTRN	_isdigit:PROC
EXTRN	_isspace:PROC
EXTRN	_toupper:PROC
EXTRN	_tolower:PROC
EXTRN	__wcsicmp:PROC
EXTRN	__wcsnicmp:PROC
EXTRN	__stricmp:PROC
EXTRN	__strnicmp:PROC
EXTRN	__imp__CharNextExA@12:PROC
EXTRN	__imp__CharPrevExA@16:PROC
EXTRN	__imp__MultiByteToWideChar@24:PROC
EXTRN	__imp__WideCharToMultiByte@32:PROC
EXTRN	___stdio_common_vswprintf:PROC
EXTRN	___stdio_common_vsnwprintf_s:PROC
EXTRN	___stdio_common_vsprintf:PROC
EXTRN	___stdio_common_vsnprintf_s:PROC
EXTRN	?SetEnv@i3Error@@YAXPBDH0W4I3LOG_TYPE@@@Z:PROC	; i3Error::SetEnv
EXTRN	?Log@i3Error@@YAXPBDZZ:PROC			; i3Error::Log
EXTRN	?AllocTool@i3mem@@YAPAXHHHPBDH@Z:PROC		; i3mem::AllocTool
EXTRN	?FreeTool@i3mem@@YAXPAXPBDH@Z:PROC		; i3mem::FreeTool
EXTRN	??1i3ClassMeta@@UAE@XZ:PROC			; i3ClassMeta::~i3ClassMeta
EXTRN	?CreateInstance@i3ClassMeta@@UAEPAVi3ElementBase@@W4I3_CLASSMETA_TYPE@@@Z:PROC ; i3ClassMeta::CreateInstance
EXTRN	?BindInstance@i3ClassMeta@@UAEPAVi3ElementBase@@PAXW4I3_CLASSMETA_TYPE@@@Z:PROC ; i3ClassMeta::BindInstance
EXTRN	?IsTypeOf@i3ClassMeta@@QAE_NPAV1@@Z:PROC	; i3ClassMeta::IsTypeOf
EXTRN	?GetMeta@i3ElementBase@@UAEPAVi3ClassMeta@@XZ:PROC ; i3ElementBase::GetMeta
EXTRN	??1i3ElementBase@@UAE@XZ:PROC			; i3ElementBase::~i3ElementBase
EXTRN	??3i3ElementBase@@SAXPAX@Z:PROC			; i3ElementBase::operator delete
EXTRN	?Release@i3ElementBase@@QAEXXZ:PROC		; i3ElementBase::Release
EXTRN	?CopyTo@i3ElementBase@@UAEXPAV1@W4I3_COPY_METHOD@@@Z:PROC ; i3ElementBase::CopyTo
EXTRN	??1i3MemoryPool@@UAE@XZ:PROC			; i3MemoryPool::~i3MemoryPool
EXTRN	?GetMeta@i3Stream@@UAEPAVi3ClassMeta@@XZ:PROC	; i3Stream::GetMeta
EXTRN	??1i3Stream@@UAE@XZ:PROC			; i3Stream::~i3Stream
EXTRN	?CopyTo@i3Stream@@UAEIPAV1@I@Z:PROC		; i3Stream::CopyTo
EXTRN	?CopyFrom@i3Stream@@UAEIPAV1@I@Z:PROC		; i3Stream::CopyFrom
EXTRN	?ReadLine@i3Stream@@UAEIPADH@Z:PROC		; i3Stream::ReadLine
EXTRN	?ReadLineW@i3Stream@@UAEIPAGH@Z:PROC		; i3Stream::ReadLineW
EXTRN	?WriteLine@i3Stream@@UAEIPBD@Z:PROC		; i3Stream::WriteLine
EXTRN	?WriteLineW@i3Stream@@UAEIPBG@Z:PROC		; i3Stream::WriteLineW
EXTRN	?Printf@i3Stream@@UAAIPADPBDZZ:PROC		; i3Stream::Printf
EXTRN	?GetMeta@i3FileStream@@UAEPAVi3ClassMeta@@XZ:PROC ; i3FileStream::GetMeta
EXTRN	??1i3FileStream@@UAE@XZ:PROC			; i3FileStream::~i3FileStream
EXTRN	?Create@i3FileStream@@UAEHPBDHI@Z:PROC		; i3FileStream::Create
EXTRN	?Open@i3FileStream@@UAEHPBDHI@Z:PROC		; i3FileStream::Open
EXTRN	?Close@i3FileStream@@UAEHXZ:PROC		; i3FileStream::Close
EXTRN	?Read@i3FileStream@@UAEIPAXH@Z:PROC		; i3FileStream::Read
EXTRN	?Write@i3FileStream@@UAEIPBXH@Z:PROC		; i3FileStream::Write
EXTRN	?SetPosition@i3FileStream@@UAEIHH@Z:PROC	; i3FileStream::SetPosition
EXTRN	?GetPosition@i3FileStream@@UAEIXZ:PROC		; i3FileStream::GetPosition
EXTRN	?assign@TiXmlString@@QAEAAV1@PBDI@Z:PROC	; TiXmlString::assign
EXTRN	?append@TiXmlString@@QAEAAV1@PBDI@Z:PROC	; TiXmlString::append
EXTRN	?GetEntity@TiXmlBase@@KAPBDPBDPADPAHW4TiXmlEncoding@@@Z:PROC ; TiXmlBase::GetEntity
EXTRN	??1TiXmlNode@@UAE@XZ:PROC			; TiXmlNode::~TiXmlNode
EXTRN	?FirstChild@TiXmlNode@@QBEPBV1@PBD@Z:PROC	; TiXmlNode::FirstChild
EXTRN	?LastChild@TiXmlNode@@QBEPBV1@PBD@Z:PROC	; TiXmlNode::LastChild
EXTRN	?IterateChildren@TiXmlNode@@QBEPBV1@PBV1@@Z:PROC ; TiXmlNode::IterateChildren
EXTRN	?IterateChildren@TiXmlNode@@QBEPBV1@PBDPBV1@@Z:PROC ; TiXmlNode::IterateChildren
EXTRN	?PreviousSibling@TiXmlNode@@QBEPBV1@PBD@Z:PROC	; TiXmlNode::PreviousSibling
EXTRN	?NextSibling@TiXmlNode@@QBEPBV1@PBD@Z:PROC	; TiXmlNode::NextSibling
EXTRN	?NextSiblingElement@TiXmlNode@@QBEPBVTiXmlElement@@XZ:PROC ; TiXmlNode::NextSiblingElement
EXTRN	?NextSiblingElement@TiXmlNode@@QBEPBVTiXmlElement@@PBD@Z:PROC ; TiXmlNode::NextSiblingElement
EXTRN	?FirstChildElement@TiXmlNode@@QBEPBVTiXmlElement@@XZ:PROC ; TiXmlNode::FirstChildElement
EXTRN	?FirstChildElement@TiXmlNode@@QBEPBVTiXmlElement@@PBD@Z:PROC ; TiXmlNode::FirstChildElement
EXTRN	?GetDocument@TiXmlNode@@QBEPBVTiXmlDocument@@XZ:PROC ; TiXmlNode::GetDocument
EXTRN	??0TiXmlNode@@IAE@W4NodeType@0@@Z:PROC		; TiXmlNode::TiXmlNode
EXTRN	?Next@TiXmlAttribute@@QBEPBV1@XZ:PROC		; TiXmlAttribute::Next
EXTRN	?Previous@TiXmlAttribute@@QBEPBV1@XZ:PROC	; TiXmlAttribute::Previous
EXTRN	?Parse@TiXmlAttribute@@UAEPBDPBDPAVTiXmlParsingData@@W4TiXmlEncoding@@@Z:PROC ; TiXmlAttribute::Parse
EXTRN	?Print@TiXmlAttribute@@QBEXPAVi3FileStream@@HPAVTiXmlString@@@Z:PROC ; TiXmlAttribute::Print
EXTRN	?Find@TiXmlAttributeSet@@QBEPBVTiXmlAttribute@@PBD@Z:PROC ; TiXmlAttributeSet::Find
EXTRN	??0TiXmlElement@@QAE@ABV0@@Z:PROC		; TiXmlElement::TiXmlElement
EXTRN	??4TiXmlElement@@QAEXABV0@@Z:PROC		; TiXmlElement::operator=
EXTRN	?Attribute@TiXmlElement@@QBEPBDPBD@Z:PROC	; TiXmlElement::Attribute
EXTRN	?Attribute@TiXmlElement@@QBEPBDPBDPAH@Z:PROC	; TiXmlElement::Attribute
EXTRN	?AttributeLong@TiXmlElement@@QBEPBDPBDPA_J@Z:PROC ; TiXmlElement::AttributeLong
EXTRN	?Attribute@TiXmlElement@@QBEPBDPBDPAN@Z:PROC	; TiXmlElement::Attribute
EXTRN	?QueryDoubleAttribute@TiXmlElement@@QBEHPBDPAN@Z:PROC ; TiXmlElement::QueryDoubleAttribute
EXTRN	?SetAttribute@TiXmlElement@@QAEXPBD0@Z:PROC	; TiXmlElement::SetAttribute
EXTRN	?SetAttribute@TiXmlElement@@QAEXPBDH@Z:PROC	; TiXmlElement::SetAttribute
EXTRN	?SetLongLongAttribute@TiXmlElement@@QAEXPBD_J@Z:PROC ; TiXmlElement::SetLongLongAttribute
EXTRN	?SetAttribute@TiXmlElement@@QAEXPBDM@Z:PROC	; TiXmlElement::SetAttribute
EXTRN	?Clone@TiXmlElement@@UBEPAVTiXmlNode@@XZ:PROC	; TiXmlElement::Clone
EXTRN	?Print@TiXmlElement@@UBEXPAVi3FileStream@@H@Z:PROC ; TiXmlElement::Print
EXTRN	?Parse@TiXmlElement@@UAEPBDPBDPAVTiXmlParsingData@@W4TiXmlEncoding@@@Z:PROC ; TiXmlElement::Parse
EXTRN	?Accept@TiXmlElement@@UBE_NPAVTiXmlVisitor@@@Z:PROC ; TiXmlElement::Accept
EXTRN	?Clone@TiXmlComment@@UBEPAVTiXmlNode@@XZ:PROC	; TiXmlComment::Clone
EXTRN	?Print@TiXmlComment@@UBEXPAVi3FileStream@@H@Z:PROC ; TiXmlComment::Print
EXTRN	?Parse@TiXmlComment@@UAEPBDPBDPAVTiXmlParsingData@@W4TiXmlEncoding@@@Z:PROC ; TiXmlComment::Parse
EXTRN	?Accept@TiXmlComment@@UBE_NPAVTiXmlVisitor@@@Z:PROC ; TiXmlComment::Accept
EXTRN	?Print@TiXmlText@@UBEXPAVi3FileStream@@H@Z:PROC	; TiXmlText::Print
EXTRN	?Parse@TiXmlText@@UAEPBDPBDPAVTiXmlParsingData@@W4TiXmlEncoding@@@Z:PROC ; TiXmlText::Parse
EXTRN	?Accept@TiXmlText@@UBE_NPAVTiXmlVisitor@@@Z:PROC ; TiXmlText::Accept
EXTRN	?Clone@TiXmlText@@MBEPAVTiXmlNode@@XZ:PROC	; TiXmlText::Clone
EXTRN	?CopyTo@TiXmlText@@IBEXPAV1@@Z:PROC		; TiXmlText::CopyTo
EXTRN	?Clone@TiXmlDeclaration@@UBEPAVTiXmlNode@@XZ:PROC ; TiXmlDeclaration::Clone
EXTRN	?Print@TiXmlDeclaration@@UBEXPAVi3FileStream@@HPAVTiXmlString@@@Z:PROC ; TiXmlDeclaration::Print
EXTRN	?Parse@TiXmlDeclaration@@UAEPBDPBDPAVTiXmlParsingData@@W4TiXmlEncoding@@@Z:PROC ; TiXmlDeclaration::Parse
EXTRN	?Accept@TiXmlDeclaration@@UBE_NPAVTiXmlVisitor@@@Z:PROC ; TiXmlDeclaration::Accept
EXTRN	?Clone@TiXmlUnknown@@UBEPAVTiXmlNode@@XZ:PROC	; TiXmlUnknown::Clone
EXTRN	?Print@TiXmlUnknown@@UBEXPAVi3FileStream@@H@Z:PROC ; TiXmlUnknown::Print
EXTRN	?Parse@TiXmlUnknown@@UAEPBDPBDPAVTiXmlParsingData@@W4TiXmlEncoding@@@Z:PROC ; TiXmlUnknown::Parse
EXTRN	?Accept@TiXmlUnknown@@UBE_NPAVTiXmlVisitor@@@Z:PROC ; TiXmlUnknown::Accept
EXTRN	?CopyTo@TiXmlUnknown@@IBEXPAV1@@Z:PROC		; TiXmlUnknown::CopyTo
EXTRN	?Parse@TiXmlDocument@@UAEPBDPBDPAVTiXmlParsingData@@W4TiXmlEncoding@@@Z:PROC ; TiXmlDocument::Parse
EXTRN	?Print@TiXmlDocument@@UBEXPAVi3FileStream@@H@Z:PROC ; TiXmlDocument::Print
EXTRN	?Accept@TiXmlDocument@@UBE_NPAVTiXmlVisitor@@@Z:PROC ; TiXmlDocument::Accept
EXTRN	?Clone@TiXmlDocument@@MBEPAVTiXmlNode@@XZ:PROC	; TiXmlDocument::Clone
EXTRN	?VisitEnter@TiXmlPrinter@@UAE_NABVTiXmlDocument@@@Z:PROC ; TiXmlPrinter::VisitEnter
EXTRN	?VisitExit@TiXmlPrinter@@UAE_NABVTiXmlDocument@@@Z:PROC ; TiXmlPrinter::VisitExit
EXTRN	?VisitEnter@TiXmlPrinter@@UAE_NABVTiXmlElement@@PBVTiXmlAttribute@@@Z:PROC ; TiXmlPrinter::VisitEnter
EXTRN	?VisitExit@TiXmlPrinter@@UAE_NABVTiXmlElement@@@Z:PROC ; TiXmlPrinter::VisitExit
EXTRN	?Visit@TiXmlPrinter@@UAE_NABVTiXmlDeclaration@@@Z:PROC ; TiXmlPrinter::Visit
EXTRN	?Visit@TiXmlPrinter@@UAE_NABVTiXmlText@@@Z:PROC	; TiXmlPrinter::Visit
EXTRN	?Visit@TiXmlPrinter@@UAE_NABVTiXmlComment@@@Z:PROC ; TiXmlPrinter::Visit
EXTRN	?Visit@TiXmlPrinter@@UAE_NABVTiXmlUnknown@@@Z:PROC ; TiXmlPrinter::Visit
EXTRN	??1i3XMLElement@@UAE@XZ:PROC			; i3XMLElement::~i3XMLElement
EXTRN	?GetMeta@i3List@@UAEPAVi3ClassMeta@@XZ:PROC	; i3List::GetMeta
EXTRN	??0i3List@@QAE@H@Z:PROC				; i3List::i3List
EXTRN	??1i3List@@UAE@XZ:PROC				; i3List::~i3List
EXTRN	?IndexOf@i3List@@UBEHPBX@Z:PROC			; i3List::IndexOf
EXTRN	?Add@i3List@@UAEHPAX@Z:PROC			; i3List::Add
EXTRN	?Insert@i3List@@UAEHHPAX@Z:PROC			; i3List::Insert
EXTRN	?Delete@i3List@@UAEHH@Z:PROC			; i3List::Delete
EXTRN	?Remove@i3List@@UAEHPAX@Z:PROC			; i3List::Remove
EXTRN	?Clear@i3List@@UAEXH@Z:PROC			; i3List::Clear
EXTRN	?GetMeta@i3StringList@@UAEPAVi3ClassMeta@@XZ:PROC ; i3StringList::GetMeta
EXTRN	??0i3StringList@@QAE@H@Z:PROC			; i3StringList::i3StringList
EXTRN	??1i3StringList@@UAE@XZ:PROC			; i3StringList::~i3StringList
EXTRN	?IndexOf@i3StringList@@UBEHPAD@Z:PROC		; i3StringList::IndexOf
EXTRN	?Add@i3StringList@@UAEHPADH@Z:PROC		; i3StringList::Add
EXTRN	?Insert@i3StringList@@UAEHHPADH@Z:PROC		; i3StringList::Insert
EXTRN	?Delete@i3StringList@@UAEHH@Z:PROC		; i3StringList::Delete
EXTRN	?Remove@i3StringList@@UAEHPAD@Z:PROC		; i3StringList::Remove
EXTRN	?Clear@i3StringList@@UAEXXZ:PROC		; i3StringList::Clear
EXTRN	?GetCurrentCodePage@i3Language@@YAIXZ:PROC	; i3Language::GetCurrentCodePage
EXTRN	@__security_check_cookie@4:PROC
EXTRN	___CxxFrameHandler3:PROC
EXTRN	__chkstk:PROC
EXTRN	_memcpy:PROC
EXTRN	_memset:PROC
EXTRN	??_7type_info@@6B@:QWORD			; type_info::`vftable'
EXTRN	?s_pClassMetai3ElementBase@i3ElementBase@@2PAVi3ClassMeta@@A:DWORD ; i3ElementBase::s_pClassMetai3ElementBase
EXTRN	?s_pClassMetai3Stream@i3Stream@@2PAVi3ClassMeta@@A:DWORD ; i3Stream::s_pClassMetai3Stream
EXTRN	?s_pClassMetai3FileStream@i3FileStream@@2PAVi3ClassMeta@@A:DWORD ; i3FileStream::s_pClassMetai3FileStream
EXTRN	?m_bCaseSensitive@i3FileStream@@1HA:DWORD	; i3FileStream::m_bCaseSensitive
EXTRN	?npos@TiXmlString@@2IB:DWORD			; TiXmlString::npos
EXTRN	?nullrep_@TiXmlString@@0URep@1@A:BYTE		; TiXmlString::nullrep_
EXTRN	?utf8ByteTable@TiXmlBase@@2QBHB:BYTE		; TiXmlBase::utf8ByteTable
EXTRN	?condenseWhiteSpace@TiXmlBase@@0_NA:BYTE	; TiXmlBase::condenseWhiteSpace
EXTRN	?s_pClassMetai3List@i3List@@2PAVi3ClassMeta@@A:DWORD ; i3List::s_pClassMetai3List
EXTRN	?s_pClassMetai3StringList@i3StringList@@2PAVi3ClassMeta@@A:DWORD ; i3StringList::s_pClassMetai3StringList
EXTRN	___security_cookie:DWORD
EXTRN	__fltused:DWORD
;	COMDAT ?_OptionsStorage@?1??__local_stdio_printf_options@@9@4_KA
_BSS	SEGMENT
?_OptionsStorage@?1??__local_stdio_printf_options@@9@4_KA DQ 01H DUP (?) ; `__local_stdio_printf_options'::`2'::_OptionsStorage
_BSS	ENDS
;	COMDAT ??_R2TiXmlElement@@8
rdata$r	SEGMENT
??_R2TiXmlElement@@8 DD FLAT:??_R1A@?0A@EA@TiXmlElement@@8 ; TiXmlElement::`RTTI Base Class Array'
	DD	FLAT:??_R1A@?0A@EA@TiXmlNode@@8
	DD	FLAT:??_R1A@?0A@EA@TiXmlBase@@8
rdata$r	ENDS
;	COMDAT ??_R3TiXmlElement@@8
rdata$r	SEGMENT
??_R3TiXmlElement@@8 DD 00H				; TiXmlElement::`RTTI Class Hierarchy Descriptor'
	DD	00H
	DD	03H
	DD	FLAT:??_R2TiXmlElement@@8
rdata$r	ENDS
;	COMDAT ??_R0?AVTiXmlElement@@@8
data$rs	SEGMENT
??_R0?AVTiXmlElement@@@8 DD FLAT:??_7type_info@@6B@	; TiXmlElement `RTTI Type Descriptor'
	DD	00H
	DB	'.?AVTiXmlElement@@', 00H
data$rs	ENDS
;	COMDAT ??_R1A@?0A@EA@TiXmlElement@@8
rdata$r	SEGMENT
??_R1A@?0A@EA@TiXmlElement@@8 DD FLAT:??_R0?AVTiXmlElement@@@8 ; TiXmlElement::`RTTI Base Class Descriptor at (0,-1,0,64)'
	DD	02H
	DD	00H
	DD	0ffffffffH
	DD	00H
	DD	040H
	DD	FLAT:??_R3TiXmlElement@@8
rdata$r	ENDS
;	COMDAT ??_R1A@?0A@EA@i3XMLElement@@8
rdata$r	SEGMENT
??_R1A@?0A@EA@i3XMLElement@@8 DD FLAT:??_R0?AVi3XMLElement@@@8 ; i3XMLElement::`RTTI Base Class Descriptor at (0,-1,0,64)'
	DD	03H
	DD	00H
	DD	0ffffffffH
	DD	00H
	DD	040H
	DD	FLAT:??_R3i3XMLElement@@8
rdata$r	ENDS
;	COMDAT ??_R2i3XMLElement@@8
rdata$r	SEGMENT
??_R2i3XMLElement@@8 DD FLAT:??_R1A@?0A@EA@i3XMLElement@@8 ; i3XMLElement::`RTTI Base Class Array'
	DD	FLAT:??_R1A@?0A@EA@TiXmlElement@@8
	DD	FLAT:??_R1A@?0A@EA@TiXmlNode@@8
	DD	FLAT:??_R1A@?0A@EA@TiXmlBase@@8
rdata$r	ENDS
;	COMDAT ??_R3i3XMLElement@@8
rdata$r	SEGMENT
??_R3i3XMLElement@@8 DD 00H				; i3XMLElement::`RTTI Class Hierarchy Descriptor'
	DD	00H
	DD	04H
	DD	FLAT:??_R2i3XMLElement@@8
rdata$r	ENDS
;	COMDAT ??_R0?AVi3XMLElement@@@8
data$rs	SEGMENT
??_R0?AVi3XMLElement@@@8 DD FLAT:??_7type_info@@6B@	; i3XMLElement `RTTI Type Descriptor'
	DD	00H
	DB	'.?AVi3XMLElement@@', 00H
data$rs	ENDS
;	COMDAT ??_R4i3XMLElement@@6B@
rdata$r	SEGMENT
??_R4i3XMLElement@@6B@ DD 00H				; i3XMLElement::`RTTI Complete Object Locator'
	DD	00H
	DD	00H
	DD	FLAT:??_R0?AVi3XMLElement@@@8
	DD	FLAT:??_R3i3XMLElement@@8
rdata$r	ENDS
;	COMDAT ??_R1A@?0A@EA@TiXmlPrinter@@8
rdata$r	SEGMENT
??_R1A@?0A@EA@TiXmlPrinter@@8 DD FLAT:??_R0?AVTiXmlPrinter@@@8 ; TiXmlPrinter::`RTTI Base Class Descriptor at (0,-1,0,64)'
	DD	01H
	DD	00H
	DD	0ffffffffH
	DD	00H
	DD	040H
	DD	FLAT:??_R3TiXmlPrinter@@8
rdata$r	ENDS
;	COMDAT ??_R2TiXmlPrinter@@8
rdata$r	SEGMENT
??_R2TiXmlPrinter@@8 DD FLAT:??_R1A@?0A@EA@TiXmlPrinter@@8 ; TiXmlPrinter::`RTTI Base Class Array'
	DD	FLAT:??_R1A@?0A@EA@TiXmlVisitor@@8
rdata$r	ENDS
;	COMDAT ??_R3TiXmlPrinter@@8
rdata$r	SEGMENT
??_R3TiXmlPrinter@@8 DD 00H				; TiXmlPrinter::`RTTI Class Hierarchy Descriptor'
	DD	00H
	DD	02H
	DD	FLAT:??_R2TiXmlPrinter@@8
rdata$r	ENDS
;	COMDAT ??_R0?AVTiXmlPrinter@@@8
data$rs	SEGMENT
??_R0?AVTiXmlPrinter@@@8 DD FLAT:??_7type_info@@6B@	; TiXmlPrinter `RTTI Type Descriptor'
	DD	00H
	DB	'.?AVTiXmlPrinter@@', 00H
data$rs	ENDS
;	COMDAT ??_R4TiXmlPrinter@@6B@
rdata$r	SEGMENT
??_R4TiXmlPrinter@@6B@ DD 00H				; TiXmlPrinter::`RTTI Complete Object Locator'
	DD	00H
	DD	00H
	DD	FLAT:??_R0?AVTiXmlPrinter@@@8
	DD	FLAT:??_R3TiXmlPrinter@@8
rdata$r	ENDS
;	COMDAT ??_R4TiXmlBase@@6B@
rdata$r	SEGMENT
??_R4TiXmlBase@@6B@ DD 00H				; TiXmlBase::`RTTI Complete Object Locator'
	DD	00H
	DD	00H
	DD	FLAT:??_R0?AVTiXmlBase@@@8
	DD	FLAT:??_R3TiXmlBase@@8
rdata$r	ENDS
;	COMDAT ??_R1A@?0A@EA@TiXmlVisitor@@8
rdata$r	SEGMENT
??_R1A@?0A@EA@TiXmlVisitor@@8 DD FLAT:??_R0?AVTiXmlVisitor@@@8 ; TiXmlVisitor::`RTTI Base Class Descriptor at (0,-1,0,64)'
	DD	00H
	DD	00H
	DD	0ffffffffH
	DD	00H
	DD	040H
	DD	FLAT:??_R3TiXmlVisitor@@8
rdata$r	ENDS
;	COMDAT ??_R2TiXmlVisitor@@8
rdata$r	SEGMENT
??_R2TiXmlVisitor@@8 DD FLAT:??_R1A@?0A@EA@TiXmlVisitor@@8 ; TiXmlVisitor::`RTTI Base Class Array'
rdata$r	ENDS
;	COMDAT ??_R3TiXmlVisitor@@8
rdata$r	SEGMENT
??_R3TiXmlVisitor@@8 DD 00H				; TiXmlVisitor::`RTTI Class Hierarchy Descriptor'
	DD	00H
	DD	01H
	DD	FLAT:??_R2TiXmlVisitor@@8
rdata$r	ENDS
;	COMDAT ??_R0?AVTiXmlVisitor@@@8
data$rs	SEGMENT
??_R0?AVTiXmlVisitor@@@8 DD FLAT:??_7type_info@@6B@	; TiXmlVisitor `RTTI Type Descriptor'
	DD	00H
	DB	'.?AVTiXmlVisitor@@', 00H
data$rs	ENDS
;	COMDAT ??_R4TiXmlVisitor@@6B@
rdata$r	SEGMENT
??_R4TiXmlVisitor@@6B@ DD 00H				; TiXmlVisitor::`RTTI Complete Object Locator'
	DD	00H
	DD	00H
	DD	FLAT:??_R0?AVTiXmlVisitor@@@8
	DD	FLAT:??_R3TiXmlVisitor@@8
rdata$r	ENDS
;	COMDAT ??_R1A@?0A@EA@TiXmlDeclaration@@8
rdata$r	SEGMENT
??_R1A@?0A@EA@TiXmlDeclaration@@8 DD FLAT:??_R0?AVTiXmlDeclaration@@@8 ; TiXmlDeclaration::`RTTI Base Class Descriptor at (0,-1,0,64)'
	DD	02H
	DD	00H
	DD	0ffffffffH
	DD	00H
	DD	040H
	DD	FLAT:??_R3TiXmlDeclaration@@8
rdata$r	ENDS
;	COMDAT ??_R2TiXmlDeclaration@@8
rdata$r	SEGMENT
??_R2TiXmlDeclaration@@8 DD FLAT:??_R1A@?0A@EA@TiXmlDeclaration@@8 ; TiXmlDeclaration::`RTTI Base Class Array'
	DD	FLAT:??_R1A@?0A@EA@TiXmlNode@@8
	DD	FLAT:??_R1A@?0A@EA@TiXmlBase@@8
rdata$r	ENDS
;	COMDAT ??_R3TiXmlDeclaration@@8
rdata$r	SEGMENT
??_R3TiXmlDeclaration@@8 DD 00H				; TiXmlDeclaration::`RTTI Class Hierarchy Descriptor'
	DD	00H
	DD	03H
	DD	FLAT:??_R2TiXmlDeclaration@@8
rdata$r	ENDS
;	COMDAT ??_R0?AVTiXmlDeclaration@@@8
data$rs	SEGMENT
??_R0?AVTiXmlDeclaration@@@8 DD FLAT:??_7type_info@@6B@	; TiXmlDeclaration `RTTI Type Descriptor'
	DD	00H
	DB	'.?AVTiXmlDeclaration@@', 00H
data$rs	ENDS
;	COMDAT ??_R4TiXmlDeclaration@@6B@
rdata$r	SEGMENT
??_R4TiXmlDeclaration@@6B@ DD 00H			; TiXmlDeclaration::`RTTI Complete Object Locator'
	DD	00H
	DD	00H
	DD	FLAT:??_R0?AVTiXmlDeclaration@@@8
	DD	FLAT:??_R3TiXmlDeclaration@@8
rdata$r	ENDS
;	COMDAT ??_R1A@?0A@EA@TiXmlText@@8
rdata$r	SEGMENT
??_R1A@?0A@EA@TiXmlText@@8 DD FLAT:??_R0?AVTiXmlText@@@8 ; TiXmlText::`RTTI Base Class Descriptor at (0,-1,0,64)'
	DD	02H
	DD	00H
	DD	0ffffffffH
	DD	00H
	DD	040H
	DD	FLAT:??_R3TiXmlText@@8
rdata$r	ENDS
;	COMDAT ??_R2TiXmlText@@8
rdata$r	SEGMENT
??_R2TiXmlText@@8 DD FLAT:??_R1A@?0A@EA@TiXmlText@@8	; TiXmlText::`RTTI Base Class Array'
	DD	FLAT:??_R1A@?0A@EA@TiXmlNode@@8
	DD	FLAT:??_R1A@?0A@EA@TiXmlBase@@8
rdata$r	ENDS
;	COMDAT ??_R3TiXmlText@@8
rdata$r	SEGMENT
??_R3TiXmlText@@8 DD 00H				; TiXmlText::`RTTI Class Hierarchy Descriptor'
	DD	00H
	DD	03H
	DD	FLAT:??_R2TiXmlText@@8
rdata$r	ENDS
;	COMDAT ??_R0?AVTiXmlText@@@8
data$rs	SEGMENT
??_R0?AVTiXmlText@@@8 DD FLAT:??_7type_info@@6B@	; TiXmlText `RTTI Type Descriptor'
	DD	00H
	DB	'.?AVTiXmlText@@', 00H
data$rs	ENDS
;	COMDAT ??_R4TiXmlText@@6B@
rdata$r	SEGMENT
??_R4TiXmlText@@6B@ DD 00H				; TiXmlText::`RTTI Complete Object Locator'
	DD	00H
	DD	00H
	DD	FLAT:??_R0?AVTiXmlText@@@8
	DD	FLAT:??_R3TiXmlText@@8
rdata$r	ENDS
;	COMDAT ??_R1A@?0A@EA@TiXmlAttribute@@8
rdata$r	SEGMENT
??_R1A@?0A@EA@TiXmlAttribute@@8 DD FLAT:??_R0?AVTiXmlAttribute@@@8 ; TiXmlAttribute::`RTTI Base Class Descriptor at (0,-1,0,64)'
	DD	01H
	DD	00H
	DD	0ffffffffH
	DD	00H
	DD	040H
	DD	FLAT:??_R3TiXmlAttribute@@8
rdata$r	ENDS
;	COMDAT ??_R2TiXmlAttribute@@8
rdata$r	SEGMENT
??_R2TiXmlAttribute@@8 DD FLAT:??_R1A@?0A@EA@TiXmlAttribute@@8 ; TiXmlAttribute::`RTTI Base Class Array'
	DD	FLAT:??_R1A@?0A@EA@TiXmlBase@@8
rdata$r	ENDS
;	COMDAT ??_R3TiXmlAttribute@@8
rdata$r	SEGMENT
??_R3TiXmlAttribute@@8 DD 00H				; TiXmlAttribute::`RTTI Class Hierarchy Descriptor'
	DD	00H
	DD	02H
	DD	FLAT:??_R2TiXmlAttribute@@8
rdata$r	ENDS
;	COMDAT ??_R0?AVTiXmlAttribute@@@8
data$rs	SEGMENT
??_R0?AVTiXmlAttribute@@@8 DD FLAT:??_7type_info@@6B@	; TiXmlAttribute `RTTI Type Descriptor'
	DD	00H
	DB	'.?AVTiXmlAttribute@@', 00H
data$rs	ENDS
;	COMDAT ??_R4TiXmlAttribute@@6B@
rdata$r	SEGMENT
??_R4TiXmlAttribute@@6B@ DD 00H				; TiXmlAttribute::`RTTI Complete Object Locator'
	DD	00H
	DD	00H
	DD	FLAT:??_R0?AVTiXmlAttribute@@@8
	DD	FLAT:??_R3TiXmlAttribute@@8
rdata$r	ENDS
;	COMDAT ??_R1A@?0A@EA@TiXmlUnknown@@8
rdata$r	SEGMENT
??_R1A@?0A@EA@TiXmlUnknown@@8 DD FLAT:??_R0?AVTiXmlUnknown@@@8 ; TiXmlUnknown::`RTTI Base Class Descriptor at (0,-1,0,64)'
	DD	02H
	DD	00H
	DD	0ffffffffH
	DD	00H
	DD	040H
	DD	FLAT:??_R3TiXmlUnknown@@8
rdata$r	ENDS
;	COMDAT ??_R2TiXmlUnknown@@8
rdata$r	SEGMENT
??_R2TiXmlUnknown@@8 DD FLAT:??_R1A@?0A@EA@TiXmlUnknown@@8 ; TiXmlUnknown::`RTTI Base Class Array'
	DD	FLAT:??_R1A@?0A@EA@TiXmlNode@@8
	DD	FLAT:??_R1A@?0A@EA@TiXmlBase@@8
rdata$r	ENDS
;	COMDAT ??_R3TiXmlUnknown@@8
rdata$r	SEGMENT
??_R3TiXmlUnknown@@8 DD 00H				; TiXmlUnknown::`RTTI Class Hierarchy Descriptor'
	DD	00H
	DD	03H
	DD	FLAT:??_R2TiXmlUnknown@@8
rdata$r	ENDS
;	COMDAT ??_R0?AVTiXmlUnknown@@@8
data$rs	SEGMENT
??_R0?AVTiXmlUnknown@@@8 DD FLAT:??_7type_info@@6B@	; TiXmlUnknown `RTTI Type Descriptor'
	DD	00H
	DB	'.?AVTiXmlUnknown@@', 00H
data$rs	ENDS
;	COMDAT ??_R4TiXmlUnknown@@6B@
rdata$r	SEGMENT
??_R4TiXmlUnknown@@6B@ DD 00H				; TiXmlUnknown::`RTTI Complete Object Locator'
	DD	00H
	DD	00H
	DD	FLAT:??_R0?AVTiXmlUnknown@@@8
	DD	FLAT:??_R3TiXmlUnknown@@8
rdata$r	ENDS
;	COMDAT ??_R1A@?0A@EA@TiXmlComment@@8
rdata$r	SEGMENT
??_R1A@?0A@EA@TiXmlComment@@8 DD FLAT:??_R0?AVTiXmlComment@@@8 ; TiXmlComment::`RTTI Base Class Descriptor at (0,-1,0,64)'
	DD	02H
	DD	00H
	DD	0ffffffffH
	DD	00H
	DD	040H
	DD	FLAT:??_R3TiXmlComment@@8
rdata$r	ENDS
;	COMDAT ??_R2TiXmlComment@@8
rdata$r	SEGMENT
??_R2TiXmlComment@@8 DD FLAT:??_R1A@?0A@EA@TiXmlComment@@8 ; TiXmlComment::`RTTI Base Class Array'
	DD	FLAT:??_R1A@?0A@EA@TiXmlNode@@8
	DD	FLAT:??_R1A@?0A@EA@TiXmlBase@@8
rdata$r	ENDS
;	COMDAT ??_R3TiXmlComment@@8
rdata$r	SEGMENT
??_R3TiXmlComment@@8 DD 00H				; TiXmlComment::`RTTI Class Hierarchy Descriptor'
	DD	00H
	DD	03H
	DD	FLAT:??_R2TiXmlComment@@8
rdata$r	ENDS
;	COMDAT ??_R0?AVTiXmlComment@@@8
data$rs	SEGMENT
??_R0?AVTiXmlComment@@@8 DD FLAT:??_7type_info@@6B@	; TiXmlComment `RTTI Type Descriptor'
	DD	00H
	DB	'.?AVTiXmlComment@@', 00H
data$rs	ENDS
;	COMDAT ??_R4TiXmlComment@@6B@
rdata$r	SEGMENT
??_R4TiXmlComment@@6B@ DD 00H				; TiXmlComment::`RTTI Complete Object Locator'
	DD	00H
	DD	00H
	DD	FLAT:??_R0?AVTiXmlComment@@@8
	DD	FLAT:??_R3TiXmlComment@@8
rdata$r	ENDS
;	COMDAT ??_R2TiXmlBase@@8
rdata$r	SEGMENT
??_R2TiXmlBase@@8 DD FLAT:??_R1A@?0A@EA@TiXmlBase@@8	; TiXmlBase::`RTTI Base Class Array'
rdata$r	ENDS
;	COMDAT ??_R3TiXmlBase@@8
rdata$r	SEGMENT
??_R3TiXmlBase@@8 DD 00H				; TiXmlBase::`RTTI Class Hierarchy Descriptor'
	DD	00H
	DD	01H
	DD	FLAT:??_R2TiXmlBase@@8
rdata$r	ENDS
;	COMDAT ??_R0?AVTiXmlBase@@@8
data$rs	SEGMENT
??_R0?AVTiXmlBase@@@8 DD FLAT:??_7type_info@@6B@	; TiXmlBase `RTTI Type Descriptor'
	DD	00H
	DB	'.?AVTiXmlBase@@', 00H
data$rs	ENDS
;	COMDAT ??_R1A@?0A@EA@TiXmlBase@@8
rdata$r	SEGMENT
??_R1A@?0A@EA@TiXmlBase@@8 DD FLAT:??_R0?AVTiXmlBase@@@8 ; TiXmlBase::`RTTI Base Class Descriptor at (0,-1,0,64)'
	DD	00H
	DD	00H
	DD	0ffffffffH
	DD	00H
	DD	040H
	DD	FLAT:??_R3TiXmlBase@@8
rdata$r	ENDS
;	COMDAT ??_R2TiXmlNode@@8
rdata$r	SEGMENT
??_R2TiXmlNode@@8 DD FLAT:??_R1A@?0A@EA@TiXmlNode@@8	; TiXmlNode::`RTTI Base Class Array'
	DD	FLAT:??_R1A@?0A@EA@TiXmlBase@@8
rdata$r	ENDS
;	COMDAT ??_R3TiXmlNode@@8
rdata$r	SEGMENT
??_R3TiXmlNode@@8 DD 00H				; TiXmlNode::`RTTI Class Hierarchy Descriptor'
	DD	00H
	DD	02H
	DD	FLAT:??_R2TiXmlNode@@8
rdata$r	ENDS
;	COMDAT ??_R0?AVTiXmlNode@@@8
data$rs	SEGMENT
??_R0?AVTiXmlNode@@@8 DD FLAT:??_7type_info@@6B@	; TiXmlNode `RTTI Type Descriptor'
	DD	00H
	DB	'.?AVTiXmlNode@@', 00H
data$rs	ENDS
;	COMDAT ??_R1A@?0A@EA@TiXmlNode@@8
rdata$r	SEGMENT
??_R1A@?0A@EA@TiXmlNode@@8 DD FLAT:??_R0?AVTiXmlNode@@@8 ; TiXmlNode::`RTTI Base Class Descriptor at (0,-1,0,64)'
	DD	01H
	DD	00H
	DD	0ffffffffH
	DD	00H
	DD	040H
	DD	FLAT:??_R3TiXmlNode@@8
rdata$r	ENDS
;	COMDAT ??_R1A@?0A@EA@TiXmlDocument@@8
rdata$r	SEGMENT
??_R1A@?0A@EA@TiXmlDocument@@8 DD FLAT:??_R0?AVTiXmlDocument@@@8 ; TiXmlDocument::`RTTI Base Class Descriptor at (0,-1,0,64)'
	DD	02H
	DD	00H
	DD	0ffffffffH
	DD	00H
	DD	040H
	DD	FLAT:??_R3TiXmlDocument@@8
rdata$r	ENDS
;	COMDAT ??_R2TiXmlDocument@@8
rdata$r	SEGMENT
??_R2TiXmlDocument@@8 DD FLAT:??_R1A@?0A@EA@TiXmlDocument@@8 ; TiXmlDocument::`RTTI Base Class Array'
	DD	FLAT:??_R1A@?0A@EA@TiXmlNode@@8
	DD	FLAT:??_R1A@?0A@EA@TiXmlBase@@8
rdata$r	ENDS
;	COMDAT ??_R3TiXmlDocument@@8
rdata$r	SEGMENT
??_R3TiXmlDocument@@8 DD 00H				; TiXmlDocument::`RTTI Class Hierarchy Descriptor'
	DD	00H
	DD	03H
	DD	FLAT:??_R2TiXmlDocument@@8
rdata$r	ENDS
;	COMDAT ??_R0?AVTiXmlDocument@@@8
data$rs	SEGMENT
??_R0?AVTiXmlDocument@@@8 DD FLAT:??_7type_info@@6B@	; TiXmlDocument `RTTI Type Descriptor'
	DD	00H
	DB	'.?AVTiXmlDocument@@', 00H
data$rs	ENDS
;	COMDAT ??_R4TiXmlDocument@@6B@
rdata$r	SEGMENT
??_R4TiXmlDocument@@6B@ DD 00H				; TiXmlDocument::`RTTI Complete Object Locator'
	DD	00H
	DD	00H
	DD	FLAT:??_R0?AVTiXmlDocument@@@8
	DD	FLAT:??_R3TiXmlDocument@@8
rdata$r	ENDS
;	COMDAT ??_R1A@?0A@EA@i3FileStream@@8
rdata$r	SEGMENT
??_R1A@?0A@EA@i3FileStream@@8 DD FLAT:??_R0?AVi3FileStream@@@8 ; i3FileStream::`RTTI Base Class Descriptor at (0,-1,0,64)'
	DD	02H
	DD	00H
	DD	0ffffffffH
	DD	00H
	DD	040H
	DD	FLAT:??_R3i3FileStream@@8
rdata$r	ENDS
;	COMDAT ??_R2i3FileStream@@8
rdata$r	SEGMENT
??_R2i3FileStream@@8 DD FLAT:??_R1A@?0A@EA@i3FileStream@@8 ; i3FileStream::`RTTI Base Class Array'
	DD	FLAT:??_R1A@?0A@EA@i3Stream@@8
	DD	FLAT:??_R1A@?0A@EA@i3ElementBase@@8
rdata$r	ENDS
;	COMDAT ??_R3i3FileStream@@8
rdata$r	SEGMENT
??_R3i3FileStream@@8 DD 00H				; i3FileStream::`RTTI Class Hierarchy Descriptor'
	DD	00H
	DD	03H
	DD	FLAT:??_R2i3FileStream@@8
rdata$r	ENDS
;	COMDAT ??_R0?AVi3FileStream@@@8
data$rs	SEGMENT
??_R0?AVi3FileStream@@@8 DD FLAT:??_7type_info@@6B@	; i3FileStream `RTTI Type Descriptor'
	DD	00H
	DB	'.?AVi3FileStream@@', 00H
data$rs	ENDS
;	COMDAT ??_R4i3FileStream@@6B@
rdata$r	SEGMENT
??_R4i3FileStream@@6B@ DD 00H				; i3FileStream::`RTTI Complete Object Locator'
	DD	00H
	DD	00H
	DD	FLAT:??_R0?AVi3FileStream@@@8
	DD	FLAT:??_R3i3FileStream@@8
rdata$r	ENDS
;	COMDAT ??_R1A@?0A@EA@i3Stream@@8
rdata$r	SEGMENT
??_R1A@?0A@EA@i3Stream@@8 DD FLAT:??_R0?AVi3Stream@@@8	; i3Stream::`RTTI Base Class Descriptor at (0,-1,0,64)'
	DD	01H
	DD	00H
	DD	0ffffffffH
	DD	00H
	DD	040H
	DD	FLAT:??_R3i3Stream@@8
rdata$r	ENDS
;	COMDAT ??_R2i3Stream@@8
rdata$r	SEGMENT
??_R2i3Stream@@8 DD FLAT:??_R1A@?0A@EA@i3Stream@@8	; i3Stream::`RTTI Base Class Array'
	DD	FLAT:??_R1A@?0A@EA@i3ElementBase@@8
rdata$r	ENDS
;	COMDAT ??_R3i3Stream@@8
rdata$r	SEGMENT
??_R3i3Stream@@8 DD 00H					; i3Stream::`RTTI Class Hierarchy Descriptor'
	DD	00H
	DD	02H
	DD	FLAT:??_R2i3Stream@@8
rdata$r	ENDS
;	COMDAT ??_R0?AVi3Stream@@@8
data$rs	SEGMENT
??_R0?AVi3Stream@@@8 DD FLAT:??_7type_info@@6B@		; i3Stream `RTTI Type Descriptor'
	DD	00H
	DB	'.?AVi3Stream@@', 00H
data$rs	ENDS
;	COMDAT ??_R4i3Stream@@6B@
rdata$r	SEGMENT
??_R4i3Stream@@6B@ DD 00H				; i3Stream::`RTTI Complete Object Locator'
	DD	00H
	DD	00H
	DD	FLAT:??_R0?AVi3Stream@@@8
	DD	FLAT:??_R3i3Stream@@8
rdata$r	ENDS
;	COMDAT ??_R1A@?0A@EA@i3StringList@@8
rdata$r	SEGMENT
??_R1A@?0A@EA@i3StringList@@8 DD FLAT:??_R0?AVi3StringList@@@8 ; i3StringList::`RTTI Base Class Descriptor at (0,-1,0,64)'
	DD	01H
	DD	00H
	DD	0ffffffffH
	DD	00H
	DD	040H
	DD	FLAT:??_R3i3StringList@@8
rdata$r	ENDS
;	COMDAT ??_R2i3StringList@@8
rdata$r	SEGMENT
??_R2i3StringList@@8 DD FLAT:??_R1A@?0A@EA@i3StringList@@8 ; i3StringList::`RTTI Base Class Array'
	DD	FLAT:??_R1A@?0A@EA@i3ElementBase@@8
rdata$r	ENDS
;	COMDAT ??_R3i3StringList@@8
rdata$r	SEGMENT
??_R3i3StringList@@8 DD 00H				; i3StringList::`RTTI Class Hierarchy Descriptor'
	DD	00H
	DD	02H
	DD	FLAT:??_R2i3StringList@@8
rdata$r	ENDS
;	COMDAT ??_R0?AVi3StringList@@@8
data$rs	SEGMENT
??_R0?AVi3StringList@@@8 DD FLAT:??_7type_info@@6B@	; i3StringList `RTTI Type Descriptor'
	DD	00H
	DB	'.?AVi3StringList@@', 00H
data$rs	ENDS
;	COMDAT ??_R4i3StringList@@6B@
rdata$r	SEGMENT
??_R4i3StringList@@6B@ DD 00H				; i3StringList::`RTTI Complete Object Locator'
	DD	00H
	DD	00H
	DD	FLAT:??_R0?AVi3StringList@@@8
	DD	FLAT:??_R3i3StringList@@8
rdata$r	ENDS
;	COMDAT ??_R1A@?0A@EA@i3ClassMeta@@8
rdata$r	SEGMENT
??_R1A@?0A@EA@i3ClassMeta@@8 DD FLAT:??_R0?AVi3ClassMeta@@@8 ; i3ClassMeta::`RTTI Base Class Descriptor at (0,-1,0,64)'
	DD	00H
	DD	00H
	DD	0ffffffffH
	DD	00H
	DD	040H
	DD	FLAT:??_R3i3ClassMeta@@8
rdata$r	ENDS
;	COMDAT ??_R2i3ClassMeta@@8
rdata$r	SEGMENT
??_R2i3ClassMeta@@8 DD FLAT:??_R1A@?0A@EA@i3ClassMeta@@8 ; i3ClassMeta::`RTTI Base Class Array'
rdata$r	ENDS
;	COMDAT ??_R3i3ClassMeta@@8
rdata$r	SEGMENT
??_R3i3ClassMeta@@8 DD 00H				; i3ClassMeta::`RTTI Class Hierarchy Descriptor'
	DD	00H
	DD	01H
	DD	FLAT:??_R2i3ClassMeta@@8
rdata$r	ENDS
;	COMDAT ??_R0?AVi3ClassMeta@@@8
data$rs	SEGMENT
??_R0?AVi3ClassMeta@@@8 DD FLAT:??_7type_info@@6B@	; i3ClassMeta `RTTI Type Descriptor'
	DD	00H
	DB	'.?AVi3ClassMeta@@', 00H
data$rs	ENDS
;	COMDAT ??_R4i3ClassMeta@@6B@
rdata$r	SEGMENT
??_R4i3ClassMeta@@6B@ DD 00H				; i3ClassMeta::`RTTI Complete Object Locator'
	DD	00H
	DD	00H
	DD	FLAT:??_R0?AVi3ClassMeta@@@8
	DD	FLAT:??_R3i3ClassMeta@@8
rdata$r	ENDS
;	COMDAT ??_R1A@?0A@EA@i3MemoryPool@@8
rdata$r	SEGMENT
??_R1A@?0A@EA@i3MemoryPool@@8 DD FLAT:??_R0?AVi3MemoryPool@@@8 ; i3MemoryPool::`RTTI Base Class Descriptor at (0,-1,0,64)'
	DD	00H
	DD	00H
	DD	0ffffffffH
	DD	00H
	DD	040H
	DD	FLAT:??_R3i3MemoryPool@@8
rdata$r	ENDS
;	COMDAT ??_R2i3MemoryPool@@8
rdata$r	SEGMENT
??_R2i3MemoryPool@@8 DD FLAT:??_R1A@?0A@EA@i3MemoryPool@@8 ; i3MemoryPool::`RTTI Base Class Array'
rdata$r	ENDS
;	COMDAT ??_R3i3MemoryPool@@8
rdata$r	SEGMENT
??_R3i3MemoryPool@@8 DD 00H				; i3MemoryPool::`RTTI Class Hierarchy Descriptor'
	DD	00H
	DD	01H
	DD	FLAT:??_R2i3MemoryPool@@8
rdata$r	ENDS
;	COMDAT ??_R0?AVi3MemoryPool@@@8
data$rs	SEGMENT
??_R0?AVi3MemoryPool@@@8 DD FLAT:??_7type_info@@6B@	; i3MemoryPool `RTTI Type Descriptor'
	DD	00H
	DB	'.?AVi3MemoryPool@@', 00H
data$rs	ENDS
;	COMDAT ??_R4i3MemoryPool@@6B@
rdata$r	SEGMENT
??_R4i3MemoryPool@@6B@ DD 00H				; i3MemoryPool::`RTTI Complete Object Locator'
	DD	00H
	DD	00H
	DD	FLAT:??_R0?AVi3MemoryPool@@@8
	DD	FLAT:??_R3i3MemoryPool@@8
rdata$r	ENDS
;	COMDAT ??_R1A@?0A@EA@i3List@@8
rdata$r	SEGMENT
??_R1A@?0A@EA@i3List@@8 DD FLAT:??_R0?AVi3List@@@8	; i3List::`RTTI Base Class Descriptor at (0,-1,0,64)'
	DD	01H
	DD	00H
	DD	0ffffffffH
	DD	00H
	DD	040H
	DD	FLAT:??_R3i3List@@8
rdata$r	ENDS
;	COMDAT ??_R2i3List@@8
rdata$r	SEGMENT
??_R2i3List@@8 DD FLAT:??_R1A@?0A@EA@i3List@@8		; i3List::`RTTI Base Class Array'
	DD	FLAT:??_R1A@?0A@EA@i3ElementBase@@8
rdata$r	ENDS
;	COMDAT ??_R3i3List@@8
rdata$r	SEGMENT
??_R3i3List@@8 DD 00H					; i3List::`RTTI Class Hierarchy Descriptor'
	DD	00H
	DD	02H
	DD	FLAT:??_R2i3List@@8
rdata$r	ENDS
;	COMDAT ??_R0?AVi3List@@@8
data$rs	SEGMENT
??_R0?AVi3List@@@8 DD FLAT:??_7type_info@@6B@		; i3List `RTTI Type Descriptor'
	DD	00H
	DB	'.?AVi3List@@', 00H
data$rs	ENDS
;	COMDAT ??_R4i3List@@6B@
rdata$r	SEGMENT
??_R4i3List@@6B@ DD 00H					; i3List::`RTTI Complete Object Locator'
	DD	00H
	DD	00H
	DD	FLAT:??_R0?AVi3List@@@8
	DD	FLAT:??_R3i3List@@8
rdata$r	ENDS
;	COMDAT ??_R1A@?0A@EA@i3ElementBase@@8
rdata$r	SEGMENT
??_R1A@?0A@EA@i3ElementBase@@8 DD FLAT:??_R0?AVi3ElementBase@@@8 ; i3ElementBase::`RTTI Base Class Descriptor at (0,-1,0,64)'
	DD	00H
	DD	00H
	DD	0ffffffffH
	DD	00H
	DD	040H
	DD	FLAT:??_R3i3ElementBase@@8
rdata$r	ENDS
;	COMDAT ??_R2i3ElementBase@@8
rdata$r	SEGMENT
??_R2i3ElementBase@@8 DD FLAT:??_R1A@?0A@EA@i3ElementBase@@8 ; i3ElementBase::`RTTI Base Class Array'
rdata$r	ENDS
;	COMDAT ??_R3i3ElementBase@@8
rdata$r	SEGMENT
??_R3i3ElementBase@@8 DD 00H				; i3ElementBase::`RTTI Class Hierarchy Descriptor'
	DD	00H
	DD	01H
	DD	FLAT:??_R2i3ElementBase@@8
rdata$r	ENDS
;	COMDAT ??_R0?AVi3ElementBase@@@8
data$rs	SEGMENT
??_R0?AVi3ElementBase@@@8 DD FLAT:??_7type_info@@6B@	; i3ElementBase `RTTI Type Descriptor'
	DD	00H
	DB	'.?AVi3ElementBase@@', 00H
data$rs	ENDS
;	COMDAT ??_R4i3ElementBase@@6B@
rdata$r	SEGMENT
??_R4i3ElementBase@@6B@ DD 00H				; i3ElementBase::`RTTI Complete Object Locator'
	DD	00H
	DD	00H
	DD	FLAT:??_R0?AVi3ElementBase@@@8
	DD	FLAT:??_R3i3ElementBase@@8
rdata$r	ENDS
;	COMDAT ??_C@_01KICIPPFI@?2@
CONST	SEGMENT
??_C@_01KICIPPFI@?2@ DB '\', 00H			; `string'
CONST	ENDS
;	COMDAT ??_C@_02DJGKEECL@?4?4@
CONST	SEGMENT
??_C@_02DJGKEECL@?4?4@ DB '..', 00H			; `string'
CONST	ENDS
;	COMDAT ??_C@_06DNBDMDIL@?$CF?$CF?4?$CFdf@
CONST	SEGMENT
??_C@_06DNBDMDIL@?$CF?$CF?4?$CFdf@ DB '%%.%df', 00H	; `string'
CONST	ENDS
;	COMDAT ??_C@_0EE@HPFMMEMJ@int?5__cdecl?5i3String?3?3UTF8toUCS@
CONST	SEGMENT
??_C@_0EE@HPFMMEMJ@int?5__cdecl?5i3String?3?3UTF8toUCS@ DB 'int __cdecl i'
	DB	'3String::UTF8toUCS2(unsigned short *,const char *,int)', 00H ; `string'
CONST	ENDS
;	COMDAT ??_C@_0BI@PALGGMBM@Need?5more?5buffer?5size?4?6@
CONST	SEGMENT
??_C@_0BI@PALGGMBM@Need?5more?5buffer?5size?4?6@ DB 'Need more buffer siz'
	DB	'e.', 0aH, 00H				; `string'
CONST	ENDS
;	COMDAT ??_C@_0GD@CAEEIHCP@E?3?2Proyectos?2JuegosOnlineproyec@
CONST	SEGMENT
??_C@_0GD@CAEEIHCP@E?3?2Proyectos?2JuegosOnlineproyec@ DB 'E:\Proyectos\J'
	DB	'uegosOnlineproyectos\PB\pbblow\Piercing Blow Remake\i3Server\'
	DB	'src\i3Base\i3String.cpp', 00H		; `string'
CONST	ENDS
;	COMDAT ??_C@_0EE@BFOIMKAA@int?5__cdecl?5i3String?3?3UCS2toUTF@
CONST	SEGMENT
??_C@_0EE@BFOIMKAA@int?5__cdecl?5i3String?3?3UCS2toUTF@ DB 'int __cdecl i'
	DB	'3String::UCS2toUTF8(char *,const unsigned short *,int)', 00H ; `string'
CONST	ENDS
;	COMDAT ??_C@_01LFCBOECM@?4@
CONST	SEGMENT
??_C@_01LFCBOECM@?4@ DB '.', 00H			; `string'
CONST	ENDS
;	COMDAT ??_C@_03JALODAI@?$CFld@
CONST	SEGMENT
??_C@_03JALODAI@?$CFld@ DB '%ld', 00H			; `string'
CONST	ENDS
;	COMDAT ??_C@_15HBBGCAG@?$AA?$CF?$AAf@
CONST	SEGMENT
??_C@_15HBBGCAG@?$AA?$CF?$AAf@ DB '%', 00H, 'f', 00H, 00H, 00H ; `string'
CONST	ENDS
;	COMDAT ??_C@_02NJPGOMH@?$CFf@
CONST	SEGMENT
??_C@_02NJPGOMH@?$CFf@ DB '%f', 00H			; `string'
CONST	ENDS
;	COMDAT ??_7i3StringList@@6B@
CONST	SEGMENT
??_7i3StringList@@6B@ DD FLAT:??_R4i3StringList@@6B@	; i3StringList::`vftable'
	DD	FLAT:?GetMeta@i3StringList@@UAEPAVi3ClassMeta@@XZ
	DD	FLAT:??_Ei3StringList@@UAEPAXI@Z
	DD	FLAT:?CopyTo@i3ElementBase@@UAEXPAV1@W4I3_COPY_METHOD@@@Z
	DD	FLAT:?IndexOf@i3StringList@@UBEHPAD@Z
	DD	FLAT:?Add@i3StringList@@UAEHPADH@Z
	DD	FLAT:?Insert@i3StringList@@UAEHHPADH@Z
	DD	FLAT:?Delete@i3StringList@@UAEHH@Z
	DD	FLAT:?Remove@i3StringList@@UAEHPAD@Z
	DD	FLAT:?Clear@i3StringList@@UAEXXZ
CONST	ENDS
;	COMDAT ??_C@_0GD@LNMGNFKI@E?3?2Proyectos?2JuegosOnlineproyec@
CONST	SEGMENT
??_C@_0GD@LNMGNFKI@E?3?2Proyectos?2JuegosOnlineproyec@ DB 'E:\Proyectos\J'
	DB	'uegosOnlineproyectos\PB\pbblow\Piercing Blow Remake\i3Server\'
	DB	'include\i3Base\i3List.h', 00H		; `string'
CONST	ENDS
;	COMDAT ??_7i3List@@6B@
CONST	SEGMENT
??_7i3List@@6B@ DD FLAT:??_R4i3List@@6B@		; i3List::`vftable'
	DD	FLAT:?GetMeta@i3List@@UAEPAVi3ClassMeta@@XZ
	DD	FLAT:??_Ei3List@@UAEPAXI@Z
	DD	FLAT:?CopyTo@i3ElementBase@@UAEXPAV1@W4I3_COPY_METHOD@@@Z
	DD	FLAT:?IndexOf@i3List@@UBEHPBX@Z
	DD	FLAT:?Add@i3List@@UAEHPAX@Z
	DD	FLAT:?Insert@i3List@@UAEHHPAX@Z
	DD	FLAT:?Delete@i3List@@UAEHH@Z
	DD	FLAT:?Remove@i3List@@UAEHPAX@Z
	DD	FLAT:?Clear@i3List@@UAEXH@Z
CONST	ENDS
;	COMDAT ??_7i3XMLElement@@6B@
CONST	SEGMENT
??_7i3XMLElement@@6B@ DD FLAT:??_R4i3XMLElement@@6B@	; i3XMLElement::`vftable'
	DD	FLAT:??_Ei3XMLElement@@UAEPAXI@Z
	DD	FLAT:?Print@TiXmlElement@@UBEXPAVi3FileStream@@H@Z
	DD	FLAT:?Parse@TiXmlElement@@UAEPBDPBDPAVTiXmlParsingData@@W4TiXmlEncoding@@@Z
	DD	FLAT:?ToDocument@TiXmlNode@@UAEPAVTiXmlDocument@@XZ
	DD	FLAT:?ToDocument@TiXmlNode@@UBEPBVTiXmlDocument@@XZ
	DD	FLAT:?ToElement@TiXmlElement@@UAEPAV1@XZ
	DD	FLAT:?ToElement@TiXmlElement@@UBEPBV1@XZ
	DD	FLAT:?ToComment@TiXmlNode@@UAEPAVTiXmlComment@@XZ
	DD	FLAT:?ToComment@TiXmlNode@@UBEPBVTiXmlComment@@XZ
	DD	FLAT:?ToUnknown@TiXmlNode@@UAEPAVTiXmlUnknown@@XZ
	DD	FLAT:?ToUnknown@TiXmlNode@@UBEPBVTiXmlUnknown@@XZ
	DD	FLAT:?ToText@TiXmlNode@@UAEPAVTiXmlText@@XZ
	DD	FLAT:?ToText@TiXmlNode@@UBEPBVTiXmlText@@XZ
	DD	FLAT:?ToDeclaration@TiXmlNode@@UAEPAVTiXmlDeclaration@@XZ
	DD	FLAT:?ToDeclaration@TiXmlNode@@UBEPBVTiXmlDeclaration@@XZ
	DD	FLAT:?Clone@TiXmlElement@@UBEPAVTiXmlNode@@XZ
	DD	FLAT:?Accept@TiXmlElement@@UBE_NPAVTiXmlVisitor@@@Z
CONST	ENDS
;	COMDAT ??_C@_01EEMJAFIK@?6@
CONST	SEGMENT
??_C@_01EEMJAFIK@?6@ DB 0aH, 00H			; `string'
CONST	ENDS
;	COMDAT ??_C@_04PFOHOKJK@?5?5?5?5@
CONST	SEGMENT
??_C@_04PFOHOKJK@?5?5?5?5@ DB '    ', 00H		; `string'
CONST	ENDS
;	COMDAT ??_7TiXmlPrinter@@6B@
CONST	SEGMENT
??_7TiXmlPrinter@@6B@ DD FLAT:??_R4TiXmlPrinter@@6B@	; TiXmlPrinter::`vftable'
	DD	FLAT:??_ETiXmlPrinter@@UAEPAXI@Z
	DD	FLAT:?VisitEnter@TiXmlPrinter@@UAE_NABVTiXmlElement@@PBVTiXmlAttribute@@@Z
	DD	FLAT:?VisitEnter@TiXmlPrinter@@UAE_NABVTiXmlDocument@@@Z
	DD	FLAT:?VisitExit@TiXmlPrinter@@UAE_NABVTiXmlElement@@@Z
	DD	FLAT:?VisitExit@TiXmlPrinter@@UAE_NABVTiXmlDocument@@@Z
	DD	FLAT:?Visit@TiXmlPrinter@@UAE_NABVTiXmlUnknown@@@Z
	DD	FLAT:?Visit@TiXmlPrinter@@UAE_NABVTiXmlComment@@@Z
	DD	FLAT:?Visit@TiXmlPrinter@@UAE_NABVTiXmlText@@@Z
	DD	FLAT:?Visit@TiXmlPrinter@@UAE_NABVTiXmlDeclaration@@@Z
CONST	ENDS
;	COMDAT ??_C@_00CNPNBAHC@@
CONST	SEGMENT
??_C@_00CNPNBAHC@@ DB 00H				; `string'
CONST	ENDS
;	COMDAT ??_7TiXmlDocument@@6B@
CONST	SEGMENT
??_7TiXmlDocument@@6B@ DD FLAT:??_R4TiXmlDocument@@6B@	; TiXmlDocument::`vftable'
	DD	FLAT:??_ETiXmlDocument@@UAEPAXI@Z
	DD	FLAT:?Print@TiXmlDocument@@UBEXPAVi3FileStream@@H@Z
	DD	FLAT:?Parse@TiXmlDocument@@UAEPBDPBDPAVTiXmlParsingData@@W4TiXmlEncoding@@@Z
	DD	FLAT:?ToDocument@TiXmlDocument@@UAEPAV1@XZ
	DD	FLAT:?ToDocument@TiXmlDocument@@UBEPBV1@XZ
	DD	FLAT:?ToElement@TiXmlNode@@UAEPAVTiXmlElement@@XZ
	DD	FLAT:?ToElement@TiXmlNode@@UBEPBVTiXmlElement@@XZ
	DD	FLAT:?ToComment@TiXmlNode@@UAEPAVTiXmlComment@@XZ
	DD	FLAT:?ToComment@TiXmlNode@@UBEPBVTiXmlComment@@XZ
	DD	FLAT:?ToUnknown@TiXmlNode@@UAEPAVTiXmlUnknown@@XZ
	DD	FLAT:?ToUnknown@TiXmlNode@@UBEPBVTiXmlUnknown@@XZ
	DD	FLAT:?ToText@TiXmlNode@@UAEPAVTiXmlText@@XZ
	DD	FLAT:?ToText@TiXmlNode@@UBEPBVTiXmlText@@XZ
	DD	FLAT:?ToDeclaration@TiXmlNode@@UAEPAVTiXmlDeclaration@@XZ
	DD	FLAT:?ToDeclaration@TiXmlNode@@UBEPBVTiXmlDeclaration@@XZ
	DD	FLAT:?Clone@TiXmlDocument@@MBEPAVTiXmlNode@@XZ
	DD	FLAT:?Accept@TiXmlDocument@@UBE_NPAVTiXmlVisitor@@@Z
CONST	ENDS
;	COMDAT ??_7TiXmlUnknown@@6B@
CONST	SEGMENT
??_7TiXmlUnknown@@6B@ DD FLAT:??_R4TiXmlUnknown@@6B@	; TiXmlUnknown::`vftable'
	DD	FLAT:??_ETiXmlUnknown@@UAEPAXI@Z
	DD	FLAT:?Print@TiXmlUnknown@@UBEXPAVi3FileStream@@H@Z
	DD	FLAT:?Parse@TiXmlUnknown@@UAEPBDPBDPAVTiXmlParsingData@@W4TiXmlEncoding@@@Z
	DD	FLAT:?ToDocument@TiXmlNode@@UAEPAVTiXmlDocument@@XZ
	DD	FLAT:?ToDocument@TiXmlNode@@UBEPBVTiXmlDocument@@XZ
	DD	FLAT:?ToElement@TiXmlNode@@UAEPAVTiXmlElement@@XZ
	DD	FLAT:?ToElement@TiXmlNode@@UBEPBVTiXmlElement@@XZ
	DD	FLAT:?ToComment@TiXmlNode@@UAEPAVTiXmlComment@@XZ
	DD	FLAT:?ToComment@TiXmlNode@@UBEPBVTiXmlComment@@XZ
	DD	FLAT:?ToUnknown@TiXmlUnknown@@UAEPAV1@XZ
	DD	FLAT:?ToUnknown@TiXmlUnknown@@UBEPBV1@XZ
	DD	FLAT:?ToText@TiXmlNode@@UAEPAVTiXmlText@@XZ
	DD	FLAT:?ToText@TiXmlNode@@UBEPBVTiXmlText@@XZ
	DD	FLAT:?ToDeclaration@TiXmlNode@@UAEPAVTiXmlDeclaration@@XZ
	DD	FLAT:?ToDeclaration@TiXmlNode@@UBEPBVTiXmlDeclaration@@XZ
	DD	FLAT:?Clone@TiXmlUnknown@@UBEPAVTiXmlNode@@XZ
	DD	FLAT:?Accept@TiXmlUnknown@@UBE_NPAVTiXmlVisitor@@@Z
CONST	ENDS
;	COMDAT ??_7TiXmlDeclaration@@6B@
CONST	SEGMENT
??_7TiXmlDeclaration@@6B@ DD FLAT:??_R4TiXmlDeclaration@@6B@ ; TiXmlDeclaration::`vftable'
	DD	FLAT:??_ETiXmlDeclaration@@UAEPAXI@Z
	DD	FLAT:?Print@TiXmlDeclaration@@UBEXPAVi3FileStream@@H@Z
	DD	FLAT:?Parse@TiXmlDeclaration@@UAEPBDPBDPAVTiXmlParsingData@@W4TiXmlEncoding@@@Z
	DD	FLAT:?ToDocument@TiXmlNode@@UAEPAVTiXmlDocument@@XZ
	DD	FLAT:?ToDocument@TiXmlNode@@UBEPBVTiXmlDocument@@XZ
	DD	FLAT:?ToElement@TiXmlNode@@UAEPAVTiXmlElement@@XZ
	DD	FLAT:?ToElement@TiXmlNode@@UBEPBVTiXmlElement@@XZ
	DD	FLAT:?ToComment@TiXmlNode@@UAEPAVTiXmlComment@@XZ
	DD	FLAT:?ToComment@TiXmlNode@@UBEPBVTiXmlComment@@XZ
	DD	FLAT:?ToUnknown@TiXmlNode@@UAEPAVTiXmlUnknown@@XZ
	DD	FLAT:?ToUnknown@TiXmlNode@@UBEPBVTiXmlUnknown@@XZ
	DD	FLAT:?ToText@TiXmlNode@@UAEPAVTiXmlText@@XZ
	DD	FLAT:?ToText@TiXmlNode@@UBEPBVTiXmlText@@XZ
	DD	FLAT:?ToDeclaration@TiXmlDeclaration@@UAEPAV1@XZ
	DD	FLAT:?ToDeclaration@TiXmlDeclaration@@UBEPBV1@XZ
	DD	FLAT:?Clone@TiXmlDeclaration@@UBEPAVTiXmlNode@@XZ
	DD	FLAT:?Accept@TiXmlDeclaration@@UBE_NPAVTiXmlVisitor@@@Z
	DD	FLAT:?Print@TiXmlDeclaration@@UBEXPAVi3FileStream@@HPAVTiXmlString@@@Z
CONST	ENDS
;	COMDAT ??_7TiXmlText@@6B@
CONST	SEGMENT
??_7TiXmlText@@6B@ DD FLAT:??_R4TiXmlText@@6B@		; TiXmlText::`vftable'
	DD	FLAT:??_ETiXmlText@@UAEPAXI@Z
	DD	FLAT:?Print@TiXmlText@@UBEXPAVi3FileStream@@H@Z
	DD	FLAT:?Parse@TiXmlText@@UAEPBDPBDPAVTiXmlParsingData@@W4TiXmlEncoding@@@Z
	DD	FLAT:?ToDocument@TiXmlNode@@UAEPAVTiXmlDocument@@XZ
	DD	FLAT:?ToDocument@TiXmlNode@@UBEPBVTiXmlDocument@@XZ
	DD	FLAT:?ToElement@TiXmlNode@@UAEPAVTiXmlElement@@XZ
	DD	FLAT:?ToElement@TiXmlNode@@UBEPBVTiXmlElement@@XZ
	DD	FLAT:?ToComment@TiXmlNode@@UAEPAVTiXmlComment@@XZ
	DD	FLAT:?ToComment@TiXmlNode@@UBEPBVTiXmlComment@@XZ
	DD	FLAT:?ToUnknown@TiXmlNode@@UAEPAVTiXmlUnknown@@XZ
	DD	FLAT:?ToUnknown@TiXmlNode@@UBEPBVTiXmlUnknown@@XZ
	DD	FLAT:?ToText@TiXmlText@@UAEPAV1@XZ
	DD	FLAT:?ToText@TiXmlText@@UBEPBV1@XZ
	DD	FLAT:?ToDeclaration@TiXmlNode@@UAEPAVTiXmlDeclaration@@XZ
	DD	FLAT:?ToDeclaration@TiXmlNode@@UBEPBVTiXmlDeclaration@@XZ
	DD	FLAT:?Clone@TiXmlText@@MBEPAVTiXmlNode@@XZ
	DD	FLAT:?Accept@TiXmlText@@UBE_NPAVTiXmlVisitor@@@Z
CONST	ENDS
;	COMDAT ??_7TiXmlComment@@6B@
CONST	SEGMENT
??_7TiXmlComment@@6B@ DD FLAT:??_R4TiXmlComment@@6B@	; TiXmlComment::`vftable'
	DD	FLAT:??_ETiXmlComment@@UAEPAXI@Z
	DD	FLAT:?Print@TiXmlComment@@UBEXPAVi3FileStream@@H@Z
	DD	FLAT:?Parse@TiXmlComment@@UAEPBDPBDPAVTiXmlParsingData@@W4TiXmlEncoding@@@Z
	DD	FLAT:?ToDocument@TiXmlNode@@UAEPAVTiXmlDocument@@XZ
	DD	FLAT:?ToDocument@TiXmlNode@@UBEPBVTiXmlDocument@@XZ
	DD	FLAT:?ToElement@TiXmlNode@@UAEPAVTiXmlElement@@XZ
	DD	FLAT:?ToElement@TiXmlNode@@UBEPBVTiXmlElement@@XZ
	DD	FLAT:?ToComment@TiXmlComment@@UAEPAV1@XZ
	DD	FLAT:?ToComment@TiXmlComment@@UBEPBV1@XZ
	DD	FLAT:?ToUnknown@TiXmlNode@@UAEPAVTiXmlUnknown@@XZ
	DD	FLAT:?ToUnknown@TiXmlNode@@UBEPBVTiXmlUnknown@@XZ
	DD	FLAT:?ToText@TiXmlNode@@UAEPAVTiXmlText@@XZ
	DD	FLAT:?ToText@TiXmlNode@@UBEPBVTiXmlText@@XZ
	DD	FLAT:?ToDeclaration@TiXmlNode@@UAEPAVTiXmlDeclaration@@XZ
	DD	FLAT:?ToDeclaration@TiXmlNode@@UBEPBVTiXmlDeclaration@@XZ
	DD	FLAT:?Clone@TiXmlComment@@UBEPAVTiXmlNode@@XZ
	DD	FLAT:?Accept@TiXmlComment@@UBE_NPAVTiXmlVisitor@@@Z
CONST	ENDS
;	COMDAT ??_7TiXmlAttribute@@6B@
CONST	SEGMENT
??_7TiXmlAttribute@@6B@ DD FLAT:??_R4TiXmlAttribute@@6B@ ; TiXmlAttribute::`vftable'
	DD	FLAT:??_ETiXmlAttribute@@UAEPAXI@Z
	DD	FLAT:?Print@TiXmlAttribute@@UBEXPAVi3FileStream@@H@Z
	DD	FLAT:?Parse@TiXmlAttribute@@UAEPBDPBDPAVTiXmlParsingData@@W4TiXmlEncoding@@@Z
CONST	ENDS
;	COMDAT ??_7TiXmlBase@@6B@
CONST	SEGMENT
??_7TiXmlBase@@6B@ DD FLAT:??_R4TiXmlBase@@6B@		; TiXmlBase::`vftable'
	DD	FLAT:??_ETiXmlBase@@UAEPAXI@Z
	DD	FLAT:__purecall
	DD	FLAT:__purecall
CONST	ENDS
;	COMDAT ??_7TiXmlVisitor@@6B@
CONST	SEGMENT
??_7TiXmlVisitor@@6B@ DD FLAT:??_R4TiXmlVisitor@@6B@	; TiXmlVisitor::`vftable'
	DD	FLAT:??_ETiXmlVisitor@@UAEPAXI@Z
	DD	FLAT:?VisitEnter@TiXmlVisitor@@UAE_NABVTiXmlElement@@PBVTiXmlAttribute@@@Z
	DD	FLAT:?VisitEnter@TiXmlVisitor@@UAE_NABVTiXmlDocument@@@Z
	DD	FLAT:?VisitExit@TiXmlVisitor@@UAE_NABVTiXmlElement@@@Z
	DD	FLAT:?VisitExit@TiXmlVisitor@@UAE_NABVTiXmlDocument@@@Z
	DD	FLAT:?Visit@TiXmlVisitor@@UAE_NABVTiXmlUnknown@@@Z
	DD	FLAT:?Visit@TiXmlVisitor@@UAE_NABVTiXmlComment@@@Z
	DD	FLAT:?Visit@TiXmlVisitor@@UAE_NABVTiXmlText@@@Z
	DD	FLAT:?Visit@TiXmlVisitor@@UAE_NABVTiXmlDeclaration@@@Z
CONST	ENDS
;	COMDAT ??_7i3FileStream@@6B@
CONST	SEGMENT
??_7i3FileStream@@6B@ DD FLAT:??_R4i3FileStream@@6B@	; i3FileStream::`vftable'
	DD	FLAT:?GetMeta@i3FileStream@@UAEPAVi3ClassMeta@@XZ
	DD	FLAT:??_Ei3FileStream@@UAEPAXI@Z
	DD	FLAT:?CopyTo@i3ElementBase@@UAEXPAV1@W4I3_COPY_METHOD@@@Z
	DD	FLAT:?GetHandle@i3FileStream@@UAEPAXXZ
	DD	FLAT:?Create@i3FileStream@@UAEHPBDHI@Z
	DD	FLAT:?Open@i3FileStream@@UAEHPBDHI@Z
	DD	FLAT:?Close@i3FileStream@@UAEHXZ
	DD	FLAT:?Read@i3FileStream@@UAEIPAXH@Z
	DD	FLAT:?CopyTo@i3Stream@@UAEIPAV1@I@Z
	DD	FLAT:?Write@i3FileStream@@UAEIPBXH@Z
	DD	FLAT:?CopyFrom@i3Stream@@UAEIPAV1@I@Z
	DD	FLAT:?SetPosition@i3FileStream@@UAEIHH@Z
	DD	FLAT:?GetPosition@i3FileStream@@UAEIXZ
	DD	FLAT:?ReadLine@i3Stream@@UAEIPADH@Z
	DD	FLAT:?ReadLineW@i3Stream@@UAEIPAGH@Z
	DD	FLAT:?WriteLine@i3Stream@@UAEIPBD@Z
	DD	FLAT:?WriteLineW@i3Stream@@UAEIPBG@Z
	DD	FLAT:?Printf@i3Stream@@UAAIPADPBDZZ
CONST	ENDS
;	COMDAT ??_7i3Stream@@6B@
CONST	SEGMENT
??_7i3Stream@@6B@ DD FLAT:??_R4i3Stream@@6B@		; i3Stream::`vftable'
	DD	FLAT:?GetMeta@i3Stream@@UAEPAVi3ClassMeta@@XZ
	DD	FLAT:??_Ei3Stream@@UAEPAXI@Z
	DD	FLAT:?CopyTo@i3ElementBase@@UAEXPAV1@W4I3_COPY_METHOD@@@Z
	DD	FLAT:?GetHandle@i3Stream@@UAEPAXXZ
	DD	FLAT:__purecall
	DD	FLAT:__purecall
	DD	FLAT:__purecall
	DD	FLAT:__purecall
	DD	FLAT:?CopyTo@i3Stream@@UAEIPAV1@I@Z
	DD	FLAT:__purecall
	DD	FLAT:?CopyFrom@i3Stream@@UAEIPAV1@I@Z
	DD	FLAT:__purecall
	DD	FLAT:__purecall
	DD	FLAT:?ReadLine@i3Stream@@UAEIPADH@Z
	DD	FLAT:?ReadLineW@i3Stream@@UAEIPAGH@Z
	DD	FLAT:?WriteLine@i3Stream@@UAEIPBD@Z
	DD	FLAT:?WriteLineW@i3Stream@@UAEIPBG@Z
	DD	FLAT:?Printf@i3Stream@@UAAIPADPBDZZ
CONST	ENDS
;	COMDAT ??_7i3MemoryPool@@6B@
CONST	SEGMENT
??_7i3MemoryPool@@6B@ DD FLAT:??_R4i3MemoryPool@@6B@	; i3MemoryPool::`vftable'
	DD	FLAT:??_Ei3MemoryPool@@UAEPAXI@Z
	DD	FLAT:__purecall
	DD	FLAT:__purecall
CONST	ENDS
;	COMDAT ??_7i3ElementBase@@6B@
CONST	SEGMENT
??_7i3ElementBase@@6B@ DD FLAT:??_R4i3ElementBase@@6B@	; i3ElementBase::`vftable'
	DD	FLAT:?GetMeta@i3ElementBase@@UAEPAVi3ClassMeta@@XZ
	DD	FLAT:??_Ei3ElementBase@@UAEPAXI@Z
	DD	FLAT:?CopyTo@i3ElementBase@@UAEXPAV1@W4I3_COPY_METHOD@@@Z
CONST	ENDS
;	COMDAT ??_7i3ClassMeta@@6B@
CONST	SEGMENT
??_7i3ClassMeta@@6B@ DD FLAT:??_R4i3ClassMeta@@6B@	; i3ClassMeta::`vftable'
	DD	FLAT:??_Ei3ClassMeta@@UAEPAXI@Z
	DD	FLAT:?CreateInstance@i3ClassMeta@@UAEPAVi3ElementBase@@W4I3_CLASSMETA_TYPE@@@Z
	DD	FLAT:?BindInstance@i3ClassMeta@@UAEPAVi3ElementBase@@PAXW4I3_CLASSMETA_TYPE@@@Z
CONST	ENDS
;	COMDAT xdata$x
xdata$x	SEGMENT
__unwindtable$?MakeRelativePath@i3String@@YAXPBD0PADH@Z DD 0ffffffffH
	DD	FLAT:__unwindfunclet$?MakeRelativePath@i3String@@YAXPBD0PADH@Z$0
	DD	00H
	DD	FLAT:__unwindfunclet$?MakeRelativePath@i3String@@YAXPBD0PADH@Z$1
__ehfuncinfo$?MakeRelativePath@i3String@@YAXPBD0PADH@Z DD 019930522H
	DD	02H
	DD	FLAT:__unwindtable$?MakeRelativePath@i3String@@YAXPBD0PADH@Z
	DD	2 DUP(00H)
	DD	2 DUP(00H)
	DD	00H
	DD	01H
xdata$x	ENDS
;	COMDAT xdata$x
xdata$x	SEGMENT
__ehfuncinfo$??_Ei3StringList@@UAEPAXI@Z DD 019930522H
	DD	00H
	DD	00H
	DD	2 DUP(00H)
	DD	2 DUP(00H)
	DD	00H
	DD	05H
xdata$x	ENDS
;	COMDAT xdata$x
xdata$x	SEGMENT
__ehfuncinfo$??_Ei3List@@UAEPAXI@Z DD 019930522H
	DD	00H
	DD	00H
	DD	2 DUP(00H)
	DD	2 DUP(00H)
	DD	00H
	DD	05H
xdata$x	ENDS
;	COMDAT xdata$x
xdata$x	SEGMENT
__ehfuncinfo$??_Ei3XMLElement@@UAEPAXI@Z DD 019930522H
	DD	00H
	DD	00H
	DD	2 DUP(00H)
	DD	2 DUP(00H)
	DD	00H
	DD	05H
xdata$x	ENDS
;	COMDAT xdata$x
xdata$x	SEGMENT
__ehfuncinfo$??_ETiXmlPrinter@@UAEPAXI@Z DD 019930522H
	DD	00H
	DD	00H
	DD	2 DUP(00H)
	DD	2 DUP(00H)
	DD	00H
	DD	05H
xdata$x	ENDS
;	COMDAT xdata$x
xdata$x	SEGMENT
__unwindtable$??0TiXmlPrinter@@QAE@$$QAV0@@Z DD 0ffffffffH
	DD	FLAT:__unwindfunclet$??0TiXmlPrinter@@QAE@$$QAV0@@Z$0
	DD	00H
	DD	FLAT:__unwindfunclet$??0TiXmlPrinter@@QAE@$$QAV0@@Z$1
	DD	01H
	DD	FLAT:__unwindfunclet$??0TiXmlPrinter@@QAE@$$QAV0@@Z$2
__ehfuncinfo$??0TiXmlPrinter@@QAE@$$QAV0@@Z DD 019930522H
	DD	03H
	DD	FLAT:__unwindtable$??0TiXmlPrinter@@QAE@$$QAV0@@Z
	DD	2 DUP(00H)
	DD	2 DUP(00H)
	DD	00H
	DD	01H
xdata$x	ENDS
;	COMDAT xdata$x
xdata$x	SEGMENT
__unwindtable$??0TiXmlPrinter@@QAE@ABV0@@Z DD 0ffffffffH
	DD	FLAT:__unwindfunclet$??0TiXmlPrinter@@QAE@ABV0@@Z$0
	DD	00H
	DD	FLAT:__unwindfunclet$??0TiXmlPrinter@@QAE@ABV0@@Z$1
	DD	01H
	DD	FLAT:__unwindfunclet$??0TiXmlPrinter@@QAE@ABV0@@Z$2
__ehfuncinfo$??0TiXmlPrinter@@QAE@ABV0@@Z DD 019930522H
	DD	03H
	DD	FLAT:__unwindtable$??0TiXmlPrinter@@QAE@ABV0@@Z
	DD	2 DUP(00H)
	DD	2 DUP(00H)
	DD	00H
	DD	01H
xdata$x	ENDS
;	COMDAT xdata$x
xdata$x	SEGMENT
__unwindtable$??0TiXmlPrinter@@QAE@XZ DD 0ffffffffH
	DD	FLAT:__unwindfunclet$??0TiXmlPrinter@@QAE@XZ$0
	DD	00H
	DD	FLAT:__unwindfunclet$??0TiXmlPrinter@@QAE@XZ$1
	DD	01H
	DD	FLAT:__unwindfunclet$??0TiXmlPrinter@@QAE@XZ$2
__ehfuncinfo$??0TiXmlPrinter@@QAE@XZ DD 019930522H
	DD	03H
	DD	FLAT:__unwindtable$??0TiXmlPrinter@@QAE@XZ
	DD	2 DUP(00H)
	DD	2 DUP(00H)
	DD	00H
	DD	01H
xdata$x	ENDS
;	COMDAT xdata$x
xdata$x	SEGMENT
__ehfuncinfo$??_ETiXmlDocument@@UAEPAXI@Z DD 019930522H
	DD	00H
	DD	00H
	DD	2 DUP(00H)
	DD	2 DUP(00H)
	DD	00H
	DD	05H
xdata$x	ENDS
;	COMDAT xdata$x
xdata$x	SEGMENT
__ehfuncinfo$??_ETiXmlUnknown@@UAEPAXI@Z DD 019930522H
	DD	00H
	DD	00H
	DD	2 DUP(00H)
	DD	2 DUP(00H)
	DD	00H
	DD	05H
xdata$x	ENDS
;	COMDAT xdata$x
xdata$x	SEGMENT
__unwindtable$??0TiXmlUnknown@@QAE@ABV0@@Z DD 0ffffffffH
	DD	FLAT:__unwindfunclet$??0TiXmlUnknown@@QAE@ABV0@@Z$0
__ehfuncinfo$??0TiXmlUnknown@@QAE@ABV0@@Z DD 019930522H
	DD	01H
	DD	FLAT:__unwindtable$??0TiXmlUnknown@@QAE@ABV0@@Z
	DD	2 DUP(00H)
	DD	2 DUP(00H)
	DD	00H
	DD	01H
xdata$x	ENDS
;	COMDAT xdata$x
xdata$x	SEGMENT
__ehfuncinfo$??_ETiXmlDeclaration@@UAEPAXI@Z DD 019930522H
	DD	00H
	DD	00H
	DD	2 DUP(00H)
	DD	2 DUP(00H)
	DD	00H
	DD	05H
xdata$x	ENDS
;	COMDAT xdata$x
xdata$x	SEGMENT
__ehfuncinfo$??_ETiXmlText@@UAEPAXI@Z DD 019930522H
	DD	00H
	DD	00H
	DD	2 DUP(00H)
	DD	2 DUP(00H)
	DD	00H
	DD	05H
xdata$x	ENDS
;	COMDAT xdata$x
xdata$x	SEGMENT
__unwindtable$??0TiXmlText@@QAE@ABV0@@Z DD 0ffffffffH
	DD	FLAT:__unwindfunclet$??0TiXmlText@@QAE@ABV0@@Z$0
__ehfuncinfo$??0TiXmlText@@QAE@ABV0@@Z DD 019930522H
	DD	01H
	DD	FLAT:__unwindtable$??0TiXmlText@@QAE@ABV0@@Z
	DD	2 DUP(00H)
	DD	2 DUP(00H)
	DD	00H
	DD	01H
xdata$x	ENDS
;	COMDAT xdata$x
xdata$x	SEGMENT
__unwindtable$??0TiXmlText@@QAE@PBD@Z DD 0ffffffffH
	DD	FLAT:__unwindfunclet$??0TiXmlText@@QAE@PBD@Z$0
__ehfuncinfo$??0TiXmlText@@QAE@PBD@Z DD 019930522H
	DD	01H
	DD	FLAT:__unwindtable$??0TiXmlText@@QAE@PBD@Z
	DD	2 DUP(00H)
	DD	2 DUP(00H)
	DD	00H
	DD	01H
xdata$x	ENDS
;	COMDAT xdata$x
xdata$x	SEGMENT
__ehfuncinfo$??_ETiXmlComment@@UAEPAXI@Z DD 019930522H
	DD	00H
	DD	00H
	DD	2 DUP(00H)
	DD	2 DUP(00H)
	DD	00H
	DD	05H
xdata$x	ENDS
;	COMDAT xdata$x
xdata$x	SEGMENT
__unwindtable$??0TiXmlComment@@QAE@PBD@Z DD 0ffffffffH
	DD	FLAT:__unwindfunclet$??0TiXmlComment@@QAE@PBD@Z$0
__ehfuncinfo$??0TiXmlComment@@QAE@PBD@Z DD 019930522H
	DD	01H
	DD	FLAT:__unwindtable$??0TiXmlComment@@QAE@PBD@Z
	DD	2 DUP(00H)
	DD	2 DUP(00H)
	DD	00H
	DD	01H
xdata$x	ENDS
;	COMDAT xdata$x
xdata$x	SEGMENT
__ehfuncinfo$??_ETiXmlAttribute@@UAEPAXI@Z DD 019930522H
	DD	00H
	DD	00H
	DD	2 DUP(00H)
	DD	2 DUP(00H)
	DD	00H
	DD	05H
xdata$x	ENDS
;	COMDAT xdata$x
xdata$x	SEGMENT
__unwindtable$??0TiXmlAttribute@@QAE@PBD0@Z DD 0ffffffffH
	DD	FLAT:__unwindfunclet$??0TiXmlAttribute@@QAE@PBD0@Z$0
	DD	00H
	DD	FLAT:__unwindfunclet$??0TiXmlAttribute@@QAE@PBD0@Z$1
	DD	01H
	DD	FLAT:__unwindfunclet$??0TiXmlAttribute@@QAE@PBD0@Z$2
__ehfuncinfo$??0TiXmlAttribute@@QAE@PBD0@Z DD 019930522H
	DD	03H
	DD	FLAT:__unwindtable$??0TiXmlAttribute@@QAE@PBD0@Z
	DD	2 DUP(00H)
	DD	2 DUP(00H)
	DD	00H
	DD	01H
xdata$x	ENDS
;	COMDAT xdata$x
xdata$x	SEGMENT
__ehfuncinfo$??_ETiXmlBase@@UAEPAXI@Z DD 019930522H
	DD	00H
	DD	00H
	DD	2 DUP(00H)
	DD	2 DUP(00H)
	DD	00H
	DD	05H
xdata$x	ENDS
;	COMDAT xdata$x
xdata$x	SEGMENT
__ehfuncinfo$??_ETiXmlVisitor@@UAEPAXI@Z DD 019930522H
	DD	00H
	DD	00H
	DD	2 DUP(00H)
	DD	2 DUP(00H)
	DD	00H
	DD	05H
xdata$x	ENDS
;	COMDAT xdata$x
xdata$x	SEGMENT
__ehfuncinfo$??_Ei3FileStream@@UAEPAXI@Z DD 019930522H
	DD	00H
	DD	00H
	DD	2 DUP(00H)
	DD	2 DUP(00H)
	DD	00H
	DD	05H
xdata$x	ENDS
;	COMDAT xdata$x
xdata$x	SEGMENT
__ehfuncinfo$??_Ei3Stream@@UAEPAXI@Z DD 019930522H
	DD	00H
	DD	00H
	DD	2 DUP(00H)
	DD	2 DUP(00H)
	DD	00H
	DD	05H
xdata$x	ENDS
;	COMDAT xdata$x
xdata$x	SEGMENT
__ehfuncinfo$??_Ei3MemoryPool@@UAEPAXI@Z DD 019930522H
	DD	00H
	DD	00H
	DD	2 DUP(00H)
	DD	2 DUP(00H)
	DD	00H
	DD	05H
xdata$x	ENDS
;	COMDAT xdata$x
xdata$x	SEGMENT
__ehfuncinfo$??_Ei3ElementBase@@UAEPAXI@Z DD 019930522H
	DD	00H
	DD	00H
	DD	2 DUP(00H)
	DD	2 DUP(00H)
	DD	00H
	DD	05H
xdata$x	ENDS
;	COMDAT xdata$x
xdata$x	SEGMENT
__ehfuncinfo$??_Ei3ClassMeta@@UAEPAXI@Z DD 019930522H
	DD	00H
	DD	00H
	DD	2 DUP(00H)
	DD	2 DUP(00H)
	DD	00H
	DD	05H
xdata$x	ENDS
; Function compile flags: /Ogtp
; File E:\Proyectos\JuegosOnlineproyectos\PB\pbblow\Piercing Blow Remake\i3Server\src\i3Base\i3String.cpp
;	COMDAT ?RK_search@@YAHPAD0@Z
_TEXT	SEGMENT
_hx$1$ = -16						; size = 4
_Count$1$ = -12						; size = 4
_j$1$ = -8						; size = 4
_d$1$ = -4						; size = 4
_dest$ = 8						; size = 4
_src$ = 12						; size = 4
?RK_search@@YAHPAD0@Z PROC				; RK_search, COMDAT

; 3020 : {

  00000	55		 push	 ebp
  00001	8b ec		 mov	 ebp, esp
  00003	83 ec 10	 sub	 esp, 16			; 00000010H

; 3021 : 	INT32 d=0, hx=0, hy=0, i=0, j=0;
; 3022 : 
; 3023 : 	if( dest == NULL || src == NULL)

  00006	8b 55 08	 mov	 edx, DWORD PTR _dest$[ebp]
  00009	33 c0		 xor	 eax, eax
  0000b	89 45 f8	 mov	 DWORD PTR _j$1$[ebp], eax
  0000e	53		 push	 ebx
  0000f	56		 push	 esi
  00010	57		 push	 edi
  00011	85 d2		 test	 edx, edx
  00013	0f 84 2f 01 00
	00		 je	 $LN54@RK_search
  00019	8b 4d 0c	 mov	 ecx, DWORD PTR _src$[ebp]
  0001c	85 c9		 test	 ecx, ecx
  0001e	0f 84 24 01 00
	00		 je	 $LN54@RK_search

; 1055 : 	INT32 Count = 0;

  00024	33 ff		 xor	 edi, edi

; 3024 : 		return -1;
; 3025 : 
; 3026 : 	INT32 srcLen = i3String::Length(src);

  00026	8b c1		 mov	 eax, ecx

; 1057 : 	while( *pStr1)

  00028	80 39 00	 cmp	 BYTE PTR [ecx], 0
  0002b	74 0c		 je	 SHORT $LN18@RK_search
  0002d	8d 49 00	 npad	 3
$LL17@RK_search:

; 1058 : 	{
; 1059 : 		Count++;
; 1060 : 		pStr1++;

  00030	8d 40 01	 lea	 eax, DWORD PTR [eax+1]
  00033	47		 inc	 edi
  00034	80 38 00	 cmp	 BYTE PTR [eax], 0
  00037	75 f7		 jne	 SHORT $LL17@RK_search
$LN18@RK_search:

; 1055 : 	INT32 Count = 0;

  00039	33 c9		 xor	 ecx, ecx

; 3027 : 	INT32 destLen = i3String::Length(dest);

  0003b	8b c2		 mov	 eax, edx

; 1055 : 	INT32 Count = 0;

  0003d	89 4d f4	 mov	 DWORD PTR _Count$1$[ebp], ecx

; 1056 : 
; 1057 : 	while( *pStr1)

  00040	38 0a		 cmp	 BYTE PTR [edx], cl
  00042	74 0c		 je	 SHORT $LN22@RK_search
$LL21@RK_search:

; 1058 : 	{
; 1059 : 		Count++;
; 1060 : 		pStr1++;

  00044	8d 40 01	 lea	 eax, DWORD PTR [eax+1]
  00047	41		 inc	 ecx
  00048	80 38 00	 cmp	 BYTE PTR [eax], 0
  0004b	75 f7		 jne	 SHORT $LL21@RK_search
  0004d	89 4d f4	 mov	 DWORD PTR _Count$1$[ebp], ecx
$LN22@RK_search:

; 3028 : 
; 3029 : 	if( srcLen == 0 || destLen == 0)

  00050	85 ff		 test	 edi, edi
  00052	0f 84 f0 00 00
	00		 je	 $LN54@RK_search
  00058	85 c9		 test	 ecx, ecx
  0005a	0f 84 e8 00 00
	00		 je	 $LN54@RK_search

; 3030 : 		return -1;
; 3031 : 
; 3032 : 	//	Preprocessing
; 3033 : 	for(d=i=1; i<srcLen; i++)

  00060	b8 01 00 00 00	 mov	 eax, 1
  00065	8b f0		 mov	 esi, eax
  00067	3b f8		 cmp	 edi, eax
  00069	7e 15		 jle	 SHORT $LN3@RK_search
  0006b	eb 03 8d 49 00	 npad	 5
$LL4@RK_search:
  00070	40		 inc	 eax

; 3034 : 		d = (d<<1);

  00071	03 f6		 add	 esi, esi
  00073	3b c7		 cmp	 eax, edi
  00075	7c f9		 jl	 SHORT $LL4@RK_search

; 3044 : 	{
; 3045 : #if defined (I3_WINDOWS)
; 3046 : 		if( hx==hy && memcmp(src, dest+j, srcLen) == 0)

  00077	33 c9		 xor	 ecx, ecx
  00079	89 75 fc	 mov	 DWORD PTR _d$1$[ebp], esi
  0007c	33 db		 xor	 ebx, ebx
  0007e	eb 10		 jmp	 SHORT $LN68@RK_search
$LN3@RK_search:

; 3035 : 
; 3036 : 	for( hy=hx=i=0; i<srcLen; i++)

  00080	33 c0		 xor	 eax, eax
  00082	89 75 fc	 mov	 DWORD PTR _d$1$[ebp], esi
  00085	33 c9		 xor	 ecx, ecx
  00087	89 45 f0	 mov	 DWORD PTR _hx$1$[ebp], eax
  0008a	33 db		 xor	 ebx, ebx
  0008c	85 ff		 test	 edi, edi
  0008e	7e 21		 jle	 SHORT $LN28@RK_search
$LN68@RK_search:
  00090	33 f6		 xor	 esi, esi
$LL7@RK_search:

; 3037 : 	{
; 3038 : 		hx = ((hx<<1) + src[i]);

  00092	8b 45 0c	 mov	 eax, DWORD PTR _src$[ebp]
  00095	0f be 04 01	 movsx	 eax, BYTE PTR [ecx+eax]
  00099	8d 34 70	 lea	 esi, DWORD PTR [eax+esi*2]

; 3039 : 		hy = ((hy<<1) + dest[i]);

  0009c	0f be 04 11	 movsx	 eax, BYTE PTR [ecx+edx]
  000a0	41		 inc	 ecx
  000a1	8d 1c 58	 lea	 ebx, DWORD PTR [eax+ebx*2]
  000a4	3b cf		 cmp	 ecx, edi
  000a6	7c ea		 jl	 SHORT $LL7@RK_search
  000a8	89 75 f0	 mov	 DWORD PTR _hx$1$[ebp], esi
  000ab	8b 75 fc	 mov	 esi, DWORD PTR _d$1$[ebp]
  000ae	8b 45 f0	 mov	 eax, DWORD PTR _hx$1$[ebp]
$LN28@RK_search:

; 3040 : 	}
; 3041 : 
; 3042 : 	//	Searching
; 3043 : 	while( j <= destLen-srcLen)

  000b1	29 7d f4	 sub	 DWORD PTR _Count$1$[ebp], edi
  000b4	0f 88 8e 00 00
	00		 js	 $LN54@RK_search
  000ba	33 c9		 xor	 ecx, ecx
  000bc	8d 64 24 00	 npad	 4
$LL8@RK_search:

; 3044 : 	{
; 3045 : #if defined (I3_WINDOWS)
; 3046 : 		if( hx==hy && memcmp(src, dest+j, srcLen) == 0)

  000c0	3b c3		 cmp	 eax, ebx
  000c2	75 59		 jne	 SHORT $LN61@RK_search
  000c4	8b f7		 mov	 esi, edi
  000c6	8d 04 11	 lea	 eax, DWORD PTR [ecx+edx]
  000c9	8b 55 0c	 mov	 edx, DWORD PTR _src$[ebp]
  000cc	83 ee 04	 sub	 esi, 4
  000cf	72 11		 jb	 SHORT $LN59@RK_search
$LL60@RK_search:
  000d1	8b 0a		 mov	 ecx, DWORD PTR [edx]
  000d3	3b 08		 cmp	 ecx, DWORD PTR [eax]
  000d5	75 10		 jne	 SHORT $LN58@RK_search
  000d7	83 c2 04	 add	 edx, 4
  000da	83 c0 04	 add	 eax, 4
  000dd	83 ee 04	 sub	 esi, 4
  000e0	73 ef		 jae	 SHORT $LL60@RK_search
$LN59@RK_search:
  000e2	83 fe fc	 cmp	 esi, -4			; fffffffcH
  000e5	74 57		 je	 SHORT $LN57@RK_search
$LN58@RK_search:
  000e7	8a 0a		 mov	 cl, BYTE PTR [edx]
  000e9	3a 08		 cmp	 cl, BYTE PTR [eax]
  000eb	75 27		 jne	 SHORT $LN74@RK_search
  000ed	83 fe fd	 cmp	 esi, -3			; fffffffdH
  000f0	74 4c		 je	 SHORT $LN57@RK_search
  000f2	8a 4a 01	 mov	 cl, BYTE PTR [edx+1]
  000f5	3a 48 01	 cmp	 cl, BYTE PTR [eax+1]
  000f8	75 1a		 jne	 SHORT $LN74@RK_search
  000fa	83 fe fe	 cmp	 esi, -2			; fffffffeH
  000fd	74 3f		 je	 SHORT $LN57@RK_search
  000ff	8a 4a 02	 mov	 cl, BYTE PTR [edx+2]
  00102	3a 48 02	 cmp	 cl, BYTE PTR [eax+2]
  00105	75 0d		 jne	 SHORT $LN74@RK_search
  00107	83 fe ff	 cmp	 esi, -1
  0010a	74 32		 je	 SHORT $LN57@RK_search
  0010c	8a 4a 03	 mov	 cl, BYTE PTR [edx+3]
  0010f	3a 48 03	 cmp	 cl, BYTE PTR [eax+3]
  00112	74 2a		 je	 SHORT $LN57@RK_search
$LN74@RK_search:

; 3048 : #else
; 3049 : 		if( hx==hy && i3String::NCompare( src, dest+j, srcLen) == 0)
; 3050 : 			return j;
; 3051 : #endif		
; 3052 : 
; 3053 : 		hy = REHASH( dest[j], dest[j+srcLen], hy);

  00114	8b 75 fc	 mov	 esi, DWORD PTR _d$1$[ebp]
  00117	8b 55 08	 mov	 edx, DWORD PTR _dest$[ebp]
  0011a	8b 4d f8	 mov	 ecx, DWORD PTR _j$1$[ebp]
$LN61@RK_search:
  0011d	0f be 04 0a	 movsx	 eax, BYTE PTR [edx+ecx]
  00121	0f af c6	 imul	 eax, esi
  00124	2b d8		 sub	 ebx, eax
  00126	8d 04 3a	 lea	 eax, DWORD PTR [edx+edi]
  00129	0f be 04 08	 movsx	 eax, BYTE PTR [eax+ecx]

; 3054 : 		j++;

  0012d	41		 inc	 ecx
  0012e	89 4d f8	 mov	 DWORD PTR _j$1$[ebp], ecx
  00131	8d 1c 58	 lea	 ebx, DWORD PTR [eax+ebx*2]
  00134	3b 4d f4	 cmp	 ecx, DWORD PTR _Count$1$[ebp]
  00137	7f 0f		 jg	 SHORT $LN54@RK_search

; 3040 : 	}
; 3041 : 
; 3042 : 	//	Searching
; 3043 : 	while( j <= destLen-srcLen)

  00139	8b 45 f0	 mov	 eax, DWORD PTR _hx$1$[ebp]
  0013c	eb 82		 jmp	 SHORT $LL8@RK_search
$LN57@RK_search:

; 3047 : 			return j;

  0013e	8b 45 f8	 mov	 eax, DWORD PTR _j$1$[ebp]
  00141	5f		 pop	 edi

; 3055 : 	}
; 3056 : 
; 3057 : 	return -1;
; 3058 : }

  00142	5e		 pop	 esi
  00143	5b		 pop	 ebx
  00144	8b e5		 mov	 esp, ebp
  00146	5d		 pop	 ebp
  00147	c3		 ret	 0
$LN54@RK_search:
  00148	5f		 pop	 edi
  00149	5e		 pop	 esi
  0014a	83 c8 ff	 or	 eax, -1
  0014d	5b		 pop	 ebx
  0014e	8b e5		 mov	 esp, ebp
  00150	5d		 pop	 ebp
  00151	c3		 ret	 0
?RK_search@@YAHPAD0@Z ENDP				; RK_search
_TEXT	ENDS
; Function compile flags: /Ogtp
; File E:\Proyectos\JuegosOnlineproyectos\PB\pbblow\Piercing Blow Remake\i3Server\src\i3Base\i3String.cpp
;	COMDAT ?Q_search@@YAHPAD0@Z
_TEXT	SEGMENT
_src$GSCopy$1$ = -1040					; size = 4
_Count$1$ = -1036					; size = 4
_j$1$ = -1032						; size = 4
_qsBc$ = -1028						; size = 1024
__$ArrayPad$ = -4					; size = 4
_dest$ = 8						; size = 4
_src$ = 12						; size = 4
?Q_search@@YAHPAD0@Z PROC				; Q_search, COMDAT

; 2962 : {

  00000	55		 push	 ebp
  00001	8b ec		 mov	 ebp, esp
  00003	81 ec 10 04 00
	00		 sub	 esp, 1040		; 00000410H
  00009	a1 00 00 00 00	 mov	 eax, DWORD PTR ___security_cookie
  0000e	33 c5		 xor	 eax, ebp
  00010	89 45 fc	 mov	 DWORD PTR __$ArrayPad$[ebp], eax

; 2963 : 	INT32 j=0;
; 2964 : 	INT32 qsBc[256];	//	 ascii code Ĺ©±âŔÎ 256ŔĚ´Ů.
; 2965 : 
; 2966 : 	if( dest == NULL || src == NULL)

  00013	8b 55 08	 mov	 edx, DWORD PTR _dest$[ebp]
  00016	8b 4d 0c	 mov	 ecx, DWORD PTR _src$[ebp]
  00019	53		 push	 ebx
  0001a	56		 push	 esi
  0001b	33 f6		 xor	 esi, esi
  0001d	89 8d f0 fb ff
	ff		 mov	 DWORD PTR _src$GSCopy$1$[ebp], ecx
  00023	89 b5 f8 fb ff
	ff		 mov	 DWORD PTR _j$1$[ebp], esi
  00029	57		 push	 edi
  0002a	85 d2		 test	 edx, edx
  0002c	0f 84 24 01 00
	00		 je	 $LN5@Q_search
  00032	85 c9		 test	 ecx, ecx
  00034	0f 84 1c 01 00
	00		 je	 $LN5@Q_search

; 1055 : 	INT32 Count = 0;

  0003a	33 db		 xor	 ebx, ebx

; 2967 : 		return -1;
; 2968 : 
; 2969 : 	INT32 srcLen = i3String::Length(src);

  0003c	8b c1		 mov	 eax, ecx

; 1057 : 	while( *pStr1)

  0003e	38 19		 cmp	 BYTE PTR [ecx], bl
  00040	74 09		 je	 SHORT $LN13@Q_search
$LL12@Q_search:

; 1058 : 	{
; 1059 : 		Count++;
; 1060 : 		pStr1++;

  00042	8d 40 01	 lea	 eax, DWORD PTR [eax+1]
  00045	43		 inc	 ebx
  00046	80 38 00	 cmp	 BYTE PTR [eax], 0
  00049	75 f7		 jne	 SHORT $LL12@Q_search
$LN13@Q_search:

; 1055 : 	INT32 Count = 0;

  0004b	33 c9		 xor	 ecx, ecx

; 2970 : 	INT32 destLen = i3String::Length(dest);

  0004d	8b c2		 mov	 eax, edx

; 1055 : 	INT32 Count = 0;

  0004f	89 8d f4 fb ff
	ff		 mov	 DWORD PTR _Count$1$[ebp], ecx

; 1056 : 
; 1057 : 	while( *pStr1)

  00055	38 0a		 cmp	 BYTE PTR [edx], cl
  00057	74 16		 je	 SHORT $LN17@Q_search
  00059	8d a4 24 00 00
	00 00		 npad	 7
$LL16@Q_search:

; 1058 : 	{
; 1059 : 		Count++;
; 1060 : 		pStr1++;

  00060	8d 40 01	 lea	 eax, DWORD PTR [eax+1]
  00063	41		 inc	 ecx
  00064	80 38 00	 cmp	 BYTE PTR [eax], 0
  00067	75 f7		 jne	 SHORT $LL16@Q_search
  00069	89 8d f4 fb ff
	ff		 mov	 DWORD PTR _Count$1$[ebp], ecx
$LN17@Q_search:

; 2971 : 
; 2972 : 	if( srcLen == 0 || destLen == 0)

  0006f	85 db		 test	 ebx, ebx
  00071	0f 84 df 00 00
	00		 je	 $LN5@Q_search
  00077	85 c9		 test	 ecx, ecx
  00079	0f 84 d7 00 00
	00		 je	 $LN5@Q_search

; 2947 : 	for( i=0; i<qsBcLen; i++)

  0007f	b9 00 01 00 00	 mov	 ecx, 256		; 00000100H
  00084	8d 43 01	 lea	 eax, DWORD PTR [ebx+1]
  00087	8d bd fc fb ff
	ff		 lea	 edi, DWORD PTR _qsBc$[ebp]

; 2948 : 	{
; 2949 : 		qsBc[i] = srcLen + 1;
; 2950 : 	}
; 2951 : 
; 2952 : 	for( i=0; i<srcLen; i++)

  0008d	33 d2		 xor	 edx, edx
  0008f	f3 ab		 rep stosd
  00091	85 db		 test	 ebx, ebx
  00093	7e 27		 jle	 SHORT $LN32@Q_search
  00095	8b b5 f0 fb ff
	ff		 mov	 esi, DWORD PTR _src$GSCopy$1$[ebp]
  0009b	eb 03 8d 49 00	 npad	 5
$LL25@Q_search:

; 2953 : 	{
; 2954 : 		// ascii code ł»żˇ ŔÖ´Â °Í¸¸ Ăł¸®
; 2955 :         // multi byte µîŔş ±×´ë·Î µŇ
; 2956 : 		if( IS_ASCII_CHAR( src[i]))

  000a0	8a 04 16	 mov	 al, BYTE PTR [esi+edx]
  000a3	84 c0		 test	 al, al
  000a5	78 0e		 js	 SHORT $LN23@Q_search
  000a7	0f be c0	 movsx	 eax, al

; 2957 : 			qsBc[ src[i]] = srcLen - i;

  000aa	8b cb		 mov	 ecx, ebx
  000ac	2b ca		 sub	 ecx, edx
  000ae	89 8c 85 fc fb
	ff ff		 mov	 DWORD PTR _qsBc$[ebp+eax*4], ecx
$LN23@Q_search:

; 2948 : 	{
; 2949 : 		qsBc[i] = srcLen + 1;
; 2950 : 	}
; 2951 : 
; 2952 : 	for( i=0; i<srcLen; i++)

  000b5	42		 inc	 edx
  000b6	3b d3		 cmp	 edx, ebx
  000b8	7c e6		 jl	 SHORT $LL25@Q_search
  000ba	33 f6		 xor	 esi, esi
$LN32@Q_search:

; 2973 : 		return -1;
; 2974 : 
; 2975 : 	//	Preprocessing
; 2976 : 	preQsBc( src, srcLen, qsBc, 256);
; 2977 : 
; 2978 : 	//	Searching
; 2979 : 	while( j <= destLen-srcLen)

  000bc	8b bd f4 fb ff
	ff		 mov	 edi, DWORD PTR _Count$1$[ebp]
  000c2	2b fb		 sub	 edi, ebx
  000c4	0f 88 8c 00 00
	00		 js	 $LN5@Q_search
  000ca	8d 9b 00 00 00
	00		 npad	 6
$LL2@Q_search:

; 2980 : 	{
; 2981 : 		//	find
; 2982 : #if defined (I3_WINDOWS)
; 2983 : 		if( memcmp( src, dest+j, srcLen) == 0)

  000d0	8b 45 08	 mov	 eax, DWORD PTR _dest$[ebp]
  000d3	8b 95 f0 fb ff
	ff		 mov	 edx, DWORD PTR _src$GSCopy$1$[ebp]
  000d9	03 c6		 add	 eax, esi
  000db	8b f3		 mov	 esi, ebx
  000dd	83 ee 04	 sub	 esi, 4
  000e0	72 11		 jb	 SHORT $LN58@Q_search
$LL59@Q_search:
  000e2	8b 0a		 mov	 ecx, DWORD PTR [edx]
  000e4	3b 08		 cmp	 ecx, DWORD PTR [eax]
  000e6	75 10		 jne	 SHORT $LN57@Q_search
  000e8	83 c2 04	 add	 edx, 4
  000eb	83 c0 04	 add	 eax, 4
  000ee	83 ee 04	 sub	 esi, 4
  000f1	73 ef		 jae	 SHORT $LL59@Q_search
$LN58@Q_search:
  000f3	83 fe fc	 cmp	 esi, -4			; fffffffcH
  000f6	74 72		 je	 SHORT $LN56@Q_search
$LN57@Q_search:
  000f8	8a 0a		 mov	 cl, BYTE PTR [edx]
  000fa	3a 08		 cmp	 cl, BYTE PTR [eax]
  000fc	75 27		 jne	 SHORT $LN60@Q_search
  000fe	83 fe fd	 cmp	 esi, -3			; fffffffdH
  00101	74 67		 je	 SHORT $LN56@Q_search
  00103	8a 4a 01	 mov	 cl, BYTE PTR [edx+1]
  00106	3a 48 01	 cmp	 cl, BYTE PTR [eax+1]
  00109	75 1a		 jne	 SHORT $LN60@Q_search
  0010b	83 fe fe	 cmp	 esi, -2			; fffffffeH
  0010e	74 5a		 je	 SHORT $LN56@Q_search
  00110	8a 4a 02	 mov	 cl, BYTE PTR [edx+2]
  00113	3a 48 02	 cmp	 cl, BYTE PTR [eax+2]
  00116	75 0d		 jne	 SHORT $LN60@Q_search
  00118	83 fe ff	 cmp	 esi, -1
  0011b	74 4d		 je	 SHORT $LN56@Q_search
  0011d	8a 4a 03	 mov	 cl, BYTE PTR [edx+3]
  00120	3a 48 03	 cmp	 cl, BYTE PTR [eax+3]
  00123	74 45		 je	 SHORT $LN56@Q_search
$LN60@Q_search:

; 2984 : 			return j;
; 2985 : #else
; 2986 : 		if( i3String::NCompare( src, dest+j, srcLen) == 0)
; 2987 : 			return j;
; 2988 : #endif
; 2989 : 			
; 2990 : 		
; 2991 : 		INT32 skip = 1;
; 2992 : 
; 2993 : 		// ascii code ł»żˇ ŔÖ´Â °Í¸¸ Ăł¸®
; 2994 : 		if( IS_ASCII_CHAR( dest[j+srcLen]))

  00125	8b 45 08	 mov	 eax, DWORD PTR _dest$[ebp]
  00128	b9 01 00 00 00	 mov	 ecx, 1
  0012d	8b b5 f8 fb ff
	ff		 mov	 esi, DWORD PTR _j$1$[ebp]
  00133	03 c3		 add	 eax, ebx
  00135	8a 04 30	 mov	 al, BYTE PTR [eax+esi]
  00138	84 c0		 test	 al, al
  0013a	78 0a		 js	 SHORT $LN49@Q_search
  0013c	0f be c0	 movsx	 eax, al

; 2995 : 		{
; 2996 : 			skip = qsBc[ dest[j+srcLen]];

  0013f	8b 8c 85 fc fb
	ff ff		 mov	 ecx, DWORD PTR _qsBc$[ebp+eax*4]
$LN49@Q_search:

; 2997 : 		}
; 2998 : 
; 2999 : 		//	skip string
; 3000 : 		j+=skip;

  00146	03 f1		 add	 esi, ecx
  00148	89 b5 f8 fb ff
	ff		 mov	 DWORD PTR _j$1$[ebp], esi
  0014e	3b f7		 cmp	 esi, edi
  00150	0f 8e 7a ff ff
	ff		 jle	 $LL2@Q_search
$LN5@Q_search:
  00156	5f		 pop	 edi

; 3001 : 	}
; 3002 : 
; 3003 : 	return -1;
; 3004 : }

  00157	5e		 pop	 esi
  00158	83 c8 ff	 or	 eax, -1
  0015b	5b		 pop	 ebx
  0015c	8b 4d fc	 mov	 ecx, DWORD PTR __$ArrayPad$[ebp]
  0015f	33 cd		 xor	 ecx, ebp
  00161	e8 00 00 00 00	 call	 @__security_check_cookie@4
  00166	8b e5		 mov	 esp, ebp
  00168	5d		 pop	 ebp
  00169	c3		 ret	 0
$LN56@Q_search:
  0016a	8b 4d fc	 mov	 ecx, DWORD PTR __$ArrayPad$[ebp]
  0016d	8b 85 f8 fb ff
	ff		 mov	 eax, DWORD PTR _j$1$[ebp]
  00173	33 cd		 xor	 ecx, ebp
  00175	5f		 pop	 edi
  00176	5e		 pop	 esi
  00177	5b		 pop	 ebx
  00178	e8 00 00 00 00	 call	 @__security_check_cookie@4
  0017d	8b e5		 mov	 esp, ebp
  0017f	5d		 pop	 ebp
  00180	c3		 ret	 0
?Q_search@@YAHPAD0@Z ENDP				; Q_search
_TEXT	ENDS
; Function compile flags: /Ogtp
; File E:\Proyectos\JuegosOnlineproyectos\PB\pbblow\Piercing Blow Remake\i3Server\src\i3Base\i3String.cpp
;	COMDAT ?preQsBc@@YAXPADHPAHH@Z
_TEXT	SEGMENT
_src$ = 8						; size = 4
_srcLen$ = 12						; size = 4
_qsBc$ = 16						; size = 4
_qsBcLen$ = 20						; size = 4
?preQsBc@@YAXPADHPAHH@Z PROC				; preQsBc, COMDAT

; 2944 : {

  00000	55		 push	 ebp
  00001	8b ec		 mov	 ebp, esp
  00003	8b 4d 14	 mov	 ecx, DWORD PTR _qsBcLen$[ebp]
  00006	53		 push	 ebx
  00007	8b 5d 08	 mov	 ebx, DWORD PTR _src$[ebp]
  0000a	56		 push	 esi
  0000b	8b 75 0c	 mov	 esi, DWORD PTR _srcLen$[ebp]
  0000e	57		 push	 edi

; 2945 : 	INT32 i=0;
; 2946 : 
; 2947 : 	for( i=0; i<qsBcLen; i++)

  0000f	85 c9		 test	 ecx, ecx
  00011	7e 0d		 jle	 SHORT $LL20@preQsBc

; 2948 : 	{
; 2949 : 		qsBc[i] = srcLen + 1;

  00013	8b 7d 10	 mov	 edi, DWORD PTR _qsBc$[ebp]
  00016	8d 46 01	 lea	 eax, DWORD PTR [esi+1]
  00019	f3 ab		 rep stosd
  0001b	eb 03 8d 49 00	 npad	 5
$LL20@preQsBc:

; 2950 : 	}
; 2951 : 
; 2952 : 	for( i=0; i<srcLen; i++)

  00020	33 c0		 xor	 eax, eax
  00022	85 f6		 test	 esi, esi
  00024	7e 20		 jle	 SHORT $LN6@preQsBc
  00026	8b 7d 10	 mov	 edi, DWORD PTR _qsBc$[ebp]
  00029	8d a4 24 00 00
	00 00		 npad	 7
$LL7@preQsBc:

; 2953 : 	{
; 2954 : 		// ascii code ł»żˇ ŔÖ´Â °Í¸¸ Ăł¸®
; 2955 :         // multi byte µîŔş ±×´ë·Î µŇ
; 2956 : 		if( IS_ASCII_CHAR( src[i]))

  00030	8a 0c 03	 mov	 cl, BYTE PTR [ebx+eax]
  00033	84 c9		 test	 cl, cl
  00035	78 0a		 js	 SHORT $LN5@preQsBc
  00037	0f be c9	 movsx	 ecx, cl

; 2957 : 			qsBc[ src[i]] = srcLen - i;

  0003a	8b d6		 mov	 edx, esi
  0003c	2b d0		 sub	 edx, eax
  0003e	89 14 8f	 mov	 DWORD PTR [edi+ecx*4], edx
$LN5@preQsBc:

; 2950 : 	}
; 2951 : 
; 2952 : 	for( i=0; i<srcLen; i++)

  00041	40		 inc	 eax
  00042	3b c6		 cmp	 eax, esi
  00044	7c ea		 jl	 SHORT $LL7@preQsBc
$LN6@preQsBc:
  00046	5f		 pop	 edi

; 2958 : 	}
; 2959 : }

  00047	5e		 pop	 esi
  00048	5b		 pop	 ebx
  00049	5d		 pop	 ebp
  0004a	c3		 ret	 0
?preQsBc@@YAXPADHPAHH@Z ENDP				; preQsBc
_TEXT	ENDS
; Function compile flags: /Ogtp
; File E:\Proyectos\JuegosOnlineproyectos\PB\pbblow\Piercing Blow Remake\i3Server\src\i3Base\i3String.cpp
;	COMDAT ?BM_search@@YAHPAD0@Z
_TEXT	SEGMENT
_src$GSCopy$1$ = -1040					; size = 4
_bmGs$1$ = -1036					; size = 4
_Count$1$ = -1032					; size = 4
_bmBc$ = -1028						; size = 1024
__$ArrayPad$ = -4					; size = 4
_dest$ = 8						; size = 4
_src$ = 12						; size = 4
?BM_search@@YAHPAD0@Z PROC				; BM_search, COMDAT

; 2868 : {

  00000	55		 push	 ebp
  00001	8b ec		 mov	 ebp, esp
  00003	81 ec 10 04 00
	00		 sub	 esp, 1040		; 00000410H
  00009	a1 00 00 00 00	 mov	 eax, DWORD PTR ___security_cookie
  0000e	33 c5		 xor	 eax, ebp
  00010	89 45 fc	 mov	 DWORD PTR __$ArrayPad$[ebp], eax

; 2869 : 	INT32 i=0,j=0;
; 2870 : 	BOOL find = FALSE;
; 2871 : 
; 2872 : 	if( dest == NULL || src == NULL)

  00013	8b 55 08	 mov	 edx, DWORD PTR _dest$[ebp]
  00016	53		 push	 ebx
  00017	56		 push	 esi
  00018	8b 75 0c	 mov	 esi, DWORD PTR _src$[ebp]
  0001b	89 b5 f0 fb ff
	ff		 mov	 DWORD PTR _src$GSCopy$1$[ebp], esi
  00021	57		 push	 edi
  00022	85 d2		 test	 edx, edx
  00024	0f 84 5f 01 00
	00		 je	 $LN8@BM_search
  0002a	85 f6		 test	 esi, esi
  0002c	0f 84 57 01 00
	00		 je	 $LN8@BM_search

; 1055 : 	INT32 Count = 0;

  00032	33 db		 xor	 ebx, ebx

; 2873 : 		return -1;
; 2874 : 
; 2875 : 	INT32 srcLen = i3String::Length( src);

  00034	8b c6		 mov	 eax, esi

; 1057 : 	while( *pStr1)

  00036	38 1e		 cmp	 BYTE PTR [esi], bl
  00038	74 0f		 je	 SHORT $LN24@BM_search
  0003a	8d 9b 00 00 00
	00		 npad	 6
$LL23@BM_search:

; 1058 : 	{
; 1059 : 		Count++;
; 1060 : 		pStr1++;

  00040	8d 40 01	 lea	 eax, DWORD PTR [eax+1]
  00043	43		 inc	 ebx
  00044	80 38 00	 cmp	 BYTE PTR [eax], 0
  00047	75 f7		 jne	 SHORT $LL23@BM_search
$LN24@BM_search:

; 1055 : 	INT32 Count = 0;

  00049	33 c9		 xor	 ecx, ecx

; 2876 : 	INT32 destLen = i3String::Length( dest);

  0004b	8b c2		 mov	 eax, edx

; 1055 : 	INT32 Count = 0;

  0004d	89 8d f8 fb ff
	ff		 mov	 DWORD PTR _Count$1$[ebp], ecx

; 1056 : 
; 1057 : 	while( *pStr1)

  00053	38 0a		 cmp	 BYTE PTR [edx], cl
  00055	74 0f		 je	 SHORT $LN28@BM_search
$LL27@BM_search:

; 1058 : 	{
; 1059 : 		Count++;
; 1060 : 		pStr1++;

  00057	8d 40 01	 lea	 eax, DWORD PTR [eax+1]
  0005a	41		 inc	 ecx
  0005b	80 38 00	 cmp	 BYTE PTR [eax], 0
  0005e	75 f7		 jne	 SHORT $LL27@BM_search
  00060	89 8d f8 fb ff
	ff		 mov	 DWORD PTR _Count$1$[ebp], ecx
$LN28@BM_search:

; 2877 : 
; 2878 : 	if( srcLen == 0 || destLen == 0)

  00066	85 db		 test	 ebx, ebx
  00068	0f 84 1b 01 00
	00		 je	 $LN8@BM_search
  0006e	85 c9		 test	 ecx, ecx
  00070	0f 84 13 01 00
	00		 je	 $LN8@BM_search

; 2879 : 		return -1;
; 2880 : 
; 2881 : 	INT32 * bmGs = (INT32*) i3MemAlloc( sizeof( INT32) * (srcLen+1));

  00076	68 41 0b 00 00	 push	 2881			; 00000b41H
  0007b	68 00 00 00 00	 push	 OFFSET ??_C@_0GD@CAEEIHCP@E?3?2Proyectos?2JuegosOnlineproyec@
  00080	6a 10		 push	 16			; 00000010H
  00082	8d 04 9d 04 00
	00 00		 lea	 eax, DWORD PTR [ebx*4+4]
  00089	6a 00		 push	 0
  0008b	50		 push	 eax
  0008c	e8 00 00 00 00	 call	 ?AllocTool@i3mem@@YAPAXHHHPBDH@Z ; i3mem::AllocTool
  00091	8b c8		 mov	 ecx, eax

; 2882 : 	INT32 bmBc[256];	//	 ascii code Ĺ©±âŔÎ 256ŔĚ´Ů. 
; 2883 : 
; 2884 : 	//	Preprocessing	
; 2885 : 	preBmGs( src, srcLen, bmGs, (srcLen+1));	// make good-suffix shift array	

  00093	8d 43 01	 lea	 eax, DWORD PTR [ebx+1]
  00096	50		 push	 eax
  00097	51		 push	 ecx
  00098	53		 push	 ebx
  00099	56		 push	 esi
  0009a	89 8d f4 fb ff
	ff		 mov	 DWORD PTR _bmGs$1$[ebp], ecx
  000a0	e8 00 00 00 00	 call	 ?preBmGs@@YAXPADHPAHH@Z	; preBmGs
  000a5	b9 00 01 00 00	 mov	 ecx, 256		; 00000100H
  000aa	8d bd fc fb ff
	ff		 lea	 edi, DWORD PTR _bmBc$[ebp]
  000b0	8b c3		 mov	 eax, ebx
  000b2	83 c4 24	 add	 esp, 36			; 00000024H
  000b5	f3 ab		 rep stosd

; 2791 : 	for( i=0; i<srcLen-1; i++)

  000b7	8d 7b ff	 lea	 edi, DWORD PTR [ebx-1]
  000ba	33 d2		 xor	 edx, edx
  000bc	85 ff		 test	 edi, edi
  000be	7e 1b		 jle	 SHORT $LN43@BM_search
$LL36@BM_search:

; 2792 : 	{
; 2793 : 		// ascii code ł»żˇ ŔÖ´Â °Í¸¸ Ăł¸®
; 2794 :         // multi byte µîŔş ±×´ë·Î µŇ
; 2795 : 		if( IS_ASCII_CHAR( src[i]))

  000c0	8a 04 16	 mov	 al, BYTE PTR [esi+edx]
  000c3	84 c0		 test	 al, al
  000c5	78 0f		 js	 SHORT $LN34@BM_search
  000c7	8b cb		 mov	 ecx, ebx
  000c9	0f be c0	 movsx	 eax, al
  000cc	2b ca		 sub	 ecx, edx

; 2796 : 			bmBc[ src[i]] = srcLen-1-i;

  000ce	49		 dec	 ecx
  000cf	89 8c 85 fc fb
	ff ff		 mov	 DWORD PTR _bmBc$[ebp+eax*4], ecx
$LN34@BM_search:

; 1061 : 	}
; 1062 : 
; 1063 : 	return Count;
; 1064 : }
; 1065 : 
; 1066 : INT32 i3String::Length( const wchar_t * pStr )
; 1067 : {
; 1068 : 	INT32 Count = 0;
; 1069 : 
; 1070 : 	while( *pStr )
; 1071 : 	{
; 1072 : 		Count++;
; 1073 : 		pStr++;
; 1074 : 	}
; 1075 : 
; 1076 : 	return Count;
; 1077 : }
; 1078 : 
; 1079 : // pStr ą®ŔÚż­ ľČżˇ ch°ˇ ŔÖŔ¸¸é ±× Ŕ§Äˇ¸¦ ąÝČŻÇŃ´Ů.
; 1080 : // ľŐżˇĽ­ şÎĹÍ ĂŁ´Â´Ů.
; 1081 : // ľřŔ¸¸é -1 ąÝČŻ
; 1082 : INT32 i3String::ContainChar( const char * pStr, char ch )
; 1083 : {
; 1084 : 	INT32 idx = 0;
; 1085 : 
; 1086 : 	const char *pCur = pStr;
; 1087 : 
; 1088 : 	for( pCur = pStr, idx = 0; *pCur != 0; pCur++, idx++ )
; 1089 : 	{
; 1090 : 		if( *pCur == ch )
; 1091 : 		{
; 1092 : 			return idx;
; 1093 : 		}
; 1094 : 	}
; 1095 : 
; 1096 : 	return -1;
; 1097 : }
; 1098 : 
; 1099 : // pStr ą®ŔÚż­ ľČżˇ ch°ˇ ŔÖŔ¸¸é ±× Ŕ§Äˇ¸¦ ąÝČŻÇŃ´Ů.
; 1100 : // ľŐżˇĽ­ şÎĹÍ ĂŁ´Â´Ů.
; 1101 : // ľřŔ¸¸é -1 ąÝČŻ
; 1102 : INT32 i3String::ContainChar( const wchar_t * pStr, wchar_t ch )
; 1103 : {
; 1104 : 	INT32 idx = 0;
; 1105 : 
; 1106 : 	const wchar_t *pCur = pStr;
; 1107 : 
; 1108 : 	for( pCur = pStr, idx = 0; *pCur != 0; pCur++, idx++ )
; 1109 : 	{
; 1110 : 		if( *pCur == ch )
; 1111 : 		{
; 1112 : 			return idx;
; 1113 : 		}
; 1114 : 	}
; 1115 : 
; 1116 : 	return -1;
; 1117 : }
; 1118 : 
; 1119 : // pStr ą®ŔÚż­ ľČżˇ ch°ˇ ŔÖŔ¸¸é ±× Ŕ§Äˇ¸¦ ąÝČŻÇŃ´Ů.
; 1120 : // µÚżˇĽ­ şÎĹÍ ĂŁ´Â´Ů.
; 1121 : // ľřŔ¸¸é -1 ąÝČŻ
; 1122 : INT32 i3String::ContainCharRev( const char * pStr, char ch )
; 1123 : {
; 1124 : 	INT32 nLen = Length( pStr );
; 1125 : 	if( nLen <= 0 ) return -1;
; 1126 : 
; 1127 : 	INT32 i;
; 1128 : 	for( i = nLen - 1; i >= 0; i-- )
; 1129 : 	{
; 1130 : 		if( pStr[i] == ch )
; 1131 : 		{
; 1132 : 			return i;
; 1133 : 		}
; 1134 : 	}
; 1135 : 
; 1136 : 	return -1;
; 1137 : }
; 1138 : 
; 1139 : INT32 i3String::Contain( const char * pszStr, const char * pszKey)
; 1140 : {
; 1141 : 	INT32 Len;
; 1142 : 	INT32 idxKey = 0, idxStr = 0, StartIdx = 0;
; 1143 : 
; 1144 : 	Len = Length( pszKey);
; 1145 : 
; 1146 : 	while( pszStr[ idxStr])
; 1147 : 	{
; 1148 : 		if( pszStr[idxStr] == pszKey[idxKey])
; 1149 : 		{
; 1150 : 			if( idxKey == 0)
; 1151 : 				StartIdx = idxStr;
; 1152 : 
; 1153 : 			idxKey++;
; 1154 : 
; 1155 : 			if( idxKey >= Len)
; 1156 : 				return StartIdx;
; 1157 : 		}
; 1158 : 		else
; 1159 : 		{
; 1160 : 			if( idxKey != 0 )
; 1161 : 				idxStr--;
; 1162 : 
; 1163 : 			idxKey = 0;
; 1164 : 		}
; 1165 : 
; 1166 : 		idxStr++;
; 1167 : 	}
; 1168 : 
; 1169 : 	return -1;
; 1170 : }
; 1171 : 
; 1172 : // BF-Search żÍ °°Ŕ˝..
; 1173 : // Contain ÇĎ°í ŔÖ´Â °ćżě 0ş¸´Ů Ĺ©°ĹłŞ °°Ŕş°Ş(starting index)Ŕ» return
; 1174 : INT32 i3String::ContainNew( const char* pStr1, const char* pStr2)
; 1175 : {
; 1176 : 	INT32 i = 0;	// index of str1
; 1177 : 	INT32 j = 0;	// index of str2
; 1178 : 	
; 1179 : 	INT32 nFirstCharIdx = 0;
; 1180 : 	INT32 nLen = Length( pStr2);
; 1181 : 
; 1182 : 	while( pStr1[i] != 0)
; 1183 : 	{
; 1184 : 		if( pStr1[i] == pStr2[j])
; 1185 : 		{
; 1186 : 			if( j == 0)
; 1187 : 				nFirstCharIdx = i;
; 1188 : 			
; 1189 : 			if( j == nLen-1)
; 1190 : 				return nFirstCharIdx;
; 1191 : 
; 1192 : 			j++;
; 1193 : 		}
; 1194 : 		else
; 1195 : 		{
; 1196 : 			if( j != 0)
; 1197 : 			{
; 1198 : 				i = nFirstCharIdx;
; 1199 : 				j = 0;
; 1200 : 			}
; 1201 : 		}
; 1202 : 
; 1203 : 		i++;
; 1204 : 	}
; 1205 : 
; 1206 : 	return -1;
; 1207 : }
; 1208 : 
; 1209 : INT32 i3String::ContainNoCase( const char * pszStr, const char * pszKey)
; 1210 : {
; 1211 : 	INT32 Len;
; 1212 : 	INT32 idxKey = 0, idxStr = 0, StartIdx = 0;
; 1213 : 	INT32 C1 = 0, C2 = 0;
; 1214 : 
; 1215 : 	Len = Length( pszKey);
; 1216 : 
; 1217 : 	while( pszStr[ idxStr])
; 1218 : 	{
; 1219 : 		C1 = pszStr[idxStr];
; 1220 : 		C2 = pszKey[idxKey];
; 1221 : 
; 1222 : 		if( C1 != C2)
; 1223 : 		{		
; 1224 : 			//	´ëĽŇą®ŔÚ ±¸şĐ ľřľÚ.
; 1225 : 			if((C1 >= 'A') && (C1 <= 'Z'))		
; 1226 : 				C1 += 'a' - 'A';
; 1227 : 
; 1228 : 			if((C2 >= 'A') && (C2 <= 'Z'))
; 1229 : 				C2 += 'a' - 'A';
; 1230 : 		}
; 1231 : 
; 1232 : 		if( C1 == C2)
; 1233 : 		{
; 1234 : 			if( idxKey == 0)
; 1235 : 				StartIdx = idxStr;
; 1236 : 
; 1237 : 			idxKey++;
; 1238 : 
; 1239 : 			if( idxKey >= Len)
; 1240 : 				return StartIdx;
; 1241 : 		}
; 1242 : 		else
; 1243 : 		{
; 1244 : 			if( idxKey != 0 )
; 1245 : 				idxStr --;
; 1246 : 
; 1247 : 			idxKey = 0;
; 1248 : 		}
; 1249 : 
; 1250 : 		idxStr++;
; 1251 : 	}
; 1252 : 
; 1253 : 	return -1;
; 1254 : }
; 1255 : 
; 1256 : INT32 i3String::ContainNative( const char * pStr)
; 1257 : {
; 1258 : 	INT32 Idx = 0;
; 1259 : 
; 1260 : 	while( *pStr)
; 1261 : 	{
; 1262 : 		if( *pStr & 0x80)
; 1263 : 		{
; 1264 : 			return Idx;
; 1265 : 		}
; 1266 : 
; 1267 : 		Idx++;
; 1268 : 		pStr++;
; 1269 : 	}
; 1270 : 
; 1271 : 	return -1;
; 1272 : }
; 1273 : 
; 1274 : INT32 i3String::ContainW( const WCHAR16 * pStr1, const WCHAR16 * pStr2)
; 1275 : {
; 1276 : 	INT32 Len;
; 1277 : 	INT32 Idx = 0, StartIdx = 0;
; 1278 : 
; 1279 : 	Len = Length( pStr2);
; 1280 : 
; 1281 : 	while( *pStr1)
; 1282 : 	{
; 1283 : 		if( *pStr1 == pStr2[Idx])
; 1284 : 		{
; 1285 : 			if( Idx == 0)
; 1286 : 				StartIdx = Idx;
; 1287 : 
; 1288 : 			Idx++;
; 1289 : 
; 1290 : 			if( Idx >= Len)
; 1291 : 				return StartIdx;
; 1292 : 		}
; 1293 : 		else
; 1294 : 		{
; 1295 : 			if( Idx != 0 )
; 1296 : 			{
; 1297 : 				pStr1--;
; 1298 : 			}
; 1299 : 			Idx = 0;
; 1300 : 		}
; 1301 : 
; 1302 : 		pStr1++;
; 1303 : 	}
; 1304 : 
; 1305 : 	return -1;
; 1306 : }
; 1307 : 
; 1308 : char	i3String::ToUpper(char c)
; 1309 : {
; 1310 : 	if ( c >= 'a' && c <= 'z' )
; 1311 : 		return static_cast<char>(c - ALPHABET_INTERVAL);
; 1312 : 	return c;
; 1313 : }
; 1314 : 
; 1315 : void i3String::ToUpper( char * pStr)
; 1316 : {
; 1317 : 	while( *pStr)
; 1318 : 	{
; 1319 : 		if((*pStr >= 'a') && (*pStr <= 'z'))
; 1320 : 		{
; 1321 : 			*pStr = *pStr - ('a' - 'A');
; 1322 : 		}
; 1323 : 
; 1324 : 		pStr++;
; 1325 : 	}
; 1326 : }
; 1327 : 
; 1328 : // nCountŔĚČÄşÎĹÍ ´ëą®ŔÚ·Î ąŮ˛Ů´Â ÇÔĽö
; 1329 : void i3String::ToUpperAfterN(char* pStr, INT32 nCount)
; 1330 : {
; 1331 : 	INT32 i = 0;
; 1332 : 
; 1333 : 	while(*pStr)
; 1334 : 	{
; 1335 : 		i++;
; 1336 : 		if(i >= nCount)
; 1337 : 		{
; 1338 : 			break;
; 1339 : 		}
; 1340 : 	}
; 1341 : 	
; 1342 : 	ToUpper(pStr);
; 1343 : }
; 1344 : 
; 1345 : // nCountŔü±îÁö ´ëą®ŔÚ·Î ąŮ˛Ů´Â ÇÔĽö
; 1346 : void i3String::ToUpperBeforeN(char* pStr, INT32 nCount)
; 1347 : {
; 1348 : 	INT32 i = 0;
; 1349 : 	
; 1350 : 	while( *pStr)
; 1351 : 	{
; 1352 : 		if(i >= nCount)
; 1353 : 		{
; 1354 : 			break;
; 1355 : 		}
; 1356 : 		
; 1357 : 		if((*pStr >= 'a') && (*pStr <= 'z'))
; 1358 : 		{
; 1359 : 			*pStr = *pStr - ('a' - 'A');
; 1360 : 		}
; 1361 : 
; 1362 : 		pStr++;
; 1363 : 	}
; 1364 : }
; 1365 : 
; 1366 : char	i3String::ToLower(char c)
; 1367 : {
; 1368 : 	if ( c >= 'A' && c <= 'Z' )
; 1369 : 		return static_cast<char>(c + ALPHABET_INTERVAL);
; 1370 : 	return c;
; 1371 : }
; 1372 : 
; 1373 : void	i3String::ToLower( char * pStr)
; 1374 : {
; 1375 : 	while( *pStr)
; 1376 : 	{
; 1377 : 		if((*pStr >= 'A') && (*pStr <= 'Z'))
; 1378 : 			*pStr += ALPHABET_INTERVAL;
; 1379 : 
; 1380 : 		pStr++;
; 1381 : 	}
; 1382 : }
; 1383 : 
; 1384 : void	i3String::ToLower( char * pDest, UINT32 DestSize, const char * pSrc)
; 1385 : {
; 1386 : 	I3ASSERT(pDest != NULL);
; 1387 : 	I3ASSERT(pSrc != NULL);
; 1388 : 	I3ASSERT(DestSize != 0);
; 1389 : 	if ( ! pDest || ! pSrc || DestSize == 0)
; 1390 : 		return;
; 1391 : 
; 1392 : 
; 1393 : 	UINT32 i = 0;
; 1394 : 	while ( (*pSrc != '\0') && (i < DestSize) )
; 1395 : 	{
; 1396 : 		if ( *pSrc >= 'A' && *pSrc <= 'Z' )
; 1397 : 			pDest[i] = static_cast<char>(*pSrc + ALPHABET_INTERVAL);
; 1398 : 		else
; 1399 : 			pDest[i] = *pSrc;
; 1400 : 
; 1401 : 		++pSrc;
; 1402 : 		++i;
; 1403 : 	}
; 1404 : 
; 1405 : 	if ( i > DestSize )
; 1406 : 		pDest[DestSize-1] = NULL;
; 1407 : 	else
; 1408 : 		pDest[i] = NULL;
; 1409 : }
; 1410 : /*
; 1411 : void i3String::Copy( char * pDest, const char * pSrc)
; 1412 : {
; 1413 : 	if( pDest == NULL || pSrc == NULL)
; 1414 : 		return;
; 1415 : 
; 1416 : 	while( *pSrc)
; 1417 : 	{
; 1418 : 		*pDest = *pSrc;
; 1419 : 
; 1420 : 		pDest++;
; 1421 : 		pSrc++;
; 1422 : 	}
; 1423 : 
; 1424 : 	*pDest = 0;
; 1425 : }
; 1426 : 
; 1427 : void i3String::Copy( char * pDest, INT32 DestSize, const char * pSrc)
; 1428 : {
; 1429 : 	if ( DestSize <= 0 )
; 1430 : 		return;
; 1431 : 
; 1432 : 	while( *pSrc && --DestSize > 0 )
; 1433 : 	{
; 1434 : 		*pDest = *pSrc;
; 1435 : 
; 1436 : 		pDest++;
; 1437 : 		pSrc++;
; 1438 : 	}
; 1439 : 
; 1440 : 	*pDest = 0;
; 1441 : }
; 1442 : 
; 1443 : void i3String::CopyW( WCHAR16 * pDest, const WCHAR16 * pSrc)
; 1444 : {
; 1445 : 	while( *pSrc)
; 1446 : 	{
; 1447 : 		*pDest = *pSrc;
; 1448 : 
; 1449 : 		pDest++;
; 1450 : 		pSrc++;
; 1451 : 	}
; 1452 : 
; 1453 : 	*pDest = 0;
; 1454 : }
; 1455 : 
; 1456 : void i3String::CopyW( WCHAR16 * pDest, INT32 DestSize, const WCHAR16 * pSrc)
; 1457 : {
; 1458 : 	if ( DestSize <= 0 )
; 1459 : 	return;
; 1460 : 
; 1461 : 	while( *pSrc && --DestSize > 0 )
; 1462 : 	{
; 1463 : 		*pDest = *pSrc;
; 1464 : 
; 1465 : 		pDest++;
; 1466 : 		pSrc++;
; 1467 : 	}
; 1468 : 
; 1469 : 	*pDest = 0;
; 1470 : }
; 1471 : */
; 1472 : void i3String::Copy( char * pDest, const char * pSrc, INT32 DestLength)
; 1473 : {
; 1474 : 	I3ASSERT( pDest && pSrc );
; 1475 : 
; 1476 : 	if ( DestLength <= 0 )
; 1477 : 		return;
; 1478 : 
; 1479 : 	while( *pSrc && --DestLength > 0 )
; 1480 : 	{
; 1481 : 		*pDest = *pSrc;
; 1482 : 
; 1483 : 		pDest++;
; 1484 : 		pSrc++;
; 1485 : 	}
; 1486 : 
; 1487 : 	*pDest = 0;
; 1488 : }
; 1489 : 
; 1490 : void i3String::Copy( wchar_t * pDest, const wchar_t * pSrc, INT32 DestLength)
; 1491 : {
; 1492 : 	if ( DestLength <= 0 )
; 1493 : 		return;
; 1494 : 
; 1495 : 	while( *pSrc && --DestLength > 0 )
; 1496 : 	{
; 1497 : 		*pDest = *pSrc;
; 1498 : 
; 1499 : 		pDest++;
; 1500 : 		pSrc++;
; 1501 : 	}
; 1502 : 
; 1503 : 	*pDest = 0;
; 1504 : }
; 1505 : 
; 1506 : void i3String::CopyASCIItoWCHAR( WCHAR16 * pDest, const char * pSrc )
; 1507 : {
; 1508 : 	/*while( *pSrc )
; 1509 : 	{
; 1510 : 		*pDest = WCHAR16( *pSrc ); 
; 1511 : 		pDest++;
; 1512 : 		pSrc++;
; 1513 : 	}
; 1514 : 	*pDest = 0;*/
; 1515 : 
; 1516 : 	INT32 length = Length( pSrc);
; 1517 : 	INT32 wLength = MultiByteToWideChar( i3Language::GetCurrentCodePage(), 0, pSrc, length, NULL, 0);
; 1518 : 
; 1519 : 	MultiByteToWideChar( i3Language::GetCurrentCodePage(), 0, pSrc, length, pDest, wLength);
; 1520 : 	pDest[wLength] = 0;
; 1521 : }
; 1522 : 
; 1523 : void i3String::CopyWCHARtoASCII( char * pDest, INT32 nDestLength, const WCHAR16 * pSrc, INT32 nSrcLength)
; 1524 : {
; 1525 : 	WideCharToMultiByte( i3Language::GetCurrentCodePage(), 0, pSrc, nSrcLength, pDest, nDestLength, NULL, NULL);
; 1526 : }
; 1527 : 
; 1528 : void i3String::NCopy( char * pDest, const char *pSrc, INT32 Length)
; 1529 : {
; 1530 : 	INT32 Count = 0;
; 1531 : 
; 1532 : 	while( *pSrc)
; 1533 : 	{
; 1534 : 		*pDest = *pSrc;
; 1535 : 
; 1536 : 		pDest++;
; 1537 : 		pSrc++;
; 1538 : 		Count++;
; 1539 : 
; 1540 : 		if( Count >= Length)
; 1541 : 			break;
; 1542 : 	}
; 1543 : 
; 1544 : 	*pDest = 0;
; 1545 : }
; 1546 : 
; 1547 : void i3String::NCopy( WCHAR16 * pDest, const WCHAR16 *pSrc, INT32 Length )
; 1548 : {
; 1549 : 	INT32 Count = 0;
; 1550 : 
; 1551 : 	while( *pSrc)
; 1552 : 	{
; 1553 : 		*pDest = *pSrc;
; 1554 : 
; 1555 : 		pDest++;
; 1556 : 		pSrc++;
; 1557 : 		Count++;
; 1558 : 
; 1559 : 		if( Count >= Length)
; 1560 : 			break;
; 1561 : 	}
; 1562 : 
; 1563 : 	*pDest = 0;
; 1564 : }
; 1565 : 
; 1566 : void i3String::Concat( char * pDest, const char * pSrc)
; 1567 : {
; 1568 : 	while( *pDest)
; 1569 : 	{
; 1570 : 		pDest++;
; 1571 : 	}
; 1572 : 	
; 1573 : 	while( *pSrc)
; 1574 : 	{
; 1575 : 		*pDest = *pSrc;
; 1576 : 		
; 1577 : 		pDest++;
; 1578 : 		pSrc++;
; 1579 : 	}
; 1580 : 	
; 1581 : 	*pDest = 0;
; 1582 : }
; 1583 : 
; 1584 : void i3String::Concat( wchar_t * pDest, const wchar_t * pSrc)
; 1585 : {
; 1586 : 	while( *pDest)
; 1587 : 	{
; 1588 : 		pDest++;
; 1589 : 	}
; 1590 : 	
; 1591 : 	while( *pSrc)
; 1592 : 	{
; 1593 : 		*pDest = *pSrc;
; 1594 : 		
; 1595 : 		pDest++;
; 1596 : 		pSrc++;
; 1597 : 	}
; 1598 : 	
; 1599 : 	*pDest = 0;
; 1600 : }
; 1601 : 
; 1602 : // UCS2 -> UTF8 encode
; 1603 : //
; 1604 : // UTF-8·Î şŻČŻµČ ł»żëŔ» ĆÄŔĎ·Î ŔúŔĺÇŇ·Á¸é, ÇŘ´ő·Î 3ąŮŔĚĆ®¸¦ ˝á ÁÖľîľß µĘ.
; 1605 : // 0xEF 0xBB 0xBF
; 1606 : // 
; 1607 : int i3String::UCS2toUTF8( char *pDest, const WCHAR16 *pSrc, int nDestBufSize )
; 1608 : {
; 1609 : 	if( pSrc == NULL ) return 0;
; 1610 : 
; 1611 : 	int count = (int)( i3String::Length( pSrc ) );
; 1612 : 	WCHAR16 unicode;
; 1613 : 	unsigned char bytes[4];
; 1614 : 	int nbytes;
; 1615 : 	int len = 0;
; 1616 : 
; 1617 : 	for( int i = 0; i < count; i++ )
; 1618 : 	{
; 1619 : 		unicode = pSrc[i];
; 1620 : 		if ( unicode < 0x80 )
; 1621 : 		{
; 1622 : 			nbytes = 1;
; 1623 : 			bytes[0] = (unsigned char) unicode;							//  0xxxxxxx
; 1624 : 		}
; 1625 : 		else if ( unicode < 0x0800 )
; 1626 : 		{
; 1627 : 			nbytes = 2;
; 1628 : 			bytes[1] = (unsigned char) ((unicode & 0x3f) | 0x80);		// 10xxxxxx
; 1629 : 			bytes[0] = (unsigned char) ((unicode >> 6) & 0x1f | 0xc0) ;	// 110xxxxx
; 1630 : 		}
; 1631 : 		else
; 1632 : 		{
; 1633 : 			nbytes = 3;
; 1634 : 			bytes[2] = (unsigned char) ((unicode & 0x3f) | 0x80);		// 10xxxxxx
; 1635 : 			bytes[1] = (unsigned char) ((unicode >> 6) & 0x3f | 0x80);	// 10xxxxxx
; 1636 : 			bytes[0] = (unsigned char) ((unicode >> 12) & 0x0f | 0xe0);	// 1110xxxx
; 1637 : 		}
; 1638 : 
; 1639 : 		if( (len + nbytes) >= nDestBufSize )
; 1640 : 		{
; 1641 : 			I3WARN("Need more buffer size.\n");
; 1642 : 			//I3TRACE( "[%s] : Need more buffer size.\n", __FUNCTION__ );
; 1643 : 			I3ASSERT_0;
; 1644 : 			break;
; 1645 : 		}
; 1646 : 
; 1647 : 		for( int j = 0; j < nbytes; j++ )
; 1648 : 		{
; 1649 : 			pDest[len] = bytes[j];
; 1650 : 			len++;
; 1651 : 		}
; 1652 : 	}
; 1653 : 
; 1654 : 	pDest[len] = 0x00;
; 1655 : 
; 1656 : 	return len;
; 1657 : }
; 1658 : 
; 1659 : // UTF-8Ć÷¸ËŔ» ŔŻ´ĎÄÚµĺ ˝şĆ®¸µŔ¸·Î µđÄÚµů
; 1660 : //
; 1661 : // UTF-8·Î şŻČŻµČ ł»żëŔ» ĆÄŔĎ·Î ŔúŔĺÇŇ·Á¸é, ÇŘ´őżˇ ´ŮŔ˝ŔÇ 2ąŮŔĚĆ®¸¦ ˝á ÁÖľîľß µĘ.
; 1662 : // 0xFF 0xFE
; 1663 : //
; 1664 : int i3String::UTF8toUCS2( WCHAR16 *pDest, const char *_pSrc, int nDestBufSize )
; 1665 : {
; 1666 : 	unsigned char *pSrc = ( unsigned char * )_pSrc;
; 1667 : 	unsigned char c;
; 1668 : 	WCHAR16 unicode;
; 1669 : 	int count = 0;
; 1670 : 	int i = 0;
; 1671 : 	//int len = Length( pSrc );
; 1672 : 	int len = (int)strlen( _pSrc );
; 1673 : 
; 1674 : 	for( i = 0; i < len; )
; 1675 : 	{
; 1676 : 		if( ( count + 1 ) >= nDestBufSize )
; 1677 : 		{
; 1678 : 			I3WARN("Need more buffer size.\n");
; 1679 : 			//I3TRACE( "[%s] : Need more buffer size.\n", __FUNCTION__ );
; 1680 : 			I3ASSERT_0;
; 1681 : 			break;
; 1682 : 		}
; 1683 : 
; 1684 : 		c = pSrc[i] & 0xe0;
; 1685 : 
; 1686 : 		if( c < 0x80 )
; 1687 : 		{
; 1688 : 			unicode = WCHAR16( pSrc[i] );
; 1689 : 			i++;
; 1690 : 		}
; 1691 : 		else if ( c < 0xe0 )
; 1692 : 		{
; 1693 : 			unicode =	WCHAR16( pSrc[i] & 0x1f );
; 1694 : 			i++;
; 1695 : 			unicode =	unicode << 6;
; 1696 : 			unicode |=	WCHAR16( pSrc[i] & 0x3f );
; 1697 : 			i++;
; 1698 : 		}
; 1699 : 		else if ( c < 0xf0 )
; 1700 : 		{
; 1701 : 			unicode =	WCHAR16( pSrc[i] & 0x0f );
; 1702 : 			i++;
; 1703 : 			unicode =	unicode << 6;
; 1704 : 			unicode |=	WCHAR16( pSrc[i] & 0x3f );
; 1705 : 			i++;
; 1706 : 			unicode =	unicode << 6;
; 1707 : 			unicode |=	WCHAR16( pSrc[i] & 0x3f );
; 1708 : 			i++;
; 1709 : 		}
; 1710 : 		else
; 1711 : 		{
; 1712 : 			I3WARN("Invalid character.\n");
; 1713 : 			//I3TRACE( "[%s] : Invalid character.\n", __FUNCTION__ );
; 1714 : 			I3ASSERT_0;
; 1715 : 			break;
; 1716 : 		}
; 1717 : 
; 1718 : 		pDest[count] = unicode;
; 1719 : 		count++;
; 1720 : 	}
; 1721 : 
; 1722 : 	pDest[count] = 0x0000;
; 1723 : 
; 1724 : 	return count;
; 1725 : }
; 1726 : 
; 1727 : void i3String::ftoa( REAL32 val, char * pszStr, INT32 fractLen)
; 1728 : {
; 1729 : 	char * pszTemp;
; 1730 : 
; 1731 : 	if( fractLen == -1)
; 1732 : 	{
; 1733 : 		sprintf( (PSTR)pszStr, (PSTR)"%f", val);
; 1734 : 	}
; 1735 : 	else
; 1736 : 	{
; 1737 : 		char format[64];
; 1738 : 
; 1739 : 		sprintf( format, "%%.%df", fractLen);
; 1740 : 		sprintf( pszStr, format, val);
; 1741 : 	}
; 1742 : 
; 1743 : 	pszTemp = pszStr;
; 1744 : 	while( *pszTemp)
; 1745 : 		pszTemp++;
; 1746 : 
; 1747 : 	do
; 1748 : 	{
; 1749 : 		pszTemp--;
; 1750 : 
; 1751 : 		if( *pszTemp == '0')
; 1752 : 			*pszTemp = 0;
; 1753 : 
; 1754 : 	} while( *pszTemp == 0);
; 1755 : 
; 1756 : 	if( *pszTemp == '.')
; 1757 : 		*pszTemp = 0;
; 1758 : }
; 1759 : 
; 1760 : 
; 1761 : /// szIn°ú °°Ŕş ł»żëŔÇ ą®ŔÚż­Ŕ» »ýĽşÇŘĽ­ ¸®ĹĎÇŃ´Ů.
; 1762 : char* i3String::NewString( const char* szIn )
; 1763 : {
; 1764 : 	I3ASSERT( szIn != NULL );
; 1765 : 	INT32 nLen = Length( szIn );
; 1766 : 	I3ASSERT( nLen >= 0 );
; 1767 : 	
; 1768 : 	char *szOut = (char *)i3MemAlloc( nLen + 1 );
; 1769 : 	I3ASSERT( szOut != NULL );
; 1770 : 
; 1771 : #if 0
; 1772 : 	{
; 1773 : 		// ¸Ţ¸đ¸® ´©Ľö Ĺ˝Áö
; 1774 : 		void *pCheck = szOut;
; 1775 : 		static int nCount = 0;
; 1776 : 		static int nCheck = -1;
; 1777 : 		I3ASSERT( nCheck != nCount );
; 1778 : 		I3WARN("%d, %p\n", nCount, pCheck );
; 1779 : 		//I3TRACE( __FUNCTION__ " : %d, %p\n", nCount, pCheck );
; 1780 : 		nCount++;
; 1781 : 	}
; 1782 : #endif
; 1783 : 
; 1784 : 	Copy( szOut, szIn, nLen + 1 );
; 1785 : 
; 1786 : 	return szOut;
; 1787 : }
; 1788 : 
; 1789 : void i3String::ResolvePathToken( const char * pszPath, i3StringList * pList)
; 1790 : {
; 1791 : 	char * pTemp;
; 1792 : 	char szBuf[MAX_PATH];
; 1793 : 	INT32 i;
; 1794 : 
; 1795 : 	for( i = 0, pTemp = (char *) pszPath; *pTemp != 0; pTemp++)
; 1796 : 	{
; 1797 : 		if( *pTemp & 0x80)
; 1798 : 		{
; 1799 : 			szBuf[i] = *pTemp;
; 1800 : 			i++;
; 1801 : 			pTemp ++;
; 1802 : 		}
; 1803 : 		else
; 1804 : 		{
; 1805 : 			if((*pTemp == '\\') || (*pTemp == '/'))
; 1806 : 			{
; 1807 : 				szBuf[i] = 0;
; 1808 : 				pList->Add( szBuf);
; 1809 : 				
; 1810 : 				i = 0;
; 1811 : 				continue;
; 1812 : 			}
; 1813 : 		}
; 1814 : 
; 1815 : 		szBuf[i] = *pTemp;
; 1816 : 		i++;
; 1817 : 	}
; 1818 : 
; 1819 : 	if( i > 0)
; 1820 : 	{
; 1821 : 		szBuf[i] = 0;
; 1822 : 		pList->Add( szBuf);
; 1823 : 	}
; 1824 : }
; 1825 : 
; 1826 : void i3String::MakeRelativePath( const char * pszBasePath, const char * pszAbsPath, char * pszRelPath, const INT32 nRelPathMax)
; 1827 : {
; 1828 : 	i3StringList BaseToken, AbsToken;
; 1829 : 	char * pszBase, *pszAbs;
; 1830 : 	INT32 sidx, didx;
; 1831 : 	bool bProcess, bDiff = false;
; 1832 : 
; 1833 : 	ResolvePathToken( pszBasePath, &BaseToken);
; 1834 : 	ResolvePathToken( pszAbsPath, &AbsToken);
; 1835 : 
; 1836 : 	if( BaseToken.GetCount() <= 0)
; 1837 : 	{
; 1838 : 		i3String::Copy( pszRelPath, pszAbsPath, nRelPathMax);
; 1839 : 		return;
; 1840 : 	}
; 1841 : 
; 1842 : 	if( AbsToken.GetCount() <= 0)
; 1843 : 		return;
; 1844 : 
; 1845 : 	#if defined( I3_WINDOWS)
; 1846 : 		// Drive ¸íŔ» żěĽ± Č®ŔÎÇŃ´Ů.
; 1847 : 		// ¸¸ľŕ ´Ů¸Ą Drive¶ó¸é ľĆą«·± Ăł¸® ľřŔĚ ±×łÉ Relative Pathżˇ ŔúŔĺÇĎ°í
; 1848 : 		// ąÝČŻÇŃ´Ů.
; 1849 : 		if( i3String::Compare( BaseToken.Items[0], AbsToken.Items[0]) != 0)
; 1850 : 		{
; 1851 : 			i3String::Copy( pszRelPath, pszAbsPath, nRelPathMax);
; 1852 : 			return;
; 1853 : 		}
; 1854 : 	#endif
; 1855 : 
; 1856 : 	sidx = 0;
; 1857 : 	didx = 0;
; 1858 : 	pszRelPath[0] = 0;
; 1859 : 
; 1860 : 	while( didx < AbsToken.GetCount())
; 1861 : 	{
; 1862 : 		bProcess = true;
; 1863 : 
; 1864 : 		pszAbs = AbsToken.Items[didx];
; 1865 : 
; 1866 : 		if( sidx < BaseToken.GetCount())
; 1867 : 		{
; 1868 : 			pszBase = BaseToken.Items[sidx];
; 1869 : 
; 1870 : 			if( (bDiff == false) && (i3String::Compare( pszBase, pszAbs) == 0))
; 1871 : 			{
; 1872 : 				bProcess = false;
; 1873 : 				didx++;
; 1874 : 			}
; 1875 : 			else
; 1876 : 			{
; 1877 : 				pszAbs = "..";
; 1878 : 				bDiff = true;
; 1879 : 			}
; 1880 : 
; 1881 : 			sidx++;
; 1882 : 		}
; 1883 : 		else
; 1884 : 		{
; 1885 : 			didx++;
; 1886 : 		}
; 1887 : 
; 1888 : 		if( bProcess)
; 1889 : 		{
; 1890 : 			i3String::Concat( pszRelPath, pszAbs);
; 1891 : 
; 1892 : 			if( didx < AbsToken.GetCount())
; 1893 : 				i3String::Concat( pszRelPath, "\\");
; 1894 : 		}
; 1895 : 	}
; 1896 : }
; 1897 : 
; 1898 : void i3String::MakeCStylePath( char * pszDest, const char * pszSrc)
; 1899 : {
; 1900 : 	I3ASSERT( pszDest != NULL);
; 1901 : 	I3ASSERT( pszSrc != NULL);
; 1902 : 
; 1903 : 	while( *pszSrc != 0)
; 1904 : 	{
; 1905 : 		*pszDest = *pszSrc;
; 1906 : 
; 1907 : 		if( *pszSrc == '\\')
; 1908 : 		{
; 1909 : 			pszDest++;
; 1910 : 			*pszDest = '\\';
; 1911 : 		}
; 1912 : 
; 1913 : 		pszDest++;
; 1914 : 		pszSrc++;
; 1915 : 	}
; 1916 : 
; 1917 : 	*pszDest = 0;
; 1918 : }
; 1919 : 
; 1920 : enum ATOI_MODE
; 1921 : {
; 1922 : 	ATOI_DECIMAL = 0,
; 1923 : 	ATOI_HEXA,
; 1924 : };
; 1925 : 
; 1926 : INT32 i3String::ToInt( const char * pszStr)
; 1927 : {
; 1928 : 	ATOI_MODE mode = ATOI_DECIMAL;
; 1929 : 	INT32 rv = 0, sign = 1;
; 1930 : 	char ch;
; 1931 : 
; 1932 : 	if((pszStr[0] == '0') && ((pszStr[1] == 'x') || (pszStr[1] == 'X')))
; 1933 : 	{
; 1934 : 		mode = ATOI_HEXA;
; 1935 : 		pszStr += 2;
; 1936 : 	}
; 1937 : 
; 1938 : 	while( * pszStr)
; 1939 : 	{
; 1940 : 		switch( *pszStr)
; 1941 : 		{
; 1942 : 			case '-' :	sign = -1;	break;
; 1943 : 			case '+' :				break;
; 1944 : 			default :
; 1945 : 
; 1946 : 				if( mode == ATOI_DECIMAL)
; 1947 : 				{
; 1948 : 					if( (*pszStr >= '0') && (*pszStr <= '9'))
; 1949 : 					{
; 1950 : 						rv *= 10;
; 1951 : 						rv += *pszStr - '0';
; 1952 : 					}
; 1953 : 					else
; 1954 : 						return 0;
; 1955 : 				}
; 1956 : 				else
; 1957 : 				{
; 1958 : 					rv <<= 4;
; 1959 : 
; 1960 : 					if( (*pszStr >= '0') && (*pszStr <= '9'))
; 1961 : 					{
; 1962 : 						rv += *pszStr - '0';
; 1963 : 					}
; 1964 : 					else 
; 1965 : 					{
; 1966 : 						if( (*pszStr >= 'a') && (*pszStr <= 'f'))
; 1967 : 							ch = *pszStr - 'a';
; 1968 : 						else if((*pszStr >= 'A') && (*pszStr <= 'F'))
; 1969 : 							ch = *pszStr - 'A';
; 1970 : 						else
; 1971 : 							return 0;
; 1972 : 
; 1973 : 						rv += ch + 10;
; 1974 : 					}
; 1975 : 				}
; 1976 : 				break;
; 1977 : 		}
; 1978 : 
; 1979 : 		pszStr++;
; 1980 : 	}
; 1981 : 
; 1982 : 	return rv * sign;
; 1983 : }
; 1984 : 
; 1985 : static I3_SYMBOLTABLE_INFO *	_FindSymbol( I3_SYMBOLTABLE_INFO * pTable, INT32 symbolCount, char * pszStr)
; 1986 : {
; 1987 : 	INT32 i;
; 1988 : 
; 1989 : 	for( i = 0; i < symbolCount; i++)
; 1990 : 	{
; 1991 : 		if( i3String::Compare( pTable[i].m_szSymbol, pszStr) == 0)
; 1992 : 		{
; 1993 : 			return & pTable[i];
; 1994 : 		}
; 1995 : 	}
; 1996 : 
; 1997 : 	return NULL;
; 1998 : }
; 1999 : 
; 2000 : I3_EXPORT_BASE 
; 2001 : void	i3String::PreprocessMacro( char * pszDest, INT32 Length, const char * pszSrc, I3_SYMBOLTABLE_INFO * pTable, INT32 symbolCount)
; 2002 : {
; 2003 : 	char * pszTemp = (char *) pszSrc;
; 2004 : 	char szSym[65];
; 2005 : 	INT32 symAccm = 0;
; 2006 : 	bool bInSymbol = false;
; 2007 : 	I3_SYMBOLTABLE_INFO * pSymbol;
; 2008 : 
; 2009 : 	while( *pszTemp != 0)
; 2010 : 	{
; 2011 : 		switch( *pszTemp)
; 2012 : 		{
; 2013 : 			case '%' :
; 2014 : 				if( bInSymbol)
; 2015 : 				{
; 2016 : 					if( symAccm == 0)
; 2017 : 					{
; 2018 : 						// %% ŔÇ °ćżě
; 2019 : 						*pszDest = '%';
; 2020 : 						pszDest++;
; 2021 : 					}
; 2022 : 					else
; 2023 : 					{
; 2024 : 						szSym[ symAccm] = 0;
; 2025 : 						symAccm = 0;
; 2026 : 
; 2027 : 						pSymbol = _FindSymbol( pTable, symbolCount, szSym);
; 2028 : 
; 2029 : 						if( pSymbol != NULL)
; 2030 : 						{
; 2031 : 							INT32 len = (INT32)strlen( pSymbol->m_szValue);
; 2032 : 
; 2033 : 							memcpy( pszDest, pSymbol->m_szValue, len);
; 2034 : 							pszDest += len;
; 2035 : 						}
; 2036 : 						else
; 2037 : 						{
; 2038 : 							I3TRACE( "żĂąŮ¸ŁÁö ľĘŔş Symbol : %s\n", szSym);
; 2039 : 						}
; 2040 : 					}
; 2041 : 
; 2042 : 					bInSymbol = false;
; 2043 : 				}
; 2044 : 				else
; 2045 : 				{
; 2046 : 					bInSymbol = true;
; 2047 : 					symAccm = 0;
; 2048 : 				}
; 2049 : 				break;
; 2050 : 
; 2051 : 			default :
; 2052 : 				if( bInSymbol)
; 2053 : 				{
; 2054 : 					szSym[ symAccm ] = *pszTemp;
; 2055 : 					symAccm ++;
; 2056 : 				}
; 2057 : 				else
; 2058 : 				{
; 2059 : 					*pszDest = *pszTemp;
; 2060 : 					pszDest++;
; 2061 : 				}
; 2062 : 				break;
; 2063 : 		}
; 2064 : 
; 2065 : 		pszTemp++;
; 2066 : 	}
; 2067 : 
; 2068 : 	*pszDest = 0;
; 2069 : }
; 2070 : 
; 2071 : bool _scanWildcard( char * pszName, char * pszRull)
; 2072 : {
; 2073 : 	while( (*pszRull != 0) && (*pszName != 0))
; 2074 : 	{
; 2075 : 		switch( *pszRull)
; 2076 : 		{
; 2077 : 			case '*' :			return true;
; 2078 : 
; 2079 : 			case '?' :
; 2080 : 				break;
; 2081 : 
; 2082 : 			default :
; 2083 : 				if( toupper( *pszName) != toupper( *pszRull))
; 2084 : 					return false;
; 2085 : 				break;
; 2086 : 		}
; 2087 : 
; 2088 : 		pszRull++;
; 2089 : 		pszName++;
; 2090 : 	}
; 2091 : 
; 2092 : 	if( *pszRull != *pszName)
; 2093 : 		return false;
; 2094 : 
; 2095 : 	return true;
; 2096 : }
; 2097 : 
; 2098 : I3_EXPORT_BASE
; 2099 : bool i3String::IsMatchedWildcard( char * pszFileName, char * pszRull)
; 2100 : {
; 2101 : 	char	szRullName[ MAX_PATH], szRullExt[ MAX_PATH];
; 2102 : 	char	szName[ MAX_PATH], szExt[ MAX_PATH];
; 2103 : 
; 2104 : 	i3String::SplitFileName( pszRull, szRullName, FALSE);
; 2105 : 	i3String::SplitFileExt( pszRull, szRullExt, sizeof(szRullExt));
; 2106 : 
; 2107 : 	i3String::SplitFileName( pszFileName, szName, FALSE);
; 2108 : 	i3String::SplitFileExt(	 pszFileName, szExt, sizeof(szExt) - 1);
; 2109 : 
; 2110 : 	if( szRullName[0] != 0)
; 2111 : 	{
; 2112 : 		if( _scanWildcard( szName, szRullName) == false)
; 2113 : 			return false;
; 2114 : 	}
; 2115 : 
; 2116 : 	if( szRullExt[0] != 0)
; 2117 : 	{
; 2118 : 		if( _scanWildcard( szExt, szRullExt) == false)
; 2119 : 			return false;
; 2120 : 	}
; 2121 : 
; 2122 : 	return true;
; 2123 : }
; 2124 : 
; 2125 : I3_EXPORT_BASE
; 2126 : void i3String::GetPrefixName( char * pszDest, const  char * pszStr)
; 2127 : {
; 2128 : 	INT32 i;
; 2129 : 
; 2130 : 	// żěĽ± ą®ŔÚż­ŔÇ şą»ç
; 2131 : 	for( i = 0; pszStr[i] != 0; i++)
; 2132 : 	{
; 2133 : 		pszDest[i] = pszStr[i];
; 2134 : 	}
; 2135 : 
; 2136 : 	while( isdigit( pszDest[i - 1]))
; 2137 : 	{
; 2138 : 		// ŔĚŔü ą®ŔÚ°ˇ digit ą®ŔÚ¶ó¸é ľŐŔ¸·Î ŔĚµżÇŃ´Ů.
; 2139 : 		i--;
; 2140 : 	}
; 2141 : 
; 2142 : 	// ÇöŔç iŔÇ ŔĚŔü ą®ŔÚ´Â digit ą®ŔÚ°ˇ ľĆ´Ď±â¶§ą®żˇ
; 2143 : 	// łˇŔ» ÇĄ˝ĂÇŃ´Ů.
; 2144 : 	pszDest[i] = 0;
; 2145 : }
; 2146 : 
; 2147 : /////////////////////////////////////////////////////////////////////////////////////////
; 2148 : // ą®ŔÚż­żˇ Ć÷ÇÔµČ ĆŻÁ¤ ą®ŔÚż­Ŕ» şŻ°ćÇŃ´Ů.
; 2149 : // (żµą®ŔĎ °ćżě ´ëĽŇą®ŔÚ ±¸şĐÇÔ.)
; 2150 : //
; 2151 : // char *str	: ĆŻÁ¤ ą®ŔÚ¸¦ şŻ°ćÇŇ ą®ŔÚż­ŔÇ ˝ĂŔŰ Ć÷ŔÎĹÍ
; 2152 : // char *before	: şŻ°ćŔü ą®ŔÚż­
; 2153 : // char *affer	: şŻ°ćČÄ ą®ŔÚż­
; 2154 : //
; 2155 : // Return		: şŻ°ć Ľş°ř ż©şÎ
; 2156 : //
; 2157 : // ŔŰĽşŔÚ		: ąéĽşąÎ
; 2158 : // ŔŰĽşŔĎŔÚ		: 2008.8.22
; 2159 : I3_EXPORT_BASE
; 2160 : BOOL i3String::Replace(char * str, INT32 bufLen, const char * before, const char * affer)
; 2161 : {
; 2162 : 	const INT32 cbufMax = 4096;
; 2163 : 	char buf[cbufMax] = "", * pbuf = buf;
; 2164 : 	unsigned char * p = (unsigned char*) str;
; 2165 : 	unsigned char * bf = (unsigned char*) before;
; 2166 : 	unsigned char * af = (unsigned char*) affer;
; 2167 : 	INT32 len = 0;
; 2168 : 	BOOL bResult = FALSE;
; 2169 : 
; 2170 : 	if( str == NULL || *str == 0) return FALSE;
; 2171 : 	if( before == NULL || *before == 0) return FALSE;
; 2172 : 	if( affer == NULL || *affer == 0) return FALSE;
; 2173 : 
; 2174 : 	INT32 maxLen = MIN( bufLen, cbufMax);
; 2175 : 
; 2176 : 	while( *p) 
; 2177 : 	{
; 2178 : 		//	°°Ŕş ą®ŔÚż­Ŕ» ĂŁ´Â´Ů
; 2179 : 		if( *p == *bf)
; 2180 : 		{
; 2181 : 			INT32 count = 0;
; 2182 : 			unsigned char * c = p;
; 2183 : 
; 2184 : 			//	ą®ŔÚż­Ŕ» şń±łÇŘş»´Ů.
; 2185 : 			while( *c != 0 && *c == *bf)
; 2186 : 			{
; 2187 : 				bf++;
; 2188 : 				c++;
; 2189 : 				count++;
; 2190 : 			}		
; 2191 : 
; 2192 : 			//	ĂŁľĆľßÇŇ ¸đµç ą®ŔÚż­ °Ë»öŔĚ łˇłµ´Ů.
; 2193 : 			if( *bf == 0)
; 2194 : 			{				
; 2195 : 				af = (unsigned char*) affer;
; 2196 : 
; 2197 : 				//	şŻ°ćÇŇ ą®ŔÚż­·Î ±łĂĽÇŃ´Ů.
; 2198 : 				while( *af)
; 2199 : 				{
; 2200 : 					*(pbuf++) = *(af++);
; 2201 : 
; 2202 : 					len++;
; 2203 : 
; 2204 : 					//	ąöĆŰ°ˇ °ˇµćĂˇŔ¸ąÇ·Î ÁřÇŕ Áľ·á
; 2205 : 					if( len >= maxLen-1)
; 2206 : 					{
; 2207 : 						*pbuf = 0;
; 2208 : 						goto LABEL_EXIT;
; 2209 : 					}
; 2210 : 				}
; 2211 : 
; 2212 : 				p = c;	//	±łĂĽČÄ Ć÷ŔÎĹÍ ÁˇÇÁ.	
; 2213 : 
; 2214 : 				bResult = TRUE;
; 2215 : 			}
; 2216 : 			//	şń±ł ˝ÇĆĐ. żřş» ±×´ëµµ şą»ç
; 2217 : 			else
; 2218 : 			{
; 2219 : 				for(INT32 i=0; i < count; i++)
; 2220 : 				{
; 2221 : 					*(pbuf++) = *(p++);
; 2222 : 					len++;
; 2223 : 
; 2224 : 					//	ąöĆŰ°ˇ °ˇµćĂˇŔ¸ąÇ·Î ÁřÇŕ Áľ·á
; 2225 : 					if( len >= maxLen-1)
; 2226 : 					{
; 2227 : 						*pbuf = 0;
; 2228 : 						goto LABEL_EXIT;
; 2229 : 					}
; 2230 : 				}
; 2231 : 			}
; 2232 : 
; 2233 : 			//	´ŮŔ˝Ŕ¸·Î °čĽÓ ÁřÇŕµÇµµ·Ď
; 2234 : 			bf = (unsigned char*) before;
; 2235 : 		}
; 2236 : 		//	´Ů¸Ą ą®ŔÚ´Ů
; 2237 : 		else
; 2238 : 		{
; 2239 : 			*(pbuf++) = *(p++);
; 2240 : 			len++;
; 2241 : 
; 2242 : 			//	ąöĆŰ°ˇ °ˇµćĂˇŔ¸ąÇ·Î ÁřÇŕ Áľ·á
; 2243 : 			if( len >= maxLen-1)
; 2244 : 			{
; 2245 : 				*pbuf = 0;
; 2246 : 				goto LABEL_EXIT;
; 2247 : 			}		
; 2248 : 		}
; 2249 : 	}
; 2250 : 
; 2251 : LABEL_EXIT:
; 2252 : 
; 2253 : 	//	ĂÖÁľ şŻ°ćµČ°Í şą»ç
; 2254 : 	if( buf[0] != 0)
; 2255 : 	{
; 2256 : 		len = MIN( len, maxLen-1);
; 2257 : 
; 2258 :         i3String::NCopy( str, buf, len);
; 2259 : 
; 2260 : 		str[len] = 0;
; 2261 : 	}
; 2262 : 
; 2263 : 	return bResult;
; 2264 : }
; 2265 : 
; 2266 : I3_EXPORT_BASE
; 2267 : BOOL i3String::ReplaceNoCase(char * str, INT32 bufLen, const char * before, const char * affer)
; 2268 : {
; 2269 : 	const INT32 cbufMax = 4096;
; 2270 : 	char buf[cbufMax] = "", * pbuf = buf;
; 2271 : 	unsigned char * p = (unsigned char*) str;
; 2272 : 	unsigned char * bf = (unsigned char*) before;
; 2273 : 	unsigned char * af = (unsigned char*) affer;
; 2274 : 	INT32 len = 0;
; 2275 : 	BOOL bResult = FALSE;
; 2276 : 
; 2277 : 	if( str == NULL || *str == 0) return FALSE;
; 2278 : 	if( before == NULL) return FALSE;
; 2279 : 	if( affer == NULL) return FALSE;
; 2280 : 
; 2281 : 	INT32 maxLen = MIN( bufLen, cbufMax);
; 2282 : 
; 2283 : 	while( *p) 
; 2284 : 	{
; 2285 : 		//	°°Ŕş ą®ŔÚż­Ŕ» ĂŁ´Â´Ů
; 2286 : 		if( toupper(*p) == toupper(*bf))
; 2287 : 		{
; 2288 : 			INT32 count = 0;
; 2289 : 			unsigned char * c = p;
; 2290 : 
; 2291 : 			//	ą®ŔÚż­Ŕ» şń±łÇŘş»´Ů.
; 2292 : 			while( *c != 0 && (toupper(*c) == toupper(*bf)))
; 2293 : 			{
; 2294 : 				bf++;
; 2295 : 				c++;
; 2296 : 				count++;
; 2297 : 			}		
; 2298 : 
; 2299 : 			//	ĂŁľĆľßÇŇ ¸đµç ą®ŔÚż­ °Ë»öŔĚ łˇłµ´Ů.
; 2300 : 			if( *bf == 0)
; 2301 : 			{				
; 2302 : 				af = (unsigned char*) affer;
; 2303 : 
; 2304 : 				//	şŻ°ćÇŇ ą®ŔÚż­·Î ±łĂĽÇŃ´Ů.
; 2305 : 				while( *af)
; 2306 : 				{
; 2307 : 					*(pbuf++) = *(af++);
; 2308 : 
; 2309 : 					len++;
; 2310 : 
; 2311 : 					//	ąöĆŰ°ˇ °ˇµćĂˇŔ¸ąÇ·Î ÁřÇŕ Áľ·á
; 2312 : 					if( len >= maxLen-1)
; 2313 : 					{
; 2314 : 						*pbuf = 0;
; 2315 : 						goto LABEL_EXIT;
; 2316 : 					}
; 2317 : 				}
; 2318 : 
; 2319 : 				p = c;	//	±łĂĽČÄ Ć÷ŔÎĹÍ ÁˇÇÁ.	
; 2320 : 
; 2321 : 				bResult = TRUE;
; 2322 : 			}
; 2323 : 			//	şń±ł ˝ÇĆĐ. żřş» ±×´ëµµ şą»ç
; 2324 : 			else
; 2325 : 			{
; 2326 : 				for(INT32 i=0; i < count; i++)
; 2327 : 				{
; 2328 : 					*(pbuf++) = *(p++);
; 2329 : 					len++;
; 2330 : 
; 2331 : 					//	ąöĆŰ°ˇ °ˇµćĂˇŔ¸ąÇ·Î ÁřÇŕ Áľ·á
; 2332 : 					if( len >= maxLen-1)
; 2333 : 					{
; 2334 : 						*pbuf = 0;
; 2335 : 						goto LABEL_EXIT;
; 2336 : 					}
; 2337 : 				}
; 2338 : 			}
; 2339 : 
; 2340 : 			//	´ŮŔ˝Ŕ¸·Î °čĽÓ ÁřÇŕµÇµµ·Ď
; 2341 : 			bf = (unsigned char*) before;
; 2342 : 		}
; 2343 : 		//	´Ů¸Ą ą®ŔÚ´Ů
; 2344 : 		else
; 2345 : 		{
; 2346 : 			*(pbuf++) = *(p++);
; 2347 : 			len++;
; 2348 : 
; 2349 : 			//	ąöĆŰ°ˇ °ˇµćĂˇŔ¸ąÇ·Î ÁřÇŕ Áľ·á
; 2350 : 			if( len >= maxLen-1)
; 2351 : 			{
; 2352 : 				*pbuf = 0;
; 2353 : 				goto LABEL_EXIT;
; 2354 : 			}		
; 2355 : 		}
; 2356 : 	}
; 2357 : 
; 2358 : LABEL_EXIT:
; 2359 : 
; 2360 : 	//	ĂÖÁľ şŻ°ćµČ°Í şą»ç
; 2361 : 	if( buf[0] != 0)
; 2362 : 	{
; 2363 : 		len = MIN( len, maxLen-1);
; 2364 : 
; 2365 :         i3String::NCopy( str, buf, len);
; 2366 : 
; 2367 : 		str[len] = 0;
; 2368 : 	}
; 2369 : 
; 2370 : 	return bResult;
; 2371 : }
; 2372 : 
; 2373 : 
; 2374 : 
; 2375 : /////////////////////////////////////////////////////////////////////////////////////////////
; 2376 : //	THAI language -- ĽŇ˝ş´Â gpgstudyżˇĽ­ °ˇÁ®żČ (2008.7.31 komet)
; 2377 : /////////////////////////////////////////////////////////////////////////////////////////////
; 2378 : 
; 2379 : // Unicode of thai : 0x0E00~0x0E7F (Direct Mapping)
; 2380 : // Thai Character -> Unicode    (char+0x0E00)-0xA0 =    char+0x0D60
; 2381 : // Unicode -> Thai Character (wchar_t-0x0E00)+0xA0 = wchar_t-0x0D60
; 2382 : 
; 2383 : enum THAI_CLASS		//	Thai character classification
; 2384 : {	
; 2385 : 	CTRL= 0,		//	Control characters
; 2386 : 	NON= 1,			//	Non-composibles
; 2387 : 	CONS= 2,		//	Consonants
; 2388 : 	LV= 3,			//	Leading Vowels
; 2389 : 	FV1= 4,			//	Following Vowels
; 2390 : 	FV2= 5,
; 2391 : 	FV3= 6,
; 2392 : 	BV1= 7,			//	Below Vowels
; 2393 : 	BV2= 8,
; 2394 : 	BD= 9,			//	Below Diacritic
; 2395 : 	TONE=10,		//	Tonemarks
; 2396 : 	AD1=11,			//	Above Diacritics
; 2397 : 	AD2=12,
; 2398 : 	AD3=13,
; 2399 : 	AV1=14,			//	Above Vowels
; 2400 : 	AV2=15,
; 2401 : 	AV3=16,
; 2402 : };
; 2403 : 
; 2404 : THAI_CLASS 
; 2405 : THAI_CLASS_TABLE[256] = 
; 2406 : {
; 2407 : 	CTRL, CTRL, CTRL, CTRL, CTRL, CTRL, CTRL, CTRL, CTRL, CTRL, CTRL, CTRL, CTRL, CTRL, CTRL, CTRL, 
; 2408 : 	CTRL, CTRL, CTRL, CTRL, CTRL, CTRL, CTRL, CTRL, CTRL, CTRL, CTRL, CTRL, CTRL, CTRL, CTRL, CTRL, 
; 2409 : 	NON,  NON,  NON,  NON,  NON,  NON,  NON,  NON,  NON,  NON,  NON,  NON,  NON,  NON,  NON,  NON, 
; 2410 : 	NON,  NON,  NON,  NON,  NON,  NON,  NON,  NON,  NON,  NON,  NON,  NON,  NON,  NON,  NON,  NON, 
; 2411 : 	NON,  NON,  NON,  NON,  NON,  NON,  NON,  NON,  NON,  NON,  NON,  NON,  NON,  NON,  NON,  NON, 
; 2412 : 	NON,  NON,  NON,  NON,  NON,  NON,  NON,  NON,  NON,  NON,  NON,  NON,  NON,  NON,  NON,  NON, 
; 2413 : 	NON,  NON,  NON,  NON,  NON,  NON,  NON,  NON,  NON,  NON,  NON,  NON,  NON,  NON,  NON,  NON, 
; 2414 : 	NON,  NON,  NON,  NON,  NON,  NON,  NON,  NON,  NON,  NON,  NON,  NON,  NON,  NON,  NON, CTRL, 
; 2415 : 	CTRL, CTRL, CTRL, CTRL, CTRL, CTRL, CTRL, CTRL, CTRL, CTRL, CTRL, CTRL, CTRL, CTRL, CTRL, CTRL, 
; 2416 : 	CTRL, CTRL, CTRL, CTRL, CTRL, CTRL, CTRL, CTRL, CTRL, CTRL, CTRL, CTRL, CTRL, CTRL, CTRL, CTRL, 
; 2417 : 	NON, CONS, CONS, CONS, CONS, CONS, CONS, CONS, CONS, CONS, CONS, CONS, CONS, CONS, CONS, CONS, 
; 2418 : 	CONS, CONS, CONS, CONS, CONS, CONS, CONS, CONS, CONS, CONS, CONS, CONS, CONS, CONS, CONS, CONS, 
; 2419 : 	CONS, CONS, CONS, CONS,  FV3, CONS,  FV3, CONS, CONS, CONS, CONS, CONS, CONS, CONS, CONS,  NON, 
; 2420 : 	FV1,  AV2,  FV1,  FV1,  AV1,  AV3,  AV2,  AV3,  BV1,  BV2,   BD,  NON,  NON,  NON,  NON,  NON, 
; 2421 : 	LV,   LV,   LV,   LV,   LV,  FV2,  NON,  AD2, TONE, TONE, TONE, TONE,  AD1,  AD1,  AD3,  NON, 
; 2422 : 	NON,  NON,  NON,  NON,  NON,  NON,  NON,  NON,  NON,  NON,  NON,  NON,  NON,  NON,  NON, CTRL, 
; 2423 : };
; 2424 : 
; 2425 : enum THAI_INPUT_TYPE { IA, IC, IS, IR, IX };
; 2426 : 
; 2427 : BOOL THAI_INPUT_COMPOSIBLE[3][5] = {
; 2428 : 	{ TRUE, TRUE, TRUE, TRUE, TRUE },
; 2429 : 	{ TRUE, TRUE, TRUE,FALSE, TRUE },
; 2430 : 	{ TRUE, TRUE,FALSE,FALSE, TRUE },
; 2431 : };
; 2432 : 
; 2433 : THAI_INPUT_TYPE 
; 2434 : THAI_INPUT_STATE_CHECK[17][17] = {
; 2435 : 	{ IX,IA,IA,IA,IR,IR,IR,IR,IR,IR,IR,IR,IR,IR,IR,IR,IR },
; 2436 : 	{ IX,IA,IA,IA,IR,IR,IR,IR,IR,IR,IR,IR,IR,IR,IR,IR,IR },
; 2437 : 	{ IX,IA,IA,IA,IA,IS,IA,IC,IC,IC,IC,IC,IC,IC,IC,IC,IC },
; 2438 : 	{ IX,IS,IA,IS,IS,IS,IS,IR,IR,IR,IR,IR,IR,IR,IR,IR,IR },
; 2439 : 	{ IX,IS,IA,IS,IA,IS,IA,IR,IR,IR,IR,IR,IR,IR,IR,IR,IR },
; 2440 : 	{ IX,IA,IA,IA,IA,IS,IA,IR,IR,IR,IR,IR,IR,IR,IR,IR,IR },
; 2441 : 	{ IX,IA,IA,IA,IS,IA,IS,IR,IR,IR,IR,IR,IR,IR,IR,IR,IR },
; 2442 : 	{ IX,IA,IA,IA,IA,IS,IA,IR,IR,IR,IC,IC,IR,IR,IR,IR,IR },
; 2443 : 	{ IX,IA,IA,IA,IS,IS,IA,IR,IR,IR,IC,IR,IR,IR,IR,IR,IR },
; 2444 : 	{ IX,IA,IA,IA,IS,IS,IA,IR,IR,IR,IR,IR,IR,IR,IR,IR,IR },
; 2445 : 	{ IX,IA,IA,IA,IA,IA,IA,IR,IR,IR,IR,IR,IR,IR,IR,IR,IR },
; 2446 : 	{ IX,IA,IA,IA,IS,IS,IA,IR,IR,IR,IR,IR,IR,IR,IR,IR,IR },
; 2447 : 	{ IX,IA,IA,IA,IS,IS,IA,IR,IR,IR,IR,IR,IR,IR,IR,IR,IR },
; 2448 : 	{ IX,IA,IA,IA,IS,IS,IA,IR,IR,IR,IR,IR,IR,IR,IR,IR,IR },
; 2449 : 	{ IX,IA,IA,IA,IS,IS,IA,IR,IR,IR,IC,IC,IR,IR,IR,IR,IR },
; 2450 : 	{ IX,IA,IA,IA,IS,IS,IA,IR,IR,IR,IC,IR,IR,IR,IR,IR,IR },
; 2451 : 	{ IX,IA,IA,IA,IS,IS,IA,IR,IR,IR,IC,IR,IC,IR,IR,IR,IR },
; 2452 : };
; 2453 : 
; 2454 : enum THAI_OUTPUT_TYPE { ON, OC, OX };
; 2455 : 
; 2456 : THAI_OUTPUT_TYPE 
; 2457 : THAI_OUTPUT_STATE_CHECK[17][17] = {
; 2458 : 	{ OX,ON,ON,ON,ON,ON,ON,ON,ON,ON,ON,ON,ON,ON,ON,ON,ON },
; 2459 : 	{ OX,ON,ON,ON,ON,ON,ON,ON,ON,ON,ON,ON,ON,ON,ON,ON,ON },
; 2460 : 	{ OX,ON,ON,ON,OC,OC,OC,OC,OC,OC,OC,OC,OC,OC,OC,OC,OC },
; 2461 : 	{ OX,ON,ON,ON,ON,ON,ON,ON,ON,ON,ON,ON,ON,ON,ON,ON,ON },
; 2462 : 	{ OX,ON,ON,ON,ON,ON,ON,ON,ON,ON,ON,ON,ON,ON,ON,ON,ON },
; 2463 : 	{ OX,ON,ON,ON,ON,ON,ON,ON,ON,ON,ON,ON,ON,ON,ON,ON,ON },
; 2464 : 	{ OX,ON,ON,ON,ON,ON,ON,ON,ON,ON,ON,ON,ON,ON,ON,ON,ON },
; 2465 : 	{ OX,ON,ON,ON,ON,ON,ON,ON,ON,ON,OC,OC,ON,ON,ON,ON,ON },
; 2466 : 	{ OX,ON,ON,ON,ON,ON,ON,ON,ON,ON,OC,ON,ON,ON,ON,ON,ON },
; 2467 : 	{ OX,ON,ON,ON,ON,ON,ON,ON,ON,ON,ON,ON,ON,ON,ON,ON,ON },
; 2468 : 	{ OX,ON,ON,ON,ON,ON,ON,ON,ON,ON,ON,ON,ON,ON,ON,ON,ON },
; 2469 : 	{ OX,ON,ON,ON,ON,ON,ON,ON,ON,ON,ON,ON,ON,ON,ON,ON,ON },
; 2470 : 	{ OX,ON,ON,ON,ON,ON,ON,ON,ON,ON,ON,ON,ON,ON,ON,ON,ON },
; 2471 : 	{ OX,ON,ON,ON,ON,ON,ON,ON,ON,ON,ON,ON,ON,ON,ON,ON,ON },
; 2472 : 	{ OX,ON,ON,ON,ON,ON,ON,ON,ON,ON,OC,OC,ON,ON,ON,ON,ON },
; 2473 : 	{ OX,ON,ON,ON,ON,ON,ON,ON,ON,ON,OC,ON,ON,ON,ON,ON,ON },
; 2474 : 	{ OX,ON,ON,ON,ON,ON,ON,ON,ON,ON,OC,ON,OC,ON,ON,ON,ON },
; 2475 : };
; 2476 : 
; 2477 : I3_EXPORT_BASE
; 2478 : BOOL i3String::IsComposite(INT32 nCodePage, const char prev, const char curr, INT32 mode)
; 2479 : {
; 2480 : 	switch( nCodePage)
; 2481 : 	{
; 2482 : 	case I3_LANG_CODE_THAI:	//	THAI
; 2483 : 		{
; 2484 : 			if( mode > 2)	
; 2485 : 				return FALSE;
; 2486 : 			else 
; 2487 : 			{
; 2488 : 				BYTE prev_stream = (BYTE)prev;
; 2489 : 
; 2490 : 				BYTE curr_stream = (BYTE)curr;
; 2491 : 
; 2492 : 				THAI_CLASS prev_class = THAI_CLASS_TABLE[prev_stream];
; 2493 : 				I3ASSERT( prev_class >= 0 && prev_class < 17);
; 2494 : 
; 2495 : 				THAI_CLASS curr_class = THAI_CLASS_TABLE[curr_stream];
; 2496 : 				I3ASSERT( curr_class >= 0 && curr_class < 17);
; 2497 : 
; 2498 : 				THAI_INPUT_TYPE state_type = THAI_INPUT_STATE_CHECK[prev_class][curr_class];
; 2499 : 
; 2500 : 				return THAI_INPUT_COMPOSIBLE[mode][state_type];
; 2501 : 			}
; 2502 : 		}
; 2503 : 		break;
; 2504 : 	default:
; 2505 : 		I3ASSERT_0;
; 2506 : 		break;
; 2507 : 	}
; 2508 : 
; 2509 : 	return FALSE;
; 2510 : }
; 2511 : 
; 2512 : I3_EXPORT_BASE
; 2513 : INT32 i3String::LengthChar(INT32 nCodePage, const char * pszStr)
; 2514 : {
; 2515 : 	I3ASSERT( pszStr != NULL && nCodePage != 0 && nCodePage != 1);
; 2516 : 
; 2517 : 	INT32 nCount = 0;
; 2518 : 	const char * pszCurr = pszStr;
; 2519 : 	while( *pszCurr)
; 2520 : 	{
; 2521 : 		pszCurr = CharNext(nCodePage, pszCurr);
; 2522 : 		nCount++;
; 2523 : 	}	
; 2524 : 
; 2525 : 	return nCount;
; 2526 : }
; 2527 : 
; 2528 : I3_EXPORT_BASE
; 2529 : const char * i3String::CharNext(INT32 nCodePage, const char * pszStr)
; 2530 : {
; 2531 : 	I3ASSERT( pszStr != NULL && nCodePage != 0 && nCodePage != 1);
; 2532 : 
; 2533 : 	switch( nCodePage)
; 2534 : 	{
; 2535 : 	case I3_LANG_CODE_THAI:		//	THAI			ĹÂ±ąŔş Á¶ÇŐÇü MBCS ĂĽ°č (1~4ąŮŔĚĆ® °ˇşŻ ąŮŔĚĆ® ) ÁÖŔÇ! ĹÂ±ąľî´Â 2ąŮŔĚĆ®°ˇ ľĆ´Ď´Ů!
; 2536 : 		{
; 2537 : 			const BYTE * stream = (const BYTE*) pszStr;
; 2538 : 			
; 2539 : 			for(;;)
; 2540 : 			{
; 2541 : 				THAI_CLASS c1 = THAI_CLASS_TABLE[ stream[0]];
; 2542 : 				I3ASSERT( c1 >= 0 && c1 < 17);
; 2543 : 
; 2544 : 				THAI_CLASS c2 = THAI_CLASS_TABLE[ stream[1]];			
; 2545 : 				I3ASSERT( c2 >= 0 && c2 < 17);
; 2546 : 
; 2547 : 				if( THAI_OUTPUT_STATE_CHECK[c1][c2] == OC)
; 2548 : 					++stream;
; 2549 : 				else
; 2550 : 					break;
; 2551 : 			}
; 2552 : 
; 2553 : 			return (const char*)(stream+1);
; 2554 : 		}
; 2555 : 		break;
; 2556 : 	case I3_LANG_CODE_KOREAN:					//	HANGUL			ÇŃ±Ű 
; 2557 : 	case I3_LANG_CODE_JAPANESE:					//	SHIFTJIS		ŔĎş»ľî
; 2558 : 	case I3_LANG_CODE_CHINESE_SIMPLIFIED:		//	GB2312			Áß±ąľî °ŁĂĽ
; 2559 : 	case I3_LANG_CODE_CHINESE_TRADITIONAL:		//	CHINESEBIG5		Áß±ąľî ąřĂĽ
; 2560 : 		{
; 2561 : #if I3_WINDOWS
; 2562 : 			return ::CharNextExA((WORD) nCodePage, pszStr, 0);
; 2563 : #else
; 2564 : 			//	CJK(ÇŃÁßŔĎ) ľđľî´Â DBCS ˝Ă˝şĹŰ (2ąŮŔĚĆ®) 
; 2565 : 			if( *pszStr & 0x80)		//	lead byte		ascii żµżŞŔş 0 ~ 127(0x7E) ŔĚ¸ç 0x80 şÎĹÍ ±Řµż ľđľî(DBCS)·Î ŔÎ˝ÄµČ´Ů.
; 2566 : 			{
; 2567 : 				pszStr++;
; 2568 : 			}
; 2569 : 
; 2570 : 			return (*pszStr != 0 ? pszStr++ : pszStr);
; 2571 : #endif
; 2572 : 		}
; 2573 : 		break;
; 2574 : 	default:
; 2575 : 		{
; 2576 : #if I3_WINDOWS
; 2577 : 			return ::CharNextExA((WORD) nCodePage, pszStr, 0);
; 2578 : #else
; 2579 : 			return pszStr++;		//	ÄÚµĺ ĆäŔĚÁö°ˇ Á¤ŔÇµÇÁö ľĘľŇ´Ů.
; 2580 : #endif
; 2581 : 		}
; 2582 : 		break;
; 2583 : 	}
; 2584 : }
; 2585 : 
; 2586 : I3_EXPORT_BASE
; 2587 : const char * i3String::CharPrev(INT32 nCodePage, const char * pszStart, const char * pszCurrent)
; 2588 : {
; 2589 : 	I3ASSERT( pszStart != NULL && pszCurrent != NULL && nCodePage != 0 && nCodePage != 1);
; 2590 : 
; 2591 : 	switch( nCodePage)
; 2592 : 	{
; 2593 : 	case I3_LANG_CODE_THAI:		//	THAI			ĹÂ±ąŔş Á¶ÇŐÇü MBCS ĂĽ°č (1~4ąŮŔĚĆ® °ˇşŻ ąŮŔĚĆ® )
; 2594 : 		{
; 2595 : 			while( pszStart < pszCurrent)
; 2596 : 			{
; 2597 : 				const char * pszNext = CharNext(nCodePage, pszStart);
; 2598 : 
; 2599 : 				if( pszNext == pszCurrent)
; 2600 : 					return pszStart;
; 2601 : 				else if( pszNext < pszCurrent)
; 2602 : 					pszStart = pszNext;
; 2603 : 				else
; 2604 : 					break;
; 2605 : 			}
; 2606 : 
; 2607 : 			return pszStart;
; 2608 : 		}
; 2609 : 		break;
; 2610 : 	case I3_LANG_CODE_KOREAN:					//	HANGUL			ÇŃ±Ű 
; 2611 : 	case I3_LANG_CODE_JAPANESE:					//	SHIFTJIS		ŔĎş»ľî
; 2612 : 	case I3_LANG_CODE_CHINESE_SIMPLIFIED:		//	GB2312			Áß±ąľî °ŁĂĽ
; 2613 : 	case I3_LANG_CODE_CHINESE_TRADITIONAL:		//	CHINESEBIG5		Áß±ąľî ąřĂĽ
; 2614 : 		{
; 2615 : #if I3_WINDOWS
; 2616 : 			return ::CharPrevExA((WORD) nCodePage, pszStart, pszCurrent, 0);
; 2617 : #else
; 2618 : 			while( pszStart < pszCurrent)
; 2619 : 			{
; 2620 : 				const char * pszNext = CharNext(nCodePage, pszStart);
; 2621 : 
; 2622 : 				if( pszNext < pszCurrent) 
; 2623 : 					pszStart = pszNext;
; 2624 : 				else
; 2625 : 					return pszNext;
; 2626 : 			}
; 2627 : 
; 2628 : 			return pszStart;
; 2629 : #endif
; 2630 : 		}
; 2631 : 		break;
; 2632 : 	default:
; 2633 : 		{
; 2634 : #if I3_WINDOWS
; 2635 : 			return ::CharPrevExA((WORD) nCodePage, pszStart, pszCurrent, 0);
; 2636 : #else
; 2637 : 			return pszStr;		//	ÄÚµĺ ĆäŔĚÁö°ˇ Á¤ŔÇµÇÁö ľĘľŇ´Ů.
; 2638 : #endif
; 2639 : 		}
; 2640 : 		break;
; 2641 : 	}
; 2642 : }
; 2643 : 
; 2644 : I3_EXPORT_BASE INT32 i3String::Format( char * strDest, INT32 i32Length, const char * strFormat, ... )
; 2645 : {
; 2646 : 	va_list marker;
; 2647 : 	va_start( marker, strFormat);
; 2648 : 	INT32 i32Rv = ::_vsnprintf_s( strDest, i32Length, _TRUNCATE, strFormat, marker);
; 2649 : 	va_end( marker);
; 2650 : 	if( 0 > i32Rv )		i32Rv = i32Length-1;
; 2651 : 	return i32Rv;
; 2652 : }
; 2653 : 
; 2654 : I3_EXPORT_BASE INT32 i3String::Format( wchar_t * strDest, INT32 i32Length, const wchar_t * strFormat, ...)
; 2655 : {
; 2656 : 	va_list marker;
; 2657 : 	va_start( marker, strFormat);
; 2658 : 	INT32 i32Rv = ::_vsnwprintf_s( strDest, i32Length, _TRUNCATE, strFormat, marker);
; 2659 : 	va_end( marker);
; 2660 : 	if( 0 > i32Rv )		i32Rv = i32Length-1;
; 2661 : 	return i32Rv;
; 2662 : }
; 2663 : 
; 2664 : /*	
; 2665 : Brute Force algorithm
; 2666 : 
; 2667 : http://www-igm.univ-mlv.fr/~lecroq/string/node3.html#SECTION0030
; 2668 : 
; 2669 : Features
; 2670 : - no preprocessing phase. 
; 2671 : - constant extra space needed. 
; 2672 : - always shifts the window by exactly 1 position to the right. 
; 2673 : - comparisons can be done in any order. 
; 2674 : - searching phase in O(mn) time complexity. 
; 2675 : - 2n expected text characters comparisons.
; 2676 : */
; 2677 : INT32 BF_search(char *dest, char *src)
; 2678 : {
; 2679 : 	INT32 i = 0,j = 0;
; 2680 : 
; 2681 : 	if( dest == NULL || src == NULL)
; 2682 : 		return -1;
; 2683 : 
; 2684 : 	INT32 srcLen = i3String::Length(src);
; 2685 : 	INT32 destLen = i3String::Length(dest);
; 2686 : 
; 2687 : 	 if( srcLen == 0 || destLen == 0)
; 2688 : 		 return -1;
; 2689 : 
; 2690 : 	for(j=0; j<=destLen-srcLen; j++)
; 2691 : 	{
; 2692 : 		for(i=0; i<srcLen && src[i] == dest[i+j]; i++);
; 2693 : 
; 2694 : 		if( i >= srcLen)
; 2695 : 			return j;
; 2696 : 	}
; 2697 : 
; 2698 : 	return -1;
; 2699 : }
; 2700 : 
; 2701 : /*
; 2702 : Knuth-Morris-Pratt algorithm
; 2703 : 
; 2704 : http://www-igm.univ-mlv.fr/~lecroq/string/node8.html#SECTION0080
; 2705 : 
; 2706 : Features
; 2707 : - performs the comparisons from left to right. 
; 2708 : - preprocessing phase in O(m) space and time complexity. 
; 2709 : - searching phase in O(n+m) time complexity (independent from the alphabet size). 
; 2710 : - delay bounded by log(m) where  is the golden ratio (  ).
; 2711 : */
; 2712 : INT32 * KMP_init(char *src)
; 2713 : {
; 2714 : 	INT32 i=0, j=0;
; 2715 : 	INT32 srcLen=i3String::Length(src);
; 2716 : 
; 2717 : 	INT32 * next = (INT32*) i3MemAlloc( sizeof(INT32) * (srcLen+1));
; 2718 : 
; 2719 : 	next[0] = -1;
; 2720 : 	
; 2721 : 	for(i=0, j=-1; i<srcLen; i++, j++, next[i] = j)
; 2722 : 	{
; 2723 : 		while((j>=0) && (src[i] != src[j]))
; 2724 : 			j= next[j];
; 2725 : 	}	
; 2726 : 	
; 2727 : 	return next;
; 2728 : }
; 2729 : 
; 2730 : INT32 KMP_search(char *dest, char *src)
; 2731 : {
; 2732 : 	INT32 i=0, j=0;
; 2733 : 
; 2734 : 	if( dest == NULL || src == NULL)
; 2735 : 		return -1;
; 2736 : 
; 2737 : 	INT32 destLen = i3String::Length(dest);
; 2738 : 	INT32 srcLen = i3String::Length(src);
; 2739 : 
; 2740 : 	if( srcLen == 0 || destLen == 0)
; 2741 : 		return -1;
; 2742 : 
; 2743 : 	//	Preprocessing
; 2744 : 	INT32 * next = KMP_init( src);
; 2745 : 	I3ASSERT( next != NULL);
; 2746 : 
; 2747 : 	//	searching
; 2748 : 	for( i=0, j=0; j<srcLen && i<destLen; i++, j++)
; 2749 : 	{
; 2750 : 		while((j >= 0) && (dest[i] != src[j])) 
; 2751 : 			j = next[j];
; 2752 : 	}
; 2753 : 
; 2754 : 	if( next)
; 2755 : 	{
; 2756 : 		I3MEM_SAFE_FREE( next);
; 2757 : 	}
; 2758 : 
; 2759 : 	if( j == srcLen)	return i-srcLen;
; 2760 : 	else				return -1;
; 2761 : }
; 2762 : 
; 2763 : /*
; 2764 : Boyer-Moore algorithm
; 2765 : 
; 2766 : http://www-igm.univ-mlv.fr/~lecroq/string/node14.html#SECTION0014
; 2767 : 
; 2768 : Features
; 2769 : - performs the comparisons from right to left. 
; 2770 : - preprocessing phase in O(m+Ąň) time and space complexity. 
; 2771 : - searching phase in O(mn) time complexity. 
; 2772 : - 3n text character comparisons in the worst case when searching for a non periodic pattern. 
; 2773 : - O(n / m) best performance.
; 2774 : 
; 2775 : ascii °Ë»ö¸¸ fast ľË°í¸®ÁňŔĚ ŔŰµżÇĎ¸ç ¸ÖĆĽąŮŔĚĆ®´Â ŔĎąÝ Ľ±Çü °Ë»ö ąć˝ÄŔ¸·Î ŔŰµż.
; 2776 : ł»şÎĽ­ ¸Ţ¸đ¸® ÇŇ´çŔĚ ŔĎľîłŞąÇ·Î ŔćŔş °Ë»ö ¶Ç´Â ´Üą®ŔÇ °Ë»öŔş żŔČ÷·Á i3String::Contain ş¸´Ů ´Ŕ¸®´Ů.
; 2777 : ÂŞŔş ł»żëŔÇ ą®ŔÚ °Ë»öş¸´Ů´Â ±ä Ŕĺą®ŔÇ ł»żëŔ» °Ë»öÇŇĽö·Ď ż©Ĺ¸ ľË°í¸®Áňş¸´Ů Ľş´ÉŔĚ Çâ»óµČ´Ů.
; 2778 : */
; 2779 : #define IS_ASCII_CHAR(ch)		(ch>=0 && ch<256)
; 2780 : 
; 2781 : // bad-character shift array
; 2782 : void preBmBc( char *src, INT32 srcLen, INT32 * bmBc, INT32 bmBcLen)
; 2783 : {
; 2784 : 	INT32 i=0;
; 2785 : 
; 2786 : 	for( i=0; i<bmBcLen; i++)
; 2787 : 	{
; 2788 : 		bmBc[i] = srcLen;
; 2789 : 	}
; 2790 : 
; 2791 : 	for( i=0; i<srcLen-1; i++)

  000d6	42		 inc	 edx
  000d7	3b d7		 cmp	 edx, edi
  000d9	7c e5		 jl	 SHORT $LL36@BM_search
$LN43@BM_search:

; 2886 : 	preBmBc( src, srcLen, bmBc, 256);			// make bad-character shift
; 2887 : 
; 2888 : 	//	Searching
; 2889 : 	while( j<= destLen - srcLen)

  000db	29 9d f8 fb ff
	ff		 sub	 DWORD PTR _Count$1$[ebp], ebx
  000e1	78 6e		 js	 SHORT $LN74@BM_search

; 2890 : 	{
; 2891 : 		for( i=srcLen-1; i>=0 && src[i] == dest[i+j]; i--);

  000e3	8b c7		 mov	 eax, edi
  000e5	33 c9		 xor	 ecx, ecx
  000e7	33 ff		 xor	 edi, edi
  000e9	85 c0		 test	 eax, eax
  000eb	78 15		 js	 SHORT $LN45@BM_search
  000ed	8d 49 00	 npad	 3
$LL72@BM_search:
  000f0	8b 55 08	 mov	 edx, DWORD PTR _dest$[ebp]
  000f3	03 d1		 add	 edx, ecx
$LL6@BM_search:
  000f5	8a 0c 30	 mov	 cl, BYTE PTR [eax+esi]
  000f8	3a 0c 10	 cmp	 cl, BYTE PTR [eax+edx]
  000fb	75 0c		 jne	 SHORT $LN5@BM_search
  000fd	83 e8 01	 sub	 eax, 1
  00100	79 f3		 jns	 SHORT $LL6@BM_search
$LN45@BM_search:

; 2892 : 
; 2893 : 		if(i<0)
; 2894 : 		{
; 2895 : 			find = TRUE;

  00102	bb 01 00 00 00	 mov	 ebx, 1
  00107	eb 4c		 jmp	 SHORT $_EXIT$94
$LN5@BM_search:

; 2896 : 
; 2897 : 			goto _EXIT;
; 2898 : 			//j+=bmGs[0];
; 2899 : 		}
; 2900 : 		else
; 2901 : 		{
; 2902 : 			INT32 skip = 1;
; 2903 : 
; 2904 : 			// ascii code ł»żˇ ŔÖ´Â °Í¸¸ Ăł¸®
; 2905 : 			if( IS_ASCII_CHAR( dest[i+j]))

  00109	8b 75 08	 mov	 esi, DWORD PTR _dest$[ebp]
  0010c	8d 0c 07	 lea	 ecx, DWORD PTR [edi+eax]
  0010f	ba 01 00 00 00	 mov	 edx, 1
  00114	8a 0c 31	 mov	 cl, BYTE PTR [ecx+esi]
  00117	8b b5 f0 fb ff
	ff		 mov	 esi, DWORD PTR _src$GSCopy$1$[ebp]
  0011d	84 c9		 test	 cl, cl
  0011f	78 0a		 js	 SHORT $LN63@BM_search
  00121	0f be c9	 movsx	 ecx, cl

; 2906 : 			{
; 2907 : 				skip = bmBc[ dest[i+j]];

  00124	8b 94 8d fc fb
	ff ff		 mov	 edx, DWORD PTR _bmBc$[ebp+ecx*4]
$LN63@BM_search:

; 2908 : 			}
; 2909 : 
; 2910 : 			j+=MAX( bmGs[i], skip - srcLen + 1 + i);

  0012b	2b d3		 sub	 edx, ebx
  0012d	8d 4a 01	 lea	 ecx, DWORD PTR [edx+1]
  00130	8b 95 f4 fb ff
	ff		 mov	 edx, DWORD PTR _bmGs$1$[ebp]
  00136	03 c8		 add	 ecx, eax
  00138	8b 04 82	 mov	 eax, DWORD PTR [edx+eax*4]
  0013b	3b c1		 cmp	 eax, ecx
  0013d	0f 4e c1	 cmovle	 eax, ecx
  00140	03 f8		 add	 edi, eax
  00142	8b cf		 mov	 ecx, edi
  00144	3b bd f8 fb ff
	ff		 cmp	 edi, DWORD PTR _Count$1$[ebp]
  0014a	7f 07		 jg	 SHORT $LN75@BM_search

; 2886 : 	preBmBc( src, srcLen, bmBc, 256);			// make bad-character shift
; 2887 : 
; 2888 : 	//	Searching
; 2889 : 	while( j<= destLen - srcLen)

  0014c	8d 43 ff	 lea	 eax, DWORD PTR [ebx-1]
  0014f	eb 9f		 jmp	 SHORT $LL72@BM_search
$LN74@BM_search:
  00151	33 ff		 xor	 edi, edi
$LN75@BM_search:

; 2911 : 		}
; 2912 : 	}
; 2913 : 
; 2914 : 
; 2915 : _EXIT:
; 2916 : 
; 2917 : 	if( bmGs)

  00153	33 db		 xor	 ebx, ebx
$_EXIT$94:
  00155	8b 85 f4 fb ff
	ff		 mov	 eax, DWORD PTR _bmGs$1$[ebp]
  0015b	85 c0		 test	 eax, eax
  0015d	74 13		 je	 SHORT $LN16@BM_search

; 2918 : 	{
; 2919 : 		I3MEM_SAFE_FREE( bmGs);

  0015f	68 67 0b 00 00	 push	 2919			; 00000b67H
  00164	68 00 00 00 00	 push	 OFFSET ??_C@_0GD@CAEEIHCP@E?3?2Proyectos?2JuegosOnlineproyec@
  00169	50		 push	 eax
  0016a	e8 00 00 00 00	 call	 ?FreeTool@i3mem@@YAXPAXPBDH@Z ; i3mem::FreeTool
  0016f	83 c4 0c	 add	 esp, 12			; 0000000cH
$LN16@BM_search:

; 2920 : 	}
; 2921 : 
; 2922 : 	if( find)

  00172	85 db		 test	 ebx, ebx
  00174	74 13		 je	 SHORT $LN8@BM_search

; 2923 : 		return j;

  00176	8b c7		 mov	 eax, edi
  00178	5f		 pop	 edi

; 2924 : 	else
; 2925 : 		return -1;
; 2926 : }

  00179	5e		 pop	 esi
  0017a	5b		 pop	 ebx
  0017b	8b 4d fc	 mov	 ecx, DWORD PTR __$ArrayPad$[ebp]
  0017e	33 cd		 xor	 ecx, ebp
  00180	e8 00 00 00 00	 call	 @__security_check_cookie@4
  00185	8b e5		 mov	 esp, ebp
  00187	5d		 pop	 ebp
  00188	c3		 ret	 0
$LN8@BM_search:
  00189	8b 4d fc	 mov	 ecx, DWORD PTR __$ArrayPad$[ebp]
  0018c	83 c8 ff	 or	 eax, -1
  0018f	5f		 pop	 edi
  00190	5e		 pop	 esi
  00191	33 cd		 xor	 ecx, ebp
  00193	5b		 pop	 ebx
  00194	e8 00 00 00 00	 call	 @__security_check_cookie@4
  00199	8b e5		 mov	 esp, ebp
  0019b	5d		 pop	 ebp
  0019c	c3		 ret	 0
?BM_search@@YAHPAD0@Z ENDP				; BM_search
_TEXT	ENDS
; Function compile flags: /Ogtp
; File E:\Proyectos\JuegosOnlineproyectos\PB\pbblow\Piercing Blow Remake\i3Server\src\i3Base\i3String.cpp
;	COMDAT ?preBmGs@@YAXPADHPAHH@Z
_TEXT	SEGMENT
_f$1$ = -4						; size = 4
_src$ = 8						; size = 4
_srcLen$ = 12						; size = 4
_suff$1$ = 12						; size = 4
_bmGs$ = 16						; size = 4
_bmGsLen$ = 20						; size = 4
?preBmGs@@YAXPADHPAHH@Z PROC				; preBmGs, COMDAT

; 2831 : {

  00000	55		 push	 ebp
  00001	8b ec		 mov	 ebp, esp
  00003	51		 push	 ecx
  00004	53		 push	 ebx
  00005	8b 5d 0c	 mov	 ebx, DWORD PTR _srcLen$[ebp]
  00008	56		 push	 esi
  00009	57		 push	 edi

; 2832 : 	INT32 i=0,j=0;
; 2833 : 	INT32 * suff = (INT32*) i3MemAlloc( sizeof(INT32) * (srcLen+1));

  0000a	68 11 0b 00 00	 push	 2833			; 00000b11H
  0000f	68 00 00 00 00	 push	 OFFSET ??_C@_0GD@CAEEIHCP@E?3?2Proyectos?2JuegosOnlineproyec@
  00014	6a 10		 push	 16			; 00000010H
  00016	33 f6		 xor	 esi, esi
  00018	8d 3c 9d 00 00
	00 00		 lea	 edi, DWORD PTR [ebx*4]
  0001f	8d 47 04	 lea	 eax, DWORD PTR [edi+4]
  00022	56		 push	 esi
  00023	50		 push	 eax
  00024	e8 00 00 00 00	 call	 ?AllocTool@i3mem@@YAPAXHHHPBDH@Z ; i3mem::AllocTool
  00029	8b c8		 mov	 ecx, eax

; 2803 : 	INT32 f=0,g=0,i=0;

  0002b	89 75 fc	 mov	 DWORD PTR _f$1$[ebp], esi

; 2832 : 	INT32 i=0,j=0;
; 2833 : 	INT32 * suff = (INT32*) i3MemAlloc( sizeof(INT32) * (srcLen+1));

  0002e	83 c4 14	 add	 esp, 20			; 00000014H
  00031	89 4d 0c	 mov	 DWORD PTR _suff$1$[ebp], ecx

; 2807 : 	g = srcLen-1;

  00034	8d 53 ff	 lea	 edx, DWORD PTR [ebx-1]
  00037	89 5c 0f fc	 mov	 DWORD PTR [edi+ecx-4], ebx

; 2808 : 
; 2809 : 	for(i=srcLen-2; i>=0; i--)

  0003b	8d 7b fe	 lea	 edi, DWORD PTR [ebx-2]
  0003e	85 ff		 test	 edi, edi
  00040	78 53		 js	 SHORT $LN20@preBmGs
  00042	8b 75 08	 mov	 esi, DWORD PTR _src$[ebp]
  00045	eb 02		 jmp	 SHORT $LN21@preBmGs
$LL61@preBmGs:
  00047	8b c8		 mov	 ecx, eax
$LN21@preBmGs:

; 2810 : 	{
; 2811 : 		if( i>g && suff[ i+srcLen-1-f] < i-g)

  00049	3b fa		 cmp	 edi, edx
  0004b	7e 13		 jle	 SHORT $LN24@preBmGs
  0004d	8b c7		 mov	 eax, edi
  0004f	2b 45 fc	 sub	 eax, DWORD PTR _f$1$[ebp]
  00052	03 c3		 add	 eax, ebx
  00054	8b 4c 81 fc	 mov	 ecx, DWORD PTR [ecx+eax*4-4]
  00058	8b c7		 mov	 eax, edi
  0005a	2b c2		 sub	 eax, edx
  0005c	3b c8		 cmp	 ecx, eax
  0005e	7c 28		 jl	 SHORT $LN19@preBmGs
$LN24@preBmGs:

; 2812 : 		{
; 2813 : 			suff[i] = suff[ i+srcLen-1-f];
; 2814 : 		}
; 2815 : 		else
; 2816 : 		{
; 2817 : 			if( i<g)	g = i;
; 2818 : 
; 2819 : 			f=i;

  00060	3b fa		 cmp	 edi, edx
  00062	89 7d fc	 mov	 DWORD PTR _f$1$[ebp], edi
  00065	8b c7		 mov	 eax, edi
  00067	0f 4d c2	 cmovge	 eax, edx
  0006a	8b d0		 mov	 edx, eax

; 2820 : 		
; 2821 : 			while( g>=0 && src[g] == src[ g+srcLen-1-f])

  0006c	85 d2		 test	 edx, edx
  0006e	78 14		 js	 SHORT $LN59@preBmGs
$LL22@preBmGs:
  00070	8a 04 16	 mov	 al, BYTE PTR [esi+edx]
  00073	8b cb		 mov	 ecx, ebx
  00075	2b cf		 sub	 ecx, edi
  00077	03 ca		 add	 ecx, edx
  00079	3a 44 31 ff	 cmp	 al, BYTE PTR [ecx+esi-1]
  0007d	75 05		 jne	 SHORT $LN59@preBmGs

; 2822 : 				--g;

  0007f	83 ea 01	 sub	 edx, 1
  00082	79 ec		 jns	 SHORT $LL22@preBmGs
$LN59@preBmGs:

; 2823 : 
; 2824 : 			suff[i] = f-g;

  00084	8b cf		 mov	 ecx, edi
  00086	2b ca		 sub	 ecx, edx
$LN19@preBmGs:

; 2808 : 
; 2809 : 	for(i=srcLen-2; i>=0; i--)

  00088	8b 45 0c	 mov	 eax, DWORD PTR _suff$1$[ebp]
  0008b	89 0c b8	 mov	 DWORD PTR [eax+edi*4], ecx
  0008e	83 ef 01	 sub	 edi, 1
  00091	79 b4		 jns	 SHORT $LL61@preBmGs
  00093	33 f6		 xor	 esi, esi
$LN20@preBmGs:

; 2834 : 	
; 2835 : 	I3ASSERT( suff != NULL);
; 2836 : 
; 2837 : 	// make suffix
; 2838 : 	suffixes( src, srcLen, suff);
; 2839 : 
; 2840 : 	for( i=0; i<srcLen; i++)

  00095	8b 55 10	 mov	 edx, DWORD PTR _bmGs$[ebp]
  00098	85 db		 test	 ebx, ebx
  0009a	7e 08		 jle	 SHORT $LL58@preBmGs

; 2841 : 	{
; 2842 : 		bmGs[ i] = srcLen;

  0009c	8b cb		 mov	 ecx, ebx
  0009e	8b c3		 mov	 eax, ebx
  000a0	8b fa		 mov	 edi, edx
  000a2	f3 ab		 rep stosd
$LL58@preBmGs:

; 2843 : 	}
; 2844 : 
; 2845 : 	for( i=srcLen-1; i >= 0; i--)

  000a4	8d 4b ff	 lea	 ecx, DWORD PTR [ebx-1]
  000a7	85 c9		 test	 ecx, ecx
  000a9	78 28		 js	 SHORT $LN6@preBmGs
  000ab	8b 7d 0c	 mov	 edi, DWORD PTR _suff$1$[ebp]
  000ae	8b ff		 npad	 2
$LL7@preBmGs:

; 2846 : 	{
; 2847 : 		if( suff[ i] == i+1)

  000b0	8d 41 01	 lea	 eax, DWORD PTR [ecx+1]
  000b3	39 04 8f	 cmp	 DWORD PTR [edi+ecx*4], eax
  000b6	75 16		 jne	 SHORT $LN5@preBmGs

; 2848 : 		{
; 2849 : 			for( ; j<srcLen-1-i; j++)

  000b8	8b c3		 mov	 eax, ebx
  000ba	2b c1		 sub	 eax, ecx
  000bc	48		 dec	 eax
  000bd	3b f0		 cmp	 esi, eax
  000bf	7d 0d		 jge	 SHORT $LN5@preBmGs
$LL10@preBmGs:

; 2850 : 			{
; 2851 : 				if( bmGs[ j] == srcLen)

  000c1	39 1c b2	 cmp	 DWORD PTR [edx+esi*4], ebx
  000c4	75 03		 jne	 SHORT $LN8@preBmGs

; 2852 : 				{
; 2853 : 					bmGs[ j] = srcLen-1-i;

  000c6	89 04 b2	 mov	 DWORD PTR [edx+esi*4], eax
$LN8@preBmGs:

; 2848 : 		{
; 2849 : 			for( ; j<srcLen-1-i; j++)

  000c9	46		 inc	 esi
  000ca	3b f0		 cmp	 esi, eax
  000cc	7c f3		 jl	 SHORT $LL10@preBmGs
$LN5@preBmGs:

; 2843 : 	}
; 2844 : 
; 2845 : 	for( i=srcLen-1; i >= 0; i--)

  000ce	83 e9 01	 sub	 ecx, 1
  000d1	79 dd		 jns	 SHORT $LL7@preBmGs
$LN6@preBmGs:

; 2854 : 				}
; 2855 : 			}
; 2856 : 		}
; 2857 : 	}
; 2858 : 
; 2859 : 	for( i=0; i<=srcLen-2; i++)

  000d3	8d 43 fe	 lea	 eax, DWORD PTR [ebx-2]
  000d6	33 f6		 xor	 esi, esi
  000d8	85 c0		 test	 eax, eax
  000da	78 27		 js	 SHORT $LN12@preBmGs
  000dc	8b 7d 10	 mov	 edi, DWORD PTR _bmGs$[ebp]
  000df	90		 npad	 1
$LL13@preBmGs:

; 2860 : 	{
; 2861 : 		bmGs[ srcLen-1-suff[i]] = srcLen-1-i;

  000e0	8b 45 0c	 mov	 eax, DWORD PTR _suff$1$[ebp]
  000e3	8b d3		 mov	 edx, ebx
  000e5	2b d6		 sub	 edx, esi
  000e7	4a		 dec	 edx
  000e8	8b 0c b0	 mov	 ecx, DWORD PTR [eax+esi*4]
  000eb	8d 04 9d 00 00
	00 00		 lea	 eax, DWORD PTR [ebx*4]
  000f2	c1 e1 02	 shl	 ecx, 2
  000f5	46		 inc	 esi
  000f6	2b c1		 sub	 eax, ecx
  000f8	89 54 38 fc	 mov	 DWORD PTR [eax+edi-4], edx
  000fc	8d 43 fe	 lea	 eax, DWORD PTR [ebx-2]
  000ff	3b f0		 cmp	 esi, eax
  00101	7e dd		 jle	 SHORT $LL13@preBmGs
$LN12@preBmGs:

; 2862 : 	}
; 2863 : 
; 2864 : 	I3MEM_SAFE_FREE( suff);

  00103	8b 45 0c	 mov	 eax, DWORD PTR _suff$1$[ebp]
  00106	5f		 pop	 edi
  00107	5e		 pop	 esi
  00108	5b		 pop	 ebx
  00109	85 c0		 test	 eax, eax
  0010b	74 13		 je	 SHORT $LN16@preBmGs
  0010d	68 30 0b 00 00	 push	 2864			; 00000b30H
  00112	68 00 00 00 00	 push	 OFFSET ??_C@_0GD@CAEEIHCP@E?3?2Proyectos?2JuegosOnlineproyec@
  00117	50		 push	 eax
  00118	e8 00 00 00 00	 call	 ?FreeTool@i3mem@@YAXPAXPBDH@Z ; i3mem::FreeTool
  0011d	83 c4 0c	 add	 esp, 12			; 0000000cH
$LN16@preBmGs:

; 2865 : }

  00120	8b e5		 mov	 esp, ebp
  00122	5d		 pop	 ebp
  00123	c3		 ret	 0
?preBmGs@@YAXPADHPAHH@Z ENDP				; preBmGs
_TEXT	ENDS
; Function compile flags: /Ogtp
; File E:\Proyectos\JuegosOnlineproyectos\PB\pbblow\Piercing Blow Remake\i3Server\src\i3Base\i3String.cpp
;	COMDAT ?suffixes@@YAXPADHPAH@Z
_TEXT	SEGMENT
_src$ = 8						; size = 4
_srcLen$ = 12						; size = 4
_f$1$ = 12						; size = 4
_suff$ = 16						; size = 4
?suffixes@@YAXPADHPAH@Z PROC				; suffixes, COMDAT

; 2802 : {

  00000	55		 push	 ebp
  00001	8b ec		 mov	 ebp, esp

; 2803 : 	INT32 f=0,g=0,i=0;
; 2804 : 
; 2805 : 	suff[ srcLen-1] = srcLen;

  00003	8b 55 10	 mov	 edx, DWORD PTR _suff$[ebp]
  00006	53		 push	 ebx
  00007	8b 5d 0c	 mov	 ebx, DWORD PTR _srcLen$[ebp]
  0000a	56		 push	 esi
  0000b	57		 push	 edi
  0000c	8b 7d 08	 mov	 edi, DWORD PTR _src$[ebp]

; 2806 : 
; 2807 : 	g = srcLen-1;
; 2808 : 
; 2809 : 	for(i=srcLen-2; i>=0; i--)

  0000f	8d 73 fe	 lea	 esi, DWORD PTR [ebx-2]
  00012	c7 45 0c 00 00
	00 00		 mov	 DWORD PTR _f$1$[ebp], 0
  00019	89 5c 9a fc	 mov	 DWORD PTR [edx+ebx*4-4], ebx
  0001d	8d 43 ff	 lea	 eax, DWORD PTR [ebx-1]
  00020	85 f6		 test	 esi, esi
  00022	78 51		 js	 SHORT $LN3@suffixes
$LL4@suffixes:

; 2810 : 	{
; 2811 : 		if( i>g && suff[ i+srcLen-1-f] < i-g)

  00024	3b f0		 cmp	 esi, eax
  00026	7e 13		 jle	 SHORT $LN7@suffixes
  00028	8b ce		 mov	 ecx, esi
  0002a	2b 4d 0c	 sub	 ecx, DWORD PTR _f$1$[ebp]
  0002d	03 cb		 add	 ecx, ebx
  0002f	8b 54 8a fc	 mov	 edx, DWORD PTR [edx+ecx*4-4]
  00033	8b ce		 mov	 ecx, esi
  00035	2b c8		 sub	 ecx, eax
  00037	3b d1		 cmp	 edx, ecx
  00039	7c 2d		 jl	 SHORT $LN2@suffixes
$LN7@suffixes:

; 2812 : 		{
; 2813 : 			suff[i] = suff[ i+srcLen-1-f];
; 2814 : 		}
; 2815 : 		else
; 2816 : 		{
; 2817 : 			if( i<g)	g = i;
; 2818 : 
; 2819 : 			f=i;

  0003b	3b f0		 cmp	 esi, eax
  0003d	89 75 0c	 mov	 DWORD PTR _f$1$[ebp], esi
  00040	8b ce		 mov	 ecx, esi
  00042	0f 4d c8	 cmovge	 ecx, eax
  00045	8b c1		 mov	 eax, ecx

; 2820 : 		
; 2821 : 			while( g>=0 && src[g] == src[ g+srcLen-1-f])

  00047	85 c0		 test	 eax, eax
  00049	78 19		 js	 SHORT $LN21@suffixes
  0004b	eb 03 8d 49 00	 npad	 5
$LL5@suffixes:
  00050	8a 0c 07	 mov	 cl, BYTE PTR [edi+eax]
  00053	8b d3		 mov	 edx, ebx
  00055	2b d6		 sub	 edx, esi
  00057	03 d0		 add	 edx, eax
  00059	3a 4c 3a ff	 cmp	 cl, BYTE PTR [edx+edi-1]
  0005d	75 05		 jne	 SHORT $LN21@suffixes

; 2822 : 				--g;

  0005f	83 e8 01	 sub	 eax, 1
  00062	79 ec		 jns	 SHORT $LL5@suffixes
$LN21@suffixes:

; 2823 : 
; 2824 : 			suff[i] = f-g;

  00064	8b d6		 mov	 edx, esi
  00066	2b d0		 sub	 edx, eax
$LN2@suffixes:

; 2806 : 
; 2807 : 	g = srcLen-1;
; 2808 : 
; 2809 : 	for(i=srcLen-2; i>=0; i--)

  00068	8b 4d 10	 mov	 ecx, DWORD PTR _suff$[ebp]
  0006b	89 14 b1	 mov	 DWORD PTR [ecx+esi*4], edx
  0006e	83 ee 01	 sub	 esi, 1
  00071	8b d1		 mov	 edx, ecx
  00073	79 af		 jns	 SHORT $LL4@suffixes
$LN3@suffixes:
  00075	5f		 pop	 edi

; 2825 : 		}
; 2826 : 	}
; 2827 : }

  00076	5e		 pop	 esi
  00077	5b		 pop	 ebx
  00078	5d		 pop	 ebp
  00079	c3		 ret	 0
?suffixes@@YAXPADHPAH@Z ENDP				; suffixes
_TEXT	ENDS
; Function compile flags: /Ogtp
; File E:\Proyectos\JuegosOnlineproyectos\PB\pbblow\Piercing Blow Remake\i3Server\src\i3Base\i3String.cpp
;	COMDAT ?preBmBc@@YAXPADHPAHH@Z
_TEXT	SEGMENT
_src$ = 8						; size = 4
_srcLen$ = 12						; size = 4
_bmBc$ = 16						; size = 4
_bmBcLen$ = 20						; size = 4
?preBmBc@@YAXPADHPAHH@Z PROC				; preBmBc, COMDAT

; 2783 : {

  00000	55		 push	 ebp
  00001	8b ec		 mov	 ebp, esp
  00003	8b 4d 14	 mov	 ecx, DWORD PTR _bmBcLen$[ebp]
  00006	53		 push	 ebx
  00007	8b 5d 0c	 mov	 ebx, DWORD PTR _srcLen$[ebp]
  0000a	56		 push	 esi
  0000b	57		 push	 edi

; 2784 : 	INT32 i=0;
; 2785 : 
; 2786 : 	for( i=0; i<bmBcLen; i++)

  0000c	85 c9		 test	 ecx, ecx
  0000e	7e 07		 jle	 SHORT $LL20@preBmBc

; 2787 : 	{
; 2788 : 		bmBc[i] = srcLen;

  00010	8b 7d 10	 mov	 edi, DWORD PTR _bmBc$[ebp]
  00013	8b c3		 mov	 eax, ebx
  00015	f3 ab		 rep stosd
$LL20@preBmBc:

; 2789 : 	}
; 2790 : 
; 2791 : 	for( i=0; i<srcLen-1; i++)

  00017	8d 73 ff	 lea	 esi, DWORD PTR [ebx-1]
  0001a	33 c0		 xor	 eax, eax
  0001c	85 f6		 test	 esi, esi
  0001e	7e 1d		 jle	 SHORT $LN6@preBmBc
  00020	8b 7d 10	 mov	 edi, DWORD PTR _bmBc$[ebp]
$LL7@preBmBc:

; 2792 : 	{
; 2793 : 		// ascii code ł»żˇ ŔÖ´Â °Í¸¸ Ăł¸®
; 2794 :         // multi byte µîŔş ±×´ë·Î µŇ
; 2795 : 		if( IS_ASCII_CHAR( src[i]))

  00023	8b 4d 08	 mov	 ecx, DWORD PTR _src$[ebp]
  00026	8a 0c 01	 mov	 cl, BYTE PTR [ecx+eax]
  00029	84 c9		 test	 cl, cl
  0002b	78 0b		 js	 SHORT $LN5@preBmBc
  0002d	8b d3		 mov	 edx, ebx
  0002f	0f be c9	 movsx	 ecx, cl
  00032	2b d0		 sub	 edx, eax

; 2796 : 			bmBc[ src[i]] = srcLen-1-i;

  00034	4a		 dec	 edx
  00035	89 14 8f	 mov	 DWORD PTR [edi+ecx*4], edx
$LN5@preBmBc:

; 2789 : 	}
; 2790 : 
; 2791 : 	for( i=0; i<srcLen-1; i++)

  00038	40		 inc	 eax
  00039	3b c6		 cmp	 eax, esi
  0003b	7c e6		 jl	 SHORT $LL7@preBmBc
$LN6@preBmBc:
  0003d	5f		 pop	 edi

; 2797 : 	}
; 2798 : }

  0003e	5e		 pop	 esi
  0003f	5b		 pop	 ebx
  00040	5d		 pop	 ebp
  00041	c3		 ret	 0
?preBmBc@@YAXPADHPAHH@Z ENDP				; preBmBc
_TEXT	ENDS
; Function compile flags: /Ogtp
; File E:\Proyectos\JuegosOnlineproyectos\PB\pbblow\Piercing Blow Remake\i3Server\src\i3Base\i3String.cpp
;	COMDAT ?KMP_search@@YAHPAD0@Z
_TEXT	SEGMENT
_Count$1$ = -12						; size = 4
_Count$3$ = -8						; size = 4
_Count$1$ = -4						; size = 4
_dest$ = 8						; size = 4
_src$ = 12						; size = 4
?KMP_search@@YAHPAD0@Z PROC				; KMP_search, COMDAT

; 2731 : {

  00000	55		 push	 ebp
  00001	8b ec		 mov	 ebp, esp

; 2732 : 	INT32 i=0, j=0;
; 2733 : 
; 2734 : 	if( dest == NULL || src == NULL)

  00003	8b 55 08	 mov	 edx, DWORD PTR _dest$[ebp]
  00006	83 ec 0c	 sub	 esp, 12			; 0000000cH
  00009	53		 push	 ebx
  0000a	57		 push	 edi
  0000b	8b 7d 0c	 mov	 edi, DWORD PTR _src$[ebp]
  0000e	85 d2		 test	 edx, edx
  00010	0f 84 08 01 00
	00		 je	 $LN8@KMP_search
  00016	85 ff		 test	 edi, edi
  00018	0f 84 00 01 00
	00		 je	 $LN8@KMP_search

; 1055 : 	INT32 Count = 0;

  0001e	33 c9		 xor	 ecx, ecx

; 2736 : 
; 2737 : 	INT32 destLen = i3String::Length(dest);

  00020	8b c2		 mov	 eax, edx

; 1055 : 	INT32 Count = 0;

  00022	89 4d fc	 mov	 DWORD PTR _Count$1$[ebp], ecx

; 1056 : 
; 1057 : 	while( *pStr1)

  00025	38 0a		 cmp	 BYTE PTR [edx], cl
  00027	74 13		 je	 SHORT $LN18@KMP_search
  00029	8d a4 24 00 00
	00 00		 npad	 7
$LL17@KMP_search:

; 1058 : 	{
; 1059 : 		Count++;
; 1060 : 		pStr1++;

  00030	8d 40 01	 lea	 eax, DWORD PTR [eax+1]
  00033	41		 inc	 ecx
  00034	80 38 00	 cmp	 BYTE PTR [eax], 0
  00037	75 f7		 jne	 SHORT $LL17@KMP_search
  00039	89 4d fc	 mov	 DWORD PTR _Count$1$[ebp], ecx
$LN18@KMP_search:

; 1055 : 	INT32 Count = 0;

  0003c	33 db		 xor	 ebx, ebx

; 2738 : 	INT32 srcLen = i3String::Length(src);

  0003e	8b c7		 mov	 eax, edi

; 1057 : 	while( *pStr1)

  00040	38 1f		 cmp	 BYTE PTR [edi], bl
  00042	0f 84 d6 00 00
	00		 je	 $LN8@KMP_search
$LL21@KMP_search:

; 1058 : 	{
; 1059 : 		Count++;
; 1060 : 		pStr1++;

  00048	8d 40 01	 lea	 eax, DWORD PTR [eax+1]
  0004b	43		 inc	 ebx
  0004c	80 38 00	 cmp	 BYTE PTR [eax], 0
  0004f	75 f7		 jne	 SHORT $LL21@KMP_search

; 2739 : 
; 2740 : 	if( srcLen == 0 || destLen == 0)

  00051	89 5d f8	 mov	 DWORD PTR _Count$3$[ebp], ebx
  00054	85 db		 test	 ebx, ebx
  00056	0f 84 c2 00 00
	00		 je	 $LN8@KMP_search
  0005c	85 c9		 test	 ecx, ecx
  0005e	0f 84 ba 00 00
	00		 je	 $LN8@KMP_search

; 2715 : 	INT32 srcLen=i3String::Length(src);

  00064	8b c7		 mov	 eax, edi

; 1055 : 	INT32 Count = 0;

  00066	33 c9		 xor	 ecx, ecx
$LL32@KMP_search:

; 1058 : 	{
; 1059 : 		Count++;
; 1060 : 		pStr1++;

  00068	8d 40 01	 lea	 eax, DWORD PTR [eax+1]
  0006b	41		 inc	 ecx
  0006c	80 38 00	 cmp	 BYTE PTR [eax], 0
  0006f	75 f7		 jne	 SHORT $LL32@KMP_search
  00071	56		 push	 esi

; 2717 : 	INT32 * next = (INT32*) i3MemAlloc( sizeof(INT32) * (srcLen+1));

  00072	68 9d 0a 00 00	 push	 2717			; 00000a9dH
  00077	68 00 00 00 00	 push	 OFFSET ??_C@_0GD@CAEEIHCP@E?3?2Proyectos?2JuegosOnlineproyec@
  0007c	6a 10		 push	 16			; 00000010H
  0007e	8d 04 8d 04 00
	00 00		 lea	 eax, DWORD PTR [ecx*4+4]
  00085	89 4d f4	 mov	 DWORD PTR _Count$1$[ebp], ecx
  00088	6a 00		 push	 0
  0008a	50		 push	 eax
  0008b	e8 00 00 00 00	 call	 ?AllocTool@i3mem@@YAPAXHHHPBDH@Z ; i3mem::AllocTool

; 2718 : 
; 2719 : 	next[0] = -1;
; 2720 : 	
; 2721 : 	for(i=0, j=-1; i<srcLen; i++, j++, next[i] = j)

  00090	8b 55 f4	 mov	 edx, DWORD PTR _Count$1$[ebp]
  00093	83 c4 14	 add	 esp, 20			; 00000014H
  00096	33 f6		 xor	 esi, esi
  00098	83 c9 ff	 or	 ecx, -1
  0009b	c7 00 ff ff ff
	ff		 mov	 DWORD PTR [eax], -1
  000a1	85 d2		 test	 edx, edx
  000a3	7e 23		 jle	 SHORT $LN26@KMP_search
  000a5	89 5d f8	 mov	 DWORD PTR _Count$3$[ebp], ebx
$LL27@KMP_search:

; 2722 : 	{
; 2723 : 		while((j>=0) && (src[i] != src[j]))

  000a8	85 c9		 test	 ecx, ecx
  000aa	78 13		 js	 SHORT $LN25@KMP_search
  000ac	8a 14 3e	 mov	 dl, BYTE PTR [esi+edi]
  000af	90		 npad	 1
$LL28@KMP_search:
  000b0	3a 14 39	 cmp	 dl, BYTE PTR [ecx+edi]
  000b3	74 07		 je	 SHORT $LN70@KMP_search

; 2724 : 			j= next[j];

  000b5	8b 0c 88	 mov	 ecx, DWORD PTR [eax+ecx*4]
  000b8	85 c9		 test	 ecx, ecx
  000ba	79 f4		 jns	 SHORT $LL28@KMP_search
$LN70@KMP_search:
  000bc	8b 55 f4	 mov	 edx, DWORD PTR _Count$1$[ebp]
$LN25@KMP_search:

; 2718 : 
; 2719 : 	next[0] = -1;
; 2720 : 	
; 2721 : 	for(i=0, j=-1; i<srcLen; i++, j++, next[i] = j)

  000bf	46		 inc	 esi
  000c0	41		 inc	 ecx
  000c1	89 0c b0	 mov	 DWORD PTR [eax+esi*4], ecx
  000c4	3b f2		 cmp	 esi, edx
  000c6	7c e0		 jl	 SHORT $LL27@KMP_search
$LN26@KMP_search:

; 2741 : 		return -1;
; 2742 : 
; 2743 : 	//	Preprocessing
; 2744 : 	INT32 * next = KMP_init( src);
; 2745 : 	I3ASSERT( next != NULL);
; 2746 : 
; 2747 : 	//	searching
; 2748 : 	for( i=0, j=0; j<srcLen && i<destLen; i++, j++)

  000c8	8b 55 f8	 mov	 edx, DWORD PTR _Count$3$[ebp]
  000cb	33 db		 xor	 ebx, ebx
  000cd	33 f6		 xor	 esi, esi
  000cf	85 d2		 test	 edx, edx
  000d1	7e 26		 jle	 SHORT $LN72@KMP_search
  000d3	8b 4d fc	 mov	 ecx, DWORD PTR _Count$1$[ebp]
$LL4@KMP_search:
  000d6	3b d9		 cmp	 ebx, ecx
  000d8	7d 1f		 jge	 SHORT $LN72@KMP_search

; 2749 : 	{
; 2750 : 		while((j >= 0) && (dest[i] != src[j])) 

  000da	85 f6		 test	 esi, esi
  000dc	78 15		 js	 SHORT $LN2@KMP_search
  000de	8b 4d 08	 mov	 ecx, DWORD PTR _dest$[ebp]
  000e1	8a 0c 19	 mov	 cl, BYTE PTR [ecx+ebx]
$LL5@KMP_search:
  000e4	3a 0c 3e	 cmp	 cl, BYTE PTR [esi+edi]
  000e7	74 07		 je	 SHORT $LN71@KMP_search

; 2751 : 			j = next[j];

  000e9	8b 34 b0	 mov	 esi, DWORD PTR [eax+esi*4]
  000ec	85 f6		 test	 esi, esi
  000ee	79 f4		 jns	 SHORT $LL5@KMP_search
$LN71@KMP_search:
  000f0	8b 4d fc	 mov	 ecx, DWORD PTR _Count$1$[ebp]
$LN2@KMP_search:

; 2741 : 		return -1;
; 2742 : 
; 2743 : 	//	Preprocessing
; 2744 : 	INT32 * next = KMP_init( src);
; 2745 : 	I3ASSERT( next != NULL);
; 2746 : 
; 2747 : 	//	searching
; 2748 : 	for( i=0, j=0; j<srcLen && i<destLen; i++, j++)

  000f3	46		 inc	 esi
  000f4	43		 inc	 ebx
  000f5	3b f2		 cmp	 esi, edx
  000f7	7c dd		 jl	 SHORT $LL4@KMP_search
$LN72@KMP_search:

; 2752 : 	}
; 2753 : 
; 2754 : 	if( next)
; 2755 : 	{
; 2756 : 		I3MEM_SAFE_FREE( next);

  000f9	68 c4 0a 00 00	 push	 2756			; 00000ac4H
  000fe	68 00 00 00 00	 push	 OFFSET ??_C@_0GD@CAEEIHCP@E?3?2Proyectos?2JuegosOnlineproyec@
  00103	50		 push	 eax
  00104	e8 00 00 00 00	 call	 ?FreeTool@i3mem@@YAXPAXPBDH@Z ; i3mem::FreeTool

; 2757 : 	}
; 2758 : 
; 2759 : 	if( j == srcLen)	return i-srcLen;

  00109	8b 45 f8	 mov	 eax, DWORD PTR _Count$3$[ebp]
  0010c	83 c4 0c	 add	 esp, 12			; 0000000cH
  0010f	3b f0		 cmp	 esi, eax
  00111	5e		 pop	 esi
  00112	75 0a		 jne	 SHORT $LN8@KMP_search
  00114	2b d8		 sub	 ebx, eax
  00116	5f		 pop	 edi
  00117	8b c3		 mov	 eax, ebx

; 2760 : 	else				return -1;
; 2761 : }

  00119	5b		 pop	 ebx
  0011a	8b e5		 mov	 esp, ebp
  0011c	5d		 pop	 ebp
  0011d	c3		 ret	 0
$LN8@KMP_search:
  0011e	5f		 pop	 edi

; 2735 : 		return -1;

  0011f	83 c8 ff	 or	 eax, -1

; 2760 : 	else				return -1;
; 2761 : }

  00122	5b		 pop	 ebx
  00123	8b e5		 mov	 esp, ebp
  00125	5d		 pop	 ebp
  00126	c3		 ret	 0
?KMP_search@@YAHPAD0@Z ENDP				; KMP_search
_TEXT	ENDS
; Function compile flags: /Ogtp
; File E:\Proyectos\JuegosOnlineproyectos\PB\pbblow\Piercing Blow Remake\i3Server\src\i3Base\i3String.cpp
;	COMDAT ?KMP_init@@YAPAHPAD@Z
_TEXT	SEGMENT
_src$ = 8						; size = 4
?KMP_init@@YAPAHPAD@Z PROC				; KMP_init, COMDAT

; 2713 : {

  00000	55		 push	 ebp
  00001	8b ec		 mov	 ebp, esp
  00003	53		 push	 ebx
  00004	56		 push	 esi
  00005	8b 75 08	 mov	 esi, DWORD PTR _src$[ebp]

; 1055 : 	INT32 Count = 0;

  00008	33 db		 xor	 ebx, ebx

; 2713 : {

  0000a	57		 push	 edi

; 2714 : 	INT32 i=0, j=0;
; 2715 : 	INT32 srcLen=i3String::Length(src);

  0000b	8b c6		 mov	 eax, esi

; 1057 : 	while( *pStr1)

  0000d	38 1e		 cmp	 BYTE PTR [esi], bl
  0000f	74 09		 je	 SHORT $LN10@KMP_init
$LL9@KMP_init:

; 1058 : 	{
; 1059 : 		Count++;
; 1060 : 		pStr1++;

  00011	8d 40 01	 lea	 eax, DWORD PTR [eax+1]
  00014	43		 inc	 ebx
  00015	80 38 00	 cmp	 BYTE PTR [eax], 0
  00018	75 f7		 jne	 SHORT $LL9@KMP_init
$LN10@KMP_init:

; 2716 : 
; 2717 : 	INT32 * next = (INT32*) i3MemAlloc( sizeof(INT32) * (srcLen+1));

  0001a	68 9d 0a 00 00	 push	 2717			; 00000a9dH
  0001f	68 00 00 00 00	 push	 OFFSET ??_C@_0GD@CAEEIHCP@E?3?2Proyectos?2JuegosOnlineproyec@
  00024	6a 10		 push	 16			; 00000010H
  00026	8d 04 9d 04 00
	00 00		 lea	 eax, DWORD PTR [ebx*4+4]
  0002d	6a 00		 push	 0
  0002f	50		 push	 eax
  00030	e8 00 00 00 00	 call	 ?AllocTool@i3mem@@YAPAXHHHPBDH@Z ; i3mem::AllocTool
  00035	83 c4 14	 add	 esp, 20			; 00000014H

; 2718 : 
; 2719 : 	next[0] = -1;
; 2720 : 	
; 2721 : 	for(i=0, j=-1; i<srcLen; i++, j++, next[i] = j)

  00038	33 ff		 xor	 edi, edi
  0003a	83 c9 ff	 or	 ecx, -1
  0003d	c7 00 ff ff ff
	ff		 mov	 DWORD PTR [eax], -1
  00043	85 db		 test	 ebx, ebx
  00045	7e 1e		 jle	 SHORT $LN3@KMP_init
$LL4@KMP_init:

; 2722 : 	{
; 2723 : 		while((j>=0) && (src[i] != src[j]))

  00047	85 c9		 test	 ecx, ecx
  00049	78 11		 js	 SHORT $LN2@KMP_init
  0004b	8a 14 37	 mov	 dl, BYTE PTR [edi+esi]
  0004e	8b ff		 npad	 2
$LL5@KMP_init:
  00050	3a 14 31	 cmp	 dl, BYTE PTR [ecx+esi]
  00053	74 07		 je	 SHORT $LN2@KMP_init

; 2724 : 			j= next[j];

  00055	8b 0c 88	 mov	 ecx, DWORD PTR [eax+ecx*4]
  00058	85 c9		 test	 ecx, ecx
  0005a	79 f4		 jns	 SHORT $LL5@KMP_init
$LN2@KMP_init:

; 2718 : 
; 2719 : 	next[0] = -1;
; 2720 : 	
; 2721 : 	for(i=0, j=-1; i<srcLen; i++, j++, next[i] = j)

  0005c	47		 inc	 edi
  0005d	41		 inc	 ecx
  0005e	89 0c b8	 mov	 DWORD PTR [eax+edi*4], ecx
  00061	3b fb		 cmp	 edi, ebx
  00063	7c e2		 jl	 SHORT $LL4@KMP_init
$LN3@KMP_init:
  00065	5f		 pop	 edi

; 2725 : 	}	
; 2726 : 	
; 2727 : 	return next;
; 2728 : }

  00066	5e		 pop	 esi
  00067	5b		 pop	 ebx
  00068	5d		 pop	 ebp
  00069	c3		 ret	 0
?KMP_init@@YAPAHPAD@Z ENDP				; KMP_init
_TEXT	ENDS
; Function compile flags: /Ogtp
; File E:\Proyectos\JuegosOnlineproyectos\PB\pbblow\Piercing Blow Remake\i3Server\src\i3Base\i3String.cpp
;	COMDAT ?BF_search@@YAHPAD0@Z
_TEXT	SEGMENT
_dest$ = 8						; size = 4
_src$ = 12						; size = 4
?BF_search@@YAHPAD0@Z PROC				; BF_search, COMDAT

; 2678 : {

  00000	55		 push	 ebp
  00001	8b ec		 mov	 ebp, esp
  00003	53		 push	 ebx

; 2679 : 	INT32 i = 0,j = 0;
; 2680 : 
; 2681 : 	if( dest == NULL || src == NULL)

  00004	8b 5d 08	 mov	 ebx, DWORD PTR _dest$[ebp]
  00007	56		 push	 esi
  00008	57		 push	 edi
  00009	85 db		 test	 ebx, ebx
  0000b	74 6b		 je	 SHORT $LN9@BF_search
  0000d	8b 4d 0c	 mov	 ecx, DWORD PTR _src$[ebp]
  00010	85 c9		 test	 ecx, ecx
  00012	74 64		 je	 SHORT $LN9@BF_search

; 1055 : 	INT32 Count = 0;

  00014	33 d2		 xor	 edx, edx

; 2682 : 		return -1;
; 2683 : 
; 2684 : 	INT32 srcLen = i3String::Length(src);

  00016	8b c1		 mov	 eax, ecx

; 1057 : 	while( *pStr1)

  00018	38 11		 cmp	 BYTE PTR [ecx], dl
  0001a	74 0d		 je	 SHORT $LN16@BF_search
  0001c	8d 64 24 00	 npad	 4
$LL15@BF_search:

; 1058 : 	{
; 1059 : 		Count++;
; 1060 : 		pStr1++;

  00020	8d 40 01	 lea	 eax, DWORD PTR [eax+1]
  00023	42		 inc	 edx
  00024	80 38 00	 cmp	 BYTE PTR [eax], 0
  00027	75 f7		 jne	 SHORT $LL15@BF_search
$LN16@BF_search:

; 1055 : 	INT32 Count = 0;

  00029	33 ff		 xor	 edi, edi

; 2685 : 	INT32 destLen = i3String::Length(dest);

  0002b	8b c3		 mov	 eax, ebx

; 1057 : 	while( *pStr1)

  0002d	80 3b 00	 cmp	 BYTE PTR [ebx], 0
  00030	74 09		 je	 SHORT $LN20@BF_search
$LL19@BF_search:

; 1058 : 	{
; 1059 : 		Count++;
; 1060 : 		pStr1++;

  00032	8d 40 01	 lea	 eax, DWORD PTR [eax+1]
  00035	47		 inc	 edi
  00036	80 38 00	 cmp	 BYTE PTR [eax], 0
  00039	75 f7		 jne	 SHORT $LL19@BF_search
$LN20@BF_search:

; 2686 : 
; 2687 : 	 if( srcLen == 0 || destLen == 0)

  0003b	85 d2		 test	 edx, edx
  0003d	74 39		 je	 SHORT $LN9@BF_search
  0003f	85 ff		 test	 edi, edi
  00041	74 35		 je	 SHORT $LN9@BF_search

; 2688 : 		 return -1;
; 2689 : 
; 2690 : 	for(j=0; j<=destLen-srcLen; j++)

  00043	2b fa		 sub	 edi, edx
  00045	78 31		 js	 SHORT $LN9@BF_search

; 2691 : 	{
; 2692 : 		for(i=0; i<srcLen && src[i] == dest[i+j]; i++);

  00047	33 c9		 xor	 ecx, ecx
  00049	33 c0		 xor	 eax, eax
  0004b	33 f6		 xor	 esi, esi
  0004d	85 d2		 test	 edx, edx
  0004f	7e 12		 jle	 SHORT $LN26@BF_search
$LL45@BF_search:
  00051	03 d9		 add	 ebx, ecx
$LL7@BF_search:
  00053	8b 4d 0c	 mov	 ecx, DWORD PTR _src$[ebp]
  00056	8a 0c 08	 mov	 cl, BYTE PTR [eax+ecx]
  00059	3a 0c 03	 cmp	 cl, BYTE PTR [ebx+eax]
  0005c	75 0c		 jne	 SHORT $LN6@BF_search
  0005e	40		 inc	 eax
  0005f	3b c2		 cmp	 eax, edx
  00061	7c f0		 jl	 SHORT $LL7@BF_search
$LN26@BF_search:
  00063	5f		 pop	 edi

; 2693 : 
; 2694 : 		if( i >= srcLen)
; 2695 : 			return j;

  00064	8b c6		 mov	 eax, esi

; 2696 : 	}
; 2697 : 
; 2698 : 	return -1;
; 2699 : }

  00066	5e		 pop	 esi
  00067	5b		 pop	 ebx
  00068	5d		 pop	 ebp
  00069	c3		 ret	 0
$LN6@BF_search:

; 2688 : 		 return -1;
; 2689 : 
; 2690 : 	for(j=0; j<=destLen-srcLen; j++)

  0006a	46		 inc	 esi
  0006b	8b ce		 mov	 ecx, esi
  0006d	3b f7		 cmp	 esi, edi
  0006f	7f 07		 jg	 SHORT $LN9@BF_search
  00071	8b 5d 08	 mov	 ebx, DWORD PTR _dest$[ebp]
  00074	33 c0		 xor	 eax, eax
  00076	eb d9		 jmp	 SHORT $LL45@BF_search
$LN9@BF_search:
  00078	5f		 pop	 edi

; 2696 : 	}
; 2697 : 
; 2698 : 	return -1;
; 2699 : }

  00079	5e		 pop	 esi
  0007a	83 c8 ff	 or	 eax, -1
  0007d	5b		 pop	 ebx
  0007e	5d		 pop	 ebp
  0007f	c3		 ret	 0
?BF_search@@YAHPAD0@Z ENDP				; BF_search
_TEXT	ENDS
; Function compile flags: /Ogtp
; File E:\Proyectos\JuegosOnlineproyectos\PB\pbblow\Piercing Blow Remake\i3Server\src\i3Base\i3String.cpp
;	COMDAT ?_scanWildcard@@YA_NPAD0@Z
_TEXT	SEGMENT
_pszName$ = 8						; size = 4
_pszRull$ = 12						; size = 4
?_scanWildcard@@YA_NPAD0@Z PROC				; _scanWildcard, COMDAT

; 2072 : {

  00000	55		 push	 ebp
  00001	8b ec		 mov	 ebp, esp
  00003	53		 push	 ebx

; 2073 : 	while( (*pszRull != 0) && (*pszName != 0))

  00004	8b 5d 08	 mov	 ebx, DWORD PTR _pszName$[ebp]
  00007	56		 push	 esi
  00008	8b 75 0c	 mov	 esi, DWORD PTR _pszRull$[ebp]
  0000b	57		 push	 edi
  0000c	80 3e 00	 cmp	 BYTE PTR [esi], 0
  0000f	74 32		 je	 SHORT $LN3@scanWildca
$LL2@scanWildca:
  00011	8a 0b		 mov	 cl, BYTE PTR [ebx]
  00013	84 c9		 test	 cl, cl
  00015	74 2c		 je	 SHORT $LN3@scanWildca

; 2074 : 	{
; 2075 : 		switch( *pszRull)

  00017	8a 06		 mov	 al, BYTE PTR [esi]
  00019	3c 2a		 cmp	 al, 42			; 0000002aH
  0001b	74 39		 je	 SHORT $LN10@scanWildca
  0001d	3c 3f		 cmp	 al, 63			; 0000003fH
  0001f	74 1b		 je	 SHORT $LN7@scanWildca

; 2076 : 		{
; 2077 : 			case '*' :			return true;
; 2078 : 
; 2079 : 			case '?' :
; 2080 : 				break;
; 2081 : 
; 2082 : 			default :
; 2083 : 				if( toupper( *pszName) != toupper( *pszRull))

  00021	0f be c1	 movsx	 eax, cl
  00024	50		 push	 eax
  00025	e8 00 00 00 00	 call	 _toupper
  0002a	0f be 0e	 movsx	 ecx, BYTE PTR [esi]
  0002d	8b f8		 mov	 edi, eax
  0002f	51		 push	 ecx
  00030	e8 00 00 00 00	 call	 _toupper
  00035	83 c4 08	 add	 esp, 8
  00038	3b f8		 cmp	 edi, eax
  0003a	75 13		 jne	 SHORT $LN17@scanWildca
$LN7@scanWildca:

; 2084 : 					return false;
; 2085 : 				break;
; 2086 : 		}
; 2087 : 
; 2088 : 		pszRull++;

  0003c	46		 inc	 esi

; 2089 : 		pszName++;

  0003d	43		 inc	 ebx
  0003e	80 3e 00	 cmp	 BYTE PTR [esi], 0
  00041	75 ce		 jne	 SHORT $LL2@scanWildca
$LN3@scanWildca:

; 2090 : 	}
; 2091 : 
; 2092 : 	if( *pszRull != *pszName)

  00043	8a 06		 mov	 al, BYTE PTR [esi]
  00045	3a 03		 cmp	 al, BYTE PTR [ebx]
  00047	5f		 pop	 edi

; 2093 : 		return false;
; 2094 : 
; 2095 : 	return true;
; 2096 : }

  00048	5e		 pop	 esi
  00049	0f 94 c0	 sete	 al
  0004c	5b		 pop	 ebx
  0004d	5d		 pop	 ebp
  0004e	c3		 ret	 0
$LN17@scanWildca:
  0004f	5f		 pop	 edi
  00050	5e		 pop	 esi
  00051	32 c0		 xor	 al, al
  00053	5b		 pop	 ebx
  00054	5d		 pop	 ebp
  00055	c3		 ret	 0
$LN10@scanWildca:
  00056	5f		 pop	 edi
  00057	5e		 pop	 esi
  00058	b0 01		 mov	 al, 1
  0005a	5b		 pop	 ebx
  0005b	5d		 pop	 ebp
  0005c	c3		 ret	 0
?_scanWildcard@@YA_NPAD0@Z ENDP				; _scanWildcard
_TEXT	ENDS
; Function compile flags: /Ogtp
; File E:\Proyectos\JuegosOnlineproyectos\PB\pbblow\Piercing Blow Remake\i3Server\src\i3Base\i3String.cpp
;	COMDAT ?substr@i3String@@YAXPADPBDHH@Z
_TEXT	SEGMENT
_dest$ = 8						; size = 4
_src$ = 12						; size = 4
_Pos$ = 16						; size = 4
_Count$ = 20						; size = 4
?substr@i3String@@YAXPADPBDHH@Z PROC			; i3String::substr, COMDAT

; 3111 : {

  00000	55		 push	 ebp
  00001	8b ec		 mov	 ebp, esp

; 3112 : 	if (Count == 0)

  00003	8b 4d 14	 mov	 ecx, DWORD PTR _Count$[ebp]
  00006	8b 55 0c	 mov	 edx, DWORD PTR _src$[ebp]
  00009	53		 push	 ebx
  0000a	8b 5d 10	 mov	 ebx, DWORD PTR _Pos$[ebp]
  0000d	56		 push	 esi
  0000e	57		 push	 edi
  0000f	85 c9		 test	 ecx, ecx
  00011	75 18		 jne	 SHORT $LN23@substr

; 1055 : 	INT32 Count = 0;

  00013	33 c9		 xor	 ecx, ecx

; 3113 : 		Count = Length(src) - Pos;

  00015	8b c2		 mov	 eax, edx

; 1057 : 	while( *pStr1)

  00017	38 0a		 cmp	 BYTE PTR [edx], cl
  00019	74 0e		 je	 SHORT $LN9@substr
  0001b	eb 03 8d 49 00	 npad	 5
$LL8@substr:

; 1058 : 	{
; 1059 : 		Count++;
; 1060 : 		pStr1++;

  00020	8d 40 01	 lea	 eax, DWORD PTR [eax+1]
  00023	41		 inc	 ecx
  00024	80 38 00	 cmp	 BYTE PTR [eax], 0
  00027	75 f7		 jne	 SHORT $LL8@substr
$LN9@substr:

; 3113 : 		Count = Length(src) - Pos;

  00029	2b cb		 sub	 ecx, ebx
$LN23@substr:

; 3114 : 	
; 3115 : 	int nCnt = 0;

  0002b	33 f6		 xor	 esi, esi

; 3116 : 	int k = 0;

  0002d	33 ff		 xor	 edi, edi

; 3117 : 	while(*src)

  0002f	80 3a 00	 cmp	 BYTE PTR [edx], 0
  00032	74 1e		 je	 SHORT $LN24@substr
$LL2@substr:

; 3118 : 	{
; 3119 : 		if (nCnt >= Pos && nCnt < (Pos+Count))

  00034	3b f3		 cmp	 esi, ebx
  00036	7c 13		 jl	 SHORT $LN20@substr
  00038	8d 04 0b	 lea	 eax, DWORD PTR [ebx+ecx]
  0003b	3b f0		 cmp	 esi, eax
  0003d	7d 0c		 jge	 SHORT $LN20@substr

; 3120 : 			dest[k++] = *src;

  0003f	8b 5d 08	 mov	 ebx, DWORD PTR _dest$[ebp]
  00042	8a 02		 mov	 al, BYTE PTR [edx]
  00044	88 04 1f	 mov	 BYTE PTR [edi+ebx], al
  00047	47		 inc	 edi
  00048	8b 5d 10	 mov	 ebx, DWORD PTR _Pos$[ebp]
$LN20@substr:

; 3121 : 		
; 3122 : 		nCnt++;
; 3123 : 		src++;

  0004b	42		 inc	 edx
  0004c	46		 inc	 esi
  0004d	80 3a 00	 cmp	 BYTE PTR [edx], 0
  00050	75 e2		 jne	 SHORT $LL2@substr
$LN24@substr:

; 3124 : 	}
; 3125 : 	dest[k] = '\0';
; 3126 : }	

  00052	8b 45 08	 mov	 eax, DWORD PTR _dest$[ebp]
  00055	c6 04 07 00	 mov	 BYTE PTR [edi+eax], 0
  00059	5f		 pop	 edi
  0005a	5e		 pop	 esi
  0005b	5b		 pop	 ebx
  0005c	5d		 pop	 ebp
  0005d	c3		 ret	 0
?substr@i3String@@YAXPADPBDHH@Z ENDP			; i3String::substr
_TEXT	ENDS
; Function compile flags: /Ogtp
; File E:\Proyectos\JuegosOnlineproyectos\PB\pbblow\Piercing Blow Remake\i3Server\src\i3Base\i3String.cpp
;	COMDAT ?NReplace@i3String@@YA_NPADHHHPBDH@Z
_TEXT	SEGMENT
_pszSrc$ = 8						; size = 4
_nBufSize$1$ = 8					; size = 4
_nStart$ = 12						; size = 4
_nEnd$ = 16						; size = 4
_pBuf$1$ = 16						; size = 4
_nSrcSize$ = 20						; size = 4
_pszDest$ = 24						; size = 4
_nLen$ = 28						; size = 4
?NReplace@i3String@@YA_NPADHHHPBDH@Z PROC		; i3String::NReplace, COMDAT

; 3076 : {

  00000	55		 push	 ebp
  00001	8b ec		 mov	 ebp, esp
  00003	56		 push	 esi
  00004	57		 push	 edi
  00005	8b 7d 08	 mov	 edi, DWORD PTR _pszSrc$[ebp]

; 1055 : 	INT32 Count = 0;

  00008	33 c9		 xor	 ecx, ecx

; 3077 : 	// not enough buffer
; 3078 : 	if( nSrcSize <= Length(pszSrc) + nLen - (nEnd-nStart+1))

  0000a	8b c7		 mov	 eax, edi

; 1057 : 	while( *pStr1)

  0000c	38 0f		 cmp	 BYTE PTR [edi], cl
  0000e	74 09		 je	 SHORT $LN10@NReplace
$LL9@NReplace:

; 1058 : 	{
; 1059 : 		Count++;
; 1060 : 		pStr1++;

  00010	8d 40 01	 lea	 eax, DWORD PTR [eax+1]
  00013	41		 inc	 ecx
  00014	80 38 00	 cmp	 BYTE PTR [eax], 0
  00017	75 f7		 jne	 SHORT $LL9@NReplace
$LN10@NReplace:

; 3077 : 	// not enough buffer
; 3078 : 	if( nSrcSize <= Length(pszSrc) + nLen - (nEnd-nStart+1))

  00019	8b 75 10	 mov	 esi, DWORD PTR _nEnd$[ebp]
  0001c	2b ce		 sub	 ecx, esi
  0001e	03 4d 0c	 add	 ecx, DWORD PTR _nStart$[ebp]
  00021	8b 45 1c	 mov	 eax, DWORD PTR _nLen$[ebp]
  00024	48		 dec	 eax
  00025	03 c1		 add	 eax, ecx
  00027	8b 4d 14	 mov	 ecx, DWORD PTR _nSrcSize$[ebp]
  0002a	3b c8		 cmp	 ecx, eax
  0002c	7f 06		 jg	 SHORT $LN6@NReplace

; 3079 : 		return false;

  0002e	5f		 pop	 edi
  0002f	32 c0		 xor	 al, al

; 3107 : }

  00031	5e		 pop	 esi
  00032	5d		 pop	 ebp
  00033	c3		 ret	 0
$LN6@NReplace:

; 3080 : 	
; 3081 : 	// copies back part of pszSrc
; 3082 : 	INT32 nBufSize = nSrcSize - nEnd - 1;

  00034	2b ce		 sub	 ecx, esi
  00036	49		 dec	 ecx
  00037	53		 push	 ebx

; 3083 : 	char* pBuf = new char[nBufSize];

  00038	51		 push	 ecx
  00039	89 4d 08	 mov	 DWORD PTR _nBufSize$1$[ebp], ecx
  0003c	e8 00 00 00 00	 call	 ??_U@YAPAXI@Z		; operator new[]

; 3084 : 	NCopy( pBuf, &pszSrc[nEnd+1], nBufSize);

  00041	8d 56 01	 lea	 edx, DWORD PTR [esi+1]
  00044	89 45 10	 mov	 DWORD PTR _pBuf$1$[ebp], eax
  00047	03 d7		 add	 edx, edi
  00049	83 c4 04	 add	 esp, 4

; 1530 : 	INT32 Count = 0;

  0004c	33 f6		 xor	 esi, esi

; 3084 : 	NCopy( pBuf, &pszSrc[nEnd+1], nBufSize);

  0004e	8b c8		 mov	 ecx, eax

; 1532 : 	while( *pSrc)

  00050	8a 1a		 mov	 bl, BYTE PTR [edx]
  00052	84 db		 test	 bl, bl
  00054	74 1b		 je	 SHORT $LN37@NReplace
  00056	8b 45 08	 mov	 eax, DWORD PTR _nBufSize$1$[ebp]
  00059	8d a4 24 00 00
	00 00		 npad	 7
$LL13@NReplace:

; 1533 : 	{
; 1534 : 		*pDest = *pSrc;

  00060	88 19		 mov	 BYTE PTR [ecx], bl

; 1535 : 
; 1536 : 		pDest++;
; 1537 : 		pSrc++;

  00062	8d 52 01	 lea	 edx, DWORD PTR [edx+1]

; 1538 : 		Count++;

  00065	46		 inc	 esi
  00066	41		 inc	 ecx

; 1539 : 
; 1540 : 		if( Count >= Length)

  00067	3b f0		 cmp	 esi, eax
  00069	7d 06		 jge	 SHORT $LN37@NReplace

; 1531 : 
; 1532 : 	while( *pSrc)

  0006b	8a 1a		 mov	 bl, BYTE PTR [edx]
  0006d	84 db		 test	 bl, bl
  0006f	75 ef		 jne	 SHORT $LL13@NReplace
$LN37@NReplace:

; 3085 : 
; 3086 : 	// move to nStart
; 3087 : 	INT32 i = nStart;

  00071	8b 55 0c	 mov	 edx, DWORD PTR _nStart$[ebp]
  00074	8b c2		 mov	 eax, edx

; 3088 : 
; 3089 : 	// replace
; 3090 : 	while( i < nStart+nLen)

  00076	8b 75 1c	 mov	 esi, DWORD PTR _nLen$[ebp]
  00079	03 f2		 add	 esi, edx

; 1544 : 	*pDest = 0;

  0007b	c6 01 00	 mov	 BYTE PTR [ecx], 0

; 3088 : 
; 3089 : 	// replace
; 3090 : 	while( i < nStart+nLen)

  0007e	3b d6		 cmp	 edx, esi
  00080	7d 12		 jge	 SHORT $LN3@NReplace
  00082	8b 5d 18	 mov	 ebx, DWORD PTR _pszDest$[ebp]
$LL2@NReplace:

; 3091 : 	{
; 3092 : 		pszSrc[i] = pszDest[i-nStart];

  00085	8b cb		 mov	 ecx, ebx
  00087	2b ca		 sub	 ecx, edx
  00089	8a 0c 01	 mov	 cl, BYTE PTR [ecx+eax]
  0008c	88 0c 07	 mov	 BYTE PTR [edi+eax], cl

; 3093 : 		i++;

  0008f	40		 inc	 eax
  00090	3b c6		 cmp	 eax, esi
  00092	7c f1		 jl	 SHORT $LL2@NReplace
$LN3@NReplace:

; 3094 : 	}
; 3095 : 
; 3096 : 	INT32 j = 0;
; 3097 : 	
; 3098 : 	while( j < nBufSize && i+j < nSrcSize)

  00094	8b 5d 08	 mov	 ebx, DWORD PTR _nBufSize$1$[ebp]
  00097	33 d2		 xor	 edx, edx
  00099	85 db		 test	 ebx, ebx
  0009b	7e 19		 jle	 SHORT $LN38@NReplace
  0009d	8d 49 00	 npad	 3
$LL4@NReplace:
  000a0	8d 34 02	 lea	 esi, DWORD PTR [edx+eax]
  000a3	3b 75 14	 cmp	 esi, DWORD PTR _nSrcSize$[ebp]
  000a6	7d 0e		 jge	 SHORT $LN38@NReplace

; 3099 : 	{
; 3100 : 		pszSrc[i+j] = pBuf[j];

  000a8	8b 4d 10	 mov	 ecx, DWORD PTR _pBuf$1$[ebp]
  000ab	8a 0c 0a	 mov	 cl, BYTE PTR [edx+ecx]

; 3101 : 		j++;

  000ae	42		 inc	 edx
  000af	88 0c 3e	 mov	 BYTE PTR [esi+edi], cl
  000b2	3b d3		 cmp	 edx, ebx
  000b4	7c ea		 jl	 SHORT $LL4@NReplace
$LN38@NReplace:

; 3102 : 	}
; 3103 : 
; 3104 : 	delete[] pBuf;

  000b6	ff 75 10	 push	 DWORD PTR _pBuf$1$[ebp]
  000b9	e8 00 00 00 00	 call	 ??_V@YAXPAX@Z		; operator delete[]
  000be	83 c4 04	 add	 esp, 4

; 3105 : 
; 3106 : 	return true;

  000c1	b0 01		 mov	 al, 1
  000c3	5b		 pop	 ebx
  000c4	5f		 pop	 edi

; 3107 : }

  000c5	5e		 pop	 esi
  000c6	5d		 pop	 ebp
  000c7	c3		 ret	 0
?NReplace@i3String@@YA_NPADHHHPBDH@Z ENDP		; i3String::NReplace
_TEXT	ENDS
; Function compile flags: /Ogtp
; File E:\Proyectos\JuegosOnlineproyectos\PB\pbblow\Piercing Blow Remake\i3Server\src\i3Base\i3String.cpp
;	COMDAT ?Search@i3String@@YAHPAD0W4ALGORITHM@1@@Z
_TEXT	SEGMENT
_Count$1$ = -1052					; size = 4
_d$1$ = -1052						; size = 4
_hy$1$ = -1048						; size = 4
_Count$1$ = -1044					; size = 4
$T1 = -1044						; size = 4
_Count$1$ = -1040					; size = 4
_Count$1$ = -1040					; size = 4
_Count$1$ = -1040					; size = 4
_pszDest$GSCopy$1$ = -1036				; size = 4
_Count$3$ = -1032					; size = 4
_Count$1$ = -1032					; size = 4
_hx$1$ = -1032						; size = 4
_qsBc$2 = -1028						; size = 1024
__$ArrayPad$ = -4					; size = 4
_pszDest$ = 8						; size = 4
_pszSrc$ = 12						; size = 4
_type$ = 16						; size = 4
?Search@i3String@@YAHPAD0W4ALGORITHM@1@@Z PROC		; i3String::Search, COMDAT

; 3061 : {

  00000	55		 push	 ebp
  00001	8b ec		 mov	 ebp, esp
  00003	81 ec 1c 04 00
	00		 sub	 esp, 1052		; 0000041cH
  00009	a1 00 00 00 00	 mov	 eax, DWORD PTR ___security_cookie
  0000e	33 c5		 xor	 eax, ebp
  00010	89 45 fc	 mov	 DWORD PTR __$ArrayPad$[ebp], eax

; 3062 : 	switch( type)

  00013	8b 45 10	 mov	 eax, DWORD PTR _type$[ebp]
  00016	53		 push	 ebx
  00017	8b 5d 0c	 mov	 ebx, DWORD PTR _pszSrc$[ebp]
  0001a	56		 push	 esi
  0001b	57		 push	 edi
  0001c	8b 7d 08	 mov	 edi, DWORD PTR _pszDest$[ebp]
  0001f	89 bd f4 fb ff
	ff		 mov	 DWORD PTR _pszDest$GSCopy$1$[ebp], edi
  00025	83 f8 04	 cmp	 eax, 4
  00028	0f 87 ec 04 00
	00		 ja	 $LN2@Search
  0002e	ff 24 85 00 00
	00 00		 jmp	 DWORD PTR $LN235@Search[eax*4]
$LN4@Search:

; 2681 : 	if( dest == NULL || src == NULL)

  00035	85 ff		 test	 edi, edi
  00037	0f 84 80 00 00
	00		 je	 $LN18@Search
  0003d	85 db		 test	 ebx, ebx
  0003f	74 7c		 je	 SHORT $LN18@Search

; 1055 : 	INT32 Count = 0;

  00041	33 d2		 xor	 edx, edx

; 2684 : 	INT32 srcLen = i3String::Length(src);

  00043	8b c3		 mov	 eax, ebx

; 1057 : 	while( *pStr1)

  00045	38 13		 cmp	 BYTE PTR [ebx], dl
  00047	74 10		 je	 SHORT $LN25@Search
  00049	8d a4 24 00 00
	00 00		 npad	 7
$LL24@Search:

; 1058 : 	{
; 1059 : 		Count++;
; 1060 : 		pStr1++;

  00050	8d 40 01	 lea	 eax, DWORD PTR [eax+1]
  00053	42		 inc	 edx
  00054	80 38 00	 cmp	 BYTE PTR [eax], 0
  00057	75 f7		 jne	 SHORT $LL24@Search
$LN25@Search:

; 1055 : 	INT32 Count = 0;

  00059	33 c9		 xor	 ecx, ecx

; 2685 : 	INT32 destLen = i3String::Length(dest);

  0005b	8b c7		 mov	 eax, edi

; 1057 : 	while( *pStr1)

  0005d	38 0f		 cmp	 BYTE PTR [edi], cl
  0005f	74 09		 je	 SHORT $LN29@Search
$LL28@Search:

; 1058 : 	{
; 1059 : 		Count++;
; 1060 : 		pStr1++;

  00061	8d 40 01	 lea	 eax, DWORD PTR [eax+1]
  00064	41		 inc	 ecx
  00065	80 38 00	 cmp	 BYTE PTR [eax], 0
  00068	75 f7		 jne	 SHORT $LL28@Search
$LN29@Search:

; 2687 : 	 if( srcLen == 0 || destLen == 0)

  0006a	85 d2		 test	 edx, edx
  0006c	74 4f		 je	 SHORT $LN18@Search
  0006e	85 c9		 test	 ecx, ecx
  00070	74 4b		 je	 SHORT $LN18@Search

; 2688 : 		 return -1;
; 2689 : 
; 2690 : 	for(j=0; j<=destLen-srcLen; j++)

  00072	2b ca		 sub	 ecx, edx
  00074	89 8d e4 fb ff
	ff		 mov	 DWORD PTR _Count$1$[ebp], ecx
  0007a	78 41		 js	 SHORT $LN18@Search

; 2691 : 	{
; 2692 : 		for(i=0; i<srcLen && src[i] == dest[i+j]; i++);

  0007c	33 c0		 xor	 eax, eax
  0007e	33 c9		 xor	 ecx, ecx
  00080	33 f6		 xor	 esi, esi
  00082	85 d2		 test	 edx, edx
  00084	7e 3a		 jle	 SHORT $LN10@Search
$LL228@Search:

; 2949 : 		qsBc[i] = srcLen + 1;

  00086	03 f8		 add	 edi, eax
$LL16@Search:

; 2692 : 		for(i=0; i<srcLen && src[i] == dest[i+j]; i++);

  00088	8a 04 19	 mov	 al, BYTE PTR [ecx+ebx]
  0008b	3a 04 39	 cmp	 al, BYTE PTR [ecx+edi]
  0008e	75 18		 jne	 SHORT $LN15@Search
  00090	41		 inc	 ecx
  00091	3b ca		 cmp	 ecx, edx
  00093	7c f3		 jl	 SHORT $LL16@Search

; 3063 : 	{
; 3064 : 	case BF:	return BF_search( pszDest, pszSrc);	

  00095	5f		 pop	 edi
  00096	8b c6		 mov	 eax, esi

; 3067 : 	case QUICK:	return Q_search( pszDest, pszSrc);
; 3068 : 	case RK:	return RK_search( pszDest, pszSrc);
; 3069 : 	}
; 3070 : 
; 3071 : 	return -1;
; 3072 : }

  00098	5e		 pop	 esi
  00099	5b		 pop	 ebx
  0009a	8b 4d fc	 mov	 ecx, DWORD PTR __$ArrayPad$[ebp]
  0009d	33 cd		 xor	 ecx, ebp
  0009f	e8 00 00 00 00	 call	 @__security_check_cookie@4
  000a4	8b e5		 mov	 esp, ebp
  000a6	5d		 pop	 ebp
  000a7	c3		 ret	 0
$LN15@Search:

; 2690 : 	for(j=0; j<=destLen-srcLen; j++)

  000a8	46		 inc	 esi
  000a9	8b c6		 mov	 eax, esi
  000ab	3b b5 e4 fb ff
	ff		 cmp	 esi, DWORD PTR _Count$1$[ebp]
  000b1	7f 0a		 jg	 SHORT $LN18@Search
  000b3	8b bd f4 fb ff
	ff		 mov	 edi, DWORD PTR _pszDest$GSCopy$1$[ebp]
  000b9	33 c9		 xor	 ecx, ecx
  000bb	eb c9		 jmp	 SHORT $LL228@Search
$LN18@Search:

; 3063 : 	{
; 3064 : 	case BF:	return BF_search( pszDest, pszSrc);	

  000bd	83 ce ff	 or	 esi, -1
$LN10@Search:
  000c0	5f		 pop	 edi
  000c1	8b c6		 mov	 eax, esi

; 3067 : 	case QUICK:	return Q_search( pszDest, pszSrc);
; 3068 : 	case RK:	return RK_search( pszDest, pszSrc);
; 3069 : 	}
; 3070 : 
; 3071 : 	return -1;
; 3072 : }

  000c3	5e		 pop	 esi
  000c4	5b		 pop	 ebx
  000c5	8b 4d fc	 mov	 ecx, DWORD PTR __$ArrayPad$[ebp]
  000c8	33 cd		 xor	 ecx, ebp
  000ca	e8 00 00 00 00	 call	 @__security_check_cookie@4
  000cf	8b e5		 mov	 esp, ebp
  000d1	5d		 pop	 ebp
  000d2	c3		 ret	 0
$LN5@Search:

; 2734 : 	if( dest == NULL || src == NULL)

  000d3	85 ff		 test	 edi, edi
  000d5	0f 84 7a 02 00
	00		 je	 $LN38@Search
  000db	85 db		 test	 ebx, ebx
  000dd	0f 84 72 02 00
	00		 je	 $LN38@Search

; 1055 : 	INT32 Count = 0;

  000e3	33 c9		 xor	 ecx, ecx

; 2737 : 	INT32 destLen = i3String::Length(dest);

  000e5	8b c7		 mov	 eax, edi

; 1055 : 	INT32 Count = 0;

  000e7	89 8d f0 fb ff
	ff		 mov	 DWORD PTR _Count$1$[ebp], ecx

; 1056 : 
; 1057 : 	while( *pStr1)

  000ed	38 0f		 cmp	 BYTE PTR [edi], cl
  000ef	74 0f		 je	 SHORT $LN48@Search
$LL47@Search:

; 1058 : 	{
; 1059 : 		Count++;
; 1060 : 		pStr1++;

  000f1	8d 40 01	 lea	 eax, DWORD PTR [eax+1]
  000f4	41		 inc	 ecx
  000f5	80 38 00	 cmp	 BYTE PTR [eax], 0
  000f8	75 f7		 jne	 SHORT $LL47@Search
  000fa	89 8d f0 fb ff
	ff		 mov	 DWORD PTR _Count$1$[ebp], ecx
$LN48@Search:

; 1055 : 	INT32 Count = 0;

  00100	33 ff		 xor	 edi, edi

; 2738 : 	INT32 srcLen = i3String::Length(src);

  00102	8b c3		 mov	 eax, ebx

; 1057 : 	while( *pStr1)

  00104	80 3b 00	 cmp	 BYTE PTR [ebx], 0
  00107	0f 84 48 02 00
	00		 je	 $LN38@Search
  0010d	8d 49 00	 npad	 3
$LL51@Search:

; 1058 : 	{
; 1059 : 		Count++;
; 1060 : 		pStr1++;

  00110	8d 40 01	 lea	 eax, DWORD PTR [eax+1]
  00113	47		 inc	 edi
  00114	80 38 00	 cmp	 BYTE PTR [eax], 0
  00117	75 f7		 jne	 SHORT $LL51@Search
  00119	89 bd f8 fb ff
	ff		 mov	 DWORD PTR _Count$3$[ebp], edi

; 2740 : 	if( srcLen == 0 || destLen == 0)

  0011f	85 ff		 test	 edi, edi
  00121	0f 84 2e 02 00
	00		 je	 $LN38@Search
  00127	85 c9		 test	 ecx, ecx
  00129	0f 84 26 02 00
	00		 je	 $LN38@Search

; 2715 : 	INT32 srcLen=i3String::Length(src);

  0012f	8b c3		 mov	 eax, ebx

; 1055 : 	INT32 Count = 0;

  00131	33 c9		 xor	 ecx, ecx
$LL62@Search:

; 1058 : 	{
; 1059 : 		Count++;
; 1060 : 		pStr1++;

  00133	8d 40 01	 lea	 eax, DWORD PTR [eax+1]
  00136	41		 inc	 ecx
  00137	80 38 00	 cmp	 BYTE PTR [eax], 0
  0013a	75 f7		 jne	 SHORT $LL62@Search

; 2717 : 	INT32 * next = (INT32*) i3MemAlloc( sizeof(INT32) * (srcLen+1));

  0013c	68 9d 0a 00 00	 push	 2717			; 00000a9dH
  00141	68 00 00 00 00	 push	 OFFSET ??_C@_0GD@CAEEIHCP@E?3?2Proyectos?2JuegosOnlineproyec@
  00146	6a 10		 push	 16			; 00000010H
  00148	8d 04 8d 04 00
	00 00		 lea	 eax, DWORD PTR [ecx*4+4]
  0014f	89 8d ec fb ff
	ff		 mov	 DWORD PTR _Count$1$[ebp], ecx
  00155	6a 00		 push	 0
  00157	50		 push	 eax
  00158	e8 00 00 00 00	 call	 ?AllocTool@i3mem@@YAPAXHHHPBDH@Z ; i3mem::AllocTool

; 2718 : 
; 2719 : 	next[0] = -1;
; 2720 : 	
; 2721 : 	for(i=0, j=-1; i<srcLen; i++, j++, next[i] = j)

  0015d	8b 95 ec fb ff
	ff		 mov	 edx, DWORD PTR _Count$1$[ebp]
  00163	83 c4 14	 add	 esp, 20			; 00000014H
  00166	33 f6		 xor	 esi, esi
  00168	83 c9 ff	 or	 ecx, -1
  0016b	c7 00 ff ff ff
	ff		 mov	 DWORD PTR [eax], -1
  00171	85 d2		 test	 edx, edx
  00173	7e 2d		 jle	 SHORT $LN56@Search

; 3046 : 		if( hx==hy && memcmp(src, dest+j, srcLen) == 0)

  00175	89 bd f8 fb ff
	ff		 mov	 DWORD PTR _Count$3$[ebp], edi
  0017b	eb 03 8d 49 00	 npad	 5
$LL57@Search:

; 2723 : 		while((j>=0) && (src[i] != src[j]))

  00180	85 c9		 test	 ecx, ecx
  00182	78 15		 js	 SHORT $LN55@Search
  00184	8a 14 33	 mov	 dl, BYTE PTR [ebx+esi]
$LL58@Search:
  00187	3a 14 0b	 cmp	 dl, BYTE PTR [ebx+ecx]
  0018a	74 07		 je	 SHORT $LN256@Search

; 2724 : 			j= next[j];

  0018c	8b 0c 88	 mov	 ecx, DWORD PTR [eax+ecx*4]
  0018f	85 c9		 test	 ecx, ecx
  00191	79 f4		 jns	 SHORT $LL58@Search
$LN256@Search:
  00193	8b 95 ec fb ff
	ff		 mov	 edx, DWORD PTR _Count$1$[ebp]
$LN55@Search:

; 2718 : 
; 2719 : 	next[0] = -1;
; 2720 : 	
; 2721 : 	for(i=0, j=-1; i<srcLen; i++, j++, next[i] = j)

  00199	46		 inc	 esi
  0019a	41		 inc	 ecx
  0019b	89 0c b0	 mov	 DWORD PTR [eax+esi*4], ecx
  0019e	3b f2		 cmp	 esi, edx
  001a0	7c de		 jl	 SHORT $LL57@Search
$LN56@Search:

; 2748 : 	for( i=0, j=0; j<srcLen && i<destLen; i++, j++)

  001a2	8b 95 f8 fb ff
	ff		 mov	 edx, DWORD PTR _Count$3$[ebp]
  001a8	33 ff		 xor	 edi, edi
  001aa	33 f6		 xor	 esi, esi
  001ac	85 d2		 test	 edx, edx
  001ae	7e 2f		 jle	 SHORT $LN258@Search
  001b0	8b 8d f0 fb ff
	ff		 mov	 ecx, DWORD PTR _Count$1$[ebp]
$LL34@Search:
  001b6	3b f9		 cmp	 edi, ecx
  001b8	7d 25		 jge	 SHORT $LN258@Search

; 2749 : 	{
; 2750 : 		while((j >= 0) && (dest[i] != src[j])) 

  001ba	85 f6		 test	 esi, esi
  001bc	78 1b		 js	 SHORT $LN32@Search
  001be	8b 8d f4 fb ff
	ff		 mov	 ecx, DWORD PTR _pszDest$GSCopy$1$[ebp]
  001c4	8a 0c 0f	 mov	 cl, BYTE PTR [edi+ecx]
$LL35@Search:
  001c7	3a 0c 33	 cmp	 cl, BYTE PTR [ebx+esi]
  001ca	74 07		 je	 SHORT $LN257@Search

; 2751 : 			j = next[j];

  001cc	8b 34 b0	 mov	 esi, DWORD PTR [eax+esi*4]
  001cf	85 f6		 test	 esi, esi
  001d1	79 f4		 jns	 SHORT $LL35@Search
$LN257@Search:
  001d3	8b 8d f0 fb ff
	ff		 mov	 ecx, DWORD PTR _Count$1$[ebp]
$LN32@Search:

; 2741 : 		return -1;
; 2742 : 
; 2743 : 	//	Preprocessing
; 2744 : 	INT32 * next = KMP_init( src);
; 2745 : 	I3ASSERT( next != NULL);
; 2746 : 
; 2747 : 	//	searching
; 2748 : 	for( i=0, j=0; j<srcLen && i<destLen; i++, j++)

  001d9	46		 inc	 esi
  001da	47		 inc	 edi
  001db	3b f2		 cmp	 esi, edx
  001dd	7c d7		 jl	 SHORT $LL34@Search
$LN258@Search:

; 2752 : 	}
; 2753 : 
; 2754 : 	if( next)
; 2755 : 	{
; 2756 : 		I3MEM_SAFE_FREE( next);

  001df	68 c4 0a 00 00	 push	 2756			; 00000ac4H
  001e4	68 00 00 00 00	 push	 OFFSET ??_C@_0GD@CAEEIHCP@E?3?2Proyectos?2JuegosOnlineproyec@
  001e9	50		 push	 eax
  001ea	e8 00 00 00 00	 call	 ?FreeTool@i3mem@@YAXPAXPBDH@Z ; i3mem::FreeTool

; 2757 : 	}
; 2758 : 
; 2759 : 	if( j == srcLen)	return i-srcLen;

  001ef	8b 85 f8 fb ff
	ff		 mov	 eax, DWORD PTR _Count$3$[ebp]
  001f5	83 c4 0c	 add	 esp, 12			; 0000000cH
  001f8	3b f0		 cmp	 esi, eax
  001fa	0f 85 55 01 00
	00		 jne	 $LN38@Search
  00200	2b f8		 sub	 edi, eax

; 3067 : 	case QUICK:	return Q_search( pszDest, pszSrc);
; 3068 : 	case RK:	return RK_search( pszDest, pszSrc);
; 3069 : 	}
; 3070 : 
; 3071 : 	return -1;
; 3072 : }

  00202	8b c7		 mov	 eax, edi
  00204	5f		 pop	 edi
  00205	5e		 pop	 esi
  00206	5b		 pop	 ebx
  00207	8b 4d fc	 mov	 ecx, DWORD PTR __$ArrayPad$[ebp]
  0020a	33 cd		 xor	 ecx, ebp
  0020c	e8 00 00 00 00	 call	 @__security_check_cookie@4
  00211	8b e5		 mov	 esp, ebp
  00213	5d		 pop	 ebp
  00214	c3		 ret	 0
$LN6@Search:

; 3065 : 	case KMP:	return KMP_search( pszDest, pszSrc);
; 3066 : 	case BM:	return BM_search( pszDest, pszSrc);

  00215	53		 push	 ebx
  00216	57		 push	 edi
  00217	e8 00 00 00 00	 call	 ?BM_search@@YAHPAD0@Z	; BM_search
  0021c	83 c4 08	 add	 esp, 8
  0021f	5f		 pop	 edi

; 3067 : 	case QUICK:	return Q_search( pszDest, pszSrc);
; 3068 : 	case RK:	return RK_search( pszDest, pszSrc);
; 3069 : 	}
; 3070 : 
; 3071 : 	return -1;
; 3072 : }

  00220	5e		 pop	 esi
  00221	5b		 pop	 ebx
  00222	8b 4d fc	 mov	 ecx, DWORD PTR __$ArrayPad$[ebp]
  00225	33 cd		 xor	 ecx, ebp
  00227	e8 00 00 00 00	 call	 @__security_check_cookie@4
  0022c	8b e5		 mov	 esp, ebp
  0022e	5d		 pop	 ebp
  0022f	c3		 ret	 0
$LN7@Search:

; 2966 : 	if( dest == NULL || src == NULL)

  00230	85 ff		 test	 edi, edi
  00232	0f 84 1d 01 00
	00		 je	 $LN38@Search
  00238	85 db		 test	 ebx, ebx
  0023a	0f 84 15 01 00
	00		 je	 $LN38@Search

; 1055 : 	INT32 Count = 0;

  00240	33 f6		 xor	 esi, esi

; 2969 : 	INT32 srcLen = i3String::Length(src);

  00242	8b c3		 mov	 eax, ebx

; 1057 : 	while( *pStr1)

  00244	80 3b 00	 cmp	 BYTE PTR [ebx], 0
  00247	89 b5 f0 fb ff
	ff		 mov	 DWORD PTR _Count$1$[ebp], esi
  0024d	74 10		 je	 SHORT $LN77@Search
  0024f	90		 npad	 1
$LL76@Search:

; 1058 : 	{
; 1059 : 		Count++;
; 1060 : 		pStr1++;

  00250	8d 40 01	 lea	 eax, DWORD PTR [eax+1]
  00253	46		 inc	 esi
  00254	80 38 00	 cmp	 BYTE PTR [eax], 0
  00257	75 f7		 jne	 SHORT $LL76@Search
  00259	89 b5 f0 fb ff
	ff		 mov	 DWORD PTR _Count$1$[ebp], esi
$LN77@Search:

; 1055 : 	INT32 Count = 0;

  0025f	33 c9		 xor	 ecx, ecx

; 2970 : 	INT32 destLen = i3String::Length(dest);

  00261	8b c7		 mov	 eax, edi

; 1055 : 	INT32 Count = 0;

  00263	89 8d f8 fb ff
	ff		 mov	 DWORD PTR _Count$1$[ebp], ecx

; 1056 : 
; 1057 : 	while( *pStr1)

  00269	38 0f		 cmp	 BYTE PTR [edi], cl
  0026b	74 12		 je	 SHORT $LN81@Search
  0026d	8d 49 00	 npad	 3
$LL80@Search:

; 1058 : 	{
; 1059 : 		Count++;
; 1060 : 		pStr1++;

  00270	8d 40 01	 lea	 eax, DWORD PTR [eax+1]
  00273	41		 inc	 ecx
  00274	80 38 00	 cmp	 BYTE PTR [eax], 0
  00277	75 f7		 jne	 SHORT $LL80@Search
  00279	89 8d f8 fb ff
	ff		 mov	 DWORD PTR _Count$1$[ebp], ecx
$LN81@Search:

; 2972 : 	if( srcLen == 0 || destLen == 0)

  0027f	85 f6		 test	 esi, esi
  00281	0f 84 ce 00 00
	00		 je	 $LN38@Search
  00287	85 c9		 test	 ecx, ecx
  00289	0f 84 c6 00 00
	00		 je	 $LN38@Search

; 2947 : 	for( i=0; i<qsBcLen; i++)

  0028f	b9 00 01 00 00	 mov	 ecx, 256		; 00000100H
  00294	8d 46 01	 lea	 eax, DWORD PTR [esi+1]
  00297	8d bd fc fb ff
	ff		 lea	 edi, DWORD PTR _qsBc$2[ebp]

; 2950 : 	}
; 2951 : 
; 2952 : 	for( i=0; i<srcLen; i++)

  0029d	33 d2		 xor	 edx, edx
  0029f	f3 ab		 rep stosd
  002a1	85 f6		 test	 esi, esi
  002a3	7e 1a		 jle	 SHORT $LN130@Search
$LL89@Search:

; 2953 : 	{
; 2954 : 		// ascii code ł»żˇ ŔÖ´Â °Í¸¸ Ăł¸®
; 2955 :         // multi byte µîŔş ±×´ë·Î µŇ
; 2956 : 		if( IS_ASCII_CHAR( src[i]))

  002a5	8a 04 13	 mov	 al, BYTE PTR [ebx+edx]
  002a8	84 c0		 test	 al, al
  002aa	78 0e		 js	 SHORT $LN87@Search
  002ac	0f be c0	 movsx	 eax, al

; 2957 : 			qsBc[ src[i]] = srcLen - i;

  002af	8b ce		 mov	 ecx, esi
  002b1	2b ca		 sub	 ecx, edx
  002b3	89 8c 85 fc fb
	ff ff		 mov	 DWORD PTR _qsBc$2[ebp+eax*4], ecx
$LN87@Search:

; 2950 : 	}
; 2951 : 
; 2952 : 	for( i=0; i<srcLen; i++)

  002ba	42		 inc	 edx
  002bb	3b d6		 cmp	 edx, esi
  002bd	7c e6		 jl	 SHORT $LL89@Search
$LN130@Search:

; 2979 : 	while( j <= destLen-srcLen)

  002bf	29 b5 f8 fb ff
	ff		 sub	 DWORD PTR _Count$1$[ebp], esi
  002c5	0f 88 8a 00 00
	00		 js	 $LN38@Search
  002cb	33 ff		 xor	 edi, edi
  002cd	8d 49 00	 npad	 3
$LL66@Search:

; 2980 : 	{
; 2981 : 		//	find
; 2982 : #if defined (I3_WINDOWS)
; 2983 : 		if( memcmp( src, dest+j, srcLen) == 0)

  002d0	8b 95 f4 fb ff
	ff		 mov	 edx, DWORD PTR _pszDest$GSCopy$1$[ebp]
  002d6	8b cb		 mov	 ecx, ebx
  002d8	03 d7		 add	 edx, edi
  002da	83 ee 04	 sub	 esi, 4
  002dd	72 12		 jb	 SHORT $LN238@Search
  002df	90		 npad	 1
$LL239@Search:
  002e0	8b 01		 mov	 eax, DWORD PTR [ecx]
  002e2	3b 02		 cmp	 eax, DWORD PTR [edx]
  002e4	75 10		 jne	 SHORT $LN237@Search
  002e6	83 c1 04	 add	 ecx, 4
  002e9	83 c2 04	 add	 edx, 4
  002ec	83 ee 04	 sub	 esi, 4
  002ef	73 ef		 jae	 SHORT $LL239@Search
$LN238@Search:
  002f1	83 fe fc	 cmp	 esi, -4			; fffffffcH
  002f4	74 62		 je	 SHORT $LN44@Search
$LN237@Search:
  002f6	8a 01		 mov	 al, BYTE PTR [ecx]
  002f8	3a 02		 cmp	 al, BYTE PTR [edx]
  002fa	75 27		 jne	 SHORT $LN240@Search
  002fc	83 fe fd	 cmp	 esi, -3			; fffffffdH
  002ff	74 57		 je	 SHORT $LN44@Search
  00301	8a 41 01	 mov	 al, BYTE PTR [ecx+1]
  00304	3a 42 01	 cmp	 al, BYTE PTR [edx+1]
  00307	75 1a		 jne	 SHORT $LN240@Search
  00309	83 fe fe	 cmp	 esi, -2			; fffffffeH
  0030c	74 4a		 je	 SHORT $LN44@Search
  0030e	8a 41 02	 mov	 al, BYTE PTR [ecx+2]
  00311	3a 42 02	 cmp	 al, BYTE PTR [edx+2]
  00314	75 0d		 jne	 SHORT $LN240@Search
  00316	83 fe ff	 cmp	 esi, -1
  00319	74 3d		 je	 SHORT $LN44@Search
  0031b	8a 41 03	 mov	 al, BYTE PTR [ecx+3]
  0031e	3a 42 03	 cmp	 al, BYTE PTR [edx+3]
  00321	74 35		 je	 SHORT $LN44@Search
$LN240@Search:

; 2984 : 			return j;
; 2985 : #else
; 2986 : 		if( i3String::NCompare( src, dest+j, srcLen) == 0)
; 2987 : 			return j;
; 2988 : #endif
; 2989 : 			
; 2990 : 		
; 2991 : 		INT32 skip = 1;
; 2992 : 
; 2993 : 		// ascii code ł»żˇ ŔÖ´Â °Í¸¸ Ăł¸®
; 2994 : 		if( IS_ASCII_CHAR( dest[j+srcLen]))

  00323	8b 85 f4 fb ff
	ff		 mov	 eax, DWORD PTR _pszDest$GSCopy$1$[ebp]
  00329	b9 01 00 00 00	 mov	 ecx, 1
  0032e	8b b5 f0 fb ff
	ff		 mov	 esi, DWORD PTR _Count$1$[ebp]
  00334	03 c7		 add	 eax, edi
  00336	8a 04 30	 mov	 al, BYTE PTR [eax+esi]
  00339	84 c0		 test	 al, al
  0033b	78 0a		 js	 SHORT $LN202@Search
  0033d	0f be c0	 movsx	 eax, al

; 2995 : 		{
; 2996 : 			skip = qsBc[ dest[j+srcLen]];

  00340	8b 8c 85 fc fb
	ff ff		 mov	 ecx, DWORD PTR _qsBc$2[ebp+eax*4]
$LN202@Search:

; 2997 : 		}
; 2998 : 
; 2999 : 		//	skip string
; 3000 : 		j+=skip;

  00347	03 f9		 add	 edi, ecx
  00349	3b bd f8 fb ff
	ff		 cmp	 edi, DWORD PTR _Count$1$[ebp]
  0034f	0f 8e 7b ff ff
	ff		 jle	 $LL66@Search
$LN38@Search:

; 3067 : 	case QUICK:	return Q_search( pszDest, pszSrc);
; 3068 : 	case RK:	return RK_search( pszDest, pszSrc);
; 3069 : 	}
; 3070 : 
; 3071 : 	return -1;
; 3072 : }

  00355	83 cf ff	 or	 edi, -1
$LN44@Search:
  00358	8b c7		 mov	 eax, edi
  0035a	5f		 pop	 edi
  0035b	5e		 pop	 esi
  0035c	5b		 pop	 ebx
  0035d	8b 4d fc	 mov	 ecx, DWORD PTR __$ArrayPad$[ebp]
  00360	33 cd		 xor	 ecx, ebp
  00362	e8 00 00 00 00	 call	 @__security_check_cookie@4
  00367	8b e5		 mov	 esp, ebp
  00369	5d		 pop	 ebp
  0036a	c3		 ret	 0
$LN8@Search:

; 3021 : 	INT32 d=0, hx=0, hy=0, i=0, j=0;

  0036b	33 c0		 xor	 eax, eax
  0036d	89 85 ec fb ff
	ff		 mov	 DWORD PTR $T1[ebp], eax

; 3022 : 
; 3023 : 	if( dest == NULL || src == NULL)

  00373	85 ff		 test	 edi, edi
  00375	0f 84 9f 01 00
	00		 je	 $LN2@Search
  0037b	85 db		 test	 ebx, ebx
  0037d	0f 84 97 01 00
	00		 je	 $LN2@Search

; 1055 : 	INT32 Count = 0;

  00383	33 ff		 xor	 edi, edi

; 3026 : 	INT32 srcLen = i3String::Length(src);

  00385	8b c3		 mov	 eax, ebx

; 1057 : 	while( *pStr1)

  00387	80 3b 00	 cmp	 BYTE PTR [ebx], 0
  0038a	74 0d		 je	 SHORT $LN109@Search
  0038c	8d 64 24 00	 npad	 4
$LL108@Search:

; 1058 : 	{
; 1059 : 		Count++;
; 1060 : 		pStr1++;

  00390	8d 40 01	 lea	 eax, DWORD PTR [eax+1]
  00393	47		 inc	 edi
  00394	80 38 00	 cmp	 BYTE PTR [eax], 0
  00397	75 f7		 jne	 SHORT $LL108@Search
$LN109@Search:

; 3027 : 	INT32 destLen = i3String::Length(dest);

  00399	8b 95 f4 fb ff
	ff		 mov	 edx, DWORD PTR _pszDest$GSCopy$1$[ebp]

; 1055 : 	INT32 Count = 0;

  0039f	33 c9		 xor	 ecx, ecx

; 3027 : 	INT32 destLen = i3String::Length(dest);

  003a1	8b c2		 mov	 eax, edx

; 1055 : 	INT32 Count = 0;

  003a3	89 8d f0 fb ff
	ff		 mov	 DWORD PTR _Count$1$[ebp], ecx

; 1056 : 
; 1057 : 	while( *pStr1)

  003a9	38 0a		 cmp	 BYTE PTR [edx], cl
  003ab	74 12		 je	 SHORT $LN113@Search
  003ad	8d 49 00	 npad	 3
$LL112@Search:

; 1058 : 	{
; 1059 : 		Count++;
; 1060 : 		pStr1++;

  003b0	8d 40 01	 lea	 eax, DWORD PTR [eax+1]
  003b3	41		 inc	 ecx
  003b4	80 38 00	 cmp	 BYTE PTR [eax], 0
  003b7	75 f7		 jne	 SHORT $LL112@Search
  003b9	89 8d f0 fb ff
	ff		 mov	 DWORD PTR _Count$1$[ebp], ecx
$LN113@Search:

; 3029 : 	if( srcLen == 0 || destLen == 0)

  003bf	85 ff		 test	 edi, edi
  003c1	0f 84 53 01 00
	00		 je	 $LN2@Search
  003c7	85 c9		 test	 ecx, ecx
  003c9	0f 84 4b 01 00
	00		 je	 $LN2@Search

; 3030 : 		return -1;
; 3031 : 
; 3032 : 	//	Preprocessing
; 3033 : 	for(d=i=1; i<srcLen; i++)

  003cf	b8 01 00 00 00	 mov	 eax, 1
  003d4	8b f0		 mov	 esi, eax
  003d6	3b f8		 cmp	 edi, eax
  003d8	7e 1f		 jle	 SHORT $LN94@Search
  003da	8d 9b 00 00 00
	00		 npad	 6
$LL95@Search:
  003e0	40		 inc	 eax

; 3034 : 		d = (d<<1);

  003e1	03 f6		 add	 esi, esi
  003e3	3b c7		 cmp	 eax, edi
  003e5	7c f9		 jl	 SHORT $LL95@Search

; 3044 : 	{
; 3045 : #if defined (I3_WINDOWS)
; 3046 : 		if( hx==hy && memcmp(src, dest+j, srcLen) == 0)

  003e7	33 c9		 xor	 ecx, ecx
  003e9	89 b5 e4 fb ff
	ff		 mov	 DWORD PTR _d$1$[ebp], esi
  003ef	89 8d f8 fb ff
	ff		 mov	 DWORD PTR _hx$1$[ebp], ecx
  003f5	33 d2		 xor	 edx, edx
  003f7	eb 27		 jmp	 SHORT $LL98@Search
$LN94@Search:

; 3035 : 
; 3036 : 	for( hy=hx=i=0; i<srcLen; i++)

  003f9	33 c0		 xor	 eax, eax
  003fb	89 b5 e4 fb ff
	ff		 mov	 DWORD PTR _d$1$[ebp], esi
  00401	33 d2		 xor	 edx, edx
  00403	89 85 f8 fb ff
	ff		 mov	 DWORD PTR _hx$1$[ebp], eax
  00409	33 c9		 xor	 ecx, ecx
  0040b	89 95 e8 fb ff
	ff		 mov	 DWORD PTR _hy$1$[ebp], edx
  00411	85 ff		 test	 edi, edi
  00413	7e 3e		 jle	 SHORT $LN263@Search
  00415	eb 09 8d a4 24
	00 00 00 00 8b
	ff		 npad	 11
$LL98@Search:

; 3037 : 	{
; 3038 : 		hx = ((hx<<1) + src[i]);

  00420	0f be 04 0b	 movsx	 eax, BYTE PTR [ebx+ecx]
  00424	8b b5 f8 fb ff
	ff		 mov	 esi, DWORD PTR _hx$1$[ebp]
  0042a	8d 34 70	 lea	 esi, DWORD PTR [eax+esi*2]
  0042d	89 b5 f8 fb ff
	ff		 mov	 DWORD PTR _hx$1$[ebp], esi

; 3039 : 		hy = ((hy<<1) + dest[i]);

  00433	8b b5 f4 fb ff
	ff		 mov	 esi, DWORD PTR _pszDest$GSCopy$1$[ebp]
  00439	0f be 04 31	 movsx	 eax, BYTE PTR [ecx+esi]
  0043d	41		 inc	 ecx
  0043e	8d 14 50	 lea	 edx, DWORD PTR [eax+edx*2]
  00441	3b cf		 cmp	 ecx, edi
  00443	7c db		 jl	 SHORT $LL98@Search

; 3035 : 
; 3036 : 	for( hy=hx=i=0; i<srcLen; i++)

  00445	8b 85 f8 fb ff
	ff		 mov	 eax, DWORD PTR _hx$1$[ebp]
  0044b	89 95 e8 fb ff
	ff		 mov	 DWORD PTR _hy$1$[ebp], edx
  00451	eb 06		 jmp	 SHORT $LN135@Search
$LN263@Search:
  00453	8b b5 f4 fb ff
	ff		 mov	 esi, DWORD PTR _pszDest$GSCopy$1$[ebp]
$LN135@Search:

; 3040 : 	}
; 3041 : 
; 3042 : 	//	Searching
; 3043 : 	while( j <= destLen-srcLen)

  00459	29 bd f0 fb ff
	ff		 sub	 DWORD PTR _Count$1$[ebp], edi
  0045f	0f 88 b5 00 00
	00		 js	 $LN2@Search
  00465	33 c9		 xor	 ecx, ecx
$LL99@Search:

; 3044 : 	{
; 3045 : #if defined (I3_WINDOWS)
; 3046 : 		if( hx==hy && memcmp(src, dest+j, srcLen) == 0)

  00467	3b c2		 cmp	 eax, edx
  00469	75 61		 jne	 SHORT $LN245@Search
  0046b	8d 14 31	 lea	 edx, DWORD PTR [ecx+esi]
  0046e	8b f7		 mov	 esi, edi
  00470	8b cb		 mov	 ecx, ebx
  00472	83 ee 04	 sub	 esi, 4
  00475	72 11		 jb	 SHORT $LN243@Search
$LL244@Search:
  00477	8b 01		 mov	 eax, DWORD PTR [ecx]
  00479	3b 02		 cmp	 eax, DWORD PTR [edx]
  0047b	75 10		 jne	 SHORT $LN242@Search
  0047d	83 c1 04	 add	 ecx, 4
  00480	83 c2 04	 add	 edx, 4
  00483	83 ee 04	 sub	 esi, 4
  00486	73 ef		 jae	 SHORT $LL244@Search
$LN243@Search:
  00488	83 fe fc	 cmp	 esi, -4			; fffffffcH
  0048b	74 76		 je	 SHORT $LN241@Search
$LN242@Search:
  0048d	8a 01		 mov	 al, BYTE PTR [ecx]
  0048f	3a 02		 cmp	 al, BYTE PTR [edx]
  00491	75 27		 jne	 SHORT $LN262@Search
  00493	83 fe fd	 cmp	 esi, -3			; fffffffdH
  00496	74 6b		 je	 SHORT $LN241@Search
  00498	8a 41 01	 mov	 al, BYTE PTR [ecx+1]
  0049b	3a 42 01	 cmp	 al, BYTE PTR [edx+1]
  0049e	75 1a		 jne	 SHORT $LN262@Search
  004a0	83 fe fe	 cmp	 esi, -2			; fffffffeH
  004a3	74 5e		 je	 SHORT $LN241@Search
  004a5	8a 41 02	 mov	 al, BYTE PTR [ecx+2]
  004a8	3a 42 02	 cmp	 al, BYTE PTR [edx+2]
  004ab	75 0d		 jne	 SHORT $LN262@Search
  004ad	83 fe ff	 cmp	 esi, -1
  004b0	74 51		 je	 SHORT $LN241@Search
  004b2	8a 41 03	 mov	 al, BYTE PTR [ecx+3]
  004b5	3a 42 03	 cmp	 al, BYTE PTR [edx+3]
  004b8	74 49		 je	 SHORT $LN241@Search
$LN262@Search:

; 3048 : #else
; 3049 : 		if( hx==hy && i3String::NCompare( src, dest+j, srcLen) == 0)
; 3050 : 			return j;
; 3051 : #endif		
; 3052 : 
; 3053 : 		hy = REHASH( dest[j], dest[j+srcLen], hy);

  004ba	8b b5 f4 fb ff
	ff		 mov	 esi, DWORD PTR _pszDest$GSCopy$1$[ebp]
  004c0	8b 95 e8 fb ff
	ff		 mov	 edx, DWORD PTR _hy$1$[ebp]
  004c6	8b 8d ec fb ff
	ff		 mov	 ecx, DWORD PTR $T1[ebp]
$LN245@Search:
  004cc	0f be 04 31	 movsx	 eax, BYTE PTR [ecx+esi]
  004d0	0f af 85 e4 fb
	ff ff		 imul	 eax, DWORD PTR _d$1$[ebp]
  004d7	2b d0		 sub	 edx, eax
  004d9	8d 04 0f	 lea	 eax, DWORD PTR [edi+ecx]
  004dc	0f be 04 30	 movsx	 eax, BYTE PTR [eax+esi]

; 3054 : 		j++;

  004e0	41		 inc	 ecx
  004e1	89 8d ec fb ff
	ff		 mov	 DWORD PTR $T1[ebp], ecx
  004e7	8d 14 50	 lea	 edx, DWORD PTR [eax+edx*2]
  004ea	89 95 e8 fb ff
	ff		 mov	 DWORD PTR _hy$1$[ebp], edx
  004f0	3b 8d f0 fb ff
	ff		 cmp	 ecx, DWORD PTR _Count$1$[ebp]
  004f6	7f 22		 jg	 SHORT $LN2@Search

; 3040 : 	}
; 3041 : 
; 3042 : 	//	Searching
; 3043 : 	while( j <= destLen-srcLen)

  004f8	8b 85 f8 fb ff
	ff		 mov	 eax, DWORD PTR _hx$1$[ebp]
  004fe	e9 64 ff ff ff	 jmp	 $LL99@Search
$LN241@Search:

; 3047 : 			return j;

  00503	8b 85 ec fb ff
	ff		 mov	 eax, DWORD PTR $T1[ebp]
  00509	5f		 pop	 edi

; 3067 : 	case QUICK:	return Q_search( pszDest, pszSrc);
; 3068 : 	case RK:	return RK_search( pszDest, pszSrc);
; 3069 : 	}
; 3070 : 
; 3071 : 	return -1;
; 3072 : }

  0050a	5e		 pop	 esi
  0050b	5b		 pop	 ebx
  0050c	8b 4d fc	 mov	 ecx, DWORD PTR __$ArrayPad$[ebp]
  0050f	33 cd		 xor	 ecx, ebp
  00511	e8 00 00 00 00	 call	 @__security_check_cookie@4
  00516	8b e5		 mov	 esp, ebp
  00518	5d		 pop	 ebp
  00519	c3		 ret	 0
$LN2@Search:
  0051a	8b 4d fc	 mov	 ecx, DWORD PTR __$ArrayPad$[ebp]
  0051d	83 c8 ff	 or	 eax, -1
  00520	5f		 pop	 edi
  00521	5e		 pop	 esi
  00522	33 cd		 xor	 ecx, ebp
  00524	5b		 pop	 ebx
  00525	e8 00 00 00 00	 call	 @__security_check_cookie@4
  0052a	8b e5		 mov	 esp, ebp
  0052c	5d		 pop	 ebp
  0052d	c3		 ret	 0
  0052e	8b ff		 npad	 2
$LN235@Search:
  00530	00 00 00 00	 DD	 $LN4@Search
  00534	00 00 00 00	 DD	 $LN5@Search
  00538	00 00 00 00	 DD	 $LN6@Search
  0053c	00 00 00 00	 DD	 $LN7@Search
  00540	00 00 00 00	 DD	 $LN8@Search
?Search@i3String@@YAHPAD0W4ALGORITHM@1@@Z ENDP		; i3String::Search
_TEXT	ENDS
; Function compile flags: /Ogtp
; File E:\Proyectos\JuegosOnlineproyectos\PB\pbblow\Piercing Blow Remake\i3Server\src\i3Base\i3String.cpp
; File C:\Program Files (x86)\Windows Kits\10\Include\10.0.26100.0\ucrt\corecrt_wstdio.h
; File E:\Proyectos\JuegosOnlineproyectos\PB\pbblow\Piercing Blow Remake\i3Server\src\i3Base\i3String.cpp
;	COMDAT ?Format@i3String@@YAHPAGHPBGZZ
_TEXT	SEGMENT
_strDest$ = 8						; size = 4
_i32Length$ = 12					; size = 4
_strFormat$ = 16					; size = 4
?Format@i3String@@YAHPAGHPBGZZ PROC			; i3String::Format, COMDAT

; 2655 : {

  00000	55		 push	 ebp
  00001	8b ec		 mov	 ebp, esp
  00003	56		 push	 esi
; File C:\Program Files (x86)\Windows Kits\10\Include\10.0.26100.0\ucrt\corecrt_wstdio.h

; 1084 :         int const _Result = __stdio_common_vsnwprintf_s(

  00004	8b 75 0c	 mov	 esi, DWORD PTR _i32Length$[ebp]
  00007	8d 45 14	 lea	 eax, DWORD PTR _strFormat$[ebp+4]
  0000a	50		 push	 eax
  0000b	6a 00		 push	 0
  0000d	ff 75 10	 push	 DWORD PTR _strFormat$[ebp]
  00010	6a ff		 push	 -1
  00012	56		 push	 esi
  00013	ff 75 08	 push	 DWORD PTR _strDest$[ebp]
  00016	e8 00 00 00 00	 call	 ___local_stdio_printf_options
  0001b	ff 70 04	 push	 DWORD PTR [eax+4]
  0001e	ff 30		 push	 DWORD PTR [eax]
  00020	e8 00 00 00 00	 call	 ___stdio_common_vsnwprintf_s
  00025	8b c8		 mov	 ecx, eax
  00027	83 c4 20	 add	 esp, 32			; 00000020H

; 1085 :             _CRT_INTERNAL_LOCAL_PRINTF_OPTIONS,
; 1086 :             _Buffer, _BufferCount, _MaxCount, _Format, _Locale, _ArgList);
; 1087 : 
; 1088 :         return _Result < 0 ? -1 : _Result;

  0002a	83 c8 ff	 or	 eax, -1
  0002d	85 c9		 test	 ecx, ecx
  0002f	0f 48 c8	 cmovs	 ecx, eax
; File E:\Proyectos\JuegosOnlineproyectos\PB\pbblow\Piercing Blow Remake\i3Server\src\i3Base\i3String.cpp

; 2661 : 	return i32Rv;

  00032	8d 46 ff	 lea	 eax, DWORD PTR [esi-1]
  00035	85 c9		 test	 ecx, ecx
  00037	5e		 pop	 esi
  00038	0f 49 c1	 cmovns	 eax, ecx

; 2662 : }

  0003b	5d		 pop	 ebp
  0003c	c3		 ret	 0
?Format@i3String@@YAHPAGHPBGZZ ENDP			; i3String::Format
_TEXT	ENDS
; Function compile flags: /Ogtp
; File E:\Proyectos\JuegosOnlineproyectos\PB\pbblow\Piercing Blow Remake\i3Server\src\i3Base\i3String.cpp
; File C:\Program Files (x86)\Windows Kits\10\Include\10.0.26100.0\ucrt\stdio.h
; File E:\Proyectos\JuegosOnlineproyectos\PB\pbblow\Piercing Blow Remake\i3Server\src\i3Base\i3String.cpp
;	COMDAT ?Format@i3String@@YAHPADHPBDZZ
_TEXT	SEGMENT
_strDest$ = 8						; size = 4
_i32Length$ = 12					; size = 4
_strFormat$ = 16					; size = 4
?Format@i3String@@YAHPADHPBDZZ PROC			; i3String::Format, COMDAT

; 2645 : {

  00000	55		 push	 ebp
  00001	8b ec		 mov	 ebp, esp
  00003	56		 push	 esi
; File C:\Program Files (x86)\Windows Kits\10\Include\10.0.26100.0\ucrt\stdio.h

; 1578 :         int const _Result = __stdio_common_vsnprintf_s(

  00004	8b 75 0c	 mov	 esi, DWORD PTR _i32Length$[ebp]
  00007	8d 45 14	 lea	 eax, DWORD PTR _strFormat$[ebp+4]
  0000a	50		 push	 eax
  0000b	6a 00		 push	 0
  0000d	ff 75 10	 push	 DWORD PTR _strFormat$[ebp]
  00010	6a ff		 push	 -1
  00012	56		 push	 esi
  00013	ff 75 08	 push	 DWORD PTR _strDest$[ebp]
  00016	e8 00 00 00 00	 call	 ___local_stdio_printf_options
  0001b	ff 70 04	 push	 DWORD PTR [eax+4]
  0001e	ff 30		 push	 DWORD PTR [eax]
  00020	e8 00 00 00 00	 call	 ___stdio_common_vsnprintf_s
  00025	8b c8		 mov	 ecx, eax
  00027	83 c4 20	 add	 esp, 32			; 00000020H

; 1579 :             _CRT_INTERNAL_LOCAL_PRINTF_OPTIONS,
; 1580 :             _Buffer, _BufferCount, _MaxCount, _Format, _Locale, _ArgList);
; 1581 : 
; 1582 :         return _Result < 0 ? -1 : _Result;

  0002a	83 c8 ff	 or	 eax, -1
  0002d	85 c9		 test	 ecx, ecx
  0002f	0f 48 c8	 cmovs	 ecx, eax
; File E:\Proyectos\JuegosOnlineproyectos\PB\pbblow\Piercing Blow Remake\i3Server\src\i3Base\i3String.cpp

; 2651 : 	return i32Rv;

  00032	8d 46 ff	 lea	 eax, DWORD PTR [esi-1]
  00035	85 c9		 test	 ecx, ecx
  00037	5e		 pop	 esi
  00038	0f 49 c1	 cmovns	 eax, ecx

; 2652 : }

  0003b	5d		 pop	 ebp
  0003c	c3		 ret	 0
?Format@i3String@@YAHPADHPBDZZ ENDP			; i3String::Format
_TEXT	ENDS
; Function compile flags: /Ogtp
; File E:\Proyectos\JuegosOnlineproyectos\PB\pbblow\Piercing Blow Remake\i3Server\src\i3Base\i3String.cpp
;	COMDAT ?IsComposite@i3String@@YAHHDDH@Z
_TEXT	SEGMENT
_nCodePage$ = 8						; size = 4
_prev$ = 12						; size = 1
_curr$ = 16						; size = 1
_mode$ = 20						; size = 4
?IsComposite@i3String@@YAHHDDH@Z PROC			; i3String::IsComposite, COMDAT

; 2479 : {

  00000	55		 push	 ebp
  00001	8b ec		 mov	 ebp, esp

; 2480 : 	switch( nCodePage)

  00003	81 7d 08 6a 03
	00 00		 cmp	 DWORD PTR _nCodePage$[ebp], 874 ; 0000036aH
  0000a	75 08		 jne	 SHORT $LN9@IsComposit

; 2481 : 	{
; 2482 : 	case I3_LANG_CODE_THAI:	//	THAI
; 2483 : 		{
; 2484 : 			if( mode > 2)	

  0000c	8b 55 14	 mov	 edx, DWORD PTR _mode$[ebp]
  0000f	83 fa 02	 cmp	 edx, 2
  00012	7e 04		 jle	 SHORT $LN5@IsComposit
$LN9@IsComposit:

; 2501 : 			}
; 2502 : 		}
; 2503 : 		break;
; 2504 : 	default:
; 2505 : 		I3ASSERT_0;
; 2506 : 		break;
; 2507 : 	}
; 2508 : 
; 2509 : 	return FALSE;
; 2510 : }

  00014	33 c0		 xor	 eax, eax
  00016	5d		 pop	 ebp
  00017	c3		 ret	 0
$LN5@IsComposit:

; 2485 : 				return FALSE;
; 2486 : 			else 
; 2487 : 			{
; 2488 : 				BYTE prev_stream = (BYTE)prev;
; 2489 : 
; 2490 : 				BYTE curr_stream = (BYTE)curr;
; 2491 : 
; 2492 : 				THAI_CLASS prev_class = THAI_CLASS_TABLE[prev_stream];

  00018	0f b6 45 0c	 movzx	 eax, BYTE PTR _prev$[ebp]

; 2493 : 				I3ASSERT( prev_class >= 0 && prev_class < 17);
; 2494 : 
; 2495 : 				THAI_CLASS curr_class = THAI_CLASS_TABLE[curr_stream];
; 2496 : 				I3ASSERT( curr_class >= 0 && curr_class < 17);
; 2497 : 
; 2498 : 				THAI_INPUT_TYPE state_type = THAI_INPUT_STATE_CHECK[prev_class][curr_class];

  0001c	8b 04 85 00 00
	00 00		 mov	 eax, DWORD PTR ?THAI_CLASS_TABLE@@3PAW4THAI_CLASS@@A[eax*4]
  00023	8b c8		 mov	 ecx, eax
  00025	c1 e1 04	 shl	 ecx, 4
  00028	03 c8		 add	 ecx, eax
  0002a	0f b6 45 10	 movzx	 eax, BYTE PTR _curr$[ebp]
  0002e	03 0c 85 00 00
	00 00		 add	 ecx, DWORD PTR ?THAI_CLASS_TABLE@@3PAW4THAI_CLASS@@A[eax*4]

; 2499 : 
; 2500 : 				return THAI_INPUT_COMPOSIBLE[mode][state_type];

  00035	8d 04 92	 lea	 eax, DWORD PTR [edx+edx*4]
  00038	03 04 8d 00 00
	00 00		 add	 eax, DWORD PTR ?THAI_INPUT_STATE_CHECK@@3PAY0BB@W4THAI_INPUT_TYPE@@A[ecx*4]
  0003f	8b 04 85 00 00
	00 00		 mov	 eax, DWORD PTR ?THAI_INPUT_COMPOSIBLE@@3PAY04HA[eax*4]

; 2501 : 			}
; 2502 : 		}
; 2503 : 		break;
; 2504 : 	default:
; 2505 : 		I3ASSERT_0;
; 2506 : 		break;
; 2507 : 	}
; 2508 : 
; 2509 : 	return FALSE;
; 2510 : }

  00046	5d		 pop	 ebp
  00047	c3		 ret	 0
?IsComposite@i3String@@YAHHDDH@Z ENDP			; i3String::IsComposite
_TEXT	ENDS
; Function compile flags: /Ogtp
; File E:\Proyectos\JuegosOnlineproyectos\PB\pbblow\Piercing Blow Remake\i3Server\src\i3Base\i3String.cpp
;	COMDAT ?LengthChar@i3String@@YAHHPBD@Z
_TEXT	SEGMENT
_nCodePage$ = 8						; size = 4
_pszStr$ = 12						; size = 4
?LengthChar@i3String@@YAHHPBD@Z PROC			; i3String::LengthChar, COMDAT

; 2514 : {

  00000	55		 push	 ebp
  00001	8b ec		 mov	 ebp, esp

; 2515 : 	I3ASSERT( pszStr != NULL && nCodePage != 0 && nCodePage != 1);
; 2516 : 
; 2517 : 	INT32 nCount = 0;
; 2518 : 	const char * pszCurr = pszStr;

  00003	8b 45 0c	 mov	 eax, DWORD PTR _pszStr$[ebp]
  00006	53		 push	 ebx
  00007	8b 5d 08	 mov	 ebx, DWORD PTR _nCodePage$[ebp]
  0000a	56		 push	 esi
  0000b	33 f6		 xor	 esi, esi

; 2519 : 	while( *pszCurr)

  0000d	80 38 00	 cmp	 BYTE PTR [eax], 0
  00010	0f 84 88 00 00
	00		 je	 $LN30@LengthChar
  00016	8b 15 00 00 00
	00		 mov	 edx, DWORD PTR __imp__CharNextExA@12
  0001c	57		 push	 edi
  0001d	8d bb 96 fc ff
	ff		 lea	 edi, DWORD PTR [ebx-874]
$LL2@LengthChar:

; 2533 : 	switch( nCodePage)

  00023	83 ff 4c	 cmp	 edi, 76			; 0000004cH
  00026	77 63		 ja	 SHORT $LN18@LengthChar
  00028	0f b6 8f 00 00
	00 00		 movzx	 ecx, BYTE PTR $LN28@LengthChar[edi]
  0002f	ff 24 8d 00 00
	00 00		 jmp	 DWORD PTR $LN29@LengthChar[ecx*4]
$LN11@LengthChar:

; 2534 : 	{
; 2535 : 	case I3_LANG_CODE_THAI:		//	THAI			ĹÂ±ąŔş Á¶ÇŐÇü MBCS ĂĽ°č (1~4ąŮŔĚĆ® °ˇşŻ ąŮŔĚĆ® ) ÁÖŔÇ! ĹÂ±ąľî´Â 2ąŮŔĚĆ®°ˇ ľĆ´Ď´Ů!
; 2536 : 		{
; 2537 : 			const BYTE * stream = (const BYTE*) pszStr;
; 2538 : 			
; 2539 : 			for(;;)
; 2540 : 			{
; 2541 : 				THAI_CLASS c1 = THAI_CLASS_TABLE[ stream[0]];

  00036	0f b6 08	 movzx	 ecx, BYTE PTR [eax]

; 2542 : 				I3ASSERT( c1 >= 0 && c1 < 17);
; 2543 : 
; 2544 : 				THAI_CLASS c2 = THAI_CLASS_TABLE[ stream[1]];			
; 2545 : 				I3ASSERT( c2 >= 0 && c2 < 17);
; 2546 : 
; 2547 : 				if( THAI_OUTPUT_STATE_CHECK[c1][c2] == OC)

  00039	8b 0c 8d 00 00
	00 00		 mov	 ecx, DWORD PTR ?THAI_CLASS_TABLE@@3PAW4THAI_CLASS@@A[ecx*4]
  00040	8b d1		 mov	 edx, ecx
  00042	c1 e2 04	 shl	 edx, 4
  00045	03 d1		 add	 edx, ecx
  00047	0f b6 48 01	 movzx	 ecx, BYTE PTR [eax+1]
  0004b	03 14 8d 00 00
	00 00		 add	 edx, DWORD PTR ?THAI_CLASS_TABLE@@3PAW4THAI_CLASS@@A[ecx*4]
  00052	83 3c 95 00 00
	00 00 01	 cmp	 DWORD PTR ?THAI_OUTPUT_STATE_CHECK@@3PAY0BB@W4THAI_OUTPUT_TYPE@@A[edx*4], 1
  0005a	75 2c		 jne	 SHORT $LN12@LengthChar
  0005c	8d 64 24 00	 npad	 4
$LL10@LengthChar:

; 2534 : 	{
; 2535 : 	case I3_LANG_CODE_THAI:		//	THAI			ĹÂ±ąŔş Á¶ÇŐÇü MBCS ĂĽ°č (1~4ąŮŔĚĆ® °ˇşŻ ąŮŔĚĆ® ) ÁÖŔÇ! ĹÂ±ąľî´Â 2ąŮŔĚĆ®°ˇ ľĆ´Ď´Ů!
; 2536 : 		{
; 2537 : 			const BYTE * stream = (const BYTE*) pszStr;
; 2538 : 			
; 2539 : 			for(;;)
; 2540 : 			{
; 2541 : 				THAI_CLASS c1 = THAI_CLASS_TABLE[ stream[0]];

  00060	0f b6 48 01	 movzx	 ecx, BYTE PTR [eax+1]

; 2548 : 					++stream;

  00064	40		 inc	 eax
  00065	8b 0c 8d 00 00
	00 00		 mov	 ecx, DWORD PTR ?THAI_CLASS_TABLE@@3PAW4THAI_CLASS@@A[ecx*4]
  0006c	8b d1		 mov	 edx, ecx
  0006e	c1 e2 04	 shl	 edx, 4
  00071	03 d1		 add	 edx, ecx
  00073	0f b6 48 01	 movzx	 ecx, BYTE PTR [eax+1]
  00077	03 14 8d 00 00
	00 00		 add	 edx, DWORD PTR ?THAI_CLASS_TABLE@@3PAW4THAI_CLASS@@A[ecx*4]
  0007e	83 3c 95 00 00
	00 00 01	 cmp	 DWORD PTR ?THAI_OUTPUT_STATE_CHECK@@3PAY0BB@W4THAI_OUTPUT_TYPE@@A[edx*4], 1
  00086	74 d8		 je	 SHORT $LL10@LengthChar
$LN12@LengthChar:

; 2549 : 				else
; 2550 : 					break;
; 2551 : 			}
; 2552 : 
; 2553 : 			return (const char*)(stream+1);

  00088	40		 inc	 eax
  00089	eb 06		 jmp	 SHORT $LN6@LengthChar
$LN18@LengthChar:

; 2520 : 	{
; 2521 : 		pszCurr = CharNext(nCodePage, pszCurr);
; 2522 : 		nCount++;

  0008b	6a 00		 push	 0
  0008d	50		 push	 eax
  0008e	53		 push	 ebx
  0008f	ff d2		 call	 edx
$LN6@LengthChar:
  00091	8b 15 00 00 00
	00		 mov	 edx, DWORD PTR __imp__CharNextExA@12
  00097	46		 inc	 esi
  00098	80 38 00	 cmp	 BYTE PTR [eax], 0
  0009b	75 86		 jne	 SHORT $LL2@LengthChar

; 2519 : 	while( *pszCurr)

  0009d	5f		 pop	 edi
$LN30@LengthChar:

; 2523 : 	}	
; 2524 : 
; 2525 : 	return nCount;
; 2526 : }

  0009e	8b c6		 mov	 eax, esi
  000a0	5e		 pop	 esi
  000a1	5b		 pop	 ebx
  000a2	5d		 pop	 ebp
  000a3	c3		 ret	 0
$LN29@LengthChar:
  000a4	00 00 00 00	 DD	 $LN11@LengthChar
  000a8	00 00 00 00	 DD	 $LN18@LengthChar
  000ac	00 00 00 00	 DD	 $LN18@LengthChar
$LN28@LengthChar:
  000b0	00		 DB	 0
  000b1	02		 DB	 2
  000b2	02		 DB	 2
  000b3	02		 DB	 2
  000b4	02		 DB	 2
  000b5	02		 DB	 2
  000b6	02		 DB	 2
  000b7	02		 DB	 2
  000b8	02		 DB	 2
  000b9	02		 DB	 2
  000ba	02		 DB	 2
  000bb	02		 DB	 2
  000bc	02		 DB	 2
  000bd	02		 DB	 2
  000be	02		 DB	 2
  000bf	02		 DB	 2
  000c0	02		 DB	 2
  000c1	02		 DB	 2
  000c2	02		 DB	 2
  000c3	02		 DB	 2
  000c4	02		 DB	 2
  000c5	02		 DB	 2
  000c6	02		 DB	 2
  000c7	02		 DB	 2
  000c8	02		 DB	 2
  000c9	02		 DB	 2
  000ca	02		 DB	 2
  000cb	02		 DB	 2
  000cc	02		 DB	 2
  000cd	02		 DB	 2
  000ce	02		 DB	 2
  000cf	02		 DB	 2
  000d0	02		 DB	 2
  000d1	02		 DB	 2
  000d2	02		 DB	 2
  000d3	02		 DB	 2
  000d4	02		 DB	 2
  000d5	02		 DB	 2
  000d6	02		 DB	 2
  000d7	02		 DB	 2
  000d8	02		 DB	 2
  000d9	02		 DB	 2
  000da	02		 DB	 2
  000db	02		 DB	 2
  000dc	02		 DB	 2
  000dd	02		 DB	 2
  000de	02		 DB	 2
  000df	02		 DB	 2
  000e0	02		 DB	 2
  000e1	02		 DB	 2
  000e2	02		 DB	 2
  000e3	02		 DB	 2
  000e4	02		 DB	 2
  000e5	02		 DB	 2
  000e6	02		 DB	 2
  000e7	02		 DB	 2
  000e8	02		 DB	 2
  000e9	02		 DB	 2
  000ea	01		 DB	 1
  000eb	02		 DB	 2
  000ec	02		 DB	 2
  000ed	02		 DB	 2
  000ee	01		 DB	 1
  000ef	02		 DB	 2
  000f0	02		 DB	 2
  000f1	02		 DB	 2
  000f2	02		 DB	 2
  000f3	02		 DB	 2
  000f4	02		 DB	 2
  000f5	02		 DB	 2
  000f6	02		 DB	 2
  000f7	02		 DB	 2
  000f8	02		 DB	 2
  000f9	02		 DB	 2
  000fa	02		 DB	 2
  000fb	01		 DB	 1
  000fc	01		 DB	 1
?LengthChar@i3String@@YAHHPBD@Z ENDP			; i3String::LengthChar
_TEXT	ENDS
; Function compile flags: /Ogtp
; File E:\Proyectos\JuegosOnlineproyectos\PB\pbblow\Piercing Blow Remake\i3Server\src\i3Base\i3String.cpp
;	COMDAT ?CharPrevA@i3String@@YAPBDHPBD0@Z
_TEXT	SEGMENT
_nCodePage$ = 8						; size = 4
_pszStart$ = 12						; size = 4
_pszCurrent$ = 16					; size = 4
?CharPrevA@i3String@@YAPBDHPBD0@Z PROC			; i3String::CharPrevA, COMDAT

; 2588 : {

  00000	55		 push	 ebp
  00001	8b ec		 mov	 ebp, esp
  00003	53		 push	 ebx

; 2589 : 	I3ASSERT( pszStart != NULL && pszCurrent != NULL && nCodePage != 0 && nCodePage != 1);
; 2590 : 
; 2591 : 	switch( nCodePage)

  00004	8b 5d 08	 mov	 ebx, DWORD PTR _nCodePage$[ebp]
  00007	8d 83 96 fc ff
	ff		 lea	 eax, DWORD PTR [ebx-874]
  0000d	83 f8 4c	 cmp	 eax, 76			; 0000004cH
  00010	77 37		 ja	 SHORT $LN11@CharPrevA
  00012	0f b6 80 00 00
	00 00		 movzx	 eax, BYTE PTR $LN21@CharPrevA[eax]
  00019	ff 24 85 00 00
	00 00		 jmp	 DWORD PTR $LN22@CharPrevA[eax*4]
$LN17@CharPrevA:
  00020	56		 push	 esi

; 2592 : 	{
; 2593 : 	case I3_LANG_CODE_THAI:		//	THAI			ĹÂ±ąŔş Á¶ÇŐÇü MBCS ĂĽ°č (1~4ąŮŔĚĆ® °ˇşŻ ąŮŔĚĆ® )
; 2594 : 		{
; 2595 : 			while( pszStart < pszCurrent)

  00021	8b 75 0c	 mov	 esi, DWORD PTR _pszStart$[ebp]
  00024	57		 push	 edi
  00025	8b 7d 10	 mov	 edi, DWORD PTR _pszCurrent$[ebp]
  00028	3b f7		 cmp	 esi, edi
  0002a	73 16		 jae	 SHORT $LN9@CharPrevA
  0002c	8d 64 24 00	 npad	 4
$LL4@CharPrevA:

; 2596 : 			{
; 2597 : 				const char * pszNext = CharNext(nCodePage, pszStart);

  00030	56		 push	 esi
  00031	53		 push	 ebx
  00032	e8 00 00 00 00	 call	 ?CharNextA@i3String@@YAPBDHPBD@Z ; i3String::CharNextA
  00037	83 c4 08	 add	 esp, 8

; 2598 : 
; 2599 : 				if( pszNext == pszCurrent)

  0003a	3b c7		 cmp	 eax, edi

; 2600 : 					return pszStart;
; 2601 : 				else if( pszNext < pszCurrent)

  0003c	73 04		 jae	 SHORT $LN9@CharPrevA

; 2602 : 					pszStart = pszNext;

  0003e	8b f0		 mov	 esi, eax
  00040	eb ee		 jmp	 SHORT $LL4@CharPrevA
$LN9@CharPrevA:
  00042	5f		 pop	 edi

; 2603 : 				else
; 2604 : 					break;
; 2605 : 			}
; 2606 : 
; 2607 : 			return pszStart;

  00043	8b c6		 mov	 eax, esi
  00045	5e		 pop	 esi
  00046	5b		 pop	 ebx

; 2608 : 		}
; 2609 : 		break;
; 2610 : 	case I3_LANG_CODE_KOREAN:					//	HANGUL			ÇŃ±Ű 
; 2611 : 	case I3_LANG_CODE_JAPANESE:					//	SHIFTJIS		ŔĎş»ľî
; 2612 : 	case I3_LANG_CODE_CHINESE_SIMPLIFIED:		//	GB2312			Áß±ąľî °ŁĂĽ
; 2613 : 	case I3_LANG_CODE_CHINESE_TRADITIONAL:		//	CHINESEBIG5		Áß±ąľî ąřĂĽ
; 2614 : 		{
; 2615 : #if I3_WINDOWS
; 2616 : 			return ::CharPrevExA((WORD) nCodePage, pszStart, pszCurrent, 0);
; 2617 : #else
; 2618 : 			while( pszStart < pszCurrent)
; 2619 : 			{
; 2620 : 				const char * pszNext = CharNext(nCodePage, pszStart);
; 2621 : 
; 2622 : 				if( pszNext < pszCurrent) 
; 2623 : 					pszStart = pszNext;
; 2624 : 				else
; 2625 : 					return pszNext;
; 2626 : 			}
; 2627 : 
; 2628 : 			return pszStart;
; 2629 : #endif
; 2630 : 		}
; 2631 : 		break;
; 2632 : 	default:
; 2633 : 		{
; 2634 : #if I3_WINDOWS
; 2635 : 			return ::CharPrevExA((WORD) nCodePage, pszStart, pszCurrent, 0);
; 2636 : #else
; 2637 : 			return pszStr;		//	ÄÚµĺ ĆäŔĚÁö°ˇ Á¤ŔÇµÇÁö ľĘľŇ´Ů.
; 2638 : #endif
; 2639 : 		}
; 2640 : 		break;
; 2641 : 	}
; 2642 : }

  00047	5d		 pop	 ebp
  00048	c3		 ret	 0
$LN11@CharPrevA:
  00049	6a 00		 push	 0
  0004b	ff 75 10	 push	 DWORD PTR _pszCurrent$[ebp]
  0004e	ff 75 0c	 push	 DWORD PTR _pszStart$[ebp]
  00051	53		 push	 ebx
  00052	ff 15 00 00 00
	00		 call	 DWORD PTR __imp__CharPrevExA@16
  00058	5b		 pop	 ebx
  00059	5d		 pop	 ebp
  0005a	c3		 ret	 0
  0005b	90		 npad	 1
$LN22@CharPrevA:
  0005c	00 00 00 00	 DD	 $LN17@CharPrevA
  00060	00 00 00 00	 DD	 $LN11@CharPrevA
  00064	00 00 00 00	 DD	 $LN11@CharPrevA
$LN21@CharPrevA:
  00068	00		 DB	 0
  00069	02		 DB	 2
  0006a	02		 DB	 2
  0006b	02		 DB	 2
  0006c	02		 DB	 2
  0006d	02		 DB	 2
  0006e	02		 DB	 2
  0006f	02		 DB	 2
  00070	02		 DB	 2
  00071	02		 DB	 2
  00072	02		 DB	 2
  00073	02		 DB	 2
  00074	02		 DB	 2
  00075	02		 DB	 2
  00076	02		 DB	 2
  00077	02		 DB	 2
  00078	02		 DB	 2
  00079	02		 DB	 2
  0007a	02		 DB	 2
  0007b	02		 DB	 2
  0007c	02		 DB	 2
  0007d	02		 DB	 2
  0007e	02		 DB	 2
  0007f	02		 DB	 2
  00080	02		 DB	 2
  00081	02		 DB	 2
  00082	02		 DB	 2
  00083	02		 DB	 2
  00084	02		 DB	 2
  00085	02		 DB	 2
  00086	02		 DB	 2
  00087	02		 DB	 2
  00088	02		 DB	 2
  00089	02		 DB	 2
  0008a	02		 DB	 2
  0008b	02		 DB	 2
  0008c	02		 DB	 2
  0008d	02		 DB	 2
  0008e	02		 DB	 2
  0008f	02		 DB	 2
  00090	02		 DB	 2
  00091	02		 DB	 2
  00092	02		 DB	 2
  00093	02		 DB	 2
  00094	02		 DB	 2
  00095	02		 DB	 2
  00096	02		 DB	 2
  00097	02		 DB	 2
  00098	02		 DB	 2
  00099	02		 DB	 2
  0009a	02		 DB	 2
  0009b	02		 DB	 2
  0009c	02		 DB	 2
  0009d	02		 DB	 2
  0009e	02		 DB	 2
  0009f	02		 DB	 2
  000a0	02		 DB	 2
  000a1	02		 DB	 2
  000a2	01		 DB	 1
  000a3	02		 DB	 2
  000a4	02		 DB	 2
  000a5	02		 DB	 2
  000a6	01		 DB	 1
  000a7	02		 DB	 2
  000a8	02		 DB	 2
  000a9	02		 DB	 2
  000aa	02		 DB	 2
  000ab	02		 DB	 2
  000ac	02		 DB	 2
  000ad	02		 DB	 2
  000ae	02		 DB	 2
  000af	02		 DB	 2
  000b0	02		 DB	 2
  000b1	02		 DB	 2
  000b2	02		 DB	 2
  000b3	01		 DB	 1
  000b4	01		 DB	 1
?CharPrevA@i3String@@YAPBDHPBD0@Z ENDP			; i3String::CharPrevA
_TEXT	ENDS
; Function compile flags: /Ogtp
; File E:\Proyectos\JuegosOnlineproyectos\PB\pbblow\Piercing Blow Remake\i3Server\src\i3Base\i3String.cpp
;	COMDAT ?CharNextA@i3String@@YAPBDHPBD@Z
_TEXT	SEGMENT
_nCodePage$ = 8						; size = 4
_pszStr$ = 12						; size = 4
?CharNextA@i3String@@YAPBDHPBD@Z PROC			; i3String::CharNextA, COMDAT

; 2530 : {

  00000	55		 push	 ebp
  00001	8b ec		 mov	 ebp, esp

; 2531 : 	I3ASSERT( pszStr != NULL && nCodePage != 0 && nCodePage != 1);
; 2532 : 
; 2533 : 	switch( nCodePage)

  00003	8b 4d 08	 mov	 ecx, DWORD PTR _nCodePage$[ebp]
  00006	8d 81 96 fc ff
	ff		 lea	 eax, DWORD PTR [ecx-874]
  0000c	83 f8 4c	 cmp	 eax, 76			; 0000004cH
  0000f	77 6c		 ja	 SHORT $LN14@CharNextA
  00011	0f b6 80 00 00
	00 00		 movzx	 eax, BYTE PTR $LN20@CharNextA[eax]
  00018	ff 24 85 00 00
	00 00		 jmp	 DWORD PTR $LN21@CharNextA[eax*4]
$LN7@CharNextA:

; 2534 : 	{
; 2535 : 	case I3_LANG_CODE_THAI:		//	THAI			ĹÂ±ąŔş Á¶ÇŐÇü MBCS ĂĽ°č (1~4ąŮŔĚĆ® °ˇşŻ ąŮŔĚĆ® ) ÁÖŔÇ! ĹÂ±ąľî´Â 2ąŮŔĚĆ®°ˇ ľĆ´Ď´Ů!
; 2536 : 		{
; 2537 : 			const BYTE * stream = (const BYTE*) pszStr;

  0001f	8b 55 0c	 mov	 edx, DWORD PTR _pszStr$[ebp]

; 2538 : 			
; 2539 : 			for(;;)
; 2540 : 			{
; 2541 : 				THAI_CLASS c1 = THAI_CLASS_TABLE[ stream[0]];

  00022	0f b6 02	 movzx	 eax, BYTE PTR [edx]

; 2542 : 				I3ASSERT( c1 >= 0 && c1 < 17);
; 2543 : 
; 2544 : 				THAI_CLASS c2 = THAI_CLASS_TABLE[ stream[1]];			
; 2545 : 				I3ASSERT( c2 >= 0 && c2 < 17);
; 2546 : 
; 2547 : 				if( THAI_OUTPUT_STATE_CHECK[c1][c2] == OC)

  00025	8b 04 85 00 00
	00 00		 mov	 eax, DWORD PTR ?THAI_CLASS_TABLE@@3PAW4THAI_CLASS@@A[eax*4]
  0002c	8b c8		 mov	 ecx, eax
  0002e	c1 e1 04	 shl	 ecx, 4
  00031	03 c8		 add	 ecx, eax
  00033	0f b6 42 01	 movzx	 eax, BYTE PTR [edx+1]
  00037	03 0c 85 00 00
	00 00		 add	 ecx, DWORD PTR ?THAI_CLASS_TABLE@@3PAW4THAI_CLASS@@A[eax*4]
  0003e	83 3c 8d 00 00
	00 00 01	 cmp	 DWORD PTR ?THAI_OUTPUT_STATE_CHECK@@3PAY0BB@W4THAI_OUTPUT_TYPE@@A[ecx*4], 1
  00046	75 30		 jne	 SHORT $LN8@CharNextA
  00048	eb 06 8d 9b 00
	00 00 00	 npad	 8
$LL6@CharNextA:

; 2538 : 			
; 2539 : 			for(;;)
; 2540 : 			{
; 2541 : 				THAI_CLASS c1 = THAI_CLASS_TABLE[ stream[0]];

  00050	0f b6 42 01	 movzx	 eax, BYTE PTR [edx+1]

; 2548 : 					++stream;

  00054	42		 inc	 edx
  00055	8b 04 85 00 00
	00 00		 mov	 eax, DWORD PTR ?THAI_CLASS_TABLE@@3PAW4THAI_CLASS@@A[eax*4]
  0005c	8b c8		 mov	 ecx, eax
  0005e	c1 e1 04	 shl	 ecx, 4
  00061	03 c8		 add	 ecx, eax
  00063	0f b6 42 01	 movzx	 eax, BYTE PTR [edx+1]
  00067	03 0c 85 00 00
	00 00		 add	 ecx, DWORD PTR ?THAI_CLASS_TABLE@@3PAW4THAI_CLASS@@A[eax*4]
  0006e	83 3c 8d 00 00
	00 00 01	 cmp	 DWORD PTR ?THAI_OUTPUT_STATE_CHECK@@3PAY0BB@W4THAI_OUTPUT_TYPE@@A[ecx*4], 1
  00076	74 d8		 je	 SHORT $LL6@CharNextA
$LN8@CharNextA:

; 2549 : 				else
; 2550 : 					break;
; 2551 : 			}
; 2552 : 
; 2553 : 			return (const char*)(stream+1);

  00078	8d 42 01	 lea	 eax, DWORD PTR [edx+1]

; 2554 : 		}
; 2555 : 		break;
; 2556 : 	case I3_LANG_CODE_KOREAN:					//	HANGUL			ÇŃ±Ű 
; 2557 : 	case I3_LANG_CODE_JAPANESE:					//	SHIFTJIS		ŔĎş»ľî
; 2558 : 	case I3_LANG_CODE_CHINESE_SIMPLIFIED:		//	GB2312			Áß±ąľî °ŁĂĽ
; 2559 : 	case I3_LANG_CODE_CHINESE_TRADITIONAL:		//	CHINESEBIG5		Áß±ąľî ąřĂĽ
; 2560 : 		{
; 2561 : #if I3_WINDOWS
; 2562 : 			return ::CharNextExA((WORD) nCodePage, pszStr, 0);
; 2563 : #else
; 2564 : 			//	CJK(ÇŃÁßŔĎ) ľđľî´Â DBCS ˝Ă˝şĹŰ (2ąŮŔĚĆ®) 
; 2565 : 			if( *pszStr & 0x80)		//	lead byte		ascii żµżŞŔş 0 ~ 127(0x7E) ŔĚ¸ç 0x80 şÎĹÍ ±Řµż ľđľî(DBCS)·Î ŔÎ˝ÄµČ´Ů.
; 2566 : 			{
; 2567 : 				pszStr++;
; 2568 : 			}
; 2569 : 
; 2570 : 			return (*pszStr != 0 ? pszStr++ : pszStr);
; 2571 : #endif
; 2572 : 		}
; 2573 : 		break;
; 2574 : 	default:
; 2575 : 		{
; 2576 : #if I3_WINDOWS
; 2577 : 			return ::CharNextExA((WORD) nCodePage, pszStr, 0);
; 2578 : #else
; 2579 : 			return pszStr++;		//	ÄÚµĺ ĆäŔĚÁö°ˇ Á¤ŔÇµÇÁö ľĘľŇ´Ů.
; 2580 : #endif
; 2581 : 		}
; 2582 : 		break;
; 2583 : 	}
; 2584 : }

  0007b	5d		 pop	 ebp
  0007c	c3		 ret	 0
$LN14@CharNextA:
  0007d	6a 00		 push	 0
  0007f	ff 75 0c	 push	 DWORD PTR _pszStr$[ebp]
  00082	51		 push	 ecx
  00083	ff 15 00 00 00
	00		 call	 DWORD PTR __imp__CharNextExA@12
  00089	5d		 pop	 ebp
  0008a	c3		 ret	 0
  0008b	90		 npad	 1
$LN21@CharNextA:
  0008c	00 00 00 00	 DD	 $LN7@CharNextA
  00090	00 00 00 00	 DD	 $LN14@CharNextA
  00094	00 00 00 00	 DD	 $LN14@CharNextA
$LN20@CharNextA:
  00098	00		 DB	 0
  00099	02		 DB	 2
  0009a	02		 DB	 2
  0009b	02		 DB	 2
  0009c	02		 DB	 2
  0009d	02		 DB	 2
  0009e	02		 DB	 2
  0009f	02		 DB	 2
  000a0	02		 DB	 2
  000a1	02		 DB	 2
  000a2	02		 DB	 2
  000a3	02		 DB	 2
  000a4	02		 DB	 2
  000a5	02		 DB	 2
  000a6	02		 DB	 2
  000a7	02		 DB	 2
  000a8	02		 DB	 2
  000a9	02		 DB	 2
  000aa	02		 DB	 2
  000ab	02		 DB	 2
  000ac	02		 DB	 2
  000ad	02		 DB	 2
  000ae	02		 DB	 2
  000af	02		 DB	 2
  000b0	02		 DB	 2
  000b1	02		 DB	 2
  000b2	02		 DB	 2
  000b3	02		 DB	 2
  000b4	02		 DB	 2
  000b5	02		 DB	 2
  000b6	02		 DB	 2
  000b7	02		 DB	 2
  000b8	02		 DB	 2
  000b9	02		 DB	 2
  000ba	02		 DB	 2
  000bb	02		 DB	 2
  000bc	02		 DB	 2
  000bd	02		 DB	 2
  000be	02		 DB	 2
  000bf	02		 DB	 2
  000c0	02		 DB	 2
  000c1	02		 DB	 2
  000c2	02		 DB	 2
  000c3	02		 DB	 2
  000c4	02		 DB	 2
  000c5	02		 DB	 2
  000c6	02		 DB	 2
  000c7	02		 DB	 2
  000c8	02		 DB	 2
  000c9	02		 DB	 2
  000ca	02		 DB	 2
  000cb	02		 DB	 2
  000cc	02		 DB	 2
  000cd	02		 DB	 2
  000ce	02		 DB	 2
  000cf	02		 DB	 2
  000d0	02		 DB	 2
  000d1	02		 DB	 2
  000d2	01		 DB	 1
  000d3	02		 DB	 2
  000d4	02		 DB	 2
  000d5	02		 DB	 2
  000d6	01		 DB	 1
  000d7	02		 DB	 2
  000d8	02		 DB	 2
  000d9	02		 DB	 2
  000da	02		 DB	 2
  000db	02		 DB	 2
  000dc	02		 DB	 2
  000dd	02		 DB	 2
  000de	02		 DB	 2
  000df	02		 DB	 2
  000e0	02		 DB	 2
  000e1	02		 DB	 2
  000e2	02		 DB	 2
  000e3	01		 DB	 1
  000e4	01		 DB	 1
?CharNextA@i3String@@YAPBDHPBD@Z ENDP			; i3String::CharNextA
_TEXT	ENDS
; Function compile flags: /Ogtp
; File E:\Proyectos\JuegosOnlineproyectos\PB\pbblow\Piercing Blow Remake\i3Server\src\i3Base\i3String.cpp
;	COMDAT ?ReplaceNoCase@i3String@@YAHPADHPBD1@Z
_TEXT	SEGMENT
_bResult$1$ = -4136					; size = 4
_str$GSCopy$1$ = -4132					; size = 4
_before$GSCopy$1$ = -4128				; size = 4
_c$1$ = -4124						; size = 4
_len$1$ = -4120						; size = 4
_pbuf$1$ = -4116					; size = 4
_bf$1$ = -4112						; size = 4
_count$1$ = -4108					; size = 4
_p$1$ = -4104						; size = 4
_buf$ = -4100						; size = 4096
__$ArrayPad$ = -4					; size = 4
_str$ = 8						; size = 4
_bufLen$ = 12						; size = 4
_before$ = 16						; size = 4
_affer$ = 20						; size = 4
?ReplaceNoCase@i3String@@YAHPADHPBD1@Z PROC		; i3String::ReplaceNoCase, COMDAT

; 2268 : {

  00000	55		 push	 ebp
  00001	8b ec		 mov	 ebp, esp
  00003	b8 28 10 00 00	 mov	 eax, 4136		; 00001028H
  00008	e8 00 00 00 00	 call	 __chkstk
  0000d	a1 00 00 00 00	 mov	 eax, DWORD PTR ___security_cookie
  00012	33 c5		 xor	 eax, ebp
  00014	89 45 fc	 mov	 DWORD PTR __$ArrayPad$[ebp], eax
  00017	53		 push	 ebx
  00018	8b 5d 08	 mov	 ebx, DWORD PTR _str$[ebp]

; 2269 : 	const INT32 cbufMax = 4096;
; 2270 : 	char buf[cbufMax] = "", * pbuf = buf;

  0001b	8d 85 fd ef ff
	ff		 lea	 eax, DWORD PTR _buf$[ebp+1]
  00021	56		 push	 esi
  00022	57		 push	 edi
  00023	8b 7d 10	 mov	 edi, DWORD PTR _before$[ebp]
  00026	68 ff 0f 00 00	 push	 4095			; 00000fffH
  0002b	6a 00		 push	 0
  0002d	50		 push	 eax
  0002e	89 9d dc ef ff
	ff		 mov	 DWORD PTR _str$GSCopy$1$[ebp], ebx
  00034	89 bd e0 ef ff
	ff		 mov	 DWORD PTR _before$GSCopy$1$[ebp], edi
  0003a	c6 85 fc ef ff
	ff 00		 mov	 BYTE PTR _buf$[ebp], 0
  00041	e8 00 00 00 00	 call	 _memset

; 2271 : 	unsigned char * p = (unsigned char*) str;

  00046	8b c3		 mov	 eax, ebx

; 2272 : 	unsigned char * bf = (unsigned char*) before;

  00048	89 bd f0 ef ff
	ff		 mov	 DWORD PTR _bf$1$[ebp], edi

; 2273 : 	unsigned char * af = (unsigned char*) affer;
; 2274 : 	INT32 len = 0;

  0004e	33 db		 xor	 ebx, ebx
  00050	89 85 f8 ef ff
	ff		 mov	 DWORD PTR _p$1$[ebp], eax

; 2275 : 	BOOL bResult = FALSE;

  00056	33 c9		 xor	 ecx, ecx
  00058	89 9d e8 ef ff
	ff		 mov	 DWORD PTR _len$1$[ebp], ebx
  0005e	83 c4 0c	 add	 esp, 12			; 0000000cH
  00061	89 8d d8 ef ff
	ff		 mov	 DWORD PTR _bResult$1$[ebp], ecx
  00067	8d b5 fc ef ff
	ff		 lea	 esi, DWORD PTR _buf$[ebp]
  0006d	89 b5 ec ef ff
	ff		 mov	 DWORD PTR _pbuf$1$[ebp], esi

; 2276 : 
; 2277 : 	if( str == NULL || *str == 0) return FALSE;

  00073	85 c0		 test	 eax, eax
  00075	0f 84 eb 01 00
	00		 je	 $LN12@ReplaceNoC
  0007b	8a 00		 mov	 al, BYTE PTR [eax]
  0007d	84 c0		 test	 al, al
  0007f	0f 84 e1 01 00
	00		 je	 $LN12@ReplaceNoC

; 2278 : 	if( before == NULL) return FALSE;

  00085	85 ff		 test	 edi, edi
  00087	0f 84 d9 01 00
	00		 je	 $LN12@ReplaceNoC

; 2279 : 	if( affer == NULL) return FALSE;

  0008d	39 4d 14	 cmp	 DWORD PTR _affer$[ebp], ecx
  00090	0f 84 d0 01 00
	00		 je	 $LN12@ReplaceNoC

; 2280 : 
; 2281 : 	INT32 maxLen = MIN( bufLen, cbufMax);

  00096	8b 4d 0c	 mov	 ecx, DWORD PTR _bufLen$[ebp]
  00099	ba 00 10 00 00	 mov	 edx, 4096		; 00001000H
  0009e	3b ca		 cmp	 ecx, edx
  000a0	0f 4f ca	 cmovg	 ecx, edx
  000a3	89 4d 0c	 mov	 DWORD PTR _bufLen$[ebp], ecx
$LL2@ReplaceNoC:

; 2284 : 	{
; 2285 : 		//	°°Ŕş ą®ŔÚż­Ŕ» ĂŁ´Â´Ů
; 2286 : 		if( toupper(*p) == toupper(*bf))

  000a6	0f b6 c0	 movzx	 eax, al
  000a9	50		 push	 eax
  000aa	e8 00 00 00 00	 call	 _toupper
  000af	8b f8		 mov	 edi, eax
  000b1	8b 85 e0 ef ff
	ff		 mov	 eax, DWORD PTR _before$GSCopy$1$[ebp]
  000b7	0f b6 00	 movzx	 eax, BYTE PTR [eax]
  000ba	50		 push	 eax
  000bb	e8 00 00 00 00	 call	 _toupper
  000c0	8b 95 f8 ef ff
	ff		 mov	 edx, DWORD PTR _p$1$[ebp]
  000c6	83 c4 08	 add	 esp, 8
  000c9	3b f8		 cmp	 edi, eax
  000cb	8a 02		 mov	 al, BYTE PTR [edx]
  000cd	0f 85 15 01 00
	00		 jne	 $LN15@ReplaceNoC

; 2287 : 		{
; 2288 : 			INT32 count = 0;

  000d3	33 c9		 xor	 ecx, ecx

; 2289 : 			unsigned char * c = p;

  000d5	8b fa		 mov	 edi, edx
  000d7	89 8d f4 ef ff
	ff		 mov	 DWORD PTR _count$1$[ebp], ecx
  000dd	89 bd e4 ef ff
	ff		 mov	 DWORD PTR _c$1$[ebp], edi

; 2290 : 
; 2291 : 			//	ą®ŔÚż­Ŕ» şń±łÇŘş»´Ů.
; 2292 : 			while( *c != 0 && (toupper(*c) == toupper(*bf)))

  000e3	84 c0		 test	 al, al
  000e5	74 5e		 je	 SHORT $LN5@ReplaceNoC
  000e7	8b 9d f0 ef ff
	ff		 mov	 ebx, DWORD PTR _bf$1$[ebp]
  000ed	8b f1		 mov	 esi, ecx
  000ef	90		 npad	 1
$LL4@ReplaceNoC:
  000f0	0f b6 c0	 movzx	 eax, al
  000f3	50		 push	 eax
  000f4	e8 00 00 00 00	 call	 _toupper
  000f9	8b f8		 mov	 edi, eax
  000fb	0f b6 03	 movzx	 eax, BYTE PTR [ebx]
  000fe	50		 push	 eax
  000ff	e8 00 00 00 00	 call	 _toupper
  00104	83 c4 08	 add	 esp, 8
  00107	3b f8		 cmp	 edi, eax
  00109	8b bd e4 ef ff
	ff		 mov	 edi, DWORD PTR _c$1$[ebp]
  0010f	75 10		 jne	 SHORT $LN65@ReplaceNoC
  00111	8a 47 01	 mov	 al, BYTE PTR [edi+1]

; 2293 : 			{
; 2294 : 				bf++;
; 2295 : 				c++;

  00114	47		 inc	 edi
  00115	43		 inc	 ebx
  00116	89 bd e4 ef ff
	ff		 mov	 DWORD PTR _c$1$[ebp], edi

; 2296 : 				count++;

  0011c	46		 inc	 esi
  0011d	84 c0		 test	 al, al
  0011f	75 cf		 jne	 SHORT $LL4@ReplaceNoC
$LN65@ReplaceNoC:
  00121	8b 95 f8 ef ff
	ff		 mov	 edx, DWORD PTR _p$1$[ebp]
  00127	89 b5 f4 ef ff
	ff		 mov	 DWORD PTR _count$1$[ebp], esi
  0012d	8b b5 ec ef ff
	ff		 mov	 esi, DWORD PTR _pbuf$1$[ebp]
  00133	8b 8d f4 ef ff
	ff		 mov	 ecx, DWORD PTR _count$1$[ebp]
  00139	89 9d f0 ef ff
	ff		 mov	 DWORD PTR _bf$1$[ebp], ebx
  0013f	8b 9d e8 ef ff
	ff		 mov	 ebx, DWORD PTR _len$1$[ebp]
$LN5@ReplaceNoC:

; 2297 : 			}		
; 2298 : 
; 2299 : 			//	ĂŁľĆľßÇŇ ¸đµç ą®ŔÚż­ °Ë»öŔĚ łˇłµ´Ů.
; 2300 : 			if( *bf == 0)

  00145	8b 85 f0 ef ff
	ff		 mov	 eax, DWORD PTR _bf$1$[ebp]
  0014b	80 38 00	 cmp	 BYTE PTR [eax], 0
  0014e	75 55		 jne	 SHORT $LN17@ReplaceNoC

; 2301 : 			{				
; 2302 : 				af = (unsigned char*) affer;

  00150	8b 45 14	 mov	 eax, DWORD PTR _affer$[ebp]
  00153	8b d0		 mov	 edx, eax

; 2303 : 
; 2304 : 				//	şŻ°ćÇŇ ą®ŔÚż­·Î ±łĂĽÇŃ´Ů.
; 2305 : 				while( *af)

  00155	8a 00		 mov	 al, BYTE PTR [eax]
  00157	84 c0		 test	 al, al
  00159	74 26		 je	 SHORT $LN61@ReplaceNoC
  0015b	8b 4d 0c	 mov	 ecx, DWORD PTR _bufLen$[ebp]
  0015e	49		 dec	 ecx
  0015f	90		 npad	 1
$LL6@ReplaceNoC:

; 2306 : 				{
; 2307 : 					*(pbuf++) = *(af++);
; 2308 : 
; 2309 : 					len++;

  00160	43		 inc	 ebx
  00161	88 06		 mov	 BYTE PTR [esi], al
  00163	46		 inc	 esi
  00164	89 9d e8 ef ff
	ff		 mov	 DWORD PTR _len$1$[ebp], ebx
  0016a	89 b5 ec ef ff
	ff		 mov	 DWORD PTR _pbuf$1$[ebp], esi
  00170	8d 52 01	 lea	 edx, DWORD PTR [edx+1]

; 2310 : 
; 2311 : 					//	ąöĆŰ°ˇ °ˇµćĂˇŔ¸ąÇ·Î ÁřÇŕ Áľ·á
; 2312 : 					if( len >= maxLen-1)

  00173	3b d9		 cmp	 ebx, ecx
  00175	0f 8d 98 00 00
	00		 jge	 $LN41@ReplaceNoC

; 2303 : 
; 2304 : 				//	şŻ°ćÇŇ ą®ŔÚż­·Î ±łĂĽÇŃ´Ů.
; 2305 : 				while( *af)

  0017b	8a 02		 mov	 al, BYTE PTR [edx]
  0017d	84 c0		 test	 al, al
  0017f	75 df		 jne	 SHORT $LL6@ReplaceNoC
$LN61@ReplaceNoC:

; 2333 : 					{
; 2334 : 						*pbuf = 0;
; 2335 : 						goto LABEL_EXIT;
; 2336 : 					}
; 2337 : 				}
; 2338 : 			}
; 2339 : 
; 2340 : 			//	´ŮŔ˝Ŕ¸·Î °čĽÓ ÁřÇŕµÇµµ·Ď
; 2341 : 			bf = (unsigned char*) before;

  00181	8b 4d 0c	 mov	 ecx, DWORD PTR _bufLen$[ebp]
  00184	8b d7		 mov	 edx, edi
  00186	8b 85 e0 ef ff
	ff		 mov	 eax, DWORD PTR _before$GSCopy$1$[ebp]
  0018c	49		 dec	 ecx
  0018d	89 95 f8 ef ff
	ff		 mov	 DWORD PTR _p$1$[ebp], edx
  00193	c7 85 d8 ef ff
	ff 01 00 00 00	 mov	 DWORD PTR _bResult$1$[ebp], 1
  0019d	89 85 f0 ef ff
	ff		 mov	 DWORD PTR _bf$1$[ebp], eax

; 2342 : 		}

  001a3	eb 62		 jmp	 SHORT $LN23@ReplaceNoC
$LN17@ReplaceNoC:

; 2313 : 					{
; 2314 : 						*pbuf = 0;
; 2315 : 						goto LABEL_EXIT;
; 2316 : 					}
; 2317 : 				}
; 2318 : 
; 2319 : 				p = c;	//	±łĂĽČÄ Ć÷ŔÎĹÍ ÁˇÇÁ.	
; 2320 : 
; 2321 : 				bResult = TRUE;
; 2322 : 			}
; 2323 : 			//	şń±ł ˝ÇĆĐ. żřş» ±×´ëµµ şą»ç
; 2324 : 			else
; 2325 : 			{
; 2326 : 				for(INT32 i=0; i < count; i++)

  001a5	33 ff		 xor	 edi, edi
  001a7	85 c9		 test	 ecx, ecx
  001a9	7e 2b		 jle	 SHORT $LN9@ReplaceNoC
  001ab	8b 4d 0c	 mov	 ecx, DWORD PTR _bufLen$[ebp]
  001ae	49		 dec	 ecx
  001af	90		 npad	 1
$LL10@ReplaceNoC:

; 2327 : 				{
; 2328 : 					*(pbuf++) = *(p++);

  001b0	8a 02		 mov	 al, BYTE PTR [edx]

; 2329 : 					len++;

  001b2	43		 inc	 ebx
  001b3	88 06		 mov	 BYTE PTR [esi], al
  001b5	42		 inc	 edx
  001b6	46		 inc	 esi
  001b7	89 95 f8 ef ff
	ff		 mov	 DWORD PTR _p$1$[ebp], edx
  001bd	89 b5 ec ef ff
	ff		 mov	 DWORD PTR _pbuf$1$[ebp], esi
  001c3	89 9d e8 ef ff
	ff		 mov	 DWORD PTR _len$1$[ebp], ebx

; 2330 : 
; 2331 : 					//	ąöĆŰ°ˇ °ˇµćĂˇŔ¸ąÇ·Î ÁřÇŕ Áľ·á
; 2332 : 					if( len >= maxLen-1)

  001c9	3b d9		 cmp	 ebx, ecx
  001cb	7d 46		 jge	 SHORT $LN41@ReplaceNoC

; 2313 : 					{
; 2314 : 						*pbuf = 0;
; 2315 : 						goto LABEL_EXIT;
; 2316 : 					}
; 2317 : 				}
; 2318 : 
; 2319 : 				p = c;	//	±łĂĽČÄ Ć÷ŔÎĹÍ ÁˇÇÁ.	
; 2320 : 
; 2321 : 				bResult = TRUE;
; 2322 : 			}
; 2323 : 			//	şń±ł ˝ÇĆĐ. żřş» ±×´ëµµ şą»ç
; 2324 : 			else
; 2325 : 			{
; 2326 : 				for(INT32 i=0; i < count; i++)

  001cd	47		 inc	 edi
  001ce	3b bd f4 ef ff
	ff		 cmp	 edi, DWORD PTR _count$1$[ebp]
  001d4	7c da		 jl	 SHORT $LL10@ReplaceNoC
$LN9@ReplaceNoC:

; 2333 : 					{
; 2334 : 						*pbuf = 0;
; 2335 : 						goto LABEL_EXIT;
; 2336 : 					}
; 2337 : 				}
; 2338 : 			}
; 2339 : 
; 2340 : 			//	´ŮŔ˝Ŕ¸·Î °čĽÓ ÁřÇŕµÇµµ·Ď
; 2341 : 			bf = (unsigned char*) before;

  001d6	8b 4d 0c	 mov	 ecx, DWORD PTR _bufLen$[ebp]
  001d9	8b 85 e0 ef ff
	ff		 mov	 eax, DWORD PTR _before$GSCopy$1$[ebp]
  001df	49		 dec	 ecx
  001e0	89 85 f0 ef ff
	ff		 mov	 DWORD PTR _bf$1$[ebp], eax

; 2342 : 		}

  001e6	eb 1f		 jmp	 SHORT $LN23@ReplaceNoC
$LN15@ReplaceNoC:

; 2343 : 		//	´Ů¸Ą ą®ŔÚ´Ů
; 2344 : 		else
; 2345 : 		{
; 2346 : 			*(pbuf++) = *(p++);
; 2347 : 			len++;
; 2348 : 
; 2349 : 			//	ąöĆŰ°ˇ °ˇµćĂˇŔ¸ąÇ·Î ÁřÇŕ Áľ·á
; 2350 : 			if( len >= maxLen-1)

  001e8	8b 4d 0c	 mov	 ecx, DWORD PTR _bufLen$[ebp]
  001eb	43		 inc	 ebx
  001ec	88 06		 mov	 BYTE PTR [esi], al
  001ee	42		 inc	 edx
  001ef	46		 inc	 esi
  001f0	89 95 f8 ef ff
	ff		 mov	 DWORD PTR _p$1$[ebp], edx
  001f6	49		 dec	 ecx
  001f7	89 b5 ec ef ff
	ff		 mov	 DWORD PTR _pbuf$1$[ebp], esi
  001fd	89 9d e8 ef ff
	ff		 mov	 DWORD PTR _len$1$[ebp], ebx
  00203	3b d9		 cmp	 ebx, ecx
  00205	7d 0c		 jge	 SHORT $LN41@ReplaceNoC
$LN23@ReplaceNoC:

; 2282 : 
; 2283 : 	while( *p) 

  00207	8a 02		 mov	 al, BYTE PTR [edx]
  00209	84 c0		 test	 al, al
  0020b	0f 85 95 fe ff
	ff		 jne	 $LL2@ReplaceNoC

; 2351 : 			{
; 2352 : 				*pbuf = 0;
; 2353 : 				goto LABEL_EXIT;
; 2354 : 			}		
; 2355 : 		}
; 2356 : 	}
; 2357 : 
; 2358 : LABEL_EXIT:

  00211	eb 03		 jmp	 SHORT $LABEL_EXIT$83
$LN41@ReplaceNoC:

; 2359 : 
; 2360 : 	//	ĂÖÁľ şŻ°ćµČ°Í şą»ç
; 2361 : 	if( buf[0] != 0)

  00213	c6 06 00	 mov	 BYTE PTR [esi], 0
$LABEL_EXIT$83:
  00216	8a 85 fc ef ff
	ff		 mov	 al, BYTE PTR _buf$[ebp]
  0021c	84 c0		 test	 al, al
  0021e	74 2f		 je	 SHORT $LN25@ReplaceNoC

; 2362 : 	{
; 2363 : 		len = MIN( len, maxLen-1);
; 2364 : 
; 2365 :         i3String::NCopy( str, buf, len);

  00220	3b d9		 cmp	 ebx, ecx
  00222	8d b5 fc ef ff
	ff		 lea	 esi, DWORD PTR _buf$[ebp]
  00228	0f 4e cb	 cmovle	 ecx, ebx
  0022b	8b 9d dc ef ff
	ff		 mov	 ebx, DWORD PTR _str$GSCopy$1$[ebp]
  00231	8b d3		 mov	 edx, ebx

; 1530 : 	INT32 Count = 0;

  00233	33 ff		 xor	 edi, edi
$LL30@ReplaceNoC:

; 1533 : 	{
; 1534 : 		*pDest = *pSrc;
; 1535 : 
; 1536 : 		pDest++;
; 1537 : 		pSrc++;
; 1538 : 		Count++;

  00235	47		 inc	 edi
  00236	88 02		 mov	 BYTE PTR [edx], al
  00238	8d 52 01	 lea	 edx, DWORD PTR [edx+1]
  0023b	8d 76 01	 lea	 esi, DWORD PTR [esi+1]

; 1539 : 
; 1540 : 		if( Count >= Length)

  0023e	3b f9		 cmp	 edi, ecx
  00240	7d 06		 jge	 SHORT $LN42@ReplaceNoC

; 1531 : 
; 1532 : 	while( *pSrc)

  00242	8a 06		 mov	 al, BYTE PTR [esi]
  00244	84 c0		 test	 al, al
  00246	75 ed		 jne	 SHORT $LL30@ReplaceNoC
$LN42@ReplaceNoC:

; 1541 : 			break;
; 1542 : 	}
; 1543 : 
; 1544 : 	*pDest = 0;

  00248	c6 02 00	 mov	 BYTE PTR [edx], 0

; 2366 : 
; 2367 : 		str[len] = 0;

  0024b	c6 04 19 00	 mov	 BYTE PTR [ecx+ebx], 0
$LN25@ReplaceNoC:

; 2368 : 	}
; 2369 : 
; 2370 : 	return bResult;

  0024f	8b 85 d8 ef ff
	ff		 mov	 eax, DWORD PTR _bResult$1$[ebp]
  00255	5f		 pop	 edi

; 2371 : }

  00256	5e		 pop	 esi
  00257	5b		 pop	 ebx
  00258	8b 4d fc	 mov	 ecx, DWORD PTR __$ArrayPad$[ebp]
  0025b	33 cd		 xor	 ecx, ebp
  0025d	e8 00 00 00 00	 call	 @__security_check_cookie@4
  00262	8b e5		 mov	 esp, ebp
  00264	5d		 pop	 ebp
  00265	c3		 ret	 0
$LN12@ReplaceNoC:
  00266	8b 4d fc	 mov	 ecx, DWORD PTR __$ArrayPad$[ebp]
  00269	33 c0		 xor	 eax, eax
  0026b	5f		 pop	 edi
  0026c	5e		 pop	 esi
  0026d	33 cd		 xor	 ecx, ebp
  0026f	5b		 pop	 ebx
  00270	e8 00 00 00 00	 call	 @__security_check_cookie@4
  00275	8b e5		 mov	 esp, ebp
  00277	5d		 pop	 ebp
  00278	c3		 ret	 0
?ReplaceNoCase@i3String@@YAHPADHPBD1@Z ENDP		; i3String::ReplaceNoCase
_TEXT	ENDS
; Function compile flags: /Ogtp
; File E:\Proyectos\JuegosOnlineproyectos\PB\pbblow\Piercing Blow Remake\i3Server\src\i3Base\i3String.cpp
;	COMDAT ?Replace@i3String@@YAHPADHPBD1@Z
_TEXT	SEGMENT
_str$GSCopy$1$ = -4124					; size = 4
_bResult$1$ = -4120					; size = 4
_count$1$ = -4116					; size = 4
_c$1$ = -4112						; size = 4
_p$1$ = -4108						; size = 4
tv421 = -4102						; size = 1
tv423 = -4101						; size = 1
_buf$ = -4100						; size = 4096
__$ArrayPad$ = -4					; size = 4
_str$ = 8						; size = 4
_bufLen$ = 12						; size = 4
_before$ = 16						; size = 4
_affer$ = 20						; size = 4
?Replace@i3String@@YAHPADHPBD1@Z PROC			; i3String::Replace, COMDAT

; 2161 : {

  00000	55		 push	 ebp
  00001	8b ec		 mov	 ebp, esp
  00003	b8 1c 10 00 00	 mov	 eax, 4124		; 0000101cH
  00008	e8 00 00 00 00	 call	 __chkstk
  0000d	a1 00 00 00 00	 mov	 eax, DWORD PTR ___security_cookie
  00012	33 c5		 xor	 eax, ebp
  00014	89 45 fc	 mov	 DWORD PTR __$ArrayPad$[ebp], eax
  00017	53		 push	 ebx
  00018	8b 5d 08	 mov	 ebx, DWORD PTR _str$[ebp]

; 2162 : 	const INT32 cbufMax = 4096;
; 2163 : 	char buf[cbufMax] = "", * pbuf = buf;

  0001b	8d 85 fd ef ff
	ff		 lea	 eax, DWORD PTR _buf$[ebp+1]
  00021	57		 push	 edi
  00022	68 ff 0f 00 00	 push	 4095			; 00000fffH
  00027	6a 00		 push	 0
  00029	50		 push	 eax
  0002a	89 9d e4 ef ff
	ff		 mov	 DWORD PTR _str$GSCopy$1$[ebp], ebx
  00030	c6 85 fc ef ff
	ff 00		 mov	 BYTE PTR _buf$[ebp], 0
  00037	e8 00 00 00 00	 call	 _memset

; 2164 : 	unsigned char * p = (unsigned char*) str;
; 2165 : 	unsigned char * bf = (unsigned char*) before;
; 2166 : 	unsigned char * af = (unsigned char*) affer;
; 2167 : 	INT32 len = 0;
; 2168 : 	BOOL bResult = FALSE;

  0003c	33 c9		 xor	 ecx, ecx
  0003e	8d 85 fc ef ff
	ff		 lea	 eax, DWORD PTR _buf$[ebp]
  00044	83 c4 0c	 add	 esp, 12			; 0000000cH
  00047	89 8d e8 ef ff
	ff		 mov	 DWORD PTR _bResult$1$[ebp], ecx
  0004d	8b fb		 mov	 edi, ebx
  0004f	33 d2		 xor	 edx, edx
  00051	89 bd f4 ef ff
	ff		 mov	 DWORD PTR _p$1$[ebp], edi

; 2169 : 
; 2170 : 	if( str == NULL || *str == 0) return FALSE;

  00057	85 db		 test	 ebx, ebx
  00059	0f 84 6c 01 00
	00		 je	 $LN12@Replace
  0005f	8a 0b		 mov	 cl, BYTE PTR [ebx]
  00061	84 c9		 test	 cl, cl
  00063	0f 84 62 01 00
	00		 je	 $LN12@Replace

; 2171 : 	if( before == NULL || *before == 0) return FALSE;

  00069	8b 5d 10	 mov	 ebx, DWORD PTR _before$[ebp]
  0006c	85 db		 test	 ebx, ebx
  0006e	0f 84 57 01 00
	00		 je	 $LN12@Replace
  00074	8a 2b		 mov	 ch, BYTE PTR [ebx]
  00076	88 ad fa ef ff
	ff		 mov	 BYTE PTR tv421[ebp], ch
  0007c	84 ed		 test	 ch, ch
  0007e	0f 84 47 01 00
	00		 je	 $LN12@Replace

; 2172 : 	if( affer == NULL || *affer == 0) return FALSE;

  00084	8b 5d 14	 mov	 ebx, DWORD PTR _affer$[ebp]
  00087	85 db		 test	 ebx, ebx
  00089	0f 84 3c 01 00
	00		 je	 $LN12@Replace
  0008f	8a 1b		 mov	 bl, BYTE PTR [ebx]
  00091	88 9d fb ef ff
	ff		 mov	 BYTE PTR tv423[ebp], bl
  00097	84 db		 test	 bl, bl
  00099	0f 84 2c 01 00
	00		 je	 $LN12@Replace

; 2173 : 
; 2174 : 	INT32 maxLen = MIN( bufLen, cbufMax);

  0009f	8b 5d 0c	 mov	 ebx, DWORD PTR _bufLen$[ebp]
  000a2	56		 push	 esi
  000a3	be 00 10 00 00	 mov	 esi, 4096		; 00001000H
  000a8	3b de		 cmp	 ebx, esi
  000aa	0f 4f de	 cmovg	 ebx, esi
  000ad	89 5d 0c	 mov	 DWORD PTR _bufLen$[ebp], ebx
$LL2@Replace:

; 2177 : 	{
; 2178 : 		//	°°Ŕş ą®ŔÚż­Ŕ» ĂŁ´Â´Ů
; 2179 : 		if( *p == *bf)

  000b0	3a cd		 cmp	 cl, ch
  000b2	0f 85 b0 00 00
	00		 jne	 $LN17@Replace

; 2180 : 		{
; 2181 : 			INT32 count = 0;
; 2182 : 			unsigned char * c = p;
; 2183 : 
; 2184 : 			//	ą®ŔÚż­Ŕ» şń±łÇŘş»´Ů.
; 2185 : 			while( *c != 0 && *c == *bf)

  000b8	8a 1f		 mov	 bl, BYTE PTR [edi]
  000ba	33 f6		 xor	 esi, esi
  000bc	8b 4d 10	 mov	 ecx, DWORD PTR _before$[ebp]
  000bf	89 b5 ec ef ff
	ff		 mov	 DWORD PTR _count$1$[ebp], esi
  000c5	89 bd f0 ef ff
	ff		 mov	 DWORD PTR _c$1$[ebp], edi
  000cb	84 db		 test	 bl, bl
  000cd	74 21		 je	 SHORT $LN5@Replace
  000cf	90		 npad	 1
$LL4@Replace:
  000d0	3a 19		 cmp	 bl, BYTE PTR [ecx]
  000d2	75 0a		 jne	 SHORT $LN55@Replace
  000d4	8a 5f 01	 mov	 bl, BYTE PTR [edi+1]

; 2186 : 			{
; 2187 : 				bf++;
; 2188 : 				c++;

  000d7	47		 inc	 edi
  000d8	41		 inc	 ecx

; 2189 : 				count++;

  000d9	46		 inc	 esi
  000da	84 db		 test	 bl, bl
  000dc	75 f2		 jne	 SHORT $LL4@Replace
$LN55@Replace:
  000de	89 bd f0 ef ff
	ff		 mov	 DWORD PTR _c$1$[ebp], edi
  000e4	8b bd f4 ef ff
	ff		 mov	 edi, DWORD PTR _p$1$[ebp]
  000ea	89 b5 ec ef ff
	ff		 mov	 DWORD PTR _count$1$[ebp], esi
$LN5@Replace:

; 2190 : 			}		
; 2191 : 
; 2192 : 			//	ĂŁľĆľßÇŇ ¸đµç ą®ŔÚż­ °Ë»öŔĚ łˇłµ´Ů.
; 2193 : 			if( *bf == 0)

  000f0	80 39 00	 cmp	 BYTE PTR [ecx], 0
  000f3	75 40		 jne	 SHORT $LN19@Replace

; 2194 : 			{				
; 2195 : 				af = (unsigned char*) affer;
; 2196 : 
; 2197 : 				//	şŻ°ćÇŇ ą®ŔÚż­·Î ±łĂĽÇŃ´Ů.
; 2198 : 				while( *af)

  000f5	8b 75 0c	 mov	 esi, DWORD PTR _bufLen$[ebp]
  000f8	8b 4d 14	 mov	 ecx, DWORD PTR _affer$[ebp]
  000fb	4e		 dec	 esi
  000fc	8a 9d fb ef ff
	ff		 mov	 bl, BYTE PTR tv423[ebp]
$LL6@Replace:

; 2199 : 				{
; 2200 : 					*(pbuf++) = *(af++);

  00102	88 18		 mov	 BYTE PTR [eax], bl

; 2201 : 
; 2202 : 					len++;

  00104	42		 inc	 edx
  00105	40		 inc	 eax
  00106	41		 inc	 ecx

; 2203 : 
; 2204 : 					//	ąöĆŰ°ˇ °ˇµćĂˇŔ¸ąÇ·Î ÁřÇŕ Áľ·á
; 2205 : 					if( len >= maxLen-1)

  00107	3b d6		 cmp	 edx, esi
  00109	7d 7d		 jge	 SHORT $LN37@Replace

; 2194 : 			{				
; 2195 : 				af = (unsigned char*) affer;
; 2196 : 
; 2197 : 				//	şŻ°ćÇŇ ą®ŔÚż­·Î ±łĂĽÇŃ´Ů.
; 2198 : 				while( *af)

  0010b	8a 19		 mov	 bl, BYTE PTR [ecx]
  0010d	84 db		 test	 bl, bl
  0010f	75 f1		 jne	 SHORT $LL6@Replace

; 2226 : 					{
; 2227 : 						*pbuf = 0;
; 2228 : 						goto LABEL_EXIT;
; 2229 : 					}
; 2230 : 				}
; 2231 : 			}
; 2232 : 
; 2233 : 			//	´ŮŔ˝Ŕ¸·Î °čĽÓ ÁřÇŕµÇµµ·Ď
; 2234 : 			bf = (unsigned char*) before;
; 2235 : 		}

  00111	8b 5d 0c	 mov	 ebx, DWORD PTR _bufLen$[ebp]
  00114	8b bd f0 ef ff
	ff		 mov	 edi, DWORD PTR _c$1$[ebp]
  0011a	8a ad fa ef ff
	ff		 mov	 ch, BYTE PTR tv421[ebp]
  00120	89 bd f4 ef ff
	ff		 mov	 DWORD PTR _p$1$[ebp], edi
  00126	c7 85 e8 ef ff
	ff 01 00 00 00	 mov	 DWORD PTR _bResult$1$[ebp], 1
  00130	8d 73 ff	 lea	 esi, DWORD PTR [ebx-1]
  00133	eb 47		 jmp	 SHORT $LN25@Replace
$LN19@Replace:

; 2206 : 					{
; 2207 : 						*pbuf = 0;
; 2208 : 						goto LABEL_EXIT;
; 2209 : 					}
; 2210 : 				}
; 2211 : 
; 2212 : 				p = c;	//	±łĂĽČÄ Ć÷ŔÎĹÍ ÁˇÇÁ.	
; 2213 : 
; 2214 : 				bResult = TRUE;
; 2215 : 			}
; 2216 : 			//	şń±ł ˝ÇĆĐ. żřş» ±×´ëµµ şą»ç
; 2217 : 			else
; 2218 : 			{
; 2219 : 				for(INT32 i=0; i < count; i++)

  00135	33 db		 xor	 ebx, ebx
  00137	85 f6		 test	 esi, esi
  00139	7e 1f		 jle	 SHORT $LN9@Replace
  0013b	8b 75 0c	 mov	 esi, DWORD PTR _bufLen$[ebp]
  0013e	4e		 dec	 esi
  0013f	90		 npad	 1
$LL10@Replace:

; 2220 : 				{
; 2221 : 					*(pbuf++) = *(p++);

  00140	8a 0f		 mov	 cl, BYTE PTR [edi]

; 2222 : 					len++;

  00142	42		 inc	 edx
  00143	88 08		 mov	 BYTE PTR [eax], cl
  00145	47		 inc	 edi
  00146	40		 inc	 eax
  00147	89 bd f4 ef ff
	ff		 mov	 DWORD PTR _p$1$[ebp], edi

; 2223 : 
; 2224 : 					//	ąöĆŰ°ˇ °ˇµćĂˇŔ¸ąÇ·Î ÁřÇŕ Áľ·á
; 2225 : 					if( len >= maxLen-1)

  0014d	3b d6		 cmp	 edx, esi
  0014f	7d 37		 jge	 SHORT $LN37@Replace

; 2206 : 					{
; 2207 : 						*pbuf = 0;
; 2208 : 						goto LABEL_EXIT;
; 2209 : 					}
; 2210 : 				}
; 2211 : 
; 2212 : 				p = c;	//	±łĂĽČÄ Ć÷ŔÎĹÍ ÁˇÇÁ.	
; 2213 : 
; 2214 : 				bResult = TRUE;
; 2215 : 			}
; 2216 : 			//	şń±ł ˝ÇĆĐ. żřş» ±×´ëµµ şą»ç
; 2217 : 			else
; 2218 : 			{
; 2219 : 				for(INT32 i=0; i < count; i++)

  00151	43		 inc	 ebx
  00152	3b 9d ec ef ff
	ff		 cmp	 ebx, DWORD PTR _count$1$[ebp]
  00158	7c e6		 jl	 SHORT $LL10@Replace
$LN9@Replace:

; 2226 : 					{
; 2227 : 						*pbuf = 0;
; 2228 : 						goto LABEL_EXIT;
; 2229 : 					}
; 2230 : 				}
; 2231 : 			}
; 2232 : 
; 2233 : 			//	´ŮŔ˝Ŕ¸·Î °čĽÓ ÁřÇŕµÇµµ·Ď
; 2234 : 			bf = (unsigned char*) before;
; 2235 : 		}

  0015a	8b 5d 0c	 mov	 ebx, DWORD PTR _bufLen$[ebp]
  0015d	8a ad fa ef ff
	ff		 mov	 ch, BYTE PTR tv421[ebp]
  00163	8d 73 ff	 lea	 esi, DWORD PTR [ebx-1]
  00166	eb 14		 jmp	 SHORT $LN25@Replace
$LN17@Replace:

; 2236 : 		//	´Ů¸Ą ą®ŔÚ´Ů
; 2237 : 		else
; 2238 : 		{
; 2239 : 			*(pbuf++) = *(p++);

  00168	8a 0f		 mov	 cl, BYTE PTR [edi]

; 2240 : 			len++;
; 2241 : 
; 2242 : 			//	ąöĆŰ°ˇ °ˇµćĂˇŔ¸ąÇ·Î ÁřÇŕ Áľ·á
; 2243 : 			if( len >= maxLen-1)

  0016a	8d 73 ff	 lea	 esi, DWORD PTR [ebx-1]
  0016d	88 08		 mov	 BYTE PTR [eax], cl
  0016f	47		 inc	 edi
  00170	42		 inc	 edx
  00171	89 bd f4 ef ff
	ff		 mov	 DWORD PTR _p$1$[ebp], edi
  00177	40		 inc	 eax
  00178	3b d6		 cmp	 edx, esi
  0017a	7d 0c		 jge	 SHORT $LN37@Replace
$LN25@Replace:

; 2175 : 
; 2176 : 	while( *p) 

  0017c	8a 0f		 mov	 cl, BYTE PTR [edi]
  0017e	84 c9		 test	 cl, cl
  00180	0f 85 2a ff ff
	ff		 jne	 $LL2@Replace

; 2244 : 			{
; 2245 : 				*pbuf = 0;
; 2246 : 				goto LABEL_EXIT;
; 2247 : 			}		
; 2248 : 		}
; 2249 : 	}
; 2250 : 
; 2251 : LABEL_EXIT:

  00186	eb 03		 jmp	 SHORT $LABEL_EXIT$73
$LN37@Replace:

; 2252 : 
; 2253 : 	//	ĂÖÁľ şŻ°ćµČ°Í şą»ç
; 2254 : 	if( buf[0] != 0)

  00188	c6 00 00	 mov	 BYTE PTR [eax], 0
$LABEL_EXIT$73:
  0018b	80 bd fc ef ff
	ff 00		 cmp	 BYTE PTR _buf$[ebp], 0
  00192	74 20		 je	 SHORT $LN27@Replace

; 2255 : 	{
; 2256 : 		len = MIN( len, maxLen-1);
; 2257 : 
; 2258 :         i3String::NCopy( str, buf, len);

  00194	8b bd e4 ef ff
	ff		 mov	 edi, DWORD PTR _str$GSCopy$1$[ebp]
  0019a	8d 85 fc ef ff
	ff		 lea	 eax, DWORD PTR _buf$[ebp]
  001a0	3b d6		 cmp	 edx, esi
  001a2	0f 4e f2	 cmovle	 esi, edx
  001a5	56		 push	 esi
  001a6	50		 push	 eax
  001a7	57		 push	 edi
  001a8	e8 00 00 00 00	 call	 ?NCopy@i3String@@YAXPADPBDH@Z ; i3String::NCopy
  001ad	83 c4 0c	 add	 esp, 12			; 0000000cH

; 2259 : 
; 2260 : 		str[len] = 0;

  001b0	c6 04 3e 00	 mov	 BYTE PTR [esi+edi], 0
$LN27@Replace:

; 2261 : 	}
; 2262 : 
; 2263 : 	return bResult;

  001b4	8b 85 e8 ef ff
	ff		 mov	 eax, DWORD PTR _bResult$1$[ebp]
  001ba	5e		 pop	 esi
  001bb	5f		 pop	 edi

; 2264 : }

  001bc	5b		 pop	 ebx
  001bd	8b 4d fc	 mov	 ecx, DWORD PTR __$ArrayPad$[ebp]
  001c0	33 cd		 xor	 ecx, ebp
  001c2	e8 00 00 00 00	 call	 @__security_check_cookie@4
  001c7	8b e5		 mov	 esp, ebp
  001c9	5d		 pop	 ebp
  001ca	c3		 ret	 0
$LN12@Replace:
  001cb	8b 4d fc	 mov	 ecx, DWORD PTR __$ArrayPad$[ebp]
  001ce	33 c0		 xor	 eax, eax
  001d0	5f		 pop	 edi
  001d1	33 cd		 xor	 ecx, ebp
  001d3	5b		 pop	 ebx
  001d4	e8 00 00 00 00	 call	 @__security_check_cookie@4
  001d9	8b e5		 mov	 esp, ebp
  001db	5d		 pop	 ebp
  001dc	c3		 ret	 0
?Replace@i3String@@YAHPADHPBD1@Z ENDP			; i3String::Replace
_TEXT	ENDS
; Function compile flags: /Ogtp
; File E:\Proyectos\JuegosOnlineproyectos\PB\pbblow\Piercing Blow Remake\i3Server\src\i3Base\i3String.cpp
;	COMDAT ?GetPrefixName@i3String@@YAXPADPBD@Z
_TEXT	SEGMENT
_pszDest$ = 8						; size = 4
_pszStr$ = 12						; size = 4
?GetPrefixName@i3String@@YAXPADPBD@Z PROC		; i3String::GetPrefixName, COMDAT

; 2127 : {

  00000	55		 push	 ebp
  00001	8b ec		 mov	 ebp, esp
  00003	8b 55 0c	 mov	 edx, DWORD PTR _pszStr$[ebp]
  00006	56		 push	 esi

; 2128 : 	INT32 i;
; 2129 : 
; 2130 : 	// żěĽ± ą®ŔÚż­ŔÇ şą»ç
; 2131 : 	for( i = 0; pszStr[i] != 0; i++)

  00007	33 f6		 xor	 esi, esi
  00009	57		 push	 edi
  0000a	80 3a 00	 cmp	 BYTE PTR [edx], 0
  0000d	8b 7d 08	 mov	 edi, DWORD PTR _pszDest$[ebp]
  00010	74 10		 je	 SHORT $LN9@GetPrefixN
$LL4@GetPrefixN:

; 2132 : 	{
; 2133 : 		pszDest[i] = pszStr[i];

  00012	8a 04 16	 mov	 al, BYTE PTR [esi+edx]
  00015	8d 0c 16	 lea	 ecx, DWORD PTR [esi+edx]
  00018	88 04 3e	 mov	 BYTE PTR [esi+edi], al
  0001b	46		 inc	 esi
  0001c	80 79 01 00	 cmp	 BYTE PTR [ecx+1], 0
  00020	75 f0		 jne	 SHORT $LL4@GetPrefixN
$LN9@GetPrefixN:

; 2134 : 	}
; 2135 : 
; 2136 : 	while( isdigit( pszDest[i - 1]))

  00022	0f be 44 3e ff	 movsx	 eax, BYTE PTR [esi+edi-1]
  00027	50		 push	 eax
  00028	e8 00 00 00 00	 call	 _isdigit
  0002d	83 c4 04	 add	 esp, 4
  00030	85 c0		 test	 eax, eax
  00032	74 15		 je	 SHORT $LN16@GetPrefixN
$LL5@GetPrefixN:
  00034	0f be 44 37 fe	 movsx	 eax, BYTE PTR [edi+esi-2]

; 2137 : 	{
; 2138 : 		// ŔĚŔü ą®ŔÚ°ˇ digit ą®ŔÚ¶ó¸é ľŐŔ¸·Î ŔĚµżÇŃ´Ů.
; 2139 : 		i--;

  00039	8d 76 ff	 lea	 esi, DWORD PTR [esi-1]
  0003c	50		 push	 eax
  0003d	e8 00 00 00 00	 call	 _isdigit
  00042	83 c4 04	 add	 esp, 4
  00045	85 c0		 test	 eax, eax
  00047	75 eb		 jne	 SHORT $LL5@GetPrefixN
$LN16@GetPrefixN:

; 2140 : 	}
; 2141 : 
; 2142 : 	// ÇöŔç iŔÇ ŔĚŔü ą®ŔÚ´Â digit ą®ŔÚ°ˇ ľĆ´Ď±â¶§ą®żˇ
; 2143 : 	// łˇŔ» ÇĄ˝ĂÇŃ´Ů.
; 2144 : 	pszDest[i] = 0;
; 2145 : }

  00049	c6 04 3e 00	 mov	 BYTE PTR [esi+edi], 0
  0004d	5f		 pop	 edi
  0004e	5e		 pop	 esi
  0004f	5d		 pop	 ebp
  00050	c3		 ret	 0
?GetPrefixName@i3String@@YAXPADPBD@Z ENDP		; i3String::GetPrefixName
_TEXT	ENDS
; Function compile flags: /Ogtp
; File E:\Proyectos\JuegosOnlineproyectos\PB\pbblow\Piercing Blow Remake\i3Server\src\i3Base\i3String.cpp
;	COMDAT ?ToInt@i3String@@YAHPBD@Z
_TEXT	SEGMENT
_mode$1$ = -4						; size = 4
_pszStr$ = 8						; size = 4
?ToInt@i3String@@YAHPBD@Z PROC				; i3String::ToInt, COMDAT

; 1927 : {

  00000	55		 push	 ebp
  00001	8b ec		 mov	 ebp, esp
  00003	51		 push	 ecx

; 1928 : 	ATOI_MODE mode = ATOI_DECIMAL;
; 1929 : 	INT32 rv = 0, sign = 1;
; 1930 : 	char ch;
; 1931 : 
; 1932 : 	if((pszStr[0] == '0') && ((pszStr[1] == 'x') || (pszStr[1] == 'X')))

  00004	8b 55 08	 mov	 edx, DWORD PTR _pszStr$[ebp]
  00007	33 c9		 xor	 ecx, ecx
  00009	53		 push	 ebx
  0000a	33 db		 xor	 ebx, ebx
  0000c	56		 push	 esi
  0000d	8a 02		 mov	 al, BYTE PTR [edx]
  0000f	89 5d fc	 mov	 DWORD PTR _mode$1$[ebp], ebx
  00012	57		 push	 edi
  00013	8d 7b 01	 lea	 edi, DWORD PTR [ebx+1]
  00016	3c 30		 cmp	 al, 48			; 00000030H
  00018	75 16		 jne	 SHORT $LN22@ToInt
  0001a	8a 42 01	 mov	 al, BYTE PTR [edx+1]
  0001d	3c 78		 cmp	 al, 120			; 00000078H
  0001f	74 04		 je	 SHORT $LN7@ToInt
  00021	3c 58		 cmp	 al, 88			; 00000058H
  00023	75 0f		 jne	 SHORT $LN26@ToInt
$LN7@ToInt:

; 1933 : 	{
; 1934 : 		mode = ATOI_HEXA;
; 1935 : 		pszStr += 2;

  00025	8a 42 02	 mov	 al, BYTE PTR [edx+2]
  00028	83 c2 02	 add	 edx, 2
  0002b	8b df		 mov	 ebx, edi
  0002d	89 5d fc	 mov	 DWORD PTR _mode$1$[ebp], ebx
$LN22@ToInt:

; 1936 : 	}
; 1937 : 
; 1938 : 	while( * pszStr)

  00030	84 c0		 test	 al, al
  00032	74 6c		 je	 SHORT $LN27@ToInt
$LN26@ToInt:
  00034	8a 02		 mov	 al, BYTE PTR [edx]
$LL2@ToInt:

; 1939 : 	{
; 1940 : 		switch( *pszStr)

  00036	0f be f0	 movsx	 esi, al
  00039	8b c6		 mov	 eax, esi
  0003b	83 e8 2b	 sub	 eax, 43			; 0000002bH
  0003e	74 4a		 je	 SHORT $LN9@ToInt
  00040	83 e8 02	 sub	 eax, 2
  00043	74 42		 je	 SHORT $LN8@ToInt

; 1943 : 			case '+' :				break;
; 1944 : 			default :
; 1945 : 
; 1946 : 				if( mode == ATOI_DECIMAL)

  00045	85 db		 test	 ebx, ebx
  00047	75 13		 jne	 SHORT $LN11@ToInt

; 1947 : 				{
; 1948 : 					if( (*pszStr >= '0') && (*pszStr <= '9'))

  00049	8a 02		 mov	 al, BYTE PTR [edx]
  0004b	2c 30		 sub	 al, 48			; 00000030H
  0004d	3c 09		 cmp	 al, 9
  0004f	77 46		 ja	 SHORT $LN19@ToInt

; 1949 : 					{
; 1950 : 						rv *= 10;

  00051	8d 0c 89	 lea	 ecx, DWORD PTR [ecx+ecx*4]
  00054	8d 49 e8	 lea	 ecx, DWORD PTR [ecx-24]
  00057	8d 0c 4e	 lea	 ecx, DWORD PTR [esi+ecx*2]

; 1951 : 						rv += *pszStr - '0';
; 1952 : 					}
; 1953 : 					else
; 1954 : 						return 0;
; 1955 : 				}

  0005a	eb 2e		 jmp	 SHORT $LN9@ToInt
$LN11@ToInt:

; 1956 : 				else
; 1957 : 				{
; 1958 : 					rv <<= 4;
; 1959 : 
; 1960 : 					if( (*pszStr >= '0') && (*pszStr <= '9'))

  0005c	8a 1a		 mov	 bl, BYTE PTR [edx]
  0005e	c1 e1 04	 shl	 ecx, 4
  00061	8d 43 d0	 lea	 eax, DWORD PTR [ebx-48]
  00064	3c 09		 cmp	 al, 9
  00066	77 07		 ja	 SHORT $LN15@ToInt

; 1961 : 					{
; 1962 : 						rv += *pszStr - '0';

  00068	83 c1 d0	 add	 ecx, -48		; ffffffd0H
  0006b	03 ce		 add	 ecx, esi

; 1963 : 					}

  0006d	eb 1b		 jmp	 SHORT $LN9@ToInt
$LN15@ToInt:

; 1964 : 					else 
; 1965 : 					{
; 1966 : 						if( (*pszStr >= 'a') && (*pszStr <= 'f'))

  0006f	8d 43 9f	 lea	 eax, DWORD PTR [ebx-97]
  00072	3c 05		 cmp	 al, 5
  00074	76 07		 jbe	 SHORT $LN20@ToInt

; 1967 : 							ch = *pszStr - 'a';
; 1968 : 						else if((*pszStr >= 'A') && (*pszStr <= 'F'))

  00076	8d 43 bf	 lea	 eax, DWORD PTR [ebx-65]
  00079	3c 05		 cmp	 al, 5
  0007b	77 1a		 ja	 SHORT $LN19@ToInt
$LN20@ToInt:

; 1969 : 							ch = *pszStr - 'A';
; 1970 : 						else
; 1971 : 							return 0;
; 1972 : 
; 1973 : 						rv += ch + 10;

  0007d	0f be c0	 movsx	 eax, al
  00080	83 c1 0a	 add	 ecx, 10			; 0000000aH
  00083	03 c8		 add	 ecx, eax
  00085	eb 03		 jmp	 SHORT $LN9@ToInt
$LN8@ToInt:

; 1941 : 		{
; 1942 : 			case '-' :	sign = -1;	break;

  00087	83 cf ff	 or	 edi, -1
$LN9@ToInt:

; 1936 : 	}
; 1937 : 
; 1938 : 	while( * pszStr)

  0008a	8a 42 01	 mov	 al, BYTE PTR [edx+1]

; 1974 : 					}
; 1975 : 				}
; 1976 : 				break;
; 1977 : 		}
; 1978 : 
; 1979 : 		pszStr++;

  0008d	42		 inc	 edx
  0008e	84 c0		 test	 al, al
  00090	74 0e		 je	 SHORT $LN27@ToInt

; 1936 : 	}
; 1937 : 
; 1938 : 	while( * pszStr)

  00092	8b 5d fc	 mov	 ebx, DWORD PTR _mode$1$[ebp]
  00095	eb 9f		 jmp	 SHORT $LL2@ToInt
$LN19@ToInt:
  00097	5f		 pop	 edi

; 1983 : }

  00098	5e		 pop	 esi
  00099	33 c0		 xor	 eax, eax
  0009b	5b		 pop	 ebx
  0009c	8b e5		 mov	 esp, ebp
  0009e	5d		 pop	 ebp
  0009f	c3		 ret	 0
$LN27@ToInt:

; 1980 : 	}
; 1981 : 
; 1982 : 	return rv * sign;

  000a0	0f af f9	 imul	 edi, ecx
  000a3	8b c7		 mov	 eax, edi
  000a5	5f		 pop	 edi

; 1983 : }

  000a6	5e		 pop	 esi
  000a7	5b		 pop	 ebx
  000a8	8b e5		 mov	 esp, ebp
  000aa	5d		 pop	 ebp
  000ab	c3		 ret	 0
?ToInt@i3String@@YAHPBD@Z ENDP				; i3String::ToInt
_TEXT	ENDS
; Function compile flags: /Ogtp
; File E:\Proyectos\JuegosOnlineproyectos\PB\pbblow\Piercing Blow Remake\i3Server\src\i3Base\i3String.cpp
;	COMDAT ?ftoa@i3String@@YAXMPADH@Z
_TEXT	SEGMENT
tv206 = -76						; size = 8
_format$1 = -68						; size = 64
__$ArrayPad$ = -4					; size = 4
_val$ = 8						; size = 4
_pszStr$ = 12						; size = 4
_fractLen$ = 16						; size = 4
?ftoa@i3String@@YAXMPADH@Z PROC				; i3String::ftoa, COMDAT

; 1728 : {

  00000	55		 push	 ebp
  00001	8b ec		 mov	 ebp, esp
  00003	83 ec 4c	 sub	 esp, 76			; 0000004cH
  00006	a1 00 00 00 00	 mov	 eax, DWORD PTR ___security_cookie
  0000b	33 c5		 xor	 eax, ebp
  0000d	89 45 fc	 mov	 DWORD PTR __$ArrayPad$[ebp], eax
  00010	d9 45 08	 fld	 DWORD PTR _val$[ebp]

; 1729 : 	char * pszTemp;
; 1730 : 
; 1731 : 	if( fractLen == -1)

  00013	8b 45 10	 mov	 eax, DWORD PTR _fractLen$[ebp]
  00016	56		 push	 esi
  00017	8b 75 0c	 mov	 esi, DWORD PTR _pszStr$[ebp]
  0001a	dd 55 b4	 fst	 QWORD PTR tv206[ebp]
  0001d	83 f8 ff	 cmp	 eax, -1
  00020	75 0d		 jne	 SHORT $LN37@ftoa

; 1732 : 	{
; 1733 : 		sprintf( (PSTR)pszStr, (PSTR)"%f", val);

  00022	83 ec 08	 sub	 esp, 8
  00025	dd 1c 24	 fstp	 QWORD PTR [esp]
  00028	68 00 00 00 00	 push	 OFFSET ??_C@_02NJPGOMH@?$CFf@

; 1734 : 	}

  0002d	eb 1e		 jmp	 SHORT $LN40@ftoa
$LN37@ftoa:

; 1735 : 	else
; 1736 : 	{
; 1737 : 		char format[64];
; 1738 : 
; 1739 : 		sprintf( format, "%%.%df", fractLen);

  0002f	50		 push	 eax
  00030	8d 45 bc	 lea	 eax, DWORD PTR _format$1[ebp]
  00033	dd d8		 fstp	 ST(0)
  00035	68 00 00 00 00	 push	 OFFSET ??_C@_06DNBDMDIL@?$CF?$CF?4?$CFdf@
  0003a	50		 push	 eax
  0003b	e8 00 00 00 00	 call	 _sprintf

; 1740 : 		sprintf( pszStr, format, val);

  00040	dd 45 b4	 fld	 QWORD PTR tv206[ebp]
  00043	8d 45 bc	 lea	 eax, DWORD PTR _format$1[ebp]
  00046	83 c4 04	 add	 esp, 4
  00049	dd 1c 24	 fstp	 QWORD PTR [esp]
  0004c	50		 push	 eax
$LN40@ftoa:

; 1741 : 	}
; 1742 : 
; 1743 : 	pszTemp = pszStr;
; 1744 : 	while( *pszTemp)

  0004d	56		 push	 esi
  0004e	e8 00 00 00 00	 call	 _sprintf
  00053	83 c4 10	 add	 esp, 16			; 00000010H
  00056	80 3e 00	 cmp	 BYTE PTR [esi], 0
  00059	74 0b		 je	 SHORT $LL6@ftoa
  0005b	eb 03 8d 49 00	 npad	 5
$LL2@ftoa:

; 1745 : 		pszTemp++;

  00060	46		 inc	 esi
  00061	80 3e 00	 cmp	 BYTE PTR [esi], 0
  00064	75 fa		 jne	 SHORT $LL2@ftoa
$LL6@ftoa:

; 1746 : 
; 1747 : 	do
; 1748 : 	{
; 1749 : 		pszTemp--;
; 1750 : 
; 1751 : 		if( *pszTemp == '0')

  00066	8a 46 ff	 mov	 al, BYTE PTR [esi-1]
  00069	8d 76 ff	 lea	 esi, DWORD PTR [esi-1]
  0006c	3c 30		 cmp	 al, 48			; 00000030H
  0006e	75 05		 jne	 SHORT $LN4@ftoa

; 1752 : 			*pszTemp = 0;

  00070	c6 06 00	 mov	 BYTE PTR [esi], 0
  00073	eb f1		 jmp	 SHORT $LL6@ftoa
$LN4@ftoa:

; 1753 : 
; 1754 : 	} while( *pszTemp == 0);

  00075	84 c0		 test	 al, al
  00077	74 ed		 je	 SHORT $LL6@ftoa

; 1755 : 
; 1756 : 	if( *pszTemp == '.')

  00079	3c 2e		 cmp	 al, 46			; 0000002eH
  0007b	75 03		 jne	 SHORT $LN10@ftoa

; 1757 : 		*pszTemp = 0;

  0007d	c6 06 00	 mov	 BYTE PTR [esi], 0
$LN10@ftoa:

; 1758 : }

  00080	8b 4d fc	 mov	 ecx, DWORD PTR __$ArrayPad$[ebp]
  00083	33 cd		 xor	 ecx, ebp
  00085	5e		 pop	 esi
  00086	e8 00 00 00 00	 call	 @__security_check_cookie@4
  0008b	8b e5		 mov	 esp, ebp
  0008d	5d		 pop	 ebp
  0008e	c3		 ret	 0
?ftoa@i3String@@YAXMPADH@Z ENDP				; i3String::ftoa
_TEXT	ENDS
; Function compile flags: /Ogtp
; File E:\Proyectos\JuegosOnlineproyectos\PB\pbblow\Piercing Blow Remake\i3Server\src\i3Base\i3String.cpp
;	COMDAT ?NewString@i3String@@YAPADPBD@Z
_TEXT	SEGMENT
_szIn$ = 8						; size = 4
?NewString@i3String@@YAPADPBD@Z PROC			; i3String::NewString, COMDAT

; 1763 : {

  00000	55		 push	 ebp
  00001	8b ec		 mov	 ebp, esp
  00003	56		 push	 esi

; 1764 : 	I3ASSERT( szIn != NULL );
; 1765 : 	INT32 nLen = Length( szIn );

  00004	8b 75 08	 mov	 esi, DWORD PTR _szIn$[ebp]
  00007	8b c6		 mov	 eax, esi
  00009	57		 push	 edi

; 1055 : 	INT32 Count = 0;

  0000a	33 ff		 xor	 edi, edi

; 1056 : 
; 1057 : 	while( *pStr1)

  0000c	80 3e 00	 cmp	 BYTE PTR [esi], 0
  0000f	74 09		 je	 SHORT $LN5@NewString
$LL4@NewString:

; 1058 : 	{
; 1059 : 		Count++;
; 1060 : 		pStr1++;

  00011	8d 40 01	 lea	 eax, DWORD PTR [eax+1]
  00014	47		 inc	 edi
  00015	80 38 00	 cmp	 BYTE PTR [eax], 0
  00018	75 f7		 jne	 SHORT $LL4@NewString
$LN5@NewString:

; 1766 : 	I3ASSERT( nLen >= 0 );
; 1767 : 	
; 1768 : 	char *szOut = (char *)i3MemAlloc( nLen + 1 );

  0001a	68 e8 06 00 00	 push	 1768			; 000006e8H
  0001f	68 00 00 00 00	 push	 OFFSET ??_C@_0GD@CAEEIHCP@E?3?2Proyectos?2JuegosOnlineproyec@
  00024	6a 10		 push	 16			; 00000010H
  00026	47		 inc	 edi
  00027	6a 00		 push	 0
  00029	57		 push	 edi
  0002a	e8 00 00 00 00	 call	 ?AllocTool@i3mem@@YAPAXHHHPBDH@Z ; i3mem::AllocTool
  0002f	83 c4 14	 add	 esp, 20			; 00000014H
  00032	8b d0		 mov	 edx, eax

; 1769 : 	I3ASSERT( szOut != NULL );
; 1770 : 
; 1771 : #if 0
; 1772 : 	{
; 1773 : 		// ¸Ţ¸đ¸® ´©Ľö Ĺ˝Áö
; 1774 : 		void *pCheck = szOut;
; 1775 : 		static int nCount = 0;
; 1776 : 		static int nCheck = -1;
; 1777 : 		I3ASSERT( nCheck != nCount );
; 1778 : 		I3WARN("%d, %p\n", nCount, pCheck );
; 1779 : 		//I3TRACE( __FUNCTION__ " : %d, %p\n", nCount, pCheck );
; 1780 : 		nCount++;
; 1781 : 	}
; 1782 : #endif
; 1783 : 
; 1784 : 	Copy( szOut, szIn, nLen + 1 );

  00034	8b ca		 mov	 ecx, edx

; 1476 : 	if ( DestLength <= 0 )

  00036	85 ff		 test	 edi, edi
  00038	7e 19		 jle	 SHORT $LN22@NewString

; 1477 : 		return;
; 1478 : 
; 1479 : 	while( *pSrc && --DestLength > 0 )

  0003a	80 3e 00	 cmp	 BYTE PTR [esi], 0
  0003d	74 11		 je	 SHORT $LN23@NewString
  0003f	90		 npad	 1
$LL8@NewString:
  00040	4f		 dec	 edi
  00041	85 ff		 test	 edi, edi
  00043	7e 0b		 jle	 SHORT $LN23@NewString

; 1480 : 	{
; 1481 : 		*pDest = *pSrc;

  00045	8a 06		 mov	 al, BYTE PTR [esi]

; 1482 : 
; 1483 : 		pDest++;
; 1484 : 		pSrc++;

  00047	46		 inc	 esi
  00048	88 01		 mov	 BYTE PTR [ecx], al
  0004a	41		 inc	 ecx
  0004b	80 3e 00	 cmp	 BYTE PTR [esi], 0
  0004e	75 f0		 jne	 SHORT $LL8@NewString
$LN23@NewString:

; 1485 : 	}
; 1486 : 
; 1487 : 	*pDest = 0;

  00050	c6 01 00	 mov	 BYTE PTR [ecx], 0
$LN22@NewString:
  00053	5f		 pop	 edi

; 1785 : 
; 1786 : 	return szOut;
; 1787 : }

  00054	8b c2		 mov	 eax, edx
  00056	5e		 pop	 esi
  00057	5d		 pop	 ebp
  00058	c3		 ret	 0
?NewString@i3String@@YAPADPBD@Z ENDP			; i3String::NewString
_TEXT	ENDS
; Function compile flags: /Ogtp
; File E:\Proyectos\JuegosOnlineproyectos\PB\pbblow\Piercing Blow Remake\i3Server\src\i3Base\i3String.cpp
;	COMDAT ?Concat@i3String@@YAXPAGPBG@Z
_TEXT	SEGMENT
_pDest$ = 8						; size = 4
_pSrc$ = 12						; size = 4
?Concat@i3String@@YAXPAGPBG@Z PROC			; i3String::Concat, COMDAT

; 1585 : {

  00000	55		 push	 ebp
  00001	8b ec		 mov	 ebp, esp

; 1586 : 	while( *pDest)

  00003	8b 45 08	 mov	 eax, DWORD PTR _pDest$[ebp]
  00006	66 83 38 00	 cmp	 WORD PTR [eax], 0
  0000a	74 0d		 je	 SHORT $LN8@Concat
  0000c	8d 64 24 00	 npad	 4
$LL2@Concat:

; 1587 : 	{
; 1588 : 		pDest++;

  00010	83 c0 02	 add	 eax, 2
  00013	66 83 38 00	 cmp	 WORD PTR [eax], 0
  00017	75 f7		 jne	 SHORT $LL2@Concat
$LN8@Concat:

; 1589 : 	}
; 1590 : 	
; 1591 : 	while( *pSrc)

  00019	8b 55 0c	 mov	 edx, DWORD PTR _pSrc$[ebp]
  0001c	0f b7 0a	 movzx	 ecx, WORD PTR [edx]
  0001f	66 85 c9	 test	 cx, cx
  00022	74 17		 je	 SHORT $LN17@Concat
  00024	56		 push	 esi
  00025	8b f1		 mov	 esi, ecx
$LL4@Concat:

; 1592 : 	{
; 1593 : 		*pDest = *pSrc;

  00027	66 89 30	 mov	 WORD PTR [eax], si

; 1594 : 		
; 1595 : 		pDest++;
; 1596 : 		pSrc++;

  0002a	8d 52 02	 lea	 edx, DWORD PTR [edx+2]
  0002d	0f b7 0a	 movzx	 ecx, WORD PTR [edx]
  00030	8d 40 02	 lea	 eax, DWORD PTR [eax+2]
  00033	8b f1		 mov	 esi, ecx
  00035	66 85 c9	 test	 cx, cx
  00038	75 ed		 jne	 SHORT $LL4@Concat

; 1589 : 	}
; 1590 : 	
; 1591 : 	while( *pSrc)

  0003a	5e		 pop	 esi
$LN17@Concat:

; 1597 : 	}
; 1598 : 	
; 1599 : 	*pDest = 0;
; 1600 : }

  0003b	33 c9		 xor	 ecx, ecx
  0003d	66 89 08	 mov	 WORD PTR [eax], cx
  00040	5d		 pop	 ebp
  00041	c3		 ret	 0
?Concat@i3String@@YAXPAGPBG@Z ENDP			; i3String::Concat
_TEXT	ENDS
; Function compile flags: /Ogtp
; File E:\Proyectos\JuegosOnlineproyectos\PB\pbblow\Piercing Blow Remake\i3Server\src\i3Base\i3String.cpp
;	COMDAT ?Concat@i3String@@YAXPADPBD@Z
_TEXT	SEGMENT
_pDest$ = 8						; size = 4
_pSrc$ = 12						; size = 4
?Concat@i3String@@YAXPADPBD@Z PROC			; i3String::Concat, COMDAT

; 1567 : {

  00000	55		 push	 ebp
  00001	8b ec		 mov	 ebp, esp

; 1568 : 	while( *pDest)

  00003	8b 45 08	 mov	 eax, DWORD PTR _pDest$[ebp]
  00006	80 38 00	 cmp	 BYTE PTR [eax], 0
  00009	74 0b		 je	 SHORT $LN8@Concat
  0000b	eb 03 8d 49 00	 npad	 5
$LL2@Concat:

; 1569 : 	{
; 1570 : 		pDest++;

  00010	40		 inc	 eax
  00011	80 38 00	 cmp	 BYTE PTR [eax], 0
  00014	75 fa		 jne	 SHORT $LL2@Concat
$LN8@Concat:

; 1571 : 	}
; 1572 : 	
; 1573 : 	while( *pSrc)

  00016	8b 4d 0c	 mov	 ecx, DWORD PTR _pSrc$[ebp]
  00019	8a 11		 mov	 dl, BYTE PTR [ecx]
  0001b	84 d2		 test	 dl, dl
  0001d	74 0f		 je	 SHORT $LN17@Concat
  0001f	90		 npad	 1
$LL4@Concat:

; 1574 : 	{
; 1575 : 		*pDest = *pSrc;

  00020	88 10		 mov	 BYTE PTR [eax], dl

; 1576 : 		
; 1577 : 		pDest++;
; 1578 : 		pSrc++;

  00022	8d 49 01	 lea	 ecx, DWORD PTR [ecx+1]
  00025	8a 11		 mov	 dl, BYTE PTR [ecx]
  00027	8d 40 01	 lea	 eax, DWORD PTR [eax+1]
  0002a	84 d2		 test	 dl, dl
  0002c	75 f2		 jne	 SHORT $LL4@Concat
$LN17@Concat:

; 1579 : 	}
; 1580 : 	
; 1581 : 	*pDest = 0;
; 1582 : }

  0002e	c6 00 00	 mov	 BYTE PTR [eax], 0
  00031	5d		 pop	 ebp
  00032	c3		 ret	 0
?Concat@i3String@@YAXPADPBD@Z ENDP			; i3String::Concat
_TEXT	ENDS
; Function compile flags: /Ogtp
; File E:\Proyectos\JuegosOnlineproyectos\PB\pbblow\Piercing Blow Remake\i3Server\src\i3Base\i3String.cpp
;	COMDAT ?ContainNoCase@i3String@@YAHPBD0@Z
_TEXT	SEGMENT
_C2$1$ = -12						; size = 4
_C1$1$ = -8						; size = 4
_StartIdx$1$ = -4					; size = 4
_pszStr$ = 8						; size = 4
_pszKey$ = 12						; size = 4
?ContainNoCase@i3String@@YAHPBD0@Z PROC			; i3String::ContainNoCase, COMDAT

; 1210 : {

  00000	55		 push	 ebp
  00001	8b ec		 mov	 ebp, esp
  00003	83 ec 0c	 sub	 esp, 12			; 0000000cH

; 1213 : 	INT32 C1 = 0, C2 = 0;
; 1214 : 
; 1215 : 	Len = Length( pszKey);

  00006	8b 55 0c	 mov	 edx, DWORD PTR _pszKey$[ebp]
  00009	33 c0		 xor	 eax, eax
  0000b	53		 push	 ebx
  0000c	56		 push	 esi
  0000d	57		 push	 edi
  0000e	33 f6		 xor	 esi, esi
  00010	33 ff		 xor	 edi, edi

; 1055 : 	INT32 Count = 0;

  00012	33 db		 xor	 ebx, ebx

; 1211 : 	INT32 Len;
; 1212 : 	INT32 idxKey = 0, idxStr = 0, StartIdx = 0;

  00014	89 75 fc	 mov	 DWORD PTR _StartIdx$1$[ebp], esi

; 1213 : 	INT32 C1 = 0, C2 = 0;
; 1214 : 
; 1215 : 	Len = Length( pszKey);

  00017	8b ca		 mov	 ecx, edx

; 1057 : 	while( *pStr1)

  00019	38 02		 cmp	 BYTE PTR [edx], al
  0001b	74 0b		 je	 SHORT $LN15@ContainNoC
  0001d	8d 49 00	 npad	 3
$LL14@ContainNoC:

; 1058 : 	{
; 1059 : 		Count++;
; 1060 : 		pStr1++;

  00020	8d 49 01	 lea	 ecx, DWORD PTR [ecx+1]
  00023	43		 inc	 ebx
  00024	38 01		 cmp	 BYTE PTR [ecx], al
  00026	75 f8		 jne	 SHORT $LL14@ContainNoC
$LN15@ContainNoC:

; 1216 : 
; 1217 : 	while( pszStr[ idxStr])

  00028	8b 4d 08	 mov	 ecx, DWORD PTR _pszStr$[ebp]
  0002b	38 01		 cmp	 BYTE PTR [ecx], al
  0002d	74 6b		 je	 SHORT $LN3@ContainNoC
  0002f	90		 npad	 1
$LL2@ContainNoC:

; 1218 : 	{
; 1219 : 		C1 = pszStr[idxStr];

  00030	8a 14 08	 mov	 dl, BYTE PTR [eax+ecx]
  00033	0f be ca	 movsx	 ecx, dl
  00036	89 4d f8	 mov	 DWORD PTR _C1$1$[ebp], ecx

; 1220 : 		C2 = pszKey[idxKey];

  00039	8b 4d 0c	 mov	 ecx, DWORD PTR _pszKey$[ebp]
  0003c	0f be 34 0f	 movsx	 esi, BYTE PTR [edi+ecx]
  00040	89 75 f4	 mov	 DWORD PTR _C2$1$[ebp], esi

; 1221 : 
; 1222 : 		if( C1 != C2)

  00043	8b 75 fc	 mov	 esi, DWORD PTR _StartIdx$1$[ebp]
  00046	3a 14 0f	 cmp	 dl, BYTE PTR [edi+ecx]
  00049	74 34		 je	 SHORT $LN28@ContainNoC

; 1223 : 		{		
; 1224 : 			//	´ëĽŇą®ŔÚ ±¸şĐ ľřľÚ.
; 1225 : 			if((C1 >= 'A') && (C1 <= 'Z'))		
; 1226 : 				C1 += 'a' - 'A';
; 1227 : 
; 1228 : 			if((C2 >= 'A') && (C2 <= 'Z'))

  0004b	8b 55 f4	 mov	 edx, DWORD PTR _C2$1$[ebp]
  0004e	8d 4a bf	 lea	 ecx, DWORD PTR [edx-65]

; 1229 : 				C2 += 'a' - 'A';
; 1230 : 		}
; 1231 : 
; 1232 : 		if( C1 == C2)

  00051	83 f9 19	 cmp	 ecx, 25			; 00000019H
  00054	8d 72 20	 lea	 esi, DWORD PTR [edx+32]
  00057	0f 47 f2	 cmova	 esi, edx
  0005a	8b 55 f8	 mov	 edx, DWORD PTR _C1$1$[ebp]
  0005d	8d 4a bf	 lea	 ecx, DWORD PTR [edx-65]
  00060	83 c2 20	 add	 edx, 32			; 00000020H
  00063	83 f9 19	 cmp	 ecx, 25			; 00000019H
  00066	0f 47 55 f8	 cmova	 edx, DWORD PTR _C1$1$[ebp]
  0006a	3b d6		 cmp	 edx, esi
  0006c	74 0e		 je	 SHORT $LN29@ContainNoC

; 1241 : 		}
; 1242 : 		else
; 1243 : 		{
; 1244 : 			if( idxKey != 0 )
; 1245 : 				idxStr --;
; 1246 : 
; 1247 : 			idxKey = 0;

  0006e	85 ff		 test	 edi, edi
  00070	8d 48 ff	 lea	 ecx, DWORD PTR [eax-1]
  00073	0f 44 c8	 cmove	 ecx, eax
  00076	33 ff		 xor	 edi, edi
  00078	8b c1		 mov	 eax, ecx
  0007a	eb 14		 jmp	 SHORT $LN8@ContainNoC
$LN29@ContainNoC:

; 1229 : 				C2 += 'a' - 'A';
; 1230 : 		}
; 1231 : 
; 1232 : 		if( C1 == C2)

  0007c	8b 75 fc	 mov	 esi, DWORD PTR _StartIdx$1$[ebp]
$LN28@ContainNoC:

; 1233 : 		{
; 1234 : 			if( idxKey == 0)
; 1235 : 				StartIdx = idxStr;
; 1236 : 
; 1237 : 			idxKey++;

  0007f	85 ff		 test	 edi, edi
  00081	8b c8		 mov	 ecx, eax
  00083	0f 45 ce	 cmovne	 ecx, esi
  00086	47		 inc	 edi
  00087	8b f1		 mov	 esi, ecx
  00089	89 75 fc	 mov	 DWORD PTR _StartIdx$1$[ebp], esi

; 1238 : 
; 1239 : 			if( idxKey >= Len)

  0008c	3b fb		 cmp	 edi, ebx
  0008e	7d 14		 jge	 SHORT $LN19@ContainNoC
$LN8@ContainNoC:

; 1216 : 
; 1217 : 	while( pszStr[ idxStr])

  00090	8b 4d 08	 mov	 ecx, DWORD PTR _pszStr$[ebp]

; 1248 : 		}
; 1249 : 
; 1250 : 		idxStr++;

  00093	40		 inc	 eax
  00094	80 3c 08 00	 cmp	 BYTE PTR [eax+ecx], 0
  00098	75 96		 jne	 SHORT $LL2@ContainNoC
$LN3@ContainNoC:
  0009a	5f		 pop	 edi

; 1251 : 	}
; 1252 : 
; 1253 : 	return -1;
; 1254 : }

  0009b	5e		 pop	 esi
  0009c	83 c8 ff	 or	 eax, -1
  0009f	5b		 pop	 ebx
  000a0	8b e5		 mov	 esp, ebp
  000a2	5d		 pop	 ebp
  000a3	c3		 ret	 0
$LN19@ContainNoC:
  000a4	5f		 pop	 edi

; 1240 : 				return StartIdx;

  000a5	8b c6		 mov	 eax, esi

; 1251 : 	}
; 1252 : 
; 1253 : 	return -1;
; 1254 : }

  000a7	5e		 pop	 esi
  000a8	5b		 pop	 ebx
  000a9	8b e5		 mov	 esp, ebp
  000ab	5d		 pop	 ebp
  000ac	c3		 ret	 0
?ContainNoCase@i3String@@YAHPBD0@Z ENDP			; i3String::ContainNoCase
_TEXT	ENDS
; Function compile flags: /Ogtp
; File E:\Proyectos\JuegosOnlineproyectos\PB\pbblow\Piercing Blow Remake\i3Server\src\i3Base\i3String.cpp
;	COMDAT ?ContainNative@i3String@@YAHPBD@Z
_TEXT	SEGMENT
_pStr$ = 8						; size = 4
?ContainNative@i3String@@YAHPBD@Z PROC			; i3String::ContainNative, COMDAT

; 1257 : {

  00000	55		 push	 ebp
  00001	8b ec		 mov	 ebp, esp

; 1258 : 	INT32 Idx = 0;
; 1259 : 
; 1260 : 	while( *pStr)

  00003	8b 4d 08	 mov	 ecx, DWORD PTR _pStr$[ebp]
  00006	33 d2		 xor	 edx, edx
  00008	8a 01		 mov	 al, BYTE PTR [ecx]
  0000a	84 c0		 test	 al, al
  0000c	74 0b		 je	 SHORT $LN3@ContainNat
$LN12@ContainNat:

; 1261 : 	{
; 1262 : 		if( *pStr & 0x80)

  0000e	78 0e		 js	 SHORT $LN7@ContainNat

; 1265 : 		}
; 1266 : 
; 1267 : 		Idx++;
; 1268 : 		pStr++;

  00010	8a 41 01	 mov	 al, BYTE PTR [ecx+1]
  00013	41		 inc	 ecx
  00014	42		 inc	 edx
  00015	84 c0		 test	 al, al
  00017	75 f5		 jne	 SHORT $LN12@ContainNat
$LN3@ContainNat:

; 1269 : 	}
; 1270 : 
; 1271 : 	return -1;

  00019	83 c8 ff	 or	 eax, -1

; 1272 : }

  0001c	5d		 pop	 ebp
  0001d	c3		 ret	 0
$LN7@ContainNat:

; 1263 : 		{
; 1264 : 			return Idx;

  0001e	8b c2		 mov	 eax, edx

; 1272 : }

  00020	5d		 pop	 ebp
  00021	c3		 ret	 0
?ContainNative@i3String@@YAHPBD@Z ENDP			; i3String::ContainNative
_TEXT	ENDS
; Function compile flags: /Ogtp
; File E:\Proyectos\JuegosOnlineproyectos\PB\pbblow\Piercing Blow Remake\i3Server\src\i3Base\i3String.cpp
;	COMDAT ?ContainW@i3String@@YAHPBG0@Z
_TEXT	SEGMENT
_pStr1$ = 8						; size = 4
_pStr2$ = 12						; size = 4
?ContainW@i3String@@YAHPBG0@Z PROC			; i3String::ContainW, COMDAT

; 1275 : {

  00000	55		 push	 ebp
  00001	8b ec		 mov	 ebp, esp

; 1276 : 	INT32 Len;
; 1277 : 	INT32 Idx = 0, StartIdx = 0;
; 1278 : 
; 1279 : 	Len = Length( pStr2);

  00003	8b 55 0c	 mov	 edx, DWORD PTR _pStr2$[ebp]
  00006	33 c0		 xor	 eax, eax
  00008	53		 push	 ebx
  00009	56		 push	 esi
  0000a	33 db		 xor	 ebx, ebx

; 1068 : 	INT32 Count = 0;

  0000c	33 f6		 xor	 esi, esi

; 1276 : 	INT32 Len;
; 1277 : 	INT32 Idx = 0, StartIdx = 0;
; 1278 : 
; 1279 : 	Len = Length( pStr2);

  0000e	8b ca		 mov	 ecx, edx
  00010	57		 push	 edi

; 1070 : 	while( *pStr )

  00011	66 39 02	 cmp	 WORD PTR [edx], ax
  00014	74 09		 je	 SHORT $LN12@ContainW
$LL11@ContainW:

; 1071 : 	{
; 1072 : 		Count++;
; 1073 : 		pStr++;

  00016	8d 49 02	 lea	 ecx, DWORD PTR [ecx+2]
  00019	46		 inc	 esi
  0001a	66 39 01	 cmp	 WORD PTR [ecx], ax
  0001d	75 f7		 jne	 SHORT $LL11@ContainW
$LN12@ContainW:

; 1280 : 
; 1281 : 	while( *pStr1)

  0001f	8b 55 08	 mov	 edx, DWORD PTR _pStr1$[ebp]
  00022	0f b7 0a	 movzx	 ecx, WORD PTR [edx]
  00025	66 85 c9	 test	 cx, cx
  00028	74 3e		 je	 SHORT $LN25@ContainW
  0002a	8b f9		 mov	 edi, ecx
  0002c	8d 64 24 00	 npad	 4
$LL2@ContainW:

; 1282 : 	{
; 1283 : 		if( *pStr1 == pStr2[Idx])

  00030	8b 4d 0c	 mov	 ecx, DWORD PTR _pStr2$[ebp]
  00033	66 3b 3c 41	 cmp	 di, WORD PTR [ecx+eax*2]
  00037	75 15		 jne	 SHORT $LN4@ContainW

; 1284 : 		{
; 1285 : 			if( Idx == 0)
; 1286 : 				StartIdx = Idx;
; 1287 : 
; 1288 : 			Idx++;

  00039	85 c0		 test	 eax, eax
  0003b	8b c8		 mov	 ecx, eax
  0003d	0f 45 cb	 cmovne	 ecx, ebx
  00040	40		 inc	 eax
  00041	8b d9		 mov	 ebx, ecx

; 1289 : 
; 1290 : 			if( Idx >= Len)

  00043	3b c6		 cmp	 eax, esi
  00045	7c 13		 jl	 SHORT $LN5@ContainW

; 1303 : 	}
; 1304 : 
; 1305 : 	return -1;
; 1306 : }

  00047	5f		 pop	 edi
  00048	5e		 pop	 esi
  00049	8b c3		 mov	 eax, ebx
  0004b	5b		 pop	 ebx
  0004c	5d		 pop	 ebp
  0004d	c3		 ret	 0
$LN4@ContainW:

; 1291 : 				return StartIdx;
; 1292 : 		}
; 1293 : 		else
; 1294 : 		{
; 1295 : 			if( Idx != 0 )
; 1296 : 			{
; 1297 : 				pStr1--;
; 1298 : 			}
; 1299 : 			Idx = 0;

  0004e	85 c0		 test	 eax, eax
  00050	8d 4a fe	 lea	 ecx, DWORD PTR [edx-2]
  00053	0f 44 ca	 cmove	 ecx, edx
  00056	33 c0		 xor	 eax, eax
  00058	8b d1		 mov	 edx, ecx
$LN5@ContainW:

; 1300 : 		}
; 1301 : 
; 1302 : 		pStr1++;

  0005a	0f b7 4a 02	 movzx	 ecx, WORD PTR [edx+2]
  0005e	83 c2 02	 add	 edx, 2
  00061	8b f9		 mov	 edi, ecx
  00063	66 85 c9	 test	 cx, cx
  00066	75 c8		 jne	 SHORT $LL2@ContainW
$LN25@ContainW:
  00068	5f		 pop	 edi

; 1303 : 	}
; 1304 : 
; 1305 : 	return -1;
; 1306 : }

  00069	5e		 pop	 esi
  0006a	83 c8 ff	 or	 eax, -1
  0006d	5b		 pop	 ebx
  0006e	5d		 pop	 ebp
  0006f	c3		 ret	 0
?ContainW@i3String@@YAHPBG0@Z ENDP			; i3String::ContainW
_TEXT	ENDS
; Function compile flags: /Ogtp
; File E:\Proyectos\JuegosOnlineproyectos\PB\pbblow\Piercing Blow Remake\i3Server\src\i3Base\i3String.cpp
;	COMDAT ?ContainNew@i3String@@YAHPBD0@Z
_TEXT	SEGMENT
_pStr1$ = 8						; size = 4
_pStr2$ = 12						; size = 4
?ContainNew@i3String@@YAHPBD0@Z PROC			; i3String::ContainNew, COMDAT

; 1175 : {

  00000	55		 push	 ebp
  00001	8b ec		 mov	 ebp, esp
  00003	53		 push	 ebx
  00004	56		 push	 esi
  00005	57		 push	 edi

; 1176 : 	INT32 i = 0;	// index of str1
; 1177 : 	INT32 j = 0;	// index of str2
; 1178 : 	
; 1179 : 	INT32 nFirstCharIdx = 0;
; 1180 : 	INT32 nLen = Length( pStr2);

  00006	8b 7d 0c	 mov	 edi, DWORD PTR _pStr2$[ebp]
  00009	33 c0		 xor	 eax, eax
  0000b	33 d2		 xor	 edx, edx
  0000d	33 db		 xor	 ebx, ebx

; 1055 : 	INT32 Count = 0;

  0000f	33 f6		 xor	 esi, esi

; 1176 : 	INT32 i = 0;	// index of str1
; 1177 : 	INT32 j = 0;	// index of str2
; 1178 : 	
; 1179 : 	INT32 nFirstCharIdx = 0;
; 1180 : 	INT32 nLen = Length( pStr2);

  00011	8b cf		 mov	 ecx, edi

; 1057 : 	while( *pStr1)

  00013	38 07		 cmp	 BYTE PTR [edi], al
  00015	74 08		 je	 SHORT $LN12@ContainNew
$LL11@ContainNew:

; 1058 : 	{
; 1059 : 		Count++;
; 1060 : 		pStr1++;

  00017	8d 49 01	 lea	 ecx, DWORD PTR [ecx+1]
  0001a	46		 inc	 esi
  0001b	38 01		 cmp	 BYTE PTR [ecx], al
  0001d	75 f8		 jne	 SHORT $LL11@ContainNew
$LN12@ContainNew:

; 1181 : 
; 1182 : 	while( pStr1[i] != 0)

  0001f	8b 7d 08	 mov	 edi, DWORD PTR _pStr1$[ebp]
  00022	38 07		 cmp	 BYTE PTR [edi], al
  00024	74 30		 je	 SHORT $LN25@ContainNew
$LL2@ContainNew:

; 1183 : 	{
; 1184 : 		if( pStr1[i] == pStr2[j])

  00026	8a 0c 3a	 mov	 cl, BYTE PTR [edx+edi]
  00029	8b 7d 0c	 mov	 edi, DWORD PTR _pStr2$[ebp]
  0002c	3a 0c 38	 cmp	 cl, BYTE PTR [eax+edi]
  0002f	8b 7d 08	 mov	 edi, DWORD PTR _pStr1$[ebp]
  00032	75 13		 jne	 SHORT $LN4@ContainNew

; 1185 : 		{
; 1186 : 			if( j == 0)
; 1187 : 				nFirstCharIdx = i;
; 1188 : 			
; 1189 : 			if( j == nLen-1)

  00034	85 c0		 test	 eax, eax
  00036	8b ca		 mov	 ecx, edx
  00038	0f 45 cb	 cmovne	 ecx, ebx
  0003b	8b d9		 mov	 ebx, ecx
  0003d	8d 4e ff	 lea	 ecx, DWORD PTR [esi-1]
  00040	3b c1		 cmp	 eax, ecx
  00042	74 1a		 je	 SHORT $LN16@ContainNew

; 1190 : 				return nFirstCharIdx;
; 1191 : 
; 1192 : 			j++;

  00044	40		 inc	 eax

; 1193 : 		}

  00045	eb 08		 jmp	 SHORT $LN8@ContainNew
$LN4@ContainNew:

; 1194 : 		else
; 1195 : 		{
; 1196 : 			if( j != 0)

  00047	85 c0		 test	 eax, eax
  00049	74 04		 je	 SHORT $LN8@ContainNew

; 1197 : 			{
; 1198 : 				i = nFirstCharIdx;

  0004b	8b d3		 mov	 edx, ebx

; 1199 : 				j = 0;

  0004d	33 c0		 xor	 eax, eax
$LN8@ContainNew:

; 1200 : 			}
; 1201 : 		}
; 1202 : 
; 1203 : 		i++;

  0004f	42		 inc	 edx
  00050	80 3c 3a 00	 cmp	 BYTE PTR [edx+edi], 0
  00054	75 d0		 jne	 SHORT $LL2@ContainNew
$LN25@ContainNew:
  00056	5f		 pop	 edi

; 1204 : 	}
; 1205 : 
; 1206 : 	return -1;
; 1207 : }

  00057	5e		 pop	 esi
  00058	83 c8 ff	 or	 eax, -1
  0005b	5b		 pop	 ebx
  0005c	5d		 pop	 ebp
  0005d	c3		 ret	 0
$LN16@ContainNew:
  0005e	5f		 pop	 edi
  0005f	5e		 pop	 esi
  00060	8b c3		 mov	 eax, ebx
  00062	5b		 pop	 ebx
  00063	5d		 pop	 ebp
  00064	c3		 ret	 0
?ContainNew@i3String@@YAHPBD0@Z ENDP			; i3String::ContainNew
_TEXT	ENDS
; Function compile flags: /Ogtp
; File E:\Proyectos\JuegosOnlineproyectos\PB\pbblow\Piercing Blow Remake\i3Server\src\i3Base\i3String.cpp
;	COMDAT ?Contain@i3String@@YAHPBD0@Z
_TEXT	SEGMENT
_pszStr$ = 8						; size = 4
_pszKey$ = 12						; size = 4
?Contain@i3String@@YAHPBD0@Z PROC			; i3String::Contain, COMDAT

; 1140 : {

  00000	55		 push	 ebp
  00001	8b ec		 mov	 ebp, esp
  00003	53		 push	 ebx
  00004	56		 push	 esi
  00005	57		 push	 edi

; 1141 : 	INT32 Len;
; 1142 : 	INT32 idxKey = 0, idxStr = 0, StartIdx = 0;
; 1143 : 
; 1144 : 	Len = Length( pszKey);

  00006	8b 7d 0c	 mov	 edi, DWORD PTR _pszKey$[ebp]
  00009	33 c0		 xor	 eax, eax
  0000b	33 d2		 xor	 edx, edx
  0000d	33 db		 xor	 ebx, ebx

; 1055 : 	INT32 Count = 0;

  0000f	33 f6		 xor	 esi, esi

; 1141 : 	INT32 Len;
; 1142 : 	INT32 idxKey = 0, idxStr = 0, StartIdx = 0;
; 1143 : 
; 1144 : 	Len = Length( pszKey);

  00011	8b cf		 mov	 ecx, edi

; 1057 : 	while( *pStr1)

  00013	38 07		 cmp	 BYTE PTR [edi], al
  00015	74 08		 je	 SHORT $LN12@Contain
$LL11@Contain:

; 1058 : 	{
; 1059 : 		Count++;
; 1060 : 		pStr1++;

  00017	8d 49 01	 lea	 ecx, DWORD PTR [ecx+1]
  0001a	46		 inc	 esi
  0001b	38 01		 cmp	 BYTE PTR [ecx], al
  0001d	75 f8		 jne	 SHORT $LL11@Contain
$LN12@Contain:

; 1145 : 
; 1146 : 	while( pszStr[ idxStr])

  0001f	8b 7d 08	 mov	 edi, DWORD PTR _pszStr$[ebp]
  00022	38 07		 cmp	 BYTE PTR [edi], al
  00024	74 36		 je	 SHORT $LN25@Contain
$LL2@Contain:

; 1147 : 	{
; 1148 : 		if( pszStr[idxStr] == pszKey[idxKey])

  00026	8a 0c 38	 mov	 cl, BYTE PTR [eax+edi]
  00029	8b 7d 0c	 mov	 edi, DWORD PTR _pszKey$[ebp]
  0002c	3a 0c 3a	 cmp	 cl, BYTE PTR [edx+edi]
  0002f	8b 7d 08	 mov	 edi, DWORD PTR _pszStr$[ebp]
  00032	75 15		 jne	 SHORT $LN4@Contain

; 1149 : 		{
; 1150 : 			if( idxKey == 0)
; 1151 : 				StartIdx = idxStr;
; 1152 : 
; 1153 : 			idxKey++;

  00034	85 d2		 test	 edx, edx
  00036	8b c8		 mov	 ecx, eax
  00038	0f 45 cb	 cmovne	 ecx, ebx
  0003b	42		 inc	 edx
  0003c	8b d9		 mov	 ebx, ecx

; 1154 : 
; 1155 : 			if( idxKey >= Len)

  0003e	3b d6		 cmp	 edx, esi
  00040	7c 13		 jl	 SHORT $LN5@Contain

; 1167 : 	}
; 1168 : 
; 1169 : 	return -1;
; 1170 : }

  00042	5f		 pop	 edi
  00043	5e		 pop	 esi
  00044	8b c3		 mov	 eax, ebx
  00046	5b		 pop	 ebx
  00047	5d		 pop	 ebp
  00048	c3		 ret	 0
$LN4@Contain:

; 1156 : 				return StartIdx;
; 1157 : 		}
; 1158 : 		else
; 1159 : 		{
; 1160 : 			if( idxKey != 0 )
; 1161 : 				idxStr--;
; 1162 : 
; 1163 : 			idxKey = 0;

  00049	85 d2		 test	 edx, edx
  0004b	8d 48 ff	 lea	 ecx, DWORD PTR [eax-1]
  0004e	0f 44 c8	 cmove	 ecx, eax
  00051	33 d2		 xor	 edx, edx
  00053	8b c1		 mov	 eax, ecx
$LN5@Contain:

; 1164 : 		}
; 1165 : 
; 1166 : 		idxStr++;

  00055	40		 inc	 eax
  00056	80 3c 38 00	 cmp	 BYTE PTR [eax+edi], 0
  0005a	75 ca		 jne	 SHORT $LL2@Contain
$LN25@Contain:
  0005c	5f		 pop	 edi

; 1167 : 	}
; 1168 : 
; 1169 : 	return -1;
; 1170 : }

  0005d	5e		 pop	 esi
  0005e	83 c8 ff	 or	 eax, -1
  00061	5b		 pop	 ebx
  00062	5d		 pop	 ebp
  00063	c3		 ret	 0
?Contain@i3String@@YAHPBD0@Z ENDP			; i3String::Contain
_TEXT	ENDS
; Function compile flags: /Ogtp
; File E:\Proyectos\JuegosOnlineproyectos\PB\pbblow\Piercing Blow Remake\i3Server\src\i3Base\i3String.cpp
;	COMDAT ?ContainCharRev@i3String@@YAHPBDD@Z
_TEXT	SEGMENT
_pStr$ = 8						; size = 4
_ch$ = 12						; size = 1
?ContainCharRev@i3String@@YAHPBDD@Z PROC		; i3String::ContainCharRev, COMDAT

; 1123 : {

  00000	55		 push	 ebp
  00001	8b ec		 mov	 ebp, esp
  00003	8b 55 08	 mov	 edx, DWORD PTR _pStr$[ebp]

; 1055 : 	INT32 Count = 0;

  00006	33 c9		 xor	 ecx, ecx

; 1124 : 	INT32 nLen = Length( pStr );

  00008	8b c2		 mov	 eax, edx

; 1057 : 	while( *pStr1)

  0000a	38 0a		 cmp	 BYTE PTR [edx], cl
  0000c	74 23		 je	 SHORT $LN3@ContainCha
  0000e	8b ff		 npad	 2
$LL9@ContainCha:

; 1058 : 	{
; 1059 : 		Count++;
; 1060 : 		pStr1++;

  00010	8d 40 01	 lea	 eax, DWORD PTR [eax+1]
  00013	41		 inc	 ecx
  00014	80 38 00	 cmp	 BYTE PTR [eax], 0
  00017	75 f7		 jne	 SHORT $LL9@ContainCha

; 1125 : 	if( nLen <= 0 ) return -1;

  00019	85 c9		 test	 ecx, ecx
  0001b	7e 14		 jle	 SHORT $LN3@ContainCha

; 1126 : 
; 1127 : 	INT32 i;
; 1128 : 	for( i = nLen - 1; i >= 0; i-- )

  0001d	8d 41 ff	 lea	 eax, DWORD PTR [ecx-1]
  00020	85 c0		 test	 eax, eax
  00022	78 0d		 js	 SHORT $LN3@ContainCha
  00024	8a 4d 0c	 mov	 cl, BYTE PTR _ch$[ebp]
$LL4@ContainCha:

; 1129 : 	{
; 1130 : 		if( pStr[i] == ch )

  00027	38 0c 02	 cmp	 BYTE PTR [edx+eax], cl
  0002a	74 08		 je	 SHORT $LN1@ContainCha

; 1126 : 
; 1127 : 	INT32 i;
; 1128 : 	for( i = nLen - 1; i >= 0; i-- )

  0002c	83 e8 01	 sub	 eax, 1
  0002f	79 f6		 jns	 SHORT $LL4@ContainCha
$LN3@ContainCha:

; 1131 : 		{
; 1132 : 			return i;
; 1133 : 		}
; 1134 : 	}
; 1135 : 
; 1136 : 	return -1;

  00031	83 c8 ff	 or	 eax, -1
$LN1@ContainCha:

; 1137 : }

  00034	5d		 pop	 ebp
  00035	c3		 ret	 0
?ContainCharRev@i3String@@YAHPBDD@Z ENDP		; i3String::ContainCharRev
_TEXT	ENDS
; Function compile flags: /Ogtp
; File E:\Proyectos\JuegosOnlineproyectos\PB\pbblow\Piercing Blow Remake\i3Server\src\i3Base\i3String.cpp
;	COMDAT ?ContainChar@i3String@@YAHPBGG@Z
_TEXT	SEGMENT
_pStr$ = 8						; size = 4
_ch$ = 12						; size = 2
?ContainChar@i3String@@YAHPBGG@Z PROC			; i3String::ContainChar, COMDAT

; 1103 : {

  00000	55		 push	 ebp
  00001	8b ec		 mov	 ebp, esp

; 1104 : 	INT32 idx = 0;
; 1105 : 
; 1106 : 	const wchar_t *pCur = pStr;
; 1107 : 
; 1108 : 	for( pCur = pStr, idx = 0; *pCur != 0; pCur++, idx++ )

  00003	8b 4d 08	 mov	 ecx, DWORD PTR _pStr$[ebp]
  00006	33 d2		 xor	 edx, edx
  00008	56		 push	 esi
  00009	57		 push	 edi
  0000a	0f b7 01	 movzx	 eax, WORD PTR [ecx]
  0000d	66 85 c0	 test	 ax, ax
  00010	74 1a		 je	 SHORT $LN3@ContainCha
  00012	66 8b 7d 0c	 mov	 di, WORD PTR _ch$[ebp]
  00016	8b f0		 mov	 esi, eax
$LL4@ContainCha:

; 1109 : 	{
; 1110 : 		if( *pCur == ch )

  00018	66 3b f7	 cmp	 si, di
  0001b	74 16		 je	 SHORT $LN8@ContainCha

; 1104 : 	INT32 idx = 0;
; 1105 : 
; 1106 : 	const wchar_t *pCur = pStr;
; 1107 : 
; 1108 : 	for( pCur = pStr, idx = 0; *pCur != 0; pCur++, idx++ )

  0001d	0f b7 41 02	 movzx	 eax, WORD PTR [ecx+2]
  00021	83 c1 02	 add	 ecx, 2
  00024	42		 inc	 edx
  00025	8b f0		 mov	 esi, eax
  00027	66 85 c0	 test	 ax, ax
  0002a	75 ec		 jne	 SHORT $LL4@ContainCha
$LN3@ContainCha:
  0002c	5f		 pop	 edi

; 1113 : 		}
; 1114 : 	}
; 1115 : 
; 1116 : 	return -1;

  0002d	83 c8 ff	 or	 eax, -1

; 1117 : }

  00030	5e		 pop	 esi
  00031	5d		 pop	 ebp
  00032	c3		 ret	 0
$LN8@ContainCha:
  00033	5f		 pop	 edi

; 1111 : 		{
; 1112 : 			return idx;

  00034	8b c2		 mov	 eax, edx

; 1117 : }

  00036	5e		 pop	 esi
  00037	5d		 pop	 ebp
  00038	c3		 ret	 0
?ContainChar@i3String@@YAHPBGG@Z ENDP			; i3String::ContainChar
_TEXT	ENDS
; Function compile flags: /Ogtp
; File E:\Proyectos\JuegosOnlineproyectos\PB\pbblow\Piercing Blow Remake\i3Server\src\i3Base\i3String.cpp
;	COMDAT ?ContainChar@i3String@@YAHPBDD@Z
_TEXT	SEGMENT
_pStr$ = 8						; size = 4
_ch$ = 12						; size = 1
?ContainChar@i3String@@YAHPBDD@Z PROC			; i3String::ContainChar, COMDAT

; 1083 : {

  00000	55		 push	 ebp
  00001	8b ec		 mov	 ebp, esp

; 1084 : 	INT32 idx = 0;
; 1085 : 
; 1086 : 	const char *pCur = pStr;
; 1087 : 
; 1088 : 	for( pCur = pStr, idx = 0; *pCur != 0; pCur++, idx++ )

  00003	8b 4d 08	 mov	 ecx, DWORD PTR _pStr$[ebp]
  00006	33 d2		 xor	 edx, edx
  00008	53		 push	 ebx
  00009	8a 01		 mov	 al, BYTE PTR [ecx]
  0000b	84 c0		 test	 al, al
  0000d	74 10		 je	 SHORT $LN3@ContainCha
  0000f	8a 5d 0c	 mov	 bl, BYTE PTR _ch$[ebp]
$LL4@ContainCha:

; 1089 : 	{
; 1090 : 		if( *pCur == ch )

  00012	3a c3		 cmp	 al, bl
  00014	74 0f		 je	 SHORT $LN8@ContainCha

; 1084 : 	INT32 idx = 0;
; 1085 : 
; 1086 : 	const char *pCur = pStr;
; 1087 : 
; 1088 : 	for( pCur = pStr, idx = 0; *pCur != 0; pCur++, idx++ )

  00016	8a 41 01	 mov	 al, BYTE PTR [ecx+1]
  00019	41		 inc	 ecx
  0001a	42		 inc	 edx
  0001b	84 c0		 test	 al, al
  0001d	75 f3		 jne	 SHORT $LL4@ContainCha
$LN3@ContainCha:

; 1093 : 		}
; 1094 : 	}
; 1095 : 
; 1096 : 	return -1;

  0001f	83 c8 ff	 or	 eax, -1
  00022	5b		 pop	 ebx

; 1097 : }

  00023	5d		 pop	 ebp
  00024	c3		 ret	 0
$LN8@ContainCha:

; 1091 : 		{
; 1092 : 			return idx;

  00025	8b c2		 mov	 eax, edx
  00027	5b		 pop	 ebx

; 1097 : }

  00028	5d		 pop	 ebp
  00029	c3		 ret	 0
?ContainChar@i3String@@YAHPBDD@Z ENDP			; i3String::ContainChar
_TEXT	ENDS
; Function compile flags: /Ogtp
; File E:\Proyectos\JuegosOnlineproyectos\PB\pbblow\Piercing Blow Remake\i3Server\src\i3Base\i3String.cpp
;	COMDAT ?Length@i3String@@YAHPBG@Z
_TEXT	SEGMENT
_pStr$ = 8						; size = 4
?Length@i3String@@YAHPBG@Z PROC				; i3String::Length, COMDAT

; 1067 : {

  00000	55		 push	 ebp
  00001	8b ec		 mov	 ebp, esp

; 1068 : 	INT32 Count = 0;
; 1069 : 
; 1070 : 	while( *pStr )

  00003	8b 4d 08	 mov	 ecx, DWORD PTR _pStr$[ebp]
  00006	33 c0		 xor	 eax, eax
  00008	66 39 01	 cmp	 WORD PTR [ecx], ax
  0000b	74 0d		 je	 SHORT $LN3@Length
  0000d	8d 49 00	 npad	 3
$LL2@Length:

; 1071 : 	{
; 1072 : 		Count++;
; 1073 : 		pStr++;

  00010	8d 49 02	 lea	 ecx, DWORD PTR [ecx+2]
  00013	40		 inc	 eax
  00014	66 83 39 00	 cmp	 WORD PTR [ecx], 0
  00018	75 f6		 jne	 SHORT $LL2@Length
$LN3@Length:

; 1074 : 	}
; 1075 : 
; 1076 : 	return Count;
; 1077 : }

  0001a	5d		 pop	 ebp
  0001b	c3		 ret	 0
?Length@i3String@@YAHPBG@Z ENDP				; i3String::Length
_TEXT	ENDS
; Function compile flags: /Ogtp
; File E:\Proyectos\JuegosOnlineproyectos\PB\pbblow\Piercing Blow Remake\i3Server\src\i3Base\i3String.cpp
;	COMDAT ?Length@i3String@@YAHPBD@Z
_TEXT	SEGMENT
_pStr1$ = 8						; size = 4
?Length@i3String@@YAHPBD@Z PROC				; i3String::Length, COMDAT

; 1054 : {

  00000	55		 push	 ebp
  00001	8b ec		 mov	 ebp, esp

; 1055 : 	INT32 Count = 0;
; 1056 : 
; 1057 : 	while( *pStr1)

  00003	8b 4d 08	 mov	 ecx, DWORD PTR _pStr1$[ebp]
  00006	33 c0		 xor	 eax, eax
  00008	38 01		 cmp	 BYTE PTR [ecx], al
  0000a	74 0d		 je	 SHORT $LN3@Length
  0000c	8d 64 24 00	 npad	 4
$LL2@Length:

; 1058 : 	{
; 1059 : 		Count++;
; 1060 : 		pStr1++;

  00010	8d 49 01	 lea	 ecx, DWORD PTR [ecx+1]
  00013	40		 inc	 eax
  00014	80 39 00	 cmp	 BYTE PTR [ecx], 0
  00017	75 f7		 jne	 SHORT $LL2@Length
$LN3@Length:

; 1061 : 	}
; 1062 : 
; 1063 : 	return Count;
; 1064 : }

  00019	5d		 pop	 ebp
  0001a	c3		 ret	 0
?Length@i3String@@YAHPBD@Z ENDP				; i3String::Length
_TEXT	ENDS
; Function compile flags: /Ogtp
; File E:\Proyectos\JuegosOnlineproyectos\PB\pbblow\Piercing Blow Remake\i3Server\src\i3Base\i3String.cpp
;	COMDAT ?UTF8toUCS2@i3String@@YAHPAGPBDH@Z
_TEXT	SEGMENT
tv315 = -4						; size = 4
_pDest$ = 8						; size = 4
__pSrc$ = 12						; size = 4
_nDestBufSize$ = 16					; size = 4
?UTF8toUCS2@i3String@@YAHPAGPBDH@Z PROC			; i3String::UTF8toUCS2, COMDAT

; 1665 : {

  00000	55		 push	 ebp
  00001	8b ec		 mov	 ebp, esp
  00003	51		 push	 ecx

; 1666 : 	unsigned char *pSrc = ( unsigned char * )_pSrc;
; 1667 : 	unsigned char c;
; 1668 : 	WCHAR16 unicode;
; 1669 : 	int count = 0;
; 1670 : 	int i = 0;
; 1671 : 	//int len = Length( pSrc );
; 1672 : 	int len = (int)strlen( _pSrc );

  00004	8b 55 0c	 mov	 edx, DWORD PTR __pSrc$[ebp]
  00007	56		 push	 esi
  00008	8b f2		 mov	 esi, edx
  0000a	57		 push	 edi
  0000b	33 ff		 xor	 edi, edi
  0000d	8d 4e 01	 lea	 ecx, DWORD PTR [esi+1]
$LL18@UTF8toUCS2:
  00010	8a 06		 mov	 al, BYTE PTR [esi]
  00012	46		 inc	 esi
  00013	84 c0		 test	 al, al
  00015	75 f9		 jne	 SHORT $LL18@UTF8toUCS2
  00017	2b f1		 sub	 esi, ecx

; 1673 : 
; 1674 : 	for( i = 0; i < len; )

  00019	33 c0		 xor	 eax, eax
  0001b	85 f6		 test	 esi, esi
  0001d	0f 8e bd 00 00
	00		 jle	 $LN3@UTF8toUCS2
  00023	53		 push	 ebx
$LL4@UTF8toUCS2:

; 1675 : 	{
; 1676 : 		if( ( count + 1 ) >= nDestBufSize )

  00024	8d 4f 01	 lea	 ecx, DWORD PTR [edi+1]
  00027	89 4d fc	 mov	 DWORD PTR tv315[ebp], ecx
  0002a	3b 4d 10	 cmp	 ecx, DWORD PTR _nDestBufSize$[ebp]
  0002d	0f 8d 89 00 00
	00		 jge	 $LN14@UTF8toUCS2

; 1679 : 			//I3TRACE( "[%s] : Need more buffer size.\n", __FUNCTION__ );
; 1680 : 			I3ASSERT_0;
; 1681 : 			break;
; 1682 : 		}
; 1683 : 
; 1684 : 		c = pSrc[i] & 0xe0;

  00033	8a 1c 10	 mov	 bl, BYTE PTR [eax+edx]
  00036	8a cb		 mov	 cl, bl
  00038	80 e1 e0	 and	 cl, 224			; 000000e0H

; 1685 : 
; 1686 : 		if( c < 0x80 )

  0003b	80 f9 80	 cmp	 cl, 128			; 00000080H
  0003e	73 05		 jae	 SHORT $LN6@UTF8toUCS2

; 1687 : 		{
; 1688 : 			unicode = WCHAR16( pSrc[i] );

  00040	0f b6 cb	 movzx	 ecx, bl

; 1689 : 			i++;
; 1690 : 		}

  00043	eb 52		 jmp	 SHORT $LN11@UTF8toUCS2
$LN6@UTF8toUCS2:

; 1691 : 		else if ( c < 0xe0 )

  00045	40		 inc	 eax
  00046	80 f9 e0	 cmp	 cl, 224			; 000000e0H
  00049	73 1b		 jae	 SHORT $LN8@UTF8toUCS2

; 1692 : 		{
; 1693 : 			unicode =	WCHAR16( pSrc[i] & 0x1f );
; 1694 : 			i++;
; 1695 : 			unicode =	unicode << 6;
; 1696 : 			unicode |=	WCHAR16( pSrc[i] & 0x3f );

  0004b	8a 0c 10	 mov	 cl, BYTE PTR [eax+edx]
  0004e	80 e3 1f	 and	 bl, 31			; 0000001fH
  00051	80 e1 3f	 and	 cl, 63			; 0000003fH
  00054	0f b6 d1	 movzx	 edx, cl
  00057	0f b6 cb	 movzx	 ecx, bl
  0005a	66 c1 e1 06	 shl	 cx, 6
  0005e	66 0b d1	 or	 dx, cx
  00061	0f b7 ca	 movzx	 ecx, dx

; 1697 : 			i++;
; 1698 : 		}

  00064	eb 2e		 jmp	 SHORT $LN25@UTF8toUCS2
$LN8@UTF8toUCS2:

; 1699 : 		else if ( c < 0xf0 )
; 1700 : 		{
; 1701 : 			unicode =	WCHAR16( pSrc[i] & 0x0f );
; 1702 : 			i++;
; 1703 : 			unicode =	unicode << 6;
; 1704 : 			unicode |=	WCHAR16( pSrc[i] & 0x3f );

  00066	0f b6 0c 10	 movzx	 ecx, BYTE PTR [eax+edx]

; 1705 : 			i++;

  0006a	40		 inc	 eax
  0006b	80 e1 3f	 and	 cl, 63			; 0000003fH
  0006e	0f b6 d1	 movzx	 edx, cl
  00071	0f b6 cb	 movzx	 ecx, bl
  00074	66 c1 e1 06	 shl	 cx, 6
  00078	66 0b d1	 or	 dx, cx

; 1706 : 			unicode =	unicode << 6;
; 1707 : 			unicode |=	WCHAR16( pSrc[i] & 0x3f );

  0007b	8b 4d 0c	 mov	 ecx, DWORD PTR __pSrc$[ebp]
  0007e	0f b7 d2	 movzx	 edx, dx
  00081	c1 e2 06	 shl	 edx, 6
  00084	0f b6 0c 08	 movzx	 ecx, BYTE PTR [eax+ecx]
  00088	80 e1 3f	 and	 cl, 63			; 0000003fH
  0008b	0f b6 c9	 movzx	 ecx, cl
  0008e	66 0b ca	 or	 cx, dx
  00091	0f b7 c9	 movzx	 ecx, cx
$LN25@UTF8toUCS2:

; 1708 : 			i++;
; 1709 : 		}
; 1710 : 		else
; 1711 : 		{
; 1712 : 			I3WARN("Invalid character.\n");
; 1713 : 			//I3TRACE( "[%s] : Invalid character.\n", __FUNCTION__ );
; 1714 : 			I3ASSERT_0;
; 1715 : 			break;
; 1716 : 		}
; 1717 : 
; 1718 : 		pDest[count] = unicode;

  00094	8b 55 0c	 mov	 edx, DWORD PTR __pSrc$[ebp]
$LN11@UTF8toUCS2:
  00097	8b 5d 08	 mov	 ebx, DWORD PTR _pDest$[ebp]
  0009a	40		 inc	 eax
  0009b	66 89 0c 7b	 mov	 WORD PTR [ebx+edi*2], cx

; 1719 : 		count++;

  0009f	8b 7d fc	 mov	 edi, DWORD PTR tv315[ebp]
  000a2	3b c6		 cmp	 eax, esi
  000a4	0f 8c 7a ff ff
	ff		 jl	 $LL4@UTF8toUCS2

; 1720 : 	}
; 1721 : 
; 1722 : 	pDest[count] = 0x0000;

  000aa	8b 45 08	 mov	 eax, DWORD PTR _pDest$[ebp]
  000ad	33 c9		 xor	 ecx, ecx
  000af	5b		 pop	 ebx
  000b0	66 89 0c 78	 mov	 WORD PTR [eax+edi*2], cx

; 1723 : 
; 1724 : 	return count;

  000b4	8b c7		 mov	 eax, edi
  000b6	5f		 pop	 edi
  000b7	5e		 pop	 esi

; 1725 : }

  000b8	8b e5		 mov	 esp, ebp
  000ba	5d		 pop	 ebp
  000bb	c3		 ret	 0
$LN14@UTF8toUCS2:

; 1677 : 		{
; 1678 : 			I3WARN("Need more buffer size.\n");

  000bc	6a 01		 push	 1
  000be	68 00 00 00 00	 push	 OFFSET ??_C@_0EE@HPFMMEMJ@int?5__cdecl?5i3String?3?3UTF8toUCS@
  000c3	68 8e 06 00 00	 push	 1678			; 0000068eH
  000c8	68 00 00 00 00	 push	 OFFSET ??_C@_0GD@CAEEIHCP@E?3?2Proyectos?2JuegosOnlineproyec@
  000cd	e8 00 00 00 00	 call	 ?SetEnv@i3Error@@YAXPBDH0W4I3LOG_TYPE@@@Z ; i3Error::SetEnv
  000d2	68 00 00 00 00	 push	 OFFSET ??_C@_0BI@PALGGMBM@Need?5more?5buffer?5size?4?6@
  000d7	e8 00 00 00 00	 call	 ?Log@i3Error@@YAXPBDZZ	; i3Error::Log
  000dc	83 c4 14	 add	 esp, 20			; 00000014H
  000df	5b		 pop	 ebx
$LN3@UTF8toUCS2:

; 1720 : 	}
; 1721 : 
; 1722 : 	pDest[count] = 0x0000;

  000e0	8b 45 08	 mov	 eax, DWORD PTR _pDest$[ebp]
  000e3	33 c9		 xor	 ecx, ecx
  000e5	66 89 0c 78	 mov	 WORD PTR [eax+edi*2], cx

; 1723 : 
; 1724 : 	return count;

  000e9	8b c7		 mov	 eax, edi
  000eb	5f		 pop	 edi
  000ec	5e		 pop	 esi

; 1725 : }

  000ed	8b e5		 mov	 esp, ebp
  000ef	5d		 pop	 ebp
  000f0	c3		 ret	 0
?UTF8toUCS2@i3String@@YAHPAGPBDH@Z ENDP			; i3String::UTF8toUCS2
_TEXT	ENDS
; Function compile flags: /Ogtp
; File E:\Proyectos\JuegosOnlineproyectos\PB\pbblow\Piercing Blow Remake\i3Server\src\i3Base\i3String.cpp
;	COMDAT ?UCS2toUTF8@i3String@@YAHPADPBGH@Z
_TEXT	SEGMENT
_Count$1$ = -12						; size = 4
_i$1$ = -8						; size = 4
_bytes$ = -4						; size = 4
_pDest$ = 8						; size = 4
_pSrc$ = 12						; size = 4
_nDestBufSize$ = 16					; size = 4
?UCS2toUTF8@i3String@@YAHPADPBGH@Z PROC			; i3String::UCS2toUTF8, COMDAT

; 1608 : {

  00000	55		 push	 ebp
  00001	8b ec		 mov	 ebp, esp

; 1609 : 	if( pSrc == NULL ) return 0;

  00003	8b 4d 0c	 mov	 ecx, DWORD PTR _pSrc$[ebp]
  00006	83 ec 0c	 sub	 esp, 12			; 0000000cH
  00009	85 c9		 test	 ecx, ecx
  0000b	75 06		 jne	 SHORT $LN8@UCS2toUTF8
  0000d	33 c0		 xor	 eax, eax

; 1657 : }

  0000f	8b e5		 mov	 esp, ebp
  00011	5d		 pop	 ebp
  00012	c3		 ret	 0
$LN8@UCS2toUTF8:
  00013	53		 push	 ebx
  00014	56		 push	 esi
  00015	57		 push	 edi

; 1068 : 	INT32 Count = 0;

  00016	33 ff		 xor	 edi, edi

; 1610 : 
; 1611 : 	int count = (int)( i3String::Length( pSrc ) );

  00018	8b c1		 mov	 eax, ecx

; 1068 : 	INT32 Count = 0;

  0001a	89 7d f4	 mov	 DWORD PTR _Count$1$[ebp], edi

; 1069 : 
; 1070 : 	while( *pStr )

  0001d	66 39 39	 cmp	 WORD PTR [ecx], di
  00020	74 0d		 je	 SHORT $LN17@UCS2toUTF8
$LL16@UCS2toUTF8:

; 1071 : 	{
; 1072 : 		Count++;
; 1073 : 		pStr++;

  00022	8d 40 02	 lea	 eax, DWORD PTR [eax+2]
  00025	47		 inc	 edi
  00026	66 83 38 00	 cmp	 WORD PTR [eax], 0
  0002a	75 f6		 jne	 SHORT $LL16@UCS2toUTF8
  0002c	89 7d f4	 mov	 DWORD PTR _Count$1$[ebp], edi
$LN17@UCS2toUTF8:

; 1612 : 	WCHAR16 unicode;
; 1613 : 	unsigned char bytes[4];
; 1614 : 	int nbytes;
; 1615 : 	int len = 0;
; 1616 : 
; 1617 : 	for( int i = 0; i < count; i++ )

  0002f	33 db		 xor	 ebx, ebx
  00031	33 f6		 xor	 esi, esi
  00033	89 5d f8	 mov	 DWORD PTR _i$1$[ebp], ebx
  00036	85 ff		 test	 edi, edi
  00038	0f 8e b7 00 00
	00		 jle	 $LN3@UCS2toUTF8
  0003e	ba 80 00 00 00	 mov	 edx, 128		; 00000080H
$LL4@UCS2toUTF8:

; 1618 : 	{
; 1619 : 		unicode = pSrc[i];

  00043	0f b7 0c 59	 movzx	 ecx, WORD PTR [ecx+ebx*2]

; 1620 : 		if ( unicode < 0x80 )

  00047	66 3b ca	 cmp	 cx, dx
  0004a	73 07		 jae	 SHORT $LN9@UCS2toUTF8

; 1621 : 		{
; 1622 : 			nbytes = 1;

  0004c	ba 01 00 00 00	 mov	 edx, 1

; 1623 : 			bytes[0] = (unsigned char) unicode;							//  0xxxxxxx
; 1624 : 		}

  00051	eb 3e		 jmp	 SHORT $LN45@UCS2toUTF8
$LN9@UCS2toUTF8:

; 1625 : 		else if ( unicode < 0x0800 )

  00053	8a d9		 mov	 bl, cl
  00055	8b c1		 mov	 eax, ecx
  00057	80 e3 3f	 and	 bl, 63			; 0000003fH
  0005a	c1 e8 06	 shr	 eax, 6
  0005d	ba 00 08 00 00	 mov	 edx, 2048		; 00000800H
  00062	80 cb 80	 or	 bl, 128			; 00000080H
  00065	66 3b ca	 cmp	 cx, dx
  00068	73 11		 jae	 SHORT $LN11@UCS2toUTF8

; 1626 : 		{
; 1627 : 			nbytes = 2;
; 1628 : 			bytes[1] = (unsigned char) ((unicode & 0x3f) | 0x80);		// 10xxxxxx
; 1629 : 			bytes[0] = (unsigned char) ((unicode >> 6) & 0x1f | 0xc0) ;	// 110xxxxx

  0006a	24 1f		 and	 al, 31			; 0000001fH
  0006c	88 5d fd	 mov	 BYTE PTR _bytes$[ebp+1], bl
  0006f	0c c0		 or	 al, 192			; 000000c0H
  00071	ba 02 00 00 00	 mov	 edx, 2
  00076	88 45 fc	 mov	 BYTE PTR _bytes$[ebp], al

; 1630 : 		}

  00079	eb 19		 jmp	 SHORT $LN12@UCS2toUTF8
$LN11@UCS2toUTF8:

; 1631 : 		else
; 1632 : 		{
; 1633 : 			nbytes = 3;
; 1634 : 			bytes[2] = (unsigned char) ((unicode & 0x3f) | 0x80);		// 10xxxxxx
; 1635 : 			bytes[1] = (unsigned char) ((unicode >> 6) & 0x3f | 0x80);	// 10xxxxxx

  0007b	24 3f		 and	 al, 63			; 0000003fH

; 1636 : 			bytes[0] = (unsigned char) ((unicode >> 12) & 0x0f | 0xe0);	// 1110xxxx

  0007d	66 c1 e9 0c	 shr	 cx, 12			; 0000000cH
  00081	0c 80		 or	 al, 128			; 00000080H
  00083	88 5d fe	 mov	 BYTE PTR _bytes$[ebp+2], bl
  00086	ba 03 00 00 00	 mov	 edx, 3
  0008b	88 45 fd	 mov	 BYTE PTR _bytes$[ebp+1], al
  0008e	80 c9 e0	 or	 cl, 224			; 000000e0H
$LN45@UCS2toUTF8:

; 1637 : 		}
; 1638 : 
; 1639 : 		if( (len + nbytes) >= nDestBufSize )

  00091	88 4d fc	 mov	 BYTE PTR _bytes$[ebp], cl
$LN12@UCS2toUTF8:
  00094	8d 04 32	 lea	 eax, DWORD PTR [edx+esi]
  00097	3b 45 10	 cmp	 eax, DWORD PTR _nDestBufSize$[ebp]
  0009a	7d 36		 jge	 SHORT $LN22@UCS2toUTF8

; 1642 : 			//I3TRACE( "[%s] : Need more buffer size.\n", __FUNCTION__ );
; 1643 : 			I3ASSERT_0;
; 1644 : 			break;
; 1645 : 		}
; 1646 : 
; 1647 : 		for( int j = 0; j < nbytes; j++ )

  0009c	8b 7d 08	 mov	 edi, DWORD PTR _pDest$[ebp]
  0009f	33 c0		 xor	 eax, eax
$LL7@UCS2toUTF8:

; 1648 : 		{
; 1649 : 			pDest[len] = bytes[j];

  000a1	8a 4c 05 fc	 mov	 cl, BYTE PTR _bytes$[ebp+eax]
  000a5	40		 inc	 eax
  000a6	88 0c 37	 mov	 BYTE PTR [edi+esi], cl

; 1650 : 			len++;

  000a9	46		 inc	 esi
  000aa	3b c2		 cmp	 eax, edx
  000ac	7c f3		 jl	 SHORT $LL7@UCS2toUTF8

; 1612 : 	WCHAR16 unicode;
; 1613 : 	unsigned char bytes[4];
; 1614 : 	int nbytes;
; 1615 : 	int len = 0;
; 1616 : 
; 1617 : 	for( int i = 0; i < count; i++ )

  000ae	8b 5d f8	 mov	 ebx, DWORD PTR _i$1$[ebp]
  000b1	ba 80 00 00 00	 mov	 edx, 128		; 00000080H
  000b6	8b 4d 0c	 mov	 ecx, DWORD PTR _pSrc$[ebp]
  000b9	43		 inc	 ebx
  000ba	89 5d f8	 mov	 DWORD PTR _i$1$[ebp], ebx
  000bd	3b 5d f4	 cmp	 ebx, DWORD PTR _Count$1$[ebp]
  000c0	7c 81		 jl	 SHORT $LL4@UCS2toUTF8

; 1651 : 		}
; 1652 : 	}
; 1653 : 
; 1654 : 	pDest[len] = 0x00;

  000c2	8b 45 08	 mov	 eax, DWORD PTR _pDest$[ebp]

; 1655 : 
; 1656 : 	return len;

  000c5	5f		 pop	 edi
  000c6	c6 04 06 00	 mov	 BYTE PTR [esi+eax], 0
  000ca	8b c6		 mov	 eax, esi
  000cc	5e		 pop	 esi
  000cd	5b		 pop	 ebx

; 1657 : }

  000ce	8b e5		 mov	 esp, ebp
  000d0	5d		 pop	 ebp
  000d1	c3		 ret	 0
$LN22@UCS2toUTF8:

; 1640 : 		{
; 1641 : 			I3WARN("Need more buffer size.\n");

  000d2	6a 01		 push	 1
  000d4	68 00 00 00 00	 push	 OFFSET ??_C@_0EE@BFOIMKAA@int?5__cdecl?5i3String?3?3UCS2toUTF@
  000d9	68 69 06 00 00	 push	 1641			; 00000669H
  000de	68 00 00 00 00	 push	 OFFSET ??_C@_0GD@CAEEIHCP@E?3?2Proyectos?2JuegosOnlineproyec@
  000e3	e8 00 00 00 00	 call	 ?SetEnv@i3Error@@YAXPBDH0W4I3LOG_TYPE@@@Z ; i3Error::SetEnv
  000e8	68 00 00 00 00	 push	 OFFSET ??_C@_0BI@PALGGMBM@Need?5more?5buffer?5size?4?6@
  000ed	e8 00 00 00 00	 call	 ?Log@i3Error@@YAXPBDZZ	; i3Error::Log
  000f2	83 c4 14	 add	 esp, 20			; 00000014H
$LN3@UCS2toUTF8:

; 1651 : 		}
; 1652 : 	}
; 1653 : 
; 1654 : 	pDest[len] = 0x00;

  000f5	8b 45 08	 mov	 eax, DWORD PTR _pDest$[ebp]

; 1655 : 
; 1656 : 	return len;

  000f8	5f		 pop	 edi
  000f9	c6 04 06 00	 mov	 BYTE PTR [esi+eax], 0
  000fd	8b c6		 mov	 eax, esi
  000ff	5e		 pop	 esi
  00100	5b		 pop	 ebx

; 1657 : }

  00101	8b e5		 mov	 esp, ebp
  00103	5d		 pop	 ebp
  00104	c3		 ret	 0
?UCS2toUTF8@i3String@@YAHPADPBGH@Z ENDP			; i3String::UCS2toUTF8
_TEXT	ENDS
; Function compile flags: /Ogtp
; File E:\Proyectos\JuegosOnlineproyectos\PB\pbblow\Piercing Blow Remake\i3Server\src\i3Base\i3String.cpp
;	COMDAT ?CopyWCHARtoASCII@i3String@@YAXPADHPBGH@Z
_TEXT	SEGMENT
_pDest$ = 8						; size = 4
_nDestLength$ = 12					; size = 4
_pSrc$ = 16						; size = 4
_nSrcLength$ = 20					; size = 4
?CopyWCHARtoASCII@i3String@@YAXPADHPBGH@Z PROC		; i3String::CopyWCHARtoASCII, COMDAT

; 1524 : {

  00000	55		 push	 ebp
  00001	8b ec		 mov	 ebp, esp

; 1525 : 	WideCharToMultiByte( i3Language::GetCurrentCodePage(), 0, pSrc, nSrcLength, pDest, nDestLength, NULL, NULL);

  00003	6a 00		 push	 0
  00005	6a 00		 push	 0
  00007	ff 75 0c	 push	 DWORD PTR _nDestLength$[ebp]
  0000a	ff 75 08	 push	 DWORD PTR _pDest$[ebp]
  0000d	ff 75 14	 push	 DWORD PTR _nSrcLength$[ebp]
  00010	ff 75 10	 push	 DWORD PTR _pSrc$[ebp]
  00013	6a 00		 push	 0
  00015	e8 00 00 00 00	 call	 ?GetCurrentCodePage@i3Language@@YAIXZ ; i3Language::GetCurrentCodePage
  0001a	50		 push	 eax
  0001b	ff 15 00 00 00
	00		 call	 DWORD PTR __imp__WideCharToMultiByte@32

; 1526 : }

  00021	5d		 pop	 ebp
  00022	c3		 ret	 0
?CopyWCHARtoASCII@i3String@@YAXPADHPBGH@Z ENDP		; i3String::CopyWCHARtoASCII
_TEXT	ENDS
; Function compile flags: /Ogtp
; File E:\Proyectos\JuegosOnlineproyectos\PB\pbblow\Piercing Blow Remake\i3Server\src\i3Base\i3String.cpp
;	COMDAT ?CopyASCIItoWCHAR@i3String@@YAXPAGPBD@Z
_TEXT	SEGMENT
_Count$1$ = -4						; size = 4
_pDest$ = 8						; size = 4
_pSrc$ = 12						; size = 4
?CopyASCIItoWCHAR@i3String@@YAXPAGPBD@Z PROC		; i3String::CopyASCIItoWCHAR, COMDAT

; 1507 : {

  00000	55		 push	 ebp
  00001	8b ec		 mov	 ebp, esp
  00003	51		 push	 ecx

; 1508 : 	/*while( *pSrc )
; 1509 : 	{
; 1510 : 		*pDest = WCHAR16( *pSrc ); 
; 1511 : 		pDest++;
; 1512 : 		pSrc++;
; 1513 : 	}
; 1514 : 	*pDest = 0;*/
; 1515 : 
; 1516 : 	INT32 length = Length( pSrc);

  00004	8b 55 0c	 mov	 edx, DWORD PTR _pSrc$[ebp]

; 1055 : 	INT32 Count = 0;

  00007	33 c9		 xor	 ecx, ecx

; 1508 : 	/*while( *pSrc )
; 1509 : 	{
; 1510 : 		*pDest = WCHAR16( *pSrc ); 
; 1511 : 		pDest++;
; 1512 : 		pSrc++;
; 1513 : 	}
; 1514 : 	*pDest = 0;*/
; 1515 : 
; 1516 : 	INT32 length = Length( pSrc);

  00009	8b c2		 mov	 eax, edx

; 1055 : 	INT32 Count = 0;

  0000b	89 4d fc	 mov	 DWORD PTR _Count$1$[ebp], ecx

; 1056 : 
; 1057 : 	while( *pStr1)

  0000e	38 0a		 cmp	 BYTE PTR [edx], cl
  00010	74 0c		 je	 SHORT $LN5@CopyASCIIt
$LL4@CopyASCIIt:

; 1058 : 	{
; 1059 : 		Count++;
; 1060 : 		pStr1++;

  00012	8d 40 01	 lea	 eax, DWORD PTR [eax+1]
  00015	41		 inc	 ecx
  00016	80 38 00	 cmp	 BYTE PTR [eax], 0
  00019	75 f7		 jne	 SHORT $LL4@CopyASCIIt
  0001b	89 4d fc	 mov	 DWORD PTR _Count$1$[ebp], ecx
$LN5@CopyASCIIt:
  0001e	53		 push	 ebx
  0001f	56		 push	 esi

; 1517 : 	INT32 wLength = MultiByteToWideChar( i3Language::GetCurrentCodePage(), 0, pSrc, length, NULL, 0);

  00020	6a 00		 push	 0
  00022	6a 00		 push	 0
  00024	51		 push	 ecx
  00025	52		 push	 edx
  00026	6a 00		 push	 0
  00028	e8 00 00 00 00	 call	 ?GetCurrentCodePage@i3Language@@YAIXZ ; i3Language::GetCurrentCodePage
  0002d	50		 push	 eax
  0002e	ff 15 00 00 00
	00		 call	 DWORD PTR __imp__MultiByteToWideChar@24

; 1518 : 
; 1519 : 	MultiByteToWideChar( i3Language::GetCurrentCodePage(), 0, pSrc, length, pDest, wLength);

  00034	8b 75 08	 mov	 esi, DWORD PTR _pDest$[ebp]
  00037	8b d8		 mov	 ebx, eax
  00039	53		 push	 ebx
  0003a	56		 push	 esi
  0003b	ff 75 fc	 push	 DWORD PTR _Count$1$[ebp]
  0003e	ff 75 0c	 push	 DWORD PTR _pSrc$[ebp]
  00041	6a 00		 push	 0
  00043	e8 00 00 00 00	 call	 ?GetCurrentCodePage@i3Language@@YAIXZ ; i3Language::GetCurrentCodePage
  00048	50		 push	 eax
  00049	ff 15 00 00 00
	00		 call	 DWORD PTR __imp__MultiByteToWideChar@24

; 1520 : 	pDest[wLength] = 0;

  0004f	33 c0		 xor	 eax, eax
  00051	66 89 04 5e	 mov	 WORD PTR [esi+ebx*2], ax
  00055	5e		 pop	 esi
  00056	5b		 pop	 ebx

; 1521 : }

  00057	8b e5		 mov	 esp, ebp
  00059	5d		 pop	 ebp
  0005a	c3		 ret	 0
?CopyASCIItoWCHAR@i3String@@YAXPAGPBD@Z ENDP		; i3String::CopyASCIItoWCHAR
_TEXT	ENDS
; Function compile flags: /Ogtp
; File E:\Proyectos\JuegosOnlineproyectos\PB\pbblow\Piercing Blow Remake\i3Server\src\i3Base\i3String.cpp
;	COMDAT ?NCopy@i3String@@YAXPAGPBGH@Z
_TEXT	SEGMENT
_pDest$ = 8						; size = 4
_pSrc$ = 12						; size = 4
_Length$ = 16						; size = 4
?NCopy@i3String@@YAXPAGPBGH@Z PROC			; i3String::NCopy, COMDAT

; 1548 : {

  00000	55		 push	 ebp
  00001	8b ec		 mov	 ebp, esp

; 1549 : 	INT32 Count = 0;
; 1550 : 
; 1551 : 	while( *pSrc)

  00003	8b 55 0c	 mov	 edx, DWORD PTR _pSrc$[ebp]
  00006	56		 push	 esi
  00007	33 f6		 xor	 esi, esi
  00009	0f b7 02	 movzx	 eax, WORD PTR [edx]
  0000c	66 85 c0	 test	 ax, ax
  0000f	74 31		 je	 SHORT $LN12@NCopy
  00011	8b 4d 08	 mov	 ecx, DWORD PTR _pDest$[ebp]
  00014	53		 push	 ebx
  00015	8b 5d 10	 mov	 ebx, DWORD PTR _Length$[ebp]
  00018	57		 push	 edi
  00019	8b f8		 mov	 edi, eax
  0001b	eb 03 8d 49 00	 npad	 5
$LL2@NCopy:

; 1552 : 	{
; 1553 : 		*pDest = *pSrc;
; 1554 : 
; 1555 : 		pDest++;
; 1556 : 		pSrc++;
; 1557 : 		Count++;

  00020	46		 inc	 esi
  00021	66 89 39	 mov	 WORD PTR [ecx], di
  00024	8d 49 02	 lea	 ecx, DWORD PTR [ecx+2]
  00027	8d 52 02	 lea	 edx, DWORD PTR [edx+2]

; 1558 : 
; 1559 : 		if( Count >= Length)

  0002a	3b f3		 cmp	 esi, ebx
  0002c	7d 0a		 jge	 SHORT $LN11@NCopy

; 1549 : 	INT32 Count = 0;
; 1550 : 
; 1551 : 	while( *pSrc)

  0002e	0f b7 02	 movzx	 eax, WORD PTR [edx]
  00031	8b f8		 mov	 edi, eax
  00033	66 85 c0	 test	 ax, ax
  00036	75 e8		 jne	 SHORT $LL2@NCopy
$LN11@NCopy:
  00038	5f		 pop	 edi

; 1560 : 			break;
; 1561 : 	}
; 1562 : 
; 1563 : 	*pDest = 0;

  00039	33 c0		 xor	 eax, eax
  0003b	5b		 pop	 ebx
  0003c	66 89 01	 mov	 WORD PTR [ecx], ax
  0003f	5e		 pop	 esi

; 1564 : }

  00040	5d		 pop	 ebp
  00041	c3		 ret	 0
$LN12@NCopy:

; 1560 : 			break;
; 1561 : 	}
; 1562 : 
; 1563 : 	*pDest = 0;

  00042	8b 45 08	 mov	 eax, DWORD PTR _pDest$[ebp]
  00045	33 c9		 xor	 ecx, ecx
  00047	5e		 pop	 esi
  00048	66 89 08	 mov	 WORD PTR [eax], cx

; 1564 : }

  0004b	5d		 pop	 ebp
  0004c	c3		 ret	 0
?NCopy@i3String@@YAXPAGPBGH@Z ENDP			; i3String::NCopy
_TEXT	ENDS
; Function compile flags: /Ogtp
; File E:\Proyectos\JuegosOnlineproyectos\PB\pbblow\Piercing Blow Remake\i3Server\src\i3Base\i3String.cpp
;	COMDAT ?NCopy@i3String@@YAXPADPBDH@Z
_TEXT	SEGMENT
_pDest$ = 8						; size = 4
_pSrc$ = 12						; size = 4
_Length$ = 16						; size = 4
?NCopy@i3String@@YAXPADPBDH@Z PROC			; i3String::NCopy, COMDAT

; 1529 : {

  00000	55		 push	 ebp
  00001	8b ec		 mov	 ebp, esp

; 1530 : 	INT32 Count = 0;
; 1531 : 
; 1532 : 	while( *pSrc)

  00003	8b 4d 0c	 mov	 ecx, DWORD PTR _pSrc$[ebp]
  00006	8b 45 08	 mov	 eax, DWORD PTR _pDest$[ebp]
  00009	56		 push	 esi
  0000a	33 f6		 xor	 esi, esi
  0000c	8a 11		 mov	 dl, BYTE PTR [ecx]
  0000e	84 d2		 test	 dl, dl
  00010	74 1e		 je	 SHORT $LN12@NCopy
  00012	57		 push	 edi
  00013	8b 7d 10	 mov	 edi, DWORD PTR _Length$[ebp]
$LL2@NCopy:

; 1533 : 	{
; 1534 : 		*pDest = *pSrc;
; 1535 : 
; 1536 : 		pDest++;
; 1537 : 		pSrc++;
; 1538 : 		Count++;

  00016	46		 inc	 esi
  00017	88 10		 mov	 BYTE PTR [eax], dl
  00019	8d 40 01	 lea	 eax, DWORD PTR [eax+1]
  0001c	8d 49 01	 lea	 ecx, DWORD PTR [ecx+1]

; 1539 : 
; 1540 : 		if( Count >= Length)

  0001f	3b f7		 cmp	 esi, edi
  00021	7d 06		 jge	 SHORT $LN11@NCopy

; 1530 : 	INT32 Count = 0;
; 1531 : 
; 1532 : 	while( *pSrc)

  00023	8a 11		 mov	 dl, BYTE PTR [ecx]
  00025	84 d2		 test	 dl, dl
  00027	75 ed		 jne	 SHORT $LL2@NCopy
$LN11@NCopy:
  00029	5f		 pop	 edi

; 1541 : 			break;
; 1542 : 	}
; 1543 : 
; 1544 : 	*pDest = 0;

  0002a	c6 00 00	 mov	 BYTE PTR [eax], 0
  0002d	5e		 pop	 esi

; 1545 : }

  0002e	5d		 pop	 ebp
  0002f	c3		 ret	 0
$LN12@NCopy:

; 1541 : 			break;
; 1542 : 	}
; 1543 : 
; 1544 : 	*pDest = 0;

  00030	c6 00 00	 mov	 BYTE PTR [eax], 0
  00033	5e		 pop	 esi

; 1545 : }

  00034	5d		 pop	 ebp
  00035	c3		 ret	 0
?NCopy@i3String@@YAXPADPBDH@Z ENDP			; i3String::NCopy
_TEXT	ENDS
; Function compile flags: /Ogtp
; File E:\Proyectos\JuegosOnlineproyectos\PB\pbblow\Piercing Blow Remake\i3Server\src\i3Base\i3String.cpp
;	COMDAT ?Copy@i3String@@YAXPAGPBGH@Z
_TEXT	SEGMENT
_pDest$ = 8						; size = 4
_pSrc$ = 12						; size = 4
_DestLength$ = 16					; size = 4
?Copy@i3String@@YAXPAGPBGH@Z PROC			; i3String::Copy, COMDAT

; 1491 : {

  00000	55		 push	 ebp
  00001	8b ec		 mov	 ebp, esp

; 1492 : 	if ( DestLength <= 0 )

  00003	8b 55 10	 mov	 edx, DWORD PTR _DestLength$[ebp]
  00006	85 d2		 test	 edx, edx
  00008	7e 2a		 jle	 SHORT $LN1@Copy

; 1493 : 		return;
; 1494 : 
; 1495 : 	while( *pSrc && --DestLength > 0 )

  0000a	8b 4d 0c	 mov	 ecx, DWORD PTR _pSrc$[ebp]
  0000d	56		 push	 esi
  0000e	8b 75 08	 mov	 esi, DWORD PTR _pDest$[ebp]
  00011	66 83 39 00	 cmp	 WORD PTR [ecx], 0
  00015	74 17		 je	 SHORT $LN3@Copy
$LL2@Copy:
  00017	4a		 dec	 edx
  00018	85 d2		 test	 edx, edx
  0001a	7e 12		 jle	 SHORT $LN3@Copy

; 1496 : 	{
; 1497 : 		*pDest = *pSrc;

  0001c	66 8b 01	 mov	 ax, WORD PTR [ecx]

; 1498 : 
; 1499 : 		pDest++;
; 1500 : 		pSrc++;

  0001f	83 c1 02	 add	 ecx, 2
  00022	66 89 06	 mov	 WORD PTR [esi], ax
  00025	83 c6 02	 add	 esi, 2
  00028	66 83 39 00	 cmp	 WORD PTR [ecx], 0
  0002c	75 e9		 jne	 SHORT $LL2@Copy
$LN3@Copy:

; 1501 : 	}
; 1502 : 
; 1503 : 	*pDest = 0;

  0002e	33 c0		 xor	 eax, eax
  00030	66 89 06	 mov	 WORD PTR [esi], ax
  00033	5e		 pop	 esi
$LN1@Copy:

; 1504 : }

  00034	5d		 pop	 ebp
  00035	c3		 ret	 0
?Copy@i3String@@YAXPAGPBGH@Z ENDP			; i3String::Copy
_TEXT	ENDS
; Function compile flags: /Ogtp
; File E:\Proyectos\JuegosOnlineproyectos\PB\pbblow\Piercing Blow Remake\i3Server\src\i3Base\i3String.cpp
;	COMDAT ?Copy@i3String@@YAXPADPBDH@Z
_TEXT	SEGMENT
_pDest$ = 8						; size = 4
_pSrc$ = 12						; size = 4
_DestLength$ = 16					; size = 4
?Copy@i3String@@YAXPADPBDH@Z PROC			; i3String::Copy, COMDAT

; 1473 : {

  00000	55		 push	 ebp
  00001	8b ec		 mov	 ebp, esp

; 1474 : 	I3ASSERT( pDest && pSrc );
; 1475 : 
; 1476 : 	if ( DestLength <= 0 )

  00003	8b 55 10	 mov	 edx, DWORD PTR _DestLength$[ebp]
  00006	85 d2		 test	 edx, edx
  00008	7e 20		 jle	 SHORT $LN1@Copy

; 1477 : 		return;
; 1478 : 
; 1479 : 	while( *pSrc && --DestLength > 0 )

  0000a	8b 4d 0c	 mov	 ecx, DWORD PTR _pSrc$[ebp]
  0000d	56		 push	 esi
  0000e	8b 75 08	 mov	 esi, DWORD PTR _pDest$[ebp]
  00011	80 39 00	 cmp	 BYTE PTR [ecx], 0
  00014	74 10		 je	 SHORT $LN3@Copy
$LL2@Copy:
  00016	4a		 dec	 edx
  00017	85 d2		 test	 edx, edx
  00019	7e 0b		 jle	 SHORT $LN3@Copy

; 1480 : 	{
; 1481 : 		*pDest = *pSrc;

  0001b	8a 01		 mov	 al, BYTE PTR [ecx]

; 1482 : 
; 1483 : 		pDest++;
; 1484 : 		pSrc++;

  0001d	41		 inc	 ecx
  0001e	88 06		 mov	 BYTE PTR [esi], al
  00020	46		 inc	 esi
  00021	80 39 00	 cmp	 BYTE PTR [ecx], 0
  00024	75 f0		 jne	 SHORT $LL2@Copy
$LN3@Copy:

; 1485 : 	}
; 1486 : 
; 1487 : 	*pDest = 0;

  00026	c6 06 00	 mov	 BYTE PTR [esi], 0
  00029	5e		 pop	 esi
$LN1@Copy:

; 1488 : }

  0002a	5d		 pop	 ebp
  0002b	c3		 ret	 0
?Copy@i3String@@YAXPADPBDH@Z ENDP			; i3String::Copy
_TEXT	ENDS
; Function compile flags: /Ogtp
; File E:\Proyectos\JuegosOnlineproyectos\PB\pbblow\Piercing Blow Remake\i3Server\src\i3Base\i3String.cpp
;	COMDAT ?ToLower@i3String@@YAXPADIPBD@Z
_TEXT	SEGMENT
_pDest$ = 8						; size = 4
_DestSize$ = 12						; size = 4
_pSrc$ = 16						; size = 4
?ToLower@i3String@@YAXPADIPBD@Z PROC			; i3String::ToLower, COMDAT

; 1385 : {

  00000	55		 push	 ebp
  00001	8b ec		 mov	 ebp, esp

; 1386 : 	I3ASSERT(pDest != NULL);
; 1387 : 	I3ASSERT(pSrc != NULL);
; 1388 : 	I3ASSERT(DestSize != 0);
; 1389 : 	if ( ! pDest || ! pSrc || DestSize == 0)

  00003	8b 4d 08	 mov	 ecx, DWORD PTR _pDest$[ebp]
  00006	85 c9		 test	 ecx, ecx
  00008	74 54		 je	 SHORT $LN5@ToLower
  0000a	56		 push	 esi
  0000b	8b 75 10	 mov	 esi, DWORD PTR _pSrc$[ebp]
  0000e	85 f6		 test	 esi, esi
  00010	74 4b		 je	 SHORT $LN21@ToLower
  00012	57		 push	 edi
  00013	8b 7d 0c	 mov	 edi, DWORD PTR _DestSize$[ebp]
  00016	85 ff		 test	 edi, edi
  00018	74 42		 je	 SHORT $LN22@ToLower

; 1390 : 		return;
; 1391 : 
; 1392 : 
; 1393 : 	UINT32 i = 0;

  0001a	33 c0		 xor	 eax, eax

; 1394 : 	while ( (*pSrc != '\0') && (i < DestSize) )

  0001c	38 06		 cmp	 BYTE PTR [esi], al
  0001e	74 38		 je	 SHORT $LN8@ToLower
  00020	53		 push	 ebx
$LL2@ToLower:
  00021	3b c7		 cmp	 eax, edi
  00023	73 27		 jae	 SHORT $LN23@ToLower

; 1395 : 	{
; 1396 : 		if ( *pSrc >= 'A' && *pSrc <= 'Z' )

  00025	8a 2e		 mov	 ch, BYTE PTR [esi]

; 1397 : 			pDest[i] = static_cast<char>(*pSrc + ALPHABET_INTERVAL);
; 1398 : 		else
; 1399 : 			pDest[i] = *pSrc;
; 1400 : 
; 1401 : 		++pSrc;

  00027	8a dd		 mov	 bl, ch
  00029	8a cd		 mov	 cl, ch
  0002b	80 c1 20	 add	 cl, 32			; 00000020H
  0002e	80 eb 41	 sub	 bl, 65			; 00000041H
  00031	0f b6 d1	 movzx	 edx, cl
  00034	80 fb 19	 cmp	 bl, 25			; 00000019H
  00037	0f b6 cd	 movzx	 ecx, ch
  0003a	0f 47 d1	 cmova	 edx, ecx
  0003d	8b 4d 08	 mov	 ecx, DWORD PTR _pDest$[ebp]
  00040	46		 inc	 esi
  00041	88 14 01	 mov	 BYTE PTR [ecx+eax], dl

; 1402 : 		++i;

  00044	40		 inc	 eax
  00045	80 3e 00	 cmp	 BYTE PTR [esi], 0
  00048	75 d7		 jne	 SHORT $LL2@ToLower

; 1403 : 	}
; 1404 : 
; 1405 : 	if ( i > DestSize )

  0004a	3b c7		 cmp	 eax, edi
$LN23@ToLower:
  0004c	5b		 pop	 ebx
  0004d	76 09		 jbe	 SHORT $LN8@ToLower

; 1406 : 		pDest[DestSize-1] = NULL;

  0004f	c6 44 39 ff 00	 mov	 BYTE PTR [ecx+edi-1], 0
  00054	5f		 pop	 edi
  00055	5e		 pop	 esi

; 1409 : }

  00056	5d		 pop	 ebp
  00057	c3		 ret	 0
$LN8@ToLower:

; 1407 : 	else
; 1408 : 		pDest[i] = NULL;

  00058	c6 04 08 00	 mov	 BYTE PTR [eax+ecx], 0
$LN22@ToLower:
  0005c	5f		 pop	 edi
$LN21@ToLower:
  0005d	5e		 pop	 esi
$LN5@ToLower:

; 1409 : }

  0005e	5d		 pop	 ebp
  0005f	c3		 ret	 0
?ToLower@i3String@@YAXPADIPBD@Z ENDP			; i3String::ToLower
_TEXT	ENDS
; Function compile flags: /Ogtp
; File E:\Proyectos\JuegosOnlineproyectos\PB\pbblow\Piercing Blow Remake\i3Server\src\i3Base\i3String.cpp
;	COMDAT ?ToLower@i3String@@YAXPAD@Z
_TEXT	SEGMENT
_pStr$ = 8						; size = 4
?ToLower@i3String@@YAXPAD@Z PROC			; i3String::ToLower, COMDAT

; 1374 : {

  00000	55		 push	 ebp
  00001	8b ec		 mov	 ebp, esp

; 1375 : 	while( *pStr)

  00003	8b 45 08	 mov	 eax, DWORD PTR _pStr$[ebp]
  00006	8a 08		 mov	 cl, BYTE PTR [eax]
  00008	84 c9		 test	 cl, cl
  0000a	74 1d		 je	 SHORT $LN3@ToLower
  0000c	8d 64 24 00	 npad	 4
$LL2@ToLower:

; 1376 : 	{
; 1377 : 		if((*pStr >= 'A') && (*pStr <= 'Z'))

  00010	80 f9 41	 cmp	 cl, 65			; 00000041H
  00013	7c 0c		 jl	 SHORT $LN4@ToLower
  00015	8a 08		 mov	 cl, BYTE PTR [eax]
  00017	80 f9 5a	 cmp	 cl, 90			; 0000005aH
  0001a	7f 05		 jg	 SHORT $LN4@ToLower

; 1378 : 			*pStr += ALPHABET_INTERVAL;

  0001c	80 c1 20	 add	 cl, 32			; 00000020H
  0001f	88 08		 mov	 BYTE PTR [eax], cl
$LN4@ToLower:

; 1379 : 
; 1380 : 		pStr++;

  00021	8a 48 01	 mov	 cl, BYTE PTR [eax+1]
  00024	40		 inc	 eax
  00025	84 c9		 test	 cl, cl
  00027	75 e7		 jne	 SHORT $LL2@ToLower
$LN3@ToLower:

; 1381 : 	}
; 1382 : }

  00029	5d		 pop	 ebp
  0002a	c3		 ret	 0
?ToLower@i3String@@YAXPAD@Z ENDP			; i3String::ToLower
_TEXT	ENDS
; Function compile flags: /Ogtp
; File E:\Proyectos\JuegosOnlineproyectos\PB\pbblow\Piercing Blow Remake\i3Server\src\i3Base\i3String.cpp
;	COMDAT ?ToLower@i3String@@YADD@Z
_TEXT	SEGMENT
_c$ = 8							; size = 1
?ToLower@i3String@@YADD@Z PROC				; i3String::ToLower, COMDAT

; 1367 : {

  00000	55		 push	 ebp
  00001	8b ec		 mov	 ebp, esp
  00003	8a 4d 08	 mov	 cl, BYTE PTR _c$[ebp]

; 1368 : 	if ( c >= 'A' && c <= 'Z' )

  00006	8d 51 bf	 lea	 edx, DWORD PTR [ecx-65]

; 1369 : 		return static_cast<char>(c + ALPHABET_INTERVAL);
; 1370 : 	return c;
; 1371 : }

  00009	8d 41 20	 lea	 eax, DWORD PTR [ecx+32]
  0000c	80 fa 19	 cmp	 dl, 25			; 00000019H
  0000f	0f b6 c0	 movzx	 eax, al
  00012	0f b6 c9	 movzx	 ecx, cl
  00015	0f 47 c1	 cmova	 eax, ecx
  00018	5d		 pop	 ebp
  00019	c3		 ret	 0
?ToLower@i3String@@YADD@Z ENDP				; i3String::ToLower
_TEXT	ENDS
; Function compile flags: /Ogtp
; File E:\Proyectos\JuegosOnlineproyectos\PB\pbblow\Piercing Blow Remake\i3Server\src\i3Base\i3String.cpp
;	COMDAT ?ToUpperBeforeN@i3String@@YAXPADH@Z
_TEXT	SEGMENT
_pStr$ = 8						; size = 4
_nCount$ = 12						; size = 4
?ToUpperBeforeN@i3String@@YAXPADH@Z PROC		; i3String::ToUpperBeforeN, COMDAT

; 1347 : {

  00000	55		 push	 ebp
  00001	8b ec		 mov	 ebp, esp
  00003	8b 45 08	 mov	 eax, DWORD PTR _pStr$[ebp]

; 1348 : 	INT32 i = 0;
; 1349 : 	
; 1350 : 	while( *pStr)

  00006	80 38 00	 cmp	 BYTE PTR [eax], 0
  00009	74 1d		 je	 SHORT $LN8@ToUpperBef

; 1351 : 	{
; 1352 : 		if(i >= nCount)

  0000b	83 7d 0c 00	 cmp	 DWORD PTR _nCount$[ebp], 0
  0000f	7e 17		 jle	 SHORT $LN8@ToUpperBef
$LN12@ToUpperBef:

; 1353 : 		{
; 1354 : 			break;
; 1355 : 		}
; 1356 : 		
; 1357 : 		if((*pStr >= 'a') && (*pStr <= 'z'))

  00011	8a 08		 mov	 cl, BYTE PTR [eax]
  00013	80 f9 61	 cmp	 cl, 97			; 00000061H
  00016	7c 0a		 jl	 SHORT $LN5@ToUpperBef
  00018	80 f9 7a	 cmp	 cl, 122			; 0000007aH
  0001b	7f 05		 jg	 SHORT $LN5@ToUpperBef

; 1358 : 		{
; 1359 : 			*pStr = *pStr - ('a' - 'A');

  0001d	80 e9 20	 sub	 cl, 32			; 00000020H
  00020	88 08		 mov	 BYTE PTR [eax], cl
$LN5@ToUpperBef:

; 1360 : 		}
; 1361 : 
; 1362 : 		pStr++;

  00022	40		 inc	 eax
  00023	80 38 00	 cmp	 BYTE PTR [eax], 0
  00026	75 e9		 jne	 SHORT $LN12@ToUpperBef
$LN8@ToUpperBef:

; 1363 : 	}
; 1364 : }

  00028	5d		 pop	 ebp
  00029	c3		 ret	 0
?ToUpperBeforeN@i3String@@YAXPADH@Z ENDP		; i3String::ToUpperBeforeN
_TEXT	ENDS
; Function compile flags: /Ogtp
; File E:\Proyectos\JuegosOnlineproyectos\PB\pbblow\Piercing Blow Remake\i3Server\src\i3Base\i3String.cpp
;	COMDAT ?ToUpperAfterN@i3String@@YAXPADH@Z
_TEXT	SEGMENT
_pStr$ = 8						; size = 4
_nCount$ = 12						; size = 4
?ToUpperAfterN@i3String@@YAXPADH@Z PROC			; i3String::ToUpperAfterN, COMDAT

; 1330 : {

  00000	55		 push	 ebp
  00001	8b ec		 mov	 ebp, esp
  00003	8b 45 08	 mov	 eax, DWORD PTR _pStr$[ebp]

; 1331 : 	INT32 i = 0;
; 1332 : 
; 1333 : 	while(*pStr)

  00006	8a 08		 mov	 cl, BYTE PTR [eax]
  00008	84 c9		 test	 cl, cl
  0000a	74 1d		 je	 SHORT $LN8@ToUpperAft
  0000c	8d 64 24 00	 npad	 4
$LL7@ToUpperAft:

; 1319 : 		if((*pStr >= 'a') && (*pStr <= 'z'))

  00010	80 f9 61	 cmp	 cl, 97			; 00000061H
  00013	7c 0c		 jl	 SHORT $LN9@ToUpperAft
  00015	8a 08		 mov	 cl, BYTE PTR [eax]
  00017	80 f9 7a	 cmp	 cl, 122			; 0000007aH
  0001a	7f 05		 jg	 SHORT $LN9@ToUpperAft

; 1320 : 		{
; 1321 : 			*pStr = *pStr - ('a' - 'A');

  0001c	80 e9 20	 sub	 cl, 32			; 00000020H
  0001f	88 08		 mov	 BYTE PTR [eax], cl
$LN9@ToUpperAft:

; 1317 : 	while( *pStr)

  00021	8a 48 01	 mov	 cl, BYTE PTR [eax+1]

; 1322 : 		}
; 1323 : 
; 1324 : 		pStr++;

  00024	40		 inc	 eax
  00025	84 c9		 test	 cl, cl
  00027	75 e7		 jne	 SHORT $LL7@ToUpperAft
$LN8@ToUpperAft:

; 1334 : 	{
; 1335 : 		i++;
; 1336 : 		if(i >= nCount)
; 1337 : 		{
; 1338 : 			break;
; 1339 : 		}
; 1340 : 	}
; 1341 : 	
; 1342 : 	ToUpper(pStr);
; 1343 : }

  00029	5d		 pop	 ebp
  0002a	c3		 ret	 0
?ToUpperAfterN@i3String@@YAXPADH@Z ENDP			; i3String::ToUpperAfterN
_TEXT	ENDS
; Function compile flags: /Ogtp
; File E:\Proyectos\JuegosOnlineproyectos\PB\pbblow\Piercing Blow Remake\i3Server\src\i3Base\i3String.cpp
;	COMDAT ?ToUpper@i3String@@YAXPAD@Z
_TEXT	SEGMENT
_pStr$ = 8						; size = 4
?ToUpper@i3String@@YAXPAD@Z PROC			; i3String::ToUpper, COMDAT

; 1316 : {

  00000	55		 push	 ebp
  00001	8b ec		 mov	 ebp, esp

; 1317 : 	while( *pStr)

  00003	8b 45 08	 mov	 eax, DWORD PTR _pStr$[ebp]
  00006	8a 08		 mov	 cl, BYTE PTR [eax]
  00008	84 c9		 test	 cl, cl
  0000a	74 1d		 je	 SHORT $LN3@ToUpper
  0000c	8d 64 24 00	 npad	 4
$LL2@ToUpper:

; 1318 : 	{
; 1319 : 		if((*pStr >= 'a') && (*pStr <= 'z'))

  00010	80 f9 61	 cmp	 cl, 97			; 00000061H
  00013	7c 0c		 jl	 SHORT $LN4@ToUpper
  00015	8a 08		 mov	 cl, BYTE PTR [eax]
  00017	80 f9 7a	 cmp	 cl, 122			; 0000007aH
  0001a	7f 05		 jg	 SHORT $LN4@ToUpper

; 1320 : 		{
; 1321 : 			*pStr = *pStr - ('a' - 'A');

  0001c	80 e9 20	 sub	 cl, 32			; 00000020H
  0001f	88 08		 mov	 BYTE PTR [eax], cl
$LN4@ToUpper:

; 1322 : 		}
; 1323 : 
; 1324 : 		pStr++;

  00021	8a 48 01	 mov	 cl, BYTE PTR [eax+1]
  00024	40		 inc	 eax
  00025	84 c9		 test	 cl, cl
  00027	75 e7		 jne	 SHORT $LL2@ToUpper
$LN3@ToUpper:

; 1325 : 	}
; 1326 : }

  00029	5d		 pop	 ebp
  0002a	c3		 ret	 0
?ToUpper@i3String@@YAXPAD@Z ENDP			; i3String::ToUpper
_TEXT	ENDS
; Function compile flags: /Ogtp
; File E:\Proyectos\JuegosOnlineproyectos\PB\pbblow\Piercing Blow Remake\i3Server\src\i3Base\i3String.cpp
;	COMDAT ?ToUpper@i3String@@YADD@Z
_TEXT	SEGMENT
_c$ = 8							; size = 1
?ToUpper@i3String@@YADD@Z PROC				; i3String::ToUpper, COMDAT

; 1309 : {

  00000	55		 push	 ebp
  00001	8b ec		 mov	 ebp, esp
  00003	8a 4d 08	 mov	 cl, BYTE PTR _c$[ebp]

; 1310 : 	if ( c >= 'a' && c <= 'z' )

  00006	8d 51 9f	 lea	 edx, DWORD PTR [ecx-97]

; 1311 : 		return static_cast<char>(c - ALPHABET_INTERVAL);
; 1312 : 	return c;
; 1313 : }

  00009	8d 41 e0	 lea	 eax, DWORD PTR [ecx-32]
  0000c	80 fa 19	 cmp	 dl, 25			; 00000019H
  0000f	0f b6 c0	 movzx	 eax, al
  00012	0f b6 c9	 movzx	 ecx, cl
  00015	0f 47 c1	 cmova	 eax, ecx
  00018	5d		 pop	 ebp
  00019	c3		 ret	 0
?ToUpper@i3String@@YADD@Z ENDP				; i3String::ToUpper
_TEXT	ENDS
; Function compile flags: /Ogtp
; File E:\Proyectos\JuegosOnlineproyectos\PB\pbblow\Piercing Blow Remake\i3Server\src\i3Base\i3String.cpp
;	COMDAT ?CompareCaseW@i3String@@YAHPBG0@Z
_TEXT	SEGMENT
_str1$ = 8						; size = 4
_str2$ = 12						; size = 4
?CompareCaseW@i3String@@YAHPBG0@Z PROC			; i3String::CompareCaseW, COMDAT

; 1029 : {

  00000	55		 push	 ebp
  00001	8b ec		 mov	 ebp, esp

; 1030 : 	WCHAR16 C1, C2;
; 1031 : 
; 1032 : 	do
; 1033 : 	{
; 1034 : 		C1 = *str1;

  00003	8b 45 08	 mov	 eax, DWORD PTR _str1$[ebp]

; 1035 : 		C2 = *str2;

  00006	8b 4d 0c	 mov	 ecx, DWORD PTR _str2$[ebp]
  00009	56		 push	 esi
  0000a	0f b7 10	 movzx	 edx, WORD PTR [eax]
  0000d	0f b7 31	 movzx	 esi, WORD PTR [ecx]

; 1036 : 
; 1037 : 		if( C1 != C2)

  00010	66 3b d6	 cmp	 dx, si
  00013	75 1c		 jne	 SHORT $LN9@CompareCas
$LL4@CompareCas:

; 1040 : 		}
; 1041 : 
; 1042 : 		str1++;
; 1043 : 		str2++;
; 1044 : 	}
; 1045 : 	while( (*str1 != 0) && (*str2 != 0) );

  00015	0f b7 50 02	 movzx	 edx, WORD PTR [eax+2]
  00019	8d 40 02	 lea	 eax, DWORD PTR [eax+2]
  0001c	8d 49 02	 lea	 ecx, DWORD PTR [ecx+2]
  0001f	66 85 d2	 test	 dx, dx
  00022	74 18		 je	 SHORT $LN6@CompareCas
  00024	0f b7 31	 movzx	 esi, WORD PTR [ecx]
  00027	66 85 f6	 test	 si, si
  0002a	74 10		 je	 SHORT $LN6@CompareCas

; 1036 : 
; 1037 : 		if( C1 != C2)

  0002c	66 3b d6	 cmp	 dx, si
  0002f	74 e4		 je	 SHORT $LL4@CompareCas
$LN9@CompareCas:

; 1038 : 		{
; 1039 : 			return C1 - C2;

  00031	0f b7 ce	 movzx	 ecx, si
  00034	0f b7 c2	 movzx	 eax, dx

; 1051 : }

  00037	2b c1		 sub	 eax, ecx
  00039	5e		 pop	 esi
  0003a	5d		 pop	 ebp
  0003b	c3		 ret	 0
$LN6@CompareCas:

; 1046 : 
; 1047 : 	C1 = *str1;
; 1048 : 	C2 = *str2;
; 1049 : 
; 1050 : 	return C1 - C2;

  0003c	0f b7 09	 movzx	 ecx, WORD PTR [ecx]
  0003f	8b c2		 mov	 eax, edx

; 1051 : }

  00041	2b c1		 sub	 eax, ecx
  00043	5e		 pop	 esi
  00044	5d		 pop	 ebp
  00045	c3		 ret	 0
?CompareCaseW@i3String@@YAHPBG0@Z ENDP			; i3String::CompareCaseW
_TEXT	ENDS
; Function compile flags: /Ogtp
; File E:\Proyectos\JuegosOnlineproyectos\PB\pbblow\Piercing Blow Remake\i3Server\src\i3Base\i3String.cpp
;	COMDAT ?CompareCase@i3String@@YAHPBD0@Z
_TEXT	SEGMENT
_str1$ = 8						; size = 4
_str2$ = 12						; size = 4
?CompareCase@i3String@@YAHPBD0@Z PROC			; i3String::CompareCase, COMDAT

; 1001 : {

  00000	55		 push	 ebp
  00001	8b ec		 mov	 ebp, esp

; 1002 : #ifdef USE_C_LIBRARY_FUNCS
; 1003 : 
; 1004 : 	return strcmp( str1, str2 );

  00003	8b 4d 0c	 mov	 ecx, DWORD PTR _str2$[ebp]
  00006	8b 45 08	 mov	 eax, DWORD PTR _str1$[ebp]
  00009	8d a4 24 00 00
	00 00		 npad	 7
$LL3@CompareCas:
  00010	8a 10		 mov	 dl, BYTE PTR [eax]
  00012	3a 11		 cmp	 dl, BYTE PTR [ecx]
  00014	75 1a		 jne	 SHORT $LN4@CompareCas
  00016	84 d2		 test	 dl, dl
  00018	74 12		 je	 SHORT $LN5@CompareCas
  0001a	8a 50 01	 mov	 dl, BYTE PTR [eax+1]
  0001d	3a 51 01	 cmp	 dl, BYTE PTR [ecx+1]
  00020	75 0e		 jne	 SHORT $LN4@CompareCas
  00022	83 c0 02	 add	 eax, 2
  00025	83 c1 02	 add	 ecx, 2
  00028	84 d2		 test	 dl, dl
  0002a	75 e4		 jne	 SHORT $LL3@CompareCas
$LN5@CompareCas:
  0002c	33 c0		 xor	 eax, eax

; 1005 : 
; 1006 : #else
; 1007 : 	char C1, C2;
; 1008 : 
; 1009 : 	do
; 1010 : 	{
; 1011 : 		C1 = *str1;
; 1012 : 		C2 = *str2;
; 1013 : 
; 1014 : 		if( C1 != C2)
; 1015 : 			return C1 - C2;
; 1016 : 
; 1017 : 		str1++;
; 1018 : 		str2++;
; 1019 : 	} while((*str1 != 0) && (*str2 != 0));
; 1020 : 
; 1021 : 	C1 = *str1;
; 1022 : 	C2 = *str2;
; 1023 : 
; 1024 : 	return C1 - C2;
; 1025 : #endif
; 1026 : }

  0002e	5d		 pop	 ebp
  0002f	c3		 ret	 0
$LN4@CompareCas:

; 1002 : #ifdef USE_C_LIBRARY_FUNCS
; 1003 : 
; 1004 : 	return strcmp( str1, str2 );

  00030	1b c0		 sbb	 eax, eax
  00032	83 c8 01	 or	 eax, 1

; 1005 : 
; 1006 : #else
; 1007 : 	char C1, C2;
; 1008 : 
; 1009 : 	do
; 1010 : 	{
; 1011 : 		C1 = *str1;
; 1012 : 		C2 = *str2;
; 1013 : 
; 1014 : 		if( C1 != C2)
; 1015 : 			return C1 - C2;
; 1016 : 
; 1017 : 		str1++;
; 1018 : 		str2++;
; 1019 : 	} while((*str1 != 0) && (*str2 != 0));
; 1020 : 
; 1021 : 	C1 = *str1;
; 1022 : 	C2 = *str2;
; 1023 : 
; 1024 : 	return C1 - C2;
; 1025 : #endif
; 1026 : }

  00035	5d		 pop	 ebp
  00036	c3		 ret	 0
?CompareCase@i3String@@YAHPBD0@Z ENDP			; i3String::CompareCase
_TEXT	ENDS
; Function compile flags: /Ogtp
; File E:\Proyectos\JuegosOnlineproyectos\PB\pbblow\Piercing Blow Remake\i3Server\src\i3Base\i3String.cpp
;	COMDAT ?NCompareW@i3String@@YAHPBG0H@Z
_TEXT	SEGMENT
_str1$ = 8						; size = 4
_str2$ = 12						; size = 4
_size$ = 16						; size = 4
?NCompareW@i3String@@YAHPBG0H@Z PROC			; i3String::NCompareW, COMDAT

; 966  : {

  00000	55		 push	 ebp
  00001	8b ec		 mov	 ebp, esp

; 969  : #else
; 970  : 	WCHAR16	C1, C2;
; 971  : 	INT32 nSize = 0;
; 972  : 
; 973  : 	do 
; 974  : 	{
; 975  : 		C1 = *str1;
; 976  : 		C2 = *str2;
; 977  : 
; 978  : 		if((C1 >= WCHAR16('a')) && (C1 <= WCHAR16('z')))
; 979  : 			C1 += 'A' - 'a';
; 980  : 
; 981  : 		if((C2 >= WCHAR16('a')) && (C2 <= WCHAR16('z')))
; 982  : 			C2 += WCHAR16('A') - WCHAR16('a');
; 983  : 
; 984  : 		if( C1 != C2)
; 985  : 			return C1 - C2;
; 986  : 
; 987  : 		str1++;
; 988  : 		str2++;
; 989  : 		nSize++;
; 990  : 	}
; 991  : 	while((*str1 != 0) && (nSize < size));
; 992  : 
; 993  : 	if(*str1 == 0)
; 994  : 		return *str1 - *str2;
; 995  : 
; 996  : 	return 0;
; 997  : #endif
; 998  : }

  00003	5d		 pop	 ebp

; 967  : #ifdef USE_C_LIBRARY_FUNCS
; 968  : 	return _wcsnicmp( str1, str2, size);

  00004	e9 00 00 00 00	 jmp	 __wcsnicmp
?NCompareW@i3String@@YAHPBG0H@Z ENDP			; i3String::NCompareW
_TEXT	ENDS
; Function compile flags: /Ogtp
; File E:\Proyectos\JuegosOnlineproyectos\PB\pbblow\Piercing Blow Remake\i3Server\src\i3Base\i3String.cpp
;	COMDAT ?NCompare@i3String@@YAHPBD0H@Z
_TEXT	SEGMENT
_str1$ = 8						; size = 4
_str2$ = 12						; size = 4
_size$ = 16						; size = 4
?NCompare@i3String@@YAHPBD0H@Z PROC			; i3String::NCompare, COMDAT

; 917  : {

  00000	55		 push	 ebp
  00001	8b ec		 mov	 ebp, esp

; 921  : 
; 922  : #else
; 923  : 	INT32	C1, C2;
; 924  : 	INT32	nSize = 0;
; 925  : 
; 926  : 	if ( str1 == NULL )
; 927  : 	{
; 928  : 		if ( str2 == NULL )
; 929  : 			return 0;
; 930  : 		else
; 931  : 			return -1;
; 932  : 	}
; 933  : 	else if ( str2 == NULL )
; 934  : 	{
; 935  : 		return 1;
; 936  : 	}
; 937  : 
; 938  : 	do 
; 939  : 	{
; 940  : 		C1 = *str1;
; 941  : 		C2 = *str2;
; 942  : 
; 943  : 		if((C1 >= 'a') && (C1 <= 'z'))
; 944  : 			C1 += 'A' - 'a';
; 945  : 
; 946  : 		if((C2 >= 'a') && (C2 <= 'z'))
; 947  : 			C2 += 'A' - 'a';
; 948  : 
; 949  : 		if( C1 != C2)
; 950  : 			return C1 - C2;
; 951  : 
; 952  : 		str1++;
; 953  : 		str2++;
; 954  : 		nSize++;
; 955  : 	} 
; 956  : 	while((*str1 != 0) && (*str2 != 0) && (nSize < size));
; 957  : 
; 958  : 	if(*str1 == 0)
; 959  : 		return *str1 - *str2;
; 960  : 
; 961  : 	return 0;
; 962  : #endif
; 963  : }

  00003	5d		 pop	 ebp

; 918  : #ifdef USE_C_LIBRARY_FUNCS
; 919  : 
; 920  : 	return _strnicmp( str1, str2, size );

  00004	e9 00 00 00 00	 jmp	 __strnicmp
?NCompare@i3String@@YAHPBD0H@Z ENDP			; i3String::NCompare
_TEXT	ENDS
; Function compile flags: /Ogtp
; File E:\Proyectos\JuegosOnlineproyectos\PB\pbblow\Piercing Blow Remake\i3Server\src\i3Base\i3String.cpp
;	COMDAT ?Compare@i3String@@YAHPBG0@Z
_TEXT	SEGMENT
_str1$ = 8						; size = 4
_str2$ = 12						; size = 4
?Compare@i3String@@YAHPBG0@Z PROC			; i3String::Compare, COMDAT

; 885  : {

  00000	55		 push	 ebp
  00001	8b ec		 mov	 ebp, esp

; 888  : #else
; 889  : 	WCHAR16 C1, C2;
; 890  : 	do
; 891  : 	{
; 892  : 		C1 = *str1;
; 893  : 		C2 = *str2;
; 894  : 
; 895  : 		if((C1 >= WCHAR16('a') ) && (C1 <= WCHAR16('z')))
; 896  : 			C1 += WCHAR16('A' - 'a');
; 897  : 
; 898  : 		if((C2 >= WCHAR16('a')) && (C2 <= WCHAR16('z')))
; 899  : 			C2 += WCHAR16('A' - 'a');
; 900  : 
; 901  : 		if( C1 != C2)
; 902  : 			return C1 - C2;
; 903  : 
; 904  : 		str1++;
; 905  : 		str2++;
; 906  : 	}
; 907  : 	while((*str1 != 0) && (*str2 != 0));
; 908  : 
; 909  : 	C1 = *str1;
; 910  : 	C2 = *str2;
; 911  : 
; 912  : 	return C1 - C2;
; 913  : #endif
; 914  : }

  00003	5d		 pop	 ebp

; 886  : #ifdef USE_C_LIBRARY_FUNCS
; 887  : 	return _wcsicmp( str1, str2);

  00004	e9 00 00 00 00	 jmp	 __wcsicmp
?Compare@i3String@@YAHPBG0@Z ENDP			; i3String::Compare
_TEXT	ENDS
; Function compile flags: /Ogtp
; File E:\Proyectos\JuegosOnlineproyectos\PB\pbblow\Piercing Blow Remake\i3Server\src\i3Base\i3String.cpp
;	COMDAT ?Compare@i3String@@YAHPBD0@Z
_TEXT	SEGMENT
_str1$ = 8						; size = 4
_str2$ = 12						; size = 4
?Compare@i3String@@YAHPBD0@Z PROC			; i3String::Compare, COMDAT

; 840  : {

  00000	55		 push	 ebp
  00001	8b ec		 mov	 ebp, esp

; 844  : 
; 845  : #else
; 846  : 	INT32 C1, C2;
; 847  : 
; 848  : 	if ( str1 == NULL )
; 849  : 	{
; 850  : 		if ( str2 == NULL )
; 851  : 			return 0;
; 852  : 		else
; 853  : 			return -1;
; 854  : 	}
; 855  : 	else if ( str2 == NULL )
; 856  : 	{
; 857  : 		return 1;
; 858  : 	}
; 859  : 
; 860  : 	do
; 861  : 	{
; 862  : 		C1 = *str1++;
; 863  : 		C2 = *str2++;
; 864  : 
; 865  : 		if( C1 != C2)
; 866  : 		{		
; 867  : 			//	ĆŻĽö ą®ŔÚ ¶§ą®żˇ ´ëą®ŔÚ¸¦ ĽŇą®ŔÚ·Î ąŮ˛ăĽ­ ż¬»ęÇĎ´Â ąć˝ÄŔ¸·Î ĽöÁ¤ÇÔ. ´Ů¸Ą ÇÔĽöµµ Ĺ×˝şĆ®ČÄ ĽöÁ¤ ÇĘżä. by 2005.09.30 (KOMET)
; 868  : 			if((C1 >= 'A') && (C1 <= 'Z'))		
; 869  : 				C1 += 'a' - 'A';
; 870  : 
; 871  : 			if((C2 >= 'A') && (C2 <= 'Z'))
; 872  : 				C2 += 'a' - 'A';
; 873  : 			
; 874  : 			if( C1 != C2)
; 875  : 				return C1 < C2 ? -1 : 1;
; 876  : 		}
; 877  : 	}
; 878  : 	while( C1 );
; 879  : 
; 880  : 	return 0;
; 881  : #endif
; 882  : }

  00003	5d		 pop	 ebp

; 841  : #ifdef USE_C_LIBRARY_FUNCS
; 842  : 
; 843  : 	return _stricmp( str1, str2 );

  00004	e9 00 00 00 00	 jmp	 __stricmp
?Compare@i3String@@YAHPBD0@Z ENDP			; i3String::Compare
_TEXT	ENDS
; Function compile flags: /Ogtp
; File E:\Proyectos\JuegosOnlineproyectos\PB\pbblow\Piercing Blow Remake\i3Server\src\i3Base\i3String.cpp
; File E:\Proyectos\JuegosOnlineproyectos\PB\pbblow\Piercing Blow Remake\i3Server\include\i3Base\i3Memory.h
; File E:\Proyectos\JuegosOnlineproyectos\PB\pbblow\Piercing Blow Remake\i3Server\src\i3Base\i3String.cpp
; File E:\Proyectos\JuegosOnlineproyectos\PB\pbblow\Piercing Blow Remake\i3Server\include\i3Base\i3Memory.h
; File E:\Proyectos\JuegosOnlineproyectos\PB\pbblow\Piercing Blow Remake\i3Server\src\i3Base\i3String.cpp
;	COMDAT ?IsMatchedWildcard@i3String@@YA_NPAD0@Z
_TEXT	SEGMENT
_pszFileName$GSCopy$1$ = -1048				; size = 4
_szName$ = -1044					; size = 260
_szExt$ = -784						; size = 260
_szRullName$ = -524					; size = 260
_szRullExt$ = -264					; size = 260
__$ArrayPad$ = -4					; size = 4
_pszFileName$ = 8					; size = 4
_pszRull$ = 12						; size = 4
?IsMatchedWildcard@i3String@@YA_NPAD0@Z PROC		; i3String::IsMatchedWildcard, COMDAT

; 2100 : {

  00000	55		 push	 ebp
  00001	8b ec		 mov	 ebp, esp
  00003	81 ec 18 04 00
	00		 sub	 esp, 1048		; 00000418H
  00009	a1 00 00 00 00	 mov	 eax, DWORD PTR ___security_cookie
  0000e	33 c5		 xor	 eax, ebp
  00010	89 45 fc	 mov	 DWORD PTR __$ArrayPad$[ebp], eax
  00013	8b 45 08	 mov	 eax, DWORD PTR _pszFileName$[ebp]

; 2101 : 	char	szRullName[ MAX_PATH], szRullExt[ MAX_PATH];
; 2102 : 	char	szName[ MAX_PATH], szExt[ MAX_PATH];
; 2103 : 
; 2104 : 	i3String::SplitFileName( pszRull, szRullName, FALSE);

  00016	8d 95 f4 fd ff
	ff		 lea	 edx, DWORD PTR _szRullName$[ebp]
  0001c	53		 push	 ebx
  0001d	8b 5d 0c	 mov	 ebx, DWORD PTR _pszRull$[ebp]
  00020	56		 push	 esi
  00021	57		 push	 edi

; 550  : 	INT32 len = (INT32)strlen( fname);

  00022	8b fb		 mov	 edi, ebx

; 2100 : {

  00024	89 85 e8 fb ff
	ff		 mov	 DWORD PTR _pszFileName$GSCopy$1$[ebp], eax

; 550  : 	INT32 len = (INT32)strlen( fname);

  0002a	8d 4f 01	 lea	 ecx, DWORD PTR [edi+1]
  0002d	8d 49 00	 npad	 3
$LL91@IsMatchedW:
  00030	8a 07		 mov	 al, BYTE PTR [edi]
  00032	47		 inc	 edi
  00033	84 c0		 test	 al, al
  00035	75 f9		 jne	 SHORT $LL91@IsMatchedW
  00037	2b f9		 sub	 edi, ecx

; 551  : 	char *pStart, *pResult;
; 552  : 
; 553  : 	if( len <= 0)

  00039	85 ff		 test	 edi, edi
  0003b	7e 46		 jle	 SHORT $LN19@IsMatchedW

; 554  : 		return (char *) fname;
; 555  : 
; 556  : 	pStart = (char *)(fname + len - 1);

  0003d	8d 4b ff	 lea	 ecx, DWORD PTR [ebx-1]
  00040	03 cf		 add	 ecx, edi

; 557  : 	while((pStart > fname) && (*pStart != '\\') && (*pStart != '/')) 

  00042	3b cb		 cmp	 ecx, ebx
  00044	76 0f		 jbe	 SHORT $LN93@IsMatchedW
$LL8@IsMatchedW:
  00046	8a 01		 mov	 al, BYTE PTR [ecx]
  00048	3c 5c		 cmp	 al, 92			; 0000005cH
  0004a	74 09		 je	 SHORT $LN93@IsMatchedW
  0004c	3c 2f		 cmp	 al, 47			; 0000002fH
  0004e	74 05		 je	 SHORT $LN93@IsMatchedW

; 558  : 		pStart --;

  00050	49		 dec	 ecx
  00051	3b cb		 cmp	 ecx, ebx
  00053	77 f1		 ja	 SHORT $LL8@IsMatchedW
$LN93@IsMatchedW:

; 559  : 
; 560  : 	if((*pStart == '\\') || (*pStart == '/'))

  00055	8a 01		 mov	 al, BYTE PTR [ecx]
  00057	3c 5c		 cmp	 al, 92			; 0000005cH
  00059	74 04		 je	 SHORT $LN14@IsMatchedW
  0005b	3c 2f		 cmp	 al, 47			; 0000002fH
  0005d	75 04		 jne	 SHORT $LN13@IsMatchedW
$LN14@IsMatchedW:

; 561  : 		pStart++;

  0005f	8a 41 01	 mov	 al, BYTE PTR [ecx+1]
  00062	41		 inc	 ecx
$LN13@IsMatchedW:

; 562  : 
; 563  : 	pResult = pStart;
; 564  : 
; 565  : 	while( *pStart) {

  00063	84 c0		 test	 al, al
  00065	74 19		 je	 SHORT $LN87@IsMatchedW
$LL10@IsMatchedW:

; 566  : 		if( Buf != NULL) {

  00067	85 d2		 test	 edx, edx
  00069	74 05		 je	 SHORT $LN15@IsMatchedW

; 567  : 			*Buf = *pStart;

  0006b	8a 01		 mov	 al, BYTE PTR [ecx]
  0006d	88 02		 mov	 BYTE PTR [edx], al

; 568  : 
; 569  : 			Buf++;

  0006f	42		 inc	 edx
$LN15@IsMatchedW:

; 570  : 		}
; 571  : 
; 572  : 		pStart++;
; 573  : 
; 574  : 		if( WithExt == FALSE) 
; 575  : 			if( *pStart == '.') {

  00070	8a 41 01	 mov	 al, BYTE PTR [ecx+1]
  00073	41		 inc	 ecx
  00074	3c 2e		 cmp	 al, 46			; 0000002eH
  00076	74 04		 je	 SHORT $LN61@IsMatchedW

; 562  : 
; 563  : 	pResult = pStart;
; 564  : 
; 565  : 	while( *pStart) {

  00078	84 c0		 test	 al, al
  0007a	75 eb		 jne	 SHORT $LL10@IsMatchedW
$LN61@IsMatchedW:

; 630  : 	int Count = 0;

  0007c	85 d2		 test	 edx, edx
  0007e	74 03		 je	 SHORT $LN19@IsMatchedW
$LN87@IsMatchedW:
  00080	c6 02 00	 mov	 BYTE PTR [edx], 0
$LN19@IsMatchedW:

; 631  : 
; 632  : 	for (int i = (int)strlen(fname) - 1; i >= 0; i--) {

  00083	8d 47 ff	 lea	 eax, DWORD PTR [edi-1]
  00086	33 f6		 xor	 esi, esi
  00088	85 c0		 test	 eax, eax
  0008a	78 31		 js	 SHORT $LN27@IsMatchedW
  0008c	8d 64 24 00	 npad	 4
$LL24@IsMatchedW:

; 633  : 
; 634  : 		if ( fname[i] == '.' ) {

  00090	80 3c 18 2e	 cmp	 BYTE PTR [eax+ebx], 46	; 0000002eH
  00094	8d 0c 18	 lea	 ecx, DWORD PTR [eax+ebx]
  00097	74 08		 je	 SHORT $LN62@IsMatchedW

; 641  : 			}
; 642  : 
; 643  : 			break;
; 644  : 		}
; 645  : 		else
; 646  : 			Count++;

  00099	46		 inc	 esi
  0009a	83 e8 01	 sub	 eax, 1
  0009d	79 f1		 jns	 SHORT $LL24@IsMatchedW

; 634  : 		if ( fname[i] == '.' ) {

  0009f	eb 1c		 jmp	 SHORT $LN27@IsMatchedW
$LN62@IsMatchedW:

; 638  : 				i3mem::Copy( BufExt, (void *)(fname + i + 1), Count);

  000a1	8d 41 01	 lea	 eax, DWORD PTR [ecx+1]
; File E:\Proyectos\JuegosOnlineproyectos\PB\pbblow\Piercing Blow Remake\i3Server\include\i3Base\i3Memory.h

; 134  : 			::CopyMemory( pDest, pSrc, sz);

  000a4	56		 push	 esi
  000a5	50		 push	 eax
  000a6	8d 85 f8 fe ff
	ff		 lea	 eax, DWORD PTR _szRullExt$[ebp]
  000ac	50		 push	 eax
  000ad	e8 00 00 00 00	 call	 _memcpy
  000b2	83 c4 0c	 add	 esp, 12			; 0000000cH
; File E:\Proyectos\JuegosOnlineproyectos\PB\pbblow\Piercing Blow Remake\i3Server\src\i3Base\i3String.cpp

; 640  : 				BufExt[ Count] = 0;

  000b5	c6 84 35 f8 fe
	ff ff 00	 mov	 BYTE PTR _szRullExt$[ebp+esi], 0
$LN27@IsMatchedW:

; 550  : 	INT32 len = (INT32)strlen( fname);

  000bd	8b 9d e8 fb ff
	ff		 mov	 ebx, DWORD PTR _pszFileName$GSCopy$1$[ebp]

; 2105 : 	i3String::SplitFileExt( pszRull, szRullExt, sizeof(szRullExt));
; 2106 : 
; 2107 : 	i3String::SplitFileName( pszFileName, szName, FALSE);

  000c3	8d 95 ec fb ff
	ff		 lea	 edx, DWORD PTR _szName$[ebp]

; 550  : 	INT32 len = (INT32)strlen( fname);

  000c9	8b fb		 mov	 edi, ebx
  000cb	8d 4f 01	 lea	 ecx, DWORD PTR [edi+1]
  000ce	8b ff		 npad	 2
$LL92@IsMatchedW:
  000d0	8a 07		 mov	 al, BYTE PTR [edi]
  000d2	47		 inc	 edi
  000d3	84 c0		 test	 al, al
  000d5	75 f9		 jne	 SHORT $LL92@IsMatchedW
  000d7	2b f9		 sub	 edi, ecx

; 551  : 	char *pStart, *pResult;
; 552  : 
; 553  : 	if( len <= 0)

  000d9	85 ff		 test	 edi, edi
  000db	7e 46		 jle	 SHORT $LN43@IsMatchedW

; 554  : 		return (char *) fname;
; 555  : 
; 556  : 	pStart = (char *)(fname + len - 1);

  000dd	8d 4b ff	 lea	 ecx, DWORD PTR [ebx-1]
  000e0	03 cf		 add	 ecx, edi

; 557  : 	while((pStart > fname) && (*pStart != '\\') && (*pStart != '/')) 

  000e2	3b cb		 cmp	 ecx, ebx
  000e4	76 0f		 jbe	 SHORT $LN94@IsMatchedW
$LL32@IsMatchedW:
  000e6	8a 01		 mov	 al, BYTE PTR [ecx]
  000e8	3c 5c		 cmp	 al, 92			; 0000005cH
  000ea	74 09		 je	 SHORT $LN94@IsMatchedW
  000ec	3c 2f		 cmp	 al, 47			; 0000002fH
  000ee	74 05		 je	 SHORT $LN94@IsMatchedW

; 558  : 		pStart --;

  000f0	49		 dec	 ecx
  000f1	3b cb		 cmp	 ecx, ebx
  000f3	77 f1		 ja	 SHORT $LL32@IsMatchedW
$LN94@IsMatchedW:

; 559  : 
; 560  : 	if((*pStart == '\\') || (*pStart == '/'))

  000f5	8a 01		 mov	 al, BYTE PTR [ecx]
  000f7	3c 5c		 cmp	 al, 92			; 0000005cH
  000f9	74 04		 je	 SHORT $LN38@IsMatchedW
  000fb	3c 2f		 cmp	 al, 47			; 0000002fH
  000fd	75 04		 jne	 SHORT $LN37@IsMatchedW
$LN38@IsMatchedW:

; 561  : 		pStart++;

  000ff	8a 41 01	 mov	 al, BYTE PTR [ecx+1]
  00102	41		 inc	 ecx
$LN37@IsMatchedW:

; 562  : 
; 563  : 	pResult = pStart;
; 564  : 
; 565  : 	while( *pStart) {

  00103	84 c0		 test	 al, al
  00105	74 19		 je	 SHORT $LN88@IsMatchedW
$LL34@IsMatchedW:

; 566  : 		if( Buf != NULL) {

  00107	85 d2		 test	 edx, edx
  00109	74 05		 je	 SHORT $LN39@IsMatchedW

; 567  : 			*Buf = *pStart;

  0010b	8a 01		 mov	 al, BYTE PTR [ecx]
  0010d	88 02		 mov	 BYTE PTR [edx], al

; 568  : 
; 569  : 			Buf++;

  0010f	42		 inc	 edx
$LN39@IsMatchedW:

; 570  : 		}
; 571  : 
; 572  : 		pStart++;
; 573  : 
; 574  : 		if( WithExt == FALSE) 
; 575  : 			if( *pStart == '.') {

  00110	8a 41 01	 mov	 al, BYTE PTR [ecx+1]
  00113	41		 inc	 ecx
  00114	3c 2e		 cmp	 al, 46			; 0000002eH
  00116	74 04		 je	 SHORT $LN63@IsMatchedW

; 562  : 
; 563  : 	pResult = pStart;
; 564  : 
; 565  : 	while( *pStart) {

  00118	84 c0		 test	 al, al
  0011a	75 eb		 jne	 SHORT $LL34@IsMatchedW
$LN63@IsMatchedW:

; 630  : 	int Count = 0;

  0011c	85 d2		 test	 edx, edx
  0011e	74 03		 je	 SHORT $LN43@IsMatchedW
$LN88@IsMatchedW:
  00120	c6 02 00	 mov	 BYTE PTR [edx], 0
$LN43@IsMatchedW:

; 631  : 
; 632  : 	for (int i = (int)strlen(fname) - 1; i >= 0; i--) {

  00123	8d 47 ff	 lea	 eax, DWORD PTR [edi-1]
  00126	33 f6		 xor	 esi, esi
  00128	85 c0		 test	 eax, eax
  0012a	78 31		 js	 SHORT $LN51@IsMatchedW
  0012c	8d 64 24 00	 npad	 4
$LL48@IsMatchedW:

; 633  : 
; 634  : 		if ( fname[i] == '.' ) {

  00130	80 3c 18 2e	 cmp	 BYTE PTR [eax+ebx], 46	; 0000002eH
  00134	8d 0c 18	 lea	 ecx, DWORD PTR [eax+ebx]
  00137	74 08		 je	 SHORT $LN64@IsMatchedW

; 641  : 			}
; 642  : 
; 643  : 			break;
; 644  : 		}
; 645  : 		else
; 646  : 			Count++;

  00139	46		 inc	 esi
  0013a	83 e8 01	 sub	 eax, 1
  0013d	79 f1		 jns	 SHORT $LL48@IsMatchedW

; 633  : 
; 634  : 		if ( fname[i] == '.' ) {

  0013f	eb 1c		 jmp	 SHORT $LN51@IsMatchedW
$LN64@IsMatchedW:

; 635  : 
; 636  : 			if (BufExt != NULL)
; 637  : 			{
; 638  : 				i3mem::Copy( BufExt, (void *)(fname + i + 1), Count);

  00141	8d 41 01	 lea	 eax, DWORD PTR [ecx+1]
; File E:\Proyectos\JuegosOnlineproyectos\PB\pbblow\Piercing Blow Remake\i3Server\include\i3Base\i3Memory.h

; 134  : 			::CopyMemory( pDest, pSrc, sz);

  00144	56		 push	 esi
  00145	50		 push	 eax
  00146	8d 85 f0 fc ff
	ff		 lea	 eax, DWORD PTR _szExt$[ebp]
  0014c	50		 push	 eax
  0014d	e8 00 00 00 00	 call	 _memcpy
  00152	83 c4 0c	 add	 esp, 12			; 0000000cH
; File E:\Proyectos\JuegosOnlineproyectos\PB\pbblow\Piercing Blow Remake\i3Server\src\i3Base\i3String.cpp

; 640  : 				BufExt[ Count] = 0;

  00155	c6 84 35 f0 fc
	ff ff 00	 mov	 BYTE PTR _szExt$[ebp+esi], 0
$LN51@IsMatchedW:

; 2108 : 	i3String::SplitFileExt(	 pszFileName, szExt, sizeof(szExt) - 1);
; 2109 : 
; 2110 : 	if( szRullName[0] != 0)

  0015d	80 bd f4 fd ff
	ff 00		 cmp	 BYTE PTR _szRullName$[ebp], 0
  00164	5f		 pop	 edi
  00165	5e		 pop	 esi
  00166	5b		 pop	 ebx
  00167	74 28		 je	 SHORT $LN3@IsMatchedW

; 2111 : 	{
; 2112 : 		if( _scanWildcard( szName, szRullName) == false)

  00169	8d 85 f4 fd ff
	ff		 lea	 eax, DWORD PTR _szRullName$[ebp]
  0016f	50		 push	 eax
  00170	8d 85 ec fb ff
	ff		 lea	 eax, DWORD PTR _szName$[ebp]
  00176	50		 push	 eax
  00177	e8 00 00 00 00	 call	 ?_scanWildcard@@YA_NPAD0@Z ; _scanWildcard
  0017c	83 c4 08	 add	 esp, 8
  0017f	84 c0		 test	 al, al
  00181	75 0e		 jne	 SHORT $LN3@IsMatchedW

; 2119 : 			return false;
; 2120 : 	}
; 2121 : 
; 2122 : 	return true;
; 2123 : }

  00183	8b 4d fc	 mov	 ecx, DWORD PTR __$ArrayPad$[ebp]
  00186	33 cd		 xor	 ecx, ebp
  00188	e8 00 00 00 00	 call	 @__security_check_cookie@4
  0018d	8b e5		 mov	 esp, ebp
  0018f	5d		 pop	 ebp
  00190	c3		 ret	 0
$LN3@IsMatchedW:

; 2113 : 			return false;
; 2114 : 	}
; 2115 : 
; 2116 : 	if( szRullExt[0] != 0)

  00191	80 bd f8 fe ff
	ff 00		 cmp	 BYTE PTR _szRullExt$[ebp], 0
  00198	74 29		 je	 SHORT $LN5@IsMatchedW

; 2117 : 	{
; 2118 : 		if( _scanWildcard( szExt, szRullExt) == false)

  0019a	8d 85 f8 fe ff
	ff		 lea	 eax, DWORD PTR _szRullExt$[ebp]
  001a0	50		 push	 eax
  001a1	8d 85 f0 fc ff
	ff		 lea	 eax, DWORD PTR _szExt$[ebp]
  001a7	50		 push	 eax
  001a8	e8 00 00 00 00	 call	 ?_scanWildcard@@YA_NPAD0@Z ; _scanWildcard
  001ad	83 c4 08	 add	 esp, 8
  001b0	84 c0		 test	 al, al
  001b2	0f 95 c0	 setne	 al

; 2119 : 			return false;
; 2120 : 	}
; 2121 : 
; 2122 : 	return true;
; 2123 : }

  001b5	8b 4d fc	 mov	 ecx, DWORD PTR __$ArrayPad$[ebp]
  001b8	33 cd		 xor	 ecx, ebp
  001ba	e8 00 00 00 00	 call	 @__security_check_cookie@4
  001bf	8b e5		 mov	 esp, ebp
  001c1	5d		 pop	 ebp
  001c2	c3		 ret	 0
$LN5@IsMatchedW:
  001c3	8b 4d fc	 mov	 ecx, DWORD PTR __$ArrayPad$[ebp]
  001c6	b0 01		 mov	 al, 1
  001c8	33 cd		 xor	 ecx, ebp
  001ca	e8 00 00 00 00	 call	 @__security_check_cookie@4
  001cf	8b e5		 mov	 esp, ebp
  001d1	5d		 pop	 ebp
  001d2	c3		 ret	 0
?IsMatchedWildcard@i3String@@YA_NPAD0@Z ENDP		; i3String::IsMatchedWildcard
_TEXT	ENDS
; Function compile flags: /Ogtp
; File E:\Proyectos\JuegosOnlineproyectos\PB\pbblow\Piercing Blow Remake\i3Server\src\i3Base\i3String.cpp
;	COMDAT ?RemoveFileName@i3String@@YAXPAD@Z
_TEXT	SEGMENT
_Path$ = 8						; size = 4
?RemoveFileName@i3String@@YAXPAD@Z PROC			; i3String::RemoveFileName, COMDAT

; 822  : {	

  00000	55		 push	 ebp
  00001	8b ec		 mov	 ebp, esp

; 823  : 	char* p;
; 824  : 
; 825  : 	p = Path;

  00003	8b 55 08	 mov	 edx, DWORD PTR _Path$[ebp]
  00006	8b c2		 mov	 eax, edx

; 826  : 	if( *p == 0 ) return;

  00008	80 3a 00	 cmp	 BYTE PTR [edx], 0
  0000b	74 20		 je	 SHORT $LN1@RemoveFile
  0000d	8d 49 00	 npad	 3
$LL2@RemoveFile:

; 827  : 
; 828  : 	while( *p) p++;

  00010	40		 inc	 eax
  00011	80 38 00	 cmp	 BYTE PTR [eax], 0
  00014	75 fa		 jne	 SHORT $LL2@RemoveFile
$LL6@RemoveFile:

; 829  : 
; 830  : 	do
; 831  : 	{
; 832  : 		*p = 0;

  00016	c6 00 00	 mov	 BYTE PTR [eax], 0

; 833  : 		p--;

  00019	48		 dec	 eax

; 834  : 	}
; 835  : 	while( (*p != '\\') && (*p != '/') && (p > Path) );

  0001a	8a 08		 mov	 cl, BYTE PTR [eax]
  0001c	80 f9 5c	 cmp	 cl, 92			; 0000005cH
  0001f	74 09		 je	 SHORT $LN8@RemoveFile
  00021	80 f9 2f	 cmp	 cl, 47			; 0000002fH
  00024	74 04		 je	 SHORT $LN8@RemoveFile
  00026	3b c2		 cmp	 eax, edx
  00028	77 ec		 ja	 SHORT $LL6@RemoveFile
$LN8@RemoveFile:

; 836  : 	*p = 0;

  0002a	c6 00 00	 mov	 BYTE PTR [eax], 0
$LN1@RemoveFile:

; 837  : }

  0002d	5d		 pop	 ebp
  0002e	c3		 ret	 0
?RemoveFileName@i3String@@YAXPAD@Z ENDP			; i3String::RemoveFileName
_TEXT	ENDS
; Function compile flags: /Ogtp
; File E:\Proyectos\JuegosOnlineproyectos\PB\pbblow\Piercing Blow Remake\i3Server\src\i3Base\i3String.cpp
;	COMDAT ?PreprocessMacro@i3String@@YAXPADHPBDPAUi3SymbolTableInfo@@H@Z
_TEXT	SEGMENT
_pTable$GSCopy$1$ = -80					; size = 4
_symAccm$1$ = -76					; size = 4
_szSym$ = -72						; size = 65
__$ArrayPad$ = -4					; size = 4
_pszDest$ = 8						; size = 4
_Length$ = 12						; size = 4
_pszSrc$ = 16						; size = 4
_pTable$ = 20						; size = 4
_symbolCount$ = 24					; size = 4
?PreprocessMacro@i3String@@YAXPADHPBDPAUi3SymbolTableInfo@@H@Z PROC ; i3String::PreprocessMacro, COMDAT

; 2002 : {

  00000	55		 push	 ebp
  00001	8b ec		 mov	 ebp, esp
  00003	83 ec 50	 sub	 esp, 80			; 00000050H
  00006	a1 00 00 00 00	 mov	 eax, DWORD PTR ___security_cookie
  0000b	33 c5		 xor	 eax, ebp
  0000d	89 45 fc	 mov	 DWORD PTR __$ArrayPad$[ebp], eax
  00010	8b 45 14	 mov	 eax, DWORD PTR _pTable$[ebp]

; 2003 : 	char * pszTemp = (char *) pszSrc;
; 2004 : 	char szSym[65];
; 2005 : 	INT32 symAccm = 0;
; 2006 : 	bool bInSymbol = false;

  00013	32 c9		 xor	 cl, cl
  00015	56		 push	 esi

; 2007 : 	I3_SYMBOLTABLE_INFO * pSymbol;
; 2008 : 
; 2009 : 	while( *pszTemp != 0)

  00016	8b 75 10	 mov	 esi, DWORD PTR _pszSrc$[ebp]
  00019	89 45 b0	 mov	 DWORD PTR _pTable$GSCopy$1$[ebp], eax
  0001c	33 c0		 xor	 eax, eax
  0001e	57		 push	 edi
  0001f	8b 7d 08	 mov	 edi, DWORD PTR _pszDest$[ebp]
  00022	8a 16		 mov	 dl, BYTE PTR [esi]
  00024	84 d2		 test	 dl, dl
  00026	0f 84 cb 00 00
	00		 je	 $LN36@Preprocess
  0002c	53		 push	 ebx
  0002d	8b 5d 18	 mov	 ebx, DWORD PTR _symbolCount$[ebp]
$LL2@Preprocess:

; 2010 : 	{
; 2011 : 		switch( *pszTemp)

  00030	80 fa 25	 cmp	 dl, 37			; 00000025H
  00033	74 18		 je	 SHORT $LN6@Preprocess

; 2048 : 				}
; 2049 : 				break;
; 2050 : 
; 2051 : 			default :
; 2052 : 				if( bInSymbol)

  00035	8a 16		 mov	 dl, BYTE PTR [esi]
  00037	84 c9		 test	 cl, cl
  00039	74 0a		 je	 SHORT $LN14@Preprocess

; 2053 : 				{
; 2054 : 					szSym[ symAccm ] = *pszTemp;

  0003b	88 54 05 b8	 mov	 BYTE PTR _szSym$[ebp+eax], dl

; 2055 : 					symAccm ++;

  0003f	40		 inc	 eax

; 2056 : 				}

  00040	e9 a2 00 00 00	 jmp	 $LN8@Preprocess
$LN14@Preprocess:

; 2057 : 				else
; 2058 : 				{
; 2059 : 					*pszDest = *pszTemp;

  00045	88 17		 mov	 BYTE PTR [edi], dl

; 2060 : 					pszDest++;

  00047	47		 inc	 edi
  00048	e9 9a 00 00 00	 jmp	 $LN8@Preprocess
$LN6@Preprocess:

; 2012 : 		{
; 2013 : 			case '%' :
; 2014 : 				if( bInSymbol)

  0004d	84 c9		 test	 cl, cl
  0004f	0f 84 8e 00 00
	00		 je	 $LN7@Preprocess

; 2015 : 				{
; 2016 : 					if( symAccm == 0)

  00055	85 c0		 test	 eax, eax
  00057	75 0b		 jne	 SHORT $LN9@Preprocess

; 2017 : 					{
; 2018 : 						// %% ŔÇ °ćżě
; 2019 : 						*pszDest = '%';

  00059	c6 07 25	 mov	 BYTE PTR [edi], 37	; 00000025H

; 2020 : 						pszDest++;

  0005c	47		 inc	 edi

; 2035 : 						}
; 2036 : 						else
; 2037 : 						{
; 2038 : 							I3TRACE( "żĂąŮ¸ŁÁö ľĘŔş Symbol : %s\n", szSym);
; 2039 : 						}
; 2040 : 					}
; 2041 : 
; 2042 : 					bInSymbol = false;

  0005d	32 c9		 xor	 cl, cl

; 2043 : 				}

  0005f	e9 83 00 00 00	 jmp	 $LN8@Preprocess
$LN9@Preprocess:

; 2021 : 					}
; 2022 : 					else
; 2023 : 					{
; 2024 : 						szSym[ symAccm] = 0;

  00064	83 f8 41	 cmp	 eax, 65			; 00000041H
  00067	0f 83 9d 00 00
	00		 jae	 $LN17@Preprocess
  0006d	c6 44 05 b8 00	 mov	 BYTE PTR _szSym$[ebp+eax], 0

; 1989 : 	for( i = 0; i < symbolCount; i++)

  00072	33 f6		 xor	 esi, esi

; 2025 : 						symAccm = 0;

  00074	33 c0		 xor	 eax, eax
  00076	89 45 b4	 mov	 DWORD PTR _symAccm$1$[ebp], eax

; 1989 : 	for( i = 0; i < symbolCount; i++)

  00079	85 db		 test	 ebx, ebx
  0007b	7e 5f		 jle	 SHORT $LN39@Preprocess
  0007d	8d 49 00	 npad	 3
$LL22@Preprocess:

; 1990 : 	{
; 1991 : 		if( i3String::Compare( pTable[i].m_szSymbol, pszStr) == 0)

  00080	8b 4d b0	 mov	 ecx, DWORD PTR _pTable$GSCopy$1$[ebp]
  00083	8d 1c b6	 lea	 ebx, DWORD PTR [esi+esi*4]

; 843  : 	return _stricmp( str1, str2 );

  00086	8d 45 b8	 lea	 eax, DWORD PTR _szSym$[ebp]

; 1991 : 		if( i3String::Compare( pTable[i].m_szSymbol, pszStr) == 0)

  00089	c1 e3 06	 shl	 ebx, 6
  0008c	03 d9		 add	 ebx, ecx

; 843  : 	return _stricmp( str1, str2 );

  0008e	50		 push	 eax
  0008f	53		 push	 ebx
  00090	e8 00 00 00 00	 call	 __stricmp
  00095	83 c4 08	 add	 esp, 8

; 1991 : 		if( i3String::Compare( pTable[i].m_szSymbol, pszStr) == 0)

  00098	85 c0		 test	 eax, eax
  0009a	74 12		 je	 SHORT $LN29@Preprocess

; 844  : 
; 845  : #else
; 846  : 	INT32 C1, C2;
; 847  : 
; 848  : 	if ( str1 == NULL )
; 849  : 	{
; 850  : 		if ( str2 == NULL )
; 851  : 			return 0;
; 852  : 		else
; 853  : 			return -1;
; 854  : 	}
; 855  : 	else if ( str2 == NULL )
; 856  : 	{
; 857  : 		return 1;
; 858  : 	}
; 859  : 
; 860  : 	do
; 861  : 	{
; 862  : 		C1 = *str1++;
; 863  : 		C2 = *str2++;
; 864  : 
; 865  : 		if( C1 != C2)
; 866  : 		{		
; 867  : 			//	ĆŻĽö ą®ŔÚ ¶§ą®żˇ ´ëą®ŔÚ¸¦ ĽŇą®ŔÚ·Î ąŮ˛ăĽ­ ż¬»ęÇĎ´Â ąć˝ÄŔ¸·Î ĽöÁ¤ÇÔ. ´Ů¸Ą ÇÔĽöµµ Ĺ×˝şĆ®ČÄ ĽöÁ¤ ÇĘżä. by 2005.09.30 (KOMET)
; 868  : 			if((C1 >= 'A') && (C1 <= 'Z'))		
; 869  : 				C1 += 'a' - 'A';
; 870  : 
; 871  : 			if((C2 >= 'A') && (C2 <= 'Z'))
; 872  : 				C2 += 'a' - 'A';
; 873  : 			
; 874  : 			if( C1 != C2)
; 875  : 				return C1 < C2 ? -1 : 1;
; 876  : 		}
; 877  : 	}
; 878  : 	while( C1 );
; 879  : 
; 880  : 	return 0;
; 881  : #endif
; 882  : }
; 883  : 
; 884  : INT32 i3String::Compare( const wchar_t* str1, const wchar_t* str2)
; 885  : {
; 886  : #ifdef USE_C_LIBRARY_FUNCS
; 887  : 	return _wcsicmp( str1, str2);
; 888  : #else
; 889  : 	WCHAR16 C1, C2;
; 890  : 	do
; 891  : 	{
; 892  : 		C1 = *str1;
; 893  : 		C2 = *str2;
; 894  : 
; 895  : 		if((C1 >= WCHAR16('a') ) && (C1 <= WCHAR16('z')))
; 896  : 			C1 += WCHAR16('A' - 'a');
; 897  : 
; 898  : 		if((C2 >= WCHAR16('a')) && (C2 <= WCHAR16('z')))
; 899  : 			C2 += WCHAR16('A' - 'a');
; 900  : 
; 901  : 		if( C1 != C2)
; 902  : 			return C1 - C2;
; 903  : 
; 904  : 		str1++;
; 905  : 		str2++;
; 906  : 	}
; 907  : 	while((*str1 != 0) && (*str2 != 0));
; 908  : 
; 909  : 	C1 = *str1;
; 910  : 	C2 = *str2;
; 911  : 
; 912  : 	return C1 - C2;
; 913  : #endif
; 914  : }
; 915  : 
; 916  : INT32 i3String::NCompare( const char* str1, const char* str2, INT32 size)
; 917  : {
; 918  : #ifdef USE_C_LIBRARY_FUNCS
; 919  : 
; 920  : 	return _strnicmp( str1, str2, size );
; 921  : 
; 922  : #else
; 923  : 	INT32	C1, C2;
; 924  : 	INT32	nSize = 0;
; 925  : 
; 926  : 	if ( str1 == NULL )
; 927  : 	{
; 928  : 		if ( str2 == NULL )
; 929  : 			return 0;
; 930  : 		else
; 931  : 			return -1;
; 932  : 	}
; 933  : 	else if ( str2 == NULL )
; 934  : 	{
; 935  : 		return 1;
; 936  : 	}
; 937  : 
; 938  : 	do 
; 939  : 	{
; 940  : 		C1 = *str1;
; 941  : 		C2 = *str2;
; 942  : 
; 943  : 		if((C1 >= 'a') && (C1 <= 'z'))
; 944  : 			C1 += 'A' - 'a';
; 945  : 
; 946  : 		if((C2 >= 'a') && (C2 <= 'z'))
; 947  : 			C2 += 'A' - 'a';
; 948  : 
; 949  : 		if( C1 != C2)
; 950  : 			return C1 - C2;
; 951  : 
; 952  : 		str1++;
; 953  : 		str2++;
; 954  : 		nSize++;
; 955  : 	} 
; 956  : 	while((*str1 != 0) && (*str2 != 0) && (nSize < size));
; 957  : 
; 958  : 	if(*str1 == 0)
; 959  : 		return *str1 - *str2;
; 960  : 
; 961  : 	return 0;
; 962  : #endif
; 963  : }
; 964  : 
; 965  : INT32 i3String::NCompareW( const WCHAR16* str1, const WCHAR16* str2, INT32 size)
; 966  : {
; 967  : #ifdef USE_C_LIBRARY_FUNCS
; 968  : 	return _wcsnicmp( str1, str2, size);
; 969  : #else
; 970  : 	WCHAR16	C1, C2;
; 971  : 	INT32 nSize = 0;
; 972  : 
; 973  : 	do 
; 974  : 	{
; 975  : 		C1 = *str1;
; 976  : 		C2 = *str2;
; 977  : 
; 978  : 		if((C1 >= WCHAR16('a')) && (C1 <= WCHAR16('z')))
; 979  : 			C1 += 'A' - 'a';
; 980  : 
; 981  : 		if((C2 >= WCHAR16('a')) && (C2 <= WCHAR16('z')))
; 982  : 			C2 += WCHAR16('A') - WCHAR16('a');
; 983  : 
; 984  : 		if( C1 != C2)
; 985  : 			return C1 - C2;
; 986  : 
; 987  : 		str1++;
; 988  : 		str2++;
; 989  : 		nSize++;
; 990  : 	}
; 991  : 	while((*str1 != 0) && (nSize < size));
; 992  : 
; 993  : 	if(*str1 == 0)
; 994  : 		return *str1 - *str2;
; 995  : 
; 996  : 	return 0;
; 997  : #endif
; 998  : }
; 999  : 
; 1000 : INT32 i3String::CompareCase( const char* str1, const char* str2)
; 1001 : {
; 1002 : #ifdef USE_C_LIBRARY_FUNCS
; 1003 : 
; 1004 : 	return strcmp( str1, str2 );
; 1005 : 
; 1006 : #else
; 1007 : 	char C1, C2;
; 1008 : 
; 1009 : 	do
; 1010 : 	{
; 1011 : 		C1 = *str1;
; 1012 : 		C2 = *str2;
; 1013 : 
; 1014 : 		if( C1 != C2)
; 1015 : 			return C1 - C2;
; 1016 : 
; 1017 : 		str1++;
; 1018 : 		str2++;
; 1019 : 	} while((*str1 != 0) && (*str2 != 0));
; 1020 : 
; 1021 : 	C1 = *str1;
; 1022 : 	C2 = *str2;
; 1023 : 
; 1024 : 	return C1 - C2;
; 1025 : #endif
; 1026 : }
; 1027 : 
; 1028 : INT32 i3String::CompareCaseW( const WCHAR16 * str1, const WCHAR16 * str2 )
; 1029 : {
; 1030 : 	WCHAR16 C1, C2;
; 1031 : 
; 1032 : 	do
; 1033 : 	{
; 1034 : 		C1 = *str1;
; 1035 : 		C2 = *str2;
; 1036 : 
; 1037 : 		if( C1 != C2)
; 1038 : 		{
; 1039 : 			return C1 - C2;
; 1040 : 		}
; 1041 : 
; 1042 : 		str1++;
; 1043 : 		str2++;
; 1044 : 	}
; 1045 : 	while( (*str1 != 0) && (*str2 != 0) );
; 1046 : 
; 1047 : 	C1 = *str1;
; 1048 : 	C2 = *str2;
; 1049 : 
; 1050 : 	return C1 - C2;
; 1051 : }
; 1052 : 
; 1053 : INT32 i3String::Length( const char * pStr1)
; 1054 : {
; 1055 : 	INT32 Count = 0;
; 1056 : 
; 1057 : 	while( *pStr1)
; 1058 : 	{
; 1059 : 		Count++;
; 1060 : 		pStr1++;
; 1061 : 	}
; 1062 : 
; 1063 : 	return Count;
; 1064 : }
; 1065 : 
; 1066 : INT32 i3String::Length( const wchar_t * pStr )
; 1067 : {
; 1068 : 	INT32 Count = 0;
; 1069 : 
; 1070 : 	while( *pStr )
; 1071 : 	{
; 1072 : 		Count++;
; 1073 : 		pStr++;
; 1074 : 	}
; 1075 : 
; 1076 : 	return Count;
; 1077 : }
; 1078 : 
; 1079 : // pStr ą®ŔÚż­ ľČżˇ ch°ˇ ŔÖŔ¸¸é ±× Ŕ§Äˇ¸¦ ąÝČŻÇŃ´Ů.
; 1080 : // ľŐżˇĽ­ şÎĹÍ ĂŁ´Â´Ů.
; 1081 : // ľřŔ¸¸é -1 ąÝČŻ
; 1082 : INT32 i3String::ContainChar( const char * pStr, char ch )
; 1083 : {
; 1084 : 	INT32 idx = 0;
; 1085 : 
; 1086 : 	const char *pCur = pStr;
; 1087 : 
; 1088 : 	for( pCur = pStr, idx = 0; *pCur != 0; pCur++, idx++ )
; 1089 : 	{
; 1090 : 		if( *pCur == ch )
; 1091 : 		{
; 1092 : 			return idx;
; 1093 : 		}
; 1094 : 	}
; 1095 : 
; 1096 : 	return -1;
; 1097 : }
; 1098 : 
; 1099 : // pStr ą®ŔÚż­ ľČżˇ ch°ˇ ŔÖŔ¸¸é ±× Ŕ§Äˇ¸¦ ąÝČŻÇŃ´Ů.
; 1100 : // ľŐżˇĽ­ şÎĹÍ ĂŁ´Â´Ů.
; 1101 : // ľřŔ¸¸é -1 ąÝČŻ
; 1102 : INT32 i3String::ContainChar( const wchar_t * pStr, wchar_t ch )
; 1103 : {
; 1104 : 	INT32 idx = 0;
; 1105 : 
; 1106 : 	const wchar_t *pCur = pStr;
; 1107 : 
; 1108 : 	for( pCur = pStr, idx = 0; *pCur != 0; pCur++, idx++ )
; 1109 : 	{
; 1110 : 		if( *pCur == ch )
; 1111 : 		{
; 1112 : 			return idx;
; 1113 : 		}
; 1114 : 	}
; 1115 : 
; 1116 : 	return -1;
; 1117 : }
; 1118 : 
; 1119 : // pStr ą®ŔÚż­ ľČżˇ ch°ˇ ŔÖŔ¸¸é ±× Ŕ§Äˇ¸¦ ąÝČŻÇŃ´Ů.
; 1120 : // µÚżˇĽ­ şÎĹÍ ĂŁ´Â´Ů.
; 1121 : // ľřŔ¸¸é -1 ąÝČŻ
; 1122 : INT32 i3String::ContainCharRev( const char * pStr, char ch )
; 1123 : {
; 1124 : 	INT32 nLen = Length( pStr );
; 1125 : 	if( nLen <= 0 ) return -1;
; 1126 : 
; 1127 : 	INT32 i;
; 1128 : 	for( i = nLen - 1; i >= 0; i-- )
; 1129 : 	{
; 1130 : 		if( pStr[i] == ch )
; 1131 : 		{
; 1132 : 			return i;
; 1133 : 		}
; 1134 : 	}
; 1135 : 
; 1136 : 	return -1;
; 1137 : }
; 1138 : 
; 1139 : INT32 i3String::Contain( const char * pszStr, const char * pszKey)
; 1140 : {
; 1141 : 	INT32 Len;
; 1142 : 	INT32 idxKey = 0, idxStr = 0, StartIdx = 0;
; 1143 : 
; 1144 : 	Len = Length( pszKey);
; 1145 : 
; 1146 : 	while( pszStr[ idxStr])
; 1147 : 	{
; 1148 : 		if( pszStr[idxStr] == pszKey[idxKey])
; 1149 : 		{
; 1150 : 			if( idxKey == 0)
; 1151 : 				StartIdx = idxStr;
; 1152 : 
; 1153 : 			idxKey++;
; 1154 : 
; 1155 : 			if( idxKey >= Len)
; 1156 : 				return StartIdx;
; 1157 : 		}
; 1158 : 		else
; 1159 : 		{
; 1160 : 			if( idxKey != 0 )
; 1161 : 				idxStr--;
; 1162 : 
; 1163 : 			idxKey = 0;
; 1164 : 		}
; 1165 : 
; 1166 : 		idxStr++;
; 1167 : 	}
; 1168 : 
; 1169 : 	return -1;
; 1170 : }
; 1171 : 
; 1172 : // BF-Search żÍ °°Ŕ˝..
; 1173 : // Contain ÇĎ°í ŔÖ´Â °ćżě 0ş¸´Ů Ĺ©°ĹłŞ °°Ŕş°Ş(starting index)Ŕ» return
; 1174 : INT32 i3String::ContainNew( const char* pStr1, const char* pStr2)
; 1175 : {
; 1176 : 	INT32 i = 0;	// index of str1
; 1177 : 	INT32 j = 0;	// index of str2
; 1178 : 	
; 1179 : 	INT32 nFirstCharIdx = 0;
; 1180 : 	INT32 nLen = Length( pStr2);
; 1181 : 
; 1182 : 	while( pStr1[i] != 0)
; 1183 : 	{
; 1184 : 		if( pStr1[i] == pStr2[j])
; 1185 : 		{
; 1186 : 			if( j == 0)
; 1187 : 				nFirstCharIdx = i;
; 1188 : 			
; 1189 : 			if( j == nLen-1)
; 1190 : 				return nFirstCharIdx;
; 1191 : 
; 1192 : 			j++;
; 1193 : 		}
; 1194 : 		else
; 1195 : 		{
; 1196 : 			if( j != 0)
; 1197 : 			{
; 1198 : 				i = nFirstCharIdx;
; 1199 : 				j = 0;
; 1200 : 			}
; 1201 : 		}
; 1202 : 
; 1203 : 		i++;
; 1204 : 	}
; 1205 : 
; 1206 : 	return -1;
; 1207 : }
; 1208 : 
; 1209 : INT32 i3String::ContainNoCase( const char * pszStr, const char * pszKey)
; 1210 : {
; 1211 : 	INT32 Len;
; 1212 : 	INT32 idxKey = 0, idxStr = 0, StartIdx = 0;
; 1213 : 	INT32 C1 = 0, C2 = 0;
; 1214 : 
; 1215 : 	Len = Length( pszKey);
; 1216 : 
; 1217 : 	while( pszStr[ idxStr])
; 1218 : 	{
; 1219 : 		C1 = pszStr[idxStr];
; 1220 : 		C2 = pszKey[idxKey];
; 1221 : 
; 1222 : 		if( C1 != C2)
; 1223 : 		{		
; 1224 : 			//	´ëĽŇą®ŔÚ ±¸şĐ ľřľÚ.
; 1225 : 			if((C1 >= 'A') && (C1 <= 'Z'))		
; 1226 : 				C1 += 'a' - 'A';
; 1227 : 
; 1228 : 			if((C2 >= 'A') && (C2 <= 'Z'))
; 1229 : 				C2 += 'a' - 'A';
; 1230 : 		}
; 1231 : 
; 1232 : 		if( C1 == C2)
; 1233 : 		{
; 1234 : 			if( idxKey == 0)
; 1235 : 				StartIdx = idxStr;
; 1236 : 
; 1237 : 			idxKey++;
; 1238 : 
; 1239 : 			if( idxKey >= Len)
; 1240 : 				return StartIdx;
; 1241 : 		}
; 1242 : 		else
; 1243 : 		{
; 1244 : 			if( idxKey != 0 )
; 1245 : 				idxStr --;
; 1246 : 
; 1247 : 			idxKey = 0;
; 1248 : 		}
; 1249 : 
; 1250 : 		idxStr++;
; 1251 : 	}
; 1252 : 
; 1253 : 	return -1;
; 1254 : }
; 1255 : 
; 1256 : INT32 i3String::ContainNative( const char * pStr)
; 1257 : {
; 1258 : 	INT32 Idx = 0;
; 1259 : 
; 1260 : 	while( *pStr)
; 1261 : 	{
; 1262 : 		if( *pStr & 0x80)
; 1263 : 		{
; 1264 : 			return Idx;
; 1265 : 		}
; 1266 : 
; 1267 : 		Idx++;
; 1268 : 		pStr++;
; 1269 : 	}
; 1270 : 
; 1271 : 	return -1;
; 1272 : }
; 1273 : 
; 1274 : INT32 i3String::ContainW( const WCHAR16 * pStr1, const WCHAR16 * pStr2)
; 1275 : {
; 1276 : 	INT32 Len;
; 1277 : 	INT32 Idx = 0, StartIdx = 0;
; 1278 : 
; 1279 : 	Len = Length( pStr2);
; 1280 : 
; 1281 : 	while( *pStr1)
; 1282 : 	{
; 1283 : 		if( *pStr1 == pStr2[Idx])
; 1284 : 		{
; 1285 : 			if( Idx == 0)
; 1286 : 				StartIdx = Idx;
; 1287 : 
; 1288 : 			Idx++;
; 1289 : 
; 1290 : 			if( Idx >= Len)
; 1291 : 				return StartIdx;
; 1292 : 		}
; 1293 : 		else
; 1294 : 		{
; 1295 : 			if( Idx != 0 )
; 1296 : 			{
; 1297 : 				pStr1--;
; 1298 : 			}
; 1299 : 			Idx = 0;
; 1300 : 		}
; 1301 : 
; 1302 : 		pStr1++;
; 1303 : 	}
; 1304 : 
; 1305 : 	return -1;
; 1306 : }
; 1307 : 
; 1308 : char	i3String::ToUpper(char c)
; 1309 : {
; 1310 : 	if ( c >= 'a' && c <= 'z' )
; 1311 : 		return static_cast<char>(c - ALPHABET_INTERVAL);
; 1312 : 	return c;
; 1313 : }
; 1314 : 
; 1315 : void i3String::ToUpper( char * pStr)
; 1316 : {
; 1317 : 	while( *pStr)
; 1318 : 	{
; 1319 : 		if((*pStr >= 'a') && (*pStr <= 'z'))
; 1320 : 		{
; 1321 : 			*pStr = *pStr - ('a' - 'A');
; 1322 : 		}
; 1323 : 
; 1324 : 		pStr++;
; 1325 : 	}
; 1326 : }
; 1327 : 
; 1328 : // nCountŔĚČÄşÎĹÍ ´ëą®ŔÚ·Î ąŮ˛Ů´Â ÇÔĽö
; 1329 : void i3String::ToUpperAfterN(char* pStr, INT32 nCount)
; 1330 : {
; 1331 : 	INT32 i = 0;
; 1332 : 
; 1333 : 	while(*pStr)
; 1334 : 	{
; 1335 : 		i++;
; 1336 : 		if(i >= nCount)
; 1337 : 		{
; 1338 : 			break;
; 1339 : 		}
; 1340 : 	}
; 1341 : 	
; 1342 : 	ToUpper(pStr);
; 1343 : }
; 1344 : 
; 1345 : // nCountŔü±îÁö ´ëą®ŔÚ·Î ąŮ˛Ů´Â ÇÔĽö
; 1346 : void i3String::ToUpperBeforeN(char* pStr, INT32 nCount)
; 1347 : {
; 1348 : 	INT32 i = 0;
; 1349 : 	
; 1350 : 	while( *pStr)
; 1351 : 	{
; 1352 : 		if(i >= nCount)
; 1353 : 		{
; 1354 : 			break;
; 1355 : 		}
; 1356 : 		
; 1357 : 		if((*pStr >= 'a') && (*pStr <= 'z'))
; 1358 : 		{
; 1359 : 			*pStr = *pStr - ('a' - 'A');
; 1360 : 		}
; 1361 : 
; 1362 : 		pStr++;
; 1363 : 	}
; 1364 : }
; 1365 : 
; 1366 : char	i3String::ToLower(char c)
; 1367 : {
; 1368 : 	if ( c >= 'A' && c <= 'Z' )
; 1369 : 		return static_cast<char>(c + ALPHABET_INTERVAL);
; 1370 : 	return c;
; 1371 : }
; 1372 : 
; 1373 : void	i3String::ToLower( char * pStr)
; 1374 : {
; 1375 : 	while( *pStr)
; 1376 : 	{
; 1377 : 		if((*pStr >= 'A') && (*pStr <= 'Z'))
; 1378 : 			*pStr += ALPHABET_INTERVAL;
; 1379 : 
; 1380 : 		pStr++;
; 1381 : 	}
; 1382 : }
; 1383 : 
; 1384 : void	i3String::ToLower( char * pDest, UINT32 DestSize, const char * pSrc)
; 1385 : {
; 1386 : 	I3ASSERT(pDest != NULL);
; 1387 : 	I3ASSERT(pSrc != NULL);
; 1388 : 	I3ASSERT(DestSize != 0);
; 1389 : 	if ( ! pDest || ! pSrc || DestSize == 0)
; 1390 : 		return;
; 1391 : 
; 1392 : 
; 1393 : 	UINT32 i = 0;
; 1394 : 	while ( (*pSrc != '\0') && (i < DestSize) )
; 1395 : 	{
; 1396 : 		if ( *pSrc >= 'A' && *pSrc <= 'Z' )
; 1397 : 			pDest[i] = static_cast<char>(*pSrc + ALPHABET_INTERVAL);
; 1398 : 		else
; 1399 : 			pDest[i] = *pSrc;
; 1400 : 
; 1401 : 		++pSrc;
; 1402 : 		++i;
; 1403 : 	}
; 1404 : 
; 1405 : 	if ( i > DestSize )
; 1406 : 		pDest[DestSize-1] = NULL;
; 1407 : 	else
; 1408 : 		pDest[i] = NULL;
; 1409 : }
; 1410 : /*
; 1411 : void i3String::Copy( char * pDest, const char * pSrc)
; 1412 : {
; 1413 : 	if( pDest == NULL || pSrc == NULL)
; 1414 : 		return;
; 1415 : 
; 1416 : 	while( *pSrc)
; 1417 : 	{
; 1418 : 		*pDest = *pSrc;
; 1419 : 
; 1420 : 		pDest++;
; 1421 : 		pSrc++;
; 1422 : 	}
; 1423 : 
; 1424 : 	*pDest = 0;
; 1425 : }
; 1426 : 
; 1427 : void i3String::Copy( char * pDest, INT32 DestSize, const char * pSrc)
; 1428 : {
; 1429 : 	if ( DestSize <= 0 )
; 1430 : 		return;
; 1431 : 
; 1432 : 	while( *pSrc && --DestSize > 0 )
; 1433 : 	{
; 1434 : 		*pDest = *pSrc;
; 1435 : 
; 1436 : 		pDest++;
; 1437 : 		pSrc++;
; 1438 : 	}
; 1439 : 
; 1440 : 	*pDest = 0;
; 1441 : }
; 1442 : 
; 1443 : void i3String::CopyW( WCHAR16 * pDest, const WCHAR16 * pSrc)
; 1444 : {
; 1445 : 	while( *pSrc)
; 1446 : 	{
; 1447 : 		*pDest = *pSrc;
; 1448 : 
; 1449 : 		pDest++;
; 1450 : 		pSrc++;
; 1451 : 	}
; 1452 : 
; 1453 : 	*pDest = 0;
; 1454 : }
; 1455 : 
; 1456 : void i3String::CopyW( WCHAR16 * pDest, INT32 DestSize, const WCHAR16 * pSrc)
; 1457 : {
; 1458 : 	if ( DestSize <= 0 )
; 1459 : 	return;
; 1460 : 
; 1461 : 	while( *pSrc && --DestSize > 0 )
; 1462 : 	{
; 1463 : 		*pDest = *pSrc;
; 1464 : 
; 1465 : 		pDest++;
; 1466 : 		pSrc++;
; 1467 : 	}
; 1468 : 
; 1469 : 	*pDest = 0;
; 1470 : }
; 1471 : */
; 1472 : void i3String::Copy( char * pDest, const char * pSrc, INT32 DestLength)
; 1473 : {
; 1474 : 	I3ASSERT( pDest && pSrc );
; 1475 : 
; 1476 : 	if ( DestLength <= 0 )
; 1477 : 		return;
; 1478 : 
; 1479 : 	while( *pSrc && --DestLength > 0 )
; 1480 : 	{
; 1481 : 		*pDest = *pSrc;
; 1482 : 
; 1483 : 		pDest++;
; 1484 : 		pSrc++;
; 1485 : 	}
; 1486 : 
; 1487 : 	*pDest = 0;
; 1488 : }
; 1489 : 
; 1490 : void i3String::Copy( wchar_t * pDest, const wchar_t * pSrc, INT32 DestLength)
; 1491 : {
; 1492 : 	if ( DestLength <= 0 )
; 1493 : 		return;
; 1494 : 
; 1495 : 	while( *pSrc && --DestLength > 0 )
; 1496 : 	{
; 1497 : 		*pDest = *pSrc;
; 1498 : 
; 1499 : 		pDest++;
; 1500 : 		pSrc++;
; 1501 : 	}
; 1502 : 
; 1503 : 	*pDest = 0;
; 1504 : }
; 1505 : 
; 1506 : void i3String::CopyASCIItoWCHAR( WCHAR16 * pDest, const char * pSrc )
; 1507 : {
; 1508 : 	/*while( *pSrc )
; 1509 : 	{
; 1510 : 		*pDest = WCHAR16( *pSrc ); 
; 1511 : 		pDest++;
; 1512 : 		pSrc++;
; 1513 : 	}
; 1514 : 	*pDest = 0;*/
; 1515 : 
; 1516 : 	INT32 length = Length( pSrc);
; 1517 : 	INT32 wLength = MultiByteToWideChar( i3Language::GetCurrentCodePage(), 0, pSrc, length, NULL, 0);
; 1518 : 
; 1519 : 	MultiByteToWideChar( i3Language::GetCurrentCodePage(), 0, pSrc, length, pDest, wLength);
; 1520 : 	pDest[wLength] = 0;
; 1521 : }
; 1522 : 
; 1523 : void i3String::CopyWCHARtoASCII( char * pDest, INT32 nDestLength, const WCHAR16 * pSrc, INT32 nSrcLength)
; 1524 : {
; 1525 : 	WideCharToMultiByte( i3Language::GetCurrentCodePage(), 0, pSrc, nSrcLength, pDest, nDestLength, NULL, NULL);
; 1526 : }
; 1527 : 
; 1528 : void i3String::NCopy( char * pDest, const char *pSrc, INT32 Length)
; 1529 : {
; 1530 : 	INT32 Count = 0;
; 1531 : 
; 1532 : 	while( *pSrc)
; 1533 : 	{
; 1534 : 		*pDest = *pSrc;
; 1535 : 
; 1536 : 		pDest++;
; 1537 : 		pSrc++;
; 1538 : 		Count++;
; 1539 : 
; 1540 : 		if( Count >= Length)
; 1541 : 			break;
; 1542 : 	}
; 1543 : 
; 1544 : 	*pDest = 0;
; 1545 : }
; 1546 : 
; 1547 : void i3String::NCopy( WCHAR16 * pDest, const WCHAR16 *pSrc, INT32 Length )
; 1548 : {
; 1549 : 	INT32 Count = 0;
; 1550 : 
; 1551 : 	while( *pSrc)
; 1552 : 	{
; 1553 : 		*pDest = *pSrc;
; 1554 : 
; 1555 : 		pDest++;
; 1556 : 		pSrc++;
; 1557 : 		Count++;
; 1558 : 
; 1559 : 		if( Count >= Length)
; 1560 : 			break;
; 1561 : 	}
; 1562 : 
; 1563 : 	*pDest = 0;
; 1564 : }
; 1565 : 
; 1566 : void i3String::Concat( char * pDest, const char * pSrc)
; 1567 : {
; 1568 : 	while( *pDest)
; 1569 : 	{
; 1570 : 		pDest++;
; 1571 : 	}
; 1572 : 	
; 1573 : 	while( *pSrc)
; 1574 : 	{
; 1575 : 		*pDest = *pSrc;
; 1576 : 		
; 1577 : 		pDest++;
; 1578 : 		pSrc++;
; 1579 : 	}
; 1580 : 	
; 1581 : 	*pDest = 0;
; 1582 : }
; 1583 : 
; 1584 : void i3String::Concat( wchar_t * pDest, const wchar_t * pSrc)
; 1585 : {
; 1586 : 	while( *pDest)
; 1587 : 	{
; 1588 : 		pDest++;
; 1589 : 	}
; 1590 : 	
; 1591 : 	while( *pSrc)
; 1592 : 	{
; 1593 : 		*pDest = *pSrc;
; 1594 : 		
; 1595 : 		pDest++;
; 1596 : 		pSrc++;
; 1597 : 	}
; 1598 : 	
; 1599 : 	*pDest = 0;
; 1600 : }
; 1601 : 
; 1602 : // UCS2 -> UTF8 encode
; 1603 : //
; 1604 : // UTF-8·Î şŻČŻµČ ł»żëŔ» ĆÄŔĎ·Î ŔúŔĺÇŇ·Á¸é, ÇŘ´ő·Î 3ąŮŔĚĆ®¸¦ ˝á ÁÖľîľß µĘ.
; 1605 : // 0xEF 0xBB 0xBF
; 1606 : // 
; 1607 : int i3String::UCS2toUTF8( char *pDest, const WCHAR16 *pSrc, int nDestBufSize )
; 1608 : {
; 1609 : 	if( pSrc == NULL ) return 0;
; 1610 : 
; 1611 : 	int count = (int)( i3String::Length( pSrc ) );
; 1612 : 	WCHAR16 unicode;
; 1613 : 	unsigned char bytes[4];
; 1614 : 	int nbytes;
; 1615 : 	int len = 0;
; 1616 : 
; 1617 : 	for( int i = 0; i < count; i++ )
; 1618 : 	{
; 1619 : 		unicode = pSrc[i];
; 1620 : 		if ( unicode < 0x80 )
; 1621 : 		{
; 1622 : 			nbytes = 1;
; 1623 : 			bytes[0] = (unsigned char) unicode;							//  0xxxxxxx
; 1624 : 		}
; 1625 : 		else if ( unicode < 0x0800 )
; 1626 : 		{
; 1627 : 			nbytes = 2;
; 1628 : 			bytes[1] = (unsigned char) ((unicode & 0x3f) | 0x80);		// 10xxxxxx
; 1629 : 			bytes[0] = (unsigned char) ((unicode >> 6) & 0x1f | 0xc0) ;	// 110xxxxx
; 1630 : 		}
; 1631 : 		else
; 1632 : 		{
; 1633 : 			nbytes = 3;
; 1634 : 			bytes[2] = (unsigned char) ((unicode & 0x3f) | 0x80);		// 10xxxxxx
; 1635 : 			bytes[1] = (unsigned char) ((unicode >> 6) & 0x3f | 0x80);	// 10xxxxxx
; 1636 : 			bytes[0] = (unsigned char) ((unicode >> 12) & 0x0f | 0xe0);	// 1110xxxx
; 1637 : 		}
; 1638 : 
; 1639 : 		if( (len + nbytes) >= nDestBufSize )
; 1640 : 		{
; 1641 : 			I3WARN("Need more buffer size.\n");
; 1642 : 			//I3TRACE( "[%s] : Need more buffer size.\n", __FUNCTION__ );
; 1643 : 			I3ASSERT_0;
; 1644 : 			break;
; 1645 : 		}
; 1646 : 
; 1647 : 		for( int j = 0; j < nbytes; j++ )
; 1648 : 		{
; 1649 : 			pDest[len] = bytes[j];
; 1650 : 			len++;
; 1651 : 		}
; 1652 : 	}
; 1653 : 
; 1654 : 	pDest[len] = 0x00;
; 1655 : 
; 1656 : 	return len;
; 1657 : }
; 1658 : 
; 1659 : // UTF-8Ć÷¸ËŔ» ŔŻ´ĎÄÚµĺ ˝şĆ®¸µŔ¸·Î µđÄÚµů
; 1660 : //
; 1661 : // UTF-8·Î şŻČŻµČ ł»żëŔ» ĆÄŔĎ·Î ŔúŔĺÇŇ·Á¸é, ÇŘ´őżˇ ´ŮŔ˝ŔÇ 2ąŮŔĚĆ®¸¦ ˝á ÁÖľîľß µĘ.
; 1662 : // 0xFF 0xFE
; 1663 : //
; 1664 : int i3String::UTF8toUCS2( WCHAR16 *pDest, const char *_pSrc, int nDestBufSize )
; 1665 : {
; 1666 : 	unsigned char *pSrc = ( unsigned char * )_pSrc;
; 1667 : 	unsigned char c;
; 1668 : 	WCHAR16 unicode;
; 1669 : 	int count = 0;
; 1670 : 	int i = 0;
; 1671 : 	//int len = Length( pSrc );
; 1672 : 	int len = (int)strlen( _pSrc );
; 1673 : 
; 1674 : 	for( i = 0; i < len; )
; 1675 : 	{
; 1676 : 		if( ( count + 1 ) >= nDestBufSize )
; 1677 : 		{
; 1678 : 			I3WARN("Need more buffer size.\n");
; 1679 : 			//I3TRACE( "[%s] : Need more buffer size.\n", __FUNCTION__ );
; 1680 : 			I3ASSERT_0;
; 1681 : 			break;
; 1682 : 		}
; 1683 : 
; 1684 : 		c = pSrc[i] & 0xe0;
; 1685 : 
; 1686 : 		if( c < 0x80 )
; 1687 : 		{
; 1688 : 			unicode = WCHAR16( pSrc[i] );
; 1689 : 			i++;
; 1690 : 		}
; 1691 : 		else if ( c < 0xe0 )
; 1692 : 		{
; 1693 : 			unicode =	WCHAR16( pSrc[i] & 0x1f );
; 1694 : 			i++;
; 1695 : 			unicode =	unicode << 6;
; 1696 : 			unicode |=	WCHAR16( pSrc[i] & 0x3f );
; 1697 : 			i++;
; 1698 : 		}
; 1699 : 		else if ( c < 0xf0 )
; 1700 : 		{
; 1701 : 			unicode =	WCHAR16( pSrc[i] & 0x0f );
; 1702 : 			i++;
; 1703 : 			unicode =	unicode << 6;
; 1704 : 			unicode |=	WCHAR16( pSrc[i] & 0x3f );
; 1705 : 			i++;
; 1706 : 			unicode =	unicode << 6;
; 1707 : 			unicode |=	WCHAR16( pSrc[i] & 0x3f );
; 1708 : 			i++;
; 1709 : 		}
; 1710 : 		else
; 1711 : 		{
; 1712 : 			I3WARN("Invalid character.\n");
; 1713 : 			//I3TRACE( "[%s] : Invalid character.\n", __FUNCTION__ );
; 1714 : 			I3ASSERT_0;
; 1715 : 			break;
; 1716 : 		}
; 1717 : 
; 1718 : 		pDest[count] = unicode;
; 1719 : 		count++;
; 1720 : 	}
; 1721 : 
; 1722 : 	pDest[count] = 0x0000;
; 1723 : 
; 1724 : 	return count;
; 1725 : }
; 1726 : 
; 1727 : void i3String::ftoa( REAL32 val, char * pszStr, INT32 fractLen)
; 1728 : {
; 1729 : 	char * pszTemp;
; 1730 : 
; 1731 : 	if( fractLen == -1)
; 1732 : 	{
; 1733 : 		sprintf( (PSTR)pszStr, (PSTR)"%f", val);
; 1734 : 	}
; 1735 : 	else
; 1736 : 	{
; 1737 : 		char format[64];
; 1738 : 
; 1739 : 		sprintf( format, "%%.%df", fractLen);
; 1740 : 		sprintf( pszStr, format, val);
; 1741 : 	}
; 1742 : 
; 1743 : 	pszTemp = pszStr;
; 1744 : 	while( *pszTemp)
; 1745 : 		pszTemp++;
; 1746 : 
; 1747 : 	do
; 1748 : 	{
; 1749 : 		pszTemp--;
; 1750 : 
; 1751 : 		if( *pszTemp == '0')
; 1752 : 			*pszTemp = 0;
; 1753 : 
; 1754 : 	} while( *pszTemp == 0);
; 1755 : 
; 1756 : 	if( *pszTemp == '.')
; 1757 : 		*pszTemp = 0;
; 1758 : }
; 1759 : 
; 1760 : 
; 1761 : /// szIn°ú °°Ŕş ł»żëŔÇ ą®ŔÚż­Ŕ» »ýĽşÇŘĽ­ ¸®ĹĎÇŃ´Ů.
; 1762 : char* i3String::NewString( const char* szIn )
; 1763 : {
; 1764 : 	I3ASSERT( szIn != NULL );
; 1765 : 	INT32 nLen = Length( szIn );
; 1766 : 	I3ASSERT( nLen >= 0 );
; 1767 : 	
; 1768 : 	char *szOut = (char *)i3MemAlloc( nLen + 1 );
; 1769 : 	I3ASSERT( szOut != NULL );
; 1770 : 
; 1771 : #if 0
; 1772 : 	{
; 1773 : 		// ¸Ţ¸đ¸® ´©Ľö Ĺ˝Áö
; 1774 : 		void *pCheck = szOut;
; 1775 : 		static int nCount = 0;
; 1776 : 		static int nCheck = -1;
; 1777 : 		I3ASSERT( nCheck != nCount );
; 1778 : 		I3WARN("%d, %p\n", nCount, pCheck );
; 1779 : 		//I3TRACE( __FUNCTION__ " : %d, %p\n", nCount, pCheck );
; 1780 : 		nCount++;
; 1781 : 	}
; 1782 : #endif
; 1783 : 
; 1784 : 	Copy( szOut, szIn, nLen + 1 );
; 1785 : 
; 1786 : 	return szOut;
; 1787 : }
; 1788 : 
; 1789 : void i3String::ResolvePathToken( const char * pszPath, i3StringList * pList)
; 1790 : {
; 1791 : 	char * pTemp;
; 1792 : 	char szBuf[MAX_PATH];
; 1793 : 	INT32 i;
; 1794 : 
; 1795 : 	for( i = 0, pTemp = (char *) pszPath; *pTemp != 0; pTemp++)
; 1796 : 	{
; 1797 : 		if( *pTemp & 0x80)
; 1798 : 		{
; 1799 : 			szBuf[i] = *pTemp;
; 1800 : 			i++;
; 1801 : 			pTemp ++;
; 1802 : 		}
; 1803 : 		else
; 1804 : 		{
; 1805 : 			if((*pTemp == '\\') || (*pTemp == '/'))
; 1806 : 			{
; 1807 : 				szBuf[i] = 0;
; 1808 : 				pList->Add( szBuf);
; 1809 : 				
; 1810 : 				i = 0;
; 1811 : 				continue;
; 1812 : 			}
; 1813 : 		}
; 1814 : 
; 1815 : 		szBuf[i] = *pTemp;
; 1816 : 		i++;
; 1817 : 	}
; 1818 : 
; 1819 : 	if( i > 0)
; 1820 : 	{
; 1821 : 		szBuf[i] = 0;
; 1822 : 		pList->Add( szBuf);
; 1823 : 	}
; 1824 : }
; 1825 : 
; 1826 : void i3String::MakeRelativePath( const char * pszBasePath, const char * pszAbsPath, char * pszRelPath, const INT32 nRelPathMax)
; 1827 : {
; 1828 : 	i3StringList BaseToken, AbsToken;
; 1829 : 	char * pszBase, *pszAbs;
; 1830 : 	INT32 sidx, didx;
; 1831 : 	bool bProcess, bDiff = false;
; 1832 : 
; 1833 : 	ResolvePathToken( pszBasePath, &BaseToken);
; 1834 : 	ResolvePathToken( pszAbsPath, &AbsToken);
; 1835 : 
; 1836 : 	if( BaseToken.GetCount() <= 0)
; 1837 : 	{
; 1838 : 		i3String::Copy( pszRelPath, pszAbsPath, nRelPathMax);
; 1839 : 		return;
; 1840 : 	}
; 1841 : 
; 1842 : 	if( AbsToken.GetCount() <= 0)
; 1843 : 		return;
; 1844 : 
; 1845 : 	#if defined( I3_WINDOWS)
; 1846 : 		// Drive ¸íŔ» żěĽ± Č®ŔÎÇŃ´Ů.
; 1847 : 		// ¸¸ľŕ ´Ů¸Ą Drive¶ó¸é ľĆą«·± Ăł¸® ľřŔĚ ±×łÉ Relative Pathżˇ ŔúŔĺÇĎ°í
; 1848 : 		// ąÝČŻÇŃ´Ů.
; 1849 : 		if( i3String::Compare( BaseToken.Items[0], AbsToken.Items[0]) != 0)
; 1850 : 		{
; 1851 : 			i3String::Copy( pszRelPath, pszAbsPath, nRelPathMax);
; 1852 : 			return;
; 1853 : 		}
; 1854 : 	#endif
; 1855 : 
; 1856 : 	sidx = 0;
; 1857 : 	didx = 0;
; 1858 : 	pszRelPath[0] = 0;
; 1859 : 
; 1860 : 	while( didx < AbsToken.GetCount())
; 1861 : 	{
; 1862 : 		bProcess = true;
; 1863 : 
; 1864 : 		pszAbs = AbsToken.Items[didx];
; 1865 : 
; 1866 : 		if( sidx < BaseToken.GetCount())
; 1867 : 		{
; 1868 : 			pszBase = BaseToken.Items[sidx];
; 1869 : 
; 1870 : 			if( (bDiff == false) && (i3String::Compare( pszBase, pszAbs) == 0))
; 1871 : 			{
; 1872 : 				bProcess = false;
; 1873 : 				didx++;
; 1874 : 			}
; 1875 : 			else
; 1876 : 			{
; 1877 : 				pszAbs = "..";
; 1878 : 				bDiff = true;
; 1879 : 			}
; 1880 : 
; 1881 : 			sidx++;
; 1882 : 		}
; 1883 : 		else
; 1884 : 		{
; 1885 : 			didx++;
; 1886 : 		}
; 1887 : 
; 1888 : 		if( bProcess)
; 1889 : 		{
; 1890 : 			i3String::Concat( pszRelPath, pszAbs);
; 1891 : 
; 1892 : 			if( didx < AbsToken.GetCount())
; 1893 : 				i3String::Concat( pszRelPath, "\\");
; 1894 : 		}
; 1895 : 	}
; 1896 : }
; 1897 : 
; 1898 : void i3String::MakeCStylePath( char * pszDest, const char * pszSrc)
; 1899 : {
; 1900 : 	I3ASSERT( pszDest != NULL);
; 1901 : 	I3ASSERT( pszSrc != NULL);
; 1902 : 
; 1903 : 	while( *pszSrc != 0)
; 1904 : 	{
; 1905 : 		*pszDest = *pszSrc;
; 1906 : 
; 1907 : 		if( *pszSrc == '\\')
; 1908 : 		{
; 1909 : 			pszDest++;
; 1910 : 			*pszDest = '\\';
; 1911 : 		}
; 1912 : 
; 1913 : 		pszDest++;
; 1914 : 		pszSrc++;
; 1915 : 	}
; 1916 : 
; 1917 : 	*pszDest = 0;
; 1918 : }
; 1919 : 
; 1920 : enum ATOI_MODE
; 1921 : {
; 1922 : 	ATOI_DECIMAL = 0,
; 1923 : 	ATOI_HEXA,
; 1924 : };
; 1925 : 
; 1926 : INT32 i3String::ToInt( const char * pszStr)
; 1927 : {
; 1928 : 	ATOI_MODE mode = ATOI_DECIMAL;
; 1929 : 	INT32 rv = 0, sign = 1;
; 1930 : 	char ch;
; 1931 : 
; 1932 : 	if((pszStr[0] == '0') && ((pszStr[1] == 'x') || (pszStr[1] == 'X')))
; 1933 : 	{
; 1934 : 		mode = ATOI_HEXA;
; 1935 : 		pszStr += 2;
; 1936 : 	}
; 1937 : 
; 1938 : 	while( * pszStr)
; 1939 : 	{
; 1940 : 		switch( *pszStr)
; 1941 : 		{
; 1942 : 			case '-' :	sign = -1;	break;
; 1943 : 			case '+' :				break;
; 1944 : 			default :
; 1945 : 
; 1946 : 				if( mode == ATOI_DECIMAL)
; 1947 : 				{
; 1948 : 					if( (*pszStr >= '0') && (*pszStr <= '9'))
; 1949 : 					{
; 1950 : 						rv *= 10;
; 1951 : 						rv += *pszStr - '0';
; 1952 : 					}
; 1953 : 					else
; 1954 : 						return 0;
; 1955 : 				}
; 1956 : 				else
; 1957 : 				{
; 1958 : 					rv <<= 4;
; 1959 : 
; 1960 : 					if( (*pszStr >= '0') && (*pszStr <= '9'))
; 1961 : 					{
; 1962 : 						rv += *pszStr - '0';
; 1963 : 					}
; 1964 : 					else 
; 1965 : 					{
; 1966 : 						if( (*pszStr >= 'a') && (*pszStr <= 'f'))
; 1967 : 							ch = *pszStr - 'a';
; 1968 : 						else if((*pszStr >= 'A') && (*pszStr <= 'F'))
; 1969 : 							ch = *pszStr - 'A';
; 1970 : 						else
; 1971 : 							return 0;
; 1972 : 
; 1973 : 						rv += ch + 10;
; 1974 : 					}
; 1975 : 				}
; 1976 : 				break;
; 1977 : 		}
; 1978 : 
; 1979 : 		pszStr++;
; 1980 : 	}
; 1981 : 
; 1982 : 	return rv * sign;
; 1983 : }
; 1984 : 
; 1985 : static I3_SYMBOLTABLE_INFO *	_FindSymbol( I3_SYMBOLTABLE_INFO * pTable, INT32 symbolCount, char * pszStr)
; 1986 : {
; 1987 : 	INT32 i;
; 1988 : 
; 1989 : 	for( i = 0; i < symbolCount; i++)

  0009c	8b 5d 18	 mov	 ebx, DWORD PTR _symbolCount$[ebp]
  0009f	46		 inc	 esi
  000a0	3b f3		 cmp	 esi, ebx
  000a2	7c dc		 jl	 SHORT $LL22@Preprocess

; 2035 : 						}
; 2036 : 						else
; 2037 : 						{
; 2038 : 							I3TRACE( "żĂąŮ¸ŁÁö ľĘŔş Symbol : %s\n", szSym);
; 2039 : 						}
; 2040 : 					}
; 2041 : 
; 2042 : 					bInSymbol = false;

  000a4	8b 45 b4	 mov	 eax, DWORD PTR _symAccm$1$[ebp]
  000a7	32 c9		 xor	 cl, cl
  000a9	8b 75 10	 mov	 esi, DWORD PTR _pszSrc$[ebp]

; 2043 : 				}

  000ac	eb 39		 jmp	 SHORT $LN8@Preprocess
$LN29@Preprocess:

; 2026 : 
; 2027 : 						pSymbol = _FindSymbol( pTable, symbolCount, szSym);
; 2028 : 
; 2029 : 						if( pSymbol != NULL)

  000ae	85 db		 test	 ebx, ebx
  000b0	74 24		 je	 SHORT $LN38@Preprocess

; 2030 : 						{
; 2031 : 							INT32 len = (INT32)strlen( pSymbol->m_szValue);

  000b2	83 c3 40	 add	 ebx, 64			; 00000040H
  000b5	8b f3		 mov	 esi, ebx
  000b7	8d 4e 01	 lea	 ecx, DWORD PTR [esi+1]
  000ba	8d 9b 00 00 00
	00		 npad	 6
$LL37@Preprocess:
  000c0	8a 06		 mov	 al, BYTE PTR [esi]
  000c2	46		 inc	 esi
  000c3	84 c0		 test	 al, al
  000c5	75 f9		 jne	 SHORT $LL37@Preprocess
  000c7	2b f1		 sub	 esi, ecx

; 2032 : 
; 2033 : 							memcpy( pszDest, pSymbol->m_szValue, len);

  000c9	56		 push	 esi
  000ca	53		 push	 ebx
  000cb	57		 push	 edi
  000cc	e8 00 00 00 00	 call	 _memcpy
  000d1	83 c4 0c	 add	 esp, 12			; 0000000cH

; 2034 : 							pszDest += len;

  000d4	03 fe		 add	 edi, esi
$LN38@Preprocess:

; 2035 : 						}
; 2036 : 						else
; 2037 : 						{
; 2038 : 							I3TRACE( "żĂąŮ¸ŁÁö ľĘŔş Symbol : %s\n", szSym);
; 2039 : 						}
; 2040 : 					}
; 2041 : 
; 2042 : 					bInSymbol = false;

  000d6	8b 5d 18	 mov	 ebx, DWORD PTR _symbolCount$[ebp]
  000d9	8b 45 b4	 mov	 eax, DWORD PTR _symAccm$1$[ebp]
$LN39@Preprocess:
  000dc	8b 75 10	 mov	 esi, DWORD PTR _pszSrc$[ebp]
  000df	32 c9		 xor	 cl, cl

; 2043 : 				}

  000e1	eb 04		 jmp	 SHORT $LN8@Preprocess
$LN7@Preprocess:

; 2044 : 				else
; 2045 : 				{
; 2046 : 					bInSymbol = true;

  000e3	b1 01		 mov	 cl, 1

; 2047 : 					symAccm = 0;

  000e5	33 c0		 xor	 eax, eax
$LN8@Preprocess:

; 2061 : 				}
; 2062 : 				break;
; 2063 : 		}
; 2064 : 
; 2065 : 		pszTemp++;

  000e7	8a 56 01	 mov	 dl, BYTE PTR [esi+1]
  000ea	46		 inc	 esi
  000eb	89 75 10	 mov	 DWORD PTR _pszSrc$[ebp], esi
  000ee	84 d2		 test	 dl, dl
  000f0	0f 85 3a ff ff
	ff		 jne	 $LL2@Preprocess
  000f6	5b		 pop	 ebx
$LN36@Preprocess:

; 2066 : 	}
; 2067 : 
; 2068 : 	*pszDest = 0;
; 2069 : }

  000f7	8b 4d fc	 mov	 ecx, DWORD PTR __$ArrayPad$[ebp]
  000fa	c6 07 00	 mov	 BYTE PTR [edi], 0
  000fd	33 cd		 xor	 ecx, ebp
  000ff	5f		 pop	 edi
  00100	5e		 pop	 esi
  00101	e8 00 00 00 00	 call	 @__security_check_cookie@4
  00106	8b e5		 mov	 esp, ebp
  00108	5d		 pop	 ebp
  00109	c3		 ret	 0
$LN17@Preprocess:

; 2021 : 					}
; 2022 : 					else
; 2023 : 					{
; 2024 : 						szSym[ symAccm] = 0;

  0010a	e8 00 00 00 00	 call	 ___report_rangecheckfailure
$LN53@Preprocess:
  0010f	cc		 int	 3
?PreprocessMacro@i3String@@YAXPADHPBDPAUi3SymbolTableInfo@@H@Z ENDP ; i3String::PreprocessMacro
_TEXT	ENDS
; Function compile flags: /Ogtp
; File E:\Proyectos\JuegosOnlineproyectos\PB\pbblow\Piercing Blow Remake\i3Server\src\i3Base\i3String.cpp
;	COMDAT ?MakeUnixPath@i3String@@YAXPAD@Z
_TEXT	SEGMENT
_szPath$ = 8						; size = 4
?MakeUnixPath@i3String@@YAXPAD@Z PROC			; i3String::MakeUnixPath, COMDAT

; 807  : {

  00000	55		 push	 ebp
  00001	8b ec		 mov	 ebp, esp

; 808  : 	I3ASSERT( szPath != NULL );
; 809  : 	char *p = szPath;

  00003	8b 45 08	 mov	 eax, DWORD PTR _szPath$[ebp]

; 810  : 	while( *p != 0 )

  00006	8a 08		 mov	 cl, BYTE PTR [eax]
  00008	84 c9		 test	 cl, cl
  0000a	74 14		 je	 SHORT $LN3@MakeUnixPa
  0000c	8d 64 24 00	 npad	 4
$LL2@MakeUnixPa:

; 811  : 	{
; 812  : 		if( *p == '\\' )

  00010	80 f9 5c	 cmp	 cl, 92			; 0000005cH
  00013	75 03		 jne	 SHORT $LN4@MakeUnixPa

; 813  : 		{
; 814  : 			*p = '/';

  00015	c6 00 2f	 mov	 BYTE PTR [eax], 47	; 0000002fH
$LN4@MakeUnixPa:

; 810  : 	while( *p != 0 )

  00018	8a 48 01	 mov	 cl, BYTE PTR [eax+1]

; 815  : 		}
; 816  : 		p++;

  0001b	40		 inc	 eax
  0001c	84 c9		 test	 cl, cl
  0001e	75 f0		 jne	 SHORT $LL2@MakeUnixPa
$LN3@MakeUnixPa:

; 817  : 	}
; 818  : }

  00020	5d		 pop	 ebp
  00021	c3		 ret	 0
?MakeUnixPath@i3String@@YAXPAD@Z ENDP			; i3String::MakeUnixPath
_TEXT	ENDS
; Function compile flags: /Ogtp
; File E:\Proyectos\JuegosOnlineproyectos\PB\pbblow\Piercing Blow Remake\i3Server\src\i3Base\i3String.cpp
;	COMDAT ?NormalizePath@i3String@@YAXPAD@Z
_TEXT	SEGMENT
_Path$ = 8						; size = 4
?NormalizePath@i3String@@YAXPAD@Z PROC			; i3String::NormalizePath, COMDAT

; 794  : {

  00000	55		 push	 ebp
  00001	8b ec		 mov	 ebp, esp

; 795  : 	char* p;
; 796  : 
; 797  :     p = Path;

  00003	8b 45 08	 mov	 eax, DWORD PTR _Path$[ebp]

; 798  :     while( *p) p++;

  00006	80 38 00	 cmp	 BYTE PTR [eax], 0
  00009	74 0b		 je	 SHORT $LL6@NormalizeP
  0000b	eb 03 8d 49 00	 npad	 5
$LL2@NormalizeP:
  00010	40		 inc	 eax
  00011	80 38 00	 cmp	 BYTE PTR [eax], 0
  00014	75 fa		 jne	 SHORT $LL2@NormalizeP
$LL6@NormalizeP:

; 799  : 
; 800  :     do {
; 801  :     	*p = 0;

  00016	c6 00 00	 mov	 BYTE PTR [eax], 0

; 802  :         p--;

  00019	8d 40 ff	 lea	 eax, DWORD PTR [eax-1]

; 803  :     } while( ( *p == '\\' ) || ( *p == '/' ) );

  0001c	8a 08		 mov	 cl, BYTE PTR [eax]
  0001e	80 f9 5c	 cmp	 cl, 92			; 0000005cH
  00021	74 f3		 je	 SHORT $LL6@NormalizeP
  00023	80 f9 2f	 cmp	 cl, 47			; 0000002fH
  00026	74 ee		 je	 SHORT $LL6@NormalizeP

; 804  : }

  00028	5d		 pop	 ebp
  00029	c3		 ret	 0
?NormalizePath@i3String@@YAXPAD@Z ENDP			; i3String::NormalizePath
_TEXT	ENDS
; Function compile flags: /Ogtp
; File E:\Proyectos\JuegosOnlineproyectos\PB\pbblow\Piercing Blow Remake\i3Server\src\i3Base\i3String.cpp
;	COMDAT ?AddPostfix@i3String@@YAXPADHPBD1D@Z
_TEXT	SEGMENT
_pDest$1$ = -272					; size = 4
tv359 = -265						; size = 1
_szTemp$ = -264						; size = 260
__$ArrayPad$ = -4					; size = 4
_szOut$ = 8						; size = 4
_nOutMax$ = 12						; size = 4
_szIn$ = 16						; size = 4
_szPostfix$ = 20					; size = 4
_chDot$ = 24						; size = 1
?AddPostfix@i3String@@YAXPADHPBD1D@Z PROC		; i3String::AddPostfix, COMDAT

; 757  : {

  00000	55		 push	 ebp
  00001	8b ec		 mov	 ebp, esp
  00003	81 ec 10 01 00
	00		 sub	 esp, 272		; 00000110H
  00009	a1 00 00 00 00	 mov	 eax, DWORD PTR ___security_cookie
  0000e	33 c5		 xor	 eax, ebp
  00010	89 45 fc	 mov	 DWORD PTR __$ArrayPad$[ebp], eax
  00013	8b 45 08	 mov	 eax, DWORD PTR _szOut$[ebp]
  00016	53		 push	 ebx
  00017	56		 push	 esi
  00018	8b 75 14	 mov	 esi, DWORD PTR _szPostfix$[ebp]

; 1055 : 	INT32 Count = 0;

  0001b	33 db		 xor	 ebx, ebx

; 757  : {

  0001d	57		 push	 edi
  0001e	8b 7d 10	 mov	 edi, DWORD PTR _szIn$[ebp]
  00021	89 85 f0 fe ff
	ff		 mov	 DWORD PTR _pDest$1$[ebp], eax

; 1124 : 	INT32 nLen = Length( pStr );

  00027	8b c7		 mov	 eax, edi

; 1057 : 	while( *pStr1)

  00029	8a 0f		 mov	 cl, BYTE PTR [edi]
  0002b	88 8d f7 fe ff
	ff		 mov	 BYTE PTR tv359[ebp], cl
  00031	84 c9		 test	 cl, cl
  00033	0f 84 bf 00 00
	00		 je	 $LN75@AddPostfix
  00039	8d a4 24 00 00
	00 00		 npad	 7
$LL15@AddPostfix:

; 1058 : 	{
; 1059 : 		Count++;
; 1060 : 		pStr1++;

  00040	8d 40 01	 lea	 eax, DWORD PTR [eax+1]
  00043	43		 inc	 ebx
  00044	80 38 00	 cmp	 BYTE PTR [eax], 0
  00047	75 f7		 jne	 SHORT $LL15@AddPostfix

; 1125 : 	if( nLen <= 0 ) return -1;

  00049	85 db		 test	 ebx, ebx
  0004b	7f 10		 jg	 SHORT $LN11@AddPostfix
  0004d	b9 04 01 00 00	 mov	 ecx, 260		; 00000104H
  00052	8d 95 f8 fe ff
	ff		 lea	 edx, DWORD PTR _szTemp$[ebp]
  00058	e9 b3 00 00 00	 jmp	 $LL19@AddPostfix
$LN11@AddPostfix:

; 1126 : 
; 1127 : 	INT32 i;
; 1128 : 	for( i = nLen - 1; i >= 0; i-- )

  0005d	83 c3 ff	 add	 ebx, -1
  00060	0f 88 92 00 00
	00		 js	 $LN75@AddPostfix
  00066	8a 45 18	 mov	 al, BYTE PTR _chDot$[ebp]
  00069	8d a4 24 00 00
	00 00		 npad	 7
$LL10@AddPostfix:

; 1129 : 	{
; 1130 : 		if( pStr[i] == ch )

  00070	38 04 1f	 cmp	 BYTE PTR [edi+ebx], al
  00073	74 15		 je	 SHORT $LN46@AddPostfix

; 1126 : 
; 1127 : 	INT32 i;
; 1128 : 	for( i = nLen - 1; i >= 0; i-- )

  00075	83 eb 01	 sub	 ebx, 1
  00078	79 f6		 jns	 SHORT $LL10@AddPostfix

; 1129 : 	{
; 1130 : 		if( pStr[i] == ch )

  0007a	b9 04 01 00 00	 mov	 ecx, 260		; 00000104H
  0007f	8d 95 f8 fe ff
	ff		 lea	 edx, DWORD PTR _szTemp$[ebp]
  00085	e9 86 00 00 00	 jmp	 $LL19@AddPostfix
$LN46@AddPostfix:

; 766  : 	}
; 767  : 	else if( nDotPos == 0 )

  0008a	85 db		 test	 ebx, ebx
  0008c	75 3a		 jne	 SHORT $LN4@AddPostfix

; 768  : 	{	// chDot ŔĚ ¸ÇĂłŔ˝żˇ ÇĎłŞ¸¸ ŔÖ´Â °ćżě, Á˘ąĚ»ç¸¦ şą»çÇĎ°í ±× µÚżˇ´Ů°ˇ łŞ¸ÓÁö¸¦ şŮŔÎ´Ů.
; 769  : 		Copy( szTemp, szPostfix, MAX_PATH );

  0008e	8d 95 f8 fe ff
	ff		 lea	 edx, DWORD PTR _szTemp$[ebp]
  00094	b9 04 01 00 00	 mov	 ecx, 260		; 00000104H

; 1479 : 	while( *pSrc && --DestLength > 0 )

  00099	38 1e		 cmp	 BYTE PTR [esi], bl
  0009b	74 13		 je	 SHORT $LN98@AddPostfix
  0009d	8d 49 00	 npad	 3
$LL30@AddPostfix:
  000a0	49		 dec	 ecx
  000a1	85 c9		 test	 ecx, ecx
  000a3	7e 0b		 jle	 SHORT $LN98@AddPostfix

; 1480 : 	{
; 1481 : 		*pDest = *pSrc;

  000a5	8a 06		 mov	 al, BYTE PTR [esi]

; 1482 : 
; 1483 : 		pDest++;
; 1484 : 		pSrc++;

  000a7	46		 inc	 esi
  000a8	88 02		 mov	 BYTE PTR [edx], al
  000aa	42		 inc	 edx
  000ab	80 3e 00	 cmp	 BYTE PTR [esi], 0
  000ae	75 f0		 jne	 SHORT $LL30@AddPostfix
$LN98@AddPostfix:

; 770  : 		Concat( szTemp, szIn );

  000b0	8d 85 f8 fe ff
	ff		 lea	 eax, DWORD PTR _szTemp$[ebp]

; 1487 : 	*pDest = 0;

  000b6	c6 02 00	 mov	 BYTE PTR [edx], 0

; 770  : 		Concat( szTemp, szIn );

  000b9	57		 push	 edi
  000ba	50		 push	 eax
  000bb	e8 00 00 00 00	 call	 ?Concat@i3String@@YAXPADPBD@Z ; i3String::Concat
  000c0	83 c4 08	 add	 esp, 8

; 771  : 	}

  000c3	e9 87 00 00 00	 jmp	 $LN5@AddPostfix
$LN4@AddPostfix:

; 772  : 	else
; 773  : 	{	// chDot ŔĚŔüŔÇ ł»żëŔ» şą»ç
; 774  : 		NCopy( szTemp, szIn, nDotPos );

  000c8	53		 push	 ebx
  000c9	8d 85 f8 fe ff
	ff		 lea	 eax, DWORD PTR _szTemp$[ebp]
  000cf	57		 push	 edi
  000d0	50		 push	 eax
  000d1	e8 00 00 00 00	 call	 ?NCopy@i3String@@YAXPADPBDH@Z ; i3String::NCopy

; 775  : 		// Á˘ąĚ»ç şŮŔĚ±â
; 776  : 		Concat( szTemp, szPostfix );

  000d6	8d 85 f8 fe ff
	ff		 lea	 eax, DWORD PTR _szTemp$[ebp]
  000dc	56		 push	 esi
  000dd	50		 push	 eax
  000de	e8 00 00 00 00	 call	 ?Concat@i3String@@YAXPADPBD@Z ; i3String::Concat

; 777  : 		// łŞ¸ÓÁö şÎşĐ şŮŔĚ±â
; 778  : 		Concat( szTemp, &szIn[nDotPos] );

  000e3	8d 04 3b	 lea	 eax, DWORD PTR [ebx+edi]
  000e6	50		 push	 eax
  000e7	8d 85 f8 fe ff
	ff		 lea	 eax, DWORD PTR _szTemp$[ebp]
  000ed	50		 push	 eax
  000ee	e8 00 00 00 00	 call	 ?Concat@i3String@@YAXPADPBD@Z ; i3String::Concat
  000f3	83 c4 1c	 add	 esp, 28			; 0000001cH
  000f6	eb 57		 jmp	 SHORT $LN5@AddPostfix
$LN75@AddPostfix:

; 1479 : 	while( *pSrc && --DestLength > 0 )

  000f8	80 bd f7 fe ff
	ff 00		 cmp	 BYTE PTR tv359[ebp], 0

; 758  : 	char szTemp[MAX_PATH];
; 759  : 
; 760  : 	INT32 nDotPos;
; 761  : 	nDotPos = ContainCharRev( szIn, chDot );
; 762  : 	if( nDotPos < 0 )
; 763  : 	{	// chDot ŔĚ ľř´Â °ćżě, ±×łÉ ¸Ç µÚżˇ´Ů°ˇ şŮŔÎ´Ů.
; 764  : 		Copy( szTemp, szIn, MAX_PATH );

  000ff	8d 95 f8 fe ff
	ff		 lea	 edx, DWORD PTR _szTemp$[ebp]
  00105	b9 04 01 00 00	 mov	 ecx, 260		; 00000104H

; 1479 : 	while( *pSrc && --DestLength > 0 )

  0010a	74 14		 je	 SHORT $LN99@AddPostfix
  0010c	8d 64 24 00	 npad	 4
$LL19@AddPostfix:
  00110	49		 dec	 ecx
  00111	85 c9		 test	 ecx, ecx
  00113	7e 0b		 jle	 SHORT $LN99@AddPostfix

; 1480 : 	{
; 1481 : 		*pDest = *pSrc;

  00115	8a 07		 mov	 al, BYTE PTR [edi]

; 1482 : 
; 1483 : 		pDest++;
; 1484 : 		pSrc++;

  00117	47		 inc	 edi
  00118	88 02		 mov	 BYTE PTR [edx], al
  0011a	42		 inc	 edx
  0011b	80 3f 00	 cmp	 BYTE PTR [edi], 0
  0011e	75 f0		 jne	 SHORT $LL19@AddPostfix
$LN99@AddPostfix:

; 1485 : 	}
; 1486 : 
; 1487 : 	*pDest = 0;

  00120	c6 02 00	 mov	 BYTE PTR [edx], 0

; 765  : 		Concat( szTemp, szPostfix );

  00123	8d 85 f8 fe ff
	ff		 lea	 eax, DWORD PTR _szTemp$[ebp]

; 1568 : 	while( *pDest)

  00129	80 bd f8 fe ff
	ff 00		 cmp	 BYTE PTR _szTemp$[ebp], 0
  00130	74 06		 je	 SHORT $LN43@AddPostfix
$LL24@AddPostfix:

; 1569 : 	{
; 1570 : 		pDest++;

  00132	40		 inc	 eax
  00133	80 38 00	 cmp	 BYTE PTR [eax], 0
  00136	75 fa		 jne	 SHORT $LL24@AddPostfix
$LN43@AddPostfix:

; 1571 : 	}
; 1572 : 	
; 1573 : 	while( *pSrc)

  00138	8a 0e		 mov	 cl, BYTE PTR [esi]
  0013a	84 c9		 test	 cl, cl
  0013c	74 0e		 je	 SHORT $LN27@AddPostfix
  0013e	8b ff		 npad	 2
$LL26@AddPostfix:

; 1574 : 	{
; 1575 : 		*pDest = *pSrc;

  00140	88 08		 mov	 BYTE PTR [eax], cl

; 1576 : 		
; 1577 : 		pDest++;
; 1578 : 		pSrc++;

  00142	8d 76 01	 lea	 esi, DWORD PTR [esi+1]
  00145	8a 0e		 mov	 cl, BYTE PTR [esi]
  00147	40		 inc	 eax
  00148	84 c9		 test	 cl, cl
  0014a	75 f4		 jne	 SHORT $LL26@AddPostfix
$LN27@AddPostfix:

; 1579 : 	}
; 1580 : 	
; 1581 : 	*pDest = 0;

  0014c	c6 00 00	 mov	 BYTE PTR [eax], 0
$LN5@AddPostfix:

; 779  : 	}
; 780  : 
; 781  : 	Copy( szOut, szTemp, nOutMax );

  0014f	8b 55 0c	 mov	 edx, DWORD PTR _nOutMax$[ebp]
  00152	8d 8d f8 fe ff
	ff		 lea	 ecx, DWORD PTR _szTemp$[ebp]

; 1476 : 	if ( DestLength <= 0 )

  00158	85 d2		 test	 edx, edx
  0015a	7e 33		 jle	 SHORT $LN34@AddPostfix

; 1477 : 		return;
; 1478 : 
; 1479 : 	while( *pSrc && --DestLength > 0 )

  0015c	80 bd f8 fe ff
	ff 00		 cmp	 BYTE PTR _szTemp$[ebp], 0
  00163	74 21		 je	 SHORT $LN36@AddPostfix
  00165	8b 9d f0 fe ff
	ff		 mov	 ebx, DWORD PTR _pDest$1$[ebp]
  0016b	eb 03 8d 49 00	 npad	 5
$LL35@AddPostfix:
  00170	4a		 dec	 edx
  00171	85 d2		 test	 edx, edx
  00173	7e 0b		 jle	 SHORT $LN100@AddPostfix

; 1480 : 	{
; 1481 : 		*pDest = *pSrc;

  00175	8a 01		 mov	 al, BYTE PTR [ecx]

; 1482 : 
; 1483 : 		pDest++;
; 1484 : 		pSrc++;

  00177	41		 inc	 ecx
  00178	88 03		 mov	 BYTE PTR [ebx], al
  0017a	43		 inc	 ebx
  0017b	80 39 00	 cmp	 BYTE PTR [ecx], 0
  0017e	75 f0		 jne	 SHORT $LL35@AddPostfix
$LN100@AddPostfix:
  00180	89 9d f0 fe ff
	ff		 mov	 DWORD PTR _pDest$1$[ebp], ebx
$LN36@AddPostfix:

; 1485 : 	}
; 1486 : 
; 1487 : 	*pDest = 0;

  00186	8b 85 f0 fe ff
	ff		 mov	 eax, DWORD PTR _pDest$1$[ebp]
  0018c	c6 00 00	 mov	 BYTE PTR [eax], 0
$LN34@AddPostfix:

; 782  : }

  0018f	8b 4d fc	 mov	 ecx, DWORD PTR __$ArrayPad$[ebp]
  00192	5f		 pop	 edi
  00193	5e		 pop	 esi
  00194	33 cd		 xor	 ecx, ebp
  00196	5b		 pop	 ebx
  00197	e8 00 00 00 00	 call	 @__security_check_cookie@4
  0019c	8b e5		 mov	 esp, ebp
  0019e	5d		 pop	 ebp
  0019f	c3		 ret	 0
?AddPostfix@i3String@@YAXPADHPBD1D@Z ENDP		; i3String::AddPostfix
_TEXT	ENDS
; Function compile flags: /Ogtp
; File E:\Proyectos\JuegosOnlineproyectos\PB\pbblow\Piercing Blow Remake\i3Server\src\i3Base\i3String.cpp
;	COMDAT ?ParseMultiSelectFileName@i3String@@YAXPADPAVi3StringList@@@Z
_TEXT	SEGMENT
_conv$ = -264						; size = 260
__$ArrayPad$ = -4					; size = 4
_FileName$ = 8						; size = 4
_List$ = 12						; size = 4
?ParseMultiSelectFileName@i3String@@YAXPADPAVi3StringList@@@Z PROC ; i3String::ParseMultiSelectFileName, COMDAT

; 725  : {

  00000	55		 push	 ebp
  00001	8b ec		 mov	 ebp, esp
  00003	81 ec 08 01 00
	00		 sub	 esp, 264		; 00000108H
  00009	a1 00 00 00 00	 mov	 eax, DWORD PTR ___security_cookie
  0000e	33 c5		 xor	 eax, ebp
  00010	89 45 fc	 mov	 DWORD PTR __$ArrayPad$[ebp], eax
  00013	56		 push	 esi

; 726  : 	char *p;
; 727  : 	char conv[MAX_PATH];
; 728  : 	int idx;
; 729  : 
; 730  : 	p = FileName;

  00014	8b 75 08	 mov	 esi, DWORD PTR _FileName$[ebp]
  00017	57		 push	 edi
  00018	8b 7d 0c	 mov	 edi, DWORD PTR _List$[ebp]

; 731  : 
; 732  : 	while( *p) {

  0001b	80 3e 00	 cmp	 BYTE PTR [esi], 0
  0001e	74 3b		 je	 SHORT $LN3@ParseMulti
$LL2@ParseMulti:
  00020	8a 0e		 mov	 cl, BYTE PTR [esi]

; 733  : 
; 734  : 		idx = 0;

  00022	33 c0		 xor	 eax, eax
$LL4@ParseMulti:

; 735  : 		while( *p) {
; 736  : 			conv[idx] = *p;
; 737  : 
; 738  : 			idx++;
; 739  : 			p++;

  00024	46		 inc	 esi
  00025	88 8c 05 f8 fe
	ff ff		 mov	 BYTE PTR _conv$[ebp+eax], cl
  0002c	40		 inc	 eax
  0002d	8a 0e		 mov	 cl, BYTE PTR [esi]
  0002f	84 c9		 test	 cl, cl
  00031	75 f1		 jne	 SHORT $LL4@ParseMulti

; 740  : 		}
; 741  : 
; 742  : 		conv[idx] = 0;

  00033	3d 04 01 00 00	 cmp	 eax, 260		; 00000104H
  00038	73 31		 jae	 SHORT $LN8@ParseMulti
  0003a	88 8c 05 f8 fe
	ff ff		 mov	 BYTE PTR _conv$[ebp+eax], cl

; 743  : 
; 744  : 		if( idx > 0)

  00041	85 c0		 test	 eax, eax
  00043	7e 10		 jle	 SHORT $LN6@ParseMulti

; 745  : 			List->Add( conv);

  00045	8b 07		 mov	 eax, DWORD PTR [edi]
  00047	8d 8d f8 fe ff
	ff		 lea	 ecx, DWORD PTR _conv$[ebp]
  0004d	6a ff		 push	 -1
  0004f	51		 push	 ecx
  00050	8b cf		 mov	 ecx, edi
  00052	ff 50 10	 call	 DWORD PTR [eax+16]
$LN6@ParseMulti:

; 746  : 
; 747  : 		p++;

  00055	46		 inc	 esi
  00056	80 3e 00	 cmp	 BYTE PTR [esi], 0
  00059	75 c5		 jne	 SHORT $LL2@ParseMulti
$LN3@ParseMulti:

; 748  : 	}
; 749  : }

  0005b	8b 4d fc	 mov	 ecx, DWORD PTR __$ArrayPad$[ebp]
  0005e	5f		 pop	 edi
  0005f	33 cd		 xor	 ecx, ebp
  00061	5e		 pop	 esi
  00062	e8 00 00 00 00	 call	 @__security_check_cookie@4
  00067	8b e5		 mov	 esp, ebp
  00069	5d		 pop	 ebp
  0006a	c3		 ret	 0
$LN8@ParseMulti:

; 740  : 		}
; 741  : 
; 742  : 		conv[idx] = 0;

  0006b	e8 00 00 00 00	 call	 ___report_rangecheckfailure
$LN26@ParseMulti:
  00070	cc		 int	 3
?ParseMultiSelectFileName@i3String@@YAXPADPAVi3StringList@@@Z ENDP ; i3String::ParseMultiSelectFileName
_TEXT	ENDS
; Function compile flags: /Ogtp
; File E:\Proyectos\JuegosOnlineproyectos\PB\pbblow\Piercing Blow Remake\i3Server\src\i3Base\i3String.cpp
;	COMDAT ?IsDigitString@i3String@@YA_NPBD@Z
_TEXT	SEGMENT
_str$ = 8						; size = 4
?IsDigitString@i3String@@YA_NPBD@Z PROC			; i3String::IsDigitString, COMDAT

; 712  : {

  00000	55		 push	 ebp
  00001	8b ec		 mov	 ebp, esp
  00003	56		 push	 esi

; 713  : 	while( *str) {

  00004	8b 75 08	 mov	 esi, DWORD PTR _str$[ebp]
  00007	8a 06		 mov	 al, BYTE PTR [esi]
  00009	84 c0		 test	 al, al
  0000b	74 2d		 je	 SHORT $LN11@IsDigitStr
  0000d	8d 49 00	 npad	 3
$LL2@IsDigitStr:

; 714  : 		if( ! (isdigit( *str) || (*str == '.') || (*str == '+') || (*str == ':') || (*str == '-'))) {

  00010	0f be c0	 movsx	 eax, al
  00013	50		 push	 eax
  00014	e8 00 00 00 00	 call	 _isdigit
  00019	83 c4 04	 add	 esp, 4
  0001c	85 c0		 test	 eax, eax
  0001e	75 12		 jne	 SHORT $LN4@IsDigitStr
  00020	8a 06		 mov	 al, BYTE PTR [esi]
  00022	3c 2e		 cmp	 al, 46			; 0000002eH
  00024	74 0c		 je	 SHORT $LN4@IsDigitStr
  00026	3c 2b		 cmp	 al, 43			; 0000002bH
  00028	74 08		 je	 SHORT $LN4@IsDigitStr
  0002a	3c 3a		 cmp	 al, 58			; 0000003aH
  0002c	74 04		 je	 SHORT $LN4@IsDigitStr
  0002e	3c 2d		 cmp	 al, 45			; 0000002dH
  00030	75 0d		 jne	 SHORT $LN7@IsDigitStr
$LN4@IsDigitStr:

; 713  : 	while( *str) {

  00032	8a 46 01	 mov	 al, BYTE PTR [esi+1]

; 716  : 		}
; 717  : 
; 718  : 		str++;

  00035	46		 inc	 esi
  00036	84 c0		 test	 al, al
  00038	75 d6		 jne	 SHORT $LL2@IsDigitStr
$LN11@IsDigitStr:

; 719  : 	}
; 720  : 
; 721  : 	return true;

  0003a	b0 01		 mov	 al, 1
  0003c	5e		 pop	 esi

; 722  : }

  0003d	5d		 pop	 ebp
  0003e	c3		 ret	 0
$LN7@IsDigitStr:

; 715  : 			return false;

  0003f	32 c0		 xor	 al, al
  00041	5e		 pop	 esi

; 722  : }

  00042	5d		 pop	 ebp
  00043	c3		 ret	 0
?IsDigitString@i3String@@YA_NPBD@Z ENDP			; i3String::IsDigitString
_TEXT	ENDS
; Function compile flags: /Ogtp
; File E:\Proyectos\JuegosOnlineproyectos\PB\pbblow\Piercing Blow Remake\i3Server\src\i3Base\i3String.cpp
;	COMDAT ?EraseSpace@i3String@@YAHPBDPAD@Z
_TEXT	SEGMENT
_str$ = 8						; size = 4
_Buf$ = 12						; size = 4
?EraseSpace@i3String@@YAHPBDPAD@Z PROC			; i3String::EraseSpace, COMDAT

; 692  : {

  00000	55		 push	 ebp
  00001	8b ec		 mov	 ebp, esp

; 693  : 	unsigned int Count = 0;
; 694  : 
; 695  : 	while( *str )

  00003	8b 4d 08	 mov	 ecx, DWORD PTR _str$[ebp]
  00006	56		 push	 esi
  00007	33 f6		 xor	 esi, esi
  00009	8a 01		 mov	 al, BYTE PTR [ecx]
  0000b	84 c0		 test	 al, al
  0000d	74 1c		 je	 SHORT $LN10@EraseSpace
  0000f	8b 55 0c	 mov	 edx, DWORD PTR _Buf$[ebp]
$LL2@EraseSpace:

; 696  : 	{
; 697  : 		if( *str != ' ' )

  00012	3c 20		 cmp	 al, 32			; 00000020H
  00014	74 06		 je	 SHORT $LN4@EraseSpace

; 698  : 		{
; 699  : 			*Buf = *str;

  00016	8a 01		 mov	 al, BYTE PTR [ecx]
  00018	88 02		 mov	 BYTE PTR [edx], al

; 700  : 			Buf++;

  0001a	42		 inc	 edx

; 701  : 			Count++;

  0001b	46		 inc	 esi
$LN4@EraseSpace:

; 702  : 		}
; 703  : 		str++;

  0001c	8a 41 01	 mov	 al, BYTE PTR [ecx+1]
  0001f	41		 inc	 ecx
  00020	84 c0		 test	 al, al
  00022	75 ee		 jne	 SHORT $LL2@EraseSpace

; 704  : 	}
; 705  : 
; 706  : 	*Buf = 0;

  00024	88 02		 mov	 BYTE PTR [edx], al

; 707  : 
; 708  : 	return Count;
; 709  : }

  00026	8b c6		 mov	 eax, esi
  00028	5e		 pop	 esi
  00029	5d		 pop	 ebp
  0002a	c3		 ret	 0
$LN10@EraseSpace:

; 704  : 	}
; 705  : 
; 706  : 	*Buf = 0;

  0002b	8b 45 0c	 mov	 eax, DWORD PTR _Buf$[ebp]
  0002e	c6 00 00	 mov	 BYTE PTR [eax], 0

; 707  : 
; 708  : 	return Count;
; 709  : }

  00031	8b c6		 mov	 eax, esi
  00033	5e		 pop	 esi
  00034	5d		 pop	 ebp
  00035	c3		 ret	 0
?EraseSpace@i3String@@YAHPBDPAD@Z ENDP			; i3String::EraseSpace
_TEXT	ENDS
; Function compile flags: /Ogtp
; File E:\Proyectos\JuegosOnlineproyectos\PB\pbblow\Piercing Blow Remake\i3Server\src\i3Base\i3String.cpp
;	COMDAT ?MakeCStylePath@i3String@@YAXPADPBD@Z
_TEXT	SEGMENT
_pszDest$ = 8						; size = 4
_pszSrc$ = 12						; size = 4
?MakeCStylePath@i3String@@YAXPADPBD@Z PROC		; i3String::MakeCStylePath, COMDAT

; 1899 : {

  00000	55		 push	 ebp
  00001	8b ec		 mov	 ebp, esp

; 1900 : 	I3ASSERT( pszDest != NULL);
; 1901 : 	I3ASSERT( pszSrc != NULL);
; 1902 : 
; 1903 : 	while( *pszSrc != 0)

  00003	8b 4d 0c	 mov	 ecx, DWORD PTR _pszSrc$[ebp]
  00006	8b 45 08	 mov	 eax, DWORD PTR _pszDest$[ebp]
  00009	8a 11		 mov	 dl, BYTE PTR [ecx]
  0000b	84 d2		 test	 dl, dl
  0000d	74 15		 je	 SHORT $LN10@MakeCStyle
  0000f	90		 npad	 1
$LL2@MakeCStyle:

; 1904 : 	{
; 1905 : 		*pszDest = *pszSrc;

  00010	88 10		 mov	 BYTE PTR [eax], dl

; 1906 : 
; 1907 : 		if( *pszSrc == '\\')

  00012	80 39 5c	 cmp	 BYTE PTR [ecx], 92	; 0000005cH
  00015	75 04		 jne	 SHORT $LN4@MakeCStyle

; 1908 : 		{
; 1909 : 			pszDest++;

  00017	40		 inc	 eax

; 1910 : 			*pszDest = '\\';

  00018	c6 00 5c	 mov	 BYTE PTR [eax], 92	; 0000005cH
$LN4@MakeCStyle:

; 1911 : 		}
; 1912 : 
; 1913 : 		pszDest++;
; 1914 : 		pszSrc++;

  0001b	8a 51 01	 mov	 dl, BYTE PTR [ecx+1]
  0001e	41		 inc	 ecx
  0001f	40		 inc	 eax
  00020	84 d2		 test	 dl, dl
  00022	75 ec		 jne	 SHORT $LL2@MakeCStyle
$LN10@MakeCStyle:

; 1915 : 	}
; 1916 : 
; 1917 : 	*pszDest = 0;
; 1918 : }

  00024	c6 00 00	 mov	 BYTE PTR [eax], 0
  00027	5d		 pop	 ebp
  00028	c3		 ret	 0
?MakeCStylePath@i3String@@YAXPADPBD@Z ENDP		; i3String::MakeCStylePath
_TEXT	ENDS
; Function compile flags: /Ogtp
; File E:\Proyectos\JuegosOnlineproyectos\PB\pbblow\Piercing Blow Remake\i3Server\src\i3Base\i3String.cpp
;	COMDAT ?MakeRelativePath@i3String@@YAXPBD0PADH@Z
_TEXT	SEGMENT
_BaseToken$ = -100					; size = 40
_AbsToken$ = -60					; size = 40
_sidx$1$ = -20						; size = 4
_bDiff$1$ = -13						; size = 1
__$EHRec$ = -12						; size = 12
_pszBasePath$ = 8					; size = 4
_pszAbsPath$ = 12					; size = 4
_pszRelPath$ = 16					; size = 4
_nRelPathMax$ = 20					; size = 4
?MakeRelativePath@i3String@@YAXPBD0PADH@Z PROC		; i3String::MakeRelativePath, COMDAT

; 1827 : {

  00000	55		 push	 ebp
  00001	8b ec		 mov	 ebp, esp
  00003	6a ff		 push	 -1
  00005	68 00 00 00 00	 push	 __ehhandler$?MakeRelativePath@i3String@@YAXPBD0PADH@Z
  0000a	64 a1 00 00 00
	00		 mov	 eax, DWORD PTR fs:0
  00010	50		 push	 eax
  00011	83 ec 58	 sub	 esp, 88			; 00000058H
  00014	53		 push	 ebx
  00015	56		 push	 esi
  00016	57		 push	 edi
  00017	a1 00 00 00 00	 mov	 eax, DWORD PTR ___security_cookie
  0001c	33 c5		 xor	 eax, ebp
  0001e	50		 push	 eax
  0001f	8d 45 f4	 lea	 eax, DWORD PTR __$EHRec$[ebp]
  00022	64 a3 00 00 00
	00		 mov	 DWORD PTR fs:0, eax

; 1828 : 	i3StringList BaseToken, AbsToken;

  00028	6a 10		 push	 16			; 00000010H
  0002a	8d 4d 9c	 lea	 ecx, DWORD PTR _BaseToken$[ebp]
  0002d	e8 00 00 00 00	 call	 ??0i3StringList@@QAE@H@Z ; i3StringList::i3StringList
  00032	6a 10		 push	 16			; 00000010H
  00034	8d 4d c4	 lea	 ecx, DWORD PTR _AbsToken$[ebp]
  00037	c7 45 fc 00 00
	00 00		 mov	 DWORD PTR __$EHRec$[ebp+8], 0
  0003e	e8 00 00 00 00	 call	 ??0i3StringList@@QAE@H@Z ; i3StringList::i3StringList

; 1829 : 	char * pszBase, *pszAbs;
; 1830 : 	INT32 sidx, didx;
; 1831 : 	bool bProcess, bDiff = false;
; 1832 : 
; 1833 : 	ResolvePathToken( pszBasePath, &BaseToken);

  00043	8d 45 9c	 lea	 eax, DWORD PTR _BaseToken$[ebp]
  00046	c6 45 fc 01	 mov	 BYTE PTR __$EHRec$[ebp+8], 1
  0004a	50		 push	 eax
  0004b	ff 75 08	 push	 DWORD PTR _pszBasePath$[ebp]
  0004e	32 ff		 xor	 bh, bh
  00050	88 7d f3	 mov	 BYTE PTR _bDiff$1$[ebp], bh
  00053	e8 00 00 00 00	 call	 ?ResolvePathToken@i3String@@YAXPBDPAVi3StringList@@@Z ; i3String::ResolvePathToken

; 1834 : 	ResolvePathToken( pszAbsPath, &AbsToken);

  00058	8b 75 0c	 mov	 esi, DWORD PTR _pszAbsPath$[ebp]
  0005b	8d 45 c4	 lea	 eax, DWORD PTR _AbsToken$[ebp]
  0005e	50		 push	 eax
  0005f	56		 push	 esi
  00060	e8 00 00 00 00	 call	 ?ResolvePathToken@i3String@@YAXPBDPAVi3StringList@@@Z ; i3String::ResolvePathToken
  00065	83 c4 10	 add	 esp, 16			; 00000010H

; 1835 : 
; 1836 : 	if( BaseToken.GetCount() <= 0)

  00068	83 7d b0 00	 cmp	 DWORD PTR _BaseToken$[ebp+20], 0
  0006c	7f 2a		 jg	 SHORT $LN4@MakeRelati

; 1837 : 	{
; 1838 : 		i3String::Copy( pszRelPath, pszAbsPath, nRelPathMax);

  0006e	8b 4d 14	 mov	 ecx, DWORD PTR _nRelPathMax$[ebp]
  00071	8b 55 10	 mov	 edx, DWORD PTR _pszRelPath$[ebp]

; 1476 : 	if ( DestLength <= 0 )

  00074	85 c9		 test	 ecx, ecx
  00076	0f 8e 0d 01 00
	00		 jle	 $LN70@MakeRelati

; 1477 : 		return;
; 1478 : 
; 1479 : 	while( *pSrc && --DestLength > 0 )

  0007c	38 3e		 cmp	 BYTE PTR [esi], bh
  0007e	74 10		 je	 SHORT $LN21@MakeRelati
$LL20@MakeRelati:
  00080	49		 dec	 ecx
  00081	85 c9		 test	 ecx, ecx
  00083	7e 0b		 jle	 SHORT $LN21@MakeRelati

; 1480 : 	{
; 1481 : 		*pDest = *pSrc;

  00085	8a 06		 mov	 al, BYTE PTR [esi]

; 1482 : 
; 1483 : 		pDest++;
; 1484 : 		pSrc++;

  00087	46		 inc	 esi
  00088	88 02		 mov	 BYTE PTR [edx], al
  0008a	42		 inc	 edx
  0008b	80 3e 00	 cmp	 BYTE PTR [esi], 0
  0008e	75 f0		 jne	 SHORT $LL20@MakeRelati
$LN21@MakeRelati:

; 1485 : 	}
; 1486 : 
; 1487 : 	*pDest = 0;

  00090	c6 02 00	 mov	 BYTE PTR [edx], 0
  00093	e9 f1 00 00 00	 jmp	 $LN70@MakeRelati
$LN4@MakeRelati:

; 1839 : 		return;
; 1840 : 	}
; 1841 : 
; 1842 : 	if( AbsToken.GetCount() <= 0)

  00098	83 7d d8 00	 cmp	 DWORD PTR _AbsToken$[ebp+20], 0
  0009c	0f 8e e7 00 00
	00		 jle	 $LN70@MakeRelati

; 1843 : 		return;
; 1844 : 
; 1845 : 	#if defined( I3_WINDOWS)
; 1846 : 		// Drive ¸íŔ» żěĽ± Č®ŔÎÇŃ´Ů.
; 1847 : 		// ¸¸ľŕ ´Ů¸Ą Drive¶ó¸é ľĆą«·± Ăł¸® ľřŔĚ ±×łÉ Relative Pathżˇ ŔúŔĺÇĎ°í
; 1848 : 		// ąÝČŻÇŃ´Ů.
; 1849 : 		if( i3String::Compare( BaseToken.Items[0], AbsToken.Items[0]) != 0)

  000a2	8b 45 e8	 mov	 eax, DWORD PTR _AbsToken$[ebp+36]
  000a5	8b 08		 mov	 ecx, DWORD PTR [eax]
  000a7	8b 45 c0	 mov	 eax, DWORD PTR _BaseToken$[ebp+36]

; 843  : 	return _stricmp( str1, str2 );

  000aa	51		 push	 ecx
  000ab	ff 30		 push	 DWORD PTR [eax]
  000ad	e8 00 00 00 00	 call	 __stricmp
  000b2	83 c4 08	 add	 esp, 8

; 1843 : 		return;
; 1844 : 
; 1845 : 	#if defined( I3_WINDOWS)
; 1846 : 		// Drive ¸íŔ» żěĽ± Č®ŔÎÇŃ´Ů.
; 1847 : 		// ¸¸ľŕ ´Ů¸Ą Drive¶ó¸é ľĆą«·± Ăł¸® ľřŔĚ ±×łÉ Relative Pathżˇ ŔúŔĺÇĎ°í
; 1848 : 		// ąÝČŻÇŃ´Ů.
; 1849 : 		if( i3String::Compare( BaseToken.Items[0], AbsToken.Items[0]) != 0)

  000b5	85 c0		 test	 eax, eax
  000b7	74 14		 je	 SHORT $LN6@MakeRelati

; 1850 : 		{
; 1851 : 			i3String::Copy( pszRelPath, pszAbsPath, nRelPathMax);

  000b9	ff 75 14	 push	 DWORD PTR _nRelPathMax$[ebp]
  000bc	56		 push	 esi
  000bd	ff 75 10	 push	 DWORD PTR _pszRelPath$[ebp]
  000c0	e8 00 00 00 00	 call	 ?Copy@i3String@@YAXPADPBDH@Z ; i3String::Copy
  000c5	83 c4 0c	 add	 esp, 12			; 0000000cH
  000c8	e9 bc 00 00 00	 jmp	 $LN70@MakeRelati
$LN6@MakeRelati:

; 1852 : 			return;
; 1853 : 		}
; 1854 : 	#endif
; 1855 : 
; 1856 : 	sidx = 0;
; 1857 : 	didx = 0;
; 1858 : 	pszRelPath[0] = 0;

  000cd	8b 45 10	 mov	 eax, DWORD PTR _pszRelPath$[ebp]
  000d0	33 c9		 xor	 ecx, ecx

; 1859 : 
; 1860 : 	while( didx < AbsToken.GetCount())

  000d2	8b 55 d8	 mov	 edx, DWORD PTR _AbsToken$[ebp+20]
  000d5	33 ff		 xor	 edi, edi
  000d7	89 4d ec	 mov	 DWORD PTR _sidx$1$[ebp], ecx
  000da	88 08		 mov	 BYTE PTR [eax], cl
  000dc	85 d2		 test	 edx, edx
  000de	0f 8e a5 00 00
	00		 jle	 $LN70@MakeRelati
$LL2@MakeRelati:

; 1861 : 	{
; 1862 : 		bProcess = true;

  000e4	b3 01		 mov	 bl, 1

; 1863 : 
; 1864 : 		pszAbs = AbsToken.Items[didx];

  000e6	8b 45 e8	 mov	 eax, DWORD PTR _AbsToken$[ebp+36]
  000e9	8b 34 b8	 mov	 esi, DWORD PTR [eax+edi*4]

; 1865 : 
; 1866 : 		if( sidx < BaseToken.GetCount())

  000ec	3b 4d b0	 cmp	 ecx, DWORD PTR _BaseToken$[ebp+20]
  000ef	7d 35		 jge	 SHORT $LN7@MakeRelati

; 1867 : 		{
; 1868 : 			pszBase = BaseToken.Items[sidx];

  000f1	8b 45 c0	 mov	 eax, DWORD PTR _BaseToken$[ebp+36]

; 1869 : 
; 1870 : 			if( (bDiff == false) && (i3String::Compare( pszBase, pszAbs) == 0))

  000f4	84 ff		 test	 bh, bh
  000f6	75 18		 jne	 SHORT $LN72@MakeRelati

; 843  : 	return _stricmp( str1, str2 );

  000f8	56		 push	 esi
  000f9	ff 34 88	 push	 DWORD PTR [eax+ecx*4]
  000fc	e8 00 00 00 00	 call	 __stricmp

; 1869 : 
; 1870 : 			if( (bDiff == false) && (i3String::Compare( pszBase, pszAbs) == 0))

  00101	8b 4d ec	 mov	 ecx, DWORD PTR _sidx$1$[ebp]

; 843  : 	return _stricmp( str1, str2 );

  00104	83 c4 08	 add	 esp, 8

; 1869 : 
; 1870 : 			if( (bDiff == false) && (i3String::Compare( pszBase, pszAbs) == 0))

  00107	85 c0		 test	 eax, eax
  00109	75 05		 jne	 SHORT $LN72@MakeRelati

; 1871 : 			{
; 1872 : 				bProcess = false;

  0010b	32 db		 xor	 bl, bl

; 1873 : 				didx++;

  0010d	47		 inc	 edi

; 1874 : 			}

  0010e	eb 09		 jmp	 SHORT $LN10@MakeRelati
$LN72@MakeRelati:

; 1875 : 			else
; 1876 : 			{
; 1877 : 				pszAbs = "..";

  00110	be 00 00 00 00	 mov	 esi, OFFSET ??_C@_02DJGKEECL@?4?4@

; 1878 : 				bDiff = true;

  00115	c6 45 f3 01	 mov	 BYTE PTR _bDiff$1$[ebp], 1
$LN10@MakeRelati:

; 1879 : 			}
; 1880 : 
; 1881 : 			sidx++;

  00119	41		 inc	 ecx
  0011a	89 4d ec	 mov	 DWORD PTR _sidx$1$[ebp], ecx

; 1886 : 		}
; 1887 : 
; 1888 : 		if( bProcess)

  0011d	84 db		 test	 bl, bl
  0011f	74 5a		 je	 SHORT $LN12@MakeRelati
  00121	8b 55 d8	 mov	 edx, DWORD PTR _AbsToken$[ebp+20]
  00124	eb 01		 jmp	 SHORT $LN71@MakeRelati
$LN7@MakeRelati:

; 1882 : 		}
; 1883 : 		else
; 1884 : 		{
; 1885 : 			didx++;

  00126	47		 inc	 edi
$LN71@MakeRelati:

; 1889 : 		{
; 1890 : 			i3String::Concat( pszRelPath, pszAbs);

  00127	8b 5d 10	 mov	 ebx, DWORD PTR _pszRelPath$[ebp]
  0012a	8b c3		 mov	 eax, ebx

; 1568 : 	while( *pDest)

  0012c	80 3b 00	 cmp	 BYTE PTR [ebx], 0
  0012f	74 06		 je	 SHORT $LN43@MakeRelati
$LL29@MakeRelati:

; 1569 : 	{
; 1570 : 		pDest++;

  00131	40		 inc	 eax
  00132	80 38 00	 cmp	 BYTE PTR [eax], 0
  00135	75 fa		 jne	 SHORT $LL29@MakeRelati
$LN43@MakeRelati:

; 1571 : 	}
; 1572 : 	
; 1573 : 	while( *pSrc)

  00137	8a 0e		 mov	 cl, BYTE PTR [esi]
  00139	84 c9		 test	 cl, cl
  0013b	74 0f		 je	 SHORT $LN32@MakeRelati
  0013d	8d 49 00	 npad	 3
$LL31@MakeRelati:

; 1574 : 	{
; 1575 : 		*pDest = *pSrc;

  00140	88 08		 mov	 BYTE PTR [eax], cl

; 1576 : 		
; 1577 : 		pDest++;
; 1578 : 		pSrc++;

  00142	8d 76 01	 lea	 esi, DWORD PTR [esi+1]
  00145	8a 0e		 mov	 cl, BYTE PTR [esi]
  00147	40		 inc	 eax
  00148	84 c9		 test	 cl, cl
  0014a	75 f4		 jne	 SHORT $LL31@MakeRelati
$LN32@MakeRelati:

; 1579 : 	}
; 1580 : 	
; 1581 : 	*pDest = 0;

  0014c	c6 00 00	 mov	 BYTE PTR [eax], 0

; 1891 : 
; 1892 : 			if( didx < AbsToken.GetCount())

  0014f	3b fa		 cmp	 edi, edx
  00151	7d 36		 jge	 SHORT $LN70@MakeRelati

; 1568 : 	while( *pDest)

  00153	80 3b 00	 cmp	 BYTE PTR [ebx], 0

; 1893 : 				i3String::Concat( pszRelPath, "\\");

  00156	ba 00 00 00 00	 mov	 edx, OFFSET ??_C@_01KICIPPFI@?2@
  0015b	8b c3		 mov	 eax, ebx

; 1568 : 	while( *pDest)

  0015d	74 07		 je	 SHORT $LN45@MakeRelati
  0015f	90		 npad	 1
$LL35@MakeRelati:

; 1569 : 	{
; 1570 : 		pDest++;

  00160	40		 inc	 eax
  00161	80 38 00	 cmp	 BYTE PTR [eax], 0
  00164	75 fa		 jne	 SHORT $LL35@MakeRelati
$LN45@MakeRelati:
  00166	b1 5c		 mov	 cl, 92			; 0000005cH
$LL37@MakeRelati:

; 1574 : 	{
; 1575 : 		*pDest = *pSrc;

  00168	88 08		 mov	 BYTE PTR [eax], cl

; 1576 : 		
; 1577 : 		pDest++;
; 1578 : 		pSrc++;

  0016a	8d 52 01	 lea	 edx, DWORD PTR [edx+1]
  0016d	8a 0a		 mov	 cl, BYTE PTR [edx]
  0016f	8d 40 01	 lea	 eax, DWORD PTR [eax+1]
  00172	84 c9		 test	 cl, cl
  00174	75 f2		 jne	 SHORT $LL37@MakeRelati

; 1579 : 	}
; 1580 : 	
; 1581 : 	*pDest = 0;

  00176	88 08		 mov	 BYTE PTR [eax], cl
  00178	8b 4d ec	 mov	 ecx, DWORD PTR _sidx$1$[ebp]
$LN12@MakeRelati:

; 1859 : 
; 1860 : 	while( didx < AbsToken.GetCount())

  0017b	8b 55 d8	 mov	 edx, DWORD PTR _AbsToken$[ebp+20]
  0017e	8a 7d f3	 mov	 bh, BYTE PTR _bDiff$1$[ebp]
  00181	3b fa		 cmp	 edi, edx
  00183	0f 8c 5b ff ff
	ff		 jl	 $LL2@MakeRelati
$LN70@MakeRelati:

; 1894 : 		}
; 1895 : 	}
; 1896 : }

  00189	8d 4d c4	 lea	 ecx, DWORD PTR _AbsToken$[ebp]
  0018c	e8 00 00 00 00	 call	 ??1i3StringList@@UAE@XZ	; i3StringList::~i3StringList
  00191	8d 4d 9c	 lea	 ecx, DWORD PTR _BaseToken$[ebp]
  00194	e8 00 00 00 00	 call	 ??1i3StringList@@UAE@XZ	; i3StringList::~i3StringList
  00199	8b 4d f4	 mov	 ecx, DWORD PTR __$EHRec$[ebp]
  0019c	64 89 0d 00 00
	00 00		 mov	 DWORD PTR fs:0, ecx
  001a3	59		 pop	 ecx
  001a4	5f		 pop	 edi
  001a5	5e		 pop	 esi
  001a6	5b		 pop	 ebx
  001a7	8b e5		 mov	 esp, ebp
  001a9	5d		 pop	 ebp
  001aa	c3		 ret	 0
_TEXT	ENDS
;	COMDAT text$x
text$x	SEGMENT
__unwindfunclet$?MakeRelativePath@i3String@@YAXPBD0PADH@Z$0:
  00000	8d 4d 9c	 lea	 ecx, DWORD PTR _BaseToken$[ebp]
  00003	e9 00 00 00 00	 jmp	 ??1i3StringList@@UAE@XZ	; i3StringList::~i3StringList
__unwindfunclet$?MakeRelativePath@i3String@@YAXPBD0PADH@Z$1:
  00008	8d 4d c4	 lea	 ecx, DWORD PTR _AbsToken$[ebp]
  0000b	e9 00 00 00 00	 jmp	 ??1i3StringList@@UAE@XZ	; i3StringList::~i3StringList
  00010	cc		 int	 3
  00011	cc		 int	 3
  00012	cc		 int	 3
  00013	cc		 int	 3
  00014	cc		 int	 3
__ehhandler$?MakeRelativePath@i3String@@YAXPBD0PADH@Z:
  00015	90		 npad	 1
  00016	90		 npad	 1
  00017	8b 54 24 08	 mov	 edx, DWORD PTR [esp+8]
  0001b	8d 42 0c	 lea	 eax, DWORD PTR [edx+12]
  0001e	8b 4a 98	 mov	 ecx, DWORD PTR [edx-104]
  00021	33 c8		 xor	 ecx, eax
  00023	e8 00 00 00 00	 call	 @__security_check_cookie@4
  00028	b8 00 00 00 00	 mov	 eax, OFFSET __ehfuncinfo$?MakeRelativePath@i3String@@YAXPBD0PADH@Z
  0002d	e9 00 00 00 00	 jmp	 ___CxxFrameHandler3
text$x	ENDS
?MakeRelativePath@i3String@@YAXPBD0PADH@Z ENDP		; i3String::MakeRelativePath
; Function compile flags: /Ogtp
; File E:\Proyectos\JuegosOnlineproyectos\PB\pbblow\Piercing Blow Remake\i3Server\src\i3Base\i3String.cpp
;	COMDAT ?ResolvePathToken@i3String@@YAXPBDPAVi3StringList@@@Z
_TEXT	SEGMENT
_szBuf$ = -264						; size = 260
__$ArrayPad$ = -4					; size = 4
_pszPath$ = 8						; size = 4
_pList$ = 12						; size = 4
?ResolvePathToken@i3String@@YAXPBDPAVi3StringList@@@Z PROC ; i3String::ResolvePathToken, COMDAT

; 1790 : {

  00000	55		 push	 ebp
  00001	8b ec		 mov	 ebp, esp
  00003	81 ec 08 01 00
	00		 sub	 esp, 264		; 00000108H
  00009	a1 00 00 00 00	 mov	 eax, DWORD PTR ___security_cookie
  0000e	33 c5		 xor	 eax, ebp
  00010	89 45 fc	 mov	 DWORD PTR __$ArrayPad$[ebp], eax
  00013	56		 push	 esi

; 1791 : 	char * pTemp;
; 1792 : 	char szBuf[MAX_PATH];
; 1793 : 	INT32 i;
; 1794 : 
; 1795 : 	for( i = 0, pTemp = (char *) pszPath; *pTemp != 0; pTemp++)

  00014	8b 75 08	 mov	 esi, DWORD PTR _pszPath$[ebp]
  00017	33 c0		 xor	 eax, eax
  00019	57		 push	 edi
  0001a	8b 7d 0c	 mov	 edi, DWORD PTR _pList$[ebp]
  0001d	8a 16		 mov	 dl, BYTE PTR [esi]
  0001f	84 d2		 test	 dl, dl
  00021	74 7a		 je	 SHORT $LN9@ResolvePat
  00023	8a ca		 mov	 cl, dl
$LN27@ResolvePat:

; 1796 : 	{
; 1797 : 		if( *pTemp & 0x80)

  00025	79 15		 jns	 SHORT $LN5@ResolvePat

; 1798 : 		{
; 1799 : 			szBuf[i] = *pTemp;

  00027	88 8c 05 f8 fe
	ff ff		 mov	 BYTE PTR _szBuf$[ebp+eax], cl

; 1800 : 			i++;
; 1801 : 			pTemp ++;

  0002e	46		 inc	 esi
  0002f	40		 inc	 eax
  00030	8a 0e		 mov	 cl, BYTE PTR [esi]

; 1811 : 				continue;
; 1812 : 			}
; 1813 : 		}
; 1814 : 
; 1815 : 		szBuf[i] = *pTemp;

  00032	88 8c 05 f8 fe
	ff ff		 mov	 BYTE PTR _szBuf$[ebp+eax], cl

; 1816 : 		i++;

  00039	40		 inc	 eax

; 1817 : 	}

  0003a	eb 35		 jmp	 SHORT $LN2@ResolvePat
$LN5@ResolvePat:

; 1802 : 		}
; 1803 : 		else
; 1804 : 		{
; 1805 : 			if((*pTemp == '\\') || (*pTemp == '/'))

  0003c	80 f9 5c	 cmp	 cl, 92			; 0000005cH
  0003f	74 0f		 je	 SHORT $LN8@ResolvePat
  00041	80 f9 2f	 cmp	 cl, 47			; 0000002fH
  00044	74 0a		 je	 SHORT $LN8@ResolvePat

; 1811 : 				continue;
; 1812 : 			}
; 1813 : 		}
; 1814 : 
; 1815 : 		szBuf[i] = *pTemp;

  00046	88 8c 05 f8 fe
	ff ff		 mov	 BYTE PTR _szBuf$[ebp+eax], cl

; 1816 : 		i++;

  0004d	40		 inc	 eax

; 1817 : 	}

  0004e	eb 21		 jmp	 SHORT $LN2@ResolvePat
$LN8@ResolvePat:

; 1806 : 			{
; 1807 : 				szBuf[i] = 0;

  00050	3d 04 01 00 00	 cmp	 eax, 260		; 00000104H
  00055	73 56		 jae	 SHORT $LN13@ResolvePat
  00057	c6 84 05 f8 fe
	ff ff 00	 mov	 BYTE PTR _szBuf$[ebp+eax], 0

; 1808 : 				pList->Add( szBuf);

  0005f	8d 8d f8 fe ff
	ff		 lea	 ecx, DWORD PTR _szBuf$[ebp]
  00065	8b 07		 mov	 eax, DWORD PTR [edi]
  00067	6a ff		 push	 -1
  00069	51		 push	 ecx
  0006a	8b cf		 mov	 ecx, edi
  0006c	ff 50 10	 call	 DWORD PTR [eax+16]

; 1809 : 				
; 1810 : 				i = 0;

  0006f	33 c0		 xor	 eax, eax
$LN2@ResolvePat:

; 1791 : 	char * pTemp;
; 1792 : 	char szBuf[MAX_PATH];
; 1793 : 	INT32 i;
; 1794 : 
; 1795 : 	for( i = 0, pTemp = (char *) pszPath; *pTemp != 0; pTemp++)

  00071	8a 56 01	 mov	 dl, BYTE PTR [esi+1]
  00074	46		 inc	 esi
  00075	8a ca		 mov	 cl, dl
  00077	84 d2		 test	 dl, dl
  00079	75 aa		 jne	 SHORT $LN27@ResolvePat

; 1818 : 
; 1819 : 	if( i > 0)

  0007b	85 c0		 test	 eax, eax
  0007d	7e 1e		 jle	 SHORT $LN9@ResolvePat

; 1820 : 	{
; 1821 : 		szBuf[i] = 0;

  0007f	3d 04 01 00 00	 cmp	 eax, 260		; 00000104H
  00084	73 27		 jae	 SHORT $LN13@ResolvePat
  00086	88 94 05 f8 fe
	ff ff		 mov	 BYTE PTR _szBuf$[ebp+eax], dl

; 1822 : 		pList->Add( szBuf);

  0008d	8d 8d f8 fe ff
	ff		 lea	 ecx, DWORD PTR _szBuf$[ebp]
  00093	8b 07		 mov	 eax, DWORD PTR [edi]
  00095	6a ff		 push	 -1
  00097	51		 push	 ecx
  00098	8b cf		 mov	 ecx, edi
  0009a	ff 50 10	 call	 DWORD PTR [eax+16]
$LN9@ResolvePat:

; 1823 : 	}
; 1824 : }

  0009d	8b 4d fc	 mov	 ecx, DWORD PTR __$ArrayPad$[ebp]
  000a0	5f		 pop	 edi
  000a1	33 cd		 xor	 ecx, ebp
  000a3	5e		 pop	 esi
  000a4	e8 00 00 00 00	 call	 @__security_check_cookie@4
  000a9	8b e5		 mov	 esp, ebp
  000ab	5d		 pop	 ebp
  000ac	c3		 ret	 0
$LN13@ResolvePat:

; 1820 : 	{
; 1821 : 		szBuf[i] = 0;

  000ad	e8 00 00 00 00	 call	 ___report_rangecheckfailure
$LN26@ResolvePat:
  000b2	cc		 int	 3
?ResolvePathToken@i3String@@YAXPBDPAVi3StringList@@@Z ENDP ; i3String::ResolvePathToken
_TEXT	ENDS
; Function compile flags: /Ogtp
; File E:\Proyectos\JuegosOnlineproyectos\PB\pbblow\Piercing Blow Remake\i3Server\src\i3Base\i3String.cpp
;	COMDAT ?RemoveDriveChar@i3String@@YAXPAD@Z
_TEXT	SEGMENT
_path$ = 8						; size = 4
?RemoveDriveChar@i3String@@YAXPAD@Z PROC		; i3String::RemoveDriveChar, COMDAT

; 653  : {

  00000	55		 push	 ebp
  00001	8b ec		 mov	 ebp, esp

; 654  : 	char *pTemp;
; 655  : 
; 656  : 	pTemp = path;

  00003	8b 55 08	 mov	 edx, DWORD PTR _path$[ebp]
  00006	8b c2		 mov	 eax, edx

; 657  : 
; 658  : 	while( *pTemp != 0) {

  00008	8a 0a		 mov	 cl, BYTE PTR [edx]
  0000a	84 c9		 test	 cl, cl
  0000c	74 11		 je	 SHORT $LN11@RemoveDriv
  0000e	8b ff		 npad	 2
$LL2@RemoveDriv:

; 659  : 		if( *pTemp == ':')

  00010	80 f9 3a	 cmp	 cl, 58			; 0000003aH
  00013	74 0a		 je	 SHORT $LN11@RemoveDriv

; 660  : 			break;
; 661  : 
; 662  : 		pTemp++;

  00015	8a 48 01	 mov	 cl, BYTE PTR [eax+1]
  00018	40		 inc	 eax
  00019	84 c9		 test	 cl, cl
  0001b	75 f3		 jne	 SHORT $LL2@RemoveDriv

; 678  : }

  0001d	5d		 pop	 ebp
  0001e	c3		 ret	 0
$LN11@RemoveDriv:

; 663  : 	}
; 664  : 
; 665  : 	if( *pTemp == 0)

  0001f	80 38 00	 cmp	 BYTE PTR [eax], 0
  00022	74 1b		 je	 SHORT $LN1@RemoveDriv

; 666  : 		return;
; 667  : 
; 668  : 	pTemp++;
; 669  : 
; 670  : 	while( *pTemp != 0) {

  00024	8a 48 01	 mov	 cl, BYTE PTR [eax+1]
  00027	40		 inc	 eax
  00028	84 c9		 test	 cl, cl
  0002a	74 10		 je	 SHORT $LN5@RemoveDriv
  0002c	8d 64 24 00	 npad	 4
$LL4@RemoveDriv:

; 671  : 		*path = *pTemp;

  00030	88 0a		 mov	 BYTE PTR [edx], cl

; 672  : 
; 673  : 		path++;
; 674  : 		pTemp++;

  00032	8d 40 01	 lea	 eax, DWORD PTR [eax+1]
  00035	8a 08		 mov	 cl, BYTE PTR [eax]
  00037	42		 inc	 edx
  00038	84 c9		 test	 cl, cl
  0003a	75 f4		 jne	 SHORT $LL4@RemoveDriv
$LN5@RemoveDriv:

; 675  : 	}
; 676  : 
; 677  : 	*path = 0;

  0003c	c6 02 00	 mov	 BYTE PTR [edx], 0
$LN1@RemoveDriv:

; 678  : }

  0003f	5d		 pop	 ebp
  00040	c3		 ret	 0
?RemoveDriveChar@i3String@@YAXPAD@Z ENDP		; i3String::RemoveDriveChar
_TEXT	ENDS
; Function compile flags: /Ogtp
; File E:\Proyectos\JuegosOnlineproyectos\PB\pbblow\Piercing Blow Remake\i3Server\src\i3Base\i3String.cpp
; File E:\Proyectos\JuegosOnlineproyectos\PB\pbblow\Piercing Blow Remake\i3Server\include\i3Base\i3Memory.h
; File E:\Proyectos\JuegosOnlineproyectos\PB\pbblow\Piercing Blow Remake\i3Server\src\i3Base\i3String.cpp
; File E:\Proyectos\JuegosOnlineproyectos\PB\pbblow\Piercing Blow Remake\i3Server\include\i3Base\i3Memory.h
; File E:\Proyectos\JuegosOnlineproyectos\PB\pbblow\Piercing Blow Remake\i3Server\src\i3Base\i3String.cpp
;	COMDAT ?SplitFileExt@i3String@@YAHPBDPADH@Z
_TEXT	SEGMENT
_fname$ = 8						; size = 4
_BufExt$ = 12						; size = 4
___formal$ = 16						; size = 4
?SplitFileExt@i3String@@YAHPBDPADH@Z PROC		; i3String::SplitFileExt, COMDAT

; 629  : {

  00000	55		 push	 ebp
  00001	8b ec		 mov	 ebp, esp

; 630  : 	int Count = 0;
; 631  : 
; 632  : 	for (int i = (int)strlen(fname) - 1; i >= 0; i--) {

  00003	8b 55 08	 mov	 edx, DWORD PTR _fname$[ebp]
  00006	8b ca		 mov	 ecx, edx
  00008	56		 push	 esi
  00009	57		 push	 edi
  0000a	33 f6		 xor	 esi, esi
  0000c	8d 79 01	 lea	 edi, DWORD PTR [ecx+1]
  0000f	90		 npad	 1
$LL16@SplitFileE:
  00010	8a 01		 mov	 al, BYTE PTR [ecx]
  00012	41		 inc	 ecx
  00013	84 c0		 test	 al, al
  00015	75 f9		 jne	 SHORT $LL16@SplitFileE
  00017	2b cf		 sub	 ecx, edi
  00019	8d 41 ff	 lea	 eax, DWORD PTR [ecx-1]
  0001c	85 c0		 test	 eax, eax
  0001e	78 2e		 js	 SHORT $LN18@SplitFileE
$LL4@SplitFileE:

; 633  : 
; 634  : 		if ( fname[i] == '.' ) {

  00020	80 3c 10 2e	 cmp	 BYTE PTR [eax+edx], 46	; 0000002eH
  00024	8d 0c 10	 lea	 ecx, DWORD PTR [eax+edx]
  00027	74 0c		 je	 SHORT $LN12@SplitFileE

; 641  : 			}
; 642  : 
; 643  : 			break;
; 644  : 		}
; 645  : 		else
; 646  : 			Count++;

  00029	46		 inc	 esi
  0002a	83 e8 01	 sub	 eax, 1
  0002d	79 f1		 jns	 SHORT $LL4@SplitFileE

; 647  : 	}
; 648  : 
; 649  : 	return Count;
; 650  : }

  0002f	5f		 pop	 edi
  00030	8b c6		 mov	 eax, esi
  00032	5e		 pop	 esi
  00033	5d		 pop	 ebp
  00034	c3		 ret	 0
$LN12@SplitFileE:

; 635  : 
; 636  : 			if (BufExt != NULL)

  00035	8b 7d 0c	 mov	 edi, DWORD PTR _BufExt$[ebp]
  00038	85 ff		 test	 edi, edi
  0003a	74 12		 je	 SHORT $LN18@SplitFileE
; File E:\Proyectos\JuegosOnlineproyectos\PB\pbblow\Piercing Blow Remake\i3Server\include\i3Base\i3Memory.h

; 134  : 			::CopyMemory( pDest, pSrc, sz);

  0003c	56		 push	 esi
; File E:\Proyectos\JuegosOnlineproyectos\PB\pbblow\Piercing Blow Remake\i3Server\src\i3Base\i3String.cpp

; 638  : 				i3mem::Copy( BufExt, (void *)(fname + i + 1), Count);

  0003d	8d 41 01	 lea	 eax, DWORD PTR [ecx+1]
; File E:\Proyectos\JuegosOnlineproyectos\PB\pbblow\Piercing Blow Remake\i3Server\include\i3Base\i3Memory.h

; 134  : 			::CopyMemory( pDest, pSrc, sz);

  00040	50		 push	 eax
  00041	57		 push	 edi
  00042	e8 00 00 00 00	 call	 _memcpy
  00047	83 c4 0c	 add	 esp, 12			; 0000000cH
; File E:\Proyectos\JuegosOnlineproyectos\PB\pbblow\Piercing Blow Remake\i3Server\src\i3Base\i3String.cpp

; 640  : 				BufExt[ Count] = 0;

  0004a	c6 04 3e 00	 mov	 BYTE PTR [esi+edi], 0
$LN18@SplitFileE:

; 647  : 	}
; 648  : 
; 649  : 	return Count;
; 650  : }

  0004e	5f		 pop	 edi
  0004f	8b c6		 mov	 eax, esi
  00051	5e		 pop	 esi
  00052	5d		 pop	 ebp
  00053	c3		 ret	 0
?SplitFileExt@i3String@@YAHPBDPADH@Z ENDP		; i3String::SplitFileExt
_TEXT	ENDS
; Function compile flags: /Ogtp
; File E:\Proyectos\JuegosOnlineproyectos\PB\pbblow\Piercing Blow Remake\i3Server\src\i3Base\i3String.cpp
;	COMDAT ?SplitPath@i3String@@YAXPBDPAD@Z
_TEXT	SEGMENT
_pszSrc$ = 8						; size = 4
_pszDest$ = 12						; size = 4
?SplitPath@i3String@@YAXPBDPAD@Z PROC			; i3String::SplitPath, COMDAT

; 590  : {

  00000	55		 push	 ebp
  00001	8b ec		 mov	 ebp, esp

; 591  : 	char * pszTemp, *pszEnd;
; 592  : 
; 593  : 	pszEnd = (char *) pszSrc + strlen( pszSrc);

  00003	8b 55 08	 mov	 edx, DWORD PTR _pszSrc$[ebp]
  00006	8b ca		 mov	 ecx, edx
  00008	56		 push	 esi
  00009	8d 71 01	 lea	 esi, DWORD PTR [ecx+1]
  0000c	8d 64 24 00	 npad	 4
$LL20@SplitPath:
  00010	8a 01		 mov	 al, BYTE PTR [ecx]
  00012	41		 inc	 ecx
  00013	84 c0		 test	 al, al
  00015	75 f9		 jne	 SHORT $LL20@SplitPath
  00017	2b ce		 sub	 ecx, esi
  00019	8d 04 11	 lea	 eax, DWORD PTR [ecx+edx]

; 594  : 
; 595  : 	// PathŔÇ łˇÁˇŔ» ĂŁ´Â´Ů.
; 596  : 	while( (pszEnd > pszSrc))

  0001c	3b d0		 cmp	 edx, eax
  0001e	73 2b		 jae	 SHORT $LN21@SplitPath
$LL2@SplitPath:

; 597  : 	{
; 598  : 		if( (*pszEnd == '\\') || (*pszEnd == '/'))

  00020	8a 08		 mov	 cl, BYTE PTR [eax]
  00022	80 f9 5c	 cmp	 cl, 92			; 0000005cH
  00025	74 0a		 je	 SHORT $LN22@SplitPath
  00027	80 f9 2f	 cmp	 cl, 47			; 0000002fH
  0002a	74 05		 je	 SHORT $LN22@SplitPath

; 599  : 			break;
; 600  : 
; 601  : 		pszEnd --;

  0002c	48		 dec	 eax
  0002d	3b c2		 cmp	 eax, edx
  0002f	77 ef		 ja	 SHORT $LL2@SplitPath
$LN22@SplitPath:

; 602  : 	}
; 603  : 
; 604  : 	// ľŐÂĘżˇĽ­şÎĹÍ pszEnd Ŕ§Äˇ±îÁö şą»ç
; 605  : 	pszTemp = (char *) pszSrc;
; 606  : 
; 607  : 	while( pszTemp < pszEnd)

  00031	3b d0		 cmp	 edx, eax
  00033	73 16		 jae	 SHORT $LN21@SplitPath
  00035	8b 75 0c	 mov	 esi, DWORD PTR _pszDest$[ebp]
$LL4@SplitPath:

; 608  : 	{
; 609  : 		*pszDest = *pszTemp;

  00038	8a 0a		 mov	 cl, BYTE PTR [edx]

; 610  : 		pszDest++;

  0003a	8d 76 01	 lea	 esi, DWORD PTR [esi+1]

; 611  : 		pszTemp++;

  0003d	42		 inc	 edx
  0003e	88 4e ff	 mov	 BYTE PTR [esi-1], cl
  00041	3b d0		 cmp	 edx, eax
  00043	72 f3		 jb	 SHORT $LL4@SplitPath

; 612  : 	}
; 613  : 
; 614  : 	*pszDest = 0;

  00045	c6 06 00	 mov	 BYTE PTR [esi], 0
  00048	5e		 pop	 esi

; 615  : }

  00049	5d		 pop	 ebp
  0004a	c3		 ret	 0
$LN21@SplitPath:

; 612  : 	}
; 613  : 
; 614  : 	*pszDest = 0;

  0004b	8b 45 0c	 mov	 eax, DWORD PTR _pszDest$[ebp]
  0004e	5e		 pop	 esi
  0004f	c6 00 00	 mov	 BYTE PTR [eax], 0

; 615  : }

  00052	5d		 pop	 ebp
  00053	c3		 ret	 0
?SplitPath@i3String@@YAXPBDPAD@Z ENDP			; i3String::SplitPath
_TEXT	ENDS
; Function compile flags: /Ogtp
; File E:\Proyectos\JuegosOnlineproyectos\PB\pbblow\Piercing Blow Remake\i3Server\src\i3Base\i3String.cpp
;	COMDAT ?SplitFileName@i3String@@YAPADPBDPADH@Z
_TEXT	SEGMENT
_fname$ = 8						; size = 4
_Buf$ = 12						; size = 4
_WithExt$ = 16						; size = 4
?SplitFileName@i3String@@YAPADPBDPADH@Z PROC		; i3String::SplitFileName, COMDAT

; 544  : {

  00000	55		 push	 ebp
  00001	8b ec		 mov	 ebp, esp

; 545  : 	// considerable cases
; 546  : 	// 1. C:\\Directory\\FileName.EXT
; 547  : 	// 2. ..\Directory\\FileName.EXT
; 548  : 	// 3. FileName.EXT
; 549  : 	// 4. FileName
; 550  : 	INT32 len = (INT32)strlen( fname);

  00003	8b 55 08	 mov	 edx, DWORD PTR _fname$[ebp]
  00006	8b ca		 mov	 ecx, edx
  00008	56		 push	 esi
  00009	8d 71 01	 lea	 esi, DWORD PTR [ecx+1]
  0000c	8d 64 24 00	 npad	 4
$LL28@SplitFileN:
  00010	8a 01		 mov	 al, BYTE PTR [ecx]
  00012	41		 inc	 ecx
  00013	84 c0		 test	 al, al
  00015	75 f9		 jne	 SHORT $LL28@SplitFileN
  00017	2b ce		 sub	 ecx, esi

; 551  : 	char *pStart, *pResult;
; 552  : 
; 553  : 	if( len <= 0)

  00019	85 c9		 test	 ecx, ecx
  0001b	7f 05		 jg	 SHORT $LN6@SplitFileN

; 554  : 		return (char *) fname;

  0001d	8b c2		 mov	 eax, edx
  0001f	5e		 pop	 esi

; 587  : }

  00020	5d		 pop	 ebp
  00021	c3		 ret	 0
$LN6@SplitFileN:

; 555  : 
; 556  : 	pStart = (char *)(fname + len - 1);

  00022	8d 42 ff	 lea	 eax, DWORD PTR [edx-1]
  00025	03 c1		 add	 eax, ecx

; 557  : 	while((pStart > fname) && (*pStart != '\\') && (*pStart != '/')) 

  00027	3b c2		 cmp	 eax, edx
  00029	76 16		 jbe	 SHORT $LN30@SplitFileN
  0002b	eb 03 8d 49 00	 npad	 5
$LL2@SplitFileN:
  00030	8a 08		 mov	 cl, BYTE PTR [eax]
  00032	80 f9 5c	 cmp	 cl, 92			; 0000005cH
  00035	74 0a		 je	 SHORT $LN30@SplitFileN
  00037	80 f9 2f	 cmp	 cl, 47			; 0000002fH
  0003a	74 05		 je	 SHORT $LN30@SplitFileN

; 558  : 		pStart --;

  0003c	48		 dec	 eax
  0003d	3b c2		 cmp	 eax, edx
  0003f	77 ef		 ja	 SHORT $LL2@SplitFileN
$LN30@SplitFileN:

; 559  : 
; 560  : 	if((*pStart == '\\') || (*pStart == '/'))

  00041	8a 08		 mov	 cl, BYTE PTR [eax]
  00043	80 f9 5c	 cmp	 cl, 92			; 0000005cH
  00046	74 05		 je	 SHORT $LN8@SplitFileN
  00048	80 f9 2f	 cmp	 cl, 47			; 0000002fH
  0004b	75 04		 jne	 SHORT $LN7@SplitFileN
$LN8@SplitFileN:

; 561  : 		pStart++;

  0004d	8a 48 01	 mov	 cl, BYTE PTR [eax+1]
  00050	40		 inc	 eax
$LN7@SplitFileN:

; 562  : 
; 563  : 	pResult = pStart;
; 564  : 
; 565  : 	while( *pStart) {

  00051	8b 55 0c	 mov	 edx, DWORD PTR _Buf$[ebp]
  00054	57		 push	 edi
  00055	8b f8		 mov	 edi, eax
  00057	84 c9		 test	 cl, cl
  00059	74 1d		 je	 SHORT $LN27@SplitFileN
  0005b	8b 75 10	 mov	 esi, DWORD PTR _WithExt$[ebp]
  0005e	8b ff		 npad	 2
$LL4@SplitFileN:

; 566  : 		if( Buf != NULL) {

  00060	85 d2		 test	 edx, edx
  00062	74 05		 je	 SHORT $LN9@SplitFileN

; 567  : 			*Buf = *pStart;

  00064	8a 08		 mov	 cl, BYTE PTR [eax]
  00066	88 0a		 mov	 BYTE PTR [edx], cl

; 568  : 
; 569  : 			Buf++;

  00068	42		 inc	 edx
$LN9@SplitFileN:

; 570  : 		}
; 571  : 
; 572  : 		pStart++;

  00069	40		 inc	 eax

; 573  : 
; 574  : 		if( WithExt == FALSE) 

  0006a	85 f6		 test	 esi, esi
  0006c	75 05		 jne	 SHORT $LN26@SplitFileN

; 575  : 			if( *pStart == '.') {

  0006e	80 38 2e	 cmp	 BYTE PTR [eax], 46	; 0000002eH
  00071	74 05		 je	 SHORT $LN27@SplitFileN
$LN26@SplitFileN:

; 562  : 
; 563  : 	pResult = pStart;
; 564  : 
; 565  : 	while( *pStart) {

  00073	80 38 00	 cmp	 BYTE PTR [eax], 0
  00076	75 e8		 jne	 SHORT $LL4@SplitFileN
$LN27@SplitFileN:

; 576  : 
; 577  : 				if( Buf != NULL)
; 578  : 					*Buf = 0;
; 579  : 				return pResult;
; 580  : 			}
; 581  : 	}
; 582  : 
; 583  : 	if( Buf != NULL)
; 584  : 		*Buf = 0;
; 585  : 
; 586  : 	return pResult;

  00078	85 d2		 test	 edx, edx
  0007a	74 03		 je	 SHORT $LN13@SplitFileN
  0007c	c6 02 00	 mov	 BYTE PTR [edx], 0
$LN13@SplitFileN:
  0007f	8b c7		 mov	 eax, edi
  00081	5f		 pop	 edi
  00082	5e		 pop	 esi

; 587  : }

  00083	5d		 pop	 ebp
  00084	c3		 ret	 0
?SplitFileName@i3String@@YAPADPBDPADH@Z ENDP		; i3String::SplitFileName
_TEXT	ENDS
; Function compile flags: /Ogtp
; File E:\Proyectos\JuegosOnlineproyectos\PB\pbblow\Piercing Blow Remake\i3Server\src\i3Base\i3String.cpp
;	COMDAT ?SwapExt@i3String@@YAXPADHPBD1@Z
_TEXT	SEGMENT
_szOut$ = 8						; size = 4
_nOutMax$ = 12						; size = 4
_szIn$ = 16						; size = 4
_szNewExt$ = 20						; size = 4
?SwapExt@i3String@@YAXPADHPBD1@Z PROC			; i3String::SwapExt, COMDAT

; 533  : {

  00000	55		 push	 ebp
  00001	8b ec		 mov	 ebp, esp

; 534  : 	if( szOut != szIn )

  00003	8b 4d 08	 mov	 ecx, DWORD PTR _szOut$[ebp]
  00006	8b 55 10	 mov	 edx, DWORD PTR _szIn$[ebp]
  00009	56		 push	 esi
  0000a	3b ca		 cmp	 ecx, edx
  0000c	74 26		 je	 SHORT $LN4@SwapExt

; 535  : 	{
; 536  : 		Copy( szOut, szIn, nOutMax );

  0000e	8b 75 0c	 mov	 esi, DWORD PTR _nOutMax$[ebp]
  00011	57		 push	 edi
  00012	8b f9		 mov	 edi, ecx

; 1476 : 	if ( DestLength <= 0 )

  00014	85 f6		 test	 esi, esi
  00016	7e 1b		 jle	 SHORT $LN74@SwapExt

; 1477 : 		return;
; 1478 : 
; 1479 : 	while( *pSrc && --DestLength > 0 )

  00018	80 3a 00	 cmp	 BYTE PTR [edx], 0
  0001b	74 13		 je	 SHORT $LN59@SwapExt
  0001d	8d 49 00	 npad	 3
$LL5@SwapExt:
  00020	4e		 dec	 esi
  00021	85 f6		 test	 esi, esi
  00023	7e 0b		 jle	 SHORT $LN59@SwapExt

; 1480 : 	{
; 1481 : 		*pDest = *pSrc;

  00025	8a 02		 mov	 al, BYTE PTR [edx]

; 1482 : 
; 1483 : 		pDest++;
; 1484 : 		pSrc++;

  00027	42		 inc	 edx
  00028	88 07		 mov	 BYTE PTR [edi], al
  0002a	47		 inc	 edi
  0002b	80 3a 00	 cmp	 BYTE PTR [edx], 0
  0002e	75 f0		 jne	 SHORT $LL5@SwapExt
$LN59@SwapExt:

; 1485 : 	}
; 1486 : 
; 1487 : 	*pDest = 0;

  00030	c6 07 00	 mov	 BYTE PTR [edi], 0
$LN74@SwapExt:
  00033	5f		 pop	 edi
$LN4@SwapExt:

; 511  : 	p = fname + strlen(fname);

  00034	8b d1		 mov	 edx, ecx
  00036	8d 72 01	 lea	 esi, DWORD PTR [edx+1]
  00039	8d a4 24 00 00
	00 00		 npad	 7
$LL57@SwapExt:
  00040	8a 02		 mov	 al, BYTE PTR [edx]
  00042	42		 inc	 edx
  00043	84 c0		 test	 al, al
  00045	75 f9		 jne	 SHORT $LL57@SwapExt
  00047	2b d6		 sub	 edx, esi
  00049	5e		 pop	 esi
  0004a	8d 04 0a	 lea	 eax, DWORD PTR [edx+ecx]

; 512  : 
; 513  : 	while((p > fname) && (*p != '.')) {

  0004d	3b c1		 cmp	 eax, ecx
  0004f	76 0a		 jbe	 SHORT $LN11@SwapExt
$LL10@SwapExt:
  00051	80 38 2e	 cmp	 BYTE PTR [eax], 46	; 0000002eH
  00054	74 0a		 je	 SHORT $LN56@SwapExt

; 514  : 		p--;

  00056	48		 dec	 eax
  00057	3b c1		 cmp	 eax, ecx
  00059	77 f6		 ja	 SHORT $LL10@SwapExt
$LN11@SwapExt:

; 515  : 	}
; 516  : 
; 517  : 	if( *p == '.') {

  0005b	80 38 2e	 cmp	 BYTE PTR [eax], 46	; 0000002eH
  0005e	75 03		 jne	 SHORT $LN12@SwapExt
$LN56@SwapExt:

; 518  : 		*p = 0;

  00060	c6 00 00	 mov	 BYTE PTR [eax], 0
$LN12@SwapExt:

; 1568 : 	while( *pDest)

  00063	80 39 00	 cmp	 BYTE PTR [ecx], 0

; 537  : 	}
; 538  : 	RemoveExt( szOut );
; 539  : 	Concat( szOut, "." );

  00066	ba 00 00 00 00	 mov	 edx, OFFSET ??_C@_01LFCBOECM@?4@
  0006b	8b c1		 mov	 eax, ecx

; 1568 : 	while( *pDest)

  0006d	74 07		 je	 SHORT $LN29@SwapExt
  0006f	90		 npad	 1
$LL15@SwapExt:

; 1569 : 	{
; 1570 : 		pDest++;

  00070	40		 inc	 eax
  00071	80 38 00	 cmp	 BYTE PTR [eax], 0
  00074	75 fa		 jne	 SHORT $LL15@SwapExt
$LN29@SwapExt:
  00076	53		 push	 ebx
  00077	b3 2e		 mov	 bl, 46			; 0000002eH
  00079	8d a4 24 00 00
	00 00		 npad	 7
$LL17@SwapExt:

; 1574 : 	{
; 1575 : 		*pDest = *pSrc;

  00080	88 18		 mov	 BYTE PTR [eax], bl

; 1576 : 		
; 1577 : 		pDest++;
; 1578 : 		pSrc++;

  00082	8d 52 01	 lea	 edx, DWORD PTR [edx+1]
  00085	8a 1a		 mov	 bl, BYTE PTR [edx]
  00087	8d 40 01	 lea	 eax, DWORD PTR [eax+1]
  0008a	84 db		 test	 bl, bl
  0008c	75 f2		 jne	 SHORT $LL17@SwapExt

; 540  :     Concat( szOut, szNewExt );

  0008e	8b 55 14	 mov	 edx, DWORD PTR _szNewExt$[ebp]

; 1581 : 	*pDest = 0;

  00091	c6 00 00	 mov	 BYTE PTR [eax], 0

; 1568 : 	while( *pDest)

  00094	80 39 00	 cmp	 BYTE PTR [ecx], 0

; 1573 : 	while( *pSrc)

  00097	5b		 pop	 ebx

; 1568 : 	while( *pDest)

  00098	74 0c		 je	 SHORT $LN31@SwapExt
  0009a	8d 9b 00 00 00
	00		 npad	 6
$LL21@SwapExt:

; 1569 : 	{
; 1570 : 		pDest++;

  000a0	41		 inc	 ecx
  000a1	80 39 00	 cmp	 BYTE PTR [ecx], 0
  000a4	75 fa		 jne	 SHORT $LL21@SwapExt
$LN31@SwapExt:

; 1571 : 	}
; 1572 : 	
; 1573 : 	while( *pSrc)

  000a6	8a 02		 mov	 al, BYTE PTR [edx]
  000a8	84 c0		 test	 al, al
  000aa	74 12		 je	 SHORT $LN58@SwapExt
  000ac	8d 64 24 00	 npad	 4
$LL23@SwapExt:

; 1574 : 	{
; 1575 : 		*pDest = *pSrc;

  000b0	88 01		 mov	 BYTE PTR [ecx], al

; 1576 : 		
; 1577 : 		pDest++;
; 1578 : 		pSrc++;

  000b2	8d 52 01	 lea	 edx, DWORD PTR [edx+1]
  000b5	8a 02		 mov	 al, BYTE PTR [edx]
  000b7	8d 49 01	 lea	 ecx, DWORD PTR [ecx+1]
  000ba	84 c0		 test	 al, al
  000bc	75 f2		 jne	 SHORT $LL23@SwapExt
$LN58@SwapExt:

; 541  : }

  000be	c6 01 00	 mov	 BYTE PTR [ecx], 0
  000c1	5d		 pop	 ebp
  000c2	c3		 ret	 0
?SwapExt@i3String@@YAXPADHPBD1@Z ENDP			; i3String::SwapExt
_TEXT	ENDS
; Function compile flags: /Ogtp
; File E:\Proyectos\JuegosOnlineproyectos\PB\pbblow\Piercing Blow Remake\i3Server\src\i3Base\i3String.cpp
;	COMDAT ?RemoveExt@i3String@@YAXPAD@Z
_TEXT	SEGMENT
_fname$ = 8						; size = 4
?RemoveExt@i3String@@YAXPAD@Z PROC			; i3String::RemoveExt, COMDAT

; 508  : {

  00000	55		 push	 ebp
  00001	8b ec		 mov	 ebp, esp

; 509  : 	char *p;
; 510  : 
; 511  : 	p = fname + strlen(fname);

  00003	8b 55 08	 mov	 edx, DWORD PTR _fname$[ebp]
  00006	8b ca		 mov	 ecx, edx
  00008	56		 push	 esi
  00009	8d 71 01	 lea	 esi, DWORD PTR [ecx+1]
  0000c	8d 64 24 00	 npad	 4
$LL12@RemoveExt:
  00010	8a 01		 mov	 al, BYTE PTR [ecx]
  00012	41		 inc	 ecx
  00013	84 c0		 test	 al, al
  00015	75 f9		 jne	 SHORT $LL12@RemoveExt
  00017	2b ce		 sub	 ecx, esi
  00019	5e		 pop	 esi
  0001a	8d 04 11	 lea	 eax, DWORD PTR [ecx+edx]

; 512  : 
; 513  : 	while((p > fname) && (*p != '.')) {

  0001d	3b c2		 cmp	 eax, edx
  0001f	76 0a		 jbe	 SHORT $LN3@RemoveExt
$LL2@RemoveExt:
  00021	80 38 2e	 cmp	 BYTE PTR [eax], 46	; 0000002eH
  00024	74 0a		 je	 SHORT $LN11@RemoveExt

; 514  : 		p--;

  00026	48		 dec	 eax
  00027	3b c2		 cmp	 eax, edx
  00029	77 f6		 ja	 SHORT $LL2@RemoveExt
$LN3@RemoveExt:

; 515  : 	}
; 516  : 
; 517  : 	if( *p == '.') {

  0002b	80 38 2e	 cmp	 BYTE PTR [eax], 46	; 0000002eH
  0002e	75 03		 jne	 SHORT $LN4@RemoveExt
$LN11@RemoveExt:

; 518  : 		*p = 0;

  00030	c6 00 00	 mov	 BYTE PTR [eax], 0
$LN4@RemoveExt:

; 519  : 	}
; 520  : }

  00033	5d		 pop	 ebp
  00034	c3		 ret	 0
?RemoveExt@i3String@@YAXPAD@Z ENDP			; i3String::RemoveExt
_TEXT	ENDS
; Function compile flags: /Ogtp
; File E:\Proyectos\JuegosOnlineproyectos\PB\pbblow\Piercing Blow Remake\i3Server\src\i3Base\i3String.cpp
;	COMDAT ?RemoveAllChar@i3String@@YAXPADD@Z
_TEXT	SEGMENT
_str$ = 8						; size = 4
_RemoveChar$ = 12					; size = 1
?RemoveAllChar@i3String@@YAXPADD@Z PROC			; i3String::RemoveAllChar, COMDAT

; 485  : {

  00000	55		 push	 ebp
  00001	8b ec		 mov	 ebp, esp

; 486  : 	unsigned char *p = (unsigned char *) str;

  00003	8b 45 08	 mov	 eax, DWORD PTR _str$[ebp]
  00006	8b d0		 mov	 edx, eax
  00008	53		 push	 ebx
  00009	8a 5d 0c	 mov	 bl, BYTE PTR _RemoveChar$[ebp]

; 487  : 
; 488  : 	while( *p) {

  0000c	8a 08		 mov	 cl, BYTE PTR [eax]
  0000e	84 c9		 test	 cl, cl
  00010	74 19		 je	 SHORT $LN10@RemoveAllC
  00012	56		 push	 esi
  00013	0f be f3	 movsx	 esi, bl
$LL2@RemoveAllC:

; 489  : 		if( *p != RemoveChar) {

  00016	0f b6 c9	 movzx	 ecx, cl
  00019	3b ce		 cmp	 ecx, esi
  0001b	74 05		 je	 SHORT $LN4@RemoveAllC

; 490  : 			*str = *p;

  0001d	8a 0a		 mov	 cl, BYTE PTR [edx]
  0001f	88 08		 mov	 BYTE PTR [eax], cl

; 491  : 			str++;

  00021	40		 inc	 eax
$LN4@RemoveAllC:

; 492  : 		}
; 493  : 		p++;

  00022	8a 4a 01	 mov	 cl, BYTE PTR [edx+1]
  00025	42		 inc	 edx
  00026	84 c9		 test	 cl, cl
  00028	75 ec		 jne	 SHORT $LL2@RemoveAllC

; 487  : 
; 488  : 	while( *p) {

  0002a	5e		 pop	 esi
$LN10@RemoveAllC:

; 494  : 	}
; 495  : 	*str = 0;
; 496  : }

  0002b	c6 00 00	 mov	 BYTE PTR [eax], 0
  0002e	5b		 pop	 ebx
  0002f	5d		 pop	 ebp
  00030	c3		 ret	 0
?RemoveAllChar@i3String@@YAXPADD@Z ENDP			; i3String::RemoveAllChar
_TEXT	ENDS
; Function compile flags: /Ogtp
; File E:\Proyectos\JuegosOnlineproyectos\PB\pbblow\Piercing Blow Remake\i3Server\src\i3Base\i3String.cpp
;	COMDAT ?RemoveAllBlank@i3String@@YAXPAD@Z
_TEXT	SEGMENT
_str$ = 8						; size = 4
?RemoveAllBlank@i3String@@YAXPAD@Z PROC			; i3String::RemoveAllBlank, COMDAT

; 459  : {

  00000	55		 push	 ebp
  00001	8b ec		 mov	 ebp, esp
  00003	56		 push	 esi
  00004	57		 push	 edi

; 460  : 	unsigned char *p;
; 461  : 
; 462  : 	p = (unsigned char *)str;

  00005	8b 7d 08	 mov	 edi, DWORD PTR _str$[ebp]
  00008	8b f7		 mov	 esi, edi

; 463  : 
; 464  : 	while( *p) {

  0000a	8a 07		 mov	 al, BYTE PTR [edi]
  0000c	84 c0		 test	 al, al
  0000e	74 22		 je	 SHORT $LN13@RemoveAllB
$LL2@RemoveAllB:

; 465  : 		if( !isspace( *p) || (*p > 127)) {

  00010	0f b6 c0	 movzx	 eax, al
  00013	50		 push	 eax
  00014	e8 00 00 00 00	 call	 _isspace
  00019	83 c4 04	 add	 esp, 4
  0001c	85 c0		 test	 eax, eax
  0001e	74 05		 je	 SHORT $LN12@RemoveAllB
  00020	80 3e 7f	 cmp	 BYTE PTR [esi], 127	; 0000007fH
  00023	76 05		 jbe	 SHORT $LN4@RemoveAllB
$LN12@RemoveAllB:

; 466  : 			*str = *p;

  00025	8a 06		 mov	 al, BYTE PTR [esi]
  00027	88 07		 mov	 BYTE PTR [edi], al

; 467  : 			str++;

  00029	47		 inc	 edi
$LN4@RemoveAllB:

; 468  : 		}
; 469  : 		p++;

  0002a	8a 46 01	 mov	 al, BYTE PTR [esi+1]
  0002d	46		 inc	 esi
  0002e	84 c0		 test	 al, al
  00030	75 de		 jne	 SHORT $LL2@RemoveAllB
$LN13@RemoveAllB:

; 470  : 	}
; 471  : 	*str = 0;
; 472  : }

  00032	c6 07 00	 mov	 BYTE PTR [edi], 0
  00035	5f		 pop	 edi
  00036	5e		 pop	 esi
  00037	5d		 pop	 ebp
  00038	c3		 ret	 0
?RemoveAllBlank@i3String@@YAXPAD@Z ENDP			; i3String::RemoveAllBlank
_TEXT	ENDS
; Function compile flags: /Ogtp
; File E:\Proyectos\JuegosOnlineproyectos\PB\pbblow\Piercing Blow Remake\i3Server\src\i3Base\i3String.cpp
;	COMDAT ?RemoveBlankFromTail@i3String@@YAXPAD@Z
_TEXT	SEGMENT
_str$ = 8						; size = 4
?RemoveBlankFromTail@i3String@@YAXPAD@Z PROC		; i3String::RemoveBlankFromTail, COMDAT

; 441  : {

  00000	55		 push	 ebp
  00001	8b ec		 mov	 ebp, esp

; 442  : 	unsigned char *sp;
; 443  : 	int len;
; 444  : 
; 445  : 	len = (int)strlen(str);

  00003	8b 55 08	 mov	 edx, DWORD PTR _str$[ebp]
  00006	8b c2		 mov	 eax, edx
  00008	56		 push	 esi
  00009	8d 70 01	 lea	 esi, DWORD PTR [eax+1]
  0000c	8d 64 24 00	 npad	 4
$LL9@RemoveBlan:
  00010	8a 08		 mov	 cl, BYTE PTR [eax]
  00012	40		 inc	 eax
  00013	84 c9		 test	 cl, cl
  00015	75 f9		 jne	 SHORT $LL9@RemoveBlan
  00017	2b c6		 sub	 eax, esi

; 446  : 	sp = (unsigned char *)(str + (len - 1));

  00019	8d 4a ff	 lea	 ecx, DWORD PTR [edx-1]
  0001c	5e		 pop	 esi
  0001d	8d 0c 01	 lea	 ecx, DWORD PTR [ecx+eax]

; 447  : 
; 448  : 	while(len && *sp < 0x21)

  00020	74 0b		 je	 SHORT $LN10@RemoveBlan
$LL2@RemoveBlan:
  00022	80 39 21	 cmp	 BYTE PTR [ecx], 33	; 00000021H
  00025	73 06		 jae	 SHORT $LN10@RemoveBlan

; 449  : 	{
; 450  : 		sp--;

  00027	49		 dec	 ecx

; 451  : 		len--;	// ±ćŔĚ ¸¸Ĺ­¸¸ Ăł¸®ÇĎż© index underflow¸¦ ¸·´Â´Ů. - praptor

  00028	83 e8 01	 sub	 eax, 1
  0002b	75 f5		 jne	 SHORT $LL2@RemoveBlan
$LN10@RemoveBlan:

; 452  : 	}
; 453  : 
; 454  : 	sp++;
; 455  : 	*sp = 0;
; 456  : }

  0002d	c6 41 01 00	 mov	 BYTE PTR [ecx+1], 0
  00031	5d		 pop	 ebp
  00032	c3		 ret	 0
?RemoveBlankFromTail@i3String@@YAXPAD@Z ENDP		; i3String::RemoveBlankFromTail
_TEXT	ENDS
; Function compile flags: /Ogtp
; File E:\Proyectos\JuegosOnlineproyectos\PB\pbblow\Piercing Blow Remake\i3Server\src\i3Base\i3String.cpp
;	COMDAT ?RemoveBlankFromHead@i3String@@YAXPAD@Z
_TEXT	SEGMENT
_str$ = 8						; size = 4
?RemoveBlankFromHead@i3String@@YAXPAD@Z PROC		; i3String::RemoveBlankFromHead, COMDAT

; 408  : {

  00000	55		 push	 ebp
  00001	8b ec		 mov	 ebp, esp

; 409  : 	unsigned char *sp, *tp;
; 410  : 
; 411  : 	sp = (unsigned char *) str;

  00003	8b 55 08	 mov	 edx, DWORD PTR _str$[ebp]
  00006	8b c2		 mov	 eax, edx

; 412  : 	while((*sp <= 32) && (*sp != 0))

  00008	8a 0a		 mov	 cl, BYTE PTR [edx]
  0000a	80 f9 20	 cmp	 cl, 32			; 00000020H
  0000d	77 0e		 ja	 SHORT $LN3@RemoveBlan
  0000f	90		 npad	 1
$LL2@RemoveBlan:
  00010	84 c9		 test	 cl, cl
  00012	74 09		 je	 SHORT $LN3@RemoveBlan
  00014	8a 48 01	 mov	 cl, BYTE PTR [eax+1]

; 413  : 	{
; 414  : 		sp ++;

  00017	40		 inc	 eax
  00018	80 f9 20	 cmp	 cl, 32			; 00000020H
  0001b	76 f3		 jbe	 SHORT $LL2@RemoveBlan
$LN3@RemoveBlan:

; 415  : 	}
; 416  : 
; 417  : 	if( *sp == 0)

  0001d	8a 08		 mov	 cl, BYTE PTR [eax]
  0001f	84 c9		 test	 cl, cl
  00021	74 10		 je	 SHORT $LN1@RemoveBlan
$LL4@RemoveBlan:

; 418  : 		return;
; 419  : 
; 420  : 	tp = (unsigned char *) str;
; 421  : 
; 422  : 	while( *sp) {
; 423  : 		*tp = *sp;

  00023	88 0a		 mov	 BYTE PTR [edx], cl

; 424  : 		tp++;
; 425  : 		sp++;

  00025	8d 40 01	 lea	 eax, DWORD PTR [eax+1]
  00028	8a 08		 mov	 cl, BYTE PTR [eax]
  0002a	8d 52 01	 lea	 edx, DWORD PTR [edx+1]
  0002d	84 c9		 test	 cl, cl
  0002f	75 f2		 jne	 SHORT $LL4@RemoveBlan

; 426  : 	}
; 427  : 	*tp = 0;

  00031	88 0a		 mov	 BYTE PTR [edx], cl
$LN1@RemoveBlan:

; 428  : }

  00033	5d		 pop	 ebp
  00034	c3		 ret	 0
?RemoveBlankFromHead@i3String@@YAXPAD@Z ENDP		; i3String::RemoveBlankFromHead
_TEXT	ENDS
; Function compile flags: /Ogtp
; File E:\Proyectos\JuegosOnlineproyectos\PB\pbblow\Piercing Blow Remake\i3Server\src\i3Base\i3String.cpp
;	COMDAT ?InsertStrW@i3String@@YAPAGPAGPBGHH@Z
_TEXT	SEGMENT
_Dest$ = 8						; size = 4
_Src$ = 12						; size = 4
_Pos$ = 16						; size = 4
_Len$ = 20						; size = 4
?InsertStrW@i3String@@YAPAGPAGPBGHH@Z PROC		; i3String::InsertStrW, COMDAT

; 368  : {

  00000	55		 push	 ebp
  00001	8b ec		 mov	 ebp, esp
  00003	53		 push	 ebx
  00004	8b 5d 08	 mov	 ebx, DWORD PTR _Dest$[ebp]

; 1068 : 	INT32 Count = 0;

  00007	33 c9		 xor	 ecx, ecx

; 368  : {

  00009	56		 push	 esi
  0000a	57		 push	 edi

; 369  : 	WCHAR16 *p, *q;
; 370  : 	int Count, i;
; 371  : 
; 372  : 	Count = (int)Length( Dest) - Pos;

  0000b	8b c3		 mov	 eax, ebx

; 1070 : 	while( *pStr )

  0000d	66 39 0b	 cmp	 WORD PTR [ebx], cx
  00010	74 1a		 je	 SHORT $LN13@InsertStrW
$LL12@InsertStrW:

; 1071 : 	{
; 1072 : 		Count++;
; 1073 : 		pStr++;

  00012	8d 40 02	 lea	 eax, DWORD PTR [eax+2]
  00015	41		 inc	 ecx
  00016	66 83 38 00	 cmp	 WORD PTR [eax], 0
  0001a	75 f6		 jne	 SHORT $LL12@InsertStrW
  0001c	2b 4d 10	 sub	 ecx, DWORD PTR _Pos$[ebp]
  0001f	8b c3		 mov	 eax, ebx
$LL2@InsertStrW:

; 373  : 
; 374  : 	p = Dest;
; 375  : 	while( *p) p++;

  00021	83 c0 02	 add	 eax, 2
  00024	66 83 38 00	 cmp	 WORD PTR [eax], 0
  00028	75 f7		 jne	 SHORT $LL2@InsertStrW
  0002a	eb 05		 jmp	 SHORT $LN3@InsertStrW
$LN13@InsertStrW:

; 369  : 	WCHAR16 *p, *q;
; 370  : 	int Count, i;
; 371  : 
; 372  : 	Count = (int)Length( Dest) - Pos;

  0002c	8b 4d 10	 mov	 ecx, DWORD PTR _Pos$[ebp]
  0002f	f7 d9		 neg	 ecx
$LN3@InsertStrW:

; 376  : 
; 377  : 	q = p + Len;

  00031	8b 55 14	 mov	 edx, DWORD PTR _Len$[ebp]

; 378  : 
; 379  : 	for( i = 0; i < Count+1; i++) {

  00034	8d 79 01	 lea	 edi, DWORD PTR [ecx+1]
  00037	33 f6		 xor	 esi, esi
  00039	8d 14 50	 lea	 edx, DWORD PTR [eax+edx*2]
  0003c	85 ff		 test	 edi, edi
  0003e	7e 11		 jle	 SHORT $LN5@InsertStrW
$LL6@InsertStrW:

; 380  : 		*q = *p;

  00040	66 8b 08	 mov	 cx, WORD PTR [eax]

; 381  : 		p--;

  00043	8d 40 fe	 lea	 eax, DWORD PTR [eax-2]
  00046	46		 inc	 esi
  00047	66 89 0a	 mov	 WORD PTR [edx], cx

; 382  : 		q--;

  0004a	8d 52 fe	 lea	 edx, DWORD PTR [edx-2]
  0004d	3b f7		 cmp	 esi, edi
  0004f	7c ef		 jl	 SHORT $LL6@InsertStrW
$LN5@InsertStrW:

; 383  : 	}
; 384  : 
; 385  : 	p = Dest + Pos;

  00051	8b 45 10	 mov	 eax, DWORD PTR _Pos$[ebp]
  00054	33 ff		 xor	 edi, edi

; 386  : 	const WCHAR16 * r = Src;

  00056	8b 75 0c	 mov	 esi, DWORD PTR _Src$[ebp]
  00059	8d 14 43	 lea	 edx, DWORD PTR [ebx+eax*2]

; 387  : 
; 388  : 	for( i = 0; i < Len; i++) {

  0005c	8b 45 14	 mov	 eax, DWORD PTR _Len$[ebp]
  0005f	85 c0		 test	 eax, eax
  00061	7e 12		 jle	 SHORT $LN36@InsertStrW
$LL9@InsertStrW:

; 389  : 		*p = *r;

  00063	66 8b 0e	 mov	 cx, WORD PTR [esi]

; 390  : 		p++;

  00066	8d 52 02	 lea	 edx, DWORD PTR [edx+2]
  00069	47		 inc	 edi
  0006a	66 89 4a fe	 mov	 WORD PTR [edx-2], cx

; 391  : 		r++;

  0006e	8d 76 02	 lea	 esi, DWORD PTR [esi+2]
  00071	3b f8		 cmp	 edi, eax
  00073	7c ee		 jl	 SHORT $LL9@InsertStrW
$LN36@InsertStrW:
  00075	5f		 pop	 edi

; 392  : 	}
; 393  : 
; 394  : 	return Dest; 
; 395  : }	

  00076	5e		 pop	 esi
  00077	8b c3		 mov	 eax, ebx
  00079	5b		 pop	 ebx
  0007a	5d		 pop	 ebp
  0007b	c3		 ret	 0
?InsertStrW@i3String@@YAPAGPAGPBGHH@Z ENDP		; i3String::InsertStrW
_TEXT	ENDS
; Function compile flags: /Ogtp
; File E:\Proyectos\JuegosOnlineproyectos\PB\pbblow\Piercing Blow Remake\i3Server\src\i3Base\i3String.cpp
;	COMDAT ?InsertStr@i3String@@YAPADPADPBDHH@Z
_TEXT	SEGMENT
_Dest$ = 8						; size = 4
_Src$ = 12						; size = 4
_Pos$ = 16						; size = 4
_Len$ = 20						; size = 4
?InsertStr@i3String@@YAPADPADPBDHH@Z PROC		; i3String::InsertStr, COMDAT

; 338  : {

  00000	55		 push	 ebp
  00001	8b ec		 mov	 ebp, esp

; 339  : 	char *p, *q;
; 340  : 	INT32 Count, i;
; 341  : 
; 342  : 	Count = (INT32)strlen( Dest) - Pos;

  00003	8b 55 08	 mov	 edx, DWORD PTR _Dest$[ebp]
  00006	8d 4a 01	 lea	 ecx, DWORD PTR [edx+1]
  00009	8d a4 24 00 00
	00 00		 npad	 7
$LL26@InsertStr:
  00010	8a 02		 mov	 al, BYTE PTR [edx]
  00012	42		 inc	 edx
  00013	84 c0		 test	 al, al
  00015	75 f9		 jne	 SHORT $LL26@InsertStr

; 343  : 
; 344  : 	p = Dest;

  00017	8b 45 08	 mov	 eax, DWORD PTR _Dest$[ebp]
  0001a	2b d1		 sub	 edx, ecx
  0001c	2b 55 10	 sub	 edx, DWORD PTR _Pos$[ebp]
  0001f	8b c8		 mov	 ecx, eax

; 345  : 	while( *p) p++;

  00021	80 38 00	 cmp	 BYTE PTR [eax], 0
  00024	74 06		 je	 SHORT $LN3@InsertStr
$LL2@InsertStr:
  00026	41		 inc	 ecx
  00027	80 39 00	 cmp	 BYTE PTR [ecx], 0
  0002a	75 fa		 jne	 SHORT $LL2@InsertStr
$LN3@InsertStr:
  0002c	53		 push	 ebx

; 346  : 
; 347  : 	q = p + Len;

  0002d	8b 5d 14	 mov	 ebx, DWORD PTR _Len$[ebp]
  00030	56		 push	 esi
  00031	57		 push	 edi

; 348  : 
; 349  : 	for( i = 0; i < Count+1; i++) {

  00032	8d 7a 01	 lea	 edi, DWORD PTR [edx+1]
  00035	33 d2		 xor	 edx, edx
  00037	8d 34 19	 lea	 esi, DWORD PTR [ecx+ebx]
  0003a	85 ff		 test	 edi, edi
  0003c	7e 14		 jle	 SHORT $LN5@InsertStr
  0003e	8b ff		 npad	 2
$LL6@InsertStr:

; 350  : 		*q = *p;

  00040	8a 01		 mov	 al, BYTE PTR [ecx]

; 351  : 		p--;

  00042	8d 49 ff	 lea	 ecx, DWORD PTR [ecx-1]
  00045	42		 inc	 edx
  00046	88 06		 mov	 BYTE PTR [esi], al

; 352  : 		q--;

  00048	8d 76 ff	 lea	 esi, DWORD PTR [esi-1]
  0004b	3b d7		 cmp	 edx, edi
  0004d	7c f1		 jl	 SHORT $LL6@InsertStr
  0004f	8b 45 08	 mov	 eax, DWORD PTR _Dest$[ebp]
$LN5@InsertStr:

; 353  : 	}
; 354  : 
; 355  : 	p = Dest + Pos;

  00052	8b 55 10	 mov	 edx, DWORD PTR _Pos$[ebp]
  00055	33 ff		 xor	 edi, edi

; 356  : 	const char * r = Src;

  00057	8b 75 0c	 mov	 esi, DWORD PTR _Src$[ebp]
  0005a	03 d0		 add	 edx, eax

; 357  : 
; 358  : 	for( i = 0; i < Len; i++) {

  0005c	85 db		 test	 ebx, ebx
  0005e	7e 10		 jle	 SHORT $LN8@InsertStr
$LL9@InsertStr:

; 359  : 		*p = *r;

  00060	8a 0e		 mov	 cl, BYTE PTR [esi]

; 360  : 		p++;

  00062	8d 52 01	 lea	 edx, DWORD PTR [edx+1]
  00065	47		 inc	 edi
  00066	88 4a ff	 mov	 BYTE PTR [edx-1], cl

; 361  : 		r++;

  00069	8d 76 01	 lea	 esi, DWORD PTR [esi+1]
  0006c	3b fb		 cmp	 edi, ebx
  0006e	7c f0		 jl	 SHORT $LL9@InsertStr
$LN8@InsertStr:
  00070	5f		 pop	 edi

; 362  : 	}
; 363  : 
; 364  : 	return Dest; 
; 365  : }	

  00071	5e		 pop	 esi
  00072	5b		 pop	 ebx
  00073	5d		 pop	 ebp
  00074	c3		 ret	 0
?InsertStr@i3String@@YAPADPADPBDHH@Z ENDP		; i3String::InsertStr
_TEXT	ENDS
; Function compile flags: /Ogtp
; File E:\Proyectos\JuegosOnlineproyectos\PB\pbblow\Piercing Blow Remake\i3Server\src\i3Base\i3String.cpp
;	COMDAT ?WhatIsCode@i3String@@YAHPBDH@Z
_TEXT	SEGMENT
_str$ = 8						; size = 4
_index$ = 12						; size = 4
?WhatIsCode@i3String@@YAHPBDH@Z PROC			; i3String::WhatIsCode, COMDAT

; 306  : {

  00000	55		 push	 ebp
  00001	8b ec		 mov	 ebp, esp
  00003	56		 push	 esi

; 307  : 	int i, rv;
; 308  : 
; 309  : 	rv = 0;
; 310  : 
; 311  : 	for( i = 0; i <= index; i++) {

  00004	8b 75 0c	 mov	 esi, DWORD PTR _index$[ebp]
  00007	33 c0		 xor	 eax, eax
  00009	33 c9		 xor	 ecx, ecx
  0000b	85 f6		 test	 esi, esi
  0000d	78 1c		 js	 SHORT $LN3@WhatIsCode
  0000f	8b 55 08	 mov	 edx, DWORD PTR _str$[ebp]
$LL4@WhatIsCode:

; 312  : 		if( rv == 1)

  00012	83 f8 01	 cmp	 eax, 1
  00015	75 07		 jne	 SHORT $LN5@WhatIsCode

; 313  : 			rv = 2;

  00017	b8 02 00 00 00	 mov	 eax, 2
  0001c	eb 07		 jmp	 SHORT $LN7@WhatIsCode
$LN5@WhatIsCode:

; 314  : 		else if( *str & 0x80) 

  0001e	33 c0		 xor	 eax, eax
  00020	38 02		 cmp	 BYTE PTR [edx], al
  00022	0f 9c c0	 setl	 al
$LN7@WhatIsCode:

; 315  : 			rv = 1;
; 316  : 		else 
; 317  : 			rv = 0;
; 318  : 
; 319  : 		str++;

  00025	41		 inc	 ecx
  00026	42		 inc	 edx
  00027	3b ce		 cmp	 ecx, esi
  00029	7e e7		 jle	 SHORT $LL4@WhatIsCode
$LN3@WhatIsCode:
  0002b	5e		 pop	 esi

; 320  : 	}
; 321  : 
; 322  : 	return rv;
; 323  : }

  0002c	5d		 pop	 ebp
  0002d	c3		 ret	 0
?WhatIsCode@i3String@@YAHPBDH@Z ENDP			; i3String::WhatIsCode
_TEXT	ENDS
; Function compile flags: /Ogtp
; File E:\Proyectos\JuegosOnlineproyectos\PB\pbblow\Piercing Blow Remake\i3Server\src\i3Base\i3String.cpp
;	COMDAT ?GetFirstValidCharater@i3String@@YAPBDPBD@Z
_TEXT	SEGMENT
_lpszStr$ = 8						; size = 4
?GetFirstValidCharater@i3String@@YAPBDPBD@Z PROC	; i3String::GetFirstValidCharater, COMDAT

; 282  : {

  00000	55		 push	 ebp
  00001	8b ec		 mov	 ebp, esp

; 283  : 	const char *p = lpszStr;

  00003	8b 4d 08	 mov	 ecx, DWORD PTR _lpszStr$[ebp]
$LL2@GetFirstVa:

; 284  : 
; 285  : 	while( (*p == ' ') || (*p == '\t') || (*p == '\r') || (*p == '\n'))

  00006	8a 01		 mov	 al, BYTE PTR [ecx]
  00008	3c 20		 cmp	 al, 32			; 00000020H
  0000a	74 0c		 je	 SHORT $LN4@GetFirstVa
  0000c	3c 09		 cmp	 al, 9
  0000e	74 08		 je	 SHORT $LN4@GetFirstVa
  00010	3c 0d		 cmp	 al, 13			; 0000000dH
  00012	74 04		 je	 SHORT $LN4@GetFirstVa
  00014	3c 0a		 cmp	 al, 10			; 0000000aH
  00016	75 03		 jne	 SHORT $LN13@GetFirstVa
$LN4@GetFirstVa:

; 286  : 		p++;

  00018	41		 inc	 ecx
  00019	eb eb		 jmp	 SHORT $LL2@GetFirstVa
$LN13@GetFirstVa:

; 287  : 
; 288  : 	return p;

  0001b	8b c1		 mov	 eax, ecx

; 289  : }

  0001d	5d		 pop	 ebp
  0001e	c3		 ret	 0
?GetFirstValidCharater@i3String@@YAPBDPBD@Z ENDP	; i3String::GetFirstValidCharater
_TEXT	ENDS
; Function compile flags: /Ogtp
; File E:\Proyectos\JuegosOnlineproyectos\PB\pbblow\Piercing Blow Remake\i3Server\src\i3Base\i3String.cpp
;	COMDAT ?ValueToStr@i3String@@YAHHPADH@Z
_TEXT	SEGMENT
_conv$ = -132						; size = 128
__$ArrayPad$ = -4					; size = 4
_Value$ = 8						; size = 4
_szOut$ = 12						; size = 4
_Length$ = 16						; size = 4
?ValueToStr@i3String@@YAHHPADH@Z PROC			; i3String::ValueToStr, COMDAT

; 230  : {

  00000	55		 push	 ebp
  00001	8b ec		 mov	 ebp, esp
  00003	81 ec 84 00 00
	00		 sub	 esp, 132		; 00000084H
  00009	a1 00 00 00 00	 mov	 eax, DWORD PTR ___security_cookie
  0000e	33 c5		 xor	 eax, ebp
  00010	89 45 fc	 mov	 DWORD PTR __$ArrayPad$[ebp], eax
  00013	53		 push	 ebx
  00014	8b 5d 0c	 mov	 ebx, DWORD PTR _szOut$[ebp]

; 231  : 	int i, MaxLen, StrLength;
; 232  : 	char conv[128];
; 233  : 
; 234  : 	sprintf( (PSTR) conv, (PSTR) "%ld", Value);

  00017	8d 85 7c ff ff
	ff		 lea	 eax, DWORD PTR _conv$[ebp]
  0001d	56		 push	 esi
  0001e	57		 push	 edi
  0001f	ff 75 08	 push	 DWORD PTR _Value$[ebp]
  00022	68 00 00 00 00	 push	 OFFSET ??_C@_03JALODAI@?$CFld@
  00027	50		 push	 eax
  00028	e8 00 00 00 00	 call	 _sprintf

; 235  : 	StrLength = (int) strlen( conv);

  0002d	8d b5 7c ff ff
	ff		 lea	 esi, DWORD PTR _conv$[ebp]
  00033	83 c4 0c	 add	 esp, 12			; 0000000cH
  00036	8d 4e 01	 lea	 ecx, DWORD PTR [esi+1]
  00039	8d a4 24 00 00
	00 00		 npad	 7
$LL17@ValueToStr:
  00040	8a 06		 mov	 al, BYTE PTR [esi]
  00042	46		 inc	 esi
  00043	84 c0		 test	 al, al
  00045	75 f9		 jne	 SHORT $LL17@ValueToStr
  00047	2b f1		 sub	 esi, ecx

; 236  : 
; 237  : 	if( StrLength <= 0)

  00049	85 f6		 test	 esi, esi
  0004b	7e 69		 jle	 SHORT $LN15@ValueToStr

; 238  : 	{
; 239  : 		return 0;
; 240  : 	}
; 241  : 
; 242  : 	MaxLen = StrLength + ( StrLength - 1 ) / 3;

  0004d	8d 4e ff	 lea	 ecx, DWORD PTR [esi-1]
  00050	b8 56 55 55 55	 mov	 eax, 1431655766		; 55555556H
  00055	f7 e9		 imul	 ecx
  00057	8b fa		 mov	 edi, edx
  00059	c1 ef 1f	 shr	 edi, 31			; 0000001fH
  0005c	03 fa		 add	 edi, edx
  0005e	03 fe		 add	 edi, esi

; 243  : 	if( MaxLen >= Length )

  00060	3b 7d 10	 cmp	 edi, DWORD PTR _Length$[ebp]
  00063	7d 51		 jge	 SHORT $LN15@ValueToStr

; 244  : 	{
; 245  : 		return 0;
; 246  : 	}
; 247  : 
; 248  : 	*(szOut + MaxLen) = 0;
; 249  : 
; 250  : 	char *pIn = conv + StrLength - 1;
; 251  : 	char *pOut = szOut + MaxLen - 1;

  00065	8d 53 ff	 lea	 edx, DWORD PTR [ebx-1]
  00068	c6 04 3b 00	 mov	 BYTE PTR [ebx+edi], 0
  0006c	8d 8c 35 7b ff
	ff ff		 lea	 ecx, DWORD PTR _conv$[ebp+esi-1]
  00073	03 d7		 add	 edx, edi
  00075	33 f6		 xor	 esi, esi

; 252  : 	for( i = 0; i < MaxLen; i++ )

  00077	85 ff		 test	 edi, edi
  00079	7e 28		 jle	 SHORT $LN3@ValueToStr
  0007b	eb 03 8d 49 00	 npad	 5
$LL4@ValueToStr:

; 253  : 	{
; 254  : 		if( (i + 1) % 4 == 0 )

  00080	8d 46 01	 lea	 eax, DWORD PTR [esi+1]
  00083	8b f0		 mov	 esi, eax
  00085	25 03 00 00 80	 and	 eax, -2147483645	; 80000003H
  0008a	79 07		 jns	 SHORT $LN23@ValueToStr
  0008c	48		 dec	 eax
  0008d	83 c8 fc	 or	 eax, -4			; fffffffcH
  00090	83 c0 01	 add	 eax, 1
$LN23@ValueToStr:
  00093	75 04		 jne	 SHORT $LN7@ValueToStr

; 255  : 		{
; 256  : 			*pOut = ',';

  00095	b0 2c		 mov	 al, 44			; 0000002cH

; 257  : 		}

  00097	eb 03		 jmp	 SHORT $LN8@ValueToStr
$LN7@ValueToStr:

; 258  : 		else
; 259  : 		{
; 260  : 			*pOut = *pIn;

  00099	8a 01		 mov	 al, BYTE PTR [ecx]

; 261  : 			pIn--;

  0009b	49		 dec	 ecx
$LN8@ValueToStr:

; 262  : 		}
; 263  : 		pOut--;

  0009c	88 02		 mov	 BYTE PTR [edx], al
  0009e	4a		 dec	 edx
  0009f	3b f7		 cmp	 esi, edi
  000a1	7c dd		 jl	 SHORT $LL4@ValueToStr
$LN3@ValueToStr:

; 264  : 	}
; 265  : 
; 266  : 	return MaxLen;

  000a3	8b c7		 mov	 eax, edi
  000a5	5f		 pop	 edi

; 267  : }

  000a6	5e		 pop	 esi
  000a7	5b		 pop	 ebx
  000a8	8b 4d fc	 mov	 ecx, DWORD PTR __$ArrayPad$[ebp]
  000ab	33 cd		 xor	 ecx, ebp
  000ad	e8 00 00 00 00	 call	 @__security_check_cookie@4
  000b2	8b e5		 mov	 esp, ebp
  000b4	5d		 pop	 ebp
  000b5	c3		 ret	 0
$LN15@ValueToStr:
  000b6	8b 4d fc	 mov	 ecx, DWORD PTR __$ArrayPad$[ebp]
  000b9	33 c0		 xor	 eax, eax
  000bb	5f		 pop	 edi
  000bc	5e		 pop	 esi
  000bd	33 cd		 xor	 ecx, ebp
  000bf	5b		 pop	 ebx
  000c0	e8 00 00 00 00	 call	 @__security_check_cookie@4
  000c5	8b e5		 mov	 esp, ebp
  000c7	5d		 pop	 ebp
  000c8	c3		 ret	 0
?ValueToStr@i3String@@YAHHPADH@Z ENDP			; i3String::ValueToStr
_TEXT	ENDS
; Function compile flags: /Ogtp
; File E:\Proyectos\JuegosOnlineproyectos\PB\pbblow\Piercing Blow Remake\i3Server\src\i3Base\i3String.cpp
;	COMDAT ?MakePointFix@i3String@@YAXNPAGH_N@Z
_TEXT	SEGMENT
_fFindNull$1$ = -262					; size = 1
_UnderFlag$1$ = -261					; size = 1
_conv$ = -260						; size = 256
__$ArrayPad$ = -4					; size = 4
_Value$ = 8						; size = 8
_Result$ = 16						; size = 4
_UnderCount$ = 20					; size = 4
_FillZero$ = 24						; size = 1
?MakePointFix@i3String@@YAXNPAGH_N@Z PROC		; i3String::MakePointFix, COMDAT

; 123  : { 

  00000	55		 push	 ebp
  00001	8b ec		 mov	 ebp, esp
  00003	81 ec 08 01 00
	00		 sub	 esp, 264		; 00000108H
  00009	a1 00 00 00 00	 mov	 eax, DWORD PTR ___security_cookie
  0000e	33 c5		 xor	 eax, ebp
  00010	89 45 fc	 mov	 DWORD PTR __$ArrayPad$[ebp], eax

; 124  : 	wchar_t conv[128];
; 125  :     int i, j, FractCount;
; 126  :     bool UnderFlag, fFindNull;
; 127  : 
; 128  :     _swprintf( conv, L"%f", Value);

  00013	dd 45 08	 fld	 QWORD PTR _Value$[ebp]
  00016	8d 85 fc fe ff
	ff		 lea	 eax, DWORD PTR _conv$[ebp]
  0001c	53		 push	 ebx
  0001d	56		 push	 esi
  0001e	8b 75 10	 mov	 esi, DWORD PTR _Result$[ebp]
  00021	57		 push	 edi
  00022	83 ec 08	 sub	 esp, 8
  00025	dd 1c 24	 fstp	 QWORD PTR [esp]
  00028	68 00 00 00 00	 push	 OFFSET ??_C@_15HBBGCAG@?$AA?$CF?$AAf@
  0002d	50		 push	 eax
  0002e	e8 00 00 00 00	 call	 __swprintf

; 129  : 
; 130  :     FractCount = 0;
; 131  :     UnderFlag = false;		// ĽŇĽýÁˇŔĚ ąß°ßµÇľúŔ¸¸ç, ÇöŔç ĽŇĽýÁˇ ŔĚÇĎ ŔÚ¸®¸¦ Ăł¸®ÇĎ°í ŔÖŔ˝Ŕ» łŞĹ¸ł˝´Ů.
; 132  :     fFindNull = false;
; 133  : 
; 134  :     for( i = 0, j = 0; (UnderFlag != true) || (FractCount < UnderCount);) {

  00033	8b 7d 14	 mov	 edi, DWORD PTR _UnderCount$[ebp]
  00036	32 c0		 xor	 al, al
  00038	83 c4 10	 add	 esp, 16			; 00000010H
  0003b	88 85 fb fe ff
	ff		 mov	 BYTE PTR _UnderFlag$1$[ebp], al
  00041	33 db		 xor	 ebx, ebx
  00043	88 85 fa fe ff
	ff		 mov	 BYTE PTR _fFindNull$1$[ebp], al
  00049	33 d2		 xor	 edx, edx
  0004b	33 c9		 xor	 ecx, ecx
  0004d	8d 49 00	 npad	 3
$LL4@MakePointF:
  00050	3c 01		 cmp	 al, 1
  00052	75 08		 jne	 SHORT $LN13@MakePointF
  00054	3b df		 cmp	 ebx, edi
  00056	0f 8d fc 00 00
	00		 jge	 $LN48@MakePointF
$LN13@MakePointF:

; 135  :     	switch( conv[i]) {

  0005c	0f b7 84 55 fc
	fe ff ff	 movzx	 eax, WORD PTR _conv$[ebp+edx*2]
  00064	66 85 c0	 test	 ax, ax
  00067	0f 84 cc 00 00
	00		 je	 $LN15@MakePointF
  0006d	83 f8 2e	 cmp	 eax, 46			; 0000002eH
  00070	0f 84 aa 00 00
	00		 je	 $LN14@MakePointF

; 146  :                 }
; 147  :                 break;
; 148  : 
; 149  :             default :
; 150  :             	if( UnderFlag == false) {

  00076	80 bd fb fe ff
	ff 00		 cmp	 BYTE PTR _UnderFlag$1$[ebp], 0
  0007d	75 19		 jne	 SHORT $LN18@MakePointF

; 151  :                 	Result[j] = conv[i];

  0007f	66 89 04 4e	 mov	 WORD PTR [esi+ecx*2], ax
$LN52@MakePointF:

; 199  :                             }
; 200  :                         }
; 201  :                     }
; 202  :                 }
; 203  :             	break;
; 204  :         }
; 205  : 
; 206  :         if( conv[i] != 0)

  00083	8a 85 fb fe ff
	ff		 mov	 al, BYTE PTR _UnderFlag$1$[ebp]
$LN16@MakePointF:
  00089	66 83 bc 55 fc
	fe ff ff 00	 cmp	 WORD PTR _conv$[ebp+edx*2], 0
  00092	74 01		 je	 SHORT $LN30@MakePointF

; 207  :         	i++;

  00094	42		 inc	 edx
$LN30@MakePointF:

; 208  :         j++;

  00095	41		 inc	 ecx
  00096	eb b8		 jmp	 SHORT $LL4@MakePointF
$LN18@MakePointF:

; 152  :                 }
; 153  :                 else {
; 154  :                    	if( fFindNull == true)

  00098	80 bd fa fe ff
	ff 01		 cmp	 BYTE PTR _fFindNull$1$[ebp], 1
  0009f	75 05		 jne	 SHORT $LN21@MakePointF

; 155  :                        	Result[j] = '0';

  000a1	b8 30 00 00 00	 mov	 eax, 48			; 00000030H
$LN21@MakePointF:

; 156  :                     else
; 157  :                        	Result[j] = conv[i];
; 158  : 
; 159  :                     FractCount ++;

  000a6	43		 inc	 ebx
  000a7	66 89 04 4e	 mov	 WORD PTR [esi+ecx*2], ax

; 160  : 
; 161  :                     if( FractCount >= UnderCount) {

  000ab	3b df		 cmp	 ebx, edi
  000ad	7c d4		 jl	 SHORT $LN52@MakePointF

; 162  :                     	if( fFindNull != true) {

  000af	80 bd fa fe ff
	ff 01		 cmp	 BYTE PTR _fFindNull$1$[ebp], 1
  000b6	74 cb		 je	 SHORT $LN52@MakePointF

; 163  :                         	if( conv[i+1] >= '5') {

  000b8	66 83 bc 55 fe
	fe ff ff 35	 cmp	 WORD PTR _conv$[ebp+edx*2+2], 53 ; 00000035H
  000c1	72 c0		 jb	 SHORT $LN52@MakePointF

; 164  :                             	bool Borrow;
; 165  :                             	int Saved = j;

  000c3	8b f9		 mov	 edi, ecx
$LL9@MakePointF:

; 166  : 
; 167  :                                 do {
; 168  :                                 	Borrow = false;
; 169  : 
; 170  :                                     if( Result[j] == '.') {

  000c5	0f b7 04 4e	 movzx	 eax, WORD PTR [esi+ecx*2]
  000c9	83 f8 2e	 cmp	 eax, 46			; 0000002eH
  000cc	75 03		 jne	 SHORT $LN25@MakePointF

; 171  :                                     	Borrow = true;		// for cheat...
; 172  :                                         j--;

  000ce	49		 dec	 ecx

; 173  :                                     	continue;

  000cf	eb f4		 jmp	 SHORT $LL9@MakePointF
$LN25@MakePointF:

; 174  :                                     }
; 175  : 
; 176  :                                 	if( Result[j] == '9') {

  000d1	83 f8 39	 cmp	 eax, 57			; 00000039H
  000d4	75 3b		 jne	 SHORT $LN26@MakePointF

; 177  :                                     	Result[j] = '0';

  000d6	b8 30 00 00 00	 mov	 eax, 48			; 00000030H
  000db	66 89 04 4e	 mov	 WORD PTR [esi+ecx*2], ax

; 178  : 
; 179  :                                         j--;

  000df	83 e9 01	 sub	 ecx, 1

; 180  :                                         if( j < 0) {

  000e2	79 e1		 jns	 SHORT $LL9@MakePointF

; 181  :                                         	// ąÝżĂ¸˛ŔĚ °čĽÓµÇľî Á¤ĽöŔÚ¸®¸¦ łŃľî ´ÜŔ§ŔÚĂĽ°ˇ żĂ¶ó°ˇľß ÇĎ´Â °ćżě...
; 182  :                                             // ŔüĂĽ ą®ŔÚż­Ŕ» ÇŃÄ­ µÚ·Î ąĐ°í ĂąŔÚ¸®żˇ '1'Ŕ» »đŔÔÇŃ´Ů.
; 183  :                                             // ex) 999.99 żˇĽ­ ĽŇĽýÁˇ 2ŔÚ¸®żˇĽ­ ąÝżĂ¸˛ÇĎż© 1ŔÚ¸®·Î ¸¸µĺ´Â °ćżě 1000.0 ŔĚ µÇľîľß ÇŃ´Ů.
; 184  :                                             for( i = Saved; i >= 0; i--) {

  000e4	8b d7		 mov	 edx, edi
  000e6	85 ff		 test	 edi, edi
  000e8	78 14		 js	 SHORT $LN11@MakePointF
  000ea	8d 9b 00 00 00
	00		 npad	 6
$LL12@MakePointF:

; 185  :                                             	Result[i+1] = Result[i];

  000f0	66 8b 04 56	 mov	 ax, WORD PTR [esi+edx*2]
  000f4	66 89 44 56 02	 mov	 WORD PTR [esi+edx*2+2], ax
  000f9	83 ea 01	 sub	 edx, 1
  000fc	79 f2		 jns	 SHORT $LL12@MakePointF
$LN11@MakePointF:

; 186  :                                             }
; 187  :                                             j = 0;
; 188  :                                             Result[j] = '1';
; 189  :                                             Saved ++;

  000fe	47		 inc	 edi
  000ff	b8 31 00 00 00	 mov	 eax, 49			; 00000031H

; 196  :                                 } while(Borrow == true);
; 197  : 
; 198  :                                 j = Saved;

  00104	8b cf		 mov	 ecx, edi
  00106	66 89 06	 mov	 WORD PTR [esi], ax
  00109	8b 7d 14	 mov	 edi, DWORD PTR _UnderCount$[ebp]
  0010c	e9 72 ff ff ff	 jmp	 $LN52@MakePointF
$LN26@MakePointF:

; 190  :                                         }
; 191  :                                         else
; 192  :                                         	Borrow = true;
; 193  :                                     }
; 194  :                                     else
; 195  :                                 		Result[j] ++;

  00111	40		 inc	 eax
  00112	66 89 04 4e	 mov	 WORD PTR [esi+ecx*2], ax

; 196  :                                 } while(Borrow == true);
; 197  : 
; 198  :                                 j = Saved;

  00116	8b cf		 mov	 ecx, edi
  00118	8b 7d 14	 mov	 edi, DWORD PTR _UnderCount$[ebp]
  0011b	e9 63 ff ff ff	 jmp	 $LN52@MakePointF
$LN14@MakePointF:

; 136  :         	case '.' :
; 137  :             	UnderFlag = true;
; 138  :                 Result[j] = '.';

  00120	bf 2e 00 00 00	 mov	 edi, 46			; 0000002eH
  00125	b0 01		 mov	 al, 1
  00127	66 89 3c 4e	 mov	 WORD PTR [esi+ecx*2], di

; 139  :                 break;

  0012b	8b 7d 14	 mov	 edi, DWORD PTR _UnderCount$[ebp]
  0012e	88 85 fb fe ff
	ff		 mov	 BYTE PTR _UnderFlag$1$[ebp], al
  00134	e9 50 ff ff ff	 jmp	 $LN16@MakePointF
$LN15@MakePointF:

; 140  : 
; 141  :             case 0 :
; 142  :             	if( FillZero == false) {

  00139	80 7d 18 00	 cmp	 BYTE PTR _FillZero$[ebp], 0
  0013d	0f 85 40 ff ff
	ff		 jne	 $LN52@MakePointF

; 143  :                 	UnderFlag = true;

  00143	b0 01		 mov	 al, 1

; 144  :                     FractCount = UnderCount;

  00145	8b df		 mov	 ebx, edi
  00147	88 85 fb fe ff
	ff		 mov	 BYTE PTR _UnderFlag$1$[ebp], al

; 145  :                     fFindNull = true;

  0014d	88 85 fa fe ff
	ff		 mov	 BYTE PTR _fFindNull$1$[ebp], al

; 160  : 
; 161  :                     if( FractCount >= UnderCount) {

  00153	e9 31 ff ff ff	 jmp	 $LN16@MakePointF
$LN48@MakePointF:

; 209  :     }
; 210  : 
; 211  :     Result[j] = 0;

  00158	33 c0		 xor	 eax, eax
  0015a	66 89 04 4e	 mov	 WORD PTR [esi+ecx*2], ax

; 212  : }

  0015e	8b 4d fc	 mov	 ecx, DWORD PTR __$ArrayPad$[ebp]
  00161	5f		 pop	 edi
  00162	5e		 pop	 esi
  00163	33 cd		 xor	 ecx, ebp
  00165	5b		 pop	 ebx
  00166	e8 00 00 00 00	 call	 @__security_check_cookie@4
  0016b	8b e5		 mov	 esp, ebp
  0016d	5d		 pop	 ebp
  0016e	c3		 ret	 0
?MakePointFix@i3String@@YAXNPAGH_N@Z ENDP		; i3String::MakePointFix
_TEXT	ENDS
; Function compile flags: /Ogtp
; File E:\Proyectos\JuegosOnlineproyectos\PB\pbblow\Piercing Blow Remake\i3Server\src\i3Base\i3String.cpp
;	COMDAT ?MakePointFix@i3String@@YAXNPADH_N@Z
_TEXT	SEGMENT
_FractCount$1$ = -144					; size = 4
tv328 = -140						; size = 4
_fFindNull$1$ = -134					; size = 1
_UnderFlag$1$ = -133					; size = 1
_conv$ = -132						; size = 128
__$ArrayPad$ = -4					; size = 4
_Value$ = 8						; size = 8
_Result$ = 16						; size = 4
_UnderCount$ = 20					; size = 4
_FillZero$ = 24						; size = 1
?MakePointFix@i3String@@YAXNPADH_N@Z PROC		; i3String::MakePointFix, COMDAT

; 31   : { 

  00000	55		 push	 ebp
  00001	8b ec		 mov	 ebp, esp
  00003	81 ec 90 00 00
	00		 sub	 esp, 144		; 00000090H
  00009	a1 00 00 00 00	 mov	 eax, DWORD PTR ___security_cookie
  0000e	33 c5		 xor	 eax, ebp
  00010	89 45 fc	 mov	 DWORD PTR __$ArrayPad$[ebp], eax

; 32   : 	char conv[128];
; 33   :     int i, j, FractCount;
; 34   :     bool UnderFlag, fFindNull;
; 35   : 
; 36   :     sprintf( (PSTR)conv, (PSTR) "%f", Value);

  00013	dd 45 08	 fld	 QWORD PTR _Value$[ebp]
  00016	8d 85 7c ff ff
	ff		 lea	 eax, DWORD PTR _conv$[ebp]
  0001c	53		 push	 ebx
  0001d	56		 push	 esi
  0001e	8b 75 10	 mov	 esi, DWORD PTR _Result$[ebp]
  00021	57		 push	 edi
  00022	83 ec 08	 sub	 esp, 8
  00025	dd 1c 24	 fstp	 QWORD PTR [esp]
  00028	68 00 00 00 00	 push	 OFFSET ??_C@_02NJPGOMH@?$CFf@
  0002d	50		 push	 eax
  0002e	e8 00 00 00 00	 call	 _sprintf

; 37   : 
; 38   :     FractCount = 0;
; 39   :     UnderFlag = false;		// ĽŇĽýÁˇŔĚ ąß°ßµÇľúŔ¸¸ç, ÇöŔç ĽŇĽýÁˇ ŔĚÇĎ ŔÚ¸®¸¦ Ăł¸®ÇĎ°í ŔÖŔ˝Ŕ» łŞĹ¸ł˝´Ů.
; 40   :     fFindNull = false;
; 41   : 
; 42   :     for( i = 0, j = 0; (UnderFlag != true) || (FractCount < UnderCount);) {

  00033	8b 5d 14	 mov	 ebx, DWORD PTR _UnderCount$[ebp]
  00036	32 e4		 xor	 ah, ah
  00038	32 c0		 xor	 al, al
  0003a	88 a5 7b ff ff
	ff		 mov	 BYTE PTR _UnderFlag$1$[ebp], ah
  00040	83 c4 10	 add	 esp, 16			; 00000010H
  00043	88 85 7a ff ff
	ff		 mov	 BYTE PTR _fFindNull$1$[ebp], al
  00049	33 ff		 xor	 edi, edi
  0004b	c7 85 74 ff ff
	ff 30 00 00 00	 mov	 DWORD PTR tv328[ebp], 48 ; 00000030H
  00055	33 d2		 xor	 edx, edx
  00057	33 c9		 xor	 ecx, ecx
  00059	8d a4 24 00 00
	00 00		 npad	 7
$LL4@MakePointF:
  00060	80 fc 01	 cmp	 ah, 1
  00063	75 08		 jne	 SHORT $LN13@MakePointF
  00065	3b fb		 cmp	 edi, ebx
  00067	0f 8d d7 00 00
	00		 jge	 $LN48@MakePointF
$LN13@MakePointF:

; 43   :     	switch( conv[i]) {

  0006d	8a 84 15 7c ff
	ff ff		 mov	 al, BYTE PTR _conv$[ebp+edx]
  00074	8a d8		 mov	 bl, al
  00076	84 db		 test	 bl, bl
  00078	0f 84 a9 00 00
	00		 je	 $LN15@MakePointF
  0007e	80 fb 2e	 cmp	 bl, 46			; 0000002eH
  00081	0f 84 92 00 00
	00		 je	 $LN14@MakePointF

; 54   :                 }
; 55   :                 break;
; 56   : 
; 57   :             default :
; 58   :             	if( UnderFlag == false) {

  00087	84 e4		 test	 ah, ah
  00089	75 05		 jne	 SHORT $LN18@MakePointF

; 59   :                 	Result[j] = conv[i];

  0008b	88 04 0e	 mov	 BYTE PTR [esi+ecx], al

; 60   :                 }

  0008e	eb 75		 jmp	 SHORT $LN52@MakePointF
$LN18@MakePointF:

; 61   :                 else {
; 62   :                    	if( fFindNull == true)

  00090	8a 9d 7a ff ff
	ff		 mov	 bl, BYTE PTR _fFindNull$1$[ebp]
  00096	80 fb 01	 cmp	 bl, 1
  00099	0f b6 c0	 movzx	 eax, al
  0009c	0f 44 85 74 ff
	ff ff		 cmove	 eax, DWORD PTR tv328[ebp]

; 63   :                        	Result[j] = '0';
; 64   :                     else
; 65   :                        	Result[j] = conv[i];
; 66   : 
; 67   :                     FractCount ++;

  000a3	47		 inc	 edi
  000a4	88 04 0e	 mov	 BYTE PTR [esi+ecx], al
  000a7	89 bd 70 ff ff
	ff		 mov	 DWORD PTR _FractCount$1$[ebp], edi

; 68   : 
; 69   :                     if( FractCount >= UnderCount) {

  000ad	3b 7d 14	 cmp	 edi, DWORD PTR _UnderCount$[ebp]
  000b0	7c 4d		 jl	 SHORT $LN51@MakePointF

; 70   :                     	if( fFindNull != true) {

  000b2	80 fb 01	 cmp	 bl, 1
  000b5	74 48		 je	 SHORT $LN51@MakePointF

; 71   :                         	if( conv[i+1] >= '5') {

  000b7	80 bc 15 7d ff
	ff ff 35	 cmp	 BYTE PTR _conv$[ebp+edx+1], 53 ; 00000035H
  000bf	7c 3e		 jl	 SHORT $LN51@MakePointF

; 72   :                             	bool Borrow;
; 73   :                             	int Saved = j;

  000c1	8b f9		 mov	 edi, ecx
$LL9@MakePointF:

; 74   : 
; 75   :                                 do {
; 76   :                                 	Borrow = false;
; 77   : 
; 78   :                                     if( Result[j] == '.') {

  000c3	8a 04 0e	 mov	 al, BYTE PTR [esi+ecx]
  000c6	3c 2e		 cmp	 al, 46			; 0000002eH
  000c8	75 03		 jne	 SHORT $LN25@MakePointF

; 79   :                                     	Borrow = true;		// for cheat...
; 80   :                                         j--;

  000ca	49		 dec	 ecx

; 81   :                                     	continue;

  000cb	eb f6		 jmp	 SHORT $LL9@MakePointF
$LN25@MakePointF:

; 82   :                                     }
; 83   : 
; 84   :                                 	if( Result[j] == '9') {

  000cd	3c 39		 cmp	 al, 57			; 00000039H
  000cf	75 21		 jne	 SHORT $LN26@MakePointF

; 85   :                                     	Result[j] = '0';

  000d1	c6 04 0e 30	 mov	 BYTE PTR [esi+ecx], 48	; 00000030H

; 86   : 
; 87   :                                         j--;

  000d5	83 e9 01	 sub	 ecx, 1

; 88   :                                         if( j < 0) {

  000d8	79 e9		 jns	 SHORT $LL9@MakePointF

; 89   :                                         	// ąÝżĂ¸˛ŔĚ °čĽÓµÇľî Á¤ĽöŔÚ¸®¸¦ łŃľî ´ÜŔ§ŔÚĂĽ°ˇ żĂ¶ó°ˇľß ÇĎ´Â °ćżě...
; 90   :                                             // ŔüĂĽ ą®ŔÚż­Ŕ» ÇŃÄ­ µÚ·Î ąĐ°í ĂąŔÚ¸®żˇ '1'Ŕ» »đŔÔÇŃ´Ů.
; 91   :                                             // ex) 999.99 żˇĽ­ ĽŇĽýÁˇ 2ŔÚ¸®żˇĽ­ ąÝżĂ¸˛ÇĎż© 1ŔÚ¸®·Î ¸¸µĺ´Â °ćżě 1000.0 ŔĚ µÇľîľß ÇŃ´Ů.
; 92   :                                             for( i = Saved; i >= 0; i--) {

  000da	8b d7		 mov	 edx, edi
  000dc	85 ff		 test	 edi, edi
  000de	78 0c		 js	 SHORT $LN11@MakePointF
$LL12@MakePointF:

; 93   :                                             	Result[i+1] = Result[i];

  000e0	8a 04 16	 mov	 al, BYTE PTR [esi+edx]
  000e3	88 44 16 01	 mov	 BYTE PTR [esi+edx+1], al
  000e7	83 ea 01	 sub	 edx, 1
  000ea	79 f4		 jns	 SHORT $LL12@MakePointF
$LN11@MakePointF:

; 94   :                                             }
; 95   :                                             j = 0;
; 96   :                                             Result[j] = '1';

  000ec	c6 06 31	 mov	 BYTE PTR [esi], 49	; 00000031H

; 97   :                                             Saved ++;

  000ef	47		 inc	 edi

; 98   :                                         }

  000f0	eb 05		 jmp	 SHORT $LN43@MakePointF
$LN26@MakePointF:

; 99   :                                         else
; 100  :                                         	Borrow = true;
; 101  :                                     }
; 102  :                                     else
; 103  :                                 		Result[j] ++;

  000f2	04 01		 add	 al, 1
  000f4	88 04 0e	 mov	 BYTE PTR [esi+ecx], al
$LN43@MakePointF:

; 104  :                                 } while(Borrow == true);
; 105  : 
; 106  :                                 j = Saved;

  000f7	8b cf		 mov	 ecx, edi
  000f9	8b bd 70 ff ff
	ff		 mov	 edi, DWORD PTR _FractCount$1$[ebp]
$LN51@MakePointF:

; 107  :                             }
; 108  :                         }
; 109  :                     }
; 110  :                 }
; 111  :             	break;
; 112  :         }
; 113  : 
; 114  :         if( conv[i] != 0)

  000ff	8a a5 7b ff ff
	ff		 mov	 ah, BYTE PTR _UnderFlag$1$[ebp]
$LN52@MakePointF:
  00105	8b 5d 14	 mov	 ebx, DWORD PTR _UnderCount$[ebp]
$LN16@MakePointF:
  00108	80 bc 15 7c ff
	ff ff 00	 cmp	 BYTE PTR _conv$[ebp+edx], 0
  00110	74 01		 je	 SHORT $LN30@MakePointF

; 115  :         	i++;

  00112	42		 inc	 edx
$LN30@MakePointF:

; 116  :         j++;

  00113	41		 inc	 ecx
  00114	e9 47 ff ff ff	 jmp	 $LL4@MakePointF
$LN14@MakePointF:

; 44   :         	case '.' :
; 45   :             	UnderFlag = true;

  00119	b4 01		 mov	 ah, 1

; 46   :                 Result[j] = '.';

  0011b	c6 04 0e 2e	 mov	 BYTE PTR [esi+ecx], 46	; 0000002eH
  0011f	88 a5 7b ff ff
	ff		 mov	 BYTE PTR _UnderFlag$1$[ebp], ah

; 47   :                 break;

  00125	eb de		 jmp	 SHORT $LN52@MakePointF
$LN15@MakePointF:

; 48   : 
; 49   :             case 0 :
; 50   :             	if( FillZero == false) {

  00127	80 7d 18 00	 cmp	 BYTE PTR _FillZero$[ebp], 0
  0012b	75 d8		 jne	 SHORT $LN52@MakePointF

; 51   :                 	UnderFlag = true;
; 52   :                     FractCount = UnderCount;

  0012d	8b 5d 14	 mov	 ebx, DWORD PTR _UnderCount$[ebp]
  00130	b4 01		 mov	 ah, 1

; 53   :                     fFindNull = true;

  00132	8a c4		 mov	 al, ah
  00134	88 a5 7b ff ff
	ff		 mov	 BYTE PTR _UnderFlag$1$[ebp], ah
  0013a	8b fb		 mov	 edi, ebx
  0013c	88 85 7a ff ff
	ff		 mov	 BYTE PTR _fFindNull$1$[ebp], al

; 68   : 
; 69   :                     if( FractCount >= UnderCount) {

  00142	eb c4		 jmp	 SHORT $LN16@MakePointF
$LN48@MakePointF:

; 117  :     }
; 118  : 
; 119  :     Result[j] = 0;

  00144	c6 04 0e 00	 mov	 BYTE PTR [esi+ecx], 0

; 120  : }

  00148	8b 4d fc	 mov	 ecx, DWORD PTR __$ArrayPad$[ebp]
  0014b	5f		 pop	 edi
  0014c	5e		 pop	 esi
  0014d	33 cd		 xor	 ecx, ebp
  0014f	5b		 pop	 ebx
  00150	e8 00 00 00 00	 call	 @__security_check_cookie@4
  00155	8b e5		 mov	 esp, ebp
  00157	5d		 pop	 ebp
  00158	c3		 ret	 0
?MakePointFix@i3String@@YAXNPADH_N@Z ENDP		; i3String::MakePointFix
_TEXT	ENDS
; Function compile flags: /Ogtp
; File E:\Proyectos\JuegosOnlineproyectos\PB\pbblow\Piercing Blow Remake\i3Server\src\i3Base\i3String.cpp
;	COMDAT ??_Ei3StringList@@UAEPAXI@Z
_TEXT	SEGMENT
__$EHRec$ = -12						; size = 12
___flags$ = 8						; size = 4
??_Ei3StringList@@UAEPAXI@Z PROC			; i3StringList::`vector deleting destructor', COMDAT
; _this$ = ecx
  00000	55		 push	 ebp
  00001	8b ec		 mov	 ebp, esp
  00003	6a ff		 push	 -1
  00005	68 00 00 00 00	 push	 __ehhandler$??_Ei3StringList@@UAEPAXI@Z
  0000a	64 a1 00 00 00
	00		 mov	 eax, DWORD PTR fs:0
  00010	50		 push	 eax
  00011	53		 push	 ebx
  00012	56		 push	 esi
  00013	57		 push	 edi
  00014	a1 00 00 00 00	 mov	 eax, DWORD PTR ___security_cookie
  00019	33 c5		 xor	 eax, ebp
  0001b	50		 push	 eax
  0001c	8d 45 f4	 lea	 eax, DWORD PTR __$EHRec$[ebp]
  0001f	64 a3 00 00 00
	00		 mov	 DWORD PTR fs:0, eax
  00025	8b f1		 mov	 esi, ecx
  00027	8b 5d 08	 mov	 ebx, DWORD PTR ___flags$[ebp]
  0002a	8b fb		 mov	 edi, ebx
  0002c	83 e7 01	 and	 edi, 1
  0002f	f6 c3 02	 test	 bl, 2
  00032	74 43		 je	 SHORT $LN2@vector
  00034	68 00 00 00 00	 push	 OFFSET ??1i3StringList@@UAE@XZ ; i3StringList::~i3StringList
  00039	ff 76 fc	 push	 DWORD PTR [esi-4]
  0003c	8d 5e fc	 lea	 ebx, DWORD PTR [esi-4]
  0003f	6a 28		 push	 40			; 00000028H
  00041	56		 push	 esi
  00042	e8 00 00 00 00	 call	 ??_M@YGXPAXIIP6EX0@Z@Z
  00047	85 ff		 test	 edi, edi
  00049	74 16		 je	 SHORT $LN3@vector
  0004b	8b 0b		 mov	 ecx, DWORD PTR [ebx]
  0004d	8d 0c 89	 lea	 ecx, DWORD PTR [ecx+ecx*4]
  00050	8d 0c cd 04 00
	00 00		 lea	 ecx, DWORD PTR [ecx*8+4]
  00057	51		 push	 ecx
  00058	53		 push	 ebx
  00059	e8 00 00 00 00	 call	 ??_V@YAXPAXI@Z		; operator delete[]
  0005e	83 c4 08	 add	 esp, 8
$LN3@vector:
  00061	8b c3		 mov	 eax, ebx
  00063	8b 4d f4	 mov	 ecx, DWORD PTR __$EHRec$[ebp]
  00066	64 89 0d 00 00
	00 00		 mov	 DWORD PTR fs:0, ecx
  0006d	59		 pop	 ecx
  0006e	5f		 pop	 edi
  0006f	5e		 pop	 esi
  00070	5b		 pop	 ebx
  00071	8b e5		 mov	 esp, ebp
  00073	5d		 pop	 ebp
  00074	c2 04 00	 ret	 4
$LN2@vector:
  00077	e8 00 00 00 00	 call	 ??1i3StringList@@UAE@XZ	; i3StringList::~i3StringList
  0007c	85 ff		 test	 edi, edi
  0007e	74 1b		 je	 SHORT $LN6@vector
  00080	f6 c3 04	 test	 bl, 4
  00083	75 0b		 jne	 SHORT $LN5@vector
  00085	56		 push	 esi
  00086	e8 00 00 00 00	 call	 ??3i3ElementBase@@SAXPAX@Z ; i3ElementBase::operator delete
  0008b	83 c4 04	 add	 esp, 4
  0008e	eb 0b		 jmp	 SHORT $LN6@vector
$LN5@vector:

  00090	6a 28		 push	 40			; 00000028H
  00092	56		 push	 esi
  00093	e8 00 00 00 00	 call	 ??3@YAXPAXI@Z		; operator delete
  00098	83 c4 08	 add	 esp, 8
$LN6@vector:
  0009b	8b c6		 mov	 eax, esi
  0009d	8b 4d f4	 mov	 ecx, DWORD PTR __$EHRec$[ebp]
  000a0	64 89 0d 00 00
	00 00		 mov	 DWORD PTR fs:0, ecx
  000a7	59		 pop	 ecx
  000a8	5f		 pop	 edi
  000a9	5e		 pop	 esi
  000aa	5b		 pop	 ebx
  000ab	8b e5		 mov	 esp, ebp
  000ad	5d		 pop	 ebp
  000ae	c2 04 00	 ret	 4
  000b1	cc		 int	 3
  000b2	cc		 int	 3
  000b3	cc		 int	 3
  000b4	cc		 int	 3
  000b5	cc		 int	 3
_TEXT	ENDS
;	COMDAT text$x
text$x	SEGMENT
__ehhandler$??_Ei3StringList@@UAEPAXI@Z:
  00000	90		 npad	 1
  00001	90		 npad	 1
  00002	8b 54 24 08	 mov	 edx, DWORD PTR [esp+8]
  00006	8d 42 0c	 lea	 eax, DWORD PTR [edx+12]
  00009	8b 4a f0	 mov	 ecx, DWORD PTR [edx-16]
  0000c	33 c8		 xor	 ecx, eax
  0000e	e8 00 00 00 00	 call	 @__security_check_cookie@4
  00013	b8 00 00 00 00	 mov	 eax, OFFSET __ehfuncinfo$??_Ei3StringList@@UAEPAXI@Z
  00018	e9 00 00 00 00	 jmp	 ___CxxFrameHandler3
text$x	ENDS
??_Ei3StringList@@UAEPAXI@Z ENDP			; i3StringList::`vector deleting destructor'
; Function compile flags: /Ogtp
; File E:\Proyectos\JuegosOnlineproyectos\PB\pbblow\Piercing Blow Remake\i3Server\src\i3Base\i3String.cpp
;	COMDAT ??_Gi3StringList@@UAEPAXI@Z
_TEXT	SEGMENT
___flags$ = 8						; size = 4
??_Gi3StringList@@UAEPAXI@Z PROC			; i3StringList::`scalar deleting destructor', COMDAT
; _this$ = ecx
  00000	55		 push	 ebp
  00001	8b ec		 mov	 ebp, esp
  00003	56		 push	 esi
  00004	8b f1		 mov	 esi, ecx
  00006	e8 00 00 00 00	 call	 ??1i3StringList@@UAE@XZ	; i3StringList::~i3StringList
  0000b	8b 45 08	 mov	 eax, DWORD PTR ___flags$[ebp]
  0000e	a8 01		 test	 al, 1
  00010	74 1f		 je	 SHORT $LN10@scalar
  00012	a8 04		 test	 al, 4
  00014	75 10		 jne	 SHORT $LN3@scalar
  00016	56		 push	 esi
  00017	e8 00 00 00 00	 call	 ??3i3ElementBase@@SAXPAX@Z ; i3ElementBase::operator delete
  0001c	83 c4 04	 add	 esp, 4
  0001f	8b c6		 mov	 eax, esi
  00021	5e		 pop	 esi
  00022	5d		 pop	 ebp
  00023	c2 04 00	 ret	 4
$LN3@scalar:

  00026	6a 28		 push	 40			; 00000028H
  00028	56		 push	 esi
  00029	e8 00 00 00 00	 call	 ??3@YAXPAXI@Z		; operator delete
  0002e	83 c4 08	 add	 esp, 8
$LN10@scalar:
  00031	8b c6		 mov	 eax, esi
  00033	5e		 pop	 esi
  00034	5d		 pop	 ebp
  00035	c2 04 00	 ret	 4
??_Gi3StringList@@UAEPAXI@Z ENDP			; i3StringList::`scalar deleting destructor'
_TEXT	ENDS
; Function compile flags: /Ogtp
;	COMDAT ??_Fi3StringList@@QAEXXZ
_TEXT	SEGMENT
??_Fi3StringList@@QAEXXZ PROC				; i3StringList::`default constructor closure', COMDAT
; _this$ = ecx
  00000	6a 10		 push	 16			; 00000010H
  00002	e8 00 00 00 00	 call	 ??0i3StringList@@QAE@H@Z ; i3StringList::i3StringList
  00007	c3		 ret	 0
??_Fi3StringList@@QAEXXZ ENDP				; i3StringList::`default constructor closure'
_TEXT	ENDS
; Function compile flags: /Ogtp
;	COMDAT ??4i3StringList@@QAEAAV0@ABV0@@Z
_TEXT	SEGMENT
___that$ = 8						; size = 4
??4i3StringList@@QAEAAV0@ABV0@@Z PROC			; i3StringList::operator=, COMDAT
; _this$ = ecx
  00000	55		 push	 ebp
  00001	8b ec		 mov	 ebp, esp
  00003	8b 55 08	 mov	 edx, DWORD PTR ___that$[ebp]
  00006	8b 42 04	 mov	 eax, DWORD PTR [edx+4]
  00009	89 41 04	 mov	 DWORD PTR [ecx+4], eax
  0000c	8b 42 08	 mov	 eax, DWORD PTR [edx+8]
  0000f	89 41 08	 mov	 DWORD PTR [ecx+8], eax
  00012	8b 42 0c	 mov	 eax, DWORD PTR [edx+12]
  00015	89 41 0c	 mov	 DWORD PTR [ecx+12], eax
  00018	8b 42 10	 mov	 eax, DWORD PTR [edx+16]
  0001b	89 41 10	 mov	 DWORD PTR [ecx+16], eax
  0001e	8b 42 14	 mov	 eax, DWORD PTR [edx+20]
  00021	89 41 14	 mov	 DWORD PTR [ecx+20], eax
  00024	8b 42 18	 mov	 eax, DWORD PTR [edx+24]
  00027	89 41 18	 mov	 DWORD PTR [ecx+24], eax
  0002a	8b 42 1c	 mov	 eax, DWORD PTR [edx+28]
  0002d	89 41 1c	 mov	 DWORD PTR [ecx+28], eax
  00030	8b 42 20	 mov	 eax, DWORD PTR [edx+32]
  00033	89 41 20	 mov	 DWORD PTR [ecx+32], eax
  00036	8b 42 24	 mov	 eax, DWORD PTR [edx+36]
  00039	89 41 24	 mov	 DWORD PTR [ecx+36], eax
  0003c	8b c1		 mov	 eax, ecx
  0003e	5d		 pop	 ebp
  0003f	c2 04 00	 ret	 4
??4i3StringList@@QAEAAV0@ABV0@@Z ENDP			; i3StringList::operator=
_TEXT	ENDS
; Function compile flags: /Ogtp
;	COMDAT ??0i3StringList@@QAE@ABV0@@Z
_TEXT	SEGMENT
___that$ = 8						; size = 4
??0i3StringList@@QAE@ABV0@@Z PROC			; i3StringList::i3StringList, COMDAT
; _this$ = ecx
  00000	55		 push	 ebp
  00001	8b ec		 mov	 ebp, esp
  00003	8b 55 08	 mov	 edx, DWORD PTR ___that$[ebp]
  00006	c7 01 00 00 00
	00		 mov	 DWORD PTR [ecx], OFFSET ??_7i3ElementBase@@6B@
  0000c	8b 42 04	 mov	 eax, DWORD PTR [edx+4]
  0000f	89 41 04	 mov	 DWORD PTR [ecx+4], eax
  00012	8b 42 08	 mov	 eax, DWORD PTR [edx+8]
  00015	89 41 08	 mov	 DWORD PTR [ecx+8], eax
  00018	8b 42 0c	 mov	 eax, DWORD PTR [edx+12]
  0001b	89 41 0c	 mov	 DWORD PTR [ecx+12], eax
  0001e	c7 01 00 00 00
	00		 mov	 DWORD PTR [ecx], OFFSET ??_7i3StringList@@6B@
  00024	8b 42 10	 mov	 eax, DWORD PTR [edx+16]
  00027	89 41 10	 mov	 DWORD PTR [ecx+16], eax
  0002a	8b 42 14	 mov	 eax, DWORD PTR [edx+20]
  0002d	89 41 14	 mov	 DWORD PTR [ecx+20], eax
  00030	8b 42 18	 mov	 eax, DWORD PTR [edx+24]
  00033	89 41 18	 mov	 DWORD PTR [ecx+24], eax
  00036	8b 42 1c	 mov	 eax, DWORD PTR [edx+28]
  00039	89 41 1c	 mov	 DWORD PTR [ecx+28], eax
  0003c	8b 42 20	 mov	 eax, DWORD PTR [edx+32]
  0003f	89 41 20	 mov	 DWORD PTR [ecx+32], eax
  00042	8b 42 24	 mov	 eax, DWORD PTR [edx+36]
  00045	89 41 24	 mov	 DWORD PTR [ecx+36], eax
  00048	8b c1		 mov	 eax, ecx
  0004a	5d		 pop	 ebp
  0004b	c2 04 00	 ret	 4
??0i3StringList@@QAE@ABV0@@Z ENDP			; i3StringList::i3StringList
_TEXT	ENDS
; Function compile flags: /Ogtp
; File E:\Proyectos\JuegosOnlineproyectos\PB\pbblow\Piercing Blow Remake\i3Server\include\i3Base\i3List.h
;	COMDAT ?SetOnceMode@i3StringList@@QAEXH@Z
_TEXT	SEGMENT
_bFlag$ = 8						; size = 4
?SetOnceMode@i3StringList@@QAEXH@Z PROC			; i3StringList::SetOnceMode, COMDAT
; _this$ = ecx

; 242  : 	void	SetOnceMode( BOOL bFlag)		{ m_bOnceMode = bFlag; }

  00000	55		 push	 ebp
  00001	8b ec		 mov	 ebp, esp
  00003	8b 45 08	 mov	 eax, DWORD PTR _bFlag$[ebp]
  00006	89 41 1c	 mov	 DWORD PTR [ecx+28], eax
  00009	5d		 pop	 ebp
  0000a	c2 04 00	 ret	 4
?SetOnceMode@i3StringList@@QAEXH@Z ENDP			; i3StringList::SetOnceMode
_TEXT	ENDS
; Function compile flags: /Ogtp
; File E:\Proyectos\JuegosOnlineproyectos\PB\pbblow\Piercing Blow Remake\i3Server\include\i3Base\i3List.h
;	COMDAT ?GetOnceMode@i3StringList@@QAEHXZ
_TEXT	SEGMENT
?GetOnceMode@i3StringList@@QAEHXZ PROC			; i3StringList::GetOnceMode, COMDAT
; _this$ = ecx

; 241  : 	BOOL	GetOnceMode(void)				{ return m_bOnceMode; }

  00000	8b 41 1c	 mov	 eax, DWORD PTR [ecx+28]
  00003	c3		 ret	 0
?GetOnceMode@i3StringList@@QAEHXZ ENDP			; i3StringList::GetOnceMode
_TEXT	ENDS
; Function compile flags: /Ogtp
; File E:\Proyectos\JuegosOnlineproyectos\PB\pbblow\Piercing Blow Remake\i3Server\include\i3Base\i3List.h
;	COMDAT ?GetLast@i3StringList@@QAEPADXZ
_TEXT	SEGMENT
?GetLast@i3StringList@@QAEPADXZ PROC			; i3StringList::GetLast, COMDAT
; _this$ = ecx

; 239  : 	char *	GetLast(void)					{ return Items[ m_Count-1]; }

  00000	8b 51 14	 mov	 edx, DWORD PTR [ecx+20]
  00003	8b 41 24	 mov	 eax, DWORD PTR [ecx+36]
  00006	8b 44 90 fc	 mov	 eax, DWORD PTR [eax+edx*4-4]
  0000a	c3		 ret	 0
?GetLast@i3StringList@@QAEPADXZ ENDP			; i3StringList::GetLast
_TEXT	ENDS
; Function compile flags: /Ogtp
; File E:\Proyectos\JuegosOnlineproyectos\PB\pbblow\Piercing Blow Remake\i3Server\include\i3Base\i3List.h
;	COMDAT ?GetFirst@i3StringList@@QAEPADXZ
_TEXT	SEGMENT
?GetFirst@i3StringList@@QAEPADXZ PROC			; i3StringList::GetFirst, COMDAT
; _this$ = ecx

; 238  : 	char *	GetFirst(void)					{ return Items[ 0]; }

  00000	8b 41 24	 mov	 eax, DWORD PTR [ecx+36]
  00003	8b 00		 mov	 eax, DWORD PTR [eax]
  00005	c3		 ret	 0
?GetFirst@i3StringList@@QAEPADXZ ENDP			; i3StringList::GetFirst
_TEXT	ENDS
; Function compile flags: /Ogtp
; File E:\Proyectos\JuegosOnlineproyectos\PB\pbblow\Piercing Blow Remake\i3Server\include\i3Base\i3List.h
;	COMDAT ?Find@i3StringList@@QAEHPAD@Z
_TEXT	SEGMENT
_p$ = 8							; size = 4
?Find@i3StringList@@QAEHPAD@Z PROC			; i3StringList::Find, COMDAT
; _this$ = ecx

; 236  : 	INT32	Find( char * p)					{ return IndexOf( p); }

  00000	55		 push	 ebp
  00001	8b ec		 mov	 ebp, esp
  00003	8b 01		 mov	 eax, DWORD PTR [ecx]
  00005	5d		 pop	 ebp
  00006	ff 60 0c	 jmp	 DWORD PTR [eax+12]
?Find@i3StringList@@QAEHPAD@Z ENDP			; i3StringList::Find
_TEXT	ENDS
; Function compile flags: /Ogtp
; File E:\Proyectos\JuegosOnlineproyectos\PB\pbblow\Piercing Blow Remake\i3Server\include\i3Base\i3List.h
;	COMDAT ?SetItem@i3StringList@@QAEXHPAD@Z
_TEXT	SEGMENT
_idx$ = 8						; size = 4
_p$ = 12						; size = 4
?SetItem@i3StringList@@QAEXHPAD@Z PROC			; i3StringList::SetItem, COMDAT
; _this$ = ecx

; 235  : 	void	SetItem( INT32 idx, char * p)		{ Items[idx] = p; }

  00000	55		 push	 ebp
  00001	8b ec		 mov	 ebp, esp
  00003	8b 51 24	 mov	 edx, DWORD PTR [ecx+36]
  00006	8b 45 08	 mov	 eax, DWORD PTR _idx$[ebp]
  00009	8b 4d 0c	 mov	 ecx, DWORD PTR _p$[ebp]
  0000c	89 0c 82	 mov	 DWORD PTR [edx+eax*4], ecx
  0000f	5d		 pop	 ebp
  00010	c2 08 00	 ret	 8
?SetItem@i3StringList@@QAEXHPAD@Z ENDP			; i3StringList::SetItem
_TEXT	ENDS
; Function compile flags: /Ogtp
; File E:\Proyectos\JuegosOnlineproyectos\PB\pbblow\Piercing Blow Remake\i3Server\include\i3Base\i3List.h
;	COMDAT ?GetItem@i3StringList@@QAEPAXH@Z
_TEXT	SEGMENT
_idx$ = 8						; size = 4
?GetItem@i3StringList@@QAEPAXH@Z PROC			; i3StringList::GetItem, COMDAT
; _this$ = ecx

; 233  : 	void *	GetItem( INT32 idx)				{ if( idx >= GetCount() || idx < 0 )	return NULL;

  00000	55		 push	 ebp
  00001	8b ec		 mov	 ebp, esp
  00003	8b 55 08	 mov	 edx, DWORD PTR _idx$[ebp]
  00006	3b 51 14	 cmp	 edx, DWORD PTR [ecx+20]
  00009	7d 0e		 jge	 SHORT $LN4@GetItem
  0000b	85 d2		 test	 edx, edx
  0000d	78 0a		 js	 SHORT $LN4@GetItem

; 234  : 											  else									return Items[ idx];	 }

  0000f	8b 41 24	 mov	 eax, DWORD PTR [ecx+36]
  00012	8b 04 90	 mov	 eax, DWORD PTR [eax+edx*4]
  00015	5d		 pop	 ebp
  00016	c2 04 00	 ret	 4
$LN4@GetItem:

; 233  : 	void *	GetItem( INT32 idx)				{ if( idx >= GetCount() || idx < 0 )	return NULL;

  00019	33 c0		 xor	 eax, eax

; 234  : 											  else									return Items[ idx];	 }

  0001b	5d		 pop	 ebp
  0001c	c2 04 00	 ret	 4
?GetItem@i3StringList@@QAEPAXH@Z ENDP			; i3StringList::GetItem
_TEXT	ENDS
; Function compile flags: /Ogtp
; File E:\Proyectos\JuegosOnlineproyectos\PB\pbblow\Piercing Blow Remake\i3Server\include\i3Base\i3List.h
;	COMDAT ?GetCount@i3StringList@@QBEHXZ
_TEXT	SEGMENT
?GetCount@i3StringList@@QBEHXZ PROC			; i3StringList::GetCount, COMDAT
; _this$ = ecx

; 232  : 	INT32	GetCount(void) const			{ return m_Count; }

  00000	8b 41 14	 mov	 eax, DWORD PTR [ecx+20]
  00003	c3		 ret	 0
?GetCount@i3StringList@@QBEHXZ ENDP			; i3StringList::GetCount
_TEXT	ENDS
; Function compile flags: /Ogtp
; File E:\Proyectos\JuegosOnlineproyectos\PB\pbblow\Piercing Blow Remake\i3Server\include\i3Base\i3List.h
;	COMDAT ?GetClassMeta@i3StringList@@SAPAVi3ClassMeta@@XZ
_TEXT	SEGMENT
?GetClassMeta@i3StringList@@SAPAVi3ClassMeta@@XZ PROC	; i3StringList::GetClassMeta, COMDAT

; 198  : 	I3_CLASS_DEFINE( i3StringList);

  00000	a1 00 00 00 00	 mov	 eax, DWORD PTR ?s_pClassMetai3StringList@i3StringList@@2PAVi3ClassMeta@@A ; i3StringList::s_pClassMetai3StringList
  00005	c3		 ret	 0
?GetClassMeta@i3StringList@@SAPAVi3ClassMeta@@XZ ENDP	; i3StringList::GetClassMeta
_TEXT	ENDS
; Function compile flags: /Ogtp
; File E:\Proyectos\JuegosOnlineproyectos\PB\pbblow\Piercing Blow Remake\i3Server\src\i3Base\i3String.cpp
;	COMDAT ??_Ei3List@@UAEPAXI@Z
_TEXT	SEGMENT
__$EHRec$ = -12						; size = 12
___flags$ = 8						; size = 4
??_Ei3List@@UAEPAXI@Z PROC				; i3List::`vector deleting destructor', COMDAT
; _this$ = ecx
  00000	55		 push	 ebp
  00001	8b ec		 mov	 ebp, esp
  00003	6a ff		 push	 -1
  00005	68 00 00 00 00	 push	 __ehhandler$??_Ei3List@@UAEPAXI@Z
  0000a	64 a1 00 00 00
	00		 mov	 eax, DWORD PTR fs:0
  00010	50		 push	 eax
  00011	53		 push	 ebx
  00012	56		 push	 esi
  00013	57		 push	 edi
  00014	a1 00 00 00 00	 mov	 eax, DWORD PTR ___security_cookie
  00019	33 c5		 xor	 eax, ebp
  0001b	50		 push	 eax
  0001c	8d 45 f4	 lea	 eax, DWORD PTR __$EHRec$[ebp]
  0001f	64 a3 00 00 00
	00		 mov	 DWORD PTR fs:0, eax
  00025	8b f1		 mov	 esi, ecx
  00027	8b 5d 08	 mov	 ebx, DWORD PTR ___flags$[ebp]
  0002a	8b fb		 mov	 edi, ebx
  0002c	83 e7 01	 and	 edi, 1
  0002f	f6 c3 02	 test	 bl, 2
  00032	74 3d		 je	 SHORT $LN2@vector
  00034	68 00 00 00 00	 push	 OFFSET ??1i3List@@UAE@XZ ; i3List::~i3List
  00039	ff 76 fc	 push	 DWORD PTR [esi-4]
  0003c	8d 5e fc	 lea	 ebx, DWORD PTR [esi-4]
  0003f	6a 58		 push	 88			; 00000058H
  00041	56		 push	 esi
  00042	e8 00 00 00 00	 call	 ??_M@YGXPAXIIP6EX0@Z@Z
  00047	85 ff		 test	 edi, edi
  00049	74 10		 je	 SHORT $LN3@vector
  0004b	6b 0b 58	 imul	 ecx, DWORD PTR [ebx], 88
  0004e	83 c1 04	 add	 ecx, 4
  00051	51		 push	 ecx
  00052	53		 push	 ebx
  00053	e8 00 00 00 00	 call	 ??_V@YAXPAXI@Z		; operator delete[]
  00058	83 c4 08	 add	 esp, 8
$LN3@vector:
  0005b	8b c3		 mov	 eax, ebx
  0005d	8b 4d f4	 mov	 ecx, DWORD PTR __$EHRec$[ebp]
  00060	64 89 0d 00 00
	00 00		 mov	 DWORD PTR fs:0, ecx
  00067	59		 pop	 ecx
  00068	5f		 pop	 edi
  00069	5e		 pop	 esi
  0006a	5b		 pop	 ebx
  0006b	8b e5		 mov	 esp, ebp
  0006d	5d		 pop	 ebp
  0006e	c2 04 00	 ret	 4
$LN2@vector:
  00071	e8 00 00 00 00	 call	 ??1i3List@@UAE@XZ	; i3List::~i3List
  00076	85 ff		 test	 edi, edi
  00078	74 1b		 je	 SHORT $LN6@vector
  0007a	f6 c3 04	 test	 bl, 4
  0007d	75 0b		 jne	 SHORT $LN5@vector
  0007f	56		 push	 esi
  00080	e8 00 00 00 00	 call	 ??3i3ElementBase@@SAXPAX@Z ; i3ElementBase::operator delete
  00085	83 c4 04	 add	 esp, 4
  00088	eb 0b		 jmp	 SHORT $LN6@vector
$LN5@vector:

  0008a	6a 58		 push	 88			; 00000058H
  0008c	56		 push	 esi
  0008d	e8 00 00 00 00	 call	 ??3@YAXPAXI@Z		; operator delete
  00092	83 c4 08	 add	 esp, 8
$LN6@vector:
  00095	8b c6		 mov	 eax, esi
  00097	8b 4d f4	 mov	 ecx, DWORD PTR __$EHRec$[ebp]
  0009a	64 89 0d 00 00
	00 00		 mov	 DWORD PTR fs:0, ecx
  000a1	59		 pop	 ecx
  000a2	5f		 pop	 edi
  000a3	5e		 pop	 esi
  000a4	5b		 pop	 ebx
  000a5	8b e5		 mov	 esp, ebp
  000a7	5d		 pop	 ebp
  000a8	c2 04 00	 ret	 4
  000ab	cc		 int	 3
  000ac	cc		 int	 3
  000ad	cc		 int	 3
  000ae	cc		 int	 3
  000af	cc		 int	 3
_TEXT	ENDS
;	COMDAT text$x
text$x	SEGMENT
__ehhandler$??_Ei3List@@UAEPAXI@Z:
  00000	90		 npad	 1
  00001	90		 npad	 1
  00002	8b 54 24 08	 mov	 edx, DWORD PTR [esp+8]
  00006	8d 42 0c	 lea	 eax, DWORD PTR [edx+12]
  00009	8b 4a f0	 mov	 ecx, DWORD PTR [edx-16]
  0000c	33 c8		 xor	 ecx, eax
  0000e	e8 00 00 00 00	 call	 @__security_check_cookie@4
  00013	b8 00 00 00 00	 mov	 eax, OFFSET __ehfuncinfo$??_Ei3List@@UAEPAXI@Z
  00018	e9 00 00 00 00	 jmp	 ___CxxFrameHandler3
text$x	ENDS
??_Ei3List@@UAEPAXI@Z ENDP				; i3List::`vector deleting destructor'
; Function compile flags: /Ogtp
; File E:\Proyectos\JuegosOnlineproyectos\PB\pbblow\Piercing Blow Remake\i3Server\src\i3Base\i3String.cpp
;	COMDAT ??_Gi3List@@UAEPAXI@Z
_TEXT	SEGMENT
___flags$ = 8						; size = 4
??_Gi3List@@UAEPAXI@Z PROC				; i3List::`scalar deleting destructor', COMDAT
; _this$ = ecx
  00000	55		 push	 ebp
  00001	8b ec		 mov	 ebp, esp
  00003	56		 push	 esi
  00004	8b f1		 mov	 esi, ecx
  00006	e8 00 00 00 00	 call	 ??1i3List@@UAE@XZ	; i3List::~i3List
  0000b	8b 45 08	 mov	 eax, DWORD PTR ___flags$[ebp]
  0000e	a8 01		 test	 al, 1
  00010	74 1f		 je	 SHORT $LN10@scalar
  00012	a8 04		 test	 al, 4
  00014	75 10		 jne	 SHORT $LN3@scalar
  00016	56		 push	 esi
  00017	e8 00 00 00 00	 call	 ??3i3ElementBase@@SAXPAX@Z ; i3ElementBase::operator delete
  0001c	83 c4 04	 add	 esp, 4
  0001f	8b c6		 mov	 eax, esi
  00021	5e		 pop	 esi
  00022	5d		 pop	 ebp
  00023	c2 04 00	 ret	 4
$LN3@scalar:

  00026	6a 58		 push	 88			; 00000058H
  00028	56		 push	 esi
  00029	e8 00 00 00 00	 call	 ??3@YAXPAXI@Z		; operator delete
  0002e	83 c4 08	 add	 esp, 8
$LN10@scalar:
  00031	8b c6		 mov	 eax, esi
  00033	5e		 pop	 esi
  00034	5d		 pop	 ebp
  00035	c2 04 00	 ret	 4
??_Gi3List@@UAEPAXI@Z ENDP				; i3List::`scalar deleting destructor'
_TEXT	ENDS
; Function compile flags: /Ogtp
;	COMDAT ??_Fi3List@@QAEXXZ
_TEXT	SEGMENT
??_Fi3List@@QAEXXZ PROC					; i3List::`default constructor closure', COMDAT
; _this$ = ecx
  00000	6a 08		 push	 8
  00002	e8 00 00 00 00	 call	 ??0i3List@@QAE@H@Z	; i3List::i3List
  00007	c3		 ret	 0
??_Fi3List@@QAEXXZ ENDP					; i3List::`default constructor closure'
_TEXT	ENDS
; Function compile flags: /Ogtp
;	COMDAT ??4i3List@@QAEAAV0@ABV0@@Z
_TEXT	SEGMENT
___that$ = 8						; size = 4
??4i3List@@QAEAAV0@ABV0@@Z PROC				; i3List::operator=, COMDAT
; _this$ = ecx
  00000	55		 push	 ebp
  00001	8b ec		 mov	 ebp, esp
  00003	8b 55 08	 mov	 edx, DWORD PTR ___that$[ebp]
  00006	8b 42 04	 mov	 eax, DWORD PTR [edx+4]
  00009	89 41 04	 mov	 DWORD PTR [ecx+4], eax
  0000c	8b 42 08	 mov	 eax, DWORD PTR [edx+8]
  0000f	89 41 08	 mov	 DWORD PTR [ecx+8], eax
  00012	8b 42 0c	 mov	 eax, DWORD PTR [edx+12]
  00015	89 41 0c	 mov	 DWORD PTR [ecx+12], eax
  00018	8b 42 10	 mov	 eax, DWORD PTR [edx+16]
  0001b	89 41 10	 mov	 DWORD PTR [ecx+16], eax
  0001e	8b 42 14	 mov	 eax, DWORD PTR [edx+20]
  00021	89 41 14	 mov	 DWORD PTR [ecx+20], eax
  00024	8b 42 18	 mov	 eax, DWORD PTR [edx+24]
  00027	89 41 18	 mov	 DWORD PTR [ecx+24], eax
  0002a	8b 42 1c	 mov	 eax, DWORD PTR [edx+28]
  0002d	89 41 1c	 mov	 DWORD PTR [ecx+28], eax
  00030	8b 42 20	 mov	 eax, DWORD PTR [edx+32]
  00033	89 41 20	 mov	 DWORD PTR [ecx+32], eax
  00036	8b 42 24	 mov	 eax, DWORD PTR [edx+36]
  00039	89 41 24	 mov	 DWORD PTR [ecx+36], eax
  0003c	8b 42 28	 mov	 eax, DWORD PTR [edx+40]
  0003f	89 41 28	 mov	 DWORD PTR [ecx+40], eax
  00042	8b 42 2c	 mov	 eax, DWORD PTR [edx+44]
  00045	89 41 2c	 mov	 DWORD PTR [ecx+44], eax
  00048	8b 42 30	 mov	 eax, DWORD PTR [edx+48]
  0004b	89 41 30	 mov	 DWORD PTR [ecx+48], eax
  0004e	8b 42 34	 mov	 eax, DWORD PTR [edx+52]
  00051	89 41 34	 mov	 DWORD PTR [ecx+52], eax
  00054	8b 42 38	 mov	 eax, DWORD PTR [edx+56]
  00057	89 41 38	 mov	 DWORD PTR [ecx+56], eax
  0005a	8b 42 3c	 mov	 eax, DWORD PTR [edx+60]
  0005d	89 41 3c	 mov	 DWORD PTR [ecx+60], eax
  00060	8b 42 40	 mov	 eax, DWORD PTR [edx+64]
  00063	89 41 40	 mov	 DWORD PTR [ecx+64], eax
  00066	8b 42 44	 mov	 eax, DWORD PTR [edx+68]
  00069	89 41 44	 mov	 DWORD PTR [ecx+68], eax
  0006c	8b 42 48	 mov	 eax, DWORD PTR [edx+72]
  0006f	89 41 48	 mov	 DWORD PTR [ecx+72], eax
  00072	8b 42 4c	 mov	 eax, DWORD PTR [edx+76]
  00075	89 41 4c	 mov	 DWORD PTR [ecx+76], eax
  00078	8b 42 50	 mov	 eax, DWORD PTR [edx+80]
  0007b	89 41 50	 mov	 DWORD PTR [ecx+80], eax
  0007e	8b 42 54	 mov	 eax, DWORD PTR [edx+84]
  00081	89 41 54	 mov	 DWORD PTR [ecx+84], eax
  00084	8b c1		 mov	 eax, ecx
  00086	5d		 pop	 ebp
  00087	c2 04 00	 ret	 4
??4i3List@@QAEAAV0@ABV0@@Z ENDP				; i3List::operator=
_TEXT	ENDS
; Function compile flags: /Ogtp
;	COMDAT ??0i3List@@QAE@ABV0@@Z
_TEXT	SEGMENT
___that$ = 8						; size = 4
??0i3List@@QAE@ABV0@@Z PROC				; i3List::i3List, COMDAT
; _this$ = ecx
  00000	55		 push	 ebp
  00001	8b ec		 mov	 ebp, esp
  00003	8b 55 08	 mov	 edx, DWORD PTR ___that$[ebp]
  00006	53		 push	 ebx
  00007	8b d9		 mov	 ebx, ecx
  00009	b9 08 00 00 00	 mov	 ecx, 8
  0000e	56		 push	 esi
  0000f	57		 push	 edi
  00010	8d 72 28	 lea	 esi, DWORD PTR [edx+40]
  00013	c7 03 00 00 00
	00		 mov	 DWORD PTR [ebx], OFFSET ??_7i3ElementBase@@6B@
  00019	8d 7b 28	 lea	 edi, DWORD PTR [ebx+40]
  0001c	8b 42 04	 mov	 eax, DWORD PTR [edx+4]
  0001f	89 43 04	 mov	 DWORD PTR [ebx+4], eax
  00022	8b 42 08	 mov	 eax, DWORD PTR [edx+8]
  00025	89 43 08	 mov	 DWORD PTR [ebx+8], eax
  00028	8b 42 0c	 mov	 eax, DWORD PTR [edx+12]
  0002b	89 43 0c	 mov	 DWORD PTR [ebx+12], eax
  0002e	c7 03 00 00 00
	00		 mov	 DWORD PTR [ebx], OFFSET ??_7i3List@@6B@
  00034	8b 42 10	 mov	 eax, DWORD PTR [edx+16]
  00037	89 43 10	 mov	 DWORD PTR [ebx+16], eax
  0003a	8b 42 14	 mov	 eax, DWORD PTR [edx+20]
  0003d	89 43 14	 mov	 DWORD PTR [ebx+20], eax
  00040	8b 42 18	 mov	 eax, DWORD PTR [edx+24]
  00043	89 43 18	 mov	 DWORD PTR [ebx+24], eax
  00046	8b 42 1c	 mov	 eax, DWORD PTR [edx+28]
  00049	89 43 1c	 mov	 DWORD PTR [ebx+28], eax
  0004c	8b 42 20	 mov	 eax, DWORD PTR [edx+32]
  0004f	89 43 20	 mov	 DWORD PTR [ebx+32], eax
  00052	8b 42 24	 mov	 eax, DWORD PTR [edx+36]
  00055	89 43 24	 mov	 DWORD PTR [ebx+36], eax
  00058	f3 a5		 rep movsd
  0005a	8b 42 48	 mov	 eax, DWORD PTR [edx+72]
  0005d	89 43 48	 mov	 DWORD PTR [ebx+72], eax
  00060	8b 42 4c	 mov	 eax, DWORD PTR [edx+76]
  00063	89 43 4c	 mov	 DWORD PTR [ebx+76], eax
  00066	8b 42 50	 mov	 eax, DWORD PTR [edx+80]
  00069	89 43 50	 mov	 DWORD PTR [ebx+80], eax
  0006c	8b 42 54	 mov	 eax, DWORD PTR [edx+84]
  0006f	5f		 pop	 edi
  00070	89 43 54	 mov	 DWORD PTR [ebx+84], eax
  00073	8b c3		 mov	 eax, ebx
  00075	5e		 pop	 esi
  00076	5b		 pop	 ebx
  00077	5d		 pop	 ebp
  00078	c2 04 00	 ret	 4
??0i3List@@QAE@ABV0@@Z ENDP				; i3List::i3List
_TEXT	ENDS
; Function compile flags: /Ogtp
; File E:\Proyectos\JuegosOnlineproyectos\PB\pbblow\Piercing Blow Remake\i3Server\include\i3Base\i3List.h
;	COMDAT ?SafeFreeAll@i3List@@QAEXXZ
_TEXT	SEGMENT
?SafeFreeAll@i3List@@QAEXXZ PROC			; i3List::SafeFreeAll, COMDAT
; _this$ = ecx

; 184  : 	{

  00000	53		 push	 ebx
  00001	56		 push	 esi
  00002	57		 push	 edi
  00003	8b f9		 mov	 edi, ecx

; 185  : 		INT32 Count = GetCount();

  00005	33 f6		 xor	 esi, esi
  00007	8b 5f 14	 mov	 ebx, DWORD PTR [edi+20]

; 186  : 		for (INT i = 0 ; i < Count ; ++i)

  0000a	85 db		 test	 ebx, ebx
  0000c	7e 29		 jle	 SHORT $LN3@SafeFreeAl
  0000e	8b ff		 npad	 2
$LL4@SafeFreeAl:

; 93   : 	void *	GetItem( INT32 idx)				{ if( idx >= GetCount() || idx < 0 )	return NULL;

  00010	3b 77 14	 cmp	 esi, DWORD PTR [edi+20]
  00013	7d 1d		 jge	 SHORT $LN2@SafeFreeAl

; 94   : 											  else									return Items[ idx];	 }

  00015	8b 47 24	 mov	 eax, DWORD PTR [edi+36]
  00018	8b 04 b0	 mov	 eax, DWORD PTR [eax+esi*4]

; 187  : 		{
; 188  : 			void * p = GetItem(i);
; 189  : 			if ( p )

  0001b	85 c0		 test	 eax, eax
  0001d	74 13		 je	 SHORT $LN2@SafeFreeAl

; 190  : 				i3MemFree(p);

  0001f	68 be 00 00 00	 push	 190			; 000000beH
  00024	68 00 00 00 00	 push	 OFFSET ??_C@_0GD@LNMGNFKI@E?3?2Proyectos?2JuegosOnlineproyec@
  00029	50		 push	 eax
  0002a	e8 00 00 00 00	 call	 ?FreeTool@i3mem@@YAXPAXPBDH@Z ; i3mem::FreeTool
  0002f	83 c4 0c	 add	 esp, 12			; 0000000cH
$LN2@SafeFreeAl:

; 186  : 		for (INT i = 0 ; i < Count ; ++i)

  00032	46		 inc	 esi
  00033	3b f3		 cmp	 esi, ebx
  00035	7c d9		 jl	 SHORT $LL4@SafeFreeAl
$LN3@SafeFreeAl:

; 191  : 		}
; 192  : 		Clear();

  00037	8b 07		 mov	 eax, DWORD PTR [edi]
  00039	8b cf		 mov	 ecx, edi
  0003b	6a 00		 push	 0
  0003d	ff 50 20	 call	 DWORD PTR [eax+32]
  00040	5f		 pop	 edi
  00041	5e		 pop	 esi
  00042	5b		 pop	 ebx

; 193  : 	}

  00043	c3		 ret	 0
?SafeFreeAll@i3List@@QAEXXZ ENDP			; i3List::SafeFreeAll
_TEXT	ENDS
; Function compile flags: /Ogtp
; File E:\Proyectos\JuegosOnlineproyectos\PB\pbblow\Piercing Blow Remake\i3Server\include\i3Base\i3List.h
;	COMDAT ?SafeReleaseAll@i3List@@QAEXXZ
_TEXT	SEGMENT
?SafeReleaseAll@i3List@@QAEXXZ PROC			; i3List::SafeReleaseAll, COMDAT
; _this$ = ecx

; 170  : 	{

  00000	53		 push	 ebx
  00001	56		 push	 esi
  00002	57		 push	 edi
  00003	8b f9		 mov	 edi, ecx

; 171  : 		INT32 i,n = GetCount();

  00005	33 f6		 xor	 esi, esi
  00007	8b 5f 14	 mov	 ebx, DWORD PTR [edi+20]

; 172  : 		for( i=0; i<n; i++)

  0000a	85 db		 test	 ebx, ebx
  0000c	7e 1b		 jle	 SHORT $LN3@SafeReleas
  0000e	8b ff		 npad	 2
$LL4@SafeReleas:

; 93   : 	void *	GetItem( INT32 idx)				{ if( idx >= GetCount() || idx < 0 )	return NULL;

  00010	3b 77 14	 cmp	 esi, DWORD PTR [edi+20]
  00013	7d 0f		 jge	 SHORT $LN2@SafeReleas

; 94   : 											  else									return Items[ idx];	 }

  00015	8b 47 24	 mov	 eax, DWORD PTR [edi+36]
  00018	8b 0c b0	 mov	 ecx, DWORD PTR [eax+esi*4]

; 173  : 		{
; 174  : 			i3ElementBase *pItem = (i3ElementBase*)GetItem(i);
; 175  : 			if( pItem != NULL )

  0001b	85 c9		 test	 ecx, ecx
  0001d	74 05		 je	 SHORT $LN2@SafeReleas

; 176  : 			{
; 177  : 				pItem->Release();

  0001f	e8 00 00 00 00	 call	 ?Release@i3ElementBase@@QAEXXZ ; i3ElementBase::Release
$LN2@SafeReleas:

; 172  : 		for( i=0; i<n; i++)

  00024	46		 inc	 esi
  00025	3b f3		 cmp	 esi, ebx
  00027	7c e7		 jl	 SHORT $LL4@SafeReleas
$LN3@SafeReleas:

; 178  : 			}
; 179  : 		}
; 180  : 		Clear();

  00029	8b 07		 mov	 eax, DWORD PTR [edi]
  0002b	8b cf		 mov	 ecx, edi
  0002d	6a 00		 push	 0
  0002f	ff 50 20	 call	 DWORD PTR [eax+32]
  00032	5f		 pop	 edi
  00033	5e		 pop	 esi
  00034	5b		 pop	 ebx

; 181  : 	}

  00035	c3		 ret	 0
?SafeReleaseAll@i3List@@QAEXXZ ENDP			; i3List::SafeReleaseAll
_TEXT	ENDS
; Function compile flags: /Ogtp
; File E:\Proyectos\JuegosOnlineproyectos\PB\pbblow\Piercing Blow Remake\i3Server\include\i3Base\i3List.h
;	COMDAT ?AddFromList@i3List@@QAEXPAV1@@Z
_TEXT	SEGMENT
_pSrcList$ = 8						; size = 4
?AddFromList@i3List@@QAEXPAV1@@Z PROC			; i3List::AddFromList, COMDAT
; _this$ = ecx

; 126  : 	{

  00000	55		 push	 ebp
  00001	8b ec		 mov	 ebp, esp
  00003	53		 push	 ebx
  00004	56		 push	 esi
  00005	57		 push	 edi
  00006	8b 7d 08	 mov	 edi, DWORD PTR _pSrcList$[ebp]

; 127  : 		INT32 i;
; 128  : 		for( i = 0; i  < pSrcList->GetCount(); i++)

  00009	33 f6		 xor	 esi, esi
  0000b	8b d9		 mov	 ebx, ecx
  0000d	39 77 14	 cmp	 DWORD PTR [edi+20], esi
  00010	7e 13		 jle	 SHORT $LN3@AddFromLis
$LL4@AddFromLis:

; 129  : 		{
; 130  : 			Add( pSrcList->Items[i]);

  00012	8b 47 24	 mov	 eax, DWORD PTR [edi+36]
  00015	8b cb		 mov	 ecx, ebx
  00017	8b 13		 mov	 edx, DWORD PTR [ebx]
  00019	ff 34 b0	 push	 DWORD PTR [eax+esi*4]
  0001c	ff 52 10	 call	 DWORD PTR [edx+16]
  0001f	46		 inc	 esi
  00020	3b 77 14	 cmp	 esi, DWORD PTR [edi+20]
  00023	7c ed		 jl	 SHORT $LL4@AddFromLis
$LN3@AddFromLis:
  00025	5f		 pop	 edi

; 131  : 		}
; 132  : 	}

  00026	5e		 pop	 esi
  00027	5b		 pop	 ebx
  00028	5d		 pop	 ebp
  00029	c2 04 00	 ret	 4
?AddFromList@i3List@@QAEXPAV1@@Z ENDP			; i3List::AddFromList
_TEXT	ENDS
; Function compile flags: /Ogtp
; File E:\Proyectos\JuegosOnlineproyectos\PB\pbblow\Piercing Blow Remake\i3Server\include\i3Base\i3List.h
;	COMDAT ?GetLast@i3List@@QAEPAXXZ
_TEXT	SEGMENT
?GetLast@i3List@@QAEPAXXZ PROC				; i3List::GetLast, COMDAT
; _this$ = ecx

; 114  : 	void *	GetLast(void)					{ return Items[ m_Count-1]; }

  00000	8b 51 14	 mov	 edx, DWORD PTR [ecx+20]
  00003	8b 41 24	 mov	 eax, DWORD PTR [ecx+36]
  00006	8b 44 90 fc	 mov	 eax, DWORD PTR [eax+edx*4-4]
  0000a	c3		 ret	 0
?GetLast@i3List@@QAEPAXXZ ENDP				; i3List::GetLast
_TEXT	ENDS
; Function compile flags: /Ogtp
; File E:\Proyectos\JuegosOnlineproyectos\PB\pbblow\Piercing Blow Remake\i3Server\include\i3Base\i3List.h
;	COMDAT ?GetFirst@i3List@@QAEPAXXZ
_TEXT	SEGMENT
?GetFirst@i3List@@QAEPAXXZ PROC				; i3List::GetFirst, COMDAT
; _this$ = ecx

; 113  : 	void *	GetFirst(void)					{ return Items[ 0]; }

  00000	8b 41 24	 mov	 eax, DWORD PTR [ecx+36]
  00003	8b 00		 mov	 eax, DWORD PTR [eax]
  00005	c3		 ret	 0
?GetFirst@i3List@@QAEPAXXZ ENDP				; i3List::GetFirst
_TEXT	ENDS
; Function compile flags: /Ogtp
; File E:\Proyectos\JuegosOnlineproyectos\PB\pbblow\Piercing Blow Remake\i3Server\include\i3Base\i3List.h
;	COMDAT ?Find@i3List@@QBEHPAX@Z
_TEXT	SEGMENT
_p$ = 8							; size = 4
?Find@i3List@@QBEHPAX@Z PROC				; i3List::Find, COMDAT
; _this$ = ecx

; 111  : 	INT32	Find( void * p) const			{ return IndexOf( p); }

  00000	55		 push	 ebp
  00001	8b ec		 mov	 ebp, esp
  00003	8b 01		 mov	 eax, DWORD PTR [ecx]
  00005	5d		 pop	 ebp
  00006	ff 60 0c	 jmp	 DWORD PTR [eax+12]
?Find@i3List@@QBEHPAX@Z ENDP				; i3List::Find
_TEXT	ENDS
; Function compile flags: /Ogtp
; File E:\Proyectos\JuegosOnlineproyectos\PB\pbblow\Piercing Blow Remake\i3Server\include\i3Base\i3List.h
;	COMDAT ?GetSafeItem@i3List@@QAEPAXH@Z
_TEXT	SEGMENT
_idx$ = 8						; size = 4
?GetSafeItem@i3List@@QAEPAXH@Z PROC			; i3List::GetSafeItem, COMDAT
; _this$ = ecx

; 107  : 	{

  00000	55		 push	 ebp
  00001	8b ec		 mov	 ebp, esp

; 102  : 		if ( idx >= 0 && idx < m_Count )

  00003	8b 55 08	 mov	 edx, DWORD PTR _idx$[ebp]
  00006	85 d2		 test	 edx, edx
  00008	78 0f		 js	 SHORT $LN4@GetSafeIte
  0000a	3b 51 14	 cmp	 edx, DWORD PTR [ecx+20]
  0000d	7d 0a		 jge	 SHORT $LN4@GetSafeIte

; 103  : 			return Items[ idx];

  0000f	8b 41 24	 mov	 eax, DWORD PTR [ecx+36]

; 108  : 		return const_cast<void *>(static_cast<const i3List &>(*this).GetSafeItem(idx));

  00012	8b 04 90	 mov	 eax, DWORD PTR [eax+edx*4]

; 109  : 	}

  00015	5d		 pop	 ebp
  00016	c2 04 00	 ret	 4
$LN4@GetSafeIte:

; 108  : 		return const_cast<void *>(static_cast<const i3List &>(*this).GetSafeItem(idx));

  00019	33 c0		 xor	 eax, eax

; 109  : 	}

  0001b	5d		 pop	 ebp
  0001c	c2 04 00	 ret	 4
?GetSafeItem@i3List@@QAEPAXH@Z ENDP			; i3List::GetSafeItem
_TEXT	ENDS
; Function compile flags: /Ogtp
; File E:\Proyectos\JuegosOnlineproyectos\PB\pbblow\Piercing Blow Remake\i3Server\include\i3Base\i3List.h
;	COMDAT ?GetSafeItem@i3List@@QBEPBXH@Z
_TEXT	SEGMENT
_idx$ = 8						; size = 4
?GetSafeItem@i3List@@QBEPBXH@Z PROC			; i3List::GetSafeItem, COMDAT
; _this$ = ecx

; 101  : 	{

  00000	55		 push	 ebp
  00001	8b ec		 mov	 ebp, esp

; 102  : 		if ( idx >= 0 && idx < m_Count )

  00003	8b 55 08	 mov	 edx, DWORD PTR _idx$[ebp]
  00006	85 d2		 test	 edx, edx
  00008	78 0f		 js	 SHORT $LN2@GetSafeIte
  0000a	3b 51 14	 cmp	 edx, DWORD PTR [ecx+20]
  0000d	7d 0a		 jge	 SHORT $LN2@GetSafeIte

; 103  : 			return Items[ idx];

  0000f	8b 41 24	 mov	 eax, DWORD PTR [ecx+36]
  00012	8b 04 90	 mov	 eax, DWORD PTR [eax+edx*4]

; 105  : 	}

  00015	5d		 pop	 ebp
  00016	c2 04 00	 ret	 4
$LN2@GetSafeIte:

; 104  : 		return NULL;

  00019	33 c0		 xor	 eax, eax

; 105  : 	}

  0001b	5d		 pop	 ebp
  0001c	c2 04 00	 ret	 4
?GetSafeItem@i3List@@QBEPBXH@Z ENDP			; i3List::GetSafeItem
_TEXT	ENDS
; Function compile flags: /Ogtp
; File E:\Proyectos\JuegosOnlineproyectos\PB\pbblow\Piercing Blow Remake\i3Server\include\i3Base\i3List.h
;	COMDAT ?GetItem@i3List@@QBEPBXH@Z
_TEXT	SEGMENT
_idx$ = 8						; size = 4
?GetItem@i3List@@QBEPBXH@Z PROC				; i3List::GetItem, COMDAT
; _this$ = ecx

; 97   : 	const void *	GetItem( INT32 idx) const	{ if( idx >= GetCount() || idx < 0 )	return NULL;

  00000	55		 push	 ebp
  00001	8b ec		 mov	 ebp, esp
  00003	8b 55 08	 mov	 edx, DWORD PTR _idx$[ebp]
  00006	3b 51 14	 cmp	 edx, DWORD PTR [ecx+20]
  00009	7d 0e		 jge	 SHORT $LN4@GetItem
  0000b	85 d2		 test	 edx, edx
  0000d	78 0a		 js	 SHORT $LN4@GetItem

; 98   : 												  else									return Items[ idx];	 }

  0000f	8b 41 24	 mov	 eax, DWORD PTR [ecx+36]
  00012	8b 04 90	 mov	 eax, DWORD PTR [eax+edx*4]
  00015	5d		 pop	 ebp
  00016	c2 04 00	 ret	 4
$LN4@GetItem:

; 97   : 	const void *	GetItem( INT32 idx) const	{ if( idx >= GetCount() || idx < 0 )	return NULL;

  00019	33 c0		 xor	 eax, eax

; 98   : 												  else									return Items[ idx];	 }

  0001b	5d		 pop	 ebp
  0001c	c2 04 00	 ret	 4
?GetItem@i3List@@QBEPBXH@Z ENDP				; i3List::GetItem
_TEXT	ENDS
; Function compile flags: /Ogtp
; File E:\Proyectos\JuegosOnlineproyectos\PB\pbblow\Piercing Blow Remake\i3Server\include\i3Base\i3List.h
;	COMDAT ?GetItem@i3List@@QAEPAXH@Z
_TEXT	SEGMENT
_idx$ = 8						; size = 4
?GetItem@i3List@@QAEPAXH@Z PROC				; i3List::GetItem, COMDAT
; _this$ = ecx

; 93   : 	void *	GetItem( INT32 idx)				{ if( idx >= GetCount() || idx < 0 )	return NULL;

  00000	55		 push	 ebp
  00001	8b ec		 mov	 ebp, esp
  00003	8b 55 08	 mov	 edx, DWORD PTR _idx$[ebp]
  00006	3b 51 14	 cmp	 edx, DWORD PTR [ecx+20]
  00009	7d 0e		 jge	 SHORT $LN4@GetItem
  0000b	85 d2		 test	 edx, edx
  0000d	78 0a		 js	 SHORT $LN4@GetItem

; 94   : 											  else									return Items[ idx];	 }

  0000f	8b 41 24	 mov	 eax, DWORD PTR [ecx+36]
  00012	8b 04 90	 mov	 eax, DWORD PTR [eax+edx*4]
  00015	5d		 pop	 ebp
  00016	c2 04 00	 ret	 4
$LN4@GetItem:

; 93   : 	void *	GetItem( INT32 idx)				{ if( idx >= GetCount() || idx < 0 )	return NULL;

  00019	33 c0		 xor	 eax, eax

; 94   : 											  else									return Items[ idx];	 }

  0001b	5d		 pop	 ebp
  0001c	c2 04 00	 ret	 4
?GetItem@i3List@@QAEPAXH@Z ENDP				; i3List::GetItem
_TEXT	ENDS
; Function compile flags: /Ogtp
; File E:\Proyectos\JuegosOnlineproyectos\PB\pbblow\Piercing Blow Remake\i3Server\include\i3Base\i3List.h
;	COMDAT ?GetCount@i3List@@QBEHXZ
_TEXT	SEGMENT
?GetCount@i3List@@QBEHXZ PROC				; i3List::GetCount, COMDAT
; _this$ = ecx

; 91   : 	INT32	GetCount(void) const			{ return m_Count; }

  00000	8b 41 14	 mov	 eax, DWORD PTR [ecx+20]
  00003	c3		 ret	 0
?GetCount@i3List@@QBEHXZ ENDP				; i3List::GetCount
_TEXT	ENDS
; Function compile flags: /Ogtp
; File E:\Proyectos\JuegosOnlineproyectos\PB\pbblow\Piercing Blow Remake\i3Server\include\i3Base\i3List.h
;	COMDAT ?SetOnceMode@i3List@@QAEXH@Z
_TEXT	SEGMENT
_bFlag$ = 8						; size = 4
?SetOnceMode@i3List@@QAEXH@Z PROC			; i3List::SetOnceMode, COMDAT
; _this$ = ecx

; 89   : 	void	SetOnceMode( BOOL bFlag = TRUE ){ m_bOnceMode = bFlag;	}

  00000	55		 push	 ebp
  00001	8b ec		 mov	 ebp, esp
  00003	8b 45 08	 mov	 eax, DWORD PTR _bFlag$[ebp]
  00006	89 41 20	 mov	 DWORD PTR [ecx+32], eax
  00009	5d		 pop	 ebp
  0000a	c2 04 00	 ret	 4
?SetOnceMode@i3List@@QAEXH@Z ENDP			; i3List::SetOnceMode
_TEXT	ENDS
; Function compile flags: /Ogtp
; File E:\Proyectos\JuegosOnlineproyectos\PB\pbblow\Piercing Blow Remake\i3Server\include\i3Base\i3List.h
;	COMDAT ?SetOptmizeEnableWhenClear@i3List@@QAEXH@Z
_TEXT	SEGMENT
_bFlag$ = 8						; size = 4
?SetOptmizeEnableWhenClear@i3List@@QAEXH@Z PROC		; i3List::SetOptmizeEnableWhenClear, COMDAT
; _this$ = ecx

; 85   : 	void	SetOptmizeEnableWhenClear( BOOL bFlag)				{ m_bOptimizeWhenClear = bFlag; }

  00000	55		 push	 ebp
  00001	8b ec		 mov	 ebp, esp
  00003	8b 45 08	 mov	 eax, DWORD PTR _bFlag$[ebp]
  00006	89 41 1c	 mov	 DWORD PTR [ecx+28], eax
  00009	5d		 pop	 ebp
  0000a	c2 04 00	 ret	 4
?SetOptmizeEnableWhenClear@i3List@@QAEXH@Z ENDP		; i3List::SetOptmizeEnableWhenClear
_TEXT	ENDS
; Function compile flags: /Ogtp
; File E:\Proyectos\JuegosOnlineproyectos\PB\pbblow\Piercing Blow Remake\i3Server\include\i3Base\i3List.h
;	COMDAT ?GetClassMeta@i3List@@SAPAVi3ClassMeta@@XZ
_TEXT	SEGMENT
?GetClassMeta@i3List@@SAPAVi3ClassMeta@@XZ PROC		; i3List::GetClassMeta, COMDAT

; 22   : 	I3_CLASS_DEFINE( i3List);

  00000	a1 00 00 00 00	 mov	 eax, DWORD PTR ?s_pClassMetai3List@i3List@@2PAVi3ClassMeta@@A ; i3List::s_pClassMetai3List
  00005	c3		 ret	 0
?GetClassMeta@i3List@@SAPAVi3ClassMeta@@XZ ENDP		; i3List::GetClassMeta
_TEXT	ENDS
; Function compile flags: /Ogtp
;	COMDAT ??_Ei3XMLElement@@UAEPAXI@Z
_TEXT	SEGMENT
__$EHRec$ = -12						; size = 12
___flags$ = 8						; size = 4
??_Ei3XMLElement@@UAEPAXI@Z PROC			; i3XMLElement::`vector deleting destructor', COMDAT
; _this$ = ecx
  00000	55		 push	 ebp
  00001	8b ec		 mov	 ebp, esp
  00003	6a ff		 push	 -1
  00005	68 00 00 00 00	 push	 __ehhandler$??_Ei3XMLElement@@UAEPAXI@Z
  0000a	64 a1 00 00 00
	00		 mov	 eax, DWORD PTR fs:0
  00010	50		 push	 eax
  00011	53		 push	 ebx
  00012	56		 push	 esi
  00013	57		 push	 edi
  00014	a1 00 00 00 00	 mov	 eax, DWORD PTR ___security_cookie
  00019	33 c5		 xor	 eax, ebp
  0001b	50		 push	 eax
  0001c	8d 45 f4	 lea	 eax, DWORD PTR __$EHRec$[ebp]
  0001f	64 a3 00 00 00
	00		 mov	 DWORD PTR fs:0, eax
  00025	8b f1		 mov	 esi, ecx
  00027	8b 45 08	 mov	 eax, DWORD PTR ___flags$[ebp]
  0002a	8b f8		 mov	 edi, eax
  0002c	83 e7 01	 and	 edi, 1
  0002f	a8 02		 test	 al, 2
  00031	74 42		 je	 SHORT $LN2@vector
  00033	68 00 00 00 00	 push	 OFFSET ??1i3XMLElement@@UAE@XZ ; i3XMLElement::~i3XMLElement
  00038	ff 76 fc	 push	 DWORD PTR [esi-4]
  0003b	8d 5e fc	 lea	 ebx, DWORD PTR [esi-4]
  0003e	6a 50		 push	 80			; 00000050H
  00040	56		 push	 esi
  00041	e8 00 00 00 00	 call	 ??_M@YGXPAXIIP6EX0@Z@Z
  00046	85 ff		 test	 edi, edi
  00048	74 15		 je	 SHORT $LN3@vector
  0004a	8b 0b		 mov	 ecx, DWORD PTR [ebx]
  0004c	8d 0c 89	 lea	 ecx, DWORD PTR [ecx+ecx*4]
  0004f	c1 e1 04	 shl	 ecx, 4
  00052	83 c1 04	 add	 ecx, 4
  00055	51		 push	 ecx
  00056	53		 push	 ebx
  00057	e8 00 00 00 00	 call	 ??_V@YAXPAXI@Z		; operator delete[]
  0005c	83 c4 08	 add	 esp, 8
$LN3@vector:
  0005f	8b c3		 mov	 eax, ebx
  00061	8b 4d f4	 mov	 ecx, DWORD PTR __$EHRec$[ebp]
  00064	64 89 0d 00 00
	00 00		 mov	 DWORD PTR fs:0, ecx
  0006b	59		 pop	 ecx
  0006c	5f		 pop	 edi
  0006d	5e		 pop	 esi
  0006e	5b		 pop	 ebx
  0006f	8b e5		 mov	 esp, ebp
  00071	5d		 pop	 ebp
  00072	c2 04 00	 ret	 4
$LN2@vector:
  00075	e8 00 00 00 00	 call	 ??1i3XMLElement@@UAE@XZ	; i3XMLElement::~i3XMLElement
  0007a	85 ff		 test	 edi, edi
  0007c	74 0b		 je	 SHORT $LN4@vector
  0007e	6a 50		 push	 80			; 00000050H
  00080	56		 push	 esi
  00081	e8 00 00 00 00	 call	 ??3@YAXPAXI@Z		; operator delete
  00086	83 c4 08	 add	 esp, 8
$LN4@vector:
  00089	8b c6		 mov	 eax, esi
  0008b	8b 4d f4	 mov	 ecx, DWORD PTR __$EHRec$[ebp]
  0008e	64 89 0d 00 00
	00 00		 mov	 DWORD PTR fs:0, ecx
  00095	59		 pop	 ecx
  00096	5f		 pop	 edi
  00097	5e		 pop	 esi
  00098	5b		 pop	 ebx
  00099	8b e5		 mov	 esp, ebp
  0009b	5d		 pop	 ebp
  0009c	c2 04 00	 ret	 4
  0009f	cc		 int	 3
  000a0	cc		 int	 3
  000a1	cc		 int	 3
  000a2	cc		 int	 3
  000a3	cc		 int	 3
_TEXT	ENDS
;	COMDAT text$x
text$x	SEGMENT
__ehhandler$??_Ei3XMLElement@@UAEPAXI@Z:
  00000	90		 npad	 1
  00001	90		 npad	 1
  00002	8b 54 24 08	 mov	 edx, DWORD PTR [esp+8]
  00006	8d 42 0c	 lea	 eax, DWORD PTR [edx+12]
  00009	8b 4a f0	 mov	 ecx, DWORD PTR [edx-16]
  0000c	33 c8		 xor	 ecx, eax
  0000e	e8 00 00 00 00	 call	 @__security_check_cookie@4
  00013	b8 00 00 00 00	 mov	 eax, OFFSET __ehfuncinfo$??_Ei3XMLElement@@UAEPAXI@Z
  00018	e9 00 00 00 00	 jmp	 ___CxxFrameHandler3
text$x	ENDS
??_Ei3XMLElement@@UAEPAXI@Z ENDP			; i3XMLElement::`vector deleting destructor'
; Function compile flags: /Ogtp
;	COMDAT ??_Gi3XMLElement@@UAEPAXI@Z
_TEXT	SEGMENT
___flags$ = 8						; size = 4
??_Gi3XMLElement@@UAEPAXI@Z PROC			; i3XMLElement::`scalar deleting destructor', COMDAT
; _this$ = ecx
  00000	55		 push	 ebp
  00001	8b ec		 mov	 ebp, esp
  00003	56		 push	 esi
  00004	8b f1		 mov	 esi, ecx
  00006	e8 00 00 00 00	 call	 ??1i3XMLElement@@UAE@XZ	; i3XMLElement::~i3XMLElement
  0000b	f6 45 08 01	 test	 BYTE PTR ___flags$[ebp], 1
  0000f	74 0b		 je	 SHORT $LN5@scalar
  00011	6a 50		 push	 80			; 00000050H
  00013	56		 push	 esi
  00014	e8 00 00 00 00	 call	 ??3@YAXPAXI@Z		; operator delete
  00019	83 c4 08	 add	 esp, 8
$LN5@scalar:
  0001c	8b c6		 mov	 eax, esi
  0001e	5e		 pop	 esi
  0001f	5d		 pop	 ebp
  00020	c2 04 00	 ret	 4
??_Gi3XMLElement@@UAEPAXI@Z ENDP			; i3XMLElement::`scalar deleting destructor'
_TEXT	ENDS
; Function compile flags: /Ogtp
;	COMDAT ??4i3XMLElement@@QAEAAV0@ABV0@@Z
_TEXT	SEGMENT
___that$ = 8						; size = 4
??4i3XMLElement@@QAEAAV0@ABV0@@Z PROC			; i3XMLElement::operator=, COMDAT
; _this$ = ecx
  00000	55		 push	 ebp
  00001	8b ec		 mov	 ebp, esp
  00003	56		 push	 esi
  00004	ff 75 08	 push	 DWORD PTR ___that$[ebp]
  00007	8b f1		 mov	 esi, ecx
  00009	e8 00 00 00 00	 call	 ??4TiXmlElement@@QAEXABV0@@Z ; TiXmlElement::operator=
  0000e	8b c6		 mov	 eax, esi
  00010	5e		 pop	 esi
  00011	5d		 pop	 ebp
  00012	c2 04 00	 ret	 4
??4i3XMLElement@@QAEAAV0@ABV0@@Z ENDP			; i3XMLElement::operator=
_TEXT	ENDS
; Function compile flags: /Ogtp
;	COMDAT ??0i3XMLElement@@QAE@ABV0@@Z
_TEXT	SEGMENT
_this$ = -4						; size = 4
___that$ = 8						; size = 4
??0i3XMLElement@@QAE@ABV0@@Z PROC			; i3XMLElement::i3XMLElement, COMDAT
; _this$ = ecx
  00000	55		 push	 ebp
  00001	8b ec		 mov	 ebp, esp
  00003	51		 push	 ecx
  00004	56		 push	 esi
  00005	ff 75 08	 push	 DWORD PTR ___that$[ebp]
  00008	8b f1		 mov	 esi, ecx
  0000a	89 75 fc	 mov	 DWORD PTR _this$[ebp], esi
  0000d	e8 00 00 00 00	 call	 ??0TiXmlElement@@QAE@ABV0@@Z ; TiXmlElement::TiXmlElement
  00012	c7 06 00 00 00
	00		 mov	 DWORD PTR [esi], OFFSET ??_7i3XMLElement@@6B@
  00018	8b c6		 mov	 eax, esi
  0001a	5e		 pop	 esi
  0001b	8b e5		 mov	 esp, ebp
  0001d	5d		 pop	 ebp
  0001e	c2 04 00	 ret	 4
??0i3XMLElement@@QAE@ABV0@@Z ENDP			; i3XMLElement::i3XMLElement
_TEXT	ENDS
; Function compile flags: /Ogtp
; File E:\Proyectos\JuegosOnlineproyectos\PB\pbblow\Piercing Blow Remake\i3Server\include\i3Base\i3XMLElement.h
;	COMDAT ?getAttr@i3XMLElement@@QAEPBDPBDPAG@Z
_TEXT	SEGMENT
_val$ = -4						; size = 4
_pszName$ = 8						; size = 4
_pVal$ = 12						; size = 4
?getAttr@i3XMLElement@@QAEPBDPBDPAG@Z PROC		; i3XMLElement::getAttr, COMDAT
; _this$ = ecx

; 39   : 	{

  00000	55		 push	 ebp
  00001	8b ec		 mov	 ebp, esp
  00003	51		 push	 ecx

; 40   : 		INT32 val;
; 41   : 		const char * pRv;
; 42   : 
; 43   : 		pRv = Attribute( pszName, &val);

  00004	8d 45 fc	 lea	 eax, DWORD PTR _val$[ebp]
  00007	50		 push	 eax
  00008	ff 75 08	 push	 DWORD PTR _pszName$[ebp]
  0000b	e8 00 00 00 00	 call	 ?Attribute@TiXmlElement@@QBEPBDPBDPAH@Z ; TiXmlElement::Attribute

; 44   : 
; 45   : 		*pVal = (UINT16) val;

  00010	8b 55 0c	 mov	 edx, DWORD PTR _pVal$[ebp]
  00013	66 8b 4d fc	 mov	 cx, WORD PTR _val$[ebp]
  00017	66 89 0a	 mov	 WORD PTR [edx], cx

; 46   : 
; 47   : 		return pRv;
; 48   : 	}

  0001a	8b e5		 mov	 esp, ebp
  0001c	5d		 pop	 ebp
  0001d	c2 08 00	 ret	 8
?getAttr@i3XMLElement@@QAEPBDPBDPAG@Z ENDP		; i3XMLElement::getAttr
_TEXT	ENDS
; Function compile flags: /Ogtp
; File E:\Proyectos\JuegosOnlineproyectos\PB\pbblow\Piercing Blow Remake\i3Server\include\i3Base\i3XMLElement.h
;	COMDAT ?getAttr@i3XMLElement@@QAEPBDPBDPAM@Z
_TEXT	SEGMENT
_val$ = -8						; size = 8
_pszName$ = 8						; size = 4
_pVal$ = 12						; size = 4
?getAttr@i3XMLElement@@QAEPBDPBDPAM@Z PROC		; i3XMLElement::getAttr, COMDAT
; _this$ = ecx

; 27   : 	{ 

  00000	55		 push	 ebp
  00001	8b ec		 mov	 ebp, esp
  00003	83 ec 08	 sub	 esp, 8

; 28   : 		const char * pRv;
; 29   : 		double val;
; 30   : 
; 31   : 		pRv = Attribute( pszName, &val);

  00006	8d 45 f8	 lea	 eax, DWORD PTR _val$[ebp]
  00009	50		 push	 eax
  0000a	ff 75 08	 push	 DWORD PTR _pszName$[ebp]
  0000d	e8 00 00 00 00	 call	 ?Attribute@TiXmlElement@@QBEPBDPBDPAN@Z ; TiXmlElement::Attribute

; 32   : 
; 33   : 		*pVal = (REAL32) val;

  00012	8b 4d 0c	 mov	 ecx, DWORD PTR _pVal$[ebp]
  00015	dd 45 f8	 fld	 QWORD PTR _val$[ebp]
  00018	d9 19		 fstp	 DWORD PTR [ecx]

; 34   : 
; 35   : 		return pRv; 
; 36   : 	}

  0001a	8b e5		 mov	 esp, ebp
  0001c	5d		 pop	 ebp
  0001d	c2 08 00	 ret	 8
?getAttr@i3XMLElement@@QAEPBDPBDPAM@Z ENDP		; i3XMLElement::getAttr
_TEXT	ENDS
; Function compile flags: /Ogtp
; File E:\Proyectos\JuegosOnlineproyectos\PB\pbblow\Piercing Blow Remake\i3Server\include\i3Base\i3XMLElement.h
;	COMDAT ?getAttr@i3XMLElement@@QAEPBDPBDPA_K@Z
_TEXT	SEGMENT
_pszName$ = 8						; size = 4
_pVal$ = 12						; size = 4
?getAttr@i3XMLElement@@QAEPBDPBDPA_K@Z PROC		; i3XMLElement::getAttr, COMDAT
; _this$ = ecx

; 25   : 	const char *	getAttr( const char * pszName, UINT64 * pVal)			{ return AttributeLong( pszName, (INT64 *) pVal); }

  00000	55		 push	 ebp
  00001	8b ec		 mov	 ebp, esp
  00003	5d		 pop	 ebp
  00004	e9 00 00 00 00	 jmp	 ?AttributeLong@TiXmlElement@@QBEPBDPBDPA_J@Z ; TiXmlElement::AttributeLong
?getAttr@i3XMLElement@@QAEPBDPBDPA_K@Z ENDP		; i3XMLElement::getAttr
_TEXT	ENDS
; Function compile flags: /Ogtp
; File E:\Proyectos\JuegosOnlineproyectos\PB\pbblow\Piercing Blow Remake\i3Server\include\i3Base\i3XMLElement.h
;	COMDAT ?getAttr@i3XMLElement@@QAEPBDPBDPA_J@Z
_TEXT	SEGMENT
_pszName$ = 8						; size = 4
_pVal$ = 12						; size = 4
?getAttr@i3XMLElement@@QAEPBDPBDPA_J@Z PROC		; i3XMLElement::getAttr, COMDAT
; _this$ = ecx

; 24   : 	const char *	getAttr( const char * pszName, INT64 * pVal)			{ return AttributeLong( pszName, pVal); }

  00000	55		 push	 ebp
  00001	8b ec		 mov	 ebp, esp
  00003	5d		 pop	 ebp
  00004	e9 00 00 00 00	 jmp	 ?AttributeLong@TiXmlElement@@QBEPBDPBDPA_J@Z ; TiXmlElement::AttributeLong
?getAttr@i3XMLElement@@QAEPBDPBDPA_J@Z ENDP		; i3XMLElement::getAttr
_TEXT	ENDS
; Function compile flags: /Ogtp
; File E:\Proyectos\JuegosOnlineproyectos\PB\pbblow\Piercing Blow Remake\i3Server\include\i3Base\i3XMLElement.h
;	COMDAT ?getAttr@i3XMLElement@@QAEPBDPBDPAI@Z
_TEXT	SEGMENT
_pszName$ = 8						; size = 4
_pVal$ = 12						; size = 4
?getAttr@i3XMLElement@@QAEPBDPBDPAI@Z PROC		; i3XMLElement::getAttr, COMDAT
; _this$ = ecx

; 23   : 	const char *	getAttr( const char * pszName, UINT32 * pVal)			{ return Attribute( pszName, (INT32 *) pVal); }

  00000	55		 push	 ebp
  00001	8b ec		 mov	 ebp, esp
  00003	5d		 pop	 ebp
  00004	e9 00 00 00 00	 jmp	 ?Attribute@TiXmlElement@@QBEPBDPBDPAH@Z ; TiXmlElement::Attribute
?getAttr@i3XMLElement@@QAEPBDPBDPAI@Z ENDP		; i3XMLElement::getAttr
_TEXT	ENDS
; Function compile flags: /Ogtp
; File E:\Proyectos\JuegosOnlineproyectos\PB\pbblow\Piercing Blow Remake\i3Server\include\i3Base\i3XMLElement.h
;	COMDAT ?getAttr@i3XMLElement@@QAEPBDPBDPAH@Z
_TEXT	SEGMENT
_pszName$ = 8						; size = 4
_pVal$ = 12						; size = 4
?getAttr@i3XMLElement@@QAEPBDPBDPAH@Z PROC		; i3XMLElement::getAttr, COMDAT
; _this$ = ecx

; 22   : 	const char *	getAttr( const char * pszName, INT32 * pVal)			{ return Attribute( pszName, pVal); }

  00000	55		 push	 ebp
  00001	8b ec		 mov	 ebp, esp
  00003	5d		 pop	 ebp
  00004	e9 00 00 00 00	 jmp	 ?Attribute@TiXmlElement@@QBEPBDPBDPAH@Z ; TiXmlElement::Attribute
?getAttr@i3XMLElement@@QAEPBDPBDPAH@Z ENDP		; i3XMLElement::getAttr
_TEXT	ENDS
; Function compile flags: /Ogtp
; File E:\Proyectos\JuegosOnlineproyectos\PB\pbblow\Piercing Blow Remake\i3Server\include\i3Base\i3XMLElement.h
;	COMDAT ?getAttr@i3XMLElement@@QAEPBDPBD@Z
_TEXT	SEGMENT
_pszName$ = 8						; size = 4
?getAttr@i3XMLElement@@QAEPBDPBD@Z PROC			; i3XMLElement::getAttr, COMDAT
; _this$ = ecx

; 21   : 	const char *	getAttr( const char * pszName)							{ return Attribute( pszName); }

  00000	55		 push	 ebp
  00001	8b ec		 mov	 ebp, esp
  00003	5d		 pop	 ebp
  00004	e9 00 00 00 00	 jmp	 ?Attribute@TiXmlElement@@QBEPBDPBD@Z ; TiXmlElement::Attribute
?getAttr@i3XMLElement@@QAEPBDPBD@Z ENDP			; i3XMLElement::getAttr
_TEXT	ENDS
; Function compile flags: /Ogtp
; File E:\Proyectos\JuegosOnlineproyectos\PB\pbblow\Piercing Blow Remake\i3Server\include\i3Base\i3XMLElement.h
;	COMDAT ?addAttr@i3XMLElement@@QAEXPBD_K@Z
_TEXT	SEGMENT
_pszName$ = 8						; size = 4
_val$ = 12						; size = 8
?addAttr@i3XMLElement@@QAEXPBD_K@Z PROC			; i3XMLElement::addAttr, COMDAT
; _this$ = ecx

; 19   : 	void		addAttr( const char * pszName, UINT64 val)					{	SetLongLongAttribute( pszName, (INT64)val); }

  00000	55		 push	 ebp
  00001	8b ec		 mov	 ebp, esp
  00003	ff 75 10	 push	 DWORD PTR _val$[ebp+4]
  00006	ff 75 0c	 push	 DWORD PTR _val$[ebp]
  00009	ff 75 08	 push	 DWORD PTR _pszName$[ebp]
  0000c	e8 00 00 00 00	 call	 ?SetLongLongAttribute@TiXmlElement@@QAEXPBD_J@Z ; TiXmlElement::SetLongLongAttribute
  00011	5d		 pop	 ebp
  00012	c2 0c 00	 ret	 12			; 0000000cH
?addAttr@i3XMLElement@@QAEXPBD_K@Z ENDP			; i3XMLElement::addAttr
_TEXT	ENDS
; Function compile flags: /Ogtp
; File E:\Proyectos\JuegosOnlineproyectos\PB\pbblow\Piercing Blow Remake\i3Server\include\i3Base\i3XMLElement.h
;	COMDAT ?addAttr@i3XMLElement@@QAEXPBD_J@Z
_TEXT	SEGMENT
_pszName$ = 8						; size = 4
_val$ = 12						; size = 8
?addAttr@i3XMLElement@@QAEXPBD_J@Z PROC			; i3XMLElement::addAttr, COMDAT
; _this$ = ecx

; 18   : 	void		addAttr( const char * pszName, INT64 val)					{	SetLongLongAttribute( pszName, val); }

  00000	55		 push	 ebp
  00001	8b ec		 mov	 ebp, esp
  00003	ff 75 10	 push	 DWORD PTR _val$[ebp+4]
  00006	ff 75 0c	 push	 DWORD PTR _val$[ebp]
  00009	ff 75 08	 push	 DWORD PTR _pszName$[ebp]
  0000c	e8 00 00 00 00	 call	 ?SetLongLongAttribute@TiXmlElement@@QAEXPBD_J@Z ; TiXmlElement::SetLongLongAttribute
  00011	5d		 pop	 ebp
  00012	c2 0c 00	 ret	 12			; 0000000cH
?addAttr@i3XMLElement@@QAEXPBD_J@Z ENDP			; i3XMLElement::addAttr
_TEXT	ENDS
; Function compile flags: /Ogtp
; File E:\Proyectos\JuegosOnlineproyectos\PB\pbblow\Piercing Blow Remake\i3Server\include\i3Base\i3XMLElement.h
;	COMDAT ?addAttr@i3XMLElement@@QAEXPBDM@Z
_TEXT	SEGMENT
_pszName$ = 8						; size = 4
_val$ = 12						; size = 4
?addAttr@i3XMLElement@@QAEXPBDM@Z PROC			; i3XMLElement::addAttr, COMDAT
; _this$ = ecx

; 17   : 	void		addAttr( const char * pszName, REAL32 val)					{	SetAttribute( pszName, val); }

  00000	55		 push	 ebp
  00001	8b ec		 mov	 ebp, esp
  00003	d9 45 0c	 fld	 DWORD PTR _val$[ebp]
  00006	51		 push	 ecx
  00007	d9 1c 24	 fstp	 DWORD PTR [esp]
  0000a	ff 75 08	 push	 DWORD PTR _pszName$[ebp]
  0000d	e8 00 00 00 00	 call	 ?SetAttribute@TiXmlElement@@QAEXPBDM@Z ; TiXmlElement::SetAttribute
  00012	5d		 pop	 ebp
  00013	c2 08 00	 ret	 8
?addAttr@i3XMLElement@@QAEXPBDM@Z ENDP			; i3XMLElement::addAttr
_TEXT	ENDS
; Function compile flags: /Ogtp
; File E:\Proyectos\JuegosOnlineproyectos\PB\pbblow\Piercing Blow Remake\i3Server\include\i3Base\i3XMLElement.h
;	COMDAT ?addAttr@i3XMLElement@@QAEXPBDI@Z
_TEXT	SEGMENT
_pszName$ = 8						; size = 4
_val$ = 12						; size = 4
?addAttr@i3XMLElement@@QAEXPBDI@Z PROC			; i3XMLElement::addAttr, COMDAT
; _this$ = ecx

; 16   : 	void		addAttr( const char * pszName, UINT32 val)					{	SetAttribute( pszName, (INT32) val); }

  00000	55		 push	 ebp
  00001	8b ec		 mov	 ebp, esp
  00003	5d		 pop	 ebp
  00004	e9 00 00 00 00	 jmp	 ?SetAttribute@TiXmlElement@@QAEXPBDH@Z ; TiXmlElement::SetAttribute
?addAttr@i3XMLElement@@QAEXPBDI@Z ENDP			; i3XMLElement::addAttr
_TEXT	ENDS
; Function compile flags: /Ogtp
; File E:\Proyectos\JuegosOnlineproyectos\PB\pbblow\Piercing Blow Remake\i3Server\include\i3Base\i3XMLElement.h
;	COMDAT ?addAttr@i3XMLElement@@QAEXPBDH@Z
_TEXT	SEGMENT
_pszName$ = 8						; size = 4
_val$ = 12						; size = 4
?addAttr@i3XMLElement@@QAEXPBDH@Z PROC			; i3XMLElement::addAttr, COMDAT
; _this$ = ecx

; 15   : 	void		addAttr( const char * pszName, INT32 val)					{	SetAttribute( pszName, val); }

  00000	55		 push	 ebp
  00001	8b ec		 mov	 ebp, esp
  00003	5d		 pop	 ebp
  00004	e9 00 00 00 00	 jmp	 ?SetAttribute@TiXmlElement@@QAEXPBDH@Z ; TiXmlElement::SetAttribute
?addAttr@i3XMLElement@@QAEXPBDH@Z ENDP			; i3XMLElement::addAttr
_TEXT	ENDS
; Function compile flags: /Ogtp
; File E:\Proyectos\JuegosOnlineproyectos\PB\pbblow\Piercing Blow Remake\i3Server\include\i3Base\i3XMLElement.h
;	COMDAT ?addAttr@i3XMLElement@@QAEXPBD0@Z
_TEXT	SEGMENT
_pszName$ = 8						; size = 4
_pszStr$ = 12						; size = 4
?addAttr@i3XMLElement@@QAEXPBD0@Z PROC			; i3XMLElement::addAttr, COMDAT
; _this$ = ecx

; 14   : 	void		addAttr( const char * pszName, const char * pszStr)			{	SetAttribute( pszName, pszStr); }

  00000	55		 push	 ebp
  00001	8b ec		 mov	 ebp, esp
  00003	5d		 pop	 ebp
  00004	e9 00 00 00 00	 jmp	 ?SetAttribute@TiXmlElement@@QAEXPBD0@Z ; TiXmlElement::SetAttribute
?addAttr@i3XMLElement@@QAEXPBD0@Z ENDP			; i3XMLElement::addAttr
_TEXT	ENDS
; Function compile flags: /Ogtp
; File E:\Proyectos\JuegosOnlineproyectos\PB\pbblow\Piercing Blow Remake\i3Server\include\i3Base\tinystr.h
;	COMDAT ??_ETiXmlPrinter@@UAEPAXI@Z
_TEXT	SEGMENT
__$EHRec$ = -12						; size = 12
___flags$ = 8						; size = 4
??_ETiXmlPrinter@@UAEPAXI@Z PROC			; TiXmlPrinter::`vector deleting destructor', COMDAT
; _this$ = ecx
  00000	55		 push	 ebp
  00001	8b ec		 mov	 ebp, esp
  00003	6a ff		 push	 -1
  00005	68 00 00 00 00	 push	 __ehhandler$??_ETiXmlPrinter@@UAEPAXI@Z
  0000a	64 a1 00 00 00
	00		 mov	 eax, DWORD PTR fs:0
  00010	50		 push	 eax
  00011	53		 push	 ebx
  00012	56		 push	 esi
  00013	57		 push	 edi
  00014	a1 00 00 00 00	 mov	 eax, DWORD PTR ___security_cookie
  00019	33 c5		 xor	 eax, ebp
  0001b	50		 push	 eax
  0001c	8d 45 f4	 lea	 eax, DWORD PTR __$EHRec$[ebp]
  0001f	64 a3 00 00 00
	00		 mov	 DWORD PTR fs:0, eax
  00025	8b f1		 mov	 esi, ecx
  00027	8b 5d 08	 mov	 ebx, DWORD PTR ___flags$[ebp]
  0002a	f6 c3 02	 test	 bl, 2
  0002d	74 44		 je	 SHORT $LN2@vector
  0002f	68 00 00 00 00	 push	 OFFSET ??1TiXmlPrinter@@UAE@XZ
  00034	ff 76 fc	 push	 DWORD PTR [esi-4]
  00037	8d 7e fc	 lea	 edi, DWORD PTR [esi-4]
  0003a	6a 18		 push	 24			; 00000018H
  0003c	56		 push	 esi
  0003d	e8 00 00 00 00	 call	 ??_M@YGXPAXIIP6EX0@Z@Z
  00042	f6 c3 01	 test	 bl, 1
  00045	74 16		 je	 SHORT $LN3@vector
  00047	8b 0f		 mov	 ecx, DWORD PTR [edi]
  00049	8d 0c 49	 lea	 ecx, DWORD PTR [ecx+ecx*2]
  0004c	8d 0c cd 04 00
	00 00		 lea	 ecx, DWORD PTR [ecx*8+4]
  00053	51		 push	 ecx
  00054	57		 push	 edi
  00055	e8 00 00 00 00	 call	 ??_V@YAXPAXI@Z		; operator delete[]
  0005a	83 c4 08	 add	 esp, 8
$LN3@vector:
  0005d	8b c7		 mov	 eax, edi
  0005f	8b 4d f4	 mov	 ecx, DWORD PTR __$EHRec$[ebp]
  00062	64 89 0d 00 00
	00 00		 mov	 DWORD PTR fs:0, ecx
  00069	59		 pop	 ecx
  0006a	5f		 pop	 edi
  0006b	5e		 pop	 esi
  0006c	5b		 pop	 ebx
  0006d	8b e5		 mov	 esp, ebp
  0006f	5d		 pop	 ebp
  00070	c2 04 00	 ret	 4
$LN2@vector:

; 257  : 		if (rep_ != &nullrep_)

  00073	8b 46 14	 mov	 eax, DWORD PTR [esi+20]
  00076	3d 00 00 00 00	 cmp	 eax, OFFSET ?nullrep_@TiXmlString@@0URep@1@A ; TiXmlString::nullrep_
  0007b	74 09		 je	 SHORT $LN16@vector

; 258  : 		{
; 259  : 			// The rep_ is really an array of ints. (see the allocator, above).
; 260  : 			// Cast it back before delete, so the compiler won't incorrectly call destructors.
; 261  : 			delete [] ( reinterpret_cast<int*>( rep_ ) );

  0007d	50		 push	 eax
  0007e	e8 00 00 00 00	 call	 ??_V@YAXPAX@Z		; operator delete[]
  00083	83 c4 04	 add	 esp, 4
$LN16@vector:

; 257  : 		if (rep_ != &nullrep_)

  00086	8b 46 10	 mov	 eax, DWORD PTR [esi+16]
  00089	3d 00 00 00 00	 cmp	 eax, OFFSET ?nullrep_@TiXmlString@@0URep@1@A ; TiXmlString::nullrep_
  0008e	74 09		 je	 SHORT $LN22@vector

; 258  : 		{
; 259  : 			// The rep_ is really an array of ints. (see the allocator, above).
; 260  : 			// Cast it back before delete, so the compiler won't incorrectly call destructors.
; 261  : 			delete [] ( reinterpret_cast<int*>( rep_ ) );

  00090	50		 push	 eax
  00091	e8 00 00 00 00	 call	 ??_V@YAXPAX@Z		; operator delete[]
  00096	83 c4 04	 add	 esp, 4
$LN22@vector:

; 257  : 		if (rep_ != &nullrep_)

  00099	8b 46 0c	 mov	 eax, DWORD PTR [esi+12]
  0009c	3d 00 00 00 00	 cmp	 eax, OFFSET ?nullrep_@TiXmlString@@0URep@1@A ; TiXmlString::nullrep_
  000a1	74 09		 je	 SHORT $LN28@vector

; 258  : 		{
; 259  : 			// The rep_ is really an array of ints. (see the allocator, above).
; 260  : 			// Cast it back before delete, so the compiler won't incorrectly call destructors.
; 261  : 			delete [] ( reinterpret_cast<int*>( rep_ ) );

  000a3	50		 push	 eax
  000a4	e8 00 00 00 00	 call	 ??_V@YAXPAX@Z		; operator delete[]
  000a9	83 c4 04	 add	 esp, 4
$LN28@vector:
  000ac	c7 06 00 00 00
	00		 mov	 DWORD PTR [esi], OFFSET ??_7TiXmlVisitor@@6B@
  000b2	f6 c3 01	 test	 bl, 1
  000b5	74 0b		 je	 SHORT $LN4@vector
  000b7	6a 18		 push	 24			; 00000018H
  000b9	56		 push	 esi
  000ba	e8 00 00 00 00	 call	 ??3@YAXPAXI@Z		; operator delete
  000bf	83 c4 08	 add	 esp, 8
$LN4@vector:
  000c2	8b c6		 mov	 eax, esi
  000c4	8b 4d f4	 mov	 ecx, DWORD PTR __$EHRec$[ebp]
  000c7	64 89 0d 00 00
	00 00		 mov	 DWORD PTR fs:0, ecx
  000ce	59		 pop	 ecx
  000cf	5f		 pop	 edi
  000d0	5e		 pop	 esi
  000d1	5b		 pop	 ebx
  000d2	8b e5		 mov	 esp, ebp
  000d4	5d		 pop	 ebp
  000d5	c2 04 00	 ret	 4
  000d8	cc		 int	 3
  000d9	cc		 int	 3
  000da	cc		 int	 3
  000db	cc		 int	 3
  000dc	cc		 int	 3
_TEXT	ENDS
;	COMDAT text$x
text$x	SEGMENT
__ehhandler$??_ETiXmlPrinter@@UAEPAXI@Z:
  00000	90		 npad	 1
  00001	90		 npad	 1
  00002	8b 54 24 08	 mov	 edx, DWORD PTR [esp+8]
  00006	8d 42 0c	 lea	 eax, DWORD PTR [edx+12]
  00009	8b 4a f0	 mov	 ecx, DWORD PTR [edx-16]
  0000c	33 c8		 xor	 ecx, eax
  0000e	e8 00 00 00 00	 call	 @__security_check_cookie@4
  00013	b8 00 00 00 00	 mov	 eax, OFFSET __ehfuncinfo$??_ETiXmlPrinter@@UAEPAXI@Z
  00018	e9 00 00 00 00	 jmp	 ___CxxFrameHandler3
text$x	ENDS
??_ETiXmlPrinter@@UAEPAXI@Z ENDP			; TiXmlPrinter::`vector deleting destructor'
; Function compile flags: /Ogtp
; File E:\Proyectos\JuegosOnlineproyectos\PB\pbblow\Piercing Blow Remake\i3Server\include\i3Base\tinystr.h
;	COMDAT ??_GTiXmlPrinter@@UAEPAXI@Z
_TEXT	SEGMENT
___flags$ = 8						; size = 4
??_GTiXmlPrinter@@UAEPAXI@Z PROC			; TiXmlPrinter::`scalar deleting destructor', COMDAT
; _this$ = ecx
  00000	55		 push	 ebp
  00001	8b ec		 mov	 ebp, esp

; 257  : 		if (rep_ != &nullrep_)

  00003	56		 push	 esi
  00004	8b f1		 mov	 esi, ecx
  00006	8b 46 14	 mov	 eax, DWORD PTR [esi+20]
  00009	3d 00 00 00 00	 cmp	 eax, OFFSET ?nullrep_@TiXmlString@@0URep@1@A ; TiXmlString::nullrep_
  0000e	74 09		 je	 SHORT $LN14@scalar

; 258  : 		{
; 259  : 			// The rep_ is really an array of ints. (see the allocator, above).
; 260  : 			// Cast it back before delete, so the compiler won't incorrectly call destructors.
; 261  : 			delete [] ( reinterpret_cast<int*>( rep_ ) );

  00010	50		 push	 eax
  00011	e8 00 00 00 00	 call	 ??_V@YAXPAX@Z		; operator delete[]
  00016	83 c4 04	 add	 esp, 4
$LN14@scalar:

; 257  : 		if (rep_ != &nullrep_)

  00019	8b 46 10	 mov	 eax, DWORD PTR [esi+16]
  0001c	3d 00 00 00 00	 cmp	 eax, OFFSET ?nullrep_@TiXmlString@@0URep@1@A ; TiXmlString::nullrep_
  00021	74 09		 je	 SHORT $LN20@scalar

; 258  : 		{
; 259  : 			// The rep_ is really an array of ints. (see the allocator, above).
; 260  : 			// Cast it back before delete, so the compiler won't incorrectly call destructors.
; 261  : 			delete [] ( reinterpret_cast<int*>( rep_ ) );

  00023	50		 push	 eax
  00024	e8 00 00 00 00	 call	 ??_V@YAXPAX@Z		; operator delete[]
  00029	83 c4 04	 add	 esp, 4
$LN20@scalar:

; 257  : 		if (rep_ != &nullrep_)

  0002c	8b 46 0c	 mov	 eax, DWORD PTR [esi+12]
  0002f	3d 00 00 00 00	 cmp	 eax, OFFSET ?nullrep_@TiXmlString@@0URep@1@A ; TiXmlString::nullrep_
  00034	74 09		 je	 SHORT $LN26@scalar

; 258  : 		{
; 259  : 			// The rep_ is really an array of ints. (see the allocator, above).
; 260  : 			// Cast it back before delete, so the compiler won't incorrectly call destructors.
; 261  : 			delete [] ( reinterpret_cast<int*>( rep_ ) );

  00036	50		 push	 eax
  00037	e8 00 00 00 00	 call	 ??_V@YAXPAX@Z		; operator delete[]
  0003c	83 c4 04	 add	 esp, 4
$LN26@scalar:
  0003f	f6 45 08 01	 test	 BYTE PTR ___flags$[ebp], 1
  00043	c7 06 00 00 00
	00		 mov	 DWORD PTR [esi], OFFSET ??_7TiXmlVisitor@@6B@
  00049	74 0b		 je	 SHORT $LN28@scalar
  0004b	6a 18		 push	 24			; 00000018H
  0004d	56		 push	 esi
  0004e	e8 00 00 00 00	 call	 ??3@YAXPAXI@Z		; operator delete
  00053	83 c4 08	 add	 esp, 8
$LN28@scalar:
  00056	8b c6		 mov	 eax, esi
  00058	5e		 pop	 esi
  00059	5d		 pop	 ebp
  0005a	c2 04 00	 ret	 4
??_GTiXmlPrinter@@UAEPAXI@Z ENDP			; TiXmlPrinter::`scalar deleting destructor'
_TEXT	ENDS
; Function compile flags: /Ogtp
; File E:\Proyectos\JuegosOnlineproyectos\PB\pbblow\Piercing Blow Remake\i3Server\include\i3Base\tinystr.h
;	COMDAT ??4TiXmlPrinter@@QAEAAV0@$$QAV0@@Z
_TEXT	SEGMENT
___that$ = 8						; size = 4
??4TiXmlPrinter@@QAEAAV0@$$QAV0@@Z PROC			; TiXmlPrinter::operator=, COMDAT
; _this$ = ecx
  00000	55		 push	 ebp
  00001	8b ec		 mov	 ebp, esp

; 150  : 	size_type length () const { return rep_->size; }

  00003	56		 push	 esi
  00004	8b 75 08	 mov	 esi, DWORD PTR ___that$[ebp]
  00007	57		 push	 edi
  00008	8b f9		 mov	 edi, ecx
  0000a	8b 46 04	 mov	 eax, DWORD PTR [esi+4]
  0000d	89 47 04	 mov	 DWORD PTR [edi+4], eax
  00010	8d 4f 0c	 lea	 ecx, DWORD PTR [edi+12]
  00013	8a 46 08	 mov	 al, BYTE PTR [esi+8]
  00016	88 47 08	 mov	 BYTE PTR [edi+8], al
  00019	8b 46 0c	 mov	 eax, DWORD PTR [esi+12]

; 120  : 		return assign(copy.start(), copy.length());

  0001c	ff 30		 push	 DWORD PTR [eax]

; 224  : 	char* start() const { return rep_->str; }

  0001e	83 c0 08	 add	 eax, 8

; 120  : 		return assign(copy.start(), copy.length());

  00021	50		 push	 eax
  00022	e8 00 00 00 00	 call	 ?assign@TiXmlString@@QAEAAV1@PBDI@Z ; TiXmlString::assign

; 150  : 	size_type length () const { return rep_->size; }

  00027	8b 46 10	 mov	 eax, DWORD PTR [esi+16]
  0002a	8d 4f 10	 lea	 ecx, DWORD PTR [edi+16]

; 120  : 		return assign(copy.start(), copy.length());

  0002d	ff 30		 push	 DWORD PTR [eax]

; 224  : 	char* start() const { return rep_->str; }

  0002f	83 c0 08	 add	 eax, 8

; 120  : 		return assign(copy.start(), copy.length());

  00032	50		 push	 eax
  00033	e8 00 00 00 00	 call	 ?assign@TiXmlString@@QAEAAV1@PBDI@Z ; TiXmlString::assign

; 150  : 	size_type length () const { return rep_->size; }

  00038	8b 46 14	 mov	 eax, DWORD PTR [esi+20]
  0003b	8d 4f 14	 lea	 ecx, DWORD PTR [edi+20]

; 120  : 		return assign(copy.start(), copy.length());

  0003e	ff 30		 push	 DWORD PTR [eax]

; 224  : 	char* start() const { return rep_->str; }

  00040	83 c0 08	 add	 eax, 8

; 120  : 		return assign(copy.start(), copy.length());

  00043	50		 push	 eax
  00044	e8 00 00 00 00	 call	 ?assign@TiXmlString@@QAEAAV1@PBDI@Z ; TiXmlString::assign
  00049	8b c7		 mov	 eax, edi
  0004b	5f		 pop	 edi
  0004c	5e		 pop	 esi
  0004d	5d		 pop	 ebp
  0004e	c2 04 00	 ret	 4
??4TiXmlPrinter@@QAEAAV0@$$QAV0@@Z ENDP			; TiXmlPrinter::operator=
_TEXT	ENDS
; Function compile flags: /Ogtp
; File E:\Proyectos\JuegosOnlineproyectos\PB\pbblow\Piercing Blow Remake\i3Server\include\i3Base\tinystr.h
;	COMDAT ??4TiXmlPrinter@@QAEAAV0@ABV0@@Z
_TEXT	SEGMENT
___that$ = 8						; size = 4
??4TiXmlPrinter@@QAEAAV0@ABV0@@Z PROC			; TiXmlPrinter::operator=, COMDAT
; _this$ = ecx
  00000	55		 push	 ebp
  00001	8b ec		 mov	 ebp, esp

; 150  : 	size_type length () const { return rep_->size; }

  00003	56		 push	 esi
  00004	8b 75 08	 mov	 esi, DWORD PTR ___that$[ebp]
  00007	57		 push	 edi
  00008	8b f9		 mov	 edi, ecx
  0000a	8b 46 04	 mov	 eax, DWORD PTR [esi+4]
  0000d	89 47 04	 mov	 DWORD PTR [edi+4], eax
  00010	8d 4f 0c	 lea	 ecx, DWORD PTR [edi+12]
  00013	8a 46 08	 mov	 al, BYTE PTR [esi+8]
  00016	88 47 08	 mov	 BYTE PTR [edi+8], al
  00019	8b 46 0c	 mov	 eax, DWORD PTR [esi+12]

; 120  : 		return assign(copy.start(), copy.length());

  0001c	ff 30		 push	 DWORD PTR [eax]

; 224  : 	char* start() const { return rep_->str; }

  0001e	83 c0 08	 add	 eax, 8

; 120  : 		return assign(copy.start(), copy.length());

  00021	50		 push	 eax
  00022	e8 00 00 00 00	 call	 ?assign@TiXmlString@@QAEAAV1@PBDI@Z ; TiXmlString::assign

; 150  : 	size_type length () const { return rep_->size; }

  00027	8b 46 10	 mov	 eax, DWORD PTR [esi+16]
  0002a	8d 4f 10	 lea	 ecx, DWORD PTR [edi+16]

; 120  : 		return assign(copy.start(), copy.length());

  0002d	ff 30		 push	 DWORD PTR [eax]

; 224  : 	char* start() const { return rep_->str; }

  0002f	83 c0 08	 add	 eax, 8

; 120  : 		return assign(copy.start(), copy.length());

  00032	50		 push	 eax
  00033	e8 00 00 00 00	 call	 ?assign@TiXmlString@@QAEAAV1@PBDI@Z ; TiXmlString::assign

; 150  : 	size_type length () const { return rep_->size; }

  00038	8b 46 14	 mov	 eax, DWORD PTR [esi+20]
  0003b	8d 4f 14	 lea	 ecx, DWORD PTR [edi+20]

; 120  : 		return assign(copy.start(), copy.length());

  0003e	ff 30		 push	 DWORD PTR [eax]

; 224  : 	char* start() const { return rep_->str; }

  00040	83 c0 08	 add	 eax, 8

; 120  : 		return assign(copy.start(), copy.length());

  00043	50		 push	 eax
  00044	e8 00 00 00 00	 call	 ?assign@TiXmlString@@QAEAAV1@PBDI@Z ; TiXmlString::assign
  00049	8b c7		 mov	 eax, edi
  0004b	5f		 pop	 edi
  0004c	5e		 pop	 esi
  0004d	5d		 pop	 ebp
  0004e	c2 04 00	 ret	 4
??4TiXmlPrinter@@QAEAAV0@ABV0@@Z ENDP			; TiXmlPrinter::operator=
_TEXT	ENDS
; Function compile flags: /Ogtp
;	COMDAT ??0TiXmlPrinter@@QAE@$$QAV0@@Z
_TEXT	SEGMENT
_this$ = -16						; size = 4
__$EHRec$ = -12						; size = 12
___that$ = 8						; size = 4
??0TiXmlPrinter@@QAE@$$QAV0@@Z PROC			; TiXmlPrinter::TiXmlPrinter, COMDAT
; _this$ = ecx
  00000	55		 push	 ebp
  00001	8b ec		 mov	 ebp, esp
  00003	6a ff		 push	 -1
  00005	68 00 00 00 00	 push	 __ehhandler$??0TiXmlPrinter@@QAE@$$QAV0@@Z
  0000a	64 a1 00 00 00
	00		 mov	 eax, DWORD PTR fs:0
  00010	50		 push	 eax
  00011	51		 push	 ecx
  00012	56		 push	 esi
  00013	57		 push	 edi
  00014	a1 00 00 00 00	 mov	 eax, DWORD PTR ___security_cookie
  00019	33 c5		 xor	 eax, ebp
  0001b	50		 push	 eax
  0001c	8d 45 f4	 lea	 eax, DWORD PTR __$EHRec$[ebp]
  0001f	64 a3 00 00 00
	00		 mov	 DWORD PTR fs:0, eax
  00025	8b f9		 mov	 edi, ecx
  00027	89 7d f0	 mov	 DWORD PTR _this$[ebp], edi
  0002a	8b 75 08	 mov	 esi, DWORD PTR ___that$[ebp]
  0002d	8d 4f 0c	 lea	 ecx, DWORD PTR [edi+12]
  00030	c7 07 00 00 00
	00		 mov	 DWORD PTR [edi], OFFSET ??_7TiXmlPrinter@@6B@
  00036	c7 45 fc 00 00
	00 00		 mov	 DWORD PTR __$EHRec$[ebp+8], 0
  0003d	8b 46 04	 mov	 eax, DWORD PTR [esi+4]
  00040	89 47 04	 mov	 DWORD PTR [edi+4], eax
  00043	8a 46 08	 mov	 al, BYTE PTR [esi+8]
  00046	88 47 08	 mov	 BYTE PTR [edi+8], al
  00049	8d 46 0c	 lea	 eax, DWORD PTR [esi+12]
  0004c	50		 push	 eax
  0004d	e8 00 00 00 00	 call	 ??0TiXmlString@@QAE@ABV0@@Z ; TiXmlString::TiXmlString
  00052	8d 46 10	 lea	 eax, DWORD PTR [esi+16]
  00055	c6 45 fc 01	 mov	 BYTE PTR __$EHRec$[ebp+8], 1
  00059	50		 push	 eax
  0005a	8d 4f 10	 lea	 ecx, DWORD PTR [edi+16]
  0005d	e8 00 00 00 00	 call	 ??0TiXmlString@@QAE@ABV0@@Z ; TiXmlString::TiXmlString
  00062	8d 46 14	 lea	 eax, DWORD PTR [esi+20]
  00065	c6 45 fc 02	 mov	 BYTE PTR __$EHRec$[ebp+8], 2
  00069	50		 push	 eax
  0006a	8d 4f 14	 lea	 ecx, DWORD PTR [edi+20]
  0006d	e8 00 00 00 00	 call	 ??0TiXmlString@@QAE@ABV0@@Z ; TiXmlString::TiXmlString
  00072	8b c7		 mov	 eax, edi
  00074	8b 4d f4	 mov	 ecx, DWORD PTR __$EHRec$[ebp]
  00077	64 89 0d 00 00
	00 00		 mov	 DWORD PTR fs:0, ecx
  0007e	59		 pop	 ecx
  0007f	5f		 pop	 edi
  00080	5e		 pop	 esi
  00081	8b e5		 mov	 esp, ebp
  00083	5d		 pop	 ebp
  00084	c2 04 00	 ret	 4
_TEXT	ENDS
;	COMDAT text$x
text$x	SEGMENT
__unwindfunclet$??0TiXmlPrinter@@QAE@$$QAV0@@Z$0:
  00000	8b 4d f0	 mov	 ecx, DWORD PTR _this$[ebp]
  00003	e9 00 00 00 00	 jmp	 ??1TiXmlVisitor@@UAE@XZ	; TiXmlVisitor::~TiXmlVisitor
__unwindfunclet$??0TiXmlPrinter@@QAE@$$QAV0@@Z$1:
  00008	8b 4d f0	 mov	 ecx, DWORD PTR _this$[ebp]
  0000b	83 c1 0c	 add	 ecx, 12			; 0000000cH
  0000e	e9 00 00 00 00	 jmp	 ??1TiXmlString@@QAE@XZ	; TiXmlString::~TiXmlString
__unwindfunclet$??0TiXmlPrinter@@QAE@$$QAV0@@Z$2:
  00013	8b 4d f0	 mov	 ecx, DWORD PTR _this$[ebp]
  00016	83 c1 10	 add	 ecx, 16			; 00000010H
  00019	e9 00 00 00 00	 jmp	 ??1TiXmlString@@QAE@XZ	; TiXmlString::~TiXmlString
  0001e	cc		 int	 3
  0001f	cc		 int	 3
  00020	cc		 int	 3
  00021	cc		 int	 3
  00022	cc		 int	 3
__ehhandler$??0TiXmlPrinter@@QAE@$$QAV0@@Z:
  00023	90		 npad	 1
  00024	90		 npad	 1
  00025	8b 54 24 08	 mov	 edx, DWORD PTR [esp+8]
  00029	8d 42 0c	 lea	 eax, DWORD PTR [edx+12]
  0002c	8b 4a f0	 mov	 ecx, DWORD PTR [edx-16]
  0002f	33 c8		 xor	 ecx, eax
  00031	e8 00 00 00 00	 call	 @__security_check_cookie@4
  00036	b8 00 00 00 00	 mov	 eax, OFFSET __ehfuncinfo$??0TiXmlPrinter@@QAE@$$QAV0@@Z
  0003b	e9 00 00 00 00	 jmp	 ___CxxFrameHandler3
text$x	ENDS
??0TiXmlPrinter@@QAE@$$QAV0@@Z ENDP			; TiXmlPrinter::TiXmlPrinter
; Function compile flags: /Ogtp
;	COMDAT ??0TiXmlPrinter@@QAE@ABV0@@Z
_TEXT	SEGMENT
_this$ = -16						; size = 4
__$EHRec$ = -12						; size = 12
___that$ = 8						; size = 4
??0TiXmlPrinter@@QAE@ABV0@@Z PROC			; TiXmlPrinter::TiXmlPrinter, COMDAT
; _this$ = ecx
  00000	55		 push	 ebp
  00001	8b ec		 mov	 ebp, esp
  00003	6a ff		 push	 -1
  00005	68 00 00 00 00	 push	 __ehhandler$??0TiXmlPrinter@@QAE@ABV0@@Z
  0000a	64 a1 00 00 00
	00		 mov	 eax, DWORD PTR fs:0
  00010	50		 push	 eax
  00011	51		 push	 ecx
  00012	56		 push	 esi
  00013	57		 push	 edi
  00014	a1 00 00 00 00	 mov	 eax, DWORD PTR ___security_cookie
  00019	33 c5		 xor	 eax, ebp
  0001b	50		 push	 eax
  0001c	8d 45 f4	 lea	 eax, DWORD PTR __$EHRec$[ebp]
  0001f	64 a3 00 00 00
	00		 mov	 DWORD PTR fs:0, eax
  00025	8b f9		 mov	 edi, ecx
  00027	89 7d f0	 mov	 DWORD PTR _this$[ebp], edi
  0002a	8b 75 08	 mov	 esi, DWORD PTR ___that$[ebp]
  0002d	8d 4f 0c	 lea	 ecx, DWORD PTR [edi+12]
  00030	c7 07 00 00 00
	00		 mov	 DWORD PTR [edi], OFFSET ??_7TiXmlPrinter@@6B@
  00036	c7 45 fc 00 00
	00 00		 mov	 DWORD PTR __$EHRec$[ebp+8], 0
  0003d	8b 46 04	 mov	 eax, DWORD PTR [esi+4]
  00040	89 47 04	 mov	 DWORD PTR [edi+4], eax
  00043	8a 46 08	 mov	 al, BYTE PTR [esi+8]
  00046	88 47 08	 mov	 BYTE PTR [edi+8], al
  00049	8d 46 0c	 lea	 eax, DWORD PTR [esi+12]
  0004c	50		 push	 eax
  0004d	e8 00 00 00 00	 call	 ??0TiXmlString@@QAE@ABV0@@Z ; TiXmlString::TiXmlString
  00052	8d 46 10	 lea	 eax, DWORD PTR [esi+16]
  00055	c6 45 fc 01	 mov	 BYTE PTR __$EHRec$[ebp+8], 1
  00059	50		 push	 eax
  0005a	8d 4f 10	 lea	 ecx, DWORD PTR [edi+16]
  0005d	e8 00 00 00 00	 call	 ??0TiXmlString@@QAE@ABV0@@Z ; TiXmlString::TiXmlString
  00062	8d 46 14	 lea	 eax, DWORD PTR [esi+20]
  00065	c6 45 fc 02	 mov	 BYTE PTR __$EHRec$[ebp+8], 2
  00069	50		 push	 eax
  0006a	8d 4f 14	 lea	 ecx, DWORD PTR [edi+20]
  0006d	e8 00 00 00 00	 call	 ??0TiXmlString@@QAE@ABV0@@Z ; TiXmlString::TiXmlString
  00072	8b c7		 mov	 eax, edi
  00074	8b 4d f4	 mov	 ecx, DWORD PTR __$EHRec$[ebp]
  00077	64 89 0d 00 00
	00 00		 mov	 DWORD PTR fs:0, ecx
  0007e	59		 pop	 ecx
  0007f	5f		 pop	 edi
  00080	5e		 pop	 esi
  00081	8b e5		 mov	 esp, ebp
  00083	5d		 pop	 ebp
  00084	c2 04 00	 ret	 4
_TEXT	ENDS
;	COMDAT text$x
text$x	SEGMENT
__unwindfunclet$??0TiXmlPrinter@@QAE@ABV0@@Z$0:
  00000	8b 4d f0	 mov	 ecx, DWORD PTR _this$[ebp]
  00003	e9 00 00 00 00	 jmp	 ??1TiXmlVisitor@@UAE@XZ	; TiXmlVisitor::~TiXmlVisitor
__unwindfunclet$??0TiXmlPrinter@@QAE@ABV0@@Z$1:
  00008	8b 4d f0	 mov	 ecx, DWORD PTR _this$[ebp]
  0000b	83 c1 0c	 add	 ecx, 12			; 0000000cH
  0000e	e9 00 00 00 00	 jmp	 ??1TiXmlString@@QAE@XZ	; TiXmlString::~TiXmlString
__unwindfunclet$??0TiXmlPrinter@@QAE@ABV0@@Z$2:
  00013	8b 4d f0	 mov	 ecx, DWORD PTR _this$[ebp]
  00016	83 c1 10	 add	 ecx, 16			; 00000010H
  00019	e9 00 00 00 00	 jmp	 ??1TiXmlString@@QAE@XZ	; TiXmlString::~TiXmlString
  0001e	cc		 int	 3
  0001f	cc		 int	 3
  00020	cc		 int	 3
  00021	cc		 int	 3
  00022	cc		 int	 3
__ehhandler$??0TiXmlPrinter@@QAE@ABV0@@Z:
  00023	90		 npad	 1
  00024	90		 npad	 1
  00025	8b 54 24 08	 mov	 edx, DWORD PTR [esp+8]
  00029	8d 42 0c	 lea	 eax, DWORD PTR [edx+12]
  0002c	8b 4a f0	 mov	 ecx, DWORD PTR [edx-16]
  0002f	33 c8		 xor	 ecx, eax
  00031	e8 00 00 00 00	 call	 @__security_check_cookie@4
  00036	b8 00 00 00 00	 mov	 eax, OFFSET __ehfuncinfo$??0TiXmlPrinter@@QAE@ABV0@@Z
  0003b	e9 00 00 00 00	 jmp	 ___CxxFrameHandler3
text$x	ENDS
??0TiXmlPrinter@@QAE@ABV0@@Z ENDP			; TiXmlPrinter::TiXmlPrinter
; Function compile flags: /Ogtp
; File E:\Proyectos\JuegosOnlineproyectos\PB\pbblow\Piercing Blow Remake\i3Server\include\i3Base\tinystr.h
;	COMDAT ??1TiXmlPrinter@@UAE@XZ
_TEXT	SEGMENT
??1TiXmlPrinter@@UAE@XZ PROC				; TiXmlPrinter::~TiXmlPrinter, COMDAT
; _this$ = ecx

; 257  : 		if (rep_ != &nullrep_)

  00000	56		 push	 esi
  00001	8b f1		 mov	 esi, ecx
  00003	8b 46 14	 mov	 eax, DWORD PTR [esi+20]
  00006	3d 00 00 00 00	 cmp	 eax, OFFSET ?nullrep_@TiXmlString@@0URep@1@A ; TiXmlString::nullrep_
  0000b	74 09		 je	 SHORT $LN8@TiXmlPrint

; 258  : 		{
; 259  : 			// The rep_ is really an array of ints. (see the allocator, above).
; 260  : 			// Cast it back before delete, so the compiler won't incorrectly call destructors.
; 261  : 			delete [] ( reinterpret_cast<int*>( rep_ ) );

  0000d	50		 push	 eax
  0000e	e8 00 00 00 00	 call	 ??_V@YAXPAX@Z		; operator delete[]
  00013	83 c4 04	 add	 esp, 4
$LN8@TiXmlPrint:

; 257  : 		if (rep_ != &nullrep_)

  00016	8b 46 10	 mov	 eax, DWORD PTR [esi+16]
  00019	3d 00 00 00 00	 cmp	 eax, OFFSET ?nullrep_@TiXmlString@@0URep@1@A ; TiXmlString::nullrep_
  0001e	74 09		 je	 SHORT $LN14@TiXmlPrint

; 258  : 		{
; 259  : 			// The rep_ is really an array of ints. (see the allocator, above).
; 260  : 			// Cast it back before delete, so the compiler won't incorrectly call destructors.
; 261  : 			delete [] ( reinterpret_cast<int*>( rep_ ) );

  00020	50		 push	 eax
  00021	e8 00 00 00 00	 call	 ??_V@YAXPAX@Z		; operator delete[]
  00026	83 c4 04	 add	 esp, 4
$LN14@TiXmlPrint:

; 257  : 		if (rep_ != &nullrep_)

  00029	8b 46 0c	 mov	 eax, DWORD PTR [esi+12]
  0002c	3d 00 00 00 00	 cmp	 eax, OFFSET ?nullrep_@TiXmlString@@0URep@1@A ; TiXmlString::nullrep_
  00031	74 09		 je	 SHORT $LN22@TiXmlPrint

; 258  : 		{
; 259  : 			// The rep_ is really an array of ints. (see the allocator, above).
; 260  : 			// Cast it back before delete, so the compiler won't incorrectly call destructors.
; 261  : 			delete [] ( reinterpret_cast<int*>( rep_ ) );

  00033	50		 push	 eax
  00034	e8 00 00 00 00	 call	 ??_V@YAXPAX@Z		; operator delete[]
  00039	83 c4 04	 add	 esp, 4
$LN22@TiXmlPrint:
  0003c	c7 06 00 00 00
	00		 mov	 DWORD PTR [esi], OFFSET ??_7TiXmlVisitor@@6B@
  00042	5e		 pop	 esi
  00043	c3		 ret	 0
??1TiXmlPrinter@@UAE@XZ ENDP				; TiXmlPrinter::~TiXmlPrinter
_TEXT	ENDS
; Function compile flags: /Ogtp
; File E:\Proyectos\JuegosOnlineproyectos\PB\pbblow\Piercing Blow Remake\i3Server\include\i3Base\tinyxml.h
; File E:\Proyectos\JuegosOnlineproyectos\PB\pbblow\Piercing Blow Remake\i3Server\include\i3Base\tinystr.h
; File E:\Proyectos\JuegosOnlineproyectos\PB\pbblow\Piercing Blow Remake\i3Server\include\i3Base\tinyxml.h
; File E:\Proyectos\JuegosOnlineproyectos\PB\pbblow\Piercing Blow Remake\i3Server\include\i3Base\tinystr.h
; File E:\Proyectos\JuegosOnlineproyectos\PB\pbblow\Piercing Blow Remake\i3Server\include\i3Base\tinyxml.h
;	COMDAT ?DoLineBreak@TiXmlPrinter@@AAEXXZ
_TEXT	SEGMENT
?DoLineBreak@TiXmlPrinter@@AAEXXZ PROC			; TiXmlPrinter::DoLineBreak, COMDAT
; _this$ = ecx
; File E:\Proyectos\JuegosOnlineproyectos\PB\pbblow\Piercing Blow Remake\i3Server\include\i3Base\tinystr.h

; 150  : 	size_type length () const { return rep_->size; }

  00000	8b 41 14	 mov	 eax, DWORD PTR [ecx+20]
; File E:\Proyectos\JuegosOnlineproyectos\PB\pbblow\Piercing Blow Remake\i3Server\include\i3Base\tinyxml.h

; 1801 : 		buffer += lineBreak;

  00003	83 c1 0c	 add	 ecx, 12			; 0000000cH
; File E:\Proyectos\JuegosOnlineproyectos\PB\pbblow\Piercing Blow Remake\i3Server\include\i3Base\tinystr.h

; 139  : 		return append(suffix.data(), suffix.length());

  00006	ff 30		 push	 DWORD PTR [eax]

; 147  : 	const char * data () const { return rep_->str; }

  00008	83 c0 08	 add	 eax, 8

; 139  : 		return append(suffix.data(), suffix.length());

  0000b	50		 push	 eax
  0000c	e8 00 00 00 00	 call	 ?append@TiXmlString@@QAEAAV1@PBDI@Z ; TiXmlString::append
; File E:\Proyectos\JuegosOnlineproyectos\PB\pbblow\Piercing Blow Remake\i3Server\include\i3Base\tinyxml.h

; 1802 : 	}

  00011	c3		 ret	 0
?DoLineBreak@TiXmlPrinter@@AAEXXZ ENDP			; TiXmlPrinter::DoLineBreak
_TEXT	ENDS
; Function compile flags: /Ogtp
; File E:\Proyectos\JuegosOnlineproyectos\PB\pbblow\Piercing Blow Remake\i3Server\include\i3Base\tinyxml.h
; File E:\Proyectos\JuegosOnlineproyectos\PB\pbblow\Piercing Blow Remake\i3Server\include\i3Base\tinystr.h
; File E:\Proyectos\JuegosOnlineproyectos\PB\pbblow\Piercing Blow Remake\i3Server\include\i3Base\tinyxml.h
;	COMDAT ?DoIndent@TiXmlPrinter@@AAEXXZ
_TEXT	SEGMENT
?DoIndent@TiXmlPrinter@@AAEXXZ PROC			; TiXmlPrinter::DoIndent, COMDAT
; _this$ = ecx

; 1796 : 	void DoIndent()	{

  00000	56		 push	 esi
  00001	57		 push	 edi
  00002	8b f9		 mov	 edi, ecx

; 1797 : 		for( int i=0; i<depth; ++i )

  00004	33 f6		 xor	 esi, esi
  00006	39 77 04	 cmp	 DWORD PTR [edi+4], esi
  00009	7e 1d		 jle	 SHORT $LN3@DoIndent
  0000b	53		 push	 ebx
  0000c	8d 64 24 00	 npad	 4
$LL4@DoIndent:
; File E:\Proyectos\JuegosOnlineproyectos\PB\pbblow\Piercing Blow Remake\i3Server\include\i3Base\tinystr.h

; 150  : 	size_type length () const { return rep_->size; }

  00010	8b 47 10	 mov	 eax, DWORD PTR [edi+16]

; 139  : 		return append(suffix.data(), suffix.length());

  00013	8d 4f 0c	 lea	 ecx, DWORD PTR [edi+12]
  00016	ff 30		 push	 DWORD PTR [eax]

; 147  : 	const char * data () const { return rep_->str; }

  00018	83 c0 08	 add	 eax, 8

; 139  : 		return append(suffix.data(), suffix.length());

  0001b	50		 push	 eax
  0001c	e8 00 00 00 00	 call	 ?append@TiXmlString@@QAEAAV1@PBDI@Z ; TiXmlString::append
; File E:\Proyectos\JuegosOnlineproyectos\PB\pbblow\Piercing Blow Remake\i3Server\include\i3Base\tinyxml.h

; 1797 : 		for( int i=0; i<depth; ++i )

  00021	46		 inc	 esi
  00022	3b 77 04	 cmp	 esi, DWORD PTR [edi+4]
  00025	7c e9		 jl	 SHORT $LL4@DoIndent
  00027	5b		 pop	 ebx
$LN3@DoIndent:
  00028	5f		 pop	 edi

; 1798 : 			buffer += indent;
; 1799 : 	}

  00029	5e		 pop	 esi
  0002a	c3		 ret	 0
?DoIndent@TiXmlPrinter@@AAEXXZ ENDP			; TiXmlPrinter::DoIndent
_TEXT	ENDS
; Function compile flags: /Ogtp
; File E:\Proyectos\JuegosOnlineproyectos\PB\pbblow\Piercing Blow Remake\i3Server\include\i3Base\tinyxml.h
; File E:\Proyectos\JuegosOnlineproyectos\PB\pbblow\Piercing Blow Remake\i3Server\include\i3Base\tinystr.h
; File E:\Proyectos\JuegosOnlineproyectos\PB\pbblow\Piercing Blow Remake\i3Server\include\i3Base\tinyxml.h
;	COMDAT ?Size@TiXmlPrinter@@QAEIXZ
_TEXT	SEGMENT
?Size@TiXmlPrinter@@QAEIXZ PROC				; TiXmlPrinter::Size, COMDAT
; _this$ = ecx
; File E:\Proyectos\JuegosOnlineproyectos\PB\pbblow\Piercing Blow Remake\i3Server\include\i3Base\tinystr.h

; 153  : 	size_type size () const { return rep_->size; }

  00000	8b 41 0c	 mov	 eax, DWORD PTR [ecx+12]
; File E:\Proyectos\JuegosOnlineproyectos\PB\pbblow\Piercing Blow Remake\i3Server\include\i3Base\tinyxml.h

; 1788 : 	size_t Size()									{ return buffer.size(); }

  00003	8b 00		 mov	 eax, DWORD PTR [eax]
  00005	c3		 ret	 0
?Size@TiXmlPrinter@@QAEIXZ ENDP				; TiXmlPrinter::Size
_TEXT	ENDS
; Function compile flags: /Ogtp
; File E:\Proyectos\JuegosOnlineproyectos\PB\pbblow\Piercing Blow Remake\i3Server\include\i3Base\tinyxml.h
; File E:\Proyectos\JuegosOnlineproyectos\PB\pbblow\Piercing Blow Remake\i3Server\include\i3Base\tinystr.h
; File E:\Proyectos\JuegosOnlineproyectos\PB\pbblow\Piercing Blow Remake\i3Server\include\i3Base\tinyxml.h
;	COMDAT ?CStr@TiXmlPrinter@@QAEPBDXZ
_TEXT	SEGMENT
?CStr@TiXmlPrinter@@QAEPBDXZ PROC			; TiXmlPrinter::CStr, COMDAT
; _this$ = ecx
; File E:\Proyectos\JuegosOnlineproyectos\PB\pbblow\Piercing Blow Remake\i3Server\include\i3Base\tinystr.h

; 144  : 	const char * c_str () const { return rep_->str; }

  00000	8b 41 0c	 mov	 eax, DWORD PTR [ecx+12]
  00003	83 c0 08	 add	 eax, 8
; File E:\Proyectos\JuegosOnlineproyectos\PB\pbblow\Piercing Blow Remake\i3Server\include\i3Base\tinyxml.h

; 1786 : 	const char* CStr()								{ return buffer.c_str(); }

  00006	c3		 ret	 0
?CStr@TiXmlPrinter@@QAEPBDXZ ENDP			; TiXmlPrinter::CStr
_TEXT	ENDS
; Function compile flags: /Ogtp
; File E:\Proyectos\JuegosOnlineproyectos\PB\pbblow\Piercing Blow Remake\i3Server\include\i3Base\tinyxml.h
; File E:\Proyectos\JuegosOnlineproyectos\PB\pbblow\Piercing Blow Remake\i3Server\include\i3Base\tinystr.h
; File E:\Proyectos\JuegosOnlineproyectos\PB\pbblow\Piercing Blow Remake\i3Server\include\i3Base\tinyxml.h
; File E:\Proyectos\JuegosOnlineproyectos\PB\pbblow\Piercing Blow Remake\i3Server\include\i3Base\tinystr.h
; File E:\Proyectos\JuegosOnlineproyectos\PB\pbblow\Piercing Blow Remake\i3Server\include\i3Base\tinyxml.h
; File E:\Proyectos\JuegosOnlineproyectos\PB\pbblow\Piercing Blow Remake\i3Server\include\i3Base\tinystr.h
; File E:\Proyectos\JuegosOnlineproyectos\PB\pbblow\Piercing Blow Remake\i3Server\include\i3Base\tinyxml.h
;	COMDAT ?SetStreamPrinting@TiXmlPrinter@@QAEXXZ
_TEXT	SEGMENT
?SetStreamPrinting@TiXmlPrinter@@QAEXXZ PROC		; TiXmlPrinter::SetStreamPrinting, COMDAT
; _this$ = ecx

; 1782 : 	void SetStreamPrinting()						{ indent = "";

  00000	56		 push	 esi
  00001	8b f1		 mov	 esi, ecx
; File E:\Proyectos\JuegosOnlineproyectos\PB\pbblow\Piercing Blow Remake\i3Server\include\i3Base\tinystr.h

; 114  : 		return assign( copy, (size_type)strlen(copy));

  00003	6a 00		 push	 0
  00005	68 00 00 00 00	 push	 OFFSET ??_C@_00CNPNBAHC@@
; File E:\Proyectos\JuegosOnlineproyectos\PB\pbblow\Piercing Blow Remake\i3Server\include\i3Base\tinyxml.h

; 1782 : 	void SetStreamPrinting()						{ indent = "";

  0000a	8d 4e 10	 lea	 ecx, DWORD PTR [esi+16]
; File E:\Proyectos\JuegosOnlineproyectos\PB\pbblow\Piercing Blow Remake\i3Server\include\i3Base\tinystr.h

; 114  : 		return assign( copy, (size_type)strlen(copy));

  0000d	e8 00 00 00 00	 call	 ?assign@TiXmlString@@QAEAAV1@PBDI@Z ; TiXmlString::assign
  00012	6a 00		 push	 0
  00014	68 00 00 00 00	 push	 OFFSET ??_C@_00CNPNBAHC@@
; File E:\Proyectos\JuegosOnlineproyectos\PB\pbblow\Piercing Blow Remake\i3Server\include\i3Base\tinyxml.h

; 1783 : 													  lineBreak = "";

  00019	8d 4e 14	 lea	 ecx, DWORD PTR [esi+20]
; File E:\Proyectos\JuegosOnlineproyectos\PB\pbblow\Piercing Blow Remake\i3Server\include\i3Base\tinystr.h

; 114  : 		return assign( copy, (size_type)strlen(copy));

  0001c	e8 00 00 00 00	 call	 ?assign@TiXmlString@@QAEAAV1@PBDI@Z ; TiXmlString::assign
  00021	5e		 pop	 esi
; File E:\Proyectos\JuegosOnlineproyectos\PB\pbblow\Piercing Blow Remake\i3Server\include\i3Base\tinyxml.h

; 1784 : 													}	

  00022	c3		 ret	 0
?SetStreamPrinting@TiXmlPrinter@@QAEXXZ ENDP		; TiXmlPrinter::SetStreamPrinting
_TEXT	ENDS
; Function compile flags: /Ogtp
; File E:\Proyectos\JuegosOnlineproyectos\PB\pbblow\Piercing Blow Remake\i3Server\include\i3Base\tinyxml.h
; File E:\Proyectos\JuegosOnlineproyectos\PB\pbblow\Piercing Blow Remake\i3Server\include\i3Base\tinystr.h
; File E:\Proyectos\JuegosOnlineproyectos\PB\pbblow\Piercing Blow Remake\i3Server\include\i3Base\tinyxml.h
;	COMDAT ?LineBreak@TiXmlPrinter@@QAEPBDXZ
_TEXT	SEGMENT
?LineBreak@TiXmlPrinter@@QAEPBDXZ PROC			; TiXmlPrinter::LineBreak, COMDAT
; _this$ = ecx
; File E:\Proyectos\JuegosOnlineproyectos\PB\pbblow\Piercing Blow Remake\i3Server\include\i3Base\tinystr.h

; 144  : 	const char * c_str () const { return rep_->str; }

  00000	8b 41 14	 mov	 eax, DWORD PTR [ecx+20]
  00003	83 c0 08	 add	 eax, 8
; File E:\Proyectos\JuegosOnlineproyectos\PB\pbblow\Piercing Blow Remake\i3Server\include\i3Base\tinyxml.h

; 1777 : 	const char* LineBreak()							{ return lineBreak.c_str(); }

  00006	c3		 ret	 0
?LineBreak@TiXmlPrinter@@QAEPBDXZ ENDP			; TiXmlPrinter::LineBreak
_TEXT	ENDS
; Function compile flags: /Ogtp
; File E:\Proyectos\JuegosOnlineproyectos\PB\pbblow\Piercing Blow Remake\i3Server\include\i3Base\tinyxml.h
; File E:\Proyectos\JuegosOnlineproyectos\PB\pbblow\Piercing Blow Remake\i3Server\include\i3Base\tinystr.h
; File E:\Proyectos\JuegosOnlineproyectos\PB\pbblow\Piercing Blow Remake\i3Server\include\i3Base\tinyxml.h
; File E:\Proyectos\JuegosOnlineproyectos\PB\pbblow\Piercing Blow Remake\i3Server\include\i3Base\tinystr.h
; File E:\Proyectos\JuegosOnlineproyectos\PB\pbblow\Piercing Blow Remake\i3Server\include\i3Base\tinyxml.h
; File E:\Proyectos\JuegosOnlineproyectos\PB\pbblow\Piercing Blow Remake\i3Server\include\i3Base\tinystr.h
; File E:\Proyectos\JuegosOnlineproyectos\PB\pbblow\Piercing Blow Remake\i3Server\include\i3Base\tinyxml.h
;	COMDAT ?SetLineBreak@TiXmlPrinter@@QAEXPBD@Z
_TEXT	SEGMENT
__lineBreak$ = 8					; size = 4
?SetLineBreak@TiXmlPrinter@@QAEXPBD@Z PROC		; TiXmlPrinter::SetLineBreak, COMDAT
; _this$ = ecx

; 1775 : 	void SetLineBreak( const char* _lineBreak )		{ lineBreak = _lineBreak ? _lineBreak : ""; }

  00000	55		 push	 ebp
  00001	8b ec		 mov	 ebp, esp
  00003	8b 45 08	 mov	 eax, DWORD PTR __lineBreak$[ebp]
  00006	ba 00 00 00 00	 mov	 edx, OFFSET ??_C@_00CNPNBAHC@@
  0000b	85 c0		 test	 eax, eax
  0000d	56		 push	 esi
  0000e	0f 45 d0	 cmovne	 edx, eax
  00011	8b f1		 mov	 esi, ecx
; File E:\Proyectos\JuegosOnlineproyectos\PB\pbblow\Piercing Blow Remake\i3Server\include\i3Base\tinystr.h

; 114  : 		return assign( copy, (size_type)strlen(copy));

  00013	8b c2		 mov	 eax, edx
; File E:\Proyectos\JuegosOnlineproyectos\PB\pbblow\Piercing Blow Remake\i3Server\include\i3Base\tinyxml.h

; 1775 : 	void SetLineBreak( const char* _lineBreak )		{ lineBreak = _lineBreak ? _lineBreak : ""; }

  00015	57		 push	 edi
; File E:\Proyectos\JuegosOnlineproyectos\PB\pbblow\Piercing Blow Remake\i3Server\include\i3Base\tinystr.h

; 114  : 		return assign( copy, (size_type)strlen(copy));

  00016	8d 78 01	 lea	 edi, DWORD PTR [eax+1]
  00019	8d a4 24 00 00
	00 00		 npad	 7
$LL5@SetLineBre:
  00020	8a 08		 mov	 cl, BYTE PTR [eax]
  00022	40		 inc	 eax
  00023	84 c9		 test	 cl, cl
  00025	75 f9		 jne	 SHORT $LL5@SetLineBre
  00027	2b c7		 sub	 eax, edi
; File E:\Proyectos\JuegosOnlineproyectos\PB\pbblow\Piercing Blow Remake\i3Server\include\i3Base\tinyxml.h

; 1775 : 	void SetLineBreak( const char* _lineBreak )		{ lineBreak = _lineBreak ? _lineBreak : ""; }

  00029	8d 4e 14	 lea	 ecx, DWORD PTR [esi+20]
; File E:\Proyectos\JuegosOnlineproyectos\PB\pbblow\Piercing Blow Remake\i3Server\include\i3Base\tinystr.h

; 114  : 		return assign( copy, (size_type)strlen(copy));

  0002c	50		 push	 eax
  0002d	52		 push	 edx
  0002e	e8 00 00 00 00	 call	 ?assign@TiXmlString@@QAEAAV1@PBDI@Z ; TiXmlString::assign
  00033	5f		 pop	 edi
  00034	5e		 pop	 esi
; File E:\Proyectos\JuegosOnlineproyectos\PB\pbblow\Piercing Blow Remake\i3Server\include\i3Base\tinyxml.h

; 1775 : 	void SetLineBreak( const char* _lineBreak )		{ lineBreak = _lineBreak ? _lineBreak : ""; }

  00035	5d		 pop	 ebp
  00036	c2 04 00	 ret	 4
?SetLineBreak@TiXmlPrinter@@QAEXPBD@Z ENDP		; TiXmlPrinter::SetLineBreak
_TEXT	ENDS
; Function compile flags: /Ogtp
; File E:\Proyectos\JuegosOnlineproyectos\PB\pbblow\Piercing Blow Remake\i3Server\include\i3Base\tinyxml.h
; File E:\Proyectos\JuegosOnlineproyectos\PB\pbblow\Piercing Blow Remake\i3Server\include\i3Base\tinystr.h
; File E:\Proyectos\JuegosOnlineproyectos\PB\pbblow\Piercing Blow Remake\i3Server\include\i3Base\tinyxml.h
;	COMDAT ?Indent@TiXmlPrinter@@QAEPBDXZ
_TEXT	SEGMENT
?Indent@TiXmlPrinter@@QAEPBDXZ PROC			; TiXmlPrinter::Indent, COMDAT
; _this$ = ecx
; File E:\Proyectos\JuegosOnlineproyectos\PB\pbblow\Piercing Blow Remake\i3Server\include\i3Base\tinystr.h

; 144  : 	const char * c_str () const { return rep_->str; }

  00000	8b 41 10	 mov	 eax, DWORD PTR [ecx+16]
  00003	83 c0 08	 add	 eax, 8
; File E:\Proyectos\JuegosOnlineproyectos\PB\pbblow\Piercing Blow Remake\i3Server\include\i3Base\tinyxml.h

; 1770 : 	const char* Indent()							{ return indent.c_str(); }

  00006	c3		 ret	 0
?Indent@TiXmlPrinter@@QAEPBDXZ ENDP			; TiXmlPrinter::Indent
_TEXT	ENDS
; Function compile flags: /Ogtp
; File E:\Proyectos\JuegosOnlineproyectos\PB\pbblow\Piercing Blow Remake\i3Server\include\i3Base\tinyxml.h
; File E:\Proyectos\JuegosOnlineproyectos\PB\pbblow\Piercing Blow Remake\i3Server\include\i3Base\tinystr.h
; File E:\Proyectos\JuegosOnlineproyectos\PB\pbblow\Piercing Blow Remake\i3Server\include\i3Base\tinyxml.h
; File E:\Proyectos\JuegosOnlineproyectos\PB\pbblow\Piercing Blow Remake\i3Server\include\i3Base\tinystr.h
; File E:\Proyectos\JuegosOnlineproyectos\PB\pbblow\Piercing Blow Remake\i3Server\include\i3Base\tinyxml.h
; File E:\Proyectos\JuegosOnlineproyectos\PB\pbblow\Piercing Blow Remake\i3Server\include\i3Base\tinystr.h
; File E:\Proyectos\JuegosOnlineproyectos\PB\pbblow\Piercing Blow Remake\i3Server\include\i3Base\tinyxml.h
;	COMDAT ?SetIndent@TiXmlPrinter@@QAEXPBD@Z
_TEXT	SEGMENT
__indent$ = 8						; size = 4
?SetIndent@TiXmlPrinter@@QAEXPBD@Z PROC			; TiXmlPrinter::SetIndent, COMDAT
; _this$ = ecx

; 1768 : 	void SetIndent( const char* _indent )			{ indent = _indent ? _indent : "" ; }

  00000	55		 push	 ebp
  00001	8b ec		 mov	 ebp, esp
  00003	8b 45 08	 mov	 eax, DWORD PTR __indent$[ebp]
  00006	ba 00 00 00 00	 mov	 edx, OFFSET ??_C@_00CNPNBAHC@@
  0000b	85 c0		 test	 eax, eax
  0000d	56		 push	 esi
  0000e	0f 45 d0	 cmovne	 edx, eax
  00011	8b f1		 mov	 esi, ecx
; File E:\Proyectos\JuegosOnlineproyectos\PB\pbblow\Piercing Blow Remake\i3Server\include\i3Base\tinystr.h

; 114  : 		return assign( copy, (size_type)strlen(copy));

  00013	8b c2		 mov	 eax, edx
; File E:\Proyectos\JuegosOnlineproyectos\PB\pbblow\Piercing Blow Remake\i3Server\include\i3Base\tinyxml.h

; 1768 : 	void SetIndent( const char* _indent )			{ indent = _indent ? _indent : "" ; }

  00015	57		 push	 edi
; File E:\Proyectos\JuegosOnlineproyectos\PB\pbblow\Piercing Blow Remake\i3Server\include\i3Base\tinystr.h

; 114  : 		return assign( copy, (size_type)strlen(copy));

  00016	8d 78 01	 lea	 edi, DWORD PTR [eax+1]
  00019	8d a4 24 00 00
	00 00		 npad	 7
$LL5@SetIndent:
  00020	8a 08		 mov	 cl, BYTE PTR [eax]
  00022	40		 inc	 eax
  00023	84 c9		 test	 cl, cl
  00025	75 f9		 jne	 SHORT $LL5@SetIndent
  00027	2b c7		 sub	 eax, edi
; File E:\Proyectos\JuegosOnlineproyectos\PB\pbblow\Piercing Blow Remake\i3Server\include\i3Base\tinyxml.h

; 1768 : 	void SetIndent( const char* _indent )			{ indent = _indent ? _indent : "" ; }

  00029	8d 4e 10	 lea	 ecx, DWORD PTR [esi+16]
; File E:\Proyectos\JuegosOnlineproyectos\PB\pbblow\Piercing Blow Remake\i3Server\include\i3Base\tinystr.h

; 114  : 		return assign( copy, (size_type)strlen(copy));

  0002c	50		 push	 eax
  0002d	52		 push	 edx
  0002e	e8 00 00 00 00	 call	 ?assign@TiXmlString@@QAEAAV1@PBDI@Z ; TiXmlString::assign
  00033	5f		 pop	 edi
  00034	5e		 pop	 esi
; File E:\Proyectos\JuegosOnlineproyectos\PB\pbblow\Piercing Blow Remake\i3Server\include\i3Base\tinyxml.h

; 1768 : 	void SetIndent( const char* _indent )			{ indent = _indent ? _indent : "" ; }

  00035	5d		 pop	 ebp
  00036	c2 04 00	 ret	 4
?SetIndent@TiXmlPrinter@@QAEXPBD@Z ENDP			; TiXmlPrinter::SetIndent
_TEXT	ENDS
; Function compile flags: /Ogtp
; File E:\Proyectos\JuegosOnlineproyectos\PB\pbblow\Piercing Blow Remake\i3Server\include\i3Base\tinyxml.h
; File E:\Proyectos\JuegosOnlineproyectos\PB\pbblow\Piercing Blow Remake\i3Server\include\i3Base\tinystr.h
; File E:\Proyectos\JuegosOnlineproyectos\PB\pbblow\Piercing Blow Remake\i3Server\include\i3Base\tinyxml.h
; File E:\Proyectos\JuegosOnlineproyectos\PB\pbblow\Piercing Blow Remake\i3Server\include\i3Base\tinystr.h
; File E:\Proyectos\JuegosOnlineproyectos\PB\pbblow\Piercing Blow Remake\i3Server\include\i3Base\tinyxml.h
; File E:\Proyectos\JuegosOnlineproyectos\PB\pbblow\Piercing Blow Remake\i3Server\include\i3Base\tinystr.h
; File E:\Proyectos\JuegosOnlineproyectos\PB\pbblow\Piercing Blow Remake\i3Server\include\i3Base\tinyxml.h
;	COMDAT ??0TiXmlPrinter@@QAE@XZ
_TEXT	SEGMENT
_this$ = -16						; size = 4
__$EHRec$ = -12						; size = 12
??0TiXmlPrinter@@QAE@XZ PROC				; TiXmlPrinter::TiXmlPrinter, COMDAT
; _this$ = ecx

; 1752 : 					 buffer(), indent( "    " ), lineBreak( "\n" ) {}

  00000	55		 push	 ebp
  00001	8b ec		 mov	 ebp, esp
  00003	6a ff		 push	 -1
  00005	68 00 00 00 00	 push	 __ehhandler$??0TiXmlPrinter@@QAE@XZ
  0000a	64 a1 00 00 00
	00		 mov	 eax, DWORD PTR fs:0
  00010	50		 push	 eax
  00011	51		 push	 ecx
  00012	56		 push	 esi
  00013	a1 00 00 00 00	 mov	 eax, DWORD PTR ___security_cookie
  00018	33 c5		 xor	 eax, ebp
  0001a	50		 push	 eax
  0001b	8d 45 f4	 lea	 eax, DWORD PTR __$EHRec$[ebp]
  0001e	64 a3 00 00 00
	00		 mov	 DWORD PTR fs:0, eax
  00024	8b f1		 mov	 esi, ecx
  00026	89 75 f0	 mov	 DWORD PTR _this$[ebp], esi
  00029	c7 06 00 00 00
	00		 mov	 DWORD PTR [esi], OFFSET ??_7TiXmlPrinter@@6B@
  0002f	c7 46 04 00 00
	00 00		 mov	 DWORD PTR [esi+4], 0
  00036	c6 46 08 00	 mov	 BYTE PTR [esi+8], 0
  0003a	c7 45 fc 00 00
	00 00		 mov	 DWORD PTR __$EHRec$[ebp+8], 0
; File E:\Proyectos\JuegosOnlineproyectos\PB\pbblow\Piercing Blow Remake\i3Server\include\i3Base\tinystr.h

; 80   : 	TiXmlString () : rep_(&nullrep_)

  00041	c7 46 0c 00 00
	00 00		 mov	 DWORD PTR [esi+12], OFFSET ?nullrep_@TiXmlString@@0URep@1@A ; TiXmlString::nullrep_

; 244  : 			rep_ = reinterpret_cast<Rep*>( new int[ intsNeeded ] );

  00048	6a 10		 push	 16			; 00000010H
; File E:\Proyectos\JuegosOnlineproyectos\PB\pbblow\Piercing Blow Remake\i3Server\include\i3Base\tinyxml.h

; 1752 : 					 buffer(), indent( "    " ), lineBreak( "\n" ) {}

  0004a	c6 45 fc 01	 mov	 BYTE PTR __$EHRec$[ebp+8], 1
; File E:\Proyectos\JuegosOnlineproyectos\PB\pbblow\Piercing Blow Remake\i3Server\include\i3Base\tinystr.h

; 92   : 	TIXML_EXPLICIT TiXmlString ( const char * copy) : rep_(0)

  0004e	c7 46 10 00 00
	00 00		 mov	 DWORD PTR [esi+16], 0

; 244  : 			rep_ = reinterpret_cast<Rep*>( new int[ intsNeeded ] );

  00055	e8 00 00 00 00	 call	 ??_U@YAPAXI@Z		; operator new[]
  0005a	89 46 10	 mov	 DWORD PTR [esi+16], eax

; 245  : 
; 246  : 			rep_->str[ rep_->size = sz ] = '\0';

  0005d	c7 00 04 00 00
	00		 mov	 DWORD PTR [eax], 4
  00063	8b 46 10	 mov	 eax, DWORD PTR [esi+16]
  00066	c6 40 0c 00	 mov	 BYTE PTR [eax+12], 0

; 247  : 			rep_->capacity = cap;

  0006a	8b 46 10	 mov	 eax, DWORD PTR [esi+16]
  0006d	c7 40 04 04 00
	00 00		 mov	 DWORD PTR [eax+4], 4

; 150  : 	size_type length () const { return rep_->size; }

  00074	8b 46 10	 mov	 eax, DWORD PTR [esi+16]

; 95   : 		memcpy(start(), copy, length());

  00077	ff 30		 push	 DWORD PTR [eax]

; 224  : 	char* start() const { return rep_->str; }

  00079	83 c0 08	 add	 eax, 8

; 95   : 		memcpy(start(), copy, length());

  0007c	68 00 00 00 00	 push	 OFFSET ??_C@_04PFOHOKJK@?5?5?5?5@
  00081	50		 push	 eax
  00082	e8 00 00 00 00	 call	 _memcpy

; 244  : 			rep_ = reinterpret_cast<Rep*>( new int[ intsNeeded ] );

  00087	6a 10		 push	 16			; 00000010H
; File E:\Proyectos\JuegosOnlineproyectos\PB\pbblow\Piercing Blow Remake\i3Server\include\i3Base\tinyxml.h

; 1752 : 					 buffer(), indent( "    " ), lineBreak( "\n" ) {}

  00089	c6 45 fc 02	 mov	 BYTE PTR __$EHRec$[ebp+8], 2
; File E:\Proyectos\JuegosOnlineproyectos\PB\pbblow\Piercing Blow Remake\i3Server\include\i3Base\tinystr.h

; 92   : 	TIXML_EXPLICIT TiXmlString ( const char * copy) : rep_(0)

  0008d	c7 46 14 00 00
	00 00		 mov	 DWORD PTR [esi+20], 0

; 244  : 			rep_ = reinterpret_cast<Rep*>( new int[ intsNeeded ] );

  00094	e8 00 00 00 00	 call	 ??_U@YAPAXI@Z		; operator new[]
  00099	89 46 14	 mov	 DWORD PTR [esi+20], eax

; 245  : 
; 246  : 			rep_->str[ rep_->size = sz ] = '\0';

  0009c	c7 00 01 00 00
	00		 mov	 DWORD PTR [eax], 1
  000a2	8b 46 14	 mov	 eax, DWORD PTR [esi+20]
  000a5	c6 40 09 00	 mov	 BYTE PTR [eax+9], 0

; 247  : 			rep_->capacity = cap;

  000a9	8b 46 14	 mov	 eax, DWORD PTR [esi+20]
  000ac	c7 40 04 01 00
	00 00		 mov	 DWORD PTR [eax+4], 1

; 150  : 	size_type length () const { return rep_->size; }

  000b3	8b 46 14	 mov	 eax, DWORD PTR [esi+20]

; 95   : 		memcpy(start(), copy, length());

  000b6	ff 30		 push	 DWORD PTR [eax]

; 224  : 	char* start() const { return rep_->str; }

  000b8	83 c0 08	 add	 eax, 8

; 95   : 		memcpy(start(), copy, length());

  000bb	68 00 00 00 00	 push	 OFFSET ??_C@_01EEMJAFIK@?6@
  000c0	50		 push	 eax
  000c1	e8 00 00 00 00	 call	 _memcpy
  000c6	83 c4 20	 add	 esp, 32			; 00000020H
; File E:\Proyectos\JuegosOnlineproyectos\PB\pbblow\Piercing Blow Remake\i3Server\include\i3Base\tinyxml.h

; 1752 : 					 buffer(), indent( "    " ), lineBreak( "\n" ) {}

  000c9	8b c6		 mov	 eax, esi
  000cb	8b 4d f4	 mov	 ecx, DWORD PTR __$EHRec$[ebp]
  000ce	64 89 0d 00 00
	00 00		 mov	 DWORD PTR fs:0, ecx
  000d5	59		 pop	 ecx
  000d6	5e		 pop	 esi
  000d7	8b e5		 mov	 esp, ebp
  000d9	5d		 pop	 ebp
  000da	c3		 ret	 0
_TEXT	ENDS
;	COMDAT text$x
text$x	SEGMENT
__unwindfunclet$??0TiXmlPrinter@@QAE@XZ$0:
  00000	8b 4d f0	 mov	 ecx, DWORD PTR _this$[ebp]
  00003	e9 00 00 00 00	 jmp	 ??1TiXmlVisitor@@UAE@XZ	; TiXmlVisitor::~TiXmlVisitor
__unwindfunclet$??0TiXmlPrinter@@QAE@XZ$1:
  00008	8b 4d f0	 mov	 ecx, DWORD PTR _this$[ebp]
  0000b	83 c1 0c	 add	 ecx, 12			; 0000000cH
  0000e	e9 00 00 00 00	 jmp	 ??1TiXmlString@@QAE@XZ	; TiXmlString::~TiXmlString
__unwindfunclet$??0TiXmlPrinter@@QAE@XZ$2:
  00013	8b 4d f0	 mov	 ecx, DWORD PTR _this$[ebp]
  00016	83 c1 10	 add	 ecx, 16			; 00000010H
  00019	e9 00 00 00 00	 jmp	 ??1TiXmlString@@QAE@XZ	; TiXmlString::~TiXmlString
  0001e	cc		 int	 3
  0001f	cc		 int	 3
  00020	cc		 int	 3
  00021	cc		 int	 3
  00022	cc		 int	 3
__ehhandler$??0TiXmlPrinter@@QAE@XZ:
  00023	90		 npad	 1
  00024	90		 npad	 1
  00025	8b 54 24 08	 mov	 edx, DWORD PTR [esp+8]
  00029	8d 42 0c	 lea	 eax, DWORD PTR [edx+12]
  0002c	8b 4a f4	 mov	 ecx, DWORD PTR [edx-12]
  0002f	33 c8		 xor	 ecx, eax
  00031	e8 00 00 00 00	 call	 @__security_check_cookie@4
  00036	b8 00 00 00 00	 mov	 eax, OFFSET __ehfuncinfo$??0TiXmlPrinter@@QAE@XZ
  0003b	e9 00 00 00 00	 jmp	 ___CxxFrameHandler3
text$x	ENDS
??0TiXmlPrinter@@QAE@XZ ENDP				; TiXmlPrinter::TiXmlPrinter
; Function compile flags: /Ogtp
; File E:\Proyectos\JuegosOnlineproyectos\PB\pbblow\Piercing Blow Remake\i3Server\include\i3Base\tinyxml.h
;	COMDAT ?Unknown@TiXmlHandle@@QBEPAVTiXmlUnknown@@XZ
_TEXT	SEGMENT
?Unknown@TiXmlHandle@@QBEPAVTiXmlUnknown@@XZ PROC	; TiXmlHandle::Unknown, COMDAT
; _this$ = ecx

; 1722 : 	TiXmlUnknown* Unknown() const	{ return ToUnknown(); }

  00000	56		 push	 esi
  00001	8b f1		 mov	 esi, ecx

; 1705 : 	TiXmlUnknown* ToUnknown() const		{ return ( ( node && node->ToUnknown() ) ? node->ToUnknown() : 0 ); }

  00003	8b 0e		 mov	 ecx, DWORD PTR [esi]
  00005	85 c9		 test	 ecx, ecx
  00007	74 11		 je	 SHORT $LN5@Unknown
  00009	8b 01		 mov	 eax, DWORD PTR [ecx]
  0000b	ff 50 24	 call	 DWORD PTR [eax+36]
  0000e	85 c0		 test	 eax, eax
  00010	74 08		 je	 SHORT $LN5@Unknown
  00012	8b 0e		 mov	 ecx, DWORD PTR [esi]
  00014	5e		 pop	 esi
  00015	8b 01		 mov	 eax, DWORD PTR [ecx]
  00017	ff 60 24	 jmp	 DWORD PTR [eax+36]
$LN5@Unknown:

; 1722 : 	TiXmlUnknown* Unknown() const	{ return ToUnknown(); }

  0001a	33 c0		 xor	 eax, eax
  0001c	5e		 pop	 esi
  0001d	c3		 ret	 0
?Unknown@TiXmlHandle@@QBEPAVTiXmlUnknown@@XZ ENDP	; TiXmlHandle::Unknown
_TEXT	ENDS
; Function compile flags: /Ogtp
; File E:\Proyectos\JuegosOnlineproyectos\PB\pbblow\Piercing Blow Remake\i3Server\include\i3Base\tinyxml.h
;	COMDAT ?Text@TiXmlHandle@@QBEPAVTiXmlText@@XZ
_TEXT	SEGMENT
?Text@TiXmlHandle@@QBEPAVTiXmlText@@XZ PROC		; TiXmlHandle::Text, COMDAT
; _this$ = ecx

; 1718 : 	TiXmlText* Text() const			{ return ToText(); }

  00000	56		 push	 esi
  00001	8b f1		 mov	 esi, ecx

; 1702 : 	TiXmlText* ToText() const			{ return ( ( node && node->ToText() ) ? node->ToText() : 0 ); }

  00003	8b 0e		 mov	 ecx, DWORD PTR [esi]
  00005	85 c9		 test	 ecx, ecx
  00007	74 11		 je	 SHORT $LN5@Text
  00009	8b 01		 mov	 eax, DWORD PTR [ecx]
  0000b	ff 50 2c	 call	 DWORD PTR [eax+44]
  0000e	85 c0		 test	 eax, eax
  00010	74 08		 je	 SHORT $LN5@Text
  00012	8b 0e		 mov	 ecx, DWORD PTR [esi]
  00014	5e		 pop	 esi
  00015	8b 01		 mov	 eax, DWORD PTR [ecx]
  00017	ff 60 2c	 jmp	 DWORD PTR [eax+44]
$LN5@Text:

; 1718 : 	TiXmlText* Text() const			{ return ToText(); }

  0001a	33 c0		 xor	 eax, eax
  0001c	5e		 pop	 esi
  0001d	c3		 ret	 0
?Text@TiXmlHandle@@QBEPAVTiXmlText@@XZ ENDP		; TiXmlHandle::Text
_TEXT	ENDS
; Function compile flags: /Ogtp
; File E:\Proyectos\JuegosOnlineproyectos\PB\pbblow\Piercing Blow Remake\i3Server\include\i3Base\tinyxml.h
;	COMDAT ?Element@TiXmlHandle@@QBEPAVTiXmlElement@@XZ
_TEXT	SEGMENT
?Element@TiXmlHandle@@QBEPAVTiXmlElement@@XZ PROC	; TiXmlHandle::Element, COMDAT
; _this$ = ecx

; 1714 : 	TiXmlElement* Element() const	{ return ToElement(); }

  00000	56		 push	 esi
  00001	8b f1		 mov	 esi, ecx

; 1699 : 	TiXmlElement* ToElement() const		{ return ( ( node && node->ToElement() ) ? node->ToElement() : 0 ); }

  00003	8b 0e		 mov	 ecx, DWORD PTR [esi]
  00005	85 c9		 test	 ecx, ecx
  00007	74 11		 je	 SHORT $LN5@Element
  00009	8b 01		 mov	 eax, DWORD PTR [ecx]
  0000b	ff 50 14	 call	 DWORD PTR [eax+20]
  0000e	85 c0		 test	 eax, eax
  00010	74 08		 je	 SHORT $LN5@Element
  00012	8b 0e		 mov	 ecx, DWORD PTR [esi]
  00014	5e		 pop	 esi
  00015	8b 01		 mov	 eax, DWORD PTR [ecx]
  00017	ff 60 14	 jmp	 DWORD PTR [eax+20]
$LN5@Element:

; 1714 : 	TiXmlElement* Element() const	{ return ToElement(); }

  0001a	33 c0		 xor	 eax, eax
  0001c	5e		 pop	 esi
  0001d	c3		 ret	 0
?Element@TiXmlHandle@@QBEPAVTiXmlElement@@XZ ENDP	; TiXmlHandle::Element
_TEXT	ENDS
; Function compile flags: /Ogtp
; File E:\Proyectos\JuegosOnlineproyectos\PB\pbblow\Piercing Blow Remake\i3Server\include\i3Base\tinyxml.h
;	COMDAT ?Node@TiXmlHandle@@QBEPAVTiXmlNode@@XZ
_TEXT	SEGMENT
?Node@TiXmlHandle@@QBEPAVTiXmlNode@@XZ PROC		; TiXmlHandle::Node, COMDAT
; _this$ = ecx

; 1710 : 	TiXmlNode* Node() const			{ return ToNode(); } 

  00000	8b 01		 mov	 eax, DWORD PTR [ecx]
  00002	c3		 ret	 0
?Node@TiXmlHandle@@QBEPAVTiXmlNode@@XZ ENDP		; TiXmlHandle::Node
_TEXT	ENDS
; Function compile flags: /Ogtp
; File E:\Proyectos\JuegosOnlineproyectos\PB\pbblow\Piercing Blow Remake\i3Server\include\i3Base\tinyxml.h
;	COMDAT ?ToUnknown@TiXmlHandle@@QBEPAVTiXmlUnknown@@XZ
_TEXT	SEGMENT
?ToUnknown@TiXmlHandle@@QBEPAVTiXmlUnknown@@XZ PROC	; TiXmlHandle::ToUnknown, COMDAT
; _this$ = ecx

; 1705 : 	TiXmlUnknown* ToUnknown() const		{ return ( ( node && node->ToUnknown() ) ? node->ToUnknown() : 0 ); }

  00000	56		 push	 esi
  00001	8b f1		 mov	 esi, ecx
  00003	8b 0e		 mov	 ecx, DWORD PTR [esi]
  00005	85 c9		 test	 ecx, ecx
  00007	74 11		 je	 SHORT $LN3@ToUnknown
  00009	8b 01		 mov	 eax, DWORD PTR [ecx]
  0000b	ff 50 24	 call	 DWORD PTR [eax+36]
  0000e	85 c0		 test	 eax, eax
  00010	74 08		 je	 SHORT $LN3@ToUnknown
  00012	8b 0e		 mov	 ecx, DWORD PTR [esi]
  00014	5e		 pop	 esi
  00015	8b 01		 mov	 eax, DWORD PTR [ecx]
  00017	ff 60 24	 jmp	 DWORD PTR [eax+36]
$LN3@ToUnknown:
  0001a	33 c0		 xor	 eax, eax
  0001c	5e		 pop	 esi
  0001d	c3		 ret	 0
?ToUnknown@TiXmlHandle@@QBEPAVTiXmlUnknown@@XZ ENDP	; TiXmlHandle::ToUnknown
_TEXT	ENDS
; Function compile flags: /Ogtp
; File E:\Proyectos\JuegosOnlineproyectos\PB\pbblow\Piercing Blow Remake\i3Server\include\i3Base\tinyxml.h
;	COMDAT ?ToText@TiXmlHandle@@QBEPAVTiXmlText@@XZ
_TEXT	SEGMENT
?ToText@TiXmlHandle@@QBEPAVTiXmlText@@XZ PROC		; TiXmlHandle::ToText, COMDAT
; _this$ = ecx

; 1702 : 	TiXmlText* ToText() const			{ return ( ( node && node->ToText() ) ? node->ToText() : 0 ); }

  00000	56		 push	 esi
  00001	8b f1		 mov	 esi, ecx
  00003	8b 0e		 mov	 ecx, DWORD PTR [esi]
  00005	85 c9		 test	 ecx, ecx
  00007	74 11		 je	 SHORT $LN3@ToText
  00009	8b 01		 mov	 eax, DWORD PTR [ecx]
  0000b	ff 50 2c	 call	 DWORD PTR [eax+44]
  0000e	85 c0		 test	 eax, eax
  00010	74 08		 je	 SHORT $LN3@ToText
  00012	8b 0e		 mov	 ecx, DWORD PTR [esi]
  00014	5e		 pop	 esi
  00015	8b 01		 mov	 eax, DWORD PTR [ecx]
  00017	ff 60 2c	 jmp	 DWORD PTR [eax+44]
$LN3@ToText:
  0001a	33 c0		 xor	 eax, eax
  0001c	5e		 pop	 esi
  0001d	c3		 ret	 0
?ToText@TiXmlHandle@@QBEPAVTiXmlText@@XZ ENDP		; TiXmlHandle::ToText
_TEXT	ENDS
; Function compile flags: /Ogtp
; File E:\Proyectos\JuegosOnlineproyectos\PB\pbblow\Piercing Blow Remake\i3Server\include\i3Base\tinyxml.h
;	COMDAT ?ToElement@TiXmlHandle@@QBEPAVTiXmlElement@@XZ
_TEXT	SEGMENT
?ToElement@TiXmlHandle@@QBEPAVTiXmlElement@@XZ PROC	; TiXmlHandle::ToElement, COMDAT
; _this$ = ecx

; 1699 : 	TiXmlElement* ToElement() const		{ return ( ( node && node->ToElement() ) ? node->ToElement() : 0 ); }

  00000	56		 push	 esi
  00001	8b f1		 mov	 esi, ecx
  00003	8b 0e		 mov	 ecx, DWORD PTR [esi]
  00005	85 c9		 test	 ecx, ecx
  00007	74 11		 je	 SHORT $LN3@ToElement
  00009	8b 01		 mov	 eax, DWORD PTR [ecx]
  0000b	ff 50 14	 call	 DWORD PTR [eax+20]
  0000e	85 c0		 test	 eax, eax
  00010	74 08		 je	 SHORT $LN3@ToElement
  00012	8b 0e		 mov	 ecx, DWORD PTR [esi]
  00014	5e		 pop	 esi
  00015	8b 01		 mov	 eax, DWORD PTR [ecx]
  00017	ff 60 14	 jmp	 DWORD PTR [eax+20]
$LN3@ToElement:
  0001a	33 c0		 xor	 eax, eax
  0001c	5e		 pop	 esi
  0001d	c3		 ret	 0
?ToElement@TiXmlHandle@@QBEPAVTiXmlElement@@XZ ENDP	; TiXmlHandle::ToElement
_TEXT	ENDS
; Function compile flags: /Ogtp
; File E:\Proyectos\JuegosOnlineproyectos\PB\pbblow\Piercing Blow Remake\i3Server\include\i3Base\tinyxml.h
;	COMDAT ?ToNode@TiXmlHandle@@QBEPAVTiXmlNode@@XZ
_TEXT	SEGMENT
?ToNode@TiXmlHandle@@QBEPAVTiXmlNode@@XZ PROC		; TiXmlHandle::ToNode, COMDAT
; _this$ = ecx

; 1696 : 	TiXmlNode* ToNode() const			{ return node; } 

  00000	8b 01		 mov	 eax, DWORD PTR [ecx]
  00002	c3		 ret	 0
?ToNode@TiXmlHandle@@QBEPAVTiXmlNode@@XZ ENDP		; TiXmlHandle::ToNode
_TEXT	ENDS
; Function compile flags: /Ogtp
; File E:\Proyectos\JuegosOnlineproyectos\PB\pbblow\Piercing Blow Remake\i3Server\include\i3Base\tinyxml.h
;	COMDAT ??4TiXmlHandle@@QAE?AV0@ABV0@@Z
_TEXT	SEGMENT
___$ReturnUdt$ = 8					; size = 4
_ref$ = 12						; size = 4
??4TiXmlHandle@@QAE?AV0@ABV0@@Z PROC			; TiXmlHandle::operator=, COMDAT
; _this$ = ecx

; 1656 : 	TiXmlHandle operator=( const TiXmlHandle& ref ) { this->node = ref.node; return *this; }

  00000	55		 push	 ebp
  00001	8b ec		 mov	 ebp, esp
  00003	8b 45 0c	 mov	 eax, DWORD PTR _ref$[ebp]
  00006	8b 10		 mov	 edx, DWORD PTR [eax]

; 1655 : 	TiXmlHandle( const TiXmlHandle& ref )			{ this->node = ref.node; }

  00008	8b 45 08	 mov	 eax, DWORD PTR ___$ReturnUdt$[ebp]

; 1656 : 	TiXmlHandle operator=( const TiXmlHandle& ref ) { this->node = ref.node; return *this; }

  0000b	89 11		 mov	 DWORD PTR [ecx], edx

; 1655 : 	TiXmlHandle( const TiXmlHandle& ref )			{ this->node = ref.node; }

  0000d	89 10		 mov	 DWORD PTR [eax], edx

; 1656 : 	TiXmlHandle operator=( const TiXmlHandle& ref ) { this->node = ref.node; return *this; }

  0000f	5d		 pop	 ebp
  00010	c2 08 00	 ret	 8
??4TiXmlHandle@@QAE?AV0@ABV0@@Z ENDP			; TiXmlHandle::operator=
_TEXT	ENDS
; Function compile flags: /Ogtp
; File E:\Proyectos\JuegosOnlineproyectos\PB\pbblow\Piercing Blow Remake\i3Server\include\i3Base\tinyxml.h
;	COMDAT ??0TiXmlHandle@@QAE@ABV0@@Z
_TEXT	SEGMENT
_ref$ = 8						; size = 4
??0TiXmlHandle@@QAE@ABV0@@Z PROC			; TiXmlHandle::TiXmlHandle, COMDAT
; _this$ = ecx

; 1655 : 	TiXmlHandle( const TiXmlHandle& ref )			{ this->node = ref.node; }

  00000	55		 push	 ebp
  00001	8b ec		 mov	 ebp, esp
  00003	8b 45 08	 mov	 eax, DWORD PTR _ref$[ebp]
  00006	8b 00		 mov	 eax, DWORD PTR [eax]
  00008	89 01		 mov	 DWORD PTR [ecx], eax
  0000a	8b c1		 mov	 eax, ecx
  0000c	5d		 pop	 ebp
  0000d	c2 04 00	 ret	 4
??0TiXmlHandle@@QAE@ABV0@@Z ENDP			; TiXmlHandle::TiXmlHandle
_TEXT	ENDS
; Function compile flags: /Ogtp
; File E:\Proyectos\JuegosOnlineproyectos\PB\pbblow\Piercing Blow Remake\i3Server\include\i3Base\tinyxml.h
;	COMDAT ??0TiXmlHandle@@QAE@PAVTiXmlNode@@@Z
_TEXT	SEGMENT
__node$ = 8						; size = 4
??0TiXmlHandle@@QAE@PAVTiXmlNode@@@Z PROC		; TiXmlHandle::TiXmlHandle, COMDAT
; _this$ = ecx

; 1653 : 	TiXmlHandle( TiXmlNode* _node )					{ this->node = _node; }

  00000	55		 push	 ebp
  00001	8b ec		 mov	 ebp, esp
  00003	8b 45 08	 mov	 eax, DWORD PTR __node$[ebp]
  00006	89 01		 mov	 DWORD PTR [ecx], eax
  00008	8b c1		 mov	 eax, ecx
  0000a	5d		 pop	 ebp
  0000b	c2 04 00	 ret	 4
??0TiXmlHandle@@QAE@PAVTiXmlNode@@@Z ENDP		; TiXmlHandle::TiXmlHandle
_TEXT	ENDS
; Function compile flags: /Ogtp
; File E:\Proyectos\JuegosOnlineproyectos\PB\pbblow\Piercing Blow Remake\i3Server\include\i3Base\tinyxml.h
; File E:\Proyectos\JuegosOnlineproyectos\PB\pbblow\Piercing Blow Remake\i3Server\include\i3Base\tinystr.h
; File E:\Proyectos\JuegosOnlineproyectos\PB\pbblow\Piercing Blow Remake\i3Server\include\i3Base\tinyxml.h
;	COMDAT ??_ETiXmlDocument@@UAEPAXI@Z
_TEXT	SEGMENT
__$EHRec$ = -12						; size = 12
___flags$ = 8						; size = 4
??_ETiXmlDocument@@UAEPAXI@Z PROC			; TiXmlDocument::`vector deleting destructor', COMDAT
; _this$ = ecx
  00000	55		 push	 ebp
  00001	8b ec		 mov	 ebp, esp
  00003	6a ff		 push	 -1
  00005	68 00 00 00 00	 push	 __ehhandler$??_ETiXmlDocument@@UAEPAXI@Z
  0000a	64 a1 00 00 00
	00		 mov	 eax, DWORD PTR fs:0
  00010	50		 push	 eax
  00011	53		 push	 ebx
  00012	56		 push	 esi
  00013	57		 push	 edi
  00014	a1 00 00 00 00	 mov	 eax, DWORD PTR ___security_cookie
  00019	33 c5		 xor	 eax, ebp
  0001b	50		 push	 eax
  0001c	8d 45 f4	 lea	 eax, DWORD PTR __$EHRec$[ebp]
  0001f	64 a3 00 00 00
	00		 mov	 DWORD PTR fs:0, eax
  00025	8b f1		 mov	 esi, ecx
  00027	8b 5d 08	 mov	 ebx, DWORD PTR ___flags$[ebp]
  0002a	f6 c3 02	 test	 bl, 2
  0002d	74 3e		 je	 SHORT $LN2@vector
  0002f	68 00 00 00 00	 push	 OFFSET ??1TiXmlDocument@@UAE@XZ ; TiXmlDocument::~TiXmlDocument
  00034	ff 76 fc	 push	 DWORD PTR [esi-4]
  00037	8d 7e fc	 lea	 edi, DWORD PTR [esi-4]
  0003a	6a 4c		 push	 76			; 0000004cH
  0003c	56		 push	 esi
  0003d	e8 00 00 00 00	 call	 ??_M@YGXPAXIIP6EX0@Z@Z
  00042	f6 c3 01	 test	 bl, 1
  00045	74 10		 je	 SHORT $LN3@vector
  00047	6b 0f 4c	 imul	 ecx, DWORD PTR [edi], 76
  0004a	83 c1 04	 add	 ecx, 4
  0004d	51		 push	 ecx
  0004e	57		 push	 edi
  0004f	e8 00 00 00 00	 call	 ??_V@YAXPAXI@Z		; operator delete[]
  00054	83 c4 08	 add	 esp, 8
$LN3@vector:
  00057	8b c7		 mov	 eax, edi
  00059	8b 4d f4	 mov	 ecx, DWORD PTR __$EHRec$[ebp]
  0005c	64 89 0d 00 00
	00 00		 mov	 DWORD PTR fs:0, ecx
  00063	59		 pop	 ecx
  00064	5f		 pop	 edi
  00065	5e		 pop	 esi
  00066	5b		 pop	 ebx
  00067	8b e5		 mov	 esp, ebp
  00069	5d		 pop	 ebp
  0006a	c2 04 00	 ret	 4
$LN2@vector:

; 1411 : 	virtual ~TiXmlDocument() {}

  0006d	c7 06 00 00 00
	00		 mov	 DWORD PTR [esi], OFFSET ??_7TiXmlDocument@@6B@
; File E:\Proyectos\JuegosOnlineproyectos\PB\pbblow\Piercing Blow Remake\i3Server\include\i3Base\tinystr.h

; 257  : 		if (rep_ != &nullrep_)

  00073	8b 46 34	 mov	 eax, DWORD PTR [esi+52]
  00076	3d 00 00 00 00	 cmp	 eax, OFFSET ?nullrep_@TiXmlString@@0URep@1@A ; TiXmlString::nullrep_
  0007b	74 09		 je	 SHORT $LN16@vector

; 258  : 		{
; 259  : 			// The rep_ is really an array of ints. (see the allocator, above).
; 260  : 			// Cast it back before delete, so the compiler won't incorrectly call destructors.
; 261  : 			delete [] ( reinterpret_cast<int*>( rep_ ) );

  0007d	50		 push	 eax
  0007e	e8 00 00 00 00	 call	 ??_V@YAXPAX@Z		; operator delete[]
  00083	83 c4 04	 add	 esp, 4
$LN16@vector:
; File E:\Proyectos\JuegosOnlineproyectos\PB\pbblow\Piercing Blow Remake\i3Server\include\i3Base\tinyxml.h

; 1411 : 	virtual ~TiXmlDocument() {}

  00086	8b ce		 mov	 ecx, esi
  00088	e8 00 00 00 00	 call	 ??1TiXmlNode@@UAE@XZ	; TiXmlNode::~TiXmlNode
  0008d	f6 c3 01	 test	 bl, 1
  00090	74 0b		 je	 SHORT $LN4@vector
  00092	6a 4c		 push	 76			; 0000004cH
  00094	56		 push	 esi
  00095	e8 00 00 00 00	 call	 ??3@YAXPAXI@Z		; operator delete
  0009a	83 c4 08	 add	 esp, 8
$LN4@vector:
  0009d	8b c6		 mov	 eax, esi
  0009f	8b 4d f4	 mov	 ecx, DWORD PTR __$EHRec$[ebp]
  000a2	64 89 0d 00 00
	00 00		 mov	 DWORD PTR fs:0, ecx
  000a9	59		 pop	 ecx
  000aa	5f		 pop	 edi
  000ab	5e		 pop	 esi
  000ac	5b		 pop	 ebx
  000ad	8b e5		 mov	 esp, ebp
  000af	5d		 pop	 ebp
  000b0	c2 04 00	 ret	 4
  000b3	cc		 int	 3
  000b4	cc		 int	 3
  000b5	cc		 int	 3
  000b6	cc		 int	 3
  000b7	cc		 int	 3
_TEXT	ENDS
;	COMDAT text$x
text$x	SEGMENT
__ehhandler$??_ETiXmlDocument@@UAEPAXI@Z:
  00000	90		 npad	 1
  00001	90		 npad	 1
  00002	8b 54 24 08	 mov	 edx, DWORD PTR [esp+8]
  00006	8d 42 0c	 lea	 eax, DWORD PTR [edx+12]
  00009	8b 4a f0	 mov	 ecx, DWORD PTR [edx-16]
  0000c	33 c8		 xor	 ecx, eax
  0000e	e8 00 00 00 00	 call	 @__security_check_cookie@4
  00013	b8 00 00 00 00	 mov	 eax, OFFSET __ehfuncinfo$??_ETiXmlDocument@@UAEPAXI@Z
  00018	e9 00 00 00 00	 jmp	 ___CxxFrameHandler3
text$x	ENDS
??_ETiXmlDocument@@UAEPAXI@Z ENDP			; TiXmlDocument::`vector deleting destructor'
; Function compile flags: /Ogtp
; File E:\Proyectos\JuegosOnlineproyectos\PB\pbblow\Piercing Blow Remake\i3Server\include\i3Base\tinyxml.h
; File E:\Proyectos\JuegosOnlineproyectos\PB\pbblow\Piercing Blow Remake\i3Server\include\i3Base\tinystr.h
; File E:\Proyectos\JuegosOnlineproyectos\PB\pbblow\Piercing Blow Remake\i3Server\include\i3Base\tinyxml.h
;	COMDAT ??_GTiXmlDocument@@UAEPAXI@Z
_TEXT	SEGMENT
___flags$ = 8						; size = 4
??_GTiXmlDocument@@UAEPAXI@Z PROC			; TiXmlDocument::`scalar deleting destructor', COMDAT
; _this$ = ecx
  00000	55		 push	 ebp
  00001	8b ec		 mov	 ebp, esp

; 1411 : 	virtual ~TiXmlDocument() {}

  00003	56		 push	 esi
  00004	8b f1		 mov	 esi, ecx
  00006	c7 06 00 00 00
	00		 mov	 DWORD PTR [esi], OFFSET ??_7TiXmlDocument@@6B@
; File E:\Proyectos\JuegosOnlineproyectos\PB\pbblow\Piercing Blow Remake\i3Server\include\i3Base\tinystr.h

; 257  : 		if (rep_ != &nullrep_)

  0000c	8b 46 34	 mov	 eax, DWORD PTR [esi+52]
  0000f	3d 00 00 00 00	 cmp	 eax, OFFSET ?nullrep_@TiXmlString@@0URep@1@A ; TiXmlString::nullrep_
  00014	74 09		 je	 SHORT $LN14@scalar

; 258  : 		{
; 259  : 			// The rep_ is really an array of ints. (see the allocator, above).
; 260  : 			// Cast it back before delete, so the compiler won't incorrectly call destructors.
; 261  : 			delete [] ( reinterpret_cast<int*>( rep_ ) );

  00016	50		 push	 eax
  00017	e8 00 00 00 00	 call	 ??_V@YAXPAX@Z		; operator delete[]
  0001c	83 c4 04	 add	 esp, 4
$LN14@scalar:
; File E:\Proyectos\JuegosOnlineproyectos\PB\pbblow\Piercing Blow Remake\i3Server\include\i3Base\tinyxml.h

; 1411 : 	virtual ~TiXmlDocument() {}

  0001f	8b ce		 mov	 ecx, esi
  00021	e8 00 00 00 00	 call	 ??1TiXmlNode@@UAE@XZ	; TiXmlNode::~TiXmlNode
  00026	f6 45 08 01	 test	 BYTE PTR ___flags$[ebp], 1
  0002a	74 0b		 je	 SHORT $LN16@scalar
  0002c	6a 4c		 push	 76			; 0000004cH
  0002e	56		 push	 esi
  0002f	e8 00 00 00 00	 call	 ??3@YAXPAXI@Z		; operator delete
  00034	83 c4 08	 add	 esp, 8
$LN16@scalar:
  00037	8b c6		 mov	 eax, esi
  00039	5e		 pop	 esi
  0003a	5d		 pop	 ebp
  0003b	c2 04 00	 ret	 4
??_GTiXmlDocument@@UAEPAXI@Z ENDP			; TiXmlDocument::`scalar deleting destructor'
_TEXT	ENDS
; Function compile flags: /Ogtp
; File E:\Proyectos\JuegosOnlineproyectos\PB\pbblow\Piercing Blow Remake\i3Server\include\i3Base\tinyxml.h
;	COMDAT ?GetSize@TiXmlDocument@@QAEIXZ
_TEXT	SEGMENT
?GetSize@TiXmlDocument@@QAEIXZ PROC			; TiXmlDocument::GetSize, COMDAT
; _this$ = ecx

; 1546 : 	UINT32 GetSize(void)		{ return fileSize;		}

  00000	8b 41 48	 mov	 eax, DWORD PTR [ecx+72]
  00003	c3		 ret	 0
?GetSize@TiXmlDocument@@QAEIXZ ENDP			; TiXmlDocument::GetSize
_TEXT	ENDS
; Function compile flags: /Ogtp
; File E:\Proyectos\JuegosOnlineproyectos\PB\pbblow\Piercing Blow Remake\i3Server\include\i3Base\tinyxml.h
;	COMDAT ?ToDocument@TiXmlDocument@@UAEPAV1@XZ
_TEXT	SEGMENT
?ToDocument@TiXmlDocument@@UAEPAV1@XZ PROC		; TiXmlDocument::ToDocument, COMDAT
; _this$ = ecx

; 1539 : 	virtual TiXmlDocument*          ToDocument()          { return this; } ///< Cast to a more defined type. Will return null not of the requested type.

  00000	8b c1		 mov	 eax, ecx
  00002	c3		 ret	 0
?ToDocument@TiXmlDocument@@UAEPAV1@XZ ENDP		; TiXmlDocument::ToDocument
_TEXT	ENDS
; Function compile flags: /Ogtp
; File E:\Proyectos\JuegosOnlineproyectos\PB\pbblow\Piercing Blow Remake\i3Server\include\i3Base\tinyxml.h
;	COMDAT ?ToDocument@TiXmlDocument@@UBEPBV1@XZ
_TEXT	SEGMENT
?ToDocument@TiXmlDocument@@UBEPBV1@XZ PROC		; TiXmlDocument::ToDocument, COMDAT
; _this$ = ecx

; 1538 : 	virtual const TiXmlDocument*    ToDocument()    const { return this; } ///< Cast to a more defined type. Will return null not of the requested type.

  00000	8b c1		 mov	 eax, ecx
  00002	c3		 ret	 0
?ToDocument@TiXmlDocument@@UBEPBV1@XZ ENDP		; TiXmlDocument::ToDocument
_TEXT	ENDS
; Function compile flags: /Ogtp
; File E:\Proyectos\JuegosOnlineproyectos\PB\pbblow\Piercing Blow Remake\i3Server\include\i3Base\tinyxml.h
; File E:\Proyectos\JuegosOnlineproyectos\PB\pbblow\Piercing Blow Remake\i3Server\include\i3Base\tinystr.h
; File E:\Proyectos\JuegosOnlineproyectos\PB\pbblow\Piercing Blow Remake\i3Server\include\i3Base\tinyxml.h
; File E:\Proyectos\JuegosOnlineproyectos\PB\pbblow\Piercing Blow Remake\i3Server\include\i3Base\tinystr.h
; File E:\Proyectos\JuegosOnlineproyectos\PB\pbblow\Piercing Blow Remake\i3Server\include\i3Base\tinyxml.h
;	COMDAT ?ClearError@TiXmlDocument@@QAEXXZ
_TEXT	SEGMENT
?ClearError@TiXmlDocument@@QAEXXZ PROC			; TiXmlDocument::ClearError, COMDAT
; _this$ = ecx

; 1517 : 	void ClearError()						{	error = false; 

  00000	56		 push	 esi
  00001	8b f1		 mov	 esi, ecx
; File E:\Proyectos\JuegosOnlineproyectos\PB\pbblow\Piercing Blow Remake\i3Server\include\i3Base\tinystr.h

; 114  : 		return assign( copy, (size_type)strlen(copy));

  00003	6a 00		 push	 0
  00005	68 00 00 00 00	 push	 OFFSET ??_C@_00CNPNBAHC@@
; File E:\Proyectos\JuegosOnlineproyectos\PB\pbblow\Piercing Blow Remake\i3Server\include\i3Base\tinyxml.h

; 1519 : 												errorDesc = ""; 

  0000a	8d 4e 34	 lea	 ecx, DWORD PTR [esi+52]
  0000d	c6 46 2c 00	 mov	 BYTE PTR [esi+44], 0
  00011	c7 46 30 00 00
	00 00		 mov	 DWORD PTR [esi+48], 0
; File E:\Proyectos\JuegosOnlineproyectos\PB\pbblow\Piercing Blow Remake\i3Server\include\i3Base\tinystr.h

; 114  : 		return assign( copy, (size_type)strlen(copy));

  00018	e8 00 00 00 00	 call	 ?assign@TiXmlString@@QAEAAV1@PBDI@Z ; TiXmlString::assign
; File E:\Proyectos\JuegosOnlineproyectos\PB\pbblow\Piercing Blow Remake\i3Server\include\i3Base\tinyxml.h

; 1520 : 												errorLocation.row = errorLocation.col = 0; 

  0001d	c7 46 40 00 00
	00 00		 mov	 DWORD PTR [esi+64], 0
  00024	c7 46 3c 00 00
	00 00		 mov	 DWORD PTR [esi+60], 0
  0002b	5e		 pop	 esi

; 1521 : 												//errorLocation.last = 0; 
; 1522 : 											}

  0002c	c3		 ret	 0
?ClearError@TiXmlDocument@@QAEXXZ ENDP			; TiXmlDocument::ClearError
_TEXT	ENDS
; Function compile flags: /Ogtp
; File E:\Proyectos\JuegosOnlineproyectos\PB\pbblow\Piercing Blow Remake\i3Server\include\i3Base\tinyxml.h
;	COMDAT ?TabSize@TiXmlDocument@@QBEHXZ
_TEXT	SEGMENT
?TabSize@TiXmlDocument@@QBEHXZ PROC			; TiXmlDocument::TabSize, COMDAT
; _this$ = ecx

; 1512 : 	int TabSize() const	{ return tabsize; }

  00000	8b 41 38	 mov	 eax, DWORD PTR [ecx+56]
  00003	c3		 ret	 0
?TabSize@TiXmlDocument@@QBEHXZ ENDP			; TiXmlDocument::TabSize
_TEXT	ENDS
; Function compile flags: /Ogtp
; File E:\Proyectos\JuegosOnlineproyectos\PB\pbblow\Piercing Blow Remake\i3Server\include\i3Base\tinyxml.h
;	COMDAT ?SetTabSize@TiXmlDocument@@QAEXH@Z
_TEXT	SEGMENT
__tabsize$ = 8						; size = 4
?SetTabSize@TiXmlDocument@@QAEXH@Z PROC			; TiXmlDocument::SetTabSize, COMDAT
; _this$ = ecx

; 1510 : 	void SetTabSize( int _tabsize )		{ tabsize = _tabsize; }

  00000	55		 push	 ebp
  00001	8b ec		 mov	 ebp, esp
  00003	8b 45 08	 mov	 eax, DWORD PTR __tabsize$[ebp]
  00006	89 41 38	 mov	 DWORD PTR [ecx+56], eax
  00009	5d		 pop	 ebp
  0000a	c2 04 00	 ret	 4
?SetTabSize@TiXmlDocument@@QAEXH@Z ENDP			; TiXmlDocument::SetTabSize
_TEXT	ENDS
; Function compile flags: /Ogtp
; File E:\Proyectos\JuegosOnlineproyectos\PB\pbblow\Piercing Blow Remake\i3Server\include\i3Base\tinyxml.h
;	COMDAT ?ErrorCol@TiXmlDocument@@QBEHXZ
_TEXT	SEGMENT
?ErrorCol@TiXmlDocument@@QBEHXZ PROC			; TiXmlDocument::ErrorCol, COMDAT
; _this$ = ecx

; 1484 : 	int ErrorCol() const	{ return errorLocation.col+1; }	///< The column where the error occured. See ErrorRow()

  00000	8b 41 40	 mov	 eax, DWORD PTR [ecx+64]
  00003	40		 inc	 eax
  00004	c3		 ret	 0
?ErrorCol@TiXmlDocument@@QBEHXZ ENDP			; TiXmlDocument::ErrorCol
_TEXT	ENDS
; Function compile flags: /Ogtp
; File E:\Proyectos\JuegosOnlineproyectos\PB\pbblow\Piercing Blow Remake\i3Server\include\i3Base\tinyxml.h
;	COMDAT ?ErrorRow@TiXmlDocument@@QBEHXZ
_TEXT	SEGMENT
?ErrorRow@TiXmlDocument@@QBEHXZ PROC			; TiXmlDocument::ErrorRow, COMDAT
; _this$ = ecx

; 1483 : 	int ErrorRow() const	{ return errorLocation.row+1; }

  00000	8b 41 3c	 mov	 eax, DWORD PTR [ecx+60]
  00003	40		 inc	 eax
  00004	c3		 ret	 0
?ErrorRow@TiXmlDocument@@QBEHXZ ENDP			; TiXmlDocument::ErrorRow
_TEXT	ENDS
; Function compile flags: /Ogtp
; File E:\Proyectos\JuegosOnlineproyectos\PB\pbblow\Piercing Blow Remake\i3Server\include\i3Base\tinyxml.h
;	COMDAT ?ErrorId@TiXmlDocument@@QBEHXZ
_TEXT	SEGMENT
?ErrorId@TiXmlDocument@@QBEHXZ PROC			; TiXmlDocument::ErrorId, COMDAT
; _this$ = ecx

; 1474 : 	int ErrorId()	const				{ return errorId; }

  00000	8b 41 30	 mov	 eax, DWORD PTR [ecx+48]
  00003	c3		 ret	 0
?ErrorId@TiXmlDocument@@QBEHXZ ENDP			; TiXmlDocument::ErrorId
_TEXT	ENDS
; Function compile flags: /Ogtp
; File E:\Proyectos\JuegosOnlineproyectos\PB\pbblow\Piercing Blow Remake\i3Server\include\i3Base\tinyxml.h
; File E:\Proyectos\JuegosOnlineproyectos\PB\pbblow\Piercing Blow Remake\i3Server\include\i3Base\tinystr.h
; File E:\Proyectos\JuegosOnlineproyectos\PB\pbblow\Piercing Blow Remake\i3Server\include\i3Base\tinyxml.h
;	COMDAT ?ErrorDesc@TiXmlDocument@@QBEPBDXZ
_TEXT	SEGMENT
?ErrorDesc@TiXmlDocument@@QBEPBDXZ PROC			; TiXmlDocument::ErrorDesc, COMDAT
; _this$ = ecx
; File E:\Proyectos\JuegosOnlineproyectos\PB\pbblow\Piercing Blow Remake\i3Server\include\i3Base\tinystr.h

; 144  : 	const char * c_str () const { return rep_->str; }

  00000	8b 41 34	 mov	 eax, DWORD PTR [ecx+52]
  00003	83 c0 08	 add	 eax, 8
; File E:\Proyectos\JuegosOnlineproyectos\PB\pbblow\Piercing Blow Remake\i3Server\include\i3Base\tinyxml.h

; 1469 : 	const char * ErrorDesc() const	{ return errorDesc.c_str (); }

  00006	c3		 ret	 0
?ErrorDesc@TiXmlDocument@@QBEPBDXZ ENDP			; TiXmlDocument::ErrorDesc
_TEXT	ENDS
; Function compile flags: /Ogtp
; File E:\Proyectos\JuegosOnlineproyectos\PB\pbblow\Piercing Blow Remake\i3Server\include\i3Base\tinyxml.h
;	COMDAT ?Error@TiXmlDocument@@QBE_NXZ
_TEXT	SEGMENT
?Error@TiXmlDocument@@QBE_NXZ PROC			; TiXmlDocument::Error, COMDAT
; _this$ = ecx

; 1466 : 	bool Error() const						{ return error; }

  00000	8a 41 2c	 mov	 al, BYTE PTR [ecx+44]
  00003	c3		 ret	 0
?Error@TiXmlDocument@@QBE_NXZ ENDP			; TiXmlDocument::Error
_TEXT	ENDS
; Function compile flags: /Ogtp
; File E:\Proyectos\JuegosOnlineproyectos\PB\pbblow\Piercing Blow Remake\i3Server\include\i3Base\tinyxml.h
;	COMDAT ?RootElement@TiXmlDocument@@QAEPAVTiXmlElement@@XZ
_TEXT	SEGMENT
?RootElement@TiXmlDocument@@QAEPAVTiXmlElement@@XZ PROC	; TiXmlDocument::RootElement, COMDAT
; _this$ = ecx

; 670  : 		return const_cast< TiXmlElement* >( (const_cast< const TiXmlNode* >(this))->FirstChildElement() );

  00000	e9 00 00 00 00	 jmp	 ?FirstChildElement@TiXmlNode@@QBEPBVTiXmlElement@@XZ ; TiXmlNode::FirstChildElement
?RootElement@TiXmlDocument@@QAEPAVTiXmlElement@@XZ ENDP	; TiXmlDocument::RootElement
_TEXT	ENDS
; Function compile flags: /Ogtp
; File E:\Proyectos\JuegosOnlineproyectos\PB\pbblow\Piercing Blow Remake\i3Server\include\i3Base\tinyxml.h
;	COMDAT ?RootElement@TiXmlDocument@@QBEPBVTiXmlElement@@XZ
_TEXT	SEGMENT
?RootElement@TiXmlDocument@@QBEPBVTiXmlElement@@XZ PROC	; TiXmlDocument::RootElement, COMDAT
; _this$ = ecx

; 1458 : 	const TiXmlElement* RootElement() const		{ return FirstChildElement(); }

  00000	e9 00 00 00 00	 jmp	 ?FirstChildElement@TiXmlNode@@QBEPBVTiXmlElement@@XZ ; TiXmlNode::FirstChildElement
?RootElement@TiXmlDocument@@QBEPBVTiXmlElement@@XZ ENDP	; TiXmlDocument::RootElement
_TEXT	ENDS
; Function compile flags: /Ogtp
; File E:\Proyectos\JuegosOnlineproyectos\PB\pbblow\Piercing Blow Remake\i3Server\include\i3Base\tinyxml.h
; File E:\Proyectos\JuegosOnlineproyectos\PB\pbblow\Piercing Blow Remake\i3Server\include\i3Base\tinystr.h
; File E:\Proyectos\JuegosOnlineproyectos\PB\pbblow\Piercing Blow Remake\i3Server\include\i3Base\tinyxml.h
;	COMDAT ??1TiXmlDocument@@UAE@XZ
_TEXT	SEGMENT
??1TiXmlDocument@@UAE@XZ PROC				; TiXmlDocument::~TiXmlDocument, COMDAT
; _this$ = ecx

; 1411 : 	virtual ~TiXmlDocument() {}

  00000	56		 push	 esi
  00001	8b f1		 mov	 esi, ecx
  00003	c7 06 00 00 00
	00		 mov	 DWORD PTR [esi], OFFSET ??_7TiXmlDocument@@6B@
; File E:\Proyectos\JuegosOnlineproyectos\PB\pbblow\Piercing Blow Remake\i3Server\include\i3Base\tinystr.h

; 257  : 		if (rep_ != &nullrep_)

  00009	8b 46 34	 mov	 eax, DWORD PTR [esi+52]
  0000c	3d 00 00 00 00	 cmp	 eax, OFFSET ?nullrep_@TiXmlString@@0URep@1@A ; TiXmlString::nullrep_
  00011	74 09		 je	 SHORT $LN8@TiXmlDocum

; 258  : 		{
; 259  : 			// The rep_ is really an array of ints. (see the allocator, above).
; 260  : 			// Cast it back before delete, so the compiler won't incorrectly call destructors.
; 261  : 			delete [] ( reinterpret_cast<int*>( rep_ ) );

  00013	50		 push	 eax
  00014	e8 00 00 00 00	 call	 ??_V@YAXPAX@Z		; operator delete[]
  00019	83 c4 04	 add	 esp, 4
$LN8@TiXmlDocum:
; File E:\Proyectos\JuegosOnlineproyectos\PB\pbblow\Piercing Blow Remake\i3Server\include\i3Base\tinyxml.h

; 1411 : 	virtual ~TiXmlDocument() {}

  0001c	8b ce		 mov	 ecx, esi
  0001e	5e		 pop	 esi
  0001f	e9 00 00 00 00	 jmp	 ??1TiXmlNode@@UAE@XZ	; TiXmlNode::~TiXmlNode
??1TiXmlDocument@@UAE@XZ ENDP				; TiXmlDocument::~TiXmlDocument
_TEXT	ENDS
; Function compile flags: /Ogtp
; File E:\Proyectos\JuegosOnlineproyectos\PB\pbblow\Piercing Blow Remake\i3Server\include\i3Base\tinyxml.h
;	COMDAT ??_ETiXmlUnknown@@UAEPAXI@Z
_TEXT	SEGMENT
__$EHRec$ = -12						; size = 12
___flags$ = 8						; size = 4
??_ETiXmlUnknown@@UAEPAXI@Z PROC			; TiXmlUnknown::`vector deleting destructor', COMDAT
; _this$ = ecx
  00000	55		 push	 ebp
  00001	8b ec		 mov	 ebp, esp
  00003	6a ff		 push	 -1
  00005	68 00 00 00 00	 push	 __ehhandler$??_ETiXmlUnknown@@UAEPAXI@Z
  0000a	64 a1 00 00 00
	00		 mov	 eax, DWORD PTR fs:0
  00010	50		 push	 eax
  00011	53		 push	 ebx
  00012	56		 push	 esi
  00013	57		 push	 edi
  00014	a1 00 00 00 00	 mov	 eax, DWORD PTR ___security_cookie
  00019	33 c5		 xor	 eax, ebp
  0001b	50		 push	 eax
  0001c	8d 45 f4	 lea	 eax, DWORD PTR __$EHRec$[ebp]
  0001f	64 a3 00 00 00
	00		 mov	 DWORD PTR fs:0, eax
  00025	8b f1		 mov	 esi, ecx
  00027	8b 45 08	 mov	 eax, DWORD PTR ___flags$[ebp]
  0002a	8b f8		 mov	 edi, eax
  0002c	83 e7 01	 and	 edi, 1
  0002f	a8 02		 test	 al, 2
  00031	74 3d		 je	 SHORT $LN2@vector
  00033	68 00 00 00 00	 push	 OFFSET ??1TiXmlUnknown@@UAE@XZ ; TiXmlUnknown::~TiXmlUnknown
  00038	ff 76 fc	 push	 DWORD PTR [esi-4]
  0003b	8d 5e fc	 lea	 ebx, DWORD PTR [esi-4]
  0003e	6a 2c		 push	 44			; 0000002cH
  00040	56		 push	 esi
  00041	e8 00 00 00 00	 call	 ??_M@YGXPAXIIP6EX0@Z@Z
  00046	85 ff		 test	 edi, edi
  00048	74 10		 je	 SHORT $LN3@vector
  0004a	6b 0b 2c	 imul	 ecx, DWORD PTR [ebx], 44
  0004d	83 c1 04	 add	 ecx, 4
  00050	51		 push	 ecx
  00051	53		 push	 ebx
  00052	e8 00 00 00 00	 call	 ??_V@YAXPAXI@Z		; operator delete[]
  00057	83 c4 08	 add	 esp, 8
$LN3@vector:
  0005a	8b c3		 mov	 eax, ebx
  0005c	8b 4d f4	 mov	 ecx, DWORD PTR __$EHRec$[ebp]
  0005f	64 89 0d 00 00
	00 00		 mov	 DWORD PTR fs:0, ecx
  00066	59		 pop	 ecx
  00067	5f		 pop	 edi
  00068	5e		 pop	 esi
  00069	5b		 pop	 ebx
  0006a	8b e5		 mov	 esp, ebp
  0006c	5d		 pop	 ebp
  0006d	c2 04 00	 ret	 4
$LN2@vector:

; 1360 : 	virtual ~TiXmlUnknown() {}

  00070	c7 06 00 00 00
	00		 mov	 DWORD PTR [esi], OFFSET ??_7TiXmlUnknown@@6B@
  00076	e8 00 00 00 00	 call	 ??1TiXmlNode@@UAE@XZ	; TiXmlNode::~TiXmlNode
  0007b	85 ff		 test	 edi, edi
  0007d	74 0b		 je	 SHORT $LN4@vector
  0007f	6a 2c		 push	 44			; 0000002cH
  00081	56		 push	 esi
  00082	e8 00 00 00 00	 call	 ??3@YAXPAXI@Z		; operator delete
  00087	83 c4 08	 add	 esp, 8
$LN4@vector:
  0008a	8b c6		 mov	 eax, esi
  0008c	8b 4d f4	 mov	 ecx, DWORD PTR __$EHRec$[ebp]
  0008f	64 89 0d 00 00
	00 00		 mov	 DWORD PTR fs:0, ecx
  00096	59		 pop	 ecx
  00097	5f		 pop	 edi
  00098	5e		 pop	 esi
  00099	5b		 pop	 ebx
  0009a	8b e5		 mov	 esp, ebp
  0009c	5d		 pop	 ebp
  0009d	c2 04 00	 ret	 4
  000a0	cc		 int	 3
  000a1	cc		 int	 3
  000a2	cc		 int	 3
  000a3	cc		 int	 3
  000a4	cc		 int	 3
_TEXT	ENDS
;	COMDAT text$x
text$x	SEGMENT
__ehhandler$??_ETiXmlUnknown@@UAEPAXI@Z:
  00000	90		 npad	 1
  00001	90		 npad	 1
  00002	8b 54 24 08	 mov	 edx, DWORD PTR [esp+8]
  00006	8d 42 0c	 lea	 eax, DWORD PTR [edx+12]
  00009	8b 4a f0	 mov	 ecx, DWORD PTR [edx-16]
  0000c	33 c8		 xor	 ecx, eax
  0000e	e8 00 00 00 00	 call	 @__security_check_cookie@4
  00013	b8 00 00 00 00	 mov	 eax, OFFSET __ehfuncinfo$??_ETiXmlUnknown@@UAEPAXI@Z
  00018	e9 00 00 00 00	 jmp	 ___CxxFrameHandler3
text$x	ENDS
??_ETiXmlUnknown@@UAEPAXI@Z ENDP			; TiXmlUnknown::`vector deleting destructor'
; Function compile flags: /Ogtp
; File E:\Proyectos\JuegosOnlineproyectos\PB\pbblow\Piercing Blow Remake\i3Server\include\i3Base\tinyxml.h
;	COMDAT ??_GTiXmlUnknown@@UAEPAXI@Z
_TEXT	SEGMENT
___flags$ = 8						; size = 4
??_GTiXmlUnknown@@UAEPAXI@Z PROC			; TiXmlUnknown::`scalar deleting destructor', COMDAT
; _this$ = ecx
  00000	55		 push	 ebp
  00001	8b ec		 mov	 ebp, esp

; 1360 : 	virtual ~TiXmlUnknown() {}

  00003	56		 push	 esi
  00004	8b f1		 mov	 esi, ecx
  00006	c7 06 00 00 00
	00		 mov	 DWORD PTR [esi], OFFSET ??_7TiXmlUnknown@@6B@
  0000c	e8 00 00 00 00	 call	 ??1TiXmlNode@@UAE@XZ	; TiXmlNode::~TiXmlNode
  00011	f6 45 08 01	 test	 BYTE PTR ___flags$[ebp], 1
  00015	74 0b		 je	 SHORT $LN10@scalar
  00017	6a 2c		 push	 44			; 0000002cH
  00019	56		 push	 esi
  0001a	e8 00 00 00 00	 call	 ??3@YAXPAXI@Z		; operator delete
  0001f	83 c4 08	 add	 esp, 8
$LN10@scalar:
  00022	8b c6		 mov	 eax, esi
  00024	5e		 pop	 esi
  00025	5d		 pop	 ebp
  00026	c2 04 00	 ret	 4
??_GTiXmlUnknown@@UAEPAXI@Z ENDP			; TiXmlUnknown::`scalar deleting destructor'
_TEXT	ENDS
; Function compile flags: /Ogtp
; File E:\Proyectos\JuegosOnlineproyectos\PB\pbblow\Piercing Blow Remake\i3Server\include\i3Base\tinyxml.h
;	COMDAT ?ToUnknown@TiXmlUnknown@@UAEPAV1@XZ
_TEXT	SEGMENT
?ToUnknown@TiXmlUnknown@@UAEPAV1@XZ PROC		; TiXmlUnknown::ToUnknown, COMDAT
; _this$ = ecx

; 1373 : 	virtual TiXmlUnknown*           ToUnknown()	    { return this; } ///< Cast to a more defined type. Will return null not of the requested type.

  00000	8b c1		 mov	 eax, ecx
  00002	c3		 ret	 0
?ToUnknown@TiXmlUnknown@@UAEPAV1@XZ ENDP		; TiXmlUnknown::ToUnknown
_TEXT	ENDS
; Function compile flags: /Ogtp
; File E:\Proyectos\JuegosOnlineproyectos\PB\pbblow\Piercing Blow Remake\i3Server\include\i3Base\tinyxml.h
;	COMDAT ?ToUnknown@TiXmlUnknown@@UBEPBV1@XZ
_TEXT	SEGMENT
?ToUnknown@TiXmlUnknown@@UBEPBV1@XZ PROC		; TiXmlUnknown::ToUnknown, COMDAT
; _this$ = ecx

; 1372 : 	virtual const TiXmlUnknown*     ToUnknown()     const { return this; } ///< Cast to a more defined type. Will return null not of the requested type.

  00000	8b c1		 mov	 eax, ecx
  00002	c3		 ret	 0
?ToUnknown@TiXmlUnknown@@UBEPBV1@XZ ENDP		; TiXmlUnknown::ToUnknown
_TEXT	ENDS
; Function compile flags: /Ogtp
; File E:\Proyectos\JuegosOnlineproyectos\PB\pbblow\Piercing Blow Remake\i3Server\include\i3Base\tinyxml.h
;	COMDAT ??4TiXmlUnknown@@QAEXABV0@@Z
_TEXT	SEGMENT
_copy$ = 8						; size = 4
??4TiXmlUnknown@@QAEXABV0@@Z PROC			; TiXmlUnknown::operator=, COMDAT
; _this$ = ecx

; 1363 : 	void operator=( const TiXmlUnknown& copy )										{ copy.CopyTo( this ); }

  00000	55		 push	 ebp
  00001	8b ec		 mov	 ebp, esp
  00003	51		 push	 ecx
  00004	8b 4d 08	 mov	 ecx, DWORD PTR _copy$[ebp]
  00007	e8 00 00 00 00	 call	 ?CopyTo@TiXmlUnknown@@IBEXPAV1@@Z ; TiXmlUnknown::CopyTo
  0000c	5d		 pop	 ebp
  0000d	c2 04 00	 ret	 4
??4TiXmlUnknown@@QAEXABV0@@Z ENDP			; TiXmlUnknown::operator=
_TEXT	ENDS
; Function compile flags: /Ogtp
; File E:\Proyectos\JuegosOnlineproyectos\PB\pbblow\Piercing Blow Remake\i3Server\include\i3Base\tinyxml.h
;	COMDAT ??0TiXmlUnknown@@QAE@ABV0@@Z
_TEXT	SEGMENT
_this$ = -16						; size = 4
__$EHRec$ = -12						; size = 12
_copy$ = 8						; size = 4
??0TiXmlUnknown@@QAE@ABV0@@Z PROC			; TiXmlUnknown::TiXmlUnknown, COMDAT
; _this$ = ecx

; 1362 : 	TiXmlUnknown( const TiXmlUnknown& copy ) : TiXmlNode( TiXmlNode::UNKNOWN )		{ copy.CopyTo( this ); }

  00000	55		 push	 ebp
  00001	8b ec		 mov	 ebp, esp
  00003	6a ff		 push	 -1
  00005	68 00 00 00 00	 push	 __ehhandler$??0TiXmlUnknown@@QAE@ABV0@@Z
  0000a	64 a1 00 00 00
	00		 mov	 eax, DWORD PTR fs:0
  00010	50		 push	 eax
  00011	51		 push	 ecx
  00012	56		 push	 esi
  00013	a1 00 00 00 00	 mov	 eax, DWORD PTR ___security_cookie
  00018	33 c5		 xor	 eax, ebp
  0001a	50		 push	 eax
  0001b	8d 45 f4	 lea	 eax, DWORD PTR __$EHRec$[ebp]
  0001e	64 a3 00 00 00
	00		 mov	 DWORD PTR fs:0, eax
  00024	8b f1		 mov	 esi, ecx
  00026	89 75 f0	 mov	 DWORD PTR _this$[ebp], esi
  00029	6a 03		 push	 3
  0002b	e8 00 00 00 00	 call	 ??0TiXmlNode@@IAE@W4NodeType@0@@Z ; TiXmlNode::TiXmlNode
  00030	8b 4d 08	 mov	 ecx, DWORD PTR _copy$[ebp]
  00033	56		 push	 esi
  00034	c7 45 fc 00 00
	00 00		 mov	 DWORD PTR __$EHRec$[ebp+8], 0
  0003b	c7 06 00 00 00
	00		 mov	 DWORD PTR [esi], OFFSET ??_7TiXmlUnknown@@6B@
  00041	e8 00 00 00 00	 call	 ?CopyTo@TiXmlUnknown@@IBEXPAV1@@Z ; TiXmlUnknown::CopyTo
  00046	8b c6		 mov	 eax, esi
  00048	8b 4d f4	 mov	 ecx, DWORD PTR __$EHRec$[ebp]
  0004b	64 89 0d 00 00
	00 00		 mov	 DWORD PTR fs:0, ecx
  00052	59		 pop	 ecx
  00053	5e		 pop	 esi
  00054	8b e5		 mov	 esp, ebp
  00056	5d		 pop	 ebp
  00057	c2 04 00	 ret	 4
_TEXT	ENDS
;	COMDAT text$x
text$x	SEGMENT
__unwindfunclet$??0TiXmlUnknown@@QAE@ABV0@@Z$0:
  00000	8b 4d f0	 mov	 ecx, DWORD PTR _this$[ebp]
  00003	e9 00 00 00 00	 jmp	 ??1TiXmlNode@@UAE@XZ	; TiXmlNode::~TiXmlNode
  00008	cc		 int	 3
  00009	cc		 int	 3
  0000a	cc		 int	 3
  0000b	cc		 int	 3
  0000c	cc		 int	 3
__ehhandler$??0TiXmlUnknown@@QAE@ABV0@@Z:
  0000d	90		 npad	 1
  0000e	90		 npad	 1
  0000f	8b 54 24 08	 mov	 edx, DWORD PTR [esp+8]
  00013	8d 42 0c	 lea	 eax, DWORD PTR [edx+12]
  00016	8b 4a f4	 mov	 ecx, DWORD PTR [edx-12]
  00019	33 c8		 xor	 ecx, eax
  0001b	e8 00 00 00 00	 call	 @__security_check_cookie@4
  00020	b8 00 00 00 00	 mov	 eax, OFFSET __ehfuncinfo$??0TiXmlUnknown@@QAE@ABV0@@Z
  00025	e9 00 00 00 00	 jmp	 ___CxxFrameHandler3
text$x	ENDS
??0TiXmlUnknown@@QAE@ABV0@@Z ENDP			; TiXmlUnknown::TiXmlUnknown
; Function compile flags: /Ogtp
; File E:\Proyectos\JuegosOnlineproyectos\PB\pbblow\Piercing Blow Remake\i3Server\include\i3Base\tinyxml.h
;	COMDAT ??1TiXmlUnknown@@UAE@XZ
_TEXT	SEGMENT
??1TiXmlUnknown@@UAE@XZ PROC				; TiXmlUnknown::~TiXmlUnknown, COMDAT
; _this$ = ecx

; 1360 : 	virtual ~TiXmlUnknown() {}

  00000	c7 01 00 00 00
	00		 mov	 DWORD PTR [ecx], OFFSET ??_7TiXmlUnknown@@6B@
  00006	e9 00 00 00 00	 jmp	 ??1TiXmlNode@@UAE@XZ	; TiXmlNode::~TiXmlNode
??1TiXmlUnknown@@UAE@XZ ENDP				; TiXmlUnknown::~TiXmlUnknown
_TEXT	ENDS
; Function compile flags: /Ogtp
; File E:\Proyectos\JuegosOnlineproyectos\PB\pbblow\Piercing Blow Remake\i3Server\include\i3Base\tinyxml.h
;	COMDAT ??0TiXmlUnknown@@QAE@XZ
_TEXT	SEGMENT
_this$ = -4						; size = 4
??0TiXmlUnknown@@QAE@XZ PROC				; TiXmlUnknown::TiXmlUnknown, COMDAT
; _this$ = ecx

; 1359 : 	TiXmlUnknown() : TiXmlNode( TiXmlNode::UNKNOWN )	{}

  00000	55		 push	 ebp
  00001	8b ec		 mov	 ebp, esp
  00003	51		 push	 ecx
  00004	56		 push	 esi
  00005	8b f1		 mov	 esi, ecx
  00007	6a 03		 push	 3
  00009	89 75 fc	 mov	 DWORD PTR _this$[ebp], esi
  0000c	e8 00 00 00 00	 call	 ??0TiXmlNode@@IAE@W4NodeType@0@@Z ; TiXmlNode::TiXmlNode
  00011	c7 06 00 00 00
	00		 mov	 DWORD PTR [esi], OFFSET ??_7TiXmlUnknown@@6B@
  00017	8b c6		 mov	 eax, esi
  00019	5e		 pop	 esi
  0001a	8b e5		 mov	 esp, ebp
  0001c	5d		 pop	 ebp
  0001d	c3		 ret	 0
??0TiXmlUnknown@@QAE@XZ ENDP				; TiXmlUnknown::TiXmlUnknown
_TEXT	ENDS
; Function compile flags: /Ogtp
; File E:\Proyectos\JuegosOnlineproyectos\PB\pbblow\Piercing Blow Remake\i3Server\include\i3Base\tinyxml.h
; File E:\Proyectos\JuegosOnlineproyectos\PB\pbblow\Piercing Blow Remake\i3Server\include\i3Base\tinystr.h
; File E:\Proyectos\JuegosOnlineproyectos\PB\pbblow\Piercing Blow Remake\i3Server\include\i3Base\tinyxml.h
;	COMDAT ??_ETiXmlDeclaration@@UAEPAXI@Z
_TEXT	SEGMENT
__$EHRec$ = -12						; size = 12
___flags$ = 8						; size = 4
??_ETiXmlDeclaration@@UAEPAXI@Z PROC			; TiXmlDeclaration::`vector deleting destructor', COMDAT
; _this$ = ecx
  00000	55		 push	 ebp
  00001	8b ec		 mov	 ebp, esp
  00003	6a ff		 push	 -1
  00005	68 00 00 00 00	 push	 __ehhandler$??_ETiXmlDeclaration@@UAEPAXI@Z
  0000a	64 a1 00 00 00
	00		 mov	 eax, DWORD PTR fs:0
  00010	50		 push	 eax
  00011	53		 push	 ebx
  00012	56		 push	 esi
  00013	57		 push	 edi
  00014	a1 00 00 00 00	 mov	 eax, DWORD PTR ___security_cookie
  00019	33 c5		 xor	 eax, ebp
  0001b	50		 push	 eax
  0001c	8d 45 f4	 lea	 eax, DWORD PTR __$EHRec$[ebp]
  0001f	64 a3 00 00 00
	00		 mov	 DWORD PTR fs:0, eax
  00025	8b f1		 mov	 esi, ecx
  00027	8b 5d 08	 mov	 ebx, DWORD PTR ___flags$[ebp]
  0002a	f6 c3 02	 test	 bl, 2
  0002d	74 4a		 je	 SHORT $LN2@vector
  0002f	68 00 00 00 00	 push	 OFFSET ??1TiXmlDeclaration@@UAE@XZ ; TiXmlDeclaration::~TiXmlDeclaration
  00034	ff 76 fc	 push	 DWORD PTR [esi-4]
  00037	8d 7e fc	 lea	 edi, DWORD PTR [esi-4]
  0003a	6a 38		 push	 56			; 00000038H
  0003c	56		 push	 esi
  0003d	e8 00 00 00 00	 call	 ??_M@YGXPAXIIP6EX0@Z@Z
  00042	f6 c3 01	 test	 bl, 1
  00045	74 1c		 je	 SHORT $LN3@vector
  00047	8b 0f		 mov	 ecx, DWORD PTR [edi]
  00049	8d 14 cd 00 00
	00 00		 lea	 edx, DWORD PTR [ecx*8]
  00050	2b d1		 sub	 edx, ecx
  00052	8d 0c d5 04 00
	00 00		 lea	 ecx, DWORD PTR [edx*8+4]
  00059	51		 push	 ecx
  0005a	57		 push	 edi
  0005b	e8 00 00 00 00	 call	 ??_V@YAXPAXI@Z		; operator delete[]
  00060	83 c4 08	 add	 esp, 8
$LN3@vector:
  00063	8b c7		 mov	 eax, edi
  00065	8b 4d f4	 mov	 ecx, DWORD PTR __$EHRec$[ebp]
  00068	64 89 0d 00 00
	00 00		 mov	 DWORD PTR fs:0, ecx
  0006f	59		 pop	 ecx
  00070	5f		 pop	 edi
  00071	5e		 pop	 esi
  00072	5b		 pop	 ebx
  00073	8b e5		 mov	 esp, ebp
  00075	5d		 pop	 ebp
  00076	c2 04 00	 ret	 4
$LN2@vector:

; 1308 : 	virtual ~TiXmlDeclaration()	{}

  00079	c7 06 00 00 00
	00		 mov	 DWORD PTR [esi], OFFSET ??_7TiXmlDeclaration@@6B@
; File E:\Proyectos\JuegosOnlineproyectos\PB\pbblow\Piercing Blow Remake\i3Server\include\i3Base\tinystr.h

; 257  : 		if (rep_ != &nullrep_)

  0007f	8b 46 34	 mov	 eax, DWORD PTR [esi+52]
  00082	3d 00 00 00 00	 cmp	 eax, OFFSET ?nullrep_@TiXmlString@@0URep@1@A ; TiXmlString::nullrep_
  00087	74 09		 je	 SHORT $LN16@vector

; 258  : 		{
; 259  : 			// The rep_ is really an array of ints. (see the allocator, above).
; 260  : 			// Cast it back before delete, so the compiler won't incorrectly call destructors.
; 261  : 			delete [] ( reinterpret_cast<int*>( rep_ ) );

  00089	50		 push	 eax
  0008a	e8 00 00 00 00	 call	 ??_V@YAXPAX@Z		; operator delete[]
  0008f	83 c4 04	 add	 esp, 4
$LN16@vector:

; 257  : 		if (rep_ != &nullrep_)

  00092	8b 46 30	 mov	 eax, DWORD PTR [esi+48]
  00095	3d 00 00 00 00	 cmp	 eax, OFFSET ?nullrep_@TiXmlString@@0URep@1@A ; TiXmlString::nullrep_
  0009a	74 09		 je	 SHORT $LN22@vector

; 258  : 		{
; 259  : 			// The rep_ is really an array of ints. (see the allocator, above).
; 260  : 			// Cast it back before delete, so the compiler won't incorrectly call destructors.
; 261  : 			delete [] ( reinterpret_cast<int*>( rep_ ) );

  0009c	50		 push	 eax
  0009d	e8 00 00 00 00	 call	 ??_V@YAXPAX@Z		; operator delete[]
  000a2	83 c4 04	 add	 esp, 4
$LN22@vector:

; 257  : 		if (rep_ != &nullrep_)

  000a5	8b 46 2c	 mov	 eax, DWORD PTR [esi+44]
  000a8	3d 00 00 00 00	 cmp	 eax, OFFSET ?nullrep_@TiXmlString@@0URep@1@A ; TiXmlString::nullrep_
  000ad	74 09		 je	 SHORT $LN28@vector

; 258  : 		{
; 259  : 			// The rep_ is really an array of ints. (see the allocator, above).
; 260  : 			// Cast it back before delete, so the compiler won't incorrectly call destructors.
; 261  : 			delete [] ( reinterpret_cast<int*>( rep_ ) );

  000af	50		 push	 eax
  000b0	e8 00 00 00 00	 call	 ??_V@YAXPAX@Z		; operator delete[]
  000b5	83 c4 04	 add	 esp, 4
$LN28@vector:
; File E:\Proyectos\JuegosOnlineproyectos\PB\pbblow\Piercing Blow Remake\i3Server\include\i3Base\tinyxml.h

; 1308 : 	virtual ~TiXmlDeclaration()	{}

  000b8	8b ce		 mov	 ecx, esi
  000ba	e8 00 00 00 00	 call	 ??1TiXmlNode@@UAE@XZ	; TiXmlNode::~TiXmlNode
  000bf	f6 c3 01	 test	 bl, 1
  000c2	74 0b		 je	 SHORT $LN4@vector
  000c4	6a 38		 push	 56			; 00000038H
  000c6	56		 push	 esi
  000c7	e8 00 00 00 00	 call	 ??3@YAXPAXI@Z		; operator delete
  000cc	83 c4 08	 add	 esp, 8
$LN4@vector:
  000cf	8b c6		 mov	 eax, esi
  000d1	8b 4d f4	 mov	 ecx, DWORD PTR __$EHRec$[ebp]
  000d4	64 89 0d 00 00
	00 00		 mov	 DWORD PTR fs:0, ecx
  000db	59		 pop	 ecx
  000dc	5f		 pop	 edi
  000dd	5e		 pop	 esi
  000de	5b		 pop	 ebx
  000df	8b e5		 mov	 esp, ebp
  000e1	5d		 pop	 ebp
  000e2	c2 04 00	 ret	 4
  000e5	cc		 int	 3
  000e6	cc		 int	 3
  000e7	cc		 int	 3
  000e8	cc		 int	 3
  000e9	cc		 int	 3
_TEXT	ENDS
;	COMDAT text$x
text$x	SEGMENT
__ehhandler$??_ETiXmlDeclaration@@UAEPAXI@Z:
  00000	90		 npad	 1
  00001	90		 npad	 1
  00002	8b 54 24 08	 mov	 edx, DWORD PTR [esp+8]
  00006	8d 42 0c	 lea	 eax, DWORD PTR [edx+12]
  00009	8b 4a f0	 mov	 ecx, DWORD PTR [edx-16]
  0000c	33 c8		 xor	 ecx, eax
  0000e	e8 00 00 00 00	 call	 @__security_check_cookie@4
  00013	b8 00 00 00 00	 mov	 eax, OFFSET __ehfuncinfo$??_ETiXmlDeclaration@@UAEPAXI@Z
  00018	e9 00 00 00 00	 jmp	 ___CxxFrameHandler3
text$x	ENDS
??_ETiXmlDeclaration@@UAEPAXI@Z ENDP			; TiXmlDeclaration::`vector deleting destructor'
; Function compile flags: /Ogtp
; File E:\Proyectos\JuegosOnlineproyectos\PB\pbblow\Piercing Blow Remake\i3Server\include\i3Base\tinyxml.h
; File E:\Proyectos\JuegosOnlineproyectos\PB\pbblow\Piercing Blow Remake\i3Server\include\i3Base\tinystr.h
; File E:\Proyectos\JuegosOnlineproyectos\PB\pbblow\Piercing Blow Remake\i3Server\include\i3Base\tinyxml.h
;	COMDAT ??_GTiXmlDeclaration@@UAEPAXI@Z
_TEXT	SEGMENT
___flags$ = 8						; size = 4
??_GTiXmlDeclaration@@UAEPAXI@Z PROC			; TiXmlDeclaration::`scalar deleting destructor', COMDAT
; _this$ = ecx
  00000	55		 push	 ebp
  00001	8b ec		 mov	 ebp, esp

; 1308 : 	virtual ~TiXmlDeclaration()	{}

  00003	56		 push	 esi
  00004	8b f1		 mov	 esi, ecx
  00006	c7 06 00 00 00
	00		 mov	 DWORD PTR [esi], OFFSET ??_7TiXmlDeclaration@@6B@
; File E:\Proyectos\JuegosOnlineproyectos\PB\pbblow\Piercing Blow Remake\i3Server\include\i3Base\tinystr.h

; 257  : 		if (rep_ != &nullrep_)

  0000c	8b 46 34	 mov	 eax, DWORD PTR [esi+52]
  0000f	3d 00 00 00 00	 cmp	 eax, OFFSET ?nullrep_@TiXmlString@@0URep@1@A ; TiXmlString::nullrep_
  00014	74 09		 je	 SHORT $LN14@scalar

; 258  : 		{
; 259  : 			// The rep_ is really an array of ints. (see the allocator, above).
; 260  : 			// Cast it back before delete, so the compiler won't incorrectly call destructors.
; 261  : 			delete [] ( reinterpret_cast<int*>( rep_ ) );

  00016	50		 push	 eax
  00017	e8 00 00 00 00	 call	 ??_V@YAXPAX@Z		; operator delete[]
  0001c	83 c4 04	 add	 esp, 4
$LN14@scalar:

; 257  : 		if (rep_ != &nullrep_)

  0001f	8b 46 30	 mov	 eax, DWORD PTR [esi+48]
  00022	3d 00 00 00 00	 cmp	 eax, OFFSET ?nullrep_@TiXmlString@@0URep@1@A ; TiXmlString::nullrep_
  00027	74 09		 je	 SHORT $LN20@scalar

; 258  : 		{
; 259  : 			// The rep_ is really an array of ints. (see the allocator, above).
; 260  : 			// Cast it back before delete, so the compiler won't incorrectly call destructors.
; 261  : 			delete [] ( reinterpret_cast<int*>( rep_ ) );

  00029	50		 push	 eax
  0002a	e8 00 00 00 00	 call	 ??_V@YAXPAX@Z		; operator delete[]
  0002f	83 c4 04	 add	 esp, 4
$LN20@scalar:

; 257  : 		if (rep_ != &nullrep_)

  00032	8b 46 2c	 mov	 eax, DWORD PTR [esi+44]
  00035	3d 00 00 00 00	 cmp	 eax, OFFSET ?nullrep_@TiXmlString@@0URep@1@A ; TiXmlString::nullrep_
  0003a	74 09		 je	 SHORT $LN26@scalar

; 258  : 		{
; 259  : 			// The rep_ is really an array of ints. (see the allocator, above).
; 260  : 			// Cast it back before delete, so the compiler won't incorrectly call destructors.
; 261  : 			delete [] ( reinterpret_cast<int*>( rep_ ) );

  0003c	50		 push	 eax
  0003d	e8 00 00 00 00	 call	 ??_V@YAXPAX@Z		; operator delete[]
  00042	83 c4 04	 add	 esp, 4
$LN26@scalar:
; File E:\Proyectos\JuegosOnlineproyectos\PB\pbblow\Piercing Blow Remake\i3Server\include\i3Base\tinyxml.h

; 1308 : 	virtual ~TiXmlDeclaration()	{}

  00045	8b ce		 mov	 ecx, esi
  00047	e8 00 00 00 00	 call	 ??1TiXmlNode@@UAE@XZ	; TiXmlNode::~TiXmlNode
  0004c	f6 45 08 01	 test	 BYTE PTR ___flags$[ebp], 1
  00050	74 0b		 je	 SHORT $LN28@scalar
  00052	6a 38		 push	 56			; 00000038H
  00054	56		 push	 esi
  00055	e8 00 00 00 00	 call	 ??3@YAXPAXI@Z		; operator delete
  0005a	83 c4 08	 add	 esp, 8
$LN28@scalar:
  0005d	8b c6		 mov	 eax, esi
  0005f	5e		 pop	 esi
  00060	5d		 pop	 ebp
  00061	c2 04 00	 ret	 4
??_GTiXmlDeclaration@@UAEPAXI@Z ENDP			; TiXmlDeclaration::`scalar deleting destructor'
_TEXT	ENDS
; Function compile flags: /Ogtp
; File E:\Proyectos\JuegosOnlineproyectos\PB\pbblow\Piercing Blow Remake\i3Server\include\i3Base\tinyxml.h
;	COMDAT ?ToDeclaration@TiXmlDeclaration@@UAEPAV1@XZ
_TEXT	SEGMENT
?ToDeclaration@TiXmlDeclaration@@UAEPAV1@XZ PROC	; TiXmlDeclaration::ToDeclaration, COMDAT
; _this$ = ecx

; 1328 : 	virtual TiXmlDeclaration*       ToDeclaration()       { return this; } ///< Cast to a more defined type. Will return null not of the requested type.

  00000	8b c1		 mov	 eax, ecx
  00002	c3		 ret	 0
?ToDeclaration@TiXmlDeclaration@@UAEPAV1@XZ ENDP	; TiXmlDeclaration::ToDeclaration
_TEXT	ENDS
; Function compile flags: /Ogtp
; File E:\Proyectos\JuegosOnlineproyectos\PB\pbblow\Piercing Blow Remake\i3Server\include\i3Base\tinyxml.h
;	COMDAT ?ToDeclaration@TiXmlDeclaration@@UBEPBV1@XZ
_TEXT	SEGMENT
?ToDeclaration@TiXmlDeclaration@@UBEPBV1@XZ PROC	; TiXmlDeclaration::ToDeclaration, COMDAT
; _this$ = ecx

; 1327 : 	virtual const TiXmlDeclaration* ToDeclaration() const { return this; } ///< Cast to a more defined type. Will return null not of the requested type.

  00000	8b c1		 mov	 eax, ecx
  00002	c3		 ret	 0
?ToDeclaration@TiXmlDeclaration@@UBEPBV1@XZ ENDP	; TiXmlDeclaration::ToDeclaration
_TEXT	ENDS
; Function compile flags: /Ogtp
; File E:\Proyectos\JuegosOnlineproyectos\PB\pbblow\Piercing Blow Remake\i3Server\include\i3Base\tinyxml.h
;	COMDAT ?Print@TiXmlDeclaration@@UBEXPAVi3FileStream@@H@Z
_TEXT	SEGMENT
_cfile$ = 8						; size = 4
_depth$ = 12						; size = 4
?Print@TiXmlDeclaration@@UBEXPAVi3FileStream@@H@Z PROC	; TiXmlDeclaration::Print, COMDAT
; _this$ = ecx

; 1321 : 	virtual void Print( i3FileStream* cfile, int depth ) const {

  00000	55		 push	 ebp
  00001	8b ec		 mov	 ebp, esp

; 1322 : 		Print( cfile, depth, 0 );

  00003	8b 01		 mov	 eax, DWORD PTR [ecx]
  00005	6a 00		 push	 0
  00007	ff 75 0c	 push	 DWORD PTR _depth$[ebp]
  0000a	ff 75 08	 push	 DWORD PTR _cfile$[ebp]
  0000d	ff 50 44	 call	 DWORD PTR [eax+68]

; 1323 : 	}

  00010	5d		 pop	 ebp
  00011	c2 08 00	 ret	 8
?Print@TiXmlDeclaration@@UBEXPAVi3FileStream@@H@Z ENDP	; TiXmlDeclaration::Print
_TEXT	ENDS
; Function compile flags: /Ogtp
; File E:\Proyectos\JuegosOnlineproyectos\PB\pbblow\Piercing Blow Remake\i3Server\include\i3Base\tinyxml.h
; File E:\Proyectos\JuegosOnlineproyectos\PB\pbblow\Piercing Blow Remake\i3Server\include\i3Base\tinystr.h
; File E:\Proyectos\JuegosOnlineproyectos\PB\pbblow\Piercing Blow Remake\i3Server\include\i3Base\tinyxml.h
;	COMDAT ?Standalone@TiXmlDeclaration@@QBEPBDXZ
_TEXT	SEGMENT
?Standalone@TiXmlDeclaration@@QBEPBDXZ PROC		; TiXmlDeclaration::Standalone, COMDAT
; _this$ = ecx
; File E:\Proyectos\JuegosOnlineproyectos\PB\pbblow\Piercing Blow Remake\i3Server\include\i3Base\tinystr.h

; 144  : 	const char * c_str () const { return rep_->str; }

  00000	8b 41 34	 mov	 eax, DWORD PTR [ecx+52]
  00003	83 c0 08	 add	 eax, 8
; File E:\Proyectos\JuegosOnlineproyectos\PB\pbblow\Piercing Blow Remake\i3Server\include\i3Base\tinyxml.h

; 1315 : 	const char *Standalone() const		{ return standalone.c_str (); }

  00006	c3		 ret	 0
?Standalone@TiXmlDeclaration@@QBEPBDXZ ENDP		; TiXmlDeclaration::Standalone
_TEXT	ENDS
; Function compile flags: /Ogtp
; File E:\Proyectos\JuegosOnlineproyectos\PB\pbblow\Piercing Blow Remake\i3Server\include\i3Base\tinyxml.h
; File E:\Proyectos\JuegosOnlineproyectos\PB\pbblow\Piercing Blow Remake\i3Server\include\i3Base\tinystr.h
; File E:\Proyectos\JuegosOnlineproyectos\PB\pbblow\Piercing Blow Remake\i3Server\include\i3Base\tinyxml.h
;	COMDAT ?Encoding@TiXmlDeclaration@@QBEPBDXZ
_TEXT	SEGMENT
?Encoding@TiXmlDeclaration@@QBEPBDXZ PROC		; TiXmlDeclaration::Encoding, COMDAT
; _this$ = ecx
; File E:\Proyectos\JuegosOnlineproyectos\PB\pbblow\Piercing Blow Remake\i3Server\include\i3Base\tinystr.h

; 144  : 	const char * c_str () const { return rep_->str; }

  00000	8b 41 30	 mov	 eax, DWORD PTR [ecx+48]
  00003	83 c0 08	 add	 eax, 8
; File E:\Proyectos\JuegosOnlineproyectos\PB\pbblow\Piercing Blow Remake\i3Server\include\i3Base\tinyxml.h

; 1313 : 	const char *Encoding() const		{ return encoding.c_str (); }

  00006	c3		 ret	 0
?Encoding@TiXmlDeclaration@@QBEPBDXZ ENDP		; TiXmlDeclaration::Encoding
_TEXT	ENDS
; Function compile flags: /Ogtp
; File E:\Proyectos\JuegosOnlineproyectos\PB\pbblow\Piercing Blow Remake\i3Server\include\i3Base\tinyxml.h
; File E:\Proyectos\JuegosOnlineproyectos\PB\pbblow\Piercing Blow Remake\i3Server\include\i3Base\tinystr.h
; File E:\Proyectos\JuegosOnlineproyectos\PB\pbblow\Piercing Blow Remake\i3Server\include\i3Base\tinyxml.h
;	COMDAT ?Version@TiXmlDeclaration@@QBEPBDXZ
_TEXT	SEGMENT
?Version@TiXmlDeclaration@@QBEPBDXZ PROC		; TiXmlDeclaration::Version, COMDAT
; _this$ = ecx
; File E:\Proyectos\JuegosOnlineproyectos\PB\pbblow\Piercing Blow Remake\i3Server\include\i3Base\tinystr.h

; 144  : 	const char * c_str () const { return rep_->str; }

  00000	8b 41 2c	 mov	 eax, DWORD PTR [ecx+44]
  00003	83 c0 08	 add	 eax, 8
; File E:\Proyectos\JuegosOnlineproyectos\PB\pbblow\Piercing Blow Remake\i3Server\include\i3Base\tinyxml.h

; 1311 : 	const char *Version() const			{ return version.c_str (); }

  00006	c3		 ret	 0
?Version@TiXmlDeclaration@@QBEPBDXZ ENDP		; TiXmlDeclaration::Version
_TEXT	ENDS
; Function compile flags: /Ogtp
; File E:\Proyectos\JuegosOnlineproyectos\PB\pbblow\Piercing Blow Remake\i3Server\include\i3Base\tinyxml.h
; File E:\Proyectos\JuegosOnlineproyectos\PB\pbblow\Piercing Blow Remake\i3Server\include\i3Base\tinystr.h
; File E:\Proyectos\JuegosOnlineproyectos\PB\pbblow\Piercing Blow Remake\i3Server\include\i3Base\tinyxml.h
;	COMDAT ??1TiXmlDeclaration@@UAE@XZ
_TEXT	SEGMENT
??1TiXmlDeclaration@@UAE@XZ PROC			; TiXmlDeclaration::~TiXmlDeclaration, COMDAT
; _this$ = ecx

; 1308 : 	virtual ~TiXmlDeclaration()	{}

  00000	56		 push	 esi
  00001	8b f1		 mov	 esi, ecx
  00003	c7 06 00 00 00
	00		 mov	 DWORD PTR [esi], OFFSET ??_7TiXmlDeclaration@@6B@
; File E:\Proyectos\JuegosOnlineproyectos\PB\pbblow\Piercing Blow Remake\i3Server\include\i3Base\tinystr.h

; 257  : 		if (rep_ != &nullrep_)

  00009	8b 46 34	 mov	 eax, DWORD PTR [esi+52]
  0000c	3d 00 00 00 00	 cmp	 eax, OFFSET ?nullrep_@TiXmlString@@0URep@1@A ; TiXmlString::nullrep_
  00011	74 09		 je	 SHORT $LN8@TiXmlDecla

; 258  : 		{
; 259  : 			// The rep_ is really an array of ints. (see the allocator, above).
; 260  : 			// Cast it back before delete, so the compiler won't incorrectly call destructors.
; 261  : 			delete [] ( reinterpret_cast<int*>( rep_ ) );

  00013	50		 push	 eax
  00014	e8 00 00 00 00	 call	 ??_V@YAXPAX@Z		; operator delete[]
  00019	83 c4 04	 add	 esp, 4
$LN8@TiXmlDecla:

; 257  : 		if (rep_ != &nullrep_)

  0001c	8b 46 30	 mov	 eax, DWORD PTR [esi+48]
  0001f	3d 00 00 00 00	 cmp	 eax, OFFSET ?nullrep_@TiXmlString@@0URep@1@A ; TiXmlString::nullrep_
  00024	74 09		 je	 SHORT $LN14@TiXmlDecla

; 258  : 		{
; 259  : 			// The rep_ is really an array of ints. (see the allocator, above).
; 260  : 			// Cast it back before delete, so the compiler won't incorrectly call destructors.
; 261  : 			delete [] ( reinterpret_cast<int*>( rep_ ) );

  00026	50		 push	 eax
  00027	e8 00 00 00 00	 call	 ??_V@YAXPAX@Z		; operator delete[]
  0002c	83 c4 04	 add	 esp, 4
$LN14@TiXmlDecla:

; 257  : 		if (rep_ != &nullrep_)

  0002f	8b 46 2c	 mov	 eax, DWORD PTR [esi+44]
  00032	3d 00 00 00 00	 cmp	 eax, OFFSET ?nullrep_@TiXmlString@@0URep@1@A ; TiXmlString::nullrep_
  00037	74 09		 je	 SHORT $LN20@TiXmlDecla

; 258  : 		{
; 259  : 			// The rep_ is really an array of ints. (see the allocator, above).
; 260  : 			// Cast it back before delete, so the compiler won't incorrectly call destructors.
; 261  : 			delete [] ( reinterpret_cast<int*>( rep_ ) );

  00039	50		 push	 eax
  0003a	e8 00 00 00 00	 call	 ??_V@YAXPAX@Z		; operator delete[]
  0003f	83 c4 04	 add	 esp, 4
$LN20@TiXmlDecla:
; File E:\Proyectos\JuegosOnlineproyectos\PB\pbblow\Piercing Blow Remake\i3Server\include\i3Base\tinyxml.h

; 1308 : 	virtual ~TiXmlDeclaration()	{}

  00042	8b ce		 mov	 ecx, esi
  00044	5e		 pop	 esi
  00045	e9 00 00 00 00	 jmp	 ??1TiXmlNode@@UAE@XZ	; TiXmlNode::~TiXmlNode
??1TiXmlDeclaration@@UAE@XZ ENDP			; TiXmlDeclaration::~TiXmlDeclaration
_TEXT	ENDS
; Function compile flags: /Ogtp
; File E:\Proyectos\JuegosOnlineproyectos\PB\pbblow\Piercing Blow Remake\i3Server\include\i3Base\tinyxml.h
; File E:\Proyectos\JuegosOnlineproyectos\PB\pbblow\Piercing Blow Remake\i3Server\include\i3Base\tinystr.h
; File E:\Proyectos\JuegosOnlineproyectos\PB\pbblow\Piercing Blow Remake\i3Server\include\i3Base\tinyxml.h
;	COMDAT ??0TiXmlDeclaration@@QAE@XZ
_TEXT	SEGMENT
_this$ = -4						; size = 4
??0TiXmlDeclaration@@QAE@XZ PROC			; TiXmlDeclaration::TiXmlDeclaration, COMDAT
; _this$ = ecx

; 1291 : 	TiXmlDeclaration()   : TiXmlNode( TiXmlNode::DECLARATION ) {}

  00000	55		 push	 ebp
  00001	8b ec		 mov	 ebp, esp
  00003	51		 push	 ecx
  00004	56		 push	 esi
  00005	8b f1		 mov	 esi, ecx
  00007	6a 05		 push	 5
  00009	89 75 fc	 mov	 DWORD PTR _this$[ebp], esi
  0000c	e8 00 00 00 00	 call	 ??0TiXmlNode@@IAE@W4NodeType@0@@Z ; TiXmlNode::TiXmlNode
  00011	c7 06 00 00 00
	00		 mov	 DWORD PTR [esi], OFFSET ??_7TiXmlDeclaration@@6B@
  00017	8b c6		 mov	 eax, esi
; File E:\Proyectos\JuegosOnlineproyectos\PB\pbblow\Piercing Blow Remake\i3Server\include\i3Base\tinystr.h

; 80   : 	TiXmlString () : rep_(&nullrep_)

  00019	c7 46 2c 00 00
	00 00		 mov	 DWORD PTR [esi+44], OFFSET ?nullrep_@TiXmlString@@0URep@1@A ; TiXmlString::nullrep_
  00020	c7 46 30 00 00
	00 00		 mov	 DWORD PTR [esi+48], OFFSET ?nullrep_@TiXmlString@@0URep@1@A ; TiXmlString::nullrep_
  00027	c7 46 34 00 00
	00 00		 mov	 DWORD PTR [esi+52], OFFSET ?nullrep_@TiXmlString@@0URep@1@A ; TiXmlString::nullrep_
; File E:\Proyectos\JuegosOnlineproyectos\PB\pbblow\Piercing Blow Remake\i3Server\include\i3Base\tinyxml.h

; 1291 : 	TiXmlDeclaration()   : TiXmlNode( TiXmlNode::DECLARATION ) {}

  0002e	5e		 pop	 esi
  0002f	8b e5		 mov	 esp, ebp
  00031	5d		 pop	 ebp
  00032	c3		 ret	 0
??0TiXmlDeclaration@@QAE@XZ ENDP			; TiXmlDeclaration::TiXmlDeclaration
_TEXT	ENDS
; Function compile flags: /Ogtp
; File E:\Proyectos\JuegosOnlineproyectos\PB\pbblow\Piercing Blow Remake\i3Server\include\i3Base\tinyxml.h
;	COMDAT ??_ETiXmlText@@UAEPAXI@Z
_TEXT	SEGMENT
__$EHRec$ = -12						; size = 12
___flags$ = 8						; size = 4
??_ETiXmlText@@UAEPAXI@Z PROC				; TiXmlText::`vector deleting destructor', COMDAT
; _this$ = ecx
  00000	55		 push	 ebp
  00001	8b ec		 mov	 ebp, esp
  00003	6a ff		 push	 -1
  00005	68 00 00 00 00	 push	 __ehhandler$??_ETiXmlText@@UAEPAXI@Z
  0000a	64 a1 00 00 00
	00		 mov	 eax, DWORD PTR fs:0
  00010	50		 push	 eax
  00011	53		 push	 ebx
  00012	56		 push	 esi
  00013	57		 push	 edi
  00014	a1 00 00 00 00	 mov	 eax, DWORD PTR ___security_cookie
  00019	33 c5		 xor	 eax, ebp
  0001b	50		 push	 eax
  0001c	8d 45 f4	 lea	 eax, DWORD PTR __$EHRec$[ebp]
  0001f	64 a3 00 00 00
	00		 mov	 DWORD PTR fs:0, eax
  00025	8b f1		 mov	 esi, ecx
  00027	8b 45 08	 mov	 eax, DWORD PTR ___flags$[ebp]
  0002a	8b f8		 mov	 edi, eax
  0002c	83 e7 01	 and	 edi, 1
  0002f	a8 02		 test	 al, 2
  00031	74 42		 je	 SHORT $LN2@vector
  00033	68 00 00 00 00	 push	 OFFSET ??1TiXmlText@@UAE@XZ ; TiXmlText::~TiXmlText
  00038	ff 76 fc	 push	 DWORD PTR [esi-4]
  0003b	8d 5e fc	 lea	 ebx, DWORD PTR [esi-4]
  0003e	6a 30		 push	 48			; 00000030H
  00040	56		 push	 esi
  00041	e8 00 00 00 00	 call	 ??_M@YGXPAXIIP6EX0@Z@Z
  00046	85 ff		 test	 edi, edi
  00048	74 15		 je	 SHORT $LN3@vector
  0004a	8b 0b		 mov	 ecx, DWORD PTR [ebx]
  0004c	8d 0c 49	 lea	 ecx, DWORD PTR [ecx+ecx*2]
  0004f	c1 e1 04	 shl	 ecx, 4
  00052	83 c1 04	 add	 ecx, 4
  00055	51		 push	 ecx
  00056	53		 push	 ebx
  00057	e8 00 00 00 00	 call	 ??_V@YAXPAXI@Z		; operator delete[]
  0005c	83 c4 08	 add	 esp, 8
$LN3@vector:
  0005f	8b c3		 mov	 eax, ebx
  00061	8b 4d f4	 mov	 ecx, DWORD PTR __$EHRec$[ebp]
  00064	64 89 0d 00 00
	00 00		 mov	 DWORD PTR fs:0, ecx
  0006b	59		 pop	 ecx
  0006c	5f		 pop	 edi
  0006d	5e		 pop	 esi
  0006e	5b		 pop	 ebx
  0006f	8b e5		 mov	 esp, ebp
  00071	5d		 pop	 ebp
  00072	c2 04 00	 ret	 4
$LN2@vector:

; 1227 : 	virtual ~TiXmlText() {}

  00075	c7 06 00 00 00
	00		 mov	 DWORD PTR [esi], OFFSET ??_7TiXmlText@@6B@
  0007b	e8 00 00 00 00	 call	 ??1TiXmlNode@@UAE@XZ	; TiXmlNode::~TiXmlNode
  00080	85 ff		 test	 edi, edi
  00082	74 0b		 je	 SHORT $LN4@vector
  00084	6a 30		 push	 48			; 00000030H
  00086	56		 push	 esi
  00087	e8 00 00 00 00	 call	 ??3@YAXPAXI@Z		; operator delete
  0008c	83 c4 08	 add	 esp, 8
$LN4@vector:
  0008f	8b c6		 mov	 eax, esi
  00091	8b 4d f4	 mov	 ecx, DWORD PTR __$EHRec$[ebp]
  00094	64 89 0d 00 00
	00 00		 mov	 DWORD PTR fs:0, ecx
  0009b	59		 pop	 ecx
  0009c	5f		 pop	 edi
  0009d	5e		 pop	 esi
  0009e	5b		 pop	 ebx
  0009f	8b e5		 mov	 esp, ebp
  000a1	5d		 pop	 ebp
  000a2	c2 04 00	 ret	 4
  000a5	cc		 int	 3
  000a6	cc		 int	 3
  000a7	cc		 int	 3
  000a8	cc		 int	 3
  000a9	cc		 int	 3
_TEXT	ENDS
;	COMDAT text$x
text$x	SEGMENT
__ehhandler$??_ETiXmlText@@UAEPAXI@Z:
  00000	90		 npad	 1
  00001	90		 npad	 1
  00002	8b 54 24 08	 mov	 edx, DWORD PTR [esp+8]
  00006	8d 42 0c	 lea	 eax, DWORD PTR [edx+12]
  00009	8b 4a f0	 mov	 ecx, DWORD PTR [edx-16]
  0000c	33 c8		 xor	 ecx, eax
  0000e	e8 00 00 00 00	 call	 @__security_check_cookie@4
  00013	b8 00 00 00 00	 mov	 eax, OFFSET __ehfuncinfo$??_ETiXmlText@@UAEPAXI@Z
  00018	e9 00 00 00 00	 jmp	 ___CxxFrameHandler3
text$x	ENDS
??_ETiXmlText@@UAEPAXI@Z ENDP				; TiXmlText::`vector deleting destructor'
; Function compile flags: /Ogtp
; File E:\Proyectos\JuegosOnlineproyectos\PB\pbblow\Piercing Blow Remake\i3Server\include\i3Base\tinyxml.h
;	COMDAT ??_GTiXmlText@@UAEPAXI@Z
_TEXT	SEGMENT
___flags$ = 8						; size = 4
??_GTiXmlText@@UAEPAXI@Z PROC				; TiXmlText::`scalar deleting destructor', COMDAT
; _this$ = ecx
  00000	55		 push	 ebp
  00001	8b ec		 mov	 ebp, esp

; 1227 : 	virtual ~TiXmlText() {}

  00003	56		 push	 esi
  00004	8b f1		 mov	 esi, ecx
  00006	c7 06 00 00 00
	00		 mov	 DWORD PTR [esi], OFFSET ??_7TiXmlText@@6B@
  0000c	e8 00 00 00 00	 call	 ??1TiXmlNode@@UAE@XZ	; TiXmlNode::~TiXmlNode
  00011	f6 45 08 01	 test	 BYTE PTR ___flags$[ebp], 1
  00015	74 0b		 je	 SHORT $LN10@scalar
  00017	6a 30		 push	 48			; 00000030H
  00019	56		 push	 esi
  0001a	e8 00 00 00 00	 call	 ??3@YAXPAXI@Z		; operator delete
  0001f	83 c4 08	 add	 esp, 8
$LN10@scalar:
  00022	8b c6		 mov	 eax, esi
  00024	5e		 pop	 esi
  00025	5d		 pop	 ebp
  00026	c2 04 00	 ret	 4
??_GTiXmlText@@UAEPAXI@Z ENDP				; TiXmlText::`scalar deleting destructor'
_TEXT	ENDS
; Function compile flags: /Ogtp
; File E:\Proyectos\JuegosOnlineproyectos\PB\pbblow\Piercing Blow Remake\i3Server\include\i3Base\tinyxml.h
;	COMDAT ?ToText@TiXmlText@@UAEPAV1@XZ
_TEXT	SEGMENT
?ToText@TiXmlText@@UAEPAV1@XZ PROC			; TiXmlText::ToText, COMDAT
; _this$ = ecx

; 1252 : 	virtual TiXmlText*       ToText()       { return this; } ///< Cast to a more defined type. Will return null not of the requested type.

  00000	8b c1		 mov	 eax, ecx
  00002	c3		 ret	 0
?ToText@TiXmlText@@UAEPAV1@XZ ENDP			; TiXmlText::ToText
_TEXT	ENDS
; Function compile flags: /Ogtp
; File E:\Proyectos\JuegosOnlineproyectos\PB\pbblow\Piercing Blow Remake\i3Server\include\i3Base\tinyxml.h
;	COMDAT ?ToText@TiXmlText@@UBEPBV1@XZ
_TEXT	SEGMENT
?ToText@TiXmlText@@UBEPBV1@XZ PROC			; TiXmlText::ToText, COMDAT
; _this$ = ecx

; 1251 : 	virtual const TiXmlText* ToText() const { return this; } ///< Cast to a more defined type. Will return null not of the requested type.

  00000	8b c1		 mov	 eax, ecx
  00002	c3		 ret	 0
?ToText@TiXmlText@@UBEPBV1@XZ ENDP			; TiXmlText::ToText
_TEXT	ENDS
; Function compile flags: /Ogtp
; File E:\Proyectos\JuegosOnlineproyectos\PB\pbblow\Piercing Blow Remake\i3Server\include\i3Base\tinyxml.h
;	COMDAT ?SetCDATA@TiXmlText@@QAEX_N@Z
_TEXT	SEGMENT
__cdata$ = 8						; size = 1
?SetCDATA@TiXmlText@@QAEX_N@Z PROC			; TiXmlText::SetCDATA, COMDAT
; _this$ = ecx

; 1247 : 	void SetCDATA( bool _cdata )	{ cdata = _cdata; }

  00000	55		 push	 ebp
  00001	8b ec		 mov	 ebp, esp
  00003	8a 45 08	 mov	 al, BYTE PTR __cdata$[ebp]
  00006	88 41 2c	 mov	 BYTE PTR [ecx+44], al
  00009	5d		 pop	 ebp
  0000a	c2 04 00	 ret	 4
?SetCDATA@TiXmlText@@QAEX_N@Z ENDP			; TiXmlText::SetCDATA
_TEXT	ENDS
; Function compile flags: /Ogtp
; File E:\Proyectos\JuegosOnlineproyectos\PB\pbblow\Piercing Blow Remake\i3Server\include\i3Base\tinyxml.h
;	COMDAT ?CDATA@TiXmlText@@QBE_NXZ
_TEXT	SEGMENT
?CDATA@TiXmlText@@QBE_NXZ PROC				; TiXmlText::CDATA, COMDAT
; _this$ = ecx

; 1245 : 	bool CDATA() const				{ return cdata; }

  00000	8a 41 2c	 mov	 al, BYTE PTR [ecx+44]
  00003	c3		 ret	 0
?CDATA@TiXmlText@@QBE_NXZ ENDP				; TiXmlText::CDATA
_TEXT	ENDS
; Function compile flags: /Ogtp
; File E:\Proyectos\JuegosOnlineproyectos\PB\pbblow\Piercing Blow Remake\i3Server\include\i3Base\tinyxml.h
;	COMDAT ??4TiXmlText@@QAEXABV0@@Z
_TEXT	SEGMENT
_base$ = 8						; size = 4
??4TiXmlText@@QAEXABV0@@Z PROC				; TiXmlText::operator=, COMDAT
; _this$ = ecx

; 1239 : 	void operator=( const TiXmlText& base )							 	{ base.CopyTo( this ); }

  00000	55		 push	 ebp
  00001	8b ec		 mov	 ebp, esp
  00003	51		 push	 ecx
  00004	8b 4d 08	 mov	 ecx, DWORD PTR _base$[ebp]
  00007	e8 00 00 00 00	 call	 ?CopyTo@TiXmlText@@IBEXPAV1@@Z ; TiXmlText::CopyTo
  0000c	5d		 pop	 ebp
  0000d	c2 04 00	 ret	 4
??4TiXmlText@@QAEXABV0@@Z ENDP				; TiXmlText::operator=
_TEXT	ENDS
; Function compile flags: /Ogtp
; File E:\Proyectos\JuegosOnlineproyectos\PB\pbblow\Piercing Blow Remake\i3Server\include\i3Base\tinyxml.h
;	COMDAT ??0TiXmlText@@QAE@ABV0@@Z
_TEXT	SEGMENT
_this$ = -16						; size = 4
__$EHRec$ = -12						; size = 12
_copy$ = 8						; size = 4
??0TiXmlText@@QAE@ABV0@@Z PROC				; TiXmlText::TiXmlText, COMDAT
; _this$ = ecx

; 1238 : 	TiXmlText( const TiXmlText& copy ) : TiXmlNode( TiXmlNode::TEXT )	{ copy.CopyTo( this ); }

  00000	55		 push	 ebp
  00001	8b ec		 mov	 ebp, esp
  00003	6a ff		 push	 -1
  00005	68 00 00 00 00	 push	 __ehhandler$??0TiXmlText@@QAE@ABV0@@Z
  0000a	64 a1 00 00 00
	00		 mov	 eax, DWORD PTR fs:0
  00010	50		 push	 eax
  00011	51		 push	 ecx
  00012	56		 push	 esi
  00013	a1 00 00 00 00	 mov	 eax, DWORD PTR ___security_cookie
  00018	33 c5		 xor	 eax, ebp
  0001a	50		 push	 eax
  0001b	8d 45 f4	 lea	 eax, DWORD PTR __$EHRec$[ebp]
  0001e	64 a3 00 00 00
	00		 mov	 DWORD PTR fs:0, eax
  00024	8b f1		 mov	 esi, ecx
  00026	89 75 f0	 mov	 DWORD PTR _this$[ebp], esi
  00029	6a 04		 push	 4
  0002b	e8 00 00 00 00	 call	 ??0TiXmlNode@@IAE@W4NodeType@0@@Z ; TiXmlNode::TiXmlNode
  00030	8b 4d 08	 mov	 ecx, DWORD PTR _copy$[ebp]
  00033	56		 push	 esi
  00034	c7 45 fc 00 00
	00 00		 mov	 DWORD PTR __$EHRec$[ebp+8], 0
  0003b	c7 06 00 00 00
	00		 mov	 DWORD PTR [esi], OFFSET ??_7TiXmlText@@6B@
  00041	e8 00 00 00 00	 call	 ?CopyTo@TiXmlText@@IBEXPAV1@@Z ; TiXmlText::CopyTo
  00046	8b c6		 mov	 eax, esi
  00048	8b 4d f4	 mov	 ecx, DWORD PTR __$EHRec$[ebp]
  0004b	64 89 0d 00 00
	00 00		 mov	 DWORD PTR fs:0, ecx
  00052	59		 pop	 ecx
  00053	5e		 pop	 esi
  00054	8b e5		 mov	 esp, ebp
  00056	5d		 pop	 ebp
  00057	c2 04 00	 ret	 4
_TEXT	ENDS
;	COMDAT text$x
text$x	SEGMENT
__unwindfunclet$??0TiXmlText@@QAE@ABV0@@Z$0:
  00000	8b 4d f0	 mov	 ecx, DWORD PTR _this$[ebp]
  00003	e9 00 00 00 00	 jmp	 ??1TiXmlNode@@UAE@XZ	; TiXmlNode::~TiXmlNode
  00008	cc		 int	 3
  00009	cc		 int	 3
  0000a	cc		 int	 3
  0000b	cc		 int	 3
  0000c	cc		 int	 3
__ehhandler$??0TiXmlText@@QAE@ABV0@@Z:
  0000d	90		 npad	 1
  0000e	90		 npad	 1
  0000f	8b 54 24 08	 mov	 edx, DWORD PTR [esp+8]
  00013	8d 42 0c	 lea	 eax, DWORD PTR [edx+12]
  00016	8b 4a f4	 mov	 ecx, DWORD PTR [edx-12]
  00019	33 c8		 xor	 ecx, eax
  0001b	e8 00 00 00 00	 call	 @__security_check_cookie@4
  00020	b8 00 00 00 00	 mov	 eax, OFFSET __ehfuncinfo$??0TiXmlText@@QAE@ABV0@@Z
  00025	e9 00 00 00 00	 jmp	 ___CxxFrameHandler3
text$x	ENDS
??0TiXmlText@@QAE@ABV0@@Z ENDP				; TiXmlText::TiXmlText
; Function compile flags: /Ogtp
; File E:\Proyectos\JuegosOnlineproyectos\PB\pbblow\Piercing Blow Remake\i3Server\include\i3Base\tinyxml.h
;	COMDAT ??1TiXmlText@@UAE@XZ
_TEXT	SEGMENT
??1TiXmlText@@UAE@XZ PROC				; TiXmlText::~TiXmlText, COMDAT
; _this$ = ecx

; 1227 : 	virtual ~TiXmlText() {}

  00000	c7 01 00 00 00
	00		 mov	 DWORD PTR [ecx], OFFSET ??_7TiXmlText@@6B@
  00006	e9 00 00 00 00	 jmp	 ??1TiXmlNode@@UAE@XZ	; TiXmlNode::~TiXmlNode
??1TiXmlText@@UAE@XZ ENDP				; TiXmlText::~TiXmlText
_TEXT	ENDS
; Function compile flags: /Ogtp
; File E:\Proyectos\JuegosOnlineproyectos\PB\pbblow\Piercing Blow Remake\i3Server\include\i3Base\tinyxml.h
; File E:\Proyectos\JuegosOnlineproyectos\PB\pbblow\Piercing Blow Remake\i3Server\include\i3Base\tinystr.h
; File E:\Proyectos\JuegosOnlineproyectos\PB\pbblow\Piercing Blow Remake\i3Server\include\i3Base\tinyxml.h
; File E:\Proyectos\JuegosOnlineproyectos\PB\pbblow\Piercing Blow Remake\i3Server\include\i3Base\tinystr.h
; File E:\Proyectos\JuegosOnlineproyectos\PB\pbblow\Piercing Blow Remake\i3Server\include\i3Base\tinyxml.h
; File E:\Proyectos\JuegosOnlineproyectos\PB\pbblow\Piercing Blow Remake\i3Server\include\i3Base\tinystr.h
; File E:\Proyectos\JuegosOnlineproyectos\PB\pbblow\Piercing Blow Remake\i3Server\include\i3Base\tinyxml.h
;	COMDAT ??0TiXmlText@@QAE@PBD@Z
_TEXT	SEGMENT
_this$ = -16						; size = 4
__$EHRec$ = -12						; size = 12
_initValue$ = 8						; size = 4
??0TiXmlText@@QAE@PBD@Z PROC				; TiXmlText::TiXmlText, COMDAT
; _this$ = ecx

; 1223 : 	{

  00000	55		 push	 ebp
  00001	8b ec		 mov	 ebp, esp
  00003	6a ff		 push	 -1
  00005	68 00 00 00 00	 push	 __ehhandler$??0TiXmlText@@QAE@PBD@Z
  0000a	64 a1 00 00 00
	00		 mov	 eax, DWORD PTR fs:0
  00010	50		 push	 eax
  00011	51		 push	 ecx
  00012	56		 push	 esi
  00013	57		 push	 edi
  00014	a1 00 00 00 00	 mov	 eax, DWORD PTR ___security_cookie
  00019	33 c5		 xor	 eax, ebp
  0001b	50		 push	 eax
  0001c	8d 45 f4	 lea	 eax, DWORD PTR __$EHRec$[ebp]
  0001f	64 a3 00 00 00
	00		 mov	 DWORD PTR fs:0, eax
  00025	8b f1		 mov	 esi, ecx
  00027	89 75 f0	 mov	 DWORD PTR _this$[ebp], esi

; 1222 : 	TiXmlText (const char * initValue ) : TiXmlNode (TiXmlNode::TEXT)

  0002a	6a 04		 push	 4
  0002c	e8 00 00 00 00	 call	 ??0TiXmlNode@@IAE@W4NodeType@0@@Z ; TiXmlNode::TiXmlNode
; File E:\Proyectos\JuegosOnlineproyectos\PB\pbblow\Piercing Blow Remake\i3Server\include\i3Base\tinystr.h

; 114  : 		return assign( copy, (size_type)strlen(copy));

  00031	8b 55 08	 mov	 edx, DWORD PTR _initValue$[ebp]
  00034	8b c2		 mov	 eax, edx
; File E:\Proyectos\JuegosOnlineproyectos\PB\pbblow\Piercing Blow Remake\i3Server\include\i3Base\tinyxml.h

; 1222 : 	TiXmlText (const char * initValue ) : TiXmlNode (TiXmlNode::TEXT)

  00036	c7 45 fc 00 00
	00 00		 mov	 DWORD PTR __$EHRec$[ebp+8], 0

; 1223 : 	{

  0003d	c7 06 00 00 00
	00		 mov	 DWORD PTR [esi], OFFSET ??_7TiXmlText@@6B@
; File E:\Proyectos\JuegosOnlineproyectos\PB\pbblow\Piercing Blow Remake\i3Server\include\i3Base\tinystr.h

; 114  : 		return assign( copy, (size_type)strlen(copy));

  00043	8d 78 01	 lea	 edi, DWORD PTR [eax+1]
$LL8@TiXmlText:
  00046	8a 08		 mov	 cl, BYTE PTR [eax]
  00048	40		 inc	 eax
  00049	84 c9		 test	 cl, cl
  0004b	75 f9		 jne	 SHORT $LL8@TiXmlText
  0004d	2b c7		 sub	 eax, edi
; File E:\Proyectos\JuegosOnlineproyectos\PB\pbblow\Piercing Blow Remake\i3Server\include\i3Base\tinyxml.h

; 512  : 	void SetValue(const char * _value) { value = _value;}

  0004f	8d 4e 20	 lea	 ecx, DWORD PTR [esi+32]
; File E:\Proyectos\JuegosOnlineproyectos\PB\pbblow\Piercing Blow Remake\i3Server\include\i3Base\tinystr.h

; 114  : 		return assign( copy, (size_type)strlen(copy));

  00052	50		 push	 eax
  00053	52		 push	 edx
  00054	e8 00 00 00 00	 call	 ?assign@TiXmlString@@QAEAAV1@PBDI@Z ; TiXmlString::assign
; File E:\Proyectos\JuegosOnlineproyectos\PB\pbblow\Piercing Blow Remake\i3Server\include\i3Base\tinyxml.h

; 1225 : 		cdata = false;

  00059	c6 46 2c 00	 mov	 BYTE PTR [esi+44], 0

; 1226 : 	}

  0005d	8b c6		 mov	 eax, esi
  0005f	8b 4d f4	 mov	 ecx, DWORD PTR __$EHRec$[ebp]
  00062	64 89 0d 00 00
	00 00		 mov	 DWORD PTR fs:0, ecx
  00069	59		 pop	 ecx
  0006a	5f		 pop	 edi
  0006b	5e		 pop	 esi
  0006c	8b e5		 mov	 esp, ebp
  0006e	5d		 pop	 ebp
  0006f	c2 04 00	 ret	 4
_TEXT	ENDS
;	COMDAT text$x
text$x	SEGMENT
__unwindfunclet$??0TiXmlText@@QAE@PBD@Z$0:
  00000	8b 4d f0	 mov	 ecx, DWORD PTR _this$[ebp]
  00003	e9 00 00 00 00	 jmp	 ??1TiXmlNode@@UAE@XZ	; TiXmlNode::~TiXmlNode
  00008	cc		 int	 3
  00009	cc		 int	 3
  0000a	cc		 int	 3
  0000b	cc		 int	 3
  0000c	cc		 int	 3
__ehhandler$??0TiXmlText@@QAE@PBD@Z:
  0000d	90		 npad	 1
  0000e	90		 npad	 1
  0000f	8b 54 24 08	 mov	 edx, DWORD PTR [esp+8]
  00013	8d 42 0c	 lea	 eax, DWORD PTR [edx+12]
  00016	8b 4a f0	 mov	 ecx, DWORD PTR [edx-16]
  00019	33 c8		 xor	 ecx, eax
  0001b	e8 00 00 00 00	 call	 @__security_check_cookie@4
  00020	b8 00 00 00 00	 mov	 eax, OFFSET __ehfuncinfo$??0TiXmlText@@QAE@PBD@Z
  00025	e9 00 00 00 00	 jmp	 ___CxxFrameHandler3
text$x	ENDS
??0TiXmlText@@QAE@PBD@Z ENDP				; TiXmlText::TiXmlText
; Function compile flags: /Ogtp
; File E:\Proyectos\JuegosOnlineproyectos\PB\pbblow\Piercing Blow Remake\i3Server\include\i3Base\tinyxml.h
;	COMDAT ??_ETiXmlComment@@UAEPAXI@Z
_TEXT	SEGMENT
__$EHRec$ = -12						; size = 12
___flags$ = 8						; size = 4
??_ETiXmlComment@@UAEPAXI@Z PROC			; TiXmlComment::`vector deleting destructor', COMDAT
; _this$ = ecx
  00000	55		 push	 ebp
  00001	8b ec		 mov	 ebp, esp
  00003	6a ff		 push	 -1
  00005	68 00 00 00 00	 push	 __ehhandler$??_ETiXmlComment@@UAEPAXI@Z
  0000a	64 a1 00 00 00
	00		 mov	 eax, DWORD PTR fs:0
  00010	50		 push	 eax
  00011	53		 push	 ebx
  00012	56		 push	 esi
  00013	57		 push	 edi
  00014	a1 00 00 00 00	 mov	 eax, DWORD PTR ___security_cookie
  00019	33 c5		 xor	 eax, ebp
  0001b	50		 push	 eax
  0001c	8d 45 f4	 lea	 eax, DWORD PTR __$EHRec$[ebp]
  0001f	64 a3 00 00 00
	00		 mov	 DWORD PTR fs:0, eax
  00025	8b f1		 mov	 esi, ecx
  00027	8b 45 08	 mov	 eax, DWORD PTR ___flags$[ebp]
  0002a	8b f8		 mov	 edi, eax
  0002c	83 e7 01	 and	 edi, 1
  0002f	a8 02		 test	 al, 2
  00031	74 3d		 je	 SHORT $LN2@vector
  00033	68 00 00 00 00	 push	 OFFSET ??1TiXmlComment@@UAE@XZ ; TiXmlComment::~TiXmlComment
  00038	ff 76 fc	 push	 DWORD PTR [esi-4]
  0003b	8d 5e fc	 lea	 ebx, DWORD PTR [esi-4]
  0003e	6a 2c		 push	 44			; 0000002cH
  00040	56		 push	 esi
  00041	e8 00 00 00 00	 call	 ??_M@YGXPAXIIP6EX0@Z@Z
  00046	85 ff		 test	 edi, edi
  00048	74 10		 je	 SHORT $LN3@vector
  0004a	6b 0b 2c	 imul	 ecx, DWORD PTR [ebx], 44
  0004d	83 c1 04	 add	 ecx, 4
  00050	51		 push	 ecx
  00051	53		 push	 ebx
  00052	e8 00 00 00 00	 call	 ??_V@YAXPAXI@Z		; operator delete[]
  00057	83 c4 08	 add	 esp, 8
$LN3@vector:
  0005a	8b c3		 mov	 eax, ebx
  0005c	8b 4d f4	 mov	 ecx, DWORD PTR __$EHRec$[ebp]
  0005f	64 89 0d 00 00
	00 00		 mov	 DWORD PTR fs:0, ecx
  00066	59		 pop	 ecx
  00067	5f		 pop	 edi
  00068	5e		 pop	 esi
  00069	5b		 pop	 ebx
  0006a	8b e5		 mov	 esp, ebp
  0006c	5d		 pop	 ebp
  0006d	c2 04 00	 ret	 4
$LN2@vector:

; 1176 : 	virtual ~TiXmlComment()	{}

  00070	c7 06 00 00 00
	00		 mov	 DWORD PTR [esi], OFFSET ??_7TiXmlComment@@6B@
  00076	e8 00 00 00 00	 call	 ??1TiXmlNode@@UAE@XZ	; TiXmlNode::~TiXmlNode
  0007b	85 ff		 test	 edi, edi
  0007d	74 0b		 je	 SHORT $LN4@vector
  0007f	6a 2c		 push	 44			; 0000002cH
  00081	56		 push	 esi
  00082	e8 00 00 00 00	 call	 ??3@YAXPAXI@Z		; operator delete
  00087	83 c4 08	 add	 esp, 8
$LN4@vector:
  0008a	8b c6		 mov	 eax, esi
  0008c	8b 4d f4	 mov	 ecx, DWORD PTR __$EHRec$[ebp]
  0008f	64 89 0d 00 00
	00 00		 mov	 DWORD PTR fs:0, ecx
  00096	59		 pop	 ecx
  00097	5f		 pop	 edi
  00098	5e		 pop	 esi
  00099	5b		 pop	 ebx
  0009a	8b e5		 mov	 esp, ebp
  0009c	5d		 pop	 ebp
  0009d	c2 04 00	 ret	 4
  000a0	cc		 int	 3
  000a1	cc		 int	 3
  000a2	cc		 int	 3
  000a3	cc		 int	 3
  000a4	cc		 int	 3
_TEXT	ENDS
;	COMDAT text$x
text$x	SEGMENT
__ehhandler$??_ETiXmlComment@@UAEPAXI@Z:
  00000	90		 npad	 1
  00001	90		 npad	 1
  00002	8b 54 24 08	 mov	 edx, DWORD PTR [esp+8]
  00006	8d 42 0c	 lea	 eax, DWORD PTR [edx+12]
  00009	8b 4a f0	 mov	 ecx, DWORD PTR [edx-16]
  0000c	33 c8		 xor	 ecx, eax
  0000e	e8 00 00 00 00	 call	 @__security_check_cookie@4
  00013	b8 00 00 00 00	 mov	 eax, OFFSET __ehfuncinfo$??_ETiXmlComment@@UAEPAXI@Z
  00018	e9 00 00 00 00	 jmp	 ___CxxFrameHandler3
text$x	ENDS
??_ETiXmlComment@@UAEPAXI@Z ENDP			; TiXmlComment::`vector deleting destructor'
; Function compile flags: /Ogtp
; File E:\Proyectos\JuegosOnlineproyectos\PB\pbblow\Piercing Blow Remake\i3Server\include\i3Base\tinyxml.h
;	COMDAT ??_GTiXmlComment@@UAEPAXI@Z
_TEXT	SEGMENT
___flags$ = 8						; size = 4
??_GTiXmlComment@@UAEPAXI@Z PROC			; TiXmlComment::`scalar deleting destructor', COMDAT
; _this$ = ecx
  00000	55		 push	 ebp
  00001	8b ec		 mov	 ebp, esp

; 1176 : 	virtual ~TiXmlComment()	{}

  00003	56		 push	 esi
  00004	8b f1		 mov	 esi, ecx
  00006	c7 06 00 00 00
	00		 mov	 DWORD PTR [esi], OFFSET ??_7TiXmlComment@@6B@
  0000c	e8 00 00 00 00	 call	 ??1TiXmlNode@@UAE@XZ	; TiXmlNode::~TiXmlNode
  00011	f6 45 08 01	 test	 BYTE PTR ___flags$[ebp], 1
  00015	74 0b		 je	 SHORT $LN10@scalar
  00017	6a 2c		 push	 44			; 0000002cH
  00019	56		 push	 esi
  0001a	e8 00 00 00 00	 call	 ??3@YAXPAXI@Z		; operator delete
  0001f	83 c4 08	 add	 esp, 8
$LN10@scalar:
  00022	8b c6		 mov	 eax, esi
  00024	5e		 pop	 esi
  00025	5d		 pop	 ebp
  00026	c2 04 00	 ret	 4
??_GTiXmlComment@@UAEPAXI@Z ENDP			; TiXmlComment::`scalar deleting destructor'
_TEXT	ENDS
; Function compile flags: /Ogtp
; File E:\Proyectos\JuegosOnlineproyectos\PB\pbblow\Piercing Blow Remake\i3Server\include\i3Base\tinyxml.h
;	COMDAT ?ToComment@TiXmlComment@@UAEPAV1@XZ
_TEXT	SEGMENT
?ToComment@TiXmlComment@@UAEPAV1@XZ PROC		; TiXmlComment::ToComment, COMDAT
; _this$ = ecx

; 1189 : 	virtual TiXmlComment*  ToComment() { return this; } ///< Cast to a more defined type. Will return null not of the requested type.

  00000	8b c1		 mov	 eax, ecx
  00002	c3		 ret	 0
?ToComment@TiXmlComment@@UAEPAV1@XZ ENDP		; TiXmlComment::ToComment
_TEXT	ENDS
; Function compile flags: /Ogtp
; File E:\Proyectos\JuegosOnlineproyectos\PB\pbblow\Piercing Blow Remake\i3Server\include\i3Base\tinyxml.h
;	COMDAT ?ToComment@TiXmlComment@@UBEPBV1@XZ
_TEXT	SEGMENT
?ToComment@TiXmlComment@@UBEPBV1@XZ PROC		; TiXmlComment::ToComment, COMDAT
; _this$ = ecx

; 1188 : 	virtual const TiXmlComment*  ToComment() const { return this; } ///< Cast to a more defined type. Will return null not of the requested type.

  00000	8b c1		 mov	 eax, ecx
  00002	c3		 ret	 0
?ToComment@TiXmlComment@@UBEPBV1@XZ ENDP		; TiXmlComment::ToComment
_TEXT	ENDS
; Function compile flags: /Ogtp
; File E:\Proyectos\JuegosOnlineproyectos\PB\pbblow\Piercing Blow Remake\i3Server\include\i3Base\tinyxml.h
;	COMDAT ??1TiXmlComment@@UAE@XZ
_TEXT	SEGMENT
??1TiXmlComment@@UAE@XZ PROC				; TiXmlComment::~TiXmlComment, COMDAT
; _this$ = ecx

; 1176 : 	virtual ~TiXmlComment()	{}

  00000	c7 01 00 00 00
	00		 mov	 DWORD PTR [ecx], OFFSET ??_7TiXmlComment@@6B@
  00006	e9 00 00 00 00	 jmp	 ??1TiXmlNode@@UAE@XZ	; TiXmlNode::~TiXmlNode
??1TiXmlComment@@UAE@XZ ENDP				; TiXmlComment::~TiXmlComment
_TEXT	ENDS
; Function compile flags: /Ogtp
; File E:\Proyectos\JuegosOnlineproyectos\PB\pbblow\Piercing Blow Remake\i3Server\include\i3Base\tinyxml.h
; File E:\Proyectos\JuegosOnlineproyectos\PB\pbblow\Piercing Blow Remake\i3Server\include\i3Base\tinystr.h
; File E:\Proyectos\JuegosOnlineproyectos\PB\pbblow\Piercing Blow Remake\i3Server\include\i3Base\tinyxml.h
; File E:\Proyectos\JuegosOnlineproyectos\PB\pbblow\Piercing Blow Remake\i3Server\include\i3Base\tinystr.h
; File E:\Proyectos\JuegosOnlineproyectos\PB\pbblow\Piercing Blow Remake\i3Server\include\i3Base\tinyxml.h
; File E:\Proyectos\JuegosOnlineproyectos\PB\pbblow\Piercing Blow Remake\i3Server\include\i3Base\tinystr.h
; File E:\Proyectos\JuegosOnlineproyectos\PB\pbblow\Piercing Blow Remake\i3Server\include\i3Base\tinyxml.h
;	COMDAT ??0TiXmlComment@@QAE@PBD@Z
_TEXT	SEGMENT
_this$ = -16						; size = 4
__$EHRec$ = -12						; size = 12
__value$ = 8						; size = 4
??0TiXmlComment@@QAE@PBD@Z PROC				; TiXmlComment::TiXmlComment, COMDAT
; _this$ = ecx

; 1170 : 	TiXmlComment( const char* _value ) : TiXmlNode( TiXmlNode::COMMENT ) {

  00000	55		 push	 ebp
  00001	8b ec		 mov	 ebp, esp
  00003	6a ff		 push	 -1
  00005	68 00 00 00 00	 push	 __ehhandler$??0TiXmlComment@@QAE@PBD@Z
  0000a	64 a1 00 00 00
	00		 mov	 eax, DWORD PTR fs:0
  00010	50		 push	 eax
  00011	51		 push	 ecx
  00012	56		 push	 esi
  00013	57		 push	 edi
  00014	a1 00 00 00 00	 mov	 eax, DWORD PTR ___security_cookie
  00019	33 c5		 xor	 eax, ebp
  0001b	50		 push	 eax
  0001c	8d 45 f4	 lea	 eax, DWORD PTR __$EHRec$[ebp]
  0001f	64 a3 00 00 00
	00		 mov	 DWORD PTR fs:0, eax
  00025	8b f1		 mov	 esi, ecx
  00027	89 75 f0	 mov	 DWORD PTR _this$[ebp], esi
  0002a	6a 02		 push	 2
  0002c	e8 00 00 00 00	 call	 ??0TiXmlNode@@IAE@W4NodeType@0@@Z ; TiXmlNode::TiXmlNode
; File E:\Proyectos\JuegosOnlineproyectos\PB\pbblow\Piercing Blow Remake\i3Server\include\i3Base\tinystr.h

; 114  : 		return assign( copy, (size_type)strlen(copy));

  00031	8b 55 08	 mov	 edx, DWORD PTR __value$[ebp]
  00034	8b c2		 mov	 eax, edx
; File E:\Proyectos\JuegosOnlineproyectos\PB\pbblow\Piercing Blow Remake\i3Server\include\i3Base\tinyxml.h

; 1170 : 	TiXmlComment( const char* _value ) : TiXmlNode( TiXmlNode::COMMENT ) {

  00036	c7 45 fc 00 00
	00 00		 mov	 DWORD PTR __$EHRec$[ebp+8], 0
  0003d	c7 06 00 00 00
	00		 mov	 DWORD PTR [esi], OFFSET ??_7TiXmlComment@@6B@
; File E:\Proyectos\JuegosOnlineproyectos\PB\pbblow\Piercing Blow Remake\i3Server\include\i3Base\tinystr.h

; 114  : 		return assign( copy, (size_type)strlen(copy));

  00043	8d 78 01	 lea	 edi, DWORD PTR [eax+1]
$LL8@TiXmlComme:
  00046	8a 08		 mov	 cl, BYTE PTR [eax]
  00048	40		 inc	 eax
  00049	84 c9		 test	 cl, cl
  0004b	75 f9		 jne	 SHORT $LL8@TiXmlComme
  0004d	2b c7		 sub	 eax, edi
; File E:\Proyectos\JuegosOnlineproyectos\PB\pbblow\Piercing Blow Remake\i3Server\include\i3Base\tinyxml.h

; 512  : 	void SetValue(const char * _value) { value = _value;}

  0004f	8d 4e 20	 lea	 ecx, DWORD PTR [esi+32]
; File E:\Proyectos\JuegosOnlineproyectos\PB\pbblow\Piercing Blow Remake\i3Server\include\i3Base\tinystr.h

; 114  : 		return assign( copy, (size_type)strlen(copy));

  00052	50		 push	 eax
  00053	52		 push	 edx
  00054	e8 00 00 00 00	 call	 ?assign@TiXmlString@@QAEAAV1@PBDI@Z ; TiXmlString::assign
; File E:\Proyectos\JuegosOnlineproyectos\PB\pbblow\Piercing Blow Remake\i3Server\include\i3Base\tinyxml.h

; 1172 : 	}

  00059	8b c6		 mov	 eax, esi
  0005b	8b 4d f4	 mov	 ecx, DWORD PTR __$EHRec$[ebp]
  0005e	64 89 0d 00 00
	00 00		 mov	 DWORD PTR fs:0, ecx
  00065	59		 pop	 ecx
  00066	5f		 pop	 edi
  00067	5e		 pop	 esi
  00068	8b e5		 mov	 esp, ebp
  0006a	5d		 pop	 ebp
  0006b	c2 04 00	 ret	 4
_TEXT	ENDS
;	COMDAT text$x
text$x	SEGMENT
__unwindfunclet$??0TiXmlComment@@QAE@PBD@Z$0:
  00000	8b 4d f0	 mov	 ecx, DWORD PTR _this$[ebp]
  00003	e9 00 00 00 00	 jmp	 ??1TiXmlNode@@UAE@XZ	; TiXmlNode::~TiXmlNode
  00008	cc		 int	 3
  00009	cc		 int	 3
  0000a	cc		 int	 3
  0000b	cc		 int	 3
  0000c	cc		 int	 3
__ehhandler$??0TiXmlComment@@QAE@PBD@Z:
  0000d	90		 npad	 1
  0000e	90		 npad	 1
  0000f	8b 54 24 08	 mov	 edx, DWORD PTR [esp+8]
  00013	8d 42 0c	 lea	 eax, DWORD PTR [edx+12]
  00016	8b 4a f0	 mov	 ecx, DWORD PTR [edx-16]
  00019	33 c8		 xor	 ecx, eax
  0001b	e8 00 00 00 00	 call	 @__security_check_cookie@4
  00020	b8 00 00 00 00	 mov	 eax, OFFSET __ehfuncinfo$??0TiXmlComment@@QAE@PBD@Z
  00025	e9 00 00 00 00	 jmp	 ___CxxFrameHandler3
text$x	ENDS
??0TiXmlComment@@QAE@PBD@Z ENDP				; TiXmlComment::TiXmlComment
; Function compile flags: /Ogtp
; File E:\Proyectos\JuegosOnlineproyectos\PB\pbblow\Piercing Blow Remake\i3Server\include\i3Base\tinyxml.h
;	COMDAT ??0TiXmlComment@@QAE@XZ
_TEXT	SEGMENT
_this$ = -4						; size = 4
??0TiXmlComment@@QAE@XZ PROC				; TiXmlComment::TiXmlComment, COMDAT
; _this$ = ecx

; 1168 : 	TiXmlComment() : TiXmlNode( TiXmlNode::COMMENT ) {}

  00000	55		 push	 ebp
  00001	8b ec		 mov	 ebp, esp
  00003	51		 push	 ecx
  00004	56		 push	 esi
  00005	8b f1		 mov	 esi, ecx
  00007	6a 02		 push	 2
  00009	89 75 fc	 mov	 DWORD PTR _this$[ebp], esi
  0000c	e8 00 00 00 00	 call	 ??0TiXmlNode@@IAE@W4NodeType@0@@Z ; TiXmlNode::TiXmlNode
  00011	c7 06 00 00 00
	00		 mov	 DWORD PTR [esi], OFFSET ??_7TiXmlComment@@6B@
  00017	8b c6		 mov	 eax, esi
  00019	5e		 pop	 esi
  0001a	8b e5		 mov	 esp, ebp
  0001c	5d		 pop	 ebp
  0001d	c3		 ret	 0
??0TiXmlComment@@QAE@XZ ENDP				; TiXmlComment::TiXmlComment
_TEXT	ENDS
; Function compile flags: /Ogtp
; File E:\Proyectos\JuegosOnlineproyectos\PB\pbblow\Piercing Blow Remake\i3Server\include\i3Base\tinyxml.h
;	COMDAT ?ToElement@TiXmlElement@@UAEPAV1@XZ
_TEXT	SEGMENT
?ToElement@TiXmlElement@@UAEPAV1@XZ PROC		; TiXmlElement::ToElement, COMDAT
; _this$ = ecx

; 1135 : 	virtual TiXmlElement*           ToElement()	          { return this; } ///< Cast to a more defined type. Will return null not of the requested type.

  00000	8b c1		 mov	 eax, ecx
  00002	c3		 ret	 0
?ToElement@TiXmlElement@@UAEPAV1@XZ ENDP		; TiXmlElement::ToElement
_TEXT	ENDS
; Function compile flags: /Ogtp
; File E:\Proyectos\JuegosOnlineproyectos\PB\pbblow\Piercing Blow Remake\i3Server\include\i3Base\tinyxml.h
;	COMDAT ?ToElement@TiXmlElement@@UBEPBV1@XZ
_TEXT	SEGMENT
?ToElement@TiXmlElement@@UBEPBV1@XZ PROC		; TiXmlElement::ToElement, COMDAT
; _this$ = ecx

; 1134 : 	virtual const TiXmlElement*     ToElement()     const { return this; } ///< Cast to a more defined type. Will return null not of the requested type.

  00000	8b c1		 mov	 eax, ecx
  00002	c3		 ret	 0
?ToElement@TiXmlElement@@UBEPBV1@XZ ENDP		; TiXmlElement::ToElement
_TEXT	ENDS
; Function compile flags: /Ogtp
; File E:\Proyectos\JuegosOnlineproyectos\PB\pbblow\Piercing Blow Remake\i3Server\include\i3Base\tinyxml.h
;	COMDAT ?LastAttribute@TiXmlElement@@QAEPAVTiXmlAttribute@@XZ
_TEXT	SEGMENT
?LastAttribute@TiXmlElement@@QAEPAVTiXmlAttribute@@XZ PROC ; TiXmlElement::LastAttribute, COMDAT
; _this$ = ecx

; 919  : 	TiXmlAttribute* Last()					{ return ( sentinel.prev == &sentinel ) ? 0 : sentinel.prev; }

  00000	8b 41 48	 mov	 eax, DWORD PTR [ecx+72]

; 1088 : 	TiXmlAttribute* LastAttribute()					{ return attributeSet.Last(); }

  00003	83 c1 2c	 add	 ecx, 44			; 0000002cH

; 919  : 	TiXmlAttribute* Last()					{ return ( sentinel.prev == &sentinel ) ? 0 : sentinel.prev; }

  00006	33 d2		 xor	 edx, edx
  00008	3b c1		 cmp	 eax, ecx
  0000a	0f 44 c2	 cmove	 eax, edx

; 1088 : 	TiXmlAttribute* LastAttribute()					{ return attributeSet.Last(); }

  0000d	c3		 ret	 0
?LastAttribute@TiXmlElement@@QAEPAVTiXmlAttribute@@XZ ENDP ; TiXmlElement::LastAttribute
_TEXT	ENDS
; Function compile flags: /Ogtp
; File E:\Proyectos\JuegosOnlineproyectos\PB\pbblow\Piercing Blow Remake\i3Server\include\i3Base\tinyxml.h
;	COMDAT ?LastAttribute@TiXmlElement@@QBEPBVTiXmlAttribute@@XZ
_TEXT	SEGMENT
?LastAttribute@TiXmlElement@@QBEPBVTiXmlAttribute@@XZ PROC ; TiXmlElement::LastAttribute, COMDAT
; _this$ = ecx

; 918  : 	const TiXmlAttribute* Last() const		{ return ( sentinel.prev == &sentinel ) ? 0 : sentinel.prev; }

  00000	8b 41 48	 mov	 eax, DWORD PTR [ecx+72]

; 1087 : 	const TiXmlAttribute* LastAttribute()	const 	{ return attributeSet.Last(); }		///< Access the last attribute in this element.

  00003	83 c1 2c	 add	 ecx, 44			; 0000002cH

; 918  : 	const TiXmlAttribute* Last() const		{ return ( sentinel.prev == &sentinel ) ? 0 : sentinel.prev; }

  00006	33 d2		 xor	 edx, edx
  00008	3b c1		 cmp	 eax, ecx
  0000a	0f 44 c2	 cmove	 eax, edx

; 1087 : 	const TiXmlAttribute* LastAttribute()	const 	{ return attributeSet.Last(); }		///< Access the last attribute in this element.

  0000d	c3		 ret	 0
?LastAttribute@TiXmlElement@@QBEPBVTiXmlAttribute@@XZ ENDP ; TiXmlElement::LastAttribute
_TEXT	ENDS
; Function compile flags: /Ogtp
; File E:\Proyectos\JuegosOnlineproyectos\PB\pbblow\Piercing Blow Remake\i3Server\include\i3Base\tinyxml.h
;	COMDAT ?FirstAttribute@TiXmlElement@@QAEPAVTiXmlAttribute@@XZ
_TEXT	SEGMENT
?FirstAttribute@TiXmlElement@@QAEPAVTiXmlAttribute@@XZ PROC ; TiXmlElement::FirstAttribute, COMDAT
; _this$ = ecx

; 917  : 	TiXmlAttribute* First()					{ return ( sentinel.next == &sentinel ) ? 0 : sentinel.next; }

  00000	8b 41 4c	 mov	 eax, DWORD PTR [ecx+76]

; 1086 : 	TiXmlAttribute* FirstAttribute() 				{ return attributeSet.First(); }

  00003	83 c1 2c	 add	 ecx, 44			; 0000002cH

; 917  : 	TiXmlAttribute* First()					{ return ( sentinel.next == &sentinel ) ? 0 : sentinel.next; }

  00006	33 d2		 xor	 edx, edx
  00008	3b c1		 cmp	 eax, ecx
  0000a	0f 44 c2	 cmove	 eax, edx

; 1086 : 	TiXmlAttribute* FirstAttribute() 				{ return attributeSet.First(); }

  0000d	c3		 ret	 0
?FirstAttribute@TiXmlElement@@QAEPAVTiXmlAttribute@@XZ ENDP ; TiXmlElement::FirstAttribute
_TEXT	ENDS
; Function compile flags: /Ogtp
; File E:\Proyectos\JuegosOnlineproyectos\PB\pbblow\Piercing Blow Remake\i3Server\include\i3Base\tinyxml.h
;	COMDAT ?FirstAttribute@TiXmlElement@@QBEPBVTiXmlAttribute@@XZ
_TEXT	SEGMENT
?FirstAttribute@TiXmlElement@@QBEPBVTiXmlAttribute@@XZ PROC ; TiXmlElement::FirstAttribute, COMDAT
; _this$ = ecx

; 916  : 	const TiXmlAttribute* First()	const	{ return ( sentinel.next == &sentinel ) ? 0 : sentinel.next; }

  00000	8b 41 4c	 mov	 eax, DWORD PTR [ecx+76]

; 1085 : 	const TiXmlAttribute* FirstAttribute() const	{ return attributeSet.First(); }		///< Access the first attribute in this element.

  00003	83 c1 2c	 add	 ecx, 44			; 0000002cH

; 916  : 	const TiXmlAttribute* First()	const	{ return ( sentinel.next == &sentinel ) ? 0 : sentinel.next; }

  00006	33 d2		 xor	 edx, edx
  00008	3b c1		 cmp	 eax, ecx
  0000a	0f 44 c2	 cmove	 eax, edx

; 1085 : 	const TiXmlAttribute* FirstAttribute() const	{ return attributeSet.First(); }		///< Access the first attribute in this element.

  0000d	c3		 ret	 0
?FirstAttribute@TiXmlElement@@QBEPBVTiXmlAttribute@@XZ ENDP ; TiXmlElement::FirstAttribute
_TEXT	ENDS
; Function compile flags: /Ogtp
; File E:\Proyectos\JuegosOnlineproyectos\PB\pbblow\Piercing Blow Remake\i3Server\include\i3Base\tinyxml.h
;	COMDAT ?QueryFloatAttribute@TiXmlElement@@QBEHPBDPAM@Z
_TEXT	SEGMENT
_d$ = -8						; size = 8
_name$ = 8						; size = 4
__value$ = 12						; size = 4
?QueryFloatAttribute@TiXmlElement@@QBEHPBDPAM@Z PROC	; TiXmlElement::QueryFloatAttribute, COMDAT
; _this$ = ecx

; 999  : 	int QueryFloatAttribute( const char* name, float* _value ) const {

  00000	55		 push	 ebp
  00001	8b ec		 mov	 ebp, esp
  00003	83 ec 08	 sub	 esp, 8

; 1000 : 		double d;
; 1001 : 		int result = QueryDoubleAttribute( name, &d );

  00006	8d 45 f8	 lea	 eax, DWORD PTR _d$[ebp]
  00009	50		 push	 eax
  0000a	ff 75 08	 push	 DWORD PTR _name$[ebp]
  0000d	e8 00 00 00 00	 call	 ?QueryDoubleAttribute@TiXmlElement@@QBEHPBDPAN@Z ; TiXmlElement::QueryDoubleAttribute

; 1002 : 		if ( result == TIXML_SUCCESS ) {

  00012	85 c0		 test	 eax, eax
  00014	75 08		 jne	 SHORT $LN2@QueryFloat

; 1003 : 			*_value = (float)d;

  00016	8b 4d 0c	 mov	 ecx, DWORD PTR __value$[ebp]
  00019	dd 45 f8	 fld	 QWORD PTR _d$[ebp]
  0001c	d9 19		 fstp	 DWORD PTR [ecx]
$LN2@QueryFloat:

; 1004 : 		}
; 1005 : 		return result;
; 1006 : 	}

  0001e	8b e5		 mov	 esp, ebp
  00020	5d		 pop	 ebp
  00021	c2 08 00	 ret	 8
?QueryFloatAttribute@TiXmlElement@@QBEHPBDPAM@Z ENDP	; TiXmlElement::QueryFloatAttribute
_TEXT	ENDS
; Function compile flags: /Ogtp
; File E:\Proyectos\JuegosOnlineproyectos\PB\pbblow\Piercing Blow Remake\i3Server\include\i3Base\tinyxml.h
;	COMDAT ?Find@TiXmlAttributeSet@@QAEPAVTiXmlAttribute@@PBD@Z
_TEXT	SEGMENT
__name$ = 8						; size = 4
?Find@TiXmlAttributeSet@@QAEPAVTiXmlAttribute@@PBD@Z PROC ; TiXmlAttributeSet::Find, COMDAT
; _this$ = ecx

; 922  : 	TiXmlAttribute*	Find( const char* _name ) {

  00000	55		 push	 ebp
  00001	8b ec		 mov	 ebp, esp

; 924  : 	}

  00003	5d		 pop	 ebp

; 923  : 		return const_cast< TiXmlAttribute* >( (const_cast< const TiXmlAttributeSet* >(this))->Find( _name ) );

  00004	e9 00 00 00 00	 jmp	 ?Find@TiXmlAttributeSet@@QBEPBVTiXmlAttribute@@PBD@Z ; TiXmlAttributeSet::Find
?Find@TiXmlAttributeSet@@QAEPAVTiXmlAttribute@@PBD@Z ENDP ; TiXmlAttributeSet::Find
_TEXT	ENDS
; Function compile flags: /Ogtp
; File E:\Proyectos\JuegosOnlineproyectos\PB\pbblow\Piercing Blow Remake\i3Server\include\i3Base\tinyxml.h
;	COMDAT ?Last@TiXmlAttributeSet@@QAEPAVTiXmlAttribute@@XZ
_TEXT	SEGMENT
?Last@TiXmlAttributeSet@@QAEPAVTiXmlAttribute@@XZ PROC	; TiXmlAttributeSet::Last, COMDAT
; _this$ = ecx

; 919  : 	TiXmlAttribute* Last()					{ return ( sentinel.prev == &sentinel ) ? 0 : sentinel.prev; }

  00000	8b 41 1c	 mov	 eax, DWORD PTR [ecx+28]
  00003	33 d2		 xor	 edx, edx
  00005	3b c1		 cmp	 eax, ecx
  00007	0f 44 c2	 cmove	 eax, edx
  0000a	c3		 ret	 0
?Last@TiXmlAttributeSet@@QAEPAVTiXmlAttribute@@XZ ENDP	; TiXmlAttributeSet::Last
_TEXT	ENDS
; Function compile flags: /Ogtp
; File E:\Proyectos\JuegosOnlineproyectos\PB\pbblow\Piercing Blow Remake\i3Server\include\i3Base\tinyxml.h
;	COMDAT ?Last@TiXmlAttributeSet@@QBEPBVTiXmlAttribute@@XZ
_TEXT	SEGMENT
?Last@TiXmlAttributeSet@@QBEPBVTiXmlAttribute@@XZ PROC	; TiXmlAttributeSet::Last, COMDAT
; _this$ = ecx

; 918  : 	const TiXmlAttribute* Last() const		{ return ( sentinel.prev == &sentinel ) ? 0 : sentinel.prev; }

  00000	8b 41 1c	 mov	 eax, DWORD PTR [ecx+28]
  00003	33 d2		 xor	 edx, edx
  00005	3b c1		 cmp	 eax, ecx
  00007	0f 44 c2	 cmove	 eax, edx
  0000a	c3		 ret	 0
?Last@TiXmlAttributeSet@@QBEPBVTiXmlAttribute@@XZ ENDP	; TiXmlAttributeSet::Last
_TEXT	ENDS
; Function compile flags: /Ogtp
; File E:\Proyectos\JuegosOnlineproyectos\PB\pbblow\Piercing Blow Remake\i3Server\include\i3Base\tinyxml.h
;	COMDAT ?First@TiXmlAttributeSet@@QAEPAVTiXmlAttribute@@XZ
_TEXT	SEGMENT
?First@TiXmlAttributeSet@@QAEPAVTiXmlAttribute@@XZ PROC	; TiXmlAttributeSet::First, COMDAT
; _this$ = ecx

; 917  : 	TiXmlAttribute* First()					{ return ( sentinel.next == &sentinel ) ? 0 : sentinel.next; }

  00000	8b 41 20	 mov	 eax, DWORD PTR [ecx+32]
  00003	33 d2		 xor	 edx, edx
  00005	3b c1		 cmp	 eax, ecx
  00007	0f 44 c2	 cmove	 eax, edx
  0000a	c3		 ret	 0
?First@TiXmlAttributeSet@@QAEPAVTiXmlAttribute@@XZ ENDP	; TiXmlAttributeSet::First
_TEXT	ENDS
; Function compile flags: /Ogtp
; File E:\Proyectos\JuegosOnlineproyectos\PB\pbblow\Piercing Blow Remake\i3Server\include\i3Base\tinyxml.h
;	COMDAT ?First@TiXmlAttributeSet@@QBEPBVTiXmlAttribute@@XZ
_TEXT	SEGMENT
?First@TiXmlAttributeSet@@QBEPBVTiXmlAttribute@@XZ PROC	; TiXmlAttributeSet::First, COMDAT
; _this$ = ecx

; 916  : 	const TiXmlAttribute* First()	const	{ return ( sentinel.next == &sentinel ) ? 0 : sentinel.next; }

  00000	8b 41 20	 mov	 eax, DWORD PTR [ecx+32]
  00003	33 d2		 xor	 edx, edx
  00005	3b c1		 cmp	 eax, ecx
  00007	0f 44 c2	 cmove	 eax, edx
  0000a	c3		 ret	 0
?First@TiXmlAttributeSet@@QBEPBVTiXmlAttribute@@XZ ENDP	; TiXmlAttributeSet::First
_TEXT	ENDS
; Function compile flags: /Ogtp
; File E:\Proyectos\JuegosOnlineproyectos\PB\pbblow\Piercing Blow Remake\i3Server\include\i3Base\tinystr.h
;	COMDAT ??_ETiXmlAttribute@@UAEPAXI@Z
_TEXT	SEGMENT
__$EHRec$ = -12						; size = 12
___flags$ = 8						; size = 4
??_ETiXmlAttribute@@UAEPAXI@Z PROC			; TiXmlAttribute::`vector deleting destructor', COMDAT
; _this$ = ecx
  00000	55		 push	 ebp
  00001	8b ec		 mov	 ebp, esp
  00003	6a ff		 push	 -1
  00005	68 00 00 00 00	 push	 __ehhandler$??_ETiXmlAttribute@@UAEPAXI@Z
  0000a	64 a1 00 00 00
	00		 mov	 eax, DWORD PTR fs:0
  00010	50		 push	 eax
  00011	53		 push	 ebx
  00012	56		 push	 esi
  00013	57		 push	 edi
  00014	a1 00 00 00 00	 mov	 eax, DWORD PTR ___security_cookie
  00019	33 c5		 xor	 eax, ebp
  0001b	50		 push	 eax
  0001c	8d 45 f4	 lea	 eax, DWORD PTR __$EHRec$[ebp]
  0001f	64 a3 00 00 00
	00		 mov	 DWORD PTR fs:0, eax
  00025	8b f1		 mov	 esi, ecx
  00027	8b 5d 08	 mov	 ebx, DWORD PTR ___flags$[ebp]
  0002a	f6 c3 02	 test	 bl, 2
  0002d	74 44		 je	 SHORT $LN2@vector
  0002f	68 00 00 00 00	 push	 OFFSET ??1TiXmlAttribute@@UAE@XZ
  00034	ff 76 fc	 push	 DWORD PTR [esi-4]
  00037	8d 7e fc	 lea	 edi, DWORD PTR [esi-4]
  0003a	6a 24		 push	 36			; 00000024H
  0003c	56		 push	 esi
  0003d	e8 00 00 00 00	 call	 ??_M@YGXPAXIIP6EX0@Z@Z
  00042	f6 c3 01	 test	 bl, 1
  00045	74 16		 je	 SHORT $LN3@vector
  00047	8b 0f		 mov	 ecx, DWORD PTR [edi]
  00049	8d 0c c9	 lea	 ecx, DWORD PTR [ecx+ecx*8]
  0004c	8d 0c 8d 04 00
	00 00		 lea	 ecx, DWORD PTR [ecx*4+4]
  00053	51		 push	 ecx
  00054	57		 push	 edi
  00055	e8 00 00 00 00	 call	 ??_V@YAXPAXI@Z		; operator delete[]
  0005a	83 c4 08	 add	 esp, 8
$LN3@vector:
  0005d	8b c7		 mov	 eax, edi
  0005f	8b 4d f4	 mov	 ecx, DWORD PTR __$EHRec$[ebp]
  00062	64 89 0d 00 00
	00 00		 mov	 DWORD PTR fs:0, ecx
  00069	59		 pop	 ecx
  0006a	5f		 pop	 edi
  0006b	5e		 pop	 esi
  0006c	5b		 pop	 ebx
  0006d	8b e5		 mov	 esp, ebp
  0006f	5d		 pop	 ebp
  00070	c2 04 00	 ret	 4
$LN2@vector:

; 257  : 		if (rep_ != &nullrep_)

  00073	8b 46 18	 mov	 eax, DWORD PTR [esi+24]
  00076	3d 00 00 00 00	 cmp	 eax, OFFSET ?nullrep_@TiXmlString@@0URep@1@A ; TiXmlString::nullrep_
  0007b	74 09		 je	 SHORT $LN16@vector

; 258  : 		{
; 259  : 			// The rep_ is really an array of ints. (see the allocator, above).
; 260  : 			// Cast it back before delete, so the compiler won't incorrectly call destructors.
; 261  : 			delete [] ( reinterpret_cast<int*>( rep_ ) );

  0007d	50		 push	 eax
  0007e	e8 00 00 00 00	 call	 ??_V@YAXPAX@Z		; operator delete[]
  00083	83 c4 04	 add	 esp, 4
$LN16@vector:

; 257  : 		if (rep_ != &nullrep_)

  00086	8b 46 14	 mov	 eax, DWORD PTR [esi+20]
  00089	3d 00 00 00 00	 cmp	 eax, OFFSET ?nullrep_@TiXmlString@@0URep@1@A ; TiXmlString::nullrep_
  0008e	74 09		 je	 SHORT $LN22@vector

; 258  : 		{
; 259  : 			// The rep_ is really an array of ints. (see the allocator, above).
; 260  : 			// Cast it back before delete, so the compiler won't incorrectly call destructors.
; 261  : 			delete [] ( reinterpret_cast<int*>( rep_ ) );

  00090	50		 push	 eax
  00091	e8 00 00 00 00	 call	 ??_V@YAXPAX@Z		; operator delete[]
  00096	83 c4 04	 add	 esp, 4
$LN22@vector:
  00099	c7 06 00 00 00
	00		 mov	 DWORD PTR [esi], OFFSET ??_7TiXmlBase@@6B@
  0009f	f6 c3 01	 test	 bl, 1
  000a2	74 0b		 je	 SHORT $LN4@vector
  000a4	6a 24		 push	 36			; 00000024H
  000a6	56		 push	 esi
  000a7	e8 00 00 00 00	 call	 ??3@YAXPAXI@Z		; operator delete
  000ac	83 c4 08	 add	 esp, 8
$LN4@vector:
  000af	8b c6		 mov	 eax, esi
  000b1	8b 4d f4	 mov	 ecx, DWORD PTR __$EHRec$[ebp]
  000b4	64 89 0d 00 00
	00 00		 mov	 DWORD PTR fs:0, ecx
  000bb	59		 pop	 ecx
  000bc	5f		 pop	 edi
  000bd	5e		 pop	 esi
  000be	5b		 pop	 ebx
  000bf	8b e5		 mov	 esp, ebp
  000c1	5d		 pop	 ebp
  000c2	c2 04 00	 ret	 4
  000c5	cc		 int	 3
  000c6	cc		 int	 3
  000c7	cc		 int	 3
  000c8	cc		 int	 3
  000c9	cc		 int	 3
_TEXT	ENDS
;	COMDAT text$x
text$x	SEGMENT
__ehhandler$??_ETiXmlAttribute@@UAEPAXI@Z:
  00000	90		 npad	 1
  00001	90		 npad	 1
  00002	8b 54 24 08	 mov	 edx, DWORD PTR [esp+8]
  00006	8d 42 0c	 lea	 eax, DWORD PTR [edx+12]
  00009	8b 4a f0	 mov	 ecx, DWORD PTR [edx-16]
  0000c	33 c8		 xor	 ecx, eax
  0000e	e8 00 00 00 00	 call	 @__security_check_cookie@4
  00013	b8 00 00 00 00	 mov	 eax, OFFSET __ehfuncinfo$??_ETiXmlAttribute@@UAEPAXI@Z
  00018	e9 00 00 00 00	 jmp	 ___CxxFrameHandler3
text$x	ENDS
??_ETiXmlAttribute@@UAEPAXI@Z ENDP			; TiXmlAttribute::`vector deleting destructor'
; Function compile flags: /Ogtp
; File E:\Proyectos\JuegosOnlineproyectos\PB\pbblow\Piercing Blow Remake\i3Server\include\i3Base\tinystr.h
;	COMDAT ??_GTiXmlAttribute@@UAEPAXI@Z
_TEXT	SEGMENT
___flags$ = 8						; size = 4
??_GTiXmlAttribute@@UAEPAXI@Z PROC			; TiXmlAttribute::`scalar deleting destructor', COMDAT
; _this$ = ecx
  00000	55		 push	 ebp
  00001	8b ec		 mov	 ebp, esp

; 257  : 		if (rep_ != &nullrep_)

  00003	56		 push	 esi
  00004	8b f1		 mov	 esi, ecx
  00006	8b 46 18	 mov	 eax, DWORD PTR [esi+24]
  00009	3d 00 00 00 00	 cmp	 eax, OFFSET ?nullrep_@TiXmlString@@0URep@1@A ; TiXmlString::nullrep_
  0000e	74 09		 je	 SHORT $LN14@scalar

; 258  : 		{
; 259  : 			// The rep_ is really an array of ints. (see the allocator, above).
; 260  : 			// Cast it back before delete, so the compiler won't incorrectly call destructors.
; 261  : 			delete [] ( reinterpret_cast<int*>( rep_ ) );

  00010	50		 push	 eax
  00011	e8 00 00 00 00	 call	 ??_V@YAXPAX@Z		; operator delete[]
  00016	83 c4 04	 add	 esp, 4
$LN14@scalar:

; 257  : 		if (rep_ != &nullrep_)

  00019	8b 46 14	 mov	 eax, DWORD PTR [esi+20]
  0001c	3d 00 00 00 00	 cmp	 eax, OFFSET ?nullrep_@TiXmlString@@0URep@1@A ; TiXmlString::nullrep_
  00021	74 09		 je	 SHORT $LN20@scalar

; 258  : 		{
; 259  : 			// The rep_ is really an array of ints. (see the allocator, above).
; 260  : 			// Cast it back before delete, so the compiler won't incorrectly call destructors.
; 261  : 			delete [] ( reinterpret_cast<int*>( rep_ ) );

  00023	50		 push	 eax
  00024	e8 00 00 00 00	 call	 ??_V@YAXPAX@Z		; operator delete[]
  00029	83 c4 04	 add	 esp, 4
$LN20@scalar:
  0002c	f6 45 08 01	 test	 BYTE PTR ___flags$[ebp], 1
  00030	c7 06 00 00 00
	00		 mov	 DWORD PTR [esi], OFFSET ??_7TiXmlBase@@6B@
  00036	74 0b		 je	 SHORT $LN22@scalar
  00038	6a 24		 push	 36			; 00000024H
  0003a	56		 push	 esi
  0003b	e8 00 00 00 00	 call	 ??3@YAXPAXI@Z		; operator delete
  00040	83 c4 08	 add	 esp, 8
$LN22@scalar:
  00043	8b c6		 mov	 eax, esi
  00045	5e		 pop	 esi
  00046	5d		 pop	 ebp
  00047	c2 04 00	 ret	 4
??_GTiXmlAttribute@@UAEPAXI@Z ENDP			; TiXmlAttribute::`scalar deleting destructor'
_TEXT	ENDS
; Function compile flags: /Ogtp
; File E:\Proyectos\JuegosOnlineproyectos\PB\pbblow\Piercing Blow Remake\i3Server\include\i3Base\tinystr.h
;	COMDAT ??1TiXmlAttribute@@UAE@XZ
_TEXT	SEGMENT
??1TiXmlAttribute@@UAE@XZ PROC				; TiXmlAttribute::~TiXmlAttribute, COMDAT
; _this$ = ecx

; 257  : 		if (rep_ != &nullrep_)

  00000	56		 push	 esi
  00001	8b f1		 mov	 esi, ecx
  00003	8b 46 18	 mov	 eax, DWORD PTR [esi+24]
  00006	3d 00 00 00 00	 cmp	 eax, OFFSET ?nullrep_@TiXmlString@@0URep@1@A ; TiXmlString::nullrep_
  0000b	74 09		 je	 SHORT $LN8@TiXmlAttri

; 258  : 		{
; 259  : 			// The rep_ is really an array of ints. (see the allocator, above).
; 260  : 			// Cast it back before delete, so the compiler won't incorrectly call destructors.
; 261  : 			delete [] ( reinterpret_cast<int*>( rep_ ) );

  0000d	50		 push	 eax
  0000e	e8 00 00 00 00	 call	 ??_V@YAXPAX@Z		; operator delete[]
  00013	83 c4 04	 add	 esp, 4
$LN8@TiXmlAttri:

; 257  : 		if (rep_ != &nullrep_)

  00016	8b 46 14	 mov	 eax, DWORD PTR [esi+20]
  00019	3d 00 00 00 00	 cmp	 eax, OFFSET ?nullrep_@TiXmlString@@0URep@1@A ; TiXmlString::nullrep_
  0001e	74 09		 je	 SHORT $LN16@TiXmlAttri

; 258  : 		{
; 259  : 			// The rep_ is really an array of ints. (see the allocator, above).
; 260  : 			// Cast it back before delete, so the compiler won't incorrectly call destructors.
; 261  : 			delete [] ( reinterpret_cast<int*>( rep_ ) );

  00020	50		 push	 eax
  00021	e8 00 00 00 00	 call	 ??_V@YAXPAX@Z		; operator delete[]
  00026	83 c4 04	 add	 esp, 4
$LN16@TiXmlAttri:
  00029	c7 06 00 00 00
	00		 mov	 DWORD PTR [esi], OFFSET ??_7TiXmlBase@@6B@
  0002f	5e		 pop	 esi
  00030	c3		 ret	 0
??1TiXmlAttribute@@UAE@XZ ENDP				; TiXmlAttribute::~TiXmlAttribute
_TEXT	ENDS
; Function compile flags: /Ogtp
; File E:\Proyectos\JuegosOnlineproyectos\PB\pbblow\Piercing Blow Remake\i3Server\include\i3Base\tinyxml.h
;	COMDAT ?SetDocument@TiXmlAttribute@@QAEXPAVTiXmlDocument@@@Z
_TEXT	SEGMENT
_doc$ = 8						; size = 4
?SetDocument@TiXmlAttribute@@QAEXPAVTiXmlDocument@@@Z PROC ; TiXmlAttribute::SetDocument, COMDAT
; _this$ = ecx

; 881  : 	void SetDocument( TiXmlDocument* doc )	{ document = doc; }

  00000	55		 push	 ebp
  00001	8b ec		 mov	 ebp, esp
  00003	8b 45 08	 mov	 eax, DWORD PTR _doc$[ebp]
  00006	89 41 10	 mov	 DWORD PTR [ecx+16], eax
  00009	5d		 pop	 ebp
  0000a	c2 04 00	 ret	 4
?SetDocument@TiXmlAttribute@@QAEXPAVTiXmlDocument@@@Z ENDP ; TiXmlAttribute::SetDocument
_TEXT	ENDS
; Function compile flags: /Ogtp
; File E:\Proyectos\JuegosOnlineproyectos\PB\pbblow\Piercing Blow Remake\i3Server\include\i3Base\tinyxml.h
;	COMDAT ?Print@TiXmlAttribute@@UBEXPAVi3FileStream@@H@Z
_TEXT	SEGMENT
_cfile$ = 8						; size = 4
_depth$ = 12						; size = 4
?Print@TiXmlAttribute@@UBEXPAVi3FileStream@@H@Z PROC	; TiXmlAttribute::Print, COMDAT
; _this$ = ecx

; 874  : 	virtual void Print( i3FileStream* cfile, int depth ) const {

  00000	55		 push	 ebp
  00001	8b ec		 mov	 ebp, esp

; 875  : 		Print( cfile, depth, 0 );

  00003	6a 00		 push	 0
  00005	ff 75 0c	 push	 DWORD PTR _depth$[ebp]
  00008	ff 75 08	 push	 DWORD PTR _cfile$[ebp]
  0000b	e8 00 00 00 00	 call	 ?Print@TiXmlAttribute@@QBEXPAVi3FileStream@@HPAVTiXmlString@@@Z ; TiXmlAttribute::Print

; 876  : 	}

  00010	5d		 pop	 ebp
  00011	c2 08 00	 ret	 8
?Print@TiXmlAttribute@@UBEXPAVi3FileStream@@H@Z ENDP	; TiXmlAttribute::Print
_TEXT	ENDS
; Function compile flags: /Ogtp
; File E:\Proyectos\JuegosOnlineproyectos\PB\pbblow\Piercing Blow Remake\i3Server\include\i3Base\tinyxml.h
; File E:\Proyectos\JuegosOnlineproyectos\PB\pbblow\Piercing Blow Remake\i3Server\include\i3Base\tinystr.h
; File E:\Proyectos\JuegosOnlineproyectos\PB\pbblow\Piercing Blow Remake\i3Server\include\i3Base\tinyxml.h
; File E:\Proyectos\JuegosOnlineproyectos\PB\pbblow\Piercing Blow Remake\i3Server\include\i3Base\tinystr.h
; File E:\Proyectos\JuegosOnlineproyectos\PB\pbblow\Piercing Blow Remake\i3Server\include\i3Base\tinyxml.h
;	COMDAT ??OTiXmlAttribute@@QBE_NABV0@@Z
_TEXT	SEGMENT
_rhs$ = 8						; size = 4
??OTiXmlAttribute@@QBE_NABV0@@Z PROC			; TiXmlAttribute::operator>, COMDAT
; _this$ = ecx

; 866  : 	bool operator>( const TiXmlAttribute& rhs )  const { return name > rhs.name; }

  00000	55		 push	 ebp
  00001	8b ec		 mov	 ebp, esp
; File E:\Proyectos\JuegosOnlineproyectos\PB\pbblow\Piercing Blow Remake\i3Server\include\i3Base\tinystr.h

; 144  : 	const char * c_str () const { return rep_->str; }

  00003	8b 41 14	 mov	 eax, DWORD PTR [ecx+20]
  00006	8b 4d 08	 mov	 ecx, DWORD PTR _rhs$[ebp]
  00009	83 c0 08	 add	 eax, 8
  0000c	8b 49 14	 mov	 ecx, DWORD PTR [ecx+20]
  0000f	83 c1 08	 add	 ecx, 8
$LL11@operator:

; 278  : 	return strcmp(a.c_str(), b.c_str()) < 0;

  00012	8a 11		 mov	 dl, BYTE PTR [ecx]
  00014	3a 10		 cmp	 dl, BYTE PTR [eax]
  00016	75 1f		 jne	 SHORT $LN12@operator
  00018	84 d2		 test	 dl, dl
  0001a	74 12		 je	 SHORT $LN13@operator
  0001c	8a 51 01	 mov	 dl, BYTE PTR [ecx+1]
  0001f	3a 50 01	 cmp	 dl, BYTE PTR [eax+1]
  00022	75 13		 jne	 SHORT $LN12@operator
  00024	83 c1 02	 add	 ecx, 2
  00027	83 c0 02	 add	 eax, 2
  0002a	84 d2		 test	 dl, dl
  0002c	75 e4		 jne	 SHORT $LL11@operator
$LN13@operator:
  0002e	b8 00 00 00 00	 mov	 eax, 0
; File E:\Proyectos\JuegosOnlineproyectos\PB\pbblow\Piercing Blow Remake\i3Server\include\i3Base\tinyxml.h

; 866  : 	bool operator>( const TiXmlAttribute& rhs )  const { return name > rhs.name; }

  00033	5d		 pop	 ebp
  00034	c2 04 00	 ret	 4
$LN12@operator:
; File E:\Proyectos\JuegosOnlineproyectos\PB\pbblow\Piercing Blow Remake\i3Server\include\i3Base\tinystr.h

; 278  : 	return strcmp(a.c_str(), b.c_str()) < 0;

  00037	1b c0		 sbb	 eax, eax
  00039	83 c8 01	 or	 eax, 1
  0003c	c1 e8 1f	 shr	 eax, 31			; 0000001fH
; File E:\Proyectos\JuegosOnlineproyectos\PB\pbblow\Piercing Blow Remake\i3Server\include\i3Base\tinyxml.h

; 866  : 	bool operator>( const TiXmlAttribute& rhs )  const { return name > rhs.name; }

  0003f	5d		 pop	 ebp
  00040	c2 04 00	 ret	 4
??OTiXmlAttribute@@QBE_NABV0@@Z ENDP			; TiXmlAttribute::operator>
_TEXT	ENDS
; Function compile flags: /Ogtp
; File E:\Proyectos\JuegosOnlineproyectos\PB\pbblow\Piercing Blow Remake\i3Server\include\i3Base\tinyxml.h
; File E:\Proyectos\JuegosOnlineproyectos\PB\pbblow\Piercing Blow Remake\i3Server\include\i3Base\tinystr.h
; File E:\Proyectos\JuegosOnlineproyectos\PB\pbblow\Piercing Blow Remake\i3Server\include\i3Base\tinyxml.h
; File E:\Proyectos\JuegosOnlineproyectos\PB\pbblow\Piercing Blow Remake\i3Server\include\i3Base\tinystr.h
; File E:\Proyectos\JuegosOnlineproyectos\PB\pbblow\Piercing Blow Remake\i3Server\include\i3Base\tinyxml.h
;	COMDAT ??MTiXmlAttribute@@QBE_NABV0@@Z
_TEXT	SEGMENT
_rhs$ = 8						; size = 4
??MTiXmlAttribute@@QBE_NABV0@@Z PROC			; TiXmlAttribute::operator<, COMDAT
; _this$ = ecx

; 865  : 	bool operator<( const TiXmlAttribute& rhs )	 const { return name < rhs.name; }

  00000	55		 push	 ebp
  00001	8b ec		 mov	 ebp, esp
; File E:\Proyectos\JuegosOnlineproyectos\PB\pbblow\Piercing Blow Remake\i3Server\include\i3Base\tinystr.h

; 144  : 	const char * c_str () const { return rep_->str; }

  00003	8b 45 08	 mov	 eax, DWORD PTR _rhs$[ebp]
  00006	8b 49 14	 mov	 ecx, DWORD PTR [ecx+20]
  00009	8b 40 14	 mov	 eax, DWORD PTR [eax+20]
  0000c	83 c0 08	 add	 eax, 8
  0000f	83 c1 08	 add	 ecx, 8
$LL9@operator:

; 278  : 	return strcmp(a.c_str(), b.c_str()) < 0;

  00012	8a 11		 mov	 dl, BYTE PTR [ecx]
  00014	3a 10		 cmp	 dl, BYTE PTR [eax]
  00016	75 1f		 jne	 SHORT $LN10@operator
  00018	84 d2		 test	 dl, dl
  0001a	74 12		 je	 SHORT $LN11@operator
  0001c	8a 51 01	 mov	 dl, BYTE PTR [ecx+1]
  0001f	3a 50 01	 cmp	 dl, BYTE PTR [eax+1]
  00022	75 13		 jne	 SHORT $LN10@operator
  00024	83 c1 02	 add	 ecx, 2
  00027	83 c0 02	 add	 eax, 2
  0002a	84 d2		 test	 dl, dl
  0002c	75 e4		 jne	 SHORT $LL9@operator
$LN11@operator:
  0002e	b8 00 00 00 00	 mov	 eax, 0
; File E:\Proyectos\JuegosOnlineproyectos\PB\pbblow\Piercing Blow Remake\i3Server\include\i3Base\tinyxml.h

; 865  : 	bool operator<( const TiXmlAttribute& rhs )	 const { return name < rhs.name; }

  00033	5d		 pop	 ebp
  00034	c2 04 00	 ret	 4
$LN10@operator:
; File E:\Proyectos\JuegosOnlineproyectos\PB\pbblow\Piercing Blow Remake\i3Server\include\i3Base\tinystr.h

; 278  : 	return strcmp(a.c_str(), b.c_str()) < 0;

  00037	1b c0		 sbb	 eax, eax
  00039	83 c8 01	 or	 eax, 1
  0003c	c1 e8 1f	 shr	 eax, 31			; 0000001fH
; File E:\Proyectos\JuegosOnlineproyectos\PB\pbblow\Piercing Blow Remake\i3Server\include\i3Base\tinyxml.h

; 865  : 	bool operator<( const TiXmlAttribute& rhs )	 const { return name < rhs.name; }

  0003f	5d		 pop	 ebp
  00040	c2 04 00	 ret	 4
??MTiXmlAttribute@@QBE_NABV0@@Z ENDP			; TiXmlAttribute::operator<
_TEXT	ENDS
; Function compile flags: /Ogtp
; File E:\Proyectos\JuegosOnlineproyectos\PB\pbblow\Piercing Blow Remake\i3Server\include\i3Base\tinyxml.h
; File E:\Proyectos\JuegosOnlineproyectos\PB\pbblow\Piercing Blow Remake\i3Server\include\i3Base\tinystr.h
; File E:\Proyectos\JuegosOnlineproyectos\PB\pbblow\Piercing Blow Remake\i3Server\include\i3Base\tinyxml.h
; File E:\Proyectos\JuegosOnlineproyectos\PB\pbblow\Piercing Blow Remake\i3Server\include\i3Base\tinystr.h
; File E:\Proyectos\JuegosOnlineproyectos\PB\pbblow\Piercing Blow Remake\i3Server\include\i3Base\tinyxml.h
;	COMDAT ??8TiXmlAttribute@@QBE_NABV0@@Z
_TEXT	SEGMENT
_rhs$ = 8						; size = 4
??8TiXmlAttribute@@QBE_NABV0@@Z PROC			; TiXmlAttribute::operator==, COMDAT
; _this$ = ecx

; 864  : 	bool operator==( const TiXmlAttribute& rhs ) const { return rhs.name == name; }

  00000	55		 push	 ebp
  00001	8b ec		 mov	 ebp, esp
; File E:\Proyectos\JuegosOnlineproyectos\PB\pbblow\Piercing Blow Remake\i3Server\include\i3Base\tinystr.h

; 150  : 	size_type length () const { return rep_->size; }

  00003	8b 45 08	 mov	 eax, DWORD PTR _rhs$[ebp]
  00006	8b 49 14	 mov	 ecx, DWORD PTR [ecx+20]
  00009	8b 50 14	 mov	 edx, DWORD PTR [eax+20]

; 273  : 	return    ( a.length() == b.length() )				// optimization on some platforms

  0000c	8b 02		 mov	 eax, DWORD PTR [edx]
  0000e	3b 01		 cmp	 eax, DWORD PTR [ecx]
  00010	75 35		 jne	 SHORT $LN5@operator

; 144  : 	const char * c_str () const { return rep_->str; }

  00012	83 c1 08	 add	 ecx, 8
  00015	8d 42 08	 lea	 eax, DWORD PTR [edx+8]
$LL15@operator:

; 273  : 	return    ( a.length() == b.length() )				// optimization on some platforms

  00018	8a 10		 mov	 dl, BYTE PTR [eax]
  0001a	3a 11		 cmp	 dl, BYTE PTR [ecx]
  0001c	75 1a		 jne	 SHORT $LN16@operator
  0001e	84 d2		 test	 dl, dl
  00020	74 12		 je	 SHORT $LN17@operator
  00022	8a 50 01	 mov	 dl, BYTE PTR [eax+1]
  00025	3a 51 01	 cmp	 dl, BYTE PTR [ecx+1]
  00028	75 0e		 jne	 SHORT $LN16@operator
  0002a	83 c0 02	 add	 eax, 2
  0002d	83 c1 02	 add	 ecx, 2
  00030	84 d2		 test	 dl, dl
  00032	75 e4		 jne	 SHORT $LL15@operator
$LN17@operator:
  00034	33 c0		 xor	 eax, eax
  00036	eb 05		 jmp	 SHORT $LN18@operator
$LN16@operator:
  00038	1b c0		 sbb	 eax, eax
  0003a	83 c8 01	 or	 eax, 1
$LN18@operator:
  0003d	85 c0		 test	 eax, eax
  0003f	75 06		 jne	 SHORT $LN5@operator
  00041	b0 01		 mov	 al, 1
; File E:\Proyectos\JuegosOnlineproyectos\PB\pbblow\Piercing Blow Remake\i3Server\include\i3Base\tinyxml.h

; 864  : 	bool operator==( const TiXmlAttribute& rhs ) const { return rhs.name == name; }

  00043	5d		 pop	 ebp
  00044	c2 04 00	 ret	 4
$LN5@operator:
; File E:\Proyectos\JuegosOnlineproyectos\PB\pbblow\Piercing Blow Remake\i3Server\include\i3Base\tinystr.h

; 273  : 	return    ( a.length() == b.length() )				// optimization on some platforms

  00047	32 c0		 xor	 al, al
; File E:\Proyectos\JuegosOnlineproyectos\PB\pbblow\Piercing Blow Remake\i3Server\include\i3Base\tinyxml.h

; 864  : 	bool operator==( const TiXmlAttribute& rhs ) const { return rhs.name == name; }

  00049	5d		 pop	 ebp
  0004a	c2 04 00	 ret	 4
??8TiXmlAttribute@@QBE_NABV0@@Z ENDP			; TiXmlAttribute::operator==
_TEXT	ENDS
; Function compile flags: /Ogtp
; File E:\Proyectos\JuegosOnlineproyectos\PB\pbblow\Piercing Blow Remake\i3Server\include\i3Base\tinyxml.h
;	COMDAT ?Previous@TiXmlAttribute@@QAEPAV1@XZ
_TEXT	SEGMENT
?Previous@TiXmlAttribute@@QAEPAV1@XZ PROC		; TiXmlAttribute::Previous, COMDAT
; _this$ = ecx

; 861  : 		return const_cast< TiXmlAttribute* >( (const_cast< const TiXmlAttribute* >(this))->Previous() ); 

  00000	e9 00 00 00 00	 jmp	 ?Previous@TiXmlAttribute@@QBEPBV1@XZ ; TiXmlAttribute::Previous
?Previous@TiXmlAttribute@@QAEPAV1@XZ ENDP		; TiXmlAttribute::Previous
_TEXT	ENDS
; Function compile flags: /Ogtp
; File E:\Proyectos\JuegosOnlineproyectos\PB\pbblow\Piercing Blow Remake\i3Server\include\i3Base\tinyxml.h
;	COMDAT ?Next@TiXmlAttribute@@QAEPAV1@XZ
_TEXT	SEGMENT
?Next@TiXmlAttribute@@QAEPAV1@XZ PROC			; TiXmlAttribute::Next, COMDAT
; _this$ = ecx

; 855  : 		return const_cast< TiXmlAttribute* >( (const_cast< const TiXmlAttribute* >(this))->Next() ); 

  00000	e9 00 00 00 00	 jmp	 ?Next@TiXmlAttribute@@QBEPBV1@XZ ; TiXmlAttribute::Next
?Next@TiXmlAttribute@@QAEPAV1@XZ ENDP			; TiXmlAttribute::Next
_TEXT	ENDS
; Function compile flags: /Ogtp
; File E:\Proyectos\JuegosOnlineproyectos\PB\pbblow\Piercing Blow Remake\i3Server\include\i3Base\tinyxml.h
; File E:\Proyectos\JuegosOnlineproyectos\PB\pbblow\Piercing Blow Remake\i3Server\include\i3Base\tinystr.h
; File E:\Proyectos\JuegosOnlineproyectos\PB\pbblow\Piercing Blow Remake\i3Server\include\i3Base\tinyxml.h
; File E:\Proyectos\JuegosOnlineproyectos\PB\pbblow\Piercing Blow Remake\i3Server\include\i3Base\tinystr.h
; File E:\Proyectos\JuegosOnlineproyectos\PB\pbblow\Piercing Blow Remake\i3Server\include\i3Base\tinyxml.h
; File E:\Proyectos\JuegosOnlineproyectos\PB\pbblow\Piercing Blow Remake\i3Server\include\i3Base\tinystr.h
; File E:\Proyectos\JuegosOnlineproyectos\PB\pbblow\Piercing Blow Remake\i3Server\include\i3Base\tinyxml.h
;	COMDAT ?SetValue@TiXmlAttribute@@QAEXPBD@Z
_TEXT	SEGMENT
__value$ = 8						; size = 4
?SetValue@TiXmlAttribute@@QAEXPBD@Z PROC		; TiXmlAttribute::SetValue, COMDAT
; _this$ = ecx

; 840  : 	void SetValue( const char* _value )	{ value = _value; }				///< Set the value.

  00000	55		 push	 ebp
  00001	8b ec		 mov	 ebp, esp
; File E:\Proyectos\JuegosOnlineproyectos\PB\pbblow\Piercing Blow Remake\i3Server\include\i3Base\tinystr.h

; 114  : 		return assign( copy, (size_type)strlen(copy));

  00003	8b 55 08	 mov	 edx, DWORD PTR __value$[ebp]
  00006	8b c2		 mov	 eax, edx
; File E:\Proyectos\JuegosOnlineproyectos\PB\pbblow\Piercing Blow Remake\i3Server\include\i3Base\tinyxml.h

; 840  : 	void SetValue( const char* _value )	{ value = _value; }				///< Set the value.

  00008	56		 push	 esi
  00009	57		 push	 edi
  0000a	8b f1		 mov	 esi, ecx
; File E:\Proyectos\JuegosOnlineproyectos\PB\pbblow\Piercing Blow Remake\i3Server\include\i3Base\tinystr.h

; 114  : 		return assign( copy, (size_type)strlen(copy));

  0000c	8d 78 01	 lea	 edi, DWORD PTR [eax+1]
  0000f	90		 npad	 1
$LL5@SetValue:
  00010	8a 08		 mov	 cl, BYTE PTR [eax]
  00012	40		 inc	 eax
  00013	84 c9		 test	 cl, cl
  00015	75 f9		 jne	 SHORT $LL5@SetValue
  00017	2b c7		 sub	 eax, edi
; File E:\Proyectos\JuegosOnlineproyectos\PB\pbblow\Piercing Blow Remake\i3Server\include\i3Base\tinyxml.h

; 840  : 	void SetValue( const char* _value )	{ value = _value; }				///< Set the value.

  00019	8d 4e 18	 lea	 ecx, DWORD PTR [esi+24]
; File E:\Proyectos\JuegosOnlineproyectos\PB\pbblow\Piercing Blow Remake\i3Server\include\i3Base\tinystr.h

; 114  : 		return assign( copy, (size_type)strlen(copy));

  0001c	50		 push	 eax
  0001d	52		 push	 edx
  0001e	e8 00 00 00 00	 call	 ?assign@TiXmlString@@QAEAAV1@PBDI@Z ; TiXmlString::assign
  00023	5f		 pop	 edi
  00024	5e		 pop	 esi
; File E:\Proyectos\JuegosOnlineproyectos\PB\pbblow\Piercing Blow Remake\i3Server\include\i3Base\tinyxml.h

; 840  : 	void SetValue( const char* _value )	{ value = _value; }				///< Set the value.

  00025	5d		 pop	 ebp
  00026	c2 04 00	 ret	 4
?SetValue@TiXmlAttribute@@QAEXPBD@Z ENDP		; TiXmlAttribute::SetValue
_TEXT	ENDS
; Function compile flags: /Ogtp
; File E:\Proyectos\JuegosOnlineproyectos\PB\pbblow\Piercing Blow Remake\i3Server\include\i3Base\tinyxml.h
; File E:\Proyectos\JuegosOnlineproyectos\PB\pbblow\Piercing Blow Remake\i3Server\include\i3Base\tinystr.h
; File E:\Proyectos\JuegosOnlineproyectos\PB\pbblow\Piercing Blow Remake\i3Server\include\i3Base\tinyxml.h
; File E:\Proyectos\JuegosOnlineproyectos\PB\pbblow\Piercing Blow Remake\i3Server\include\i3Base\tinystr.h
; File E:\Proyectos\JuegosOnlineproyectos\PB\pbblow\Piercing Blow Remake\i3Server\include\i3Base\tinyxml.h
; File E:\Proyectos\JuegosOnlineproyectos\PB\pbblow\Piercing Blow Remake\i3Server\include\i3Base\tinystr.h
; File E:\Proyectos\JuegosOnlineproyectos\PB\pbblow\Piercing Blow Remake\i3Server\include\i3Base\tinyxml.h
;	COMDAT ?SetName@TiXmlAttribute@@QAEXPBD@Z
_TEXT	SEGMENT
__name$ = 8						; size = 4
?SetName@TiXmlAttribute@@QAEXPBD@Z PROC			; TiXmlAttribute::SetName, COMDAT
; _this$ = ecx

; 839  : 	void SetName( const char* _name )	{ name = _name; }				///< Set the name of this attribute.

  00000	55		 push	 ebp
  00001	8b ec		 mov	 ebp, esp
; File E:\Proyectos\JuegosOnlineproyectos\PB\pbblow\Piercing Blow Remake\i3Server\include\i3Base\tinystr.h

; 114  : 		return assign( copy, (size_type)strlen(copy));

  00003	8b 55 08	 mov	 edx, DWORD PTR __name$[ebp]
  00006	8b c2		 mov	 eax, edx
; File E:\Proyectos\JuegosOnlineproyectos\PB\pbblow\Piercing Blow Remake\i3Server\include\i3Base\tinyxml.h

; 839  : 	void SetName( const char* _name )	{ name = _name; }				///< Set the name of this attribute.

  00008	56		 push	 esi
  00009	57		 push	 edi
  0000a	8b f1		 mov	 esi, ecx
; File E:\Proyectos\JuegosOnlineproyectos\PB\pbblow\Piercing Blow Remake\i3Server\include\i3Base\tinystr.h

; 114  : 		return assign( copy, (size_type)strlen(copy));

  0000c	8d 78 01	 lea	 edi, DWORD PTR [eax+1]
  0000f	90		 npad	 1
$LL5@SetName:
  00010	8a 08		 mov	 cl, BYTE PTR [eax]
  00012	40		 inc	 eax
  00013	84 c9		 test	 cl, cl
  00015	75 f9		 jne	 SHORT $LL5@SetName
  00017	2b c7		 sub	 eax, edi
; File E:\Proyectos\JuegosOnlineproyectos\PB\pbblow\Piercing Blow Remake\i3Server\include\i3Base\tinyxml.h

; 839  : 	void SetName( const char* _name )	{ name = _name; }				///< Set the name of this attribute.

  00019	8d 4e 14	 lea	 ecx, DWORD PTR [esi+20]
; File E:\Proyectos\JuegosOnlineproyectos\PB\pbblow\Piercing Blow Remake\i3Server\include\i3Base\tinystr.h

; 114  : 		return assign( copy, (size_type)strlen(copy));

  0001c	50		 push	 eax
  0001d	52		 push	 edx
  0001e	e8 00 00 00 00	 call	 ?assign@TiXmlString@@QAEAAV1@PBDI@Z ; TiXmlString::assign
  00023	5f		 pop	 edi
  00024	5e		 pop	 esi
; File E:\Proyectos\JuegosOnlineproyectos\PB\pbblow\Piercing Blow Remake\i3Server\include\i3Base\tinyxml.h

; 839  : 	void SetName( const char* _name )	{ name = _name; }				///< Set the name of this attribute.

  00025	5d		 pop	 ebp
  00026	c2 04 00	 ret	 4
?SetName@TiXmlAttribute@@QAEXPBD@Z ENDP			; TiXmlAttribute::SetName
_TEXT	ENDS
; Function compile flags: /Ogtp
; File E:\Proyectos\JuegosOnlineproyectos\PB\pbblow\Piercing Blow Remake\i3Server\include\i3Base\tinyxml.h
;	COMDAT ?NameTStr@TiXmlAttribute@@QBEABVTiXmlString@@XZ
_TEXT	SEGMENT
?NameTStr@TiXmlAttribute@@QBEABVTiXmlString@@XZ PROC	; TiXmlAttribute::NameTStr, COMDAT
; _this$ = ecx

; 824  : 	const TIXML_STRING& NameTStr() const { return name; }

  00000	8d 41 14	 lea	 eax, DWORD PTR [ecx+20]
  00003	c3		 ret	 0
?NameTStr@TiXmlAttribute@@QBEABVTiXmlString@@XZ ENDP	; TiXmlAttribute::NameTStr
_TEXT	ENDS
; Function compile flags: /Ogtp
; File E:\Proyectos\JuegosOnlineproyectos\PB\pbblow\Piercing Blow Remake\i3Server\include\i3Base\tinyxml.h
; File E:\Proyectos\JuegosOnlineproyectos\PB\pbblow\Piercing Blow Remake\i3Server\include\i3Base\tinystr.h
; File E:\Proyectos\JuegosOnlineproyectos\PB\pbblow\Piercing Blow Remake\i3Server\include\i3Base\tinyxml.h
;	COMDAT ?Value@TiXmlAttribute@@QBEPBDXZ
_TEXT	SEGMENT
?Value@TiXmlAttribute@@QBEPBDXZ PROC			; TiXmlAttribute::Value, COMDAT
; _this$ = ecx
; File E:\Proyectos\JuegosOnlineproyectos\PB\pbblow\Piercing Blow Remake\i3Server\include\i3Base\tinystr.h

; 144  : 	const char * c_str () const { return rep_->str; }

  00000	8b 41 18	 mov	 eax, DWORD PTR [ecx+24]
  00003	83 c0 08	 add	 eax, 8
; File E:\Proyectos\JuegosOnlineproyectos\PB\pbblow\Piercing Blow Remake\i3Server\include\i3Base\tinyxml.h

; 816  : 	const char*		Value() const		{ return value.c_str(); }		///< Return the value of this attribute.

  00006	c3		 ret	 0
?Value@TiXmlAttribute@@QBEPBDXZ ENDP			; TiXmlAttribute::Value
_TEXT	ENDS
; Function compile flags: /Ogtp
; File E:\Proyectos\JuegosOnlineproyectos\PB\pbblow\Piercing Blow Remake\i3Server\include\i3Base\tinyxml.h
; File E:\Proyectos\JuegosOnlineproyectos\PB\pbblow\Piercing Blow Remake\i3Server\include\i3Base\tinystr.h
; File E:\Proyectos\JuegosOnlineproyectos\PB\pbblow\Piercing Blow Remake\i3Server\include\i3Base\tinyxml.h
;	COMDAT ?Name@TiXmlAttribute@@QBEPBDXZ
_TEXT	SEGMENT
?Name@TiXmlAttribute@@QBEPBDXZ PROC			; TiXmlAttribute::Name, COMDAT
; _this$ = ecx
; File E:\Proyectos\JuegosOnlineproyectos\PB\pbblow\Piercing Blow Remake\i3Server\include\i3Base\tinystr.h

; 144  : 	const char * c_str () const { return rep_->str; }

  00000	8b 41 14	 mov	 eax, DWORD PTR [ecx+20]
  00003	83 c0 08	 add	 eax, 8
; File E:\Proyectos\JuegosOnlineproyectos\PB\pbblow\Piercing Blow Remake\i3Server\include\i3Base\tinyxml.h

; 815  : 	const char*		Name()  const		{ return name.c_str(); }		///< Return the name of this attribute.

  00006	c3		 ret	 0
?Name@TiXmlAttribute@@QBEPBDXZ ENDP			; TiXmlAttribute::Name
_TEXT	ENDS
; Function compile flags: /Ogtp
; File E:\Proyectos\JuegosOnlineproyectos\PB\pbblow\Piercing Blow Remake\i3Server\include\i3Base\tinyxml.h
; File E:\Proyectos\JuegosOnlineproyectos\PB\pbblow\Piercing Blow Remake\i3Server\include\i3Base\tinystr.h
; File E:\Proyectos\JuegosOnlineproyectos\PB\pbblow\Piercing Blow Remake\i3Server\include\i3Base\tinyxml.h
; File E:\Proyectos\JuegosOnlineproyectos\PB\pbblow\Piercing Blow Remake\i3Server\include\i3Base\tinystr.h
; File E:\Proyectos\JuegosOnlineproyectos\PB\pbblow\Piercing Blow Remake\i3Server\include\i3Base\tinyxml.h
;	COMDAT ??0TiXmlAttribute@@QAE@PBD0@Z
_TEXT	SEGMENT
_this$ = -16						; size = 4
__$EHRec$ = -12						; size = 12
__name$ = 8						; size = 4
tv85 = 8						; size = 4
__value$ = 12						; size = 4
??0TiXmlAttribute@@QAE@PBD0@Z PROC			; TiXmlAttribute::TiXmlAttribute, COMDAT
; _this$ = ecx

; 807  : 	TiXmlAttribute( const char * _name, const char * _value )

  00000	55		 push	 ebp
  00001	8b ec		 mov	 ebp, esp
  00003	6a ff		 push	 -1
  00005	68 00 00 00 00	 push	 __ehhandler$??0TiXmlAttribute@@QAE@PBD0@Z
  0000a	64 a1 00 00 00
	00		 mov	 eax, DWORD PTR fs:0
  00010	50		 push	 eax
  00011	51		 push	 ecx
  00012	53		 push	 ebx
  00013	56		 push	 esi
  00014	57		 push	 edi
  00015	a1 00 00 00 00	 mov	 eax, DWORD PTR ___security_cookie
  0001a	33 c5		 xor	 eax, ebp
  0001c	50		 push	 eax
  0001d	8d 45 f4	 lea	 eax, DWORD PTR __$EHRec$[ebp]
  00020	64 a3 00 00 00
	00		 mov	 DWORD PTR fs:0, eax
  00026	8b f1		 mov	 esi, ecx
  00028	89 75 f0	 mov	 DWORD PTR _this$[ebp], esi

; 107  : 	void Clear()		{ row = col = -1; }

  0002b	c7 46 08 ff ff
	ff ff		 mov	 DWORD PTR [esi+8], -1
  00032	c7 46 04 ff ff
	ff ff		 mov	 DWORD PTR [esi+4], -1

; 205  : 	TiXmlBase()	:	userData(0)		{}

  00039	c7 46 0c 00 00
	00 00		 mov	 DWORD PTR [esi+12], 0

; 808  : 	{

  00040	8d 4e 14	 lea	 ecx, DWORD PTR [esi+20]
  00043	c7 06 00 00 00
	00		 mov	 DWORD PTR [esi], OFFSET ??_7TiXmlAttribute@@6B@
  00049	c7 45 fc 00 00
	00 00		 mov	 DWORD PTR __$EHRec$[ebp+8], 0
; File E:\Proyectos\JuegosOnlineproyectos\PB\pbblow\Piercing Blow Remake\i3Server\include\i3Base\tinystr.h

; 80   : 	TiXmlString () : rep_(&nullrep_)

  00050	c7 01 00 00 00
	00		 mov	 DWORD PTR [ecx], OFFSET ?nullrep_@TiXmlString@@0URep@1@A ; TiXmlString::nullrep_
  00056	c7 46 18 00 00
	00 00		 mov	 DWORD PTR [esi+24], OFFSET ?nullrep_@TiXmlString@@0URep@1@A ; TiXmlString::nullrep_

; 114  : 		return assign( copy, (size_type)strlen(copy));

  0005d	8b 7d 08	 mov	 edi, DWORD PTR __name$[ebp]
  00060	8b d7		 mov	 edx, edi
; File E:\Proyectos\JuegosOnlineproyectos\PB\pbblow\Piercing Blow Remake\i3Server\include\i3Base\tinyxml.h

; 808  : 	{

  00062	c6 45 fc 02	 mov	 BYTE PTR __$EHRec$[ebp+8], 2
; File E:\Proyectos\JuegosOnlineproyectos\PB\pbblow\Piercing Blow Remake\i3Server\include\i3Base\tinystr.h

; 114  : 		return assign( copy, (size_type)strlen(copy));

  00066	8d 42 01	 lea	 eax, DWORD PTR [edx+1]
  00069	89 45 08	 mov	 DWORD PTR tv85[ebp], eax
  0006c	8d 64 24 00	 npad	 4
$LL20@TiXmlAttri:
  00070	8a 02		 mov	 al, BYTE PTR [edx]
  00072	42		 inc	 edx
  00073	84 c0		 test	 al, al
  00075	75 f9		 jne	 SHORT $LL20@TiXmlAttri
  00077	2b 55 08	 sub	 edx, DWORD PTR tv85[ebp]
  0007a	52		 push	 edx
  0007b	57		 push	 edi
  0007c	e8 00 00 00 00	 call	 ?assign@TiXmlString@@QAEAAV1@PBDI@Z ; TiXmlString::assign
  00081	8b 7d 0c	 mov	 edi, DWORD PTR __value$[ebp]
  00084	8b c7		 mov	 eax, edi
  00086	8d 48 01	 lea	 ecx, DWORD PTR [eax+1]
  00089	8d a4 24 00 00
	00 00		 npad	 7
$LL21@TiXmlAttri:
  00090	8a 10		 mov	 dl, BYTE PTR [eax]
  00092	40		 inc	 eax
  00093	84 d2		 test	 dl, dl
  00095	75 f9		 jne	 SHORT $LL21@TiXmlAttri
  00097	2b c1		 sub	 eax, ecx
  00099	8d 4e 18	 lea	 ecx, DWORD PTR [esi+24]
  0009c	50		 push	 eax
  0009d	57		 push	 edi
  0009e	e8 00 00 00 00	 call	 ?assign@TiXmlString@@QAEAAV1@PBDI@Z ; TiXmlString::assign
; File E:\Proyectos\JuegosOnlineproyectos\PB\pbblow\Piercing Blow Remake\i3Server\include\i3Base\tinyxml.h

; 811  : 		document = 0;

  000a3	c7 46 10 00 00
	00 00		 mov	 DWORD PTR [esi+16], 0

; 812  : 		prev = next = 0;
; 813  : 	}

  000aa	8b c6		 mov	 eax, esi
  000ac	c7 46 20 00 00
	00 00		 mov	 DWORD PTR [esi+32], 0
  000b3	c7 46 1c 00 00
	00 00		 mov	 DWORD PTR [esi+28], 0
  000ba	8b 4d f4	 mov	 ecx, DWORD PTR __$EHRec$[ebp]
  000bd	64 89 0d 00 00
	00 00		 mov	 DWORD PTR fs:0, ecx
  000c4	59		 pop	 ecx
  000c5	5f		 pop	 edi
  000c6	5e		 pop	 esi
  000c7	5b		 pop	 ebx
  000c8	8b e5		 mov	 esp, ebp
  000ca	5d		 pop	 ebp
  000cb	c2 08 00	 ret	 8
_TEXT	ENDS
;	COMDAT text$x
text$x	SEGMENT
__unwindfunclet$??0TiXmlAttribute@@QAE@PBD0@Z$0:
  00000	8b 4d f0	 mov	 ecx, DWORD PTR _this$[ebp]
  00003	e9 00 00 00 00	 jmp	 ??1TiXmlBase@@UAE@XZ	; TiXmlBase::~TiXmlBase
__unwindfunclet$??0TiXmlAttribute@@QAE@PBD0@Z$1:
  00008	8b 4d f0	 mov	 ecx, DWORD PTR _this$[ebp]
  0000b	83 c1 14	 add	 ecx, 20			; 00000014H
  0000e	e9 00 00 00 00	 jmp	 ??1TiXmlString@@QAE@XZ	; TiXmlString::~TiXmlString
__unwindfunclet$??0TiXmlAttribute@@QAE@PBD0@Z$2:
  00013	8b 4d f0	 mov	 ecx, DWORD PTR _this$[ebp]
  00016	83 c1 18	 add	 ecx, 24			; 00000018H
  00019	e9 00 00 00 00	 jmp	 ??1TiXmlString@@QAE@XZ	; TiXmlString::~TiXmlString
  0001e	cc		 int	 3
  0001f	cc		 int	 3
  00020	cc		 int	 3
  00021	cc		 int	 3
  00022	cc		 int	 3
__ehhandler$??0TiXmlAttribute@@QAE@PBD0@Z:
  00023	90		 npad	 1
  00024	90		 npad	 1
  00025	8b 54 24 08	 mov	 edx, DWORD PTR [esp+8]
  00029	8d 42 0c	 lea	 eax, DWORD PTR [edx+12]
  0002c	8b 4a ec	 mov	 ecx, DWORD PTR [edx-20]
  0002f	33 c8		 xor	 ecx, eax
  00031	e8 00 00 00 00	 call	 @__security_check_cookie@4
  00036	b8 00 00 00 00	 mov	 eax, OFFSET __ehfuncinfo$??0TiXmlAttribute@@QAE@PBD0@Z
  0003b	e9 00 00 00 00	 jmp	 ___CxxFrameHandler3
text$x	ENDS
??0TiXmlAttribute@@QAE@PBD0@Z ENDP			; TiXmlAttribute::TiXmlAttribute
; Function compile flags: /Ogtp
; File E:\Proyectos\JuegosOnlineproyectos\PB\pbblow\Piercing Blow Remake\i3Server\include\i3Base\tinyxml.h
; File E:\Proyectos\JuegosOnlineproyectos\PB\pbblow\Piercing Blow Remake\i3Server\include\i3Base\tinystr.h
; File E:\Proyectos\JuegosOnlineproyectos\PB\pbblow\Piercing Blow Remake\i3Server\include\i3Base\tinyxml.h
;	COMDAT ??0TiXmlAttribute@@QAE@XZ
_TEXT	SEGMENT
_this$ = -4						; size = 4
??0TiXmlAttribute@@QAE@XZ PROC				; TiXmlAttribute::TiXmlAttribute, COMDAT
; _this$ = ecx

; 790  : 	{

  00000	55		 push	 ebp
  00001	8b ec		 mov	 ebp, esp
  00003	51		 push	 ecx

; 107  : 	void Clear()		{ row = col = -1; }

  00004	c7 41 08 ff ff
	ff ff		 mov	 DWORD PTR [ecx+8], -1

; 793  : 	}

  0000b	8b c1		 mov	 eax, ecx

; 107  : 	void Clear()		{ row = col = -1; }

  0000d	c7 41 04 ff ff
	ff ff		 mov	 DWORD PTR [ecx+4], -1

; 205  : 	TiXmlBase()	:	userData(0)		{}

  00014	c7 41 0c 00 00
	00 00		 mov	 DWORD PTR [ecx+12], 0

; 790  : 	{

  0001b	c7 01 00 00 00
	00		 mov	 DWORD PTR [ecx], OFFSET ??_7TiXmlAttribute@@6B@
; File E:\Proyectos\JuegosOnlineproyectos\PB\pbblow\Piercing Blow Remake\i3Server\include\i3Base\tinystr.h

; 80   : 	TiXmlString () : rep_(&nullrep_)

  00021	c7 41 14 00 00
	00 00		 mov	 DWORD PTR [ecx+20], OFFSET ?nullrep_@TiXmlString@@0URep@1@A ; TiXmlString::nullrep_
  00028	c7 41 18 00 00
	00 00		 mov	 DWORD PTR [ecx+24], OFFSET ?nullrep_@TiXmlString@@0URep@1@A ; TiXmlString::nullrep_
; File E:\Proyectos\JuegosOnlineproyectos\PB\pbblow\Piercing Blow Remake\i3Server\include\i3Base\tinyxml.h

; 790  : 	{

  0002f	89 4d fc	 mov	 DWORD PTR _this$[ebp], ecx

; 791  : 		document = 0;

  00032	c7 41 10 00 00
	00 00		 mov	 DWORD PTR [ecx+16], 0

; 792  : 		prev = next = 0;

  00039	c7 41 20 00 00
	00 00		 mov	 DWORD PTR [ecx+32], 0
  00040	c7 41 1c 00 00
	00 00		 mov	 DWORD PTR [ecx+28], 0

; 793  : 	}

  00047	8b e5		 mov	 esp, ebp
  00049	5d		 pop	 ebp
  0004a	c3		 ret	 0
??0TiXmlAttribute@@QAE@XZ ENDP				; TiXmlAttribute::TiXmlAttribute
_TEXT	ENDS
; Function compile flags: /Ogtp
; File E:\Proyectos\JuegosOnlineproyectos\PB\pbblow\Piercing Blow Remake\i3Server\include\i3Base\tinyxml.h
;	COMDAT ?ToDeclaration@TiXmlNode@@UAEPAVTiXmlDeclaration@@XZ
_TEXT	SEGMENT
?ToDeclaration@TiXmlNode@@UAEPAVTiXmlDeclaration@@XZ PROC ; TiXmlNode::ToDeclaration, COMDAT
; _this$ = ecx

; 713  : 	virtual TiXmlDeclaration*       ToDeclaration() { return 0; } ///< Cast to a more defined type. Will return null if not of the requested type.

  00000	33 c0		 xor	 eax, eax
  00002	c3		 ret	 0
?ToDeclaration@TiXmlNode@@UAEPAVTiXmlDeclaration@@XZ ENDP ; TiXmlNode::ToDeclaration
_TEXT	ENDS
; Function compile flags: /Ogtp
; File E:\Proyectos\JuegosOnlineproyectos\PB\pbblow\Piercing Blow Remake\i3Server\include\i3Base\tinyxml.h
;	COMDAT ?ToText@TiXmlNode@@UAEPAVTiXmlText@@XZ
_TEXT	SEGMENT
?ToText@TiXmlNode@@UAEPAVTiXmlText@@XZ PROC		; TiXmlNode::ToText, COMDAT
; _this$ = ecx

; 712  : 	virtual TiXmlText*	            ToText()        { return 0; } ///< Cast to a more defined type. Will return null if not of the requested type.

  00000	33 c0		 xor	 eax, eax
  00002	c3		 ret	 0
?ToText@TiXmlNode@@UAEPAVTiXmlText@@XZ ENDP		; TiXmlNode::ToText
_TEXT	ENDS
; Function compile flags: /Ogtp
; File E:\Proyectos\JuegosOnlineproyectos\PB\pbblow\Piercing Blow Remake\i3Server\include\i3Base\tinyxml.h
;	COMDAT ?ToUnknown@TiXmlNode@@UAEPAVTiXmlUnknown@@XZ
_TEXT	SEGMENT
?ToUnknown@TiXmlNode@@UAEPAVTiXmlUnknown@@XZ PROC	; TiXmlNode::ToUnknown, COMDAT
; _this$ = ecx

; 711  : 	virtual TiXmlUnknown*           ToUnknown()	    { return 0; } ///< Cast to a more defined type. Will return null if not of the requested type.

  00000	33 c0		 xor	 eax, eax
  00002	c3		 ret	 0
?ToUnknown@TiXmlNode@@UAEPAVTiXmlUnknown@@XZ ENDP	; TiXmlNode::ToUnknown
_TEXT	ENDS
; Function compile flags: /Ogtp
; File E:\Proyectos\JuegosOnlineproyectos\PB\pbblow\Piercing Blow Remake\i3Server\include\i3Base\tinyxml.h
;	COMDAT ?ToComment@TiXmlNode@@UAEPAVTiXmlComment@@XZ
_TEXT	SEGMENT
?ToComment@TiXmlNode@@UAEPAVTiXmlComment@@XZ PROC	; TiXmlNode::ToComment, COMDAT
; _this$ = ecx

; 710  : 	virtual TiXmlComment*           ToComment()     { return 0; } ///< Cast to a more defined type. Will return null if not of the requested type.

  00000	33 c0		 xor	 eax, eax
  00002	c3		 ret	 0
?ToComment@TiXmlNode@@UAEPAVTiXmlComment@@XZ ENDP	; TiXmlNode::ToComment
_TEXT	ENDS
; Function compile flags: /Ogtp
; File E:\Proyectos\JuegosOnlineproyectos\PB\pbblow\Piercing Blow Remake\i3Server\include\i3Base\tinyxml.h
;	COMDAT ?ToElement@TiXmlNode@@UAEPAVTiXmlElement@@XZ
_TEXT	SEGMENT
?ToElement@TiXmlNode@@UAEPAVTiXmlElement@@XZ PROC	; TiXmlNode::ToElement, COMDAT
; _this$ = ecx

; 709  : 	virtual TiXmlElement*           ToElement()	    { return 0; } ///< Cast to a more defined type. Will return null if not of the requested type.

  00000	33 c0		 xor	 eax, eax
  00002	c3		 ret	 0
?ToElement@TiXmlNode@@UAEPAVTiXmlElement@@XZ ENDP	; TiXmlNode::ToElement
_TEXT	ENDS
; Function compile flags: /Ogtp
; File E:\Proyectos\JuegosOnlineproyectos\PB\pbblow\Piercing Blow Remake\i3Server\include\i3Base\tinyxml.h
;	COMDAT ?ToDocument@TiXmlNode@@UAEPAVTiXmlDocument@@XZ
_TEXT	SEGMENT
?ToDocument@TiXmlNode@@UAEPAVTiXmlDocument@@XZ PROC	; TiXmlNode::ToDocument, COMDAT
; _this$ = ecx

; 708  : 	virtual TiXmlDocument*          ToDocument()    { return 0; } ///< Cast to a more defined type. Will return null if not of the requested type.

  00000	33 c0		 xor	 eax, eax
  00002	c3		 ret	 0
?ToDocument@TiXmlNode@@UAEPAVTiXmlDocument@@XZ ENDP	; TiXmlNode::ToDocument
_TEXT	ENDS
; Function compile flags: /Ogtp
; File E:\Proyectos\JuegosOnlineproyectos\PB\pbblow\Piercing Blow Remake\i3Server\include\i3Base\tinyxml.h
;	COMDAT ?ToDeclaration@TiXmlNode@@UBEPBVTiXmlDeclaration@@XZ
_TEXT	SEGMENT
?ToDeclaration@TiXmlNode@@UBEPBVTiXmlDeclaration@@XZ PROC ; TiXmlNode::ToDeclaration, COMDAT
; _this$ = ecx

; 706  : 	virtual const TiXmlDeclaration* ToDeclaration() const { return 0; } ///< Cast to a more defined type. Will return null if not of the requested type.

  00000	33 c0		 xor	 eax, eax
  00002	c3		 ret	 0
?ToDeclaration@TiXmlNode@@UBEPBVTiXmlDeclaration@@XZ ENDP ; TiXmlNode::ToDeclaration
_TEXT	ENDS
; Function compile flags: /Ogtp
; File E:\Proyectos\JuegosOnlineproyectos\PB\pbblow\Piercing Blow Remake\i3Server\include\i3Base\tinyxml.h
;	COMDAT ?ToText@TiXmlNode@@UBEPBVTiXmlText@@XZ
_TEXT	SEGMENT
?ToText@TiXmlNode@@UBEPBVTiXmlText@@XZ PROC		; TiXmlNode::ToText, COMDAT
; _this$ = ecx

; 705  : 	virtual const TiXmlText*        ToText()        const { return 0; } ///< Cast to a more defined type. Will return null if not of the requested type.

  00000	33 c0		 xor	 eax, eax
  00002	c3		 ret	 0
?ToText@TiXmlNode@@UBEPBVTiXmlText@@XZ ENDP		; TiXmlNode::ToText
_TEXT	ENDS
; Function compile flags: /Ogtp
; File E:\Proyectos\JuegosOnlineproyectos\PB\pbblow\Piercing Blow Remake\i3Server\include\i3Base\tinyxml.h
;	COMDAT ?ToUnknown@TiXmlNode@@UBEPBVTiXmlUnknown@@XZ
_TEXT	SEGMENT
?ToUnknown@TiXmlNode@@UBEPBVTiXmlUnknown@@XZ PROC	; TiXmlNode::ToUnknown, COMDAT
; _this$ = ecx

; 704  : 	virtual const TiXmlUnknown*     ToUnknown()     const { return 0; } ///< Cast to a more defined type. Will return null if not of the requested type.

  00000	33 c0		 xor	 eax, eax
  00002	c3		 ret	 0
?ToUnknown@TiXmlNode@@UBEPBVTiXmlUnknown@@XZ ENDP	; TiXmlNode::ToUnknown
_TEXT	ENDS
; Function compile flags: /Ogtp
; File E:\Proyectos\JuegosOnlineproyectos\PB\pbblow\Piercing Blow Remake\i3Server\include\i3Base\tinyxml.h
;	COMDAT ?ToComment@TiXmlNode@@UBEPBVTiXmlComment@@XZ
_TEXT	SEGMENT
?ToComment@TiXmlNode@@UBEPBVTiXmlComment@@XZ PROC	; TiXmlNode::ToComment, COMDAT
; _this$ = ecx

; 703  : 	virtual const TiXmlComment*     ToComment()     const { return 0; } ///< Cast to a more defined type. Will return null if not of the requested type.

  00000	33 c0		 xor	 eax, eax
  00002	c3		 ret	 0
?ToComment@TiXmlNode@@UBEPBVTiXmlComment@@XZ ENDP	; TiXmlNode::ToComment
_TEXT	ENDS
; Function compile flags: /Ogtp
; File E:\Proyectos\JuegosOnlineproyectos\PB\pbblow\Piercing Blow Remake\i3Server\include\i3Base\tinyxml.h
;	COMDAT ?ToElement@TiXmlNode@@UBEPBVTiXmlElement@@XZ
_TEXT	SEGMENT
?ToElement@TiXmlNode@@UBEPBVTiXmlElement@@XZ PROC	; TiXmlNode::ToElement, COMDAT
; _this$ = ecx

; 702  : 	virtual const TiXmlElement*     ToElement()     const { return 0; } ///< Cast to a more defined type. Will return null if not of the requested type.

  00000	33 c0		 xor	 eax, eax
  00002	c3		 ret	 0
?ToElement@TiXmlNode@@UBEPBVTiXmlElement@@XZ ENDP	; TiXmlNode::ToElement
_TEXT	ENDS
; Function compile flags: /Ogtp
; File E:\Proyectos\JuegosOnlineproyectos\PB\pbblow\Piercing Blow Remake\i3Server\include\i3Base\tinyxml.h
;	COMDAT ?ToDocument@TiXmlNode@@UBEPBVTiXmlDocument@@XZ
_TEXT	SEGMENT
?ToDocument@TiXmlNode@@UBEPBVTiXmlDocument@@XZ PROC	; TiXmlNode::ToDocument, COMDAT
; _this$ = ecx

; 701  : 	virtual const TiXmlDocument*    ToDocument()    const { return 0; } ///< Cast to a more defined type. Will return null if not of the requested type.

  00000	33 c0		 xor	 eax, eax
  00002	c3		 ret	 0
?ToDocument@TiXmlNode@@UBEPBVTiXmlDocument@@XZ ENDP	; TiXmlNode::ToDocument
_TEXT	ENDS
; Function compile flags: /Ogtp
; File E:\Proyectos\JuegosOnlineproyectos\PB\pbblow\Piercing Blow Remake\i3Server\include\i3Base\tinyxml.h
;	COMDAT ?NoChildren@TiXmlNode@@QBE_NXZ
_TEXT	SEGMENT
?NoChildren@TiXmlNode@@QBE_NXZ PROC			; TiXmlNode::NoChildren, COMDAT
; _this$ = ecx

; 699  : 	bool NoChildren() const						{ return !firstChild; }

  00000	83 79 18 00	 cmp	 DWORD PTR [ecx+24], 0
  00004	0f 94 c0	 sete	 al
  00007	c3		 ret	 0
?NoChildren@TiXmlNode@@QBE_NXZ ENDP			; TiXmlNode::NoChildren
_TEXT	ENDS
; Function compile flags: /Ogtp
; File E:\Proyectos\JuegosOnlineproyectos\PB\pbblow\Piercing Blow Remake\i3Server\include\i3Base\tinyxml.h
;	COMDAT ?GetDocument@TiXmlNode@@QAEPAVTiXmlDocument@@XZ
_TEXT	SEGMENT
?GetDocument@TiXmlNode@@QAEPAVTiXmlDocument@@XZ PROC	; TiXmlNode::GetDocument, COMDAT
; _this$ = ecx

; 695  : 		return const_cast< TiXmlDocument* >( (const_cast< const TiXmlNode* >(this))->GetDocument() );

  00000	e9 00 00 00 00	 jmp	 ?GetDocument@TiXmlNode@@QBEPBVTiXmlDocument@@XZ ; TiXmlNode::GetDocument
?GetDocument@TiXmlNode@@QAEPAVTiXmlDocument@@XZ ENDP	; TiXmlNode::GetDocument
_TEXT	ENDS
; Function compile flags: /Ogtp
; File E:\Proyectos\JuegosOnlineproyectos\PB\pbblow\Piercing Blow Remake\i3Server\include\i3Base\tinyxml.h
;	COMDAT ?Type@TiXmlNode@@QBEHXZ
_TEXT	SEGMENT
?Type@TiXmlNode@@QBEHXZ PROC				; TiXmlNode::Type, COMDAT
; _this$ = ecx

; 688  : 	int Type() const	{ return type; }

  00000	8b 41 14	 mov	 eax, DWORD PTR [ecx+20]
  00003	c3		 ret	 0
?Type@TiXmlNode@@QBEHXZ ENDP				; TiXmlNode::Type
_TEXT	ENDS
; Function compile flags: /Ogtp
; File E:\Proyectos\JuegosOnlineproyectos\PB\pbblow\Piercing Blow Remake\i3Server\include\i3Base\tinyxml.h
;	COMDAT ?FirstChildElement@TiXmlNode@@QAEPAVTiXmlElement@@PBD@Z
_TEXT	SEGMENT
__value$ = 8						; size = 4
?FirstChildElement@TiXmlNode@@QAEPAVTiXmlElement@@PBD@Z PROC ; TiXmlNode::FirstChildElement, COMDAT
; _this$ = ecx

; 675  : 	TiXmlElement* FirstChildElement( const char * _value ) {

  00000	55		 push	 ebp
  00001	8b ec		 mov	 ebp, esp

; 677  : 	}

  00003	5d		 pop	 ebp

; 676  : 		return const_cast< TiXmlElement* >( (const_cast< const TiXmlNode* >(this))->FirstChildElement( _value ) );

  00004	e9 00 00 00 00	 jmp	 ?FirstChildElement@TiXmlNode@@QBEPBVTiXmlElement@@PBD@Z ; TiXmlNode::FirstChildElement
?FirstChildElement@TiXmlNode@@QAEPAVTiXmlElement@@PBD@Z ENDP ; TiXmlNode::FirstChildElement
_TEXT	ENDS
; Function compile flags: /Ogtp
; File E:\Proyectos\JuegosOnlineproyectos\PB\pbblow\Piercing Blow Remake\i3Server\include\i3Base\tinyxml.h
;	COMDAT ?FirstChildElement@TiXmlNode@@QAEPAVTiXmlElement@@XZ
_TEXT	SEGMENT
?FirstChildElement@TiXmlNode@@QAEPAVTiXmlElement@@XZ PROC ; TiXmlNode::FirstChildElement, COMDAT
; _this$ = ecx

; 670  : 		return const_cast< TiXmlElement* >( (const_cast< const TiXmlNode* >(this))->FirstChildElement() );

  00000	e9 00 00 00 00	 jmp	 ?FirstChildElement@TiXmlNode@@QBEPBVTiXmlElement@@XZ ; TiXmlNode::FirstChildElement
?FirstChildElement@TiXmlNode@@QAEPAVTiXmlElement@@XZ ENDP ; TiXmlNode::FirstChildElement
_TEXT	ENDS
; Function compile flags: /Ogtp
; File E:\Proyectos\JuegosOnlineproyectos\PB\pbblow\Piercing Blow Remake\i3Server\include\i3Base\tinyxml.h
;	COMDAT ?NextSiblingElement@TiXmlNode@@QAEPAVTiXmlElement@@PBD@Z
_TEXT	SEGMENT
__next$ = 8						; size = 4
?NextSiblingElement@TiXmlNode@@QAEPAVTiXmlElement@@PBD@Z PROC ; TiXmlNode::NextSiblingElement, COMDAT
; _this$ = ecx

; 658  : 	TiXmlElement* NextSiblingElement( const char *_next ) {

  00000	55		 push	 ebp
  00001	8b ec		 mov	 ebp, esp

; 660  : 	}

  00003	5d		 pop	 ebp

; 659  : 		return const_cast< TiXmlElement* >( (const_cast< const TiXmlNode* >(this))->NextSiblingElement( _next ) );

  00004	e9 00 00 00 00	 jmp	 ?NextSiblingElement@TiXmlNode@@QBEPBVTiXmlElement@@PBD@Z ; TiXmlNode::NextSiblingElement
?NextSiblingElement@TiXmlNode@@QAEPAVTiXmlElement@@PBD@Z ENDP ; TiXmlNode::NextSiblingElement
_TEXT	ENDS
; Function compile flags: /Ogtp
; File E:\Proyectos\JuegosOnlineproyectos\PB\pbblow\Piercing Blow Remake\i3Server\include\i3Base\tinyxml.h
;	COMDAT ?NextSiblingElement@TiXmlNode@@QAEPAVTiXmlElement@@XZ
_TEXT	SEGMENT
?NextSiblingElement@TiXmlNode@@QAEPAVTiXmlElement@@XZ PROC ; TiXmlNode::NextSiblingElement, COMDAT
; _this$ = ecx

; 650  : 		return const_cast< TiXmlElement* >( (const_cast< const TiXmlNode* >(this))->NextSiblingElement() );

  00000	e9 00 00 00 00	 jmp	 ?NextSiblingElement@TiXmlNode@@QBEPBVTiXmlElement@@XZ ; TiXmlNode::NextSiblingElement
?NextSiblingElement@TiXmlNode@@QAEPAVTiXmlElement@@XZ ENDP ; TiXmlNode::NextSiblingElement
_TEXT	ENDS
; Function compile flags: /Ogtp
; File E:\Proyectos\JuegosOnlineproyectos\PB\pbblow\Piercing Blow Remake\i3Server\include\i3Base\tinyxml.h
;	COMDAT ?NextSibling@TiXmlNode@@QAEPAV1@PBD@Z
_TEXT	SEGMENT
__next$ = 8						; size = 4
?NextSibling@TiXmlNode@@QAEPAV1@PBD@Z PROC		; TiXmlNode::NextSibling, COMDAT
; _this$ = ecx

; 640  : 	TiXmlNode* NextSibling( const char* _next ) {

  00000	55		 push	 ebp
  00001	8b ec		 mov	 ebp, esp

; 642  : 	}

  00003	5d		 pop	 ebp

; 641  : 		return const_cast< TiXmlNode* >( (const_cast< const TiXmlNode* >(this))->NextSibling( _next ) );

  00004	e9 00 00 00 00	 jmp	 ?NextSibling@TiXmlNode@@QBEPBV1@PBD@Z ; TiXmlNode::NextSibling
?NextSibling@TiXmlNode@@QAEPAV1@PBD@Z ENDP		; TiXmlNode::NextSibling
_TEXT	ENDS
; Function compile flags: /Ogtp
; File E:\Proyectos\JuegosOnlineproyectos\PB\pbblow\Piercing Blow Remake\i3Server\include\i3Base\tinyxml.h
;	COMDAT ?NextSibling@TiXmlNode@@QAEPAV1@XZ
_TEXT	SEGMENT
?NextSibling@TiXmlNode@@QAEPAV1@XZ PROC			; TiXmlNode::NextSibling, COMDAT
; _this$ = ecx

; 636  : 	TiXmlNode* NextSibling()							{ return next; }

  00000	8b 41 28	 mov	 eax, DWORD PTR [ecx+40]
  00003	c3		 ret	 0
?NextSibling@TiXmlNode@@QAEPAV1@XZ ENDP			; TiXmlNode::NextSibling
_TEXT	ENDS
; Function compile flags: /Ogtp
; File E:\Proyectos\JuegosOnlineproyectos\PB\pbblow\Piercing Blow Remake\i3Server\include\i3Base\tinyxml.h
;	COMDAT ?NextSibling@TiXmlNode@@QBEPBV1@XZ
_TEXT	SEGMENT
?NextSibling@TiXmlNode@@QBEPBV1@XZ PROC			; TiXmlNode::NextSibling, COMDAT
; _this$ = ecx

; 635  : 	const TiXmlNode* NextSibling() const				{ return next; }

  00000	8b 41 28	 mov	 eax, DWORD PTR [ecx+40]
  00003	c3		 ret	 0
?NextSibling@TiXmlNode@@QBEPBV1@XZ ENDP			; TiXmlNode::NextSibling
_TEXT	ENDS
; Function compile flags: /Ogtp
; File E:\Proyectos\JuegosOnlineproyectos\PB\pbblow\Piercing Blow Remake\i3Server\include\i3Base\tinyxml.h
;	COMDAT ?PreviousSibling@TiXmlNode@@QAEPAV1@PBD@Z
_TEXT	SEGMENT
__prev$ = 8						; size = 4
?PreviousSibling@TiXmlNode@@QAEPAV1@PBD@Z PROC		; TiXmlNode::PreviousSibling, COMDAT
; _this$ = ecx

; 623  : 	TiXmlNode* PreviousSibling( const char *_prev ) {

  00000	55		 push	 ebp
  00001	8b ec		 mov	 ebp, esp

; 625  : 	}

  00003	5d		 pop	 ebp

; 624  : 		return const_cast< TiXmlNode* >( (const_cast< const TiXmlNode* >(this))->PreviousSibling( _prev ) );

  00004	e9 00 00 00 00	 jmp	 ?PreviousSibling@TiXmlNode@@QBEPBV1@PBD@Z ; TiXmlNode::PreviousSibling
?PreviousSibling@TiXmlNode@@QAEPAV1@PBD@Z ENDP		; TiXmlNode::PreviousSibling
_TEXT	ENDS
; Function compile flags: /Ogtp
; File E:\Proyectos\JuegosOnlineproyectos\PB\pbblow\Piercing Blow Remake\i3Server\include\i3Base\tinyxml.h
;	COMDAT ?PreviousSibling@TiXmlNode@@QAEPAV1@XZ
_TEXT	SEGMENT
?PreviousSibling@TiXmlNode@@QAEPAV1@XZ PROC		; TiXmlNode::PreviousSibling, COMDAT
; _this$ = ecx

; 619  : 	TiXmlNode* PreviousSibling()						{ return prev; }

  00000	8b 41 24	 mov	 eax, DWORD PTR [ecx+36]
  00003	c3		 ret	 0
?PreviousSibling@TiXmlNode@@QAEPAV1@XZ ENDP		; TiXmlNode::PreviousSibling
_TEXT	ENDS
; Function compile flags: /Ogtp
; File E:\Proyectos\JuegosOnlineproyectos\PB\pbblow\Piercing Blow Remake\i3Server\include\i3Base\tinyxml.h
;	COMDAT ?PreviousSibling@TiXmlNode@@QBEPBV1@XZ
_TEXT	SEGMENT
?PreviousSibling@TiXmlNode@@QBEPBV1@XZ PROC		; TiXmlNode::PreviousSibling, COMDAT
; _this$ = ecx

; 618  : 	const TiXmlNode* PreviousSibling() const			{ return prev; }

  00000	8b 41 24	 mov	 eax, DWORD PTR [ecx+36]
  00003	c3		 ret	 0
?PreviousSibling@TiXmlNode@@QBEPBV1@XZ ENDP		; TiXmlNode::PreviousSibling
_TEXT	ENDS
; Function compile flags: /Ogtp
; File E:\Proyectos\JuegosOnlineproyectos\PB\pbblow\Piercing Blow Remake\i3Server\include\i3Base\tinyxml.h
;	COMDAT ?IterateChildren@TiXmlNode@@QAEPAV1@PBDPBV1@@Z
_TEXT	SEGMENT
__value$ = 8						; size = 4
_previous$ = 12						; size = 4
?IterateChildren@TiXmlNode@@QAEPAV1@PBDPBV1@@Z PROC	; TiXmlNode::IterateChildren, COMDAT
; _this$ = ecx

; 573  : 	TiXmlNode* IterateChildren( const char * _value, const TiXmlNode* previous ) {

  00000	55		 push	 ebp
  00001	8b ec		 mov	 ebp, esp

; 575  : 	}

  00003	5d		 pop	 ebp

; 574  : 		return const_cast< TiXmlNode* >( (const_cast< const TiXmlNode* >(this))->IterateChildren( _value, previous ) );

  00004	e9 00 00 00 00	 jmp	 ?IterateChildren@TiXmlNode@@QBEPBV1@PBDPBV1@@Z ; TiXmlNode::IterateChildren
?IterateChildren@TiXmlNode@@QAEPAV1@PBDPBV1@@Z ENDP	; TiXmlNode::IterateChildren
_TEXT	ENDS
; Function compile flags: /Ogtp
; File E:\Proyectos\JuegosOnlineproyectos\PB\pbblow\Piercing Blow Remake\i3Server\include\i3Base\tinyxml.h
;	COMDAT ?IterateChildren@TiXmlNode@@QAEPAV1@PBV1@@Z
_TEXT	SEGMENT
_previous$ = 8						; size = 4
?IterateChildren@TiXmlNode@@QAEPAV1@PBV1@@Z PROC	; TiXmlNode::IterateChildren, COMDAT
; _this$ = ecx

; 567  : 	TiXmlNode* IterateChildren( const TiXmlNode* previous ) {

  00000	55		 push	 ebp
  00001	8b ec		 mov	 ebp, esp

; 569  : 	}

  00003	5d		 pop	 ebp

; 568  : 		return const_cast< TiXmlNode* >( (const_cast< const TiXmlNode* >(this))->IterateChildren( previous ) );

  00004	e9 00 00 00 00	 jmp	 ?IterateChildren@TiXmlNode@@QBEPBV1@PBV1@@Z ; TiXmlNode::IterateChildren
?IterateChildren@TiXmlNode@@QAEPAV1@PBV1@@Z ENDP	; TiXmlNode::IterateChildren
_TEXT	ENDS
; Function compile flags: /Ogtp
; File E:\Proyectos\JuegosOnlineproyectos\PB\pbblow\Piercing Blow Remake\i3Server\include\i3Base\tinyxml.h
;	COMDAT ?LastChild@TiXmlNode@@QAEPAV1@PBD@Z
_TEXT	SEGMENT
__value$ = 8						; size = 4
?LastChild@TiXmlNode@@QAEPAV1@PBD@Z PROC		; TiXmlNode::LastChild, COMDAT
; _this$ = ecx

; 539  : 	TiXmlNode* LastChild( const char * _value ) {

  00000	55		 push	 ebp
  00001	8b ec		 mov	 ebp, esp

; 541  : 	}

  00003	5d		 pop	 ebp

; 540  : 		return const_cast< TiXmlNode* > ((const_cast< const TiXmlNode* >(this))->LastChild( _value ));

  00004	e9 00 00 00 00	 jmp	 ?LastChild@TiXmlNode@@QBEPBV1@PBD@Z ; TiXmlNode::LastChild
?LastChild@TiXmlNode@@QAEPAV1@PBD@Z ENDP		; TiXmlNode::LastChild
_TEXT	ENDS
; Function compile flags: /Ogtp
; File E:\Proyectos\JuegosOnlineproyectos\PB\pbblow\Piercing Blow Remake\i3Server\include\i3Base\tinyxml.h
;	COMDAT ?LastChild@TiXmlNode@@QAEPAV1@XZ
_TEXT	SEGMENT
?LastChild@TiXmlNode@@QAEPAV1@XZ PROC			; TiXmlNode::LastChild, COMDAT
; _this$ = ecx

; 536  : 	TiXmlNode* LastChild()	{ return lastChild; }

  00000	8b 41 1c	 mov	 eax, DWORD PTR [ecx+28]
  00003	c3		 ret	 0
?LastChild@TiXmlNode@@QAEPAV1@XZ ENDP			; TiXmlNode::LastChild
_TEXT	ENDS
; Function compile flags: /Ogtp
; File E:\Proyectos\JuegosOnlineproyectos\PB\pbblow\Piercing Blow Remake\i3Server\include\i3Base\tinyxml.h
;	COMDAT ?LastChild@TiXmlNode@@QBEPBV1@XZ
_TEXT	SEGMENT
?LastChild@TiXmlNode@@QBEPBV1@XZ PROC			; TiXmlNode::LastChild, COMDAT
; _this$ = ecx

; 535  : 	const TiXmlNode* LastChild() const	{ return lastChild; }		/// The last child of this node. Will be null if there are no children.

  00000	8b 41 1c	 mov	 eax, DWORD PTR [ecx+28]
  00003	c3		 ret	 0
?LastChild@TiXmlNode@@QBEPBV1@XZ ENDP			; TiXmlNode::LastChild
_TEXT	ENDS
; Function compile flags: /Ogtp
; File E:\Proyectos\JuegosOnlineproyectos\PB\pbblow\Piercing Blow Remake\i3Server\include\i3Base\tinyxml.h
;	COMDAT ?FirstChild@TiXmlNode@@QAEPAV1@PBD@Z
_TEXT	SEGMENT
__value$ = 8						; size = 4
?FirstChild@TiXmlNode@@QAEPAV1@PBD@Z PROC		; TiXmlNode::FirstChild, COMDAT
; _this$ = ecx

; 530  : 	TiXmlNode* FirstChild( const char * _value ) {

  00000	55		 push	 ebp
  00001	8b ec		 mov	 ebp, esp

; 534  : 	}

  00003	5d		 pop	 ebp

; 531  : 		// Call through to the const version - safe since nothing is changed. Exiting syntax: cast this to a const (always safe)
; 532  : 		// call the method, cast the return back to non-const.
; 533  : 		return const_cast< TiXmlNode* > ((const_cast< const TiXmlNode* >(this))->FirstChild( _value ));

  00004	e9 00 00 00 00	 jmp	 ?FirstChild@TiXmlNode@@QBEPBV1@PBD@Z ; TiXmlNode::FirstChild
?FirstChild@TiXmlNode@@QAEPAV1@PBD@Z ENDP		; TiXmlNode::FirstChild
_TEXT	ENDS
; Function compile flags: /Ogtp
; File E:\Proyectos\JuegosOnlineproyectos\PB\pbblow\Piercing Blow Remake\i3Server\include\i3Base\tinyxml.h
;	COMDAT ?FirstChild@TiXmlNode@@QAEPAV1@XZ
_TEXT	SEGMENT
?FirstChild@TiXmlNode@@QAEPAV1@XZ PROC			; TiXmlNode::FirstChild, COMDAT
; _this$ = ecx

; 527  : 	TiXmlNode* FirstChild()						{ return firstChild; }

  00000	8b 41 18	 mov	 eax, DWORD PTR [ecx+24]
  00003	c3		 ret	 0
?FirstChild@TiXmlNode@@QAEPAV1@XZ ENDP			; TiXmlNode::FirstChild
_TEXT	ENDS
; Function compile flags: /Ogtp
; File E:\Proyectos\JuegosOnlineproyectos\PB\pbblow\Piercing Blow Remake\i3Server\include\i3Base\tinyxml.h
;	COMDAT ?FirstChild@TiXmlNode@@QBEPBV1@XZ
_TEXT	SEGMENT
?FirstChild@TiXmlNode@@QBEPBV1@XZ PROC			; TiXmlNode::FirstChild, COMDAT
; _this$ = ecx

; 526  : 	const TiXmlNode* FirstChild()	const		{ return firstChild; }	///< The first child of this node. Will be null if there are no children.

  00000	8b 41 18	 mov	 eax, DWORD PTR [ecx+24]
  00003	c3		 ret	 0
?FirstChild@TiXmlNode@@QBEPBV1@XZ ENDP			; TiXmlNode::FirstChild
_TEXT	ENDS
; Function compile flags: /Ogtp
; File E:\Proyectos\JuegosOnlineproyectos\PB\pbblow\Piercing Blow Remake\i3Server\include\i3Base\tinyxml.h
;	COMDAT ?Parent@TiXmlNode@@QBEPBV1@XZ
_TEXT	SEGMENT
?Parent@TiXmlNode@@QBEPBV1@XZ PROC			; TiXmlNode::Parent, COMDAT
; _this$ = ecx

; 524  : 	const TiXmlNode* Parent() const				{ return parent; }

  00000	8b 41 10	 mov	 eax, DWORD PTR [ecx+16]
  00003	c3		 ret	 0
?Parent@TiXmlNode@@QBEPBV1@XZ ENDP			; TiXmlNode::Parent
_TEXT	ENDS
; Function compile flags: /Ogtp
; File E:\Proyectos\JuegosOnlineproyectos\PB\pbblow\Piercing Blow Remake\i3Server\include\i3Base\tinyxml.h
;	COMDAT ?Parent@TiXmlNode@@QAEPAV1@XZ
_TEXT	SEGMENT
?Parent@TiXmlNode@@QAEPAV1@XZ PROC			; TiXmlNode::Parent, COMDAT
; _this$ = ecx

; 523  : 	TiXmlNode* Parent()							{ return parent; }

  00000	8b 41 10	 mov	 eax, DWORD PTR [ecx+16]
  00003	c3		 ret	 0
?Parent@TiXmlNode@@QAEPAV1@XZ ENDP			; TiXmlNode::Parent
_TEXT	ENDS
; Function compile flags: /Ogtp
; File E:\Proyectos\JuegosOnlineproyectos\PB\pbblow\Piercing Blow Remake\i3Server\include\i3Base\tinyxml.h
; File E:\Proyectos\JuegosOnlineproyectos\PB\pbblow\Piercing Blow Remake\i3Server\include\i3Base\tinystr.h
; File E:\Proyectos\JuegosOnlineproyectos\PB\pbblow\Piercing Blow Remake\i3Server\include\i3Base\tinyxml.h
; File E:\Proyectos\JuegosOnlineproyectos\PB\pbblow\Piercing Blow Remake\i3Server\include\i3Base\tinystr.h
; File E:\Proyectos\JuegosOnlineproyectos\PB\pbblow\Piercing Blow Remake\i3Server\include\i3Base\tinyxml.h
; File E:\Proyectos\JuegosOnlineproyectos\PB\pbblow\Piercing Blow Remake\i3Server\include\i3Base\tinystr.h
; File E:\Proyectos\JuegosOnlineproyectos\PB\pbblow\Piercing Blow Remake\i3Server\include\i3Base\tinyxml.h
;	COMDAT ?SetValue@TiXmlNode@@QAEXPBD@Z
_TEXT	SEGMENT
__value$ = 8						; size = 4
?SetValue@TiXmlNode@@QAEXPBD@Z PROC			; TiXmlNode::SetValue, COMDAT
; _this$ = ecx

; 512  : 	void SetValue(const char * _value) { value = _value;}

  00000	55		 push	 ebp
  00001	8b ec		 mov	 ebp, esp
; File E:\Proyectos\JuegosOnlineproyectos\PB\pbblow\Piercing Blow Remake\i3Server\include\i3Base\tinystr.h

; 114  : 		return assign( copy, (size_type)strlen(copy));

  00003	8b 55 08	 mov	 edx, DWORD PTR __value$[ebp]
  00006	8b c2		 mov	 eax, edx
; File E:\Proyectos\JuegosOnlineproyectos\PB\pbblow\Piercing Blow Remake\i3Server\include\i3Base\tinyxml.h

; 512  : 	void SetValue(const char * _value) { value = _value;}

  00008	56		 push	 esi
  00009	57		 push	 edi
  0000a	8b f1		 mov	 esi, ecx
; File E:\Proyectos\JuegosOnlineproyectos\PB\pbblow\Piercing Blow Remake\i3Server\include\i3Base\tinystr.h

; 114  : 		return assign( copy, (size_type)strlen(copy));

  0000c	8d 78 01	 lea	 edi, DWORD PTR [eax+1]
  0000f	90		 npad	 1
$LL5@SetValue:
  00010	8a 08		 mov	 cl, BYTE PTR [eax]
  00012	40		 inc	 eax
  00013	84 c9		 test	 cl, cl
  00015	75 f9		 jne	 SHORT $LL5@SetValue
  00017	2b c7		 sub	 eax, edi
; File E:\Proyectos\JuegosOnlineproyectos\PB\pbblow\Piercing Blow Remake\i3Server\include\i3Base\tinyxml.h

; 512  : 	void SetValue(const char * _value) { value = _value;}

  00019	8d 4e 20	 lea	 ecx, DWORD PTR [esi+32]
; File E:\Proyectos\JuegosOnlineproyectos\PB\pbblow\Piercing Blow Remake\i3Server\include\i3Base\tinystr.h

; 114  : 		return assign( copy, (size_type)strlen(copy));

  0001c	50		 push	 eax
  0001d	52		 push	 edx
  0001e	e8 00 00 00 00	 call	 ?assign@TiXmlString@@QAEAAV1@PBDI@Z ; TiXmlString::assign
  00023	5f		 pop	 edi
  00024	5e		 pop	 esi
; File E:\Proyectos\JuegosOnlineproyectos\PB\pbblow\Piercing Blow Remake\i3Server\include\i3Base\tinyxml.h

; 512  : 	void SetValue(const char * _value) { value = _value;}

  00025	5d		 pop	 ebp
  00026	c2 04 00	 ret	 4
?SetValue@TiXmlNode@@QAEXPBD@Z ENDP			; TiXmlNode::SetValue
_TEXT	ENDS
; Function compile flags: /Ogtp
; File E:\Proyectos\JuegosOnlineproyectos\PB\pbblow\Piercing Blow Remake\i3Server\include\i3Base\tinyxml.h
;	COMDAT ?ValueTStr@TiXmlNode@@QBEABVTiXmlString@@XZ
_TEXT	SEGMENT
?ValueTStr@TiXmlNode@@QBEABVTiXmlString@@XZ PROC	; TiXmlNode::ValueTStr, COMDAT
; _this$ = ecx

; 501  : 	const TIXML_STRING& ValueTStr() const { return value; }

  00000	8d 41 20	 lea	 eax, DWORD PTR [ecx+32]
  00003	c3		 ret	 0
?ValueTStr@TiXmlNode@@QBEABVTiXmlString@@XZ ENDP	; TiXmlNode::ValueTStr
_TEXT	ENDS
; Function compile flags: /Ogtp
; File E:\Proyectos\JuegosOnlineproyectos\PB\pbblow\Piercing Blow Remake\i3Server\include\i3Base\tinyxml.h
; File E:\Proyectos\JuegosOnlineproyectos\PB\pbblow\Piercing Blow Remake\i3Server\include\i3Base\tinystr.h
; File E:\Proyectos\JuegosOnlineproyectos\PB\pbblow\Piercing Blow Remake\i3Server\include\i3Base\tinyxml.h
;	COMDAT ?Value@TiXmlNode@@QBEPBDXZ
_TEXT	SEGMENT
?Value@TiXmlNode@@QBEPBDXZ PROC				; TiXmlNode::Value, COMDAT
; _this$ = ecx
; File E:\Proyectos\JuegosOnlineproyectos\PB\pbblow\Piercing Blow Remake\i3Server\include\i3Base\tinystr.h

; 144  : 	const char * c_str () const { return rep_->str; }

  00000	8b 41 20	 mov	 eax, DWORD PTR [ecx+32]
  00003	83 c0 08	 add	 eax, 8
; File E:\Proyectos\JuegosOnlineproyectos\PB\pbblow\Piercing Blow Remake\i3Server\include\i3Base\tinyxml.h

; 491  : 	const char *Value() const { return value.c_str (); }

  00006	c3		 ret	 0
?Value@TiXmlNode@@QBEPBDXZ ENDP				; TiXmlNode::Value
_TEXT	ENDS
; Function compile flags: /Ogtp
;	COMDAT ??_ETiXmlBase@@UAEPAXI@Z
_TEXT	SEGMENT
__$EHRec$ = -12						; size = 12
___flags$ = 8						; size = 4
??_ETiXmlBase@@UAEPAXI@Z PROC				; TiXmlBase::`vector deleting destructor', COMDAT
; _this$ = ecx
  00000	55		 push	 ebp
  00001	8b ec		 mov	 ebp, esp
  00003	6a ff		 push	 -1
  00005	68 00 00 00 00	 push	 __ehhandler$??_ETiXmlBase@@UAEPAXI@Z
  0000a	64 a1 00 00 00
	00		 mov	 eax, DWORD PTR fs:0
  00010	50		 push	 eax
  00011	53		 push	 ebx
  00012	56		 push	 esi
  00013	57		 push	 edi
  00014	a1 00 00 00 00	 mov	 eax, DWORD PTR ___security_cookie
  00019	33 c5		 xor	 eax, ebp
  0001b	50		 push	 eax
  0001c	8d 45 f4	 lea	 eax, DWORD PTR __$EHRec$[ebp]
  0001f	64 a3 00 00 00
	00		 mov	 DWORD PTR fs:0, eax
  00025	8b f1		 mov	 esi, ecx
  00027	8b 45 08	 mov	 eax, DWORD PTR ___flags$[ebp]
  0002a	8b f8		 mov	 edi, eax
  0002c	83 e7 01	 and	 edi, 1
  0002f	a8 02		 test	 al, 2
  00031	74 3f		 je	 SHORT $LN2@vector
  00033	68 00 00 00 00	 push	 OFFSET ??1TiXmlBase@@UAE@XZ ; TiXmlBase::~TiXmlBase
  00038	ff 76 fc	 push	 DWORD PTR [esi-4]
  0003b	8d 5e fc	 lea	 ebx, DWORD PTR [esi-4]
  0003e	6a 10		 push	 16			; 00000010H
  00040	56		 push	 esi
  00041	e8 00 00 00 00	 call	 ??_M@YGXPAXIIP6EX0@Z@Z
  00046	85 ff		 test	 edi, edi
  00048	74 12		 je	 SHORT $LN3@vector
  0004a	8b 0b		 mov	 ecx, DWORD PTR [ebx]
  0004c	c1 e1 04	 shl	 ecx, 4
  0004f	83 c1 04	 add	 ecx, 4
  00052	51		 push	 ecx
  00053	53		 push	 ebx
  00054	e8 00 00 00 00	 call	 ??_V@YAXPAXI@Z		; operator delete[]
  00059	83 c4 08	 add	 esp, 8
$LN3@vector:
  0005c	8b c3		 mov	 eax, ebx
  0005e	8b 4d f4	 mov	 ecx, DWORD PTR __$EHRec$[ebp]
  00061	64 89 0d 00 00
	00 00		 mov	 DWORD PTR fs:0, ecx
  00068	59		 pop	 ecx
  00069	5f		 pop	 edi
  0006a	5e		 pop	 esi
  0006b	5b		 pop	 ebx
  0006c	8b e5		 mov	 esp, ebp
  0006e	5d		 pop	 ebp
  0006f	c2 04 00	 ret	 4
$LN2@vector:
  00072	c7 06 00 00 00
	00		 mov	 DWORD PTR [esi], OFFSET ??_7TiXmlBase@@6B@
  00078	85 ff		 test	 edi, edi
  0007a	74 0b		 je	 SHORT $LN4@vector
  0007c	6a 10		 push	 16			; 00000010H
  0007e	56		 push	 esi
  0007f	e8 00 00 00 00	 call	 ??3@YAXPAXI@Z		; operator delete
  00084	83 c4 08	 add	 esp, 8
$LN4@vector:
  00087	8b c6		 mov	 eax, esi
  00089	8b 4d f4	 mov	 ecx, DWORD PTR __$EHRec$[ebp]
  0008c	64 89 0d 00 00
	00 00		 mov	 DWORD PTR fs:0, ecx
  00093	59		 pop	 ecx
  00094	5f		 pop	 edi
  00095	5e		 pop	 esi
  00096	5b		 pop	 ebx
  00097	8b e5		 mov	 esp, ebp
  00099	5d		 pop	 ebp
  0009a	c2 04 00	 ret	 4
  0009d	cc		 int	 3
  0009e	cc		 int	 3
  0009f	cc		 int	 3
  000a0	cc		 int	 3
  000a1	cc		 int	 3
_TEXT	ENDS
;	COMDAT text$x
text$x	SEGMENT
__ehhandler$??_ETiXmlBase@@UAEPAXI@Z:
  00000	90		 npad	 1
  00001	90		 npad	 1
  00002	8b 54 24 08	 mov	 edx, DWORD PTR [esp+8]
  00006	8d 42 0c	 lea	 eax, DWORD PTR [edx+12]
  00009	8b 4a f0	 mov	 ecx, DWORD PTR [edx-16]
  0000c	33 c8		 xor	 ecx, eax
  0000e	e8 00 00 00 00	 call	 @__security_check_cookie@4
  00013	b8 00 00 00 00	 mov	 eax, OFFSET __ehfuncinfo$??_ETiXmlBase@@UAEPAXI@Z
  00018	e9 00 00 00 00	 jmp	 ___CxxFrameHandler3
text$x	ENDS
??_ETiXmlBase@@UAEPAXI@Z ENDP				; TiXmlBase::`vector deleting destructor'
; Function compile flags: /Ogtp
;	COMDAT ??_GTiXmlBase@@UAEPAXI@Z
_TEXT	SEGMENT
___flags$ = 8						; size = 4
??_GTiXmlBase@@UAEPAXI@Z PROC				; TiXmlBase::`scalar deleting destructor', COMDAT
; _this$ = ecx
  00000	55		 push	 ebp
  00001	8b ec		 mov	 ebp, esp
  00003	f6 45 08 01	 test	 BYTE PTR ___flags$[ebp], 1
  00007	56		 push	 esi
  00008	8b f1		 mov	 esi, ecx
  0000a	c7 06 00 00 00
	00		 mov	 DWORD PTR [esi], OFFSET ??_7TiXmlBase@@6B@
  00010	74 0b		 je	 SHORT $LN5@scalar
  00012	6a 10		 push	 16			; 00000010H
  00014	56		 push	 esi
  00015	e8 00 00 00 00	 call	 ??3@YAXPAXI@Z		; operator delete
  0001a	83 c4 08	 add	 esp, 8
$LN5@scalar:
  0001d	8b c6		 mov	 eax, esi
  0001f	5e		 pop	 esi
  00020	5d		 pop	 ebp
  00021	c2 04 00	 ret	 4
??_GTiXmlBase@@UAEPAXI@Z ENDP				; TiXmlBase::`scalar deleting destructor'
_TEXT	ENDS
; Function compile flags: /Ogtp
; File E:\Proyectos\JuegosOnlineproyectos\PB\pbblow\Piercing Blow Remake\i3Server\include\i3Base\tinyxml.h
;	COMDAT ?ToLower@TiXmlBase@@KAHHW4TiXmlEncoding@@@Z
_TEXT	SEGMENT
_v$ = 8							; size = 4
_encoding$ = 12						; size = 4
?ToLower@TiXmlBase@@KAHHW4TiXmlEncoding@@@Z PROC	; TiXmlBase::ToLower, COMDAT

; 387  : 	{

  00000	55		 push	 ebp
  00001	8b ec		 mov	 ebp, esp

; 388  : 		if ( encoding == TIXML_ENCODING_UTF8 )

  00003	83 7d 0c 01	 cmp	 DWORD PTR _encoding$[ebp], 1
  00007	75 15		 jne	 SHORT $LN2@ToLower

; 389  : 		{
; 390  : 			if ( v < 128 ) return tolower( v );

  00009	8b 45 08	 mov	 eax, DWORD PTR _v$[ebp]
  0000c	3d 80 00 00 00	 cmp	 eax, 128		; 00000080H
  00011	7d 16		 jge	 SHORT $LN3@ToLower
  00013	50		 push	 eax

; 396  : 		}
; 397  : 	}

  00014	e8 00 00 00 00	 call	 _tolower
  00019	83 c4 04	 add	 esp, 4
  0001c	5d		 pop	 ebp
  0001d	c3		 ret	 0
$LN2@ToLower:

; 391  : 			return v;
; 392  : 		}
; 393  : 		else
; 394  : 		{
; 395  : 			return tolower( v );

  0001e	ff 75 08	 push	 DWORD PTR _v$[ebp]

; 396  : 		}
; 397  : 	}

  00021	e8 00 00 00 00	 call	 _tolower
  00026	83 c4 04	 add	 esp, 4
$LN3@ToLower:
  00029	5d		 pop	 ebp
  0002a	c3		 ret	 0
?ToLower@TiXmlBase@@KAHHW4TiXmlEncoding@@@Z ENDP	; TiXmlBase::ToLower
_TEXT	ENDS
; Function compile flags: /Ogtp
; File E:\Proyectos\JuegosOnlineproyectos\PB\pbblow\Piercing Blow Remake\i3Server\include\i3Base\tinyxml.h
;	COMDAT ?GetChar@TiXmlBase@@KAPBDPBDPADPAHW4TiXmlEncoding@@@Z
_TEXT	SEGMENT
_p$ = 8							; size = 4
__value$ = 12						; size = 4
_length$ = 16						; size = 4
_encoding$ = 20						; size = 4
?GetChar@TiXmlBase@@KAPBDPBDPADPAHW4TiXmlEncoding@@@Z PROC ; TiXmlBase::GetChar, COMDAT

; 332  : 	{

  00000	55		 push	 ebp
  00001	8b ec		 mov	 ebp, esp

; 333  : 		I3ASSERT( p );
; 334  : 		if ( encoding == TIXML_ENCODING_UTF8 )

  00003	8b 4d 14	 mov	 ecx, DWORD PTR _encoding$[ebp]
  00006	8b 55 08	 mov	 edx, DWORD PTR _p$[ebp]
  00009	56		 push	 esi
  0000a	8b 75 10	 mov	 esi, DWORD PTR _length$[ebp]
  0000d	57		 push	 edi
  0000e	8b 7d 0c	 mov	 edi, DWORD PTR __value$[ebp]
  00011	83 f9 01	 cmp	 ecx, 1
  00014	75 39		 jne	 SHORT $LN5@GetChar

; 335  : 		{
; 336  : 			*length = utf8ByteTable[ *((const unsigned char*)p) ];

  00016	0f b6 02	 movzx	 eax, BYTE PTR [edx]
  00019	8b 04 85 00 00
	00 00		 mov	 eax, DWORD PTR ?utf8ByteTable@TiXmlBase@@2QBHB[eax*4]

; 342  : 		}
; 343  : 
; 344  : 		if ( *length == 1 )

  00020	89 06		 mov	 DWORD PTR [esi], eax
  00022	3b c1		 cmp	 eax, ecx
  00024	74 2f		 je	 SHORT $LN17@GetChar

; 350  : 		}
; 351  : 		else if ( *length )

  00026	85 c0		 test	 eax, eax
  00028	74 1f		 je	 SHORT $LN10@GetChar

; 352  : 		{
; 353  : 			//strncpy( _value, p, *length );	// lots of compilers don't like this function (unsafe),
; 354  : 												// and the null terminator isn't needed
; 355  : 			for( int i=0; p[i] && i<*length; ++i ) {

  0002a	33 c9		 xor	 ecx, ecx
  0002c	38 0a		 cmp	 BYTE PTR [edx], cl
  0002e	74 11		 je	 SHORT $LN18@GetChar
$LL4@GetChar:
  00030	3b 0e		 cmp	 ecx, DWORD PTR [esi]
  00032	7d 0d		 jge	 SHORT $LN18@GetChar

; 356  : 				_value[i] = p[i];

  00034	8a 04 0a	 mov	 al, BYTE PTR [edx+ecx]
  00037	88 04 39	 mov	 BYTE PTR [ecx+edi], al
  0003a	41		 inc	 ecx
  0003b	80 3c 0a 00	 cmp	 BYTE PTR [edx+ecx], 0
  0003f	75 ef		 jne	 SHORT $LL4@GetChar
$LN18@GetChar:

; 357  : 			}
; 358  : 			return p + (*length);

  00041	8b 06		 mov	 eax, DWORD PTR [esi]
  00043	5f		 pop	 edi
  00044	03 c2		 add	 eax, edx

; 364  : 		}
; 365  : 	}

  00046	5e		 pop	 esi
  00047	5d		 pop	 ebp
  00048	c3		 ret	 0
$LN10@GetChar:
  00049	5f		 pop	 edi

; 359  : 		}
; 360  : 		else
; 361  : 		{
; 362  : 			// Not valid text.
; 363  : 			return 0;

  0004a	33 c0		 xor	 eax, eax

; 364  : 		}
; 365  : 	}

  0004c	5e		 pop	 esi
  0004d	5d		 pop	 ebp
  0004e	c3		 ret	 0
$LN5@GetChar:

; 337  : 			I3ASSERT( *length >= 0 && *length < 5 );
; 338  : 		}
; 339  : 		else
; 340  : 		{
; 341  : 			*length = 1;

  0004f	c7 06 01 00 00
	00		 mov	 DWORD PTR [esi], 1
$LN17@GetChar:

; 345  : 		{
; 346  : 			if ( *p == '&' )

  00055	8a 02		 mov	 al, BYTE PTR [edx]
  00057	3c 26		 cmp	 al, 38			; 00000026H
  00059	75 10		 jne	 SHORT $LN9@GetChar

; 347  : 				return GetEntity( p, _value, length, encoding );

  0005b	51		 push	 ecx
  0005c	56		 push	 esi
  0005d	57		 push	 edi
  0005e	52		 push	 edx
  0005f	e8 00 00 00 00	 call	 ?GetEntity@TiXmlBase@@KAPBDPBDPADPAHW4TiXmlEncoding@@@Z ; TiXmlBase::GetEntity
  00064	83 c4 10	 add	 esp, 16			; 00000010H
  00067	5f		 pop	 edi

; 364  : 		}
; 365  : 	}

  00068	5e		 pop	 esi
  00069	5d		 pop	 ebp
  0006a	c3		 ret	 0
$LN9@GetChar:

; 348  : 			*_value = *p;

  0006b	88 07		 mov	 BYTE PTR [edi], al

; 349  : 			return p+1;

  0006d	8d 42 01	 lea	 eax, DWORD PTR [edx+1]
  00070	5f		 pop	 edi

; 364  : 		}
; 365  : 	}

  00071	5e		 pop	 esi
  00072	5d		 pop	 ebp
  00073	c3		 ret	 0
?GetChar@TiXmlBase@@KAPBDPBDPADPAHW4TiXmlEncoding@@@Z ENDP ; TiXmlBase::GetChar
_TEXT	ENDS
; Function compile flags: /Ogtp
; File E:\Proyectos\JuegosOnlineproyectos\PB\pbblow\Piercing Blow Remake\i3Server\include\i3Base\tinyxml.h
;	COMDAT ?IsWhiteSpace@TiXmlBase@@KA_NH@Z
_TEXT	SEGMENT
_c$ = 8							; size = 4
?IsWhiteSpace@TiXmlBase@@KA_NH@Z PROC			; TiXmlBase::IsWhiteSpace, COMDAT

; 299  : 	{

  00000	55		 push	 ebp
  00001	8b ec		 mov	 ebp, esp
  00003	53		 push	 ebx

; 300  : 		if ( c < 256 )

  00004	8b 5d 08	 mov	 ebx, DWORD PTR _c$[ebp]
  00007	81 fb 00 01 00
	00		 cmp	 ebx, 256		; 00000100H
  0000d	7d 1f		 jge	 SHORT $LN2@IsWhiteSpa

; 296  : 		return ( isspace( (unsigned char) c ) || c == '\n' || c == '\r' ); 

  0000f	0f b6 c3	 movzx	 eax, bl
  00012	50		 push	 eax
  00013	e8 00 00 00 00	 call	 _isspace
  00018	83 c4 04	 add	 esp, 4
  0001b	85 c0		 test	 eax, eax
  0001d	75 0a		 jne	 SHORT $LN6@IsWhiteSpa
  0001f	80 fb 0a	 cmp	 bl, 10			; 0000000aH
  00022	74 05		 je	 SHORT $LN6@IsWhiteSpa
  00024	80 fb 0d	 cmp	 bl, 13			; 0000000dH
  00027	75 05		 jne	 SHORT $LN2@IsWhiteSpa
$LN6@IsWhiteSpa:
  00029	b0 01		 mov	 al, 1
  0002b	5b		 pop	 ebx

; 301  : 			return IsWhiteSpace( (char) c );
; 302  : 		return false;	// Again, only truly correct for English/Latin...but usually works.
; 303  : 	}

  0002c	5d		 pop	 ebp
  0002d	c3		 ret	 0
$LN2@IsWhiteSpa:
  0002e	32 c0		 xor	 al, al
  00030	5b		 pop	 ebx
  00031	5d		 pop	 ebp
  00032	c3		 ret	 0
?IsWhiteSpace@TiXmlBase@@KA_NH@Z ENDP			; TiXmlBase::IsWhiteSpace
_TEXT	ENDS
; Function compile flags: /Ogtp
; File E:\Proyectos\JuegosOnlineproyectos\PB\pbblow\Piercing Blow Remake\i3Server\include\i3Base\tinyxml.h
;	COMDAT ?IsWhiteSpace@TiXmlBase@@KA_ND@Z
_TEXT	SEGMENT
_c$ = 8							; size = 1
?IsWhiteSpace@TiXmlBase@@KA_ND@Z PROC			; TiXmlBase::IsWhiteSpace, COMDAT

; 295  : 	{ 

  00000	55		 push	 ebp
  00001	8b ec		 mov	 ebp, esp
  00003	53		 push	 ebx

; 296  : 		return ( isspace( (unsigned char) c ) || c == '\n' || c == '\r' ); 

  00004	8a 5d 08	 mov	 bl, BYTE PTR _c$[ebp]
  00007	0f b6 c3	 movzx	 eax, bl
  0000a	50		 push	 eax
  0000b	e8 00 00 00 00	 call	 _isspace
  00010	83 c4 04	 add	 esp, 4
  00013	85 c0		 test	 eax, eax
  00015	75 0f		 jne	 SHORT $LN3@IsWhiteSpa
  00017	80 fb 0a	 cmp	 bl, 10			; 0000000aH
  0001a	74 0a		 je	 SHORT $LN3@IsWhiteSpa
  0001c	80 fb 0d	 cmp	 bl, 13			; 0000000dH
  0001f	74 05		 je	 SHORT $LN3@IsWhiteSpa
  00021	32 c0		 xor	 al, al
  00023	5b		 pop	 ebx

; 297  : 	}

  00024	5d		 pop	 ebp
  00025	c3		 ret	 0
$LN3@IsWhiteSpa:

; 296  : 		return ( isspace( (unsigned char) c ) || c == '\n' || c == '\r' ); 

  00026	b0 01		 mov	 al, 1
  00028	5b		 pop	 ebx

; 297  : 	}

  00029	5d		 pop	 ebp
  0002a	c3		 ret	 0
?IsWhiteSpace@TiXmlBase@@KA_ND@Z ENDP			; TiXmlBase::IsWhiteSpace
_TEXT	ENDS
; Function compile flags: /Ogtp
; File E:\Proyectos\JuegosOnlineproyectos\PB\pbblow\Piercing Blow Remake\i3Server\include\i3Base\tinyxml.h
;	COMDAT ?GetUserData@TiXmlBase@@QBEPBXXZ
_TEXT	SEGMENT
?GetUserData@TiXmlBase@@QBEPBXXZ PROC			; TiXmlBase::GetUserData, COMDAT
; _this$ = ecx

; 253  : 	const void* GetUserData() const 		{ return userData; }	///< Get a pointer to arbitrary user data.

  00000	8b 41 0c	 mov	 eax, DWORD PTR [ecx+12]
  00003	c3		 ret	 0
?GetUserData@TiXmlBase@@QBEPBXXZ ENDP			; TiXmlBase::GetUserData
_TEXT	ENDS
; Function compile flags: /Ogtp
; File E:\Proyectos\JuegosOnlineproyectos\PB\pbblow\Piercing Blow Remake\i3Server\include\i3Base\tinyxml.h
;	COMDAT ?GetUserData@TiXmlBase@@QAEPAXXZ
_TEXT	SEGMENT
?GetUserData@TiXmlBase@@QAEPAXXZ PROC			; TiXmlBase::GetUserData, COMDAT
; _this$ = ecx

; 252  : 	void* GetUserData()						{ return userData; }	///< Get a pointer to arbitrary user data.

  00000	8b 41 0c	 mov	 eax, DWORD PTR [ecx+12]
  00003	c3		 ret	 0
?GetUserData@TiXmlBase@@QAEPAXXZ ENDP			; TiXmlBase::GetUserData
_TEXT	ENDS
; Function compile flags: /Ogtp
; File E:\Proyectos\JuegosOnlineproyectos\PB\pbblow\Piercing Blow Remake\i3Server\include\i3Base\tinyxml.h
;	COMDAT ?SetUserData@TiXmlBase@@QAEXPAX@Z
_TEXT	SEGMENT
_user$ = 8						; size = 4
?SetUserData@TiXmlBase@@QAEXPAX@Z PROC			; TiXmlBase::SetUserData, COMDAT
; _this$ = ecx

; 251  : 	void  SetUserData( void* user )			{ userData = user; }	///< Set a pointer to arbitrary user data.

  00000	55		 push	 ebp
  00001	8b ec		 mov	 ebp, esp
  00003	8b 45 08	 mov	 eax, DWORD PTR _user$[ebp]
  00006	89 41 0c	 mov	 DWORD PTR [ecx+12], eax
  00009	5d		 pop	 ebp
  0000a	c2 04 00	 ret	 4
?SetUserData@TiXmlBase@@QAEXPAX@Z ENDP			; TiXmlBase::SetUserData
_TEXT	ENDS
; Function compile flags: /Ogtp
; File E:\Proyectos\JuegosOnlineproyectos\PB\pbblow\Piercing Blow Remake\i3Server\include\i3Base\tinyxml.h
;	COMDAT ?Column@TiXmlBase@@QBEHXZ
_TEXT	SEGMENT
?Column@TiXmlBase@@QBEHXZ PROC				; TiXmlBase::Column, COMDAT
; _this$ = ecx

; 249  : 	int Column() const		{ return location.col + 1; }	///< See Row()

  00000	8b 41 08	 mov	 eax, DWORD PTR [ecx+8]
  00003	40		 inc	 eax
  00004	c3		 ret	 0
?Column@TiXmlBase@@QBEHXZ ENDP				; TiXmlBase::Column
_TEXT	ENDS
; Function compile flags: /Ogtp
; File E:\Proyectos\JuegosOnlineproyectos\PB\pbblow\Piercing Blow Remake\i3Server\include\i3Base\tinyxml.h
;	COMDAT ?Row@TiXmlBase@@QBEHXZ
_TEXT	SEGMENT
?Row@TiXmlBase@@QBEHXZ PROC				; TiXmlBase::Row, COMDAT
; _this$ = ecx

; 248  : 	int Row() const			{ return location.row + 1; }

  00000	8b 41 04	 mov	 eax, DWORD PTR [ecx+4]
  00003	40		 inc	 eax
  00004	c3		 ret	 0
?Row@TiXmlBase@@QBEHXZ ENDP				; TiXmlBase::Row
_TEXT	ENDS
; Function compile flags: /Ogtp
; File E:\Proyectos\JuegosOnlineproyectos\PB\pbblow\Piercing Blow Remake\i3Server\include\i3Base\tinyxml.h
;	COMDAT ?IsWhiteSpaceCondensed@TiXmlBase@@SA_NXZ
_TEXT	SEGMENT
?IsWhiteSpaceCondensed@TiXmlBase@@SA_NXZ PROC		; TiXmlBase::IsWhiteSpaceCondensed, COMDAT

; 228  : 	static bool IsWhiteSpaceCondensed()						{ return condenseWhiteSpace; }

  00000	a0 00 00 00 00	 mov	 al, BYTE PTR ?condenseWhiteSpace@TiXmlBase@@0_NA ; TiXmlBase::condenseWhiteSpace
  00005	c3		 ret	 0
?IsWhiteSpaceCondensed@TiXmlBase@@SA_NXZ ENDP		; TiXmlBase::IsWhiteSpaceCondensed
_TEXT	ENDS
; Function compile flags: /Ogtp
; File E:\Proyectos\JuegosOnlineproyectos\PB\pbblow\Piercing Blow Remake\i3Server\include\i3Base\tinyxml.h
;	COMDAT ?SetCondenseWhiteSpace@TiXmlBase@@SAX_N@Z
_TEXT	SEGMENT
_condense$ = 8						; size = 1
?SetCondenseWhiteSpace@TiXmlBase@@SAX_N@Z PROC		; TiXmlBase::SetCondenseWhiteSpace, COMDAT

; 225  : 	static void SetCondenseWhiteSpace( bool condense )		{ condenseWhiteSpace = condense; }

  00000	55		 push	 ebp
  00001	8b ec		 mov	 ebp, esp
  00003	8a 45 08	 mov	 al, BYTE PTR _condense$[ebp]
  00006	a2 00 00 00 00	 mov	 BYTE PTR ?condenseWhiteSpace@TiXmlBase@@0_NA, al ; TiXmlBase::condenseWhiteSpace
  0000b	5d		 pop	 ebp
  0000c	c3		 ret	 0
?SetCondenseWhiteSpace@TiXmlBase@@SAX_N@Z ENDP		; TiXmlBase::SetCondenseWhiteSpace
_TEXT	ENDS
; Function compile flags: /Ogtp
; File E:\Proyectos\JuegosOnlineproyectos\PB\pbblow\Piercing Blow Remake\i3Server\include\i3Base\tinyxml.h
;	COMDAT ??1TiXmlBase@@UAE@XZ
_TEXT	SEGMENT
??1TiXmlBase@@UAE@XZ PROC				; TiXmlBase::~TiXmlBase, COMDAT
; _this$ = ecx

; 206  : 	virtual ~TiXmlBase()			{}

  00000	c7 01 00 00 00
	00		 mov	 DWORD PTR [ecx], OFFSET ??_7TiXmlBase@@6B@
  00006	c3		 ret	 0
??1TiXmlBase@@UAE@XZ ENDP				; TiXmlBase::~TiXmlBase
_TEXT	ENDS
; Function compile flags: /Ogtp
; File E:\Proyectos\JuegosOnlineproyectos\PB\pbblow\Piercing Blow Remake\i3Server\include\i3Base\tinyxml.h
;	COMDAT ??0TiXmlBase@@QAE@XZ
_TEXT	SEGMENT
??0TiXmlBase@@QAE@XZ PROC				; TiXmlBase::TiXmlBase, COMDAT
; _this$ = ecx

; 205  : 	TiXmlBase()	:	userData(0)		{}

  00000	c7 01 00 00 00
	00		 mov	 DWORD PTR [ecx], OFFSET ??_7TiXmlBase@@6B@
  00006	8b c1		 mov	 eax, ecx

; 107  : 	void Clear()		{ row = col = -1; }

  00008	c7 41 08 ff ff
	ff ff		 mov	 DWORD PTR [ecx+8], -1
  0000f	c7 41 04 ff ff
	ff ff		 mov	 DWORD PTR [ecx+4], -1

; 205  : 	TiXmlBase()	:	userData(0)		{}

  00016	c7 41 0c 00 00
	00 00		 mov	 DWORD PTR [ecx+12], 0
  0001d	c3		 ret	 0
??0TiXmlBase@@QAE@XZ ENDP				; TiXmlBase::TiXmlBase
_TEXT	ENDS
; Function compile flags: /Ogtp
;	COMDAT ??_ETiXmlVisitor@@UAEPAXI@Z
_TEXT	SEGMENT
__$EHRec$ = -12						; size = 12
___flags$ = 8						; size = 4
??_ETiXmlVisitor@@UAEPAXI@Z PROC			; TiXmlVisitor::`vector deleting destructor', COMDAT
; _this$ = ecx
  00000	55		 push	 ebp
  00001	8b ec		 mov	 ebp, esp
  00003	6a ff		 push	 -1
  00005	68 00 00 00 00	 push	 __ehhandler$??_ETiXmlVisitor@@UAEPAXI@Z
  0000a	64 a1 00 00 00
	00		 mov	 eax, DWORD PTR fs:0
  00010	50		 push	 eax
  00011	53		 push	 ebx
  00012	56		 push	 esi
  00013	57		 push	 edi
  00014	a1 00 00 00 00	 mov	 eax, DWORD PTR ___security_cookie
  00019	33 c5		 xor	 eax, ebp
  0001b	50		 push	 eax
  0001c	8d 45 f4	 lea	 eax, DWORD PTR __$EHRec$[ebp]
  0001f	64 a3 00 00 00
	00		 mov	 DWORD PTR fs:0, eax
  00025	8b f1		 mov	 esi, ecx
  00027	8b 45 08	 mov	 eax, DWORD PTR ___flags$[ebp]
  0002a	8b f8		 mov	 edi, eax
  0002c	83 e7 01	 and	 edi, 1
  0002f	a8 02		 test	 al, 2
  00031	74 40		 je	 SHORT $LN2@vector
  00033	68 00 00 00 00	 push	 OFFSET ??1TiXmlVisitor@@UAE@XZ ; TiXmlVisitor::~TiXmlVisitor
  00038	ff 76 fc	 push	 DWORD PTR [esi-4]
  0003b	8d 5e fc	 lea	 ebx, DWORD PTR [esi-4]
  0003e	6a 04		 push	 4
  00040	56		 push	 esi
  00041	e8 00 00 00 00	 call	 ??_M@YGXPAXIIP6EX0@Z@Z
  00046	85 ff		 test	 edi, edi
  00048	74 13		 je	 SHORT $LN3@vector
  0004a	8b 0b		 mov	 ecx, DWORD PTR [ebx]
  0004c	8d 0c 8d 04 00
	00 00		 lea	 ecx, DWORD PTR [ecx*4+4]
  00053	51		 push	 ecx
  00054	53		 push	 ebx
  00055	e8 00 00 00 00	 call	 ??_V@YAXPAXI@Z		; operator delete[]
  0005a	83 c4 08	 add	 esp, 8
$LN3@vector:
  0005d	8b c3		 mov	 eax, ebx
  0005f	8b 4d f4	 mov	 ecx, DWORD PTR __$EHRec$[ebp]
  00062	64 89 0d 00 00
	00 00		 mov	 DWORD PTR fs:0, ecx
  00069	59		 pop	 ecx
  0006a	5f		 pop	 edi
  0006b	5e		 pop	 esi
  0006c	5b		 pop	 ebx
  0006d	8b e5		 mov	 esp, ebp
  0006f	5d		 pop	 ebp
  00070	c2 04 00	 ret	 4
$LN2@vector:
  00073	c7 06 00 00 00
	00		 mov	 DWORD PTR [esi], OFFSET ??_7TiXmlVisitor@@6B@
  00079	85 ff		 test	 edi, edi
  0007b	74 0b		 je	 SHORT $LN4@vector
  0007d	6a 04		 push	 4
  0007f	56		 push	 esi
  00080	e8 00 00 00 00	 call	 ??3@YAXPAXI@Z		; operator delete
  00085	83 c4 08	 add	 esp, 8
$LN4@vector:
  00088	8b c6		 mov	 eax, esi
  0008a	8b 4d f4	 mov	 ecx, DWORD PTR __$EHRec$[ebp]
  0008d	64 89 0d 00 00
	00 00		 mov	 DWORD PTR fs:0, ecx
  00094	59		 pop	 ecx
  00095	5f		 pop	 edi
  00096	5e		 pop	 esi
  00097	5b		 pop	 ebx
  00098	8b e5		 mov	 esp, ebp
  0009a	5d		 pop	 ebp
  0009b	c2 04 00	 ret	 4
  0009e	cc		 int	 3
  0009f	cc		 int	 3
  000a0	cc		 int	 3
  000a1	cc		 int	 3
  000a2	cc		 int	 3
_TEXT	ENDS
;	COMDAT text$x
text$x	SEGMENT
__ehhandler$??_ETiXmlVisitor@@UAEPAXI@Z:
  00000	90		 npad	 1
  00001	90		 npad	 1
  00002	8b 54 24 08	 mov	 edx, DWORD PTR [esp+8]
  00006	8d 42 0c	 lea	 eax, DWORD PTR [edx+12]
  00009	8b 4a f0	 mov	 ecx, DWORD PTR [edx-16]
  0000c	33 c8		 xor	 ecx, eax
  0000e	e8 00 00 00 00	 call	 @__security_check_cookie@4
  00013	b8 00 00 00 00	 mov	 eax, OFFSET __ehfuncinfo$??_ETiXmlVisitor@@UAEPAXI@Z
  00018	e9 00 00 00 00	 jmp	 ___CxxFrameHandler3
text$x	ENDS
??_ETiXmlVisitor@@UAEPAXI@Z ENDP			; TiXmlVisitor::`vector deleting destructor'
; Function compile flags: /Ogtp
;	COMDAT ??_GTiXmlVisitor@@UAEPAXI@Z
_TEXT	SEGMENT
___flags$ = 8						; size = 4
??_GTiXmlVisitor@@UAEPAXI@Z PROC			; TiXmlVisitor::`scalar deleting destructor', COMDAT
; _this$ = ecx
  00000	55		 push	 ebp
  00001	8b ec		 mov	 ebp, esp
  00003	f6 45 08 01	 test	 BYTE PTR ___flags$[ebp], 1
  00007	56		 push	 esi
  00008	8b f1		 mov	 esi, ecx
  0000a	c7 06 00 00 00
	00		 mov	 DWORD PTR [esi], OFFSET ??_7TiXmlVisitor@@6B@
  00010	74 0b		 je	 SHORT $LN5@scalar
  00012	6a 04		 push	 4
  00014	56		 push	 esi
  00015	e8 00 00 00 00	 call	 ??3@YAXPAXI@Z		; operator delete
  0001a	83 c4 08	 add	 esp, 8
$LN5@scalar:
  0001d	8b c6		 mov	 eax, esi
  0001f	5e		 pop	 esi
  00020	5d		 pop	 ebp
  00021	c2 04 00	 ret	 4
??_GTiXmlVisitor@@UAEPAXI@Z ENDP			; TiXmlVisitor::`scalar deleting destructor'
_TEXT	ENDS
; Function compile flags: /Ogtp
;	COMDAT ??4TiXmlVisitor@@QAEAAV0@ABV0@@Z
_TEXT	SEGMENT
___that$ = 8						; size = 4
??4TiXmlVisitor@@QAEAAV0@ABV0@@Z PROC			; TiXmlVisitor::operator=, COMDAT
; _this$ = ecx
  00000	8b c1		 mov	 eax, ecx
  00002	c2 04 00	 ret	 4
??4TiXmlVisitor@@QAEAAV0@ABV0@@Z ENDP			; TiXmlVisitor::operator=
_TEXT	ENDS
; Function compile flags: /Ogtp
;	COMDAT ??0TiXmlVisitor@@QAE@ABV0@@Z
_TEXT	SEGMENT
___that$ = 8						; size = 4
??0TiXmlVisitor@@QAE@ABV0@@Z PROC			; TiXmlVisitor::TiXmlVisitor, COMDAT
; _this$ = ecx
  00000	c7 01 00 00 00
	00		 mov	 DWORD PTR [ecx], OFFSET ??_7TiXmlVisitor@@6B@
  00006	8b c1		 mov	 eax, ecx
  00008	c2 04 00	 ret	 4
??0TiXmlVisitor@@QAE@ABV0@@Z ENDP			; TiXmlVisitor::TiXmlVisitor
_TEXT	ENDS
; Function compile flags: /Ogtp
;	COMDAT ??0TiXmlVisitor@@QAE@XZ
_TEXT	SEGMENT
??0TiXmlVisitor@@QAE@XZ PROC				; TiXmlVisitor::TiXmlVisitor, COMDAT
; _this$ = ecx
  00000	c7 01 00 00 00
	00		 mov	 DWORD PTR [ecx], OFFSET ??_7TiXmlVisitor@@6B@
  00006	8b c1		 mov	 eax, ecx
  00008	c3		 ret	 0
??0TiXmlVisitor@@QAE@XZ ENDP				; TiXmlVisitor::TiXmlVisitor
_TEXT	ENDS
; Function compile flags: /Ogtp
; File E:\Proyectos\JuegosOnlineproyectos\PB\pbblow\Piercing Blow Remake\i3Server\include\i3Base\tinyxml.h
;	COMDAT ?Visit@TiXmlVisitor@@UAE_NABVTiXmlUnknown@@@Z
_TEXT	SEGMENT
___formal$ = 8						; size = 4
?Visit@TiXmlVisitor@@UAE_NABVTiXmlUnknown@@@Z PROC	; TiXmlVisitor::Visit, COMDAT
; _this$ = ecx

; 154  : 	virtual bool Visit( const TiXmlUnknown& /*unknown*/ )			{ return true; }

  00000	b0 01		 mov	 al, 1
  00002	c2 04 00	 ret	 4
?Visit@TiXmlVisitor@@UAE_NABVTiXmlUnknown@@@Z ENDP	; TiXmlVisitor::Visit
_TEXT	ENDS
; Function compile flags: /Ogtp
; File E:\Proyectos\JuegosOnlineproyectos\PB\pbblow\Piercing Blow Remake\i3Server\include\i3Base\tinyxml.h
;	COMDAT ?Visit@TiXmlVisitor@@UAE_NABVTiXmlComment@@@Z
_TEXT	SEGMENT
___formal$ = 8						; size = 4
?Visit@TiXmlVisitor@@UAE_NABVTiXmlComment@@@Z PROC	; TiXmlVisitor::Visit, COMDAT
; _this$ = ecx

; 152  : 	virtual bool Visit( const TiXmlComment& /*comment*/ )			{ return true; }

  00000	b0 01		 mov	 al, 1
  00002	c2 04 00	 ret	 4
?Visit@TiXmlVisitor@@UAE_NABVTiXmlComment@@@Z ENDP	; TiXmlVisitor::Visit
_TEXT	ENDS
; Function compile flags: /Ogtp
; File E:\Proyectos\JuegosOnlineproyectos\PB\pbblow\Piercing Blow Remake\i3Server\include\i3Base\tinyxml.h
;	COMDAT ?Visit@TiXmlVisitor@@UAE_NABVTiXmlText@@@Z
_TEXT	SEGMENT
___formal$ = 8						; size = 4
?Visit@TiXmlVisitor@@UAE_NABVTiXmlText@@@Z PROC		; TiXmlVisitor::Visit, COMDAT
; _this$ = ecx

; 150  : 	virtual bool Visit( const TiXmlText& /*text*/ )					{ return true; }

  00000	b0 01		 mov	 al, 1
  00002	c2 04 00	 ret	 4
?Visit@TiXmlVisitor@@UAE_NABVTiXmlText@@@Z ENDP		; TiXmlVisitor::Visit
_TEXT	ENDS
; Function compile flags: /Ogtp
; File E:\Proyectos\JuegosOnlineproyectos\PB\pbblow\Piercing Blow Remake\i3Server\include\i3Base\tinyxml.h
;	COMDAT ?Visit@TiXmlVisitor@@UAE_NABVTiXmlDeclaration@@@Z
_TEXT	SEGMENT
___formal$ = 8						; size = 4
?Visit@TiXmlVisitor@@UAE_NABVTiXmlDeclaration@@@Z PROC	; TiXmlVisitor::Visit, COMDAT
; _this$ = ecx

; 148  : 	virtual bool Visit( const TiXmlDeclaration& /*declaration*/ )	{ return true; }

  00000	b0 01		 mov	 al, 1
  00002	c2 04 00	 ret	 4
?Visit@TiXmlVisitor@@UAE_NABVTiXmlDeclaration@@@Z ENDP	; TiXmlVisitor::Visit
_TEXT	ENDS
; Function compile flags: /Ogtp
; File E:\Proyectos\JuegosOnlineproyectos\PB\pbblow\Piercing Blow Remake\i3Server\include\i3Base\tinyxml.h
;	COMDAT ?VisitExit@TiXmlVisitor@@UAE_NABVTiXmlElement@@@Z
_TEXT	SEGMENT
___formal$ = 8						; size = 4
?VisitExit@TiXmlVisitor@@UAE_NABVTiXmlElement@@@Z PROC	; TiXmlVisitor::VisitExit, COMDAT
; _this$ = ecx

; 145  : 	virtual bool VisitExit( const TiXmlElement& /*element*/ )		{ return true; }

  00000	b0 01		 mov	 al, 1
  00002	c2 04 00	 ret	 4
?VisitExit@TiXmlVisitor@@UAE_NABVTiXmlElement@@@Z ENDP	; TiXmlVisitor::VisitExit
_TEXT	ENDS
; Function compile flags: /Ogtp
; File E:\Proyectos\JuegosOnlineproyectos\PB\pbblow\Piercing Blow Remake\i3Server\include\i3Base\tinyxml.h
;	COMDAT ?VisitEnter@TiXmlVisitor@@UAE_NABVTiXmlElement@@PBVTiXmlAttribute@@@Z
_TEXT	SEGMENT
___formal$ = 8						; size = 4
___formal$ = 12						; size = 4
?VisitEnter@TiXmlVisitor@@UAE_NABVTiXmlElement@@PBVTiXmlAttribute@@@Z PROC ; TiXmlVisitor::VisitEnter, COMDAT
; _this$ = ecx

; 143  : 	virtual bool VisitEnter( const TiXmlElement& /*element*/, const TiXmlAttribute* /*firstAttribute*/ )	{ return true; }

  00000	b0 01		 mov	 al, 1
  00002	c2 08 00	 ret	 8
?VisitEnter@TiXmlVisitor@@UAE_NABVTiXmlElement@@PBVTiXmlAttribute@@@Z ENDP ; TiXmlVisitor::VisitEnter
_TEXT	ENDS
; Function compile flags: /Ogtp
; File E:\Proyectos\JuegosOnlineproyectos\PB\pbblow\Piercing Blow Remake\i3Server\include\i3Base\tinyxml.h
;	COMDAT ?VisitExit@TiXmlVisitor@@UAE_NABVTiXmlDocument@@@Z
_TEXT	SEGMENT
___formal$ = 8						; size = 4
?VisitExit@TiXmlVisitor@@UAE_NABVTiXmlDocument@@@Z PROC	; TiXmlVisitor::VisitExit, COMDAT
; _this$ = ecx

; 140  : 	virtual bool VisitExit( const TiXmlDocument& /*doc*/ )			{ return true; }

  00000	b0 01		 mov	 al, 1
  00002	c2 04 00	 ret	 4
?VisitExit@TiXmlVisitor@@UAE_NABVTiXmlDocument@@@Z ENDP	; TiXmlVisitor::VisitExit
_TEXT	ENDS
; Function compile flags: /Ogtp
; File E:\Proyectos\JuegosOnlineproyectos\PB\pbblow\Piercing Blow Remake\i3Server\include\i3Base\tinyxml.h
;	COMDAT ?VisitEnter@TiXmlVisitor@@UAE_NABVTiXmlDocument@@@Z
_TEXT	SEGMENT
___formal$ = 8						; size = 4
?VisitEnter@TiXmlVisitor@@UAE_NABVTiXmlDocument@@@Z PROC ; TiXmlVisitor::VisitEnter, COMDAT
; _this$ = ecx

; 138  : 	virtual bool VisitEnter( const TiXmlDocument& /*doc*/ )			{ return true; }

  00000	b0 01		 mov	 al, 1
  00002	c2 04 00	 ret	 4
?VisitEnter@TiXmlVisitor@@UAE_NABVTiXmlDocument@@@Z ENDP ; TiXmlVisitor::VisitEnter
_TEXT	ENDS
; Function compile flags: /Ogtp
; File E:\Proyectos\JuegosOnlineproyectos\PB\pbblow\Piercing Blow Remake\i3Server\include\i3Base\tinyxml.h
;	COMDAT ??1TiXmlVisitor@@UAE@XZ
_TEXT	SEGMENT
??1TiXmlVisitor@@UAE@XZ PROC				; TiXmlVisitor::~TiXmlVisitor, COMDAT
; _this$ = ecx

; 135  : 	virtual ~TiXmlVisitor() {}

  00000	c7 01 00 00 00
	00		 mov	 DWORD PTR [ecx], OFFSET ??_7TiXmlVisitor@@6B@
  00006	c3		 ret	 0
??1TiXmlVisitor@@UAE@XZ ENDP				; TiXmlVisitor::~TiXmlVisitor
_TEXT	ENDS
; Function compile flags: /Ogtp
;	COMDAT ??4TiXmlCursor@@QAEAAU0@$$QAU0@@Z
_TEXT	SEGMENT
___that$ = 8						; size = 4
??4TiXmlCursor@@QAEAAU0@$$QAU0@@Z PROC			; TiXmlCursor::operator=, COMDAT
; _this$ = ecx
  00000	55		 push	 ebp
  00001	8b ec		 mov	 ebp, esp
  00003	8b 55 08	 mov	 edx, DWORD PTR ___that$[ebp]
  00006	8b 02		 mov	 eax, DWORD PTR [edx]
  00008	89 01		 mov	 DWORD PTR [ecx], eax
  0000a	8b 42 04	 mov	 eax, DWORD PTR [edx+4]
  0000d	89 41 04	 mov	 DWORD PTR [ecx+4], eax
  00010	8b c1		 mov	 eax, ecx
  00012	5d		 pop	 ebp
  00013	c2 04 00	 ret	 4
??4TiXmlCursor@@QAEAAU0@$$QAU0@@Z ENDP			; TiXmlCursor::operator=
_TEXT	ENDS
; Function compile flags: /Ogtp
;	COMDAT ??4TiXmlCursor@@QAEAAU0@ABU0@@Z
_TEXT	SEGMENT
___that$ = 8						; size = 4
??4TiXmlCursor@@QAEAAU0@ABU0@@Z PROC			; TiXmlCursor::operator=, COMDAT
; _this$ = ecx
  00000	55		 push	 ebp
  00001	8b ec		 mov	 ebp, esp
  00003	8b 45 08	 mov	 eax, DWORD PTR ___that$[ebp]
  00006	8b 10		 mov	 edx, DWORD PTR [eax]
  00008	8b 40 04	 mov	 eax, DWORD PTR [eax+4]
  0000b	89 41 04	 mov	 DWORD PTR [ecx+4], eax
  0000e	8b c1		 mov	 eax, ecx
  00010	89 11		 mov	 DWORD PTR [ecx], edx
  00012	5d		 pop	 ebp
  00013	c2 04 00	 ret	 4
??4TiXmlCursor@@QAEAAU0@ABU0@@Z ENDP			; TiXmlCursor::operator=
_TEXT	ENDS
; Function compile flags: /Ogtp
; File E:\Proyectos\JuegosOnlineproyectos\PB\pbblow\Piercing Blow Remake\i3Server\include\i3Base\tinyxml.h
;	COMDAT ?Clear@TiXmlCursor@@QAEXXZ
_TEXT	SEGMENT
?Clear@TiXmlCursor@@QAEXXZ PROC				; TiXmlCursor::Clear, COMDAT
; _this$ = ecx

; 107  : 	void Clear()		{ row = col = -1; }

  00000	c7 41 04 ff ff
	ff ff		 mov	 DWORD PTR [ecx+4], -1
  00007	c7 01 ff ff ff
	ff		 mov	 DWORD PTR [ecx], -1
  0000d	c3		 ret	 0
?Clear@TiXmlCursor@@QAEXXZ ENDP				; TiXmlCursor::Clear
_TEXT	ENDS
; Function compile flags: /Ogtp
; File E:\Proyectos\JuegosOnlineproyectos\PB\pbblow\Piercing Blow Remake\i3Server\include\i3Base\tinyxml.h
;	COMDAT ??0TiXmlCursor@@QAE@XZ
_TEXT	SEGMENT
??0TiXmlCursor@@QAE@XZ PROC				; TiXmlCursor::TiXmlCursor, COMDAT
; _this$ = ecx

; 107  : 	void Clear()		{ row = col = -1; }

  00000	c7 41 04 ff ff
	ff ff		 mov	 DWORD PTR [ecx+4], -1

; 106  : 	TiXmlCursor()		{ Clear(); }

  00007	8b c1		 mov	 eax, ecx

; 107  : 	void Clear()		{ row = col = -1; }

  00009	c7 01 ff ff ff
	ff		 mov	 DWORD PTR [ecx], -1

; 106  : 	TiXmlCursor()		{ Clear(); }

  0000f	c3		 ret	 0
??0TiXmlCursor@@QAE@XZ ENDP				; TiXmlCursor::TiXmlCursor
_TEXT	ENDS
; Function compile flags: /Ogtp
; File E:\Proyectos\JuegosOnlineproyectos\PB\pbblow\Piercing Blow Remake\i3Server\include\i3Base\tinystr.h
;	COMDAT ?quit@TiXmlString@@AAEXXZ
_TEXT	SEGMENT
?quit@TiXmlString@@AAEXXZ PROC				; TiXmlString::quit, COMDAT
; _this$ = ecx

; 257  : 		if (rep_ != &nullrep_)

  00000	8b 01		 mov	 eax, DWORD PTR [ecx]
  00002	3d 00 00 00 00	 cmp	 eax, OFFSET ?nullrep_@TiXmlString@@0URep@1@A ; TiXmlString::nullrep_
  00007	74 07		 je	 SHORT $LN2@quit

; 258  : 		{
; 259  : 			// The rep_ is really an array of ints. (see the allocator, above).
; 260  : 			// Cast it back before delete, so the compiler won't incorrectly call destructors.
; 261  : 			delete [] ( reinterpret_cast<int*>( rep_ ) );

  00009	50		 push	 eax
  0000a	e8 00 00 00 00	 call	 ??_V@YAXPAX@Z		; operator delete[]
  0000f	59		 pop	 ecx
$LN2@quit:

; 262  : 		}
; 263  : 	}

  00010	c3		 ret	 0
?quit@TiXmlString@@AAEXXZ ENDP				; TiXmlString::quit
_TEXT	ENDS
; Function compile flags: /Ogtp
; File E:\Proyectos\JuegosOnlineproyectos\PB\pbblow\Piercing Blow Remake\i3Server\include\i3Base\tinystr.h
;	COMDAT ?init@TiXmlString@@AAEXII@Z
_TEXT	SEGMENT
_sz$ = 8						; size = 4
_cap$ = 12						; size = 4
?init@TiXmlString@@AAEXII@Z PROC			; TiXmlString::init, COMDAT
; _this$ = ecx

; 234  : 	{

  00000	55		 push	 ebp
  00001	8b ec		 mov	 ebp, esp
  00003	56		 push	 esi
  00004	57		 push	 edi

; 235  : 		if (cap)

  00005	8b 7d 0c	 mov	 edi, DWORD PTR _cap$[ebp]
  00008	8b f1		 mov	 esi, ecx
  0000a	85 ff		 test	 edi, edi
  0000c	74 37		 je	 SHORT $LN2@init

; 236  : 		{
; 237  : 			// Lee: the original form:
; 238  : 			//	rep_ = static_cast<Rep*>(operator new(sizeof(Rep) + cap));
; 239  : 			// doesn't work in some cases of new being overloaded. Switching
; 240  : 			// to the normal allocation, although use an 'int' for systems
; 241  : 			// that are overly picky about structure alignment.
; 242  : 			const size_type bytesNeeded = sizeof(Rep) + cap;
; 243  : 			const size_type intsNeeded = ( bytesNeeded + sizeof(int) - 1 ) / sizeof( int ); 

  0000e	8d 47 0f	 lea	 eax, DWORD PTR [edi+15]

; 244  : 			rep_ = reinterpret_cast<Rep*>( new int[ intsNeeded ] );

  00011	b9 04 00 00 00	 mov	 ecx, 4
  00016	c1 e8 02	 shr	 eax, 2
  00019	f7 e1		 mul	 ecx
  0001b	b9 ff ff ff ff	 mov	 ecx, -1
  00020	0f 42 c1	 cmovb	 eax, ecx
  00023	50		 push	 eax
  00024	e8 00 00 00 00	 call	 ??_U@YAPAXI@Z		; operator new[]

; 245  : 
; 246  : 			rep_->str[ rep_->size = sz ] = '\0';

  00029	8b 4d 08	 mov	 ecx, DWORD PTR _sz$[ebp]
  0002c	83 c4 04	 add	 esp, 4
  0002f	89 06		 mov	 DWORD PTR [esi], eax
  00031	89 08		 mov	 DWORD PTR [eax], ecx
  00033	8b 06		 mov	 eax, DWORD PTR [esi]
  00035	c6 44 08 08 00	 mov	 BYTE PTR [eax+ecx+8], 0

; 247  : 			rep_->capacity = cap;

  0003a	8b 06		 mov	 eax, DWORD PTR [esi]
  0003c	89 78 04	 mov	 DWORD PTR [eax+4], edi
  0003f	5f		 pop	 edi

; 252  : 		}
; 253  : 	}

  00040	5e		 pop	 esi
  00041	5d		 pop	 ebp
  00042	c2 08 00	 ret	 8
$LN2@init:
  00045	5f		 pop	 edi

; 248  : 		}
; 249  : 		else
; 250  : 		{
; 251  : 			rep_ = &nullrep_;

  00046	c7 06 00 00 00
	00		 mov	 DWORD PTR [esi], OFFSET ?nullrep_@TiXmlString@@0URep@1@A ; TiXmlString::nullrep_

; 252  : 		}
; 253  : 	}

  0004c	5e		 pop	 esi
  0004d	5d		 pop	 ebp
  0004e	c2 08 00	 ret	 8
?init@TiXmlString@@AAEXII@Z ENDP			; TiXmlString::init
_TEXT	ENDS
; Function compile flags: /Ogtp
; File E:\Proyectos\JuegosOnlineproyectos\PB\pbblow\Piercing Blow Remake\i3Server\include\i3Base\tinystr.h
;	COMDAT ?finish@TiXmlString@@ABEPADXZ
_TEXT	SEGMENT
?finish@TiXmlString@@ABEPADXZ PROC			; TiXmlString::finish, COMDAT
; _this$ = ecx

; 225  : 	char* finish() const { return rep_->str + rep_->size; }

  00000	8b 09		 mov	 ecx, DWORD PTR [ecx]
  00002	8b 01		 mov	 eax, DWORD PTR [ecx]
  00004	83 c0 08	 add	 eax, 8
  00007	03 c1		 add	 eax, ecx
  00009	c3		 ret	 0
?finish@TiXmlString@@ABEPADXZ ENDP			; TiXmlString::finish
_TEXT	ENDS
; Function compile flags: /Ogtp
; File E:\Proyectos\JuegosOnlineproyectos\PB\pbblow\Piercing Blow Remake\i3Server\include\i3Base\tinystr.h
;	COMDAT ?start@TiXmlString@@ABEPADXZ
_TEXT	SEGMENT
?start@TiXmlString@@ABEPADXZ PROC			; TiXmlString::start, COMDAT
; _this$ = ecx

; 224  : 	char* start() const { return rep_->str; }

  00000	8b 01		 mov	 eax, DWORD PTR [ecx]
  00002	83 c0 08	 add	 eax, 8
  00005	c3		 ret	 0
?start@TiXmlString@@ABEPADXZ ENDP			; TiXmlString::start
_TEXT	ENDS
; Function compile flags: /Ogtp
; File E:\Proyectos\JuegosOnlineproyectos\PB\pbblow\Piercing Blow Remake\i3Server\include\i3Base\tinystr.h
;	COMDAT ?set_size@TiXmlString@@AAEXI@Z
_TEXT	SEGMENT
_sz$ = 8						; size = 4
?set_size@TiXmlString@@AAEXI@Z PROC			; TiXmlString::set_size, COMDAT
; _this$ = ecx

; 223  : 	void set_size(size_type sz) { rep_->str[ rep_->size = sz ] = '\0'; }

  00000	55		 push	 ebp
  00001	8b ec		 mov	 ebp, esp
  00003	8b 01		 mov	 eax, DWORD PTR [ecx]
  00005	8b 55 08	 mov	 edx, DWORD PTR _sz$[ebp]
  00008	89 10		 mov	 DWORD PTR [eax], edx
  0000a	8b 01		 mov	 eax, DWORD PTR [ecx]
  0000c	c6 44 10 08 00	 mov	 BYTE PTR [eax+edx+8], 0
  00011	5d		 pop	 ebp
  00012	c2 04 00	 ret	 4
?set_size@TiXmlString@@AAEXI@Z ENDP			; TiXmlString::set_size
_TEXT	ENDS
; Function compile flags: /Ogtp
; File E:\Proyectos\JuegosOnlineproyectos\PB\pbblow\Piercing Blow Remake\i3Server\include\i3Base\tinystr.h
;	COMDAT ?init@TiXmlString@@AAEXI@Z
_TEXT	SEGMENT
_sz$ = 8						; size = 4
?init@TiXmlString@@AAEXI@Z PROC				; TiXmlString::init, COMDAT
; _this$ = ecx

; 222  : 	void init(size_type sz) { init(sz, sz); }

  00000	55		 push	 ebp
  00001	8b ec		 mov	 ebp, esp
  00003	56		 push	 esi

; 235  : 		if (cap)

  00004	8b 75 08	 mov	 esi, DWORD PTR _sz$[ebp]

; 222  : 	void init(size_type sz) { init(sz, sz); }

  00007	57		 push	 edi
  00008	8b f9		 mov	 edi, ecx

; 235  : 		if (cap)

  0000a	85 f6		 test	 esi, esi
  0000c	74 34		 je	 SHORT $LN4@init

; 236  : 		{
; 237  : 			// Lee: the original form:
; 238  : 			//	rep_ = static_cast<Rep*>(operator new(sizeof(Rep) + cap));
; 239  : 			// doesn't work in some cases of new being overloaded. Switching
; 240  : 			// to the normal allocation, although use an 'int' for systems
; 241  : 			// that are overly picky about structure alignment.
; 242  : 			const size_type bytesNeeded = sizeof(Rep) + cap;
; 243  : 			const size_type intsNeeded = ( bytesNeeded + sizeof(int) - 1 ) / sizeof( int ); 

  0000e	8d 46 0f	 lea	 eax, DWORD PTR [esi+15]

; 244  : 			rep_ = reinterpret_cast<Rep*>( new int[ intsNeeded ] );

  00011	b9 04 00 00 00	 mov	 ecx, 4
  00016	c1 e8 02	 shr	 eax, 2
  00019	f7 e1		 mul	 ecx
  0001b	b9 ff ff ff ff	 mov	 ecx, -1
  00020	0f 42 c1	 cmovb	 eax, ecx
  00023	50		 push	 eax
  00024	e8 00 00 00 00	 call	 ??_U@YAPAXI@Z		; operator new[]
  00029	89 07		 mov	 DWORD PTR [edi], eax
  0002b	83 c4 04	 add	 esp, 4

; 245  : 
; 246  : 			rep_->str[ rep_->size = sz ] = '\0';

  0002e	89 30		 mov	 DWORD PTR [eax], esi
  00030	8b 07		 mov	 eax, DWORD PTR [edi]
  00032	c6 44 30 08 00	 mov	 BYTE PTR [eax+esi+8], 0

; 247  : 			rep_->capacity = cap;

  00037	8b 07		 mov	 eax, DWORD PTR [edi]
  00039	5f		 pop	 edi
  0003a	89 70 04	 mov	 DWORD PTR [eax+4], esi

; 222  : 	void init(size_type sz) { init(sz, sz); }

  0003d	5e		 pop	 esi
  0003e	5d		 pop	 ebp
  0003f	c2 04 00	 ret	 4
$LN4@init:

; 251  : 			rep_ = &nullrep_;

  00042	c7 07 00 00 00
	00		 mov	 DWORD PTR [edi], OFFSET ?nullrep_@TiXmlString@@0URep@1@A ; TiXmlString::nullrep_
  00048	5f		 pop	 edi

; 222  : 	void init(size_type sz) { init(sz, sz); }

  00049	5e		 pop	 esi
  0004a	5d		 pop	 ebp
  0004b	c2 04 00	 ret	 4
?init@TiXmlString@@AAEXI@Z ENDP				; TiXmlString::init
_TEXT	ENDS
; Function compile flags: /Ogtp
; File E:\Proyectos\JuegosOnlineproyectos\PB\pbblow\Piercing Blow Remake\i3Server\include\i3Base\tinystr.h
;	COMDAT ?swap@TiXmlString@@QAEXAAV1@@Z
_TEXT	SEGMENT
_other$ = 8						; size = 4
?swap@TiXmlString@@QAEXAAV1@@Z PROC			; TiXmlString::swap, COMDAT
; _this$ = ecx

; 214  : 	{

  00000	55		 push	 ebp
  00001	8b ec		 mov	 ebp, esp

; 215  : 		Rep* r = rep_;
; 216  : 		rep_ = other.rep_;

  00003	8b 55 08	 mov	 edx, DWORD PTR _other$[ebp]
  00006	56		 push	 esi
  00007	8b 31		 mov	 esi, DWORD PTR [ecx]
  00009	8b 02		 mov	 eax, DWORD PTR [edx]
  0000b	89 01		 mov	 DWORD PTR [ecx], eax

; 217  : 		other.rep_ = r;

  0000d	89 32		 mov	 DWORD PTR [edx], esi
  0000f	5e		 pop	 esi

; 218  : 	}

  00010	5d		 pop	 ebp
  00011	c2 04 00	 ret	 4
?swap@TiXmlString@@QAEXAAV1@@Z ENDP			; TiXmlString::swap
_TEXT	ENDS
; Function compile flags: /Ogtp
; File E:\Proyectos\JuegosOnlineproyectos\PB\pbblow\Piercing Blow Remake\i3Server\include\i3Base\tinystr.h
;	COMDAT ?clear@TiXmlString@@QAEXXZ
_TEXT	SEGMENT
?clear@TiXmlString@@QAEXXZ PROC				; TiXmlString::clear, COMDAT
; _this$ = ecx

; 195  : 	{

  00000	56		 push	 esi
  00001	8b f1		 mov	 esi, ecx

; 257  : 		if (rep_ != &nullrep_)

  00003	8b 06		 mov	 eax, DWORD PTR [esi]
  00005	3d 00 00 00 00	 cmp	 eax, OFFSET ?nullrep_@TiXmlString@@0URep@1@A ; TiXmlString::nullrep_
  0000a	74 09		 je	 SHORT $LN10@clear

; 258  : 		{
; 259  : 			// The rep_ is really an array of ints. (see the allocator, above).
; 260  : 			// Cast it back before delete, so the compiler won't incorrectly call destructors.
; 261  : 			delete [] ( reinterpret_cast<int*>( rep_ ) );

  0000c	50		 push	 eax
  0000d	e8 00 00 00 00	 call	 ??_V@YAXPAX@Z		; operator delete[]
  00012	83 c4 04	 add	 esp, 4
$LN10@clear:

; 196  : 		//Lee:
; 197  : 		//The original was just too strange, though correct:
; 198  : 		//	TiXmlString().swap(*this);
; 199  : 		//Instead use the quit & re-init:
; 200  : 		quit();
; 201  : 		init(0,0);
; 202  : 	}

  00015	c7 06 00 00 00
	00		 mov	 DWORD PTR [esi], OFFSET ?nullrep_@TiXmlString@@0URep@1@A ; TiXmlString::nullrep_
  0001b	5e		 pop	 esi
  0001c	c3		 ret	 0
?clear@TiXmlString@@QAEXXZ ENDP				; TiXmlString::clear
_TEXT	ENDS
; Function compile flags: /Ogtp
; File E:\Proyectos\JuegosOnlineproyectos\PB\pbblow\Piercing Blow Remake\i3Server\include\i3Base\tinystr.h
;	COMDAT ?find@TiXmlString@@QBEIDI@Z
_TEXT	SEGMENT
_tofind$ = 8						; size = 1
_offset$ = 12						; size = 4
?find@TiXmlString@@QBEIDI@Z PROC			; TiXmlString::find, COMDAT
; _this$ = ecx

; 184  : 	{

  00000	55		 push	 ebp
  00001	8b ec		 mov	 ebp, esp

; 185  : 		if (offset >= length()) return npos;

  00003	8b 45 0c	 mov	 eax, DWORD PTR _offset$[ebp]
  00006	56		 push	 esi

; 150  : 	size_type length () const { return rep_->size; }

  00007	8b 31		 mov	 esi, DWORD PTR [ecx]

; 185  : 		if (offset >= length()) return npos;

  00009	3b 06		 cmp	 eax, DWORD PTR [esi]
  0000b	73 1f		 jae	 SHORT $LN3@find

; 186  : 
; 187  : 		for (const char* p = c_str() + offset; *p != '\0'; ++p)

  0000d	83 c0 08	 add	 eax, 8
  00010	03 c6		 add	 eax, esi
  00012	8a 08		 mov	 cl, BYTE PTR [eax]
  00014	84 c9		 test	 cl, cl
  00016	74 14		 je	 SHORT $LN3@find
  00018	8a 55 08	 mov	 dl, BYTE PTR _tofind$[ebp]
  0001b	eb 03 8d 49 00	 npad	 5
$LL4@find:

; 188  : 		{
; 189  : 		   if (*p == tofind) return static_cast< size_type >( p - c_str() );

  00020	3a ca		 cmp	 cl, dl
  00022	74 12		 je	 SHORT $LN15@find

; 186  : 
; 187  : 		for (const char* p = c_str() + offset; *p != '\0'; ++p)

  00024	8a 48 01	 mov	 cl, BYTE PTR [eax+1]
  00027	40		 inc	 eax
  00028	84 c9		 test	 cl, cl
  0002a	75 f4		 jne	 SHORT $LL4@find
$LN3@find:

; 190  : 		}
; 191  : 		return npos;

  0002c	a1 00 00 00 00	 mov	 eax, DWORD PTR ?npos@TiXmlString@@2IB ; TiXmlString::npos
  00031	5e		 pop	 esi

; 192  : 	}

  00032	5d		 pop	 ebp
  00033	c2 08 00	 ret	 8
$LN15@find:

; 188  : 		{
; 189  : 		   if (*p == tofind) return static_cast< size_type >( p - c_str() );

  00036	2b c6		 sub	 eax, esi
  00038	83 e8 08	 sub	 eax, 8
  0003b	5e		 pop	 esi

; 192  : 	}

  0003c	5d		 pop	 ebp
  0003d	c2 08 00	 ret	 8
?find@TiXmlString@@QBEIDI@Z ENDP			; TiXmlString::find
_TEXT	ENDS
; Function compile flags: /Ogtp
; File E:\Proyectos\JuegosOnlineproyectos\PB\pbblow\Piercing Blow Remake\i3Server\include\i3Base\tinystr.h
;	COMDAT ?find@TiXmlString@@QBEID@Z
_TEXT	SEGMENT
_lookup$ = 8						; size = 1
?find@TiXmlString@@QBEID@Z PROC				; TiXmlString::find, COMDAT
; _this$ = ecx

; 178  : 	{

  00000	55		 push	 ebp
  00001	8b ec		 mov	 ebp, esp
  00003	56		 push	 esi

; 150  : 	size_type length () const { return rep_->size; }

  00004	8b 31		 mov	 esi, DWORD PTR [ecx]

; 185  : 		if (offset >= length()) return npos;

  00006	83 3e 00	 cmp	 DWORD PTR [esi], 0
  00009	76 19		 jbe	 SHORT $LN5@find

; 186  : 
; 187  : 		for (const char* p = c_str() + offset; *p != '\0'; ++p)

  0000b	8a 4e 08	 mov	 cl, BYTE PTR [esi+8]

; 144  : 	const char * c_str () const { return rep_->str; }

  0000e	8d 46 08	 lea	 eax, DWORD PTR [esi+8]

; 187  : 		for (const char* p = c_str() + offset; *p != '\0'; ++p)

  00011	84 c9		 test	 cl, cl
  00013	74 0f		 je	 SHORT $LN5@find
  00015	8a 55 08	 mov	 dl, BYTE PTR _lookup$[ebp]
$LL6@find:

; 188  : 		{
; 189  : 		   if (*p == tofind) return static_cast< size_type >( p - c_str() );

  00018	3a ca		 cmp	 cl, dl
  0001a	74 12		 je	 SHORT $LN17@find

; 186  : 
; 187  : 		for (const char* p = c_str() + offset; *p != '\0'; ++p)

  0001c	8a 48 01	 mov	 cl, BYTE PTR [eax+1]
  0001f	40		 inc	 eax
  00020	84 c9		 test	 cl, cl
  00022	75 f4		 jne	 SHORT $LL6@find
$LN5@find:

; 179  : 		return find(lookup, 0);
; 180  : 	}

  00024	a1 00 00 00 00	 mov	 eax, DWORD PTR ?npos@TiXmlString@@2IB ; TiXmlString::npos
  00029	5e		 pop	 esi
  0002a	5d		 pop	 ebp
  0002b	c2 04 00	 ret	 4
$LN17@find:

; 189  : 		   if (*p == tofind) return static_cast< size_type >( p - c_str() );

  0002e	2b c6		 sub	 eax, esi
  00030	83 e8 08	 sub	 eax, 8
  00033	5e		 pop	 esi

; 179  : 		return find(lookup, 0);
; 180  : 	}

  00034	5d		 pop	 ebp
  00035	c2 04 00	 ret	 4
?find@TiXmlString@@QBEID@Z ENDP				; TiXmlString::find
_TEXT	ENDS
; Function compile flags: /Ogtp
; File E:\Proyectos\JuegosOnlineproyectos\PB\pbblow\Piercing Blow Remake\i3Server\include\i3Base\tinystr.h
;	COMDAT ??ATiXmlString@@QBEAADI@Z
_TEXT	SEGMENT
_index$ = 8						; size = 4
??ATiXmlString@@QBEAADI@Z PROC				; TiXmlString::operator[], COMDAT
; _this$ = ecx

; 171  : 	{

  00000	55		 push	 ebp
  00001	8b ec		 mov	 ebp, esp

; 172  : 		I3ASSERT( index < length() );
; 173  : 		return rep_->str[ index ];

  00003	8b 45 08	 mov	 eax, DWORD PTR _index$[ebp]
  00006	83 c0 08	 add	 eax, 8
  00009	03 01		 add	 eax, DWORD PTR [ecx]

; 174  : 	}

  0000b	5d		 pop	 ebp
  0000c	c2 04 00	 ret	 4
??ATiXmlString@@QBEAADI@Z ENDP				; TiXmlString::operator[]
_TEXT	ENDS
; Function compile flags: /Ogtp
; File E:\Proyectos\JuegosOnlineproyectos\PB\pbblow\Piercing Blow Remake\i3Server\include\i3Base\tinystr.h
;	COMDAT ?at@TiXmlString@@QBEABDI@Z
_TEXT	SEGMENT
_index$ = 8						; size = 4
?at@TiXmlString@@QBEABDI@Z PROC				; TiXmlString::at, COMDAT
; _this$ = ecx

; 164  : 	{

  00000	55		 push	 ebp
  00001	8b ec		 mov	 ebp, esp

; 165  : 		I3ASSERT( index < length() );
; 166  : 		return rep_->str[ index ];

  00003	8b 45 08	 mov	 eax, DWORD PTR _index$[ebp]
  00006	83 c0 08	 add	 eax, 8
  00009	03 01		 add	 eax, DWORD PTR [ecx]

; 167  : 	}

  0000b	5d		 pop	 ebp
  0000c	c2 04 00	 ret	 4
?at@TiXmlString@@QBEABDI@Z ENDP				; TiXmlString::at
_TEXT	ENDS
; Function compile flags: /Ogtp
; File E:\Proyectos\JuegosOnlineproyectos\PB\pbblow\Piercing Blow Remake\i3Server\include\i3Base\tinystr.h
;	COMDAT ?capacity@TiXmlString@@QBEIXZ
_TEXT	SEGMENT
?capacity@TiXmlString@@QBEIXZ PROC			; TiXmlString::capacity, COMDAT
; _this$ = ecx

; 159  : 	size_type capacity () const { return rep_->capacity; }

  00000	8b 01		 mov	 eax, DWORD PTR [ecx]
  00002	8b 40 04	 mov	 eax, DWORD PTR [eax+4]
  00005	c3		 ret	 0
?capacity@TiXmlString@@QBEIXZ ENDP			; TiXmlString::capacity
_TEXT	ENDS
; Function compile flags: /Ogtp
; File E:\Proyectos\JuegosOnlineproyectos\PB\pbblow\Piercing Blow Remake\i3Server\include\i3Base\tinystr.h
;	COMDAT ?empty@TiXmlString@@QBE_NXZ
_TEXT	SEGMENT
?empty@TiXmlString@@QBE_NXZ PROC			; TiXmlString::empty, COMDAT
; _this$ = ecx

; 156  : 	bool empty () const { return rep_->size == 0; }

  00000	8b 01		 mov	 eax, DWORD PTR [ecx]
  00002	83 38 00	 cmp	 DWORD PTR [eax], 0
  00005	0f 94 c0	 sete	 al
  00008	c3		 ret	 0
?empty@TiXmlString@@QBE_NXZ ENDP			; TiXmlString::empty
_TEXT	ENDS
; Function compile flags: /Ogtp
; File E:\Proyectos\JuegosOnlineproyectos\PB\pbblow\Piercing Blow Remake\i3Server\include\i3Base\tinystr.h
;	COMDAT ?size@TiXmlString@@QBEIXZ
_TEXT	SEGMENT
?size@TiXmlString@@QBEIXZ PROC				; TiXmlString::size, COMDAT
; _this$ = ecx

; 153  : 	size_type size () const { return rep_->size; }

  00000	8b 01		 mov	 eax, DWORD PTR [ecx]
  00002	8b 00		 mov	 eax, DWORD PTR [eax]
  00004	c3		 ret	 0
?size@TiXmlString@@QBEIXZ ENDP				; TiXmlString::size
_TEXT	ENDS
; Function compile flags: /Ogtp
; File E:\Proyectos\JuegosOnlineproyectos\PB\pbblow\Piercing Blow Remake\i3Server\include\i3Base\tinystr.h
;	COMDAT ?length@TiXmlString@@QBEIXZ
_TEXT	SEGMENT
?length@TiXmlString@@QBEIXZ PROC			; TiXmlString::length, COMDAT
; _this$ = ecx

; 150  : 	size_type length () const { return rep_->size; }

  00000	8b 01		 mov	 eax, DWORD PTR [ecx]
  00002	8b 00		 mov	 eax, DWORD PTR [eax]
  00004	c3		 ret	 0
?length@TiXmlString@@QBEIXZ ENDP			; TiXmlString::length
_TEXT	ENDS
; Function compile flags: /Ogtp
; File E:\Proyectos\JuegosOnlineproyectos\PB\pbblow\Piercing Blow Remake\i3Server\include\i3Base\tinystr.h
;	COMDAT ?data@TiXmlString@@QBEPBDXZ
_TEXT	SEGMENT
?data@TiXmlString@@QBEPBDXZ PROC			; TiXmlString::data, COMDAT
; _this$ = ecx

; 147  : 	const char * data () const { return rep_->str; }

  00000	8b 01		 mov	 eax, DWORD PTR [ecx]
  00002	83 c0 08	 add	 eax, 8
  00005	c3		 ret	 0
?data@TiXmlString@@QBEPBDXZ ENDP			; TiXmlString::data
_TEXT	ENDS
; Function compile flags: /Ogtp
; File E:\Proyectos\JuegosOnlineproyectos\PB\pbblow\Piercing Blow Remake\i3Server\include\i3Base\tinystr.h
;	COMDAT ?c_str@TiXmlString@@QBEPBDXZ
_TEXT	SEGMENT
?c_str@TiXmlString@@QBEPBDXZ PROC			; TiXmlString::c_str, COMDAT
; _this$ = ecx

; 144  : 	const char * c_str () const { return rep_->str; }

  00000	8b 01		 mov	 eax, DWORD PTR [ecx]
  00002	83 c0 08	 add	 eax, 8
  00005	c3		 ret	 0
?c_str@TiXmlString@@QBEPBDXZ ENDP			; TiXmlString::c_str
_TEXT	ENDS
; Function compile flags: /Ogtp
; File E:\Proyectos\JuegosOnlineproyectos\PB\pbblow\Piercing Blow Remake\i3Server\include\i3Base\tinystr.h
;	COMDAT ??YTiXmlString@@QAEAAV0@ABV0@@Z
_TEXT	SEGMENT
_suffix$ = 8						; size = 4
??YTiXmlString@@QAEAAV0@ABV0@@Z PROC			; TiXmlString::operator+=, COMDAT
; _this$ = ecx

; 138  : 	{

  00000	55		 push	 ebp
  00001	8b ec		 mov	 ebp, esp

; 150  : 	size_type length () const { return rep_->size; }

  00003	8b 45 08	 mov	 eax, DWORD PTR _suffix$[ebp]
  00006	8b 00		 mov	 eax, DWORD PTR [eax]

; 139  : 		return append(suffix.data(), suffix.length());

  00008	ff 30		 push	 DWORD PTR [eax]

; 147  : 	const char * data () const { return rep_->str; }

  0000a	83 c0 08	 add	 eax, 8

; 139  : 		return append(suffix.data(), suffix.length());

  0000d	50		 push	 eax
  0000e	e8 00 00 00 00	 call	 ?append@TiXmlString@@QAEAAV1@PBDI@Z ; TiXmlString::append

; 140  : 	}

  00013	5d		 pop	 ebp
  00014	c2 04 00	 ret	 4
??YTiXmlString@@QAEAAV0@ABV0@@Z ENDP			; TiXmlString::operator+=
_TEXT	ENDS
; Function compile flags: /Ogtp
; File E:\Proyectos\JuegosOnlineproyectos\PB\pbblow\Piercing Blow Remake\i3Server\include\i3Base\tinystr.h
;	COMDAT ??YTiXmlString@@QAEAAV0@D@Z
_TEXT	SEGMENT
_single$ = 8						; size = 1
??YTiXmlString@@QAEAAV0@D@Z PROC			; TiXmlString::operator+=, COMDAT
; _this$ = ecx

; 132  : 	{

  00000	55		 push	 ebp
  00001	8b ec		 mov	 ebp, esp

; 133  : 		return append(&single, 1);

  00003	6a 01		 push	 1
  00005	8d 45 08	 lea	 eax, DWORD PTR _single$[ebp]
  00008	50		 push	 eax
  00009	e8 00 00 00 00	 call	 ?append@TiXmlString@@QAEAAV1@PBDI@Z ; TiXmlString::append

; 134  : 	}

  0000e	5d		 pop	 ebp
  0000f	c2 04 00	 ret	 4
??YTiXmlString@@QAEAAV0@D@Z ENDP			; TiXmlString::operator+=
_TEXT	ENDS
; Function compile flags: /Ogtp
; File E:\Proyectos\JuegosOnlineproyectos\PB\pbblow\Piercing Blow Remake\i3Server\include\i3Base\tinystr.h
;	COMDAT ??YTiXmlString@@QAEAAV0@PBD@Z
_TEXT	SEGMENT
_suffix$ = 8						; size = 4
??YTiXmlString@@QAEAAV0@PBD@Z PROC			; TiXmlString::operator+=, COMDAT
; _this$ = ecx

; 126  : 	{

  00000	55		 push	 ebp
  00001	8b ec		 mov	 ebp, esp

; 127  : 		return append(suffix, static_cast<size_type>( strlen(suffix) ));

  00003	8b 55 08	 mov	 edx, DWORD PTR _suffix$[ebp]
  00006	8b c2		 mov	 eax, edx
  00008	56		 push	 esi
  00009	57		 push	 edi
  0000a	8b f1		 mov	 esi, ecx
  0000c	8d 78 01	 lea	 edi, DWORD PTR [eax+1]
  0000f	90		 npad	 1
$LL3@operator:
  00010	8a 08		 mov	 cl, BYTE PTR [eax]
  00012	40		 inc	 eax
  00013	84 c9		 test	 cl, cl
  00015	75 f9		 jne	 SHORT $LL3@operator
  00017	2b c7		 sub	 eax, edi
  00019	8b ce		 mov	 ecx, esi
  0001b	50		 push	 eax
  0001c	52		 push	 edx
  0001d	e8 00 00 00 00	 call	 ?append@TiXmlString@@QAEAAV1@PBDI@Z ; TiXmlString::append
  00022	5f		 pop	 edi
  00023	5e		 pop	 esi

; 128  : 	}

  00024	5d		 pop	 ebp
  00025	c2 04 00	 ret	 4
??YTiXmlString@@QAEAAV0@PBD@Z ENDP			; TiXmlString::operator+=
_TEXT	ENDS
; Function compile flags: /Ogtp
; File E:\Proyectos\JuegosOnlineproyectos\PB\pbblow\Piercing Blow Remake\i3Server\include\i3Base\tinystr.h
;	COMDAT ??4TiXmlString@@QAEAAV0@ABV0@@Z
_TEXT	SEGMENT
_copy$ = 8						; size = 4
??4TiXmlString@@QAEAAV0@ABV0@@Z PROC			; TiXmlString::operator=, COMDAT
; _this$ = ecx

; 119  : 	{

  00000	55		 push	 ebp
  00001	8b ec		 mov	 ebp, esp

; 150  : 	size_type length () const { return rep_->size; }

  00003	8b 45 08	 mov	 eax, DWORD PTR _copy$[ebp]
  00006	8b 00		 mov	 eax, DWORD PTR [eax]

; 120  : 		return assign(copy.start(), copy.length());

  00008	ff 30		 push	 DWORD PTR [eax]

; 224  : 	char* start() const { return rep_->str; }

  0000a	83 c0 08	 add	 eax, 8

; 120  : 		return assign(copy.start(), copy.length());

  0000d	50		 push	 eax
  0000e	e8 00 00 00 00	 call	 ?assign@TiXmlString@@QAEAAV1@PBDI@Z ; TiXmlString::assign

; 121  : 	}

  00013	5d		 pop	 ebp
  00014	c2 04 00	 ret	 4
??4TiXmlString@@QAEAAV0@ABV0@@Z ENDP			; TiXmlString::operator=
_TEXT	ENDS
; Function compile flags: /Ogtp
; File E:\Proyectos\JuegosOnlineproyectos\PB\pbblow\Piercing Blow Remake\i3Server\include\i3Base\tinystr.h
;	COMDAT ??4TiXmlString@@QAEAAV0@PBD@Z
_TEXT	SEGMENT
_copy$ = 8						; size = 4
??4TiXmlString@@QAEAAV0@PBD@Z PROC			; TiXmlString::operator=, COMDAT
; _this$ = ecx

; 113  : 	{

  00000	55		 push	 ebp
  00001	8b ec		 mov	 ebp, esp

; 114  : 		return assign( copy, (size_type)strlen(copy));

  00003	8b 55 08	 mov	 edx, DWORD PTR _copy$[ebp]
  00006	8b c2		 mov	 eax, edx
  00008	56		 push	 esi
  00009	57		 push	 edi
  0000a	8b f1		 mov	 esi, ecx
  0000c	8d 78 01	 lea	 edi, DWORD PTR [eax+1]
  0000f	90		 npad	 1
$LL3@operator:
  00010	8a 08		 mov	 cl, BYTE PTR [eax]
  00012	40		 inc	 eax
  00013	84 c9		 test	 cl, cl
  00015	75 f9		 jne	 SHORT $LL3@operator
  00017	2b c7		 sub	 eax, edi
  00019	8b ce		 mov	 ecx, esi
  0001b	50		 push	 eax
  0001c	52		 push	 edx
  0001d	e8 00 00 00 00	 call	 ?assign@TiXmlString@@QAEAAV1@PBDI@Z ; TiXmlString::assign
  00022	5f		 pop	 edi
  00023	5e		 pop	 esi

; 115  : 	}

  00024	5d		 pop	 ebp
  00025	c2 04 00	 ret	 4
??4TiXmlString@@QAEAAV0@PBD@Z ENDP			; TiXmlString::operator=
_TEXT	ENDS
; Function compile flags: /Ogtp
; File E:\Proyectos\JuegosOnlineproyectos\PB\pbblow\Piercing Blow Remake\i3Server\include\i3Base\tinystr.h
;	COMDAT ??1TiXmlString@@QAE@XZ
_TEXT	SEGMENT
??1TiXmlString@@QAE@XZ PROC				; TiXmlString::~TiXmlString, COMDAT
; _this$ = ecx

; 257  : 		if (rep_ != &nullrep_)

  00000	8b 01		 mov	 eax, DWORD PTR [ecx]
  00002	3d 00 00 00 00	 cmp	 eax, OFFSET ?nullrep_@TiXmlString@@0URep@1@A ; TiXmlString::nullrep_
  00007	74 07		 je	 SHORT $LN5@TiXmlStrin

; 258  : 		{
; 259  : 			// The rep_ is really an array of ints. (see the allocator, above).
; 260  : 			// Cast it back before delete, so the compiler won't incorrectly call destructors.
; 261  : 			delete [] ( reinterpret_cast<int*>( rep_ ) );

  00009	50		 push	 eax
  0000a	e8 00 00 00 00	 call	 ??_V@YAXPAX@Z		; operator delete[]
  0000f	59		 pop	 ecx
$LN5@TiXmlStrin:

; 108  : 		quit();
; 109  : 	}

  00010	c3		 ret	 0
??1TiXmlString@@QAE@XZ ENDP				; TiXmlString::~TiXmlString
_TEXT	ENDS
; Function compile flags: /Ogtp
; File E:\Proyectos\JuegosOnlineproyectos\PB\pbblow\Piercing Blow Remake\i3Server\include\i3Base\tinystr.h
;	COMDAT ??0TiXmlString@@QAE@PBDI@Z
_TEXT	SEGMENT
_str$ = 8						; size = 4
_len$ = 12						; size = 4
??0TiXmlString@@QAE@PBDI@Z PROC				; TiXmlString::TiXmlString, COMDAT
; _this$ = ecx

; 100  : 	{

  00000	55		 push	 ebp
  00001	8b ec		 mov	 ebp, esp
  00003	56		 push	 esi
  00004	8b f1		 mov	 esi, ecx
  00006	57		 push	 edi

; 235  : 		if (cap)

  00007	8b 7d 0c	 mov	 edi, DWORD PTR _len$[ebp]

; 99   : 	TIXML_EXPLICIT TiXmlString ( const char * str, size_type len) : rep_(0)

  0000a	c7 06 00 00 00
	00		 mov	 DWORD PTR [esi], 0

; 235  : 		if (cap)

  00010	85 ff		 test	 edi, edi
  00012	74 30		 je	 SHORT $LN6@TiXmlStrin

; 236  : 		{
; 237  : 			// Lee: the original form:
; 238  : 			//	rep_ = static_cast<Rep*>(operator new(sizeof(Rep) + cap));
; 239  : 			// doesn't work in some cases of new being overloaded. Switching
; 240  : 			// to the normal allocation, although use an 'int' for systems
; 241  : 			// that are overly picky about structure alignment.
; 242  : 			const size_type bytesNeeded = sizeof(Rep) + cap;
; 243  : 			const size_type intsNeeded = ( bytesNeeded + sizeof(int) - 1 ) / sizeof( int ); 

  00014	8d 47 0f	 lea	 eax, DWORD PTR [edi+15]

; 244  : 			rep_ = reinterpret_cast<Rep*>( new int[ intsNeeded ] );

  00017	b9 04 00 00 00	 mov	 ecx, 4
  0001c	c1 e8 02	 shr	 eax, 2
  0001f	f7 e1		 mul	 ecx
  00021	b9 ff ff ff ff	 mov	 ecx, -1
  00026	0f 42 c1	 cmovb	 eax, ecx
  00029	50		 push	 eax
  0002a	e8 00 00 00 00	 call	 ??_U@YAPAXI@Z		; operator new[]
  0002f	89 06		 mov	 DWORD PTR [esi], eax
  00031	83 c4 04	 add	 esp, 4

; 245  : 
; 246  : 			rep_->str[ rep_->size = sz ] = '\0';

  00034	89 38		 mov	 DWORD PTR [eax], edi
  00036	8b 06		 mov	 eax, DWORD PTR [esi]
  00038	c6 44 38 08 00	 mov	 BYTE PTR [eax+edi+8], 0

; 247  : 			rep_->capacity = cap;

  0003d	8b 06		 mov	 eax, DWORD PTR [esi]
  0003f	89 78 04	 mov	 DWORD PTR [eax+4], edi

; 248  : 		}

  00042	eb 06		 jmp	 SHORT $LN7@TiXmlStrin
$LN6@TiXmlStrin:

; 249  : 		else
; 250  : 		{
; 251  : 			rep_ = &nullrep_;

  00044	c7 06 00 00 00
	00		 mov	 DWORD PTR [esi], OFFSET ?nullrep_@TiXmlString@@0URep@1@A ; TiXmlString::nullrep_
$LN7@TiXmlStrin:

; 224  : 	char* start() const { return rep_->str; }

  0004a	8b 06		 mov	 eax, DWORD PTR [esi]

; 101  : 		init(len);
; 102  : 		memcpy(start(), str, len);

  0004c	57		 push	 edi
  0004d	ff 75 08	 push	 DWORD PTR _str$[ebp]

; 224  : 	char* start() const { return rep_->str; }

  00050	83 c0 08	 add	 eax, 8

; 101  : 		init(len);
; 102  : 		memcpy(start(), str, len);

  00053	50		 push	 eax
  00054	e8 00 00 00 00	 call	 _memcpy
  00059	83 c4 0c	 add	 esp, 12			; 0000000cH

; 103  : 	}

  0005c	8b c6		 mov	 eax, esi
  0005e	5f		 pop	 edi
  0005f	5e		 pop	 esi
  00060	5d		 pop	 ebp
  00061	c2 08 00	 ret	 8
??0TiXmlString@@QAE@PBDI@Z ENDP				; TiXmlString::TiXmlString
_TEXT	ENDS
; Function compile flags: /Ogtp
; File E:\Proyectos\JuegosOnlineproyectos\PB\pbblow\Piercing Blow Remake\i3Server\include\i3Base\tinystr.h
;	COMDAT ??0TiXmlString@@QAE@PBD@Z
_TEXT	SEGMENT
_copy$ = 8						; size = 4
??0TiXmlString@@QAE@PBD@Z PROC				; TiXmlString::TiXmlString, COMDAT
; _this$ = ecx

; 93   : 	{

  00000	55		 push	 ebp
  00001	8b ec		 mov	 ebp, esp
  00003	56		 push	 esi

; 94   : 		init( static_cast<size_type>( strlen(copy) ));

  00004	8b 75 08	 mov	 esi, DWORD PTR _copy$[ebp]
  00007	57		 push	 edi
  00008	8b f9		 mov	 edi, ecx
  0000a	8d 4e 01	 lea	 ecx, DWORD PTR [esi+1]
  0000d	c7 07 00 00 00
	00		 mov	 DWORD PTR [edi], 0
$LL13@TiXmlStrin:
  00013	8a 06		 mov	 al, BYTE PTR [esi]
  00015	46		 inc	 esi
  00016	84 c0		 test	 al, al
  00018	75 f9		 jne	 SHORT $LL13@TiXmlStrin
  0001a	2b f1		 sub	 esi, ecx

; 235  : 		if (cap)

  0001c	74 30		 je	 SHORT $LN6@TiXmlStrin

; 236  : 		{
; 237  : 			// Lee: the original form:
; 238  : 			//	rep_ = static_cast<Rep*>(operator new(sizeof(Rep) + cap));
; 239  : 			// doesn't work in some cases of new being overloaded. Switching
; 240  : 			// to the normal allocation, although use an 'int' for systems
; 241  : 			// that are overly picky about structure alignment.
; 242  : 			const size_type bytesNeeded = sizeof(Rep) + cap;
; 243  : 			const size_type intsNeeded = ( bytesNeeded + sizeof(int) - 1 ) / sizeof( int ); 

  0001e	8d 46 0f	 lea	 eax, DWORD PTR [esi+15]

; 244  : 			rep_ = reinterpret_cast<Rep*>( new int[ intsNeeded ] );

  00021	b9 04 00 00 00	 mov	 ecx, 4
  00026	c1 e8 02	 shr	 eax, 2
  00029	f7 e1		 mul	 ecx
  0002b	b9 ff ff ff ff	 mov	 ecx, -1
  00030	0f 42 c1	 cmovb	 eax, ecx
  00033	50		 push	 eax
  00034	e8 00 00 00 00	 call	 ??_U@YAPAXI@Z		; operator new[]
  00039	89 07		 mov	 DWORD PTR [edi], eax
  0003b	83 c4 04	 add	 esp, 4

; 245  : 
; 246  : 			rep_->str[ rep_->size = sz ] = '\0';

  0003e	89 30		 mov	 DWORD PTR [eax], esi
  00040	8b 07		 mov	 eax, DWORD PTR [edi]
  00042	c6 44 30 08 00	 mov	 BYTE PTR [eax+esi+8], 0

; 247  : 			rep_->capacity = cap;

  00047	8b 07		 mov	 eax, DWORD PTR [edi]
  00049	89 70 04	 mov	 DWORD PTR [eax+4], esi

; 248  : 		}

  0004c	eb 06		 jmp	 SHORT $LN7@TiXmlStrin
$LN6@TiXmlStrin:

; 249  : 		else
; 250  : 		{
; 251  : 			rep_ = &nullrep_;

  0004e	c7 07 00 00 00
	00		 mov	 DWORD PTR [edi], OFFSET ?nullrep_@TiXmlString@@0URep@1@A ; TiXmlString::nullrep_
$LN7@TiXmlStrin:

; 150  : 	size_type length () const { return rep_->size; }

  00054	8b 07		 mov	 eax, DWORD PTR [edi]

; 95   : 		memcpy(start(), copy, length());

  00056	ff 30		 push	 DWORD PTR [eax]

; 224  : 	char* start() const { return rep_->str; }

  00058	83 c0 08	 add	 eax, 8

; 95   : 		memcpy(start(), copy, length());

  0005b	ff 75 08	 push	 DWORD PTR _copy$[ebp]
  0005e	50		 push	 eax
  0005f	e8 00 00 00 00	 call	 _memcpy
  00064	83 c4 0c	 add	 esp, 12			; 0000000cH

; 96   : 	}

  00067	8b c7		 mov	 eax, edi
  00069	5f		 pop	 edi
  0006a	5e		 pop	 esi
  0006b	5d		 pop	 ebp
  0006c	c2 04 00	 ret	 4
??0TiXmlString@@QAE@PBD@Z ENDP				; TiXmlString::TiXmlString
_TEXT	ENDS
; Function compile flags: /Ogtp
; File E:\Proyectos\JuegosOnlineproyectos\PB\pbblow\Piercing Blow Remake\i3Server\include\i3Base\tinystr.h
;	COMDAT ??0TiXmlString@@QAE@ABV0@@Z
_TEXT	SEGMENT
_copy$ = 8						; size = 4
??0TiXmlString@@QAE@ABV0@@Z PROC			; TiXmlString::TiXmlString, COMDAT
; _this$ = ecx

; 86   : 	{

  00000	55		 push	 ebp
  00001	8b ec		 mov	 ebp, esp
  00003	53		 push	 ebx

; 150  : 	size_type length () const { return rep_->size; }

  00004	8b 5d 08	 mov	 ebx, DWORD PTR _copy$[ebp]

; 86   : 	{

  00007	56		 push	 esi
  00008	8b f1		 mov	 esi, ecx
  0000a	57		 push	 edi
  0000b	c7 06 00 00 00
	00		 mov	 DWORD PTR [esi], 0

; 150  : 	size_type length () const { return rep_->size; }

  00011	8b 03		 mov	 eax, DWORD PTR [ebx]

; 87   : 		init(copy.length());

  00013	8b 38		 mov	 edi, DWORD PTR [eax]

; 235  : 		if (cap)

  00015	85 ff		 test	 edi, edi
  00017	74 30		 je	 SHORT $LN8@TiXmlStrin

; 236  : 		{
; 237  : 			// Lee: the original form:
; 238  : 			//	rep_ = static_cast<Rep*>(operator new(sizeof(Rep) + cap));
; 239  : 			// doesn't work in some cases of new being overloaded. Switching
; 240  : 			// to the normal allocation, although use an 'int' for systems
; 241  : 			// that are overly picky about structure alignment.
; 242  : 			const size_type bytesNeeded = sizeof(Rep) + cap;
; 243  : 			const size_type intsNeeded = ( bytesNeeded + sizeof(int) - 1 ) / sizeof( int ); 

  00019	8d 47 0f	 lea	 eax, DWORD PTR [edi+15]

; 244  : 			rep_ = reinterpret_cast<Rep*>( new int[ intsNeeded ] );

  0001c	b9 04 00 00 00	 mov	 ecx, 4
  00021	c1 e8 02	 shr	 eax, 2
  00024	f7 e1		 mul	 ecx
  00026	b9 ff ff ff ff	 mov	 ecx, -1
  0002b	0f 42 c1	 cmovb	 eax, ecx
  0002e	50		 push	 eax
  0002f	e8 00 00 00 00	 call	 ??_U@YAPAXI@Z		; operator new[]
  00034	89 06		 mov	 DWORD PTR [esi], eax
  00036	83 c4 04	 add	 esp, 4

; 245  : 
; 246  : 			rep_->str[ rep_->size = sz ] = '\0';

  00039	89 38		 mov	 DWORD PTR [eax], edi
  0003b	8b 06		 mov	 eax, DWORD PTR [esi]
  0003d	c6 44 38 08 00	 mov	 BYTE PTR [eax+edi+8], 0

; 247  : 			rep_->capacity = cap;

  00042	8b 06		 mov	 eax, DWORD PTR [esi]
  00044	89 78 04	 mov	 DWORD PTR [eax+4], edi

; 248  : 		}

  00047	eb 06		 jmp	 SHORT $LN9@TiXmlStrin
$LN8@TiXmlStrin:

; 249  : 		else
; 250  : 		{
; 251  : 			rep_ = &nullrep_;

  00049	c7 06 00 00 00
	00		 mov	 DWORD PTR [esi], OFFSET ?nullrep_@TiXmlString@@0URep@1@A ; TiXmlString::nullrep_
$LN9@TiXmlStrin:

; 150  : 	size_type length () const { return rep_->size; }

  0004f	8b 0e		 mov	 ecx, DWORD PTR [esi]

; 147  : 	const char * data () const { return rep_->str; }

  00051	8b 03		 mov	 eax, DWORD PTR [ebx]
  00053	83 c0 08	 add	 eax, 8

; 88   : 		memcpy(start(), copy.data(), length());

  00056	ff 31		 push	 DWORD PTR [ecx]
  00058	50		 push	 eax

; 224  : 	char* start() const { return rep_->str; }

  00059	8d 41 08	 lea	 eax, DWORD PTR [ecx+8]

; 88   : 		memcpy(start(), copy.data(), length());

  0005c	50		 push	 eax
  0005d	e8 00 00 00 00	 call	 _memcpy
  00062	83 c4 0c	 add	 esp, 12			; 0000000cH

; 89   : 	}

  00065	8b c6		 mov	 eax, esi
  00067	5f		 pop	 edi
  00068	5e		 pop	 esi
  00069	5b		 pop	 ebx
  0006a	5d		 pop	 ebp
  0006b	c2 04 00	 ret	 4
??0TiXmlString@@QAE@ABV0@@Z ENDP			; TiXmlString::TiXmlString
_TEXT	ENDS
; Function compile flags: /Ogtp
; File E:\Proyectos\JuegosOnlineproyectos\PB\pbblow\Piercing Blow Remake\i3Server\include\i3Base\tinystr.h
;	COMDAT ??0TiXmlString@@QAE@XZ
_TEXT	SEGMENT
??0TiXmlString@@QAE@XZ PROC				; TiXmlString::TiXmlString, COMDAT
; _this$ = ecx

; 80   : 	TiXmlString () : rep_(&nullrep_)

  00000	c7 01 00 00 00
	00		 mov	 DWORD PTR [ecx], OFFSET ?nullrep_@TiXmlString@@0URep@1@A ; TiXmlString::nullrep_

; 82   : 	}

  00006	8b c1		 mov	 eax, ecx
  00008	c3		 ret	 0
??0TiXmlString@@QAE@XZ ENDP				; TiXmlString::TiXmlString
_TEXT	ENDS
; Function compile flags: /Ogtp
; File E:\Proyectos\JuegosOnlineproyectos\PB\pbblow\Piercing Blow Remake\i3Server\src\i3Base\i3String.cpp
;	COMDAT ??_Ei3FileStream@@UAEPAXI@Z
_TEXT	SEGMENT
__$EHRec$ = -12						; size = 12
___flags$ = 8						; size = 4
??_Ei3FileStream@@UAEPAXI@Z PROC			; i3FileStream::`vector deleting destructor', COMDAT
; _this$ = ecx
  00000	55		 push	 ebp
  00001	8b ec		 mov	 ebp, esp
  00003	6a ff		 push	 -1
  00005	68 00 00 00 00	 push	 __ehhandler$??_Ei3FileStream@@UAEPAXI@Z
  0000a	64 a1 00 00 00
	00		 mov	 eax, DWORD PTR fs:0
  00010	50		 push	 eax
  00011	53		 push	 ebx
  00012	56		 push	 esi
  00013	57		 push	 edi
  00014	a1 00 00 00 00	 mov	 eax, DWORD PTR ___security_cookie
  00019	33 c5		 xor	 eax, ebp
  0001b	50		 push	 eax
  0001c	8d 45 f4	 lea	 eax, DWORD PTR __$EHRec$[ebp]
  0001f	64 a3 00 00 00
	00		 mov	 DWORD PTR fs:0, eax
  00025	8b f1		 mov	 esi, ecx
  00027	8b 5d 08	 mov	 ebx, DWORD PTR ___flags$[ebp]
  0002a	8b fb		 mov	 edi, ebx
  0002c	83 e7 01	 and	 edi, 1
  0002f	f6 c3 02	 test	 bl, 2
  00032	74 43		 je	 SHORT $LN2@vector
  00034	68 00 00 00 00	 push	 OFFSET ??1i3FileStream@@UAE@XZ ; i3FileStream::~i3FileStream
  00039	ff 76 fc	 push	 DWORD PTR [esi-4]
  0003c	8d 5e fc	 lea	 ebx, DWORD PTR [esi-4]
  0003f	68 38 01 00 00	 push	 312			; 00000138H
  00044	56		 push	 esi
  00045	e8 00 00 00 00	 call	 ??_M@YGXPAXIIP6EX0@Z@Z
  0004a	85 ff		 test	 edi, edi
  0004c	74 13		 je	 SHORT $LN3@vector
  0004e	69 0b 38 01 00
	00		 imul	 ecx, DWORD PTR [ebx], 312
  00054	83 c1 04	 add	 ecx, 4
  00057	51		 push	 ecx
  00058	53		 push	 ebx
  00059	e8 00 00 00 00	 call	 ??_V@YAXPAXI@Z		; operator delete[]
  0005e	83 c4 08	 add	 esp, 8
$LN3@vector:
  00061	8b c3		 mov	 eax, ebx
  00063	8b 4d f4	 mov	 ecx, DWORD PTR __$EHRec$[ebp]
  00066	64 89 0d 00 00
	00 00		 mov	 DWORD PTR fs:0, ecx
  0006d	59		 pop	 ecx
  0006e	5f		 pop	 edi
  0006f	5e		 pop	 esi
  00070	5b		 pop	 ebx
  00071	8b e5		 mov	 esp, ebp
  00073	5d		 pop	 ebp
  00074	c2 04 00	 ret	 4
$LN2@vector:
  00077	e8 00 00 00 00	 call	 ??1i3FileStream@@UAE@XZ	; i3FileStream::~i3FileStream
  0007c	85 ff		 test	 edi, edi
  0007e	74 1e		 je	 SHORT $LN6@vector
  00080	f6 c3 04	 test	 bl, 4
  00083	75 0b		 jne	 SHORT $LN5@vector
  00085	56		 push	 esi
  00086	e8 00 00 00 00	 call	 ??3i3ElementBase@@SAXPAX@Z ; i3ElementBase::operator delete
  0008b	83 c4 04	 add	 esp, 4
  0008e	eb 0e		 jmp	 SHORT $LN6@vector
$LN5@vector:

  00090	68 38 01 00 00	 push	 312			; 00000138H
  00095	56		 push	 esi
  00096	e8 00 00 00 00	 call	 ??3@YAXPAXI@Z		; operator delete
  0009b	83 c4 08	 add	 esp, 8
$LN6@vector:
  0009e	8b c6		 mov	 eax, esi
  000a0	8b 4d f4	 mov	 ecx, DWORD PTR __$EHRec$[ebp]
  000a3	64 89 0d 00 00
	00 00		 mov	 DWORD PTR fs:0, ecx
  000aa	59		 pop	 ecx
  000ab	5f		 pop	 edi
  000ac	5e		 pop	 esi
  000ad	5b		 pop	 ebx
  000ae	8b e5		 mov	 esp, ebp
  000b0	5d		 pop	 ebp
  000b1	c2 04 00	 ret	 4
  000b4	cc		 int	 3
  000b5	cc		 int	 3
  000b6	cc		 int	 3
  000b7	cc		 int	 3
  000b8	cc		 int	 3
_TEXT	ENDS
;	COMDAT text$x
text$x	SEGMENT
__ehhandler$??_Ei3FileStream@@UAEPAXI@Z:
  00000	90		 npad	 1
  00001	90		 npad	 1
  00002	8b 54 24 08	 mov	 edx, DWORD PTR [esp+8]
  00006	8d 42 0c	 lea	 eax, DWORD PTR [edx+12]
  00009	8b 4a f0	 mov	 ecx, DWORD PTR [edx-16]
  0000c	33 c8		 xor	 ecx, eax
  0000e	e8 00 00 00 00	 call	 @__security_check_cookie@4
  00013	b8 00 00 00 00	 mov	 eax, OFFSET __ehfuncinfo$??_Ei3FileStream@@UAEPAXI@Z
  00018	e9 00 00 00 00	 jmp	 ___CxxFrameHandler3
text$x	ENDS
??_Ei3FileStream@@UAEPAXI@Z ENDP			; i3FileStream::`vector deleting destructor'
; Function compile flags: /Ogtp
; File E:\Proyectos\JuegosOnlineproyectos\PB\pbblow\Piercing Blow Remake\i3Server\src\i3Base\i3String.cpp
;	COMDAT ??_Gi3FileStream@@UAEPAXI@Z
_TEXT	SEGMENT
___flags$ = 8						; size = 4
??_Gi3FileStream@@UAEPAXI@Z PROC			; i3FileStream::`scalar deleting destructor', COMDAT
; _this$ = ecx
  00000	55		 push	 ebp
  00001	8b ec		 mov	 ebp, esp
  00003	56		 push	 esi
  00004	8b f1		 mov	 esi, ecx
  00006	e8 00 00 00 00	 call	 ??1i3FileStream@@UAE@XZ	; i3FileStream::~i3FileStream
  0000b	8b 45 08	 mov	 eax, DWORD PTR ___flags$[ebp]
  0000e	a8 01		 test	 al, 1
  00010	74 22		 je	 SHORT $LN10@scalar
  00012	a8 04		 test	 al, 4
  00014	75 10		 jne	 SHORT $LN3@scalar
  00016	56		 push	 esi
  00017	e8 00 00 00 00	 call	 ??3i3ElementBase@@SAXPAX@Z ; i3ElementBase::operator delete
  0001c	83 c4 04	 add	 esp, 4
  0001f	8b c6		 mov	 eax, esi
  00021	5e		 pop	 esi
  00022	5d		 pop	 ebp
  00023	c2 04 00	 ret	 4
$LN3@scalar:

  00026	68 38 01 00 00	 push	 312			; 00000138H
  0002b	56		 push	 esi
  0002c	e8 00 00 00 00	 call	 ??3@YAXPAXI@Z		; operator delete
  00031	83 c4 08	 add	 esp, 8
$LN10@scalar:
  00034	8b c6		 mov	 eax, esi
  00036	5e		 pop	 esi
  00037	5d		 pop	 ebp
  00038	c2 04 00	 ret	 4
??_Gi3FileStream@@UAEPAXI@Z ENDP			; i3FileStream::`scalar deleting destructor'
_TEXT	ENDS
; Function compile flags: /Ogtp
;	COMDAT ??4i3FileStream@@QAEAAV0@ABV0@@Z
_TEXT	SEGMENT
___that$ = 8						; size = 4
??4i3FileStream@@QAEAAV0@ABV0@@Z PROC			; i3FileStream::operator=, COMDAT
; _this$ = ecx
  00000	55		 push	 ebp
  00001	8b ec		 mov	 ebp, esp
  00003	8b d1		 mov	 edx, ecx
  00005	56		 push	 esi
  00006	8b 75 08	 mov	 esi, DWORD PTR ___that$[ebp]
  00009	8b 46 04	 mov	 eax, DWORD PTR [esi+4]
  0000c	89 42 04	 mov	 DWORD PTR [edx+4], eax
  0000f	8b 46 08	 mov	 eax, DWORD PTR [esi+8]
  00012	89 42 08	 mov	 DWORD PTR [edx+8], eax
  00015	8b 46 0c	 mov	 eax, DWORD PTR [esi+12]
  00018	89 42 0c	 mov	 DWORD PTR [edx+12], eax
  0001b	8b 46 10	 mov	 eax, DWORD PTR [esi+16]
  0001e	89 42 10	 mov	 DWORD PTR [edx+16], eax
  00021	8b 46 14	 mov	 eax, DWORD PTR [esi+20]
  00024	89 42 14	 mov	 DWORD PTR [edx+20], eax
  00027	8b 46 18	 mov	 eax, DWORD PTR [esi+24]
  0002a	89 42 18	 mov	 DWORD PTR [edx+24], eax
  0002d	8b 46 1c	 mov	 eax, DWORD PTR [esi+28]
  00030	89 42 1c	 mov	 DWORD PTR [edx+28], eax
  00033	8b 46 20	 mov	 eax, DWORD PTR [esi+32]
  00036	89 42 20	 mov	 DWORD PTR [edx+32], eax
  00039	8b 46 24	 mov	 eax, DWORD PTR [esi+36]
  0003c	89 42 24	 mov	 DWORD PTR [edx+36], eax
  0003f	8b 46 28	 mov	 eax, DWORD PTR [esi+40]
  00042	89 42 28	 mov	 DWORD PTR [edx+40], eax
  00045	8b 46 2c	 mov	 eax, DWORD PTR [esi+44]
  00048	89 42 2c	 mov	 DWORD PTR [edx+44], eax
  0004b	8b 46 30	 mov	 eax, DWORD PTR [esi+48]
  0004e	89 42 30	 mov	 DWORD PTR [edx+48], eax
  00051	33 c0		 xor	 eax, eax
$LL4@operator:
  00053	8a 4c 06 34	 mov	 cl, BYTE PTR [esi+eax+52]
  00057	88 4c 02 34	 mov	 BYTE PTR [edx+eax+52], cl
  0005b	40		 inc	 eax
  0005c	3d 04 01 00 00	 cmp	 eax, 260		; 00000104H
  00061	72 f0		 jb	 SHORT $LL4@operator
  00063	5e		 pop	 esi
  00064	8b c2		 mov	 eax, edx
  00066	5d		 pop	 ebp
  00067	c2 04 00	 ret	 4
??4i3FileStream@@QAEAAV0@ABV0@@Z ENDP			; i3FileStream::operator=
_TEXT	ENDS
; Function compile flags: /Ogtp
;	COMDAT ??0i3FileStream@@QAE@ABV0@@Z
_TEXT	SEGMENT
___that$ = 8						; size = 4
??0i3FileStream@@QAE@ABV0@@Z PROC			; i3FileStream::i3FileStream, COMDAT
; _this$ = ecx
  00000	55		 push	 ebp
  00001	8b ec		 mov	 ebp, esp
  00003	8b d1		 mov	 edx, ecx
  00005	b9 41 00 00 00	 mov	 ecx, 65			; 00000041H
  0000a	56		 push	 esi
  0000b	8b 75 08	 mov	 esi, DWORD PTR ___that$[ebp]
  0000e	57		 push	 edi
  0000f	c7 02 00 00 00
	00		 mov	 DWORD PTR [edx], OFFSET ??_7i3ElementBase@@6B@
  00015	8d 7a 34	 lea	 edi, DWORD PTR [edx+52]
  00018	8b 46 04	 mov	 eax, DWORD PTR [esi+4]
  0001b	89 42 04	 mov	 DWORD PTR [edx+4], eax
  0001e	8b 46 08	 mov	 eax, DWORD PTR [esi+8]
  00021	89 42 08	 mov	 DWORD PTR [edx+8], eax
  00024	8b 46 0c	 mov	 eax, DWORD PTR [esi+12]
  00027	89 42 0c	 mov	 DWORD PTR [edx+12], eax
  0002a	c7 02 00 00 00
	00		 mov	 DWORD PTR [edx], OFFSET ??_7i3Stream@@6B@
  00030	8b 46 10	 mov	 eax, DWORD PTR [esi+16]
  00033	89 42 10	 mov	 DWORD PTR [edx+16], eax
  00036	8b 46 14	 mov	 eax, DWORD PTR [esi+20]
  00039	89 42 14	 mov	 DWORD PTR [edx+20], eax
  0003c	8b 46 18	 mov	 eax, DWORD PTR [esi+24]
  0003f	89 42 18	 mov	 DWORD PTR [edx+24], eax
  00042	8b 46 1c	 mov	 eax, DWORD PTR [esi+28]
  00045	89 42 1c	 mov	 DWORD PTR [edx+28], eax
  00048	8b 46 20	 mov	 eax, DWORD PTR [esi+32]
  0004b	89 42 20	 mov	 DWORD PTR [edx+32], eax
  0004e	c7 02 00 00 00
	00		 mov	 DWORD PTR [edx], OFFSET ??_7i3FileStream@@6B@
  00054	8b 46 24	 mov	 eax, DWORD PTR [esi+36]
  00057	89 42 24	 mov	 DWORD PTR [edx+36], eax
  0005a	8b 46 28	 mov	 eax, DWORD PTR [esi+40]
  0005d	89 42 28	 mov	 DWORD PTR [edx+40], eax
  00060	8b 46 2c	 mov	 eax, DWORD PTR [esi+44]
  00063	89 42 2c	 mov	 DWORD PTR [edx+44], eax
  00066	8b 46 30	 mov	 eax, DWORD PTR [esi+48]
  00069	83 c6 34	 add	 esi, 52			; 00000034H
  0006c	89 42 30	 mov	 DWORD PTR [edx+48], eax
  0006f	8b c2		 mov	 eax, edx
  00071	f3 a5		 rep movsd
  00073	5f		 pop	 edi
  00074	5e		 pop	 esi
  00075	5d		 pop	 ebp
  00076	c2 04 00	 ret	 4
??0i3FileStream@@QAE@ABV0@@Z ENDP			; i3FileStream::i3FileStream
_TEXT	ENDS
; Function compile flags: /Ogtp
; File E:\Proyectos\JuegosOnlineproyectos\PB\pbblow\Piercing Blow Remake\i3Server\include\i3Base\i3StreamFile.h
;	COMDAT ?IsCaseSensitive@i3FileStream@@SAHXZ
_TEXT	SEGMENT
?IsCaseSensitive@i3FileStream@@SAHXZ PROC		; i3FileStream::IsCaseSensitive, COMDAT

; 45   : 	static BOOL	IsCaseSensitive()						{ return m_bCaseSensitive; }

  00000	a1 00 00 00 00	 mov	 eax, DWORD PTR ?m_bCaseSensitive@i3FileStream@@1HA ; i3FileStream::m_bCaseSensitive
  00005	c3		 ret	 0
?IsCaseSensitive@i3FileStream@@SAHXZ ENDP		; i3FileStream::IsCaseSensitive
_TEXT	ENDS
; Function compile flags: /Ogtp
; File E:\Proyectos\JuegosOnlineproyectos\PB\pbblow\Piercing Blow Remake\i3Server\include\i3Base\i3StreamFile.h
;	COMDAT ?SetCaseSensitive@i3FileStream@@SAXH@Z
_TEXT	SEGMENT
_bTrue$ = 8						; size = 4
?SetCaseSensitive@i3FileStream@@SAXH@Z PROC		; i3FileStream::SetCaseSensitive, COMDAT

; 44   : 	static void	SetCaseSensitive( BOOL bTrue = TRUE )	{ m_bCaseSensitive = bTrue; }

  00000	55		 push	 ebp
  00001	8b ec		 mov	 ebp, esp
  00003	8b 45 08	 mov	 eax, DWORD PTR _bTrue$[ebp]
  00006	a3 00 00 00 00	 mov	 DWORD PTR ?m_bCaseSensitive@i3FileStream@@1HA, eax ; i3FileStream::m_bCaseSensitive
  0000b	5d		 pop	 ebp
  0000c	c3		 ret	 0
?SetCaseSensitive@i3FileStream@@SAXH@Z ENDP		; i3FileStream::SetCaseSensitive
_TEXT	ENDS
; Function compile flags: /Ogtp
; File E:\Proyectos\JuegosOnlineproyectos\PB\pbblow\Piercing Blow Remake\i3Server\include\i3Base\i3StreamFile.h
;	COMDAT ?GetFileName@i3FileStream@@QAEPADXZ
_TEXT	SEGMENT
?GetFileName@i3FileStream@@QAEPADXZ PROC		; i3FileStream::GetFileName, COMDAT
; _this$ = ecx

; 41   : 	char *  GetFileName(void)			{ return FileName; }

  00000	8d 41 34	 lea	 eax, DWORD PTR [ecx+52]
  00003	c3		 ret	 0
?GetFileName@i3FileStream@@QAEPADXZ ENDP		; i3FileStream::GetFileName
_TEXT	ENDS
; Function compile flags: /Ogtp
; File E:\Proyectos\JuegosOnlineproyectos\PB\pbblow\Piercing Blow Remake\i3Server\include\i3Base\i3StreamFile.h
;	COMDAT ?GetHandle@i3FileStream@@UAEPAXXZ
_TEXT	SEGMENT
?GetHandle@i3FileStream@@UAEPAXXZ PROC			; i3FileStream::GetHandle, COMDAT
; _this$ = ecx

; 39   : 	void * GetHandle(void)				{ return (void *)m_pHandle; }

  00000	8b 41 20	 mov	 eax, DWORD PTR [ecx+32]
  00003	c3		 ret	 0
?GetHandle@i3FileStream@@UAEPAXXZ ENDP			; i3FileStream::GetHandle
_TEXT	ENDS
; Function compile flags: /Ogtp
; File E:\Proyectos\JuegosOnlineproyectos\PB\pbblow\Piercing Blow Remake\i3Server\include\i3Base\i3StreamFile.h
;	COMDAT ?GetClassMeta@i3FileStream@@SAPAVi3ClassMeta@@XZ
_TEXT	SEGMENT
?GetClassMeta@i3FileStream@@SAPAVi3ClassMeta@@XZ PROC	; i3FileStream::GetClassMeta, COMDAT

; 20   : 	I3_CLASS_DEFINE( i3FileStream);

  00000	a1 00 00 00 00	 mov	 eax, DWORD PTR ?s_pClassMetai3FileStream@i3FileStream@@2PAVi3ClassMeta@@A ; i3FileStream::s_pClassMetai3FileStream
  00005	c3		 ret	 0
?GetClassMeta@i3FileStream@@SAPAVi3ClassMeta@@XZ ENDP	; i3FileStream::GetClassMeta
_TEXT	ENDS
; Function compile flags: /Ogtp
; File E:\Proyectos\JuegosOnlineproyectos\PB\pbblow\Piercing Blow Remake\i3Server\src\i3Base\i3String.cpp
;	COMDAT ??_Ei3Stream@@UAEPAXI@Z
_TEXT	SEGMENT
__$EHRec$ = -12						; size = 12
___flags$ = 8						; size = 4
??_Ei3Stream@@UAEPAXI@Z PROC				; i3Stream::`vector deleting destructor', COMDAT
; _this$ = ecx
  00000	55		 push	 ebp
  00001	8b ec		 mov	 ebp, esp
  00003	6a ff		 push	 -1
  00005	68 00 00 00 00	 push	 __ehhandler$??_Ei3Stream@@UAEPAXI@Z
  0000a	64 a1 00 00 00
	00		 mov	 eax, DWORD PTR fs:0
  00010	50		 push	 eax
  00011	53		 push	 ebx
  00012	56		 push	 esi
  00013	57		 push	 edi
  00014	a1 00 00 00 00	 mov	 eax, DWORD PTR ___security_cookie
  00019	33 c5		 xor	 eax, ebp
  0001b	50		 push	 eax
  0001c	8d 45 f4	 lea	 eax, DWORD PTR __$EHRec$[ebp]
  0001f	64 a3 00 00 00
	00		 mov	 DWORD PTR fs:0, eax
  00025	8b f1		 mov	 esi, ecx
  00027	8b 5d 08	 mov	 ebx, DWORD PTR ___flags$[ebp]
  0002a	8b fb		 mov	 edi, ebx
  0002c	83 e7 01	 and	 edi, 1
  0002f	f6 c3 02	 test	 bl, 2
  00032	74 43		 je	 SHORT $LN2@vector
  00034	68 00 00 00 00	 push	 OFFSET ??1i3Stream@@UAE@XZ ; i3Stream::~i3Stream
  00039	ff 76 fc	 push	 DWORD PTR [esi-4]
  0003c	8d 5e fc	 lea	 ebx, DWORD PTR [esi-4]
  0003f	6a 24		 push	 36			; 00000024H
  00041	56		 push	 esi
  00042	e8 00 00 00 00	 call	 ??_M@YGXPAXIIP6EX0@Z@Z
  00047	85 ff		 test	 edi, edi
  00049	74 16		 je	 SHORT $LN3@vector
  0004b	8b 0b		 mov	 ecx, DWORD PTR [ebx]
  0004d	8d 0c c9	 lea	 ecx, DWORD PTR [ecx+ecx*8]
  00050	8d 0c 8d 04 00
	00 00		 lea	 ecx, DWORD PTR [ecx*4+4]
  00057	51		 push	 ecx
  00058	53		 push	 ebx
  00059	e8 00 00 00 00	 call	 ??_V@YAXPAXI@Z		; operator delete[]
  0005e	83 c4 08	 add	 esp, 8
$LN3@vector:
  00061	8b c3		 mov	 eax, ebx
  00063	8b 4d f4	 mov	 ecx, DWORD PTR __$EHRec$[ebp]
  00066	64 89 0d 00 00
	00 00		 mov	 DWORD PTR fs:0, ecx
  0006d	59		 pop	 ecx
  0006e	5f		 pop	 edi
  0006f	5e		 pop	 esi
  00070	5b		 pop	 ebx
  00071	8b e5		 mov	 esp, ebp
  00073	5d		 pop	 ebp
  00074	c2 04 00	 ret	 4
$LN2@vector:
  00077	e8 00 00 00 00	 call	 ??1i3Stream@@UAE@XZ	; i3Stream::~i3Stream
  0007c	85 ff		 test	 edi, edi
  0007e	74 1b		 je	 SHORT $LN6@vector
  00080	f6 c3 04	 test	 bl, 4
  00083	75 0b		 jne	 SHORT $LN5@vector
  00085	56		 push	 esi
  00086	e8 00 00 00 00	 call	 ??3i3ElementBase@@SAXPAX@Z ; i3ElementBase::operator delete
  0008b	83 c4 04	 add	 esp, 4
  0008e	eb 0b		 jmp	 SHORT $LN6@vector
$LN5@vector:

  00090	6a 24		 push	 36			; 00000024H
  00092	56		 push	 esi
  00093	e8 00 00 00 00	 call	 ??3@YAXPAXI@Z		; operator delete
  00098	83 c4 08	 add	 esp, 8
$LN6@vector:
  0009b	8b c6		 mov	 eax, esi
  0009d	8b 4d f4	 mov	 ecx, DWORD PTR __$EHRec$[ebp]
  000a0	64 89 0d 00 00
	00 00		 mov	 DWORD PTR fs:0, ecx
  000a7	59		 pop	 ecx
  000a8	5f		 pop	 edi
  000a9	5e		 pop	 esi
  000aa	5b		 pop	 ebx
  000ab	8b e5		 mov	 esp, ebp
  000ad	5d		 pop	 ebp
  000ae	c2 04 00	 ret	 4
  000b1	cc		 int	 3
  000b2	cc		 int	 3
  000b3	cc		 int	 3
  000b4	cc		 int	 3
  000b5	cc		 int	 3
_TEXT	ENDS
;	COMDAT text$x
text$x	SEGMENT
__ehhandler$??_Ei3Stream@@UAEPAXI@Z:
  00000	90		 npad	 1
  00001	90		 npad	 1
  00002	8b 54 24 08	 mov	 edx, DWORD PTR [esp+8]
  00006	8d 42 0c	 lea	 eax, DWORD PTR [edx+12]
  00009	8b 4a f0	 mov	 ecx, DWORD PTR [edx-16]
  0000c	33 c8		 xor	 ecx, eax
  0000e	e8 00 00 00 00	 call	 @__security_check_cookie@4
  00013	b8 00 00 00 00	 mov	 eax, OFFSET __ehfuncinfo$??_Ei3Stream@@UAEPAXI@Z
  00018	e9 00 00 00 00	 jmp	 ___CxxFrameHandler3
text$x	ENDS
??_Ei3Stream@@UAEPAXI@Z ENDP				; i3Stream::`vector deleting destructor'
; Function compile flags: /Ogtp
; File E:\Proyectos\JuegosOnlineproyectos\PB\pbblow\Piercing Blow Remake\i3Server\src\i3Base\i3String.cpp
;	COMDAT ??_Gi3Stream@@UAEPAXI@Z
_TEXT	SEGMENT
___flags$ = 8						; size = 4
??_Gi3Stream@@UAEPAXI@Z PROC				; i3Stream::`scalar deleting destructor', COMDAT
; _this$ = ecx
  00000	55		 push	 ebp
  00001	8b ec		 mov	 ebp, esp
  00003	56		 push	 esi
  00004	8b f1		 mov	 esi, ecx
  00006	e8 00 00 00 00	 call	 ??1i3Stream@@UAE@XZ	; i3Stream::~i3Stream
  0000b	8b 45 08	 mov	 eax, DWORD PTR ___flags$[ebp]
  0000e	a8 01		 test	 al, 1
  00010	74 1f		 je	 SHORT $LN10@scalar
  00012	a8 04		 test	 al, 4
  00014	75 10		 jne	 SHORT $LN3@scalar
  00016	56		 push	 esi
  00017	e8 00 00 00 00	 call	 ??3i3ElementBase@@SAXPAX@Z ; i3ElementBase::operator delete
  0001c	83 c4 04	 add	 esp, 4
  0001f	8b c6		 mov	 eax, esi
  00021	5e		 pop	 esi
  00022	5d		 pop	 ebp
  00023	c2 04 00	 ret	 4
$LN3@scalar:

  00026	6a 24		 push	 36			; 00000024H
  00028	56		 push	 esi
  00029	e8 00 00 00 00	 call	 ??3@YAXPAXI@Z		; operator delete
  0002e	83 c4 08	 add	 esp, 8
$LN10@scalar:
  00031	8b c6		 mov	 eax, esi
  00033	5e		 pop	 esi
  00034	5d		 pop	 ebp
  00035	c2 04 00	 ret	 4
??_Gi3Stream@@UAEPAXI@Z ENDP				; i3Stream::`scalar deleting destructor'
_TEXT	ENDS
; Function compile flags: /Ogtp
;	COMDAT ??4i3Stream@@QAEAAV0@ABV0@@Z
_TEXT	SEGMENT
___that$ = 8						; size = 4
??4i3Stream@@QAEAAV0@ABV0@@Z PROC			; i3Stream::operator=, COMDAT
; _this$ = ecx
  00000	55		 push	 ebp
  00001	8b ec		 mov	 ebp, esp
  00003	8b 55 08	 mov	 edx, DWORD PTR ___that$[ebp]
  00006	8b 42 04	 mov	 eax, DWORD PTR [edx+4]
  00009	89 41 04	 mov	 DWORD PTR [ecx+4], eax
  0000c	8b 42 08	 mov	 eax, DWORD PTR [edx+8]
  0000f	89 41 08	 mov	 DWORD PTR [ecx+8], eax
  00012	8b 42 0c	 mov	 eax, DWORD PTR [edx+12]
  00015	89 41 0c	 mov	 DWORD PTR [ecx+12], eax
  00018	8b 42 10	 mov	 eax, DWORD PTR [edx+16]
  0001b	89 41 10	 mov	 DWORD PTR [ecx+16], eax
  0001e	8b 42 14	 mov	 eax, DWORD PTR [edx+20]
  00021	89 41 14	 mov	 DWORD PTR [ecx+20], eax
  00024	8b 42 18	 mov	 eax, DWORD PTR [edx+24]
  00027	89 41 18	 mov	 DWORD PTR [ecx+24], eax
  0002a	8b 42 1c	 mov	 eax, DWORD PTR [edx+28]
  0002d	89 41 1c	 mov	 DWORD PTR [ecx+28], eax
  00030	8b 42 20	 mov	 eax, DWORD PTR [edx+32]
  00033	89 41 20	 mov	 DWORD PTR [ecx+32], eax
  00036	8b c1		 mov	 eax, ecx
  00038	5d		 pop	 ebp
  00039	c2 04 00	 ret	 4
??4i3Stream@@QAEAAV0@ABV0@@Z ENDP			; i3Stream::operator=
_TEXT	ENDS
; Function compile flags: /Ogtp
;	COMDAT ??0i3Stream@@QAE@ABV0@@Z
_TEXT	SEGMENT
___that$ = 8						; size = 4
??0i3Stream@@QAE@ABV0@@Z PROC				; i3Stream::i3Stream, COMDAT
; _this$ = ecx
  00000	55		 push	 ebp
  00001	8b ec		 mov	 ebp, esp
  00003	8b 55 08	 mov	 edx, DWORD PTR ___that$[ebp]
  00006	c7 01 00 00 00
	00		 mov	 DWORD PTR [ecx], OFFSET ??_7i3ElementBase@@6B@
  0000c	8b 42 04	 mov	 eax, DWORD PTR [edx+4]
  0000f	89 41 04	 mov	 DWORD PTR [ecx+4], eax
  00012	8b 42 08	 mov	 eax, DWORD PTR [edx+8]
  00015	89 41 08	 mov	 DWORD PTR [ecx+8], eax
  00018	8b 42 0c	 mov	 eax, DWORD PTR [edx+12]
  0001b	89 41 0c	 mov	 DWORD PTR [ecx+12], eax
  0001e	c7 01 00 00 00
	00		 mov	 DWORD PTR [ecx], OFFSET ??_7i3Stream@@6B@
  00024	8b 42 10	 mov	 eax, DWORD PTR [edx+16]
  00027	89 41 10	 mov	 DWORD PTR [ecx+16], eax
  0002a	8b 42 14	 mov	 eax, DWORD PTR [edx+20]
  0002d	89 41 14	 mov	 DWORD PTR [ecx+20], eax
  00030	8b 42 18	 mov	 eax, DWORD PTR [edx+24]
  00033	89 41 18	 mov	 DWORD PTR [ecx+24], eax
  00036	8b 42 1c	 mov	 eax, DWORD PTR [edx+28]
  00039	89 41 1c	 mov	 DWORD PTR [ecx+28], eax
  0003c	8b 42 20	 mov	 eax, DWORD PTR [edx+32]
  0003f	89 41 20	 mov	 DWORD PTR [ecx+32], eax
  00042	8b c1		 mov	 eax, ecx
  00044	5d		 pop	 ebp
  00045	c2 04 00	 ret	 4
??0i3Stream@@QAE@ABV0@@Z ENDP				; i3Stream::i3Stream
_TEXT	ENDS
; Function compile flags: /Ogtp
; File E:\Proyectos\JuegosOnlineproyectos\PB\pbblow\Piercing Blow Remake\i3Server\include\i3Base\i3Stream.h
;	COMDAT ?GetRecordSize@i3Stream@@QAEIXZ
_TEXT	SEGMENT
?GetRecordSize@i3Stream@@QAEIXZ PROC			; i3Stream::GetRecordSize, COMDAT
; _this$ = ecx

; 58   : 	UINT32	GetRecordSize(void)							{ return m_RecordSize; }

  00000	8b 41 14	 mov	 eax, DWORD PTR [ecx+20]
  00003	c3		 ret	 0
?GetRecordSize@i3Stream@@QAEIXZ ENDP			; i3Stream::GetRecordSize
_TEXT	ENDS
; Function compile flags: /Ogtp
; File E:\Proyectos\JuegosOnlineproyectos\PB\pbblow\Piercing Blow Remake\i3Server\include\i3Base\i3Stream.h
;	COMDAT ?BeginRecord@i3Stream@@QAEXXZ
_TEXT	SEGMENT
?BeginRecord@i3Stream@@QAEXXZ PROC			; i3Stream::BeginRecord, COMDAT
; _this$ = ecx

; 57   : 	void	BeginRecord(void)							{ m_RecordSize = 0; }

  00000	c7 41 14 00 00
	00 00		 mov	 DWORD PTR [ecx+20], 0
  00007	c3		 ret	 0
?BeginRecord@i3Stream@@QAEXXZ ENDP			; i3Stream::BeginRecord
_TEXT	ENDS
; Function compile flags: /Ogtp
; File E:\Proyectos\JuegosOnlineproyectos\PB\pbblow\Piercing Blow Remake\i3Server\include\i3Base\i3Stream.h
;	COMDAT ?GetHandle@i3Stream@@UAEPAXXZ
_TEXT	SEGMENT
?GetHandle@i3Stream@@UAEPAXXZ PROC			; i3Stream::GetHandle, COMDAT
; _this$ = ecx

; 55   : 	virtual void *			GetHandle(void)				{ return m_pHandle; }

  00000	8b 41 20	 mov	 eax, DWORD PTR [ecx+32]
  00003	c3		 ret	 0
?GetHandle@i3Stream@@UAEPAXXZ ENDP			; i3Stream::GetHandle
_TEXT	ENDS
; Function compile flags: /Ogtp
; File E:\Proyectos\JuegosOnlineproyectos\PB\pbblow\Piercing Blow Remake\i3Server\include\i3Base\i3Stream.h
;	COMDAT ?GetAccessMode@i3Stream@@QAEHXZ
_TEXT	SEGMENT
?GetAccessMode@i3Stream@@QAEHXZ PROC			; i3Stream::GetAccessMode, COMDAT
; _this$ = ecx

; 53   : 	INT32			GetAccessMode(void)					{ return m_Access; }

  00000	8b 41 1c	 mov	 eax, DWORD PTR [ecx+28]
  00003	c3		 ret	 0
?GetAccessMode@i3Stream@@QAEHXZ ENDP			; i3Stream::GetAccessMode
_TEXT	ENDS
; Function compile flags: /Ogtp
; File E:\Proyectos\JuegosOnlineproyectos\PB\pbblow\Piercing Blow Remake\i3Server\include\i3Base\i3Stream.h
;	COMDAT ?GetLastError@i3Stream@@QAE?AW4STREAMCODE@1@XZ
_TEXT	SEGMENT
?GetLastError@i3Stream@@QAE?AW4STREAMCODE@1@XZ PROC	; i3Stream::GetLastError, COMDAT
; _this$ = ecx

; 52   : 	STREAMCODE		GetLastError(void)					{ return m_LastCode; }

  00000	8b 41 18	 mov	 eax, DWORD PTR [ecx+24]
  00003	c3		 ret	 0
?GetLastError@i3Stream@@QAE?AW4STREAMCODE@1@XZ ENDP	; i3Stream::GetLastError
_TEXT	ENDS
; Function compile flags: /Ogtp
; File E:\Proyectos\JuegosOnlineproyectos\PB\pbblow\Piercing Blow Remake\i3Server\include\i3Base\i3Stream.h
;	COMDAT ?GetSize@i3Stream@@QAEIXZ
_TEXT	SEGMENT
?GetSize@i3Stream@@QAEIXZ PROC				; i3Stream::GetSize, COMDAT
; _this$ = ecx

; 51   : 	UINT32			GetSize(void)						{ return m_Size; }

  00000	8b 41 10	 mov	 eax, DWORD PTR [ecx+16]
  00003	c3		 ret	 0
?GetSize@i3Stream@@QAEIXZ ENDP				; i3Stream::GetSize
_TEXT	ENDS
; Function compile flags: /Ogtp
; File E:\Proyectos\JuegosOnlineproyectos\PB\pbblow\Piercing Blow Remake\i3Server\include\i3Base\i3Stream.h
;	COMDAT ?GetClassMeta@i3Stream@@SAPAVi3ClassMeta@@XZ
_TEXT	SEGMENT
?GetClassMeta@i3Stream@@SAPAVi3ClassMeta@@XZ PROC	; i3Stream::GetClassMeta, COMDAT

; 24   : 	I3_ABSTRACT_CLASS_DEFINE( i3Stream);

  00000	a1 00 00 00 00	 mov	 eax, DWORD PTR ?s_pClassMetai3Stream@i3Stream@@2PAVi3ClassMeta@@A ; i3Stream::s_pClassMetai3Stream
  00005	c3		 ret	 0
?GetClassMeta@i3Stream@@SAPAVi3ClassMeta@@XZ ENDP	; i3Stream::GetClassMeta
_TEXT	ENDS
; Function compile flags: /Ogtp
;	COMDAT ??_Ei3MemoryPool@@UAEPAXI@Z
_TEXT	SEGMENT
__$EHRec$ = -12						; size = 12
___flags$ = 8						; size = 4
??_Ei3MemoryPool@@UAEPAXI@Z PROC			; i3MemoryPool::`vector deleting destructor', COMDAT
; _this$ = ecx
  00000	55		 push	 ebp
  00001	8b ec		 mov	 ebp, esp
  00003	6a ff		 push	 -1
  00005	68 00 00 00 00	 push	 __ehhandler$??_Ei3MemoryPool@@UAEPAXI@Z
  0000a	64 a1 00 00 00
	00		 mov	 eax, DWORD PTR fs:0
  00010	50		 push	 eax
  00011	53		 push	 ebx
  00012	56		 push	 esi
  00013	57		 push	 edi
  00014	a1 00 00 00 00	 mov	 eax, DWORD PTR ___security_cookie
  00019	33 c5		 xor	 eax, ebp
  0001b	50		 push	 eax
  0001c	8d 45 f4	 lea	 eax, DWORD PTR __$EHRec$[ebp]
  0001f	64 a3 00 00 00
	00		 mov	 DWORD PTR fs:0, eax
  00025	8b f1		 mov	 esi, ecx
  00027	8b 45 08	 mov	 eax, DWORD PTR ___flags$[ebp]
  0002a	8b f8		 mov	 edi, eax
  0002c	83 e7 01	 and	 edi, 1
  0002f	a8 02		 test	 al, 2
  00031	74 40		 je	 SHORT $LN2@vector
  00033	68 00 00 00 00	 push	 OFFSET ??1i3MemoryPool@@UAE@XZ ; i3MemoryPool::~i3MemoryPool
  00038	ff 76 fc	 push	 DWORD PTR [esi-4]
  0003b	8d 5e fc	 lea	 ebx, DWORD PTR [esi-4]
  0003e	6a 04		 push	 4
  00040	56		 push	 esi
  00041	e8 00 00 00 00	 call	 ??_M@YGXPAXIIP6EX0@Z@Z
  00046	85 ff		 test	 edi, edi
  00048	74 13		 je	 SHORT $LN3@vector
  0004a	8b 0b		 mov	 ecx, DWORD PTR [ebx]
  0004c	8d 0c 8d 04 00
	00 00		 lea	 ecx, DWORD PTR [ecx*4+4]
  00053	51		 push	 ecx
  00054	53		 push	 ebx
  00055	e8 00 00 00 00	 call	 ??_V@YAXPAXI@Z		; operator delete[]
  0005a	83 c4 08	 add	 esp, 8
$LN3@vector:
  0005d	8b c3		 mov	 eax, ebx
  0005f	8b 4d f4	 mov	 ecx, DWORD PTR __$EHRec$[ebp]
  00062	64 89 0d 00 00
	00 00		 mov	 DWORD PTR fs:0, ecx
  00069	59		 pop	 ecx
  0006a	5f		 pop	 edi
  0006b	5e		 pop	 esi
  0006c	5b		 pop	 ebx
  0006d	8b e5		 mov	 esp, ebp
  0006f	5d		 pop	 ebp
  00070	c2 04 00	 ret	 4
$LN2@vector:
  00073	e8 00 00 00 00	 call	 ??1i3MemoryPool@@UAE@XZ	; i3MemoryPool::~i3MemoryPool
  00078	85 ff		 test	 edi, edi
  0007a	74 0b		 je	 SHORT $LN4@vector
  0007c	6a 04		 push	 4
  0007e	56		 push	 esi
  0007f	e8 00 00 00 00	 call	 ??3@YAXPAXI@Z		; operator delete
  00084	83 c4 08	 add	 esp, 8
$LN4@vector:
  00087	8b c6		 mov	 eax, esi
  00089	8b 4d f4	 mov	 ecx, DWORD PTR __$EHRec$[ebp]
  0008c	64 89 0d 00 00
	00 00		 mov	 DWORD PTR fs:0, ecx
  00093	59		 pop	 ecx
  00094	5f		 pop	 edi
  00095	5e		 pop	 esi
  00096	5b		 pop	 ebx
  00097	8b e5		 mov	 esp, ebp
  00099	5d		 pop	 ebp
  0009a	c2 04 00	 ret	 4
  0009d	cc		 int	 3
  0009e	cc		 int	 3
  0009f	cc		 int	 3
  000a0	cc		 int	 3
  000a1	cc		 int	 3
_TEXT	ENDS
;	COMDAT text$x
text$x	SEGMENT
__ehhandler$??_Ei3MemoryPool@@UAEPAXI@Z:
  00000	90		 npad	 1
  00001	90		 npad	 1
  00002	8b 54 24 08	 mov	 edx, DWORD PTR [esp+8]
  00006	8d 42 0c	 lea	 eax, DWORD PTR [edx+12]
  00009	8b 4a f0	 mov	 ecx, DWORD PTR [edx-16]
  0000c	33 c8		 xor	 ecx, eax
  0000e	e8 00 00 00 00	 call	 @__security_check_cookie@4
  00013	b8 00 00 00 00	 mov	 eax, OFFSET __ehfuncinfo$??_Ei3MemoryPool@@UAEPAXI@Z
  00018	e9 00 00 00 00	 jmp	 ___CxxFrameHandler3
text$x	ENDS
??_Ei3MemoryPool@@UAEPAXI@Z ENDP			; i3MemoryPool::`vector deleting destructor'
; Function compile flags: /Ogtp
;	COMDAT ??_Gi3MemoryPool@@UAEPAXI@Z
_TEXT	SEGMENT
___flags$ = 8						; size = 4
??_Gi3MemoryPool@@UAEPAXI@Z PROC			; i3MemoryPool::`scalar deleting destructor', COMDAT
; _this$ = ecx
  00000	55		 push	 ebp
  00001	8b ec		 mov	 ebp, esp
  00003	56		 push	 esi
  00004	8b f1		 mov	 esi, ecx
  00006	e8 00 00 00 00	 call	 ??1i3MemoryPool@@UAE@XZ	; i3MemoryPool::~i3MemoryPool
  0000b	f6 45 08 01	 test	 BYTE PTR ___flags$[ebp], 1
  0000f	74 0b		 je	 SHORT $LN5@scalar
  00011	6a 04		 push	 4
  00013	56		 push	 esi
  00014	e8 00 00 00 00	 call	 ??3@YAXPAXI@Z		; operator delete
  00019	83 c4 08	 add	 esp, 8
$LN5@scalar:
  0001c	8b c6		 mov	 eax, esi
  0001e	5e		 pop	 esi
  0001f	5d		 pop	 ebp
  00020	c2 04 00	 ret	 4
??_Gi3MemoryPool@@UAEPAXI@Z ENDP			; i3MemoryPool::`scalar deleting destructor'
_TEXT	ENDS
; Function compile flags: /Ogtp
;	COMDAT ??4i3MemoryPool@@QAEAAV0@ABV0@@Z
_TEXT	SEGMENT
___that$ = 8						; size = 4
??4i3MemoryPool@@QAEAAV0@ABV0@@Z PROC			; i3MemoryPool::operator=, COMDAT
; _this$ = ecx
  00000	8b c1		 mov	 eax, ecx
  00002	c2 04 00	 ret	 4
??4i3MemoryPool@@QAEAAV0@ABV0@@Z ENDP			; i3MemoryPool::operator=
_TEXT	ENDS
; Function compile flags: /Ogtp
;	COMDAT ??0i3MemoryPool@@QAE@ABV0@@Z
_TEXT	SEGMENT
___that$ = 8						; size = 4
??0i3MemoryPool@@QAE@ABV0@@Z PROC			; i3MemoryPool::i3MemoryPool, COMDAT
; _this$ = ecx
  00000	c7 01 00 00 00
	00		 mov	 DWORD PTR [ecx], OFFSET ??_7i3MemoryPool@@6B@
  00006	8b c1		 mov	 eax, ecx
  00008	c2 04 00	 ret	 4
??0i3MemoryPool@@QAE@ABV0@@Z ENDP			; i3MemoryPool::i3MemoryPool
_TEXT	ENDS
; Function compile flags: /Ogtp
; File E:\Proyectos\JuegosOnlineproyectos\PB\pbblow\Piercing Blow Remake\i3Server\src\i3Base\i3String.cpp
;	COMDAT ??_Ei3ElementBase@@UAEPAXI@Z
_TEXT	SEGMENT
__$EHRec$ = -12						; size = 12
___flags$ = 8						; size = 4
??_Ei3ElementBase@@UAEPAXI@Z PROC			; i3ElementBase::`vector deleting destructor', COMDAT
; _this$ = ecx
  00000	55		 push	 ebp
  00001	8b ec		 mov	 ebp, esp
  00003	6a ff		 push	 -1
  00005	68 00 00 00 00	 push	 __ehhandler$??_Ei3ElementBase@@UAEPAXI@Z
  0000a	64 a1 00 00 00
	00		 mov	 eax, DWORD PTR fs:0
  00010	50		 push	 eax
  00011	53		 push	 ebx
  00012	56		 push	 esi
  00013	57		 push	 edi
  00014	a1 00 00 00 00	 mov	 eax, DWORD PTR ___security_cookie
  00019	33 c5		 xor	 eax, ebp
  0001b	50		 push	 eax
  0001c	8d 45 f4	 lea	 eax, DWORD PTR __$EHRec$[ebp]
  0001f	64 a3 00 00 00
	00		 mov	 DWORD PTR fs:0, eax
  00025	8b f1		 mov	 esi, ecx
  00027	8b 5d 08	 mov	 ebx, DWORD PTR ___flags$[ebp]
  0002a	8b fb		 mov	 edi, ebx
  0002c	83 e7 01	 and	 edi, 1
  0002f	f6 c3 02	 test	 bl, 2
  00032	74 3f		 je	 SHORT $LN2@vector
  00034	68 00 00 00 00	 push	 OFFSET ??1i3ElementBase@@UAE@XZ ; i3ElementBase::~i3ElementBase
  00039	ff 76 fc	 push	 DWORD PTR [esi-4]
  0003c	8d 5e fc	 lea	 ebx, DWORD PTR [esi-4]
  0003f	6a 10		 push	 16			; 00000010H
  00041	56		 push	 esi
  00042	e8 00 00 00 00	 call	 ??_M@YGXPAXIIP6EX0@Z@Z
  00047	85 ff		 test	 edi, edi
  00049	74 12		 je	 SHORT $LN3@vector
  0004b	8b 0b		 mov	 ecx, DWORD PTR [ebx]
  0004d	c1 e1 04	 shl	 ecx, 4
  00050	83 c1 04	 add	 ecx, 4
  00053	51		 push	 ecx
  00054	53		 push	 ebx
  00055	e8 00 00 00 00	 call	 ??_V@YAXPAXI@Z		; operator delete[]
  0005a	83 c4 08	 add	 esp, 8
$LN3@vector:
  0005d	8b c3		 mov	 eax, ebx
  0005f	8b 4d f4	 mov	 ecx, DWORD PTR __$EHRec$[ebp]
  00062	64 89 0d 00 00
	00 00		 mov	 DWORD PTR fs:0, ecx
  00069	59		 pop	 ecx
  0006a	5f		 pop	 edi
  0006b	5e		 pop	 esi
  0006c	5b		 pop	 ebx
  0006d	8b e5		 mov	 esp, ebp
  0006f	5d		 pop	 ebp
  00070	c2 04 00	 ret	 4
$LN2@vector:
  00073	e8 00 00 00 00	 call	 ??1i3ElementBase@@UAE@XZ ; i3ElementBase::~i3ElementBase
  00078	85 ff		 test	 edi, edi
  0007a	74 1b		 je	 SHORT $LN6@vector
  0007c	f6 c3 04	 test	 bl, 4
  0007f	75 0b		 jne	 SHORT $LN5@vector
  00081	56		 push	 esi
  00082	e8 00 00 00 00	 call	 ??3i3ElementBase@@SAXPAX@Z ; i3ElementBase::operator delete
  00087	83 c4 04	 add	 esp, 4
  0008a	eb 0b		 jmp	 SHORT $LN6@vector
$LN5@vector:

  0008c	6a 10		 push	 16			; 00000010H
  0008e	56		 push	 esi
  0008f	e8 00 00 00 00	 call	 ??3@YAXPAXI@Z		; operator delete
  00094	83 c4 08	 add	 esp, 8
$LN6@vector:
  00097	8b c6		 mov	 eax, esi
  00099	8b 4d f4	 mov	 ecx, DWORD PTR __$EHRec$[ebp]
  0009c	64 89 0d 00 00
	00 00		 mov	 DWORD PTR fs:0, ecx
  000a3	59		 pop	 ecx
  000a4	5f		 pop	 edi
  000a5	5e		 pop	 esi
  000a6	5b		 pop	 ebx
  000a7	8b e5		 mov	 esp, ebp
  000a9	5d		 pop	 ebp
  000aa	c2 04 00	 ret	 4
  000ad	cc		 int	 3
  000ae	cc		 int	 3
  000af	cc		 int	 3
  000b0	cc		 int	 3
  000b1	cc		 int	 3
_TEXT	ENDS
;	COMDAT text$x
text$x	SEGMENT
__ehhandler$??_Ei3ElementBase@@UAEPAXI@Z:
  00000	90		 npad	 1
  00001	90		 npad	 1
  00002	8b 54 24 08	 mov	 edx, DWORD PTR [esp+8]
  00006	8d 42 0c	 lea	 eax, DWORD PTR [edx+12]
  00009	8b 4a f0	 mov	 ecx, DWORD PTR [edx-16]
  0000c	33 c8		 xor	 ecx, eax
  0000e	e8 00 00 00 00	 call	 @__security_check_cookie@4
  00013	b8 00 00 00 00	 mov	 eax, OFFSET __ehfuncinfo$??_Ei3ElementBase@@UAEPAXI@Z
  00018	e9 00 00 00 00	 jmp	 ___CxxFrameHandler3
text$x	ENDS
??_Ei3ElementBase@@UAEPAXI@Z ENDP			; i3ElementBase::`vector deleting destructor'
; Function compile flags: /Ogtp
; File E:\Proyectos\JuegosOnlineproyectos\PB\pbblow\Piercing Blow Remake\i3Server\src\i3Base\i3String.cpp
;	COMDAT ??_Gi3ElementBase@@UAEPAXI@Z
_TEXT	SEGMENT
___flags$ = 8						; size = 4
??_Gi3ElementBase@@UAEPAXI@Z PROC			; i3ElementBase::`scalar deleting destructor', COMDAT
; _this$ = ecx
  00000	55		 push	 ebp
  00001	8b ec		 mov	 ebp, esp
  00003	56		 push	 esi
  00004	8b f1		 mov	 esi, ecx
  00006	e8 00 00 00 00	 call	 ??1i3ElementBase@@UAE@XZ ; i3ElementBase::~i3ElementBase
  0000b	8b 45 08	 mov	 eax, DWORD PTR ___flags$[ebp]
  0000e	a8 01		 test	 al, 1
  00010	74 1f		 je	 SHORT $LN10@scalar
  00012	a8 04		 test	 al, 4
  00014	75 10		 jne	 SHORT $LN3@scalar
  00016	56		 push	 esi
  00017	e8 00 00 00 00	 call	 ??3i3ElementBase@@SAXPAX@Z ; i3ElementBase::operator delete
  0001c	83 c4 04	 add	 esp, 4
  0001f	8b c6		 mov	 eax, esi
  00021	5e		 pop	 esi
  00022	5d		 pop	 ebp
  00023	c2 04 00	 ret	 4
$LN3@scalar:

  00026	6a 10		 push	 16			; 00000010H
  00028	56		 push	 esi
  00029	e8 00 00 00 00	 call	 ??3@YAXPAXI@Z		; operator delete
  0002e	83 c4 08	 add	 esp, 8
$LN10@scalar:
  00031	8b c6		 mov	 eax, esi
  00033	5e		 pop	 esi
  00034	5d		 pop	 ebp
  00035	c2 04 00	 ret	 4
??_Gi3ElementBase@@UAEPAXI@Z ENDP			; i3ElementBase::`scalar deleting destructor'
_TEXT	ENDS
; Function compile flags: /Ogtp
;	COMDAT ??4i3ElementBase@@QAEAAV0@ABV0@@Z
_TEXT	SEGMENT
___that$ = 8						; size = 4
??4i3ElementBase@@QAEAAV0@ABV0@@Z PROC			; i3ElementBase::operator=, COMDAT
; _this$ = ecx
  00000	55		 push	 ebp
  00001	8b ec		 mov	 ebp, esp
  00003	8b 55 08	 mov	 edx, DWORD PTR ___that$[ebp]
  00006	8b 42 04	 mov	 eax, DWORD PTR [edx+4]
  00009	89 41 04	 mov	 DWORD PTR [ecx+4], eax
  0000c	8b 42 08	 mov	 eax, DWORD PTR [edx+8]
  0000f	89 41 08	 mov	 DWORD PTR [ecx+8], eax
  00012	8b 42 0c	 mov	 eax, DWORD PTR [edx+12]
  00015	89 41 0c	 mov	 DWORD PTR [ecx+12], eax
  00018	8b c1		 mov	 eax, ecx
  0001a	5d		 pop	 ebp
  0001b	c2 04 00	 ret	 4
??4i3ElementBase@@QAEAAV0@ABV0@@Z ENDP			; i3ElementBase::operator=
_TEXT	ENDS
; Function compile flags: /Ogtp
;	COMDAT ??0i3ElementBase@@QAE@ABV0@@Z
_TEXT	SEGMENT
___that$ = 8						; size = 4
??0i3ElementBase@@QAE@ABV0@@Z PROC			; i3ElementBase::i3ElementBase, COMDAT
; _this$ = ecx
  00000	55		 push	 ebp
  00001	8b ec		 mov	 ebp, esp
  00003	8b 55 08	 mov	 edx, DWORD PTR ___that$[ebp]
  00006	c7 01 00 00 00
	00		 mov	 DWORD PTR [ecx], OFFSET ??_7i3ElementBase@@6B@
  0000c	8b 42 04	 mov	 eax, DWORD PTR [edx+4]
  0000f	89 41 04	 mov	 DWORD PTR [ecx+4], eax
  00012	8b 42 08	 mov	 eax, DWORD PTR [edx+8]
  00015	89 41 08	 mov	 DWORD PTR [ecx+8], eax
  00018	8b 42 0c	 mov	 eax, DWORD PTR [edx+12]
  0001b	89 41 0c	 mov	 DWORD PTR [ecx+12], eax
  0001e	8b c1		 mov	 eax, ecx
  00020	5d		 pop	 ebp
  00021	c2 04 00	 ret	 4
??0i3ElementBase@@QAE@ABV0@@Z ENDP			; i3ElementBase::i3ElementBase
_TEXT	ENDS
; Function compile flags: /Ogtp
; File E:\Proyectos\JuegosOnlineproyectos\PB\pbblow\Piercing Blow Remake\i3Server\include\i3Base\i3ElementBase.h
;	COMDAT ?_internal_SetRefCount@i3ElementBase@@QAEXH@Z
_TEXT	SEGMENT
_cnt$ = 8						; size = 4
?_internal_SetRefCount@i3ElementBase@@QAEXH@Z PROC	; i3ElementBase::_internal_SetRefCount, COMDAT
; _this$ = ecx

; 401  : 	{

  00000	55		 push	 ebp
  00001	8b ec		 mov	 ebp, esp

; 402  : 		m_RefCount = cnt;

  00003	8b 45 08	 mov	 eax, DWORD PTR _cnt$[ebp]
  00006	89 41 04	 mov	 DWORD PTR [ecx+4], eax

; 403  : 	}

  00009	5d		 pop	 ebp
  0000a	c2 04 00	 ret	 4
?_internal_SetRefCount@i3ElementBase@@QAEXH@Z ENDP	; i3ElementBase::_internal_SetRefCount
_TEXT	ENDS
; Function compile flags: /Ogtp
; File E:\Proyectos\JuegosOnlineproyectos\PB\pbblow\Piercing Blow Remake\i3Server\include\i3Base\i3ElementBase.h
;	COMDAT ?AddRef@i3ElementBase@@QAEHXZ
_TEXT	SEGMENT
?AddRef@i3ElementBase@@QAEHXZ PROC			; i3ElementBase::AddRef, COMDAT
; _this$ = ecx

; 392  : 		m_RefCount++;

  00000	ff 41 04	 inc	 DWORD PTR [ecx+4]

; 393  : 
; 394  : 		return m_RefCount;

  00003	8b 41 04	 mov	 eax, DWORD PTR [ecx+4]

; 395  : 	}

  00006	c3		 ret	 0
?AddRef@i3ElementBase@@QAEHXZ ENDP			; i3ElementBase::AddRef
_TEXT	ENDS
; Function compile flags: /Ogtp
; File E:\Proyectos\JuegosOnlineproyectos\PB\pbblow\Piercing Blow Remake\i3Server\include\i3Base\i3ElementBase.h
;	COMDAT ?IsTypeOf@i3ElementBase@@QAE_NPAVi3ClassMeta@@@Z
_TEXT	SEGMENT
_pMeta$ = 8						; size = 4
?IsTypeOf@i3ElementBase@@QAE_NPAVi3ClassMeta@@@Z PROC	; i3ElementBase::IsTypeOf, COMDAT
; _this$ = ecx

; 356  : 	{

  00000	55		 push	 ebp
  00001	8b ec		 mov	 ebp, esp

; 357  : 		return GetMeta()->IsTypeOf( pMeta);

  00003	8b 01		 mov	 eax, DWORD PTR [ecx]
  00005	ff 75 08	 push	 DWORD PTR _pMeta$[ebp]
  00008	ff 10		 call	 DWORD PTR [eax]
  0000a	8b c8		 mov	 ecx, eax
  0000c	e8 00 00 00 00	 call	 ?IsTypeOf@i3ClassMeta@@QAE_NPAV1@@Z ; i3ClassMeta::IsTypeOf

; 358  : 	}

  00011	5d		 pop	 ebp
  00012	c2 04 00	 ret	 4
?IsTypeOf@i3ElementBase@@QAE_NPAVi3ClassMeta@@@Z ENDP	; i3ElementBase::IsTypeOf
_TEXT	ENDS
; Function compile flags: /Ogtp
; File E:\Proyectos\JuegosOnlineproyectos\PB\pbblow\Piercing Blow Remake\i3Server\include\i3Base\i3ElementBase.h
; File E:\Proyectos\JuegosOnlineproyectos\PB\pbblow\Piercing Blow Remake\i3Server\include\i3Base\i3ClassMeta.h
; File E:\Proyectos\JuegosOnlineproyectos\PB\pbblow\Piercing Blow Remake\i3Server\include\i3Base\i3ElementBase.h
;	COMDAT ?IsExactTypeOf@i3ElementBase@@QAE_NPAVi3ClassMeta@@@Z
_TEXT	SEGMENT
_pMeta$ = 8						; size = 4
?IsExactTypeOf@i3ElementBase@@QAE_NPAVi3ClassMeta@@@Z PROC ; i3ElementBase::IsExactTypeOf, COMDAT
; _this$ = ecx

; 351  : 	{

  00000	55		 push	 ebp
  00001	8b ec		 mov	 ebp, esp

; 352  : 		return GetMeta()->IsExactTypeOf( pMeta);

  00003	8b 01		 mov	 eax, DWORD PTR [ecx]
  00005	ff 10		 call	 DWORD PTR [eax]
; File E:\Proyectos\JuegosOnlineproyectos\PB\pbblow\Piercing Blow Remake\i3Server\include\i3Base\i3ClassMeta.h

; 90   : 		return pMeta == this;

  00007	39 45 08	 cmp	 DWORD PTR _pMeta$[ebp], eax
  0000a	0f 94 c0	 sete	 al
; File E:\Proyectos\JuegosOnlineproyectos\PB\pbblow\Piercing Blow Remake\i3Server\include\i3Base\i3ElementBase.h

; 353  : 	}

  0000d	5d		 pop	 ebp
  0000e	c2 04 00	 ret	 4
?IsExactTypeOf@i3ElementBase@@QAE_NPAVi3ClassMeta@@@Z ENDP ; i3ElementBase::IsExactTypeOf
_TEXT	ENDS
; Function compile flags: /Ogtp
; File E:\Proyectos\JuegosOnlineproyectos\PB\pbblow\Piercing Blow Remake\i3Server\include\i3Base\i3ElementBase.h
;	COMDAT ?__GetMemoryPool@i3ElementBase@@QAEPAVi3MemoryPool@@XZ
_TEXT	SEGMENT
?__GetMemoryPool@i3ElementBase@@QAEPAVi3MemoryPool@@XZ PROC ; i3ElementBase::__GetMemoryPool, COMDAT
; _this$ = ecx

; 348  : 	i3MemoryPool *	__GetMemoryPool(void)							{ return m_pPool; }

  00000	8b 41 0c	 mov	 eax, DWORD PTR [ecx+12]
  00003	c3		 ret	 0
?__GetMemoryPool@i3ElementBase@@QAEPAVi3MemoryPool@@XZ ENDP ; i3ElementBase::__GetMemoryPool
_TEXT	ENDS
; Function compile flags: /Ogtp
; File E:\Proyectos\JuegosOnlineproyectos\PB\pbblow\Piercing Blow Remake\i3Server\include\i3Base\i3ElementBase.h
;	COMDAT ?__SetMemoryPool@i3ElementBase@@QAEXPAVi3MemoryPool@@@Z
_TEXT	SEGMENT
_pPool$ = 8						; size = 4
?__SetMemoryPool@i3ElementBase@@QAEXPAVi3MemoryPool@@@Z PROC ; i3ElementBase::__SetMemoryPool, COMDAT
; _this$ = ecx

; 347  : 	void			__SetMemoryPool( i3MemoryPool * pPool)			{ m_pPool = pPool; }

  00000	55		 push	 ebp
  00001	8b ec		 mov	 ebp, esp
  00003	8b 45 08	 mov	 eax, DWORD PTR _pPool$[ebp]
  00006	89 41 0c	 mov	 DWORD PTR [ecx+12], eax
  00009	5d		 pop	 ebp
  0000a	c2 04 00	 ret	 4
?__SetMemoryPool@i3ElementBase@@QAEXPAVi3MemoryPool@@@Z ENDP ; i3ElementBase::__SetMemoryPool
_TEXT	ENDS
; Function compile flags: /Ogtp
; File E:\Proyectos\JuegosOnlineproyectos\PB\pbblow\Piercing Blow Remake\i3Server\include\i3Base\i3ElementBase.h
;	COMDAT ?GetRefCount@i3ElementBase@@QAEHXZ
_TEXT	SEGMENT
?GetRefCount@i3ElementBase@@QAEHXZ PROC			; i3ElementBase::GetRefCount, COMDAT
; _this$ = ecx

; 344  : 		return m_RefCount;

  00000	8b 41 04	 mov	 eax, DWORD PTR [ecx+4]

; 345  : 	}

  00003	c3		 ret	 0
?GetRefCount@i3ElementBase@@QAEHXZ ENDP			; i3ElementBase::GetRefCount
_TEXT	ENDS
; Function compile flags: /Ogtp
; File E:\Proyectos\JuegosOnlineproyectos\PB\pbblow\Piercing Blow Remake\i3Server\include\i3Base\i3ElementBase.h
;	COMDAT ?GetClassMeta@i3ElementBase@@SAPAVi3ClassMeta@@XZ
_TEXT	SEGMENT
?GetClassMeta@i3ElementBase@@SAPAVi3ClassMeta@@XZ PROC	; i3ElementBase::GetClassMeta, COMDAT

; 314  : 	I3_ABSTRACT_CLASS_DEFINE( i3ElementBase);

  00000	a1 00 00 00 00	 mov	 eax, DWORD PTR ?s_pClassMetai3ElementBase@i3ElementBase@@2PAVi3ClassMeta@@A ; i3ElementBase::s_pClassMetai3ElementBase
  00005	c3		 ret	 0
?GetClassMeta@i3ElementBase@@SAPAVi3ClassMeta@@XZ ENDP	; i3ElementBase::GetClassMeta
_TEXT	ENDS
; Function compile flags: /Ogtp
;	COMDAT ??_Ei3ClassMeta@@UAEPAXI@Z
_TEXT	SEGMENT
__$EHRec$ = -12						; size = 12
___flags$ = 8						; size = 4
??_Ei3ClassMeta@@UAEPAXI@Z PROC				; i3ClassMeta::`vector deleting destructor', COMDAT
; _this$ = ecx
  00000	55		 push	 ebp
  00001	8b ec		 mov	 ebp, esp
  00003	6a ff		 push	 -1
  00005	68 00 00 00 00	 push	 __ehhandler$??_Ei3ClassMeta@@UAEPAXI@Z
  0000a	64 a1 00 00 00
	00		 mov	 eax, DWORD PTR fs:0
  00010	50		 push	 eax
  00011	53		 push	 ebx
  00012	56		 push	 esi
  00013	57		 push	 edi
  00014	a1 00 00 00 00	 mov	 eax, DWORD PTR ___security_cookie
  00019	33 c5		 xor	 eax, ebp
  0001b	50		 push	 eax
  0001c	8d 45 f4	 lea	 eax, DWORD PTR __$EHRec$[ebp]
  0001f	64 a3 00 00 00
	00		 mov	 DWORD PTR fs:0, eax
  00025	8b f1		 mov	 esi, ecx
  00027	8b 45 08	 mov	 eax, DWORD PTR ___flags$[ebp]
  0002a	8b f8		 mov	 edi, eax
  0002c	83 e7 01	 and	 edi, 1
  0002f	a8 02		 test	 al, 2
  00031	74 49		 je	 SHORT $LN2@vector
  00033	68 00 00 00 00	 push	 OFFSET ??1i3ClassMeta@@UAE@XZ ; i3ClassMeta::~i3ClassMeta
  00038	ff 76 fc	 push	 DWORD PTR [esi-4]
  0003b	8d 5e fc	 lea	 ebx, DWORD PTR [esi-4]
  0003e	6a 38		 push	 56			; 00000038H
  00040	56		 push	 esi
  00041	e8 00 00 00 00	 call	 ??_M@YGXPAXIIP6EX0@Z@Z
  00046	85 ff		 test	 edi, edi
  00048	74 1c		 je	 SHORT $LN3@vector
  0004a	8b 0b		 mov	 ecx, DWORD PTR [ebx]
  0004c	8d 14 cd 00 00
	00 00		 lea	 edx, DWORD PTR [ecx*8]
  00053	2b d1		 sub	 edx, ecx
  00055	8d 0c d5 04 00
	00 00		 lea	 ecx, DWORD PTR [edx*8+4]
  0005c	51		 push	 ecx
  0005d	53		 push	 ebx
  0005e	e8 00 00 00 00	 call	 ??_V@YAXPAXI@Z		; operator delete[]
  00063	83 c4 08	 add	 esp, 8
$LN3@vector:
  00066	8b c3		 mov	 eax, ebx
  00068	8b 4d f4	 mov	 ecx, DWORD PTR __$EHRec$[ebp]
  0006b	64 89 0d 00 00
	00 00		 mov	 DWORD PTR fs:0, ecx
  00072	59		 pop	 ecx
  00073	5f		 pop	 edi
  00074	5e		 pop	 esi
  00075	5b		 pop	 ebx
  00076	8b e5		 mov	 esp, ebp
  00078	5d		 pop	 ebp
  00079	c2 04 00	 ret	 4
$LN2@vector:
  0007c	e8 00 00 00 00	 call	 ??1i3ClassMeta@@UAE@XZ	; i3ClassMeta::~i3ClassMeta
  00081	85 ff		 test	 edi, edi
  00083	74 0b		 je	 SHORT $LN4@vector
  00085	6a 38		 push	 56			; 00000038H
  00087	56		 push	 esi
  00088	e8 00 00 00 00	 call	 ??3@YAXPAXI@Z		; operator delete
  0008d	83 c4 08	 add	 esp, 8
$LN4@vector:
  00090	8b c6		 mov	 eax, esi
  00092	8b 4d f4	 mov	 ecx, DWORD PTR __$EHRec$[ebp]
  00095	64 89 0d 00 00
	00 00		 mov	 DWORD PTR fs:0, ecx
  0009c	59		 pop	 ecx
  0009d	5f		 pop	 edi
  0009e	5e		 pop	 esi
  0009f	5b		 pop	 ebx
  000a0	8b e5		 mov	 esp, ebp
  000a2	5d		 pop	 ebp
  000a3	c2 04 00	 ret	 4
  000a6	cc		 int	 3
  000a7	cc		 int	 3
  000a8	cc		 int	 3
  000a9	cc		 int	 3
  000aa	cc		 int	 3
_TEXT	ENDS
;	COMDAT text$x
text$x	SEGMENT
__ehhandler$??_Ei3ClassMeta@@UAEPAXI@Z:
  00000	90		 npad	 1
  00001	90		 npad	 1
  00002	8b 54 24 08	 mov	 edx, DWORD PTR [esp+8]
  00006	8d 42 0c	 lea	 eax, DWORD PTR [edx+12]
  00009	8b 4a f0	 mov	 ecx, DWORD PTR [edx-16]
  0000c	33 c8		 xor	 ecx, eax
  0000e	e8 00 00 00 00	 call	 @__security_check_cookie@4
  00013	b8 00 00 00 00	 mov	 eax, OFFSET __ehfuncinfo$??_Ei3ClassMeta@@UAEPAXI@Z
  00018	e9 00 00 00 00	 jmp	 ___CxxFrameHandler3
text$x	ENDS
??_Ei3ClassMeta@@UAEPAXI@Z ENDP				; i3ClassMeta::`vector deleting destructor'
; Function compile flags: /Ogtp
;	COMDAT ??_Gi3ClassMeta@@UAEPAXI@Z
_TEXT	SEGMENT
___flags$ = 8						; size = 4
??_Gi3ClassMeta@@UAEPAXI@Z PROC				; i3ClassMeta::`scalar deleting destructor', COMDAT
; _this$ = ecx
  00000	55		 push	 ebp
  00001	8b ec		 mov	 ebp, esp
  00003	56		 push	 esi
  00004	8b f1		 mov	 esi, ecx
  00006	e8 00 00 00 00	 call	 ??1i3ClassMeta@@UAE@XZ	; i3ClassMeta::~i3ClassMeta
  0000b	f6 45 08 01	 test	 BYTE PTR ___flags$[ebp], 1
  0000f	74 0b		 je	 SHORT $LN5@scalar
  00011	6a 38		 push	 56			; 00000038H
  00013	56		 push	 esi
  00014	e8 00 00 00 00	 call	 ??3@YAXPAXI@Z		; operator delete
  00019	83 c4 08	 add	 esp, 8
$LN5@scalar:
  0001c	8b c6		 mov	 eax, esi
  0001e	5e		 pop	 esi
  0001f	5d		 pop	 ebp
  00020	c2 04 00	 ret	 4
??_Gi3ClassMeta@@UAEPAXI@Z ENDP				; i3ClassMeta::`scalar deleting destructor'
_TEXT	ENDS
; Function compile flags: /Ogtp
;	COMDAT ??4i3ClassMeta@@QAEAAV0@ABV0@@Z
_TEXT	SEGMENT
___that$ = 8						; size = 4
??4i3ClassMeta@@QAEAAV0@ABV0@@Z PROC			; i3ClassMeta::operator=, COMDAT
; _this$ = ecx
  00000	55		 push	 ebp
  00001	8b ec		 mov	 ebp, esp
  00003	8b 55 08	 mov	 edx, DWORD PTR ___that$[ebp]
  00006	8b 42 04	 mov	 eax, DWORD PTR [edx+4]
  00009	89 41 04	 mov	 DWORD PTR [ecx+4], eax
  0000c	8b 42 08	 mov	 eax, DWORD PTR [edx+8]
  0000f	89 41 08	 mov	 DWORD PTR [ecx+8], eax
  00012	8b 42 0c	 mov	 eax, DWORD PTR [edx+12]
  00015	89 41 0c	 mov	 DWORD PTR [ecx+12], eax
  00018	8b 42 10	 mov	 eax, DWORD PTR [edx+16]
  0001b	89 41 10	 mov	 DWORD PTR [ecx+16], eax
  0001e	8b 42 14	 mov	 eax, DWORD PTR [edx+20]
  00021	89 41 14	 mov	 DWORD PTR [ecx+20], eax
  00024	8b 42 18	 mov	 eax, DWORD PTR [edx+24]
  00027	89 41 18	 mov	 DWORD PTR [ecx+24], eax
  0002a	8b 42 1c	 mov	 eax, DWORD PTR [edx+28]
  0002d	89 41 1c	 mov	 DWORD PTR [ecx+28], eax
  00030	8b 42 20	 mov	 eax, DWORD PTR [edx+32]
  00033	89 41 20	 mov	 DWORD PTR [ecx+32], eax
  00036	8b 42 24	 mov	 eax, DWORD PTR [edx+36]
  00039	89 41 24	 mov	 DWORD PTR [ecx+36], eax
  0003c	8b 42 28	 mov	 eax, DWORD PTR [edx+40]
  0003f	89 41 28	 mov	 DWORD PTR [ecx+40], eax
  00042	8b 42 2c	 mov	 eax, DWORD PTR [edx+44]
  00045	89 41 2c	 mov	 DWORD PTR [ecx+44], eax
  00048	8b 42 30	 mov	 eax, DWORD PTR [edx+48]
  0004b	89 41 30	 mov	 DWORD PTR [ecx+48], eax
  0004e	8b 42 34	 mov	 eax, DWORD PTR [edx+52]
  00051	89 41 34	 mov	 DWORD PTR [ecx+52], eax
  00054	8b c1		 mov	 eax, ecx
  00056	5d		 pop	 ebp
  00057	c2 04 00	 ret	 4
??4i3ClassMeta@@QAEAAV0@ABV0@@Z ENDP			; i3ClassMeta::operator=
_TEXT	ENDS
; Function compile flags: /Ogtp
;	COMDAT ??0i3ClassMeta@@QAE@ABV0@@Z
_TEXT	SEGMENT
___that$ = 8						; size = 4
??0i3ClassMeta@@QAE@ABV0@@Z PROC			; i3ClassMeta::i3ClassMeta, COMDAT
; _this$ = ecx
  00000	55		 push	 ebp
  00001	8b ec		 mov	 ebp, esp
  00003	8b 55 08	 mov	 edx, DWORD PTR ___that$[ebp]
  00006	c7 01 00 00 00
	00		 mov	 DWORD PTR [ecx], OFFSET ??_7i3ClassMeta@@6B@
  0000c	8b 42 04	 mov	 eax, DWORD PTR [edx+4]
  0000f	89 41 04	 mov	 DWORD PTR [ecx+4], eax
  00012	8b 42 08	 mov	 eax, DWORD PTR [edx+8]
  00015	89 41 08	 mov	 DWORD PTR [ecx+8], eax
  00018	8b 42 0c	 mov	 eax, DWORD PTR [edx+12]
  0001b	89 41 0c	 mov	 DWORD PTR [ecx+12], eax
  0001e	8b 42 10	 mov	 eax, DWORD PTR [edx+16]
  00021	89 41 10	 mov	 DWORD PTR [ecx+16], eax
  00024	8b 42 14	 mov	 eax, DWORD PTR [edx+20]
  00027	89 41 14	 mov	 DWORD PTR [ecx+20], eax
  0002a	8b 42 18	 mov	 eax, DWORD PTR [edx+24]
  0002d	89 41 18	 mov	 DWORD PTR [ecx+24], eax
  00030	8b 42 1c	 mov	 eax, DWORD PTR [edx+28]
  00033	89 41 1c	 mov	 DWORD PTR [ecx+28], eax
  00036	8b 42 20	 mov	 eax, DWORD PTR [edx+32]
  00039	89 41 20	 mov	 DWORD PTR [ecx+32], eax
  0003c	8b 42 24	 mov	 eax, DWORD PTR [edx+36]
  0003f	89 41 24	 mov	 DWORD PTR [ecx+36], eax
  00042	8b 42 28	 mov	 eax, DWORD PTR [edx+40]
  00045	89 41 28	 mov	 DWORD PTR [ecx+40], eax
  00048	8b 42 2c	 mov	 eax, DWORD PTR [edx+44]
  0004b	89 41 2c	 mov	 DWORD PTR [ecx+44], eax
  0004e	8b 42 30	 mov	 eax, DWORD PTR [edx+48]
  00051	89 41 30	 mov	 DWORD PTR [ecx+48], eax
  00054	8b 42 34	 mov	 eax, DWORD PTR [edx+52]
  00057	89 41 34	 mov	 DWORD PTR [ecx+52], eax
  0005a	8b c1		 mov	 eax, ecx
  0005c	5d		 pop	 ebp
  0005d	c2 04 00	 ret	 4
??0i3ClassMeta@@QAE@ABV0@@Z ENDP			; i3ClassMeta::i3ClassMeta
_TEXT	ENDS
; Function compile flags: /Ogtp
; File E:\Proyectos\JuegosOnlineproyectos\PB\pbblow\Piercing Blow Remake\i3Server\include\i3Base\i3ClassMeta.h
;	COMDAT ?getHashCode@i3ClassMeta@@QAEIXZ
_TEXT	SEGMENT
?getHashCode@i3ClassMeta@@QAEIXZ PROC			; i3ClassMeta::getHashCode, COMDAT
; _this$ = ecx

; 112  : 	UINT32			getHashCode(void)						{ return m_HashCode; }

  00000	8b 41 18	 mov	 eax, DWORD PTR [ecx+24]
  00003	c3		 ret	 0
?getHashCode@i3ClassMeta@@QAEIXZ ENDP			; i3ClassMeta::getHashCode
_TEXT	ENDS
; Function compile flags: /Ogtp
; File E:\Proyectos\JuegosOnlineproyectos\PB\pbblow\Piercing Blow Remake\i3Server\include\i3Base\i3ClassMeta.h
;	COMDAT ?GetBaseClassMeta@i3ClassMeta@@QAEPAV1@XZ
_TEXT	SEGMENT
?GetBaseClassMeta@i3ClassMeta@@QAEPAV1@XZ PROC		; i3ClassMeta::GetBaseClassMeta, COMDAT
; _this$ = ecx

; 107  : 	i3ClassMeta *	GetBaseClassMeta(void)					{ return m_pBaseClass; }

  00000	8b 41 1c	 mov	 eax, DWORD PTR [ecx+28]
  00003	c3		 ret	 0
?GetBaseClassMeta@i3ClassMeta@@QAEPAV1@XZ ENDP		; i3ClassMeta::GetBaseClassMeta
_TEXT	ENDS
; Function compile flags: /Ogtp
; File E:\Proyectos\JuegosOnlineproyectos\PB\pbblow\Piercing Blow Remake\i3Server\include\i3Base\i3ClassMeta.h
;	COMDAT ?IsConcreteClass@i3ClassMeta@@QAEHXZ
_TEXT	SEGMENT
?IsConcreteClass@i3ClassMeta@@QAEHXZ PROC		; i3ClassMeta::IsConcreteClass, COMDAT
; _this$ = ecx

; 102  : 	BOOL			IsStyle( UINT32 style)					{ return (m_Style & style) == style; }

  00000	8b 41 14	 mov	 eax, DWORD PTR [ecx+20]
  00003	d1 e8		 shr	 eax, 1
  00005	83 e0 01	 and	 eax, 1

; 105  : 	BOOL			IsConcreteClass(void)					{ return IsStyle( I3_CLASSMETA_STYLE_CONCRETE); }

  00008	c3		 ret	 0
?IsConcreteClass@i3ClassMeta@@QAEHXZ ENDP		; i3ClassMeta::IsConcreteClass
_TEXT	ENDS
; Function compile flags: /Ogtp
; File E:\Proyectos\JuegosOnlineproyectos\PB\pbblow\Piercing Blow Remake\i3Server\include\i3Base\i3ClassMeta.h
;	COMDAT ?IsAbstractClass@i3ClassMeta@@QAEHXZ
_TEXT	SEGMENT
?IsAbstractClass@i3ClassMeta@@QAEHXZ PROC		; i3ClassMeta::IsAbstractClass, COMDAT
; _this$ = ecx

; 102  : 	BOOL			IsStyle( UINT32 style)					{ return (m_Style & style) == style; }

  00000	8b 41 14	 mov	 eax, DWORD PTR [ecx+20]
  00003	83 e0 01	 and	 eax, 1

; 104  : 	BOOL			IsAbstractClass(void)					{ return IsStyle( I3_CLASSMETA_STYLE_ABSTRACT); }

  00006	c3		 ret	 0
?IsAbstractClass@i3ClassMeta@@QAEHXZ ENDP		; i3ClassMeta::IsAbstractClass
_TEXT	ENDS
; Function compile flags: /Ogtp
; File E:\Proyectos\JuegosOnlineproyectos\PB\pbblow\Piercing Blow Remake\i3Server\include\i3Base\i3ClassMeta.h
;	COMDAT ?IsStyle@i3ClassMeta@@QAEHI@Z
_TEXT	SEGMENT
_style$ = 8						; size = 4
?IsStyle@i3ClassMeta@@QAEHI@Z PROC			; i3ClassMeta::IsStyle, COMDAT
; _this$ = ecx

; 102  : 	BOOL			IsStyle( UINT32 style)					{ return (m_Style & style) == style; }

  00000	55		 push	 ebp
  00001	8b ec		 mov	 ebp, esp
  00003	8b 51 14	 mov	 edx, DWORD PTR [ecx+20]
  00006	33 c0		 xor	 eax, eax
  00008	23 55 08	 and	 edx, DWORD PTR _style$[ebp]
  0000b	3b 55 08	 cmp	 edx, DWORD PTR _style$[ebp]
  0000e	0f 94 c0	 sete	 al
  00011	5d		 pop	 ebp
  00012	c2 04 00	 ret	 4
?IsStyle@i3ClassMeta@@QAEHI@Z ENDP			; i3ClassMeta::IsStyle
_TEXT	ENDS
; Function compile flags: /Ogtp
; File E:\Proyectos\JuegosOnlineproyectos\PB\pbblow\Piercing Blow Remake\i3Server\include\i3Base\i3ClassMeta.h
;	COMDAT ?RemoveStyle@i3ClassMeta@@QAEXI@Z
_TEXT	SEGMENT
_style$ = 8						; size = 4
?RemoveStyle@i3ClassMeta@@QAEXI@Z PROC			; i3ClassMeta::RemoveStyle, COMDAT
; _this$ = ecx

; 101  : 	void			RemoveStyle( UINT32 style)				{ m_Style &= ~style; }

  00000	55		 push	 ebp
  00001	8b ec		 mov	 ebp, esp
  00003	8b 45 08	 mov	 eax, DWORD PTR _style$[ebp]
  00006	f7 d0		 not	 eax
  00008	21 41 14	 and	 DWORD PTR [ecx+20], eax
  0000b	5d		 pop	 ebp
  0000c	c2 04 00	 ret	 4
?RemoveStyle@i3ClassMeta@@QAEXI@Z ENDP			; i3ClassMeta::RemoveStyle
_TEXT	ENDS
; Function compile flags: /Ogtp
; File E:\Proyectos\JuegosOnlineproyectos\PB\pbblow\Piercing Blow Remake\i3Server\include\i3Base\i3ClassMeta.h
;	COMDAT ?AddStyle@i3ClassMeta@@QAEXI@Z
_TEXT	SEGMENT
_style$ = 8						; size = 4
?AddStyle@i3ClassMeta@@QAEXI@Z PROC			; i3ClassMeta::AddStyle, COMDAT
; _this$ = ecx

; 100  : 	void			AddStyle( UINT32 style)					{ m_Style |= style; }

  00000	55		 push	 ebp
  00001	8b ec		 mov	 ebp, esp
  00003	8b 45 08	 mov	 eax, DWORD PTR _style$[ebp]
  00006	09 41 14	 or	 DWORD PTR [ecx+20], eax
  00009	5d		 pop	 ebp
  0000a	c2 04 00	 ret	 4
?AddStyle@i3ClassMeta@@QAEXI@Z ENDP			; i3ClassMeta::AddStyle
_TEXT	ENDS
; Function compile flags: /Ogtp
; File E:\Proyectos\JuegosOnlineproyectos\PB\pbblow\Piercing Blow Remake\i3Server\include\i3Base\i3ClassMeta.h
;	COMDAT ?GetStyle@i3ClassMeta@@QAEIXZ
_TEXT	SEGMENT
?GetStyle@i3ClassMeta@@QAEIXZ PROC			; i3ClassMeta::GetStyle, COMDAT
; _this$ = ecx

; 99   : 	UINT32			GetStyle(void)							{ return m_Style; }

  00000	8b 41 14	 mov	 eax, DWORD PTR [ecx+20]
  00003	c3		 ret	 0
?GetStyle@i3ClassMeta@@QAEIXZ ENDP			; i3ClassMeta::GetStyle
_TEXT	ENDS
; Function compile flags: /Ogtp
; File E:\Proyectos\JuegosOnlineproyectos\PB\pbblow\Piercing Blow Remake\i3Server\include\i3Base\i3ClassMeta.h
;	COMDAT ?SetStyle@i3ClassMeta@@QAEXI@Z
_TEXT	SEGMENT
_style$ = 8						; size = 4
?SetStyle@i3ClassMeta@@QAEXI@Z PROC			; i3ClassMeta::SetStyle, COMDAT
; _this$ = ecx

; 98   : 	void			SetStyle( UINT32 style)					{ m_Style = style; }

  00000	55		 push	 ebp
  00001	8b ec		 mov	 ebp, esp
  00003	8b 45 08	 mov	 eax, DWORD PTR _style$[ebp]
  00006	89 41 14	 mov	 DWORD PTR [ecx+20], eax
  00009	5d		 pop	 ebp
  0000a	c2 04 00	 ret	 4
?SetStyle@i3ClassMeta@@QAEXI@Z ENDP			; i3ClassMeta::SetStyle
_TEXT	ENDS
; Function compile flags: /Ogtp
; File E:\Proyectos\JuegosOnlineproyectos\PB\pbblow\Piercing Blow Remake\i3Server\include\i3Base\i3ClassMeta.h
;	COMDAT ?IsExactTypeOf@i3ClassMeta@@QAE_NPAV1@@Z
_TEXT	SEGMENT
_pMeta$ = 8						; size = 4
?IsExactTypeOf@i3ClassMeta@@QAE_NPAV1@@Z PROC		; i3ClassMeta::IsExactTypeOf, COMDAT
; _this$ = ecx

; 89   : 	{

  00000	55		 push	 ebp
  00001	8b ec		 mov	 ebp, esp

; 90   : 		return pMeta == this;

  00003	39 4d 08	 cmp	 DWORD PTR _pMeta$[ebp], ecx
  00006	0f 94 c0	 sete	 al

; 91   : 	}

  00009	5d		 pop	 ebp
  0000a	c2 04 00	 ret	 4
?IsExactTypeOf@i3ClassMeta@@QAE_NPAV1@@Z ENDP		; i3ClassMeta::IsExactTypeOf
_TEXT	ENDS
; Function compile flags: /Ogtp
; File E:\Proyectos\JuegosOnlineproyectos\PB\pbblow\Piercing Blow Remake\i3Server\include\i3Base\i3ClassMeta.h
;	COMDAT ?GetClassNameA@i3ClassMeta@@QAEPADXZ
_TEXT	SEGMENT
?GetClassNameA@i3ClassMeta@@QAEPADXZ PROC		; i3ClassMeta::GetClassNameA, COMDAT
; _this$ = ecx

; 83   : 		return m_pszClassName;

  00000	8b 41 0c	 mov	 eax, DWORD PTR [ecx+12]

; 84   : 	}

  00003	c3		 ret	 0
?GetClassNameA@i3ClassMeta@@QAEPADXZ ENDP		; i3ClassMeta::GetClassNameA
_TEXT	ENDS
; Function compile flags: /Ogtp
; File E:\Proyectos\JuegosOnlineproyectos\PB\pbblow\Piercing Blow Remake\i3Server\include\i3Base\i3ClassMeta.h
;	COMDAT ?GetClassSize@i3ClassMeta@@QAEIXZ
_TEXT	SEGMENT
?GetClassSize@i3ClassMeta@@QAEIXZ PROC			; i3ClassMeta::GetClassSize, COMDAT
; _this$ = ecx

; 78   : 		return m_ClassSize;

  00000	8b 41 08	 mov	 eax, DWORD PTR [ecx+8]

; 79   : 	}

  00003	c3		 ret	 0
?GetClassSize@i3ClassMeta@@QAEIXZ ENDP			; i3ClassMeta::GetClassSize
_TEXT	ENDS
; Function compile flags: /Ogtp
; File E:\Proyectos\JuegosOnlineproyectos\PB\pbblow\Piercing Blow Remake\i3Server\include\i3Base\i3ClassMeta.h
;	COMDAT ?SetMemoryPool@i3ClassMeta@@QAEXPAVi3MemoryPool@@@Z
_TEXT	SEGMENT
_pPool$ = 8						; size = 4
?SetMemoryPool@i3ClassMeta@@QAEXPAVi3MemoryPool@@@Z PROC ; i3ClassMeta::SetMemoryPool, COMDAT
; _this$ = ecx

; 66   : 	void			SetMemoryPool( i3MemoryPool * pPool)		{ m_pPool = pPool; }

  00000	55		 push	 ebp
  00001	8b ec		 mov	 ebp, esp
  00003	8b 45 08	 mov	 eax, DWORD PTR _pPool$[ebp]
  00006	89 41 34	 mov	 DWORD PTR [ecx+52], eax
  00009	5d		 pop	 ebp
  0000a	c2 04 00	 ret	 4
?SetMemoryPool@i3ClassMeta@@QAEXPAVi3MemoryPool@@@Z ENDP ; i3ClassMeta::SetMemoryPool
_TEXT	ENDS
; Function compile flags: /Ogtp
; File E:\Proyectos\JuegosOnlineproyectos\PB\pbblow\Piercing Blow Remake\i3Server\include\i3Base\i3ClassMeta.h
;	COMDAT ?GetMemoryPool@i3ClassMeta@@QAEPAVi3MemoryPool@@XZ
_TEXT	SEGMENT
?GetMemoryPool@i3ClassMeta@@QAEPAVi3MemoryPool@@XZ PROC	; i3ClassMeta::GetMemoryPool, COMDAT
; _this$ = ecx

; 65   : 	i3MemoryPool *	GetMemoryPool(void)							{ return m_pPool; }

  00000	8b 41 34	 mov	 eax, DWORD PTR [ecx+52]
  00003	c3		 ret	 0
?GetMemoryPool@i3ClassMeta@@QAEPAVi3MemoryPool@@XZ ENDP	; i3ClassMeta::GetMemoryPool
_TEXT	ENDS
; Function compile flags: /Ogtp
; File C:\Program Files (x86)\Windows Kits\10\Include\10.0.26100.0\ucrt\stdio.h
;	COMDAT _sprintf
_TEXT	SEGMENT
__Buffer$ = 8						; size = 4
__Format$ = 12						; size = 4
_sprintf PROC						; COMDAT

; 1771 :     {

  00000	55		 push	 ebp
  00001	8b ec		 mov	 ebp, esp

; 1392 :         int const _Result = __stdio_common_vsprintf(

  00003	8d 45 10	 lea	 eax, DWORD PTR __Format$[ebp+4]
  00006	50		 push	 eax
  00007	6a 00		 push	 0
  00009	ff 75 0c	 push	 DWORD PTR __Format$[ebp]
  0000c	6a ff		 push	 -1
  0000e	ff 75 08	 push	 DWORD PTR __Buffer$[ebp]
  00011	e8 00 00 00 00	 call	 ___local_stdio_printf_options
  00016	8b 08		 mov	 ecx, DWORD PTR [eax]
  00018	ff 70 04	 push	 DWORD PTR [eax+4]
  0001b	83 c9 01	 or	 ecx, 1
  0001e	51		 push	 ecx
  0001f	e8 00 00 00 00	 call	 ___stdio_common_vsprintf

; 1393 :             _CRT_INTERNAL_LOCAL_PRINTF_OPTIONS | _CRT_INTERNAL_PRINTF_LEGACY_VSPRINTF_NULL_TERMINATION,
; 1394 :             _Buffer, _BufferCount, _Format, _Locale, _ArgList);
; 1395 : 
; 1396 :         return _Result < 0 ? -1 : _Result;

  00024	83 c9 ff	 or	 ecx, -1
  00027	83 c4 1c	 add	 esp, 28			; 0000001cH
  0002a	85 c0		 test	 eax, eax
  0002c	0f 48 c1	 cmovs	 eax, ecx

; 1772 :         int _Result;
; 1773 :         va_list _ArgList;
; 1774 :         __crt_va_start(_ArgList, _Format);
; 1775 : 
; 1776 :         _Result = _vsprintf_l(_Buffer, _Format, NULL, _ArgList);
; 1777 : 
; 1778 :         __crt_va_end(_ArgList);
; 1779 :         return _Result;
; 1780 :     }

  0002f	5d		 pop	 ebp
  00030	c3		 ret	 0
_sprintf ENDP
_TEXT	ENDS
; Function compile flags: /Ogtp
; File C:\Program Files (x86)\Windows Kits\10\Include\10.0.26100.0\ucrt\corecrt_wstdio.h
;	COMDAT __swprintf
_TEXT	SEGMENT
__Buffer$ = 8						; size = 4
__Format$ = 12						; size = 4
__swprintf PROC						; COMDAT

; 1445 :     {

  00000	55		 push	 ebp
  00001	8b ec		 mov	 ebp, esp

; 1156 :         int const _Result = __stdio_common_vswprintf(

  00003	8d 45 10	 lea	 eax, DWORD PTR __Format$[ebp+4]
  00006	50		 push	 eax
  00007	6a 00		 push	 0
  00009	ff 75 0c	 push	 DWORD PTR __Format$[ebp]
  0000c	6a ff		 push	 -1
  0000e	ff 75 08	 push	 DWORD PTR __Buffer$[ebp]
  00011	e8 00 00 00 00	 call	 ___local_stdio_printf_options
  00016	ff 70 04	 push	 DWORD PTR [eax+4]
  00019	ff 30		 push	 DWORD PTR [eax]
  0001b	e8 00 00 00 00	 call	 ___stdio_common_vswprintf

; 1157 :             _CRT_INTERNAL_LOCAL_PRINTF_OPTIONS,
; 1158 :             _Buffer, _BufferCount, _Format, _Locale, _ArgList);
; 1159 : 
; 1160 :         return _Result < 0 ? -1 : _Result;

  00020	83 c9 ff	 or	 ecx, -1
  00023	83 c4 1c	 add	 esp, 28			; 0000001cH
  00026	85 c0		 test	 eax, eax
  00028	0f 48 c1	 cmovs	 eax, ecx

; 1446 :         int _Result;
; 1447 :         va_list _ArgList;
; 1448 :         __crt_va_start(_ArgList, _Format);
; 1449 :         _Result = __vswprintf_l(_Buffer, _Format, NULL, _ArgList);
; 1450 :         __crt_va_end(_ArgList);
; 1451 :         return _Result;
; 1452 :     }

  0002b	5d		 pop	 ebp
  0002c	c3		 ret	 0
__swprintf ENDP
_TEXT	ENDS
; Function compile flags: /Ogtp
; File C:\Program Files (x86)\Windows Kits\10\Include\10.0.26100.0\ucrt\corecrt_stdio_config.h
;	COMDAT ___local_stdio_printf_options
_TEXT	SEGMENT
___local_stdio_printf_options PROC			; COMDAT

; 91   :         static unsigned __int64 _OptionsStorage;
; 92   :         return &_OptionsStorage;

  00000	b8 00 00 00 00	 mov	 eax, OFFSET ?_OptionsStorage@?1??__local_stdio_printf_options@@9@4_KA ; `__local_stdio_printf_options'::`2'::_OptionsStorage

; 93   :     }

  00005	c3		 ret	 0
___local_stdio_printf_options ENDP
_TEXT	ENDS
; Function compile flags: /Ogtp
; File E:\Proyectos\JuegosOnlineproyectos\PB\pbblow\Piercing Blow Remake\i3Server\src\i3Base\i3String.cpp
;	COMDAT ?__global_array_delete@@YAXPAXI@Z
_TEXT	SEGMENT
_p$ = 8							; size = 4
_sz$ = 12						; size = 4
?__global_array_delete@@YAXPAXI@Z PROC			; __global_array_delete, COMDAT

  00000	e9 00 00 00 00	 jmp	 ??_V@YAXPAXI@Z		; operator delete[]
?__global_array_delete@@YAXPAXI@Z ENDP			; __global_array_delete
_TEXT	ENDS
; Function compile flags: /Ogtp
; File E:\Proyectos\JuegosOnlineproyectos\PB\pbblow\Piercing Blow Remake\i3Server\src\i3Base\i3String.cpp
;	COMDAT ?__global_array_delete@@YAXPAX@Z
_TEXT	SEGMENT
_p$ = 8							; size = 4
?__global_array_delete@@YAXPAX@Z PROC			; __global_array_delete, COMDAT

  00000	e9 00 00 00 00	 jmp	 ??_V@YAXPAX@Z		; operator delete[]
?__global_array_delete@@YAXPAX@Z ENDP			; __global_array_delete
_TEXT	ENDS
; Function compile flags: /Ogtp
; File E:\Proyectos\JuegosOnlineproyectos\PB\pbblow\Piercing Blow Remake\i3Server\src\i3Base\i3String.cpp
;	COMDAT ?__global_delete@@YAXPAXI@Z
_TEXT	SEGMENT
_p$ = 8							; size = 4
_sz$ = 12						; size = 4
?__global_delete@@YAXPAXI@Z PROC			; __global_delete, COMDAT

  00000	e9 00 00 00 00	 jmp	 ??3@YAXPAXI@Z		; operator delete
?__global_delete@@YAXPAXI@Z ENDP			; __global_delete
_TEXT	ENDS
; Function compile flags: /Ogtp
; File E:\Proyectos\JuegosOnlineproyectos\PB\pbblow\Piercing Blow Remake\i3Server\src\i3Base\i3String.cpp
;	COMDAT ?__empty_global_delete@@YAXPAXI@Z
_TEXT	SEGMENT
___formal$ = 8						; size = 4
___formal$ = 12						; size = 4
?__empty_global_delete@@YAXPAXI@Z PROC			; __empty_global_delete, COMDAT

  00000	c2 00 00	 ret	 0
?__empty_global_delete@@YAXPAXI@Z ENDP			; __empty_global_delete
_TEXT	ENDS
; Function compile flags: /Ogtp
; File E:\Proyectos\JuegosOnlineproyectos\PB\pbblow\Piercing Blow Remake\i3Server\src\i3Base\i3String.cpp
;	COMDAT ?__global_delete@@YAXPAX@Z
_TEXT	SEGMENT
_p$ = 8							; size = 4
?__global_delete@@YAXPAX@Z PROC				; __global_delete, COMDAT

  00000	e9 00 00 00 00	 jmp	 ??3@YAXPAX@Z		; operator delete
?__global_delete@@YAXPAX@Z ENDP				; __global_delete
_TEXT	ENDS
; Function compile flags: /Ogtp
; File E:\Proyectos\JuegosOnlineproyectos\PB\pbblow\Piercing Blow Remake\i3Server\src\i3Base\i3String.cpp
;	COMDAT ?__empty_global_delete@@YAXPAX@Z
_TEXT	SEGMENT
___formal$ = 8						; size = 4
?__empty_global_delete@@YAXPAX@Z PROC			; __empty_global_delete, COMDAT

  00000	c2 00 00	 ret	 0
?__empty_global_delete@@YAXPAX@Z ENDP			; __empty_global_delete
_TEXT	ENDS
END
