; Listing generated by Microsoft (R) Optimizing Compiler Version 19.50.35727.0 

	TITLE	E:\Proyectos\JuegosOnlineproyectos\PB\pbblow\Piercing Blow Remake\i3Server\Project\I3_DX\i3Server\x86\Release\i3StringTable.obj
	.686P
	.XMM
	include listing.inc
	.model	flat

INCLUDELIB LIBCMT
INCLUDELIB OLDNAMES

PUBLIC	?s_pClassMetai3StringTable@i3StringTable@@2PAVi3ClassMeta@@A ; i3StringTable::s_pClassMetai3StringTable
PUBLIC	?CreateInstance@?$i3MetaTemplate@Vi3StringTable@@@@UAEPAVi3ElementBase@@W4I3_CLASSMETA_TYPE@@@Z ; i3MetaTemplate<i3StringTable>::CreateInstance
PUBLIC	?BindInstance@?$i3MetaTemplate@Vi3StringTable@@@@UAEPAVi3ElementBase@@PAXW4I3_CLASSMETA_TYPE@@@Z ; i3MetaTemplate<i3StringTable>::BindInstance
PUBLIC	??_7?$i3MetaTemplate@Vi3StringTable@@@@6B@	; i3MetaTemplate<i3StringTable>::`vftable'
PUBLIC	??_G?$i3MetaTemplate@Vi3StringTable@@@@UAEPAXI@Z ; i3MetaTemplate<i3StringTable>::`scalar deleting destructor'
PUBLIC	??_C@_0O@OCDFBOHM@i3ElementBase@		; `string'
PUBLIC	??_C@_0O@MBELPKLH@i3StringTable@		; `string'
PUBLIC	??_R0?AVi3ClassMeta@@@8				; i3ClassMeta `RTTI Type Descriptor'
PUBLIC	??_R3i3ClassMeta@@8				; i3ClassMeta::`RTTI Class Hierarchy Descriptor'
PUBLIC	??_R2i3ClassMeta@@8				; i3ClassMeta::`RTTI Base Class Array'
PUBLIC	??_R1A@?0A@EA@i3ClassMeta@@8			; i3ClassMeta::`RTTI Base Class Descriptor at (0,-1,0,64)'
PUBLIC	??_R4?$i3MetaTemplate@Vi3StringTable@@@@6B@	; i3MetaTemplate<i3StringTable>::`RTTI Complete Object Locator'
PUBLIC	??_R0?AV?$i3MetaTemplate@Vi3StringTable@@@@@8	; i3MetaTemplate<i3StringTable> `RTTI Type Descriptor'
PUBLIC	??_R3?$i3MetaTemplate@Vi3StringTable@@@@8	; i3MetaTemplate<i3StringTable>::`RTTI Class Hierarchy Descriptor'
PUBLIC	??_R2?$i3MetaTemplate@Vi3StringTable@@@@8	; i3MetaTemplate<i3StringTable>::`RTTI Base Class Array'
PUBLIC	??_R1A@?0A@EA@?$i3MetaTemplate@Vi3StringTable@@@@8 ; i3MetaTemplate<i3StringTable>::`RTTI Base Class Descriptor at (0,-1,0,64)'
PUBLIC	__Avx2WmemEnabledWeakValue
EXTRN	??_E?$i3MetaTemplate@Vi3StringTable@@@@UAEPAXI@Z:PROC ; i3MetaTemplate<i3StringTable>::`vector deleting destructor'
EXTRN	??_7type_info@@6B@:QWORD			; type_info::`vftable'
;	COMDAT __Avx2WmemEnabledWeakValue
_BSS	SEGMENT
__Avx2WmemEnabledWeakValue DD 01H DUP (?)
_BSS	ENDS
;	COMDAT ??_R1A@?0A@EA@?$i3MetaTemplate@Vi3StringTable@@@@8
rdata$r	SEGMENT
??_R1A@?0A@EA@?$i3MetaTemplate@Vi3StringTable@@@@8 DD FLAT:??_R0?AV?$i3MetaTemplate@Vi3StringTable@@@@@8 ; i3MetaTemplate<i3StringTable>::`RTTI Base Class Descriptor at (0,-1,0,64)'
	DD	01H
	DD	00H
	DD	0ffffffffH
	DD	00H
	DD	040H
	DD	FLAT:??_R3?$i3MetaTemplate@Vi3StringTable@@@@8
rdata$r	ENDS
;	COMDAT ??_R2?$i3MetaTemplate@Vi3StringTable@@@@8
rdata$r	SEGMENT
??_R2?$i3MetaTemplate@Vi3StringTable@@@@8 DD FLAT:??_R1A@?0A@EA@?$i3MetaTemplate@Vi3StringTable@@@@8 ; i3MetaTemplate<i3StringTable>::`RTTI Base Class Array'
	DD	FLAT:??_R1A@?0A@EA@i3ClassMeta@@8
rdata$r	ENDS
;	COMDAT ??_R3?$i3MetaTemplate@Vi3StringTable@@@@8
rdata$r	SEGMENT
??_R3?$i3MetaTemplate@Vi3StringTable@@@@8 DD 00H	; i3MetaTemplate<i3StringTable>::`RTTI Class Hierarchy Descriptor'
	DD	00H
	DD	02H
	DD	FLAT:??_R2?$i3MetaTemplate@Vi3StringTable@@@@8
rdata$r	ENDS
;	COMDAT ??_R0?AV?$i3MetaTemplate@Vi3StringTable@@@@@8
data$rs	SEGMENT
??_R0?AV?$i3MetaTemplate@Vi3StringTable@@@@@8 DD FLAT:??_7type_info@@6B@ ; i3MetaTemplate<i3StringTable> `RTTI Type Descriptor'
	DD	00H
	DB	'.?AV?$i3MetaTemplate@Vi3StringTable@@@@', 00H
data$rs	ENDS
;	COMDAT ??_R4?$i3MetaTemplate@Vi3StringTable@@@@6B@
rdata$r	SEGMENT
??_R4?$i3MetaTemplate@Vi3StringTable@@@@6B@ DD 00H	; i3MetaTemplate<i3StringTable>::`RTTI Complete Object Locator'
	DD	00H
	DD	00H
	DD	FLAT:??_R0?AV?$i3MetaTemplate@Vi3StringTable@@@@@8
	DD	FLAT:??_R3?$i3MetaTemplate@Vi3StringTable@@@@8
rdata$r	ENDS
;	COMDAT ??_R1A@?0A@EA@i3ClassMeta@@8
rdata$r	SEGMENT
??_R1A@?0A@EA@i3ClassMeta@@8 DD FLAT:??_R0?AVi3ClassMeta@@@8 ; i3ClassMeta::`RTTI Base Class Descriptor at (0,-1,0,64)'
	DD	00H
	DD	00H
	DD	0ffffffffH
	DD	00H
	DD	040H
	DD	FLAT:??_R3i3ClassMeta@@8
rdata$r	ENDS
;	COMDAT ??_R2i3ClassMeta@@8
rdata$r	SEGMENT
??_R2i3ClassMeta@@8 DD FLAT:??_R1A@?0A@EA@i3ClassMeta@@8 ; i3ClassMeta::`RTTI Base Class Array'
rdata$r	ENDS
;	COMDAT ??_R3i3ClassMeta@@8
rdata$r	SEGMENT
??_R3i3ClassMeta@@8 DD 00H				; i3ClassMeta::`RTTI Class Hierarchy Descriptor'
	DD	00H
	DD	01H
	DD	FLAT:??_R2i3ClassMeta@@8
rdata$r	ENDS
;	COMDAT ??_R0?AVi3ClassMeta@@@8
data$rs	SEGMENT
??_R0?AVi3ClassMeta@@@8 DD FLAT:??_7type_info@@6B@	; i3ClassMeta `RTTI Type Descriptor'
	DD	00H
	DB	'.?AVi3ClassMeta@@', 00H
data$rs	ENDS
;	COMDAT ??_C@_0O@MBELPKLH@i3StringTable@
CONST	SEGMENT
??_C@_0O@MBELPKLH@i3StringTable@ DB 'i3StringTable', 00H ; `string'
CONST	ENDS
;	COMDAT ??_C@_0O@OCDFBOHM@i3ElementBase@
CONST	SEGMENT
??_C@_0O@OCDFBOHM@i3ElementBase@ DB 'i3ElementBase', 00H ; `string'
CONST	ENDS
;	COMDAT ??_7?$i3MetaTemplate@Vi3StringTable@@@@6B@
CONST	SEGMENT
??_7?$i3MetaTemplate@Vi3StringTable@@@@6B@ DD FLAT:??_R4?$i3MetaTemplate@Vi3StringTable@@@@6B@ ; i3MetaTemplate<i3StringTable>::`vftable'
	DD	FLAT:??_E?$i3MetaTemplate@Vi3StringTable@@@@UAEPAXI@Z
	DD	FLAT:?CreateInstance@?$i3MetaTemplate@Vi3StringTable@@@@UAEPAVi3ElementBase@@W4I3_CLASSMETA_TYPE@@@Z
	DD	FLAT:?BindInstance@?$i3MetaTemplate@Vi3StringTable@@@@UAEPAVi3ElementBase@@PAXW4I3_CLASSMETA_TYPE@@@Z
CONST	ENDS
_DATA	SEGMENT
?s_pClassMetai3StringTable@i3StringTable@@2PAVi3ClassMeta@@A DD FLAT:?s_ClassMetai3StringTable@@3V?$i3MetaTemplate@Vi3StringTable@@@@A ; i3StringTable::s_pClassMetai3StringTable
_DATA	ENDS
PUBLIC	?__empty_global_delete@@YAXPAX@Z		; __empty_global_delete
PUBLIC	?__global_delete@@YAXPAX@Z			; __global_delete
PUBLIC	?__empty_global_delete@@YAXPAXI@Z		; __empty_global_delete
PUBLIC	?__global_delete@@YAXPAXI@Z			; __global_delete
PUBLIC	?__global_array_delete@@YAXPAX@Z		; __global_array_delete
PUBLIC	?__global_array_delete@@YAXPAXI@Z		; __global_array_delete
PUBLIC	?GetMemoryPool@i3ClassMeta@@QAEPAVi3MemoryPool@@XZ ; i3ClassMeta::GetMemoryPool
PUBLIC	?SetMemoryPool@i3ClassMeta@@QAEXPAVi3MemoryPool@@@Z ; i3ClassMeta::SetMemoryPool
PUBLIC	?GetClassSize@i3ClassMeta@@QAEIXZ		; i3ClassMeta::GetClassSize
PUBLIC	?GetClassNameA@i3ClassMeta@@QAEPADXZ		; i3ClassMeta::GetClassNameA
PUBLIC	?IsExactTypeOf@i3ClassMeta@@QAE_NPAV1@@Z	; i3ClassMeta::IsExactTypeOf
PUBLIC	?SetStyle@i3ClassMeta@@QAEXI@Z			; i3ClassMeta::SetStyle
PUBLIC	?GetStyle@i3ClassMeta@@QAEIXZ			; i3ClassMeta::GetStyle
PUBLIC	?AddStyle@i3ClassMeta@@QAEXI@Z			; i3ClassMeta::AddStyle
PUBLIC	?RemoveStyle@i3ClassMeta@@QAEXI@Z		; i3ClassMeta::RemoveStyle
PUBLIC	?IsStyle@i3ClassMeta@@QAEHI@Z			; i3ClassMeta::IsStyle
PUBLIC	?IsAbstractClass@i3ClassMeta@@QAEHXZ		; i3ClassMeta::IsAbstractClass
PUBLIC	?IsConcreteClass@i3ClassMeta@@QAEHXZ		; i3ClassMeta::IsConcreteClass
PUBLIC	?GetBaseClassMeta@i3ClassMeta@@QAEPAV1@XZ	; i3ClassMeta::GetBaseClassMeta
PUBLIC	?getHashCode@i3ClassMeta@@QAEIXZ		; i3ClassMeta::getHashCode
PUBLIC	??0i3ClassMeta@@QAE@ABV0@@Z			; i3ClassMeta::i3ClassMeta
PUBLIC	??4i3ClassMeta@@QAEAAV0@ABV0@@Z			; i3ClassMeta::operator=
PUBLIC	??_Gi3ClassMeta@@UAEPAXI@Z			; i3ClassMeta::`scalar deleting destructor'
PUBLIC	??_Ei3ClassMeta@@UAEPAXI@Z			; i3ClassMeta::`vector deleting destructor'
PUBLIC	?GetClassMeta@i3ElementBase@@SAPAVi3ClassMeta@@XZ ; i3ElementBase::GetClassMeta
PUBLIC	?GetRefCount@i3ElementBase@@QAEHXZ		; i3ElementBase::GetRefCount
PUBLIC	?__SetMemoryPool@i3ElementBase@@QAEXPAVi3MemoryPool@@@Z ; i3ElementBase::__SetMemoryPool
PUBLIC	?__GetMemoryPool@i3ElementBase@@QAEPAVi3MemoryPool@@XZ ; i3ElementBase::__GetMemoryPool
PUBLIC	?IsExactTypeOf@i3ElementBase@@QAE_NPAVi3ClassMeta@@@Z ; i3ElementBase::IsExactTypeOf
PUBLIC	?IsTypeOf@i3ElementBase@@QAE_NPAVi3ClassMeta@@@Z ; i3ElementBase::IsTypeOf
PUBLIC	?AddRef@i3ElementBase@@QAEHXZ			; i3ElementBase::AddRef
PUBLIC	?_internal_SetRefCount@i3ElementBase@@QAEXH@Z	; i3ElementBase::_internal_SetRefCount
PUBLIC	??0i3ElementBase@@QAE@ABV0@@Z			; i3ElementBase::i3ElementBase
PUBLIC	??4i3ElementBase@@QAEAAV0@ABV0@@Z		; i3ElementBase::operator=
PUBLIC	??_Gi3ElementBase@@UAEPAXI@Z			; i3ElementBase::`scalar deleting destructor'
PUBLIC	??_Ei3ElementBase@@UAEPAXI@Z			; i3ElementBase::`vector deleting destructor'
PUBLIC	??0i3MemoryPool@@QAE@ABV0@@Z			; i3MemoryPool::i3MemoryPool
PUBLIC	??4i3MemoryPool@@QAEAAV0@ABV0@@Z		; i3MemoryPool::operator=
PUBLIC	??_Gi3MemoryPool@@UAEPAXI@Z			; i3MemoryPool::`scalar deleting destructor'
PUBLIC	??_Ei3MemoryPool@@UAEPAXI@Z			; i3MemoryPool::`vector deleting destructor'
PUBLIC	?GetClassMeta@i3Stream@@SAPAVi3ClassMeta@@XZ	; i3Stream::GetClassMeta
PUBLIC	?GetSize@i3Stream@@QAEIXZ			; i3Stream::GetSize
PUBLIC	?GetLastError@i3Stream@@QAE?AW4STREAMCODE@1@XZ	; i3Stream::GetLastError
PUBLIC	?GetAccessMode@i3Stream@@QAEHXZ			; i3Stream::GetAccessMode
PUBLIC	?GetHandle@i3Stream@@UAEPAXXZ			; i3Stream::GetHandle
PUBLIC	?BeginRecord@i3Stream@@QAEXXZ			; i3Stream::BeginRecord
PUBLIC	?GetRecordSize@i3Stream@@QAEIXZ			; i3Stream::GetRecordSize
PUBLIC	??0i3Stream@@QAE@ABV0@@Z			; i3Stream::i3Stream
PUBLIC	??4i3Stream@@QAEAAV0@ABV0@@Z			; i3Stream::operator=
PUBLIC	??_Gi3Stream@@UAEPAXI@Z				; i3Stream::`scalar deleting destructor'
PUBLIC	??_Ei3Stream@@UAEPAXI@Z				; i3Stream::`vector deleting destructor'
PUBLIC	?GetClassMeta@i3StringTable@@SAPAVi3ClassMeta@@XZ ; i3StringTable::GetClassMeta
PUBLIC	?GetMeta@i3StringTable@@UAEPAVi3ClassMeta@@XZ	; i3StringTable::GetMeta
PUBLIC	?RegisterMeta@i3StringTable@@SAXXZ		; i3StringTable::RegisterMeta
PUBLIC	?SetConcreteClass@i3StringTable@@SAXPAVi3ClassMeta@@@Z ; i3StringTable::SetConcreteClass
PUBLIC	?SetGhostClass@i3StringTable@@SAXPAVi3ClassMeta@@@Z ; i3StringTable::SetGhostClass
PUBLIC	?_NewObject@i3StringTable@@SAPAV1@XZ		; i3StringTable::_NewObject
PUBLIC	?_NewObjectRef@i3StringTable@@SAPAV1@XZ		; i3StringTable::_NewObjectRef
PUBLIC	?_BindObject@i3StringTable@@SAPAV1@PAX@Z	; i3StringTable::_BindObject
PUBLIC	?_BindObjectRef@i3StringTable@@SAPAV1@PAX@Z	; i3StringTable::_BindObjectRef
PUBLIC	?_NewObjectByType@i3StringTable@@SAPAV1@W4I3_CLASSMETA_TYPE@@@Z ; i3StringTable::_NewObjectByType
PUBLIC	?_NewObjectRefByType@i3StringTable@@SAPAV1@W4I3_CLASSMETA_TYPE@@@Z ; i3StringTable::_NewObjectRefByType
PUBLIC	?_BindObjectByType@i3StringTable@@SAPAV1@PAXW4I3_CLASSMETA_TYPE@@@Z ; i3StringTable::_BindObjectByType
PUBLIC	?_BindObjectRefByType@i3StringTable@@SAPAV1@PAXW4I3_CLASSMETA_TYPE@@@Z ; i3StringTable::_BindObjectRefByType
PUBLIC	?NewBuffers@i3StringTable@@IAEHXZ		; i3StringTable::NewBuffers
PUBLIC	??0i3StringTable@@QAE@XZ			; i3StringTable::i3StringTable
PUBLIC	??1i3StringTable@@UAE@XZ			; i3StringTable::~i3StringTable
PUBLIC	?DestroyBuffers@i3StringTable@@QAEXXZ		; i3StringTable::DestroyBuffers
PUBLIC	?CreateFromStream@i3StringTable@@QAEHPAVi3Stream@@@Z ; i3StringTable::CreateFromStream
PUBLIC	?GetCount@i3StringTable@@QAEIXZ			; i3StringTable::GetCount
PUBLIC	?GetLabel@i3StringTable@@QAEPBDH@Z		; i3StringTable::GetLabel
PUBLIC	?GetString@i3StringTable@@QAEPBGPBD@Z		; i3StringTable::GetString
PUBLIC	?GetString@i3StringTable@@QAEPBGH@Z		; i3StringTable::GetString
PUBLIC	?GetStringIndex@i3StringTable@@QAEHPBD@Z	; i3StringTable::GetStringIndex
PUBLIC	??0i3StringTable@@QAE@ABV0@@Z			; i3StringTable::i3StringTable
PUBLIC	??4i3StringTable@@QAEAAV0@ABV0@@Z		; i3StringTable::operator=
PUBLIC	??_Gi3StringTable@@UAEPAXI@Z			; i3StringTable::`scalar deleting destructor'
PUBLIC	??_Ei3StringTable@@UAEPAXI@Z			; i3StringTable::`vector deleting destructor'
PUBLIC	??0?$i3MetaTemplate@Vi3StringTable@@@@QAE@IPAD0W4I3_CLASSMETA_TYPE@@@Z ; i3MetaTemplate<i3StringTable>::i3MetaTemplate<i3StringTable>
PUBLIC	??_7i3ClassMeta@@6B@				; i3ClassMeta::`vftable'
PUBLIC	??_7i3ElementBase@@6B@				; i3ElementBase::`vftable'
PUBLIC	??_7i3MemoryPool@@6B@				; i3MemoryPool::`vftable'
PUBLIC	??_7i3Stream@@6B@				; i3Stream::`vftable'
PUBLIC	??_7i3StringTable@@6B@				; i3StringTable::`vftable'
PUBLIC	??_C@_0GI@PEOAIMBF@E?3?2Proyectos?2JuegosOnlineproyec@ ; `string'
PUBLIC	??_R4i3ElementBase@@6B@				; i3ElementBase::`RTTI Complete Object Locator'
PUBLIC	??_R0?AVi3ElementBase@@@8			; i3ElementBase `RTTI Type Descriptor'
PUBLIC	??_R3i3ElementBase@@8				; i3ElementBase::`RTTI Class Hierarchy Descriptor'
PUBLIC	??_R2i3ElementBase@@8				; i3ElementBase::`RTTI Base Class Array'
PUBLIC	??_R1A@?0A@EA@i3ElementBase@@8			; i3ElementBase::`RTTI Base Class Descriptor at (0,-1,0,64)'
PUBLIC	??_R4i3MemoryPool@@6B@				; i3MemoryPool::`RTTI Complete Object Locator'
PUBLIC	??_R0?AVi3MemoryPool@@@8			; i3MemoryPool `RTTI Type Descriptor'
PUBLIC	??_R3i3MemoryPool@@8				; i3MemoryPool::`RTTI Class Hierarchy Descriptor'
PUBLIC	??_R2i3MemoryPool@@8				; i3MemoryPool::`RTTI Base Class Array'
PUBLIC	??_R1A@?0A@EA@i3MemoryPool@@8			; i3MemoryPool::`RTTI Base Class Descriptor at (0,-1,0,64)'
PUBLIC	??_R4i3ClassMeta@@6B@				; i3ClassMeta::`RTTI Complete Object Locator'
PUBLIC	??_R4i3Stream@@6B@				; i3Stream::`RTTI Complete Object Locator'
PUBLIC	??_R0?AVi3Stream@@@8				; i3Stream `RTTI Type Descriptor'
PUBLIC	??_R3i3Stream@@8				; i3Stream::`RTTI Class Hierarchy Descriptor'
PUBLIC	??_R2i3Stream@@8				; i3Stream::`RTTI Base Class Array'
PUBLIC	??_R1A@?0A@EA@i3Stream@@8			; i3Stream::`RTTI Base Class Descriptor at (0,-1,0,64)'
PUBLIC	??_R4i3StringTable@@6B@				; i3StringTable::`RTTI Complete Object Locator'
PUBLIC	??_R0?AVi3StringTable@@@8			; i3StringTable `RTTI Type Descriptor'
PUBLIC	??_R3i3StringTable@@8				; i3StringTable::`RTTI Class Hierarchy Descriptor'
PUBLIC	??_R2i3StringTable@@8				; i3StringTable::`RTTI Base Class Array'
PUBLIC	??_R1A@?0A@EA@i3StringTable@@8			; i3StringTable::`RTTI Base Class Descriptor at (0,-1,0,64)'
EXTRN	??_M@YGXPAXIIP6EX0@Z@Z:PROC			; `eh vector destructor iterator'
EXTRN	__purecall:PROC
EXTRN	??3@YAXPAX@Z:PROC				; operator delete
EXTRN	??3@YAXPAXI@Z:PROC				; operator delete
EXTRN	??_V@YAXPAX@Z:PROC				; operator delete[]
EXTRN	??_V@YAXPAXI@Z:PROC				; operator delete[]
EXTRN	_atexit:PROC
EXTRN	___std_terminate:PROC
EXTRN	?AllocTool@i3mem@@YAPAXHHHPBDH@Z:PROC		; i3mem::AllocTool
EXTRN	?FreeTool@i3mem@@YAXPAXPBDH@Z:PROC		; i3mem::FreeTool
EXTRN	??0i3ClassMeta@@QAE@IPAD0W4I3_CLASSMETA_TYPE@@@Z:PROC ; i3ClassMeta::i3ClassMeta
EXTRN	??1i3ClassMeta@@UAE@XZ:PROC			; i3ClassMeta::~i3ClassMeta
EXTRN	?CreateInstance@i3ClassMeta@@UAEPAVi3ElementBase@@W4I3_CLASSMETA_TYPE@@@Z:PROC ; i3ClassMeta::CreateInstance
EXTRN	?BindInstance@i3ClassMeta@@UAEPAVi3ElementBase@@PAXW4I3_CLASSMETA_TYPE@@@Z:PROC ; i3ClassMeta::BindInstance
EXTRN	?IsTypeOf@i3ClassMeta@@QAE_NPAV1@@Z:PROC	; i3ClassMeta::IsTypeOf
EXTRN	?Register@i3ClassMeta@@QAEXXZ:PROC		; i3ClassMeta::Register
EXTRN	?GetConcreteClass@i3ClassMeta@@QAEPAV1@W4I3_CLASSMETA_TYPE@@@Z:PROC ; i3ClassMeta::GetConcreteClass
EXTRN	?SetConcreteClass@i3ClassMeta@@QAEXPAV1@@Z:PROC	; i3ClassMeta::SetConcreteClass
EXTRN	?SetGhostClass@i3ClassMeta@@QAEXPAV1@@Z:PROC	; i3ClassMeta::SetGhostClass
EXTRN	?GetMeta@i3ElementBase@@UAEPAVi3ClassMeta@@XZ:PROC ; i3ElementBase::GetMeta
EXTRN	??0i3ElementBase@@QAE@XZ:PROC			; i3ElementBase::i3ElementBase
EXTRN	??1i3ElementBase@@UAE@XZ:PROC			; i3ElementBase::~i3ElementBase
EXTRN	??2i3ElementBase@@SAPAXI@Z:PROC			; i3ElementBase::operator new
EXTRN	??2i3ElementBase@@SAPAXIPAX@Z:PROC		; i3ElementBase::operator new
EXTRN	??3i3ElementBase@@SAXPAX@Z:PROC			; i3ElementBase::operator delete
EXTRN	??3i3ElementBase@@SAXPAX0@Z:PROC		; i3ElementBase::operator delete
EXTRN	?CopyTo@i3ElementBase@@UAEXPAV1@W4I3_COPY_METHOD@@@Z:PROC ; i3ElementBase::CopyTo
EXTRN	??1i3MemoryPool@@UAE@XZ:PROC			; i3MemoryPool::~i3MemoryPool
EXTRN	?GetMeta@i3Stream@@UAEPAVi3ClassMeta@@XZ:PROC	; i3Stream::GetMeta
EXTRN	??1i3Stream@@UAE@XZ:PROC			; i3Stream::~i3Stream
EXTRN	?CopyTo@i3Stream@@UAEIPAV1@I@Z:PROC		; i3Stream::CopyTo
EXTRN	?CopyFrom@i3Stream@@UAEIPAV1@I@Z:PROC		; i3Stream::CopyFrom
EXTRN	?ReadLine@i3Stream@@UAEIPADH@Z:PROC		; i3Stream::ReadLine
EXTRN	?ReadLineW@i3Stream@@UAEIPAGH@Z:PROC		; i3Stream::ReadLineW
EXTRN	?WriteLine@i3Stream@@UAEIPBD@Z:PROC		; i3Stream::WriteLine
EXTRN	?WriteLineW@i3Stream@@UAEIPBG@Z:PROC		; i3Stream::WriteLineW
EXTRN	?Printf@i3Stream@@UAAIPADPBDZZ:PROC		; i3Stream::Printf
EXTRN	?Compare@i3String@@YAHPBD0@Z:PROC		; i3String::Compare
EXTRN	@__security_check_cookie@4:PROC
EXTRN	___CxxFrameHandler3:PROC
EXTRN	?s_pClassMetai3ElementBase@i3ElementBase@@2PAVi3ClassMeta@@A:DWORD ; i3ElementBase::s_pClassMetai3ElementBase
EXTRN	?s_pClassMetai3Stream@i3Stream@@2PAVi3ClassMeta@@A:DWORD ; i3Stream::s_pClassMetai3Stream
EXTRN	___security_cookie:DWORD
_BSS	SEGMENT
?s_ClassMetai3StringTable@@3V?$i3MetaTemplate@Vi3StringTable@@@@A DB 038H DUP (?) ; s_ClassMetai3StringTable
_BSS	ENDS
CRT$XCU	SEGMENT
?s_ClassMetai3StringTable$initializer$@@3P6AXXZA DD FLAT:??__Es_ClassMetai3StringTable@@YAXXZ ; s_ClassMetai3StringTable$initializer$
CRT$XCU	ENDS
;	COMDAT ??_R1A@?0A@EA@i3StringTable@@8
rdata$r	SEGMENT
??_R1A@?0A@EA@i3StringTable@@8 DD FLAT:??_R0?AVi3StringTable@@@8 ; i3StringTable::`RTTI Base Class Descriptor at (0,-1,0,64)'
	DD	01H
	DD	00H
	DD	0ffffffffH
	DD	00H
	DD	040H
	DD	FLAT:??_R3i3StringTable@@8
rdata$r	ENDS
;	COMDAT ??_R2i3StringTable@@8
rdata$r	SEGMENT
??_R2i3StringTable@@8 DD FLAT:??_R1A@?0A@EA@i3StringTable@@8 ; i3StringTable::`RTTI Base Class Array'
	DD	FLAT:??_R1A@?0A@EA@i3ElementBase@@8
rdata$r	ENDS
;	COMDAT ??_R3i3StringTable@@8
rdata$r	SEGMENT
??_R3i3StringTable@@8 DD 00H				; i3StringTable::`RTTI Class Hierarchy Descriptor'
	DD	00H
	DD	02H
	DD	FLAT:??_R2i3StringTable@@8
rdata$r	ENDS
;	COMDAT ??_R0?AVi3StringTable@@@8
data$rs	SEGMENT
??_R0?AVi3StringTable@@@8 DD FLAT:??_7type_info@@6B@	; i3StringTable `RTTI Type Descriptor'
	DD	00H
	DB	'.?AVi3StringTable@@', 00H
data$rs	ENDS
;	COMDAT ??_R4i3StringTable@@6B@
rdata$r	SEGMENT
??_R4i3StringTable@@6B@ DD 00H				; i3StringTable::`RTTI Complete Object Locator'
	DD	00H
	DD	00H
	DD	FLAT:??_R0?AVi3StringTable@@@8
	DD	FLAT:??_R3i3StringTable@@8
rdata$r	ENDS
;	COMDAT ??_R1A@?0A@EA@i3Stream@@8
rdata$r	SEGMENT
??_R1A@?0A@EA@i3Stream@@8 DD FLAT:??_R0?AVi3Stream@@@8	; i3Stream::`RTTI Base Class Descriptor at (0,-1,0,64)'
	DD	01H
	DD	00H
	DD	0ffffffffH
	DD	00H
	DD	040H
	DD	FLAT:??_R3i3Stream@@8
rdata$r	ENDS
;	COMDAT ??_R2i3Stream@@8
rdata$r	SEGMENT
??_R2i3Stream@@8 DD FLAT:??_R1A@?0A@EA@i3Stream@@8	; i3Stream::`RTTI Base Class Array'
	DD	FLAT:??_R1A@?0A@EA@i3ElementBase@@8
rdata$r	ENDS
;	COMDAT ??_R3i3Stream@@8
rdata$r	SEGMENT
??_R3i3Stream@@8 DD 00H					; i3Stream::`RTTI Class Hierarchy Descriptor'
	DD	00H
	DD	02H
	DD	FLAT:??_R2i3Stream@@8
rdata$r	ENDS
;	COMDAT ??_R0?AVi3Stream@@@8
data$rs	SEGMENT
??_R0?AVi3Stream@@@8 DD FLAT:??_7type_info@@6B@		; i3Stream `RTTI Type Descriptor'
	DD	00H
	DB	'.?AVi3Stream@@', 00H
data$rs	ENDS
;	COMDAT ??_R4i3Stream@@6B@
rdata$r	SEGMENT
??_R4i3Stream@@6B@ DD 00H				; i3Stream::`RTTI Complete Object Locator'
	DD	00H
	DD	00H
	DD	FLAT:??_R0?AVi3Stream@@@8
	DD	FLAT:??_R3i3Stream@@8
rdata$r	ENDS
;	COMDAT ??_R4i3ClassMeta@@6B@
rdata$r	SEGMENT
??_R4i3ClassMeta@@6B@ DD 00H				; i3ClassMeta::`RTTI Complete Object Locator'
	DD	00H
	DD	00H
	DD	FLAT:??_R0?AVi3ClassMeta@@@8
	DD	FLAT:??_R3i3ClassMeta@@8
rdata$r	ENDS
;	COMDAT ??_R1A@?0A@EA@i3MemoryPool@@8
rdata$r	SEGMENT
??_R1A@?0A@EA@i3MemoryPool@@8 DD FLAT:??_R0?AVi3MemoryPool@@@8 ; i3MemoryPool::`RTTI Base Class Descriptor at (0,-1,0,64)'
	DD	00H
	DD	00H
	DD	0ffffffffH
	DD	00H
	DD	040H
	DD	FLAT:??_R3i3MemoryPool@@8
rdata$r	ENDS
;	COMDAT ??_R2i3MemoryPool@@8
rdata$r	SEGMENT
??_R2i3MemoryPool@@8 DD FLAT:??_R1A@?0A@EA@i3MemoryPool@@8 ; i3MemoryPool::`RTTI Base Class Array'
rdata$r	ENDS
;	COMDAT ??_R3i3MemoryPool@@8
rdata$r	SEGMENT
??_R3i3MemoryPool@@8 DD 00H				; i3MemoryPool::`RTTI Class Hierarchy Descriptor'
	DD	00H
	DD	01H
	DD	FLAT:??_R2i3MemoryPool@@8
rdata$r	ENDS
;	COMDAT ??_R0?AVi3MemoryPool@@@8
data$rs	SEGMENT
??_R0?AVi3MemoryPool@@@8 DD FLAT:??_7type_info@@6B@	; i3MemoryPool `RTTI Type Descriptor'
	DD	00H
	DB	'.?AVi3MemoryPool@@', 00H
data$rs	ENDS
;	COMDAT ??_R4i3MemoryPool@@6B@
rdata$r	SEGMENT
??_R4i3MemoryPool@@6B@ DD 00H				; i3MemoryPool::`RTTI Complete Object Locator'
	DD	00H
	DD	00H
	DD	FLAT:??_R0?AVi3MemoryPool@@@8
	DD	FLAT:??_R3i3MemoryPool@@8
rdata$r	ENDS
;	COMDAT ??_R1A@?0A@EA@i3ElementBase@@8
rdata$r	SEGMENT
??_R1A@?0A@EA@i3ElementBase@@8 DD FLAT:??_R0?AVi3ElementBase@@@8 ; i3ElementBase::`RTTI Base Class Descriptor at (0,-1,0,64)'
	DD	00H
	DD	00H
	DD	0ffffffffH
	DD	00H
	DD	040H
	DD	FLAT:??_R3i3ElementBase@@8
rdata$r	ENDS
;	COMDAT ??_R2i3ElementBase@@8
rdata$r	SEGMENT
??_R2i3ElementBase@@8 DD FLAT:??_R1A@?0A@EA@i3ElementBase@@8 ; i3ElementBase::`RTTI Base Class Array'
rdata$r	ENDS
;	COMDAT ??_R3i3ElementBase@@8
rdata$r	SEGMENT
??_R3i3ElementBase@@8 DD 00H				; i3ElementBase::`RTTI Class Hierarchy Descriptor'
	DD	00H
	DD	01H
	DD	FLAT:??_R2i3ElementBase@@8
rdata$r	ENDS
;	COMDAT ??_R0?AVi3ElementBase@@@8
data$rs	SEGMENT
??_R0?AVi3ElementBase@@@8 DD FLAT:??_7type_info@@6B@	; i3ElementBase `RTTI Type Descriptor'
	DD	00H
	DB	'.?AVi3ElementBase@@', 00H
data$rs	ENDS
;	COMDAT ??_R4i3ElementBase@@6B@
rdata$r	SEGMENT
??_R4i3ElementBase@@6B@ DD 00H				; i3ElementBase::`RTTI Complete Object Locator'
	DD	00H
	DD	00H
	DD	FLAT:??_R0?AVi3ElementBase@@@8
	DD	FLAT:??_R3i3ElementBase@@8
rdata$r	ENDS
;	COMDAT ??_C@_0GI@PEOAIMBF@E?3?2Proyectos?2JuegosOnlineproyec@
CONST	SEGMENT
??_C@_0GI@PEOAIMBF@E?3?2Proyectos?2JuegosOnlineproyec@ DB 'E:\Proyectos\J'
	DB	'uegosOnlineproyectos\PB\pbblow\Piercing Blow Remake\i3Server\'
	DB	'src\i3Base\i3StringTable.cpp', 00H		; `string'
CONST	ENDS
;	COMDAT ??_7i3StringTable@@6B@
CONST	SEGMENT
??_7i3StringTable@@6B@ DD FLAT:??_R4i3StringTable@@6B@	; i3StringTable::`vftable'
	DD	FLAT:?GetMeta@i3StringTable@@UAEPAVi3ClassMeta@@XZ
	DD	FLAT:??_Ei3StringTable@@UAEPAXI@Z
	DD	FLAT:?CopyTo@i3ElementBase@@UAEXPAV1@W4I3_COPY_METHOD@@@Z
CONST	ENDS
;	COMDAT ??_7i3Stream@@6B@
CONST	SEGMENT
??_7i3Stream@@6B@ DD FLAT:??_R4i3Stream@@6B@		; i3Stream::`vftable'
	DD	FLAT:?GetMeta@i3Stream@@UAEPAVi3ClassMeta@@XZ
	DD	FLAT:??_Ei3Stream@@UAEPAXI@Z
	DD	FLAT:?CopyTo@i3ElementBase@@UAEXPAV1@W4I3_COPY_METHOD@@@Z
	DD	FLAT:?GetHandle@i3Stream@@UAEPAXXZ
	DD	FLAT:__purecall
	DD	FLAT:__purecall
	DD	FLAT:__purecall
	DD	FLAT:__purecall
	DD	FLAT:?CopyTo@i3Stream@@UAEIPAV1@I@Z
	DD	FLAT:__purecall
	DD	FLAT:?CopyFrom@i3Stream@@UAEIPAV1@I@Z
	DD	FLAT:__purecall
	DD	FLAT:__purecall
	DD	FLAT:?ReadLine@i3Stream@@UAEIPADH@Z
	DD	FLAT:?ReadLineW@i3Stream@@UAEIPAGH@Z
	DD	FLAT:?WriteLine@i3Stream@@UAEIPBD@Z
	DD	FLAT:?WriteLineW@i3Stream@@UAEIPBG@Z
	DD	FLAT:?Printf@i3Stream@@UAAIPADPBDZZ
CONST	ENDS
;	COMDAT ??_7i3MemoryPool@@6B@
CONST	SEGMENT
??_7i3MemoryPool@@6B@ DD FLAT:??_R4i3MemoryPool@@6B@	; i3MemoryPool::`vftable'
	DD	FLAT:??_Ei3MemoryPool@@UAEPAXI@Z
	DD	FLAT:__purecall
	DD	FLAT:__purecall
CONST	ENDS
;	COMDAT ??_7i3ElementBase@@6B@
CONST	SEGMENT
??_7i3ElementBase@@6B@ DD FLAT:??_R4i3ElementBase@@6B@	; i3ElementBase::`vftable'
	DD	FLAT:?GetMeta@i3ElementBase@@UAEPAVi3ClassMeta@@XZ
	DD	FLAT:??_Ei3ElementBase@@UAEPAXI@Z
	DD	FLAT:?CopyTo@i3ElementBase@@UAEXPAV1@W4I3_COPY_METHOD@@@Z
CONST	ENDS
;	COMDAT ??_7i3ClassMeta@@6B@
CONST	SEGMENT
??_7i3ClassMeta@@6B@ DD FLAT:??_R4i3ClassMeta@@6B@	; i3ClassMeta::`vftable'
	DD	FLAT:??_Ei3ClassMeta@@UAEPAXI@Z
	DD	FLAT:?CreateInstance@i3ClassMeta@@UAEPAVi3ElementBase@@W4I3_CLASSMETA_TYPE@@@Z
	DD	FLAT:?BindInstance@i3ClassMeta@@UAEPAVi3ElementBase@@PAXW4I3_CLASSMETA_TYPE@@@Z
CONST	ENDS
;	COMDAT xdata$x
xdata$x	SEGMENT
__unwindtable$?BindInstance@?$i3MetaTemplate@Vi3StringTable@@@@UAEPAVi3ElementBase@@PAXW4I3_CLASSMETA_TYPE@@@Z DD 0ffffffffH
	DD	FLAT:__unwindfunclet$?BindInstance@?$i3MetaTemplate@Vi3StringTable@@@@UAEPAVi3ElementBase@@PAXW4I3_CLASSMETA_TYPE@@@Z$0
__ehfuncinfo$?BindInstance@?$i3MetaTemplate@Vi3StringTable@@@@UAEPAVi3ElementBase@@PAXW4I3_CLASSMETA_TYPE@@@Z DD 019930522H
	DD	01H
	DD	FLAT:__unwindtable$?BindInstance@?$i3MetaTemplate@Vi3StringTable@@@@UAEPAVi3ElementBase@@PAXW4I3_CLASSMETA_TYPE@@@Z
	DD	2 DUP(00H)
	DD	2 DUP(00H)
	DD	00H
	DD	01H
xdata$x	ENDS
;	COMDAT xdata$x
xdata$x	SEGMENT
__unwindtable$?CreateInstance@?$i3MetaTemplate@Vi3StringTable@@@@UAEPAVi3ElementBase@@W4I3_CLASSMETA_TYPE@@@Z DD 0ffffffffH
	DD	FLAT:__unwindfunclet$?CreateInstance@?$i3MetaTemplate@Vi3StringTable@@@@UAEPAVi3ElementBase@@W4I3_CLASSMETA_TYPE@@@Z$0
__ehfuncinfo$?CreateInstance@?$i3MetaTemplate@Vi3StringTable@@@@UAEPAVi3ElementBase@@W4I3_CLASSMETA_TYPE@@@Z DD 019930522H
	DD	01H
	DD	FLAT:__unwindtable$?CreateInstance@?$i3MetaTemplate@Vi3StringTable@@@@UAEPAVi3ElementBase@@W4I3_CLASSMETA_TYPE@@@Z
	DD	2 DUP(00H)
	DD	2 DUP(00H)
	DD	00H
	DD	01H
xdata$x	ENDS
;	COMDAT xdata$x
xdata$x	SEGMENT
__unwindtable$??_Ei3StringTable@@UAEPAXI@Z DD 0ffffffffH
	DD	FLAT:___std_terminate
__ehfuncinfo$??_Ei3StringTable@@UAEPAXI@Z DD 019930522H
	DD	01H
	DD	FLAT:__unwindtable$??_Ei3StringTable@@UAEPAXI@Z
	DD	2 DUP(00H)
	DD	2 DUP(00H)
	DD	00H
	DD	05H
xdata$x	ENDS
;	COMDAT xdata$x
xdata$x	SEGMENT
__unwindtable$??_Gi3StringTable@@UAEPAXI@Z DD 0ffffffffH
	DD	FLAT:___std_terminate
__ehfuncinfo$??_Gi3StringTable@@UAEPAXI@Z DD 019930522H
	DD	01H
	DD	FLAT:__unwindtable$??_Gi3StringTable@@UAEPAXI@Z
	DD	2 DUP(00H)
	DD	2 DUP(00H)
	DD	00H
	DD	05H
xdata$x	ENDS
;	COMDAT xdata$x
xdata$x	SEGMENT
__ehfuncinfo$??1i3StringTable@@UAE@XZ DD 019930522H
	DD	00H
	DD	00H
	DD	2 DUP(00H)
	DD	2 DUP(00H)
	DD	00H
	DD	05H
xdata$x	ENDS
;	COMDAT xdata$x
xdata$x	SEGMENT
__ehfuncinfo$??_Ei3Stream@@UAEPAXI@Z DD 019930522H
	DD	00H
	DD	00H
	DD	2 DUP(00H)
	DD	2 DUP(00H)
	DD	00H
	DD	05H
xdata$x	ENDS
;	COMDAT xdata$x
xdata$x	SEGMENT
__ehfuncinfo$??_Ei3MemoryPool@@UAEPAXI@Z DD 019930522H
	DD	00H
	DD	00H
	DD	2 DUP(00H)
	DD	2 DUP(00H)
	DD	00H
	DD	05H
xdata$x	ENDS
;	COMDAT xdata$x
xdata$x	SEGMENT
__ehfuncinfo$??_Ei3ElementBase@@UAEPAXI@Z DD 019930522H
	DD	00H
	DD	00H
	DD	2 DUP(00H)
	DD	2 DUP(00H)
	DD	00H
	DD	05H
xdata$x	ENDS
;	COMDAT xdata$x
xdata$x	SEGMENT
__ehfuncinfo$??_Ei3ClassMeta@@UAEPAXI@Z DD 019930522H
	DD	00H
	DD	00H
	DD	2 DUP(00H)
	DD	2 DUP(00H)
	DD	00H
	DD	05H
xdata$x	ENDS
; Function compile flags: /Ogtp
;	COMDAT ??__Fs_ClassMetai3StringTable@@YAXXZ
text$yd	SEGMENT
??__Fs_ClassMetai3StringTable@@YAXXZ PROC		; `dynamic atexit destructor for 's_ClassMetai3StringTable'', COMDAT
  00000	b9 00 00 00 00	 mov	 ecx, OFFSET ?s_ClassMetai3StringTable@@3V?$i3MetaTemplate@Vi3StringTable@@@@A
  00005	e9 00 00 00 00	 jmp	 ??1i3ClassMeta@@UAE@XZ	; i3ClassMeta::~i3ClassMeta
??__Fs_ClassMetai3StringTable@@YAXXZ ENDP		; `dynamic atexit destructor for 's_ClassMetai3StringTable''
text$yd	ENDS
; Function compile flags: /Ogtp
; File E:\Proyectos\JuegosOnlineproyectos\PB\pbblow\Piercing Blow Remake\i3Server\src\i3Base\i3StringTable.cpp
; File E:\Proyectos\JuegosOnlineproyectos\PB\pbblow\Piercing Blow Remake\i3Server\include\i3Base\i3MetaTemplate.h
; File E:\Proyectos\JuegosOnlineproyectos\PB\pbblow\Piercing Blow Remake\i3Server\src\i3Base\i3StringTable.cpp
; File E:\Proyectos\JuegosOnlineproyectos\PB\pbblow\Piercing Blow Remake\i3Server\include\i3Base\i3MetaTemplate.h
; File E:\Proyectos\JuegosOnlineproyectos\PB\pbblow\Piercing Blow Remake\i3Server\src\i3Base\i3StringTable.cpp
;	COMDAT ??__Es_ClassMetai3StringTable@@YAXXZ
text$di	SEGMENT
??__Es_ClassMetai3StringTable@@YAXXZ PROC		; `dynamic initializer for 's_ClassMetai3StringTable'', COMDAT
; File E:\Proyectos\JuegosOnlineproyectos\PB\pbblow\Piercing Blow Remake\i3Server\include\i3Base\i3MetaTemplate.h

; 28   : : i3ClassMeta( classSz, pszClassName, pszBaseClassName, type)

  00000	6a 00		 push	 0
  00002	68 00 00 00 00	 push	 OFFSET ??_C@_0O@OCDFBOHM@i3ElementBase@
  00007	68 00 00 00 00	 push	 OFFSET ??_C@_0O@MBELPKLH@i3StringTable@
  0000c	6a 28		 push	 40			; 00000028H
  0000e	b9 00 00 00 00	 mov	 ecx, OFFSET ?s_ClassMetai3StringTable@@3V?$i3MetaTemplate@Vi3StringTable@@@@A
  00013	e8 00 00 00 00	 call	 ??0i3ClassMeta@@QAE@IPAD0W4I3_CLASSMETA_TYPE@@@Z ; i3ClassMeta::i3ClassMeta
; File E:\Proyectos\JuegosOnlineproyectos\PB\pbblow\Piercing Blow Remake\i3Server\src\i3Base\i3StringTable.cpp

; 7    : I3_CLASS_INSTANCE( i3StringTable, i3ElementBase );

  00018	68 00 00 00 00	 push	 OFFSET ??__Fs_ClassMetai3StringTable@@YAXXZ ; `dynamic atexit destructor for 's_ClassMetai3StringTable''
; File E:\Proyectos\JuegosOnlineproyectos\PB\pbblow\Piercing Blow Remake\i3Server\include\i3Base\i3MetaTemplate.h

; 29   : {

  0001d	c7 05 00 00 00
	00 00 00 00 00	 mov	 DWORD PTR ?s_ClassMetai3StringTable@@3V?$i3MetaTemplate@Vi3StringTable@@@@A, OFFSET ??_7?$i3MetaTemplate@Vi3StringTable@@@@6B@
; File E:\Proyectos\JuegosOnlineproyectos\PB\pbblow\Piercing Blow Remake\i3Server\src\i3Base\i3StringTable.cpp

; 7    : I3_CLASS_INSTANCE( i3StringTable, i3ElementBase );

  00027	e8 00 00 00 00	 call	 _atexit
  0002c	59		 pop	 ecx
  0002d	c3		 ret	 0
??__Es_ClassMetai3StringTable@@YAXXZ ENDP		; `dynamic initializer for 's_ClassMetai3StringTable''
text$di	ENDS
; Function compile flags: /Ogtp
;	COMDAT ??_G?$i3MetaTemplate@Vi3StringTable@@@@UAEPAXI@Z
_TEXT	SEGMENT
___flags$ = 8						; size = 4
??_G?$i3MetaTemplate@Vi3StringTable@@@@UAEPAXI@Z PROC	; i3MetaTemplate<i3StringTable>::`scalar deleting destructor', COMDAT
; _this$ = ecx
  00000	55		 push	 ebp
  00001	8b ec		 mov	 ebp, esp
  00003	56		 push	 esi
  00004	8b f1		 mov	 esi, ecx
  00006	e8 00 00 00 00	 call	 ??1i3ClassMeta@@UAE@XZ	; i3ClassMeta::~i3ClassMeta
  0000b	f6 45 08 01	 test	 BYTE PTR ___flags$[ebp], 1
  0000f	74 0b		 je	 SHORT $LN10@scalar
  00011	6a 38		 push	 56			; 00000038H
  00013	56		 push	 esi
  00014	e8 00 00 00 00	 call	 ??3@YAXPAXI@Z		; operator delete
  00019	83 c4 08	 add	 esp, 8
$LN10@scalar:
  0001c	8b c6		 mov	 eax, esi
  0001e	5e		 pop	 esi
  0001f	5d		 pop	 ebp
  00020	c2 04 00	 ret	 4
??_G?$i3MetaTemplate@Vi3StringTable@@@@UAEPAXI@Z ENDP	; i3MetaTemplate<i3StringTable>::`scalar deleting destructor'
_TEXT	ENDS
; Function compile flags: /Ogtp
; File E:\Proyectos\JuegosOnlineproyectos\PB\pbblow\Piercing Blow Remake\i3Server\include\i3Base\i3MetaTemplate.h
; File E:\Proyectos\JuegosOnlineproyectos\PB\pbblow\Piercing Blow Remake\i3Server\src\i3Base\i3StringTable.cpp
; File E:\Proyectos\JuegosOnlineproyectos\PB\pbblow\Piercing Blow Remake\i3Server\include\i3Base\i3MetaTemplate.h
; File E:\Proyectos\JuegosOnlineproyectos\PB\pbblow\Piercing Blow Remake\i3Server\src\i3Base\i3StringTable.cpp
; File E:\Proyectos\JuegosOnlineproyectos\PB\pbblow\Piercing Blow Remake\i3Server\include\i3Base\i3MetaTemplate.h
;	COMDAT ?BindInstance@?$i3MetaTemplate@Vi3StringTable@@@@UAEPAVi3ElementBase@@PAXW4I3_CLASSMETA_TYPE@@@Z
_TEXT	SEGMENT
__$EHRec$ = -12						; size = 12
_pBuf$ = 8						; size = 4
_type$ = 12						; size = 4
$T2 = 12						; size = 4
?BindInstance@?$i3MetaTemplate@Vi3StringTable@@@@UAEPAVi3ElementBase@@PAXW4I3_CLASSMETA_TYPE@@@Z PROC ; i3MetaTemplate<i3StringTable>::BindInstance, COMDAT
; _this$ = ecx

; 129  : 	{

  00000	55		 push	 ebp
  00001	8b ec		 mov	 ebp, esp
  00003	6a ff		 push	 -1
  00005	68 00 00 00 00	 push	 __ehhandler$?BindInstance@?$i3MetaTemplate@Vi3StringTable@@@@UAEPAVi3ElementBase@@PAXW4I3_CLASSMETA_TYPE@@@Z
  0000a	64 a1 00 00 00
	00		 mov	 eax, DWORD PTR fs:0
  00010	50		 push	 eax
  00011	56		 push	 esi
  00012	a1 00 00 00 00	 mov	 eax, DWORD PTR ___security_cookie
  00017	33 c5		 xor	 eax, ebp
  00019	50		 push	 eax
  0001a	8d 45 f4	 lea	 eax, DWORD PTR __$EHRec$[ebp]
  0001d	64 a3 00 00 00
	00		 mov	 DWORD PTR fs:0, eax

; 130  : 		if( m_ProxyCount > 0)

  00023	83 79 30 00	 cmp	 DWORD PTR [ecx+48], 0
  00027	7e 26		 jle	 SHORT $LN2@BindInstan

; 131  : 		{
; 132  : 			i3ClassMeta * pMeta = GetConcreteClass( type);

  00029	ff 75 0c	 push	 DWORD PTR _type$[ebp]
  0002c	e8 00 00 00 00	 call	 ?GetConcreteClass@i3ClassMeta@@QAEPAV1@W4I3_CLASSMETA_TYPE@@@Z ; i3ClassMeta::GetConcreteClass

; 133  : 
; 134  : 			return pMeta->BindInstance( pBuf, I3_CLASSMETA_TYPE_GENERAL);

  00031	6a 00		 push	 0
  00033	ff 75 08	 push	 DWORD PTR _pBuf$[ebp]
  00036	8b c8		 mov	 ecx, eax
  00038	8b 10		 mov	 edx, DWORD PTR [eax]
  0003a	ff 52 08	 call	 DWORD PTR [edx+8]

; 144  : 	}

  0003d	8b 4d f4	 mov	 ecx, DWORD PTR __$EHRec$[ebp]
  00040	64 89 0d 00 00
	00 00		 mov	 DWORD PTR fs:0, ecx
  00047	59		 pop	 ecx
  00048	5e		 pop	 esi
  00049	8b e5		 mov	 esp, ebp
  0004b	5d		 pop	 ebp
  0004c	c2 08 00	 ret	 8
$LN2@BindInstan:

; 141  : 				return (i3ElementBase *) new( pBuf ) T;

  0004f	ff 75 08	 push	 DWORD PTR _pBuf$[ebp]
  00052	6a 28		 push	 40			; 00000028H
  00054	e8 00 00 00 00	 call	 ??2i3ElementBase@@SAPAXIPAX@Z ; i3ElementBase::operator new
  00059	8b f0		 mov	 esi, eax
  0005b	83 c4 08	 add	 esp, 8
  0005e	89 75 0c	 mov	 DWORD PTR $T2[ebp], esi
  00061	c7 45 fc 00 00
	00 00		 mov	 DWORD PTR __$EHRec$[ebp+8], 0
  00068	85 f6		 test	 esi, esi
  0006a	74 4b		 je	 SHORT $LN5@BindInstan
; File E:\Proyectos\JuegosOnlineproyectos\PB\pbblow\Piercing Blow Remake\i3Server\src\i3Base\i3StringTable.cpp

; 10   : {

  0006c	8b ce		 mov	 ecx, esi
  0006e	e8 00 00 00 00	 call	 ??0i3ElementBase@@QAE@XZ ; i3ElementBase::i3ElementBase
  00073	c7 06 00 00 00
	00		 mov	 DWORD PTR [esi], OFFSET ??_7i3StringTable@@6B@
; File E:\Proyectos\JuegosOnlineproyectos\PB\pbblow\Piercing Blow Remake\i3Server\include\i3Base\i3MetaTemplate.h

; 141  : 				return (i3ElementBase *) new( pBuf ) T;

  00079	8b c6		 mov	 eax, esi
; File E:\Proyectos\JuegosOnlineproyectos\PB\pbblow\Piercing Blow Remake\i3Server\src\i3Base\i3StringTable.cpp

; 12   : 	m_pTable			= NULL;

  0007b	c7 46 10 00 00
	00 00		 mov	 DWORD PTR [esi+16], 0

; 13   : 	m_pLabelBuf			= NULL;

  00082	c7 46 14 00 00
	00 00		 mov	 DWORD PTR [esi+20], 0

; 14   : 	m_pStringBuf		= NULL;

  00089	c7 46 18 00 00
	00 00		 mov	 DWORD PTR [esi+24], 0

; 15   : 
; 16   : 	m_nNumString		= 0;

  00090	c7 46 1c 00 00
	00 00		 mov	 DWORD PTR [esi+28], 0

; 17   : 	m_nTotalLabelSize	= 0;

  00097	c7 46 20 00 00
	00 00		 mov	 DWORD PTR [esi+32], 0

; 18   : 	m_nTotalStringSize	= 0;

  0009e	c7 46 24 00 00
	00 00		 mov	 DWORD PTR [esi+36], 0
; File E:\Proyectos\JuegosOnlineproyectos\PB\pbblow\Piercing Blow Remake\i3Server\include\i3Base\i3MetaTemplate.h

; 144  : 	}

  000a5	8b 4d f4	 mov	 ecx, DWORD PTR __$EHRec$[ebp]
  000a8	64 89 0d 00 00
	00 00		 mov	 DWORD PTR fs:0, ecx
  000af	59		 pop	 ecx
  000b0	5e		 pop	 esi
  000b1	8b e5		 mov	 esp, ebp
  000b3	5d		 pop	 ebp
  000b4	c2 08 00	 ret	 8
$LN5@BindInstan:

; 141  : 				return (i3ElementBase *) new( pBuf ) T;

  000b7	33 f6		 xor	 esi, esi
  000b9	8b c6		 mov	 eax, esi

; 144  : 	}

  000bb	8b 4d f4	 mov	 ecx, DWORD PTR __$EHRec$[ebp]
  000be	64 89 0d 00 00
	00 00		 mov	 DWORD PTR fs:0, ecx
  000c5	59		 pop	 ecx
  000c6	5e		 pop	 esi
  000c7	8b e5		 mov	 esp, ebp
  000c9	5d		 pop	 ebp
  000ca	c2 08 00	 ret	 8
_TEXT	ENDS
;	COMDAT text$x
text$x	SEGMENT
__unwindfunclet$?BindInstance@?$i3MetaTemplate@Vi3StringTable@@@@UAEPAVi3ElementBase@@PAXW4I3_CLASSMETA_TYPE@@@Z$0:
  00000	8b 45 08	 mov	 eax, DWORD PTR _pBuf$[ebp]
  00003	50		 push	 eax
  00004	8b 45 0c	 mov	 eax, DWORD PTR $T2[ebp]
  00007	50		 push	 eax
  00008	e8 00 00 00 00	 call	 ??3i3ElementBase@@SAXPAX0@Z ; i3ElementBase::operator delete
  0000d	83 c4 08	 add	 esp, 8
  00010	c3		 ret	 0
  00011	cc		 int	 3
  00012	cc		 int	 3
  00013	cc		 int	 3
  00014	cc		 int	 3
  00015	cc		 int	 3
__ehhandler$?BindInstance@?$i3MetaTemplate@Vi3StringTable@@@@UAEPAVi3ElementBase@@PAXW4I3_CLASSMETA_TYPE@@@Z:
  00016	90		 npad	 1
  00017	90		 npad	 1
  00018	8b 54 24 08	 mov	 edx, DWORD PTR [esp+8]
  0001c	8d 42 0c	 lea	 eax, DWORD PTR [edx+12]
  0001f	8b 4a f8	 mov	 ecx, DWORD PTR [edx-8]
  00022	33 c8		 xor	 ecx, eax
  00024	e8 00 00 00 00	 call	 @__security_check_cookie@4
  00029	b8 00 00 00 00	 mov	 eax, OFFSET __ehfuncinfo$?BindInstance@?$i3MetaTemplate@Vi3StringTable@@@@UAEPAVi3ElementBase@@PAXW4I3_CLASSMETA_TYPE@@@Z
  0002e	e9 00 00 00 00	 jmp	 ___CxxFrameHandler3
text$x	ENDS
?BindInstance@?$i3MetaTemplate@Vi3StringTable@@@@UAEPAVi3ElementBase@@PAXW4I3_CLASSMETA_TYPE@@@Z ENDP ; i3MetaTemplate<i3StringTable>::BindInstance
; Function compile flags: /Ogtp
; File E:\Proyectos\JuegosOnlineproyectos\PB\pbblow\Piercing Blow Remake\i3Server\include\i3Base\i3MetaTemplate.h
; File E:\Proyectos\JuegosOnlineproyectos\PB\pbblow\Piercing Blow Remake\i3Server\include\i3Base\i3ElementBase.h
; File E:\Proyectos\JuegosOnlineproyectos\PB\pbblow\Piercing Blow Remake\i3Server\include\i3Base\i3MetaTemplate.h
; File E:\Proyectos\JuegosOnlineproyectos\PB\pbblow\Piercing Blow Remake\i3Server\include\i3Base\i3ElementBase.h
; File E:\Proyectos\JuegosOnlineproyectos\PB\pbblow\Piercing Blow Remake\i3Server\include\i3Base\i3MetaTemplate.h
;	COMDAT ?CreateInstance@?$i3MetaTemplate@Vi3StringTable@@@@UAEPAVi3ElementBase@@W4I3_CLASSMETA_TYPE@@@Z
_TEXT	SEGMENT
__$EHRec$ = -12						; size = 12
_type$ = 8						; size = 4
$T2 = 8							; size = 4
?CreateInstance@?$i3MetaTemplate@Vi3StringTable@@@@UAEPAVi3ElementBase@@W4I3_CLASSMETA_TYPE@@@Z PROC ; i3MetaTemplate<i3StringTable>::CreateInstance, COMDAT
; _this$ = ecx

; 97   : 	{

  00000	55		 push	 ebp
  00001	8b ec		 mov	 ebp, esp
  00003	6a ff		 push	 -1
  00005	68 00 00 00 00	 push	 __ehhandler$?CreateInstance@?$i3MetaTemplate@Vi3StringTable@@@@UAEPAVi3ElementBase@@W4I3_CLASSMETA_TYPE@@@Z
  0000a	64 a1 00 00 00
	00		 mov	 eax, DWORD PTR fs:0
  00010	50		 push	 eax
  00011	56		 push	 esi
  00012	57		 push	 edi
  00013	a1 00 00 00 00	 mov	 eax, DWORD PTR ___security_cookie
  00018	33 c5		 xor	 eax, ebp
  0001a	50		 push	 eax
  0001b	8d 45 f4	 lea	 eax, DWORD PTR __$EHRec$[ebp]
  0001e	64 a3 00 00 00
	00		 mov	 DWORD PTR fs:0, eax
  00024	8b f9		 mov	 edi, ecx

; 98   : 		if( m_ProxyCount > 0)

  00026	83 7f 30 00	 cmp	 DWORD PTR [edi+48], 0
  0002a	7e 28		 jle	 SHORT $LN3@CreateInst

; 99   : 		{
; 100  : 			i3ClassMeta * pMeta = GetConcreteClass( type);

  0002c	ff 75 08	 push	 DWORD PTR _type$[ebp]
  0002f	e8 00 00 00 00	 call	 ?GetConcreteClass@i3ClassMeta@@QAEPAV1@W4I3_CLASSMETA_TYPE@@@Z ; i3ClassMeta::GetConcreteClass

; 101  : 
; 102  : 			if( pMeta != NULL)

  00034	85 c0		 test	 eax, eax
  00036	74 1c		 je	 SHORT $LN3@CreateInst

; 103  : 				return pMeta->CreateInstance( I3_CLASSMETA_TYPE_GENERAL);

  00038	8b 10		 mov	 edx, DWORD PTR [eax]
  0003a	8b c8		 mov	 ecx, eax
  0003c	6a 00		 push	 0
  0003e	ff 52 04	 call	 DWORD PTR [edx+4]

; 125  : 	}

  00041	8b 4d f4	 mov	 ecx, DWORD PTR __$EHRec$[ebp]
  00044	64 89 0d 00 00
	00 00		 mov	 DWORD PTR fs:0, ecx
  0004b	59		 pop	 ecx
  0004c	5f		 pop	 edi
  0004d	5e		 pop	 esi
  0004e	8b e5		 mov	 esp, ebp
  00050	5d		 pop	 ebp
  00051	c2 04 00	 ret	 4
$LN3@CreateInst:

; 104  : 		}
; 105  : 
; 106  : 		{
; 107  : 			if( m_pPool == NULL)

  00054	8b 4f 34	 mov	 ecx, DWORD PTR [edi+52]
  00057	85 c9		 test	 ecx, ecx
  00059	75 47		 jne	 SHORT $LN4@CreateInst

; 108  : 			{
; 109  : 				#if defined( I3_DEBUG)
; 110  : 					return (i3ElementBase *) new T;
; 111  : 				#else
; 112  : 					return (i3ElementBase *) new T;

  0005b	6a 28		 push	 40			; 00000028H
  0005d	e8 00 00 00 00	 call	 ??2i3ElementBase@@SAPAXI@Z ; i3ElementBase::operator new
  00062	83 c4 04	 add	 esp, 4
  00065	89 45 08	 mov	 DWORD PTR $T2[ebp], eax
  00068	c7 45 fc 00 00
	00 00		 mov	 DWORD PTR __$EHRec$[ebp+8], 0
  0006f	85 c0		 test	 eax, eax
  00071	74 1a		 je	 SHORT $LN7@CreateInst
  00073	8b c8		 mov	 ecx, eax
  00075	e8 00 00 00 00	 call	 ??0i3StringTable@@QAE@XZ ; i3StringTable::i3StringTable

; 125  : 	}

  0007a	8b 4d f4	 mov	 ecx, DWORD PTR __$EHRec$[ebp]
  0007d	64 89 0d 00 00
	00 00		 mov	 DWORD PTR fs:0, ecx
  00084	59		 pop	 ecx
  00085	5f		 pop	 edi
  00086	5e		 pop	 esi
  00087	8b e5		 mov	 esp, ebp
  00089	5d		 pop	 ebp
  0008a	c2 04 00	 ret	 4
$LN7@CreateInst:

; 108  : 			{
; 109  : 				#if defined( I3_DEBUG)
; 110  : 					return (i3ElementBase *) new T;
; 111  : 				#else
; 112  : 					return (i3ElementBase *) new T;

  0008d	33 c0		 xor	 eax, eax

; 125  : 	}

  0008f	8b 4d f4	 mov	 ecx, DWORD PTR __$EHRec$[ebp]
  00092	64 89 0d 00 00
	00 00		 mov	 DWORD PTR fs:0, ecx
  00099	59		 pop	 ecx
  0009a	5f		 pop	 edi
  0009b	5e		 pop	 esi
  0009c	8b e5		 mov	 esp, ebp
  0009e	5d		 pop	 ebp
  0009f	c2 04 00	 ret	 4
$LN4@CreateInst:

; 113  : 				#endif
; 114  : 			}
; 115  : 			else
; 116  : 			{
; 117  : 				i3ElementBase * p = (i3ElementBase *) m_pPool->Alloc( sizeof(T), NULL, 0);

  000a2	8b 01		 mov	 eax, DWORD PTR [ecx]
  000a4	6a 00		 push	 0
  000a6	6a 00		 push	 0
  000a8	6a 28		 push	 40			; 00000028H
  000aa	ff 50 04	 call	 DWORD PTR [eax+4]

; 118  : 	
; 119  : 				BindInstance( p, type);

  000ad	ff 75 08	 push	 DWORD PTR _type$[ebp]
  000b0	8b 17		 mov	 edx, DWORD PTR [edi]
  000b2	8b f0		 mov	 esi, eax
  000b4	56		 push	 esi
  000b5	8b cf		 mov	 ecx, edi
  000b7	ff 52 08	 call	 DWORD PTR [edx+8]
; File E:\Proyectos\JuegosOnlineproyectos\PB\pbblow\Piercing Blow Remake\i3Server\include\i3Base\i3ElementBase.h

; 347  : 	void			__SetMemoryPool( i3MemoryPool * pPool)			{ m_pPool = pPool; }

  000ba	8b 4f 34	 mov	 ecx, DWORD PTR [edi+52]
; File E:\Proyectos\JuegosOnlineproyectos\PB\pbblow\Piercing Blow Remake\i3Server\include\i3Base\i3MetaTemplate.h

; 122  : 				return p;

  000bd	8b c6		 mov	 eax, esi
; File E:\Proyectos\JuegosOnlineproyectos\PB\pbblow\Piercing Blow Remake\i3Server\include\i3Base\i3ElementBase.h

; 347  : 	void			__SetMemoryPool( i3MemoryPool * pPool)			{ m_pPool = pPool; }

  000bf	89 4e 0c	 mov	 DWORD PTR [esi+12], ecx
; File E:\Proyectos\JuegosOnlineproyectos\PB\pbblow\Piercing Blow Remake\i3Server\include\i3Base\i3MetaTemplate.h

; 125  : 	}

  000c2	8b 4d f4	 mov	 ecx, DWORD PTR __$EHRec$[ebp]
  000c5	64 89 0d 00 00
	00 00		 mov	 DWORD PTR fs:0, ecx
  000cc	59		 pop	 ecx
  000cd	5f		 pop	 edi
  000ce	5e		 pop	 esi
  000cf	8b e5		 mov	 esp, ebp
  000d1	5d		 pop	 ebp
  000d2	c2 04 00	 ret	 4
_TEXT	ENDS
;	COMDAT text$x
text$x	SEGMENT
__unwindfunclet$?CreateInstance@?$i3MetaTemplate@Vi3StringTable@@@@UAEPAVi3ElementBase@@W4I3_CLASSMETA_TYPE@@@Z$0:
  00000	8b 45 08	 mov	 eax, DWORD PTR $T2[ebp]
  00003	50		 push	 eax
  00004	e8 00 00 00 00	 call	 ??3i3ElementBase@@SAXPAX@Z ; i3ElementBase::operator delete
  00009	59		 pop	 ecx
  0000a	c3		 ret	 0
  0000b	cc		 int	 3
  0000c	cc		 int	 3
  0000d	cc		 int	 3
  0000e	cc		 int	 3
  0000f	cc		 int	 3
__ehhandler$?CreateInstance@?$i3MetaTemplate@Vi3StringTable@@@@UAEPAVi3ElementBase@@W4I3_CLASSMETA_TYPE@@@Z:
  00010	90		 npad	 1
  00011	90		 npad	 1
  00012	8b 54 24 08	 mov	 edx, DWORD PTR [esp+8]
  00016	8d 42 0c	 lea	 eax, DWORD PTR [edx+12]
  00019	8b 4a f4	 mov	 ecx, DWORD PTR [edx-12]
  0001c	33 c8		 xor	 ecx, eax
  0001e	e8 00 00 00 00	 call	 @__security_check_cookie@4
  00023	b8 00 00 00 00	 mov	 eax, OFFSET __ehfuncinfo$?CreateInstance@?$i3MetaTemplate@Vi3StringTable@@@@UAEPAVi3ElementBase@@W4I3_CLASSMETA_TYPE@@@Z
  00028	e9 00 00 00 00	 jmp	 ___CxxFrameHandler3
text$x	ENDS
?CreateInstance@?$i3MetaTemplate@Vi3StringTable@@@@UAEPAVi3ElementBase@@W4I3_CLASSMETA_TYPE@@@Z ENDP ; i3MetaTemplate<i3StringTable>::CreateInstance
; Function compile flags: /Ogtp
; File E:\Proyectos\JuegosOnlineproyectos\PB\pbblow\Piercing Blow Remake\i3Server\include\i3Base\i3MetaTemplate.h
;	COMDAT ??0?$i3MetaTemplate@Vi3StringTable@@@@QAE@IPAD0W4I3_CLASSMETA_TYPE@@@Z
_TEXT	SEGMENT
_this$ = -4						; size = 4
_classSz$ = 8						; size = 4
_pszClassName$ = 12					; size = 4
_pszBaseClassName$ = 16					; size = 4
_type$ = 20						; size = 4
??0?$i3MetaTemplate@Vi3StringTable@@@@QAE@IPAD0W4I3_CLASSMETA_TYPE@@@Z PROC ; i3MetaTemplate<i3StringTable>::i3MetaTemplate<i3StringTable>, COMDAT
; _this$ = ecx

; 29   : {

  00000	55		 push	 ebp
  00001	8b ec		 mov	 ebp, esp
  00003	51		 push	 ecx
  00004	56		 push	 esi
  00005	ff 75 14	 push	 DWORD PTR _type$[ebp]
  00008	8b f1		 mov	 esi, ecx
  0000a	ff 75 10	 push	 DWORD PTR _pszBaseClassName$[ebp]
  0000d	89 75 fc	 mov	 DWORD PTR _this$[ebp], esi
  00010	ff 75 0c	 push	 DWORD PTR _pszClassName$[ebp]
  00013	ff 75 08	 push	 DWORD PTR _classSz$[ebp]
  00016	e8 00 00 00 00	 call	 ??0i3ClassMeta@@QAE@IPAD0W4I3_CLASSMETA_TYPE@@@Z ; i3ClassMeta::i3ClassMeta
  0001b	c7 06 00 00 00
	00		 mov	 DWORD PTR [esi], OFFSET ??_7?$i3MetaTemplate@Vi3StringTable@@@@6B@

; 30   : }

  00021	8b c6		 mov	 eax, esi
  00023	5e		 pop	 esi
  00024	8b e5		 mov	 esp, ebp
  00026	5d		 pop	 ebp
  00027	c2 10 00	 ret	 16			; 00000010H
??0?$i3MetaTemplate@Vi3StringTable@@@@QAE@IPAD0W4I3_CLASSMETA_TYPE@@@Z ENDP ; i3MetaTemplate<i3StringTable>::i3MetaTemplate<i3StringTable>
_TEXT	ENDS
; Function compile flags: /Ogtp
; File E:\Proyectos\JuegosOnlineproyectos\PB\pbblow\Piercing Blow Remake\i3Server\src\i3Base\i3StringTable.cpp
;	COMDAT ??_Ei3StringTable@@UAEPAXI@Z
_TEXT	SEGMENT
__$EHRec$ = -12						; size = 12
___flags$ = 8						; size = 4
??_Ei3StringTable@@UAEPAXI@Z PROC			; i3StringTable::`vector deleting destructor', COMDAT
; _this$ = ecx
  00000	55		 push	 ebp
  00001	8b ec		 mov	 ebp, esp
  00003	6a ff		 push	 -1
  00005	68 00 00 00 00	 push	 __ehhandler$??_Ei3StringTable@@UAEPAXI@Z
  0000a	64 a1 00 00 00
	00		 mov	 eax, DWORD PTR fs:0
  00010	50		 push	 eax
  00011	53		 push	 ebx
  00012	56		 push	 esi
  00013	57		 push	 edi
  00014	a1 00 00 00 00	 mov	 eax, DWORD PTR ___security_cookie
  00019	33 c5		 xor	 eax, ebp
  0001b	50		 push	 eax
  0001c	8d 45 f4	 lea	 eax, DWORD PTR __$EHRec$[ebp]
  0001f	64 a3 00 00 00
	00		 mov	 DWORD PTR fs:0, eax
  00025	8b f1		 mov	 esi, ecx
  00027	8b 5d 08	 mov	 ebx, DWORD PTR ___flags$[ebp]
  0002a	8b fb		 mov	 edi, ebx
  0002c	83 e7 01	 and	 edi, 1
  0002f	f6 c3 02	 test	 bl, 2
  00032	74 43		 je	 SHORT $LN2@vector
  00034	68 00 00 00 00	 push	 OFFSET ??1i3StringTable@@UAE@XZ ; i3StringTable::~i3StringTable
  00039	ff 76 fc	 push	 DWORD PTR [esi-4]
  0003c	8d 5e fc	 lea	 ebx, DWORD PTR [esi-4]
  0003f	6a 28		 push	 40			; 00000028H
  00041	56		 push	 esi
  00042	e8 00 00 00 00	 call	 ??_M@YGXPAXIIP6EX0@Z@Z
  00047	85 ff		 test	 edi, edi
  00049	74 16		 je	 SHORT $LN3@vector
  0004b	8b 0b		 mov	 ecx, DWORD PTR [ebx]
  0004d	8d 0c 89	 lea	 ecx, DWORD PTR [ecx+ecx*4]
  00050	8d 0c cd 04 00
	00 00		 lea	 ecx, DWORD PTR [ecx*8+4]
  00057	51		 push	 ecx
  00058	53		 push	 ebx
  00059	e8 00 00 00 00	 call	 ??_V@YAXPAXI@Z		; operator delete[]
  0005e	83 c4 08	 add	 esp, 8
$LN3@vector:
  00061	8b c3		 mov	 eax, ebx
  00063	8b 4d f4	 mov	 ecx, DWORD PTR __$EHRec$[ebp]
  00066	64 89 0d 00 00
	00 00		 mov	 DWORD PTR fs:0, ecx
  0006d	59		 pop	 ecx
  0006e	5f		 pop	 edi
  0006f	5e		 pop	 esi
  00070	5b		 pop	 ebx
  00071	8b e5		 mov	 esp, ebp
  00073	5d		 pop	 ebp
  00074	c2 04 00	 ret	 4
$LN2@vector:

; 23   : 	DestroyBuffers();

  00077	8b ce		 mov	 ecx, esi
  00079	c7 45 fc 00 00
	00 00		 mov	 DWORD PTR __$EHRec$[ebp+8], 0
  00080	c7 06 00 00 00
	00		 mov	 DWORD PTR [esi], OFFSET ??_7i3StringTable@@6B@
  00086	e8 00 00 00 00	 call	 ?DestroyBuffers@i3StringTable@@QAEXXZ ; i3StringTable::DestroyBuffers

; 24   : }

  0008b	8b ce		 mov	 ecx, esi
  0008d	e8 00 00 00 00	 call	 ??1i3ElementBase@@UAE@XZ ; i3ElementBase::~i3ElementBase
  00092	85 ff		 test	 edi, edi
  00094	74 1b		 je	 SHORT $LN6@vector
  00096	f6 c3 04	 test	 bl, 4
  00099	75 0b		 jne	 SHORT $LN5@vector
  0009b	56		 push	 esi
  0009c	e8 00 00 00 00	 call	 ??3i3ElementBase@@SAXPAX@Z ; i3ElementBase::operator delete
  000a1	83 c4 04	 add	 esp, 4
  000a4	eb 0b		 jmp	 SHORT $LN6@vector
$LN5@vector:

  000a6	6a 28		 push	 40			; 00000028H
  000a8	56		 push	 esi
  000a9	e8 00 00 00 00	 call	 ??3@YAXPAXI@Z		; operator delete
  000ae	83 c4 08	 add	 esp, 8
$LN6@vector:
  000b1	8b c6		 mov	 eax, esi
  000b3	8b 4d f4	 mov	 ecx, DWORD PTR __$EHRec$[ebp]
  000b6	64 89 0d 00 00
	00 00		 mov	 DWORD PTR fs:0, ecx
  000bd	59		 pop	 ecx
  000be	5f		 pop	 edi
  000bf	5e		 pop	 esi
  000c0	5b		 pop	 ebx
  000c1	8b e5		 mov	 esp, ebp
  000c3	5d		 pop	 ebp
  000c4	c2 04 00	 ret	 4
  000c7	cc		 int	 3
  000c8	cc		 int	 3
  000c9	cc		 int	 3
  000ca	cc		 int	 3
  000cb	cc		 int	 3
_TEXT	ENDS
;	COMDAT text$x
text$x	SEGMENT
__ehhandler$??_Ei3StringTable@@UAEPAXI@Z:
  00000	90		 npad	 1
  00001	90		 npad	 1
  00002	8b 54 24 08	 mov	 edx, DWORD PTR [esp+8]
  00006	8d 42 0c	 lea	 eax, DWORD PTR [edx+12]
  00009	8b 4a f0	 mov	 ecx, DWORD PTR [edx-16]
  0000c	33 c8		 xor	 ecx, eax
  0000e	e8 00 00 00 00	 call	 @__security_check_cookie@4
  00013	b8 00 00 00 00	 mov	 eax, OFFSET __ehfuncinfo$??_Ei3StringTable@@UAEPAXI@Z
  00018	e9 00 00 00 00	 jmp	 ___CxxFrameHandler3
text$x	ENDS
??_Ei3StringTable@@UAEPAXI@Z ENDP			; i3StringTable::`vector deleting destructor'
; Function compile flags: /Ogtp
; File E:\Proyectos\JuegosOnlineproyectos\PB\pbblow\Piercing Blow Remake\i3Server\src\i3Base\i3StringTable.cpp
;	COMDAT ??_Gi3StringTable@@UAEPAXI@Z
_TEXT	SEGMENT
__$EHRec$ = -12						; size = 12
___flags$ = 8						; size = 4
??_Gi3StringTable@@UAEPAXI@Z PROC			; i3StringTable::`scalar deleting destructor', COMDAT
; _this$ = ecx
  00000	55		 push	 ebp
  00001	8b ec		 mov	 ebp, esp
  00003	6a ff		 push	 -1
  00005	68 00 00 00 00	 push	 __ehhandler$??_Gi3StringTable@@UAEPAXI@Z
  0000a	64 a1 00 00 00
	00		 mov	 eax, DWORD PTR fs:0
  00010	50		 push	 eax
  00011	56		 push	 esi
  00012	a1 00 00 00 00	 mov	 eax, DWORD PTR ___security_cookie
  00017	33 c5		 xor	 eax, ebp
  00019	50		 push	 eax
  0001a	8d 45 f4	 lea	 eax, DWORD PTR __$EHRec$[ebp]
  0001d	64 a3 00 00 00
	00		 mov	 DWORD PTR fs:0, eax
  00023	8b f1		 mov	 esi, ecx

; 22   : {

  00025	c7 45 fc 00 00
	00 00		 mov	 DWORD PTR __$EHRec$[ebp+8], 0
  0002c	c7 06 00 00 00
	00		 mov	 DWORD PTR [esi], OFFSET ??_7i3StringTable@@6B@

; 23   : 	DestroyBuffers();

  00032	e8 00 00 00 00	 call	 ?DestroyBuffers@i3StringTable@@QAEXXZ ; i3StringTable::DestroyBuffers

; 24   : }

  00037	8b ce		 mov	 ecx, esi
  00039	e8 00 00 00 00	 call	 ??1i3ElementBase@@UAE@XZ ; i3ElementBase::~i3ElementBase
  0003e	8b 45 08	 mov	 eax, DWORD PTR ___flags$[ebp]
  00041	a8 01		 test	 al, 1
  00043	74 2c		 je	 SHORT $LN15@scalar
  00045	a8 04		 test	 al, 4
  00047	75 1d		 jne	 SHORT $LN3@scalar
  00049	56		 push	 esi
  0004a	e8 00 00 00 00	 call	 ??3i3ElementBase@@SAXPAX@Z ; i3ElementBase::operator delete
  0004f	83 c4 04	 add	 esp, 4
  00052	8b c6		 mov	 eax, esi
  00054	8b 4d f4	 mov	 ecx, DWORD PTR __$EHRec$[ebp]
  00057	64 89 0d 00 00
	00 00		 mov	 DWORD PTR fs:0, ecx
  0005e	59		 pop	 ecx
  0005f	5e		 pop	 esi
  00060	8b e5		 mov	 esp, ebp
  00062	5d		 pop	 ebp
  00063	c2 04 00	 ret	 4
$LN3@scalar:

  00066	6a 28		 push	 40			; 00000028H
  00068	56		 push	 esi
  00069	e8 00 00 00 00	 call	 ??3@YAXPAXI@Z		; operator delete
  0006e	83 c4 08	 add	 esp, 8
$LN15@scalar:
  00071	8b c6		 mov	 eax, esi
  00073	8b 4d f4	 mov	 ecx, DWORD PTR __$EHRec$[ebp]
  00076	64 89 0d 00 00
	00 00		 mov	 DWORD PTR fs:0, ecx
  0007d	59		 pop	 ecx
  0007e	5e		 pop	 esi
  0007f	8b e5		 mov	 esp, ebp
  00081	5d		 pop	 ebp
  00082	c2 04 00	 ret	 4
  00085	cc		 int	 3
  00086	cc		 int	 3
  00087	cc		 int	 3
  00088	cc		 int	 3
  00089	cc		 int	 3
_TEXT	ENDS
;	COMDAT text$x
text$x	SEGMENT
__ehhandler$??_Gi3StringTable@@UAEPAXI@Z:
  00000	90		 npad	 1
  00001	90		 npad	 1
  00002	8b 54 24 08	 mov	 edx, DWORD PTR [esp+8]
  00006	8d 42 0c	 lea	 eax, DWORD PTR [edx+12]
  00009	8b 4a f8	 mov	 ecx, DWORD PTR [edx-8]
  0000c	33 c8		 xor	 ecx, eax
  0000e	e8 00 00 00 00	 call	 @__security_check_cookie@4
  00013	b8 00 00 00 00	 mov	 eax, OFFSET __ehfuncinfo$??_Gi3StringTable@@UAEPAXI@Z
  00018	e9 00 00 00 00	 jmp	 ___CxxFrameHandler3
text$x	ENDS
??_Gi3StringTable@@UAEPAXI@Z ENDP			; i3StringTable::`scalar deleting destructor'
; Function compile flags: /Ogtp
;	COMDAT ??4i3StringTable@@QAEAAV0@ABV0@@Z
_TEXT	SEGMENT
___that$ = 8						; size = 4
??4i3StringTable@@QAEAAV0@ABV0@@Z PROC			; i3StringTable::operator=, COMDAT
; _this$ = ecx
  00000	55		 push	 ebp
  00001	8b ec		 mov	 ebp, esp
  00003	8b 55 08	 mov	 edx, DWORD PTR ___that$[ebp]
  00006	8b 42 04	 mov	 eax, DWORD PTR [edx+4]
  00009	89 41 04	 mov	 DWORD PTR [ecx+4], eax
  0000c	8b 42 08	 mov	 eax, DWORD PTR [edx+8]
  0000f	89 41 08	 mov	 DWORD PTR [ecx+8], eax
  00012	8b 42 0c	 mov	 eax, DWORD PTR [edx+12]
  00015	89 41 0c	 mov	 DWORD PTR [ecx+12], eax
  00018	8b 42 10	 mov	 eax, DWORD PTR [edx+16]
  0001b	89 41 10	 mov	 DWORD PTR [ecx+16], eax
  0001e	8b 42 14	 mov	 eax, DWORD PTR [edx+20]
  00021	89 41 14	 mov	 DWORD PTR [ecx+20], eax
  00024	8b 42 18	 mov	 eax, DWORD PTR [edx+24]
  00027	89 41 18	 mov	 DWORD PTR [ecx+24], eax
  0002a	8b 42 1c	 mov	 eax, DWORD PTR [edx+28]
  0002d	89 41 1c	 mov	 DWORD PTR [ecx+28], eax
  00030	8b 42 20	 mov	 eax, DWORD PTR [edx+32]
  00033	89 41 20	 mov	 DWORD PTR [ecx+32], eax
  00036	8b 42 24	 mov	 eax, DWORD PTR [edx+36]
  00039	89 41 24	 mov	 DWORD PTR [ecx+36], eax
  0003c	8b c1		 mov	 eax, ecx
  0003e	5d		 pop	 ebp
  0003f	c2 04 00	 ret	 4
??4i3StringTable@@QAEAAV0@ABV0@@Z ENDP			; i3StringTable::operator=
_TEXT	ENDS
; Function compile flags: /Ogtp
;	COMDAT ??0i3StringTable@@QAE@ABV0@@Z
_TEXT	SEGMENT
___that$ = 8						; size = 4
??0i3StringTable@@QAE@ABV0@@Z PROC			; i3StringTable::i3StringTable, COMDAT
; _this$ = ecx
  00000	55		 push	 ebp
  00001	8b ec		 mov	 ebp, esp
  00003	8b 55 08	 mov	 edx, DWORD PTR ___that$[ebp]
  00006	c7 01 00 00 00
	00		 mov	 DWORD PTR [ecx], OFFSET ??_7i3ElementBase@@6B@
  0000c	8b 42 04	 mov	 eax, DWORD PTR [edx+4]
  0000f	89 41 04	 mov	 DWORD PTR [ecx+4], eax
  00012	8b 42 08	 mov	 eax, DWORD PTR [edx+8]
  00015	89 41 08	 mov	 DWORD PTR [ecx+8], eax
  00018	8b 42 0c	 mov	 eax, DWORD PTR [edx+12]
  0001b	89 41 0c	 mov	 DWORD PTR [ecx+12], eax
  0001e	c7 01 00 00 00
	00		 mov	 DWORD PTR [ecx], OFFSET ??_7i3StringTable@@6B@
  00024	8b 42 10	 mov	 eax, DWORD PTR [edx+16]
  00027	89 41 10	 mov	 DWORD PTR [ecx+16], eax
  0002a	8b 42 14	 mov	 eax, DWORD PTR [edx+20]
  0002d	89 41 14	 mov	 DWORD PTR [ecx+20], eax
  00030	8b 42 18	 mov	 eax, DWORD PTR [edx+24]
  00033	89 41 18	 mov	 DWORD PTR [ecx+24], eax
  00036	8b 42 1c	 mov	 eax, DWORD PTR [edx+28]
  00039	89 41 1c	 mov	 DWORD PTR [ecx+28], eax
  0003c	8b 42 20	 mov	 eax, DWORD PTR [edx+32]
  0003f	89 41 20	 mov	 DWORD PTR [ecx+32], eax
  00042	8b 42 24	 mov	 eax, DWORD PTR [edx+36]
  00045	89 41 24	 mov	 DWORD PTR [ecx+36], eax
  00048	8b c1		 mov	 eax, ecx
  0004a	5d		 pop	 ebp
  0004b	c2 04 00	 ret	 4
??0i3StringTable@@QAE@ABV0@@Z ENDP			; i3StringTable::i3StringTable
_TEXT	ENDS
; Function compile flags: /Ogtp
; File E:\Proyectos\JuegosOnlineproyectos\PB\pbblow\Piercing Blow Remake\i3Server\src\i3Base\i3StringTable.cpp
;	COMDAT ?GetStringIndex@i3StringTable@@QAEHPBD@Z
_TEXT	SEGMENT
_szLabel$ = 8						; size = 4
?GetStringIndex@i3StringTable@@QAEHPBD@Z PROC		; i3StringTable::GetStringIndex, COMDAT
; _this$ = ecx

; 186  : {

  00000	55		 push	 ebp
  00001	8b ec		 mov	 ebp, esp
  00003	53		 push	 ebx
  00004	56		 push	 esi
  00005	57		 push	 edi
  00006	8b f9		 mov	 edi, ecx

; 187  : 	UINT32 i;
; 188  : 
; 189  : 	for( i = 0; i < m_nNumString; i++ )

  00008	33 f6		 xor	 esi, esi
  0000a	39 77 1c	 cmp	 DWORD PTR [edi+28], esi
  0000d	76 20		 jbe	 SHORT $LN3@GetStringI
  0000f	8b 5d 08	 mov	 ebx, DWORD PTR _szLabel$[ebp]
$LL4@GetStringI:

; 190  : 	{
; 191  : 		if( i3String::Compare( szLabel, &m_pLabelBuf[ m_pTable[i].LabelPos ] ) == 0 )

  00012	8b 47 10	 mov	 eax, DWORD PTR [edi+16]
  00015	8b 04 f0	 mov	 eax, DWORD PTR [eax+esi*8]
  00018	03 47 14	 add	 eax, DWORD PTR [edi+20]
  0001b	50		 push	 eax
  0001c	53		 push	 ebx
  0001d	e8 00 00 00 00	 call	 ?Compare@i3String@@YAHPBD0@Z ; i3String::Compare
  00022	83 c4 08	 add	 esp, 8
  00025	85 c0		 test	 eax, eax
  00027	74 10		 je	 SHORT $LN8@GetStringI

; 187  : 	UINT32 i;
; 188  : 
; 189  : 	for( i = 0; i < m_nNumString; i++ )

  00029	46		 inc	 esi
  0002a	3b 77 1c	 cmp	 esi, DWORD PTR [edi+28]
  0002d	72 e3		 jb	 SHORT $LL4@GetStringI
$LN3@GetStringI:
  0002f	5f		 pop	 edi

; 194  : 		}
; 195  : 	}
; 196  : 	return -1;
; 197  : }

  00030	5e		 pop	 esi
  00031	83 c8 ff	 or	 eax, -1
  00034	5b		 pop	 ebx
  00035	5d		 pop	 ebp
  00036	c2 04 00	 ret	 4
$LN8@GetStringI:
  00039	5f		 pop	 edi

; 192  : 		{
; 193  : 			return i;

  0003a	8b c6		 mov	 eax, esi

; 194  : 		}
; 195  : 	}
; 196  : 	return -1;
; 197  : }

  0003c	5e		 pop	 esi
  0003d	5b		 pop	 ebx
  0003e	5d		 pop	 ebp
  0003f	c2 04 00	 ret	 4
?GetStringIndex@i3StringTable@@QAEHPBD@Z ENDP		; i3StringTable::GetStringIndex
_TEXT	ENDS
; Function compile flags: /Ogtp
; File E:\Proyectos\JuegosOnlineproyectos\PB\pbblow\Piercing Blow Remake\i3Server\src\i3Base\i3StringTable.cpp
;	COMDAT ?GetString@i3StringTable@@QAEPBGH@Z
_TEXT	SEGMENT
_nIndex$ = 8						; size = 4
?GetString@i3StringTable@@QAEPBGH@Z PROC		; i3StringTable::GetString, COMDAT
; _this$ = ecx

; 175  : {

  00000	55		 push	 ebp
  00001	8b ec		 mov	 ebp, esp
  00003	8b d1		 mov	 edx, ecx

; 176  : 	if( nIndex < 0 || UINT32( nIndex ) >= m_nNumString )

  00005	8b 4d 08	 mov	 ecx, DWORD PTR _nIndex$[ebp]
  00008	85 c9		 test	 ecx, ecx
  0000a	78 16		 js	 SHORT $LN3@GetString
  0000c	3b 4a 1c	 cmp	 ecx, DWORD PTR [edx+28]
  0000f	73 11		 jae	 SHORT $LN3@GetString

; 179  : 	}
; 180  : 
; 181  : 	I3ASSERT( m_pStringBuf != NULL );
; 182  : 	return &m_pStringBuf[ m_pTable[nIndex].StringPos ];

  00011	8b 42 10	 mov	 eax, DWORD PTR [edx+16]
  00014	8b 4c c8 04	 mov	 ecx, DWORD PTR [eax+ecx*8+4]
  00018	8b 42 18	 mov	 eax, DWORD PTR [edx+24]
  0001b	8d 04 48	 lea	 eax, DWORD PTR [eax+ecx*2]

; 183  : }

  0001e	5d		 pop	 ebp
  0001f	c2 04 00	 ret	 4
$LN3@GetString:

; 177  : 	{
; 178  : 		return NULL;

  00022	33 c0		 xor	 eax, eax

; 183  : }

  00024	5d		 pop	 ebp
  00025	c2 04 00	 ret	 4
?GetString@i3StringTable@@QAEPBGH@Z ENDP		; i3StringTable::GetString
_TEXT	ENDS
; Function compile flags: /Ogtp
; File E:\Proyectos\JuegosOnlineproyectos\PB\pbblow\Piercing Blow Remake\i3Server\src\i3Base\i3StringTable.cpp
;	COMDAT ?GetString@i3StringTable@@QAEPBGPBD@Z
_TEXT	SEGMENT
_szLabel$ = 8						; size = 4
?GetString@i3StringTable@@QAEPBGPBD@Z PROC		; i3StringTable::GetString, COMDAT
; _this$ = ecx

; 161  : {

  00000	55		 push	 ebp
  00001	8b ec		 mov	 ebp, esp
  00003	53		 push	 ebx
  00004	56		 push	 esi
  00005	57		 push	 edi
  00006	8b f9		 mov	 edi, ecx

; 162  : 	UINT32 i;
; 163  : 
; 164  : 	for( i = 0; i < m_nNumString; i++ )

  00008	33 f6		 xor	 esi, esi
  0000a	39 77 1c	 cmp	 DWORD PTR [edi+28], esi
  0000d	76 27		 jbe	 SHORT $LN3@GetString
  0000f	90		 npad	 1
$LL4@GetString:

; 165  : 	{
; 166  : 		if( i3String::Compare( szLabel, &m_pLabelBuf[ m_pTable[i].LabelPos ] ) == 0 )

  00010	8b 47 10	 mov	 eax, DWORD PTR [edi+16]
  00013	8d 1c f5 00 00
	00 00		 lea	 ebx, DWORD PTR [esi*8]
  0001a	8b 04 18	 mov	 eax, DWORD PTR [eax+ebx]
  0001d	03 47 14	 add	 eax, DWORD PTR [edi+20]
  00020	50		 push	 eax
  00021	ff 75 08	 push	 DWORD PTR _szLabel$[ebp]
  00024	e8 00 00 00 00	 call	 ?Compare@i3String@@YAHPBD0@Z ; i3String::Compare
  00029	83 c4 08	 add	 esp, 8
  0002c	85 c0		 test	 eax, eax
  0002e	74 0f		 je	 SHORT $LN8@GetString

; 162  : 	UINT32 i;
; 163  : 
; 164  : 	for( i = 0; i < m_nNumString; i++ )

  00030	46		 inc	 esi
  00031	3b 77 1c	 cmp	 esi, DWORD PTR [edi+28]
  00034	72 da		 jb	 SHORT $LL4@GetString
$LN3@GetString:
  00036	5f		 pop	 edi

; 169  : 		}
; 170  : 	}
; 171  : 	return NULL;
; 172  : }

  00037	5e		 pop	 esi
  00038	33 c0		 xor	 eax, eax
  0003a	5b		 pop	 ebx
  0003b	5d		 pop	 ebp
  0003c	c2 04 00	 ret	 4
$LN8@GetString:

; 167  : 		{
; 168  : 			return &m_pStringBuf[ m_pTable[i].StringPos ];

  0003f	8b 47 10	 mov	 eax, DWORD PTR [edi+16]
  00042	8b 4c 18 04	 mov	 ecx, DWORD PTR [eax+ebx+4]
  00046	8b 47 18	 mov	 eax, DWORD PTR [edi+24]
  00049	5f		 pop	 edi

; 169  : 		}
; 170  : 	}
; 171  : 	return NULL;
; 172  : }

  0004a	5e		 pop	 esi
  0004b	5b		 pop	 ebx
  0004c	8d 04 48	 lea	 eax, DWORD PTR [eax+ecx*2]
  0004f	5d		 pop	 ebp
  00050	c2 04 00	 ret	 4
?GetString@i3StringTable@@QAEPBGPBD@Z ENDP		; i3StringTable::GetString
_TEXT	ENDS
; Function compile flags: /Ogtp
; File E:\Proyectos\JuegosOnlineproyectos\PB\pbblow\Piercing Blow Remake\i3Server\src\i3Base\i3StringTable.cpp
;	COMDAT ?GetLabel@i3StringTable@@QAEPBDH@Z
_TEXT	SEGMENT
_nIndex$ = 8						; size = 4
?GetLabel@i3StringTable@@QAEPBDH@Z PROC			; i3StringTable::GetLabel, COMDAT
; _this$ = ecx

; 150  : {

  00000	55		 push	 ebp
  00001	8b ec		 mov	 ebp, esp

; 151  : 	if( nIndex < 0 || UINT32( nIndex ) >= m_nNumString )

  00003	8b 55 08	 mov	 edx, DWORD PTR _nIndex$[ebp]
  00006	85 d2		 test	 edx, edx
  00008	78 12		 js	 SHORT $LN3@GetLabel
  0000a	3b 51 1c	 cmp	 edx, DWORD PTR [ecx+28]
  0000d	73 0d		 jae	 SHORT $LN3@GetLabel

; 154  : 	}
; 155  : 
; 156  : 	I3ASSERT( m_pLabelBuf != NULL );
; 157  : 	return &m_pLabelBuf[ m_pTable[nIndex].LabelPos ];

  0000f	8b 41 10	 mov	 eax, DWORD PTR [ecx+16]
  00012	8b 04 d0	 mov	 eax, DWORD PTR [eax+edx*8]
  00015	03 41 14	 add	 eax, DWORD PTR [ecx+20]

; 158  : }

  00018	5d		 pop	 ebp
  00019	c2 04 00	 ret	 4
$LN3@GetLabel:

; 152  : 	{
; 153  : 		return NULL;

  0001c	33 c0		 xor	 eax, eax

; 158  : }

  0001e	5d		 pop	 ebp
  0001f	c2 04 00	 ret	 4
?GetLabel@i3StringTable@@QAEPBDH@Z ENDP			; i3StringTable::GetLabel
_TEXT	ENDS
; Function compile flags: /Ogtp
; File E:\Proyectos\JuegosOnlineproyectos\PB\pbblow\Piercing Blow Remake\i3Server\include\i3Base\i3StringTable.h
;	COMDAT ?GetCount@i3StringTable@@QAEIXZ
_TEXT	SEGMENT
?GetCount@i3StringTable@@QAEIXZ PROC			; i3StringTable::GetCount, COMDAT
; _this$ = ecx

; 44   : 	UINT32 GetCount(){ return m_nNumString;	}

  00000	8b 41 1c	 mov	 eax, DWORD PTR [ecx+28]
  00003	c3		 ret	 0
?GetCount@i3StringTable@@QAEIXZ ENDP			; i3StringTable::GetCount
_TEXT	ENDS
; Function compile flags: /Ogtp
; File E:\Proyectos\JuegosOnlineproyectos\PB\pbblow\Piercing Blow Remake\i3Server\src\i3Base\i3StringTable.cpp
;	COMDAT ?CreateFromStream@i3StringTable@@QAEHPAVi3Stream@@@Z
_TEXT	SEGMENT
_nVersion$ = -20					; size = 2
_szHead$ = -16						; size = 10
__$ArrayPad$ = -4					; size = 4
_pStream$ = 8						; size = 4
?CreateFromStream@i3StringTable@@QAEHPAVi3Stream@@@Z PROC ; i3StringTable::CreateFromStream, COMDAT
; _this$ = ecx

; 55   : {

  00000	55		 push	 ebp
  00001	8b ec		 mov	 ebp, esp
  00003	83 ec 14	 sub	 esp, 20			; 00000014H
  00006	a1 00 00 00 00	 mov	 eax, DWORD PTR ___security_cookie
  0000b	33 c5		 xor	 eax, ebp
  0000d	89 45 fc	 mov	 DWORD PTR __$ArrayPad$[ebp], eax
  00010	56		 push	 esi
  00011	8b 75 08	 mov	 esi, DWORD PTR _pStream$[ebp]
  00014	57		 push	 edi
  00015	8b f9		 mov	 edi, ecx

; 56   : 	DestroyBuffers();

  00017	e8 00 00 00 00	 call	 ?DestroyBuffers@i3StringTable@@QAEXXZ ; i3StringTable::DestroyBuffers

; 57   : 
; 58   : 	BOOL bRet = FALSE;
; 59   : 
; 60   : 	// Head
; 61   : 	char szHead[10];
; 62   : 
; 63   : 	if( pStream->Read( szHead, 2 ) == STREAM_ERR)

  0001c	8b 06		 mov	 eax, DWORD PTR [esi]
  0001e	8d 4d f0	 lea	 ecx, DWORD PTR _szHead$[ebp]
  00021	6a 02		 push	 2
  00023	51		 push	 ecx
  00024	8b ce		 mov	 ecx, esi
  00026	ff 50 1c	 call	 DWORD PTR [eax+28]
  00029	83 f8 ff	 cmp	 eax, -1
  0002c	75 14		 jne	 SHORT $LN2@CreateFrom

; 64   : 	{
; 65   : 		I3TRACE( "Could not read a header of the stream.");
; 66   : 		return FALSE;

  0002e	5f		 pop	 edi
  0002f	33 c0		 xor	 eax, eax

; 147  : }

  00031	5e		 pop	 esi
  00032	8b 4d fc	 mov	 ecx, DWORD PTR __$ArrayPad$[ebp]
  00035	33 cd		 xor	 ecx, ebp
  00037	e8 00 00 00 00	 call	 @__security_check_cookie@4
  0003c	8b e5		 mov	 esp, ebp
  0003e	5d		 pop	 ebp
  0003f	c2 04 00	 ret	 4
$LN2@CreateFrom:

; 67   : 	}
; 68   : 
; 69   : 	if( szHead[0] != 'S' || szHead[1] != 'T' )

  00042	80 7d f0 53	 cmp	 BYTE PTR _szHead$[ebp], 83 ; 00000053H
  00046	53		 push	 ebx
  00047	0f 85 ba 00 00
	00		 jne	 $LN37@CreateFrom
  0004d	80 7d f1 54	 cmp	 BYTE PTR _szHead$[ebp+1], 84 ; 00000054H
  00051	0f 85 b0 00 00
	00		 jne	 $LN37@CreateFrom

; 70   : 	{
; 71   : 		I3TRACE( "Not String Table file.\n" );
; 72   : 		goto ExitLabel;
; 73   : 	}
; 74   : 
; 75   : 	// Version Number
; 76   : 	UINT16 nVersion;
; 77   : 	if( pStream->Read( &nVersion, sizeof(UINT16) ) == STREAM_ERR)

  00057	8b 06		 mov	 eax, DWORD PTR [esi]
  00059	8d 4d ec	 lea	 ecx, DWORD PTR _nVersion$[ebp]
  0005c	6a 02		 push	 2
  0005e	51		 push	 ecx
  0005f	8b ce		 mov	 ecx, esi
  00061	ff 50 1c	 call	 DWORD PTR [eax+28]
  00064	83 f8 ff	 cmp	 eax, -1
  00067	0f 84 9a 00 00
	00		 je	 $LN37@CreateFrom

; 78   : 	{
; 79   : 		I3TRACE( "Could not read a version number\n");
; 80   : 		goto ExitLabel;
; 81   : 	}
; 82   : 
; 83   : 	if( nVersion != 1 )

  0006d	66 83 7d ec 01	 cmp	 WORD PTR _nVersion$[ebp], 1
  00072	0f 85 8f 00 00
	00		 jne	 $LN37@CreateFrom

; 84   : 	{
; 85   : 		I3TRACE( "Version number is incorrect. (%d)\n", nVersion );
; 86   : 		goto ExitLabel;
; 87   : 	}
; 88   : 
; 89   : 	// Number of Strings
; 90   : 	if( pStream->Read( &m_nNumString, sizeof(m_nNumString) ) == STREAM_ERR)

  00078	8b 06		 mov	 eax, DWORD PTR [esi]
  0007a	8d 5f 1c	 lea	 ebx, DWORD PTR [edi+28]
  0007d	6a 04		 push	 4
  0007f	53		 push	 ebx
  00080	8b ce		 mov	 ecx, esi
  00082	ff 50 1c	 call	 DWORD PTR [eax+28]
  00085	83 f8 ff	 cmp	 eax, -1
  00088	74 7d		 je	 SHORT $LN37@CreateFrom

; 91   : 	{
; 92   : 		I3TRACE( "Could not read number of strings information\n");
; 93   : 		goto ExitLabel;
; 94   : 	}
; 95   : 
; 96   : 	if( m_nNumString <= 0 )

  0008a	83 3b 00	 cmp	 DWORD PTR [ebx], 0
  0008d	76 78		 jbe	 SHORT $LN37@CreateFrom

; 97   : 	{
; 98   : 		I3TRACE( "Number of string is negative. (%d)\n", m_nNumString );
; 99   : 		goto ExitLabel;
; 100  : 	}
; 101  : 
; 102  : 	// Total size of labels
; 103  : 	if( pStream->Read( &m_nTotalLabelSize, sizeof(m_nTotalLabelSize)) == STREAM_ERR)

  0008f	8b 06		 mov	 eax, DWORD PTR [esi]
  00091	8d 4f 20	 lea	 ecx, DWORD PTR [edi+32]
  00094	6a 04		 push	 4
  00096	51		 push	 ecx
  00097	8b ce		 mov	 ecx, esi
  00099	ff 50 1c	 call	 DWORD PTR [eax+28]
  0009c	83 f8 ff	 cmp	 eax, -1
  0009f	74 66		 je	 SHORT $LN37@CreateFrom

; 104  : 	{
; 105  : 		I3TRACE( "Could not read total label size information\n");
; 106  : 		goto ExitLabel;
; 107  : 	}
; 108  : 	
; 109  : 	// Total size of strings
; 110  : 	if( pStream->Read( &m_nTotalStringSize, sizeof(m_nTotalStringSize) ) == STREAM_ERR)

  000a1	8b 06		 mov	 eax, DWORD PTR [esi]
  000a3	8d 4f 24	 lea	 ecx, DWORD PTR [edi+36]
  000a6	6a 04		 push	 4
  000a8	51		 push	 ecx
  000a9	8b ce		 mov	 ecx, esi
  000ab	ff 50 1c	 call	 DWORD PTR [eax+28]
  000ae	83 f8 ff	 cmp	 eax, -1
  000b1	74 54		 je	 SHORT $LN37@CreateFrom

; 111  : 	{
; 112  : 		I3TRACE( "Could not read total string size information\n");
; 113  : 		goto ExitLabel;
; 114  : 	}
; 115  : 
; 116  : 	// New Buffer
; 117  : 	if( ! NewBuffers() )

  000b3	8b cf		 mov	 ecx, edi
  000b5	e8 00 00 00 00	 call	 ?NewBuffers@i3StringTable@@IAEHXZ ; i3StringTable::NewBuffers
  000ba	85 c0		 test	 eax, eax
  000bc	74 49		 je	 SHORT $LN37@CreateFrom

; 118  : 	{
; 119  : 		goto ExitLabel;
; 120  : 	}
; 121  :     
; 122  : 	UINT32 nLength;
; 123  : 	nLength = pStream->Read( m_pTable, sizeof(STRING_INFO) * m_nNumString );

  000be	8b 03		 mov	 eax, DWORD PTR [ebx]
  000c0	8b ce		 mov	 ecx, esi
  000c2	8b 16		 mov	 edx, DWORD PTR [esi]
  000c4	c1 e0 03	 shl	 eax, 3
  000c7	50		 push	 eax
  000c8	ff 77 10	 push	 DWORD PTR [edi+16]
  000cb	ff 52 1c	 call	 DWORD PTR [edx+28]
  000ce	8b c8		 mov	 ecx, eax

; 124  : 	if( nLength != (sizeof(STRING_INFO) * m_nNumString) )

  000d0	8b 03		 mov	 eax, DWORD PTR [ebx]
  000d2	c1 e0 03	 shl	 eax, 3
  000d5	3b c8		 cmp	 ecx, eax
  000d7	75 2e		 jne	 SHORT $LN37@CreateFrom

; 125  : 	{
; 126  : 		I3TRACE( "Failed to read Information table.\n" );
; 127  : 		goto ExitLabel;
; 128  : 	}
; 129  : 
; 130  : 	nLength = pStream->Read( m_pLabelBuf, m_nTotalLabelSize );

  000d9	ff 77 20	 push	 DWORD PTR [edi+32]
  000dc	8b 06		 mov	 eax, DWORD PTR [esi]
  000de	8b ce		 mov	 ecx, esi
  000e0	ff 77 14	 push	 DWORD PTR [edi+20]
  000e3	ff 50 1c	 call	 DWORD PTR [eax+28]

; 131  : 	if( nLength != m_nTotalLabelSize )

  000e6	3b 47 20	 cmp	 eax, DWORD PTR [edi+32]
  000e9	75 1c		 jne	 SHORT $LN37@CreateFrom

; 132  : 	{
; 133  : 		I3TRACE( "Failed to read labels.\n" );
; 134  : 		goto ExitLabel;
; 135  : 	}
; 136  : 
; 137  : 	nLength = pStream->Read( m_pStringBuf, m_nTotalStringSize );

  000eb	ff 77 24	 push	 DWORD PTR [edi+36]
  000ee	8b 16		 mov	 edx, DWORD PTR [esi]
  000f0	8b ce		 mov	 ecx, esi
  000f2	ff 77 18	 push	 DWORD PTR [edi+24]
  000f5	ff 52 1c	 call	 DWORD PTR [edx+28]

; 138  : 	if( nLength != m_nTotalStringSize )

  000f8	33 c9		 xor	 ecx, ecx
  000fa	ba 01 00 00 00	 mov	 edx, 1
  000ff	3b 47 24	 cmp	 eax, DWORD PTR [edi+36]
  00102	0f 44 ca	 cmove	 ecx, edx
  00105	eb 02		 jmp	 SHORT $ExitLabel$52
$LN37@CreateFrom:

; 139  : 	{
; 140  : 		I3TRACE( "Failed to read strings.\n" );
; 141  : 		goto ExitLabel;
; 142  : 	}
; 143  : 
; 144  : 	bRet= TRUE;
; 145  : ExitLabel:
; 146  : 	return bRet;

  00107	33 c9		 xor	 ecx, ecx
$ExitLabel$52:
  00109	8b c1		 mov	 eax, ecx

; 147  : }

  0010b	8b 4d fc	 mov	 ecx, DWORD PTR __$ArrayPad$[ebp]
  0010e	5b		 pop	 ebx
  0010f	5f		 pop	 edi
  00110	33 cd		 xor	 ecx, ebp
  00112	5e		 pop	 esi
  00113	e8 00 00 00 00	 call	 @__security_check_cookie@4
  00118	8b e5		 mov	 esp, ebp
  0011a	5d		 pop	 ebp
  0011b	c2 04 00	 ret	 4
?CreateFromStream@i3StringTable@@QAEHPAVi3Stream@@@Z ENDP ; i3StringTable::CreateFromStream
_TEXT	ENDS
; Function compile flags: /Ogtp
; File E:\Proyectos\JuegosOnlineproyectos\PB\pbblow\Piercing Blow Remake\i3Server\src\i3Base\i3StringTable.cpp
;	COMDAT ?DestroyBuffers@i3StringTable@@QAEXXZ
_TEXT	SEGMENT
?DestroyBuffers@i3StringTable@@QAEXXZ PROC		; i3StringTable::DestroyBuffers, COMDAT
; _this$ = ecx

; 27   : {

  00000	56		 push	 esi
  00001	8b f1		 mov	 esi, ecx

; 28   : 	I3MEM_SAFE_FREE_POINTER( m_pTable);

  00003	8b 46 10	 mov	 eax, DWORD PTR [esi+16]
  00006	85 c0		 test	 eax, eax
  00008	74 17		 je	 SHORT $LN2@DestroyBuf
  0000a	6a 1c		 push	 28			; 0000001cH
  0000c	68 00 00 00 00	 push	 OFFSET ??_C@_0GI@PEOAIMBF@E?3?2Proyectos?2JuegosOnlineproyec@
  00011	50		 push	 eax
  00012	e8 00 00 00 00	 call	 ?FreeTool@i3mem@@YAXPAXPBDH@Z ; i3mem::FreeTool
  00017	83 c4 0c	 add	 esp, 12			; 0000000cH
  0001a	c7 46 10 00 00
	00 00		 mov	 DWORD PTR [esi+16], 0
$LN2@DestroyBuf:

; 29   : 	I3MEM_SAFE_FREE_POINTER( m_pLabelBuf);

  00021	8b 46 14	 mov	 eax, DWORD PTR [esi+20]
  00024	85 c0		 test	 eax, eax
  00026	74 17		 je	 SHORT $LN3@DestroyBuf
  00028	6a 1d		 push	 29			; 0000001dH
  0002a	68 00 00 00 00	 push	 OFFSET ??_C@_0GI@PEOAIMBF@E?3?2Proyectos?2JuegosOnlineproyec@
  0002f	50		 push	 eax
  00030	e8 00 00 00 00	 call	 ?FreeTool@i3mem@@YAXPAXPBDH@Z ; i3mem::FreeTool
  00035	83 c4 0c	 add	 esp, 12			; 0000000cH
  00038	c7 46 14 00 00
	00 00		 mov	 DWORD PTR [esi+20], 0
$LN3@DestroyBuf:

; 30   : 	I3MEM_SAFE_FREE_POINTER( m_pStringBuf);

  0003f	8b 46 18	 mov	 eax, DWORD PTR [esi+24]
  00042	85 c0		 test	 eax, eax
  00044	74 17		 je	 SHORT $LN4@DestroyBuf
  00046	6a 1e		 push	 30			; 0000001eH
  00048	68 00 00 00 00	 push	 OFFSET ??_C@_0GI@PEOAIMBF@E?3?2Proyectos?2JuegosOnlineproyec@
  0004d	50		 push	 eax
  0004e	e8 00 00 00 00	 call	 ?FreeTool@i3mem@@YAXPAXPBDH@Z ; i3mem::FreeTool
  00053	83 c4 0c	 add	 esp, 12			; 0000000cH
  00056	c7 46 18 00 00
	00 00		 mov	 DWORD PTR [esi+24], 0
$LN4@DestroyBuf:

; 31   : 
; 32   : 	m_nNumString		= 0;

  0005d	c7 46 1c 00 00
	00 00		 mov	 DWORD PTR [esi+28], 0

; 33   : 	m_nTotalLabelSize	= 0;

  00064	c7 46 20 00 00
	00 00		 mov	 DWORD PTR [esi+32], 0

; 34   : 	m_nTotalStringSize	= 0;

  0006b	c7 46 24 00 00
	00 00		 mov	 DWORD PTR [esi+36], 0
  00072	5e		 pop	 esi

; 35   : }

  00073	c3		 ret	 0
?DestroyBuffers@i3StringTable@@QAEXXZ ENDP		; i3StringTable::DestroyBuffers
_TEXT	ENDS
; Function compile flags: /Ogtp
; File E:\Proyectos\JuegosOnlineproyectos\PB\pbblow\Piercing Blow Remake\i3Server\src\i3Base\i3StringTable.cpp
;	COMDAT ??1i3StringTable@@UAE@XZ
_TEXT	SEGMENT
__$EHRec$ = -12						; size = 12
??1i3StringTable@@UAE@XZ PROC				; i3StringTable::~i3StringTable, COMDAT
; _this$ = ecx

; 22   : {

  00000	55		 push	 ebp
  00001	8b ec		 mov	 ebp, esp
  00003	6a ff		 push	 -1
  00005	68 00 00 00 00	 push	 __ehhandler$??1i3StringTable@@UAE@XZ
  0000a	64 a1 00 00 00
	00		 mov	 eax, DWORD PTR fs:0
  00010	50		 push	 eax
  00011	56		 push	 esi
  00012	a1 00 00 00 00	 mov	 eax, DWORD PTR ___security_cookie
  00017	33 c5		 xor	 eax, ebp
  00019	50		 push	 eax
  0001a	8d 45 f4	 lea	 eax, DWORD PTR __$EHRec$[ebp]
  0001d	64 a3 00 00 00
	00		 mov	 DWORD PTR fs:0, eax
  00023	8b f1		 mov	 esi, ecx
  00025	c7 06 00 00 00
	00		 mov	 DWORD PTR [esi], OFFSET ??_7i3StringTable@@6B@

; 23   : 	DestroyBuffers();

  0002b	e8 00 00 00 00	 call	 ?DestroyBuffers@i3StringTable@@QAEXXZ ; i3StringTable::DestroyBuffers

; 24   : }

  00030	8b ce		 mov	 ecx, esi
  00032	e8 00 00 00 00	 call	 ??1i3ElementBase@@UAE@XZ ; i3ElementBase::~i3ElementBase
  00037	8b 4d f4	 mov	 ecx, DWORD PTR __$EHRec$[ebp]
  0003a	64 89 0d 00 00
	00 00		 mov	 DWORD PTR fs:0, ecx
  00041	59		 pop	 ecx
  00042	5e		 pop	 esi
  00043	8b e5		 mov	 esp, ebp
  00045	5d		 pop	 ebp
  00046	c3		 ret	 0
  00047	cc		 int	 3
  00048	cc		 int	 3
  00049	cc		 int	 3
  0004a	cc		 int	 3
  0004b	cc		 int	 3
_TEXT	ENDS
;	COMDAT text$x
text$x	SEGMENT
__ehhandler$??1i3StringTable@@UAE@XZ:
  00000	90		 npad	 1
  00001	90		 npad	 1
  00002	8b 54 24 08	 mov	 edx, DWORD PTR [esp+8]
  00006	8d 42 0c	 lea	 eax, DWORD PTR [edx+12]
  00009	8b 4a f8	 mov	 ecx, DWORD PTR [edx-8]
  0000c	33 c8		 xor	 ecx, eax
  0000e	e8 00 00 00 00	 call	 @__security_check_cookie@4
  00013	b8 00 00 00 00	 mov	 eax, OFFSET __ehfuncinfo$??1i3StringTable@@UAE@XZ
  00018	e9 00 00 00 00	 jmp	 ___CxxFrameHandler3
text$x	ENDS
??1i3StringTable@@UAE@XZ ENDP				; i3StringTable::~i3StringTable
; Function compile flags: /Ogtp
; File E:\Proyectos\JuegosOnlineproyectos\PB\pbblow\Piercing Blow Remake\i3Server\src\i3Base\i3StringTable.cpp
;	COMDAT ??0i3StringTable@@QAE@XZ
_TEXT	SEGMENT
_this$ = -4						; size = 4
??0i3StringTable@@QAE@XZ PROC				; i3StringTable::i3StringTable, COMDAT
; _this$ = ecx

; 10   : {

  00000	55		 push	 ebp
  00001	8b ec		 mov	 ebp, esp
  00003	51		 push	 ecx
  00004	56		 push	 esi
  00005	8b f1		 mov	 esi, ecx
  00007	89 75 fc	 mov	 DWORD PTR _this$[ebp], esi
  0000a	e8 00 00 00 00	 call	 ??0i3ElementBase@@QAE@XZ ; i3ElementBase::i3ElementBase
  0000f	c7 06 00 00 00
	00		 mov	 DWORD PTR [esi], OFFSET ??_7i3StringTable@@6B@

; 11   : 
; 12   : 	m_pTable			= NULL;
; 13   : 	m_pLabelBuf			= NULL;
; 14   : 	m_pStringBuf		= NULL;
; 15   : 
; 16   : 	m_nNumString		= 0;
; 17   : 	m_nTotalLabelSize	= 0;
; 18   : 	m_nTotalStringSize	= 0;
; 19   : }

  00015	8b c6		 mov	 eax, esi
  00017	c7 46 10 00 00
	00 00		 mov	 DWORD PTR [esi+16], 0
  0001e	c7 46 14 00 00
	00 00		 mov	 DWORD PTR [esi+20], 0
  00025	c7 46 18 00 00
	00 00		 mov	 DWORD PTR [esi+24], 0
  0002c	c7 46 1c 00 00
	00 00		 mov	 DWORD PTR [esi+28], 0
  00033	c7 46 20 00 00
	00 00		 mov	 DWORD PTR [esi+32], 0
  0003a	c7 46 24 00 00
	00 00		 mov	 DWORD PTR [esi+36], 0
  00041	5e		 pop	 esi
  00042	8b e5		 mov	 esp, ebp
  00044	5d		 pop	 ebp
  00045	c3		 ret	 0
??0i3StringTable@@QAE@XZ ENDP				; i3StringTable::i3StringTable
_TEXT	ENDS
; Function compile flags: /Ogtp
; File E:\Proyectos\JuegosOnlineproyectos\PB\pbblow\Piercing Blow Remake\i3Server\src\i3Base\i3StringTable.cpp
;	COMDAT ?NewBuffers@i3StringTable@@IAEHXZ
_TEXT	SEGMENT
?NewBuffers@i3StringTable@@IAEHXZ PROC			; i3StringTable::NewBuffers, COMDAT
; _this$ = ecx

; 38   : {

  00000	56		 push	 esi

; 39   : 	I3ASSERT( m_pTable == NULL );
; 40   : 	m_pTable = (STRING_INFO*)i3MemAlloc( sizeof(STRING_INFO) * m_nNumString );

  00001	6a 28		 push	 40			; 00000028H
  00003	8b f1		 mov	 esi, ecx
  00005	68 00 00 00 00	 push	 OFFSET ??_C@_0GI@PEOAIMBF@E?3?2Proyectos?2JuegosOnlineproyec@
  0000a	6a 10		 push	 16			; 00000010H
  0000c	6a 00		 push	 0
  0000e	8b 46 1c	 mov	 eax, DWORD PTR [esi+28]
  00011	c1 e0 03	 shl	 eax, 3
  00014	50		 push	 eax
  00015	e8 00 00 00 00	 call	 ?AllocTool@i3mem@@YAPAXHHHPBDH@Z ; i3mem::AllocTool

; 41   : 	I3ASSERT( m_pTable != NULL );
; 42   : 
; 43   : 	I3ASSERT( m_pLabelBuf == NULL );
; 44   : 	m_pLabelBuf = (char*)i3MemAlloc( m_nTotalLabelSize );

  0001a	6a 2c		 push	 44			; 0000002cH
  0001c	68 00 00 00 00	 push	 OFFSET ??_C@_0GI@PEOAIMBF@E?3?2Proyectos?2JuegosOnlineproyec@
  00021	6a 10		 push	 16			; 00000010H
  00023	6a 00		 push	 0
  00025	ff 76 20	 push	 DWORD PTR [esi+32]
  00028	89 46 10	 mov	 DWORD PTR [esi+16], eax
  0002b	e8 00 00 00 00	 call	 ?AllocTool@i3mem@@YAPAXHHHPBDH@Z ; i3mem::AllocTool

; 45   : 	I3ASSERT( m_pLabelBuf != NULL );
; 46   : 
; 47   : 	I3ASSERT( m_pStringBuf == NULL );
; 48   : 	m_pStringBuf = (WCHAR16*)i3MemAlloc( m_nTotalStringSize );

  00030	6a 30		 push	 48			; 00000030H
  00032	68 00 00 00 00	 push	 OFFSET ??_C@_0GI@PEOAIMBF@E?3?2Proyectos?2JuegosOnlineproyec@
  00037	6a 10		 push	 16			; 00000010H
  00039	6a 00		 push	 0
  0003b	ff 76 24	 push	 DWORD PTR [esi+36]
  0003e	89 46 14	 mov	 DWORD PTR [esi+20], eax
  00041	e8 00 00 00 00	 call	 ?AllocTool@i3mem@@YAPAXHHHPBDH@Z ; i3mem::AllocTool
  00046	83 c4 3c	 add	 esp, 60			; 0000003cH
  00049	89 46 18	 mov	 DWORD PTR [esi+24], eax

; 49   : 	I3ASSERT( m_pStringBuf != NULL );
; 50   : 
; 51   : 	return TRUE;

  0004c	b8 01 00 00 00	 mov	 eax, 1
  00051	5e		 pop	 esi

; 52   : }

  00052	c3		 ret	 0
?NewBuffers@i3StringTable@@IAEHXZ ENDP			; i3StringTable::NewBuffers
_TEXT	ENDS
; Function compile flags: /Ogtp
; File E:\Proyectos\JuegosOnlineproyectos\PB\pbblow\Piercing Blow Remake\i3Server\src\i3Base\i3StringTable.cpp
;	COMDAT ?_BindObjectRefByType@i3StringTable@@SAPAV1@PAXW4I3_CLASSMETA_TYPE@@@Z
_TEXT	SEGMENT
_pBuf$ = 8						; size = 4
_type$ = 12						; size = 4
?_BindObjectRefByType@i3StringTable@@SAPAV1@PAXW4I3_CLASSMETA_TYPE@@@Z PROC ; i3StringTable::_BindObjectRefByType, COMDAT

; 7    : I3_CLASS_INSTANCE( i3StringTable, i3ElementBase );

  00000	55		 push	 ebp
  00001	8b ec		 mov	 ebp, esp
  00003	8b 0d 00 00 00
	00		 mov	 ecx, DWORD PTR ?s_pClassMetai3StringTable@i3StringTable@@2PAVi3ClassMeta@@A ; i3StringTable::s_pClassMetai3StringTable
  00009	ff 75 0c	 push	 DWORD PTR _type$[ebp]
  0000c	ff 75 08	 push	 DWORD PTR _pBuf$[ebp]
  0000f	8b 01		 mov	 eax, DWORD PTR [ecx]
  00011	ff 50 08	 call	 DWORD PTR [eax+8]
  00014	5d		 pop	 ebp
  00015	c3		 ret	 0
?_BindObjectRefByType@i3StringTable@@SAPAV1@PAXW4I3_CLASSMETA_TYPE@@@Z ENDP ; i3StringTable::_BindObjectRefByType
_TEXT	ENDS
; Function compile flags: /Ogtp
; File E:\Proyectos\JuegosOnlineproyectos\PB\pbblow\Piercing Blow Remake\i3Server\src\i3Base\i3StringTable.cpp
; File E:\Proyectos\JuegosOnlineproyectos\PB\pbblow\Piercing Blow Remake\i3Server\include\i3Base\i3ElementBase.h
; File E:\Proyectos\JuegosOnlineproyectos\PB\pbblow\Piercing Blow Remake\i3Server\src\i3Base\i3StringTable.cpp
;	COMDAT ?_BindObjectByType@i3StringTable@@SAPAV1@PAXW4I3_CLASSMETA_TYPE@@@Z
_TEXT	SEGMENT
_pBuf$ = 8						; size = 4
_type$ = 12						; size = 4
?_BindObjectByType@i3StringTable@@SAPAV1@PAXW4I3_CLASSMETA_TYPE@@@Z PROC ; i3StringTable::_BindObjectByType, COMDAT

; 7    : I3_CLASS_INSTANCE( i3StringTable, i3ElementBase );

  00000	55		 push	 ebp
  00001	8b ec		 mov	 ebp, esp
  00003	8b 0d 00 00 00
	00		 mov	 ecx, DWORD PTR ?s_pClassMetai3StringTable@i3StringTable@@2PAVi3ClassMeta@@A ; i3StringTable::s_pClassMetai3StringTable
  00009	ff 75 0c	 push	 DWORD PTR _type$[ebp]
  0000c	ff 75 08	 push	 DWORD PTR _pBuf$[ebp]
  0000f	8b 01		 mov	 eax, DWORD PTR [ecx]
  00011	ff 50 08	 call	 DWORD PTR [eax+8]
; File E:\Proyectos\JuegosOnlineproyectos\PB\pbblow\Piercing Blow Remake\i3Server\include\i3Base\i3ElementBase.h

; 392  : 		m_RefCount++;

  00014	ff 40 04	 inc	 DWORD PTR [eax+4]
; File E:\Proyectos\JuegosOnlineproyectos\PB\pbblow\Piercing Blow Remake\i3Server\src\i3Base\i3StringTable.cpp

; 7    : I3_CLASS_INSTANCE( i3StringTable, i3ElementBase );

  00017	5d		 pop	 ebp
  00018	c3		 ret	 0
?_BindObjectByType@i3StringTable@@SAPAV1@PAXW4I3_CLASSMETA_TYPE@@@Z ENDP ; i3StringTable::_BindObjectByType
_TEXT	ENDS
; Function compile flags: /Ogtp
; File E:\Proyectos\JuegosOnlineproyectos\PB\pbblow\Piercing Blow Remake\i3Server\src\i3Base\i3StringTable.cpp
;	COMDAT ?_NewObjectRefByType@i3StringTable@@SAPAV1@W4I3_CLASSMETA_TYPE@@@Z
_TEXT	SEGMENT
_type$ = 8						; size = 4
?_NewObjectRefByType@i3StringTable@@SAPAV1@W4I3_CLASSMETA_TYPE@@@Z PROC ; i3StringTable::_NewObjectRefByType, COMDAT

; 7    : I3_CLASS_INSTANCE( i3StringTable, i3ElementBase );

  00000	55		 push	 ebp
  00001	8b ec		 mov	 ebp, esp
  00003	8b 0d 00 00 00
	00		 mov	 ecx, DWORD PTR ?s_pClassMetai3StringTable@i3StringTable@@2PAVi3ClassMeta@@A ; i3StringTable::s_pClassMetai3StringTable
  00009	ff 75 08	 push	 DWORD PTR _type$[ebp]
  0000c	8b 01		 mov	 eax, DWORD PTR [ecx]
  0000e	ff 50 04	 call	 DWORD PTR [eax+4]
  00011	5d		 pop	 ebp
  00012	c3		 ret	 0
?_NewObjectRefByType@i3StringTable@@SAPAV1@W4I3_CLASSMETA_TYPE@@@Z ENDP ; i3StringTable::_NewObjectRefByType
_TEXT	ENDS
; Function compile flags: /Ogtp
; File E:\Proyectos\JuegosOnlineproyectos\PB\pbblow\Piercing Blow Remake\i3Server\src\i3Base\i3StringTable.cpp
; File E:\Proyectos\JuegosOnlineproyectos\PB\pbblow\Piercing Blow Remake\i3Server\include\i3Base\i3ElementBase.h
; File E:\Proyectos\JuegosOnlineproyectos\PB\pbblow\Piercing Blow Remake\i3Server\src\i3Base\i3StringTable.cpp
;	COMDAT ?_NewObjectByType@i3StringTable@@SAPAV1@W4I3_CLASSMETA_TYPE@@@Z
_TEXT	SEGMENT
_type$ = 8						; size = 4
?_NewObjectByType@i3StringTable@@SAPAV1@W4I3_CLASSMETA_TYPE@@@Z PROC ; i3StringTable::_NewObjectByType, COMDAT

; 7    : I3_CLASS_INSTANCE( i3StringTable, i3ElementBase );

  00000	55		 push	 ebp
  00001	8b ec		 mov	 ebp, esp
  00003	8b 0d 00 00 00
	00		 mov	 ecx, DWORD PTR ?s_pClassMetai3StringTable@i3StringTable@@2PAVi3ClassMeta@@A ; i3StringTable::s_pClassMetai3StringTable
  00009	ff 75 08	 push	 DWORD PTR _type$[ebp]
  0000c	8b 01		 mov	 eax, DWORD PTR [ecx]
  0000e	ff 50 04	 call	 DWORD PTR [eax+4]
; File E:\Proyectos\JuegosOnlineproyectos\PB\pbblow\Piercing Blow Remake\i3Server\include\i3Base\i3ElementBase.h

; 392  : 		m_RefCount++;

  00011	ff 40 04	 inc	 DWORD PTR [eax+4]
; File E:\Proyectos\JuegosOnlineproyectos\PB\pbblow\Piercing Blow Remake\i3Server\src\i3Base\i3StringTable.cpp

; 7    : I3_CLASS_INSTANCE( i3StringTable, i3ElementBase );

  00014	5d		 pop	 ebp
  00015	c3		 ret	 0
?_NewObjectByType@i3StringTable@@SAPAV1@W4I3_CLASSMETA_TYPE@@@Z ENDP ; i3StringTable::_NewObjectByType
_TEXT	ENDS
; Function compile flags: /Ogtp
; File E:\Proyectos\JuegosOnlineproyectos\PB\pbblow\Piercing Blow Remake\i3Server\src\i3Base\i3StringTable.cpp
;	COMDAT ?_BindObjectRef@i3StringTable@@SAPAV1@PAX@Z
_TEXT	SEGMENT
_pBuf$ = 8						; size = 4
?_BindObjectRef@i3StringTable@@SAPAV1@PAX@Z PROC	; i3StringTable::_BindObjectRef, COMDAT

; 7    : I3_CLASS_INSTANCE( i3StringTable, i3ElementBase );

  00000	55		 push	 ebp
  00001	8b ec		 mov	 ebp, esp
  00003	8b 0d 00 00 00
	00		 mov	 ecx, DWORD PTR ?s_pClassMetai3StringTable@i3StringTable@@2PAVi3ClassMeta@@A ; i3StringTable::s_pClassMetai3StringTable
  00009	6a 00		 push	 0
  0000b	ff 75 08	 push	 DWORD PTR _pBuf$[ebp]
  0000e	8b 01		 mov	 eax, DWORD PTR [ecx]
  00010	ff 50 08	 call	 DWORD PTR [eax+8]
  00013	5d		 pop	 ebp
  00014	c3		 ret	 0
?_BindObjectRef@i3StringTable@@SAPAV1@PAX@Z ENDP	; i3StringTable::_BindObjectRef
_TEXT	ENDS
; Function compile flags: /Ogtp
; File E:\Proyectos\JuegosOnlineproyectos\PB\pbblow\Piercing Blow Remake\i3Server\src\i3Base\i3StringTable.cpp
; File E:\Proyectos\JuegosOnlineproyectos\PB\pbblow\Piercing Blow Remake\i3Server\include\i3Base\i3ElementBase.h
; File E:\Proyectos\JuegosOnlineproyectos\PB\pbblow\Piercing Blow Remake\i3Server\src\i3Base\i3StringTable.cpp
;	COMDAT ?_BindObject@i3StringTable@@SAPAV1@PAX@Z
_TEXT	SEGMENT
_pBuf$ = 8						; size = 4
?_BindObject@i3StringTable@@SAPAV1@PAX@Z PROC		; i3StringTable::_BindObject, COMDAT

; 7    : I3_CLASS_INSTANCE( i3StringTable, i3ElementBase );

  00000	55		 push	 ebp
  00001	8b ec		 mov	 ebp, esp
  00003	8b 0d 00 00 00
	00		 mov	 ecx, DWORD PTR ?s_pClassMetai3StringTable@i3StringTable@@2PAVi3ClassMeta@@A ; i3StringTable::s_pClassMetai3StringTable
  00009	6a 00		 push	 0
  0000b	ff 75 08	 push	 DWORD PTR _pBuf$[ebp]
  0000e	8b 01		 mov	 eax, DWORD PTR [ecx]
  00010	ff 50 08	 call	 DWORD PTR [eax+8]
; File E:\Proyectos\JuegosOnlineproyectos\PB\pbblow\Piercing Blow Remake\i3Server\include\i3Base\i3ElementBase.h

; 392  : 		m_RefCount++;

  00013	ff 40 04	 inc	 DWORD PTR [eax+4]
; File E:\Proyectos\JuegosOnlineproyectos\PB\pbblow\Piercing Blow Remake\i3Server\src\i3Base\i3StringTable.cpp

; 7    : I3_CLASS_INSTANCE( i3StringTable, i3ElementBase );

  00016	5d		 pop	 ebp
  00017	c3		 ret	 0
?_BindObject@i3StringTable@@SAPAV1@PAX@Z ENDP		; i3StringTable::_BindObject
_TEXT	ENDS
; Function compile flags: /Ogtp
; File E:\Proyectos\JuegosOnlineproyectos\PB\pbblow\Piercing Blow Remake\i3Server\src\i3Base\i3StringTable.cpp
;	COMDAT ?_NewObjectRef@i3StringTable@@SAPAV1@XZ
_TEXT	SEGMENT
?_NewObjectRef@i3StringTable@@SAPAV1@XZ PROC		; i3StringTable::_NewObjectRef, COMDAT

; 7    : I3_CLASS_INSTANCE( i3StringTable, i3ElementBase );

  00000	8b 0d 00 00 00
	00		 mov	 ecx, DWORD PTR ?s_pClassMetai3StringTable@i3StringTable@@2PAVi3ClassMeta@@A ; i3StringTable::s_pClassMetai3StringTable
  00006	6a 00		 push	 0
  00008	8b 01		 mov	 eax, DWORD PTR [ecx]
  0000a	ff 50 04	 call	 DWORD PTR [eax+4]
  0000d	c3		 ret	 0
?_NewObjectRef@i3StringTable@@SAPAV1@XZ ENDP		; i3StringTable::_NewObjectRef
_TEXT	ENDS
; Function compile flags: /Ogtp
; File E:\Proyectos\JuegosOnlineproyectos\PB\pbblow\Piercing Blow Remake\i3Server\src\i3Base\i3StringTable.cpp
; File E:\Proyectos\JuegosOnlineproyectos\PB\pbblow\Piercing Blow Remake\i3Server\include\i3Base\i3ElementBase.h
; File E:\Proyectos\JuegosOnlineproyectos\PB\pbblow\Piercing Blow Remake\i3Server\src\i3Base\i3StringTable.cpp
;	COMDAT ?_NewObject@i3StringTable@@SAPAV1@XZ
_TEXT	SEGMENT
?_NewObject@i3StringTable@@SAPAV1@XZ PROC		; i3StringTable::_NewObject, COMDAT

; 7    : I3_CLASS_INSTANCE( i3StringTable, i3ElementBase );

  00000	8b 0d 00 00 00
	00		 mov	 ecx, DWORD PTR ?s_pClassMetai3StringTable@i3StringTable@@2PAVi3ClassMeta@@A ; i3StringTable::s_pClassMetai3StringTable
  00006	6a 00		 push	 0
  00008	8b 01		 mov	 eax, DWORD PTR [ecx]
  0000a	ff 50 04	 call	 DWORD PTR [eax+4]
; File E:\Proyectos\JuegosOnlineproyectos\PB\pbblow\Piercing Blow Remake\i3Server\include\i3Base\i3ElementBase.h

; 392  : 		m_RefCount++;

  0000d	ff 40 04	 inc	 DWORD PTR [eax+4]
; File E:\Proyectos\JuegosOnlineproyectos\PB\pbblow\Piercing Blow Remake\i3Server\src\i3Base\i3StringTable.cpp

; 7    : I3_CLASS_INSTANCE( i3StringTable, i3ElementBase );

  00010	c3		 ret	 0
?_NewObject@i3StringTable@@SAPAV1@XZ ENDP		; i3StringTable::_NewObject
_TEXT	ENDS
; Function compile flags: /Ogtp
; File E:\Proyectos\JuegosOnlineproyectos\PB\pbblow\Piercing Blow Remake\i3Server\src\i3Base\i3StringTable.cpp
;	COMDAT ?SetGhostClass@i3StringTable@@SAXPAVi3ClassMeta@@@Z
_TEXT	SEGMENT
_pMeta$ = 8						; size = 4
?SetGhostClass@i3StringTable@@SAXPAVi3ClassMeta@@@Z PROC ; i3StringTable::SetGhostClass, COMDAT

; 7    : I3_CLASS_INSTANCE( i3StringTable, i3ElementBase );

  00000	55		 push	 ebp
  00001	8b ec		 mov	 ebp, esp
  00003	ff 75 08	 push	 DWORD PTR _pMeta$[ebp]
  00006	8b 0d 00 00 00
	00		 mov	 ecx, DWORD PTR ?s_pClassMetai3StringTable@i3StringTable@@2PAVi3ClassMeta@@A ; i3StringTable::s_pClassMetai3StringTable
  0000c	e8 00 00 00 00	 call	 ?SetGhostClass@i3ClassMeta@@QAEXPAV1@@Z ; i3ClassMeta::SetGhostClass
  00011	5d		 pop	 ebp
  00012	c3		 ret	 0
?SetGhostClass@i3StringTable@@SAXPAVi3ClassMeta@@@Z ENDP ; i3StringTable::SetGhostClass
_TEXT	ENDS
; Function compile flags: /Ogtp
; File E:\Proyectos\JuegosOnlineproyectos\PB\pbblow\Piercing Blow Remake\i3Server\src\i3Base\i3StringTable.cpp
;	COMDAT ?SetConcreteClass@i3StringTable@@SAXPAVi3ClassMeta@@@Z
_TEXT	SEGMENT
_pMeta$ = 8						; size = 4
?SetConcreteClass@i3StringTable@@SAXPAVi3ClassMeta@@@Z PROC ; i3StringTable::SetConcreteClass, COMDAT

; 7    : I3_CLASS_INSTANCE( i3StringTable, i3ElementBase );

  00000	55		 push	 ebp
  00001	8b ec		 mov	 ebp, esp
  00003	ff 75 08	 push	 DWORD PTR _pMeta$[ebp]
  00006	8b 0d 00 00 00
	00		 mov	 ecx, DWORD PTR ?s_pClassMetai3StringTable@i3StringTable@@2PAVi3ClassMeta@@A ; i3StringTable::s_pClassMetai3StringTable
  0000c	e8 00 00 00 00	 call	 ?SetConcreteClass@i3ClassMeta@@QAEXPAV1@@Z ; i3ClassMeta::SetConcreteClass
  00011	5d		 pop	 ebp
  00012	c3		 ret	 0
?SetConcreteClass@i3StringTable@@SAXPAVi3ClassMeta@@@Z ENDP ; i3StringTable::SetConcreteClass
_TEXT	ENDS
; Function compile flags: /Ogtp
; File E:\Proyectos\JuegosOnlineproyectos\PB\pbblow\Piercing Blow Remake\i3Server\src\i3Base\i3StringTable.cpp
;	COMDAT ?RegisterMeta@i3StringTable@@SAXXZ
_TEXT	SEGMENT
?RegisterMeta@i3StringTable@@SAXXZ PROC			; i3StringTable::RegisterMeta, COMDAT

; 7    : I3_CLASS_INSTANCE( i3StringTable, i3ElementBase );

  00000	8b 0d 00 00 00
	00		 mov	 ecx, DWORD PTR ?s_pClassMetai3StringTable@i3StringTable@@2PAVi3ClassMeta@@A ; i3StringTable::s_pClassMetai3StringTable
  00006	e9 00 00 00 00	 jmp	 ?Register@i3ClassMeta@@QAEXXZ ; i3ClassMeta::Register
?RegisterMeta@i3StringTable@@SAXXZ ENDP			; i3StringTable::RegisterMeta
_TEXT	ENDS
; Function compile flags: /Ogtp
; File E:\Proyectos\JuegosOnlineproyectos\PB\pbblow\Piercing Blow Remake\i3Server\src\i3Base\i3StringTable.cpp
;	COMDAT ?GetMeta@i3StringTable@@UAEPAVi3ClassMeta@@XZ
_TEXT	SEGMENT
?GetMeta@i3StringTable@@UAEPAVi3ClassMeta@@XZ PROC	; i3StringTable::GetMeta, COMDAT
; _this$ = ecx

; 7    : I3_CLASS_INSTANCE( i3StringTable, i3ElementBase );

  00000	a1 00 00 00 00	 mov	 eax, DWORD PTR ?s_pClassMetai3StringTable@i3StringTable@@2PAVi3ClassMeta@@A ; i3StringTable::s_pClassMetai3StringTable
  00005	c3		 ret	 0
?GetMeta@i3StringTable@@UAEPAVi3ClassMeta@@XZ ENDP	; i3StringTable::GetMeta
_TEXT	ENDS
; Function compile flags: /Ogtp
; File E:\Proyectos\JuegosOnlineproyectos\PB\pbblow\Piercing Blow Remake\i3Server\include\i3Base\i3StringTable.h
;	COMDAT ?GetClassMeta@i3StringTable@@SAPAVi3ClassMeta@@XZ
_TEXT	SEGMENT
?GetClassMeta@i3StringTable@@SAPAVi3ClassMeta@@XZ PROC	; i3StringTable::GetClassMeta, COMDAT

; 10   : 	I3_CLASS_DEFINE( i3StringTable );

  00000	a1 00 00 00 00	 mov	 eax, DWORD PTR ?s_pClassMetai3StringTable@i3StringTable@@2PAVi3ClassMeta@@A ; i3StringTable::s_pClassMetai3StringTable
  00005	c3		 ret	 0
?GetClassMeta@i3StringTable@@SAPAVi3ClassMeta@@XZ ENDP	; i3StringTable::GetClassMeta
_TEXT	ENDS
; Function compile flags: /Ogtp
; File E:\Proyectos\JuegosOnlineproyectos\PB\pbblow\Piercing Blow Remake\i3Server\src\i3Base\i3StringTable.cpp
;	COMDAT ??_Ei3Stream@@UAEPAXI@Z
_TEXT	SEGMENT
__$EHRec$ = -12						; size = 12
___flags$ = 8						; size = 4
??_Ei3Stream@@UAEPAXI@Z PROC				; i3Stream::`vector deleting destructor', COMDAT
; _this$ = ecx
  00000	55		 push	 ebp
  00001	8b ec		 mov	 ebp, esp
  00003	6a ff		 push	 -1
  00005	68 00 00 00 00	 push	 __ehhandler$??_Ei3Stream@@UAEPAXI@Z
  0000a	64 a1 00 00 00
	00		 mov	 eax, DWORD PTR fs:0
  00010	50		 push	 eax
  00011	53		 push	 ebx
  00012	56		 push	 esi
  00013	57		 push	 edi
  00014	a1 00 00 00 00	 mov	 eax, DWORD PTR ___security_cookie
  00019	33 c5		 xor	 eax, ebp
  0001b	50		 push	 eax
  0001c	8d 45 f4	 lea	 eax, DWORD PTR __$EHRec$[ebp]
  0001f	64 a3 00 00 00
	00		 mov	 DWORD PTR fs:0, eax
  00025	8b f1		 mov	 esi, ecx
  00027	8b 5d 08	 mov	 ebx, DWORD PTR ___flags$[ebp]
  0002a	8b fb		 mov	 edi, ebx
  0002c	83 e7 01	 and	 edi, 1
  0002f	f6 c3 02	 test	 bl, 2
  00032	74 43		 je	 SHORT $LN2@vector
  00034	68 00 00 00 00	 push	 OFFSET ??1i3Stream@@UAE@XZ ; i3Stream::~i3Stream
  00039	ff 76 fc	 push	 DWORD PTR [esi-4]
  0003c	8d 5e fc	 lea	 ebx, DWORD PTR [esi-4]
  0003f	6a 24		 push	 36			; 00000024H
  00041	56		 push	 esi
  00042	e8 00 00 00 00	 call	 ??_M@YGXPAXIIP6EX0@Z@Z
  00047	85 ff		 test	 edi, edi
  00049	74 16		 je	 SHORT $LN3@vector
  0004b	8b 0b		 mov	 ecx, DWORD PTR [ebx]
  0004d	8d 0c c9	 lea	 ecx, DWORD PTR [ecx+ecx*8]
  00050	8d 0c 8d 04 00
	00 00		 lea	 ecx, DWORD PTR [ecx*4+4]
  00057	51		 push	 ecx
  00058	53		 push	 ebx
  00059	e8 00 00 00 00	 call	 ??_V@YAXPAXI@Z		; operator delete[]
  0005e	83 c4 08	 add	 esp, 8
$LN3@vector:
  00061	8b c3		 mov	 eax, ebx
  00063	8b 4d f4	 mov	 ecx, DWORD PTR __$EHRec$[ebp]
  00066	64 89 0d 00 00
	00 00		 mov	 DWORD PTR fs:0, ecx
  0006d	59		 pop	 ecx
  0006e	5f		 pop	 edi
  0006f	5e		 pop	 esi
  00070	5b		 pop	 ebx
  00071	8b e5		 mov	 esp, ebp
  00073	5d		 pop	 ebp
  00074	c2 04 00	 ret	 4
$LN2@vector:
  00077	e8 00 00 00 00	 call	 ??1i3Stream@@UAE@XZ	; i3Stream::~i3Stream
  0007c	85 ff		 test	 edi, edi
  0007e	74 1b		 je	 SHORT $LN6@vector
  00080	f6 c3 04	 test	 bl, 4
  00083	75 0b		 jne	 SHORT $LN5@vector
  00085	56		 push	 esi
  00086	e8 00 00 00 00	 call	 ??3i3ElementBase@@SAXPAX@Z ; i3ElementBase::operator delete
  0008b	83 c4 04	 add	 esp, 4
  0008e	eb 0b		 jmp	 SHORT $LN6@vector
$LN5@vector:

  00090	6a 24		 push	 36			; 00000024H
  00092	56		 push	 esi
  00093	e8 00 00 00 00	 call	 ??3@YAXPAXI@Z		; operator delete
  00098	83 c4 08	 add	 esp, 8
$LN6@vector:
  0009b	8b c6		 mov	 eax, esi
  0009d	8b 4d f4	 mov	 ecx, DWORD PTR __$EHRec$[ebp]
  000a0	64 89 0d 00 00
	00 00		 mov	 DWORD PTR fs:0, ecx
  000a7	59		 pop	 ecx
  000a8	5f		 pop	 edi
  000a9	5e		 pop	 esi
  000aa	5b		 pop	 ebx
  000ab	8b e5		 mov	 esp, ebp
  000ad	5d		 pop	 ebp
  000ae	c2 04 00	 ret	 4
  000b1	cc		 int	 3
  000b2	cc		 int	 3
  000b3	cc		 int	 3
  000b4	cc		 int	 3
  000b5	cc		 int	 3
_TEXT	ENDS
;	COMDAT text$x
text$x	SEGMENT
__ehhandler$??_Ei3Stream@@UAEPAXI@Z:
  00000	90		 npad	 1
  00001	90		 npad	 1
  00002	8b 54 24 08	 mov	 edx, DWORD PTR [esp+8]
  00006	8d 42 0c	 lea	 eax, DWORD PTR [edx+12]
  00009	8b 4a f0	 mov	 ecx, DWORD PTR [edx-16]
  0000c	33 c8		 xor	 ecx, eax
  0000e	e8 00 00 00 00	 call	 @__security_check_cookie@4
  00013	b8 00 00 00 00	 mov	 eax, OFFSET __ehfuncinfo$??_Ei3Stream@@UAEPAXI@Z
  00018	e9 00 00 00 00	 jmp	 ___CxxFrameHandler3
text$x	ENDS
??_Ei3Stream@@UAEPAXI@Z ENDP				; i3Stream::`vector deleting destructor'
; Function compile flags: /Ogtp
; File E:\Proyectos\JuegosOnlineproyectos\PB\pbblow\Piercing Blow Remake\i3Server\src\i3Base\i3StringTable.cpp
;	COMDAT ??_Gi3Stream@@UAEPAXI@Z
_TEXT	SEGMENT
___flags$ = 8						; size = 4
??_Gi3Stream@@UAEPAXI@Z PROC				; i3Stream::`scalar deleting destructor', COMDAT
; _this$ = ecx
  00000	55		 push	 ebp
  00001	8b ec		 mov	 ebp, esp
  00003	56		 push	 esi
  00004	8b f1		 mov	 esi, ecx
  00006	e8 00 00 00 00	 call	 ??1i3Stream@@UAE@XZ	; i3Stream::~i3Stream
  0000b	8b 45 08	 mov	 eax, DWORD PTR ___flags$[ebp]
  0000e	a8 01		 test	 al, 1
  00010	74 1f		 je	 SHORT $LN10@scalar
  00012	a8 04		 test	 al, 4
  00014	75 10		 jne	 SHORT $LN3@scalar
  00016	56		 push	 esi
  00017	e8 00 00 00 00	 call	 ??3i3ElementBase@@SAXPAX@Z ; i3ElementBase::operator delete
  0001c	83 c4 04	 add	 esp, 4
  0001f	8b c6		 mov	 eax, esi
  00021	5e		 pop	 esi
  00022	5d		 pop	 ebp
  00023	c2 04 00	 ret	 4
$LN3@scalar:

  00026	6a 24		 push	 36			; 00000024H
  00028	56		 push	 esi
  00029	e8 00 00 00 00	 call	 ??3@YAXPAXI@Z		; operator delete
  0002e	83 c4 08	 add	 esp, 8
$LN10@scalar:
  00031	8b c6		 mov	 eax, esi
  00033	5e		 pop	 esi
  00034	5d		 pop	 ebp
  00035	c2 04 00	 ret	 4
??_Gi3Stream@@UAEPAXI@Z ENDP				; i3Stream::`scalar deleting destructor'
_TEXT	ENDS
; Function compile flags: /Ogtp
;	COMDAT ??4i3Stream@@QAEAAV0@ABV0@@Z
_TEXT	SEGMENT
___that$ = 8						; size = 4
??4i3Stream@@QAEAAV0@ABV0@@Z PROC			; i3Stream::operator=, COMDAT
; _this$ = ecx
  00000	55		 push	 ebp
  00001	8b ec		 mov	 ebp, esp
  00003	8b 55 08	 mov	 edx, DWORD PTR ___that$[ebp]
  00006	8b 42 04	 mov	 eax, DWORD PTR [edx+4]
  00009	89 41 04	 mov	 DWORD PTR [ecx+4], eax
  0000c	8b 42 08	 mov	 eax, DWORD PTR [edx+8]
  0000f	89 41 08	 mov	 DWORD PTR [ecx+8], eax
  00012	8b 42 0c	 mov	 eax, DWORD PTR [edx+12]
  00015	89 41 0c	 mov	 DWORD PTR [ecx+12], eax
  00018	8b 42 10	 mov	 eax, DWORD PTR [edx+16]
  0001b	89 41 10	 mov	 DWORD PTR [ecx+16], eax
  0001e	8b 42 14	 mov	 eax, DWORD PTR [edx+20]
  00021	89 41 14	 mov	 DWORD PTR [ecx+20], eax
  00024	8b 42 18	 mov	 eax, DWORD PTR [edx+24]
  00027	89 41 18	 mov	 DWORD PTR [ecx+24], eax
  0002a	8b 42 1c	 mov	 eax, DWORD PTR [edx+28]
  0002d	89 41 1c	 mov	 DWORD PTR [ecx+28], eax
  00030	8b 42 20	 mov	 eax, DWORD PTR [edx+32]
  00033	89 41 20	 mov	 DWORD PTR [ecx+32], eax
  00036	8b c1		 mov	 eax, ecx
  00038	5d		 pop	 ebp
  00039	c2 04 00	 ret	 4
??4i3Stream@@QAEAAV0@ABV0@@Z ENDP			; i3Stream::operator=
_TEXT	ENDS
; Function compile flags: /Ogtp
;	COMDAT ??0i3Stream@@QAE@ABV0@@Z
_TEXT	SEGMENT
___that$ = 8						; size = 4
??0i3Stream@@QAE@ABV0@@Z PROC				; i3Stream::i3Stream, COMDAT
; _this$ = ecx
  00000	55		 push	 ebp
  00001	8b ec		 mov	 ebp, esp
  00003	8b 55 08	 mov	 edx, DWORD PTR ___that$[ebp]
  00006	c7 01 00 00 00
	00		 mov	 DWORD PTR [ecx], OFFSET ??_7i3ElementBase@@6B@
  0000c	8b 42 04	 mov	 eax, DWORD PTR [edx+4]
  0000f	89 41 04	 mov	 DWORD PTR [ecx+4], eax
  00012	8b 42 08	 mov	 eax, DWORD PTR [edx+8]
  00015	89 41 08	 mov	 DWORD PTR [ecx+8], eax
  00018	8b 42 0c	 mov	 eax, DWORD PTR [edx+12]
  0001b	89 41 0c	 mov	 DWORD PTR [ecx+12], eax
  0001e	c7 01 00 00 00
	00		 mov	 DWORD PTR [ecx], OFFSET ??_7i3Stream@@6B@
  00024	8b 42 10	 mov	 eax, DWORD PTR [edx+16]
  00027	89 41 10	 mov	 DWORD PTR [ecx+16], eax
  0002a	8b 42 14	 mov	 eax, DWORD PTR [edx+20]
  0002d	89 41 14	 mov	 DWORD PTR [ecx+20], eax
  00030	8b 42 18	 mov	 eax, DWORD PTR [edx+24]
  00033	89 41 18	 mov	 DWORD PTR [ecx+24], eax
  00036	8b 42 1c	 mov	 eax, DWORD PTR [edx+28]
  00039	89 41 1c	 mov	 DWORD PTR [ecx+28], eax
  0003c	8b 42 20	 mov	 eax, DWORD PTR [edx+32]
  0003f	89 41 20	 mov	 DWORD PTR [ecx+32], eax
  00042	8b c1		 mov	 eax, ecx
  00044	5d		 pop	 ebp
  00045	c2 04 00	 ret	 4
??0i3Stream@@QAE@ABV0@@Z ENDP				; i3Stream::i3Stream
_TEXT	ENDS
; Function compile flags: /Ogtp
; File E:\Proyectos\JuegosOnlineproyectos\PB\pbblow\Piercing Blow Remake\i3Server\include\i3Base\i3Stream.h
;	COMDAT ?GetRecordSize@i3Stream@@QAEIXZ
_TEXT	SEGMENT
?GetRecordSize@i3Stream@@QAEIXZ PROC			; i3Stream::GetRecordSize, COMDAT
; _this$ = ecx

; 58   : 	UINT32	GetRecordSize(void)							{ return m_RecordSize; }

  00000	8b 41 14	 mov	 eax, DWORD PTR [ecx+20]
  00003	c3		 ret	 0
?GetRecordSize@i3Stream@@QAEIXZ ENDP			; i3Stream::GetRecordSize
_TEXT	ENDS
; Function compile flags: /Ogtp
; File E:\Proyectos\JuegosOnlineproyectos\PB\pbblow\Piercing Blow Remake\i3Server\include\i3Base\i3Stream.h
;	COMDAT ?BeginRecord@i3Stream@@QAEXXZ
_TEXT	SEGMENT
?BeginRecord@i3Stream@@QAEXXZ PROC			; i3Stream::BeginRecord, COMDAT
; _this$ = ecx

; 57   : 	void	BeginRecord(void)							{ m_RecordSize = 0; }

  00000	c7 41 14 00 00
	00 00		 mov	 DWORD PTR [ecx+20], 0
  00007	c3		 ret	 0
?BeginRecord@i3Stream@@QAEXXZ ENDP			; i3Stream::BeginRecord
_TEXT	ENDS
; Function compile flags: /Ogtp
; File E:\Proyectos\JuegosOnlineproyectos\PB\pbblow\Piercing Blow Remake\i3Server\include\i3Base\i3Stream.h
;	COMDAT ?GetHandle@i3Stream@@UAEPAXXZ
_TEXT	SEGMENT
?GetHandle@i3Stream@@UAEPAXXZ PROC			; i3Stream::GetHandle, COMDAT
; _this$ = ecx

; 55   : 	virtual void *			GetHandle(void)				{ return m_pHandle; }

  00000	8b 41 20	 mov	 eax, DWORD PTR [ecx+32]
  00003	c3		 ret	 0
?GetHandle@i3Stream@@UAEPAXXZ ENDP			; i3Stream::GetHandle
_TEXT	ENDS
; Function compile flags: /Ogtp
; File E:\Proyectos\JuegosOnlineproyectos\PB\pbblow\Piercing Blow Remake\i3Server\include\i3Base\i3Stream.h
;	COMDAT ?GetAccessMode@i3Stream@@QAEHXZ
_TEXT	SEGMENT
?GetAccessMode@i3Stream@@QAEHXZ PROC			; i3Stream::GetAccessMode, COMDAT
; _this$ = ecx

; 53   : 	INT32			GetAccessMode(void)					{ return m_Access; }

  00000	8b 41 1c	 mov	 eax, DWORD PTR [ecx+28]
  00003	c3		 ret	 0
?GetAccessMode@i3Stream@@QAEHXZ ENDP			; i3Stream::GetAccessMode
_TEXT	ENDS
; Function compile flags: /Ogtp
; File E:\Proyectos\JuegosOnlineproyectos\PB\pbblow\Piercing Blow Remake\i3Server\include\i3Base\i3Stream.h
;	COMDAT ?GetLastError@i3Stream@@QAE?AW4STREAMCODE@1@XZ
_TEXT	SEGMENT
?GetLastError@i3Stream@@QAE?AW4STREAMCODE@1@XZ PROC	; i3Stream::GetLastError, COMDAT
; _this$ = ecx

; 52   : 	STREAMCODE		GetLastError(void)					{ return m_LastCode; }

  00000	8b 41 18	 mov	 eax, DWORD PTR [ecx+24]
  00003	c3		 ret	 0
?GetLastError@i3Stream@@QAE?AW4STREAMCODE@1@XZ ENDP	; i3Stream::GetLastError
_TEXT	ENDS
; Function compile flags: /Ogtp
; File E:\Proyectos\JuegosOnlineproyectos\PB\pbblow\Piercing Blow Remake\i3Server\include\i3Base\i3Stream.h
;	COMDAT ?GetSize@i3Stream@@QAEIXZ
_TEXT	SEGMENT
?GetSize@i3Stream@@QAEIXZ PROC				; i3Stream::GetSize, COMDAT
; _this$ = ecx

; 51   : 	UINT32			GetSize(void)						{ return m_Size; }

  00000	8b 41 10	 mov	 eax, DWORD PTR [ecx+16]
  00003	c3		 ret	 0
?GetSize@i3Stream@@QAEIXZ ENDP				; i3Stream::GetSize
_TEXT	ENDS
; Function compile flags: /Ogtp
; File E:\Proyectos\JuegosOnlineproyectos\PB\pbblow\Piercing Blow Remake\i3Server\include\i3Base\i3Stream.h
;	COMDAT ?GetClassMeta@i3Stream@@SAPAVi3ClassMeta@@XZ
_TEXT	SEGMENT
?GetClassMeta@i3Stream@@SAPAVi3ClassMeta@@XZ PROC	; i3Stream::GetClassMeta, COMDAT

; 24   : 	I3_ABSTRACT_CLASS_DEFINE( i3Stream);

  00000	a1 00 00 00 00	 mov	 eax, DWORD PTR ?s_pClassMetai3Stream@i3Stream@@2PAVi3ClassMeta@@A ; i3Stream::s_pClassMetai3Stream
  00005	c3		 ret	 0
?GetClassMeta@i3Stream@@SAPAVi3ClassMeta@@XZ ENDP	; i3Stream::GetClassMeta
_TEXT	ENDS
; Function compile flags: /Ogtp
;	COMDAT ??_Ei3MemoryPool@@UAEPAXI@Z
_TEXT	SEGMENT
__$EHRec$ = -12						; size = 12
___flags$ = 8						; size = 4
??_Ei3MemoryPool@@UAEPAXI@Z PROC			; i3MemoryPool::`vector deleting destructor', COMDAT
; _this$ = ecx
  00000	55		 push	 ebp
  00001	8b ec		 mov	 ebp, esp
  00003	6a ff		 push	 -1
  00005	68 00 00 00 00	 push	 __ehhandler$??_Ei3MemoryPool@@UAEPAXI@Z
  0000a	64 a1 00 00 00
	00		 mov	 eax, DWORD PTR fs:0
  00010	50		 push	 eax
  00011	53		 push	 ebx
  00012	56		 push	 esi
  00013	57		 push	 edi
  00014	a1 00 00 00 00	 mov	 eax, DWORD PTR ___security_cookie
  00019	33 c5		 xor	 eax, ebp
  0001b	50		 push	 eax
  0001c	8d 45 f4	 lea	 eax, DWORD PTR __$EHRec$[ebp]
  0001f	64 a3 00 00 00
	00		 mov	 DWORD PTR fs:0, eax
  00025	8b f1		 mov	 esi, ecx
  00027	8b 45 08	 mov	 eax, DWORD PTR ___flags$[ebp]
  0002a	8b f8		 mov	 edi, eax
  0002c	83 e7 01	 and	 edi, 1
  0002f	a8 02		 test	 al, 2
  00031	74 40		 je	 SHORT $LN2@vector
  00033	68 00 00 00 00	 push	 OFFSET ??1i3MemoryPool@@UAE@XZ ; i3MemoryPool::~i3MemoryPool
  00038	ff 76 fc	 push	 DWORD PTR [esi-4]
  0003b	8d 5e fc	 lea	 ebx, DWORD PTR [esi-4]
  0003e	6a 04		 push	 4
  00040	56		 push	 esi
  00041	e8 00 00 00 00	 call	 ??_M@YGXPAXIIP6EX0@Z@Z
  00046	85 ff		 test	 edi, edi
  00048	74 13		 je	 SHORT $LN3@vector
  0004a	8b 0b		 mov	 ecx, DWORD PTR [ebx]
  0004c	8d 0c 8d 04 00
	00 00		 lea	 ecx, DWORD PTR [ecx*4+4]
  00053	51		 push	 ecx
  00054	53		 push	 ebx
  00055	e8 00 00 00 00	 call	 ??_V@YAXPAXI@Z		; operator delete[]
  0005a	83 c4 08	 add	 esp, 8
$LN3@vector:
  0005d	8b c3		 mov	 eax, ebx
  0005f	8b 4d f4	 mov	 ecx, DWORD PTR __$EHRec$[ebp]
  00062	64 89 0d 00 00
	00 00		 mov	 DWORD PTR fs:0, ecx
  00069	59		 pop	 ecx
  0006a	5f		 pop	 edi
  0006b	5e		 pop	 esi
  0006c	5b		 pop	 ebx
  0006d	8b e5		 mov	 esp, ebp
  0006f	5d		 pop	 ebp
  00070	c2 04 00	 ret	 4
$LN2@vector:
  00073	e8 00 00 00 00	 call	 ??1i3MemoryPool@@UAE@XZ	; i3MemoryPool::~i3MemoryPool
  00078	85 ff		 test	 edi, edi
  0007a	74 0b		 je	 SHORT $LN4@vector
  0007c	6a 04		 push	 4
  0007e	56		 push	 esi
  0007f	e8 00 00 00 00	 call	 ??3@YAXPAXI@Z		; operator delete
  00084	83 c4 08	 add	 esp, 8
$LN4@vector:
  00087	8b c6		 mov	 eax, esi
  00089	8b 4d f4	 mov	 ecx, DWORD PTR __$EHRec$[ebp]
  0008c	64 89 0d 00 00
	00 00		 mov	 DWORD PTR fs:0, ecx
  00093	59		 pop	 ecx
  00094	5f		 pop	 edi
  00095	5e		 pop	 esi
  00096	5b		 pop	 ebx
  00097	8b e5		 mov	 esp, ebp
  00099	5d		 pop	 ebp
  0009a	c2 04 00	 ret	 4
  0009d	cc		 int	 3
  0009e	cc		 int	 3
  0009f	cc		 int	 3
  000a0	cc		 int	 3
  000a1	cc		 int	 3
_TEXT	ENDS
;	COMDAT text$x
text$x	SEGMENT
__ehhandler$??_Ei3MemoryPool@@UAEPAXI@Z:
  00000	90		 npad	 1
  00001	90		 npad	 1
  00002	8b 54 24 08	 mov	 edx, DWORD PTR [esp+8]
  00006	8d 42 0c	 lea	 eax, DWORD PTR [edx+12]
  00009	8b 4a f0	 mov	 ecx, DWORD PTR [edx-16]
  0000c	33 c8		 xor	 ecx, eax
  0000e	e8 00 00 00 00	 call	 @__security_check_cookie@4
  00013	b8 00 00 00 00	 mov	 eax, OFFSET __ehfuncinfo$??_Ei3MemoryPool@@UAEPAXI@Z
  00018	e9 00 00 00 00	 jmp	 ___CxxFrameHandler3
text$x	ENDS
??_Ei3MemoryPool@@UAEPAXI@Z ENDP			; i3MemoryPool::`vector deleting destructor'
; Function compile flags: /Ogtp
;	COMDAT ??_Gi3MemoryPool@@UAEPAXI@Z
_TEXT	SEGMENT
___flags$ = 8						; size = 4
??_Gi3MemoryPool@@UAEPAXI@Z PROC			; i3MemoryPool::`scalar deleting destructor', COMDAT
; _this$ = ecx
  00000	55		 push	 ebp
  00001	8b ec		 mov	 ebp, esp
  00003	56		 push	 esi
  00004	8b f1		 mov	 esi, ecx
  00006	e8 00 00 00 00	 call	 ??1i3MemoryPool@@UAE@XZ	; i3MemoryPool::~i3MemoryPool
  0000b	f6 45 08 01	 test	 BYTE PTR ___flags$[ebp], 1
  0000f	74 0b		 je	 SHORT $LN5@scalar
  00011	6a 04		 push	 4
  00013	56		 push	 esi
  00014	e8 00 00 00 00	 call	 ??3@YAXPAXI@Z		; operator delete
  00019	83 c4 08	 add	 esp, 8
$LN5@scalar:
  0001c	8b c6		 mov	 eax, esi
  0001e	5e		 pop	 esi
  0001f	5d		 pop	 ebp
  00020	c2 04 00	 ret	 4
??_Gi3MemoryPool@@UAEPAXI@Z ENDP			; i3MemoryPool::`scalar deleting destructor'
_TEXT	ENDS
; Function compile flags: /Ogtp
;	COMDAT ??4i3MemoryPool@@QAEAAV0@ABV0@@Z
_TEXT	SEGMENT
___that$ = 8						; size = 4
??4i3MemoryPool@@QAEAAV0@ABV0@@Z PROC			; i3MemoryPool::operator=, COMDAT
; _this$ = ecx
  00000	8b c1		 mov	 eax, ecx
  00002	c2 04 00	 ret	 4
??4i3MemoryPool@@QAEAAV0@ABV0@@Z ENDP			; i3MemoryPool::operator=
_TEXT	ENDS
; Function compile flags: /Ogtp
;	COMDAT ??0i3MemoryPool@@QAE@ABV0@@Z
_TEXT	SEGMENT
___that$ = 8						; size = 4
??0i3MemoryPool@@QAE@ABV0@@Z PROC			; i3MemoryPool::i3MemoryPool, COMDAT
; _this$ = ecx
  00000	c7 01 00 00 00
	00		 mov	 DWORD PTR [ecx], OFFSET ??_7i3MemoryPool@@6B@
  00006	8b c1		 mov	 eax, ecx
  00008	c2 04 00	 ret	 4
??0i3MemoryPool@@QAE@ABV0@@Z ENDP			; i3MemoryPool::i3MemoryPool
_TEXT	ENDS
; Function compile flags: /Ogtp
; File E:\Proyectos\JuegosOnlineproyectos\PB\pbblow\Piercing Blow Remake\i3Server\src\i3Base\i3StringTable.cpp
;	COMDAT ??_Ei3ElementBase@@UAEPAXI@Z
_TEXT	SEGMENT
__$EHRec$ = -12						; size = 12
___flags$ = 8						; size = 4
??_Ei3ElementBase@@UAEPAXI@Z PROC			; i3ElementBase::`vector deleting destructor', COMDAT
; _this$ = ecx
  00000	55		 push	 ebp
  00001	8b ec		 mov	 ebp, esp
  00003	6a ff		 push	 -1
  00005	68 00 00 00 00	 push	 __ehhandler$??_Ei3ElementBase@@UAEPAXI@Z
  0000a	64 a1 00 00 00
	00		 mov	 eax, DWORD PTR fs:0
  00010	50		 push	 eax
  00011	53		 push	 ebx
  00012	56		 push	 esi
  00013	57		 push	 edi
  00014	a1 00 00 00 00	 mov	 eax, DWORD PTR ___security_cookie
  00019	33 c5		 xor	 eax, ebp
  0001b	50		 push	 eax
  0001c	8d 45 f4	 lea	 eax, DWORD PTR __$EHRec$[ebp]
  0001f	64 a3 00 00 00
	00		 mov	 DWORD PTR fs:0, eax
  00025	8b f1		 mov	 esi, ecx
  00027	8b 5d 08	 mov	 ebx, DWORD PTR ___flags$[ebp]
  0002a	8b fb		 mov	 edi, ebx
  0002c	83 e7 01	 and	 edi, 1
  0002f	f6 c3 02	 test	 bl, 2
  00032	74 3f		 je	 SHORT $LN2@vector
  00034	68 00 00 00 00	 push	 OFFSET ??1i3ElementBase@@UAE@XZ ; i3ElementBase::~i3ElementBase
  00039	ff 76 fc	 push	 DWORD PTR [esi-4]
  0003c	8d 5e fc	 lea	 ebx, DWORD PTR [esi-4]
  0003f	6a 10		 push	 16			; 00000010H
  00041	56		 push	 esi
  00042	e8 00 00 00 00	 call	 ??_M@YGXPAXIIP6EX0@Z@Z
  00047	85 ff		 test	 edi, edi
  00049	74 12		 je	 SHORT $LN3@vector
  0004b	8b 0b		 mov	 ecx, DWORD PTR [ebx]
  0004d	c1 e1 04	 shl	 ecx, 4
  00050	83 c1 04	 add	 ecx, 4
  00053	51		 push	 ecx
  00054	53		 push	 ebx
  00055	e8 00 00 00 00	 call	 ??_V@YAXPAXI@Z		; operator delete[]
  0005a	83 c4 08	 add	 esp, 8
$LN3@vector:
  0005d	8b c3		 mov	 eax, ebx
  0005f	8b 4d f4	 mov	 ecx, DWORD PTR __$EHRec$[ebp]
  00062	64 89 0d 00 00
	00 00		 mov	 DWORD PTR fs:0, ecx
  00069	59		 pop	 ecx
  0006a	5f		 pop	 edi
  0006b	5e		 pop	 esi
  0006c	5b		 pop	 ebx
  0006d	8b e5		 mov	 esp, ebp
  0006f	5d		 pop	 ebp
  00070	c2 04 00	 ret	 4
$LN2@vector:
  00073	e8 00 00 00 00	 call	 ??1i3ElementBase@@UAE@XZ ; i3ElementBase::~i3ElementBase
  00078	85 ff		 test	 edi, edi
  0007a	74 1b		 je	 SHORT $LN6@vector
  0007c	f6 c3 04	 test	 bl, 4
  0007f	75 0b		 jne	 SHORT $LN5@vector
  00081	56		 push	 esi
  00082	e8 00 00 00 00	 call	 ??3i3ElementBase@@SAXPAX@Z ; i3ElementBase::operator delete
  00087	83 c4 04	 add	 esp, 4
  0008a	eb 0b		 jmp	 SHORT $LN6@vector
$LN5@vector:

  0008c	6a 10		 push	 16			; 00000010H
  0008e	56		 push	 esi
  0008f	e8 00 00 00 00	 call	 ??3@YAXPAXI@Z		; operator delete
  00094	83 c4 08	 add	 esp, 8
$LN6@vector:
  00097	8b c6		 mov	 eax, esi
  00099	8b 4d f4	 mov	 ecx, DWORD PTR __$EHRec$[ebp]
  0009c	64 89 0d 00 00
	00 00		 mov	 DWORD PTR fs:0, ecx
  000a3	59		 pop	 ecx
  000a4	5f		 pop	 edi
  000a5	5e		 pop	 esi
  000a6	5b		 pop	 ebx
  000a7	8b e5		 mov	 esp, ebp
  000a9	5d		 pop	 ebp
  000aa	c2 04 00	 ret	 4
  000ad	cc		 int	 3
  000ae	cc		 int	 3
  000af	cc		 int	 3
  000b0	cc		 int	 3
  000b1	cc		 int	 3
_TEXT	ENDS
;	COMDAT text$x
text$x	SEGMENT
__ehhandler$??_Ei3ElementBase@@UAEPAXI@Z:
  00000	90		 npad	 1
  00001	90		 npad	 1
  00002	8b 54 24 08	 mov	 edx, DWORD PTR [esp+8]
  00006	8d 42 0c	 lea	 eax, DWORD PTR [edx+12]
  00009	8b 4a f0	 mov	 ecx, DWORD PTR [edx-16]
  0000c	33 c8		 xor	 ecx, eax
  0000e	e8 00 00 00 00	 call	 @__security_check_cookie@4
  00013	b8 00 00 00 00	 mov	 eax, OFFSET __ehfuncinfo$??_Ei3ElementBase@@UAEPAXI@Z
  00018	e9 00 00 00 00	 jmp	 ___CxxFrameHandler3
text$x	ENDS
??_Ei3ElementBase@@UAEPAXI@Z ENDP			; i3ElementBase::`vector deleting destructor'
; Function compile flags: /Ogtp
; File E:\Proyectos\JuegosOnlineproyectos\PB\pbblow\Piercing Blow Remake\i3Server\src\i3Base\i3StringTable.cpp
;	COMDAT ??_Gi3ElementBase@@UAEPAXI@Z
_TEXT	SEGMENT
___flags$ = 8						; size = 4
??_Gi3ElementBase@@UAEPAXI@Z PROC			; i3ElementBase::`scalar deleting destructor', COMDAT
; _this$ = ecx
  00000	55		 push	 ebp
  00001	8b ec		 mov	 ebp, esp
  00003	56		 push	 esi
  00004	8b f1		 mov	 esi, ecx
  00006	e8 00 00 00 00	 call	 ??1i3ElementBase@@UAE@XZ ; i3ElementBase::~i3ElementBase
  0000b	8b 45 08	 mov	 eax, DWORD PTR ___flags$[ebp]
  0000e	a8 01		 test	 al, 1
  00010	74 1f		 je	 SHORT $LN10@scalar
  00012	a8 04		 test	 al, 4
  00014	75 10		 jne	 SHORT $LN3@scalar
  00016	56		 push	 esi
  00017	e8 00 00 00 00	 call	 ??3i3ElementBase@@SAXPAX@Z ; i3ElementBase::operator delete
  0001c	83 c4 04	 add	 esp, 4
  0001f	8b c6		 mov	 eax, esi
  00021	5e		 pop	 esi
  00022	5d		 pop	 ebp
  00023	c2 04 00	 ret	 4
$LN3@scalar:

  00026	6a 10		 push	 16			; 00000010H
  00028	56		 push	 esi
  00029	e8 00 00 00 00	 call	 ??3@YAXPAXI@Z		; operator delete
  0002e	83 c4 08	 add	 esp, 8
$LN10@scalar:
  00031	8b c6		 mov	 eax, esi
  00033	5e		 pop	 esi
  00034	5d		 pop	 ebp
  00035	c2 04 00	 ret	 4
??_Gi3ElementBase@@UAEPAXI@Z ENDP			; i3ElementBase::`scalar deleting destructor'
_TEXT	ENDS
; Function compile flags: /Ogtp
;	COMDAT ??4i3ElementBase@@QAEAAV0@ABV0@@Z
_TEXT	SEGMENT
___that$ = 8						; size = 4
??4i3ElementBase@@QAEAAV0@ABV0@@Z PROC			; i3ElementBase::operator=, COMDAT
; _this$ = ecx
  00000	55		 push	 ebp
  00001	8b ec		 mov	 ebp, esp
  00003	8b 55 08	 mov	 edx, DWORD PTR ___that$[ebp]
  00006	8b 42 04	 mov	 eax, DWORD PTR [edx+4]
  00009	89 41 04	 mov	 DWORD PTR [ecx+4], eax
  0000c	8b 42 08	 mov	 eax, DWORD PTR [edx+8]
  0000f	89 41 08	 mov	 DWORD PTR [ecx+8], eax
  00012	8b 42 0c	 mov	 eax, DWORD PTR [edx+12]
  00015	89 41 0c	 mov	 DWORD PTR [ecx+12], eax
  00018	8b c1		 mov	 eax, ecx
  0001a	5d		 pop	 ebp
  0001b	c2 04 00	 ret	 4
??4i3ElementBase@@QAEAAV0@ABV0@@Z ENDP			; i3ElementBase::operator=
_TEXT	ENDS
; Function compile flags: /Ogtp
;	COMDAT ??0i3ElementBase@@QAE@ABV0@@Z
_TEXT	SEGMENT
___that$ = 8						; size = 4
??0i3ElementBase@@QAE@ABV0@@Z PROC			; i3ElementBase::i3ElementBase, COMDAT
; _this$ = ecx
  00000	55		 push	 ebp
  00001	8b ec		 mov	 ebp, esp
  00003	8b 55 08	 mov	 edx, DWORD PTR ___that$[ebp]
  00006	c7 01 00 00 00
	00		 mov	 DWORD PTR [ecx], OFFSET ??_7i3ElementBase@@6B@
  0000c	8b 42 04	 mov	 eax, DWORD PTR [edx+4]
  0000f	89 41 04	 mov	 DWORD PTR [ecx+4], eax
  00012	8b 42 08	 mov	 eax, DWORD PTR [edx+8]
  00015	89 41 08	 mov	 DWORD PTR [ecx+8], eax
  00018	8b 42 0c	 mov	 eax, DWORD PTR [edx+12]
  0001b	89 41 0c	 mov	 DWORD PTR [ecx+12], eax
  0001e	8b c1		 mov	 eax, ecx
  00020	5d		 pop	 ebp
  00021	c2 04 00	 ret	 4
??0i3ElementBase@@QAE@ABV0@@Z ENDP			; i3ElementBase::i3ElementBase
_TEXT	ENDS
; Function compile flags: /Ogtp
; File E:\Proyectos\JuegosOnlineproyectos\PB\pbblow\Piercing Blow Remake\i3Server\include\i3Base\i3ElementBase.h
;	COMDAT ?_internal_SetRefCount@i3ElementBase@@QAEXH@Z
_TEXT	SEGMENT
_cnt$ = 8						; size = 4
?_internal_SetRefCount@i3ElementBase@@QAEXH@Z PROC	; i3ElementBase::_internal_SetRefCount, COMDAT
; _this$ = ecx

; 401  : 	{

  00000	55		 push	 ebp
  00001	8b ec		 mov	 ebp, esp

; 402  : 		m_RefCount = cnt;

  00003	8b 45 08	 mov	 eax, DWORD PTR _cnt$[ebp]
  00006	89 41 04	 mov	 DWORD PTR [ecx+4], eax

; 403  : 	}

  00009	5d		 pop	 ebp
  0000a	c2 04 00	 ret	 4
?_internal_SetRefCount@i3ElementBase@@QAEXH@Z ENDP	; i3ElementBase::_internal_SetRefCount
_TEXT	ENDS
; Function compile flags: /Ogtp
; File E:\Proyectos\JuegosOnlineproyectos\PB\pbblow\Piercing Blow Remake\i3Server\include\i3Base\i3ElementBase.h
;	COMDAT ?AddRef@i3ElementBase@@QAEHXZ
_TEXT	SEGMENT
?AddRef@i3ElementBase@@QAEHXZ PROC			; i3ElementBase::AddRef, COMDAT
; _this$ = ecx

; 392  : 		m_RefCount++;

  00000	ff 41 04	 inc	 DWORD PTR [ecx+4]

; 393  : 
; 394  : 		return m_RefCount;

  00003	8b 41 04	 mov	 eax, DWORD PTR [ecx+4]

; 395  : 	}

  00006	c3		 ret	 0
?AddRef@i3ElementBase@@QAEHXZ ENDP			; i3ElementBase::AddRef
_TEXT	ENDS
; Function compile flags: /Ogtp
; File E:\Proyectos\JuegosOnlineproyectos\PB\pbblow\Piercing Blow Remake\i3Server\include\i3Base\i3ElementBase.h
;	COMDAT ?IsTypeOf@i3ElementBase@@QAE_NPAVi3ClassMeta@@@Z
_TEXT	SEGMENT
_pMeta$ = 8						; size = 4
?IsTypeOf@i3ElementBase@@QAE_NPAVi3ClassMeta@@@Z PROC	; i3ElementBase::IsTypeOf, COMDAT
; _this$ = ecx

; 356  : 	{

  00000	55		 push	 ebp
  00001	8b ec		 mov	 ebp, esp

; 357  : 		return GetMeta()->IsTypeOf( pMeta);

  00003	8b 01		 mov	 eax, DWORD PTR [ecx]
  00005	ff 75 08	 push	 DWORD PTR _pMeta$[ebp]
  00008	ff 10		 call	 DWORD PTR [eax]
  0000a	8b c8		 mov	 ecx, eax
  0000c	e8 00 00 00 00	 call	 ?IsTypeOf@i3ClassMeta@@QAE_NPAV1@@Z ; i3ClassMeta::IsTypeOf

; 358  : 	}

  00011	5d		 pop	 ebp
  00012	c2 04 00	 ret	 4
?IsTypeOf@i3ElementBase@@QAE_NPAVi3ClassMeta@@@Z ENDP	; i3ElementBase::IsTypeOf
_TEXT	ENDS
; Function compile flags: /Ogtp
; File E:\Proyectos\JuegosOnlineproyectos\PB\pbblow\Piercing Blow Remake\i3Server\include\i3Base\i3ElementBase.h
; File E:\Proyectos\JuegosOnlineproyectos\PB\pbblow\Piercing Blow Remake\i3Server\include\i3Base\i3ClassMeta.h
; File E:\Proyectos\JuegosOnlineproyectos\PB\pbblow\Piercing Blow Remake\i3Server\include\i3Base\i3ElementBase.h
;	COMDAT ?IsExactTypeOf@i3ElementBase@@QAE_NPAVi3ClassMeta@@@Z
_TEXT	SEGMENT
_pMeta$ = 8						; size = 4
?IsExactTypeOf@i3ElementBase@@QAE_NPAVi3ClassMeta@@@Z PROC ; i3ElementBase::IsExactTypeOf, COMDAT
; _this$ = ecx

; 351  : 	{

  00000	55		 push	 ebp
  00001	8b ec		 mov	 ebp, esp

; 352  : 		return GetMeta()->IsExactTypeOf( pMeta);

  00003	8b 01		 mov	 eax, DWORD PTR [ecx]
  00005	ff 10		 call	 DWORD PTR [eax]
; File E:\Proyectos\JuegosOnlineproyectos\PB\pbblow\Piercing Blow Remake\i3Server\include\i3Base\i3ClassMeta.h

; 90   : 		return pMeta == this;

  00007	39 45 08	 cmp	 DWORD PTR _pMeta$[ebp], eax
  0000a	0f 94 c0	 sete	 al
; File E:\Proyectos\JuegosOnlineproyectos\PB\pbblow\Piercing Blow Remake\i3Server\include\i3Base\i3ElementBase.h

; 353  : 	}

  0000d	5d		 pop	 ebp
  0000e	c2 04 00	 ret	 4
?IsExactTypeOf@i3ElementBase@@QAE_NPAVi3ClassMeta@@@Z ENDP ; i3ElementBase::IsExactTypeOf
_TEXT	ENDS
; Function compile flags: /Ogtp
; File E:\Proyectos\JuegosOnlineproyectos\PB\pbblow\Piercing Blow Remake\i3Server\include\i3Base\i3ElementBase.h
;	COMDAT ?__GetMemoryPool@i3ElementBase@@QAEPAVi3MemoryPool@@XZ
_TEXT	SEGMENT
?__GetMemoryPool@i3ElementBase@@QAEPAVi3MemoryPool@@XZ PROC ; i3ElementBase::__GetMemoryPool, COMDAT
; _this$ = ecx

; 348  : 	i3MemoryPool *	__GetMemoryPool(void)							{ return m_pPool; }

  00000	8b 41 0c	 mov	 eax, DWORD PTR [ecx+12]
  00003	c3		 ret	 0
?__GetMemoryPool@i3ElementBase@@QAEPAVi3MemoryPool@@XZ ENDP ; i3ElementBase::__GetMemoryPool
_TEXT	ENDS
; Function compile flags: /Ogtp
; File E:\Proyectos\JuegosOnlineproyectos\PB\pbblow\Piercing Blow Remake\i3Server\include\i3Base\i3ElementBase.h
;	COMDAT ?__SetMemoryPool@i3ElementBase@@QAEXPAVi3MemoryPool@@@Z
_TEXT	SEGMENT
_pPool$ = 8						; size = 4
?__SetMemoryPool@i3ElementBase@@QAEXPAVi3MemoryPool@@@Z PROC ; i3ElementBase::__SetMemoryPool, COMDAT
; _this$ = ecx

; 347  : 	void			__SetMemoryPool( i3MemoryPool * pPool)			{ m_pPool = pPool; }

  00000	55		 push	 ebp
  00001	8b ec		 mov	 ebp, esp
  00003	8b 45 08	 mov	 eax, DWORD PTR _pPool$[ebp]
  00006	89 41 0c	 mov	 DWORD PTR [ecx+12], eax
  00009	5d		 pop	 ebp
  0000a	c2 04 00	 ret	 4
?__SetMemoryPool@i3ElementBase@@QAEXPAVi3MemoryPool@@@Z ENDP ; i3ElementBase::__SetMemoryPool
_TEXT	ENDS
; Function compile flags: /Ogtp
; File E:\Proyectos\JuegosOnlineproyectos\PB\pbblow\Piercing Blow Remake\i3Server\include\i3Base\i3ElementBase.h
;	COMDAT ?GetRefCount@i3ElementBase@@QAEHXZ
_TEXT	SEGMENT
?GetRefCount@i3ElementBase@@QAEHXZ PROC			; i3ElementBase::GetRefCount, COMDAT
; _this$ = ecx

; 344  : 		return m_RefCount;

  00000	8b 41 04	 mov	 eax, DWORD PTR [ecx+4]

; 345  : 	}

  00003	c3		 ret	 0
?GetRefCount@i3ElementBase@@QAEHXZ ENDP			; i3ElementBase::GetRefCount
_TEXT	ENDS
; Function compile flags: /Ogtp
; File E:\Proyectos\JuegosOnlineproyectos\PB\pbblow\Piercing Blow Remake\i3Server\include\i3Base\i3ElementBase.h
;	COMDAT ?GetClassMeta@i3ElementBase@@SAPAVi3ClassMeta@@XZ
_TEXT	SEGMENT
?GetClassMeta@i3ElementBase@@SAPAVi3ClassMeta@@XZ PROC	; i3ElementBase::GetClassMeta, COMDAT

; 314  : 	I3_ABSTRACT_CLASS_DEFINE( i3ElementBase);

  00000	a1 00 00 00 00	 mov	 eax, DWORD PTR ?s_pClassMetai3ElementBase@i3ElementBase@@2PAVi3ClassMeta@@A ; i3ElementBase::s_pClassMetai3ElementBase
  00005	c3		 ret	 0
?GetClassMeta@i3ElementBase@@SAPAVi3ClassMeta@@XZ ENDP	; i3ElementBase::GetClassMeta
_TEXT	ENDS
; Function compile flags: /Ogtp
;	COMDAT ??_Ei3ClassMeta@@UAEPAXI@Z
_TEXT	SEGMENT
__$EHRec$ = -12						; size = 12
___flags$ = 8						; size = 4
??_Ei3ClassMeta@@UAEPAXI@Z PROC				; i3ClassMeta::`vector deleting destructor', COMDAT
; _this$ = ecx
  00000	55		 push	 ebp
  00001	8b ec		 mov	 ebp, esp
  00003	6a ff		 push	 -1
  00005	68 00 00 00 00	 push	 __ehhandler$??_Ei3ClassMeta@@UAEPAXI@Z
  0000a	64 a1 00 00 00
	00		 mov	 eax, DWORD PTR fs:0
  00010	50		 push	 eax
  00011	53		 push	 ebx
  00012	56		 push	 esi
  00013	57		 push	 edi
  00014	a1 00 00 00 00	 mov	 eax, DWORD PTR ___security_cookie
  00019	33 c5		 xor	 eax, ebp
  0001b	50		 push	 eax
  0001c	8d 45 f4	 lea	 eax, DWORD PTR __$EHRec$[ebp]
  0001f	64 a3 00 00 00
	00		 mov	 DWORD PTR fs:0, eax
  00025	8b f1		 mov	 esi, ecx
  00027	8b 45 08	 mov	 eax, DWORD PTR ___flags$[ebp]
  0002a	8b f8		 mov	 edi, eax
  0002c	83 e7 01	 and	 edi, 1
  0002f	a8 02		 test	 al, 2
  00031	74 49		 je	 SHORT $LN2@vector
  00033	68 00 00 00 00	 push	 OFFSET ??1i3ClassMeta@@UAE@XZ ; i3ClassMeta::~i3ClassMeta
  00038	ff 76 fc	 push	 DWORD PTR [esi-4]
  0003b	8d 5e fc	 lea	 ebx, DWORD PTR [esi-4]
  0003e	6a 38		 push	 56			; 00000038H
  00040	56		 push	 esi
  00041	e8 00 00 00 00	 call	 ??_M@YGXPAXIIP6EX0@Z@Z
  00046	85 ff		 test	 edi, edi
  00048	74 1c		 je	 SHORT $LN3@vector
  0004a	8b 0b		 mov	 ecx, DWORD PTR [ebx]
  0004c	8d 14 cd 00 00
	00 00		 lea	 edx, DWORD PTR [ecx*8]
  00053	2b d1		 sub	 edx, ecx
  00055	8d 0c d5 04 00
	00 00		 lea	 ecx, DWORD PTR [edx*8+4]
  0005c	51		 push	 ecx
  0005d	53		 push	 ebx
  0005e	e8 00 00 00 00	 call	 ??_V@YAXPAXI@Z		; operator delete[]
  00063	83 c4 08	 add	 esp, 8
$LN3@vector:
  00066	8b c3		 mov	 eax, ebx
  00068	8b 4d f4	 mov	 ecx, DWORD PTR __$EHRec$[ebp]
  0006b	64 89 0d 00 00
	00 00		 mov	 DWORD PTR fs:0, ecx
  00072	59		 pop	 ecx
  00073	5f		 pop	 edi
  00074	5e		 pop	 esi
  00075	5b		 pop	 ebx
  00076	8b e5		 mov	 esp, ebp
  00078	5d		 pop	 ebp
  00079	c2 04 00	 ret	 4
$LN2@vector:
  0007c	e8 00 00 00 00	 call	 ??1i3ClassMeta@@UAE@XZ	; i3ClassMeta::~i3ClassMeta
  00081	85 ff		 test	 edi, edi
  00083	74 0b		 je	 SHORT $LN4@vector
  00085	6a 38		 push	 56			; 00000038H
  00087	56		 push	 esi
  00088	e8 00 00 00 00	 call	 ??3@YAXPAXI@Z		; operator delete
  0008d	83 c4 08	 add	 esp, 8
$LN4@vector:
  00090	8b c6		 mov	 eax, esi
  00092	8b 4d f4	 mov	 ecx, DWORD PTR __$EHRec$[ebp]
  00095	64 89 0d 00 00
	00 00		 mov	 DWORD PTR fs:0, ecx
  0009c	59		 pop	 ecx
  0009d	5f		 pop	 edi
  0009e	5e		 pop	 esi
  0009f	5b		 pop	 ebx
  000a0	8b e5		 mov	 esp, ebp
  000a2	5d		 pop	 ebp
  000a3	c2 04 00	 ret	 4
  000a6	cc		 int	 3
  000a7	cc		 int	 3
  000a8	cc		 int	 3
  000a9	cc		 int	 3
  000aa	cc		 int	 3
_TEXT	ENDS
;	COMDAT text$x
text$x	SEGMENT
__ehhandler$??_Ei3ClassMeta@@UAEPAXI@Z:
  00000	90		 npad	 1
  00001	90		 npad	 1
  00002	8b 54 24 08	 mov	 edx, DWORD PTR [esp+8]
  00006	8d 42 0c	 lea	 eax, DWORD PTR [edx+12]
  00009	8b 4a f0	 mov	 ecx, DWORD PTR [edx-16]
  0000c	33 c8		 xor	 ecx, eax
  0000e	e8 00 00 00 00	 call	 @__security_check_cookie@4
  00013	b8 00 00 00 00	 mov	 eax, OFFSET __ehfuncinfo$??_Ei3ClassMeta@@UAEPAXI@Z
  00018	e9 00 00 00 00	 jmp	 ___CxxFrameHandler3
text$x	ENDS
??_Ei3ClassMeta@@UAEPAXI@Z ENDP				; i3ClassMeta::`vector deleting destructor'
; Function compile flags: /Ogtp
;	COMDAT ??_Gi3ClassMeta@@UAEPAXI@Z
_TEXT	SEGMENT
___flags$ = 8						; size = 4
??_Gi3ClassMeta@@UAEPAXI@Z PROC				; i3ClassMeta::`scalar deleting destructor', COMDAT
; _this$ = ecx
  00000	55		 push	 ebp
  00001	8b ec		 mov	 ebp, esp
  00003	56		 push	 esi
  00004	8b f1		 mov	 esi, ecx
  00006	e8 00 00 00 00	 call	 ??1i3ClassMeta@@UAE@XZ	; i3ClassMeta::~i3ClassMeta
  0000b	f6 45 08 01	 test	 BYTE PTR ___flags$[ebp], 1
  0000f	74 0b		 je	 SHORT $LN5@scalar
  00011	6a 38		 push	 56			; 00000038H
  00013	56		 push	 esi
  00014	e8 00 00 00 00	 call	 ??3@YAXPAXI@Z		; operator delete
  00019	83 c4 08	 add	 esp, 8
$LN5@scalar:
  0001c	8b c6		 mov	 eax, esi
  0001e	5e		 pop	 esi
  0001f	5d		 pop	 ebp
  00020	c2 04 00	 ret	 4
??_Gi3ClassMeta@@UAEPAXI@Z ENDP				; i3ClassMeta::`scalar deleting destructor'
_TEXT	ENDS
; Function compile flags: /Ogtp
;	COMDAT ??4i3ClassMeta@@QAEAAV0@ABV0@@Z
_TEXT	SEGMENT
___that$ = 8						; size = 4
??4i3ClassMeta@@QAEAAV0@ABV0@@Z PROC			; i3ClassMeta::operator=, COMDAT
; _this$ = ecx
  00000	55		 push	 ebp
  00001	8b ec		 mov	 ebp, esp
  00003	8b 55 08	 mov	 edx, DWORD PTR ___that$[ebp]
  00006	8b 42 04	 mov	 eax, DWORD PTR [edx+4]
  00009	89 41 04	 mov	 DWORD PTR [ecx+4], eax
  0000c	8b 42 08	 mov	 eax, DWORD PTR [edx+8]
  0000f	89 41 08	 mov	 DWORD PTR [ecx+8], eax
  00012	8b 42 0c	 mov	 eax, DWORD PTR [edx+12]
  00015	89 41 0c	 mov	 DWORD PTR [ecx+12], eax
  00018	8b 42 10	 mov	 eax, DWORD PTR [edx+16]
  0001b	89 41 10	 mov	 DWORD PTR [ecx+16], eax
  0001e	8b 42 14	 mov	 eax, DWORD PTR [edx+20]
  00021	89 41 14	 mov	 DWORD PTR [ecx+20], eax
  00024	8b 42 18	 mov	 eax, DWORD PTR [edx+24]
  00027	89 41 18	 mov	 DWORD PTR [ecx+24], eax
  0002a	8b 42 1c	 mov	 eax, DWORD PTR [edx+28]
  0002d	89 41 1c	 mov	 DWORD PTR [ecx+28], eax
  00030	8b 42 20	 mov	 eax, DWORD PTR [edx+32]
  00033	89 41 20	 mov	 DWORD PTR [ecx+32], eax
  00036	8b 42 24	 mov	 eax, DWORD PTR [edx+36]
  00039	89 41 24	 mov	 DWORD PTR [ecx+36], eax
  0003c	8b 42 28	 mov	 eax, DWORD PTR [edx+40]
  0003f	89 41 28	 mov	 DWORD PTR [ecx+40], eax
  00042	8b 42 2c	 mov	 eax, DWORD PTR [edx+44]
  00045	89 41 2c	 mov	 DWORD PTR [ecx+44], eax
  00048	8b 42 30	 mov	 eax, DWORD PTR [edx+48]
  0004b	89 41 30	 mov	 DWORD PTR [ecx+48], eax
  0004e	8b 42 34	 mov	 eax, DWORD PTR [edx+52]
  00051	89 41 34	 mov	 DWORD PTR [ecx+52], eax
  00054	8b c1		 mov	 eax, ecx
  00056	5d		 pop	 ebp
  00057	c2 04 00	 ret	 4
??4i3ClassMeta@@QAEAAV0@ABV0@@Z ENDP			; i3ClassMeta::operator=
_TEXT	ENDS
; Function compile flags: /Ogtp
;	COMDAT ??0i3ClassMeta@@QAE@ABV0@@Z
_TEXT	SEGMENT
___that$ = 8						; size = 4
??0i3ClassMeta@@QAE@ABV0@@Z PROC			; i3ClassMeta::i3ClassMeta, COMDAT
; _this$ = ecx
  00000	55		 push	 ebp
  00001	8b ec		 mov	 ebp, esp
  00003	8b 55 08	 mov	 edx, DWORD PTR ___that$[ebp]
  00006	c7 01 00 00 00
	00		 mov	 DWORD PTR [ecx], OFFSET ??_7i3ClassMeta@@6B@
  0000c	8b 42 04	 mov	 eax, DWORD PTR [edx+4]
  0000f	89 41 04	 mov	 DWORD PTR [ecx+4], eax
  00012	8b 42 08	 mov	 eax, DWORD PTR [edx+8]
  00015	89 41 08	 mov	 DWORD PTR [ecx+8], eax
  00018	8b 42 0c	 mov	 eax, DWORD PTR [edx+12]
  0001b	89 41 0c	 mov	 DWORD PTR [ecx+12], eax
  0001e	8b 42 10	 mov	 eax, DWORD PTR [edx+16]
  00021	89 41 10	 mov	 DWORD PTR [ecx+16], eax
  00024	8b 42 14	 mov	 eax, DWORD PTR [edx+20]
  00027	89 41 14	 mov	 DWORD PTR [ecx+20], eax
  0002a	8b 42 18	 mov	 eax, DWORD PTR [edx+24]
  0002d	89 41 18	 mov	 DWORD PTR [ecx+24], eax
  00030	8b 42 1c	 mov	 eax, DWORD PTR [edx+28]
  00033	89 41 1c	 mov	 DWORD PTR [ecx+28], eax
  00036	8b 42 20	 mov	 eax, DWORD PTR [edx+32]
  00039	89 41 20	 mov	 DWORD PTR [ecx+32], eax
  0003c	8b 42 24	 mov	 eax, DWORD PTR [edx+36]
  0003f	89 41 24	 mov	 DWORD PTR [ecx+36], eax
  00042	8b 42 28	 mov	 eax, DWORD PTR [edx+40]
  00045	89 41 28	 mov	 DWORD PTR [ecx+40], eax
  00048	8b 42 2c	 mov	 eax, DWORD PTR [edx+44]
  0004b	89 41 2c	 mov	 DWORD PTR [ecx+44], eax
  0004e	8b 42 30	 mov	 eax, DWORD PTR [edx+48]
  00051	89 41 30	 mov	 DWORD PTR [ecx+48], eax
  00054	8b 42 34	 mov	 eax, DWORD PTR [edx+52]
  00057	89 41 34	 mov	 DWORD PTR [ecx+52], eax
  0005a	8b c1		 mov	 eax, ecx
  0005c	5d		 pop	 ebp
  0005d	c2 04 00	 ret	 4
??0i3ClassMeta@@QAE@ABV0@@Z ENDP			; i3ClassMeta::i3ClassMeta
_TEXT	ENDS
; Function compile flags: /Ogtp
; File E:\Proyectos\JuegosOnlineproyectos\PB\pbblow\Piercing Blow Remake\i3Server\include\i3Base\i3ClassMeta.h
;	COMDAT ?getHashCode@i3ClassMeta@@QAEIXZ
_TEXT	SEGMENT
?getHashCode@i3ClassMeta@@QAEIXZ PROC			; i3ClassMeta::getHashCode, COMDAT
; _this$ = ecx

; 112  : 	UINT32			getHashCode(void)						{ return m_HashCode; }

  00000	8b 41 18	 mov	 eax, DWORD PTR [ecx+24]
  00003	c3		 ret	 0
?getHashCode@i3ClassMeta@@QAEIXZ ENDP			; i3ClassMeta::getHashCode
_TEXT	ENDS
; Function compile flags: /Ogtp
; File E:\Proyectos\JuegosOnlineproyectos\PB\pbblow\Piercing Blow Remake\i3Server\include\i3Base\i3ClassMeta.h
;	COMDAT ?GetBaseClassMeta@i3ClassMeta@@QAEPAV1@XZ
_TEXT	SEGMENT
?GetBaseClassMeta@i3ClassMeta@@QAEPAV1@XZ PROC		; i3ClassMeta::GetBaseClassMeta, COMDAT
; _this$ = ecx

; 107  : 	i3ClassMeta *	GetBaseClassMeta(void)					{ return m_pBaseClass; }

  00000	8b 41 1c	 mov	 eax, DWORD PTR [ecx+28]
  00003	c3		 ret	 0
?GetBaseClassMeta@i3ClassMeta@@QAEPAV1@XZ ENDP		; i3ClassMeta::GetBaseClassMeta
_TEXT	ENDS
; Function compile flags: /Ogtp
; File E:\Proyectos\JuegosOnlineproyectos\PB\pbblow\Piercing Blow Remake\i3Server\include\i3Base\i3ClassMeta.h
;	COMDAT ?IsConcreteClass@i3ClassMeta@@QAEHXZ
_TEXT	SEGMENT
?IsConcreteClass@i3ClassMeta@@QAEHXZ PROC		; i3ClassMeta::IsConcreteClass, COMDAT
; _this$ = ecx

; 102  : 	BOOL			IsStyle( UINT32 style)					{ return (m_Style & style) == style; }

  00000	8b 41 14	 mov	 eax, DWORD PTR [ecx+20]
  00003	d1 e8		 shr	 eax, 1
  00005	83 e0 01	 and	 eax, 1

; 105  : 	BOOL			IsConcreteClass(void)					{ return IsStyle( I3_CLASSMETA_STYLE_CONCRETE); }

  00008	c3		 ret	 0
?IsConcreteClass@i3ClassMeta@@QAEHXZ ENDP		; i3ClassMeta::IsConcreteClass
_TEXT	ENDS
; Function compile flags: /Ogtp
; File E:\Proyectos\JuegosOnlineproyectos\PB\pbblow\Piercing Blow Remake\i3Server\include\i3Base\i3ClassMeta.h
;	COMDAT ?IsAbstractClass@i3ClassMeta@@QAEHXZ
_TEXT	SEGMENT
?IsAbstractClass@i3ClassMeta@@QAEHXZ PROC		; i3ClassMeta::IsAbstractClass, COMDAT
; _this$ = ecx

; 102  : 	BOOL			IsStyle( UINT32 style)					{ return (m_Style & style) == style; }

  00000	8b 41 14	 mov	 eax, DWORD PTR [ecx+20]
  00003	83 e0 01	 and	 eax, 1

; 104  : 	BOOL			IsAbstractClass(void)					{ return IsStyle( I3_CLASSMETA_STYLE_ABSTRACT); }

  00006	c3		 ret	 0
?IsAbstractClass@i3ClassMeta@@QAEHXZ ENDP		; i3ClassMeta::IsAbstractClass
_TEXT	ENDS
; Function compile flags: /Ogtp
; File E:\Proyectos\JuegosOnlineproyectos\PB\pbblow\Piercing Blow Remake\i3Server\include\i3Base\i3ClassMeta.h
;	COMDAT ?IsStyle@i3ClassMeta@@QAEHI@Z
_TEXT	SEGMENT
_style$ = 8						; size = 4
?IsStyle@i3ClassMeta@@QAEHI@Z PROC			; i3ClassMeta::IsStyle, COMDAT
; _this$ = ecx

; 102  : 	BOOL			IsStyle( UINT32 style)					{ return (m_Style & style) == style; }

  00000	55		 push	 ebp
  00001	8b ec		 mov	 ebp, esp
  00003	8b 51 14	 mov	 edx, DWORD PTR [ecx+20]
  00006	33 c0		 xor	 eax, eax
  00008	23 55 08	 and	 edx, DWORD PTR _style$[ebp]
  0000b	3b 55 08	 cmp	 edx, DWORD PTR _style$[ebp]
  0000e	0f 94 c0	 sete	 al
  00011	5d		 pop	 ebp
  00012	c2 04 00	 ret	 4
?IsStyle@i3ClassMeta@@QAEHI@Z ENDP			; i3ClassMeta::IsStyle
_TEXT	ENDS
; Function compile flags: /Ogtp
; File E:\Proyectos\JuegosOnlineproyectos\PB\pbblow\Piercing Blow Remake\i3Server\include\i3Base\i3ClassMeta.h
;	COMDAT ?RemoveStyle@i3ClassMeta@@QAEXI@Z
_TEXT	SEGMENT
_style$ = 8						; size = 4
?RemoveStyle@i3ClassMeta@@QAEXI@Z PROC			; i3ClassMeta::RemoveStyle, COMDAT
; _this$ = ecx

; 101  : 	void			RemoveStyle( UINT32 style)				{ m_Style &= ~style; }

  00000	55		 push	 ebp
  00001	8b ec		 mov	 ebp, esp
  00003	8b 45 08	 mov	 eax, DWORD PTR _style$[ebp]
  00006	f7 d0		 not	 eax
  00008	21 41 14	 and	 DWORD PTR [ecx+20], eax
  0000b	5d		 pop	 ebp
  0000c	c2 04 00	 ret	 4
?RemoveStyle@i3ClassMeta@@QAEXI@Z ENDP			; i3ClassMeta::RemoveStyle
_TEXT	ENDS
; Function compile flags: /Ogtp
; File E:\Proyectos\JuegosOnlineproyectos\PB\pbblow\Piercing Blow Remake\i3Server\include\i3Base\i3ClassMeta.h
;	COMDAT ?AddStyle@i3ClassMeta@@QAEXI@Z
_TEXT	SEGMENT
_style$ = 8						; size = 4
?AddStyle@i3ClassMeta@@QAEXI@Z PROC			; i3ClassMeta::AddStyle, COMDAT
; _this$ = ecx

; 100  : 	void			AddStyle( UINT32 style)					{ m_Style |= style; }

  00000	55		 push	 ebp
  00001	8b ec		 mov	 ebp, esp
  00003	8b 45 08	 mov	 eax, DWORD PTR _style$[ebp]
  00006	09 41 14	 or	 DWORD PTR [ecx+20], eax
  00009	5d		 pop	 ebp
  0000a	c2 04 00	 ret	 4
?AddStyle@i3ClassMeta@@QAEXI@Z ENDP			; i3ClassMeta::AddStyle
_TEXT	ENDS
; Function compile flags: /Ogtp
; File E:\Proyectos\JuegosOnlineproyectos\PB\pbblow\Piercing Blow Remake\i3Server\include\i3Base\i3ClassMeta.h
;	COMDAT ?GetStyle@i3ClassMeta@@QAEIXZ
_TEXT	SEGMENT
?GetStyle@i3ClassMeta@@QAEIXZ PROC			; i3ClassMeta::GetStyle, COMDAT
; _this$ = ecx

; 99   : 	UINT32			GetStyle(void)							{ return m_Style; }

  00000	8b 41 14	 mov	 eax, DWORD PTR [ecx+20]
  00003	c3		 ret	 0
?GetStyle@i3ClassMeta@@QAEIXZ ENDP			; i3ClassMeta::GetStyle
_TEXT	ENDS
; Function compile flags: /Ogtp
; File E:\Proyectos\JuegosOnlineproyectos\PB\pbblow\Piercing Blow Remake\i3Server\include\i3Base\i3ClassMeta.h
;	COMDAT ?SetStyle@i3ClassMeta@@QAEXI@Z
_TEXT	SEGMENT
_style$ = 8						; size = 4
?SetStyle@i3ClassMeta@@QAEXI@Z PROC			; i3ClassMeta::SetStyle, COMDAT
; _this$ = ecx

; 98   : 	void			SetStyle( UINT32 style)					{ m_Style = style; }

  00000	55		 push	 ebp
  00001	8b ec		 mov	 ebp, esp
  00003	8b 45 08	 mov	 eax, DWORD PTR _style$[ebp]
  00006	89 41 14	 mov	 DWORD PTR [ecx+20], eax
  00009	5d		 pop	 ebp
  0000a	c2 04 00	 ret	 4
?SetStyle@i3ClassMeta@@QAEXI@Z ENDP			; i3ClassMeta::SetStyle
_TEXT	ENDS
; Function compile flags: /Ogtp
; File E:\Proyectos\JuegosOnlineproyectos\PB\pbblow\Piercing Blow Remake\i3Server\include\i3Base\i3ClassMeta.h
;	COMDAT ?IsExactTypeOf@i3ClassMeta@@QAE_NPAV1@@Z
_TEXT	SEGMENT
_pMeta$ = 8						; size = 4
?IsExactTypeOf@i3ClassMeta@@QAE_NPAV1@@Z PROC		; i3ClassMeta::IsExactTypeOf, COMDAT
; _this$ = ecx

; 89   : 	{

  00000	55		 push	 ebp
  00001	8b ec		 mov	 ebp, esp

; 90   : 		return pMeta == this;

  00003	39 4d 08	 cmp	 DWORD PTR _pMeta$[ebp], ecx
  00006	0f 94 c0	 sete	 al

; 91   : 	}

  00009	5d		 pop	 ebp
  0000a	c2 04 00	 ret	 4
?IsExactTypeOf@i3ClassMeta@@QAE_NPAV1@@Z ENDP		; i3ClassMeta::IsExactTypeOf
_TEXT	ENDS
; Function compile flags: /Ogtp
; File E:\Proyectos\JuegosOnlineproyectos\PB\pbblow\Piercing Blow Remake\i3Server\include\i3Base\i3ClassMeta.h
;	COMDAT ?GetClassNameA@i3ClassMeta@@QAEPADXZ
_TEXT	SEGMENT
?GetClassNameA@i3ClassMeta@@QAEPADXZ PROC		; i3ClassMeta::GetClassNameA, COMDAT
; _this$ = ecx

; 83   : 		return m_pszClassName;

  00000	8b 41 0c	 mov	 eax, DWORD PTR [ecx+12]

; 84   : 	}

  00003	c3		 ret	 0
?GetClassNameA@i3ClassMeta@@QAEPADXZ ENDP		; i3ClassMeta::GetClassNameA
_TEXT	ENDS
; Function compile flags: /Ogtp
; File E:\Proyectos\JuegosOnlineproyectos\PB\pbblow\Piercing Blow Remake\i3Server\include\i3Base\i3ClassMeta.h
;	COMDAT ?GetClassSize@i3ClassMeta@@QAEIXZ
_TEXT	SEGMENT
?GetClassSize@i3ClassMeta@@QAEIXZ PROC			; i3ClassMeta::GetClassSize, COMDAT
; _this$ = ecx

; 78   : 		return m_ClassSize;

  00000	8b 41 08	 mov	 eax, DWORD PTR [ecx+8]

; 79   : 	}

  00003	c3		 ret	 0
?GetClassSize@i3ClassMeta@@QAEIXZ ENDP			; i3ClassMeta::GetClassSize
_TEXT	ENDS
; Function compile flags: /Ogtp
; File E:\Proyectos\JuegosOnlineproyectos\PB\pbblow\Piercing Blow Remake\i3Server\include\i3Base\i3ClassMeta.h
;	COMDAT ?SetMemoryPool@i3ClassMeta@@QAEXPAVi3MemoryPool@@@Z
_TEXT	SEGMENT
_pPool$ = 8						; size = 4
?SetMemoryPool@i3ClassMeta@@QAEXPAVi3MemoryPool@@@Z PROC ; i3ClassMeta::SetMemoryPool, COMDAT
; _this$ = ecx

; 66   : 	void			SetMemoryPool( i3MemoryPool * pPool)		{ m_pPool = pPool; }

  00000	55		 push	 ebp
  00001	8b ec		 mov	 ebp, esp
  00003	8b 45 08	 mov	 eax, DWORD PTR _pPool$[ebp]
  00006	89 41 34	 mov	 DWORD PTR [ecx+52], eax
  00009	5d		 pop	 ebp
  0000a	c2 04 00	 ret	 4
?SetMemoryPool@i3ClassMeta@@QAEXPAVi3MemoryPool@@@Z ENDP ; i3ClassMeta::SetMemoryPool
_TEXT	ENDS
; Function compile flags: /Ogtp
; File E:\Proyectos\JuegosOnlineproyectos\PB\pbblow\Piercing Blow Remake\i3Server\include\i3Base\i3ClassMeta.h
;	COMDAT ?GetMemoryPool@i3ClassMeta@@QAEPAVi3MemoryPool@@XZ
_TEXT	SEGMENT
?GetMemoryPool@i3ClassMeta@@QAEPAVi3MemoryPool@@XZ PROC	; i3ClassMeta::GetMemoryPool, COMDAT
; _this$ = ecx

; 65   : 	i3MemoryPool *	GetMemoryPool(void)							{ return m_pPool; }

  00000	8b 41 34	 mov	 eax, DWORD PTR [ecx+52]
  00003	c3		 ret	 0
?GetMemoryPool@i3ClassMeta@@QAEPAVi3MemoryPool@@XZ ENDP	; i3ClassMeta::GetMemoryPool
_TEXT	ENDS
; Function compile flags: /Ogtp
; File E:\Proyectos\JuegosOnlineproyectos\PB\pbblow\Piercing Blow Remake\i3Server\src\i3Base\i3StringTable.cpp
;	COMDAT ?__global_array_delete@@YAXPAXI@Z
_TEXT	SEGMENT
_p$ = 8							; size = 4
_sz$ = 12						; size = 4
?__global_array_delete@@YAXPAXI@Z PROC			; __global_array_delete, COMDAT

  00000	e9 00 00 00 00	 jmp	 ??_V@YAXPAXI@Z		; operator delete[]
?__global_array_delete@@YAXPAXI@Z ENDP			; __global_array_delete
_TEXT	ENDS
; Function compile flags: /Ogtp
; File E:\Proyectos\JuegosOnlineproyectos\PB\pbblow\Piercing Blow Remake\i3Server\src\i3Base\i3StringTable.cpp
;	COMDAT ?__global_array_delete@@YAXPAX@Z
_TEXT	SEGMENT
_p$ = 8							; size = 4
?__global_array_delete@@YAXPAX@Z PROC			; __global_array_delete, COMDAT

  00000	e9 00 00 00 00	 jmp	 ??_V@YAXPAX@Z		; operator delete[]
?__global_array_delete@@YAXPAX@Z ENDP			; __global_array_delete
_TEXT	ENDS
; Function compile flags: /Ogtp
; File E:\Proyectos\JuegosOnlineproyectos\PB\pbblow\Piercing Blow Remake\i3Server\src\i3Base\i3StringTable.cpp
;	COMDAT ?__global_delete@@YAXPAXI@Z
_TEXT	SEGMENT
_p$ = 8							; size = 4
_sz$ = 12						; size = 4
?__global_delete@@YAXPAXI@Z PROC			; __global_delete, COMDAT

  00000	e9 00 00 00 00	 jmp	 ??3@YAXPAXI@Z		; operator delete
?__global_delete@@YAXPAXI@Z ENDP			; __global_delete
_TEXT	ENDS
; Function compile flags: /Ogtp
; File E:\Proyectos\JuegosOnlineproyectos\PB\pbblow\Piercing Blow Remake\i3Server\src\i3Base\i3StringTable.cpp
;	COMDAT ?__empty_global_delete@@YAXPAXI@Z
_TEXT	SEGMENT
___formal$ = 8						; size = 4
___formal$ = 12						; size = 4
?__empty_global_delete@@YAXPAXI@Z PROC			; __empty_global_delete, COMDAT

  00000	c2 00 00	 ret	 0
?__empty_global_delete@@YAXPAXI@Z ENDP			; __empty_global_delete
_TEXT	ENDS
; Function compile flags: /Ogtp
; File E:\Proyectos\JuegosOnlineproyectos\PB\pbblow\Piercing Blow Remake\i3Server\src\i3Base\i3StringTable.cpp
;	COMDAT ?__global_delete@@YAXPAX@Z
_TEXT	SEGMENT
_p$ = 8							; size = 4
?__global_delete@@YAXPAX@Z PROC				; __global_delete, COMDAT

  00000	e9 00 00 00 00	 jmp	 ??3@YAXPAX@Z		; operator delete
?__global_delete@@YAXPAX@Z ENDP				; __global_delete
_TEXT	ENDS
; Function compile flags: /Ogtp
; File E:\Proyectos\JuegosOnlineproyectos\PB\pbblow\Piercing Blow Remake\i3Server\src\i3Base\i3StringTable.cpp
;	COMDAT ?__empty_global_delete@@YAXPAX@Z
_TEXT	SEGMENT
___formal$ = 8						; size = 4
?__empty_global_delete@@YAXPAX@Z PROC			; __empty_global_delete, COMDAT

  00000	c2 00 00	 ret	 0
?__empty_global_delete@@YAXPAX@Z ENDP			; __empty_global_delete
_TEXT	ENDS
END
