; Listing generated by Microsoft (R) Optimizing Compiler Version 19.50.35727.0 

	TITLE	E:\Proyectos\JuegosOnlineproyectos\PB\pbblow\Piercing Blow Remake\i3Server\Project\I3_DX\i3Server\x86\Release\i3System.obj
	.686P
	.XMM
	include listing.inc
	.model	flat

INCLUDELIB LIBCMT
INCLUDELIB OLDNAMES

PUBLIC	__Avx2WmemEnabledWeakValue
;	COMDAT __Avx2WmemEnabledWeakValue
_BSS	SEGMENT
__Avx2WmemEnabledWeakValue DD 01H DUP (?)
_BSS	ENDS
PUBLIC	?__empty_global_delete@@YAXPAX@Z		; __empty_global_delete
PUBLIC	?__global_delete@@YAXPAX@Z			; __global_delete
PUBLIC	?__empty_global_delete@@YAXPAXI@Z		; __empty_global_delete
PUBLIC	?__global_delete@@YAXPAXI@Z			; __global_delete
PUBLIC	?__global_array_delete@@YAXPAX@Z		; __global_array_delete
PUBLIC	?__global_array_delete@@YAXPAXI@Z		; __global_array_delete
PUBLIC	___local_stdio_printf_options
PUBLIC	_sprintf
PUBLIC	?EnableInterrupt@i3System@@YAXXZ		; i3System::EnableInterrupt
PUBLIC	?DisableInterrupt@i3System@@YAXXZ		; i3System::DisableInterrupt
PUBLIC	?GetCPUInfo@i3System@@YAXPAD@Z			; i3System::GetCPUInfo
PUBLIC	?GetGPUInfo@i3System@@YAXPAD@Z			; i3System::GetGPUInfo
PUBLIC	?GetOSInfo@i3System@@YAXPAD@Z			; i3System::GetOSInfo
PUBLIC	?GetMemoryInfo@i3System@@YAXPAD@Z		; i3System::GetMemoryInfo
PUBLIC	?GetMultiMediaInfo@i3System@@YAXPAD@Z		; i3System::GetMultiMediaInfo
PUBLIC	?GetDXInfo@i3System@@YAXPAD@Z			; i3System::GetDXInfo
PUBLIC	?GetProcessList@i3System@@YAXPAD@Z		; i3System::GetProcessList
PUBLIC	?Benchmark_FLOPS@i3System@@YAHHHM@Z		; i3System::Benchmark_FLOPS
PUBLIC	?SendMailBugReport@i3System@@YAXPAD0@Z		; i3System::SendMailBugReport
PUBLIC	?AddTerminateProc@i3System@@YAXHP6AHPAX@Z0@Z	; i3System::AddTerminateProc
PUBLIC	?RemoveTerminateProc@i3System@@YAXP6AHPAX@Z@Z	; i3System::RemoveTerminateProc
PUBLIC	?TerminateSys@i3System@@YAXXZ			; i3System::TerminateSys
PUBLIC	?LookForFiles@i3System@@YAHPBD0P6AHHPADPAX2@Z2I@Z ; i3System::LookForFiles
PUBLIC	?IsDirectory@i3System@@YAHPBD@Z			; i3System::IsDirectory
PUBLIC	?IsDirectory@i3System@@YAHPBG@Z			; i3System::IsDirectory
PUBLIC	?IsFile@i3System@@YAHPBD@Z			; i3System::IsFile
PUBLIC	?GetRealFilename@i3System@@YAHPBDPAD@Z		; i3System::GetRealFilename
PUBLIC	?GetDrive@i3System@@YAHPBDPADH@Z		; i3System::GetDrive
PUBLIC	?GetDrive@i3System@@YAHPBGPAGH@Z		; i3System::GetDrive
PUBLIC	?PrepareDirectory@i3System@@YAHPAD@Z		; i3System::PrepareDirectory
PUBLIC	?PrepareDirectory@i3System@@YAHPAG@Z		; i3System::PrepareDirectory
PUBLIC	?ResolvePath@i3System@@YAXPBDPADH@Z		; i3System::ResolvePath
PUBLIC	?GetExecPath@i3System@@YAXPAD@Z			; i3System::GetExecPath
PUBLIC	?GetCurrentPath@i3System@@YAXPADH@Z		; i3System::GetCurrentPath
PUBLIC	?SetCurrentPath@i3System@@YAXPBD@Z		; i3System::SetCurrentPath
PUBLIC	?isAbsolutePath@i3System@@YA_NPBD@Z		; i3System::isAbsolutePath
PUBLIC	?RemoveFile@i3System@@YAHPBD@Z			; i3System::RemoveFile
PUBLIC	?RenameFile@i3System@@YAHPBD0@Z			; i3System::RenameFile
PUBLIC	?CheckCPUName@i3System@@YAHPAD@Z		; i3System::CheckCPUName
PUBLIC	?SetFPUPrecision@i3System@@YAIW4I3_FPU_PRECISION@@@Z ; i3System::SetFPUPrecision
PUBLIC	?GetMemoryPool@i3ClassMeta@@QAEPAVi3MemoryPool@@XZ ; i3ClassMeta::GetMemoryPool
PUBLIC	?SetMemoryPool@i3ClassMeta@@QAEXPAVi3MemoryPool@@@Z ; i3ClassMeta::SetMemoryPool
PUBLIC	?GetClassSize@i3ClassMeta@@QAEIXZ		; i3ClassMeta::GetClassSize
PUBLIC	?GetClassNameA@i3ClassMeta@@QAEPADXZ		; i3ClassMeta::GetClassNameA
PUBLIC	?IsExactTypeOf@i3ClassMeta@@QAE_NPAV1@@Z	; i3ClassMeta::IsExactTypeOf
PUBLIC	?SetStyle@i3ClassMeta@@QAEXI@Z			; i3ClassMeta::SetStyle
PUBLIC	?GetStyle@i3ClassMeta@@QAEIXZ			; i3ClassMeta::GetStyle
PUBLIC	?AddStyle@i3ClassMeta@@QAEXI@Z			; i3ClassMeta::AddStyle
PUBLIC	?RemoveStyle@i3ClassMeta@@QAEXI@Z		; i3ClassMeta::RemoveStyle
PUBLIC	?IsStyle@i3ClassMeta@@QAEHI@Z			; i3ClassMeta::IsStyle
PUBLIC	?IsAbstractClass@i3ClassMeta@@QAEHXZ		; i3ClassMeta::IsAbstractClass
PUBLIC	?IsConcreteClass@i3ClassMeta@@QAEHXZ		; i3ClassMeta::IsConcreteClass
PUBLIC	?GetBaseClassMeta@i3ClassMeta@@QAEPAV1@XZ	; i3ClassMeta::GetBaseClassMeta
PUBLIC	?getHashCode@i3ClassMeta@@QAEIXZ		; i3ClassMeta::getHashCode
PUBLIC	??0i3ClassMeta@@QAE@ABV0@@Z			; i3ClassMeta::i3ClassMeta
PUBLIC	??4i3ClassMeta@@QAEAAV0@ABV0@@Z			; i3ClassMeta::operator=
PUBLIC	??_Gi3ClassMeta@@UAEPAXI@Z			; i3ClassMeta::`scalar deleting destructor'
PUBLIC	??_Ei3ClassMeta@@UAEPAXI@Z			; i3ClassMeta::`vector deleting destructor'
PUBLIC	?GetClassMeta@i3ElementBase@@SAPAVi3ClassMeta@@XZ ; i3ElementBase::GetClassMeta
PUBLIC	?GetRefCount@i3ElementBase@@QAEHXZ		; i3ElementBase::GetRefCount
PUBLIC	?__SetMemoryPool@i3ElementBase@@QAEXPAVi3MemoryPool@@@Z ; i3ElementBase::__SetMemoryPool
PUBLIC	?__GetMemoryPool@i3ElementBase@@QAEPAVi3MemoryPool@@XZ ; i3ElementBase::__GetMemoryPool
PUBLIC	?IsExactTypeOf@i3ElementBase@@QAE_NPAVi3ClassMeta@@@Z ; i3ElementBase::IsExactTypeOf
PUBLIC	?IsTypeOf@i3ElementBase@@QAE_NPAVi3ClassMeta@@@Z ; i3ElementBase::IsTypeOf
PUBLIC	?AddRef@i3ElementBase@@QAEHXZ			; i3ElementBase::AddRef
PUBLIC	?_internal_SetRefCount@i3ElementBase@@QAEXH@Z	; i3ElementBase::_internal_SetRefCount
PUBLIC	??0i3ElementBase@@QAE@ABV0@@Z			; i3ElementBase::i3ElementBase
PUBLIC	??4i3ElementBase@@QAEAAV0@ABV0@@Z		; i3ElementBase::operator=
PUBLIC	??_Gi3ElementBase@@UAEPAXI@Z			; i3ElementBase::`scalar deleting destructor'
PUBLIC	??_Ei3ElementBase@@UAEPAXI@Z			; i3ElementBase::`vector deleting destructor'
PUBLIC	??0i3MemoryPool@@QAE@ABV0@@Z			; i3MemoryPool::i3MemoryPool
PUBLIC	??4i3MemoryPool@@QAEAAV0@ABV0@@Z		; i3MemoryPool::operator=
PUBLIC	??_Gi3MemoryPool@@UAEPAXI@Z			; i3MemoryPool::`scalar deleting destructor'
PUBLIC	??_Ei3MemoryPool@@UAEPAXI@Z			; i3MemoryPool::`vector deleting destructor'
PUBLIC	?GetClassMeta@i3Stream@@SAPAVi3ClassMeta@@XZ	; i3Stream::GetClassMeta
PUBLIC	?GetSize@i3Stream@@QAEIXZ			; i3Stream::GetSize
PUBLIC	?GetLastError@i3Stream@@QAE?AW4STREAMCODE@1@XZ	; i3Stream::GetLastError
PUBLIC	?GetAccessMode@i3Stream@@QAEHXZ			; i3Stream::GetAccessMode
PUBLIC	?GetHandle@i3Stream@@UAEPAXXZ			; i3Stream::GetHandle
PUBLIC	?BeginRecord@i3Stream@@QAEXXZ			; i3Stream::BeginRecord
PUBLIC	?GetRecordSize@i3Stream@@QAEIXZ			; i3Stream::GetRecordSize
PUBLIC	??0i3Stream@@QAE@ABV0@@Z			; i3Stream::i3Stream
PUBLIC	??4i3Stream@@QAEAAV0@ABV0@@Z			; i3Stream::operator=
PUBLIC	??_Gi3Stream@@UAEPAXI@Z				; i3Stream::`scalar deleting destructor'
PUBLIC	??_Ei3Stream@@UAEPAXI@Z				; i3Stream::`vector deleting destructor'
PUBLIC	?GetClassMeta@i3Timer@@SAPAVi3ClassMeta@@XZ	; i3Timer::GetClassMeta
PUBLIC	??0i3Timer@@QAE@ABV0@@Z				; i3Timer::i3Timer
PUBLIC	??4i3Timer@@QAEAAV0@ABV0@@Z			; i3Timer::operator=
PUBLIC	??_Gi3Timer@@UAEPAXI@Z				; i3Timer::`scalar deleting destructor'
PUBLIC	??_Ei3Timer@@UAEPAXI@Z				; i3Timer::`vector deleting destructor'
PUBLIC	?GetClassMeta@i3Mutex@@SAPAVi3ClassMeta@@XZ	; i3Mutex::GetClassMeta
PUBLIC	??0i3Mutex@@QAE@ABV0@@Z				; i3Mutex::i3Mutex
PUBLIC	??4i3Mutex@@QAEAAV0@ABV0@@Z			; i3Mutex::operator=
PUBLIC	??_Gi3Mutex@@UAEPAXI@Z				; i3Mutex::`scalar deleting destructor'
PUBLIC	??_Ei3Mutex@@UAEPAXI@Z				; i3Mutex::`vector deleting destructor'
PUBLIC	??4i3Mutex2@@QAEAAV0@ABV0@@Z			; i3Mutex2::operator=
PUBLIC	??4i3Monitor2@@QAEAAV0@ABV0@@Z			; i3Monitor2::operator=
PUBLIC	?_OptionsStorage@?1??__local_stdio_printf_options@@9@4_KA ; `__local_stdio_printf_options'::`2'::_OptionsStorage
PUBLIC	??_7i3ClassMeta@@6B@				; i3ClassMeta::`vftable'
PUBLIC	??_7i3ElementBase@@6B@				; i3ElementBase::`vftable'
PUBLIC	??_7i3MemoryPool@@6B@				; i3MemoryPool::`vftable'
PUBLIC	??_7i3Stream@@6B@				; i3Stream::`vftable'
PUBLIC	??_7i3Timer@@6B@				; i3Timer::`vftable'
PUBLIC	??_7i3Mutex@@6B@				; i3Mutex::`vftable'
PUBLIC	??_C@_06PCAIPKHG@CPU?5?$DN?5@			; `string'
PUBLIC	??_C@_0CP@JONMPIIP@HARDWARE?2DESCRIPTION?2System?2Cen@ ; `string'
PUBLIC	??_C@_0BE@JLBLPHPE@ProcessorNameString@		; `string'
PUBLIC	??_C@_0EP@MDFIIODI@SYSTEM?2ControlSet001?2Control?2Cl@ ; `string'
PUBLIC	??_C@_0L@LMCCAGGO@DriverDesc@			; `string'
PUBLIC	??_C@_0BD@KFOFLKMB@?7?5Vedio?5Card?5?$DN?5?$CFs?6@ ; `string'
PUBLIC	??_C@_0L@GAFFCADK@DriverDate@			; `string'
PUBLIC	??_C@_0BP@OEEKLLBF@?7?5Vedio?5Card?5Driver?5Date?5?$DN?5?$CFs?6@ ; `string'
PUBLIC	??_C@_0O@KKIKAADI@DriverVersion@		; `string'
PUBLIC	??_C@_0CC@LAHNAAGJ@?7?5Vedio?5Card?5Driver?5Version?5?$DN?5?$CF@ ; `string'
PUBLIC	??_C@_0N@ONCOBKP@ProviderName@			; `string'
PUBLIC	??_C@_0CC@IPHEPDOB@?7?5Vedio?5Card?5Driver?5Provider?5?$DN?5@ ; `string'
PUBLIC	??_C@_05NGIFKOKB@OS?5?$DN?5@			; `string'
PUBLIC	??_C@_0M@CNDNFGLO@Unknown?5O?1S@		; `string'
PUBLIC	??_C@_0N@MEKDBOKB@Windows?52000@		; `string'
PUBLIC	??_C@_0L@IFICELHB@Windows?5XP@			; `string'
PUBLIC	??_C@_0N@OPIOENGC@Windows?52003@		; `string'
PUBLIC	??_C@_0BH@CGDGPFOP@Windows?52000?$MA?L?$LL?s?$MA?G?5O?1S@ ; `string'
PUBLIC	??_C@_0BI@FPIFAPE@Windows?5NT4?40?$MA?L?G?O?$MA?G?5O?1S@ ; `string'
PUBLIC	??_C@_0L@NEBNHFIE@Windows?595@			; `string'
PUBLIC	??_C@_0L@GBLDALMJ@Windows?598@			; `string'
PUBLIC	??_C@_0L@DNFOOIFM@Windows?5Me@			; `string'
PUBLIC	??_C@_06PCABAPOK@Wind32@			; `string'
PUBLIC	??_C@_06EMHLCMIC@Win32s@			; `string'
PUBLIC	??_C@_0CH@NMOOOJAK@Unknown?5O?1S?4?5Linux?5O?1S?$LG?s?$LA?m?5?$LL?$PN?$LA?$KC@ ; `string'
PUBLIC	??_C@_0HE@CFAHAEOM@?7?$LI?$NO?$MA?N?5?$LI?$NO?$LI?p?$LI?$KO?5?C?Q?5?E?$KJ?$LB?b?$DN?5?$CFd?5?6?7?$LI?$NO?$MA?N@ ; `string'
PUBLIC	??_C@_0BL@EKBMAHOL@SOFTWARE?2Microsoft?2DirectX@ ; `string'
PUBLIC	??_C@_0BAI@BEKFNEFG@?5?9?$DO?$LL?g?$LP?k?$LP?$LJ?3?54?408?402?40134?$MA?L?$LG?s?$LI?i?0?5@ ; `string'
PUBLIC	??_C@_07NGFJPNPN@Version@			; `string'
PUBLIC	??_C@_0L@KCMOCOLC@DirectX?5?$DN?5@		; `string'
PUBLIC	??_C@_03OFAPEBGM@?$CFs?6@			; `string'
PUBLIC	??_C@_0L@NCAKMKMP@?$CF02d?5?$DN?5?$CFs?6@	; `string'
PUBLIC	??_C@_0BB@BJPIHJLL@mail?4zepetto?4com@		; `string'
PUBLIC	??_C@_04ODLBFFJE@User@				; `string'
PUBLIC	??_C@_0O@EDBDMJLF@User?$EAUser?4com@		; `string'
PUBLIC	??_C@_00CNPNBAHC@@				; `string'
PUBLIC	??_C@_0BE@EOKPPGJO@program?$EAZepetto?4com@	; `string'
PUBLIC	??_C@_0DO@COHJBLHH@?$FLApp?5name?3?5?$CFs?$FN?5Bug?5Report?$FLDate?3@ ; `string'
PUBLIC	??_C@_01KICIPPFI@?2@				; `string'
PUBLIC	??_C@_0GD@IGODELLK@E?3?2Proyectos?2JuegosOnlineproyec@ ; `string'
PUBLIC	??_C@_05BMGBEOOC@?$CFs?2?$CFs@			; `string'
PUBLIC	??_C@_06BNHEIDIH@?$CFs?2?$CK?4?$CK@		; `string'
PUBLIC	??_C@_01LFCBOECM@?4@				; `string'
PUBLIC	??_C@_02DJGKEECL@?4?4@				; `string'
PUBLIC	??_C@_05GFOLEBJA@?$CFs?1?$CFs@			; `string'
PUBLIC	??_R4i3ElementBase@@6B@				; i3ElementBase::`RTTI Complete Object Locator'
PUBLIC	??_R0?AVi3ElementBase@@@8			; i3ElementBase `RTTI Type Descriptor'
PUBLIC	??_R3i3ElementBase@@8				; i3ElementBase::`RTTI Class Hierarchy Descriptor'
PUBLIC	??_R2i3ElementBase@@8				; i3ElementBase::`RTTI Base Class Array'
PUBLIC	??_R1A@?0A@EA@i3ElementBase@@8			; i3ElementBase::`RTTI Base Class Descriptor at (0,-1,0,64)'
PUBLIC	??_R4i3MemoryPool@@6B@				; i3MemoryPool::`RTTI Complete Object Locator'
PUBLIC	??_R0?AVi3MemoryPool@@@8			; i3MemoryPool `RTTI Type Descriptor'
PUBLIC	??_R3i3MemoryPool@@8				; i3MemoryPool::`RTTI Class Hierarchy Descriptor'
PUBLIC	??_R2i3MemoryPool@@8				; i3MemoryPool::`RTTI Base Class Array'
PUBLIC	??_R1A@?0A@EA@i3MemoryPool@@8			; i3MemoryPool::`RTTI Base Class Descriptor at (0,-1,0,64)'
PUBLIC	??_R4i3ClassMeta@@6B@				; i3ClassMeta::`RTTI Complete Object Locator'
PUBLIC	??_R0?AVi3ClassMeta@@@8				; i3ClassMeta `RTTI Type Descriptor'
PUBLIC	??_R3i3ClassMeta@@8				; i3ClassMeta::`RTTI Class Hierarchy Descriptor'
PUBLIC	??_R2i3ClassMeta@@8				; i3ClassMeta::`RTTI Base Class Array'
PUBLIC	??_R1A@?0A@EA@i3ClassMeta@@8			; i3ClassMeta::`RTTI Base Class Descriptor at (0,-1,0,64)'
PUBLIC	??_R4i3Stream@@6B@				; i3Stream::`RTTI Complete Object Locator'
PUBLIC	??_R0?AVi3Stream@@@8				; i3Stream `RTTI Type Descriptor'
PUBLIC	??_R3i3Stream@@8				; i3Stream::`RTTI Class Hierarchy Descriptor'
PUBLIC	??_R2i3Stream@@8				; i3Stream::`RTTI Base Class Array'
PUBLIC	??_R1A@?0A@EA@i3Stream@@8			; i3Stream::`RTTI Base Class Descriptor at (0,-1,0,64)'
PUBLIC	??_R4i3Timer@@6B@				; i3Timer::`RTTI Complete Object Locator'
PUBLIC	??_R0?AVi3Timer@@@8				; i3Timer `RTTI Type Descriptor'
PUBLIC	??_R3i3Timer@@8					; i3Timer::`RTTI Class Hierarchy Descriptor'
PUBLIC	??_R2i3Timer@@8					; i3Timer::`RTTI Base Class Array'
PUBLIC	??_R1A@?0A@EA@i3Timer@@8			; i3Timer::`RTTI Base Class Descriptor at (0,-1,0,64)'
PUBLIC	??_R4i3Mutex@@6B@				; i3Mutex::`RTTI Complete Object Locator'
PUBLIC	??_R0?AVi3Mutex@@@8				; i3Mutex `RTTI Type Descriptor'
PUBLIC	??_R3i3Mutex@@8					; i3Mutex::`RTTI Class Hierarchy Descriptor'
PUBLIC	??_R2i3Mutex@@8					; i3Mutex::`RTTI Base Class Array'
PUBLIC	??_R1A@?0A@EA@i3Mutex@@8			; i3Mutex::`RTTI Base Class Descriptor at (0,-1,0,64)'
EXTRN	??_M@YGXPAXIIP6EX0@Z@Z:PROC			; `eh vector destructor iterator'
EXTRN	__purecall:PROC
EXTRN	??3@YAXPAX@Z:PROC				; operator delete
EXTRN	??3@YAXPAXI@Z:PROC				; operator delete
EXTRN	??_V@YAXPAX@Z:PROC				; operator delete[]
EXTRN	??_V@YAXPAXI@Z:PROC				; operator delete[]
EXTRN	_atexit:PROC
EXTRN	___report_rangecheckfailure:PROC
EXTRN	__imp__GetEnvironmentVariableA@12:PROC
EXTRN	__imp__SetCurrentDirectoryA@4:PROC
EXTRN	__imp__SetCurrentDirectoryW@4:PROC
EXTRN	__imp__GetCurrentDirectoryA@8:PROC
EXTRN	__imp__GetCurrentDirectoryW@8:PROC
EXTRN	__imp__CreateDirectoryA@8:PROC
EXTRN	__imp__CreateDirectoryW@8:PROC
EXTRN	__imp__DeleteFileA@4:PROC
EXTRN	__imp__FindClose@4:PROC
EXTRN	__imp__FindFirstFileA@8:PROC
EXTRN	__imp__FindNextFileA@8:PROC
EXTRN	__imp__GetFileAttributesA@4:PROC
EXTRN	__imp__CloseHandle@4:PROC
EXTRN	__imp__GetPriorityClass@4:PROC
EXTRN	__imp__OpenProcess@12:PROC
EXTRN	__imp__GetLocalTime@4:PROC
EXTRN	__imp__GetVersionExA@4:PROC
EXTRN	__imp__GetModuleFileNameA@12:PROC
EXTRN	__imp__GetModuleHandleA@4:PROC
EXTRN	__imp__GlobalMemoryStatus@4:PROC
EXTRN	__imp__MoveFileA@8:PROC
EXTRN	__imp__RegCloseKey@4:PROC
EXTRN	__imp__RegOpenKeyExA@20:PROC
EXTRN	__imp__RegQueryValueExA@24:PROC
EXTRN	___stdio_common_vsprintf:PROC
EXTRN	__controlfp:PROC
EXTRN	?i3CPUid@@YAHPAU_tagi3ProcessorInfo@@@Z:PROC	; i3CPUid
EXTRN	?AllocTool@i3mem@@YAPAXHHHPBDH@Z:PROC		; i3mem::AllocTool
EXTRN	?FreeTool@i3mem@@YAXPAXPBDH@Z:PROC		; i3mem::FreeTool
EXTRN	??1i3ClassMeta@@UAE@XZ:PROC			; i3ClassMeta::~i3ClassMeta
EXTRN	?CreateInstance@i3ClassMeta@@UAEPAVi3ElementBase@@W4I3_CLASSMETA_TYPE@@@Z:PROC ; i3ClassMeta::CreateInstance
EXTRN	?BindInstance@i3ClassMeta@@UAEPAVi3ElementBase@@PAXW4I3_CLASSMETA_TYPE@@@Z:PROC ; i3ClassMeta::BindInstance
EXTRN	?IsTypeOf@i3ClassMeta@@QAE_NPAV1@@Z:PROC	; i3ClassMeta::IsTypeOf
EXTRN	?GetMeta@i3ElementBase@@UAEPAVi3ClassMeta@@XZ:PROC ; i3ElementBase::GetMeta
EXTRN	??1i3ElementBase@@UAE@XZ:PROC			; i3ElementBase::~i3ElementBase
EXTRN	??3i3ElementBase@@SAXPAX@Z:PROC			; i3ElementBase::operator delete
EXTRN	?CopyTo@i3ElementBase@@UAEXPAV1@W4I3_COPY_METHOD@@@Z:PROC ; i3ElementBase::CopyTo
EXTRN	??1i3MemoryPool@@UAE@XZ:PROC			; i3MemoryPool::~i3MemoryPool
EXTRN	?GetMeta@i3Stream@@UAEPAVi3ClassMeta@@XZ:PROC	; i3Stream::GetMeta
EXTRN	??1i3Stream@@UAE@XZ:PROC			; i3Stream::~i3Stream
EXTRN	?CopyTo@i3Stream@@UAEIPAV1@I@Z:PROC		; i3Stream::CopyTo
EXTRN	?CopyFrom@i3Stream@@UAEIPAV1@I@Z:PROC		; i3Stream::CopyFrom
EXTRN	?ReadLine@i3Stream@@UAEIPADH@Z:PROC		; i3Stream::ReadLine
EXTRN	?ReadLineW@i3Stream@@UAEIPAGH@Z:PROC		; i3Stream::ReadLineW
EXTRN	?WriteLine@i3Stream@@UAEIPBD@Z:PROC		; i3Stream::WriteLine
EXTRN	?WriteLineW@i3Stream@@UAEIPBG@Z:PROC		; i3Stream::WriteLineW
EXTRN	?Printf@i3Stream@@UAAIPADPBDZZ:PROC		; i3Stream::Printf
EXTRN	?SplitFileName@i3String@@YAPADPBDPADH@Z:PROC	; i3String::SplitFileName
EXTRN	?SplitPath@i3String@@YAXPBDPAD@Z:PROC		; i3String::SplitPath
EXTRN	?NormalizePath@i3String@@YAXPAD@Z:PROC		; i3String::NormalizePath
EXTRN	?Concat@i3String@@YAXPADPBD@Z:PROC		; i3String::Concat
EXTRN	??0i3SMTPMail@@QAE@XZ:PROC			; i3SMTPMail::i3SMTPMail
EXTRN	??1i3SMTPMail@@UAE@XZ:PROC			; i3SMTPMail::~i3SMTPMail
EXTRN	?AddRecipient@i3SMTPMail@@QAEHQBD0@Z:PROC	; i3SMTPMail::AddRecipient
EXTRN	?ConnectServer@i3SMTPMail@@QAEHPBDG@Z:PROC	; i3SMTPMail::ConnectServer
EXTRN	?Disconnect@i3SMTPMail@@QAEHXZ:PROC		; i3SMTPMail::Disconnect
EXTRN	?GetConnectStatus@i3SMTPMail@@QAEHXZ:PROC	; i3SMTPMail::GetConnectStatus
EXTRN	?Send@i3SMTPMail@@QAEHXZ:PROC			; i3SMTPMail::Send
EXTRN	?SetMessageBody@i3SMTPMail@@QAEXPBD@Z:PROC	; i3SMTPMail::SetMessageBody
EXTRN	?SetSubject@i3SMTPMail@@QAEXPBD@Z:PROC		; i3SMTPMail::SetSubject
EXTRN	?SetSenderName@i3SMTPMail@@QAEXPBD@Z:PROC	; i3SMTPMail::SetSenderName
EXTRN	?SetSenderEmail@i3SMTPMail@@QAEXPBD@Z:PROC	; i3SMTPMail::SetSenderEmail
EXTRN	?SetFileAttach@i3SMTPMail@@QAEHPAD@Z:PROC	; i3SMTPMail::SetFileAttach
EXTRN	?CalcFLOPS_Linpack@@YANHHM@Z:PROC		; CalcFLOPS_Linpack
EXTRN	?GetMeta@i3Timer@@UAEPAVi3ClassMeta@@XZ:PROC	; i3Timer::GetMeta
EXTRN	??1i3Timer@@UAE@XZ:PROC				; i3Timer::~i3Timer
EXTRN	?GetMeta@i3Mutex@@UAEPAVi3ClassMeta@@XZ:PROC	; i3Mutex::GetMeta
EXTRN	??1i3Mutex@@UAE@XZ:PROC				; i3Mutex::~i3Mutex
EXTRN	??0i3Mutex2@@QAE@XZ:PROC			; i3Mutex2::i3Mutex2
EXTRN	??1i3Mutex2@@QAE@XZ:PROC			; i3Mutex2::~i3Mutex2
EXTRN	?Enter@i3Mutex2@@QAEXXZ:PROC			; i3Mutex2::Enter
EXTRN	?Leave@i3Mutex2@@QAEXXZ:PROC			; i3Mutex2::Leave
EXTRN	_CreateToolhelp32Snapshot@8:PROC
EXTRN	_Process32First@8:PROC
EXTRN	_Process32Next@8:PROC
EXTRN	@__security_check_cookie@4:PROC
EXTRN	___CxxFrameHandler3:PROC
EXTRN	__ftol2_sse:PROC
EXTRN	_memset:PROC
EXTRN	??_7type_info@@6B@:QWORD			; type_info::`vftable'
EXTRN	?s_pClassMetai3ElementBase@i3ElementBase@@2PAVi3ClassMeta@@A:DWORD ; i3ElementBase::s_pClassMetai3ElementBase
EXTRN	?s_pClassMetai3Stream@i3Stream@@2PAVi3ClassMeta@@A:DWORD ; i3Stream::s_pClassMetai3Stream
EXTRN	?s_pClassMetai3Timer@i3Timer@@2PAVi3ClassMeta@@A:DWORD ; i3Timer::s_pClassMetai3Timer
EXTRN	?s_pClassMetai3Mutex@i3Mutex@@2PAVi3ClassMeta@@A:DWORD ; i3Mutex::s_pClassMetai3Mutex
EXTRN	___security_cookie:DWORD
EXTRN	__fltused:DWORD
;	COMDAT ?_OptionsStorage@?1??__local_stdio_printf_options@@9@4_KA
_BSS	SEGMENT
?_OptionsStorage@?1??__local_stdio_printf_options@@9@4_KA DQ 01H DUP (?) ; `__local_stdio_printf_options'::`2'::_OptionsStorage
_BSS	ENDS
_BSS	SEGMENT
?s_CSSystem@@3Vi3Mutex2@@A DB 018H DUP (?)		; s_CSSystem
?s_pHead@@3PAU_tagTerminateInfo@@A DD 01H DUP (?)	; s_pHead
?s_Level@@3HA DD 01H DUP (?)				; s_Level
?_UserProc@@3P6AHHPADPAX1@ZA DD 01H DUP (?)		; _UserProc
?_UserData@@3PAXA DD 01H DUP (?)			; _UserData
?_Type@@3IA DD	01H DUP (?)				; _Type
?Count@@3HA DD	01H DUP (?)				; Count
?FindData@@3U_WIN32_FIND_DATAA@@A DB 0140H DUP (?)	; FindData
_BSS	ENDS
CRT$XCU	SEGMENT
?s_CSSystem$initializer$@@3P6AXXZA DD FLAT:??__Es_CSSystem@@YAXXZ ; s_CSSystem$initializer$
CRT$XCU	ENDS
;	COMDAT ??_R1A@?0A@EA@i3Mutex@@8
rdata$r	SEGMENT
??_R1A@?0A@EA@i3Mutex@@8 DD FLAT:??_R0?AVi3Mutex@@@8	; i3Mutex::`RTTI Base Class Descriptor at (0,-1,0,64)'
	DD	01H
	DD	00H
	DD	0ffffffffH
	DD	00H
	DD	040H
	DD	FLAT:??_R3i3Mutex@@8
rdata$r	ENDS
;	COMDAT ??_R2i3Mutex@@8
rdata$r	SEGMENT
??_R2i3Mutex@@8 DD FLAT:??_R1A@?0A@EA@i3Mutex@@8	; i3Mutex::`RTTI Base Class Array'
	DD	FLAT:??_R1A@?0A@EA@i3ElementBase@@8
rdata$r	ENDS
;	COMDAT ??_R3i3Mutex@@8
rdata$r	SEGMENT
??_R3i3Mutex@@8 DD 00H					; i3Mutex::`RTTI Class Hierarchy Descriptor'
	DD	00H
	DD	02H
	DD	FLAT:??_R2i3Mutex@@8
rdata$r	ENDS
;	COMDAT ??_R0?AVi3Mutex@@@8
data$rs	SEGMENT
??_R0?AVi3Mutex@@@8 DD FLAT:??_7type_info@@6B@		; i3Mutex `RTTI Type Descriptor'
	DD	00H
	DB	'.?AVi3Mutex@@', 00H
data$rs	ENDS
;	COMDAT ??_R4i3Mutex@@6B@
rdata$r	SEGMENT
??_R4i3Mutex@@6B@ DD 00H				; i3Mutex::`RTTI Complete Object Locator'
	DD	00H
	DD	00H
	DD	FLAT:??_R0?AVi3Mutex@@@8
	DD	FLAT:??_R3i3Mutex@@8
rdata$r	ENDS
;	COMDAT ??_R1A@?0A@EA@i3Timer@@8
rdata$r	SEGMENT
??_R1A@?0A@EA@i3Timer@@8 DD FLAT:??_R0?AVi3Timer@@@8	; i3Timer::`RTTI Base Class Descriptor at (0,-1,0,64)'
	DD	01H
	DD	00H
	DD	0ffffffffH
	DD	00H
	DD	040H
	DD	FLAT:??_R3i3Timer@@8
rdata$r	ENDS
;	COMDAT ??_R2i3Timer@@8
rdata$r	SEGMENT
??_R2i3Timer@@8 DD FLAT:??_R1A@?0A@EA@i3Timer@@8	; i3Timer::`RTTI Base Class Array'
	DD	FLAT:??_R1A@?0A@EA@i3ElementBase@@8
rdata$r	ENDS
;	COMDAT ??_R3i3Timer@@8
rdata$r	SEGMENT
??_R3i3Timer@@8 DD 00H					; i3Timer::`RTTI Class Hierarchy Descriptor'
	DD	00H
	DD	02H
	DD	FLAT:??_R2i3Timer@@8
rdata$r	ENDS
;	COMDAT ??_R0?AVi3Timer@@@8
data$rs	SEGMENT
??_R0?AVi3Timer@@@8 DD FLAT:??_7type_info@@6B@		; i3Timer `RTTI Type Descriptor'
	DD	00H
	DB	'.?AVi3Timer@@', 00H
data$rs	ENDS
;	COMDAT ??_R4i3Timer@@6B@
rdata$r	SEGMENT
??_R4i3Timer@@6B@ DD 00H				; i3Timer::`RTTI Complete Object Locator'
	DD	00H
	DD	00H
	DD	FLAT:??_R0?AVi3Timer@@@8
	DD	FLAT:??_R3i3Timer@@8
rdata$r	ENDS
;	COMDAT ??_R1A@?0A@EA@i3Stream@@8
rdata$r	SEGMENT
??_R1A@?0A@EA@i3Stream@@8 DD FLAT:??_R0?AVi3Stream@@@8	; i3Stream::`RTTI Base Class Descriptor at (0,-1,0,64)'
	DD	01H
	DD	00H
	DD	0ffffffffH
	DD	00H
	DD	040H
	DD	FLAT:??_R3i3Stream@@8
rdata$r	ENDS
;	COMDAT ??_R2i3Stream@@8
rdata$r	SEGMENT
??_R2i3Stream@@8 DD FLAT:??_R1A@?0A@EA@i3Stream@@8	; i3Stream::`RTTI Base Class Array'
	DD	FLAT:??_R1A@?0A@EA@i3ElementBase@@8
rdata$r	ENDS
;	COMDAT ??_R3i3Stream@@8
rdata$r	SEGMENT
??_R3i3Stream@@8 DD 00H					; i3Stream::`RTTI Class Hierarchy Descriptor'
	DD	00H
	DD	02H
	DD	FLAT:??_R2i3Stream@@8
rdata$r	ENDS
;	COMDAT ??_R0?AVi3Stream@@@8
data$rs	SEGMENT
??_R0?AVi3Stream@@@8 DD FLAT:??_7type_info@@6B@		; i3Stream `RTTI Type Descriptor'
	DD	00H
	DB	'.?AVi3Stream@@', 00H
data$rs	ENDS
;	COMDAT ??_R4i3Stream@@6B@
rdata$r	SEGMENT
??_R4i3Stream@@6B@ DD 00H				; i3Stream::`RTTI Complete Object Locator'
	DD	00H
	DD	00H
	DD	FLAT:??_R0?AVi3Stream@@@8
	DD	FLAT:??_R3i3Stream@@8
rdata$r	ENDS
;	COMDAT ??_R1A@?0A@EA@i3ClassMeta@@8
rdata$r	SEGMENT
??_R1A@?0A@EA@i3ClassMeta@@8 DD FLAT:??_R0?AVi3ClassMeta@@@8 ; i3ClassMeta::`RTTI Base Class Descriptor at (0,-1,0,64)'
	DD	00H
	DD	00H
	DD	0ffffffffH
	DD	00H
	DD	040H
	DD	FLAT:??_R3i3ClassMeta@@8
rdata$r	ENDS
;	COMDAT ??_R2i3ClassMeta@@8
rdata$r	SEGMENT
??_R2i3ClassMeta@@8 DD FLAT:??_R1A@?0A@EA@i3ClassMeta@@8 ; i3ClassMeta::`RTTI Base Class Array'
rdata$r	ENDS
;	COMDAT ??_R3i3ClassMeta@@8
rdata$r	SEGMENT
??_R3i3ClassMeta@@8 DD 00H				; i3ClassMeta::`RTTI Class Hierarchy Descriptor'
	DD	00H
	DD	01H
	DD	FLAT:??_R2i3ClassMeta@@8
rdata$r	ENDS
;	COMDAT ??_R0?AVi3ClassMeta@@@8
data$rs	SEGMENT
??_R0?AVi3ClassMeta@@@8 DD FLAT:??_7type_info@@6B@	; i3ClassMeta `RTTI Type Descriptor'
	DD	00H
	DB	'.?AVi3ClassMeta@@', 00H
data$rs	ENDS
;	COMDAT ??_R4i3ClassMeta@@6B@
rdata$r	SEGMENT
??_R4i3ClassMeta@@6B@ DD 00H				; i3ClassMeta::`RTTI Complete Object Locator'
	DD	00H
	DD	00H
	DD	FLAT:??_R0?AVi3ClassMeta@@@8
	DD	FLAT:??_R3i3ClassMeta@@8
rdata$r	ENDS
;	COMDAT ??_R1A@?0A@EA@i3MemoryPool@@8
rdata$r	SEGMENT
??_R1A@?0A@EA@i3MemoryPool@@8 DD FLAT:??_R0?AVi3MemoryPool@@@8 ; i3MemoryPool::`RTTI Base Class Descriptor at (0,-1,0,64)'
	DD	00H
	DD	00H
	DD	0ffffffffH
	DD	00H
	DD	040H
	DD	FLAT:??_R3i3MemoryPool@@8
rdata$r	ENDS
;	COMDAT ??_R2i3MemoryPool@@8
rdata$r	SEGMENT
??_R2i3MemoryPool@@8 DD FLAT:??_R1A@?0A@EA@i3MemoryPool@@8 ; i3MemoryPool::`RTTI Base Class Array'
rdata$r	ENDS
;	COMDAT ??_R3i3MemoryPool@@8
rdata$r	SEGMENT
??_R3i3MemoryPool@@8 DD 00H				; i3MemoryPool::`RTTI Class Hierarchy Descriptor'
	DD	00H
	DD	01H
	DD	FLAT:??_R2i3MemoryPool@@8
rdata$r	ENDS
;	COMDAT ??_R0?AVi3MemoryPool@@@8
data$rs	SEGMENT
??_R0?AVi3MemoryPool@@@8 DD FLAT:??_7type_info@@6B@	; i3MemoryPool `RTTI Type Descriptor'
	DD	00H
	DB	'.?AVi3MemoryPool@@', 00H
data$rs	ENDS
;	COMDAT ??_R4i3MemoryPool@@6B@
rdata$r	SEGMENT
??_R4i3MemoryPool@@6B@ DD 00H				; i3MemoryPool::`RTTI Complete Object Locator'
	DD	00H
	DD	00H
	DD	FLAT:??_R0?AVi3MemoryPool@@@8
	DD	FLAT:??_R3i3MemoryPool@@8
rdata$r	ENDS
;	COMDAT ??_R1A@?0A@EA@i3ElementBase@@8
rdata$r	SEGMENT
??_R1A@?0A@EA@i3ElementBase@@8 DD FLAT:??_R0?AVi3ElementBase@@@8 ; i3ElementBase::`RTTI Base Class Descriptor at (0,-1,0,64)'
	DD	00H
	DD	00H
	DD	0ffffffffH
	DD	00H
	DD	040H
	DD	FLAT:??_R3i3ElementBase@@8
rdata$r	ENDS
;	COMDAT ??_R2i3ElementBase@@8
rdata$r	SEGMENT
??_R2i3ElementBase@@8 DD FLAT:??_R1A@?0A@EA@i3ElementBase@@8 ; i3ElementBase::`RTTI Base Class Array'
rdata$r	ENDS
;	COMDAT ??_R3i3ElementBase@@8
rdata$r	SEGMENT
??_R3i3ElementBase@@8 DD 00H				; i3ElementBase::`RTTI Class Hierarchy Descriptor'
	DD	00H
	DD	01H
	DD	FLAT:??_R2i3ElementBase@@8
rdata$r	ENDS
;	COMDAT ??_R0?AVi3ElementBase@@@8
data$rs	SEGMENT
??_R0?AVi3ElementBase@@@8 DD FLAT:??_7type_info@@6B@	; i3ElementBase `RTTI Type Descriptor'
	DD	00H
	DB	'.?AVi3ElementBase@@', 00H
data$rs	ENDS
;	COMDAT ??_R4i3ElementBase@@6B@
rdata$r	SEGMENT
??_R4i3ElementBase@@6B@ DD 00H				; i3ElementBase::`RTTI Complete Object Locator'
	DD	00H
	DD	00H
	DD	FLAT:??_R0?AVi3ElementBase@@@8
	DD	FLAT:??_R3i3ElementBase@@8
rdata$r	ENDS
;	COMDAT ??_C@_05GFOLEBJA@?$CFs?1?$CFs@
CONST	SEGMENT
??_C@_05GFOLEBJA@?$CFs?1?$CFs@ DB '%s/%s', 00H		; `string'
CONST	ENDS
;	COMDAT ??_C@_02DJGKEECL@?4?4@
CONST	SEGMENT
??_C@_02DJGKEECL@?4?4@ DB '..', 00H			; `string'
CONST	ENDS
;	COMDAT ??_C@_01LFCBOECM@?4@
CONST	SEGMENT
??_C@_01LFCBOECM@?4@ DB '.', 00H			; `string'
CONST	ENDS
;	COMDAT ??_C@_06BNHEIDIH@?$CFs?2?$CK?4?$CK@
CONST	SEGMENT
??_C@_06BNHEIDIH@?$CFs?2?$CK?4?$CK@ DB '%s\*.*', 00H	; `string'
CONST	ENDS
;	COMDAT ??_C@_05BMGBEOOC@?$CFs?2?$CFs@
CONST	SEGMENT
??_C@_05BMGBEOOC@?$CFs?2?$CFs@ DB '%s\%s', 00H		; `string'
CONST	ENDS
;	COMDAT ??_C@_0GD@IGODELLK@E?3?2Proyectos?2JuegosOnlineproyec@
CONST	SEGMENT
??_C@_0GD@IGODELLK@E?3?2Proyectos?2JuegosOnlineproyec@ DB 'E:\Proyectos\J'
	DB	'uegosOnlineproyectos\PB\pbblow\Piercing Blow Remake\i3Server\'
	DB	'src\i3Base\i3System.cpp', 00H		; `string'
CONST	ENDS
;	COMDAT ??_C@_01KICIPPFI@?2@
CONST	SEGMENT
??_C@_01KICIPPFI@?2@ DB '\', 00H			; `string'
CONST	ENDS
;	COMDAT ??_C@_0DO@COHJBLHH@?$FLApp?5name?3?5?$CFs?$FN?5Bug?5Report?$FLDate?3@
CONST	SEGMENT
??_C@_0DO@COHJBLHH@?$FLApp?5name?3?5?$CFs?$FN?5Bug?5Report?$FLDate?3@ DB '['
	DB	'App name: %s] Bug Report[Date:%02d%02d  Time:%02d:%02d:%02d]', 00H ; `string'
CONST	ENDS
;	COMDAT ??_C@_0BE@EOKPPGJO@program?$EAZepetto?4com@
CONST	SEGMENT
??_C@_0BE@EOKPPGJO@program?$EAZepetto?4com@ DB 'program@Zepetto.com', 00H ; `string'
CONST	ENDS
;	COMDAT ??_C@_00CNPNBAHC@@
CONST	SEGMENT
??_C@_00CNPNBAHC@@ DB 00H				; `string'
CONST	ENDS
;	COMDAT ??_C@_0O@EDBDMJLF@User?$EAUser?4com@
CONST	SEGMENT
??_C@_0O@EDBDMJLF@User?$EAUser?4com@ DB 'User@User.com', 00H ; `string'
CONST	ENDS
;	COMDAT ??_C@_04ODLBFFJE@User@
CONST	SEGMENT
??_C@_04ODLBFFJE@User@ DB 'User', 00H			; `string'
CONST	ENDS
;	COMDAT ??_C@_0BB@BJPIHJLL@mail?4zepetto?4com@
CONST	SEGMENT
??_C@_0BB@BJPIHJLL@mail?4zepetto?4com@ DB 'mail.zepetto.com', 00H ; `string'
CONST	ENDS
;	COMDAT ??_C@_0L@NCAKMKMP@?$CF02d?5?$DN?5?$CFs?6@
CONST	SEGMENT
??_C@_0L@NCAKMKMP@?$CF02d?5?$DN?5?$CFs?6@ DB '%02d = %s', 0aH, 00H ; `string'
CONST	ENDS
;	COMDAT ??_C@_03OFAPEBGM@?$CFs?6@
CONST	SEGMENT
??_C@_03OFAPEBGM@?$CFs?6@ DB '%s', 0aH, 00H		; `string'
CONST	ENDS
;	COMDAT ??_C@_0L@KCMOCOLC@DirectX?5?$DN?5@
CONST	SEGMENT
??_C@_0L@KCMOCOLC@DirectX?5?$DN?5@ DB 'DirectX = ', 00H	; `string'
CONST	ENDS
;	COMDAT ??_C@_07NGFJPNPN@Version@
CONST	SEGMENT
??_C@_07NGFJPNPN@Version@ DB 'Version', 00H		; `string'
CONST	ENDS
;	COMDAT ??_C@_0BAI@BEKFNEFG@?5?9?$DO?$LL?g?$LP?k?$LP?$LJ?3?54?408?402?40134?$MA?L?$LG?s?$LI?i?0?5@
CONST	SEGMENT
??_C@_0BAI@BEKFNEFG@?5?9?$DO?$LL?g?$LP?k?$LP?$LJ?3?54?408?402?40134?$MA?L?$LG?s?$LI?i?0?5@ DB ' '
	DB	'->', 0bbH, 0e7H, 0bfH, 0ebH, 0bfH, 0b9H, ': 4.08.02.0134', 0c0H
	DB	0ccH, 0b6H, 0f3H, 0b8H, 0e9H, ', 4', 0b4H, 0c2H, ' ', 0b0H, 0edH
	DB	0c1H, 0a4H, ', 8', 0c0H, 0baH, ' ', 0b8H, 0deH, 0c0H, 0ccH, 0c0H
	DB	0faH, ' ', 0b9H, 0f6H, 0c1H, 0afH, ', 2', 0b4H, 0c2H, ' ', 0b8H
	DB	0b6H, 0c0H, 0ccH, 0b3H, 0caH, ' ', 0b9H, 0f6H, 0c1H, 0afH, ', '
	DB	'0134', 0b4H, 0c2H, ' ', 0baH, 0f4H, 0b5H, 0e5H, 0b9H, 0f8H, 0c8H
	DB	0a3H, 0aH, ' {', 0c2H, 0fcH, 0c1H, 0b6H, ': http://msdn.micros'
	DB	'oft.com/archive/default.asp?url=/archive/en-us/directx9_c_dec'
	DB	'_2004/directx/directxsdk/reference/DirectSetup/functions/dire'
	DB	'ctxsetupgetversion.asp}', 0aH, 00H		; `string'
CONST	ENDS
;	COMDAT ??_C@_0BL@EKBMAHOL@SOFTWARE?2Microsoft?2DirectX@
CONST	SEGMENT
??_C@_0BL@EKBMAHOL@SOFTWARE?2Microsoft?2DirectX@ DB 'SOFTWARE\Microsoft\D'
	DB	'irectX', 00H				; `string'
CONST	ENDS
;	COMDAT ??_C@_0HE@CFAHAEOM@?7?$LI?$NO?$MA?N?5?$LI?$NO?$LI?p?$LI?$KO?5?C?Q?5?E?$KJ?$LB?b?$DN?5?$CFd?5?6?7?$LI?$NO?$MA?N@
CONST	SEGMENT
??_C@_0HE@CFAHAEOM@?7?$LI?$NO?$MA?N?5?$LI?$NO?$LI?p?$LI?$KO?5?C?Q?5?E?$KJ?$LB?b?$DN?5?$CFd?5?6?7?$LI?$NO?$MA?N@ DB 09H
	DB	0b8H, 0deH, 0c0H, 0ceH, ' ', 0b8H, 0deH, 0b8H, 0f0H, 0b8H, 0aeH
	DB	' ', 0c3H, 0d1H, ' ', 0c5H, 0a9H, 0b1H, 0e2H, '= %d ', 0aH, 09H
	DB	0b8H, 0deH, 0c0H, 0ceH, ' ', 0b8H, 0deH, 0b8H, 0f0H, 0b8H, 0aeH
	DB	' ', 0b0H, 0a1H, 0bfH, 0ebH, ' ', 0c5H, 0a9H, 0b1H, 0e2H, '= %'
	DB	'd ', 0aH, 09H, 0b0H, 0a1H, 0bbH, 0f3H, ' ', 0b8H, 0deH, 0b8H, 0f0H
	DB	0b8H, 0aeH, ' ', 0c3H, 0d1H, ' ', 0bbH, 0e7H, 0c0H, 0ccH, 0c1H
	DB	0eeH, ' = %d ', 0aH, 09H, 0b0H, 0a1H, 0bfH, 0ebH, ' ', 0b0H, 0a1H
	DB	0bbH, 0f3H, ' ', 0b8H, 0deH, 0b8H, 0f0H, 0b8H, 0aeH, ' ', 0c3H
	DB	0d1H, ' ', 0bbH, 0e7H, 0c0H, 0ccH, 0c1H, 0eeH, ' = %d', 00H ; `string'
CONST	ENDS
;	COMDAT ??_C@_0CH@NMOOOJAK@Unknown?5O?1S?4?5Linux?5O?1S?$LG?s?$LA?m?5?$LL?$PN?$LA?$KC@
CONST	SEGMENT
??_C@_0CH@NMOOOJAK@Unknown?5O?1S?4?5Linux?5O?1S?$LG?s?$LA?m?5?$LL?$PN?$LA?$KC@ DB 'U'
	DB	'nknown O/S. Linux O/S', 0b6H, 0f3H, 0b0H, 0edH, ' ', 0bbH, 0fdH
	DB	0b0H, 0a2H, 0b5H, 0c7H, 0beH, 0eeH, 0c1H, 0fcH, '!', 00H ; `string'
CONST	ENDS
;	COMDAT ??_C@_06EMHLCMIC@Win32s@
CONST	SEGMENT
??_C@_06EMHLCMIC@Win32s@ DB 'Win32s', 00H		; `string'
CONST	ENDS
;	COMDAT ??_C@_06PCABAPOK@Wind32@
CONST	SEGMENT
??_C@_06PCABAPOK@Wind32@ DB 'Wind32', 00H		; `string'
CONST	ENDS
;	COMDAT ??_C@_0L@DNFOOIFM@Windows?5Me@
CONST	SEGMENT
??_C@_0L@DNFOOIFM@Windows?5Me@ DB 'Windows Me', 00H	; `string'
CONST	ENDS
;	COMDAT ??_C@_0L@GBLDALMJ@Windows?598@
CONST	SEGMENT
??_C@_0L@GBLDALMJ@Windows?598@ DB 'Windows 98', 00H	; `string'
CONST	ENDS
;	COMDAT ??_C@_0L@NEBNHFIE@Windows?595@
CONST	SEGMENT
??_C@_0L@NEBNHFIE@Windows?595@ DB 'Windows 95', 00H	; `string'
CONST	ENDS
;	COMDAT ??_C@_0BI@FPIFAPE@Windows?5NT4?40?$MA?L?G?O?$MA?G?5O?1S@
CONST	SEGMENT
??_C@_0BI@FPIFAPE@Windows?5NT4?40?$MA?L?G?O?$MA?G?5O?1S@ DB 'Windows NT4.'
	DB	'0', 0c0H, 0ccH, 0c7H, 0cfH, 0c0H, 0c7H, ' O/S', 00H ; `string'
CONST	ENDS
;	COMDAT ??_C@_0BH@CGDGPFOP@Windows?52000?$MA?L?$LL?s?$MA?G?5O?1S@
CONST	SEGMENT
??_C@_0BH@CGDGPFOP@Windows?52000?$MA?L?$LL?s?$MA?G?5O?1S@ DB 'Windows 200'
	DB	'0', 0c0H, 0ccH, 0bbH, 0f3H, 0c0H, 0c7H, ' O/S', 00H ; `string'
CONST	ENDS
;	COMDAT ??_C@_0N@OPIOENGC@Windows?52003@
CONST	SEGMENT
??_C@_0N@OPIOENGC@Windows?52003@ DB 'Windows 2003', 00H	; `string'
CONST	ENDS
;	COMDAT ??_C@_0L@IFICELHB@Windows?5XP@
CONST	SEGMENT
??_C@_0L@IFICELHB@Windows?5XP@ DB 'Windows XP', 00H	; `string'
CONST	ENDS
;	COMDAT ??_C@_0N@MEKDBOKB@Windows?52000@
CONST	SEGMENT
??_C@_0N@MEKDBOKB@Windows?52000@ DB 'Windows 2000', 00H	; `string'
CONST	ENDS
;	COMDAT ??_C@_0M@CNDNFGLO@Unknown?5O?1S@
CONST	SEGMENT
??_C@_0M@CNDNFGLO@Unknown?5O?1S@ DB 'Unknown O/S', 00H	; `string'
CONST	ENDS
;	COMDAT ??_C@_05NGIFKOKB@OS?5?$DN?5@
CONST	SEGMENT
??_C@_05NGIFKOKB@OS?5?$DN?5@ DB 'OS = ', 00H		; `string'
CONST	ENDS
;	COMDAT ??_C@_0CC@IPHEPDOB@?7?5Vedio?5Card?5Driver?5Provider?5?$DN?5@
CONST	SEGMENT
??_C@_0CC@IPHEPDOB@?7?5Vedio?5Card?5Driver?5Provider?5?$DN?5@ DB 09H, ' V'
	DB	'edio Card Driver Provider = %s', 00H	; `string'
CONST	ENDS
;	COMDAT ??_C@_0N@ONCOBKP@ProviderName@
CONST	SEGMENT
??_C@_0N@ONCOBKP@ProviderName@ DB 'ProviderName', 00H	; `string'
CONST	ENDS
;	COMDAT ??_C@_0CC@LAHNAAGJ@?7?5Vedio?5Card?5Driver?5Version?5?$DN?5?$CF@
CONST	SEGMENT
??_C@_0CC@LAHNAAGJ@?7?5Vedio?5Card?5Driver?5Version?5?$DN?5?$CF@ DB 09H, ' '
	DB	'Vedio Card Driver Version = %s', 0aH, 00H	; `string'
CONST	ENDS
;	COMDAT ??_C@_0O@KKIKAADI@DriverVersion@
CONST	SEGMENT
??_C@_0O@KKIKAADI@DriverVersion@ DB 'DriverVersion', 00H ; `string'
CONST	ENDS
;	COMDAT ??_C@_0BP@OEEKLLBF@?7?5Vedio?5Card?5Driver?5Date?5?$DN?5?$CFs?6@
CONST	SEGMENT
??_C@_0BP@OEEKLLBF@?7?5Vedio?5Card?5Driver?5Date?5?$DN?5?$CFs?6@ DB 09H, ' '
	DB	'Vedio Card Driver Date = %s', 0aH, 00H	; `string'
CONST	ENDS
;	COMDAT ??_C@_0L@GAFFCADK@DriverDate@
CONST	SEGMENT
??_C@_0L@GAFFCADK@DriverDate@ DB 'DriverDate', 00H	; `string'
CONST	ENDS
;	COMDAT ??_C@_0BD@KFOFLKMB@?7?5Vedio?5Card?5?$DN?5?$CFs?6@
CONST	SEGMENT
??_C@_0BD@KFOFLKMB@?7?5Vedio?5Card?5?$DN?5?$CFs?6@ DB 09H, ' Vedio Card ='
	DB	' %s', 0aH, 00H				; `string'
CONST	ENDS
;	COMDAT ??_C@_0L@LMCCAGGO@DriverDesc@
CONST	SEGMENT
??_C@_0L@LMCCAGGO@DriverDesc@ DB 'DriverDesc', 00H	; `string'
CONST	ENDS
;	COMDAT ??_C@_0EP@MDFIIODI@SYSTEM?2ControlSet001?2Control?2Cl@
CONST	SEGMENT
??_C@_0EP@MDFIIODI@SYSTEM?2ControlSet001?2Control?2Cl@ DB 'SYSTEM\Control'
	DB	'Set001\Control\Class\{4D36E968-E325-11CE-BFC1-08002BE10318}\0'
	DB	'000', 00H					; `string'
CONST	ENDS
;	COMDAT ??_C@_0BE@JLBLPHPE@ProcessorNameString@
CONST	SEGMENT
??_C@_0BE@JLBLPHPE@ProcessorNameString@ DB 'ProcessorNameString', 00H ; `string'
CONST	ENDS
;	COMDAT ??_C@_0CP@JONMPIIP@HARDWARE?2DESCRIPTION?2System?2Cen@
CONST	SEGMENT
??_C@_0CP@JONMPIIP@HARDWARE?2DESCRIPTION?2System?2Cen@ DB 'HARDWARE\DESCR'
	DB	'IPTION\System\CentralProcessor\0', 00H	; `string'
CONST	ENDS
;	COMDAT ??_C@_06PCAIPKHG@CPU?5?$DN?5@
CONST	SEGMENT
??_C@_06PCAIPKHG@CPU?5?$DN?5@ DB 'CPU = ', 00H		; `string'
CONST	ENDS
;	COMDAT ??_7i3Mutex@@6B@
CONST	SEGMENT
??_7i3Mutex@@6B@ DD FLAT:??_R4i3Mutex@@6B@		; i3Mutex::`vftable'
	DD	FLAT:?GetMeta@i3Mutex@@UAEPAVi3ClassMeta@@XZ
	DD	FLAT:??_Ei3Mutex@@UAEPAXI@Z
	DD	FLAT:?CopyTo@i3ElementBase@@UAEXPAV1@W4I3_COPY_METHOD@@@Z
CONST	ENDS
;	COMDAT ??_7i3Timer@@6B@
CONST	SEGMENT
??_7i3Timer@@6B@ DD FLAT:??_R4i3Timer@@6B@		; i3Timer::`vftable'
	DD	FLAT:?GetMeta@i3Timer@@UAEPAVi3ClassMeta@@XZ
	DD	FLAT:??_Ei3Timer@@UAEPAXI@Z
	DD	FLAT:?CopyTo@i3ElementBase@@UAEXPAV1@W4I3_COPY_METHOD@@@Z
CONST	ENDS
;	COMDAT ??_7i3Stream@@6B@
CONST	SEGMENT
??_7i3Stream@@6B@ DD FLAT:??_R4i3Stream@@6B@		; i3Stream::`vftable'
	DD	FLAT:?GetMeta@i3Stream@@UAEPAVi3ClassMeta@@XZ
	DD	FLAT:??_Ei3Stream@@UAEPAXI@Z
	DD	FLAT:?CopyTo@i3ElementBase@@UAEXPAV1@W4I3_COPY_METHOD@@@Z
	DD	FLAT:?GetHandle@i3Stream@@UAEPAXXZ
	DD	FLAT:__purecall
	DD	FLAT:__purecall
	DD	FLAT:__purecall
	DD	FLAT:__purecall
	DD	FLAT:?CopyTo@i3Stream@@UAEIPAV1@I@Z
	DD	FLAT:__purecall
	DD	FLAT:?CopyFrom@i3Stream@@UAEIPAV1@I@Z
	DD	FLAT:__purecall
	DD	FLAT:__purecall
	DD	FLAT:?ReadLine@i3Stream@@UAEIPADH@Z
	DD	FLAT:?ReadLineW@i3Stream@@UAEIPAGH@Z
	DD	FLAT:?WriteLine@i3Stream@@UAEIPBD@Z
	DD	FLAT:?WriteLineW@i3Stream@@UAEIPBG@Z
	DD	FLAT:?Printf@i3Stream@@UAAIPADPBDZZ
CONST	ENDS
;	COMDAT ??_7i3MemoryPool@@6B@
CONST	SEGMENT
??_7i3MemoryPool@@6B@ DD FLAT:??_R4i3MemoryPool@@6B@	; i3MemoryPool::`vftable'
	DD	FLAT:??_Ei3MemoryPool@@UAEPAXI@Z
	DD	FLAT:__purecall
	DD	FLAT:__purecall
CONST	ENDS
;	COMDAT ??_7i3ElementBase@@6B@
CONST	SEGMENT
??_7i3ElementBase@@6B@ DD FLAT:??_R4i3ElementBase@@6B@	; i3ElementBase::`vftable'
	DD	FLAT:?GetMeta@i3ElementBase@@UAEPAVi3ClassMeta@@XZ
	DD	FLAT:??_Ei3ElementBase@@UAEPAXI@Z
	DD	FLAT:?CopyTo@i3ElementBase@@UAEXPAV1@W4I3_COPY_METHOD@@@Z
CONST	ENDS
;	COMDAT ??_7i3ClassMeta@@6B@
CONST	SEGMENT
??_7i3ClassMeta@@6B@ DD FLAT:??_R4i3ClassMeta@@6B@	; i3ClassMeta::`vftable'
	DD	FLAT:??_Ei3ClassMeta@@UAEPAXI@Z
	DD	FLAT:?CreateInstance@i3ClassMeta@@UAEPAVi3ElementBase@@W4I3_CLASSMETA_TYPE@@@Z
	DD	FLAT:?BindInstance@i3ClassMeta@@UAEPAVi3ElementBase@@PAXW4I3_CLASSMETA_TYPE@@@Z
CONST	ENDS
;	COMDAT xdata$x
xdata$x	SEGMENT
__ehfuncinfo$??_Ei3Mutex@@UAEPAXI@Z DD 019930522H
	DD	00H
	DD	00H
	DD	2 DUP(00H)
	DD	2 DUP(00H)
	DD	00H
	DD	05H
xdata$x	ENDS
;	COMDAT xdata$x
xdata$x	SEGMENT
__ehfuncinfo$??_Ei3Timer@@UAEPAXI@Z DD 019930522H
	DD	00H
	DD	00H
	DD	2 DUP(00H)
	DD	2 DUP(00H)
	DD	00H
	DD	05H
xdata$x	ENDS
;	COMDAT xdata$x
xdata$x	SEGMENT
__ehfuncinfo$??_Ei3Stream@@UAEPAXI@Z DD 019930522H
	DD	00H
	DD	00H
	DD	2 DUP(00H)
	DD	2 DUP(00H)
	DD	00H
	DD	05H
xdata$x	ENDS
;	COMDAT xdata$x
xdata$x	SEGMENT
__ehfuncinfo$??_Ei3MemoryPool@@UAEPAXI@Z DD 019930522H
	DD	00H
	DD	00H
	DD	2 DUP(00H)
	DD	2 DUP(00H)
	DD	00H
	DD	05H
xdata$x	ENDS
;	COMDAT xdata$x
xdata$x	SEGMENT
__ehfuncinfo$??_Ei3ElementBase@@UAEPAXI@Z DD 019930522H
	DD	00H
	DD	00H
	DD	2 DUP(00H)
	DD	2 DUP(00H)
	DD	00H
	DD	05H
xdata$x	ENDS
;	COMDAT xdata$x
xdata$x	SEGMENT
__ehfuncinfo$??_Ei3ClassMeta@@UAEPAXI@Z DD 019930522H
	DD	00H
	DD	00H
	DD	2 DUP(00H)
	DD	2 DUP(00H)
	DD	00H
	DD	05H
xdata$x	ENDS
;	COMDAT voltbl
voltbl	SEGMENT
_volmd	DB	010H
voltbl	ENDS
;	COMDAT xdata$x
xdata$x	SEGMENT
__unwindtable$?SendMailBugReport@i3System@@YAXPAD0@Z DD 0ffffffffH
	DD	FLAT:__unwindfunclet$?SendMailBugReport@i3System@@YAXPAD0@Z$0
__ehfuncinfo$?SendMailBugReport@i3System@@YAXPAD0@Z DD 019930522H
	DD	01H
	DD	FLAT:__unwindtable$?SendMailBugReport@i3System@@YAXPAD0@Z
	DD	2 DUP(00H)
	DD	2 DUP(00H)
	DD	00H
	DD	01H
xdata$x	ENDS
;	COMDAT voltbl
voltbl	SEGMENT
_volmd	DB	022H
	DB	040H
voltbl	ENDS
;	COMDAT voltbl
voltbl	SEGMENT
_volmd	DB	010H
voltbl	ENDS
; Function compile flags: /Ogtp
; File E:\Proyectos\JuegosOnlineproyectos\PB\pbblow\Piercing Blow Remake\i3Server\src\i3Base\i3System.cpp
;	COMDAT ?_Rec_LookForFiles@@YAHPBD0@Z
_TEXT	SEGMENT
_Filter$GSCopy$1$ = -272				; size = 4
_Path$GSCopy$1$ = -268					; size = 4
__TempPath$ = -264					; size = 260
__$ArrayPad$ = -4					; size = 4
_Path$ = 8						; size = 4
_Filter$ = 12						; size = 4
?_Rec_LookForFiles@@YAHPBD0@Z PROC			; _Rec_LookForFiles, COMDAT

; 681  : {

  00000	55		 push	 ebp
  00001	8b ec		 mov	 ebp, esp
  00003	81 ec 10 01 00
	00		 sub	 esp, 272		; 00000110H
  00009	a1 00 00 00 00	 mov	 eax, DWORD PTR ___security_cookie
  0000e	33 c5		 xor	 eax, ebp
  00010	89 45 fc	 mov	 DWORD PTR __$ArrayPad$[ebp], eax
  00013	8b 4d 0c	 mov	 ecx, DWORD PTR _Filter$[ebp]
  00016	8b 45 08	 mov	 eax, DWORD PTR _Path$[ebp]
  00019	53		 push	 ebx
  0001a	56		 push	 esi
  0001b	57		 push	 edi

; 682  : #if defined( I3_WINDOWS)
; 683  : 	HANDLE hFind;
; 684  :     char _TempPath[MAX_PATH];
; 685  : 
; 686  :     sprintf( _TempPath, "%s\\%s", Path, Filter);

  0001c	51		 push	 ecx
  0001d	50		 push	 eax
  0001e	89 85 f4 fe ff
	ff		 mov	 DWORD PTR _Path$GSCopy$1$[ebp], eax
  00024	8d 85 f8 fe ff
	ff		 lea	 eax, DWORD PTR __TempPath$[ebp]
  0002a	68 00 00 00 00	 push	 OFFSET ??_C@_05BMGBEOOC@?$CFs?2?$CFs@
  0002f	50		 push	 eax
  00030	89 8d f0 fe ff
	ff		 mov	 DWORD PTR _Filter$GSCopy$1$[ebp], ecx
  00036	e8 00 00 00 00	 call	 _sprintf

; 687  :     hFind = FindFirstFile( _TempPath, &FindData);

  0003b	8b 3d 00 00 00
	00		 mov	 edi, DWORD PTR __imp__FindFirstFileA@8
  00041	8d 85 f8 fe ff
	ff		 lea	 eax, DWORD PTR __TempPath$[ebp]
  00047	83 c4 10	 add	 esp, 16			; 00000010H
  0004a	68 00 00 00 00	 push	 OFFSET ?FindData@@3U_WIN32_FIND_DATAA@@A
  0004f	50		 push	 eax
  00050	ff d7		 call	 edi

; 688  :     if( hFind != INVALID_HANDLE_VALUE)

  00052	8b 1d 00 00 00
	00		 mov	 ebx, DWORD PTR __imp__FindNextFileA@8
  00058	8b f0		 mov	 esi, eax
  0005a	83 fe ff	 cmp	 esi, -1
  0005d	74 49		 je	 SHORT $LN11@Rec_LookFo
  0005f	90		 npad	 1
$LL4@Rec_LookFo:

; 689  : 	{
; 690  : 		do 
; 691  : 		{
; 692  :     		if( _UserProc != NULL) 

  00060	8b 0d 00 00 00
	00		 mov	 ecx, DWORD PTR ?_UserProc@@3P6AHHPADPAX1@ZA
  00066	85 c9		 test	 ecx, ecx
  00068	74 20		 je	 SHORT $LN10@Rec_LookFo

; 693  : 			{
; 694  : 				// »çżëŔÚ-Á¤ŔÇ ÇÔĽö ČŁĂâ
; 695  :         		if( _UserProc( s_Level, (char *)Path, &FindData, _UserData) == FALSE) 

  0006a	ff 35 00 00 00
	00		 push	 DWORD PTR ?_UserData@@3PAXA
  00070	68 00 00 00 00	 push	 OFFSET ?FindData@@3U_WIN32_FIND_DATAA@@A
  00075	ff b5 f4 fe ff
	ff		 push	 DWORD PTR _Path$GSCopy$1$[ebp]
  0007b	ff 35 00 00 00
	00		 push	 DWORD PTR ?s_Level@@3HA
  00081	ff d1		 call	 ecx
  00083	83 c4 10	 add	 esp, 16			; 00000010H
  00086	85 c0		 test	 eax, eax
  00088	74 17		 je	 SHORT $LN26@Rec_LookFo
$LN10@Rec_LookFo:

; 696  : 				{
; 697  :             		FindClose( hFind);
; 698  : 					hFind = NULL;
; 699  :             		break;
; 700  : 				}
; 701  : 			}
; 702  : 			Count++;

  0008a	ff 05 00 00 00
	00		 inc	 DWORD PTR ?Count@@3HA

; 703  : 		} while( FindNextFile( hFind, &FindData) == TRUE);

  00090	68 00 00 00 00	 push	 OFFSET ?FindData@@3U_WIN32_FIND_DATAA@@A
  00095	56		 push	 esi
  00096	ff d3		 call	 ebx
  00098	83 f8 01	 cmp	 eax, 1
  0009b	74 c3		 je	 SHORT $LL4@Rec_LookFo

; 704  : 
; 705  : 		if( hFind != NULL)

  0009d	85 f6		 test	 esi, esi
  0009f	74 07		 je	 SHORT $LN11@Rec_LookFo
$LN26@Rec_LookFo:

; 706  : 			FindClose( hFind);

  000a1	56		 push	 esi
  000a2	ff 15 00 00 00
	00		 call	 DWORD PTR __imp__FindClose@4
$LN11@Rec_LookFo:

; 707  : 	}
; 708  : 
; 709  :     if( _Type & FFT_SUBDIR) 

  000a8	f6 05 00 00 00
	00 01		 test	 BYTE PTR ?_Type@@3IA, 1
  000af	0f 84 0b 01 00
	00		 je	 $LN12@Rec_LookFo

; 710  : 	{
; 711  :         sprintf( _TempPath, "%s\\*.*", Path);

  000b5	ff b5 f4 fe ff
	ff		 push	 DWORD PTR _Path$GSCopy$1$[ebp]
  000bb	8d 85 f8 fe ff
	ff		 lea	 eax, DWORD PTR __TempPath$[ebp]
  000c1	68 00 00 00 00	 push	 OFFSET ??_C@_06BNHEIDIH@?$CFs?2?$CK?4?$CK@
  000c6	50		 push	 eax
  000c7	e8 00 00 00 00	 call	 _sprintf
  000cc	83 c4 0c	 add	 esp, 12			; 0000000cH

; 712  : 
; 713  :         hFind = FindFirstFile( _TempPath, &FindData);

  000cf	8d 85 f8 fe ff
	ff		 lea	 eax, DWORD PTR __TempPath$[ebp]
  000d5	68 00 00 00 00	 push	 OFFSET ?FindData@@3U_WIN32_FIND_DATAA@@A
  000da	50		 push	 eax
  000db	ff d7		 call	 edi
  000dd	8b bd f0 fe ff
	ff		 mov	 edi, DWORD PTR _Filter$GSCopy$1$[ebp]
  000e3	8b f0		 mov	 esi, eax
  000e5	eb 09 8d a4 24
	00 00 00 00 8b
	ff		 npad	 11
$LL7@Rec_LookFo:

; 714  :         do {
; 715  :             if( (FindData.dwFileAttributes & FILE_ATTRIBUTE_DIRECTORY) &&

  000f0	8b 0d 00 00 00
	00		 mov	 ecx, DWORD PTR ?FindData@@3U_WIN32_FIND_DATAA@@A
  000f6	81 e1 10 04 00
	00		 and	 ecx, 1040		; 00000410H
  000fc	83 f9 10	 cmp	 ecx, 16			; 00000010H
  000ff	0f 85 a3 00 00
	00		 jne	 $LN5@Rec_LookFo

; 716  :                !(FindData.dwFileAttributes & FILE_ATTRIBUTE_REPARSE_POINT)) {
; 717  : 
; 718  :                	if((strcmp( FindData.cFileName, ".") != 0) &&

  00105	b9 00 00 00 00	 mov	 ecx, OFFSET ??_C@_01LFCBOECM@?4@
  0010a	b8 2c 00 00 00	 mov	 eax, OFFSET ?FindData@@3U_WIN32_FIND_DATAA@@A+44
  0010f	90		 npad	 1
$LL27@Rec_LookFo:
  00110	8a 10		 mov	 dl, BYTE PTR [eax]
  00112	3a 11		 cmp	 dl, BYTE PTR [ecx]
  00114	75 1a		 jne	 SHORT $LN28@Rec_LookFo
  00116	84 d2		 test	 dl, dl
  00118	74 12		 je	 SHORT $LN29@Rec_LookFo
  0011a	8a 50 01	 mov	 dl, BYTE PTR [eax+1]
  0011d	3a 51 01	 cmp	 dl, BYTE PTR [ecx+1]
  00120	75 0e		 jne	 SHORT $LN28@Rec_LookFo
  00122	83 c0 02	 add	 eax, 2
  00125	83 c1 02	 add	 ecx, 2
  00128	84 d2		 test	 dl, dl
  0012a	75 e4		 jne	 SHORT $LL27@Rec_LookFo
$LN29@Rec_LookFo:
  0012c	33 c0		 xor	 eax, eax
  0012e	eb 05		 jmp	 SHORT $LN30@Rec_LookFo
$LN28@Rec_LookFo:
  00130	1b c0		 sbb	 eax, eax
  00132	83 c8 01	 or	 eax, 1
$LN30@Rec_LookFo:
  00135	85 c0		 test	 eax, eax
  00137	74 6f		 je	 SHORT $LN5@Rec_LookFo
  00139	b9 00 00 00 00	 mov	 ecx, OFFSET ??_C@_02DJGKEECL@?4?4@
  0013e	b8 2c 00 00 00	 mov	 eax, OFFSET ?FindData@@3U_WIN32_FIND_DATAA@@A+44
$LL31@Rec_LookFo:
  00143	8a 10		 mov	 dl, BYTE PTR [eax]
  00145	3a 11		 cmp	 dl, BYTE PTR [ecx]
  00147	75 1a		 jne	 SHORT $LN32@Rec_LookFo
  00149	84 d2		 test	 dl, dl
  0014b	74 12		 je	 SHORT $LN33@Rec_LookFo
  0014d	8a 50 01	 mov	 dl, BYTE PTR [eax+1]
  00150	3a 51 01	 cmp	 dl, BYTE PTR [ecx+1]
  00153	75 0e		 jne	 SHORT $LN32@Rec_LookFo
  00155	83 c0 02	 add	 eax, 2
  00158	83 c1 02	 add	 ecx, 2
  0015b	84 d2		 test	 dl, dl
  0015d	75 e4		 jne	 SHORT $LL31@Rec_LookFo
$LN33@Rec_LookFo:
  0015f	33 c0		 xor	 eax, eax
  00161	eb 05		 jmp	 SHORT $LN34@Rec_LookFo
$LN32@Rec_LookFo:
  00163	1b c0		 sbb	 eax, eax
  00165	83 c8 01	 or	 eax, 1
$LN34@Rec_LookFo:
  00168	85 c0		 test	 eax, eax
  0016a	74 3c		 je	 SHORT $LN5@Rec_LookFo

; 719  :                    (strcmp( FindData.cFileName, "..") != 0)) {
; 720  : 
; 721  :                     sprintf( _TempPath, "%s\\%s", Path, FindData.cFileName);

  0016c	68 2c 00 00 00	 push	 OFFSET ?FindData@@3U_WIN32_FIND_DATAA@@A+44
  00171	ff b5 f4 fe ff
	ff		 push	 DWORD PTR _Path$GSCopy$1$[ebp]
  00177	8d 85 f8 fe ff
	ff		 lea	 eax, DWORD PTR __TempPath$[ebp]
  0017d	68 00 00 00 00	 push	 OFFSET ??_C@_05BMGBEOOC@?$CFs?2?$CFs@
  00182	50		 push	 eax
  00183	e8 00 00 00 00	 call	 _sprintf

; 722  : 
; 723  : 					s_Level++;

  00188	ff 05 00 00 00
	00		 inc	 DWORD PTR ?s_Level@@3HA

; 724  : 					// Ŕç±ÍČŁĂâ
; 725  :                     if(_Rec_LookForFiles( _TempPath, Filter) == FALSE) {

  0018e	8d 85 f8 fe ff
	ff		 lea	 eax, DWORD PTR __TempPath$[ebp]
  00194	57		 push	 edi
  00195	50		 push	 eax
  00196	e8 00 00 00 00	 call	 ?_Rec_LookForFiles@@YAHPBD0@Z ; _Rec_LookForFiles
  0019b	83 c4 18	 add	 esp, 24			; 00000018H
  0019e	85 c0		 test	 eax, eax
  001a0	74 34		 je	 SHORT $LN20@Rec_LookFo

; 727  :                         return FALSE;
; 728  :                     }
; 729  : 
; 730  : 					s_Level--;

  001a2	ff 0d 00 00 00
	00		 dec	 DWORD PTR ?s_Level@@3HA
$LN5@Rec_LookFo:

; 731  :                 }
; 732  :             }
; 733  :         } while( FindNextFile( hFind, &FindData) == TRUE);

  001a8	68 00 00 00 00	 push	 OFFSET ?FindData@@3U_WIN32_FIND_DATAA@@A
  001ad	56		 push	 esi
  001ae	ff d3		 call	 ebx
  001b0	83 f8 01	 cmp	 eax, 1
  001b3	0f 84 37 ff ff
	ff		 je	 $LL7@Rec_LookFo

; 734  : 
; 735  :         FindClose( hFind);

  001b9	56		 push	 esi
  001ba	ff 15 00 00 00
	00		 call	 DWORD PTR __imp__FindClose@4
$LN12@Rec_LookFo:

; 736  :     }
; 737  : #endif
; 738  : 
; 739  :     return TRUE;
; 740  : }

  001c0	5f		 pop	 edi
  001c1	5e		 pop	 esi
  001c2	b8 01 00 00 00	 mov	 eax, 1
  001c7	5b		 pop	 ebx
  001c8	8b 4d fc	 mov	 ecx, DWORD PTR __$ArrayPad$[ebp]
  001cb	33 cd		 xor	 ecx, ebp
  001cd	e8 00 00 00 00	 call	 @__security_check_cookie@4
  001d2	8b e5		 mov	 esp, ebp
  001d4	5d		 pop	 ebp
  001d5	c3		 ret	 0
$LN20@Rec_LookFo:

; 726  :                         FindClose( hFind);

  001d6	56		 push	 esi
  001d7	ff 15 00 00 00
	00		 call	 DWORD PTR __imp__FindClose@4

; 736  :     }
; 737  : #endif
; 738  : 
; 739  :     return TRUE;
; 740  : }

  001dd	8b 4d fc	 mov	 ecx, DWORD PTR __$ArrayPad$[ebp]
  001e0	33 c0		 xor	 eax, eax
  001e2	5f		 pop	 edi
  001e3	5e		 pop	 esi
  001e4	33 cd		 xor	 ecx, ebp
  001e6	5b		 pop	 ebx
  001e7	e8 00 00 00 00	 call	 @__security_check_cookie@4
  001ec	8b e5		 mov	 esp, ebp
  001ee	5d		 pop	 ebp
  001ef	c3		 ret	 0
?_Rec_LookForFiles@@YAHPBD0@Z ENDP			; _Rec_LookForFiles
_TEXT	ENDS
; Function compile flags: /Ogtp
;	COMDAT ??__Fs_CSSystem@@YAXXZ
text$yd	SEGMENT
??__Fs_CSSystem@@YAXXZ PROC				; `dynamic atexit destructor for 's_CSSystem'', COMDAT
  00000	b9 00 00 00 00	 mov	 ecx, OFFSET ?s_CSSystem@@3Vi3Mutex2@@A
  00005	e9 00 00 00 00	 jmp	 ??1i3Mutex2@@QAE@XZ	; i3Mutex2::~i3Mutex2
??__Fs_CSSystem@@YAXXZ ENDP				; `dynamic atexit destructor for 's_CSSystem''
text$yd	ENDS
; Function compile flags: /Ogtp
; File E:\Proyectos\JuegosOnlineproyectos\PB\pbblow\Piercing Blow Remake\i3Server\src\i3Base\i3System.cpp
;	COMDAT ??__Es_CSSystem@@YAXXZ
text$di	SEGMENT
??__Es_CSSystem@@YAXXZ PROC				; `dynamic initializer for 's_CSSystem'', COMDAT

; 22   : static i3Mutex2				s_CSSystem;

  00000	b9 00 00 00 00	 mov	 ecx, OFFSET ?s_CSSystem@@3Vi3Mutex2@@A
  00005	e8 00 00 00 00	 call	 ??0i3Mutex2@@QAE@XZ	; i3Mutex2::i3Mutex2
  0000a	68 00 00 00 00	 push	 OFFSET ??__Fs_CSSystem@@YAXXZ ; `dynamic atexit destructor for 's_CSSystem''
  0000f	e8 00 00 00 00	 call	 _atexit
  00014	59		 pop	 ecx
  00015	c3		 ret	 0
??__Es_CSSystem@@YAXXZ ENDP				; `dynamic initializer for 's_CSSystem''
text$di	ENDS
; Function compile flags: /Ogtp
;	COMDAT ??4i3Monitor2@@QAEAAV0@ABV0@@Z
_TEXT	SEGMENT
___that$ = 8						; size = 4
??4i3Monitor2@@QAEAAV0@ABV0@@Z PROC			; i3Monitor2::operator=, COMDAT
; _this$ = ecx
  00000	55		 push	 ebp
  00001	8b ec		 mov	 ebp, esp
  00003	8b 45 08	 mov	 eax, DWORD PTR ___that$[ebp]
  00006	8b 00		 mov	 eax, DWORD PTR [eax]
  00008	89 01		 mov	 DWORD PTR [ecx], eax
  0000a	8b c1		 mov	 eax, ecx
  0000c	5d		 pop	 ebp
  0000d	c2 04 00	 ret	 4
??4i3Monitor2@@QAEAAV0@ABV0@@Z ENDP			; i3Monitor2::operator=
_TEXT	ENDS
; Function compile flags: /Ogtp
;	COMDAT ??4i3Mutex2@@QAEAAV0@ABV0@@Z
_TEXT	SEGMENT
___that$ = 8						; size = 4
??4i3Mutex2@@QAEAAV0@ABV0@@Z PROC			; i3Mutex2::operator=, COMDAT
; _this$ = ecx
  00000	55		 push	 ebp
  00001	8b ec		 mov	 ebp, esp
  00003	8b 55 08	 mov	 edx, DWORD PTR ___that$[ebp]
  00006	8b 02		 mov	 eax, DWORD PTR [edx]
  00008	89 01		 mov	 DWORD PTR [ecx], eax
  0000a	8b 42 04	 mov	 eax, DWORD PTR [edx+4]
  0000d	89 41 04	 mov	 DWORD PTR [ecx+4], eax
  00010	8b 42 08	 mov	 eax, DWORD PTR [edx+8]
  00013	89 41 08	 mov	 DWORD PTR [ecx+8], eax
  00016	8b 42 0c	 mov	 eax, DWORD PTR [edx+12]
  00019	89 41 0c	 mov	 DWORD PTR [ecx+12], eax
  0001c	8b 42 10	 mov	 eax, DWORD PTR [edx+16]
  0001f	89 41 10	 mov	 DWORD PTR [ecx+16], eax
  00022	8b 42 14	 mov	 eax, DWORD PTR [edx+20]
  00025	89 41 14	 mov	 DWORD PTR [ecx+20], eax
  00028	8b c1		 mov	 eax, ecx
  0002a	5d		 pop	 ebp
  0002b	c2 04 00	 ret	 4
??4i3Mutex2@@QAEAAV0@ABV0@@Z ENDP			; i3Mutex2::operator=
_TEXT	ENDS
; Function compile flags: /Ogtp
; File E:\Proyectos\JuegosOnlineproyectos\PB\pbblow\Piercing Blow Remake\i3Server\src\i3Base\i3System.cpp
;	COMDAT ??_Ei3Mutex@@UAEPAXI@Z
_TEXT	SEGMENT
__$EHRec$ = -12						; size = 12
___flags$ = 8						; size = 4
??_Ei3Mutex@@UAEPAXI@Z PROC				; i3Mutex::`vector deleting destructor', COMDAT
; _this$ = ecx
  00000	55		 push	 ebp
  00001	8b ec		 mov	 ebp, esp
  00003	6a ff		 push	 -1
  00005	68 00 00 00 00	 push	 __ehhandler$??_Ei3Mutex@@UAEPAXI@Z
  0000a	64 a1 00 00 00
	00		 mov	 eax, DWORD PTR fs:0
  00010	50		 push	 eax
  00011	53		 push	 ebx
  00012	56		 push	 esi
  00013	57		 push	 edi
  00014	a1 00 00 00 00	 mov	 eax, DWORD PTR ___security_cookie
  00019	33 c5		 xor	 eax, ebp
  0001b	50		 push	 eax
  0001c	8d 45 f4	 lea	 eax, DWORD PTR __$EHRec$[ebp]
  0001f	64 a3 00 00 00
	00		 mov	 DWORD PTR fs:0, eax
  00025	8b f1		 mov	 esi, ecx
  00027	8b 5d 08	 mov	 ebx, DWORD PTR ___flags$[ebp]
  0002a	8b fb		 mov	 edi, ebx
  0002c	83 e7 01	 and	 edi, 1
  0002f	f6 c3 02	 test	 bl, 2
  00032	74 43		 je	 SHORT $LN2@vector
  00034	68 00 00 00 00	 push	 OFFSET ??1i3Mutex@@UAE@XZ ; i3Mutex::~i3Mutex
  00039	ff 76 fc	 push	 DWORD PTR [esi-4]
  0003c	8d 5e fc	 lea	 ebx, DWORD PTR [esi-4]
  0003f	6a 28		 push	 40			; 00000028H
  00041	56		 push	 esi
  00042	e8 00 00 00 00	 call	 ??_M@YGXPAXIIP6EX0@Z@Z
  00047	85 ff		 test	 edi, edi
  00049	74 16		 je	 SHORT $LN3@vector
  0004b	8b 0b		 mov	 ecx, DWORD PTR [ebx]
  0004d	8d 0c 89	 lea	 ecx, DWORD PTR [ecx+ecx*4]
  00050	8d 0c cd 04 00
	00 00		 lea	 ecx, DWORD PTR [ecx*8+4]
  00057	51		 push	 ecx
  00058	53		 push	 ebx
  00059	e8 00 00 00 00	 call	 ??_V@YAXPAXI@Z		; operator delete[]
  0005e	83 c4 08	 add	 esp, 8
$LN3@vector:
  00061	8b c3		 mov	 eax, ebx
  00063	8b 4d f4	 mov	 ecx, DWORD PTR __$EHRec$[ebp]
  00066	64 89 0d 00 00
	00 00		 mov	 DWORD PTR fs:0, ecx
  0006d	59		 pop	 ecx
  0006e	5f		 pop	 edi
  0006f	5e		 pop	 esi
  00070	5b		 pop	 ebx
  00071	8b e5		 mov	 esp, ebp
  00073	5d		 pop	 ebp
  00074	c2 04 00	 ret	 4
$LN2@vector:
  00077	e8 00 00 00 00	 call	 ??1i3Mutex@@UAE@XZ	; i3Mutex::~i3Mutex
  0007c	85 ff		 test	 edi, edi
  0007e	74 1b		 je	 SHORT $LN6@vector
  00080	f6 c3 04	 test	 bl, 4
  00083	75 0b		 jne	 SHORT $LN5@vector
  00085	56		 push	 esi
  00086	e8 00 00 00 00	 call	 ??3i3ElementBase@@SAXPAX@Z ; i3ElementBase::operator delete
  0008b	83 c4 04	 add	 esp, 4
  0008e	eb 0b		 jmp	 SHORT $LN6@vector
$LN5@vector:

  00090	6a 28		 push	 40			; 00000028H
  00092	56		 push	 esi
  00093	e8 00 00 00 00	 call	 ??3@YAXPAXI@Z		; operator delete
  00098	83 c4 08	 add	 esp, 8
$LN6@vector:
  0009b	8b c6		 mov	 eax, esi
  0009d	8b 4d f4	 mov	 ecx, DWORD PTR __$EHRec$[ebp]
  000a0	64 89 0d 00 00
	00 00		 mov	 DWORD PTR fs:0, ecx
  000a7	59		 pop	 ecx
  000a8	5f		 pop	 edi
  000a9	5e		 pop	 esi
  000aa	5b		 pop	 ebx
  000ab	8b e5		 mov	 esp, ebp
  000ad	5d		 pop	 ebp
  000ae	c2 04 00	 ret	 4
  000b1	cc		 int	 3
  000b2	cc		 int	 3
  000b3	cc		 int	 3
  000b4	cc		 int	 3
  000b5	cc		 int	 3
_TEXT	ENDS
;	COMDAT text$x
text$x	SEGMENT
__ehhandler$??_Ei3Mutex@@UAEPAXI@Z:
  00000	90		 npad	 1
  00001	90		 npad	 1
  00002	8b 54 24 08	 mov	 edx, DWORD PTR [esp+8]
  00006	8d 42 0c	 lea	 eax, DWORD PTR [edx+12]
  00009	8b 4a f0	 mov	 ecx, DWORD PTR [edx-16]
  0000c	33 c8		 xor	 ecx, eax
  0000e	e8 00 00 00 00	 call	 @__security_check_cookie@4
  00013	b8 00 00 00 00	 mov	 eax, OFFSET __ehfuncinfo$??_Ei3Mutex@@UAEPAXI@Z
  00018	e9 00 00 00 00	 jmp	 ___CxxFrameHandler3
text$x	ENDS
??_Ei3Mutex@@UAEPAXI@Z ENDP				; i3Mutex::`vector deleting destructor'
; Function compile flags: /Ogtp
; File E:\Proyectos\JuegosOnlineproyectos\PB\pbblow\Piercing Blow Remake\i3Server\src\i3Base\i3System.cpp
;	COMDAT ??_Gi3Mutex@@UAEPAXI@Z
_TEXT	SEGMENT
___flags$ = 8						; size = 4
??_Gi3Mutex@@UAEPAXI@Z PROC				; i3Mutex::`scalar deleting destructor', COMDAT
; _this$ = ecx
  00000	55		 push	 ebp
  00001	8b ec		 mov	 ebp, esp
  00003	56		 push	 esi
  00004	8b f1		 mov	 esi, ecx
  00006	e8 00 00 00 00	 call	 ??1i3Mutex@@UAE@XZ	; i3Mutex::~i3Mutex
  0000b	8b 45 08	 mov	 eax, DWORD PTR ___flags$[ebp]
  0000e	a8 01		 test	 al, 1
  00010	74 1f		 je	 SHORT $LN10@scalar
  00012	a8 04		 test	 al, 4
  00014	75 10		 jne	 SHORT $LN3@scalar
  00016	56		 push	 esi
  00017	e8 00 00 00 00	 call	 ??3i3ElementBase@@SAXPAX@Z ; i3ElementBase::operator delete
  0001c	83 c4 04	 add	 esp, 4
  0001f	8b c6		 mov	 eax, esi
  00021	5e		 pop	 esi
  00022	5d		 pop	 ebp
  00023	c2 04 00	 ret	 4
$LN3@scalar:

  00026	6a 28		 push	 40			; 00000028H
  00028	56		 push	 esi
  00029	e8 00 00 00 00	 call	 ??3@YAXPAXI@Z		; operator delete
  0002e	83 c4 08	 add	 esp, 8
$LN10@scalar:
  00031	8b c6		 mov	 eax, esi
  00033	5e		 pop	 esi
  00034	5d		 pop	 ebp
  00035	c2 04 00	 ret	 4
??_Gi3Mutex@@UAEPAXI@Z ENDP				; i3Mutex::`scalar deleting destructor'
_TEXT	ENDS
; Function compile flags: /Ogtp
;	COMDAT ??4i3Mutex@@QAEAAV0@ABV0@@Z
_TEXT	SEGMENT
___that$ = 8						; size = 4
??4i3Mutex@@QAEAAV0@ABV0@@Z PROC			; i3Mutex::operator=, COMDAT
; _this$ = ecx
  00000	55		 push	 ebp
  00001	8b ec		 mov	 ebp, esp
  00003	8b 55 08	 mov	 edx, DWORD PTR ___that$[ebp]
  00006	8b 42 04	 mov	 eax, DWORD PTR [edx+4]
  00009	89 41 04	 mov	 DWORD PTR [ecx+4], eax
  0000c	8b 42 08	 mov	 eax, DWORD PTR [edx+8]
  0000f	89 41 08	 mov	 DWORD PTR [ecx+8], eax
  00012	8b 42 0c	 mov	 eax, DWORD PTR [edx+12]
  00015	89 41 0c	 mov	 DWORD PTR [ecx+12], eax
  00018	8b 42 10	 mov	 eax, DWORD PTR [edx+16]
  0001b	89 41 10	 mov	 DWORD PTR [ecx+16], eax
  0001e	8b 42 14	 mov	 eax, DWORD PTR [edx+20]
  00021	89 41 14	 mov	 DWORD PTR [ecx+20], eax
  00024	8b 42 18	 mov	 eax, DWORD PTR [edx+24]
  00027	89 41 18	 mov	 DWORD PTR [ecx+24], eax
  0002a	8b 42 1c	 mov	 eax, DWORD PTR [edx+28]
  0002d	89 41 1c	 mov	 DWORD PTR [ecx+28], eax
  00030	8b 42 20	 mov	 eax, DWORD PTR [edx+32]
  00033	89 41 20	 mov	 DWORD PTR [ecx+32], eax
  00036	8b 42 24	 mov	 eax, DWORD PTR [edx+36]
  00039	89 41 24	 mov	 DWORD PTR [ecx+36], eax
  0003c	8b c1		 mov	 eax, ecx
  0003e	5d		 pop	 ebp
  0003f	c2 04 00	 ret	 4
??4i3Mutex@@QAEAAV0@ABV0@@Z ENDP			; i3Mutex::operator=
_TEXT	ENDS
; Function compile flags: /Ogtp
;	COMDAT ??0i3Mutex@@QAE@ABV0@@Z
_TEXT	SEGMENT
___that$ = 8						; size = 4
??0i3Mutex@@QAE@ABV0@@Z PROC				; i3Mutex::i3Mutex, COMDAT
; _this$ = ecx
  00000	55		 push	 ebp
  00001	8b ec		 mov	 ebp, esp
  00003	8b 55 08	 mov	 edx, DWORD PTR ___that$[ebp]
  00006	c7 01 00 00 00
	00		 mov	 DWORD PTR [ecx], OFFSET ??_7i3ElementBase@@6B@
  0000c	8b 42 04	 mov	 eax, DWORD PTR [edx+4]
  0000f	89 41 04	 mov	 DWORD PTR [ecx+4], eax
  00012	8b 42 08	 mov	 eax, DWORD PTR [edx+8]
  00015	89 41 08	 mov	 DWORD PTR [ecx+8], eax
  00018	8b 42 0c	 mov	 eax, DWORD PTR [edx+12]
  0001b	89 41 0c	 mov	 DWORD PTR [ecx+12], eax
  0001e	c7 01 00 00 00
	00		 mov	 DWORD PTR [ecx], OFFSET ??_7i3Mutex@@6B@
  00024	8b 42 10	 mov	 eax, DWORD PTR [edx+16]
  00027	89 41 10	 mov	 DWORD PTR [ecx+16], eax
  0002a	8b 42 14	 mov	 eax, DWORD PTR [edx+20]
  0002d	89 41 14	 mov	 DWORD PTR [ecx+20], eax
  00030	8b 42 18	 mov	 eax, DWORD PTR [edx+24]
  00033	89 41 18	 mov	 DWORD PTR [ecx+24], eax
  00036	8b 42 1c	 mov	 eax, DWORD PTR [edx+28]
  00039	89 41 1c	 mov	 DWORD PTR [ecx+28], eax
  0003c	8b 42 20	 mov	 eax, DWORD PTR [edx+32]
  0003f	89 41 20	 mov	 DWORD PTR [ecx+32], eax
  00042	8b 42 24	 mov	 eax, DWORD PTR [edx+36]
  00045	89 41 24	 mov	 DWORD PTR [ecx+36], eax
  00048	8b c1		 mov	 eax, ecx
  0004a	5d		 pop	 ebp
  0004b	c2 04 00	 ret	 4
??0i3Mutex@@QAE@ABV0@@Z ENDP				; i3Mutex::i3Mutex
_TEXT	ENDS
; Function compile flags: /Ogtp
; File E:\Proyectos\JuegosOnlineproyectos\PB\pbblow\Piercing Blow Remake\i3Server\include\i3Base\i3Mutex.h
;	COMDAT ?GetClassMeta@i3Mutex@@SAPAVi3ClassMeta@@XZ
_TEXT	SEGMENT
?GetClassMeta@i3Mutex@@SAPAVi3ClassMeta@@XZ PROC	; i3Mutex::GetClassMeta, COMDAT

; 23   :     I3_CLASS_DEFINE(i3Mutex);

  00000	a1 00 00 00 00	 mov	 eax, DWORD PTR ?s_pClassMetai3Mutex@i3Mutex@@2PAVi3ClassMeta@@A ; i3Mutex::s_pClassMetai3Mutex
  00005	c3		 ret	 0
?GetClassMeta@i3Mutex@@SAPAVi3ClassMeta@@XZ ENDP	; i3Mutex::GetClassMeta
_TEXT	ENDS
; Function compile flags: /Ogtp
; File E:\Proyectos\JuegosOnlineproyectos\PB\pbblow\Piercing Blow Remake\i3Server\src\i3Base\i3System.cpp
;	COMDAT ??_Ei3Timer@@UAEPAXI@Z
_TEXT	SEGMENT
__$EHRec$ = -12						; size = 12
___flags$ = 8						; size = 4
??_Ei3Timer@@UAEPAXI@Z PROC				; i3Timer::`vector deleting destructor', COMDAT
; _this$ = ecx
  00000	55		 push	 ebp
  00001	8b ec		 mov	 ebp, esp
  00003	6a ff		 push	 -1
  00005	68 00 00 00 00	 push	 __ehhandler$??_Ei3Timer@@UAEPAXI@Z
  0000a	64 a1 00 00 00
	00		 mov	 eax, DWORD PTR fs:0
  00010	50		 push	 eax
  00011	53		 push	 ebx
  00012	56		 push	 esi
  00013	57		 push	 edi
  00014	a1 00 00 00 00	 mov	 eax, DWORD PTR ___security_cookie
  00019	33 c5		 xor	 eax, ebp
  0001b	50		 push	 eax
  0001c	8d 45 f4	 lea	 eax, DWORD PTR __$EHRec$[ebp]
  0001f	64 a3 00 00 00
	00		 mov	 DWORD PTR fs:0, eax
  00025	8b f1		 mov	 esi, ecx
  00027	8b 5d 08	 mov	 ebx, DWORD PTR ___flags$[ebp]
  0002a	8b fb		 mov	 edi, ebx
  0002c	83 e7 01	 and	 edi, 1
  0002f	f6 c3 02	 test	 bl, 2
  00032	74 43		 je	 SHORT $LN2@vector
  00034	68 00 00 00 00	 push	 OFFSET ??1i3Timer@@UAE@XZ ; i3Timer::~i3Timer
  00039	ff 76 fc	 push	 DWORD PTR [esi-4]
  0003c	8d 5e fc	 lea	 ebx, DWORD PTR [esi-4]
  0003f	6a 28		 push	 40			; 00000028H
  00041	56		 push	 esi
  00042	e8 00 00 00 00	 call	 ??_M@YGXPAXIIP6EX0@Z@Z
  00047	85 ff		 test	 edi, edi
  00049	74 16		 je	 SHORT $LN3@vector
  0004b	8b 0b		 mov	 ecx, DWORD PTR [ebx]
  0004d	8d 0c 89	 lea	 ecx, DWORD PTR [ecx+ecx*4]
  00050	8d 0c cd 04 00
	00 00		 lea	 ecx, DWORD PTR [ecx*8+4]
  00057	51		 push	 ecx
  00058	53		 push	 ebx
  00059	e8 00 00 00 00	 call	 ??_V@YAXPAXI@Z		; operator delete[]
  0005e	83 c4 08	 add	 esp, 8
$LN3@vector:
  00061	8b c3		 mov	 eax, ebx
  00063	8b 4d f4	 mov	 ecx, DWORD PTR __$EHRec$[ebp]
  00066	64 89 0d 00 00
	00 00		 mov	 DWORD PTR fs:0, ecx
  0006d	59		 pop	 ecx
  0006e	5f		 pop	 edi
  0006f	5e		 pop	 esi
  00070	5b		 pop	 ebx
  00071	8b e5		 mov	 esp, ebp
  00073	5d		 pop	 ebp
  00074	c2 04 00	 ret	 4
$LN2@vector:
  00077	e8 00 00 00 00	 call	 ??1i3Timer@@UAE@XZ	; i3Timer::~i3Timer
  0007c	85 ff		 test	 edi, edi
  0007e	74 1b		 je	 SHORT $LN6@vector
  00080	f6 c3 04	 test	 bl, 4
  00083	75 0b		 jne	 SHORT $LN5@vector
  00085	56		 push	 esi
  00086	e8 00 00 00 00	 call	 ??3i3ElementBase@@SAXPAX@Z ; i3ElementBase::operator delete
  0008b	83 c4 04	 add	 esp, 4
  0008e	eb 0b		 jmp	 SHORT $LN6@vector
$LN5@vector:

  00090	6a 28		 push	 40			; 00000028H
  00092	56		 push	 esi
  00093	e8 00 00 00 00	 call	 ??3@YAXPAXI@Z		; operator delete
  00098	83 c4 08	 add	 esp, 8
$LN6@vector:
  0009b	8b c6		 mov	 eax, esi
  0009d	8b 4d f4	 mov	 ecx, DWORD PTR __$EHRec$[ebp]
  000a0	64 89 0d 00 00
	00 00		 mov	 DWORD PTR fs:0, ecx
  000a7	59		 pop	 ecx
  000a8	5f		 pop	 edi
  000a9	5e		 pop	 esi
  000aa	5b		 pop	 ebx
  000ab	8b e5		 mov	 esp, ebp
  000ad	5d		 pop	 ebp
  000ae	c2 04 00	 ret	 4
  000b1	cc		 int	 3
  000b2	cc		 int	 3
  000b3	cc		 int	 3
  000b4	cc		 int	 3
  000b5	cc		 int	 3
_TEXT	ENDS
;	COMDAT text$x
text$x	SEGMENT
__ehhandler$??_Ei3Timer@@UAEPAXI@Z:
  00000	90		 npad	 1
  00001	90		 npad	 1
  00002	8b 54 24 08	 mov	 edx, DWORD PTR [esp+8]
  00006	8d 42 0c	 lea	 eax, DWORD PTR [edx+12]
  00009	8b 4a f0	 mov	 ecx, DWORD PTR [edx-16]
  0000c	33 c8		 xor	 ecx, eax
  0000e	e8 00 00 00 00	 call	 @__security_check_cookie@4
  00013	b8 00 00 00 00	 mov	 eax, OFFSET __ehfuncinfo$??_Ei3Timer@@UAEPAXI@Z
  00018	e9 00 00 00 00	 jmp	 ___CxxFrameHandler3
text$x	ENDS
??_Ei3Timer@@UAEPAXI@Z ENDP				; i3Timer::`vector deleting destructor'
; Function compile flags: /Ogtp
; File E:\Proyectos\JuegosOnlineproyectos\PB\pbblow\Piercing Blow Remake\i3Server\src\i3Base\i3System.cpp
;	COMDAT ??_Gi3Timer@@UAEPAXI@Z
_TEXT	SEGMENT
___flags$ = 8						; size = 4
??_Gi3Timer@@UAEPAXI@Z PROC				; i3Timer::`scalar deleting destructor', COMDAT
; _this$ = ecx
  00000	55		 push	 ebp
  00001	8b ec		 mov	 ebp, esp
  00003	56		 push	 esi
  00004	8b f1		 mov	 esi, ecx
  00006	e8 00 00 00 00	 call	 ??1i3Timer@@UAE@XZ	; i3Timer::~i3Timer
  0000b	8b 45 08	 mov	 eax, DWORD PTR ___flags$[ebp]
  0000e	a8 01		 test	 al, 1
  00010	74 1f		 je	 SHORT $LN10@scalar
  00012	a8 04		 test	 al, 4
  00014	75 10		 jne	 SHORT $LN3@scalar
  00016	56		 push	 esi
  00017	e8 00 00 00 00	 call	 ??3i3ElementBase@@SAXPAX@Z ; i3ElementBase::operator delete
  0001c	83 c4 04	 add	 esp, 4
  0001f	8b c6		 mov	 eax, esi
  00021	5e		 pop	 esi
  00022	5d		 pop	 ebp
  00023	c2 04 00	 ret	 4
$LN3@scalar:

  00026	6a 28		 push	 40			; 00000028H
  00028	56		 push	 esi
  00029	e8 00 00 00 00	 call	 ??3@YAXPAXI@Z		; operator delete
  0002e	83 c4 08	 add	 esp, 8
$LN10@scalar:
  00031	8b c6		 mov	 eax, esi
  00033	5e		 pop	 esi
  00034	5d		 pop	 ebp
  00035	c2 04 00	 ret	 4
??_Gi3Timer@@UAEPAXI@Z ENDP				; i3Timer::`scalar deleting destructor'
_TEXT	ENDS
; Function compile flags: /Ogtp
;	COMDAT ??4i3Timer@@QAEAAV0@ABV0@@Z
_TEXT	SEGMENT
___that$ = 8						; size = 4
??4i3Timer@@QAEAAV0@ABV0@@Z PROC			; i3Timer::operator=, COMDAT
; _this$ = ecx
  00000	55		 push	 ebp
  00001	8b ec		 mov	 ebp, esp
  00003	8b 55 08	 mov	 edx, DWORD PTR ___that$[ebp]
  00006	56		 push	 esi
  00007	8b f1		 mov	 esi, ecx
  00009	8b 42 04	 mov	 eax, DWORD PTR [edx+4]
  0000c	89 46 04	 mov	 DWORD PTR [esi+4], eax
  0000f	8b 42 08	 mov	 eax, DWORD PTR [edx+8]
  00012	89 46 08	 mov	 DWORD PTR [esi+8], eax
  00015	8b 42 0c	 mov	 eax, DWORD PTR [edx+12]
  00018	89 46 0c	 mov	 DWORD PTR [esi+12], eax
  0001b	8b 42 10	 mov	 eax, DWORD PTR [edx+16]
  0001e	89 46 10	 mov	 DWORD PTR [esi+16], eax
  00021	8b 42 18	 mov	 eax, DWORD PTR [edx+24]
  00024	8b 4a 1c	 mov	 ecx, DWORD PTR [edx+28]
  00027	89 46 18	 mov	 DWORD PTR [esi+24], eax
  0002a	89 4e 1c	 mov	 DWORD PTR [esi+28], ecx
  0002d	8b 42 20	 mov	 eax, DWORD PTR [edx+32]
  00030	89 46 20	 mov	 DWORD PTR [esi+32], eax
  00033	8b c6		 mov	 eax, esi
  00035	5e		 pop	 esi
  00036	5d		 pop	 ebp
  00037	c2 04 00	 ret	 4
??4i3Timer@@QAEAAV0@ABV0@@Z ENDP			; i3Timer::operator=
_TEXT	ENDS
; Function compile flags: /Ogtp
;	COMDAT ??0i3Timer@@QAE@ABV0@@Z
_TEXT	SEGMENT
___that$ = 8						; size = 4
??0i3Timer@@QAE@ABV0@@Z PROC				; i3Timer::i3Timer, COMDAT
; _this$ = ecx
  00000	55		 push	 ebp
  00001	8b ec		 mov	 ebp, esp
  00003	8b 55 08	 mov	 edx, DWORD PTR ___that$[ebp]
  00006	56		 push	 esi
  00007	8b f1		 mov	 esi, ecx
  00009	c7 06 00 00 00
	00		 mov	 DWORD PTR [esi], OFFSET ??_7i3ElementBase@@6B@
  0000f	8b 42 04	 mov	 eax, DWORD PTR [edx+4]
  00012	89 46 04	 mov	 DWORD PTR [esi+4], eax
  00015	8b 42 08	 mov	 eax, DWORD PTR [edx+8]
  00018	89 46 08	 mov	 DWORD PTR [esi+8], eax
  0001b	8b 42 0c	 mov	 eax, DWORD PTR [edx+12]
  0001e	89 46 0c	 mov	 DWORD PTR [esi+12], eax
  00021	c7 06 00 00 00
	00		 mov	 DWORD PTR [esi], OFFSET ??_7i3Timer@@6B@
  00027	8b 42 10	 mov	 eax, DWORD PTR [edx+16]
  0002a	89 46 10	 mov	 DWORD PTR [esi+16], eax
  0002d	8b 42 18	 mov	 eax, DWORD PTR [edx+24]
  00030	8b 4a 1c	 mov	 ecx, DWORD PTR [edx+28]
  00033	89 46 18	 mov	 DWORD PTR [esi+24], eax
  00036	89 4e 1c	 mov	 DWORD PTR [esi+28], ecx
  00039	8b 42 20	 mov	 eax, DWORD PTR [edx+32]
  0003c	89 46 20	 mov	 DWORD PTR [esi+32], eax
  0003f	8b c6		 mov	 eax, esi
  00041	5e		 pop	 esi
  00042	5d		 pop	 ebp
  00043	c2 04 00	 ret	 4
??0i3Timer@@QAE@ABV0@@Z ENDP				; i3Timer::i3Timer
_TEXT	ENDS
; Function compile flags: /Ogtp
; File E:\Proyectos\JuegosOnlineproyectos\PB\pbblow\Piercing Blow Remake\i3Server\include\i3Base\i3Timer.h
;	COMDAT ?GetClassMeta@i3Timer@@SAPAVi3ClassMeta@@XZ
_TEXT	SEGMENT
?GetClassMeta@i3Timer@@SAPAVi3ClassMeta@@XZ PROC	; i3Timer::GetClassMeta, COMDAT

; 9    : 	I3_CLASS_DEFINE( i3Timer);

  00000	a1 00 00 00 00	 mov	 eax, DWORD PTR ?s_pClassMetai3Timer@i3Timer@@2PAVi3ClassMeta@@A ; i3Timer::s_pClassMetai3Timer
  00005	c3		 ret	 0
?GetClassMeta@i3Timer@@SAPAVi3ClassMeta@@XZ ENDP	; i3Timer::GetClassMeta
_TEXT	ENDS
; Function compile flags: /Ogtp
; File E:\Proyectos\JuegosOnlineproyectos\PB\pbblow\Piercing Blow Remake\i3Server\src\i3Base\i3System.cpp
;	COMDAT ??_Ei3Stream@@UAEPAXI@Z
_TEXT	SEGMENT
__$EHRec$ = -12						; size = 12
___flags$ = 8						; size = 4
??_Ei3Stream@@UAEPAXI@Z PROC				; i3Stream::`vector deleting destructor', COMDAT
; _this$ = ecx
  00000	55		 push	 ebp
  00001	8b ec		 mov	 ebp, esp
  00003	6a ff		 push	 -1
  00005	68 00 00 00 00	 push	 __ehhandler$??_Ei3Stream@@UAEPAXI@Z
  0000a	64 a1 00 00 00
	00		 mov	 eax, DWORD PTR fs:0
  00010	50		 push	 eax
  00011	53		 push	 ebx
  00012	56		 push	 esi
  00013	57		 push	 edi
  00014	a1 00 00 00 00	 mov	 eax, DWORD PTR ___security_cookie
  00019	33 c5		 xor	 eax, ebp
  0001b	50		 push	 eax
  0001c	8d 45 f4	 lea	 eax, DWORD PTR __$EHRec$[ebp]
  0001f	64 a3 00 00 00
	00		 mov	 DWORD PTR fs:0, eax
  00025	8b f1		 mov	 esi, ecx
  00027	8b 5d 08	 mov	 ebx, DWORD PTR ___flags$[ebp]
  0002a	8b fb		 mov	 edi, ebx
  0002c	83 e7 01	 and	 edi, 1
  0002f	f6 c3 02	 test	 bl, 2
  00032	74 43		 je	 SHORT $LN2@vector
  00034	68 00 00 00 00	 push	 OFFSET ??1i3Stream@@UAE@XZ ; i3Stream::~i3Stream
  00039	ff 76 fc	 push	 DWORD PTR [esi-4]
  0003c	8d 5e fc	 lea	 ebx, DWORD PTR [esi-4]
  0003f	6a 24		 push	 36			; 00000024H
  00041	56		 push	 esi
  00042	e8 00 00 00 00	 call	 ??_M@YGXPAXIIP6EX0@Z@Z
  00047	85 ff		 test	 edi, edi
  00049	74 16		 je	 SHORT $LN3@vector
  0004b	8b 0b		 mov	 ecx, DWORD PTR [ebx]
  0004d	8d 0c c9	 lea	 ecx, DWORD PTR [ecx+ecx*8]
  00050	8d 0c 8d 04 00
	00 00		 lea	 ecx, DWORD PTR [ecx*4+4]
  00057	51		 push	 ecx
  00058	53		 push	 ebx
  00059	e8 00 00 00 00	 call	 ??_V@YAXPAXI@Z		; operator delete[]
  0005e	83 c4 08	 add	 esp, 8
$LN3@vector:
  00061	8b c3		 mov	 eax, ebx
  00063	8b 4d f4	 mov	 ecx, DWORD PTR __$EHRec$[ebp]
  00066	64 89 0d 00 00
	00 00		 mov	 DWORD PTR fs:0, ecx
  0006d	59		 pop	 ecx
  0006e	5f		 pop	 edi
  0006f	5e		 pop	 esi
  00070	5b		 pop	 ebx
  00071	8b e5		 mov	 esp, ebp
  00073	5d		 pop	 ebp
  00074	c2 04 00	 ret	 4
$LN2@vector:
  00077	e8 00 00 00 00	 call	 ??1i3Stream@@UAE@XZ	; i3Stream::~i3Stream
  0007c	85 ff		 test	 edi, edi
  0007e	74 1b		 je	 SHORT $LN6@vector
  00080	f6 c3 04	 test	 bl, 4
  00083	75 0b		 jne	 SHORT $LN5@vector
  00085	56		 push	 esi
  00086	e8 00 00 00 00	 call	 ??3i3ElementBase@@SAXPAX@Z ; i3ElementBase::operator delete
  0008b	83 c4 04	 add	 esp, 4
  0008e	eb 0b		 jmp	 SHORT $LN6@vector
$LN5@vector:

  00090	6a 24		 push	 36			; 00000024H
  00092	56		 push	 esi
  00093	e8 00 00 00 00	 call	 ??3@YAXPAXI@Z		; operator delete
  00098	83 c4 08	 add	 esp, 8
$LN6@vector:
  0009b	8b c6		 mov	 eax, esi
  0009d	8b 4d f4	 mov	 ecx, DWORD PTR __$EHRec$[ebp]
  000a0	64 89 0d 00 00
	00 00		 mov	 DWORD PTR fs:0, ecx
  000a7	59		 pop	 ecx
  000a8	5f		 pop	 edi
  000a9	5e		 pop	 esi
  000aa	5b		 pop	 ebx
  000ab	8b e5		 mov	 esp, ebp
  000ad	5d		 pop	 ebp
  000ae	c2 04 00	 ret	 4
  000b1	cc		 int	 3
  000b2	cc		 int	 3
  000b3	cc		 int	 3
  000b4	cc		 int	 3
  000b5	cc		 int	 3
_TEXT	ENDS
;	COMDAT text$x
text$x	SEGMENT
__ehhandler$??_Ei3Stream@@UAEPAXI@Z:
  00000	90		 npad	 1
  00001	90		 npad	 1
  00002	8b 54 24 08	 mov	 edx, DWORD PTR [esp+8]
  00006	8d 42 0c	 lea	 eax, DWORD PTR [edx+12]
  00009	8b 4a f0	 mov	 ecx, DWORD PTR [edx-16]
  0000c	33 c8		 xor	 ecx, eax
  0000e	e8 00 00 00 00	 call	 @__security_check_cookie@4
  00013	b8 00 00 00 00	 mov	 eax, OFFSET __ehfuncinfo$??_Ei3Stream@@UAEPAXI@Z
  00018	e9 00 00 00 00	 jmp	 ___CxxFrameHandler3
text$x	ENDS
??_Ei3Stream@@UAEPAXI@Z ENDP				; i3Stream::`vector deleting destructor'
; Function compile flags: /Ogtp
; File E:\Proyectos\JuegosOnlineproyectos\PB\pbblow\Piercing Blow Remake\i3Server\src\i3Base\i3System.cpp
;	COMDAT ??_Gi3Stream@@UAEPAXI@Z
_TEXT	SEGMENT
___flags$ = 8						; size = 4
??_Gi3Stream@@UAEPAXI@Z PROC				; i3Stream::`scalar deleting destructor', COMDAT
; _this$ = ecx
  00000	55		 push	 ebp
  00001	8b ec		 mov	 ebp, esp
  00003	56		 push	 esi
  00004	8b f1		 mov	 esi, ecx
  00006	e8 00 00 00 00	 call	 ??1i3Stream@@UAE@XZ	; i3Stream::~i3Stream
  0000b	8b 45 08	 mov	 eax, DWORD PTR ___flags$[ebp]
  0000e	a8 01		 test	 al, 1
  00010	74 1f		 je	 SHORT $LN10@scalar
  00012	a8 04		 test	 al, 4
  00014	75 10		 jne	 SHORT $LN3@scalar
  00016	56		 push	 esi
  00017	e8 00 00 00 00	 call	 ??3i3ElementBase@@SAXPAX@Z ; i3ElementBase::operator delete
  0001c	83 c4 04	 add	 esp, 4
  0001f	8b c6		 mov	 eax, esi
  00021	5e		 pop	 esi
  00022	5d		 pop	 ebp
  00023	c2 04 00	 ret	 4
$LN3@scalar:

  00026	6a 24		 push	 36			; 00000024H
  00028	56		 push	 esi
  00029	e8 00 00 00 00	 call	 ??3@YAXPAXI@Z		; operator delete
  0002e	83 c4 08	 add	 esp, 8
$LN10@scalar:
  00031	8b c6		 mov	 eax, esi
  00033	5e		 pop	 esi
  00034	5d		 pop	 ebp
  00035	c2 04 00	 ret	 4
??_Gi3Stream@@UAEPAXI@Z ENDP				; i3Stream::`scalar deleting destructor'
_TEXT	ENDS
; Function compile flags: /Ogtp
;	COMDAT ??4i3Stream@@QAEAAV0@ABV0@@Z
_TEXT	SEGMENT
___that$ = 8						; size = 4
??4i3Stream@@QAEAAV0@ABV0@@Z PROC			; i3Stream::operator=, COMDAT
; _this$ = ecx
  00000	55		 push	 ebp
  00001	8b ec		 mov	 ebp, esp
  00003	8b 55 08	 mov	 edx, DWORD PTR ___that$[ebp]
  00006	8b 42 04	 mov	 eax, DWORD PTR [edx+4]
  00009	89 41 04	 mov	 DWORD PTR [ecx+4], eax
  0000c	8b 42 08	 mov	 eax, DWORD PTR [edx+8]
  0000f	89 41 08	 mov	 DWORD PTR [ecx+8], eax
  00012	8b 42 0c	 mov	 eax, DWORD PTR [edx+12]
  00015	89 41 0c	 mov	 DWORD PTR [ecx+12], eax
  00018	8b 42 10	 mov	 eax, DWORD PTR [edx+16]
  0001b	89 41 10	 mov	 DWORD PTR [ecx+16], eax
  0001e	8b 42 14	 mov	 eax, DWORD PTR [edx+20]
  00021	89 41 14	 mov	 DWORD PTR [ecx+20], eax
  00024	8b 42 18	 mov	 eax, DWORD PTR [edx+24]
  00027	89 41 18	 mov	 DWORD PTR [ecx+24], eax
  0002a	8b 42 1c	 mov	 eax, DWORD PTR [edx+28]
  0002d	89 41 1c	 mov	 DWORD PTR [ecx+28], eax
  00030	8b 42 20	 mov	 eax, DWORD PTR [edx+32]
  00033	89 41 20	 mov	 DWORD PTR [ecx+32], eax
  00036	8b c1		 mov	 eax, ecx
  00038	5d		 pop	 ebp
  00039	c2 04 00	 ret	 4
??4i3Stream@@QAEAAV0@ABV0@@Z ENDP			; i3Stream::operator=
_TEXT	ENDS
; Function compile flags: /Ogtp
;	COMDAT ??0i3Stream@@QAE@ABV0@@Z
_TEXT	SEGMENT
___that$ = 8						; size = 4
??0i3Stream@@QAE@ABV0@@Z PROC				; i3Stream::i3Stream, COMDAT
; _this$ = ecx
  00000	55		 push	 ebp
  00001	8b ec		 mov	 ebp, esp
  00003	8b 55 08	 mov	 edx, DWORD PTR ___that$[ebp]
  00006	c7 01 00 00 00
	00		 mov	 DWORD PTR [ecx], OFFSET ??_7i3ElementBase@@6B@
  0000c	8b 42 04	 mov	 eax, DWORD PTR [edx+4]
  0000f	89 41 04	 mov	 DWORD PTR [ecx+4], eax
  00012	8b 42 08	 mov	 eax, DWORD PTR [edx+8]
  00015	89 41 08	 mov	 DWORD PTR [ecx+8], eax
  00018	8b 42 0c	 mov	 eax, DWORD PTR [edx+12]
  0001b	89 41 0c	 mov	 DWORD PTR [ecx+12], eax
  0001e	c7 01 00 00 00
	00		 mov	 DWORD PTR [ecx], OFFSET ??_7i3Stream@@6B@
  00024	8b 42 10	 mov	 eax, DWORD PTR [edx+16]
  00027	89 41 10	 mov	 DWORD PTR [ecx+16], eax
  0002a	8b 42 14	 mov	 eax, DWORD PTR [edx+20]
  0002d	89 41 14	 mov	 DWORD PTR [ecx+20], eax
  00030	8b 42 18	 mov	 eax, DWORD PTR [edx+24]
  00033	89 41 18	 mov	 DWORD PTR [ecx+24], eax
  00036	8b 42 1c	 mov	 eax, DWORD PTR [edx+28]
  00039	89 41 1c	 mov	 DWORD PTR [ecx+28], eax
  0003c	8b 42 20	 mov	 eax, DWORD PTR [edx+32]
  0003f	89 41 20	 mov	 DWORD PTR [ecx+32], eax
  00042	8b c1		 mov	 eax, ecx
  00044	5d		 pop	 ebp
  00045	c2 04 00	 ret	 4
??0i3Stream@@QAE@ABV0@@Z ENDP				; i3Stream::i3Stream
_TEXT	ENDS
; Function compile flags: /Ogtp
; File E:\Proyectos\JuegosOnlineproyectos\PB\pbblow\Piercing Blow Remake\i3Server\include\i3Base\i3Stream.h
;	COMDAT ?GetRecordSize@i3Stream@@QAEIXZ
_TEXT	SEGMENT
?GetRecordSize@i3Stream@@QAEIXZ PROC			; i3Stream::GetRecordSize, COMDAT
; _this$ = ecx

; 58   : 	UINT32	GetRecordSize(void)							{ return m_RecordSize; }

  00000	8b 41 14	 mov	 eax, DWORD PTR [ecx+20]
  00003	c3		 ret	 0
?GetRecordSize@i3Stream@@QAEIXZ ENDP			; i3Stream::GetRecordSize
_TEXT	ENDS
; Function compile flags: /Ogtp
; File E:\Proyectos\JuegosOnlineproyectos\PB\pbblow\Piercing Blow Remake\i3Server\include\i3Base\i3Stream.h
;	COMDAT ?BeginRecord@i3Stream@@QAEXXZ
_TEXT	SEGMENT
?BeginRecord@i3Stream@@QAEXXZ PROC			; i3Stream::BeginRecord, COMDAT
; _this$ = ecx

; 57   : 	void	BeginRecord(void)							{ m_RecordSize = 0; }

  00000	c7 41 14 00 00
	00 00		 mov	 DWORD PTR [ecx+20], 0
  00007	c3		 ret	 0
?BeginRecord@i3Stream@@QAEXXZ ENDP			; i3Stream::BeginRecord
_TEXT	ENDS
; Function compile flags: /Ogtp
; File E:\Proyectos\JuegosOnlineproyectos\PB\pbblow\Piercing Blow Remake\i3Server\include\i3Base\i3Stream.h
;	COMDAT ?GetHandle@i3Stream@@UAEPAXXZ
_TEXT	SEGMENT
?GetHandle@i3Stream@@UAEPAXXZ PROC			; i3Stream::GetHandle, COMDAT
; _this$ = ecx

; 55   : 	virtual void *			GetHandle(void)				{ return m_pHandle; }

  00000	8b 41 20	 mov	 eax, DWORD PTR [ecx+32]
  00003	c3		 ret	 0
?GetHandle@i3Stream@@UAEPAXXZ ENDP			; i3Stream::GetHandle
_TEXT	ENDS
; Function compile flags: /Ogtp
; File E:\Proyectos\JuegosOnlineproyectos\PB\pbblow\Piercing Blow Remake\i3Server\include\i3Base\i3Stream.h
;	COMDAT ?GetAccessMode@i3Stream@@QAEHXZ
_TEXT	SEGMENT
?GetAccessMode@i3Stream@@QAEHXZ PROC			; i3Stream::GetAccessMode, COMDAT
; _this$ = ecx

; 53   : 	INT32			GetAccessMode(void)					{ return m_Access; }

  00000	8b 41 1c	 mov	 eax, DWORD PTR [ecx+28]
  00003	c3		 ret	 0
?GetAccessMode@i3Stream@@QAEHXZ ENDP			; i3Stream::GetAccessMode
_TEXT	ENDS
; Function compile flags: /Ogtp
; File E:\Proyectos\JuegosOnlineproyectos\PB\pbblow\Piercing Blow Remake\i3Server\include\i3Base\i3Stream.h
;	COMDAT ?GetLastError@i3Stream@@QAE?AW4STREAMCODE@1@XZ
_TEXT	SEGMENT
?GetLastError@i3Stream@@QAE?AW4STREAMCODE@1@XZ PROC	; i3Stream::GetLastError, COMDAT
; _this$ = ecx

; 52   : 	STREAMCODE		GetLastError(void)					{ return m_LastCode; }

  00000	8b 41 18	 mov	 eax, DWORD PTR [ecx+24]
  00003	c3		 ret	 0
?GetLastError@i3Stream@@QAE?AW4STREAMCODE@1@XZ ENDP	; i3Stream::GetLastError
_TEXT	ENDS
; Function compile flags: /Ogtp
; File E:\Proyectos\JuegosOnlineproyectos\PB\pbblow\Piercing Blow Remake\i3Server\include\i3Base\i3Stream.h
;	COMDAT ?GetSize@i3Stream@@QAEIXZ
_TEXT	SEGMENT
?GetSize@i3Stream@@QAEIXZ PROC				; i3Stream::GetSize, COMDAT
; _this$ = ecx

; 51   : 	UINT32			GetSize(void)						{ return m_Size; }

  00000	8b 41 10	 mov	 eax, DWORD PTR [ecx+16]
  00003	c3		 ret	 0
?GetSize@i3Stream@@QAEIXZ ENDP				; i3Stream::GetSize
_TEXT	ENDS
; Function compile flags: /Ogtp
; File E:\Proyectos\JuegosOnlineproyectos\PB\pbblow\Piercing Blow Remake\i3Server\include\i3Base\i3Stream.h
;	COMDAT ?GetClassMeta@i3Stream@@SAPAVi3ClassMeta@@XZ
_TEXT	SEGMENT
?GetClassMeta@i3Stream@@SAPAVi3ClassMeta@@XZ PROC	; i3Stream::GetClassMeta, COMDAT

; 24   : 	I3_ABSTRACT_CLASS_DEFINE( i3Stream);

  00000	a1 00 00 00 00	 mov	 eax, DWORD PTR ?s_pClassMetai3Stream@i3Stream@@2PAVi3ClassMeta@@A ; i3Stream::s_pClassMetai3Stream
  00005	c3		 ret	 0
?GetClassMeta@i3Stream@@SAPAVi3ClassMeta@@XZ ENDP	; i3Stream::GetClassMeta
_TEXT	ENDS
; Function compile flags: /Ogtp
;	COMDAT ??_Ei3MemoryPool@@UAEPAXI@Z
_TEXT	SEGMENT
__$EHRec$ = -12						; size = 12
___flags$ = 8						; size = 4
??_Ei3MemoryPool@@UAEPAXI@Z PROC			; i3MemoryPool::`vector deleting destructor', COMDAT
; _this$ = ecx
  00000	55		 push	 ebp
  00001	8b ec		 mov	 ebp, esp
  00003	6a ff		 push	 -1
  00005	68 00 00 00 00	 push	 __ehhandler$??_Ei3MemoryPool@@UAEPAXI@Z
  0000a	64 a1 00 00 00
	00		 mov	 eax, DWORD PTR fs:0
  00010	50		 push	 eax
  00011	53		 push	 ebx
  00012	56		 push	 esi
  00013	57		 push	 edi
  00014	a1 00 00 00 00	 mov	 eax, DWORD PTR ___security_cookie
  00019	33 c5		 xor	 eax, ebp
  0001b	50		 push	 eax
  0001c	8d 45 f4	 lea	 eax, DWORD PTR __$EHRec$[ebp]
  0001f	64 a3 00 00 00
	00		 mov	 DWORD PTR fs:0, eax
  00025	8b f1		 mov	 esi, ecx
  00027	8b 45 08	 mov	 eax, DWORD PTR ___flags$[ebp]
  0002a	8b f8		 mov	 edi, eax
  0002c	83 e7 01	 and	 edi, 1
  0002f	a8 02		 test	 al, 2
  00031	74 40		 je	 SHORT $LN2@vector
  00033	68 00 00 00 00	 push	 OFFSET ??1i3MemoryPool@@UAE@XZ ; i3MemoryPool::~i3MemoryPool
  00038	ff 76 fc	 push	 DWORD PTR [esi-4]
  0003b	8d 5e fc	 lea	 ebx, DWORD PTR [esi-4]
  0003e	6a 04		 push	 4
  00040	56		 push	 esi
  00041	e8 00 00 00 00	 call	 ??_M@YGXPAXIIP6EX0@Z@Z
  00046	85 ff		 test	 edi, edi
  00048	74 13		 je	 SHORT $LN3@vector
  0004a	8b 0b		 mov	 ecx, DWORD PTR [ebx]
  0004c	8d 0c 8d 04 00
	00 00		 lea	 ecx, DWORD PTR [ecx*4+4]
  00053	51		 push	 ecx
  00054	53		 push	 ebx
  00055	e8 00 00 00 00	 call	 ??_V@YAXPAXI@Z		; operator delete[]
  0005a	83 c4 08	 add	 esp, 8
$LN3@vector:
  0005d	8b c3		 mov	 eax, ebx
  0005f	8b 4d f4	 mov	 ecx, DWORD PTR __$EHRec$[ebp]
  00062	64 89 0d 00 00
	00 00		 mov	 DWORD PTR fs:0, ecx
  00069	59		 pop	 ecx
  0006a	5f		 pop	 edi
  0006b	5e		 pop	 esi
  0006c	5b		 pop	 ebx
  0006d	8b e5		 mov	 esp, ebp
  0006f	5d		 pop	 ebp
  00070	c2 04 00	 ret	 4
$LN2@vector:
  00073	e8 00 00 00 00	 call	 ??1i3MemoryPool@@UAE@XZ	; i3MemoryPool::~i3MemoryPool
  00078	85 ff		 test	 edi, edi
  0007a	74 0b		 je	 SHORT $LN4@vector
  0007c	6a 04		 push	 4
  0007e	56		 push	 esi
  0007f	e8 00 00 00 00	 call	 ??3@YAXPAXI@Z		; operator delete
  00084	83 c4 08	 add	 esp, 8
$LN4@vector:
  00087	8b c6		 mov	 eax, esi
  00089	8b 4d f4	 mov	 ecx, DWORD PTR __$EHRec$[ebp]
  0008c	64 89 0d 00 00
	00 00		 mov	 DWORD PTR fs:0, ecx
  00093	59		 pop	 ecx
  00094	5f		 pop	 edi
  00095	5e		 pop	 esi
  00096	5b		 pop	 ebx
  00097	8b e5		 mov	 esp, ebp
  00099	5d		 pop	 ebp
  0009a	c2 04 00	 ret	 4
  0009d	cc		 int	 3
  0009e	cc		 int	 3
  0009f	cc		 int	 3
  000a0	cc		 int	 3
  000a1	cc		 int	 3
_TEXT	ENDS
;	COMDAT text$x
text$x	SEGMENT
__ehhandler$??_Ei3MemoryPool@@UAEPAXI@Z:
  00000	90		 npad	 1
  00001	90		 npad	 1
  00002	8b 54 24 08	 mov	 edx, DWORD PTR [esp+8]
  00006	8d 42 0c	 lea	 eax, DWORD PTR [edx+12]
  00009	8b 4a f0	 mov	 ecx, DWORD PTR [edx-16]
  0000c	33 c8		 xor	 ecx, eax
  0000e	e8 00 00 00 00	 call	 @__security_check_cookie@4
  00013	b8 00 00 00 00	 mov	 eax, OFFSET __ehfuncinfo$??_Ei3MemoryPool@@UAEPAXI@Z
  00018	e9 00 00 00 00	 jmp	 ___CxxFrameHandler3
text$x	ENDS
??_Ei3MemoryPool@@UAEPAXI@Z ENDP			; i3MemoryPool::`vector deleting destructor'
; Function compile flags: /Ogtp
;	COMDAT ??_Gi3MemoryPool@@UAEPAXI@Z
_TEXT	SEGMENT
___flags$ = 8						; size = 4
??_Gi3MemoryPool@@UAEPAXI@Z PROC			; i3MemoryPool::`scalar deleting destructor', COMDAT
; _this$ = ecx
  00000	55		 push	 ebp
  00001	8b ec		 mov	 ebp, esp
  00003	56		 push	 esi
  00004	8b f1		 mov	 esi, ecx
  00006	e8 00 00 00 00	 call	 ??1i3MemoryPool@@UAE@XZ	; i3MemoryPool::~i3MemoryPool
  0000b	f6 45 08 01	 test	 BYTE PTR ___flags$[ebp], 1
  0000f	74 0b		 je	 SHORT $LN5@scalar
  00011	6a 04		 push	 4
  00013	56		 push	 esi
  00014	e8 00 00 00 00	 call	 ??3@YAXPAXI@Z		; operator delete
  00019	83 c4 08	 add	 esp, 8
$LN5@scalar:
  0001c	8b c6		 mov	 eax, esi
  0001e	5e		 pop	 esi
  0001f	5d		 pop	 ebp
  00020	c2 04 00	 ret	 4
??_Gi3MemoryPool@@UAEPAXI@Z ENDP			; i3MemoryPool::`scalar deleting destructor'
_TEXT	ENDS
; Function compile flags: /Ogtp
;	COMDAT ??4i3MemoryPool@@QAEAAV0@ABV0@@Z
_TEXT	SEGMENT
___that$ = 8						; size = 4
??4i3MemoryPool@@QAEAAV0@ABV0@@Z PROC			; i3MemoryPool::operator=, COMDAT
; _this$ = ecx
  00000	8b c1		 mov	 eax, ecx
  00002	c2 04 00	 ret	 4
??4i3MemoryPool@@QAEAAV0@ABV0@@Z ENDP			; i3MemoryPool::operator=
_TEXT	ENDS
; Function compile flags: /Ogtp
;	COMDAT ??0i3MemoryPool@@QAE@ABV0@@Z
_TEXT	SEGMENT
___that$ = 8						; size = 4
??0i3MemoryPool@@QAE@ABV0@@Z PROC			; i3MemoryPool::i3MemoryPool, COMDAT
; _this$ = ecx
  00000	c7 01 00 00 00
	00		 mov	 DWORD PTR [ecx], OFFSET ??_7i3MemoryPool@@6B@
  00006	8b c1		 mov	 eax, ecx
  00008	c2 04 00	 ret	 4
??0i3MemoryPool@@QAE@ABV0@@Z ENDP			; i3MemoryPool::i3MemoryPool
_TEXT	ENDS
; Function compile flags: /Ogtp
; File E:\Proyectos\JuegosOnlineproyectos\PB\pbblow\Piercing Blow Remake\i3Server\src\i3Base\i3System.cpp
;	COMDAT ??_Ei3ElementBase@@UAEPAXI@Z
_TEXT	SEGMENT
__$EHRec$ = -12						; size = 12
___flags$ = 8						; size = 4
??_Ei3ElementBase@@UAEPAXI@Z PROC			; i3ElementBase::`vector deleting destructor', COMDAT
; _this$ = ecx
  00000	55		 push	 ebp
  00001	8b ec		 mov	 ebp, esp
  00003	6a ff		 push	 -1
  00005	68 00 00 00 00	 push	 __ehhandler$??_Ei3ElementBase@@UAEPAXI@Z
  0000a	64 a1 00 00 00
	00		 mov	 eax, DWORD PTR fs:0
  00010	50		 push	 eax
  00011	53		 push	 ebx
  00012	56		 push	 esi
  00013	57		 push	 edi
  00014	a1 00 00 00 00	 mov	 eax, DWORD PTR ___security_cookie
  00019	33 c5		 xor	 eax, ebp
  0001b	50		 push	 eax
  0001c	8d 45 f4	 lea	 eax, DWORD PTR __$EHRec$[ebp]
  0001f	64 a3 00 00 00
	00		 mov	 DWORD PTR fs:0, eax
  00025	8b f1		 mov	 esi, ecx
  00027	8b 5d 08	 mov	 ebx, DWORD PTR ___flags$[ebp]
  0002a	8b fb		 mov	 edi, ebx
  0002c	83 e7 01	 and	 edi, 1
  0002f	f6 c3 02	 test	 bl, 2
  00032	74 3f		 je	 SHORT $LN2@vector
  00034	68 00 00 00 00	 push	 OFFSET ??1i3ElementBase@@UAE@XZ ; i3ElementBase::~i3ElementBase
  00039	ff 76 fc	 push	 DWORD PTR [esi-4]
  0003c	8d 5e fc	 lea	 ebx, DWORD PTR [esi-4]
  0003f	6a 10		 push	 16			; 00000010H
  00041	56		 push	 esi
  00042	e8 00 00 00 00	 call	 ??_M@YGXPAXIIP6EX0@Z@Z
  00047	85 ff		 test	 edi, edi
  00049	74 12		 je	 SHORT $LN3@vector
  0004b	8b 0b		 mov	 ecx, DWORD PTR [ebx]
  0004d	c1 e1 04	 shl	 ecx, 4
  00050	83 c1 04	 add	 ecx, 4
  00053	51		 push	 ecx
  00054	53		 push	 ebx
  00055	e8 00 00 00 00	 call	 ??_V@YAXPAXI@Z		; operator delete[]
  0005a	83 c4 08	 add	 esp, 8
$LN3@vector:
  0005d	8b c3		 mov	 eax, ebx
  0005f	8b 4d f4	 mov	 ecx, DWORD PTR __$EHRec$[ebp]
  00062	64 89 0d 00 00
	00 00		 mov	 DWORD PTR fs:0, ecx
  00069	59		 pop	 ecx
  0006a	5f		 pop	 edi
  0006b	5e		 pop	 esi
  0006c	5b		 pop	 ebx
  0006d	8b e5		 mov	 esp, ebp
  0006f	5d		 pop	 ebp
  00070	c2 04 00	 ret	 4
$LN2@vector:
  00073	e8 00 00 00 00	 call	 ??1i3ElementBase@@UAE@XZ ; i3ElementBase::~i3ElementBase
  00078	85 ff		 test	 edi, edi
  0007a	74 1b		 je	 SHORT $LN6@vector
  0007c	f6 c3 04	 test	 bl, 4
  0007f	75 0b		 jne	 SHORT $LN5@vector
  00081	56		 push	 esi
  00082	e8 00 00 00 00	 call	 ??3i3ElementBase@@SAXPAX@Z ; i3ElementBase::operator delete
  00087	83 c4 04	 add	 esp, 4
  0008a	eb 0b		 jmp	 SHORT $LN6@vector
$LN5@vector:

  0008c	6a 10		 push	 16			; 00000010H
  0008e	56		 push	 esi
  0008f	e8 00 00 00 00	 call	 ??3@YAXPAXI@Z		; operator delete
  00094	83 c4 08	 add	 esp, 8
$LN6@vector:
  00097	8b c6		 mov	 eax, esi
  00099	8b 4d f4	 mov	 ecx, DWORD PTR __$EHRec$[ebp]
  0009c	64 89 0d 00 00
	00 00		 mov	 DWORD PTR fs:0, ecx
  000a3	59		 pop	 ecx
  000a4	5f		 pop	 edi
  000a5	5e		 pop	 esi
  000a6	5b		 pop	 ebx
  000a7	8b e5		 mov	 esp, ebp
  000a9	5d		 pop	 ebp
  000aa	c2 04 00	 ret	 4
  000ad	cc		 int	 3
  000ae	cc		 int	 3
  000af	cc		 int	 3
  000b0	cc		 int	 3
  000b1	cc		 int	 3
_TEXT	ENDS
;	COMDAT text$x
text$x	SEGMENT
__ehhandler$??_Ei3ElementBase@@UAEPAXI@Z:
  00000	90		 npad	 1
  00001	90		 npad	 1
  00002	8b 54 24 08	 mov	 edx, DWORD PTR [esp+8]
  00006	8d 42 0c	 lea	 eax, DWORD PTR [edx+12]
  00009	8b 4a f0	 mov	 ecx, DWORD PTR [edx-16]
  0000c	33 c8		 xor	 ecx, eax
  0000e	e8 00 00 00 00	 call	 @__security_check_cookie@4
  00013	b8 00 00 00 00	 mov	 eax, OFFSET __ehfuncinfo$??_Ei3ElementBase@@UAEPAXI@Z
  00018	e9 00 00 00 00	 jmp	 ___CxxFrameHandler3
text$x	ENDS
??_Ei3ElementBase@@UAEPAXI@Z ENDP			; i3ElementBase::`vector deleting destructor'
; Function compile flags: /Ogtp
; File E:\Proyectos\JuegosOnlineproyectos\PB\pbblow\Piercing Blow Remake\i3Server\src\i3Base\i3System.cpp
;	COMDAT ??_Gi3ElementBase@@UAEPAXI@Z
_TEXT	SEGMENT
___flags$ = 8						; size = 4
??_Gi3ElementBase@@UAEPAXI@Z PROC			; i3ElementBase::`scalar deleting destructor', COMDAT
; _this$ = ecx
  00000	55		 push	 ebp
  00001	8b ec		 mov	 ebp, esp
  00003	56		 push	 esi
  00004	8b f1		 mov	 esi, ecx
  00006	e8 00 00 00 00	 call	 ??1i3ElementBase@@UAE@XZ ; i3ElementBase::~i3ElementBase
  0000b	8b 45 08	 mov	 eax, DWORD PTR ___flags$[ebp]
  0000e	a8 01		 test	 al, 1
  00010	74 1f		 je	 SHORT $LN10@scalar
  00012	a8 04		 test	 al, 4
  00014	75 10		 jne	 SHORT $LN3@scalar
  00016	56		 push	 esi
  00017	e8 00 00 00 00	 call	 ??3i3ElementBase@@SAXPAX@Z ; i3ElementBase::operator delete
  0001c	83 c4 04	 add	 esp, 4
  0001f	8b c6		 mov	 eax, esi
  00021	5e		 pop	 esi
  00022	5d		 pop	 ebp
  00023	c2 04 00	 ret	 4
$LN3@scalar:

  00026	6a 10		 push	 16			; 00000010H
  00028	56		 push	 esi
  00029	e8 00 00 00 00	 call	 ??3@YAXPAXI@Z		; operator delete
  0002e	83 c4 08	 add	 esp, 8
$LN10@scalar:
  00031	8b c6		 mov	 eax, esi
  00033	5e		 pop	 esi
  00034	5d		 pop	 ebp
  00035	c2 04 00	 ret	 4
??_Gi3ElementBase@@UAEPAXI@Z ENDP			; i3ElementBase::`scalar deleting destructor'
_TEXT	ENDS
; Function compile flags: /Ogtp
;	COMDAT ??4i3ElementBase@@QAEAAV0@ABV0@@Z
_TEXT	SEGMENT
___that$ = 8						; size = 4
??4i3ElementBase@@QAEAAV0@ABV0@@Z PROC			; i3ElementBase::operator=, COMDAT
; _this$ = ecx
  00000	55		 push	 ebp
  00001	8b ec		 mov	 ebp, esp
  00003	8b 55 08	 mov	 edx, DWORD PTR ___that$[ebp]
  00006	8b 42 04	 mov	 eax, DWORD PTR [edx+4]
  00009	89 41 04	 mov	 DWORD PTR [ecx+4], eax
  0000c	8b 42 08	 mov	 eax, DWORD PTR [edx+8]
  0000f	89 41 08	 mov	 DWORD PTR [ecx+8], eax
  00012	8b 42 0c	 mov	 eax, DWORD PTR [edx+12]
  00015	89 41 0c	 mov	 DWORD PTR [ecx+12], eax
  00018	8b c1		 mov	 eax, ecx
  0001a	5d		 pop	 ebp
  0001b	c2 04 00	 ret	 4
??4i3ElementBase@@QAEAAV0@ABV0@@Z ENDP			; i3ElementBase::operator=
_TEXT	ENDS
; Function compile flags: /Ogtp
;	COMDAT ??0i3ElementBase@@QAE@ABV0@@Z
_TEXT	SEGMENT
___that$ = 8						; size = 4
??0i3ElementBase@@QAE@ABV0@@Z PROC			; i3ElementBase::i3ElementBase, COMDAT
; _this$ = ecx
  00000	55		 push	 ebp
  00001	8b ec		 mov	 ebp, esp
  00003	8b 55 08	 mov	 edx, DWORD PTR ___that$[ebp]
  00006	c7 01 00 00 00
	00		 mov	 DWORD PTR [ecx], OFFSET ??_7i3ElementBase@@6B@
  0000c	8b 42 04	 mov	 eax, DWORD PTR [edx+4]
  0000f	89 41 04	 mov	 DWORD PTR [ecx+4], eax
  00012	8b 42 08	 mov	 eax, DWORD PTR [edx+8]
  00015	89 41 08	 mov	 DWORD PTR [ecx+8], eax
  00018	8b 42 0c	 mov	 eax, DWORD PTR [edx+12]
  0001b	89 41 0c	 mov	 DWORD PTR [ecx+12], eax
  0001e	8b c1		 mov	 eax, ecx
  00020	5d		 pop	 ebp
  00021	c2 04 00	 ret	 4
??0i3ElementBase@@QAE@ABV0@@Z ENDP			; i3ElementBase::i3ElementBase
_TEXT	ENDS
; Function compile flags: /Ogtp
; File E:\Proyectos\JuegosOnlineproyectos\PB\pbblow\Piercing Blow Remake\i3Server\include\i3Base\i3ElementBase.h
;	COMDAT ?_internal_SetRefCount@i3ElementBase@@QAEXH@Z
_TEXT	SEGMENT
_cnt$ = 8						; size = 4
?_internal_SetRefCount@i3ElementBase@@QAEXH@Z PROC	; i3ElementBase::_internal_SetRefCount, COMDAT
; _this$ = ecx

; 401  : 	{

  00000	55		 push	 ebp
  00001	8b ec		 mov	 ebp, esp

; 402  : 		m_RefCount = cnt;

  00003	8b 45 08	 mov	 eax, DWORD PTR _cnt$[ebp]
  00006	89 41 04	 mov	 DWORD PTR [ecx+4], eax

; 403  : 	}

  00009	5d		 pop	 ebp
  0000a	c2 04 00	 ret	 4
?_internal_SetRefCount@i3ElementBase@@QAEXH@Z ENDP	; i3ElementBase::_internal_SetRefCount
_TEXT	ENDS
; Function compile flags: /Ogtp
; File E:\Proyectos\JuegosOnlineproyectos\PB\pbblow\Piercing Blow Remake\i3Server\include\i3Base\i3ElementBase.h
;	COMDAT ?AddRef@i3ElementBase@@QAEHXZ
_TEXT	SEGMENT
?AddRef@i3ElementBase@@QAEHXZ PROC			; i3ElementBase::AddRef, COMDAT
; _this$ = ecx

; 392  : 		m_RefCount++;

  00000	ff 41 04	 inc	 DWORD PTR [ecx+4]

; 393  : 
; 394  : 		return m_RefCount;

  00003	8b 41 04	 mov	 eax, DWORD PTR [ecx+4]

; 395  : 	}

  00006	c3		 ret	 0
?AddRef@i3ElementBase@@QAEHXZ ENDP			; i3ElementBase::AddRef
_TEXT	ENDS
; Function compile flags: /Ogtp
; File E:\Proyectos\JuegosOnlineproyectos\PB\pbblow\Piercing Blow Remake\i3Server\include\i3Base\i3ElementBase.h
;	COMDAT ?IsTypeOf@i3ElementBase@@QAE_NPAVi3ClassMeta@@@Z
_TEXT	SEGMENT
_pMeta$ = 8						; size = 4
?IsTypeOf@i3ElementBase@@QAE_NPAVi3ClassMeta@@@Z PROC	; i3ElementBase::IsTypeOf, COMDAT
; _this$ = ecx

; 356  : 	{

  00000	55		 push	 ebp
  00001	8b ec		 mov	 ebp, esp

; 357  : 		return GetMeta()->IsTypeOf( pMeta);

  00003	8b 01		 mov	 eax, DWORD PTR [ecx]
  00005	ff 75 08	 push	 DWORD PTR _pMeta$[ebp]
  00008	ff 10		 call	 DWORD PTR [eax]
  0000a	8b c8		 mov	 ecx, eax
  0000c	e8 00 00 00 00	 call	 ?IsTypeOf@i3ClassMeta@@QAE_NPAV1@@Z ; i3ClassMeta::IsTypeOf

; 358  : 	}

  00011	5d		 pop	 ebp
  00012	c2 04 00	 ret	 4
?IsTypeOf@i3ElementBase@@QAE_NPAVi3ClassMeta@@@Z ENDP	; i3ElementBase::IsTypeOf
_TEXT	ENDS
; Function compile flags: /Ogtp
; File E:\Proyectos\JuegosOnlineproyectos\PB\pbblow\Piercing Blow Remake\i3Server\include\i3Base\i3ElementBase.h
; File E:\Proyectos\JuegosOnlineproyectos\PB\pbblow\Piercing Blow Remake\i3Server\include\i3Base\i3ClassMeta.h
; File E:\Proyectos\JuegosOnlineproyectos\PB\pbblow\Piercing Blow Remake\i3Server\include\i3Base\i3ElementBase.h
;	COMDAT ?IsExactTypeOf@i3ElementBase@@QAE_NPAVi3ClassMeta@@@Z
_TEXT	SEGMENT
_pMeta$ = 8						; size = 4
?IsExactTypeOf@i3ElementBase@@QAE_NPAVi3ClassMeta@@@Z PROC ; i3ElementBase::IsExactTypeOf, COMDAT
; _this$ = ecx

; 351  : 	{

  00000	55		 push	 ebp
  00001	8b ec		 mov	 ebp, esp

; 352  : 		return GetMeta()->IsExactTypeOf( pMeta);

  00003	8b 01		 mov	 eax, DWORD PTR [ecx]
  00005	ff 10		 call	 DWORD PTR [eax]
; File E:\Proyectos\JuegosOnlineproyectos\PB\pbblow\Piercing Blow Remake\i3Server\include\i3Base\i3ClassMeta.h

; 90   : 		return pMeta == this;

  00007	39 45 08	 cmp	 DWORD PTR _pMeta$[ebp], eax
  0000a	0f 94 c0	 sete	 al
; File E:\Proyectos\JuegosOnlineproyectos\PB\pbblow\Piercing Blow Remake\i3Server\include\i3Base\i3ElementBase.h

; 353  : 	}

  0000d	5d		 pop	 ebp
  0000e	c2 04 00	 ret	 4
?IsExactTypeOf@i3ElementBase@@QAE_NPAVi3ClassMeta@@@Z ENDP ; i3ElementBase::IsExactTypeOf
_TEXT	ENDS
; Function compile flags: /Ogtp
; File E:\Proyectos\JuegosOnlineproyectos\PB\pbblow\Piercing Blow Remake\i3Server\include\i3Base\i3ElementBase.h
;	COMDAT ?__GetMemoryPool@i3ElementBase@@QAEPAVi3MemoryPool@@XZ
_TEXT	SEGMENT
?__GetMemoryPool@i3ElementBase@@QAEPAVi3MemoryPool@@XZ PROC ; i3ElementBase::__GetMemoryPool, COMDAT
; _this$ = ecx

; 348  : 	i3MemoryPool *	__GetMemoryPool(void)							{ return m_pPool; }

  00000	8b 41 0c	 mov	 eax, DWORD PTR [ecx+12]
  00003	c3		 ret	 0
?__GetMemoryPool@i3ElementBase@@QAEPAVi3MemoryPool@@XZ ENDP ; i3ElementBase::__GetMemoryPool
_TEXT	ENDS
; Function compile flags: /Ogtp
; File E:\Proyectos\JuegosOnlineproyectos\PB\pbblow\Piercing Blow Remake\i3Server\include\i3Base\i3ElementBase.h
;	COMDAT ?__SetMemoryPool@i3ElementBase@@QAEXPAVi3MemoryPool@@@Z
_TEXT	SEGMENT
_pPool$ = 8						; size = 4
?__SetMemoryPool@i3ElementBase@@QAEXPAVi3MemoryPool@@@Z PROC ; i3ElementBase::__SetMemoryPool, COMDAT
; _this$ = ecx

; 347  : 	void			__SetMemoryPool( i3MemoryPool * pPool)			{ m_pPool = pPool; }

  00000	55		 push	 ebp
  00001	8b ec		 mov	 ebp, esp
  00003	8b 45 08	 mov	 eax, DWORD PTR _pPool$[ebp]
  00006	89 41 0c	 mov	 DWORD PTR [ecx+12], eax
  00009	5d		 pop	 ebp
  0000a	c2 04 00	 ret	 4
?__SetMemoryPool@i3ElementBase@@QAEXPAVi3MemoryPool@@@Z ENDP ; i3ElementBase::__SetMemoryPool
_TEXT	ENDS
; Function compile flags: /Ogtp
; File E:\Proyectos\JuegosOnlineproyectos\PB\pbblow\Piercing Blow Remake\i3Server\include\i3Base\i3ElementBase.h
;	COMDAT ?GetRefCount@i3ElementBase@@QAEHXZ
_TEXT	SEGMENT
?GetRefCount@i3ElementBase@@QAEHXZ PROC			; i3ElementBase::GetRefCount, COMDAT
; _this$ = ecx

; 344  : 		return m_RefCount;

  00000	8b 41 04	 mov	 eax, DWORD PTR [ecx+4]

; 345  : 	}

  00003	c3		 ret	 0
?GetRefCount@i3ElementBase@@QAEHXZ ENDP			; i3ElementBase::GetRefCount
_TEXT	ENDS
; Function compile flags: /Ogtp
; File E:\Proyectos\JuegosOnlineproyectos\PB\pbblow\Piercing Blow Remake\i3Server\include\i3Base\i3ElementBase.h
;	COMDAT ?GetClassMeta@i3ElementBase@@SAPAVi3ClassMeta@@XZ
_TEXT	SEGMENT
?GetClassMeta@i3ElementBase@@SAPAVi3ClassMeta@@XZ PROC	; i3ElementBase::GetClassMeta, COMDAT

; 314  : 	I3_ABSTRACT_CLASS_DEFINE( i3ElementBase);

  00000	a1 00 00 00 00	 mov	 eax, DWORD PTR ?s_pClassMetai3ElementBase@i3ElementBase@@2PAVi3ClassMeta@@A ; i3ElementBase::s_pClassMetai3ElementBase
  00005	c3		 ret	 0
?GetClassMeta@i3ElementBase@@SAPAVi3ClassMeta@@XZ ENDP	; i3ElementBase::GetClassMeta
_TEXT	ENDS
; Function compile flags: /Ogtp
;	COMDAT ??_Ei3ClassMeta@@UAEPAXI@Z
_TEXT	SEGMENT
__$EHRec$ = -12						; size = 12
___flags$ = 8						; size = 4
??_Ei3ClassMeta@@UAEPAXI@Z PROC				; i3ClassMeta::`vector deleting destructor', COMDAT
; _this$ = ecx
  00000	55		 push	 ebp
  00001	8b ec		 mov	 ebp, esp
  00003	6a ff		 push	 -1
  00005	68 00 00 00 00	 push	 __ehhandler$??_Ei3ClassMeta@@UAEPAXI@Z
  0000a	64 a1 00 00 00
	00		 mov	 eax, DWORD PTR fs:0
  00010	50		 push	 eax
  00011	53		 push	 ebx
  00012	56		 push	 esi
  00013	57		 push	 edi
  00014	a1 00 00 00 00	 mov	 eax, DWORD PTR ___security_cookie
  00019	33 c5		 xor	 eax, ebp
  0001b	50		 push	 eax
  0001c	8d 45 f4	 lea	 eax, DWORD PTR __$EHRec$[ebp]
  0001f	64 a3 00 00 00
	00		 mov	 DWORD PTR fs:0, eax
  00025	8b f1		 mov	 esi, ecx
  00027	8b 45 08	 mov	 eax, DWORD PTR ___flags$[ebp]
  0002a	8b f8		 mov	 edi, eax
  0002c	83 e7 01	 and	 edi, 1
  0002f	a8 02		 test	 al, 2
  00031	74 49		 je	 SHORT $LN2@vector
  00033	68 00 00 00 00	 push	 OFFSET ??1i3ClassMeta@@UAE@XZ ; i3ClassMeta::~i3ClassMeta
  00038	ff 76 fc	 push	 DWORD PTR [esi-4]
  0003b	8d 5e fc	 lea	 ebx, DWORD PTR [esi-4]
  0003e	6a 38		 push	 56			; 00000038H
  00040	56		 push	 esi
  00041	e8 00 00 00 00	 call	 ??_M@YGXPAXIIP6EX0@Z@Z
  00046	85 ff		 test	 edi, edi
  00048	74 1c		 je	 SHORT $LN3@vector
  0004a	8b 0b		 mov	 ecx, DWORD PTR [ebx]
  0004c	8d 14 cd 00 00
	00 00		 lea	 edx, DWORD PTR [ecx*8]
  00053	2b d1		 sub	 edx, ecx
  00055	8d 0c d5 04 00
	00 00		 lea	 ecx, DWORD PTR [edx*8+4]
  0005c	51		 push	 ecx
  0005d	53		 push	 ebx
  0005e	e8 00 00 00 00	 call	 ??_V@YAXPAXI@Z		; operator delete[]
  00063	83 c4 08	 add	 esp, 8
$LN3@vector:
  00066	8b c3		 mov	 eax, ebx
  00068	8b 4d f4	 mov	 ecx, DWORD PTR __$EHRec$[ebp]
  0006b	64 89 0d 00 00
	00 00		 mov	 DWORD PTR fs:0, ecx
  00072	59		 pop	 ecx
  00073	5f		 pop	 edi
  00074	5e		 pop	 esi
  00075	5b		 pop	 ebx
  00076	8b e5		 mov	 esp, ebp
  00078	5d		 pop	 ebp
  00079	c2 04 00	 ret	 4
$LN2@vector:
  0007c	e8 00 00 00 00	 call	 ??1i3ClassMeta@@UAE@XZ	; i3ClassMeta::~i3ClassMeta
  00081	85 ff		 test	 edi, edi
  00083	74 0b		 je	 SHORT $LN4@vector
  00085	6a 38		 push	 56			; 00000038H
  00087	56		 push	 esi
  00088	e8 00 00 00 00	 call	 ??3@YAXPAXI@Z		; operator delete
  0008d	83 c4 08	 add	 esp, 8
$LN4@vector:
  00090	8b c6		 mov	 eax, esi
  00092	8b 4d f4	 mov	 ecx, DWORD PTR __$EHRec$[ebp]
  00095	64 89 0d 00 00
	00 00		 mov	 DWORD PTR fs:0, ecx
  0009c	59		 pop	 ecx
  0009d	5f		 pop	 edi
  0009e	5e		 pop	 esi
  0009f	5b		 pop	 ebx
  000a0	8b e5		 mov	 esp, ebp
  000a2	5d		 pop	 ebp
  000a3	c2 04 00	 ret	 4
  000a6	cc		 int	 3
  000a7	cc		 int	 3
  000a8	cc		 int	 3
  000a9	cc		 int	 3
  000aa	cc		 int	 3
_TEXT	ENDS
;	COMDAT text$x
text$x	SEGMENT
__ehhandler$??_Ei3ClassMeta@@UAEPAXI@Z:
  00000	90		 npad	 1
  00001	90		 npad	 1
  00002	8b 54 24 08	 mov	 edx, DWORD PTR [esp+8]
  00006	8d 42 0c	 lea	 eax, DWORD PTR [edx+12]
  00009	8b 4a f0	 mov	 ecx, DWORD PTR [edx-16]
  0000c	33 c8		 xor	 ecx, eax
  0000e	e8 00 00 00 00	 call	 @__security_check_cookie@4
  00013	b8 00 00 00 00	 mov	 eax, OFFSET __ehfuncinfo$??_Ei3ClassMeta@@UAEPAXI@Z
  00018	e9 00 00 00 00	 jmp	 ___CxxFrameHandler3
text$x	ENDS
??_Ei3ClassMeta@@UAEPAXI@Z ENDP				; i3ClassMeta::`vector deleting destructor'
; Function compile flags: /Ogtp
;	COMDAT ??_Gi3ClassMeta@@UAEPAXI@Z
_TEXT	SEGMENT
___flags$ = 8						; size = 4
??_Gi3ClassMeta@@UAEPAXI@Z PROC				; i3ClassMeta::`scalar deleting destructor', COMDAT
; _this$ = ecx
  00000	55		 push	 ebp
  00001	8b ec		 mov	 ebp, esp
  00003	56		 push	 esi
  00004	8b f1		 mov	 esi, ecx
  00006	e8 00 00 00 00	 call	 ??1i3ClassMeta@@UAE@XZ	; i3ClassMeta::~i3ClassMeta
  0000b	f6 45 08 01	 test	 BYTE PTR ___flags$[ebp], 1
  0000f	74 0b		 je	 SHORT $LN5@scalar
  00011	6a 38		 push	 56			; 00000038H
  00013	56		 push	 esi
  00014	e8 00 00 00 00	 call	 ??3@YAXPAXI@Z		; operator delete
  00019	83 c4 08	 add	 esp, 8
$LN5@scalar:
  0001c	8b c6		 mov	 eax, esi
  0001e	5e		 pop	 esi
  0001f	5d		 pop	 ebp
  00020	c2 04 00	 ret	 4
??_Gi3ClassMeta@@UAEPAXI@Z ENDP				; i3ClassMeta::`scalar deleting destructor'
_TEXT	ENDS
; Function compile flags: /Ogtp
;	COMDAT ??4i3ClassMeta@@QAEAAV0@ABV0@@Z
_TEXT	SEGMENT
___that$ = 8						; size = 4
??4i3ClassMeta@@QAEAAV0@ABV0@@Z PROC			; i3ClassMeta::operator=, COMDAT
; _this$ = ecx
  00000	55		 push	 ebp
  00001	8b ec		 mov	 ebp, esp
  00003	8b 55 08	 mov	 edx, DWORD PTR ___that$[ebp]
  00006	8b 42 04	 mov	 eax, DWORD PTR [edx+4]
  00009	89 41 04	 mov	 DWORD PTR [ecx+4], eax
  0000c	8b 42 08	 mov	 eax, DWORD PTR [edx+8]
  0000f	89 41 08	 mov	 DWORD PTR [ecx+8], eax
  00012	8b 42 0c	 mov	 eax, DWORD PTR [edx+12]
  00015	89 41 0c	 mov	 DWORD PTR [ecx+12], eax
  00018	8b 42 10	 mov	 eax, DWORD PTR [edx+16]
  0001b	89 41 10	 mov	 DWORD PTR [ecx+16], eax
  0001e	8b 42 14	 mov	 eax, DWORD PTR [edx+20]
  00021	89 41 14	 mov	 DWORD PTR [ecx+20], eax
  00024	8b 42 18	 mov	 eax, DWORD PTR [edx+24]
  00027	89 41 18	 mov	 DWORD PTR [ecx+24], eax
  0002a	8b 42 1c	 mov	 eax, DWORD PTR [edx+28]
  0002d	89 41 1c	 mov	 DWORD PTR [ecx+28], eax
  00030	8b 42 20	 mov	 eax, DWORD PTR [edx+32]
  00033	89 41 20	 mov	 DWORD PTR [ecx+32], eax
  00036	8b 42 24	 mov	 eax, DWORD PTR [edx+36]
  00039	89 41 24	 mov	 DWORD PTR [ecx+36], eax
  0003c	8b 42 28	 mov	 eax, DWORD PTR [edx+40]
  0003f	89 41 28	 mov	 DWORD PTR [ecx+40], eax
  00042	8b 42 2c	 mov	 eax, DWORD PTR [edx+44]
  00045	89 41 2c	 mov	 DWORD PTR [ecx+44], eax
  00048	8b 42 30	 mov	 eax, DWORD PTR [edx+48]
  0004b	89 41 30	 mov	 DWORD PTR [ecx+48], eax
  0004e	8b 42 34	 mov	 eax, DWORD PTR [edx+52]
  00051	89 41 34	 mov	 DWORD PTR [ecx+52], eax
  00054	8b c1		 mov	 eax, ecx
  00056	5d		 pop	 ebp
  00057	c2 04 00	 ret	 4
??4i3ClassMeta@@QAEAAV0@ABV0@@Z ENDP			; i3ClassMeta::operator=
_TEXT	ENDS
; Function compile flags: /Ogtp
;	COMDAT ??0i3ClassMeta@@QAE@ABV0@@Z
_TEXT	SEGMENT
___that$ = 8						; size = 4
??0i3ClassMeta@@QAE@ABV0@@Z PROC			; i3ClassMeta::i3ClassMeta, COMDAT
; _this$ = ecx
  00000	55		 push	 ebp
  00001	8b ec		 mov	 ebp, esp
  00003	8b 55 08	 mov	 edx, DWORD PTR ___that$[ebp]
  00006	c7 01 00 00 00
	00		 mov	 DWORD PTR [ecx], OFFSET ??_7i3ClassMeta@@6B@
  0000c	8b 42 04	 mov	 eax, DWORD PTR [edx+4]
  0000f	89 41 04	 mov	 DWORD PTR [ecx+4], eax
  00012	8b 42 08	 mov	 eax, DWORD PTR [edx+8]
  00015	89 41 08	 mov	 DWORD PTR [ecx+8], eax
  00018	8b 42 0c	 mov	 eax, DWORD PTR [edx+12]
  0001b	89 41 0c	 mov	 DWORD PTR [ecx+12], eax
  0001e	8b 42 10	 mov	 eax, DWORD PTR [edx+16]
  00021	89 41 10	 mov	 DWORD PTR [ecx+16], eax
  00024	8b 42 14	 mov	 eax, DWORD PTR [edx+20]
  00027	89 41 14	 mov	 DWORD PTR [ecx+20], eax
  0002a	8b 42 18	 mov	 eax, DWORD PTR [edx+24]
  0002d	89 41 18	 mov	 DWORD PTR [ecx+24], eax
  00030	8b 42 1c	 mov	 eax, DWORD PTR [edx+28]
  00033	89 41 1c	 mov	 DWORD PTR [ecx+28], eax
  00036	8b 42 20	 mov	 eax, DWORD PTR [edx+32]
  00039	89 41 20	 mov	 DWORD PTR [ecx+32], eax
  0003c	8b 42 24	 mov	 eax, DWORD PTR [edx+36]
  0003f	89 41 24	 mov	 DWORD PTR [ecx+36], eax
  00042	8b 42 28	 mov	 eax, DWORD PTR [edx+40]
  00045	89 41 28	 mov	 DWORD PTR [ecx+40], eax
  00048	8b 42 2c	 mov	 eax, DWORD PTR [edx+44]
  0004b	89 41 2c	 mov	 DWORD PTR [ecx+44], eax
  0004e	8b 42 30	 mov	 eax, DWORD PTR [edx+48]
  00051	89 41 30	 mov	 DWORD PTR [ecx+48], eax
  00054	8b 42 34	 mov	 eax, DWORD PTR [edx+52]
  00057	89 41 34	 mov	 DWORD PTR [ecx+52], eax
  0005a	8b c1		 mov	 eax, ecx
  0005c	5d		 pop	 ebp
  0005d	c2 04 00	 ret	 4
??0i3ClassMeta@@QAE@ABV0@@Z ENDP			; i3ClassMeta::i3ClassMeta
_TEXT	ENDS
; Function compile flags: /Ogtp
; File E:\Proyectos\JuegosOnlineproyectos\PB\pbblow\Piercing Blow Remake\i3Server\include\i3Base\i3ClassMeta.h
;	COMDAT ?getHashCode@i3ClassMeta@@QAEIXZ
_TEXT	SEGMENT
?getHashCode@i3ClassMeta@@QAEIXZ PROC			; i3ClassMeta::getHashCode, COMDAT
; _this$ = ecx

; 112  : 	UINT32			getHashCode(void)						{ return m_HashCode; }

  00000	8b 41 18	 mov	 eax, DWORD PTR [ecx+24]
  00003	c3		 ret	 0
?getHashCode@i3ClassMeta@@QAEIXZ ENDP			; i3ClassMeta::getHashCode
_TEXT	ENDS
; Function compile flags: /Ogtp
; File E:\Proyectos\JuegosOnlineproyectos\PB\pbblow\Piercing Blow Remake\i3Server\include\i3Base\i3ClassMeta.h
;	COMDAT ?GetBaseClassMeta@i3ClassMeta@@QAEPAV1@XZ
_TEXT	SEGMENT
?GetBaseClassMeta@i3ClassMeta@@QAEPAV1@XZ PROC		; i3ClassMeta::GetBaseClassMeta, COMDAT
; _this$ = ecx

; 107  : 	i3ClassMeta *	GetBaseClassMeta(void)					{ return m_pBaseClass; }

  00000	8b 41 1c	 mov	 eax, DWORD PTR [ecx+28]
  00003	c3		 ret	 0
?GetBaseClassMeta@i3ClassMeta@@QAEPAV1@XZ ENDP		; i3ClassMeta::GetBaseClassMeta
_TEXT	ENDS
; Function compile flags: /Ogtp
; File E:\Proyectos\JuegosOnlineproyectos\PB\pbblow\Piercing Blow Remake\i3Server\include\i3Base\i3ClassMeta.h
;	COMDAT ?IsConcreteClass@i3ClassMeta@@QAEHXZ
_TEXT	SEGMENT
?IsConcreteClass@i3ClassMeta@@QAEHXZ PROC		; i3ClassMeta::IsConcreteClass, COMDAT
; _this$ = ecx

; 102  : 	BOOL			IsStyle( UINT32 style)					{ return (m_Style & style) == style; }

  00000	8b 41 14	 mov	 eax, DWORD PTR [ecx+20]
  00003	d1 e8		 shr	 eax, 1
  00005	83 e0 01	 and	 eax, 1

; 105  : 	BOOL			IsConcreteClass(void)					{ return IsStyle( I3_CLASSMETA_STYLE_CONCRETE); }

  00008	c3		 ret	 0
?IsConcreteClass@i3ClassMeta@@QAEHXZ ENDP		; i3ClassMeta::IsConcreteClass
_TEXT	ENDS
; Function compile flags: /Ogtp
; File E:\Proyectos\JuegosOnlineproyectos\PB\pbblow\Piercing Blow Remake\i3Server\include\i3Base\i3ClassMeta.h
;	COMDAT ?IsAbstractClass@i3ClassMeta@@QAEHXZ
_TEXT	SEGMENT
?IsAbstractClass@i3ClassMeta@@QAEHXZ PROC		; i3ClassMeta::IsAbstractClass, COMDAT
; _this$ = ecx

; 102  : 	BOOL			IsStyle( UINT32 style)					{ return (m_Style & style) == style; }

  00000	8b 41 14	 mov	 eax, DWORD PTR [ecx+20]
  00003	83 e0 01	 and	 eax, 1

; 104  : 	BOOL			IsAbstractClass(void)					{ return IsStyle( I3_CLASSMETA_STYLE_ABSTRACT); }

  00006	c3		 ret	 0
?IsAbstractClass@i3ClassMeta@@QAEHXZ ENDP		; i3ClassMeta::IsAbstractClass
_TEXT	ENDS
; Function compile flags: /Ogtp
; File E:\Proyectos\JuegosOnlineproyectos\PB\pbblow\Piercing Blow Remake\i3Server\include\i3Base\i3ClassMeta.h
;	COMDAT ?IsStyle@i3ClassMeta@@QAEHI@Z
_TEXT	SEGMENT
_style$ = 8						; size = 4
?IsStyle@i3ClassMeta@@QAEHI@Z PROC			; i3ClassMeta::IsStyle, COMDAT
; _this$ = ecx

; 102  : 	BOOL			IsStyle( UINT32 style)					{ return (m_Style & style) == style; }

  00000	55		 push	 ebp
  00001	8b ec		 mov	 ebp, esp
  00003	8b 51 14	 mov	 edx, DWORD PTR [ecx+20]
  00006	33 c0		 xor	 eax, eax
  00008	23 55 08	 and	 edx, DWORD PTR _style$[ebp]
  0000b	3b 55 08	 cmp	 edx, DWORD PTR _style$[ebp]
  0000e	0f 94 c0	 sete	 al
  00011	5d		 pop	 ebp
  00012	c2 04 00	 ret	 4
?IsStyle@i3ClassMeta@@QAEHI@Z ENDP			; i3ClassMeta::IsStyle
_TEXT	ENDS
; Function compile flags: /Ogtp
; File E:\Proyectos\JuegosOnlineproyectos\PB\pbblow\Piercing Blow Remake\i3Server\include\i3Base\i3ClassMeta.h
;	COMDAT ?RemoveStyle@i3ClassMeta@@QAEXI@Z
_TEXT	SEGMENT
_style$ = 8						; size = 4
?RemoveStyle@i3ClassMeta@@QAEXI@Z PROC			; i3ClassMeta::RemoveStyle, COMDAT
; _this$ = ecx

; 101  : 	void			RemoveStyle( UINT32 style)				{ m_Style &= ~style; }

  00000	55		 push	 ebp
  00001	8b ec		 mov	 ebp, esp
  00003	8b 45 08	 mov	 eax, DWORD PTR _style$[ebp]
  00006	f7 d0		 not	 eax
  00008	21 41 14	 and	 DWORD PTR [ecx+20], eax
  0000b	5d		 pop	 ebp
  0000c	c2 04 00	 ret	 4
?RemoveStyle@i3ClassMeta@@QAEXI@Z ENDP			; i3ClassMeta::RemoveStyle
_TEXT	ENDS
; Function compile flags: /Ogtp
; File E:\Proyectos\JuegosOnlineproyectos\PB\pbblow\Piercing Blow Remake\i3Server\include\i3Base\i3ClassMeta.h
;	COMDAT ?AddStyle@i3ClassMeta@@QAEXI@Z
_TEXT	SEGMENT
_style$ = 8						; size = 4
?AddStyle@i3ClassMeta@@QAEXI@Z PROC			; i3ClassMeta::AddStyle, COMDAT
; _this$ = ecx

; 100  : 	void			AddStyle( UINT32 style)					{ m_Style |= style; }

  00000	55		 push	 ebp
  00001	8b ec		 mov	 ebp, esp
  00003	8b 45 08	 mov	 eax, DWORD PTR _style$[ebp]
  00006	09 41 14	 or	 DWORD PTR [ecx+20], eax
  00009	5d		 pop	 ebp
  0000a	c2 04 00	 ret	 4
?AddStyle@i3ClassMeta@@QAEXI@Z ENDP			; i3ClassMeta::AddStyle
_TEXT	ENDS
; Function compile flags: /Ogtp
; File E:\Proyectos\JuegosOnlineproyectos\PB\pbblow\Piercing Blow Remake\i3Server\include\i3Base\i3ClassMeta.h
;	COMDAT ?GetStyle@i3ClassMeta@@QAEIXZ
_TEXT	SEGMENT
?GetStyle@i3ClassMeta@@QAEIXZ PROC			; i3ClassMeta::GetStyle, COMDAT
; _this$ = ecx

; 99   : 	UINT32			GetStyle(void)							{ return m_Style; }

  00000	8b 41 14	 mov	 eax, DWORD PTR [ecx+20]
  00003	c3		 ret	 0
?GetStyle@i3ClassMeta@@QAEIXZ ENDP			; i3ClassMeta::GetStyle
_TEXT	ENDS
; Function compile flags: /Ogtp
; File E:\Proyectos\JuegosOnlineproyectos\PB\pbblow\Piercing Blow Remake\i3Server\include\i3Base\i3ClassMeta.h
;	COMDAT ?SetStyle@i3ClassMeta@@QAEXI@Z
_TEXT	SEGMENT
_style$ = 8						; size = 4
?SetStyle@i3ClassMeta@@QAEXI@Z PROC			; i3ClassMeta::SetStyle, COMDAT
; _this$ = ecx

; 98   : 	void			SetStyle( UINT32 style)					{ m_Style = style; }

  00000	55		 push	 ebp
  00001	8b ec		 mov	 ebp, esp
  00003	8b 45 08	 mov	 eax, DWORD PTR _style$[ebp]
  00006	89 41 14	 mov	 DWORD PTR [ecx+20], eax
  00009	5d		 pop	 ebp
  0000a	c2 04 00	 ret	 4
?SetStyle@i3ClassMeta@@QAEXI@Z ENDP			; i3ClassMeta::SetStyle
_TEXT	ENDS
; Function compile flags: /Ogtp
; File E:\Proyectos\JuegosOnlineproyectos\PB\pbblow\Piercing Blow Remake\i3Server\include\i3Base\i3ClassMeta.h
;	COMDAT ?IsExactTypeOf@i3ClassMeta@@QAE_NPAV1@@Z
_TEXT	SEGMENT
_pMeta$ = 8						; size = 4
?IsExactTypeOf@i3ClassMeta@@QAE_NPAV1@@Z PROC		; i3ClassMeta::IsExactTypeOf, COMDAT
; _this$ = ecx

; 89   : 	{

  00000	55		 push	 ebp
  00001	8b ec		 mov	 ebp, esp

; 90   : 		return pMeta == this;

  00003	39 4d 08	 cmp	 DWORD PTR _pMeta$[ebp], ecx
  00006	0f 94 c0	 sete	 al

; 91   : 	}

  00009	5d		 pop	 ebp
  0000a	c2 04 00	 ret	 4
?IsExactTypeOf@i3ClassMeta@@QAE_NPAV1@@Z ENDP		; i3ClassMeta::IsExactTypeOf
_TEXT	ENDS
; Function compile flags: /Ogtp
; File E:\Proyectos\JuegosOnlineproyectos\PB\pbblow\Piercing Blow Remake\i3Server\include\i3Base\i3ClassMeta.h
;	COMDAT ?GetClassNameA@i3ClassMeta@@QAEPADXZ
_TEXT	SEGMENT
?GetClassNameA@i3ClassMeta@@QAEPADXZ PROC		; i3ClassMeta::GetClassNameA, COMDAT
; _this$ = ecx

; 83   : 		return m_pszClassName;

  00000	8b 41 0c	 mov	 eax, DWORD PTR [ecx+12]

; 84   : 	}

  00003	c3		 ret	 0
?GetClassNameA@i3ClassMeta@@QAEPADXZ ENDP		; i3ClassMeta::GetClassNameA
_TEXT	ENDS
; Function compile flags: /Ogtp
; File E:\Proyectos\JuegosOnlineproyectos\PB\pbblow\Piercing Blow Remake\i3Server\include\i3Base\i3ClassMeta.h
;	COMDAT ?GetClassSize@i3ClassMeta@@QAEIXZ
_TEXT	SEGMENT
?GetClassSize@i3ClassMeta@@QAEIXZ PROC			; i3ClassMeta::GetClassSize, COMDAT
; _this$ = ecx

; 78   : 		return m_ClassSize;

  00000	8b 41 08	 mov	 eax, DWORD PTR [ecx+8]

; 79   : 	}

  00003	c3		 ret	 0
?GetClassSize@i3ClassMeta@@QAEIXZ ENDP			; i3ClassMeta::GetClassSize
_TEXT	ENDS
; Function compile flags: /Ogtp
; File E:\Proyectos\JuegosOnlineproyectos\PB\pbblow\Piercing Blow Remake\i3Server\include\i3Base\i3ClassMeta.h
;	COMDAT ?SetMemoryPool@i3ClassMeta@@QAEXPAVi3MemoryPool@@@Z
_TEXT	SEGMENT
_pPool$ = 8						; size = 4
?SetMemoryPool@i3ClassMeta@@QAEXPAVi3MemoryPool@@@Z PROC ; i3ClassMeta::SetMemoryPool, COMDAT
; _this$ = ecx

; 66   : 	void			SetMemoryPool( i3MemoryPool * pPool)		{ m_pPool = pPool; }

  00000	55		 push	 ebp
  00001	8b ec		 mov	 ebp, esp
  00003	8b 45 08	 mov	 eax, DWORD PTR _pPool$[ebp]
  00006	89 41 34	 mov	 DWORD PTR [ecx+52], eax
  00009	5d		 pop	 ebp
  0000a	c2 04 00	 ret	 4
?SetMemoryPool@i3ClassMeta@@QAEXPAVi3MemoryPool@@@Z ENDP ; i3ClassMeta::SetMemoryPool
_TEXT	ENDS
; Function compile flags: /Ogtp
; File E:\Proyectos\JuegosOnlineproyectos\PB\pbblow\Piercing Blow Remake\i3Server\include\i3Base\i3ClassMeta.h
;	COMDAT ?GetMemoryPool@i3ClassMeta@@QAEPAVi3MemoryPool@@XZ
_TEXT	SEGMENT
?GetMemoryPool@i3ClassMeta@@QAEPAVi3MemoryPool@@XZ PROC	; i3ClassMeta::GetMemoryPool, COMDAT
; _this$ = ecx

; 65   : 	i3MemoryPool *	GetMemoryPool(void)							{ return m_pPool; }

  00000	8b 41 34	 mov	 eax, DWORD PTR [ecx+52]
  00003	c3		 ret	 0
?GetMemoryPool@i3ClassMeta@@QAEPAVi3MemoryPool@@XZ ENDP	; i3ClassMeta::GetMemoryPool
_TEXT	ENDS
; Function compile flags: /Ogtp
; File E:\Proyectos\JuegosOnlineproyectos\PB\pbblow\Piercing Blow Remake\i3Server\src\i3Base\i3System.cpp
;	COMDAT ?SetFPUPrecision@i3System@@YAIW4I3_FPU_PRECISION@@@Z
_TEXT	SEGMENT
_prec$ = 8						; size = 4
?SetFPUPrecision@i3System@@YAIW4I3_FPU_PRECISION@@@Z PROC ; i3System::SetFPUPrecision, COMDAT

; 68   : {

  00000	55		 push	 ebp
  00001	8b ec		 mov	 ebp, esp
  00003	56		 push	 esi

; 69   : 	UINT32 curprec = _controlfp(0,0);

  00004	6a 00		 push	 0
  00006	6a 00		 push	 0
  00008	e8 00 00 00 00	 call	 __controlfp
  0000d	8b f0		 mov	 esi, eax
  0000f	83 c4 08	 add	 esp, 8

; 70   : 
; 71   : 	UINT32 n = (_MCW_PC & curprec);
; 72   : 	if( n != (UINT32)prec)

  00012	8b 45 08	 mov	 eax, DWORD PTR _prec$[ebp]
  00015	8b ce		 mov	 ecx, esi
  00017	81 e1 00 00 03
	00		 and	 ecx, 196608		; 00030000H
  0001d	3b c8		 cmp	 ecx, eax
  0001f	74 0e		 je	 SHORT $LN4@SetFPUPrec

; 73   : 	{
; 74   : 		_controlfp( prec, _MCW_PC);

  00021	68 00 00 03 00	 push	 196608			; 00030000H
  00026	50		 push	 eax
  00027	e8 00 00 00 00	 call	 __controlfp
  0002c	83 c4 08	 add	 esp, 8
$LN4@SetFPUPrec:

; 75   : 	}
; 76   : 
; 77   : 	return curprec;
; 78   : }

  0002f	8b c6		 mov	 eax, esi
  00031	5e		 pop	 esi
  00032	5d		 pop	 ebp
  00033	c3		 ret	 0
?SetFPUPrecision@i3System@@YAIW4I3_FPU_PRECISION@@@Z ENDP ; i3System::SetFPUPrecision
_TEXT	ENDS
; Function compile flags: /Ogtp
; File E:\Proyectos\JuegosOnlineproyectos\PB\pbblow\Piercing Blow Remake\i3Server\src\i3Base\i3System.cpp
;	COMDAT ?CheckCPUName@i3System@@YAHPAD@Z
_TEXT	SEGMENT
_Info$ = -76						; size = 72
__$ArrayPad$ = -4					; size = 4
_strCPUName$ = 8					; size = 4
?CheckCPUName@i3System@@YAHPAD@Z PROC			; i3System::CheckCPUName, COMDAT

; 1176 : {

  00000	55		 push	 ebp
  00001	8b ec		 mov	 ebp, esp
  00003	83 ec 4c	 sub	 esp, 76			; 0000004cH
  00006	a1 00 00 00 00	 mov	 eax, DWORD PTR ___security_cookie
  0000b	33 c5		 xor	 eax, ebp
  0000d	89 45 fc	 mov	 DWORD PTR __$ArrayPad$[ebp], eax
  00010	56		 push	 esi
  00011	8b 75 08	 mov	 esi, DWORD PTR _strCPUName$[ebp]

; 1177 : #if defined( I3_WINDOWS )
; 1178 : 	INT32 feature;
; 1179 : 	i3ProcessorInfo Info;
; 1180 : 
; 1181 : 	feature = i3CPUid( &Info );

  00014	8d 45 b4	 lea	 eax, DWORD PTR _Info$[ebp]
  00017	50		 push	 eax
  00018	e8 00 00 00 00	 call	 ?i3CPUid@@YAHPAU_tagi3ProcessorInfo@@@Z ; i3CPUid

; 1182 : 	memcpy( strCPUName, Info.model_name, sizeof( I3_CPU_MAX_MNAME_LEN ) );

  0001d	8b 4d c1	 mov	 ecx, DWORD PTR _Info$[ebp+13]
  00020	83 c4 04	 add	 esp, 4
  00023	89 0e		 mov	 DWORD PTR [esi], ecx

; 1183 : 
; 1184 : 	return feature;
; 1185 : #else
; 1186 : 	printf( strCPUName, "Not support CPU feature.\n" );
; 1187 : 	return 0;
; 1188 : #endif
; 1189 : }

  00025	8b 4d fc	 mov	 ecx, DWORD PTR __$ArrayPad$[ebp]
  00028	33 cd		 xor	 ecx, ebp
  0002a	5e		 pop	 esi
  0002b	e8 00 00 00 00	 call	 @__security_check_cookie@4
  00030	8b e5		 mov	 esp, ebp
  00032	5d		 pop	 ebp
  00033	c3		 ret	 0
?CheckCPUName@i3System@@YAHPAD@Z ENDP			; i3System::CheckCPUName
_TEXT	ENDS
; Function compile flags: /Ogtp
; File E:\Proyectos\JuegosOnlineproyectos\PB\pbblow\Piercing Blow Remake\i3Server\src\i3Base\i3System.cpp
;	COMDAT ?RenameFile@i3System@@YAHPBD0@Z
_TEXT	SEGMENT
_szOldFileName$ = 8					; size = 4
_szNewFileName$ = 12					; size = 4
?RenameFile@i3System@@YAHPBD0@Z PROC			; i3System::RenameFile, COMDAT

; 1073 : {

  00000	55		 push	 ebp
  00001	8b ec		 mov	 ebp, esp

; 1074 : #if defined( I3_WINDOWS ) || defined( I3_XBOX )
; 1075 : 
; 1076 : 	return ::MoveFile( szOldFileName, szNewFileName );

  00003	ff 75 0c	 push	 DWORD PTR _szNewFileName$[ebp]
  00006	ff 75 08	 push	 DWORD PTR _szOldFileName$[ebp]
  00009	ff 15 00 00 00
	00		 call	 DWORD PTR __imp__MoveFileA@8

; 1077 : 
; 1078 : #elif defined( I3_PSP )
; 1079 : 
; 1080 : 	char szTemp1[MAX_PATH];
; 1081 : 	char szTemp2[MAX_PATH];
; 1082 : 	sprintf( szTemp1, "%s%s", i3FileStream::GetPrefix(), szOldFileName );
; 1083 : 	sprintf( szTemp2, "%s%s", i3FileStream::GetPrefix(), szNewFileName );
; 1084 : 	int rv = sceIoRename( szTemp1, szTemp2 );
; 1085 : 	return (rv == 0);
; 1086 : 
; 1087 : #else
; 1088 : 
; 1089 : return FALSE;
; 1090 : 
; 1091 : #endif
; 1092 : }

  0000f	5d		 pop	 ebp
  00010	c3		 ret	 0
?RenameFile@i3System@@YAHPBD0@Z ENDP			; i3System::RenameFile
_TEXT	ENDS
; Function compile flags: /Ogtp
; File E:\Proyectos\JuegosOnlineproyectos\PB\pbblow\Piercing Blow Remake\i3Server\src\i3Base\i3System.cpp
;	COMDAT ?RemoveFile@i3System@@YAHPBD@Z
_TEXT	SEGMENT
_szFileName$ = 8					; size = 4
?RemoveFile@i3System@@YAHPBD@Z PROC			; i3System::RemoveFile, COMDAT

; 1051 : {

  00000	55		 push	 ebp
  00001	8b ec		 mov	 ebp, esp

; 1052 : #if defined( I3_WINDOWS ) || defined( I3_XBOX )
; 1053 : 
; 1054 : 	return ::DeleteFile( szFileName );

  00003	ff 75 08	 push	 DWORD PTR _szFileName$[ebp]
  00006	ff 15 00 00 00
	00		 call	 DWORD PTR __imp__DeleteFileA@4

; 1055 : 
; 1056 : #elif defined( I3_PSP )
; 1057 : 
; 1058 : 	char szTemp[MAX_PATH];
; 1059 : 	sprintf( szTemp, "%s%s", i3FileStream::GetPrefix(), szFileName );
; 1060 : 	int rv = sceIoRemove( szTemp );
; 1061 : 	return (rv == 0);
; 1062 : 
; 1063 : #else
; 1064 : 
; 1065 : 	return FALSE;
; 1066 : 
; 1067 : #endif
; 1068 : }

  0000c	5d		 pop	 ebp
  0000d	c3		 ret	 0
?RemoveFile@i3System@@YAHPBD@Z ENDP			; i3System::RemoveFile
_TEXT	ENDS
; Function compile flags: /Ogtp
; File E:\Proyectos\JuegosOnlineproyectos\PB\pbblow\Piercing Blow Remake\i3Server\src\i3Base\i3System.cpp
;	COMDAT ?isAbsolutePath@i3System@@YA_NPBD@Z
_TEXT	SEGMENT
_pszPath$ = 8						; size = 4
?isAbsolutePath@i3System@@YA_NPBD@Z PROC		; i3System::isAbsolutePath, COMDAT

; 1199 : {

  00000	55		 push	 ebp
  00001	8b ec		 mov	 ebp, esp

; 1200 : #if defined( I3_WINDOWS)
; 1201 : 	if( pszPath[1] == ':')
; 1202 : 		return true;
; 1203 : #else
; 1204 : 	if( pszPath[0] == '/')
; 1205 : 		return true;
; 1206 : #endif
; 1207 : 
; 1208 : 	return false;
; 1209 : }

  00003	8b 45 08	 mov	 eax, DWORD PTR _pszPath$[ebp]
  00006	80 78 01 3a	 cmp	 BYTE PTR [eax+1], 58	; 0000003aH
  0000a	0f 94 c0	 sete	 al
  0000d	5d		 pop	 ebp
  0000e	c3		 ret	 0
?isAbsolutePath@i3System@@YA_NPBD@Z ENDP		; i3System::isAbsolutePath
_TEXT	ENDS
; Function compile flags: /Ogtp
; File E:\Proyectos\JuegosOnlineproyectos\PB\pbblow\Piercing Blow Remake\i3Server\src\i3Base\i3System.cpp
;	COMDAT ?SetCurrentPath@i3System@@YAXPBD@Z
_TEXT	SEGMENT
_pszPath$ = 8						; size = 4
?SetCurrentPath@i3System@@YAXPBD@Z PROC			; i3System::SetCurrentPath, COMDAT

; 920  : {

  00000	55		 push	 ebp
  00001	8b ec		 mov	 ebp, esp

; 921  : #if defined( I3_WINDOWS)
; 922  : 	::SetCurrentDirectory( pszPath);

  00003	ff 75 08	 push	 DWORD PTR _pszPath$[ebp]
  00006	ff 15 00 00 00
	00		 call	 DWORD PTR __imp__SetCurrentDirectoryA@4

; 923  : #else
; 924  : 	if( chdir( pszPath) == -1)
; 925  : 		I3TRACE( "Could not change current directory.\n");
; 926  : #endif
; 927  : }

  0000c	5d		 pop	 ebp
  0000d	c3		 ret	 0
?SetCurrentPath@i3System@@YAXPBD@Z ENDP			; i3System::SetCurrentPath
_TEXT	ENDS
; Function compile flags: /Ogtp
; File E:\Proyectos\JuegosOnlineproyectos\PB\pbblow\Piercing Blow Remake\i3Server\src\i3Base\i3System.cpp
;	COMDAT ?GetCurrentPath@i3System@@YAXPADH@Z
_TEXT	SEGMENT
_pszPath$ = 8						; size = 4
_pathLen$ = 12						; size = 4
?GetCurrentPath@i3System@@YAXPADH@Z PROC		; i3System::GetCurrentPath, COMDAT

; 910  : {

  00000	55		 push	 ebp
  00001	8b ec		 mov	 ebp, esp

; 911  : #if defined( I3_WINDOWS)
; 912  : 	::GetCurrentDirectory( pathLen, pszPath);

  00003	ff 75 08	 push	 DWORD PTR _pszPath$[ebp]
  00006	ff 75 0c	 push	 DWORD PTR _pathLen$[ebp]
  00009	ff 15 00 00 00
	00		 call	 DWORD PTR __imp__GetCurrentDirectoryA@8

; 913  : #else
; 914  : 	if( getcwd( pszPath, bufSize) == NULL)
; 915  : 		I3TRACE( "Could not get current directory.\n");
; 916  : #endif
; 917  : }

  0000f	5d		 pop	 ebp
  00010	c3		 ret	 0
?GetCurrentPath@i3System@@YAXPADH@Z ENDP		; i3System::GetCurrentPath
_TEXT	ENDS
; Function compile flags: /Ogtp
; File E:\Proyectos\JuegosOnlineproyectos\PB\pbblow\Piercing Blow Remake\i3Server\src\i3Base\i3System.cpp
;	COMDAT ?GetExecPath@i3System@@YAXPAD@Z
_TEXT	SEGMENT
_szTemp$ = -264						; size = 260
__$ArrayPad$ = -4					; size = 4
_pszPath$ = 8						; size = 4
?GetExecPath@i3System@@YAXPAD@Z PROC			; i3System::GetExecPath, COMDAT

; 892  : {

  00000	55		 push	 ebp
  00001	8b ec		 mov	 ebp, esp
  00003	81 ec 08 01 00
	00		 sub	 esp, 264		; 00000108H
  00009	a1 00 00 00 00	 mov	 eax, DWORD PTR ___security_cookie
  0000e	33 c5		 xor	 eax, ebp
  00010	89 45 fc	 mov	 DWORD PTR __$ArrayPad$[ebp], eax
  00013	56		 push	 esi
  00014	8b 75 08	 mov	 esi, DWORD PTR _pszPath$[ebp]

; 893  : #if defined( I3_WINDOWS)
; 894  : 	char szTemp[MAX_PATH];
; 895  : 
; 896  : 	if( GetModuleFileName( GetModuleHandle( NULL), szTemp, MAX_PATH) == 0)

  00017	8d 85 f8 fe ff
	ff		 lea	 eax, DWORD PTR _szTemp$[ebp]
  0001d	68 04 01 00 00	 push	 260			; 00000104H
  00022	50		 push	 eax
  00023	6a 00		 push	 0
  00025	ff 15 00 00 00
	00		 call	 DWORD PTR __imp__GetModuleHandleA@4
  0002b	50		 push	 eax
  0002c	ff 15 00 00 00
	00		 call	 DWORD PTR __imp__GetModuleFileNameA@12
  00032	85 c0		 test	 eax, eax
  00034	74 16		 je	 SHORT $LN1@GetExecPat

; 897  : 	{
; 898  : 		I3TRACE( "Could not obtain the module file name\n");
; 899  : 		return;
; 900  : 	}
; 901  : 
; 902  : 	i3String::SplitPath( (const char *) szTemp, pszPath);

  00036	8d 85 f8 fe ff
	ff		 lea	 eax, DWORD PTR _szTemp$[ebp]
  0003c	56		 push	 esi
  0003d	50		 push	 eax
  0003e	e8 00 00 00 00	 call	 ?SplitPath@i3String@@YAXPBDPAD@Z ; i3String::SplitPath

; 903  : 
; 904  : 	i3String::NormalizePath( pszPath);

  00043	56		 push	 esi
  00044	e8 00 00 00 00	 call	 ?NormalizePath@i3String@@YAXPAD@Z ; i3String::NormalizePath
  00049	83 c4 0c	 add	 esp, 12			; 0000000cH
$LN1@GetExecPat:

; 905  : #endif
; 906  : }

  0004c	8b 4d fc	 mov	 ecx, DWORD PTR __$ArrayPad$[ebp]
  0004f	33 cd		 xor	 ecx, ebp
  00051	5e		 pop	 esi
  00052	e8 00 00 00 00	 call	 @__security_check_cookie@4
  00057	8b e5		 mov	 esp, ebp
  00059	5d		 pop	 ebp
  0005a	c3		 ret	 0
?GetExecPath@i3System@@YAXPAD@Z ENDP			; i3System::GetExecPath
_TEXT	ENDS
; Function compile flags: /Ogtp
; File E:\Proyectos\JuegosOnlineproyectos\PB\pbblow\Piercing Blow Remake\i3Server\src\i3Base\i3System.cpp
;	COMDAT ?ResolvePath@i3System@@YAXPBDPADH@Z
_TEXT	SEGMENT
_szMacro$ = -68						; size = 64
__$ArrayPad$ = -4					; size = 4
_pszSrc$ = 8						; size = 4
_pszDest$ = 12						; size = 4
_len$ = 16						; size = 4
?ResolvePath@i3System@@YAXPBDPADH@Z PROC		; i3System::ResolvePath, COMDAT

; 1113 : {

  00000	55		 push	 ebp
  00001	8b ec		 mov	 ebp, esp
  00003	83 ec 44	 sub	 esp, 68			; 00000044H
  00006	a1 00 00 00 00	 mov	 eax, DWORD PTR ___security_cookie
  0000b	33 c5		 xor	 eax, ebp
  0000d	89 45 fc	 mov	 DWORD PTR __$ArrayPad$[ebp], eax
  00010	53		 push	 ebx
  00011	8b 5d 0c	 mov	 ebx, DWORD PTR _pszDest$[ebp]

; 1114 : 	INT32 nMacro = 0, idx = 0, mlen;

  00014	33 c9		 xor	 ecx, ecx
  00016	56		 push	 esi
  00017	57		 push	 edi

; 1115 : 	INT32 midx = 0;
; 1116 : 	char szMacro[64];
; 1117 : 
; 1118 : 	while((*pszSrc) && (idx < len))

  00018	8b 7d 08	 mov	 edi, DWORD PTR _pszSrc$[ebp]
  0001b	33 f6		 xor	 esi, esi
  0001d	33 d2		 xor	 edx, edx
  0001f	38 0f		 cmp	 BYTE PTR [edi], cl
  00021	0f 84 80 00 00
	00		 je	 $LN31@ResolvePat
$LL2@ResolvePat:
  00027	3b 75 10	 cmp	 esi, DWORD PTR _len$[ebp]
  0002a	7d 7b		 jge	 SHORT $LN31@ResolvePat

; 1119 : 	{
; 1120 : 		switch( nMacro)

  0002c	8b c1		 mov	 eax, ecx
  0002e	83 e8 00	 sub	 eax, 0
  00031	74 5d		 je	 SHORT $LN12@ResolvePat
  00033	83 e8 01	 sub	 eax, 1
  00036	74 38		 je	 SHORT $LN16@ResolvePat
  00038	83 e8 01	 sub	 eax, 1
  0003b	75 64		 jne	 SHORT $LN15@ResolvePat

; 1144 : 
; 1145 : 			case 2 :
; 1146 : 				switch( *pszSrc)

  0003d	8a 07		 mov	 al, BYTE PTR [edi]
  0003f	3c 29		 cmp	 al, 41			; 00000029H
  00041	74 07		 je	 SHORT $LN22@ResolvePat

; 1160 : 
; 1161 : 					default :
; 1162 : 						szMacro[midx] = *pszSrc;

  00043	88 44 15 bc	 mov	 BYTE PTR _szMacro$[ebp+edx], al

; 1163 : 						midx++;

  00047	42		 inc	 edx
  00048	eb 57		 jmp	 SHORT $LN15@ResolvePat
$LN22@ResolvePat:

; 1147 : 				{
; 1148 : 					case ')' :
; 1149 : 						szMacro[ midx] = 0;

  0004a	83 fa 40	 cmp	 edx, 64			; 00000040H
  0004d	73 6d		 jae	 SHORT $LN25@ResolvePat

; 1150 : 
; 1151 : 						#if defined( I3_WINDOWS)
; 1152 : 						mlen = GetEnvironmentVariable( szMacro, &pszDest[idx], len - idx);

  0004f	8b 45 10	 mov	 eax, DWORD PTR _len$[ebp]
  00052	2b c6		 sub	 eax, esi
  00054	c6 44 15 bc 00	 mov	 BYTE PTR _szMacro$[ebp+edx], 0
  00059	50		 push	 eax
  0005a	8d 04 33	 lea	 eax, DWORD PTR [ebx+esi]
  0005d	50		 push	 eax
  0005e	8d 45 bc	 lea	 eax, DWORD PTR _szMacro$[ebp]
  00061	50		 push	 eax
  00062	ff 15 00 00 00
	00		 call	 DWORD PTR __imp__GetEnvironmentVariableA@12

; 1153 : 
; 1154 : 						idx += mlen;

  00068	03 f0		 add	 esi, eax

; 1155 : 						#endif
; 1156 : 
; 1157 : 						midx = 0;

  0006a	33 d2		 xor	 edx, edx

; 1158 : 						nMacro = 0;

  0006c	33 c9		 xor	 ecx, ecx

; 1159 : 						break;

  0006e	eb 31		 jmp	 SHORT $LN15@ResolvePat
$LN16@ResolvePat:

; 1128 : 						break;
; 1129 : 				}
; 1130 : 				break;
; 1131 : 
; 1132 : 			case 1 :
; 1133 : 				switch( *pszSrc)

  00070	80 3f 28	 cmp	 BYTE PTR [edi], 40	; 00000028H
  00073	74 14		 je	 SHORT $LN17@ResolvePat

; 1136 : 
; 1137 : 					default :
; 1138 : 						PUT_T( '$');

  00075	c6 04 33 24	 mov	 BYTE PTR [ebx+esi], 36	; 00000024H
  00079	46		 inc	 esi

; 1139 : 						PUT_T( *pszSrc);

  0007a	3b 75 10	 cmp	 esi, DWORD PTR _len$[ebp]
  0007d	7d 06		 jge	 SHORT $LN20@ResolvePat
  0007f	8a 07		 mov	 al, BYTE PTR [edi]
  00081	88 04 33	 mov	 BYTE PTR [ebx+esi], al
  00084	46		 inc	 esi
$LN20@ResolvePat:

; 1140 : 						nMacro = 0;

  00085	33 c9		 xor	 ecx, ecx
  00087	eb 18		 jmp	 SHORT $LN15@ResolvePat
$LN17@ResolvePat:

; 1134 : 				{
; 1135 : 					case '(' :		nMacro++;		break;

  00089	b9 02 00 00 00	 mov	 ecx, 2

; 1141 : 						break;
; 1142 : 				}
; 1143 : 				break;

  0008e	eb 11		 jmp	 SHORT $LN15@ResolvePat
$LN12@ResolvePat:

; 1121 : 		{
; 1122 : 			case 0 :
; 1123 : 				switch( *pszSrc)

  00090	8a 07		 mov	 al, BYTE PTR [edi]
  00092	3c 24		 cmp	 al, 36			; 00000024H
  00094	74 06		 je	 SHORT $LN13@ResolvePat

; 1126 : 					default :
; 1127 : 						PUT_T( *pszSrc);

  00096	88 04 33	 mov	 BYTE PTR [ebx+esi], al
  00099	46		 inc	 esi
  0009a	eb 05		 jmp	 SHORT $LN15@ResolvePat
$LN13@ResolvePat:

; 1124 : 				{
; 1125 : 					case '$' :		nMacro++;		break;

  0009c	b9 01 00 00 00	 mov	 ecx, 1
$LN15@ResolvePat:

; 1164 : 						break;
; 1165 : 				}
; 1166 : 				break;
; 1167 : 		}
; 1168 : 
; 1169 : 		pszSrc++;

  000a1	47		 inc	 edi
  000a2	80 3f 00	 cmp	 BYTE PTR [edi], 0
  000a5	75 80		 jne	 SHORT $LL2@ResolvePat
$LN31@ResolvePat:

; 1170 : 	}
; 1171 : 
; 1172 : 	pszDest[idx] = 0;
; 1173 : }

  000a7	8b 4d fc	 mov	 ecx, DWORD PTR __$ArrayPad$[ebp]
  000aa	5f		 pop	 edi
  000ab	c6 04 33 00	 mov	 BYTE PTR [ebx+esi], 0
  000af	33 cd		 xor	 ecx, ebp
  000b1	5e		 pop	 esi
  000b2	5b		 pop	 ebx
  000b3	e8 00 00 00 00	 call	 @__security_check_cookie@4
  000b8	8b e5		 mov	 esp, ebp
  000ba	5d		 pop	 ebp
  000bb	c3		 ret	 0
$LN25@ResolvePat:

; 1147 : 				{
; 1148 : 					case ')' :
; 1149 : 						szMacro[ midx] = 0;

  000bc	e8 00 00 00 00	 call	 ___report_rangecheckfailure
$LN42@ResolvePat:
  000c1	cc		 int	 3
?ResolvePath@i3System@@YAXPBDPADH@Z ENDP		; i3System::ResolvePath
_TEXT	ENDS
; Function compile flags: /Ogtp
; File E:\Proyectos\JuegosOnlineproyectos\PB\pbblow\Piercing Blow Remake\i3Server\src\i3Base\i3System.cpp
;	COMDAT ?PrepareDirectory@i3System@@YAHPAG@Z
_TEXT	SEGMENT
_wstrOldPath$ = -1564					; size = 520
_wstrOldPath$1 = -1044					; size = 520
_wstrOldPath$2 = -1044					; size = 520
_wstrDir$ = -524					; size = 520
__$ArrayPad$ = -4					; size = 4
_wstrPath$ = 8						; size = 4
?PrepareDirectory@i3System@@YAHPAG@Z PROC		; i3System::PrepareDirectory, COMDAT

; 996  : {

  00000	55		 push	 ebp
  00001	8b ec		 mov	 ebp, esp
  00003	81 ec 1c 06 00
	00		 sub	 esp, 1564		; 0000061cH
  00009	a1 00 00 00 00	 mov	 eax, DWORD PTR ___security_cookie
  0000e	33 c5		 xor	 eax, ebp
  00010	89 45 fc	 mov	 DWORD PTR __$ArrayPad$[ebp], eax
  00013	53		 push	 ebx
  00014	56		 push	 esi
  00015	57		 push	 edi

; 997  : 	wchar_t	wstrOldPath[ MAX_PATH ];
; 998  : 	wchar_t	wstrDir[ MAX_PATH ];
; 999  : 	wchar_t	*pPath;
; 1000 : 	INT32	i32Idx;
; 1001 :     
; 1002 : 	GetCurrentDirectoryW( MAX_PATH, wstrOldPath );

  00016	8d 85 e4 f9 ff
	ff		 lea	 eax, DWORD PTR _wstrOldPath$[ebp]
  0001c	50		 push	 eax
  0001d	68 04 01 00 00	 push	 260			; 00000104H
  00022	ff 15 00 00 00
	00		 call	 DWORD PTR __imp__GetCurrentDirectoryW@8

; 1003 : 
; 1004 : 	pPath = wstrPath;

  00028	8b 75 08	 mov	 esi, DWORD PTR _wstrPath$[ebp]

; 1005 : 
; 1006 : 	if( *pPath == 0 )

  0002b	66 83 3e 00	 cmp	 WORD PTR [esi], 0
  0002f	0f 84 15 01 00
	00		 je	 $LN30@PrepareDir

; 1007 :         return FALSE;
; 1008 : 
; 1009 : 	memset( wstrDir, 0, sizeof(wstrDir) );

  00035	68 08 02 00 00	 push	 520			; 00000208H
  0003a	8d 85 f4 fd ff
	ff		 lea	 eax, DWORD PTR _wstrDir$[ebp]
  00040	6a 00		 push	 0
  00042	50		 push	 eax
  00043	e8 00 00 00 00	 call	 _memset

; 1010 : 	
; 1011 : 	i32Idx = 0;

  00048	8b 1d 00 00 00
	00		 mov	 ebx, DWORD PTR __imp__SetCurrentDirectoryW@4
  0004e	83 c4 0c	 add	 esp, 12			; 0000000cH
  00051	33 ff		 xor	 edi, edi
$LL2@PrepareDir:
  00053	0f b7 0e	 movzx	 ecx, WORD PTR [esi]
$LL4@PrepareDir:

; 1013 : 	{
; 1014 : 		while((*pPath) && (*pPath != '\\') && (*pPath != '/')) 

  00056	66 83 f9 5c	 cmp	 cx, 92			; 0000005cH
  0005a	74 1e		 je	 SHORT $LN5@PrepareDir
  0005c	0f b7 06	 movzx	 eax, WORD PTR [esi]
  0005f	83 f8 2f	 cmp	 eax, 47			; 0000002fH
  00062	74 16		 je	 SHORT $LN5@PrepareDir

; 1015 : 		{
; 1016 : 		    wstrDir[ i32Idx ] = *pPath;
; 1017 : 		    i32Idx++;
; 1018 : 		    pPath++;

  00064	83 c6 02	 add	 esi, 2
  00067	66 89 84 7d f4
	fd ff ff	 mov	 WORD PTR _wstrDir$[ebp+edi*2], ax
  0006f	47		 inc	 edi
  00070	0f b7 06	 movzx	 eax, WORD PTR [esi]
  00073	8b c8		 mov	 ecx, eax
  00075	66 85 c0	 test	 ax, ax
  00078	75 dc		 jne	 SHORT $LL4@PrepareDir
$LN5@PrepareDir:

; 1019 : 		}
; 1020 : 		
; 1021 : 		if( *pPath == 0 )

  0007a	0f b7 06	 movzx	 eax, WORD PTR [esi]
  0007d	66 85 c0	 test	 ax, ax
  00080	74 56		 je	 SHORT $LN3@PrepareDir

; 1022 : 		    break;
; 1023 : 		
; 1024 : 		wstrDir[ i32Idx ] = *pPath;

  00082	66 89 84 7d f4
	fd ff ff	 mov	 WORD PTR _wstrDir$[ebp+edi*2], ax

; 1026 : 		pPath++;

  0008a	83 c6 02	 add	 esi, 2

; 866  :     GetCurrentDirectoryW( MAX_PATH, wstrOldPath);

  0008d	8d 85 ec fb ff
	ff		 lea	 eax, DWORD PTR _wstrOldPath$1[ebp]

; 1025 : 		i32Idx++;

  00093	47		 inc	 edi

; 866  :     GetCurrentDirectoryW( MAX_PATH, wstrOldPath);

  00094	50		 push	 eax
  00095	68 04 01 00 00	 push	 260			; 00000104H
  0009a	ff 15 00 00 00
	00		 call	 DWORD PTR __imp__GetCurrentDirectoryW@8

; 867  : 
; 868  :     if( SetCurrentDirectoryW( wstrPath ) == TRUE)

  000a0	8d 85 f4 fd ff
	ff		 lea	 eax, DWORD PTR _wstrDir$[ebp]
  000a6	50		 push	 eax
  000a7	ff d3		 call	 ebx
  000a9	83 f8 01	 cmp	 eax, 1
  000ac	8d 85 ec fb ff
	ff		 lea	 eax, DWORD PTR _wstrOldPath$1[ebp]
  000b2	50		 push	 eax
  000b3	75 04		 jne	 SHORT $LN14@PrepareDir

; 869  :         Result = TRUE;

  000b5	ff d3		 call	 ebx
  000b7	eb 15		 jmp	 SHORT $LN9@PrepareDir
$LN14@PrepareDir:

; 870  : 
; 871  :     SetCurrentDirectoryW( wstrOldPath );

  000b9	ff d3		 call	 ebx

; 1027 : 		
; 1028 : 		if( FALSE == IsDirectory( wstrDir ) ) 
; 1029 : 		{
; 1030 : 			if( FALSE == CreateDirectoryW( wstrDir, NULL ) ) 

  000bb	6a 00		 push	 0
  000bd	8d 85 f4 fd ff
	ff		 lea	 eax, DWORD PTR _wstrDir$[ebp]
  000c3	50		 push	 eax
  000c4	ff 15 00 00 00
	00		 call	 DWORD PTR __imp__CreateDirectoryW@8
  000ca	85 c0		 test	 eax, eax
  000cc	74 7c		 je	 SHORT $LN30@PrepareDir
$LN9@PrepareDir:

; 1012 : 	while( *pPath ) 

  000ce	66 83 3e 00	 cmp	 WORD PTR [esi], 0
  000d2	0f 85 7b ff ff
	ff		 jne	 $LL2@PrepareDir
$LN3@PrepareDir:

; 866  :     GetCurrentDirectoryW( MAX_PATH, wstrOldPath);

  000d8	8d 85 ec fb ff
	ff		 lea	 eax, DWORD PTR _wstrOldPath$2[ebp]
  000de	50		 push	 eax
  000df	68 04 01 00 00	 push	 260			; 00000104H
  000e4	ff 15 00 00 00
	00		 call	 DWORD PTR __imp__GetCurrentDirectoryW@8

; 867  : 
; 868  :     if( SetCurrentDirectoryW( wstrPath ) == TRUE)

  000ea	8d 85 f4 fd ff
	ff		 lea	 eax, DWORD PTR _wstrDir$[ebp]
  000f0	50		 push	 eax
  000f1	ff d3		 call	 ebx
  000f3	83 f8 01	 cmp	 eax, 1
  000f6	8d 85 ec fb ff
	ff		 lea	 eax, DWORD PTR _wstrOldPath$2[ebp]
  000fc	50		 push	 eax
  000fd	75 1c		 jne	 SHORT $LN17@PrepareDir

; 869  :         Result = TRUE;

  000ff	ff d3		 call	 ebx

; 1040 : 		{
; 1041 : 			return FALSE;
; 1042 : 	    }
; 1043 : 	}
; 1044 : 	
; 1045 : 	return SetCurrentDirectoryW( wstrOldPath );

  00101	8d 85 e4 f9 ff
	ff		 lea	 eax, DWORD PTR _wstrOldPath$[ebp]
  00107	50		 push	 eax
  00108	ff d3		 call	 ebx
  0010a	5f		 pop	 edi

; 1046 : }

  0010b	5e		 pop	 esi
  0010c	5b		 pop	 ebx
  0010d	8b 4d fc	 mov	 ecx, DWORD PTR __$ArrayPad$[ebp]
  00110	33 cd		 xor	 ecx, ebp
  00112	e8 00 00 00 00	 call	 @__security_check_cookie@4
  00117	8b e5		 mov	 esp, ebp
  00119	5d		 pop	 ebp
  0011a	c3		 ret	 0
$LN17@PrepareDir:

; 871  :     SetCurrentDirectoryW( wstrOldPath );

  0011b	ff d3		 call	 ebx

; 1031 : 			{
; 1032 : 			    return FALSE;
; 1033 : 			}
; 1034 : 		}
; 1035 : 	}
; 1036 : 	
; 1037 : 	if( FALSE == IsDirectory( wstrDir ) ) 
; 1038 : 	{
; 1039 : 	    if( FALSE == CreateDirectoryW( wstrDir, NULL) ) 

  0011d	6a 00		 push	 0
  0011f	8d 85 f4 fd ff
	ff		 lea	 eax, DWORD PTR _wstrDir$[ebp]
  00125	50		 push	 eax
  00126	ff 15 00 00 00
	00		 call	 DWORD PTR __imp__CreateDirectoryW@8
  0012c	85 c0		 test	 eax, eax
  0012e	74 1a		 je	 SHORT $LN30@PrepareDir

; 1040 : 		{
; 1041 : 			return FALSE;
; 1042 : 	    }
; 1043 : 	}
; 1044 : 	
; 1045 : 	return SetCurrentDirectoryW( wstrOldPath );

  00130	8d 85 e4 f9 ff
	ff		 lea	 eax, DWORD PTR _wstrOldPath$[ebp]
  00136	50		 push	 eax
  00137	ff d3		 call	 ebx
  00139	5f		 pop	 edi

; 1046 : }

  0013a	5e		 pop	 esi
  0013b	5b		 pop	 ebx
  0013c	8b 4d fc	 mov	 ecx, DWORD PTR __$ArrayPad$[ebp]
  0013f	33 cd		 xor	 ecx, ebp
  00141	e8 00 00 00 00	 call	 @__security_check_cookie@4
  00146	8b e5		 mov	 esp, ebp
  00148	5d		 pop	 ebp
  00149	c3		 ret	 0
$LN30@PrepareDir:
  0014a	8b 4d fc	 mov	 ecx, DWORD PTR __$ArrayPad$[ebp]
  0014d	33 c0		 xor	 eax, eax
  0014f	5f		 pop	 edi
  00150	5e		 pop	 esi
  00151	33 cd		 xor	 ecx, ebp
  00153	5b		 pop	 ebx
  00154	e8 00 00 00 00	 call	 @__security_check_cookie@4
  00159	8b e5		 mov	 esp, ebp
  0015b	5d		 pop	 ebp
  0015c	c3		 ret	 0
?PrepareDirectory@i3System@@YAHPAG@Z ENDP		; i3System::PrepareDirectory
_TEXT	ENDS
; Function compile flags: /Ogtp
; File E:\Proyectos\JuegosOnlineproyectos\PB\pbblow\Piercing Blow Remake\i3Server\src\i3Base\i3System.cpp
;	COMDAT ?PrepareDirectory@i3System@@YAHPAD@Z
_TEXT	SEGMENT
_strOldPath$ = -784					; size = 260
_strOldPath$1 = -524					; size = 260
_strOldPath$2 = -524					; size = 260
_strDir$ = -264						; size = 260
__$ArrayPad$ = -4					; size = 4
_strPath$ = 8						; size = 4
?PrepareDirectory@i3System@@YAHPAD@Z PROC		; i3System::PrepareDirectory, COMDAT

; 943  : {

  00000	55		 push	 ebp
  00001	8b ec		 mov	 ebp, esp
  00003	81 ec 10 03 00
	00		 sub	 esp, 784		; 00000310H
  00009	a1 00 00 00 00	 mov	 eax, DWORD PTR ___security_cookie
  0000e	33 c5		 xor	 eax, ebp
  00010	89 45 fc	 mov	 DWORD PTR __$ArrayPad$[ebp], eax
  00013	53		 push	 ebx
  00014	56		 push	 esi
  00015	57		 push	 edi

; 944  :  	char	strOldPath[ MAX_PATH ];
; 945  : 	char	strDir[ MAX_PATH ];
; 946  : 	char	*pPath;
; 947  : 	INT32	i32Idx;
; 948  :     
; 949  : 	GetCurrentDirectoryA( MAX_PATH, strOldPath );

  00016	8d 85 f0 fc ff
	ff		 lea	 eax, DWORD PTR _strOldPath$[ebp]
  0001c	50		 push	 eax
  0001d	68 04 01 00 00	 push	 260			; 00000104H
  00022	ff 15 00 00 00
	00		 call	 DWORD PTR __imp__GetCurrentDirectoryA@8

; 950  : 
; 951  : 	pPath = strPath;

  00028	8b 75 08	 mov	 esi, DWORD PTR _strPath$[ebp]

; 952  : 
; 953  : 	if( *pPath == 0 )

  0002b	80 3e 00	 cmp	 BYTE PTR [esi], 0
  0002e	0f 84 ff 00 00
	00		 je	 $LN30@PrepareDir

; 954  :         return FALSE;
; 955  : 
; 956  : 	memset( strDir, 0, sizeof(strDir) );

  00034	68 04 01 00 00	 push	 260			; 00000104H
  00039	8d 85 f8 fe ff
	ff		 lea	 eax, DWORD PTR _strDir$[ebp]
  0003f	6a 00		 push	 0
  00041	50		 push	 eax
  00042	e8 00 00 00 00	 call	 _memset

; 957  : 	
; 958  : 	i32Idx = 0;

  00047	8b 1d 00 00 00
	00		 mov	 ebx, DWORD PTR __imp__SetCurrentDirectoryA@4
  0004d	83 c4 0c	 add	 esp, 12			; 0000000cH
  00050	33 ff		 xor	 edi, edi
$LL2@PrepareDir:
  00052	8a 06		 mov	 al, BYTE PTR [esi]
$LL4@PrepareDir:

; 960  : 	{
; 961  : 		while((*pPath) && (*pPath != '\\') && (*pPath != '/')) 

  00054	3c 5c		 cmp	 al, 92			; 0000005cH
  00056	74 15		 je	 SHORT $LN5@PrepareDir
  00058	8a 06		 mov	 al, BYTE PTR [esi]
  0005a	3c 2f		 cmp	 al, 47			; 0000002fH
  0005c	74 0f		 je	 SHORT $LN5@PrepareDir

; 962  : 		{
; 963  : 			strDir[ i32Idx ] = *pPath;
; 964  : 			i32Idx++;
; 965  : 			pPath++;

  0005e	46		 inc	 esi
  0005f	88 84 3d f8 fe
	ff ff		 mov	 BYTE PTR _strDir$[ebp+edi], al
  00066	47		 inc	 edi
  00067	8a 06		 mov	 al, BYTE PTR [esi]
  00069	84 c0		 test	 al, al
  0006b	75 e7		 jne	 SHORT $LL4@PrepareDir
$LN5@PrepareDir:

; 966  : 		}
; 967  : 		
; 968  : 		if( *pPath == 0 )

  0006d	8a 06		 mov	 al, BYTE PTR [esi]
  0006f	84 c0		 test	 al, al
  00071	74 4e		 je	 SHORT $LN3@PrepareDir

; 969  : 		    break;
; 970  : 		
; 971  : 		strDir[ i32Idx ] = *pPath;

  00073	88 84 3d f8 fe
	ff ff		 mov	 BYTE PTR _strDir$[ebp+edi], al

; 973  : 		pPath++;

  0007a	46		 inc	 esi

; 850  :     GetCurrentDirectoryA( MAX_PATH, strOldPath );

  0007b	8d 85 f4 fd ff
	ff		 lea	 eax, DWORD PTR _strOldPath$1[ebp]

; 972  : 		i32Idx++;

  00081	47		 inc	 edi

; 850  :     GetCurrentDirectoryA( MAX_PATH, strOldPath );

  00082	50		 push	 eax
  00083	68 04 01 00 00	 push	 260			; 00000104H
  00088	ff 15 00 00 00
	00		 call	 DWORD PTR __imp__GetCurrentDirectoryA@8

; 851  : 
; 852  :     if( SetCurrentDirectoryA( strPath ) == TRUE)

  0008e	8d 85 f8 fe ff
	ff		 lea	 eax, DWORD PTR _strDir$[ebp]
  00094	50		 push	 eax
  00095	ff d3		 call	 ebx
  00097	83 f8 01	 cmp	 eax, 1
  0009a	8d 85 f4 fd ff
	ff		 lea	 eax, DWORD PTR _strOldPath$1[ebp]
  000a0	50		 push	 eax
  000a1	75 04		 jne	 SHORT $LN14@PrepareDir

; 853  :         Result = TRUE;

  000a3	ff d3		 call	 ebx
  000a5	eb 15		 jmp	 SHORT $LN9@PrepareDir
$LN14@PrepareDir:

; 854  : 
; 855  :     SetCurrentDirectoryA( strOldPath );

  000a7	ff d3		 call	 ebx

; 974  : 		
; 975  : 		if( FALSE == IsDirectory( strDir ) ) 
; 976  : 		{
; 977  : 			if( FALSE == CreateDirectoryA( strDir, NULL ) ) 

  000a9	6a 00		 push	 0
  000ab	8d 85 f8 fe ff
	ff		 lea	 eax, DWORD PTR _strDir$[ebp]
  000b1	50		 push	 eax
  000b2	ff 15 00 00 00
	00		 call	 DWORD PTR __imp__CreateDirectoryA@8
  000b8	85 c0		 test	 eax, eax
  000ba	74 77		 je	 SHORT $LN30@PrepareDir
$LN9@PrepareDir:

; 959  : 	while( *pPath ) 

  000bc	80 3e 00	 cmp	 BYTE PTR [esi], 0
  000bf	75 91		 jne	 SHORT $LL2@PrepareDir
$LN3@PrepareDir:

; 850  :     GetCurrentDirectoryA( MAX_PATH, strOldPath );

  000c1	8d 85 f4 fd ff
	ff		 lea	 eax, DWORD PTR _strOldPath$2[ebp]
  000c7	50		 push	 eax
  000c8	68 04 01 00 00	 push	 260			; 00000104H
  000cd	ff 15 00 00 00
	00		 call	 DWORD PTR __imp__GetCurrentDirectoryA@8

; 851  : 
; 852  :     if( SetCurrentDirectoryA( strPath ) == TRUE)

  000d3	8d 85 f8 fe ff
	ff		 lea	 eax, DWORD PTR _strDir$[ebp]
  000d9	50		 push	 eax
  000da	ff d3		 call	 ebx
  000dc	83 f8 01	 cmp	 eax, 1
  000df	8d 85 f4 fd ff
	ff		 lea	 eax, DWORD PTR _strOldPath$2[ebp]
  000e5	50		 push	 eax
  000e6	75 1c		 jne	 SHORT $LN17@PrepareDir

; 853  :         Result = TRUE;

  000e8	ff d3		 call	 ebx

; 987  : 		{
; 988  : 			return FALSE;
; 989  : 	    }
; 990  : 	}
; 991  : 	
; 992  : 	return SetCurrentDirectoryA( strOldPath );

  000ea	8d 85 f0 fc ff
	ff		 lea	 eax, DWORD PTR _strOldPath$[ebp]
  000f0	50		 push	 eax
  000f1	ff d3		 call	 ebx
  000f3	5f		 pop	 edi

; 993  : }

  000f4	5e		 pop	 esi
  000f5	5b		 pop	 ebx
  000f6	8b 4d fc	 mov	 ecx, DWORD PTR __$ArrayPad$[ebp]
  000f9	33 cd		 xor	 ecx, ebp
  000fb	e8 00 00 00 00	 call	 @__security_check_cookie@4
  00100	8b e5		 mov	 esp, ebp
  00102	5d		 pop	 ebp
  00103	c3		 ret	 0
$LN17@PrepareDir:

; 855  :     SetCurrentDirectoryA( strOldPath );

  00104	ff d3		 call	 ebx

; 978  : 			{
; 979  : 			    return FALSE;
; 980  : 			}
; 981  : 		}
; 982  : 	}
; 983  : 	
; 984  : 	if( FALSE == IsDirectory( strDir ) ) 
; 985  : 	{
; 986  : 	    if( FALSE == CreateDirectoryA( strDir, NULL) ) 

  00106	6a 00		 push	 0
  00108	8d 85 f8 fe ff
	ff		 lea	 eax, DWORD PTR _strDir$[ebp]
  0010e	50		 push	 eax
  0010f	ff 15 00 00 00
	00		 call	 DWORD PTR __imp__CreateDirectoryA@8
  00115	85 c0		 test	 eax, eax
  00117	74 1a		 je	 SHORT $LN30@PrepareDir

; 987  : 		{
; 988  : 			return FALSE;
; 989  : 	    }
; 990  : 	}
; 991  : 	
; 992  : 	return SetCurrentDirectoryA( strOldPath );

  00119	8d 85 f0 fc ff
	ff		 lea	 eax, DWORD PTR _strOldPath$[ebp]
  0011f	50		 push	 eax
  00120	ff d3		 call	 ebx
  00122	5f		 pop	 edi

; 993  : }

  00123	5e		 pop	 esi
  00124	5b		 pop	 ebx
  00125	8b 4d fc	 mov	 ecx, DWORD PTR __$ArrayPad$[ebp]
  00128	33 cd		 xor	 ecx, ebp
  0012a	e8 00 00 00 00	 call	 @__security_check_cookie@4
  0012f	8b e5		 mov	 esp, ebp
  00131	5d		 pop	 ebp
  00132	c3		 ret	 0
$LN30@PrepareDir:
  00133	8b 4d fc	 mov	 ecx, DWORD PTR __$ArrayPad$[ebp]
  00136	33 c0		 xor	 eax, eax
  00138	5f		 pop	 edi
  00139	5e		 pop	 esi
  0013a	33 cd		 xor	 ecx, ebp
  0013c	5b		 pop	 ebx
  0013d	e8 00 00 00 00	 call	 @__security_check_cookie@4
  00142	8b e5		 mov	 esp, ebp
  00144	5d		 pop	 ebp
  00145	c3		 ret	 0
?PrepareDirectory@i3System@@YAHPAD@Z ENDP		; i3System::PrepareDirectory
_TEXT	ENDS
; Function compile flags: /Ogtp
; File E:\Proyectos\JuegosOnlineproyectos\PB\pbblow\Piercing Blow Remake\i3Server\src\i3Base\i3System.cpp
;	COMDAT ?GetDrive@i3System@@YAHPBGPAGH@Z
_TEXT	SEGMENT
_wstrPath$ = 8						; size = 4
_wstrDrive$ = 12					; size = 4
_i32OutSize$ = 16					; size = 4
?GetDrive@i3System@@YAHPBGPAGH@Z PROC			; i3System::GetDrive, COMDAT

; 822  : {

  00000	55		 push	 ebp
  00001	8b ec		 mov	 ebp, esp
  00003	8b 4d 08	 mov	 ecx, DWORD PTR _wstrPath$[ebp]

; 823  : 	INT32 i32Size = 0;
; 824  : 	while( '\0' != wstrPath[i32Size] && '\\' != wstrPath[i32Size] )

  00006	33 d2		 xor	 edx, edx
  00008	53		 push	 ebx
  00009	56		 push	 esi
  0000a	8b 75 0c	 mov	 esi, DWORD PTR _wstrDrive$[ebp]
  0000d	33 c0		 xor	 eax, eax
  0000f	57		 push	 edi
  00010	66 3b 11	 cmp	 dx, WORD PTR [ecx]
  00013	74 25		 je	 SHORT $LN3@GetDrive
  00015	8b 7d 10	 mov	 edi, DWORD PTR _i32OutSize$[ebp]
  00018	bb 5c 00 00 00	 mov	 ebx, 92			; 0000005cH
  0001d	8d 49 00	 npad	 3
$LL2@GetDrive:
  00020	0f b7 14 41	 movzx	 edx, WORD PTR [ecx+eax*2]
  00024	66 3b da	 cmp	 bx, dx
  00027	74 11		 je	 SHORT $LN3@GetDrive

; 825  : 	{
; 826  : 		wstrDrive[i32Size] = wstrPath[i32Size];

  00029	66 89 14 46	 mov	 WORD PTR [esi+eax*2], dx

; 827  : 		i32Size++;

  0002d	40		 inc	 eax

; 828  : 		if( i32OutSize <= i32Size )	return FALSE;

  0002e	3b f8		 cmp	 edi, eax
  00030	7e 16		 jle	 SHORT $LN7@GetDrive

; 823  : 	INT32 i32Size = 0;
; 824  : 	while( '\0' != wstrPath[i32Size] && '\\' != wstrPath[i32Size] )

  00032	33 d2		 xor	 edx, edx
  00034	66 3b 14 41	 cmp	 dx, WORD PTR [ecx+eax*2]
  00038	75 e6		 jne	 SHORT $LL2@GetDrive
$LN3@GetDrive:

; 829  : 	}
; 830  : 	wstrDrive[i32Size] = '\0';

  0003a	33 c9		 xor	 ecx, ecx
  0003c	5f		 pop	 edi
  0003d	66 89 0c 46	 mov	 WORD PTR [esi+eax*2], cx

; 831  : 	return TRUE;
; 832  : }

  00041	5e		 pop	 esi
  00042	8d 41 01	 lea	 eax, DWORD PTR [ecx+1]
  00045	5b		 pop	 ebx
  00046	5d		 pop	 ebp
  00047	c3		 ret	 0
$LN7@GetDrive:
  00048	5f		 pop	 edi
  00049	5e		 pop	 esi
  0004a	33 c0		 xor	 eax, eax
  0004c	5b		 pop	 ebx
  0004d	5d		 pop	 ebp
  0004e	c3		 ret	 0
?GetDrive@i3System@@YAHPBGPAGH@Z ENDP			; i3System::GetDrive
_TEXT	ENDS
; Function compile flags: /Ogtp
; File E:\Proyectos\JuegosOnlineproyectos\PB\pbblow\Piercing Blow Remake\i3Server\src\i3Base\i3System.cpp
;	COMDAT ?GetDrive@i3System@@YAHPBDPADH@Z
_TEXT	SEGMENT
_strPath$ = 8						; size = 4
_strDrive$ = 12						; size = 4
_i32OutSize$ = 16					; size = 4
?GetDrive@i3System@@YAHPBDPADH@Z PROC			; i3System::GetDrive, COMDAT

; 809  : {

  00000	55		 push	 ebp
  00001	8b ec		 mov	 ebp, esp
  00003	8b 55 08	 mov	 edx, DWORD PTR _strPath$[ebp]

; 810  : 	INT32 i32Size = 0;

  00006	33 c0		 xor	 eax, eax
  00008	56		 push	 esi
  00009	8b 75 0c	 mov	 esi, DWORD PTR _strDrive$[ebp]
  0000c	57		 push	 edi

; 811  : 	while( '\0' != strPath[i32Size] && '\\' != strPath[i32Size] )

  0000d	38 02		 cmp	 BYTE PTR [edx], al
  0000f	74 19		 je	 SHORT $LN3@GetDrive
  00011	8b 7d 10	 mov	 edi, DWORD PTR _i32OutSize$[ebp]
$LL2@GetDrive:
  00014	8a 0c 10	 mov	 cl, BYTE PTR [eax+edx]
  00017	80 f9 5c	 cmp	 cl, 92			; 0000005cH
  0001a	74 0e		 je	 SHORT $LN3@GetDrive

; 812  : 	{
; 813  : 		strDrive[i32Size] = strPath[i32Size];

  0001c	88 0c 30	 mov	 BYTE PTR [eax+esi], cl

; 814  : 		i32Size++;

  0001f	40		 inc	 eax

; 815  : 		if( i32OutSize <= i32Size )	return FALSE;

  00020	3b f8		 cmp	 edi, eax
  00022	7e 13		 jle	 SHORT $LN7@GetDrive

; 811  : 	while( '\0' != strPath[i32Size] && '\\' != strPath[i32Size] )

  00024	80 3c 02 00	 cmp	 BYTE PTR [edx+eax], 0
  00028	75 ea		 jne	 SHORT $LL2@GetDrive
$LN3@GetDrive:

; 816  : 	}
; 817  : 	strDrive[i32Size] = '\0';

  0002a	c6 04 30 00	 mov	 BYTE PTR [eax+esi], 0

; 818  : 	return TRUE;

  0002e	b8 01 00 00 00	 mov	 eax, 1
  00033	5f		 pop	 edi

; 819  : }

  00034	5e		 pop	 esi
  00035	5d		 pop	 ebp
  00036	c3		 ret	 0
$LN7@GetDrive:
  00037	5f		 pop	 edi

; 815  : 		if( i32OutSize <= i32Size )	return FALSE;

  00038	33 c0		 xor	 eax, eax

; 819  : }

  0003a	5e		 pop	 esi
  0003b	5d		 pop	 ebp
  0003c	c3		 ret	 0
?GetDrive@i3System@@YAHPBDPADH@Z ENDP			; i3System::GetDrive
_TEXT	ENDS
; Function compile flags: /Ogtp
; File E:\Proyectos\JuegosOnlineproyectos\PB\pbblow\Piercing Blow Remake\i3Server\src\i3Base\i3System.cpp
;	COMDAT ?GetRealFilename@i3System@@YAHPBDPAD@Z
_TEXT	SEGMENT
_pszName$GSCopy$1$ = -848				; size = 4
_info$ = -844						; size = 320
_szCurPath$ = -524					; size = 260
_szPath$1 = -264					; size = 260
__$ArrayPad$ = -4					; size = 4
_pszPath$ = 8						; size = 4
_pszName$ = 12						; size = 4
?GetRealFilename@i3System@@YAHPBDPAD@Z PROC		; i3System::GetRealFilename, COMDAT

; 781  : {

  00000	55		 push	 ebp
  00001	8b ec		 mov	 ebp, esp
  00003	81 ec 50 03 00
	00		 sub	 esp, 848		; 00000350H
  00009	a1 00 00 00 00	 mov	 eax, DWORD PTR ___security_cookie
  0000e	33 c5		 xor	 eax, ebp
  00010	89 45 fc	 mov	 DWORD PTR __$ArrayPad$[ebp], eax
  00013	8b 45 0c	 mov	 eax, DWORD PTR _pszName$[ebp]
  00016	53		 push	 ebx
  00017	56		 push	 esi
  00018	57		 push	 edi
  00019	8b 7d 08	 mov	 edi, DWORD PTR _pszPath$[ebp]

; 782  : 	WIN32_FIND_DATA info;
; 783  : 	BOOL bResult = FALSE;

  0001c	33 f6		 xor	 esi, esi
  0001e	89 85 b0 fc ff
	ff		 mov	 DWORD PTR _pszName$GSCopy$1$[ebp], eax

; 784  : 	char szCurPath[MAX_PATH];
; 785  : 
; 786  : 	::GetCurrentDirectory( MAX_PATH, szCurPath);

  00024	8d 85 f4 fd ff
	ff		 lea	 eax, DWORD PTR _szCurPath$[ebp]
  0002a	50		 push	 eax
  0002b	68 04 01 00 00	 push	 260			; 00000104H
  00030	ff 15 00 00 00
	00		 call	 DWORD PTR __imp__GetCurrentDirectoryA@8

; 787  : 
; 788  : 	HANDLE hFind = FindFirstFile( pszPath, &info);

  00036	8d 85 b4 fc ff
	ff		 lea	 eax, DWORD PTR _info$[ebp]
  0003c	50		 push	 eax
  0003d	57		 push	 edi
  0003e	ff 15 00 00 00
	00		 call	 DWORD PTR __imp__FindFirstFileA@8
  00044	8b d8		 mov	 ebx, eax

; 789  : 
; 790  : 	if( hFind != NULL)

  00046	85 db		 test	 ebx, ebx
  00048	74 3a		 je	 SHORT $LN2@GetRealFil

; 791  : 	{
; 792  : 		bResult = TRUE;
; 793  : 
; 794  : 		char szPath[ MAX_PATH];
; 795  : 
; 796  : 		i3String::SplitPath( pszPath, szPath);

  0004a	8d 85 f8 fe ff
	ff		 lea	 eax, DWORD PTR _szPath$1[ebp]
  00050	be 01 00 00 00	 mov	 esi, 1
  00055	50		 push	 eax
  00056	57		 push	 edi
  00057	e8 00 00 00 00	 call	 ?SplitPath@i3String@@YAXPBDPAD@Z ; i3String::SplitPath

; 797  : 
; 798  : 		sprintf( pszName, "%s/%s", szPath, info.cFileName);

  0005c	8d 85 e0 fc ff
	ff		 lea	 eax, DWORD PTR _info$[ebp+44]
  00062	50		 push	 eax
  00063	8d 85 f8 fe ff
	ff		 lea	 eax, DWORD PTR _szPath$1[ebp]
  00069	50		 push	 eax
  0006a	68 00 00 00 00	 push	 OFFSET ??_C@_05GFOLEBJA@?$CFs?1?$CFs@
  0006f	ff b5 b0 fc ff
	ff		 push	 DWORD PTR _pszName$GSCopy$1$[ebp]
  00075	e8 00 00 00 00	 call	 _sprintf
  0007a	83 c4 18	 add	 esp, 24			; 00000018H

; 799  : 
; 800  : 		FindClose( hFind);

  0007d	53		 push	 ebx
  0007e	ff 15 00 00 00
	00		 call	 DWORD PTR __imp__FindClose@4
$LN2@GetRealFil:

; 801  : 	}
; 802  : 
; 803  : 	::SetCurrentDirectory( szCurPath);

  00084	8d 85 f4 fd ff
	ff		 lea	 eax, DWORD PTR _szCurPath$[ebp]
  0008a	50		 push	 eax
  0008b	ff 15 00 00 00
	00		 call	 DWORD PTR __imp__SetCurrentDirectoryA@4

; 804  : 
; 805  : 	return bResult;
; 806  : }

  00091	8b 4d fc	 mov	 ecx, DWORD PTR __$ArrayPad$[ebp]
  00094	8b c6		 mov	 eax, esi
  00096	5f		 pop	 edi
  00097	5e		 pop	 esi
  00098	33 cd		 xor	 ecx, ebp
  0009a	5b		 pop	 ebx
  0009b	e8 00 00 00 00	 call	 @__security_check_cookie@4
  000a0	8b e5		 mov	 esp, ebp
  000a2	5d		 pop	 ebp
  000a3	c3		 ret	 0
?GetRealFilename@i3System@@YAHPBDPAD@Z ENDP		; i3System::GetRealFilename
_TEXT	ENDS
; Function compile flags: /Ogtp
; File E:\Proyectos\JuegosOnlineproyectos\PB\pbblow\Piercing Blow Remake\i3Server\src\i3Base\i3System.cpp
;	COMDAT ?IsFile@i3System@@YAHPBD@Z
_TEXT	SEGMENT
_pszPath$ = 8						; size = 4
?IsFile@i3System@@YAHPBD@Z PROC				; i3System::IsFile, COMDAT

; 877  : {

  00000	55		 push	 ebp
  00001	8b ec		 mov	 ebp, esp

; 878  : #if defined( I3_WINDOWS)
; 879  : 	DWORD attr = GetFileAttributes( pszPath);

  00003	ff 75 08	 push	 DWORD PTR _pszPath$[ebp]
  00006	ff 15 00 00 00
	00		 call	 DWORD PTR __imp__GetFileAttributesA@4

; 880  : 
; 881  : 	if( attr == INVALID_FILE_ATTRIBUTES)

  0000c	83 f8 ff	 cmp	 eax, -1
  0000f	74 0a		 je	 SHORT $LN5@IsFile

; 882  : 		return FALSE;
; 883  : 
; 884  : 	if( attr & FILE_ATTRIBUTE_DIRECTORY)

  00011	c1 e8 04	 shr	 eax, 4
  00014	f7 d0		 not	 eax
  00016	83 e0 01	 and	 eax, 1

; 886  : #endif
; 887  : 
; 888  :     return TRUE;
; 889  : }

  00019	5d		 pop	 ebp
  0001a	c3		 ret	 0
$LN5@IsFile:

; 885  : 		return FALSE;

  0001b	33 c0		 xor	 eax, eax

; 886  : #endif
; 887  : 
; 888  :     return TRUE;
; 889  : }

  0001d	5d		 pop	 ebp
  0001e	c3		 ret	 0
?IsFile@i3System@@YAHPBD@Z ENDP				; i3System::IsFile
_TEXT	ENDS
; Function compile flags: /Ogtp
; File E:\Proyectos\JuegosOnlineproyectos\PB\pbblow\Piercing Blow Remake\i3Server\src\i3Base\i3System.cpp
;	COMDAT ?IsDirectory@i3System@@YAHPBG@Z
_TEXT	SEGMENT
_wstrOldPath$ = -524					; size = 520
__$ArrayPad$ = -4					; size = 4
_wstrPath$ = 8						; size = 4
?IsDirectory@i3System@@YAHPBG@Z PROC			; i3System::IsDirectory, COMDAT

; 861  : {

  00000	55		 push	 ebp
  00001	8b ec		 mov	 ebp, esp
  00003	81 ec 0c 02 00
	00		 sub	 esp, 524		; 0000020cH
  00009	a1 00 00 00 00	 mov	 eax, DWORD PTR ___security_cookie
  0000e	33 c5		 xor	 eax, ebp
  00010	89 45 fc	 mov	 DWORD PTR __$ArrayPad$[ebp], eax
  00013	56		 push	 esi
  00014	8b 75 08	 mov	 esi, DWORD PTR _wstrPath$[ebp]

; 862  : 	BOOL Result = FALSE;
; 863  : 
; 864  :     wchar_t wstrOldPath[ MAX_PATH];
; 865  :     
; 866  :     GetCurrentDirectoryW( MAX_PATH, wstrOldPath);

  00017	8d 85 f4 fd ff
	ff		 lea	 eax, DWORD PTR _wstrOldPath$[ebp]
  0001d	50		 push	 eax
  0001e	68 04 01 00 00	 push	 260			; 00000104H
  00023	ff 15 00 00 00
	00		 call	 DWORD PTR __imp__GetCurrentDirectoryW@8

; 867  : 
; 868  :     if( SetCurrentDirectoryW( wstrPath ) == TRUE)

  00029	56		 push	 esi
  0002a	ff 15 00 00 00
	00		 call	 DWORD PTR __imp__SetCurrentDirectoryW@4

; 869  :         Result = TRUE;
; 870  : 
; 871  :     SetCurrentDirectoryW( wstrOldPath );

  00030	8d 70 ff	 lea	 esi, DWORD PTR [eax-1]
  00033	8d 85 f4 fd ff
	ff		 lea	 eax, DWORD PTR _wstrOldPath$[ebp]
  00039	f7 de		 neg	 esi
  0003b	50		 push	 eax
  0003c	1b f6		 sbb	 esi, esi
  0003e	ff 15 00 00 00
	00		 call	 DWORD PTR __imp__SetCurrentDirectoryW@4

; 872  : 
; 873  :     return Result;
; 874  : }

  00044	8b 4d fc	 mov	 ecx, DWORD PTR __$ArrayPad$[ebp]
  00047	8d 46 01	 lea	 eax, DWORD PTR [esi+1]
  0004a	33 cd		 xor	 ecx, ebp
  0004c	5e		 pop	 esi
  0004d	e8 00 00 00 00	 call	 @__security_check_cookie@4
  00052	8b e5		 mov	 esp, ebp
  00054	5d		 pop	 ebp
  00055	c3		 ret	 0
?IsDirectory@i3System@@YAHPBG@Z ENDP			; i3System::IsDirectory
_TEXT	ENDS
; Function compile flags: /Ogtp
; File E:\Proyectos\JuegosOnlineproyectos\PB\pbblow\Piercing Blow Remake\i3Server\src\i3Base\i3System.cpp
;	COMDAT ?IsDirectory@i3System@@YAHPBD@Z
_TEXT	SEGMENT
_strOldPath$ = -264					; size = 260
__$ArrayPad$ = -4					; size = 4
_strPath$ = 8						; size = 4
?IsDirectory@i3System@@YAHPBD@Z PROC			; i3System::IsDirectory, COMDAT

; 845  : {

  00000	55		 push	 ebp
  00001	8b ec		 mov	 ebp, esp
  00003	81 ec 08 01 00
	00		 sub	 esp, 264		; 00000108H
  00009	a1 00 00 00 00	 mov	 eax, DWORD PTR ___security_cookie
  0000e	33 c5		 xor	 eax, ebp
  00010	89 45 fc	 mov	 DWORD PTR __$ArrayPad$[ebp], eax
  00013	56		 push	 esi
  00014	8b 75 08	 mov	 esi, DWORD PTR _strPath$[ebp]

; 846  : 	BOOL Result = FALSE;
; 847  : 
; 848  :     char strOldPath[ MAX_PATH];
; 849  :     
; 850  :     GetCurrentDirectoryA( MAX_PATH, strOldPath );

  00017	8d 85 f8 fe ff
	ff		 lea	 eax, DWORD PTR _strOldPath$[ebp]
  0001d	50		 push	 eax
  0001e	68 04 01 00 00	 push	 260			; 00000104H
  00023	ff 15 00 00 00
	00		 call	 DWORD PTR __imp__GetCurrentDirectoryA@8

; 851  : 
; 852  :     if( SetCurrentDirectoryA( strPath ) == TRUE)

  00029	56		 push	 esi
  0002a	ff 15 00 00 00
	00		 call	 DWORD PTR __imp__SetCurrentDirectoryA@4

; 853  :         Result = TRUE;
; 854  : 
; 855  :     SetCurrentDirectoryA( strOldPath );

  00030	8d 70 ff	 lea	 esi, DWORD PTR [eax-1]
  00033	8d 85 f8 fe ff
	ff		 lea	 eax, DWORD PTR _strOldPath$[ebp]
  00039	f7 de		 neg	 esi
  0003b	50		 push	 eax
  0003c	1b f6		 sbb	 esi, esi
  0003e	ff 15 00 00 00
	00		 call	 DWORD PTR __imp__SetCurrentDirectoryA@4

; 856  : 
; 857  :     return Result;
; 858  : }

  00044	8b 4d fc	 mov	 ecx, DWORD PTR __$ArrayPad$[ebp]
  00047	8d 46 01	 lea	 eax, DWORD PTR [esi+1]
  0004a	33 cd		 xor	 ecx, ebp
  0004c	5e		 pop	 esi
  0004d	e8 00 00 00 00	 call	 @__security_check_cookie@4
  00052	8b e5		 mov	 esp, ebp
  00054	5d		 pop	 ebp
  00055	c3		 ret	 0
?IsDirectory@i3System@@YAHPBD@Z ENDP			; i3System::IsDirectory
_TEXT	ENDS
; Function compile flags: /Ogtp
; File E:\Proyectos\JuegosOnlineproyectos\PB\pbblow\Piercing Blow Remake\i3Server\src\i3Base\i3System.cpp
;	COMDAT ?LookForFiles@i3System@@YAHPBD0P6AHHPADPAX2@Z2I@Z
_TEXT	SEGMENT
_szCurPath$ = -264					; size = 260
__$ArrayPad$ = -4					; size = 4
_Path$ = 8						; size = 4
_Filter$ = 12						; size = 4
_userproc$ = 16						; size = 4
_userdata$ = 20						; size = 4
_Type$ = 24						; size = 4
?LookForFiles@i3System@@YAHPBD0P6AHHPADPAX2@Z2I@Z PROC	; i3System::LookForFiles, COMDAT

; 759  : {

  00000	55		 push	 ebp
  00001	8b ec		 mov	 ebp, esp
  00003	81 ec 08 01 00
	00		 sub	 esp, 264		; 00000108H
  00009	a1 00 00 00 00	 mov	 eax, DWORD PTR ___security_cookie
  0000e	33 c5		 xor	 eax, ebp
  00010	89 45 fc	 mov	 DWORD PTR __$ArrayPad$[ebp], eax

; 760  : 	s_Level = 0;
; 761  :     _UserProc = userproc;

  00013	8b 45 10	 mov	 eax, DWORD PTR _userproc$[ebp]
  00016	a3 00 00 00 00	 mov	 DWORD PTR ?_UserProc@@3P6AHHPADPAX1@ZA, eax

; 762  :     _UserData = userdata;

  0001b	8b 45 14	 mov	 eax, DWORD PTR _userdata$[ebp]
  0001e	56		 push	 esi
  0001f	8b 75 0c	 mov	 esi, DWORD PTR _Filter$[ebp]
  00022	a3 00 00 00 00	 mov	 DWORD PTR ?_UserData@@3PAXA, eax

; 763  : 	_Type = Type;

  00027	8b 45 18	 mov	 eax, DWORD PTR _Type$[ebp]
  0002a	57		 push	 edi
  0002b	8b 7d 08	 mov	 edi, DWORD PTR _Path$[ebp]
  0002e	a3 00 00 00 00	 mov	 DWORD PTR ?_Type@@3IA, eax

; 764  :     Count = 0;
; 765  : 
; 766  : 	char szCurPath[MAX_PATH];
; 767  : 
; 768  : 	::GetCurrentDirectory( MAX_PATH, szCurPath);

  00033	8d 85 f8 fe ff
	ff		 lea	 eax, DWORD PTR _szCurPath$[ebp]
  00039	50		 push	 eax
  0003a	68 04 01 00 00	 push	 260			; 00000104H
  0003f	c7 05 00 00 00
	00 00 00 00 00	 mov	 DWORD PTR ?s_Level@@3HA, 0
  00049	c7 05 00 00 00
	00 00 00 00 00	 mov	 DWORD PTR ?Count@@3HA, 0
  00053	ff 15 00 00 00
	00		 call	 DWORD PTR __imp__GetCurrentDirectoryA@8

; 769  : 
; 770  : 	_Rec_LookForFiles( Path, Filter);

  00059	56		 push	 esi
  0005a	57		 push	 edi
  0005b	e8 00 00 00 00	 call	 ?_Rec_LookForFiles@@YAHPBD0@Z ; _Rec_LookForFiles
  00060	83 c4 08	 add	 esp, 8

; 771  : 
; 772  : 	::SetCurrentDirectory( szCurPath);

  00063	8d 85 f8 fe ff
	ff		 lea	 eax, DWORD PTR _szCurPath$[ebp]
  00069	50		 push	 eax
  0006a	ff 15 00 00 00
	00		 call	 DWORD PTR __imp__SetCurrentDirectoryA@4

; 773  : 
; 774  :     if( Count == 0)
; 775  :     	return FALSE;
; 776  : 
; 777  :     return TRUE;
; 778  : }

  00070	8b 4d fc	 mov	 ecx, DWORD PTR __$ArrayPad$[ebp]
  00073	33 c0		 xor	 eax, eax
  00075	39 05 00 00 00
	00		 cmp	 DWORD PTR ?Count@@3HA, eax
  0007b	5f		 pop	 edi
  0007c	0f 95 c0	 setne	 al
  0007f	33 cd		 xor	 ecx, ebp
  00081	5e		 pop	 esi
  00082	e8 00 00 00 00	 call	 @__security_check_cookie@4
  00087	8b e5		 mov	 esp, ebp
  00089	5d		 pop	 ebp
  0008a	c3		 ret	 0
?LookForFiles@i3System@@YAHPBD0P6AHHPADPAX2@Z2I@Z ENDP	; i3System::LookForFiles
_TEXT	ENDS
; Function compile flags: /Ogtp
; File E:\Proyectos\JuegosOnlineproyectos\PB\pbblow\Piercing Blow Remake\i3Server\src\i3Base\i3System.cpp
;	COMDAT ?TerminateSys@i3System@@YAXXZ
_TEXT	SEGMENT
?TerminateSys@i3System@@YAXXZ PROC			; i3System::TerminateSys, COMDAT

; 644  : {

  00000	56		 push	 esi

; 645  : 	I3_TERMINATE_INFO * pTemp, * pNext;
; 646  : 	I3_TERMINATE_PROC pProc;
; 647  : 
; 648  : 	s_CSSystem.Enter();

  00001	b9 00 00 00 00	 mov	 ecx, OFFSET ?s_CSSystem@@3Vi3Mutex2@@A
  00006	e8 00 00 00 00	 call	 ?Enter@i3Mutex2@@QAEXXZ	; i3Mutex2::Enter

; 649  : 	pTemp = s_pHead;

  0000b	8b 35 00 00 00
	00		 mov	 esi, DWORD PTR ?s_pHead@@3PAU_tagTerminateInfo@@A

; 650  : 
; 651  : 	while( pTemp != NULL)

  00011	85 f6		 test	 esi, esi
  00013	74 25		 je	 SHORT $LN3@TerminateS
  00015	57		 push	 edi
$LL2@TerminateS:

; 652  : 	{
; 653  : 		pNext = pTemp->m_pNext;
; 654  : 
; 655  : 		pProc = pTemp->m_pProc;
; 656  : 		pProc( pTemp->m_pUserData);

  00016	ff 76 0c	 push	 DWORD PTR [esi+12]
  00019	8b 46 08	 mov	 eax, DWORD PTR [esi+8]
  0001c	8b 3e		 mov	 edi, DWORD PTR [esi]
  0001e	ff d0		 call	 eax

; 657  : 
; 658  : 		i3MemFree( pTemp);

  00020	68 92 02 00 00	 push	 658			; 00000292H
  00025	68 00 00 00 00	 push	 OFFSET ??_C@_0GD@IGODELLK@E?3?2Proyectos?2JuegosOnlineproyec@
  0002a	56		 push	 esi
  0002b	e8 00 00 00 00	 call	 ?FreeTool@i3mem@@YAXPAXPBDH@Z ; i3mem::FreeTool
  00030	83 c4 10	 add	 esp, 16			; 00000010H

; 659  : 
; 660  : 		pTemp = pNext;

  00033	8b f7		 mov	 esi, edi
  00035	85 ff		 test	 edi, edi
  00037	75 dd		 jne	 SHORT $LL2@TerminateS

; 650  : 
; 651  : 	while( pTemp != NULL)

  00039	5f		 pop	 edi
$LN3@TerminateS:

; 661  : 	}
; 662  : 
; 663  : 	s_CSSystem.Leave();

  0003a	b9 00 00 00 00	 mov	 ecx, OFFSET ?s_CSSystem@@3Vi3Mutex2@@A
  0003f	5e		 pop	 esi
  00040	e9 00 00 00 00	 jmp	 ?Leave@i3Mutex2@@QAEXXZ	; i3Mutex2::Leave
?TerminateSys@i3System@@YAXXZ ENDP			; i3System::TerminateSys
_TEXT	ENDS
; Function compile flags: /Ogtp
; File E:\Proyectos\JuegosOnlineproyectos\PB\pbblow\Piercing Blow Remake\i3Server\src\i3Base\i3System.cpp
;	COMDAT ?RemoveTerminateProc@i3System@@YAXP6AHPAX@Z@Z
_TEXT	SEGMENT
_pProc$ = 8						; size = 4
?RemoveTerminateProc@i3System@@YAXP6AHPAX@Z@Z PROC	; i3System::RemoveTerminateProc, COMDAT

; 612  : { 

  00000	55		 push	 ebp
  00001	8b ec		 mov	 ebp, esp

; 613  : 	I3_TERMINATE_INFO * pPrev, *pTemp;
; 614  : 
; 615  : 	s_CSSystem.Enter();

  00003	b9 00 00 00 00	 mov	 ecx, OFFSET ?s_CSSystem@@3Vi3Mutex2@@A
  00008	e8 00 00 00 00	 call	 ?Enter@i3Mutex2@@QAEXXZ	; i3Mutex2::Enter

; 616  : 	pTemp = s_pHead;

  0000d	a1 00 00 00 00	 mov	 eax, DWORD PTR ?s_pHead@@3PAU_tagTerminateInfo@@A

; 617  : 	pPrev = NULL;

  00012	33 d2		 xor	 edx, edx

; 618  : 	
; 619  : 	while(pTemp != NULL)

  00014	85 c0		 test	 eax, eax
  00016	74 45		 je	 SHORT $LN3@RemoveTerm
  00018	56		 push	 esi
  00019	8b 75 08	 mov	 esi, DWORD PTR _pProc$[ebp]
  0001c	8d 64 24 00	 npad	 4
$LL2@RemoveTerm:

; 620  : 	{
; 621  : 		if( pTemp->m_pProc == pProc)

  00020	8b 08		 mov	 ecx, DWORD PTR [eax]
  00022	39 70 08	 cmp	 DWORD PTR [eax+8], esi
  00025	74 14		 je	 SHORT $LN9@RemoveTerm

; 630  : 
; 631  : 			s_CSSystem.Leave();
; 632  : 			return;
; 633  : 		}
; 634  : 		pPrev = pTemp;

  00027	8b d0		 mov	 edx, eax

; 635  : 		pTemp = pTemp->m_pNext;

  00029	8b c1		 mov	 eax, ecx
  0002b	85 c0		 test	 eax, eax
  0002d	75 f1		 jne	 SHORT $LL2@RemoveTerm

; 636  : 	}
; 637  : 
; 638  : 	s_CSSystem.Leave();
; 639  : 
; 640  : 	I3TRACE("No More Thread\n");
; 641  : }

  0002f	5e		 pop	 esi
  00030	b9 00 00 00 00	 mov	 ecx, OFFSET ?s_CSSystem@@3Vi3Mutex2@@A
  00035	5d		 pop	 ebp
  00036	e9 00 00 00 00	 jmp	 ?Leave@i3Mutex2@@QAEXXZ	; i3Mutex2::Leave
$LN9@RemoveTerm:

; 622  : 		{ 
; 623  : 			if(pPrev != NULL)

  0003b	85 d2		 test	 edx, edx
  0003d	74 04		 je	 SHORT $LN5@RemoveTerm

; 624  : 			{
; 625  : 				pPrev->m_pNext = pTemp->m_pNext;	

  0003f	89 0a		 mov	 DWORD PTR [edx], ecx

; 626  : 			}

  00041	eb 06		 jmp	 SHORT $LN6@RemoveTerm
$LN5@RemoveTerm:

; 627  : 			else s_pHead = pTemp->m_pNext;

  00043	89 0d 00 00 00
	00		 mov	 DWORD PTR ?s_pHead@@3PAU_tagTerminateInfo@@A, ecx
$LN6@RemoveTerm:

; 628  : 
; 629  : 			i3MemFree( pTemp);

  00049	68 75 02 00 00	 push	 629			; 00000275H
  0004e	68 00 00 00 00	 push	 OFFSET ??_C@_0GD@IGODELLK@E?3?2Proyectos?2JuegosOnlineproyec@
  00053	50		 push	 eax
  00054	e8 00 00 00 00	 call	 ?FreeTool@i3mem@@YAXPAXPBDH@Z ; i3mem::FreeTool
  00059	83 c4 0c	 add	 esp, 12			; 0000000cH
  0005c	5e		 pop	 esi
$LN3@RemoveTerm:

; 636  : 	}
; 637  : 
; 638  : 	s_CSSystem.Leave();
; 639  : 
; 640  : 	I3TRACE("No More Thread\n");
; 641  : }

  0005d	b9 00 00 00 00	 mov	 ecx, OFFSET ?s_CSSystem@@3Vi3Mutex2@@A
  00062	5d		 pop	 ebp
  00063	e9 00 00 00 00	 jmp	 ?Leave@i3Mutex2@@QAEXXZ	; i3Mutex2::Leave
?RemoveTerminateProc@i3System@@YAXP6AHPAX@Z@Z ENDP	; i3System::RemoveTerminateProc
_TEXT	ENDS
; Function compile flags: /Ogtp
; File E:\Proyectos\JuegosOnlineproyectos\PB\pbblow\Piercing Blow Remake\i3Server\src\i3Base\i3System.cpp
;	COMDAT ?AddTerminateProc@i3System@@YAXHP6AHPAX@Z0@Z
_TEXT	SEGMENT
_prio$ = 8						; size = 4
_pProc$ = 12						; size = 4
_pUserData$ = 16					; size = 4
?AddTerminateProc@i3System@@YAXHP6AHPAX@Z0@Z PROC	; i3System::AddTerminateProc, COMDAT

; 568  : {

  00000	55		 push	 ebp
  00001	8b ec		 mov	 ebp, esp
  00003	56		 push	 esi
  00004	57		 push	 edi

; 569  : 	I3_TERMINATE_INFO * pNew, * pTemp;
; 570  : 
; 571  : 	pNew = (I3_TERMINATE_INFO *) i3MemAlloc( sizeof(I3_TERMINATE_INFO));

  00005	68 3b 02 00 00	 push	 571			; 0000023bH
  0000a	68 00 00 00 00	 push	 OFFSET ??_C@_0GD@IGODELLK@E?3?2Proyectos?2JuegosOnlineproyec@
  0000f	6a 10		 push	 16			; 00000010H
  00011	6a 00		 push	 0
  00013	6a 10		 push	 16			; 00000010H
  00015	e8 00 00 00 00	 call	 ?AllocTool@i3mem@@YAPAXHHHPBDH@Z ; i3mem::AllocTool

; 572  : 
; 573  : 	I3ASSERT( pNew != NULL);
; 574  : 
; 575  : 	pNew->m_Priority = prio;
; 576  : 	pNew->m_pProc = pProc;

  0001a	8b 4d 0c	 mov	 ecx, DWORD PTR _pProc$[ebp]
  0001d	8b f0		 mov	 esi, eax
  0001f	8b 7d 08	 mov	 edi, DWORD PTR _prio$[ebp]
  00022	83 c4 14	 add	 esp, 20			; 00000014H
  00025	89 4e 08	 mov	 DWORD PTR [esi+8], ecx

; 577  : 	pNew->m_pUserData = pUserData;

  00028	8b 4d 10	 mov	 ecx, DWORD PTR _pUserData$[ebp]
  0002b	89 4e 0c	 mov	 DWORD PTR [esi+12], ecx

; 578  : 	pNew->m_pNext = NULL;
; 579  : 
; 580  : 	// Insert Point °Ë»ö
; 581  : 	s_CSSystem.Enter();

  0002e	b9 00 00 00 00	 mov	 ecx, OFFSET ?s_CSSystem@@3Vi3Mutex2@@A
  00033	89 7e 04	 mov	 DWORD PTR [esi+4], edi
  00036	c7 06 00 00 00
	00		 mov	 DWORD PTR [esi], 0
  0003c	e8 00 00 00 00	 call	 ?Enter@i3Mutex2@@QAEXXZ	; i3Mutex2::Enter

; 582  : 	{
; 583  : 		I3_TERMINATE_INFO * pPrev = NULL;
; 584  : 		pTemp = s_pHead;

  00041	8b 15 00 00 00
	00		 mov	 edx, DWORD PTR ?s_pHead@@3PAU_tagTerminateInfo@@A
  00047	33 c9		 xor	 ecx, ecx
  00049	8b c2		 mov	 eax, edx

; 585  : 
; 586  : 		while((pTemp != NULL) && (pTemp->m_Priority >= prio))

  0004b	85 c0		 test	 eax, eax
  0004d	74 25		 je	 SHORT $LN12@AddTermina
  0004f	90		 npad	 1
$LL2@AddTermina:
  00050	39 78 04	 cmp	 DWORD PTR [eax+4], edi
  00053	7c 08		 jl	 SHORT $LN3@AddTermina

; 587  : 		{
; 588  : 			pPrev = pTemp;

  00055	8b c8		 mov	 ecx, eax

; 589  : 			pTemp = pTemp->m_pNext;

  00057	8b 00		 mov	 eax, DWORD PTR [eax]
  00059	85 c0		 test	 eax, eax
  0005b	75 f3		 jne	 SHORT $LL2@AddTermina
$LN3@AddTermina:

; 590  : 		}
; 591  : 
; 592  : 		if( pPrev == NULL)

  0005d	85 c9		 test	 ecx, ecx
  0005f	74 13		 je	 SHORT $LN12@AddTermina

; 597  : 			}
; 598  : 
; 599  : 			s_pHead = pNew;
; 600  : 		}
; 601  : 		else
; 602  : 		{
; 603  : 			pTemp = pPrev->m_pNext;

  00061	8b 01		 mov	 eax, DWORD PTR [ecx]

; 604  : 			pPrev->m_pNext = pNew;

  00063	89 31		 mov	 DWORD PTR [ecx], esi

; 605  : 			pNew->m_pNext = pTemp;
; 606  : 		}
; 607  : 	}
; 608  : 	s_CSSystem.Leave();

  00065	b9 00 00 00 00	 mov	 ecx, OFFSET ?s_CSSystem@@3Vi3Mutex2@@A
  0006a	5f		 pop	 edi
  0006b	89 06		 mov	 DWORD PTR [esi], eax
  0006d	5e		 pop	 esi

; 609  : }

  0006e	5d		 pop	 ebp

; 605  : 			pNew->m_pNext = pTemp;
; 606  : 		}
; 607  : 	}
; 608  : 	s_CSSystem.Leave();

  0006f	e9 00 00 00 00	 jmp	 ?Leave@i3Mutex2@@QAEXXZ	; i3Mutex2::Leave
$LN12@AddTermina:

; 593  : 		{
; 594  : 			if( s_pHead != NULL)

  00074	85 d2		 test	 edx, edx
  00076	74 02		 je	 SHORT $LN6@AddTermina

; 595  : 			{
; 596  : 				pNew->m_pNext = s_pHead;

  00078	89 16		 mov	 DWORD PTR [esi], edx
$LN6@AddTermina:

; 605  : 			pNew->m_pNext = pTemp;
; 606  : 		}
; 607  : 	}
; 608  : 	s_CSSystem.Leave();

  0007a	5f		 pop	 edi
  0007b	89 35 00 00 00
	00		 mov	 DWORD PTR ?s_pHead@@3PAU_tagTerminateInfo@@A, esi
  00081	b9 00 00 00 00	 mov	 ecx, OFFSET ?s_CSSystem@@3Vi3Mutex2@@A
  00086	5e		 pop	 esi

; 609  : }

  00087	5d		 pop	 ebp

; 605  : 			pNew->m_pNext = pTemp;
; 606  : 		}
; 607  : 	}
; 608  : 	s_CSSystem.Leave();

  00088	e9 00 00 00 00	 jmp	 ?Leave@i3Mutex2@@QAEXXZ	; i3Mutex2::Leave
?AddTerminateProc@i3System@@YAXHP6AHPAX@Z0@Z ENDP	; i3System::AddTerminateProc
_TEXT	ENDS
; Function compile flags: /Ogtp
; File E:\Proyectos\JuegosOnlineproyectos\PB\pbblow\Piercing Blow Remake\i3Server\src\i3Base\i3System.cpp
;	COMDAT ?SendMailBugReport@i3System@@YAXPAD0@Z
_TEXT	SEGMENT
_mail$ = -4084						; size = 464
_sysTime$2 = -3620					; size = 16
_szTime$3 = -3604					; size = 2048
_szPath$4 = -1556					; size = 1024
_szRunApp$5 = -532					; size = 256
_szDirPath$6 = -276					; size = 260
__$ArrayPad$ = -16					; size = 4
__$EHRec$ = -12						; size = 12
_pszTemp$ = 8						; size = 4
_pszFileName$ = 12					; size = 4
?SendMailBugReport@i3System@@YAXPAD0@Z PROC		; i3System::SendMailBugReport, COMDAT

; 516  : {

  00000	55		 push	 ebp
  00001	8b ec		 mov	 ebp, esp
  00003	6a ff		 push	 -1
  00005	68 00 00 00 00	 push	 __ehhandler$?SendMailBugReport@i3System@@YAXPAD0@Z
  0000a	64 a1 00 00 00
	00		 mov	 eax, DWORD PTR fs:0
  00010	50		 push	 eax
  00011	81 ec e8 0f 00
	00		 sub	 esp, 4072		; 00000fe8H
  00017	a1 00 00 00 00	 mov	 eax, DWORD PTR ___security_cookie
  0001c	33 c5		 xor	 eax, ebp
  0001e	89 45 f0	 mov	 DWORD PTR __$ArrayPad$[ebp], eax
  00021	56		 push	 esi
  00022	57		 push	 edi
  00023	50		 push	 eax
  00024	8d 45 f4	 lea	 eax, DWORD PTR __$EHRec$[ebp]
  00027	64 a3 00 00 00
	00		 mov	 DWORD PTR fs:0, eax
  0002d	8b 7d 08	 mov	 edi, DWORD PTR _pszTemp$[ebp]

; 517  : #if defined (I3_WINDOWS)
; 518  : 	// Bug Report¸¦ ¸ŢŔĎ·Î ąßĽŰÇŐ´Ď´Ů.
; 519  : 	i3SMTPMail	mail;

  00030	8d 8d 0c f0 ff
	ff		 lea	 ecx, DWORD PTR _mail$[ebp]
  00036	8b 75 0c	 mov	 esi, DWORD PTR _pszFileName$[ebp]
  00039	e8 00 00 00 00	 call	 ??0i3SMTPMail@@QAE@XZ	; i3SMTPMail::i3SMTPMail

; 520  : 	if( mail.ConnectServer( "mail.zepetto.com" ) ) 

  0003e	6a 00		 push	 0
  00040	68 00 00 00 00	 push	 OFFSET ??_C@_0BB@BJPIHJLL@mail?4zepetto?4com@
  00045	8d 8d 0c f0 ff
	ff		 lea	 ecx, DWORD PTR _mail$[ebp]
  0004b	c7 45 fc 00 00
	00 00		 mov	 DWORD PTR __$EHRec$[ebp+8], 0
  00052	e8 00 00 00 00	 call	 ?ConnectServer@i3SMTPMail@@QAEHPBDG@Z ; i3SMTPMail::ConnectServer
  00057	85 c0		 test	 eax, eax
  00059	0f 84 63 01 00
	00		 je	 $LN4@SendMailBu

; 521  : 	{
; 522  : 		SYSTEMTIME sysTime;
; 523  : 		::GetLocalTime(&sysTime);

  0005f	8d 85 dc f1 ff
	ff		 lea	 eax, DWORD PTR _sysTime$2[ebp]
  00065	50		 push	 eax
  00066	ff 15 00 00 00
	00		 call	 DWORD PTR __imp__GetLocalTime@4

; 524  : 		char szTime[2048];
; 525  : 	
; 526  : 		// ş¸ł»´Â»ç¶÷
; 527  : 		mail.SetSenderName("User");

  0006c	68 00 00 00 00	 push	 OFFSET ??_C@_04ODLBFFJE@User@
  00071	8d 8d 0c f0 ff
	ff		 lea	 ecx, DWORD PTR _mail$[ebp]
  00077	e8 00 00 00 00	 call	 ?SetSenderName@i3SMTPMail@@QAEXPBD@Z ; i3SMTPMail::SetSenderName

; 528  : 		mail.SetSenderEmail("User@User.com");

  0007c	68 00 00 00 00	 push	 OFFSET ??_C@_0O@EDBDMJLF@User?$EAUser?4com@
  00081	8d 8d 0c f0 ff
	ff		 lea	 ecx, DWORD PTR _mail$[ebp]
  00087	e8 00 00 00 00	 call	 ?SetSenderEmail@i3SMTPMail@@QAEXPBD@Z ; i3SMTPMail::SetSenderEmail

; 529  : 
; 530  : 		// ąŢ´Â»ç¶÷
; 531  : 		mail.AddRecipient("program@Zepetto.com");

  0008c	68 00 00 00 00	 push	 OFFSET ??_C@_00CNPNBAHC@@
  00091	68 00 00 00 00	 push	 OFFSET ??_C@_0BE@EOKPPGJO@program?$EAZepetto?4com@
  00096	8d 8d 0c f0 ff
	ff		 lea	 ecx, DWORD PTR _mail$[ebp]
  0009c	e8 00 00 00 00	 call	 ?AddRecipient@i3SMTPMail@@QAEHQBD0@Z ; i3SMTPMail::AddRecipient

; 532  : 		//mail.AddRecipient("lene3@Zepetto.com");
; 533  : 
; 534  : 		// ¸ŢŔĎÁ¦¸ń
; 535  : 		char szPath[1024] = {0,};

  000a1	68 00 04 00 00	 push	 1024			; 00000400H
  000a6	8d 85 ec f9 ff
	ff		 lea	 eax, DWORD PTR _szPath$4[ebp]
  000ac	6a 00		 push	 0
  000ae	50		 push	 eax
  000af	e8 00 00 00 00	 call	 _memset

; 536  : 		char szRunApp[256] = {0,};

  000b4	68 00 01 00 00	 push	 256			; 00000100H
  000b9	8d 85 ec fd ff
	ff		 lea	 eax, DWORD PTR _szRunApp$5[ebp]
  000bf	6a 00		 push	 0
  000c1	50		 push	 eax
  000c2	e8 00 00 00 00	 call	 _memset
  000c7	83 c4 18	 add	 esp, 24			; 00000018H

; 537  : 		::GetModuleFileName(NULL, szPath, 256);

  000ca	8d 85 ec f9 ff
	ff		 lea	 eax, DWORD PTR _szPath$4[ebp]
  000d0	68 00 01 00 00	 push	 256			; 00000100H
  000d5	50		 push	 eax
  000d6	6a 00		 push	 0
  000d8	ff 15 00 00 00
	00		 call	 DWORD PTR __imp__GetModuleFileNameA@12

; 538  : 		i3String::SplitFileName( szPath, szRunApp, FALSE);

  000de	6a 00		 push	 0
  000e0	8d 85 ec fd ff
	ff		 lea	 eax, DWORD PTR _szRunApp$5[ebp]
  000e6	50		 push	 eax
  000e7	8d 85 ec f9 ff
	ff		 lea	 eax, DWORD PTR _szPath$4[ebp]
  000ed	50		 push	 eax
  000ee	e8 00 00 00 00	 call	 ?SplitFileName@i3String@@YAPADPBDPADH@Z ; i3String::SplitFileName

; 539  : 		sprintf( szTime, "[App name: %s] Bug Report[Date:%02d%02d  Time:%02d:%02d:%02d]", szRunApp, sysTime.wMonth, sysTime.wDay, sysTime.wHour, sysTime.wMinute, sysTime.wSecond);

  000f3	0f b7 85 e8 f1
	ff ff		 movzx	 eax, WORD PTR _sysTime$2[ebp+12]
  000fa	50		 push	 eax
  000fb	0f b7 85 e6 f1
	ff ff		 movzx	 eax, WORD PTR _sysTime$2[ebp+10]
  00102	50		 push	 eax
  00103	0f b7 85 e4 f1
	ff ff		 movzx	 eax, WORD PTR _sysTime$2[ebp+8]
  0010a	50		 push	 eax
  0010b	0f b7 85 e2 f1
	ff ff		 movzx	 eax, WORD PTR _sysTime$2[ebp+6]
  00112	50		 push	 eax
  00113	0f b7 85 de f1
	ff ff		 movzx	 eax, WORD PTR _sysTime$2[ebp+2]
  0011a	50		 push	 eax
  0011b	8d 85 ec fd ff
	ff		 lea	 eax, DWORD PTR _szRunApp$5[ebp]
  00121	50		 push	 eax
  00122	8d 85 ec f1 ff
	ff		 lea	 eax, DWORD PTR _szTime$3[ebp]
  00128	68 00 00 00 00	 push	 OFFSET ??_C@_0DO@COHJBLHH@?$FLApp?5name?3?5?$CFs?$FN?5Bug?5Report?$FLDate?3@
  0012d	50		 push	 eax
  0012e	e8 00 00 00 00	 call	 _sprintf
  00133	83 c4 2c	 add	 esp, 44			; 0000002cH

; 540  : 		mail.SetSubject(szTime);

  00136	8d 85 ec f1 ff
	ff		 lea	 eax, DWORD PTR _szTime$3[ebp]
  0013c	8d 8d 0c f0 ff
	ff		 lea	 ecx, DWORD PTR _mail$[ebp]
  00142	50		 push	 eax
  00143	e8 00 00 00 00	 call	 ?SetSubject@i3SMTPMail@@QAEXPBD@Z ; i3SMTPMail::SetSubject

; 541  : 		
; 542  : 		// ¸ŢŔĎł»żë
; 543  : 		mail.SetMessageBody( pszTemp);			

  00148	57		 push	 edi
  00149	8d 8d 0c f0 ff
	ff		 lea	 ecx, DWORD PTR _mail$[ebp]
  0014f	e8 00 00 00 00	 call	 ?SetMessageBody@i3SMTPMail@@QAEXPBD@Z ; i3SMTPMail::SetMessageBody

; 544  : 		
; 545  : 		// Ăß°ˇĆÄŔĎ		
; 546  : 		if( pszFileName )

  00154	85 f6		 test	 esi, esi
  00156	74 45		 je	 SHORT $LN3@SendMailBu

; 547  : 		{
; 548  : 			char szDirPath[MAX_PATH];
; 549  : 			GetCurrentDirectory(MAX_PATH, szDirPath); 

  00158	8d 85 ec fe ff
	ff		 lea	 eax, DWORD PTR _szDirPath$6[ebp]
  0015e	50		 push	 eax
  0015f	68 04 01 00 00	 push	 260			; 00000104H
  00164	ff 15 00 00 00
	00		 call	 DWORD PTR __imp__GetCurrentDirectoryA@8

; 550  : 			i3String::Concat(szDirPath, "\\");

  0016a	8d 85 ec fe ff
	ff		 lea	 eax, DWORD PTR _szDirPath$6[ebp]
  00170	68 00 00 00 00	 push	 OFFSET ??_C@_01KICIPPFI@?2@
  00175	50		 push	 eax
  00176	e8 00 00 00 00	 call	 ?Concat@i3String@@YAXPADPBD@Z ; i3String::Concat

; 551  : 			i3String::Concat(szDirPath, pszFileName);

  0017b	8d 85 ec fe ff
	ff		 lea	 eax, DWORD PTR _szDirPath$6[ebp]
  00181	56		 push	 esi
  00182	50		 push	 eax
  00183	e8 00 00 00 00	 call	 ?Concat@i3String@@YAXPADPBD@Z ; i3String::Concat
  00188	83 c4 10	 add	 esp, 16			; 00000010H

; 552  : 
; 553  : 			mail.SetFileAttach(szDirPath);		

  0018b	8d 85 ec fe ff
	ff		 lea	 eax, DWORD PTR _szDirPath$6[ebp]
  00191	8d 8d 0c f0 ff
	ff		 lea	 ecx, DWORD PTR _mail$[ebp]
  00197	50		 push	 eax
  00198	e8 00 00 00 00	 call	 ?SetFileAttach@i3SMTPMail@@QAEHPAD@Z ; i3SMTPMail::SetFileAttach
$LN3@SendMailBu:

; 554  : 		}
; 555  : 		// Ăß°ˇĆÄŔĎ
; 556  : 
; 557  : 		if ( mail.GetConnectStatus() ) 

  0019d	8d 8d 0c f0 ff
	ff		 lea	 ecx, DWORD PTR _mail$[ebp]
  001a3	e8 00 00 00 00	 call	 ?GetConnectStatus@i3SMTPMail@@QAEHXZ ; i3SMTPMail::GetConnectStatus
  001a8	85 c0		 test	 eax, eax
  001aa	74 16		 je	 SHORT $LN4@SendMailBu

; 558  : 		{		
; 559  : 			mail.Send();

  001ac	8d 8d 0c f0 ff
	ff		 lea	 ecx, DWORD PTR _mail$[ebp]
  001b2	e8 00 00 00 00	 call	 ?Send@i3SMTPMail@@QAEHXZ ; i3SMTPMail::Send

; 560  : 			mail.Disconnect();					

  001b7	8d 8d 0c f0 ff
	ff		 lea	 ecx, DWORD PTR _mail$[ebp]
  001bd	e8 00 00 00 00	 call	 ?Disconnect@i3SMTPMail@@QAEHXZ ; i3SMTPMail::Disconnect
$LN4@SendMailBu:

; 561  : 		}
; 562  : 	}
; 563  : 
; 564  : #endif
; 565  : }

  001c2	8d 8d 0c f0 ff
	ff		 lea	 ecx, DWORD PTR _mail$[ebp]
  001c8	e8 00 00 00 00	 call	 ??1i3SMTPMail@@UAE@XZ	; i3SMTPMail::~i3SMTPMail
  001cd	8b 4d f4	 mov	 ecx, DWORD PTR __$EHRec$[ebp]
  001d0	64 89 0d 00 00
	00 00		 mov	 DWORD PTR fs:0, ecx
  001d7	59		 pop	 ecx
  001d8	5f		 pop	 edi
  001d9	5e		 pop	 esi
  001da	8b 4d f0	 mov	 ecx, DWORD PTR __$ArrayPad$[ebp]
  001dd	33 cd		 xor	 ecx, ebp
  001df	e8 00 00 00 00	 call	 @__security_check_cookie@4
  001e4	8b e5		 mov	 esp, ebp
  001e6	5d		 pop	 ebp
  001e7	c3		 ret	 0
_TEXT	ENDS
;	COMDAT text$x
text$x	SEGMENT
__unwindfunclet$?SendMailBugReport@i3System@@YAXPAD0@Z$0:
  00000	8d 8d 0c f0 ff
	ff		 lea	 ecx, DWORD PTR _mail$[ebp]
  00006	e9 00 00 00 00	 jmp	 ??1i3SMTPMail@@UAE@XZ	; i3SMTPMail::~i3SMTPMail
  0000b	cc		 int	 3
  0000c	cc		 int	 3
  0000d	cc		 int	 3
  0000e	cc		 int	 3
  0000f	cc		 int	 3
__ehhandler$?SendMailBugReport@i3System@@YAXPAD0@Z:
  00010	90		 npad	 1
  00011	90		 npad	 1
  00012	8b 54 24 08	 mov	 edx, DWORD PTR [esp+8]
  00016	8d 42 0c	 lea	 eax, DWORD PTR [edx+12]
  00019	8b 8a 0c f0 ff
	ff		 mov	 ecx, DWORD PTR [edx-4084]
  0001f	33 c8		 xor	 ecx, eax
  00021	e8 00 00 00 00	 call	 @__security_check_cookie@4
  00026	8b 4a fc	 mov	 ecx, DWORD PTR [edx-4]
  00029	33 c8		 xor	 ecx, eax
  0002b	e8 00 00 00 00	 call	 @__security_check_cookie@4
  00030	b8 00 00 00 00	 mov	 eax, OFFSET __ehfuncinfo$?SendMailBugReport@i3System@@YAXPAD0@Z
  00035	e9 00 00 00 00	 jmp	 ___CxxFrameHandler3
text$x	ENDS
?SendMailBugReport@i3System@@YAXPAD0@Z ENDP		; i3System::SendMailBugReport
; Function compile flags: /Ogtp
; File E:\Proyectos\JuegosOnlineproyectos\PB\pbblow\Piercing Blow Remake\i3Server\src\i3Base\i3System.cpp
;	COMDAT ?Benchmark_FLOPS@i3System@@YAHHHM@Z
_TEXT	SEGMENT
_nTimes$ = 8						; size = 4
_PassCount$ = 12					; size = 4
_runSecs$ = 16						; size = 4
?Benchmark_FLOPS@i3System@@YAHHHM@Z PROC		; i3System::Benchmark_FLOPS, COMDAT

; 1192 : {

  00000	55		 push	 ebp
  00001	8b ec		 mov	 ebp, esp

; 1193 : 	INT32 flops = (INT32) CalcFLOPS_Linpack( nTimes, PassCount, runSecs);

  00003	d9 45 10	 fld	 DWORD PTR _runSecs$[ebp]
  00006	51		 push	 ecx
  00007	d9 1c 24	 fstp	 DWORD PTR [esp]
  0000a	ff 75 0c	 push	 DWORD PTR _PassCount$[ebp]
  0000d	ff 75 08	 push	 DWORD PTR _nTimes$[ebp]
  00010	e8 00 00 00 00	 call	 ?CalcFLOPS_Linpack@@YANHHM@Z ; CalcFLOPS_Linpack
  00015	83 c4 0c	 add	 esp, 12			; 0000000cH

; 1194 : 
; 1195 : 	return flops;
; 1196 : }

  00018	5d		 pop	 ebp

; 1193 : 	INT32 flops = (INT32) CalcFLOPS_Linpack( nTimes, PassCount, runSecs);

  00019	e9 00 00 00 00	 jmp	 __ftol2_sse
?Benchmark_FLOPS@i3System@@YAHHHM@Z ENDP		; i3System::Benchmark_FLOPS
_TEXT	ENDS
; Function compile flags: /Ogtp
; File E:\Proyectos\JuegosOnlineproyectos\PB\pbblow\Piercing Blow Remake\i3Server\src\i3Base\i3System.cpp
;	COMDAT ?GetProcessList@i3System@@YAXPAD@Z
_TEXT	SEGMENT
_pszTemp$GSCopy$1$ = -2480				; size = 4
_pe32$ = -2476						; size = 296
_szResult$ = -2180					; size = 2048
_szTemp$ = -132						; size = 128
__$ArrayPad$ = -4					; size = 4
_pszTemp$ = 8						; size = 4
?GetProcessList@i3System@@YAXPAD@Z PROC			; i3System::GetProcessList, COMDAT

; 457  : {

  00000	55		 push	 ebp
  00001	8b ec		 mov	 ebp, esp
  00003	81 ec b0 09 00
	00		 sub	 esp, 2480		; 000009b0H
  00009	a1 00 00 00 00	 mov	 eax, DWORD PTR ___security_cookie
  0000e	33 c5		 xor	 eax, ebp
  00010	89 45 fc	 mov	 DWORD PTR __$ArrayPad$[ebp], eax
  00013	8b 45 08	 mov	 eax, DWORD PTR _pszTemp$[ebp]
  00016	53		 push	 ebx

; 458  : #if defined( I3_WINDOWS )
; 459  : 	HANDLE         hProcessSnap = NULL; 
; 460  : 	PROCESSENTRY32 pe32         = {0};

  00017	68 28 01 00 00	 push	 296			; 00000128H
  0001c	89 85 50 f6 ff
	ff		 mov	 DWORD PTR _pszTemp$GSCopy$1$[ebp], eax
  00022	8d 85 54 f6 ff
	ff		 lea	 eax, DWORD PTR _pe32$[ebp]
  00028	6a 00		 push	 0
  0002a	50		 push	 eax
  0002b	e8 00 00 00 00	 call	 _memset

; 461  : 	char			szTemp[128] = {0,};

  00030	68 80 00 00 00	 push	 128			; 00000080H
  00035	8d 85 7c ff ff
	ff		 lea	 eax, DWORD PTR _szTemp$[ebp]
  0003b	6a 00		 push	 0
  0003d	50		 push	 eax
  0003e	e8 00 00 00 00	 call	 _memset

; 462  : 	char			szResult[2048] = {0,};

  00043	68 00 08 00 00	 push	 2048			; 00000800H
  00048	8d 85 7c f7 ff
	ff		 lea	 eax, DWORD PTR _szResult$[ebp]
  0004e	6a 00		 push	 0
  00050	50		 push	 eax
  00051	e8 00 00 00 00	 call	 _memset
  00056	83 c4 24	 add	 esp, 36			; 00000024H

; 463  : 
; 464  : 	//ÇÁ·ÎĽĽ˝şŔÇ ˝şłŔĽ¦Ŕ» »ýĽşÇŃ´Ů.
; 465  : 	hProcessSnap = CreateToolhelp32Snapshot(TH32CS_SNAPPROCESS, 0); 

  00059	6a 00		 push	 0
  0005b	6a 02		 push	 2
  0005d	e8 00 00 00 00	 call	 _CreateToolhelp32Snapshot@8
  00062	8b d8		 mov	 ebx, eax

; 466  : 
; 467  : 	if (hProcessSnap == INVALID_HANDLE_VALUE) 

  00064	83 fb ff	 cmp	 ebx, -1
  00067	0f 84 ba 00 00
	00		 je	 $LN6@GetProcess

; 468  : 		return; 
; 469  : 
; 470  : 	pe32.dwSize = sizeof(PROCESSENTRY32);
; 471  : 
; 472  : 	//˝Ă˝şĹŰŔÇ ¸đµç ÇÁ·ÎĽĽ˝ş¸¦ °ˇÁ®żÍ processNameżÍ ŔĚ¸§ŔĚ °°Ŕş °ÍŔÇ Ä«żîĆ®¸¦ ¸®ĹĎ.
; 473  : 	if (Process32First(hProcessSnap, &pe32))

  0006d	8d 85 54 f6 ff
	ff		 lea	 eax, DWORD PTR _pe32$[ebp]
  00073	c7 85 54 f6 ff
	ff 28 01 00 00	 mov	 DWORD PTR _pe32$[ebp], 296 ; 00000128H
  0007d	50		 push	 eax
  0007e	53		 push	 ebx
  0007f	e8 00 00 00 00	 call	 _Process32First@8
  00084	85 c0		 test	 eax, eax
  00086	0f 84 9b 00 00
	00		 je	 $LN6@GetProcess

; 474  : 	{ 
; 475  : 		INT32 nCount = 0;

  0008c	56		 push	 esi
  0008d	57		 push	 edi
  0008e	33 f6		 xor	 esi, esi
$LL4@GetProcess:

; 476  : 		DWORD         dwPriorityClass; 
; 477  : 
; 478  : 		do 
; 479  : 		{ 
; 480  : 			HANDLE hProcess; 
; 481  : 
; 482  : 			// Get the actual priority class. 
; 483  : 			hProcess = OpenProcess (PROCESS_ALL_ACCESS, FALSE, pe32.th32ProcessID); 

  00090	ff b5 5c f6 ff
	ff		 push	 DWORD PTR _pe32$[ebp+8]
  00096	6a 00		 push	 0
  00098	68 ff 0f 1f 00	 push	 2035711			; 001f0fffH
  0009d	ff 15 00 00 00
	00		 call	 DWORD PTR __imp__OpenProcess@12
  000a3	8b f8		 mov	 edi, eax

; 484  : 			dwPriorityClass = GetPriorityClass (hProcess); 

  000a5	57		 push	 edi
  000a6	ff 15 00 00 00
	00		 call	 DWORD PTR __imp__GetPriorityClass@4

; 485  : 
; 486  : 			if( nCount == 0)

  000ac	8d 85 78 f6 ff
	ff		 lea	 eax, DWORD PTR _pe32$[ebp+36]
  000b2	50		 push	 eax
  000b3	8d 85 7c ff ff
	ff		 lea	 eax, DWORD PTR _szTemp$[ebp]
  000b9	85 f6		 test	 esi, esi
  000bb	75 10		 jne	 SHORT $LN8@GetProcess

; 487  : 			{
; 488  : 				sprintf( szTemp, "%s\n", pe32.szExeFile);

  000bd	68 00 00 00 00	 push	 OFFSET ??_C@_03OFAPEBGM@?$CFs?6@
  000c2	50		 push	 eax
  000c3	e8 00 00 00 00	 call	 _sprintf
  000c8	83 c4 0c	 add	 esp, 12			; 0000000cH

; 489  : 				i3String::Concat( szResult, szTemp);
; 490  : 
; 491  : 			}

  000cb	eb 0f		 jmp	 SHORT $LN9@GetProcess
$LN8@GetProcess:

; 492  : 			else
; 493  : 			{
; 494  : 				sprintf( szTemp, "%02d = %s\n", nCount, pe32.szExeFile);

  000cd	56		 push	 esi
  000ce	68 00 00 00 00	 push	 OFFSET ??_C@_0L@NCAKMKMP@?$CF02d?5?$DN?5?$CFs?6@
  000d3	50		 push	 eax
  000d4	e8 00 00 00 00	 call	 _sprintf
  000d9	83 c4 10	 add	 esp, 16			; 00000010H
$LN9@GetProcess:

; 495  : 				i3String::Concat( szResult, szTemp);
; 496  : 			}
; 497  : 			
; 498  : 			nCount++;

  000dc	8d 85 7c ff ff
	ff		 lea	 eax, DWORD PTR _szTemp$[ebp]
  000e2	50		 push	 eax
  000e3	8d 85 7c f7 ff
	ff		 lea	 eax, DWORD PTR _szResult$[ebp]
  000e9	50		 push	 eax
  000ea	e8 00 00 00 00	 call	 ?Concat@i3String@@YAXPADPBD@Z ; i3String::Concat
  000ef	83 c4 08	 add	 esp, 8
  000f2	46		 inc	 esi

; 499  : 
; 500  : 			CloseHandle (hProcess);

  000f3	57		 push	 edi
  000f4	8b 3d 00 00 00
	00		 mov	 edi, DWORD PTR __imp__CloseHandle@4
  000fa	ff d7		 call	 edi

; 501  : 		} 
; 502  : 		while (Process32Next(hProcessSnap, &pe32));

  000fc	8d 85 54 f6 ff
	ff		 lea	 eax, DWORD PTR _pe32$[ebp]
  00102	50		 push	 eax
  00103	53		 push	 ebx
  00104	e8 00 00 00 00	 call	 _Process32Next@8
  00109	85 c0		 test	 eax, eax
  0010b	75 83		 jne	 SHORT $LL4@GetProcess

; 503  : 	} 
; 504  : 	else
; 505  : 		return;
; 506  : 
; 507  : 	// could not walk the list of processes 
; 508  : 	// Do not forget to clean up the snapshot object. 
; 509  : 	CloseHandle (hProcessSnap);

  0010d	53		 push	 ebx
  0010e	ff d7		 call	 edi

; 510  : 
; 511  : 	i3String::Concat( pszTemp, szResult);

  00110	8d 85 7c f7 ff
	ff		 lea	 eax, DWORD PTR _szResult$[ebp]
  00116	50		 push	 eax
  00117	ff b5 50 f6 ff
	ff		 push	 DWORD PTR _pszTemp$GSCopy$1$[ebp]
  0011d	e8 00 00 00 00	 call	 ?Concat@i3String@@YAXPADPBD@Z ; i3String::Concat
  00122	83 c4 08	 add	 esp, 8
  00125	5f		 pop	 edi
  00126	5e		 pop	 esi
$LN6@GetProcess:

; 512  : #endif
; 513  : }

  00127	8b 4d fc	 mov	 ecx, DWORD PTR __$ArrayPad$[ebp]
  0012a	33 cd		 xor	 ecx, ebp
  0012c	5b		 pop	 ebx
  0012d	e8 00 00 00 00	 call	 @__security_check_cookie@4
  00132	8b e5		 mov	 esp, ebp
  00134	5d		 pop	 ebp
  00135	c3		 ret	 0
?GetProcessList@i3System@@YAXPAD@Z ENDP			; i3System::GetProcessList
_TEXT	ENDS
; Function compile flags: /Ogtp
; File E:\Proyectos\JuegosOnlineproyectos\PB\pbblow\Piercing Blow Remake\i3Server\src\i3Base\i3System.cpp
;	COMDAT ?GetDXInfo@i3System@@YAXPAD@Z
_TEXT	SEGMENT
_dwType$ = -1296					; size = 4
_dwBytes$ = -1292					; size = 4
_hKey$ = -1288						; size = 4
_szTemp$ = -1284					; size = 1024
_buffer$ = -260						; size = 256
__$ArrayPad$ = -4					; size = 4
_pszTemp$ = 8						; size = 4
?GetDXInfo@i3System@@YAXPAD@Z PROC			; i3System::GetDXInfo, COMDAT

; 428  : {

  00000	55		 push	 ebp
  00001	8b ec		 mov	 ebp, esp
  00003	81 ec 10 05 00
	00		 sub	 esp, 1296		; 00000510H
  00009	a1 00 00 00 00	 mov	 eax, DWORD PTR ___security_cookie
  0000e	33 c5		 xor	 eax, ebp
  00010	89 45 fc	 mov	 DWORD PTR __$ArrayPad$[ebp], eax
  00013	56		 push	 esi
  00014	8b 75 08	 mov	 esi, DWORD PTR _pszTemp$[ebp]

; 429  : #if defined( I3_WINDOWS )
; 430  : 	// DX Á¤ş¸
; 431  : 	LONG lResult;
; 432  : 	HKEY hKey;
; 433  : 	DWORD dwType;
; 434  : 	DWORD dwBytes=256;
; 435  : 	char buffer[256];
; 436  : 	char szTemp[1024] = {0,};

  00017	8d 85 fc fa ff
	ff		 lea	 eax, DWORD PTR _szTemp$[ebp]
  0001d	68 00 04 00 00	 push	 1024			; 00000400H
  00022	6a 00		 push	 0
  00024	50		 push	 eax
  00025	c7 85 f4 fa ff
	ff 00 01 00 00	 mov	 DWORD PTR _dwBytes$[ebp], 256 ; 00000100H
  0002f	e8 00 00 00 00	 call	 _memset
  00034	83 c4 0c	 add	 esp, 12			; 0000000cH

; 437  : 
; 438  : 	// DX Á¤ş¸
; 439  : 	lResult = RegOpenKeyEx(HKEY_LOCAL_MACHINE,"SOFTWARE\\Microsoft\\DirectX", 0, KEY_ALL_ACCESS, &hKey);

  00037	8d 85 f8 fa ff
	ff		 lea	 eax, DWORD PTR _hKey$[ebp]
  0003d	50		 push	 eax
  0003e	68 3f 00 0f 00	 push	 983103			; 000f003fH
  00043	6a 00		 push	 0
  00045	68 00 00 00 00	 push	 OFFSET ??_C@_0BL@EKBMAHOL@SOFTWARE?2Microsoft?2DirectX@
  0004a	68 02 00 00 80	 push	 -2147483646		; 80000002H
  0004f	ff 15 00 00 00
	00		 call	 DWORD PTR __imp__RegOpenKeyExA@20

; 440  : 
; 441  : 	// Read Regstry Key
; 442  : 	if( lResult == ERROR_SUCCESS ) 

  00055	85 c0		 test	 eax, eax
  00057	75 63		 jne	 SHORT $LN2@GetDXInfo

; 443  : 	{
; 444  : 		sprintf( szTemp, " ->»çżëżą: 4.08.02.0134ŔĚ¶ó¸é, 4´Â °íÁ¤, 8Ŕş ¸ŢŔĚŔú ąöÁŻ, 2´Â ¸¶ŔĚłĘ ąöÁŻ, 0134´Â şôµĺąřČŁ\n {ÂüÁ¶: http://msdn.microsoft.com/archive/default.asp?url=/archive/en-us/directx9_c_dec_2004/directx/directxsdk/reference/DirectSetup/functions/directxsetupgetversion.asp}\n");

  00059	8d 85 fc fa ff
	ff		 lea	 eax, DWORD PTR _szTemp$[ebp]
  0005f	68 00 00 00 00	 push	 OFFSET ??_C@_0BAI@BEKFNEFG@?5?9?$DO?$LL?g?$LP?k?$LP?$LJ?3?54?408?402?40134?$MA?L?$LG?s?$LI?i?0?5@
  00064	50		 push	 eax
  00065	e8 00 00 00 00	 call	 _sprintf
  0006a	83 c4 08	 add	 esp, 8

; 445  : 		RegQueryValueEx(hKey, "Version", 0, &dwType, (LPBYTE)buffer, &dwBytes);

  0006d	8d 85 f4 fa ff
	ff		 lea	 eax, DWORD PTR _dwBytes$[ebp]
  00073	50		 push	 eax
  00074	8d 85 fc fe ff
	ff		 lea	 eax, DWORD PTR _buffer$[ebp]
  0007a	50		 push	 eax
  0007b	8d 85 f0 fa ff
	ff		 lea	 eax, DWORD PTR _dwType$[ebp]
  00081	50		 push	 eax
  00082	6a 00		 push	 0
  00084	68 00 00 00 00	 push	 OFFSET ??_C@_07NGFJPNPN@Version@
  00089	ff b5 f8 fa ff
	ff		 push	 DWORD PTR _hKey$[ebp]
  0008f	ff 15 00 00 00
	00		 call	 DWORD PTR __imp__RegQueryValueExA@24

; 446  : 		i3String::Concat( szTemp, "DirectX = ");

  00095	8d 85 fc fa ff
	ff		 lea	 eax, DWORD PTR _szTemp$[ebp]
  0009b	68 00 00 00 00	 push	 OFFSET ??_C@_0L@KCMOCOLC@DirectX?5?$DN?5@
  000a0	50		 push	 eax
  000a1	e8 00 00 00 00	 call	 ?Concat@i3String@@YAXPADPBD@Z ; i3String::Concat

; 447  : 		i3String::Concat( szTemp, buffer);

  000a6	8d 85 fc fe ff
	ff		 lea	 eax, DWORD PTR _buffer$[ebp]
  000ac	50		 push	 eax
  000ad	8d 85 fc fa ff
	ff		 lea	 eax, DWORD PTR _szTemp$[ebp]
  000b3	50		 push	 eax
  000b4	e8 00 00 00 00	 call	 ?Concat@i3String@@YAXPADPBD@Z ; i3String::Concat
  000b9	83 c4 10	 add	 esp, 16			; 00000010H
$LN2@GetDXInfo:

; 448  : 	}
; 449  : 
; 450  : 	RegCloseKey(hKey);

  000bc	ff b5 f8 fa ff
	ff		 push	 DWORD PTR _hKey$[ebp]
  000c2	ff 15 00 00 00
	00		 call	 DWORD PTR __imp__RegCloseKey@4

; 451  : 
; 452  : 	i3String::Concat( pszTemp, szTemp);

  000c8	8d 85 fc fa ff
	ff		 lea	 eax, DWORD PTR _szTemp$[ebp]
  000ce	50		 push	 eax
  000cf	56		 push	 esi
  000d0	e8 00 00 00 00	 call	 ?Concat@i3String@@YAXPADPBD@Z ; i3String::Concat

; 453  : #endif
; 454  : }

  000d5	8b 4d fc	 mov	 ecx, DWORD PTR __$ArrayPad$[ebp]
  000d8	83 c4 08	 add	 esp, 8
  000db	33 cd		 xor	 ecx, ebp
  000dd	5e		 pop	 esi
  000de	e8 00 00 00 00	 call	 @__security_check_cookie@4
  000e3	8b e5		 mov	 esp, ebp
  000e5	5d		 pop	 ebp
  000e6	c3		 ret	 0
?GetDXInfo@i3System@@YAXPAD@Z ENDP			; i3System::GetDXInfo
_TEXT	ENDS
; Function compile flags: /Ogtp
; File E:\Proyectos\JuegosOnlineproyectos\PB\pbblow\Piercing Blow Remake\i3Server\src\i3Base\i3System.cpp
;	COMDAT ?GetMultiMediaInfo@i3System@@YAXPAD@Z
_TEXT	SEGMENT
_pszTemp$ = 8						; size = 4
?GetMultiMediaInfo@i3System@@YAXPAD@Z PROC		; i3System::GetMultiMediaInfo, COMDAT

; 236  : #if defined ( I3_WINDOW )
; 237  : 	MMRESULT mmRes = MMSYSERR_NOERROR;
; 238  :     UINT numDevices = 0;
; 239  :     UINT cbCaps;
; 240  :     WAVEOUTCAPS wavCaps;
; 241  : 	BOOL m_bIsPresent;
; 242  : 	BOOL m_bHasSeparateLRVolCtrl;
; 243  : 	BOOL m_bHasVolCtrl;
; 244  : 
; 245  : 	char m_ProductName[1024] = {0,};
; 246  : 	char m_CompanyName[1024] = {0,};
; 247  : 
; 248  : 	i3String::Concat( pszTemp, "Multimedia = ");
; 249  : 
; 250  :     // Get the number of audio output devices installed on your system.
; 251  :     numDevices = waveOutGetNumDevs();
; 252  :     m_bIsPresent = (numDevices > 0) ? TRUE : FALSE;
; 253  : 
; 254  :     // If the device is present, only then we will proceed to get other information.
; 255  :     if (m_bIsPresent)
; 256  :     {
; 257  :         cbCaps = sizeof (AUXCAPS);
; 258  :         mmRes = waveOutGetDevCaps(0, &wavCaps, cbCaps);
; 259  :         if (mmRes == MMSYSERR_NOERROR) 
; 260  :         {
; 261  :             memcpy(m_ProductName , wavCaps.szPname, 64) ;
; 262  :             m_bHasSeparateLRVolCtrl = (wavCaps.dwSupport & WAVECAPS_VOLUME) ? TRUE : FALSE;
; 263  :             m_bHasVolCtrl = (wavCaps.dwSupport & AUXCAPS_VOLUME) ? TRUE : FALSE;
; 264  : 
; 265  :             memcpy(m_CompanyName , ("ľË·ÁÁöÁö ľĘŔş »çżîµĺ Ä«µĺŔÔ´Ď´Ů.(ĽłÄˇ´Â µÇľîŔÖŔ˝)"),64);
; 266  :             switch (wavCaps.wMid) 
; 267  :             {
; 268  :                 case MM_MICROSOFT:							memcpy(m_CompanyName , ("Microsoft Corporation"), 64);                        break;
; 269  :                 case MM_CREATIVE:                        memcpy(m_CompanyName , ("Creative Labs, Inc"), 64);                        break;
; 270  :                 case MM_MEDIAVISION:                        memcpy(m_CompanyName , ("Media Vision, Inc."), 64);                        break;
; 271  :                 case MM_FUJITSU:                        memcpy(m_CompanyName , ("Fujitsu Corp."), 64) ;                        break;
; 272  :                 case MM_ARTISOFT:                        memcpy(m_CompanyName , ("Artisoft, Inc."), 64);                        break;
; 273  :                 case MM_TURTLE_BEACH:                        memcpy(m_CompanyName , ("Turtle Beach, Inc."), 64);                        break;
; 274  :                 case MM_IBM:                        memcpy(m_CompanyName , ("IBM Corporation"), 64);                        break;
; 275  :                 case MM_VOCALTEC:                        memcpy(m_CompanyName ,  ("Vocaltec LTD."), 64);                        break;
; 276  :                 case MM_ROLAND:                        memcpy(m_CompanyName , ("Roland"), 64);                        break;
; 277  :                 case MM_DSP_SOLUTIONS:                        memcpy(m_CompanyName , ("DSP Solutions, Inc."), 64);                        break;
; 278  :                 case MM_NEC:                        memcpy(m_CompanyName , ("NEC"), 64);                        break;
; 279  :                 case MM_ATI:                        memcpy(m_CompanyName , ("ATI"), 64);                        break;
; 280  :                 case MM_WANGLABS:                        memcpy(m_CompanyName , ("Wang Laboratories, Inc"), 64);                        break;
; 281  :                 case MM_TANDY:                        memcpy(m_CompanyName , ("Tandy Corporation"), 64);                        break;
; 282  :                 case MM_VOYETRA:                        memcpy(m_CompanyName , ("Voyetra"), 64);                        break;
; 283  :                 case MM_ANTEX:                        memcpy(m_CompanyName , ("Antex Electronics Corporation"), 64);                        break;
; 284  :                 case MM_ICL_PS:                        memcpy(m_CompanyName , ("ICL Personal Systems"), 64);                        break;
; 285  :                 case MM_INTEL:                        memcpy(m_CompanyName , ("Intel Corporation"), 64);                        break;
; 286  :                 case MM_GRAVIS:                        memcpy(m_CompanyName , ("Advanced Gravis"), 64);                        break;
; 287  :                 case MM_VAL:                        memcpy(m_CompanyName , ("Video Associates Labs, Inc."), 64);                        break;
; 288  :                 case MM_INTERACTIVE:                        memcpy(m_CompanyName , ("InterActive Inc"), 64);                        break;
; 289  :                 case MM_YAMAHA:                        memcpy(m_CompanyName , ("Yamaha Corporation of America"), 64);                        break;
; 290  :                 case MM_EVEREX:                        memcpy(m_CompanyName , ("Everex Systems, Inc"), 64);                        break;
; 291  :                 case MM_ECHO:                        memcpy(m_CompanyName , ("Echo Speech Corporation"), 64);                        break;
; 292  :                 case MM_SIERRA:                        memcpy(m_CompanyName , ("Sierra Semiconductor Corp"), 64);                        break;
; 293  :                 case MM_CAT:                        memcpy(m_CompanyName , ("Computer Aided Technologies"), 64);                        break;
; 294  :                 case MM_APPS:                        memcpy(m_CompanyName , ("APPS Software International"), 64);                        break;
; 295  :                 case MM_DSP_GROUP:                        memcpy(m_CompanyName , ("DSP Group, Inc"), 64);                        break;
; 296  :                 case MM_MELABS:                        memcpy(m_CompanyName , ("MicroEngineering Labs"), 64);                        break;
; 297  :                 case MM_COMPUTER_FRIENDS:                        memcpy(m_CompanyName , ("Computer Friends, Inc."), 64);                        break;
; 298  :                 case MM_ESS:                        memcpy(m_CompanyName , ("ESS Technology"), 64);                        break;
; 299  :                 case MM_AUDIOFILE:                        memcpy(m_CompanyName , ("Audio, Inc."), 64);                        break;
; 300  :                 case MM_MOTOROLA:                        memcpy(m_CompanyName , ("Motorola, Inc."), 64);                        break;
; 301  :                 case MM_CANOPUS:                        memcpy(m_CompanyName , ("Canopus, co., Ltd."), 64);                        break;
; 302  :                 case MM_EPSON:                        memcpy(m_CompanyName , ("Seiko Epson Corporation"), 64);                        break;
; 303  :                 case MM_TRUEVISION:                        memcpy(m_CompanyName , ("Truevision"), 64);                        break;
; 304  :                 case MM_AZTECH:                        memcpy(m_CompanyName , ("Aztech Labs, Inc."), 64);                        break;
; 305  :                 case MM_VIDEOLOGIC:                        memcpy(m_CompanyName , ("Videologic"), 64);                        break;
; 306  :                 case MM_SCALACS:                        memcpy(m_CompanyName , ("SCALACS"), 64);                        break;
; 307  :                 case MM_KORG:                        memcpy(m_CompanyName , ("Korg Inc."), 64);                        break;
; 308  :                 case MM_APT:                        memcpy(m_CompanyName , ("Audio Processing Technology"), 64);                        break;
; 309  :                 case MM_ICS:                        memcpy(m_CompanyName , ("Integrated Circuit Systems, Inc."), 64);                        break;
; 310  :                 case MM_ITERATEDSYS:                        memcpy(m_CompanyName , ("Iterated Systems, Inc."), 64);                        break;
; 311  :                 case MM_METHEUS:                        memcpy(m_CompanyName , ("Metheus"), 64);                        break;
; 312  :                 case MM_LOGITECH:                        memcpy(m_CompanyName , ("Logitech, Inc."), 64);                        break;
; 313  :                 case MM_WINNOV:                        memcpy(m_CompanyName , ("Winnov, Inc."), 64);                        break;
; 314  :                 case MM_NCR:                        memcpy(m_CompanyName , ("NCR Corporation"), 64);                        break;
; 315  :                 case MM_EXAN:                        memcpy(m_CompanyName , ("EXAN"), 64);                        break;
; 316  :                 case MM_AST:                        memcpy(m_CompanyName , ("AST Research Inc."), 64);                        break;
; 317  :                 case MM_WILLOWPOND:                        memcpy(m_CompanyName , ("Willow Pond Corporation"), 64);                        break;
; 318  :                 case MM_SONICFOUNDRY:                        memcpy(m_CompanyName , ("Sonic Foundry"), 64);                        break;
; 319  :                 case MM_VITEC:                        memcpy(m_CompanyName , ("Vitec Multimedia"), 64);                        break;
; 320  :                 case MM_MOSCOM:                        memcpy(m_CompanyName , ("MOSCOM Corporation"), 64);                        break;
; 321  :                 case MM_SILICONSOFT:                        memcpy(m_CompanyName , ("Silicon Soft, Inc."), 64);                        break;
; 322  :                 case MM_SUPERMAC:                        memcpy(m_CompanyName , ("Supermac"), 64);                        break;
; 323  :                 case MM_AUDIOPT:                        memcpy(m_CompanyName , ("Audio Processing Technology"), 64);                        break;
; 324  :                 case MM_SPEECHCOMP:                        memcpy(m_CompanyName , ("Speech Compression"), 64);                        break;
; 325  :                 case MM_AHEAD:                        memcpy(m_CompanyName , ("Ahead, Inc."), 64);                        break;
; 326  :                 case MM_DOLBY:                        memcpy(m_CompanyName , ("Dolby Laboratories"), 64);                        break;
; 327  :                 case MM_OKI:                        memcpy(m_CompanyName , ("OKI"), 64);                        break;
; 328  :                 case MM_AURAVISION:                        memcpy(m_CompanyName , ("AuraVision Corporation"), 64);                        break;
; 329  :                 case MM_OLIVETTI:                        memcpy(m_CompanyName , ("Ing C. Olivetti & C., S.p.A."), 64);                        break;
; 330  :                 case MM_IOMAGIC:                        memcpy(m_CompanyName , ("I/O Magic Corporation"), 64);                        break;
; 331  :                 case MM_MATSUSHITA:                        memcpy(m_CompanyName , ("Matsushita Electric Industrial Co., LTD."), 64);                        break;
; 332  :                 case MM_CONTROLRES:                        memcpy(m_CompanyName , ("Control Resources Limited"), 64);                        break;
; 333  :                 case MM_XEBEC:                        memcpy(m_CompanyName , ("Xebec Multimedia Solutions Limited"), 64);                        break;
; 334  :                 case MM_NEWMEDIA:                        memcpy(m_CompanyName , ("New Media Corporation"), 64);                        break;
; 335  :                 case MM_NMS:                        memcpy(m_CompanyName , ("Natural MicroSystems"), 64);                        break;
; 336  :                 case MM_LYRRUS:                        memcpy(m_CompanyName , ("Lyrrus Inc."), 64);                        break;
; 337  :                 case MM_COMPUSIC:                        memcpy(m_CompanyName , ("Compusic"), 64);                        break;
; 338  :                 case MM_OPTI:                        memcpy(m_CompanyName , ("OPTI Computers Inc."), 64);                        break;
; 339  :                 case MM_ADLACC:	                    memcpy(m_CompanyName , ("Adlib Accessories Inc."), 64);		                break;
; 340  :                 case MM_COMPAQ:                    memcpy(m_CompanyName , ("Compaq Computer Corp."), 64);                    break;
; 341  :                 case MM_DIALOGIC:                    memcpy(m_CompanyName , ("Dialogic Corporation"), 64);                    break;
; 342  :                 case MM_INSOFT:                    memcpy(m_CompanyName , ("InSoft, Inc."), 64);                    break;
; 343  :                 case MM_MPTUS:                    memcpy(m_CompanyName , ("M.P. Technologies, Inc."), 64);                    break;
; 344  :                 case MM_WEITEK:                    memcpy(m_CompanyName , ("Weitek"), 64);                    break;
; 345  :                 case MM_LERNOUT_AND_HAUSPIE:                    memcpy(m_CompanyName , ("Lernout & Hauspie"), 64);                    break;
; 346  :                 case MM_QCIAR:                    memcpy(m_CompanyName , ("Quanta Computer Inc."), 64);                    break;
; 347  :                 case MM_APPLE:                    memcpy(m_CompanyName , ("Apple Computer, Inc."), 64);                   break;
; 348  :                 case MM_DIGITAL:                    memcpy(m_CompanyName , ("Digital Equipment Corporation"), 64);                    break;
; 349  :                 case MM_MOTU:                    memcpy(m_CompanyName , ("Mark of the Unicorn"), 64);                    break;
; 350  :                 case MM_WORKBIT:                    memcpy(m_CompanyName , ("Workbit Corporation"), 64);                    break;
; 351  :                 case MM_OSITECH:                    memcpy(m_CompanyName , ("Ositech Communications Inc."), 64);                    break;
; 352  :                 case MM_MIRO:                    memcpy(m_CompanyName , ("miro Computer Products AG"), 64);                    break;
; 353  :                 case MM_CIRRUSLOGIC:                    memcpy(m_CompanyName , ("Cirrus Logic"), 64);                    break;
; 354  :                 case MM_ISOLUTION:                    memcpy(m_CompanyName , ("ISOLUTION  B.V."), 64);                    break;
; 355  :                 case MM_HORIZONS:                    memcpy(m_CompanyName , ("Horizons Technology, Inc"), 64);                    break;
; 356  :                 case MM_CONCEPTS:                    memcpy(m_CompanyName , ("Computer Concepts Ltd"), 64);                    break;
; 357  :                 case MM_VTG:                    memcpy(m_CompanyName , ("Voice Technologies Group, Inc."), 64);                    break;
; 358  :                 case MM_RADIUS:                    memcpy(m_CompanyName , ("Radius"), 64);                    break;
; 359  :                 case MM_ROCKWELL:                    memcpy(m_CompanyName , ("Rockwell International"), 64);                    break;
; 360  :                 case MM_XYZ:                    memcpy(m_CompanyName , ("Co. XYZ for testing"), 64);                    break;
; 361  :                 case MM_OPCODE:                    memcpy(m_CompanyName , ("Opcode Systems"), 64);                    break;
; 362  :                 case MM_VOXWARE:                    memcpy(m_CompanyName , ("Voxware Inc"), 64);                    break;
; 363  :                 case MM_NORTHERN_TELECOM:                    memcpy(m_CompanyName , ("Northern Telecom Limited"), 64);                    break;
; 364  :                 case MM_APICOM:                    memcpy(m_CompanyName , ("APICOM"), 64);                    break;
; 365  :                 case MM_GRANDE:                    memcpy(m_CompanyName , ("Grande Software"), 64);                    break;
; 366  :                 case MM_ADDX:                    memcpy(m_CompanyName , ("ADDX"), 64);                    break;
; 367  :                 case MM_WILDCAT:                    memcpy(m_CompanyName , ("Wildcat Canyon Software"), 64);                    break;
; 368  :                 case MM_RHETOREX:                    memcpy(m_CompanyName , ("Rhetorex Inc"), 64);                    break;
; 369  :                 case MM_BROOKTREE:                    memcpy(m_CompanyName , ("Brooktree Corporation"), 64);                    break;
; 370  :                 case MM_ENSONIQ:                    memcpy(m_CompanyName , ("ENSONIQ Corporation"), 64);                    break;
; 371  :                 case MM_FAST:                    memcpy(m_CompanyName , ("///FAST Multimedia AG"), 64);                    break;
; 372  :                 case MM_NVIDIA:                    memcpy(m_CompanyName , ("NVidia Corporation"), 64);                    break;
; 373  :                 case MM_OKSORI:                    memcpy(m_CompanyName , ("OKSORI Co., Ltd."), 64);                    break;
; 374  :                 case MM_DIACOUSTICS:                    memcpy(m_CompanyName , ("DiAcoustics, Inc."), 64);                    break;
; 375  :                 case MM_GULBRANSEN:                    memcpy(m_CompanyName , ("Gulbransen, Inc."), 64);                    break;
; 376  :                 case MM_KAY_ELEMETRICS:                    memcpy(m_CompanyName , ("Kay Elemetrics, Inc."), 64);                    break;
; 377  :                 case MM_CRYSTAL:                    memcpy( m_CompanyName , ("Crystal Semiconductor Corporation"), 64);                    break;
; 378  :                 case MM_SPLASH_STUDIOS:                    memcpy(m_CompanyName , ("Splash Studios"), 64);                    break;
; 379  :                 case MM_QUARTERDECK:                    memcpy(m_CompanyName , ("Quarterdeck Corporation"), 64);                    break;
; 380  :                 case MM_TDK:                    memcpy(m_CompanyName , ("TDK Corporation"), 64);                    break;
; 381  :                 case MM_DIGITAL_AUDIO_LABS:                    memcpy(m_CompanyName , ("Digital Audio Labs, Inc."), 64);                    break;
; 382  :                 case MM_SEERSYS:                    memcpy(m_CompanyName , ("Seer Systems, Inc."), 64);                    break;
; 383  :                 case MM_PICTURETEL:                    memcpy(m_CompanyName , ("PictureTel Corporation"), 64);                    break;
; 384  :                 case MM_ATT_MICROELECTRONICS:            memcpy(m_CompanyName , ("T&T Microelectronics"), 64);                    break;
; 385  :                 case MM_OSPREY:                    memcpy(m_CompanyName , ("Osprey Technologies, Inc."), 64);                    break;
; 386  :                 case MM_MEDIATRIX:                    memcpy(m_CompanyName , ("Mediatrix Peripherals"), 64);                    break;
; 387  :                 case MM_SOUNDESIGNS:                    memcpy(m_CompanyName , ("SounDesignS M.C.S. Ltd."), 64);                    break;
; 388  :                 case MM_ALDIGITAL:                    memcpy(m_CompanyName , ("A.L. Digital Ltd."), 64);                   break;
; 389  :                 case MM_SPECTRUM_SIGNAL_PROCESSING:                    memcpy(m_CompanyName , ("Spectrum Signal Processing, Inc."), 64);                    break;
; 390  :                 case MM_ECS:                    memcpy(m_CompanyName , ("Electronic Courseware Systems, Inc."), 64);                    break;
; 391  :                 case MM_AMD:                    memcpy(m_CompanyName , ("AMD"), 64);                    break;
; 392  :                 case MM_COREDYNAMICS:                    memcpy(m_CompanyName , ("Core Dynamics"), 64);                    break;
; 393  :                 case MM_CANAM:                    memcpy(m_CompanyName , ("CANAM Computers"), 64);                    break;
; 394  :                 case MM_SOFTSOUND:                    memcpy(m_CompanyName , ("Softsound, Ltd."), 64);                    break;
; 395  :                 case MM_NORRIS:                    memcpy(m_CompanyName , ("Norris Communications, Inc."), 64);                    break;
; 396  :                 case MM_DDD:                    memcpy(m_CompanyName , ("Danka Data Devices"), 64);                    break;
; 397  :                 case MM_EUPHONICS:                    memcpy(m_CompanyName , ("EuPhonics"), 64);                    break;
; 398  :                 case MM_PRECEPT:                    memcpy(m_CompanyName , ("Precept Software, Inc."), 64);                    break;
; 399  :                 case MM_CRYSTAL_NET:                    memcpy(m_CompanyName , ("Crystal Net Corporation"), 64);                    break;
; 400  :                 case MM_CHROMATIC:                    memcpy(m_CompanyName , ("Chromatic Research, Inc"), 64);                    break;
; 401  :                 case MM_VOICEINFO:                    memcpy(m_CompanyName , ("Voice Information Systems, Inc"), 64);                    break;
; 402  :                 case MM_VIENNASYS:                    memcpy(m_CompanyName , ("Vienna Systems"), 64);                    break;
; 403  :                 case MM_CONNECTIX:                    memcpy(m_CompanyName , ("Connectix Corporation"), 64);                    break;
; 404  :                 case MM_GADGETLABS:                    memcpy(m_CompanyName , ("Gadget Labs LLC"), 64);                    break;
; 405  :                 case MM_FRONTIER:                    memcpy(m_CompanyName , ("Frontier Design Group LLC"), 64);                    break;
; 406  :                 case MM_VIONA:                    memcpy(m_CompanyName , ("Viona Development GmbH"),64);                    break;
; 407  :                 case MM_CASIO:                    memcpy(m_CompanyName,  ("Casio Computer Co., LTD"),64);                    break;
; 408  :                 case MM_DIAMONDMM:                    memcpy(m_CompanyName , ("Diamond Multimedia"), 64);                    break;
; 409  :                 case MM_S3:                    memcpy(m_CompanyName , ("S3"), 64);                    break;
; 410  :                 case MM_FRAUNHOFER_IIS:                    memcpy(m_CompanyName , ("Fraunhofer"), 64);                    break;
; 411  :                 default:                    memcpy(m_CompanyName , ("ľË·ÁÁöÁö ľĘŔş »çżîµĺ Ä«µĺŔÔ´Ď´Ů.(ĽłÄˇ´Â µÇľîŔÖŔ˝)"), 64);                    break;
; 412  :                 }
; 413  :         }
; 414  :     }
; 415  : 	else
; 416  : 	{
; 417  : 		// »çżîµĺ Ä«µĺ°ˇ ĽłÄˇµÇÁö ľĘŔ˝.
; 418  : 		i3String::Concat( pszTemp, "»çżîµĺ Ä«µĺ°ˇ ĽłÄˇµÇÁö ľĘľŇ˝Ŕ´Ď´Ů");
; 419  : 		return;
; 420  : 	}
; 421  : 
; 422  : 	i3String::Concat( pszTemp, m_CompanyName);
; 423  : #endif
; 424  : 
; 425  : }

  00000	c2 00 00	 ret	 0
?GetMultiMediaInfo@i3System@@YAXPAD@Z ENDP		; i3System::GetMultiMediaInfo
_TEXT	ENDS
; Function compile flags: /Ogtp
; File E:\Proyectos\JuegosOnlineproyectos\PB\pbblow\Piercing Blow Remake\i3Server\src\i3Base\i3System.cpp
;	COMDAT ?GetMemoryInfo@i3System@@YAXPAD@Z
_TEXT	SEGMENT
_state$ = -1060						; size = 32
_szTemp$ = -1028					; size = 1024
__$ArrayPad$ = -4					; size = 4
_pszTemp$ = 8						; size = 4
?GetMemoryInfo@i3System@@YAXPAD@Z PROC			; i3System::GetMemoryInfo, COMDAT

; 209  : {

  00000	55		 push	 ebp
  00001	8b ec		 mov	 ebp, esp
  00003	81 ec 24 04 00
	00		 sub	 esp, 1060		; 00000424H
  00009	a1 00 00 00 00	 mov	 eax, DWORD PTR ___security_cookie
  0000e	33 c5		 xor	 eax, ebp
  00010	89 45 fc	 mov	 DWORD PTR __$ArrayPad$[ebp], eax
  00013	56		 push	 esi
  00014	8b 75 08	 mov	 esi, DWORD PTR _pszTemp$[ebp]

; 210  : 	//typedef struct _MEMORYSTATUS 
; 211  : 	//{ 
; 212  : 	//DWORD dwLength;			// ŔĚ ±¸Á¶ĂĽŔÇ »çŔĚÁî
; 213  : 	//DWORD dwMemoryLoad;		// ÇöŔç ¸Ţ¸đ¸® »çżëŔ» łŞĹ¸ł»´Â ŔüąÝŔűŔÎ ¸Ţ¸đ¸® şÎÇĎ ¸Ĺ°łşŻĽö
; 214  : 	//DWORD dwTotalPhys;		// ¸ŢŔÎ ¸Ţ¸đ¸® ĂŃ Ĺ©±â
; 215  : 	//DWORD dwAvailPhys;		// ¸ŢŔÎ ¸Ţ¸đ¸® °ˇżë Ĺ©±â
; 216  : 	//DWORD dwTotalPageFile;	// ĂŃ ĆäŔĚÂˇ ĆÄŔĎ »çŔĚÁî ( XP , ME żë)
; 217  : 	//DWORD dwAvailPageFile;	// °ˇżë ĆäŔĚÂˇ ĆÄŔĎ »çŔĚÁî
; 218  : 	//DWORD dwTotalVirtual;		// °ˇ»ó ¸Ţ¸đ¸® ĂŃ »çŔĚÁî
; 219  : 	//DWORD dwAvailVirtual;		// °ˇżë °ˇ»ó ¸Ţ¸đ¸® ĂŃ »çŔĚÁî
; 220  : 	//
; 221  : 	//} MEMORYSTATUS, *LPMEMORYSTATUS
; 222  : 
; 223  : 	char szTemp[1024] = {0,};

  00017	8d 85 fc fb ff
	ff		 lea	 eax, DWORD PTR _szTemp$[ebp]
  0001d	68 00 04 00 00	 push	 1024			; 00000400H
  00022	6a 00		 push	 0
  00024	50		 push	 eax
  00025	e8 00 00 00 00	 call	 _memset
  0002a	83 c4 0c	 add	 esp, 12			; 0000000cH

; 224  : 
; 225  : 	MEMORYSTATUS state;
; 226  : 	state.dwLength =  sizeof(MEMORYSTATUS);

  0002d	c7 85 dc fb ff
	ff 20 00 00 00	 mov	 DWORD PTR _state$[ebp], 32 ; 00000020H

; 227  : 	::GlobalMemoryStatus(&state);

  00037	8d 85 dc fb ff
	ff		 lea	 eax, DWORD PTR _state$[ebp]
  0003d	50		 push	 eax
  0003e	ff 15 00 00 00
	00		 call	 DWORD PTR __imp__GlobalMemoryStatus@4

; 228  : 
; 229  : 	sprintf( szTemp, "\t¸ŢŔÎ ¸Ţ¸đ¸® ĂŃ Ĺ©±â= %d \n\t¸ŢŔÎ ¸Ţ¸đ¸® °ˇżë Ĺ©±â= %d \n\t°ˇ»ó ¸Ţ¸đ¸® ĂŃ »çŔĚÁî = %d \n\t°ˇżë °ˇ»ó ¸Ţ¸đ¸® ĂŃ »çŔĚÁî = %d", state.dwTotalPhys, state.dwAvailPhys, state.dwTotalVirtual, state.dwAvailVirtual);

  00044	ff b5 f8 fb ff
	ff		 push	 DWORD PTR _state$[ebp+28]
  0004a	8d 85 fc fb ff
	ff		 lea	 eax, DWORD PTR _szTemp$[ebp]
  00050	ff b5 f4 fb ff
	ff		 push	 DWORD PTR _state$[ebp+24]
  00056	ff b5 e8 fb ff
	ff		 push	 DWORD PTR _state$[ebp+12]
  0005c	ff b5 e4 fb ff
	ff		 push	 DWORD PTR _state$[ebp+8]
  00062	68 00 00 00 00	 push	 OFFSET ??_C@_0HE@CFAHAEOM@?7?$LI?$NO?$MA?N?5?$LI?$NO?$LI?p?$LI?$KO?5?C?Q?5?E?$KJ?$LB?b?$DN?5?$CFd?5?6?7?$LI?$NO?$MA?N@
  00067	50		 push	 eax
  00068	e8 00 00 00 00	 call	 _sprintf

; 230  : 
; 231  : 	i3String::Concat( pszTemp, szTemp);

  0006d	8d 85 fc fb ff
	ff		 lea	 eax, DWORD PTR _szTemp$[ebp]
  00073	50		 push	 eax
  00074	56		 push	 esi
  00075	e8 00 00 00 00	 call	 ?Concat@i3String@@YAXPADPBD@Z ; i3String::Concat

; 232  : }

  0007a	8b 4d fc	 mov	 ecx, DWORD PTR __$ArrayPad$[ebp]
  0007d	83 c4 20	 add	 esp, 32			; 00000020H
  00080	33 cd		 xor	 ecx, ebp
  00082	5e		 pop	 esi
  00083	e8 00 00 00 00	 call	 @__security_check_cookie@4
  00088	8b e5		 mov	 esp, ebp
  0008a	5d		 pop	 ebp
  0008b	c3		 ret	 0
?GetMemoryInfo@i3System@@YAXPAD@Z ENDP			; i3System::GetMemoryInfo
_TEXT	ENDS
; Function compile flags: /Ogtp
; File E:\Proyectos\JuegosOnlineproyectos\PB\pbblow\Piercing Blow Remake\i3Server\src\i3Base\i3System.cpp
; File C:\Program Files (x86)\Windows Kits\10\Include\10.0.26100.0\um\winnt.h
; File E:\Proyectos\JuegosOnlineproyectos\PB\pbblow\Piercing Blow Remake\i3Server\include\i3Base\i3Memory.h
; File C:\Program Files (x86)\Windows Kits\10\Include\10.0.26100.0\um\winnt.h
; File E:\Proyectos\JuegosOnlineproyectos\PB\pbblow\Piercing Blow Remake\i3Server\include\i3Base\i3Memory.h
; File C:\Program Files (x86)\Windows Kits\10\Include\10.0.26100.0\um\winnt.h
; File E:\Proyectos\JuegosOnlineproyectos\PB\pbblow\Piercing Blow Remake\i3Server\src\i3Base\i3System.cpp
;	COMDAT ?GetOSInfo@i3System@@YAXPAD@Z
_TEXT	SEGMENT
_osvi$ = -160						; size = 156
_tBuf$ = -132						; size = 128
__$ArrayPad$ = -4					; size = 4
_pszTemp$ = 8						; size = 4
?GetOSInfo@i3System@@YAXPAD@Z PROC			; i3System::GetOSInfo, COMDAT

; 122  : {

  00000	55		 push	 ebp
  00001	8b ec		 mov	 ebp, esp
  00003	81 ec a0 00 00
	00		 sub	 esp, 160		; 000000a0H
  00009	a1 00 00 00 00	 mov	 eax, DWORD PTR ___security_cookie
  0000e	33 c5		 xor	 eax, ebp
  00010	89 45 fc	 mov	 DWORD PTR __$ArrayPad$[ebp], eax
  00013	53		 push	 ebx
  00014	8b 5d 08	 mov	 ebx, DWORD PTR _pszTemp$[ebp]
; File C:\Program Files (x86)\Windows Kits\10\Include\10.0.26100.0\um\winnt.h

; 23413:     volatile char *vptr = (volatile char *)ptr;

  00017	8d 85 7c ff ff
	ff		 lea	 eax, DWORD PTR _tBuf$[ebp]
; File E:\Proyectos\JuegosOnlineproyectos\PB\pbblow\Piercing Blow Remake\i3Server\include\i3Base\i3Memory.h

; 144  : 			::SecureZeroMemory( pDest, sz);

  0001d	b9 80 00 00 00	 mov	 ecx, 128		; 00000080H
$LL25@GetOSInfo:
; File C:\Program Files (x86)\Windows Kits\10\Include\10.0.26100.0\um\winnt.h

; 23429:         *vptr = 0;

  00022	c6 00 00	 mov	 BYTE PTR [eax], 0

; 23430: 
; 23431: #endif
; 23432: 
; 23433:         vptr++;

  00025	8d 40 01	 lea	 eax, DWORD PTR [eax+1]

; 23434:         cnt--;

  00028	83 e9 01	 sub	 ecx, 1
  0002b	75 f5		 jne	 SHORT $LL25@GetOSInfo
; File E:\Proyectos\JuegosOnlineproyectos\PB\pbblow\Piercing Blow Remake\i3Server\include\i3Base\i3Memory.h

; 144  : 			::SecureZeroMemory( pDest, sz);

  0002d	b9 9c 00 00 00	 mov	 ecx, 156		; 0000009cH
; File C:\Program Files (x86)\Windows Kits\10\Include\10.0.26100.0\um\winnt.h

; 23413:     volatile char *vptr = (volatile char *)ptr;

  00032	8d 85 60 ff ff
	ff		 lea	 eax, DWORD PTR _osvi$[ebp]
  00038	eb 06 8d 9b 00
	00 00 00	 npad	 8
$LL31@GetOSInfo:

; 23429:         *vptr = 0;

  00040	c6 00 00	 mov	 BYTE PTR [eax], 0

; 23430: 
; 23431: #endif
; 23432: 
; 23433:         vptr++;

  00043	8d 40 01	 lea	 eax, DWORD PTR [eax+1]

; 23434:         cnt--;

  00046	83 e9 01	 sub	 ecx, 1
  00049	75 f5		 jne	 SHORT $LL31@GetOSInfo
; File E:\Proyectos\JuegosOnlineproyectos\PB\pbblow\Piercing Blow Remake\i3Server\src\i3Base\i3System.cpp

; 132  : 	bOsVersionInfoEx = GetVersionEx ((OSVERSIONINFO *) &osvi);

  0004b	56		 push	 esi
  0004c	8d 85 60 ff ff
	ff		 lea	 eax, DWORD PTR _osvi$[ebp]
  00052	c7 85 60 ff ff
	ff 9c 00 00 00	 mov	 DWORD PTR _osvi$[ebp], 156 ; 0000009cH
  0005c	50		 push	 eax
  0005d	ff 15 00 00 00
	00		 call	 DWORD PTR __imp__GetVersionExA@4

; 133  : 
; 134  : 	i3String::Concat( pszTemp, "OS = ");

  00063	68 00 00 00 00	 push	 OFFSET ??_C@_05NGIFKOKB@OS?5?$DN?5@
  00068	53		 push	 ebx
  00069	8b f0		 mov	 esi, eax
  0006b	e8 00 00 00 00	 call	 ?Concat@i3String@@YAXPADPBD@Z ; i3String::Concat
  00070	83 c4 08	 add	 esp, 8

; 135  : 
; 136  : 	if( !bOsVersionInfoEx)

  00073	85 f6		 test	 esi, esi
  00075	5e		 pop	 esi
  00076	75 25		 jne	 SHORT $LN7@GetOSInfo

; 137  : 	{
; 138  : 		osvi.dwOSVersionInfoSize = sizeof (OSVERSIONINFO);
; 139  : 		if (! GetVersionEx ( (OSVERSIONINFO *) &osvi) ) 

  00078	8d 85 60 ff ff
	ff		 lea	 eax, DWORD PTR _osvi$[ebp]
  0007e	c7 85 60 ff ff
	ff 94 00 00 00	 mov	 DWORD PTR _osvi$[ebp], 148 ; 00000094H
  00088	50		 push	 eax
  00089	ff 15 00 00 00
	00		 call	 DWORD PTR __imp__GetVersionExA@4
  0008f	85 c0		 test	 eax, eax
  00091	75 0a		 jne	 SHORT $LN7@GetOSInfo

; 140  : 		{
; 141  : 			i3String::Concat( pszTemp, "Unknown O/S");		// OSČ®ŔÎ şŇ°ˇ

  00093	b8 00 00 00 00	 mov	 eax, OFFSET ??_C@_0M@CNDNFGLO@Unknown?5O?1S@

; 142  : 			return;

  00098	e9 a9 00 00 00	 jmp	 $LN2@GetOSInfo
$LN7@GetOSInfo:

; 143  : 		}
; 144  : 	}
; 145  : 
; 146  : 	switch (osvi.dwPlatformId) 

  0009d	8b 85 70 ff ff
	ff		 mov	 eax, DWORD PTR _osvi$[ebp+16]
  000a3	83 e8 00	 sub	 eax, 0
  000a6	0f 84 95 00 00
	00		 je	 $LN19@GetOSInfo
  000ac	83 e8 01	 sub	 eax, 1
  000af	74 3b		 je	 SHORT $LN10@GetOSInfo
  000b1	83 e8 01	 sub	 eax, 1
  000b4	74 0a		 je	 SHORT $LN8@GetOSInfo

; 200  : 		return;   // 
; 201  : 	default:
; 202  : 		i3String::Concat( pszTemp, "Unknown O/S. Linux O/S¶ó°í »ý°˘µÇľîÁü!");

  000b6	b8 00 00 00 00	 mov	 eax, OFFSET ??_C@_0CH@NMOOOJAK@Unknown?5O?1S?4?5Linux?5O?1S?$LG?s?$LA?m?5?$LL?$PN?$LA?$KC@

; 203  : 		return;

  000bb	e9 86 00 00 00	 jmp	 $LN2@GetOSInfo
$LN8@GetOSInfo:

; 147  : 	{
; 148  : 	case VER_PLATFORM_WIN32_NT://NT °čż­ Ŕ©µµżě ˝Ă¸®Áî
; 149  : 	if( osvi.dwMajorVersion >=5){ // win200ŔĚ»ó

  000c0	83 bd 64 ff ff
	ff 05		 cmp	 DWORD PTR _osvi$[ebp+4], 5
  000c7	72 52		 jb	 SHORT $LN9@GetOSInfo

; 150  : 		switch(osvi.dwMinorVersion)

  000c9	8b 85 68 ff ff
	ff		 mov	 eax, DWORD PTR _osvi$[ebp+8]
  000cf	83 e8 00	 sub	 eax, 0
  000d2	74 40		 je	 SHORT $LN11@GetOSInfo
  000d4	83 e8 01	 sub	 eax, 1
  000d7	74 34		 je	 SHORT $LN12@GetOSInfo
  000d9	83 e8 01	 sub	 eax, 1
  000dc	74 28		 je	 SHORT $LN13@GetOSInfo

; 161  : 			default:
; 162  : 				break;          
; 163  : 		}
; 164  : 		i3String::Concat( pszTemp, "Windows 2000ŔĚ»óŔÇ O/S");		// 2000ŔĚ»ó

  000de	68 00 00 00 00	 push	 OFFSET ??_C@_0BH@CGDGPFOP@Windows?52000?$MA?L?$LL?s?$MA?G?5O?1S@
  000e3	53		 push	 ebx
  000e4	e8 00 00 00 00	 call	 ?Concat@i3String@@YAXPADPBD@Z ; i3String::Concat
  000e9	83 c4 08	 add	 esp, 8
$LN10@GetOSInfo:

; 171  : 	}
; 172  : 
; 173  : 	case VER_PLATFORM_WIN32_WINDOWS:        //95°čż­ Ŕ©µµżě ˝Ă¸®Áî
; 174  : 		if (osvi.dwMajorVersion == 4 && osvi.dwMinorVersion == 0)

  000ec	83 bd 64 ff ff
	ff 04		 cmp	 DWORD PTR _osvi$[ebp+4], 4
  000f3	75 45		 jne	 SHORT $LN18@GetOSInfo
  000f5	8b 85 68 ff ff
	ff		 mov	 eax, DWORD PTR _osvi$[ebp+8]
  000fb	85 c0		 test	 eax, eax
  000fd	75 23		 jne	 SHORT $LN42@GetOSInfo

; 175  : 		{
; 176  : 			//Ŕ©µµżě 95
; 177  : 			i3String::Concat( pszTemp, "Windows 95");

  000ff	b8 00 00 00 00	 mov	 eax, OFFSET ??_C@_0L@NEBNHFIE@Windows?595@

; 178  : 			return;

  00104	eb 40		 jmp	 SHORT $LN2@GetOSInfo
$LN13@GetOSInfo:

; 158  : 			case 2: // 2003
; 159  : 				i3String::Concat( pszTemp, "Windows 2003");

  00106	b8 00 00 00 00	 mov	 eax, OFFSET ??_C@_0N@OPIOENGC@Windows?52003@

; 160  : 				return;

  0010b	eb 39		 jmp	 SHORT $LN2@GetOSInfo
$LN12@GetOSInfo:

; 155  : 			case 1: // xp
; 156  : 				i3String::Concat( pszTemp, "Windows XP");

  0010d	b8 00 00 00 00	 mov	 eax, OFFSET ??_C@_0L@IFICELHB@Windows?5XP@

; 157  : 				return;

  00112	eb 32		 jmp	 SHORT $LN2@GetOSInfo
$LN11@GetOSInfo:

; 151  : 		{
; 152  : 			case 0: // 2000
; 153  : 				i3String::Concat( pszTemp, "Windows 2000");

  00114	b8 00 00 00 00	 mov	 eax, OFFSET ??_C@_0N@MEKDBOKB@Windows?52000@

; 154  : 				return;

  00119	eb 2b		 jmp	 SHORT $LN2@GetOSInfo
$LN9@GetOSInfo:

; 165  : 	}
; 166  : 	else
; 167  : 	{   
; 168  : 		// wind NT
; 169  : 		i3String::Concat( pszTemp, "Windows NT4.0ŔĚÇĎŔÇ O/S");		// nt 4.0 ŔĚÇĎ 

  0011b	b8 00 00 00 00	 mov	 eax, OFFSET ??_C@_0BI@FPIFAPE@Windows?5NT4?40?$MA?L?G?O?$MA?G?5O?1S@

; 170  : 		return; 

  00120	eb 24		 jmp	 SHORT $LN2@GetOSInfo
$LN42@GetOSInfo:

; 179  : 		} 
; 180  : 
; 181  : 		if (osvi.dwMajorVersion == 4 && osvi.dwMinorVersion == 10)

  00122	83 f8 0a	 cmp	 eax, 10			; 0000000aH
  00125	75 07		 jne	 SHORT $LN43@GetOSInfo

; 182  : 		{
; 183  : 			//Ŕ©µµżě 98
; 184  : 			i3String::Concat( pszTemp, "Windows 98");

  00127	b8 00 00 00 00	 mov	 eax, OFFSET ??_C@_0L@GBLDALMJ@Windows?598@

; 185  : 			return;

  0012c	eb 18		 jmp	 SHORT $LN2@GetOSInfo
$LN43@GetOSInfo:

; 186  : 		} 
; 187  : 
; 188  : 		if (osvi.dwMajorVersion == 4 && osvi.dwMinorVersion == 90) 

  0012e	83 f8 5a	 cmp	 eax, 90			; 0000005aH
  00131	75 07		 jne	 SHORT $LN18@GetOSInfo

; 189  : 		{
; 190  : 			//Ŕ©µµżě ME
; 191  : 			i3String::Concat( pszTemp, "Windows Me");

  00133	b8 00 00 00 00	 mov	 eax, OFFSET ??_C@_0L@DNFOOIFM@Windows?5Me@

; 192  : 			return;

  00138	eb 0c		 jmp	 SHORT $LN2@GetOSInfo
$LN18@GetOSInfo:

; 193  : 		} 
; 194  : 		i3String::Concat( pszTemp, "Wind32");

  0013a	b8 00 00 00 00	 mov	 eax, OFFSET ??_C@_06PCABAPOK@Wind32@

; 195  : 		return; // wind32

  0013f	eb 05		 jmp	 SHORT $LN2@GetOSInfo
$LN19@GetOSInfo:

; 196  : 	break;
; 197  : 
; 198  : 	case VER_PLATFORM_WIN32s:      //Ŕ©µµżě 32s
; 199  : 		i3String::Concat( pszTemp, "Win32s");

  00141	b8 00 00 00 00	 mov	 eax, OFFSET ??_C@_06EMHLCMIC@Win32s@
$LN2@GetOSInfo:

; 204  : 	} 
; 205  : #endif
; 206  : }

  00146	50		 push	 eax
  00147	53		 push	 ebx
  00148	e8 00 00 00 00	 call	 ?Concat@i3String@@YAXPADPBD@Z ; i3String::Concat
  0014d	8b 4d fc	 mov	 ecx, DWORD PTR __$ArrayPad$[ebp]
  00150	83 c4 08	 add	 esp, 8
  00153	33 cd		 xor	 ecx, ebp
  00155	5b		 pop	 ebx
  00156	e8 00 00 00 00	 call	 @__security_check_cookie@4
  0015b	8b e5		 mov	 esp, ebp
  0015d	5d		 pop	 ebp
  0015e	c3		 ret	 0
?GetOSInfo@i3System@@YAXPAD@Z ENDP			; i3System::GetOSInfo
_TEXT	ENDS
; Function compile flags: /Ogtp
; File E:\Proyectos\JuegosOnlineproyectos\PB\pbblow\Piercing Blow Remake\i3Server\src\i3Base\i3System.cpp
;	COMDAT ?GetGPUInfo@i3System@@YAXPAD@Z
_TEXT	SEGMENT
_dwType$ = -1552					; size = 4
_dwBytes$ = -1548					; size = 4
_hKey$ = -1544						; size = 4
_szResult$ = -1540					; size = 1024
_buffer$ = -516						; size = 256
_szTemp$ = -260						; size = 256
__$ArrayPad$ = -4					; size = 4
_pszTemp$ = 8						; size = 4
?GetGPUInfo@i3System@@YAXPAD@Z PROC			; i3System::GetGPUInfo, COMDAT

; 81   : {

  00000	55		 push	 ebp
  00001	8b ec		 mov	 ebp, esp
  00003	81 ec 10 06 00
	00		 sub	 esp, 1552		; 00000610H
  00009	a1 00 00 00 00	 mov	 eax, DWORD PTR ___security_cookie
  0000e	33 c5		 xor	 eax, ebp
  00010	89 45 fc	 mov	 DWORD PTR __$ArrayPad$[ebp], eax
  00013	57		 push	 edi
  00014	8b 7d 08	 mov	 edi, DWORD PTR _pszTemp$[ebp]

; 82   : #if defined( I3_WINDOWS )
; 83   : 	// GPU Á¤ş¸
; 84   : 	LONG lResult;
; 85   : 	HKEY hKey;
; 86   : 	DWORD dwType;
; 87   : 	DWORD dwBytes=256;
; 88   : 	char buffer[256];
; 89   : 	char szTemp[256] = {0,};

  00017	8d 85 fc fe ff
	ff		 lea	 eax, DWORD PTR _szTemp$[ebp]
  0001d	68 00 01 00 00	 push	 256			; 00000100H
  00022	6a 00		 push	 0
  00024	50		 push	 eax
  00025	c7 85 f4 f9 ff
	ff 00 01 00 00	 mov	 DWORD PTR _dwBytes$[ebp], 256 ; 00000100H
  0002f	e8 00 00 00 00	 call	 _memset

; 90   : 	char szResult[1024] = {0,};

  00034	68 00 04 00 00	 push	 1024			; 00000400H
  00039	8d 85 fc f9 ff
	ff		 lea	 eax, DWORD PTR _szResult$[ebp]
  0003f	6a 00		 push	 0
  00041	50		 push	 eax
  00042	e8 00 00 00 00	 call	 _memset
  00047	83 c4 18	 add	 esp, 24			; 00000018H

; 91   : 
; 92   : 	// ±×·ˇÇČÄ«µĺ Á¤ş¸
; 93   : 	lResult = RegOpenKeyEx(HKEY_LOCAL_MACHINE,"SYSTEM\\ControlSet001\\Control\\Class\\{4D36E968-E325-11CE-BFC1-08002BE10318}\\0000", 0, KEY_ALL_ACCESS, &hKey);

  0004a	8d 85 f8 f9 ff
	ff		 lea	 eax, DWORD PTR _hKey$[ebp]
  00050	50		 push	 eax
  00051	68 3f 00 0f 00	 push	 983103			; 000f003fH
  00056	6a 00		 push	 0
  00058	68 00 00 00 00	 push	 OFFSET ??_C@_0EP@MDFIIODI@SYSTEM?2ControlSet001?2Control?2Cl@
  0005d	68 02 00 00 80	 push	 -2147483646		; 80000002H
  00062	ff 15 00 00 00
	00		 call	 DWORD PTR __imp__RegOpenKeyExA@20

; 94   : 
; 95   : 	// Read Regstry Key
; 96   : 	if( lResult == ERROR_SUCCESS ) 

  00068	85 c0		 test	 eax, eax
  0006a	0f 85 50 01 00
	00		 jne	 $LN2@GetGPUInfo

; 97   : 	{
; 98   : 		RegQueryValueEx(hKey, "DriverDesc", 0, &dwType, (LPBYTE)buffer, &dwBytes); 

  00070	56		 push	 esi
  00071	8b 35 00 00 00
	00		 mov	 esi, DWORD PTR __imp__RegQueryValueExA@24
  00077	8d 85 f4 f9 ff
	ff		 lea	 eax, DWORD PTR _dwBytes$[ebp]
  0007d	50		 push	 eax
  0007e	8d 85 fc fd ff
	ff		 lea	 eax, DWORD PTR _buffer$[ebp]
  00084	50		 push	 eax
  00085	8d 85 f0 f9 ff
	ff		 lea	 eax, DWORD PTR _dwType$[ebp]
  0008b	50		 push	 eax
  0008c	6a 00		 push	 0
  0008e	68 00 00 00 00	 push	 OFFSET ??_C@_0L@LMCCAGGO@DriverDesc@
  00093	ff b5 f8 f9 ff
	ff		 push	 DWORD PTR _hKey$[ebp]
  00099	ff d6		 call	 esi

; 99   : 		sprintf( szTemp, "\t Vedio Card = %s\n", buffer);

  0009b	8d 85 fc fd ff
	ff		 lea	 eax, DWORD PTR _buffer$[ebp]
  000a1	50		 push	 eax
  000a2	8d 85 fc fe ff
	ff		 lea	 eax, DWORD PTR _szTemp$[ebp]
  000a8	68 00 00 00 00	 push	 OFFSET ??_C@_0BD@KFOFLKMB@?7?5Vedio?5Card?5?$DN?5?$CFs?6@
  000ad	50		 push	 eax
  000ae	e8 00 00 00 00	 call	 _sprintf

; 100  : 		i3String::Concat( szResult, szTemp);

  000b3	8d 85 fc fe ff
	ff		 lea	 eax, DWORD PTR _szTemp$[ebp]
  000b9	50		 push	 eax
  000ba	8d 85 fc f9 ff
	ff		 lea	 eax, DWORD PTR _szResult$[ebp]
  000c0	50		 push	 eax
  000c1	e8 00 00 00 00	 call	 ?Concat@i3String@@YAXPADPBD@Z ; i3String::Concat
  000c6	83 c4 14	 add	 esp, 20			; 00000014H

; 101  : 
; 102  : 		RegQueryValueEx(hKey, "DriverDate", 0, &dwType, (LPBYTE)buffer, &dwBytes);

  000c9	8d 85 f4 f9 ff
	ff		 lea	 eax, DWORD PTR _dwBytes$[ebp]
  000cf	50		 push	 eax
  000d0	8d 85 fc fd ff
	ff		 lea	 eax, DWORD PTR _buffer$[ebp]
  000d6	50		 push	 eax
  000d7	8d 85 f0 f9 ff
	ff		 lea	 eax, DWORD PTR _dwType$[ebp]
  000dd	50		 push	 eax
  000de	6a 00		 push	 0
  000e0	68 00 00 00 00	 push	 OFFSET ??_C@_0L@GAFFCADK@DriverDate@
  000e5	ff b5 f8 f9 ff
	ff		 push	 DWORD PTR _hKey$[ebp]
  000eb	ff d6		 call	 esi

; 103  : 		sprintf( szTemp, "\t Vedio Card Driver Date = %s\n", buffer);

  000ed	8d 85 fc fd ff
	ff		 lea	 eax, DWORD PTR _buffer$[ebp]
  000f3	50		 push	 eax
  000f4	8d 85 fc fe ff
	ff		 lea	 eax, DWORD PTR _szTemp$[ebp]
  000fa	68 00 00 00 00	 push	 OFFSET ??_C@_0BP@OEEKLLBF@?7?5Vedio?5Card?5Driver?5Date?5?$DN?5?$CFs?6@
  000ff	50		 push	 eax
  00100	e8 00 00 00 00	 call	 _sprintf

; 104  : 		i3String::Concat( szResult, szTemp);

  00105	8d 85 fc fe ff
	ff		 lea	 eax, DWORD PTR _szTemp$[ebp]
  0010b	50		 push	 eax
  0010c	8d 85 fc f9 ff
	ff		 lea	 eax, DWORD PTR _szResult$[ebp]
  00112	50		 push	 eax
  00113	e8 00 00 00 00	 call	 ?Concat@i3String@@YAXPADPBD@Z ; i3String::Concat
  00118	83 c4 14	 add	 esp, 20			; 00000014H

; 105  : 
; 106  : 		RegQueryValueEx(hKey, "DriverVersion", 0, &dwType, (LPBYTE)buffer, &dwBytes); 

  0011b	8d 85 f4 f9 ff
	ff		 lea	 eax, DWORD PTR _dwBytes$[ebp]
  00121	50		 push	 eax
  00122	8d 85 fc fd ff
	ff		 lea	 eax, DWORD PTR _buffer$[ebp]
  00128	50		 push	 eax
  00129	8d 85 f0 f9 ff
	ff		 lea	 eax, DWORD PTR _dwType$[ebp]
  0012f	50		 push	 eax
  00130	6a 00		 push	 0
  00132	68 00 00 00 00	 push	 OFFSET ??_C@_0O@KKIKAADI@DriverVersion@
  00137	ff b5 f8 f9 ff
	ff		 push	 DWORD PTR _hKey$[ebp]
  0013d	ff d6		 call	 esi

; 107  : 		sprintf( szTemp, "\t Vedio Card Driver Version = %s\n", buffer);

  0013f	8d 85 fc fd ff
	ff		 lea	 eax, DWORD PTR _buffer$[ebp]
  00145	50		 push	 eax
  00146	8d 85 fc fe ff
	ff		 lea	 eax, DWORD PTR _szTemp$[ebp]
  0014c	68 00 00 00 00	 push	 OFFSET ??_C@_0CC@LAHNAAGJ@?7?5Vedio?5Card?5Driver?5Version?5?$DN?5?$CF@
  00151	50		 push	 eax
  00152	e8 00 00 00 00	 call	 _sprintf

; 108  : 		i3String::Concat( szResult, szTemp);

  00157	8d 85 fc fe ff
	ff		 lea	 eax, DWORD PTR _szTemp$[ebp]
  0015d	50		 push	 eax
  0015e	8d 85 fc f9 ff
	ff		 lea	 eax, DWORD PTR _szResult$[ebp]
  00164	50		 push	 eax
  00165	e8 00 00 00 00	 call	 ?Concat@i3String@@YAXPADPBD@Z ; i3String::Concat
  0016a	83 c4 14	 add	 esp, 20			; 00000014H

; 109  : 
; 110  : 		RegQueryValueEx(hKey, "ProviderName", 0, &dwType, (LPBYTE)buffer, &dwBytes); 

  0016d	8d 85 f4 f9 ff
	ff		 lea	 eax, DWORD PTR _dwBytes$[ebp]
  00173	50		 push	 eax
  00174	8d 85 fc fd ff
	ff		 lea	 eax, DWORD PTR _buffer$[ebp]
  0017a	50		 push	 eax
  0017b	8d 85 f0 f9 ff
	ff		 lea	 eax, DWORD PTR _dwType$[ebp]
  00181	50		 push	 eax
  00182	6a 00		 push	 0
  00184	68 00 00 00 00	 push	 OFFSET ??_C@_0N@ONCOBKP@ProviderName@
  00189	ff b5 f8 f9 ff
	ff		 push	 DWORD PTR _hKey$[ebp]
  0018f	ff d6		 call	 esi

; 111  : 		sprintf( szTemp, "\t Vedio Card Driver Provider = %s", buffer);

  00191	8d 85 fc fd ff
	ff		 lea	 eax, DWORD PTR _buffer$[ebp]
  00197	50		 push	 eax
  00198	68 00 00 00 00	 push	 OFFSET ??_C@_0CC@IPHEPDOB@?7?5Vedio?5Card?5Driver?5Provider?5?$DN?5@
  0019d	8d 85 fc fe ff
	ff		 lea	 eax, DWORD PTR _szTemp$[ebp]
  001a3	50		 push	 eax
  001a4	e8 00 00 00 00	 call	 _sprintf

; 112  : 		i3String::Concat( szResult, szTemp);

  001a9	8d 85 fc fe ff
	ff		 lea	 eax, DWORD PTR _szTemp$[ebp]
  001af	50		 push	 eax
  001b0	8d 85 fc f9 ff
	ff		 lea	 eax, DWORD PTR _szResult$[ebp]
  001b6	50		 push	 eax
  001b7	e8 00 00 00 00	 call	 ?Concat@i3String@@YAXPADPBD@Z ; i3String::Concat
  001bc	83 c4 14	 add	 esp, 20			; 00000014H
  001bf	5e		 pop	 esi
$LN2@GetGPUInfo:

; 113  : 	}
; 114  : 
; 115  : 	RegCloseKey(hKey);

  001c0	ff b5 f8 f9 ff
	ff		 push	 DWORD PTR _hKey$[ebp]
  001c6	ff 15 00 00 00
	00		 call	 DWORD PTR __imp__RegCloseKey@4

; 116  : 
; 117  : 	i3String::Concat( pszTemp, szResult);

  001cc	8d 85 fc f9 ff
	ff		 lea	 eax, DWORD PTR _szResult$[ebp]
  001d2	50		 push	 eax
  001d3	57		 push	 edi
  001d4	e8 00 00 00 00	 call	 ?Concat@i3String@@YAXPADPBD@Z ; i3String::Concat

; 118  : #endif
; 119  : }

  001d9	8b 4d fc	 mov	 ecx, DWORD PTR __$ArrayPad$[ebp]
  001dc	83 c4 08	 add	 esp, 8
  001df	33 cd		 xor	 ecx, ebp
  001e1	5f		 pop	 edi
  001e2	e8 00 00 00 00	 call	 @__security_check_cookie@4
  001e7	8b e5		 mov	 esp, ebp
  001e9	5d		 pop	 ebp
  001ea	c3		 ret	 0
?GetGPUInfo@i3System@@YAXPAD@Z ENDP			; i3System::GetGPUInfo
_TEXT	ENDS
; Function compile flags: /Ogtp
; File E:\Proyectos\JuegosOnlineproyectos\PB\pbblow\Piercing Blow Remake\i3Server\src\i3Base\i3System.cpp
;	COMDAT ?GetCPUInfo@i3System@@YAXPAD@Z
_TEXT	SEGMENT
_dwType$ = -272						; size = 4
_dwBytes$ = -268					; size = 4
_hKey$ = -264						; size = 4
_buffer$ = -260						; size = 256
__$ArrayPad$ = -4					; size = 4
_pszTemp$ = 8						; size = 4
?GetCPUInfo@i3System@@YAXPAD@Z PROC			; i3System::GetCPUInfo, COMDAT

; 40   : {

  00000	55		 push	 ebp
  00001	8b ec		 mov	 ebp, esp
  00003	81 ec 10 01 00
	00		 sub	 esp, 272		; 00000110H
  00009	a1 00 00 00 00	 mov	 eax, DWORD PTR ___security_cookie
  0000e	33 c5		 xor	 eax, ebp
  00010	89 45 fc	 mov	 DWORD PTR __$ArrayPad$[ebp], eax
  00013	56		 push	 esi
  00014	8b 75 08	 mov	 esi, DWORD PTR _pszTemp$[ebp]

; 41   : #if defined( I3_WINDOWS )
; 42   : 	// CPU Á¤ş¸
; 43   : 	LONG lResult;
; 44   : 	HKEY hKey;
; 45   : 	DWORD dwType;
; 46   : 	DWORD dwBytes=256;
; 47   : 	char buffer[256];
; 48   : 
; 49   : 	i3String::Concat( pszTemp, "CPU = ");

  00017	68 00 00 00 00	 push	 OFFSET ??_C@_06PCAIPKHG@CPU?5?$DN?5@
  0001c	56		 push	 esi
  0001d	c7 85 f4 fe ff
	ff 00 01 00 00	 mov	 DWORD PTR _dwBytes$[ebp], 256 ; 00000100H
  00027	e8 00 00 00 00	 call	 ?Concat@i3String@@YAXPADPBD@Z ; i3String::Concat
  0002c	83 c4 08	 add	 esp, 8

; 50   : 
; 51   : 	buffer[0] = 0;

  0002f	c6 85 fc fe ff
	ff 00		 mov	 BYTE PTR _buffer$[ebp], 0

; 52   : 
; 53   : 	// Ĺ°¸¦ żŔÇÂÇŃ´Ů.
; 54   : 	lResult = RegOpenKeyEx(HKEY_LOCAL_MACHINE,"HARDWARE\\DESCRIPTION\\System\\CentralProcessor\\0", 0, KEY_ALL_ACCESS, &hKey);

  00036	8d 85 f8 fe ff
	ff		 lea	 eax, DWORD PTR _hKey$[ebp]
  0003c	50		 push	 eax
  0003d	68 3f 00 0f 00	 push	 983103			; 000f003fH
  00042	6a 00		 push	 0
  00044	68 00 00 00 00	 push	 OFFSET ??_C@_0CP@JONMPIIP@HARDWARE?2DESCRIPTION?2System?2Cen@
  00049	68 02 00 00 80	 push	 -2147483646		; 80000002H
  0004e	ff 15 00 00 00
	00		 call	 DWORD PTR __imp__RegOpenKeyExA@20

; 55   : 	// Read Regstry Key
; 56   : 	if( lResult == ERROR_SUCCESS ) 

  00054	85 c0		 test	 eax, eax
  00056	75 28		 jne	 SHORT $LN2@GetCPUInfo

; 57   : 	{
; 58   : 		RegQueryValueEx(hKey, "ProcessorNameString", 0, &dwType, (LPBYTE)buffer, &dwBytes); 

  00058	8d 85 f4 fe ff
	ff		 lea	 eax, DWORD PTR _dwBytes$[ebp]
  0005e	50		 push	 eax
  0005f	8d 85 fc fe ff
	ff		 lea	 eax, DWORD PTR _buffer$[ebp]
  00065	50		 push	 eax
  00066	8d 85 f0 fe ff
	ff		 lea	 eax, DWORD PTR _dwType$[ebp]
  0006c	50		 push	 eax
  0006d	6a 00		 push	 0
  0006f	68 00 00 00 00	 push	 OFFSET ??_C@_0BE@JLBLPHPE@ProcessorNameString@
  00074	ff b5 f8 fe ff
	ff		 push	 DWORD PTR _hKey$[ebp]
  0007a	ff 15 00 00 00
	00		 call	 DWORD PTR __imp__RegQueryValueExA@24
$LN2@GetCPUInfo:

; 59   : 	}
; 60   : 
; 61   : 	RegCloseKey(hKey);

  00080	ff b5 f8 fe ff
	ff		 push	 DWORD PTR _hKey$[ebp]
  00086	ff 15 00 00 00
	00		 call	 DWORD PTR __imp__RegCloseKey@4

; 62   : 
; 63   : 	i3String::Concat( pszTemp, buffer);

  0008c	8d 85 fc fe ff
	ff		 lea	 eax, DWORD PTR _buffer$[ebp]
  00092	50		 push	 eax
  00093	56		 push	 esi
  00094	e8 00 00 00 00	 call	 ?Concat@i3String@@YAXPADPBD@Z ; i3String::Concat

; 64   : #endif
; 65   : }

  00099	8b 4d fc	 mov	 ecx, DWORD PTR __$ArrayPad$[ebp]
  0009c	83 c4 08	 add	 esp, 8
  0009f	33 cd		 xor	 ecx, ebp
  000a1	5e		 pop	 esi
  000a2	e8 00 00 00 00	 call	 @__security_check_cookie@4
  000a7	8b e5		 mov	 esp, ebp
  000a9	5d		 pop	 ebp
  000aa	c3		 ret	 0
?GetCPUInfo@i3System@@YAXPAD@Z ENDP			; i3System::GetCPUInfo
_TEXT	ENDS
; Function compile flags: /Ogtp
; File E:\Proyectos\JuegosOnlineproyectos\PB\pbblow\Piercing Blow Remake\i3Server\src\i3Base\i3System.cpp
;	COMDAT ?DisableInterrupt@i3System@@YAXXZ
_TEXT	SEGMENT
?DisableInterrupt@i3System@@YAXXZ PROC			; i3System::DisableInterrupt, COMDAT

; 1104 : #if defined( I3_PSP)
; 1105 : 	s_IntrOldState = sceKernelCpuSuspendIntr();
; 1106 : #else
; 1107 : #endif
; 1108 : }

  00000	c2 00 00	 ret	 0
?DisableInterrupt@i3System@@YAXXZ ENDP			; i3System::DisableInterrupt
_TEXT	ENDS
; Function compile flags: /Ogtp
; File E:\Proyectos\JuegosOnlineproyectos\PB\pbblow\Piercing Blow Remake\i3Server\src\i3Base\i3System.cpp
;	COMDAT ?EnableInterrupt@i3System@@YAXXZ
_TEXT	SEGMENT
?EnableInterrupt@i3System@@YAXXZ PROC			; i3System::EnableInterrupt, COMDAT

; 1096 : #if defined( I3_PSP)
; 1097 : 	sceKernelCpuResumeIntr( s_IntrOldState);
; 1098 : #else
; 1099 : #endif
; 1100 : }

  00000	c2 00 00	 ret	 0
?EnableInterrupt@i3System@@YAXXZ ENDP			; i3System::EnableInterrupt
_TEXT	ENDS
; Function compile flags: /Ogtp
; File C:\Program Files (x86)\Windows Kits\10\Include\10.0.26100.0\ucrt\stdio.h
;	COMDAT _sprintf
_TEXT	SEGMENT
__Buffer$ = 8						; size = 4
__Format$ = 12						; size = 4
_sprintf PROC						; COMDAT

; 1771 :     {

  00000	55		 push	 ebp
  00001	8b ec		 mov	 ebp, esp

; 1392 :         int const _Result = __stdio_common_vsprintf(

  00003	8d 45 10	 lea	 eax, DWORD PTR __Format$[ebp+4]
  00006	50		 push	 eax
  00007	6a 00		 push	 0
  00009	ff 75 0c	 push	 DWORD PTR __Format$[ebp]
  0000c	6a ff		 push	 -1
  0000e	ff 75 08	 push	 DWORD PTR __Buffer$[ebp]
  00011	e8 00 00 00 00	 call	 ___local_stdio_printf_options
  00016	8b 08		 mov	 ecx, DWORD PTR [eax]
  00018	ff 70 04	 push	 DWORD PTR [eax+4]
  0001b	83 c9 01	 or	 ecx, 1
  0001e	51		 push	 ecx
  0001f	e8 00 00 00 00	 call	 ___stdio_common_vsprintf

; 1393 :             _CRT_INTERNAL_LOCAL_PRINTF_OPTIONS | _CRT_INTERNAL_PRINTF_LEGACY_VSPRINTF_NULL_TERMINATION,
; 1394 :             _Buffer, _BufferCount, _Format, _Locale, _ArgList);
; 1395 : 
; 1396 :         return _Result < 0 ? -1 : _Result;

  00024	83 c9 ff	 or	 ecx, -1
  00027	83 c4 1c	 add	 esp, 28			; 0000001cH
  0002a	85 c0		 test	 eax, eax
  0002c	0f 48 c1	 cmovs	 eax, ecx

; 1772 :         int _Result;
; 1773 :         va_list _ArgList;
; 1774 :         __crt_va_start(_ArgList, _Format);
; 1775 : 
; 1776 :         _Result = _vsprintf_l(_Buffer, _Format, NULL, _ArgList);
; 1777 : 
; 1778 :         __crt_va_end(_ArgList);
; 1779 :         return _Result;
; 1780 :     }

  0002f	5d		 pop	 ebp
  00030	c3		 ret	 0
_sprintf ENDP
_TEXT	ENDS
; Function compile flags: /Ogtp
; File C:\Program Files (x86)\Windows Kits\10\Include\10.0.26100.0\ucrt\corecrt_stdio_config.h
;	COMDAT ___local_stdio_printf_options
_TEXT	SEGMENT
___local_stdio_printf_options PROC			; COMDAT

; 91   :         static unsigned __int64 _OptionsStorage;
; 92   :         return &_OptionsStorage;

  00000	b8 00 00 00 00	 mov	 eax, OFFSET ?_OptionsStorage@?1??__local_stdio_printf_options@@9@4_KA ; `__local_stdio_printf_options'::`2'::_OptionsStorage

; 93   :     }

  00005	c3		 ret	 0
___local_stdio_printf_options ENDP
_TEXT	ENDS
; Function compile flags: /Ogtp
; File E:\Proyectos\JuegosOnlineproyectos\PB\pbblow\Piercing Blow Remake\i3Server\src\i3Base\i3System.cpp
;	COMDAT ?__global_array_delete@@YAXPAXI@Z
_TEXT	SEGMENT
_p$ = 8							; size = 4
_sz$ = 12						; size = 4
?__global_array_delete@@YAXPAXI@Z PROC			; __global_array_delete, COMDAT

  00000	e9 00 00 00 00	 jmp	 ??_V@YAXPAXI@Z		; operator delete[]
?__global_array_delete@@YAXPAXI@Z ENDP			; __global_array_delete
_TEXT	ENDS
; Function compile flags: /Ogtp
; File E:\Proyectos\JuegosOnlineproyectos\PB\pbblow\Piercing Blow Remake\i3Server\src\i3Base\i3System.cpp
;	COMDAT ?__global_array_delete@@YAXPAX@Z
_TEXT	SEGMENT
_p$ = 8							; size = 4
?__global_array_delete@@YAXPAX@Z PROC			; __global_array_delete, COMDAT

  00000	e9 00 00 00 00	 jmp	 ??_V@YAXPAX@Z		; operator delete[]
?__global_array_delete@@YAXPAX@Z ENDP			; __global_array_delete
_TEXT	ENDS
; Function compile flags: /Ogtp
; File E:\Proyectos\JuegosOnlineproyectos\PB\pbblow\Piercing Blow Remake\i3Server\src\i3Base\i3System.cpp
;	COMDAT ?__global_delete@@YAXPAXI@Z
_TEXT	SEGMENT
_p$ = 8							; size = 4
_sz$ = 12						; size = 4
?__global_delete@@YAXPAXI@Z PROC			; __global_delete, COMDAT

  00000	e9 00 00 00 00	 jmp	 ??3@YAXPAXI@Z		; operator delete
?__global_delete@@YAXPAXI@Z ENDP			; __global_delete
_TEXT	ENDS
; Function compile flags: /Ogtp
; File E:\Proyectos\JuegosOnlineproyectos\PB\pbblow\Piercing Blow Remake\i3Server\src\i3Base\i3System.cpp
;	COMDAT ?__empty_global_delete@@YAXPAXI@Z
_TEXT	SEGMENT
___formal$ = 8						; size = 4
___formal$ = 12						; size = 4
?__empty_global_delete@@YAXPAXI@Z PROC			; __empty_global_delete, COMDAT

  00000	c2 00 00	 ret	 0
?__empty_global_delete@@YAXPAXI@Z ENDP			; __empty_global_delete
_TEXT	ENDS
; Function compile flags: /Ogtp
; File E:\Proyectos\JuegosOnlineproyectos\PB\pbblow\Piercing Blow Remake\i3Server\src\i3Base\i3System.cpp
;	COMDAT ?__global_delete@@YAXPAX@Z
_TEXT	SEGMENT
_p$ = 8							; size = 4
?__global_delete@@YAXPAX@Z PROC				; __global_delete, COMDAT

  00000	e9 00 00 00 00	 jmp	 ??3@YAXPAX@Z		; operator delete
?__global_delete@@YAXPAX@Z ENDP				; __global_delete
_TEXT	ENDS
; Function compile flags: /Ogtp
; File E:\Proyectos\JuegosOnlineproyectos\PB\pbblow\Piercing Blow Remake\i3Server\src\i3Base\i3System.cpp
;	COMDAT ?__empty_global_delete@@YAXPAX@Z
_TEXT	SEGMENT
___formal$ = 8						; size = 4
?__empty_global_delete@@YAXPAX@Z PROC			; __empty_global_delete, COMDAT

  00000	c2 00 00	 ret	 0
?__empty_global_delete@@YAXPAX@Z ENDP			; __empty_global_delete
_TEXT	ENDS
END
