; Listing generated by Microsoft (R) Optimizing Compiler Version 19.50.35727.0 

	TITLE	E:\Proyectos\JuegosOnlineproyectos\PB\pbblow\Piercing Blow Remake\i3Server\Project\I3_DX\i3Server\x86\Release\i3Thread.obj
	.686P
	.XMM
	include listing.inc
	.model	flat

INCLUDELIB LIBCMT
INCLUDELIB OLDNAMES

PUBLIC	?s_pClassMetai3Thread@i3Thread@@2PAVi3ClassMeta@@A ; i3Thread::s_pClassMetai3Thread
PUBLIC	?s_pThreadHead@i3Thread@@1PAV1@A		; i3Thread::s_pThreadHead
PUBLIC	?CreateInstance@?$i3MetaTemplate@Vi3Thread@@@@UAEPAVi3ElementBase@@W4I3_CLASSMETA_TYPE@@@Z ; i3MetaTemplate<i3Thread>::CreateInstance
PUBLIC	?BindInstance@?$i3MetaTemplate@Vi3Thread@@@@UAEPAVi3ElementBase@@PAXW4I3_CLASSMETA_TYPE@@@Z ; i3MetaTemplate<i3Thread>::BindInstance
PUBLIC	??_7?$i3MetaTemplate@Vi3Thread@@@@6B@		; i3MetaTemplate<i3Thread>::`vftable'
PUBLIC	??_G?$i3MetaTemplate@Vi3Thread@@@@UAEPAXI@Z	; i3MetaTemplate<i3Thread>::`scalar deleting destructor'
PUBLIC	??_C@_0O@OCDFBOHM@i3ElementBase@		; `string'
PUBLIC	??_C@_08BGCHHDIJ@i3Thread@			; `string'
PUBLIC	??_R0?AVi3ClassMeta@@@8				; i3ClassMeta `RTTI Type Descriptor'
PUBLIC	??_R3i3ClassMeta@@8				; i3ClassMeta::`RTTI Class Hierarchy Descriptor'
PUBLIC	??_R2i3ClassMeta@@8				; i3ClassMeta::`RTTI Base Class Array'
PUBLIC	??_R1A@?0A@EA@i3ClassMeta@@8			; i3ClassMeta::`RTTI Base Class Descriptor at (0,-1,0,64)'
PUBLIC	??_R4?$i3MetaTemplate@Vi3Thread@@@@6B@		; i3MetaTemplate<i3Thread>::`RTTI Complete Object Locator'
PUBLIC	??_R0?AV?$i3MetaTemplate@Vi3Thread@@@@@8	; i3MetaTemplate<i3Thread> `RTTI Type Descriptor'
PUBLIC	??_R3?$i3MetaTemplate@Vi3Thread@@@@8		; i3MetaTemplate<i3Thread>::`RTTI Class Hierarchy Descriptor'
PUBLIC	??_R2?$i3MetaTemplate@Vi3Thread@@@@8		; i3MetaTemplate<i3Thread>::`RTTI Base Class Array'
PUBLIC	??_R1A@?0A@EA@?$i3MetaTemplate@Vi3Thread@@@@8	; i3MetaTemplate<i3Thread>::`RTTI Base Class Descriptor at (0,-1,0,64)'
PUBLIC	__Avx2WmemEnabledWeakValue
EXTRN	??_E?$i3MetaTemplate@Vi3Thread@@@@UAEPAXI@Z:PROC ; i3MetaTemplate<i3Thread>::`vector deleting destructor'
EXTRN	??_7type_info@@6B@:QWORD			; type_info::`vftable'
_BSS	SEGMENT
?s_pThreadHead@i3Thread@@1PAV1@A DD 01H DUP (?)		; i3Thread::s_pThreadHead
_BSS	ENDS
;	COMDAT __Avx2WmemEnabledWeakValue
_BSS	SEGMENT
__Avx2WmemEnabledWeakValue DD 01H DUP (?)
_BSS	ENDS
;	COMDAT ??_R1A@?0A@EA@?$i3MetaTemplate@Vi3Thread@@@@8
rdata$r	SEGMENT
??_R1A@?0A@EA@?$i3MetaTemplate@Vi3Thread@@@@8 DD FLAT:??_R0?AV?$i3MetaTemplate@Vi3Thread@@@@@8 ; i3MetaTemplate<i3Thread>::`RTTI Base Class Descriptor at (0,-1,0,64)'
	DD	01H
	DD	00H
	DD	0ffffffffH
	DD	00H
	DD	040H
	DD	FLAT:??_R3?$i3MetaTemplate@Vi3Thread@@@@8
rdata$r	ENDS
;	COMDAT ??_R2?$i3MetaTemplate@Vi3Thread@@@@8
rdata$r	SEGMENT
??_R2?$i3MetaTemplate@Vi3Thread@@@@8 DD FLAT:??_R1A@?0A@EA@?$i3MetaTemplate@Vi3Thread@@@@8 ; i3MetaTemplate<i3Thread>::`RTTI Base Class Array'
	DD	FLAT:??_R1A@?0A@EA@i3ClassMeta@@8
rdata$r	ENDS
;	COMDAT ??_R3?$i3MetaTemplate@Vi3Thread@@@@8
rdata$r	SEGMENT
??_R3?$i3MetaTemplate@Vi3Thread@@@@8 DD 00H		; i3MetaTemplate<i3Thread>::`RTTI Class Hierarchy Descriptor'
	DD	00H
	DD	02H
	DD	FLAT:??_R2?$i3MetaTemplate@Vi3Thread@@@@8
rdata$r	ENDS
;	COMDAT ??_R0?AV?$i3MetaTemplate@Vi3Thread@@@@@8
data$rs	SEGMENT
??_R0?AV?$i3MetaTemplate@Vi3Thread@@@@@8 DD FLAT:??_7type_info@@6B@ ; i3MetaTemplate<i3Thread> `RTTI Type Descriptor'
	DD	00H
	DB	'.?AV?$i3MetaTemplate@Vi3Thread@@@@', 00H
data$rs	ENDS
;	COMDAT ??_R4?$i3MetaTemplate@Vi3Thread@@@@6B@
rdata$r	SEGMENT
??_R4?$i3MetaTemplate@Vi3Thread@@@@6B@ DD 00H		; i3MetaTemplate<i3Thread>::`RTTI Complete Object Locator'
	DD	00H
	DD	00H
	DD	FLAT:??_R0?AV?$i3MetaTemplate@Vi3Thread@@@@@8
	DD	FLAT:??_R3?$i3MetaTemplate@Vi3Thread@@@@8
rdata$r	ENDS
;	COMDAT ??_R1A@?0A@EA@i3ClassMeta@@8
rdata$r	SEGMENT
??_R1A@?0A@EA@i3ClassMeta@@8 DD FLAT:??_R0?AVi3ClassMeta@@@8 ; i3ClassMeta::`RTTI Base Class Descriptor at (0,-1,0,64)'
	DD	00H
	DD	00H
	DD	0ffffffffH
	DD	00H
	DD	040H
	DD	FLAT:??_R3i3ClassMeta@@8
rdata$r	ENDS
;	COMDAT ??_R2i3ClassMeta@@8
rdata$r	SEGMENT
??_R2i3ClassMeta@@8 DD FLAT:??_R1A@?0A@EA@i3ClassMeta@@8 ; i3ClassMeta::`RTTI Base Class Array'
rdata$r	ENDS
;	COMDAT ??_R3i3ClassMeta@@8
rdata$r	SEGMENT
??_R3i3ClassMeta@@8 DD 00H				; i3ClassMeta::`RTTI Class Hierarchy Descriptor'
	DD	00H
	DD	01H
	DD	FLAT:??_R2i3ClassMeta@@8
rdata$r	ENDS
;	COMDAT ??_R0?AVi3ClassMeta@@@8
data$rs	SEGMENT
??_R0?AVi3ClassMeta@@@8 DD FLAT:??_7type_info@@6B@	; i3ClassMeta `RTTI Type Descriptor'
	DD	00H
	DB	'.?AVi3ClassMeta@@', 00H
data$rs	ENDS
;	COMDAT ??_C@_08BGCHHDIJ@i3Thread@
CONST	SEGMENT
??_C@_08BGCHHDIJ@i3Thread@ DB 'i3Thread', 00H		; `string'
CONST	ENDS
;	COMDAT ??_C@_0O@OCDFBOHM@i3ElementBase@
CONST	SEGMENT
??_C@_0O@OCDFBOHM@i3ElementBase@ DB 'i3ElementBase', 00H ; `string'
CONST	ENDS
;	COMDAT ??_7?$i3MetaTemplate@Vi3Thread@@@@6B@
CONST	SEGMENT
??_7?$i3MetaTemplate@Vi3Thread@@@@6B@ DD FLAT:??_R4?$i3MetaTemplate@Vi3Thread@@@@6B@ ; i3MetaTemplate<i3Thread>::`vftable'
	DD	FLAT:??_E?$i3MetaTemplate@Vi3Thread@@@@UAEPAXI@Z
	DD	FLAT:?CreateInstance@?$i3MetaTemplate@Vi3Thread@@@@UAEPAVi3ElementBase@@W4I3_CLASSMETA_TYPE@@@Z
	DD	FLAT:?BindInstance@?$i3MetaTemplate@Vi3Thread@@@@UAEPAVi3ElementBase@@PAXW4I3_CLASSMETA_TYPE@@@Z
CONST	ENDS
_DATA	SEGMENT
?s_pClassMetai3Thread@i3Thread@@2PAVi3ClassMeta@@A DD FLAT:?s_ClassMetai3Thread@@3V?$i3MetaTemplate@Vi3Thread@@@@A ; i3Thread::s_pClassMetai3Thread
_DATA	ENDS
PUBLIC	?__empty_global_delete@@YAXPAX@Z		; __empty_global_delete
PUBLIC	?__global_delete@@YAXPAX@Z			; __global_delete
PUBLIC	?__empty_global_delete@@YAXPAXI@Z		; __empty_global_delete
PUBLIC	?__global_delete@@YAXPAXI@Z			; __global_delete
PUBLIC	?__global_array_delete@@YAXPAX@Z		; __global_array_delete
PUBLIC	?__global_array_delete@@YAXPAXI@Z		; __global_array_delete
PUBLIC	?GetMemoryPool@i3ClassMeta@@QAEPAVi3MemoryPool@@XZ ; i3ClassMeta::GetMemoryPool
PUBLIC	?SetMemoryPool@i3ClassMeta@@QAEXPAVi3MemoryPool@@@Z ; i3ClassMeta::SetMemoryPool
PUBLIC	?GetClassSize@i3ClassMeta@@QAEIXZ		; i3ClassMeta::GetClassSize
PUBLIC	?GetClassNameA@i3ClassMeta@@QAEPADXZ		; i3ClassMeta::GetClassNameA
PUBLIC	?IsExactTypeOf@i3ClassMeta@@QAE_NPAV1@@Z	; i3ClassMeta::IsExactTypeOf
PUBLIC	?SetStyle@i3ClassMeta@@QAEXI@Z			; i3ClassMeta::SetStyle
PUBLIC	?GetStyle@i3ClassMeta@@QAEIXZ			; i3ClassMeta::GetStyle
PUBLIC	?AddStyle@i3ClassMeta@@QAEXI@Z			; i3ClassMeta::AddStyle
PUBLIC	?RemoveStyle@i3ClassMeta@@QAEXI@Z		; i3ClassMeta::RemoveStyle
PUBLIC	?IsStyle@i3ClassMeta@@QAEHI@Z			; i3ClassMeta::IsStyle
PUBLIC	?IsAbstractClass@i3ClassMeta@@QAEHXZ		; i3ClassMeta::IsAbstractClass
PUBLIC	?IsConcreteClass@i3ClassMeta@@QAEHXZ		; i3ClassMeta::IsConcreteClass
PUBLIC	?GetBaseClassMeta@i3ClassMeta@@QAEPAV1@XZ	; i3ClassMeta::GetBaseClassMeta
PUBLIC	?getHashCode@i3ClassMeta@@QAEIXZ		; i3ClassMeta::getHashCode
PUBLIC	??0i3ClassMeta@@QAE@ABV0@@Z			; i3ClassMeta::i3ClassMeta
PUBLIC	??4i3ClassMeta@@QAEAAV0@ABV0@@Z			; i3ClassMeta::operator=
PUBLIC	??_Gi3ClassMeta@@UAEPAXI@Z			; i3ClassMeta::`scalar deleting destructor'
PUBLIC	??_Ei3ClassMeta@@UAEPAXI@Z			; i3ClassMeta::`vector deleting destructor'
PUBLIC	?GetClassMeta@i3ElementBase@@SAPAVi3ClassMeta@@XZ ; i3ElementBase::GetClassMeta
PUBLIC	?GetRefCount@i3ElementBase@@QAEHXZ		; i3ElementBase::GetRefCount
PUBLIC	?__SetMemoryPool@i3ElementBase@@QAEXPAVi3MemoryPool@@@Z ; i3ElementBase::__SetMemoryPool
PUBLIC	?__GetMemoryPool@i3ElementBase@@QAEPAVi3MemoryPool@@XZ ; i3ElementBase::__GetMemoryPool
PUBLIC	?IsExactTypeOf@i3ElementBase@@QAE_NPAVi3ClassMeta@@@Z ; i3ElementBase::IsExactTypeOf
PUBLIC	?IsTypeOf@i3ElementBase@@QAE_NPAVi3ClassMeta@@@Z ; i3ElementBase::IsTypeOf
PUBLIC	?AddRef@i3ElementBase@@QAEHXZ			; i3ElementBase::AddRef
PUBLIC	?_internal_SetRefCount@i3ElementBase@@QAEXH@Z	; i3ElementBase::_internal_SetRefCount
PUBLIC	??0i3ElementBase@@QAE@ABV0@@Z			; i3ElementBase::i3ElementBase
PUBLIC	??4i3ElementBase@@QAEAAV0@ABV0@@Z		; i3ElementBase::operator=
PUBLIC	??_Gi3ElementBase@@UAEPAXI@Z			; i3ElementBase::`scalar deleting destructor'
PUBLIC	??_Ei3ElementBase@@UAEPAXI@Z			; i3ElementBase::`vector deleting destructor'
PUBLIC	??0i3MemoryPool@@QAE@ABV0@@Z			; i3MemoryPool::i3MemoryPool
PUBLIC	??4i3MemoryPool@@QAEAAV0@ABV0@@Z		; i3MemoryPool::operator=
PUBLIC	??_Gi3MemoryPool@@UAEPAXI@Z			; i3MemoryPool::`scalar deleting destructor'
PUBLIC	??_Ei3MemoryPool@@UAEPAXI@Z			; i3MemoryPool::`vector deleting destructor'
PUBLIC	?GetClassMeta@i3Thread@@SAPAVi3ClassMeta@@XZ	; i3Thread::GetClassMeta
PUBLIC	?GetMeta@i3Thread@@UAEPAVi3ClassMeta@@XZ	; i3Thread::GetMeta
PUBLIC	?RegisterMeta@i3Thread@@SAXXZ			; i3Thread::RegisterMeta
PUBLIC	?SetConcreteClass@i3Thread@@SAXPAVi3ClassMeta@@@Z ; i3Thread::SetConcreteClass
PUBLIC	?SetGhostClass@i3Thread@@SAXPAVi3ClassMeta@@@Z	; i3Thread::SetGhostClass
PUBLIC	?_NewObject@i3Thread@@SAPAV1@XZ			; i3Thread::_NewObject
PUBLIC	?_NewObjectRef@i3Thread@@SAPAV1@XZ		; i3Thread::_NewObjectRef
PUBLIC	?_BindObject@i3Thread@@SAPAV1@PAX@Z		; i3Thread::_BindObject
PUBLIC	?_BindObjectRef@i3Thread@@SAPAV1@PAX@Z		; i3Thread::_BindObjectRef
PUBLIC	?_NewObjectByType@i3Thread@@SAPAV1@W4I3_CLASSMETA_TYPE@@@Z ; i3Thread::_NewObjectByType
PUBLIC	?_NewObjectRefByType@i3Thread@@SAPAV1@W4I3_CLASSMETA_TYPE@@@Z ; i3Thread::_NewObjectRefByType
PUBLIC	?_BindObjectByType@i3Thread@@SAPAV1@PAXW4I3_CLASSMETA_TYPE@@@Z ; i3Thread::_BindObjectByType
PUBLIC	?_BindObjectRefByType@i3Thread@@SAPAV1@PAXW4I3_CLASSMETA_TYPE@@@Z ; i3Thread::_BindObjectRefByType
PUBLIC	??0i3Thread@@QAE@XZ				; i3Thread::i3Thread
PUBLIC	??1i3Thread@@UAE@XZ				; i3Thread::~i3Thread
PUBLIC	?Create@i3Thread@@UAEHPADIIPAXH@Z		; i3Thread::Create
PUBLIC	?Suspend@i3Thread@@UAEHXZ			; i3Thread::Suspend
PUBLIC	?Resume@i3Thread@@UAEHXZ			; i3Thread::Resume
PUBLIC	?Terminate@i3Thread@@UAEH_N@Z			; i3Thread::Terminate
PUBLIC	?WaitForFinish@i3Thread@@UAEIXZ			; i3Thread::WaitForFinish
PUBLIC	?SetPriority@i3Thread@@UAEHH@Z			; i3Thread::SetPriority
PUBLIC	?GetParam@i3Thread@@QAEPAXXZ			; i3Thread::GetParam
PUBLIC	?GetState@i3Thread@@QAEIXZ			; i3Thread::GetState
PUBLIC	?GetReturnCode@i3Thread@@QAEIXZ			; i3Thread::GetReturnCode
PUBLIC	?GetPriority@i3Thread@@QAEHXZ			; i3Thread::GetPriority
PUBLIC	?BeforeRunning@i3Thread@@UAEXPAX@Z		; i3Thread::BeforeRunning
PUBLIC	?OnRunning@i3Thread@@UAEIPAX@Z			; i3Thread::OnRunning
PUBLIC	?AfterRunning@i3Thread@@UAEXPAX@Z		; i3Thread::AfterRunning
PUBLIC	?GetFirstThread@i3Thread@@SAPAV1@XZ		; i3Thread::GetFirstThread
PUBLIC	?GetThreadID@i3Thread@@QAEIXZ			; i3Thread::GetThreadID
PUBLIC	??0i3Thread@@QAE@ABV0@@Z			; i3Thread::i3Thread
PUBLIC	??4i3Thread@@QAEAAV0@ABV0@@Z			; i3Thread::operator=
PUBLIC	??_Gi3Thread@@UAEPAXI@Z				; i3Thread::`scalar deleting destructor'
PUBLIC	??_Ei3Thread@@UAEPAXI@Z				; i3Thread::`vector deleting destructor'
PUBLIC	??0?$i3MetaTemplate@Vi3Thread@@@@QAE@IPAD0W4I3_CLASSMETA_TYPE@@@Z ; i3MetaTemplate<i3Thread>::i3MetaTemplate<i3Thread>
PUBLIC	??_7i3ClassMeta@@6B@				; i3ClassMeta::`vftable'
PUBLIC	??_7i3ElementBase@@6B@				; i3ElementBase::`vftable'
PUBLIC	??_7i3MemoryPool@@6B@				; i3MemoryPool::`vftable'
PUBLIC	??_7i3Thread@@6B@				; i3Thread::`vftable'
PUBLIC	??_R4i3ElementBase@@6B@				; i3ElementBase::`RTTI Complete Object Locator'
PUBLIC	??_R0?AVi3ElementBase@@@8			; i3ElementBase `RTTI Type Descriptor'
PUBLIC	??_R3i3ElementBase@@8				; i3ElementBase::`RTTI Class Hierarchy Descriptor'
PUBLIC	??_R2i3ElementBase@@8				; i3ElementBase::`RTTI Base Class Array'
PUBLIC	??_R1A@?0A@EA@i3ElementBase@@8			; i3ElementBase::`RTTI Base Class Descriptor at (0,-1,0,64)'
PUBLIC	??_R4i3MemoryPool@@6B@				; i3MemoryPool::`RTTI Complete Object Locator'
PUBLIC	??_R0?AVi3MemoryPool@@@8			; i3MemoryPool `RTTI Type Descriptor'
PUBLIC	??_R3i3MemoryPool@@8				; i3MemoryPool::`RTTI Class Hierarchy Descriptor'
PUBLIC	??_R2i3MemoryPool@@8				; i3MemoryPool::`RTTI Base Class Array'
PUBLIC	??_R1A@?0A@EA@i3MemoryPool@@8			; i3MemoryPool::`RTTI Base Class Descriptor at (0,-1,0,64)'
PUBLIC	??_R4i3ClassMeta@@6B@				; i3ClassMeta::`RTTI Complete Object Locator'
PUBLIC	??_R4i3Thread@@6B@				; i3Thread::`RTTI Complete Object Locator'
PUBLIC	??_R0?AVi3Thread@@@8				; i3Thread `RTTI Type Descriptor'
PUBLIC	??_R3i3Thread@@8				; i3Thread::`RTTI Class Hierarchy Descriptor'
PUBLIC	??_R2i3Thread@@8				; i3Thread::`RTTI Base Class Array'
PUBLIC	??_R1A@?0A@EA@i3Thread@@8			; i3Thread::`RTTI Base Class Descriptor at (0,-1,0,64)'
EXTRN	??_M@YGXPAXIIP6EX0@Z@Z:PROC			; `eh vector destructor iterator'
EXTRN	__purecall:PROC
EXTRN	??3@YAXPAX@Z:PROC				; operator delete
EXTRN	??3@YAXPAXI@Z:PROC				; operator delete
EXTRN	??_V@YAXPAX@Z:PROC				; operator delete[]
EXTRN	??_V@YAXPAXI@Z:PROC				; operator delete[]
EXTRN	_atexit:PROC
EXTRN	__imp__WaitForSingleObject@8:PROC
EXTRN	__imp__CreateThread@24:PROC
EXTRN	__imp__SetThreadPriority@8:PROC
EXTRN	__imp__TerminateThread@8:PROC
EXTRN	__imp__SuspendThread@4:PROC
EXTRN	__imp__ResumeThread@4:PROC
EXTRN	??0i3ClassMeta@@QAE@IPAD0W4I3_CLASSMETA_TYPE@@@Z:PROC ; i3ClassMeta::i3ClassMeta
EXTRN	??1i3ClassMeta@@UAE@XZ:PROC			; i3ClassMeta::~i3ClassMeta
EXTRN	?CreateInstance@i3ClassMeta@@UAEPAVi3ElementBase@@W4I3_CLASSMETA_TYPE@@@Z:PROC ; i3ClassMeta::CreateInstance
EXTRN	?BindInstance@i3ClassMeta@@UAEPAVi3ElementBase@@PAXW4I3_CLASSMETA_TYPE@@@Z:PROC ; i3ClassMeta::BindInstance
EXTRN	?IsTypeOf@i3ClassMeta@@QAE_NPAV1@@Z:PROC	; i3ClassMeta::IsTypeOf
EXTRN	?Register@i3ClassMeta@@QAEXXZ:PROC		; i3ClassMeta::Register
EXTRN	?GetConcreteClass@i3ClassMeta@@QAEPAV1@W4I3_CLASSMETA_TYPE@@@Z:PROC ; i3ClassMeta::GetConcreteClass
EXTRN	?SetConcreteClass@i3ClassMeta@@QAEXPAV1@@Z:PROC	; i3ClassMeta::SetConcreteClass
EXTRN	?SetGhostClass@i3ClassMeta@@QAEXPAV1@@Z:PROC	; i3ClassMeta::SetGhostClass
EXTRN	?GetMeta@i3ElementBase@@UAEPAVi3ClassMeta@@XZ:PROC ; i3ElementBase::GetMeta
EXTRN	??0i3ElementBase@@QAE@XZ:PROC			; i3ElementBase::i3ElementBase
EXTRN	??1i3ElementBase@@UAE@XZ:PROC			; i3ElementBase::~i3ElementBase
EXTRN	??2i3ElementBase@@SAPAXI@Z:PROC			; i3ElementBase::operator new
EXTRN	??2i3ElementBase@@SAPAXIPAX@Z:PROC		; i3ElementBase::operator new
EXTRN	??3i3ElementBase@@SAXPAX@Z:PROC			; i3ElementBase::operator delete
EXTRN	??3i3ElementBase@@SAXPAX0@Z:PROC		; i3ElementBase::operator delete
EXTRN	?CopyTo@i3ElementBase@@UAEXPAV1@W4I3_COPY_METHOD@@@Z:PROC ; i3ElementBase::CopyTo
EXTRN	??1i3MemoryPool@@UAE@XZ:PROC			; i3MemoryPool::~i3MemoryPool
EXTRN	@__security_check_cookie@4:PROC
EXTRN	___CxxFrameHandler3:PROC
EXTRN	?s_pClassMetai3ElementBase@i3ElementBase@@2PAVi3ClassMeta@@A:DWORD ; i3ElementBase::s_pClassMetai3ElementBase
EXTRN	___security_cookie:DWORD
_BSS	SEGMENT
?s_ClassMetai3Thread@@3V?$i3MetaTemplate@Vi3Thread@@@@A DB 038H DUP (?) ; s_ClassMetai3Thread
_BSS	ENDS
CRT$XCU	SEGMENT
?s_ClassMetai3Thread$initializer$@@3P6AXXZA DD FLAT:??__Es_ClassMetai3Thread@@YAXXZ ; s_ClassMetai3Thread$initializer$
CRT$XCU	ENDS
;	COMDAT ??_R1A@?0A@EA@i3Thread@@8
rdata$r	SEGMENT
??_R1A@?0A@EA@i3Thread@@8 DD FLAT:??_R0?AVi3Thread@@@8	; i3Thread::`RTTI Base Class Descriptor at (0,-1,0,64)'
	DD	01H
	DD	00H
	DD	0ffffffffH
	DD	00H
	DD	040H
	DD	FLAT:??_R3i3Thread@@8
rdata$r	ENDS
;	COMDAT ??_R2i3Thread@@8
rdata$r	SEGMENT
??_R2i3Thread@@8 DD FLAT:??_R1A@?0A@EA@i3Thread@@8	; i3Thread::`RTTI Base Class Array'
	DD	FLAT:??_R1A@?0A@EA@i3ElementBase@@8
rdata$r	ENDS
;	COMDAT ??_R3i3Thread@@8
rdata$r	SEGMENT
??_R3i3Thread@@8 DD 00H					; i3Thread::`RTTI Class Hierarchy Descriptor'
	DD	00H
	DD	02H
	DD	FLAT:??_R2i3Thread@@8
rdata$r	ENDS
;	COMDAT ??_R0?AVi3Thread@@@8
data$rs	SEGMENT
??_R0?AVi3Thread@@@8 DD FLAT:??_7type_info@@6B@		; i3Thread `RTTI Type Descriptor'
	DD	00H
	DB	'.?AVi3Thread@@', 00H
data$rs	ENDS
;	COMDAT ??_R4i3Thread@@6B@
rdata$r	SEGMENT
??_R4i3Thread@@6B@ DD 00H				; i3Thread::`RTTI Complete Object Locator'
	DD	00H
	DD	00H
	DD	FLAT:??_R0?AVi3Thread@@@8
	DD	FLAT:??_R3i3Thread@@8
rdata$r	ENDS
;	COMDAT ??_R4i3ClassMeta@@6B@
rdata$r	SEGMENT
??_R4i3ClassMeta@@6B@ DD 00H				; i3ClassMeta::`RTTI Complete Object Locator'
	DD	00H
	DD	00H
	DD	FLAT:??_R0?AVi3ClassMeta@@@8
	DD	FLAT:??_R3i3ClassMeta@@8
rdata$r	ENDS
;	COMDAT ??_R1A@?0A@EA@i3MemoryPool@@8
rdata$r	SEGMENT
??_R1A@?0A@EA@i3MemoryPool@@8 DD FLAT:??_R0?AVi3MemoryPool@@@8 ; i3MemoryPool::`RTTI Base Class Descriptor at (0,-1,0,64)'
	DD	00H
	DD	00H
	DD	0ffffffffH
	DD	00H
	DD	040H
	DD	FLAT:??_R3i3MemoryPool@@8
rdata$r	ENDS
;	COMDAT ??_R2i3MemoryPool@@8
rdata$r	SEGMENT
??_R2i3MemoryPool@@8 DD FLAT:??_R1A@?0A@EA@i3MemoryPool@@8 ; i3MemoryPool::`RTTI Base Class Array'
rdata$r	ENDS
;	COMDAT ??_R3i3MemoryPool@@8
rdata$r	SEGMENT
??_R3i3MemoryPool@@8 DD 00H				; i3MemoryPool::`RTTI Class Hierarchy Descriptor'
	DD	00H
	DD	01H
	DD	FLAT:??_R2i3MemoryPool@@8
rdata$r	ENDS
;	COMDAT ??_R0?AVi3MemoryPool@@@8
data$rs	SEGMENT
??_R0?AVi3MemoryPool@@@8 DD FLAT:??_7type_info@@6B@	; i3MemoryPool `RTTI Type Descriptor'
	DD	00H
	DB	'.?AVi3MemoryPool@@', 00H
data$rs	ENDS
;	COMDAT ??_R4i3MemoryPool@@6B@
rdata$r	SEGMENT
??_R4i3MemoryPool@@6B@ DD 00H				; i3MemoryPool::`RTTI Complete Object Locator'
	DD	00H
	DD	00H
	DD	FLAT:??_R0?AVi3MemoryPool@@@8
	DD	FLAT:??_R3i3MemoryPool@@8
rdata$r	ENDS
;	COMDAT ??_R1A@?0A@EA@i3ElementBase@@8
rdata$r	SEGMENT
??_R1A@?0A@EA@i3ElementBase@@8 DD FLAT:??_R0?AVi3ElementBase@@@8 ; i3ElementBase::`RTTI Base Class Descriptor at (0,-1,0,64)'
	DD	00H
	DD	00H
	DD	0ffffffffH
	DD	00H
	DD	040H
	DD	FLAT:??_R3i3ElementBase@@8
rdata$r	ENDS
;	COMDAT ??_R2i3ElementBase@@8
rdata$r	SEGMENT
??_R2i3ElementBase@@8 DD FLAT:??_R1A@?0A@EA@i3ElementBase@@8 ; i3ElementBase::`RTTI Base Class Array'
rdata$r	ENDS
;	COMDAT ??_R3i3ElementBase@@8
rdata$r	SEGMENT
??_R3i3ElementBase@@8 DD 00H				; i3ElementBase::`RTTI Class Hierarchy Descriptor'
	DD	00H
	DD	01H
	DD	FLAT:??_R2i3ElementBase@@8
rdata$r	ENDS
;	COMDAT ??_R0?AVi3ElementBase@@@8
data$rs	SEGMENT
??_R0?AVi3ElementBase@@@8 DD FLAT:??_7type_info@@6B@	; i3ElementBase `RTTI Type Descriptor'
	DD	00H
	DB	'.?AVi3ElementBase@@', 00H
data$rs	ENDS
;	COMDAT ??_R4i3ElementBase@@6B@
rdata$r	SEGMENT
??_R4i3ElementBase@@6B@ DD 00H				; i3ElementBase::`RTTI Complete Object Locator'
	DD	00H
	DD	00H
	DD	FLAT:??_R0?AVi3ElementBase@@@8
	DD	FLAT:??_R3i3ElementBase@@8
rdata$r	ENDS
;	COMDAT ??_7i3Thread@@6B@
CONST	SEGMENT
??_7i3Thread@@6B@ DD FLAT:??_R4i3Thread@@6B@		; i3Thread::`vftable'
	DD	FLAT:?GetMeta@i3Thread@@UAEPAVi3ClassMeta@@XZ
	DD	FLAT:??_Ei3Thread@@UAEPAXI@Z
	DD	FLAT:?CopyTo@i3ElementBase@@UAEXPAV1@W4I3_COPY_METHOD@@@Z
	DD	FLAT:?Create@i3Thread@@UAEHPADIIPAXH@Z
	DD	FLAT:?Suspend@i3Thread@@UAEHXZ
	DD	FLAT:?Resume@i3Thread@@UAEHXZ
	DD	FLAT:?Terminate@i3Thread@@UAEH_N@Z
	DD	FLAT:?WaitForFinish@i3Thread@@UAEIXZ
	DD	FLAT:?SetPriority@i3Thread@@UAEHH@Z
	DD	FLAT:?BeforeRunning@i3Thread@@UAEXPAX@Z
	DD	FLAT:?OnRunning@i3Thread@@UAEIPAX@Z
	DD	FLAT:?AfterRunning@i3Thread@@UAEXPAX@Z
CONST	ENDS
;	COMDAT ??_7i3MemoryPool@@6B@
CONST	SEGMENT
??_7i3MemoryPool@@6B@ DD FLAT:??_R4i3MemoryPool@@6B@	; i3MemoryPool::`vftable'
	DD	FLAT:??_Ei3MemoryPool@@UAEPAXI@Z
	DD	FLAT:__purecall
	DD	FLAT:__purecall
CONST	ENDS
;	COMDAT ??_7i3ElementBase@@6B@
CONST	SEGMENT
??_7i3ElementBase@@6B@ DD FLAT:??_R4i3ElementBase@@6B@	; i3ElementBase::`vftable'
	DD	FLAT:?GetMeta@i3ElementBase@@UAEPAVi3ClassMeta@@XZ
	DD	FLAT:??_Ei3ElementBase@@UAEPAXI@Z
	DD	FLAT:?CopyTo@i3ElementBase@@UAEXPAV1@W4I3_COPY_METHOD@@@Z
CONST	ENDS
;	COMDAT ??_7i3ClassMeta@@6B@
CONST	SEGMENT
??_7i3ClassMeta@@6B@ DD FLAT:??_R4i3ClassMeta@@6B@	; i3ClassMeta::`vftable'
	DD	FLAT:??_Ei3ClassMeta@@UAEPAXI@Z
	DD	FLAT:?CreateInstance@i3ClassMeta@@UAEPAVi3ElementBase@@W4I3_CLASSMETA_TYPE@@@Z
	DD	FLAT:?BindInstance@i3ClassMeta@@UAEPAVi3ElementBase@@PAXW4I3_CLASSMETA_TYPE@@@Z
CONST	ENDS
;	COMDAT xdata$x
xdata$x	SEGMENT
__unwindtable$?BindInstance@?$i3MetaTemplate@Vi3Thread@@@@UAEPAVi3ElementBase@@PAXW4I3_CLASSMETA_TYPE@@@Z DD 0ffffffffH
	DD	FLAT:__unwindfunclet$?BindInstance@?$i3MetaTemplate@Vi3Thread@@@@UAEPAVi3ElementBase@@PAXW4I3_CLASSMETA_TYPE@@@Z$0
__ehfuncinfo$?BindInstance@?$i3MetaTemplate@Vi3Thread@@@@UAEPAVi3ElementBase@@PAXW4I3_CLASSMETA_TYPE@@@Z DD 019930522H
	DD	01H
	DD	FLAT:__unwindtable$?BindInstance@?$i3MetaTemplate@Vi3Thread@@@@UAEPAVi3ElementBase@@PAXW4I3_CLASSMETA_TYPE@@@Z
	DD	2 DUP(00H)
	DD	2 DUP(00H)
	DD	00H
	DD	01H
xdata$x	ENDS
;	COMDAT xdata$x
xdata$x	SEGMENT
__unwindtable$?CreateInstance@?$i3MetaTemplate@Vi3Thread@@@@UAEPAVi3ElementBase@@W4I3_CLASSMETA_TYPE@@@Z DD 0ffffffffH
	DD	FLAT:__unwindfunclet$?CreateInstance@?$i3MetaTemplate@Vi3Thread@@@@UAEPAVi3ElementBase@@W4I3_CLASSMETA_TYPE@@@Z$0
__ehfuncinfo$?CreateInstance@?$i3MetaTemplate@Vi3Thread@@@@UAEPAVi3ElementBase@@W4I3_CLASSMETA_TYPE@@@Z DD 019930522H
	DD	01H
	DD	FLAT:__unwindtable$?CreateInstance@?$i3MetaTemplate@Vi3Thread@@@@UAEPAVi3ElementBase@@W4I3_CLASSMETA_TYPE@@@Z
	DD	2 DUP(00H)
	DD	2 DUP(00H)
	DD	00H
	DD	01H
xdata$x	ENDS
;	COMDAT xdata$x
xdata$x	SEGMENT
__ehfuncinfo$??_Ei3Thread@@UAEPAXI@Z DD 019930522H
	DD	00H
	DD	00H
	DD	2 DUP(00H)
	DD	2 DUP(00H)
	DD	00H
	DD	05H
xdata$x	ENDS
;	COMDAT xdata$x
xdata$x	SEGMENT
__ehfuncinfo$??_Ei3MemoryPool@@UAEPAXI@Z DD 019930522H
	DD	00H
	DD	00H
	DD	2 DUP(00H)
	DD	2 DUP(00H)
	DD	00H
	DD	05H
xdata$x	ENDS
;	COMDAT xdata$x
xdata$x	SEGMENT
__ehfuncinfo$??_Ei3ElementBase@@UAEPAXI@Z DD 019930522H
	DD	00H
	DD	00H
	DD	2 DUP(00H)
	DD	2 DUP(00H)
	DD	00H
	DD	05H
xdata$x	ENDS
;	COMDAT xdata$x
xdata$x	SEGMENT
__ehfuncinfo$??_Ei3ClassMeta@@UAEPAXI@Z DD 019930522H
	DD	00H
	DD	00H
	DD	2 DUP(00H)
	DD	2 DUP(00H)
	DD	00H
	DD	05H
xdata$x	ENDS
; Function compile flags: /Ogtp
; File E:\Proyectos\JuegosOnlineproyectos\PB\pbblow\Piercing Blow Remake\i3Server\src\i3Base\i3Thread.cpp
;	COMDAT ?_DefThreadProc@@YAIPAVi3Thread@@@Z
_TEXT	SEGMENT
_pThread$ = 8						; size = 4
?_DefThreadProc@@YAIPAVi3Thread@@@Z PROC		; _DefThreadProc, COMDAT

; 26   : {

  00000	55		 push	 ebp
  00001	8b ec		 mov	 ebp, esp
  00003	56		 push	 esi
  00004	57		 push	 edi

; 27   : 	UINT32 Rv;
; 28   : 
; 29   : 	pThread->BeforeRunning( pThread->GetParam());

  00005	8b 7d 08	 mov	 edi, DWORD PTR _pThread$[ebp]
  00008	8b cf		 mov	 ecx, edi
  0000a	8b 07		 mov	 eax, DWORD PTR [edi]
  0000c	ff 77 6c	 push	 DWORD PTR [edi+108]
  0000f	ff 50 24	 call	 DWORD PTR [eax+36]

; 30   : 
; 31   : 	Rv = pThread->OnRunning( pThread->GetParam());

  00012	8b 07		 mov	 eax, DWORD PTR [edi]
  00014	8b cf		 mov	 ecx, edi
  00016	ff 77 6c	 push	 DWORD PTR [edi+108]
  00019	ff 50 28	 call	 DWORD PTR [eax+40]

; 32   : 	pThread->m_ReturnCode = Rv;
; 33   : 
; 34   : 	pThread->AfterRunning( pThread->GetParam());

  0001c	8b 17		 mov	 edx, DWORD PTR [edi]
  0001e	8b f0		 mov	 esi, eax
  00020	ff 77 6c	 push	 DWORD PTR [edi+108]
  00023	8b cf		 mov	 ecx, edi
  00025	89 77 70	 mov	 DWORD PTR [edi+112], esi
  00028	ff 52 2c	 call	 DWORD PTR [edx+44]

; 35   : 
; 36   : 	return Rv;

  0002b	5f		 pop	 edi
  0002c	8b c6		 mov	 eax, esi
  0002e	5e		 pop	 esi

; 37   : }

  0002f	5d		 pop	 ebp
  00030	c3		 ret	 0
?_DefThreadProc@@YAIPAVi3Thread@@@Z ENDP		; _DefThreadProc
_TEXT	ENDS
; Function compile flags: /Ogtp
;	COMDAT ??__Fs_ClassMetai3Thread@@YAXXZ
text$yd	SEGMENT
??__Fs_ClassMetai3Thread@@YAXXZ PROC			; `dynamic atexit destructor for 's_ClassMetai3Thread'', COMDAT
  00000	b9 00 00 00 00	 mov	 ecx, OFFSET ?s_ClassMetai3Thread@@3V?$i3MetaTemplate@Vi3Thread@@@@A
  00005	e9 00 00 00 00	 jmp	 ??1i3ClassMeta@@UAE@XZ	; i3ClassMeta::~i3ClassMeta
??__Fs_ClassMetai3Thread@@YAXXZ ENDP			; `dynamic atexit destructor for 's_ClassMetai3Thread''
text$yd	ENDS
; Function compile flags: /Ogtp
; File E:\Proyectos\JuegosOnlineproyectos\PB\pbblow\Piercing Blow Remake\i3Server\src\i3Base\i3Thread.cpp
; File E:\Proyectos\JuegosOnlineproyectos\PB\pbblow\Piercing Blow Remake\i3Server\include\i3Base\i3MetaTemplate.h
; File E:\Proyectos\JuegosOnlineproyectos\PB\pbblow\Piercing Blow Remake\i3Server\src\i3Base\i3Thread.cpp
; File E:\Proyectos\JuegosOnlineproyectos\PB\pbblow\Piercing Blow Remake\i3Server\include\i3Base\i3MetaTemplate.h
; File E:\Proyectos\JuegosOnlineproyectos\PB\pbblow\Piercing Blow Remake\i3Server\src\i3Base\i3Thread.cpp
;	COMDAT ??__Es_ClassMetai3Thread@@YAXXZ
text$di	SEGMENT
??__Es_ClassMetai3Thread@@YAXXZ PROC			; `dynamic initializer for 's_ClassMetai3Thread'', COMDAT
; File E:\Proyectos\JuegosOnlineproyectos\PB\pbblow\Piercing Blow Remake\i3Server\include\i3Base\i3MetaTemplate.h

; 28   : : i3ClassMeta( classSz, pszClassName, pszBaseClassName, type)

  00000	6a 00		 push	 0
  00002	68 00 00 00 00	 push	 OFFSET ??_C@_0O@OCDFBOHM@i3ElementBase@
  00007	68 00 00 00 00	 push	 OFFSET ??_C@_08BGCHHDIJ@i3Thread@
  0000c	6a 74		 push	 116			; 00000074H
  0000e	b9 00 00 00 00	 mov	 ecx, OFFSET ?s_ClassMetai3Thread@@3V?$i3MetaTemplate@Vi3Thread@@@@A
  00013	e8 00 00 00 00	 call	 ??0i3ClassMeta@@QAE@IPAD0W4I3_CLASSMETA_TYPE@@@Z ; i3ClassMeta::i3ClassMeta
; File E:\Proyectos\JuegosOnlineproyectos\PB\pbblow\Piercing Blow Remake\i3Server\src\i3Base\i3Thread.cpp

; 7    : I3_CLASS_INSTANCE( i3Thread, i3ElementBase);

  00018	68 00 00 00 00	 push	 OFFSET ??__Fs_ClassMetai3Thread@@YAXXZ ; `dynamic atexit destructor for 's_ClassMetai3Thread''
; File E:\Proyectos\JuegosOnlineproyectos\PB\pbblow\Piercing Blow Remake\i3Server\include\i3Base\i3MetaTemplate.h

; 29   : {

  0001d	c7 05 00 00 00
	00 00 00 00 00	 mov	 DWORD PTR ?s_ClassMetai3Thread@@3V?$i3MetaTemplate@Vi3Thread@@@@A, OFFSET ??_7?$i3MetaTemplate@Vi3Thread@@@@6B@
; File E:\Proyectos\JuegosOnlineproyectos\PB\pbblow\Piercing Blow Remake\i3Server\src\i3Base\i3Thread.cpp

; 7    : I3_CLASS_INSTANCE( i3Thread, i3ElementBase);

  00027	e8 00 00 00 00	 call	 _atexit
  0002c	59		 pop	 ecx
  0002d	c3		 ret	 0
??__Es_ClassMetai3Thread@@YAXXZ ENDP			; `dynamic initializer for 's_ClassMetai3Thread''
text$di	ENDS
; Function compile flags: /Ogtp
;	COMDAT ??_G?$i3MetaTemplate@Vi3Thread@@@@UAEPAXI@Z
_TEXT	SEGMENT
___flags$ = 8						; size = 4
??_G?$i3MetaTemplate@Vi3Thread@@@@UAEPAXI@Z PROC	; i3MetaTemplate<i3Thread>::`scalar deleting destructor', COMDAT
; _this$ = ecx
  00000	55		 push	 ebp
  00001	8b ec		 mov	 ebp, esp
  00003	56		 push	 esi
  00004	8b f1		 mov	 esi, ecx
  00006	e8 00 00 00 00	 call	 ??1i3ClassMeta@@UAE@XZ	; i3ClassMeta::~i3ClassMeta
  0000b	f6 45 08 01	 test	 BYTE PTR ___flags$[ebp], 1
  0000f	74 0b		 je	 SHORT $LN10@scalar
  00011	6a 38		 push	 56			; 00000038H
  00013	56		 push	 esi
  00014	e8 00 00 00 00	 call	 ??3@YAXPAXI@Z		; operator delete
  00019	83 c4 08	 add	 esp, 8
$LN10@scalar:
  0001c	8b c6		 mov	 eax, esi
  0001e	5e		 pop	 esi
  0001f	5d		 pop	 ebp
  00020	c2 04 00	 ret	 4
??_G?$i3MetaTemplate@Vi3Thread@@@@UAEPAXI@Z ENDP	; i3MetaTemplate<i3Thread>::`scalar deleting destructor'
_TEXT	ENDS
; Function compile flags: /Ogtp
; File E:\Proyectos\JuegosOnlineproyectos\PB\pbblow\Piercing Blow Remake\i3Server\include\i3Base\i3MetaTemplate.h
;	COMDAT ?BindInstance@?$i3MetaTemplate@Vi3Thread@@@@UAEPAVi3ElementBase@@PAXW4I3_CLASSMETA_TYPE@@@Z
_TEXT	SEGMENT
__$EHRec$ = -12						; size = 12
_pBuf$ = 8						; size = 4
_type$ = 12						; size = 4
$T2 = 12						; size = 4
?BindInstance@?$i3MetaTemplate@Vi3Thread@@@@UAEPAVi3ElementBase@@PAXW4I3_CLASSMETA_TYPE@@@Z PROC ; i3MetaTemplate<i3Thread>::BindInstance, COMDAT
; _this$ = ecx

; 129  : 	{

  00000	55		 push	 ebp
  00001	8b ec		 mov	 ebp, esp
  00003	6a ff		 push	 -1
  00005	68 00 00 00 00	 push	 __ehhandler$?BindInstance@?$i3MetaTemplate@Vi3Thread@@@@UAEPAVi3ElementBase@@PAXW4I3_CLASSMETA_TYPE@@@Z
  0000a	64 a1 00 00 00
	00		 mov	 eax, DWORD PTR fs:0
  00010	50		 push	 eax
  00011	a1 00 00 00 00	 mov	 eax, DWORD PTR ___security_cookie
  00016	33 c5		 xor	 eax, ebp
  00018	50		 push	 eax
  00019	8d 45 f4	 lea	 eax, DWORD PTR __$EHRec$[ebp]
  0001c	64 a3 00 00 00
	00		 mov	 DWORD PTR fs:0, eax

; 130  : 		if( m_ProxyCount > 0)

  00022	83 79 30 00	 cmp	 DWORD PTR [ecx+48], 0
  00026	7e 25		 jle	 SHORT $LN2@BindInstan

; 131  : 		{
; 132  : 			i3ClassMeta * pMeta = GetConcreteClass( type);

  00028	ff 75 0c	 push	 DWORD PTR _type$[ebp]
  0002b	e8 00 00 00 00	 call	 ?GetConcreteClass@i3ClassMeta@@QAEPAV1@W4I3_CLASSMETA_TYPE@@@Z ; i3ClassMeta::GetConcreteClass

; 133  : 
; 134  : 			return pMeta->BindInstance( pBuf, I3_CLASSMETA_TYPE_GENERAL);

  00030	6a 00		 push	 0
  00032	ff 75 08	 push	 DWORD PTR _pBuf$[ebp]
  00035	8b c8		 mov	 ecx, eax
  00037	8b 10		 mov	 edx, DWORD PTR [eax]
  00039	ff 52 08	 call	 DWORD PTR [edx+8]

; 142  : 			#endif
; 143  : 		}
; 144  : 	}

  0003c	8b 4d f4	 mov	 ecx, DWORD PTR __$EHRec$[ebp]
  0003f	64 89 0d 00 00
	00 00		 mov	 DWORD PTR fs:0, ecx
  00046	59		 pop	 ecx
  00047	8b e5		 mov	 esp, ebp
  00049	5d		 pop	 ebp
  0004a	c2 08 00	 ret	 8
$LN2@BindInstan:

; 135  : 		}
; 136  : 		else
; 137  : 		{
; 138  : 			#if defined( I3_DEBUG)
; 139  : 				return (i3ElementBase *) new( pBuf ) T;
; 140  : 			#else
; 141  : 				return (i3ElementBase *) new( pBuf ) T;

  0004d	ff 75 08	 push	 DWORD PTR _pBuf$[ebp]
  00050	6a 74		 push	 116			; 00000074H
  00052	e8 00 00 00 00	 call	 ??2i3ElementBase@@SAPAXIPAX@Z ; i3ElementBase::operator new
  00057	83 c4 08	 add	 esp, 8
  0005a	89 45 0c	 mov	 DWORD PTR $T2[ebp], eax
  0005d	c7 45 fc 00 00
	00 00		 mov	 DWORD PTR __$EHRec$[ebp+8], 0
  00064	85 c0		 test	 eax, eax
  00066	74 18		 je	 SHORT $LN5@BindInstan
  00068	8b c8		 mov	 ecx, eax
  0006a	e8 00 00 00 00	 call	 ??0i3Thread@@QAE@XZ	; i3Thread::i3Thread

; 142  : 			#endif
; 143  : 		}
; 144  : 	}

  0006f	8b 4d f4	 mov	 ecx, DWORD PTR __$EHRec$[ebp]
  00072	64 89 0d 00 00
	00 00		 mov	 DWORD PTR fs:0, ecx
  00079	59		 pop	 ecx
  0007a	8b e5		 mov	 esp, ebp
  0007c	5d		 pop	 ebp
  0007d	c2 08 00	 ret	 8
$LN5@BindInstan:

; 135  : 		}
; 136  : 		else
; 137  : 		{
; 138  : 			#if defined( I3_DEBUG)
; 139  : 				return (i3ElementBase *) new( pBuf ) T;
; 140  : 			#else
; 141  : 				return (i3ElementBase *) new( pBuf ) T;

  00080	33 c0		 xor	 eax, eax

; 142  : 			#endif
; 143  : 		}
; 144  : 	}

  00082	8b 4d f4	 mov	 ecx, DWORD PTR __$EHRec$[ebp]
  00085	64 89 0d 00 00
	00 00		 mov	 DWORD PTR fs:0, ecx
  0008c	59		 pop	 ecx
  0008d	8b e5		 mov	 esp, ebp
  0008f	5d		 pop	 ebp
  00090	c2 08 00	 ret	 8
_TEXT	ENDS
;	COMDAT text$x
text$x	SEGMENT
__unwindfunclet$?BindInstance@?$i3MetaTemplate@Vi3Thread@@@@UAEPAVi3ElementBase@@PAXW4I3_CLASSMETA_TYPE@@@Z$0:
  00000	8b 45 08	 mov	 eax, DWORD PTR _pBuf$[ebp]
  00003	50		 push	 eax
  00004	8b 45 0c	 mov	 eax, DWORD PTR $T2[ebp]
  00007	50		 push	 eax
  00008	e8 00 00 00 00	 call	 ??3i3ElementBase@@SAXPAX0@Z ; i3ElementBase::operator delete
  0000d	83 c4 08	 add	 esp, 8
  00010	c3		 ret	 0
  00011	cc		 int	 3
  00012	cc		 int	 3
  00013	cc		 int	 3
  00014	cc		 int	 3
  00015	cc		 int	 3
__ehhandler$?BindInstance@?$i3MetaTemplate@Vi3Thread@@@@UAEPAVi3ElementBase@@PAXW4I3_CLASSMETA_TYPE@@@Z:
  00016	90		 npad	 1
  00017	90		 npad	 1
  00018	8b 54 24 08	 mov	 edx, DWORD PTR [esp+8]
  0001c	8d 42 0c	 lea	 eax, DWORD PTR [edx+12]
  0001f	8b 4a fc	 mov	 ecx, DWORD PTR [edx-4]
  00022	33 c8		 xor	 ecx, eax
  00024	e8 00 00 00 00	 call	 @__security_check_cookie@4
  00029	b8 00 00 00 00	 mov	 eax, OFFSET __ehfuncinfo$?BindInstance@?$i3MetaTemplate@Vi3Thread@@@@UAEPAVi3ElementBase@@PAXW4I3_CLASSMETA_TYPE@@@Z
  0002e	e9 00 00 00 00	 jmp	 ___CxxFrameHandler3
text$x	ENDS
?BindInstance@?$i3MetaTemplate@Vi3Thread@@@@UAEPAVi3ElementBase@@PAXW4I3_CLASSMETA_TYPE@@@Z ENDP ; i3MetaTemplate<i3Thread>::BindInstance
; Function compile flags: /Ogtp
; File E:\Proyectos\JuegosOnlineproyectos\PB\pbblow\Piercing Blow Remake\i3Server\include\i3Base\i3MetaTemplate.h
; File E:\Proyectos\JuegosOnlineproyectos\PB\pbblow\Piercing Blow Remake\i3Server\include\i3Base\i3ElementBase.h
; File E:\Proyectos\JuegosOnlineproyectos\PB\pbblow\Piercing Blow Remake\i3Server\include\i3Base\i3MetaTemplate.h
; File E:\Proyectos\JuegosOnlineproyectos\PB\pbblow\Piercing Blow Remake\i3Server\include\i3Base\i3ElementBase.h
; File E:\Proyectos\JuegosOnlineproyectos\PB\pbblow\Piercing Blow Remake\i3Server\include\i3Base\i3MetaTemplate.h
;	COMDAT ?CreateInstance@?$i3MetaTemplate@Vi3Thread@@@@UAEPAVi3ElementBase@@W4I3_CLASSMETA_TYPE@@@Z
_TEXT	SEGMENT
__$EHRec$ = -12						; size = 12
_type$ = 8						; size = 4
$T2 = 8							; size = 4
?CreateInstance@?$i3MetaTemplate@Vi3Thread@@@@UAEPAVi3ElementBase@@W4I3_CLASSMETA_TYPE@@@Z PROC ; i3MetaTemplate<i3Thread>::CreateInstance, COMDAT
; _this$ = ecx

; 97   : 	{

  00000	55		 push	 ebp
  00001	8b ec		 mov	 ebp, esp
  00003	6a ff		 push	 -1
  00005	68 00 00 00 00	 push	 __ehhandler$?CreateInstance@?$i3MetaTemplate@Vi3Thread@@@@UAEPAVi3ElementBase@@W4I3_CLASSMETA_TYPE@@@Z
  0000a	64 a1 00 00 00
	00		 mov	 eax, DWORD PTR fs:0
  00010	50		 push	 eax
  00011	56		 push	 esi
  00012	57		 push	 edi
  00013	a1 00 00 00 00	 mov	 eax, DWORD PTR ___security_cookie
  00018	33 c5		 xor	 eax, ebp
  0001a	50		 push	 eax
  0001b	8d 45 f4	 lea	 eax, DWORD PTR __$EHRec$[ebp]
  0001e	64 a3 00 00 00
	00		 mov	 DWORD PTR fs:0, eax
  00024	8b f9		 mov	 edi, ecx

; 98   : 		if( m_ProxyCount > 0)

  00026	83 7f 30 00	 cmp	 DWORD PTR [edi+48], 0
  0002a	7e 28		 jle	 SHORT $LN3@CreateInst

; 99   : 		{
; 100  : 			i3ClassMeta * pMeta = GetConcreteClass( type);

  0002c	ff 75 08	 push	 DWORD PTR _type$[ebp]
  0002f	e8 00 00 00 00	 call	 ?GetConcreteClass@i3ClassMeta@@QAEPAV1@W4I3_CLASSMETA_TYPE@@@Z ; i3ClassMeta::GetConcreteClass

; 101  : 
; 102  : 			if( pMeta != NULL)

  00034	85 c0		 test	 eax, eax
  00036	74 1c		 je	 SHORT $LN3@CreateInst

; 103  : 				return pMeta->CreateInstance( I3_CLASSMETA_TYPE_GENERAL);

  00038	8b 10		 mov	 edx, DWORD PTR [eax]
  0003a	8b c8		 mov	 ecx, eax
  0003c	6a 00		 push	 0
  0003e	ff 52 04	 call	 DWORD PTR [edx+4]

; 125  : 	}

  00041	8b 4d f4	 mov	 ecx, DWORD PTR __$EHRec$[ebp]
  00044	64 89 0d 00 00
	00 00		 mov	 DWORD PTR fs:0, ecx
  0004b	59		 pop	 ecx
  0004c	5f		 pop	 edi
  0004d	5e		 pop	 esi
  0004e	8b e5		 mov	 esp, ebp
  00050	5d		 pop	 ebp
  00051	c2 04 00	 ret	 4
$LN3@CreateInst:

; 104  : 		}
; 105  : 
; 106  : 		{
; 107  : 			if( m_pPool == NULL)

  00054	8b 4f 34	 mov	 ecx, DWORD PTR [edi+52]
  00057	85 c9		 test	 ecx, ecx
  00059	75 47		 jne	 SHORT $LN4@CreateInst

; 108  : 			{
; 109  : 				#if defined( I3_DEBUG)
; 110  : 					return (i3ElementBase *) new T;
; 111  : 				#else
; 112  : 					return (i3ElementBase *) new T;

  0005b	6a 74		 push	 116			; 00000074H
  0005d	e8 00 00 00 00	 call	 ??2i3ElementBase@@SAPAXI@Z ; i3ElementBase::operator new
  00062	83 c4 04	 add	 esp, 4
  00065	89 45 08	 mov	 DWORD PTR $T2[ebp], eax
  00068	c7 45 fc 00 00
	00 00		 mov	 DWORD PTR __$EHRec$[ebp+8], 0
  0006f	85 c0		 test	 eax, eax
  00071	74 1a		 je	 SHORT $LN7@CreateInst
  00073	8b c8		 mov	 ecx, eax
  00075	e8 00 00 00 00	 call	 ??0i3Thread@@QAE@XZ	; i3Thread::i3Thread

; 125  : 	}

  0007a	8b 4d f4	 mov	 ecx, DWORD PTR __$EHRec$[ebp]
  0007d	64 89 0d 00 00
	00 00		 mov	 DWORD PTR fs:0, ecx
  00084	59		 pop	 ecx
  00085	5f		 pop	 edi
  00086	5e		 pop	 esi
  00087	8b e5		 mov	 esp, ebp
  00089	5d		 pop	 ebp
  0008a	c2 04 00	 ret	 4
$LN7@CreateInst:

; 108  : 			{
; 109  : 				#if defined( I3_DEBUG)
; 110  : 					return (i3ElementBase *) new T;
; 111  : 				#else
; 112  : 					return (i3ElementBase *) new T;

  0008d	33 c0		 xor	 eax, eax

; 125  : 	}

  0008f	8b 4d f4	 mov	 ecx, DWORD PTR __$EHRec$[ebp]
  00092	64 89 0d 00 00
	00 00		 mov	 DWORD PTR fs:0, ecx
  00099	59		 pop	 ecx
  0009a	5f		 pop	 edi
  0009b	5e		 pop	 esi
  0009c	8b e5		 mov	 esp, ebp
  0009e	5d		 pop	 ebp
  0009f	c2 04 00	 ret	 4
$LN4@CreateInst:

; 113  : 				#endif
; 114  : 			}
; 115  : 			else
; 116  : 			{
; 117  : 				i3ElementBase * p = (i3ElementBase *) m_pPool->Alloc( sizeof(T), NULL, 0);

  000a2	8b 01		 mov	 eax, DWORD PTR [ecx]
  000a4	6a 00		 push	 0
  000a6	6a 00		 push	 0
  000a8	6a 74		 push	 116			; 00000074H
  000aa	ff 50 04	 call	 DWORD PTR [eax+4]

; 118  : 	
; 119  : 				BindInstance( p, type);

  000ad	ff 75 08	 push	 DWORD PTR _type$[ebp]
  000b0	8b 17		 mov	 edx, DWORD PTR [edi]
  000b2	8b f0		 mov	 esi, eax
  000b4	56		 push	 esi
  000b5	8b cf		 mov	 ecx, edi
  000b7	ff 52 08	 call	 DWORD PTR [edx+8]
; File E:\Proyectos\JuegosOnlineproyectos\PB\pbblow\Piercing Blow Remake\i3Server\include\i3Base\i3ElementBase.h

; 347  : 	void			__SetMemoryPool( i3MemoryPool * pPool)			{ m_pPool = pPool; }

  000ba	8b 4f 34	 mov	 ecx, DWORD PTR [edi+52]
; File E:\Proyectos\JuegosOnlineproyectos\PB\pbblow\Piercing Blow Remake\i3Server\include\i3Base\i3MetaTemplate.h

; 122  : 				return p;

  000bd	8b c6		 mov	 eax, esi
; File E:\Proyectos\JuegosOnlineproyectos\PB\pbblow\Piercing Blow Remake\i3Server\include\i3Base\i3ElementBase.h

; 347  : 	void			__SetMemoryPool( i3MemoryPool * pPool)			{ m_pPool = pPool; }

  000bf	89 4e 0c	 mov	 DWORD PTR [esi+12], ecx
; File E:\Proyectos\JuegosOnlineproyectos\PB\pbblow\Piercing Blow Remake\i3Server\include\i3Base\i3MetaTemplate.h

; 125  : 	}

  000c2	8b 4d f4	 mov	 ecx, DWORD PTR __$EHRec$[ebp]
  000c5	64 89 0d 00 00
	00 00		 mov	 DWORD PTR fs:0, ecx
  000cc	59		 pop	 ecx
  000cd	5f		 pop	 edi
  000ce	5e		 pop	 esi
  000cf	8b e5		 mov	 esp, ebp
  000d1	5d		 pop	 ebp
  000d2	c2 04 00	 ret	 4
_TEXT	ENDS
;	COMDAT text$x
text$x	SEGMENT
__unwindfunclet$?CreateInstance@?$i3MetaTemplate@Vi3Thread@@@@UAEPAVi3ElementBase@@W4I3_CLASSMETA_TYPE@@@Z$0:
  00000	8b 45 08	 mov	 eax, DWORD PTR $T2[ebp]
  00003	50		 push	 eax
  00004	e8 00 00 00 00	 call	 ??3i3ElementBase@@SAXPAX@Z ; i3ElementBase::operator delete
  00009	59		 pop	 ecx
  0000a	c3		 ret	 0
  0000b	cc		 int	 3
  0000c	cc		 int	 3
  0000d	cc		 int	 3
  0000e	cc		 int	 3
  0000f	cc		 int	 3
__ehhandler$?CreateInstance@?$i3MetaTemplate@Vi3Thread@@@@UAEPAVi3ElementBase@@W4I3_CLASSMETA_TYPE@@@Z:
  00010	90		 npad	 1
  00011	90		 npad	 1
  00012	8b 54 24 08	 mov	 edx, DWORD PTR [esp+8]
  00016	8d 42 0c	 lea	 eax, DWORD PTR [edx+12]
  00019	8b 4a f4	 mov	 ecx, DWORD PTR [edx-12]
  0001c	33 c8		 xor	 ecx, eax
  0001e	e8 00 00 00 00	 call	 @__security_check_cookie@4
  00023	b8 00 00 00 00	 mov	 eax, OFFSET __ehfuncinfo$?CreateInstance@?$i3MetaTemplate@Vi3Thread@@@@UAEPAVi3ElementBase@@W4I3_CLASSMETA_TYPE@@@Z
  00028	e9 00 00 00 00	 jmp	 ___CxxFrameHandler3
text$x	ENDS
?CreateInstance@?$i3MetaTemplate@Vi3Thread@@@@UAEPAVi3ElementBase@@W4I3_CLASSMETA_TYPE@@@Z ENDP ; i3MetaTemplate<i3Thread>::CreateInstance
; Function compile flags: /Ogtp
; File E:\Proyectos\JuegosOnlineproyectos\PB\pbblow\Piercing Blow Remake\i3Server\include\i3Base\i3MetaTemplate.h
;	COMDAT ??0?$i3MetaTemplate@Vi3Thread@@@@QAE@IPAD0W4I3_CLASSMETA_TYPE@@@Z
_TEXT	SEGMENT
_this$ = -4						; size = 4
_classSz$ = 8						; size = 4
_pszClassName$ = 12					; size = 4
_pszBaseClassName$ = 16					; size = 4
_type$ = 20						; size = 4
??0?$i3MetaTemplate@Vi3Thread@@@@QAE@IPAD0W4I3_CLASSMETA_TYPE@@@Z PROC ; i3MetaTemplate<i3Thread>::i3MetaTemplate<i3Thread>, COMDAT
; _this$ = ecx

; 29   : {

  00000	55		 push	 ebp
  00001	8b ec		 mov	 ebp, esp
  00003	51		 push	 ecx
  00004	56		 push	 esi
  00005	ff 75 14	 push	 DWORD PTR _type$[ebp]
  00008	8b f1		 mov	 esi, ecx
  0000a	ff 75 10	 push	 DWORD PTR _pszBaseClassName$[ebp]
  0000d	89 75 fc	 mov	 DWORD PTR _this$[ebp], esi
  00010	ff 75 0c	 push	 DWORD PTR _pszClassName$[ebp]
  00013	ff 75 08	 push	 DWORD PTR _classSz$[ebp]
  00016	e8 00 00 00 00	 call	 ??0i3ClassMeta@@QAE@IPAD0W4I3_CLASSMETA_TYPE@@@Z ; i3ClassMeta::i3ClassMeta
  0001b	c7 06 00 00 00
	00		 mov	 DWORD PTR [esi], OFFSET ??_7?$i3MetaTemplate@Vi3Thread@@@@6B@

; 30   : }

  00021	8b c6		 mov	 eax, esi
  00023	5e		 pop	 esi
  00024	8b e5		 mov	 esp, ebp
  00026	5d		 pop	 ebp
  00027	c2 10 00	 ret	 16			; 00000010H
??0?$i3MetaTemplate@Vi3Thread@@@@QAE@IPAD0W4I3_CLASSMETA_TYPE@@@Z ENDP ; i3MetaTemplate<i3Thread>::i3MetaTemplate<i3Thread>
_TEXT	ENDS
; Function compile flags: /Ogtp
; File E:\Proyectos\JuegosOnlineproyectos\PB\pbblow\Piercing Blow Remake\i3Server\src\i3Base\i3Thread.cpp
;	COMDAT ??_Ei3Thread@@UAEPAXI@Z
_TEXT	SEGMENT
__$EHRec$ = -12						; size = 12
___flags$ = 8						; size = 4
??_Ei3Thread@@UAEPAXI@Z PROC				; i3Thread::`vector deleting destructor', COMDAT
; _this$ = ecx
  00000	55		 push	 ebp
  00001	8b ec		 mov	 ebp, esp
  00003	6a ff		 push	 -1
  00005	68 00 00 00 00	 push	 __ehhandler$??_Ei3Thread@@UAEPAXI@Z
  0000a	64 a1 00 00 00
	00		 mov	 eax, DWORD PTR fs:0
  00010	50		 push	 eax
  00011	53		 push	 ebx
  00012	56		 push	 esi
  00013	57		 push	 edi
  00014	a1 00 00 00 00	 mov	 eax, DWORD PTR ___security_cookie
  00019	33 c5		 xor	 eax, ebp
  0001b	50		 push	 eax
  0001c	8d 45 f4	 lea	 eax, DWORD PTR __$EHRec$[ebp]
  0001f	64 a3 00 00 00
	00		 mov	 DWORD PTR fs:0, eax
  00025	8b f1		 mov	 esi, ecx
  00027	8b 5d 08	 mov	 ebx, DWORD PTR ___flags$[ebp]
  0002a	8b fb		 mov	 edi, ebx
  0002c	83 e7 01	 and	 edi, 1
  0002f	f6 c3 02	 test	 bl, 2
  00032	74 3d		 je	 SHORT $LN2@vector
  00034	68 00 00 00 00	 push	 OFFSET ??1i3Thread@@UAE@XZ ; i3Thread::~i3Thread
  00039	ff 76 fc	 push	 DWORD PTR [esi-4]
  0003c	8d 5e fc	 lea	 ebx, DWORD PTR [esi-4]
  0003f	6a 74		 push	 116			; 00000074H
  00041	56		 push	 esi
  00042	e8 00 00 00 00	 call	 ??_M@YGXPAXIIP6EX0@Z@Z
  00047	85 ff		 test	 edi, edi
  00049	74 10		 je	 SHORT $LN3@vector
  0004b	6b 0b 74	 imul	 ecx, DWORD PTR [ebx], 116
  0004e	83 c1 04	 add	 ecx, 4
  00051	51		 push	 ecx
  00052	53		 push	 ebx
  00053	e8 00 00 00 00	 call	 ??_V@YAXPAXI@Z		; operator delete[]
  00058	83 c4 08	 add	 esp, 8
$LN3@vector:
  0005b	8b c3		 mov	 eax, ebx
  0005d	8b 4d f4	 mov	 ecx, DWORD PTR __$EHRec$[ebp]
  00060	64 89 0d 00 00
	00 00		 mov	 DWORD PTR fs:0, ecx
  00067	59		 pop	 ecx
  00068	5f		 pop	 edi
  00069	5e		 pop	 esi
  0006a	5b		 pop	 ebx
  0006b	8b e5		 mov	 esp, ebp
  0006d	5d		 pop	 ebp
  0006e	c2 04 00	 ret	 4
$LN2@vector:
  00071	e8 00 00 00 00	 call	 ??1i3Thread@@UAE@XZ	; i3Thread::~i3Thread
  00076	85 ff		 test	 edi, edi
  00078	74 1b		 je	 SHORT $LN6@vector
  0007a	f6 c3 04	 test	 bl, 4
  0007d	75 0b		 jne	 SHORT $LN5@vector
  0007f	56		 push	 esi
  00080	e8 00 00 00 00	 call	 ??3i3ElementBase@@SAXPAX@Z ; i3ElementBase::operator delete
  00085	83 c4 04	 add	 esp, 4
  00088	eb 0b		 jmp	 SHORT $LN6@vector
$LN5@vector:

  0008a	6a 74		 push	 116			; 00000074H
  0008c	56		 push	 esi
  0008d	e8 00 00 00 00	 call	 ??3@YAXPAXI@Z		; operator delete
  00092	83 c4 08	 add	 esp, 8
$LN6@vector:
  00095	8b c6		 mov	 eax, esi
  00097	8b 4d f4	 mov	 ecx, DWORD PTR __$EHRec$[ebp]
  0009a	64 89 0d 00 00
	00 00		 mov	 DWORD PTR fs:0, ecx
  000a1	59		 pop	 ecx
  000a2	5f		 pop	 edi
  000a3	5e		 pop	 esi
  000a4	5b		 pop	 ebx
  000a5	8b e5		 mov	 esp, ebp
  000a7	5d		 pop	 ebp
  000a8	c2 04 00	 ret	 4
  000ab	cc		 int	 3
  000ac	cc		 int	 3
  000ad	cc		 int	 3
  000ae	cc		 int	 3
  000af	cc		 int	 3
_TEXT	ENDS
;	COMDAT text$x
text$x	SEGMENT
__ehhandler$??_Ei3Thread@@UAEPAXI@Z:
  00000	90		 npad	 1
  00001	90		 npad	 1
  00002	8b 54 24 08	 mov	 edx, DWORD PTR [esp+8]
  00006	8d 42 0c	 lea	 eax, DWORD PTR [edx+12]
  00009	8b 4a f0	 mov	 ecx, DWORD PTR [edx-16]
  0000c	33 c8		 xor	 ecx, eax
  0000e	e8 00 00 00 00	 call	 @__security_check_cookie@4
  00013	b8 00 00 00 00	 mov	 eax, OFFSET __ehfuncinfo$??_Ei3Thread@@UAEPAXI@Z
  00018	e9 00 00 00 00	 jmp	 ___CxxFrameHandler3
text$x	ENDS
??_Ei3Thread@@UAEPAXI@Z ENDP				; i3Thread::`vector deleting destructor'
; Function compile flags: /Ogtp
; File E:\Proyectos\JuegosOnlineproyectos\PB\pbblow\Piercing Blow Remake\i3Server\src\i3Base\i3Thread.cpp
;	COMDAT ??_Gi3Thread@@UAEPAXI@Z
_TEXT	SEGMENT
___flags$ = 8						; size = 4
??_Gi3Thread@@UAEPAXI@Z PROC				; i3Thread::`scalar deleting destructor', COMDAT
; _this$ = ecx
  00000	55		 push	 ebp
  00001	8b ec		 mov	 ebp, esp
  00003	56		 push	 esi
  00004	8b f1		 mov	 esi, ecx
  00006	e8 00 00 00 00	 call	 ??1i3Thread@@UAE@XZ	; i3Thread::~i3Thread
  0000b	8b 45 08	 mov	 eax, DWORD PTR ___flags$[ebp]
  0000e	a8 01		 test	 al, 1
  00010	74 1f		 je	 SHORT $LN10@scalar
  00012	a8 04		 test	 al, 4
  00014	75 10		 jne	 SHORT $LN3@scalar
  00016	56		 push	 esi
  00017	e8 00 00 00 00	 call	 ??3i3ElementBase@@SAXPAX@Z ; i3ElementBase::operator delete
  0001c	83 c4 04	 add	 esp, 4
  0001f	8b c6		 mov	 eax, esi
  00021	5e		 pop	 esi
  00022	5d		 pop	 ebp
  00023	c2 04 00	 ret	 4
$LN3@scalar:

  00026	6a 74		 push	 116			; 00000074H
  00028	56		 push	 esi
  00029	e8 00 00 00 00	 call	 ??3@YAXPAXI@Z		; operator delete
  0002e	83 c4 08	 add	 esp, 8
$LN10@scalar:
  00031	8b c6		 mov	 eax, esi
  00033	5e		 pop	 esi
  00034	5d		 pop	 ebp
  00035	c2 04 00	 ret	 4
??_Gi3Thread@@UAEPAXI@Z ENDP				; i3Thread::`scalar deleting destructor'
_TEXT	ENDS
; Function compile flags: /Ogtp
;	COMDAT ??4i3Thread@@QAEAAV0@ABV0@@Z
_TEXT	SEGMENT
___that$ = 8						; size = 4
??4i3Thread@@QAEAAV0@ABV0@@Z PROC			; i3Thread::operator=, COMDAT
; _this$ = ecx
  00000	55		 push	 ebp
  00001	8b ec		 mov	 ebp, esp
  00003	8b d1		 mov	 edx, ecx
  00005	56		 push	 esi
  00006	8b 75 08	 mov	 esi, DWORD PTR ___that$[ebp]
  00009	8b 46 04	 mov	 eax, DWORD PTR [esi+4]
  0000c	89 42 04	 mov	 DWORD PTR [edx+4], eax
  0000f	8b 46 08	 mov	 eax, DWORD PTR [esi+8]
  00012	89 42 08	 mov	 DWORD PTR [edx+8], eax
  00015	8b 46 0c	 mov	 eax, DWORD PTR [esi+12]
  00018	89 42 0c	 mov	 DWORD PTR [edx+12], eax
  0001b	8b 46 10	 mov	 eax, DWORD PTR [esi+16]
  0001e	89 42 10	 mov	 DWORD PTR [edx+16], eax
  00021	8b 46 14	 mov	 eax, DWORD PTR [esi+20]
  00024	89 42 14	 mov	 DWORD PTR [edx+20], eax
  00027	8b 46 18	 mov	 eax, DWORD PTR [esi+24]
  0002a	89 42 18	 mov	 DWORD PTR [edx+24], eax
  0002d	33 c0		 xor	 eax, eax
  0002f	90		 npad	 1
$LL4@operator:
  00030	8a 4c 06 1c	 mov	 cl, BYTE PTR [esi+eax+28]
  00034	88 4c 02 1c	 mov	 BYTE PTR [edx+eax+28], cl
  00038	40		 inc	 eax
  00039	83 f8 40	 cmp	 eax, 64			; 00000040H
  0003c	72 f2		 jb	 SHORT $LL4@operator
  0003e	8b 46 5c	 mov	 eax, DWORD PTR [esi+92]
  00041	89 42 5c	 mov	 DWORD PTR [edx+92], eax
  00044	8b 46 60	 mov	 eax, DWORD PTR [esi+96]
  00047	89 42 60	 mov	 DWORD PTR [edx+96], eax
  0004a	8b 46 64	 mov	 eax, DWORD PTR [esi+100]
  0004d	89 42 64	 mov	 DWORD PTR [edx+100], eax
  00050	8b 46 68	 mov	 eax, DWORD PTR [esi+104]
  00053	89 42 68	 mov	 DWORD PTR [edx+104], eax
  00056	8b 46 6c	 mov	 eax, DWORD PTR [esi+108]
  00059	89 42 6c	 mov	 DWORD PTR [edx+108], eax
  0005c	8b 46 70	 mov	 eax, DWORD PTR [esi+112]
  0005f	89 42 70	 mov	 DWORD PTR [edx+112], eax
  00062	8b c2		 mov	 eax, edx
  00064	5e		 pop	 esi
  00065	5d		 pop	 ebp
  00066	c2 04 00	 ret	 4
??4i3Thread@@QAEAAV0@ABV0@@Z ENDP			; i3Thread::operator=
_TEXT	ENDS
; Function compile flags: /Ogtp
;	COMDAT ??0i3Thread@@QAE@ABV0@@Z
_TEXT	SEGMENT
___that$ = 8						; size = 4
??0i3Thread@@QAE@ABV0@@Z PROC				; i3Thread::i3Thread, COMDAT
; _this$ = ecx
  00000	55		 push	 ebp
  00001	8b ec		 mov	 ebp, esp
  00003	8b 55 08	 mov	 edx, DWORD PTR ___that$[ebp]
  00006	53		 push	 ebx
  00007	8b d9		 mov	 ebx, ecx
  00009	b9 10 00 00 00	 mov	 ecx, 16			; 00000010H
  0000e	56		 push	 esi
  0000f	57		 push	 edi
  00010	8d 72 1c	 lea	 esi, DWORD PTR [edx+28]
  00013	c7 03 00 00 00
	00		 mov	 DWORD PTR [ebx], OFFSET ??_7i3ElementBase@@6B@
  00019	8d 7b 1c	 lea	 edi, DWORD PTR [ebx+28]
  0001c	8b 42 04	 mov	 eax, DWORD PTR [edx+4]
  0001f	89 43 04	 mov	 DWORD PTR [ebx+4], eax
  00022	8b 42 08	 mov	 eax, DWORD PTR [edx+8]
  00025	89 43 08	 mov	 DWORD PTR [ebx+8], eax
  00028	8b 42 0c	 mov	 eax, DWORD PTR [edx+12]
  0002b	89 43 0c	 mov	 DWORD PTR [ebx+12], eax
  0002e	c7 03 00 00 00
	00		 mov	 DWORD PTR [ebx], OFFSET ??_7i3Thread@@6B@
  00034	8b 42 10	 mov	 eax, DWORD PTR [edx+16]
  00037	89 43 10	 mov	 DWORD PTR [ebx+16], eax
  0003a	8b 42 14	 mov	 eax, DWORD PTR [edx+20]
  0003d	89 43 14	 mov	 DWORD PTR [ebx+20], eax
  00040	8b 42 18	 mov	 eax, DWORD PTR [edx+24]
  00043	89 43 18	 mov	 DWORD PTR [ebx+24], eax
  00046	f3 a5		 rep movsd
  00048	8b 42 5c	 mov	 eax, DWORD PTR [edx+92]
  0004b	89 43 5c	 mov	 DWORD PTR [ebx+92], eax
  0004e	8b 42 60	 mov	 eax, DWORD PTR [edx+96]
  00051	89 43 60	 mov	 DWORD PTR [ebx+96], eax
  00054	8b 42 64	 mov	 eax, DWORD PTR [edx+100]
  00057	89 43 64	 mov	 DWORD PTR [ebx+100], eax
  0005a	8b 42 68	 mov	 eax, DWORD PTR [edx+104]
  0005d	89 43 68	 mov	 DWORD PTR [ebx+104], eax
  00060	8b 42 6c	 mov	 eax, DWORD PTR [edx+108]
  00063	89 43 6c	 mov	 DWORD PTR [ebx+108], eax
  00066	8b 42 70	 mov	 eax, DWORD PTR [edx+112]
  00069	5f		 pop	 edi
  0006a	89 43 70	 mov	 DWORD PTR [ebx+112], eax
  0006d	8b c3		 mov	 eax, ebx
  0006f	5e		 pop	 esi
  00070	5b		 pop	 ebx
  00071	5d		 pop	 ebp
  00072	c2 04 00	 ret	 4
??0i3Thread@@QAE@ABV0@@Z ENDP				; i3Thread::i3Thread
_TEXT	ENDS
; Function compile flags: /Ogtp
; File E:\Proyectos\JuegosOnlineproyectos\PB\pbblow\Piercing Blow Remake\i3Server\include\i3Base\i3Thread.h
;	COMDAT ?GetThreadID@i3Thread@@QAEIXZ
_TEXT	SEGMENT
?GetThreadID@i3Thread@@QAEIXZ PROC			; i3Thread::GetThreadID, COMDAT
; _this$ = ecx

; 88   : 	inline UINT32		GetThreadID()						{ return m_ThreadID;	}

  00000	8b 41 14	 mov	 eax, DWORD PTR [ecx+20]
  00003	c3		 ret	 0
?GetThreadID@i3Thread@@QAEIXZ ENDP			; i3Thread::GetThreadID
_TEXT	ENDS
; Function compile flags: /Ogtp
; File E:\Proyectos\JuegosOnlineproyectos\PB\pbblow\Piercing Blow Remake\i3Server\include\i3Base\i3Thread.h
;	COMDAT ?GetFirstThread@i3Thread@@SAPAV1@XZ
_TEXT	SEGMENT
?GetFirstThread@i3Thread@@SAPAV1@XZ PROC		; i3Thread::GetFirstThread, COMDAT

; 86   : 	static i3Thread *	GetFirstThread(void)				{ return s_pThreadHead; }

  00000	a1 00 00 00 00	 mov	 eax, DWORD PTR ?s_pThreadHead@i3Thread@@1PAV1@A ; i3Thread::s_pThreadHead
  00005	c3		 ret	 0
?GetFirstThread@i3Thread@@SAPAV1@XZ ENDP		; i3Thread::GetFirstThread
_TEXT	ENDS
; Function compile flags: /Ogtp
; File E:\Proyectos\JuegosOnlineproyectos\PB\pbblow\Piercing Blow Remake\i3Server\src\i3Base\i3Thread.cpp
;	COMDAT ?AfterRunning@i3Thread@@UAEXPAX@Z
_TEXT	SEGMENT
___formal$ = 8						; size = 4
?AfterRunning@i3Thread@@UAEXPAX@Z PROC			; i3Thread::AfterRunning, COMDAT
; _this$ = ecx

; 293  : 	m_State = THREAD_STOPPED;

  00000	c7 41 5c 03 00
	00 00		 mov	 DWORD PTR [ecx+92], 3

; 294  : }

  00007	c2 04 00	 ret	 4
?AfterRunning@i3Thread@@UAEXPAX@Z ENDP			; i3Thread::AfterRunning
_TEXT	ENDS
; Function compile flags: /Ogtp
; File E:\Proyectos\JuegosOnlineproyectos\PB\pbblow\Piercing Blow Remake\i3Server\include\i3Base\i3Thread.h
;	COMDAT ?OnRunning@i3Thread@@UAEIPAX@Z
_TEXT	SEGMENT
___formal$ = 8						; size = 4
?OnRunning@i3Thread@@UAEIPAX@Z PROC			; i3Thread::OnRunning, COMDAT
; _this$ = ecx

; 83   : 	virtual UINT32 OnRunning( void * /*pUserData*/)			{ return 0; }

  00000	33 c0		 xor	 eax, eax
  00002	c2 04 00	 ret	 4
?OnRunning@i3Thread@@UAEIPAX@Z ENDP			; i3Thread::OnRunning
_TEXT	ENDS
; Function compile flags: /Ogtp
; File E:\Proyectos\JuegosOnlineproyectos\PB\pbblow\Piercing Blow Remake\i3Server\src\i3Base\i3Thread.cpp
;	COMDAT ?BeforeRunning@i3Thread@@UAEXPAX@Z
_TEXT	SEGMENT
___formal$ = 8						; size = 4
?BeforeRunning@i3Thread@@UAEXPAX@Z PROC			; i3Thread::BeforeRunning, COMDAT
; _this$ = ecx

; 288  : 	m_State = THREAD_RUNNING;

  00000	c7 41 5c 01 00
	00 00		 mov	 DWORD PTR [ecx+92], 1

; 289  : }

  00007	c2 04 00	 ret	 4
?BeforeRunning@i3Thread@@UAEXPAX@Z ENDP			; i3Thread::BeforeRunning
_TEXT	ENDS
; Function compile flags: /Ogtp
; File E:\Proyectos\JuegosOnlineproyectos\PB\pbblow\Piercing Blow Remake\i3Server\include\i3Base\i3Thread.h
;	COMDAT ?GetPriority@i3Thread@@QAEHXZ
_TEXT	SEGMENT
?GetPriority@i3Thread@@QAEHXZ PROC			; i3Thread::GetPriority, COMDAT
; _this$ = ecx

; 80   : 	INT32	GetPriority(void)		{	return m_Priority; }

  00000	8b 41 68	 mov	 eax, DWORD PTR [ecx+104]
  00003	c3		 ret	 0
?GetPriority@i3Thread@@QAEHXZ ENDP			; i3Thread::GetPriority
_TEXT	ENDS
; Function compile flags: /Ogtp
; File E:\Proyectos\JuegosOnlineproyectos\PB\pbblow\Piercing Blow Remake\i3Server\include\i3Base\i3Thread.h
;	COMDAT ?GetReturnCode@i3Thread@@QAEIXZ
_TEXT	SEGMENT
?GetReturnCode@i3Thread@@QAEIXZ PROC			; i3Thread::GetReturnCode, COMDAT
; _this$ = ecx

; 79   : 	UINT32	GetReturnCode(void)		{	return m_ReturnCode; }

  00000	8b 41 70	 mov	 eax, DWORD PTR [ecx+112]
  00003	c3		 ret	 0
?GetReturnCode@i3Thread@@QAEIXZ ENDP			; i3Thread::GetReturnCode
_TEXT	ENDS
; Function compile flags: /Ogtp
; File E:\Proyectos\JuegosOnlineproyectos\PB\pbblow\Piercing Blow Remake\i3Server\include\i3Base\i3Thread.h
;	COMDAT ?GetState@i3Thread@@QAEIXZ
_TEXT	SEGMENT
?GetState@i3Thread@@QAEIXZ PROC				; i3Thread::GetState, COMDAT
; _this$ = ecx

; 78   : 	UINT32	GetState(void)			{	return m_State; }

  00000	8b 41 5c	 mov	 eax, DWORD PTR [ecx+92]
  00003	c3		 ret	 0
?GetState@i3Thread@@QAEIXZ ENDP				; i3Thread::GetState
_TEXT	ENDS
; Function compile flags: /Ogtp
; File E:\Proyectos\JuegosOnlineproyectos\PB\pbblow\Piercing Blow Remake\i3Server\include\i3Base\i3Thread.h
;	COMDAT ?GetParam@i3Thread@@QAEPAXXZ
_TEXT	SEGMENT
?GetParam@i3Thread@@QAEPAXXZ PROC			; i3Thread::GetParam, COMDAT
; _this$ = ecx

; 76   : 	void *	GetParam(void)			{	return m_Parameter; }

  00000	8b 41 6c	 mov	 eax, DWORD PTR [ecx+108]
  00003	c3		 ret	 0
?GetParam@i3Thread@@QAEPAXXZ ENDP			; i3Thread::GetParam
_TEXT	ENDS
; Function compile flags: /Ogtp
; File E:\Proyectos\JuegosOnlineproyectos\PB\pbblow\Piercing Blow Remake\i3Server\src\i3Base\i3Thread.cpp
;	COMDAT ?SetPriority@i3Thread@@UAEHH@Z
_TEXT	SEGMENT
_priority$ = 8						; size = 4
?SetPriority@i3Thread@@UAEHH@Z PROC			; i3Thread::SetPriority, COMDAT
; _this$ = ecx

; 240  : {

  00000	55		 push	 ebp
  00001	8b ec		 mov	 ebp, esp

; 241  : 	m_Priority = priority;

  00003	8b 45 08	 mov	 eax, DWORD PTR _priority$[ebp]
  00006	89 41 68	 mov	 DWORD PTR [ecx+104], eax

; 242  : 
; 243  : #if defined( WIN32)
; 244  : 	switch( priority)

  00009	8d 50 fe	 lea	 edx, DWORD PTR [eax-2]
  0000c	83 fa 04	 cmp	 edx, 4
  0000f	77 40		 ja	 SHORT $LN2@SetPriorit
  00011	ff 24 95 00 00
	00 00		 jmp	 DWORD PTR $LN9@SetPriorit[edx*4]
$LN4@SetPriorit:

; 245  : 	{
; 246  : 		case PRIORITY_HIGH :
; 247  : 			priority = THREAD_PRIORITY_ABOVE_NORMAL;

  00018	b8 01 00 00 00	 mov	 eax, 1

; 260  : 			break;
; 261  : 	}
; 262  : 
; 263  : 	return SetThreadPriority( m_Handle, priority);

  0001d	50		 push	 eax
  0001e	ff 71 10	 push	 DWORD PTR [ecx+16]
  00021	ff 15 00 00 00
	00		 call	 DWORD PTR __imp__SetThreadPriority@8

; 264  : #elif defined( I3_PSP)
; 265  : 	switch( priority)
; 266  : 	{
; 267  : 		case PRIORITY_HIGHEST :	priority = SCE_KERNEL_USER_HIGHEST_PRIORITY;	break;	// 16
; 268  : 		case PRIORITY_HIGH :	priority = 24;									break;
; 269  : 		case PRIORITY_NORMAL :	priority = SCE_KERNEL_MODULE_INIT_PRIORITY;		break;	// 32
; 270  : 		case PRIORITY_LOW :		priority = 62;									break;
; 271  : 		case PRIORITY_LOWEST :	priority = SCE_KERNEL_USER_LOWEST_PRIORITY;		break;	// 111
; 272  : 	}
; 273  : 
; 274  : 	if( sceKernelChangeThreadPriority( m_Handle, priority) != SCE_KERNEL_ERROR_OK)
; 275  : 	{
; 276  : 		i3Log( "i3Thread::SetPriority()", "sceKernelChangeThreadPriority() failed.");
; 277  : 		return FALSE;
; 278  : 	}
; 279  : 
; 280  : 	return TRUE;
; 281  : #elif defined( I3_WIPI)
; 282  : 	return FALSE;
; 283  : #endif
; 284  : }

  00027	5d		 pop	 ebp
  00028	c2 04 00	 ret	 4
$LN5@SetPriorit:

; 248  : 			break;
; 249  : 
; 250  : 		case PRIORITY_NORMAL :
; 251  : 			priority = THREAD_PRIORITY_NORMAL;

  0002b	33 c0		 xor	 eax, eax

; 260  : 			break;
; 261  : 	}
; 262  : 
; 263  : 	return SetThreadPriority( m_Handle, priority);

  0002d	50		 push	 eax
  0002e	ff 71 10	 push	 DWORD PTR [ecx+16]
  00031	ff 15 00 00 00
	00		 call	 DWORD PTR __imp__SetThreadPriority@8

; 264  : #elif defined( I3_PSP)
; 265  : 	switch( priority)
; 266  : 	{
; 267  : 		case PRIORITY_HIGHEST :	priority = SCE_KERNEL_USER_HIGHEST_PRIORITY;	break;	// 16
; 268  : 		case PRIORITY_HIGH :	priority = 24;									break;
; 269  : 		case PRIORITY_NORMAL :	priority = SCE_KERNEL_MODULE_INIT_PRIORITY;		break;	// 32
; 270  : 		case PRIORITY_LOW :		priority = 62;									break;
; 271  : 		case PRIORITY_LOWEST :	priority = SCE_KERNEL_USER_LOWEST_PRIORITY;		break;	// 111
; 272  : 	}
; 273  : 
; 274  : 	if( sceKernelChangeThreadPriority( m_Handle, priority) != SCE_KERNEL_ERROR_OK)
; 275  : 	{
; 276  : 		i3Log( "i3Thread::SetPriority()", "sceKernelChangeThreadPriority() failed.");
; 277  : 		return FALSE;
; 278  : 	}
; 279  : 
; 280  : 	return TRUE;
; 281  : #elif defined( I3_WIPI)
; 282  : 	return FALSE;
; 283  : #endif
; 284  : }

  00037	5d		 pop	 ebp
  00038	c2 04 00	 ret	 4
$LN6@SetPriorit:

; 252  : 			break;
; 253  : 
; 254  : 		case PRIORITY_LOW :
; 255  : 			priority = THREAD_PRIORITY_BELOW_NORMAL;

  0003b	83 c8 ff	 or	 eax, -1

; 260  : 			break;
; 261  : 	}
; 262  : 
; 263  : 	return SetThreadPriority( m_Handle, priority);

  0003e	50		 push	 eax
  0003f	ff 71 10	 push	 DWORD PTR [ecx+16]
  00042	ff 15 00 00 00
	00		 call	 DWORD PTR __imp__SetThreadPriority@8

; 264  : #elif defined( I3_PSP)
; 265  : 	switch( priority)
; 266  : 	{
; 267  : 		case PRIORITY_HIGHEST :	priority = SCE_KERNEL_USER_HIGHEST_PRIORITY;	break;	// 16
; 268  : 		case PRIORITY_HIGH :	priority = 24;									break;
; 269  : 		case PRIORITY_NORMAL :	priority = SCE_KERNEL_MODULE_INIT_PRIORITY;		break;	// 32
; 270  : 		case PRIORITY_LOW :		priority = 62;									break;
; 271  : 		case PRIORITY_LOWEST :	priority = SCE_KERNEL_USER_LOWEST_PRIORITY;		break;	// 111
; 272  : 	}
; 273  : 
; 274  : 	if( sceKernelChangeThreadPriority( m_Handle, priority) != SCE_KERNEL_ERROR_OK)
; 275  : 	{
; 276  : 		i3Log( "i3Thread::SetPriority()", "sceKernelChangeThreadPriority() failed.");
; 277  : 		return FALSE;
; 278  : 	}
; 279  : 
; 280  : 	return TRUE;
; 281  : #elif defined( I3_WIPI)
; 282  : 	return FALSE;
; 283  : #endif
; 284  : }

  00048	5d		 pop	 ebp
  00049	c2 04 00	 ret	 4
$LN7@SetPriorit:

; 256  : 			break;
; 257  : 
; 258  : 		case PRIORITY_TIME_CRITICAL:
; 259  : 			priority = THREAD_PRIORITY_TIME_CRITICAL;

  0004c	b8 0f 00 00 00	 mov	 eax, 15			; 0000000fH
$LN2@SetPriorit:

; 260  : 			break;
; 261  : 	}
; 262  : 
; 263  : 	return SetThreadPriority( m_Handle, priority);

  00051	50		 push	 eax
  00052	ff 71 10	 push	 DWORD PTR [ecx+16]
  00055	ff 15 00 00 00
	00		 call	 DWORD PTR __imp__SetThreadPriority@8

; 264  : #elif defined( I3_PSP)
; 265  : 	switch( priority)
; 266  : 	{
; 267  : 		case PRIORITY_HIGHEST :	priority = SCE_KERNEL_USER_HIGHEST_PRIORITY;	break;	// 16
; 268  : 		case PRIORITY_HIGH :	priority = 24;									break;
; 269  : 		case PRIORITY_NORMAL :	priority = SCE_KERNEL_MODULE_INIT_PRIORITY;		break;	// 32
; 270  : 		case PRIORITY_LOW :		priority = 62;									break;
; 271  : 		case PRIORITY_LOWEST :	priority = SCE_KERNEL_USER_LOWEST_PRIORITY;		break;	// 111
; 272  : 	}
; 273  : 
; 274  : 	if( sceKernelChangeThreadPriority( m_Handle, priority) != SCE_KERNEL_ERROR_OK)
; 275  : 	{
; 276  : 		i3Log( "i3Thread::SetPriority()", "sceKernelChangeThreadPriority() failed.");
; 277  : 		return FALSE;
; 278  : 	}
; 279  : 
; 280  : 	return TRUE;
; 281  : #elif defined( I3_WIPI)
; 282  : 	return FALSE;
; 283  : #endif
; 284  : }

  0005b	5d		 pop	 ebp
  0005c	c2 04 00	 ret	 4
  0005f	90		 npad	 1
$LN9@SetPriorit:
  00060	00 00 00 00	 DD	 $LN4@SetPriorit
  00064	00 00 00 00	 DD	 $LN5@SetPriorit
  00068	00 00 00 00	 DD	 $LN6@SetPriorit
  0006c	00 00 00 00	 DD	 $LN2@SetPriorit
  00070	00 00 00 00	 DD	 $LN7@SetPriorit
?SetPriority@i3Thread@@UAEHH@Z ENDP			; i3Thread::SetPriority
_TEXT	ENDS
; Function compile flags: /Ogtp
; File E:\Proyectos\JuegosOnlineproyectos\PB\pbblow\Piercing Blow Remake\i3Server\src\i3Base\i3Thread.cpp
;	COMDAT ?WaitForFinish@i3Thread@@UAEIXZ
_TEXT	SEGMENT
?WaitForFinish@i3Thread@@UAEIXZ PROC			; i3Thread::WaitForFinish, COMDAT
; _this$ = ecx

; 232  : #ifdef WIN32
; 233  : 	return ::WaitForSingleObject( m_Handle, INFINITE );

  00000	6a ff		 push	 -1
  00002	ff 71 10	 push	 DWORD PTR [ecx+16]
  00005	ff 15 00 00 00
	00		 call	 DWORD PTR __imp__WaitForSingleObject@8

; 234  : #else
; 235  : 	return 0;
; 236  : #endif
; 237  : }

  0000b	c3		 ret	 0
?WaitForFinish@i3Thread@@UAEIXZ ENDP			; i3Thread::WaitForFinish
_TEXT	ENDS
; Function compile flags: /Ogtp
; File E:\Proyectos\JuegosOnlineproyectos\PB\pbblow\Piercing Blow Remake\i3Server\src\i3Base\i3Thread.cpp
;	COMDAT ?Terminate@i3Thread@@UAEH_N@Z
_TEXT	SEGMENT
_bWait$ = 8						; size = 1
?Terminate@i3Thread@@UAEH_N@Z PROC			; i3Thread::Terminate, COMDAT
; _this$ = ecx

; 163  : {

  00000	55		 push	 ebp
  00001	8b ec		 mov	 ebp, esp
  00003	56		 push	 esi
  00004	8b f1		 mov	 esi, ecx

; 164  : #if defined( I3_WINDOWS)
; 165  : 	if( TerminateThread( m_Handle, m_ReturnCode) == FALSE) {

  00006	ff 76 70	 push	 DWORD PTR [esi+112]
  00009	ff 76 10	 push	 DWORD PTR [esi+16]
  0000c	ff 15 00 00 00
	00		 call	 DWORD PTR __imp__TerminateThread@8
  00012	85 c0		 test	 eax, eax
  00014	75 05		 jne	 SHORT $LN2@Terminate
  00016	5e		 pop	 esi

; 181  : }

  00017	5d		 pop	 ebp
  00018	c2 04 00	 ret	 4
$LN2@Terminate:

; 166  : 		return FALSE;
; 167  : 	}
; 168  : 
; 169  : 	if( bWait)

  0001b	80 7d 08 00	 cmp	 BYTE PTR _bWait$[ebp], 0
  0001f	74 0b		 je	 SHORT $LN3@Terminate

; 170  : 	{
; 171  : 		WaitForSingleObject( m_Handle, INFINITE);

  00021	6a ff		 push	 -1
  00023	ff 76 10	 push	 DWORD PTR [esi+16]
  00026	ff 15 00 00 00
	00		 call	 DWORD PTR __imp__WaitForSingleObject@8
$LN3@Terminate:

; 172  : 	}
; 173  : #elif defined( I3_PSP)
; 174  : 	if( sceKernelTerminateDeleteThread( m_Handle) != SCE_KERNEL_ERROR_OK)
; 175  : 	{
; 176  : 		return FALSE;
; 177  : 	}
; 178  : #endif
; 179  : 
; 180  : 	return TRUE;

  0002c	b8 01 00 00 00	 mov	 eax, 1
  00031	5e		 pop	 esi

; 181  : }

  00032	5d		 pop	 ebp
  00033	c2 04 00	 ret	 4
?Terminate@i3Thread@@UAEH_N@Z ENDP			; i3Thread::Terminate
_TEXT	ENDS
; Function compile flags: /Ogtp
; File E:\Proyectos\JuegosOnlineproyectos\PB\pbblow\Piercing Blow Remake\i3Server\src\i3Base\i3Thread.cpp
;	COMDAT ?Resume@i3Thread@@UAEHXZ
_TEXT	SEGMENT
?Resume@i3Thread@@UAEHXZ PROC				; i3Thread::Resume, COMDAT
; _this$ = ecx

; 208  : #ifdef WIN32
; 209  : 	UINT32 Rv;
; 210  : 
; 211  : 	Rv = ResumeThread( m_Handle);

  00000	ff 71 10	 push	 DWORD PTR [ecx+16]
  00003	ff 15 00 00 00
	00		 call	 DWORD PTR __imp__ResumeThread@4

; 212  : 	#if defined( I3_DEBUG)
; 213  : 	if( Rv == 0xFFFFFFFF) {
; 214  : 		i3Log( "i3Thread::Resume()", "i3Thread::Resume() failed.");
; 215  : 		return FALSE;
; 216  : 	}
; 217  : 	#endif
; 218  : #elif defined( I3_PSP)
; 219  : 	if( sceKernelResumeThread( m_Handle) != SCE_KERNEL_ERROR_OK)
; 220  : 	{
; 221  : 		i3Log( "i3Thread::Resume()", "i3Thread::Resume() failed.");
; 222  : 		return FALSE;
; 223  : 	}
; 224  : 
; 225  : #endif
; 226  : 
; 227  : 	return TRUE;

  00009	b8 01 00 00 00	 mov	 eax, 1

; 228  : }

  0000e	c3		 ret	 0
?Resume@i3Thread@@UAEHXZ ENDP				; i3Thread::Resume
_TEXT	ENDS
; Function compile flags: /Ogtp
; File E:\Proyectos\JuegosOnlineproyectos\PB\pbblow\Piercing Blow Remake\i3Server\src\i3Base\i3Thread.cpp
;	COMDAT ?Suspend@i3Thread@@UAEHXZ
_TEXT	SEGMENT
?Suspend@i3Thread@@UAEHXZ PROC				; i3Thread::Suspend, COMDAT
; _this$ = ecx

; 185  : #if defined( I3_WINDOWS)
; 186  : 	UINT32 Rv;
; 187  : 
; 188  : 	Rv = SuspendThread( m_Handle);

  00000	ff 71 10	 push	 DWORD PTR [ecx+16]
  00003	ff 15 00 00 00
	00		 call	 DWORD PTR __imp__SuspendThread@4

; 189  : 	#if defined( I3_DEBUG)
; 190  : 	if( Rv == 0xFFFFFFFF) {
; 191  : 		i3Log( "i3Thread::Suspend()", "i3Thread::Suspend() failed.");
; 192  : 		return FALSE;
; 193  : 	}
; 194  : 	#endif
; 195  : #elif defined( I3_PSP)
; 196  : 	if( sceKernelSuspendThread( m_Handle) != SCE_KERNEL_ERROR_OK)
; 197  : 	{
; 198  : 		i3Log( "i3Thread::Suspend()", "i3Thread::Suspend() failed.");
; 199  : 		return FALSE;
; 200  : 	}
; 201  : #endif
; 202  : 
; 203  : 	return TRUE;

  00009	b8 01 00 00 00	 mov	 eax, 1

; 204  : }

  0000e	c3		 ret	 0
?Suspend@i3Thread@@UAEHXZ ENDP				; i3Thread::Suspend
_TEXT	ENDS
; Function compile flags: /Ogtp
; File E:\Proyectos\JuegosOnlineproyectos\PB\pbblow\Piercing Blow Remake\i3Server\src\i3Base\i3Thread.cpp
;	COMDAT ?Create@i3Thread@@UAEHPADIIPAXH@Z
_TEXT	SEGMENT
_pszName$ = 8						; size = 4
_Attr$ = 12						; size = 4
_StackSize$ = 16					; size = 4
_pUserData$ = 20					; size = 4
_priority$ = 24						; size = 4
?Create@i3Thread@@UAEHPADIIPAXH@Z PROC			; i3Thread::Create, COMDAT
; _this$ = ecx

; 106  : {

  00000	55		 push	 ebp
  00001	8b ec		 mov	 ebp, esp

; 107  : 	// Name
; 108  : //		i3String::NCopy( m_szName, pszName, sizeof(m_szName) - 1);
; 109  : //		m_szName[ sizeof(m_szName) - 1] = 0;
; 110  : 
; 111  : 	m_Attribute = Attr;
; 112  : 	m_StackSize = StackSize;
; 113  : 	m_Parameter = pUserData;

  00003	8b 45 14	 mov	 eax, DWORD PTR _pUserData$[ebp]
  00006	8b 55 0c	 mov	 edx, DWORD PTR _Attr$[ebp]
  00009	56		 push	 esi
  0000a	8b 75 10	 mov	 esi, DWORD PTR _StackSize$[ebp]
  0000d	57		 push	 edi
  0000e	8b f9		 mov	 edi, ecx
  00010	89 47 6c	 mov	 DWORD PTR [edi+108], eax

; 114  : 	m_Priority = priority;

  00013	8b 45 18	 mov	 eax, DWORD PTR _priority$[ebp]
  00016	89 47 68	 mov	 DWORD PTR [edi+104], eax

; 115  : 
; 116  : 	m_State = THREAD_SUSPENDED;
; 117  : 
; 118  : 	#if defined( I3_WINDOWS)
; 119  : 		m_Handle = CreateThread(  NULL,									// Security Attribute

  00019	8d 47 14	 lea	 eax, DWORD PTR [edi+20]
  0001c	50		 push	 eax
  0001d	52		 push	 edx
  0001e	57		 push	 edi
  0001f	68 00 00 00 00	 push	 OFFSET ?_DefThreadProc@@YAIPAVi3Thread@@@Z ; _DefThreadProc
  00024	56		 push	 esi
  00025	6a 00		 push	 0
  00027	89 57 64	 mov	 DWORD PTR [edi+100], edx
  0002a	89 77 60	 mov	 DWORD PTR [edi+96], esi
  0002d	c7 47 5c 02 00
	00 00		 mov	 DWORD PTR [edi+92], 2
  00034	ff 15 00 00 00
	00		 call	 DWORD PTR __imp__CreateThread@24

; 120  : 								m_StackSize,							// Stack Size
; 121  : 								(LPTHREAD_START_ROUTINE)_DefThreadProc,	// Thread Routine
; 122  : 								this,									// User-Defined Parameter
; 123  : 								m_Attribute,							// Creation Flag
; 124  : 								(DWORD *)&m_ThreadID);
; 125  : 
; 126  : 		#if defined( I3_DEBUG)
; 127  : 			if( m_Handle == NULL) {
; 128  : 				i3Log( "i3Thread::Create()", "Thread¸¦ ˝ÇÇŕÇŇ Ľö ľř˝Ŕ´Ď´Ů");
; 129  : 				return FALSE;
; 130  : 			}
; 131  : 		#endif
; 132  : 	#elif defined( I3_PSP)
; 133  : 		m_Handle = sceKernelCreateThread( "Thread", 
; 134  : 								(int (*)(SceSize, void *)) _DefThreadProc,
; 135  : 								SCE_KERNEL_MODULE_INIT_PRIORITY,			// Initial Priority
; 136  : 								m_StackSize,
; 137  : 								m_Attribute,
; 138  : 								NULL);
; 139  : 		if( m_Handle <= 0)
; 140  : 		{
; 141  : 			i3Log( "i3Thread::Create()", "Thread¸¦ »ýĽşÇŇ Ľö ľř˝Ŕ´Ď´Ů.");
; 142  : 			return FALSE;
; 143  : 		}
; 144  : 
; 145  : 		//void *pTemp = ( pPointer == NULL ) ? this : pPointer;
; 146  : 		//printf("void * pTemp = (void *) this %p \n", pTemp ); 
; 147  : 
; 148  : 		m_UserData.p = this;
; 149  : 
; 150  : 		if( sceKernelStartThread( m_Handle, sizeof(I3_PSP_THREAD_USERDATA), &m_UserData) != SCE_KERNEL_ERROR_OK)
; 151  : 		{
; 152  : 			i3Log( "i3Thread::Create()", "sceKernelStartThread() failed.");
; 153  : 			return FALSE;
; 154  : 		}
; 155  : 	#endif
; 156  : 
; 157  : 	SetPriority( m_Priority);

  0003a	ff 77 68	 push	 DWORD PTR [edi+104]
  0003d	89 47 10	 mov	 DWORD PTR [edi+16], eax
  00040	8b cf		 mov	 ecx, edi
  00042	8b 07		 mov	 eax, DWORD PTR [edi]
  00044	ff 50 20	 call	 DWORD PTR [eax+32]

; 158  : 
; 159  : 	return TRUE;

  00047	5f		 pop	 edi
  00048	b8 01 00 00 00	 mov	 eax, 1
  0004d	5e		 pop	 esi

; 160  : }

  0004e	5d		 pop	 ebp
  0004f	c2 14 00	 ret	 20			; 00000014H
?Create@i3Thread@@UAEHPADIIPAXH@Z ENDP			; i3Thread::Create
_TEXT	ENDS
; Function compile flags: /Ogtp
; File E:\Proyectos\JuegosOnlineproyectos\PB\pbblow\Piercing Blow Remake\i3Server\src\i3Base\i3Thread.cpp
;	COMDAT ??1i3Thread@@UAE@XZ
_TEXT	SEGMENT
??1i3Thread@@UAE@XZ PROC				; i3Thread::~i3Thread, COMDAT
; _this$ = ecx

; 82   : {

  00000	56		 push	 esi
  00001	8b f1		 mov	 esi, ecx
  00003	c7 06 00 00 00
	00		 mov	 DWORD PTR [esi], OFFSET ??_7i3Thread@@6B@

; 83   : 	i3Thread * pPrev;
; 84   : 
; 85   : 	//  »ýĽşµČ ¸đµç Thread´Â ł»şÎŔűŔÎ Single-Linked List·Î ż¬°áµÇľî ŔÖ´Ů.
; 86   : 	// Áľ·á Ŕüżˇ Linked-ListżˇĽ­ ŔÚ˝ĹŔ» Á¦°ĹÇŃ´Ů.
; 87   : 	{
; 88   : 		pPrev = s_pThreadHead;

  00009	8b 15 00 00 00
	00		 mov	 edx, DWORD PTR ?s_pThreadHead@i3Thread@@1PAV1@A ; i3Thread::s_pThreadHead
  0000f	8b c2		 mov	 eax, edx

; 89   : 		while((pPrev != NULL) && (pPrev->m_pNext != this))

  00011	85 c0		 test	 eax, eax
  00013	74 1a		 je	 SHORT $LN4@i3Thread
$LL2@i3Thread:
  00015	8d 48 18	 lea	 ecx, DWORD PTR [eax+24]
  00018	8b 01		 mov	 eax, DWORD PTR [ecx]
  0001a	3b c6		 cmp	 eax, esi
  0001c	74 06		 je	 SHORT $LN3@i3Thread
  0001e	85 c0		 test	 eax, eax
  00020	75 f3		 jne	 SHORT $LL2@i3Thread

; 90   : 			pPrev = pPrev->m_pNext;
; 91   : 
; 92   : 		if( pPrev != NULL)

  00022	eb 0b		 jmp	 SHORT $LN4@i3Thread
$LN3@i3Thread:

; 93   : 			pPrev->m_pNext = m_pNext;

  00024	8b 46 18	 mov	 eax, DWORD PTR [esi+24]
  00027	89 01		 mov	 DWORD PTR [ecx], eax
  00029	8b 15 00 00 00
	00		 mov	 edx, DWORD PTR ?s_pThreadHead@i3Thread@@1PAV1@A ; i3Thread::s_pThreadHead
$LN4@i3Thread:

; 94   : 
; 95   : 		if( s_pThreadHead == this)

  0002f	3b d6		 cmp	 edx, esi
  00031	75 08		 jne	 SHORT $LN5@i3Thread

; 96   : 			s_pThreadHead = m_pNext;

  00033	8b 46 18	 mov	 eax, DWORD PTR [esi+24]
  00036	a3 00 00 00 00	 mov	 DWORD PTR ?s_pThreadHead@i3Thread@@1PAV1@A, eax ; i3Thread::s_pThreadHead
$LN5@i3Thread:

; 97   : 	}
; 98   : 
; 99   : 	if( m_State != THREAD_STOPPED) 

  0003b	83 7e 5c 03	 cmp	 DWORD PTR [esi+92], 3
  0003f	74 0c		 je	 SHORT $LN11@i3Thread

; 165  : 	if( TerminateThread( m_Handle, m_ReturnCode) == FALSE) {

  00041	ff 76 70	 push	 DWORD PTR [esi+112]
  00044	ff 76 10	 push	 DWORD PTR [esi+16]
  00047	ff 15 00 00 00
	00		 call	 DWORD PTR __imp__TerminateThread@8
$LN11@i3Thread:

; 100  : 		Terminate();
; 101  : 
; 102  : 	//i3System::RemoveTerminateProc( _ThreadKillProc);
; 103  : }

  0004d	8b ce		 mov	 ecx, esi
  0004f	5e		 pop	 esi
  00050	e9 00 00 00 00	 jmp	 ??1i3ElementBase@@UAE@XZ ; i3ElementBase::~i3ElementBase
??1i3Thread@@UAE@XZ ENDP				; i3Thread::~i3Thread
_TEXT	ENDS
; Function compile flags: /Ogtp
; File E:\Proyectos\JuegosOnlineproyectos\PB\pbblow\Piercing Blow Remake\i3Server\src\i3Base\i3Thread.cpp
;	COMDAT ??0i3Thread@@QAE@XZ
_TEXT	SEGMENT
_this$ = -4						; size = 4
??0i3Thread@@QAE@XZ PROC				; i3Thread::i3Thread, COMDAT
; _this$ = ecx

; 58   : {

  00000	55		 push	 ebp
  00001	8b ec		 mov	 ebp, esp
  00003	51		 push	 ecx
  00004	56		 push	 esi
  00005	8b f1		 mov	 esi, ecx
  00007	89 75 fc	 mov	 DWORD PTR _this$[ebp], esi
  0000a	e8 00 00 00 00	 call	 ??0i3ElementBase@@QAE@XZ ; i3ElementBase::i3ElementBase
  0000f	c7 06 00 00 00
	00		 mov	 DWORD PTR [esi], OFFSET ??_7i3Thread@@6B@

; 59   : #if defined( I3_WINDOWS)
; 60   : 	m_Handle = NULL;

  00015	c7 46 10 00 00
	00 00		 mov	 DWORD PTR [esi+16], 0

; 61   : #elif defined( I3_PSP)
; 62   : 	m_Handle = 0;
; 63   : #endif
; 64   : 
; 65   : 	m_State = THREAD_STOPPED;

  0001c	c7 46 5c 03 00
	00 00		 mov	 DWORD PTR [esi+92], 3

; 66   : 
; 67   : 	m_pNext = s_pThreadHead;

  00023	a1 00 00 00 00	 mov	 eax, DWORD PTR ?s_pThreadHead@i3Thread@@1PAV1@A ; i3Thread::s_pThreadHead
  00028	89 46 18	 mov	 DWORD PTR [esi+24], eax

; 68   : 
; 69   : 	s_pThreadHead = this;
; 70   : 
; 71   : 	//i3System::AddTerminateProc( _ThreadKillProc, this);
; 72   : 
; 73   : 	m_Attribute = 0;
; 74   : 	m_Priority = PRIORITY_NORMAL;
; 75   : 	m_ReturnCode = 0;
; 76   : 	m_StackSize = 4096;
; 77   : 	m_ThreadID = 0;
; 78   : 	m_szName[0] = 0;
; 79   : }

  0002b	8b c6		 mov	 eax, esi
  0002d	89 35 00 00 00
	00		 mov	 DWORD PTR ?s_pThreadHead@i3Thread@@1PAV1@A, esi ; i3Thread::s_pThreadHead
  00033	c7 46 64 00 00
	00 00		 mov	 DWORD PTR [esi+100], 0
  0003a	c7 46 68 03 00
	00 00		 mov	 DWORD PTR [esi+104], 3
  00041	c7 46 70 00 00
	00 00		 mov	 DWORD PTR [esi+112], 0
  00048	c7 46 60 00 10
	00 00		 mov	 DWORD PTR [esi+96], 4096 ; 00001000H
  0004f	c7 46 14 00 00
	00 00		 mov	 DWORD PTR [esi+20], 0
  00056	c6 46 1c 00	 mov	 BYTE PTR [esi+28], 0
  0005a	5e		 pop	 esi
  0005b	8b e5		 mov	 esp, ebp
  0005d	5d		 pop	 ebp
  0005e	c3		 ret	 0
??0i3Thread@@QAE@XZ ENDP				; i3Thread::i3Thread
_TEXT	ENDS
; Function compile flags: /Ogtp
; File E:\Proyectos\JuegosOnlineproyectos\PB\pbblow\Piercing Blow Remake\i3Server\src\i3Base\i3Thread.cpp
;	COMDAT ?_BindObjectRefByType@i3Thread@@SAPAV1@PAXW4I3_CLASSMETA_TYPE@@@Z
_TEXT	SEGMENT
_pBuf$ = 8						; size = 4
_type$ = 12						; size = 4
?_BindObjectRefByType@i3Thread@@SAPAV1@PAXW4I3_CLASSMETA_TYPE@@@Z PROC ; i3Thread::_BindObjectRefByType, COMDAT

; 7    : I3_CLASS_INSTANCE( i3Thread, i3ElementBase);

  00000	55		 push	 ebp
  00001	8b ec		 mov	 ebp, esp
  00003	8b 0d 00 00 00
	00		 mov	 ecx, DWORD PTR ?s_pClassMetai3Thread@i3Thread@@2PAVi3ClassMeta@@A ; i3Thread::s_pClassMetai3Thread
  00009	ff 75 0c	 push	 DWORD PTR _type$[ebp]
  0000c	ff 75 08	 push	 DWORD PTR _pBuf$[ebp]
  0000f	8b 01		 mov	 eax, DWORD PTR [ecx]
  00011	ff 50 08	 call	 DWORD PTR [eax+8]
  00014	5d		 pop	 ebp
  00015	c3		 ret	 0
?_BindObjectRefByType@i3Thread@@SAPAV1@PAXW4I3_CLASSMETA_TYPE@@@Z ENDP ; i3Thread::_BindObjectRefByType
_TEXT	ENDS
; Function compile flags: /Ogtp
; File E:\Proyectos\JuegosOnlineproyectos\PB\pbblow\Piercing Blow Remake\i3Server\src\i3Base\i3Thread.cpp
; File E:\Proyectos\JuegosOnlineproyectos\PB\pbblow\Piercing Blow Remake\i3Server\include\i3Base\i3ElementBase.h
; File E:\Proyectos\JuegosOnlineproyectos\PB\pbblow\Piercing Blow Remake\i3Server\src\i3Base\i3Thread.cpp
;	COMDAT ?_BindObjectByType@i3Thread@@SAPAV1@PAXW4I3_CLASSMETA_TYPE@@@Z
_TEXT	SEGMENT
_pBuf$ = 8						; size = 4
_type$ = 12						; size = 4
?_BindObjectByType@i3Thread@@SAPAV1@PAXW4I3_CLASSMETA_TYPE@@@Z PROC ; i3Thread::_BindObjectByType, COMDAT

; 7    : I3_CLASS_INSTANCE( i3Thread, i3ElementBase);

  00000	55		 push	 ebp
  00001	8b ec		 mov	 ebp, esp
  00003	8b 0d 00 00 00
	00		 mov	 ecx, DWORD PTR ?s_pClassMetai3Thread@i3Thread@@2PAVi3ClassMeta@@A ; i3Thread::s_pClassMetai3Thread
  00009	ff 75 0c	 push	 DWORD PTR _type$[ebp]
  0000c	ff 75 08	 push	 DWORD PTR _pBuf$[ebp]
  0000f	8b 01		 mov	 eax, DWORD PTR [ecx]
  00011	ff 50 08	 call	 DWORD PTR [eax+8]
; File E:\Proyectos\JuegosOnlineproyectos\PB\pbblow\Piercing Blow Remake\i3Server\include\i3Base\i3ElementBase.h

; 392  : 		m_RefCount++;

  00014	ff 40 04	 inc	 DWORD PTR [eax+4]
; File E:\Proyectos\JuegosOnlineproyectos\PB\pbblow\Piercing Blow Remake\i3Server\src\i3Base\i3Thread.cpp

; 7    : I3_CLASS_INSTANCE( i3Thread, i3ElementBase);

  00017	5d		 pop	 ebp
  00018	c3		 ret	 0
?_BindObjectByType@i3Thread@@SAPAV1@PAXW4I3_CLASSMETA_TYPE@@@Z ENDP ; i3Thread::_BindObjectByType
_TEXT	ENDS
; Function compile flags: /Ogtp
; File E:\Proyectos\JuegosOnlineproyectos\PB\pbblow\Piercing Blow Remake\i3Server\src\i3Base\i3Thread.cpp
;	COMDAT ?_NewObjectRefByType@i3Thread@@SAPAV1@W4I3_CLASSMETA_TYPE@@@Z
_TEXT	SEGMENT
_type$ = 8						; size = 4
?_NewObjectRefByType@i3Thread@@SAPAV1@W4I3_CLASSMETA_TYPE@@@Z PROC ; i3Thread::_NewObjectRefByType, COMDAT

; 7    : I3_CLASS_INSTANCE( i3Thread, i3ElementBase);

  00000	55		 push	 ebp
  00001	8b ec		 mov	 ebp, esp
  00003	8b 0d 00 00 00
	00		 mov	 ecx, DWORD PTR ?s_pClassMetai3Thread@i3Thread@@2PAVi3ClassMeta@@A ; i3Thread::s_pClassMetai3Thread
  00009	ff 75 08	 push	 DWORD PTR _type$[ebp]
  0000c	8b 01		 mov	 eax, DWORD PTR [ecx]
  0000e	ff 50 04	 call	 DWORD PTR [eax+4]
  00011	5d		 pop	 ebp
  00012	c3		 ret	 0
?_NewObjectRefByType@i3Thread@@SAPAV1@W4I3_CLASSMETA_TYPE@@@Z ENDP ; i3Thread::_NewObjectRefByType
_TEXT	ENDS
; Function compile flags: /Ogtp
; File E:\Proyectos\JuegosOnlineproyectos\PB\pbblow\Piercing Blow Remake\i3Server\src\i3Base\i3Thread.cpp
; File E:\Proyectos\JuegosOnlineproyectos\PB\pbblow\Piercing Blow Remake\i3Server\include\i3Base\i3ElementBase.h
; File E:\Proyectos\JuegosOnlineproyectos\PB\pbblow\Piercing Blow Remake\i3Server\src\i3Base\i3Thread.cpp
;	COMDAT ?_NewObjectByType@i3Thread@@SAPAV1@W4I3_CLASSMETA_TYPE@@@Z
_TEXT	SEGMENT
_type$ = 8						; size = 4
?_NewObjectByType@i3Thread@@SAPAV1@W4I3_CLASSMETA_TYPE@@@Z PROC ; i3Thread::_NewObjectByType, COMDAT

; 7    : I3_CLASS_INSTANCE( i3Thread, i3ElementBase);

  00000	55		 push	 ebp
  00001	8b ec		 mov	 ebp, esp
  00003	8b 0d 00 00 00
	00		 mov	 ecx, DWORD PTR ?s_pClassMetai3Thread@i3Thread@@2PAVi3ClassMeta@@A ; i3Thread::s_pClassMetai3Thread
  00009	ff 75 08	 push	 DWORD PTR _type$[ebp]
  0000c	8b 01		 mov	 eax, DWORD PTR [ecx]
  0000e	ff 50 04	 call	 DWORD PTR [eax+4]
; File E:\Proyectos\JuegosOnlineproyectos\PB\pbblow\Piercing Blow Remake\i3Server\include\i3Base\i3ElementBase.h

; 392  : 		m_RefCount++;

  00011	ff 40 04	 inc	 DWORD PTR [eax+4]
; File E:\Proyectos\JuegosOnlineproyectos\PB\pbblow\Piercing Blow Remake\i3Server\src\i3Base\i3Thread.cpp

; 7    : I3_CLASS_INSTANCE( i3Thread, i3ElementBase);

  00014	5d		 pop	 ebp
  00015	c3		 ret	 0
?_NewObjectByType@i3Thread@@SAPAV1@W4I3_CLASSMETA_TYPE@@@Z ENDP ; i3Thread::_NewObjectByType
_TEXT	ENDS
; Function compile flags: /Ogtp
; File E:\Proyectos\JuegosOnlineproyectos\PB\pbblow\Piercing Blow Remake\i3Server\src\i3Base\i3Thread.cpp
;	COMDAT ?_BindObjectRef@i3Thread@@SAPAV1@PAX@Z
_TEXT	SEGMENT
_pBuf$ = 8						; size = 4
?_BindObjectRef@i3Thread@@SAPAV1@PAX@Z PROC		; i3Thread::_BindObjectRef, COMDAT

; 7    : I3_CLASS_INSTANCE( i3Thread, i3ElementBase);

  00000	55		 push	 ebp
  00001	8b ec		 mov	 ebp, esp
  00003	8b 0d 00 00 00
	00		 mov	 ecx, DWORD PTR ?s_pClassMetai3Thread@i3Thread@@2PAVi3ClassMeta@@A ; i3Thread::s_pClassMetai3Thread
  00009	6a 00		 push	 0
  0000b	ff 75 08	 push	 DWORD PTR _pBuf$[ebp]
  0000e	8b 01		 mov	 eax, DWORD PTR [ecx]
  00010	ff 50 08	 call	 DWORD PTR [eax+8]
  00013	5d		 pop	 ebp
  00014	c3		 ret	 0
?_BindObjectRef@i3Thread@@SAPAV1@PAX@Z ENDP		; i3Thread::_BindObjectRef
_TEXT	ENDS
; Function compile flags: /Ogtp
; File E:\Proyectos\JuegosOnlineproyectos\PB\pbblow\Piercing Blow Remake\i3Server\src\i3Base\i3Thread.cpp
; File E:\Proyectos\JuegosOnlineproyectos\PB\pbblow\Piercing Blow Remake\i3Server\include\i3Base\i3ElementBase.h
; File E:\Proyectos\JuegosOnlineproyectos\PB\pbblow\Piercing Blow Remake\i3Server\src\i3Base\i3Thread.cpp
;	COMDAT ?_BindObject@i3Thread@@SAPAV1@PAX@Z
_TEXT	SEGMENT
_pBuf$ = 8						; size = 4
?_BindObject@i3Thread@@SAPAV1@PAX@Z PROC		; i3Thread::_BindObject, COMDAT

; 7    : I3_CLASS_INSTANCE( i3Thread, i3ElementBase);

  00000	55		 push	 ebp
  00001	8b ec		 mov	 ebp, esp
  00003	8b 0d 00 00 00
	00		 mov	 ecx, DWORD PTR ?s_pClassMetai3Thread@i3Thread@@2PAVi3ClassMeta@@A ; i3Thread::s_pClassMetai3Thread
  00009	6a 00		 push	 0
  0000b	ff 75 08	 push	 DWORD PTR _pBuf$[ebp]
  0000e	8b 01		 mov	 eax, DWORD PTR [ecx]
  00010	ff 50 08	 call	 DWORD PTR [eax+8]
; File E:\Proyectos\JuegosOnlineproyectos\PB\pbblow\Piercing Blow Remake\i3Server\include\i3Base\i3ElementBase.h

; 392  : 		m_RefCount++;

  00013	ff 40 04	 inc	 DWORD PTR [eax+4]
; File E:\Proyectos\JuegosOnlineproyectos\PB\pbblow\Piercing Blow Remake\i3Server\src\i3Base\i3Thread.cpp

; 7    : I3_CLASS_INSTANCE( i3Thread, i3ElementBase);

  00016	5d		 pop	 ebp
  00017	c3		 ret	 0
?_BindObject@i3Thread@@SAPAV1@PAX@Z ENDP		; i3Thread::_BindObject
_TEXT	ENDS
; Function compile flags: /Ogtp
; File E:\Proyectos\JuegosOnlineproyectos\PB\pbblow\Piercing Blow Remake\i3Server\src\i3Base\i3Thread.cpp
;	COMDAT ?_NewObjectRef@i3Thread@@SAPAV1@XZ
_TEXT	SEGMENT
?_NewObjectRef@i3Thread@@SAPAV1@XZ PROC			; i3Thread::_NewObjectRef, COMDAT

; 7    : I3_CLASS_INSTANCE( i3Thread, i3ElementBase);

  00000	8b 0d 00 00 00
	00		 mov	 ecx, DWORD PTR ?s_pClassMetai3Thread@i3Thread@@2PAVi3ClassMeta@@A ; i3Thread::s_pClassMetai3Thread
  00006	6a 00		 push	 0
  00008	8b 01		 mov	 eax, DWORD PTR [ecx]
  0000a	ff 50 04	 call	 DWORD PTR [eax+4]
  0000d	c3		 ret	 0
?_NewObjectRef@i3Thread@@SAPAV1@XZ ENDP			; i3Thread::_NewObjectRef
_TEXT	ENDS
; Function compile flags: /Ogtp
; File E:\Proyectos\JuegosOnlineproyectos\PB\pbblow\Piercing Blow Remake\i3Server\src\i3Base\i3Thread.cpp
; File E:\Proyectos\JuegosOnlineproyectos\PB\pbblow\Piercing Blow Remake\i3Server\include\i3Base\i3ElementBase.h
; File E:\Proyectos\JuegosOnlineproyectos\PB\pbblow\Piercing Blow Remake\i3Server\src\i3Base\i3Thread.cpp
;	COMDAT ?_NewObject@i3Thread@@SAPAV1@XZ
_TEXT	SEGMENT
?_NewObject@i3Thread@@SAPAV1@XZ PROC			; i3Thread::_NewObject, COMDAT

; 7    : I3_CLASS_INSTANCE( i3Thread, i3ElementBase);

  00000	8b 0d 00 00 00
	00		 mov	 ecx, DWORD PTR ?s_pClassMetai3Thread@i3Thread@@2PAVi3ClassMeta@@A ; i3Thread::s_pClassMetai3Thread
  00006	6a 00		 push	 0
  00008	8b 01		 mov	 eax, DWORD PTR [ecx]
  0000a	ff 50 04	 call	 DWORD PTR [eax+4]
; File E:\Proyectos\JuegosOnlineproyectos\PB\pbblow\Piercing Blow Remake\i3Server\include\i3Base\i3ElementBase.h

; 392  : 		m_RefCount++;

  0000d	ff 40 04	 inc	 DWORD PTR [eax+4]
; File E:\Proyectos\JuegosOnlineproyectos\PB\pbblow\Piercing Blow Remake\i3Server\src\i3Base\i3Thread.cpp

; 7    : I3_CLASS_INSTANCE( i3Thread, i3ElementBase);

  00010	c3		 ret	 0
?_NewObject@i3Thread@@SAPAV1@XZ ENDP			; i3Thread::_NewObject
_TEXT	ENDS
; Function compile flags: /Ogtp
; File E:\Proyectos\JuegosOnlineproyectos\PB\pbblow\Piercing Blow Remake\i3Server\src\i3Base\i3Thread.cpp
;	COMDAT ?SetGhostClass@i3Thread@@SAXPAVi3ClassMeta@@@Z
_TEXT	SEGMENT
_pMeta$ = 8						; size = 4
?SetGhostClass@i3Thread@@SAXPAVi3ClassMeta@@@Z PROC	; i3Thread::SetGhostClass, COMDAT

; 7    : I3_CLASS_INSTANCE( i3Thread, i3ElementBase);

  00000	55		 push	 ebp
  00001	8b ec		 mov	 ebp, esp
  00003	ff 75 08	 push	 DWORD PTR _pMeta$[ebp]
  00006	8b 0d 00 00 00
	00		 mov	 ecx, DWORD PTR ?s_pClassMetai3Thread@i3Thread@@2PAVi3ClassMeta@@A ; i3Thread::s_pClassMetai3Thread
  0000c	e8 00 00 00 00	 call	 ?SetGhostClass@i3ClassMeta@@QAEXPAV1@@Z ; i3ClassMeta::SetGhostClass
  00011	5d		 pop	 ebp
  00012	c3		 ret	 0
?SetGhostClass@i3Thread@@SAXPAVi3ClassMeta@@@Z ENDP	; i3Thread::SetGhostClass
_TEXT	ENDS
; Function compile flags: /Ogtp
; File E:\Proyectos\JuegosOnlineproyectos\PB\pbblow\Piercing Blow Remake\i3Server\src\i3Base\i3Thread.cpp
;	COMDAT ?SetConcreteClass@i3Thread@@SAXPAVi3ClassMeta@@@Z
_TEXT	SEGMENT
_pMeta$ = 8						; size = 4
?SetConcreteClass@i3Thread@@SAXPAVi3ClassMeta@@@Z PROC	; i3Thread::SetConcreteClass, COMDAT

; 7    : I3_CLASS_INSTANCE( i3Thread, i3ElementBase);

  00000	55		 push	 ebp
  00001	8b ec		 mov	 ebp, esp
  00003	ff 75 08	 push	 DWORD PTR _pMeta$[ebp]
  00006	8b 0d 00 00 00
	00		 mov	 ecx, DWORD PTR ?s_pClassMetai3Thread@i3Thread@@2PAVi3ClassMeta@@A ; i3Thread::s_pClassMetai3Thread
  0000c	e8 00 00 00 00	 call	 ?SetConcreteClass@i3ClassMeta@@QAEXPAV1@@Z ; i3ClassMeta::SetConcreteClass
  00011	5d		 pop	 ebp
  00012	c3		 ret	 0
?SetConcreteClass@i3Thread@@SAXPAVi3ClassMeta@@@Z ENDP	; i3Thread::SetConcreteClass
_TEXT	ENDS
; Function compile flags: /Ogtp
; File E:\Proyectos\JuegosOnlineproyectos\PB\pbblow\Piercing Blow Remake\i3Server\src\i3Base\i3Thread.cpp
;	COMDAT ?RegisterMeta@i3Thread@@SAXXZ
_TEXT	SEGMENT
?RegisterMeta@i3Thread@@SAXXZ PROC			; i3Thread::RegisterMeta, COMDAT

; 7    : I3_CLASS_INSTANCE( i3Thread, i3ElementBase);

  00000	8b 0d 00 00 00
	00		 mov	 ecx, DWORD PTR ?s_pClassMetai3Thread@i3Thread@@2PAVi3ClassMeta@@A ; i3Thread::s_pClassMetai3Thread
  00006	e9 00 00 00 00	 jmp	 ?Register@i3ClassMeta@@QAEXXZ ; i3ClassMeta::Register
?RegisterMeta@i3Thread@@SAXXZ ENDP			; i3Thread::RegisterMeta
_TEXT	ENDS
; Function compile flags: /Ogtp
; File E:\Proyectos\JuegosOnlineproyectos\PB\pbblow\Piercing Blow Remake\i3Server\src\i3Base\i3Thread.cpp
;	COMDAT ?GetMeta@i3Thread@@UAEPAVi3ClassMeta@@XZ
_TEXT	SEGMENT
?GetMeta@i3Thread@@UAEPAVi3ClassMeta@@XZ PROC		; i3Thread::GetMeta, COMDAT
; _this$ = ecx

; 7    : I3_CLASS_INSTANCE( i3Thread, i3ElementBase);

  00000	a1 00 00 00 00	 mov	 eax, DWORD PTR ?s_pClassMetai3Thread@i3Thread@@2PAVi3ClassMeta@@A ; i3Thread::s_pClassMetai3Thread
  00005	c3		 ret	 0
?GetMeta@i3Thread@@UAEPAVi3ClassMeta@@XZ ENDP		; i3Thread::GetMeta
_TEXT	ENDS
; Function compile flags: /Ogtp
; File E:\Proyectos\JuegosOnlineproyectos\PB\pbblow\Piercing Blow Remake\i3Server\include\i3Base\i3Thread.h
;	COMDAT ?GetClassMeta@i3Thread@@SAPAVi3ClassMeta@@XZ
_TEXT	SEGMENT
?GetClassMeta@i3Thread@@SAPAVi3ClassMeta@@XZ PROC	; i3Thread::GetClassMeta, COMDAT

; 36   : 	I3_CLASS_DEFINE( i3Thread);

  00000	a1 00 00 00 00	 mov	 eax, DWORD PTR ?s_pClassMetai3Thread@i3Thread@@2PAVi3ClassMeta@@A ; i3Thread::s_pClassMetai3Thread
  00005	c3		 ret	 0
?GetClassMeta@i3Thread@@SAPAVi3ClassMeta@@XZ ENDP	; i3Thread::GetClassMeta
_TEXT	ENDS
; Function compile flags: /Ogtp
;	COMDAT ??_Ei3MemoryPool@@UAEPAXI@Z
_TEXT	SEGMENT
__$EHRec$ = -12						; size = 12
___flags$ = 8						; size = 4
??_Ei3MemoryPool@@UAEPAXI@Z PROC			; i3MemoryPool::`vector deleting destructor', COMDAT
; _this$ = ecx
  00000	55		 push	 ebp
  00001	8b ec		 mov	 ebp, esp
  00003	6a ff		 push	 -1
  00005	68 00 00 00 00	 push	 __ehhandler$??_Ei3MemoryPool@@UAEPAXI@Z
  0000a	64 a1 00 00 00
	00		 mov	 eax, DWORD PTR fs:0
  00010	50		 push	 eax
  00011	53		 push	 ebx
  00012	56		 push	 esi
  00013	57		 push	 edi
  00014	a1 00 00 00 00	 mov	 eax, DWORD PTR ___security_cookie
  00019	33 c5		 xor	 eax, ebp
  0001b	50		 push	 eax
  0001c	8d 45 f4	 lea	 eax, DWORD PTR __$EHRec$[ebp]
  0001f	64 a3 00 00 00
	00		 mov	 DWORD PTR fs:0, eax
  00025	8b f1		 mov	 esi, ecx
  00027	8b 45 08	 mov	 eax, DWORD PTR ___flags$[ebp]
  0002a	8b f8		 mov	 edi, eax
  0002c	83 e7 01	 and	 edi, 1
  0002f	a8 02		 test	 al, 2
  00031	74 40		 je	 SHORT $LN2@vector
  00033	68 00 00 00 00	 push	 OFFSET ??1i3MemoryPool@@UAE@XZ ; i3MemoryPool::~i3MemoryPool
  00038	ff 76 fc	 push	 DWORD PTR [esi-4]
  0003b	8d 5e fc	 lea	 ebx, DWORD PTR [esi-4]
  0003e	6a 04		 push	 4
  00040	56		 push	 esi
  00041	e8 00 00 00 00	 call	 ??_M@YGXPAXIIP6EX0@Z@Z
  00046	85 ff		 test	 edi, edi
  00048	74 13		 je	 SHORT $LN3@vector
  0004a	8b 0b		 mov	 ecx, DWORD PTR [ebx]
  0004c	8d 0c 8d 04 00
	00 00		 lea	 ecx, DWORD PTR [ecx*4+4]
  00053	51		 push	 ecx
  00054	53		 push	 ebx
  00055	e8 00 00 00 00	 call	 ??_V@YAXPAXI@Z		; operator delete[]
  0005a	83 c4 08	 add	 esp, 8
$LN3@vector:
  0005d	8b c3		 mov	 eax, ebx
  0005f	8b 4d f4	 mov	 ecx, DWORD PTR __$EHRec$[ebp]
  00062	64 89 0d 00 00
	00 00		 mov	 DWORD PTR fs:0, ecx
  00069	59		 pop	 ecx
  0006a	5f		 pop	 edi
  0006b	5e		 pop	 esi
  0006c	5b		 pop	 ebx
  0006d	8b e5		 mov	 esp, ebp
  0006f	5d		 pop	 ebp
  00070	c2 04 00	 ret	 4
$LN2@vector:
  00073	e8 00 00 00 00	 call	 ??1i3MemoryPool@@UAE@XZ	; i3MemoryPool::~i3MemoryPool
  00078	85 ff		 test	 edi, edi
  0007a	74 0b		 je	 SHORT $LN4@vector
  0007c	6a 04		 push	 4
  0007e	56		 push	 esi
  0007f	e8 00 00 00 00	 call	 ??3@YAXPAXI@Z		; operator delete
  00084	83 c4 08	 add	 esp, 8
$LN4@vector:
  00087	8b c6		 mov	 eax, esi
  00089	8b 4d f4	 mov	 ecx, DWORD PTR __$EHRec$[ebp]
  0008c	64 89 0d 00 00
	00 00		 mov	 DWORD PTR fs:0, ecx
  00093	59		 pop	 ecx
  00094	5f		 pop	 edi
  00095	5e		 pop	 esi
  00096	5b		 pop	 ebx
  00097	8b e5		 mov	 esp, ebp
  00099	5d		 pop	 ebp
  0009a	c2 04 00	 ret	 4
  0009d	cc		 int	 3
  0009e	cc		 int	 3
  0009f	cc		 int	 3
  000a0	cc		 int	 3
  000a1	cc		 int	 3
_TEXT	ENDS
;	COMDAT text$x
text$x	SEGMENT
__ehhandler$??_Ei3MemoryPool@@UAEPAXI@Z:
  00000	90		 npad	 1
  00001	90		 npad	 1
  00002	8b 54 24 08	 mov	 edx, DWORD PTR [esp+8]
  00006	8d 42 0c	 lea	 eax, DWORD PTR [edx+12]
  00009	8b 4a f0	 mov	 ecx, DWORD PTR [edx-16]
  0000c	33 c8		 xor	 ecx, eax
  0000e	e8 00 00 00 00	 call	 @__security_check_cookie@4
  00013	b8 00 00 00 00	 mov	 eax, OFFSET __ehfuncinfo$??_Ei3MemoryPool@@UAEPAXI@Z
  00018	e9 00 00 00 00	 jmp	 ___CxxFrameHandler3
text$x	ENDS
??_Ei3MemoryPool@@UAEPAXI@Z ENDP			; i3MemoryPool::`vector deleting destructor'
; Function compile flags: /Ogtp
;	COMDAT ??_Gi3MemoryPool@@UAEPAXI@Z
_TEXT	SEGMENT
___flags$ = 8						; size = 4
??_Gi3MemoryPool@@UAEPAXI@Z PROC			; i3MemoryPool::`scalar deleting destructor', COMDAT
; _this$ = ecx
  00000	55		 push	 ebp
  00001	8b ec		 mov	 ebp, esp
  00003	56		 push	 esi
  00004	8b f1		 mov	 esi, ecx
  00006	e8 00 00 00 00	 call	 ??1i3MemoryPool@@UAE@XZ	; i3MemoryPool::~i3MemoryPool
  0000b	f6 45 08 01	 test	 BYTE PTR ___flags$[ebp], 1
  0000f	74 0b		 je	 SHORT $LN5@scalar
  00011	6a 04		 push	 4
  00013	56		 push	 esi
  00014	e8 00 00 00 00	 call	 ??3@YAXPAXI@Z		; operator delete
  00019	83 c4 08	 add	 esp, 8
$LN5@scalar:
  0001c	8b c6		 mov	 eax, esi
  0001e	5e		 pop	 esi
  0001f	5d		 pop	 ebp
  00020	c2 04 00	 ret	 4
??_Gi3MemoryPool@@UAEPAXI@Z ENDP			; i3MemoryPool::`scalar deleting destructor'
_TEXT	ENDS
; Function compile flags: /Ogtp
;	COMDAT ??4i3MemoryPool@@QAEAAV0@ABV0@@Z
_TEXT	SEGMENT
___that$ = 8						; size = 4
??4i3MemoryPool@@QAEAAV0@ABV0@@Z PROC			; i3MemoryPool::operator=, COMDAT
; _this$ = ecx
  00000	8b c1		 mov	 eax, ecx
  00002	c2 04 00	 ret	 4
??4i3MemoryPool@@QAEAAV0@ABV0@@Z ENDP			; i3MemoryPool::operator=
_TEXT	ENDS
; Function compile flags: /Ogtp
;	COMDAT ??0i3MemoryPool@@QAE@ABV0@@Z
_TEXT	SEGMENT
___that$ = 8						; size = 4
??0i3MemoryPool@@QAE@ABV0@@Z PROC			; i3MemoryPool::i3MemoryPool, COMDAT
; _this$ = ecx
  00000	c7 01 00 00 00
	00		 mov	 DWORD PTR [ecx], OFFSET ??_7i3MemoryPool@@6B@
  00006	8b c1		 mov	 eax, ecx
  00008	c2 04 00	 ret	 4
??0i3MemoryPool@@QAE@ABV0@@Z ENDP			; i3MemoryPool::i3MemoryPool
_TEXT	ENDS
; Function compile flags: /Ogtp
; File E:\Proyectos\JuegosOnlineproyectos\PB\pbblow\Piercing Blow Remake\i3Server\src\i3Base\i3Thread.cpp
;	COMDAT ??_Ei3ElementBase@@UAEPAXI@Z
_TEXT	SEGMENT
__$EHRec$ = -12						; size = 12
___flags$ = 8						; size = 4
??_Ei3ElementBase@@UAEPAXI@Z PROC			; i3ElementBase::`vector deleting destructor', COMDAT
; _this$ = ecx
  00000	55		 push	 ebp
  00001	8b ec		 mov	 ebp, esp
  00003	6a ff		 push	 -1
  00005	68 00 00 00 00	 push	 __ehhandler$??_Ei3ElementBase@@UAEPAXI@Z
  0000a	64 a1 00 00 00
	00		 mov	 eax, DWORD PTR fs:0
  00010	50		 push	 eax
  00011	53		 push	 ebx
  00012	56		 push	 esi
  00013	57		 push	 edi
  00014	a1 00 00 00 00	 mov	 eax, DWORD PTR ___security_cookie
  00019	33 c5		 xor	 eax, ebp
  0001b	50		 push	 eax
  0001c	8d 45 f4	 lea	 eax, DWORD PTR __$EHRec$[ebp]
  0001f	64 a3 00 00 00
	00		 mov	 DWORD PTR fs:0, eax
  00025	8b f1		 mov	 esi, ecx
  00027	8b 5d 08	 mov	 ebx, DWORD PTR ___flags$[ebp]
  0002a	8b fb		 mov	 edi, ebx
  0002c	83 e7 01	 and	 edi, 1
  0002f	f6 c3 02	 test	 bl, 2
  00032	74 3f		 je	 SHORT $LN2@vector
  00034	68 00 00 00 00	 push	 OFFSET ??1i3ElementBase@@UAE@XZ ; i3ElementBase::~i3ElementBase
  00039	ff 76 fc	 push	 DWORD PTR [esi-4]
  0003c	8d 5e fc	 lea	 ebx, DWORD PTR [esi-4]
  0003f	6a 10		 push	 16			; 00000010H
  00041	56		 push	 esi
  00042	e8 00 00 00 00	 call	 ??_M@YGXPAXIIP6EX0@Z@Z
  00047	85 ff		 test	 edi, edi
  00049	74 12		 je	 SHORT $LN3@vector
  0004b	8b 0b		 mov	 ecx, DWORD PTR [ebx]
  0004d	c1 e1 04	 shl	 ecx, 4
  00050	83 c1 04	 add	 ecx, 4
  00053	51		 push	 ecx
  00054	53		 push	 ebx
  00055	e8 00 00 00 00	 call	 ??_V@YAXPAXI@Z		; operator delete[]
  0005a	83 c4 08	 add	 esp, 8
$LN3@vector:
  0005d	8b c3		 mov	 eax, ebx
  0005f	8b 4d f4	 mov	 ecx, DWORD PTR __$EHRec$[ebp]
  00062	64 89 0d 00 00
	00 00		 mov	 DWORD PTR fs:0, ecx
  00069	59		 pop	 ecx
  0006a	5f		 pop	 edi
  0006b	5e		 pop	 esi
  0006c	5b		 pop	 ebx
  0006d	8b e5		 mov	 esp, ebp
  0006f	5d		 pop	 ebp
  00070	c2 04 00	 ret	 4
$LN2@vector:
  00073	e8 00 00 00 00	 call	 ??1i3ElementBase@@UAE@XZ ; i3ElementBase::~i3ElementBase
  00078	85 ff		 test	 edi, edi
  0007a	74 1b		 je	 SHORT $LN6@vector
  0007c	f6 c3 04	 test	 bl, 4
  0007f	75 0b		 jne	 SHORT $LN5@vector
  00081	56		 push	 esi
  00082	e8 00 00 00 00	 call	 ??3i3ElementBase@@SAXPAX@Z ; i3ElementBase::operator delete
  00087	83 c4 04	 add	 esp, 4
  0008a	eb 0b		 jmp	 SHORT $LN6@vector
$LN5@vector:

  0008c	6a 10		 push	 16			; 00000010H
  0008e	56		 push	 esi
  0008f	e8 00 00 00 00	 call	 ??3@YAXPAXI@Z		; operator delete
  00094	83 c4 08	 add	 esp, 8
$LN6@vector:
  00097	8b c6		 mov	 eax, esi
  00099	8b 4d f4	 mov	 ecx, DWORD PTR __$EHRec$[ebp]
  0009c	64 89 0d 00 00
	00 00		 mov	 DWORD PTR fs:0, ecx
  000a3	59		 pop	 ecx
  000a4	5f		 pop	 edi
  000a5	5e		 pop	 esi
  000a6	5b		 pop	 ebx
  000a7	8b e5		 mov	 esp, ebp
  000a9	5d		 pop	 ebp
  000aa	c2 04 00	 ret	 4
  000ad	cc		 int	 3
  000ae	cc		 int	 3
  000af	cc		 int	 3
  000b0	cc		 int	 3
  000b1	cc		 int	 3
_TEXT	ENDS
;	COMDAT text$x
text$x	SEGMENT
__ehhandler$??_Ei3ElementBase@@UAEPAXI@Z:
  00000	90		 npad	 1
  00001	90		 npad	 1
  00002	8b 54 24 08	 mov	 edx, DWORD PTR [esp+8]
  00006	8d 42 0c	 lea	 eax, DWORD PTR [edx+12]
  00009	8b 4a f0	 mov	 ecx, DWORD PTR [edx-16]
  0000c	33 c8		 xor	 ecx, eax
  0000e	e8 00 00 00 00	 call	 @__security_check_cookie@4
  00013	b8 00 00 00 00	 mov	 eax, OFFSET __ehfuncinfo$??_Ei3ElementBase@@UAEPAXI@Z
  00018	e9 00 00 00 00	 jmp	 ___CxxFrameHandler3
text$x	ENDS
??_Ei3ElementBase@@UAEPAXI@Z ENDP			; i3ElementBase::`vector deleting destructor'
; Function compile flags: /Ogtp
; File E:\Proyectos\JuegosOnlineproyectos\PB\pbblow\Piercing Blow Remake\i3Server\src\i3Base\i3Thread.cpp
;	COMDAT ??_Gi3ElementBase@@UAEPAXI@Z
_TEXT	SEGMENT
___flags$ = 8						; size = 4
??_Gi3ElementBase@@UAEPAXI@Z PROC			; i3ElementBase::`scalar deleting destructor', COMDAT
; _this$ = ecx
  00000	55		 push	 ebp
  00001	8b ec		 mov	 ebp, esp
  00003	56		 push	 esi
  00004	8b f1		 mov	 esi, ecx
  00006	e8 00 00 00 00	 call	 ??1i3ElementBase@@UAE@XZ ; i3ElementBase::~i3ElementBase
  0000b	8b 45 08	 mov	 eax, DWORD PTR ___flags$[ebp]
  0000e	a8 01		 test	 al, 1
  00010	74 1f		 je	 SHORT $LN10@scalar
  00012	a8 04		 test	 al, 4
  00014	75 10		 jne	 SHORT $LN3@scalar
  00016	56		 push	 esi
  00017	e8 00 00 00 00	 call	 ??3i3ElementBase@@SAXPAX@Z ; i3ElementBase::operator delete
  0001c	83 c4 04	 add	 esp, 4
  0001f	8b c6		 mov	 eax, esi
  00021	5e		 pop	 esi
  00022	5d		 pop	 ebp
  00023	c2 04 00	 ret	 4
$LN3@scalar:

  00026	6a 10		 push	 16			; 00000010H
  00028	56		 push	 esi
  00029	e8 00 00 00 00	 call	 ??3@YAXPAXI@Z		; operator delete
  0002e	83 c4 08	 add	 esp, 8
$LN10@scalar:
  00031	8b c6		 mov	 eax, esi
  00033	5e		 pop	 esi
  00034	5d		 pop	 ebp
  00035	c2 04 00	 ret	 4
??_Gi3ElementBase@@UAEPAXI@Z ENDP			; i3ElementBase::`scalar deleting destructor'
_TEXT	ENDS
; Function compile flags: /Ogtp
;	COMDAT ??4i3ElementBase@@QAEAAV0@ABV0@@Z
_TEXT	SEGMENT
___that$ = 8						; size = 4
??4i3ElementBase@@QAEAAV0@ABV0@@Z PROC			; i3ElementBase::operator=, COMDAT
; _this$ = ecx
  00000	55		 push	 ebp
  00001	8b ec		 mov	 ebp, esp
  00003	8b 55 08	 mov	 edx, DWORD PTR ___that$[ebp]
  00006	8b 42 04	 mov	 eax, DWORD PTR [edx+4]
  00009	89 41 04	 mov	 DWORD PTR [ecx+4], eax
  0000c	8b 42 08	 mov	 eax, DWORD PTR [edx+8]
  0000f	89 41 08	 mov	 DWORD PTR [ecx+8], eax
  00012	8b 42 0c	 mov	 eax, DWORD PTR [edx+12]
  00015	89 41 0c	 mov	 DWORD PTR [ecx+12], eax
  00018	8b c1		 mov	 eax, ecx
  0001a	5d		 pop	 ebp
  0001b	c2 04 00	 ret	 4
??4i3ElementBase@@QAEAAV0@ABV0@@Z ENDP			; i3ElementBase::operator=
_TEXT	ENDS
; Function compile flags: /Ogtp
;	COMDAT ??0i3ElementBase@@QAE@ABV0@@Z
_TEXT	SEGMENT
___that$ = 8						; size = 4
??0i3ElementBase@@QAE@ABV0@@Z PROC			; i3ElementBase::i3ElementBase, COMDAT
; _this$ = ecx
  00000	55		 push	 ebp
  00001	8b ec		 mov	 ebp, esp
  00003	8b 55 08	 mov	 edx, DWORD PTR ___that$[ebp]
  00006	c7 01 00 00 00
	00		 mov	 DWORD PTR [ecx], OFFSET ??_7i3ElementBase@@6B@
  0000c	8b 42 04	 mov	 eax, DWORD PTR [edx+4]
  0000f	89 41 04	 mov	 DWORD PTR [ecx+4], eax
  00012	8b 42 08	 mov	 eax, DWORD PTR [edx+8]
  00015	89 41 08	 mov	 DWORD PTR [ecx+8], eax
  00018	8b 42 0c	 mov	 eax, DWORD PTR [edx+12]
  0001b	89 41 0c	 mov	 DWORD PTR [ecx+12], eax
  0001e	8b c1		 mov	 eax, ecx
  00020	5d		 pop	 ebp
  00021	c2 04 00	 ret	 4
??0i3ElementBase@@QAE@ABV0@@Z ENDP			; i3ElementBase::i3ElementBase
_TEXT	ENDS
; Function compile flags: /Ogtp
; File E:\Proyectos\JuegosOnlineproyectos\PB\pbblow\Piercing Blow Remake\i3Server\include\i3Base\i3ElementBase.h
;	COMDAT ?_internal_SetRefCount@i3ElementBase@@QAEXH@Z
_TEXT	SEGMENT
_cnt$ = 8						; size = 4
?_internal_SetRefCount@i3ElementBase@@QAEXH@Z PROC	; i3ElementBase::_internal_SetRefCount, COMDAT
; _this$ = ecx

; 401  : 	{

  00000	55		 push	 ebp
  00001	8b ec		 mov	 ebp, esp

; 402  : 		m_RefCount = cnt;

  00003	8b 45 08	 mov	 eax, DWORD PTR _cnt$[ebp]
  00006	89 41 04	 mov	 DWORD PTR [ecx+4], eax

; 403  : 	}

  00009	5d		 pop	 ebp
  0000a	c2 04 00	 ret	 4
?_internal_SetRefCount@i3ElementBase@@QAEXH@Z ENDP	; i3ElementBase::_internal_SetRefCount
_TEXT	ENDS
; Function compile flags: /Ogtp
; File E:\Proyectos\JuegosOnlineproyectos\PB\pbblow\Piercing Blow Remake\i3Server\include\i3Base\i3ElementBase.h
;	COMDAT ?AddRef@i3ElementBase@@QAEHXZ
_TEXT	SEGMENT
?AddRef@i3ElementBase@@QAEHXZ PROC			; i3ElementBase::AddRef, COMDAT
; _this$ = ecx

; 392  : 		m_RefCount++;

  00000	ff 41 04	 inc	 DWORD PTR [ecx+4]

; 393  : 
; 394  : 		return m_RefCount;

  00003	8b 41 04	 mov	 eax, DWORD PTR [ecx+4]

; 395  : 	}

  00006	c3		 ret	 0
?AddRef@i3ElementBase@@QAEHXZ ENDP			; i3ElementBase::AddRef
_TEXT	ENDS
; Function compile flags: /Ogtp
; File E:\Proyectos\JuegosOnlineproyectos\PB\pbblow\Piercing Blow Remake\i3Server\include\i3Base\i3ElementBase.h
;	COMDAT ?IsTypeOf@i3ElementBase@@QAE_NPAVi3ClassMeta@@@Z
_TEXT	SEGMENT
_pMeta$ = 8						; size = 4
?IsTypeOf@i3ElementBase@@QAE_NPAVi3ClassMeta@@@Z PROC	; i3ElementBase::IsTypeOf, COMDAT
; _this$ = ecx

; 356  : 	{

  00000	55		 push	 ebp
  00001	8b ec		 mov	 ebp, esp

; 357  : 		return GetMeta()->IsTypeOf( pMeta);

  00003	8b 01		 mov	 eax, DWORD PTR [ecx]
  00005	ff 75 08	 push	 DWORD PTR _pMeta$[ebp]
  00008	ff 10		 call	 DWORD PTR [eax]
  0000a	8b c8		 mov	 ecx, eax
  0000c	e8 00 00 00 00	 call	 ?IsTypeOf@i3ClassMeta@@QAE_NPAV1@@Z ; i3ClassMeta::IsTypeOf

; 358  : 	}

  00011	5d		 pop	 ebp
  00012	c2 04 00	 ret	 4
?IsTypeOf@i3ElementBase@@QAE_NPAVi3ClassMeta@@@Z ENDP	; i3ElementBase::IsTypeOf
_TEXT	ENDS
; Function compile flags: /Ogtp
; File E:\Proyectos\JuegosOnlineproyectos\PB\pbblow\Piercing Blow Remake\i3Server\include\i3Base\i3ElementBase.h
; File E:\Proyectos\JuegosOnlineproyectos\PB\pbblow\Piercing Blow Remake\i3Server\include\i3Base\i3ClassMeta.h
; File E:\Proyectos\JuegosOnlineproyectos\PB\pbblow\Piercing Blow Remake\i3Server\include\i3Base\i3ElementBase.h
;	COMDAT ?IsExactTypeOf@i3ElementBase@@QAE_NPAVi3ClassMeta@@@Z
_TEXT	SEGMENT
_pMeta$ = 8						; size = 4
?IsExactTypeOf@i3ElementBase@@QAE_NPAVi3ClassMeta@@@Z PROC ; i3ElementBase::IsExactTypeOf, COMDAT
; _this$ = ecx

; 351  : 	{

  00000	55		 push	 ebp
  00001	8b ec		 mov	 ebp, esp

; 352  : 		return GetMeta()->IsExactTypeOf( pMeta);

  00003	8b 01		 mov	 eax, DWORD PTR [ecx]
  00005	ff 10		 call	 DWORD PTR [eax]
; File E:\Proyectos\JuegosOnlineproyectos\PB\pbblow\Piercing Blow Remake\i3Server\include\i3Base\i3ClassMeta.h

; 90   : 		return pMeta == this;

  00007	39 45 08	 cmp	 DWORD PTR _pMeta$[ebp], eax
  0000a	0f 94 c0	 sete	 al
; File E:\Proyectos\JuegosOnlineproyectos\PB\pbblow\Piercing Blow Remake\i3Server\include\i3Base\i3ElementBase.h

; 353  : 	}

  0000d	5d		 pop	 ebp
  0000e	c2 04 00	 ret	 4
?IsExactTypeOf@i3ElementBase@@QAE_NPAVi3ClassMeta@@@Z ENDP ; i3ElementBase::IsExactTypeOf
_TEXT	ENDS
; Function compile flags: /Ogtp
; File E:\Proyectos\JuegosOnlineproyectos\PB\pbblow\Piercing Blow Remake\i3Server\include\i3Base\i3ElementBase.h
;	COMDAT ?__GetMemoryPool@i3ElementBase@@QAEPAVi3MemoryPool@@XZ
_TEXT	SEGMENT
?__GetMemoryPool@i3ElementBase@@QAEPAVi3MemoryPool@@XZ PROC ; i3ElementBase::__GetMemoryPool, COMDAT
; _this$ = ecx

; 348  : 	i3MemoryPool *	__GetMemoryPool(void)							{ return m_pPool; }

  00000	8b 41 0c	 mov	 eax, DWORD PTR [ecx+12]
  00003	c3		 ret	 0
?__GetMemoryPool@i3ElementBase@@QAEPAVi3MemoryPool@@XZ ENDP ; i3ElementBase::__GetMemoryPool
_TEXT	ENDS
; Function compile flags: /Ogtp
; File E:\Proyectos\JuegosOnlineproyectos\PB\pbblow\Piercing Blow Remake\i3Server\include\i3Base\i3ElementBase.h
;	COMDAT ?__SetMemoryPool@i3ElementBase@@QAEXPAVi3MemoryPool@@@Z
_TEXT	SEGMENT
_pPool$ = 8						; size = 4
?__SetMemoryPool@i3ElementBase@@QAEXPAVi3MemoryPool@@@Z PROC ; i3ElementBase::__SetMemoryPool, COMDAT
; _this$ = ecx

; 347  : 	void			__SetMemoryPool( i3MemoryPool * pPool)			{ m_pPool = pPool; }

  00000	55		 push	 ebp
  00001	8b ec		 mov	 ebp, esp
  00003	8b 45 08	 mov	 eax, DWORD PTR _pPool$[ebp]
  00006	89 41 0c	 mov	 DWORD PTR [ecx+12], eax
  00009	5d		 pop	 ebp
  0000a	c2 04 00	 ret	 4
?__SetMemoryPool@i3ElementBase@@QAEXPAVi3MemoryPool@@@Z ENDP ; i3ElementBase::__SetMemoryPool
_TEXT	ENDS
; Function compile flags: /Ogtp
; File E:\Proyectos\JuegosOnlineproyectos\PB\pbblow\Piercing Blow Remake\i3Server\include\i3Base\i3ElementBase.h
;	COMDAT ?GetRefCount@i3ElementBase@@QAEHXZ
_TEXT	SEGMENT
?GetRefCount@i3ElementBase@@QAEHXZ PROC			; i3ElementBase::GetRefCount, COMDAT
; _this$ = ecx

; 344  : 		return m_RefCount;

  00000	8b 41 04	 mov	 eax, DWORD PTR [ecx+4]

; 345  : 	}

  00003	c3		 ret	 0
?GetRefCount@i3ElementBase@@QAEHXZ ENDP			; i3ElementBase::GetRefCount
_TEXT	ENDS
; Function compile flags: /Ogtp
; File E:\Proyectos\JuegosOnlineproyectos\PB\pbblow\Piercing Blow Remake\i3Server\include\i3Base\i3ElementBase.h
;	COMDAT ?GetClassMeta@i3ElementBase@@SAPAVi3ClassMeta@@XZ
_TEXT	SEGMENT
?GetClassMeta@i3ElementBase@@SAPAVi3ClassMeta@@XZ PROC	; i3ElementBase::GetClassMeta, COMDAT

; 314  : 	I3_ABSTRACT_CLASS_DEFINE( i3ElementBase);

  00000	a1 00 00 00 00	 mov	 eax, DWORD PTR ?s_pClassMetai3ElementBase@i3ElementBase@@2PAVi3ClassMeta@@A ; i3ElementBase::s_pClassMetai3ElementBase
  00005	c3		 ret	 0
?GetClassMeta@i3ElementBase@@SAPAVi3ClassMeta@@XZ ENDP	; i3ElementBase::GetClassMeta
_TEXT	ENDS
; Function compile flags: /Ogtp
;	COMDAT ??_Ei3ClassMeta@@UAEPAXI@Z
_TEXT	SEGMENT
__$EHRec$ = -12						; size = 12
___flags$ = 8						; size = 4
??_Ei3ClassMeta@@UAEPAXI@Z PROC				; i3ClassMeta::`vector deleting destructor', COMDAT
; _this$ = ecx
  00000	55		 push	 ebp
  00001	8b ec		 mov	 ebp, esp
  00003	6a ff		 push	 -1
  00005	68 00 00 00 00	 push	 __ehhandler$??_Ei3ClassMeta@@UAEPAXI@Z
  0000a	64 a1 00 00 00
	00		 mov	 eax, DWORD PTR fs:0
  00010	50		 push	 eax
  00011	53		 push	 ebx
  00012	56		 push	 esi
  00013	57		 push	 edi
  00014	a1 00 00 00 00	 mov	 eax, DWORD PTR ___security_cookie
  00019	33 c5		 xor	 eax, ebp
  0001b	50		 push	 eax
  0001c	8d 45 f4	 lea	 eax, DWORD PTR __$EHRec$[ebp]
  0001f	64 a3 00 00 00
	00		 mov	 DWORD PTR fs:0, eax
  00025	8b f1		 mov	 esi, ecx
  00027	8b 45 08	 mov	 eax, DWORD PTR ___flags$[ebp]
  0002a	8b f8		 mov	 edi, eax
  0002c	83 e7 01	 and	 edi, 1
  0002f	a8 02		 test	 al, 2
  00031	74 49		 je	 SHORT $LN2@vector
  00033	68 00 00 00 00	 push	 OFFSET ??1i3ClassMeta@@UAE@XZ ; i3ClassMeta::~i3ClassMeta
  00038	ff 76 fc	 push	 DWORD PTR [esi-4]
  0003b	8d 5e fc	 lea	 ebx, DWORD PTR [esi-4]
  0003e	6a 38		 push	 56			; 00000038H
  00040	56		 push	 esi
  00041	e8 00 00 00 00	 call	 ??_M@YGXPAXIIP6EX0@Z@Z
  00046	85 ff		 test	 edi, edi
  00048	74 1c		 je	 SHORT $LN3@vector
  0004a	8b 0b		 mov	 ecx, DWORD PTR [ebx]
  0004c	8d 14 cd 00 00
	00 00		 lea	 edx, DWORD PTR [ecx*8]
  00053	2b d1		 sub	 edx, ecx
  00055	8d 0c d5 04 00
	00 00		 lea	 ecx, DWORD PTR [edx*8+4]
  0005c	51		 push	 ecx
  0005d	53		 push	 ebx
  0005e	e8 00 00 00 00	 call	 ??_V@YAXPAXI@Z		; operator delete[]
  00063	83 c4 08	 add	 esp, 8
$LN3@vector:
  00066	8b c3		 mov	 eax, ebx
  00068	8b 4d f4	 mov	 ecx, DWORD PTR __$EHRec$[ebp]
  0006b	64 89 0d 00 00
	00 00		 mov	 DWORD PTR fs:0, ecx
  00072	59		 pop	 ecx
  00073	5f		 pop	 edi
  00074	5e		 pop	 esi
  00075	5b		 pop	 ebx
  00076	8b e5		 mov	 esp, ebp
  00078	5d		 pop	 ebp
  00079	c2 04 00	 ret	 4
$LN2@vector:
  0007c	e8 00 00 00 00	 call	 ??1i3ClassMeta@@UAE@XZ	; i3ClassMeta::~i3ClassMeta
  00081	85 ff		 test	 edi, edi
  00083	74 0b		 je	 SHORT $LN4@vector
  00085	6a 38		 push	 56			; 00000038H
  00087	56		 push	 esi
  00088	e8 00 00 00 00	 call	 ??3@YAXPAXI@Z		; operator delete
  0008d	83 c4 08	 add	 esp, 8
$LN4@vector:
  00090	8b c6		 mov	 eax, esi
  00092	8b 4d f4	 mov	 ecx, DWORD PTR __$EHRec$[ebp]
  00095	64 89 0d 00 00
	00 00		 mov	 DWORD PTR fs:0, ecx
  0009c	59		 pop	 ecx
  0009d	5f		 pop	 edi
  0009e	5e		 pop	 esi
  0009f	5b		 pop	 ebx
  000a0	8b e5		 mov	 esp, ebp
  000a2	5d		 pop	 ebp
  000a3	c2 04 00	 ret	 4
  000a6	cc		 int	 3
  000a7	cc		 int	 3
  000a8	cc		 int	 3
  000a9	cc		 int	 3
  000aa	cc		 int	 3
_TEXT	ENDS
;	COMDAT text$x
text$x	SEGMENT
__ehhandler$??_Ei3ClassMeta@@UAEPAXI@Z:
  00000	90		 npad	 1
  00001	90		 npad	 1
  00002	8b 54 24 08	 mov	 edx, DWORD PTR [esp+8]
  00006	8d 42 0c	 lea	 eax, DWORD PTR [edx+12]
  00009	8b 4a f0	 mov	 ecx, DWORD PTR [edx-16]
  0000c	33 c8		 xor	 ecx, eax
  0000e	e8 00 00 00 00	 call	 @__security_check_cookie@4
  00013	b8 00 00 00 00	 mov	 eax, OFFSET __ehfuncinfo$??_Ei3ClassMeta@@UAEPAXI@Z
  00018	e9 00 00 00 00	 jmp	 ___CxxFrameHandler3
text$x	ENDS
??_Ei3ClassMeta@@UAEPAXI@Z ENDP				; i3ClassMeta::`vector deleting destructor'
; Function compile flags: /Ogtp
;	COMDAT ??_Gi3ClassMeta@@UAEPAXI@Z
_TEXT	SEGMENT
___flags$ = 8						; size = 4
??_Gi3ClassMeta@@UAEPAXI@Z PROC				; i3ClassMeta::`scalar deleting destructor', COMDAT
; _this$ = ecx
  00000	55		 push	 ebp
  00001	8b ec		 mov	 ebp, esp
  00003	56		 push	 esi
  00004	8b f1		 mov	 esi, ecx
  00006	e8 00 00 00 00	 call	 ??1i3ClassMeta@@UAE@XZ	; i3ClassMeta::~i3ClassMeta
  0000b	f6 45 08 01	 test	 BYTE PTR ___flags$[ebp], 1
  0000f	74 0b		 je	 SHORT $LN5@scalar
  00011	6a 38		 push	 56			; 00000038H
  00013	56		 push	 esi
  00014	e8 00 00 00 00	 call	 ??3@YAXPAXI@Z		; operator delete
  00019	83 c4 08	 add	 esp, 8
$LN5@scalar:
  0001c	8b c6		 mov	 eax, esi
  0001e	5e		 pop	 esi
  0001f	5d		 pop	 ebp
  00020	c2 04 00	 ret	 4
??_Gi3ClassMeta@@UAEPAXI@Z ENDP				; i3ClassMeta::`scalar deleting destructor'
_TEXT	ENDS
; Function compile flags: /Ogtp
;	COMDAT ??4i3ClassMeta@@QAEAAV0@ABV0@@Z
_TEXT	SEGMENT
___that$ = 8						; size = 4
??4i3ClassMeta@@QAEAAV0@ABV0@@Z PROC			; i3ClassMeta::operator=, COMDAT
; _this$ = ecx
  00000	55		 push	 ebp
  00001	8b ec		 mov	 ebp, esp
  00003	8b 55 08	 mov	 edx, DWORD PTR ___that$[ebp]
  00006	8b 42 04	 mov	 eax, DWORD PTR [edx+4]
  00009	89 41 04	 mov	 DWORD PTR [ecx+4], eax
  0000c	8b 42 08	 mov	 eax, DWORD PTR [edx+8]
  0000f	89 41 08	 mov	 DWORD PTR [ecx+8], eax
  00012	8b 42 0c	 mov	 eax, DWORD PTR [edx+12]
  00015	89 41 0c	 mov	 DWORD PTR [ecx+12], eax
  00018	8b 42 10	 mov	 eax, DWORD PTR [edx+16]
  0001b	89 41 10	 mov	 DWORD PTR [ecx+16], eax
  0001e	8b 42 14	 mov	 eax, DWORD PTR [edx+20]
  00021	89 41 14	 mov	 DWORD PTR [ecx+20], eax
  00024	8b 42 18	 mov	 eax, DWORD PTR [edx+24]
  00027	89 41 18	 mov	 DWORD PTR [ecx+24], eax
  0002a	8b 42 1c	 mov	 eax, DWORD PTR [edx+28]
  0002d	89 41 1c	 mov	 DWORD PTR [ecx+28], eax
  00030	8b 42 20	 mov	 eax, DWORD PTR [edx+32]
  00033	89 41 20	 mov	 DWORD PTR [ecx+32], eax
  00036	8b 42 24	 mov	 eax, DWORD PTR [edx+36]
  00039	89 41 24	 mov	 DWORD PTR [ecx+36], eax
  0003c	8b 42 28	 mov	 eax, DWORD PTR [edx+40]
  0003f	89 41 28	 mov	 DWORD PTR [ecx+40], eax
  00042	8b 42 2c	 mov	 eax, DWORD PTR [edx+44]
  00045	89 41 2c	 mov	 DWORD PTR [ecx+44], eax
  00048	8b 42 30	 mov	 eax, DWORD PTR [edx+48]
  0004b	89 41 30	 mov	 DWORD PTR [ecx+48], eax
  0004e	8b 42 34	 mov	 eax, DWORD PTR [edx+52]
  00051	89 41 34	 mov	 DWORD PTR [ecx+52], eax
  00054	8b c1		 mov	 eax, ecx
  00056	5d		 pop	 ebp
  00057	c2 04 00	 ret	 4
??4i3ClassMeta@@QAEAAV0@ABV0@@Z ENDP			; i3ClassMeta::operator=
_TEXT	ENDS
; Function compile flags: /Ogtp
;	COMDAT ??0i3ClassMeta@@QAE@ABV0@@Z
_TEXT	SEGMENT
___that$ = 8						; size = 4
??0i3ClassMeta@@QAE@ABV0@@Z PROC			; i3ClassMeta::i3ClassMeta, COMDAT
; _this$ = ecx
  00000	55		 push	 ebp
  00001	8b ec		 mov	 ebp, esp
  00003	8b 55 08	 mov	 edx, DWORD PTR ___that$[ebp]
  00006	c7 01 00 00 00
	00		 mov	 DWORD PTR [ecx], OFFSET ??_7i3ClassMeta@@6B@
  0000c	8b 42 04	 mov	 eax, DWORD PTR [edx+4]
  0000f	89 41 04	 mov	 DWORD PTR [ecx+4], eax
  00012	8b 42 08	 mov	 eax, DWORD PTR [edx+8]
  00015	89 41 08	 mov	 DWORD PTR [ecx+8], eax
  00018	8b 42 0c	 mov	 eax, DWORD PTR [edx+12]
  0001b	89 41 0c	 mov	 DWORD PTR [ecx+12], eax
  0001e	8b 42 10	 mov	 eax, DWORD PTR [edx+16]
  00021	89 41 10	 mov	 DWORD PTR [ecx+16], eax
  00024	8b 42 14	 mov	 eax, DWORD PTR [edx+20]
  00027	89 41 14	 mov	 DWORD PTR [ecx+20], eax
  0002a	8b 42 18	 mov	 eax, DWORD PTR [edx+24]
  0002d	89 41 18	 mov	 DWORD PTR [ecx+24], eax
  00030	8b 42 1c	 mov	 eax, DWORD PTR [edx+28]
  00033	89 41 1c	 mov	 DWORD PTR [ecx+28], eax
  00036	8b 42 20	 mov	 eax, DWORD PTR [edx+32]
  00039	89 41 20	 mov	 DWORD PTR [ecx+32], eax
  0003c	8b 42 24	 mov	 eax, DWORD PTR [edx+36]
  0003f	89 41 24	 mov	 DWORD PTR [ecx+36], eax
  00042	8b 42 28	 mov	 eax, DWORD PTR [edx+40]
  00045	89 41 28	 mov	 DWORD PTR [ecx+40], eax
  00048	8b 42 2c	 mov	 eax, DWORD PTR [edx+44]
  0004b	89 41 2c	 mov	 DWORD PTR [ecx+44], eax
  0004e	8b 42 30	 mov	 eax, DWORD PTR [edx+48]
  00051	89 41 30	 mov	 DWORD PTR [ecx+48], eax
  00054	8b 42 34	 mov	 eax, DWORD PTR [edx+52]
  00057	89 41 34	 mov	 DWORD PTR [ecx+52], eax
  0005a	8b c1		 mov	 eax, ecx
  0005c	5d		 pop	 ebp
  0005d	c2 04 00	 ret	 4
??0i3ClassMeta@@QAE@ABV0@@Z ENDP			; i3ClassMeta::i3ClassMeta
_TEXT	ENDS
; Function compile flags: /Ogtp
; File E:\Proyectos\JuegosOnlineproyectos\PB\pbblow\Piercing Blow Remake\i3Server\include\i3Base\i3ClassMeta.h
;	COMDAT ?getHashCode@i3ClassMeta@@QAEIXZ
_TEXT	SEGMENT
?getHashCode@i3ClassMeta@@QAEIXZ PROC			; i3ClassMeta::getHashCode, COMDAT
; _this$ = ecx

; 112  : 	UINT32			getHashCode(void)						{ return m_HashCode; }

  00000	8b 41 18	 mov	 eax, DWORD PTR [ecx+24]
  00003	c3		 ret	 0
?getHashCode@i3ClassMeta@@QAEIXZ ENDP			; i3ClassMeta::getHashCode
_TEXT	ENDS
; Function compile flags: /Ogtp
; File E:\Proyectos\JuegosOnlineproyectos\PB\pbblow\Piercing Blow Remake\i3Server\include\i3Base\i3ClassMeta.h
;	COMDAT ?GetBaseClassMeta@i3ClassMeta@@QAEPAV1@XZ
_TEXT	SEGMENT
?GetBaseClassMeta@i3ClassMeta@@QAEPAV1@XZ PROC		; i3ClassMeta::GetBaseClassMeta, COMDAT
; _this$ = ecx

; 107  : 	i3ClassMeta *	GetBaseClassMeta(void)					{ return m_pBaseClass; }

  00000	8b 41 1c	 mov	 eax, DWORD PTR [ecx+28]
  00003	c3		 ret	 0
?GetBaseClassMeta@i3ClassMeta@@QAEPAV1@XZ ENDP		; i3ClassMeta::GetBaseClassMeta
_TEXT	ENDS
; Function compile flags: /Ogtp
; File E:\Proyectos\JuegosOnlineproyectos\PB\pbblow\Piercing Blow Remake\i3Server\include\i3Base\i3ClassMeta.h
;	COMDAT ?IsConcreteClass@i3ClassMeta@@QAEHXZ
_TEXT	SEGMENT
?IsConcreteClass@i3ClassMeta@@QAEHXZ PROC		; i3ClassMeta::IsConcreteClass, COMDAT
; _this$ = ecx

; 102  : 	BOOL			IsStyle( UINT32 style)					{ return (m_Style & style) == style; }

  00000	8b 41 14	 mov	 eax, DWORD PTR [ecx+20]
  00003	d1 e8		 shr	 eax, 1
  00005	83 e0 01	 and	 eax, 1

; 105  : 	BOOL			IsConcreteClass(void)					{ return IsStyle( I3_CLASSMETA_STYLE_CONCRETE); }

  00008	c3		 ret	 0
?IsConcreteClass@i3ClassMeta@@QAEHXZ ENDP		; i3ClassMeta::IsConcreteClass
_TEXT	ENDS
; Function compile flags: /Ogtp
; File E:\Proyectos\JuegosOnlineproyectos\PB\pbblow\Piercing Blow Remake\i3Server\include\i3Base\i3ClassMeta.h
;	COMDAT ?IsAbstractClass@i3ClassMeta@@QAEHXZ
_TEXT	SEGMENT
?IsAbstractClass@i3ClassMeta@@QAEHXZ PROC		; i3ClassMeta::IsAbstractClass, COMDAT
; _this$ = ecx

; 102  : 	BOOL			IsStyle( UINT32 style)					{ return (m_Style & style) == style; }

  00000	8b 41 14	 mov	 eax, DWORD PTR [ecx+20]
  00003	83 e0 01	 and	 eax, 1

; 104  : 	BOOL			IsAbstractClass(void)					{ return IsStyle( I3_CLASSMETA_STYLE_ABSTRACT); }

  00006	c3		 ret	 0
?IsAbstractClass@i3ClassMeta@@QAEHXZ ENDP		; i3ClassMeta::IsAbstractClass
_TEXT	ENDS
; Function compile flags: /Ogtp
; File E:\Proyectos\JuegosOnlineproyectos\PB\pbblow\Piercing Blow Remake\i3Server\include\i3Base\i3ClassMeta.h
;	COMDAT ?IsStyle@i3ClassMeta@@QAEHI@Z
_TEXT	SEGMENT
_style$ = 8						; size = 4
?IsStyle@i3ClassMeta@@QAEHI@Z PROC			; i3ClassMeta::IsStyle, COMDAT
; _this$ = ecx

; 102  : 	BOOL			IsStyle( UINT32 style)					{ return (m_Style & style) == style; }

  00000	55		 push	 ebp
  00001	8b ec		 mov	 ebp, esp
  00003	8b 51 14	 mov	 edx, DWORD PTR [ecx+20]
  00006	33 c0		 xor	 eax, eax
  00008	23 55 08	 and	 edx, DWORD PTR _style$[ebp]
  0000b	3b 55 08	 cmp	 edx, DWORD PTR _style$[ebp]
  0000e	0f 94 c0	 sete	 al
  00011	5d		 pop	 ebp
  00012	c2 04 00	 ret	 4
?IsStyle@i3ClassMeta@@QAEHI@Z ENDP			; i3ClassMeta::IsStyle
_TEXT	ENDS
; Function compile flags: /Ogtp
; File E:\Proyectos\JuegosOnlineproyectos\PB\pbblow\Piercing Blow Remake\i3Server\include\i3Base\i3ClassMeta.h
;	COMDAT ?RemoveStyle@i3ClassMeta@@QAEXI@Z
_TEXT	SEGMENT
_style$ = 8						; size = 4
?RemoveStyle@i3ClassMeta@@QAEXI@Z PROC			; i3ClassMeta::RemoveStyle, COMDAT
; _this$ = ecx

; 101  : 	void			RemoveStyle( UINT32 style)				{ m_Style &= ~style; }

  00000	55		 push	 ebp
  00001	8b ec		 mov	 ebp, esp
  00003	8b 45 08	 mov	 eax, DWORD PTR _style$[ebp]
  00006	f7 d0		 not	 eax
  00008	21 41 14	 and	 DWORD PTR [ecx+20], eax
  0000b	5d		 pop	 ebp
  0000c	c2 04 00	 ret	 4
?RemoveStyle@i3ClassMeta@@QAEXI@Z ENDP			; i3ClassMeta::RemoveStyle
_TEXT	ENDS
; Function compile flags: /Ogtp
; File E:\Proyectos\JuegosOnlineproyectos\PB\pbblow\Piercing Blow Remake\i3Server\include\i3Base\i3ClassMeta.h
;	COMDAT ?AddStyle@i3ClassMeta@@QAEXI@Z
_TEXT	SEGMENT
_style$ = 8						; size = 4
?AddStyle@i3ClassMeta@@QAEXI@Z PROC			; i3ClassMeta::AddStyle, COMDAT
; _this$ = ecx

; 100  : 	void			AddStyle( UINT32 style)					{ m_Style |= style; }

  00000	55		 push	 ebp
  00001	8b ec		 mov	 ebp, esp
  00003	8b 45 08	 mov	 eax, DWORD PTR _style$[ebp]
  00006	09 41 14	 or	 DWORD PTR [ecx+20], eax
  00009	5d		 pop	 ebp
  0000a	c2 04 00	 ret	 4
?AddStyle@i3ClassMeta@@QAEXI@Z ENDP			; i3ClassMeta::AddStyle
_TEXT	ENDS
; Function compile flags: /Ogtp
; File E:\Proyectos\JuegosOnlineproyectos\PB\pbblow\Piercing Blow Remake\i3Server\include\i3Base\i3ClassMeta.h
;	COMDAT ?GetStyle@i3ClassMeta@@QAEIXZ
_TEXT	SEGMENT
?GetStyle@i3ClassMeta@@QAEIXZ PROC			; i3ClassMeta::GetStyle, COMDAT
; _this$ = ecx

; 99   : 	UINT32			GetStyle(void)							{ return m_Style; }

  00000	8b 41 14	 mov	 eax, DWORD PTR [ecx+20]
  00003	c3		 ret	 0
?GetStyle@i3ClassMeta@@QAEIXZ ENDP			; i3ClassMeta::GetStyle
_TEXT	ENDS
; Function compile flags: /Ogtp
; File E:\Proyectos\JuegosOnlineproyectos\PB\pbblow\Piercing Blow Remake\i3Server\include\i3Base\i3ClassMeta.h
;	COMDAT ?SetStyle@i3ClassMeta@@QAEXI@Z
_TEXT	SEGMENT
_style$ = 8						; size = 4
?SetStyle@i3ClassMeta@@QAEXI@Z PROC			; i3ClassMeta::SetStyle, COMDAT
; _this$ = ecx

; 98   : 	void			SetStyle( UINT32 style)					{ m_Style = style; }

  00000	55		 push	 ebp
  00001	8b ec		 mov	 ebp, esp
  00003	8b 45 08	 mov	 eax, DWORD PTR _style$[ebp]
  00006	89 41 14	 mov	 DWORD PTR [ecx+20], eax
  00009	5d		 pop	 ebp
  0000a	c2 04 00	 ret	 4
?SetStyle@i3ClassMeta@@QAEXI@Z ENDP			; i3ClassMeta::SetStyle
_TEXT	ENDS
; Function compile flags: /Ogtp
; File E:\Proyectos\JuegosOnlineproyectos\PB\pbblow\Piercing Blow Remake\i3Server\include\i3Base\i3ClassMeta.h
;	COMDAT ?IsExactTypeOf@i3ClassMeta@@QAE_NPAV1@@Z
_TEXT	SEGMENT
_pMeta$ = 8						; size = 4
?IsExactTypeOf@i3ClassMeta@@QAE_NPAV1@@Z PROC		; i3ClassMeta::IsExactTypeOf, COMDAT
; _this$ = ecx

; 89   : 	{

  00000	55		 push	 ebp
  00001	8b ec		 mov	 ebp, esp

; 90   : 		return pMeta == this;

  00003	39 4d 08	 cmp	 DWORD PTR _pMeta$[ebp], ecx
  00006	0f 94 c0	 sete	 al

; 91   : 	}

  00009	5d		 pop	 ebp
  0000a	c2 04 00	 ret	 4
?IsExactTypeOf@i3ClassMeta@@QAE_NPAV1@@Z ENDP		; i3ClassMeta::IsExactTypeOf
_TEXT	ENDS
; Function compile flags: /Ogtp
; File E:\Proyectos\JuegosOnlineproyectos\PB\pbblow\Piercing Blow Remake\i3Server\include\i3Base\i3ClassMeta.h
;	COMDAT ?GetClassNameA@i3ClassMeta@@QAEPADXZ
_TEXT	SEGMENT
?GetClassNameA@i3ClassMeta@@QAEPADXZ PROC		; i3ClassMeta::GetClassNameA, COMDAT
; _this$ = ecx

; 83   : 		return m_pszClassName;

  00000	8b 41 0c	 mov	 eax, DWORD PTR [ecx+12]

; 84   : 	}

  00003	c3		 ret	 0
?GetClassNameA@i3ClassMeta@@QAEPADXZ ENDP		; i3ClassMeta::GetClassNameA
_TEXT	ENDS
; Function compile flags: /Ogtp
; File E:\Proyectos\JuegosOnlineproyectos\PB\pbblow\Piercing Blow Remake\i3Server\include\i3Base\i3ClassMeta.h
;	COMDAT ?GetClassSize@i3ClassMeta@@QAEIXZ
_TEXT	SEGMENT
?GetClassSize@i3ClassMeta@@QAEIXZ PROC			; i3ClassMeta::GetClassSize, COMDAT
; _this$ = ecx

; 78   : 		return m_ClassSize;

  00000	8b 41 08	 mov	 eax, DWORD PTR [ecx+8]

; 79   : 	}

  00003	c3		 ret	 0
?GetClassSize@i3ClassMeta@@QAEIXZ ENDP			; i3ClassMeta::GetClassSize
_TEXT	ENDS
; Function compile flags: /Ogtp
; File E:\Proyectos\JuegosOnlineproyectos\PB\pbblow\Piercing Blow Remake\i3Server\include\i3Base\i3ClassMeta.h
;	COMDAT ?SetMemoryPool@i3ClassMeta@@QAEXPAVi3MemoryPool@@@Z
_TEXT	SEGMENT
_pPool$ = 8						; size = 4
?SetMemoryPool@i3ClassMeta@@QAEXPAVi3MemoryPool@@@Z PROC ; i3ClassMeta::SetMemoryPool, COMDAT
; _this$ = ecx

; 66   : 	void			SetMemoryPool( i3MemoryPool * pPool)		{ m_pPool = pPool; }

  00000	55		 push	 ebp
  00001	8b ec		 mov	 ebp, esp
  00003	8b 45 08	 mov	 eax, DWORD PTR _pPool$[ebp]
  00006	89 41 34	 mov	 DWORD PTR [ecx+52], eax
  00009	5d		 pop	 ebp
  0000a	c2 04 00	 ret	 4
?SetMemoryPool@i3ClassMeta@@QAEXPAVi3MemoryPool@@@Z ENDP ; i3ClassMeta::SetMemoryPool
_TEXT	ENDS
; Function compile flags: /Ogtp
; File E:\Proyectos\JuegosOnlineproyectos\PB\pbblow\Piercing Blow Remake\i3Server\include\i3Base\i3ClassMeta.h
;	COMDAT ?GetMemoryPool@i3ClassMeta@@QAEPAVi3MemoryPool@@XZ
_TEXT	SEGMENT
?GetMemoryPool@i3ClassMeta@@QAEPAVi3MemoryPool@@XZ PROC	; i3ClassMeta::GetMemoryPool, COMDAT
; _this$ = ecx

; 65   : 	i3MemoryPool *	GetMemoryPool(void)							{ return m_pPool; }

  00000	8b 41 34	 mov	 eax, DWORD PTR [ecx+52]
  00003	c3		 ret	 0
?GetMemoryPool@i3ClassMeta@@QAEPAVi3MemoryPool@@XZ ENDP	; i3ClassMeta::GetMemoryPool
_TEXT	ENDS
; Function compile flags: /Ogtp
; File E:\Proyectos\JuegosOnlineproyectos\PB\pbblow\Piercing Blow Remake\i3Server\src\i3Base\i3Thread.cpp
;	COMDAT ?__global_array_delete@@YAXPAXI@Z
_TEXT	SEGMENT
_p$ = 8							; size = 4
_sz$ = 12						; size = 4
?__global_array_delete@@YAXPAXI@Z PROC			; __global_array_delete, COMDAT

  00000	e9 00 00 00 00	 jmp	 ??_V@YAXPAXI@Z		; operator delete[]
?__global_array_delete@@YAXPAXI@Z ENDP			; __global_array_delete
_TEXT	ENDS
; Function compile flags: /Ogtp
; File E:\Proyectos\JuegosOnlineproyectos\PB\pbblow\Piercing Blow Remake\i3Server\src\i3Base\i3Thread.cpp
;	COMDAT ?__global_array_delete@@YAXPAX@Z
_TEXT	SEGMENT
_p$ = 8							; size = 4
?__global_array_delete@@YAXPAX@Z PROC			; __global_array_delete, COMDAT

  00000	e9 00 00 00 00	 jmp	 ??_V@YAXPAX@Z		; operator delete[]
?__global_array_delete@@YAXPAX@Z ENDP			; __global_array_delete
_TEXT	ENDS
; Function compile flags: /Ogtp
; File E:\Proyectos\JuegosOnlineproyectos\PB\pbblow\Piercing Blow Remake\i3Server\src\i3Base\i3Thread.cpp
;	COMDAT ?__global_delete@@YAXPAXI@Z
_TEXT	SEGMENT
_p$ = 8							; size = 4
_sz$ = 12						; size = 4
?__global_delete@@YAXPAXI@Z PROC			; __global_delete, COMDAT

  00000	e9 00 00 00 00	 jmp	 ??3@YAXPAXI@Z		; operator delete
?__global_delete@@YAXPAXI@Z ENDP			; __global_delete
_TEXT	ENDS
; Function compile flags: /Ogtp
; File E:\Proyectos\JuegosOnlineproyectos\PB\pbblow\Piercing Blow Remake\i3Server\src\i3Base\i3Thread.cpp
;	COMDAT ?__empty_global_delete@@YAXPAXI@Z
_TEXT	SEGMENT
___formal$ = 8						; size = 4
___formal$ = 12						; size = 4
?__empty_global_delete@@YAXPAXI@Z PROC			; __empty_global_delete, COMDAT

  00000	c2 00 00	 ret	 0
?__empty_global_delete@@YAXPAXI@Z ENDP			; __empty_global_delete
_TEXT	ENDS
; Function compile flags: /Ogtp
; File E:\Proyectos\JuegosOnlineproyectos\PB\pbblow\Piercing Blow Remake\i3Server\src\i3Base\i3Thread.cpp
;	COMDAT ?__global_delete@@YAXPAX@Z
_TEXT	SEGMENT
_p$ = 8							; size = 4
?__global_delete@@YAXPAX@Z PROC				; __global_delete, COMDAT

  00000	e9 00 00 00 00	 jmp	 ??3@YAXPAX@Z		; operator delete
?__global_delete@@YAXPAX@Z ENDP				; __global_delete
_TEXT	ENDS
; Function compile flags: /Ogtp
; File E:\Proyectos\JuegosOnlineproyectos\PB\pbblow\Piercing Blow Remake\i3Server\src\i3Base\i3Thread.cpp
;	COMDAT ?__empty_global_delete@@YAXPAX@Z
_TEXT	SEGMENT
___formal$ = 8						; size = 4
?__empty_global_delete@@YAXPAX@Z PROC			; __empty_global_delete, COMDAT

  00000	c2 00 00	 ret	 0
?__empty_global_delete@@YAXPAX@Z ENDP			; __empty_global_delete
_TEXT	ENDS
END
