; Listing generated by Microsoft (R) Optimizing Compiler Version 19.50.35727.0 

	TITLE	E:\Proyectos\JuegosOnlineproyectos\PB\pbblow\Piercing Blow Remake\i3Server\Project\I3_DX\i3Server\x86\Release\inst_memory_mgr.obj
	.686P
	.XMM
	include listing.inc
	.model	flat

INCLUDELIB LIBCMT
INCLUDELIB OLDNAMES

PUBLIC	__Avx2WmemEnabledWeakValue
;	COMDAT __Avx2WmemEnabledWeakValue
_BSS	SEGMENT
__Avx2WmemEnabledWeakValue DD 01H DUP (?)
_BSS	ENDS
PUBLIC	??0inst_memory_mgr@detail_inst@i3@@QAE@XZ	; i3::detail_inst::inst_memory_mgr::inst_memory_mgr
PUBLIC	??1inst_memory_mgr@detail_inst@i3@@QAE@XZ	; i3::detail_inst::inst_memory_mgr::~inst_memory_mgr
PUBLIC	??1?$hash_table@V?$HashTableNode_Unique@U?$pair@QBVtype_info@@Vshared_inst@detail_inst@i3@@@i3@@V?$heap_allocator@U?$pair@PBVtype_info@@Vshared_inst@detail_inst@i3@@@i3@@@2@@i3@@U?$hash@PBVtype_info@@@2@U?$equal_to@PBVtype_info@@@2@@i3@@QAE@XZ ; i3::hash_table<i3::HashTableNode_Unique<i3::pair<type_info const * const,i3::detail_inst::shared_inst>,i3::heap_allocator<i3::pair<type_info const *,i3::detail_inst::shared_inst> > >,i3::hash<type_info const *>,i3::equal_to<type_info const *> >::~hash_table<i3::HashTableNode_Unique<i3::pair<type_info const * const,i3::detail_inst::shared_inst>,i3::heap_allocator<i3::pair<type_info const *,i3::detail_inst::shared_inst> > >,i3::hash<type_info const *>,i3::equal_to<type_info const *> >
PUBLIC	?value@?$prime_list@I@detail@i3@@2QBIB		; i3::detail::prime_list<unsigned int>::value
PUBLIC	__real@41efffffffe00000
PUBLIC	__real@41f0000000000000
EXTRN	__imp__HeapAlloc@12:PROC
EXTRN	__imp__HeapFree@12:PROC
EXTRN	__imp__GetProcessHeap@0:PROC
EXTRN	__ftol2:PROC
EXTRN	_ceil:PROC
EXTRN	_memset:PROC
EXTRN	__fltused:DWORD
;	COMDAT __real@41f0000000000000
CONST	SEGMENT
__real@41f0000000000000 DQ 041f0000000000000r	; 4.29497e+09
CONST	ENDS
;	COMDAT __real@41efffffffe00000
CONST	SEGMENT
__real@41efffffffe00000 DQ 041efffffffe00000r	; 4.29497e+09
CONST	ENDS
;	COMDAT ?value@?$prime_list@I@detail@i3@@2QBIB
CONST	SEGMENT
?value@?$prime_list@I@detail@i3@@2QBIB DD 05H		; i3::detail::prime_list<unsigned int>::value
	DD	0bH
	DD	011H
	DD	01dH
	DD	025H
	DD	035H
	DD	04fH
	DD	083H
	DD	0101H
	DD	0209H
	DD	0407H
	DD	0607H
	DD	0805H
	DD	0c07H
	DD	01807H
	DD	03001H
	DD	06011H
	DD	0c005H
	DD	01800dH
	DD	030005H
	DD	060019H
	DD	0c0001H
	DD	0180005H
	DD	030000bH
	DD	060000dH
	DD	0c00005H
	DD	01800013H
	DD	03000005H
	DD	06000017H
	DD	0c000013H
	DD	018000005H
	DD	030000059H
	DD	060000005H
	DD	0c0000001H
	DD	0fffffffbH
CONST	ENDS
; Function compile flags: /Ogtp
; File E:\Proyectos\JuegosOnlineproyectos\PB\pbblow\Piercing Blow Remake\i3Server\include\i3Base\itl\detail\hash_table.h
; File E:\Proyectos\JuegosOnlineproyectos\PB\pbblow\Piercing Blow Remake\i3Server\include\i3Base\memory\memory_aligned_apply.h
; File E:\Proyectos\JuegosOnlineproyectos\PB\pbblow\Piercing Blow Remake\i3Server\include\i3Base\memory\memory_alloc.inl
; File E:\Proyectos\JuegosOnlineproyectos\PB\pbblow\Piercing Blow Remake\i3Server\include\i3Base\itl\detail\hash_table.h
; File E:\Proyectos\JuegosOnlineproyectos\PB\pbblow\Piercing Blow Remake\i3Server\include\i3Base\memory\memory_alloc.inl
; File E:\Proyectos\JuegosOnlineproyectos\PB\pbblow\Piercing Blow Remake\i3Server\include\i3Base\memory\memory_aligned_apply.h
; File E:\Proyectos\JuegosOnlineproyectos\PB\pbblow\Piercing Blow Remake\i3Server\include\i3Base\memory\memory_alloc.inl
; File E:\Proyectos\JuegosOnlineproyectos\PB\pbblow\Piercing Blow Remake\i3Server\include\i3Base\itl\detail\hash_table.h
;	COMDAT ??1?$hash_table@V?$HashTableNode_Unique@U?$pair@QBVtype_info@@Vshared_inst@detail_inst@i3@@@i3@@V?$heap_allocator@U?$pair@PBVtype_info@@Vshared_inst@detail_inst@i3@@@i3@@@2@@i3@@U?$hash@PBVtype_info@@@2@U?$equal_to@PBVtype_info@@@2@@i3@@QAE@XZ
_TEXT	SEGMENT
_end$1$ = -4						; size = 4
??1?$hash_table@V?$HashTableNode_Unique@U?$pair@QBVtype_info@@Vshared_inst@detail_inst@i3@@@i3@@V?$heap_allocator@U?$pair@PBVtype_info@@Vshared_inst@detail_inst@i3@@@i3@@@2@@i3@@U?$hash@PBVtype_info@@@2@U?$equal_to@PBVtype_info@@@2@@i3@@QAE@XZ PROC ; i3::hash_table<i3::HashTableNode_Unique<i3::pair<type_info const * const,i3::detail_inst::shared_inst>,i3::heap_allocator<i3::pair<type_info const *,i3::detail_inst::shared_inst> > >,i3::hash<type_info const *>,i3::equal_to<type_info const *> >::~hash_table<i3::HashTableNode_Unique<i3::pair<type_info const * const,i3::detail_inst::shared_inst>,i3::heap_allocator<i3::pair<type_info const *,i3::detail_inst::shared_inst> > >,i3::hash<type_info const *>,i3::equal_to<type_info const *> >, COMDAT
; _this$ = ecx

; 630  : 		{

  00000	55		 push	 ebp
  00001	8b ec		 mov	 ebp, esp
  00003	51		 push	 ecx
  00004	53		 push	 ebx
  00005	8b d9		 mov	 ebx, ecx

; 631  : 			if (buckets())

  00007	8b 4b 04	 mov	 ecx, DWORD PTR [ebx+4]
  0000a	85 c9		 test	 ecx, ecx
  0000c	74 5f		 je	 SHORT $LN23@hash_table

; 632  : 			{
; 633  : 				Bucket* end   = buckets() + static_cast<difference_type>( num_bucket() );

  0000e	8b 43 10	 mov	 eax, DWORD PTR [ebx+16]
  00011	57		 push	 edi
  00012	8b 7b 0c	 mov	 edi, DWORD PTR [ebx+12]
  00015	8d 04 81	 lea	 eax, DWORD PTR [ecx+eax*4]

; 634  : 				for ( Bucket* begin = bucket_begin() ; begin != end ; ++begin )

  00018	8b 0d 00 00 00
	00		 mov	 ecx, DWORD PTR __imp__HeapFree@12
  0001e	89 45 fc	 mov	 DWORD PTR _end$1$[ebp], eax
  00021	3b f8		 cmp	 edi, eax
  00023	74 33		 je	 SHORT $LN3@hash_table
  00025	56		 push	 esi
$LL4@hash_table:

; 1061 : 			Node* first_node = b->pHead;

  00026	8b 37		 mov	 esi, DWORD PTR [edi]

; 1062 : 			b->pHead = NULL;

  00028	c7 07 00 00 00
	00		 mov	 DWORD PTR [edi], 0

; 1050 : 			while (begin)

  0002e	85 f6		 test	 esi, esi
  00030	74 1e		 je	 SHORT $LN2@hash_table
$LL11@hash_table:

; 1051 : 			{
; 1052 : 				Node* pNode = begin;

  00032	8b c6		 mov	 eax, esi

; 1053 : 				begin = begin->pNext;

  00034	8b 76 0c	 mov	 esi, DWORD PTR [esi+12]
; File E:\Proyectos\JuegosOnlineproyectos\PB\pbblow\Piercing Blow Remake\i3Server\include\i3Base\memory\memory_aligned_apply.h

; 33   : 		ptr = ( ptr & ~( sizeof(void*) -1 ) ) - sizeof(void*);

  00037	83 e0 fc	 and	 eax, -4			; fffffffcH
; File E:\Proyectos\JuegosOnlineproyectos\PB\pbblow\Piercing Blow Remake\i3Server\include\i3Base\memory\memory_alloc.inl

; 109  : 		::HeapFree(HANDLE(h), 0, get_raw_data_from_aligned_malloc(data) );

  0003a	ff 70 fc	 push	 DWORD PTR [eax-4]
  0003d	6a 00		 push	 0
  0003f	ff 33		 push	 DWORD PTR [ebx]
  00041	ff d1		 call	 ecx
; File E:\Proyectos\JuegosOnlineproyectos\PB\pbblow\Piercing Blow Remake\i3Server\include\i3Base\itl\detail\hash_table.h

; 1050 : 			while (begin)

  00043	8b 0d 00 00 00
	00		 mov	 ecx, DWORD PTR __imp__HeapFree@12
  00049	85 f6		 test	 esi, esi
  0004b	75 e5		 jne	 SHORT $LL11@hash_table
  0004d	8b 45 fc	 mov	 eax, DWORD PTR _end$1$[ebp]
$LN2@hash_table:

; 634  : 				for ( Bucket* begin = bucket_begin() ; begin != end ; ++begin )

  00050	83 c7 04	 add	 edi, 4
  00053	3b f8		 cmp	 edi, eax
  00055	75 cf		 jne	 SHORT $LL4@hash_table
  00057	5e		 pop	 esi
$LN3@hash_table:

; 635  : 					clear_bucket(begin);
; 636  : 				
; 637  : 				bucket_alloc().deallocate( buckets() , num_bucket() + 1 );

  00058	8b 43 04	 mov	 eax, DWORD PTR [ebx+4]
  0005b	5f		 pop	 edi
; File E:\Proyectos\JuegosOnlineproyectos\PB\pbblow\Piercing Blow Remake\i3Server\include\i3Base\memory\memory_alloc.inl

; 108  : 		if (!data) return;

  0005c	85 c0		 test	 eax, eax
  0005e	74 0d		 je	 SHORT $LN23@hash_table
; File E:\Proyectos\JuegosOnlineproyectos\PB\pbblow\Piercing Blow Remake\i3Server\include\i3Base\memory\memory_aligned_apply.h

; 33   : 		ptr = ( ptr & ~( sizeof(void*) -1 ) ) - sizeof(void*);

  00060	83 e0 fc	 and	 eax, -4			; fffffffcH
; File E:\Proyectos\JuegosOnlineproyectos\PB\pbblow\Piercing Blow Remake\i3Server\include\i3Base\memory\memory_alloc.inl

; 109  : 		::HeapFree(HANDLE(h), 0, get_raw_data_from_aligned_malloc(data) );

  00063	ff 70 fc	 push	 DWORD PTR [eax-4]
  00066	6a 00		 push	 0
  00068	ff 73 08	 push	 DWORD PTR [ebx+8]
  0006b	ff d1		 call	 ecx
$LN23@hash_table:
  0006d	5b		 pop	 ebx
; File E:\Proyectos\JuegosOnlineproyectos\PB\pbblow\Piercing Blow Remake\i3Server\include\i3Base\itl\detail\hash_table.h

; 639  : 		}

  0006e	8b e5		 mov	 esp, ebp
  00070	5d		 pop	 ebp
  00071	c3		 ret	 0
??1?$hash_table@V?$HashTableNode_Unique@U?$pair@QBVtype_info@@Vshared_inst@detail_inst@i3@@@i3@@V?$heap_allocator@U?$pair@PBVtype_info@@Vshared_inst@detail_inst@i3@@@i3@@@2@@i3@@U?$hash@PBVtype_info@@@2@U?$equal_to@PBVtype_info@@@2@@i3@@QAE@XZ ENDP ; i3::hash_table<i3::HashTableNode_Unique<i3::pair<type_info const * const,i3::detail_inst::shared_inst>,i3::heap_allocator<i3::pair<type_info const *,i3::detail_inst::shared_inst> > >,i3::hash<type_info const *>,i3::equal_to<type_info const *> >::~hash_table<i3::HashTableNode_Unique<i3::pair<type_info const * const,i3::detail_inst::shared_inst>,i3::heap_allocator<i3::pair<type_info const *,i3::detail_inst::shared_inst> > >,i3::hash<type_info const *>,i3::equal_to<type_info const *> >
_TEXT	ENDS
; Function compile flags: /Ogtp
; File E:\Proyectos\JuegosOnlineproyectos\PB\pbblow\Piercing Blow Remake\i3Server\src\i3Base\inst\detail\inst_memory_mgr.cpp
;	COMDAT ??1inst_memory_mgr@detail_inst@i3@@QAE@XZ
_TEXT	SEGMENT
??1inst_memory_mgr@detail_inst@i3@@QAE@XZ PROC		; i3::detail_inst::inst_memory_mgr::~inst_memory_mgr, COMDAT
; _this$ = ecx

; 20   : 		{

  00000	e9 00 00 00 00	 jmp	 ??1?$hash_table@V?$HashTableNode_Unique@U?$pair@QBVtype_info@@Vshared_inst@detail_inst@i3@@@i3@@V?$heap_allocator@U?$pair@PBVtype_info@@Vshared_inst@detail_inst@i3@@@i3@@@2@@i3@@U?$hash@PBVtype_info@@@2@U?$equal_to@PBVtype_info@@@2@@i3@@QAE@XZ ; i3::hash_table<i3::HashTableNode_Unique<i3::pair<type_info const * const,i3::detail_inst::shared_inst>,i3::heap_allocator<i3::pair<type_info const *,i3::detail_inst::shared_inst> > >,i3::hash<type_info const *>,i3::equal_to<type_info const *> >::~hash_table<i3::HashTableNode_Unique<i3::pair<type_info const * const,i3::detail_inst::shared_inst>,i3::heap_allocator<i3::pair<type_info const *,i3::detail_inst::shared_inst> > >,i3::hash<type_info const *>,i3::equal_to<type_info const *> >
??1inst_memory_mgr@detail_inst@i3@@QAE@XZ ENDP		; i3::detail_inst::inst_memory_mgr::~inst_memory_mgr
_TEXT	ENDS
; Function compile flags: /Ogtp
; File E:\Proyectos\JuegosOnlineproyectos\PB\pbblow\Piercing Blow Remake\i3Server\src\i3Base\inst\detail\inst_memory_mgr.cpp
; File E:\Proyectos\JuegosOnlineproyectos\PB\pbblow\Piercing Blow Remake\i3Server\include\i3Base\memory\memory_alloc.inl
; File E:\Proyectos\JuegosOnlineproyectos\PB\pbblow\Piercing Blow Remake\i3Server\include\i3Base\itl\detail\hash_table.h
; File E:\Proyectos\JuegosOnlineproyectos\PB\pbblow\Piercing Blow Remake\i3Server\include\i3Base\itl\iterator.h
; File E:\Proyectos\JuegosOnlineproyectos\PB\pbblow\Piercing Blow Remake\i3Server\include\i3Base\itl\detail\algorithm_impl.h
; File E:\Proyectos\JuegosOnlineproyectos\PB\pbblow\Piercing Blow Remake\i3Server\include\i3Base\itl\iterator.h
; File E:\Proyectos\JuegosOnlineproyectos\PB\pbblow\Piercing Blow Remake\i3Server\include\i3Base\itl\detail\algorithm_impl.h
; File E:\Proyectos\JuegosOnlineproyectos\PB\pbblow\Piercing Blow Remake\i3Server\include\i3Base\itl\detail\hash_table.h
; File E:\Proyectos\JuegosOnlineproyectos\PB\pbblow\Piercing Blow Remake\i3Server\include\i3Base\memory\heap_allocator.h
; File E:\Proyectos\JuegosOnlineproyectos\PB\pbblow\Piercing Blow Remake\i3Server\include\i3Base\itl\compressed_pair.h
; File E:\Proyectos\JuegosOnlineproyectos\PB\pbblow\Piercing Blow Remake\i3Server\include\i3Base\memory\memory_aligned_apply.h
; File E:\Proyectos\JuegosOnlineproyectos\PB\pbblow\Piercing Blow Remake\i3Server\include\i3Base\itl\compressed_pair.h
; File E:\Proyectos\JuegosOnlineproyectos\PB\pbblow\Piercing Blow Remake\i3Server\include\i3Base\memory\memory_alloc.inl
; File E:\Proyectos\JuegosOnlineproyectos\PB\pbblow\Piercing Blow Remake\i3Server\include\i3Base\itl\detail\hash_table.h
; File E:\Proyectos\JuegosOnlineproyectos\PB\pbblow\Piercing Blow Remake\i3Server\include\i3Base\memory\memory_alloc.inl
; File E:\Proyectos\JuegosOnlineproyectos\PB\pbblow\Piercing Blow Remake\i3Server\include\i3Base\itl\detail\hash_table.h
; File E:\Proyectos\JuegosOnlineproyectos\PB\pbblow\Piercing Blow Remake\i3Server\include\i3Base\memory\memory_aligned_apply.h
; File E:\Proyectos\JuegosOnlineproyectos\PB\pbblow\Piercing Blow Remake\i3Server\include\i3Base\itl\detail\hash_table.h
; File E:\Proyectos\JuegosOnlineproyectos\PB\pbblow\Piercing Blow Remake\i3Server\include\i3Base\memory\memory_aligned_apply.h
; File E:\Proyectos\JuegosOnlineproyectos\PB\pbblow\Piercing Blow Remake\i3Server\include\i3Base\itl\detail\hash_table.h
; File E:\Proyectos\JuegosOnlineproyectos\PB\pbblow\Piercing Blow Remake\i3Server\src\i3Base\inst\detail\inst_memory_mgr.cpp
; File E:\Proyectos\JuegosOnlineproyectos\PB\pbblow\Piercing Blow Remake\i3Server\include\i3Base\itl\detail\hash_table.h
; File E:\Proyectos\JuegosOnlineproyectos\PB\pbblow\Piercing Blow Remake\i3Server\src\i3Base\inst\detail\inst_memory_mgr.cpp
; File E:\Proyectos\JuegosOnlineproyectos\PB\pbblow\Piercing Blow Remake\i3Server\include\i3Base\itl\detail\hash_table.h
; File E:\Proyectos\JuegosOnlineproyectos\PB\pbblow\Piercing Blow Remake\i3Server\src\i3Base\inst\detail\inst_memory_mgr.cpp
;	COMDAT ??0inst_memory_mgr@detail_inst@i3@@QAE@XZ
_TEXT	SEGMENT
tv524 = -8						; size = 8
_this$ = -4						; size = 4
tv525 = -4						; size = 4
??0inst_memory_mgr@detail_inst@i3@@QAE@XZ PROC		; i3::detail_inst::inst_memory_mgr::inst_memory_mgr, COMDAT
; _this$ = ecx

; 15   : 		{

  00000	55		 push	 ebp
  00001	8b ec		 mov	 ebp, esp
  00003	83 ec 08	 sub	 esp, 8
  00006	53		 push	 ebx
  00007	56		 push	 esi
  00008	57		 push	 edi
  00009	8b f9		 mov	 edi, ecx
  0000b	89 7d fc	 mov	 DWORD PTR _this$[ebp], edi
; File E:\Proyectos\JuegosOnlineproyectos\PB\pbblow\Piercing Blow Remake\i3Server\include\i3Base\memory\memory_alloc.inl

; 61   : 		return heap_handle(::GetProcessHeap());

  0000e	ff 15 00 00 00
	00		 call	 DWORD PTR __imp__GetProcessHeap@0
  00014	8b d8		 mov	 ebx, eax
; File E:\Proyectos\JuegosOnlineproyectos\PB\pbblow\Piercing Blow Remake\i3Server\include\i3Base\itl\detail\hash_table.h

; 72   : 			const std::size_t* bound = i3::lower_bound(begin, end, n);

  00016	be 00 00 00 00	 mov	 esi, OFFSET ?value@?$prime_list@I@detail@i3@@2QBIB ; i3::detail::prime_list<unsigned int>::value
; File E:\Proyectos\JuegosOnlineproyectos\PB\pbblow\Piercing Blow Remake\i3Server\include\i3Base\itl\iterator.h

; 269  : 				static void Do( Diff& dist, Iterator first, Iterator last) { dist += last - first;	}

  0001b	ba 23 00 00 00	 mov	 edx, 35			; 00000023H
$LL18@inst_memor:
; File E:\Proyectos\JuegosOnlineproyectos\PB\pbblow\Piercing Blow Remake\i3Server\include\i3Base\itl\detail\algorithm_impl.h

; 810  : 			difference_type Count2 = Count / 2;

  00020	8b ca		 mov	 ecx, edx
  00022	d1 e9		 shr	 ecx, 1

; 814  : 			if ( *Mid < Val )

  00024	83 3c 8e 40	 cmp	 DWORD PTR [esi+ecx*4], 64 ; 00000040H
; File E:\Proyectos\JuegosOnlineproyectos\PB\pbblow\Piercing Blow Remake\i3Server\include\i3Base\itl\iterator.h

; 239  : 				static void Do( Iterator& where, Diff diff) {	where += diff; }

  00028	8d 04 8e	 lea	 eax, DWORD PTR [esi+ecx*4]
; File E:\Proyectos\JuegosOnlineproyectos\PB\pbblow\Piercing Blow Remake\i3Server\include\i3Base\itl\detail\algorithm_impl.h

; 814  : 			if ( *Mid < Val )

  0002b	73 0c		 jae	 SHORT $LN19@inst_memor

; 815  : 				First = ++Mid, Count -= Count2 + 1;

  0002d	8d 70 04	 lea	 esi, DWORD PTR [eax+4]
  00030	83 c8 ff	 or	 eax, -1
  00033	2b c1		 sub	 eax, ecx
  00035	03 d0		 add	 edx, eax
  00037	eb 02		 jmp	 SHORT $LN16@inst_memor
$LN19@inst_memor:

; 816  : 			else
; 817  : 				Count = Count2;

  00039	8b d1		 mov	 edx, ecx
$LN16@inst_memor:

; 808  : 		for (; 0 < Count; )

  0003b	85 d2		 test	 edx, edx
  0003d	7f e1		 jg	 SHORT $LL18@inst_memor
; File E:\Proyectos\JuegosOnlineproyectos\PB\pbblow\Piercing Blow Remake\i3Server\include\i3Base\itl\detail\hash_table.h

; 98   : 		return detail::next_prime(n);

  0003f	81 fe 8c 00 00
	00		 cmp	 esi, OFFSET ?value@?$prime_list@I@detail@i3@@2QBIB+140
  00045	b8 88 00 00 00	 mov	 eax, OFFSET ?value@?$prime_list@I@detail@i3@@2QBIB+136
  0004a	0f 45 c6	 cmovne	 eax, esi
  0004d	8b 30		 mov	 esi, DWORD PTR [eax]
; File E:\Proyectos\JuegosOnlineproyectos\PB\pbblow\Piercing Blow Remake\i3Server\include\i3Base\memory\heap_allocator.h

; 22   : 		heap_allocator(const heap_allocator<T>& rhs) : m_heap(rhs.m_heap) {}

  0004f	89 1f		 mov	 DWORD PTR [edi], ebx
  00051	89 5f 08	 mov	 DWORD PTR [edi+8], ebx
; File E:\Proyectos\JuegosOnlineproyectos\PB\pbblow\Piercing Blow Remake\i3Server\include\i3Base\itl\compressed_pair.h

; 63   : 			my_type(first_param_type f, second_param_type s) : first_type(f), m_second(s) {}

  00054	89 77 10	 mov	 DWORD PTR [edi+16], esi
; File E:\Proyectos\JuegosOnlineproyectos\PB\pbblow\Piercing Blow Remake\i3Server\include\i3Base\memory\memory_aligned_apply.h

; 19   : 	size_t	calculate_aligned_malloc_size(size_t size, size_t adjusted_align) { return sizeof(void*) + size + adjusted_align;  }

  00057	8d 04 b5 0c 00
	00 00		 lea	 eax, DWORD PTR [esi*4+12]
; File E:\Proyectos\JuegosOnlineproyectos\PB\pbblow\Piercing Blow Remake\i3Server\include\i3Base\itl\compressed_pair.h

; 63   : 			my_type(first_param_type f, second_param_type s) : first_type(f), m_second(s) {}

  0005e	c7 47 14 00 00
	00 00		 mov	 DWORD PTR [edi+20], 0
; File E:\Proyectos\JuegosOnlineproyectos\PB\pbblow\Piercing Blow Remake\i3Server\include\i3Base\memory\memory_alloc.inl

; 101  : 		void* data = ::HeapAlloc(HANDLE(h), 0, calculate_aligned_malloc_size(size, align) );

  00065	50		 push	 eax
  00066	6a 00		 push	 0
  00068	53		 push	 ebx
; File E:\Proyectos\JuegosOnlineproyectos\PB\pbblow\Piercing Blow Remake\i3Server\include\i3Base\itl\detail\hash_table.h

; 574  : 				m_equal_function_and_num_size(eq, 0), m_max_load_factor(1.f)

  00069	c7 47 18 00 00
	80 3f		 mov	 DWORD PTR [edi+24], 1065353216 ; 3f800000H
; File E:\Proyectos\JuegosOnlineproyectos\PB\pbblow\Piercing Blow Remake\i3Server\include\i3Base\memory\memory_alloc.inl

; 101  : 		void* data = ::HeapAlloc(HANDLE(h), 0, calculate_aligned_malloc_size(size, align) );

  00070	ff 15 00 00 00
	00		 call	 DWORD PTR __imp__HeapAlloc@12
; File E:\Proyectos\JuegosOnlineproyectos\PB\pbblow\Piercing Blow Remake\i3Server\include\i3Base\itl\detail\hash_table.h

; 931  : 			pNewBucket_Begin = pNewBuckets + numBucket_New;	

  00076	8d 0c b5 00 00
	00 00		 lea	 ecx, DWORD PTR [esi*4]

; 932  : 			memset( pNewBuckets, 0 ,sizeof(Bucket) * numBucket_New  );

  0007d	51		 push	 ecx
  0007e	6a 00		 push	 0
; File E:\Proyectos\JuegosOnlineproyectos\PB\pbblow\Piercing Blow Remake\i3Server\include\i3Base\memory\memory_aligned_apply.h

; 24   : 		uintptr_t result = ( uintptr_t(raw_data) + sizeof(void*) + adjusted_align - 1 ) & ~(adjusted_align - 1);

  00080	8d 50 07	 lea	 edx, DWORD PTR [eax+7]
  00083	83 e2 fc	 and	 edx, -4			; fffffffcH
; File E:\Proyectos\JuegosOnlineproyectos\PB\pbblow\Piercing Blow Remake\i3Server\include\i3Base\itl\detail\hash_table.h

; 932  : 			memset( pNewBuckets, 0 ,sizeof(Bucket) * numBucket_New  );

  00086	52		 push	 edx
; File E:\Proyectos\JuegosOnlineproyectos\PB\pbblow\Piercing Blow Remake\i3Server\include\i3Base\memory\memory_aligned_apply.h

; 25   : 		((uintptr_t*)result)[-1] = (uintptr_t)raw_data;

  00087	89 42 fc	 mov	 DWORD PTR [edx-4], eax
; File E:\Proyectos\JuegosOnlineproyectos\PB\pbblow\Piercing Blow Remake\i3Server\include\i3Base\itl\detail\hash_table.h

; 931  : 			pNewBucket_Begin = pNewBuckets + numBucket_New;	

  0008a	8d 04 11	 lea	 eax, DWORD PTR [ecx+edx]
  0008d	89 57 04	 mov	 DWORD PTR [edi+4], edx
  00090	89 47 0c	 mov	 DWORD PTR [edi+12], eax

; 932  : 			memset( pNewBuckets, 0 ,sizeof(Bucket) * numBucket_New  );

  00093	e8 00 00 00 00	 call	 _memset

; 933  : 
; 934  : 			pNewBucket_Begin->pHead = reinterpret_cast<Node*>(pNewBucket_Begin);

  00098	8b 47 0c	 mov	 eax, DWORD PTR [edi+12]
  0009b	89 00		 mov	 DWORD PTR [eax], eax

; 898  : 			m_max_load = detail::double_to_size_t(ceil( (double) m_max_load_factor * (double) num_bucket() ) )  ;

  0009d	d9 47 18	 fld	 DWORD PTR [edi+24]
  000a0	8b 47 10	 mov	 eax, DWORD PTR [edi+16]
  000a3	db 47 10	 fild	 DWORD PTR [edi+16]
  000a6	85 c0		 test	 eax, eax
  000a8	79 06		 jns	 SHORT $LN90@inst_memor
  000aa	dc 05 00 00 00
	00		 fadd	 QWORD PTR __real@41f0000000000000
$LN90@inst_memor:
  000b0	dd 5d f8	 fstp	 QWORD PTR tv524[ebp]
  000b3	dc 4d f8	 fmul	 QWORD PTR tv524[ebp]
  000b6	83 c4 04	 add	 esp, 4
  000b9	dd 1c 24	 fstp	 QWORD PTR [esp]
  000bc	e8 00 00 00 00	 call	 _ceil

; 90   : 			return f >= static_cast<double>((std::numeric_limits<std::size_t>::max)()) 

  000c1	dd 05 00 00 00
	00		 fld	 QWORD PTR __real@41efffffffe00000

; 898  : 			m_max_load = detail::double_to_size_t(ceil( (double) m_max_load_factor * (double) num_bucket() ) )  ;

  000c7	83 c4 08	 add	 esp, 8

; 90   : 			return f >= static_cast<double>((std::numeric_limits<std::size_t>::max)()) 

  000ca	d9 c9		 fxch	 ST(1)
  000cc	db f1		 fcomi	 ST(1)
  000ce	dd d9		 fstp	 ST(1)
  000d0	72 12		 jb	 SHORT $LN78@inst_memor

; 898  : 			m_max_load = detail::double_to_size_t(ceil( (double) m_max_load_factor * (double) num_bucket() ) )  ;

  000d2	c7 47 1c ff ff
	ff ff		 mov	 DWORD PTR [edi+28], -1
; File E:\Proyectos\JuegosOnlineproyectos\PB\pbblow\Piercing Blow Remake\i3Server\src\i3Base\inst\detail\inst_memory_mgr.cpp

; 17   : 		}

  000d9	8b c7		 mov	 eax, edi
  000db	5f		 pop	 edi
  000dc	5e		 pop	 esi
; File E:\Proyectos\JuegosOnlineproyectos\PB\pbblow\Piercing Blow Remake\i3Server\include\i3Base\itl\detail\hash_table.h

; 90   : 			return f >= static_cast<double>((std::numeric_limits<std::size_t>::max)()) 

  000dd	dd d8		 fstp	 ST(0)
; File E:\Proyectos\JuegosOnlineproyectos\PB\pbblow\Piercing Blow Remake\i3Server\src\i3Base\inst\detail\inst_memory_mgr.cpp

; 17   : 		}

  000df	5b		 pop	 ebx
  000e0	8b e5		 mov	 esp, ebp
  000e2	5d		 pop	 ebp
  000e3	c3		 ret	 0
$LN78@inst_memor:
; File E:\Proyectos\JuegosOnlineproyectos\PB\pbblow\Piercing Blow Remake\i3Server\include\i3Base\itl\detail\hash_table.h

; 90   : 			return f >= static_cast<double>((std::numeric_limits<std::size_t>::max)()) 

  000e4	e8 00 00 00 00	 call	 __ftol2

; 898  : 			m_max_load = detail::double_to_size_t(ceil( (double) m_max_load_factor * (double) num_bucket() ) )  ;

  000e9	89 47 1c	 mov	 DWORD PTR [edi+28], eax
; File E:\Proyectos\JuegosOnlineproyectos\PB\pbblow\Piercing Blow Remake\i3Server\src\i3Base\inst\detail\inst_memory_mgr.cpp

; 17   : 		}

  000ec	8b c7		 mov	 eax, edi
  000ee	5f		 pop	 edi
  000ef	5e		 pop	 esi
  000f0	5b		 pop	 ebx
  000f1	8b e5		 mov	 esp, ebp
  000f3	5d		 pop	 ebp
  000f4	c3		 ret	 0
??0inst_memory_mgr@detail_inst@i3@@QAE@XZ ENDP		; i3::detail_inst::inst_memory_mgr::inst_memory_mgr
_TEXT	ENDS
END
