; Listing generated by Microsoft (R) Optimizing Compiler Version 19.50.35727.0 

	TITLE	E:\Proyectos\JuegosOnlineproyectos\PB\pbblow\Piercing Blow Remake\i3Server\Project\I3_DX\i3Server\x86\Release\large_object_cache.obj
	.686P
	.XMM
	include listing.inc
	.model	flat

INCLUDELIB LIBCMT
INCLUDELIB OLDNAMES

PUBLIC	__Avx2WmemEnabledWeakValue
;	COMDAT __Avx2WmemEnabledWeakValue
_BSS	SEGMENT
__Avx2WmemEnabledWeakValue DD 01H DUP (?)
_BSS	ENDS
PUBLIC	??_H@YGXPAXIIP6EPAX0@Z@Z			; `vector constructor iterator'
PUBLIC	??0large_object_cache_base@i3@@IAE@XZ		; i3::large_object_cache_base::large_object_cache_base
PUBLIC	??1large_object_cache_base@i3@@IAE@XZ		; i3::large_object_cache_base::~large_object_cache_base
PUBLIC	?allocate_from_malloc@large_object_cache_base@i3@@IAEPAXII@Z ; i3::large_object_cache_base::allocate_from_malloc
PUBLIC	?cleanup_stack@large_object_cache_base@i3@@IAEXAAVmem_stack_lock_free@2@@Z ; i3::large_object_cache_base::cleanup_stack
PUBLIC	??0mem_stack_lock_free@i3@@QAE@XZ		; i3::mem_stack_lock_free::mem_stack_lock_free
PUBLIC	?pop@mem_stack_lock_free@i3@@QAEPAXXZ		; i3::mem_stack_lock_free::pop
PUBLIC	??0static_large_object_cache@i3@@QAE@XZ		; i3::static_large_object_cache::static_large_object_cache
PUBLIC	??1static_large_object_cache@i3@@QAE@XZ		; i3::static_large_object_cache::~static_large_object_cache
PUBLIC	?allocate@static_large_object_cache@i3@@QAEPAXI@Z ; i3::static_large_object_cache::allocate
PUBLIC	?deallocate@static_large_object_cache@i3@@QAEXPAX@Z ; i3::static_large_object_cache::deallocate
PUBLIC	?cleanup_if_old@static_large_object_cache@i3@@AAEXJ@Z ; i3::static_large_object_cache::cleanup_if_old
PUBLIC	??0counter_cleanup@static_large_object_cache@i3@@QAE@XZ ; i3::static_large_object_cache::counter_cleanup::counter_cleanup
EXTRN	__imp__HeapCreate@12:PROC
EXTRN	__imp__HeapDestroy@4:PROC
EXTRN	__imp__HeapAlloc@12:PROC
EXTRN	__imp__HeapFree@12:PROC
;	COMDAT voltbl
voltbl	SEGMENT
_volmd	DB	00H
	DB	08H
voltbl	ENDS
;	COMDAT voltbl
voltbl	SEGMENT
_volmd	DB	01dH
	DB	032H
	DB	03dH
voltbl	ENDS
;	COMDAT voltbl
voltbl	SEGMENT
_volmd	DB	01bH
	DB	030H
voltbl	ENDS
;	COMDAT voltbl
voltbl	SEGMENT
_volmd	DB	063H
	DB	071H
	DB	084H
	DB	093H
	DB	096H
voltbl	ENDS
;	COMDAT voltbl
voltbl	SEGMENT
_volmd	DB	028H
	DB	02aH
	DB	065H
	DB	067H
voltbl	ENDS
;	COMDAT voltbl
voltbl	SEGMENT
_volmd	DB	020H
	DB	029H
	DB	040H
	DB	049H
	DB	055H
	DB	05dH
voltbl	ENDS
;	COMDAT voltbl
voltbl	SEGMENT
_volmd	DB	00H
voltbl	ENDS
;	COMDAT voltbl
voltbl	SEGMENT
_volmd	DB	0bH
	DB	0dH
	DB	04aH
	DB	04cH
voltbl	ENDS
;	COMDAT voltbl
voltbl	SEGMENT
_volmd	DB	0dH
	DB	020H
voltbl	ENDS
;	COMDAT voltbl
voltbl	SEGMENT
_volmd	DB	00H
	DB	08H
voltbl	ENDS
;	COMDAT voltbl
voltbl	SEGMENT
_volmd	DB	013H
	DB	015H
	DB	053H
	DB	055H
voltbl	ENDS
; Function compile flags: /Ogtp
; File E:\Proyectos\JuegosOnlineproyectos\PB\pbblow\Piercing Blow Remake\i3Server\include\i3Base\pool\static_large_object_cache.h
;	COMDAT ??0counter_cleanup@static_large_object_cache@i3@@QAE@XZ
_TEXT	SEGMENT
??0counter_cleanup@static_large_object_cache@i3@@QAE@XZ PROC ; i3::static_large_object_cache::counter_cleanup::counter_cleanup, COMDAT
; _this$ = ecx

; 32   : 			counter_cleanup() : last_clean_counter(0), threshold(0) {}

  00000	c7 01 00 00 00
	00		 mov	 DWORD PTR [ecx], 0
  00006	8b c1		 mov	 eax, ecx
  00008	c7 41 04 00 00
	00 00		 mov	 DWORD PTR [ecx+4], 0
  0000f	c3		 ret	 0
??0counter_cleanup@static_large_object_cache@i3@@QAE@XZ ENDP ; i3::static_large_object_cache::counter_cleanup::counter_cleanup
_TEXT	ENDS
; Function compile flags: /Ogtp
; File E:\Proyectos\JuegosOnlineproyectos\PB\pbblow\Piercing Blow Remake\i3Server\src\i3Base\pool\large_object_cache.cpp
; File E:\Proyectos\JuegosOnlineproyectos\PB\pbblow\Piercing Blow Remake\i3Server\include\i3Base\pool\mem_stack_lock_free.inl
; File E:\Proyectos\JuegosOnlineproyectos\PB\pbblow\Piercing Blow Remake\i3Server\src\i3Base\pool\large_object_cache.cpp
;	COMDAT ?cleanup_if_old@static_large_object_cache@i3@@AAEXJ@Z
_TEXT	SEGMENT
_curr_counter$ = 8					; size = 4
?cleanup_if_old@static_large_object_cache@i3@@AAEXJ@Z PROC ; i3::static_large_object_cache::cleanup_if_old, COMDAT
; _this$ = ecx

; 52   : 	{

  00000	55		 push	 ebp
  00001	8b ec		 mov	 ebp, esp

; 53   : 		long idx = ::InterlockedIncrement(&m_index_counter_for_cleanup) - 1;	// ŔĚÂĘŔ¸·Î µéľîżŔ´Â ŔÎµ¦˝ş¸¦ Ľ­·Î »óŔĚÇĎ°Ô..¸¸µë..

  00003	b8 01 00 00 00	 mov	 eax, 1
  00008	f0 0f c1 81 44
	40 00 00	 lock	  xadd	 DWORD PTR [ecx+16452], eax
  00010	40		 inc	 eax
  00011	48		 dec	 eax

; 54   : 		idx %= num_large_object_bucket;

  00012	83 e0 7f	 and	 eax, 127		; 0000007fH

; 55   : 
; 56   : 		mem_stack_lock_free& stack = m_stack_array[idx];

  00015	8d 50 01	 lea	 edx, DWORD PTR [eax+1]
  00018	c1 e2 06	 shl	 edx, 6
  0001b	03 d1		 add	 edx, ecx
; File E:\Proyectos\JuegosOnlineproyectos\PB\pbblow\Piercing Blow Remake\i3Server\include\i3Base\pool\mem_stack_lock_free.inl

; 20   : 		return !m_head;

  0001d	83 3a 00	 cmp	 DWORD PTR [edx], 0
; File E:\Proyectos\JuegosOnlineproyectos\PB\pbblow\Piercing Blow Remake\i3Server\src\i3Base\pool\large_object_cache.cpp

; 58   : 		if ( !stack.empty() )

  00020	74 1f		 je	 SHORT $LN3@cleanup_if

; 59   : 		{
; 60   : 			counter_cleanup& cleanup = m_cleanup_array[idx];						// ľĆ¸¶µµ ´Ů¸Ą °ŞŔĎ°ÍŔÓ...(°°Ŕş °ŞŔĚ¶óµµ »ó°üľř´Ů)

  00022	56		 push	 esi
  00023	8d b0 81 00 00
	00		 lea	 esi, DWORD PTR [eax+129]
  00029	c1 e6 06	 shl	 esi, 6
  0002c	03 f1		 add	 esi, ecx
  0002e	57		 push	 edi

; 61   : 
; 62   : 			if (curr_counter > cleanup.threshold )

  0002f	8b 7d 08	 mov	 edi, DWORD PTR _curr_counter$[ebp]
  00032	3b 7e 04	 cmp	 edi, DWORD PTR [esi+4]
  00035	7e 08		 jle	 SHORT $LN9@cleanup_if

; 63   : 			{
; 64   : 				// »čÁ¦Ăł¸®...
; 65   : 				large_object_cache_base::cleanup_stack(stack);

  00037	52		 push	 edx
  00038	e8 00 00 00 00	 call	 ?cleanup_stack@large_object_cache_base@i3@@IAEXAAVmem_stack_lock_free@2@@Z ; i3::large_object_cache_base::cleanup_stack

; 66   : 				cleanup.last_clean_counter = curr_counter;

  0003d	89 3e		 mov	 DWORD PTR [esi], edi
$LN9@cleanup_if:
  0003f	5f		 pop	 edi
  00040	5e		 pop	 esi
$LN3@cleanup_if:

; 67   : 			}
; 68   : 		}
; 69   : 	}

  00041	5d		 pop	 ebp
  00042	c2 04 00	 ret	 4
?cleanup_if_old@static_large_object_cache@i3@@AAEXJ@Z ENDP ; i3::static_large_object_cache::cleanup_if_old
_TEXT	ENDS
; Function compile flags: /Ogtp
; File E:\Proyectos\JuegosOnlineproyectos\PB\pbblow\Piercing Blow Remake\i3Server\src\i3Base\pool\large_object_cache.cpp
; File C:\Program Files (x86)\Windows Kits\10\Include\10.0.26100.0\um\winnt.h
; File E:\Proyectos\JuegosOnlineproyectos\PB\pbblow\Piercing Blow Remake\i3Server\include\i3Base\pool\mem_stack_lock_free.inl
; File C:\Program Files (x86)\Windows Kits\10\Include\10.0.26100.0\um\winnt.h
; File E:\Proyectos\JuegosOnlineproyectos\PB\pbblow\Piercing Blow Remake\i3Server\include\i3Base\pool\mem_stack_lock_free.inl
; File C:\Program Files (x86)\Windows Kits\10\Include\10.0.26100.0\um\winnt.h
; File E:\Proyectos\JuegosOnlineproyectos\PB\pbblow\Piercing Blow Remake\i3Server\include\i3Base\pool\cas.h
; File E:\Proyectos\JuegosOnlineproyectos\PB\pbblow\Piercing Blow Remake\i3Server\include\i3Base\pool\mem_stack_lock_free.inl
; File C:\Program Files (x86)\Windows Kits\10\Include\10.0.26100.0\um\winnt.h
; File E:\Proyectos\JuegosOnlineproyectos\PB\pbblow\Piercing Blow Remake\i3Server\include\i3Base\pool\mem_stack_lock_free.inl
; File C:\Program Files (x86)\Windows Kits\10\Include\10.0.26100.0\um\winnt.h
; File E:\Proyectos\JuegosOnlineproyectos\PB\pbblow\Piercing Blow Remake\i3Server\include\i3Base\pool\cas.h
; File E:\Proyectos\JuegosOnlineproyectos\PB\pbblow\Piercing Blow Remake\i3Server\include\i3Base\pool\mem_stack_lock_free.inl
; File E:\Proyectos\JuegosOnlineproyectos\PB\pbblow\Piercing Blow Remake\i3Server\src\i3Base\pool\large_object_cache.cpp
; File E:\Proyectos\JuegosOnlineproyectos\PB\pbblow\Piercing Blow Remake\i3Server\include\i3Base\memory\memory_alloc.inl
; File E:\Proyectos\JuegosOnlineproyectos\PB\pbblow\Piercing Blow Remake\i3Server\src\i3Base\pool\large_object_cache.cpp
;	COMDAT ?deallocate@static_large_object_cache@i3@@QAEXPAX@Z
_TEXT	SEGMENT
_data$ = 8						; size = 4
?deallocate@static_large_object_cache@i3@@QAEXPAX@Z PROC ; i3::static_large_object_cache::deallocate, COMDAT
; _this$ = ecx

; 96   : 	{

  00000	55		 push	 ebp
  00001	8b ec		 mov	 ebp, esp
  00003	56		 push	 esi

; 97   : 		large_object_header* header = reinterpret_cast<large_object_header*>( uintptr_t(data) - sizeof(large_object_header) );

  00004	8b 75 08	 mov	 esi, DWORD PTR _data$[ebp]
  00007	57		 push	 edi

; 98   : 		size_t size_index = header->size_index;

  00008	8b 7e fc	 mov	 edi, DWORD PTR [esi-4]

; 99   : 
; 100  : 		if ( size_index < num_large_object_bucket )

  0000b	81 ff 80 00 00
	00		 cmp	 edi, 128		; 00000080H
  00011	73 33		 jae	 SHORT $LN2@deallocate

; 101  : 			m_stack_array[size_index].push(data);

  00013	47		 inc	 edi
  00014	c1 e7 06	 shl	 edi, 6
  00017	03 f9		 add	 edi, ecx
; File C:\Program Files (x86)\Windows Kits\10\Include\10.0.26100.0\um\winnt.h

; 7801 :     return (PVOID)InterlockedCompareExchange((LONG volatile *) Destination,

  00019	8b ce		 mov	 ecx, esi
; File E:\Proyectos\JuegosOnlineproyectos\PB\pbblow\Piercing Blow Remake\i3Server\include\i3Base\pool\mem_stack_lock_free.inl

; 10   : 			obj->next = m_head;

  0001b	8b 17		 mov	 edx, DWORD PTR [edi]
; File C:\Program Files (x86)\Windows Kits\10\Include\10.0.26100.0\um\winnt.h

; 7801 :     return (PVOID)InterlockedCompareExchange((LONG volatile *) Destination,

  0001d	8b c2		 mov	 eax, edx
; File E:\Proyectos\JuegosOnlineproyectos\PB\pbblow\Piercing Blow Remake\i3Server\include\i3Base\pool\mem_stack_lock_free.inl

; 10   : 			obj->next = m_head;

  0001f	89 16		 mov	 DWORD PTR [esi], edx
; File C:\Program Files (x86)\Windows Kits\10\Include\10.0.26100.0\um\winnt.h

; 7801 :     return (PVOID)InterlockedCompareExchange((LONG volatile *) Destination,

  00021	f0 0f b1 0f	 lock cmpxchg DWORD PTR [edi], ecx
; File E:\Proyectos\JuegosOnlineproyectos\PB\pbblow\Piercing Blow Remake\i3Server\include\i3Base\pool\cas.h

; 15   : 		return InterlockedCompareExchangePointer( ppData, pNewData, pOldData) == pOldData;

  00025	3b c2		 cmp	 eax, edx
; File E:\Proyectos\JuegosOnlineproyectos\PB\pbblow\Piercing Blow Remake\i3Server\include\i3Base\pool\mem_stack_lock_free.inl

; 12   : 			if (i3::cas((void* volatile*)&m_head, obj->next, obj) )		// 

  00027	74 2f		 je	 SHORT $LN17@deallocate
  00029	8d a4 24 00 00
	00 00		 npad	 7
$LL8@deallocate:

; 10   : 			obj->next = m_head;

  00030	8b 17		 mov	 edx, DWORD PTR [edi]
; File C:\Program Files (x86)\Windows Kits\10\Include\10.0.26100.0\um\winnt.h

; 7801 :     return (PVOID)InterlockedCompareExchange((LONG volatile *) Destination,

  00032	8b ce		 mov	 ecx, esi
; File E:\Proyectos\JuegosOnlineproyectos\PB\pbblow\Piercing Blow Remake\i3Server\include\i3Base\pool\mem_stack_lock_free.inl

; 10   : 			obj->next = m_head;

  00034	89 16		 mov	 DWORD PTR [esi], edx
; File C:\Program Files (x86)\Windows Kits\10\Include\10.0.26100.0\um\winnt.h

; 7801 :     return (PVOID)InterlockedCompareExchange((LONG volatile *) Destination,

  00036	8b c2		 mov	 eax, edx
  00038	f0 0f b1 0f	 lock cmpxchg DWORD PTR [edi], ecx
; File E:\Proyectos\JuegosOnlineproyectos\PB\pbblow\Piercing Blow Remake\i3Server\include\i3Base\pool\cas.h

; 15   : 		return InterlockedCompareExchangePointer( ppData, pNewData, pOldData) == pOldData;

  0003c	3b c2		 cmp	 eax, edx
; File E:\Proyectos\JuegosOnlineproyectos\PB\pbblow\Piercing Blow Remake\i3Server\include\i3Base\pool\mem_stack_lock_free.inl

; 12   : 			if (i3::cas((void* volatile*)&m_head, obj->next, obj) )		// 

  0003e	75 f0		 jne	 SHORT $LL8@deallocate
; File E:\Proyectos\JuegosOnlineproyectos\PB\pbblow\Piercing Blow Remake\i3Server\src\i3Base\pool\large_object_cache.cpp

; 104  : 	}

  00040	5f		 pop	 edi
  00041	5e		 pop	 esi
  00042	5d		 pop	 ebp
  00043	c2 04 00	 ret	 4
$LN2@deallocate:

; 102  : 		else
; 103  : 			private_free( header->raw_data );

  00046	8b 46 f8	 mov	 eax, DWORD PTR [esi-8]
; File E:\Proyectos\JuegosOnlineproyectos\PB\pbblow\Piercing Blow Remake\i3Server\include\i3Base\memory\memory_alloc.inl

; 93   : 		if (!data) return;

  00049	85 c0		 test	 eax, eax
  0004b	74 0b		 je	 SHORT $LN17@deallocate

; 94   : 		::HeapFree(HANDLE(h), 0, data);		// łÎ°Ë»çÁ¤ŔÇ°ˇ ľř´Ů..

  0004d	50		 push	 eax
  0004e	6a 00		 push	 0
  00050	ff 31		 push	 DWORD PTR [ecx]
  00052	ff 15 00 00 00
	00		 call	 DWORD PTR __imp__HeapFree@12
$LN17@deallocate:
  00058	5f		 pop	 edi
; File E:\Proyectos\JuegosOnlineproyectos\PB\pbblow\Piercing Blow Remake\i3Server\src\i3Base\pool\large_object_cache.cpp

; 104  : 	}

  00059	5e		 pop	 esi
  0005a	5d		 pop	 ebp
  0005b	c2 04 00	 ret	 4
?deallocate@static_large_object_cache@i3@@QAEXPAX@Z ENDP ; i3::static_large_object_cache::deallocate
_TEXT	ENDS
; Function compile flags: /Ogtp
; File E:\Proyectos\JuegosOnlineproyectos\PB\pbblow\Piercing Blow Remake\i3Server\src\i3Base\pool\large_object_cache.cpp
; File E:\Proyectos\JuegosOnlineproyectos\PB\pbblow\Piercing Blow Remake\i3Server\include\i3Base\pool\align_up_down.h
; File E:\Proyectos\JuegosOnlineproyectos\PB\pbblow\Piercing Blow Remake\i3Server\src\i3Base\pool\large_object_cache.cpp
; File E:\Proyectos\JuegosOnlineproyectos\PB\pbblow\Piercing Blow Remake\i3Server\include\i3Base\pool\align_up_down.h
; File E:\Proyectos\JuegosOnlineproyectos\PB\pbblow\Piercing Blow Remake\i3Server\src\i3Base\pool\large_object_cache.cpp
; File E:\Proyectos\JuegosOnlineproyectos\PB\pbblow\Piercing Blow Remake\i3Server\include\i3Base\pool\mem_stack_lock_free.inl
; File E:\Proyectos\JuegosOnlineproyectos\PB\pbblow\Piercing Blow Remake\i3Server\src\i3Base\pool\large_object_cache.cpp
; File E:\Proyectos\JuegosOnlineproyectos\PB\pbblow\Piercing Blow Remake\i3Server\include\i3Base\memory\memory_alloc.inl
; File E:\Proyectos\JuegosOnlineproyectos\PB\pbblow\Piercing Blow Remake\i3Server\include\i3Base\pool\align_up_down.h
; File E:\Proyectos\JuegosOnlineproyectos\PB\pbblow\Piercing Blow Remake\i3Server\src\i3Base\pool\large_object_cache.cpp
;	COMDAT ?allocate@static_large_object_cache@i3@@QAEPAXI@Z
_TEXT	SEGMENT
_actual_size$1$ = -4					; size = 4
_size$ = 8						; size = 4
_curr_counter$1$ = 8					; size = 4
?allocate@static_large_object_cache@i3@@QAEPAXI@Z PROC	; i3::static_large_object_cache::allocate, COMDAT
; _this$ = ecx

; 72   : 	{

  00000	55		 push	 ebp
  00001	8b ec		 mov	 ebp, esp
  00003	51		 push	 ecx
; File E:\Proyectos\JuegosOnlineproyectos\PB\pbblow\Piercing Blow Remake\i3Server\include\i3Base\pool\align_up_down.h

; 22   : 	T		align_up(T value, uintptr_t align) { return T( ( uintptr_t(value) + align - 1 ) & ~(align - 1) ); }

  00004	8b 45 08	 mov	 eax, DWORD PTR _size$[ebp]
  00007	05 ff 1f 00 00	 add	 eax, 8191		; 00001fffH
  0000c	25 00 e0 ff ff	 and	 eax, -8192		; ffffe000H
; File E:\Proyectos\JuegosOnlineproyectos\PB\pbblow\Piercing Blow Remake\i3Server\src\i3Base\pool\large_object_cache.cpp

; 72   : 	{

  00011	53		 push	 ebx
  00012	56		 push	 esi
  00013	57		 push	 edi

; 74   : 		size_t size_index = (actual_size - 1 ) >> bucket_step_large_object_shift;	// łŞ¸ÓÁö°ˇ ľřŔ˝..

  00014	8d 58 ff	 lea	 ebx, DWORD PTR [eax-1]
; File E:\Proyectos\JuegosOnlineproyectos\PB\pbblow\Piercing Blow Remake\i3Server\include\i3Base\pool\align_up_down.h

; 22   : 	T		align_up(T value, uintptr_t align) { return T( ( uintptr_t(value) + align - 1 ) & ~(align - 1) ); }

  00017	89 45 fc	 mov	 DWORD PTR _actual_size$1$[ebp], eax
; File E:\Proyectos\JuegosOnlineproyectos\PB\pbblow\Piercing Blow Remake\i3Server\src\i3Base\pool\large_object_cache.cpp

; 74   : 		size_t size_index = (actual_size - 1 ) >> bucket_step_large_object_shift;	// łŞ¸ÓÁö°ˇ ľřŔ˝..

  0001a	c1 eb 0d	 shr	 ebx, 13			; 0000000dH
  0001d	8b f9		 mov	 edi, ecx

; 75   : 
; 76   : 		void*  result = NULL;
; 77   : 
; 78   : 		if ( size_index < num_large_object_bucket )

  0001f	81 fb 80 00 00
	00		 cmp	 ebx, 128		; 00000080H
  00025	73 76		 jae	 SHORT $LN2@allocate

; 79   : 		{
; 80   : 			long curr_counter = ::InterlockedIncrement(&m_clean_counter);

  00027	be 01 00 00 00	 mov	 esi, 1
  0002c	8b c6		 mov	 eax, esi
  0002e	f0 0f c1 87 40
	40 00 00	 lock	  xadd	 DWORD PTR [edi+16448], eax
  00036	40		 inc	 eax

; 81   : 
; 82   : 			if ( (result = m_stack_array[size_index].pop() ) != NULL )

  00037	8d 4b 01	 lea	 ecx, DWORD PTR [ebx+1]
  0003a	89 45 08	 mov	 DWORD PTR _curr_counter$1$[ebp], eax
  0003d	c1 e1 06	 shl	 ecx, 6
  00040	03 cf		 add	 ecx, edi
  00042	e8 00 00 00 00	 call	 ?pop@mem_stack_lock_free@i3@@QAEPAXXZ ; i3::mem_stack_lock_free::pop
  00047	85 c0		 test	 eax, eax
  00049	75 76		 jne	 SHORT $LN1@allocate

; 53   : 		long idx = ::InterlockedIncrement(&m_index_counter_for_cleanup) - 1;	// ŔĚÂĘŔ¸·Î µéľîżŔ´Â ŔÎµ¦˝ş¸¦ Ľ­·Î »óŔĚÇĎ°Ô..¸¸µë..

  0004b	f0 0f c1 b7 44
	40 00 00	 lock	  xadd	 DWORD PTR [edi+16452], esi
  00053	46		 inc	 esi

; 58   : 		if ( !stack.empty() )

  00054	8b 55 08	 mov	 edx, DWORD PTR _curr_counter$1$[ebp]
  00057	4e		 dec	 esi
  00058	83 e6 7f	 and	 esi, 127		; 0000007fH
  0005b	8d 46 01	 lea	 eax, DWORD PTR [esi+1]
  0005e	c1 e0 06	 shl	 eax, 6
  00061	03 c7		 add	 eax, edi
; File E:\Proyectos\JuegosOnlineproyectos\PB\pbblow\Piercing Blow Remake\i3Server\include\i3Base\pool\mem_stack_lock_free.inl

; 20   : 		return !m_head;

  00063	83 38 00	 cmp	 DWORD PTR [eax], 0
; File E:\Proyectos\JuegosOnlineproyectos\PB\pbblow\Piercing Blow Remake\i3Server\src\i3Base\pool\large_object_cache.cpp

; 58   : 		if ( !stack.empty() )

  00066	74 1f		 je	 SHORT $LN9@allocate

; 59   : 		{
; 60   : 			counter_cleanup& cleanup = m_cleanup_array[idx];						// ľĆ¸¶µµ ´Ů¸Ą °ŞŔĎ°ÍŔÓ...(°°Ŕş °ŞŔĚ¶óµµ »ó°üľř´Ů)

  00068	81 c6 81 00 00
	00		 add	 esi, 129		; 00000081H
  0006e	c1 e6 06	 shl	 esi, 6

; 61   : 
; 62   : 			if (curr_counter > cleanup.threshold )

  00071	3b 54 3e 04	 cmp	 edx, DWORD PTR [esi+edi+4]
  00075	7e 10		 jle	 SHORT $LN9@allocate

; 63   : 			{
; 64   : 				// »čÁ¦Ăł¸®...
; 65   : 				large_object_cache_base::cleanup_stack(stack);

  00077	50		 push	 eax
  00078	8b cf		 mov	 ecx, edi
  0007a	e8 00 00 00 00	 call	 ?cleanup_stack@large_object_cache_base@i3@@IAEXAAVmem_stack_lock_free@2@@Z ; i3::large_object_cache_base::cleanup_stack

; 66   : 				cleanup.last_clean_counter = curr_counter;

  0007f	8b 4d 08	 mov	 ecx, DWORD PTR _curr_counter$1$[ebp]
  00082	8b d1		 mov	 edx, ecx
  00084	89 0c 3e	 mov	 DWORD PTR [esi+edi], ecx
$LN9@allocate:

; 83   : 				return result;
; 84   : 
; 85   : 			cleanup_if_old(curr_counter);
; 86   : 			/// threshold°»˝Ĺ...
; 87   : 			counter_cleanup& cleanup = m_cleanup_array[size_index];

  00087	8d 8b 81 00 00
	00		 lea	 ecx, DWORD PTR [ebx+129]
  0008d	c1 e1 06	 shl	 ecx, 6

; 88   : 			cleanup.threshold = curr_counter * 2 - cleanup.last_clean_counter ;

  00090	8d 04 12	 lea	 eax, DWORD PTR [edx+edx]
  00093	2b 04 39	 sub	 eax, DWORD PTR [ecx+edi]
  00096	89 44 39 04	 mov	 DWORD PTR [ecx+edi+4], eax
  0009a	8b 45 fc	 mov	 eax, DWORD PTR _actual_size$1$[ebp]
$LN2@allocate:

; 89   : 		}
; 90   : 
; 91   : 		size_t alloc_size  = actual_size + sizeof(large_object_header) + align_large_object;

  0009d	05 08 40 00 00	 add	 eax, 16392		; 00004008H
; File E:\Proyectos\JuegosOnlineproyectos\PB\pbblow\Piercing Blow Remake\i3Server\include\i3Base\memory\memory_alloc.inl

; 87   : 		return ::HeapAlloc(HANDLE(h), 0, size);

  000a2	50		 push	 eax
  000a3	6a 00		 push	 0
  000a5	ff 37		 push	 DWORD PTR [edi]
  000a7	ff 15 00 00 00
	00		 call	 DWORD PTR __imp__HeapAlloc@12
; File E:\Proyectos\JuegosOnlineproyectos\PB\pbblow\Piercing Blow Remake\i3Server\include\i3Base\pool\align_up_down.h

; 22   : 	T		align_up(T value, uintptr_t align) { return T( ( uintptr_t(value) + align - 1 ) & ~(align - 1) ); }

  000ad	8d 88 07 40 00
	00		 lea	 ecx, DWORD PTR [eax+16391]
  000b3	81 e1 00 c0 ff
	ff		 and	 ecx, -16384		; ffffc000H
; File E:\Proyectos\JuegosOnlineproyectos\PB\pbblow\Piercing Blow Remake\i3Server\src\i3Base\pool\large_object_cache.cpp

; 23   : 		header->raw_data = raw_data;

  000b9	89 41 f8	 mov	 DWORD PTR [ecx-8], eax

; 92   : 		return allocate_from_malloc(alloc_size, size_index);

  000bc	8b c1		 mov	 eax, ecx

; 24   : 		header->size_index = size_index;

  000be	89 59 fc	 mov	 DWORD PTR [ecx-4], ebx
$LN1@allocate:
  000c1	5f		 pop	 edi

; 93   : 	}

  000c2	5e		 pop	 esi
  000c3	5b		 pop	 ebx
  000c4	8b e5		 mov	 esp, ebp
  000c6	5d		 pop	 ebp
  000c7	c2 04 00	 ret	 4
?allocate@static_large_object_cache@i3@@QAEPAXI@Z ENDP	; i3::static_large_object_cache::allocate
_TEXT	ENDS
; Function compile flags: /Ogtp
; File E:\Proyectos\JuegosOnlineproyectos\PB\pbblow\Piercing Blow Remake\i3Server\src\i3Base\pool\large_object_cache.cpp
; File E:\Proyectos\JuegosOnlineproyectos\PB\pbblow\Piercing Blow Remake\i3Server\include\i3Base\pool\mem_stack_lock_free.inl
; File E:\Proyectos\JuegosOnlineproyectos\PB\pbblow\Piercing Blow Remake\i3Server\include\i3Base\pool\cas.h
; File E:\Proyectos\JuegosOnlineproyectos\PB\pbblow\Piercing Blow Remake\i3Server\include\i3Base\pool\mem_stack_lock_free.inl
; File E:\Proyectos\JuegosOnlineproyectos\PB\pbblow\Piercing Blow Remake\i3Server\include\i3Base\pool\cas.h
; File E:\Proyectos\JuegosOnlineproyectos\PB\pbblow\Piercing Blow Remake\i3Server\include\i3Base\pool\mem_stack_lock_free.inl
; File E:\Proyectos\JuegosOnlineproyectos\PB\pbblow\Piercing Blow Remake\i3Server\src\i3Base\pool\large_object_cache.cpp
; File E:\Proyectos\JuegosOnlineproyectos\PB\pbblow\Piercing Blow Remake\i3Server\include\i3Base\memory\memory_alloc.inl
; File E:\Proyectos\JuegosOnlineproyectos\PB\pbblow\Piercing Blow Remake\i3Server\src\i3Base\pool\large_object_cache.cpp
; File E:\Proyectos\JuegosOnlineproyectos\PB\pbblow\Piercing Blow Remake\i3Server\include\i3Base\memory\memory_alloc.inl
; File E:\Proyectos\JuegosOnlineproyectos\PB\pbblow\Piercing Blow Remake\i3Server\src\i3Base\pool\large_object_cache.cpp
; File E:\Proyectos\JuegosOnlineproyectos\PB\pbblow\Piercing Blow Remake\i3Server\include\i3Base\memory\memory_alloc.inl
; File E:\Proyectos\JuegosOnlineproyectos\PB\pbblow\Piercing Blow Remake\i3Server\include\i3Base\pool\cas.h
; File E:\Proyectos\JuegosOnlineproyectos\PB\pbblow\Piercing Blow Remake\i3Server\src\i3Base\pool\large_object_cache.cpp
;	COMDAT ??1static_large_object_cache@i3@@QAE@XZ
_TEXT	SEGMENT
tv202 = -24						; size = 4
_Comperand$2$ = -20					; size = 4
_this$1$ = -16						; size = 4
_i$1$ = -12						; size = 4
_Comperand$1$ = -8					; size = 4
_mem_stack$1$ = -4					; size = 4
??1static_large_object_cache@i3@@QAE@XZ PROC		; i3::static_large_object_cache::~static_large_object_cache, COMDAT
; _this$ = ecx

; 45   : 	{

  00000	55		 push	 ebp
  00001	8b ec		 mov	 ebp, esp
  00003	83 ec 18	 sub	 esp, 24			; 00000018H
  00006	8b d1		 mov	 edx, ecx

; 46   : 		for (size_t i = 0 ; i < num_large_object_bucket ; ++i )

  00008	33 c0		 xor	 eax, eax
  0000a	53		 push	 ebx
  0000b	89 55 f0	 mov	 DWORD PTR _this$1$[ebp], edx
  0000e	83 c2 40	 add	 edx, 64			; 00000040H
  00011	56		 push	 esi
  00012	89 45 f4	 mov	 DWORD PTR _i$1$[ebp], eax
  00015	89 55 e8	 mov	 DWORD PTR tv202[ebp], edx
  00018	57		 push	 edi
  00019	8d a4 24 00 00
	00 00		 npad	 7
$LL4@static_lar:

; 47   : 			large_object_cache_base::cleanup_stack(m_stack_array[i]);

  00020	c1 e0 06	 shl	 eax, 6
  00023	03 c2		 add	 eax, edx
  00025	89 45 fc	 mov	 DWORD PTR _mem_stack$1$[ebp], eax
$LL8@static_lar:
; File E:\Proyectos\JuegosOnlineproyectos\PB\pbblow\Piercing Blow Remake\i3Server\include\i3Base\pool\mem_stack_lock_free.inl

; 30   : 			head = m_head;

  00028	8b 30		 mov	 esi, DWORD PTR [eax]

; 31   : 			pop_count = m_pop_count;

  0002a	8b 48 04	 mov	 ecx, DWORD PTR [eax+4]

; 32   : 			if ( head == NULL )

  0002d	85 f6		 test	 esi, esi
  0002f	74 3d		 je	 SHORT $LN2@static_lar
$LL14@static_lar:
; File E:\Proyectos\JuegosOnlineproyectos\PB\pbblow\Piercing Blow Remake\i3Server\include\i3Base\pool\cas.h

; 31   : 		__int64	Comperand = reinterpret_cast<__int64>(pOldData) | (static_cast<__int64>(OldInt) << 32);

  00031	8b d9		 mov	 ebx, ecx
  00033	8b c6		 mov	 eax, esi
  00035	99		 cdq
  00036	33 ff		 xor	 edi, edi
  00038	0b f8		 or	 edi, eax
  0003a	0b da		 or	 ebx, edx

; 32   : 		__int64 Exchange  = reinterpret_cast<__int64>(pNewData) | (static_cast<__int64>(NewInt) << 32);

  0003c	8b 06		 mov	 eax, DWORD PTR [esi]
; File E:\Proyectos\JuegosOnlineproyectos\PB\pbblow\Piercing Blow Remake\i3Server\include\i3Base\pool\mem_stack_lock_free.inl

; 35   : 			if (i3::cas2((void* volatile*)&m_head, head, pop_count, head->next, pop_count + 1) )

  0003e	41		 inc	 ecx
; File E:\Proyectos\JuegosOnlineproyectos\PB\pbblow\Piercing Blow Remake\i3Server\include\i3Base\pool\cas.h

; 31   : 		__int64	Comperand = reinterpret_cast<__int64>(pOldData) | (static_cast<__int64>(OldInt) << 32);

  0003f	89 5d f8	 mov	 DWORD PTR _Comperand$1$[ebp], ebx

; 32   : 		__int64 Exchange  = reinterpret_cast<__int64>(pNewData) | (static_cast<__int64>(NewInt) << 32);

  00042	33 db		 xor	 ebx, ebx
  00044	99		 cdq
  00045	0b d8		 or	 ebx, eax
  00047	89 7d ec	 mov	 DWORD PTR _Comperand$2$[ebp], edi
  0004a	0b ca		 or	 ecx, edx

; 33   : 		return _InterlockedCompareExchange64(reinterpret_cast<__int64 volatile *>(ppData), Exchange, Comperand) == Comperand;

  0004c	8b c7		 mov	 eax, edi
  0004e	8b 55 f8	 mov	 edx, DWORD PTR _Comperand$1$[ebp]
  00051	8b 7d fc	 mov	 edi, DWORD PTR _mem_stack$1$[ebp]
  00054	f0 0f c7 0f	 lock cmpxchg8b QWORD PTR [edi]
  00058	3b 45 ec	 cmp	 eax, DWORD PTR _Comperand$2$[ebp]
  0005b	75 05		 jne	 SHORT $LN53@static_lar
  0005d	3b 55 f8	 cmp	 edx, DWORD PTR _Comperand$1$[ebp]
  00060	74 2f		 je	 SHORT $LN43@static_lar
$LN53@static_lar:
; File E:\Proyectos\JuegosOnlineproyectos\PB\pbblow\Piercing Blow Remake\i3Server\include\i3Base\pool\mem_stack_lock_free.inl

; 30   : 			head = m_head;

  00062	8b 45 fc	 mov	 eax, DWORD PTR _mem_stack$1$[ebp]
  00065	8b 30		 mov	 esi, DWORD PTR [eax]

; 31   : 			pop_count = m_pop_count;

  00067	8b 48 04	 mov	 ecx, DWORD PTR [eax+4]

; 32   : 			if ( head == NULL )

  0006a	85 f6		 test	 esi, esi
  0006c	75 c3		 jne	 SHORT $LL14@static_lar
$LN2@static_lar:
; File E:\Proyectos\JuegosOnlineproyectos\PB\pbblow\Piercing Blow Remake\i3Server\src\i3Base\pool\large_object_cache.cpp

; 46   : 		for (size_t i = 0 ; i < num_large_object_bucket ; ++i )

  0006e	8b 45 f4	 mov	 eax, DWORD PTR _i$1$[ebp]
  00071	8b 55 e8	 mov	 edx, DWORD PTR tv202[ebp]
  00074	40		 inc	 eax
  00075	89 45 f4	 mov	 DWORD PTR _i$1$[ebp], eax
  00078	3d 80 00 00 00	 cmp	 eax, 128		; 00000080H
  0007d	72 a1		 jb	 SHORT $LL4@static_lar
; File E:\Proyectos\JuegosOnlineproyectos\PB\pbblow\Piercing Blow Remake\i3Server\include\i3Base\memory\memory_alloc.inl

; 53   : 		::HeapDestroy( HANDLE(h));

  0007f	8b 45 f0	 mov	 eax, DWORD PTR _this$1$[ebp]
; File E:\Proyectos\JuegosOnlineproyectos\PB\pbblow\Piercing Blow Remake\i3Server\src\i3Base\pool\large_object_cache.cpp

; 46   : 		for (size_t i = 0 ; i < num_large_object_bucket ; ++i )

  00082	5f		 pop	 edi
  00083	5e		 pop	 esi
  00084	5b		 pop	 ebx
; File E:\Proyectos\JuegosOnlineproyectos\PB\pbblow\Piercing Blow Remake\i3Server\include\i3Base\memory\memory_alloc.inl

; 53   : 		::HeapDestroy( HANDLE(h));

  00085	ff 30		 push	 DWORD PTR [eax]
  00087	ff 15 00 00 00
	00		 call	 DWORD PTR __imp__HeapDestroy@4
; File E:\Proyectos\JuegosOnlineproyectos\PB\pbblow\Piercing Blow Remake\i3Server\src\i3Base\pool\large_object_cache.cpp

; 48   : 	}

  0008d	8b e5		 mov	 esp, ebp
  0008f	5d		 pop	 ebp
  00090	c3		 ret	 0
$LN43@static_lar:

; 32   : 		while ( ( data = mem_stack.pop() ) != NULL )

  00091	85 f6		 test	 esi, esi
  00093	74 d9		 je	 SHORT $LN2@static_lar

; 33   : 		{
; 34   : 			header = reinterpret_cast<large_object_header*>(uintptr_t(data) - sizeof(large_object_header) );
; 35   : 			private_free(header->raw_data);

  00095	8b 4e f8	 mov	 ecx, DWORD PTR [esi-8]
; File E:\Proyectos\JuegosOnlineproyectos\PB\pbblow\Piercing Blow Remake\i3Server\include\i3Base\memory\memory_alloc.inl

; 93   : 		if (!data) return;

  00098	8b 45 fc	 mov	 eax, DWORD PTR _mem_stack$1$[ebp]
  0009b	85 c9		 test	 ecx, ecx
  0009d	74 89		 je	 SHORT $LL8@static_lar

; 94   : 		::HeapFree(HANDLE(h), 0, data);		// łÎ°Ë»çÁ¤ŔÇ°ˇ ľř´Ů..

  0009f	8b 45 f0	 mov	 eax, DWORD PTR _this$1$[ebp]
  000a2	51		 push	 ecx
  000a3	6a 00		 push	 0
  000a5	ff 30		 push	 DWORD PTR [eax]
  000a7	ff 15 00 00 00
	00		 call	 DWORD PTR __imp__HeapFree@12
; File E:\Proyectos\JuegosOnlineproyectos\PB\pbblow\Piercing Blow Remake\i3Server\include\i3Base\pool\cas.h

; 33   : 		return _InterlockedCompareExchange64(reinterpret_cast<__int64 volatile *>(ppData), Exchange, Comperand) == Comperand;

  000ad	8b 45 fc	 mov	 eax, DWORD PTR _mem_stack$1$[ebp]
  000b0	e9 73 ff ff ff	 jmp	 $LL8@static_lar
??1static_large_object_cache@i3@@QAE@XZ ENDP		; i3::static_large_object_cache::~static_large_object_cache
_TEXT	ENDS
; Function compile flags: /Ogtp
; File E:\Proyectos\JuegosOnlineproyectos\PB\pbblow\Piercing Blow Remake\i3Server\src\i3Base\pool\large_object_cache.cpp
; File E:\Proyectos\JuegosOnlineproyectos\PB\pbblow\Piercing Blow Remake\i3Server\include\i3Base\memory\memory_alloc.inl
; File E:\Proyectos\JuegosOnlineproyectos\PB\pbblow\Piercing Blow Remake\i3Server\src\i3Base\pool\large_object_cache.cpp
; File E:\Proyectos\JuegosOnlineproyectos\PB\pbblow\Piercing Blow Remake\i3Server\include\i3Base\memory\memory_alloc.inl
; File E:\Proyectos\JuegosOnlineproyectos\PB\pbblow\Piercing Blow Remake\i3Server\src\i3Base\pool\large_object_cache.cpp
; File E:\Proyectos\JuegosOnlineproyectos\PB\pbblow\Piercing Blow Remake\i3Server\include\i3Base\memory\memory_alloc.inl
; File E:\Proyectos\JuegosOnlineproyectos\PB\pbblow\Piercing Blow Remake\i3Server\src\i3Base\pool\large_object_cache.cpp
; File E:\Proyectos\JuegosOnlineproyectos\PB\pbblow\Piercing Blow Remake\i3Server\include\i3Base\pool\mem_stack_lock_free.h
; File E:\Proyectos\JuegosOnlineproyectos\PB\pbblow\Piercing Blow Remake\i3Server\src\i3Base\pool\large_object_cache.cpp
; File E:\Proyectos\JuegosOnlineproyectos\PB\pbblow\Piercing Blow Remake\i3Server\include\i3Base\pool\static_large_object_cache.h
; File E:\Proyectos\JuegosOnlineproyectos\PB\pbblow\Piercing Blow Remake\i3Server\src\i3Base\pool\large_object_cache.cpp
;	COMDAT ??0static_large_object_cache@i3@@QAE@XZ
_TEXT	SEGMENT
_this$ = -4						; size = 4
??0static_large_object_cache@i3@@QAE@XZ PROC		; i3::static_large_object_cache::static_large_object_cache, COMDAT
; _this$ = ecx

; 40   : 	{

  00000	55		 push	 ebp
  00001	8b ec		 mov	 ebp, esp
  00003	51		 push	 ecx
  00004	56		 push	 esi
; File E:\Proyectos\JuegosOnlineproyectos\PB\pbblow\Piercing Blow Remake\i3Server\include\i3Base\memory\memory_alloc.inl

; 32   : 		return heap_handle(::HeapCreate(0, 0, 0));

  00005	6a 00		 push	 0
  00007	6a 00		 push	 0
; File E:\Proyectos\JuegosOnlineproyectos\PB\pbblow\Piercing Blow Remake\i3Server\src\i3Base\pool\large_object_cache.cpp

; 40   : 	{

  00009	8b f1		 mov	 esi, ecx
; File E:\Proyectos\JuegosOnlineproyectos\PB\pbblow\Piercing Blow Remake\i3Server\include\i3Base\memory\memory_alloc.inl

; 32   : 		return heap_handle(::HeapCreate(0, 0, 0));

  0000b	6a 00		 push	 0
; File E:\Proyectos\JuegosOnlineproyectos\PB\pbblow\Piercing Blow Remake\i3Server\src\i3Base\pool\large_object_cache.cpp

; 40   : 	{

  0000d	89 75 fc	 mov	 DWORD PTR _this$[ebp], esi
; File E:\Proyectos\JuegosOnlineproyectos\PB\pbblow\Piercing Blow Remake\i3Server\include\i3Base\memory\memory_alloc.inl

; 32   : 		return heap_handle(::HeapCreate(0, 0, 0));

  00010	ff 15 00 00 00
	00		 call	 DWORD PTR __imp__HeapCreate@12
; File E:\Proyectos\JuegosOnlineproyectos\PB\pbblow\Piercing Blow Remake\i3Server\src\i3Base\pool\large_object_cache.cpp

; 9    : 	large_object_cache_base::large_object_cache_base() : m_private_heap( i3::heap_create() ) 

  00016	89 06		 mov	 DWORD PTR [esi], eax

; 40   : 	{

  00018	ba 80 00 00 00	 mov	 edx, 128		; 00000080H
  0001d	8d 46 40	 lea	 eax, DWORD PTR [esi+64]
$LL11@static_lar:
; File E:\Proyectos\JuegosOnlineproyectos\PB\pbblow\Piercing Blow Remake\i3Server\include\i3Base\pool\mem_stack_lock_free.h

; 14   : 		mem_stack_lock_free() : m_head(NULL), m_pop_count(0) {}

  00020	c7 00 00 00 00
	00		 mov	 DWORD PTR [eax], 0
  00026	8d 40 40	 lea	 eax, DWORD PTR [eax+64]
  00029	c7 40 c4 00 00
	00 00		 mov	 DWORD PTR [eax-60], 0
  00030	83 ea 01	 sub	 edx, 1
  00033	75 eb		 jne	 SHORT $LL11@static_lar
; File E:\Proyectos\JuegosOnlineproyectos\PB\pbblow\Piercing Blow Remake\i3Server\src\i3Base\pool\large_object_cache.cpp

; 40   : 	{

  00035	b9 80 00 00 00	 mov	 ecx, 128		; 00000080H
  0003a	8d 86 40 20 00
	00		 lea	 eax, DWORD PTR [esi+8256]
$LL17@static_lar:
; File E:\Proyectos\JuegosOnlineproyectos\PB\pbblow\Piercing Blow Remake\i3Server\include\i3Base\pool\static_large_object_cache.h

; 32   : 			counter_cleanup() : last_clean_counter(0), threshold(0) {}

  00040	c7 00 00 00 00
	00		 mov	 DWORD PTR [eax], 0
  00046	8d 40 40	 lea	 eax, DWORD PTR [eax+64]
  00049	c7 40 c4 00 00
	00 00		 mov	 DWORD PTR [eax-60], 0
  00050	83 e9 01	 sub	 ecx, 1
  00053	75 eb		 jne	 SHORT $LL17@static_lar
; File E:\Proyectos\JuegosOnlineproyectos\PB\pbblow\Piercing Blow Remake\i3Server\src\i3Base\pool\large_object_cache.cpp

; 39   : 	static_large_object_cache::static_large_object_cache() : m_clean_counter(0), m_index_counter_for_cleanup(0)

  00055	89 8e 40 40 00
	00		 mov	 DWORD PTR [esi+16448], ecx

; 41   : 
; 42   : 	}

  0005b	8b c6		 mov	 eax, esi
  0005d	89 8e 44 40 00
	00		 mov	 DWORD PTR [esi+16452], ecx
  00063	5e		 pop	 esi
  00064	8b e5		 mov	 esp, ebp
  00066	5d		 pop	 ebp
  00067	c3		 ret	 0
??0static_large_object_cache@i3@@QAE@XZ ENDP		; i3::static_large_object_cache::static_large_object_cache
_TEXT	ENDS
; Function compile flags: /Ogtp
; File E:\Proyectos\JuegosOnlineproyectos\PB\pbblow\Piercing Blow Remake\i3Server\include\i3Base\pool\mem_stack_lock_free.inl
; File E:\Proyectos\JuegosOnlineproyectos\PB\pbblow\Piercing Blow Remake\i3Server\include\i3Base\pool\cas.h
; File E:\Proyectos\JuegosOnlineproyectos\PB\pbblow\Piercing Blow Remake\i3Server\include\i3Base\pool\mem_stack_lock_free.inl
; File E:\Proyectos\JuegosOnlineproyectos\PB\pbblow\Piercing Blow Remake\i3Server\include\i3Base\pool\cas.h
; File E:\Proyectos\JuegosOnlineproyectos\PB\pbblow\Piercing Blow Remake\i3Server\include\i3Base\pool\mem_stack_lock_free.inl
;	COMDAT ?pop@mem_stack_lock_free@i3@@QAEPAXXZ
_TEXT	SEGMENT
_Comperand$2$ = -12					; size = 4
_this$1$ = -8						; size = 4
_Comperand$1$ = -4					; size = 4
?pop@mem_stack_lock_free@i3@@QAEPAXXZ PROC		; i3::mem_stack_lock_free::pop, COMDAT
; _this$ = ecx

; 25   : 	{

  00000	55		 push	 ebp
  00001	8b ec		 mov	 ebp, esp
  00003	83 ec 0c	 sub	 esp, 12			; 0000000cH
  00006	8b c1		 mov	 eax, ecx
  00008	53		 push	 ebx
  00009	56		 push	 esi
  0000a	57		 push	 edi

; 30   : 			head = m_head;

  0000b	8b 30		 mov	 esi, DWORD PTR [eax]

; 31   : 			pop_count = m_pop_count;

  0000d	8b 48 04	 mov	 ecx, DWORD PTR [eax+4]
  00010	89 45 f8	 mov	 DWORD PTR _this$1$[ebp], eax

; 32   : 			if ( head == NULL )

  00013	85 f6		 test	 esi, esi
  00015	74 3c		 je	 SHORT $LN14@pop
$LL4@pop:
; File E:\Proyectos\JuegosOnlineproyectos\PB\pbblow\Piercing Blow Remake\i3Server\include\i3Base\pool\cas.h

; 31   : 		__int64	Comperand = reinterpret_cast<__int64>(pOldData) | (static_cast<__int64>(OldInt) << 32);

  00017	8b d9		 mov	 ebx, ecx
  00019	8b c6		 mov	 eax, esi
  0001b	99		 cdq
  0001c	33 ff		 xor	 edi, edi
  0001e	0b f8		 or	 edi, eax
  00020	0b da		 or	 ebx, edx

; 32   : 		__int64 Exchange  = reinterpret_cast<__int64>(pNewData) | (static_cast<__int64>(NewInt) << 32);

  00022	8b 06		 mov	 eax, DWORD PTR [esi]
; File E:\Proyectos\JuegosOnlineproyectos\PB\pbblow\Piercing Blow Remake\i3Server\include\i3Base\pool\mem_stack_lock_free.inl

; 35   : 			if (i3::cas2((void* volatile*)&m_head, head, pop_count, head->next, pop_count + 1) )

  00024	41		 inc	 ecx
; File E:\Proyectos\JuegosOnlineproyectos\PB\pbblow\Piercing Blow Remake\i3Server\include\i3Base\pool\cas.h

; 31   : 		__int64	Comperand = reinterpret_cast<__int64>(pOldData) | (static_cast<__int64>(OldInt) << 32);

  00025	89 5d fc	 mov	 DWORD PTR _Comperand$1$[ebp], ebx

; 32   : 		__int64 Exchange  = reinterpret_cast<__int64>(pNewData) | (static_cast<__int64>(NewInt) << 32);

  00028	33 db		 xor	 ebx, ebx
  0002a	99		 cdq
  0002b	0b d8		 or	 ebx, eax
  0002d	89 7d f4	 mov	 DWORD PTR _Comperand$2$[ebp], edi
  00030	0b ca		 or	 ecx, edx

; 33   : 		return _InterlockedCompareExchange64(reinterpret_cast<__int64 volatile *>(ppData), Exchange, Comperand) == Comperand;

  00032	8b c7		 mov	 eax, edi
  00034	8b 55 fc	 mov	 edx, DWORD PTR _Comperand$1$[ebp]
  00037	8b 7d f8	 mov	 edi, DWORD PTR _this$1$[ebp]
  0003a	f0 0f c7 0f	 lock cmpxchg8b QWORD PTR [edi]
  0003e	3b 45 f4	 cmp	 eax, DWORD PTR _Comperand$2$[ebp]
  00041	75 05		 jne	 SHORT $LN21@pop
  00043	3b 55 fc	 cmp	 edx, DWORD PTR _Comperand$1$[ebp]
  00046	74 14		 je	 SHORT $LN15@pop
$LN21@pop:
; File E:\Proyectos\JuegosOnlineproyectos\PB\pbblow\Piercing Blow Remake\i3Server\include\i3Base\pool\mem_stack_lock_free.inl

; 30   : 			head = m_head;

  00048	8b c7		 mov	 eax, edi
  0004a	8b 30		 mov	 esi, DWORD PTR [eax]

; 31   : 			pop_count = m_pop_count;

  0004c	8b 48 04	 mov	 ecx, DWORD PTR [eax+4]

; 32   : 			if ( head == NULL )

  0004f	85 f6		 test	 esi, esi
  00051	75 c4		 jne	 SHORT $LL4@pop
$LN14@pop:
  00053	5f		 pop	 edi

; 40   : 	}

  00054	5e		 pop	 esi
  00055	33 c0		 xor	 eax, eax
  00057	5b		 pop	 ebx
  00058	8b e5		 mov	 esp, ebp
  0005a	5d		 pop	 ebp
  0005b	c3		 ret	 0
$LN15@pop:
  0005c	5f		 pop	 edi

; 36   : 				break;
; 37   : 		}
; 38   : 
; 39   : 		return head;

  0005d	8b c6		 mov	 eax, esi

; 40   : 	}

  0005f	5e		 pop	 esi
  00060	5b		 pop	 ebx
  00061	8b e5		 mov	 esp, ebp
  00063	5d		 pop	 ebp
  00064	c3		 ret	 0
?pop@mem_stack_lock_free@i3@@QAEPAXXZ ENDP		; i3::mem_stack_lock_free::pop
_TEXT	ENDS
; Function compile flags: /Ogtp
; File E:\Proyectos\JuegosOnlineproyectos\PB\pbblow\Piercing Blow Remake\i3Server\include\i3Base\pool\mem_stack_lock_free.h
;	COMDAT ??0mem_stack_lock_free@i3@@QAE@XZ
_TEXT	SEGMENT
??0mem_stack_lock_free@i3@@QAE@XZ PROC			; i3::mem_stack_lock_free::mem_stack_lock_free, COMDAT
; _this$ = ecx

; 14   : 		mem_stack_lock_free() : m_head(NULL), m_pop_count(0) {}

  00000	c7 01 00 00 00
	00		 mov	 DWORD PTR [ecx], 0
  00006	8b c1		 mov	 eax, ecx
  00008	c7 41 04 00 00
	00 00		 mov	 DWORD PTR [ecx+4], 0
  0000f	c3		 ret	 0
??0mem_stack_lock_free@i3@@QAE@XZ ENDP			; i3::mem_stack_lock_free::mem_stack_lock_free
_TEXT	ENDS
; Function compile flags: /Ogtp
; File E:\Proyectos\JuegosOnlineproyectos\PB\pbblow\Piercing Blow Remake\i3Server\src\i3Base\pool\large_object_cache.cpp
; File E:\Proyectos\JuegosOnlineproyectos\PB\pbblow\Piercing Blow Remake\i3Server\include\i3Base\pool\mem_stack_lock_free.inl
; File E:\Proyectos\JuegosOnlineproyectos\PB\pbblow\Piercing Blow Remake\i3Server\include\i3Base\pool\cas.h
; File E:\Proyectos\JuegosOnlineproyectos\PB\pbblow\Piercing Blow Remake\i3Server\include\i3Base\pool\mem_stack_lock_free.inl
; File E:\Proyectos\JuegosOnlineproyectos\PB\pbblow\Piercing Blow Remake\i3Server\include\i3Base\pool\cas.h
; File E:\Proyectos\JuegosOnlineproyectos\PB\pbblow\Piercing Blow Remake\i3Server\include\i3Base\pool\mem_stack_lock_free.inl
; File E:\Proyectos\JuegosOnlineproyectos\PB\pbblow\Piercing Blow Remake\i3Server\src\i3Base\pool\large_object_cache.cpp
; File E:\Proyectos\JuegosOnlineproyectos\PB\pbblow\Piercing Blow Remake\i3Server\include\i3Base\memory\memory_alloc.inl
; File E:\Proyectos\JuegosOnlineproyectos\PB\pbblow\Piercing Blow Remake\i3Server\include\i3Base\pool\cas.h
; File E:\Proyectos\JuegosOnlineproyectos\PB\pbblow\Piercing Blow Remake\i3Server\src\i3Base\pool\large_object_cache.cpp
;	COMDAT ?cleanup_stack@large_object_cache_base@i3@@IAEXAAVmem_stack_lock_free@2@@Z
_TEXT	SEGMENT
_this$1$ = -12						; size = 4
_Comperand$2$ = -8					; size = 4
_Comperand$1$ = -4					; size = 4
_mem_stack$ = 8						; size = 4
?cleanup_stack@large_object_cache_base@i3@@IAEXAAVmem_stack_lock_free@2@@Z PROC ; i3::large_object_cache_base::cleanup_stack, COMDAT
; _this$ = ecx

; 29   : 	{

  00000	55		 push	 ebp
  00001	8b ec		 mov	 ebp, esp
  00003	83 ec 0c	 sub	 esp, 12			; 0000000cH
  00006	53		 push	 ebx
  00007	56		 push	 esi
  00008	89 4d f4	 mov	 DWORD PTR _this$1$[ebp], ecx
  0000b	57		 push	 edi
  0000c	8d 64 24 00	 npad	 4
$LL2@cleanup_st:
; File E:\Proyectos\JuegosOnlineproyectos\PB\pbblow\Piercing Blow Remake\i3Server\include\i3Base\pool\mem_stack_lock_free.inl

; 30   : 			head = m_head;

  00010	8b 45 08	 mov	 eax, DWORD PTR _mem_stack$[ebp]
  00013	8b 30		 mov	 esi, DWORD PTR [eax]

; 31   : 			pop_count = m_pop_count;

  00015	8b 48 04	 mov	 ecx, DWORD PTR [eax+4]

; 32   : 			if ( head == NULL )

  00018	85 f6		 test	 esi, esi
  0001a	74 40		 je	 SHORT $LN3@cleanup_st
  0001c	8d 64 24 00	 npad	 4
$LL8@cleanup_st:
; File E:\Proyectos\JuegosOnlineproyectos\PB\pbblow\Piercing Blow Remake\i3Server\include\i3Base\pool\cas.h

; 31   : 		__int64	Comperand = reinterpret_cast<__int64>(pOldData) | (static_cast<__int64>(OldInt) << 32);

  00020	8b d9		 mov	 ebx, ecx
  00022	8b c6		 mov	 eax, esi
  00024	99		 cdq
  00025	33 ff		 xor	 edi, edi
  00027	0b f8		 or	 edi, eax
  00029	0b da		 or	 ebx, edx

; 32   : 		__int64 Exchange  = reinterpret_cast<__int64>(pNewData) | (static_cast<__int64>(NewInt) << 32);

  0002b	8b 06		 mov	 eax, DWORD PTR [esi]
; File E:\Proyectos\JuegosOnlineproyectos\PB\pbblow\Piercing Blow Remake\i3Server\include\i3Base\pool\mem_stack_lock_free.inl

; 35   : 			if (i3::cas2((void* volatile*)&m_head, head, pop_count, head->next, pop_count + 1) )

  0002d	41		 inc	 ecx
; File E:\Proyectos\JuegosOnlineproyectos\PB\pbblow\Piercing Blow Remake\i3Server\include\i3Base\pool\cas.h

; 31   : 		__int64	Comperand = reinterpret_cast<__int64>(pOldData) | (static_cast<__int64>(OldInt) << 32);

  0002e	89 5d fc	 mov	 DWORD PTR _Comperand$1$[ebp], ebx

; 32   : 		__int64 Exchange  = reinterpret_cast<__int64>(pNewData) | (static_cast<__int64>(NewInt) << 32);

  00031	33 db		 xor	 ebx, ebx
  00033	99		 cdq
  00034	0b d8		 or	 ebx, eax
  00036	89 7d f8	 mov	 DWORD PTR _Comperand$2$[ebp], edi
  00039	0b ca		 or	 ecx, edx

; 33   : 		return _InterlockedCompareExchange64(reinterpret_cast<__int64 volatile *>(ppData), Exchange, Comperand) == Comperand;

  0003b	8b c7		 mov	 eax, edi
  0003d	8b 55 fc	 mov	 edx, DWORD PTR _Comperand$1$[ebp]
  00040	8b 7d 08	 mov	 edi, DWORD PTR _mem_stack$[ebp]
  00043	f0 0f c7 0f	 lock cmpxchg8b QWORD PTR [edi]
  00047	3b 45 f8	 cmp	 eax, DWORD PTR _Comperand$2$[ebp]
  0004a	75 05		 jne	 SHORT $LN34@cleanup_st
  0004c	3b 55 fc	 cmp	 edx, DWORD PTR _Comperand$1$[ebp]
  0004f	74 14		 je	 SHORT $LN26@cleanup_st
$LN34@cleanup_st:
; File E:\Proyectos\JuegosOnlineproyectos\PB\pbblow\Piercing Blow Remake\i3Server\include\i3Base\pool\mem_stack_lock_free.inl

; 30   : 			head = m_head;

  00051	8b c7		 mov	 eax, edi
  00053	8b 30		 mov	 esi, DWORD PTR [eax]

; 31   : 			pop_count = m_pop_count;

  00055	8b 48 04	 mov	 ecx, DWORD PTR [eax+4]

; 32   : 			if ( head == NULL )

  00058	85 f6		 test	 esi, esi
  0005a	75 c4		 jne	 SHORT $LL8@cleanup_st
$LN3@cleanup_st:
  0005c	5f		 pop	 edi
; File E:\Proyectos\JuegosOnlineproyectos\PB\pbblow\Piercing Blow Remake\i3Server\src\i3Base\pool\large_object_cache.cpp

; 37   : 	}

  0005d	5e		 pop	 esi
  0005e	5b		 pop	 ebx
  0005f	8b e5		 mov	 esp, ebp
  00061	5d		 pop	 ebp
  00062	c2 04 00	 ret	 4
$LN26@cleanup_st:

; 30   : 		void* data;
; 31   : 		large_object_header* header;
; 32   : 		while ( ( data = mem_stack.pop() ) != NULL )

  00065	85 f6		 test	 esi, esi
  00067	74 f3		 je	 SHORT $LN3@cleanup_st

; 33   : 		{
; 34   : 			header = reinterpret_cast<large_object_header*>(uintptr_t(data) - sizeof(large_object_header) );
; 35   : 			private_free(header->raw_data);

  00069	8b 46 f8	 mov	 eax, DWORD PTR [esi-8]
; File E:\Proyectos\JuegosOnlineproyectos\PB\pbblow\Piercing Blow Remake\i3Server\include\i3Base\memory\memory_alloc.inl

; 93   : 		if (!data) return;

  0006c	85 c0		 test	 eax, eax
  0006e	74 a0		 je	 SHORT $LL2@cleanup_st

; 94   : 		::HeapFree(HANDLE(h), 0, data);		// łÎ°Ë»çÁ¤ŔÇ°ˇ ľř´Ů..

  00070	50		 push	 eax
  00071	8b 45 f4	 mov	 eax, DWORD PTR _this$1$[ebp]
  00074	6a 00		 push	 0
  00076	ff 30		 push	 DWORD PTR [eax]
  00078	ff 15 00 00 00
	00		 call	 DWORD PTR __imp__HeapFree@12
; File E:\Proyectos\JuegosOnlineproyectos\PB\pbblow\Piercing Blow Remake\i3Server\include\i3Base\pool\cas.h

; 33   : 		return _InterlockedCompareExchange64(reinterpret_cast<__int64 volatile *>(ppData), Exchange, Comperand) == Comperand;

  0007e	eb 90		 jmp	 SHORT $LL2@cleanup_st
?cleanup_stack@large_object_cache_base@i3@@IAEXAAVmem_stack_lock_free@2@@Z ENDP ; i3::large_object_cache_base::cleanup_stack
_TEXT	ENDS
; Function compile flags: /Ogtp
; File E:\Proyectos\JuegosOnlineproyectos\PB\pbblow\Piercing Blow Remake\i3Server\src\i3Base\pool\large_object_cache.cpp
; File E:\Proyectos\JuegosOnlineproyectos\PB\pbblow\Piercing Blow Remake\i3Server\include\i3Base\memory\memory_alloc.inl
; File E:\Proyectos\JuegosOnlineproyectos\PB\pbblow\Piercing Blow Remake\i3Server\src\i3Base\pool\large_object_cache.cpp
; File E:\Proyectos\JuegosOnlineproyectos\PB\pbblow\Piercing Blow Remake\i3Server\include\i3Base\pool\align_up_down.h
; File E:\Proyectos\JuegosOnlineproyectos\PB\pbblow\Piercing Blow Remake\i3Server\src\i3Base\pool\large_object_cache.cpp
;	COMDAT ?allocate_from_malloc@large_object_cache_base@i3@@IAEPAXII@Z
_TEXT	SEGMENT
_alloc_size$ = 8					; size = 4
_size_index$ = 12					; size = 4
?allocate_from_malloc@large_object_cache_base@i3@@IAEPAXII@Z PROC ; i3::large_object_cache_base::allocate_from_malloc, COMDAT
; _this$ = ecx

; 19   : 	{

  00000	55		 push	 ebp
  00001	8b ec		 mov	 ebp, esp
; File E:\Proyectos\JuegosOnlineproyectos\PB\pbblow\Piercing Blow Remake\i3Server\include\i3Base\memory\memory_alloc.inl

; 87   : 		return ::HeapAlloc(HANDLE(h), 0, size);

  00003	ff 75 08	 push	 DWORD PTR _alloc_size$[ebp]
  00006	6a 00		 push	 0
  00008	ff 31		 push	 DWORD PTR [ecx]
  0000a	ff 15 00 00 00
	00		 call	 DWORD PTR __imp__HeapAlloc@12
; File E:\Proyectos\JuegosOnlineproyectos\PB\pbblow\Piercing Blow Remake\i3Server\src\i3Base\pool\large_object_cache.cpp

; 24   : 		header->size_index = size_index;

  00010	8b 4d 0c	 mov	 ecx, DWORD PTR _size_index$[ebp]
; File E:\Proyectos\JuegosOnlineproyectos\PB\pbblow\Piercing Blow Remake\i3Server\include\i3Base\pool\align_up_down.h

; 22   : 	T		align_up(T value, uintptr_t align) { return T( ( uintptr_t(value) + align - 1 ) & ~(align - 1) ); }

  00013	8d 90 07 40 00
	00		 lea	 edx, DWORD PTR [eax+16391]
  00019	81 e2 00 c0 ff
	ff		 and	 edx, -16384		; ffffc000H
; File E:\Proyectos\JuegosOnlineproyectos\PB\pbblow\Piercing Blow Remake\i3Server\src\i3Base\pool\large_object_cache.cpp

; 23   : 		header->raw_data = raw_data;

  0001f	89 42 f8	 mov	 DWORD PTR [edx-8], eax

; 25   : 		return result;		

  00022	8b c2		 mov	 eax, edx
  00024	89 4a fc	 mov	 DWORD PTR [edx-4], ecx

; 26   : 	}

  00027	5d		 pop	 ebp
  00028	c2 08 00	 ret	 8
?allocate_from_malloc@large_object_cache_base@i3@@IAEPAXII@Z ENDP ; i3::large_object_cache_base::allocate_from_malloc
_TEXT	ENDS
; Function compile flags: /Ogtp
; File E:\Proyectos\JuegosOnlineproyectos\PB\pbblow\Piercing Blow Remake\i3Server\src\i3Base\pool\large_object_cache.cpp
; File E:\Proyectos\JuegosOnlineproyectos\PB\pbblow\Piercing Blow Remake\i3Server\include\i3Base\memory\memory_alloc.inl
; File E:\Proyectos\JuegosOnlineproyectos\PB\pbblow\Piercing Blow Remake\i3Server\src\i3Base\pool\large_object_cache.cpp
;	COMDAT ??1large_object_cache_base@i3@@IAE@XZ
_TEXT	SEGMENT
??1large_object_cache_base@i3@@IAE@XZ PROC		; i3::large_object_cache_base::~large_object_cache_base, COMDAT
; _this$ = ecx
; File E:\Proyectos\JuegosOnlineproyectos\PB\pbblow\Piercing Blow Remake\i3Server\include\i3Base\memory\memory_alloc.inl

; 53   : 		::HeapDestroy( HANDLE(h));

  00000	ff 31		 push	 DWORD PTR [ecx]
  00002	ff 15 00 00 00
	00		 call	 DWORD PTR __imp__HeapDestroy@4
; File E:\Proyectos\JuegosOnlineproyectos\PB\pbblow\Piercing Blow Remake\i3Server\src\i3Base\pool\large_object_cache.cpp

; 16   : 	}

  00008	c3		 ret	 0
??1large_object_cache_base@i3@@IAE@XZ ENDP		; i3::large_object_cache_base::~large_object_cache_base
_TEXT	ENDS
; Function compile flags: /Ogtp
; File E:\Proyectos\JuegosOnlineproyectos\PB\pbblow\Piercing Blow Remake\i3Server\src\i3Base\pool\large_object_cache.cpp
; File E:\Proyectos\JuegosOnlineproyectos\PB\pbblow\Piercing Blow Remake\i3Server\include\i3Base\memory\memory_alloc.inl
; File E:\Proyectos\JuegosOnlineproyectos\PB\pbblow\Piercing Blow Remake\i3Server\src\i3Base\pool\large_object_cache.cpp
; File E:\Proyectos\JuegosOnlineproyectos\PB\pbblow\Piercing Blow Remake\i3Server\include\i3Base\memory\memory_alloc.inl
; File E:\Proyectos\JuegosOnlineproyectos\PB\pbblow\Piercing Blow Remake\i3Server\src\i3Base\pool\large_object_cache.cpp
;	COMDAT ??0large_object_cache_base@i3@@IAE@XZ
_TEXT	SEGMENT
??0large_object_cache_base@i3@@IAE@XZ PROC		; i3::large_object_cache_base::large_object_cache_base, COMDAT
; _this$ = ecx

; 10   : 	{

  00000	56		 push	 esi
; File E:\Proyectos\JuegosOnlineproyectos\PB\pbblow\Piercing Blow Remake\i3Server\include\i3Base\memory\memory_alloc.inl

; 32   : 		return heap_handle(::HeapCreate(0, 0, 0));

  00001	6a 00		 push	 0
  00003	6a 00		 push	 0
  00005	6a 00		 push	 0
; File E:\Proyectos\JuegosOnlineproyectos\PB\pbblow\Piercing Blow Remake\i3Server\src\i3Base\pool\large_object_cache.cpp

; 10   : 	{

  00007	8b f1		 mov	 esi, ecx
; File E:\Proyectos\JuegosOnlineproyectos\PB\pbblow\Piercing Blow Remake\i3Server\include\i3Base\memory\memory_alloc.inl

; 32   : 		return heap_handle(::HeapCreate(0, 0, 0));

  00009	ff 15 00 00 00
	00		 call	 DWORD PTR __imp__HeapCreate@12
; File E:\Proyectos\JuegosOnlineproyectos\PB\pbblow\Piercing Blow Remake\i3Server\src\i3Base\pool\large_object_cache.cpp

; 9    : 	large_object_cache_base::large_object_cache_base() : m_private_heap( i3::heap_create() ) 

  0000f	89 06		 mov	 DWORD PTR [esi], eax

; 11   : 	}

  00011	8b c6		 mov	 eax, esi
  00013	5e		 pop	 esi
  00014	c3		 ret	 0
??0large_object_cache_base@i3@@IAE@XZ ENDP		; i3::large_object_cache_base::large_object_cache_base
_TEXT	ENDS
; Function compile flags: /Ogtp
;	COMDAT ??_H@YGXPAXIIP6EPAX0@Z@Z
_TEXT	SEGMENT
___t$ = 8						; size = 4
___s$ = 12						; size = 4
___n$ = 16						; size = 4
___f$ = 20						; size = 4
??_H@YGXPAXIIP6EPAX0@Z@Z PROC				; `vector constructor iterator', COMDAT
  00000	55		 push	 ebp
  00001	8b ec		 mov	 ebp, esp
  00003	56		 push	 esi
  00004	8b 75 10	 mov	 esi, DWORD PTR ___n$[ebp]
  00007	85 f6		 test	 esi, esi
  00009	74 16		 je	 SHORT $LN6@vector
  0000b	53		 push	 ebx
  0000c	8b 5d 14	 mov	 ebx, DWORD PTR ___f$[ebp]
  0000f	57		 push	 edi
  00010	8b 7d 08	 mov	 edi, DWORD PTR ___t$[ebp]
$LL2@vector:
  00013	8b cf		 mov	 ecx, edi
  00015	ff d3		 call	 ebx
  00017	03 7d 0c	 add	 edi, DWORD PTR ___s$[ebp]
  0001a	83 ee 01	 sub	 esi, 1
  0001d	75 f4		 jne	 SHORT $LL2@vector
  0001f	5f		 pop	 edi
  00020	5b		 pop	 ebx
$LN6@vector:
  00021	5e		 pop	 esi
  00022	5d		 pop	 ebp
  00023	c2 10 00	 ret	 16			; 00000010H
??_H@YGXPAXIIP6EPAX0@Z@Z ENDP				; `vector constructor iterator'
_TEXT	ENDS
END
