; Listing generated by Microsoft (R) Optimizing Compiler Version 19.50.35727.0 

	TITLE	E:\Proyectos\JuegosOnlineproyectos\PB\pbblow\Piercing Blow Remake\i3Server\Project\I3_DX\i3Server\x86\Release\Linpack.obj
	.686P
	.XMM
	include listing.inc
	.model	flat

INCLUDELIB LIBCMT
INCLUDELIB OLDNAMES

PUBLIC	?secs@@3NA					; secs
PUBLIC	?starttime@@3T_LARGE_INTEGER@@A			; starttime
PUBLIC	__Avx2WmemEnabledWeakValue
_BSS	SEGMENT
?secs@@3NA DQ	01H DUP (?)				; secs
?starttime@@3T_LARGE_INTEGER@@A DQ 01H DUP (?)		; starttime
_BSS	ENDS
;	COMDAT __Avx2WmemEnabledWeakValue
_BSS	SEGMENT
__Avx2WmemEnabledWeakValue DD 01H DUP (?)
_BSS	ENDS
PUBLIC	?__empty_global_delete@@YAXPAX@Z		; __empty_global_delete
PUBLIC	?__global_delete@@YAXPAX@Z			; __global_delete
PUBLIC	?__empty_global_delete@@YAXPAXI@Z		; __empty_global_delete
PUBLIC	?__global_delete@@YAXPAXI@Z			; __global_delete
PUBLIC	?__global_array_delete@@YAXPAX@Z		; __global_array_delete
PUBLIC	?__global_array_delete@@YAXPAXI@Z		; __global_array_delete
PUBLIC	?GetMemoryPool@i3ClassMeta@@QAEPAVi3MemoryPool@@XZ ; i3ClassMeta::GetMemoryPool
PUBLIC	?SetMemoryPool@i3ClassMeta@@QAEXPAVi3MemoryPool@@@Z ; i3ClassMeta::SetMemoryPool
PUBLIC	?GetClassSize@i3ClassMeta@@QAEIXZ		; i3ClassMeta::GetClassSize
PUBLIC	?GetClassNameA@i3ClassMeta@@QAEPADXZ		; i3ClassMeta::GetClassNameA
PUBLIC	?IsExactTypeOf@i3ClassMeta@@QAE_NPAV1@@Z	; i3ClassMeta::IsExactTypeOf
PUBLIC	?SetStyle@i3ClassMeta@@QAEXI@Z			; i3ClassMeta::SetStyle
PUBLIC	?GetStyle@i3ClassMeta@@QAEIXZ			; i3ClassMeta::GetStyle
PUBLIC	?AddStyle@i3ClassMeta@@QAEXI@Z			; i3ClassMeta::AddStyle
PUBLIC	?RemoveStyle@i3ClassMeta@@QAEXI@Z		; i3ClassMeta::RemoveStyle
PUBLIC	?IsStyle@i3ClassMeta@@QAEHI@Z			; i3ClassMeta::IsStyle
PUBLIC	?IsAbstractClass@i3ClassMeta@@QAEHXZ		; i3ClassMeta::IsAbstractClass
PUBLIC	?IsConcreteClass@i3ClassMeta@@QAEHXZ		; i3ClassMeta::IsConcreteClass
PUBLIC	?GetBaseClassMeta@i3ClassMeta@@QAEPAV1@XZ	; i3ClassMeta::GetBaseClassMeta
PUBLIC	?getHashCode@i3ClassMeta@@QAEIXZ		; i3ClassMeta::getHashCode
PUBLIC	??0i3ClassMeta@@QAE@ABV0@@Z			; i3ClassMeta::i3ClassMeta
PUBLIC	??4i3ClassMeta@@QAEAAV0@ABV0@@Z			; i3ClassMeta::operator=
PUBLIC	??_Gi3ClassMeta@@UAEPAXI@Z			; i3ClassMeta::`scalar deleting destructor'
PUBLIC	??_Ei3ClassMeta@@UAEPAXI@Z			; i3ClassMeta::`vector deleting destructor'
PUBLIC	?GetClassMeta@i3ElementBase@@SAPAVi3ClassMeta@@XZ ; i3ElementBase::GetClassMeta
PUBLIC	?GetRefCount@i3ElementBase@@QAEHXZ		; i3ElementBase::GetRefCount
PUBLIC	?__SetMemoryPool@i3ElementBase@@QAEXPAVi3MemoryPool@@@Z ; i3ElementBase::__SetMemoryPool
PUBLIC	?__GetMemoryPool@i3ElementBase@@QAEPAVi3MemoryPool@@XZ ; i3ElementBase::__GetMemoryPool
PUBLIC	?IsExactTypeOf@i3ElementBase@@QAE_NPAVi3ClassMeta@@@Z ; i3ElementBase::IsExactTypeOf
PUBLIC	?IsTypeOf@i3ElementBase@@QAE_NPAVi3ClassMeta@@@Z ; i3ElementBase::IsTypeOf
PUBLIC	?AddRef@i3ElementBase@@QAEHXZ			; i3ElementBase::AddRef
PUBLIC	?_internal_SetRefCount@i3ElementBase@@QAEXH@Z	; i3ElementBase::_internal_SetRefCount
PUBLIC	??0i3ElementBase@@QAE@ABV0@@Z			; i3ElementBase::i3ElementBase
PUBLIC	??4i3ElementBase@@QAEAAV0@ABV0@@Z		; i3ElementBase::operator=
PUBLIC	??_Gi3ElementBase@@UAEPAXI@Z			; i3ElementBase::`scalar deleting destructor'
PUBLIC	??_Ei3ElementBase@@UAEPAXI@Z			; i3ElementBase::`vector deleting destructor'
PUBLIC	??0i3MemoryPool@@QAE@ABV0@@Z			; i3MemoryPool::i3MemoryPool
PUBLIC	??4i3MemoryPool@@QAEAAV0@ABV0@@Z		; i3MemoryPool::operator=
PUBLIC	??_Gi3MemoryPool@@UAEPAXI@Z			; i3MemoryPool::`scalar deleting destructor'
PUBLIC	??_Ei3MemoryPool@@UAEPAXI@Z			; i3MemoryPool::`vector deleting destructor'
PUBLIC	?GetClassMeta@i3Timer@@SAPAVi3ClassMeta@@XZ	; i3Timer::GetClassMeta
PUBLIC	??0i3Timer@@QAE@ABV0@@Z				; i3Timer::i3Timer
PUBLIC	??4i3Timer@@QAEAAV0@ABV0@@Z			; i3Timer::operator=
PUBLIC	??_Gi3Timer@@UAEPAXI@Z				; i3Timer::`scalar deleting destructor'
PUBLIC	??_Ei3Timer@@UAEPAXI@Z				; i3Timer::`vector deleting destructor'
PUBLIC	?start_time@@YAXXZ				; start_time
PUBLIC	?end_time@@YANXZ				; end_time
PUBLIC	?matgen@@YAXQAMHH0PAM@Z				; matgen
PUBLIC	?dgefa@@YAXQAMHHQAHPAH@Z			; dgefa
PUBLIC	?dgesl@@YAXQAMHHQAH0H@Z				; dgesl
PUBLIC	?dmxpy@@YAXHQAMHH00@Z				; dmxpy
PUBLIC	?daxpy@@YAXHMQAMH0H@Z				; daxpy
PUBLIC	?epslon@@YAMM@Z					; epslon
PUBLIC	?idamax@@YAHHQAMH@Z				; idamax
PUBLIC	?dscal@@YAXHMQAMH@Z				; dscal
PUBLIC	?ddot@@YAMHQAMH0H@Z				; ddot
PUBLIC	?CalcFLOPS_Linpack@@YANHHM@Z			; CalcFLOPS_Linpack
PUBLIC	??_7i3ClassMeta@@6B@				; i3ClassMeta::`vftable'
PUBLIC	??_7i3ElementBase@@6B@				; i3ElementBase::`vftable'
PUBLIC	??_7i3MemoryPool@@6B@				; i3MemoryPool::`vftable'
PUBLIC	??_7i3Timer@@6B@				; i3Timer::`vftable'
PUBLIC	??_C@_0GC@IFBBMDEB@E?3?2Proyectos?2JuegosOnlineproyec@ ; `string'
PUBLIC	??_R4i3ElementBase@@6B@				; i3ElementBase::`RTTI Complete Object Locator'
PUBLIC	??_R0?AVi3ElementBase@@@8			; i3ElementBase `RTTI Type Descriptor'
PUBLIC	??_R3i3ElementBase@@8				; i3ElementBase::`RTTI Class Hierarchy Descriptor'
PUBLIC	??_R2i3ElementBase@@8				; i3ElementBase::`RTTI Base Class Array'
PUBLIC	??_R1A@?0A@EA@i3ElementBase@@8			; i3ElementBase::`RTTI Base Class Descriptor at (0,-1,0,64)'
PUBLIC	??_R4i3MemoryPool@@6B@				; i3MemoryPool::`RTTI Complete Object Locator'
PUBLIC	??_R0?AVi3MemoryPool@@@8			; i3MemoryPool `RTTI Type Descriptor'
PUBLIC	??_R3i3MemoryPool@@8				; i3MemoryPool::`RTTI Class Hierarchy Descriptor'
PUBLIC	??_R2i3MemoryPool@@8				; i3MemoryPool::`RTTI Base Class Array'
PUBLIC	??_R1A@?0A@EA@i3MemoryPool@@8			; i3MemoryPool::`RTTI Base Class Descriptor at (0,-1,0,64)'
PUBLIC	??_R4i3ClassMeta@@6B@				; i3ClassMeta::`RTTI Complete Object Locator'
PUBLIC	??_R0?AVi3ClassMeta@@@8				; i3ClassMeta `RTTI Type Descriptor'
PUBLIC	??_R3i3ClassMeta@@8				; i3ClassMeta::`RTTI Class Hierarchy Descriptor'
PUBLIC	??_R2i3ClassMeta@@8				; i3ClassMeta::`RTTI Base Class Array'
PUBLIC	??_R1A@?0A@EA@i3ClassMeta@@8			; i3ClassMeta::`RTTI Base Class Descriptor at (0,-1,0,64)'
PUBLIC	??_R4i3Timer@@6B@				; i3Timer::`RTTI Complete Object Locator'
PUBLIC	??_R0?AVi3Timer@@@8				; i3Timer `RTTI Type Descriptor'
PUBLIC	??_R3i3Timer@@8					; i3Timer::`RTTI Class Hierarchy Descriptor'
PUBLIC	??_R2i3Timer@@8					; i3Timer::`RTTI Base Class Array'
PUBLIC	??_R1A@?0A@EA@i3Timer@@8			; i3Timer::`RTTI Base Class Descriptor at (0,-1,0,64)'
PUBLIC	__real@00000000
PUBLIC	__real@3e80000000000000
PUBLIC	__real@3f10000000000000
PUBLIC	__real@3facac0840000000
PUBLIC	__real@3fb999999999999a
PUBLIC	__real@4000000000000000
PUBLIC	__real@4014000000000000
PUBLIC	__real@40e0000000000000
PUBLIC	__real@4124f49560000000
PUBLIC	__real@412e848000000000
PUBLIC	__real@bff0000000000000
PUBLIC	__xmm@7fffffff7fffffff7fffffff7fffffff
PUBLIC	__xmm@80000000800000008000000080000000
EXTRN	??_M@YGXPAXIIP6EX0@Z@Z:PROC			; `eh vector destructor iterator'
EXTRN	__purecall:PROC
EXTRN	??3@YAXPAX@Z:PROC				; operator delete
EXTRN	??3@YAXPAXI@Z:PROC				; operator delete
EXTRN	??_V@YAXPAX@Z:PROC				; operator delete[]
EXTRN	??_V@YAXPAXI@Z:PROC				; operator delete[]
EXTRN	__imp__QueryPerformanceCounter@4:PROC
EXTRN	__imp__QueryPerformanceFrequency@4:PROC
EXTRN	?AllocTool@i3mem@@YAPAXHHHPBDH@Z:PROC		; i3mem::AllocTool
EXTRN	?FreeTool@i3mem@@YAXPAXPBDH@Z:PROC		; i3mem::FreeTool
EXTRN	??1i3ClassMeta@@UAE@XZ:PROC			; i3ClassMeta::~i3ClassMeta
EXTRN	?CreateInstance@i3ClassMeta@@UAEPAVi3ElementBase@@W4I3_CLASSMETA_TYPE@@@Z:PROC ; i3ClassMeta::CreateInstance
EXTRN	?BindInstance@i3ClassMeta@@UAEPAVi3ElementBase@@PAXW4I3_CLASSMETA_TYPE@@@Z:PROC ; i3ClassMeta::BindInstance
EXTRN	?IsTypeOf@i3ClassMeta@@QAE_NPAV1@@Z:PROC	; i3ClassMeta::IsTypeOf
EXTRN	?GetMeta@i3ElementBase@@UAEPAVi3ClassMeta@@XZ:PROC ; i3ElementBase::GetMeta
EXTRN	??1i3ElementBase@@UAE@XZ:PROC			; i3ElementBase::~i3ElementBase
EXTRN	??3i3ElementBase@@SAXPAX@Z:PROC			; i3ElementBase::operator delete
EXTRN	?CopyTo@i3ElementBase@@UAEXPAV1@W4I3_COPY_METHOD@@@Z:PROC ; i3ElementBase::CopyTo
EXTRN	??1i3MemoryPool@@UAE@XZ:PROC			; i3MemoryPool::~i3MemoryPool
EXTRN	?GetMeta@i3Timer@@UAEPAVi3ClassMeta@@XZ:PROC	; i3Timer::GetMeta
EXTRN	??1i3Timer@@UAE@XZ:PROC				; i3Timer::~i3Timer
EXTRN	@__security_check_cookie@4:PROC
EXTRN	___CxxFrameHandler3:PROC
EXTRN	__ftol2_sse:PROC
EXTRN	??_7type_info@@6B@:QWORD			; type_info::`vftable'
EXTRN	?s_pClassMetai3ElementBase@i3ElementBase@@2PAVi3ClassMeta@@A:DWORD ; i3ElementBase::s_pClassMetai3ElementBase
EXTRN	?s_pClassMetai3Timer@i3Timer@@2PAVi3ClassMeta@@A:DWORD ; i3Timer::s_pClassMetai3Timer
EXTRN	___security_cookie:DWORD
EXTRN	__fltused:DWORD
_BSS	SEGMENT
?Result@@3PAY0P@MA DD 087H DUP (?)			; Result
_BSS	ENDS
;	COMDAT ?b@?1??CalcFLOPS_Linpack@@YANHHM@Z@4PAMA
_BSS	SEGMENT
?b@?1??CalcFLOPS_Linpack@@YANHHM@Z@4PAMA DD 0c8H DUP (?) ; `CalcFLOPS_Linpack'::`2'::b
_BSS	ENDS
;	COMDAT ?x@?1??CalcFLOPS_Linpack@@YANHHM@Z@4PAMA
_BSS	SEGMENT
?x@?1??CalcFLOPS_Linpack@@YANHHM@Z@4PAMA DD 0c8H DUP (?) ; `CalcFLOPS_Linpack'::`2'::x
_BSS	ENDS
;	COMDAT ?ipvt@?1??CalcFLOPS_Linpack@@YANHHM@Z@4PAHA
_BSS	SEGMENT
?ipvt@?1??CalcFLOPS_Linpack@@YANHHM@Z@4PAHA DD 0c8H DUP (?) ; `CalcFLOPS_Linpack'::`2'::ipvt
_BSS	ENDS
;	COMDAT ?n@?1??CalcFLOPS_Linpack@@YANHHM@Z@4HA
_BSS	SEGMENT
?n@?1??CalcFLOPS_Linpack@@YANHHM@Z@4HA DD 01H DUP (?)	; `CalcFLOPS_Linpack'::`2'::n
_BSS	ENDS
;	COMDAT ?i@?1??CalcFLOPS_Linpack@@YANHHM@Z@4HA
_BSS	SEGMENT
?i@?1??CalcFLOPS_Linpack@@YANHHM@Z@4HA DD 01H DUP (?)	; `CalcFLOPS_Linpack'::`2'::i
_BSS	ENDS
;	COMDAT ?j@?1??CalcFLOPS_Linpack@@YANHHM@Z@4HA
_BSS	SEGMENT
?j@?1??CalcFLOPS_Linpack@@YANHHM@Z@4HA DD 01H DUP (?)	; `CalcFLOPS_Linpack'::`2'::j
_BSS	ENDS
;	COMDAT ?ntimes@?1??CalcFLOPS_Linpack@@YANHHM@Z@4HA
_BSS	SEGMENT
?ntimes@?1??CalcFLOPS_Linpack@@YANHHM@Z@4HA DD 01H DUP (?) ; `CalcFLOPS_Linpack'::`2'::ntimes
_BSS	ENDS
;	COMDAT ?info@?1??CalcFLOPS_Linpack@@YANHHM@Z@4HA
_BSS	SEGMENT
?info@?1??CalcFLOPS_Linpack@@YANHHM@Z@4HA DD 01H DUP (?) ; `CalcFLOPS_Linpack'::`2'::info
_BSS	ENDS
;	COMDAT ?lda@?1??CalcFLOPS_Linpack@@YANHHM@Z@4HA
_BSS	SEGMENT
?lda@?1??CalcFLOPS_Linpack@@YANHHM@Z@4HA DD 01H DUP (?)	; `CalcFLOPS_Linpack'::`2'::lda
_BSS	ENDS
;	COMDAT ?ldaa@?1??CalcFLOPS_Linpack@@YANHHM@Z@4HA
_BSS	SEGMENT
?ldaa@?1??CalcFLOPS_Linpack@@YANHHM@Z@4HA DD 01H DUP (?) ; `CalcFLOPS_Linpack'::`2'::ldaa
_BSS	ENDS
;	COMDAT __xmm@80000000800000008000000080000000
CONST	SEGMENT
__xmm@80000000800000008000000080000000 DB 00H, 00H, 00H, 080H, 00H, 00H, 00H
	DB	080H, 00H, 00H, 00H, 080H, 00H, 00H, 00H, 080H
CONST	ENDS
;	COMDAT __xmm@7fffffff7fffffff7fffffff7fffffff
CONST	SEGMENT
__xmm@7fffffff7fffffff7fffffff7fffffff DB 0ffH, 0ffH, 0ffH, 07fH, 0ffH, 0ffH
	DB	0ffH, 07fH, 0ffH, 0ffH, 0ffH, 07fH, 0ffH, 0ffH, 0ffH, 07fH
CONST	ENDS
;	COMDAT __real@bff0000000000000
CONST	SEGMENT
__real@bff0000000000000 DQ 0bff0000000000000r	; -1
CONST	ENDS
;	COMDAT __real@412e848000000000
CONST	SEGMENT
__real@412e848000000000 DQ 0412e848000000000r	; 1e+06
CONST	ENDS
;	COMDAT __real@4124f49560000000
CONST	SEGMENT
__real@4124f49560000000 DQ 04124f49560000000r	; 686667
CONST	ENDS
;	COMDAT __real@40e0000000000000
CONST	SEGMENT
__real@40e0000000000000 DQ 040e0000000000000r	; 32768
CONST	ENDS
;	COMDAT __real@4014000000000000
CONST	SEGMENT
__real@4014000000000000 DQ 04014000000000000r	; 5
CONST	ENDS
;	COMDAT __real@4000000000000000
CONST	SEGMENT
__real@4000000000000000 DQ 04000000000000000r	; 2
CONST	ENDS
;	COMDAT __real@3fb999999999999a
CONST	SEGMENT
__real@3fb999999999999a DQ 03fb999999999999ar	; 0.1
CONST	ENDS
;	COMDAT __real@3facac0840000000
CONST	SEGMENT
__real@3facac0840000000 DQ 03facac0840000000r	; 0.056
CONST	ENDS
;	COMDAT __real@3f10000000000000
CONST	SEGMENT
__real@3f10000000000000 DQ 03f10000000000000r	; 6.10352e-05
CONST	ENDS
;	COMDAT __real@3e80000000000000
CONST	SEGMENT
__real@3e80000000000000 DQ 03e80000000000000r	; 1.19209e-07
CONST	ENDS
;	COMDAT __real@00000000
CONST	SEGMENT
__real@00000000 DD 000000000r			; 0
CONST	ENDS
;	COMDAT ??_R1A@?0A@EA@i3Timer@@8
rdata$r	SEGMENT
??_R1A@?0A@EA@i3Timer@@8 DD FLAT:??_R0?AVi3Timer@@@8	; i3Timer::`RTTI Base Class Descriptor at (0,-1,0,64)'
	DD	01H
	DD	00H
	DD	0ffffffffH
	DD	00H
	DD	040H
	DD	FLAT:??_R3i3Timer@@8
rdata$r	ENDS
;	COMDAT ??_R2i3Timer@@8
rdata$r	SEGMENT
??_R2i3Timer@@8 DD FLAT:??_R1A@?0A@EA@i3Timer@@8	; i3Timer::`RTTI Base Class Array'
	DD	FLAT:??_R1A@?0A@EA@i3ElementBase@@8
rdata$r	ENDS
;	COMDAT ??_R3i3Timer@@8
rdata$r	SEGMENT
??_R3i3Timer@@8 DD 00H					; i3Timer::`RTTI Class Hierarchy Descriptor'
	DD	00H
	DD	02H
	DD	FLAT:??_R2i3Timer@@8
rdata$r	ENDS
;	COMDAT ??_R0?AVi3Timer@@@8
data$rs	SEGMENT
??_R0?AVi3Timer@@@8 DD FLAT:??_7type_info@@6B@		; i3Timer `RTTI Type Descriptor'
	DD	00H
	DB	'.?AVi3Timer@@', 00H
data$rs	ENDS
;	COMDAT ??_R4i3Timer@@6B@
rdata$r	SEGMENT
??_R4i3Timer@@6B@ DD 00H				; i3Timer::`RTTI Complete Object Locator'
	DD	00H
	DD	00H
	DD	FLAT:??_R0?AVi3Timer@@@8
	DD	FLAT:??_R3i3Timer@@8
rdata$r	ENDS
;	COMDAT ??_R1A@?0A@EA@i3ClassMeta@@8
rdata$r	SEGMENT
??_R1A@?0A@EA@i3ClassMeta@@8 DD FLAT:??_R0?AVi3ClassMeta@@@8 ; i3ClassMeta::`RTTI Base Class Descriptor at (0,-1,0,64)'
	DD	00H
	DD	00H
	DD	0ffffffffH
	DD	00H
	DD	040H
	DD	FLAT:??_R3i3ClassMeta@@8
rdata$r	ENDS
;	COMDAT ??_R2i3ClassMeta@@8
rdata$r	SEGMENT
??_R2i3ClassMeta@@8 DD FLAT:??_R1A@?0A@EA@i3ClassMeta@@8 ; i3ClassMeta::`RTTI Base Class Array'
rdata$r	ENDS
;	COMDAT ??_R3i3ClassMeta@@8
rdata$r	SEGMENT
??_R3i3ClassMeta@@8 DD 00H				; i3ClassMeta::`RTTI Class Hierarchy Descriptor'
	DD	00H
	DD	01H
	DD	FLAT:??_R2i3ClassMeta@@8
rdata$r	ENDS
;	COMDAT ??_R0?AVi3ClassMeta@@@8
data$rs	SEGMENT
??_R0?AVi3ClassMeta@@@8 DD FLAT:??_7type_info@@6B@	; i3ClassMeta `RTTI Type Descriptor'
	DD	00H
	DB	'.?AVi3ClassMeta@@', 00H
data$rs	ENDS
;	COMDAT ??_R4i3ClassMeta@@6B@
rdata$r	SEGMENT
??_R4i3ClassMeta@@6B@ DD 00H				; i3ClassMeta::`RTTI Complete Object Locator'
	DD	00H
	DD	00H
	DD	FLAT:??_R0?AVi3ClassMeta@@@8
	DD	FLAT:??_R3i3ClassMeta@@8
rdata$r	ENDS
;	COMDAT ??_R1A@?0A@EA@i3MemoryPool@@8
rdata$r	SEGMENT
??_R1A@?0A@EA@i3MemoryPool@@8 DD FLAT:??_R0?AVi3MemoryPool@@@8 ; i3MemoryPool::`RTTI Base Class Descriptor at (0,-1,0,64)'
	DD	00H
	DD	00H
	DD	0ffffffffH
	DD	00H
	DD	040H
	DD	FLAT:??_R3i3MemoryPool@@8
rdata$r	ENDS
;	COMDAT ??_R2i3MemoryPool@@8
rdata$r	SEGMENT
??_R2i3MemoryPool@@8 DD FLAT:??_R1A@?0A@EA@i3MemoryPool@@8 ; i3MemoryPool::`RTTI Base Class Array'
rdata$r	ENDS
;	COMDAT ??_R3i3MemoryPool@@8
rdata$r	SEGMENT
??_R3i3MemoryPool@@8 DD 00H				; i3MemoryPool::`RTTI Class Hierarchy Descriptor'
	DD	00H
	DD	01H
	DD	FLAT:??_R2i3MemoryPool@@8
rdata$r	ENDS
;	COMDAT ??_R0?AVi3MemoryPool@@@8
data$rs	SEGMENT
??_R0?AVi3MemoryPool@@@8 DD FLAT:??_7type_info@@6B@	; i3MemoryPool `RTTI Type Descriptor'
	DD	00H
	DB	'.?AVi3MemoryPool@@', 00H
data$rs	ENDS
;	COMDAT ??_R4i3MemoryPool@@6B@
rdata$r	SEGMENT
??_R4i3MemoryPool@@6B@ DD 00H				; i3MemoryPool::`RTTI Complete Object Locator'
	DD	00H
	DD	00H
	DD	FLAT:??_R0?AVi3MemoryPool@@@8
	DD	FLAT:??_R3i3MemoryPool@@8
rdata$r	ENDS
;	COMDAT ??_R1A@?0A@EA@i3ElementBase@@8
rdata$r	SEGMENT
??_R1A@?0A@EA@i3ElementBase@@8 DD FLAT:??_R0?AVi3ElementBase@@@8 ; i3ElementBase::`RTTI Base Class Descriptor at (0,-1,0,64)'
	DD	00H
	DD	00H
	DD	0ffffffffH
	DD	00H
	DD	040H
	DD	FLAT:??_R3i3ElementBase@@8
rdata$r	ENDS
;	COMDAT ??_R2i3ElementBase@@8
rdata$r	SEGMENT
??_R2i3ElementBase@@8 DD FLAT:??_R1A@?0A@EA@i3ElementBase@@8 ; i3ElementBase::`RTTI Base Class Array'
rdata$r	ENDS
;	COMDAT ??_R3i3ElementBase@@8
rdata$r	SEGMENT
??_R3i3ElementBase@@8 DD 00H				; i3ElementBase::`RTTI Class Hierarchy Descriptor'
	DD	00H
	DD	01H
	DD	FLAT:??_R2i3ElementBase@@8
rdata$r	ENDS
;	COMDAT ??_R0?AVi3ElementBase@@@8
data$rs	SEGMENT
??_R0?AVi3ElementBase@@@8 DD FLAT:??_7type_info@@6B@	; i3ElementBase `RTTI Type Descriptor'
	DD	00H
	DB	'.?AVi3ElementBase@@', 00H
data$rs	ENDS
;	COMDAT ??_R4i3ElementBase@@6B@
rdata$r	SEGMENT
??_R4i3ElementBase@@6B@ DD 00H				; i3ElementBase::`RTTI Complete Object Locator'
	DD	00H
	DD	00H
	DD	FLAT:??_R0?AVi3ElementBase@@@8
	DD	FLAT:??_R3i3ElementBase@@8
rdata$r	ENDS
;	COMDAT ??_C@_0GC@IFBBMDEB@E?3?2Proyectos?2JuegosOnlineproyec@
CONST	SEGMENT
??_C@_0GC@IFBBMDEB@E?3?2Proyectos?2JuegosOnlineproyec@ DB 'E:\Proyectos\J'
	DB	'uegosOnlineproyectos\PB\pbblow\Piercing Blow Remake\i3Server\'
	DB	'src\i3Base\Linpack.cpp', 00H		; `string'
CONST	ENDS
;	COMDAT ??_7i3Timer@@6B@
CONST	SEGMENT
??_7i3Timer@@6B@ DD FLAT:??_R4i3Timer@@6B@		; i3Timer::`vftable'
	DD	FLAT:?GetMeta@i3Timer@@UAEPAVi3ClassMeta@@XZ
	DD	FLAT:??_Ei3Timer@@UAEPAXI@Z
	DD	FLAT:?CopyTo@i3ElementBase@@UAEXPAV1@W4I3_COPY_METHOD@@@Z
CONST	ENDS
;	COMDAT ??_7i3MemoryPool@@6B@
CONST	SEGMENT
??_7i3MemoryPool@@6B@ DD FLAT:??_R4i3MemoryPool@@6B@	; i3MemoryPool::`vftable'
	DD	FLAT:??_Ei3MemoryPool@@UAEPAXI@Z
	DD	FLAT:__purecall
	DD	FLAT:__purecall
CONST	ENDS
;	COMDAT ??_7i3ElementBase@@6B@
CONST	SEGMENT
??_7i3ElementBase@@6B@ DD FLAT:??_R4i3ElementBase@@6B@	; i3ElementBase::`vftable'
	DD	FLAT:?GetMeta@i3ElementBase@@UAEPAVi3ClassMeta@@XZ
	DD	FLAT:??_Ei3ElementBase@@UAEPAXI@Z
	DD	FLAT:?CopyTo@i3ElementBase@@UAEXPAV1@W4I3_COPY_METHOD@@@Z
CONST	ENDS
;	COMDAT ??_7i3ClassMeta@@6B@
CONST	SEGMENT
??_7i3ClassMeta@@6B@ DD FLAT:??_R4i3ClassMeta@@6B@	; i3ClassMeta::`vftable'
	DD	FLAT:??_Ei3ClassMeta@@UAEPAXI@Z
	DD	FLAT:?CreateInstance@i3ClassMeta@@UAEPAVi3ElementBase@@W4I3_CLASSMETA_TYPE@@@Z
	DD	FLAT:?BindInstance@i3ClassMeta@@UAEPAVi3ElementBase@@PAXW4I3_CLASSMETA_TYPE@@@Z
CONST	ENDS
;	COMDAT xdata$x
xdata$x	SEGMENT
__ehfuncinfo$??_Ei3Timer@@UAEPAXI@Z DD 019930522H
	DD	00H
	DD	00H
	DD	2 DUP(00H)
	DD	2 DUP(00H)
	DD	00H
	DD	05H
xdata$x	ENDS
;	COMDAT xdata$x
xdata$x	SEGMENT
__ehfuncinfo$??_Ei3MemoryPool@@UAEPAXI@Z DD 019930522H
	DD	00H
	DD	00H
	DD	2 DUP(00H)
	DD	2 DUP(00H)
	DD	00H
	DD	05H
xdata$x	ENDS
;	COMDAT xdata$x
xdata$x	SEGMENT
__ehfuncinfo$??_Ei3ElementBase@@UAEPAXI@Z DD 019930522H
	DD	00H
	DD	00H
	DD	2 DUP(00H)
	DD	2 DUP(00H)
	DD	00H
	DD	05H
xdata$x	ENDS
;	COMDAT xdata$x
xdata$x	SEGMENT
__ehfuncinfo$??_Ei3ClassMeta@@UAEPAXI@Z DD 019930522H
	DD	00H
	DD	00H
	DD	2 DUP(00H)
	DD	2 DUP(00H)
	DD	00H
	DD	05H
xdata$x	ENDS
; Function compile flags: /Ogtp
; File E:\Proyectos\JuegosOnlineproyectos\PB\pbblow\Piercing Blow Remake\i3Server\src\i3Base\Linpack.cpp
;	COMDAT ?CalcFLOPS_Linpack@@YANHHM@Z
_TEXT	SEGMENT
tv1516 = -84						; size = 8
tv1513 = -84						; size = 8
tv1505 = -84						; size = 8
tv1495 = -84						; size = 8
tv1492 = -84						; size = 8
tv1414 = -84						; size = 8
tv1485 = -84						; size = 8
tv1544 = -76						; size = 8
tv1541 = -76						; size = 8
_liFreq$1 = -76						; size = 8
_liFreq$2 = -76						; size = 8
_liFreq$3 = -68						; size = 8
tv1425 = -68						; size = 8
tv1426 = -68						; size = 8
tv1578 = -60						; size = 8
tv1570 = -60						; size = 8
_liFreq$4 = -60						; size = 8
tv1624 = -60						; size = 8
tv1604 = -60						; size = 8
tv1601 = -60						; size = 8
tv1593 = -60						; size = 8
_liFreq$5 = -60						; size = 8
tv1581 = -60						; size = 8
tv1645 = -52						; size = 8
tv1641 = -52						; size = 8
_liFreq$6 = -52						; size = 8
_liFreq$7 = -52						; size = 8
tv1730 = -44						; size = 8
_liDiff$8 = -44						; size = 8
_liDiff$9 = -44						; size = 8
_liDiff$10 = -44					; size = 8
tv1185 = -44						; size = 8
tv1714 = -44						; size = 8
tv1711 = -44						; size = 8
tv1727 = -44						; size = 8
_liDiff$11 = -36					; size = 8
_liDiff$12 = -36					; size = 8
_liFreq$13 = -36					; size = 8
_liFreq$14 = -36					; size = 8
_liDiff$15 = -36					; size = 8
_liDiff$16 = -36					; size = 8
tv1674 = -28						; size = 8
tv1677 = -28						; size = 8
tv586 = -24						; size = 4
tv1666 = -24						; size = 4
tv1424 = -24						; size = 4
_aa$1$ = -20						; size = 4
_a$1$ = -16						; size = 4
_liDiff$17 = -12					; size = 8
_liDiff$18 = -12					; size = 8
_overhead1$ = -8					; size = 4
_total$ = -8						; size = 4
tv1656 = -8						; size = 4
_pass$1$ = -8						; size = 4
_norma$ = -4						; size = 4
_NTIMES$ = 8						; size = 4
tv1634 = 8						; size = 4
tv1534 = 12						; size = 4
tv1836 = 12						; size = 4
tv1617 = 12						; size = 4
tv467 = 12						; size = 4
_PASS_COUNT$ = 12					; size = 4
_tm2$ = 12						; size = 4
_max1$ = 12						; size = 4
_max2$ = 12						; size = 4
tv1250 = 12						; size = 4
tv981 = 12						; size = 4
tv1315 = 12						; size = 4
tv1306 = 12						; size = 4
tv1756 = 12						; size = 4
tv1770 = 12						; size = 4
tv1850 = 12						; size = 4
$T19 = 12						; size = 4
tv1528 = 12						; size = 4
tv1531 = 12						; size = 4
$T20 = 12						; size = 4
tv1643 = 16						; size = 4
tv1571 = 16						; size = 4
_loop$ = 16						; size = 4
tv560 = 16						; size = 4
_RUN_SECS$ = 16						; size = 4
?CalcFLOPS_Linpack@@YANHHM@Z PROC			; CalcFLOPS_Linpack, COMDAT

; 86   : {

  00000	55		 push	 ebp
  00001	8b ec		 mov	 ebp, esp
  00003	83 ec 54	 sub	 esp, 84			; 00000054H
  00006	f3 0f 10 45 10	 movss	 xmm0, DWORD PTR _RUN_SECS$[ebp]
  0000b	56		 push	 esi
  0000c	57		 push	 edi

; 87   : 	static REAL32 b[200], x[200];       
; 88   : 	static INT32 ipvt[200],n,i,j,ntimes,info,lda,ldaa;
; 89   : 	REAL32 cray,ops,total,norma,normx;
; 90   : 	REAL32 resid,residn,eps,tm2,epsn,x1,x2;
; 91   : 	INT32 pass, loop;
; 92   : 	REAL32 overhead1, overhead2, time2;
; 93   : 	REAL32 max1, max2;
; 94   : 	REAL32 * aa = NULL;
; 95   : 	REAL32 * a = NULL;
; 96   : 
; 97   : 	aa = (REAL32 *) i3MemAlloc( sizeof(REAL32) * 200 * 200);

  0000d	6a 61		 push	 97			; 00000061H
  0000f	68 00 00 00 00	 push	 OFFSET ??_C@_0GC@IFBBMDEB@E?3?2Proyectos?2JuegosOnlineproyec@
  00014	6a 10		 push	 16			; 00000010H
  00016	6a 00		 push	 0
  00018	68 00 71 02 00	 push	 160000			; 00027100H
  0001d	f3 0f 11 45 e8	 movss	 DWORD PTR tv586[ebp], xmm0
  00022	e8 00 00 00 00	 call	 ?AllocTool@i3mem@@YAPAXHHHPBDH@Z ; i3mem::AllocTool

; 98   : 	I3ASSERT( aa != NULL);
; 99   : 
; 100  : 	a =  (REAL32 *) i3MemAlloc( sizeof(REAL32) * 200 * 201);

  00027	6a 64		 push	 100			; 00000064H
  00029	68 00 00 00 00	 push	 OFFSET ??_C@_0GC@IFBBMDEB@E?3?2Proyectos?2JuegosOnlineproyec@
  0002e	6a 10		 push	 16			; 00000010H
  00030	6a 00		 push	 0
  00032	68 20 74 02 00	 push	 160800			; 00027420H
  00037	89 45 ec	 mov	 DWORD PTR _aa$1$[ebp], eax
  0003a	e8 00 00 00 00	 call	 ?AllocTool@i3mem@@YAPAXHHHPBDH@Z ; i3mem::AllocTool
  0003f	8b f0		 mov	 esi, eax

; 101  : 	I3ASSERT( a != NULL);
; 102  : 
; 103  : 	lda = 201;

  00041	c7 05 00 00 00
	00 c9 00 00 00	 mov	 DWORD PTR ?lda@?1??CalcFLOPS_Linpack@@YANHHM@Z@4HA, 201 ; 000000c9H

; 104  : 	ldaa = 200;
; 105  : 	cray = .056f;
; 106  : 	n = 100;
; 107  : 
; 108  : 	ops = (2.0e0f * (n*n*n)) / 3.0f + 2.0f * (n*n);
; 109  : 
; 110  : 	matgen( a, lda, n, b, &norma);

  0004b	8d 45 fc	 lea	 eax, DWORD PTR _norma$[ebp]
  0004e	89 75 f0	 mov	 DWORD PTR _a$1$[ebp], esi
  00051	50		 push	 eax
  00052	68 00 00 00 00	 push	 OFFSET ?b@?1??CalcFLOPS_Linpack@@YANHHM@Z@4PAMA
  00057	6a 64		 push	 100			; 00000064H
  00059	68 c9 00 00 00	 push	 201			; 000000c9H
  0005e	56		 push	 esi
  0005f	c7 05 00 00 00
	00 c8 00 00 00	 mov	 DWORD PTR ?ldaa@?1??CalcFLOPS_Linpack@@YANHHM@Z@4HA, 200 ; 000000c8H
  00069	c7 05 00 00 00
	00 64 00 00 00	 mov	 DWORD PTR ?n@?1??CalcFLOPS_Linpack@@YANHHM@Z@4HA, 100 ; 00000064H
  00073	e8 00 00 00 00	 call	 ?matgen@@YAXQAMHH0PAM@Z	; matgen

; 1021 :     QueryPerformanceCounter(&starttime);

  00078	8b 3d 00 00 00
	00		 mov	 edi, DWORD PTR __imp__QueryPerformanceCounter@4

; 104  : 	ldaa = 200;
; 105  : 	cray = .056f;
; 106  : 	n = 100;
; 107  : 
; 108  : 	ops = (2.0e0f * (n*n*n)) / 3.0f + 2.0f * (n*n);
; 109  : 
; 110  : 	matgen( a, lda, n, b, &norma);

  0007e	83 c4 3c	 add	 esp, 60			; 0000003cH

; 1021 :     QueryPerformanceCounter(&starttime);

  00081	68 00 00 00 00	 push	 OFFSET ?starttime@@3T_LARGE_INTEGER@@A ; starttime
  00086	ff d7		 call	 edi

; 111  : 
; 112  : 	start_time();
; 113  : 	dgefa( a, lda, n, ipvt, &info);

  00088	68 00 00 00 00	 push	 OFFSET ?info@?1??CalcFLOPS_Linpack@@YANHHM@Z@4HA
  0008d	68 00 00 00 00	 push	 OFFSET ?ipvt@?1??CalcFLOPS_Linpack@@YANHHM@Z@4PAHA
  00092	ff 35 00 00 00
	00		 push	 DWORD PTR ?n@?1??CalcFLOPS_Linpack@@YANHHM@Z@4HA
  00098	ff 35 00 00 00
	00		 push	 DWORD PTR ?lda@?1??CalcFLOPS_Linpack@@YANHHM@Z@4HA
  0009e	56		 push	 esi
  0009f	e8 00 00 00 00	 call	 ?dgefa@@YAXQAMHHQAHPAH@Z ; dgefa
  000a4	83 c4 14	 add	 esp, 20			; 00000014H

; 1029 :     QueryPerformanceCounter(&liDiff);

  000a7	8d 45 f4	 lea	 eax, DWORD PTR _liDiff$17[ebp]
  000aa	50		 push	 eax
  000ab	ff d7		 call	 edi

; 1030 : 
; 1031 :     liDiff.QuadPart -= starttime.QuadPart;

  000ad	a1 00 00 00 00	 mov	 eax, DWORD PTR ?starttime@@3T_LARGE_INTEGER@@A
  000b2	29 45 f4	 sub	 DWORD PTR _liDiff$17[ebp], eax
  000b5	a1 04 00 00 00	 mov	 eax, DWORD PTR ?starttime@@3T_LARGE_INTEGER@@A+4
  000ba	19 45 f8	 sbb	 DWORD PTR _liDiff$17[ebp+4], eax

; 1032 : 
; 1033 :     (void)QueryPerformanceFrequency(&liFreq);

  000bd	8d 45 dc	 lea	 eax, DWORD PTR _liFreq$13[ebp]
  000c0	50		 push	 eax
  000c1	ff 15 00 00 00
	00		 call	 DWORD PTR __imp__QueryPerformanceFrequency@4

; 1034 : 
; 1035 :     secs = (double)liDiff.QuadPart / (double) liFreq.QuadPart;

  000c7	df 6d f4	 fild	 QWORD PTR _liDiff$17[ebp]

; 1021 :     QueryPerformanceCounter(&starttime);

  000ca	68 00 00 00 00	 push	 OFFSET ?starttime@@3T_LARGE_INTEGER@@A ; starttime

; 1035 :     secs = (double)liDiff.QuadPart / (double) liFreq.QuadPart;

  000cf	dd 5d d4	 fstp	 QWORD PTR tv1730[ebp]
  000d2	dd 45 d4	 fld	 QWORD PTR tv1730[ebp]
  000d5	df 6d dc	 fild	 QWORD PTR _liFreq$13[ebp]
  000d8	dd 5d d4	 fstp	 QWORD PTR tv1727[ebp]
  000db	dc 75 d4	 fdiv	 QWORD PTR tv1727[ebp]
  000de	dd 15 00 00 00
	00		 fst	 QWORD PTR ?secs@@3NA	; secs

; 114  : 	end_time();
; 115  : 	Result[0][0] = (REAL32) secs;

  000e4	d9 1d 00 00 00
	00		 fstp	 DWORD PTR ?Result@@3PAY0P@MA

; 1021 :     QueryPerformanceCounter(&starttime);

  000ea	ff d7		 call	 edi

; 116  : 
; 117  : 	start_time();
; 118  : 	dgesl(a,lda,n,ipvt,b,0);

  000ec	6a 00		 push	 0
  000ee	68 00 00 00 00	 push	 OFFSET ?b@?1??CalcFLOPS_Linpack@@YANHHM@Z@4PAMA
  000f3	68 00 00 00 00	 push	 OFFSET ?ipvt@?1??CalcFLOPS_Linpack@@YANHHM@Z@4PAHA
  000f8	ff 35 00 00 00
	00		 push	 DWORD PTR ?n@?1??CalcFLOPS_Linpack@@YANHHM@Z@4HA
  000fe	ff 35 00 00 00
	00		 push	 DWORD PTR ?lda@?1??CalcFLOPS_Linpack@@YANHHM@Z@4HA
  00104	56		 push	 esi
  00105	e8 00 00 00 00	 call	 ?dgesl@@YAXQAMHHQAH0H@Z	; dgesl
  0010a	83 c4 18	 add	 esp, 24			; 00000018H

; 1029 :     QueryPerformanceCounter(&liDiff);

  0010d	8d 45 f4	 lea	 eax, DWORD PTR _liDiff$18[ebp]
  00110	50		 push	 eax
  00111	ff d7		 call	 edi

; 1030 : 
; 1031 :     liDiff.QuadPart -= starttime.QuadPart;

  00113	a1 00 00 00 00	 mov	 eax, DWORD PTR ?starttime@@3T_LARGE_INTEGER@@A
  00118	29 45 f4	 sub	 DWORD PTR _liDiff$18[ebp], eax
  0011b	a1 04 00 00 00	 mov	 eax, DWORD PTR ?starttime@@3T_LARGE_INTEGER@@A+4
  00120	19 45 f8	 sbb	 DWORD PTR _liDiff$18[ebp+4], eax

; 1032 : 
; 1033 :     (void)QueryPerformanceFrequency(&liFreq);

  00123	8d 45 dc	 lea	 eax, DWORD PTR _liFreq$14[ebp]
  00126	50		 push	 eax
  00127	ff 15 00 00 00
	00		 call	 DWORD PTR __imp__QueryPerformanceFrequency@4

; 1034 : 
; 1035 :     secs = (double)liDiff.QuadPart / (double) liFreq.QuadPart;

  0012d	df 6d f4	 fild	 QWORD PTR _liDiff$18[ebp]
  00130	dd 5d d4	 fstp	 QWORD PTR tv1714[ebp]
  00133	dd 45 d4	 fld	 QWORD PTR tv1714[ebp]
  00136	df 6d dc	 fild	 QWORD PTR _liFreq$14[ebp]
  00139	dd 5d d4	 fstp	 QWORD PTR tv1711[ebp]
  0013c	dc 75 d4	 fdiv	 QWORD PTR tv1711[ebp]

; 123  : 
; 124  : 	//     compute a residual to verify results.
; 125  : 
; 126  : 	for (i = 0; i < n; i++) 

  0013f	8b 3d 00 00 00
	00		 mov	 edi, DWORD PTR ?n@?1??CalcFLOPS_Linpack@@YANHHM@Z@4HA

; 1035 :     secs = (double)liDiff.QuadPart / (double) liFreq.QuadPart;

  00145	dd 15 00 00 00
	00		 fst	 QWORD PTR ?secs@@3NA	; secs
  0014b	d9 5d 10	 fstp	 DWORD PTR tv1571[ebp]

; 119  : 	end_time();
; 120  : 	Result[1][0] = (REAL32) secs;

  0014e	d9 45 10	 fld	 DWORD PTR tv1571[ebp]
  00151	d9 15 3c 00 00
	00		 fst	 DWORD PTR ?Result@@3PAY0P@MA+60

; 121  : 
; 122  : 	total = Result[0][0] + Result[1][0];

  00157	d8 05 00 00 00
	00		 fadd	 DWORD PTR ?Result@@3PAY0P@MA
  0015d	d9 5d f8	 fstp	 DWORD PTR _total$[ebp]
  00160	d9 45 f8	 fld	 DWORD PTR _total$[ebp]
  00163	d9 5d 10	 fstp	 DWORD PTR tv560[ebp]

; 123  : 
; 124  : 	//     compute a residual to verify results.
; 125  : 
; 126  : 	for (i = 0; i < n; i++) 

  00166	85 ff		 test	 edi, edi
  00168	7e 1b		 jle	 SHORT $LN3@CalcFLOPS_
  0016a	33 c9		 xor	 ecx, ecx
  0016c	33 c0		 xor	 eax, eax
  0016e	8b ff		 npad	 2
$LL4@CalcFLOPS_:

; 127  : 	{
; 128  : 		x[i] = b[i];

  00170	d9 04 85 00 00
	00 00		 fld	 DWORD PTR ?b@?1??CalcFLOPS_Linpack@@YANHHM@Z@4PAMA[eax*4]
  00177	41		 inc	 ecx
  00178	d9 1c 85 00 00
	00 00		 fstp	 DWORD PTR ?x@?1??CalcFLOPS_Linpack@@YANHHM@Z@4PAMA[eax*4]
  0017f	8b c1		 mov	 eax, ecx
  00181	3b c7		 cmp	 eax, edi
  00183	7c eb		 jl	 SHORT $LL4@CalcFLOPS_
$LN3@CalcFLOPS_:

; 129  : 	}
; 130  : 
; 131  : 	matgen(a,lda,n,b,&norma);

  00185	8d 45 fc	 lea	 eax, DWORD PTR _norma$[ebp]
  00188	50		 push	 eax
  00189	68 00 00 00 00	 push	 OFFSET ?b@?1??CalcFLOPS_Linpack@@YANHHM@Z@4PAMA
  0018e	57		 push	 edi
  0018f	ff 35 00 00 00
	00		 push	 DWORD PTR ?lda@?1??CalcFLOPS_Linpack@@YANHHM@Z@4HA
  00195	56		 push	 esi
  00196	e8 00 00 00 00	 call	 ?matgen@@YAXQAMHH0PAM@Z	; matgen
  0019b	83 c4 14	 add	 esp, 20			; 00000014H

; 132  : 
; 133  : 	for (i = 0; i < n; i++) 

  0019e	85 ff		 test	 edi, edi
  001a0	7e 2a		 jle	 SHORT $LN6@CalcFLOPS_
  001a2	f3 0f 10 0d 00
	00 00 00	 movss	 xmm1, DWORD PTR __xmm@80000000800000008000000080000000
  001aa	33 c9		 xor	 ecx, ecx
  001ac	33 c0		 xor	 eax, eax
  001ae	8b ff		 npad	 2
$LL7@CalcFLOPS_:

; 134  : 	{
; 135  : 		b[i] = -b[i];

  001b0	f3 0f 10 04 85
	00 00 00 00	 movss	 xmm0, DWORD PTR ?b@?1??CalcFLOPS_Linpack@@YANHHM@Z@4PAMA[eax*4]
  001b9	41		 inc	 ecx
  001ba	0f 57 c1	 xorps	 xmm0, xmm1
  001bd	f3 0f 11 04 85
	00 00 00 00	 movss	 DWORD PTR ?b@?1??CalcFLOPS_Linpack@@YANHHM@Z@4PAMA[eax*4], xmm0
  001c6	8b c1		 mov	 eax, ecx
  001c8	3b c7		 cmp	 eax, edi
  001ca	7c e4		 jl	 SHORT $LL7@CalcFLOPS_
$LN6@CalcFLOPS_:

; 136  : 	}
; 137  : 	dmxpy(n,b,n,lda,x,a);

  001cc	56		 push	 esi
  001cd	68 00 00 00 00	 push	 OFFSET ?x@?1??CalcFLOPS_Linpack@@YANHHM@Z@4PAMA
  001d2	ff 35 00 00 00
	00		 push	 DWORD PTR ?lda@?1??CalcFLOPS_Linpack@@YANHHM@Z@4HA
  001d8	57		 push	 edi
  001d9	68 00 00 00 00	 push	 OFFSET ?b@?1??CalcFLOPS_Linpack@@YANHHM@Z@4PAMA
  001de	57		 push	 edi
  001df	e8 00 00 00 00	 call	 ?dmxpy@@YAXHQAMHH00@Z	; dmxpy
  001e4	83 c4 18	 add	 esp, 24			; 00000018H

; 138  : 
; 139  : 	resid = 0.0;
; 140  : 	normx = 0.0;
; 141  : 	for (i = 0; i < n; i++) 

  001e7	c7 05 00 00 00
	00 00 00 00 00	 mov	 DWORD PTR ?i@?1??CalcFLOPS_Linpack@@YANHHM@Z@4HA, 0
  001f1	85 ff		 test	 edi, edi
  001f3	7e 0c		 jle	 SHORT $LL183@CalcFLOPS_
  001f5	33 c0		 xor	 eax, eax
$LL10@CalcFLOPS_:

; 142  : 	{
; 143  : 		resid = (REAL32)((resid > fabs((double)b[i])) ? resid : fabs((double)b[i]));
; 144  : 		normx = (REAL32)((normx > fabs((double)x[i])) ? normx : fabs((double)x[i]));

  001f7	40		 inc	 eax
  001f8	3b c7		 cmp	 eax, edi
  001fa	7c fb		 jl	 SHORT $LL10@CalcFLOPS_

; 138  : 
; 139  : 	resid = 0.0;
; 140  : 	normx = 0.0;
; 141  : 	for (i = 0; i < n; i++) 

  001fc	a3 00 00 00 00	 mov	 DWORD PTR ?i@?1??CalcFLOPS_Linpack@@YANHHM@Z@4HA, eax
$LL183@CalcFLOPS_:

; 145  : 	}
; 146  : 
; 147  : 	eps = epslon(ONE);
; 148  : 	residn = resid/( n*norma*normx*eps );
; 149  : 	epsn = eps;
; 150  : 	x1 = x[0] - 1;
; 151  : 	x2 = x[n-1] - 1;
; 152  : 
; 153  : 	Result[2][0] = total;

  00201	d9 45 10	 fld	 DWORD PTR tv560[ebp]
  00204	f3 0f 10 45 f8	 movss	 xmm0, DWORD PTR _total$[ebp]

; 154  : 	if (total > 0.0)

  00209	0f 2f 05 00 00
	00 00		 comiss	 xmm0, DWORD PTR __real@00000000
  00210	dd 05 00 00 00
	00		 fld	 QWORD PTR __real@412e848000000000
  00216	dd 05 00 00 00
	00		 fld	 QWORD PTR __real@4124f49560000000
  0021c	dd 05 00 00 00
	00		 fld	 QWORD PTR __real@4000000000000000
  00222	f3 0f 11 05 78
	00 00 00	 movss	 DWORD PTR ?Result@@3PAY0P@MA+120, xmm0
  0022a	76 20		 jbe	 SHORT $LN240@CalcFLOPS_

; 155  : 	{
; 156  : 		Result[3][0] = ops / (1.0e6f * total);

  0022c	d9 c3		 fld	 ST(3)
  0022e	de cb		 fmulp	 ST(3), ST(0)
  00230	d9 c9		 fxch	 ST(1)
  00232	de f2		 fdivrp	 ST(2), ST(0)
  00234	d9 c9		 fxch	 ST(1)
  00236	d9 5d 10	 fstp	 DWORD PTR tv1643[ebp]
  00239	d9 45 10	 fld	 DWORD PTR tv1643[ebp]
  0023c	d9 15 b4 00 00
	00		 fst	 DWORD PTR ?Result@@3PAY0P@MA+180

; 157  : 		Result[4][0] = 2.0f / Result[3][0];

  00242	de f9		 fdivp	 ST(1), ST(0)
  00244	d9 1d f0 00 00
	00		 fstp	 DWORD PTR ?Result@@3PAY0P@MA+240

; 158  : 	}

  0024a	eb 1a		 jmp	 SHORT $LN51@CalcFLOPS_
$LN240@CalcFLOPS_:

; 154  : 	if (total > 0.0)

  0024c	dd da		 fstp	 ST(2)

; 159  : 	else
; 160  : 	{
; 161  : 		Result[3][0] = 0.0f;

  0024e	c7 05 b4 00 00
	00 00 00 00 00	 mov	 DWORD PTR ?Result@@3PAY0P@MA+180, 0
  00258	dd d8		 fstp	 ST(0)

; 162  : 		Result[4][0] = 0.0f;

  0025a	c7 05 f0 00 00
	00 00 00 00 00	 mov	 DWORD PTR ?Result@@3PAY0P@MA+240, 0
  00264	dd d8		 fstp	 ST(0)
$LN51@CalcFLOPS_:

; 163  : 	}
; 164  : 	Result[5][0] = total/cray;

  00266	dc 35 00 00 00
	00		 fdiv	 QWORD PTR __real@3facac0840000000

; 165  : 
; 166  : 	//*********************************************************************
; 167  : 	//      Calculate overhead of executing matgen procedure              *
; 168  : 	//*********************************************************************
; 169  : 	pass = - PASS_COUNT;

  0026c	8b 45 0c	 mov	 eax, DWORD PTR _PASS_COUNT$[ebp]

; 170  : 	loop = NTIMES;

  0026f	8b 7d 08	 mov	 edi, DWORD PTR _NTIMES$[ebp]
  00272	f7 d8		 neg	 eax
  00274	89 45 0c	 mov	 DWORD PTR _PASS_COUNT$[ebp], eax
  00277	89 45 f8	 mov	 DWORD PTR _pass$1$[ebp], eax
  0027a	89 7d 10	 mov	 DWORD PTR _loop$[ebp], edi
  0027d	d9 1d 2c 01 00
	00		 fstp	 DWORD PTR ?Result@@3PAY0P@MA+300
  00283	d9 45 e8	 fld	 DWORD PTR tv586[ebp]
  00286	dd 5d d4	 fstp	 QWORD PTR tv1185[ebp]
  00289	8d a4 24 00 00
	00 00		 npad	 7
$LL13@CalcFLOPS_:

; 1021 :     QueryPerformanceCounter(&starttime);

  00290	68 00 00 00 00	 push	 OFFSET ?starttime@@3T_LARGE_INTEGER@@A ; starttime
  00295	ff 15 00 00 00
	00		 call	 DWORD PTR __imp__QueryPerformanceCounter@4

; 171  : 	do
; 172  : 	{
; 173  : 		start_time();
; 174  : 		pass = pass + 1;        

  0029b	ff 45 f8	 inc	 DWORD PTR _pass$1$[ebp]

; 175  : 		for ( i = 0 ; i < loop ; i++)

  0029e	c7 05 00 00 00
	00 00 00 00 00	 mov	 DWORD PTR ?i@?1??CalcFLOPS_Linpack@@YANHHM@Z@4HA, 0
  002a8	85 ff		 test	 edi, edi
  002aa	7e 31		 jle	 SHORT $LN15@CalcFLOPS_
  002ac	33 ff		 xor	 edi, edi
  002ae	8b ff		 npad	 2
$LL16@CalcFLOPS_:

; 176  : 		{
; 177  : 			matgen(a,lda,n,b,&norma);

  002b0	8d 45 fc	 lea	 eax, DWORD PTR _norma$[ebp]
  002b3	50		 push	 eax
  002b4	68 00 00 00 00	 push	 OFFSET ?b@?1??CalcFLOPS_Linpack@@YANHHM@Z@4PAMA
  002b9	ff 35 00 00 00
	00		 push	 DWORD PTR ?n@?1??CalcFLOPS_Linpack@@YANHHM@Z@4HA
  002bf	ff 35 00 00 00
	00		 push	 DWORD PTR ?lda@?1??CalcFLOPS_Linpack@@YANHHM@Z@4HA
  002c5	56		 push	 esi
  002c6	e8 00 00 00 00	 call	 ?matgen@@YAXQAMHH0PAM@Z	; matgen
  002cb	47		 inc	 edi
  002cc	83 c4 14	 add	 esp, 20			; 00000014H
  002cf	3b 7d 10	 cmp	 edi, DWORD PTR _loop$[ebp]
  002d2	7c dc		 jl	 SHORT $LL16@CalcFLOPS_

; 175  : 		for ( i = 0 ; i < loop ; i++)

  002d4	89 3d 00 00 00
	00		 mov	 DWORD PTR ?i@?1??CalcFLOPS_Linpack@@YANHHM@Z@4HA, edi
  002da	8b 7d 10	 mov	 edi, DWORD PTR _loop$[ebp]
$LN15@CalcFLOPS_:

; 1029 :     QueryPerformanceCounter(&liDiff);

  002dd	8d 45 dc	 lea	 eax, DWORD PTR _liDiff$15[ebp]
  002e0	50		 push	 eax
  002e1	ff 15 00 00 00
	00		 call	 DWORD PTR __imp__QueryPerformanceCounter@4

; 1030 : 
; 1031 :     liDiff.QuadPart -= starttime.QuadPart;

  002e7	a1 00 00 00 00	 mov	 eax, DWORD PTR ?starttime@@3T_LARGE_INTEGER@@A
  002ec	29 45 dc	 sub	 DWORD PTR _liDiff$15[ebp], eax
  002ef	a1 04 00 00 00	 mov	 eax, DWORD PTR ?starttime@@3T_LARGE_INTEGER@@A+4
  002f4	19 45 e0	 sbb	 DWORD PTR _liDiff$15[ebp+4], eax

; 1032 : 
; 1033 :     (void)QueryPerformanceFrequency(&liFreq);

  002f7	8d 45 cc	 lea	 eax, DWORD PTR _liFreq$7[ebp]
  002fa	50		 push	 eax
  002fb	ff 15 00 00 00
	00		 call	 DWORD PTR __imp__QueryPerformanceFrequency@4

; 1034 : 
; 1035 :     secs = (double)liDiff.QuadPart / (double) liFreq.QuadPart;

  00301	df 6d dc	 fild	 QWORD PTR _liDiff$15[ebp]
  00304	dd 5d e4	 fstp	 QWORD PTR tv1677[ebp]
  00307	dd 45 e4	 fld	 QWORD PTR tv1677[ebp]
  0030a	df 6d cc	 fild	 QWORD PTR _liFreq$7[ebp]
  0030d	dd 5d e4	 fstp	 QWORD PTR tv1674[ebp]
  00310	dc 75 e4	 fdiv	 QWORD PTR tv1674[ebp]
  00313	dd 15 00 00 00
	00		 fst	 QWORD PTR ?secs@@3NA	; secs
  00319	d9 5d e8	 fstp	 DWORD PTR tv1666[ebp]

; 178  : 		}
; 179  : 		end_time();
; 180  : 		overhead1 = (REAL32) secs;
; 181  : 
; 182  : 		if (overhead1 > RUN_SECS)

  0031c	dd 45 d4	 fld	 QWORD PTR tv1185[ebp]

; 1035 :     secs = (double)liDiff.QuadPart / (double) liFreq.QuadPart;

  0031f	d9 45 e8	 fld	 DWORD PTR tv1666[ebp]

; 178  : 		}
; 179  : 		end_time();
; 180  : 		overhead1 = (REAL32) secs;
; 181  : 
; 182  : 		if (overhead1 > RUN_SECS)

  00322	db f1		 fcomi	 ST(1)
  00324	dd d9		 fstp	 ST(1)
  00326	77 27		 ja	 SHORT $LN199@CalcFLOPS_

; 185  : 		}
; 186  : 
; 187  : 		if (pass < 0)

  00328	8b 4d f8	 mov	 ecx, DWORD PTR _pass$1$[ebp]
  0032b	85 c9		 test	 ecx, ecx
  0032d	79 12		 jns	 SHORT $LN11@CalcFLOPS_

; 188  : 		{
; 189  : 			if (overhead1 < 0.1)

  0032f	dd 05 00 00 00
	00		 fld	 QWORD PTR __real@3fb999999999999a
  00335	df f1		 fcomip	 ST(1)
  00337	76 03		 jbe	 SHORT $LN54@CalcFLOPS_

; 190  : 				loop = loop * 10;

  00339	8d 3c bf	 lea	 edi, DWORD PTR [edi+edi*4]
$LN54@CalcFLOPS_:

; 191  : 			else
; 192  : 				loop = loop * 2;
; 193  : 		}
; 194  : 	} while (pass < 0);

  0033c	03 ff		 add	 edi, edi
  0033e	89 7d 10	 mov	 DWORD PTR _loop$[ebp], edi
$LN11@CalcFLOPS_:
  00341	89 7d e8	 mov	 DWORD PTR tv1424[ebp], edi
  00344	85 c9		 test	 ecx, ecx
  00346	79 0a		 jns	 SHORT $LN197@CalcFLOPS_
  00348	dd d8		 fstp	 ST(0)
  0034a	e9 41 ff ff ff	 jmp	 $LL13@CalcFLOPS_
$LN199@CalcFLOPS_:

; 183  : 		{
; 184  : 			pass = 0;

  0034f	89 7d e8	 mov	 DWORD PTR tv1424[ebp], edi
$LN197@CalcFLOPS_:

; 195  : 
; 196  : 	overhead1 = overhead1 / (REAL32)loop;

  00352	db 45 10	 fild	 DWORD PTR _loop$[ebp]

; 197  : 
; 198  : 	//***********************************************************************
; 199  : 	//           Calculate matgen/dgefa passes for RUN_SECS seconds          
; 200  : 	//***********************************************************************
; 201  : 	pass = - PASS_COUNT;
; 202  : 	ntimes = NTIMES;

  00355	8b 45 08	 mov	 eax, DWORD PTR _NTIMES$[ebp]
  00358	8b 3d 00 00 00
	00		 mov	 edi, DWORD PTR __imp__QueryPerformanceCounter@4
  0035e	d9 5d f8	 fstp	 DWORD PTR tv1656[ebp]
  00361	d9 45 f8	 fld	 DWORD PTR tv1656[ebp]
  00364	dd 55 ac	 fst	 QWORD PTR tv1414[ebp]
  00367	de f9		 fdivp	 ST(1), ST(0)
  00369	d9 5d f8	 fstp	 DWORD PTR _overhead1$[ebp]
$LN284@CalcFLOPS_:

; 1021 :     QueryPerformanceCounter(&starttime);

  0036c	68 00 00 00 00	 push	 OFFSET ?starttime@@3T_LARGE_INTEGER@@A ; starttime
  00371	a3 00 00 00 00	 mov	 DWORD PTR ?ntimes@?1??CalcFLOPS_Linpack@@YANHHM@Z@4HA, eax
  00376	ff d7		 call	 edi

; 203  : 	do
; 204  : 	{
; 205  : 		start_time();
; 206  : 		pass = pass + 1;        

  00378	ff 45 0c	 inc	 DWORD PTR _PASS_COUNT$[ebp]

; 207  : 		for ( i = 0 ; i < ntimes ; i++)

  0037b	83 3d 00 00 00
	00 00		 cmp	 DWORD PTR ?ntimes@?1??CalcFLOPS_Linpack@@YANHHM@Z@4HA, 0
  00382	c7 05 00 00 00
	00 00 00 00 00	 mov	 DWORD PTR ?i@?1??CalcFLOPS_Linpack@@YANHHM@Z@4HA, 0
  0038c	7e 53		 jle	 SHORT $LN21@CalcFLOPS_
  0038e	8b ff		 npad	 2
$LL22@CalcFLOPS_:

; 208  : 		{
; 209  : 			matgen(a,lda,n,b,&norma);

  00390	8b 3d 00 00 00
	00		 mov	 edi, DWORD PTR ?n@?1??CalcFLOPS_Linpack@@YANHHM@Z@4HA
  00396	8d 45 fc	 lea	 eax, DWORD PTR _norma$[ebp]
  00399	8b 35 00 00 00
	00		 mov	 esi, DWORD PTR ?lda@?1??CalcFLOPS_Linpack@@YANHHM@Z@4HA
  0039f	50		 push	 eax
  003a0	8b 45 f0	 mov	 eax, DWORD PTR _a$1$[ebp]
  003a3	68 00 00 00 00	 push	 OFFSET ?b@?1??CalcFLOPS_Linpack@@YANHHM@Z@4PAMA
  003a8	57		 push	 edi
  003a9	56		 push	 esi
  003aa	50		 push	 eax
  003ab	e8 00 00 00 00	 call	 ?matgen@@YAXQAMHH0PAM@Z	; matgen

; 210  : 			dgefa(a,lda,n,ipvt,&info );

  003b0	68 00 00 00 00	 push	 OFFSET ?info@?1??CalcFLOPS_Linpack@@YANHHM@Z@4HA
  003b5	68 00 00 00 00	 push	 OFFSET ?ipvt@?1??CalcFLOPS_Linpack@@YANHHM@Z@4PAHA
  003ba	57		 push	 edi
  003bb	56		 push	 esi
  003bc	8b 75 f0	 mov	 esi, DWORD PTR _a$1$[ebp]
  003bf	56		 push	 esi
  003c0	e8 00 00 00 00	 call	 ?dgefa@@YAXQAMHHQAHPAH@Z ; dgefa
  003c5	a1 00 00 00 00	 mov	 eax, DWORD PTR ?i@?1??CalcFLOPS_Linpack@@YANHHM@Z@4HA
  003ca	83 c4 28	 add	 esp, 40			; 00000028H
  003cd	40		 inc	 eax
  003ce	a3 00 00 00 00	 mov	 DWORD PTR ?i@?1??CalcFLOPS_Linpack@@YANHHM@Z@4HA, eax
  003d3	3b 05 00 00 00
	00		 cmp	 eax, DWORD PTR ?ntimes@?1??CalcFLOPS_Linpack@@YANHHM@Z@4HA
  003d9	7c b5		 jl	 SHORT $LL22@CalcFLOPS_
  003db	8b 3d 00 00 00
	00		 mov	 edi, DWORD PTR __imp__QueryPerformanceCounter@4
$LN21@CalcFLOPS_:

; 1029 :     QueryPerformanceCounter(&liDiff);

  003e1	8d 45 dc	 lea	 eax, DWORD PTR _liDiff$11[ebp]
  003e4	50		 push	 eax
  003e5	ff d7		 call	 edi

; 1030 : 
; 1031 :     liDiff.QuadPart -= starttime.QuadPart;

  003e7	a1 00 00 00 00	 mov	 eax, DWORD PTR ?starttime@@3T_LARGE_INTEGER@@A
  003ec	29 45 dc	 sub	 DWORD PTR _liDiff$11[ebp], eax
  003ef	a1 04 00 00 00	 mov	 eax, DWORD PTR ?starttime@@3T_LARGE_INTEGER@@A+4
  003f4	19 45 e0	 sbb	 DWORD PTR _liDiff$11[ebp+4], eax

; 1032 : 
; 1033 :     (void)QueryPerformanceFrequency(&liFreq);

  003f7	8d 45 c4	 lea	 eax, DWORD PTR _liFreq$5[ebp]
  003fa	50		 push	 eax
  003fb	ff 15 00 00 00
	00		 call	 DWORD PTR __imp__QueryPerformanceFrequency@4

; 1034 : 
; 1035 :     secs = (double)liDiff.QuadPart / (double) liFreq.QuadPart;

  00401	df 6d dc	 fild	 QWORD PTR _liDiff$11[ebp]
  00404	dd 5d cc	 fstp	 QWORD PTR tv1645[ebp]
  00407	dd 45 cc	 fld	 QWORD PTR tv1645[ebp]
  0040a	df 6d c4	 fild	 QWORD PTR _liFreq$5[ebp]
  0040d	dd 5d cc	 fstp	 QWORD PTR tv1641[ebp]
  00410	dc 75 cc	 fdiv	 QWORD PTR tv1641[ebp]
  00413	dd 15 00 00 00
	00		 fst	 QWORD PTR ?secs@@3NA	; secs
  00419	d9 5d 08	 fstp	 DWORD PTR tv1634[ebp]

; 211  : 		}
; 212  : 		end_time();
; 213  : 		time2 = (REAL32) secs;
; 214  : 
; 215  : 		if (time2 > RUN_SECS)

  0041c	dd 45 d4	 fld	 QWORD PTR tv1185[ebp]

; 1035 :     secs = (double)liDiff.QuadPart / (double) liFreq.QuadPart;

  0041f	d9 45 08	 fld	 DWORD PTR tv1634[ebp]

; 211  : 		}
; 212  : 		end_time();
; 213  : 		time2 = (REAL32) secs;
; 214  : 
; 215  : 		if (time2 > RUN_SECS)

  00422	db f1		 fcomi	 ST(1)
  00424	77 24		 ja	 SHORT $LN182@CalcFLOPS_

; 216  : 		{
; 217  : 			pass = 0;
; 218  : 		}
; 219  : 
; 220  : 		if (pass < 0)

  00426	8b 45 0c	 mov	 eax, DWORD PTR _PASS_COUNT$[ebp]
  00429	85 c0		 test	 eax, eax
  0042b	79 1d		 jns	 SHORT $LN182@CalcFLOPS_

; 221  : 		{
; 222  : 			if (time2 < 0.1)

  0042d	a1 00 00 00 00	 mov	 eax, DWORD PTR ?ntimes@?1??CalcFLOPS_Linpack@@YANHHM@Z@4HA
  00432	dd d9		 fstp	 ST(1)
  00434	dd 05 00 00 00
	00		 fld	 QWORD PTR __real@3fb999999999999a
  0043a	df f1		 fcomip	 ST(1)
  0043c	dd d8		 fstp	 ST(0)
  0043e	76 03		 jbe	 SHORT $LN58@CalcFLOPS_

; 223  : 				ntimes = ntimes * 10;

  00440	8d 04 80	 lea	 eax, DWORD PTR [eax+eax*4]
$LN58@CalcFLOPS_:

; 224  : 			else
; 225  : 				ntimes = ntimes * 2;
; 226  : 		}
; 227  : 	} while (pass < 0);

  00443	03 c0		 add	 eax, eax
  00445	e9 22 ff ff ff	 jmp	 $LN284@CalcFLOPS_
$LN182@CalcFLOPS_:

; 228  : 
; 229  : 	ntimes =  (INT32)(RUN_SECS * (double)ntimes / time2);

  0044a	db 05 00 00 00
	00		 fild	 DWORD PTR ?ntimes@?1??CalcFLOPS_Linpack@@YANHHM@Z@4HA
  00450	dd 5d c4	 fstp	 QWORD PTR tv1624[ebp]
  00453	dd 45 c4	 fld	 QWORD PTR tv1624[ebp]
  00456	de ca		 fmulp	 ST(2), ST(0)
  00458	de f9		 fdivp	 ST(1), ST(0)
  0045a	e8 00 00 00 00	 call	 __ftol2_sse
  0045f	a3 00 00 00 00	 mov	 DWORD PTR ?ntimes@?1??CalcFLOPS_Linpack@@YANHHM@Z@4HA, eax
  00464	89 45 0c	 mov	 DWORD PTR $T19[ebp], eax
  00467	85 c0		 test	 eax, eax

; 230  : 	if (ntimes == 0) ntimes = 1;

  00469	75 11		 jne	 SHORT $LN60@CalcFLOPS_
  0046b	c7 05 00 00 00
	00 01 00 00 00	 mov	 DWORD PTR ?ntimes@?1??CalcFLOPS_Linpack@@YANHHM@Z@4HA, 1
  00475	c7 45 0c 01 00
	00 00		 mov	 DWORD PTR $T19[ebp], 1
$LN60@CalcFLOPS_:

; 231  : 
; 232  : 	//**********************************************************************
; 233  : 	//                             Execute 5 passes                        *
; 234  : 	//**********************************************************************
; 235  : 	I3TRACE( "Execute 5 passed : %d times\n", ntimes);
; 236  : 
; 237  : 	tm2 = ntimes * overhead1;

  0047c	db 45 0c	 fild	 DWORD PTR $T19[ebp]
  0047f	d9 5d 0c	 fstp	 DWORD PTR tv1617[ebp]
  00482	d9 45 0c	 fld	 DWORD PTR tv1617[ebp]
  00485	d8 4d f8	 fmul	 DWORD PTR _overhead1$[ebp]

; 238  : 	Result[3][6] = 0;

  00488	c7 05 cc 00 00
	00 00 00 00 00	 mov	 DWORD PTR ?Result@@3PAY0P@MA+204, 0

; 239  : 
; 240  : 	for (j=1 ; j<6 ; j++)

  00492	c7 05 00 00 00
	00 01 00 00 00	 mov	 DWORD PTR ?j@?1??CalcFLOPS_Linpack@@YANHHM@Z@4HA, 1
  0049c	d9 5d 0c	 fstp	 DWORD PTR _tm2$[ebp]
  0049f	d9 45 0c	 fld	 DWORD PTR _tm2$[ebp]
  004a2	dd 5d bc	 fstp	 QWORD PTR tv1426[ebp]
$LL25@CalcFLOPS_:

; 1021 :     QueryPerformanceCounter(&starttime);

  004a5	68 00 00 00 00	 push	 OFFSET ?starttime@@3T_LARGE_INTEGER@@A ; starttime
  004aa	ff d7		 call	 edi

; 241  : 	{
; 242  : 		start_time();
; 243  : 		for (i = 0; i < ntimes; i++)

  004ac	83 3d 00 00 00
	00 00		 cmp	 DWORD PTR ?ntimes@?1??CalcFLOPS_Linpack@@YANHHM@Z@4HA, 0
  004b3	c7 05 00 00 00
	00 00 00 00 00	 mov	 DWORD PTR ?i@?1??CalcFLOPS_Linpack@@YANHHM@Z@4HA, 0
  004bd	7e 52		 jle	 SHORT $LN27@CalcFLOPS_
  004bf	90		 npad	 1
$LL28@CalcFLOPS_:

; 244  : 		{
; 245  : 			matgen(a,lda,n,b,&norma);

  004c0	8b 3d 00 00 00
	00		 mov	 edi, DWORD PTR ?n@?1??CalcFLOPS_Linpack@@YANHHM@Z@4HA
  004c6	8d 45 fc	 lea	 eax, DWORD PTR _norma$[ebp]
  004c9	8b 35 00 00 00
	00		 mov	 esi, DWORD PTR ?lda@?1??CalcFLOPS_Linpack@@YANHHM@Z@4HA
  004cf	50		 push	 eax
  004d0	8b 45 f0	 mov	 eax, DWORD PTR _a$1$[ebp]
  004d3	68 00 00 00 00	 push	 OFFSET ?b@?1??CalcFLOPS_Linpack@@YANHHM@Z@4PAMA
  004d8	57		 push	 edi
  004d9	56		 push	 esi
  004da	50		 push	 eax
  004db	e8 00 00 00 00	 call	 ?matgen@@YAXQAMHH0PAM@Z	; matgen

; 246  : 			dgefa(a,lda,n,ipvt,&info );

  004e0	68 00 00 00 00	 push	 OFFSET ?info@?1??CalcFLOPS_Linpack@@YANHHM@Z@4HA
  004e5	68 00 00 00 00	 push	 OFFSET ?ipvt@?1??CalcFLOPS_Linpack@@YANHHM@Z@4PAHA
  004ea	57		 push	 edi
  004eb	56		 push	 esi
  004ec	8b 75 f0	 mov	 esi, DWORD PTR _a$1$[ebp]
  004ef	56		 push	 esi
  004f0	e8 00 00 00 00	 call	 ?dgefa@@YAXQAMHHQAHPAH@Z ; dgefa
  004f5	a1 00 00 00 00	 mov	 eax, DWORD PTR ?i@?1??CalcFLOPS_Linpack@@YANHHM@Z@4HA
  004fa	83 c4 28	 add	 esp, 40			; 00000028H
  004fd	40		 inc	 eax
  004fe	a3 00 00 00 00	 mov	 DWORD PTR ?i@?1??CalcFLOPS_Linpack@@YANHHM@Z@4HA, eax
  00503	3b 05 00 00 00
	00		 cmp	 eax, DWORD PTR ?ntimes@?1??CalcFLOPS_Linpack@@YANHHM@Z@4HA
  00509	7c b5		 jl	 SHORT $LL28@CalcFLOPS_
  0050b	8b 3d 00 00 00
	00		 mov	 edi, DWORD PTR __imp__QueryPerformanceCounter@4
$LN27@CalcFLOPS_:

; 1029 :     QueryPerformanceCounter(&liDiff);

  00511	8d 45 dc	 lea	 eax, DWORD PTR _liDiff$12[ebp]
  00514	50		 push	 eax
  00515	ff d7		 call	 edi

; 1030 : 
; 1031 :     liDiff.QuadPart -= starttime.QuadPart;

  00517	a1 00 00 00 00	 mov	 eax, DWORD PTR ?starttime@@3T_LARGE_INTEGER@@A
  0051c	29 45 dc	 sub	 DWORD PTR _liDiff$12[ebp], eax
  0051f	a1 04 00 00 00	 mov	 eax, DWORD PTR ?starttime@@3T_LARGE_INTEGER@@A+4
  00524	19 45 e0	 sbb	 DWORD PTR _liDiff$12[ebp+4], eax

; 1032 : 
; 1033 :     (void)QueryPerformanceFrequency(&liFreq);

  00527	8d 45 cc	 lea	 eax, DWORD PTR _liFreq$6[ebp]
  0052a	50		 push	 eax
  0052b	ff 15 00 00 00
	00		 call	 DWORD PTR __imp__QueryPerformanceFrequency@4

; 1034 : 
; 1035 :     secs = (double)liDiff.QuadPart / (double) liFreq.QuadPart;

  00531	df 6d dc	 fild	 QWORD PTR _liDiff$12[ebp]

; 1021 :     QueryPerformanceCounter(&starttime);

  00534	68 00 00 00 00	 push	 OFFSET ?starttime@@3T_LARGE_INTEGER@@A ; starttime

; 1035 :     secs = (double)liDiff.QuadPart / (double) liFreq.QuadPart;

  00539	dd 5d c4	 fstp	 QWORD PTR tv1604[ebp]
  0053c	dd 45 c4	 fld	 QWORD PTR tv1604[ebp]
  0053f	df 6d cc	 fild	 QWORD PTR _liFreq$6[ebp]
  00542	dd 5d c4	 fstp	 QWORD PTR tv1601[ebp]
  00545	dc 75 c4	 fdiv	 QWORD PTR tv1601[ebp]
  00548	dd 15 00 00 00
	00		 fst	 QWORD PTR ?secs@@3NA	; secs

; 247  : 		}
; 248  : 		end_time();
; 249  : 		Result[0][j] = (REAL32)((secs - tm2) / ntimes);

  0054e	dc 65 bc	 fsub	 QWORD PTR tv1426[ebp]
  00551	db 05 00 00 00
	00		 fild	 DWORD PTR ?ntimes@?1??CalcFLOPS_Linpack@@YANHHM@Z@4HA
  00557	dd 5d c4	 fstp	 QWORD PTR tv1593[ebp]
  0055a	dc 75 c4	 fdiv	 QWORD PTR tv1593[ebp]
  0055d	a1 00 00 00 00	 mov	 eax, DWORD PTR ?j@?1??CalcFLOPS_Linpack@@YANHHM@Z@4HA
  00562	d9 1c 85 00 00
	00 00		 fstp	 DWORD PTR ?Result@@3PAY0P@MA[eax*4]

; 1021 :     QueryPerformanceCounter(&starttime);

  00569	ff d7		 call	 edi

; 250  : 
; 251  : 		start_time();              
; 252  : 		for (i = 0; i < ntimes; i++)

  0056b	83 3d 00 00 00
	00 00		 cmp	 DWORD PTR ?ntimes@?1??CalcFLOPS_Linpack@@YANHHM@Z@4HA, 0
  00572	c7 05 00 00 00
	00 00 00 00 00	 mov	 DWORD PTR ?i@?1??CalcFLOPS_Linpack@@YANHHM@Z@4HA, 0
  0057c	7e 36		 jle	 SHORT $LN30@CalcFLOPS_
  0057e	8b ff		 npad	 2
$LL31@CalcFLOPS_:

; 253  : 		{
; 254  : 			dgesl(a,lda,n,ipvt,b,0);

  00580	6a 00		 push	 0
  00582	68 00 00 00 00	 push	 OFFSET ?b@?1??CalcFLOPS_Linpack@@YANHHM@Z@4PAMA
  00587	68 00 00 00 00	 push	 OFFSET ?ipvt@?1??CalcFLOPS_Linpack@@YANHHM@Z@4PAHA
  0058c	ff 35 00 00 00
	00		 push	 DWORD PTR ?n@?1??CalcFLOPS_Linpack@@YANHHM@Z@4HA
  00592	ff 35 00 00 00
	00		 push	 DWORD PTR ?lda@?1??CalcFLOPS_Linpack@@YANHHM@Z@4HA
  00598	56		 push	 esi
  00599	e8 00 00 00 00	 call	 ?dgesl@@YAXQAMHHQAH0H@Z	; dgesl
  0059e	a1 00 00 00 00	 mov	 eax, DWORD PTR ?i@?1??CalcFLOPS_Linpack@@YANHHM@Z@4HA
  005a3	83 c4 18	 add	 esp, 24			; 00000018H
  005a6	40		 inc	 eax
  005a7	a3 00 00 00 00	 mov	 DWORD PTR ?i@?1??CalcFLOPS_Linpack@@YANHHM@Z@4HA, eax
  005ac	3b 05 00 00 00
	00		 cmp	 eax, DWORD PTR ?ntimes@?1??CalcFLOPS_Linpack@@YANHHM@Z@4HA
  005b2	7c cc		 jl	 SHORT $LL31@CalcFLOPS_
$LN30@CalcFLOPS_:

; 1029 :     QueryPerformanceCounter(&liDiff);

  005b4	8d 45 d4	 lea	 eax, DWORD PTR _liDiff$9[ebp]
  005b7	50		 push	 eax
  005b8	ff d7		 call	 edi

; 1030 : 
; 1031 :     liDiff.QuadPart -= starttime.QuadPart;

  005ba	a1 00 00 00 00	 mov	 eax, DWORD PTR ?starttime@@3T_LARGE_INTEGER@@A
  005bf	29 45 d4	 sub	 DWORD PTR _liDiff$9[ebp], eax
  005c2	a1 04 00 00 00	 mov	 eax, DWORD PTR ?starttime@@3T_LARGE_INTEGER@@A+4
  005c7	19 45 d8	 sbb	 DWORD PTR _liDiff$9[ebp+4], eax

; 1032 : 
; 1033 :     (void)QueryPerformanceFrequency(&liFreq);

  005ca	8d 45 b4	 lea	 eax, DWORD PTR _liFreq$2[ebp]
  005cd	50		 push	 eax
  005ce	ff 15 00 00 00
	00		 call	 DWORD PTR __imp__QueryPerformanceFrequency@4

; 1034 : 
; 1035 :     secs = (double)liDiff.QuadPart / (double) liFreq.QuadPart;

  005d4	df 6d d4	 fild	 QWORD PTR _liDiff$9[ebp]
  005d7	dd 5d c4	 fstp	 QWORD PTR tv1581[ebp]
  005da	dd 45 c4	 fld	 QWORD PTR tv1581[ebp]
  005dd	df 6d b4	 fild	 QWORD PTR _liFreq$2[ebp]
  005e0	dd 5d c4	 fstp	 QWORD PTR tv1578[ebp]
  005e3	dc 75 c4	 fdiv	 QWORD PTR tv1578[ebp]
  005e6	dd 15 00 00 00
	00		 fst	 QWORD PTR ?secs@@3NA	; secs

; 255  : 		}
; 256  : 		end_time();
; 257  : 
; 258  : 		Result[1][j] = (REAL32)(secs / ntimes);

  005ec	db 05 00 00 00
	00		 fild	 DWORD PTR ?ntimes@?1??CalcFLOPS_Linpack@@YANHHM@Z@4HA
  005f2	dd 5d c4	 fstp	 QWORD PTR tv1570[ebp]
  005f5	dc 75 c4	 fdiv	 QWORD PTR tv1570[ebp]
  005f8	a1 00 00 00 00	 mov	 eax, DWORD PTR ?j@?1??CalcFLOPS_Linpack@@YANHHM@Z@4HA
  005fd	d9 5d 0c	 fstp	 DWORD PTR tv1756[ebp]
  00600	d9 45 0c	 fld	 DWORD PTR tv1756[ebp]
  00603	d9 14 85 3c 00
	00 00		 fst	 DWORD PTR ?Result@@3PAY0P@MA[eax*4+60]

; 259  : 		total       = Result[0][j] + Result[1][j];

  0060a	d8 04 85 00 00
	00 00		 fadd	 DWORD PTR ?Result@@3PAY0P@MA[eax*4]
  00611	d9 5d f8	 fstp	 DWORD PTR _total$[ebp]

; 260  : 		Result[2][j] = total;

  00614	d9 45 f8	 fld	 DWORD PTR _total$[ebp]
  00617	d9 14 85 78 00
	00 00		 fst	 DWORD PTR ?Result@@3PAY0P@MA[eax*4+120]

; 261  : 		Result[3][j] = ops / (1.0e6f * total);

  0061e	d9 c0		 fld	 ST(0)
  00620	dc 0d 00 00 00
	00		 fmul	 QWORD PTR __real@412e848000000000
  00626	dc 3d 00 00 00
	00		 fdivr	 QWORD PTR __real@4124f49560000000
  0062c	d9 5d 0c	 fstp	 DWORD PTR tv1770[ebp]
  0062f	d9 45 0c	 fld	 DWORD PTR tv1770[ebp]
  00632	d9 14 85 b4 00
	00 00		 fst	 DWORD PTR ?Result@@3PAY0P@MA[eax*4+180]

; 262  : 		Result[4][j] = 2.0f / Result[3][j];

  00639	dc 3d 00 00 00
	00		 fdivr	 QWORD PTR __real@4000000000000000
  0063f	d9 1c 85 f0 00
	00 00		 fstp	 DWORD PTR ?Result@@3PAY0P@MA[eax*4+240]

; 263  : 		Result[5][j] = total / cray;

  00646	dc 35 00 00 00
	00		 fdiv	 QWORD PTR __real@3facac0840000000
  0064c	d9 1c 85 2c 01
	00 00		 fstp	 DWORD PTR ?Result@@3PAY0P@MA[eax*4+300]

; 264  : 		Result[3][6] = Result[3][6] + Result[3][j];

  00653	d9 04 85 b4 00
	00 00		 fld	 DWORD PTR ?Result@@3PAY0P@MA[eax*4+180]
  0065a	40		 inc	 eax
  0065b	a3 00 00 00 00	 mov	 DWORD PTR ?j@?1??CalcFLOPS_Linpack@@YANHHM@Z@4HA, eax
  00660	d8 05 cc 00 00
	00		 fadd	 DWORD PTR ?Result@@3PAY0P@MA+204
  00666	d9 5d 0c	 fstp	 DWORD PTR tv1250[ebp]
  00669	d9 45 0c	 fld	 DWORD PTR tv1250[ebp]
  0066c	d9 55 0c	 fst	 DWORD PTR tv981[ebp]
  0066f	d9 1d cc 00 00
	00		 fstp	 DWORD PTR ?Result@@3PAY0P@MA+204
  00675	83 f8 06	 cmp	 eax, 6
  00678	0f 8c 27 fe ff
	ff		 jl	 $LL25@CalcFLOPS_

; 265  : 	}
; 266  : 	Result[3][6] = Result[3][6] / 5.0f;

  0067e	d9 45 0c	 fld	 DWORD PTR tv981[ebp]
  00681	dc 35 00 00 00
	00		 fdiv	 QWORD PTR __real@4014000000000000

; 1021 :     QueryPerformanceCounter(&starttime);

  00687	68 00 00 00 00	 push	 OFFSET ?starttime@@3T_LARGE_INTEGER@@A ; starttime

; 265  : 	}
; 266  : 	Result[3][6] = Result[3][6] / 5.0f;

  0068c	d9 1d cc 00 00
	00		 fstp	 DWORD PTR ?Result@@3PAY0P@MA+204

; 1021 :     QueryPerformanceCounter(&starttime);

  00692	ff d7		 call	 edi

; 267  : 
; 268  : 	//**********************************************************************
; 269  : 	//            Calculate overhead of executing matgen procedure         *
; 270  : 	//**********************************************************************
; 271  : 	start_time();
; 272  : 	for ( i = 0 ; i < loop ; i++)

  00694	83 7d 10 00	 cmp	 DWORD PTR _loop$[ebp], 0
  00698	8b 75 ec	 mov	 esi, DWORD PTR _aa$1$[ebp]
  0069b	c7 05 00 00 00
	00 00 00 00 00	 mov	 DWORD PTR ?i@?1??CalcFLOPS_Linpack@@YANHHM@Z@4HA, 0
  006a5	7e 38		 jle	 SHORT $LN33@CalcFLOPS_
  006a7	c7 45 0c 00 00
	00 00		 mov	 DWORD PTR $T20[ebp], 0
  006ae	8b ff		 npad	 2
$LL34@CalcFLOPS_:

; 273  : 	{
; 274  : 		matgen( aa,ldaa,n,b,&norma);    

  006b0	8d 45 fc	 lea	 eax, DWORD PTR _norma$[ebp]
  006b3	50		 push	 eax
  006b4	68 00 00 00 00	 push	 OFFSET ?b@?1??CalcFLOPS_Linpack@@YANHHM@Z@4PAMA
  006b9	ff 35 00 00 00
	00		 push	 DWORD PTR ?n@?1??CalcFLOPS_Linpack@@YANHHM@Z@4HA
  006bf	ff 35 00 00 00
	00		 push	 DWORD PTR ?ldaa@?1??CalcFLOPS_Linpack@@YANHHM@Z@4HA
  006c5	56		 push	 esi
  006c6	e8 00 00 00 00	 call	 ?matgen@@YAXQAMHH0PAM@Z	; matgen
  006cb	8b 45 0c	 mov	 eax, DWORD PTR $T20[ebp]
  006ce	83 c4 14	 add	 esp, 20			; 00000014H
  006d1	40		 inc	 eax
  006d2	89 45 0c	 mov	 DWORD PTR $T20[ebp], eax
  006d5	a3 00 00 00 00	 mov	 DWORD PTR ?i@?1??CalcFLOPS_Linpack@@YANHHM@Z@4HA, eax
  006da	3b 45 e8	 cmp	 eax, DWORD PTR tv1424[ebp]
  006dd	7c d1		 jl	 SHORT $LL34@CalcFLOPS_
$LN33@CalcFLOPS_:

; 1029 :     QueryPerformanceCounter(&liDiff);

  006df	8d 45 d4	 lea	 eax, DWORD PTR _liDiff$10[ebp]
  006e2	50		 push	 eax
  006e3	ff d7		 call	 edi

; 1030 : 
; 1031 :     liDiff.QuadPart -= starttime.QuadPart;

  006e5	a1 00 00 00 00	 mov	 eax, DWORD PTR ?starttime@@3T_LARGE_INTEGER@@A
  006ea	29 45 d4	 sub	 DWORD PTR _liDiff$10[ebp], eax
  006ed	a1 04 00 00 00	 mov	 eax, DWORD PTR ?starttime@@3T_LARGE_INTEGER@@A+4
  006f2	19 45 d8	 sbb	 DWORD PTR _liDiff$10[ebp+4], eax

; 1032 : 
; 1033 :     (void)QueryPerformanceFrequency(&liFreq);

  006f5	8d 45 bc	 lea	 eax, DWORD PTR _liFreq$3[ebp]
  006f8	50		 push	 eax
  006f9	ff 15 00 00 00
	00		 call	 DWORD PTR __imp__QueryPerformanceFrequency@4

; 1034 : 
; 1035 :     secs = (double)liDiff.QuadPart / (double) liFreq.QuadPart;

  006ff	df 6d d4	 fild	 QWORD PTR _liDiff$10[ebp]
  00702	dd 5d b4	 fstp	 QWORD PTR tv1544[ebp]
  00705	dd 45 b4	 fld	 QWORD PTR tv1544[ebp]
  00708	df 6d bc	 fild	 QWORD PTR _liFreq$3[ebp]
  0070b	dd 5d b4	 fstp	 QWORD PTR tv1541[ebp]
  0070e	dc 75 b4	 fdiv	 QWORD PTR tv1541[ebp]
  00711	dd 15 00 00 00
	00		 fst	 QWORD PTR ?secs@@3NA	; secs
  00717	d9 5d 0c	 fstp	 DWORD PTR tv1534[ebp]
  0071a	d9 45 0c	 fld	 DWORD PTR tv1534[ebp]

; 275  : 	}
; 276  : 	end_time();
; 277  : 
; 278  : 	overhead2 = (REAL32) secs;
; 279  : 	overhead2 = overhead2 / loop;

  0071d	dc 75 ac	 fdiv	 QWORD PTR tv1414[ebp]
  00720	d9 5d 0c	 fstp	 DWORD PTR tv1531[ebp]
  00723	d9 45 0c	 fld	 DWORD PTR tv1531[ebp]

; 280  : 
; 281  : 	//**********************************************************************
; 282  : 	//                             Execute 5 passes                        *
; 283  : 	//**********************************************************************
; 284  : 	tm2 = ntimes * overhead2;

  00726	db 05 00 00 00
	00		 fild	 DWORD PTR ?ntimes@?1??CalcFLOPS_Linpack@@YANHHM@Z@4HA
  0072c	d9 5d 0c	 fstp	 DWORD PTR tv1528[ebp]
  0072f	d8 4d 0c	 fmul	 DWORD PTR tv1528[ebp]

; 285  : 	Result[3][12] = 0.0f;

  00732	c7 05 e4 00 00
	00 00 00 00 00	 mov	 DWORD PTR ?Result@@3PAY0P@MA+228, 0

; 286  : 
; 287  : 	for (j=7 ; j<12 ; j++)

  0073c	c7 05 00 00 00
	00 07 00 00 00	 mov	 DWORD PTR ?j@?1??CalcFLOPS_Linpack@@YANHHM@Z@4HA, 7
  00746	d9 5d 0c	 fstp	 DWORD PTR _tm2$[ebp]
  00749	d9 45 0c	 fld	 DWORD PTR _tm2$[ebp]
  0074c	dd 5d bc	 fstp	 QWORD PTR tv1425[ebp]
  0074f	90		 npad	 1
$LL37@CalcFLOPS_:

; 1021 :     QueryPerformanceCounter(&starttime);

  00750	68 00 00 00 00	 push	 OFFSET ?starttime@@3T_LARGE_INTEGER@@A ; starttime
  00755	ff d7		 call	 edi

; 288  : 	{
; 289  : 		start_time();
; 290  : 		for (i = 0; i < ntimes; i++)

  00757	83 3d 00 00 00
	00 00		 cmp	 DWORD PTR ?ntimes@?1??CalcFLOPS_Linpack@@YANHHM@Z@4HA, 0
  0075e	c7 05 00 00 00
	00 00 00 00 00	 mov	 DWORD PTR ?i@?1??CalcFLOPS_Linpack@@YANHHM@Z@4HA, 0
  00768	7e 57		 jle	 SHORT $LN39@CalcFLOPS_
  0076a	8d 9b 00 00 00
	00		 npad	 6
$LL40@CalcFLOPS_:

; 291  : 		{
; 292  : 			matgen(aa,ldaa,n,b,&norma);

  00770	8b 3d 00 00 00
	00		 mov	 edi, DWORD PTR ?n@?1??CalcFLOPS_Linpack@@YANHHM@Z@4HA
  00776	8d 45 fc	 lea	 eax, DWORD PTR _norma$[ebp]
  00779	8b 35 00 00 00
	00		 mov	 esi, DWORD PTR ?ldaa@?1??CalcFLOPS_Linpack@@YANHHM@Z@4HA
  0077f	50		 push	 eax
  00780	8b 45 ec	 mov	 eax, DWORD PTR _aa$1$[ebp]
  00783	68 00 00 00 00	 push	 OFFSET ?b@?1??CalcFLOPS_Linpack@@YANHHM@Z@4PAMA
  00788	57		 push	 edi
  00789	56		 push	 esi
  0078a	50		 push	 eax
  0078b	e8 00 00 00 00	 call	 ?matgen@@YAXQAMHH0PAM@Z	; matgen

; 293  : 			dgefa(aa,ldaa,n,ipvt,&info  );

  00790	68 00 00 00 00	 push	 OFFSET ?info@?1??CalcFLOPS_Linpack@@YANHHM@Z@4HA
  00795	68 00 00 00 00	 push	 OFFSET ?ipvt@?1??CalcFLOPS_Linpack@@YANHHM@Z@4PAHA
  0079a	57		 push	 edi
  0079b	56		 push	 esi
  0079c	8b 75 ec	 mov	 esi, DWORD PTR _aa$1$[ebp]
  0079f	56		 push	 esi
  007a0	e8 00 00 00 00	 call	 ?dgefa@@YAXQAMHHQAHPAH@Z ; dgefa
  007a5	a1 00 00 00 00	 mov	 eax, DWORD PTR ?i@?1??CalcFLOPS_Linpack@@YANHHM@Z@4HA
  007aa	83 c4 28	 add	 esp, 40			; 00000028H
  007ad	40		 inc	 eax
  007ae	a3 00 00 00 00	 mov	 DWORD PTR ?i@?1??CalcFLOPS_Linpack@@YANHHM@Z@4HA, eax
  007b3	3b 05 00 00 00
	00		 cmp	 eax, DWORD PTR ?ntimes@?1??CalcFLOPS_Linpack@@YANHHM@Z@4HA
  007b9	7c b5		 jl	 SHORT $LL40@CalcFLOPS_
  007bb	8b 3d 00 00 00
	00		 mov	 edi, DWORD PTR __imp__QueryPerformanceCounter@4
$LN39@CalcFLOPS_:

; 1029 :     QueryPerformanceCounter(&liDiff);

  007c1	8d 45 d4	 lea	 eax, DWORD PTR _liDiff$8[ebp]
  007c4	50		 push	 eax
  007c5	ff d7		 call	 edi

; 1030 : 
; 1031 :     liDiff.QuadPart -= starttime.QuadPart;

  007c7	a1 00 00 00 00	 mov	 eax, DWORD PTR ?starttime@@3T_LARGE_INTEGER@@A
  007cc	29 45 d4	 sub	 DWORD PTR _liDiff$8[ebp], eax
  007cf	a1 04 00 00 00	 mov	 eax, DWORD PTR ?starttime@@3T_LARGE_INTEGER@@A+4
  007d4	19 45 d8	 sbb	 DWORD PTR _liDiff$8[ebp+4], eax

; 1032 : 
; 1033 :     (void)QueryPerformanceFrequency(&liFreq);

  007d7	8d 45 b4	 lea	 eax, DWORD PTR _liFreq$1[ebp]
  007da	50		 push	 eax
  007db	ff 15 00 00 00
	00		 call	 DWORD PTR __imp__QueryPerformanceFrequency@4

; 1034 : 
; 1035 :     secs = (double)liDiff.QuadPart / (double) liFreq.QuadPart;

  007e1	df 6d d4	 fild	 QWORD PTR _liDiff$8[ebp]

; 1021 :     QueryPerformanceCounter(&starttime);

  007e4	68 00 00 00 00	 push	 OFFSET ?starttime@@3T_LARGE_INTEGER@@A ; starttime

; 1035 :     secs = (double)liDiff.QuadPart / (double) liFreq.QuadPart;

  007e9	dd 5d ac	 fstp	 QWORD PTR tv1516[ebp]
  007ec	dd 45 ac	 fld	 QWORD PTR tv1516[ebp]
  007ef	df 6d b4	 fild	 QWORD PTR _liFreq$1[ebp]
  007f2	dd 5d ac	 fstp	 QWORD PTR tv1513[ebp]
  007f5	dc 75 ac	 fdiv	 QWORD PTR tv1513[ebp]
  007f8	dd 15 00 00 00
	00		 fst	 QWORD PTR ?secs@@3NA	; secs

; 294  : 		}
; 295  : 		end_time();
; 296  : 		Result[0][j] = (REAL32)((secs - tm2) / ntimes);

  007fe	dc 65 bc	 fsub	 QWORD PTR tv1425[ebp]
  00801	db 05 00 00 00
	00		 fild	 DWORD PTR ?ntimes@?1??CalcFLOPS_Linpack@@YANHHM@Z@4HA
  00807	dd 5d ac	 fstp	 QWORD PTR tv1505[ebp]
  0080a	dc 75 ac	 fdiv	 QWORD PTR tv1505[ebp]
  0080d	a1 00 00 00 00	 mov	 eax, DWORD PTR ?j@?1??CalcFLOPS_Linpack@@YANHHM@Z@4HA
  00812	d9 1c 85 00 00
	00 00		 fstp	 DWORD PTR ?Result@@3PAY0P@MA[eax*4]

; 1021 :     QueryPerformanceCounter(&starttime);

  00819	ff d7		 call	 edi

; 297  : 
; 298  : 		start_time();      
; 299  : 		for (i = 0; i < ntimes; i++)

  0081b	83 3d 00 00 00
	00 00		 cmp	 DWORD PTR ?ntimes@?1??CalcFLOPS_Linpack@@YANHHM@Z@4HA, 0
  00822	c7 05 00 00 00
	00 00 00 00 00	 mov	 DWORD PTR ?i@?1??CalcFLOPS_Linpack@@YANHHM@Z@4HA, 0
  0082c	7e 36		 jle	 SHORT $LN42@CalcFLOPS_
  0082e	8b ff		 npad	 2
$LL43@CalcFLOPS_:

; 300  : 		{
; 301  : 			dgesl(aa,ldaa,n,ipvt,b,0);

  00830	6a 00		 push	 0
  00832	68 00 00 00 00	 push	 OFFSET ?b@?1??CalcFLOPS_Linpack@@YANHHM@Z@4PAMA
  00837	68 00 00 00 00	 push	 OFFSET ?ipvt@?1??CalcFLOPS_Linpack@@YANHHM@Z@4PAHA
  0083c	ff 35 00 00 00
	00		 push	 DWORD PTR ?n@?1??CalcFLOPS_Linpack@@YANHHM@Z@4HA
  00842	ff 35 00 00 00
	00		 push	 DWORD PTR ?ldaa@?1??CalcFLOPS_Linpack@@YANHHM@Z@4HA
  00848	56		 push	 esi
  00849	e8 00 00 00 00	 call	 ?dgesl@@YAXQAMHHQAH0H@Z	; dgesl
  0084e	a1 00 00 00 00	 mov	 eax, DWORD PTR ?i@?1??CalcFLOPS_Linpack@@YANHHM@Z@4HA
  00853	83 c4 18	 add	 esp, 24			; 00000018H
  00856	40		 inc	 eax
  00857	a3 00 00 00 00	 mov	 DWORD PTR ?i@?1??CalcFLOPS_Linpack@@YANHHM@Z@4HA, eax
  0085c	3b 05 00 00 00
	00		 cmp	 eax, DWORD PTR ?ntimes@?1??CalcFLOPS_Linpack@@YANHHM@Z@4HA
  00862	7c cc		 jl	 SHORT $LL43@CalcFLOPS_
$LN42@CalcFLOPS_:

; 1029 :     QueryPerformanceCounter(&liDiff);

  00864	8d 45 dc	 lea	 eax, DWORD PTR _liDiff$16[ebp]
  00867	50		 push	 eax
  00868	ff d7		 call	 edi

; 1030 : 
; 1031 :     liDiff.QuadPart -= starttime.QuadPart;

  0086a	a1 00 00 00 00	 mov	 eax, DWORD PTR ?starttime@@3T_LARGE_INTEGER@@A
  0086f	29 45 dc	 sub	 DWORD PTR _liDiff$16[ebp], eax
  00872	a1 04 00 00 00	 mov	 eax, DWORD PTR ?starttime@@3T_LARGE_INTEGER@@A+4
  00877	19 45 e0	 sbb	 DWORD PTR _liDiff$16[ebp+4], eax

; 1032 : 
; 1033 :     (void)QueryPerformanceFrequency(&liFreq);

  0087a	8d 45 c4	 lea	 eax, DWORD PTR _liFreq$4[ebp]
  0087d	50		 push	 eax
  0087e	ff 15 00 00 00
	00		 call	 DWORD PTR __imp__QueryPerformanceFrequency@4

; 1034 : 
; 1035 :     secs = (double)liDiff.QuadPart / (double) liFreq.QuadPart;

  00884	df 6d dc	 fild	 QWORD PTR _liDiff$16[ebp]
  00887	dd 5d ac	 fstp	 QWORD PTR tv1495[ebp]
  0088a	dd 45 ac	 fld	 QWORD PTR tv1495[ebp]
  0088d	df 6d c4	 fild	 QWORD PTR _liFreq$4[ebp]
  00890	dd 5d ac	 fstp	 QWORD PTR tv1492[ebp]
  00893	dc 75 ac	 fdiv	 QWORD PTR tv1492[ebp]
  00896	dd 15 00 00 00
	00		 fst	 QWORD PTR ?secs@@3NA	; secs

; 302  : 		}
; 303  : 		end_time();
; 304  : 		Result[1][j] = (REAL32)( secs / ntimes);

  0089c	db 05 00 00 00
	00		 fild	 DWORD PTR ?ntimes@?1??CalcFLOPS_Linpack@@YANHHM@Z@4HA
  008a2	dd 5d ac	 fstp	 QWORD PTR tv1485[ebp]
  008a5	dc 75 ac	 fdiv	 QWORD PTR tv1485[ebp]
  008a8	a1 00 00 00 00	 mov	 eax, DWORD PTR ?j@?1??CalcFLOPS_Linpack@@YANHHM@Z@4HA
  008ad	d9 5d 0c	 fstp	 DWORD PTR tv1836[ebp]
  008b0	d9 45 0c	 fld	 DWORD PTR tv1836[ebp]
  008b3	d9 14 85 3c 00
	00 00		 fst	 DWORD PTR ?Result@@3PAY0P@MA[eax*4+60]

; 305  : 
; 306  : 		total       = Result[0][j] + Result[1][j];

  008ba	d8 04 85 00 00
	00 00		 fadd	 DWORD PTR ?Result@@3PAY0P@MA[eax*4]
  008c1	d9 5d f8	 fstp	 DWORD PTR _total$[ebp]

; 307  : 		Result[2][j] = total;

  008c4	d9 45 f8	 fld	 DWORD PTR _total$[ebp]
  008c7	d9 14 85 78 00
	00 00		 fst	 DWORD PTR ?Result@@3PAY0P@MA[eax*4+120]

; 308  : 		Result[3][j] = ops / (1.0e6f * total);

  008ce	d9 c0		 fld	 ST(0)
  008d0	dc 0d 00 00 00
	00		 fmul	 QWORD PTR __real@412e848000000000
  008d6	dc 3d 00 00 00
	00		 fdivr	 QWORD PTR __real@4124f49560000000
  008dc	d9 5d 0c	 fstp	 DWORD PTR tv1850[ebp]
  008df	d9 45 0c	 fld	 DWORD PTR tv1850[ebp]
  008e2	d9 14 85 b4 00
	00 00		 fst	 DWORD PTR ?Result@@3PAY0P@MA[eax*4+180]

; 309  : 		Result[4][j] = 2.0f / Result[3][j];

  008e9	dc 3d 00 00 00
	00		 fdivr	 QWORD PTR __real@4000000000000000
  008ef	d9 1c 85 f0 00
	00 00		 fstp	 DWORD PTR ?Result@@3PAY0P@MA[eax*4+240]

; 310  : 		Result[5][j] = total / cray;

  008f6	dc 35 00 00 00
	00		 fdiv	 QWORD PTR __real@3facac0840000000
  008fc	d9 1c 85 2c 01
	00 00		 fstp	 DWORD PTR ?Result@@3PAY0P@MA[eax*4+300]

; 311  : 		Result[3][12] = Result[3][12] + Result[3][j];

  00903	d9 04 85 b4 00
	00 00		 fld	 DWORD PTR ?Result@@3PAY0P@MA[eax*4+180]
  0090a	40		 inc	 eax
  0090b	a3 00 00 00 00	 mov	 DWORD PTR ?j@?1??CalcFLOPS_Linpack@@YANHHM@Z@4HA, eax
  00910	d8 05 e4 00 00
	00		 fadd	 DWORD PTR ?Result@@3PAY0P@MA+228
  00916	d9 5d 0c	 fstp	 DWORD PTR tv1306[ebp]
  00919	d9 45 0c	 fld	 DWORD PTR tv1306[ebp]
  0091c	d9 55 0c	 fst	 DWORD PTR tv467[ebp]
  0091f	d9 1d e4 00 00
	00		 fstp	 DWORD PTR ?Result@@3PAY0P@MA+228
  00925	83 f8 0c	 cmp	 eax, 12			; 0000000cH
  00928	0f 8c 22 fe ff
	ff		 jl	 $LL37@CalcFLOPS_

; 312  : 	}
; 313  : 	Result[3][12] = Result[3][12] / 5.0f; 

  0092e	d9 45 0c	 fld	 DWORD PTR tv467[ebp]
  00931	dc 35 00 00 00
	00		 fdiv	 QWORD PTR __real@4014000000000000
  00937	d9 1d e4 00 00
	00		 fstp	 DWORD PTR ?Result@@3PAY0P@MA+228

; 314  : 
; 315  : 	//**********************************************************************
; 316  : 	//          Use minimum average as overall Mflops rating               *
; 317  : 	//**********************************************************************
; 318  : 
; 319  : 	//mflops = Result[3][6];
; 320  : 	//if (Result[3][12] < mflops) mflops = Result[3][12];
; 321  : 
; 322  : 	//fprintf(stderr," Precision %11.2f Mflops \n\n",mflops);
; 323  : 
; 324  : 	if( aa != NULL)		i3MemFree( aa);

  0093d	85 f6		 test	 esi, esi
  0093f	74 13		 je	 SHORT $LN61@CalcFLOPS_
  00941	68 44 01 00 00	 push	 324			; 00000144H
  00946	68 00 00 00 00	 push	 OFFSET ??_C@_0GC@IFBBMDEB@E?3?2Proyectos?2JuegosOnlineproyec@
  0094b	56		 push	 esi
  0094c	e8 00 00 00 00	 call	 ?FreeTool@i3mem@@YAXPAXPBDH@Z ; i3mem::FreeTool
  00951	83 c4 0c	 add	 esp, 12			; 0000000cH
$LN61@CalcFLOPS_:

; 325  : 	if( a != NULL)		i3MemFree( a);

  00954	8b 45 f0	 mov	 eax, DWORD PTR _a$1$[ebp]
  00957	5f		 pop	 edi
  00958	5e		 pop	 esi
  00959	85 c0		 test	 eax, eax
  0095b	74 13		 je	 SHORT $LN62@CalcFLOPS_
  0095d	68 45 01 00 00	 push	 325			; 00000145H
  00962	68 00 00 00 00	 push	 OFFSET ??_C@_0GC@IFBBMDEB@E?3?2Proyectos?2JuegosOnlineproyec@
  00967	50		 push	 eax
  00968	e8 00 00 00 00	 call	 ?FreeTool@i3mem@@YAXPAXPBDH@Z ; i3mem::FreeTool
  0096d	83 c4 0c	 add	 esp, 12			; 0000000cH
$LN62@CalcFLOPS_:

; 326  : 
; 327  : 	//***********************************************************************
; 328  : 	//              Add results to output file Linpack.txt                  *
; 329  : 	//***********************************************************************
; 330  : 	max1 = 0;

  00970	0f 57 c9	 xorps	 xmm1, xmm1
  00973	b9 01 00 00 00	 mov	 ecx, 1
  00978	f3 0f 11 4d 0c	 movss	 DWORD PTR _max1$[ebp], xmm1

; 331  : 	for (i=1 ; i<6 ; i++)

  0097d	8b c1		 mov	 eax, ecx
  0097f	d9 45 0c	 fld	 DWORD PTR _max1$[ebp]
$LN46@CalcFLOPS_:

; 332  : 	{
; 333  : 		max1 = max( max1, Result[3][i]);

  00982	d9 04 85 b4 00
	00 00		 fld	 DWORD PTR ?Result@@3PAY0P@MA[eax*4+180]
  00989	d9 5d 0c	 fstp	 DWORD PTR tv1315[ebp]
  0098c	d9 45 0c	 fld	 DWORD PTR tv1315[ebp]
  0098f	d9 c9		 fxch	 ST(1)
  00991	db f1		 fcomi	 ST(1)
  00993	dd d9		 fstp	 ST(1)
  00995	77 0f		 ja	 SHORT $LN69@CalcFLOPS_
  00997	f3 0f 10 4d 0c	 movss	 xmm1, DWORD PTR tv1315[ebp]
  0099c	dd d8		 fstp	 ST(0)
  0099e	f3 0f 11 4d 0c	 movss	 DWORD PTR _max1$[ebp], xmm1
  009a3	d9 45 0c	 fld	 DWORD PTR _max1$[ebp]
$LN69@CalcFLOPS_:

; 331  : 	for (i=1 ; i<6 ; i++)

  009a6	41		 inc	 ecx
  009a7	8b c1		 mov	 eax, ecx
  009a9	83 f8 06	 cmp	 eax, 6
  009ac	7c d4		 jl	 SHORT $LN46@CalcFLOPS_

; 334  : 	}
; 335  : 
; 336  : 	max2 = 0;

  009ae	c7 45 0c 00 00
	00 00		 mov	 DWORD PTR _max2$[ebp], 0
  009b5	b9 07 00 00 00	 mov	 ecx, 7

; 337  : 	for (i=7 ; i<12 ; i++)

  009ba	d9 45 0c	 fld	 DWORD PTR _max2$[ebp]
  009bd	8b c1		 mov	 eax, ecx
$LN49@CalcFLOPS_:

; 338  : 	{
; 339  : 		max2 = max( max2, Result[3][i]);

  009bf	d9 04 85 b4 00
	00 00		 fld	 DWORD PTR ?Result@@3PAY0P@MA[eax*4+180]
  009c6	d9 5d 0c	 fstp	 DWORD PTR tv1315[ebp]
  009c9	d9 45 0c	 fld	 DWORD PTR tv1315[ebp]
  009cc	d9 c9		 fxch	 ST(1)
  009ce	db f1		 fcomi	 ST(1)
  009d0	dd d9		 fstp	 ST(1)
  009d2	77 0f		 ja	 SHORT $LN71@CalcFLOPS_
  009d4	f3 0f 10 45 0c	 movss	 xmm0, DWORD PTR tv1315[ebp]
  009d9	dd d8		 fstp	 ST(0)
  009db	f3 0f 11 45 0c	 movss	 DWORD PTR _max2$[ebp], xmm0
  009e0	d9 45 0c	 fld	 DWORD PTR _max2$[ebp]
$LN71@CalcFLOPS_:

; 337  : 	for (i=7 ; i<12 ; i++)

  009e3	41		 inc	 ecx
  009e4	8b c1		 mov	 eax, ecx
  009e6	89 0d 00 00 00
	00		 mov	 DWORD PTR ?i@?1??CalcFLOPS_Linpack@@YANHHM@Z@4HA, ecx
  009ec	83 f8 0c	 cmp	 eax, 12			; 0000000cH
  009ef	7c ce		 jl	 SHORT $LN49@CalcFLOPS_

; 340  : 	}
; 341  : 
; 342  : 	max2 = min( max2, max1);

  009f1	d9 c9		 fxch	 ST(1)
  009f3	df f1		 fcomip	 ST(1)
  009f5	77 0a		 ja	 SHORT $LN73@CalcFLOPS_
  009f7	dd d8		 fstp	 ST(0)
  009f9	f3 0f 11 4d 0c	 movss	 DWORD PTR _max2$[ebp], xmm1

; 343  : 
; 344  : 	return max2;

  009fe	d9 45 0c	 fld	 DWORD PTR _max2$[ebp]
$LN73@CalcFLOPS_:

; 345  : }

  00a01	8b e5		 mov	 esp, ebp
  00a03	5d		 pop	 ebp
  00a04	c3		 ret	 0
?CalcFLOPS_Linpack@@YANHHM@Z ENDP			; CalcFLOPS_Linpack
_TEXT	ENDS
; Function compile flags: /Ogtp
; File E:\Proyectos\JuegosOnlineproyectos\PB\pbblow\Piercing Blow Remake\i3Server\src\i3Base\Linpack.cpp
;	COMDAT ?ddot@@YAMHQAMH0H@Z
_TEXT	SEGMENT
_n$ = 8							; size = 4
_dtemp$ = 8						; size = 4
tv396 = 8						; size = 4
tv505 = 8						; size = 4
tv508 = 8						; size = 4
tv511 = 8						; size = 4
_dx$ = 12						; size = 4
_incx$ = 16						; size = 4
_dy$ = 20						; size = 4
_incy$ = 24						; size = 4
?ddot@@YAMHQAMH0H@Z PROC				; ddot, COMDAT

; 699  : {

  00000	55		 push	 ebp
  00001	8b ec		 mov	 ebp, esp
  00003	53		 push	 ebx
  00004	8b 5d 08	 mov	 ebx, DWORD PTR _n$[ebp]

; 700  :         REAL32 dtemp;
; 701  :         INT32 i,ix,iy,m,mp1;
; 702  : 
; 703  :         mp1 = 0;
; 704  :         m = 0;
; 705  : 
; 706  :         dtemp = ZERO;

  00007	c7 45 08 00 00
	00 00		 mov	 DWORD PTR _dtemp$[ebp], 0
  0000e	56		 push	 esi
  0000f	8b 75 14	 mov	 esi, DWORD PTR _dy$[ebp]
  00012	57		 push	 edi
  00013	8b 7d 0c	 mov	 edi, DWORD PTR _dx$[ebp]

; 707  : 
; 708  :         if(n <= 0) return(ZERO);

  00016	85 db		 test	 ebx, ebx
  00018	7f 07		 jg	 SHORT $LN11@ddot
  0001a	d9 ee		 fldz
  0001c	5f		 pop	 edi

; 751  :                 dx[i+1]*dy[i+1] + dx[i+2]*dy[i+2] +
; 752  :                 dx[i+3]*dy[i+3] + dx[i+4]*dy[i+4];
; 753  :         }
; 754  :         return(dtemp);
; 755  : 
; 756  : #endif
; 757  : 
; 758  : }

  0001d	5e		 pop	 esi
  0001e	5b		 pop	 ebx
  0001f	5d		 pop	 ebp
  00020	c3		 ret	 0
$LN11@ddot:

; 709  : 
; 710  :         if(incx != 1 || incy != 1) {

  00021	83 7d 10 01	 cmp	 DWORD PTR _incx$[ebp], 1
  00025	8b 55 18	 mov	 edx, DWORD PTR _incy$[ebp]
  00028	0f 85 d5 00 00
	00		 jne	 $LN13@ddot
  0002e	83 fa 01	 cmp	 edx, 1
  00031	0f 85 cc 00 00
	00		 jne	 $LN13@ddot

; 726  :         }
; 727  : 
; 728  :         /* code for both increments equal to 1 */
; 729  : 
; 730  : 
; 731  : #ifdef ROLL
; 732  : 
; 733  :         for (i=0;i < n; i++)
; 734  :                 dtemp = dtemp + dx[i]*dy[i];
; 735  :                
; 736  :         return(dtemp);
; 737  : 
; 738  : #endif
; 739  : 
; 740  : #ifdef UNROLL
; 741  : 
; 742  : 
; 743  :         m = n % 5;

  00037	b8 cd cc cc cc	 mov	 eax, -858993459		; cccccccdH
  0003c	8b cb		 mov	 ecx, ebx
  0003e	f7 e3		 mul	 ebx
  00040	c1 ea 02	 shr	 edx, 2
  00043	8d 04 92	 lea	 eax, DWORD PTR [edx+edx*4]
  00046	2b c8		 sub	 ecx, eax

; 744  :         if (m != 0) {

  00048	74 6c		 je	 SHORT $LN17@ddot

; 745  :                 for (i = 0; i < m; i++)

  0004a	33 c0		 xor	 eax, eax
  0004c	83 f9 04	 cmp	 ecx, 4
  0004f	7c 44		 jl	 SHORT $LC29@ddot
  00051	8d 51 fd	 lea	 edx, DWORD PTR [ecx-3]
$LL30@ddot:

; 746  :                         dtemp = dtemp + dx[i]*dy[i];

  00054	d9 44 86 04	 fld	 DWORD PTR [esi+eax*4+4]
  00058	d8 4c 87 04	 fmul	 DWORD PTR [edi+eax*4+4]
  0005c	d9 04 87	 fld	 DWORD PTR [edi+eax*4]
  0005f	d8 0c 86	 fmul	 DWORD PTR [esi+eax*4]
  00062	d8 45 08	 fadd	 DWORD PTR _dtemp$[ebp]
  00065	d9 5d 08	 fstp	 DWORD PTR tv511[ebp]
  00068	d8 45 08	 fadd	 DWORD PTR tv511[ebp]
  0006b	d9 5d 08	 fstp	 DWORD PTR tv508[ebp]
  0006e	d9 45 08	 fld	 DWORD PTR tv508[ebp]
  00071	d9 44 87 08	 fld	 DWORD PTR [edi+eax*4+8]
  00075	d8 4c 86 08	 fmul	 DWORD PTR [esi+eax*4+8]
  00079	de c1		 faddp	 ST(1), ST(0)
  0007b	d9 5d 08	 fstp	 DWORD PTR tv505[ebp]
  0007e	d9 45 08	 fld	 DWORD PTR tv505[ebp]
  00081	d9 44 87 0c	 fld	 DWORD PTR [edi+eax*4+12]
  00085	d8 4c 86 0c	 fmul	 DWORD PTR [esi+eax*4+12]
  00089	83 c0 04	 add	 eax, 4
  0008c	de c1		 faddp	 ST(1), ST(0)
  0008e	d9 5d 08	 fstp	 DWORD PTR _dtemp$[ebp]
  00091	3b c2		 cmp	 eax, edx
  00093	7c bf		 jl	 SHORT $LL30@ddot
$LC29@ddot:

; 745  :                 for (i = 0; i < m; i++)

  00095	3b c1		 cmp	 eax, ecx
  00097	7d 18		 jge	 SHORT $LN28@ddot
  00099	8d a4 24 00 00
	00 00		 npad	 7
$LC7@ddot:

; 746  :                         dtemp = dtemp + dx[i]*dy[i];

  000a0	d9 04 87	 fld	 DWORD PTR [edi+eax*4]
  000a3	d8 0c 86	 fmul	 DWORD PTR [esi+eax*4]
  000a6	40		 inc	 eax
  000a7	d8 45 08	 fadd	 DWORD PTR _dtemp$[ebp]
  000aa	d9 5d 08	 fstp	 DWORD PTR _dtemp$[ebp]
  000ad	3b c1		 cmp	 eax, ecx
  000af	7c ef		 jl	 SHORT $LC7@ddot
$LN28@ddot:

; 747  :                 if (n < 5) return(dtemp);

  000b1	83 fb 05	 cmp	 ebx, 5
  000b4	7c 45		 jl	 SHORT $LN9@ddot
$LN17@ddot:

; 748  :         }
; 749  :         for (i = m; i < n; i = i + 5) {

  000b6	3b cb		 cmp	 ecx, ebx
  000b8	7d 41		 jge	 SHORT $LN9@ddot
  000ba	8d 9b 00 00 00
	00		 npad	 6
$LL10@ddot:

; 750  :                 dtemp = dtemp + dx[i]*dy[i] +

  000c0	d9 44 8e 04	 fld	 DWORD PTR [esi+ecx*4+4]
  000c4	d8 4c 8f 04	 fmul	 DWORD PTR [edi+ecx*4+4]
  000c8	d9 04 8e	 fld	 DWORD PTR [esi+ecx*4]
  000cb	d8 0c 8f	 fmul	 DWORD PTR [edi+ecx*4]
  000ce	d8 45 08	 fadd	 DWORD PTR _dtemp$[ebp]
  000d1	de c1		 faddp	 ST(1), ST(0)
  000d3	d9 44 8f 08	 fld	 DWORD PTR [edi+ecx*4+8]
  000d7	d8 4c 8e 08	 fmul	 DWORD PTR [esi+ecx*4+8]
  000db	de c1		 faddp	 ST(1), ST(0)
  000dd	d9 44 8f 0c	 fld	 DWORD PTR [edi+ecx*4+12]
  000e1	d8 4c 8e 0c	 fmul	 DWORD PTR [esi+ecx*4+12]
  000e5	de c1		 faddp	 ST(1), ST(0)
  000e7	d9 44 8f 10	 fld	 DWORD PTR [edi+ecx*4+16]
  000eb	d8 4c 8e 10	 fmul	 DWORD PTR [esi+ecx*4+16]
  000ef	83 c1 05	 add	 ecx, 5
  000f2	de c1		 faddp	 ST(1), ST(0)
  000f4	d9 5d 08	 fstp	 DWORD PTR _dtemp$[ebp]
  000f7	3b cb		 cmp	 ecx, ebx
  000f9	7c c5		 jl	 SHORT $LL10@ddot
$LN9@ddot:

; 751  :                 dx[i+1]*dy[i+1] + dx[i+2]*dy[i+2] +
; 752  :                 dx[i+3]*dy[i+3] + dx[i+4]*dy[i+4];
; 753  :         }
; 754  :         return(dtemp);
; 755  : 
; 756  : #endif
; 757  : 
; 758  : }

  000fb	d9 45 08	 fld	 DWORD PTR _dtemp$[ebp]
  000fe	5f		 pop	 edi
  000ff	5e		 pop	 esi
  00100	5b		 pop	 ebx
  00101	5d		 pop	 ebp
  00102	c3		 ret	 0
$LN13@ddot:

; 711  : 
; 712  :                 /* code for unequal increments or equal increments
; 713  :                    not equal to 1                                       */
; 714  : 
; 715  :                 ix = 0;
; 716  :                 iy = 0;

  00103	b8 01 00 00 00	 mov	 eax, 1
  00108	33 c9		 xor	 ecx, ecx
  0010a	2b c3		 sub	 eax, ebx

; 717  :                 if (incx < 0) ix = (-n+1)*incx;

  0010c	39 4d 10	 cmp	 DWORD PTR _incx$[ebp], ecx
  0010f	7d 06		 jge	 SHORT $LN35@ddot
  00111	8b c8		 mov	 ecx, eax
  00113	0f af 4d 10	 imul	 ecx, DWORD PTR _incx$[ebp]
$LN35@ddot:

; 718  :                 if (incy < 0) iy = (-n+1)*incy;

  00117	85 d2		 test	 edx, edx
  00119	79 05		 jns	 SHORT $LN15@ddot
  0011b	0f af c2	 imul	 eax, edx
  0011e	eb 02		 jmp	 SHORT $LN40@ddot
$LN15@ddot:

; 719  :                 for (i = 0;i < n; i++) {

  00120	33 c0		 xor	 eax, eax
$LN40@ddot:
  00122	d9 45 08	 fld	 DWORD PTR _dtemp$[ebp]
  00125	33 d2		 xor	 edx, edx
$LN4@ddot:

; 720  :                         dtemp = dtemp + dx[ix]*dy[iy];

  00127	d9 04 8f	 fld	 DWORD PTR [edi+ecx*4]
  0012a	42		 inc	 edx
  0012b	d8 0c 86	 fmul	 DWORD PTR [esi+eax*4]

; 721  :                         ix = ix + incx;

  0012e	03 4d 10	 add	 ecx, DWORD PTR _incx$[ebp]

; 722  :                         iy = iy + incy;

  00131	03 45 18	 add	 eax, DWORD PTR _incy$[ebp]
  00134	de c1		 faddp	 ST(1), ST(0)
  00136	d9 5d 08	 fstp	 DWORD PTR _dtemp$[ebp]
  00139	d9 45 08	 fld	 DWORD PTR _dtemp$[ebp]
  0013c	d9 55 08	 fst	 DWORD PTR tv396[ebp]
  0013f	3b d3		 cmp	 edx, ebx
  00141	7c e4		 jl	 SHORT $LN4@ddot

; 719  :                 for (i = 0;i < n; i++) {

  00143	5f		 pop	 edi
  00144	dd d8		 fstp	 ST(0)

; 723  :                        
; 724  :                 }
; 725  :                 return(dtemp);

  00146	d9 45 08	 fld	 DWORD PTR tv396[ebp]

; 751  :                 dx[i+1]*dy[i+1] + dx[i+2]*dy[i+2] +
; 752  :                 dx[i+3]*dy[i+3] + dx[i+4]*dy[i+4];
; 753  :         }
; 754  :         return(dtemp);
; 755  : 
; 756  : #endif
; 757  : 
; 758  : }

  00149	5e		 pop	 esi
  0014a	5b		 pop	 ebx
  0014b	5d		 pop	 ebp
  0014c	c3		 ret	 0
?ddot@@YAMHQAMH0H@Z ENDP				; ddot
_TEXT	ENDS
; Function compile flags: /Ogtp
; File E:\Proyectos\JuegosOnlineproyectos\PB\pbblow\Piercing Blow Remake\i3Server\src\i3Base\Linpack.cpp
;	COMDAT ?dscal@@YAXHMQAMH@Z
_TEXT	SEGMENT
_n$ = 8							; size = 4
tv156 = 8						; size = 4
_da$ = 12						; size = 4
_dx$ = 16						; size = 4
_incx$ = 20						; size = 4
?dscal@@YAXHMQAMH@Z PROC				; dscal, COMDAT

; 767  : {

  00000	55		 push	 ebp
  00001	8b ec		 mov	 ebp, esp
  00003	f3 0f 10 45 0c	 movss	 xmm0, DWORD PTR _da$[ebp]
  00008	8b 4d 10	 mov	 ecx, DWORD PTR _dx$[ebp]
  0000b	56		 push	 esi
  0000c	8b 75 08	 mov	 esi, DWORD PTR _n$[ebp]
  0000f	f3 0f 11 45 08	 movss	 DWORD PTR tv156[ebp], xmm0

; 768  :         INT32 i,m,mp1,nincx;
; 769  : 
; 770  :         mp1 = 0;
; 771  :         m = 0;
; 772  : 
; 773  :         if(n <= 0)return;

  00014	85 f6		 test	 esi, esi
  00016	0f 8e d5 00 00
	00		 jle	 $LN9@dscal

; 774  :         if(incx != 1) {

  0001c	8b 55 14	 mov	 edx, DWORD PTR _incx$[ebp]
  0001f	83 fa 01	 cmp	 edx, 1
  00022	74 23		 je	 SHORT $LN12@dscal

; 775  : 
; 776  :                 /* code for increment not equal to 1 */
; 777  : 
; 778  :                 nincx = n*incx;

  00024	0f af f2	 imul	 esi, edx

; 779  :                 for (i = 0; i < nincx; i = i + incx)

  00027	33 c0		 xor	 eax, eax
  00029	85 f6		 test	 esi, esi
  0002b	0f 8e c0 00 00
	00		 jle	 $LN9@dscal
  00031	d9 45 08	 fld	 DWORD PTR tv156[ebp]
$LN4@dscal:

; 780  :                         dx[i] = da*dx[i];

  00034	d9 04 81	 fld	 DWORD PTR [ecx+eax*4]
  00037	d8 c9		 fmul	 ST(0), ST(1)
  00039	d9 1c 81	 fstp	 DWORD PTR [ecx+eax*4]
  0003c	03 c2		 add	 eax, edx
  0003e	3b c6		 cmp	 eax, esi
  00040	7c f2		 jl	 SHORT $LN4@dscal

; 811  :         }
; 812  : 
; 813  : #endif
; 814  : 
; 815  : }

  00042	dd d8		 fstp	 ST(0)
  00044	5e		 pop	 esi
  00045	5d		 pop	 ebp
  00046	c3		 ret	 0
$LN12@dscal:

; 781  :                         
; 782  :                 return;
; 783  :         }
; 784  : 
; 785  :         /* code for increment equal to 1 */
; 786  : 
; 787  : 
; 788  : #ifdef ROLL
; 789  : 
; 790  :         for (i = 0; i < n; i++)
; 791  :                 dx[i] = da*dx[i];
; 792  :                 
; 793  : 
; 794  : #endif
; 795  : 
; 796  : #ifdef UNROLL
; 797  : 
; 798  : 
; 799  :         m = n % 5;
; 800  :         if (m != 0) {

  00047	d9 45 08	 fld	 DWORD PTR tv156[ebp]
  0004a	b8 cd cc cc cc	 mov	 eax, -858993459		; cccccccdH
  0004f	f7 e6		 mul	 esi
  00051	c1 ea 02	 shr	 edx, 2
  00054	8d 04 92	 lea	 eax, DWORD PTR [edx+edx*4]
  00057	8b d6		 mov	 edx, esi
  00059	2b d0		 sub	 edx, eax
  0005b	74 5b		 je	 SHORT $LN39@dscal

; 801  :                 for (i = 0; i < m; i++)

  0005d	33 c0		 xor	 eax, eax
  0005f	83 fa 04	 cmp	 edx, 4
  00062	7c 36		 jl	 SHORT $LN38@dscal
  00064	57		 push	 edi
  00065	d9 c0		 fld	 ST(0)
  00067	8d 7a fd	 lea	 edi, DWORD PTR [edx-3]
$LN27@dscal:

; 802  :                         dx[i] = da*dx[i];

  0006a	d9 04 81	 fld	 DWORD PTR [ecx+eax*4]
  0006d	d8 c9		 fmul	 ST(0), ST(1)
  0006f	d9 1c 81	 fstp	 DWORD PTR [ecx+eax*4]
  00072	d9 44 81 04	 fld	 DWORD PTR [ecx+eax*4+4]
  00076	d8 c9		 fmul	 ST(0), ST(1)
  00078	d9 5c 81 04	 fstp	 DWORD PTR [ecx+eax*4+4]
  0007c	d9 44 81 08	 fld	 DWORD PTR [ecx+eax*4+8]
  00080	d8 c9		 fmul	 ST(0), ST(1)
  00082	d9 5c 81 08	 fstp	 DWORD PTR [ecx+eax*4+8]
  00086	d9 44 81 0c	 fld	 DWORD PTR [ecx+eax*4+12]
  0008a	d8 c9		 fmul	 ST(0), ST(1)
  0008c	d9 5c 81 0c	 fstp	 DWORD PTR [ecx+eax*4+12]
  00090	83 c0 04	 add	 eax, 4
  00093	3b c7		 cmp	 eax, edi
  00095	7c d3		 jl	 SHORT $LN27@dscal
  00097	dd d8		 fstp	 ST(0)
  00099	5f		 pop	 edi
$LN38@dscal:

; 801  :                 for (i = 0; i < m; i++)

  0009a	3b c2		 cmp	 eax, edx
  0009c	7d 11		 jge	 SHORT $LN25@dscal
  0009e	d9 c0		 fld	 ST(0)
$LC7@dscal:

; 802  :                         dx[i] = da*dx[i];

  000a0	d9 04 81	 fld	 DWORD PTR [ecx+eax*4]
  000a3	d8 c9		 fmul	 ST(0), ST(1)
  000a5	d9 1c 81	 fstp	 DWORD PTR [ecx+eax*4]
  000a8	40		 inc	 eax
  000a9	3b c2		 cmp	 eax, edx
  000ab	7c f3		 jl	 SHORT $LC7@dscal

; 801  :                 for (i = 0; i < m; i++)

  000ad	dd d8		 fstp	 ST(0)
$LN25@dscal:

; 803  :                 if (n < 5) return;

  000af	83 fe 05	 cmp	 esi, 5
  000b2	7c 3b		 jl	 SHORT $LN74@dscal

; 804  :         }
; 805  :         for (i = m; i < n; i = i + 5){

  000b4	3b d6		 cmp	 edx, esi
  000b6	7d 37		 jge	 SHORT $LN74@dscal
$LN39@dscal:

; 806  :                 dx[i] = da*dx[i];

  000b8	d9 04 91	 fld	 DWORD PTR [ecx+edx*4]
  000bb	d8 c9		 fmul	 ST(0), ST(1)
  000bd	d9 1c 91	 fstp	 DWORD PTR [ecx+edx*4]

; 807  :                 dx[i+1] = da*dx[i+1];

  000c0	d9 44 91 04	 fld	 DWORD PTR [ecx+edx*4+4]
  000c4	d8 c9		 fmul	 ST(0), ST(1)
  000c6	d9 5c 91 04	 fstp	 DWORD PTR [ecx+edx*4+4]

; 808  :                 dx[i+2] = da*dx[i+2];

  000ca	d9 44 91 08	 fld	 DWORD PTR [ecx+edx*4+8]
  000ce	d8 c9		 fmul	 ST(0), ST(1)
  000d0	d9 5c 91 08	 fstp	 DWORD PTR [ecx+edx*4+8]

; 809  :                 dx[i+3] = da*dx[i+3];

  000d4	d9 44 91 0c	 fld	 DWORD PTR [ecx+edx*4+12]
  000d8	d8 c9		 fmul	 ST(0), ST(1)
  000da	d9 5c 91 0c	 fstp	 DWORD PTR [ecx+edx*4+12]

; 810  :                 dx[i+4] = da*dx[i+4];

  000de	d9 44 91 10	 fld	 DWORD PTR [ecx+edx*4+16]
  000e2	d8 c9		 fmul	 ST(0), ST(1)
  000e4	d9 5c 91 10	 fstp	 DWORD PTR [ecx+edx*4+16]
  000e8	83 c2 05	 add	 edx, 5
  000eb	3b d6		 cmp	 edx, esi
  000ed	7c c9		 jl	 SHORT $LN39@dscal
$LN74@dscal:

; 811  :         }
; 812  : 
; 813  : #endif
; 814  : 
; 815  : }

  000ef	dd d8		 fstp	 ST(0)
$LN9@dscal:
  000f1	5e		 pop	 esi
  000f2	5d		 pop	 ebp
  000f3	c3		 ret	 0
?dscal@@YAXHMQAMH@Z ENDP				; dscal
_TEXT	ENDS
; Function compile flags: /Ogtp
; File E:\Proyectos\JuegosOnlineproyectos\PB\pbblow\Piercing Blow Remake\i3Server\src\i3Base\Linpack.cpp
;	COMDAT ?idamax@@YAHHQAMH@Z
_TEXT	SEGMENT
tv174 = -4						; size = 4
tv188 = -4						; size = 4
_n$ = 8							; size = 4
_dmax$ = 8						; size = 4
tv163 = 8						; size = 4
_dx$ = 12						; size = 4
_incx$ = 16						; size = 4
?idamax@@YAHHQAMH@Z PROC				; idamax, COMDAT

; 826  : {

  00000	55		 push	 ebp
  00001	8b ec		 mov	 ebp, esp
  00003	51		 push	 ecx

; 827  :         REAL32 dmax;
; 828  :         INT32 i, ix, itemp = 1;
; 829  : 
; 830  :         if( n < 1 ) return(-1);

  00004	8b 55 08	 mov	 edx, DWORD PTR _n$[ebp]
  00007	56		 push	 esi
  00008	be 01 00 00 00	 mov	 esi, 1
  0000d	3b d6		 cmp	 edx, esi
  0000f	7d 08		 jge	 SHORT $LN8@idamax
  00011	83 c8 ff	 or	 eax, -1
  00014	5e		 pop	 esi

; 866  : }

  00015	8b e5		 mov	 esp, ebp
  00017	5d		 pop	 ebp
  00018	c3		 ret	 0
$LN8@idamax:

; 831  :         if(n ==1 ) return(0);

  00019	75 07		 jne	 SHORT $LN9@idamax
  0001b	33 c0		 xor	 eax, eax
  0001d	5e		 pop	 esi

; 866  : }

  0001e	8b e5		 mov	 esp, ebp
  00020	5d		 pop	 ebp
  00021	c3		 ret	 0
$LN9@idamax:

; 832  :         if(incx != 1) 

  00022	8b 45 10	 mov	 eax, DWORD PTR _incx$[ebp]
  00025	57		 push	 edi
  00026	8b 7d 0c	 mov	 edi, DWORD PTR _dx$[ebp]
  00029	f3 0f 10 07	 movss	 xmm0, DWORD PTR [edi]
  0002d	f3 0f 11 45 08	 movss	 DWORD PTR tv163[ebp], xmm0
  00032	83 f8 01	 cmp	 eax, 1
  00035	74 56		 je	 SHORT $LN10@idamax

; 833  : 		{
; 834  :             /* code for increment not equal to 1 */
; 835  : 
; 836  :             ix = 1;
; 837  :             dmax = (REAL32)( fabs((double)dx[0]));

  00037	d9 45 08	 fld	 DWORD PTR tv163[ebp]

; 838  :             ix = ix + incx;

  0003a	8d 78 01	 lea	 edi, DWORD PTR [eax+1]
  0003d	d9 e1		 fabs
  0003f	8b ce		 mov	 ecx, esi
  00041	d9 5d 08	 fstp	 DWORD PTR _dmax$[ebp]

; 839  : 
; 840  :             for (i = 1; i < n; i++) 

  00044	83 fa 01	 cmp	 edx, 1
  00047	0f 8e 83 00 00
	00		 jle	 $LN6@idamax
  0004d	f3 0f 10 0d 00
	00 00 00	 movss	 xmm1, DWORD PTR __xmm@7fffffff7fffffff7fffffff7fffffff
$LL4@idamax:

; 841  : 			{
; 842  :                 if(fabs((double)dx[ix]) > dmax)  

  00055	8b 45 0c	 mov	 eax, DWORD PTR _dx$[ebp]
  00058	d9 04 b8	 fld	 DWORD PTR [eax+edi*4]
  0005b	d9 5d fc	 fstp	 DWORD PTR tv174[ebp]
  0005e	d9 45 fc	 fld	 DWORD PTR tv174[ebp]
  00061	d9 e1		 fabs
  00063	d9 45 08	 fld	 DWORD PTR _dmax$[ebp]
  00066	d9 c9		 fxch	 ST(1)
  00068	df f1		 fcomip	 ST(1)
  0006a	dd d8		 fstp	 ST(0)
  0006c	76 0f		 jbe	 SHORT $LN12@idamax

; 843  : 				{
; 844  : 					itemp = i;
; 845  : 					dmax = (REAL32) fabs((double)dx[ix]);

  0006e	f3 0f 10 45 fc	 movss	 xmm0, DWORD PTR tv174[ebp]
  00073	8b f1		 mov	 esi, ecx
  00075	0f 54 c1	 andps	 xmm0, xmm1
  00078	f3 0f 11 45 08	 movss	 DWORD PTR _dmax$[ebp], xmm0
$LN12@idamax:

; 846  :                 }
; 847  :                 ix = ix + incx;

  0007d	03 7d 10	 add	 edi, DWORD PTR _incx$[ebp]
  00080	41		 inc	 ecx
  00081	3b ca		 cmp	 ecx, edx
  00083	7c d0		 jl	 SHORT $LL4@idamax

; 862  :                 }
; 863  :             }
; 864  :         }
; 865  :         return (itemp);

  00085	5f		 pop	 edi
  00086	8b c6		 mov	 eax, esi
  00088	5e		 pop	 esi

; 866  : }

  00089	8b e5		 mov	 esp, ebp
  0008b	5d		 pop	 ebp
  0008c	c3		 ret	 0
$LN10@idamax:

; 848  :             }
; 849  :         }
; 850  :         else 
; 851  : 		{
; 852  : 			/* code for increment equal to 1 */
; 853  : 
; 854  :             itemp = 0;
; 855  :             dmax = (REAL32) fabs((double)dx[0]);

  0008d	f3 0f 10 0d 00
	00 00 00	 movss	 xmm1, DWORD PTR __xmm@7fffffff7fffffff7fffffff7fffffff
  00095	33 f6		 xor	 esi, esi
  00097	0f 54 c1	 andps	 xmm0, xmm1
  0009a	f3 0f 11 45 08	 movss	 DWORD PTR _dmax$[ebp], xmm0
  0009f	8d 4e 01	 lea	 ecx, DWORD PTR [esi+1]

; 856  :             for (i = 1; i < n; i++) 

  000a2	3b d1		 cmp	 edx, ecx
  000a4	7e 2a		 jle	 SHORT $LN6@idamax
$LL7@idamax:

; 857  : 			{
; 858  :                 if(fabs((double)dx[i]) > dmax) 

  000a6	d9 04 8f	 fld	 DWORD PTR [edi+ecx*4]
  000a9	d9 5d fc	 fstp	 DWORD PTR tv188[ebp]
  000ac	d9 45 fc	 fld	 DWORD PTR tv188[ebp]
  000af	d9 e1		 fabs
  000b1	d9 45 08	 fld	 DWORD PTR _dmax$[ebp]
  000b4	d9 c9		 fxch	 ST(1)
  000b6	df f1		 fcomip	 ST(1)
  000b8	dd d8		 fstp	 ST(0)
  000ba	76 0f		 jbe	 SHORT $LN5@idamax

; 859  : 				{
; 860  :                     itemp = i;
; 861  :                     dmax = (REAL32) fabs((double)dx[i]);

  000bc	f3 0f 10 45 fc	 movss	 xmm0, DWORD PTR tv188[ebp]
  000c1	8b f1		 mov	 esi, ecx
  000c3	0f 54 c1	 andps	 xmm0, xmm1
  000c6	f3 0f 11 45 08	 movss	 DWORD PTR _dmax$[ebp], xmm0
$LN5@idamax:

; 856  :             for (i = 1; i < n; i++) 

  000cb	41		 inc	 ecx
  000cc	3b ca		 cmp	 ecx, edx
  000ce	7c d6		 jl	 SHORT $LL7@idamax
$LN6@idamax:

; 862  :                 }
; 863  :             }
; 864  :         }
; 865  :         return (itemp);

  000d0	5f		 pop	 edi
  000d1	8b c6		 mov	 eax, esi
  000d3	5e		 pop	 esi

; 866  : }

  000d4	8b e5		 mov	 esp, ebp
  000d6	5d		 pop	 ebp
  000d7	c3		 ret	 0
?idamax@@YAHHQAMH@Z ENDP				; idamax
_TEXT	ENDS
; Function compile flags: /Ogtp
; File E:\Proyectos\JuegosOnlineproyectos\PB\pbblow\Piercing Blow Remake\i3Server\src\i3Base\Linpack.cpp
;	COMDAT ?epslon@@YAMM@Z
_TEXT	SEGMENT
_x$ = 8							; size = 4
tv195 = 8						; size = 4
tv198 = 8						; size = 4
?epslon@@YAMM@Z PROC					; epslon, COMDAT

; 875  : {

  00000	55		 push	 ebp
  00001	8b ec		 mov	 ebp, esp

; 876  :         REAL32 a,b,c,eps;
; 877  : /*
; 878  :      this program should function properly on all systems
; 879  :      satisfying the following two assumptions,
; 880  :         1.  the base used in representing dfloating point
; 881  :             numbers is not a power of three.
; 882  :         2.  the quantity  a  in statement 10 is represented to 
; 883  :             the accuracy used in dfloating point variables
; 884  :             that are stored in memory.
; 885  :      the statement number 10 and the go to 10 are intended to
; 886  :      force optimizing compilers to generate code satisfying 
; 887  :      assumption 2.
; 888  :      under these assumptions, it should be true that,
; 889  :             a  is not exactly equal to four-thirds,
; 890  :             b  has a zero for its last bit or digit,
; 891  :             c  is not exactly equal to one,
; 892  :             eps  measures the separation of 1.0 from
; 893  :                  the next larger dfloating point number.
; 894  :      the developers of eispack would appreciate being informed
; 895  :      about any systems where these assumptions do not hold.
; 896  : 
; 897  :      *****************************************************************
; 898  :      this routine is one of the auxiliary routines used by eispack iii
; 899  :      to avoid machine dependencies.
; 900  :      *****************************************************************
; 901  : 
; 902  :      this version dated 4/6/83.
; 903  : */
; 904  : 
; 905  :         a = 4.0e0f / 3.0e0f;
; 906  :         eps = ZERO;
; 907  :         while (eps == ZERO) 
; 908  : 		{
; 909  :                 b = a - ONE;
; 910  :                 c = b + b + b;
; 911  :                 eps = (REAL32) fabs((double)(c-ONE));
; 912  :         }
; 913  : 
; 914  :         return (REAL32) (eps*fabs((double)x));

  00003	d9 45 08	 fld	 DWORD PTR _x$[ebp]
  00006	d9 e1		 fabs
  00008	dd 05 00 00 00
	00		 fld	 QWORD PTR __real@3e80000000000000
  0000e	d9 e1		 fabs
  00010	d9 5d 08	 fstp	 DWORD PTR tv198[ebp]
  00013	d8 4d 08	 fmul	 DWORD PTR tv198[ebp]
  00016	d9 5d 08	 fstp	 DWORD PTR tv195[ebp]
  00019	d9 45 08	 fld	 DWORD PTR tv195[ebp]

; 915  : }

  0001c	5d		 pop	 ebp
  0001d	c3		 ret	 0
?epslon@@YAMM@Z ENDP					; epslon
_TEXT	ENDS
; Function compile flags: /Ogtp
; File E:\Proyectos\JuegosOnlineproyectos\PB\pbblow\Piercing Blow Remake\i3Server\src\i3Base\Linpack.cpp
;	COMDAT ?daxpy@@YAXHMQAMH0H@Z
_TEXT	SEGMENT
_n$ = 8							; size = 4
tv87 = 8						; size = 4
_da$ = 12						; size = 4
_dx$ = 16						; size = 4
_incx$ = 20						; size = 4
_dy$ = 24						; size = 4
_incy$ = 28						; size = 4
?daxpy@@YAXHMQAMH0H@Z PROC				; daxpy, COMDAT

; 631  : {

  00000	55		 push	 ebp
  00001	8b ec		 mov	 ebp, esp
  00003	f3 0f 10 45 0c	 movss	 xmm0, DWORD PTR _da$[ebp]
  00008	8b 4d 18	 mov	 ecx, DWORD PTR _dy$[ebp]
  0000b	53		 push	 ebx
  0000c	8b 5d 08	 mov	 ebx, DWORD PTR _n$[ebp]
  0000f	f3 0f 11 45 08	 movss	 DWORD PTR tv87[ebp], xmm0
  00014	57		 push	 edi
  00015	8b 7d 10	 mov	 edi, DWORD PTR _dx$[ebp]

; 632  :         INT32 i,ix,iy,m,mp1;
; 633  : 
; 634  :         mp1 = 0;
; 635  :         m = 0;
; 636  : 
; 637  :         if(n <= 0) return;

  00018	85 db		 test	 ebx, ebx
  0001a	0f 8e df 00 00
	00		 jle	 $LN3@daxpy

; 638  :         if (da == ZERO) return;

  00020	0f 2e 05 00 00
	00 00		 ucomiss xmm0, DWORD PTR __real@00000000
  00027	9f		 lahf
  00028	f6 c4 44	 test	 ah, 68			; 00000044H
  0002b	0f 8b ce 00 00
	00		 jnp	 $LN3@daxpy

; 639  : 
; 640  :         if(incx != 1 || incy != 1) {

  00031	83 7d 14 01	 cmp	 DWORD PTR _incx$[ebp], 1
  00035	56		 push	 esi
  00036	8b 75 1c	 mov	 esi, DWORD PTR _incy$[ebp]
  00039	0f 85 83 00 00
	00		 jne	 $LN14@daxpy
  0003f	83 fe 01	 cmp	 esi, 1
  00042	75 7e		 jne	 SHORT $LN14@daxpy

; 653  :                      
; 654  :                 }
; 655  :                 return;
; 656  :         }
; 657  :         
; 658  :         /* code for both increments equal to 1 */
; 659  :         
; 660  : 
; 661  : #ifdef ROLL
; 662  : 
; 663  :         for (i = 0;i < n; i++) {
; 664  :                 dy[i] = dy[i] + da*dx[i];
; 665  :         }
; 666  : 
; 667  : 
; 668  : #endif
; 669  : 
; 670  : #ifdef UNROLL
; 671  : 
; 672  :         m = n % 4;
; 673  :         if ( m != 0) {

  00044	d9 45 08	 fld	 DWORD PTR tv87[ebp]
  00047	8b d3		 mov	 edx, ebx
  00049	83 e2 03	 and	 edx, 3
  0004c	74 23		 je	 SHORT $LN44@daxpy

; 674  :                 for (i = 0; i < m; i++) 

  0004e	33 c0		 xor	 eax, eax
  00050	3b c2		 cmp	 eax, edx
  00052	7d 14		 jge	 SHORT $LN29@daxpy
  00054	d9 c0		 fld	 ST(0)
$LC7@daxpy:

; 675  :                         dy[i] = dy[i] + da*dx[i];

  00056	d9 04 87	 fld	 DWORD PTR [edi+eax*4]
  00059	d8 c9		 fmul	 ST(0), ST(1)
  0005b	d8 04 81	 fadd	 DWORD PTR [ecx+eax*4]
  0005e	d9 1c 81	 fstp	 DWORD PTR [ecx+eax*4]
  00061	40		 inc	 eax
  00062	3b c2		 cmp	 eax, edx
  00064	7c f0		 jl	 SHORT $LC7@daxpy

; 674  :                 for (i = 0; i < m; i++) 

  00066	dd d8		 fstp	 ST(0)
$LN29@daxpy:

; 676  :                         
; 677  :                 if (n < 4) return;

  00068	83 fb 04	 cmp	 ebx, 4
  0006b	0f 8c 8b 00 00
	00		 jl	 $LN71@daxpy
$LN44@daxpy:

; 678  :         }
; 679  :         for (i = m; i < n; i = i + 4) {

  00071	3b d3		 cmp	 edx, ebx
  00073	0f 8d 83 00 00
	00		 jge	 $LN71@daxpy
  00079	8d 42 02	 lea	 eax, DWORD PTR [edx+2]
  0007c	8d 72 03	 lea	 esi, DWORD PTR [edx+3]
$LN10@daxpy:

; 680  :                 dy[i] = dy[i] + da*dx[i];

  0007f	d9 04 97	 fld	 DWORD PTR [edi+edx*4]
  00082	d8 c9		 fmul	 ST(0), ST(1)
  00084	d8 04 91	 fadd	 DWORD PTR [ecx+edx*4]
  00087	d9 1c 91	 fstp	 DWORD PTR [ecx+edx*4]

; 681  :                 dy[i+1] = dy[i+1] + da*dx[i+1];

  0008a	d9 44 97 04	 fld	 DWORD PTR [edi+edx*4+4]
  0008e	d8 c9		 fmul	 ST(0), ST(1)
  00090	d8 44 91 04	 fadd	 DWORD PTR [ecx+edx*4+4]
  00094	d9 5c 91 04	 fstp	 DWORD PTR [ecx+edx*4+4]

; 682  :                 dy[i+2] = dy[i+2] + da*dx[i+2];

  00098	d9 04 87	 fld	 DWORD PTR [edi+eax*4]
  0009b	83 c2 04	 add	 edx, 4
  0009e	d8 c9		 fmul	 ST(0), ST(1)
  000a0	d8 04 81	 fadd	 DWORD PTR [ecx+eax*4]
  000a3	d9 1c 81	 fstp	 DWORD PTR [ecx+eax*4]

; 683  :                 dy[i+3] = dy[i+3] + da*dx[i+3];

  000a6	d9 04 b7	 fld	 DWORD PTR [edi+esi*4]
  000a9	83 c0 04	 add	 eax, 4
  000ac	d8 c9		 fmul	 ST(0), ST(1)
  000ae	d8 04 b1	 fadd	 DWORD PTR [ecx+esi*4]
  000b1	d9 1c b1	 fstp	 DWORD PTR [ecx+esi*4]
  000b4	83 c6 04	 add	 esi, 4
  000b7	3b d3		 cmp	 edx, ebx
  000b9	7c c4		 jl	 SHORT $LN10@daxpy

; 678  :         }
; 679  :         for (i = m; i < n; i = i + 4) {

  000bb	5e		 pop	 esi
  000bc	5f		 pop	 edi
  000bd	dd d8		 fstp	 ST(0)

; 684  :                 
; 685  :         }
; 686  : 
; 687  : #endif
; 688  : return;
; 689  : }

  000bf	5b		 pop	 ebx
  000c0	5d		 pop	 ebp
  000c1	c3		 ret	 0
$LN14@daxpy:

; 641  : 
; 642  :                 /* code for unequal increments or equal increments
; 643  :                    not equal to 1                                       */
; 644  : 
; 645  :                 ix = 0;
; 646  :                 iy = 0;

  000c2	b8 01 00 00 00	 mov	 eax, 1
  000c7	33 d2		 xor	 edx, edx
  000c9	2b c3		 sub	 eax, ebx

; 647  :                 if(incx < 0) ix = (-n+1)*incx;

  000cb	39 55 14	 cmp	 DWORD PTR _incx$[ebp], edx
  000ce	7d 06		 jge	 SHORT $LN38@daxpy
  000d0	8b d0		 mov	 edx, eax
  000d2	0f af 55 14	 imul	 edx, DWORD PTR _incx$[ebp]
$LN38@daxpy:

; 648  :                 if(incy < 0)iy = (-n+1)*incy;

  000d6	85 f6		 test	 esi, esi
  000d8	79 05		 jns	 SHORT $LN16@daxpy
  000da	0f af c6	 imul	 eax, esi

; 676  :                         
; 677  :                 if (n < 4) return;

  000dd	eb 02		 jmp	 SHORT $LN45@daxpy
$LN16@daxpy:

; 649  :                 for (i = 0;i < n; i++) {

  000df	33 c0		 xor	 eax, eax
$LN45@daxpy:
  000e1	d9 45 08	 fld	 DWORD PTR tv87[ebp]

; 676  :                         
; 677  :                 if (n < 4) return;

  000e4	33 f6		 xor	 esi, esi
$LN4@daxpy:

; 649  :                 for (i = 0;i < n; i++) {

  000e6	d9 04 97	 fld	 DWORD PTR [edi+edx*4]
  000e9	46		 inc	 esi

; 650  :                         dy[iy] = dy[iy] + da*dx[ix];
; 651  :                         ix = ix + incx;

  000ea	03 55 14	 add	 edx, DWORD PTR _incx$[ebp]
  000ed	d8 c9		 fmul	 ST(0), ST(1)
  000ef	d8 04 81	 fadd	 DWORD PTR [ecx+eax*4]
  000f2	d9 1c 81	 fstp	 DWORD PTR [ecx+eax*4]

; 652  :                         iy = iy + incy;

  000f5	03 45 1c	 add	 eax, DWORD PTR _incy$[ebp]
  000f8	3b f3		 cmp	 esi, ebx
  000fa	7c ea		 jl	 SHORT $LN4@daxpy
$LN71@daxpy:

; 678  :         }
; 679  :         for (i = m; i < n; i = i + 4) {

  000fc	dd d8		 fstp	 ST(0)
  000fe	5e		 pop	 esi
$LN3@daxpy:

; 684  :                 
; 685  :         }
; 686  : 
; 687  : #endif
; 688  : return;
; 689  : }

  000ff	5f		 pop	 edi
  00100	5b		 pop	 ebx
  00101	5d		 pop	 ebp
  00102	c3		 ret	 0
?daxpy@@YAXHMQAMH0H@Z ENDP				; daxpy
_TEXT	ENDS
; Function compile flags: /Ogtp
; File E:\Proyectos\JuegosOnlineproyectos\PB\pbblow\Piercing Blow Remake\i3Server\src\i3Base\Linpack.cpp
;	COMDAT ?dmxpy@@YAXHQAMHH00@Z
_TEXT	SEGMENT
tv1551 = -64						; size = 4
tv1509 = -60						; size = 4
tv1544 = -56						; size = 4
tv1508 = -52						; size = 4
tv1499 = -48						; size = 4
tv1535 = -44						; size = 4
tv1534 = -40						; size = 4
tv1548 = -36						; size = 4
tv1546 = -36						; size = 4
tv1545 = -36						; size = 4
tv1543 = -36						; size = 4
tv1541 = -36						; size = 4
tv1538 = -36						; size = 4
tv1537 = -36						; size = 4
tv1533 = -36						; size = 4
tv1525 = -36						; size = 4
tv1522 = -36						; size = 4
tv1519 = -36						; size = 4
tv1493 = -36						; size = 4
tv1515 = -36						; size = 4
tv1511 = -36						; size = 4
tv1465 = -32						; size = 4
tv1504 = -32						; size = 4
tv1468 = -28						; size = 4
tv1516 = -28						; size = 4
tv1518 = -24						; size = 4
tv1475 = -24						; size = 4
tv1478 = -20						; size = 4
tv1496 = -20						; size = 4
tv1486 = -16						; size = 4
tv1507 = -16						; size = 4
tv1482 = -16						; size = 4
tv1479 = -16						; size = 4
tv1476 = -16						; size = 4
tv1471 = -16						; size = 4
tv1470 = -16						; size = 4
tv1453 = -16						; size = 4
tv1488 = -12						; size = 4
tv1456 = -12						; size = 4
tv1526 = -12						; size = 4
tv1485 = -8						; size = 4
tv1459 = -8						; size = 4
tv1529 = -8						; size = 4
tv1458 = -8						; size = 4
tv1447 = -8						; size = 4
tv1481 = -4						; size = 4
tv1461 = -4						; size = 4
tv1530 = -4						; size = 4
tv1450 = -4						; size = 4
_j$1$ = -4						; size = 4
_n1$ = 8						; size = 4
_y$ = 12						; size = 4
_n2$ = 16						; size = 4
_ldm$ = 20						; size = 4
_x$ = 24						; size = 4
_m$ = 28						; size = 4
?dmxpy@@YAXHQAMHH00@Z PROC				; dmxpy, COMDAT

; 947  : {

  00000	55		 push	 ebp
  00001	8b ec		 mov	 ebp, esp

; 948  :         INT32 j,i,jmin;
; 949  :         /* cleanup odd vector */
; 950  : 
; 951  :         j = n2 % 2;

  00003	8b 45 10	 mov	 eax, DWORD PTR _n2$[ebp]
  00006	83 ec 40	 sub	 esp, 64			; 00000040H
  00009	8b 4d 18	 mov	 ecx, DWORD PTR _x$[ebp]
  0000c	53		 push	 ebx
  0000d	56		 push	 esi
  0000e	8b 75 0c	 mov	 esi, DWORD PTR _y$[ebp]
  00011	57		 push	 edi
  00012	8b f8		 mov	 edi, eax
  00014	81 e7 01 00 00
	80		 and	 edi, -2147483647	; 80000001H
  0001a	79 05		 jns	 SHORT $LN65@dmxpy
  0001c	4f		 dec	 edi
  0001d	83 cf fe	 or	 edi, -2			; fffffffeH
  00020	47		 inc	 edi
$LN65@dmxpy:

; 952  :         if (j >= 1) {

  00021	8b 5d 08	 mov	 ebx, DWORD PTR _n1$[ebp]
  00024	83 ff 01	 cmp	 edi, 1
  00027	7c 2d		 jl	 SHORT $LN3@dmxpy

; 953  :                 j = j - 1;

  00029	4f		 dec	 edi
  0002a	33 d2		 xor	 edx, edx
  0002c	89 7d fc	 mov	 DWORD PTR _j$1$[ebp], edi

; 954  :                 for (i = 0; i < n1; i++) 

  0002f	85 db		 test	 ebx, ebx
  00031	7e 23		 jle	 SHORT $LN3@dmxpy
  00033	8b 45 14	 mov	 eax, DWORD PTR _ldm$[ebp]
  00036	0f af c7	 imul	 eax, edi
  00039	8b 7d 1c	 mov	 edi, DWORD PTR _m$[ebp]
  0003c	8d 3c 87	 lea	 edi, DWORD PTR [edi+eax*4]
  0003f	8b 45 fc	 mov	 eax, DWORD PTR _j$1$[ebp]
$LL4@dmxpy:

; 955  :                         y[i] = (y[i]) + x[j]*m[ldm*j+i];

  00042	d9 04 97	 fld	 DWORD PTR [edi+edx*4]
  00045	d8 0c 81	 fmul	 DWORD PTR [ecx+eax*4]
  00048	d8 04 96	 fadd	 DWORD PTR [esi+edx*4]
  0004b	d9 1c 96	 fstp	 DWORD PTR [esi+edx*4]
  0004e	42		 inc	 edx
  0004f	3b d3		 cmp	 edx, ebx
  00051	7c ef		 jl	 SHORT $LL4@dmxpy
  00053	8b 45 10	 mov	 eax, DWORD PTR _n2$[ebp]
$LN3@dmxpy:

; 956  :         } 
; 957  : 
; 958  :         /* cleanup odd group of two vectors */
; 959  : 
; 960  :         j = n2 % 4;

  00056	8b f8		 mov	 edi, eax
  00058	81 e7 03 00 00
	80		 and	 edi, -2147483645	; 80000003H
  0005e	79 05		 jns	 SHORT $LN66@dmxpy
  00060	4f		 dec	 edi
  00061	83 cf fc	 or	 edi, -4			; fffffffcH
  00064	47		 inc	 edi
$LN66@dmxpy:

; 961  :         if (j >= 2) {

  00065	83 ff 02	 cmp	 edi, 2
  00068	7c 4c		 jl	 SHORT $LN6@dmxpy

; 962  :                 j = j - 1;

  0006a	4f		 dec	 edi
  0006b	33 d2		 xor	 edx, edx

; 963  :                 for (i = 0; i < n1; i++)

  0006d	85 db		 test	 ebx, ebx
  0006f	7e 45		 jle	 SHORT $LN6@dmxpy
  00071	8b 75 1c	 mov	 esi, DWORD PTR _m$[ebp]
  00074	8d 47 ff	 lea	 eax, DWORD PTR [edi-1]
  00077	0f af 45 14	 imul	 eax, DWORD PTR _ldm$[ebp]
  0007b	8d 04 86	 lea	 eax, DWORD PTR [esi+eax*4]
  0007e	89 45 fc	 mov	 DWORD PTR tv1450[ebp], eax
  00081	8b 45 14	 mov	 eax, DWORD PTR _ldm$[ebp]
  00084	0f af c7	 imul	 eax, edi
  00087	8d 04 86	 lea	 eax, DWORD PTR [esi+eax*4]
  0008a	8b 75 0c	 mov	 esi, DWORD PTR _y$[ebp]
  0008d	89 45 f8	 mov	 DWORD PTR tv1447[ebp], eax
  00090	8b 45 fc	 mov	 eax, DWORD PTR tv1450[ebp]
$LL7@dmxpy:

; 964  :                         y[i] = ( (y[i])

  00093	d9 04 90	 fld	 DWORD PTR [eax+edx*4]
  00096	d8 4c b9 fc	 fmul	 DWORD PTR [ecx+edi*4-4]
  0009a	8b 5d f8	 mov	 ebx, DWORD PTR tv1447[ebp]
  0009d	d8 04 96	 fadd	 DWORD PTR [esi+edx*4]
  000a0	d9 04 93	 fld	 DWORD PTR [ebx+edx*4]
  000a3	d8 0c b9	 fmul	 DWORD PTR [ecx+edi*4]
  000a6	8b 5d 08	 mov	 ebx, DWORD PTR _n1$[ebp]
  000a9	de c1		 faddp	 ST(1), ST(0)
  000ab	d9 1c 96	 fstp	 DWORD PTR [esi+edx*4]
  000ae	42		 inc	 edx
  000af	3b d3		 cmp	 edx, ebx
  000b1	7c e0		 jl	 SHORT $LL7@dmxpy
  000b3	8b 45 10	 mov	 eax, DWORD PTR _n2$[ebp]
$LN6@dmxpy:

; 965  :                                + x[j-1]*m[ldm*(j-1)+i]) + x[j]*m[ldm*j+i];
; 966  :         } 
; 967  : 
; 968  :         /* cleanup odd group of four vectors */
; 969  : 
; 970  :         j = n2 % 8;

  000b6	8b f8		 mov	 edi, eax
  000b8	81 e7 07 00 00
	80		 and	 edi, -2147483641	; 80000007H
  000be	79 05		 jns	 SHORT $LN67@dmxpy
  000c0	4f		 dec	 edi
  000c1	83 cf f8	 or	 edi, -8			; fffffff8H
  000c4	47		 inc	 edi
$LN67@dmxpy:

; 971  :         if (j >= 4) {

  000c5	83 ff 04	 cmp	 edi, 4
  000c8	0f 8c 8a 00 00
	00		 jl	 $LN9@dmxpy

; 972  :                 j = j - 1;

  000ce	4f		 dec	 edi
  000cf	33 d2		 xor	 edx, edx

; 973  :                 for (i = 0; i < n1; i++)

  000d1	85 db		 test	 ebx, ebx
  000d3	0f 8e 7f 00 00
	00		 jle	 $LN9@dmxpy
  000d9	8b 45 14	 mov	 eax, DWORD PTR _ldm$[ebp]
  000dc	8d 5f fd	 lea	 ebx, DWORD PTR [edi-3]
  000df	0f af c3	 imul	 eax, ebx
  000e2	8b 5d 1c	 mov	 ebx, DWORD PTR _m$[ebp]
  000e5	8d 04 83	 lea	 eax, DWORD PTR [ebx+eax*4]
  000e8	89 45 fc	 mov	 DWORD PTR tv1461[ebp], eax
  000eb	8d 47 fe	 lea	 eax, DWORD PTR [edi-2]
  000ee	89 45 f8	 mov	 DWORD PTR tv1459[ebp], eax
  000f1	8b 45 14	 mov	 eax, DWORD PTR _ldm$[ebp]
  000f4	0f af 45 f8	 imul	 eax, DWORD PTR tv1459[ebp]
  000f8	8d 04 83	 lea	 eax, DWORD PTR [ebx+eax*4]
  000fb	89 45 f8	 mov	 DWORD PTR tv1458[ebp], eax
  000fe	8d 47 ff	 lea	 eax, DWORD PTR [edi-1]
  00101	0f af 45 14	 imul	 eax, DWORD PTR _ldm$[ebp]
  00105	8d 04 83	 lea	 eax, DWORD PTR [ebx+eax*4]
  00108	89 45 f4	 mov	 DWORD PTR tv1456[ebp], eax
  0010b	8b 45 14	 mov	 eax, DWORD PTR _ldm$[ebp]
  0010e	0f af c7	 imul	 eax, edi
  00111	8d 04 83	 lea	 eax, DWORD PTR [ebx+eax*4]
  00114	89 45 f0	 mov	 DWORD PTR tv1453[ebp], eax
$LL10@dmxpy:

; 974  :                         y[i] = ((( (y[i])

  00117	8b 75 fc	 mov	 esi, DWORD PTR tv1461[ebp]
  0011a	8b 5d f8	 mov	 ebx, DWORD PTR tv1458[ebp]
  0011d	d9 04 96	 fld	 DWORD PTR [esi+edx*4]
  00120	d8 4c b9 f4	 fmul	 DWORD PTR [ecx+edi*4-12]
  00124	8b 75 0c	 mov	 esi, DWORD PTR _y$[ebp]
  00127	d8 04 96	 fadd	 DWORD PTR [esi+edx*4]
  0012a	d9 04 93	 fld	 DWORD PTR [ebx+edx*4]
  0012d	d8 4c b9 f8	 fmul	 DWORD PTR [ecx+edi*4-8]
  00131	8b 5d f4	 mov	 ebx, DWORD PTR tv1456[ebp]
  00134	de c1		 faddp	 ST(1), ST(0)
  00136	d9 04 93	 fld	 DWORD PTR [ebx+edx*4]
  00139	d8 4c b9 fc	 fmul	 DWORD PTR [ecx+edi*4-4]
  0013d	8b 5d f0	 mov	 ebx, DWORD PTR tv1453[ebp]
  00140	de c1		 faddp	 ST(1), ST(0)
  00142	d9 04 93	 fld	 DWORD PTR [ebx+edx*4]
  00145	d8 0c b9	 fmul	 DWORD PTR [ecx+edi*4]
  00148	8b 5d 08	 mov	 ebx, DWORD PTR _n1$[ebp]
  0014b	de c1		 faddp	 ST(1), ST(0)
  0014d	d9 1c 96	 fstp	 DWORD PTR [esi+edx*4]
  00150	42		 inc	 edx
  00151	3b d3		 cmp	 edx, ebx
  00153	7c c2		 jl	 SHORT $LL10@dmxpy
  00155	8b 45 10	 mov	 eax, DWORD PTR _n2$[ebp]
$LN9@dmxpy:

; 975  :                                + x[j-3]*m[ldm*(j-3)+i]) 
; 976  :                                + x[j-2]*m[ldm*(j-2)+i])
; 977  :                                + x[j-1]*m[ldm*(j-1)+i]) + x[j]*m[ldm*j+i];
; 978  :         } 
; 979  : 
; 980  :         /* cleanup odd group of eight vectors */
; 981  : 
; 982  :         j = n2 % 16;

  00158	8b f8		 mov	 edi, eax
  0015a	81 e7 0f 00 00
	80		 and	 edi, -2147483633	; 8000000fH
  00160	79 05		 jns	 SHORT $LN68@dmxpy
  00162	4f		 dec	 edi
  00163	83 cf f0	 or	 edi, -16		; fffffff0H
  00166	47		 inc	 edi
$LN68@dmxpy:
  00167	89 7d dc	 mov	 DWORD PTR tv1493[ebp], edi

; 983  :         if (j >= 8) {

  0016a	83 ff 08	 cmp	 edi, 8
  0016d	0f 8c 0e 01 00
	00		 jl	 $LN12@dmxpy

; 984  :                 j = j - 1;

  00173	4f		 dec	 edi
  00174	33 d2		 xor	 edx, edx

; 985  :                 for (i = 0; i < n1; i++)

  00176	85 db		 test	 ebx, ebx
  00178	0f 8e 03 01 00
	00		 jle	 $LN12@dmxpy
  0017e	8b 45 14	 mov	 eax, DWORD PTR _ldm$[ebp]
  00181	8d 5f f9	 lea	 ebx, DWORD PTR [edi-7]
  00184	0f af c3	 imul	 eax, ebx
  00187	8b 5d 1c	 mov	 ebx, DWORD PTR _m$[ebp]
  0018a	8d 04 83	 lea	 eax, DWORD PTR [ebx+eax*4]
  0018d	89 45 f4	 mov	 DWORD PTR tv1488[ebp], eax
  00190	8d 47 fa	 lea	 eax, DWORD PTR [edi-6]
  00193	89 45 f0	 mov	 DWORD PTR tv1486[ebp], eax
  00196	8b 45 14	 mov	 eax, DWORD PTR _ldm$[ebp]
  00199	0f af 45 f0	 imul	 eax, DWORD PTR tv1486[ebp]
  0019d	8d 04 83	 lea	 eax, DWORD PTR [ebx+eax*4]
  001a0	89 45 f8	 mov	 DWORD PTR tv1485[ebp], eax
  001a3	8d 47 fb	 lea	 eax, DWORD PTR [edi-5]
  001a6	89 45 f0	 mov	 DWORD PTR tv1482[ebp], eax
  001a9	8b 45 14	 mov	 eax, DWORD PTR _ldm$[ebp]
  001ac	0f af 45 f0	 imul	 eax, DWORD PTR tv1482[ebp]
  001b0	8d 04 83	 lea	 eax, DWORD PTR [ebx+eax*4]
  001b3	89 45 fc	 mov	 DWORD PTR tv1481[ebp], eax
  001b6	8d 47 fc	 lea	 eax, DWORD PTR [edi-4]
  001b9	89 45 f0	 mov	 DWORD PTR tv1479[ebp], eax
  001bc	8b 45 14	 mov	 eax, DWORD PTR _ldm$[ebp]
  001bf	0f af 45 f0	 imul	 eax, DWORD PTR tv1479[ebp]
  001c3	8d 04 83	 lea	 eax, DWORD PTR [ebx+eax*4]
  001c6	89 45 ec	 mov	 DWORD PTR tv1478[ebp], eax
  001c9	8d 47 fd	 lea	 eax, DWORD PTR [edi-3]
  001cc	89 45 f0	 mov	 DWORD PTR tv1476[ebp], eax
  001cf	8b 45 14	 mov	 eax, DWORD PTR _ldm$[ebp]
  001d2	0f af 45 f0	 imul	 eax, DWORD PTR tv1476[ebp]
  001d6	8d 04 83	 lea	 eax, DWORD PTR [ebx+eax*4]
  001d9	89 45 e8	 mov	 DWORD PTR tv1475[ebp], eax
  001dc	8d 47 fe	 lea	 eax, DWORD PTR [edi-2]
  001df	89 45 f0	 mov	 DWORD PTR tv1471[ebp], eax
  001e2	8b 45 14	 mov	 eax, DWORD PTR _ldm$[ebp]
  001e5	0f af 45 f0	 imul	 eax, DWORD PTR tv1471[ebp]
  001e9	8d 04 83	 lea	 eax, DWORD PTR [ebx+eax*4]
  001ec	89 45 f0	 mov	 DWORD PTR tv1470[ebp], eax
  001ef	8d 47 ff	 lea	 eax, DWORD PTR [edi-1]
  001f2	0f af 45 14	 imul	 eax, DWORD PTR _ldm$[ebp]
  001f6	8d 04 83	 lea	 eax, DWORD PTR [ebx+eax*4]
  001f9	89 45 e4	 mov	 DWORD PTR tv1468[ebp], eax
  001fc	8b 45 14	 mov	 eax, DWORD PTR _ldm$[ebp]
  001ff	0f af c7	 imul	 eax, edi
  00202	8d 04 83	 lea	 eax, DWORD PTR [ebx+eax*4]
  00205	89 45 e0	 mov	 DWORD PTR tv1465[ebp], eax
  00208	eb 06 8d 9b 00
	00 00 00	 npad	 8
$LL13@dmxpy:

; 986  :                         y[i] = ((((((( (y[i])

  00210	8b 75 f4	 mov	 esi, DWORD PTR tv1488[ebp]
  00213	8b 5d f8	 mov	 ebx, DWORD PTR tv1485[ebp]
  00216	d9 04 96	 fld	 DWORD PTR [esi+edx*4]
  00219	d8 4c b9 e4	 fmul	 DWORD PTR [ecx+edi*4-28]
  0021d	8b 75 0c	 mov	 esi, DWORD PTR _y$[ebp]
  00220	d8 04 96	 fadd	 DWORD PTR [esi+edx*4]
  00223	d9 04 93	 fld	 DWORD PTR [ebx+edx*4]
  00226	d8 4c b9 e8	 fmul	 DWORD PTR [ecx+edi*4-24]
  0022a	8b 5d fc	 mov	 ebx, DWORD PTR tv1481[ebp]
  0022d	de c1		 faddp	 ST(1), ST(0)
  0022f	d9 04 93	 fld	 DWORD PTR [ebx+edx*4]
  00232	d8 4c b9 ec	 fmul	 DWORD PTR [ecx+edi*4-20]
  00236	8b 5d ec	 mov	 ebx, DWORD PTR tv1478[ebp]
  00239	de c1		 faddp	 ST(1), ST(0)
  0023b	d9 04 93	 fld	 DWORD PTR [ebx+edx*4]
  0023e	d8 4c b9 f0	 fmul	 DWORD PTR [ecx+edi*4-16]
  00242	8b 5d e8	 mov	 ebx, DWORD PTR tv1475[ebp]
  00245	de c1		 faddp	 ST(1), ST(0)
  00247	d9 04 93	 fld	 DWORD PTR [ebx+edx*4]
  0024a	d8 4c b9 f4	 fmul	 DWORD PTR [ecx+edi*4-12]
  0024e	8b 5d f0	 mov	 ebx, DWORD PTR tv1470[ebp]
  00251	de c1		 faddp	 ST(1), ST(0)
  00253	d9 04 93	 fld	 DWORD PTR [ebx+edx*4]
  00256	d8 4c b9 f8	 fmul	 DWORD PTR [ecx+edi*4-8]
  0025a	8b 5d e4	 mov	 ebx, DWORD PTR tv1468[ebp]
  0025d	de c1		 faddp	 ST(1), ST(0)
  0025f	d9 04 93	 fld	 DWORD PTR [ebx+edx*4]
  00262	d8 4c b9 fc	 fmul	 DWORD PTR [ecx+edi*4-4]
  00266	8b 5d e0	 mov	 ebx, DWORD PTR tv1465[ebp]
  00269	de c1		 faddp	 ST(1), ST(0)
  0026b	d9 04 93	 fld	 DWORD PTR [ebx+edx*4]
  0026e	d8 0c b9	 fmul	 DWORD PTR [ecx+edi*4]
  00271	8b 5d 08	 mov	 ebx, DWORD PTR _n1$[ebp]
  00274	de c1		 faddp	 ST(1), ST(0)
  00276	d9 1c 96	 fstp	 DWORD PTR [esi+edx*4]
  00279	42		 inc	 edx
  0027a	3b d3		 cmp	 edx, ebx
  0027c	7c 92		 jl	 SHORT $LL13@dmxpy
  0027e	8b 45 10	 mov	 eax, DWORD PTR _n2$[ebp]
$LN12@dmxpy:

; 987  :                                + x[j-7]*m[ldm*(j-7)+i]) + x[j-6]*m[ldm*(j-6)+i])
; 988  :                                + x[j-5]*m[ldm*(j-5)+i]) + x[j-4]*m[ldm*(j-4)+i])
; 989  :                                + x[j-3]*m[ldm*(j-3)+i]) + x[j-2]*m[ldm*(j-2)+i])
; 990  :                                + x[j-1]*m[ldm*(j-1)+i]) + x[j]  *m[ldm*j+i];
; 991  :         } 
; 992  :         
; 993  :         /* main loop - groups of sixteen vectors */
; 994  : 
; 995  :         jmin = (n2%16)+16;
; 996  :         for (j = jmin-1; j < n2; j = j + 16) {

  00281	8b 7d dc	 mov	 edi, DWORD PTR tv1493[ebp]
  00284	83 c7 0f	 add	 edi, 15			; 0000000fH
  00287	3b f8		 cmp	 edi, eax
  00289	0f 8d 07 02 00
	00		 jge	 $LN15@dmxpy
  0028f	90		 npad	 1
$LL16@dmxpy:

; 997  :                 for (i = 0; i < n1; i++) 

  00290	33 d2		 xor	 edx, edx
  00292	85 db		 test	 ebx, ebx
  00294	0f 8e f1 01 00
	00		 jle	 $LN14@dmxpy

; 998  :                         y[i] = ((((((((((((((( (y[i])

  0029a	8b 45 14	 mov	 eax, DWORD PTR _ldm$[ebp]
  0029d	8d 5f f1	 lea	 ebx, DWORD PTR [edi-15]
  002a0	0f af c3	 imul	 eax, ebx
  002a3	8b 5d 1c	 mov	 ebx, DWORD PTR _m$[ebp]
  002a6	8d 04 83	 lea	 eax, DWORD PTR [ebx+eax*4]
  002a9	89 45 e0	 mov	 DWORD PTR tv1504[ebp], eax
  002ac	8d 47 f2	 lea	 eax, DWORD PTR [edi-14]
  002af	89 45 dc	 mov	 DWORD PTR tv1515[ebp], eax
  002b2	8b 45 14	 mov	 eax, DWORD PTR _ldm$[ebp]
  002b5	0f af 45 dc	 imul	 eax, DWORD PTR tv1515[ebp]
  002b9	8d 04 83	 lea	 eax, DWORD PTR [ebx+eax*4]
  002bc	89 45 e4	 mov	 DWORD PTR tv1516[ebp], eax
  002bf	8d 47 f3	 lea	 eax, DWORD PTR [edi-13]
  002c2	89 45 dc	 mov	 DWORD PTR tv1519[ebp], eax
  002c5	8b 45 14	 mov	 eax, DWORD PTR _ldm$[ebp]
  002c8	0f af 45 dc	 imul	 eax, DWORD PTR tv1519[ebp]
  002cc	8d 04 83	 lea	 eax, DWORD PTR [ebx+eax*4]
  002cf	89 45 e8	 mov	 DWORD PTR tv1518[ebp], eax
  002d2	8d 47 f4	 lea	 eax, DWORD PTR [edi-12]
  002d5	89 45 dc	 mov	 DWORD PTR tv1538[ebp], eax
  002d8	8b 45 14	 mov	 eax, DWORD PTR _ldm$[ebp]
  002db	0f af 45 dc	 imul	 eax, DWORD PTR tv1538[ebp]
  002df	8d 04 83	 lea	 eax, DWORD PTR [ebx+eax*4]
  002e2	89 45 ec	 mov	 DWORD PTR tv1496[ebp], eax
  002e5	8d 47 f5	 lea	 eax, DWORD PTR [edi-11]
  002e8	89 45 dc	 mov	 DWORD PTR tv1522[ebp], eax
  002eb	8b 45 14	 mov	 eax, DWORD PTR _ldm$[ebp]
  002ee	0f af 45 dc	 imul	 eax, DWORD PTR tv1522[ebp]
  002f2	8d 04 83	 lea	 eax, DWORD PTR [ebx+eax*4]
  002f5	89 45 f0	 mov	 DWORD PTR tv1507[ebp], eax
  002f8	8d 47 f6	 lea	 eax, DWORD PTR [edi-10]
  002fb	89 45 dc	 mov	 DWORD PTR tv1525[ebp], eax
  002fe	8b 45 14	 mov	 eax, DWORD PTR _ldm$[ebp]
  00301	0f af 45 dc	 imul	 eax, DWORD PTR tv1525[ebp]
  00305	8d 04 83	 lea	 eax, DWORD PTR [ebx+eax*4]
  00308	89 45 f4	 mov	 DWORD PTR tv1526[ebp], eax
  0030b	8d 47 f7	 lea	 eax, DWORD PTR [edi-9]
  0030e	0f af 45 14	 imul	 eax, DWORD PTR _ldm$[ebp]
  00312	8d 04 83	 lea	 eax, DWORD PTR [ebx+eax*4]
  00315	89 45 f8	 mov	 DWORD PTR tv1529[ebp], eax
  00318	8d 47 f8	 lea	 eax, DWORD PTR [edi-8]
  0031b	89 45 dc	 mov	 DWORD PTR tv1511[ebp], eax
  0031e	8b 45 14	 mov	 eax, DWORD PTR _ldm$[ebp]
  00321	0f af 45 dc	 imul	 eax, DWORD PTR tv1511[ebp]
  00325	8d 04 83	 lea	 eax, DWORD PTR [ebx+eax*4]
  00328	89 45 fc	 mov	 DWORD PTR tv1530[ebp], eax
  0032b	8d 47 f9	 lea	 eax, DWORD PTR [edi-7]
  0032e	89 45 dc	 mov	 DWORD PTR tv1533[ebp], eax
  00331	8b 45 14	 mov	 eax, DWORD PTR _ldm$[ebp]
  00334	0f af 45 dc	 imul	 eax, DWORD PTR tv1533[ebp]
  00338	8d 04 83	 lea	 eax, DWORD PTR [ebx+eax*4]
  0033b	89 45 d8	 mov	 DWORD PTR tv1534[ebp], eax
  0033e	8d 47 fa	 lea	 eax, DWORD PTR [edi-6]
  00341	89 45 dc	 mov	 DWORD PTR tv1537[ebp], eax
  00344	8b 45 14	 mov	 eax, DWORD PTR _ldm$[ebp]
  00347	0f af 45 dc	 imul	 eax, DWORD PTR tv1537[ebp]
  0034b	8d 04 83	 lea	 eax, DWORD PTR [ebx+eax*4]
  0034e	89 45 d4	 mov	 DWORD PTR tv1535[ebp], eax
  00351	8d 47 fb	 lea	 eax, DWORD PTR [edi-5]
  00354	89 45 dc	 mov	 DWORD PTR tv1546[ebp], eax
  00357	8b 45 14	 mov	 eax, DWORD PTR _ldm$[ebp]
  0035a	0f af 45 dc	 imul	 eax, DWORD PTR tv1546[ebp]
  0035e	8d 04 83	 lea	 eax, DWORD PTR [ebx+eax*4]
  00361	89 45 d0	 mov	 DWORD PTR tv1499[ebp], eax
  00364	8d 47 fc	 lea	 eax, DWORD PTR [edi-4]
  00367	89 45 dc	 mov	 DWORD PTR tv1541[ebp], eax
  0036a	8b 45 14	 mov	 eax, DWORD PTR _ldm$[ebp]
  0036d	0f af 45 dc	 imul	 eax, DWORD PTR tv1541[ebp]
  00371	8d 04 83	 lea	 eax, DWORD PTR [ebx+eax*4]
  00374	89 45 cc	 mov	 DWORD PTR tv1508[ebp], eax
  00377	8d 47 fd	 lea	 eax, DWORD PTR [edi-3]
  0037a	89 45 dc	 mov	 DWORD PTR tv1543[ebp], eax
  0037d	8b 45 14	 mov	 eax, DWORD PTR _ldm$[ebp]
  00380	0f af 45 dc	 imul	 eax, DWORD PTR tv1543[ebp]
  00384	8d 04 83	 lea	 eax, DWORD PTR [ebx+eax*4]
  00387	89 45 c8	 mov	 DWORD PTR tv1544[ebp], eax
  0038a	8d 47 fe	 lea	 eax, DWORD PTR [edi-2]
  0038d	89 45 dc	 mov	 DWORD PTR tv1545[ebp], eax
  00390	8b 45 14	 mov	 eax, DWORD PTR _ldm$[ebp]
  00393	0f af 45 dc	 imul	 eax, DWORD PTR tv1545[ebp]
  00397	8d 04 83	 lea	 eax, DWORD PTR [ebx+eax*4]
  0039a	89 45 dc	 mov	 DWORD PTR tv1548[ebp], eax
  0039d	8d 47 ff	 lea	 eax, DWORD PTR [edi-1]
  003a0	0f af 45 14	 imul	 eax, DWORD PTR _ldm$[ebp]
  003a4	8d 04 83	 lea	 eax, DWORD PTR [ebx+eax*4]
  003a7	89 45 c4	 mov	 DWORD PTR tv1509[ebp], eax
  003aa	8b c7		 mov	 eax, edi
  003ac	0f af 45 14	 imul	 eax, DWORD PTR _ldm$[ebp]
  003b0	8d 04 83	 lea	 eax, DWORD PTR [ebx+eax*4]
  003b3	89 45 c0	 mov	 DWORD PTR tv1551[ebp], eax
$LL19@dmxpy:
  003b6	8b 75 e0	 mov	 esi, DWORD PTR tv1504[ebp]
  003b9	8b 5d e4	 mov	 ebx, DWORD PTR tv1516[ebp]
  003bc	d9 04 96	 fld	 DWORD PTR [esi+edx*4]
  003bf	d8 4c b9 c4	 fmul	 DWORD PTR [ecx+edi*4-60]
  003c3	8b 75 0c	 mov	 esi, DWORD PTR _y$[ebp]
  003c6	d8 04 96	 fadd	 DWORD PTR [esi+edx*4]
  003c9	d9 04 93	 fld	 DWORD PTR [ebx+edx*4]
  003cc	d8 4c b9 c8	 fmul	 DWORD PTR [ecx+edi*4-56]
  003d0	8b 5d e8	 mov	 ebx, DWORD PTR tv1518[ebp]
  003d3	de c1		 faddp	 ST(1), ST(0)
  003d5	d9 04 93	 fld	 DWORD PTR [ebx+edx*4]
  003d8	d8 4c b9 cc	 fmul	 DWORD PTR [ecx+edi*4-52]
  003dc	8b 5d ec	 mov	 ebx, DWORD PTR tv1496[ebp]
  003df	de c1		 faddp	 ST(1), ST(0)
  003e1	d9 04 93	 fld	 DWORD PTR [ebx+edx*4]
  003e4	d8 4c b9 d0	 fmul	 DWORD PTR [ecx+edi*4-48]
  003e8	8b 5d f0	 mov	 ebx, DWORD PTR tv1507[ebp]
  003eb	de c1		 faddp	 ST(1), ST(0)
  003ed	d9 04 93	 fld	 DWORD PTR [ebx+edx*4]
  003f0	d8 4c b9 d4	 fmul	 DWORD PTR [ecx+edi*4-44]
  003f4	8b 5d f4	 mov	 ebx, DWORD PTR tv1526[ebp]
  003f7	de c1		 faddp	 ST(1), ST(0)
  003f9	d9 04 93	 fld	 DWORD PTR [ebx+edx*4]
  003fc	d8 4c b9 d8	 fmul	 DWORD PTR [ecx+edi*4-40]
  00400	8b 5d f8	 mov	 ebx, DWORD PTR tv1529[ebp]
  00403	de c1		 faddp	 ST(1), ST(0)
  00405	d9 04 93	 fld	 DWORD PTR [ebx+edx*4]
  00408	d8 4c b9 dc	 fmul	 DWORD PTR [ecx+edi*4-36]
  0040c	8b 5d fc	 mov	 ebx, DWORD PTR tv1530[ebp]
  0040f	de c1		 faddp	 ST(1), ST(0)
  00411	d9 04 93	 fld	 DWORD PTR [ebx+edx*4]
  00414	d8 4c b9 e0	 fmul	 DWORD PTR [ecx+edi*4-32]
  00418	8b 5d d8	 mov	 ebx, DWORD PTR tv1534[ebp]
  0041b	de c1		 faddp	 ST(1), ST(0)
  0041d	d9 04 93	 fld	 DWORD PTR [ebx+edx*4]
  00420	d8 4c b9 e4	 fmul	 DWORD PTR [ecx+edi*4-28]
  00424	8b 5d d4	 mov	 ebx, DWORD PTR tv1535[ebp]
  00427	de c1		 faddp	 ST(1), ST(0)
  00429	d9 04 93	 fld	 DWORD PTR [ebx+edx*4]
  0042c	d8 4c b9 e8	 fmul	 DWORD PTR [ecx+edi*4-24]
  00430	8b 5d d0	 mov	 ebx, DWORD PTR tv1499[ebp]
  00433	de c1		 faddp	 ST(1), ST(0)
  00435	d9 04 93	 fld	 DWORD PTR [ebx+edx*4]
  00438	d8 4c b9 ec	 fmul	 DWORD PTR [ecx+edi*4-20]
  0043c	8b 5d cc	 mov	 ebx, DWORD PTR tv1508[ebp]
  0043f	de c1		 faddp	 ST(1), ST(0)
  00441	d9 04 93	 fld	 DWORD PTR [ebx+edx*4]
  00444	d8 4c b9 f0	 fmul	 DWORD PTR [ecx+edi*4-16]
  00448	8b 5d c8	 mov	 ebx, DWORD PTR tv1544[ebp]
  0044b	de c1		 faddp	 ST(1), ST(0)
  0044d	d9 04 93	 fld	 DWORD PTR [ebx+edx*4]
  00450	d8 4c b9 f4	 fmul	 DWORD PTR [ecx+edi*4-12]
  00454	8b 5d dc	 mov	 ebx, DWORD PTR tv1548[ebp]
  00457	de c1		 faddp	 ST(1), ST(0)
  00459	d9 04 93	 fld	 DWORD PTR [ebx+edx*4]
  0045c	d8 4c b9 f8	 fmul	 DWORD PTR [ecx+edi*4-8]
  00460	8b 5d c4	 mov	 ebx, DWORD PTR tv1509[ebp]
  00463	de c1		 faddp	 ST(1), ST(0)
  00465	d9 04 93	 fld	 DWORD PTR [ebx+edx*4]
  00468	d8 4c b9 fc	 fmul	 DWORD PTR [ecx+edi*4-4]
  0046c	8b 5d c0	 mov	 ebx, DWORD PTR tv1551[ebp]
  0046f	de c1		 faddp	 ST(1), ST(0)
  00471	d9 04 93	 fld	 DWORD PTR [ebx+edx*4]
  00474	d8 0c b9	 fmul	 DWORD PTR [ecx+edi*4]
  00477	8b 5d 08	 mov	 ebx, DWORD PTR _n1$[ebp]
  0047a	de c1		 faddp	 ST(1), ST(0)
  0047c	d9 1c 96	 fstp	 DWORD PTR [esi+edx*4]
  0047f	42		 inc	 edx
  00480	3b d3		 cmp	 edx, ebx
  00482	0f 8c 2e ff ff
	ff		 jl	 $LL19@dmxpy
  00488	8b 45 10	 mov	 eax, DWORD PTR _n2$[ebp]
$LN14@dmxpy:

; 987  :                                + x[j-7]*m[ldm*(j-7)+i]) + x[j-6]*m[ldm*(j-6)+i])
; 988  :                                + x[j-5]*m[ldm*(j-5)+i]) + x[j-4]*m[ldm*(j-4)+i])
; 989  :                                + x[j-3]*m[ldm*(j-3)+i]) + x[j-2]*m[ldm*(j-2)+i])
; 990  :                                + x[j-1]*m[ldm*(j-1)+i]) + x[j]  *m[ldm*j+i];
; 991  :         } 
; 992  :         
; 993  :         /* main loop - groups of sixteen vectors */
; 994  : 
; 995  :         jmin = (n2%16)+16;
; 996  :         for (j = jmin-1; j < n2; j = j + 16) {

  0048b	83 c7 10	 add	 edi, 16			; 00000010H
  0048e	3b f8		 cmp	 edi, eax
  00490	0f 8c fa fd ff
	ff		 jl	 $LL16@dmxpy
$LN15@dmxpy:
  00496	5f		 pop	 edi

; 999  :                                 + x[j-15]*m[ldm*(j-15)+i]) 
; 1000 :                                 + x[j-14]*m[ldm*(j-14)+i])
; 1001 :                                 + x[j-13]*m[ldm*(j-13)+i]) 
; 1002 :                                 + x[j-12]*m[ldm*(j-12)+i])
; 1003 :                                 + x[j-11]*m[ldm*(j-11)+i]) 
; 1004 :                                 + x[j-10]*m[ldm*(j-10)+i])
; 1005 :                                 + x[j- 9]*m[ldm*(j- 9)+i]) 
; 1006 :                                 + x[j- 8]*m[ldm*(j- 8)+i])
; 1007 :                                 + x[j- 7]*m[ldm*(j- 7)+i]) 
; 1008 :                                 + x[j- 6]*m[ldm*(j- 6)+i])
; 1009 :                                 + x[j- 5]*m[ldm*(j- 5)+i]) 
; 1010 :                                 + x[j- 4]*m[ldm*(j- 4)+i])
; 1011 :                                 + x[j- 3]*m[ldm*(j- 3)+i]) 
; 1012 :                                 + x[j- 2]*m[ldm*(j- 2)+i])
; 1013 :                                 + x[j- 1]*m[ldm*(j- 1)+i]) 
; 1014 :                                 + x[j]   *m[ldm*j+i];
; 1015 :         }
; 1016 :         return;
; 1017 : } 

  00497	5e		 pop	 esi
  00498	5b		 pop	 ebx
  00499	8b e5		 mov	 esp, ebp
  0049b	5d		 pop	 ebp
  0049c	c3		 ret	 0
?dmxpy@@YAXHQAMHH00@Z ENDP				; dmxpy
_TEXT	ENDS
; Function compile flags: /Ogtp
; File E:\Proyectos\JuegosOnlineproyectos\PB\pbblow\Piercing Blow Remake\i3Server\src\i3Base\Linpack.cpp
;	COMDAT ?dgesl@@YAXQAMHHQAH0H@Z
_TEXT	SEGMENT
tv607 = -24						; size = 8
tv688 = -20						; size = 4
tv629 = -16						; size = 4
tv215 = -12						; size = 4
tv535 = -12						; size = 4
tv691 = -8						; size = 4
tv695 = -8						; size = 4
_nm1$1$ = -4						; size = 4
tv638 = -4						; size = 4
_a$ = 8							; size = 4
_lda$ = 12						; size = 4
_n$ = 16						; size = 4
_t$ = 16						; size = 4
tv637 = 16						; size = 4
_ipvt$ = 20						; size = 4
_b$ = 24						; size = 4
_job$ = 28						; size = 4
$T1 = 28						; size = 4
tv612 = 28						; size = 4
tv639 = 28						; size = 4
tv696 = 28						; size = 4
?dgesl@@YAXQAMHHQAH0H@Z PROC				; dgesl, COMDAT

; 562  : {

  00000	55		 push	 ebp
  00001	8b ec		 mov	 ebp, esp
  00003	83 ec 18	 sub	 esp, 24			; 00000018H
  00006	53		 push	 ebx

; 563  : /*     internal variables       */
; 564  : 
; 565  :         REAL32 t;
; 566  :         INT32 k,kb,l,nm1;
; 567  : 
; 568  :         nm1 = n - 1;

  00007	8b 5d 10	 mov	 ebx, DWORD PTR _n$[ebp]
  0000a	56		 push	 esi

; 569  :         if (job == 0) {

  0000b	33 f6		 xor	 esi, esi
  0000d	57		 push	 edi
  0000e	8d 43 ff	 lea	 eax, DWORD PTR [ebx-1]
  00011	8b 7d 18	 mov	 edi, DWORD PTR _b$[ebp]
  00014	89 45 fc	 mov	 DWORD PTR _nm1$1$[ebp], eax
  00017	39 75 1c	 cmp	 DWORD PTR _job$[ebp], esi
  0001a	0f 85 eb 00 00
	00		 jne	 $LN14@dgesl

; 570  : 
; 571  :                 /* job = 0 , solve  a * x = b
; 572  :                    first solve  l*y = b         */
; 573  : 
; 574  :                 if (nm1 >= 1) {

  00020	83 f8 01	 cmp	 eax, 1
  00023	7c 74		 jl	 SHORT $LN3@dgesl
  00025	8b 45 0c	 mov	 eax, DWORD PTR _lda$[ebp]
  00028	8b 55 08	 mov	 edx, DWORD PTR _a$[ebp]
  0002b	83 c2 04	 add	 edx, 4
  0002e	89 55 fc	 mov	 DWORD PTR tv638[ebp], edx
  00031	8d 0c 85 04 00
	00 00		 lea	 ecx, DWORD PTR [eax*4+4]
  00038	89 4d 1c	 mov	 DWORD PTR tv639[ebp], ecx
  0003b	eb 03 8d 49 00	 npad	 5
$LL4@dgesl:

; 575  :                         for (k = 0; k < nm1; k++) {
; 576  :                                 l = ipvt[k];

  00040	8b 45 14	 mov	 eax, DWORD PTR _ipvt$[ebp]
  00043	8b 04 b0	 mov	 eax, DWORD PTR [eax+esi*4]

; 577  :                                 t = b[l];

  00046	f3 0f 10 04 87	 movss	 xmm0, DWORD PTR [edi+eax*4]
  0004b	f3 0f 11 45 10	 movss	 DWORD PTR _t$[ebp], xmm0

; 578  :                                 if (l != k){ 

  00050	3b c6		 cmp	 eax, esi
  00052	74 0b		 je	 SHORT $LN33@dgesl

; 579  :                                         b[l] = b[k];

  00054	d9 04 b7	 fld	 DWORD PTR [edi+esi*4]
  00057	d9 1c 87	 fstp	 DWORD PTR [edi+eax*4]

; 580  :                                         b[k] = t;

  0005a	f3 0f 11 04 b7	 movss	 DWORD PTR [edi+esi*4], xmm0
$LN33@dgesl:

; 581  :                                 }       
; 582  :                                 daxpy(n-(k+1),t,&a[lda*k+k+1],1,&b[k+1],1 );

  0005f	d9 45 10	 fld	 DWORD PTR _t$[ebp]
  00062	8d 47 04	 lea	 eax, DWORD PTR [edi+4]
  00065	8d 04 b0	 lea	 eax, DWORD PTR [eax+esi*4]
  00068	6a 01		 push	 1
  0006a	50		 push	 eax
  0006b	8b c1		 mov	 eax, ecx
  0006d	0f af c6	 imul	 eax, esi
  00070	6a 01		 push	 1
  00072	03 c2		 add	 eax, edx
  00074	50		 push	 eax
  00075	8b c3		 mov	 eax, ebx
  00077	51		 push	 ecx
  00078	2b c6		 sub	 eax, esi
  0007a	48		 dec	 eax
  0007b	d9 1c 24	 fstp	 DWORD PTR [esp]
  0007e	50		 push	 eax
  0007f	e8 00 00 00 00	 call	 ?daxpy@@YAXHMQAMH0H@Z	; daxpy
  00084	8b 4d 1c	 mov	 ecx, DWORD PTR tv639[ebp]
  00087	8d 43 ff	 lea	 eax, DWORD PTR [ebx-1]
  0008a	8b 55 fc	 mov	 edx, DWORD PTR tv638[ebp]
  0008d	46		 inc	 esi
  0008e	83 c4 18	 add	 esp, 24			; 00000018H
  00091	3b f0		 cmp	 esi, eax
  00093	7c ab		 jl	 SHORT $LL4@dgesl
  00095	33 f6		 xor	 esi, esi
  00097	eb 08		 jmp	 SHORT $LN38@dgesl
$LN3@dgesl:

; 583  :                         }
; 584  :                 } 
; 585  : 
; 586  :                 /* now solve  u*x = y */
; 587  : 
; 588  :                 for (kb = 0; kb < n; kb++) {

  00099	85 db		 test	 ebx, ebx
  0009b	0f 8e 65 01 00
	00		 jle	 $LN12@dgesl
$LN38@dgesl:
  000a1	8b 45 08	 mov	 eax, DWORD PTR _a$[ebp]
  000a4	8d 4f fc	 lea	 ecx, DWORD PTR [edi-4]
  000a7	8d 04 98	 lea	 eax, DWORD PTR [eax+ebx*4]
  000aa	83 c0 fc	 add	 eax, -4			; fffffffcH
  000ad	89 45 10	 mov	 DWORD PTR tv637[ebp], eax
$LL7@dgesl:

; 589  :                     k = n - (kb + 1);
; 590  :                     b[k] = b[k]/a[lda*k+k];

  000b0	8b 7d 10	 mov	 edi, DWORD PTR tv637[ebp]
  000b3	8d 04 b5 00 00
	00 00		 lea	 eax, DWORD PTR [esi*4]
  000ba	2b c8		 sub	 ecx, eax
  000bc	8b d3		 mov	 edx, ebx
  000be	2b d6		 sub	 edx, esi
  000c0	4a		 dec	 edx
  000c1	8b c2		 mov	 eax, edx
  000c3	0f af 45 0c	 imul	 eax, DWORD PTR _lda$[ebp]
  000c7	d9 04 99	 fld	 DWORD PTR [ecx+ebx*4]

; 591  :                     t = -b[k];
; 592  :                     daxpy(k,t,&a[lda*k+0],1,&b[0],1 );

  000ca	6a 01		 push	 1
  000cc	2b c6		 sub	 eax, esi
  000ce	d8 34 87	 fdiv	 DWORD PTR [edi+eax*4]
  000d1	8b 45 0c	 mov	 eax, DWORD PTR _lda$[ebp]
  000d4	8b 7d 18	 mov	 edi, DWORD PTR _b$[ebp]
  000d7	57		 push	 edi
  000d8	6a 01		 push	 1
  000da	0f af c2	 imul	 eax, edx
  000dd	d9 5d 1c	 fstp	 DWORD PTR tv612[ebp]
  000e0	d9 45 1c	 fld	 DWORD PTR tv612[ebp]
  000e3	d9 14 99	 fst	 DWORD PTR [ecx+ebx*4]
  000e6	8b 4d 08	 mov	 ecx, DWORD PTR _a$[ebp]
  000e9	d9 e0		 fchs
  000eb	8d 04 81	 lea	 eax, DWORD PTR [ecx+eax*4]
  000ee	50		 push	 eax
  000ef	51		 push	 ecx
  000f0	d9 1c 24	 fstp	 DWORD PTR [esp]
  000f3	52		 push	 edx
  000f4	e8 00 00 00 00	 call	 ?daxpy@@YAXHMQAMH0H@Z	; daxpy
  000f9	46		 inc	 esi
  000fa	8d 4f fc	 lea	 ecx, DWORD PTR [edi-4]
  000fd	83 c4 18	 add	 esp, 24			; 00000018H
  00100	3b f3		 cmp	 esi, ebx
  00102	7c ac		 jl	 SHORT $LL7@dgesl

; 616  :                                 }
; 617  :                         }
; 618  :                 }
; 619  :         }
; 620  :         return;
; 621  : }

  00104	5f		 pop	 edi
  00105	5e		 pop	 esi
  00106	5b		 pop	 ebx
  00107	8b e5		 mov	 esp, ebp
  00109	5d		 pop	 ebp
  0010a	c3		 ret	 0
$LN14@dgesl:

; 593  :                 }
; 594  :         }
; 595  :         else { 
; 596  : 
; 597  :                 /* job = nonzero, solve  trans(a) * x = b
; 598  :                    first solve  trans(u)*y = b                  */
; 599  : 
; 600  :                 for (k = 0; k < n; k++) {

  0010b	8b 4d 08	 mov	 ecx, DWORD PTR _a$[ebp]
  0010e	85 db		 test	 ebx, ebx
  00110	7e 4c		 jle	 SHORT $LN9@dgesl
  00112	8b 45 0c	 mov	 eax, DWORD PTR _lda$[ebp]
  00115	8d 14 85 00 00
	00 00		 lea	 edx, DWORD PTR [eax*4]
  0011c	8d 42 04	 lea	 eax, DWORD PTR [edx+4]
  0011f	89 55 f8	 mov	 DWORD PTR tv695[ebp], edx
  00122	89 45 1c	 mov	 DWORD PTR tv696[ebp], eax
$LL10@dgesl:

; 601  :                         t = ddot(k,&a[lda*k+0],1,&b[0],1);
; 602  :                         b[k] = (b[k] - t)/a[lda*k+k];

  00125	d9 04 b7	 fld	 DWORD PTR [edi+esi*4]
  00128	8b c6		 mov	 eax, esi
  0012a	6a 01		 push	 1
  0012c	0f af c2	 imul	 eax, edx
  0012f	57		 push	 edi
  00130	6a 01		 push	 1
  00132	dd 5d e8	 fstp	 QWORD PTR tv607[ebp]
  00135	03 c1		 add	 eax, ecx
  00137	50		 push	 eax
  00138	56		 push	 esi
  00139	e8 00 00 00 00	 call	 ?ddot@@YAMHQAMH0H@Z	; ddot
  0013e	8b 45 1c	 mov	 eax, DWORD PTR tv696[ebp]
  00141	83 c4 14	 add	 esp, 20			; 00000014H
  00144	dc 6d e8	 fsubr	 QWORD PTR tv607[ebp]
  00147	8b 4d 08	 mov	 ecx, DWORD PTR _a$[ebp]
  0014a	8b 55 f8	 mov	 edx, DWORD PTR tv695[ebp]
  0014d	0f af c6	 imul	 eax, esi
  00150	d8 34 08	 fdiv	 DWORD PTR [eax+ecx]
  00153	d9 1c b7	 fstp	 DWORD PTR [edi+esi*4]
  00156	46		 inc	 esi
  00157	3b f3		 cmp	 esi, ebx
  00159	7c ca		 jl	 SHORT $LL10@dgesl
  0015b	8b 45 fc	 mov	 eax, DWORD PTR _nm1$1$[ebp]
$LN9@dgesl:

; 603  :                 }
; 604  : 
; 605  :                 /* now solve trans(l)*x = y     */
; 606  : 
; 607  :                 if (nm1 >= 1) {

  0015e	83 f8 01	 cmp	 eax, 1
  00161	0f 8c 9f 00 00
	00		 jl	 $LN12@dgesl

; 608  :                         for (kb = 1; kb < nm1; kb++) {

  00167	bb 01 00 00 00	 mov	 ebx, 1
  0016c	0f 8e 94 00 00
	00		 jle	 $LN12@dgesl
  00172	8b 55 0c	 mov	 edx, DWORD PTR _lda$[ebp]
  00175	8b 45 10	 mov	 eax, DWORD PTR _n$[ebp]
  00178	42		 inc	 edx
  00179	83 c1 04	 add	 ecx, 4
  0017c	89 55 ec	 mov	 DWORD PTR tv688[ebp], edx
  0017f	89 4d f8	 mov	 DWORD PTR tv691[ebp], ecx
  00182	b9 04 00 00 00	 mov	 ecx, 4
  00187	89 4d 1c	 mov	 DWORD PTR $T1[ebp], ecx
  0018a	8d 34 85 00 00
	00 00		 lea	 esi, DWORD PTR [eax*4]
$LL13@dgesl:

; 609  :                                 k = n - (kb+1);

  00191	2b c3		 sub	 eax, ebx

; 610  :                                 b[k] = b[k] + ddot(n-(k+1),&a[lda*k+k+1],1,&b[k+1],1);

  00193	2b f1		 sub	 esi, ecx
  00195	89 45 f0	 mov	 DWORD PTR tv629[ebp], eax
  00198	6a 01		 push	 1
  0019a	8d 04 3e	 lea	 eax, DWORD PTR [esi+edi]
  0019d	50		 push	 eax
  0019e	8d 46 fc	 lea	 eax, DWORD PTR [esi-4]
  001a1	0f af c2	 imul	 eax, edx
  001a4	6a 01		 push	 1
  001a6	03 45 f8	 add	 eax, DWORD PTR tv691[ebp]
  001a9	50		 push	 eax
  001aa	53		 push	 ebx
  001ab	e8 00 00 00 00	 call	 ?ddot@@YAMHQAMH0H@Z	; ddot
  001b0	d8 44 3e fc	 fadd	 DWORD PTR [esi+edi-4]

; 611  :                                 l = ipvt[k];

  001b4	8b 45 14	 mov	 eax, DWORD PTR _ipvt$[ebp]
  001b7	83 c4 14	 add	 esp, 20			; 00000014H
  001ba	8b 55 f0	 mov	 edx, DWORD PTR tv629[ebp]
  001bd	d9 5d f4	 fstp	 DWORD PTR tv535[ebp]
  001c0	d9 45 f4	 fld	 DWORD PTR tv535[ebp]
  001c3	d9 55 f4	 fst	 DWORD PTR tv215[ebp]
  001c6	d9 5c 3e fc	 fstp	 DWORD PTR [esi+edi-4]
  001ca	8b 4c 06 fc	 mov	 ecx, DWORD PTR [esi+eax-4]
  001ce	8d 42 ff	 lea	 eax, DWORD PTR [edx-1]

; 612  :                                 if (l != k) {

  001d1	3b c8		 cmp	 ecx, eax
  001d3	74 15		 je	 SHORT $LN11@dgesl

; 613  :                                         t = b[l];

  001d5	f3 0f 10 0c 8f	 movss	 xmm1, DWORD PTR [edi+ecx*4]

; 614  :                                         b[l] = b[k];

  001da	f3 0f 10 45 f4	 movss	 xmm0, DWORD PTR tv215[ebp]
  001df	f3 0f 11 04 8f	 movss	 DWORD PTR [edi+ecx*4], xmm0

; 615  :                                         b[k] = t;

  001e4	f3 0f 11 4c 97
	fc		 movss	 DWORD PTR [edi+edx*4-4], xmm1
$LN11@dgesl:

; 608  :                         for (kb = 1; kb < nm1; kb++) {

  001ea	8b 4d 1c	 mov	 ecx, DWORD PTR $T1[ebp]
  001ed	43		 inc	 ebx
  001ee	8b 45 10	 mov	 eax, DWORD PTR _n$[ebp]
  001f1	83 c1 04	 add	 ecx, 4
  001f4	8b 55 ec	 mov	 edx, DWORD PTR tv688[ebp]
  001f7	89 4d 1c	 mov	 DWORD PTR $T1[ebp], ecx
  001fa	8d 34 85 00 00
	00 00		 lea	 esi, DWORD PTR [eax*4]
  00201	3b 5d fc	 cmp	 ebx, DWORD PTR _nm1$1$[ebp]
  00204	7c 8b		 jl	 SHORT $LL13@dgesl
$LN12@dgesl:
  00206	5f		 pop	 edi

; 616  :                                 }
; 617  :                         }
; 618  :                 }
; 619  :         }
; 620  :         return;
; 621  : }

  00207	5e		 pop	 esi
  00208	5b		 pop	 ebx
  00209	8b e5		 mov	 esp, ebp
  0020b	5d		 pop	 ebp
  0020c	c3		 ret	 0
?dgesl@@YAXQAMHHQAH0H@Z ENDP				; dgesl
_TEXT	ENDS
; Function compile flags: /Ogtp
; File E:\Proyectos\JuegosOnlineproyectos\PB\pbblow\Piercing Blow Remake\i3Server\src\i3Base\Linpack.cpp
;	COMDAT ?dgefa@@YAXQAMHHQAHPAH@Z
_TEXT	SEGMENT
tv614 = -32						; size = 4
_t$ = -28						; size = 4
_l$1$ = -28						; size = 4
tv590 = -24						; size = 4
_dmax$1 = -20						; size = 4
tv551 = -20						; size = 4
tv611 = -20						; size = 4
tv630 = -20						; size = 4
tv653 = -20						; size = 4
tv403 = -16						; size = 4
tv618 = -16						; size = 4
_k$1$ = -12						; size = 4
tv585 = -12						; size = 4
_kp1$1$ = -8						; size = 4
_dx$1$ = -4						; size = 4
_a$ = 8							; size = 4
_lda$ = 12						; size = 4
_n$ = 16						; size = 4
_ipvt$ = 20						; size = 4
_info$ = 24						; size = 4
?dgefa@@YAXQAMHHQAHPAH@Z PROC				; dgefa, COMDAT

; 439  : {

  00000	55		 push	 ebp
  00001	8b ec		 mov	 ebp, esp

; 440  : /*     internal variables       */
; 441  : 
; 442  : 	REAL32 t;
; 443  : 	INT32 j,k,kp1,l,nm1;
; 444  : 
; 445  : 
; 446  : /*     gaussian elimination with partial pivoting       */
; 447  : 
; 448  :         *info = 0;
; 449  :         nm1 = n - 1;

  00003	8b 4d 10	 mov	 ecx, DWORD PTR _n$[ebp]
  00006	83 ec 20	 sub	 esp, 32			; 00000020H

; 450  :         if (nm1 >=  0) {

  00009	0f 57 d2	 xorps	 xmm2, xmm2
  0000c	56		 push	 esi
  0000d	8b 75 18	 mov	 esi, DWORD PTR _info$[ebp]
  00010	8d 51 ff	 lea	 edx, DWORD PTR [ecx-1]
  00013	c7 06 00 00 00
	00		 mov	 DWORD PTR [esi], 0
  00019	85 d2		 test	 edx, edx
  0001b	0f 88 ca 01 00
	00		 js	 $LN3@dgefa

; 451  :                 for (k = 0; k < nm1; k++) {

  00021	57		 push	 edi
  00022	33 ff		 xor	 edi, edi
  00024	89 7d f4	 mov	 DWORD PTR _k$1$[ebp], edi
  00027	85 d2		 test	 edx, edx
  00029	0f 8e bb 01 00
	00		 jle	 $LN66@dgefa

; 469  :                                         a[lda*k+k] = t; 

  0002f	8b 45 0c	 mov	 eax, DWORD PTR _lda$[ebp]
  00032	f3 0f 10 0d 00
	00 00 00	 movss	 xmm1, DWORD PTR __xmm@7fffffff7fffffff7fffffff7fffffff
  0003a	dd 05 00 00 00
	00		 fld	 QWORD PTR __real@bff0000000000000
  00040	8d 04 85 04 00
	00 00		 lea	 eax, DWORD PTR [eax*4+4]
  00047	89 45 e8	 mov	 DWORD PTR tv590[ebp], eax
$LN4@dgefa:

; 452  :                         kp1 = k + 1;
; 453  : 
; 454  :                         /* find l = pivot index */
; 455  : 
; 456  :                         l = idamax(n-k,&a[lda*k+k],1) + k;

  0004a	8d 47 01	 lea	 eax, DWORD PTR [edi+1]
  0004d	8b d1		 mov	 edx, ecx
  0004f	89 45 f8	 mov	 DWORD PTR _kp1$1$[ebp], eax
  00052	2b d7		 sub	 edx, edi
  00054	8b 45 e8	 mov	 eax, DWORD PTR tv590[ebp]
  00057	0f af c7	 imul	 eax, edi
  0005a	03 45 08	 add	 eax, DWORD PTR _a$[ebp]
  0005d	89 45 fc	 mov	 DWORD PTR _dx$1$[ebp], eax

; 830  :         if( n < 1 ) return(-1);

  00060	83 fa 01	 cmp	 edx, 1
  00063	7d 05		 jge	 SHORT $LN22@dgefa
  00065	83 ce ff	 or	 esi, -1
  00068	eb 59		 jmp	 SHORT $LN20@dgefa
$LN22@dgefa:

; 831  :         if(n ==1 ) return(0);

  0006a	75 04		 jne	 SHORT $LN23@dgefa
  0006c	33 f6		 xor	 esi, esi
  0006e	eb 53		 jmp	 SHORT $LN20@dgefa
$LN23@dgefa:

; 832  :         if(incx != 1) 
; 833  : 		{
; 834  :             /* code for increment not equal to 1 */
; 835  : 
; 836  :             ix = 1;
; 837  :             dmax = (REAL32)( fabs((double)dx[0]));
; 838  :             ix = ix + incx;
; 839  : 
; 840  :             for (i = 1; i < n; i++) 
; 841  : 			{
; 842  :                 if(fabs((double)dx[ix]) > dmax)  
; 843  : 				{
; 844  : 					itemp = i;
; 845  : 					dmax = (REAL32) fabs((double)dx[ix]);
; 846  :                 }
; 847  :                 ix = ix + incx;
; 848  :             }
; 849  :         }
; 850  :         else 
; 851  : 		{
; 852  : 			/* code for increment equal to 1 */
; 853  : 
; 854  :             itemp = 0;
; 855  :             dmax = (REAL32) fabs((double)dx[0]);

  00070	f3 0f 10 00	 movss	 xmm0, DWORD PTR [eax]
  00074	33 f6		 xor	 esi, esi
  00076	0f 54 c1	 andps	 xmm0, xmm1
  00079	f3 0f 11 45 ec	 movss	 DWORD PTR _dmax$1[ebp], xmm0
  0007e	8d 4e 01	 lea	 ecx, DWORD PTR [esi+1]

; 856  :             for (i = 1; i < n; i++) 

  00081	3b d1		 cmp	 edx, ecx
  00083	7e 3e		 jle	 SHORT $LN20@dgefa
  00085	8b 7d fc	 mov	 edi, DWORD PTR _dx$1$[ebp]
  00088	dd d8		 fstp	 ST(0)
  0008a	8d 9b 00 00 00
	00		 npad	 6
$LL21@dgefa:

; 857  : 			{
; 858  :                 if(fabs((double)dx[i]) > dmax) 

  00090	d9 04 8f	 fld	 DWORD PTR [edi+ecx*4]
  00093	d9 5d f0	 fstp	 DWORD PTR tv403[ebp]
  00096	d9 45 f0	 fld	 DWORD PTR tv403[ebp]
  00099	d9 e1		 fabs
  0009b	d9 45 ec	 fld	 DWORD PTR _dmax$1[ebp]
  0009e	d9 c9		 fxch	 ST(1)
  000a0	df f1		 fcomip	 ST(1)
  000a2	dd d8		 fstp	 ST(0)
  000a4	76 0f		 jbe	 SHORT $LN19@dgefa

; 859  : 				{
; 860  :                     itemp = i;
; 861  :                     dmax = (REAL32) fabs((double)dx[i]);

  000a6	f3 0f 10 45 f0	 movss	 xmm0, DWORD PTR tv403[ebp]
  000ab	8b f1		 mov	 esi, ecx
  000ad	0f 54 c1	 andps	 xmm0, xmm1
  000b0	f3 0f 11 45 ec	 movss	 DWORD PTR _dmax$1[ebp], xmm0
$LN19@dgefa:

; 856  :             for (i = 1; i < n; i++) 

  000b5	41		 inc	 ecx
  000b6	3b ca		 cmp	 ecx, edx
  000b8	7c d6		 jl	 SHORT $LL21@dgefa
  000ba	dd 05 00 00 00
	00		 fld	 QWORD PTR __real@bff0000000000000
  000c0	8b 7d f4	 mov	 edi, DWORD PTR _k$1$[ebp]
$LN20@dgefa:

; 457  :                         ipvt[k] = l;

  000c3	8b 45 14	 mov	 eax, DWORD PTR _ipvt$[ebp]
  000c6	8d 0c 3e	 lea	 ecx, DWORD PTR [esi+edi]

; 458  : 
; 459  :                         /* zero pivot implies this column already 
; 460  :                            triangularized */
; 461  : 
; 462  :                         if (a[lda*k+l] != ZERO) {

  000c9	8b 75 08	 mov	 esi, DWORD PTR _a$[ebp]
  000cc	89 4d e4	 mov	 DWORD PTR _l$1$[ebp], ecx
  000cf	89 0c b8	 mov	 DWORD PTR [eax+edi*4], ecx
  000d2	8b c7		 mov	 eax, edi
  000d4	0f af 45 0c	 imul	 eax, DWORD PTR _lda$[ebp]
  000d8	03 c1		 add	 eax, ecx
  000da	89 45 ec	 mov	 DWORD PTR tv551[ebp], eax
  000dd	f3 0f 10 04 86	 movss	 xmm0, DWORD PTR [esi+eax*4]
  000e2	0f 2e c2	 ucomiss xmm0, xmm2
  000e5	9f		 lahf
  000e6	f6 c4 44	 test	 ah, 68			; 00000044H
  000e9	0f 8b 6f 01 00
	00		 jnp	 $LN74@dgefa

; 463  : 
; 464  :                                 /* interchange if necessary */
; 465  : 
; 466  :                                 if (l != k) {

  000ef	8b 75 fc	 mov	 esi, DWORD PTR _dx$1$[ebp]
  000f2	3b cf		 cmp	 ecx, edi
  000f4	74 0f		 je	 SHORT $LN49@dgefa

; 467  :                                         t = a[lda*k+l];
; 468  :                                         a[lda*k+l] = a[lda*k+k];

  000f6	8b 45 ec	 mov	 eax, DWORD PTR tv551[ebp]
  000f9	8b 4d 08	 mov	 ecx, DWORD PTR _a$[ebp]
  000fc	d9 06		 fld	 DWORD PTR [esi]
  000fe	d9 1c 81	 fstp	 DWORD PTR [ecx+eax*4]

; 469  :                                         a[lda*k+k] = t; 

  00101	f3 0f 11 06	 movss	 DWORD PTR [esi], xmm0
$LN49@dgefa:

; 470  :                                 }
; 471  : 
; 472  :                                 /* compute multipliers */
; 473  : 
; 474  :                                 t = -ONE/a[lda*k+k];

  00105	d8 36		 fdiv	 DWORD PTR [esi]

; 475  :                                 dscal(n-(k+1),t,&a[lda*k+k+1],1);

  00107	8d 46 04	 lea	 eax, DWORD PTR [esi+4]
  0010a	6a 01		 push	 1
  0010c	8d 4a ff	 lea	 ecx, DWORD PTR [edx-1]
  0010f	50		 push	 eax
  00110	51		 push	 ecx
  00111	89 4d f0	 mov	 DWORD PTR tv618[ebp], ecx
  00114	d9 5d ec	 fstp	 DWORD PTR tv653[ebp]
  00117	d9 45 ec	 fld	 DWORD PTR tv653[ebp]
  0011a	d9 1c 24	 fstp	 DWORD PTR [esp]
  0011d	51		 push	 ecx
  0011e	e8 00 00 00 00	 call	 ?dscal@@YAXHMQAMH@Z	; dscal

; 476  : 
; 477  :                                 /* row elimination with column indexing */
; 478  : 
; 479  :                                 for (j = kp1; j < n; j++) {

  00123	8b 75 f8	 mov	 esi, DWORD PTR _kp1$1$[ebp]
  00126	83 c4 10	 add	 esp, 16			; 00000010H
  00129	8b 4d 10	 mov	 ecx, DWORD PTR _n$[ebp]
  0012c	3b f1		 cmp	 esi, ecx
  0012e	0f 8d 8f 00 00
	00		 jge	 $LN50@dgefa

; 481  :                                         if (l != k) {

  00134	8b 45 e4	 mov	 eax, DWORD PTR _l$1$[ebp]
  00137	3b c7		 cmp	 eax, edi
  00139	0f 84 d4 00 00
	00		 je	 $LN48@dgefa
  0013f	8b 55 08	 mov	 edx, DWORD PTR _a$[ebp]
  00142	8d 0c 82	 lea	 ecx, DWORD PTR [edx+eax*4]
  00145	8d 14 ba	 lea	 edx, DWORD PTR [edx+edi*4]
  00148	89 4d e0	 mov	 DWORD PTR tv614[ebp], ecx
  0014b	89 55 ec	 mov	 DWORD PTR tv611[ebp], edx
  0014e	8b fe		 mov	 edi, esi
  00150	8b 55 0c	 mov	 edx, DWORD PTR _lda$[ebp]
  00153	8d 04 95 00 00
	00 00		 lea	 eax, DWORD PTR [edx*4]
  0015a	8b 55 08	 mov	 edx, DWORD PTR _a$[ebp]
  0015d	0f af f8	 imul	 edi, eax
  00160	83 c2 04	 add	 edx, 4
  00163	8b 45 f4	 mov	 eax, DWORD PTR _k$1$[ebp]
  00166	8d 04 82	 lea	 eax, DWORD PTR [edx+eax*4]
  00169	8b 55 ec	 mov	 edx, DWORD PTR tv611[ebp]
  0016c	89 45 f4	 mov	 DWORD PTR tv585[ebp], eax
  0016f	90		 npad	 1
$LL7@dgefa:

; 480  :                                         t = a[lda*j+l];

  00170	f3 0f 10 04 0f	 movss	 xmm0, DWORD PTR [edi+ecx]

; 482  :                                                 a[lda*j+l] = a[lda*j+k];
; 483  :                                                 a[lda*j+k] = t;
; 484  :                                         }
; 485  :                                         daxpy(n-(k+1),t,&a[lda*k+k+1],1,

  00175	03 c7		 add	 eax, edi
  00177	d9 04 3a	 fld	 DWORD PTR [edx+edi]
  0017a	d9 1c 0f	 fstp	 DWORD PTR [edi+ecx]
  0017d	8b 4d fc	 mov	 ecx, DWORD PTR _dx$1$[ebp]
  00180	6a 01		 push	 1
  00182	50		 push	 eax
  00183	6a 01		 push	 1
  00185	8d 41 04	 lea	 eax, DWORD PTR [ecx+4]
  00188	f3 0f 11 45 e4	 movss	 DWORD PTR _t$[ebp], xmm0
  0018d	d9 45 e4	 fld	 DWORD PTR _t$[ebp]
  00190	50		 push	 eax
  00191	51		 push	 ecx
  00192	d9 1c 24	 fstp	 DWORD PTR [esp]
  00195	ff 75 f0	 push	 DWORD PTR tv618[ebp]
  00198	f3 0f 11 04 3a	 movss	 DWORD PTR [edx+edi], xmm0
  0019d	e8 00 00 00 00	 call	 ?daxpy@@YAXHMQAMH0H@Z	; daxpy
  001a2	8b 4d 0c	 mov	 ecx, DWORD PTR _lda$[ebp]
  001a5	46		 inc	 esi
  001a6	8b 55 ec	 mov	 edx, DWORD PTR tv611[ebp]
  001a9	83 c4 18	 add	 esp, 24			; 00000018H
  001ac	8d 04 8d 00 00
	00 00		 lea	 eax, DWORD PTR [ecx*4]
  001b3	8b 4d e0	 mov	 ecx, DWORD PTR tv614[ebp]
  001b6	03 f8		 add	 edi, eax
  001b8	8b 45 f4	 mov	 eax, DWORD PTR tv585[ebp]
  001bb	3b 75 10	 cmp	 esi, DWORD PTR _n$[ebp]
  001be	7c b0		 jl	 SHORT $LL7@dgefa
  001c0	8b 4d 10	 mov	 ecx, DWORD PTR _n$[ebp]
$LN50@dgefa:

; 451  :                 for (k = 0; k < nm1; k++) {

  001c3	f3 0f 10 0d 00
	00 00 00	 movss	 xmm1, DWORD PTR __xmm@7fffffff7fffffff7fffffff7fffffff
  001cb	0f 57 d2	 xorps	 xmm2, xmm2
  001ce	8b 75 18	 mov	 esi, DWORD PTR _info$[ebp]
$LN2@dgefa:
  001d1	8b 7d f8	 mov	 edi, DWORD PTR _kp1$1$[ebp]
  001d4	8d 51 ff	 lea	 edx, DWORD PTR [ecx-1]
  001d7	dd 05 00 00 00
	00		 fld	 QWORD PTR __real@bff0000000000000
  001dd	89 7d f4	 mov	 DWORD PTR _k$1$[ebp], edi
  001e0	3b fa		 cmp	 edi, edx
  001e2	0f 8c 62 fe ff
	ff		 jl	 $LN4@dgefa
  001e8	dd d8		 fstp	 ST(0)
$LN66@dgefa:
  001ea	5f		 pop	 edi
$LN3@dgefa:

; 491  :                         }
; 492  :                 } 
; 493  :         }
; 494  :         ipvt[n-1] = n-1;

  001eb	8b 45 14	 mov	 eax, DWORD PTR _ipvt$[ebp]
  001ee	89 54 88 fc	 mov	 DWORD PTR [eax+ecx*4-4], edx

; 495  :         if (a[lda*(n-1)+(n-1)] == ZERO) *info = n-1;

  001f2	8b c2		 mov	 eax, edx
  001f4	0f af 45 0c	 imul	 eax, DWORD PTR _lda$[ebp]
  001f8	03 c1		 add	 eax, ecx
  001fa	8b 4d 08	 mov	 ecx, DWORD PTR _a$[ebp]
  001fd	f3 0f 10 44 81
	fc		 movss	 xmm0, DWORD PTR [ecx+eax*4-4]
  00203	0f 2e c2	 ucomiss xmm0, xmm2
  00206	9f		 lahf
  00207	f6 c4 44	 test	 ah, 68			; 00000044H
  0020a	7a 02		 jp	 SHORT $LN13@dgefa
  0020c	89 16		 mov	 DWORD PTR [esi], edx
$LN13@dgefa:
  0020e	5e		 pop	 esi

; 496  :         return;
; 497  : }

  0020f	8b e5		 mov	 esp, ebp
  00211	5d		 pop	 ebp
  00212	c3		 ret	 0
$LN48@dgefa:
  00213	8b 4d 08	 mov	 ecx, DWORD PTR _a$[ebp]
  00216	47		 inc	 edi
  00217	8d 14 81	 lea	 edx, DWORD PTR [ecx+eax*4]
  0021a	89 55 ec	 mov	 DWORD PTR tv630[ebp], edx
  0021d	8d 3c b9	 lea	 edi, DWORD PTR [ecx+edi*4]
$LL35@dgefa:

; 482  :                                                 a[lda*j+l] = a[lda*j+k];
; 483  :                                                 a[lda*j+k] = t;
; 484  :                                         }
; 485  :                                         daxpy(n-(k+1),t,&a[lda*k+k+1],1,

  00220	8b 4d 0c	 mov	 ecx, DWORD PTR _lda$[ebp]
  00223	8b 55 ec	 mov	 edx, DWORD PTR tv630[ebp]
  00226	6a 01		 push	 1
  00228	8d 0c 8d 00 00
	00 00		 lea	 ecx, DWORD PTR [ecx*4]
  0022f	0f af ce	 imul	 ecx, esi
  00232	d9 04 0a	 fld	 DWORD PTR [edx+ecx]
  00235	8d 04 0f	 lea	 eax, DWORD PTR [edi+ecx]
  00238	50		 push	 eax
  00239	8b 45 fc	 mov	 eax, DWORD PTR _dx$1$[ebp]
  0023c	6a 01		 push	 1
  0023e	83 c0 04	 add	 eax, 4
  00241	50		 push	 eax
  00242	51		 push	 ecx
  00243	d9 1c 24	 fstp	 DWORD PTR [esp]
  00246	ff 75 f0	 push	 DWORD PTR tv618[ebp]
  00249	e8 00 00 00 00	 call	 ?daxpy@@YAXHMQAMH0H@Z	; daxpy
  0024e	8b 4d 10	 mov	 ecx, DWORD PTR _n$[ebp]
  00251	46		 inc	 esi
  00252	83 c4 18	 add	 esp, 24			; 00000018H
  00255	3b f1		 cmp	 esi, ecx
  00257	7c c7		 jl	 SHORT $LL35@dgefa

; 486  :                                               &a[lda*j+k+1],1);
; 487  :                                 } 
; 488  :                         }

  00259	e9 65 ff ff ff	 jmp	 $LN50@dgefa
$LN74@dgefa:

; 489  :                         else { 
; 490  :                                 *info = k;

  0025e	8b 75 18	 mov	 esi, DWORD PTR _info$[ebp]
  00261	dd d8		 fstp	 ST(0)
  00263	8b 4d 10	 mov	 ecx, DWORD PTR _n$[ebp]
  00266	89 3e		 mov	 DWORD PTR [esi], edi
  00268	e9 64 ff ff ff	 jmp	 $LN2@dgefa
?dgefa@@YAXQAMHHQAHPAH@Z ENDP				; dgefa
_TEXT	ENDS
; Function compile flags: /Ogtp
; File E:\Proyectos\JuegosOnlineproyectos\PB\pbblow\Piercing Blow Remake\i3Server\src\i3Base\Linpack.cpp
;	COMDAT ?matgen@@YAXQAMHH0PAM@Z
_TEXT	SEGMENT
_init$ = -8						; size = 4
tv401 = -8						; size = 4
tv574 = -8						; size = 4
tv590 = -8						; size = 4
tv612 = -8						; size = 4
tv394 = -4						; size = 4
_a$ = 8							; size = 4
_lda$ = 12						; size = 4
_n$ = 16						; size = 4
_b$ = 20						; size = 4
_norma$ = 24						; size = 4
_j$1$ = 24						; size = 4
_j$2$ = 24						; size = 4
?matgen@@YAXQAMHH0PAM@Z PROC				; matgen, COMDAT

; 352  : {

  00000	55		 push	 ebp
  00001	8b ec		 mov	 ebp, esp
  00003	83 ec 08	 sub	 esp, 8
  00006	53		 push	 ebx
  00007	8b 5d 10	 mov	 ebx, DWORD PTR _n$[ebp]

; 353  : 	INT32 init, i, j;
; 354  : 
; 355  : 	init = 1325;

  0000a	ba 2d 05 00 00	 mov	 edx, 1325		; 0000052dH
  0000f	56		 push	 esi
  00010	57		 push	 edi

; 356  : 	*norma = 0.0f;

  00011	8b 7d 18	 mov	 edi, DWORD PTR _norma$[ebp]
  00014	c7 45 18 00 00
	00 00		 mov	 DWORD PTR _j$1$[ebp], 0
  0001b	c7 07 00 00 00
	00		 mov	 DWORD PTR [edi], 0

; 357  : 
; 358  : 	for (j = 0; j < n; j++) 

  00021	85 db		 test	 ebx, ebx
  00023	0f 8e 29 01 00
	00		 jle	 $LN12@matgen
  00029	dd 05 00 00 00
	00		 fld	 QWORD PTR __real@40e0000000000000
  0002f	dd 05 00 00 00
	00		 fld	 QWORD PTR __real@3f10000000000000
  00035	8b 75 08	 mov	 esi, DWORD PTR _a$[ebp]
$LN4@matgen:

; 363  : 			a[lda*j+i] = (init - 32768.0f) / 16384.0f;

  00038	8b 45 0c	 mov	 eax, DWORD PTR _lda$[ebp]
  0003b	33 c9		 xor	 ecx, ecx
  0003d	0f af 45 18	 imul	 eax, DWORD PTR _j$1$[ebp]
  00041	8d 04 86	 lea	 eax, DWORD PTR [esi+eax*4]
  00044	89 45 f8	 mov	 DWORD PTR tv574[ebp], eax
  00047	8b f0		 mov	 esi, eax
$LN7@matgen:

; 361  : 		{
; 362  : 			init = 3125*init % 65536;

  00049	69 d2 35 0c 00
	00		 imul	 edx, edx, 3125
  0004f	81 e2 ff ff 00
	80		 and	 edx, -2147418113	; 8000ffffH
  00055	79 08		 jns	 SHORT $LN77@matgen
  00057	4a		 dec	 edx
  00058	81 ca 00 00 ff
	ff		 or	 edx, -65536		; ffff0000H
  0005e	42		 inc	 edx
$LN77@matgen:
  0005f	89 55 f8	 mov	 DWORD PTR _init$[ebp], edx

; 363  : 			a[lda*j+i] = (init - 32768.0f) / 16384.0f;

  00062	db 45 f8	 fild	 DWORD PTR _init$[ebp]
  00065	d9 5d f8	 fstp	 DWORD PTR tv612[ebp]
  00068	d9 45 f8	 fld	 DWORD PTR tv612[ebp]
  0006b	d8 e2		 fsub	 ST(0), ST(2)
  0006d	d8 c9		 fmul	 ST(0), ST(1)
  0006f	d9 5d fc	 fstp	 DWORD PTR tv394[ebp]
  00072	d9 45 fc	 fld	 DWORD PTR tv394[ebp]
  00075	d9 14 8e	 fst	 DWORD PTR [esi+ecx*4]

; 364  : 			*norma = (a[lda*j+i] > *norma) ? a[lda * j + i] : *norma;

  00078	d9 07		 fld	 DWORD PTR [edi]
  0007a	d9 5d f8	 fstp	 DWORD PTR tv401[ebp]
  0007d	d9 45 f8	 fld	 DWORD PTR tv401[ebp]
  00080	d9 c9		 fxch	 ST(1)
  00082	df f1		 fcomip	 ST(1)
  00084	dd d8		 fstp	 ST(0)
  00086	76 07		 jbe	 SHORT $LN18@matgen
  00088	f3 0f 10 45 fc	 movss	 xmm0, DWORD PTR tv394[ebp]
  0008d	eb 05		 jmp	 SHORT $LN19@matgen
$LN18@matgen:
  0008f	f3 0f 10 45 f8	 movss	 xmm0, DWORD PTR tv401[ebp]
$LN19@matgen:

; 359  : 	{
; 360  : 		for (i = 0; i < n; i++) 

  00094	41		 inc	 ecx

; 364  : 			*norma = (a[lda*j+i] > *norma) ? a[lda * j + i] : *norma;

  00095	f3 0f 11 07	 movss	 DWORD PTR [edi], xmm0
  00099	3b cb		 cmp	 ecx, ebx
  0009b	7c ac		 jl	 SHORT $LN7@matgen

; 357  : 
; 358  : 	for (j = 0; j < n; j++) 

  0009d	8b 45 18	 mov	 eax, DWORD PTR _j$1$[ebp]
  000a0	8b 75 08	 mov	 esi, DWORD PTR _a$[ebp]
  000a3	40		 inc	 eax
  000a4	89 45 18	 mov	 DWORD PTR _j$1$[ebp], eax
  000a7	3b c3		 cmp	 eax, ebx
  000a9	7c 8d		 jl	 SHORT $LN4@matgen

; 365  : 
; 366  : 			/* alternative for some compilers
; 367  : 			if (fabs(a[lda*j+i]) > *norma) *norma = fabs(a[lda*j+i]);
; 368  : 			*/
; 369  : 		}
; 370  : 	}
; 371  : 
; 372  : 	for (i = 0; i < n; i++) 
; 373  : 	{
; 374  : 		b[i] = 0.0;

  000ab	8b 75 14	 mov	 esi, DWORD PTR _b$[ebp]
  000ae	33 c0		 xor	 eax, eax
  000b0	dd d9		 fstp	 ST(1)
  000b2	89 45 18	 mov	 DWORD PTR _j$2$[ebp], eax
  000b5	8b cb		 mov	 ecx, ebx
  000b7	8b fe		 mov	 edi, esi
  000b9	dd d8		 fstp	 ST(0)
  000bb	f3 ab		 rep stosd
  000bd	8d 49 00	 npad	 3
$LL13@matgen:

; 378  : 	{
; 379  : 		for (i = 0; i < n; i++) 

  000c0	8b 7d 0c	 mov	 edi, DWORD PTR _lda$[ebp]
  000c3	33 d2		 xor	 edx, edx
  000c5	0f af f8	 imul	 edi, eax
  000c8	83 fb 04	 cmp	 ebx, 4
  000cb	7c 62		 jl	 SHORT $LN46@matgen

; 380  : 		{
; 381  : 			b[i] = b[i] + a[lda*j+i];

  000cd	8b 45 08	 mov	 eax, DWORD PTR _a$[ebp]
  000d0	8d 4b fd	 lea	 ecx, DWORD PTR [ebx-3]
  000d3	8b 5d 08	 mov	 ebx, DWORD PTR _a$[ebp]
  000d6	89 4d f8	 mov	 DWORD PTR tv590[ebp], ecx
  000d9	8d 04 b8	 lea	 eax, DWORD PTR [eax+edi*4]
  000dc	8d 64 24 00	 npad	 4
$LL37@matgen:
  000e0	8d 0c 95 00 00
	00 00		 lea	 ecx, DWORD PTR [edx*4]
  000e7	d9 04 01	 fld	 DWORD PTR [ecx+eax]
  000ea	8d 04 b9	 lea	 eax, DWORD PTR [ecx+edi*4]
  000ed	d8 04 31	 fadd	 DWORD PTR [ecx+esi]
  000f0	d9 1c 31	 fstp	 DWORD PTR [ecx+esi]
  000f3	d9 44 18 04	 fld	 DWORD PTR [eax+ebx+4]
  000f7	8d 04 17	 lea	 eax, DWORD PTR [edi+edx]
  000fa	d8 44 31 04	 fadd	 DWORD PTR [ecx+esi+4]
  000fe	d9 5c 31 04	 fstp	 DWORD PTR [ecx+esi+4]
  00102	d9 44 83 08	 fld	 DWORD PTR [ebx+eax*4+8]
  00106	8d 04 3a	 lea	 eax, DWORD PTR [edx+edi]
  00109	d8 44 96 08	 fadd	 DWORD PTR [esi+edx*4+8]
  0010d	d9 5c 96 08	 fstp	 DWORD PTR [esi+edx*4+8]
  00111	d9 44 83 0c	 fld	 DWORD PTR [ebx+eax*4+12]
  00115	8d 04 bb	 lea	 eax, DWORD PTR [ebx+edi*4]
  00118	d8 44 96 0c	 fadd	 DWORD PTR [esi+edx*4+12]
  0011c	d9 5c 96 0c	 fstp	 DWORD PTR [esi+edx*4+12]
  00120	83 c2 04	 add	 edx, 4
  00123	3b 55 f8	 cmp	 edx, DWORD PTR tv590[ebp]
  00126	7c b8		 jl	 SHORT $LL37@matgen

; 378  : 	{
; 379  : 		for (i = 0; i < n; i++) 

  00128	8b 5d 10	 mov	 ebx, DWORD PTR _n$[ebp]
  0012b	3b d3		 cmp	 edx, ebx
  0012d	7d 14		 jge	 SHORT $LN11@matgen
$LN46@matgen:
  0012f	8b 45 08	 mov	 eax, DWORD PTR _a$[ebp]
  00132	8d 04 b8	 lea	 eax, DWORD PTR [eax+edi*4]
$LC16@matgen:

; 380  : 		{
; 381  : 			b[i] = b[i] + a[lda*j+i];

  00135	d9 04 90	 fld	 DWORD PTR [eax+edx*4]
  00138	d8 04 96	 fadd	 DWORD PTR [esi+edx*4]
  0013b	d9 1c 96	 fstp	 DWORD PTR [esi+edx*4]
  0013e	42		 inc	 edx
  0013f	3b d3		 cmp	 edx, ebx
  00141	7c f2		 jl	 SHORT $LC16@matgen
$LN11@matgen:

; 375  : 	}
; 376  : 
; 377  : 	for (j = 0; j < n; j++) 

  00143	8b 45 18	 mov	 eax, DWORD PTR _j$2$[ebp]
  00146	40		 inc	 eax
  00147	89 45 18	 mov	 DWORD PTR _j$2$[ebp], eax
  0014a	3b c3		 cmp	 eax, ebx
  0014c	0f 8c 6e ff ff
	ff		 jl	 $LL13@matgen
$LN12@matgen:
  00152	5f		 pop	 edi

; 382  : 		}
; 383  : 	}
; 384  : 
; 385  : 	return;
; 386  : }

  00153	5e		 pop	 esi
  00154	5b		 pop	 ebx
  00155	8b e5		 mov	 esp, ebp
  00157	5d		 pop	 ebp
  00158	c3		 ret	 0
?matgen@@YAXQAMHH0PAM@Z ENDP				; matgen
_TEXT	ENDS
; Function compile flags: /Ogtp
; File E:\Proyectos\JuegosOnlineproyectos\PB\pbblow\Piercing Blow Remake\i3Server\src\i3Base\Linpack.cpp
;	COMDAT ?end_time@@YANXZ
_TEXT	SEGMENT
_liFreq$ = -16						; size = 8
tv71 = -16						; size = 8
_liDiff$ = -8						; size = 8
tv70 = -8						; size = 8
?end_time@@YANXZ PROC					; end_time, COMDAT

; 1025 : {

  00000	55		 push	 ebp
  00001	8b ec		 mov	 ebp, esp
  00003	83 ec 10	 sub	 esp, 16			; 00000010H

; 1026 :     LARGE_INTEGER liDiff;
; 1027 :     LARGE_INTEGER liFreq;
; 1028 : 
; 1029 :     QueryPerformanceCounter(&liDiff);

  00006	8d 45 f8	 lea	 eax, DWORD PTR _liDiff$[ebp]
  00009	50		 push	 eax
  0000a	ff 15 00 00 00
	00		 call	 DWORD PTR __imp__QueryPerformanceCounter@4

; 1030 : 
; 1031 :     liDiff.QuadPart -= starttime.QuadPart;

  00010	a1 00 00 00 00	 mov	 eax, DWORD PTR ?starttime@@3T_LARGE_INTEGER@@A
  00015	29 45 f8	 sub	 DWORD PTR _liDiff$[ebp], eax
  00018	a1 04 00 00 00	 mov	 eax, DWORD PTR ?starttime@@3T_LARGE_INTEGER@@A+4
  0001d	19 45 fc	 sbb	 DWORD PTR _liDiff$[ebp+4], eax

; 1032 : 
; 1033 :     (void)QueryPerformanceFrequency(&liFreq);

  00020	8d 45 f0	 lea	 eax, DWORD PTR _liFreq$[ebp]
  00023	50		 push	 eax
  00024	ff 15 00 00 00
	00		 call	 DWORD PTR __imp__QueryPerformanceFrequency@4

; 1034 : 
; 1035 :     secs = (double)liDiff.QuadPart / (double) liFreq.QuadPart;

  0002a	df 6d f8	 fild	 QWORD PTR _liDiff$[ebp]
  0002d	dd 5d f8	 fstp	 QWORD PTR tv70[ebp]
  00030	dd 45 f8	 fld	 QWORD PTR tv70[ebp]
  00033	df 6d f0	 fild	 QWORD PTR _liFreq$[ebp]
  00036	dd 5d f0	 fstp	 QWORD PTR tv71[ebp]
  00039	dc 75 f0	 fdiv	 QWORD PTR tv71[ebp]
  0003c	dd 15 00 00 00
	00		 fst	 QWORD PTR ?secs@@3NA	; secs

; 1036 :     return secs;
; 1037 : }

  00042	8b e5		 mov	 esp, ebp
  00044	5d		 pop	 ebp
  00045	c3		 ret	 0
?end_time@@YANXZ ENDP					; end_time
_TEXT	ENDS
; Function compile flags: /Ogtp
; File E:\Proyectos\JuegosOnlineproyectos\PB\pbblow\Piercing Blow Remake\i3Server\src\i3Base\Linpack.cpp
;	COMDAT ?start_time@@YAXXZ
_TEXT	SEGMENT
?start_time@@YAXXZ PROC					; start_time, COMDAT

; 1021 :     QueryPerformanceCounter(&starttime);

  00000	68 00 00 00 00	 push	 OFFSET ?starttime@@3T_LARGE_INTEGER@@A ; starttime
  00005	ff 15 00 00 00
	00		 call	 DWORD PTR __imp__QueryPerformanceCounter@4

; 1022 : }

  0000b	c3		 ret	 0
?start_time@@YAXXZ ENDP					; start_time
_TEXT	ENDS
; Function compile flags: /Ogtp
; File E:\Proyectos\JuegosOnlineproyectos\PB\pbblow\Piercing Blow Remake\i3Server\src\i3Base\Linpack.cpp
;	COMDAT ??_Ei3Timer@@UAEPAXI@Z
_TEXT	SEGMENT
__$EHRec$ = -12						; size = 12
___flags$ = 8						; size = 4
??_Ei3Timer@@UAEPAXI@Z PROC				; i3Timer::`vector deleting destructor', COMDAT
; _this$ = ecx
  00000	55		 push	 ebp
  00001	8b ec		 mov	 ebp, esp
  00003	6a ff		 push	 -1
  00005	68 00 00 00 00	 push	 __ehhandler$??_Ei3Timer@@UAEPAXI@Z
  0000a	64 a1 00 00 00
	00		 mov	 eax, DWORD PTR fs:0
  00010	50		 push	 eax
  00011	53		 push	 ebx
  00012	56		 push	 esi
  00013	57		 push	 edi
  00014	a1 00 00 00 00	 mov	 eax, DWORD PTR ___security_cookie
  00019	33 c5		 xor	 eax, ebp
  0001b	50		 push	 eax
  0001c	8d 45 f4	 lea	 eax, DWORD PTR __$EHRec$[ebp]
  0001f	64 a3 00 00 00
	00		 mov	 DWORD PTR fs:0, eax
  00025	8b f1		 mov	 esi, ecx
  00027	8b 5d 08	 mov	 ebx, DWORD PTR ___flags$[ebp]
  0002a	8b fb		 mov	 edi, ebx
  0002c	83 e7 01	 and	 edi, 1
  0002f	f6 c3 02	 test	 bl, 2
  00032	74 43		 je	 SHORT $LN2@vector
  00034	68 00 00 00 00	 push	 OFFSET ??1i3Timer@@UAE@XZ ; i3Timer::~i3Timer
  00039	ff 76 fc	 push	 DWORD PTR [esi-4]
  0003c	8d 5e fc	 lea	 ebx, DWORD PTR [esi-4]
  0003f	6a 28		 push	 40			; 00000028H
  00041	56		 push	 esi
  00042	e8 00 00 00 00	 call	 ??_M@YGXPAXIIP6EX0@Z@Z
  00047	85 ff		 test	 edi, edi
  00049	74 16		 je	 SHORT $LN3@vector
  0004b	8b 0b		 mov	 ecx, DWORD PTR [ebx]
  0004d	8d 0c 89	 lea	 ecx, DWORD PTR [ecx+ecx*4]
  00050	8d 0c cd 04 00
	00 00		 lea	 ecx, DWORD PTR [ecx*8+4]
  00057	51		 push	 ecx
  00058	53		 push	 ebx
  00059	e8 00 00 00 00	 call	 ??_V@YAXPAXI@Z		; operator delete[]
  0005e	83 c4 08	 add	 esp, 8
$LN3@vector:
  00061	8b c3		 mov	 eax, ebx
  00063	8b 4d f4	 mov	 ecx, DWORD PTR __$EHRec$[ebp]
  00066	64 89 0d 00 00
	00 00		 mov	 DWORD PTR fs:0, ecx
  0006d	59		 pop	 ecx
  0006e	5f		 pop	 edi
  0006f	5e		 pop	 esi
  00070	5b		 pop	 ebx
  00071	8b e5		 mov	 esp, ebp
  00073	5d		 pop	 ebp
  00074	c2 04 00	 ret	 4
$LN2@vector:
  00077	e8 00 00 00 00	 call	 ??1i3Timer@@UAE@XZ	; i3Timer::~i3Timer
  0007c	85 ff		 test	 edi, edi
  0007e	74 1b		 je	 SHORT $LN6@vector
  00080	f6 c3 04	 test	 bl, 4
  00083	75 0b		 jne	 SHORT $LN5@vector
  00085	56		 push	 esi
  00086	e8 00 00 00 00	 call	 ??3i3ElementBase@@SAXPAX@Z ; i3ElementBase::operator delete
  0008b	83 c4 04	 add	 esp, 4
  0008e	eb 0b		 jmp	 SHORT $LN6@vector
$LN5@vector:

  00090	6a 28		 push	 40			; 00000028H
  00092	56		 push	 esi
  00093	e8 00 00 00 00	 call	 ??3@YAXPAXI@Z		; operator delete
  00098	83 c4 08	 add	 esp, 8
$LN6@vector:
  0009b	8b c6		 mov	 eax, esi
  0009d	8b 4d f4	 mov	 ecx, DWORD PTR __$EHRec$[ebp]
  000a0	64 89 0d 00 00
	00 00		 mov	 DWORD PTR fs:0, ecx
  000a7	59		 pop	 ecx
  000a8	5f		 pop	 edi
  000a9	5e		 pop	 esi
  000aa	5b		 pop	 ebx
  000ab	8b e5		 mov	 esp, ebp
  000ad	5d		 pop	 ebp
  000ae	c2 04 00	 ret	 4
  000b1	cc		 int	 3
  000b2	cc		 int	 3
  000b3	cc		 int	 3
  000b4	cc		 int	 3
  000b5	cc		 int	 3
_TEXT	ENDS
;	COMDAT text$x
text$x	SEGMENT
__ehhandler$??_Ei3Timer@@UAEPAXI@Z:
  00000	90		 npad	 1
  00001	90		 npad	 1
  00002	8b 54 24 08	 mov	 edx, DWORD PTR [esp+8]
  00006	8d 42 0c	 lea	 eax, DWORD PTR [edx+12]
  00009	8b 4a f0	 mov	 ecx, DWORD PTR [edx-16]
  0000c	33 c8		 xor	 ecx, eax
  0000e	e8 00 00 00 00	 call	 @__security_check_cookie@4
  00013	b8 00 00 00 00	 mov	 eax, OFFSET __ehfuncinfo$??_Ei3Timer@@UAEPAXI@Z
  00018	e9 00 00 00 00	 jmp	 ___CxxFrameHandler3
text$x	ENDS
??_Ei3Timer@@UAEPAXI@Z ENDP				; i3Timer::`vector deleting destructor'
; Function compile flags: /Ogtp
; File E:\Proyectos\JuegosOnlineproyectos\PB\pbblow\Piercing Blow Remake\i3Server\src\i3Base\Linpack.cpp
;	COMDAT ??_Gi3Timer@@UAEPAXI@Z
_TEXT	SEGMENT
___flags$ = 8						; size = 4
??_Gi3Timer@@UAEPAXI@Z PROC				; i3Timer::`scalar deleting destructor', COMDAT
; _this$ = ecx
  00000	55		 push	 ebp
  00001	8b ec		 mov	 ebp, esp
  00003	56		 push	 esi
  00004	8b f1		 mov	 esi, ecx
  00006	e8 00 00 00 00	 call	 ??1i3Timer@@UAE@XZ	; i3Timer::~i3Timer
  0000b	8b 45 08	 mov	 eax, DWORD PTR ___flags$[ebp]
  0000e	a8 01		 test	 al, 1
  00010	74 1f		 je	 SHORT $LN10@scalar
  00012	a8 04		 test	 al, 4
  00014	75 10		 jne	 SHORT $LN3@scalar
  00016	56		 push	 esi
  00017	e8 00 00 00 00	 call	 ??3i3ElementBase@@SAXPAX@Z ; i3ElementBase::operator delete
  0001c	83 c4 04	 add	 esp, 4
  0001f	8b c6		 mov	 eax, esi
  00021	5e		 pop	 esi
  00022	5d		 pop	 ebp
  00023	c2 04 00	 ret	 4
$LN3@scalar:

  00026	6a 28		 push	 40			; 00000028H
  00028	56		 push	 esi
  00029	e8 00 00 00 00	 call	 ??3@YAXPAXI@Z		; operator delete
  0002e	83 c4 08	 add	 esp, 8
$LN10@scalar:
  00031	8b c6		 mov	 eax, esi
  00033	5e		 pop	 esi
  00034	5d		 pop	 ebp
  00035	c2 04 00	 ret	 4
??_Gi3Timer@@UAEPAXI@Z ENDP				; i3Timer::`scalar deleting destructor'
_TEXT	ENDS
; Function compile flags: /Ogtp
;	COMDAT ??4i3Timer@@QAEAAV0@ABV0@@Z
_TEXT	SEGMENT
___that$ = 8						; size = 4
??4i3Timer@@QAEAAV0@ABV0@@Z PROC			; i3Timer::operator=, COMDAT
; _this$ = ecx
  00000	55		 push	 ebp
  00001	8b ec		 mov	 ebp, esp
  00003	8b 55 08	 mov	 edx, DWORD PTR ___that$[ebp]
  00006	56		 push	 esi
  00007	8b f1		 mov	 esi, ecx
  00009	8b 42 04	 mov	 eax, DWORD PTR [edx+4]
  0000c	89 46 04	 mov	 DWORD PTR [esi+4], eax
  0000f	8b 42 08	 mov	 eax, DWORD PTR [edx+8]
  00012	89 46 08	 mov	 DWORD PTR [esi+8], eax
  00015	8b 42 0c	 mov	 eax, DWORD PTR [edx+12]
  00018	89 46 0c	 mov	 DWORD PTR [esi+12], eax
  0001b	8b 42 10	 mov	 eax, DWORD PTR [edx+16]
  0001e	89 46 10	 mov	 DWORD PTR [esi+16], eax
  00021	8b 42 18	 mov	 eax, DWORD PTR [edx+24]
  00024	8b 4a 1c	 mov	 ecx, DWORD PTR [edx+28]
  00027	89 46 18	 mov	 DWORD PTR [esi+24], eax
  0002a	89 4e 1c	 mov	 DWORD PTR [esi+28], ecx
  0002d	8b 42 20	 mov	 eax, DWORD PTR [edx+32]
  00030	89 46 20	 mov	 DWORD PTR [esi+32], eax
  00033	8b c6		 mov	 eax, esi
  00035	5e		 pop	 esi
  00036	5d		 pop	 ebp
  00037	c2 04 00	 ret	 4
??4i3Timer@@QAEAAV0@ABV0@@Z ENDP			; i3Timer::operator=
_TEXT	ENDS
; Function compile flags: /Ogtp
;	COMDAT ??0i3Timer@@QAE@ABV0@@Z
_TEXT	SEGMENT
___that$ = 8						; size = 4
??0i3Timer@@QAE@ABV0@@Z PROC				; i3Timer::i3Timer, COMDAT
; _this$ = ecx
  00000	55		 push	 ebp
  00001	8b ec		 mov	 ebp, esp
  00003	8b 55 08	 mov	 edx, DWORD PTR ___that$[ebp]
  00006	56		 push	 esi
  00007	8b f1		 mov	 esi, ecx
  00009	c7 06 00 00 00
	00		 mov	 DWORD PTR [esi], OFFSET ??_7i3ElementBase@@6B@
  0000f	8b 42 04	 mov	 eax, DWORD PTR [edx+4]
  00012	89 46 04	 mov	 DWORD PTR [esi+4], eax
  00015	8b 42 08	 mov	 eax, DWORD PTR [edx+8]
  00018	89 46 08	 mov	 DWORD PTR [esi+8], eax
  0001b	8b 42 0c	 mov	 eax, DWORD PTR [edx+12]
  0001e	89 46 0c	 mov	 DWORD PTR [esi+12], eax
  00021	c7 06 00 00 00
	00		 mov	 DWORD PTR [esi], OFFSET ??_7i3Timer@@6B@
  00027	8b 42 10	 mov	 eax, DWORD PTR [edx+16]
  0002a	89 46 10	 mov	 DWORD PTR [esi+16], eax
  0002d	8b 42 18	 mov	 eax, DWORD PTR [edx+24]
  00030	8b 4a 1c	 mov	 ecx, DWORD PTR [edx+28]
  00033	89 46 18	 mov	 DWORD PTR [esi+24], eax
  00036	89 4e 1c	 mov	 DWORD PTR [esi+28], ecx
  00039	8b 42 20	 mov	 eax, DWORD PTR [edx+32]
  0003c	89 46 20	 mov	 DWORD PTR [esi+32], eax
  0003f	8b c6		 mov	 eax, esi
  00041	5e		 pop	 esi
  00042	5d		 pop	 ebp
  00043	c2 04 00	 ret	 4
??0i3Timer@@QAE@ABV0@@Z ENDP				; i3Timer::i3Timer
_TEXT	ENDS
; Function compile flags: /Ogtp
; File E:\Proyectos\JuegosOnlineproyectos\PB\pbblow\Piercing Blow Remake\i3Server\include\i3Base\i3Timer.h
;	COMDAT ?GetClassMeta@i3Timer@@SAPAVi3ClassMeta@@XZ
_TEXT	SEGMENT
?GetClassMeta@i3Timer@@SAPAVi3ClassMeta@@XZ PROC	; i3Timer::GetClassMeta, COMDAT

; 9    : 	I3_CLASS_DEFINE( i3Timer);

  00000	a1 00 00 00 00	 mov	 eax, DWORD PTR ?s_pClassMetai3Timer@i3Timer@@2PAVi3ClassMeta@@A ; i3Timer::s_pClassMetai3Timer
  00005	c3		 ret	 0
?GetClassMeta@i3Timer@@SAPAVi3ClassMeta@@XZ ENDP	; i3Timer::GetClassMeta
_TEXT	ENDS
; Function compile flags: /Ogtp
;	COMDAT ??_Ei3MemoryPool@@UAEPAXI@Z
_TEXT	SEGMENT
__$EHRec$ = -12						; size = 12
___flags$ = 8						; size = 4
??_Ei3MemoryPool@@UAEPAXI@Z PROC			; i3MemoryPool::`vector deleting destructor', COMDAT
; _this$ = ecx
  00000	55		 push	 ebp
  00001	8b ec		 mov	 ebp, esp
  00003	6a ff		 push	 -1
  00005	68 00 00 00 00	 push	 __ehhandler$??_Ei3MemoryPool@@UAEPAXI@Z
  0000a	64 a1 00 00 00
	00		 mov	 eax, DWORD PTR fs:0
  00010	50		 push	 eax
  00011	53		 push	 ebx
  00012	56		 push	 esi
  00013	57		 push	 edi
  00014	a1 00 00 00 00	 mov	 eax, DWORD PTR ___security_cookie
  00019	33 c5		 xor	 eax, ebp
  0001b	50		 push	 eax
  0001c	8d 45 f4	 lea	 eax, DWORD PTR __$EHRec$[ebp]
  0001f	64 a3 00 00 00
	00		 mov	 DWORD PTR fs:0, eax
  00025	8b f1		 mov	 esi, ecx
  00027	8b 45 08	 mov	 eax, DWORD PTR ___flags$[ebp]
  0002a	8b f8		 mov	 edi, eax
  0002c	83 e7 01	 and	 edi, 1
  0002f	a8 02		 test	 al, 2
  00031	74 40		 je	 SHORT $LN2@vector
  00033	68 00 00 00 00	 push	 OFFSET ??1i3MemoryPool@@UAE@XZ ; i3MemoryPool::~i3MemoryPool
  00038	ff 76 fc	 push	 DWORD PTR [esi-4]
  0003b	8d 5e fc	 lea	 ebx, DWORD PTR [esi-4]
  0003e	6a 04		 push	 4
  00040	56		 push	 esi
  00041	e8 00 00 00 00	 call	 ??_M@YGXPAXIIP6EX0@Z@Z
  00046	85 ff		 test	 edi, edi
  00048	74 13		 je	 SHORT $LN3@vector
  0004a	8b 0b		 mov	 ecx, DWORD PTR [ebx]
  0004c	8d 0c 8d 04 00
	00 00		 lea	 ecx, DWORD PTR [ecx*4+4]
  00053	51		 push	 ecx
  00054	53		 push	 ebx
  00055	e8 00 00 00 00	 call	 ??_V@YAXPAXI@Z		; operator delete[]
  0005a	83 c4 08	 add	 esp, 8
$LN3@vector:
  0005d	8b c3		 mov	 eax, ebx
  0005f	8b 4d f4	 mov	 ecx, DWORD PTR __$EHRec$[ebp]
  00062	64 89 0d 00 00
	00 00		 mov	 DWORD PTR fs:0, ecx
  00069	59		 pop	 ecx
  0006a	5f		 pop	 edi
  0006b	5e		 pop	 esi
  0006c	5b		 pop	 ebx
  0006d	8b e5		 mov	 esp, ebp
  0006f	5d		 pop	 ebp
  00070	c2 04 00	 ret	 4
$LN2@vector:
  00073	e8 00 00 00 00	 call	 ??1i3MemoryPool@@UAE@XZ	; i3MemoryPool::~i3MemoryPool
  00078	85 ff		 test	 edi, edi
  0007a	74 0b		 je	 SHORT $LN4@vector
  0007c	6a 04		 push	 4
  0007e	56		 push	 esi
  0007f	e8 00 00 00 00	 call	 ??3@YAXPAXI@Z		; operator delete
  00084	83 c4 08	 add	 esp, 8
$LN4@vector:
  00087	8b c6		 mov	 eax, esi
  00089	8b 4d f4	 mov	 ecx, DWORD PTR __$EHRec$[ebp]
  0008c	64 89 0d 00 00
	00 00		 mov	 DWORD PTR fs:0, ecx
  00093	59		 pop	 ecx
  00094	5f		 pop	 edi
  00095	5e		 pop	 esi
  00096	5b		 pop	 ebx
  00097	8b e5		 mov	 esp, ebp
  00099	5d		 pop	 ebp
  0009a	c2 04 00	 ret	 4
  0009d	cc		 int	 3
  0009e	cc		 int	 3
  0009f	cc		 int	 3
  000a0	cc		 int	 3
  000a1	cc		 int	 3
_TEXT	ENDS
;	COMDAT text$x
text$x	SEGMENT
__ehhandler$??_Ei3MemoryPool@@UAEPAXI@Z:
  00000	90		 npad	 1
  00001	90		 npad	 1
  00002	8b 54 24 08	 mov	 edx, DWORD PTR [esp+8]
  00006	8d 42 0c	 lea	 eax, DWORD PTR [edx+12]
  00009	8b 4a f0	 mov	 ecx, DWORD PTR [edx-16]
  0000c	33 c8		 xor	 ecx, eax
  0000e	e8 00 00 00 00	 call	 @__security_check_cookie@4
  00013	b8 00 00 00 00	 mov	 eax, OFFSET __ehfuncinfo$??_Ei3MemoryPool@@UAEPAXI@Z
  00018	e9 00 00 00 00	 jmp	 ___CxxFrameHandler3
text$x	ENDS
??_Ei3MemoryPool@@UAEPAXI@Z ENDP			; i3MemoryPool::`vector deleting destructor'
; Function compile flags: /Ogtp
;	COMDAT ??_Gi3MemoryPool@@UAEPAXI@Z
_TEXT	SEGMENT
___flags$ = 8						; size = 4
??_Gi3MemoryPool@@UAEPAXI@Z PROC			; i3MemoryPool::`scalar deleting destructor', COMDAT
; _this$ = ecx
  00000	55		 push	 ebp
  00001	8b ec		 mov	 ebp, esp
  00003	56		 push	 esi
  00004	8b f1		 mov	 esi, ecx
  00006	e8 00 00 00 00	 call	 ??1i3MemoryPool@@UAE@XZ	; i3MemoryPool::~i3MemoryPool
  0000b	f6 45 08 01	 test	 BYTE PTR ___flags$[ebp], 1
  0000f	74 0b		 je	 SHORT $LN5@scalar
  00011	6a 04		 push	 4
  00013	56		 push	 esi
  00014	e8 00 00 00 00	 call	 ??3@YAXPAXI@Z		; operator delete
  00019	83 c4 08	 add	 esp, 8
$LN5@scalar:
  0001c	8b c6		 mov	 eax, esi
  0001e	5e		 pop	 esi
  0001f	5d		 pop	 ebp
  00020	c2 04 00	 ret	 4
??_Gi3MemoryPool@@UAEPAXI@Z ENDP			; i3MemoryPool::`scalar deleting destructor'
_TEXT	ENDS
; Function compile flags: /Ogtp
;	COMDAT ??4i3MemoryPool@@QAEAAV0@ABV0@@Z
_TEXT	SEGMENT
___that$ = 8						; size = 4
??4i3MemoryPool@@QAEAAV0@ABV0@@Z PROC			; i3MemoryPool::operator=, COMDAT
; _this$ = ecx
  00000	8b c1		 mov	 eax, ecx
  00002	c2 04 00	 ret	 4
??4i3MemoryPool@@QAEAAV0@ABV0@@Z ENDP			; i3MemoryPool::operator=
_TEXT	ENDS
; Function compile flags: /Ogtp
;	COMDAT ??0i3MemoryPool@@QAE@ABV0@@Z
_TEXT	SEGMENT
___that$ = 8						; size = 4
??0i3MemoryPool@@QAE@ABV0@@Z PROC			; i3MemoryPool::i3MemoryPool, COMDAT
; _this$ = ecx
  00000	c7 01 00 00 00
	00		 mov	 DWORD PTR [ecx], OFFSET ??_7i3MemoryPool@@6B@
  00006	8b c1		 mov	 eax, ecx
  00008	c2 04 00	 ret	 4
??0i3MemoryPool@@QAE@ABV0@@Z ENDP			; i3MemoryPool::i3MemoryPool
_TEXT	ENDS
; Function compile flags: /Ogtp
; File E:\Proyectos\JuegosOnlineproyectos\PB\pbblow\Piercing Blow Remake\i3Server\src\i3Base\Linpack.cpp
;	COMDAT ??_Ei3ElementBase@@UAEPAXI@Z
_TEXT	SEGMENT
__$EHRec$ = -12						; size = 12
___flags$ = 8						; size = 4
??_Ei3ElementBase@@UAEPAXI@Z PROC			; i3ElementBase::`vector deleting destructor', COMDAT
; _this$ = ecx
  00000	55		 push	 ebp
  00001	8b ec		 mov	 ebp, esp
  00003	6a ff		 push	 -1
  00005	68 00 00 00 00	 push	 __ehhandler$??_Ei3ElementBase@@UAEPAXI@Z
  0000a	64 a1 00 00 00
	00		 mov	 eax, DWORD PTR fs:0
  00010	50		 push	 eax
  00011	53		 push	 ebx
  00012	56		 push	 esi
  00013	57		 push	 edi
  00014	a1 00 00 00 00	 mov	 eax, DWORD PTR ___security_cookie
  00019	33 c5		 xor	 eax, ebp
  0001b	50		 push	 eax
  0001c	8d 45 f4	 lea	 eax, DWORD PTR __$EHRec$[ebp]
  0001f	64 a3 00 00 00
	00		 mov	 DWORD PTR fs:0, eax
  00025	8b f1		 mov	 esi, ecx
  00027	8b 5d 08	 mov	 ebx, DWORD PTR ___flags$[ebp]
  0002a	8b fb		 mov	 edi, ebx
  0002c	83 e7 01	 and	 edi, 1
  0002f	f6 c3 02	 test	 bl, 2
  00032	74 3f		 je	 SHORT $LN2@vector
  00034	68 00 00 00 00	 push	 OFFSET ??1i3ElementBase@@UAE@XZ ; i3ElementBase::~i3ElementBase
  00039	ff 76 fc	 push	 DWORD PTR [esi-4]
  0003c	8d 5e fc	 lea	 ebx, DWORD PTR [esi-4]
  0003f	6a 10		 push	 16			; 00000010H
  00041	56		 push	 esi
  00042	e8 00 00 00 00	 call	 ??_M@YGXPAXIIP6EX0@Z@Z
  00047	85 ff		 test	 edi, edi
  00049	74 12		 je	 SHORT $LN3@vector
  0004b	8b 0b		 mov	 ecx, DWORD PTR [ebx]
  0004d	c1 e1 04	 shl	 ecx, 4
  00050	83 c1 04	 add	 ecx, 4
  00053	51		 push	 ecx
  00054	53		 push	 ebx
  00055	e8 00 00 00 00	 call	 ??_V@YAXPAXI@Z		; operator delete[]
  0005a	83 c4 08	 add	 esp, 8
$LN3@vector:
  0005d	8b c3		 mov	 eax, ebx
  0005f	8b 4d f4	 mov	 ecx, DWORD PTR __$EHRec$[ebp]
  00062	64 89 0d 00 00
	00 00		 mov	 DWORD PTR fs:0, ecx
  00069	59		 pop	 ecx
  0006a	5f		 pop	 edi
  0006b	5e		 pop	 esi
  0006c	5b		 pop	 ebx
  0006d	8b e5		 mov	 esp, ebp
  0006f	5d		 pop	 ebp
  00070	c2 04 00	 ret	 4
$LN2@vector:
  00073	e8 00 00 00 00	 call	 ??1i3ElementBase@@UAE@XZ ; i3ElementBase::~i3ElementBase
  00078	85 ff		 test	 edi, edi
  0007a	74 1b		 je	 SHORT $LN6@vector
  0007c	f6 c3 04	 test	 bl, 4
  0007f	75 0b		 jne	 SHORT $LN5@vector
  00081	56		 push	 esi
  00082	e8 00 00 00 00	 call	 ??3i3ElementBase@@SAXPAX@Z ; i3ElementBase::operator delete
  00087	83 c4 04	 add	 esp, 4
  0008a	eb 0b		 jmp	 SHORT $LN6@vector
$LN5@vector:

  0008c	6a 10		 push	 16			; 00000010H
  0008e	56		 push	 esi
  0008f	e8 00 00 00 00	 call	 ??3@YAXPAXI@Z		; operator delete
  00094	83 c4 08	 add	 esp, 8
$LN6@vector:
  00097	8b c6		 mov	 eax, esi
  00099	8b 4d f4	 mov	 ecx, DWORD PTR __$EHRec$[ebp]
  0009c	64 89 0d 00 00
	00 00		 mov	 DWORD PTR fs:0, ecx
  000a3	59		 pop	 ecx
  000a4	5f		 pop	 edi
  000a5	5e		 pop	 esi
  000a6	5b		 pop	 ebx
  000a7	8b e5		 mov	 esp, ebp
  000a9	5d		 pop	 ebp
  000aa	c2 04 00	 ret	 4
  000ad	cc		 int	 3
  000ae	cc		 int	 3
  000af	cc		 int	 3
  000b0	cc		 int	 3
  000b1	cc		 int	 3
_TEXT	ENDS
;	COMDAT text$x
text$x	SEGMENT
__ehhandler$??_Ei3ElementBase@@UAEPAXI@Z:
  00000	90		 npad	 1
  00001	90		 npad	 1
  00002	8b 54 24 08	 mov	 edx, DWORD PTR [esp+8]
  00006	8d 42 0c	 lea	 eax, DWORD PTR [edx+12]
  00009	8b 4a f0	 mov	 ecx, DWORD PTR [edx-16]
  0000c	33 c8		 xor	 ecx, eax
  0000e	e8 00 00 00 00	 call	 @__security_check_cookie@4
  00013	b8 00 00 00 00	 mov	 eax, OFFSET __ehfuncinfo$??_Ei3ElementBase@@UAEPAXI@Z
  00018	e9 00 00 00 00	 jmp	 ___CxxFrameHandler3
text$x	ENDS
??_Ei3ElementBase@@UAEPAXI@Z ENDP			; i3ElementBase::`vector deleting destructor'
; Function compile flags: /Ogtp
; File E:\Proyectos\JuegosOnlineproyectos\PB\pbblow\Piercing Blow Remake\i3Server\src\i3Base\Linpack.cpp
;	COMDAT ??_Gi3ElementBase@@UAEPAXI@Z
_TEXT	SEGMENT
___flags$ = 8						; size = 4
??_Gi3ElementBase@@UAEPAXI@Z PROC			; i3ElementBase::`scalar deleting destructor', COMDAT
; _this$ = ecx
  00000	55		 push	 ebp
  00001	8b ec		 mov	 ebp, esp
  00003	56		 push	 esi
  00004	8b f1		 mov	 esi, ecx
  00006	e8 00 00 00 00	 call	 ??1i3ElementBase@@UAE@XZ ; i3ElementBase::~i3ElementBase
  0000b	8b 45 08	 mov	 eax, DWORD PTR ___flags$[ebp]
  0000e	a8 01		 test	 al, 1
  00010	74 1f		 je	 SHORT $LN10@scalar
  00012	a8 04		 test	 al, 4
  00014	75 10		 jne	 SHORT $LN3@scalar
  00016	56		 push	 esi
  00017	e8 00 00 00 00	 call	 ??3i3ElementBase@@SAXPAX@Z ; i3ElementBase::operator delete
  0001c	83 c4 04	 add	 esp, 4
  0001f	8b c6		 mov	 eax, esi
  00021	5e		 pop	 esi
  00022	5d		 pop	 ebp
  00023	c2 04 00	 ret	 4
$LN3@scalar:

  00026	6a 10		 push	 16			; 00000010H
  00028	56		 push	 esi
  00029	e8 00 00 00 00	 call	 ??3@YAXPAXI@Z		; operator delete
  0002e	83 c4 08	 add	 esp, 8
$LN10@scalar:
  00031	8b c6		 mov	 eax, esi
  00033	5e		 pop	 esi
  00034	5d		 pop	 ebp
  00035	c2 04 00	 ret	 4
??_Gi3ElementBase@@UAEPAXI@Z ENDP			; i3ElementBase::`scalar deleting destructor'
_TEXT	ENDS
; Function compile flags: /Ogtp
;	COMDAT ??4i3ElementBase@@QAEAAV0@ABV0@@Z
_TEXT	SEGMENT
___that$ = 8						; size = 4
??4i3ElementBase@@QAEAAV0@ABV0@@Z PROC			; i3ElementBase::operator=, COMDAT
; _this$ = ecx
  00000	55		 push	 ebp
  00001	8b ec		 mov	 ebp, esp
  00003	8b 55 08	 mov	 edx, DWORD PTR ___that$[ebp]
  00006	8b 42 04	 mov	 eax, DWORD PTR [edx+4]
  00009	89 41 04	 mov	 DWORD PTR [ecx+4], eax
  0000c	8b 42 08	 mov	 eax, DWORD PTR [edx+8]
  0000f	89 41 08	 mov	 DWORD PTR [ecx+8], eax
  00012	8b 42 0c	 mov	 eax, DWORD PTR [edx+12]
  00015	89 41 0c	 mov	 DWORD PTR [ecx+12], eax
  00018	8b c1		 mov	 eax, ecx
  0001a	5d		 pop	 ebp
  0001b	c2 04 00	 ret	 4
??4i3ElementBase@@QAEAAV0@ABV0@@Z ENDP			; i3ElementBase::operator=
_TEXT	ENDS
; Function compile flags: /Ogtp
;	COMDAT ??0i3ElementBase@@QAE@ABV0@@Z
_TEXT	SEGMENT
___that$ = 8						; size = 4
??0i3ElementBase@@QAE@ABV0@@Z PROC			; i3ElementBase::i3ElementBase, COMDAT
; _this$ = ecx
  00000	55		 push	 ebp
  00001	8b ec		 mov	 ebp, esp
  00003	8b 55 08	 mov	 edx, DWORD PTR ___that$[ebp]
  00006	c7 01 00 00 00
	00		 mov	 DWORD PTR [ecx], OFFSET ??_7i3ElementBase@@6B@
  0000c	8b 42 04	 mov	 eax, DWORD PTR [edx+4]
  0000f	89 41 04	 mov	 DWORD PTR [ecx+4], eax
  00012	8b 42 08	 mov	 eax, DWORD PTR [edx+8]
  00015	89 41 08	 mov	 DWORD PTR [ecx+8], eax
  00018	8b 42 0c	 mov	 eax, DWORD PTR [edx+12]
  0001b	89 41 0c	 mov	 DWORD PTR [ecx+12], eax
  0001e	8b c1		 mov	 eax, ecx
  00020	5d		 pop	 ebp
  00021	c2 04 00	 ret	 4
??0i3ElementBase@@QAE@ABV0@@Z ENDP			; i3ElementBase::i3ElementBase
_TEXT	ENDS
; Function compile flags: /Ogtp
; File E:\Proyectos\JuegosOnlineproyectos\PB\pbblow\Piercing Blow Remake\i3Server\include\i3Base\i3ElementBase.h
;	COMDAT ?_internal_SetRefCount@i3ElementBase@@QAEXH@Z
_TEXT	SEGMENT
_cnt$ = 8						; size = 4
?_internal_SetRefCount@i3ElementBase@@QAEXH@Z PROC	; i3ElementBase::_internal_SetRefCount, COMDAT
; _this$ = ecx

; 401  : 	{

  00000	55		 push	 ebp
  00001	8b ec		 mov	 ebp, esp

; 402  : 		m_RefCount = cnt;

  00003	8b 45 08	 mov	 eax, DWORD PTR _cnt$[ebp]
  00006	89 41 04	 mov	 DWORD PTR [ecx+4], eax

; 403  : 	}

  00009	5d		 pop	 ebp
  0000a	c2 04 00	 ret	 4
?_internal_SetRefCount@i3ElementBase@@QAEXH@Z ENDP	; i3ElementBase::_internal_SetRefCount
_TEXT	ENDS
; Function compile flags: /Ogtp
; File E:\Proyectos\JuegosOnlineproyectos\PB\pbblow\Piercing Blow Remake\i3Server\include\i3Base\i3ElementBase.h
;	COMDAT ?AddRef@i3ElementBase@@QAEHXZ
_TEXT	SEGMENT
?AddRef@i3ElementBase@@QAEHXZ PROC			; i3ElementBase::AddRef, COMDAT
; _this$ = ecx

; 392  : 		m_RefCount++;

  00000	ff 41 04	 inc	 DWORD PTR [ecx+4]

; 393  : 
; 394  : 		return m_RefCount;

  00003	8b 41 04	 mov	 eax, DWORD PTR [ecx+4]

; 395  : 	}

  00006	c3		 ret	 0
?AddRef@i3ElementBase@@QAEHXZ ENDP			; i3ElementBase::AddRef
_TEXT	ENDS
; Function compile flags: /Ogtp
; File E:\Proyectos\JuegosOnlineproyectos\PB\pbblow\Piercing Blow Remake\i3Server\include\i3Base\i3ElementBase.h
;	COMDAT ?IsTypeOf@i3ElementBase@@QAE_NPAVi3ClassMeta@@@Z
_TEXT	SEGMENT
_pMeta$ = 8						; size = 4
?IsTypeOf@i3ElementBase@@QAE_NPAVi3ClassMeta@@@Z PROC	; i3ElementBase::IsTypeOf, COMDAT
; _this$ = ecx

; 356  : 	{

  00000	55		 push	 ebp
  00001	8b ec		 mov	 ebp, esp

; 357  : 		return GetMeta()->IsTypeOf( pMeta);

  00003	8b 01		 mov	 eax, DWORD PTR [ecx]
  00005	ff 75 08	 push	 DWORD PTR _pMeta$[ebp]
  00008	ff 10		 call	 DWORD PTR [eax]
  0000a	8b c8		 mov	 ecx, eax
  0000c	e8 00 00 00 00	 call	 ?IsTypeOf@i3ClassMeta@@QAE_NPAV1@@Z ; i3ClassMeta::IsTypeOf

; 358  : 	}

  00011	5d		 pop	 ebp
  00012	c2 04 00	 ret	 4
?IsTypeOf@i3ElementBase@@QAE_NPAVi3ClassMeta@@@Z ENDP	; i3ElementBase::IsTypeOf
_TEXT	ENDS
; Function compile flags: /Ogtp
; File E:\Proyectos\JuegosOnlineproyectos\PB\pbblow\Piercing Blow Remake\i3Server\include\i3Base\i3ElementBase.h
; File E:\Proyectos\JuegosOnlineproyectos\PB\pbblow\Piercing Blow Remake\i3Server\include\i3Base\i3ClassMeta.h
; File E:\Proyectos\JuegosOnlineproyectos\PB\pbblow\Piercing Blow Remake\i3Server\include\i3Base\i3ElementBase.h
;	COMDAT ?IsExactTypeOf@i3ElementBase@@QAE_NPAVi3ClassMeta@@@Z
_TEXT	SEGMENT
_pMeta$ = 8						; size = 4
?IsExactTypeOf@i3ElementBase@@QAE_NPAVi3ClassMeta@@@Z PROC ; i3ElementBase::IsExactTypeOf, COMDAT
; _this$ = ecx

; 351  : 	{

  00000	55		 push	 ebp
  00001	8b ec		 mov	 ebp, esp

; 352  : 		return GetMeta()->IsExactTypeOf( pMeta);

  00003	8b 01		 mov	 eax, DWORD PTR [ecx]
  00005	ff 10		 call	 DWORD PTR [eax]
; File E:\Proyectos\JuegosOnlineproyectos\PB\pbblow\Piercing Blow Remake\i3Server\include\i3Base\i3ClassMeta.h

; 90   : 		return pMeta == this;

  00007	39 45 08	 cmp	 DWORD PTR _pMeta$[ebp], eax
  0000a	0f 94 c0	 sete	 al
; File E:\Proyectos\JuegosOnlineproyectos\PB\pbblow\Piercing Blow Remake\i3Server\include\i3Base\i3ElementBase.h

; 353  : 	}

  0000d	5d		 pop	 ebp
  0000e	c2 04 00	 ret	 4
?IsExactTypeOf@i3ElementBase@@QAE_NPAVi3ClassMeta@@@Z ENDP ; i3ElementBase::IsExactTypeOf
_TEXT	ENDS
; Function compile flags: /Ogtp
; File E:\Proyectos\JuegosOnlineproyectos\PB\pbblow\Piercing Blow Remake\i3Server\include\i3Base\i3ElementBase.h
;	COMDAT ?__GetMemoryPool@i3ElementBase@@QAEPAVi3MemoryPool@@XZ
_TEXT	SEGMENT
?__GetMemoryPool@i3ElementBase@@QAEPAVi3MemoryPool@@XZ PROC ; i3ElementBase::__GetMemoryPool, COMDAT
; _this$ = ecx

; 348  : 	i3MemoryPool *	__GetMemoryPool(void)							{ return m_pPool; }

  00000	8b 41 0c	 mov	 eax, DWORD PTR [ecx+12]
  00003	c3		 ret	 0
?__GetMemoryPool@i3ElementBase@@QAEPAVi3MemoryPool@@XZ ENDP ; i3ElementBase::__GetMemoryPool
_TEXT	ENDS
; Function compile flags: /Ogtp
; File E:\Proyectos\JuegosOnlineproyectos\PB\pbblow\Piercing Blow Remake\i3Server\include\i3Base\i3ElementBase.h
;	COMDAT ?__SetMemoryPool@i3ElementBase@@QAEXPAVi3MemoryPool@@@Z
_TEXT	SEGMENT
_pPool$ = 8						; size = 4
?__SetMemoryPool@i3ElementBase@@QAEXPAVi3MemoryPool@@@Z PROC ; i3ElementBase::__SetMemoryPool, COMDAT
; _this$ = ecx

; 347  : 	void			__SetMemoryPool( i3MemoryPool * pPool)			{ m_pPool = pPool; }

  00000	55		 push	 ebp
  00001	8b ec		 mov	 ebp, esp
  00003	8b 45 08	 mov	 eax, DWORD PTR _pPool$[ebp]
  00006	89 41 0c	 mov	 DWORD PTR [ecx+12], eax
  00009	5d		 pop	 ebp
  0000a	c2 04 00	 ret	 4
?__SetMemoryPool@i3ElementBase@@QAEXPAVi3MemoryPool@@@Z ENDP ; i3ElementBase::__SetMemoryPool
_TEXT	ENDS
; Function compile flags: /Ogtp
; File E:\Proyectos\JuegosOnlineproyectos\PB\pbblow\Piercing Blow Remake\i3Server\include\i3Base\i3ElementBase.h
;	COMDAT ?GetRefCount@i3ElementBase@@QAEHXZ
_TEXT	SEGMENT
?GetRefCount@i3ElementBase@@QAEHXZ PROC			; i3ElementBase::GetRefCount, COMDAT
; _this$ = ecx

; 344  : 		return m_RefCount;

  00000	8b 41 04	 mov	 eax, DWORD PTR [ecx+4]

; 345  : 	}

  00003	c3		 ret	 0
?GetRefCount@i3ElementBase@@QAEHXZ ENDP			; i3ElementBase::GetRefCount
_TEXT	ENDS
; Function compile flags: /Ogtp
; File E:\Proyectos\JuegosOnlineproyectos\PB\pbblow\Piercing Blow Remake\i3Server\include\i3Base\i3ElementBase.h
;	COMDAT ?GetClassMeta@i3ElementBase@@SAPAVi3ClassMeta@@XZ
_TEXT	SEGMENT
?GetClassMeta@i3ElementBase@@SAPAVi3ClassMeta@@XZ PROC	; i3ElementBase::GetClassMeta, COMDAT

; 314  : 	I3_ABSTRACT_CLASS_DEFINE( i3ElementBase);

  00000	a1 00 00 00 00	 mov	 eax, DWORD PTR ?s_pClassMetai3ElementBase@i3ElementBase@@2PAVi3ClassMeta@@A ; i3ElementBase::s_pClassMetai3ElementBase
  00005	c3		 ret	 0
?GetClassMeta@i3ElementBase@@SAPAVi3ClassMeta@@XZ ENDP	; i3ElementBase::GetClassMeta
_TEXT	ENDS
; Function compile flags: /Ogtp
;	COMDAT ??_Ei3ClassMeta@@UAEPAXI@Z
_TEXT	SEGMENT
__$EHRec$ = -12						; size = 12
___flags$ = 8						; size = 4
??_Ei3ClassMeta@@UAEPAXI@Z PROC				; i3ClassMeta::`vector deleting destructor', COMDAT
; _this$ = ecx
  00000	55		 push	 ebp
  00001	8b ec		 mov	 ebp, esp
  00003	6a ff		 push	 -1
  00005	68 00 00 00 00	 push	 __ehhandler$??_Ei3ClassMeta@@UAEPAXI@Z
  0000a	64 a1 00 00 00
	00		 mov	 eax, DWORD PTR fs:0
  00010	50		 push	 eax
  00011	53		 push	 ebx
  00012	56		 push	 esi
  00013	57		 push	 edi
  00014	a1 00 00 00 00	 mov	 eax, DWORD PTR ___security_cookie
  00019	33 c5		 xor	 eax, ebp
  0001b	50		 push	 eax
  0001c	8d 45 f4	 lea	 eax, DWORD PTR __$EHRec$[ebp]
  0001f	64 a3 00 00 00
	00		 mov	 DWORD PTR fs:0, eax
  00025	8b f1		 mov	 esi, ecx
  00027	8b 45 08	 mov	 eax, DWORD PTR ___flags$[ebp]
  0002a	8b f8		 mov	 edi, eax
  0002c	83 e7 01	 and	 edi, 1
  0002f	a8 02		 test	 al, 2
  00031	74 49		 je	 SHORT $LN2@vector
  00033	68 00 00 00 00	 push	 OFFSET ??1i3ClassMeta@@UAE@XZ ; i3ClassMeta::~i3ClassMeta
  00038	ff 76 fc	 push	 DWORD PTR [esi-4]
  0003b	8d 5e fc	 lea	 ebx, DWORD PTR [esi-4]
  0003e	6a 38		 push	 56			; 00000038H
  00040	56		 push	 esi
  00041	e8 00 00 00 00	 call	 ??_M@YGXPAXIIP6EX0@Z@Z
  00046	85 ff		 test	 edi, edi
  00048	74 1c		 je	 SHORT $LN3@vector
  0004a	8b 0b		 mov	 ecx, DWORD PTR [ebx]
  0004c	8d 14 cd 00 00
	00 00		 lea	 edx, DWORD PTR [ecx*8]
  00053	2b d1		 sub	 edx, ecx
  00055	8d 0c d5 04 00
	00 00		 lea	 ecx, DWORD PTR [edx*8+4]
  0005c	51		 push	 ecx
  0005d	53		 push	 ebx
  0005e	e8 00 00 00 00	 call	 ??_V@YAXPAXI@Z		; operator delete[]
  00063	83 c4 08	 add	 esp, 8
$LN3@vector:
  00066	8b c3		 mov	 eax, ebx
  00068	8b 4d f4	 mov	 ecx, DWORD PTR __$EHRec$[ebp]
  0006b	64 89 0d 00 00
	00 00		 mov	 DWORD PTR fs:0, ecx
  00072	59		 pop	 ecx
  00073	5f		 pop	 edi
  00074	5e		 pop	 esi
  00075	5b		 pop	 ebx
  00076	8b e5		 mov	 esp, ebp
  00078	5d		 pop	 ebp
  00079	c2 04 00	 ret	 4
$LN2@vector:
  0007c	e8 00 00 00 00	 call	 ??1i3ClassMeta@@UAE@XZ	; i3ClassMeta::~i3ClassMeta
  00081	85 ff		 test	 edi, edi
  00083	74 0b		 je	 SHORT $LN4@vector
  00085	6a 38		 push	 56			; 00000038H
  00087	56		 push	 esi
  00088	e8 00 00 00 00	 call	 ??3@YAXPAXI@Z		; operator delete
  0008d	83 c4 08	 add	 esp, 8
$LN4@vector:
  00090	8b c6		 mov	 eax, esi
  00092	8b 4d f4	 mov	 ecx, DWORD PTR __$EHRec$[ebp]
  00095	64 89 0d 00 00
	00 00		 mov	 DWORD PTR fs:0, ecx
  0009c	59		 pop	 ecx
  0009d	5f		 pop	 edi
  0009e	5e		 pop	 esi
  0009f	5b		 pop	 ebx
  000a0	8b e5		 mov	 esp, ebp
  000a2	5d		 pop	 ebp
  000a3	c2 04 00	 ret	 4
  000a6	cc		 int	 3
  000a7	cc		 int	 3
  000a8	cc		 int	 3
  000a9	cc		 int	 3
  000aa	cc		 int	 3
_TEXT	ENDS
;	COMDAT text$x
text$x	SEGMENT
__ehhandler$??_Ei3ClassMeta@@UAEPAXI@Z:
  00000	90		 npad	 1
  00001	90		 npad	 1
  00002	8b 54 24 08	 mov	 edx, DWORD PTR [esp+8]
  00006	8d 42 0c	 lea	 eax, DWORD PTR [edx+12]
  00009	8b 4a f0	 mov	 ecx, DWORD PTR [edx-16]
  0000c	33 c8		 xor	 ecx, eax
  0000e	e8 00 00 00 00	 call	 @__security_check_cookie@4
  00013	b8 00 00 00 00	 mov	 eax, OFFSET __ehfuncinfo$??_Ei3ClassMeta@@UAEPAXI@Z
  00018	e9 00 00 00 00	 jmp	 ___CxxFrameHandler3
text$x	ENDS
??_Ei3ClassMeta@@UAEPAXI@Z ENDP				; i3ClassMeta::`vector deleting destructor'
; Function compile flags: /Ogtp
;	COMDAT ??_Gi3ClassMeta@@UAEPAXI@Z
_TEXT	SEGMENT
___flags$ = 8						; size = 4
??_Gi3ClassMeta@@UAEPAXI@Z PROC				; i3ClassMeta::`scalar deleting destructor', COMDAT
; _this$ = ecx
  00000	55		 push	 ebp
  00001	8b ec		 mov	 ebp, esp
  00003	56		 push	 esi
  00004	8b f1		 mov	 esi, ecx
  00006	e8 00 00 00 00	 call	 ??1i3ClassMeta@@UAE@XZ	; i3ClassMeta::~i3ClassMeta
  0000b	f6 45 08 01	 test	 BYTE PTR ___flags$[ebp], 1
  0000f	74 0b		 je	 SHORT $LN5@scalar
  00011	6a 38		 push	 56			; 00000038H
  00013	56		 push	 esi
  00014	e8 00 00 00 00	 call	 ??3@YAXPAXI@Z		; operator delete
  00019	83 c4 08	 add	 esp, 8
$LN5@scalar:
  0001c	8b c6		 mov	 eax, esi
  0001e	5e		 pop	 esi
  0001f	5d		 pop	 ebp
  00020	c2 04 00	 ret	 4
??_Gi3ClassMeta@@UAEPAXI@Z ENDP				; i3ClassMeta::`scalar deleting destructor'
_TEXT	ENDS
; Function compile flags: /Ogtp
;	COMDAT ??4i3ClassMeta@@QAEAAV0@ABV0@@Z
_TEXT	SEGMENT
___that$ = 8						; size = 4
??4i3ClassMeta@@QAEAAV0@ABV0@@Z PROC			; i3ClassMeta::operator=, COMDAT
; _this$ = ecx
  00000	55		 push	 ebp
  00001	8b ec		 mov	 ebp, esp
  00003	8b 55 08	 mov	 edx, DWORD PTR ___that$[ebp]
  00006	8b 42 04	 mov	 eax, DWORD PTR [edx+4]
  00009	89 41 04	 mov	 DWORD PTR [ecx+4], eax
  0000c	8b 42 08	 mov	 eax, DWORD PTR [edx+8]
  0000f	89 41 08	 mov	 DWORD PTR [ecx+8], eax
  00012	8b 42 0c	 mov	 eax, DWORD PTR [edx+12]
  00015	89 41 0c	 mov	 DWORD PTR [ecx+12], eax
  00018	8b 42 10	 mov	 eax, DWORD PTR [edx+16]
  0001b	89 41 10	 mov	 DWORD PTR [ecx+16], eax
  0001e	8b 42 14	 mov	 eax, DWORD PTR [edx+20]
  00021	89 41 14	 mov	 DWORD PTR [ecx+20], eax
  00024	8b 42 18	 mov	 eax, DWORD PTR [edx+24]
  00027	89 41 18	 mov	 DWORD PTR [ecx+24], eax
  0002a	8b 42 1c	 mov	 eax, DWORD PTR [edx+28]
  0002d	89 41 1c	 mov	 DWORD PTR [ecx+28], eax
  00030	8b 42 20	 mov	 eax, DWORD PTR [edx+32]
  00033	89 41 20	 mov	 DWORD PTR [ecx+32], eax
  00036	8b 42 24	 mov	 eax, DWORD PTR [edx+36]
  00039	89 41 24	 mov	 DWORD PTR [ecx+36], eax
  0003c	8b 42 28	 mov	 eax, DWORD PTR [edx+40]
  0003f	89 41 28	 mov	 DWORD PTR [ecx+40], eax
  00042	8b 42 2c	 mov	 eax, DWORD PTR [edx+44]
  00045	89 41 2c	 mov	 DWORD PTR [ecx+44], eax
  00048	8b 42 30	 mov	 eax, DWORD PTR [edx+48]
  0004b	89 41 30	 mov	 DWORD PTR [ecx+48], eax
  0004e	8b 42 34	 mov	 eax, DWORD PTR [edx+52]
  00051	89 41 34	 mov	 DWORD PTR [ecx+52], eax
  00054	8b c1		 mov	 eax, ecx
  00056	5d		 pop	 ebp
  00057	c2 04 00	 ret	 4
??4i3ClassMeta@@QAEAAV0@ABV0@@Z ENDP			; i3ClassMeta::operator=
_TEXT	ENDS
; Function compile flags: /Ogtp
;	COMDAT ??0i3ClassMeta@@QAE@ABV0@@Z
_TEXT	SEGMENT
___that$ = 8						; size = 4
??0i3ClassMeta@@QAE@ABV0@@Z PROC			; i3ClassMeta::i3ClassMeta, COMDAT
; _this$ = ecx
  00000	55		 push	 ebp
  00001	8b ec		 mov	 ebp, esp
  00003	8b 55 08	 mov	 edx, DWORD PTR ___that$[ebp]
  00006	c7 01 00 00 00
	00		 mov	 DWORD PTR [ecx], OFFSET ??_7i3ClassMeta@@6B@
  0000c	8b 42 04	 mov	 eax, DWORD PTR [edx+4]
  0000f	89 41 04	 mov	 DWORD PTR [ecx+4], eax
  00012	8b 42 08	 mov	 eax, DWORD PTR [edx+8]
  00015	89 41 08	 mov	 DWORD PTR [ecx+8], eax
  00018	8b 42 0c	 mov	 eax, DWORD PTR [edx+12]
  0001b	89 41 0c	 mov	 DWORD PTR [ecx+12], eax
  0001e	8b 42 10	 mov	 eax, DWORD PTR [edx+16]
  00021	89 41 10	 mov	 DWORD PTR [ecx+16], eax
  00024	8b 42 14	 mov	 eax, DWORD PTR [edx+20]
  00027	89 41 14	 mov	 DWORD PTR [ecx+20], eax
  0002a	8b 42 18	 mov	 eax, DWORD PTR [edx+24]
  0002d	89 41 18	 mov	 DWORD PTR [ecx+24], eax
  00030	8b 42 1c	 mov	 eax, DWORD PTR [edx+28]
  00033	89 41 1c	 mov	 DWORD PTR [ecx+28], eax
  00036	8b 42 20	 mov	 eax, DWORD PTR [edx+32]
  00039	89 41 20	 mov	 DWORD PTR [ecx+32], eax
  0003c	8b 42 24	 mov	 eax, DWORD PTR [edx+36]
  0003f	89 41 24	 mov	 DWORD PTR [ecx+36], eax
  00042	8b 42 28	 mov	 eax, DWORD PTR [edx+40]
  00045	89 41 28	 mov	 DWORD PTR [ecx+40], eax
  00048	8b 42 2c	 mov	 eax, DWORD PTR [edx+44]
  0004b	89 41 2c	 mov	 DWORD PTR [ecx+44], eax
  0004e	8b 42 30	 mov	 eax, DWORD PTR [edx+48]
  00051	89 41 30	 mov	 DWORD PTR [ecx+48], eax
  00054	8b 42 34	 mov	 eax, DWORD PTR [edx+52]
  00057	89 41 34	 mov	 DWORD PTR [ecx+52], eax
  0005a	8b c1		 mov	 eax, ecx
  0005c	5d		 pop	 ebp
  0005d	c2 04 00	 ret	 4
??0i3ClassMeta@@QAE@ABV0@@Z ENDP			; i3ClassMeta::i3ClassMeta
_TEXT	ENDS
; Function compile flags: /Ogtp
; File E:\Proyectos\JuegosOnlineproyectos\PB\pbblow\Piercing Blow Remake\i3Server\include\i3Base\i3ClassMeta.h
;	COMDAT ?getHashCode@i3ClassMeta@@QAEIXZ
_TEXT	SEGMENT
?getHashCode@i3ClassMeta@@QAEIXZ PROC			; i3ClassMeta::getHashCode, COMDAT
; _this$ = ecx

; 112  : 	UINT32			getHashCode(void)						{ return m_HashCode; }

  00000	8b 41 18	 mov	 eax, DWORD PTR [ecx+24]
  00003	c3		 ret	 0
?getHashCode@i3ClassMeta@@QAEIXZ ENDP			; i3ClassMeta::getHashCode
_TEXT	ENDS
; Function compile flags: /Ogtp
; File E:\Proyectos\JuegosOnlineproyectos\PB\pbblow\Piercing Blow Remake\i3Server\include\i3Base\i3ClassMeta.h
;	COMDAT ?GetBaseClassMeta@i3ClassMeta@@QAEPAV1@XZ
_TEXT	SEGMENT
?GetBaseClassMeta@i3ClassMeta@@QAEPAV1@XZ PROC		; i3ClassMeta::GetBaseClassMeta, COMDAT
; _this$ = ecx

; 107  : 	i3ClassMeta *	GetBaseClassMeta(void)					{ return m_pBaseClass; }

  00000	8b 41 1c	 mov	 eax, DWORD PTR [ecx+28]
  00003	c3		 ret	 0
?GetBaseClassMeta@i3ClassMeta@@QAEPAV1@XZ ENDP		; i3ClassMeta::GetBaseClassMeta
_TEXT	ENDS
; Function compile flags: /Ogtp
; File E:\Proyectos\JuegosOnlineproyectos\PB\pbblow\Piercing Blow Remake\i3Server\include\i3Base\i3ClassMeta.h
;	COMDAT ?IsConcreteClass@i3ClassMeta@@QAEHXZ
_TEXT	SEGMENT
?IsConcreteClass@i3ClassMeta@@QAEHXZ PROC		; i3ClassMeta::IsConcreteClass, COMDAT
; _this$ = ecx

; 102  : 	BOOL			IsStyle( UINT32 style)					{ return (m_Style & style) == style; }

  00000	8b 41 14	 mov	 eax, DWORD PTR [ecx+20]
  00003	d1 e8		 shr	 eax, 1
  00005	83 e0 01	 and	 eax, 1

; 105  : 	BOOL			IsConcreteClass(void)					{ return IsStyle( I3_CLASSMETA_STYLE_CONCRETE); }

  00008	c3		 ret	 0
?IsConcreteClass@i3ClassMeta@@QAEHXZ ENDP		; i3ClassMeta::IsConcreteClass
_TEXT	ENDS
; Function compile flags: /Ogtp
; File E:\Proyectos\JuegosOnlineproyectos\PB\pbblow\Piercing Blow Remake\i3Server\include\i3Base\i3ClassMeta.h
;	COMDAT ?IsAbstractClass@i3ClassMeta@@QAEHXZ
_TEXT	SEGMENT
?IsAbstractClass@i3ClassMeta@@QAEHXZ PROC		; i3ClassMeta::IsAbstractClass, COMDAT
; _this$ = ecx

; 102  : 	BOOL			IsStyle( UINT32 style)					{ return (m_Style & style) == style; }

  00000	8b 41 14	 mov	 eax, DWORD PTR [ecx+20]
  00003	83 e0 01	 and	 eax, 1

; 104  : 	BOOL			IsAbstractClass(void)					{ return IsStyle( I3_CLASSMETA_STYLE_ABSTRACT); }

  00006	c3		 ret	 0
?IsAbstractClass@i3ClassMeta@@QAEHXZ ENDP		; i3ClassMeta::IsAbstractClass
_TEXT	ENDS
; Function compile flags: /Ogtp
; File E:\Proyectos\JuegosOnlineproyectos\PB\pbblow\Piercing Blow Remake\i3Server\include\i3Base\i3ClassMeta.h
;	COMDAT ?IsStyle@i3ClassMeta@@QAEHI@Z
_TEXT	SEGMENT
_style$ = 8						; size = 4
?IsStyle@i3ClassMeta@@QAEHI@Z PROC			; i3ClassMeta::IsStyle, COMDAT
; _this$ = ecx

; 102  : 	BOOL			IsStyle( UINT32 style)					{ return (m_Style & style) == style; }

  00000	55		 push	 ebp
  00001	8b ec		 mov	 ebp, esp
  00003	8b 51 14	 mov	 edx, DWORD PTR [ecx+20]
  00006	33 c0		 xor	 eax, eax
  00008	23 55 08	 and	 edx, DWORD PTR _style$[ebp]
  0000b	3b 55 08	 cmp	 edx, DWORD PTR _style$[ebp]
  0000e	0f 94 c0	 sete	 al
  00011	5d		 pop	 ebp
  00012	c2 04 00	 ret	 4
?IsStyle@i3ClassMeta@@QAEHI@Z ENDP			; i3ClassMeta::IsStyle
_TEXT	ENDS
; Function compile flags: /Ogtp
; File E:\Proyectos\JuegosOnlineproyectos\PB\pbblow\Piercing Blow Remake\i3Server\include\i3Base\i3ClassMeta.h
;	COMDAT ?RemoveStyle@i3ClassMeta@@QAEXI@Z
_TEXT	SEGMENT
_style$ = 8						; size = 4
?RemoveStyle@i3ClassMeta@@QAEXI@Z PROC			; i3ClassMeta::RemoveStyle, COMDAT
; _this$ = ecx

; 101  : 	void			RemoveStyle( UINT32 style)				{ m_Style &= ~style; }

  00000	55		 push	 ebp
  00001	8b ec		 mov	 ebp, esp
  00003	8b 45 08	 mov	 eax, DWORD PTR _style$[ebp]
  00006	f7 d0		 not	 eax
  00008	21 41 14	 and	 DWORD PTR [ecx+20], eax
  0000b	5d		 pop	 ebp
  0000c	c2 04 00	 ret	 4
?RemoveStyle@i3ClassMeta@@QAEXI@Z ENDP			; i3ClassMeta::RemoveStyle
_TEXT	ENDS
; Function compile flags: /Ogtp
; File E:\Proyectos\JuegosOnlineproyectos\PB\pbblow\Piercing Blow Remake\i3Server\include\i3Base\i3ClassMeta.h
;	COMDAT ?AddStyle@i3ClassMeta@@QAEXI@Z
_TEXT	SEGMENT
_style$ = 8						; size = 4
?AddStyle@i3ClassMeta@@QAEXI@Z PROC			; i3ClassMeta::AddStyle, COMDAT
; _this$ = ecx

; 100  : 	void			AddStyle( UINT32 style)					{ m_Style |= style; }

  00000	55		 push	 ebp
  00001	8b ec		 mov	 ebp, esp
  00003	8b 45 08	 mov	 eax, DWORD PTR _style$[ebp]
  00006	09 41 14	 or	 DWORD PTR [ecx+20], eax
  00009	5d		 pop	 ebp
  0000a	c2 04 00	 ret	 4
?AddStyle@i3ClassMeta@@QAEXI@Z ENDP			; i3ClassMeta::AddStyle
_TEXT	ENDS
; Function compile flags: /Ogtp
; File E:\Proyectos\JuegosOnlineproyectos\PB\pbblow\Piercing Blow Remake\i3Server\include\i3Base\i3ClassMeta.h
;	COMDAT ?GetStyle@i3ClassMeta@@QAEIXZ
_TEXT	SEGMENT
?GetStyle@i3ClassMeta@@QAEIXZ PROC			; i3ClassMeta::GetStyle, COMDAT
; _this$ = ecx

; 99   : 	UINT32			GetStyle(void)							{ return m_Style; }

  00000	8b 41 14	 mov	 eax, DWORD PTR [ecx+20]
  00003	c3		 ret	 0
?GetStyle@i3ClassMeta@@QAEIXZ ENDP			; i3ClassMeta::GetStyle
_TEXT	ENDS
; Function compile flags: /Ogtp
; File E:\Proyectos\JuegosOnlineproyectos\PB\pbblow\Piercing Blow Remake\i3Server\include\i3Base\i3ClassMeta.h
;	COMDAT ?SetStyle@i3ClassMeta@@QAEXI@Z
_TEXT	SEGMENT
_style$ = 8						; size = 4
?SetStyle@i3ClassMeta@@QAEXI@Z PROC			; i3ClassMeta::SetStyle, COMDAT
; _this$ = ecx

; 98   : 	void			SetStyle( UINT32 style)					{ m_Style = style; }

  00000	55		 push	 ebp
  00001	8b ec		 mov	 ebp, esp
  00003	8b 45 08	 mov	 eax, DWORD PTR _style$[ebp]
  00006	89 41 14	 mov	 DWORD PTR [ecx+20], eax
  00009	5d		 pop	 ebp
  0000a	c2 04 00	 ret	 4
?SetStyle@i3ClassMeta@@QAEXI@Z ENDP			; i3ClassMeta::SetStyle
_TEXT	ENDS
; Function compile flags: /Ogtp
; File E:\Proyectos\JuegosOnlineproyectos\PB\pbblow\Piercing Blow Remake\i3Server\include\i3Base\i3ClassMeta.h
;	COMDAT ?IsExactTypeOf@i3ClassMeta@@QAE_NPAV1@@Z
_TEXT	SEGMENT
_pMeta$ = 8						; size = 4
?IsExactTypeOf@i3ClassMeta@@QAE_NPAV1@@Z PROC		; i3ClassMeta::IsExactTypeOf, COMDAT
; _this$ = ecx

; 89   : 	{

  00000	55		 push	 ebp
  00001	8b ec		 mov	 ebp, esp

; 90   : 		return pMeta == this;

  00003	39 4d 08	 cmp	 DWORD PTR _pMeta$[ebp], ecx
  00006	0f 94 c0	 sete	 al

; 91   : 	}

  00009	5d		 pop	 ebp
  0000a	c2 04 00	 ret	 4
?IsExactTypeOf@i3ClassMeta@@QAE_NPAV1@@Z ENDP		; i3ClassMeta::IsExactTypeOf
_TEXT	ENDS
; Function compile flags: /Ogtp
; File E:\Proyectos\JuegosOnlineproyectos\PB\pbblow\Piercing Blow Remake\i3Server\include\i3Base\i3ClassMeta.h
;	COMDAT ?GetClassNameA@i3ClassMeta@@QAEPADXZ
_TEXT	SEGMENT
?GetClassNameA@i3ClassMeta@@QAEPADXZ PROC		; i3ClassMeta::GetClassNameA, COMDAT
; _this$ = ecx

; 83   : 		return m_pszClassName;

  00000	8b 41 0c	 mov	 eax, DWORD PTR [ecx+12]

; 84   : 	}

  00003	c3		 ret	 0
?GetClassNameA@i3ClassMeta@@QAEPADXZ ENDP		; i3ClassMeta::GetClassNameA
_TEXT	ENDS
; Function compile flags: /Ogtp
; File E:\Proyectos\JuegosOnlineproyectos\PB\pbblow\Piercing Blow Remake\i3Server\include\i3Base\i3ClassMeta.h
;	COMDAT ?GetClassSize@i3ClassMeta@@QAEIXZ
_TEXT	SEGMENT
?GetClassSize@i3ClassMeta@@QAEIXZ PROC			; i3ClassMeta::GetClassSize, COMDAT
; _this$ = ecx

; 78   : 		return m_ClassSize;

  00000	8b 41 08	 mov	 eax, DWORD PTR [ecx+8]

; 79   : 	}

  00003	c3		 ret	 0
?GetClassSize@i3ClassMeta@@QAEIXZ ENDP			; i3ClassMeta::GetClassSize
_TEXT	ENDS
; Function compile flags: /Ogtp
; File E:\Proyectos\JuegosOnlineproyectos\PB\pbblow\Piercing Blow Remake\i3Server\include\i3Base\i3ClassMeta.h
;	COMDAT ?SetMemoryPool@i3ClassMeta@@QAEXPAVi3MemoryPool@@@Z
_TEXT	SEGMENT
_pPool$ = 8						; size = 4
?SetMemoryPool@i3ClassMeta@@QAEXPAVi3MemoryPool@@@Z PROC ; i3ClassMeta::SetMemoryPool, COMDAT
; _this$ = ecx

; 66   : 	void			SetMemoryPool( i3MemoryPool * pPool)		{ m_pPool = pPool; }

  00000	55		 push	 ebp
  00001	8b ec		 mov	 ebp, esp
  00003	8b 45 08	 mov	 eax, DWORD PTR _pPool$[ebp]
  00006	89 41 34	 mov	 DWORD PTR [ecx+52], eax
  00009	5d		 pop	 ebp
  0000a	c2 04 00	 ret	 4
?SetMemoryPool@i3ClassMeta@@QAEXPAVi3MemoryPool@@@Z ENDP ; i3ClassMeta::SetMemoryPool
_TEXT	ENDS
; Function compile flags: /Ogtp
; File E:\Proyectos\JuegosOnlineproyectos\PB\pbblow\Piercing Blow Remake\i3Server\include\i3Base\i3ClassMeta.h
;	COMDAT ?GetMemoryPool@i3ClassMeta@@QAEPAVi3MemoryPool@@XZ
_TEXT	SEGMENT
?GetMemoryPool@i3ClassMeta@@QAEPAVi3MemoryPool@@XZ PROC	; i3ClassMeta::GetMemoryPool, COMDAT
; _this$ = ecx

; 65   : 	i3MemoryPool *	GetMemoryPool(void)							{ return m_pPool; }

  00000	8b 41 34	 mov	 eax, DWORD PTR [ecx+52]
  00003	c3		 ret	 0
?GetMemoryPool@i3ClassMeta@@QAEPAVi3MemoryPool@@XZ ENDP	; i3ClassMeta::GetMemoryPool
_TEXT	ENDS
; Function compile flags: /Ogtp
; File E:\Proyectos\JuegosOnlineproyectos\PB\pbblow\Piercing Blow Remake\i3Server\src\i3Base\Linpack.cpp
;	COMDAT ?__global_array_delete@@YAXPAXI@Z
_TEXT	SEGMENT
_p$ = 8							; size = 4
_sz$ = 12						; size = 4
?__global_array_delete@@YAXPAXI@Z PROC			; __global_array_delete, COMDAT

  00000	e9 00 00 00 00	 jmp	 ??_V@YAXPAXI@Z		; operator delete[]
?__global_array_delete@@YAXPAXI@Z ENDP			; __global_array_delete
_TEXT	ENDS
; Function compile flags: /Ogtp
; File E:\Proyectos\JuegosOnlineproyectos\PB\pbblow\Piercing Blow Remake\i3Server\src\i3Base\Linpack.cpp
;	COMDAT ?__global_array_delete@@YAXPAX@Z
_TEXT	SEGMENT
_p$ = 8							; size = 4
?__global_array_delete@@YAXPAX@Z PROC			; __global_array_delete, COMDAT

  00000	e9 00 00 00 00	 jmp	 ??_V@YAXPAX@Z		; operator delete[]
?__global_array_delete@@YAXPAX@Z ENDP			; __global_array_delete
_TEXT	ENDS
; Function compile flags: /Ogtp
; File E:\Proyectos\JuegosOnlineproyectos\PB\pbblow\Piercing Blow Remake\i3Server\src\i3Base\Linpack.cpp
;	COMDAT ?__global_delete@@YAXPAXI@Z
_TEXT	SEGMENT
_p$ = 8							; size = 4
_sz$ = 12						; size = 4
?__global_delete@@YAXPAXI@Z PROC			; __global_delete, COMDAT

  00000	e9 00 00 00 00	 jmp	 ??3@YAXPAXI@Z		; operator delete
?__global_delete@@YAXPAXI@Z ENDP			; __global_delete
_TEXT	ENDS
; Function compile flags: /Ogtp
; File E:\Proyectos\JuegosOnlineproyectos\PB\pbblow\Piercing Blow Remake\i3Server\src\i3Base\Linpack.cpp
;	COMDAT ?__empty_global_delete@@YAXPAXI@Z
_TEXT	SEGMENT
___formal$ = 8						; size = 4
___formal$ = 12						; size = 4
?__empty_global_delete@@YAXPAXI@Z PROC			; __empty_global_delete, COMDAT

  00000	c2 00 00	 ret	 0
?__empty_global_delete@@YAXPAXI@Z ENDP			; __empty_global_delete
_TEXT	ENDS
; Function compile flags: /Ogtp
; File E:\Proyectos\JuegosOnlineproyectos\PB\pbblow\Piercing Blow Remake\i3Server\src\i3Base\Linpack.cpp
;	COMDAT ?__global_delete@@YAXPAX@Z
_TEXT	SEGMENT
_p$ = 8							; size = 4
?__global_delete@@YAXPAX@Z PROC				; __global_delete, COMDAT

  00000	e9 00 00 00 00	 jmp	 ??3@YAXPAX@Z		; operator delete
?__global_delete@@YAXPAX@Z ENDP				; __global_delete
_TEXT	ENDS
; Function compile flags: /Ogtp
; File E:\Proyectos\JuegosOnlineproyectos\PB\pbblow\Piercing Blow Remake\i3Server\src\i3Base\Linpack.cpp
;	COMDAT ?__empty_global_delete@@YAXPAX@Z
_TEXT	SEGMENT
___formal$ = 8						; size = 4
?__empty_global_delete@@YAXPAX@Z PROC			; __empty_global_delete, COMDAT

  00000	c2 00 00	 ret	 0
?__empty_global_delete@@YAXPAX@Z ENDP			; __empty_global_delete
_TEXT	ENDS
END
