; Listing generated by Microsoft (R) Optimizing Compiler Version 19.50.35727.0 

	TITLE	E:\Proyectos\JuegosOnlineproyectos\PB\pbblow\Piercing Blow Remake\i3Server\Project\I3_DX\i3Server\x86\Release\pool_by_thread.obj
	.686P
	.XMM
	include listing.inc
	.model	flat

INCLUDELIB LIBCMT
INCLUDELIB OLDNAMES

PUBLIC	?value@?$prime_list@I@detail@i3@@2QBIB		; i3::detail::prime_list<unsigned int>::value
PUBLIC	?length@?$prime_list@I@detail@i3@@2HB		; i3::detail::prime_list<unsigned int>::length
PUBLIC	??_R0?AVstatic_large_object_cache@i3@@@8	; i3::static_large_object_cache `RTTI Type Descriptor'
PUBLIC	__Avx2WmemEnabledWeakValue
EXTRN	?g_inst_memory_mgr@detail_inst@i3@@3Vinst_memory_mgr@12@A:BYTE ; i3::detail_inst::g_inst_memory_mgr
EXTRN	??_7type_info@@6B@:QWORD			; type_info::`vftable'
;	COMDAT __Avx2WmemEnabledWeakValue
_BSS	SEGMENT
__Avx2WmemEnabledWeakValue DD 01H DUP (?)
_BSS	ENDS
;	COMDAT ??_R0?AVstatic_large_object_cache@i3@@@8
data$r	SEGMENT
??_R0?AVstatic_large_object_cache@i3@@@8 DD FLAT:??_7type_info@@6B@ ; i3::static_large_object_cache `RTTI Type Descriptor'
	DD	00H
	DB	'.?AVstatic_large_object_cache@i3@@', 00H
data$r	ENDS
;	COMDAT ?length@?$prime_list@I@detail@i3@@2HB
CONST	SEGMENT
?length@?$prime_list@I@detail@i3@@2HB DD 023H		; i3::detail::prime_list<unsigned int>::length
CONST	ENDS
;	COMDAT ?value@?$prime_list@I@detail@i3@@2QBIB
CONST	SEGMENT
?value@?$prime_list@I@detail@i3@@2QBIB DD 05H		; i3::detail::prime_list<unsigned int>::value
	DD	0bH
	DD	011H
	DD	01dH
	DD	025H
	DD	035H
	DD	04fH
	DD	083H
	DD	0101H
	DD	0209H
	DD	0407H
	DD	0607H
	DD	0805H
	DD	0c07H
	DD	01807H
	DD	03001H
	DD	06011H
	DD	0c005H
	DD	01800dH
	DD	030005H
	DD	060019H
	DD	0c0001H
	DD	0180005H
	DD	030000bH
	DD	060000dH
	DD	0c00005H
	DD	01800013H
	DD	03000005H
	DD	06000017H
	DD	0c000013H
	DD	018000005H
	DD	030000059H
	DD	060000005H
	DD	0c0000001H
	DD	0fffffffbH
CONST	ENDS
PUBLIC	??0noncopyable@i3@@IAE@XZ			; i3::noncopyable::noncopyable
PUBLIC	??1noncopyable@i3@@IAE@XZ			; i3::noncopyable::~noncopyable
PUBLIC	?insert_1@?$vector@PAVtls_base@i3@@V?$heap_allocator@PAVtls_base@i3@@@2@@i3@@AAEXPBQAVtls_base@2@ABQAV32@@Z ; i3::vector<i3::tls_base *,i3::heap_allocator<i3::tls_base *> >::insert_1
PUBLIC	?get_curr_tls_thread_id@i3@@YAKXZ		; i3::get_curr_tls_thread_id
PUBLIC	?get_num_tls_thread_id@i3@@YAKXZ		; i3::get_num_tls_thread_id
PUBLIC	?get_num_tls_ptr@i3@@YAIXZ			; i3::get_num_tls_ptr
PUBLIC	?tls_malloc@i3@@YAPAXI@Z			; i3::tls_malloc
PUBLIC	?tls_free@i3@@YAXPAX@Z				; i3::tls_free
PUBLIC	?tls_malloc@i3@@YAPAXKI@Z			; i3::tls_malloc
PUBLIC	?tls_free@i3@@YAXKPAX@Z				; i3::tls_free
PUBLIC	?tls_aligned_malloc@i3@@YAPAXII@Z		; i3::tls_aligned_malloc
PUBLIC	?tls_aligned_free@i3@@YAXPAX@Z			; i3::tls_aligned_free
PUBLIC	?tls_aligned_malloc@i3@@YAPAXKII@Z		; i3::tls_aligned_malloc
PUBLIC	?tls_aligned_free@i3@@YAXKPAX@Z			; i3::tls_aligned_free
PUBLIC	?tls_safe_malloc@i3@@YAPAXI@Z			; i3::tls_safe_malloc
PUBLIC	?tls_safe_free@i3@@YAXPAX@Z			; i3::tls_safe_free
PUBLIC	?tls_safe_malloc@i3@@YAPAXKI@Z			; i3::tls_safe_malloc
PUBLIC	?tls_safe_free@i3@@YAXKPAX@Z			; i3::tls_safe_free
PUBLIC	?tls_safe_aligned_malloc@i3@@YAPAXII@Z		; i3::tls_safe_aligned_malloc
PUBLIC	?tls_safe_aligned_free@i3@@YAXPAX@Z		; i3::tls_safe_aligned_free
PUBLIC	?tls_safe_aligned_malloc@i3@@YAPAXKII@Z		; i3::tls_safe_aligned_malloc
PUBLIC	?tls_safe_aligned_free@i3@@YAXKPAX@Z		; i3::tls_safe_aligned_free
PUBLIC	??1tls_base@i3@@UAE@XZ				; i3::tls_base::~tls_base
PUBLIC	??0tls_base@i3@@IAE@XZ				; i3::tls_base::tls_base
PUBLIC	?get@tls_base@i3@@IBEPAXXZ			; i3::tls_base::get
PUBLIC	?get_by_thread_id@tls_base@i3@@IBEPAXK@Z	; i3::tls_base::get_by_thread_id
PUBLIC	?get_raw@tls_base@i3@@IBEPAXXZ			; i3::tls_base::get_raw
PUBLIC	?get_raw_by_thread_id@tls_base@i3@@IBEPAXK@Z	; i3::tls_base::get_raw_by_thread_id
PUBLIC	?slot_idx@tls_base@i3@@IBEIXZ			; i3::tls_base::slot_idx
PUBLIC	??_Gtls_base@i3@@UAEPAXI@Z			; i3::tls_base::`scalar deleting destructor'
PUBLIC	??_Etls_base@i3@@UAEPAXI@Z			; i3::tls_base::`vector deleting destructor'
PUBLIC	?allocate_from_new_block@pool_base@i3@@IAEPAXKAAPAUmem_block_header@2@II@Z ; i3::pool_base::allocate_from_new_block
PUBLIC	?deallocate_same_thread@pool_base@i3@@IAEXAAPAUmem_block_header@2@PAU32@PAX@Z ; i3::pool_base::deallocate_same_thread
PUBLIC	?expand_memory_size_by_pow2@pool_base@i3@@IAEXI@Z ; i3::pool_base::expand_memory_size_by_pow2
PUBLIC	?get_tls_ptr@?$shared_tls@Vpool_by_thread@i3@@@i3@@QBEAAV?$tls_ptr@Vpool_by_thread@i3@@@2@XZ ; i3::shared_tls<i3::pool_by_thread>::get_tls_ptr
PUBLIC	?get_by_thread_id@?$shared_tls@Vpool_by_thread@i3@@@i3@@QBEPAVpool_by_thread@2@K@Z ; i3::shared_tls<i3::pool_by_thread>::get_by_thread_id
PUBLIC	?get_thread_id@?$shared_tls@Vpool_by_thread@i3@@@i3@@QBEKXZ ; i3::shared_tls<i3::pool_by_thread>::get_thread_id
PUBLIC	?on_create_tls@?$shared_tls@Vpool_by_thread@i3@@@i3@@QAEXXZ ; i3::shared_tls<i3::pool_by_thread>::on_create_tls
PUBLIC	?on_create@?$shared_tls@Vpool_by_thread@i3@@@i3@@AAEXPAV?$tls_ptr@Vpool_by_thread@i3@@@2@K@Z ; i3::shared_tls<i3::pool_by_thread>::on_create
PUBLIC	??4?$shared_tls@Vpool_by_thread@i3@@@i3@@QAEAAV01@ABV01@@Z ; i3::shared_tls<i3::pool_by_thread>::operator=
PUBLIC	??4?$shared_tls@Vpool_by_thread@i3@@@i3@@QAEAAV01@$$QAV01@@Z ; i3::shared_tls<i3::pool_by_thread>::operator=
PUBLIC	??0?$pool_tls_base@Vpool_by_thread@i3@@@i3@@IAE@I@Z ; i3::pool_tls_base<i3::pool_by_thread>::pool_tls_base<i3::pool_by_thread>
PUBLIC	??1?$pool_tls_base@Vpool_by_thread@i3@@@i3@@IAE@XZ ; i3::pool_tls_base<i3::pool_by_thread>::~pool_tls_base<i3::pool_by_thread>
PUBLIC	??0pool_by_thread@i3@@QAE@XZ			; i3::pool_by_thread::pool_by_thread
PUBLIC	??1pool_by_thread@i3@@QAE@XZ			; i3::pool_by_thread::~pool_by_thread
PUBLIC	?allocate@pool_by_thread@i3@@QAEPAXII@Z		; i3::pool_by_thread::allocate
PUBLIC	?deallocate@pool_by_thread@i3@@QAEXPAX@Z	; i3::pool_by_thread::deallocate
PUBLIC	?on_create_tls@pool_by_thread@i3@@QAEXXZ	; i3::pool_by_thread::on_create_tls
PUBLIC	?deallocate_other_thread@pool_by_thread@i3@@AAEXPAUmem_block_header@2@PAX@Z ; i3::pool_by_thread::deallocate_other_thread
PUBLIC	?find@?$hash_table@V?$HashTableNode_Unique@U?$pair@QBVtype_info@@Vshared_inst@detail_inst@i3@@@i3@@V?$heap_allocator@U?$pair@PBVtype_info@@Vshared_inst@detail_inst@i3@@@i3@@@2@@i3@@U?$hash@PBVtype_info@@@2@U?$equal_to@PBVtype_info@@@2@@i3@@QAE?AViterator@?$HashTableValue@V?$HashTableNode_Unique@U?$pair@QBVtype_info@@Vshared_inst@detail_inst@i3@@@i3@@V?$heap_allocator@U?$pair@PBVtype_info@@Vshared_inst@detail_inst@i3@@@i3@@@2@@i3@@@2@ABQBVtype_info@@@Z ; i3::hash_table<i3::HashTableNode_Unique<i3::pair<type_info const * const,i3::detail_inst::shared_inst>,i3::heap_allocator<i3::pair<type_info const *,i3::detail_inst::shared_inst> > >,i3::hash<type_info const *>,i3::equal_to<type_info const *> >::find
PUBLIC	?find_node@?$hash_table@V?$HashTableNode_Unique@U?$pair@QBVtype_info@@Vshared_inst@detail_inst@i3@@@i3@@V?$heap_allocator@U?$pair@PBVtype_info@@Vshared_inst@detail_inst@i3@@@i3@@@2@@i3@@U?$hash@PBVtype_info@@@2@U?$equal_to@PBVtype_info@@@2@@i3@@IBEPAUNode@?$HashTableNode_Unique@U?$pair@QBVtype_info@@Vshared_inst@detail_inst@i3@@@i3@@V?$heap_allocator@U?$pair@PBVtype_info@@Vshared_inst@detail_inst@i3@@@i3@@@2@@2@PAUBucket@42@ABQBVtype_info@@@Z ; i3::hash_table<i3::HashTableNode_Unique<i3::pair<type_info const * const,i3::detail_inst::shared_inst>,i3::heap_allocator<i3::pair<type_info const *,i3::detail_inst::shared_inst> > >,i3::hash<type_info const *>,i3::equal_to<type_info const *> >::find_node
PUBLIC	?rehash_impl@?$hash_table@V?$HashTableNode_Unique@U?$pair@QBVtype_info@@Vshared_inst@detail_inst@i3@@@i3@@V?$heap_allocator@U?$pair@PBVtype_info@@Vshared_inst@detail_inst@i3@@@i3@@@2@@i3@@U?$hash@PBVtype_info@@@2@U?$equal_to@PBVtype_info@@@2@@i3@@AAEXI@Z ; i3::hash_table<i3::HashTableNode_Unique<i3::pair<type_info const * const,i3::detail_inst::shared_inst>,i3::heap_allocator<i3::pair<type_info const *,i3::detail_inst::shared_inst> > >,i3::hash<type_info const *>,i3::equal_to<type_info const *> >::rehash_impl
PUBLIC	?insert@?$hash_table_ext@V?$HashTableNode_Unique@U?$pair@QBVtype_info@@Vshared_inst@detail_inst@i3@@@i3@@V?$heap_allocator@U?$pair@PBVtype_info@@Vshared_inst@detail_inst@i3@@@i3@@@2@@i3@@U?$hash@PBVtype_info@@@2@U?$equal_to@PBVtype_info@@@2@@i3@@QAE?AU?$pair@Viterator@?$HashTableValue@V?$HashTableNode_Unique@U?$pair@QBVtype_info@@Vshared_inst@detail_inst@i3@@@i3@@V?$heap_allocator@U?$pair@PBVtype_info@@Vshared_inst@detail_inst@i3@@@i3@@@2@@i3@@@i3@@_N@2@ABU?$pair@QBVtype_info@@Vshared_inst@detail_inst@i3@@@2@@Z ; i3::hash_table_ext<i3::HashTableNode_Unique<i3::pair<type_info const * const,i3::detail_inst::shared_inst>,i3::heap_allocator<i3::pair<type_info const *,i3::detail_inst::shared_inst> > >,i3::hash<type_info const *>,i3::equal_to<type_info const *> >::insert
PUBLIC	?_create@?$ginst@Vstatic_large_object_cache@i3@@@i3@@CAPAVstatic_large_object_cache@2@XZ ; i3::ginst<i3::static_large_object_cache>::_create
PUBLIC	?_destroy@?$ginst@Vstatic_large_object_cache@i3@@@i3@@CAXXZ ; i3::ginst<i3::static_large_object_cache>::_destroy
PUBLIC	??$create_inst@Vstatic_large_object_cache@i3@@@inst_memory_mgr@detail_inst@i3@@QAEPAVstatic_large_object_cache@2@XZ ; i3::detail_inst::inst_memory_mgr::create_inst<i3::static_large_object_cache>
PUBLIC	??$create@Vstatic_large_object_cache@i3@@@shared_inst@detail_inst@i3@@SA?AV012@XZ ; i3::detail_inst::shared_inst::create<i3::static_large_object_cache>
PUBLIC	??$delete_inst@Vstatic_large_object_cache@i3@@@inst_memory_mgr@detail_inst@i3@@QAEXXZ ; i3::detail_inst::inst_memory_mgr::delete_inst<i3::static_large_object_cache>
PUBLIC	??$release@Vstatic_large_object_cache@i3@@@shared_inst@detail_inst@i3@@QAEXXZ ; i3::detail_inst::shared_inst::release<i3::static_large_object_cache>
PUBLIC	??_7tls_base@i3@@6B@				; i3::tls_base::`vftable'
PUBLIC	?ms_i@?$ginst@Vstatic_large_object_cache@i3@@@i3@@0PAVstatic_large_object_cache@2@A ; i3::ginst<i3::static_large_object_cache>::ms_i
PUBLIC	??_R4tls_base@i3@@6B@				; i3::tls_base::`RTTI Complete Object Locator'
PUBLIC	??_R0?AVtls_base@i3@@@8				; i3::tls_base `RTTI Type Descriptor'
PUBLIC	??_R3tls_base@i3@@8				; i3::tls_base::`RTTI Class Hierarchy Descriptor'
PUBLIC	??_R2tls_base@i3@@8				; i3::tls_base::`RTTI Base Class Array'
PUBLIC	??_R1A@?0A@EA@tls_base@i3@@8			; i3::tls_base::`RTTI Base Class Descriptor at (0,-1,0,64)'
PUBLIC	??_R13?0A@EN@noncopyable@i3@@8			; i3::noncopyable::`RTTI Base Class Descriptor at (4,-1,0,77)'
PUBLIC	??_R0?AVnoncopyable@i3@@@8			; i3::noncopyable `RTTI Type Descriptor'
PUBLIC	??_R3noncopyable@i3@@8				; i3::noncopyable::`RTTI Class Hierarchy Descriptor'
PUBLIC	??_R2noncopyable@i3@@8				; i3::noncopyable::`RTTI Base Class Array'
PUBLIC	??_R1A@?0A@EA@noncopyable@i3@@8			; i3::noncopyable::`RTTI Base Class Descriptor at (0,-1,0,64)'
PUBLIC	__real@41efffffffe00000
PUBLIC	__real@41f0000000000000
EXTRN	??_M@YGXPAXIIP6EX0@Z@Z:PROC			; `eh vector destructor iterator'
EXTRN	__purecall:PROC
EXTRN	??3@YAXPAXI@Z:PROC				; operator delete
EXTRN	??_V@YAXPAXI@Z:PROC				; operator delete[]
EXTRN	_atexit:PROC
EXTRN	___std_terminate:PROC
EXTRN	__invalid_parameter_noinfo:PROC
EXTRN	__errno:PROC
EXTRN	__imp__HeapAlloc@12:PROC
EXTRN	__imp__HeapFree@12:PROC
EXTRN	__imp__GetProcessHeap@0:PROC
EXTRN	__imp__TlsGetValue@4:PROC
EXTRN	??0pool_base@i3@@IAE@I@Z:PROC			; i3::pool_base::pool_base
EXTRN	??1pool_base@i3@@IAE@XZ:PROC			; i3::pool_base::~pool_base
EXTRN	?clean_up@pool_base@i3@@IAEXK@Z:PROC		; i3::pool_base::clean_up
EXTRN	?malloc_raw_memory@pool_base@i3@@IAEXK@Z:PROC	; i3::pool_base::malloc_raw_memory
EXTRN	?get_new_block@pool_base@i3@@AAEPAUmem_block_header@2@KII@Z:PROC ; i3::pool_base::get_new_block
EXTRN	?allocate_from_alloc_ptr@detail@i3@@YAPAXPAUmem_block_header@2@@Z:PROC ; i3::detail::allocate_from_alloc_ptr
EXTRN	?allocate_from_active_blocks@detail@i3@@YAPAXAAPAUmem_block_header@2@@Z:PROC ; i3::detail::allocate_from_active_blocks
EXTRN	?deallocate_same_thread@detail@i3@@YAXAAPAUmem_block_header@2@0PAU32@PAX@Z:PROC ; i3::detail::deallocate_same_thread
EXTRN	?allocate_from_tss_blocks@detail@i3@@YAPAXAAPAUmem_block_header@2@PAUtss_free_block_by_size@2@@Z:PROC ; i3::detail::allocate_from_tss_blocks
EXTRN	?deallocate_other_thread@detail@i3@@YAXPAUtss_free_block_by_size@2@PAUmem_block_header@2@PAX@Z:PROC ; i3::detail::deallocate_other_thread
EXTRN	___std_type_info_compare:PROC
EXTRN	?delayed_atexit@i3@@YAHP6AXXZ@Z:PROC		; i3::delayed_atexit
EXTRN	??0static_large_object_cache@i3@@QAE@XZ:PROC	; i3::static_large_object_cache::static_large_object_cache
EXTRN	??1static_large_object_cache@i3@@QAE@XZ:PROC	; i3::static_large_object_cache::~static_large_object_cache
EXTRN	?allocate@static_large_object_cache@i3@@QAEPAXI@Z:PROC ; i3::static_large_object_cache::allocate
EXTRN	?deallocate@static_large_object_cache@i3@@QAEXPAX@Z:PROC ; i3::static_large_object_cache::deallocate
EXTRN	@__security_check_cookie@4:PROC
EXTRN	___CxxFrameHandler3:PROC
EXTRN	__aullshr:PROC
EXTRN	__ftol2:PROC
EXTRN	_ceil:PROC
EXTRN	_floor:PROC
EXTRN	_memmove:PROC
EXTRN	_memset:PROC
EXTRN	?g_TlsManager@detail_tls@i3@@3Vtls_mgr@12@A:BYTE ; i3::detail_tls::g_TlsManager
EXTRN	___security_cookie:DWORD
EXTRN	__fltused:DWORD
_BSS	SEGMENT
?g_actual_size_table@detail@i3@@3Vconvert_size_idx_to_actual_size_table@12@B DB 0bcH DUP (?) ; i3::detail::g_actual_size_table
_BSS	ENDS
;	COMDAT ?ms_i@?$ginst@Vstatic_large_object_cache@i3@@@i3@@0PAVstatic_large_object_cache@2@A
_BSS	SEGMENT
?ms_i@?$ginst@Vstatic_large_object_cache@i3@@@i3@@0PAVstatic_large_object_cache@2@A DD 01H DUP (?) ; i3::ginst<i3::static_large_object_cache>::ms_i
_BSS	ENDS
CRT$XCL	SEGMENT
?g_actual_size_table$initializer$@detail@i3@@3P6AXXZA DD FLAT:??__Eg_actual_size_table@detail@i3@@YAXXZ ; i3::detail::g_actual_size_table$initializer$
CRT$XCL	ENDS
;	COMDAT __real@41f0000000000000
CONST	SEGMENT
__real@41f0000000000000 DQ 041f0000000000000r	; 4.29497e+09
CONST	ENDS
;	COMDAT __real@41efffffffe00000
CONST	SEGMENT
__real@41efffffffe00000 DQ 041efffffffe00000r	; 4.29497e+09
CONST	ENDS
;	COMDAT ??_R1A@?0A@EA@noncopyable@i3@@8
rdata$r	SEGMENT
??_R1A@?0A@EA@noncopyable@i3@@8 DD FLAT:??_R0?AVnoncopyable@i3@@@8 ; i3::noncopyable::`RTTI Base Class Descriptor at (0,-1,0,64)'
	DD	00H
	DD	00H
	DD	0ffffffffH
	DD	00H
	DD	040H
	DD	FLAT:??_R3noncopyable@i3@@8
rdata$r	ENDS
;	COMDAT ??_R2noncopyable@i3@@8
rdata$r	SEGMENT
??_R2noncopyable@i3@@8 DD FLAT:??_R1A@?0A@EA@noncopyable@i3@@8 ; i3::noncopyable::`RTTI Base Class Array'
rdata$r	ENDS
;	COMDAT ??_R3noncopyable@i3@@8
rdata$r	SEGMENT
??_R3noncopyable@i3@@8 DD 00H				; i3::noncopyable::`RTTI Class Hierarchy Descriptor'
	DD	00H
	DD	01H
	DD	FLAT:??_R2noncopyable@i3@@8
rdata$r	ENDS
;	COMDAT ??_R0?AVnoncopyable@i3@@@8
data$rs	SEGMENT
??_R0?AVnoncopyable@i3@@@8 DD FLAT:??_7type_info@@6B@	; i3::noncopyable `RTTI Type Descriptor'
	DD	00H
	DB	'.?AVnoncopyable@i3@@', 00H
data$rs	ENDS
;	COMDAT ??_R13?0A@EN@noncopyable@i3@@8
rdata$r	SEGMENT
??_R13?0A@EN@noncopyable@i3@@8 DD FLAT:??_R0?AVnoncopyable@i3@@@8 ; i3::noncopyable::`RTTI Base Class Descriptor at (4,-1,0,77)'
	DD	00H
	DD	04H
	DD	0ffffffffH
	DD	00H
	DD	04dH
	DD	FLAT:??_R3noncopyable@i3@@8
rdata$r	ENDS
;	COMDAT ??_R1A@?0A@EA@tls_base@i3@@8
rdata$r	SEGMENT
??_R1A@?0A@EA@tls_base@i3@@8 DD FLAT:??_R0?AVtls_base@i3@@@8 ; i3::tls_base::`RTTI Base Class Descriptor at (0,-1,0,64)'
	DD	01H
	DD	00H
	DD	0ffffffffH
	DD	00H
	DD	040H
	DD	FLAT:??_R3tls_base@i3@@8
rdata$r	ENDS
;	COMDAT ??_R2tls_base@i3@@8
rdata$r	SEGMENT
??_R2tls_base@i3@@8 DD FLAT:??_R1A@?0A@EA@tls_base@i3@@8 ; i3::tls_base::`RTTI Base Class Array'
	DD	FLAT:??_R13?0A@EN@noncopyable@i3@@8
rdata$r	ENDS
;	COMDAT ??_R3tls_base@i3@@8
rdata$r	SEGMENT
??_R3tls_base@i3@@8 DD 00H				; i3::tls_base::`RTTI Class Hierarchy Descriptor'
	DD	00H
	DD	02H
	DD	FLAT:??_R2tls_base@i3@@8
rdata$r	ENDS
;	COMDAT ??_R0?AVtls_base@i3@@@8
data$rs	SEGMENT
??_R0?AVtls_base@i3@@@8 DD FLAT:??_7type_info@@6B@	; i3::tls_base `RTTI Type Descriptor'
	DD	00H
	DB	'.?AVtls_base@i3@@', 00H
data$rs	ENDS
;	COMDAT ??_R4tls_base@i3@@6B@
rdata$r	SEGMENT
??_R4tls_base@i3@@6B@ DD 00H				; i3::tls_base::`RTTI Complete Object Locator'
	DD	00H
	DD	00H
	DD	FLAT:??_R0?AVtls_base@i3@@@8
	DD	FLAT:??_R3tls_base@i3@@8
rdata$r	ENDS
;	COMDAT ??_7tls_base@i3@@6B@
CONST	SEGMENT
??_7tls_base@i3@@6B@ DD FLAT:??_R4tls_base@i3@@6B@	; i3::tls_base::`vftable'
	DD	FLAT:??_Etls_base@i3@@UAEPAXI@Z
	DD	FLAT:__purecall
CONST	ENDS
;	COMDAT xdata$x
xdata$x	SEGMENT
__unwindtable$??1pool_by_thread@i3@@QAE@XZ DD 0ffffffffH
	DD	FLAT:___std_terminate
__ehfuncinfo$??1pool_by_thread@i3@@QAE@XZ DD 019930522H
	DD	01H
	DD	FLAT:__unwindtable$??1pool_by_thread@i3@@QAE@XZ
	DD	2 DUP(00H)
	DD	2 DUP(00H)
	DD	00H
	DD	05H
xdata$x	ENDS
;	COMDAT xdata$x
xdata$x	SEGMENT
__ehfuncinfo$??1?$pool_tls_base@Vpool_by_thread@i3@@@i3@@IAE@XZ DD 019930522H
	DD	00H
	DD	00H
	DD	2 DUP(00H)
	DD	2 DUP(00H)
	DD	00H
	DD	05H
xdata$x	ENDS
;	COMDAT xdata$x
xdata$x	SEGMENT
__ehfuncinfo$??_Etls_base@i3@@UAEPAXI@Z DD 019930522H
	DD	00H
	DD	00H
	DD	2 DUP(00H)
	DD	2 DUP(00H)
	DD	00H
	DD	05H
xdata$x	ENDS
;	COMDAT CRT$XCL
CRT$XCL	SEGMENT
??ms_i$initializer$@?$ginst@Vstatic_large_object_cache@i3@@@i3@@0P6AXXZA@@3P6AXXZA DD FLAT:??__E?ms_i@?$ginst@Vstatic_large_object_cache@i3@@@i3@@0PAVstatic_large_object_cache@2@A@@YAXXZ ; ??ms_i$initializer$@?$ginst@Vstatic_large_object_cache@i3@@@i3@@0P6AXXZA@@3P6AXXZA
CRT$XCL	ENDS
; Function compile flags: /Ogtp
; File E:\Proyectos\JuegosOnlineproyectos\PB\pbblow\Piercing Blow Remake\i3Server\include\i3Base\inst\detail\inst_memory_mgr.inl
; File E:\Proyectos\JuegosOnlineproyectos\PB\pbblow\Piercing Blow Remake\i3Server\include\i3Base\memory\memory_alloc.inl
; File E:\Proyectos\JuegosOnlineproyectos\PB\pbblow\Piercing Blow Remake\i3Server\include\i3Base\inst\detail\inst_memory_mgr.inl
; File E:\Proyectos\JuegosOnlineproyectos\PB\pbblow\Piercing Blow Remake\i3Server\include\i3Base\memory\memory_alloc.inl
; File E:\Proyectos\JuegosOnlineproyectos\PB\pbblow\Piercing Blow Remake\i3Server\include\i3Base\memory\memory_aligned_apply.h
; File E:\Proyectos\JuegosOnlineproyectos\PB\pbblow\Piercing Blow Remake\i3Server\include\i3Base\memory\memory_alloc.inl
; File E:\Proyectos\JuegosOnlineproyectos\PB\pbblow\Piercing Blow Remake\i3Server\include\i3Base\inst\detail\inst_memory_mgr.inl
;	COMDAT ??$release@Vstatic_large_object_cache@i3@@@shared_inst@detail_inst@i3@@QAEXXZ
_TEXT	SEGMENT
tv131 = -4						; size = 4
??$release@Vstatic_large_object_cache@i3@@@shared_inst@detail_inst@i3@@QAEXXZ PROC ; i3::detail_inst::shared_inst::release<i3::static_large_object_cache>, COMDAT
; _this$ = ecx

; 21   : 		{

  00000	55		 push	 ebp
  00001	8b ec		 mov	 ebp, esp
  00003	51		 push	 ecx
  00004	56		 push	 esi
  00005	8b f1		 mov	 esi, ecx

; 22   : 			if ( --m_ref_count == 0)

  00007	83 46 04 ff	 add	 DWORD PTR [esi+4], -1
  0000b	75 28		 jne	 SHORT $LN2@release
  0000d	8b 0e		 mov	 ecx, DWORD PTR [esi]
  0000f	e8 00 00 00 00	 call	 ??1static_large_object_cache@i3@@QAE@XZ ; i3::static_large_object_cache::~static_large_object_cache
; File E:\Proyectos\JuegosOnlineproyectos\PB\pbblow\Piercing Blow Remake\i3Server\include\i3Base\memory\memory_alloc.inl

; 61   : 		return heap_handle(::GetProcessHeap());

  00014	ff 15 00 00 00
	00		 call	 DWORD PTR __imp__GetProcessHeap@0
; File E:\Proyectos\JuegosOnlineproyectos\PB\pbblow\Piercing Blow Remake\i3Server\include\i3Base\inst\detail\inst_memory_mgr.inl

; 26   : 				i3::heap_aligned_free(i3::get_process_heap(), m_data);

  0001a	8b 0e		 mov	 ecx, DWORD PTR [esi]
; File E:\Proyectos\JuegosOnlineproyectos\PB\pbblow\Piercing Blow Remake\i3Server\include\i3Base\memory\memory_alloc.inl

; 108  : 		if (!data) return;

  0001c	85 c9		 test	 ecx, ecx
  0001e	74 0f		 je	 SHORT $LN10@release
; File E:\Proyectos\JuegosOnlineproyectos\PB\pbblow\Piercing Blow Remake\i3Server\include\i3Base\memory\memory_aligned_apply.h

; 33   : 		ptr = ( ptr & ~( sizeof(void*) -1 ) ) - sizeof(void*);

  00020	83 e1 fc	 and	 ecx, -4			; fffffffcH
; File E:\Proyectos\JuegosOnlineproyectos\PB\pbblow\Piercing Blow Remake\i3Server\include\i3Base\memory\memory_alloc.inl

; 109  : 		::HeapFree(HANDLE(h), 0, get_raw_data_from_aligned_malloc(data) );

  00023	ff 71 fc	 push	 DWORD PTR [ecx-4]
  00026	6a 00		 push	 0
  00028	50		 push	 eax
  00029	ff 15 00 00 00
	00		 call	 DWORD PTR __imp__HeapFree@12
$LN10@release:
; File E:\Proyectos\JuegosOnlineproyectos\PB\pbblow\Piercing Blow Remake\i3Server\include\i3Base\inst\detail\inst_memory_mgr.inl

; 27   : 				m_data = 0;

  0002f	c7 06 00 00 00
	00		 mov	 DWORD PTR [esi], 0
$LN2@release:
  00035	5e		 pop	 esi

; 28   : 			}
; 29   : 		}

  00036	8b e5		 mov	 esp, ebp
  00038	5d		 pop	 ebp
  00039	c3		 ret	 0
??$release@Vstatic_large_object_cache@i3@@@shared_inst@detail_inst@i3@@QAEXXZ ENDP ; i3::detail_inst::shared_inst::release<i3::static_large_object_cache>
_TEXT	ENDS
; Function compile flags: /Ogtp
; File E:\Proyectos\JuegosOnlineproyectos\PB\pbblow\Piercing Blow Remake\i3Server\include\i3Base\inst\detail\inst_memory_mgr.inl
; File E:\Proyectos\JuegosOnlineproyectos\PB\pbblow\Piercing Blow Remake\i3Server\include\i3Base\itl\detail\hash_table.h
; File E:\Proyectos\JuegosOnlineproyectos\PB\pbblow\Piercing Blow Remake\i3Server\include\i3Base\inst\detail\inst_memory_mgr.inl
; File E:\Proyectos\JuegosOnlineproyectos\PB\pbblow\Piercing Blow Remake\i3Server\include\i3Base\memory\memory_alloc.inl
; File E:\Proyectos\JuegosOnlineproyectos\PB\pbblow\Piercing Blow Remake\i3Server\include\i3Base\inst\detail\inst_memory_mgr.inl
; File E:\Proyectos\JuegosOnlineproyectos\PB\pbblow\Piercing Blow Remake\i3Server\include\i3Base\memory\memory_alloc.inl
; File E:\Proyectos\JuegosOnlineproyectos\PB\pbblow\Piercing Blow Remake\i3Server\include\i3Base\memory\memory_aligned_apply.h
; File E:\Proyectos\JuegosOnlineproyectos\PB\pbblow\Piercing Blow Remake\i3Server\include\i3Base\memory\memory_alloc.inl
; File E:\Proyectos\JuegosOnlineproyectos\PB\pbblow\Piercing Blow Remake\i3Server\include\i3Base\inst\detail\inst_memory_mgr.inl
; File E:\Proyectos\JuegosOnlineproyectos\PB\pbblow\Piercing Blow Remake\i3Server\include\i3Base\itl\detail\hash_table.h
; File E:\Proyectos\JuegosOnlineproyectos\PB\pbblow\Piercing Blow Remake\i3Server\include\i3Base\memory\memory_alloc.inl
; File E:\Proyectos\JuegosOnlineproyectos\PB\pbblow\Piercing Blow Remake\i3Server\include\i3Base\memory\memory_aligned_apply.h
; File E:\Proyectos\JuegosOnlineproyectos\PB\pbblow\Piercing Blow Remake\i3Server\include\i3Base\memory\memory_alloc.inl
; File E:\Proyectos\JuegosOnlineproyectos\PB\pbblow\Piercing Blow Remake\i3Server\include\i3Base\itl\detail\hash_table.h
; File E:\Proyectos\JuegosOnlineproyectos\PB\pbblow\Piercing Blow Remake\i3Server\include\i3Base\inst\detail\inst_memory_mgr.inl
;	COMDAT ??$delete_inst@Vstatic_large_object_cache@i3@@@inst_memory_mgr@detail_inst@i3@@QAEXXZ
_TEXT	SEGMENT
_iter$ = -16						; size = 8
_typeinfo$ = -4						; size = 4
tv335 = -4						; size = 4
??$delete_inst@Vstatic_large_object_cache@i3@@@inst_memory_mgr@detail_inst@i3@@QAEXXZ PROC ; i3::detail_inst::inst_memory_mgr::delete_inst<i3::static_large_object_cache>, COMDAT
; _this$ = ecx

; 73   : 		{

  00000	55		 push	 ebp
  00001	8b ec		 mov	 ebp, esp
  00003	83 ec 10	 sub	 esp, 16			; 00000010H
  00006	53		 push	 ebx
  00007	56		 push	 esi

; 74   : 			const std::type_info* typeinfo =&typeid(T);
; 75   : 			shared_inst_map::iterator	iter = m_inst_map.find( typeinfo );

  00008	8d 45 fc	 lea	 eax, DWORD PTR _typeinfo$[ebp]
  0000b	c7 45 fc 00 00
	00 00		 mov	 DWORD PTR _typeinfo$[ebp], OFFSET ??_R0?AVstatic_large_object_cache@i3@@@8
  00012	50		 push	 eax
  00013	8d 45 f0	 lea	 eax, DWORD PTR _iter$[ebp]
  00016	8b d9		 mov	 ebx, ecx
  00018	50		 push	 eax
  00019	e8 00 00 00 00	 call	 ?find@?$hash_table@V?$HashTableNode_Unique@U?$pair@QBVtype_info@@Vshared_inst@detail_inst@i3@@@i3@@V?$heap_allocator@U?$pair@PBVtype_info@@Vshared_inst@detail_inst@i3@@@i3@@@2@@i3@@U?$hash@PBVtype_info@@@2@U?$equal_to@PBVtype_info@@@2@@i3@@QAE?AViterator@?$HashTableValue@V?$HashTableNode_Unique@U?$pair@QBVtype_info@@Vshared_inst@detail_inst@i3@@@i3@@V?$heap_allocator@U?$pair@PBVtype_info@@Vshared_inst@detail_inst@i3@@@i3@@@2@@i3@@@2@ABQBVtype_info@@@Z ; i3::hash_table<i3::HashTableNode_Unique<i3::pair<type_info const * const,i3::detail_inst::shared_inst>,i3::heap_allocator<i3::pair<type_info const *,i3::detail_inst::shared_inst> > >,i3::hash<type_info const *>,i3::equal_to<type_info const *> >::find
; File E:\Proyectos\JuegosOnlineproyectos\PB\pbblow\Piercing Blow Remake\i3Server\include\i3Base\itl\detail\hash_table.h

; 550  : 		iterator			end()  { return iterator( buckets() + static_cast<difference_type>(num_bucket()) );	}

  0001e	8b 53 10	 mov	 edx, DWORD PTR [ebx+16]

; 423  : 			bool operator==(const const_iterator& _Right) const {	return (pNode == _Right.pNode);	}// test for iterator equality

  00021	8b 43 04	 mov	 eax, DWORD PTR [ebx+4]
  00024	8b 75 f4	 mov	 esi, DWORD PTR _iter$[ebp+4]
  00027	3b 34 90	 cmp	 esi, DWORD PTR [eax+edx*4]
; File E:\Proyectos\JuegosOnlineproyectos\PB\pbblow\Piercing Blow Remake\i3Server\include\i3Base\inst\detail\inst_memory_mgr.inl

; 76   : 			if ( iter == m_inst_map.end() )

  0002a	0f 84 8b 00 00
	00		 je	 $LN47@delete_ins

; 22   : 			if ( --m_ref_count == 0)

  00030	83 46 08 ff	 add	 DWORD PTR [esi+8], -1
  00034	75 2d		 jne	 SHORT $LN59@delete_ins
  00036	8b 4e 04	 mov	 ecx, DWORD PTR [esi+4]
  00039	e8 00 00 00 00	 call	 ??1static_large_object_cache@i3@@QAE@XZ ; i3::static_large_object_cache::~static_large_object_cache
; File E:\Proyectos\JuegosOnlineproyectos\PB\pbblow\Piercing Blow Remake\i3Server\include\i3Base\memory\memory_alloc.inl

; 61   : 		return heap_handle(::GetProcessHeap());

  0003e	ff 15 00 00 00
	00		 call	 DWORD PTR __imp__GetProcessHeap@0
; File E:\Proyectos\JuegosOnlineproyectos\PB\pbblow\Piercing Blow Remake\i3Server\include\i3Base\inst\detail\inst_memory_mgr.inl

; 26   : 				i3::heap_aligned_free(i3::get_process_heap(), m_data);

  00044	8b 4e 04	 mov	 ecx, DWORD PTR [esi+4]
; File E:\Proyectos\JuegosOnlineproyectos\PB\pbblow\Piercing Blow Remake\i3Server\include\i3Base\memory\memory_alloc.inl

; 108  : 		if (!data) return;

  00047	85 c9		 test	 ecx, ecx
  00049	74 0f		 je	 SHORT $LN22@delete_ins
; File E:\Proyectos\JuegosOnlineproyectos\PB\pbblow\Piercing Blow Remake\i3Server\include\i3Base\memory\memory_aligned_apply.h

; 33   : 		ptr = ( ptr & ~( sizeof(void*) -1 ) ) - sizeof(void*);

  0004b	83 e1 fc	 and	 ecx, -4			; fffffffcH
; File E:\Proyectos\JuegosOnlineproyectos\PB\pbblow\Piercing Blow Remake\i3Server\include\i3Base\memory\memory_alloc.inl

; 109  : 		::HeapFree(HANDLE(h), 0, get_raw_data_from_aligned_malloc(data) );

  0004e	ff 71 fc	 push	 DWORD PTR [ecx-4]
  00051	6a 00		 push	 0
  00053	50		 push	 eax
  00054	ff 15 00 00 00
	00		 call	 DWORD PTR __imp__HeapFree@12
$LN22@delete_ins:
; File E:\Proyectos\JuegosOnlineproyectos\PB\pbblow\Piercing Blow Remake\i3Server\include\i3Base\inst\detail\inst_memory_mgr.inl

; 27   : 				m_data = 0;

  0005a	c7 46 04 00 00
	00 00		 mov	 DWORD PTR [esi+4], 0

; 77   : 				return;
; 78   : 
; 79   : 			shared_inst& inst = iter->second;
; 80   : 			inst.release<T>();
; 81   : 
; 82   : 			if ( inst.get_data<T>() == 0)

  00061	eb 06		 jmp	 SHORT $LN62@delete_ins
$LN59@delete_ins:
  00063	83 7e 04 00	 cmp	 DWORD PTR [esi+4], 0
  00067	75 52		 jne	 SHORT $LN47@delete_ins
$LN62@delete_ins:
; File E:\Proyectos\JuegosOnlineproyectos\PB\pbblow\Piercing Blow Remake\i3Server\include\i3Base\itl\detail\hash_table.h

; 430  : 				pNode = pNode->pNext;

  00069	83 7e 0c 00	 cmp	 DWORD PTR [esi+12], 0

; 644  : 			const_iterator next = pos;

  0006d	8b 55 f0	 mov	 edx, DWORD PTR _iter$[ebp]
  00070	57		 push	 edi
  00071	8b fa		 mov	 edi, edx

; 431  : 				while (!pNode)

  00073	75 08		 jne	 SHORT $LN31@delete_ins
$LL30@delete_ins:

; 432  : 				{
; 433  : 					++pBucket;	

  00075	83 c7 04	 add	 edi, 4

; 434  : 					pNode = pBucket->pHead;

  00078	83 3f 00	 cmp	 DWORD PTR [edi], 0
  0007b	74 f8		 je	 SHORT $LL30@delete_ins
$LN31@delete_ins:

; 155  : 			Node** ppResult = &pBucket->pHead;

  0007d	8b ca		 mov	 ecx, edx

; 156  : 			while ( *ppResult != pNode ) ppResult = &(*ppResult)->pNext;

  0007f	8b 01		 mov	 eax, DWORD PTR [ecx]
  00081	3b c6		 cmp	 eax, esi
  00083	74 09		 je	 SHORT $LN37@delete_ins
$LL36@delete_ins:
  00085	8d 48 0c	 lea	 ecx, DWORD PTR [eax+12]
  00088	8b 01		 mov	 eax, DWORD PTR [ecx]
  0008a	3b c6		 cmp	 eax, esi
  0008c	75 f7		 jne	 SHORT $LL36@delete_ins
$LN37@delete_ins:

; 163  : 			*ppNode = (*ppNode)->pNext;

  0008e	8b 40 0c	 mov	 eax, DWORD PTR [eax+12]
  00091	89 01		 mov	 DWORD PTR [ecx], eax

; 649  : 			--num_size();

  00093	ff 4b 14	 dec	 DWORD PTR [ebx+20]
; File E:\Proyectos\JuegosOnlineproyectos\PB\pbblow\Piercing Blow Remake\i3Server\include\i3Base\memory\memory_alloc.inl

; 108  : 		if (!data) return;

  00096	85 f6		 test	 esi, esi
  00098	74 13		 je	 SHORT $LN41@delete_ins
; File E:\Proyectos\JuegosOnlineproyectos\PB\pbblow\Piercing Blow Remake\i3Server\include\i3Base\memory\memory_aligned_apply.h

; 33   : 		ptr = ( ptr & ~( sizeof(void*) -1 ) ) - sizeof(void*);

  0009a	83 e6 fc	 and	 esi, -4			; fffffffcH
; File E:\Proyectos\JuegosOnlineproyectos\PB\pbblow\Piercing Blow Remake\i3Server\include\i3Base\memory\memory_alloc.inl

; 109  : 		::HeapFree(HANDLE(h), 0, get_raw_data_from_aligned_malloc(data) );

  0009d	ff 76 fc	 push	 DWORD PTR [esi-4]
  000a0	6a 00		 push	 0
  000a2	ff 33		 push	 DWORD PTR [ebx]
  000a4	ff 15 00 00 00
	00		 call	 DWORD PTR __imp__HeapFree@12
  000aa	8b 55 f0	 mov	 edx, DWORD PTR _iter$[ebp]
$LN41@delete_ins:
; File E:\Proyectos\JuegosOnlineproyectos\PB\pbblow\Piercing Blow Remake\i3Server\include\i3Base\itl\detail\hash_table.h

; 1013 : 			if ( pBucket1 == bucket_begin() && pBucket1->pHead == NULL )

  000ad	3b 53 0c	 cmp	 edx, DWORD PTR [ebx+12]
  000b0	75 08		 jne	 SHORT $LN72@delete_ins
  000b2	83 3a 00	 cmp	 DWORD PTR [edx], 0
  000b5	75 03		 jne	 SHORT $LN72@delete_ins

; 1014 : 				bucket_begin() = pBucket2;

  000b7	89 7b 0c	 mov	 DWORD PTR [ebx+12], edi
$LN72@delete_ins:
  000ba	5f		 pop	 edi
$LN47@delete_ins:
  000bb	5e		 pop	 esi
; File E:\Proyectos\JuegosOnlineproyectos\PB\pbblow\Piercing Blow Remake\i3Server\include\i3Base\inst\detail\inst_memory_mgr.inl

; 84   : 		}

  000bc	5b		 pop	 ebx
  000bd	8b e5		 mov	 esp, ebp
  000bf	5d		 pop	 ebp
  000c0	c3		 ret	 0
??$delete_inst@Vstatic_large_object_cache@i3@@@inst_memory_mgr@detail_inst@i3@@QAEXXZ ENDP ; i3::detail_inst::inst_memory_mgr::delete_inst<i3::static_large_object_cache>
_TEXT	ENDS
; Function compile flags: /Ogtp
; File E:\Proyectos\JuegosOnlineproyectos\PB\pbblow\Piercing Blow Remake\i3Server\include\i3Base\inst\detail\inst_memory_mgr.inl
; File E:\Proyectos\JuegosOnlineproyectos\PB\pbblow\Piercing Blow Remake\i3Server\include\i3Base\memory\memory_alloc.inl
; File E:\Proyectos\JuegosOnlineproyectos\PB\pbblow\Piercing Blow Remake\i3Server\include\i3Base\memory\memory_aligned_apply.h
; File E:\Proyectos\JuegosOnlineproyectos\PB\pbblow\Piercing Blow Remake\i3Server\include\i3Base\inst\detail\inst_memory_mgr.inl
; File E:\Proyectos\JuegosOnlineproyectos\PB\pbblow\Piercing Blow Remake\i3Server\include\i3Base\inst\detail\inst_memory_mgr.h
; File E:\Proyectos\JuegosOnlineproyectos\PB\pbblow\Piercing Blow Remake\i3Server\include\i3Base\inst\detail\inst_memory_mgr.inl
; File E:\Proyectos\JuegosOnlineproyectos\PB\pbblow\Piercing Blow Remake\i3Server\include\i3Base\inst\detail\inst_memory_mgr.h
; File E:\Proyectos\JuegosOnlineproyectos\PB\pbblow\Piercing Blow Remake\i3Server\include\i3Base\inst\detail\inst_memory_mgr.inl
;	COMDAT ??$create@Vstatic_large_object_cache@i3@@@shared_inst@detail_inst@i3@@SA?AV012@XZ
_TEXT	SEGMENT
___$ReturnUdt$ = 8					; size = 4
??$create@Vstatic_large_object_cache@i3@@@shared_inst@detail_inst@i3@@SA?AV012@XZ PROC ; i3::detail_inst::shared_inst::create<i3::static_large_object_cache>, COMDAT

; 15   : 		{

  00000	55		 push	 ebp
  00001	8b ec		 mov	 ebp, esp
; File E:\Proyectos\JuegosOnlineproyectos\PB\pbblow\Piercing Blow Remake\i3Server\include\i3Base\memory\memory_alloc.inl

; 61   : 		return heap_handle(::GetProcessHeap());

  00003	ff 15 00 00 00
	00		 call	 DWORD PTR __imp__GetProcessHeap@0

; 101  : 		void* data = ::HeapAlloc(HANDLE(h), 0, calculate_aligned_malloc_size(size, align) );

  00009	68 c4 40 00 00	 push	 16580			; 000040c4H
  0000e	6a 00		 push	 0
  00010	50		 push	 eax
  00011	ff 15 00 00 00
	00		 call	 DWORD PTR __imp__HeapAlloc@12
; File E:\Proyectos\JuegosOnlineproyectos\PB\pbblow\Piercing Blow Remake\i3Server\include\i3Base\memory\memory_aligned_apply.h

; 24   : 		uintptr_t result = ( uintptr_t(raw_data) + sizeof(void*) + adjusted_align - 1 ) & ~(adjusted_align - 1);

  00017	8d 48 43	 lea	 ecx, DWORD PTR [eax+67]
  0001a	83 e1 c0	 and	 ecx, -64		; ffffffc0H

; 25   : 		((uintptr_t*)result)[-1] = (uintptr_t)raw_data;

  0001d	89 41 fc	 mov	 DWORD PTR [ecx-4], eax
; File E:\Proyectos\JuegosOnlineproyectos\PB\pbblow\Piercing Blow Remake\i3Server\include\i3Base\inst\detail\inst_memory_mgr.inl

; 16   : 			return shared_inst(new (i3::heap_aligned_malloc(i3::get_process_heap(), sizeof(T), __alignof(T))) T );

  00020	e8 00 00 00 00	 call	 ??0static_large_object_cache@i3@@QAE@XZ ; i3::static_large_object_cache::static_large_object_cache
; File E:\Proyectos\JuegosOnlineproyectos\PB\pbblow\Piercing Blow Remake\i3Server\include\i3Base\inst\detail\inst_memory_mgr.h

; 20   : 			shared_inst( void* data) : m_data(data), m_ref_count(1) {}	

  00025	8b 4d 08	 mov	 ecx, DWORD PTR ___$ReturnUdt$[ebp]
  00028	89 01		 mov	 DWORD PTR [ecx], eax
; File E:\Proyectos\JuegosOnlineproyectos\PB\pbblow\Piercing Blow Remake\i3Server\include\i3Base\inst\detail\inst_memory_mgr.inl

; 16   : 			return shared_inst(new (i3::heap_aligned_malloc(i3::get_process_heap(), sizeof(T), __alignof(T))) T );

  0002a	8b c1		 mov	 eax, ecx
; File E:\Proyectos\JuegosOnlineproyectos\PB\pbblow\Piercing Blow Remake\i3Server\include\i3Base\inst\detail\inst_memory_mgr.h

; 20   : 			shared_inst( void* data) : m_data(data), m_ref_count(1) {}	

  0002c	c7 41 04 01 00
	00 00		 mov	 DWORD PTR [ecx+4], 1
; File E:\Proyectos\JuegosOnlineproyectos\PB\pbblow\Piercing Blow Remake\i3Server\include\i3Base\inst\detail\inst_memory_mgr.inl

; 17   : 		}

  00033	5d		 pop	 ebp
  00034	c3		 ret	 0
??$create@Vstatic_large_object_cache@i3@@@shared_inst@detail_inst@i3@@SA?AV012@XZ ENDP ; i3::detail_inst::shared_inst::create<i3::static_large_object_cache>
_TEXT	ENDS
; Function compile flags: /Ogtp
; File E:\Proyectos\JuegosOnlineproyectos\PB\pbblow\Piercing Blow Remake\i3Server\include\i3Base\inst\detail\inst_memory_mgr.inl
; File E:\Proyectos\JuegosOnlineproyectos\PB\pbblow\Piercing Blow Remake\i3Server\include\i3Base\itl\detail\hash_table.h
; File E:\Proyectos\JuegosOnlineproyectos\PB\pbblow\Piercing Blow Remake\i3Server\include\i3Base\inst\detail\inst_memory_mgr.inl
; File E:\Proyectos\JuegosOnlineproyectos\PB\pbblow\Piercing Blow Remake\i3Server\include\i3Base\inst\detail\inst_memory_mgr.h
; File E:\Proyectos\JuegosOnlineproyectos\PB\pbblow\Piercing Blow Remake\i3Server\include\i3Base\inst\detail\inst_memory_mgr.inl
; File E:\Proyectos\JuegosOnlineproyectos\PB\pbblow\Piercing Blow Remake\i3Server\include\i3Base\memory\memory_alloc.inl
; File E:\Proyectos\JuegosOnlineproyectos\PB\pbblow\Piercing Blow Remake\i3Server\include\i3Base\itl\pair.h
; File E:\Proyectos\JuegosOnlineproyectos\PB\pbblow\Piercing Blow Remake\i3Server\include\i3Base\memory\memory_aligned_apply.h
; File E:\Proyectos\JuegosOnlineproyectos\PB\pbblow\Piercing Blow Remake\i3Server\include\i3Base\inst\detail\inst_memory_mgr.inl
; File E:\Proyectos\JuegosOnlineproyectos\PB\pbblow\Piercing Blow Remake\i3Server\include\i3Base\inst\detail\inst_memory_mgr.h
; File E:\Proyectos\JuegosOnlineproyectos\PB\pbblow\Piercing Blow Remake\i3Server\include\i3Base\inst\detail\inst_memory_mgr.inl
; File E:\Proyectos\JuegosOnlineproyectos\PB\pbblow\Piercing Blow Remake\i3Server\include\i3Base\inst\detail\inst_memory_mgr.h
; File E:\Proyectos\JuegosOnlineproyectos\PB\pbblow\Piercing Blow Remake\i3Server\include\i3Base\inst\detail\inst_memory_mgr.inl
;	COMDAT ??$create_inst@Vstatic_large_object_cache@i3@@@inst_memory_mgr@detail_inst@i3@@QAEPAVstatic_large_object_cache@2@XZ
_TEXT	SEGMENT
$T1 = -28						; size = 12
$T2 = -16						; size = 12
_iter$ = -12						; size = 8
_typeinfo$ = -4						; size = 4
??$create_inst@Vstatic_large_object_cache@i3@@@inst_memory_mgr@detail_inst@i3@@QAEPAVstatic_large_object_cache@2@XZ PROC ; i3::detail_inst::inst_memory_mgr::create_inst<i3::static_large_object_cache>, COMDAT
; _this$ = ecx

; 33   : 		{

  00000	55		 push	 ebp
  00001	8b ec		 mov	 ebp, esp
  00003	83 ec 1c	 sub	 esp, 28			; 0000001cH
  00006	56		 push	 esi

; 34   : 			const std::type_info* typeinfo =&typeid(T);
; 35   : 			shared_inst_map::iterator	iter = m_inst_map.find( typeinfo );

  00007	8d 45 fc	 lea	 eax, DWORD PTR _typeinfo$[ebp]
  0000a	c7 45 fc 00 00
	00 00		 mov	 DWORD PTR _typeinfo$[ebp], OFFSET ??_R0?AVstatic_large_object_cache@i3@@@8
  00011	50		 push	 eax
  00012	8d 45 f4	 lea	 eax, DWORD PTR _iter$[ebp]
  00015	8b f1		 mov	 esi, ecx
  00017	50		 push	 eax
  00018	e8 00 00 00 00	 call	 ?find@?$hash_table@V?$HashTableNode_Unique@U?$pair@QBVtype_info@@Vshared_inst@detail_inst@i3@@@i3@@V?$heap_allocator@U?$pair@PBVtype_info@@Vshared_inst@detail_inst@i3@@@i3@@@2@@i3@@U?$hash@PBVtype_info@@@2@U?$equal_to@PBVtype_info@@@2@@i3@@QAE?AViterator@?$HashTableValue@V?$HashTableNode_Unique@U?$pair@QBVtype_info@@Vshared_inst@detail_inst@i3@@@i3@@V?$heap_allocator@U?$pair@PBVtype_info@@Vshared_inst@detail_inst@i3@@@i3@@@2@@i3@@@2@ABQBVtype_info@@@Z ; i3::hash_table<i3::HashTableNode_Unique<i3::pair<type_info const * const,i3::detail_inst::shared_inst>,i3::heap_allocator<i3::pair<type_info const *,i3::detail_inst::shared_inst> > >,i3::hash<type_info const *>,i3::equal_to<type_info const *> >::find
; File E:\Proyectos\JuegosOnlineproyectos\PB\pbblow\Piercing Blow Remake\i3Server\include\i3Base\itl\detail\hash_table.h

; 550  : 		iterator			end()  { return iterator( buckets() + static_cast<difference_type>(num_bucket()) );	}

  0001d	8b 56 10	 mov	 edx, DWORD PTR [esi+16]

; 423  : 			bool operator==(const const_iterator& _Right) const {	return (pNode == _Right.pNode);	}// test for iterator equality

  00020	8b 46 04	 mov	 eax, DWORD PTR [esi+4]
  00023	8b 4d f8	 mov	 ecx, DWORD PTR _iter$[ebp+4]
  00026	3b 0c 90	 cmp	 ecx, DWORD PTR [eax+edx*4]
; File E:\Proyectos\JuegosOnlineproyectos\PB\pbblow\Piercing Blow Remake\i3Server\include\i3Base\inst\detail\inst_memory_mgr.inl

; 37   : 			if ( iter != m_inst_map.end() )

  00029	74 0b		 je	 SHORT $LN2@create_ins
; File E:\Proyectos\JuegosOnlineproyectos\PB\pbblow\Piercing Blow Remake\i3Server\include\i3Base\inst\detail\inst_memory_mgr.h

; 33   : 			void			add_ref() { ++m_ref_count;  }

  0002b	ff 41 08	 inc	 DWORD PTR [ecx+8]
; File E:\Proyectos\JuegosOnlineproyectos\PB\pbblow\Piercing Blow Remake\i3Server\include\i3Base\inst\detail\inst_memory_mgr.inl

; 41   : 				return inst.get_data<T>();

  0002e	8b 41 04	 mov	 eax, DWORD PTR [ecx+4]
  00031	5e		 pop	 esi

; 47   : 		}

  00032	8b e5		 mov	 esp, ebp
  00034	5d		 pop	 ebp
  00035	c3		 ret	 0
$LN2@create_ins:
; File E:\Proyectos\JuegosOnlineproyectos\PB\pbblow\Piercing Blow Remake\i3Server\include\i3Base\memory\memory_alloc.inl

; 61   : 		return heap_handle(::GetProcessHeap());

  00036	ff 15 00 00 00
	00		 call	 DWORD PTR __imp__GetProcessHeap@0

; 101  : 		void* data = ::HeapAlloc(HANDLE(h), 0, calculate_aligned_malloc_size(size, align) );

  0003c	68 c4 40 00 00	 push	 16580			; 000040c4H
  00041	6a 00		 push	 0
  00043	50		 push	 eax
  00044	ff 15 00 00 00
	00		 call	 DWORD PTR __imp__HeapAlloc@12
; File E:\Proyectos\JuegosOnlineproyectos\PB\pbblow\Piercing Blow Remake\i3Server\include\i3Base\itl\pair.h

; 19   : 		pair(const T1& _Val1, const T2& _Val2) : first(_Val1), second(_Val2) { }

  0004a	c7 45 f0 00 00
	00 00		 mov	 DWORD PTR $T2[ebp], OFFSET ??_R0?AVstatic_large_object_cache@i3@@@8
; File E:\Proyectos\JuegosOnlineproyectos\PB\pbblow\Piercing Blow Remake\i3Server\include\i3Base\memory\memory_aligned_apply.h

; 24   : 		uintptr_t result = ( uintptr_t(raw_data) + sizeof(void*) + adjusted_align - 1 ) & ~(adjusted_align - 1);

  00051	8d 48 43	 lea	 ecx, DWORD PTR [eax+67]
  00054	83 e1 c0	 and	 ecx, -64		; ffffffc0H

; 25   : 		((uintptr_t*)result)[-1] = (uintptr_t)raw_data;

  00057	89 41 fc	 mov	 DWORD PTR [ecx-4], eax
; File E:\Proyectos\JuegosOnlineproyectos\PB\pbblow\Piercing Blow Remake\i3Server\include\i3Base\inst\detail\inst_memory_mgr.inl

; 16   : 			return shared_inst(new (i3::heap_aligned_malloc(i3::get_process_heap(), sizeof(T), __alignof(T))) T );

  0005a	e8 00 00 00 00	 call	 ??0static_large_object_cache@i3@@QAE@XZ ; i3::static_large_object_cache::static_large_object_cache
; File E:\Proyectos\JuegosOnlineproyectos\PB\pbblow\Piercing Blow Remake\i3Server\include\i3Base\inst\detail\inst_memory_mgr.h

; 21   : 			shared_inst(const shared_inst& rhs) : m_data(rhs.m_data), m_ref_count(1) {}

  0005f	89 45 f4	 mov	 DWORD PTR $T2[ebp+4], eax
; File E:\Proyectos\JuegosOnlineproyectos\PB\pbblow\Piercing Blow Remake\i3Server\include\i3Base\inst\detail\inst_memory_mgr.inl

; 44   : 			iter = m_inst_map.insert( shared_inst_map::value_type( typeinfo, shared_inst::create<T>() ) ).first;

  00062	8b ce		 mov	 ecx, esi
  00064	8d 45 f0	 lea	 eax, DWORD PTR $T2[ebp]
; File E:\Proyectos\JuegosOnlineproyectos\PB\pbblow\Piercing Blow Remake\i3Server\include\i3Base\inst\detail\inst_memory_mgr.h

; 21   : 			shared_inst(const shared_inst& rhs) : m_data(rhs.m_data), m_ref_count(1) {}

  00067	c7 45 f8 01 00
	00 00		 mov	 DWORD PTR $T2[ebp+8], 1
; File E:\Proyectos\JuegosOnlineproyectos\PB\pbblow\Piercing Blow Remake\i3Server\include\i3Base\inst\detail\inst_memory_mgr.inl

; 44   : 			iter = m_inst_map.insert( shared_inst_map::value_type( typeinfo, shared_inst::create<T>() ) ).first;

  0006e	50		 push	 eax
  0006f	8d 45 e4	 lea	 eax, DWORD PTR $T1[ebp]
  00072	50		 push	 eax
  00073	e8 00 00 00 00	 call	 ?insert@?$hash_table_ext@V?$HashTableNode_Unique@U?$pair@QBVtype_info@@Vshared_inst@detail_inst@i3@@@i3@@V?$heap_allocator@U?$pair@PBVtype_info@@Vshared_inst@detail_inst@i3@@@i3@@@2@@i3@@U?$hash@PBVtype_info@@@2@U?$equal_to@PBVtype_info@@@2@@i3@@QAE?AU?$pair@Viterator@?$HashTableValue@V?$HashTableNode_Unique@U?$pair@QBVtype_info@@Vshared_inst@detail_inst@i3@@@i3@@V?$heap_allocator@U?$pair@PBVtype_info@@Vshared_inst@detail_inst@i3@@@i3@@@2@@i3@@@i3@@_N@2@ABU?$pair@QBVtype_info@@Vshared_inst@detail_inst@i3@@@2@@Z ; i3::hash_table_ext<i3::HashTableNode_Unique<i3::pair<type_info const * const,i3::detail_inst::shared_inst>,i3::heap_allocator<i3::pair<type_info const *,i3::detail_inst::shared_inst> > >,i3::hash<type_info const *>,i3::equal_to<type_info const *> >::insert
  00078	8b d0		 mov	 edx, eax
  0007a	b1 20		 mov	 cl, 32			; 00000020H
  0007c	8b 02		 mov	 eax, DWORD PTR [edx]
  0007e	8b 52 04	 mov	 edx, DWORD PTR [edx+4]
  00081	e8 00 00 00 00	 call	 __aullshr
  00086	5e		 pop	 esi

; 45   : 			shared_inst& inst = iter->second;
; 46   : 			return inst.get_data<T>();

  00087	8b 40 04	 mov	 eax, DWORD PTR [eax+4]

; 47   : 		}

  0008a	8b e5		 mov	 esp, ebp
  0008c	5d		 pop	 ebp
  0008d	c3		 ret	 0
??$create_inst@Vstatic_large_object_cache@i3@@@inst_memory_mgr@detail_inst@i3@@QAEPAVstatic_large_object_cache@2@XZ ENDP ; i3::detail_inst::inst_memory_mgr::create_inst<i3::static_large_object_cache>
_TEXT	ENDS
; Function compile flags: /Ogtp
; File E:\Proyectos\JuegosOnlineproyectos\PB\pbblow\Piercing Blow Remake\i3Server\include\i3Base\inst\ginst.h
; File E:\Proyectos\JuegosOnlineproyectos\PB\pbblow\Piercing Blow Remake\i3Server\include\i3Base\inst\ginst.inl
; File E:\Proyectos\JuegosOnlineproyectos\PB\pbblow\Piercing Blow Remake\i3Server\include\i3Base\inst\inst_memory.inl
; File E:\Proyectos\JuegosOnlineproyectos\PB\pbblow\Piercing Blow Remake\i3Server\include\i3Base\inst\ginst.h
;	COMDAT ??__E?ms_i@?$ginst@Vstatic_large_object_cache@i3@@@i3@@0PAVstatic_large_object_cache@2@A@@YAXXZ
text$di	SEGMENT
??__E?ms_i@?$ginst@Vstatic_large_object_cache@i3@@@i3@@0PAVstatic_large_object_cache@2@A@@YAXXZ PROC ; `dynamic initializer for 'i3::ginst<i3::static_large_object_cache>::ms_i'', COMDAT
; File E:\Proyectos\JuegosOnlineproyectos\PB\pbblow\Piercing Blow Remake\i3Server\include\i3Base\inst\ginst.inl

; 7    : 		template<class I, bool is_delayed>	struct atexit_ginst	{ static void call() {  i3::delayed_atexit(&ginst<I>::_destroy); }  };

  00000	68 00 00 00 00	 push	 OFFSET ?_destroy@?$ginst@Vstatic_large_object_cache@i3@@@i3@@CAXXZ ; i3::ginst<i3::static_large_object_cache>::_destroy
  00005	e8 00 00 00 00	 call	 ?delayed_atexit@i3@@YAHP6AXXZ@Z ; i3::delayed_atexit
  0000a	83 c4 04	 add	 esp, 4
; File E:\Proyectos\JuegosOnlineproyectos\PB\pbblow\Piercing Blow Remake\i3Server\include\i3Base\inst\inst_memory.inl

; 8    : 		return detail_inst::g_inst_memory_mgr.create_inst<T>();

  0000d	b9 00 00 00 00	 mov	 ecx, OFFSET ?g_inst_memory_mgr@detail_inst@i3@@3Vinst_memory_mgr@12@A ; i3::detail_inst::g_inst_memory_mgr
  00012	e8 00 00 00 00	 call	 ??$create_inst@Vstatic_large_object_cache@i3@@@inst_memory_mgr@detail_inst@i3@@QAEPAVstatic_large_object_cache@2@XZ ; i3::detail_inst::inst_memory_mgr::create_inst<i3::static_large_object_cache>
; File E:\Proyectos\JuegosOnlineproyectos\PB\pbblow\Piercing Blow Remake\i3Server\include\i3Base\inst\ginst.h

; 39   : 	template<class I> I*			ginst<I>::ms_i = ginst<I>::_create();

  00017	a3 00 00 00 00	 mov	 DWORD PTR ?ms_i@?$ginst@Vstatic_large_object_cache@i3@@@i3@@0PAVstatic_large_object_cache@2@A, eax ; i3::ginst<i3::static_large_object_cache>::ms_i
  0001c	c3		 ret	 0
??__E?ms_i@?$ginst@Vstatic_large_object_cache@i3@@@i3@@0PAVstatic_large_object_cache@2@A@@YAXXZ ENDP ; `dynamic initializer for 'i3::ginst<i3::static_large_object_cache>::ms_i''
text$di	ENDS
; Function compile flags: /Ogtp
; File E:\Proyectos\JuegosOnlineproyectos\PB\pbblow\Piercing Blow Remake\i3Server\include\i3Base\inst\ginst.inl
; File E:\Proyectos\JuegosOnlineproyectos\PB\pbblow\Piercing Blow Remake\i3Server\include\i3Base\inst\inst_memory.inl
; File E:\Proyectos\JuegosOnlineproyectos\PB\pbblow\Piercing Blow Remake\i3Server\include\i3Base\inst\ginst.inl
;	COMDAT ?_destroy@?$ginst@Vstatic_large_object_cache@i3@@@i3@@CAXXZ
_TEXT	SEGMENT
?_destroy@?$ginst@Vstatic_large_object_cache@i3@@@i3@@CAXXZ PROC ; i3::ginst<i3::static_large_object_cache>::_destroy, COMDAT
; File E:\Proyectos\JuegosOnlineproyectos\PB\pbblow\Piercing Blow Remake\i3Server\include\i3Base\inst\inst_memory.inl

; 20   : 		return detail_inst::g_inst_memory_mgr.delete_inst<T>();

  00000	b9 00 00 00 00	 mov	 ecx, OFFSET ?g_inst_memory_mgr@detail_inst@i3@@3Vinst_memory_mgr@12@A ; i3::detail_inst::g_inst_memory_mgr
  00005	e8 00 00 00 00	 call	 ??$delete_inst@Vstatic_large_object_cache@i3@@@inst_memory_mgr@detail_inst@i3@@QAEXXZ ; i3::detail_inst::inst_memory_mgr::delete_inst<i3::static_large_object_cache>
; File E:\Proyectos\JuegosOnlineproyectos\PB\pbblow\Piercing Blow Remake\i3Server\include\i3Base\inst\ginst.inl

; 30   : 		ms_i = NULL; 

  0000a	c7 05 00 00 00
	00 00 00 00 00	 mov	 DWORD PTR ?ms_i@?$ginst@Vstatic_large_object_cache@i3@@@i3@@0PAVstatic_large_object_cache@2@A, 0 ; i3::ginst<i3::static_large_object_cache>::ms_i

; 31   : 	}

  00014	c3		 ret	 0
?_destroy@?$ginst@Vstatic_large_object_cache@i3@@@i3@@CAXXZ ENDP ; i3::ginst<i3::static_large_object_cache>::_destroy
_TEXT	ENDS
; Function compile flags: /Ogtp
; File E:\Proyectos\JuegosOnlineproyectos\PB\pbblow\Piercing Blow Remake\i3Server\include\i3Base\inst\ginst.inl
; File E:\Proyectos\JuegosOnlineproyectos\PB\pbblow\Piercing Blow Remake\i3Server\include\i3Base\inst\inst_memory.inl
; File E:\Proyectos\JuegosOnlineproyectos\PB\pbblow\Piercing Blow Remake\i3Server\include\i3Base\inst\ginst.inl
;	COMDAT ?_create@?$ginst@Vstatic_large_object_cache@i3@@@i3@@CAPAVstatic_large_object_cache@2@XZ
_TEXT	SEGMENT
?_create@?$ginst@Vstatic_large_object_cache@i3@@@i3@@CAPAVstatic_large_object_cache@2@XZ PROC ; i3::ginst<i3::static_large_object_cache>::_create, COMDAT

; 7    : 		template<class I, bool is_delayed>	struct atexit_ginst	{ static void call() {  i3::delayed_atexit(&ginst<I>::_destroy); }  };

  00000	68 00 00 00 00	 push	 OFFSET ?_destroy@?$ginst@Vstatic_large_object_cache@i3@@@i3@@CAXXZ ; i3::ginst<i3::static_large_object_cache>::_destroy
  00005	e8 00 00 00 00	 call	 ?delayed_atexit@i3@@YAHP6AXXZ@Z ; i3::delayed_atexit
  0000a	83 c4 04	 add	 esp, 4
; File E:\Proyectos\JuegosOnlineproyectos\PB\pbblow\Piercing Blow Remake\i3Server\include\i3Base\inst\inst_memory.inl

; 8    : 		return detail_inst::g_inst_memory_mgr.create_inst<T>();

  0000d	b9 00 00 00 00	 mov	 ecx, OFFSET ?g_inst_memory_mgr@detail_inst@i3@@3Vinst_memory_mgr@12@A ; i3::detail_inst::g_inst_memory_mgr
  00012	e9 00 00 00 00	 jmp	 ??$create_inst@Vstatic_large_object_cache@i3@@@inst_memory_mgr@detail_inst@i3@@QAEPAVstatic_large_object_cache@2@XZ ; i3::detail_inst::inst_memory_mgr::create_inst<i3::static_large_object_cache>
?_create@?$ginst@Vstatic_large_object_cache@i3@@@i3@@CAPAVstatic_large_object_cache@2@XZ ENDP ; i3::ginst<i3::static_large_object_cache>::_create
_TEXT	ENDS
; Function compile flags: /Ogtp
;	COMDAT ??__Fg_actual_size_table@detail@i3@@YAXXZ
text$yd	SEGMENT
??__Fg_actual_size_table@detail@i3@@YAXXZ PROC		; i3::detail::`dynamic atexit destructor for 'g_actual_size_table'', COMDAT
  00000	c2 00 00	 ret	 0
??__Fg_actual_size_table@detail@i3@@YAXXZ ENDP		; i3::detail::`dynamic atexit destructor for 'g_actual_size_table''
text$yd	ENDS
; Function compile flags: /Ogtp
; File E:\Proyectos\JuegosOnlineproyectos\PB\pbblow\Piercing Blow Remake\i3Server\src\i3Base\pool\pool_by_thread.cpp
; File E:\Proyectos\JuegosOnlineproyectos\PB\pbblow\Piercing Blow Remake\i3Server\include\i3Base\pool\pool_size_helper.inl
; File E:\Proyectos\JuegosOnlineproyectos\PB\pbblow\Piercing Blow Remake\i3Server\src\i3Base\pool\pool_by_thread.cpp
;	COMDAT ??__Eg_actual_size_table@detail@i3@@YAXXZ
text$di	SEGMENT
??__Eg_actual_size_table@detail@i3@@YAXXZ PROC		; i3::detail::`dynamic initializer for 'g_actual_size_table'', COMDAT

; 28   : 				for (size_t i = 0 ; i < num_pool_by_size; ++i )

  00000	56		 push	 esi
  00001	33 c0		 xor	 eax, eax
  00003	57		 push	 edi
$LL6@dynamic:
; File E:\Proyectos\JuegosOnlineproyectos\PB\pbblow\Piercing Blow Remake\i3Server\include\i3Base\pool\pool_size_helper.inl

; 37   : 		if ( size_index < 16 )

  00004	83 f8 10	 cmp	 eax, 16			; 00000010H
  00007	73 09		 jae	 SHORT $LN9@dynamic

; 38   : 			return (size_index + 1) << align_index_shift;

  00009	8d 3c 85 04 00
	00 00		 lea	 edi, DWORD PTR [eax*4+4]
  00010	eb 21		 jmp	 SHORT $LN8@dynamic
$LN9@dynamic:

; 39   : 		// 2└Ū Į┬╝÷ ░ĒĘ┴..
; 40   : 		size_index -= 16;

  00012	8d 78 f0	 lea	 edi, DWORD PTR [eax-16]

; 41   : 		size_t div = size_index / 4;

  00015	8b d7		 mov	 edx, edi
  00017	c1 ea 02	 shr	 edx, 2

; 42   : 		size_t offset = size_index + 1 - div * 4 ;		// │¬Ėė┴÷░Ī ┐╔╝┬┐Ī Ūž┤ń..
; 43   : 		size_t MSB = div + 6 + sizeof(void*)/8;		

  0001a	8d 72 06	 lea	 esi, DWORD PTR [edx+6]
  0001d	c1 e2 02	 shl	 edx, 2

; 44   : 		return  ( (size_t)1 << MSB ) + (offset << (MSB - 2)) ;

  00020	2b fa		 sub	 edi, edx
  00022	8d 4e fe	 lea	 ecx, DWORD PTR [esi-2]
  00025	47		 inc	 edi
  00026	ba 01 00 00 00	 mov	 edx, 1
  0002b	d3 e7		 shl	 edi, cl
  0002d	8b ce		 mov	 ecx, esi
  0002f	d3 e2		 shl	 edx, cl
  00031	03 fa		 add	 edi, edx
$LN8@dynamic:
; File E:\Proyectos\JuegosOnlineproyectos\PB\pbblow\Piercing Blow Remake\i3Server\src\i3Base\pool\pool_by_thread.cpp

; 29   : 					m_table[i] = convert_size_idx_to_actual_size(i);

  00033	89 3c 85 00 00
	00 00		 mov	 DWORD PTR ?g_actual_size_table@detail@i3@@3Vconvert_size_idx_to_actual_size_table@12@B[eax*4], edi
  0003a	40		 inc	 eax
  0003b	83 f8 2f	 cmp	 eax, 47			; 0000002fH
  0003e	72 c4		 jb	 SHORT $LL6@dynamic

; 28   : 				for (size_t i = 0 ; i < num_pool_by_size; ++i )

  00040	5f		 pop	 edi
  00041	5e		 pop	 esi

; 36   : 		} const g_actual_size_table;

  00042	68 00 00 00 00	 push	 OFFSET ??__Fg_actual_size_table@detail@i3@@YAXXZ ; i3::detail::`dynamic atexit destructor for 'g_actual_size_table''
  00047	e8 00 00 00 00	 call	 _atexit
  0004c	59		 pop	 ecx
  0004d	c3		 ret	 0
??__Eg_actual_size_table@detail@i3@@YAXXZ ENDP		; i3::detail::`dynamic initializer for 'g_actual_size_table''
text$di	ENDS
; Function compile flags: /Ogtp
; File E:\Proyectos\JuegosOnlineproyectos\PB\pbblow\Piercing Blow Remake\i3Server\include\i3Base\itl\detail\hash_table.h
; File E:\Proyectos\JuegosOnlineproyectos\PB\pbblow\Piercing Blow Remake\i3Server\include\i3Base\itl\hash.h
; File E:\Proyectos\JuegosOnlineproyectos\PB\pbblow\Piercing Blow Remake\i3Server\include\i3Base\itl\detail\hash_table.h
; File E:\Proyectos\JuegosOnlineproyectos\PB\pbblow\Piercing Blow Remake\i3Server\include\i3Base\itl\pair.h
; File E:\Proyectos\JuegosOnlineproyectos\PB\pbblow\Piercing Blow Remake\i3Server\include\i3Base\itl\detail\hash_table.h
; File E:\Proyectos\JuegosOnlineproyectos\PB\pbblow\Piercing Blow Remake\i3Server\include\i3Base\itl\pair.h
; File E:\Proyectos\JuegosOnlineproyectos\PB\pbblow\Piercing Blow Remake\i3Server\include\i3Base\itl\detail\hash_table.h
; File E:\Proyectos\JuegosOnlineproyectos\PB\pbblow\Piercing Blow Remake\i3Server\include\i3Base\memory\memory_alloc.inl
; File E:\Proyectos\JuegosOnlineproyectos\PB\pbblow\Piercing Blow Remake\i3Server\include\i3Base\memory\memory_aligned_apply.h
; File E:\Proyectos\JuegosOnlineproyectos\PB\pbblow\Piercing Blow Remake\i3Server\include\i3Base\inst\detail\inst_memory_mgr.h
; File E:\Proyectos\JuegosOnlineproyectos\PB\pbblow\Piercing Blow Remake\i3Server\include\i3Base\itl\detail\hash_table.h
; File E:\Proyectos\JuegosOnlineproyectos\PB\pbblow\Piercing Blow Remake\i3Server\include\i3Base\itl\pair.h
; File E:\Proyectos\JuegosOnlineproyectos\PB\pbblow\Piercing Blow Remake\i3Server\include\i3Base\itl\detail\hash_table.h
; File E:\Proyectos\JuegosOnlineproyectos\PB\pbblow\Piercing Blow Remake\i3Server\include\i3Base\itl\pair.h
; File E:\Proyectos\JuegosOnlineproyectos\PB\pbblow\Piercing Blow Remake\i3Server\include\i3Base\itl\detail\hash_table.h
;	COMDAT ?insert@?$hash_table_ext@V?$HashTableNode_Unique@U?$pair@QBVtype_info@@Vshared_inst@detail_inst@i3@@@i3@@V?$heap_allocator@U?$pair@PBVtype_info@@Vshared_inst@detail_inst@i3@@@i3@@@2@@i3@@U?$hash@PBVtype_info@@@2@U?$equal_to@PBVtype_info@@@2@@i3@@QAE?AU?$pair@Viterator@?$HashTableValue@V?$HashTableNode_Unique@U?$pair@QBVtype_info@@Vshared_inst@detail_inst@i3@@@i3@@V?$heap_allocator@U?$pair@PBVtype_info@@Vshared_inst@detail_inst@i3@@@i3@@@2@@i3@@@i3@@_N@2@ABU?$pair@QBVtype_info@@Vshared_inst@detail_inst@i3@@@2@@Z
_TEXT	SEGMENT
tv537 = -16						; size = 8
$T1 = -8						; size = 4
___$ReturnUdt$ = 8					; size = 4
_val$ = 12						; size = 4
_s$1$ = 12						; size = 4
tv538 = 12						; size = 4
?insert@?$hash_table_ext@V?$HashTableNode_Unique@U?$pair@QBVtype_info@@Vshared_inst@detail_inst@i3@@@i3@@V?$heap_allocator@U?$pair@PBVtype_info@@Vshared_inst@detail_inst@i3@@@i3@@@2@@i3@@U?$hash@PBVtype_info@@@2@U?$equal_to@PBVtype_info@@@2@@i3@@QAE?AU?$pair@Viterator@?$HashTableValue@V?$HashTableNode_Unique@U?$pair@QBVtype_info@@Vshared_inst@detail_inst@i3@@@i3@@V?$heap_allocator@U?$pair@PBVtype_info@@Vshared_inst@detail_inst@i3@@@i3@@@2@@i3@@@i3@@_N@2@ABU?$pair@QBVtype_info@@Vshared_inst@detail_inst@i3@@@2@@Z PROC ; i3::hash_table_ext<i3::HashTableNode_Unique<i3::pair<type_info const * const,i3::detail_inst::shared_inst>,i3::heap_allocator<i3::pair<type_info const *,i3::detail_inst::shared_inst> > >,i3::hash<type_info const *>,i3::equal_to<type_info const *> >::insert, COMDAT
; _this$ = ecx

; 1132 : 		{

  00000	55		 push	 ebp
  00001	8b ec		 mov	 ebp, esp
  00003	83 ec 10	 sub	 esp, 16			; 00000010H
  00006	53		 push	 ebx
  00007	56		 push	 esi
  00008	57		 push	 edi
  00009	8b f9		 mov	 edi, ecx
; File E:\Proyectos\JuegosOnlineproyectos\PB\pbblow\Piercing Blow Remake\i3Server\include\i3Base\itl\hash.h

; 97   : 			std::size_t nHash = 0;

  0000b	33 f6		 xor	 esi, esi

; 259  : 			return detail::string_hash_value( v->raw_name());

  0000d	8b 4d 0c	 mov	 ecx, DWORD PTR _val$[ebp]
  00010	8b 11		 mov	 edx, DWORD PTR [ecx]
  00012	83 c2 08	 add	 edx, 8

; 98   : 			for ( ; *pCh != 0 ; ++pCh )

  00015	8a 1a		 mov	 bl, BYTE PTR [edx]
  00017	84 db		 test	 bl, bl
  00019	74 1a		 je	 SHORT $LN11@insert
  0001b	eb 03 8d 49 00	 npad	 5
$LL12@insert:

; 99   : 				nHash = (nHash<<5) + nHash + (*pCh);

  00020	8b c6		 mov	 eax, esi
  00022	8d 52 01	 lea	 edx, DWORD PTR [edx+1]
  00025	c1 e6 05	 shl	 esi, 5
  00028	03 f0		 add	 esi, eax
  0002a	0f be c3	 movsx	 eax, bl
  0002d	8a 1a		 mov	 bl, BYTE PTR [edx]
  0002f	03 f0		 add	 esi, eax
  00031	84 db		 test	 bl, bl
  00033	75 eb		 jne	 SHORT $LL12@insert
$LN11@insert:
; File E:\Proyectos\JuegosOnlineproyectos\PB\pbblow\Piercing Blow Remake\i3Server\include\i3Base\itl\detail\hash_table.h

; 820  : 		size_type			bucket_from_hash_value(size_type hash_value) const {	return hash_value %  num_bucket(); }

  00035	33 d2		 xor	 edx, edx
  00037	8b c6		 mov	 eax, esi
  00039	f7 77 10	 div	 DWORD PTR [edi+16]

; 823  : 			{ return buckets() + static_cast<difference_type>(bucket_from_hash_value(hash_value) ); }

  0003c	8b 47 04	 mov	 eax, DWORD PTR [edi+4]

; 1133 : 			const key_type& k = key( val);
; 1134 : 			size_type	hash_value = hash_function(k);
; 1135 : 			Bucket*		pBucket = get_bucket_from_hash_value(hash_value);
; 1136 : 			Node*		pNode   = find_node(pBucket, k);

  0003f	51		 push	 ecx
  00040	8b cf		 mov	 ecx, edi

; 823  : 			{ return buckets() + static_cast<difference_type>(bucket_from_hash_value(hash_value) ); }

  00042	8d 1c 90	 lea	 ebx, DWORD PTR [eax+edx*4]

; 1133 : 			const key_type& k = key( val);
; 1134 : 			size_type	hash_value = hash_function(k);
; 1135 : 			Bucket*		pBucket = get_bucket_from_hash_value(hash_value);
; 1136 : 			Node*		pNode   = find_node(pBucket, k);

  00045	53		 push	 ebx
  00046	e8 00 00 00 00	 call	 ?find_node@?$hash_table@V?$HashTableNode_Unique@U?$pair@QBVtype_info@@Vshared_inst@detail_inst@i3@@@i3@@V?$heap_allocator@U?$pair@PBVtype_info@@Vshared_inst@detail_inst@i3@@@i3@@@2@@i3@@U?$hash@PBVtype_info@@@2@U?$equal_to@PBVtype_info@@@2@@i3@@IBEPAUNode@?$HashTableNode_Unique@U?$pair@QBVtype_info@@Vshared_inst@detail_inst@i3@@@i3@@V?$heap_allocator@U?$pair@PBVtype_info@@Vshared_inst@detail_inst@i3@@@i3@@@2@@2@PAUBucket@42@ABQBVtype_info@@@Z ; i3::hash_table<i3::HashTableNode_Unique<i3::pair<type_info const * const,i3::detail_inst::shared_inst>,i3::heap_allocator<i3::pair<type_info const *,i3::detail_inst::shared_inst> > >,i3::hash<type_info const *>,i3::equal_to<type_info const *> >::find_node
  0004b	8b c8		 mov	 ecx, eax

; 1137 : 			
; 1138 : 			if ( pNode )

  0004d	85 c9		 test	 ecx, ecx
  0004f	74 15		 je	 SHORT $LN2@insert
; File E:\Proyectos\JuegosOnlineproyectos\PB\pbblow\Piercing Blow Remake\i3Server\include\i3Base\itl\pair.h

; 19   : 		pair(const T1& _Val1, const T2& _Val2) : first(_Val1), second(_Val2) { }

  00051	8b 45 08	 mov	 eax, DWORD PTR ___$ReturnUdt$[ebp]
  00054	5f		 pop	 edi
; File E:\Proyectos\JuegosOnlineproyectos\PB\pbblow\Piercing Blow Remake\i3Server\include\i3Base\itl\detail\hash_table.h

; 1154 : 		}

  00055	5e		 pop	 esi
  00056	89 18		 mov	 DWORD PTR [eax], ebx
; File E:\Proyectos\JuegosOnlineproyectos\PB\pbblow\Piercing Blow Remake\i3Server\include\i3Base\itl\pair.h

; 19   : 		pair(const T1& _Val1, const T2& _Val2) : first(_Val1), second(_Val2) { }

  00058	c6 40 08 00	 mov	 BYTE PTR [eax+8], 0
; File E:\Proyectos\JuegosOnlineproyectos\PB\pbblow\Piercing Blow Remake\i3Server\include\i3Base\itl\detail\hash_table.h

; 1154 : 		}

  0005c	89 48 04	 mov	 DWORD PTR [eax+4], ecx
  0005f	5b		 pop	 ebx
  00060	8b e5		 mov	 esp, ebp
  00062	5d		 pop	 ebp
  00063	c2 08 00	 ret	 8
$LN2@insert:
; File E:\Proyectos\JuegosOnlineproyectos\PB\pbblow\Piercing Blow Remake\i3Server\include\i3Base\memory\memory_alloc.inl

; 101  : 		void* data = ::HeapAlloc(HANDLE(h), 0, calculate_aligned_malloc_size(size, align) );

  00066	6a 18		 push	 24			; 00000018H
  00068	6a 00		 push	 0
  0006a	ff 37		 push	 DWORD PTR [edi]
  0006c	ff 15 00 00 00
	00		 call	 DWORD PTR __imp__HeapAlloc@12
  00072	8b 55 0c	 mov	 edx, DWORD PTR _val$[ebp]
; File E:\Proyectos\JuegosOnlineproyectos\PB\pbblow\Piercing Blow Remake\i3Server\include\i3Base\memory\memory_aligned_apply.h

; 24   : 		uintptr_t result = ( uintptr_t(raw_data) + sizeof(void*) + adjusted_align - 1 ) & ~(adjusted_align - 1);

  00075	8d 48 07	 lea	 ecx, DWORD PTR [eax+7]
  00078	83 e1 fc	 and	 ecx, -4			; fffffffcH
  0007b	89 4d f8	 mov	 DWORD PTR $T1[ebp], ecx

; 25   : 		((uintptr_t*)result)[-1] = (uintptr_t)raw_data;

  0007e	89 41 fc	 mov	 DWORD PTR [ecx-4], eax
  00081	8b 02		 mov	 eax, DWORD PTR [edx]
  00083	89 01		 mov	 DWORD PTR [ecx], eax
; File E:\Proyectos\JuegosOnlineproyectos\PB\pbblow\Piercing Blow Remake\i3Server\include\i3Base\inst\detail\inst_memory_mgr.h

; 21   : 			shared_inst(const shared_inst& rhs) : m_data(rhs.m_data), m_ref_count(1) {}

  00085	8b 42 04	 mov	 eax, DWORD PTR [edx+4]
  00088	89 41 04	 mov	 DWORD PTR [ecx+4], eax
  0008b	c7 41 08 01 00
	00 00		 mov	 DWORD PTR [ecx+8], 1
; File E:\Proyectos\JuegosOnlineproyectos\PB\pbblow\Piercing Blow Remake\i3Server\include\i3Base\itl\detail\hash_table.h

; 1144 : 			if (  reserve_for_insert( size() + 1 ) )

  00092	8b 57 14	 mov	 edx, DWORD PTR [edi+20]
  00095	89 55 0c	 mov	 DWORD PTR _s$1$[ebp], edx
  00098	8d 42 01	 lea	 eax, DWORD PTR [edx+1]

; 839  : 			if ( n < m_max_load || n > max_size() ) 

  0009b	3b 47 1c	 cmp	 eax, DWORD PTR [edi+28]
  0009e	72 79		 jb	 SHORT $LN3@insert
  000a0	3d ff ff ff 0f	 cmp	 eax, 268435455		; 0fffffffH
  000a5	77 72		 ja	 SHORT $LN3@insert

; 840  : 				return false;
; 841  : 
; 842  : 			size_type s = size();
; 843  : 			s = s + (s >> 1);				// ņĀłļ░śņØä ļŖśļĀżļ┤ä..
; 844  : 			s = s > n ? s : n;				// ņ×ś ņĢłļÉśļ®┤ nĻ░ÆļīĆļĪ£ ĒéżņøĆ..

  000a7	8b 5d 0c	 mov	 ebx, DWORD PTR _s$1$[ebp]
  000aa	8b ca		 mov	 ecx, edx
  000ac	d1 e9		 shr	 ecx, 1
  000ae	43		 inc	 ebx
  000af	8d 04 11	 lea	 eax, DWORD PTR [ecx+edx]
  000b2	ba 01 00 00 00	 mov	 edx, 1
  000b7	3b c3		 cmp	 eax, ebx
  000b9	0f 47 d1	 cmova	 edx, ecx
  000bc	03 55 0c	 add	 edx, DWORD PTR _s$1$[ebp]

; 915  : 			return detail::double_to_size_t( floor( n / (double) m_max_load_factor) ) + 1;

  000bf	89 55 0c	 mov	 DWORD PTR tv538[ebp], edx
  000c2	db 45 0c	 fild	 DWORD PTR tv538[ebp]
  000c5	79 06		 jns	 SHORT $LN83@insert
  000c7	dc 05 00 00 00
	00		 fadd	 QWORD PTR __real@41f0000000000000
$LN83@insert:
  000cd	dd 5d f0	 fstp	 QWORD PTR tv537[ebp]
  000d0	dd 45 f0	 fld	 QWORD PTR tv537[ebp]
  000d3	83 ec 08	 sub	 esp, 8
  000d6	d8 77 18	 fdiv	 DWORD PTR [edi+24]
  000d9	dd 1c 24	 fstp	 QWORD PTR [esp]
  000dc	e8 00 00 00 00	 call	 _floor

; 90   : 			return f >= static_cast<double>((std::numeric_limits<std::size_t>::max)()) 

  000e1	dd 05 00 00 00
	00		 fld	 QWORD PTR __real@41efffffffe00000

; 915  : 			return detail::double_to_size_t( floor( n / (double) m_max_load_factor) ) + 1;

  000e7	83 c4 08	 add	 esp, 8

; 90   : 			return f >= static_cast<double>((std::numeric_limits<std::size_t>::max)()) 

  000ea	d9 c9		 fxch	 ST(1)
  000ec	db f1		 fcomi	 ST(1)
  000ee	dd d9		 fstp	 ST(1)
  000f0	72 07		 jb	 SHORT $LN50@insert
  000f2	dd d8		 fstp	 ST(0)
  000f4	83 c8 ff	 or	 eax, -1
  000f7	eb 05		 jmp	 SHORT $LN51@insert
$LN50@insert:
  000f9	e8 00 00 00 00	 call	 __ftol2
$LN51@insert:

; 915  : 			return detail::double_to_size_t( floor( n / (double) m_max_load_factor) ) + 1;

  000fe	8d 48 01	 lea	 ecx, DWORD PTR [eax+1]

; 845  : 			rehash_impl(min_buckets_for_size(s));

  00101	51		 push	 ecx
  00102	8b cf		 mov	 ecx, edi
  00104	e8 00 00 00 00	 call	 ?rehash_impl@?$hash_table@V?$HashTableNode_Unique@U?$pair@QBVtype_info@@Vshared_inst@detail_inst@i3@@@i3@@V?$heap_allocator@U?$pair@PBVtype_info@@Vshared_inst@detail_inst@i3@@@i3@@@2@@i3@@U?$hash@PBVtype_info@@@2@U?$equal_to@PBVtype_info@@@2@@i3@@AAEXI@Z ; i3::hash_table<i3::HashTableNode_Unique<i3::pair<type_info const * const,i3::detail_inst::shared_inst>,i3::heap_allocator<i3::pair<type_info const *,i3::detail_inst::shared_inst> > >,i3::hash<type_info const *>,i3::equal_to<type_info const *> >::rehash_impl

; 820  : 		size_type			bucket_from_hash_value(size_type hash_value) const {	return hash_value %  num_bucket(); }

  00109	8b c6		 mov	 eax, esi
  0010b	8b 4d f8	 mov	 ecx, DWORD PTR $T1[ebp]
  0010e	33 d2		 xor	 edx, edx
  00110	f7 77 10	 div	 DWORD PTR [edi+16]

; 823  : 			{ return buckets() + static_cast<difference_type>(bucket_from_hash_value(hash_value) ); }

  00113	8b 47 04	 mov	 eax, DWORD PTR [edi+4]
  00116	8d 1c 90	 lea	 ebx, DWORD PTR [eax+edx*4]
$LN3@insert:

; 140  : 			pSrc_Node->pNext = pDest_Bucket->pHead;

  00119	8b 03		 mov	 eax, DWORD PTR [ebx]
  0011b	89 41 0c	 mov	 DWORD PTR [ecx+12], eax

; 141  : 			pDest_Bucket->pHead = pSrc_Node;

  0011e	89 0b		 mov	 DWORD PTR [ebx], ecx

; 852  : 			if (pBucket < bucket_begin())

  00120	3b 5f 0c	 cmp	 ebx, DWORD PTR [edi+12]
  00123	73 03		 jae	 SHORT $LN55@insert

; 853  : 				bucket_begin() = pBucket;

  00125	89 5f 0c	 mov	 DWORD PTR [edi+12], ebx
$LN55@insert:
; File E:\Proyectos\JuegosOnlineproyectos\PB\pbblow\Piercing Blow Remake\i3Server\include\i3Base\itl\pair.h

; 19   : 		pair(const T1& _Val1, const T2& _Val2) : first(_Val1), second(_Val2) { }

  00128	8b 45 08	 mov	 eax, DWORD PTR ___$ReturnUdt$[ebp]
; File E:\Proyectos\JuegosOnlineproyectos\PB\pbblow\Piercing Blow Remake\i3Server\include\i3Base\itl\detail\hash_table.h

; 856  : 		void	increment_size(){	++num_size(); }

  0012b	ff 47 14	 inc	 DWORD PTR [edi+20]
  0012e	5f		 pop	 edi

; 1154 : 		}

  0012f	5e		 pop	 esi
  00130	89 18		 mov	 DWORD PTR [eax], ebx
; File E:\Proyectos\JuegosOnlineproyectos\PB\pbblow\Piercing Blow Remake\i3Server\include\i3Base\itl\pair.h

; 19   : 		pair(const T1& _Val1, const T2& _Val2) : first(_Val1), second(_Val2) { }

  00132	c6 40 08 01	 mov	 BYTE PTR [eax+8], 1
; File E:\Proyectos\JuegosOnlineproyectos\PB\pbblow\Piercing Blow Remake\i3Server\include\i3Base\itl\detail\hash_table.h

; 1154 : 		}

  00136	89 48 04	 mov	 DWORD PTR [eax+4], ecx
  00139	5b		 pop	 ebx
  0013a	8b e5		 mov	 esp, ebp
  0013c	5d		 pop	 ebp
  0013d	c2 08 00	 ret	 8
?insert@?$hash_table_ext@V?$HashTableNode_Unique@U?$pair@QBVtype_info@@Vshared_inst@detail_inst@i3@@@i3@@V?$heap_allocator@U?$pair@PBVtype_info@@Vshared_inst@detail_inst@i3@@@i3@@@2@@i3@@U?$hash@PBVtype_info@@@2@U?$equal_to@PBVtype_info@@@2@@i3@@QAE?AU?$pair@Viterator@?$HashTableValue@V?$HashTableNode_Unique@U?$pair@QBVtype_info@@Vshared_inst@detail_inst@i3@@@i3@@V?$heap_allocator@U?$pair@PBVtype_info@@Vshared_inst@detail_inst@i3@@@i3@@@2@@i3@@@i3@@_N@2@ABU?$pair@QBVtype_info@@Vshared_inst@detail_inst@i3@@@2@@Z ENDP ; i3::hash_table_ext<i3::HashTableNode_Unique<i3::pair<type_info const * const,i3::detail_inst::shared_inst>,i3::heap_allocator<i3::pair<type_info const *,i3::detail_inst::shared_inst> > >,i3::hash<type_info const *>,i3::equal_to<type_info const *> >::insert
_TEXT	ENDS
; Function compile flags: /Ogtp
; File E:\Proyectos\JuegosOnlineproyectos\PB\pbblow\Piercing Blow Remake\i3Server\include\i3Base\itl\detail\hash_table.h
; File E:\Proyectos\JuegosOnlineproyectos\PB\pbblow\Piercing Blow Remake\i3Server\include\i3Base\itl\iterator.h
; File E:\Proyectos\JuegosOnlineproyectos\PB\pbblow\Piercing Blow Remake\i3Server\include\i3Base\itl\detail\algorithm_impl.h
; File E:\Proyectos\JuegosOnlineproyectos\PB\pbblow\Piercing Blow Remake\i3Server\include\i3Base\itl\iterator.h
; File E:\Proyectos\JuegosOnlineproyectos\PB\pbblow\Piercing Blow Remake\i3Server\include\i3Base\itl\detail\algorithm_impl.h
; File E:\Proyectos\JuegosOnlineproyectos\PB\pbblow\Piercing Blow Remake\i3Server\include\i3Base\itl\detail\hash_table.h
; File E:\Proyectos\JuegosOnlineproyectos\PB\pbblow\Piercing Blow Remake\i3Server\include\i3Base\memory\memory_aligned_apply.h
; File E:\Proyectos\JuegosOnlineproyectos\PB\pbblow\Piercing Blow Remake\i3Server\include\i3Base\memory\memory_alloc.inl
; File E:\Proyectos\JuegosOnlineproyectos\PB\pbblow\Piercing Blow Remake\i3Server\include\i3Base\memory\memory_aligned_apply.h
; File E:\Proyectos\JuegosOnlineproyectos\PB\pbblow\Piercing Blow Remake\i3Server\include\i3Base\itl\detail\hash_table.h
; File E:\Proyectos\JuegosOnlineproyectos\PB\pbblow\Piercing Blow Remake\i3Server\include\i3Base\memory\heap_allocator.h
; File E:\Proyectos\JuegosOnlineproyectos\PB\pbblow\Piercing Blow Remake\i3Server\include\i3Base\itl\detail\hash_table.h
; File E:\Proyectos\JuegosOnlineproyectos\PB\pbblow\Piercing Blow Remake\i3Server\include\i3Base\memory\heap_allocator.h
; File E:\Proyectos\JuegosOnlineproyectos\PB\pbblow\Piercing Blow Remake\i3Server\include\i3Base\itl\detail\hash_table.h
; File E:\Proyectos\JuegosOnlineproyectos\PB\pbblow\Piercing Blow Remake\i3Server\include\i3Base\itl\hash.h
; File E:\Proyectos\JuegosOnlineproyectos\PB\pbblow\Piercing Blow Remake\i3Server\include\i3Base\itl\detail\hash_table.h
; File E:\Proyectos\JuegosOnlineproyectos\PB\pbblow\Piercing Blow Remake\i3Server\include\i3Base\memory\memory_alloc.inl
; File E:\Proyectos\JuegosOnlineproyectos\PB\pbblow\Piercing Blow Remake\i3Server\include\i3Base\memory\memory_aligned_apply.h
; File E:\Proyectos\JuegosOnlineproyectos\PB\pbblow\Piercing Blow Remake\i3Server\include\i3Base\memory\memory_alloc.inl
; File E:\Proyectos\JuegosOnlineproyectos\PB\pbblow\Piercing Blow Remake\i3Server\include\i3Base\itl\detail\hash_table.h
;	COMDAT ?rehash_impl@?$hash_table@V?$HashTableNode_Unique@U?$pair@QBVtype_info@@Vshared_inst@detail_inst@i3@@@i3@@V?$heap_allocator@U?$pair@PBVtype_info@@Vshared_inst@detail_inst@i3@@@i3@@@2@@i3@@U?$hash@PBVtype_info@@@2@U?$equal_to@PBVtype_info@@@2@@i3@@AAEXI@Z
_TEXT	SEGMENT
tv550 = -20						; size = 8
_pSrcEnd$1$ = -16					; size = 4
_n$2$ = -12						; size = 4
_result$1$ = -8						; size = 4
_this$1$ = -4						; size = 4
_n$ = 8							; size = 4
_pSrcBucket$1$ = 8					; size = 4
tv551 = 8						; size = 4
?rehash_impl@?$hash_table@V?$HashTableNode_Unique@U?$pair@QBVtype_info@@Vshared_inst@detail_inst@i3@@@i3@@V?$heap_allocator@U?$pair@PBVtype_info@@Vshared_inst@detail_inst@i3@@@i3@@@2@@i3@@U?$hash@PBVtype_info@@@2@U?$equal_to@PBVtype_info@@@2@@i3@@AAEXI@Z PROC ; i3::hash_table<i3::HashTableNode_Unique<i3::pair<type_info const * const,i3::detail_inst::shared_inst>,i3::heap_allocator<i3::pair<type_info const *,i3::detail_inst::shared_inst> > >,i3::hash<type_info const *>,i3::equal_to<type_info const *> >::rehash_impl, COMDAT
; _this$ = ecx

; 919  : 		{

  00000	55		 push	 ebp
  00001	8b ec		 mov	 ebp, esp
  00003	83 ec 14	 sub	 esp, 20			; 00000014H
  00006	53		 push	 ebx
  00007	56		 push	 esi
  00008	57		 push	 edi
  00009	89 4d fc	 mov	 DWORD PTR _this$1$[ebp], ecx

; 72   : 			const std::size_t* bound = i3::lower_bound(begin, end, n);

  0000c	bf 00 00 00 00	 mov	 edi, OFFSET ?value@?$prime_list@I@detail@i3@@2QBIB ; i3::detail::prime_list<unsigned int>::value
; File E:\Proyectos\JuegosOnlineproyectos\PB\pbblow\Piercing Blow Remake\i3Server\include\i3Base\itl\iterator.h

; 269  : 				static void Do( Diff& dist, Iterator first, Iterator last) { dist += last - first;	}

  00011	8b 4d 08	 mov	 ecx, DWORD PTR _n$[ebp]
  00014	be 23 00 00 00	 mov	 esi, 35			; 00000023H
  00019	8d a4 24 00 00
	00 00		 npad	 7
$LL10@rehash_imp:
; File E:\Proyectos\JuegosOnlineproyectos\PB\pbblow\Piercing Blow Remake\i3Server\include\i3Base\itl\detail\algorithm_impl.h

; 810  : 			difference_type Count2 = Count / 2;

  00020	8b d6		 mov	 edx, esi
  00022	d1 ea		 shr	 edx, 1

; 814  : 			if ( *Mid < Val )

  00024	39 0c 97	 cmp	 DWORD PTR [edi+edx*4], ecx
; File E:\Proyectos\JuegosOnlineproyectos\PB\pbblow\Piercing Blow Remake\i3Server\include\i3Base\itl\iterator.h

; 239  : 				static void Do( Iterator& where, Diff diff) {	where += diff; }

  00027	8d 04 97	 lea	 eax, DWORD PTR [edi+edx*4]
; File E:\Proyectos\JuegosOnlineproyectos\PB\pbblow\Piercing Blow Remake\i3Server\include\i3Base\itl\detail\algorithm_impl.h

; 814  : 			if ( *Mid < Val )

  0002a	73 0c		 jae	 SHORT $LN11@rehash_imp

; 815  : 				First = ++Mid, Count -= Count2 + 1;

  0002c	8d 78 04	 lea	 edi, DWORD PTR [eax+4]
  0002f	83 c8 ff	 or	 eax, -1
  00032	2b c2		 sub	 eax, edx
  00034	03 f0		 add	 esi, eax
  00036	eb 02		 jmp	 SHORT $LN8@rehash_imp
$LN11@rehash_imp:

; 816  : 			else
; 817  : 				Count = Count2;

  00038	8b f2		 mov	 esi, edx
$LN8@rehash_imp:

; 808  : 		for (; 0 < Count; )

  0003a	85 f6		 test	 esi, esi
  0003c	7f e2		 jg	 SHORT $LL10@rehash_imp
; File E:\Proyectos\JuegosOnlineproyectos\PB\pbblow\Piercing Blow Remake\i3Server\include\i3Base\itl\detail\hash_table.h

; 920  : 			n = detail::next_prime(n);

  0003e	8b 4d fc	 mov	 ecx, DWORD PTR _this$1$[ebp]
  00041	81 ff 8c 00 00
	00		 cmp	 edi, OFFSET ?value@?$prime_list@I@detail@i3@@2QBIB+140
  00047	b8 88 00 00 00	 mov	 eax, OFFSET ?value@?$prime_list@I@detail@i3@@2QBIB+136
  0004c	0f 45 c7	 cmovne	 eax, edi
  0004f	8b 18		 mov	 ebx, DWORD PTR [eax]
  00051	89 5d f4	 mov	 DWORD PTR _n$2$[ebp], ebx

; 921  : 			if ( n == num_bucket())

  00054	3b 59 10	 cmp	 ebx, DWORD PTR [ecx+16]
  00057	0f 84 2f 01 00
	00		 je	 $LN1@rehash_imp
; File E:\Proyectos\JuegosOnlineproyectos\PB\pbblow\Piercing Blow Remake\i3Server\include\i3Base\memory\memory_aligned_apply.h

; 19   : 	size_t	calculate_aligned_malloc_size(size_t size, size_t adjusted_align) { return sizeof(void*) + size + adjusted_align;  }

  0005d	8d 04 9d 0c 00
	00 00		 lea	 eax, DWORD PTR [ebx*4+12]
; File E:\Proyectos\JuegosOnlineproyectos\PB\pbblow\Piercing Blow Remake\i3Server\include\i3Base\memory\memory_alloc.inl

; 101  : 		void* data = ::HeapAlloc(HANDLE(h), 0, calculate_aligned_malloc_size(size, align) );

  00064	50		 push	 eax
  00065	6a 00		 push	 0
  00067	ff 71 08	 push	 DWORD PTR [ecx+8]
  0006a	ff 15 00 00 00
	00		 call	 DWORD PTR __imp__HeapAlloc@12
; File E:\Proyectos\JuegosOnlineproyectos\PB\pbblow\Piercing Blow Remake\i3Server\include\i3Base\memory\memory_aligned_apply.h

; 24   : 		uintptr_t result = ( uintptr_t(raw_data) + sizeof(void*) + adjusted_align - 1 ) & ~(adjusted_align - 1);

  00070	8d 70 07	 lea	 esi, DWORD PTR [eax+7]
  00073	83 e6 fc	 and	 esi, -4			; fffffffcH
  00076	89 75 f8	 mov	 DWORD PTR _result$1$[ebp], esi

; 25   : 		((uintptr_t*)result)[-1] = (uintptr_t)raw_data;

  00079	89 46 fc	 mov	 DWORD PTR [esi-4], eax
; File E:\Proyectos\JuegosOnlineproyectos\PB\pbblow\Piercing Blow Remake\i3Server\include\i3Base\itl\detail\hash_table.h

; 931  : 			pNewBucket_Begin = pNewBuckets + numBucket_New;	

  0007c	8d 04 9d 00 00
	00 00		 lea	 eax, DWORD PTR [ebx*4]

; 932  : 			memset( pNewBuckets, 0 ,sizeof(Bucket) * numBucket_New  );

  00083	50		 push	 eax
  00084	6a 00		 push	 0
  00086	56		 push	 esi
  00087	8d 3c 30	 lea	 edi, DWORD PTR [eax+esi]
  0008a	e8 00 00 00 00	 call	 _memset

; 952  : 			Bucket*  pSrcEnd = buckets() + num_bucket();

  0008f	8b 55 fc	 mov	 edx, DWORD PTR _this$1$[ebp]

; 932  : 			memset( pNewBuckets, 0 ,sizeof(Bucket) * numBucket_New  );

  00092	83 c4 0c	 add	 esp, 12			; 0000000cH

; 933  : 
; 934  : 			pNewBucket_Begin->pHead = reinterpret_cast<Node*>(pNewBucket_Begin);

  00095	89 3f		 mov	 DWORD PTR [edi], edi

; 952  : 			Bucket*  pSrcEnd = buckets() + num_bucket();

  00097	8b 42 04	 mov	 eax, DWORD PTR [edx+4]
  0009a	8b 4a 10	 mov	 ecx, DWORD PTR [edx+16]
  0009d	8d 0c 88	 lea	 ecx, DWORD PTR [eax+ecx*4]
; File E:\Proyectos\JuegosOnlineproyectos\PB\pbblow\Piercing Blow Remake\i3Server\include\i3Base\memory\heap_allocator.h

; 36   : 			return (pointer)heap_aligned_malloc(m_heap, _Count * sizeof(T), __alignof(T) );

  000a0	8b 42 0c	 mov	 eax, DWORD PTR [edx+12]
; File E:\Proyectos\JuegosOnlineproyectos\PB\pbblow\Piercing Blow Remake\i3Server\include\i3Base\itl\detail\hash_table.h

; 952  : 			Bucket*  pSrcEnd = buckets() + num_bucket();

  000a3	89 4d f0	 mov	 DWORD PTR _pSrcEnd$1$[ebp], ecx
; File E:\Proyectos\JuegosOnlineproyectos\PB\pbblow\Piercing Blow Remake\i3Server\include\i3Base\memory\heap_allocator.h

; 36   : 			return (pointer)heap_aligned_malloc(m_heap, _Count * sizeof(T), __alignof(T) );

  000a6	89 45 08	 mov	 DWORD PTR _pSrcBucket$1$[ebp], eax
; File E:\Proyectos\JuegosOnlineproyectos\PB\pbblow\Piercing Blow Remake\i3Server\include\i3Base\itl\detail\hash_table.h

; 954  : 			for ( Bucket*  pSrcBucket = bucket_begin(); pSrcBucket != pSrcEnd ; ++pSrcBucket )

  000a9	3b c1		 cmp	 eax, ecx
  000ab	74 67		 je	 SHORT $LN24@rehash_imp
  000ad	8d 49 00	 npad	 3
$LL25@rehash_imp:

; 955  : 			{
; 956  : 				Node* pNode = pSrcBucket->pHead;

  000b0	8b 30		 mov	 esi, DWORD PTR [eax]

; 957  : 
; 958  : 				while ( pNode )

  000b2	85 f6		 test	 esi, esi
  000b4	74 4e		 je	 SHORT $LN23@rehash_imp
$LL26@rehash_imp:
; File E:\Proyectos\JuegosOnlineproyectos\PB\pbblow\Piercing Blow Remake\i3Server\include\i3Base\itl\hash.h

; 259  : 			return detail::string_hash_value( v->raw_name());

  000b6	8b 16		 mov	 edx, DWORD PTR [esi]

; 97   : 			std::size_t nHash = 0;

  000b8	33 c9		 xor	 ecx, ecx

; 259  : 			return detail::string_hash_value( v->raw_name());

  000ba	83 c2 08	 add	 edx, 8

; 98   : 			for ( ; *pCh != 0 ; ++pCh )

  000bd	8a 1a		 mov	 bl, BYTE PTR [edx]
  000bf	84 db		 test	 bl, bl
  000c1	74 15		 je	 SHORT $LN46@rehash_imp
$LL47@rehash_imp:

; 99   : 				nHash = (nHash<<5) + nHash + (*pCh);

  000c3	8b c1		 mov	 eax, ecx
  000c5	8d 52 01	 lea	 edx, DWORD PTR [edx+1]
  000c8	c1 e1 05	 shl	 ecx, 5
  000cb	03 c8		 add	 ecx, eax
  000cd	0f be c3	 movsx	 eax, bl
  000d0	8a 1a		 mov	 bl, BYTE PTR [edx]
  000d2	03 c8		 add	 ecx, eax
  000d4	84 db		 test	 bl, bl
  000d6	75 eb		 jne	 SHORT $LL47@rehash_imp
$LN46@rehash_imp:
; File E:\Proyectos\JuegosOnlineproyectos\PB\pbblow\Piercing Blow Remake\i3Server\include\i3Base\itl\detail\hash_table.h

; 960  : 					Bucket*		pDestBucket = pNewBuckets + hash_fun()( key(pNode) ) % numBucket_New;	// ņāł ļ▓äĒéĘ..

  000d8	8b 5d f4	 mov	 ebx, DWORD PTR _n$2$[ebp]
  000db	33 d2		 xor	 edx, edx
  000dd	8b c1		 mov	 eax, ecx
  000df	f7 f3		 div	 ebx
  000e1	8b 45 f8	 mov	 eax, DWORD PTR _result$1$[ebp]
  000e4	8d 0c 90	 lea	 ecx, DWORD PTR [eax+edx*4]

; 961  : 					Node*		pNext = next_group(pNode);

  000e7	8b 56 0c	 mov	 edx, DWORD PTR [esi+12]

; 140  : 			pSrc_Node->pNext = pDest_Bucket->pHead;

  000ea	8b 01		 mov	 eax, DWORD PTR [ecx]

; 968  : 					pNode =	pNext; //next_group(pNode);					// ļ░öļĆÉ ļ¦üĒü¼ļź╝ Ļ░¢Ļ│Ā ņ×ÉĻŠĖ ņ░ŠņØī..

  000ec	3b cf		 cmp	 ecx, edi

; 140  : 			pSrc_Node->pNext = pDest_Bucket->pHead;

  000ee	89 46 0c	 mov	 DWORD PTR [esi+12], eax

; 141  : 			pDest_Bucket->pHead = pSrc_Node;

  000f1	89 31		 mov	 DWORD PTR [ecx], esi

; 968  : 					pNode =	pNext; //next_group(pNode);					// ļ░öļĆÉ ļ¦üĒü¼ļź╝ Ļ░¢Ļ│Ā ņ×ÉĻŠĖ ņ░ŠņØī..

  000f3	0f 43 cf	 cmovae	 ecx, edi
  000f6	8b f9		 mov	 edi, ecx
  000f8	8b f2		 mov	 esi, edx
  000fa	85 d2		 test	 edx, edx
  000fc	75 b8		 jne	 SHORT $LL26@rehash_imp
  000fe	8b 45 08	 mov	 eax, DWORD PTR _pSrcBucket$1$[ebp]
  00101	8b 4d f0	 mov	 ecx, DWORD PTR _pSrcEnd$1$[ebp]
$LN23@rehash_imp:

; 954  : 			for ( Bucket*  pSrcBucket = bucket_begin(); pSrcBucket != pSrcEnd ; ++pSrcBucket )

  00104	83 c0 04	 add	 eax, 4
  00107	89 45 08	 mov	 DWORD PTR _pSrcBucket$1$[ebp], eax
  0010a	3b c1		 cmp	 eax, ecx
  0010c	75 a2		 jne	 SHORT $LL25@rehash_imp
  0010e	8b 75 f8	 mov	 esi, DWORD PTR _result$1$[ebp]
  00111	8b 55 fc	 mov	 edx, DWORD PTR _this$1$[ebp]
$LN24@rehash_imp:

; 940  : 			bucket_alloc().deallocate( buckets(), num_bucket() + 1);

  00114	8b 42 04	 mov	 eax, DWORD PTR [edx+4]
; File E:\Proyectos\JuegosOnlineproyectos\PB\pbblow\Piercing Blow Remake\i3Server\include\i3Base\memory\memory_alloc.inl

; 108  : 		if (!data) return;

  00117	85 c0		 test	 eax, eax
  00119	74 14		 je	 SHORT $LN57@rehash_imp
; File E:\Proyectos\JuegosOnlineproyectos\PB\pbblow\Piercing Blow Remake\i3Server\include\i3Base\memory\memory_aligned_apply.h

; 33   : 		ptr = ( ptr & ~( sizeof(void*) -1 ) ) - sizeof(void*);

  0011b	83 e0 fc	 and	 eax, -4			; fffffffcH
; File E:\Proyectos\JuegosOnlineproyectos\PB\pbblow\Piercing Blow Remake\i3Server\include\i3Base\memory\memory_alloc.inl

; 109  : 		::HeapFree(HANDLE(h), 0, get_raw_data_from_aligned_malloc(data) );

  0011e	ff 70 fc	 push	 DWORD PTR [eax-4]
  00121	6a 00		 push	 0
  00123	ff 72 08	 push	 DWORD PTR [edx+8]
  00126	ff 15 00 00 00
	00		 call	 DWORD PTR __imp__HeapFree@12
  0012c	8b 55 fc	 mov	 edx, DWORD PTR _this$1$[ebp]
$LN57@rehash_imp:
; File E:\Proyectos\JuegosOnlineproyectos\PB\pbblow\Piercing Blow Remake\i3Server\include\i3Base\itl\detail\hash_table.h

; 898  : 			m_max_load = detail::double_to_size_t(ceil( (double) m_max_load_factor * (double) num_bucket() ) )  ;

  0012f	d9 42 18	 fld	 DWORD PTR [edx+24]
  00132	89 5d 08	 mov	 DWORD PTR tv551[ebp], ebx

; 941  : 			num_bucket() = numBucket_New;

  00135	89 5a 10	 mov	 DWORD PTR [edx+16], ebx

; 942  : 			buckets()	= pNewBuckets;

  00138	89 72 04	 mov	 DWORD PTR [edx+4], esi

; 943  : 			bucket_begin() = pNewBucket_Begin;

  0013b	89 7a 0c	 mov	 DWORD PTR [edx+12], edi

; 898  : 			m_max_load = detail::double_to_size_t(ceil( (double) m_max_load_factor * (double) num_bucket() ) )  ;

  0013e	db 45 08	 fild	 DWORD PTR tv551[ebp]
  00141	85 db		 test	 ebx, ebx
  00143	79 06		 jns	 SHORT $LN97@rehash_imp
  00145	dc 05 00 00 00
	00		 fadd	 QWORD PTR __real@41f0000000000000
$LN97@rehash_imp:
  0014b	dd 5d ec	 fstp	 QWORD PTR tv550[ebp]
  0014e	dc 4d ec	 fmul	 QWORD PTR tv550[ebp]
  00151	83 ec 08	 sub	 esp, 8
  00154	dd 1c 24	 fstp	 QWORD PTR [esp]
  00157	e8 00 00 00 00	 call	 _ceil

; 90   : 			return f >= static_cast<double>((std::numeric_limits<std::size_t>::max)()) 

  0015c	dd 05 00 00 00
	00		 fld	 QWORD PTR __real@41efffffffe00000

; 898  : 			m_max_load = detail::double_to_size_t(ceil( (double) m_max_load_factor * (double) num_bucket() ) )  ;

  00162	83 c4 08	 add	 esp, 8

; 90   : 			return f >= static_cast<double>((std::numeric_limits<std::size_t>::max)()) 

  00165	d9 c9		 fxch	 ST(1)
  00167	db f1		 fcomi	 ST(1)
  00169	dd d9		 fstp	 ST(1)
  0016b	72 14		 jb	 SHORT $LN66@rehash_imp

; 898  : 			m_max_load = detail::double_to_size_t(ceil( (double) m_max_load_factor * (double) num_bucket() ) )  ;

  0016d	8b 4d fc	 mov	 ecx, DWORD PTR _this$1$[ebp]

; 90   : 			return f >= static_cast<double>((std::numeric_limits<std::size_t>::max)()) 

  00170	83 c8 ff	 or	 eax, -1
  00173	5f		 pop	 edi

; 922  : 				return;
; 923  : 						 
; 924  : 			move_buckets( n );
; 925  : 			calculate_max_load();
; 926  : 		}

  00174	5e		 pop	 esi

; 90   : 			return f >= static_cast<double>((std::numeric_limits<std::size_t>::max)()) 

  00175	dd d8		 fstp	 ST(0)

; 898  : 			m_max_load = detail::double_to_size_t(ceil( (double) m_max_load_factor * (double) num_bucket() ) )  ;

  00177	89 41 1c	 mov	 DWORD PTR [ecx+28], eax

; 922  : 				return;
; 923  : 						 
; 924  : 			move_buckets( n );
; 925  : 			calculate_max_load();
; 926  : 		}

  0017a	5b		 pop	 ebx
  0017b	8b e5		 mov	 esp, ebp
  0017d	5d		 pop	 ebp
  0017e	c2 04 00	 ret	 4
$LN66@rehash_imp:

; 90   : 			return f >= static_cast<double>((std::numeric_limits<std::size_t>::max)()) 

  00181	e8 00 00 00 00	 call	 __ftol2

; 898  : 			m_max_load = detail::double_to_size_t(ceil( (double) m_max_load_factor * (double) num_bucket() ) )  ;

  00186	8b 4d fc	 mov	 ecx, DWORD PTR _this$1$[ebp]
  00189	89 41 1c	 mov	 DWORD PTR [ecx+28], eax
$LN1@rehash_imp:
  0018c	5f		 pop	 edi

; 922  : 				return;
; 923  : 						 
; 924  : 			move_buckets( n );
; 925  : 			calculate_max_load();
; 926  : 		}

  0018d	5e		 pop	 esi
  0018e	5b		 pop	 ebx
  0018f	8b e5		 mov	 esp, ebp
  00191	5d		 pop	 ebp
  00192	c2 04 00	 ret	 4
?rehash_impl@?$hash_table@V?$HashTableNode_Unique@U?$pair@QBVtype_info@@Vshared_inst@detail_inst@i3@@@i3@@V?$heap_allocator@U?$pair@PBVtype_info@@Vshared_inst@detail_inst@i3@@@i3@@@2@@i3@@U?$hash@PBVtype_info@@@2@U?$equal_to@PBVtype_info@@@2@@i3@@AAEXI@Z ENDP ; i3::hash_table<i3::HashTableNode_Unique<i3::pair<type_info const * const,i3::detail_inst::shared_inst>,i3::heap_allocator<i3::pair<type_info const *,i3::detail_inst::shared_inst> > >,i3::hash<type_info const *>,i3::equal_to<type_info const *> >::rehash_impl
_TEXT	ENDS
; Function compile flags: /Ogtp
; File E:\Proyectos\JuegosOnlineproyectos\PB\pbblow\Piercing Blow Remake\i3Server\include\i3Base\itl\detail\hash_table.h
; File D:\Program Files\Microsoft Visual Studio\18\Community\VC\Tools\MSVC\14.50.35717\include\vcruntime_typeinfo.h
; File E:\Proyectos\JuegosOnlineproyectos\PB\pbblow\Piercing Blow Remake\i3Server\include\i3Base\itl\detail\hash_table.h
;	COMDAT ?find_node@?$hash_table@V?$HashTableNode_Unique@U?$pair@QBVtype_info@@Vshared_inst@detail_inst@i3@@@i3@@V?$heap_allocator@U?$pair@PBVtype_info@@Vshared_inst@detail_inst@i3@@@i3@@@2@@i3@@U?$hash@PBVtype_info@@@2@U?$equal_to@PBVtype_info@@@2@@i3@@IBEPAUNode@?$HashTableNode_Unique@U?$pair@QBVtype_info@@Vshared_inst@detail_inst@i3@@@i3@@V?$heap_allocator@U?$pair@PBVtype_info@@Vshared_inst@detail_inst@i3@@@i3@@@2@@2@PAUBucket@42@ABQBVtype_info@@@Z
_TEXT	SEGMENT
_pBucket$ = 8						; size = 4
_k$ = 12						; size = 4
?find_node@?$hash_table@V?$HashTableNode_Unique@U?$pair@QBVtype_info@@Vshared_inst@detail_inst@i3@@@i3@@V?$heap_allocator@U?$pair@PBVtype_info@@Vshared_inst@detail_inst@i3@@@i3@@@2@@i3@@U?$hash@PBVtype_info@@@2@U?$equal_to@PBVtype_info@@@2@@i3@@IBEPAUNode@?$HashTableNode_Unique@U?$pair@QBVtype_info@@Vshared_inst@detail_inst@i3@@@i3@@V?$heap_allocator@U?$pair@PBVtype_info@@Vshared_inst@detail_inst@i3@@@i3@@@2@@2@PAUBucket@42@ABQBVtype_info@@@Z PROC ; i3::hash_table<i3::HashTableNode_Unique<i3::pair<type_info const * const,i3::detail_inst::shared_inst>,i3::heap_allocator<i3::pair<type_info const *,i3::detail_inst::shared_inst> > >,i3::hash<type_info const *>,i3::equal_to<type_info const *> >::find_node, COMDAT
; _this$ = ecx

; 826  : 		{

  00000	55		 push	 ebp
  00001	8b ec		 mov	 ebp, esp
  00003	56		 push	 esi

; 827  : 			Node* pNode = pBucket->pHead;

  00004	8b 75 08	 mov	 esi, DWORD PTR _pBucket$[ebp]
  00007	8b 36		 mov	 esi, DWORD PTR [esi]

; 828  : 			while(  pNode &&  !equal_fun()( k, key(pNode) ) )		// pNodeĻ░Ć ļäÉņØ┤Ļ▒░ļéś, ņ░Šņ£╝ļ®┤ ņŖżļÅĢ..

  00009	85 f6		 test	 esi, esi
  0000b	74 2b		 je	 SHORT $LN14@find_node
  0000d	57		 push	 edi
  0000e	8b 7d 0c	 mov	 edi, DWORD PTR _k$[ebp]
$LL2@find_node:
  00011	8b 06		 mov	 eax, DWORD PTR [esi]
  00013	8b 0f		 mov	 ecx, DWORD PTR [edi]
; File D:\Program Files\Microsoft Visual Studio\18\Community\VC\Tools\MSVC\14.50.35717\include\vcruntime_typeinfo.h

; 99   :         return __std_type_info_compare(&_Data, &_Other._Data) == 0;

  00015	83 c0 04	 add	 eax, 4
  00018	50		 push	 eax
  00019	8d 41 04	 lea	 eax, DWORD PTR [ecx+4]
  0001c	50		 push	 eax
  0001d	e8 00 00 00 00	 call	 ___std_type_info_compare
  00022	83 c4 08	 add	 esp, 8
  00025	85 c0		 test	 eax, eax
; File E:\Proyectos\JuegosOnlineproyectos\PB\pbblow\Piercing Blow Remake\i3Server\include\i3Base\itl\detail\hash_table.h

; 828  : 			while(  pNode &&  !equal_fun()( k, key(pNode) ) )		// pNodeĻ░Ć ļäÉņØ┤Ļ▒░ļéś, ņ░Šņ£╝ļ®┤ ņŖżļÅĢ..

  00027	74 07		 je	 SHORT $LN15@find_node

; 829  : 				pNode = next_group(pNode);

  00029	8b 76 0c	 mov	 esi, DWORD PTR [esi+12]
  0002c	85 f6		 test	 esi, esi
  0002e	75 e1		 jne	 SHORT $LL2@find_node
$LN15@find_node:
  00030	5f		 pop	 edi

; 830  : 			return pNode;

  00031	8b c6		 mov	 eax, esi
  00033	5e		 pop	 esi

; 831  : 		}

  00034	5d		 pop	 ebp
  00035	c2 08 00	 ret	 8
$LN14@find_node:

; 830  : 			return pNode;

  00038	8b c6		 mov	 eax, esi
  0003a	5e		 pop	 esi

; 831  : 		}

  0003b	5d		 pop	 ebp
  0003c	c2 08 00	 ret	 8
?find_node@?$hash_table@V?$HashTableNode_Unique@U?$pair@QBVtype_info@@Vshared_inst@detail_inst@i3@@@i3@@V?$heap_allocator@U?$pair@PBVtype_info@@Vshared_inst@detail_inst@i3@@@i3@@@2@@i3@@U?$hash@PBVtype_info@@@2@U?$equal_to@PBVtype_info@@@2@@i3@@IBEPAUNode@?$HashTableNode_Unique@U?$pair@QBVtype_info@@Vshared_inst@detail_inst@i3@@@i3@@V?$heap_allocator@U?$pair@PBVtype_info@@Vshared_inst@detail_inst@i3@@@i3@@@2@@2@PAUBucket@42@ABQBVtype_info@@@Z ENDP ; i3::hash_table<i3::HashTableNode_Unique<i3::pair<type_info const * const,i3::detail_inst::shared_inst>,i3::heap_allocator<i3::pair<type_info const *,i3::detail_inst::shared_inst> > >,i3::hash<type_info const *>,i3::equal_to<type_info const *> >::find_node
_TEXT	ENDS
; Function compile flags: /Ogtp
; File E:\Proyectos\JuegosOnlineproyectos\PB\pbblow\Piercing Blow Remake\i3Server\include\i3Base\itl\detail\hash_table.h
; File E:\Proyectos\JuegosOnlineproyectos\PB\pbblow\Piercing Blow Remake\i3Server\include\i3Base\itl\hash.h
; File E:\Proyectos\JuegosOnlineproyectos\PB\pbblow\Piercing Blow Remake\i3Server\include\i3Base\itl\detail\hash_table.h
; File E:\Proyectos\JuegosOnlineproyectos\PB\pbblow\Piercing Blow Remake\i3Server\include\i3Base\itl\hash.h
; File E:\Proyectos\JuegosOnlineproyectos\PB\pbblow\Piercing Blow Remake\i3Server\include\i3Base\itl\detail\hash_table.h
; File E:\Proyectos\JuegosOnlineproyectos\PB\pbblow\Piercing Blow Remake\i3Server\include\i3Base\itl\hash.h
; File E:\Proyectos\JuegosOnlineproyectos\PB\pbblow\Piercing Blow Remake\i3Server\include\i3Base\itl\detail\hash_table.h
;	COMDAT ?find@?$hash_table@V?$HashTableNode_Unique@U?$pair@QBVtype_info@@Vshared_inst@detail_inst@i3@@@i3@@V?$heap_allocator@U?$pair@PBVtype_info@@Vshared_inst@detail_inst@i3@@@i3@@@2@@i3@@U?$hash@PBVtype_info@@@2@U?$equal_to@PBVtype_info@@@2@@i3@@QAE?AViterator@?$HashTableValue@V?$HashTableNode_Unique@U?$pair@QBVtype_info@@Vshared_inst@detail_inst@i3@@@i3@@V?$heap_allocator@U?$pair@PBVtype_info@@Vshared_inst@detail_inst@i3@@@i3@@@2@@i3@@@2@ABQBVtype_info@@@Z
_TEXT	SEGMENT
___$ReturnUdt$ = 8					; size = 4
_key$ = 12						; size = 4
?find@?$hash_table@V?$HashTableNode_Unique@U?$pair@QBVtype_info@@Vshared_inst@detail_inst@i3@@@i3@@V?$heap_allocator@U?$pair@PBVtype_info@@Vshared_inst@detail_inst@i3@@@i3@@@2@@i3@@U?$hash@PBVtype_info@@@2@U?$equal_to@PBVtype_info@@@2@@i3@@QAE?AViterator@?$HashTableValue@V?$HashTableNode_Unique@U?$pair@QBVtype_info@@Vshared_inst@detail_inst@i3@@@i3@@V?$heap_allocator@U?$pair@PBVtype_info@@Vshared_inst@detail_inst@i3@@@i3@@@2@@i3@@@2@ABQBVtype_info@@@Z PROC ; i3::hash_table<i3::HashTableNode_Unique<i3::pair<type_info const * const,i3::detail_inst::shared_inst>,i3::heap_allocator<i3::pair<type_info const *,i3::detail_inst::shared_inst> > >,i3::hash<type_info const *>,i3::equal_to<type_info const *> >::find, COMDAT
; _this$ = ecx

; 763  : 		{

  00000	55		 push	 ebp
  00001	8b ec		 mov	 ebp, esp
; File E:\Proyectos\JuegosOnlineproyectos\PB\pbblow\Piercing Blow Remake\i3Server\include\i3Base\itl\hash.h

; 259  : 			return detail::string_hash_value( v->raw_name());

  00003	8b 55 0c	 mov	 edx, DWORD PTR _key$[ebp]

; 97   : 			std::size_t nHash = 0;

  00006	33 c0		 xor	 eax, eax
; File E:\Proyectos\JuegosOnlineproyectos\PB\pbblow\Piercing Blow Remake\i3Server\include\i3Base\itl\detail\hash_table.h

; 763  : 		{

  00008	53		 push	 ebx
  00009	56		 push	 esi
  0000a	57		 push	 edi
; File E:\Proyectos\JuegosOnlineproyectos\PB\pbblow\Piercing Blow Remake\i3Server\include\i3Base\itl\hash.h

; 259  : 			return detail::string_hash_value( v->raw_name());

  0000b	8b 12		 mov	 edx, DWORD PTR [edx]
; File E:\Proyectos\JuegosOnlineproyectos\PB\pbblow\Piercing Blow Remake\i3Server\include\i3Base\itl\detail\hash_table.h

; 763  : 		{

  0000d	8b f9		 mov	 edi, ecx
; File E:\Proyectos\JuegosOnlineproyectos\PB\pbblow\Piercing Blow Remake\i3Server\include\i3Base\itl\hash.h

; 259  : 			return detail::string_hash_value( v->raw_name());

  0000f	83 c2 08	 add	 edx, 8

; 98   : 			for ( ; *pCh != 0 ; ++pCh )

  00012	8a 1a		 mov	 bl, BYTE PTR [edx]
  00014	84 db		 test	 bl, bl
  00016	74 15		 je	 SHORT $LN13@find
$LL14@find:

; 99   : 				nHash = (nHash<<5) + nHash + (*pCh);

  00018	8b c8		 mov	 ecx, eax
  0001a	8d 52 01	 lea	 edx, DWORD PTR [edx+1]
  0001d	c1 e0 05	 shl	 eax, 5
  00020	03 c1		 add	 eax, ecx
  00022	0f be cb	 movsx	 ecx, bl
  00025	8a 1a		 mov	 bl, BYTE PTR [edx]
  00027	03 c1		 add	 eax, ecx
  00029	84 db		 test	 bl, bl
  0002b	75 eb		 jne	 SHORT $LL14@find
$LN13@find:
; File E:\Proyectos\JuegosOnlineproyectos\PB\pbblow\Piercing Blow Remake\i3Server\include\i3Base\itl\detail\hash_table.h

; 565  : 		size_type			bucket(const key_type& key) const { return hash_fun()(key) % num_bucket(); }

  0002d	33 d2		 xor	 edx, edx

; 764  : 			Bucket* pBucket = get_bucket(key);
; 765  : 			Node*	it = find_node(pBucket, key);

  0002f	8b cf		 mov	 ecx, edi

; 565  : 		size_type			bucket(const key_type& key) const { return hash_fun()(key) % num_bucket(); }

  00031	f7 77 10	 div	 DWORD PTR [edi+16]

; 821  : 		Bucket*				get_bucket(const key_type& key) const { return buckets() + static_cast<difference_type>(bucket(key)); }

  00034	8b 47 04	 mov	 eax, DWORD PTR [edi+4]

; 764  : 			Bucket* pBucket = get_bucket(key);
; 765  : 			Node*	it = find_node(pBucket, key);

  00037	ff 75 0c	 push	 DWORD PTR _key$[ebp]

; 821  : 		Bucket*				get_bucket(const key_type& key) const { return buckets() + static_cast<difference_type>(bucket(key)); }

  0003a	8d 34 90	 lea	 esi, DWORD PTR [eax+edx*4]

; 764  : 			Bucket* pBucket = get_bucket(key);
; 765  : 			Node*	it = find_node(pBucket, key);

  0003d	56		 push	 esi
  0003e	e8 00 00 00 00	 call	 ?find_node@?$hash_table@V?$HashTableNode_Unique@U?$pair@QBVtype_info@@Vshared_inst@detail_inst@i3@@@i3@@V?$heap_allocator@U?$pair@PBVtype_info@@Vshared_inst@detail_inst@i3@@@i3@@@2@@i3@@U?$hash@PBVtype_info@@@2@U?$equal_to@PBVtype_info@@@2@@i3@@IBEPAUNode@?$HashTableNode_Unique@U?$pair@QBVtype_info@@Vshared_inst@detail_inst@i3@@@i3@@V?$heap_allocator@U?$pair@PBVtype_info@@Vshared_inst@detail_inst@i3@@@i3@@@2@@2@PAUBucket@42@ABQBVtype_info@@@Z ; i3::hash_table<i3::HashTableNode_Unique<i3::pair<type_info const * const,i3::detail_inst::shared_inst>,i3::heap_allocator<i3::pair<type_info const *,i3::detail_inst::shared_inst> > >,i3::hash<type_info const *>,i3::equal_to<type_info const *> >::find_node
  00043	8b c8		 mov	 ecx, eax

; 766  : 			return (it) ? iterator(pBucket, it) : end();

  00045	85 c9		 test	 ecx, ecx
  00047	75 0b		 jne	 SHORT $LN4@find

; 550  : 		iterator			end()  { return iterator( buckets() + static_cast<difference_type>(num_bucket()) );	}

  00049	8b 4f 10	 mov	 ecx, DWORD PTR [edi+16]
  0004c	8b 47 04	 mov	 eax, DWORD PTR [edi+4]
  0004f	8d 34 88	 lea	 esi, DWORD PTR [eax+ecx*4]

; 415  : 			const_iterator(Bucket* pBucket) : pBucket(pBucket), pNode(pBucket->pHead) {}

  00052	8b 0e		 mov	 ecx, DWORD PTR [esi]
$LN4@find:

; 766  : 			return (it) ? iterator(pBucket, it) : end();

  00054	8b 45 08	 mov	 eax, DWORD PTR ___$ReturnUdt$[ebp]
  00057	5f		 pop	 edi
  00058	89 30		 mov	 DWORD PTR [eax], esi
  0005a	5e		 pop	 esi
  0005b	89 48 04	 mov	 DWORD PTR [eax+4], ecx
  0005e	5b		 pop	 ebx

; 767  : 		}

  0005f	5d		 pop	 ebp
  00060	c2 08 00	 ret	 8
?find@?$hash_table@V?$HashTableNode_Unique@U?$pair@QBVtype_info@@Vshared_inst@detail_inst@i3@@@i3@@V?$heap_allocator@U?$pair@PBVtype_info@@Vshared_inst@detail_inst@i3@@@i3@@@2@@i3@@U?$hash@PBVtype_info@@@2@U?$equal_to@PBVtype_info@@@2@@i3@@QAE?AViterator@?$HashTableValue@V?$HashTableNode_Unique@U?$pair@QBVtype_info@@Vshared_inst@detail_inst@i3@@@i3@@V?$heap_allocator@U?$pair@PBVtype_info@@Vshared_inst@detail_inst@i3@@@i3@@@2@@i3@@@2@ABQBVtype_info@@@Z ENDP ; i3::hash_table<i3::HashTableNode_Unique<i3::pair<type_info const * const,i3::detail_inst::shared_inst>,i3::heap_allocator<i3::pair<type_info const *,i3::detail_inst::shared_inst> > >,i3::hash<type_info const *>,i3::equal_to<type_info const *> >::find
_TEXT	ENDS
; Function compile flags: /Ogtp
; File E:\Proyectos\JuegosOnlineproyectos\PB\pbblow\Piercing Blow Remake\i3Server\src\i3Base\pool\pool_by_thread.cpp
;	COMDAT ?deallocate_other_thread@pool_by_thread@i3@@AAEXPAUmem_block_header@2@PAX@Z
_TEXT	SEGMENT
_block$ = 8						; size = 4
_data$ = 12						; size = 4
?deallocate_other_thread@pool_by_thread@i3@@AAEXPAUmem_block_header@2@PAX@Z PROC ; i3::pool_by_thread::deallocate_other_thread, COMDAT
; _this$ = ecx

; 105  : 	{

  00000	55		 push	 ebp
  00001	8b ec		 mov	 ebp, esp

; 106  : 		detail::deallocate_other_thread( &m_ap_free_block_by_size[block->size_index], block, data );

  00003	8b 45 08	 mov	 eax, DWORD PTR _block$[ebp]
  00006	ff 75 0c	 push	 DWORD PTR _data$[ebp]
  00009	50		 push	 eax
  0000a	0f b7 40 1c	 movzx	 eax, WORD PTR [eax+28]
  0000e	c1 e0 06	 shl	 eax, 6
  00011	03 41 18	 add	 eax, DWORD PTR [ecx+24]
  00014	50		 push	 eax
  00015	e8 00 00 00 00	 call	 ?deallocate_other_thread@detail@i3@@YAXPAUtss_free_block_by_size@2@PAUmem_block_header@2@PAX@Z ; i3::detail::deallocate_other_thread
  0001a	83 c4 0c	 add	 esp, 12			; 0000000cH

; 107  : 	}

  0001d	5d		 pop	 ebp
  0001e	c2 08 00	 ret	 8
?deallocate_other_thread@pool_by_thread@i3@@AAEXPAUmem_block_header@2@PAX@Z ENDP ; i3::pool_by_thread::deallocate_other_thread
_TEXT	ENDS
; Function compile flags: /Ogtp
; File E:\Proyectos\JuegosOnlineproyectos\PB\pbblow\Piercing Blow Remake\i3Server\src\i3Base\pool\pool_by_thread.cpp
; File E:\Proyectos\JuegosOnlineproyectos\PB\pbblow\Piercing Blow Remake\i3Server\include\i3Base\tls\detail\tls_mgr.inl
; File E:\Proyectos\JuegosOnlineproyectos\PB\pbblow\Piercing Blow Remake\i3Server\src\i3Base\pool\pool_by_thread.cpp
; File E:\Proyectos\JuegosOnlineproyectos\PB\pbblow\Piercing Blow Remake\i3Server\include\i3Base\memory\memory_alloc.inl
; File E:\Proyectos\JuegosOnlineproyectos\PB\pbblow\Piercing Blow Remake\i3Server\src\i3Base\pool\pool_by_thread.cpp
; File E:\Proyectos\JuegosOnlineproyectos\PB\pbblow\Piercing Blow Remake\i3Server\include\i3Base\tls\detail\tls_mgr.inl
; File E:\Proyectos\JuegosOnlineproyectos\PB\pbblow\Piercing Blow Remake\i3Server\include\i3Base\memory\memory_alloc.inl
; File E:\Proyectos\JuegosOnlineproyectos\PB\pbblow\Piercing Blow Remake\i3Server\src\i3Base\pool\pool_by_thread.cpp
; File E:\Proyectos\JuegosOnlineproyectos\PB\pbblow\Piercing Blow Remake\i3Server\include\i3Base\tls\detail\tls_mgr.inl
; File E:\Proyectos\JuegosOnlineproyectos\PB\pbblow\Piercing Blow Remake\i3Server\src\i3Base\pool\pool_by_thread.cpp
; File E:\Proyectos\JuegosOnlineproyectos\PB\pbblow\Piercing Blow Remake\i3Server\include\i3Base\tls\detail\tls_mgr.inl
; File E:\Proyectos\JuegosOnlineproyectos\PB\pbblow\Piercing Blow Remake\i3Server\include\i3Base\memory\memory_alloc.inl
; File E:\Proyectos\JuegosOnlineproyectos\PB\pbblow\Piercing Blow Remake\i3Server\src\i3Base\pool\pool_by_thread.cpp
; File E:\Proyectos\JuegosOnlineproyectos\PB\pbblow\Piercing Blow Remake\i3Server\include\i3Base\memory\memory_aligned_apply.h
; File E:\Proyectos\JuegosOnlineproyectos\PB\pbblow\Piercing Blow Remake\i3Server\src\i3Base\pool\pool_by_thread.cpp
; File E:\Proyectos\JuegosOnlineproyectos\PB\pbblow\Piercing Blow Remake\i3Server\include\i3Base\memory\memory_aligned_apply.h
; File E:\Proyectos\JuegosOnlineproyectos\PB\pbblow\Piercing Blow Remake\i3Server\src\i3Base\pool\pool_by_thread.cpp
; File E:\Proyectos\JuegosOnlineproyectos\PB\pbblow\Piercing Blow Remake\i3Server\include\i3Base\pool\pool_base.inl
; File E:\Proyectos\JuegosOnlineproyectos\PB\pbblow\Piercing Blow Remake\i3Server\src\i3Base\pool\pool_by_thread.cpp
;	COMDAT ?on_create_tls@pool_by_thread@i3@@QAEXXZ
_TEXT	SEGMENT
?on_create_tls@pool_by_thread@i3@@QAEXXZ PROC		; i3::pool_by_thread::on_create_tls, COMDAT
; _this$ = ecx
; File E:\Proyectos\JuegosOnlineproyectos\PB\pbblow\Piercing Blow Remake\i3Server\include\i3Base\tls\detail\tls_mgr.inl

; 132  : 		void*		thread_data::tls_malloc(size_t n) const { return i3::heap_malloc(this->heapTls, n); }

  00000	a1 18 00 00 00	 mov	 eax, DWORD PTR ?g_TlsManager@detail_tls@i3@@3Vtls_mgr@12@A+24
; File E:\Proyectos\JuegosOnlineproyectos\PB\pbblow\Piercing Blow Remake\i3Server\src\i3Base\pool\pool_by_thread.cpp

; 60   : 	{

  00005	53		 push	 ebx
  00006	8b d9		 mov	 ebx, ecx
  00008	57		 push	 edi
; File E:\Proyectos\JuegosOnlineproyectos\PB\pbblow\Piercing Blow Remake\i3Server\include\i3Base\memory\memory_alloc.inl

; 87   : 		return ::HeapAlloc(HANDLE(h), 0, size);

  00009	68 bc 00 00 00	 push	 188			; 000000bcH
  0000e	6a 00		 push	 0
; File E:\Proyectos\JuegosOnlineproyectos\PB\pbblow\Piercing Blow Remake\i3Server\src\i3Base\pool\pool_by_thread.cpp

; 61   : 		DWORD threadID = shared_tls_type::get_thread_id();

  00010	8b 7b 10	 mov	 edi, DWORD PTR [ebx+16]
; File E:\Proyectos\JuegosOnlineproyectos\PB\pbblow\Piercing Blow Remake\i3Server\include\i3Base\tls\detail\tls_mgr.inl

; 132  : 		void*		thread_data::tls_malloc(size_t n) const { return i3::heap_malloc(this->heapTls, n); }

  00013	8b 04 b8	 mov	 eax, DWORD PTR [eax+edi*4]
; File E:\Proyectos\JuegosOnlineproyectos\PB\pbblow\Piercing Blow Remake\i3Server\include\i3Base\memory\memory_alloc.inl

; 87   : 		return ::HeapAlloc(HANDLE(h), 0, size);

  00016	ff 70 20	 push	 DWORD PTR [eax+32]
  00019	ff 15 00 00 00
	00		 call	 DWORD PTR __imp__HeapAlloc@12
; File E:\Proyectos\JuegosOnlineproyectos\PB\pbblow\Piercing Blow Remake\i3Server\src\i3Base\pool\pool_by_thread.cpp

; 64   : 		::memset(m_ap_pool_by_size, 0,  num_pool_by_size * sizeof(pool_by_size));

  0001f	68 bc 00 00 00	 push	 188			; 000000bcH
  00024	6a 00		 push	 0
  00026	50		 push	 eax
  00027	89 43 14	 mov	 DWORD PTR [ebx+20], eax
  0002a	e8 00 00 00 00	 call	 _memset
; File E:\Proyectos\JuegosOnlineproyectos\PB\pbblow\Piercing Blow Remake\i3Server\include\i3Base\tls\detail\tls_mgr.inl

; 138  : 		void*		thread_data::tls_aligned_malloc(size_t n, size_t align) const {	return i3::heap_aligned_malloc(this->heapTls, n, align); }

  0002f	a1 18 00 00 00	 mov	 eax, DWORD PTR ?g_TlsManager@detail_tls@i3@@3Vtls_mgr@12@A+24
; File E:\Proyectos\JuegosOnlineproyectos\PB\pbblow\Piercing Blow Remake\i3Server\src\i3Base\pool\pool_by_thread.cpp

; 64   : 		::memset(m_ap_pool_by_size, 0,  num_pool_by_size * sizeof(pool_by_size));

  00034	83 c4 0c	 add	 esp, 12			; 0000000cH
; File E:\Proyectos\JuegosOnlineproyectos\PB\pbblow\Piercing Blow Remake\i3Server\include\i3Base\tls\detail\tls_mgr.inl

; 138  : 		void*		thread_data::tls_aligned_malloc(size_t n, size_t align) const {	return i3::heap_aligned_malloc(this->heapTls, n, align); }

  00037	8b 04 b8	 mov	 eax, DWORD PTR [eax+edi*4]
; File E:\Proyectos\JuegosOnlineproyectos\PB\pbblow\Piercing Blow Remake\i3Server\include\i3Base\memory\memory_alloc.inl

; 101  : 		void* data = ::HeapAlloc(HANDLE(h), 0, calculate_aligned_malloc_size(size, align) );

  0003a	68 04 0c 00 00	 push	 3076			; 00000c04H
  0003f	6a 00		 push	 0
  00041	ff 70 20	 push	 DWORD PTR [eax+32]
  00044	ff 15 00 00 00
	00		 call	 DWORD PTR __imp__HeapAlloc@12
; File E:\Proyectos\JuegosOnlineproyectos\PB\pbblow\Piercing Blow Remake\i3Server\src\i3Base\pool\pool_by_thread.cpp

; 68   : 		::memset(m_ap_free_block_by_size, 0, num_pool_by_size * sizeof(tss_free_block_by_size));

  0004a	68 c0 0b 00 00	 push	 3008			; 00000bc0H
  0004f	6a 00		 push	 0
; File E:\Proyectos\JuegosOnlineproyectos\PB\pbblow\Piercing Blow Remake\i3Server\include\i3Base\memory\memory_aligned_apply.h

; 24   : 		uintptr_t result = ( uintptr_t(raw_data) + sizeof(void*) + adjusted_align - 1 ) & ~(adjusted_align - 1);

  00051	8d 48 43	 lea	 ecx, DWORD PTR [eax+67]
  00054	83 e1 c0	 and	 ecx, -64		; ffffffc0H
; File E:\Proyectos\JuegosOnlineproyectos\PB\pbblow\Piercing Blow Remake\i3Server\src\i3Base\pool\pool_by_thread.cpp

; 68   : 		::memset(m_ap_free_block_by_size, 0, num_pool_by_size * sizeof(tss_free_block_by_size));

  00057	51		 push	 ecx
; File E:\Proyectos\JuegosOnlineproyectos\PB\pbblow\Piercing Blow Remake\i3Server\include\i3Base\memory\memory_aligned_apply.h

; 25   : 		((uintptr_t*)result)[-1] = (uintptr_t)raw_data;

  00058	89 41 fc	 mov	 DWORD PTR [ecx-4], eax
; File E:\Proyectos\JuegosOnlineproyectos\PB\pbblow\Piercing Blow Remake\i3Server\src\i3Base\pool\pool_by_thread.cpp

; 66   : 		m_ap_free_block_by_size = reinterpret_cast<tss_free_block_by_size*>(i3::tls_aligned_malloc(threadID, num_pool_by_size * sizeof(tss_free_block_by_size), 

  0005b	89 4b 18	 mov	 DWORD PTR [ebx+24], ecx

; 68   : 		::memset(m_ap_free_block_by_size, 0, num_pool_by_size * sizeof(tss_free_block_by_size));

  0005e	e8 00 00 00 00	 call	 _memset
  00063	83 c4 0c	 add	 esp, 12			; 0000000cH

; 69   : 
; 70   : 		if (threadID == 0)		// Ė▐└╬Š▓Ę╣ĄÕ┐Ī ŪčŪž╝Ł Ė▐Ė­Ė«Ė” ┐╣ŠÓ..

  00066	85 ff		 test	 edi, edi
  00068	75 0c		 jne	 SHORT $LN2@on_create_
; File E:\Proyectos\JuegosOnlineproyectos\PB\pbblow\Piercing Blow Remake\i3Server\include\i3Base\pool\pool_base.inl

; 23   : 		m_next_raw_memory_size <<= pow2;

  0006a	c1 63 08 02	 shl	 DWORD PTR [ebx+8], 2
; File E:\Proyectos\JuegosOnlineproyectos\PB\pbblow\Piercing Blow Remake\i3Server\src\i3Base\pool\pool_by_thread.cpp

; 73   : 			malloc_raw_memory(threadID);			// ┴÷┐¼ ╗²╝║ Ė±└¹..

  0006e	8b cb		 mov	 ecx, ebx
  00070	57		 push	 edi
  00071	e8 00 00 00 00	 call	 ?malloc_raw_memory@pool_base@i3@@IAEXK@Z ; i3::pool_base::malloc_raw_memory
$LN2@on_create_:

; 74   : 		}
; 75   : 	}

  00076	5f		 pop	 edi
  00077	5b		 pop	 ebx
  00078	c3		 ret	 0
?on_create_tls@pool_by_thread@i3@@QAEXXZ ENDP		; i3::pool_by_thread::on_create_tls
_TEXT	ENDS
; Function compile flags: /Ogtp
; File E:\Proyectos\JuegosOnlineproyectos\PB\pbblow\Piercing Blow Remake\i3Server\src\i3Base\pool\pool_by_thread.cpp
; File E:\Proyectos\JuegosOnlineproyectos\PB\pbblow\Piercing Blow Remake\i3Server\include\i3Base\pool\align_up_down.h
; File E:\Proyectos\JuegosOnlineproyectos\PB\pbblow\Piercing Blow Remake\i3Server\src\i3Base\pool\pool_by_thread.cpp
; File E:\Proyectos\JuegosOnlineproyectos\PB\pbblow\Piercing Blow Remake\i3Server\include\i3Base\pool\align_up_down.h
; File E:\Proyectos\JuegosOnlineproyectos\PB\pbblow\Piercing Blow Remake\i3Server\src\i3Base\pool\pool_by_thread.cpp
; File E:\Proyectos\JuegosOnlineproyectos\PB\pbblow\Piercing Blow Remake\i3Server\include\i3Base\pool\align_up_down.h
; File E:\Proyectos\JuegosOnlineproyectos\PB\pbblow\Piercing Blow Remake\i3Server\src\i3Base\pool\pool_by_thread.cpp
; File E:\Proyectos\JuegosOnlineproyectos\PB\pbblow\Piercing Blow Remake\i3Server\include\i3Base\pool\pool_base.inl
; File E:\Proyectos\JuegosOnlineproyectos\PB\pbblow\Piercing Blow Remake\i3Server\src\i3Base\pool\pool_by_thread.cpp
; File E:\Proyectos\JuegosOnlineproyectos\PB\pbblow\Piercing Blow Remake\i3Server\include\i3Base\pool\pool_base.inl
; File E:\Proyectos\JuegosOnlineproyectos\PB\pbblow\Piercing Blow Remake\i3Server\src\i3Base\pool\pool_by_thread.cpp
; File E:\Proyectos\JuegosOnlineproyectos\PB\pbblow\Piercing Blow Remake\i3Server\include\i3Base\tls\detail\tls_base.h
; File E:\Proyectos\JuegosOnlineproyectos\PB\pbblow\Piercing Blow Remake\i3Server\include\i3Base\tls\tls_ptr.h
; File E:\Proyectos\JuegosOnlineproyectos\PB\pbblow\Piercing Blow Remake\i3Server\include\i3Base\tls\detail\tls_base.h
; File E:\Proyectos\JuegosOnlineproyectos\PB\pbblow\Piercing Blow Remake\i3Server\include\i3Base\tls\detail\tls_mgr.h
; File E:\Proyectos\JuegosOnlineproyectos\PB\pbblow\Piercing Blow Remake\i3Server\include\i3Base\itl\detail\vector.h
; File E:\Proyectos\JuegosOnlineproyectos\PB\pbblow\Piercing Blow Remake\i3Server\include\i3Base\tls\detail\tls_mgr.h
; File E:\Proyectos\JuegosOnlineproyectos\PB\pbblow\Piercing Blow Remake\i3Server\src\i3Base\pool\pool_by_thread.cpp
;	COMDAT ?deallocate@pool_by_thread@i3@@QAEXPAX@Z
_TEXT	SEGMENT
_data$ = 8						; size = 4
?deallocate@pool_by_thread@i3@@QAEXPAX@Z PROC		; i3::pool_by_thread::deallocate, COMDAT
; _this$ = ecx

; 110  : 	{

  00000	55		 push	 ebp
  00001	8b ec		 mov	 ebp, esp
  00003	53		 push	 ebx
; File E:\Proyectos\JuegosOnlineproyectos\PB\pbblow\Piercing Blow Remake\i3Server\include\i3Base\pool\align_up_down.h

; 25   : 	bool	is_align(T value, uintptr_t align) { return ( uintptr_t(value) & (align - 1) ) == 0; }

  00004	8b 5d 08	 mov	 ebx, DWORD PTR _data$[ebp]
; File E:\Proyectos\JuegosOnlineproyectos\PB\pbblow\Piercing Blow Remake\i3Server\src\i3Base\pool\pool_by_thread.cpp

; 110  : 	{

  00007	56		 push	 esi
  00008	8b f1		 mov	 esi, ecx
; File E:\Proyectos\JuegosOnlineproyectos\PB\pbblow\Piercing Blow Remake\i3Server\include\i3Base\pool\align_up_down.h

; 25   : 	bool	is_align(T value, uintptr_t align) { return ( uintptr_t(value) & (align - 1) ) == 0; }

  0000a	f7 c3 ff 3f 00
	00		 test	 ebx, 16383		; 00003fffH
; File E:\Proyectos\JuegosOnlineproyectos\PB\pbblow\Piercing Blow Remake\i3Server\src\i3Base\pool\pool_by_thread.cpp

; 113  : 		if ( i3::is_align( data, pool_block_size) )		// large objectĖ” └╠┴” 16K┐Ī ┴żĘ─Į├┼┤..

  00010	75 12		 jne	 SHORT $LN2@deallocate

; 114  : 		{
; 115  : 			i3::static_large_object_cache::i()->deallocate(data);	return;		// Č¾┴÷┐└║Ļ┴¦Ų«┬╩└ĖĘ╬ Ą╣Ė▓..

  00012	8b 0d 00 00 00
	00		 mov	 ecx, DWORD PTR ?ms_i@?$ginst@Vstatic_large_object_cache@i3@@@i3@@0PAVstatic_large_object_cache@2@A ; i3::ginst<i3::static_large_object_cache>::ms_i
  00018	53		 push	 ebx
  00019	e8 00 00 00 00	 call	 ?deallocate@static_large_object_cache@i3@@QAEXPAX@Z ; i3::static_large_object_cache::deallocate
  0001e	5e		 pop	 esi

; 127  : 	}

  0001f	5b		 pop	 ebx
  00020	5d		 pop	 ebp
  00021	c2 04 00	 ret	 4
$LN2@deallocate:
  00024	57		 push	 edi
; File E:\Proyectos\JuegosOnlineproyectos\PB\pbblow\Piercing Blow Remake\i3Server\include\i3Base\pool\align_up_down.h

; 19   : 	T		align_down(T value, uintptr_t align) {	return T( uintptr_t(value) & ~(align - 1) ); }

  00025	8b fb		 mov	 edi, ebx
  00027	81 e7 00 c0 ff
	ff		 and	 edi, -16384		; ffffc000H
; File E:\Proyectos\JuegosOnlineproyectos\PB\pbblow\Piercing Blow Remake\i3Server\src\i3Base\pool\pool_by_thread.cpp

; 123  : 		if ( block->threadID == threadID )		// Ą┐└Ž Š▓Ę╣ĄÕ..

  0002d	8b 57 10	 mov	 edx, DWORD PTR [edi+16]
  00030	3b 56 10	 cmp	 edx, DWORD PTR [esi+16]
  00033	75 1d		 jne	 SHORT $LN3@deallocate

; 124  : 			deallocate_same_thread( m_ap_pool_by_size[block->size_index].m_active_block, block, data);

  00035	0f b7 4f 1c	 movzx	 ecx, WORD PTR [edi+28]
  00039	8b 46 14	 mov	 eax, DWORD PTR [esi+20]
; File E:\Proyectos\JuegosOnlineproyectos\PB\pbblow\Piercing Blow Remake\i3Server\include\i3Base\pool\pool_base.inl

; 29   : 		detail::deallocate_same_thread(m_free_block_list, active_block, block, data);

  0003c	53		 push	 ebx
  0003d	57		 push	 edi
; File E:\Proyectos\JuegosOnlineproyectos\PB\pbblow\Piercing Blow Remake\i3Server\src\i3Base\pool\pool_by_thread.cpp

; 124  : 			deallocate_same_thread( m_ap_pool_by_size[block->size_index].m_active_block, block, data);

  0003e	8d 04 88	 lea	 eax, DWORD PTR [eax+ecx*4]
; File E:\Proyectos\JuegosOnlineproyectos\PB\pbblow\Piercing Blow Remake\i3Server\include\i3Base\pool\pool_base.inl

; 29   : 		detail::deallocate_same_thread(m_free_block_list, active_block, block, data);

  00041	50		 push	 eax
  00042	56		 push	 esi
  00043	e8 00 00 00 00	 call	 ?deallocate_same_thread@detail@i3@@YAXAAPAUmem_block_header@2@0PAU32@PAX@Z ; i3::detail::deallocate_same_thread
  00048	83 c4 10	 add	 esp, 16			; 00000010H
  0004b	5f		 pop	 edi
  0004c	5e		 pop	 esi
; File E:\Proyectos\JuegosOnlineproyectos\PB\pbblow\Piercing Blow Remake\i3Server\src\i3Base\pool\pool_by_thread.cpp

; 127  : 	}

  0004d	5b		 pop	 ebx
  0004e	5d		 pop	 ebp
  0004f	c2 04 00	 ret	 4
$LN3@deallocate:
; File E:\Proyectos\JuegosOnlineproyectos\PB\pbblow\Piercing Blow Remake\i3Server\include\i3Base\tls\detail\tls_base.h

; 75   : 		detail_tls::thread_data* td = detail_tls::get_thread_data(hthread);

  00052	a1 18 00 00 00	 mov	 eax, DWORD PTR ?g_TlsManager@detail_tls@i3@@3Vtls_mgr@12@A+24
; File E:\Proyectos\JuegosOnlineproyectos\PB\pbblow\Piercing Blow Remake\i3Server\include\i3Base\tls\tls_ptr.h

; 62   : 		T*				get_by_thread_id(DWORD threadID) const { return m_pShared->get_by_thread_id(threadID); }

  00057	8b 76 0c	 mov	 esi, DWORD PTR [esi+12]
; File E:\Proyectos\JuegosOnlineproyectos\PB\pbblow\Piercing Blow Remake\i3Server\include\i3Base\tls\detail\tls_base.h

; 75   : 		detail_tls::thread_data* td = detail_tls::get_thread_data(hthread);

  0005a	8b 14 90	 mov	 edx, DWORD PTR [eax+edx*4]

; 76   : 		return td->get_value(this, m_slotidx);

  0005d	8b 4e 04	 mov	 ecx, DWORD PTR [esi+4]
; File E:\Proyectos\JuegosOnlineproyectos\PB\pbblow\Piercing Blow Remake\i3Server\include\i3Base\tls\detail\tls_mgr.h

; 43   : 			void*				get_value(const tls_base* t, size_t slot) const { return (*this->fn_list[slot])( t, this, slot); }

  00060	51		 push	 ecx
  00061	52		 push	 edx
; File E:\Proyectos\JuegosOnlineproyectos\PB\pbblow\Piercing Blow Remake\i3Server\include\i3Base\itl\detail\vector.h

; 160  : 		const_reference operator[](size_type Pos) const	{	return (*(m_first + Pos));	}

  00062	8b 42 04	 mov	 eax, DWORD PTR [edx+4]
; File E:\Proyectos\JuegosOnlineproyectos\PB\pbblow\Piercing Blow Remake\i3Server\include\i3Base\tls\detail\tls_mgr.h

; 43   : 			void*				get_value(const tls_base* t, size_t slot) const { return (*this->fn_list[slot])( t, this, slot); }

  00065	56		 push	 esi
  00066	8b 04 88	 mov	 eax, DWORD PTR [eax+ecx*4]
  00069	ff d0		 call	 eax
; File E:\Proyectos\JuegosOnlineproyectos\PB\pbblow\Piercing Blow Remake\i3Server\src\i3Base\pool\pool_by_thread.cpp

; 106  : 		detail::deallocate_other_thread( &m_ap_free_block_by_size[block->size_index], block, data );

  0006b	0f b7 4f 1c	 movzx	 ecx, WORD PTR [edi+28]
  0006f	53		 push	 ebx
  00070	c1 e1 06	 shl	 ecx, 6
  00073	03 48 18	 add	 ecx, DWORD PTR [eax+24]
  00076	57		 push	 edi
  00077	51		 push	 ecx
  00078	e8 00 00 00 00	 call	 ?deallocate_other_thread@detail@i3@@YAXPAUtss_free_block_by_size@2@PAUmem_block_header@2@PAX@Z ; i3::detail::deallocate_other_thread
  0007d	83 c4 18	 add	 esp, 24			; 00000018H
  00080	5f		 pop	 edi
  00081	5e		 pop	 esi

; 127  : 	}

  00082	5b		 pop	 ebx
  00083	5d		 pop	 ebp
  00084	c2 04 00	 ret	 4
?deallocate@pool_by_thread@i3@@QAEXPAX@Z ENDP		; i3::pool_by_thread::deallocate
_TEXT	ENDS
; Function compile flags: /Ogtp
; File E:\Proyectos\JuegosOnlineproyectos\PB\pbblow\Piercing Blow Remake\i3Server\src\i3Base\pool\pool_by_thread.cpp
; File E:\Proyectos\JuegosOnlineproyectos\PB\pbblow\Piercing Blow Remake\i3Server\include\i3Base\memory\calculate_adjusted_align.h
; File E:\Proyectos\JuegosOnlineproyectos\PB\pbblow\Piercing Blow Remake\i3Server\src\i3Base\pool\pool_by_thread.cpp
; File E:\Proyectos\JuegosOnlineproyectos\PB\pbblow\Piercing Blow Remake\i3Server\include\i3Base\memory\calculate_adjusted_align.h
; File E:\Proyectos\JuegosOnlineproyectos\PB\pbblow\Piercing Blow Remake\i3Server\src\i3Base\pool\pool_by_thread.cpp
; File E:\Proyectos\JuegosOnlineproyectos\PB\pbblow\Piercing Blow Remake\i3Server\include\i3Base\memory\calculate_adjusted_align.h
; File E:\Proyectos\JuegosOnlineproyectos\PB\pbblow\Piercing Blow Remake\i3Server\include\i3Base\memory\calculate_adjusted_size.h
; File E:\Proyectos\JuegosOnlineproyectos\PB\pbblow\Piercing Blow Remake\i3Server\include\i3Base\pool\align_up_down.h
; File E:\Proyectos\JuegosOnlineproyectos\PB\pbblow\Piercing Blow Remake\i3Server\src\i3Base\pool\pool_by_thread.cpp
; File E:\Proyectos\JuegosOnlineproyectos\PB\pbblow\Piercing Blow Remake\i3Server\include\i3Base\pool\pool_size_helper.inl
; File E:\Proyectos\JuegosOnlineproyectos\PB\pbblow\Piercing Blow Remake\i3Server\include\i3Base\pool\msb.h
; File E:\Proyectos\JuegosOnlineproyectos\PB\pbblow\Piercing Blow Remake\i3Server\include\i3Base\pool\pool_size_helper.inl
; File E:\Proyectos\JuegosOnlineproyectos\PB\pbblow\Piercing Blow Remake\i3Server\src\i3Base\pool\pool_by_thread.cpp
; File E:\Proyectos\JuegosOnlineproyectos\PB\pbblow\Piercing Blow Remake\i3Server\include\i3Base\pool\pool_base.inl
; File E:\Proyectos\JuegosOnlineproyectos\PB\pbblow\Piercing Blow Remake\i3Server\src\i3Base\pool\pool_by_thread.cpp
;	COMDAT ?allocate@pool_by_thread@i3@@QAEPAXII@Z
_TEXT	SEGMENT
_size$ = 8						; size = 4
_align$ = 12						; size = 4
?allocate@pool_by_thread@i3@@QAEPAXII@Z PROC		; i3::pool_by_thread::allocate, COMDAT
; _this$ = ecx

; 79   : 	{

  00000	55		 push	 ebp
  00001	8b ec		 mov	 ebp, esp
; File E:\Proyectos\JuegosOnlineproyectos\PB\pbblow\Piercing Blow Remake\i3Server\include\i3Base\memory\calculate_adjusted_align.h

; 13   : 	size_t  calculate_adjusted_align( size_t align) {	return ( align > sizeof(void*) ) ? align : sizeof(void*); }

  00003	ba 04 00 00 00	 mov	 edx, 4
  00008	39 55 0c	 cmp	 DWORD PTR _align$[ebp], edx
; File E:\Proyectos\JuegosOnlineproyectos\PB\pbblow\Piercing Blow Remake\i3Server\src\i3Base\pool\pool_by_thread.cpp

; 79   : 	{

  0000b	53		 push	 ebx
  0000c	56		 push	 esi
; File E:\Proyectos\JuegosOnlineproyectos\PB\pbblow\Piercing Blow Remake\i3Server\include\i3Base\memory\calculate_adjusted_align.h

; 13   : 	size_t  calculate_adjusted_align( size_t align) {	return ( align > sizeof(void*) ) ? align : sizeof(void*); }

  0000d	8b f2		 mov	 esi, edx
; File E:\Proyectos\JuegosOnlineproyectos\PB\pbblow\Piercing Blow Remake\i3Server\src\i3Base\pool\pool_by_thread.cpp

; 79   : 	{

  0000f	8b d9		 mov	 ebx, ecx
; File E:\Proyectos\JuegosOnlineproyectos\PB\pbblow\Piercing Blow Remake\i3Server\include\i3Base\memory\calculate_adjusted_align.h

; 13   : 	size_t  calculate_adjusted_align( size_t align) {	return ( align > sizeof(void*) ) ? align : sizeof(void*); }

  00011	0f 47 75 0c	 cmova	 esi, DWORD PTR _align$[ebp]
; File E:\Proyectos\JuegosOnlineproyectos\PB\pbblow\Piercing Blow Remake\i3Server\include\i3Base\memory\calculate_adjusted_size.h

; 11   : 	size_t	calculate_adjusted_size( size_t size) { return ( size > sizeof(size_t) ) ? size : sizeof(size_t); }

  00015	39 55 08	 cmp	 DWORD PTR _size$[ebp], edx
  00018	0f 47 55 08	 cmova	 edx, DWORD PTR _size$[ebp]
; File E:\Proyectos\JuegosOnlineproyectos\PB\pbblow\Piercing Blow Remake\i3Server\include\i3Base\pool\align_up_down.h

; 22   : 	T		align_up(T value, uintptr_t align) { return T( ( uintptr_t(value) + align - 1 ) & ~(align - 1) ); }

  0001c	8d 42 ff	 lea	 eax, DWORD PTR [edx-1]
  0001f	03 c6		 add	 eax, esi
  00021	f7 de		 neg	 esi
  00023	23 c6		 and	 eax, esi
; File E:\Proyectos\JuegosOnlineproyectos\PB\pbblow\Piercing Blow Remake\i3Server\src\i3Base\pool\pool_by_thread.cpp

; 82   : 		if ( size >  maximum_object_size )		// └╠ ░µ┐ņ, └Ž╣▌└¹└ĖĘ╬ ├│Ė«...

  00025	3d 00 38 00 00	 cmp	 eax, 14336		; 00003800H
  0002a	76 12		 jbe	 SHORT $LN2@allocate

; 83   : 			return i3::static_large_object_cache::i()->allocate(size);

  0002c	8b 0d 00 00 00
	00		 mov	 ecx, DWORD PTR ?ms_i@?$ginst@Vstatic_large_object_cache@i3@@@i3@@0PAVstatic_large_object_cache@2@A ; i3::ginst<i3::static_large_object_cache>::ms_i
  00032	50		 push	 eax
  00033	e8 00 00 00 00	 call	 ?allocate@static_large_object_cache@i3@@QAEPAXI@Z ; i3::static_large_object_cache::allocate
  00038	5e		 pop	 esi

; 100  : 	}

  00039	5b		 pop	 ebx
  0003a	5d		 pop	 ebp
  0003b	c2 08 00	 ret	 8
$LN2@allocate:
; File E:\Proyectos\JuegosOnlineproyectos\PB\pbblow\Piercing Blow Remake\i3Server\include\i3Base\pool\pool_size_helper.inl

; 16   : 		if (aligned_size <=  sizeof(void*) *  16 )					

  0003e	8d 70 ff	 lea	 esi, DWORD PTR [eax-1]
  00041	83 f8 40	 cmp	 eax, 64			; 00000040H
  00044	77 05		 ja	 SHORT $LN13@allocate

; 17   : 			return ( aligned_size - 1) >> align_index_shift;			

  00046	c1 ee 02	 shr	 esi, 2
  00049	eb 0e		 jmp	 SHORT $LN12@allocate
$LN13@allocate:
; File E:\Proyectos\JuegosOnlineproyectos\PB\pbblow\Piercing Blow Remake\i3Server\include\i3Base\pool\msb.h

; 11   : 	DWORD	msb32( DWORD val) {	DWORD result;	 _BitScanReverse(&result, val);	return result;  }

  0004b	0f bd ce	 bsr	 ecx, esi
; File E:\Proyectos\JuegosOnlineproyectos\PB\pbblow\Piercing Blow Remake\i3Server\include\i3Base\pool\pool_size_helper.inl

; 21   : 		size_t offset = ((aligned_size - 1) >> (MSB-2)) - 4;			

  0004e	83 c1 fe	 add	 ecx, -2			; fffffffeH
  00051	d3 ee		 shr	 esi, cl
  00053	8d 34 8e	 lea	 esi, DWORD PTR [esi+ecx*4]
  00056	83 c6 fc	 add	 esi, -4			; fffffffcH
$LN12@allocate:
  00059	57		 push	 edi
; File E:\Proyectos\JuegosOnlineproyectos\PB\pbblow\Piercing Blow Remake\i3Server\src\i3Base\pool\pool_by_thread.cpp

; 89   : 		mem_block_header*& ref_active_block = m_ap_pool_by_size[size_index].m_active_block;

  0005a	8b 7b 14	 mov	 edi, DWORD PTR [ebx+20]
  0005d	8d 04 b5 00 00
	00 00		 lea	 eax, DWORD PTR [esi*4]
  00064	03 f8		 add	 edi, eax

; 90   : 
; 91   : 		if ((result = detail::allocate_from_active_blocks( ref_active_block )) != NULL )

  00066	57		 push	 edi
  00067	e8 00 00 00 00	 call	 ?allocate_from_active_blocks@detail@i3@@YAPAXAAPAUmem_block_header@2@@Z ; i3::detail::allocate_from_active_blocks
  0006c	83 c4 04	 add	 esp, 4
  0006f	85 c0		 test	 eax, eax
  00071	75 33		 jne	 SHORT $LN27@allocate

; 92   : 			return result;
; 93   : 
; 94   : 		//  active_block == NULL└ė.. (Ė­Ąń ║ĒĘŽ└Ū prev/next ĖĄ┼®░Ī Ė­Ą╬ ▒·┴«└ųŠŅŠ▀Ūį..)  tss└Ū Ū┴Ė« Ė«Į║Ų«Ė” Ą┌┴«║╝░═.!!
; 95   : 		if ((result = detail::allocate_from_tss_blocks(ref_active_block, &m_ap_free_block_by_size[size_index] )) != NULL )

  00073	8b c6		 mov	 eax, esi
  00075	c1 e0 06	 shl	 eax, 6
  00078	03 43 18	 add	 eax, DWORD PTR [ebx+24]
  0007b	50		 push	 eax
  0007c	57		 push	 edi
  0007d	e8 00 00 00 00	 call	 ?allocate_from_tss_blocks@detail@i3@@YAPAXAAPAUmem_block_header@2@PAUtss_free_block_by_size@2@@Z ; i3::detail::allocate_from_tss_blocks
  00082	83 c4 08	 add	 esp, 8
  00085	85 c0		 test	 eax, eax
  00087	75 1d		 jne	 SHORT $LN27@allocate
; File E:\Proyectos\JuegosOnlineproyectos\PB\pbblow\Piercing Blow Remake\i3Server\include\i3Base\pool\pool_base.inl

; 35   : 		mem_block_header* block = get_new_block(threadID, size_index, actual_size);

  00089	ff 34 b5 00 00
	00 00		 push	 DWORD PTR ?g_actual_size_table@detail@i3@@3Vconvert_size_idx_to_actual_size_table@12@B[esi*4]
  00090	8b cb		 mov	 ecx, ebx
  00092	56		 push	 esi
  00093	ff 73 10	 push	 DWORD PTR [ebx+16]
  00096	e8 00 00 00 00	 call	 ?get_new_block@pool_base@i3@@AAEPAUmem_block_header@2@KII@Z ; i3::pool_base::get_new_block

; 36   : 		active_block = block;								// Ūū╗¾ ┴Ė└ń..	
; 37   : 		return detail::allocate_from_alloc_ptr(block);		// Ūū╗¾ ╝║░°ŪžŠ▀Ūį..free_list░Ī Š°└Ė╣ŪĘ╬ └╠ Ūį╝÷ĖĖ...

  0009b	50		 push	 eax
  0009c	89 07		 mov	 DWORD PTR [edi], eax
  0009e	e8 00 00 00 00	 call	 ?allocate_from_alloc_ptr@detail@i3@@YAPAXPAUmem_block_header@2@@Z ; i3::detail::allocate_from_alloc_ptr
  000a3	83 c4 04	 add	 esp, 4
$LN27@allocate:
  000a6	5f		 pop	 edi
  000a7	5e		 pop	 esi
; File E:\Proyectos\JuegosOnlineproyectos\PB\pbblow\Piercing Blow Remake\i3Server\src\i3Base\pool\pool_by_thread.cpp

; 100  : 	}

  000a8	5b		 pop	 ebx
  000a9	5d		 pop	 ebp
  000aa	c2 08 00	 ret	 8
?allocate@pool_by_thread@i3@@QAEPAXII@Z ENDP		; i3::pool_by_thread::allocate
_TEXT	ENDS
; Function compile flags: /Ogtp
; File E:\Proyectos\JuegosOnlineproyectos\PB\pbblow\Piercing Blow Remake\i3Server\src\i3Base\pool\pool_by_thread.cpp
; File E:\Proyectos\JuegosOnlineproyectos\PB\pbblow\Piercing Blow Remake\i3Server\include\i3Base\tls\detail\tls_mgr.inl
; File E:\Proyectos\JuegosOnlineproyectos\PB\pbblow\Piercing Blow Remake\i3Server\src\i3Base\pool\pool_by_thread.cpp
; File E:\Proyectos\JuegosOnlineproyectos\PB\pbblow\Piercing Blow Remake\i3Server\include\i3Base\itl\detail\vector.h
; File E:\Proyectos\JuegosOnlineproyectos\PB\pbblow\Piercing Blow Remake\i3Server\include\i3Base\tls\detail\tls_mgr.inl
; File E:\Proyectos\JuegosOnlineproyectos\PB\pbblow\Piercing Blow Remake\i3Server\include\i3Base\memory\memory_alloc.inl
; File E:\Proyectos\JuegosOnlineproyectos\PB\pbblow\Piercing Blow Remake\i3Server\include\i3Base\memory\memory_aligned_apply.h
; File E:\Proyectos\JuegosOnlineproyectos\PB\pbblow\Piercing Blow Remake\i3Server\include\i3Base\memory\memory_alloc.inl
; File E:\Proyectos\JuegosOnlineproyectos\PB\pbblow\Piercing Blow Remake\i3Server\src\i3Base\pool\pool_by_thread.cpp
; File E:\Proyectos\JuegosOnlineproyectos\PB\pbblow\Piercing Blow Remake\i3Server\include\i3Base\tls\detail\tls_mgr.inl
; File E:\Proyectos\JuegosOnlineproyectos\PB\pbblow\Piercing Blow Remake\i3Server\include\i3Base\memory\memory_alloc.inl
; File E:\Proyectos\JuegosOnlineproyectos\PB\pbblow\Piercing Blow Remake\i3Server\include\i3Base\pool\pool_base.inl
; File E:\Proyectos\JuegosOnlineproyectos\PB\pbblow\Piercing Blow Remake\i3Server\src\i3Base\pool\pool_by_thread.cpp
;	COMDAT ??1pool_by_thread@i3@@QAE@XZ
_TEXT	SEGMENT
__$EHRec$ = -12						; size = 12
??1pool_by_thread@i3@@QAE@XZ PROC			; i3::pool_by_thread::~pool_by_thread, COMDAT
; _this$ = ecx

; 53   : 	{

  00000	55		 push	 ebp
  00001	8b ec		 mov	 ebp, esp
  00003	6a ff		 push	 -1
  00005	68 00 00 00 00	 push	 __ehhandler$??1pool_by_thread@i3@@QAE@XZ
  0000a	64 a1 00 00 00
	00		 mov	 eax, DWORD PTR fs:0
  00010	50		 push	 eax
  00011	53		 push	 ebx
  00012	56		 push	 esi
  00013	a1 00 00 00 00	 mov	 eax, DWORD PTR ___security_cookie
  00018	33 c5		 xor	 eax, ebp
  0001a	50		 push	 eax
  0001b	8d 45 f4	 lea	 eax, DWORD PTR __$EHRec$[ebp]
  0001e	64 a3 00 00 00
	00		 mov	 DWORD PTR fs:0, eax
  00024	8b f1		 mov	 esi, ecx

; 54   : 		DWORD threadID = shared_tls_type::get_thread_id();

  00026	8b 46 10	 mov	 eax, DWORD PTR [esi+16]
; File E:\Proyectos\JuegosOnlineproyectos\PB\pbblow\Piercing Blow Remake\i3Server\include\i3Base\tls\detail\tls_mgr.inl

; 141  : 		void		thread_data::tls_aligned_free(void* ptr) const { i3::heap_aligned_free(this->heapTls, ptr); }

  00029	8b 15 18 00 00
	00		 mov	 edx, DWORD PTR ?g_TlsManager@detail_tls@i3@@3Vtls_mgr@12@A+24
; File E:\Proyectos\JuegosOnlineproyectos\PB\pbblow\Piercing Blow Remake\i3Server\src\i3Base\pool\pool_by_thread.cpp

; 55   : 		i3::tls_aligned_free(threadID, m_ap_free_block_by_size);

  0002f	8b 4e 18	 mov	 ecx, DWORD PTR [esi+24]
; File E:\Proyectos\JuegosOnlineproyectos\PB\pbblow\Piercing Blow Remake\i3Server\include\i3Base\itl\detail\vector.h

; 160  : 		const_reference operator[](size_type Pos) const	{	return (*(m_first + Pos));	}

  00032	8d 1c 85 00 00
	00 00		 lea	 ebx, DWORD PTR [eax*4]
; File E:\Proyectos\JuegosOnlineproyectos\PB\pbblow\Piercing Blow Remake\i3Server\include\i3Base\tls\detail\tls_mgr.inl

; 141  : 		void		thread_data::tls_aligned_free(void* ptr) const { i3::heap_aligned_free(this->heapTls, ptr); }

  00039	8b 04 13	 mov	 eax, DWORD PTR [ebx+edx]
; File E:\Proyectos\JuegosOnlineproyectos\PB\pbblow\Piercing Blow Remake\i3Server\include\i3Base\memory\memory_alloc.inl

; 108  : 		if (!data) return;

  0003c	85 c9		 test	 ecx, ecx
  0003e	74 17		 je	 SHORT $LN14@pool_by_th
; File E:\Proyectos\JuegosOnlineproyectos\PB\pbblow\Piercing Blow Remake\i3Server\include\i3Base\memory\memory_aligned_apply.h

; 33   : 		ptr = ( ptr & ~( sizeof(void*) -1 ) ) - sizeof(void*);

  00040	83 e1 fc	 and	 ecx, -4			; fffffffcH
; File E:\Proyectos\JuegosOnlineproyectos\PB\pbblow\Piercing Blow Remake\i3Server\include\i3Base\memory\memory_alloc.inl

; 109  : 		::HeapFree(HANDLE(h), 0, get_raw_data_from_aligned_malloc(data) );

  00043	ff 71 fc	 push	 DWORD PTR [ecx-4]
  00046	6a 00		 push	 0
  00048	ff 70 20	 push	 DWORD PTR [eax+32]
  0004b	ff 15 00 00 00
	00		 call	 DWORD PTR __imp__HeapFree@12
  00051	8b 15 18 00 00
	00		 mov	 edx, DWORD PTR ?g_TlsManager@detail_tls@i3@@3Vtls_mgr@12@A+24
$LN14@pool_by_th:
; File E:\Proyectos\JuegosOnlineproyectos\PB\pbblow\Piercing Blow Remake\i3Server\src\i3Base\pool\pool_by_thread.cpp

; 56   : 		i3::tls_free( threadID, m_ap_pool_by_size );

  00057	8b 4e 14	 mov	 ecx, DWORD PTR [esi+20]
; File E:\Proyectos\JuegosOnlineproyectos\PB\pbblow\Piercing Blow Remake\i3Server\include\i3Base\tls\detail\tls_mgr.inl

; 135  : 		void		thread_data::tls_free(void* ptr) const 	{	i3::heap_free(this->heapTls, ptr);	}

  0005a	8b 04 13	 mov	 eax, DWORD PTR [ebx+edx]
; File E:\Proyectos\JuegosOnlineproyectos\PB\pbblow\Piercing Blow Remake\i3Server\include\i3Base\memory\memory_alloc.inl

; 93   : 		if (!data) return;

  0005d	85 c9		 test	 ecx, ecx
  0005f	74 0c		 je	 SHORT $LN29@pool_by_th

; 94   : 		::HeapFree(HANDLE(h), 0, data);		// │╬░╦╗ń┴ż└Ū░Ī Š°┤┘..

  00061	51		 push	 ecx
  00062	6a 00		 push	 0
  00064	ff 70 20	 push	 DWORD PTR [eax+32]
  00067	ff 15 00 00 00
	00		 call	 DWORD PTR __imp__HeapFree@12
$LN29@pool_by_th:
; File E:\Proyectos\JuegosOnlineproyectos\PB\pbblow\Piercing Blow Remake\i3Server\include\i3Base\pool\pool_base.inl

; 48   : 		pool_base::clean_up( i3::shared_tls<D>::get_thread_id() );

  0006d	ff 76 10	 push	 DWORD PTR [esi+16]
  00070	8b ce		 mov	 ecx, esi
  00072	c7 45 fc 00 00
	00 00		 mov	 DWORD PTR __$EHRec$[ebp+8], 0
  00079	e8 00 00 00 00	 call	 ?clean_up@pool_base@i3@@IAEXK@Z ; i3::pool_base::clean_up

; 49   : 	}

  0007e	8b ce		 mov	 ecx, esi
  00080	e8 00 00 00 00	 call	 ??1pool_base@i3@@IAE@XZ	; i3::pool_base::~pool_base
; File E:\Proyectos\JuegosOnlineproyectos\PB\pbblow\Piercing Blow Remake\i3Server\src\i3Base\pool\pool_by_thread.cpp

; 57   : 	}

  00085	8b 4d f4	 mov	 ecx, DWORD PTR __$EHRec$[ebp]
  00088	64 89 0d 00 00
	00 00		 mov	 DWORD PTR fs:0, ecx
  0008f	59		 pop	 ecx
  00090	5e		 pop	 esi
  00091	5b		 pop	 ebx
  00092	8b e5		 mov	 esp, ebp
  00094	5d		 pop	 ebp
  00095	c3		 ret	 0
  00096	cc		 int	 3
  00097	cc		 int	 3
  00098	cc		 int	 3
  00099	cc		 int	 3
  0009a	cc		 int	 3
_TEXT	ENDS
;	COMDAT text$x
text$x	SEGMENT
__ehhandler$??1pool_by_thread@i3@@QAE@XZ:
  00000	90		 npad	 1
  00001	90		 npad	 1
  00002	8b 54 24 08	 mov	 edx, DWORD PTR [esp+8]
  00006	8d 42 0c	 lea	 eax, DWORD PTR [edx+12]
  00009	8b 4a f4	 mov	 ecx, DWORD PTR [edx-12]
  0000c	33 c8		 xor	 ecx, eax
  0000e	e8 00 00 00 00	 call	 @__security_check_cookie@4
  00013	b8 00 00 00 00	 mov	 eax, OFFSET __ehfuncinfo$??1pool_by_thread@i3@@QAE@XZ
  00018	e9 00 00 00 00	 jmp	 ___CxxFrameHandler3
text$x	ENDS
??1pool_by_thread@i3@@QAE@XZ ENDP			; i3::pool_by_thread::~pool_by_thread
; Function compile flags: /Ogtp
; File E:\Proyectos\JuegosOnlineproyectos\PB\pbblow\Piercing Blow Remake\i3Server\src\i3Base\pool\pool_by_thread.cpp
; File E:\Proyectos\JuegosOnlineproyectos\PB\pbblow\Piercing Blow Remake\i3Server\include\i3Base\pool\pool_base.inl
; File E:\Proyectos\JuegosOnlineproyectos\PB\pbblow\Piercing Blow Remake\i3Server\src\i3Base\pool\pool_by_thread.cpp
; File E:\Proyectos\JuegosOnlineproyectos\PB\pbblow\Piercing Blow Remake\i3Server\include\i3Base\pool\pool_base.inl
; File E:\Proyectos\JuegosOnlineproyectos\PB\pbblow\Piercing Blow Remake\i3Server\src\i3Base\pool\pool_by_thread.cpp
;	COMDAT ??0pool_by_thread@i3@@QAE@XZ
_TEXT	SEGMENT
_this$ = -4						; size = 4
??0pool_by_thread@i3@@QAE@XZ PROC			; i3::pool_by_thread::pool_by_thread, COMDAT
; _this$ = ecx

; 48   : 	{

  00000	55		 push	 ebp
  00001	8b ec		 mov	 ebp, esp
  00003	51		 push	 ecx
  00004	56		 push	 esi
  00005	8b f1		 mov	 esi, ecx
; File E:\Proyectos\JuegosOnlineproyectos\PB\pbblow\Piercing Blow Remake\i3Server\include\i3Base\pool\pool_base.inl

; 41   : 	pool_tls_base<D>::pool_tls_base(size_t init_memory_size) : pool_base(init_memory_size)

  00007	68 00 00 10 00	 push	 1048576			; 00100000H
; File E:\Proyectos\JuegosOnlineproyectos\PB\pbblow\Piercing Blow Remake\i3Server\src\i3Base\pool\pool_by_thread.cpp

; 48   : 	{

  0000c	89 75 fc	 mov	 DWORD PTR _this$[ebp], esi
; File E:\Proyectos\JuegosOnlineproyectos\PB\pbblow\Piercing Blow Remake\i3Server\include\i3Base\pool\pool_base.inl

; 41   : 	pool_tls_base<D>::pool_tls_base(size_t init_memory_size) : pool_base(init_memory_size)

  0000f	e8 00 00 00 00	 call	 ??0pool_base@i3@@IAE@I@Z ; i3::pool_base::pool_base
; File E:\Proyectos\JuegosOnlineproyectos\PB\pbblow\Piercing Blow Remake\i3Server\src\i3Base\pool\pool_by_thread.cpp

; 47   : 		m_ap_pool_by_size(NULL), m_ap_free_block_by_size(NULL)

  00014	c7 46 14 00 00
	00 00		 mov	 DWORD PTR [esi+20], 0

; 49   : 
; 50   : 	}

  0001b	8b c6		 mov	 eax, esi
  0001d	c7 46 18 00 00
	00 00		 mov	 DWORD PTR [esi+24], 0
  00024	5e		 pop	 esi
  00025	8b e5		 mov	 esp, ebp
  00027	5d		 pop	 ebp
  00028	c3		 ret	 0
??0pool_by_thread@i3@@QAE@XZ ENDP			; i3::pool_by_thread::pool_by_thread
_TEXT	ENDS
; Function compile flags: /Ogtp
; File E:\Proyectos\JuegosOnlineproyectos\PB\pbblow\Piercing Blow Remake\i3Server\include\i3Base\pool\pool_base.inl
;	COMDAT ??1?$pool_tls_base@Vpool_by_thread@i3@@@i3@@IAE@XZ
_TEXT	SEGMENT
__$EHRec$ = -12						; size = 12
??1?$pool_tls_base@Vpool_by_thread@i3@@@i3@@IAE@XZ PROC	; i3::pool_tls_base<i3::pool_by_thread>::~pool_tls_base<i3::pool_by_thread>, COMDAT
; _this$ = ecx

; 47   : 	{

  00000	55		 push	 ebp
  00001	8b ec		 mov	 ebp, esp
  00003	6a ff		 push	 -1
  00005	68 00 00 00 00	 push	 __ehhandler$??1?$pool_tls_base@Vpool_by_thread@i3@@@i3@@IAE@XZ
  0000a	64 a1 00 00 00
	00		 mov	 eax, DWORD PTR fs:0
  00010	50		 push	 eax
  00011	56		 push	 esi
  00012	a1 00 00 00 00	 mov	 eax, DWORD PTR ___security_cookie
  00017	33 c5		 xor	 eax, ebp
  00019	50		 push	 eax
  0001a	8d 45 f4	 lea	 eax, DWORD PTR __$EHRec$[ebp]
  0001d	64 a3 00 00 00
	00		 mov	 DWORD PTR fs:0, eax
  00023	8b f1		 mov	 esi, ecx

; 48   : 		pool_base::clean_up( i3::shared_tls<D>::get_thread_id() );

  00025	ff 76 10	 push	 DWORD PTR [esi+16]
  00028	e8 00 00 00 00	 call	 ?clean_up@pool_base@i3@@IAEXK@Z ; i3::pool_base::clean_up

; 49   : 	}

  0002d	8b ce		 mov	 ecx, esi
  0002f	e8 00 00 00 00	 call	 ??1pool_base@i3@@IAE@XZ	; i3::pool_base::~pool_base
  00034	8b 4d f4	 mov	 ecx, DWORD PTR __$EHRec$[ebp]
  00037	64 89 0d 00 00
	00 00		 mov	 DWORD PTR fs:0, ecx
  0003e	59		 pop	 ecx
  0003f	5e		 pop	 esi
  00040	8b e5		 mov	 esp, ebp
  00042	5d		 pop	 ebp
  00043	c3		 ret	 0
  00044	cc		 int	 3
  00045	cc		 int	 3
  00046	cc		 int	 3
  00047	cc		 int	 3
  00048	cc		 int	 3
_TEXT	ENDS
;	COMDAT text$x
text$x	SEGMENT
__ehhandler$??1?$pool_tls_base@Vpool_by_thread@i3@@@i3@@IAE@XZ:
  00000	90		 npad	 1
  00001	90		 npad	 1
  00002	8b 54 24 08	 mov	 edx, DWORD PTR [esp+8]
  00006	8d 42 0c	 lea	 eax, DWORD PTR [edx+12]
  00009	8b 4a f8	 mov	 ecx, DWORD PTR [edx-8]
  0000c	33 c8		 xor	 ecx, eax
  0000e	e8 00 00 00 00	 call	 @__security_check_cookie@4
  00013	b8 00 00 00 00	 mov	 eax, OFFSET __ehfuncinfo$??1?$pool_tls_base@Vpool_by_thread@i3@@@i3@@IAE@XZ
  00018	e9 00 00 00 00	 jmp	 ___CxxFrameHandler3
text$x	ENDS
??1?$pool_tls_base@Vpool_by_thread@i3@@@i3@@IAE@XZ ENDP	; i3::pool_tls_base<i3::pool_by_thread>::~pool_tls_base<i3::pool_by_thread>
; Function compile flags: /Ogtp
; File E:\Proyectos\JuegosOnlineproyectos\PB\pbblow\Piercing Blow Remake\i3Server\include\i3Base\pool\pool_base.inl
;	COMDAT ??0?$pool_tls_base@Vpool_by_thread@i3@@@i3@@IAE@I@Z
_TEXT	SEGMENT
_this$ = -4						; size = 4
_init_memory_size$ = 8					; size = 4
??0?$pool_tls_base@Vpool_by_thread@i3@@@i3@@IAE@I@Z PROC ; i3::pool_tls_base<i3::pool_by_thread>::pool_tls_base<i3::pool_by_thread>, COMDAT
; _this$ = ecx

; 42   : 	{

  00000	55		 push	 ebp
  00001	8b ec		 mov	 ebp, esp
  00003	51		 push	 ecx
  00004	56		 push	 esi
  00005	ff 75 08	 push	 DWORD PTR _init_memory_size$[ebp]
  00008	8b f1		 mov	 esi, ecx
  0000a	89 75 fc	 mov	 DWORD PTR _this$[ebp], esi
  0000d	e8 00 00 00 00	 call	 ??0pool_base@i3@@IAE@I@Z ; i3::pool_base::pool_base

; 43   : 	}

  00012	8b c6		 mov	 eax, esi
  00014	5e		 pop	 esi
  00015	8b e5		 mov	 esp, ebp
  00017	5d		 pop	 ebp
  00018	c2 04 00	 ret	 4
??0?$pool_tls_base@Vpool_by_thread@i3@@@i3@@IAE@I@Z ENDP ; i3::pool_tls_base<i3::pool_by_thread>::pool_tls_base<i3::pool_by_thread>
_TEXT	ENDS
; Function compile flags: /Ogtp
;	COMDAT ??4?$shared_tls@Vpool_by_thread@i3@@@i3@@QAEAAV01@$$QAV01@@Z
_TEXT	SEGMENT
___that$ = 8						; size = 4
??4?$shared_tls@Vpool_by_thread@i3@@@i3@@QAEAAV01@$$QAV01@@Z PROC ; i3::shared_tls<i3::pool_by_thread>::operator=, COMDAT
; _this$ = ecx
  00000	55		 push	 ebp
  00001	8b ec		 mov	 ebp, esp
  00003	8b 55 08	 mov	 edx, DWORD PTR ___that$[ebp]
  00006	8b 02		 mov	 eax, DWORD PTR [edx]
  00008	89 01		 mov	 DWORD PTR [ecx], eax
  0000a	8b 42 04	 mov	 eax, DWORD PTR [edx+4]
  0000d	89 41 04	 mov	 DWORD PTR [ecx+4], eax
  00010	8b c1		 mov	 eax, ecx
  00012	5d		 pop	 ebp
  00013	c2 04 00	 ret	 4
??4?$shared_tls@Vpool_by_thread@i3@@@i3@@QAEAAV01@$$QAV01@@Z ENDP ; i3::shared_tls<i3::pool_by_thread>::operator=
_TEXT	ENDS
; Function compile flags: /Ogtp
;	COMDAT ??4?$shared_tls@Vpool_by_thread@i3@@@i3@@QAEAAV01@ABV01@@Z
_TEXT	SEGMENT
___that$ = 8						; size = 4
??4?$shared_tls@Vpool_by_thread@i3@@@i3@@QAEAAV01@ABV01@@Z PROC ; i3::shared_tls<i3::pool_by_thread>::operator=, COMDAT
; _this$ = ecx
  00000	55		 push	 ebp
  00001	8b ec		 mov	 ebp, esp
  00003	8b 45 08	 mov	 eax, DWORD PTR ___that$[ebp]
  00006	8b 10		 mov	 edx, DWORD PTR [eax]
  00008	8b 40 04	 mov	 eax, DWORD PTR [eax+4]
  0000b	89 41 04	 mov	 DWORD PTR [ecx+4], eax
  0000e	8b c1		 mov	 eax, ecx
  00010	89 11		 mov	 DWORD PTR [ecx], edx
  00012	5d		 pop	 ebp
  00013	c2 04 00	 ret	 4
??4?$shared_tls@Vpool_by_thread@i3@@@i3@@QAEAAV01@ABV01@@Z ENDP ; i3::shared_tls<i3::pool_by_thread>::operator=
_TEXT	ENDS
; Function compile flags: /Ogtp
; File E:\Proyectos\JuegosOnlineproyectos\PB\pbblow\Piercing Blow Remake\i3Server\include\i3Base\tls\tls_ptr.h
;	COMDAT ?on_create@?$shared_tls@Vpool_by_thread@i3@@@i3@@AAEXPAV?$tls_ptr@Vpool_by_thread@i3@@@2@K@Z
_TEXT	SEGMENT
_tls$ = 8						; size = 4
_threadID$ = 12						; size = 4
?on_create@?$shared_tls@Vpool_by_thread@i3@@@i3@@AAEXPAV?$tls_ptr@Vpool_by_thread@i3@@@2@K@Z PROC ; i3::shared_tls<i3::pool_by_thread>::on_create, COMDAT
; _this$ = ecx

; 70   : 		void			on_create(tls_ptr<T>* tls, DWORD threadID) {	m_pShared = tls;	m_threadID = threadID;	static_cast<T*>(this)->T::on_create_tls();   }

  00000	55		 push	 ebp
  00001	8b ec		 mov	 ebp, esp
  00003	8b 45 08	 mov	 eax, DWORD PTR _tls$[ebp]
  00006	89 01		 mov	 DWORD PTR [ecx], eax
  00008	8b 45 0c	 mov	 eax, DWORD PTR _threadID$[ebp]
  0000b	89 41 04	 mov	 DWORD PTR [ecx+4], eax
  0000e	8d 41 f4	 lea	 eax, DWORD PTR [ecx-12]
  00011	f7 d9		 neg	 ecx
  00013	1b c9		 sbb	 ecx, ecx
  00015	23 c8		 and	 ecx, eax
  00017	e8 00 00 00 00	 call	 ?on_create_tls@pool_by_thread@i3@@QAEXXZ ; i3::pool_by_thread::on_create_tls
  0001c	5d		 pop	 ebp
  0001d	c2 08 00	 ret	 8
?on_create@?$shared_tls@Vpool_by_thread@i3@@@i3@@AAEXPAV?$tls_ptr@Vpool_by_thread@i3@@@2@K@Z ENDP ; i3::shared_tls<i3::pool_by_thread>::on_create
_TEXT	ENDS
; Function compile flags: /Ogtp
; File E:\Proyectos\JuegosOnlineproyectos\PB\pbblow\Piercing Blow Remake\i3Server\include\i3Base\tls\tls_ptr.h
;	COMDAT ?on_create_tls@?$shared_tls@Vpool_by_thread@i3@@@i3@@QAEXXZ
_TEXT	SEGMENT
?on_create_tls@?$shared_tls@Vpool_by_thread@i3@@@i3@@QAEXXZ PROC ; i3::shared_tls<i3::pool_by_thread>::on_create_tls, COMDAT
; _this$ = ecx

; 64   : 		void			on_create_tls() {}				// ┴ż└¹ ┤┘Ū³╝║└╠ ░Ī┤╔Ūį...(░Ī╗¾Ūį╝÷Ę╬ Ą╬┴÷ Ė╗░═!)

  00000	c2 00 00	 ret	 0
?on_create_tls@?$shared_tls@Vpool_by_thread@i3@@@i3@@QAEXXZ ENDP ; i3::shared_tls<i3::pool_by_thread>::on_create_tls
_TEXT	ENDS
; Function compile flags: /Ogtp
; File E:\Proyectos\JuegosOnlineproyectos\PB\pbblow\Piercing Blow Remake\i3Server\include\i3Base\tls\tls_ptr.h
;	COMDAT ?get_thread_id@?$shared_tls@Vpool_by_thread@i3@@@i3@@QBEKXZ
_TEXT	SEGMENT
?get_thread_id@?$shared_tls@Vpool_by_thread@i3@@@i3@@QBEKXZ PROC ; i3::shared_tls<i3::pool_by_thread>::get_thread_id, COMDAT
; _this$ = ecx

; 63   : 		DWORD			get_thread_id() const { return m_threadID; }

  00000	8b 41 04	 mov	 eax, DWORD PTR [ecx+4]
  00003	c3		 ret	 0
?get_thread_id@?$shared_tls@Vpool_by_thread@i3@@@i3@@QBEKXZ ENDP ; i3::shared_tls<i3::pool_by_thread>::get_thread_id
_TEXT	ENDS
; Function compile flags: /Ogtp
; File E:\Proyectos\JuegosOnlineproyectos\PB\pbblow\Piercing Blow Remake\i3Server\include\i3Base\tls\tls_ptr.h
; File E:\Proyectos\JuegosOnlineproyectos\PB\pbblow\Piercing Blow Remake\i3Server\include\i3Base\tls\detail\tls_base.h
; File E:\Proyectos\JuegosOnlineproyectos\PB\pbblow\Piercing Blow Remake\i3Server\include\i3Base\tls\tls_ptr.h
; File E:\Proyectos\JuegosOnlineproyectos\PB\pbblow\Piercing Blow Remake\i3Server\include\i3Base\tls\detail\tls_base.h
; File E:\Proyectos\JuegosOnlineproyectos\PB\pbblow\Piercing Blow Remake\i3Server\include\i3Base\tls\detail\tls_mgr.h
; File E:\Proyectos\JuegosOnlineproyectos\PB\pbblow\Piercing Blow Remake\i3Server\include\i3Base\itl\detail\vector.h
; File E:\Proyectos\JuegosOnlineproyectos\PB\pbblow\Piercing Blow Remake\i3Server\include\i3Base\tls\detail\tls_mgr.h
; File E:\Proyectos\JuegosOnlineproyectos\PB\pbblow\Piercing Blow Remake\i3Server\include\i3Base\tls\tls_ptr.h
;	COMDAT ?get_by_thread_id@?$shared_tls@Vpool_by_thread@i3@@@i3@@QBEPAVpool_by_thread@2@K@Z
_TEXT	SEGMENT
_threadID$ = 8						; size = 4
?get_by_thread_id@?$shared_tls@Vpool_by_thread@i3@@@i3@@QBEPAVpool_by_thread@2@K@Z PROC ; i3::shared_tls<i3::pool_by_thread>::get_by_thread_id, COMDAT
; _this$ = ecx

; 62   : 		T*				get_by_thread_id(DWORD threadID) const { return m_pShared->get_by_thread_id(threadID); }

  00000	55		 push	 ebp
  00001	8b ec		 mov	 ebp, esp
; File E:\Proyectos\JuegosOnlineproyectos\PB\pbblow\Piercing Blow Remake\i3Server\include\i3Base\tls\detail\tls_base.h

; 75   : 		detail_tls::thread_data* td = detail_tls::get_thread_data(hthread);

  00003	a1 18 00 00 00	 mov	 eax, DWORD PTR ?g_TlsManager@detail_tls@i3@@3Vtls_mgr@12@A+24
; File E:\Proyectos\JuegosOnlineproyectos\PB\pbblow\Piercing Blow Remake\i3Server\include\i3Base\tls\tls_ptr.h

; 62   : 		T*				get_by_thread_id(DWORD threadID) const { return m_pShared->get_by_thread_id(threadID); }

  00008	56		 push	 esi
  00009	8b 31		 mov	 esi, DWORD PTR [ecx]
; File E:\Proyectos\JuegosOnlineproyectos\PB\pbblow\Piercing Blow Remake\i3Server\include\i3Base\tls\detail\tls_base.h

; 75   : 		detail_tls::thread_data* td = detail_tls::get_thread_data(hthread);

  0000b	8b 4d 08	 mov	 ecx, DWORD PTR _threadID$[ebp]
  0000e	8b 14 88	 mov	 edx, DWORD PTR [eax+ecx*4]

; 76   : 		return td->get_value(this, m_slotidx);

  00011	8b 4e 04	 mov	 ecx, DWORD PTR [esi+4]
; File E:\Proyectos\JuegosOnlineproyectos\PB\pbblow\Piercing Blow Remake\i3Server\include\i3Base\tls\detail\tls_mgr.h

; 43   : 			void*				get_value(const tls_base* t, size_t slot) const { return (*this->fn_list[slot])( t, this, slot); }

  00014	51		 push	 ecx
  00015	52		 push	 edx
; File E:\Proyectos\JuegosOnlineproyectos\PB\pbblow\Piercing Blow Remake\i3Server\include\i3Base\itl\detail\vector.h

; 160  : 		const_reference operator[](size_type Pos) const	{	return (*(m_first + Pos));	}

  00016	8b 42 04	 mov	 eax, DWORD PTR [edx+4]
; File E:\Proyectos\JuegosOnlineproyectos\PB\pbblow\Piercing Blow Remake\i3Server\include\i3Base\tls\detail\tls_mgr.h

; 43   : 			void*				get_value(const tls_base* t, size_t slot) const { return (*this->fn_list[slot])( t, this, slot); }

  00019	56		 push	 esi
  0001a	8b 04 88	 mov	 eax, DWORD PTR [eax+ecx*4]
  0001d	ff d0		 call	 eax
  0001f	83 c4 0c	 add	 esp, 12			; 0000000cH
; File E:\Proyectos\JuegosOnlineproyectos\PB\pbblow\Piercing Blow Remake\i3Server\include\i3Base\tls\tls_ptr.h

; 62   : 		T*				get_by_thread_id(DWORD threadID) const { return m_pShared->get_by_thread_id(threadID); }

  00022	5e		 pop	 esi
  00023	5d		 pop	 ebp
  00024	c2 04 00	 ret	 4
?get_by_thread_id@?$shared_tls@Vpool_by_thread@i3@@@i3@@QBEPAVpool_by_thread@2@K@Z ENDP ; i3::shared_tls<i3::pool_by_thread>::get_by_thread_id
_TEXT	ENDS
; Function compile flags: /Ogtp
; File E:\Proyectos\JuegosOnlineproyectos\PB\pbblow\Piercing Blow Remake\i3Server\include\i3Base\tls\tls_ptr.h
;	COMDAT ?get_tls_ptr@?$shared_tls@Vpool_by_thread@i3@@@i3@@QBEAAV?$tls_ptr@Vpool_by_thread@i3@@@2@XZ
_TEXT	SEGMENT
?get_tls_ptr@?$shared_tls@Vpool_by_thread@i3@@@i3@@QBEAAV?$tls_ptr@Vpool_by_thread@i3@@@2@XZ PROC ; i3::shared_tls<i3::pool_by_thread>::get_tls_ptr, COMDAT
; _this$ = ecx

; 61   : 		tls_ptr<T>&		get_tls_ptr() const { return *m_pShared; }

  00000	8b 01		 mov	 eax, DWORD PTR [ecx]
  00002	c3		 ret	 0
?get_tls_ptr@?$shared_tls@Vpool_by_thread@i3@@@i3@@QBEAAV?$tls_ptr@Vpool_by_thread@i3@@@2@XZ ENDP ; i3::shared_tls<i3::pool_by_thread>::get_tls_ptr
_TEXT	ENDS
; Function compile flags: /Ogtp
; File E:\Proyectos\JuegosOnlineproyectos\PB\pbblow\Piercing Blow Remake\i3Server\include\i3Base\pool\pool_base.inl
;	COMDAT ?expand_memory_size_by_pow2@pool_base@i3@@IAEXI@Z
_TEXT	SEGMENT
_pow2$ = 8						; size = 4
?expand_memory_size_by_pow2@pool_base@i3@@IAEXI@Z PROC	; i3::pool_base::expand_memory_size_by_pow2, COMDAT
; _this$ = ecx

; 22   : 	{

  00000	55		 push	 ebp
  00001	8b ec		 mov	 ebp, esp
  00003	8b c1		 mov	 eax, ecx

; 23   : 		m_next_raw_memory_size <<= pow2;

  00005	8b 4d 08	 mov	 ecx, DWORD PTR _pow2$[ebp]
  00008	d3 60 08	 shl	 DWORD PTR [eax+8], cl

; 24   : 	}

  0000b	5d		 pop	 ebp
  0000c	c2 04 00	 ret	 4
?expand_memory_size_by_pow2@pool_base@i3@@IAEXI@Z ENDP	; i3::pool_base::expand_memory_size_by_pow2
_TEXT	ENDS
; Function compile flags: /Ogtp
; File E:\Proyectos\JuegosOnlineproyectos\PB\pbblow\Piercing Blow Remake\i3Server\include\i3Base\pool\pool_base.inl
;	COMDAT ?deallocate_same_thread@pool_base@i3@@IAEXAAPAUmem_block_header@2@PAU32@PAX@Z
_TEXT	SEGMENT
_active_block$ = 8					; size = 4
_block$ = 12						; size = 4
_data$ = 16						; size = 4
?deallocate_same_thread@pool_base@i3@@IAEXAAPAUmem_block_header@2@PAU32@PAX@Z PROC ; i3::pool_base::deallocate_same_thread, COMDAT
; _this$ = ecx

; 28   : 	{	

  00000	55		 push	 ebp
  00001	8b ec		 mov	 ebp, esp

; 29   : 		detail::deallocate_same_thread(m_free_block_list, active_block, block, data);

  00003	ff 75 10	 push	 DWORD PTR _data$[ebp]
  00006	ff 75 0c	 push	 DWORD PTR _block$[ebp]
  00009	ff 75 08	 push	 DWORD PTR _active_block$[ebp]
  0000c	51		 push	 ecx
  0000d	e8 00 00 00 00	 call	 ?deallocate_same_thread@detail@i3@@YAXAAPAUmem_block_header@2@0PAU32@PAX@Z ; i3::detail::deallocate_same_thread
  00012	83 c4 10	 add	 esp, 16			; 00000010H

; 30   : 	}

  00015	5d		 pop	 ebp
  00016	c2 0c 00	 ret	 12			; 0000000cH
?deallocate_same_thread@pool_base@i3@@IAEXAAPAUmem_block_header@2@PAU32@PAX@Z ENDP ; i3::pool_base::deallocate_same_thread
_TEXT	ENDS
; Function compile flags: /Ogtp
; File E:\Proyectos\JuegosOnlineproyectos\PB\pbblow\Piercing Blow Remake\i3Server\include\i3Base\pool\pool_base.inl
;	COMDAT ?allocate_from_new_block@pool_base@i3@@IAEPAXKAAPAUmem_block_header@2@II@Z
_TEXT	SEGMENT
_threadID$ = 8						; size = 4
_active_block$ = 12					; size = 4
_size_index$ = 16					; size = 4
_actual_size$ = 20					; size = 4
?allocate_from_new_block@pool_base@i3@@IAEPAXKAAPAUmem_block_header@2@II@Z PROC ; i3::pool_base::allocate_from_new_block, COMDAT
; _this$ = ecx

; 34   : 	{

  00000	55		 push	 ebp
  00001	8b ec		 mov	 ebp, esp

; 35   : 		mem_block_header* block = get_new_block(threadID, size_index, actual_size);

  00003	ff 75 14	 push	 DWORD PTR _actual_size$[ebp]
  00006	ff 75 10	 push	 DWORD PTR _size_index$[ebp]
  00009	ff 75 08	 push	 DWORD PTR _threadID$[ebp]
  0000c	e8 00 00 00 00	 call	 ?get_new_block@pool_base@i3@@AAEPAUmem_block_header@2@KII@Z ; i3::pool_base::get_new_block

; 36   : 		active_block = block;								// Ūū╗¾ ┴Ė└ń..	

  00011	8b 4d 0c	 mov	 ecx, DWORD PTR _active_block$[ebp]

; 37   : 		return detail::allocate_from_alloc_ptr(block);		// Ūū╗¾ ╝║░°ŪžŠ▀Ūį..free_list░Ī Š°└Ė╣ŪĘ╬ └╠ Ūį╝÷ĖĖ...

  00014	50		 push	 eax
  00015	89 01		 mov	 DWORD PTR [ecx], eax
  00017	e8 00 00 00 00	 call	 ?allocate_from_alloc_ptr@detail@i3@@YAPAXPAUmem_block_header@2@@Z ; i3::detail::allocate_from_alloc_ptr
  0001c	83 c4 04	 add	 esp, 4

; 38   : 	}

  0001f	5d		 pop	 ebp
  00020	c2 10 00	 ret	 16			; 00000010H
?allocate_from_new_block@pool_base@i3@@IAEPAXKAAPAUmem_block_header@2@II@Z ENDP ; i3::pool_base::allocate_from_new_block
_TEXT	ENDS
; Function compile flags: /Ogtp
;	COMDAT ??_Etls_base@i3@@UAEPAXI@Z
_TEXT	SEGMENT
__$EHRec$ = -12						; size = 12
___flags$ = 8						; size = 4
??_Etls_base@i3@@UAEPAXI@Z PROC				; i3::tls_base::`vector deleting destructor', COMDAT
; _this$ = ecx
  00000	55		 push	 ebp
  00001	8b ec		 mov	 ebp, esp
  00003	6a ff		 push	 -1
  00005	68 00 00 00 00	 push	 __ehhandler$??_Etls_base@i3@@UAEPAXI@Z
  0000a	64 a1 00 00 00
	00		 mov	 eax, DWORD PTR fs:0
  00010	50		 push	 eax
  00011	53		 push	 ebx
  00012	56		 push	 esi
  00013	57		 push	 edi
  00014	a1 00 00 00 00	 mov	 eax, DWORD PTR ___security_cookie
  00019	33 c5		 xor	 eax, ebp
  0001b	50		 push	 eax
  0001c	8d 45 f4	 lea	 eax, DWORD PTR __$EHRec$[ebp]
  0001f	64 a3 00 00 00
	00		 mov	 DWORD PTR fs:0, eax
  00025	8b f1		 mov	 esi, ecx
  00027	8b 45 08	 mov	 eax, DWORD PTR ___flags$[ebp]
  0002a	8b f8		 mov	 edi, eax
  0002c	83 e7 01	 and	 edi, 1
  0002f	a8 02		 test	 al, 2
  00031	74 40		 je	 SHORT $LN2@vector
  00033	68 00 00 00 00	 push	 OFFSET ??1tls_base@i3@@UAE@XZ ; i3::tls_base::~tls_base
  00038	ff 76 fc	 push	 DWORD PTR [esi-4]
  0003b	8d 5e fc	 lea	 ebx, DWORD PTR [esi-4]
  0003e	6a 08		 push	 8
  00040	56		 push	 esi
  00041	e8 00 00 00 00	 call	 ??_M@YGXPAXIIP6EX0@Z@Z
  00046	85 ff		 test	 edi, edi
  00048	74 13		 je	 SHORT $LN3@vector
  0004a	8b 0b		 mov	 ecx, DWORD PTR [ebx]
  0004c	8d 0c cd 04 00
	00 00		 lea	 ecx, DWORD PTR [ecx*8+4]
  00053	51		 push	 ecx
  00054	53		 push	 ebx
  00055	e8 00 00 00 00	 call	 ??_V@YAXPAXI@Z		; operator delete[]
  0005a	83 c4 08	 add	 esp, 8
$LN3@vector:
  0005d	8b c3		 mov	 eax, ebx
  0005f	8b 4d f4	 mov	 ecx, DWORD PTR __$EHRec$[ebp]
  00062	64 89 0d 00 00
	00 00		 mov	 DWORD PTR fs:0, ecx
  00069	59		 pop	 ecx
  0006a	5f		 pop	 edi
  0006b	5e		 pop	 esi
  0006c	5b		 pop	 ebx
  0006d	8b e5		 mov	 esp, ebp
  0006f	5d		 pop	 ebp
  00070	c2 04 00	 ret	 4
$LN2@vector:
  00073	c7 06 00 00 00
	00		 mov	 DWORD PTR [esi], OFFSET ??_7tls_base@i3@@6B@
  00079	85 ff		 test	 edi, edi
  0007b	74 0b		 je	 SHORT $LN4@vector
  0007d	6a 08		 push	 8
  0007f	56		 push	 esi
  00080	e8 00 00 00 00	 call	 ??3@YAXPAXI@Z		; operator delete
  00085	83 c4 08	 add	 esp, 8
$LN4@vector:
  00088	8b c6		 mov	 eax, esi
  0008a	8b 4d f4	 mov	 ecx, DWORD PTR __$EHRec$[ebp]
  0008d	64 89 0d 00 00
	00 00		 mov	 DWORD PTR fs:0, ecx
  00094	59		 pop	 ecx
  00095	5f		 pop	 edi
  00096	5e		 pop	 esi
  00097	5b		 pop	 ebx
  00098	8b e5		 mov	 esp, ebp
  0009a	5d		 pop	 ebp
  0009b	c2 04 00	 ret	 4
  0009e	cc		 int	 3
  0009f	cc		 int	 3
  000a0	cc		 int	 3
  000a1	cc		 int	 3
  000a2	cc		 int	 3
_TEXT	ENDS
;	COMDAT text$x
text$x	SEGMENT
__ehhandler$??_Etls_base@i3@@UAEPAXI@Z:
  00000	90		 npad	 1
  00001	90		 npad	 1
  00002	8b 54 24 08	 mov	 edx, DWORD PTR [esp+8]
  00006	8d 42 0c	 lea	 eax, DWORD PTR [edx+12]
  00009	8b 4a f0	 mov	 ecx, DWORD PTR [edx-16]
  0000c	33 c8		 xor	 ecx, eax
  0000e	e8 00 00 00 00	 call	 @__security_check_cookie@4
  00013	b8 00 00 00 00	 mov	 eax, OFFSET __ehfuncinfo$??_Etls_base@i3@@UAEPAXI@Z
  00018	e9 00 00 00 00	 jmp	 ___CxxFrameHandler3
text$x	ENDS
??_Etls_base@i3@@UAEPAXI@Z ENDP				; i3::tls_base::`vector deleting destructor'
; Function compile flags: /Ogtp
;	COMDAT ??_Gtls_base@i3@@UAEPAXI@Z
_TEXT	SEGMENT
___flags$ = 8						; size = 4
??_Gtls_base@i3@@UAEPAXI@Z PROC				; i3::tls_base::`scalar deleting destructor', COMDAT
; _this$ = ecx
  00000	55		 push	 ebp
  00001	8b ec		 mov	 ebp, esp
  00003	f6 45 08 01	 test	 BYTE PTR ___flags$[ebp], 1
  00007	56		 push	 esi
  00008	8b f1		 mov	 esi, ecx
  0000a	c7 06 00 00 00
	00		 mov	 DWORD PTR [esi], OFFSET ??_7tls_base@i3@@6B@
  00010	74 0b		 je	 SHORT $LN5@scalar
  00012	6a 08		 push	 8
  00014	56		 push	 esi
  00015	e8 00 00 00 00	 call	 ??3@YAXPAXI@Z		; operator delete
  0001a	83 c4 08	 add	 esp, 8
$LN5@scalar:
  0001d	8b c6		 mov	 eax, esi
  0001f	5e		 pop	 esi
  00020	5d		 pop	 ebp
  00021	c2 04 00	 ret	 4
??_Gtls_base@i3@@UAEPAXI@Z ENDP				; i3::tls_base::`scalar deleting destructor'
_TEXT	ENDS
; Function compile flags: /Ogtp
; File E:\Proyectos\JuegosOnlineproyectos\PB\pbblow\Piercing Blow Remake\i3Server\include\i3Base\tls\detail\tls_base.h
;	COMDAT ?slot_idx@tls_base@i3@@IBEIXZ
_TEXT	SEGMENT
?slot_idx@tls_base@i3@@IBEIXZ PROC			; i3::tls_base::slot_idx, COMDAT
; _this$ = ecx

; 51   : 		size_t				slot_idx() const { return m_slotidx; }

  00000	8b 41 04	 mov	 eax, DWORD PTR [ecx+4]
  00003	c3		 ret	 0
?slot_idx@tls_base@i3@@IBEIXZ ENDP			; i3::tls_base::slot_idx
_TEXT	ENDS
; Function compile flags: /Ogtp
; File E:\Proyectos\JuegosOnlineproyectos\PB\pbblow\Piercing Blow Remake\i3Server\include\i3Base\tls\detail\tls_base.h
; File E:\Proyectos\JuegosOnlineproyectos\PB\pbblow\Piercing Blow Remake\i3Server\include\i3Base\itl\detail\vector.h
; File E:\Proyectos\JuegosOnlineproyectos\PB\pbblow\Piercing Blow Remake\i3Server\include\i3Base\tls\detail\tls_base.h
;	COMDAT ?get_raw_by_thread_id@tls_base@i3@@IBEPAXK@Z
_TEXT	SEGMENT
_hthread$ = 8						; size = 4
?get_raw_by_thread_id@tls_base@i3@@IBEPAXK@Z PROC	; i3::tls_base::get_raw_by_thread_id, COMDAT
; _this$ = ecx

; 85   : 	{

  00000	55		 push	 ebp
  00001	8b ec		 mov	 ebp, esp

; 87   : 		return td->get_raw_value(m_slotidx);

  00003	8b 55 08	 mov	 edx, DWORD PTR _hthread$[ebp]
  00006	a1 18 00 00 00	 mov	 eax, DWORD PTR ?g_TlsManager@detail_tls@i3@@3Vtls_mgr@12@A+24
; File E:\Proyectos\JuegosOnlineproyectos\PB\pbblow\Piercing Blow Remake\i3Server\include\i3Base\itl\detail\vector.h

; 160  : 		const_reference operator[](size_type Pos) const	{	return (*(m_first + Pos));	}

  0000b	8b 49 04	 mov	 ecx, DWORD PTR [ecx+4]
; File E:\Proyectos\JuegosOnlineproyectos\PB\pbblow\Piercing Blow Remake\i3Server\include\i3Base\tls\detail\tls_base.h

; 87   : 		return td->get_raw_value(m_slotidx);

  0000e	8b 04 90	 mov	 eax, DWORD PTR [eax+edx*4]
  00011	8b 40 14	 mov	 eax, DWORD PTR [eax+20]
  00014	8b 04 88	 mov	 eax, DWORD PTR [eax+ecx*4]

; 88   : 	}

  00017	5d		 pop	 ebp
  00018	c2 04 00	 ret	 4
?get_raw_by_thread_id@tls_base@i3@@IBEPAXK@Z ENDP	; i3::tls_base::get_raw_by_thread_id
_TEXT	ENDS
; Function compile flags: /Ogtp
; File E:\Proyectos\JuegosOnlineproyectos\PB\pbblow\Piercing Blow Remake\i3Server\include\i3Base\tls\detail\tls_base.h
; File E:\Proyectos\JuegosOnlineproyectos\PB\pbblow\Piercing Blow Remake\i3Server\include\i3Base\tls\detail\tls_mgr.inl
; File E:\Proyectos\JuegosOnlineproyectos\PB\pbblow\Piercing Blow Remake\i3Server\include\i3Base\tls\detail\tls_base.h
; File E:\Proyectos\JuegosOnlineproyectos\PB\pbblow\Piercing Blow Remake\i3Server\include\i3Base\tls\detail\tls_mgr.inl
; File E:\Proyectos\JuegosOnlineproyectos\PB\pbblow\Piercing Blow Remake\i3Server\include\i3Base\itl\detail\vector.h
; File E:\Proyectos\JuegosOnlineproyectos\PB\pbblow\Piercing Blow Remake\i3Server\include\i3Base\tls\detail\tls_base.h
;	COMDAT ?get_raw@tls_base@i3@@IBEPAXXZ
_TEXT	SEGMENT
?get_raw@tls_base@i3@@IBEPAXXZ PROC			; i3::tls_base::get_raw, COMDAT
; _this$ = ecx

; 80   : 	{

  00000	56		 push	 esi
; File E:\Proyectos\JuegosOnlineproyectos\PB\pbblow\Piercing Blow Remake\i3Server\include\i3Base\tls\detail\tls_mgr.inl

; 180  : 			return reinterpret_cast<thread_data*>(::TlsGetValue(m_dwTlsIdx));

  00001	ff 35 00 00 00
	00		 push	 DWORD PTR ?g_TlsManager@detail_tls@i3@@3Vtls_mgr@12@A
; File E:\Proyectos\JuegosOnlineproyectos\PB\pbblow\Piercing Blow Remake\i3Server\include\i3Base\tls\detail\tls_base.h

; 80   : 	{

  00007	8b f1		 mov	 esi, ecx
; File E:\Proyectos\JuegosOnlineproyectos\PB\pbblow\Piercing Blow Remake\i3Server\include\i3Base\tls\detail\tls_mgr.inl

; 180  : 			return reinterpret_cast<thread_data*>(::TlsGetValue(m_dwTlsIdx));

  00009	ff 15 00 00 00
	00		 call	 DWORD PTR __imp__TlsGetValue@4
; File E:\Proyectos\JuegosOnlineproyectos\PB\pbblow\Piercing Blow Remake\i3Server\include\i3Base\itl\detail\vector.h

; 160  : 		const_reference operator[](size_type Pos) const	{	return (*(m_first + Pos));	}

  0000f	8b 4e 04	 mov	 ecx, DWORD PTR [esi+4]
; File E:\Proyectos\JuegosOnlineproyectos\PB\pbblow\Piercing Blow Remake\i3Server\include\i3Base\tls\detail\tls_base.h

; 82   : 		return td->get_raw_value(m_slotidx);

  00012	5e		 pop	 esi
  00013	8b 40 14	 mov	 eax, DWORD PTR [eax+20]
  00016	8b 04 88	 mov	 eax, DWORD PTR [eax+ecx*4]

; 83   : 	}

  00019	c3		 ret	 0
?get_raw@tls_base@i3@@IBEPAXXZ ENDP			; i3::tls_base::get_raw
_TEXT	ENDS
; Function compile flags: /Ogtp
; File E:\Proyectos\JuegosOnlineproyectos\PB\pbblow\Piercing Blow Remake\i3Server\include\i3Base\tls\detail\tls_base.h
; File E:\Proyectos\JuegosOnlineproyectos\PB\pbblow\Piercing Blow Remake\i3Server\include\i3Base\tls\detail\tls_mgr.h
; File E:\Proyectos\JuegosOnlineproyectos\PB\pbblow\Piercing Blow Remake\i3Server\include\i3Base\itl\detail\vector.h
; File E:\Proyectos\JuegosOnlineproyectos\PB\pbblow\Piercing Blow Remake\i3Server\include\i3Base\tls\detail\tls_mgr.h
; File E:\Proyectos\JuegosOnlineproyectos\PB\pbblow\Piercing Blow Remake\i3Server\include\i3Base\tls\detail\tls_base.h
;	COMDAT ?get_by_thread_id@tls_base@i3@@IBEPAXK@Z
_TEXT	SEGMENT
_hthread$ = 8						; size = 4
?get_by_thread_id@tls_base@i3@@IBEPAXK@Z PROC		; i3::tls_base::get_by_thread_id, COMDAT
; _this$ = ecx

; 74   : 	{ 

  00000	55		 push	 ebp
  00001	8b ec		 mov	 ebp, esp

; 75   : 		detail_tls::thread_data* td = detail_tls::get_thread_data(hthread);

  00003	a1 18 00 00 00	 mov	 eax, DWORD PTR ?g_TlsManager@detail_tls@i3@@3Vtls_mgr@12@A+24
  00008	8b 55 08	 mov	 edx, DWORD PTR _hthread$[ebp]
  0000b	56		 push	 esi
  0000c	8b 34 90	 mov	 esi, DWORD PTR [eax+edx*4]

; 76   : 		return td->get_value(this, m_slotidx);

  0000f	8b 51 04	 mov	 edx, DWORD PTR [ecx+4]
; File E:\Proyectos\JuegosOnlineproyectos\PB\pbblow\Piercing Blow Remake\i3Server\include\i3Base\tls\detail\tls_mgr.h

; 43   : 			void*				get_value(const tls_base* t, size_t slot) const { return (*this->fn_list[slot])( t, this, slot); }

  00012	52		 push	 edx
  00013	56		 push	 esi
; File E:\Proyectos\JuegosOnlineproyectos\PB\pbblow\Piercing Blow Remake\i3Server\include\i3Base\itl\detail\vector.h

; 160  : 		const_reference operator[](size_type Pos) const	{	return (*(m_first + Pos));	}

  00014	8b 46 04	 mov	 eax, DWORD PTR [esi+4]
; File E:\Proyectos\JuegosOnlineproyectos\PB\pbblow\Piercing Blow Remake\i3Server\include\i3Base\tls\detail\tls_mgr.h

; 43   : 			void*				get_value(const tls_base* t, size_t slot) const { return (*this->fn_list[slot])( t, this, slot); }

  00017	51		 push	 ecx
  00018	8b 04 90	 mov	 eax, DWORD PTR [eax+edx*4]
  0001b	ff d0		 call	 eax
  0001d	83 c4 0c	 add	 esp, 12			; 0000000cH
; File E:\Proyectos\JuegosOnlineproyectos\PB\pbblow\Piercing Blow Remake\i3Server\include\i3Base\tls\detail\tls_base.h

; 76   : 		return td->get_value(this, m_slotidx);

  00020	5e		 pop	 esi

; 77   : 	}

  00021	5d		 pop	 ebp
  00022	c2 04 00	 ret	 4
?get_by_thread_id@tls_base@i3@@IBEPAXK@Z ENDP		; i3::tls_base::get_by_thread_id
_TEXT	ENDS
; Function compile flags: /Ogtp
; File E:\Proyectos\JuegosOnlineproyectos\PB\pbblow\Piercing Blow Remake\i3Server\include\i3Base\tls\detail\tls_base.h
; File E:\Proyectos\JuegosOnlineproyectos\PB\pbblow\Piercing Blow Remake\i3Server\include\i3Base\tls\detail\tls_mgr.inl
; File E:\Proyectos\JuegosOnlineproyectos\PB\pbblow\Piercing Blow Remake\i3Server\include\i3Base\tls\detail\tls_base.h
; File E:\Proyectos\JuegosOnlineproyectos\PB\pbblow\Piercing Blow Remake\i3Server\include\i3Base\tls\detail\tls_mgr.inl
; File E:\Proyectos\JuegosOnlineproyectos\PB\pbblow\Piercing Blow Remake\i3Server\include\i3Base\tls\detail\tls_base.h
; File E:\Proyectos\JuegosOnlineproyectos\PB\pbblow\Piercing Blow Remake\i3Server\include\i3Base\tls\detail\tls_mgr.h
; File E:\Proyectos\JuegosOnlineproyectos\PB\pbblow\Piercing Blow Remake\i3Server\include\i3Base\itl\detail\vector.h
; File E:\Proyectos\JuegosOnlineproyectos\PB\pbblow\Piercing Blow Remake\i3Server\include\i3Base\tls\detail\tls_mgr.h
; File E:\Proyectos\JuegosOnlineproyectos\PB\pbblow\Piercing Blow Remake\i3Server\include\i3Base\tls\detail\tls_base.h
;	COMDAT ?get@tls_base@i3@@IBEPAXXZ
_TEXT	SEGMENT
?get@tls_base@i3@@IBEPAXXZ PROC				; i3::tls_base::get, COMDAT
; _this$ = ecx

; 68   : 	{  

  00000	56		 push	 esi
  00001	57		 push	 edi
; File E:\Proyectos\JuegosOnlineproyectos\PB\pbblow\Piercing Blow Remake\i3Server\include\i3Base\tls\detail\tls_mgr.inl

; 180  : 			return reinterpret_cast<thread_data*>(::TlsGetValue(m_dwTlsIdx));

  00002	ff 35 00 00 00
	00		 push	 DWORD PTR ?g_TlsManager@detail_tls@i3@@3Vtls_mgr@12@A
; File E:\Proyectos\JuegosOnlineproyectos\PB\pbblow\Piercing Blow Remake\i3Server\include\i3Base\tls\detail\tls_base.h

; 68   : 	{  

  00008	8b f9		 mov	 edi, ecx
; File E:\Proyectos\JuegosOnlineproyectos\PB\pbblow\Piercing Blow Remake\i3Server\include\i3Base\tls\detail\tls_mgr.inl

; 180  : 			return reinterpret_cast<thread_data*>(::TlsGetValue(m_dwTlsIdx));

  0000a	ff 15 00 00 00
	00		 call	 DWORD PTR __imp__TlsGetValue@4
; File E:\Proyectos\JuegosOnlineproyectos\PB\pbblow\Piercing Blow Remake\i3Server\include\i3Base\tls\detail\tls_base.h

; 70   : 		return td->get_value(this, m_slotidx);

  00010	8b 77 04	 mov	 esi, DWORD PTR [edi+4]
; File E:\Proyectos\JuegosOnlineproyectos\PB\pbblow\Piercing Blow Remake\i3Server\include\i3Base\tls\detail\tls_mgr.h

; 43   : 			void*				get_value(const tls_base* t, size_t slot) const { return (*this->fn_list[slot])( t, this, slot); }

  00013	56		 push	 esi
  00014	50		 push	 eax
; File E:\Proyectos\JuegosOnlineproyectos\PB\pbblow\Piercing Blow Remake\i3Server\include\i3Base\itl\detail\vector.h

; 160  : 		const_reference operator[](size_type Pos) const	{	return (*(m_first + Pos));	}

  00015	8b 50 04	 mov	 edx, DWORD PTR [eax+4]
; File E:\Proyectos\JuegosOnlineproyectos\PB\pbblow\Piercing Blow Remake\i3Server\include\i3Base\tls\detail\tls_mgr.h

; 43   : 			void*				get_value(const tls_base* t, size_t slot) const { return (*this->fn_list[slot])( t, this, slot); }

  00018	57		 push	 edi
  00019	8b 04 b2	 mov	 eax, DWORD PTR [edx+esi*4]
  0001c	ff d0		 call	 eax
  0001e	83 c4 0c	 add	 esp, 12			; 0000000cH
; File E:\Proyectos\JuegosOnlineproyectos\PB\pbblow\Piercing Blow Remake\i3Server\include\i3Base\tls\detail\tls_base.h

; 70   : 		return td->get_value(this, m_slotidx);

  00021	5f		 pop	 edi
  00022	5e		 pop	 esi

; 71   : 	}

  00023	c3		 ret	 0
?get@tls_base@i3@@IBEPAXXZ ENDP				; i3::tls_base::get
_TEXT	ENDS
; Function compile flags: /Ogtp
; File E:\Proyectos\JuegosOnlineproyectos\PB\pbblow\Piercing Blow Remake\i3Server\include\i3Base\tls\detail\tls_base.h
; File E:\Proyectos\JuegosOnlineproyectos\PB\pbblow\Piercing Blow Remake\i3Server\include\i3Base\itl\detail\vector.h
; File E:\Proyectos\JuegosOnlineproyectos\PB\pbblow\Piercing Blow Remake\i3Server\include\i3Base\tls\detail\tls_base.h
; File E:\Proyectos\JuegosOnlineproyectos\PB\pbblow\Piercing Blow Remake\i3Server\include\i3Base\itl\detail\vector.h
; File E:\Proyectos\JuegosOnlineproyectos\PB\pbblow\Piercing Blow Remake\i3Server\include\i3Base\tls\detail\tls_base.h
; File E:\Proyectos\JuegosOnlineproyectos\PB\pbblow\Piercing Blow Remake\i3Server\include\i3Base\itl\detail\vector.h
; File E:\Proyectos\JuegosOnlineproyectos\PB\pbblow\Piercing Blow Remake\i3Server\include\i3Base\tls\detail\tls_base.h
; File E:\Proyectos\JuegosOnlineproyectos\PB\pbblow\Piercing Blow Remake\i3Server\include\i3Base\itl\detail\vector.h
; File E:\Proyectos\JuegosOnlineproyectos\PB\pbblow\Piercing Blow Remake\i3Server\include\i3Base\tls\detail\tls_base.h
;	COMDAT ??0tls_base@i3@@IAE@XZ
_TEXT	SEGMENT
_tls$ = -4						; size = 4
??0tls_base@i3@@IAE@XZ PROC				; i3::tls_base::tls_base, COMDAT
; _this$ = ecx

; 61   : 	{

  00000	55		 push	 ebp
  00001	8b ec		 mov	 ebp, esp
  00003	51		 push	 ecx
  00004	56		 push	 esi
  00005	8b f1		 mov	 esi, ecx
  00007	57		 push	 edi

; 62   : 		detail_tls::g_TlsManager.PushBackTls(this);

  00008	89 75 fc	 mov	 DWORD PTR _tls$[ebp], esi
  0000b	c7 06 00 00 00
	00		 mov	 DWORD PTR [esi], OFFSET ??_7tls_base@i3@@6B@
; File E:\Proyectos\JuegosOnlineproyectos\PB\pbblow\Piercing Blow Remake\i3Server\include\i3Base\itl\detail\vector.h

; 153  : 		size_type		size() const	{ return m_last - m_first; }

  00011	a1 0c 00 00 00	 mov	 eax, DWORD PTR ?g_TlsManager@detail_tls@i3@@3Vtls_mgr@12@A+12
  00016	2b 05 08 00 00
	00		 sub	 eax, DWORD PTR ?g_TlsManager@detail_tls@i3@@3Vtls_mgr@12@A+8
  0001c	c1 f8 02	 sar	 eax, 2
; File E:\Proyectos\JuegosOnlineproyectos\PB\pbblow\Piercing Blow Remake\i3Server\include\i3Base\tls\detail\tls_base.h

; 60   : 	inline tls_base::tls_base() : m_slotidx( get_num_tls_ptr() )	// Ė▐└╬Š▓Ę╣ĄÕ┐Ī╝ŁĖĖ ├│Ė«ŪŽĄĄĘŽ...

  0001f	89 46 04	 mov	 DWORD PTR [esi+4], eax
; File E:\Proyectos\JuegosOnlineproyectos\PB\pbblow\Piercing Blow Remake\i3Server\include\i3Base\itl\detail\vector.h

; 153  : 		size_type		size() const	{ return m_last - m_first; }

  00022	8b 3d 0c 00 00
	00		 mov	 edi, DWORD PTR ?g_TlsManager@detail_tls@i3@@3Vtls_mgr@12@A+12
  00028	8b cf		 mov	 ecx, edi

; 132  : 		size_type		capacity() const { return m_end - m_first; }

  0002a	a1 10 00 00 00	 mov	 eax, DWORD PTR ?g_TlsManager@detail_tls@i3@@3Vtls_mgr@12@A+16

; 153  : 		size_type		size() const	{ return m_last - m_first; }

  0002f	2b 0d 08 00 00
	00		 sub	 ecx, DWORD PTR ?g_TlsManager@detail_tls@i3@@3Vtls_mgr@12@A+8

; 132  : 		size_type		capacity() const { return m_end - m_first; }

  00035	2b 05 08 00 00
	00		 sub	 eax, DWORD PTR ?g_TlsManager@detail_tls@i3@@3Vtls_mgr@12@A+8

; 153  : 		size_type		size() const	{ return m_last - m_first; }

  0003b	c1 f9 02	 sar	 ecx, 2

; 132  : 		size_type		capacity() const { return m_end - m_first; }

  0003e	c1 f8 02	 sar	 eax, 2

; 170  : 			if ( size() < capacity() )

  00041	3b c8		 cmp	 ecx, eax
  00043	73 11		 jae	 SHORT $LN12@tls_base

; 171  : 			{
; 172  : 				i3::uninitialized_fill_1(m_last, Val, allocator_base::get() );		//	i3::uninitialized_fill_1( m_last, Val, m_alloc);

  00045	89 37		 mov	 DWORD PTR [edi], esi
; File E:\Proyectos\JuegosOnlineproyectos\PB\pbblow\Piercing Blow Remake\i3Server\include\i3Base\tls\detail\tls_base.h

; 63   : 	}

  00047	8b c6		 mov	 eax, esi
; File E:\Proyectos\JuegosOnlineproyectos\PB\pbblow\Piercing Blow Remake\i3Server\include\i3Base\itl\detail\vector.h

; 173  : 				++m_last;

  00049	83 05 0c 00 00
	00 04		 add	 DWORD PTR ?g_TlsManager@detail_tls@i3@@3Vtls_mgr@12@A+12, 4
  00050	5f		 pop	 edi
; File E:\Proyectos\JuegosOnlineproyectos\PB\pbblow\Piercing Blow Remake\i3Server\include\i3Base\tls\detail\tls_base.h

; 63   : 	}

  00051	5e		 pop	 esi
  00052	8b e5		 mov	 esp, ebp
  00054	5d		 pop	 ebp
  00055	c3		 ret	 0
$LN12@tls_base:
; File E:\Proyectos\JuegosOnlineproyectos\PB\pbblow\Piercing Blow Remake\i3Server\include\i3Base\itl\detail\vector.h

; 176  : 				insert_1(end(), Val);

  00056	8d 45 fc	 lea	 eax, DWORD PTR _tls$[ebp]
  00059	b9 04 00 00 00	 mov	 ecx, OFFSET ?g_TlsManager@detail_tls@i3@@3Vtls_mgr@12@A+4
  0005e	50		 push	 eax
  0005f	57		 push	 edi
  00060	e8 00 00 00 00	 call	 ?insert_1@?$vector@PAVtls_base@i3@@V?$heap_allocator@PAVtls_base@i3@@@2@@i3@@AAEXPBQAVtls_base@2@ABQAV32@@Z ; i3::vector<i3::tls_base *,i3::heap_allocator<i3::tls_base *> >::insert_1
  00065	5f		 pop	 edi
; File E:\Proyectos\JuegosOnlineproyectos\PB\pbblow\Piercing Blow Remake\i3Server\include\i3Base\tls\detail\tls_base.h

; 63   : 	}

  00066	8b c6		 mov	 eax, esi
  00068	5e		 pop	 esi
  00069	8b e5		 mov	 esp, ebp
  0006b	5d		 pop	 ebp
  0006c	c3		 ret	 0
??0tls_base@i3@@IAE@XZ ENDP				; i3::tls_base::tls_base
_TEXT	ENDS
; Function compile flags: /Ogtp
; File E:\Proyectos\JuegosOnlineproyectos\PB\pbblow\Piercing Blow Remake\i3Server\include\i3Base\tls\detail\tls_base.h
;	COMDAT ??1tls_base@i3@@UAE@XZ
_TEXT	SEGMENT
??1tls_base@i3@@UAE@XZ PROC				; i3::tls_base::~tls_base, COMDAT
; _this$ = ecx

; 65   : 	__forceinline tls_base::~tls_base() {}

  00000	c7 01 00 00 00
	00		 mov	 DWORD PTR [ecx], OFFSET ??_7tls_base@i3@@6B@
  00006	c3		 ret	 0
??1tls_base@i3@@UAE@XZ ENDP				; i3::tls_base::~tls_base
_TEXT	ENDS
; Function compile flags: /Ogtp
; File E:\Proyectos\JuegosOnlineproyectos\PB\pbblow\Piercing Blow Remake\i3Server\include\i3Base\tls\detail\tls_mgr.inl
; File E:\Proyectos\JuegosOnlineproyectos\PB\pbblow\Piercing Blow Remake\i3Server\include\i3Base\memory\memory_alloc.inl
; File E:\Proyectos\JuegosOnlineproyectos\PB\pbblow\Piercing Blow Remake\i3Server\include\i3Base\memory\memory_aligned_apply.h
; File E:\Proyectos\JuegosOnlineproyectos\PB\pbblow\Piercing Blow Remake\i3Server\include\i3Base\memory\memory_alloc.inl
; File E:\Proyectos\JuegosOnlineproyectos\PB\pbblow\Piercing Blow Remake\i3Server\include\i3Base\tls\detail\tls_mgr.inl
;	COMDAT ?tls_safe_aligned_free@i3@@YAXKPAX@Z
_TEXT	SEGMENT
_hThread$ = 8						; size = 4
_ptr$ = 12						; size = 4
?tls_safe_aligned_free@i3@@YAXKPAX@Z PROC		; i3::tls_safe_aligned_free, COMDAT

; 114  : 	{

  00000	55		 push	 ebp
  00001	8b ec		 mov	 ebp, esp
; File E:\Proyectos\JuegosOnlineproyectos\PB\pbblow\Piercing Blow Remake\i3Server\include\i3Base\memory\memory_alloc.inl

; 108  : 		if (!data) return;

  00003	8b 45 0c	 mov	 eax, DWORD PTR _ptr$[ebp]
  00006	85 c0		 test	 eax, eax
  00008	74 1c		 je	 SHORT $LN11@tls_safe_a

; 109  : 		::HeapFree(HANDLE(h), 0, get_raw_data_from_aligned_malloc(data) );

  0000a	8b 4d 08	 mov	 ecx, DWORD PTR _hThread$[ebp]
; File E:\Proyectos\JuegosOnlineproyectos\PB\pbblow\Piercing Blow Remake\i3Server\include\i3Base\memory\memory_aligned_apply.h

; 33   : 		ptr = ( ptr & ~( sizeof(void*) -1 ) ) - sizeof(void*);

  0000d	83 e0 fc	 and	 eax, -4			; fffffffcH
; File E:\Proyectos\JuegosOnlineproyectos\PB\pbblow\Piercing Blow Remake\i3Server\include\i3Base\memory\memory_alloc.inl

; 109  : 		::HeapFree(HANDLE(h), 0, get_raw_data_from_aligned_malloc(data) );

  00010	ff 70 fc	 push	 DWORD PTR [eax-4]
  00013	a1 18 00 00 00	 mov	 eax, DWORD PTR ?g_TlsManager@detail_tls@i3@@3Vtls_mgr@12@A+24
  00018	6a 00		 push	 0
  0001a	8b 04 88	 mov	 eax, DWORD PTR [eax+ecx*4]
  0001d	ff 70 24	 push	 DWORD PTR [eax+36]
  00020	ff 15 00 00 00
	00		 call	 DWORD PTR __imp__HeapFree@12
$LN11@tls_safe_a:
; File E:\Proyectos\JuegosOnlineproyectos\PB\pbblow\Piercing Blow Remake\i3Server\include\i3Base\tls\detail\tls_mgr.inl

; 116  : 	}

  00026	5d		 pop	 ebp
  00027	c3		 ret	 0
?tls_safe_aligned_free@i3@@YAXKPAX@Z ENDP		; i3::tls_safe_aligned_free
_TEXT	ENDS
; Function compile flags: /Ogtp
; File E:\Proyectos\JuegosOnlineproyectos\PB\pbblow\Piercing Blow Remake\i3Server\include\i3Base\tls\detail\tls_mgr.inl
; File E:\Proyectos\JuegosOnlineproyectos\PB\pbblow\Piercing Blow Remake\i3Server\include\i3Base\memory\calculate_adjusted_align.h
; File E:\Proyectos\JuegosOnlineproyectos\PB\pbblow\Piercing Blow Remake\i3Server\include\i3Base\tls\detail\tls_mgr.inl
; File E:\Proyectos\JuegosOnlineproyectos\PB\pbblow\Piercing Blow Remake\i3Server\include\i3Base\memory\calculate_adjusted_align.h
; File E:\Proyectos\JuegosOnlineproyectos\PB\pbblow\Piercing Blow Remake\i3Server\include\i3Base\tls\detail\tls_mgr.inl
; File E:\Proyectos\JuegosOnlineproyectos\PB\pbblow\Piercing Blow Remake\i3Server\include\i3Base\memory\memory_aligned_apply.h
; File E:\Proyectos\JuegosOnlineproyectos\PB\pbblow\Piercing Blow Remake\i3Server\include\i3Base\memory\memory_alloc.inl
; File E:\Proyectos\JuegosOnlineproyectos\PB\pbblow\Piercing Blow Remake\i3Server\include\i3Base\memory\memory_aligned_apply.h
; File E:\Proyectos\JuegosOnlineproyectos\PB\pbblow\Piercing Blow Remake\i3Server\include\i3Base\tls\detail\tls_mgr.inl
; File E:\Proyectos\JuegosOnlineproyectos\PB\pbblow\Piercing Blow Remake\i3Server\include\i3Base\memory\memory_aligned_apply.h
; File E:\Proyectos\JuegosOnlineproyectos\PB\pbblow\Piercing Blow Remake\i3Server\include\i3Base\tls\detail\tls_mgr.inl
;	COMDAT ?tls_safe_aligned_malloc@i3@@YAPAXKII@Z
_TEXT	SEGMENT
_hThread$ = 8						; size = 4
_n$ = 12						; size = 4
_align$ = 16						; size = 4
?tls_safe_aligned_malloc@i3@@YAPAXKII@Z PROC		; i3::tls_safe_aligned_malloc, COMDAT

; 109  : 	{

  00000	55		 push	 ebp
  00001	8b ec		 mov	 ebp, esp

; 151  : 		void*		thread_data::tls_safe_aligned_malloc(size_t n, size_t align) const { return i3::heap_aligned_malloc(this->safe_heap, n, align); }

  00003	8b 4d 08	 mov	 ecx, DWORD PTR _hThread$[ebp]
  00006	a1 18 00 00 00	 mov	 eax, DWORD PTR ?g_TlsManager@detail_tls@i3@@3Vtls_mgr@12@A+24

; 109  : 	{

  0000b	56		 push	 esi
; File E:\Proyectos\JuegosOnlineproyectos\PB\pbblow\Piercing Blow Remake\i3Server\include\i3Base\memory\calculate_adjusted_align.h

; 13   : 	size_t  calculate_adjusted_align( size_t align) {	return ( align > sizeof(void*) ) ? align : sizeof(void*); }

  0000c	be 04 00 00 00	 mov	 esi, 4
  00011	39 75 10	 cmp	 DWORD PTR _align$[ebp], esi
; File E:\Proyectos\JuegosOnlineproyectos\PB\pbblow\Piercing Blow Remake\i3Server\include\i3Base\tls\detail\tls_mgr.inl

; 151  : 		void*		thread_data::tls_safe_aligned_malloc(size_t n, size_t align) const { return i3::heap_aligned_malloc(this->safe_heap, n, align); }

  00014	8b 04 88	 mov	 eax, DWORD PTR [eax+ecx*4]
; File E:\Proyectos\JuegosOnlineproyectos\PB\pbblow\Piercing Blow Remake\i3Server\include\i3Base\memory\calculate_adjusted_align.h

; 13   : 	size_t  calculate_adjusted_align( size_t align) {	return ( align > sizeof(void*) ) ? align : sizeof(void*); }

  00017	0f 47 75 10	 cmova	 esi, DWORD PTR _align$[ebp]
; File E:\Proyectos\JuegosOnlineproyectos\PB\pbblow\Piercing Blow Remake\i3Server\include\i3Base\tls\detail\tls_mgr.inl

; 151  : 		void*		thread_data::tls_safe_aligned_malloc(size_t n, size_t align) const { return i3::heap_aligned_malloc(this->safe_heap, n, align); }

  0001b	8b 48 24	 mov	 ecx, DWORD PTR [eax+36]
; File E:\Proyectos\JuegosOnlineproyectos\PB\pbblow\Piercing Blow Remake\i3Server\include\i3Base\memory\memory_aligned_apply.h

; 19   : 	size_t	calculate_aligned_malloc_size(size_t size, size_t adjusted_align) { return sizeof(void*) + size + adjusted_align;  }

  0001e	8b 45 0c	 mov	 eax, DWORD PTR _n$[ebp]
  00021	83 c0 04	 add	 eax, 4
  00024	03 c6		 add	 eax, esi
; File E:\Proyectos\JuegosOnlineproyectos\PB\pbblow\Piercing Blow Remake\i3Server\include\i3Base\memory\memory_alloc.inl

; 101  : 		void* data = ::HeapAlloc(HANDLE(h), 0, calculate_aligned_malloc_size(size, align) );

  00026	50		 push	 eax
  00027	6a 00		 push	 0
  00029	51		 push	 ecx
  0002a	ff 15 00 00 00
	00		 call	 DWORD PTR __imp__HeapAlloc@12
; File E:\Proyectos\JuegosOnlineproyectos\PB\pbblow\Piercing Blow Remake\i3Server\include\i3Base\memory\memory_aligned_apply.h

; 24   : 		uintptr_t result = ( uintptr_t(raw_data) + sizeof(void*) + adjusted_align - 1 ) & ~(adjusted_align - 1);

  00030	8d 4e 03	 lea	 ecx, DWORD PTR [esi+3]
  00033	f7 de		 neg	 esi
  00035	03 c8		 add	 ecx, eax
  00037	23 ce		 and	 ecx, esi
; File E:\Proyectos\JuegosOnlineproyectos\PB\pbblow\Piercing Blow Remake\i3Server\include\i3Base\tls\detail\tls_mgr.inl

; 110  : 		return detail_tls::get_thread_data(hThread)->tls_safe_aligned_malloc(n, align);

  00039	5e		 pop	 esi
; File E:\Proyectos\JuegosOnlineproyectos\PB\pbblow\Piercing Blow Remake\i3Server\include\i3Base\memory\memory_aligned_apply.h

; 25   : 		((uintptr_t*)result)[-1] = (uintptr_t)raw_data;

  0003a	89 41 fc	 mov	 DWORD PTR [ecx-4], eax
; File E:\Proyectos\JuegosOnlineproyectos\PB\pbblow\Piercing Blow Remake\i3Server\include\i3Base\tls\detail\tls_mgr.inl

; 110  : 		return detail_tls::get_thread_data(hThread)->tls_safe_aligned_malloc(n, align);

  0003d	8b c1		 mov	 eax, ecx

; 111  : 	}

  0003f	5d		 pop	 ebp
  00040	c3		 ret	 0
?tls_safe_aligned_malloc@i3@@YAPAXKII@Z ENDP		; i3::tls_safe_aligned_malloc
_TEXT	ENDS
; Function compile flags: /Ogtp
; File E:\Proyectos\JuegosOnlineproyectos\PB\pbblow\Piercing Blow Remake\i3Server\include\i3Base\tls\detail\tls_mgr.inl
; File E:\Proyectos\JuegosOnlineproyectos\PB\pbblow\Piercing Blow Remake\i3Server\include\i3Base\memory\memory_alloc.inl
; File E:\Proyectos\JuegosOnlineproyectos\PB\pbblow\Piercing Blow Remake\i3Server\include\i3Base\memory\memory_aligned_apply.h
; File E:\Proyectos\JuegosOnlineproyectos\PB\pbblow\Piercing Blow Remake\i3Server\include\i3Base\memory\memory_alloc.inl
; File E:\Proyectos\JuegosOnlineproyectos\PB\pbblow\Piercing Blow Remake\i3Server\include\i3Base\tls\detail\tls_mgr.inl
;	COMDAT ?tls_safe_aligned_free@i3@@YAXPAX@Z
_TEXT	SEGMENT
_ptr$ = 8						; size = 4
?tls_safe_aligned_free@i3@@YAXPAX@Z PROC		; i3::tls_safe_aligned_free, COMDAT

; 104  : 	{

  00000	55		 push	 ebp
  00001	8b ec		 mov	 ebp, esp

; 180  : 			return reinterpret_cast<thread_data*>(::TlsGetValue(m_dwTlsIdx));

  00003	ff 35 00 00 00
	00		 push	 DWORD PTR ?g_TlsManager@detail_tls@i3@@3Vtls_mgr@12@A
  00009	ff 15 00 00 00
	00		 call	 DWORD PTR __imp__TlsGetValue@4
; File E:\Proyectos\JuegosOnlineproyectos\PB\pbblow\Piercing Blow Remake\i3Server\include\i3Base\memory\memory_alloc.inl

; 108  : 		if (!data) return;

  0000f	8b 4d 08	 mov	 ecx, DWORD PTR _ptr$[ebp]
  00012	85 c9		 test	 ecx, ecx
  00014	74 11		 je	 SHORT $LN9@tls_safe_a
; File E:\Proyectos\JuegosOnlineproyectos\PB\pbblow\Piercing Blow Remake\i3Server\include\i3Base\memory\memory_aligned_apply.h

; 33   : 		ptr = ( ptr & ~( sizeof(void*) -1 ) ) - sizeof(void*);

  00016	83 e1 fc	 and	 ecx, -4			; fffffffcH
; File E:\Proyectos\JuegosOnlineproyectos\PB\pbblow\Piercing Blow Remake\i3Server\include\i3Base\memory\memory_alloc.inl

; 109  : 		::HeapFree(HANDLE(h), 0, get_raw_data_from_aligned_malloc(data) );

  00019	ff 71 fc	 push	 DWORD PTR [ecx-4]
  0001c	6a 00		 push	 0
  0001e	ff 70 24	 push	 DWORD PTR [eax+36]
  00021	ff 15 00 00 00
	00		 call	 DWORD PTR __imp__HeapFree@12
$LN9@tls_safe_a:
; File E:\Proyectos\JuegosOnlineproyectos\PB\pbblow\Piercing Blow Remake\i3Server\include\i3Base\tls\detail\tls_mgr.inl

; 106  : 	}

  00027	5d		 pop	 ebp
  00028	c3		 ret	 0
?tls_safe_aligned_free@i3@@YAXPAX@Z ENDP		; i3::tls_safe_aligned_free
_TEXT	ENDS
; Function compile flags: /Ogtp
; File E:\Proyectos\JuegosOnlineproyectos\PB\pbblow\Piercing Blow Remake\i3Server\include\i3Base\tls\detail\tls_mgr.inl
; File E:\Proyectos\JuegosOnlineproyectos\PB\pbblow\Piercing Blow Remake\i3Server\include\i3Base\memory\calculate_adjusted_align.h
; File E:\Proyectos\JuegosOnlineproyectos\PB\pbblow\Piercing Blow Remake\i3Server\include\i3Base\tls\detail\tls_mgr.inl
; File E:\Proyectos\JuegosOnlineproyectos\PB\pbblow\Piercing Blow Remake\i3Server\include\i3Base\memory\calculate_adjusted_align.h
; File E:\Proyectos\JuegosOnlineproyectos\PB\pbblow\Piercing Blow Remake\i3Server\include\i3Base\memory\memory_aligned_apply.h
; File E:\Proyectos\JuegosOnlineproyectos\PB\pbblow\Piercing Blow Remake\i3Server\include\i3Base\memory\memory_alloc.inl
; File E:\Proyectos\JuegosOnlineproyectos\PB\pbblow\Piercing Blow Remake\i3Server\include\i3Base\memory\memory_aligned_apply.h
; File E:\Proyectos\JuegosOnlineproyectos\PB\pbblow\Piercing Blow Remake\i3Server\include\i3Base\tls\detail\tls_mgr.inl
; File E:\Proyectos\JuegosOnlineproyectos\PB\pbblow\Piercing Blow Remake\i3Server\include\i3Base\memory\memory_aligned_apply.h
; File E:\Proyectos\JuegosOnlineproyectos\PB\pbblow\Piercing Blow Remake\i3Server\include\i3Base\tls\detail\tls_mgr.inl
;	COMDAT ?tls_safe_aligned_malloc@i3@@YAPAXII@Z
_TEXT	SEGMENT
_n$ = 8							; size = 4
_align$ = 12						; size = 4
?tls_safe_aligned_malloc@i3@@YAPAXII@Z PROC		; i3::tls_safe_aligned_malloc, COMDAT

; 99   : 	{

  00000	55		 push	 ebp
  00001	8b ec		 mov	 ebp, esp
  00003	56		 push	 esi

; 180  : 			return reinterpret_cast<thread_data*>(::TlsGetValue(m_dwTlsIdx));

  00004	ff 35 00 00 00
	00		 push	 DWORD PTR ?g_TlsManager@detail_tls@i3@@3Vtls_mgr@12@A
  0000a	ff 15 00 00 00
	00		 call	 DWORD PTR __imp__TlsGetValue@4
; File E:\Proyectos\JuegosOnlineproyectos\PB\pbblow\Piercing Blow Remake\i3Server\include\i3Base\memory\calculate_adjusted_align.h

; 13   : 	size_t  calculate_adjusted_align( size_t align) {	return ( align > sizeof(void*) ) ? align : sizeof(void*); }

  00010	be 04 00 00 00	 mov	 esi, 4
  00015	39 75 0c	 cmp	 DWORD PTR _align$[ebp], esi
; File E:\Proyectos\JuegosOnlineproyectos\PB\pbblow\Piercing Blow Remake\i3Server\include\i3Base\tls\detail\tls_mgr.inl

; 151  : 		void*		thread_data::tls_safe_aligned_malloc(size_t n, size_t align) const { return i3::heap_aligned_malloc(this->safe_heap, n, align); }

  00018	8b 48 24	 mov	 ecx, DWORD PTR [eax+36]
; File E:\Proyectos\JuegosOnlineproyectos\PB\pbblow\Piercing Blow Remake\i3Server\include\i3Base\memory\calculate_adjusted_align.h

; 13   : 	size_t  calculate_adjusted_align( size_t align) {	return ( align > sizeof(void*) ) ? align : sizeof(void*); }

  0001b	0f 47 75 0c	 cmova	 esi, DWORD PTR _align$[ebp]
; File E:\Proyectos\JuegosOnlineproyectos\PB\pbblow\Piercing Blow Remake\i3Server\include\i3Base\memory\memory_aligned_apply.h

; 19   : 	size_t	calculate_aligned_malloc_size(size_t size, size_t adjusted_align) { return sizeof(void*) + size + adjusted_align;  }

  0001f	8b 45 08	 mov	 eax, DWORD PTR _n$[ebp]
  00022	83 c0 04	 add	 eax, 4
  00025	03 c6		 add	 eax, esi
; File E:\Proyectos\JuegosOnlineproyectos\PB\pbblow\Piercing Blow Remake\i3Server\include\i3Base\memory\memory_alloc.inl

; 101  : 		void* data = ::HeapAlloc(HANDLE(h), 0, calculate_aligned_malloc_size(size, align) );

  00027	50		 push	 eax
  00028	6a 00		 push	 0
  0002a	51		 push	 ecx
  0002b	ff 15 00 00 00
	00		 call	 DWORD PTR __imp__HeapAlloc@12
; File E:\Proyectos\JuegosOnlineproyectos\PB\pbblow\Piercing Blow Remake\i3Server\include\i3Base\memory\memory_aligned_apply.h

; 24   : 		uintptr_t result = ( uintptr_t(raw_data) + sizeof(void*) + adjusted_align - 1 ) & ~(adjusted_align - 1);

  00031	8d 4e 03	 lea	 ecx, DWORD PTR [esi+3]
  00034	f7 de		 neg	 esi
  00036	03 c8		 add	 ecx, eax
  00038	23 ce		 and	 ecx, esi
; File E:\Proyectos\JuegosOnlineproyectos\PB\pbblow\Piercing Blow Remake\i3Server\include\i3Base\tls\detail\tls_mgr.inl

; 100  : 		return detail_tls::get_curr_thread_data()->tls_safe_aligned_malloc(n, align);

  0003a	5e		 pop	 esi
; File E:\Proyectos\JuegosOnlineproyectos\PB\pbblow\Piercing Blow Remake\i3Server\include\i3Base\memory\memory_aligned_apply.h

; 25   : 		((uintptr_t*)result)[-1] = (uintptr_t)raw_data;

  0003b	89 41 fc	 mov	 DWORD PTR [ecx-4], eax
; File E:\Proyectos\JuegosOnlineproyectos\PB\pbblow\Piercing Blow Remake\i3Server\include\i3Base\tls\detail\tls_mgr.inl

; 100  : 		return detail_tls::get_curr_thread_data()->tls_safe_aligned_malloc(n, align);

  0003e	8b c1		 mov	 eax, ecx

; 101  : 	}

  00040	5d		 pop	 ebp
  00041	c3		 ret	 0
?tls_safe_aligned_malloc@i3@@YAPAXII@Z ENDP		; i3::tls_safe_aligned_malloc
_TEXT	ENDS
; Function compile flags: /Ogtp
; File E:\Proyectos\JuegosOnlineproyectos\PB\pbblow\Piercing Blow Remake\i3Server\include\i3Base\tls\detail\tls_mgr.inl
; File E:\Proyectos\JuegosOnlineproyectos\PB\pbblow\Piercing Blow Remake\i3Server\include\i3Base\memory\memory_alloc.inl
; File E:\Proyectos\JuegosOnlineproyectos\PB\pbblow\Piercing Blow Remake\i3Server\include\i3Base\tls\detail\tls_mgr.inl
;	COMDAT ?tls_safe_free@i3@@YAXKPAX@Z
_TEXT	SEGMENT
_hthread$ = 8						; size = 4
_ptr$ = 12						; size = 4
?tls_safe_free@i3@@YAXKPAX@Z PROC			; i3::tls_safe_free, COMDAT

; 94   : 	{

  00000	55		 push	 ebp
  00001	8b ec		 mov	 ebp, esp
; File E:\Proyectos\JuegosOnlineproyectos\PB\pbblow\Piercing Blow Remake\i3Server\include\i3Base\memory\memory_alloc.inl

; 93   : 		if (!data) return;

  00003	8b 45 0c	 mov	 eax, DWORD PTR _ptr$[ebp]
  00006	85 c0		 test	 eax, eax
  00008	74 17		 je	 SHORT $LN11@tls_safe_f

; 94   : 		::HeapFree(HANDLE(h), 0, data);		// │╬░╦╗ń┴ż└Ū░Ī Š°┤┘..

  0000a	8b 4d 08	 mov	 ecx, DWORD PTR _hthread$[ebp]
  0000d	50		 push	 eax
  0000e	a1 18 00 00 00	 mov	 eax, DWORD PTR ?g_TlsManager@detail_tls@i3@@3Vtls_mgr@12@A+24
  00013	6a 00		 push	 0
  00015	8b 04 88	 mov	 eax, DWORD PTR [eax+ecx*4]
  00018	ff 70 24	 push	 DWORD PTR [eax+36]
  0001b	ff 15 00 00 00
	00		 call	 DWORD PTR __imp__HeapFree@12
$LN11@tls_safe_f:
; File E:\Proyectos\JuegosOnlineproyectos\PB\pbblow\Piercing Blow Remake\i3Server\include\i3Base\tls\detail\tls_mgr.inl

; 96   : 	}

  00021	5d		 pop	 ebp
  00022	c3		 ret	 0
?tls_safe_free@i3@@YAXKPAX@Z ENDP			; i3::tls_safe_free
_TEXT	ENDS
; Function compile flags: /Ogtp
; File E:\Proyectos\JuegosOnlineproyectos\PB\pbblow\Piercing Blow Remake\i3Server\include\i3Base\tls\detail\tls_mgr.inl
; File E:\Proyectos\JuegosOnlineproyectos\PB\pbblow\Piercing Blow Remake\i3Server\include\i3Base\memory\memory_alloc.inl
; File E:\Proyectos\JuegosOnlineproyectos\PB\pbblow\Piercing Blow Remake\i3Server\include\i3Base\tls\detail\tls_mgr.inl
; File E:\Proyectos\JuegosOnlineproyectos\PB\pbblow\Piercing Blow Remake\i3Server\include\i3Base\memory\memory_alloc.inl
; File E:\Proyectos\JuegosOnlineproyectos\PB\pbblow\Piercing Blow Remake\i3Server\include\i3Base\tls\detail\tls_mgr.inl
;	COMDAT ?tls_safe_malloc@i3@@YAPAXKI@Z
_TEXT	SEGMENT
_hthread$ = 8						; size = 4
_n$ = 12						; size = 4
?tls_safe_malloc@i3@@YAPAXKI@Z PROC			; i3::tls_safe_malloc, COMDAT

; 89   : 	{

  00000	55		 push	 ebp
  00001	8b ec		 mov	 ebp, esp

; 145  : 		void*		thread_data::tls_safe_malloc(size_t n) const {	return i3::heap_malloc(this->safe_heap, n);	}

  00003	8b 4d 08	 mov	 ecx, DWORD PTR _hthread$[ebp]
  00006	a1 18 00 00 00	 mov	 eax, DWORD PTR ?g_TlsManager@detail_tls@i3@@3Vtls_mgr@12@A+24
; File E:\Proyectos\JuegosOnlineproyectos\PB\pbblow\Piercing Blow Remake\i3Server\include\i3Base\memory\memory_alloc.inl

; 87   : 		return ::HeapAlloc(HANDLE(h), 0, size);

  0000b	ff 75 0c	 push	 DWORD PTR _n$[ebp]
  0000e	6a 00		 push	 0
; File E:\Proyectos\JuegosOnlineproyectos\PB\pbblow\Piercing Blow Remake\i3Server\include\i3Base\tls\detail\tls_mgr.inl

; 145  : 		void*		thread_data::tls_safe_malloc(size_t n) const {	return i3::heap_malloc(this->safe_heap, n);	}

  00010	8b 04 88	 mov	 eax, DWORD PTR [eax+ecx*4]
; File E:\Proyectos\JuegosOnlineproyectos\PB\pbblow\Piercing Blow Remake\i3Server\include\i3Base\memory\memory_alloc.inl

; 87   : 		return ::HeapAlloc(HANDLE(h), 0, size);

  00013	ff 70 24	 push	 DWORD PTR [eax+36]
  00016	ff 15 00 00 00
	00		 call	 DWORD PTR __imp__HeapAlloc@12
; File E:\Proyectos\JuegosOnlineproyectos\PB\pbblow\Piercing Blow Remake\i3Server\include\i3Base\tls\detail\tls_mgr.inl

; 91   : 	}

  0001c	5d		 pop	 ebp
  0001d	c3		 ret	 0
?tls_safe_malloc@i3@@YAPAXKI@Z ENDP			; i3::tls_safe_malloc
_TEXT	ENDS
; Function compile flags: /Ogtp
; File E:\Proyectos\JuegosOnlineproyectos\PB\pbblow\Piercing Blow Remake\i3Server\include\i3Base\tls\detail\tls_mgr.inl
; File E:\Proyectos\JuegosOnlineproyectos\PB\pbblow\Piercing Blow Remake\i3Server\include\i3Base\memory\memory_alloc.inl
; File E:\Proyectos\JuegosOnlineproyectos\PB\pbblow\Piercing Blow Remake\i3Server\include\i3Base\tls\detail\tls_mgr.inl
;	COMDAT ?tls_safe_free@i3@@YAXPAX@Z
_TEXT	SEGMENT
_ptr$ = 8						; size = 4
?tls_safe_free@i3@@YAXPAX@Z PROC			; i3::tls_safe_free, COMDAT

; 84   : 	{

  00000	55		 push	 ebp
  00001	8b ec		 mov	 ebp, esp

; 180  : 			return reinterpret_cast<thread_data*>(::TlsGetValue(m_dwTlsIdx));

  00003	ff 35 00 00 00
	00		 push	 DWORD PTR ?g_TlsManager@detail_tls@i3@@3Vtls_mgr@12@A
  00009	ff 15 00 00 00
	00		 call	 DWORD PTR __imp__TlsGetValue@4
; File E:\Proyectos\JuegosOnlineproyectos\PB\pbblow\Piercing Blow Remake\i3Server\include\i3Base\memory\memory_alloc.inl

; 93   : 		if (!data) return;

  0000f	8b 4d 08	 mov	 ecx, DWORD PTR _ptr$[ebp]
  00012	85 c9		 test	 ecx, ecx
  00014	74 0c		 je	 SHORT $LN9@tls_safe_f

; 94   : 		::HeapFree(HANDLE(h), 0, data);		// │╬░╦╗ń┴ż└Ū░Ī Š°┤┘..

  00016	51		 push	 ecx
  00017	6a 00		 push	 0
  00019	ff 70 24	 push	 DWORD PTR [eax+36]
  0001c	ff 15 00 00 00
	00		 call	 DWORD PTR __imp__HeapFree@12
$LN9@tls_safe_f:
; File E:\Proyectos\JuegosOnlineproyectos\PB\pbblow\Piercing Blow Remake\i3Server\include\i3Base\tls\detail\tls_mgr.inl

; 86   : 	}

  00022	5d		 pop	 ebp
  00023	c3		 ret	 0
?tls_safe_free@i3@@YAXPAX@Z ENDP			; i3::tls_safe_free
_TEXT	ENDS
; Function compile flags: /Ogtp
; File E:\Proyectos\JuegosOnlineproyectos\PB\pbblow\Piercing Blow Remake\i3Server\include\i3Base\tls\detail\tls_mgr.inl
; File E:\Proyectos\JuegosOnlineproyectos\PB\pbblow\Piercing Blow Remake\i3Server\include\i3Base\memory\memory_alloc.inl
; File E:\Proyectos\JuegosOnlineproyectos\PB\pbblow\Piercing Blow Remake\i3Server\include\i3Base\tls\detail\tls_mgr.inl
;	COMDAT ?tls_safe_malloc@i3@@YAPAXI@Z
_TEXT	SEGMENT
_n$ = 8							; size = 4
?tls_safe_malloc@i3@@YAPAXI@Z PROC			; i3::tls_safe_malloc, COMDAT

; 79   : 	{

  00000	55		 push	 ebp
  00001	8b ec		 mov	 ebp, esp

; 180  : 			return reinterpret_cast<thread_data*>(::TlsGetValue(m_dwTlsIdx));

  00003	ff 35 00 00 00
	00		 push	 DWORD PTR ?g_TlsManager@detail_tls@i3@@3Vtls_mgr@12@A
  00009	ff 15 00 00 00
	00		 call	 DWORD PTR __imp__TlsGetValue@4
; File E:\Proyectos\JuegosOnlineproyectos\PB\pbblow\Piercing Blow Remake\i3Server\include\i3Base\memory\memory_alloc.inl

; 87   : 		return ::HeapAlloc(HANDLE(h), 0, size);

  0000f	ff 75 08	 push	 DWORD PTR _n$[ebp]
  00012	6a 00		 push	 0
  00014	ff 70 24	 push	 DWORD PTR [eax+36]
  00017	ff 15 00 00 00
	00		 call	 DWORD PTR __imp__HeapAlloc@12
; File E:\Proyectos\JuegosOnlineproyectos\PB\pbblow\Piercing Blow Remake\i3Server\include\i3Base\tls\detail\tls_mgr.inl

; 81   : 	}

  0001d	5d		 pop	 ebp
  0001e	c3		 ret	 0
?tls_safe_malloc@i3@@YAPAXI@Z ENDP			; i3::tls_safe_malloc
_TEXT	ENDS
; Function compile flags: /Ogtp
; File E:\Proyectos\JuegosOnlineproyectos\PB\pbblow\Piercing Blow Remake\i3Server\include\i3Base\tls\detail\tls_mgr.inl
; File E:\Proyectos\JuegosOnlineproyectos\PB\pbblow\Piercing Blow Remake\i3Server\include\i3Base\memory\memory_alloc.inl
; File E:\Proyectos\JuegosOnlineproyectos\PB\pbblow\Piercing Blow Remake\i3Server\include\i3Base\memory\memory_aligned_apply.h
; File E:\Proyectos\JuegosOnlineproyectos\PB\pbblow\Piercing Blow Remake\i3Server\include\i3Base\memory\memory_alloc.inl
; File E:\Proyectos\JuegosOnlineproyectos\PB\pbblow\Piercing Blow Remake\i3Server\include\i3Base\tls\detail\tls_mgr.inl
;	COMDAT ?tls_aligned_free@i3@@YAXKPAX@Z
_TEXT	SEGMENT
_hThread$ = 8						; size = 4
_ptr$ = 12						; size = 4
?tls_aligned_free@i3@@YAXKPAX@Z PROC			; i3::tls_aligned_free, COMDAT

; 74   : 	{

  00000	55		 push	 ebp
  00001	8b ec		 mov	 ebp, esp
; File E:\Proyectos\JuegosOnlineproyectos\PB\pbblow\Piercing Blow Remake\i3Server\include\i3Base\memory\memory_alloc.inl

; 108  : 		if (!data) return;

  00003	8b 45 0c	 mov	 eax, DWORD PTR _ptr$[ebp]
  00006	85 c0		 test	 eax, eax
  00008	74 1c		 je	 SHORT $LN11@tls_aligne

; 109  : 		::HeapFree(HANDLE(h), 0, get_raw_data_from_aligned_malloc(data) );

  0000a	8b 4d 08	 mov	 ecx, DWORD PTR _hThread$[ebp]
; File E:\Proyectos\JuegosOnlineproyectos\PB\pbblow\Piercing Blow Remake\i3Server\include\i3Base\memory\memory_aligned_apply.h

; 33   : 		ptr = ( ptr & ~( sizeof(void*) -1 ) ) - sizeof(void*);

  0000d	83 e0 fc	 and	 eax, -4			; fffffffcH
; File E:\Proyectos\JuegosOnlineproyectos\PB\pbblow\Piercing Blow Remake\i3Server\include\i3Base\memory\memory_alloc.inl

; 109  : 		::HeapFree(HANDLE(h), 0, get_raw_data_from_aligned_malloc(data) );

  00010	ff 70 fc	 push	 DWORD PTR [eax-4]
  00013	a1 18 00 00 00	 mov	 eax, DWORD PTR ?g_TlsManager@detail_tls@i3@@3Vtls_mgr@12@A+24
  00018	6a 00		 push	 0
  0001a	8b 04 88	 mov	 eax, DWORD PTR [eax+ecx*4]
  0001d	ff 70 20	 push	 DWORD PTR [eax+32]
  00020	ff 15 00 00 00
	00		 call	 DWORD PTR __imp__HeapFree@12
$LN11@tls_aligne:
; File E:\Proyectos\JuegosOnlineproyectos\PB\pbblow\Piercing Blow Remake\i3Server\include\i3Base\tls\detail\tls_mgr.inl

; 76   : 	}

  00026	5d		 pop	 ebp
  00027	c3		 ret	 0
?tls_aligned_free@i3@@YAXKPAX@Z ENDP			; i3::tls_aligned_free
_TEXT	ENDS
; Function compile flags: /Ogtp
; File E:\Proyectos\JuegosOnlineproyectos\PB\pbblow\Piercing Blow Remake\i3Server\include\i3Base\tls\detail\tls_mgr.inl
; File E:\Proyectos\JuegosOnlineproyectos\PB\pbblow\Piercing Blow Remake\i3Server\include\i3Base\memory\calculate_adjusted_align.h
; File E:\Proyectos\JuegosOnlineproyectos\PB\pbblow\Piercing Blow Remake\i3Server\include\i3Base\tls\detail\tls_mgr.inl
; File E:\Proyectos\JuegosOnlineproyectos\PB\pbblow\Piercing Blow Remake\i3Server\include\i3Base\memory\calculate_adjusted_align.h
; File E:\Proyectos\JuegosOnlineproyectos\PB\pbblow\Piercing Blow Remake\i3Server\include\i3Base\tls\detail\tls_mgr.inl
; File E:\Proyectos\JuegosOnlineproyectos\PB\pbblow\Piercing Blow Remake\i3Server\include\i3Base\memory\memory_aligned_apply.h
; File E:\Proyectos\JuegosOnlineproyectos\PB\pbblow\Piercing Blow Remake\i3Server\include\i3Base\memory\memory_alloc.inl
; File E:\Proyectos\JuegosOnlineproyectos\PB\pbblow\Piercing Blow Remake\i3Server\include\i3Base\memory\memory_aligned_apply.h
; File E:\Proyectos\JuegosOnlineproyectos\PB\pbblow\Piercing Blow Remake\i3Server\include\i3Base\tls\detail\tls_mgr.inl
; File E:\Proyectos\JuegosOnlineproyectos\PB\pbblow\Piercing Blow Remake\i3Server\include\i3Base\memory\memory_aligned_apply.h
; File E:\Proyectos\JuegosOnlineproyectos\PB\pbblow\Piercing Blow Remake\i3Server\include\i3Base\tls\detail\tls_mgr.inl
;	COMDAT ?tls_aligned_malloc@i3@@YAPAXKII@Z
_TEXT	SEGMENT
_hThread$ = 8						; size = 4
_n$ = 12						; size = 4
_align$ = 16						; size = 4
?tls_aligned_malloc@i3@@YAPAXKII@Z PROC			; i3::tls_aligned_malloc, COMDAT

; 69   : 	{

  00000	55		 push	 ebp
  00001	8b ec		 mov	 ebp, esp

; 138  : 		void*		thread_data::tls_aligned_malloc(size_t n, size_t align) const {	return i3::heap_aligned_malloc(this->heapTls, n, align); }

  00003	8b 4d 08	 mov	 ecx, DWORD PTR _hThread$[ebp]
  00006	a1 18 00 00 00	 mov	 eax, DWORD PTR ?g_TlsManager@detail_tls@i3@@3Vtls_mgr@12@A+24

; 69   : 	{

  0000b	56		 push	 esi
; File E:\Proyectos\JuegosOnlineproyectos\PB\pbblow\Piercing Blow Remake\i3Server\include\i3Base\memory\calculate_adjusted_align.h

; 13   : 	size_t  calculate_adjusted_align( size_t align) {	return ( align > sizeof(void*) ) ? align : sizeof(void*); }

  0000c	be 04 00 00 00	 mov	 esi, 4
  00011	39 75 10	 cmp	 DWORD PTR _align$[ebp], esi
; File E:\Proyectos\JuegosOnlineproyectos\PB\pbblow\Piercing Blow Remake\i3Server\include\i3Base\tls\detail\tls_mgr.inl

; 138  : 		void*		thread_data::tls_aligned_malloc(size_t n, size_t align) const {	return i3::heap_aligned_malloc(this->heapTls, n, align); }

  00014	8b 04 88	 mov	 eax, DWORD PTR [eax+ecx*4]
; File E:\Proyectos\JuegosOnlineproyectos\PB\pbblow\Piercing Blow Remake\i3Server\include\i3Base\memory\calculate_adjusted_align.h

; 13   : 	size_t  calculate_adjusted_align( size_t align) {	return ( align > sizeof(void*) ) ? align : sizeof(void*); }

  00017	0f 47 75 10	 cmova	 esi, DWORD PTR _align$[ebp]
; File E:\Proyectos\JuegosOnlineproyectos\PB\pbblow\Piercing Blow Remake\i3Server\include\i3Base\tls\detail\tls_mgr.inl

; 138  : 		void*		thread_data::tls_aligned_malloc(size_t n, size_t align) const {	return i3::heap_aligned_malloc(this->heapTls, n, align); }

  0001b	8b 48 20	 mov	 ecx, DWORD PTR [eax+32]
; File E:\Proyectos\JuegosOnlineproyectos\PB\pbblow\Piercing Blow Remake\i3Server\include\i3Base\memory\memory_aligned_apply.h

; 19   : 	size_t	calculate_aligned_malloc_size(size_t size, size_t adjusted_align) { return sizeof(void*) + size + adjusted_align;  }

  0001e	8b 45 0c	 mov	 eax, DWORD PTR _n$[ebp]
  00021	83 c0 04	 add	 eax, 4
  00024	03 c6		 add	 eax, esi
; File E:\Proyectos\JuegosOnlineproyectos\PB\pbblow\Piercing Blow Remake\i3Server\include\i3Base\memory\memory_alloc.inl

; 101  : 		void* data = ::HeapAlloc(HANDLE(h), 0, calculate_aligned_malloc_size(size, align) );

  00026	50		 push	 eax
  00027	6a 00		 push	 0
  00029	51		 push	 ecx
  0002a	ff 15 00 00 00
	00		 call	 DWORD PTR __imp__HeapAlloc@12
; File E:\Proyectos\JuegosOnlineproyectos\PB\pbblow\Piercing Blow Remake\i3Server\include\i3Base\memory\memory_aligned_apply.h

; 24   : 		uintptr_t result = ( uintptr_t(raw_data) + sizeof(void*) + adjusted_align - 1 ) & ~(adjusted_align - 1);

  00030	8d 4e 03	 lea	 ecx, DWORD PTR [esi+3]
  00033	f7 de		 neg	 esi
  00035	03 c8		 add	 ecx, eax
  00037	23 ce		 and	 ecx, esi
; File E:\Proyectos\JuegosOnlineproyectos\PB\pbblow\Piercing Blow Remake\i3Server\include\i3Base\tls\detail\tls_mgr.inl

; 70   : 		return detail_tls::get_thread_data(hThread)->tls_aligned_malloc(n, align);

  00039	5e		 pop	 esi
; File E:\Proyectos\JuegosOnlineproyectos\PB\pbblow\Piercing Blow Remake\i3Server\include\i3Base\memory\memory_aligned_apply.h

; 25   : 		((uintptr_t*)result)[-1] = (uintptr_t)raw_data;

  0003a	89 41 fc	 mov	 DWORD PTR [ecx-4], eax
; File E:\Proyectos\JuegosOnlineproyectos\PB\pbblow\Piercing Blow Remake\i3Server\include\i3Base\tls\detail\tls_mgr.inl

; 70   : 		return detail_tls::get_thread_data(hThread)->tls_aligned_malloc(n, align);

  0003d	8b c1		 mov	 eax, ecx

; 71   : 	}

  0003f	5d		 pop	 ebp
  00040	c3		 ret	 0
?tls_aligned_malloc@i3@@YAPAXKII@Z ENDP			; i3::tls_aligned_malloc
_TEXT	ENDS
; Function compile flags: /Ogtp
; File E:\Proyectos\JuegosOnlineproyectos\PB\pbblow\Piercing Blow Remake\i3Server\include\i3Base\tls\detail\tls_mgr.inl
; File E:\Proyectos\JuegosOnlineproyectos\PB\pbblow\Piercing Blow Remake\i3Server\include\i3Base\memory\memory_alloc.inl
; File E:\Proyectos\JuegosOnlineproyectos\PB\pbblow\Piercing Blow Remake\i3Server\include\i3Base\memory\memory_aligned_apply.h
; File E:\Proyectos\JuegosOnlineproyectos\PB\pbblow\Piercing Blow Remake\i3Server\include\i3Base\memory\memory_alloc.inl
; File E:\Proyectos\JuegosOnlineproyectos\PB\pbblow\Piercing Blow Remake\i3Server\include\i3Base\tls\detail\tls_mgr.inl
;	COMDAT ?tls_aligned_free@i3@@YAXPAX@Z
_TEXT	SEGMENT
_ptr$ = 8						; size = 4
?tls_aligned_free@i3@@YAXPAX@Z PROC			; i3::tls_aligned_free, COMDAT

; 64   : 	{

  00000	55		 push	 ebp
  00001	8b ec		 mov	 ebp, esp

; 180  : 			return reinterpret_cast<thread_data*>(::TlsGetValue(m_dwTlsIdx));

  00003	ff 35 00 00 00
	00		 push	 DWORD PTR ?g_TlsManager@detail_tls@i3@@3Vtls_mgr@12@A
  00009	ff 15 00 00 00
	00		 call	 DWORD PTR __imp__TlsGetValue@4
; File E:\Proyectos\JuegosOnlineproyectos\PB\pbblow\Piercing Blow Remake\i3Server\include\i3Base\memory\memory_alloc.inl

; 108  : 		if (!data) return;

  0000f	8b 4d 08	 mov	 ecx, DWORD PTR _ptr$[ebp]
  00012	85 c9		 test	 ecx, ecx
  00014	74 11		 je	 SHORT $LN9@tls_aligne
; File E:\Proyectos\JuegosOnlineproyectos\PB\pbblow\Piercing Blow Remake\i3Server\include\i3Base\memory\memory_aligned_apply.h

; 33   : 		ptr = ( ptr & ~( sizeof(void*) -1 ) ) - sizeof(void*);

  00016	83 e1 fc	 and	 ecx, -4			; fffffffcH
; File E:\Proyectos\JuegosOnlineproyectos\PB\pbblow\Piercing Blow Remake\i3Server\include\i3Base\memory\memory_alloc.inl

; 109  : 		::HeapFree(HANDLE(h), 0, get_raw_data_from_aligned_malloc(data) );

  00019	ff 71 fc	 push	 DWORD PTR [ecx-4]
  0001c	6a 00		 push	 0
  0001e	ff 70 20	 push	 DWORD PTR [eax+32]
  00021	ff 15 00 00 00
	00		 call	 DWORD PTR __imp__HeapFree@12
$LN9@tls_aligne:
; File E:\Proyectos\JuegosOnlineproyectos\PB\pbblow\Piercing Blow Remake\i3Server\include\i3Base\tls\detail\tls_mgr.inl

; 66   : 	}

  00027	5d		 pop	 ebp
  00028	c3		 ret	 0
?tls_aligned_free@i3@@YAXPAX@Z ENDP			; i3::tls_aligned_free
_TEXT	ENDS
; Function compile flags: /Ogtp
; File E:\Proyectos\JuegosOnlineproyectos\PB\pbblow\Piercing Blow Remake\i3Server\include\i3Base\tls\detail\tls_mgr.inl
; File E:\Proyectos\JuegosOnlineproyectos\PB\pbblow\Piercing Blow Remake\i3Server\include\i3Base\memory\calculate_adjusted_align.h
; File E:\Proyectos\JuegosOnlineproyectos\PB\pbblow\Piercing Blow Remake\i3Server\include\i3Base\tls\detail\tls_mgr.inl
; File E:\Proyectos\JuegosOnlineproyectos\PB\pbblow\Piercing Blow Remake\i3Server\include\i3Base\memory\calculate_adjusted_align.h
; File E:\Proyectos\JuegosOnlineproyectos\PB\pbblow\Piercing Blow Remake\i3Server\include\i3Base\memory\memory_aligned_apply.h
; File E:\Proyectos\JuegosOnlineproyectos\PB\pbblow\Piercing Blow Remake\i3Server\include\i3Base\memory\memory_alloc.inl
; File E:\Proyectos\JuegosOnlineproyectos\PB\pbblow\Piercing Blow Remake\i3Server\include\i3Base\memory\memory_aligned_apply.h
; File E:\Proyectos\JuegosOnlineproyectos\PB\pbblow\Piercing Blow Remake\i3Server\include\i3Base\tls\detail\tls_mgr.inl
; File E:\Proyectos\JuegosOnlineproyectos\PB\pbblow\Piercing Blow Remake\i3Server\include\i3Base\memory\memory_aligned_apply.h
; File E:\Proyectos\JuegosOnlineproyectos\PB\pbblow\Piercing Blow Remake\i3Server\include\i3Base\tls\detail\tls_mgr.inl
;	COMDAT ?tls_aligned_malloc@i3@@YAPAXII@Z
_TEXT	SEGMENT
_n$ = 8							; size = 4
_align$ = 12						; size = 4
?tls_aligned_malloc@i3@@YAPAXII@Z PROC			; i3::tls_aligned_malloc, COMDAT

; 59   : 	{

  00000	55		 push	 ebp
  00001	8b ec		 mov	 ebp, esp
  00003	56		 push	 esi

; 180  : 			return reinterpret_cast<thread_data*>(::TlsGetValue(m_dwTlsIdx));

  00004	ff 35 00 00 00
	00		 push	 DWORD PTR ?g_TlsManager@detail_tls@i3@@3Vtls_mgr@12@A
  0000a	ff 15 00 00 00
	00		 call	 DWORD PTR __imp__TlsGetValue@4
; File E:\Proyectos\JuegosOnlineproyectos\PB\pbblow\Piercing Blow Remake\i3Server\include\i3Base\memory\calculate_adjusted_align.h

; 13   : 	size_t  calculate_adjusted_align( size_t align) {	return ( align > sizeof(void*) ) ? align : sizeof(void*); }

  00010	be 04 00 00 00	 mov	 esi, 4
  00015	39 75 0c	 cmp	 DWORD PTR _align$[ebp], esi
; File E:\Proyectos\JuegosOnlineproyectos\PB\pbblow\Piercing Blow Remake\i3Server\include\i3Base\tls\detail\tls_mgr.inl

; 138  : 		void*		thread_data::tls_aligned_malloc(size_t n, size_t align) const {	return i3::heap_aligned_malloc(this->heapTls, n, align); }

  00018	8b 48 20	 mov	 ecx, DWORD PTR [eax+32]
; File E:\Proyectos\JuegosOnlineproyectos\PB\pbblow\Piercing Blow Remake\i3Server\include\i3Base\memory\calculate_adjusted_align.h

; 13   : 	size_t  calculate_adjusted_align( size_t align) {	return ( align > sizeof(void*) ) ? align : sizeof(void*); }

  0001b	0f 47 75 0c	 cmova	 esi, DWORD PTR _align$[ebp]
; File E:\Proyectos\JuegosOnlineproyectos\PB\pbblow\Piercing Blow Remake\i3Server\include\i3Base\memory\memory_aligned_apply.h

; 19   : 	size_t	calculate_aligned_malloc_size(size_t size, size_t adjusted_align) { return sizeof(void*) + size + adjusted_align;  }

  0001f	8b 45 08	 mov	 eax, DWORD PTR _n$[ebp]
  00022	83 c0 04	 add	 eax, 4
  00025	03 c6		 add	 eax, esi
; File E:\Proyectos\JuegosOnlineproyectos\PB\pbblow\Piercing Blow Remake\i3Server\include\i3Base\memory\memory_alloc.inl

; 101  : 		void* data = ::HeapAlloc(HANDLE(h), 0, calculate_aligned_malloc_size(size, align) );

  00027	50		 push	 eax
  00028	6a 00		 push	 0
  0002a	51		 push	 ecx
  0002b	ff 15 00 00 00
	00		 call	 DWORD PTR __imp__HeapAlloc@12
; File E:\Proyectos\JuegosOnlineproyectos\PB\pbblow\Piercing Blow Remake\i3Server\include\i3Base\memory\memory_aligned_apply.h

; 24   : 		uintptr_t result = ( uintptr_t(raw_data) + sizeof(void*) + adjusted_align - 1 ) & ~(adjusted_align - 1);

  00031	8d 4e 03	 lea	 ecx, DWORD PTR [esi+3]
  00034	f7 de		 neg	 esi
  00036	03 c8		 add	 ecx, eax
  00038	23 ce		 and	 ecx, esi
; File E:\Proyectos\JuegosOnlineproyectos\PB\pbblow\Piercing Blow Remake\i3Server\include\i3Base\tls\detail\tls_mgr.inl

; 60   : 		return detail_tls::get_curr_thread_data()->tls_aligned_malloc(n, align);

  0003a	5e		 pop	 esi
; File E:\Proyectos\JuegosOnlineproyectos\PB\pbblow\Piercing Blow Remake\i3Server\include\i3Base\memory\memory_aligned_apply.h

; 25   : 		((uintptr_t*)result)[-1] = (uintptr_t)raw_data;

  0003b	89 41 fc	 mov	 DWORD PTR [ecx-4], eax
; File E:\Proyectos\JuegosOnlineproyectos\PB\pbblow\Piercing Blow Remake\i3Server\include\i3Base\tls\detail\tls_mgr.inl

; 60   : 		return detail_tls::get_curr_thread_data()->tls_aligned_malloc(n, align);

  0003e	8b c1		 mov	 eax, ecx

; 61   : 	}

  00040	5d		 pop	 ebp
  00041	c3		 ret	 0
?tls_aligned_malloc@i3@@YAPAXII@Z ENDP			; i3::tls_aligned_malloc
_TEXT	ENDS
; Function compile flags: /Ogtp
; File E:\Proyectos\JuegosOnlineproyectos\PB\pbblow\Piercing Blow Remake\i3Server\include\i3Base\tls\detail\tls_mgr.inl
; File E:\Proyectos\JuegosOnlineproyectos\PB\pbblow\Piercing Blow Remake\i3Server\include\i3Base\memory\memory_alloc.inl
; File E:\Proyectos\JuegosOnlineproyectos\PB\pbblow\Piercing Blow Remake\i3Server\include\i3Base\tls\detail\tls_mgr.inl
;	COMDAT ?tls_free@i3@@YAXKPAX@Z
_TEXT	SEGMENT
_hthread$ = 8						; size = 4
_ptr$ = 12						; size = 4
?tls_free@i3@@YAXKPAX@Z PROC				; i3::tls_free, COMDAT

; 53   : 	{

  00000	55		 push	 ebp
  00001	8b ec		 mov	 ebp, esp
; File E:\Proyectos\JuegosOnlineproyectos\PB\pbblow\Piercing Blow Remake\i3Server\include\i3Base\memory\memory_alloc.inl

; 93   : 		if (!data) return;

  00003	8b 45 0c	 mov	 eax, DWORD PTR _ptr$[ebp]
  00006	85 c0		 test	 eax, eax
  00008	74 17		 je	 SHORT $LN11@tls_free

; 94   : 		::HeapFree(HANDLE(h), 0, data);		// │╬░╦╗ń┴ż└Ū░Ī Š°┤┘..

  0000a	8b 4d 08	 mov	 ecx, DWORD PTR _hthread$[ebp]
  0000d	50		 push	 eax
  0000e	a1 18 00 00 00	 mov	 eax, DWORD PTR ?g_TlsManager@detail_tls@i3@@3Vtls_mgr@12@A+24
  00013	6a 00		 push	 0
  00015	8b 04 88	 mov	 eax, DWORD PTR [eax+ecx*4]
  00018	ff 70 20	 push	 DWORD PTR [eax+32]
  0001b	ff 15 00 00 00
	00		 call	 DWORD PTR __imp__HeapFree@12
$LN11@tls_free:
; File E:\Proyectos\JuegosOnlineproyectos\PB\pbblow\Piercing Blow Remake\i3Server\include\i3Base\tls\detail\tls_mgr.inl

; 55   : 	}

  00021	5d		 pop	 ebp
  00022	c3		 ret	 0
?tls_free@i3@@YAXKPAX@Z ENDP				; i3::tls_free
_TEXT	ENDS
; Function compile flags: /Ogtp
; File E:\Proyectos\JuegosOnlineproyectos\PB\pbblow\Piercing Blow Remake\i3Server\include\i3Base\tls\detail\tls_mgr.inl
; File E:\Proyectos\JuegosOnlineproyectos\PB\pbblow\Piercing Blow Remake\i3Server\include\i3Base\memory\memory_alloc.inl
; File E:\Proyectos\JuegosOnlineproyectos\PB\pbblow\Piercing Blow Remake\i3Server\include\i3Base\tls\detail\tls_mgr.inl
; File E:\Proyectos\JuegosOnlineproyectos\PB\pbblow\Piercing Blow Remake\i3Server\include\i3Base\memory\memory_alloc.inl
; File E:\Proyectos\JuegosOnlineproyectos\PB\pbblow\Piercing Blow Remake\i3Server\include\i3Base\tls\detail\tls_mgr.inl
;	COMDAT ?tls_malloc@i3@@YAPAXKI@Z
_TEXT	SEGMENT
_hthread$ = 8						; size = 4
_n$ = 12						; size = 4
?tls_malloc@i3@@YAPAXKI@Z PROC				; i3::tls_malloc, COMDAT

; 47   : 	{

  00000	55		 push	 ebp
  00001	8b ec		 mov	 ebp, esp

; 132  : 		void*		thread_data::tls_malloc(size_t n) const { return i3::heap_malloc(this->heapTls, n); }

  00003	8b 4d 08	 mov	 ecx, DWORD PTR _hthread$[ebp]
  00006	a1 18 00 00 00	 mov	 eax, DWORD PTR ?g_TlsManager@detail_tls@i3@@3Vtls_mgr@12@A+24
; File E:\Proyectos\JuegosOnlineproyectos\PB\pbblow\Piercing Blow Remake\i3Server\include\i3Base\memory\memory_alloc.inl

; 87   : 		return ::HeapAlloc(HANDLE(h), 0, size);

  0000b	ff 75 0c	 push	 DWORD PTR _n$[ebp]
  0000e	6a 00		 push	 0
; File E:\Proyectos\JuegosOnlineproyectos\PB\pbblow\Piercing Blow Remake\i3Server\include\i3Base\tls\detail\tls_mgr.inl

; 132  : 		void*		thread_data::tls_malloc(size_t n) const { return i3::heap_malloc(this->heapTls, n); }

  00010	8b 04 88	 mov	 eax, DWORD PTR [eax+ecx*4]
; File E:\Proyectos\JuegosOnlineproyectos\PB\pbblow\Piercing Blow Remake\i3Server\include\i3Base\memory\memory_alloc.inl

; 87   : 		return ::HeapAlloc(HANDLE(h), 0, size);

  00013	ff 70 20	 push	 DWORD PTR [eax+32]
  00016	ff 15 00 00 00
	00		 call	 DWORD PTR __imp__HeapAlloc@12
; File E:\Proyectos\JuegosOnlineproyectos\PB\pbblow\Piercing Blow Remake\i3Server\include\i3Base\tls\detail\tls_mgr.inl

; 49   : 	}

  0001c	5d		 pop	 ebp
  0001d	c3		 ret	 0
?tls_malloc@i3@@YAPAXKI@Z ENDP				; i3::tls_malloc
_TEXT	ENDS
; Function compile flags: /Ogtp
; File E:\Proyectos\JuegosOnlineproyectos\PB\pbblow\Piercing Blow Remake\i3Server\include\i3Base\tls\detail\tls_mgr.inl
; File E:\Proyectos\JuegosOnlineproyectos\PB\pbblow\Piercing Blow Remake\i3Server\include\i3Base\memory\memory_alloc.inl
; File E:\Proyectos\JuegosOnlineproyectos\PB\pbblow\Piercing Blow Remake\i3Server\include\i3Base\tls\detail\tls_mgr.inl
;	COMDAT ?tls_free@i3@@YAXPAX@Z
_TEXT	SEGMENT
_ptr$ = 8						; size = 4
?tls_free@i3@@YAXPAX@Z PROC				; i3::tls_free, COMDAT

; 41   : 	{

  00000	55		 push	 ebp
  00001	8b ec		 mov	 ebp, esp

; 180  : 			return reinterpret_cast<thread_data*>(::TlsGetValue(m_dwTlsIdx));

  00003	ff 35 00 00 00
	00		 push	 DWORD PTR ?g_TlsManager@detail_tls@i3@@3Vtls_mgr@12@A
  00009	ff 15 00 00 00
	00		 call	 DWORD PTR __imp__TlsGetValue@4
; File E:\Proyectos\JuegosOnlineproyectos\PB\pbblow\Piercing Blow Remake\i3Server\include\i3Base\memory\memory_alloc.inl

; 93   : 		if (!data) return;

  0000f	8b 4d 08	 mov	 ecx, DWORD PTR _ptr$[ebp]
  00012	85 c9		 test	 ecx, ecx
  00014	74 0c		 je	 SHORT $LN9@tls_free

; 94   : 		::HeapFree(HANDLE(h), 0, data);		// │╬░╦╗ń┴ż└Ū░Ī Š°┤┘..

  00016	51		 push	 ecx
  00017	6a 00		 push	 0
  00019	ff 70 20	 push	 DWORD PTR [eax+32]
  0001c	ff 15 00 00 00
	00		 call	 DWORD PTR __imp__HeapFree@12
$LN9@tls_free:
; File E:\Proyectos\JuegosOnlineproyectos\PB\pbblow\Piercing Blow Remake\i3Server\include\i3Base\tls\detail\tls_mgr.inl

; 43   : 	}

  00022	5d		 pop	 ebp
  00023	c3		 ret	 0
?tls_free@i3@@YAXPAX@Z ENDP				; i3::tls_free
_TEXT	ENDS
; Function compile flags: /Ogtp
; File E:\Proyectos\JuegosOnlineproyectos\PB\pbblow\Piercing Blow Remake\i3Server\include\i3Base\tls\detail\tls_mgr.inl
; File E:\Proyectos\JuegosOnlineproyectos\PB\pbblow\Piercing Blow Remake\i3Server\include\i3Base\memory\memory_alloc.inl
; File E:\Proyectos\JuegosOnlineproyectos\PB\pbblow\Piercing Blow Remake\i3Server\include\i3Base\tls\detail\tls_mgr.inl
;	COMDAT ?tls_malloc@i3@@YAPAXI@Z
_TEXT	SEGMENT
_n$ = 8							; size = 4
?tls_malloc@i3@@YAPAXI@Z PROC				; i3::tls_malloc, COMDAT

; 35   : 	{

  00000	55		 push	 ebp
  00001	8b ec		 mov	 ebp, esp

; 180  : 			return reinterpret_cast<thread_data*>(::TlsGetValue(m_dwTlsIdx));

  00003	ff 35 00 00 00
	00		 push	 DWORD PTR ?g_TlsManager@detail_tls@i3@@3Vtls_mgr@12@A
  00009	ff 15 00 00 00
	00		 call	 DWORD PTR __imp__TlsGetValue@4
; File E:\Proyectos\JuegosOnlineproyectos\PB\pbblow\Piercing Blow Remake\i3Server\include\i3Base\memory\memory_alloc.inl

; 87   : 		return ::HeapAlloc(HANDLE(h), 0, size);

  0000f	ff 75 08	 push	 DWORD PTR _n$[ebp]
  00012	6a 00		 push	 0
  00014	ff 70 20	 push	 DWORD PTR [eax+32]
  00017	ff 15 00 00 00
	00		 call	 DWORD PTR __imp__HeapAlloc@12
; File E:\Proyectos\JuegosOnlineproyectos\PB\pbblow\Piercing Blow Remake\i3Server\include\i3Base\tls\detail\tls_mgr.inl

; 37   : 	}

  0001d	5d		 pop	 ebp
  0001e	c3		 ret	 0
?tls_malloc@i3@@YAPAXI@Z ENDP				; i3::tls_malloc
_TEXT	ENDS
; Function compile flags: /Ogtp
; File E:\Proyectos\JuegosOnlineproyectos\PB\pbblow\Piercing Blow Remake\i3Server\include\i3Base\tls\detail\tls_mgr.inl
; File E:\Proyectos\JuegosOnlineproyectos\PB\pbblow\Piercing Blow Remake\i3Server\include\i3Base\itl\detail\vector.h
; File E:\Proyectos\JuegosOnlineproyectos\PB\pbblow\Piercing Blow Remake\i3Server\include\i3Base\tls\detail\tls_mgr.inl
;	COMDAT ?get_num_tls_ptr@i3@@YAIXZ
_TEXT	SEGMENT
?get_num_tls_ptr@i3@@YAIXZ PROC				; i3::get_num_tls_ptr, COMDAT
; File E:\Proyectos\JuegosOnlineproyectos\PB\pbblow\Piercing Blow Remake\i3Server\include\i3Base\itl\detail\vector.h

; 153  : 		size_type		size() const	{ return m_last - m_first; }

  00000	a1 0c 00 00 00	 mov	 eax, DWORD PTR ?g_TlsManager@detail_tls@i3@@3Vtls_mgr@12@A+12
  00005	2b 05 08 00 00
	00		 sub	 eax, DWORD PTR ?g_TlsManager@detail_tls@i3@@3Vtls_mgr@12@A+8
  0000b	c1 f8 02	 sar	 eax, 2
; File E:\Proyectos\JuegosOnlineproyectos\PB\pbblow\Piercing Blow Remake\i3Server\include\i3Base\tls\detail\tls_mgr.inl

; 31   : 	}

  0000e	c3		 ret	 0
?get_num_tls_ptr@i3@@YAIXZ ENDP				; i3::get_num_tls_ptr
_TEXT	ENDS
; Function compile flags: /Ogtp
; File E:\Proyectos\JuegosOnlineproyectos\PB\pbblow\Piercing Blow Remake\i3Server\include\i3Base\tls\detail\tls_mgr.inl
; File E:\Proyectos\JuegosOnlineproyectos\PB\pbblow\Piercing Blow Remake\i3Server\include\i3Base\itl\detail\vector.h
; File E:\Proyectos\JuegosOnlineproyectos\PB\pbblow\Piercing Blow Remake\i3Server\include\i3Base\tls\detail\tls_mgr.inl
;	COMDAT ?get_num_tls_thread_id@i3@@YAKXZ
_TEXT	SEGMENT
?get_num_tls_thread_id@i3@@YAKXZ PROC			; i3::get_num_tls_thread_id, COMDAT
; File E:\Proyectos\JuegosOnlineproyectos\PB\pbblow\Piercing Blow Remake\i3Server\include\i3Base\itl\detail\vector.h

; 153  : 		size_type		size() const	{ return m_last - m_first; }

  00000	a1 1c 00 00 00	 mov	 eax, DWORD PTR ?g_TlsManager@detail_tls@i3@@3Vtls_mgr@12@A+28
  00005	2b 05 18 00 00
	00		 sub	 eax, DWORD PTR ?g_TlsManager@detail_tls@i3@@3Vtls_mgr@12@A+24
  0000b	c1 f8 02	 sar	 eax, 2
; File E:\Proyectos\JuegosOnlineproyectos\PB\pbblow\Piercing Blow Remake\i3Server\include\i3Base\tls\detail\tls_mgr.inl

; 25   : 	}

  0000e	c3		 ret	 0
?get_num_tls_thread_id@i3@@YAKXZ ENDP			; i3::get_num_tls_thread_id
_TEXT	ENDS
; Function compile flags: /Ogtp
; File E:\Proyectos\JuegosOnlineproyectos\PB\pbblow\Piercing Blow Remake\i3Server\include\i3Base\tls\detail\tls_mgr.inl
;	COMDAT ?get_curr_tls_thread_id@i3@@YAKXZ
_TEXT	SEGMENT
?get_curr_tls_thread_id@i3@@YAKXZ PROC			; i3::get_curr_tls_thread_id, COMDAT

; 180  : 			return reinterpret_cast<thread_data*>(::TlsGetValue(m_dwTlsIdx));

  00000	ff 35 00 00 00
	00		 push	 DWORD PTR ?g_TlsManager@detail_tls@i3@@3Vtls_mgr@12@A
  00006	ff 15 00 00 00
	00		 call	 DWORD PTR __imp__TlsGetValue@4

; 18   : 		return detail_tls::get_curr_thread_data()->get_thread_id();

  0000c	8b 40 28	 mov	 eax, DWORD PTR [eax+40]

; 19   : 	}

  0000f	c3		 ret	 0
?get_curr_tls_thread_id@i3@@YAKXZ ENDP			; i3::get_curr_tls_thread_id
_TEXT	ENDS
; Function compile flags: /Ogtp
; File E:\Proyectos\JuegosOnlineproyectos\PB\pbblow\Piercing Blow Remake\i3Server\include\i3Base\itl\detail\vector.h
; File E:\Proyectos\JuegosOnlineproyectos\PB\pbblow\Piercing Blow Remake\i3Server\include\i3Base\memory\heap_allocator.h
; File E:\Proyectos\JuegosOnlineproyectos\PB\pbblow\Piercing Blow Remake\i3Server\include\i3Base\memory\memory_aligned_apply.h
; File E:\Proyectos\JuegosOnlineproyectos\PB\pbblow\Piercing Blow Remake\i3Server\include\i3Base\memory\memory_alloc.inl
; File E:\Proyectos\JuegosOnlineproyectos\PB\pbblow\Piercing Blow Remake\i3Server\include\i3Base\memory\memory_aligned_apply.h
; File E:\Proyectos\JuegosOnlineproyectos\PB\pbblow\Piercing Blow Remake\i3Server\include\i3Base\itl\detail\vector.h
; File E:\Proyectos\JuegosOnlineproyectos\PB\pbblow\Piercing Blow Remake\i3Server\include\i3Base\itl\memory.h
; File C:\Program Files (x86)\Windows Kits\10\Include\10.0.26100.0\ucrt\corecrt_memcpy_s.h
; File E:\Proyectos\JuegosOnlineproyectos\PB\pbblow\Piercing Blow Remake\i3Server\include\i3Base\itl\memory.h
; File E:\Proyectos\JuegosOnlineproyectos\PB\pbblow\Piercing Blow Remake\i3Server\include\i3Base\itl\detail\vector.h
; File E:\Proyectos\JuegosOnlineproyectos\PB\pbblow\Piercing Blow Remake\i3Server\include\i3Base\itl\memory.h
; File E:\Proyectos\JuegosOnlineproyectos\PB\pbblow\Piercing Blow Remake\i3Server\include\i3Base\itl\detail\vector.h
; File E:\Proyectos\JuegosOnlineproyectos\PB\pbblow\Piercing Blow Remake\i3Server\include\i3Base\itl\memory.h
; File C:\Program Files (x86)\Windows Kits\10\Include\10.0.26100.0\ucrt\corecrt_memcpy_s.h
; File E:\Proyectos\JuegosOnlineproyectos\PB\pbblow\Piercing Blow Remake\i3Server\include\i3Base\itl\detail\vector.h
; File C:\Program Files (x86)\Windows Kits\10\Include\10.0.26100.0\ucrt\corecrt_memcpy_s.h
; File E:\Proyectos\JuegosOnlineproyectos\PB\pbblow\Piercing Blow Remake\i3Server\include\i3Base\itl\detail\vector.h
; File E:\Proyectos\JuegosOnlineproyectos\PB\pbblow\Piercing Blow Remake\i3Server\include\i3Base\memory\memory_aligned_apply.h
; File E:\Proyectos\JuegosOnlineproyectos\PB\pbblow\Piercing Blow Remake\i3Server\include\i3Base\memory\memory_alloc.inl
; File E:\Proyectos\JuegosOnlineproyectos\PB\pbblow\Piercing Blow Remake\i3Server\include\i3Base\itl\detail\vector.h
; File E:\Proyectos\JuegosOnlineproyectos\PB\pbblow\Piercing Blow Remake\i3Server\include\i3Base\itl\xutility.h
; File E:\Proyectos\JuegosOnlineproyectos\PB\pbblow\Piercing Blow Remake\i3Server\include\i3Base\itl\detail\vector.h
; File C:\Program Files (x86)\Windows Kits\10\Include\10.0.26100.0\ucrt\corecrt_memcpy_s.h
; File E:\Proyectos\JuegosOnlineproyectos\PB\pbblow\Piercing Blow Remake\i3Server\include\i3Base\itl\detail\vector.h
; File C:\Program Files (x86)\Windows Kits\10\Include\10.0.26100.0\ucrt\corecrt_memcpy_s.h
; File E:\Proyectos\JuegosOnlineproyectos\PB\pbblow\Piercing Blow Remake\i3Server\include\i3Base\itl\detail\vector.h
; File E:\Proyectos\JuegosOnlineproyectos\PB\pbblow\Piercing Blow Remake\i3Server\include\i3Base\itl\xutility.h
; File C:\Program Files (x86)\Windows Kits\10\Include\10.0.26100.0\ucrt\corecrt_memcpy_s.h
; File E:\Proyectos\JuegosOnlineproyectos\PB\pbblow\Piercing Blow Remake\i3Server\include\i3Base\itl\detail\vector.h
; File E:\Proyectos\JuegosOnlineproyectos\PB\pbblow\Piercing Blow Remake\i3Server\include\i3Base\itl\xutility.h
; File E:\Proyectos\JuegosOnlineproyectos\PB\pbblow\Piercing Blow Remake\i3Server\include\i3Base\itl\detail\vector.h
;	COMDAT ?insert_1@?$vector@PAVtls_base@i3@@V?$heap_allocator@PAVtls_base@i3@@@2@@i3@@AAEXPBQAVtls_base@2@ABQAV32@@Z
_TEXT	SEGMENT
tv1024 = -4						; size = 4
tv1027 = -4						; size = 4
_where$ = 8						; size = 4
_Result$1$ = 8						; size = 4
tv964 = 8						; size = 4
tv1031 = 8						; size = 4
_val$ = 12						; size = 4
?insert_1@?$vector@PAVtls_base@i3@@V?$heap_allocator@PAVtls_base@i3@@@2@@i3@@AAEXPBQAVtls_base@2@ABQAV32@@Z PROC ; i3::vector<i3::tls_base *,i3::heap_allocator<i3::tls_base *> >::insert_1, COMDAT
; _this$ = ecx

; 396  : 		{	// insert _Count * _Val at _Where

  00000	55		 push	 ebp
  00001	8b ec		 mov	 ebp, esp
  00003	51		 push	 ecx
  00004	53		 push	 ebx
  00005	56		 push	 esi
  00006	8b 75 08	 mov	 esi, DWORD PTR _where$[ebp]

; 397  : 			iterator Where = iterator(where);
; 398  : 			size_type Capacity = capacity();
; 399  : 
; 400  : 			if ( max_size() - size() < 1 )

  00009	b8 ff ff ff 3f	 mov	 eax, 1073741823		; 3fffffffH
  0000e	57		 push	 edi
  0000f	8b f9		 mov	 edi, ecx

; 153  : 		size_type		size() const	{ return m_last - m_first; }

  00011	8b 4f 08	 mov	 ecx, DWORD PTR [edi+8]
  00014	8b d1		 mov	 edx, ecx
  00016	2b 57 04	 sub	 edx, DWORD PTR [edi+4]

; 132  : 		size_type		capacity() const { return m_end - m_first; }

  00019	8b 5f 0c	 mov	 ebx, DWORD PTR [edi+12]
  0001c	2b 5f 04	 sub	 ebx, DWORD PTR [edi+4]

; 153  : 		size_type		size() const	{ return m_last - m_first; }

  0001f	c1 fa 02	 sar	 edx, 2

; 397  : 			iterator Where = iterator(where);
; 398  : 			size_type Capacity = capacity();
; 399  : 
; 400  : 			if ( max_size() - size() < 1 )

  00022	2b c2		 sub	 eax, edx

; 132  : 		size_type		capacity() const { return m_end - m_first; }

  00024	c1 fb 02	 sar	 ebx, 2

; 153  : 		size_type		size() const	{ return m_last - m_first; }

  00027	89 4d 08	 mov	 DWORD PTR _Result$1$[ebp], ecx

; 397  : 			iterator Where = iterator(where);
; 398  : 			size_type Capacity = capacity();
; 399  : 
; 400  : 			if ( max_size() - size() < 1 )

  0002a	83 f8 01	 cmp	 eax, 1
  0002d	0f 82 d6 01 00
	00		 jb	 $LN116@insert_1

; 401  : 				;
; 402  : 			else if ( Capacity < size() + 1 )

  00033	42		 inc	 edx
  00034	3b da		 cmp	 ebx, edx
  00036	0f 83 fd 00 00
	00		 jae	 $LN4@insert_1

; 403  : 			{	// not enough room, reallocate
; 404  : 				Capacity = ( max_size() - Capacity / 2 < Capacity) ? 0 : Capacity + Capacity / 2;	// try to grow by 50%

  0003c	8b c3		 mov	 eax, ebx
  0003e	b9 ff ff ff 3f	 mov	 ecx, 1073741823		; 3fffffffH
  00043	d1 e8		 shr	 eax, 1
  00045	2b c8		 sub	 ecx, eax

; 405  : 				if ( Capacity < size() + 1)	Capacity = size() + 1;

  00047	03 c3		 add	 eax, ebx
  00049	89 4d 08	 mov	 DWORD PTR tv964[ebp], ecx
  0004c	33 c9		 xor	 ecx, ecx
  0004e	39 5d 08	 cmp	 DWORD PTR tv964[ebp], ebx
  00051	0f 43 c8	 cmovae	 ecx, eax
; File E:\Proyectos\JuegosOnlineproyectos\PB\pbblow\Piercing Blow Remake\i3Server\include\i3Base\memory\heap_allocator.h

; 36   : 			return (pointer)heap_aligned_malloc(m_heap, _Count * sizeof(T), __alignof(T) );

  00054	3b ca		 cmp	 ecx, edx
  00056	0f 43 d1	 cmovae	 edx, ecx
  00059	c1 e2 02	 shl	 edx, 2
  0005c	89 55 fc	 mov	 DWORD PTR tv1024[ebp], edx
; File E:\Proyectos\JuegosOnlineproyectos\PB\pbblow\Piercing Blow Remake\i3Server\include\i3Base\memory\memory_aligned_apply.h

; 19   : 	size_t	calculate_aligned_malloc_size(size_t size, size_t adjusted_align) { return sizeof(void*) + size + adjusted_align;  }

  0005f	8d 42 08	 lea	 eax, DWORD PTR [edx+8]
; File E:\Proyectos\JuegosOnlineproyectos\PB\pbblow\Piercing Blow Remake\i3Server\include\i3Base\memory\memory_alloc.inl

; 101  : 		void* data = ::HeapAlloc(HANDLE(h), 0, calculate_aligned_malloc_size(size, align) );

  00062	50		 push	 eax
  00063	6a 00		 push	 0
  00065	ff 37		 push	 DWORD PTR [edi]
  00067	ff 15 00 00 00
	00		 call	 DWORD PTR __imp__HeapAlloc@12
; File E:\Proyectos\JuegosOnlineproyectos\PB\pbblow\Piercing Blow Remake\i3Server\include\i3Base\memory\memory_aligned_apply.h

; 24   : 		uintptr_t result = ( uintptr_t(raw_data) + sizeof(void*) + adjusted_align - 1 ) & ~(adjusted_align - 1);

  0006d	8d 58 07	 lea	 ebx, DWORD PTR [eax+7]
  00070	83 e3 fc	 and	 ebx, -4			; fffffffcH

; 25   : 		((uintptr_t*)result)[-1] = (uintptr_t)raw_data;

  00073	89 43 fc	 mov	 DWORD PTR [ebx-4], eax
; File E:\Proyectos\JuegosOnlineproyectos\PB\pbblow\Piercing Blow Remake\i3Server\include\i3Base\itl\detail\vector.h

; 408  : 				size_type Whereoff = Where - m_first;

  00076	8b c6		 mov	 eax, esi
  00078	2b 47 04	 sub	 eax, DWORD PTR [edi+4]
  0007b	c1 f8 02	 sar	 eax, 2

; 409  : 			
; 410  : 				i3::uninitialized_fill_1(Newvec + Whereoff, val, allocator_base::get() );	// i3::uninitialized_fill_1(Newvec + Whereoff, val, m_alloc );	// add new stuff

  0007e	8d 0c 83	 lea	 ecx, DWORD PTR [ebx+eax*4]
  00081	8b 45 0c	 mov	 eax, DWORD PTR _val$[ebp]
  00084	89 4d 08	 mov	 DWORD PTR tv1031[ebp], ecx
  00087	8b 00		 mov	 eax, DWORD PTR [eax]
  00089	89 01		 mov	 DWORD PTR [ecx], eax
; File E:\Proyectos\JuegosOnlineproyectos\PB\pbblow\Piercing Blow Remake\i3Server\include\i3Base\itl\memory.h

; 58   : 			size_t count = (size_t)(Last - First);

  0008b	8b c6		 mov	 eax, esi

; 133  : 		return detail::uninit_copy(First, Last, Dest, Al,	pointer_category(First, Dest) ) ;

  0008d	8b 4f 04	 mov	 ecx, DWORD PTR [edi+4]

; 58   : 			size_t count = (size_t)(Last - First);

  00090	2b c1		 sub	 eax, ecx
  00092	c1 f8 02	 sar	 eax, 2

; 60   : 			if (count > 0)

  00095	85 c0		 test	 eax, eax
  00097	74 28		 je	 SHORT $LN38@insert_1

; 61   : 				::memmove_s(&*Dest, count * sizeof (*First), &*First, count * sizeof (*First));	// NB: non-overlapping move

  00099	c1 e0 02	 shl	 eax, 2
; File C:\Program Files (x86)\Windows Kits\10\Include\10.0.26100.0\ucrt\corecrt_memcpy_s.h

; 76   :         if (_SourceSize == 0)

  0009c	85 c0		 test	 eax, eax
  0009e	74 21		 je	 SHORT $LN38@insert_1

; 82   :         _CRT_MEMCPY_S_VALIDATE_RETURN_ERRCODE(_Source != NULL,                 EINVAL);

  000a0	85 c9		 test	 ecx, ecx
  000a2	75 12		 jne	 SHORT $LN41@insert_1
  000a4	e8 00 00 00 00	 call	 __errno
  000a9	c7 00 16 00 00
	00		 mov	 DWORD PTR [eax], 22	; 00000016H
  000af	e8 00 00 00 00	 call	 __invalid_parameter_noinfo
  000b4	eb 0b		 jmp	 SHORT $LN38@insert_1
$LN41@insert_1:

; 83   :         _CRT_MEMCPY_S_VALIDATE_RETURN_ERRCODE(_DestinationSize >= _SourceSize, ERANGE);
; 84   : 
; 85   :         memmove(_Destination, _Source, _SourceSize);

  000b6	50		 push	 eax
  000b7	51		 push	 ecx
  000b8	53		 push	 ebx
  000b9	e8 00 00 00 00	 call	 _memmove
  000be	83 c4 0c	 add	 esp, 12			; 0000000cH
$LN38@insert_1:
; File E:\Proyectos\JuegosOnlineproyectos\PB\pbblow\Piercing Blow Remake\i3Server\include\i3Base\itl\memory.h

; 58   : 			size_t count = (size_t)(Last - First);

  000c1	8b 47 08	 mov	 eax, DWORD PTR [edi+8]
; File E:\Proyectos\JuegosOnlineproyectos\PB\pbblow\Piercing Blow Remake\i3Server\include\i3Base\itl\detail\vector.h

; 412  : 				i3::uninitialized_copy(Where, m_last, Newvec + Whereoff + 1, allocator_base::get());	//i3::uninitialized_copy( Where, m_last, Newvec + Whereoff + 1, m_alloc);	// move suffix

  000c4	8b 4d 08	 mov	 ecx, DWORD PTR tv1031[ebp]
; File E:\Proyectos\JuegosOnlineproyectos\PB\pbblow\Piercing Blow Remake\i3Server\include\i3Base\itl\memory.h

; 58   : 			size_t count = (size_t)(Last - First);

  000c7	2b c6		 sub	 eax, esi
  000c9	c1 f8 02	 sar	 eax, 2
; File E:\Proyectos\JuegosOnlineproyectos\PB\pbblow\Piercing Blow Remake\i3Server\include\i3Base\itl\detail\vector.h

; 412  : 				i3::uninitialized_copy(Where, m_last, Newvec + Whereoff + 1, allocator_base::get());	//i3::uninitialized_copy( Where, m_last, Newvec + Whereoff + 1, m_alloc);	// move suffix

  000cc	83 c1 04	 add	 ecx, 4
; File E:\Proyectos\JuegosOnlineproyectos\PB\pbblow\Piercing Blow Remake\i3Server\include\i3Base\itl\memory.h

; 60   : 			if (count > 0)

  000cf	85 c0		 test	 eax, eax
  000d1	74 2c		 je	 SHORT $LN51@insert_1

; 61   : 				::memmove_s(&*Dest, count * sizeof (*First), &*First, count * sizeof (*First));	// NB: non-overlapping move

  000d3	c1 e0 02	 shl	 eax, 2
; File C:\Program Files (x86)\Windows Kits\10\Include\10.0.26100.0\ucrt\corecrt_memcpy_s.h

; 76   :         if (_SourceSize == 0)

  000d6	85 c0		 test	 eax, eax
  000d8	74 25		 je	 SHORT $LN51@insert_1

; 81   :         _CRT_MEMCPY_S_VALIDATE_RETURN_ERRCODE(_Destination != NULL,            EINVAL);

  000da	85 c9		 test	 ecx, ecx
  000dc	75 12		 jne	 SHORT $LN53@insert_1
$LN152@insert_1:
; File E:\Proyectos\JuegosOnlineproyectos\PB\pbblow\Piercing Blow Remake\i3Server\include\i3Base\itl\detail\vector.h

; 153  : 		size_type		size() const	{ return m_last - m_first; }

  000de	e8 00 00 00 00	 call	 __errno
  000e3	c7 00 16 00 00
	00		 mov	 DWORD PTR [eax], 22	; 00000016H
  000e9	e8 00 00 00 00	 call	 __invalid_parameter_noinfo
  000ee	eb 0f		 jmp	 SHORT $LN51@insert_1
$LN53@insert_1:
; File C:\Program Files (x86)\Windows Kits\10\Include\10.0.26100.0\ucrt\corecrt_memcpy_s.h

; 82   :         _CRT_MEMCPY_S_VALIDATE_RETURN_ERRCODE(_Source != NULL,                 EINVAL);

  000f0	85 f6		 test	 esi, esi
  000f2	74 ea		 je	 SHORT $LN152@insert_1

; 83   :         _CRT_MEMCPY_S_VALIDATE_RETURN_ERRCODE(_DestinationSize >= _SourceSize, ERANGE);
; 84   : 
; 85   :         memmove(_Destination, _Source, _SourceSize);

  000f4	50		 push	 eax
  000f5	56		 push	 esi
  000f6	51		 push	 ecx
  000f7	e8 00 00 00 00	 call	 _memmove
  000fc	83 c4 0c	 add	 esp, 12			; 0000000cH
$LN51@insert_1:
; File E:\Proyectos\JuegosOnlineproyectos\PB\pbblow\Piercing Blow Remake\i3Server\include\i3Base\itl\detail\vector.h

; 153  : 		size_type		size() const	{ return m_last - m_first; }

  000ff	8b 47 04	 mov	 eax, DWORD PTR [edi+4]
  00102	8b 77 08	 mov	 esi, DWORD PTR [edi+8]
  00105	2b f0		 sub	 esi, eax
  00107	c1 fe 02	 sar	 esi, 2

; 413  : 
; 414  : 				size_type count = 1 + size();

  0010a	46		 inc	 esi

; 415  : 
; 416  : 				if (m_first != 0)		// destroy and deallocate old array

  0010b	85 c0		 test	 eax, eax
  0010d	74 10		 je	 SHORT $LN63@insert_1
; File E:\Proyectos\JuegosOnlineproyectos\PB\pbblow\Piercing Blow Remake\i3Server\include\i3Base\memory\memory_aligned_apply.h

; 33   : 		ptr = ( ptr & ~( sizeof(void*) -1 ) ) - sizeof(void*);

  0010f	83 e0 fc	 and	 eax, -4			; fffffffcH
; File E:\Proyectos\JuegosOnlineproyectos\PB\pbblow\Piercing Blow Remake\i3Server\include\i3Base\memory\memory_alloc.inl

; 109  : 		::HeapFree(HANDLE(h), 0, get_raw_data_from_aligned_malloc(data) );

  00112	ff 70 fc	 push	 DWORD PTR [eax-4]
  00115	6a 00		 push	 0
  00117	ff 37		 push	 DWORD PTR [edi]
  00119	ff 15 00 00 00
	00		 call	 DWORD PTR __imp__HeapFree@12
$LN63@insert_1:
; File E:\Proyectos\JuegosOnlineproyectos\PB\pbblow\Piercing Blow Remake\i3Server\include\i3Base\itl\detail\vector.h

; 422  : 				m_end = Newvec + Capacity;

  0011f	8b 45 fc	 mov	 eax, DWORD PTR tv1024[ebp]
  00122	03 c3		 add	 eax, ebx

; 423  : 				m_last = Newvec + count;
; 424  : 				m_first = Newvec;

  00124	89 5f 04	 mov	 DWORD PTR [edi+4], ebx
  00127	89 47 0c	 mov	 DWORD PTR [edi+12], eax
  0012a	8d 04 b3	 lea	 eax, DWORD PTR [ebx+esi*4]
  0012d	89 47 08	 mov	 DWORD PTR [edi+8], eax
  00130	5f		 pop	 edi

; 443  : 		}

  00131	5e		 pop	 esi
  00132	5b		 pop	 ebx
  00133	8b e5		 mov	 esp, ebp
  00135	5d		 pop	 ebp
  00136	c2 08 00	 ret	 8
$LN4@insert_1:

; 425  : 			}
; 426  : 			else if ( (size_type)( m_last - Where ) < 1 )

  00139	8b c1		 mov	 eax, ecx
  0013b	2b c6		 sub	 eax, esi
  0013d	89 45 fc	 mov	 DWORD PTR tv1027[ebp], eax
  00140	8b 45 0c	 mov	 eax, DWORD PTR _val$[ebp]
  00143	8b 18		 mov	 ebx, DWORD PTR [eax]
  00145	8b 45 fc	 mov	 eax, DWORD PTR tv1027[ebp]
  00148	c1 f8 02	 sar	 eax, 2
  0014b	83 f8 01	 cmp	 eax, 1
  0014e	73 27		 jae	 SHORT $LN8@insert_1

; 427  : 			{	// new stuff spills off end
; 428  : 				T Tmp = val;	// in case _Val is in sequence
; 429  : 				i3::uninitialized_copy(Where, m_last, Where + 1, allocator_base::get()); // i3::uninitialized_copy( Where, m_last, Where + 1 , m_alloc );	//  copy suffix
; 430  : 				i3::uninitialized_fill_1(m_last, Tmp, allocator_base::get());			// i3::uninitialized_fill_1( m_last, Tmp, m_alloc);	// insert new stuff off end

  00150	8b c1		 mov	 eax, ecx
  00152	89 18		 mov	 DWORD PTR [eax], ebx

; 431  : 				++m_last;

  00154	8b 4f 08	 mov	 ecx, DWORD PTR [edi+8]
  00157	8d 41 04	 lea	 eax, DWORD PTR [ecx+4]
  0015a	89 47 08	 mov	 DWORD PTR [edi+8], eax
; File E:\Proyectos\JuegosOnlineproyectos\PB\pbblow\Piercing Blow Remake\i3Server\include\i3Base\itl\xutility.h

; 140  : 			for (; First != Last; ++First)

  0015d	3b f1		 cmp	 esi, ecx
  0015f	0f 84 a4 00 00
	00		 je	 $LN116@insert_1
$LL86@insert_1:

; 141  : 				*First = Val;

  00165	89 1e		 mov	 DWORD PTR [esi], ebx
  00167	83 c6 04	 add	 esi, 4
  0016a	3b f1		 cmp	 esi, ecx
  0016c	75 f7		 jne	 SHORT $LL86@insert_1
; File E:\Proyectos\JuegosOnlineproyectos\PB\pbblow\Piercing Blow Remake\i3Server\include\i3Base\itl\detail\vector.h

; 443  : 		}

  0016e	5f		 pop	 edi
  0016f	5e		 pop	 esi
  00170	5b		 pop	 ebx
  00171	8b e5		 mov	 esp, ebp
  00173	5d		 pop	 ebp
  00174	c2 08 00	 ret	 8
$LN8@insert_1:

; 439  : 				m_last = i3::uninitialized_copy(Oldend - 1, Oldend, m_last, allocator_base::get()); // i3::uninitialized_copy( Oldend - 1, Oldend, m_last, m_alloc);// copy suffix

  00177	8d 41 fc	 lea	 eax, DWORD PTR [ecx-4]
; File C:\Program Files (x86)\Windows Kits\10\Include\10.0.26100.0\ucrt\corecrt_memcpy_s.h

; 81   :         _CRT_MEMCPY_S_VALIDATE_RETURN_ERRCODE(_Destination != NULL,            EINVAL);

  0017a	85 c9		 test	 ecx, ecx
  0017c	75 15		 jne	 SHORT $LN97@insert_1
$LN153@insert_1:
; File E:\Proyectos\JuegosOnlineproyectos\PB\pbblow\Piercing Blow Remake\i3Server\include\i3Base\itl\detail\vector.h

; 439  : 				m_last = i3::uninitialized_copy(Oldend - 1, Oldend, m_last, allocator_base::get()); // i3::uninitialized_copy( Oldend - 1, Oldend, m_last, m_alloc);// copy suffix

  0017e	e8 00 00 00 00	 call	 __errno
  00183	c7 00 16 00 00
	00		 mov	 DWORD PTR [eax], 22	; 00000016H
  00189	e8 00 00 00 00	 call	 __invalid_parameter_noinfo
  0018e	8b 4d 08	 mov	 ecx, DWORD PTR _Result$1$[ebp]
  00191	eb 08		 jmp	 SHORT $LN95@insert_1
$LN97@insert_1:
; File C:\Program Files (x86)\Windows Kits\10\Include\10.0.26100.0\ucrt\corecrt_memcpy_s.h

; 82   :         _CRT_MEMCPY_S_VALIDATE_RETURN_ERRCODE(_Source != NULL,                 EINVAL);

  00193	85 c0		 test	 eax, eax
  00195	74 e7		 je	 SHORT $LN153@insert_1

; 83   :         _CRT_MEMCPY_S_VALIDATE_RETURN_ERRCODE(_DestinationSize >= _SourceSize, ERANGE);
; 84   : 
; 85   :         memmove(_Destination, _Source, _SourceSize);

  00197	8b 00		 mov	 eax, DWORD PTR [eax]
  00199	89 01		 mov	 DWORD PTR [ecx], eax
$LN95@insert_1:
; File E:\Proyectos\JuegosOnlineproyectos\PB\pbblow\Piercing Blow Remake\i3Server\include\i3Base\itl\detail\vector.h

; 439  : 				m_last = i3::uninitialized_copy(Oldend - 1, Oldend, m_last, allocator_base::get()); // i3::uninitialized_copy( Oldend - 1, Oldend, m_last, m_alloc);// copy suffix

  0019b	8d 41 04	 lea	 eax, DWORD PTR [ecx+4]
  0019e	89 47 08	 mov	 DWORD PTR [edi+8], eax
; File E:\Proyectos\JuegosOnlineproyectos\PB\pbblow\Piercing Blow Remake\i3Server\include\i3Base\itl\xutility.h

; 192  : 			ptrdiff_t Off = Last - First;	// NB: non-overlapping move

  001a1	8b 45 fc	 mov	 eax, DWORD PTR tv1027[ebp]
  001a4	83 c0 fc	 add	 eax, -4			; fffffffcH
  001a7	c1 f8 02	 sar	 eax, 2

; 193  : 			// if _OutIt is range checked, this will make sure there is enough space for the memmove
; 194  : 			
; 195  : 			BidirectionalIterator2 Result = Dest - Off;

  001aa	8d 14 85 00 00
	00 00		 lea	 edx, DWORD PTR [eax*4]
  001b1	2b ca		 sub	 ecx, edx

; 196  : 			if (Off > 0)

  001b3	85 c0		 test	 eax, eax
  001b5	7e 40		 jle	 SHORT $LN106@insert_1
; File C:\Program Files (x86)\Windows Kits\10\Include\10.0.26100.0\ucrt\corecrt_memcpy_s.h

; 76   :         if (_SourceSize == 0)

  001b7	85 d2		 test	 edx, edx
  001b9	74 3c		 je	 SHORT $LN106@insert_1

; 81   :         _CRT_MEMCPY_S_VALIDATE_RETURN_ERRCODE(_Destination != NULL,            EINVAL);

  001bb	85 c9		 test	 ecx, ecx
  001bd	75 12		 jne	 SHORT $LN108@insert_1
  001bf	e8 00 00 00 00	 call	 __errno
  001c4	c7 00 16 00 00
	00		 mov	 DWORD PTR [eax], 22	; 00000016H
  001ca	e8 00 00 00 00	 call	 __invalid_parameter_noinfo
  001cf	eb 26		 jmp	 SHORT $LN106@insert_1
$LN108@insert_1:

; 82   :         _CRT_MEMCPY_S_VALIDATE_RETURN_ERRCODE(_Source != NULL,                 EINVAL);

  001d1	85 f6		 test	 esi, esi
  001d3	75 17		 jne	 SHORT $LN109@insert_1
  001d5	e8 00 00 00 00	 call	 __errno
  001da	c7 00 16 00 00
	00		 mov	 DWORD PTR [eax], 22	; 00000016H
  001e0	e8 00 00 00 00	 call	 __invalid_parameter_noinfo
  001e5	8b c6		 mov	 eax, esi
  001e7	8d 4e 04	 lea	 ecx, DWORD PTR [esi+4]
  001ea	eb 14		 jmp	 SHORT $LL117@insert_1
$LN109@insert_1:

; 83   :         _CRT_MEMCPY_S_VALIDATE_RETURN_ERRCODE(_DestinationSize >= _SourceSize, ERANGE);
; 84   : 
; 85   :         memmove(_Destination, _Source, _SourceSize);

  001ec	52		 push	 edx
  001ed	56		 push	 esi
  001ee	51		 push	 ecx
  001ef	e8 00 00 00 00	 call	 _memmove
  001f4	83 c4 0c	 add	 esp, 12			; 0000000cH
$LN106@insert_1:
; File E:\Proyectos\JuegosOnlineproyectos\PB\pbblow\Piercing Blow Remake\i3Server\include\i3Base\itl\detail\vector.h

; 441  : 				i3::fill(Where, Where + 1,	Tmp);	// insert into hole

  001f7	8d 4e 04	 lea	 ecx, DWORD PTR [esi+4]
; File E:\Proyectos\JuegosOnlineproyectos\PB\pbblow\Piercing Blow Remake\i3Server\include\i3Base\itl\xutility.h

; 247  : 		detail::Fill(First, Last, Val);

  001fa	8b c6		 mov	 eax, esi

; 140  : 			for (; First != Last; ++First)

  001fc	3b f1		 cmp	 esi, ecx
  001fe	74 09		 je	 SHORT $LN116@insert_1
$LL117@insert_1:

; 141  : 				*First = Val;

  00200	89 18		 mov	 DWORD PTR [eax], ebx
  00202	83 c0 04	 add	 eax, 4
  00205	3b c1		 cmp	 eax, ecx
  00207	75 f7		 jne	 SHORT $LL117@insert_1
$LN116@insert_1:
  00209	5f		 pop	 edi
; File E:\Proyectos\JuegosOnlineproyectos\PB\pbblow\Piercing Blow Remake\i3Server\include\i3Base\itl\detail\vector.h

; 443  : 		}

  0020a	5e		 pop	 esi
  0020b	5b		 pop	 ebx
  0020c	8b e5		 mov	 esp, ebp
  0020e	5d		 pop	 ebp
  0020f	c2 08 00	 ret	 8
?insert_1@?$vector@PAVtls_base@i3@@V?$heap_allocator@PAVtls_base@i3@@@2@@i3@@AAEXPBQAVtls_base@2@ABQAV32@@Z ENDP ; i3::vector<i3::tls_base *,i3::heap_allocator<i3::tls_base *> >::insert_1
_TEXT	ENDS
; Function compile flags: /Ogtp
; File E:\Proyectos\JuegosOnlineproyectos\PB\pbblow\Piercing Blow Remake\i3Server\include\i3Base\itl\noncopyable.h
;	COMDAT ??1noncopyable@i3@@IAE@XZ
_TEXT	SEGMENT
??1noncopyable@i3@@IAE@XZ PROC				; i3::noncopyable::~noncopyable, COMDAT
; _this$ = ecx

; 15   : 		~noncopyable() {}

  00000	c2 00 00	 ret	 0
??1noncopyable@i3@@IAE@XZ ENDP				; i3::noncopyable::~noncopyable
_TEXT	ENDS
; Function compile flags: /Ogtp
; File E:\Proyectos\JuegosOnlineproyectos\PB\pbblow\Piercing Blow Remake\i3Server\include\i3Base\itl\noncopyable.h
;	COMDAT ??0noncopyable@i3@@IAE@XZ
_TEXT	SEGMENT
??0noncopyable@i3@@IAE@XZ PROC				; i3::noncopyable::noncopyable, COMDAT
; _this$ = ecx

; 14   : 		noncopyable() {}

  00000	8b c1		 mov	 eax, ecx
  00002	c3		 ret	 0
??0noncopyable@i3@@IAE@XZ ENDP				; i3::noncopyable::noncopyable
_TEXT	ENDS
END
