; Listing generated by Microsoft (R) Optimizing Compiler Version 19.50.35727.0 

	TITLE	E:\Proyectos\JuegosOnlineproyectos\PB\pbblow\Piercing Blow Remake\i3Server\Project\I3_DX\i3Server\x86\Release\pool_dbg.obj
	.686P
	.XMM
	include listing.inc
	.model	flat

INCLUDELIB LIBCMT
INCLUDELIB OLDNAMES

PUBLIC	__Avx2WmemEnabledWeakValue
;	COMDAT __Avx2WmemEnabledWeakValue
_BSS	SEGMENT
__Avx2WmemEnabledWeakValue DD 01H DUP (?)
_BSS	ENDS
PUBLIC	??0noncopyable@i3@@IAE@XZ			; i3::noncopyable::noncopyable
PUBLIC	??1noncopyable@i3@@IAE@XZ			; i3::noncopyable::~noncopyable
; Function compile flags: /Ogtp
; File E:\Proyectos\JuegosOnlineproyectos\PB\pbblow\Piercing Blow Remake\i3Server\include\i3Base\itl\noncopyable.h
;	COMDAT ??1noncopyable@i3@@IAE@XZ
_TEXT	SEGMENT
??1noncopyable@i3@@IAE@XZ PROC				; i3::noncopyable::~noncopyable, COMDAT
; _this$ = ecx

; 15   : 		~noncopyable() {}

  00000	c2 00 00	 ret	 0
??1noncopyable@i3@@IAE@XZ ENDP				; i3::noncopyable::~noncopyable
_TEXT	ENDS
; Function compile flags: /Ogtp
; File E:\Proyectos\JuegosOnlineproyectos\PB\pbblow\Piercing Blow Remake\i3Server\include\i3Base\itl\noncopyable.h
;	COMDAT ??0noncopyable@i3@@IAE@XZ
_TEXT	SEGMENT
??0noncopyable@i3@@IAE@XZ PROC				; i3::noncopyable::noncopyable, COMDAT
; _this$ = ecx

; 14   : 		noncopyable() {}

  00000	8b c1		 mov	 eax, ecx
  00002	c3		 ret	 0
??0noncopyable@i3@@IAE@XZ ENDP				; i3::noncopyable::noncopyable
_TEXT	ENDS
END
