; Listing generated by Microsoft (R) Optimizing Compiler Version 19.50.35727.0 

	TITLE	E:\Proyectos\JuegosOnlineproyectos\PB\pbblow\Piercing Blow Remake\i3Server\Project\I3_DX\i3Server\x86\Release\pool_base.obj
	.686P
	.XMM
	include listing.inc
	.model	flat

INCLUDELIB LIBCMT
INCLUDELIB OLDNAMES

PUBLIC	??0noncopyable@i3@@IAE@XZ			; i3::noncopyable::noncopyable
PUBLIC	??1noncopyable@i3@@IAE@XZ			; i3::noncopyable::~noncopyable
PUBLIC	?insert_1@?$vector@PAVtls_base@i3@@V?$heap_allocator@PAVtls_base@i3@@@2@@i3@@AAEXPBQAVtls_base@2@ABQAV32@@Z ; i3::vector<i3::tls_base *,i3::heap_allocator<i3::tls_base *> >::insert_1
PUBLIC	?get_curr_tls_thread_id@i3@@YAKXZ		; i3::get_curr_tls_thread_id
PUBLIC	?get_num_tls_thread_id@i3@@YAKXZ		; i3::get_num_tls_thread_id
PUBLIC	?get_num_tls_ptr@i3@@YAIXZ			; i3::get_num_tls_ptr
PUBLIC	?tls_malloc@i3@@YAPAXI@Z			; i3::tls_malloc
PUBLIC	?tls_free@i3@@YAXPAX@Z				; i3::tls_free
PUBLIC	?tls_malloc@i3@@YAPAXKI@Z			; i3::tls_malloc
PUBLIC	?tls_free@i3@@YAXKPAX@Z				; i3::tls_free
PUBLIC	?tls_aligned_malloc@i3@@YAPAXII@Z		; i3::tls_aligned_malloc
PUBLIC	?tls_aligned_free@i3@@YAXPAX@Z			; i3::tls_aligned_free
PUBLIC	?tls_aligned_malloc@i3@@YAPAXKII@Z		; i3::tls_aligned_malloc
PUBLIC	?tls_aligned_free@i3@@YAXKPAX@Z			; i3::tls_aligned_free
PUBLIC	?tls_safe_malloc@i3@@YAPAXI@Z			; i3::tls_safe_malloc
PUBLIC	?tls_safe_free@i3@@YAXPAX@Z			; i3::tls_safe_free
PUBLIC	?tls_safe_malloc@i3@@YAPAXKI@Z			; i3::tls_safe_malloc
PUBLIC	?tls_safe_free@i3@@YAXKPAX@Z			; i3::tls_safe_free
PUBLIC	?tls_safe_aligned_malloc@i3@@YAPAXII@Z		; i3::tls_safe_aligned_malloc
PUBLIC	?tls_safe_aligned_free@i3@@YAXPAX@Z		; i3::tls_safe_aligned_free
PUBLIC	?tls_safe_aligned_malloc@i3@@YAPAXKII@Z		; i3::tls_safe_aligned_malloc
PUBLIC	?tls_safe_aligned_free@i3@@YAXKPAX@Z		; i3::tls_safe_aligned_free
PUBLIC	??1tls_base@i3@@UAE@XZ				; i3::tls_base::~tls_base
PUBLIC	??0tls_base@i3@@IAE@XZ				; i3::tls_base::tls_base
PUBLIC	?get@tls_base@i3@@IBEPAXXZ			; i3::tls_base::get
PUBLIC	?get_by_thread_id@tls_base@i3@@IBEPAXK@Z	; i3::tls_base::get_by_thread_id
PUBLIC	?get_raw@tls_base@i3@@IBEPAXXZ			; i3::tls_base::get_raw
PUBLIC	?get_raw_by_thread_id@tls_base@i3@@IBEPAXK@Z	; i3::tls_base::get_raw_by_thread_id
PUBLIC	?slot_idx@tls_base@i3@@IBEIXZ			; i3::tls_base::slot_idx
PUBLIC	??_Gtls_base@i3@@UAEPAXI@Z			; i3::tls_base::`scalar deleting destructor'
PUBLIC	??_Etls_base@i3@@UAEPAXI@Z			; i3::tls_base::`vector deleting destructor'
PUBLIC	??0pool_base@i3@@IAE@I@Z			; i3::pool_base::pool_base
PUBLIC	??1pool_base@i3@@IAE@XZ				; i3::pool_base::~pool_base
PUBLIC	?clean_up@pool_base@i3@@IAEXK@Z			; i3::pool_base::clean_up
PUBLIC	?allocate_from_new_block@pool_base@i3@@IAEPAXKAAPAUmem_block_header@2@II@Z ; i3::pool_base::allocate_from_new_block
PUBLIC	?deallocate_same_thread@pool_base@i3@@IAEXAAPAUmem_block_header@2@PAU32@PAX@Z ; i3::pool_base::deallocate_same_thread
PUBLIC	?expand_memory_size_by_pow2@pool_base@i3@@IAEXI@Z ; i3::pool_base::expand_memory_size_by_pow2
PUBLIC	?malloc_raw_memory@pool_base@i3@@IAEXK@Z	; i3::pool_base::malloc_raw_memory
PUBLIC	?get_raw_block@pool_base@i3@@AAEPAUmem_block_header@2@K@Z ; i3::pool_base::get_raw_block
PUBLIC	?get_new_block@pool_base@i3@@AAEPAUmem_block_header@2@KII@Z ; i3::pool_base::get_new_block
PUBLIC	?allocate_from_alloc_ptr@detail@i3@@YAPAXPAUmem_block_header@2@@Z ; i3::detail::allocate_from_alloc_ptr
PUBLIC	?allocate_from_block@detail@i3@@YAPAXPAUmem_block_header@2@@Z ; i3::detail::allocate_from_block
PUBLIC	?allocate_from_active_blocks@detail@i3@@YAPAXAAPAUmem_block_header@2@@Z ; i3::detail::allocate_from_active_blocks
PUBLIC	?deallocate_same_thread@detail@i3@@YAXAAPAUmem_block_header@2@0PAU32@PAX@Z ; i3::detail::deallocate_same_thread
PUBLIC	?allocate_from_tss_blocks@detail@i3@@YAPAXAAPAUmem_block_header@2@PAUtss_free_block_by_size@2@@Z ; i3::detail::allocate_from_tss_blocks
PUBLIC	?deallocate_other_thread@detail@i3@@YAXPAUtss_free_block_by_size@2@PAUmem_block_header@2@PAX@Z ; i3::detail::deallocate_other_thread
PUBLIC	?destroy_all@raw_memory_ctn@i3@@SAXKPAV12@@Z	; i3::raw_memory_ctn::destroy_all
PUBLIC	?allocate_from_freelist@detail@i3@@YAPAXPAUmem_block_header@2@@Z ; i3::detail::allocate_from_freelist
PUBLIC	?process_restore_block_to_active@detail@i3@@YAXAAPAUmem_block_header@2@PAU32@@Z ; i3::detail::process_restore_block_to_active
PUBLIC	?process_return_block_to_free_block_list@detail@i3@@YAXAAPAUmem_block_header@2@0PAU32@@Z ; i3::detail::process_return_block_to_free_block_list
PUBLIC	??_7tls_base@i3@@6B@				; i3::tls_base::`vftable'
PUBLIC	??_R4tls_base@i3@@6B@				; i3::tls_base::`RTTI Complete Object Locator'
PUBLIC	??_R0?AVtls_base@i3@@@8				; i3::tls_base `RTTI Type Descriptor'
PUBLIC	??_R3tls_base@i3@@8				; i3::tls_base::`RTTI Class Hierarchy Descriptor'
PUBLIC	??_R2tls_base@i3@@8				; i3::tls_base::`RTTI Base Class Array'
PUBLIC	??_R1A@?0A@EA@tls_base@i3@@8			; i3::tls_base::`RTTI Base Class Descriptor at (0,-1,0,64)'
PUBLIC	??_R13?0A@EN@noncopyable@i3@@8			; i3::noncopyable::`RTTI Base Class Descriptor at (4,-1,0,77)'
PUBLIC	??_R0?AVnoncopyable@i3@@@8			; i3::noncopyable `RTTI Type Descriptor'
PUBLIC	??_R3noncopyable@i3@@8				; i3::noncopyable::`RTTI Class Hierarchy Descriptor'
PUBLIC	??_R2noncopyable@i3@@8				; i3::noncopyable::`RTTI Base Class Array'
PUBLIC	??_R1A@?0A@EA@noncopyable@i3@@8			; i3::noncopyable::`RTTI Base Class Descriptor at (0,-1,0,64)'
PUBLIC	__real@463e8000
PUBLIC	__real@4f800000
EXTRN	??_M@YGXPAXIIP6EX0@Z@Z:PROC			; `eh vector destructor iterator'
EXTRN	__purecall:PROC
EXTRN	??3@YAXPAXI@Z:PROC				; operator delete
EXTRN	??_V@YAXPAXI@Z:PROC				; operator delete[]
EXTRN	__invalid_parameter_noinfo:PROC
EXTRN	__errno:PROC
EXTRN	__imp__HeapAlloc@12:PROC
EXTRN	__imp__HeapFree@12:PROC
EXTRN	__imp__TlsGetValue@4:PROC
EXTRN	__imp__VirtualAlloc@16:PROC
EXTRN	__imp__VirtualFree@12:PROC
EXTRN	@__security_check_cookie@4:PROC
EXTRN	___CxxFrameHandler3:PROC
EXTRN	_memmove:PROC
EXTRN	_memset:PROC
EXTRN	?g_TlsManager@detail_tls@i3@@3Vtls_mgr@12@A:BYTE ; i3::detail_tls::g_TlsManager
EXTRN	??_7type_info@@6B@:QWORD			; type_info::`vftable'
EXTRN	___security_cookie:DWORD
EXTRN	__fltused:DWORD
;	COMDAT __real@4f800000
CONST	SEGMENT
__real@4f800000 DD 04f800000r			; 4.29497e+09
CONST	ENDS
;	COMDAT __real@463e8000
CONST	SEGMENT
__real@463e8000 DD 0463e8000r			; 12192
CONST	ENDS
;	COMDAT ??_R1A@?0A@EA@noncopyable@i3@@8
rdata$r	SEGMENT
??_R1A@?0A@EA@noncopyable@i3@@8 DD FLAT:??_R0?AVnoncopyable@i3@@@8 ; i3::noncopyable::`RTTI Base Class Descriptor at (0,-1,0,64)'
	DD	00H
	DD	00H
	DD	0ffffffffH
	DD	00H
	DD	040H
	DD	FLAT:??_R3noncopyable@i3@@8
rdata$r	ENDS
;	COMDAT ??_R2noncopyable@i3@@8
rdata$r	SEGMENT
??_R2noncopyable@i3@@8 DD FLAT:??_R1A@?0A@EA@noncopyable@i3@@8 ; i3::noncopyable::`RTTI Base Class Array'
rdata$r	ENDS
;	COMDAT ??_R3noncopyable@i3@@8
rdata$r	SEGMENT
??_R3noncopyable@i3@@8 DD 00H				; i3::noncopyable::`RTTI Class Hierarchy Descriptor'
	DD	00H
	DD	01H
	DD	FLAT:??_R2noncopyable@i3@@8
rdata$r	ENDS
;	COMDAT ??_R0?AVnoncopyable@i3@@@8
data$rs	SEGMENT
??_R0?AVnoncopyable@i3@@@8 DD FLAT:??_7type_info@@6B@	; i3::noncopyable `RTTI Type Descriptor'
	DD	00H
	DB	'.?AVnoncopyable@i3@@', 00H
data$rs	ENDS
;	COMDAT ??_R13?0A@EN@noncopyable@i3@@8
rdata$r	SEGMENT
??_R13?0A@EN@noncopyable@i3@@8 DD FLAT:??_R0?AVnoncopyable@i3@@@8 ; i3::noncopyable::`RTTI Base Class Descriptor at (4,-1,0,77)'
	DD	00H
	DD	04H
	DD	0ffffffffH
	DD	00H
	DD	04dH
	DD	FLAT:??_R3noncopyable@i3@@8
rdata$r	ENDS
;	COMDAT ??_R1A@?0A@EA@tls_base@i3@@8
rdata$r	SEGMENT
??_R1A@?0A@EA@tls_base@i3@@8 DD FLAT:??_R0?AVtls_base@i3@@@8 ; i3::tls_base::`RTTI Base Class Descriptor at (0,-1,0,64)'
	DD	01H
	DD	00H
	DD	0ffffffffH
	DD	00H
	DD	040H
	DD	FLAT:??_R3tls_base@i3@@8
rdata$r	ENDS
;	COMDAT ??_R2tls_base@i3@@8
rdata$r	SEGMENT
??_R2tls_base@i3@@8 DD FLAT:??_R1A@?0A@EA@tls_base@i3@@8 ; i3::tls_base::`RTTI Base Class Array'
	DD	FLAT:??_R13?0A@EN@noncopyable@i3@@8
rdata$r	ENDS
;	COMDAT ??_R3tls_base@i3@@8
rdata$r	SEGMENT
??_R3tls_base@i3@@8 DD 00H				; i3::tls_base::`RTTI Class Hierarchy Descriptor'
	DD	00H
	DD	02H
	DD	FLAT:??_R2tls_base@i3@@8
rdata$r	ENDS
;	COMDAT ??_R0?AVtls_base@i3@@@8
data$rs	SEGMENT
??_R0?AVtls_base@i3@@@8 DD FLAT:??_7type_info@@6B@	; i3::tls_base `RTTI Type Descriptor'
	DD	00H
	DB	'.?AVtls_base@i3@@', 00H
data$rs	ENDS
;	COMDAT ??_R4tls_base@i3@@6B@
rdata$r	SEGMENT
??_R4tls_base@i3@@6B@ DD 00H				; i3::tls_base::`RTTI Complete Object Locator'
	DD	00H
	DD	00H
	DD	FLAT:??_R0?AVtls_base@i3@@@8
	DD	FLAT:??_R3tls_base@i3@@8
rdata$r	ENDS
;	COMDAT ??_7tls_base@i3@@6B@
CONST	SEGMENT
??_7tls_base@i3@@6B@ DD FLAT:??_R4tls_base@i3@@6B@	; i3::tls_base::`vftable'
	DD	FLAT:??_Etls_base@i3@@UAEPAXI@Z
	DD	FLAT:__purecall
CONST	ENDS
;	COMDAT xdata$x
xdata$x	SEGMENT
__ehfuncinfo$??_Etls_base@i3@@UAEPAXI@Z DD 019930522H
	DD	00H
	DD	00H
	DD	2 DUP(00H)
	DD	2 DUP(00H)
	DD	00H
	DD	05H
xdata$x	ENDS
; Function compile flags: /Ogtp
; File E:\Proyectos\JuegosOnlineproyectos\PB\pbblow\Piercing Blow Remake\i3Server\src\i3Base\pool\pool_base.cpp
;	COMDAT ?process_return_block_to_free_block_list@detail@i3@@YAXAAPAUmem_block_header@2@0PAU32@@Z
_TEXT	SEGMENT
_free_block_list$ = 8					; size = 4
_active_block$ = 12					; size = 4
_block$ = 16						; size = 4
?process_return_block_to_free_block_list@detail@i3@@YAXAAPAUmem_block_header@2@0PAU32@@Z PROC ; i3::detail::process_return_block_to_free_block_list, COMDAT

; 218  : 		{

  00000	55		 push	 ebp
  00001	8b ec		 mov	 ebp, esp

; 219  : 			if ( block == active_block )

  00003	8b 55 10	 mov	 edx, DWORD PTR _block$[ebp]
  00006	56		 push	 esi
  00007	8b 75 0c	 mov	 esi, DWORD PTR _active_block$[ebp]
  0000a	3b 16		 cmp	 edx, DWORD PTR [esi]
  0000c	75 05		 jne	 SHORT $LN6@process_re

; 220  : 			{
; 221  : //				assert(block != block->prev);
; 222  : 				active_block =  block->prev;		// active_blockÁ¦°Ĺ˝ĂżŁ prev·Î ŔĚµż, Č¤Ŕş prevłÎŔÎ °ćżě ľřŔ˝...

  0000e	8b 42 04	 mov	 eax, DWORD PTR [edx+4]
  00011	89 06		 mov	 DWORD PTR [esi], eax
$LN6@process_re:

; 223  : 			}
; 224  : 			
; 225  : 			if ( block->prev )

  00013	8b 72 04	 mov	 esi, DWORD PTR [edx+4]
  00016	85 f6		 test	 esi, esi
  00018	74 04		 je	 SHORT $LN3@process_re

; 226  : 				block->prev->next = block->next;

  0001a	8b 02		 mov	 eax, DWORD PTR [edx]
  0001c	89 06		 mov	 DWORD PTR [esi], eax
$LN3@process_re:

; 227  : 			if (block->next)

  0001e	8b 32		 mov	 esi, DWORD PTR [edx]
  00020	85 f6		 test	 esi, esi
  00022	74 06		 je	 SHORT $LN4@process_re

; 228  : 				block->next->prev = block->prev;

  00024	8b 42 04	 mov	 eax, DWORD PTR [edx+4]
  00027	89 46 04	 mov	 DWORD PTR [esi+4], eax
$LN4@process_re:

; 229  : 
; 230  : 			// ľĆ·ˇ 2°ł¸¦ Á¦żÜÇŃ łŞ¸ÓÁö´Â ą«ČżÇŃ °ŞŔÓ..
; 231  : 			block->curr_alloc_ptr = (void*)( uintptr_t(block) + pool_block_size );
; 232  : 			block->next = free_block_list;

  0002a	8b 4d 08	 mov	 ecx, DWORD PTR _free_block_list$[ebp]
  0002d	8d 82 00 40 00
	00		 lea	 eax, DWORD PTR [edx+16384]
  00033	89 42 08	 mov	 DWORD PTR [edx+8], eax

; 233  : 			//
; 234  : 			free_block_list = block;		//	ÇÁ¸®şí·Ď¸®˝şĆ®żˇ µî·Ď..

  00036	5e		 pop	 esi
  00037	8b 01		 mov	 eax, DWORD PTR [ecx]
  00039	89 02		 mov	 DWORD PTR [edx], eax
  0003b	89 11		 mov	 DWORD PTR [ecx], edx

; 235  : 		}

  0003d	5d		 pop	 ebp
  0003e	c3		 ret	 0
?process_return_block_to_free_block_list@detail@i3@@YAXAAPAUmem_block_header@2@0PAU32@@Z ENDP ; i3::detail::process_return_block_to_free_block_list
_TEXT	ENDS
; Function compile flags: /Ogtp
; File E:\Proyectos\JuegosOnlineproyectos\PB\pbblow\Piercing Blow Remake\i3Server\src\i3Base\pool\pool_base.cpp
;	COMDAT ?process_restore_block_to_active@detail@i3@@YAXAAPAUmem_block_header@2@PAU32@@Z
_TEXT	SEGMENT
_active_block$ = 8					; size = 4
_block$ = 12						; size = 4
tv246 = 12						; size = 4
tv247 = 12						; size = 4
?process_restore_block_to_active@detail@i3@@YAXAAPAUmem_block_header@2@PAU32@@Z PROC ; i3::detail::process_restore_block_to_active, COMDAT

; 196  : 		{

  00000	55		 push	 ebp
  00001	8b ec		 mov	 ebp, esp

; 191  : 			block->is_full = ( block->alloc_count * block->obj_actual_size > block_full_threshold  ) ? 1 : 0;

  00003	8b 4d 0c	 mov	 ecx, DWORD PTR _block$[ebp]
  00006	8b 41 18	 mov	 eax, DWORD PTR [ecx+24]
  00009	0f af 41 14	 imul	 eax, DWORD PTR [ecx+20]
  0000d	89 45 0c	 mov	 DWORD PTR tv247[ebp], eax
  00010	db 45 0c	 fild	 DWORD PTR tv247[ebp]
  00013	85 c0		 test	 eax, eax
  00015	79 06		 jns	 SHORT $LN12@process_re
  00017	d8 05 00 00 00
	00		 fadd	 DWORD PTR __real@4f800000
$LN12@process_re:
  0001d	d9 5d 0c	 fstp	 DWORD PTR tv246[ebp]
  00020	d9 05 00 00 00
	00		 fld	 DWORD PTR __real@463e8000
  00026	d9 45 0c	 fld	 DWORD PTR tv246[ebp]
  00029	df f1		 fcomip	 ST(1)
  0002b	dd d8		 fstp	 ST(0)
  0002d	76 0b		 jbe	 SHORT $LN9@process_re
  0002f	b8 01 00 00 00	 mov	 eax, 1
  00034	66 89 41 1e	 mov	 WORD PTR [ecx+30], ax

; 213  : 				}
; 214  : 			}
; 215  : 		}

  00038	5d		 pop	 ebp
  00039	c3		 ret	 0
$LN9@process_re:

; 197  : 			if ( !detail::update_block_full_flag(block) )		// none.....(active´Â Á¸ŔçÇŇĽö ŔÖŔ˝)
; 198  : 			{
; 199  : //				assert( block != active_block);
; 200  : //				assert( block->prev == NULL && block->next == NULL);
; 201  : 
; 202  : 				if ( active_block )		// active°ˇ ŔÖŔ¸¸é ±× ľŐżˇ łő°í...

  0003a	8b 55 08	 mov	 edx, DWORD PTR _active_block$[ebp]

; 191  : 			block->is_full = ( block->alloc_count * block->obj_actual_size > block_full_threshold  ) ? 1 : 0;

  0003d	33 c0		 xor	 eax, eax
  0003f	66 89 41 1e	 mov	 WORD PTR [ecx+30], ax

; 197  : 			if ( !detail::update_block_full_flag(block) )		// none.....(active´Â Á¸ŔçÇŇĽö ŔÖŔ˝)
; 198  : 			{
; 199  : //				assert( block != active_block);
; 200  : //				assert( block->prev == NULL && block->next == NULL);
; 201  : 
; 202  : 				if ( active_block )		// active°ˇ ŔÖŔ¸¸é ±× ľŐżˇ łő°í...

  00043	8b 02		 mov	 eax, DWORD PTR [edx]
  00045	85 c0		 test	 eax, eax
  00047	74 1a		 je	 SHORT $LN3@process_re

; 203  : 				{
; 204  : 					block->next = active_block;			// ŔĚ°ÍŔĚ şüÁ®Ľ­ Ŕá˝Ă żˇ·Żż´ľú´Ů...

  00049	89 01		 mov	 DWORD PTR [ecx], eax

; 205  : 					block->prev = active_block->prev;

  0004b	8b 02		 mov	 eax, DWORD PTR [edx]
  0004d	8b 40 04	 mov	 eax, DWORD PTR [eax+4]
  00050	89 41 04	 mov	 DWORD PTR [ecx+4], eax

; 206  : 					active_block->prev = block;

  00053	8b 02		 mov	 eax, DWORD PTR [edx]
  00055	89 48 04	 mov	 DWORD PTR [eax+4], ecx

; 207  : 					if ( block->prev)

  00058	8b 41 04	 mov	 eax, DWORD PTR [ecx+4]
  0005b	85 c0		 test	 eax, eax
  0005d	74 06		 je	 SHORT $LN4@process_re

; 208  : 						block->prev->next = block;

  0005f	89 08		 mov	 DWORD PTR [eax], ecx

; 213  : 				}
; 214  : 			}
; 215  : 		}

  00061	5d		 pop	 ebp
  00062	c3		 ret	 0
$LN3@process_re:

; 209  : 				}
; 210  : 				else								// ľř´Ů¸é ŔĚ°ÍŔĚ activeŔÓ...(tlsżˇĽ­Á¶±Ýľż allocµÉ¶§ ŔĚ·˛Ľö ŔÖ´Ů..)
; 211  : 				{
; 212  : 					active_block = block;

  00063	89 0a		 mov	 DWORD PTR [edx], ecx
$LN4@process_re:

; 213  : 				}
; 214  : 			}
; 215  : 		}

  00065	5d		 pop	 ebp
  00066	c3		 ret	 0
?process_restore_block_to_active@detail@i3@@YAXAAPAUmem_block_header@2@PAU32@@Z ENDP ; i3::detail::process_restore_block_to_active
_TEXT	ENDS
; Function compile flags: /Ogtp
; File E:\Proyectos\JuegosOnlineproyectos\PB\pbblow\Piercing Blow Remake\i3Server\src\i3Base\pool\pool_base.cpp
;	COMDAT ?allocate_from_freelist@detail@i3@@YAPAXPAUmem_block_header@2@@Z
_TEXT	SEGMENT
_block$ = 8						; size = 4
?allocate_from_freelist@detail@i3@@YAPAXPAUmem_block_header@2@@Z PROC ; i3::detail::allocate_from_freelist, COMDAT

; 123  : 		{

  00000	55		 push	 ebp
  00001	8b ec		 mov	 ebp, esp

; 124  : 			if (!block->freeList)

  00003	8b 45 08	 mov	 eax, DWORD PTR _block$[ebp]
  00006	8b 50 0c	 mov	 edx, DWORD PTR [eax+12]
  00009	85 d2		 test	 edx, edx
  0000b	75 04		 jne	 SHORT $LN2@allocate_f

; 125  : 				return NULL;

  0000d	33 c0		 xor	 eax, eax

; 130  : 		}

  0000f	5d		 pop	 ebp
  00010	c3		 ret	 0
$LN2@allocate_f:

; 126  : 			free_object* result = block->freeList;
; 127  : 			block->freeList = result->next;

  00011	8b 0a		 mov	 ecx, DWORD PTR [edx]

; 128  : 			++block->alloc_count;

  00013	ff 40 14	 inc	 DWORD PTR [eax+20]
  00016	89 48 0c	 mov	 DWORD PTR [eax+12], ecx

; 129  : 			return result;

  00019	8b c2		 mov	 eax, edx

; 130  : 		}

  0001b	5d		 pop	 ebp
  0001c	c3		 ret	 0
?allocate_from_freelist@detail@i3@@YAPAXPAUmem_block_header@2@@Z ENDP ; i3::detail::allocate_from_freelist
_TEXT	ENDS
; Function compile flags: /Ogtp
; File E:\Proyectos\JuegosOnlineproyectos\PB\pbblow\Piercing Blow Remake\i3Server\src\i3Base\pool\pool_base.cpp
; File E:\Proyectos\JuegosOnlineproyectos\PB\pbblow\Piercing Blow Remake\i3Server\include\i3Base\memory\memory_alloc.inl
; File E:\Proyectos\JuegosOnlineproyectos\PB\pbblow\Piercing Blow Remake\i3Server\src\i3Base\pool\pool_base.cpp
;	COMDAT ?destroy_all@raw_memory_ctn@i3@@SAXKPAV12@@Z
_TEXT	SEGMENT
_threadID$ = 8						; size = 4
_head$ = 12						; size = 4
tv179 = 12						; size = 4
?destroy_all@raw_memory_ctn@i3@@SAXKPAV12@@Z PROC	; i3::raw_memory_ctn::destroy_all, COMDAT

; 28   : 		{

  00000	55		 push	 ebp
  00001	8b ec		 mov	 ebp, esp
  00003	8b 45 08	 mov	 eax, DWORD PTR _threadID$[ebp]
  00006	56		 push	 esi

; 29   : 			if (!head) return;

  00007	8b 75 0c	 mov	 esi, DWORD PTR _head$[ebp]
  0000a	85 f6		 test	 esi, esi
  0000c	74 44		 je	 SHORT $LN32@destroy_al
  0000e	53		 push	 ebx
  0000f	8b 1d 00 00 00
	00		 mov	 ebx, DWORD PTR __imp__VirtualFree@12
  00015	c1 e0 02	 shl	 eax, 2
  00018	57		 push	 edi
  00019	89 45 0c	 mov	 DWORD PTR tv179[ebp], eax
  0001c	8d 64 24 00	 npad	 4
$LL29@destroy_al:

; 20   : 		~raw_memory_ctn() {	i3::virtual_free(virtual_memory);	}

  00020	8b 06		 mov	 eax, DWORD PTR [esi]

; 30   : 
; 31   : 			raw_memory_ctn* next = head->next;

  00022	8b 7e 04	 mov	 edi, DWORD PTR [esi+4]
; File E:\Proyectos\JuegosOnlineproyectos\PB\pbblow\Piercing Blow Remake\i3Server\include\i3Base\memory\memory_alloc.inl

; 121  : 		if (!data) return;

  00025	85 c0		 test	 eax, eax
  00027	74 0a		 je	 SHORT $LN13@destroy_al

; 122  : 		::VirtualFree(data, 0, MEM_RELEASE);

  00029	68 00 80 00 00	 push	 32768			; 00008000H
  0002e	6a 00		 push	 0
  00030	50		 push	 eax
  00031	ff d3		 call	 ebx
$LN13@destroy_al:

; 94   : 		::HeapFree(HANDLE(h), 0, data);		// łÎ°Ë»çÁ¤ŔÇ°ˇ ľř´Ů..

  00033	a1 18 00 00 00	 mov	 eax, DWORD PTR ?g_TlsManager@detail_tls@i3@@3Vtls_mgr@12@A+24
  00038	8b 4d 0c	 mov	 ecx, DWORD PTR tv179[ebp]
  0003b	56		 push	 esi
  0003c	6a 00		 push	 0
  0003e	8b 04 01	 mov	 eax, DWORD PTR [ecx+eax]
  00041	ff 70 20	 push	 DWORD PTR [eax+32]
  00044	ff 15 00 00 00
	00		 call	 DWORD PTR __imp__HeapFree@12
; File E:\Proyectos\JuegosOnlineproyectos\PB\pbblow\Piercing Blow Remake\i3Server\src\i3Base\pool\pool_base.cpp

; 33   : 			raw_memory_ctn::destroy_all(threadID, next);

  0004a	8b f7		 mov	 esi, edi
  0004c	85 ff		 test	 edi, edi
  0004e	75 d0		 jne	 SHORT $LL29@destroy_al

; 29   : 			if (!head) return;

  00050	5f		 pop	 edi
  00051	5b		 pop	 ebx
$LN32@destroy_al:
  00052	5e		 pop	 esi

; 34   : 		}

  00053	5d		 pop	 ebp
  00054	c3		 ret	 0
?destroy_all@raw_memory_ctn@i3@@SAXKPAV12@@Z ENDP	; i3::raw_memory_ctn::destroy_all
_TEXT	ENDS
; Function compile flags: /Ogtp
; File E:\Proyectos\JuegosOnlineproyectos\PB\pbblow\Piercing Blow Remake\i3Server\src\i3Base\pool\pool_base.cpp
; File C:\Program Files (x86)\Windows Kits\10\Include\10.0.26100.0\um\winnt.h
; File E:\Proyectos\JuegosOnlineproyectos\PB\pbblow\Piercing Blow Remake\i3Server\src\i3Base\pool\pool_base.cpp
; File C:\Program Files (x86)\Windows Kits\10\Include\10.0.26100.0\um\winnt.h
; File E:\Proyectos\JuegosOnlineproyectos\PB\pbblow\Piercing Blow Remake\i3Server\include\i3Base\pool\cas.h
; File E:\Proyectos\JuegosOnlineproyectos\PB\pbblow\Piercing Blow Remake\i3Server\src\i3Base\pool\pool_base.cpp
; File C:\Program Files (x86)\Windows Kits\10\Include\10.0.26100.0\um\winnt.h
; File E:\Proyectos\JuegosOnlineproyectos\PB\pbblow\Piercing Blow Remake\i3Server\src\i3Base\pool\pool_base.cpp
; File C:\Program Files (x86)\Windows Kits\10\Include\10.0.26100.0\um\winnt.h
; File E:\Proyectos\JuegosOnlineproyectos\PB\pbblow\Piercing Blow Remake\i3Server\include\i3Base\pool\cas.h
; File E:\Proyectos\JuegosOnlineproyectos\PB\pbblow\Piercing Blow Remake\i3Server\src\i3Base\pool\pool_base.cpp
; File C:\Program Files (x86)\Windows Kits\10\Include\10.0.26100.0\um\winnt.h
; File E:\Proyectos\JuegosOnlineproyectos\PB\pbblow\Piercing Blow Remake\i3Server\src\i3Base\pool\pool_base.cpp
; File C:\Program Files (x86)\Windows Kits\10\Include\10.0.26100.0\um\winnt.h
; File E:\Proyectos\JuegosOnlineproyectos\PB\pbblow\Piercing Blow Remake\i3Server\src\i3Base\pool\pool_base.cpp
; File C:\Program Files (x86)\Windows Kits\10\Include\10.0.26100.0\um\winnt.h
; File E:\Proyectos\JuegosOnlineproyectos\PB\pbblow\Piercing Blow Remake\i3Server\include\i3Base\pool\cas.h
; File E:\Proyectos\JuegosOnlineproyectos\PB\pbblow\Piercing Blow Remake\i3Server\src\i3Base\pool\pool_base.cpp
; File C:\Program Files (x86)\Windows Kits\10\Include\10.0.26100.0\um\winnt.h
; File E:\Proyectos\JuegosOnlineproyectos\PB\pbblow\Piercing Blow Remake\i3Server\src\i3Base\pool\pool_base.cpp
; File C:\Program Files (x86)\Windows Kits\10\Include\10.0.26100.0\um\winnt.h
; File E:\Proyectos\JuegosOnlineproyectos\PB\pbblow\Piercing Blow Remake\i3Server\include\i3Base\pool\cas.h
; File E:\Proyectos\JuegosOnlineproyectos\PB\pbblow\Piercing Blow Remake\i3Server\src\i3Base\pool\pool_base.cpp
;	COMDAT ?deallocate_other_thread@detail@i3@@YAXPAUtss_free_block_by_size@2@PAUmem_block_header@2@PAX@Z
_TEXT	SEGMENT
_tss_free_block$ = 8					; size = 4
_block$ = 12						; size = 4
_data$ = 16						; size = 4
?deallocate_other_thread@detail@i3@@YAXPAUtss_free_block_by_size@2@PAUmem_block_header@2@PAX@Z PROC ; i3::detail::deallocate_other_thread, COMDAT

; 293  : 		{

  00000	55		 push	 ebp
  00001	8b ec		 mov	 ebp, esp
  00003	53		 push	 ebx
  00004	56		 push	 esi

; 299  : 				free_obj->next = block->freeList_tss;

  00005	8b 75 10	 mov	 esi, DWORD PTR _data$[ebp]
; File C:\Program Files (x86)\Windows Kits\10\Include\10.0.26100.0\um\winnt.h

; 7801 :     return (PVOID)InterlockedCompareExchange((LONG volatile *) Destination,

  00008	8b ce		 mov	 ecx, esi
; File E:\Proyectos\JuegosOnlineproyectos\PB\pbblow\Piercing Blow Remake\i3Server\src\i3Base\pool\pool_base.cpp

; 293  : 		{

  0000a	57		 push	 edi

; 299  : 				free_obj->next = block->freeList_tss;

  0000b	8b 7d 0c	 mov	 edi, DWORD PTR _block$[ebp]
  0000e	8b 57 40	 mov	 edx, DWORD PTR [edi+64]
  00011	8d 5f 40	 lea	 ebx, DWORD PTR [edi+64]
  00014	89 16		 mov	 DWORD PTR [esi], edx
; File C:\Program Files (x86)\Windows Kits\10\Include\10.0.26100.0\um\winnt.h

; 7801 :     return (PVOID)InterlockedCompareExchange((LONG volatile *) Destination,

  00016	8b c2		 mov	 eax, edx
  00018	f0 0f b1 0b	 lock cmpxchg DWORD PTR [ebx], ecx
; File E:\Proyectos\JuegosOnlineproyectos\PB\pbblow\Piercing Blow Remake\i3Server\include\i3Base\pool\cas.h

; 15   : 		return InterlockedCompareExchangePointer( ppData, pNewData, pOldData) == pOldData;

  0001c	3b c2		 cmp	 eax, edx
; File E:\Proyectos\JuegosOnlineproyectos\PB\pbblow\Piercing Blow Remake\i3Server\src\i3Base\pool\pool_base.cpp

; 300  : 				if ( i3::cas((void* volatile*)&block->freeList_tss, free_obj->next, free_obj) )

  0001e	74 10		 je	 SHORT $LN23@deallocate
$LL4@deallocate:

; 299  : 				free_obj->next = block->freeList_tss;

  00020	8b 13		 mov	 edx, DWORD PTR [ebx]
; File C:\Program Files (x86)\Windows Kits\10\Include\10.0.26100.0\um\winnt.h

; 7801 :     return (PVOID)InterlockedCompareExchange((LONG volatile *) Destination,

  00022	8b ce		 mov	 ecx, esi
; File E:\Proyectos\JuegosOnlineproyectos\PB\pbblow\Piercing Blow Remake\i3Server\src\i3Base\pool\pool_base.cpp

; 299  : 				free_obj->next = block->freeList_tss;

  00024	89 16		 mov	 DWORD PTR [esi], edx
; File C:\Program Files (x86)\Windows Kits\10\Include\10.0.26100.0\um\winnt.h

; 7801 :     return (PVOID)InterlockedCompareExchange((LONG volatile *) Destination,

  00026	8b c2		 mov	 eax, edx
  00028	f0 0f b1 0b	 lock cmpxchg DWORD PTR [ebx], ecx
; File E:\Proyectos\JuegosOnlineproyectos\PB\pbblow\Piercing Blow Remake\i3Server\include\i3Base\pool\cas.h

; 15   : 		return InterlockedCompareExchangePointer( ppData, pNewData, pOldData) == pOldData;

  0002c	3b c2		 cmp	 eax, edx
; File E:\Proyectos\JuegosOnlineproyectos\PB\pbblow\Piercing Blow Remake\i3Server\src\i3Base\pool\pool_base.cpp

; 300  : 				if ( i3::cas((void* volatile*)&block->freeList_tss, free_obj->next, free_obj) )

  0002e	75 f0		 jne	 SHORT $LL4@deallocate
$LN23@deallocate:

; 301  : 					break;
; 302  : 			}
; 303  : 
; 304  : 			//
; 305  : 			// ĂÖĂĘ·Î, tss¸®˝şĆ®°ˇ Ă¤żöÁř °ćżě.. tss_free_block_next°Ş°ú bucket°Şżˇ şŻ°ćŔĚ °ˇÇŘÁ®ľßÇÔ..
; 306  : 			if ( !free_obj->next )		// ľÖĂĘżˇ, freeList_tss°ˇ łÎŔĚľú´ÂµĄ, ĂÖĂĘ·Î Ă¤żöÁř °ćżě...

  00030	83 3e 00	 cmp	 DWORD PTR [esi], 0
  00033	75 2c		 jne	 SHORT $LN24@deallocate

; 310  : 					block->tss_free_block_next = tss_free_block->m_tss_free_block;

  00035	8b 75 08	 mov	 esi, DWORD PTR _tss_free_block$[ebp]
; File C:\Program Files (x86)\Windows Kits\10\Include\10.0.26100.0\um\winnt.h

; 7801 :     return (PVOID)InterlockedCompareExchange((LONG volatile *) Destination,

  00038	8b cf		 mov	 ecx, edi
; File E:\Proyectos\JuegosOnlineproyectos\PB\pbblow\Piercing Blow Remake\i3Server\src\i3Base\pool\pool_base.cpp

; 310  : 					block->tss_free_block_next = tss_free_block->m_tss_free_block;

  0003a	8b 16		 mov	 edx, DWORD PTR [esi]
; File C:\Program Files (x86)\Windows Kits\10\Include\10.0.26100.0\um\winnt.h

; 7801 :     return (PVOID)InterlockedCompareExchange((LONG volatile *) Destination,

  0003c	8b c2		 mov	 eax, edx
; File E:\Proyectos\JuegosOnlineproyectos\PB\pbblow\Piercing Blow Remake\i3Server\src\i3Base\pool\pool_base.cpp

; 310  : 					block->tss_free_block_next = tss_free_block->m_tss_free_block;

  0003e	89 57 44	 mov	 DWORD PTR [edi+68], edx
; File C:\Program Files (x86)\Windows Kits\10\Include\10.0.26100.0\um\winnt.h

; 7801 :     return (PVOID)InterlockedCompareExchange((LONG volatile *) Destination,

  00041	f0 0f b1 0e	 lock cmpxchg DWORD PTR [esi], ecx
; File E:\Proyectos\JuegosOnlineproyectos\PB\pbblow\Piercing Blow Remake\i3Server\include\i3Base\pool\cas.h

; 15   : 		return InterlockedCompareExchangePointer( ppData, pNewData, pOldData) == pOldData;

  00045	3b c2		 cmp	 eax, edx
; File E:\Proyectos\JuegosOnlineproyectos\PB\pbblow\Piercing Blow Remake\i3Server\src\i3Base\pool\pool_base.cpp

; 311  : 					if ( i3::cas((void* volatile*)&tss_free_block->m_tss_free_block, block->tss_free_block_next, block) )

  00047	74 18		 je	 SHORT $LN24@deallocate
  00049	8d a4 24 00 00
	00 00		 npad	 7
$LL7@deallocate:

; 310  : 					block->tss_free_block_next = tss_free_block->m_tss_free_block;

  00050	8b 16		 mov	 edx, DWORD PTR [esi]
; File C:\Program Files (x86)\Windows Kits\10\Include\10.0.26100.0\um\winnt.h

; 7801 :     return (PVOID)InterlockedCompareExchange((LONG volatile *) Destination,

  00052	8b cf		 mov	 ecx, edi
; File E:\Proyectos\JuegosOnlineproyectos\PB\pbblow\Piercing Blow Remake\i3Server\src\i3Base\pool\pool_base.cpp

; 310  : 					block->tss_free_block_next = tss_free_block->m_tss_free_block;

  00054	89 57 44	 mov	 DWORD PTR [edi+68], edx
; File C:\Program Files (x86)\Windows Kits\10\Include\10.0.26100.0\um\winnt.h

; 7801 :     return (PVOID)InterlockedCompareExchange((LONG volatile *) Destination,

  00057	8b c2		 mov	 eax, edx
  00059	f0 0f b1 0e	 lock cmpxchg DWORD PTR [esi], ecx
; File E:\Proyectos\JuegosOnlineproyectos\PB\pbblow\Piercing Blow Remake\i3Server\include\i3Base\pool\cas.h

; 15   : 		return InterlockedCompareExchangePointer( ppData, pNewData, pOldData) == pOldData;

  0005d	3b c2		 cmp	 eax, edx
; File E:\Proyectos\JuegosOnlineproyectos\PB\pbblow\Piercing Blow Remake\i3Server\src\i3Base\pool\pool_base.cpp

; 311  : 					if ( i3::cas((void* volatile*)&tss_free_block->m_tss_free_block, block->tss_free_block_next, block) )

  0005f	75 ef		 jne	 SHORT $LL7@deallocate
$LN24@deallocate:
  00061	5f		 pop	 edi

; 312  : 						break;	
; 313  : 				}
; 314  : 			}
; 315  : 
; 316  : 		}

  00062	5e		 pop	 esi
  00063	5b		 pop	 ebx
  00064	5d		 pop	 ebp
  00065	c3		 ret	 0
?deallocate_other_thread@detail@i3@@YAXPAUtss_free_block_by_size@2@PAUmem_block_header@2@PAX@Z ENDP ; i3::detail::deallocate_other_thread
_TEXT	ENDS
; Function compile flags: /Ogtp
; File E:\Proyectos\JuegosOnlineproyectos\PB\pbblow\Piercing Blow Remake\i3Server\src\i3Base\pool\pool_base.cpp
; File C:\Program Files (x86)\Windows Kits\10\Include\10.0.26100.0\um\winnt.h
; File E:\Proyectos\JuegosOnlineproyectos\PB\pbblow\Piercing Blow Remake\i3Server\include\i3Base\pool\cas.h
; File E:\Proyectos\JuegosOnlineproyectos\PB\pbblow\Piercing Blow Remake\i3Server\src\i3Base\pool\pool_base.cpp
; File C:\Program Files (x86)\Windows Kits\10\Include\10.0.26100.0\um\winnt.h
; File E:\Proyectos\JuegosOnlineproyectos\PB\pbblow\Piercing Blow Remake\i3Server\src\i3Base\pool\pool_base.cpp
; File C:\Program Files (x86)\Windows Kits\10\Include\10.0.26100.0\um\winnt.h
; File E:\Proyectos\JuegosOnlineproyectos\PB\pbblow\Piercing Blow Remake\i3Server\include\i3Base\pool\cas.h
; File E:\Proyectos\JuegosOnlineproyectos\PB\pbblow\Piercing Blow Remake\i3Server\src\i3Base\pool\pool_base.cpp
; File C:\Program Files (x86)\Windows Kits\10\Include\10.0.26100.0\um\winnt.h
; File E:\Proyectos\JuegosOnlineproyectos\PB\pbblow\Piercing Blow Remake\i3Server\src\i3Base\pool\pool_base.cpp
; File C:\Program Files (x86)\Windows Kits\10\Include\10.0.26100.0\um\winnt.h
; File E:\Proyectos\JuegosOnlineproyectos\PB\pbblow\Piercing Blow Remake\i3Server\include\i3Base\pool\cas.h
; File E:\Proyectos\JuegosOnlineproyectos\PB\pbblow\Piercing Blow Remake\i3Server\src\i3Base\pool\pool_base.cpp
; File C:\Program Files (x86)\Windows Kits\10\Include\10.0.26100.0\um\winnt.h
; File E:\Proyectos\JuegosOnlineproyectos\PB\pbblow\Piercing Blow Remake\i3Server\include\i3Base\pool\cas.h
; File E:\Proyectos\JuegosOnlineproyectos\PB\pbblow\Piercing Blow Remake\i3Server\src\i3Base\pool\pool_base.cpp
;	COMDAT ?allocate_from_tss_blocks@detail@i3@@YAPAXAAPAUmem_block_header@2@PAUtss_free_block_by_size@2@@Z
_TEXT	SEGMENT
_active_block$ = 8					; size = 4
_tss_bucket$ = 12					; size = 4
tv384 = 12						; size = 4
tv385 = 12						; size = 4
?allocate_from_tss_blocks@detail@i3@@YAPAXAAPAUmem_block_header@2@PAUtss_free_block_by_size@2@@Z PROC ; i3::detail::allocate_from_tss_blocks, COMDAT

; 252  : 		{

  00000	55		 push	 ebp
  00001	8b ec		 mov	 ebp, esp
  00003	56		 push	 esi

; 253  : 			mem_block_header* block = tss_bucket->m_tss_free_block;		// Ăąşí·Ď..

  00004	8b 75 0c	 mov	 esi, DWORD PTR _tss_bucket$[ebp]
  00007	8b 16		 mov	 edx, DWORD PTR [esi]

; 254  : 			
; 255  : 			if (!block)

  00009	85 d2		 test	 edx, edx
  0000b	75 05		 jne	 SHORT $LN11@allocate_f
$LN54@allocate_f:

; 287  : 
; 288  : 			// ŔĚąř şí·Ďżˇ ´ëÇŘĽ­ żěĽ± freelistĂł¸®..
; 289  : 			return detail::allocate_from_freelist(block);			// ą«Á¶°Ç ŔŻČżÇŘľßÇÔ..
; 290  : 		}

  0000d	33 c0		 xor	 eax, eax
  0000f	5e		 pop	 esi
  00010	5d		 pop	 ebp
  00011	c3		 ret	 0
$LN11@allocate_f:

; 260  : 				if ( i3::cas((void* volatile*)&tss_bucket->m_tss_free_block, block, block->tss_free_block_next))

  00012	8b 4a 44	 mov	 ecx, DWORD PTR [edx+68]
; File C:\Program Files (x86)\Windows Kits\10\Include\10.0.26100.0\um\winnt.h

; 7801 :     return (PVOID)InterlockedCompareExchange((LONG volatile *) Destination,

  00015	8b c2		 mov	 eax, edx
  00017	f0 0f b1 0e	 lock cmpxchg DWORD PTR [esi], ecx
; File E:\Proyectos\JuegosOnlineproyectos\PB\pbblow\Piercing Blow Remake\i3Server\include\i3Base\pool\cas.h

; 15   : 		return InterlockedCompareExchangePointer( ppData, pNewData, pOldData) == pOldData;

  0001b	3b c2		 cmp	 eax, edx
; File E:\Proyectos\JuegosOnlineproyectos\PB\pbblow\Piercing Blow Remake\i3Server\src\i3Base\pool\pool_base.cpp

; 260  : 				if ( i3::cas((void* volatile*)&tss_bucket->m_tss_free_block, block, block->tss_free_block_next))

  0001d	74 10		 je	 SHORT $LN35@allocate_f
  0001f	90		 npad	 1
$LL4@allocate_f:

; 261  : 					break;
; 262  : 				block = tss_bucket->m_tss_free_block;

  00020	8b 16		 mov	 edx, DWORD PTR [esi]
; File C:\Program Files (x86)\Windows Kits\10\Include\10.0.26100.0\um\winnt.h

; 7801 :     return (PVOID)InterlockedCompareExchange((LONG volatile *) Destination,

  00022	8b c2		 mov	 eax, edx
; File E:\Proyectos\JuegosOnlineproyectos\PB\pbblow\Piercing Blow Remake\i3Server\src\i3Base\pool\pool_base.cpp

; 260  : 				if ( i3::cas((void* volatile*)&tss_bucket->m_tss_free_block, block, block->tss_free_block_next))

  00024	8b 4a 44	 mov	 ecx, DWORD PTR [edx+68]
; File C:\Program Files (x86)\Windows Kits\10\Include\10.0.26100.0\um\winnt.h

; 7801 :     return (PVOID)InterlockedCompareExchange((LONG volatile *) Destination,

  00027	f0 0f b1 0e	 lock cmpxchg DWORD PTR [esi], ecx
; File E:\Proyectos\JuegosOnlineproyectos\PB\pbblow\Piercing Blow Remake\i3Server\include\i3Base\pool\cas.h

; 15   : 		return InterlockedCompareExchangePointer( ppData, pNewData, pOldData) == pOldData;

  0002b	3b c2		 cmp	 eax, edx
; File E:\Proyectos\JuegosOnlineproyectos\PB\pbblow\Piercing Blow Remake\i3Server\src\i3Base\pool\pool_base.cpp

; 260  : 				if ( i3::cas((void* volatile*)&tss_bucket->m_tss_free_block, block, block->tss_free_block_next))

  0002d	75 f1		 jne	 SHORT $LL4@allocate_f
$LN35@allocate_f:

; 267  : 			free_object* head = block->freeList_tss;

  0002f	8b 72 40	 mov	 esi, DWORD PTR [edx+64]
; File C:\Program Files (x86)\Windows Kits\10\Include\10.0.26100.0\um\winnt.h

; 7801 :     return (PVOID)InterlockedCompareExchange((LONG volatile *) Destination,

  00032	33 c9		 xor	 ecx, ecx
  00034	53		 push	 ebx
  00035	57		 push	 edi
; File E:\Proyectos\JuegosOnlineproyectos\PB\pbblow\Piercing Blow Remake\i3Server\src\i3Base\pool\pool_base.cpp

; 267  : 			free_object* head = block->freeList_tss;

  00036	8d 7a 40	 lea	 edi, DWORD PTR [edx+64]
; File C:\Program Files (x86)\Windows Kits\10\Include\10.0.26100.0\um\winnt.h

; 7801 :     return (PVOID)InterlockedCompareExchange((LONG volatile *) Destination,

  00039	8b c6		 mov	 eax, esi
  0003b	f0 0f b1 0f	 lock cmpxchg DWORD PTR [edi], ecx
; File E:\Proyectos\JuegosOnlineproyectos\PB\pbblow\Piercing Blow Remake\i3Server\include\i3Base\pool\cas.h

; 15   : 		return InterlockedCompareExchangePointer( ppData, pNewData, pOldData) == pOldData;

  0003f	3b c6		 cmp	 eax, esi
; File E:\Proyectos\JuegosOnlineproyectos\PB\pbblow\Piercing Blow Remake\i3Server\src\i3Base\pool\pool_base.cpp

; 271  : 				if ( i3::cas((void* volatile*)&block->freeList_tss, head, NULL) )

  00041	74 0e		 je	 SHORT $LN36@allocate_f
$LL7@allocate_f:

; 272  : 					break;
; 273  : 				head = block->freeList_tss;

  00043	8b 37		 mov	 esi, DWORD PTR [edi]
; File C:\Program Files (x86)\Windows Kits\10\Include\10.0.26100.0\um\winnt.h

; 7801 :     return (PVOID)InterlockedCompareExchange((LONG volatile *) Destination,

  00045	33 c9		 xor	 ecx, ecx
  00047	8b c6		 mov	 eax, esi
  00049	f0 0f b1 0f	 lock cmpxchg DWORD PTR [edi], ecx
; File E:\Proyectos\JuegosOnlineproyectos\PB\pbblow\Piercing Blow Remake\i3Server\include\i3Base\pool\cas.h

; 15   : 		return InterlockedCompareExchangePointer( ppData, pNewData, pOldData) == pOldData;

  0004d	3b c6		 cmp	 eax, esi
; File E:\Proyectos\JuegosOnlineproyectos\PB\pbblow\Piercing Blow Remake\i3Server\src\i3Base\pool\pool_base.cpp

; 271  : 				if ( i3::cas((void* volatile*)&block->freeList_tss, head, NULL) )

  0004f	75 f2		 jne	 SHORT $LL7@allocate_f
$LN36@allocate_f:

; 274  : 			}
; 275  : 
; 276  : 			//  ĂÖĽŇÇŃ 1°łŔĚ»ó ŔÖŔ˝Ŕ» ş¸ÁőÇŘľßÇÔ..
; 277  : 			free_object* tail = head;
; 278  : 			--block->alloc_count;

  00051	8b 7a 14	 mov	 edi, DWORD PTR [edx+20]
  00054	8b de		 mov	 ebx, esi
  00056	4f		 dec	 edi
  00057	89 7a 14	 mov	 DWORD PTR [edx+20], edi

; 279  : 
; 280  : 			for ( ; tail->next ; tail = tail->next , --block->alloc_count ); // Ä«żîĆ® ĽĽ´Â ŔĎŔĚ ľî·ÁżěąÇ·Î, ·çÇÁ·Î µą¸˛..

  0005a	8b 0e		 mov	 ecx, DWORD PTR [esi]
  0005c	85 c9		 test	 ecx, ecx
  0005e	74 0e		 je	 SHORT $LN9@allocate_f
$LL10@allocate_f:
  00060	4f		 dec	 edi
  00061	8b d9		 mov	 ebx, ecx
  00063	89 7a 14	 mov	 DWORD PTR [edx+20], edi
  00066	8b 01		 mov	 eax, DWORD PTR [ecx]
  00068	8b c8		 mov	 ecx, eax
  0006a	85 c0		 test	 eax, eax
  0006c	75 f2		 jne	 SHORT $LL10@allocate_f
$LN9@allocate_f:

; 281  : 
; 282  : 			tail->next = block->freeList;

  0006e	8b 42 0c	 mov	 eax, DWORD PTR [edx+12]
  00071	89 03		 mov	 DWORD PTR [ebx], eax

; 191  : 			block->is_full = ( block->alloc_count * block->obj_actual_size > block_full_threshold  ) ? 1 : 0;

  00073	8b 42 18	 mov	 eax, DWORD PTR [edx+24]
  00076	0f af 42 14	 imul	 eax, DWORD PTR [edx+20]

; 283  : 			block->freeList = head;

  0007a	89 72 0c	 mov	 DWORD PTR [edx+12], esi

; 191  : 			block->is_full = ( block->alloc_count * block->obj_actual_size > block_full_threshold  ) ? 1 : 0;

  0007d	89 45 0c	 mov	 DWORD PTR tv385[ebp], eax
  00080	db 45 0c	 fild	 DWORD PTR tv385[ebp]
  00083	85 c0		 test	 eax, eax
  00085	79 06		 jns	 SHORT $LN53@allocate_f
  00087	d8 05 00 00 00
	00		 fadd	 DWORD PTR __real@4f800000
$LN53@allocate_f:
  0008d	d9 5d 0c	 fstp	 DWORD PTR tv384[ebp]
  00090	d9 05 00 00 00
	00		 fld	 DWORD PTR __real@463e8000
  00096	d9 45 0c	 fld	 DWORD PTR tv384[ebp]
  00099	df f1		 fcomip	 ST(1)
  0009b	5f		 pop	 edi
  0009c	5b		 pop	 ebx
  0009d	dd d8		 fstp	 ST(0)
  0009f	76 0b		 jbe	 SHORT $LN26@allocate_f
  000a1	b8 01 00 00 00	 mov	 eax, 1
  000a6	66 89 42 1e	 mov	 WORD PTR [edx+30], ax
  000aa	eb 0b		 jmp	 SHORT $LN14@allocate_f
$LN26@allocate_f:
  000ac	33 c0		 xor	 eax, eax
  000ae	66 89 42 1e	 mov	 WORD PTR [edx+30], ax

; 284  : 
; 285  : 			if ( !detail::update_block_full_flag(block) )
; 286  : 				active_block = block;			// ľ×ĆĽşę·Î ¸¸µé°Í...bucket->m_active_blockŔş łÎ°ŞŔĎ °ÍŔĚ´Ů..

  000b2	8b 45 08	 mov	 eax, DWORD PTR _active_block$[ebp]
  000b5	89 10		 mov	 DWORD PTR [eax], edx
$LN14@allocate_f:

; 124  : 			if (!block->freeList)

  000b7	8b 42 0c	 mov	 eax, DWORD PTR [edx+12]
  000ba	85 c0		 test	 eax, eax
  000bc	0f 84 4b ff ff
	ff		 je	 $LN54@allocate_f

; 125  : 				return NULL;
; 126  : 			free_object* result = block->freeList;
; 127  : 			block->freeList = result->next;

  000c2	8b 08		 mov	 ecx, DWORD PTR [eax]

; 128  : 			++block->alloc_count;

  000c4	ff 42 14	 inc	 DWORD PTR [edx+20]
  000c7	89 4a 0c	 mov	 DWORD PTR [edx+12], ecx
  000ca	5e		 pop	 esi

; 287  : 
; 288  : 			// ŔĚąř şí·Ďżˇ ´ëÇŘĽ­ żěĽ± freelistĂł¸®..
; 289  : 			return detail::allocate_from_freelist(block);			// ą«Á¶°Ç ŔŻČżÇŘľßÇÔ..
; 290  : 		}

  000cb	5d		 pop	 ebp
  000cc	c3		 ret	 0
?allocate_from_tss_blocks@detail@i3@@YAPAXAAPAUmem_block_header@2@PAUtss_free_block_by_size@2@@Z ENDP ; i3::detail::allocate_from_tss_blocks
_TEXT	ENDS
; Function compile flags: /Ogtp
; File E:\Proyectos\JuegosOnlineproyectos\PB\pbblow\Piercing Blow Remake\i3Server\src\i3Base\pool\pool_base.cpp
;	COMDAT ?deallocate_same_thread@detail@i3@@YAXAAPAUmem_block_header@2@0PAU32@PAX@Z
_TEXT	SEGMENT
_free_block_list$ = 8					; size = 4
_active_block$ = 12					; size = 4
_block$ = 16						; size = 4
tv395 = 16						; size = 4
tv396 = 16						; size = 4
_data$ = 20						; size = 4
?deallocate_same_thread@detail@i3@@YAXAAPAUmem_block_header@2@0PAU32@PAX@Z PROC ; i3::detail::deallocate_same_thread, COMDAT

; 238  : 		{

  00000	55		 push	 ebp
  00001	8b ec		 mov	 ebp, esp
  00003	8b 55 10	 mov	 edx, DWORD PTR _block$[ebp]

; 239  : 			free_object* free_obj = reinterpret_cast<free_object*>(data);
; 240  : 			free_obj->next = block->freeList;

  00006	8b 4d 14	 mov	 ecx, DWORD PTR _data$[ebp]
  00009	8b 42 0c	 mov	 eax, DWORD PTR [edx+12]
  0000c	89 01		 mov	 DWORD PTR [ecx], eax

; 241  : 			block->freeList = free_obj;

  0000e	89 4a 0c	 mov	 DWORD PTR [edx+12], ecx

; 242  : 			--block->alloc_count;

  00011	8b 4a 14	 mov	 ecx, DWORD PTR [edx+20]
  00014	49		 dec	 ecx

; 243  : 
; 244  : 			if ( block->is_full )		// żĎŔü ąĐ·Áł­ şí·ĎŔÎ °ćżě..(´Ů ĽŇżäµČ °Í....alloc_count°ˇ ¸¸¶Ą..)ŔĚ şí·ĎŔ» ľ×ĆĽşę·Î µą¸°´Ů...

  00015	66 83 7a 1e 00	 cmp	 WORD PTR [edx+30], 0
  0001a	89 4a 14	 mov	 DWORD PTR [edx+20], ecx
  0001d	74 5c		 je	 SHORT $LN2@deallocate

; 191  : 			block->is_full = ( block->alloc_count * block->obj_actual_size > block_full_threshold  ) ? 1 : 0;

  0001f	8b 42 18	 mov	 eax, DWORD PTR [edx+24]
  00022	0f af c1	 imul	 eax, ecx
  00025	89 45 10	 mov	 DWORD PTR tv396[ebp], eax
  00028	db 45 10	 fild	 DWORD PTR tv396[ebp]
  0002b	85 c0		 test	 eax, eax
  0002d	79 06		 jns	 SHORT $LN23@deallocate
  0002f	d8 05 00 00 00
	00		 fadd	 DWORD PTR __real@4f800000
$LN23@deallocate:
  00035	d9 5d 10	 fstp	 DWORD PTR tv395[ebp]
  00038	d9 05 00 00 00
	00		 fld	 DWORD PTR __real@463e8000
  0003e	d9 45 10	 fld	 DWORD PTR tv395[ebp]
  00041	df f1		 fcomip	 ST(1)
  00043	dd d8		 fstp	 ST(0)
  00045	76 0b		 jbe	 SHORT $LN14@deallocate
  00047	b8 01 00 00 00	 mov	 eax, 1
  0004c	66 89 42 1e	 mov	 WORD PTR [edx+30], ax

; 248  : 				process_return_block_to_free_block_list(free_block_list, active_block, block);
; 249  : 		}

  00050	5d		 pop	 ebp
  00051	c3		 ret	 0
$LN14@deallocate:

; 202  : 				if ( active_block )		// active°ˇ ŔÖŔ¸¸é ±× ľŐżˇ łő°í...

  00052	8b 4d 0c	 mov	 ecx, DWORD PTR _active_block$[ebp]

; 191  : 			block->is_full = ( block->alloc_count * block->obj_actual_size > block_full_threshold  ) ? 1 : 0;

  00055	33 c0		 xor	 eax, eax
  00057	66 89 42 1e	 mov	 WORD PTR [edx+30], ax

; 202  : 				if ( active_block )		// active°ˇ ŔÖŔ¸¸é ±× ľŐżˇ łő°í...

  0005b	8b 01		 mov	 eax, DWORD PTR [ecx]
  0005d	85 c0		 test	 eax, eax
  0005f	74 51		 je	 SHORT $LN8@deallocate

; 203  : 				{
; 204  : 					block->next = active_block;			// ŔĚ°ÍŔĚ şüÁ®Ľ­ Ŕá˝Ă żˇ·Żż´ľú´Ů...

  00061	89 02		 mov	 DWORD PTR [edx], eax

; 205  : 					block->prev = active_block->prev;

  00063	8b 01		 mov	 eax, DWORD PTR [ecx]
  00065	8b 40 04	 mov	 eax, DWORD PTR [eax+4]
  00068	89 42 04	 mov	 DWORD PTR [edx+4], eax

; 206  : 					active_block->prev = block;

  0006b	8b 01		 mov	 eax, DWORD PTR [ecx]
  0006d	89 50 04	 mov	 DWORD PTR [eax+4], edx

; 207  : 					if ( block->prev)

  00070	8b 42 04	 mov	 eax, DWORD PTR [edx+4]
  00073	85 c0		 test	 eax, eax
  00075	74 3d		 je	 SHORT $LN4@deallocate

; 208  : 						block->prev->next = block;

  00077	89 10		 mov	 DWORD PTR [eax], edx

; 248  : 				process_return_block_to_free_block_list(free_block_list, active_block, block);
; 249  : 		}

  00079	5d		 pop	 ebp
  0007a	c3		 ret	 0
$LN2@deallocate:

; 245  : 				process_restore_block_to_active(active_block, block);
; 246  : 			else
; 247  : 			if (block->alloc_count == 0)	// ÇŇ´çÄ«żîĆ®°ˇ 0ŔĚ¸é ąŮ·Î şí·Ď ĽŇ°Ĺ.. (ŔĚşÎşĐŔş ±âÁ¸tbbżÍ Č®˝ÇŔĚ ´Ů¸§) ŔçÇŇ´çŔ» ÇĎÁö ľĘ±â¶§ą®żˇ şü¸Ą Ăł¸®°ˇ ÇĘżäÇĎ´Ů..

  0007b	85 c9		 test	 ecx, ecx
  0007d	75 35		 jne	 SHORT $LN4@deallocate

; 219  : 			if ( block == active_block )

  0007f	8b 4d 0c	 mov	 ecx, DWORD PTR _active_block$[ebp]
  00082	3b 11		 cmp	 edx, DWORD PTR [ecx]
  00084	75 05		 jne	 SHORT $LN21@deallocate

; 220  : 			{
; 221  : //				assert(block != block->prev);
; 222  : 				active_block =  block->prev;		// active_blockÁ¦°Ĺ˝ĂżŁ prev·Î ŔĚµż, Č¤Ŕş prevłÎŔÎ °ćżě ľřŔ˝...

  00086	8b 42 04	 mov	 eax, DWORD PTR [edx+4]
  00089	89 01		 mov	 DWORD PTR [ecx], eax
$LN21@deallocate:

; 223  : 			}
; 224  : 			
; 225  : 			if ( block->prev )

  0008b	8b 4a 04	 mov	 ecx, DWORD PTR [edx+4]
  0008e	85 c9		 test	 ecx, ecx
  00090	74 04		 je	 SHORT $LN18@deallocate

; 226  : 				block->prev->next = block->next;

  00092	8b 02		 mov	 eax, DWORD PTR [edx]
  00094	89 01		 mov	 DWORD PTR [ecx], eax
$LN18@deallocate:

; 227  : 			if (block->next)

  00096	8b 0a		 mov	 ecx, DWORD PTR [edx]
  00098	85 c9		 test	 ecx, ecx
  0009a	74 06		 je	 SHORT $LN19@deallocate

; 228  : 				block->next->prev = block->prev;

  0009c	8b 42 04	 mov	 eax, DWORD PTR [edx+4]
  0009f	89 41 04	 mov	 DWORD PTR [ecx+4], eax
$LN19@deallocate:

; 229  : 
; 230  : 			// ľĆ·ˇ 2°ł¸¦ Á¦żÜÇŃ łŞ¸ÓÁö´Â ą«ČżÇŃ °ŞŔÓ..
; 231  : 			block->curr_alloc_ptr = (void*)( uintptr_t(block) + pool_block_size );
; 232  : 			block->next = free_block_list;

  000a2	8b 4d 08	 mov	 ecx, DWORD PTR _free_block_list$[ebp]
  000a5	8d 82 00 40 00
	00		 lea	 eax, DWORD PTR [edx+16384]
  000ab	89 42 08	 mov	 DWORD PTR [edx+8], eax
  000ae	8b 01		 mov	 eax, DWORD PTR [ecx]
  000b0	89 02		 mov	 DWORD PTR [edx], eax
$LN8@deallocate:

; 248  : 				process_return_block_to_free_block_list(free_block_list, active_block, block);
; 249  : 		}

  000b2	89 11		 mov	 DWORD PTR [ecx], edx
$LN4@deallocate:
  000b4	5d		 pop	 ebp
  000b5	c3		 ret	 0
?deallocate_same_thread@detail@i3@@YAXAAPAUmem_block_header@2@0PAU32@PAX@Z ENDP ; i3::detail::deallocate_same_thread
_TEXT	ENDS
; Function compile flags: /Ogtp
; File E:\Proyectos\JuegosOnlineproyectos\PB\pbblow\Piercing Blow Remake\i3Server\src\i3Base\pool\pool_base.cpp
;	COMDAT ?allocate_from_active_blocks@detail@i3@@YAPAXAAPAUmem_block_header@2@@Z
_TEXT	SEGMENT
_active_block$ = 8					; size = 4
?allocate_from_active_blocks@detail@i3@@YAPAXAAPAUmem_block_header@2@@Z PROC ; i3::detail::allocate_from_active_blocks, COMDAT

; 170  : 		{

  00000	55		 push	 ebp
  00001	8b ec		 mov	 ebp, esp
  00003	8b 4d 08	 mov	 ecx, DWORD PTR _active_block$[ebp]
  00006	56		 push	 esi
  00007	57		 push	 edi

; 171  : 			mem_block_header* block = active_block;

  00008	8b 11		 mov	 edx, DWORD PTR [ecx]

; 172  : 			
; 173  : 			if (block)

  0000a	85 d2		 test	 edx, edx
  0000c	0f 84 a5 00 00
	00		 je	 $LN4@allocate_f

; 124  : 			if (!block->freeList)

  00012	8b 72 0c	 mov	 esi, DWORD PTR [edx+12]
  00015	85 f6		 test	 esi, esi
  00017	0f 85 a0 00 00
	00		 jne	 $LN11@allocate_f

; 134  : 			if (!block->curr_alloc_ptr)

  0001d	8b 72 08	 mov	 esi, DWORD PTR [edx+8]
  00020	85 f6		 test	 esi, esi
  00022	74 26		 je	 SHORT $LN8@allocate_f

; 135  : 				return NULL;
; 136  : 
; 137  : 			void* result = block->curr_alloc_ptr;
; 138  : 			block->curr_alloc_ptr = (void*) ( uintptr_t(result) - block->obj_actual_size );

  00024	8b ce		 mov	 ecx, esi

; 139  : 			if ( uintptr_t(block->curr_alloc_ptr) < uintptr_t(block) + sizeof(mem_block_header) )

  00026	8d 82 80 00 00
	00		 lea	 eax, DWORD PTR [edx+128]
  0002c	2b 4a 18	 sub	 ecx, DWORD PTR [edx+24]
  0002f	89 4a 08	 mov	 DWORD PTR [edx+8], ecx
  00032	3b c8		 cmp	 ecx, eax
  00034	0f 83 88 00 00
	00		 jae	 $LN15@allocate_f

; 174  : 			{
; 175  : 				void*	result;
; 176  : 				if ( (result = detail::allocate_from_block(block)) != NULL )
; 177  : 					return result;

  0003a	ff 42 14	 inc	 DWORD PTR [edx+20]
  0003d	8b c6		 mov	 eax, esi
  0003f	5f		 pop	 edi

; 140  : 				block->curr_alloc_ptr = NULL;

  00040	c7 42 08 00 00
	00 00		 mov	 DWORD PTR [edx+8], 0

; 182  : 
; 183  : 		}

  00047	5e		 pop	 esi
  00048	5d		 pop	 ebp
  00049	c3		 ret	 0
$LN8@allocate_f:

; 153  : 			block->is_full = 1;			// ÇÁ¸®¸®˝şĆ®żÍ ľó·ĎĆ÷ŔÎĹÍ¸¦ µż˝Ăżˇ °í·ÁÇŘĽ­ ĂĽĹ©..

  0004a	bf 01 00 00 00	 mov	 edi, 1
  0004f	66 89 7a 1e	 mov	 WORD PTR [edx+30], di

; 160  : 			mem_block_header* block = active_block;

  00053	8b 01		 mov	 eax, DWORD PTR [ecx]

; 161  : 			mem_block_header* result = block->prev;				// ÇöŔç ľ×ĆĽşęşí·ĎŔÇ ¸µĹ©µĺ¸®˝şĆ®¸¦ »čÁ¦ÇĎ´Â°Ô ´ő ÁÁŔ»°Í °°´Ů..

  00055	8b 50 04	 mov	 edx, DWORD PTR [eax+4]

; 162  : 			block->prev = NULL;	

  00058	c7 40 04 00 00
	00 00		 mov	 DWORD PTR [eax+4], 0

; 163  : 			//block->next = NULL;		
; 164  : 
; 165  : 			if (result)	result->next = NULL;				// ŔĚ°ÍŔĚ Áßżä..(ŔĚąřżˇ şüÁřµí ÇÔ!! Áß´ëąö±×..2010/07/26)// ľ×ĆĽşę żŔ¸ĄÂĘŔ» ą«ČżČ­˝ĂĹ´..

  0005f	85 d2		 test	 edx, edx
  00061	74 52		 je	 SHORT $LN18@allocate_f
  00063	c7 02 00 00 00
	00		 mov	 DWORD PTR [edx], 0
  00069	89 11		 mov	 DWORD PTR [ecx], edx

; 124  : 			if (!block->freeList)

  0006b	8b 72 0c	 mov	 esi, DWORD PTR [edx+12]
  0006e	85 f6		 test	 esi, esi
  00070	75 35		 jne	 SHORT $LN25@allocate_f

; 134  : 			if (!block->curr_alloc_ptr)

  00072	8b 72 08	 mov	 esi, DWORD PTR [edx+8]
  00075	85 f6		 test	 esi, esi
  00077	74 22		 je	 SHORT $LN22@allocate_f

; 135  : 				return NULL;
; 136  : 
; 137  : 			void* result = block->curr_alloc_ptr;
; 138  : 			block->curr_alloc_ptr = (void*) ( uintptr_t(result) - block->obj_actual_size );

  00079	8b ce		 mov	 ecx, esi

; 139  : 			if ( uintptr_t(block->curr_alloc_ptr) < uintptr_t(block) + sizeof(mem_block_header) )

  0007b	8d 82 80 00 00
	00		 lea	 eax, DWORD PTR [edx+128]
  00081	2b 4a 18	 sub	 ecx, DWORD PTR [edx+24]
  00084	89 4a 08	 mov	 DWORD PTR [edx+8], ecx
  00087	3b c8		 cmp	 ecx, eax
  00089	73 21		 jae	 SHORT $LN29@allocate_f

; 178  : 				if ( (block = detail::move_active_block_front(active_block)) != NULL )		// ŔĚ Á¶°ÇŔ» ¸¸Á·ÇĎ¸é ą«Á¶°Ç ÇŇ´çµÇľßÇÔ..
; 179  : 					return  detail::allocate_from_block(block);

  0008b	ff 42 14	 inc	 DWORD PTR [edx+20]
  0008e	8b c6		 mov	 eax, esi
  00090	5f		 pop	 edi

; 140  : 				block->curr_alloc_ptr = NULL;

  00091	c7 42 08 00 00
	00 00		 mov	 DWORD PTR [edx+8], 0

; 182  : 
; 183  : 		}

  00098	5e		 pop	 esi
  00099	5d		 pop	 ebp
  0009a	c3		 ret	 0
$LN22@allocate_f:

; 154  : 			return NULL;		

  0009b	33 f6		 xor	 esi, esi
  0009d	66 89 7a 1e	 mov	 WORD PTR [edx+30], di
  000a1	5f		 pop	 edi

; 178  : 				if ( (block = detail::move_active_block_front(active_block)) != NULL )		// ŔĚ Á¶°ÇŔ» ¸¸Á·ÇĎ¸é ą«Á¶°Ç ÇŇ´çµÇľßÇÔ..
; 179  : 					return  detail::allocate_from_block(block);

  000a2	8b c6		 mov	 eax, esi

; 182  : 
; 183  : 		}

  000a4	5e		 pop	 esi
  000a5	5d		 pop	 ebp
  000a6	c3		 ret	 0
$LN25@allocate_f:

; 127  : 			block->freeList = result->next;

  000a7	8b 06		 mov	 eax, DWORD PTR [esi]
  000a9	89 42 0c	 mov	 DWORD PTR [edx+12], eax
$LN29@allocate_f:

; 178  : 				if ( (block = detail::move_active_block_front(active_block)) != NULL )		// ŔĚ Á¶°ÇŔ» ¸¸Á·ÇĎ¸é ą«Á¶°Ç ÇŇ´çµÇľßÇÔ..
; 179  : 					return  detail::allocate_from_block(block);

  000ac	ff 42 14	 inc	 DWORD PTR [edx+20]
  000af	8b c6		 mov	 eax, esi
  000b1	5f		 pop	 edi

; 182  : 
; 183  : 		}

  000b2	5e		 pop	 esi
  000b3	5d		 pop	 ebp
  000b4	c3		 ret	 0
$LN18@allocate_f:

; 166  : 			return 	active_block = result;	

  000b5	89 11		 mov	 DWORD PTR [ecx], edx
$LN4@allocate_f:
  000b7	5f		 pop	 edi

; 180  : 			}
; 181  : 			return NULL;

  000b8	33 c0		 xor	 eax, eax

; 182  : 
; 183  : 		}

  000ba	5e		 pop	 esi
  000bb	5d		 pop	 ebp
  000bc	c3		 ret	 0
$LN11@allocate_f:

; 127  : 			block->freeList = result->next;

  000bd	8b 0e		 mov	 ecx, DWORD PTR [esi]
  000bf	89 4a 0c	 mov	 DWORD PTR [edx+12], ecx
$LN15@allocate_f:

; 174  : 			{
; 175  : 				void*	result;
; 176  : 				if ( (result = detail::allocate_from_block(block)) != NULL )
; 177  : 					return result;

  000c2	ff 42 14	 inc	 DWORD PTR [edx+20]
  000c5	8b c6		 mov	 eax, esi
  000c7	5f		 pop	 edi

; 182  : 
; 183  : 		}

  000c8	5e		 pop	 esi
  000c9	5d		 pop	 ebp
  000ca	c3		 ret	 0
?allocate_from_active_blocks@detail@i3@@YAPAXAAPAUmem_block_header@2@@Z ENDP ; i3::detail::allocate_from_active_blocks
_TEXT	ENDS
; Function compile flags: /Ogtp
; File E:\Proyectos\JuegosOnlineproyectos\PB\pbblow\Piercing Blow Remake\i3Server\src\i3Base\pool\pool_base.cpp
;	COMDAT ?allocate_from_block@detail@i3@@YAPAXPAUmem_block_header@2@@Z
_TEXT	SEGMENT
_block$ = 8						; size = 4
?allocate_from_block@detail@i3@@YAPAXPAUmem_block_header@2@@Z PROC ; i3::detail::allocate_from_block, COMDAT

; 147  : 		{

  00000	55		 push	 ebp
  00001	8b ec		 mov	 ebp, esp
  00003	56		 push	 esi

; 124  : 			if (!block->freeList)

  00004	8b 75 08	 mov	 esi, DWORD PTR _block$[ebp]
  00007	8b 46 0c	 mov	 eax, DWORD PTR [esi+12]
  0000a	85 c0		 test	 eax, eax
  0000c	75 34		 jne	 SHORT $LN6@allocate_f

; 134  : 			if (!block->curr_alloc_ptr)

  0000e	8b 46 08	 mov	 eax, DWORD PTR [esi+8]
  00011	85 c0		 test	 eax, eax
  00013	74 1f		 je	 SHORT $LN3@allocate_f

; 135  : 				return NULL;
; 136  : 
; 137  : 			void* result = block->curr_alloc_ptr;
; 138  : 			block->curr_alloc_ptr = (void*) ( uintptr_t(result) - block->obj_actual_size );

  00015	8b d0		 mov	 edx, eax

; 139  : 			if ( uintptr_t(block->curr_alloc_ptr) < uintptr_t(block) + sizeof(mem_block_header) )

  00017	8d 8e 80 00 00
	00		 lea	 ecx, DWORD PTR [esi+128]
  0001d	2b 56 18	 sub	 edx, DWORD PTR [esi+24]
  00020	89 56 08	 mov	 DWORD PTR [esi+8], edx
  00023	3b d1		 cmp	 edx, ecx
  00025	73 20		 jae	 SHORT $LN10@allocate_f

; 155  : 		}

  00027	ff 46 14	 inc	 DWORD PTR [esi+20]

; 140  : 				block->curr_alloc_ptr = NULL;

  0002a	c7 46 08 00 00
	00 00		 mov	 DWORD PTR [esi+8], 0
  00031	5e		 pop	 esi

; 155  : 		}

  00032	5d		 pop	 ebp
  00033	c3		 ret	 0
$LN3@allocate_f:

; 148  : 			void*	result;
; 149  : 			if ( (result = allocate_from_freelist(block)) != NULL ) 
; 150  : 				return result;
; 151  : 			if ( (result = allocate_from_alloc_ptr( block)) != NULL )
; 152  : 				return result;
; 153  : 			block->is_full = 1;			// ÇÁ¸®¸®˝şĆ®żÍ ľó·ĎĆ÷ŔÎĹÍ¸¦ µż˝Ăżˇ °í·ÁÇŘĽ­ ĂĽĹ©..

  00034	b8 01 00 00 00	 mov	 eax, 1
  00039	66 89 46 1e	 mov	 WORD PTR [esi+30], ax

; 154  : 			return NULL;		

  0003d	33 c0		 xor	 eax, eax
  0003f	5e		 pop	 esi

; 155  : 		}

  00040	5d		 pop	 ebp
  00041	c3		 ret	 0
$LN6@allocate_f:

; 127  : 			block->freeList = result->next;

  00042	8b 08		 mov	 ecx, DWORD PTR [eax]
  00044	89 4e 0c	 mov	 DWORD PTR [esi+12], ecx
$LN10@allocate_f:

; 155  : 		}

  00047	ff 46 14	 inc	 DWORD PTR [esi+20]
  0004a	5e		 pop	 esi
  0004b	5d		 pop	 ebp
  0004c	c3		 ret	 0
?allocate_from_block@detail@i3@@YAPAXPAUmem_block_header@2@@Z ENDP ; i3::detail::allocate_from_block
_TEXT	ENDS
; Function compile flags: /Ogtp
; File E:\Proyectos\JuegosOnlineproyectos\PB\pbblow\Piercing Blow Remake\i3Server\src\i3Base\pool\pool_base.cpp
;	COMDAT ?allocate_from_alloc_ptr@detail@i3@@YAPAXPAUmem_block_header@2@@Z
_TEXT	SEGMENT
_block$ = 8						; size = 4
?allocate_from_alloc_ptr@detail@i3@@YAPAXPAUmem_block_header@2@@Z PROC ; i3::detail::allocate_from_alloc_ptr, COMDAT

; 133  : 		{

  00000	55		 push	 ebp
  00001	8b ec		 mov	 ebp, esp

; 134  : 			if (!block->curr_alloc_ptr)

  00003	8b 45 08	 mov	 eax, DWORD PTR _block$[ebp]
  00006	56		 push	 esi
  00007	8b 70 08	 mov	 esi, DWORD PTR [eax+8]
  0000a	85 f6		 test	 esi, esi
  0000c	75 05		 jne	 SHORT $LN2@allocate_f

; 135  : 				return NULL;

  0000e	33 c0		 xor	 eax, eax
  00010	5e		 pop	 esi

; 144  : 		}

  00011	5d		 pop	 ebp
  00012	c3		 ret	 0
$LN2@allocate_f:

; 136  : 
; 137  : 			void* result = block->curr_alloc_ptr;
; 138  : 			block->curr_alloc_ptr = (void*) ( uintptr_t(result) - block->obj_actual_size );

  00013	8b d6		 mov	 edx, esi

; 139  : 			if ( uintptr_t(block->curr_alloc_ptr) < uintptr_t(block) + sizeof(mem_block_header) )

  00015	8d 88 80 00 00
	00		 lea	 ecx, DWORD PTR [eax+128]
  0001b	2b 50 18	 sub	 edx, DWORD PTR [eax+24]
  0001e	89 50 08	 mov	 DWORD PTR [eax+8], edx
  00021	3b d1		 cmp	 edx, ecx
  00023	73 07		 jae	 SHORT $LN3@allocate_f

; 140  : 				block->curr_alloc_ptr = NULL;

  00025	c7 40 08 00 00
	00 00		 mov	 DWORD PTR [eax+8], 0
$LN3@allocate_f:

; 141  : 			++block->alloc_count;

  0002c	ff 40 14	 inc	 DWORD PTR [eax+20]

; 142  : 
; 143  : 			return result;

  0002f	8b c6		 mov	 eax, esi
  00031	5e		 pop	 esi

; 144  : 		}

  00032	5d		 pop	 ebp
  00033	c3		 ret	 0
?allocate_from_alloc_ptr@detail@i3@@YAPAXPAUmem_block_header@2@@Z ENDP ; i3::detail::allocate_from_alloc_ptr
_TEXT	ENDS
; Function compile flags: /Ogtp
; File E:\Proyectos\JuegosOnlineproyectos\PB\pbblow\Piercing Blow Remake\i3Server\src\i3Base\pool\pool_base.cpp
;	COMDAT ?get_new_block@pool_base@i3@@AAEPAUmem_block_header@2@KII@Z
_TEXT	SEGMENT
_threadID$ = 8						; size = 4
_size_index$ = 12					; size = 4
_actual_size$ = 16					; size = 4
?get_new_block@pool_base@i3@@AAEPAUmem_block_header@2@KII@Z PROC ; i3::pool_base::get_new_block, COMDAT
; _this$ = ecx

; 106  : 	{

  00000	55		 push	 ebp
  00001	8b ec		 mov	 ebp, esp
  00003	53		 push	 ebx

; 90   : 		if ( !big_block )

  00004	8b 5d 08	 mov	 ebx, DWORD PTR _threadID$[ebp]

; 106  : 	{

  00007	56		 push	 esi
  00008	57		 push	 edi
  00009	8b f9		 mov	 edi, ecx

; 88   : 		mem_block_header* big_block = m_free_block_list;

  0000b	8b 07		 mov	 eax, DWORD PTR [edi]

; 89   : 
; 90   : 		if ( !big_block )

  0000d	85 c0		 test	 eax, eax
  0000f	75 08		 jne	 SHORT $LN4@get_new_bl

; 91   : 		{
; 92   : 			pool_base::malloc_raw_memory(threadID);

  00011	53		 push	 ebx
  00012	e8 00 00 00 00	 call	 ?malloc_raw_memory@pool_base@i3@@IAEXK@Z ; i3::pool_base::malloc_raw_memory

; 93   : 			big_block = m_free_block_list;

  00017	8b 07		 mov	 eax, DWORD PTR [edi]
$LN4@get_new_bl:

; 94   : 		}
; 95   : 		
; 96   : 		big_block->curr_alloc_ptr = (void*)( uintptr_t(big_block->curr_alloc_ptr) - pool_block_size );

  00019	81 40 08 00 c0
	ff ff		 add	 DWORD PTR [eax+8], -16384 ; ffffc000H
  00020	8b 70 08	 mov	 esi, DWORD PTR [eax+8]

; 97   : 		mem_block_header* result = reinterpret_cast<mem_block_header*>(big_block->curr_alloc_ptr);
; 98   : 
; 99   : 		if (result == big_block )	// ŔĚąřŔ¸·Î ´Ů ľ˛´Â °ÍŔĚąÇ·Î ´ŮŔ˝ąřżŁ ±×´ŮŔ˝ şňşí·ĎŔ¸·Î..

  00023	3b f0		 cmp	 esi, eax
  00025	75 04		 jne	 SHORT $LN5@get_new_bl

; 100  : 			m_free_block_list = big_block->next;

  00027	8b 00		 mov	 eax, DWORD PTR [eax]
  00029	89 07		 mov	 DWORD PTR [edi], eax
$LN5@get_new_bl:

; 107  : 		mem_block_header* result = get_raw_block(threadID);		// Ç×»ó Ľş°ř..
; 108  : 		
; 109  : 		memset(result, 0, sizeof(mem_block_header));			// Á¶±Ý ŔŰ°Ô ŔŻÁöÇŘµµ µÉµí ÇŃµĄ..

  0002b	68 80 00 00 00	 push	 128			; 00000080H
  00030	6a 00		 push	 0
  00032	56		 push	 esi
  00033	e8 00 00 00 00	 call	 _memset

; 110  : //		result->uniqueID		= pool_id;
; 111  : 		result->curr_alloc_ptr	= (void*) (uintptr_t(result) + pool_block_size - actual_size);		// »çŔĚÁî ÇĎłŞ¸¦ ł»·ČŔ˝!

  00038	8b 55 10	 mov	 edx, DWORD PTR _actual_size$[ebp]
  0003b	8b ce		 mov	 ecx, esi
  0003d	83 c4 0c	 add	 esp, 12			; 0000000cH

; 112  : 		result->threadID		= threadID;

  00040	89 5e 10	 mov	 DWORD PTR [esi+16], ebx
  00043	2b ca		 sub	 ecx, edx

; 113  : 		result->obj_actual_size = actual_size;												

  00045	89 56 18	 mov	 DWORD PTR [esi+24], edx
  00048	81 c1 00 40 00
	00		 add	 ecx, 16384		; 00004000H

; 114  : 		result->size_index		= static_cast<WORD>(size_index);
; 115  : 
; 116  : 		return result;		

  0004e	8b c6		 mov	 eax, esi
  00050	89 4e 08	 mov	 DWORD PTR [esi+8], ecx
  00053	66 8b 4d 0c	 mov	 cx, WORD PTR _size_index$[ebp]
  00057	5f		 pop	 edi
  00058	66 89 4e 1c	 mov	 WORD PTR [esi+28], cx
  0005c	5e		 pop	 esi
  0005d	5b		 pop	 ebx

; 117  : 	}

  0005e	5d		 pop	 ebp
  0005f	c2 0c 00	 ret	 12			; 0000000cH
?get_new_block@pool_base@i3@@AAEPAUmem_block_header@2@KII@Z ENDP ; i3::pool_base::get_new_block
_TEXT	ENDS
; Function compile flags: /Ogtp
; File E:\Proyectos\JuegosOnlineproyectos\PB\pbblow\Piercing Blow Remake\i3Server\src\i3Base\pool\pool_base.cpp
;	COMDAT ?get_raw_block@pool_base@i3@@AAEPAUmem_block_header@2@K@Z
_TEXT	SEGMENT
_threadID$ = 8						; size = 4
?get_raw_block@pool_base@i3@@AAEPAUmem_block_header@2@K@Z PROC ; i3::pool_base::get_raw_block, COMDAT
; _this$ = ecx

; 87   : 	{

  00000	55		 push	 ebp
  00001	8b ec		 mov	 ebp, esp
  00003	56		 push	 esi
  00004	8b f1		 mov	 esi, ecx

; 88   : 		mem_block_header* big_block = m_free_block_list;

  00006	8b 0e		 mov	 ecx, DWORD PTR [esi]

; 89   : 
; 90   : 		if ( !big_block )

  00008	85 c9		 test	 ecx, ecx
  0000a	75 0c		 jne	 SHORT $LN2@get_raw_bl

; 91   : 		{
; 92   : 			pool_base::malloc_raw_memory(threadID);

  0000c	ff 75 08	 push	 DWORD PTR _threadID$[ebp]
  0000f	8b ce		 mov	 ecx, esi
  00011	e8 00 00 00 00	 call	 ?malloc_raw_memory@pool_base@i3@@IAEXK@Z ; i3::pool_base::malloc_raw_memory

; 93   : 			big_block = m_free_block_list;

  00016	8b 0e		 mov	 ecx, DWORD PTR [esi]
$LN2@get_raw_bl:

; 94   : 		}
; 95   : 		
; 96   : 		big_block->curr_alloc_ptr = (void*)( uintptr_t(big_block->curr_alloc_ptr) - pool_block_size );

  00018	81 41 08 00 c0
	ff ff		 add	 DWORD PTR [ecx+8], -16384 ; ffffc000H
  0001f	8b 41 08	 mov	 eax, DWORD PTR [ecx+8]

; 97   : 		mem_block_header* result = reinterpret_cast<mem_block_header*>(big_block->curr_alloc_ptr);
; 98   : 
; 99   : 		if (result == big_block )	// ŔĚąřŔ¸·Î ´Ů ľ˛´Â °ÍŔĚąÇ·Î ´ŮŔ˝ąřżŁ ±×´ŮŔ˝ şňşí·ĎŔ¸·Î..

  00022	3b c1		 cmp	 eax, ecx
  00024	75 04		 jne	 SHORT $LN3@get_raw_bl

; 100  : 			m_free_block_list = big_block->next;

  00026	8b 09		 mov	 ecx, DWORD PTR [ecx]
  00028	89 0e		 mov	 DWORD PTR [esi], ecx
$LN3@get_raw_bl:
  0002a	5e		 pop	 esi

; 101  : 
; 102  : 		return result;
; 103  : 	}

  0002b	5d		 pop	 ebp
  0002c	c2 04 00	 ret	 4
?get_raw_block@pool_base@i3@@AAEPAUmem_block_header@2@K@Z ENDP ; i3::pool_base::get_raw_block
_TEXT	ENDS
; Function compile flags: /Ogtp
; File E:\Proyectos\JuegosOnlineproyectos\PB\pbblow\Piercing Blow Remake\i3Server\src\i3Base\pool\pool_base.cpp
; File E:\Proyectos\JuegosOnlineproyectos\PB\pbblow\Piercing Blow Remake\i3Server\include\i3Base\tls\detail\tls_mgr.inl
; File E:\Proyectos\JuegosOnlineproyectos\PB\pbblow\Piercing Blow Remake\i3Server\src\i3Base\pool\pool_base.cpp
; File E:\Proyectos\JuegosOnlineproyectos\PB\pbblow\Piercing Blow Remake\i3Server\include\i3Base\tls\detail\tls_mgr.inl
; File E:\Proyectos\JuegosOnlineproyectos\PB\pbblow\Piercing Blow Remake\i3Server\src\i3Base\pool\pool_base.cpp
; File E:\Proyectos\JuegosOnlineproyectos\PB\pbblow\Piercing Blow Remake\i3Server\include\i3Base\memory\memory_alloc.inl
; File E:\Proyectos\JuegosOnlineproyectos\PB\pbblow\Piercing Blow Remake\i3Server\src\i3Base\pool\pool_base.cpp
; File E:\Proyectos\JuegosOnlineproyectos\PB\pbblow\Piercing Blow Remake\i3Server\include\i3Base\memory\memory_alloc.inl
; File E:\Proyectos\JuegosOnlineproyectos\PB\pbblow\Piercing Blow Remake\i3Server\include\i3Base\pool\create_by_thread.h
; File E:\Proyectos\JuegosOnlineproyectos\PB\pbblow\Piercing Blow Remake\i3Server\include\i3Base\memory\memory_alloc.inl
; File E:\Proyectos\JuegosOnlineproyectos\PB\pbblow\Piercing Blow Remake\i3Server\src\i3Base\pool\pool_base.cpp
;	COMDAT ?malloc_raw_memory@pool_base@i3@@IAEXK@Z
_TEXT	SEGMENT
_this$1$ = -4						; size = 4
_threadID$ = 8						; size = 4
?malloc_raw_memory@pool_base@i3@@IAEXK@Z PROC		; i3::pool_base::malloc_raw_memory, COMDAT
; _this$ = ecx

; 57   : 	{

  00000	55		 push	 ebp
  00001	8b ec		 mov	 ebp, esp
  00003	51		 push	 ecx
; File E:\Proyectos\JuegosOnlineproyectos\PB\pbblow\Piercing Blow Remake\i3Server\include\i3Base\tls\detail\tls_mgr.inl

; 132  : 		void*		thread_data::tls_malloc(size_t n) const { return i3::heap_malloc(this->heapTls, n); }

  00004	8b 55 08	 mov	 edx, DWORD PTR _threadID$[ebp]
  00007	a1 18 00 00 00	 mov	 eax, DWORD PTR ?g_TlsManager@detail_tls@i3@@3Vtls_mgr@12@A+24
; File E:\Proyectos\JuegosOnlineproyectos\PB\pbblow\Piercing Blow Remake\i3Server\src\i3Base\pool\pool_base.cpp

; 57   : 	{

  0000c	53		 push	 ebx

; 58   : 		m_raw_memory_head = raw_memory_ctn::create(threadID, m_next_raw_memory_size, m_raw_memory_head);

  0000d	8b 59 04	 mov	 ebx, DWORD PTR [ecx+4]
  00010	56		 push	 esi
; File E:\Proyectos\JuegosOnlineproyectos\PB\pbblow\Piercing Blow Remake\i3Server\include\i3Base\tls\detail\tls_mgr.inl

; 132  : 		void*		thread_data::tls_malloc(size_t n) const { return i3::heap_malloc(this->heapTls, n); }

  00011	8b 04 90	 mov	 eax, DWORD PTR [eax+edx*4]
; File E:\Proyectos\JuegosOnlineproyectos\PB\pbblow\Piercing Blow Remake\i3Server\src\i3Base\pool\pool_base.cpp

; 57   : 	{

  00014	57		 push	 edi

; 58   : 		m_raw_memory_head = raw_memory_ctn::create(threadID, m_next_raw_memory_size, m_raw_memory_head);

  00015	8b 79 08	 mov	 edi, DWORD PTR [ecx+8]
; File E:\Proyectos\JuegosOnlineproyectos\PB\pbblow\Piercing Blow Remake\i3Server\include\i3Base\memory\memory_alloc.inl

; 87   : 		return ::HeapAlloc(HANDLE(h), 0, size);

  00018	6a 08		 push	 8
  0001a	6a 00		 push	 0
  0001c	ff 70 20	 push	 DWORD PTR [eax+32]
; File E:\Proyectos\JuegosOnlineproyectos\PB\pbblow\Piercing Blow Remake\i3Server\src\i3Base\pool\pool_base.cpp

; 57   : 	{

  0001f	89 4d fc	 mov	 DWORD PTR _this$1$[ebp], ecx
; File E:\Proyectos\JuegosOnlineproyectos\PB\pbblow\Piercing Blow Remake\i3Server\include\i3Base\memory\memory_alloc.inl

; 87   : 		return ::HeapAlloc(HANDLE(h), 0, size);

  00022	ff 15 00 00 00
	00		 call	 DWORD PTR __imp__HeapAlloc@12

; 115  : 		return ::VirtualAlloc(NULL, size, (MEM_RESERVE | MEM_COMMIT | MEM_TOP_DOWN), PAGE_READWRITE);

  00028	6a 04		 push	 4
  0002a	68 00 30 10 00	 push	 1060864			; 00103000H
  0002f	57		 push	 edi
  00030	6a 00		 push	 0
; File E:\Proyectos\JuegosOnlineproyectos\PB\pbblow\Piercing Blow Remake\i3Server\include\i3Base\pool\create_by_thread.h

; 46   : 		return new ( i3::tls_malloc(threadID, sizeof(T)) ) T(p1, p2);

  00032	8b f0		 mov	 esi, eax
; File E:\Proyectos\JuegosOnlineproyectos\PB\pbblow\Piercing Blow Remake\i3Server\include\i3Base\memory\memory_alloc.inl

; 115  : 		return ::VirtualAlloc(NULL, size, (MEM_RESERVE | MEM_COMMIT | MEM_TOP_DOWN), PAGE_READWRITE);

  00034	ff 15 00 00 00
	00		 call	 DWORD PTR __imp__VirtualAlloc@16
; File E:\Proyectos\JuegosOnlineproyectos\PB\pbblow\Piercing Blow Remake\i3Server\src\i3Base\pool\pool_base.cpp

; 19   : 		  virtual_memory(i3::virtual_malloc(size_alloc)), next(link){}

  0003a	89 5e 04	 mov	 DWORD PTR [esi+4], ebx

; 58   : 		m_raw_memory_head = raw_memory_ctn::create(threadID, m_next_raw_memory_size, m_raw_memory_head);

  0003d	8b 5d fc	 mov	 ebx, DWORD PTR _this$1$[ebp]

; 19   : 		  virtual_memory(i3::virtual_malloc(size_alloc)), next(link){}

  00040	89 06		 mov	 DWORD PTR [esi], eax

; 58   : 		m_raw_memory_head = raw_memory_ctn::create(threadID, m_next_raw_memory_size, m_raw_memory_head);

  00042	89 73 04	 mov	 DWORD PTR [ebx+4], esi

; 59   : 
; 60   : 		void*	big_block = m_raw_memory_head->get_virtual_memory();	// ĂÖĽŇÇŃ ĂąÁÖĽŇ¸¸Ĺ­Ŕş 64KÁÖĽŇ°ŞŔ» ş¸Ŕĺ..

  00045	8b 06		 mov	 eax, DWORD PTR [esi]

; 61   : 		void*	big_block_end = (void*)( uintptr_t(big_block) + m_next_raw_memory_size );

  00047	8b 73 08	 mov	 esi, DWORD PTR [ebx+8]
  0004a	03 f0		 add	 esi, eax

; 62   : 
; 63   : 		size_t  split_size = blocks_per_list_node * pool_block_size;		// 256K
; 64   : 
; 65   : 		mem_block_header*	split_block = reinterpret_cast<mem_block_header*>(big_block);
; 66   : 		void*				split_end;
; 67   : 
; 68   : 		while ( uintptr_t(split_block) + pool_block_size <= uintptr_t(big_block_end) )

  0004c	8d 88 00 40 00
	00		 lea	 ecx, DWORD PTR [eax+16384]
  00052	3b ce		 cmp	 ecx, esi
  00054	77 2c		 ja	 SHORT $LN32@malloc_raw
  00056	8b fe		 mov	 edi, esi
  00058	81 e7 00 c0 ff
	ff		 and	 edi, -16384		; ffffc000H
  0005e	8b ff		 npad	 2
$LL2@malloc_raw:

; 69   : 		{
; 70   : 			split_end = (void*)( uintptr_t( split_block) + split_size );

  00060	8d 88 00 00 04
	00		 lea	 ecx, DWORD PTR [eax+262144]

; 71   : 
; 72   : 			if ( split_end > big_block_end )
; 73   : 				split_end = align_down( big_block_end, pool_block_size);// ĆäŔĚÁö´Â 4KŔĚ°í, Ç®Ŕş 16K¶óĽ­ Á¤·ÄŔĚ ÇĘżäÇŇĽö ŔÖŔ˝..
; 74   : 			
; 75   : 			split_block->curr_alloc_ptr = split_end;

  00066	8b d7		 mov	 edx, edi
  00068	3b ce		 cmp	 ecx, esi
  0006a	0f 46 d1	 cmovbe	 edx, ecx
  0006d	89 50 08	 mov	 DWORD PTR [eax+8], edx

; 76   : 			split_block->next = m_free_block_list;

  00070	8b 0b		 mov	 ecx, DWORD PTR [ebx]
  00072	89 08		 mov	 DWORD PTR [eax], ecx

; 77   : 			
; 78   : 			m_free_block_list = split_block;

  00074	89 03		 mov	 DWORD PTR [ebx], eax

; 79   : 
; 80   : 			split_block = reinterpret_cast<mem_block_header*>(split_end);

  00076	8b c2		 mov	 eax, edx
  00078	8d 88 00 40 00
	00		 lea	 ecx, DWORD PTR [eax+16384]
  0007e	3b ce		 cmp	 ecx, esi
  00080	76 de		 jbe	 SHORT $LL2@malloc_raw
$LN32@malloc_raw:

; 81   : 		}
; 82   : 
; 83   : 		m_next_raw_memory_size <<= 1;
; 84   : 	}

  00082	d1 63 08	 shl	 DWORD PTR [ebx+8], 1
  00085	5f		 pop	 edi
  00086	5e		 pop	 esi
  00087	5b		 pop	 ebx
  00088	8b e5		 mov	 esp, ebp
  0008a	5d		 pop	 ebp
  0008b	c2 04 00	 ret	 4
?malloc_raw_memory@pool_base@i3@@IAEXK@Z ENDP		; i3::pool_base::malloc_raw_memory
_TEXT	ENDS
; Function compile flags: /Ogtp
; File E:\Proyectos\JuegosOnlineproyectos\PB\pbblow\Piercing Blow Remake\i3Server\include\i3Base\pool\pool_base.inl
;	COMDAT ?expand_memory_size_by_pow2@pool_base@i3@@IAEXI@Z
_TEXT	SEGMENT
_pow2$ = 8						; size = 4
?expand_memory_size_by_pow2@pool_base@i3@@IAEXI@Z PROC	; i3::pool_base::expand_memory_size_by_pow2, COMDAT
; _this$ = ecx

; 22   : 	{

  00000	55		 push	 ebp
  00001	8b ec		 mov	 ebp, esp
  00003	8b c1		 mov	 eax, ecx

; 23   : 		m_next_raw_memory_size <<= pow2;

  00005	8b 4d 08	 mov	 ecx, DWORD PTR _pow2$[ebp]
  00008	d3 60 08	 shl	 DWORD PTR [eax+8], cl

; 24   : 	}

  0000b	5d		 pop	 ebp
  0000c	c2 04 00	 ret	 4
?expand_memory_size_by_pow2@pool_base@i3@@IAEXI@Z ENDP	; i3::pool_base::expand_memory_size_by_pow2
_TEXT	ENDS
; Function compile flags: /Ogtp
; File E:\Proyectos\JuegosOnlineproyectos\PB\pbblow\Piercing Blow Remake\i3Server\include\i3Base\pool\pool_base.inl
; File E:\Proyectos\JuegosOnlineproyectos\PB\pbblow\Piercing Blow Remake\i3Server\src\i3Base\pool\pool_base.cpp
; File E:\Proyectos\JuegosOnlineproyectos\PB\pbblow\Piercing Blow Remake\i3Server\include\i3Base\pool\pool_base.inl
; File E:\Proyectos\JuegosOnlineproyectos\PB\pbblow\Piercing Blow Remake\i3Server\src\i3Base\pool\pool_base.cpp
; File E:\Proyectos\JuegosOnlineproyectos\PB\pbblow\Piercing Blow Remake\i3Server\include\i3Base\pool\pool_base.inl
; File E:\Proyectos\JuegosOnlineproyectos\PB\pbblow\Piercing Blow Remake\i3Server\src\i3Base\pool\pool_base.cpp
; File E:\Proyectos\JuegosOnlineproyectos\PB\pbblow\Piercing Blow Remake\i3Server\include\i3Base\pool\pool_base.inl
; File E:\Proyectos\JuegosOnlineproyectos\PB\pbblow\Piercing Blow Remake\i3Server\src\i3Base\pool\pool_base.cpp
; File E:\Proyectos\JuegosOnlineproyectos\PB\pbblow\Piercing Blow Remake\i3Server\include\i3Base\pool\pool_base.inl
; File E:\Proyectos\JuegosOnlineproyectos\PB\pbblow\Piercing Blow Remake\i3Server\src\i3Base\pool\pool_base.cpp
; File E:\Proyectos\JuegosOnlineproyectos\PB\pbblow\Piercing Blow Remake\i3Server\include\i3Base\pool\pool_base.inl
;	COMDAT ?deallocate_same_thread@pool_base@i3@@IAEXAAPAUmem_block_header@2@PAU32@PAX@Z
_TEXT	SEGMENT
_active_block$ = 8					; size = 4
_block$ = 12						; size = 4
tv403 = 12						; size = 4
tv404 = 12						; size = 4
_data$ = 16						; size = 4
?deallocate_same_thread@pool_base@i3@@IAEXAAPAUmem_block_header@2@PAU32@PAX@Z PROC ; i3::pool_base::deallocate_same_thread, COMDAT
; _this$ = ecx

; 28   : 	{	

  00000	55		 push	 ebp
  00001	8b ec		 mov	 ebp, esp
; File E:\Proyectos\JuegosOnlineproyectos\PB\pbblow\Piercing Blow Remake\i3Server\src\i3Base\pool\pool_base.cpp

; 240  : 			free_obj->next = block->freeList;

  00003	8b 55 10	 mov	 edx, DWORD PTR _data$[ebp]
; File E:\Proyectos\JuegosOnlineproyectos\PB\pbblow\Piercing Blow Remake\i3Server\include\i3Base\pool\pool_base.inl

; 28   : 	{	

  00006	56		 push	 esi
  00007	8b 75 0c	 mov	 esi, DWORD PTR _block$[ebp]
  0000a	57		 push	 edi
  0000b	8b f9		 mov	 edi, ecx
; File E:\Proyectos\JuegosOnlineproyectos\PB\pbblow\Piercing Blow Remake\i3Server\src\i3Base\pool\pool_base.cpp

; 240  : 			free_obj->next = block->freeList;

  0000d	8b 46 0c	 mov	 eax, DWORD PTR [esi+12]
  00010	89 02		 mov	 DWORD PTR [edx], eax

; 241  : 			block->freeList = free_obj;
; 242  : 			--block->alloc_count;

  00012	8b 4e 14	 mov	 ecx, DWORD PTR [esi+20]
  00015	49		 dec	 ecx
  00016	89 56 0c	 mov	 DWORD PTR [esi+12], edx

; 243  : 
; 244  : 			if ( block->is_full )		// żĎŔü ąĐ·Áł­ şí·ĎŔÎ °ćżě..(´Ů ĽŇżäµČ °Í....alloc_count°ˇ ¸¸¶Ą..)ŔĚ şí·ĎŔ» ľ×ĆĽşę·Î µą¸°´Ů...

  00019	66 83 7e 1e 00	 cmp	 WORD PTR [esi+30], 0
  0001e	89 4e 14	 mov	 DWORD PTR [esi+20], ecx
  00021	74 6c		 je	 SHORT $LN4@deallocate

; 191  : 			block->is_full = ( block->alloc_count * block->obj_actual_size > block_full_threshold  ) ? 1 : 0;

  00023	8b 46 18	 mov	 eax, DWORD PTR [esi+24]
  00026	0f af c1	 imul	 eax, ecx
  00029	89 45 0c	 mov	 DWORD PTR tv404[ebp], eax
  0002c	db 45 0c	 fild	 DWORD PTR tv404[ebp]
  0002f	85 c0		 test	 eax, eax
  00031	79 06		 jns	 SHORT $LN33@deallocate
  00033	d8 05 00 00 00
	00		 fadd	 DWORD PTR __real@4f800000
$LN33@deallocate:
  00039	d9 5d 0c	 fstp	 DWORD PTR tv403[ebp]
  0003c	d9 05 00 00 00
	00		 fld	 DWORD PTR __real@463e8000
  00042	d9 45 0c	 fld	 DWORD PTR tv403[ebp]
  00045	df f1		 fcomip	 ST(1)
  00047	dd d8		 fstp	 ST(0)
  00049	76 0f		 jbe	 SHORT $LN16@deallocate
  0004b	b8 01 00 00 00	 mov	 eax, 1
  00050	5f		 pop	 edi
  00051	66 89 46 1e	 mov	 WORD PTR [esi+30], ax
; File E:\Proyectos\JuegosOnlineproyectos\PB\pbblow\Piercing Blow Remake\i3Server\include\i3Base\pool\pool_base.inl

; 30   : 	}

  00055	5e		 pop	 esi
  00056	5d		 pop	 ebp
  00057	c2 0c 00	 ret	 12			; 0000000cH
$LN16@deallocate:
; File E:\Proyectos\JuegosOnlineproyectos\PB\pbblow\Piercing Blow Remake\i3Server\src\i3Base\pool\pool_base.cpp

; 202  : 				if ( active_block )		// active°ˇ ŔÖŔ¸¸é ±× ľŐżˇ łő°í...

  0005a	8b 4d 08	 mov	 ecx, DWORD PTR _active_block$[ebp]

; 191  : 			block->is_full = ( block->alloc_count * block->obj_actual_size > block_full_threshold  ) ? 1 : 0;

  0005d	33 c0		 xor	 eax, eax
  0005f	66 89 46 1e	 mov	 WORD PTR [esi+30], ax

; 202  : 				if ( active_block )		// active°ˇ ŔÖŔ¸¸é ±× ľŐżˇ łő°í...

  00063	8b 01		 mov	 eax, DWORD PTR [ecx]
  00065	85 c0		 test	 eax, eax
  00067	74 1e		 je	 SHORT $LN10@deallocate

; 203  : 				{
; 204  : 					block->next = active_block;			// ŔĚ°ÍŔĚ şüÁ®Ľ­ Ŕá˝Ă żˇ·Żż´ľú´Ů...

  00069	89 06		 mov	 DWORD PTR [esi], eax

; 205  : 					block->prev = active_block->prev;

  0006b	8b 01		 mov	 eax, DWORD PTR [ecx]
  0006d	8b 40 04	 mov	 eax, DWORD PTR [eax+4]
  00070	89 46 04	 mov	 DWORD PTR [esi+4], eax

; 206  : 					active_block->prev = block;

  00073	8b 01		 mov	 eax, DWORD PTR [ecx]
  00075	89 70 04	 mov	 DWORD PTR [eax+4], esi

; 207  : 					if ( block->prev)

  00078	8b 46 04	 mov	 eax, DWORD PTR [esi+4]
  0007b	85 c0		 test	 eax, eax
  0007d	74 46		 je	 SHORT $LN6@deallocate
  0007f	5f		 pop	 edi

; 208  : 						block->prev->next = block;

  00080	89 30		 mov	 DWORD PTR [eax], esi
; File E:\Proyectos\JuegosOnlineproyectos\PB\pbblow\Piercing Blow Remake\i3Server\include\i3Base\pool\pool_base.inl

; 30   : 	}

  00082	5e		 pop	 esi
  00083	5d		 pop	 ebp
  00084	c2 0c 00	 ret	 12			; 0000000cH
$LN10@deallocate:
  00087	5f		 pop	 edi
; File E:\Proyectos\JuegosOnlineproyectos\PB\pbblow\Piercing Blow Remake\i3Server\src\i3Base\pool\pool_base.cpp

; 212  : 					active_block = block;

  00088	89 31		 mov	 DWORD PTR [ecx], esi
; File E:\Proyectos\JuegosOnlineproyectos\PB\pbblow\Piercing Blow Remake\i3Server\include\i3Base\pool\pool_base.inl

; 30   : 	}

  0008a	5e		 pop	 esi
  0008b	5d		 pop	 ebp
  0008c	c2 0c 00	 ret	 12			; 0000000cH
$LN4@deallocate:
; File E:\Proyectos\JuegosOnlineproyectos\PB\pbblow\Piercing Blow Remake\i3Server\src\i3Base\pool\pool_base.cpp

; 247  : 			if (block->alloc_count == 0)	// ÇŇ´çÄ«żîĆ®°ˇ 0ŔĚ¸é ąŮ·Î şí·Ď ĽŇ°Ĺ.. (ŔĚşÎşĐŔş ±âÁ¸tbbżÍ Č®˝ÇŔĚ ´Ů¸§) ŔçÇŇ´çŔ» ÇĎÁö ľĘ±â¶§ą®żˇ şü¸Ą Ăł¸®°ˇ ÇĘżäÇĎ´Ů..

  0008f	85 c9		 test	 ecx, ecx
  00091	75 32		 jne	 SHORT $LN6@deallocate

; 219  : 			if ( block == active_block )

  00093	8b 4d 08	 mov	 ecx, DWORD PTR _active_block$[ebp]
  00096	3b 31		 cmp	 esi, DWORD PTR [ecx]
  00098	75 05		 jne	 SHORT $LN23@deallocate

; 220  : 			{
; 221  : //				assert(block != block->prev);
; 222  : 				active_block =  block->prev;		// active_blockÁ¦°Ĺ˝ĂżŁ prev·Î ŔĚµż, Č¤Ŕş prevłÎŔÎ °ćżě ľřŔ˝...

  0009a	8b 46 04	 mov	 eax, DWORD PTR [esi+4]
  0009d	89 01		 mov	 DWORD PTR [ecx], eax
$LN23@deallocate:

; 223  : 			}
; 224  : 			
; 225  : 			if ( block->prev )

  0009f	8b 4e 04	 mov	 ecx, DWORD PTR [esi+4]
  000a2	85 c9		 test	 ecx, ecx
  000a4	74 04		 je	 SHORT $LN20@deallocate

; 226  : 				block->prev->next = block->next;

  000a6	8b 06		 mov	 eax, DWORD PTR [esi]
  000a8	89 01		 mov	 DWORD PTR [ecx], eax
$LN20@deallocate:

; 227  : 			if (block->next)

  000aa	8b 0e		 mov	 ecx, DWORD PTR [esi]
  000ac	85 c9		 test	 ecx, ecx
  000ae	74 06		 je	 SHORT $LN21@deallocate

; 228  : 				block->next->prev = block->prev;

  000b0	8b 46 04	 mov	 eax, DWORD PTR [esi+4]
  000b3	89 41 04	 mov	 DWORD PTR [ecx+4], eax
$LN21@deallocate:

; 229  : 
; 230  : 			// ľĆ·ˇ 2°ł¸¦ Á¦żÜÇŃ łŞ¸ÓÁö´Â ą«ČżÇŃ °ŞŔÓ..
; 231  : 			block->curr_alloc_ptr = (void*)( uintptr_t(block) + pool_block_size );

  000b6	8d 86 00 40 00
	00		 lea	 eax, DWORD PTR [esi+16384]
  000bc	89 46 08	 mov	 DWORD PTR [esi+8], eax

; 232  : 			block->next = free_block_list;

  000bf	8b 07		 mov	 eax, DWORD PTR [edi]
  000c1	89 06		 mov	 DWORD PTR [esi], eax

; 233  : 			//
; 234  : 			free_block_list = block;		//	ÇÁ¸®şí·Ď¸®˝şĆ®żˇ µî·Ď..

  000c3	89 37		 mov	 DWORD PTR [edi], esi
$LN6@deallocate:
  000c5	5f		 pop	 edi
; File E:\Proyectos\JuegosOnlineproyectos\PB\pbblow\Piercing Blow Remake\i3Server\include\i3Base\pool\pool_base.inl

; 30   : 	}

  000c6	5e		 pop	 esi
  000c7	5d		 pop	 ebp
  000c8	c2 0c 00	 ret	 12			; 0000000cH
?deallocate_same_thread@pool_base@i3@@IAEXAAPAUmem_block_header@2@PAU32@PAX@Z ENDP ; i3::pool_base::deallocate_same_thread
_TEXT	ENDS
; Function compile flags: /Ogtp
; File E:\Proyectos\JuegosOnlineproyectos\PB\pbblow\Piercing Blow Remake\i3Server\include\i3Base\pool\pool_base.inl
; File E:\Proyectos\JuegosOnlineproyectos\PB\pbblow\Piercing Blow Remake\i3Server\src\i3Base\pool\pool_base.cpp
; File E:\Proyectos\JuegosOnlineproyectos\PB\pbblow\Piercing Blow Remake\i3Server\include\i3Base\pool\pool_base.inl
; File E:\Proyectos\JuegosOnlineproyectos\PB\pbblow\Piercing Blow Remake\i3Server\src\i3Base\pool\pool_base.cpp
; File E:\Proyectos\JuegosOnlineproyectos\PB\pbblow\Piercing Blow Remake\i3Server\include\i3Base\pool\pool_base.inl
; File E:\Proyectos\JuegosOnlineproyectos\PB\pbblow\Piercing Blow Remake\i3Server\src\i3Base\pool\pool_base.cpp
; File E:\Proyectos\JuegosOnlineproyectos\PB\pbblow\Piercing Blow Remake\i3Server\include\i3Base\pool\pool_base.inl
; File E:\Proyectos\JuegosOnlineproyectos\PB\pbblow\Piercing Blow Remake\i3Server\src\i3Base\pool\pool_base.cpp
; File E:\Proyectos\JuegosOnlineproyectos\PB\pbblow\Piercing Blow Remake\i3Server\include\i3Base\pool\pool_base.inl
;	COMDAT ?allocate_from_new_block@pool_base@i3@@IAEPAXKAAPAUmem_block_header@2@II@Z
_TEXT	SEGMENT
_threadID$ = 8						; size = 4
_active_block$ = 12					; size = 4
_size_index$ = 16					; size = 4
_actual_size$ = 20					; size = 4
?allocate_from_new_block@pool_base@i3@@IAEPAXKAAPAUmem_block_header@2@II@Z PROC ; i3::pool_base::allocate_from_new_block, COMDAT
; _this$ = ecx

; 34   : 	{

  00000	55		 push	 ebp
  00001	8b ec		 mov	 ebp, esp
  00003	53		 push	 ebx
; File E:\Proyectos\JuegosOnlineproyectos\PB\pbblow\Piercing Blow Remake\i3Server\src\i3Base\pool\pool_base.cpp

; 90   : 		if ( !big_block )

  00004	8b 5d 08	 mov	 ebx, DWORD PTR _threadID$[ebp]
; File E:\Proyectos\JuegosOnlineproyectos\PB\pbblow\Piercing Blow Remake\i3Server\include\i3Base\pool\pool_base.inl

; 34   : 	{

  00007	56		 push	 esi
  00008	57		 push	 edi
  00009	8b f9		 mov	 edi, ecx
; File E:\Proyectos\JuegosOnlineproyectos\PB\pbblow\Piercing Blow Remake\i3Server\src\i3Base\pool\pool_base.cpp

; 88   : 		mem_block_header* big_block = m_free_block_list;

  0000b	8b 07		 mov	 eax, DWORD PTR [edi]

; 90   : 		if ( !big_block )

  0000d	85 c0		 test	 eax, eax
  0000f	75 08		 jne	 SHORT $LN6@allocate_f

; 91   : 		{
; 92   : 			pool_base::malloc_raw_memory(threadID);

  00011	53		 push	 ebx
  00012	e8 00 00 00 00	 call	 ?malloc_raw_memory@pool_base@i3@@IAEXK@Z ; i3::pool_base::malloc_raw_memory

; 93   : 			big_block = m_free_block_list;

  00017	8b 07		 mov	 eax, DWORD PTR [edi]
$LN6@allocate_f:

; 94   : 		}
; 95   : 		
; 96   : 		big_block->curr_alloc_ptr = (void*)( uintptr_t(big_block->curr_alloc_ptr) - pool_block_size );

  00019	81 40 08 00 c0
	ff ff		 add	 DWORD PTR [eax+8], -16384 ; ffffc000H
  00020	8b 70 08	 mov	 esi, DWORD PTR [eax+8]

; 97   : 		mem_block_header* result = reinterpret_cast<mem_block_header*>(big_block->curr_alloc_ptr);
; 98   : 
; 99   : 		if (result == big_block )	// ŔĚąřŔ¸·Î ´Ů ľ˛´Â °ÍŔĚąÇ·Î ´ŮŔ˝ąřżŁ ±×´ŮŔ˝ şňşí·ĎŔ¸·Î..

  00023	3b f0		 cmp	 esi, eax
  00025	75 04		 jne	 SHORT $LN7@allocate_f

; 100  : 			m_free_block_list = big_block->next;

  00027	8b 00		 mov	 eax, DWORD PTR [eax]
  00029	89 07		 mov	 DWORD PTR [edi], eax
$LN7@allocate_f:

; 109  : 		memset(result, 0, sizeof(mem_block_header));			// Á¶±Ý ŔŰ°Ô ŔŻÁöÇŘµµ µÉµí ÇŃµĄ..

  0002b	68 80 00 00 00	 push	 128			; 00000080H
  00030	6a 00		 push	 0
  00032	56		 push	 esi
  00033	e8 00 00 00 00	 call	 _memset

; 110  : //		result->uniqueID		= pool_id;
; 111  : 		result->curr_alloc_ptr	= (void*) (uintptr_t(result) + pool_block_size - actual_size);		// »çŔĚÁî ÇĎłŞ¸¦ ł»·ČŔ˝!

  00038	8b 4d 14	 mov	 ecx, DWORD PTR _actual_size$[ebp]
  0003b	8b c6		 mov	 eax, esi
  0003d	2b c1		 sub	 eax, ecx

; 112  : 		result->threadID		= threadID;

  0003f	89 5e 10	 mov	 DWORD PTR [esi+16], ebx
  00042	05 00 40 00 00	 add	 eax, 16384		; 00004000H

; 113  : 		result->obj_actual_size = actual_size;												

  00047	89 4e 18	 mov	 DWORD PTR [esi+24], ecx
  0004a	89 46 08	 mov	 DWORD PTR [esi+8], eax
  0004d	83 c4 0c	 add	 esp, 12			; 0000000cH

; 114  : 		result->size_index		= static_cast<WORD>(size_index);

  00050	66 8b 45 10	 mov	 ax, WORD PTR _size_index$[ebp]
  00054	66 89 46 1c	 mov	 WORD PTR [esi+28], ax
; File E:\Proyectos\JuegosOnlineproyectos\PB\pbblow\Piercing Blow Remake\i3Server\include\i3Base\pool\pool_base.inl

; 36   : 		active_block = block;								// Ç×»ó Á¸Ŕç..	

  00058	8b 45 0c	 mov	 eax, DWORD PTR _active_block$[ebp]
  0005b	89 30		 mov	 DWORD PTR [eax], esi
; File E:\Proyectos\JuegosOnlineproyectos\PB\pbblow\Piercing Blow Remake\i3Server\src\i3Base\pool\pool_base.cpp

; 134  : 			if (!block->curr_alloc_ptr)

  0005d	8b 46 08	 mov	 eax, DWORD PTR [esi+8]
  00060	85 c0		 test	 eax, eax
  00062	75 07		 jne	 SHORT $LN10@allocate_f
; File E:\Proyectos\JuegosOnlineproyectos\PB\pbblow\Piercing Blow Remake\i3Server\include\i3Base\pool\pool_base.inl

; 38   : 	}

  00064	5f		 pop	 edi
  00065	5e		 pop	 esi
  00066	5b		 pop	 ebx
  00067	5d		 pop	 ebp
  00068	c2 10 00	 ret	 16			; 00000010H
$LN10@allocate_f:
; File E:\Proyectos\JuegosOnlineproyectos\PB\pbblow\Piercing Blow Remake\i3Server\src\i3Base\pool\pool_base.cpp

; 138  : 			block->curr_alloc_ptr = (void*) ( uintptr_t(result) - block->obj_actual_size );

  0006b	8b d0		 mov	 edx, eax

; 139  : 			if ( uintptr_t(block->curr_alloc_ptr) < uintptr_t(block) + sizeof(mem_block_header) )

  0006d	8d 8e 80 00 00
	00		 lea	 ecx, DWORD PTR [esi+128]
  00073	2b 56 18	 sub	 edx, DWORD PTR [esi+24]
  00076	89 56 08	 mov	 DWORD PTR [esi+8], edx
  00079	3b d1		 cmp	 edx, ecx
  0007b	73 07		 jae	 SHORT $LN11@allocate_f

; 140  : 				block->curr_alloc_ptr = NULL;

  0007d	c7 46 08 00 00
	00 00		 mov	 DWORD PTR [esi+8], 0
$LN11@allocate_f:

; 141  : 			++block->alloc_count;

  00084	ff 46 14	 inc	 DWORD PTR [esi+20]
  00087	5f		 pop	 edi
; File E:\Proyectos\JuegosOnlineproyectos\PB\pbblow\Piercing Blow Remake\i3Server\include\i3Base\pool\pool_base.inl

; 38   : 	}

  00088	5e		 pop	 esi
  00089	5b		 pop	 ebx
  0008a	5d		 pop	 ebp
  0008b	c2 10 00	 ret	 16			; 00000010H
?allocate_from_new_block@pool_base@i3@@IAEPAXKAAPAUmem_block_header@2@II@Z ENDP ; i3::pool_base::allocate_from_new_block
_TEXT	ENDS
; Function compile flags: /Ogtp
; File E:\Proyectos\JuegosOnlineproyectos\PB\pbblow\Piercing Blow Remake\i3Server\src\i3Base\pool\pool_base.cpp
;	COMDAT ?clean_up@pool_base@i3@@IAEXK@Z
_TEXT	SEGMENT
_threadID$ = 8						; size = 4
?clean_up@pool_base@i3@@IAEXK@Z PROC			; i3::pool_base::clean_up, COMDAT
; _this$ = ecx

; 50   : 	{

  00000	55		 push	 ebp
  00001	8b ec		 mov	 ebp, esp

; 51   : 		raw_memory_ctn::destroy_all(threadID, m_raw_memory_head);

  00003	ff 71 04	 push	 DWORD PTR [ecx+4]
  00006	ff 75 08	 push	 DWORD PTR _threadID$[ebp]
  00009	e8 00 00 00 00	 call	 ?destroy_all@raw_memory_ctn@i3@@SAXKPAV12@@Z ; i3::raw_memory_ctn::destroy_all
  0000e	83 c4 08	 add	 esp, 8

; 52   : 	}

  00011	5d		 pop	 ebp
  00012	c2 04 00	 ret	 4
?clean_up@pool_base@i3@@IAEXK@Z ENDP			; i3::pool_base::clean_up
_TEXT	ENDS
; Function compile flags: /Ogtp
; File E:\Proyectos\JuegosOnlineproyectos\PB\pbblow\Piercing Blow Remake\i3Server\src\i3Base\pool\pool_base.cpp
;	COMDAT ??1pool_base@i3@@IAE@XZ
_TEXT	SEGMENT
??1pool_base@i3@@IAE@XZ PROC				; i3::pool_base::~pool_base, COMDAT
; _this$ = ecx

; 47   : 	}

  00000	c2 00 00	 ret	 0
??1pool_base@i3@@IAE@XZ ENDP				; i3::pool_base::~pool_base
_TEXT	ENDS
; Function compile flags: /Ogtp
; File E:\Proyectos\JuegosOnlineproyectos\PB\pbblow\Piercing Blow Remake\i3Server\src\i3Base\pool\pool_base.cpp
;	COMDAT ??0pool_base@i3@@IAE@I@Z
_TEXT	SEGMENT
_init_memory_size$ = 8					; size = 4
??0pool_base@i3@@IAE@I@Z PROC				; i3::pool_base::pool_base, COMDAT
; _this$ = ecx

; 42   : 	{

  00000	55		 push	 ebp
  00001	8b ec		 mov	 ebp, esp

; 40   : 	pool_base::pool_base( size_t init_memory_size) : m_next_raw_memory_size(init_memory_size), 

  00003	8b 45 08	 mov	 eax, DWORD PTR _init_memory_size$[ebp]
  00006	89 41 08	 mov	 DWORD PTR [ecx+8], eax

; 43   : 	}

  00009	8b c1		 mov	 eax, ecx
  0000b	c7 01 00 00 00
	00		 mov	 DWORD PTR [ecx], 0
  00011	c7 41 04 00 00
	00 00		 mov	 DWORD PTR [ecx+4], 0
  00018	5d		 pop	 ebp
  00019	c2 04 00	 ret	 4
??0pool_base@i3@@IAE@I@Z ENDP				; i3::pool_base::pool_base
_TEXT	ENDS
; Function compile flags: /Ogtp
;	COMDAT ??_Etls_base@i3@@UAEPAXI@Z
_TEXT	SEGMENT
__$EHRec$ = -12						; size = 12
___flags$ = 8						; size = 4
??_Etls_base@i3@@UAEPAXI@Z PROC				; i3::tls_base::`vector deleting destructor', COMDAT
; _this$ = ecx
  00000	55		 push	 ebp
  00001	8b ec		 mov	 ebp, esp
  00003	6a ff		 push	 -1
  00005	68 00 00 00 00	 push	 __ehhandler$??_Etls_base@i3@@UAEPAXI@Z
  0000a	64 a1 00 00 00
	00		 mov	 eax, DWORD PTR fs:0
  00010	50		 push	 eax
  00011	53		 push	 ebx
  00012	56		 push	 esi
  00013	57		 push	 edi
  00014	a1 00 00 00 00	 mov	 eax, DWORD PTR ___security_cookie
  00019	33 c5		 xor	 eax, ebp
  0001b	50		 push	 eax
  0001c	8d 45 f4	 lea	 eax, DWORD PTR __$EHRec$[ebp]
  0001f	64 a3 00 00 00
	00		 mov	 DWORD PTR fs:0, eax
  00025	8b f1		 mov	 esi, ecx
  00027	8b 45 08	 mov	 eax, DWORD PTR ___flags$[ebp]
  0002a	8b f8		 mov	 edi, eax
  0002c	83 e7 01	 and	 edi, 1
  0002f	a8 02		 test	 al, 2
  00031	74 40		 je	 SHORT $LN2@vector
  00033	68 00 00 00 00	 push	 OFFSET ??1tls_base@i3@@UAE@XZ ; i3::tls_base::~tls_base
  00038	ff 76 fc	 push	 DWORD PTR [esi-4]
  0003b	8d 5e fc	 lea	 ebx, DWORD PTR [esi-4]
  0003e	6a 08		 push	 8
  00040	56		 push	 esi
  00041	e8 00 00 00 00	 call	 ??_M@YGXPAXIIP6EX0@Z@Z
  00046	85 ff		 test	 edi, edi
  00048	74 13		 je	 SHORT $LN3@vector
  0004a	8b 0b		 mov	 ecx, DWORD PTR [ebx]
  0004c	8d 0c cd 04 00
	00 00		 lea	 ecx, DWORD PTR [ecx*8+4]
  00053	51		 push	 ecx
  00054	53		 push	 ebx
  00055	e8 00 00 00 00	 call	 ??_V@YAXPAXI@Z		; operator delete[]
  0005a	83 c4 08	 add	 esp, 8
$LN3@vector:
  0005d	8b c3		 mov	 eax, ebx
  0005f	8b 4d f4	 mov	 ecx, DWORD PTR __$EHRec$[ebp]
  00062	64 89 0d 00 00
	00 00		 mov	 DWORD PTR fs:0, ecx
  00069	59		 pop	 ecx
  0006a	5f		 pop	 edi
  0006b	5e		 pop	 esi
  0006c	5b		 pop	 ebx
  0006d	8b e5		 mov	 esp, ebp
  0006f	5d		 pop	 ebp
  00070	c2 04 00	 ret	 4
$LN2@vector:
  00073	c7 06 00 00 00
	00		 mov	 DWORD PTR [esi], OFFSET ??_7tls_base@i3@@6B@
  00079	85 ff		 test	 edi, edi
  0007b	74 0b		 je	 SHORT $LN4@vector
  0007d	6a 08		 push	 8
  0007f	56		 push	 esi
  00080	e8 00 00 00 00	 call	 ??3@YAXPAXI@Z		; operator delete
  00085	83 c4 08	 add	 esp, 8
$LN4@vector:
  00088	8b c6		 mov	 eax, esi
  0008a	8b 4d f4	 mov	 ecx, DWORD PTR __$EHRec$[ebp]
  0008d	64 89 0d 00 00
	00 00		 mov	 DWORD PTR fs:0, ecx
  00094	59		 pop	 ecx
  00095	5f		 pop	 edi
  00096	5e		 pop	 esi
  00097	5b		 pop	 ebx
  00098	8b e5		 mov	 esp, ebp
  0009a	5d		 pop	 ebp
  0009b	c2 04 00	 ret	 4
  0009e	cc		 int	 3
  0009f	cc		 int	 3
  000a0	cc		 int	 3
  000a1	cc		 int	 3
  000a2	cc		 int	 3
_TEXT	ENDS
;	COMDAT text$x
text$x	SEGMENT
__ehhandler$??_Etls_base@i3@@UAEPAXI@Z:
  00000	90		 npad	 1
  00001	90		 npad	 1
  00002	8b 54 24 08	 mov	 edx, DWORD PTR [esp+8]
  00006	8d 42 0c	 lea	 eax, DWORD PTR [edx+12]
  00009	8b 4a f0	 mov	 ecx, DWORD PTR [edx-16]
  0000c	33 c8		 xor	 ecx, eax
  0000e	e8 00 00 00 00	 call	 @__security_check_cookie@4
  00013	b8 00 00 00 00	 mov	 eax, OFFSET __ehfuncinfo$??_Etls_base@i3@@UAEPAXI@Z
  00018	e9 00 00 00 00	 jmp	 ___CxxFrameHandler3
text$x	ENDS
??_Etls_base@i3@@UAEPAXI@Z ENDP				; i3::tls_base::`vector deleting destructor'
; Function compile flags: /Ogtp
;	COMDAT ??_Gtls_base@i3@@UAEPAXI@Z
_TEXT	SEGMENT
___flags$ = 8						; size = 4
??_Gtls_base@i3@@UAEPAXI@Z PROC				; i3::tls_base::`scalar deleting destructor', COMDAT
; _this$ = ecx
  00000	55		 push	 ebp
  00001	8b ec		 mov	 ebp, esp
  00003	f6 45 08 01	 test	 BYTE PTR ___flags$[ebp], 1
  00007	56		 push	 esi
  00008	8b f1		 mov	 esi, ecx
  0000a	c7 06 00 00 00
	00		 mov	 DWORD PTR [esi], OFFSET ??_7tls_base@i3@@6B@
  00010	74 0b		 je	 SHORT $LN5@scalar
  00012	6a 08		 push	 8
  00014	56		 push	 esi
  00015	e8 00 00 00 00	 call	 ??3@YAXPAXI@Z		; operator delete
  0001a	83 c4 08	 add	 esp, 8
$LN5@scalar:
  0001d	8b c6		 mov	 eax, esi
  0001f	5e		 pop	 esi
  00020	5d		 pop	 ebp
  00021	c2 04 00	 ret	 4
??_Gtls_base@i3@@UAEPAXI@Z ENDP				; i3::tls_base::`scalar deleting destructor'
_TEXT	ENDS
; Function compile flags: /Ogtp
; File E:\Proyectos\JuegosOnlineproyectos\PB\pbblow\Piercing Blow Remake\i3Server\include\i3Base\tls\detail\tls_base.h
;	COMDAT ?slot_idx@tls_base@i3@@IBEIXZ
_TEXT	SEGMENT
?slot_idx@tls_base@i3@@IBEIXZ PROC			; i3::tls_base::slot_idx, COMDAT
; _this$ = ecx

; 51   : 		size_t				slot_idx() const { return m_slotidx; }

  00000	8b 41 04	 mov	 eax, DWORD PTR [ecx+4]
  00003	c3		 ret	 0
?slot_idx@tls_base@i3@@IBEIXZ ENDP			; i3::tls_base::slot_idx
_TEXT	ENDS
; Function compile flags: /Ogtp
; File E:\Proyectos\JuegosOnlineproyectos\PB\pbblow\Piercing Blow Remake\i3Server\include\i3Base\tls\detail\tls_base.h
; File E:\Proyectos\JuegosOnlineproyectos\PB\pbblow\Piercing Blow Remake\i3Server\include\i3Base\itl\detail\vector.h
; File E:\Proyectos\JuegosOnlineproyectos\PB\pbblow\Piercing Blow Remake\i3Server\include\i3Base\tls\detail\tls_base.h
;	COMDAT ?get_raw_by_thread_id@tls_base@i3@@IBEPAXK@Z
_TEXT	SEGMENT
_hthread$ = 8						; size = 4
?get_raw_by_thread_id@tls_base@i3@@IBEPAXK@Z PROC	; i3::tls_base::get_raw_by_thread_id, COMDAT
; _this$ = ecx

; 85   : 	{

  00000	55		 push	 ebp
  00001	8b ec		 mov	 ebp, esp

; 87   : 		return td->get_raw_value(m_slotidx);

  00003	8b 55 08	 mov	 edx, DWORD PTR _hthread$[ebp]
  00006	a1 18 00 00 00	 mov	 eax, DWORD PTR ?g_TlsManager@detail_tls@i3@@3Vtls_mgr@12@A+24
; File E:\Proyectos\JuegosOnlineproyectos\PB\pbblow\Piercing Blow Remake\i3Server\include\i3Base\itl\detail\vector.h

; 160  : 		const_reference operator[](size_type Pos) const	{	return (*(m_first + Pos));	}

  0000b	8b 49 04	 mov	 ecx, DWORD PTR [ecx+4]
; File E:\Proyectos\JuegosOnlineproyectos\PB\pbblow\Piercing Blow Remake\i3Server\include\i3Base\tls\detail\tls_base.h

; 87   : 		return td->get_raw_value(m_slotidx);

  0000e	8b 04 90	 mov	 eax, DWORD PTR [eax+edx*4]
  00011	8b 40 14	 mov	 eax, DWORD PTR [eax+20]
  00014	8b 04 88	 mov	 eax, DWORD PTR [eax+ecx*4]

; 88   : 	}

  00017	5d		 pop	 ebp
  00018	c2 04 00	 ret	 4
?get_raw_by_thread_id@tls_base@i3@@IBEPAXK@Z ENDP	; i3::tls_base::get_raw_by_thread_id
_TEXT	ENDS
; Function compile flags: /Ogtp
; File E:\Proyectos\JuegosOnlineproyectos\PB\pbblow\Piercing Blow Remake\i3Server\include\i3Base\tls\detail\tls_base.h
; File E:\Proyectos\JuegosOnlineproyectos\PB\pbblow\Piercing Blow Remake\i3Server\include\i3Base\tls\detail\tls_mgr.inl
; File E:\Proyectos\JuegosOnlineproyectos\PB\pbblow\Piercing Blow Remake\i3Server\include\i3Base\tls\detail\tls_base.h
; File E:\Proyectos\JuegosOnlineproyectos\PB\pbblow\Piercing Blow Remake\i3Server\include\i3Base\tls\detail\tls_mgr.inl
; File E:\Proyectos\JuegosOnlineproyectos\PB\pbblow\Piercing Blow Remake\i3Server\include\i3Base\itl\detail\vector.h
; File E:\Proyectos\JuegosOnlineproyectos\PB\pbblow\Piercing Blow Remake\i3Server\include\i3Base\tls\detail\tls_base.h
;	COMDAT ?get_raw@tls_base@i3@@IBEPAXXZ
_TEXT	SEGMENT
?get_raw@tls_base@i3@@IBEPAXXZ PROC			; i3::tls_base::get_raw, COMDAT
; _this$ = ecx

; 80   : 	{

  00000	56		 push	 esi
; File E:\Proyectos\JuegosOnlineproyectos\PB\pbblow\Piercing Blow Remake\i3Server\include\i3Base\tls\detail\tls_mgr.inl

; 180  : 			return reinterpret_cast<thread_data*>(::TlsGetValue(m_dwTlsIdx));

  00001	ff 35 00 00 00
	00		 push	 DWORD PTR ?g_TlsManager@detail_tls@i3@@3Vtls_mgr@12@A
; File E:\Proyectos\JuegosOnlineproyectos\PB\pbblow\Piercing Blow Remake\i3Server\include\i3Base\tls\detail\tls_base.h

; 80   : 	{

  00007	8b f1		 mov	 esi, ecx
; File E:\Proyectos\JuegosOnlineproyectos\PB\pbblow\Piercing Blow Remake\i3Server\include\i3Base\tls\detail\tls_mgr.inl

; 180  : 			return reinterpret_cast<thread_data*>(::TlsGetValue(m_dwTlsIdx));

  00009	ff 15 00 00 00
	00		 call	 DWORD PTR __imp__TlsGetValue@4
; File E:\Proyectos\JuegosOnlineproyectos\PB\pbblow\Piercing Blow Remake\i3Server\include\i3Base\itl\detail\vector.h

; 160  : 		const_reference operator[](size_type Pos) const	{	return (*(m_first + Pos));	}

  0000f	8b 4e 04	 mov	 ecx, DWORD PTR [esi+4]
; File E:\Proyectos\JuegosOnlineproyectos\PB\pbblow\Piercing Blow Remake\i3Server\include\i3Base\tls\detail\tls_base.h

; 82   : 		return td->get_raw_value(m_slotidx);

  00012	5e		 pop	 esi
  00013	8b 40 14	 mov	 eax, DWORD PTR [eax+20]
  00016	8b 04 88	 mov	 eax, DWORD PTR [eax+ecx*4]

; 83   : 	}

  00019	c3		 ret	 0
?get_raw@tls_base@i3@@IBEPAXXZ ENDP			; i3::tls_base::get_raw
_TEXT	ENDS
; Function compile flags: /Ogtp
; File E:\Proyectos\JuegosOnlineproyectos\PB\pbblow\Piercing Blow Remake\i3Server\include\i3Base\tls\detail\tls_base.h
; File E:\Proyectos\JuegosOnlineproyectos\PB\pbblow\Piercing Blow Remake\i3Server\include\i3Base\tls\detail\tls_mgr.h
; File E:\Proyectos\JuegosOnlineproyectos\PB\pbblow\Piercing Blow Remake\i3Server\include\i3Base\itl\detail\vector.h
; File E:\Proyectos\JuegosOnlineproyectos\PB\pbblow\Piercing Blow Remake\i3Server\include\i3Base\tls\detail\tls_mgr.h
; File E:\Proyectos\JuegosOnlineproyectos\PB\pbblow\Piercing Blow Remake\i3Server\include\i3Base\tls\detail\tls_base.h
;	COMDAT ?get_by_thread_id@tls_base@i3@@IBEPAXK@Z
_TEXT	SEGMENT
_hthread$ = 8						; size = 4
?get_by_thread_id@tls_base@i3@@IBEPAXK@Z PROC		; i3::tls_base::get_by_thread_id, COMDAT
; _this$ = ecx

; 74   : 	{ 

  00000	55		 push	 ebp
  00001	8b ec		 mov	 ebp, esp

; 75   : 		detail_tls::thread_data* td = detail_tls::get_thread_data(hthread);

  00003	a1 18 00 00 00	 mov	 eax, DWORD PTR ?g_TlsManager@detail_tls@i3@@3Vtls_mgr@12@A+24
  00008	8b 55 08	 mov	 edx, DWORD PTR _hthread$[ebp]
  0000b	56		 push	 esi
  0000c	8b 34 90	 mov	 esi, DWORD PTR [eax+edx*4]

; 76   : 		return td->get_value(this, m_slotidx);

  0000f	8b 51 04	 mov	 edx, DWORD PTR [ecx+4]
; File E:\Proyectos\JuegosOnlineproyectos\PB\pbblow\Piercing Blow Remake\i3Server\include\i3Base\tls\detail\tls_mgr.h

; 43   : 			void*				get_value(const tls_base* t, size_t slot) const { return (*this->fn_list[slot])( t, this, slot); }

  00012	52		 push	 edx
  00013	56		 push	 esi
; File E:\Proyectos\JuegosOnlineproyectos\PB\pbblow\Piercing Blow Remake\i3Server\include\i3Base\itl\detail\vector.h

; 160  : 		const_reference operator[](size_type Pos) const	{	return (*(m_first + Pos));	}

  00014	8b 46 04	 mov	 eax, DWORD PTR [esi+4]
; File E:\Proyectos\JuegosOnlineproyectos\PB\pbblow\Piercing Blow Remake\i3Server\include\i3Base\tls\detail\tls_mgr.h

; 43   : 			void*				get_value(const tls_base* t, size_t slot) const { return (*this->fn_list[slot])( t, this, slot); }

  00017	51		 push	 ecx
  00018	8b 04 90	 mov	 eax, DWORD PTR [eax+edx*4]
  0001b	ff d0		 call	 eax
  0001d	83 c4 0c	 add	 esp, 12			; 0000000cH
; File E:\Proyectos\JuegosOnlineproyectos\PB\pbblow\Piercing Blow Remake\i3Server\include\i3Base\tls\detail\tls_base.h

; 76   : 		return td->get_value(this, m_slotidx);

  00020	5e		 pop	 esi

; 77   : 	}

  00021	5d		 pop	 ebp
  00022	c2 04 00	 ret	 4
?get_by_thread_id@tls_base@i3@@IBEPAXK@Z ENDP		; i3::tls_base::get_by_thread_id
_TEXT	ENDS
; Function compile flags: /Ogtp
; File E:\Proyectos\JuegosOnlineproyectos\PB\pbblow\Piercing Blow Remake\i3Server\include\i3Base\tls\detail\tls_base.h
; File E:\Proyectos\JuegosOnlineproyectos\PB\pbblow\Piercing Blow Remake\i3Server\include\i3Base\tls\detail\tls_mgr.inl
; File E:\Proyectos\JuegosOnlineproyectos\PB\pbblow\Piercing Blow Remake\i3Server\include\i3Base\tls\detail\tls_base.h
; File E:\Proyectos\JuegosOnlineproyectos\PB\pbblow\Piercing Blow Remake\i3Server\include\i3Base\tls\detail\tls_mgr.inl
; File E:\Proyectos\JuegosOnlineproyectos\PB\pbblow\Piercing Blow Remake\i3Server\include\i3Base\tls\detail\tls_base.h
; File E:\Proyectos\JuegosOnlineproyectos\PB\pbblow\Piercing Blow Remake\i3Server\include\i3Base\tls\detail\tls_mgr.h
; File E:\Proyectos\JuegosOnlineproyectos\PB\pbblow\Piercing Blow Remake\i3Server\include\i3Base\itl\detail\vector.h
; File E:\Proyectos\JuegosOnlineproyectos\PB\pbblow\Piercing Blow Remake\i3Server\include\i3Base\tls\detail\tls_mgr.h
; File E:\Proyectos\JuegosOnlineproyectos\PB\pbblow\Piercing Blow Remake\i3Server\include\i3Base\tls\detail\tls_base.h
;	COMDAT ?get@tls_base@i3@@IBEPAXXZ
_TEXT	SEGMENT
?get@tls_base@i3@@IBEPAXXZ PROC				; i3::tls_base::get, COMDAT
; _this$ = ecx

; 68   : 	{  

  00000	56		 push	 esi
  00001	57		 push	 edi
; File E:\Proyectos\JuegosOnlineproyectos\PB\pbblow\Piercing Blow Remake\i3Server\include\i3Base\tls\detail\tls_mgr.inl

; 180  : 			return reinterpret_cast<thread_data*>(::TlsGetValue(m_dwTlsIdx));

  00002	ff 35 00 00 00
	00		 push	 DWORD PTR ?g_TlsManager@detail_tls@i3@@3Vtls_mgr@12@A
; File E:\Proyectos\JuegosOnlineproyectos\PB\pbblow\Piercing Blow Remake\i3Server\include\i3Base\tls\detail\tls_base.h

; 68   : 	{  

  00008	8b f9		 mov	 edi, ecx
; File E:\Proyectos\JuegosOnlineproyectos\PB\pbblow\Piercing Blow Remake\i3Server\include\i3Base\tls\detail\tls_mgr.inl

; 180  : 			return reinterpret_cast<thread_data*>(::TlsGetValue(m_dwTlsIdx));

  0000a	ff 15 00 00 00
	00		 call	 DWORD PTR __imp__TlsGetValue@4
; File E:\Proyectos\JuegosOnlineproyectos\PB\pbblow\Piercing Blow Remake\i3Server\include\i3Base\tls\detail\tls_base.h

; 70   : 		return td->get_value(this, m_slotidx);

  00010	8b 77 04	 mov	 esi, DWORD PTR [edi+4]
; File E:\Proyectos\JuegosOnlineproyectos\PB\pbblow\Piercing Blow Remake\i3Server\include\i3Base\tls\detail\tls_mgr.h

; 43   : 			void*				get_value(const tls_base* t, size_t slot) const { return (*this->fn_list[slot])( t, this, slot); }

  00013	56		 push	 esi
  00014	50		 push	 eax
; File E:\Proyectos\JuegosOnlineproyectos\PB\pbblow\Piercing Blow Remake\i3Server\include\i3Base\itl\detail\vector.h

; 160  : 		const_reference operator[](size_type Pos) const	{	return (*(m_first + Pos));	}

  00015	8b 50 04	 mov	 edx, DWORD PTR [eax+4]
; File E:\Proyectos\JuegosOnlineproyectos\PB\pbblow\Piercing Blow Remake\i3Server\include\i3Base\tls\detail\tls_mgr.h

; 43   : 			void*				get_value(const tls_base* t, size_t slot) const { return (*this->fn_list[slot])( t, this, slot); }

  00018	57		 push	 edi
  00019	8b 04 b2	 mov	 eax, DWORD PTR [edx+esi*4]
  0001c	ff d0		 call	 eax
  0001e	83 c4 0c	 add	 esp, 12			; 0000000cH
; File E:\Proyectos\JuegosOnlineproyectos\PB\pbblow\Piercing Blow Remake\i3Server\include\i3Base\tls\detail\tls_base.h

; 70   : 		return td->get_value(this, m_slotidx);

  00021	5f		 pop	 edi
  00022	5e		 pop	 esi

; 71   : 	}

  00023	c3		 ret	 0
?get@tls_base@i3@@IBEPAXXZ ENDP				; i3::tls_base::get
_TEXT	ENDS
; Function compile flags: /Ogtp
; File E:\Proyectos\JuegosOnlineproyectos\PB\pbblow\Piercing Blow Remake\i3Server\include\i3Base\tls\detail\tls_base.h
; File E:\Proyectos\JuegosOnlineproyectos\PB\pbblow\Piercing Blow Remake\i3Server\include\i3Base\itl\detail\vector.h
; File E:\Proyectos\JuegosOnlineproyectos\PB\pbblow\Piercing Blow Remake\i3Server\include\i3Base\tls\detail\tls_base.h
; File E:\Proyectos\JuegosOnlineproyectos\PB\pbblow\Piercing Blow Remake\i3Server\include\i3Base\itl\detail\vector.h
; File E:\Proyectos\JuegosOnlineproyectos\PB\pbblow\Piercing Blow Remake\i3Server\include\i3Base\tls\detail\tls_base.h
; File E:\Proyectos\JuegosOnlineproyectos\PB\pbblow\Piercing Blow Remake\i3Server\include\i3Base\itl\detail\vector.h
; File E:\Proyectos\JuegosOnlineproyectos\PB\pbblow\Piercing Blow Remake\i3Server\include\i3Base\tls\detail\tls_base.h
; File E:\Proyectos\JuegosOnlineproyectos\PB\pbblow\Piercing Blow Remake\i3Server\include\i3Base\itl\detail\vector.h
; File E:\Proyectos\JuegosOnlineproyectos\PB\pbblow\Piercing Blow Remake\i3Server\include\i3Base\tls\detail\tls_base.h
;	COMDAT ??0tls_base@i3@@IAE@XZ
_TEXT	SEGMENT
_tls$ = -4						; size = 4
??0tls_base@i3@@IAE@XZ PROC				; i3::tls_base::tls_base, COMDAT
; _this$ = ecx

; 61   : 	{

  00000	55		 push	 ebp
  00001	8b ec		 mov	 ebp, esp
  00003	51		 push	 ecx
  00004	56		 push	 esi
  00005	8b f1		 mov	 esi, ecx
  00007	57		 push	 edi

; 62   : 		detail_tls::g_TlsManager.PushBackTls(this);

  00008	89 75 fc	 mov	 DWORD PTR _tls$[ebp], esi
  0000b	c7 06 00 00 00
	00		 mov	 DWORD PTR [esi], OFFSET ??_7tls_base@i3@@6B@
; File E:\Proyectos\JuegosOnlineproyectos\PB\pbblow\Piercing Blow Remake\i3Server\include\i3Base\itl\detail\vector.h

; 153  : 		size_type		size() const	{ return m_last - m_first; }

  00011	a1 0c 00 00 00	 mov	 eax, DWORD PTR ?g_TlsManager@detail_tls@i3@@3Vtls_mgr@12@A+12
  00016	2b 05 08 00 00
	00		 sub	 eax, DWORD PTR ?g_TlsManager@detail_tls@i3@@3Vtls_mgr@12@A+8
  0001c	c1 f8 02	 sar	 eax, 2
; File E:\Proyectos\JuegosOnlineproyectos\PB\pbblow\Piercing Blow Remake\i3Server\include\i3Base\tls\detail\tls_base.h

; 60   : 	inline tls_base::tls_base() : m_slotidx( get_num_tls_ptr() )	// ¸ŢŔÎľ˛·ąµĺżˇĽ­¸¸ Ăł¸®ÇĎµµ·Ď...

  0001f	89 46 04	 mov	 DWORD PTR [esi+4], eax
; File E:\Proyectos\JuegosOnlineproyectos\PB\pbblow\Piercing Blow Remake\i3Server\include\i3Base\itl\detail\vector.h

; 153  : 		size_type		size() const	{ return m_last - m_first; }

  00022	8b 3d 0c 00 00
	00		 mov	 edi, DWORD PTR ?g_TlsManager@detail_tls@i3@@3Vtls_mgr@12@A+12
  00028	8b cf		 mov	 ecx, edi

; 132  : 		size_type		capacity() const { return m_end - m_first; }

  0002a	a1 10 00 00 00	 mov	 eax, DWORD PTR ?g_TlsManager@detail_tls@i3@@3Vtls_mgr@12@A+16

; 153  : 		size_type		size() const	{ return m_last - m_first; }

  0002f	2b 0d 08 00 00
	00		 sub	 ecx, DWORD PTR ?g_TlsManager@detail_tls@i3@@3Vtls_mgr@12@A+8

; 132  : 		size_type		capacity() const { return m_end - m_first; }

  00035	2b 05 08 00 00
	00		 sub	 eax, DWORD PTR ?g_TlsManager@detail_tls@i3@@3Vtls_mgr@12@A+8

; 153  : 		size_type		size() const	{ return m_last - m_first; }

  0003b	c1 f9 02	 sar	 ecx, 2

; 132  : 		size_type		capacity() const { return m_end - m_first; }

  0003e	c1 f8 02	 sar	 eax, 2

; 170  : 			if ( size() < capacity() )

  00041	3b c8		 cmp	 ecx, eax
  00043	73 11		 jae	 SHORT $LN12@tls_base

; 171  : 			{
; 172  : 				i3::uninitialized_fill_1(m_last, Val, allocator_base::get() );		//	i3::uninitialized_fill_1( m_last, Val, m_alloc);

  00045	89 37		 mov	 DWORD PTR [edi], esi
; File E:\Proyectos\JuegosOnlineproyectos\PB\pbblow\Piercing Blow Remake\i3Server\include\i3Base\tls\detail\tls_base.h

; 63   : 	}

  00047	8b c6		 mov	 eax, esi
; File E:\Proyectos\JuegosOnlineproyectos\PB\pbblow\Piercing Blow Remake\i3Server\include\i3Base\itl\detail\vector.h

; 173  : 				++m_last;

  00049	83 05 0c 00 00
	00 04		 add	 DWORD PTR ?g_TlsManager@detail_tls@i3@@3Vtls_mgr@12@A+12, 4
  00050	5f		 pop	 edi
; File E:\Proyectos\JuegosOnlineproyectos\PB\pbblow\Piercing Blow Remake\i3Server\include\i3Base\tls\detail\tls_base.h

; 63   : 	}

  00051	5e		 pop	 esi
  00052	8b e5		 mov	 esp, ebp
  00054	5d		 pop	 ebp
  00055	c3		 ret	 0
$LN12@tls_base:
; File E:\Proyectos\JuegosOnlineproyectos\PB\pbblow\Piercing Blow Remake\i3Server\include\i3Base\itl\detail\vector.h

; 176  : 				insert_1(end(), Val);

  00056	8d 45 fc	 lea	 eax, DWORD PTR _tls$[ebp]
  00059	b9 04 00 00 00	 mov	 ecx, OFFSET ?g_TlsManager@detail_tls@i3@@3Vtls_mgr@12@A+4
  0005e	50		 push	 eax
  0005f	57		 push	 edi
  00060	e8 00 00 00 00	 call	 ?insert_1@?$vector@PAVtls_base@i3@@V?$heap_allocator@PAVtls_base@i3@@@2@@i3@@AAEXPBQAVtls_base@2@ABQAV32@@Z ; i3::vector<i3::tls_base *,i3::heap_allocator<i3::tls_base *> >::insert_1
  00065	5f		 pop	 edi
; File E:\Proyectos\JuegosOnlineproyectos\PB\pbblow\Piercing Blow Remake\i3Server\include\i3Base\tls\detail\tls_base.h

; 63   : 	}

  00066	8b c6		 mov	 eax, esi
  00068	5e		 pop	 esi
  00069	8b e5		 mov	 esp, ebp
  0006b	5d		 pop	 ebp
  0006c	c3		 ret	 0
??0tls_base@i3@@IAE@XZ ENDP				; i3::tls_base::tls_base
_TEXT	ENDS
; Function compile flags: /Ogtp
; File E:\Proyectos\JuegosOnlineproyectos\PB\pbblow\Piercing Blow Remake\i3Server\include\i3Base\tls\detail\tls_base.h
;	COMDAT ??1tls_base@i3@@UAE@XZ
_TEXT	SEGMENT
??1tls_base@i3@@UAE@XZ PROC				; i3::tls_base::~tls_base, COMDAT
; _this$ = ecx

; 65   : 	__forceinline tls_base::~tls_base() {}

  00000	c7 01 00 00 00
	00		 mov	 DWORD PTR [ecx], OFFSET ??_7tls_base@i3@@6B@
  00006	c3		 ret	 0
??1tls_base@i3@@UAE@XZ ENDP				; i3::tls_base::~tls_base
_TEXT	ENDS
; Function compile flags: /Ogtp
; File E:\Proyectos\JuegosOnlineproyectos\PB\pbblow\Piercing Blow Remake\i3Server\include\i3Base\tls\detail\tls_mgr.inl
; File E:\Proyectos\JuegosOnlineproyectos\PB\pbblow\Piercing Blow Remake\i3Server\include\i3Base\memory\memory_alloc.inl
; File E:\Proyectos\JuegosOnlineproyectos\PB\pbblow\Piercing Blow Remake\i3Server\include\i3Base\memory\memory_aligned_apply.h
; File E:\Proyectos\JuegosOnlineproyectos\PB\pbblow\Piercing Blow Remake\i3Server\include\i3Base\memory\memory_alloc.inl
; File E:\Proyectos\JuegosOnlineproyectos\PB\pbblow\Piercing Blow Remake\i3Server\include\i3Base\tls\detail\tls_mgr.inl
;	COMDAT ?tls_safe_aligned_free@i3@@YAXKPAX@Z
_TEXT	SEGMENT
_hThread$ = 8						; size = 4
_ptr$ = 12						; size = 4
?tls_safe_aligned_free@i3@@YAXKPAX@Z PROC		; i3::tls_safe_aligned_free, COMDAT

; 114  : 	{

  00000	55		 push	 ebp
  00001	8b ec		 mov	 ebp, esp
; File E:\Proyectos\JuegosOnlineproyectos\PB\pbblow\Piercing Blow Remake\i3Server\include\i3Base\memory\memory_alloc.inl

; 108  : 		if (!data) return;

  00003	8b 45 0c	 mov	 eax, DWORD PTR _ptr$[ebp]
  00006	85 c0		 test	 eax, eax
  00008	74 1c		 je	 SHORT $LN11@tls_safe_a

; 109  : 		::HeapFree(HANDLE(h), 0, get_raw_data_from_aligned_malloc(data) );

  0000a	8b 4d 08	 mov	 ecx, DWORD PTR _hThread$[ebp]
; File E:\Proyectos\JuegosOnlineproyectos\PB\pbblow\Piercing Blow Remake\i3Server\include\i3Base\memory\memory_aligned_apply.h

; 33   : 		ptr = ( ptr & ~( sizeof(void*) -1 ) ) - sizeof(void*);

  0000d	83 e0 fc	 and	 eax, -4			; fffffffcH
; File E:\Proyectos\JuegosOnlineproyectos\PB\pbblow\Piercing Blow Remake\i3Server\include\i3Base\memory\memory_alloc.inl

; 109  : 		::HeapFree(HANDLE(h), 0, get_raw_data_from_aligned_malloc(data) );

  00010	ff 70 fc	 push	 DWORD PTR [eax-4]
  00013	a1 18 00 00 00	 mov	 eax, DWORD PTR ?g_TlsManager@detail_tls@i3@@3Vtls_mgr@12@A+24
  00018	6a 00		 push	 0
  0001a	8b 04 88	 mov	 eax, DWORD PTR [eax+ecx*4]
  0001d	ff 70 24	 push	 DWORD PTR [eax+36]
  00020	ff 15 00 00 00
	00		 call	 DWORD PTR __imp__HeapFree@12
$LN11@tls_safe_a:
; File E:\Proyectos\JuegosOnlineproyectos\PB\pbblow\Piercing Blow Remake\i3Server\include\i3Base\tls\detail\tls_mgr.inl

; 116  : 	}

  00026	5d		 pop	 ebp
  00027	c3		 ret	 0
?tls_safe_aligned_free@i3@@YAXKPAX@Z ENDP		; i3::tls_safe_aligned_free
_TEXT	ENDS
; Function compile flags: /Ogtp
; File E:\Proyectos\JuegosOnlineproyectos\PB\pbblow\Piercing Blow Remake\i3Server\include\i3Base\tls\detail\tls_mgr.inl
; File E:\Proyectos\JuegosOnlineproyectos\PB\pbblow\Piercing Blow Remake\i3Server\include\i3Base\memory\calculate_adjusted_align.h
; File E:\Proyectos\JuegosOnlineproyectos\PB\pbblow\Piercing Blow Remake\i3Server\include\i3Base\tls\detail\tls_mgr.inl
; File E:\Proyectos\JuegosOnlineproyectos\PB\pbblow\Piercing Blow Remake\i3Server\include\i3Base\memory\calculate_adjusted_align.h
; File E:\Proyectos\JuegosOnlineproyectos\PB\pbblow\Piercing Blow Remake\i3Server\include\i3Base\tls\detail\tls_mgr.inl
; File E:\Proyectos\JuegosOnlineproyectos\PB\pbblow\Piercing Blow Remake\i3Server\include\i3Base\memory\memory_aligned_apply.h
; File E:\Proyectos\JuegosOnlineproyectos\PB\pbblow\Piercing Blow Remake\i3Server\include\i3Base\memory\memory_alloc.inl
; File E:\Proyectos\JuegosOnlineproyectos\PB\pbblow\Piercing Blow Remake\i3Server\include\i3Base\memory\memory_aligned_apply.h
; File E:\Proyectos\JuegosOnlineproyectos\PB\pbblow\Piercing Blow Remake\i3Server\include\i3Base\tls\detail\tls_mgr.inl
; File E:\Proyectos\JuegosOnlineproyectos\PB\pbblow\Piercing Blow Remake\i3Server\include\i3Base\memory\memory_aligned_apply.h
; File E:\Proyectos\JuegosOnlineproyectos\PB\pbblow\Piercing Blow Remake\i3Server\include\i3Base\tls\detail\tls_mgr.inl
;	COMDAT ?tls_safe_aligned_malloc@i3@@YAPAXKII@Z
_TEXT	SEGMENT
_hThread$ = 8						; size = 4
_n$ = 12						; size = 4
_align$ = 16						; size = 4
?tls_safe_aligned_malloc@i3@@YAPAXKII@Z PROC		; i3::tls_safe_aligned_malloc, COMDAT

; 109  : 	{

  00000	55		 push	 ebp
  00001	8b ec		 mov	 ebp, esp

; 151  : 		void*		thread_data::tls_safe_aligned_malloc(size_t n, size_t align) const { return i3::heap_aligned_malloc(this->safe_heap, n, align); }

  00003	8b 4d 08	 mov	 ecx, DWORD PTR _hThread$[ebp]
  00006	a1 18 00 00 00	 mov	 eax, DWORD PTR ?g_TlsManager@detail_tls@i3@@3Vtls_mgr@12@A+24

; 109  : 	{

  0000b	56		 push	 esi
; File E:\Proyectos\JuegosOnlineproyectos\PB\pbblow\Piercing Blow Remake\i3Server\include\i3Base\memory\calculate_adjusted_align.h

; 13   : 	size_t  calculate_adjusted_align( size_t align) {	return ( align > sizeof(void*) ) ? align : sizeof(void*); }

  0000c	be 04 00 00 00	 mov	 esi, 4
  00011	39 75 10	 cmp	 DWORD PTR _align$[ebp], esi
; File E:\Proyectos\JuegosOnlineproyectos\PB\pbblow\Piercing Blow Remake\i3Server\include\i3Base\tls\detail\tls_mgr.inl

; 151  : 		void*		thread_data::tls_safe_aligned_malloc(size_t n, size_t align) const { return i3::heap_aligned_malloc(this->safe_heap, n, align); }

  00014	8b 04 88	 mov	 eax, DWORD PTR [eax+ecx*4]
; File E:\Proyectos\JuegosOnlineproyectos\PB\pbblow\Piercing Blow Remake\i3Server\include\i3Base\memory\calculate_adjusted_align.h

; 13   : 	size_t  calculate_adjusted_align( size_t align) {	return ( align > sizeof(void*) ) ? align : sizeof(void*); }

  00017	0f 47 75 10	 cmova	 esi, DWORD PTR _align$[ebp]
; File E:\Proyectos\JuegosOnlineproyectos\PB\pbblow\Piercing Blow Remake\i3Server\include\i3Base\tls\detail\tls_mgr.inl

; 151  : 		void*		thread_data::tls_safe_aligned_malloc(size_t n, size_t align) const { return i3::heap_aligned_malloc(this->safe_heap, n, align); }

  0001b	8b 48 24	 mov	 ecx, DWORD PTR [eax+36]
; File E:\Proyectos\JuegosOnlineproyectos\PB\pbblow\Piercing Blow Remake\i3Server\include\i3Base\memory\memory_aligned_apply.h

; 19   : 	size_t	calculate_aligned_malloc_size(size_t size, size_t adjusted_align) { return sizeof(void*) + size + adjusted_align;  }

  0001e	8b 45 0c	 mov	 eax, DWORD PTR _n$[ebp]
  00021	83 c0 04	 add	 eax, 4
  00024	03 c6		 add	 eax, esi
; File E:\Proyectos\JuegosOnlineproyectos\PB\pbblow\Piercing Blow Remake\i3Server\include\i3Base\memory\memory_alloc.inl

; 101  : 		void* data = ::HeapAlloc(HANDLE(h), 0, calculate_aligned_malloc_size(size, align) );

  00026	50		 push	 eax
  00027	6a 00		 push	 0
  00029	51		 push	 ecx
  0002a	ff 15 00 00 00
	00		 call	 DWORD PTR __imp__HeapAlloc@12
; File E:\Proyectos\JuegosOnlineproyectos\PB\pbblow\Piercing Blow Remake\i3Server\include\i3Base\memory\memory_aligned_apply.h

; 24   : 		uintptr_t result = ( uintptr_t(raw_data) + sizeof(void*) + adjusted_align - 1 ) & ~(adjusted_align - 1);

  00030	8d 4e 03	 lea	 ecx, DWORD PTR [esi+3]
  00033	f7 de		 neg	 esi
  00035	03 c8		 add	 ecx, eax
  00037	23 ce		 and	 ecx, esi
; File E:\Proyectos\JuegosOnlineproyectos\PB\pbblow\Piercing Blow Remake\i3Server\include\i3Base\tls\detail\tls_mgr.inl

; 110  : 		return detail_tls::get_thread_data(hThread)->tls_safe_aligned_malloc(n, align);

  00039	5e		 pop	 esi
; File E:\Proyectos\JuegosOnlineproyectos\PB\pbblow\Piercing Blow Remake\i3Server\include\i3Base\memory\memory_aligned_apply.h

; 25   : 		((uintptr_t*)result)[-1] = (uintptr_t)raw_data;

  0003a	89 41 fc	 mov	 DWORD PTR [ecx-4], eax
; File E:\Proyectos\JuegosOnlineproyectos\PB\pbblow\Piercing Blow Remake\i3Server\include\i3Base\tls\detail\tls_mgr.inl

; 110  : 		return detail_tls::get_thread_data(hThread)->tls_safe_aligned_malloc(n, align);

  0003d	8b c1		 mov	 eax, ecx

; 111  : 	}

  0003f	5d		 pop	 ebp
  00040	c3		 ret	 0
?tls_safe_aligned_malloc@i3@@YAPAXKII@Z ENDP		; i3::tls_safe_aligned_malloc
_TEXT	ENDS
; Function compile flags: /Ogtp
; File E:\Proyectos\JuegosOnlineproyectos\PB\pbblow\Piercing Blow Remake\i3Server\include\i3Base\tls\detail\tls_mgr.inl
; File E:\Proyectos\JuegosOnlineproyectos\PB\pbblow\Piercing Blow Remake\i3Server\include\i3Base\memory\memory_alloc.inl
; File E:\Proyectos\JuegosOnlineproyectos\PB\pbblow\Piercing Blow Remake\i3Server\include\i3Base\memory\memory_aligned_apply.h
; File E:\Proyectos\JuegosOnlineproyectos\PB\pbblow\Piercing Blow Remake\i3Server\include\i3Base\memory\memory_alloc.inl
; File E:\Proyectos\JuegosOnlineproyectos\PB\pbblow\Piercing Blow Remake\i3Server\include\i3Base\tls\detail\tls_mgr.inl
;	COMDAT ?tls_safe_aligned_free@i3@@YAXPAX@Z
_TEXT	SEGMENT
_ptr$ = 8						; size = 4
?tls_safe_aligned_free@i3@@YAXPAX@Z PROC		; i3::tls_safe_aligned_free, COMDAT

; 104  : 	{

  00000	55		 push	 ebp
  00001	8b ec		 mov	 ebp, esp

; 180  : 			return reinterpret_cast<thread_data*>(::TlsGetValue(m_dwTlsIdx));

  00003	ff 35 00 00 00
	00		 push	 DWORD PTR ?g_TlsManager@detail_tls@i3@@3Vtls_mgr@12@A
  00009	ff 15 00 00 00
	00		 call	 DWORD PTR __imp__TlsGetValue@4
; File E:\Proyectos\JuegosOnlineproyectos\PB\pbblow\Piercing Blow Remake\i3Server\include\i3Base\memory\memory_alloc.inl

; 108  : 		if (!data) return;

  0000f	8b 4d 08	 mov	 ecx, DWORD PTR _ptr$[ebp]
  00012	85 c9		 test	 ecx, ecx
  00014	74 11		 je	 SHORT $LN9@tls_safe_a
; File E:\Proyectos\JuegosOnlineproyectos\PB\pbblow\Piercing Blow Remake\i3Server\include\i3Base\memory\memory_aligned_apply.h

; 33   : 		ptr = ( ptr & ~( sizeof(void*) -1 ) ) - sizeof(void*);

  00016	83 e1 fc	 and	 ecx, -4			; fffffffcH
; File E:\Proyectos\JuegosOnlineproyectos\PB\pbblow\Piercing Blow Remake\i3Server\include\i3Base\memory\memory_alloc.inl

; 109  : 		::HeapFree(HANDLE(h), 0, get_raw_data_from_aligned_malloc(data) );

  00019	ff 71 fc	 push	 DWORD PTR [ecx-4]
  0001c	6a 00		 push	 0
  0001e	ff 70 24	 push	 DWORD PTR [eax+36]
  00021	ff 15 00 00 00
	00		 call	 DWORD PTR __imp__HeapFree@12
$LN9@tls_safe_a:
; File E:\Proyectos\JuegosOnlineproyectos\PB\pbblow\Piercing Blow Remake\i3Server\include\i3Base\tls\detail\tls_mgr.inl

; 106  : 	}

  00027	5d		 pop	 ebp
  00028	c3		 ret	 0
?tls_safe_aligned_free@i3@@YAXPAX@Z ENDP		; i3::tls_safe_aligned_free
_TEXT	ENDS
; Function compile flags: /Ogtp
; File E:\Proyectos\JuegosOnlineproyectos\PB\pbblow\Piercing Blow Remake\i3Server\include\i3Base\tls\detail\tls_mgr.inl
; File E:\Proyectos\JuegosOnlineproyectos\PB\pbblow\Piercing Blow Remake\i3Server\include\i3Base\memory\calculate_adjusted_align.h
; File E:\Proyectos\JuegosOnlineproyectos\PB\pbblow\Piercing Blow Remake\i3Server\include\i3Base\tls\detail\tls_mgr.inl
; File E:\Proyectos\JuegosOnlineproyectos\PB\pbblow\Piercing Blow Remake\i3Server\include\i3Base\memory\calculate_adjusted_align.h
; File E:\Proyectos\JuegosOnlineproyectos\PB\pbblow\Piercing Blow Remake\i3Server\include\i3Base\memory\memory_aligned_apply.h
; File E:\Proyectos\JuegosOnlineproyectos\PB\pbblow\Piercing Blow Remake\i3Server\include\i3Base\memory\memory_alloc.inl
; File E:\Proyectos\JuegosOnlineproyectos\PB\pbblow\Piercing Blow Remake\i3Server\include\i3Base\memory\memory_aligned_apply.h
; File E:\Proyectos\JuegosOnlineproyectos\PB\pbblow\Piercing Blow Remake\i3Server\include\i3Base\tls\detail\tls_mgr.inl
; File E:\Proyectos\JuegosOnlineproyectos\PB\pbblow\Piercing Blow Remake\i3Server\include\i3Base\memory\memory_aligned_apply.h
; File E:\Proyectos\JuegosOnlineproyectos\PB\pbblow\Piercing Blow Remake\i3Server\include\i3Base\tls\detail\tls_mgr.inl
;	COMDAT ?tls_safe_aligned_malloc@i3@@YAPAXII@Z
_TEXT	SEGMENT
_n$ = 8							; size = 4
_align$ = 12						; size = 4
?tls_safe_aligned_malloc@i3@@YAPAXII@Z PROC		; i3::tls_safe_aligned_malloc, COMDAT

; 99   : 	{

  00000	55		 push	 ebp
  00001	8b ec		 mov	 ebp, esp
  00003	56		 push	 esi

; 180  : 			return reinterpret_cast<thread_data*>(::TlsGetValue(m_dwTlsIdx));

  00004	ff 35 00 00 00
	00		 push	 DWORD PTR ?g_TlsManager@detail_tls@i3@@3Vtls_mgr@12@A
  0000a	ff 15 00 00 00
	00		 call	 DWORD PTR __imp__TlsGetValue@4
; File E:\Proyectos\JuegosOnlineproyectos\PB\pbblow\Piercing Blow Remake\i3Server\include\i3Base\memory\calculate_adjusted_align.h

; 13   : 	size_t  calculate_adjusted_align( size_t align) {	return ( align > sizeof(void*) ) ? align : sizeof(void*); }

  00010	be 04 00 00 00	 mov	 esi, 4
  00015	39 75 0c	 cmp	 DWORD PTR _align$[ebp], esi
; File E:\Proyectos\JuegosOnlineproyectos\PB\pbblow\Piercing Blow Remake\i3Server\include\i3Base\tls\detail\tls_mgr.inl

; 151  : 		void*		thread_data::tls_safe_aligned_malloc(size_t n, size_t align) const { return i3::heap_aligned_malloc(this->safe_heap, n, align); }

  00018	8b 48 24	 mov	 ecx, DWORD PTR [eax+36]
; File E:\Proyectos\JuegosOnlineproyectos\PB\pbblow\Piercing Blow Remake\i3Server\include\i3Base\memory\calculate_adjusted_align.h

; 13   : 	size_t  calculate_adjusted_align( size_t align) {	return ( align > sizeof(void*) ) ? align : sizeof(void*); }

  0001b	0f 47 75 0c	 cmova	 esi, DWORD PTR _align$[ebp]
; File E:\Proyectos\JuegosOnlineproyectos\PB\pbblow\Piercing Blow Remake\i3Server\include\i3Base\memory\memory_aligned_apply.h

; 19   : 	size_t	calculate_aligned_malloc_size(size_t size, size_t adjusted_align) { return sizeof(void*) + size + adjusted_align;  }

  0001f	8b 45 08	 mov	 eax, DWORD PTR _n$[ebp]
  00022	83 c0 04	 add	 eax, 4
  00025	03 c6		 add	 eax, esi
; File E:\Proyectos\JuegosOnlineproyectos\PB\pbblow\Piercing Blow Remake\i3Server\include\i3Base\memory\memory_alloc.inl

; 101  : 		void* data = ::HeapAlloc(HANDLE(h), 0, calculate_aligned_malloc_size(size, align) );

  00027	50		 push	 eax
  00028	6a 00		 push	 0
  0002a	51		 push	 ecx
  0002b	ff 15 00 00 00
	00		 call	 DWORD PTR __imp__HeapAlloc@12
; File E:\Proyectos\JuegosOnlineproyectos\PB\pbblow\Piercing Blow Remake\i3Server\include\i3Base\memory\memory_aligned_apply.h

; 24   : 		uintptr_t result = ( uintptr_t(raw_data) + sizeof(void*) + adjusted_align - 1 ) & ~(adjusted_align - 1);

  00031	8d 4e 03	 lea	 ecx, DWORD PTR [esi+3]
  00034	f7 de		 neg	 esi
  00036	03 c8		 add	 ecx, eax
  00038	23 ce		 and	 ecx, esi
; File E:\Proyectos\JuegosOnlineproyectos\PB\pbblow\Piercing Blow Remake\i3Server\include\i3Base\tls\detail\tls_mgr.inl

; 100  : 		return detail_tls::get_curr_thread_data()->tls_safe_aligned_malloc(n, align);

  0003a	5e		 pop	 esi
; File E:\Proyectos\JuegosOnlineproyectos\PB\pbblow\Piercing Blow Remake\i3Server\include\i3Base\memory\memory_aligned_apply.h

; 25   : 		((uintptr_t*)result)[-1] = (uintptr_t)raw_data;

  0003b	89 41 fc	 mov	 DWORD PTR [ecx-4], eax
; File E:\Proyectos\JuegosOnlineproyectos\PB\pbblow\Piercing Blow Remake\i3Server\include\i3Base\tls\detail\tls_mgr.inl

; 100  : 		return detail_tls::get_curr_thread_data()->tls_safe_aligned_malloc(n, align);

  0003e	8b c1		 mov	 eax, ecx

; 101  : 	}

  00040	5d		 pop	 ebp
  00041	c3		 ret	 0
?tls_safe_aligned_malloc@i3@@YAPAXII@Z ENDP		; i3::tls_safe_aligned_malloc
_TEXT	ENDS
; Function compile flags: /Ogtp
; File E:\Proyectos\JuegosOnlineproyectos\PB\pbblow\Piercing Blow Remake\i3Server\include\i3Base\tls\detail\tls_mgr.inl
; File E:\Proyectos\JuegosOnlineproyectos\PB\pbblow\Piercing Blow Remake\i3Server\include\i3Base\memory\memory_alloc.inl
; File E:\Proyectos\JuegosOnlineproyectos\PB\pbblow\Piercing Blow Remake\i3Server\include\i3Base\tls\detail\tls_mgr.inl
;	COMDAT ?tls_safe_free@i3@@YAXKPAX@Z
_TEXT	SEGMENT
_hthread$ = 8						; size = 4
_ptr$ = 12						; size = 4
?tls_safe_free@i3@@YAXKPAX@Z PROC			; i3::tls_safe_free, COMDAT

; 94   : 	{

  00000	55		 push	 ebp
  00001	8b ec		 mov	 ebp, esp
; File E:\Proyectos\JuegosOnlineproyectos\PB\pbblow\Piercing Blow Remake\i3Server\include\i3Base\memory\memory_alloc.inl

; 93   : 		if (!data) return;

  00003	8b 45 0c	 mov	 eax, DWORD PTR _ptr$[ebp]
  00006	85 c0		 test	 eax, eax
  00008	74 17		 je	 SHORT $LN11@tls_safe_f

; 94   : 		::HeapFree(HANDLE(h), 0, data);		// łÎ°Ë»çÁ¤ŔÇ°ˇ ľř´Ů..

  0000a	8b 4d 08	 mov	 ecx, DWORD PTR _hthread$[ebp]
  0000d	50		 push	 eax
  0000e	a1 18 00 00 00	 mov	 eax, DWORD PTR ?g_TlsManager@detail_tls@i3@@3Vtls_mgr@12@A+24
  00013	6a 00		 push	 0
  00015	8b 04 88	 mov	 eax, DWORD PTR [eax+ecx*4]
  00018	ff 70 24	 push	 DWORD PTR [eax+36]
  0001b	ff 15 00 00 00
	00		 call	 DWORD PTR __imp__HeapFree@12
$LN11@tls_safe_f:
; File E:\Proyectos\JuegosOnlineproyectos\PB\pbblow\Piercing Blow Remake\i3Server\include\i3Base\tls\detail\tls_mgr.inl

; 96   : 	}

  00021	5d		 pop	 ebp
  00022	c3		 ret	 0
?tls_safe_free@i3@@YAXKPAX@Z ENDP			; i3::tls_safe_free
_TEXT	ENDS
; Function compile flags: /Ogtp
; File E:\Proyectos\JuegosOnlineproyectos\PB\pbblow\Piercing Blow Remake\i3Server\include\i3Base\tls\detail\tls_mgr.inl
; File E:\Proyectos\JuegosOnlineproyectos\PB\pbblow\Piercing Blow Remake\i3Server\include\i3Base\memory\memory_alloc.inl
; File E:\Proyectos\JuegosOnlineproyectos\PB\pbblow\Piercing Blow Remake\i3Server\include\i3Base\tls\detail\tls_mgr.inl
; File E:\Proyectos\JuegosOnlineproyectos\PB\pbblow\Piercing Blow Remake\i3Server\include\i3Base\memory\memory_alloc.inl
; File E:\Proyectos\JuegosOnlineproyectos\PB\pbblow\Piercing Blow Remake\i3Server\include\i3Base\tls\detail\tls_mgr.inl
;	COMDAT ?tls_safe_malloc@i3@@YAPAXKI@Z
_TEXT	SEGMENT
_hthread$ = 8						; size = 4
_n$ = 12						; size = 4
?tls_safe_malloc@i3@@YAPAXKI@Z PROC			; i3::tls_safe_malloc, COMDAT

; 89   : 	{

  00000	55		 push	 ebp
  00001	8b ec		 mov	 ebp, esp

; 145  : 		void*		thread_data::tls_safe_malloc(size_t n) const {	return i3::heap_malloc(this->safe_heap, n);	}

  00003	8b 4d 08	 mov	 ecx, DWORD PTR _hthread$[ebp]
  00006	a1 18 00 00 00	 mov	 eax, DWORD PTR ?g_TlsManager@detail_tls@i3@@3Vtls_mgr@12@A+24
; File E:\Proyectos\JuegosOnlineproyectos\PB\pbblow\Piercing Blow Remake\i3Server\include\i3Base\memory\memory_alloc.inl

; 87   : 		return ::HeapAlloc(HANDLE(h), 0, size);

  0000b	ff 75 0c	 push	 DWORD PTR _n$[ebp]
  0000e	6a 00		 push	 0
; File E:\Proyectos\JuegosOnlineproyectos\PB\pbblow\Piercing Blow Remake\i3Server\include\i3Base\tls\detail\tls_mgr.inl

; 145  : 		void*		thread_data::tls_safe_malloc(size_t n) const {	return i3::heap_malloc(this->safe_heap, n);	}

  00010	8b 04 88	 mov	 eax, DWORD PTR [eax+ecx*4]
; File E:\Proyectos\JuegosOnlineproyectos\PB\pbblow\Piercing Blow Remake\i3Server\include\i3Base\memory\memory_alloc.inl

; 87   : 		return ::HeapAlloc(HANDLE(h), 0, size);

  00013	ff 70 24	 push	 DWORD PTR [eax+36]
  00016	ff 15 00 00 00
	00		 call	 DWORD PTR __imp__HeapAlloc@12
; File E:\Proyectos\JuegosOnlineproyectos\PB\pbblow\Piercing Blow Remake\i3Server\include\i3Base\tls\detail\tls_mgr.inl

; 91   : 	}

  0001c	5d		 pop	 ebp
  0001d	c3		 ret	 0
?tls_safe_malloc@i3@@YAPAXKI@Z ENDP			; i3::tls_safe_malloc
_TEXT	ENDS
; Function compile flags: /Ogtp
; File E:\Proyectos\JuegosOnlineproyectos\PB\pbblow\Piercing Blow Remake\i3Server\include\i3Base\tls\detail\tls_mgr.inl
; File E:\Proyectos\JuegosOnlineproyectos\PB\pbblow\Piercing Blow Remake\i3Server\include\i3Base\memory\memory_alloc.inl
; File E:\Proyectos\JuegosOnlineproyectos\PB\pbblow\Piercing Blow Remake\i3Server\include\i3Base\tls\detail\tls_mgr.inl
;	COMDAT ?tls_safe_free@i3@@YAXPAX@Z
_TEXT	SEGMENT
_ptr$ = 8						; size = 4
?tls_safe_free@i3@@YAXPAX@Z PROC			; i3::tls_safe_free, COMDAT

; 84   : 	{

  00000	55		 push	 ebp
  00001	8b ec		 mov	 ebp, esp

; 180  : 			return reinterpret_cast<thread_data*>(::TlsGetValue(m_dwTlsIdx));

  00003	ff 35 00 00 00
	00		 push	 DWORD PTR ?g_TlsManager@detail_tls@i3@@3Vtls_mgr@12@A
  00009	ff 15 00 00 00
	00		 call	 DWORD PTR __imp__TlsGetValue@4
; File E:\Proyectos\JuegosOnlineproyectos\PB\pbblow\Piercing Blow Remake\i3Server\include\i3Base\memory\memory_alloc.inl

; 93   : 		if (!data) return;

  0000f	8b 4d 08	 mov	 ecx, DWORD PTR _ptr$[ebp]
  00012	85 c9		 test	 ecx, ecx
  00014	74 0c		 je	 SHORT $LN9@tls_safe_f

; 94   : 		::HeapFree(HANDLE(h), 0, data);		// łÎ°Ë»çÁ¤ŔÇ°ˇ ľř´Ů..

  00016	51		 push	 ecx
  00017	6a 00		 push	 0
  00019	ff 70 24	 push	 DWORD PTR [eax+36]
  0001c	ff 15 00 00 00
	00		 call	 DWORD PTR __imp__HeapFree@12
$LN9@tls_safe_f:
; File E:\Proyectos\JuegosOnlineproyectos\PB\pbblow\Piercing Blow Remake\i3Server\include\i3Base\tls\detail\tls_mgr.inl

; 86   : 	}

  00022	5d		 pop	 ebp
  00023	c3		 ret	 0
?tls_safe_free@i3@@YAXPAX@Z ENDP			; i3::tls_safe_free
_TEXT	ENDS
; Function compile flags: /Ogtp
; File E:\Proyectos\JuegosOnlineproyectos\PB\pbblow\Piercing Blow Remake\i3Server\include\i3Base\tls\detail\tls_mgr.inl
; File E:\Proyectos\JuegosOnlineproyectos\PB\pbblow\Piercing Blow Remake\i3Server\include\i3Base\memory\memory_alloc.inl
; File E:\Proyectos\JuegosOnlineproyectos\PB\pbblow\Piercing Blow Remake\i3Server\include\i3Base\tls\detail\tls_mgr.inl
;	COMDAT ?tls_safe_malloc@i3@@YAPAXI@Z
_TEXT	SEGMENT
_n$ = 8							; size = 4
?tls_safe_malloc@i3@@YAPAXI@Z PROC			; i3::tls_safe_malloc, COMDAT

; 79   : 	{

  00000	55		 push	 ebp
  00001	8b ec		 mov	 ebp, esp

; 180  : 			return reinterpret_cast<thread_data*>(::TlsGetValue(m_dwTlsIdx));

  00003	ff 35 00 00 00
	00		 push	 DWORD PTR ?g_TlsManager@detail_tls@i3@@3Vtls_mgr@12@A
  00009	ff 15 00 00 00
	00		 call	 DWORD PTR __imp__TlsGetValue@4
; File E:\Proyectos\JuegosOnlineproyectos\PB\pbblow\Piercing Blow Remake\i3Server\include\i3Base\memory\memory_alloc.inl

; 87   : 		return ::HeapAlloc(HANDLE(h), 0, size);

  0000f	ff 75 08	 push	 DWORD PTR _n$[ebp]
  00012	6a 00		 push	 0
  00014	ff 70 24	 push	 DWORD PTR [eax+36]
  00017	ff 15 00 00 00
	00		 call	 DWORD PTR __imp__HeapAlloc@12
; File E:\Proyectos\JuegosOnlineproyectos\PB\pbblow\Piercing Blow Remake\i3Server\include\i3Base\tls\detail\tls_mgr.inl

; 81   : 	}

  0001d	5d		 pop	 ebp
  0001e	c3		 ret	 0
?tls_safe_malloc@i3@@YAPAXI@Z ENDP			; i3::tls_safe_malloc
_TEXT	ENDS
; Function compile flags: /Ogtp
; File E:\Proyectos\JuegosOnlineproyectos\PB\pbblow\Piercing Blow Remake\i3Server\include\i3Base\tls\detail\tls_mgr.inl
; File E:\Proyectos\JuegosOnlineproyectos\PB\pbblow\Piercing Blow Remake\i3Server\include\i3Base\memory\memory_alloc.inl
; File E:\Proyectos\JuegosOnlineproyectos\PB\pbblow\Piercing Blow Remake\i3Server\include\i3Base\memory\memory_aligned_apply.h
; File E:\Proyectos\JuegosOnlineproyectos\PB\pbblow\Piercing Blow Remake\i3Server\include\i3Base\memory\memory_alloc.inl
; File E:\Proyectos\JuegosOnlineproyectos\PB\pbblow\Piercing Blow Remake\i3Server\include\i3Base\tls\detail\tls_mgr.inl
;	COMDAT ?tls_aligned_free@i3@@YAXKPAX@Z
_TEXT	SEGMENT
_hThread$ = 8						; size = 4
_ptr$ = 12						; size = 4
?tls_aligned_free@i3@@YAXKPAX@Z PROC			; i3::tls_aligned_free, COMDAT

; 74   : 	{

  00000	55		 push	 ebp
  00001	8b ec		 mov	 ebp, esp
; File E:\Proyectos\JuegosOnlineproyectos\PB\pbblow\Piercing Blow Remake\i3Server\include\i3Base\memory\memory_alloc.inl

; 108  : 		if (!data) return;

  00003	8b 45 0c	 mov	 eax, DWORD PTR _ptr$[ebp]
  00006	85 c0		 test	 eax, eax
  00008	74 1c		 je	 SHORT $LN11@tls_aligne

; 109  : 		::HeapFree(HANDLE(h), 0, get_raw_data_from_aligned_malloc(data) );

  0000a	8b 4d 08	 mov	 ecx, DWORD PTR _hThread$[ebp]
; File E:\Proyectos\JuegosOnlineproyectos\PB\pbblow\Piercing Blow Remake\i3Server\include\i3Base\memory\memory_aligned_apply.h

; 33   : 		ptr = ( ptr & ~( sizeof(void*) -1 ) ) - sizeof(void*);

  0000d	83 e0 fc	 and	 eax, -4			; fffffffcH
; File E:\Proyectos\JuegosOnlineproyectos\PB\pbblow\Piercing Blow Remake\i3Server\include\i3Base\memory\memory_alloc.inl

; 109  : 		::HeapFree(HANDLE(h), 0, get_raw_data_from_aligned_malloc(data) );

  00010	ff 70 fc	 push	 DWORD PTR [eax-4]
  00013	a1 18 00 00 00	 mov	 eax, DWORD PTR ?g_TlsManager@detail_tls@i3@@3Vtls_mgr@12@A+24
  00018	6a 00		 push	 0
  0001a	8b 04 88	 mov	 eax, DWORD PTR [eax+ecx*4]
  0001d	ff 70 20	 push	 DWORD PTR [eax+32]
  00020	ff 15 00 00 00
	00		 call	 DWORD PTR __imp__HeapFree@12
$LN11@tls_aligne:
; File E:\Proyectos\JuegosOnlineproyectos\PB\pbblow\Piercing Blow Remake\i3Server\include\i3Base\tls\detail\tls_mgr.inl

; 76   : 	}

  00026	5d		 pop	 ebp
  00027	c3		 ret	 0
?tls_aligned_free@i3@@YAXKPAX@Z ENDP			; i3::tls_aligned_free
_TEXT	ENDS
; Function compile flags: /Ogtp
; File E:\Proyectos\JuegosOnlineproyectos\PB\pbblow\Piercing Blow Remake\i3Server\include\i3Base\tls\detail\tls_mgr.inl
; File E:\Proyectos\JuegosOnlineproyectos\PB\pbblow\Piercing Blow Remake\i3Server\include\i3Base\memory\calculate_adjusted_align.h
; File E:\Proyectos\JuegosOnlineproyectos\PB\pbblow\Piercing Blow Remake\i3Server\include\i3Base\tls\detail\tls_mgr.inl
; File E:\Proyectos\JuegosOnlineproyectos\PB\pbblow\Piercing Blow Remake\i3Server\include\i3Base\memory\calculate_adjusted_align.h
; File E:\Proyectos\JuegosOnlineproyectos\PB\pbblow\Piercing Blow Remake\i3Server\include\i3Base\tls\detail\tls_mgr.inl
; File E:\Proyectos\JuegosOnlineproyectos\PB\pbblow\Piercing Blow Remake\i3Server\include\i3Base\memory\memory_aligned_apply.h
; File E:\Proyectos\JuegosOnlineproyectos\PB\pbblow\Piercing Blow Remake\i3Server\include\i3Base\memory\memory_alloc.inl
; File E:\Proyectos\JuegosOnlineproyectos\PB\pbblow\Piercing Blow Remake\i3Server\include\i3Base\memory\memory_aligned_apply.h
; File E:\Proyectos\JuegosOnlineproyectos\PB\pbblow\Piercing Blow Remake\i3Server\include\i3Base\tls\detail\tls_mgr.inl
; File E:\Proyectos\JuegosOnlineproyectos\PB\pbblow\Piercing Blow Remake\i3Server\include\i3Base\memory\memory_aligned_apply.h
; File E:\Proyectos\JuegosOnlineproyectos\PB\pbblow\Piercing Blow Remake\i3Server\include\i3Base\tls\detail\tls_mgr.inl
;	COMDAT ?tls_aligned_malloc@i3@@YAPAXKII@Z
_TEXT	SEGMENT
_hThread$ = 8						; size = 4
_n$ = 12						; size = 4
_align$ = 16						; size = 4
?tls_aligned_malloc@i3@@YAPAXKII@Z PROC			; i3::tls_aligned_malloc, COMDAT

; 69   : 	{

  00000	55		 push	 ebp
  00001	8b ec		 mov	 ebp, esp

; 138  : 		void*		thread_data::tls_aligned_malloc(size_t n, size_t align) const {	return i3::heap_aligned_malloc(this->heapTls, n, align); }

  00003	8b 4d 08	 mov	 ecx, DWORD PTR _hThread$[ebp]
  00006	a1 18 00 00 00	 mov	 eax, DWORD PTR ?g_TlsManager@detail_tls@i3@@3Vtls_mgr@12@A+24

; 69   : 	{

  0000b	56		 push	 esi
; File E:\Proyectos\JuegosOnlineproyectos\PB\pbblow\Piercing Blow Remake\i3Server\include\i3Base\memory\calculate_adjusted_align.h

; 13   : 	size_t  calculate_adjusted_align( size_t align) {	return ( align > sizeof(void*) ) ? align : sizeof(void*); }

  0000c	be 04 00 00 00	 mov	 esi, 4
  00011	39 75 10	 cmp	 DWORD PTR _align$[ebp], esi
; File E:\Proyectos\JuegosOnlineproyectos\PB\pbblow\Piercing Blow Remake\i3Server\include\i3Base\tls\detail\tls_mgr.inl

; 138  : 		void*		thread_data::tls_aligned_malloc(size_t n, size_t align) const {	return i3::heap_aligned_malloc(this->heapTls, n, align); }

  00014	8b 04 88	 mov	 eax, DWORD PTR [eax+ecx*4]
; File E:\Proyectos\JuegosOnlineproyectos\PB\pbblow\Piercing Blow Remake\i3Server\include\i3Base\memory\calculate_adjusted_align.h

; 13   : 	size_t  calculate_adjusted_align( size_t align) {	return ( align > sizeof(void*) ) ? align : sizeof(void*); }

  00017	0f 47 75 10	 cmova	 esi, DWORD PTR _align$[ebp]
; File E:\Proyectos\JuegosOnlineproyectos\PB\pbblow\Piercing Blow Remake\i3Server\include\i3Base\tls\detail\tls_mgr.inl

; 138  : 		void*		thread_data::tls_aligned_malloc(size_t n, size_t align) const {	return i3::heap_aligned_malloc(this->heapTls, n, align); }

  0001b	8b 48 20	 mov	 ecx, DWORD PTR [eax+32]
; File E:\Proyectos\JuegosOnlineproyectos\PB\pbblow\Piercing Blow Remake\i3Server\include\i3Base\memory\memory_aligned_apply.h

; 19   : 	size_t	calculate_aligned_malloc_size(size_t size, size_t adjusted_align) { return sizeof(void*) + size + adjusted_align;  }

  0001e	8b 45 0c	 mov	 eax, DWORD PTR _n$[ebp]
  00021	83 c0 04	 add	 eax, 4
  00024	03 c6		 add	 eax, esi
; File E:\Proyectos\JuegosOnlineproyectos\PB\pbblow\Piercing Blow Remake\i3Server\include\i3Base\memory\memory_alloc.inl

; 101  : 		void* data = ::HeapAlloc(HANDLE(h), 0, calculate_aligned_malloc_size(size, align) );

  00026	50		 push	 eax
  00027	6a 00		 push	 0
  00029	51		 push	 ecx
  0002a	ff 15 00 00 00
	00		 call	 DWORD PTR __imp__HeapAlloc@12
; File E:\Proyectos\JuegosOnlineproyectos\PB\pbblow\Piercing Blow Remake\i3Server\include\i3Base\memory\memory_aligned_apply.h

; 24   : 		uintptr_t result = ( uintptr_t(raw_data) + sizeof(void*) + adjusted_align - 1 ) & ~(adjusted_align - 1);

  00030	8d 4e 03	 lea	 ecx, DWORD PTR [esi+3]
  00033	f7 de		 neg	 esi
  00035	03 c8		 add	 ecx, eax
  00037	23 ce		 and	 ecx, esi
; File E:\Proyectos\JuegosOnlineproyectos\PB\pbblow\Piercing Blow Remake\i3Server\include\i3Base\tls\detail\tls_mgr.inl

; 70   : 		return detail_tls::get_thread_data(hThread)->tls_aligned_malloc(n, align);

  00039	5e		 pop	 esi
; File E:\Proyectos\JuegosOnlineproyectos\PB\pbblow\Piercing Blow Remake\i3Server\include\i3Base\memory\memory_aligned_apply.h

; 25   : 		((uintptr_t*)result)[-1] = (uintptr_t)raw_data;

  0003a	89 41 fc	 mov	 DWORD PTR [ecx-4], eax
; File E:\Proyectos\JuegosOnlineproyectos\PB\pbblow\Piercing Blow Remake\i3Server\include\i3Base\tls\detail\tls_mgr.inl

; 70   : 		return detail_tls::get_thread_data(hThread)->tls_aligned_malloc(n, align);

  0003d	8b c1		 mov	 eax, ecx

; 71   : 	}

  0003f	5d		 pop	 ebp
  00040	c3		 ret	 0
?tls_aligned_malloc@i3@@YAPAXKII@Z ENDP			; i3::tls_aligned_malloc
_TEXT	ENDS
; Function compile flags: /Ogtp
; File E:\Proyectos\JuegosOnlineproyectos\PB\pbblow\Piercing Blow Remake\i3Server\include\i3Base\tls\detail\tls_mgr.inl
; File E:\Proyectos\JuegosOnlineproyectos\PB\pbblow\Piercing Blow Remake\i3Server\include\i3Base\memory\memory_alloc.inl
; File E:\Proyectos\JuegosOnlineproyectos\PB\pbblow\Piercing Blow Remake\i3Server\include\i3Base\memory\memory_aligned_apply.h
; File E:\Proyectos\JuegosOnlineproyectos\PB\pbblow\Piercing Blow Remake\i3Server\include\i3Base\memory\memory_alloc.inl
; File E:\Proyectos\JuegosOnlineproyectos\PB\pbblow\Piercing Blow Remake\i3Server\include\i3Base\tls\detail\tls_mgr.inl
;	COMDAT ?tls_aligned_free@i3@@YAXPAX@Z
_TEXT	SEGMENT
_ptr$ = 8						; size = 4
?tls_aligned_free@i3@@YAXPAX@Z PROC			; i3::tls_aligned_free, COMDAT

; 64   : 	{

  00000	55		 push	 ebp
  00001	8b ec		 mov	 ebp, esp

; 180  : 			return reinterpret_cast<thread_data*>(::TlsGetValue(m_dwTlsIdx));

  00003	ff 35 00 00 00
	00		 push	 DWORD PTR ?g_TlsManager@detail_tls@i3@@3Vtls_mgr@12@A
  00009	ff 15 00 00 00
	00		 call	 DWORD PTR __imp__TlsGetValue@4
; File E:\Proyectos\JuegosOnlineproyectos\PB\pbblow\Piercing Blow Remake\i3Server\include\i3Base\memory\memory_alloc.inl

; 108  : 		if (!data) return;

  0000f	8b 4d 08	 mov	 ecx, DWORD PTR _ptr$[ebp]
  00012	85 c9		 test	 ecx, ecx
  00014	74 11		 je	 SHORT $LN9@tls_aligne
; File E:\Proyectos\JuegosOnlineproyectos\PB\pbblow\Piercing Blow Remake\i3Server\include\i3Base\memory\memory_aligned_apply.h

; 33   : 		ptr = ( ptr & ~( sizeof(void*) -1 ) ) - sizeof(void*);

  00016	83 e1 fc	 and	 ecx, -4			; fffffffcH
; File E:\Proyectos\JuegosOnlineproyectos\PB\pbblow\Piercing Blow Remake\i3Server\include\i3Base\memory\memory_alloc.inl

; 109  : 		::HeapFree(HANDLE(h), 0, get_raw_data_from_aligned_malloc(data) );

  00019	ff 71 fc	 push	 DWORD PTR [ecx-4]
  0001c	6a 00		 push	 0
  0001e	ff 70 20	 push	 DWORD PTR [eax+32]
  00021	ff 15 00 00 00
	00		 call	 DWORD PTR __imp__HeapFree@12
$LN9@tls_aligne:
; File E:\Proyectos\JuegosOnlineproyectos\PB\pbblow\Piercing Blow Remake\i3Server\include\i3Base\tls\detail\tls_mgr.inl

; 66   : 	}

  00027	5d		 pop	 ebp
  00028	c3		 ret	 0
?tls_aligned_free@i3@@YAXPAX@Z ENDP			; i3::tls_aligned_free
_TEXT	ENDS
; Function compile flags: /Ogtp
; File E:\Proyectos\JuegosOnlineproyectos\PB\pbblow\Piercing Blow Remake\i3Server\include\i3Base\tls\detail\tls_mgr.inl
; File E:\Proyectos\JuegosOnlineproyectos\PB\pbblow\Piercing Blow Remake\i3Server\include\i3Base\memory\calculate_adjusted_align.h
; File E:\Proyectos\JuegosOnlineproyectos\PB\pbblow\Piercing Blow Remake\i3Server\include\i3Base\tls\detail\tls_mgr.inl
; File E:\Proyectos\JuegosOnlineproyectos\PB\pbblow\Piercing Blow Remake\i3Server\include\i3Base\memory\calculate_adjusted_align.h
; File E:\Proyectos\JuegosOnlineproyectos\PB\pbblow\Piercing Blow Remake\i3Server\include\i3Base\memory\memory_aligned_apply.h
; File E:\Proyectos\JuegosOnlineproyectos\PB\pbblow\Piercing Blow Remake\i3Server\include\i3Base\memory\memory_alloc.inl
; File E:\Proyectos\JuegosOnlineproyectos\PB\pbblow\Piercing Blow Remake\i3Server\include\i3Base\memory\memory_aligned_apply.h
; File E:\Proyectos\JuegosOnlineproyectos\PB\pbblow\Piercing Blow Remake\i3Server\include\i3Base\tls\detail\tls_mgr.inl
; File E:\Proyectos\JuegosOnlineproyectos\PB\pbblow\Piercing Blow Remake\i3Server\include\i3Base\memory\memory_aligned_apply.h
; File E:\Proyectos\JuegosOnlineproyectos\PB\pbblow\Piercing Blow Remake\i3Server\include\i3Base\tls\detail\tls_mgr.inl
;	COMDAT ?tls_aligned_malloc@i3@@YAPAXII@Z
_TEXT	SEGMENT
_n$ = 8							; size = 4
_align$ = 12						; size = 4
?tls_aligned_malloc@i3@@YAPAXII@Z PROC			; i3::tls_aligned_malloc, COMDAT

; 59   : 	{

  00000	55		 push	 ebp
  00001	8b ec		 mov	 ebp, esp
  00003	56		 push	 esi

; 180  : 			return reinterpret_cast<thread_data*>(::TlsGetValue(m_dwTlsIdx));

  00004	ff 35 00 00 00
	00		 push	 DWORD PTR ?g_TlsManager@detail_tls@i3@@3Vtls_mgr@12@A
  0000a	ff 15 00 00 00
	00		 call	 DWORD PTR __imp__TlsGetValue@4
; File E:\Proyectos\JuegosOnlineproyectos\PB\pbblow\Piercing Blow Remake\i3Server\include\i3Base\memory\calculate_adjusted_align.h

; 13   : 	size_t  calculate_adjusted_align( size_t align) {	return ( align > sizeof(void*) ) ? align : sizeof(void*); }

  00010	be 04 00 00 00	 mov	 esi, 4
  00015	39 75 0c	 cmp	 DWORD PTR _align$[ebp], esi
; File E:\Proyectos\JuegosOnlineproyectos\PB\pbblow\Piercing Blow Remake\i3Server\include\i3Base\tls\detail\tls_mgr.inl

; 138  : 		void*		thread_data::tls_aligned_malloc(size_t n, size_t align) const {	return i3::heap_aligned_malloc(this->heapTls, n, align); }

  00018	8b 48 20	 mov	 ecx, DWORD PTR [eax+32]
; File E:\Proyectos\JuegosOnlineproyectos\PB\pbblow\Piercing Blow Remake\i3Server\include\i3Base\memory\calculate_adjusted_align.h

; 13   : 	size_t  calculate_adjusted_align( size_t align) {	return ( align > sizeof(void*) ) ? align : sizeof(void*); }

  0001b	0f 47 75 0c	 cmova	 esi, DWORD PTR _align$[ebp]
; File E:\Proyectos\JuegosOnlineproyectos\PB\pbblow\Piercing Blow Remake\i3Server\include\i3Base\memory\memory_aligned_apply.h

; 19   : 	size_t	calculate_aligned_malloc_size(size_t size, size_t adjusted_align) { return sizeof(void*) + size + adjusted_align;  }

  0001f	8b 45 08	 mov	 eax, DWORD PTR _n$[ebp]
  00022	83 c0 04	 add	 eax, 4
  00025	03 c6		 add	 eax, esi
; File E:\Proyectos\JuegosOnlineproyectos\PB\pbblow\Piercing Blow Remake\i3Server\include\i3Base\memory\memory_alloc.inl

; 101  : 		void* data = ::HeapAlloc(HANDLE(h), 0, calculate_aligned_malloc_size(size, align) );

  00027	50		 push	 eax
  00028	6a 00		 push	 0
  0002a	51		 push	 ecx
  0002b	ff 15 00 00 00
	00		 call	 DWORD PTR __imp__HeapAlloc@12
; File E:\Proyectos\JuegosOnlineproyectos\PB\pbblow\Piercing Blow Remake\i3Server\include\i3Base\memory\memory_aligned_apply.h

; 24   : 		uintptr_t result = ( uintptr_t(raw_data) + sizeof(void*) + adjusted_align - 1 ) & ~(adjusted_align - 1);

  00031	8d 4e 03	 lea	 ecx, DWORD PTR [esi+3]
  00034	f7 de		 neg	 esi
  00036	03 c8		 add	 ecx, eax
  00038	23 ce		 and	 ecx, esi
; File E:\Proyectos\JuegosOnlineproyectos\PB\pbblow\Piercing Blow Remake\i3Server\include\i3Base\tls\detail\tls_mgr.inl

; 60   : 		return detail_tls::get_curr_thread_data()->tls_aligned_malloc(n, align);

  0003a	5e		 pop	 esi
; File E:\Proyectos\JuegosOnlineproyectos\PB\pbblow\Piercing Blow Remake\i3Server\include\i3Base\memory\memory_aligned_apply.h

; 25   : 		((uintptr_t*)result)[-1] = (uintptr_t)raw_data;

  0003b	89 41 fc	 mov	 DWORD PTR [ecx-4], eax
; File E:\Proyectos\JuegosOnlineproyectos\PB\pbblow\Piercing Blow Remake\i3Server\include\i3Base\tls\detail\tls_mgr.inl

; 60   : 		return detail_tls::get_curr_thread_data()->tls_aligned_malloc(n, align);

  0003e	8b c1		 mov	 eax, ecx

; 61   : 	}

  00040	5d		 pop	 ebp
  00041	c3		 ret	 0
?tls_aligned_malloc@i3@@YAPAXII@Z ENDP			; i3::tls_aligned_malloc
_TEXT	ENDS
; Function compile flags: /Ogtp
; File E:\Proyectos\JuegosOnlineproyectos\PB\pbblow\Piercing Blow Remake\i3Server\include\i3Base\tls\detail\tls_mgr.inl
; File E:\Proyectos\JuegosOnlineproyectos\PB\pbblow\Piercing Blow Remake\i3Server\include\i3Base\memory\memory_alloc.inl
; File E:\Proyectos\JuegosOnlineproyectos\PB\pbblow\Piercing Blow Remake\i3Server\include\i3Base\tls\detail\tls_mgr.inl
;	COMDAT ?tls_free@i3@@YAXKPAX@Z
_TEXT	SEGMENT
_hthread$ = 8						; size = 4
_ptr$ = 12						; size = 4
?tls_free@i3@@YAXKPAX@Z PROC				; i3::tls_free, COMDAT

; 53   : 	{

  00000	55		 push	 ebp
  00001	8b ec		 mov	 ebp, esp
; File E:\Proyectos\JuegosOnlineproyectos\PB\pbblow\Piercing Blow Remake\i3Server\include\i3Base\memory\memory_alloc.inl

; 93   : 		if (!data) return;

  00003	8b 45 0c	 mov	 eax, DWORD PTR _ptr$[ebp]
  00006	85 c0		 test	 eax, eax
  00008	74 17		 je	 SHORT $LN11@tls_free

; 94   : 		::HeapFree(HANDLE(h), 0, data);		// łÎ°Ë»çÁ¤ŔÇ°ˇ ľř´Ů..

  0000a	8b 4d 08	 mov	 ecx, DWORD PTR _hthread$[ebp]
  0000d	50		 push	 eax
  0000e	a1 18 00 00 00	 mov	 eax, DWORD PTR ?g_TlsManager@detail_tls@i3@@3Vtls_mgr@12@A+24
  00013	6a 00		 push	 0
  00015	8b 04 88	 mov	 eax, DWORD PTR [eax+ecx*4]
  00018	ff 70 20	 push	 DWORD PTR [eax+32]
  0001b	ff 15 00 00 00
	00		 call	 DWORD PTR __imp__HeapFree@12
$LN11@tls_free:
; File E:\Proyectos\JuegosOnlineproyectos\PB\pbblow\Piercing Blow Remake\i3Server\include\i3Base\tls\detail\tls_mgr.inl

; 55   : 	}

  00021	5d		 pop	 ebp
  00022	c3		 ret	 0
?tls_free@i3@@YAXKPAX@Z ENDP				; i3::tls_free
_TEXT	ENDS
; Function compile flags: /Ogtp
; File E:\Proyectos\JuegosOnlineproyectos\PB\pbblow\Piercing Blow Remake\i3Server\include\i3Base\tls\detail\tls_mgr.inl
; File E:\Proyectos\JuegosOnlineproyectos\PB\pbblow\Piercing Blow Remake\i3Server\include\i3Base\memory\memory_alloc.inl
; File E:\Proyectos\JuegosOnlineproyectos\PB\pbblow\Piercing Blow Remake\i3Server\include\i3Base\tls\detail\tls_mgr.inl
; File E:\Proyectos\JuegosOnlineproyectos\PB\pbblow\Piercing Blow Remake\i3Server\include\i3Base\memory\memory_alloc.inl
; File E:\Proyectos\JuegosOnlineproyectos\PB\pbblow\Piercing Blow Remake\i3Server\include\i3Base\tls\detail\tls_mgr.inl
;	COMDAT ?tls_malloc@i3@@YAPAXKI@Z
_TEXT	SEGMENT
_hthread$ = 8						; size = 4
_n$ = 12						; size = 4
?tls_malloc@i3@@YAPAXKI@Z PROC				; i3::tls_malloc, COMDAT

; 47   : 	{

  00000	55		 push	 ebp
  00001	8b ec		 mov	 ebp, esp

; 132  : 		void*		thread_data::tls_malloc(size_t n) const { return i3::heap_malloc(this->heapTls, n); }

  00003	8b 4d 08	 mov	 ecx, DWORD PTR _hthread$[ebp]
  00006	a1 18 00 00 00	 mov	 eax, DWORD PTR ?g_TlsManager@detail_tls@i3@@3Vtls_mgr@12@A+24
; File E:\Proyectos\JuegosOnlineproyectos\PB\pbblow\Piercing Blow Remake\i3Server\include\i3Base\memory\memory_alloc.inl

; 87   : 		return ::HeapAlloc(HANDLE(h), 0, size);

  0000b	ff 75 0c	 push	 DWORD PTR _n$[ebp]
  0000e	6a 00		 push	 0
; File E:\Proyectos\JuegosOnlineproyectos\PB\pbblow\Piercing Blow Remake\i3Server\include\i3Base\tls\detail\tls_mgr.inl

; 132  : 		void*		thread_data::tls_malloc(size_t n) const { return i3::heap_malloc(this->heapTls, n); }

  00010	8b 04 88	 mov	 eax, DWORD PTR [eax+ecx*4]
; File E:\Proyectos\JuegosOnlineproyectos\PB\pbblow\Piercing Blow Remake\i3Server\include\i3Base\memory\memory_alloc.inl

; 87   : 		return ::HeapAlloc(HANDLE(h), 0, size);

  00013	ff 70 20	 push	 DWORD PTR [eax+32]
  00016	ff 15 00 00 00
	00		 call	 DWORD PTR __imp__HeapAlloc@12
; File E:\Proyectos\JuegosOnlineproyectos\PB\pbblow\Piercing Blow Remake\i3Server\include\i3Base\tls\detail\tls_mgr.inl

; 49   : 	}

  0001c	5d		 pop	 ebp
  0001d	c3		 ret	 0
?tls_malloc@i3@@YAPAXKI@Z ENDP				; i3::tls_malloc
_TEXT	ENDS
; Function compile flags: /Ogtp
; File E:\Proyectos\JuegosOnlineproyectos\PB\pbblow\Piercing Blow Remake\i3Server\include\i3Base\tls\detail\tls_mgr.inl
; File E:\Proyectos\JuegosOnlineproyectos\PB\pbblow\Piercing Blow Remake\i3Server\include\i3Base\memory\memory_alloc.inl
; File E:\Proyectos\JuegosOnlineproyectos\PB\pbblow\Piercing Blow Remake\i3Server\include\i3Base\tls\detail\tls_mgr.inl
;	COMDAT ?tls_free@i3@@YAXPAX@Z
_TEXT	SEGMENT
_ptr$ = 8						; size = 4
?tls_free@i3@@YAXPAX@Z PROC				; i3::tls_free, COMDAT

; 41   : 	{

  00000	55		 push	 ebp
  00001	8b ec		 mov	 ebp, esp

; 180  : 			return reinterpret_cast<thread_data*>(::TlsGetValue(m_dwTlsIdx));

  00003	ff 35 00 00 00
	00		 push	 DWORD PTR ?g_TlsManager@detail_tls@i3@@3Vtls_mgr@12@A
  00009	ff 15 00 00 00
	00		 call	 DWORD PTR __imp__TlsGetValue@4
; File E:\Proyectos\JuegosOnlineproyectos\PB\pbblow\Piercing Blow Remake\i3Server\include\i3Base\memory\memory_alloc.inl

; 93   : 		if (!data) return;

  0000f	8b 4d 08	 mov	 ecx, DWORD PTR _ptr$[ebp]
  00012	85 c9		 test	 ecx, ecx
  00014	74 0c		 je	 SHORT $LN9@tls_free

; 94   : 		::HeapFree(HANDLE(h), 0, data);		// łÎ°Ë»çÁ¤ŔÇ°ˇ ľř´Ů..

  00016	51		 push	 ecx
  00017	6a 00		 push	 0
  00019	ff 70 20	 push	 DWORD PTR [eax+32]
  0001c	ff 15 00 00 00
	00		 call	 DWORD PTR __imp__HeapFree@12
$LN9@tls_free:
; File E:\Proyectos\JuegosOnlineproyectos\PB\pbblow\Piercing Blow Remake\i3Server\include\i3Base\tls\detail\tls_mgr.inl

; 43   : 	}

  00022	5d		 pop	 ebp
  00023	c3		 ret	 0
?tls_free@i3@@YAXPAX@Z ENDP				; i3::tls_free
_TEXT	ENDS
; Function compile flags: /Ogtp
; File E:\Proyectos\JuegosOnlineproyectos\PB\pbblow\Piercing Blow Remake\i3Server\include\i3Base\tls\detail\tls_mgr.inl
; File E:\Proyectos\JuegosOnlineproyectos\PB\pbblow\Piercing Blow Remake\i3Server\include\i3Base\memory\memory_alloc.inl
; File E:\Proyectos\JuegosOnlineproyectos\PB\pbblow\Piercing Blow Remake\i3Server\include\i3Base\tls\detail\tls_mgr.inl
;	COMDAT ?tls_malloc@i3@@YAPAXI@Z
_TEXT	SEGMENT
_n$ = 8							; size = 4
?tls_malloc@i3@@YAPAXI@Z PROC				; i3::tls_malloc, COMDAT

; 35   : 	{

  00000	55		 push	 ebp
  00001	8b ec		 mov	 ebp, esp

; 180  : 			return reinterpret_cast<thread_data*>(::TlsGetValue(m_dwTlsIdx));

  00003	ff 35 00 00 00
	00		 push	 DWORD PTR ?g_TlsManager@detail_tls@i3@@3Vtls_mgr@12@A
  00009	ff 15 00 00 00
	00		 call	 DWORD PTR __imp__TlsGetValue@4
; File E:\Proyectos\JuegosOnlineproyectos\PB\pbblow\Piercing Blow Remake\i3Server\include\i3Base\memory\memory_alloc.inl

; 87   : 		return ::HeapAlloc(HANDLE(h), 0, size);

  0000f	ff 75 08	 push	 DWORD PTR _n$[ebp]
  00012	6a 00		 push	 0
  00014	ff 70 20	 push	 DWORD PTR [eax+32]
  00017	ff 15 00 00 00
	00		 call	 DWORD PTR __imp__HeapAlloc@12
; File E:\Proyectos\JuegosOnlineproyectos\PB\pbblow\Piercing Blow Remake\i3Server\include\i3Base\tls\detail\tls_mgr.inl

; 37   : 	}

  0001d	5d		 pop	 ebp
  0001e	c3		 ret	 0
?tls_malloc@i3@@YAPAXI@Z ENDP				; i3::tls_malloc
_TEXT	ENDS
; Function compile flags: /Ogtp
; File E:\Proyectos\JuegosOnlineproyectos\PB\pbblow\Piercing Blow Remake\i3Server\include\i3Base\tls\detail\tls_mgr.inl
; File E:\Proyectos\JuegosOnlineproyectos\PB\pbblow\Piercing Blow Remake\i3Server\include\i3Base\itl\detail\vector.h
; File E:\Proyectos\JuegosOnlineproyectos\PB\pbblow\Piercing Blow Remake\i3Server\include\i3Base\tls\detail\tls_mgr.inl
;	COMDAT ?get_num_tls_ptr@i3@@YAIXZ
_TEXT	SEGMENT
?get_num_tls_ptr@i3@@YAIXZ PROC				; i3::get_num_tls_ptr, COMDAT
; File E:\Proyectos\JuegosOnlineproyectos\PB\pbblow\Piercing Blow Remake\i3Server\include\i3Base\itl\detail\vector.h

; 153  : 		size_type		size() const	{ return m_last - m_first; }

  00000	a1 0c 00 00 00	 mov	 eax, DWORD PTR ?g_TlsManager@detail_tls@i3@@3Vtls_mgr@12@A+12
  00005	2b 05 08 00 00
	00		 sub	 eax, DWORD PTR ?g_TlsManager@detail_tls@i3@@3Vtls_mgr@12@A+8
  0000b	c1 f8 02	 sar	 eax, 2
; File E:\Proyectos\JuegosOnlineproyectos\PB\pbblow\Piercing Blow Remake\i3Server\include\i3Base\tls\detail\tls_mgr.inl

; 31   : 	}

  0000e	c3		 ret	 0
?get_num_tls_ptr@i3@@YAIXZ ENDP				; i3::get_num_tls_ptr
_TEXT	ENDS
; Function compile flags: /Ogtp
; File E:\Proyectos\JuegosOnlineproyectos\PB\pbblow\Piercing Blow Remake\i3Server\include\i3Base\tls\detail\tls_mgr.inl
; File E:\Proyectos\JuegosOnlineproyectos\PB\pbblow\Piercing Blow Remake\i3Server\include\i3Base\itl\detail\vector.h
; File E:\Proyectos\JuegosOnlineproyectos\PB\pbblow\Piercing Blow Remake\i3Server\include\i3Base\tls\detail\tls_mgr.inl
;	COMDAT ?get_num_tls_thread_id@i3@@YAKXZ
_TEXT	SEGMENT
?get_num_tls_thread_id@i3@@YAKXZ PROC			; i3::get_num_tls_thread_id, COMDAT
; File E:\Proyectos\JuegosOnlineproyectos\PB\pbblow\Piercing Blow Remake\i3Server\include\i3Base\itl\detail\vector.h

; 153  : 		size_type		size() const	{ return m_last - m_first; }

  00000	a1 1c 00 00 00	 mov	 eax, DWORD PTR ?g_TlsManager@detail_tls@i3@@3Vtls_mgr@12@A+28
  00005	2b 05 18 00 00
	00		 sub	 eax, DWORD PTR ?g_TlsManager@detail_tls@i3@@3Vtls_mgr@12@A+24
  0000b	c1 f8 02	 sar	 eax, 2
; File E:\Proyectos\JuegosOnlineproyectos\PB\pbblow\Piercing Blow Remake\i3Server\include\i3Base\tls\detail\tls_mgr.inl

; 25   : 	}

  0000e	c3		 ret	 0
?get_num_tls_thread_id@i3@@YAKXZ ENDP			; i3::get_num_tls_thread_id
_TEXT	ENDS
; Function compile flags: /Ogtp
; File E:\Proyectos\JuegosOnlineproyectos\PB\pbblow\Piercing Blow Remake\i3Server\include\i3Base\tls\detail\tls_mgr.inl
;	COMDAT ?get_curr_tls_thread_id@i3@@YAKXZ
_TEXT	SEGMENT
?get_curr_tls_thread_id@i3@@YAKXZ PROC			; i3::get_curr_tls_thread_id, COMDAT

; 180  : 			return reinterpret_cast<thread_data*>(::TlsGetValue(m_dwTlsIdx));

  00000	ff 35 00 00 00
	00		 push	 DWORD PTR ?g_TlsManager@detail_tls@i3@@3Vtls_mgr@12@A
  00006	ff 15 00 00 00
	00		 call	 DWORD PTR __imp__TlsGetValue@4

; 18   : 		return detail_tls::get_curr_thread_data()->get_thread_id();

  0000c	8b 40 28	 mov	 eax, DWORD PTR [eax+40]

; 19   : 	}

  0000f	c3		 ret	 0
?get_curr_tls_thread_id@i3@@YAKXZ ENDP			; i3::get_curr_tls_thread_id
_TEXT	ENDS
; Function compile flags: /Ogtp
; File E:\Proyectos\JuegosOnlineproyectos\PB\pbblow\Piercing Blow Remake\i3Server\include\i3Base\itl\detail\vector.h
; File E:\Proyectos\JuegosOnlineproyectos\PB\pbblow\Piercing Blow Remake\i3Server\include\i3Base\memory\heap_allocator.h
; File E:\Proyectos\JuegosOnlineproyectos\PB\pbblow\Piercing Blow Remake\i3Server\include\i3Base\memory\memory_aligned_apply.h
; File E:\Proyectos\JuegosOnlineproyectos\PB\pbblow\Piercing Blow Remake\i3Server\include\i3Base\memory\memory_alloc.inl
; File E:\Proyectos\JuegosOnlineproyectos\PB\pbblow\Piercing Blow Remake\i3Server\include\i3Base\memory\memory_aligned_apply.h
; File E:\Proyectos\JuegosOnlineproyectos\PB\pbblow\Piercing Blow Remake\i3Server\include\i3Base\itl\detail\vector.h
; File E:\Proyectos\JuegosOnlineproyectos\PB\pbblow\Piercing Blow Remake\i3Server\include\i3Base\itl\memory.h
; File C:\Program Files (x86)\Windows Kits\10\Include\10.0.26100.0\ucrt\corecrt_memcpy_s.h
; File E:\Proyectos\JuegosOnlineproyectos\PB\pbblow\Piercing Blow Remake\i3Server\include\i3Base\itl\memory.h
; File E:\Proyectos\JuegosOnlineproyectos\PB\pbblow\Piercing Blow Remake\i3Server\include\i3Base\itl\detail\vector.h
; File E:\Proyectos\JuegosOnlineproyectos\PB\pbblow\Piercing Blow Remake\i3Server\include\i3Base\itl\memory.h
; File E:\Proyectos\JuegosOnlineproyectos\PB\pbblow\Piercing Blow Remake\i3Server\include\i3Base\itl\detail\vector.h
; File E:\Proyectos\JuegosOnlineproyectos\PB\pbblow\Piercing Blow Remake\i3Server\include\i3Base\itl\memory.h
; File C:\Program Files (x86)\Windows Kits\10\Include\10.0.26100.0\ucrt\corecrt_memcpy_s.h
; File E:\Proyectos\JuegosOnlineproyectos\PB\pbblow\Piercing Blow Remake\i3Server\include\i3Base\itl\detail\vector.h
; File C:\Program Files (x86)\Windows Kits\10\Include\10.0.26100.0\ucrt\corecrt_memcpy_s.h
; File E:\Proyectos\JuegosOnlineproyectos\PB\pbblow\Piercing Blow Remake\i3Server\include\i3Base\itl\detail\vector.h
; File E:\Proyectos\JuegosOnlineproyectos\PB\pbblow\Piercing Blow Remake\i3Server\include\i3Base\memory\memory_aligned_apply.h
; File E:\Proyectos\JuegosOnlineproyectos\PB\pbblow\Piercing Blow Remake\i3Server\include\i3Base\memory\memory_alloc.inl
; File E:\Proyectos\JuegosOnlineproyectos\PB\pbblow\Piercing Blow Remake\i3Server\include\i3Base\itl\detail\vector.h
; File E:\Proyectos\JuegosOnlineproyectos\PB\pbblow\Piercing Blow Remake\i3Server\include\i3Base\itl\xutility.h
; File E:\Proyectos\JuegosOnlineproyectos\PB\pbblow\Piercing Blow Remake\i3Server\include\i3Base\itl\detail\vector.h
; File C:\Program Files (x86)\Windows Kits\10\Include\10.0.26100.0\ucrt\corecrt_memcpy_s.h
; File E:\Proyectos\JuegosOnlineproyectos\PB\pbblow\Piercing Blow Remake\i3Server\include\i3Base\itl\detail\vector.h
; File C:\Program Files (x86)\Windows Kits\10\Include\10.0.26100.0\ucrt\corecrt_memcpy_s.h
; File E:\Proyectos\JuegosOnlineproyectos\PB\pbblow\Piercing Blow Remake\i3Server\include\i3Base\itl\detail\vector.h
; File E:\Proyectos\JuegosOnlineproyectos\PB\pbblow\Piercing Blow Remake\i3Server\include\i3Base\itl\xutility.h
; File C:\Program Files (x86)\Windows Kits\10\Include\10.0.26100.0\ucrt\corecrt_memcpy_s.h
; File E:\Proyectos\JuegosOnlineproyectos\PB\pbblow\Piercing Blow Remake\i3Server\include\i3Base\itl\detail\vector.h
; File E:\Proyectos\JuegosOnlineproyectos\PB\pbblow\Piercing Blow Remake\i3Server\include\i3Base\itl\xutility.h
; File E:\Proyectos\JuegosOnlineproyectos\PB\pbblow\Piercing Blow Remake\i3Server\include\i3Base\itl\detail\vector.h
;	COMDAT ?insert_1@?$vector@PAVtls_base@i3@@V?$heap_allocator@PAVtls_base@i3@@@2@@i3@@AAEXPBQAVtls_base@2@ABQAV32@@Z
_TEXT	SEGMENT
tv1024 = -4						; size = 4
tv1027 = -4						; size = 4
_where$ = 8						; size = 4
_Result$1$ = 8						; size = 4
tv964 = 8						; size = 4
tv1031 = 8						; size = 4
_val$ = 12						; size = 4
?insert_1@?$vector@PAVtls_base@i3@@V?$heap_allocator@PAVtls_base@i3@@@2@@i3@@AAEXPBQAVtls_base@2@ABQAV32@@Z PROC ; i3::vector<i3::tls_base *,i3::heap_allocator<i3::tls_base *> >::insert_1, COMDAT
; _this$ = ecx

; 396  : 		{	// insert _Count * _Val at _Where

  00000	55		 push	 ebp
  00001	8b ec		 mov	 ebp, esp
  00003	51		 push	 ecx
  00004	53		 push	 ebx
  00005	56		 push	 esi
  00006	8b 75 08	 mov	 esi, DWORD PTR _where$[ebp]

; 397  : 			iterator Where = iterator(where);
; 398  : 			size_type Capacity = capacity();
; 399  : 
; 400  : 			if ( max_size() - size() < 1 )

  00009	b8 ff ff ff 3f	 mov	 eax, 1073741823		; 3fffffffH
  0000e	57		 push	 edi
  0000f	8b f9		 mov	 edi, ecx

; 153  : 		size_type		size() const	{ return m_last - m_first; }

  00011	8b 4f 08	 mov	 ecx, DWORD PTR [edi+8]
  00014	8b d1		 mov	 edx, ecx
  00016	2b 57 04	 sub	 edx, DWORD PTR [edi+4]

; 132  : 		size_type		capacity() const { return m_end - m_first; }

  00019	8b 5f 0c	 mov	 ebx, DWORD PTR [edi+12]
  0001c	2b 5f 04	 sub	 ebx, DWORD PTR [edi+4]

; 153  : 		size_type		size() const	{ return m_last - m_first; }

  0001f	c1 fa 02	 sar	 edx, 2

; 397  : 			iterator Where = iterator(where);
; 398  : 			size_type Capacity = capacity();
; 399  : 
; 400  : 			if ( max_size() - size() < 1 )

  00022	2b c2		 sub	 eax, edx

; 132  : 		size_type		capacity() const { return m_end - m_first; }

  00024	c1 fb 02	 sar	 ebx, 2

; 153  : 		size_type		size() const	{ return m_last - m_first; }

  00027	89 4d 08	 mov	 DWORD PTR _Result$1$[ebp], ecx

; 397  : 			iterator Where = iterator(where);
; 398  : 			size_type Capacity = capacity();
; 399  : 
; 400  : 			if ( max_size() - size() < 1 )

  0002a	83 f8 01	 cmp	 eax, 1
  0002d	0f 82 d6 01 00
	00		 jb	 $LN116@insert_1

; 401  : 				;
; 402  : 			else if ( Capacity < size() + 1 )

  00033	42		 inc	 edx
  00034	3b da		 cmp	 ebx, edx
  00036	0f 83 fd 00 00
	00		 jae	 $LN4@insert_1

; 403  : 			{	// not enough room, reallocate
; 404  : 				Capacity = ( max_size() - Capacity / 2 < Capacity) ? 0 : Capacity + Capacity / 2;	// try to grow by 50%

  0003c	8b c3		 mov	 eax, ebx
  0003e	b9 ff ff ff 3f	 mov	 ecx, 1073741823		; 3fffffffH
  00043	d1 e8		 shr	 eax, 1
  00045	2b c8		 sub	 ecx, eax

; 405  : 				if ( Capacity < size() + 1)	Capacity = size() + 1;

  00047	03 c3		 add	 eax, ebx
  00049	89 4d 08	 mov	 DWORD PTR tv964[ebp], ecx
  0004c	33 c9		 xor	 ecx, ecx
  0004e	39 5d 08	 cmp	 DWORD PTR tv964[ebp], ebx
  00051	0f 43 c8	 cmovae	 ecx, eax
; File E:\Proyectos\JuegosOnlineproyectos\PB\pbblow\Piercing Blow Remake\i3Server\include\i3Base\memory\heap_allocator.h

; 36   : 			return (pointer)heap_aligned_malloc(m_heap, _Count * sizeof(T), __alignof(T) );

  00054	3b ca		 cmp	 ecx, edx
  00056	0f 43 d1	 cmovae	 edx, ecx
  00059	c1 e2 02	 shl	 edx, 2
  0005c	89 55 fc	 mov	 DWORD PTR tv1024[ebp], edx
; File E:\Proyectos\JuegosOnlineproyectos\PB\pbblow\Piercing Blow Remake\i3Server\include\i3Base\memory\memory_aligned_apply.h

; 19   : 	size_t	calculate_aligned_malloc_size(size_t size, size_t adjusted_align) { return sizeof(void*) + size + adjusted_align;  }

  0005f	8d 42 08	 lea	 eax, DWORD PTR [edx+8]
; File E:\Proyectos\JuegosOnlineproyectos\PB\pbblow\Piercing Blow Remake\i3Server\include\i3Base\memory\memory_alloc.inl

; 101  : 		void* data = ::HeapAlloc(HANDLE(h), 0, calculate_aligned_malloc_size(size, align) );

  00062	50		 push	 eax
  00063	6a 00		 push	 0
  00065	ff 37		 push	 DWORD PTR [edi]
  00067	ff 15 00 00 00
	00		 call	 DWORD PTR __imp__HeapAlloc@12
; File E:\Proyectos\JuegosOnlineproyectos\PB\pbblow\Piercing Blow Remake\i3Server\include\i3Base\memory\memory_aligned_apply.h

; 24   : 		uintptr_t result = ( uintptr_t(raw_data) + sizeof(void*) + adjusted_align - 1 ) & ~(adjusted_align - 1);

  0006d	8d 58 07	 lea	 ebx, DWORD PTR [eax+7]
  00070	83 e3 fc	 and	 ebx, -4			; fffffffcH

; 25   : 		((uintptr_t*)result)[-1] = (uintptr_t)raw_data;

  00073	89 43 fc	 mov	 DWORD PTR [ebx-4], eax
; File E:\Proyectos\JuegosOnlineproyectos\PB\pbblow\Piercing Blow Remake\i3Server\include\i3Base\itl\detail\vector.h

; 408  : 				size_type Whereoff = Where - m_first;

  00076	8b c6		 mov	 eax, esi
  00078	2b 47 04	 sub	 eax, DWORD PTR [edi+4]
  0007b	c1 f8 02	 sar	 eax, 2

; 409  : 			
; 410  : 				i3::uninitialized_fill_1(Newvec + Whereoff, val, allocator_base::get() );	// i3::uninitialized_fill_1(Newvec + Whereoff, val, m_alloc );	// add new stuff

  0007e	8d 0c 83	 lea	 ecx, DWORD PTR [ebx+eax*4]
  00081	8b 45 0c	 mov	 eax, DWORD PTR _val$[ebp]
  00084	89 4d 08	 mov	 DWORD PTR tv1031[ebp], ecx
  00087	8b 00		 mov	 eax, DWORD PTR [eax]
  00089	89 01		 mov	 DWORD PTR [ecx], eax
; File E:\Proyectos\JuegosOnlineproyectos\PB\pbblow\Piercing Blow Remake\i3Server\include\i3Base\itl\memory.h

; 58   : 			size_t count = (size_t)(Last - First);

  0008b	8b c6		 mov	 eax, esi

; 133  : 		return detail::uninit_copy(First, Last, Dest, Al,	pointer_category(First, Dest) ) ;

  0008d	8b 4f 04	 mov	 ecx, DWORD PTR [edi+4]

; 58   : 			size_t count = (size_t)(Last - First);

  00090	2b c1		 sub	 eax, ecx
  00092	c1 f8 02	 sar	 eax, 2

; 60   : 			if (count > 0)

  00095	85 c0		 test	 eax, eax
  00097	74 28		 je	 SHORT $LN38@insert_1

; 61   : 				::memmove_s(&*Dest, count * sizeof (*First), &*First, count * sizeof (*First));	// NB: non-overlapping move

  00099	c1 e0 02	 shl	 eax, 2
; File C:\Program Files (x86)\Windows Kits\10\Include\10.0.26100.0\ucrt\corecrt_memcpy_s.h

; 76   :         if (_SourceSize == 0)

  0009c	85 c0		 test	 eax, eax
  0009e	74 21		 je	 SHORT $LN38@insert_1

; 82   :         _CRT_MEMCPY_S_VALIDATE_RETURN_ERRCODE(_Source != NULL,                 EINVAL);

  000a0	85 c9		 test	 ecx, ecx
  000a2	75 12		 jne	 SHORT $LN41@insert_1
  000a4	e8 00 00 00 00	 call	 __errno
  000a9	c7 00 16 00 00
	00		 mov	 DWORD PTR [eax], 22	; 00000016H
  000af	e8 00 00 00 00	 call	 __invalid_parameter_noinfo
  000b4	eb 0b		 jmp	 SHORT $LN38@insert_1
$LN41@insert_1:

; 83   :         _CRT_MEMCPY_S_VALIDATE_RETURN_ERRCODE(_DestinationSize >= _SourceSize, ERANGE);
; 84   : 
; 85   :         memmove(_Destination, _Source, _SourceSize);

  000b6	50		 push	 eax
  000b7	51		 push	 ecx
  000b8	53		 push	 ebx
  000b9	e8 00 00 00 00	 call	 _memmove
  000be	83 c4 0c	 add	 esp, 12			; 0000000cH
$LN38@insert_1:
; File E:\Proyectos\JuegosOnlineproyectos\PB\pbblow\Piercing Blow Remake\i3Server\include\i3Base\itl\memory.h

; 58   : 			size_t count = (size_t)(Last - First);

  000c1	8b 47 08	 mov	 eax, DWORD PTR [edi+8]
; File E:\Proyectos\JuegosOnlineproyectos\PB\pbblow\Piercing Blow Remake\i3Server\include\i3Base\itl\detail\vector.h

; 412  : 				i3::uninitialized_copy(Where, m_last, Newvec + Whereoff + 1, allocator_base::get());	//i3::uninitialized_copy( Where, m_last, Newvec + Whereoff + 1, m_alloc);	// move suffix

  000c4	8b 4d 08	 mov	 ecx, DWORD PTR tv1031[ebp]
; File E:\Proyectos\JuegosOnlineproyectos\PB\pbblow\Piercing Blow Remake\i3Server\include\i3Base\itl\memory.h

; 58   : 			size_t count = (size_t)(Last - First);

  000c7	2b c6		 sub	 eax, esi
  000c9	c1 f8 02	 sar	 eax, 2
; File E:\Proyectos\JuegosOnlineproyectos\PB\pbblow\Piercing Blow Remake\i3Server\include\i3Base\itl\detail\vector.h

; 412  : 				i3::uninitialized_copy(Where, m_last, Newvec + Whereoff + 1, allocator_base::get());	//i3::uninitialized_copy( Where, m_last, Newvec + Whereoff + 1, m_alloc);	// move suffix

  000cc	83 c1 04	 add	 ecx, 4
; File E:\Proyectos\JuegosOnlineproyectos\PB\pbblow\Piercing Blow Remake\i3Server\include\i3Base\itl\memory.h

; 60   : 			if (count > 0)

  000cf	85 c0		 test	 eax, eax
  000d1	74 2c		 je	 SHORT $LN51@insert_1

; 61   : 				::memmove_s(&*Dest, count * sizeof (*First), &*First, count * sizeof (*First));	// NB: non-overlapping move

  000d3	c1 e0 02	 shl	 eax, 2
; File C:\Program Files (x86)\Windows Kits\10\Include\10.0.26100.0\ucrt\corecrt_memcpy_s.h

; 76   :         if (_SourceSize == 0)

  000d6	85 c0		 test	 eax, eax
  000d8	74 25		 je	 SHORT $LN51@insert_1

; 81   :         _CRT_MEMCPY_S_VALIDATE_RETURN_ERRCODE(_Destination != NULL,            EINVAL);

  000da	85 c9		 test	 ecx, ecx
  000dc	75 12		 jne	 SHORT $LN53@insert_1
$LN152@insert_1:
; File E:\Proyectos\JuegosOnlineproyectos\PB\pbblow\Piercing Blow Remake\i3Server\include\i3Base\itl\detail\vector.h

; 153  : 		size_type		size() const	{ return m_last - m_first; }

  000de	e8 00 00 00 00	 call	 __errno
  000e3	c7 00 16 00 00
	00		 mov	 DWORD PTR [eax], 22	; 00000016H
  000e9	e8 00 00 00 00	 call	 __invalid_parameter_noinfo
  000ee	eb 0f		 jmp	 SHORT $LN51@insert_1
$LN53@insert_1:
; File C:\Program Files (x86)\Windows Kits\10\Include\10.0.26100.0\ucrt\corecrt_memcpy_s.h

; 82   :         _CRT_MEMCPY_S_VALIDATE_RETURN_ERRCODE(_Source != NULL,                 EINVAL);

  000f0	85 f6		 test	 esi, esi
  000f2	74 ea		 je	 SHORT $LN152@insert_1

; 83   :         _CRT_MEMCPY_S_VALIDATE_RETURN_ERRCODE(_DestinationSize >= _SourceSize, ERANGE);
; 84   : 
; 85   :         memmove(_Destination, _Source, _SourceSize);

  000f4	50		 push	 eax
  000f5	56		 push	 esi
  000f6	51		 push	 ecx
  000f7	e8 00 00 00 00	 call	 _memmove
  000fc	83 c4 0c	 add	 esp, 12			; 0000000cH
$LN51@insert_1:
; File E:\Proyectos\JuegosOnlineproyectos\PB\pbblow\Piercing Blow Remake\i3Server\include\i3Base\itl\detail\vector.h

; 153  : 		size_type		size() const	{ return m_last - m_first; }

  000ff	8b 47 04	 mov	 eax, DWORD PTR [edi+4]
  00102	8b 77 08	 mov	 esi, DWORD PTR [edi+8]
  00105	2b f0		 sub	 esi, eax
  00107	c1 fe 02	 sar	 esi, 2

; 413  : 
; 414  : 				size_type count = 1 + size();

  0010a	46		 inc	 esi

; 415  : 
; 416  : 				if (m_first != 0)		// destroy and deallocate old array

  0010b	85 c0		 test	 eax, eax
  0010d	74 10		 je	 SHORT $LN63@insert_1
; File E:\Proyectos\JuegosOnlineproyectos\PB\pbblow\Piercing Blow Remake\i3Server\include\i3Base\memory\memory_aligned_apply.h

; 33   : 		ptr = ( ptr & ~( sizeof(void*) -1 ) ) - sizeof(void*);

  0010f	83 e0 fc	 and	 eax, -4			; fffffffcH
; File E:\Proyectos\JuegosOnlineproyectos\PB\pbblow\Piercing Blow Remake\i3Server\include\i3Base\memory\memory_alloc.inl

; 109  : 		::HeapFree(HANDLE(h), 0, get_raw_data_from_aligned_malloc(data) );

  00112	ff 70 fc	 push	 DWORD PTR [eax-4]
  00115	6a 00		 push	 0
  00117	ff 37		 push	 DWORD PTR [edi]
  00119	ff 15 00 00 00
	00		 call	 DWORD PTR __imp__HeapFree@12
$LN63@insert_1:
; File E:\Proyectos\JuegosOnlineproyectos\PB\pbblow\Piercing Blow Remake\i3Server\include\i3Base\itl\detail\vector.h

; 422  : 				m_end = Newvec + Capacity;

  0011f	8b 45 fc	 mov	 eax, DWORD PTR tv1024[ebp]
  00122	03 c3		 add	 eax, ebx

; 423  : 				m_last = Newvec + count;
; 424  : 				m_first = Newvec;

  00124	89 5f 04	 mov	 DWORD PTR [edi+4], ebx
  00127	89 47 0c	 mov	 DWORD PTR [edi+12], eax
  0012a	8d 04 b3	 lea	 eax, DWORD PTR [ebx+esi*4]
  0012d	89 47 08	 mov	 DWORD PTR [edi+8], eax
  00130	5f		 pop	 edi

; 443  : 		}

  00131	5e		 pop	 esi
  00132	5b		 pop	 ebx
  00133	8b e5		 mov	 esp, ebp
  00135	5d		 pop	 ebp
  00136	c2 08 00	 ret	 8
$LN4@insert_1:

; 425  : 			}
; 426  : 			else if ( (size_type)( m_last - Where ) < 1 )

  00139	8b c1		 mov	 eax, ecx
  0013b	2b c6		 sub	 eax, esi
  0013d	89 45 fc	 mov	 DWORD PTR tv1027[ebp], eax
  00140	8b 45 0c	 mov	 eax, DWORD PTR _val$[ebp]
  00143	8b 18		 mov	 ebx, DWORD PTR [eax]
  00145	8b 45 fc	 mov	 eax, DWORD PTR tv1027[ebp]
  00148	c1 f8 02	 sar	 eax, 2
  0014b	83 f8 01	 cmp	 eax, 1
  0014e	73 27		 jae	 SHORT $LN8@insert_1

; 427  : 			{	// new stuff spills off end
; 428  : 				T Tmp = val;	// in case _Val is in sequence
; 429  : 				i3::uninitialized_copy(Where, m_last, Where + 1, allocator_base::get()); // i3::uninitialized_copy( Where, m_last, Where + 1 , m_alloc );	//  copy suffix
; 430  : 				i3::uninitialized_fill_1(m_last, Tmp, allocator_base::get());			// i3::uninitialized_fill_1( m_last, Tmp, m_alloc);	// insert new stuff off end

  00150	8b c1		 mov	 eax, ecx
  00152	89 18		 mov	 DWORD PTR [eax], ebx

; 431  : 				++m_last;

  00154	8b 4f 08	 mov	 ecx, DWORD PTR [edi+8]
  00157	8d 41 04	 lea	 eax, DWORD PTR [ecx+4]
  0015a	89 47 08	 mov	 DWORD PTR [edi+8], eax
; File E:\Proyectos\JuegosOnlineproyectos\PB\pbblow\Piercing Blow Remake\i3Server\include\i3Base\itl\xutility.h

; 140  : 			for (; First != Last; ++First)

  0015d	3b f1		 cmp	 esi, ecx
  0015f	0f 84 a4 00 00
	00		 je	 $LN116@insert_1
$LL86@insert_1:

; 141  : 				*First = Val;

  00165	89 1e		 mov	 DWORD PTR [esi], ebx
  00167	83 c6 04	 add	 esi, 4
  0016a	3b f1		 cmp	 esi, ecx
  0016c	75 f7		 jne	 SHORT $LL86@insert_1
; File E:\Proyectos\JuegosOnlineproyectos\PB\pbblow\Piercing Blow Remake\i3Server\include\i3Base\itl\detail\vector.h

; 443  : 		}

  0016e	5f		 pop	 edi
  0016f	5e		 pop	 esi
  00170	5b		 pop	 ebx
  00171	8b e5		 mov	 esp, ebp
  00173	5d		 pop	 ebp
  00174	c2 08 00	 ret	 8
$LN8@insert_1:

; 439  : 				m_last = i3::uninitialized_copy(Oldend - 1, Oldend, m_last, allocator_base::get()); // i3::uninitialized_copy( Oldend - 1, Oldend, m_last, m_alloc);// copy suffix

  00177	8d 41 fc	 lea	 eax, DWORD PTR [ecx-4]
; File C:\Program Files (x86)\Windows Kits\10\Include\10.0.26100.0\ucrt\corecrt_memcpy_s.h

; 81   :         _CRT_MEMCPY_S_VALIDATE_RETURN_ERRCODE(_Destination != NULL,            EINVAL);

  0017a	85 c9		 test	 ecx, ecx
  0017c	75 15		 jne	 SHORT $LN97@insert_1
$LN153@insert_1:
; File E:\Proyectos\JuegosOnlineproyectos\PB\pbblow\Piercing Blow Remake\i3Server\include\i3Base\itl\detail\vector.h

; 439  : 				m_last = i3::uninitialized_copy(Oldend - 1, Oldend, m_last, allocator_base::get()); // i3::uninitialized_copy( Oldend - 1, Oldend, m_last, m_alloc);// copy suffix

  0017e	e8 00 00 00 00	 call	 __errno
  00183	c7 00 16 00 00
	00		 mov	 DWORD PTR [eax], 22	; 00000016H
  00189	e8 00 00 00 00	 call	 __invalid_parameter_noinfo
  0018e	8b 4d 08	 mov	 ecx, DWORD PTR _Result$1$[ebp]
  00191	eb 08		 jmp	 SHORT $LN95@insert_1
$LN97@insert_1:
; File C:\Program Files (x86)\Windows Kits\10\Include\10.0.26100.0\ucrt\corecrt_memcpy_s.h

; 82   :         _CRT_MEMCPY_S_VALIDATE_RETURN_ERRCODE(_Source != NULL,                 EINVAL);

  00193	85 c0		 test	 eax, eax
  00195	74 e7		 je	 SHORT $LN153@insert_1

; 83   :         _CRT_MEMCPY_S_VALIDATE_RETURN_ERRCODE(_DestinationSize >= _SourceSize, ERANGE);
; 84   : 
; 85   :         memmove(_Destination, _Source, _SourceSize);

  00197	8b 00		 mov	 eax, DWORD PTR [eax]
  00199	89 01		 mov	 DWORD PTR [ecx], eax
$LN95@insert_1:
; File E:\Proyectos\JuegosOnlineproyectos\PB\pbblow\Piercing Blow Remake\i3Server\include\i3Base\itl\detail\vector.h

; 439  : 				m_last = i3::uninitialized_copy(Oldend - 1, Oldend, m_last, allocator_base::get()); // i3::uninitialized_copy( Oldend - 1, Oldend, m_last, m_alloc);// copy suffix

  0019b	8d 41 04	 lea	 eax, DWORD PTR [ecx+4]
  0019e	89 47 08	 mov	 DWORD PTR [edi+8], eax
; File E:\Proyectos\JuegosOnlineproyectos\PB\pbblow\Piercing Blow Remake\i3Server\include\i3Base\itl\xutility.h

; 192  : 			ptrdiff_t Off = Last - First;	// NB: non-overlapping move

  001a1	8b 45 fc	 mov	 eax, DWORD PTR tv1027[ebp]
  001a4	83 c0 fc	 add	 eax, -4			; fffffffcH
  001a7	c1 f8 02	 sar	 eax, 2

; 193  : 			// if _OutIt is range checked, this will make sure there is enough space for the memmove
; 194  : 			
; 195  : 			BidirectionalIterator2 Result = Dest - Off;

  001aa	8d 14 85 00 00
	00 00		 lea	 edx, DWORD PTR [eax*4]
  001b1	2b ca		 sub	 ecx, edx

; 196  : 			if (Off > 0)

  001b3	85 c0		 test	 eax, eax
  001b5	7e 40		 jle	 SHORT $LN106@insert_1
; File C:\Program Files (x86)\Windows Kits\10\Include\10.0.26100.0\ucrt\corecrt_memcpy_s.h

; 76   :         if (_SourceSize == 0)

  001b7	85 d2		 test	 edx, edx
  001b9	74 3c		 je	 SHORT $LN106@insert_1

; 81   :         _CRT_MEMCPY_S_VALIDATE_RETURN_ERRCODE(_Destination != NULL,            EINVAL);

  001bb	85 c9		 test	 ecx, ecx
  001bd	75 12		 jne	 SHORT $LN108@insert_1
  001bf	e8 00 00 00 00	 call	 __errno
  001c4	c7 00 16 00 00
	00		 mov	 DWORD PTR [eax], 22	; 00000016H
  001ca	e8 00 00 00 00	 call	 __invalid_parameter_noinfo
  001cf	eb 26		 jmp	 SHORT $LN106@insert_1
$LN108@insert_1:

; 82   :         _CRT_MEMCPY_S_VALIDATE_RETURN_ERRCODE(_Source != NULL,                 EINVAL);

  001d1	85 f6		 test	 esi, esi
  001d3	75 17		 jne	 SHORT $LN109@insert_1
  001d5	e8 00 00 00 00	 call	 __errno
  001da	c7 00 16 00 00
	00		 mov	 DWORD PTR [eax], 22	; 00000016H
  001e0	e8 00 00 00 00	 call	 __invalid_parameter_noinfo
  001e5	8b c6		 mov	 eax, esi
  001e7	8d 4e 04	 lea	 ecx, DWORD PTR [esi+4]
  001ea	eb 14		 jmp	 SHORT $LL117@insert_1
$LN109@insert_1:

; 83   :         _CRT_MEMCPY_S_VALIDATE_RETURN_ERRCODE(_DestinationSize >= _SourceSize, ERANGE);
; 84   : 
; 85   :         memmove(_Destination, _Source, _SourceSize);

  001ec	52		 push	 edx
  001ed	56		 push	 esi
  001ee	51		 push	 ecx
  001ef	e8 00 00 00 00	 call	 _memmove
  001f4	83 c4 0c	 add	 esp, 12			; 0000000cH
$LN106@insert_1:
; File E:\Proyectos\JuegosOnlineproyectos\PB\pbblow\Piercing Blow Remake\i3Server\include\i3Base\itl\detail\vector.h

; 441  : 				i3::fill(Where, Where + 1,	Tmp);	// insert into hole

  001f7	8d 4e 04	 lea	 ecx, DWORD PTR [esi+4]
; File E:\Proyectos\JuegosOnlineproyectos\PB\pbblow\Piercing Blow Remake\i3Server\include\i3Base\itl\xutility.h

; 247  : 		detail::Fill(First, Last, Val);

  001fa	8b c6		 mov	 eax, esi

; 140  : 			for (; First != Last; ++First)

  001fc	3b f1		 cmp	 esi, ecx
  001fe	74 09		 je	 SHORT $LN116@insert_1
$LL117@insert_1:

; 141  : 				*First = Val;

  00200	89 18		 mov	 DWORD PTR [eax], ebx
  00202	83 c0 04	 add	 eax, 4
  00205	3b c1		 cmp	 eax, ecx
  00207	75 f7		 jne	 SHORT $LL117@insert_1
$LN116@insert_1:
  00209	5f		 pop	 edi
; File E:\Proyectos\JuegosOnlineproyectos\PB\pbblow\Piercing Blow Remake\i3Server\include\i3Base\itl\detail\vector.h

; 443  : 		}

  0020a	5e		 pop	 esi
  0020b	5b		 pop	 ebx
  0020c	8b e5		 mov	 esp, ebp
  0020e	5d		 pop	 ebp
  0020f	c2 08 00	 ret	 8
?insert_1@?$vector@PAVtls_base@i3@@V?$heap_allocator@PAVtls_base@i3@@@2@@i3@@AAEXPBQAVtls_base@2@ABQAV32@@Z ENDP ; i3::vector<i3::tls_base *,i3::heap_allocator<i3::tls_base *> >::insert_1
_TEXT	ENDS
; Function compile flags: /Ogtp
; File E:\Proyectos\JuegosOnlineproyectos\PB\pbblow\Piercing Blow Remake\i3Server\include\i3Base\itl\noncopyable.h
;	COMDAT ??1noncopyable@i3@@IAE@XZ
_TEXT	SEGMENT
??1noncopyable@i3@@IAE@XZ PROC				; i3::noncopyable::~noncopyable, COMDAT
; _this$ = ecx

; 15   : 		~noncopyable() {}

  00000	c2 00 00	 ret	 0
??1noncopyable@i3@@IAE@XZ ENDP				; i3::noncopyable::~noncopyable
_TEXT	ENDS
; Function compile flags: /Ogtp
; File E:\Proyectos\JuegosOnlineproyectos\PB\pbblow\Piercing Blow Remake\i3Server\include\i3Base\itl\noncopyable.h
;	COMDAT ??0noncopyable@i3@@IAE@XZ
_TEXT	SEGMENT
??0noncopyable@i3@@IAE@XZ PROC				; i3::noncopyable::noncopyable, COMDAT
; _this$ = ecx

; 14   : 		noncopyable() {}

  00000	8b c1		 mov	 eax, ecx
  00002	c3		 ret	 0
??0noncopyable@i3@@IAE@XZ ENDP				; i3::noncopyable::noncopyable
_TEXT	ENDS
END
