; Listing generated by Microsoft (R) Optimizing Compiler Version 19.50.35727.0 

	TITLE	E:\Proyectos\JuegosOnlineproyectos\PB\pbblow\Piercing Blow Remake\i3Server\Project\I3_DX\i3Server\x86\Release\REAL16.obj
	.686P
	.XMM
	include listing.inc
	.model	flat

INCLUDELIB LIBCMT
INCLUDELIB OLDNAMES

PUBLIC	?F2H@REAL16@@KAGM@Z				; REAL16::F2H
PUBLIC	?H2F@REAL16@@KAMG@Z				; REAL16::H2F
PUBLIC	??0REAL16@@QAE@XZ				; REAL16::REAL16
PUBLIC	??0REAL16@@QAE@M@Z				; REAL16::REAL16
PUBLIC	??4REAL16@@QAEAAV0@ABV0@@Z			; REAL16::operator=
PUBLIC	??4REAL16@@QAEAAV0@ABI@Z			; REAL16::operator=
PUBLIC	??4REAL16@@QAEAAV0@ABH@Z			; REAL16::operator=
PUBLIC	??4REAL16@@QAEAAV0@ABM@Z			; REAL16::operator=
PUBLIC	??BREAL16@@QBE?BMXZ				; REAL16::operator float const 
PUBLIC	__real@00000000
PUBLIC	__real@4f800000
EXTRN	__fltused:DWORD
;	COMDAT __real@4f800000
CONST	SEGMENT
__real@4f800000 DD 04f800000r			; 4.29497e+09
CONST	ENDS
;	COMDAT __real@00000000
CONST	SEGMENT
__real@00000000 DD 000000000r			; 0
CONST	ENDS
; Function compile flags: /Ogtp
; File E:\Proyectos\JuegosOnlineproyectos\PB\pbblow\Piercing Blow Remake\i3Server\include\i3Base\REAL16.h
;	COMDAT ??BREAL16@@QBE?BMXZ
_TEXT	SEGMENT
??BREAL16@@QBE?BMXZ PROC				; REAL16::operator float const , COMDAT
; _this$ = ecx

; 54   : 	operator const REAL32() const		{ return H2F( m_Value); }

  00000	0f b7 01	 movzx	 eax, WORD PTR [ecx]
  00003	50		 push	 eax
  00004	e8 00 00 00 00	 call	 ?H2F@REAL16@@KAMG@Z	; REAL16::H2F
  00009	83 c4 04	 add	 esp, 4
  0000c	c3		 ret	 0
??BREAL16@@QBE?BMXZ ENDP				; REAL16::operator float const 
_TEXT	ENDS
; Function compile flags: /Ogtp
; File E:\Proyectos\JuegosOnlineproyectos\PB\pbblow\Piercing Blow Remake\i3Server\include\i3Base\REAL16.h
;	COMDAT ??4REAL16@@QAEAAV0@ABM@Z
_TEXT	SEGMENT
_value$ = 8						; size = 4
??4REAL16@@QAEAAV0@ABM@Z PROC				; REAL16::operator=, COMDAT
; _this$ = ecx

; 48   : 	{

  00000	55		 push	 ebp
  00001	8b ec		 mov	 ebp, esp

; 49   : 		m_Value = F2H( value);

  00003	8b 45 08	 mov	 eax, DWORD PTR _value$[ebp]
  00006	56		 push	 esi
  00007	51		 push	 ecx
  00008	8b f1		 mov	 esi, ecx
  0000a	d9 00		 fld	 DWORD PTR [eax]
  0000c	d9 1c 24	 fstp	 DWORD PTR [esp]
  0000f	e8 00 00 00 00	 call	 ?F2H@REAL16@@KAGM@Z	; REAL16::F2H
  00014	83 c4 04	 add	 esp, 4
  00017	66 89 06	 mov	 WORD PTR [esi], ax

; 50   : 
; 51   : 		return *this;

  0001a	8b c6		 mov	 eax, esi
  0001c	5e		 pop	 esi

; 52   : 	}

  0001d	5d		 pop	 ebp
  0001e	c2 04 00	 ret	 4
??4REAL16@@QAEAAV0@ABM@Z ENDP				; REAL16::operator=
_TEXT	ENDS
; Function compile flags: /Ogtp
; File E:\Proyectos\JuegosOnlineproyectos\PB\pbblow\Piercing Blow Remake\i3Server\include\i3Base\REAL16.h
;	COMDAT ??4REAL16@@QAEAAV0@ABH@Z
_TEXT	SEGMENT
_value$ = 8						; size = 4
??4REAL16@@QAEAAV0@ABH@Z PROC				; REAL16::operator=, COMDAT
; _this$ = ecx

; 41   : 	{

  00000	55		 push	 ebp
  00001	8b ec		 mov	 ebp, esp

; 42   : 		m_Value = F2H( (REAL32)value);

  00003	8b 45 08	 mov	 eax, DWORD PTR _value$[ebp]
  00006	56		 push	 esi
  00007	51		 push	 ecx
  00008	8b f1		 mov	 esi, ecx
  0000a	f3 0f 2a 00	 cvtsi2ss xmm0, DWORD PTR [eax]
  0000e	f3 0f 11 04 24	 movss	 DWORD PTR [esp], xmm0
  00013	e8 00 00 00 00	 call	 ?F2H@REAL16@@KAGM@Z	; REAL16::F2H
  00018	83 c4 04	 add	 esp, 4
  0001b	66 89 06	 mov	 WORD PTR [esi], ax

; 43   : 
; 44   : 		return *this;

  0001e	8b c6		 mov	 eax, esi
  00020	5e		 pop	 esi

; 45   : 	}

  00021	5d		 pop	 ebp
  00022	c2 04 00	 ret	 4
??4REAL16@@QAEAAV0@ABH@Z ENDP				; REAL16::operator=
_TEXT	ENDS
; Function compile flags: /Ogtp
; File E:\Proyectos\JuegosOnlineproyectos\PB\pbblow\Piercing Blow Remake\i3Server\include\i3Base\REAL16.h
;	COMDAT ??4REAL16@@QAEAAV0@ABI@Z
_TEXT	SEGMENT
_value$ = 8						; size = 4
tv131 = 8						; size = 4
tv132 = 8						; size = 4
??4REAL16@@QAEAAV0@ABI@Z PROC				; REAL16::operator=, COMDAT
; _this$ = ecx

; 34   : 	{

  00000	55		 push	 ebp
  00001	8b ec		 mov	 ebp, esp

; 35   : 		m_Value = F2H( (REAL32)value);

  00003	8b 45 08	 mov	 eax, DWORD PTR _value$[ebp]
  00006	56		 push	 esi
  00007	8b f1		 mov	 esi, ecx
  00009	8b 00		 mov	 eax, DWORD PTR [eax]
  0000b	89 45 08	 mov	 DWORD PTR tv132[ebp], eax
  0000e	db 45 08	 fild	 DWORD PTR tv132[ebp]
  00011	85 c0		 test	 eax, eax
  00013	79 06		 jns	 SHORT $LN3@operator
  00015	d8 05 00 00 00
	00		 fadd	 DWORD PTR __real@4f800000
$LN3@operator:
  0001b	d9 5d 08	 fstp	 DWORD PTR tv131[ebp]
  0001e	d9 45 08	 fld	 DWORD PTR tv131[ebp]
  00021	51		 push	 ecx
  00022	d9 1c 24	 fstp	 DWORD PTR [esp]
  00025	e8 00 00 00 00	 call	 ?F2H@REAL16@@KAGM@Z	; REAL16::F2H
  0002a	83 c4 04	 add	 esp, 4
  0002d	66 89 06	 mov	 WORD PTR [esi], ax

; 36   : 
; 37   : 		return *this;

  00030	8b c6		 mov	 eax, esi
  00032	5e		 pop	 esi

; 38   : 	}

  00033	5d		 pop	 ebp
  00034	c2 04 00	 ret	 4
??4REAL16@@QAEAAV0@ABI@Z ENDP				; REAL16::operator=
_TEXT	ENDS
; Function compile flags: /Ogtp
; File E:\Proyectos\JuegosOnlineproyectos\PB\pbblow\Piercing Blow Remake\i3Server\include\i3Base\REAL16.h
;	COMDAT ??4REAL16@@QAEAAV0@ABV0@@Z
_TEXT	SEGMENT
_value$ = 8						; size = 4
??4REAL16@@QAEAAV0@ABV0@@Z PROC				; REAL16::operator=, COMDAT
; _this$ = ecx

; 27   : 	{

  00000	55		 push	 ebp
  00001	8b ec		 mov	 ebp, esp

; 28   : 		m_Value = value.m_Value;

  00003	8b 45 08	 mov	 eax, DWORD PTR _value$[ebp]
  00006	66 8b 00	 mov	 ax, WORD PTR [eax]
  00009	66 89 01	 mov	 WORD PTR [ecx], ax

; 29   : 
; 30   : 		return *this;

  0000c	8b c1		 mov	 eax, ecx

; 31   : 	}

  0000e	5d		 pop	 ebp
  0000f	c2 04 00	 ret	 4
??4REAL16@@QAEAAV0@ABV0@@Z ENDP				; REAL16::operator=
_TEXT	ENDS
; Function compile flags: /Ogtp
; File E:\Proyectos\JuegosOnlineproyectos\PB\pbblow\Piercing Blow Remake\i3Server\include\i3Base\REAL16.h
;	COMDAT ??0REAL16@@QAE@M@Z
_TEXT	SEGMENT
_val$ = 8						; size = 4
??0REAL16@@QAE@M@Z PROC					; REAL16::REAL16, COMDAT
; _this$ = ecx

; 21   : 	REAL16( REAL32 val)

  00000	55		 push	 ebp
  00001	8b ec		 mov	 ebp, esp

; 22   : 	{
; 23   : 		m_Value = F2H( val);

  00003	d9 45 08	 fld	 DWORD PTR _val$[ebp]
  00006	56		 push	 esi
  00007	51		 push	 ecx
  00008	d9 1c 24	 fstp	 DWORD PTR [esp]
  0000b	8b f1		 mov	 esi, ecx
  0000d	e8 00 00 00 00	 call	 ?F2H@REAL16@@KAGM@Z	; REAL16::F2H
  00012	83 c4 04	 add	 esp, 4
  00015	66 89 06	 mov	 WORD PTR [esi], ax

; 24   : 	}

  00018	8b c6		 mov	 eax, esi
  0001a	5e		 pop	 esi
  0001b	5d		 pop	 ebp
  0001c	c2 04 00	 ret	 4
??0REAL16@@QAE@M@Z ENDP					; REAL16::REAL16
_TEXT	ENDS
; Function compile flags: /Ogtp
; File E:\Proyectos\JuegosOnlineproyectos\PB\pbblow\Piercing Blow Remake\i3Server\include\i3Base\REAL16.h
;	COMDAT ??0REAL16@@QAE@XZ
_TEXT	SEGMENT
??0REAL16@@QAE@XZ PROC					; REAL16::REAL16, COMDAT
; _this$ = ecx

; 17   : 	{
; 18   : 		m_Value = 0;

  00000	33 c0		 xor	 eax, eax
  00002	66 89 01	 mov	 WORD PTR [ecx], ax

; 19   : 	}

  00005	8b c1		 mov	 eax, ecx
  00007	c3		 ret	 0
??0REAL16@@QAE@XZ ENDP					; REAL16::REAL16
_TEXT	ENDS
; Function compile flags: /Ogtp
; File E:\Proyectos\JuegosOnlineproyectos\PB\pbblow\Piercing Blow Remake\i3Server\src\i3Base\REAL16.cpp
;	COMDAT ?H2F@REAL16@@KAMG@Z
_TEXT	SEGMENT
_f$ = 8							; size = 4
_val$ = 8						; size = 2
?H2F@REAL16@@KAMG@Z PROC				; REAL16::H2F, COMDAT

; 85   : {

  00000	55		 push	 ebp
  00001	8b ec		 mov	 ebp, esp

; 86   : 	UINT32 hs, he, hm;
; 87   : 	UINT32 xs, xe, xm;
; 88   :     INT32 xes;
; 89   : 	INT32 e;
; 90   : 	UINT32 f;
; 91   : 
; 92   : 	if( (val & 0x7FFF) == 0 )

  00003	8b 45 08	 mov	 eax, DWORD PTR _val$[ebp]
  00006	a9 ff 7f 00 00	 test	 eax, 32767		; 00007fffH
  0000b	75 04		 jne	 SHORT $LN5@H2F

; 93   : 	{  
; 94   : 		// Signed zero
; 95   : 		return 0.0f;

  0000d	d9 ee		 fldz

; 141  : }

  0000f	5d		 pop	 ebp
  00010	c3		 ret	 0
$LN5@H2F:

; 96   : 	}
; 97   : 
; 98   : 	hs = val & 0x8000u;  // Sign bit

  00011	0f b7 c8	 movzx	 ecx, ax
  00014	8b c1		 mov	 eax, ecx

; 99   : 	he = val & 0x7C00u;  // exponent bits

  00016	8b d1		 mov	 edx, ecx
  00018	25 00 80 00 00	 and	 eax, 32768		; 00008000H

; 100  : 	hm = val & 0x03FFu;  // mantissa bits

  0001d	81 e1 ff 03 00
	00		 and	 ecx, 1023		; 000003ffH
  00023	81 e2 00 7c 00
	00		 and	 edx, 31744		; 00007c00H

; 101  : 
; 102  : 	if( he == 0 ) 

  00029	75 32		 jne	 SHORT $LN6@H2F

; 103  : 	{
; 104  : 		// Denormal will convert to normalized
; 105  : 		e = -1; // The following loop figures out how much extra to adjust the exponent

  0002b	83 ca ff	 or	 edx, -1
  0002e	8b ff		 npad	 2
$LL4@H2F:

; 106  :         do 
; 107  : 		{
; 108  :             e++;
; 109  :             hm <<= 1;

  00030	03 c9		 add	 ecx, ecx
  00032	42		 inc	 edx

; 110  :         } while( (hm & 0x0400u) == 0 ); // Shift until leading bit overflows into exponent bit

  00033	f7 c1 00 04 00
	00		 test	 ecx, 1024		; 00000400H
  00039	74 f5		 je	 SHORT $LL4@H2F

; 111  : 
; 112  : 		xs = ((UINT32) hs) << 16; // Sign bit
; 113  : 		xes = ((INT32) (he >> 10)) - 15 + 127 - e; // Exponent unbias the halfp, then bias the single
; 114  : 		xe = (UINT32) (xes << 23); // Exponent

  0003b	c1 e0 03	 shl	 eax, 3
  0003e	81 e1 ff 03 00
	00		 and	 ecx, 1023		; 000003ffH

; 115  : 		xm = ((UINT32) (hm & 0x03FFu)) << 13; // Mantissa
; 116  : 		f = (xs | xe | xm); // Combine sign bit, exponent bits, and mantissa bits

  00044	0b c8		 or	 ecx, eax
  00046	c1 e2 17	 shl	 edx, 23			; 00000017H
  00049	b8 00 00 00 38	 mov	 eax, 939524096		; 38000000H
  0004e	c1 e1 0d	 shl	 ecx, 13			; 0000000dH
  00051	2b c2		 sub	 eax, edx
  00053	0b c8		 or	 ecx, eax
  00055	89 4d 08	 mov	 DWORD PTR _f$[ebp], ecx

; 138  :     }
; 139  : 
; 140  : 	return *((REAL32 *) &f);

  00058	d9 45 08	 fld	 DWORD PTR _f$[ebp]

; 141  : }

  0005b	5d		 pop	 ebp
  0005c	c3		 ret	 0
$LN6@H2F:

; 117  : 	}
; 118  : 	else if( he == 0x7C00u )

  0005d	81 fa 00 7c 00
	00		 cmp	 edx, 31744		; 00007c00H
  00063	75 20		 jne	 SHORT $LN8@H2F

; 119  : 	{
; 120  : 		// Inf or NaN (all the exponent bits are set)
; 121  : 		if( hm == 0 )

  00065	85 c9		 test	 ecx, ecx
  00067	75 10		 jne	 SHORT $LN10@H2F

; 122  : 		{ // If mantissa is zero ...
; 123  : 			f = (((UINT32) hs) << 16) | ((UINT32) 0x7F800000u); // Signed Inf

  00069	0d 80 7f 00 00	 or	 eax, 32640		; 00007f80H
  0006e	c1 e0 10	 shl	 eax, 16			; 00000010H

; 138  :     }
; 139  : 
; 140  : 	return *((REAL32 *) &f);

  00071	89 45 08	 mov	 DWORD PTR _f$[ebp], eax
  00074	d9 45 08	 fld	 DWORD PTR _f$[ebp]

; 141  : }

  00077	5d		 pop	 ebp
  00078	c3		 ret	 0
$LN10@H2F:

; 124  : 		}
; 125  : 		else
; 126  : 		{
; 127  : 			f = (UINT32) 0xFFC00000u; // NaN, only 1st mantissa bit set

  00079	c7 45 08 00 00
	c0 ff		 mov	 DWORD PTR _f$[ebp], -4194304 ; ffc00000H

; 138  :     }
; 139  : 
; 140  : 	return *((REAL32 *) &f);

  00080	d9 45 08	 fld	 DWORD PTR _f$[ebp]

; 141  : }

  00083	5d		 pop	 ebp
  00084	c3		 ret	 0
$LN8@H2F:

; 128  : 		}
; 129  : 	} 
; 130  : 	else
; 131  : 	{ 
; 132  : 		// Normalized number
; 133  : 		xs = ((UINT32) hs) << 16; // Sign bit
; 134  : 		xes = ((INT32) (he >> 10)) - 15 + 127; // Exponent unbias the halfp, then bias the single

  00085	c1 e0 03	 shl	 eax, 3
  00088	c1 ea 0a	 shr	 edx, 10			; 0000000aH

; 135  : 		xe = (UINT32) (xes << 23); // Exponent
; 136  : 		xm = ((UINT32) hm) << 13; // Mantissa
; 137  : 		f = (xs | xe | xm); // Combine sign bit, exponent bits, and mantissa bits

  0008b	0b c1		 or	 eax, ecx
  0008d	83 c2 70	 add	 edx, 112		; 00000070H
  00090	c1 e0 0d	 shl	 eax, 13			; 0000000dH
  00093	c1 e2 17	 shl	 edx, 23			; 00000017H
  00096	0b c2		 or	 eax, edx

; 138  :     }
; 139  : 
; 140  : 	return *((REAL32 *) &f);

  00098	89 45 08	 mov	 DWORD PTR _f$[ebp], eax
  0009b	d9 45 08	 fld	 DWORD PTR _f$[ebp]

; 141  : }

  0009e	5d		 pop	 ebp
  0009f	c3		 ret	 0
?H2F@REAL16@@KAMG@Z ENDP				; REAL16::H2F
_TEXT	ENDS
; Function compile flags: /Ogtp
; File E:\Proyectos\JuegosOnlineproyectos\PB\pbblow\Piercing Blow Remake\i3Server\src\i3Base\REAL16.cpp
;	COMDAT ?F2H@REAL16@@KAGM@Z
_TEXT	SEGMENT
_val$ = 8						; size = 4
?F2H@REAL16@@KAGM@Z PROC				; REAL16::F2H, COMDAT

; 5    : {

  00000	55		 push	 ebp
  00001	8b ec		 mov	 ebp, esp
  00003	53		 push	 ebx

; 6    :     UINT16 h, hs, he, hm;
; 7    :     UINT32 x, xs, xe, xm;
; 8    :     int hes;
; 9    : 
; 10   : 	x = *((UINT32 *) &val);

  00004	8b 5d 08	 mov	 ebx, DWORD PTR _val$[ebp]

; 11   :     
; 12   : 	if( (x & 0x7FFFFFFFu) == 0 )

  00007	f7 c3 ff ff ff
	7f		 test	 ebx, 2147483647		; 7fffffffH
  0000d	75 09		 jne	 SHORT $LN2@F2H

; 13   : 	{  // Signed zero
; 14   : 		h = (UINT16) (x >> 16);  // Return the signed zero

  0000f	c1 eb 10	 shr	 ebx, 16			; 00000010H

; 75   : 				else
; 76   : 					h = (hs | he | hm);  // No rounding
; 77   : 			}
; 78   : 		}
; 79   : 	}
; 80   : 
; 81   : 	return h;

  00012	66 8b c3	 mov	 ax, bx
  00015	5b		 pop	 ebx

; 82   : }

  00016	5d		 pop	 ebp
  00017	c3		 ret	 0
$LN2@F2H:
  00018	56		 push	 esi

; 15   : 	} 
; 16   : 	else 
; 17   : 	{
; 18   : 		// Not zero
; 19   : 		xs = x & 0x80000000u;  // Pick off sign bit

  00019	8b cb		 mov	 ecx, ebx

; 20   : 		xe = x & 0x7F800000u;  // Pick off exponent bits

  0001b	8b f3		 mov	 esi, ebx
  0001d	81 e1 00 00 00
	80		 and	 ecx, -2147483648	; 80000000H

; 21   : 		xm = x & 0x007FFFFFu;  // Pick off mantissa bits

  00023	81 e3 ff ff 7f
	00		 and	 ebx, 8388607		; 007fffffH
  00029	81 e6 00 00 80
	7f		 and	 esi, 2139095040		; 7f800000H

; 22   : 
; 23   : 		if( xe == 0 )

  0002f	75 0a		 jne	 SHORT $LN4@F2H

; 24   : 		{
; 25   : 			// Denormal will underflow, return a signed zero
; 26   : 			h = (UINT16) (xs >> 16);

  00031	c1 e9 10	 shr	 ecx, 16			; 00000010H
  00034	5e		 pop	 esi

; 75   : 				else
; 76   : 					h = (hs | he | hm);  // No rounding
; 77   : 			}
; 78   : 		}
; 79   : 	}
; 80   : 
; 81   : 	return h;

  00035	66 8b c1	 mov	 ax, cx
  00038	5b		 pop	 ebx

; 82   : }

  00039	5d		 pop	 ebp
  0003a	c3		 ret	 0
$LN4@F2H:

; 27   : 		}
; 28   : 		else if( xe == 0x7F800000u )

  0003b	81 fe 00 00 80
	7f		 cmp	 esi, 2139095040		; 7f800000H
  00041	75 1d		 jne	 SHORT $LN6@F2H

; 29   : 		{
; 30   : 			// Inf or NaN (all the exponent bits are set)
; 31   : 			if( xm == 0 )

  00043	85 db		 test	 ebx, ebx
  00045	75 10		 jne	 SHORT $LN8@F2H

; 32   : 			{
; 33   : 				// If mantissa is zero ...
; 34   : 				h = (UINT16) ((xs >> 16) | 0x7C00u); // Signed Inf

  00047	c1 e9 10	 shr	 ecx, 16			; 00000010H
  0004a	81 c9 00 7c 00
	00		 or	 ecx, 31744		; 00007c00H
  00050	5e		 pop	 esi

; 75   : 				else
; 76   : 					h = (hs | he | hm);  // No rounding
; 77   : 			}
; 78   : 		}
; 79   : 	}
; 80   : 
; 81   : 	return h;

  00051	66 8b c1	 mov	 ax, cx
  00054	5b		 pop	 ebx

; 82   : }

  00055	5d		 pop	 ebp
  00056	c3		 ret	 0
$LN8@F2H:
  00057	5e		 pop	 esi

; 35   : 			}
; 36   : 			else
; 37   : 			{
; 38   : 				h = (UINT16) 0xFE00u; // NaN, only 1st mantissa bit set

  00058	b8 00 fe 00 00	 mov	 eax, 65024		; 0000fe00H
  0005d	5b		 pop	 ebx

; 82   : }

  0005e	5d		 pop	 ebp
  0005f	c3		 ret	 0
$LN6@F2H:

; 39   : 			}
; 40   : 		} 
; 41   : 		else
; 42   : 		{
; 43   : 			// Normalized number
; 44   : 			hs = (UINT16) (xs >> 16); // Sign bit
; 45   : 			hes = ((int)(xe >> 23)) - 127 + 15; // Exponent unbias the single, then bias the halfp

  00060	c1 ee 17	 shr	 esi, 23			; 00000017H
  00063	c1 e9 10	 shr	 ecx, 16			; 00000010H
  00066	83 ee 70	 sub	 esi, 112		; 00000070H
  00069	8b c1		 mov	 eax, ecx
  0006b	57		 push	 edi
  0006c	8b f8		 mov	 edi, eax

; 46   : 
; 47   : 			if( hes >= 0x1F )

  0006e	83 fe 1f	 cmp	 esi, 31			; 0000001fH
  00071	7c 0d		 jl	 SHORT $LN10@F2H

; 48   : 			{
; 49   : 				// Overflow
; 50   : 				h = (UINT16) ((xs >> 16) | 0x7C00u); // Signed Inf

  00073	5f		 pop	 edi
  00074	0d 00 7c 00 00	 or	 eax, 31744		; 00007c00H
  00079	5e		 pop	 esi

; 74   : 					h = (hs | he | hm) + (UINT16) 1u; // Round, might overflow to inf, this is OK

  0007a	0f b7 c0	 movzx	 eax, ax
  0007d	5b		 pop	 ebx

; 82   : }

  0007e	5d		 pop	 ebp
  0007f	c3		 ret	 0
$LN10@F2H:

; 51   : 			}
; 52   : 			else if( hes <= 0 )

  00080	85 f6		 test	 esi, esi
  00082	7f 49		 jg	 SHORT $LN12@F2H

; 53   : 			{
; 54   : 				// Underflow
; 55   : 				if( (14 - hes) > 24 )

  00084	b9 0e 00 00 00	 mov	 ecx, 14			; 0000000eH
  00089	2b ce		 sub	 ecx, esi
  0008b	83 f9 18	 cmp	 ecx, 24			; 00000018H
  0008e	7e 0c		 jle	 SHORT $LN14@F2H

; 56   : 				{
; 57   : 					// Mantissa shifted all the way off & no rounding possibility
; 58   : 					hm = (UINT16) 0u;  // Set mantissa to zero

  00090	33 c0		 xor	 eax, eax

; 66   : 				}
; 67   : 				h = (hs | hm); // Combine sign bit and mantissa bits, biased exponent is zero

  00092	0b c7		 or	 eax, edi
  00094	5f		 pop	 edi
  00095	5e		 pop	 esi

; 74   : 					h = (hs | he | hm) + (UINT16) 1u; // Round, might overflow to inf, this is OK

  00096	0f b7 c0	 movzx	 eax, ax
  00099	5b		 pop	 ebx

; 82   : }

  0009a	5d		 pop	 ebp
  0009b	c3		 ret	 0
$LN14@F2H:

; 59   : 				}
; 60   : 				else
; 61   : 				{
; 62   : 					xm |= 0x00800000u;  // Add the hidden leading bit

  0009c	81 cb 00 00 80
	00		 or	 ebx, 8388608		; 00800000H

; 63   : 					hm = (UINT16) (xm >> (14 - hes)); // Mantissa

  000a2	8b c3		 mov	 eax, ebx
  000a4	d3 e8		 shr	 eax, cl

; 64   : 					if( (xm >> (13 - hes)) & 0x00000001u ) // Check for rounding

  000a6	b9 0d 00 00 00	 mov	 ecx, 13			; 0000000dH
  000ab	0f b7 d0	 movzx	 edx, ax
  000ae	2b ce		 sub	 ecx, esi
  000b0	d3 eb		 shr	 ebx, cl
  000b2	f6 c3 01	 test	 bl, 1

; 65   : 						hm += (UINT16) 1u; // Round, might overflow into exp bit, but this is OK

  000b5	8d 42 01	 lea	 eax, DWORD PTR [edx+1]
  000b8	0f b7 c8	 movzx	 ecx, ax
  000bb	8b c2		 mov	 eax, edx
  000bd	0f 44 c8	 cmove	 ecx, eax
  000c0	0f b7 c1	 movzx	 eax, cx

; 66   : 				}
; 67   : 				h = (hs | hm); // Combine sign bit and mantissa bits, biased exponent is zero

  000c3	0b c7		 or	 eax, edi
  000c5	5f		 pop	 edi
  000c6	5e		 pop	 esi

; 74   : 					h = (hs | he | hm) + (UINT16) 1u; // Round, might overflow to inf, this is OK

  000c7	0f b7 c0	 movzx	 eax, ax
  000ca	5b		 pop	 ebx

; 82   : }

  000cb	5d		 pop	 ebp
  000cc	c3		 ret	 0
$LN12@F2H:

; 68   : 			}
; 69   : 			else
; 70   : 			{
; 71   : 				he = (UINT16) (hes << 10); // Exponent

  000cd	c1 e6 0a	 shl	 esi, 10			; 0000000aH

; 72   : 				hm = (UINT16) (xm >> 13); // Mantissa

  000d0	8b c3		 mov	 eax, ebx
  000d2	c1 e8 0d	 shr	 eax, 13			; 0000000dH

; 73   : 				if( xm & 0x00001000u ) // Check for rounding

  000d5	0b f0		 or	 esi, eax
  000d7	0b f1		 or	 esi, ecx
  000d9	0f b7 c6	 movzx	 eax, si
  000dc	f7 c3 00 10 00
	00		 test	 ebx, 4096		; 00001000H
  000e2	74 04		 je	 SHORT $LN30@F2H

; 74   : 					h = (hs | he | hm) + (UINT16) 1u; // Round, might overflow to inf, this is OK

  000e4	40		 inc	 eax
  000e5	0f b7 c0	 movzx	 eax, ax
$LN30@F2H:
  000e8	5f		 pop	 edi
  000e9	5e		 pop	 esi
  000ea	5b		 pop	 ebx

; 82   : }

  000eb	5d		 pop	 ebp
  000ec	c3		 ret	 0
?F2H@REAL16@@KAGM@Z ENDP				; REAL16::F2H
_TEXT	ENDS
END
