; Listing generated by Microsoft (R) Optimizing Compiler Version 19.50.35727.0 

	TITLE	E:\Proyectos\JuegosOnlineproyectos\PB\pbblow\Piercing Blow Remake\i3Server\Project\I3_DX\i3Server\x86\Release\tinyxmlparser.obj
	.686P
	.XMM
	include listing.inc
	.model	flat

INCLUDELIB LIBCMT
INCLUDELIB OLDNAMES

PUBLIC	?utf8ByteTable@TiXmlBase@@2QBHB			; TiXmlBase::utf8ByteTable
PUBLIC	?entity@TiXmlBase@@0PAUEntity@1@A		; TiXmlBase::entity
PUBLIC	??_C@_05JKJFEODM@?$CGamp?$DL@			; `string'
PUBLIC	??_C@_04GJOGLFEJ@?$CGlt?$DL@			; `string'
PUBLIC	??_C@_04LOOHDCEI@?$CGgt?$DL@			; `string'
PUBLIC	??_C@_06DDLNFFBN@?$CGquot?$DL@			; `string'
PUBLIC	??_C@_06PNMEMOHD@?$CGapos?$DL@			; `string'
PUBLIC	__Avx2WmemEnabledWeakValue
;	COMDAT __Avx2WmemEnabledWeakValue
_BSS	SEGMENT
__Avx2WmemEnabledWeakValue DD 01H DUP (?)
_BSS	ENDS
;	COMDAT ??_C@_06PNMEMOHD@?$CGapos?$DL@
CONST	SEGMENT
??_C@_06PNMEMOHD@?$CGapos?$DL@ DB '&apos;', 00H		; `string'
CONST	ENDS
;	COMDAT ??_C@_06DDLNFFBN@?$CGquot?$DL@
CONST	SEGMENT
??_C@_06DDLNFFBN@?$CGquot?$DL@ DB '&quot;', 00H		; `string'
CONST	ENDS
;	COMDAT ??_C@_04LOOHDCEI@?$CGgt?$DL@
CONST	SEGMENT
??_C@_04LOOHDCEI@?$CGgt?$DL@ DB '&gt;', 00H		; `string'
CONST	ENDS
;	COMDAT ??_C@_04GJOGLFEJ@?$CGlt?$DL@
CONST	SEGMENT
??_C@_04GJOGLFEJ@?$CGlt?$DL@ DB '&lt;', 00H		; `string'
CONST	ENDS
;	COMDAT ??_C@_05JKJFEODM@?$CGamp?$DL@
CONST	SEGMENT
??_C@_05JKJFEODM@?$CGamp?$DL@ DB '&amp;', 00H		; `string'
CONST	ENDS
_DATA	SEGMENT
?entity@TiXmlBase@@0PAUEntity@1@A DD FLAT:??_C@_05JKJFEODM@?$CGamp?$DL@ ; TiXmlBase::entity
	DD	05H
	DB	026H
	ORG $+3
	DD	FLAT:??_C@_04GJOGLFEJ@?$CGlt?$DL@
	DD	04H
	DB	03cH
	ORG $+3
	DD	FLAT:??_C@_04LOOHDCEI@?$CGgt?$DL@
	DD	04H
	DB	03eH
	ORG $+3
	DD	FLAT:??_C@_06DDLNFFBN@?$CGquot?$DL@
	DD	06H
	DB	022H
	ORG $+3
	DD	FLAT:??_C@_06PNMEMOHD@?$CGapos?$DL@
	DD	06H
	DB	027H
	ORG $+3
_DATA	ENDS
CONST	SEGMENT
?utf8ByteTable@TiXmlBase@@2QBHB DD 01H			; TiXmlBase::utf8ByteTable
	DD	01H
	DD	01H
	DD	01H
	DD	01H
	DD	01H
	DD	01H
	DD	01H
	DD	01H
	DD	01H
	DD	01H
	DD	01H
	DD	01H
	DD	01H
	DD	01H
	DD	01H
	DD	01H
	DD	01H
	DD	01H
	DD	01H
	DD	01H
	DD	01H
	DD	01H
	DD	01H
	DD	01H
	DD	01H
	DD	01H
	DD	01H
	DD	01H
	DD	01H
	DD	01H
	DD	01H
	DD	01H
	DD	01H
	DD	01H
	DD	01H
	DD	01H
	DD	01H
	DD	01H
	DD	01H
	DD	01H
	DD	01H
	DD	01H
	DD	01H
	DD	01H
	DD	01H
	DD	01H
	DD	01H
	DD	01H
	DD	01H
	DD	01H
	DD	01H
	DD	01H
	DD	01H
	DD	01H
	DD	01H
	DD	01H
	DD	01H
	DD	01H
	DD	01H
	DD	01H
	DD	01H
	DD	01H
	DD	01H
	DD	01H
	DD	01H
	DD	01H
	DD	01H
	DD	01H
	DD	01H
	DD	01H
	DD	01H
	DD	01H
	DD	01H
	DD	01H
	DD	01H
	DD	01H
	DD	01H
	DD	01H
	DD	01H
	DD	01H
	DD	01H
	DD	01H
	DD	01H
	DD	01H
	DD	01H
	DD	01H
	DD	01H
	DD	01H
	DD	01H
	DD	01H
	DD	01H
	DD	01H
	DD	01H
	DD	01H
	DD	01H
	DD	01H
	DD	01H
	DD	01H
	DD	01H
	DD	01H
	DD	01H
	DD	01H
	DD	01H
	DD	01H
	DD	01H
	DD	01H
	DD	01H
	DD	01H
	DD	01H
	DD	01H
	DD	01H
	DD	01H
	DD	01H
	DD	01H
	DD	01H
	DD	01H
	DD	01H
	DD	01H
	DD	01H
	DD	01H
	DD	01H
	DD	01H
	DD	01H
	DD	01H
	DD	01H
	DD	01H
	DD	01H
	DD	01H
	DD	01H
	DD	01H
	DD	01H
	DD	01H
	DD	01H
	DD	01H
	DD	01H
	DD	01H
	DD	01H
	DD	01H
	DD	01H
	DD	01H
	DD	01H
	DD	01H
	DD	01H
	DD	01H
	DD	01H
	DD	01H
	DD	01H
	DD	01H
	DD	01H
	DD	01H
	DD	01H
	DD	01H
	DD	01H
	DD	01H
	DD	01H
	DD	01H
	DD	01H
	DD	01H
	DD	01H
	DD	01H
	DD	01H
	DD	01H
	DD	01H
	DD	01H
	DD	01H
	DD	01H
	DD	01H
	DD	01H
	DD	01H
	DD	01H
	DD	01H
	DD	01H
	DD	01H
	DD	01H
	DD	01H
	DD	01H
	DD	01H
	DD	01H
	DD	01H
	DD	01H
	DD	01H
	DD	01H
	DD	01H
	DD	01H
	DD	01H
	DD	01H
	DD	01H
	DD	01H
	DD	01H
	DD	01H
	DD	01H
	DD	01H
	DD	01H
	DD	02H
	DD	02H
	DD	02H
	DD	02H
	DD	02H
	DD	02H
	DD	02H
	DD	02H
	DD	02H
	DD	02H
	DD	02H
	DD	02H
	DD	02H
	DD	02H
	DD	02H
	DD	02H
	DD	02H
	DD	02H
	DD	02H
	DD	02H
	DD	02H
	DD	02H
	DD	02H
	DD	02H
	DD	02H
	DD	02H
	DD	02H
	DD	02H
	DD	02H
	DD	02H
	DD	03H
	DD	03H
	DD	03H
	DD	03H
	DD	03H
	DD	03H
	DD	03H
	DD	03H
	DD	03H
	DD	03H
	DD	03H
	DD	03H
	DD	03H
	DD	03H
	DD	03H
	DD	03H
	DD	04H
	DD	04H
	DD	04H
	DD	04H
	DD	04H
	DD	01H
	DD	01H
	DD	01H
	DD	01H
	DD	01H
	DD	01H
	DD	01H
	DD	01H
	DD	01H
	DD	01H
	DD	01H
CONST	ENDS
PUBLIC	?__empty_global_delete@@YAXPAX@Z		; __empty_global_delete
PUBLIC	?__global_delete@@YAXPAX@Z			; __global_delete
PUBLIC	?__empty_global_delete@@YAXPAXI@Z		; __empty_global_delete
PUBLIC	?__global_delete@@YAXPAXI@Z			; __global_delete
PUBLIC	?__global_array_delete@@YAXPAX@Z		; __global_array_delete
PUBLIC	?__global_array_delete@@YAXPAXI@Z		; __global_array_delete
PUBLIC	?GetMemoryPool@i3ClassMeta@@QAEPAVi3MemoryPool@@XZ ; i3ClassMeta::GetMemoryPool
PUBLIC	?SetMemoryPool@i3ClassMeta@@QAEXPAVi3MemoryPool@@@Z ; i3ClassMeta::SetMemoryPool
PUBLIC	?GetClassSize@i3ClassMeta@@QAEIXZ		; i3ClassMeta::GetClassSize
PUBLIC	?GetClassNameA@i3ClassMeta@@QAEPADXZ		; i3ClassMeta::GetClassNameA
PUBLIC	?IsExactTypeOf@i3ClassMeta@@QAE_NPAV1@@Z	; i3ClassMeta::IsExactTypeOf
PUBLIC	?SetStyle@i3ClassMeta@@QAEXI@Z			; i3ClassMeta::SetStyle
PUBLIC	?GetStyle@i3ClassMeta@@QAEIXZ			; i3ClassMeta::GetStyle
PUBLIC	?AddStyle@i3ClassMeta@@QAEXI@Z			; i3ClassMeta::AddStyle
PUBLIC	?RemoveStyle@i3ClassMeta@@QAEXI@Z		; i3ClassMeta::RemoveStyle
PUBLIC	?IsStyle@i3ClassMeta@@QAEHI@Z			; i3ClassMeta::IsStyle
PUBLIC	?IsAbstractClass@i3ClassMeta@@QAEHXZ		; i3ClassMeta::IsAbstractClass
PUBLIC	?IsConcreteClass@i3ClassMeta@@QAEHXZ		; i3ClassMeta::IsConcreteClass
PUBLIC	?GetBaseClassMeta@i3ClassMeta@@QAEPAV1@XZ	; i3ClassMeta::GetBaseClassMeta
PUBLIC	?getHashCode@i3ClassMeta@@QAEIXZ		; i3ClassMeta::getHashCode
PUBLIC	??0i3ClassMeta@@QAE@ABV0@@Z			; i3ClassMeta::i3ClassMeta
PUBLIC	??4i3ClassMeta@@QAEAAV0@ABV0@@Z			; i3ClassMeta::operator=
PUBLIC	??_Gi3ClassMeta@@UAEPAXI@Z			; i3ClassMeta::`scalar deleting destructor'
PUBLIC	??_Ei3ClassMeta@@UAEPAXI@Z			; i3ClassMeta::`vector deleting destructor'
PUBLIC	?GetClassMeta@i3ElementBase@@SAPAVi3ClassMeta@@XZ ; i3ElementBase::GetClassMeta
PUBLIC	?GetRefCount@i3ElementBase@@QAEHXZ		; i3ElementBase::GetRefCount
PUBLIC	?__SetMemoryPool@i3ElementBase@@QAEXPAVi3MemoryPool@@@Z ; i3ElementBase::__SetMemoryPool
PUBLIC	?__GetMemoryPool@i3ElementBase@@QAEPAVi3MemoryPool@@XZ ; i3ElementBase::__GetMemoryPool
PUBLIC	?IsExactTypeOf@i3ElementBase@@QAE_NPAVi3ClassMeta@@@Z ; i3ElementBase::IsExactTypeOf
PUBLIC	?IsTypeOf@i3ElementBase@@QAE_NPAVi3ClassMeta@@@Z ; i3ElementBase::IsTypeOf
PUBLIC	?AddRef@i3ElementBase@@QAEHXZ			; i3ElementBase::AddRef
PUBLIC	?_internal_SetRefCount@i3ElementBase@@QAEXH@Z	; i3ElementBase::_internal_SetRefCount
PUBLIC	??0i3ElementBase@@QAE@ABV0@@Z			; i3ElementBase::i3ElementBase
PUBLIC	??4i3ElementBase@@QAEAAV0@ABV0@@Z		; i3ElementBase::operator=
PUBLIC	??_Gi3ElementBase@@UAEPAXI@Z			; i3ElementBase::`scalar deleting destructor'
PUBLIC	??_Ei3ElementBase@@UAEPAXI@Z			; i3ElementBase::`vector deleting destructor'
PUBLIC	??0i3MemoryPool@@QAE@ABV0@@Z			; i3MemoryPool::i3MemoryPool
PUBLIC	??4i3MemoryPool@@QAEAAV0@ABV0@@Z		; i3MemoryPool::operator=
PUBLIC	??_Gi3MemoryPool@@UAEPAXI@Z			; i3MemoryPool::`scalar deleting destructor'
PUBLIC	??_Ei3MemoryPool@@UAEPAXI@Z			; i3MemoryPool::`vector deleting destructor'
PUBLIC	?GetClassMeta@i3Stream@@SAPAVi3ClassMeta@@XZ	; i3Stream::GetClassMeta
PUBLIC	?GetSize@i3Stream@@QAEIXZ			; i3Stream::GetSize
PUBLIC	?GetLastError@i3Stream@@QAE?AW4STREAMCODE@1@XZ	; i3Stream::GetLastError
PUBLIC	?GetAccessMode@i3Stream@@QAEHXZ			; i3Stream::GetAccessMode
PUBLIC	?GetHandle@i3Stream@@UAEPAXXZ			; i3Stream::GetHandle
PUBLIC	?BeginRecord@i3Stream@@QAEXXZ			; i3Stream::BeginRecord
PUBLIC	?GetRecordSize@i3Stream@@QAEIXZ			; i3Stream::GetRecordSize
PUBLIC	??0i3Stream@@QAE@ABV0@@Z			; i3Stream::i3Stream
PUBLIC	??4i3Stream@@QAEAAV0@ABV0@@Z			; i3Stream::operator=
PUBLIC	??_Gi3Stream@@UAEPAXI@Z				; i3Stream::`scalar deleting destructor'
PUBLIC	??_Ei3Stream@@UAEPAXI@Z				; i3Stream::`vector deleting destructor'
PUBLIC	?GetClassMeta@i3FileStream@@SAPAVi3ClassMeta@@XZ ; i3FileStream::GetClassMeta
PUBLIC	?GetHandle@i3FileStream@@UAEPAXXZ		; i3FileStream::GetHandle
PUBLIC	?GetFileName@i3FileStream@@QAEPADXZ		; i3FileStream::GetFileName
PUBLIC	?SetCaseSensitive@i3FileStream@@SAXH@Z		; i3FileStream::SetCaseSensitive
PUBLIC	?IsCaseSensitive@i3FileStream@@SAHXZ		; i3FileStream::IsCaseSensitive
PUBLIC	??0i3FileStream@@QAE@ABV0@@Z			; i3FileStream::i3FileStream
PUBLIC	??4i3FileStream@@QAEAAV0@ABV0@@Z		; i3FileStream::operator=
PUBLIC	??_Gi3FileStream@@UAEPAXI@Z			; i3FileStream::`scalar deleting destructor'
PUBLIC	??_Ei3FileStream@@UAEPAXI@Z			; i3FileStream::`vector deleting destructor'
PUBLIC	??0TiXmlString@@QAE@XZ				; TiXmlString::TiXmlString
PUBLIC	??0TiXmlString@@QAE@ABV0@@Z			; TiXmlString::TiXmlString
PUBLIC	??0TiXmlString@@QAE@PBD@Z			; TiXmlString::TiXmlString
PUBLIC	??0TiXmlString@@QAE@PBDI@Z			; TiXmlString::TiXmlString
PUBLIC	??1TiXmlString@@QAE@XZ				; TiXmlString::~TiXmlString
PUBLIC	??4TiXmlString@@QAEAAV0@PBD@Z			; TiXmlString::operator=
PUBLIC	??4TiXmlString@@QAEAAV0@ABV0@@Z			; TiXmlString::operator=
PUBLIC	??YTiXmlString@@QAEAAV0@PBD@Z			; TiXmlString::operator+=
PUBLIC	??YTiXmlString@@QAEAAV0@D@Z			; TiXmlString::operator+=
PUBLIC	??YTiXmlString@@QAEAAV0@ABV0@@Z			; TiXmlString::operator+=
PUBLIC	?c_str@TiXmlString@@QBEPBDXZ			; TiXmlString::c_str
PUBLIC	?data@TiXmlString@@QBEPBDXZ			; TiXmlString::data
PUBLIC	?length@TiXmlString@@QBEIXZ			; TiXmlString::length
PUBLIC	?size@TiXmlString@@QBEIXZ			; TiXmlString::size
PUBLIC	?empty@TiXmlString@@QBE_NXZ			; TiXmlString::empty
PUBLIC	?capacity@TiXmlString@@QBEIXZ			; TiXmlString::capacity
PUBLIC	?at@TiXmlString@@QBEABDI@Z			; TiXmlString::at
PUBLIC	??ATiXmlString@@QBEAADI@Z			; TiXmlString::operator[]
PUBLIC	?find@TiXmlString@@QBEID@Z			; TiXmlString::find
PUBLIC	?find@TiXmlString@@QBEIDI@Z			; TiXmlString::find
PUBLIC	?clear@TiXmlString@@QAEXXZ			; TiXmlString::clear
PUBLIC	?swap@TiXmlString@@QAEXAAV1@@Z			; TiXmlString::swap
PUBLIC	?init@TiXmlString@@AAEXI@Z			; TiXmlString::init
PUBLIC	?set_size@TiXmlString@@AAEXI@Z			; TiXmlString::set_size
PUBLIC	?start@TiXmlString@@ABEPADXZ			; TiXmlString::start
PUBLIC	?finish@TiXmlString@@ABEPADXZ			; TiXmlString::finish
PUBLIC	?init@TiXmlString@@AAEXII@Z			; TiXmlString::init
PUBLIC	?quit@TiXmlString@@AAEXXZ			; TiXmlString::quit
PUBLIC	??0TiXmlCursor@@QAE@XZ				; TiXmlCursor::TiXmlCursor
PUBLIC	?Clear@TiXmlCursor@@QAEXXZ			; TiXmlCursor::Clear
PUBLIC	??4TiXmlCursor@@QAEAAU0@ABU0@@Z			; TiXmlCursor::operator=
PUBLIC	??4TiXmlCursor@@QAEAAU0@$$QAU0@@Z		; TiXmlCursor::operator=
PUBLIC	??1TiXmlVisitor@@UAE@XZ				; TiXmlVisitor::~TiXmlVisitor
PUBLIC	?VisitEnter@TiXmlVisitor@@UAE_NABVTiXmlDocument@@@Z ; TiXmlVisitor::VisitEnter
PUBLIC	?VisitExit@TiXmlVisitor@@UAE_NABVTiXmlDocument@@@Z ; TiXmlVisitor::VisitExit
PUBLIC	?VisitEnter@TiXmlVisitor@@UAE_NABVTiXmlElement@@PBVTiXmlAttribute@@@Z ; TiXmlVisitor::VisitEnter
PUBLIC	?VisitExit@TiXmlVisitor@@UAE_NABVTiXmlElement@@@Z ; TiXmlVisitor::VisitExit
PUBLIC	?Visit@TiXmlVisitor@@UAE_NABVTiXmlDeclaration@@@Z ; TiXmlVisitor::Visit
PUBLIC	?Visit@TiXmlVisitor@@UAE_NABVTiXmlText@@@Z	; TiXmlVisitor::Visit
PUBLIC	?Visit@TiXmlVisitor@@UAE_NABVTiXmlComment@@@Z	; TiXmlVisitor::Visit
PUBLIC	?Visit@TiXmlVisitor@@UAE_NABVTiXmlUnknown@@@Z	; TiXmlVisitor::Visit
PUBLIC	??0TiXmlVisitor@@QAE@XZ				; TiXmlVisitor::TiXmlVisitor
PUBLIC	??0TiXmlVisitor@@QAE@ABV0@@Z			; TiXmlVisitor::TiXmlVisitor
PUBLIC	??4TiXmlVisitor@@QAEAAV0@ABV0@@Z		; TiXmlVisitor::operator=
PUBLIC	??_GTiXmlVisitor@@UAEPAXI@Z			; TiXmlVisitor::`scalar deleting destructor'
PUBLIC	??_ETiXmlVisitor@@UAEPAXI@Z			; TiXmlVisitor::`vector deleting destructor'
PUBLIC	??0TiXmlBase@@QAE@XZ				; TiXmlBase::TiXmlBase
PUBLIC	??1TiXmlBase@@UAE@XZ				; TiXmlBase::~TiXmlBase
PUBLIC	?SetCondenseWhiteSpace@TiXmlBase@@SAX_N@Z	; TiXmlBase::SetCondenseWhiteSpace
PUBLIC	?IsWhiteSpaceCondensed@TiXmlBase@@SA_NXZ	; TiXmlBase::IsWhiteSpaceCondensed
PUBLIC	?Row@TiXmlBase@@QBEHXZ				; TiXmlBase::Row
PUBLIC	?Column@TiXmlBase@@QBEHXZ			; TiXmlBase::Column
PUBLIC	?SetUserData@TiXmlBase@@QAEXPAX@Z		; TiXmlBase::SetUserData
PUBLIC	?GetUserData@TiXmlBase@@QAEPAXXZ		; TiXmlBase::GetUserData
PUBLIC	?GetUserData@TiXmlBase@@QBEPBXXZ		; TiXmlBase::GetUserData
PUBLIC	?SkipWhiteSpace@TiXmlBase@@KAPBDPBDW4TiXmlEncoding@@@Z ; TiXmlBase::SkipWhiteSpace
PUBLIC	?IsWhiteSpace@TiXmlBase@@KA_ND@Z		; TiXmlBase::IsWhiteSpace
PUBLIC	?IsWhiteSpace@TiXmlBase@@KA_NH@Z		; TiXmlBase::IsWhiteSpace
PUBLIC	?ReadName@TiXmlBase@@KAPBDPBDPAVTiXmlString@@W4TiXmlEncoding@@@Z ; TiXmlBase::ReadName
PUBLIC	?ReadText@TiXmlBase@@KAPBDPBDPAVTiXmlString@@_N02W4TiXmlEncoding@@@Z ; TiXmlBase::ReadText
PUBLIC	?GetEntity@TiXmlBase@@KAPBDPBDPADPAHW4TiXmlEncoding@@@Z ; TiXmlBase::GetEntity
PUBLIC	?GetChar@TiXmlBase@@KAPBDPBDPADPAHW4TiXmlEncoding@@@Z ; TiXmlBase::GetChar
PUBLIC	?StringEqual@TiXmlBase@@KA_NPBD0_NW4TiXmlEncoding@@@Z ; TiXmlBase::StringEqual
PUBLIC	?IsAlpha@TiXmlBase@@KAHEW4TiXmlEncoding@@@Z	; TiXmlBase::IsAlpha
PUBLIC	?IsAlphaNum@TiXmlBase@@KAHEW4TiXmlEncoding@@@Z	; TiXmlBase::IsAlphaNum
PUBLIC	?ToLower@TiXmlBase@@KAHHW4TiXmlEncoding@@@Z	; TiXmlBase::ToLower
PUBLIC	?ConvertUTF32ToUTF8@TiXmlBase@@KAXKPADPAH@Z	; TiXmlBase::ConvertUTF32ToUTF8
PUBLIC	??_GTiXmlBase@@UAEPAXI@Z			; TiXmlBase::`scalar deleting destructor'
PUBLIC	??_ETiXmlBase@@UAEPAXI@Z			; TiXmlBase::`vector deleting destructor'
PUBLIC	?Value@TiXmlNode@@QBEPBDXZ			; TiXmlNode::Value
PUBLIC	?ValueTStr@TiXmlNode@@QBEABVTiXmlString@@XZ	; TiXmlNode::ValueTStr
PUBLIC	?SetValue@TiXmlNode@@QAEXPBD@Z			; TiXmlNode::SetValue
PUBLIC	?Parent@TiXmlNode@@QAEPAV1@XZ			; TiXmlNode::Parent
PUBLIC	?Parent@TiXmlNode@@QBEPBV1@XZ			; TiXmlNode::Parent
PUBLIC	?FirstChild@TiXmlNode@@QBEPBV1@XZ		; TiXmlNode::FirstChild
PUBLIC	?FirstChild@TiXmlNode@@QAEPAV1@XZ		; TiXmlNode::FirstChild
PUBLIC	?FirstChild@TiXmlNode@@QAEPAV1@PBD@Z		; TiXmlNode::FirstChild
PUBLIC	?LastChild@TiXmlNode@@QBEPBV1@XZ		; TiXmlNode::LastChild
PUBLIC	?LastChild@TiXmlNode@@QAEPAV1@XZ		; TiXmlNode::LastChild
PUBLIC	?LastChild@TiXmlNode@@QAEPAV1@PBD@Z		; TiXmlNode::LastChild
PUBLIC	?IterateChildren@TiXmlNode@@QAEPAV1@PBV1@@Z	; TiXmlNode::IterateChildren
PUBLIC	?IterateChildren@TiXmlNode@@QAEPAV1@PBDPBV1@@Z	; TiXmlNode::IterateChildren
PUBLIC	?PreviousSibling@TiXmlNode@@QBEPBV1@XZ		; TiXmlNode::PreviousSibling
PUBLIC	?PreviousSibling@TiXmlNode@@QAEPAV1@XZ		; TiXmlNode::PreviousSibling
PUBLIC	?PreviousSibling@TiXmlNode@@QAEPAV1@PBD@Z	; TiXmlNode::PreviousSibling
PUBLIC	?NextSibling@TiXmlNode@@QBEPBV1@XZ		; TiXmlNode::NextSibling
PUBLIC	?NextSibling@TiXmlNode@@QAEPAV1@XZ		; TiXmlNode::NextSibling
PUBLIC	?NextSibling@TiXmlNode@@QAEPAV1@PBD@Z		; TiXmlNode::NextSibling
PUBLIC	?NextSiblingElement@TiXmlNode@@QAEPAVTiXmlElement@@XZ ; TiXmlNode::NextSiblingElement
PUBLIC	?NextSiblingElement@TiXmlNode@@QAEPAVTiXmlElement@@PBD@Z ; TiXmlNode::NextSiblingElement
PUBLIC	?FirstChildElement@TiXmlNode@@QAEPAVTiXmlElement@@XZ ; TiXmlNode::FirstChildElement
PUBLIC	?FirstChildElement@TiXmlNode@@QAEPAVTiXmlElement@@PBD@Z ; TiXmlNode::FirstChildElement
PUBLIC	?Type@TiXmlNode@@QBEHXZ				; TiXmlNode::Type
PUBLIC	?GetDocument@TiXmlNode@@QAEPAVTiXmlDocument@@XZ	; TiXmlNode::GetDocument
PUBLIC	?NoChildren@TiXmlNode@@QBE_NXZ			; TiXmlNode::NoChildren
PUBLIC	?ToDocument@TiXmlNode@@UBEPBVTiXmlDocument@@XZ	; TiXmlNode::ToDocument
PUBLIC	?ToElement@TiXmlNode@@UBEPBVTiXmlElement@@XZ	; TiXmlNode::ToElement
PUBLIC	?ToComment@TiXmlNode@@UBEPBVTiXmlComment@@XZ	; TiXmlNode::ToComment
PUBLIC	?ToUnknown@TiXmlNode@@UBEPBVTiXmlUnknown@@XZ	; TiXmlNode::ToUnknown
PUBLIC	?ToText@TiXmlNode@@UBEPBVTiXmlText@@XZ		; TiXmlNode::ToText
PUBLIC	?ToDeclaration@TiXmlNode@@UBEPBVTiXmlDeclaration@@XZ ; TiXmlNode::ToDeclaration
PUBLIC	?ToDocument@TiXmlNode@@UAEPAVTiXmlDocument@@XZ	; TiXmlNode::ToDocument
PUBLIC	?ToElement@TiXmlNode@@UAEPAVTiXmlElement@@XZ	; TiXmlNode::ToElement
PUBLIC	?ToComment@TiXmlNode@@UAEPAVTiXmlComment@@XZ	; TiXmlNode::ToComment
PUBLIC	?ToUnknown@TiXmlNode@@UAEPAVTiXmlUnknown@@XZ	; TiXmlNode::ToUnknown
PUBLIC	?ToText@TiXmlNode@@UAEPAVTiXmlText@@XZ		; TiXmlNode::ToText
PUBLIC	?ToDeclaration@TiXmlNode@@UAEPAVTiXmlDeclaration@@XZ ; TiXmlNode::ToDeclaration
PUBLIC	?Identify@TiXmlNode@@IAEPAV1@PBDW4TiXmlEncoding@@@Z ; TiXmlNode::Identify
PUBLIC	??0TiXmlAttribute@@QAE@XZ			; TiXmlAttribute::TiXmlAttribute
PUBLIC	??0TiXmlAttribute@@QAE@PBD0@Z			; TiXmlAttribute::TiXmlAttribute
PUBLIC	?Name@TiXmlAttribute@@QBEPBDXZ			; TiXmlAttribute::Name
PUBLIC	?Value@TiXmlAttribute@@QBEPBDXZ			; TiXmlAttribute::Value
PUBLIC	?NameTStr@TiXmlAttribute@@QBEABVTiXmlString@@XZ	; TiXmlAttribute::NameTStr
PUBLIC	?SetName@TiXmlAttribute@@QAEXPBD@Z		; TiXmlAttribute::SetName
PUBLIC	?SetValue@TiXmlAttribute@@QAEXPBD@Z		; TiXmlAttribute::SetValue
PUBLIC	?Next@TiXmlAttribute@@QAEPAV1@XZ		; TiXmlAttribute::Next
PUBLIC	?Previous@TiXmlAttribute@@QAEPAV1@XZ		; TiXmlAttribute::Previous
PUBLIC	??8TiXmlAttribute@@QBE_NABV0@@Z			; TiXmlAttribute::operator==
PUBLIC	??MTiXmlAttribute@@QBE_NABV0@@Z			; TiXmlAttribute::operator<
PUBLIC	??OTiXmlAttribute@@QBE_NABV0@@Z			; TiXmlAttribute::operator>
PUBLIC	?Parse@TiXmlAttribute@@UAEPBDPBDPAVTiXmlParsingData@@W4TiXmlEncoding@@@Z ; TiXmlAttribute::Parse
PUBLIC	?Print@TiXmlAttribute@@UBEXPAVi3FileStream@@H@Z	; TiXmlAttribute::Print
PUBLIC	?SetDocument@TiXmlAttribute@@QAEXPAVTiXmlDocument@@@Z ; TiXmlAttribute::SetDocument
PUBLIC	??1TiXmlAttribute@@UAE@XZ			; TiXmlAttribute::~TiXmlAttribute
PUBLIC	??_GTiXmlAttribute@@UAEPAXI@Z			; TiXmlAttribute::`scalar deleting destructor'
PUBLIC	??_ETiXmlAttribute@@UAEPAXI@Z			; TiXmlAttribute::`vector deleting destructor'
PUBLIC	?First@TiXmlAttributeSet@@QBEPBVTiXmlAttribute@@XZ ; TiXmlAttributeSet::First
PUBLIC	?First@TiXmlAttributeSet@@QAEPAVTiXmlAttribute@@XZ ; TiXmlAttributeSet::First
PUBLIC	?Last@TiXmlAttributeSet@@QBEPBVTiXmlAttribute@@XZ ; TiXmlAttributeSet::Last
PUBLIC	?Last@TiXmlAttributeSet@@QAEPAVTiXmlAttribute@@XZ ; TiXmlAttributeSet::Last
PUBLIC	?Find@TiXmlAttributeSet@@QAEPAVTiXmlAttribute@@PBD@Z ; TiXmlAttributeSet::Find
PUBLIC	?QueryFloatAttribute@TiXmlElement@@QBEHPBDPAM@Z	; TiXmlElement::QueryFloatAttribute
PUBLIC	?FirstAttribute@TiXmlElement@@QBEPBVTiXmlAttribute@@XZ ; TiXmlElement::FirstAttribute
PUBLIC	?FirstAttribute@TiXmlElement@@QAEPAVTiXmlAttribute@@XZ ; TiXmlElement::FirstAttribute
PUBLIC	?LastAttribute@TiXmlElement@@QBEPBVTiXmlAttribute@@XZ ; TiXmlElement::LastAttribute
PUBLIC	?LastAttribute@TiXmlElement@@QAEPAVTiXmlAttribute@@XZ ; TiXmlElement::LastAttribute
PUBLIC	?Parse@TiXmlElement@@UAEPBDPBDPAVTiXmlParsingData@@W4TiXmlEncoding@@@Z ; TiXmlElement::Parse
PUBLIC	?ToElement@TiXmlElement@@UBEPBV1@XZ		; TiXmlElement::ToElement
PUBLIC	?ToElement@TiXmlElement@@UAEPAV1@XZ		; TiXmlElement::ToElement
PUBLIC	?ReadValue@TiXmlElement@@IAEPBDPBDPAVTiXmlParsingData@@W4TiXmlEncoding@@@Z ; TiXmlElement::ReadValue
PUBLIC	??0TiXmlComment@@QAE@XZ				; TiXmlComment::TiXmlComment
PUBLIC	??0TiXmlComment@@QAE@PBD@Z			; TiXmlComment::TiXmlComment
PUBLIC	??1TiXmlComment@@UAE@XZ				; TiXmlComment::~TiXmlComment
PUBLIC	?Parse@TiXmlComment@@UAEPBDPBDPAVTiXmlParsingData@@W4TiXmlEncoding@@@Z ; TiXmlComment::Parse
PUBLIC	?ToComment@TiXmlComment@@UBEPBV1@XZ		; TiXmlComment::ToComment
PUBLIC	?ToComment@TiXmlComment@@UAEPAV1@XZ		; TiXmlComment::ToComment
PUBLIC	??_GTiXmlComment@@UAEPAXI@Z			; TiXmlComment::`scalar deleting destructor'
PUBLIC	??_ETiXmlComment@@UAEPAXI@Z			; TiXmlComment::`vector deleting destructor'
PUBLIC	??0TiXmlText@@QAE@PBD@Z				; TiXmlText::TiXmlText
PUBLIC	??1TiXmlText@@UAE@XZ				; TiXmlText::~TiXmlText
PUBLIC	??0TiXmlText@@QAE@ABV0@@Z			; TiXmlText::TiXmlText
PUBLIC	??4TiXmlText@@QAEXABV0@@Z			; TiXmlText::operator=
PUBLIC	?CDATA@TiXmlText@@QBE_NXZ			; TiXmlText::CDATA
PUBLIC	?SetCDATA@TiXmlText@@QAEX_N@Z			; TiXmlText::SetCDATA
PUBLIC	?Parse@TiXmlText@@UAEPBDPBDPAVTiXmlParsingData@@W4TiXmlEncoding@@@Z ; TiXmlText::Parse
PUBLIC	?ToText@TiXmlText@@UBEPBV1@XZ			; TiXmlText::ToText
PUBLIC	?ToText@TiXmlText@@UAEPAV1@XZ			; TiXmlText::ToText
PUBLIC	?Blank@TiXmlText@@IBE_NXZ			; TiXmlText::Blank
PUBLIC	??_GTiXmlText@@UAEPAXI@Z			; TiXmlText::`scalar deleting destructor'
PUBLIC	??_ETiXmlText@@UAEPAXI@Z			; TiXmlText::`vector deleting destructor'
PUBLIC	??0TiXmlDeclaration@@QAE@XZ			; TiXmlDeclaration::TiXmlDeclaration
PUBLIC	??1TiXmlDeclaration@@UAE@XZ			; TiXmlDeclaration::~TiXmlDeclaration
PUBLIC	?Version@TiXmlDeclaration@@QBEPBDXZ		; TiXmlDeclaration::Version
PUBLIC	?Encoding@TiXmlDeclaration@@QBEPBDXZ		; TiXmlDeclaration::Encoding
PUBLIC	?Standalone@TiXmlDeclaration@@QBEPBDXZ		; TiXmlDeclaration::Standalone
PUBLIC	?Print@TiXmlDeclaration@@UBEXPAVi3FileStream@@H@Z ; TiXmlDeclaration::Print
PUBLIC	?Parse@TiXmlDeclaration@@UAEPBDPBDPAVTiXmlParsingData@@W4TiXmlEncoding@@@Z ; TiXmlDeclaration::Parse
PUBLIC	?ToDeclaration@TiXmlDeclaration@@UBEPBV1@XZ	; TiXmlDeclaration::ToDeclaration
PUBLIC	?ToDeclaration@TiXmlDeclaration@@UAEPAV1@XZ	; TiXmlDeclaration::ToDeclaration
PUBLIC	??_GTiXmlDeclaration@@UAEPAXI@Z			; TiXmlDeclaration::`scalar deleting destructor'
PUBLIC	??_ETiXmlDeclaration@@UAEPAXI@Z			; TiXmlDeclaration::`vector deleting destructor'
PUBLIC	??0TiXmlUnknown@@QAE@XZ				; TiXmlUnknown::TiXmlUnknown
PUBLIC	??1TiXmlUnknown@@UAE@XZ				; TiXmlUnknown::~TiXmlUnknown
PUBLIC	??0TiXmlUnknown@@QAE@ABV0@@Z			; TiXmlUnknown::TiXmlUnknown
PUBLIC	??4TiXmlUnknown@@QAEXABV0@@Z			; TiXmlUnknown::operator=
PUBLIC	?Parse@TiXmlUnknown@@UAEPBDPBDPAVTiXmlParsingData@@W4TiXmlEncoding@@@Z ; TiXmlUnknown::Parse
PUBLIC	?ToUnknown@TiXmlUnknown@@UBEPBV1@XZ		; TiXmlUnknown::ToUnknown
PUBLIC	?ToUnknown@TiXmlUnknown@@UAEPAV1@XZ		; TiXmlUnknown::ToUnknown
PUBLIC	??_GTiXmlUnknown@@UAEPAXI@Z			; TiXmlUnknown::`scalar deleting destructor'
PUBLIC	??_ETiXmlUnknown@@UAEPAXI@Z			; TiXmlUnknown::`vector deleting destructor'
PUBLIC	??1TiXmlDocument@@UAE@XZ			; TiXmlDocument::~TiXmlDocument
PUBLIC	?Parse@TiXmlDocument@@UAEPBDPBDPAVTiXmlParsingData@@W4TiXmlEncoding@@@Z ; TiXmlDocument::Parse
PUBLIC	?RootElement@TiXmlDocument@@QBEPBVTiXmlElement@@XZ ; TiXmlDocument::RootElement
PUBLIC	?RootElement@TiXmlDocument@@QAEPAVTiXmlElement@@XZ ; TiXmlDocument::RootElement
PUBLIC	?Error@TiXmlDocument@@QBE_NXZ			; TiXmlDocument::Error
PUBLIC	?ErrorDesc@TiXmlDocument@@QBEPBDXZ		; TiXmlDocument::ErrorDesc
PUBLIC	?ErrorId@TiXmlDocument@@QBEHXZ			; TiXmlDocument::ErrorId
PUBLIC	?ErrorRow@TiXmlDocument@@QBEHXZ			; TiXmlDocument::ErrorRow
PUBLIC	?ErrorCol@TiXmlDocument@@QBEHXZ			; TiXmlDocument::ErrorCol
PUBLIC	?SetTabSize@TiXmlDocument@@QAEXH@Z		; TiXmlDocument::SetTabSize
PUBLIC	?TabSize@TiXmlDocument@@QBEHXZ			; TiXmlDocument::TabSize
PUBLIC	?ClearError@TiXmlDocument@@QAEXXZ		; TiXmlDocument::ClearError
PUBLIC	?SetError@TiXmlDocument@@QAEXHPBDPAVTiXmlParsingData@@W4TiXmlEncoding@@@Z ; TiXmlDocument::SetError
PUBLIC	?ToDocument@TiXmlDocument@@UBEPBV1@XZ		; TiXmlDocument::ToDocument
PUBLIC	?ToDocument@TiXmlDocument@@UAEPAV1@XZ		; TiXmlDocument::ToDocument
PUBLIC	?GetSize@TiXmlDocument@@QAEIXZ			; TiXmlDocument::GetSize
PUBLIC	??_GTiXmlDocument@@UAEPAXI@Z			; TiXmlDocument::`scalar deleting destructor'
PUBLIC	??_ETiXmlDocument@@UAEPAXI@Z			; TiXmlDocument::`vector deleting destructor'
PUBLIC	??0TiXmlHandle@@QAE@PAVTiXmlNode@@@Z		; TiXmlHandle::TiXmlHandle
PUBLIC	??0TiXmlHandle@@QAE@ABV0@@Z			; TiXmlHandle::TiXmlHandle
PUBLIC	??4TiXmlHandle@@QAE?AV0@ABV0@@Z			; TiXmlHandle::operator=
PUBLIC	?ToNode@TiXmlHandle@@QBEPAVTiXmlNode@@XZ	; TiXmlHandle::ToNode
PUBLIC	?ToElement@TiXmlHandle@@QBEPAVTiXmlElement@@XZ	; TiXmlHandle::ToElement
PUBLIC	?ToText@TiXmlHandle@@QBEPAVTiXmlText@@XZ	; TiXmlHandle::ToText
PUBLIC	?ToUnknown@TiXmlHandle@@QBEPAVTiXmlUnknown@@XZ	; TiXmlHandle::ToUnknown
PUBLIC	?Node@TiXmlHandle@@QBEPAVTiXmlNode@@XZ		; TiXmlHandle::Node
PUBLIC	?Element@TiXmlHandle@@QBEPAVTiXmlElement@@XZ	; TiXmlHandle::Element
PUBLIC	?Text@TiXmlHandle@@QBEPAVTiXmlText@@XZ		; TiXmlHandle::Text
PUBLIC	?Unknown@TiXmlHandle@@QBEPAVTiXmlUnknown@@XZ	; TiXmlHandle::Unknown
PUBLIC	??0TiXmlPrinter@@QAE@XZ				; TiXmlPrinter::TiXmlPrinter
PUBLIC	?SetIndent@TiXmlPrinter@@QAEXPBD@Z		; TiXmlPrinter::SetIndent
PUBLIC	?Indent@TiXmlPrinter@@QAEPBDXZ			; TiXmlPrinter::Indent
PUBLIC	?SetLineBreak@TiXmlPrinter@@QAEXPBD@Z		; TiXmlPrinter::SetLineBreak
PUBLIC	?LineBreak@TiXmlPrinter@@QAEPBDXZ		; TiXmlPrinter::LineBreak
PUBLIC	?SetStreamPrinting@TiXmlPrinter@@QAEXXZ		; TiXmlPrinter::SetStreamPrinting
PUBLIC	?CStr@TiXmlPrinter@@QAEPBDXZ			; TiXmlPrinter::CStr
PUBLIC	?Size@TiXmlPrinter@@QAEIXZ			; TiXmlPrinter::Size
PUBLIC	?DoIndent@TiXmlPrinter@@AAEXXZ			; TiXmlPrinter::DoIndent
PUBLIC	?DoLineBreak@TiXmlPrinter@@AAEXXZ		; TiXmlPrinter::DoLineBreak
PUBLIC	??1TiXmlPrinter@@UAE@XZ				; TiXmlPrinter::~TiXmlPrinter
PUBLIC	??0TiXmlPrinter@@QAE@ABV0@@Z			; TiXmlPrinter::TiXmlPrinter
PUBLIC	??0TiXmlPrinter@@QAE@$$QAV0@@Z			; TiXmlPrinter::TiXmlPrinter
PUBLIC	??4TiXmlPrinter@@QAEAAV0@ABV0@@Z		; TiXmlPrinter::operator=
PUBLIC	??4TiXmlPrinter@@QAEAAV0@$$QAV0@@Z		; TiXmlPrinter::operator=
PUBLIC	??_GTiXmlPrinter@@UAEPAXI@Z			; TiXmlPrinter::`scalar deleting destructor'
PUBLIC	??_ETiXmlPrinter@@UAEPAXI@Z			; TiXmlPrinter::`vector deleting destructor'
PUBLIC	?Stamp@TiXmlParsingData@@QAEXPBDW4TiXmlEncoding@@@Z ; TiXmlParsingData::Stamp
PUBLIC	?Cursor@TiXmlParsingData@@QAEABUTiXmlCursor@@XZ	; TiXmlParsingData::Cursor
PUBLIC	??0TiXmlParsingData@@AAE@PBDHHH@Z		; TiXmlParsingData::TiXmlParsingData
PUBLIC	??4TiXmlParsingData@@QAEAAV0@ABV0@@Z		; TiXmlParsingData::operator=
PUBLIC	??4TiXmlParsingData@@QAEAAV0@$$QAV0@@Z		; TiXmlParsingData::operator=
PUBLIC	??_7i3ClassMeta@@6B@				; i3ClassMeta::`vftable'
PUBLIC	??_7i3ElementBase@@6B@				; i3ElementBase::`vftable'
PUBLIC	??_7i3MemoryPool@@6B@				; i3MemoryPool::`vftable'
PUBLIC	??_7i3Stream@@6B@				; i3Stream::`vftable'
PUBLIC	??_7i3FileStream@@6B@				; i3FileStream::`vftable'
PUBLIC	??_7TiXmlVisitor@@6B@				; TiXmlVisitor::`vftable'
PUBLIC	??_7TiXmlBase@@6B@				; TiXmlBase::`vftable'
PUBLIC	??_7TiXmlAttribute@@6B@				; TiXmlAttribute::`vftable'
PUBLIC	??_7TiXmlComment@@6B@				; TiXmlComment::`vftable'
PUBLIC	??_7TiXmlText@@6B@				; TiXmlText::`vftable'
PUBLIC	??_7TiXmlDeclaration@@6B@			; TiXmlDeclaration::`vftable'
PUBLIC	??_7TiXmlUnknown@@6B@				; TiXmlUnknown::`vftable'
PUBLIC	??_7TiXmlDocument@@6B@				; TiXmlDocument::`vftable'
PUBLIC	??_C@_00CNPNBAHC@@				; `string'
PUBLIC	??_7TiXmlPrinter@@6B@				; TiXmlPrinter::`vftable'
PUBLIC	??_C@_04PFOHOKJK@?5?5?5?5@			; `string'
PUBLIC	??_C@_01EEMJAFIK@?6@				; `string'
PUBLIC	??_C@_05EGJIMALK@UTF?98@			; `string'
PUBLIC	??_C@_04OOMJJNCF@UTF8@				; `string'
PUBLIC	??_C@_05DJDIECHG@?$DM?$DPxml@			; `string'
PUBLIC	??_C@_04FFDNBKGC@?$DM?$CB?9?9@			; `string'
PUBLIC	??_C@_02KBFACPPK@?$DM?$CB@			; `string'
PUBLIC	??_C@_09BLLNCBLF@?$DM?$CB?$FLCDATA?$FL@		; `string'
PUBLIC	??_C@_02DPNDACHE@?$DM?1@			; `string'
PUBLIC	??_C@_01PPODPGHN@?$DO@				; `string'
PUBLIC	??_C@_03PNLDJJMO@?9?9?$DO@			; `string'
PUBLIC	??_C@_01GEODFPGF@?8@				; `string'
PUBLIC	??_C@_01BJJEKLCA@?$CC@				; `string'
PUBLIC	??_C@_03MCHNFBAC@?$FN?$FN?$DO@			; `string'
PUBLIC	??_C@_01MNNFJEPP@?$DM@				; `string'
PUBLIC	??_C@_07CPCPJPKL@version@			; `string'
PUBLIC	??_C@_08MLPGAEIK@encoding@			; `string'
PUBLIC	??_C@_0L@FLHGMILF@standalone@			; `string'
PUBLIC	??_R4i3ElementBase@@6B@				; i3ElementBase::`RTTI Complete Object Locator'
PUBLIC	??_R0?AVi3ElementBase@@@8			; i3ElementBase `RTTI Type Descriptor'
PUBLIC	??_R3i3ElementBase@@8				; i3ElementBase::`RTTI Class Hierarchy Descriptor'
PUBLIC	??_R2i3ElementBase@@8				; i3ElementBase::`RTTI Base Class Array'
PUBLIC	??_R1A@?0A@EA@i3ElementBase@@8			; i3ElementBase::`RTTI Base Class Descriptor at (0,-1,0,64)'
PUBLIC	??_R4i3MemoryPool@@6B@				; i3MemoryPool::`RTTI Complete Object Locator'
PUBLIC	??_R0?AVi3MemoryPool@@@8			; i3MemoryPool `RTTI Type Descriptor'
PUBLIC	??_R3i3MemoryPool@@8				; i3MemoryPool::`RTTI Class Hierarchy Descriptor'
PUBLIC	??_R2i3MemoryPool@@8				; i3MemoryPool::`RTTI Base Class Array'
PUBLIC	??_R1A@?0A@EA@i3MemoryPool@@8			; i3MemoryPool::`RTTI Base Class Descriptor at (0,-1,0,64)'
PUBLIC	??_R4i3ClassMeta@@6B@				; i3ClassMeta::`RTTI Complete Object Locator'
PUBLIC	??_R0?AVi3ClassMeta@@@8				; i3ClassMeta `RTTI Type Descriptor'
PUBLIC	??_R3i3ClassMeta@@8				; i3ClassMeta::`RTTI Class Hierarchy Descriptor'
PUBLIC	??_R2i3ClassMeta@@8				; i3ClassMeta::`RTTI Base Class Array'
PUBLIC	??_R1A@?0A@EA@i3ClassMeta@@8			; i3ClassMeta::`RTTI Base Class Descriptor at (0,-1,0,64)'
PUBLIC	??_R4i3Stream@@6B@				; i3Stream::`RTTI Complete Object Locator'
PUBLIC	??_R0?AVi3Stream@@@8				; i3Stream `RTTI Type Descriptor'
PUBLIC	??_R3i3Stream@@8				; i3Stream::`RTTI Class Hierarchy Descriptor'
PUBLIC	??_R2i3Stream@@8				; i3Stream::`RTTI Base Class Array'
PUBLIC	??_R1A@?0A@EA@i3Stream@@8			; i3Stream::`RTTI Base Class Descriptor at (0,-1,0,64)'
PUBLIC	??_R4i3FileStream@@6B@				; i3FileStream::`RTTI Complete Object Locator'
PUBLIC	??_R0?AVi3FileStream@@@8			; i3FileStream `RTTI Type Descriptor'
PUBLIC	??_R3i3FileStream@@8				; i3FileStream::`RTTI Class Hierarchy Descriptor'
PUBLIC	??_R2i3FileStream@@8				; i3FileStream::`RTTI Base Class Array'
PUBLIC	??_R1A@?0A@EA@i3FileStream@@8			; i3FileStream::`RTTI Base Class Descriptor at (0,-1,0,64)'
PUBLIC	??_R4TiXmlDocument@@6B@				; TiXmlDocument::`RTTI Complete Object Locator'
PUBLIC	??_R0?AVTiXmlDocument@@@8			; TiXmlDocument `RTTI Type Descriptor'
PUBLIC	??_R3TiXmlDocument@@8				; TiXmlDocument::`RTTI Class Hierarchy Descriptor'
PUBLIC	??_R2TiXmlDocument@@8				; TiXmlDocument::`RTTI Base Class Array'
PUBLIC	??_R1A@?0A@EA@TiXmlDocument@@8			; TiXmlDocument::`RTTI Base Class Descriptor at (0,-1,0,64)'
PUBLIC	??_R1A@?0A@EA@TiXmlNode@@8			; TiXmlNode::`RTTI Base Class Descriptor at (0,-1,0,64)'
PUBLIC	??_R0?AVTiXmlNode@@@8				; TiXmlNode `RTTI Type Descriptor'
PUBLIC	??_R3TiXmlNode@@8				; TiXmlNode::`RTTI Class Hierarchy Descriptor'
PUBLIC	??_R2TiXmlNode@@8				; TiXmlNode::`RTTI Base Class Array'
PUBLIC	??_R1A@?0A@EA@TiXmlBase@@8			; TiXmlBase::`RTTI Base Class Descriptor at (0,-1,0,64)'
PUBLIC	??_R0?AVTiXmlBase@@@8				; TiXmlBase `RTTI Type Descriptor'
PUBLIC	??_R3TiXmlBase@@8				; TiXmlBase::`RTTI Class Hierarchy Descriptor'
PUBLIC	??_R2TiXmlBase@@8				; TiXmlBase::`RTTI Base Class Array'
PUBLIC	??_R4TiXmlComment@@6B@				; TiXmlComment::`RTTI Complete Object Locator'
PUBLIC	??_R0?AVTiXmlComment@@@8			; TiXmlComment `RTTI Type Descriptor'
PUBLIC	??_R3TiXmlComment@@8				; TiXmlComment::`RTTI Class Hierarchy Descriptor'
PUBLIC	??_R2TiXmlComment@@8				; TiXmlComment::`RTTI Base Class Array'
PUBLIC	??_R1A@?0A@EA@TiXmlComment@@8			; TiXmlComment::`RTTI Base Class Descriptor at (0,-1,0,64)'
PUBLIC	??_R4TiXmlUnknown@@6B@				; TiXmlUnknown::`RTTI Complete Object Locator'
PUBLIC	??_R0?AVTiXmlUnknown@@@8			; TiXmlUnknown `RTTI Type Descriptor'
PUBLIC	??_R3TiXmlUnknown@@8				; TiXmlUnknown::`RTTI Class Hierarchy Descriptor'
PUBLIC	??_R2TiXmlUnknown@@8				; TiXmlUnknown::`RTTI Base Class Array'
PUBLIC	??_R1A@?0A@EA@TiXmlUnknown@@8			; TiXmlUnknown::`RTTI Base Class Descriptor at (0,-1,0,64)'
PUBLIC	??_R4TiXmlAttribute@@6B@			; TiXmlAttribute::`RTTI Complete Object Locator'
PUBLIC	??_R0?AVTiXmlAttribute@@@8			; TiXmlAttribute `RTTI Type Descriptor'
PUBLIC	??_R3TiXmlAttribute@@8				; TiXmlAttribute::`RTTI Class Hierarchy Descriptor'
PUBLIC	??_R2TiXmlAttribute@@8				; TiXmlAttribute::`RTTI Base Class Array'
PUBLIC	??_R1A@?0A@EA@TiXmlAttribute@@8			; TiXmlAttribute::`RTTI Base Class Descriptor at (0,-1,0,64)'
PUBLIC	??_R4TiXmlText@@6B@				; TiXmlText::`RTTI Complete Object Locator'
PUBLIC	??_R0?AVTiXmlText@@@8				; TiXmlText `RTTI Type Descriptor'
PUBLIC	??_R3TiXmlText@@8				; TiXmlText::`RTTI Class Hierarchy Descriptor'
PUBLIC	??_R2TiXmlText@@8				; TiXmlText::`RTTI Base Class Array'
PUBLIC	??_R1A@?0A@EA@TiXmlText@@8			; TiXmlText::`RTTI Base Class Descriptor at (0,-1,0,64)'
PUBLIC	??_R4TiXmlDeclaration@@6B@			; TiXmlDeclaration::`RTTI Complete Object Locator'
PUBLIC	??_R0?AVTiXmlDeclaration@@@8			; TiXmlDeclaration `RTTI Type Descriptor'
PUBLIC	??_R3TiXmlDeclaration@@8			; TiXmlDeclaration::`RTTI Class Hierarchy Descriptor'
PUBLIC	??_R2TiXmlDeclaration@@8			; TiXmlDeclaration::`RTTI Base Class Array'
PUBLIC	??_R1A@?0A@EA@TiXmlDeclaration@@8		; TiXmlDeclaration::`RTTI Base Class Descriptor at (0,-1,0,64)'
PUBLIC	??_R4TiXmlVisitor@@6B@				; TiXmlVisitor::`RTTI Complete Object Locator'
PUBLIC	??_R0?AVTiXmlVisitor@@@8			; TiXmlVisitor `RTTI Type Descriptor'
PUBLIC	??_R3TiXmlVisitor@@8				; TiXmlVisitor::`RTTI Class Hierarchy Descriptor'
PUBLIC	??_R2TiXmlVisitor@@8				; TiXmlVisitor::`RTTI Base Class Array'
PUBLIC	??_R1A@?0A@EA@TiXmlVisitor@@8			; TiXmlVisitor::`RTTI Base Class Descriptor at (0,-1,0,64)'
PUBLIC	??_R4TiXmlBase@@6B@				; TiXmlBase::`RTTI Complete Object Locator'
PUBLIC	??_R4TiXmlPrinter@@6B@				; TiXmlPrinter::`RTTI Complete Object Locator'
PUBLIC	??_R0?AVTiXmlPrinter@@@8			; TiXmlPrinter `RTTI Type Descriptor'
PUBLIC	??_R3TiXmlPrinter@@8				; TiXmlPrinter::`RTTI Class Hierarchy Descriptor'
PUBLIC	??_R2TiXmlPrinter@@8				; TiXmlPrinter::`RTTI Base Class Array'
PUBLIC	??_R1A@?0A@EA@TiXmlPrinter@@8			; TiXmlPrinter::`RTTI Base Class Descriptor at (0,-1,0,64)'
EXTRN	??_M@YGXPAXIIP6EX0@Z@Z:PROC			; `eh vector destructor iterator'
EXTRN	__purecall:PROC
EXTRN	??2@YAPAXI@Z:PROC				; operator new
EXTRN	??3@YAXPAX@Z:PROC				; operator delete
EXTRN	??3@YAXPAXI@Z:PROC				; operator delete
EXTRN	??_U@YAPAXI@Z:PROC				; operator new[]
EXTRN	??_V@YAXPAX@Z:PROC				; operator delete[]
EXTRN	??_V@YAXPAXI@Z:PROC				; operator delete[]
EXTRN	_isalpha:PROC
EXTRN	_isspace:PROC
EXTRN	_isalnum:PROC
EXTRN	_tolower:PROC
EXTRN	_strchr:PROC
EXTRN	??1i3ClassMeta@@UAE@XZ:PROC			; i3ClassMeta::~i3ClassMeta
EXTRN	?CreateInstance@i3ClassMeta@@UAEPAVi3ElementBase@@W4I3_CLASSMETA_TYPE@@@Z:PROC ; i3ClassMeta::CreateInstance
EXTRN	?BindInstance@i3ClassMeta@@UAEPAVi3ElementBase@@PAXW4I3_CLASSMETA_TYPE@@@Z:PROC ; i3ClassMeta::BindInstance
EXTRN	?IsTypeOf@i3ClassMeta@@QAE_NPAV1@@Z:PROC	; i3ClassMeta::IsTypeOf
EXTRN	?GetMeta@i3ElementBase@@UAEPAVi3ClassMeta@@XZ:PROC ; i3ElementBase::GetMeta
EXTRN	??1i3ElementBase@@UAE@XZ:PROC			; i3ElementBase::~i3ElementBase
EXTRN	??3i3ElementBase@@SAXPAX@Z:PROC			; i3ElementBase::operator delete
EXTRN	?CopyTo@i3ElementBase@@UAEXPAV1@W4I3_COPY_METHOD@@@Z:PROC ; i3ElementBase::CopyTo
EXTRN	??1i3MemoryPool@@UAE@XZ:PROC			; i3MemoryPool::~i3MemoryPool
EXTRN	?GetMeta@i3Stream@@UAEPAVi3ClassMeta@@XZ:PROC	; i3Stream::GetMeta
EXTRN	??1i3Stream@@UAE@XZ:PROC			; i3Stream::~i3Stream
EXTRN	?CopyTo@i3Stream@@UAEIPAV1@I@Z:PROC		; i3Stream::CopyTo
EXTRN	?CopyFrom@i3Stream@@UAEIPAV1@I@Z:PROC		; i3Stream::CopyFrom
EXTRN	?ReadLine@i3Stream@@UAEIPADH@Z:PROC		; i3Stream::ReadLine
EXTRN	?ReadLineW@i3Stream@@UAEIPAGH@Z:PROC		; i3Stream::ReadLineW
EXTRN	?WriteLine@i3Stream@@UAEIPBD@Z:PROC		; i3Stream::WriteLine
EXTRN	?WriteLineW@i3Stream@@UAEIPBG@Z:PROC		; i3Stream::WriteLineW
EXTRN	?Printf@i3Stream@@UAAIPADPBDZZ:PROC		; i3Stream::Printf
EXTRN	?GetMeta@i3FileStream@@UAEPAVi3ClassMeta@@XZ:PROC ; i3FileStream::GetMeta
EXTRN	??1i3FileStream@@UAE@XZ:PROC			; i3FileStream::~i3FileStream
EXTRN	?Create@i3FileStream@@UAEHPBDHI@Z:PROC		; i3FileStream::Create
EXTRN	?Open@i3FileStream@@UAEHPBDHI@Z:PROC		; i3FileStream::Open
EXTRN	?Close@i3FileStream@@UAEHXZ:PROC		; i3FileStream::Close
EXTRN	?Read@i3FileStream@@UAEIPAXH@Z:PROC		; i3FileStream::Read
EXTRN	?Write@i3FileStream@@UAEIPBXH@Z:PROC		; i3FileStream::Write
EXTRN	?SetPosition@i3FileStream@@UAEIHH@Z:PROC	; i3FileStream::SetPosition
EXTRN	?GetPosition@i3FileStream@@UAEIXZ:PROC		; i3FileStream::GetPosition
EXTRN	?assign@TiXmlString@@QAEAAV1@PBDI@Z:PROC	; TiXmlString::assign
EXTRN	?append@TiXmlString@@QAEAAV1@PBDI@Z:PROC	; TiXmlString::append
EXTRN	??1TiXmlNode@@UAE@XZ:PROC			; TiXmlNode::~TiXmlNode
EXTRN	?FirstChild@TiXmlNode@@QBEPBV1@PBD@Z:PROC	; TiXmlNode::FirstChild
EXTRN	?LastChild@TiXmlNode@@QBEPBV1@PBD@Z:PROC	; TiXmlNode::LastChild
EXTRN	?IterateChildren@TiXmlNode@@QBEPBV1@PBV1@@Z:PROC ; TiXmlNode::IterateChildren
EXTRN	?IterateChildren@TiXmlNode@@QBEPBV1@PBDPBV1@@Z:PROC ; TiXmlNode::IterateChildren
EXTRN	?LinkEndChild@TiXmlNode@@QAEPAV1@PAV1@@Z:PROC	; TiXmlNode::LinkEndChild
EXTRN	?PreviousSibling@TiXmlNode@@QBEPBV1@PBD@Z:PROC	; TiXmlNode::PreviousSibling
EXTRN	?NextSibling@TiXmlNode@@QBEPBV1@PBD@Z:PROC	; TiXmlNode::NextSibling
EXTRN	?NextSiblingElement@TiXmlNode@@QBEPBVTiXmlElement@@XZ:PROC ; TiXmlNode::NextSiblingElement
EXTRN	?NextSiblingElement@TiXmlNode@@QBEPBVTiXmlElement@@PBD@Z:PROC ; TiXmlNode::NextSiblingElement
EXTRN	?FirstChildElement@TiXmlNode@@QBEPBVTiXmlElement@@XZ:PROC ; TiXmlNode::FirstChildElement
EXTRN	?FirstChildElement@TiXmlNode@@QBEPBVTiXmlElement@@PBD@Z:PROC ; TiXmlNode::FirstChildElement
EXTRN	?GetDocument@TiXmlNode@@QBEPBVTiXmlDocument@@XZ:PROC ; TiXmlNode::GetDocument
EXTRN	??0TiXmlNode@@IAE@W4NodeType@0@@Z:PROC		; TiXmlNode::TiXmlNode
EXTRN	?Next@TiXmlAttribute@@QBEPBV1@XZ:PROC		; TiXmlAttribute::Next
EXTRN	?Previous@TiXmlAttribute@@QBEPBV1@XZ:PROC	; TiXmlAttribute::Previous
EXTRN	?Print@TiXmlAttribute@@QBEXPAVi3FileStream@@HPAVTiXmlString@@@Z:PROC ; TiXmlAttribute::Print
EXTRN	?Add@TiXmlAttributeSet@@QAEXPAVTiXmlAttribute@@@Z:PROC ; TiXmlAttributeSet::Add
EXTRN	?Find@TiXmlAttributeSet@@QBEPBVTiXmlAttribute@@PBD@Z:PROC ; TiXmlAttributeSet::Find
EXTRN	??0TiXmlElement@@QAE@PBD@Z:PROC			; TiXmlElement::TiXmlElement
EXTRN	?QueryDoubleAttribute@TiXmlElement@@QBEHPBDPAN@Z:PROC ; TiXmlElement::QueryDoubleAttribute
EXTRN	?Clone@TiXmlComment@@UBEPAVTiXmlNode@@XZ:PROC	; TiXmlComment::Clone
EXTRN	?Print@TiXmlComment@@UBEXPAVi3FileStream@@H@Z:PROC ; TiXmlComment::Print
EXTRN	?Accept@TiXmlComment@@UBE_NPAVTiXmlVisitor@@@Z:PROC ; TiXmlComment::Accept
EXTRN	?Print@TiXmlText@@UBEXPAVi3FileStream@@H@Z:PROC	; TiXmlText::Print
EXTRN	?Accept@TiXmlText@@UBE_NPAVTiXmlVisitor@@@Z:PROC ; TiXmlText::Accept
EXTRN	?Clone@TiXmlText@@MBEPAVTiXmlNode@@XZ:PROC	; TiXmlText::Clone
EXTRN	?CopyTo@TiXmlText@@IBEXPAV1@@Z:PROC		; TiXmlText::CopyTo
EXTRN	?Clone@TiXmlDeclaration@@UBEPAVTiXmlNode@@XZ:PROC ; TiXmlDeclaration::Clone
EXTRN	?Print@TiXmlDeclaration@@UBEXPAVi3FileStream@@HPAVTiXmlString@@@Z:PROC ; TiXmlDeclaration::Print
EXTRN	?Accept@TiXmlDeclaration@@UBE_NPAVTiXmlVisitor@@@Z:PROC ; TiXmlDeclaration::Accept
EXTRN	?Clone@TiXmlUnknown@@UBEPAVTiXmlNode@@XZ:PROC	; TiXmlUnknown::Clone
EXTRN	?Print@TiXmlUnknown@@UBEXPAVi3FileStream@@H@Z:PROC ; TiXmlUnknown::Print
EXTRN	?Accept@TiXmlUnknown@@UBE_NPAVTiXmlVisitor@@@Z:PROC ; TiXmlUnknown::Accept
EXTRN	?CopyTo@TiXmlUnknown@@IBEXPAV1@@Z:PROC		; TiXmlUnknown::CopyTo
EXTRN	?Print@TiXmlDocument@@UBEXPAVi3FileStream@@H@Z:PROC ; TiXmlDocument::Print
EXTRN	?Accept@TiXmlDocument@@UBE_NPAVTiXmlVisitor@@@Z:PROC ; TiXmlDocument::Accept
EXTRN	?Clone@TiXmlDocument@@MBEPAVTiXmlNode@@XZ:PROC	; TiXmlDocument::Clone
EXTRN	?VisitEnter@TiXmlPrinter@@UAE_NABVTiXmlDocument@@@Z:PROC ; TiXmlPrinter::VisitEnter
EXTRN	?VisitExit@TiXmlPrinter@@UAE_NABVTiXmlDocument@@@Z:PROC ; TiXmlPrinter::VisitExit
EXTRN	?VisitEnter@TiXmlPrinter@@UAE_NABVTiXmlElement@@PBVTiXmlAttribute@@@Z:PROC ; TiXmlPrinter::VisitEnter
EXTRN	?VisitExit@TiXmlPrinter@@UAE_NABVTiXmlElement@@@Z:PROC ; TiXmlPrinter::VisitExit
EXTRN	?Visit@TiXmlPrinter@@UAE_NABVTiXmlDeclaration@@@Z:PROC ; TiXmlPrinter::Visit
EXTRN	?Visit@TiXmlPrinter@@UAE_NABVTiXmlText@@@Z:PROC	; TiXmlPrinter::Visit
EXTRN	?Visit@TiXmlPrinter@@UAE_NABVTiXmlComment@@@Z:PROC ; TiXmlPrinter::Visit
EXTRN	?Visit@TiXmlPrinter@@UAE_NABVTiXmlUnknown@@@Z:PROC ; TiXmlPrinter::Visit
EXTRN	@__security_check_cookie@4:PROC
EXTRN	___CxxFrameHandler3:PROC
EXTRN	_memcpy:PROC
EXTRN	_strncmp:PROC
EXTRN	??_7type_info@@6B@:QWORD			; type_info::`vftable'
EXTRN	?s_pClassMetai3ElementBase@i3ElementBase@@2PAVi3ClassMeta@@A:DWORD ; i3ElementBase::s_pClassMetai3ElementBase
EXTRN	?s_pClassMetai3Stream@i3Stream@@2PAVi3ClassMeta@@A:DWORD ; i3Stream::s_pClassMetai3Stream
EXTRN	?s_pClassMetai3FileStream@i3FileStream@@2PAVi3ClassMeta@@A:DWORD ; i3FileStream::s_pClassMetai3FileStream
EXTRN	?m_bCaseSensitive@i3FileStream@@1HA:DWORD	; i3FileStream::m_bCaseSensitive
EXTRN	?npos@TiXmlString@@2IB:DWORD			; TiXmlString::npos
EXTRN	?nullrep_@TiXmlString@@0URep@1@A:BYTE		; TiXmlString::nullrep_
EXTRN	?errorString@TiXmlBase@@1PAPBDA:BYTE		; TiXmlBase::errorString
EXTRN	?condenseWhiteSpace@TiXmlBase@@0_NA:BYTE	; TiXmlBase::condenseWhiteSpace
EXTRN	___security_cookie:DWORD
EXTRN	__fltused:DWORD
;	COMDAT ??_R1A@?0A@EA@TiXmlPrinter@@8
rdata$r	SEGMENT
??_R1A@?0A@EA@TiXmlPrinter@@8 DD FLAT:??_R0?AVTiXmlPrinter@@@8 ; TiXmlPrinter::`RTTI Base Class Descriptor at (0,-1,0,64)'
	DD	01H
	DD	00H
	DD	0ffffffffH
	DD	00H
	DD	040H
	DD	FLAT:??_R3TiXmlPrinter@@8
rdata$r	ENDS
;	COMDAT ??_R2TiXmlPrinter@@8
rdata$r	SEGMENT
??_R2TiXmlPrinter@@8 DD FLAT:??_R1A@?0A@EA@TiXmlPrinter@@8 ; TiXmlPrinter::`RTTI Base Class Array'
	DD	FLAT:??_R1A@?0A@EA@TiXmlVisitor@@8
rdata$r	ENDS
;	COMDAT ??_R3TiXmlPrinter@@8
rdata$r	SEGMENT
??_R3TiXmlPrinter@@8 DD 00H				; TiXmlPrinter::`RTTI Class Hierarchy Descriptor'
	DD	00H
	DD	02H
	DD	FLAT:??_R2TiXmlPrinter@@8
rdata$r	ENDS
;	COMDAT ??_R0?AVTiXmlPrinter@@@8
data$rs	SEGMENT
??_R0?AVTiXmlPrinter@@@8 DD FLAT:??_7type_info@@6B@	; TiXmlPrinter `RTTI Type Descriptor'
	DD	00H
	DB	'.?AVTiXmlPrinter@@', 00H
data$rs	ENDS
;	COMDAT ??_R4TiXmlPrinter@@6B@
rdata$r	SEGMENT
??_R4TiXmlPrinter@@6B@ DD 00H				; TiXmlPrinter::`RTTI Complete Object Locator'
	DD	00H
	DD	00H
	DD	FLAT:??_R0?AVTiXmlPrinter@@@8
	DD	FLAT:??_R3TiXmlPrinter@@8
rdata$r	ENDS
;	COMDAT ??_R4TiXmlBase@@6B@
rdata$r	SEGMENT
??_R4TiXmlBase@@6B@ DD 00H				; TiXmlBase::`RTTI Complete Object Locator'
	DD	00H
	DD	00H
	DD	FLAT:??_R0?AVTiXmlBase@@@8
	DD	FLAT:??_R3TiXmlBase@@8
rdata$r	ENDS
;	COMDAT ??_R1A@?0A@EA@TiXmlVisitor@@8
rdata$r	SEGMENT
??_R1A@?0A@EA@TiXmlVisitor@@8 DD FLAT:??_R0?AVTiXmlVisitor@@@8 ; TiXmlVisitor::`RTTI Base Class Descriptor at (0,-1,0,64)'
	DD	00H
	DD	00H
	DD	0ffffffffH
	DD	00H
	DD	040H
	DD	FLAT:??_R3TiXmlVisitor@@8
rdata$r	ENDS
;	COMDAT ??_R2TiXmlVisitor@@8
rdata$r	SEGMENT
??_R2TiXmlVisitor@@8 DD FLAT:??_R1A@?0A@EA@TiXmlVisitor@@8 ; TiXmlVisitor::`RTTI Base Class Array'
rdata$r	ENDS
;	COMDAT ??_R3TiXmlVisitor@@8
rdata$r	SEGMENT
??_R3TiXmlVisitor@@8 DD 00H				; TiXmlVisitor::`RTTI Class Hierarchy Descriptor'
	DD	00H
	DD	01H
	DD	FLAT:??_R2TiXmlVisitor@@8
rdata$r	ENDS
;	COMDAT ??_R0?AVTiXmlVisitor@@@8
data$rs	SEGMENT
??_R0?AVTiXmlVisitor@@@8 DD FLAT:??_7type_info@@6B@	; TiXmlVisitor `RTTI Type Descriptor'
	DD	00H
	DB	'.?AVTiXmlVisitor@@', 00H
data$rs	ENDS
;	COMDAT ??_R4TiXmlVisitor@@6B@
rdata$r	SEGMENT
??_R4TiXmlVisitor@@6B@ DD 00H				; TiXmlVisitor::`RTTI Complete Object Locator'
	DD	00H
	DD	00H
	DD	FLAT:??_R0?AVTiXmlVisitor@@@8
	DD	FLAT:??_R3TiXmlVisitor@@8
rdata$r	ENDS
;	COMDAT ??_R1A@?0A@EA@TiXmlDeclaration@@8
rdata$r	SEGMENT
??_R1A@?0A@EA@TiXmlDeclaration@@8 DD FLAT:??_R0?AVTiXmlDeclaration@@@8 ; TiXmlDeclaration::`RTTI Base Class Descriptor at (0,-1,0,64)'
	DD	02H
	DD	00H
	DD	0ffffffffH
	DD	00H
	DD	040H
	DD	FLAT:??_R3TiXmlDeclaration@@8
rdata$r	ENDS
;	COMDAT ??_R2TiXmlDeclaration@@8
rdata$r	SEGMENT
??_R2TiXmlDeclaration@@8 DD FLAT:??_R1A@?0A@EA@TiXmlDeclaration@@8 ; TiXmlDeclaration::`RTTI Base Class Array'
	DD	FLAT:??_R1A@?0A@EA@TiXmlNode@@8
	DD	FLAT:??_R1A@?0A@EA@TiXmlBase@@8
rdata$r	ENDS
;	COMDAT ??_R3TiXmlDeclaration@@8
rdata$r	SEGMENT
??_R3TiXmlDeclaration@@8 DD 00H				; TiXmlDeclaration::`RTTI Class Hierarchy Descriptor'
	DD	00H
	DD	03H
	DD	FLAT:??_R2TiXmlDeclaration@@8
rdata$r	ENDS
;	COMDAT ??_R0?AVTiXmlDeclaration@@@8
data$rs	SEGMENT
??_R0?AVTiXmlDeclaration@@@8 DD FLAT:??_7type_info@@6B@	; TiXmlDeclaration `RTTI Type Descriptor'
	DD	00H
	DB	'.?AVTiXmlDeclaration@@', 00H
data$rs	ENDS
;	COMDAT ??_R4TiXmlDeclaration@@6B@
rdata$r	SEGMENT
??_R4TiXmlDeclaration@@6B@ DD 00H			; TiXmlDeclaration::`RTTI Complete Object Locator'
	DD	00H
	DD	00H
	DD	FLAT:??_R0?AVTiXmlDeclaration@@@8
	DD	FLAT:??_R3TiXmlDeclaration@@8
rdata$r	ENDS
;	COMDAT ??_R1A@?0A@EA@TiXmlText@@8
rdata$r	SEGMENT
??_R1A@?0A@EA@TiXmlText@@8 DD FLAT:??_R0?AVTiXmlText@@@8 ; TiXmlText::`RTTI Base Class Descriptor at (0,-1,0,64)'
	DD	02H
	DD	00H
	DD	0ffffffffH
	DD	00H
	DD	040H
	DD	FLAT:??_R3TiXmlText@@8
rdata$r	ENDS
;	COMDAT ??_R2TiXmlText@@8
rdata$r	SEGMENT
??_R2TiXmlText@@8 DD FLAT:??_R1A@?0A@EA@TiXmlText@@8	; TiXmlText::`RTTI Base Class Array'
	DD	FLAT:??_R1A@?0A@EA@TiXmlNode@@8
	DD	FLAT:??_R1A@?0A@EA@TiXmlBase@@8
rdata$r	ENDS
;	COMDAT ??_R3TiXmlText@@8
rdata$r	SEGMENT
??_R3TiXmlText@@8 DD 00H				; TiXmlText::`RTTI Class Hierarchy Descriptor'
	DD	00H
	DD	03H
	DD	FLAT:??_R2TiXmlText@@8
rdata$r	ENDS
;	COMDAT ??_R0?AVTiXmlText@@@8
data$rs	SEGMENT
??_R0?AVTiXmlText@@@8 DD FLAT:??_7type_info@@6B@	; TiXmlText `RTTI Type Descriptor'
	DD	00H
	DB	'.?AVTiXmlText@@', 00H
data$rs	ENDS
;	COMDAT ??_R4TiXmlText@@6B@
rdata$r	SEGMENT
??_R4TiXmlText@@6B@ DD 00H				; TiXmlText::`RTTI Complete Object Locator'
	DD	00H
	DD	00H
	DD	FLAT:??_R0?AVTiXmlText@@@8
	DD	FLAT:??_R3TiXmlText@@8
rdata$r	ENDS
;	COMDAT ??_R1A@?0A@EA@TiXmlAttribute@@8
rdata$r	SEGMENT
??_R1A@?0A@EA@TiXmlAttribute@@8 DD FLAT:??_R0?AVTiXmlAttribute@@@8 ; TiXmlAttribute::`RTTI Base Class Descriptor at (0,-1,0,64)'
	DD	01H
	DD	00H
	DD	0ffffffffH
	DD	00H
	DD	040H
	DD	FLAT:??_R3TiXmlAttribute@@8
rdata$r	ENDS
;	COMDAT ??_R2TiXmlAttribute@@8
rdata$r	SEGMENT
??_R2TiXmlAttribute@@8 DD FLAT:??_R1A@?0A@EA@TiXmlAttribute@@8 ; TiXmlAttribute::`RTTI Base Class Array'
	DD	FLAT:??_R1A@?0A@EA@TiXmlBase@@8
rdata$r	ENDS
;	COMDAT ??_R3TiXmlAttribute@@8
rdata$r	SEGMENT
??_R3TiXmlAttribute@@8 DD 00H				; TiXmlAttribute::`RTTI Class Hierarchy Descriptor'
	DD	00H
	DD	02H
	DD	FLAT:??_R2TiXmlAttribute@@8
rdata$r	ENDS
;	COMDAT ??_R0?AVTiXmlAttribute@@@8
data$rs	SEGMENT
??_R0?AVTiXmlAttribute@@@8 DD FLAT:??_7type_info@@6B@	; TiXmlAttribute `RTTI Type Descriptor'
	DD	00H
	DB	'.?AVTiXmlAttribute@@', 00H
data$rs	ENDS
;	COMDAT ??_R4TiXmlAttribute@@6B@
rdata$r	SEGMENT
??_R4TiXmlAttribute@@6B@ DD 00H				; TiXmlAttribute::`RTTI Complete Object Locator'
	DD	00H
	DD	00H
	DD	FLAT:??_R0?AVTiXmlAttribute@@@8
	DD	FLAT:??_R3TiXmlAttribute@@8
rdata$r	ENDS
;	COMDAT ??_R1A@?0A@EA@TiXmlUnknown@@8
rdata$r	SEGMENT
??_R1A@?0A@EA@TiXmlUnknown@@8 DD FLAT:??_R0?AVTiXmlUnknown@@@8 ; TiXmlUnknown::`RTTI Base Class Descriptor at (0,-1,0,64)'
	DD	02H
	DD	00H
	DD	0ffffffffH
	DD	00H
	DD	040H
	DD	FLAT:??_R3TiXmlUnknown@@8
rdata$r	ENDS
;	COMDAT ??_R2TiXmlUnknown@@8
rdata$r	SEGMENT
??_R2TiXmlUnknown@@8 DD FLAT:??_R1A@?0A@EA@TiXmlUnknown@@8 ; TiXmlUnknown::`RTTI Base Class Array'
	DD	FLAT:??_R1A@?0A@EA@TiXmlNode@@8
	DD	FLAT:??_R1A@?0A@EA@TiXmlBase@@8
rdata$r	ENDS
;	COMDAT ??_R3TiXmlUnknown@@8
rdata$r	SEGMENT
??_R3TiXmlUnknown@@8 DD 00H				; TiXmlUnknown::`RTTI Class Hierarchy Descriptor'
	DD	00H
	DD	03H
	DD	FLAT:??_R2TiXmlUnknown@@8
rdata$r	ENDS
;	COMDAT ??_R0?AVTiXmlUnknown@@@8
data$rs	SEGMENT
??_R0?AVTiXmlUnknown@@@8 DD FLAT:??_7type_info@@6B@	; TiXmlUnknown `RTTI Type Descriptor'
	DD	00H
	DB	'.?AVTiXmlUnknown@@', 00H
data$rs	ENDS
;	COMDAT ??_R4TiXmlUnknown@@6B@
rdata$r	SEGMENT
??_R4TiXmlUnknown@@6B@ DD 00H				; TiXmlUnknown::`RTTI Complete Object Locator'
	DD	00H
	DD	00H
	DD	FLAT:??_R0?AVTiXmlUnknown@@@8
	DD	FLAT:??_R3TiXmlUnknown@@8
rdata$r	ENDS
;	COMDAT ??_R1A@?0A@EA@TiXmlComment@@8
rdata$r	SEGMENT
??_R1A@?0A@EA@TiXmlComment@@8 DD FLAT:??_R0?AVTiXmlComment@@@8 ; TiXmlComment::`RTTI Base Class Descriptor at (0,-1,0,64)'
	DD	02H
	DD	00H
	DD	0ffffffffH
	DD	00H
	DD	040H
	DD	FLAT:??_R3TiXmlComment@@8
rdata$r	ENDS
;	COMDAT ??_R2TiXmlComment@@8
rdata$r	SEGMENT
??_R2TiXmlComment@@8 DD FLAT:??_R1A@?0A@EA@TiXmlComment@@8 ; TiXmlComment::`RTTI Base Class Array'
	DD	FLAT:??_R1A@?0A@EA@TiXmlNode@@8
	DD	FLAT:??_R1A@?0A@EA@TiXmlBase@@8
rdata$r	ENDS
;	COMDAT ??_R3TiXmlComment@@8
rdata$r	SEGMENT
??_R3TiXmlComment@@8 DD 00H				; TiXmlComment::`RTTI Class Hierarchy Descriptor'
	DD	00H
	DD	03H
	DD	FLAT:??_R2TiXmlComment@@8
rdata$r	ENDS
;	COMDAT ??_R0?AVTiXmlComment@@@8
data$rs	SEGMENT
??_R0?AVTiXmlComment@@@8 DD FLAT:??_7type_info@@6B@	; TiXmlComment `RTTI Type Descriptor'
	DD	00H
	DB	'.?AVTiXmlComment@@', 00H
data$rs	ENDS
;	COMDAT ??_R4TiXmlComment@@6B@
rdata$r	SEGMENT
??_R4TiXmlComment@@6B@ DD 00H				; TiXmlComment::`RTTI Complete Object Locator'
	DD	00H
	DD	00H
	DD	FLAT:??_R0?AVTiXmlComment@@@8
	DD	FLAT:??_R3TiXmlComment@@8
rdata$r	ENDS
;	COMDAT ??_R2TiXmlBase@@8
rdata$r	SEGMENT
??_R2TiXmlBase@@8 DD FLAT:??_R1A@?0A@EA@TiXmlBase@@8	; TiXmlBase::`RTTI Base Class Array'
rdata$r	ENDS
;	COMDAT ??_R3TiXmlBase@@8
rdata$r	SEGMENT
??_R3TiXmlBase@@8 DD 00H				; TiXmlBase::`RTTI Class Hierarchy Descriptor'
	DD	00H
	DD	01H
	DD	FLAT:??_R2TiXmlBase@@8
rdata$r	ENDS
;	COMDAT ??_R0?AVTiXmlBase@@@8
data$rs	SEGMENT
??_R0?AVTiXmlBase@@@8 DD FLAT:??_7type_info@@6B@	; TiXmlBase `RTTI Type Descriptor'
	DD	00H
	DB	'.?AVTiXmlBase@@', 00H
data$rs	ENDS
;	COMDAT ??_R1A@?0A@EA@TiXmlBase@@8
rdata$r	SEGMENT
??_R1A@?0A@EA@TiXmlBase@@8 DD FLAT:??_R0?AVTiXmlBase@@@8 ; TiXmlBase::`RTTI Base Class Descriptor at (0,-1,0,64)'
	DD	00H
	DD	00H
	DD	0ffffffffH
	DD	00H
	DD	040H
	DD	FLAT:??_R3TiXmlBase@@8
rdata$r	ENDS
;	COMDAT ??_R2TiXmlNode@@8
rdata$r	SEGMENT
??_R2TiXmlNode@@8 DD FLAT:??_R1A@?0A@EA@TiXmlNode@@8	; TiXmlNode::`RTTI Base Class Array'
	DD	FLAT:??_R1A@?0A@EA@TiXmlBase@@8
rdata$r	ENDS
;	COMDAT ??_R3TiXmlNode@@8
rdata$r	SEGMENT
??_R3TiXmlNode@@8 DD 00H				; TiXmlNode::`RTTI Class Hierarchy Descriptor'
	DD	00H
	DD	02H
	DD	FLAT:??_R2TiXmlNode@@8
rdata$r	ENDS
;	COMDAT ??_R0?AVTiXmlNode@@@8
data$rs	SEGMENT
??_R0?AVTiXmlNode@@@8 DD FLAT:??_7type_info@@6B@	; TiXmlNode `RTTI Type Descriptor'
	DD	00H
	DB	'.?AVTiXmlNode@@', 00H
data$rs	ENDS
;	COMDAT ??_R1A@?0A@EA@TiXmlNode@@8
rdata$r	SEGMENT
??_R1A@?0A@EA@TiXmlNode@@8 DD FLAT:??_R0?AVTiXmlNode@@@8 ; TiXmlNode::`RTTI Base Class Descriptor at (0,-1,0,64)'
	DD	01H
	DD	00H
	DD	0ffffffffH
	DD	00H
	DD	040H
	DD	FLAT:??_R3TiXmlNode@@8
rdata$r	ENDS
;	COMDAT ??_R1A@?0A@EA@TiXmlDocument@@8
rdata$r	SEGMENT
??_R1A@?0A@EA@TiXmlDocument@@8 DD FLAT:??_R0?AVTiXmlDocument@@@8 ; TiXmlDocument::`RTTI Base Class Descriptor at (0,-1,0,64)'
	DD	02H
	DD	00H
	DD	0ffffffffH
	DD	00H
	DD	040H
	DD	FLAT:??_R3TiXmlDocument@@8
rdata$r	ENDS
;	COMDAT ??_R2TiXmlDocument@@8
rdata$r	SEGMENT
??_R2TiXmlDocument@@8 DD FLAT:??_R1A@?0A@EA@TiXmlDocument@@8 ; TiXmlDocument::`RTTI Base Class Array'
	DD	FLAT:??_R1A@?0A@EA@TiXmlNode@@8
	DD	FLAT:??_R1A@?0A@EA@TiXmlBase@@8
rdata$r	ENDS
;	COMDAT ??_R3TiXmlDocument@@8
rdata$r	SEGMENT
??_R3TiXmlDocument@@8 DD 00H				; TiXmlDocument::`RTTI Class Hierarchy Descriptor'
	DD	00H
	DD	03H
	DD	FLAT:??_R2TiXmlDocument@@8
rdata$r	ENDS
;	COMDAT ??_R0?AVTiXmlDocument@@@8
data$rs	SEGMENT
??_R0?AVTiXmlDocument@@@8 DD FLAT:??_7type_info@@6B@	; TiXmlDocument `RTTI Type Descriptor'
	DD	00H
	DB	'.?AVTiXmlDocument@@', 00H
data$rs	ENDS
;	COMDAT ??_R4TiXmlDocument@@6B@
rdata$r	SEGMENT
??_R4TiXmlDocument@@6B@ DD 00H				; TiXmlDocument::`RTTI Complete Object Locator'
	DD	00H
	DD	00H
	DD	FLAT:??_R0?AVTiXmlDocument@@@8
	DD	FLAT:??_R3TiXmlDocument@@8
rdata$r	ENDS
;	COMDAT ??_R1A@?0A@EA@i3FileStream@@8
rdata$r	SEGMENT
??_R1A@?0A@EA@i3FileStream@@8 DD FLAT:??_R0?AVi3FileStream@@@8 ; i3FileStream::`RTTI Base Class Descriptor at (0,-1,0,64)'
	DD	02H
	DD	00H
	DD	0ffffffffH
	DD	00H
	DD	040H
	DD	FLAT:??_R3i3FileStream@@8
rdata$r	ENDS
;	COMDAT ??_R2i3FileStream@@8
rdata$r	SEGMENT
??_R2i3FileStream@@8 DD FLAT:??_R1A@?0A@EA@i3FileStream@@8 ; i3FileStream::`RTTI Base Class Array'
	DD	FLAT:??_R1A@?0A@EA@i3Stream@@8
	DD	FLAT:??_R1A@?0A@EA@i3ElementBase@@8
rdata$r	ENDS
;	COMDAT ??_R3i3FileStream@@8
rdata$r	SEGMENT
??_R3i3FileStream@@8 DD 00H				; i3FileStream::`RTTI Class Hierarchy Descriptor'
	DD	00H
	DD	03H
	DD	FLAT:??_R2i3FileStream@@8
rdata$r	ENDS
;	COMDAT ??_R0?AVi3FileStream@@@8
data$rs	SEGMENT
??_R0?AVi3FileStream@@@8 DD FLAT:??_7type_info@@6B@	; i3FileStream `RTTI Type Descriptor'
	DD	00H
	DB	'.?AVi3FileStream@@', 00H
data$rs	ENDS
;	COMDAT ??_R4i3FileStream@@6B@
rdata$r	SEGMENT
??_R4i3FileStream@@6B@ DD 00H				; i3FileStream::`RTTI Complete Object Locator'
	DD	00H
	DD	00H
	DD	FLAT:??_R0?AVi3FileStream@@@8
	DD	FLAT:??_R3i3FileStream@@8
rdata$r	ENDS
;	COMDAT ??_R1A@?0A@EA@i3Stream@@8
rdata$r	SEGMENT
??_R1A@?0A@EA@i3Stream@@8 DD FLAT:??_R0?AVi3Stream@@@8	; i3Stream::`RTTI Base Class Descriptor at (0,-1,0,64)'
	DD	01H
	DD	00H
	DD	0ffffffffH
	DD	00H
	DD	040H
	DD	FLAT:??_R3i3Stream@@8
rdata$r	ENDS
;	COMDAT ??_R2i3Stream@@8
rdata$r	SEGMENT
??_R2i3Stream@@8 DD FLAT:??_R1A@?0A@EA@i3Stream@@8	; i3Stream::`RTTI Base Class Array'
	DD	FLAT:??_R1A@?0A@EA@i3ElementBase@@8
rdata$r	ENDS
;	COMDAT ??_R3i3Stream@@8
rdata$r	SEGMENT
??_R3i3Stream@@8 DD 00H					; i3Stream::`RTTI Class Hierarchy Descriptor'
	DD	00H
	DD	02H
	DD	FLAT:??_R2i3Stream@@8
rdata$r	ENDS
;	COMDAT ??_R0?AVi3Stream@@@8
data$rs	SEGMENT
??_R0?AVi3Stream@@@8 DD FLAT:??_7type_info@@6B@		; i3Stream `RTTI Type Descriptor'
	DD	00H
	DB	'.?AVi3Stream@@', 00H
data$rs	ENDS
;	COMDAT ??_R4i3Stream@@6B@
rdata$r	SEGMENT
??_R4i3Stream@@6B@ DD 00H				; i3Stream::`RTTI Complete Object Locator'
	DD	00H
	DD	00H
	DD	FLAT:??_R0?AVi3Stream@@@8
	DD	FLAT:??_R3i3Stream@@8
rdata$r	ENDS
;	COMDAT ??_R1A@?0A@EA@i3ClassMeta@@8
rdata$r	SEGMENT
??_R1A@?0A@EA@i3ClassMeta@@8 DD FLAT:??_R0?AVi3ClassMeta@@@8 ; i3ClassMeta::`RTTI Base Class Descriptor at (0,-1,0,64)'
	DD	00H
	DD	00H
	DD	0ffffffffH
	DD	00H
	DD	040H
	DD	FLAT:??_R3i3ClassMeta@@8
rdata$r	ENDS
;	COMDAT ??_R2i3ClassMeta@@8
rdata$r	SEGMENT
??_R2i3ClassMeta@@8 DD FLAT:??_R1A@?0A@EA@i3ClassMeta@@8 ; i3ClassMeta::`RTTI Base Class Array'
rdata$r	ENDS
;	COMDAT ??_R3i3ClassMeta@@8
rdata$r	SEGMENT
??_R3i3ClassMeta@@8 DD 00H				; i3ClassMeta::`RTTI Class Hierarchy Descriptor'
	DD	00H
	DD	01H
	DD	FLAT:??_R2i3ClassMeta@@8
rdata$r	ENDS
;	COMDAT ??_R0?AVi3ClassMeta@@@8
data$rs	SEGMENT
??_R0?AVi3ClassMeta@@@8 DD FLAT:??_7type_info@@6B@	; i3ClassMeta `RTTI Type Descriptor'
	DD	00H
	DB	'.?AVi3ClassMeta@@', 00H
data$rs	ENDS
;	COMDAT ??_R4i3ClassMeta@@6B@
rdata$r	SEGMENT
??_R4i3ClassMeta@@6B@ DD 00H				; i3ClassMeta::`RTTI Complete Object Locator'
	DD	00H
	DD	00H
	DD	FLAT:??_R0?AVi3ClassMeta@@@8
	DD	FLAT:??_R3i3ClassMeta@@8
rdata$r	ENDS
;	COMDAT ??_R1A@?0A@EA@i3MemoryPool@@8
rdata$r	SEGMENT
??_R1A@?0A@EA@i3MemoryPool@@8 DD FLAT:??_R0?AVi3MemoryPool@@@8 ; i3MemoryPool::`RTTI Base Class Descriptor at (0,-1,0,64)'
	DD	00H
	DD	00H
	DD	0ffffffffH
	DD	00H
	DD	040H
	DD	FLAT:??_R3i3MemoryPool@@8
rdata$r	ENDS
;	COMDAT ??_R2i3MemoryPool@@8
rdata$r	SEGMENT
??_R2i3MemoryPool@@8 DD FLAT:??_R1A@?0A@EA@i3MemoryPool@@8 ; i3MemoryPool::`RTTI Base Class Array'
rdata$r	ENDS
;	COMDAT ??_R3i3MemoryPool@@8
rdata$r	SEGMENT
??_R3i3MemoryPool@@8 DD 00H				; i3MemoryPool::`RTTI Class Hierarchy Descriptor'
	DD	00H
	DD	01H
	DD	FLAT:??_R2i3MemoryPool@@8
rdata$r	ENDS
;	COMDAT ??_R0?AVi3MemoryPool@@@8
data$rs	SEGMENT
??_R0?AVi3MemoryPool@@@8 DD FLAT:??_7type_info@@6B@	; i3MemoryPool `RTTI Type Descriptor'
	DD	00H
	DB	'.?AVi3MemoryPool@@', 00H
data$rs	ENDS
;	COMDAT ??_R4i3MemoryPool@@6B@
rdata$r	SEGMENT
??_R4i3MemoryPool@@6B@ DD 00H				; i3MemoryPool::`RTTI Complete Object Locator'
	DD	00H
	DD	00H
	DD	FLAT:??_R0?AVi3MemoryPool@@@8
	DD	FLAT:??_R3i3MemoryPool@@8
rdata$r	ENDS
;	COMDAT ??_R1A@?0A@EA@i3ElementBase@@8
rdata$r	SEGMENT
??_R1A@?0A@EA@i3ElementBase@@8 DD FLAT:??_R0?AVi3ElementBase@@@8 ; i3ElementBase::`RTTI Base Class Descriptor at (0,-1,0,64)'
	DD	00H
	DD	00H
	DD	0ffffffffH
	DD	00H
	DD	040H
	DD	FLAT:??_R3i3ElementBase@@8
rdata$r	ENDS
;	COMDAT ??_R2i3ElementBase@@8
rdata$r	SEGMENT
??_R2i3ElementBase@@8 DD FLAT:??_R1A@?0A@EA@i3ElementBase@@8 ; i3ElementBase::`RTTI Base Class Array'
rdata$r	ENDS
;	COMDAT ??_R3i3ElementBase@@8
rdata$r	SEGMENT
??_R3i3ElementBase@@8 DD 00H				; i3ElementBase::`RTTI Class Hierarchy Descriptor'
	DD	00H
	DD	01H
	DD	FLAT:??_R2i3ElementBase@@8
rdata$r	ENDS
;	COMDAT ??_R0?AVi3ElementBase@@@8
data$rs	SEGMENT
??_R0?AVi3ElementBase@@@8 DD FLAT:??_7type_info@@6B@	; i3ElementBase `RTTI Type Descriptor'
	DD	00H
	DB	'.?AVi3ElementBase@@', 00H
data$rs	ENDS
;	COMDAT ??_R4i3ElementBase@@6B@
rdata$r	SEGMENT
??_R4i3ElementBase@@6B@ DD 00H				; i3ElementBase::`RTTI Complete Object Locator'
	DD	00H
	DD	00H
	DD	FLAT:??_R0?AVi3ElementBase@@@8
	DD	FLAT:??_R3i3ElementBase@@8
rdata$r	ENDS
;	COMDAT ??_C@_0L@FLHGMILF@standalone@
CONST	SEGMENT
??_C@_0L@FLHGMILF@standalone@ DB 'standalone', 00H	; `string'
CONST	ENDS
;	COMDAT ??_C@_08MLPGAEIK@encoding@
CONST	SEGMENT
??_C@_08MLPGAEIK@encoding@ DB 'encoding', 00H		; `string'
CONST	ENDS
;	COMDAT ??_C@_07CPCPJPKL@version@
CONST	SEGMENT
??_C@_07CPCPJPKL@version@ DB 'version', 00H		; `string'
CONST	ENDS
;	COMDAT ??_C@_01MNNFJEPP@?$DM@
CONST	SEGMENT
??_C@_01MNNFJEPP@?$DM@ DB '<', 00H			; `string'
CONST	ENDS
;	COMDAT ??_C@_03MCHNFBAC@?$FN?$FN?$DO@
CONST	SEGMENT
??_C@_03MCHNFBAC@?$FN?$FN?$DO@ DB ']]>', 00H		; `string'
CONST	ENDS
;	COMDAT ??_C@_01BJJEKLCA@?$CC@
CONST	SEGMENT
??_C@_01BJJEKLCA@?$CC@ DB '"', 00H			; `string'
CONST	ENDS
;	COMDAT ??_C@_01GEODFPGF@?8@
CONST	SEGMENT
??_C@_01GEODFPGF@?8@ DB '''', 00H			; `string'
CONST	ENDS
;	COMDAT ??_C@_03PNLDJJMO@?9?9?$DO@
CONST	SEGMENT
??_C@_03PNLDJJMO@?9?9?$DO@ DB '-->', 00H		; `string'
CONST	ENDS
;	COMDAT ??_C@_01PPODPGHN@?$DO@
CONST	SEGMENT
??_C@_01PPODPGHN@?$DO@ DB '>', 00H			; `string'
CONST	ENDS
;	COMDAT ??_C@_02DPNDACHE@?$DM?1@
CONST	SEGMENT
??_C@_02DPNDACHE@?$DM?1@ DB '</', 00H			; `string'
CONST	ENDS
;	COMDAT ??_C@_09BLLNCBLF@?$DM?$CB?$FLCDATA?$FL@
CONST	SEGMENT
??_C@_09BLLNCBLF@?$DM?$CB?$FLCDATA?$FL@ DB '<![CDATA[', 00H ; `string'
CONST	ENDS
;	COMDAT ??_C@_02KBFACPPK@?$DM?$CB@
CONST	SEGMENT
??_C@_02KBFACPPK@?$DM?$CB@ DB '<!', 00H			; `string'
CONST	ENDS
;	COMDAT ??_C@_04FFDNBKGC@?$DM?$CB?9?9@
CONST	SEGMENT
??_C@_04FFDNBKGC@?$DM?$CB?9?9@ DB '<!--', 00H		; `string'
CONST	ENDS
;	COMDAT ??_C@_05DJDIECHG@?$DM?$DPxml@
CONST	SEGMENT
??_C@_05DJDIECHG@?$DM?$DPxml@ DB '<?xml', 00H		; `string'
CONST	ENDS
;	COMDAT ??_C@_04OOMJJNCF@UTF8@
CONST	SEGMENT
??_C@_04OOMJJNCF@UTF8@ DB 'UTF8', 00H			; `string'
CONST	ENDS
;	COMDAT ??_C@_05EGJIMALK@UTF?98@
CONST	SEGMENT
??_C@_05EGJIMALK@UTF?98@ DB 'UTF-8', 00H		; `string'
CONST	ENDS
;	COMDAT ??_C@_01EEMJAFIK@?6@
CONST	SEGMENT
??_C@_01EEMJAFIK@?6@ DB 0aH, 00H			; `string'
CONST	ENDS
;	COMDAT ??_C@_04PFOHOKJK@?5?5?5?5@
CONST	SEGMENT
??_C@_04PFOHOKJK@?5?5?5?5@ DB '    ', 00H		; `string'
CONST	ENDS
;	COMDAT ??_7TiXmlPrinter@@6B@
CONST	SEGMENT
??_7TiXmlPrinter@@6B@ DD FLAT:??_R4TiXmlPrinter@@6B@	; TiXmlPrinter::`vftable'
	DD	FLAT:??_ETiXmlPrinter@@UAEPAXI@Z
	DD	FLAT:?VisitEnter@TiXmlPrinter@@UAE_NABVTiXmlElement@@PBVTiXmlAttribute@@@Z
	DD	FLAT:?VisitEnter@TiXmlPrinter@@UAE_NABVTiXmlDocument@@@Z
	DD	FLAT:?VisitExit@TiXmlPrinter@@UAE_NABVTiXmlElement@@@Z
	DD	FLAT:?VisitExit@TiXmlPrinter@@UAE_NABVTiXmlDocument@@@Z
	DD	FLAT:?Visit@TiXmlPrinter@@UAE_NABVTiXmlUnknown@@@Z
	DD	FLAT:?Visit@TiXmlPrinter@@UAE_NABVTiXmlComment@@@Z
	DD	FLAT:?Visit@TiXmlPrinter@@UAE_NABVTiXmlText@@@Z
	DD	FLAT:?Visit@TiXmlPrinter@@UAE_NABVTiXmlDeclaration@@@Z
CONST	ENDS
;	COMDAT ??_C@_00CNPNBAHC@@
CONST	SEGMENT
??_C@_00CNPNBAHC@@ DB 00H				; `string'
CONST	ENDS
;	COMDAT ??_7TiXmlDocument@@6B@
CONST	SEGMENT
??_7TiXmlDocument@@6B@ DD FLAT:??_R4TiXmlDocument@@6B@	; TiXmlDocument::`vftable'
	DD	FLAT:??_ETiXmlDocument@@UAEPAXI@Z
	DD	FLAT:?Print@TiXmlDocument@@UBEXPAVi3FileStream@@H@Z
	DD	FLAT:?Parse@TiXmlDocument@@UAEPBDPBDPAVTiXmlParsingData@@W4TiXmlEncoding@@@Z
	DD	FLAT:?ToDocument@TiXmlDocument@@UAEPAV1@XZ
	DD	FLAT:?ToDocument@TiXmlDocument@@UBEPBV1@XZ
	DD	FLAT:?ToElement@TiXmlNode@@UAEPAVTiXmlElement@@XZ
	DD	FLAT:?ToElement@TiXmlNode@@UBEPBVTiXmlElement@@XZ
	DD	FLAT:?ToComment@TiXmlNode@@UAEPAVTiXmlComment@@XZ
	DD	FLAT:?ToComment@TiXmlNode@@UBEPBVTiXmlComment@@XZ
	DD	FLAT:?ToUnknown@TiXmlNode@@UAEPAVTiXmlUnknown@@XZ
	DD	FLAT:?ToUnknown@TiXmlNode@@UBEPBVTiXmlUnknown@@XZ
	DD	FLAT:?ToText@TiXmlNode@@UAEPAVTiXmlText@@XZ
	DD	FLAT:?ToText@TiXmlNode@@UBEPBVTiXmlText@@XZ
	DD	FLAT:?ToDeclaration@TiXmlNode@@UAEPAVTiXmlDeclaration@@XZ
	DD	FLAT:?ToDeclaration@TiXmlNode@@UBEPBVTiXmlDeclaration@@XZ
	DD	FLAT:?Clone@TiXmlDocument@@MBEPAVTiXmlNode@@XZ
	DD	FLAT:?Accept@TiXmlDocument@@UBE_NPAVTiXmlVisitor@@@Z
CONST	ENDS
;	COMDAT ??_7TiXmlUnknown@@6B@
CONST	SEGMENT
??_7TiXmlUnknown@@6B@ DD FLAT:??_R4TiXmlUnknown@@6B@	; TiXmlUnknown::`vftable'
	DD	FLAT:??_ETiXmlUnknown@@UAEPAXI@Z
	DD	FLAT:?Print@TiXmlUnknown@@UBEXPAVi3FileStream@@H@Z
	DD	FLAT:?Parse@TiXmlUnknown@@UAEPBDPBDPAVTiXmlParsingData@@W4TiXmlEncoding@@@Z
	DD	FLAT:?ToDocument@TiXmlNode@@UAEPAVTiXmlDocument@@XZ
	DD	FLAT:?ToDocument@TiXmlNode@@UBEPBVTiXmlDocument@@XZ
	DD	FLAT:?ToElement@TiXmlNode@@UAEPAVTiXmlElement@@XZ
	DD	FLAT:?ToElement@TiXmlNode@@UBEPBVTiXmlElement@@XZ
	DD	FLAT:?ToComment@TiXmlNode@@UAEPAVTiXmlComment@@XZ
	DD	FLAT:?ToComment@TiXmlNode@@UBEPBVTiXmlComment@@XZ
	DD	FLAT:?ToUnknown@TiXmlUnknown@@UAEPAV1@XZ
	DD	FLAT:?ToUnknown@TiXmlUnknown@@UBEPBV1@XZ
	DD	FLAT:?ToText@TiXmlNode@@UAEPAVTiXmlText@@XZ
	DD	FLAT:?ToText@TiXmlNode@@UBEPBVTiXmlText@@XZ
	DD	FLAT:?ToDeclaration@TiXmlNode@@UAEPAVTiXmlDeclaration@@XZ
	DD	FLAT:?ToDeclaration@TiXmlNode@@UBEPBVTiXmlDeclaration@@XZ
	DD	FLAT:?Clone@TiXmlUnknown@@UBEPAVTiXmlNode@@XZ
	DD	FLAT:?Accept@TiXmlUnknown@@UBE_NPAVTiXmlVisitor@@@Z
CONST	ENDS
;	COMDAT ??_7TiXmlDeclaration@@6B@
CONST	SEGMENT
??_7TiXmlDeclaration@@6B@ DD FLAT:??_R4TiXmlDeclaration@@6B@ ; TiXmlDeclaration::`vftable'
	DD	FLAT:??_ETiXmlDeclaration@@UAEPAXI@Z
	DD	FLAT:?Print@TiXmlDeclaration@@UBEXPAVi3FileStream@@H@Z
	DD	FLAT:?Parse@TiXmlDeclaration@@UAEPBDPBDPAVTiXmlParsingData@@W4TiXmlEncoding@@@Z
	DD	FLAT:?ToDocument@TiXmlNode@@UAEPAVTiXmlDocument@@XZ
	DD	FLAT:?ToDocument@TiXmlNode@@UBEPBVTiXmlDocument@@XZ
	DD	FLAT:?ToElement@TiXmlNode@@UAEPAVTiXmlElement@@XZ
	DD	FLAT:?ToElement@TiXmlNode@@UBEPBVTiXmlElement@@XZ
	DD	FLAT:?ToComment@TiXmlNode@@UAEPAVTiXmlComment@@XZ
	DD	FLAT:?ToComment@TiXmlNode@@UBEPBVTiXmlComment@@XZ
	DD	FLAT:?ToUnknown@TiXmlNode@@UAEPAVTiXmlUnknown@@XZ
	DD	FLAT:?ToUnknown@TiXmlNode@@UBEPBVTiXmlUnknown@@XZ
	DD	FLAT:?ToText@TiXmlNode@@UAEPAVTiXmlText@@XZ
	DD	FLAT:?ToText@TiXmlNode@@UBEPBVTiXmlText@@XZ
	DD	FLAT:?ToDeclaration@TiXmlDeclaration@@UAEPAV1@XZ
	DD	FLAT:?ToDeclaration@TiXmlDeclaration@@UBEPBV1@XZ
	DD	FLAT:?Clone@TiXmlDeclaration@@UBEPAVTiXmlNode@@XZ
	DD	FLAT:?Accept@TiXmlDeclaration@@UBE_NPAVTiXmlVisitor@@@Z
	DD	FLAT:?Print@TiXmlDeclaration@@UBEXPAVi3FileStream@@HPAVTiXmlString@@@Z
CONST	ENDS
;	COMDAT ??_7TiXmlText@@6B@
CONST	SEGMENT
??_7TiXmlText@@6B@ DD FLAT:??_R4TiXmlText@@6B@		; TiXmlText::`vftable'
	DD	FLAT:??_ETiXmlText@@UAEPAXI@Z
	DD	FLAT:?Print@TiXmlText@@UBEXPAVi3FileStream@@H@Z
	DD	FLAT:?Parse@TiXmlText@@UAEPBDPBDPAVTiXmlParsingData@@W4TiXmlEncoding@@@Z
	DD	FLAT:?ToDocument@TiXmlNode@@UAEPAVTiXmlDocument@@XZ
	DD	FLAT:?ToDocument@TiXmlNode@@UBEPBVTiXmlDocument@@XZ
	DD	FLAT:?ToElement@TiXmlNode@@UAEPAVTiXmlElement@@XZ
	DD	FLAT:?ToElement@TiXmlNode@@UBEPBVTiXmlElement@@XZ
	DD	FLAT:?ToComment@TiXmlNode@@UAEPAVTiXmlComment@@XZ
	DD	FLAT:?ToComment@TiXmlNode@@UBEPBVTiXmlComment@@XZ
	DD	FLAT:?ToUnknown@TiXmlNode@@UAEPAVTiXmlUnknown@@XZ
	DD	FLAT:?ToUnknown@TiXmlNode@@UBEPBVTiXmlUnknown@@XZ
	DD	FLAT:?ToText@TiXmlText@@UAEPAV1@XZ
	DD	FLAT:?ToText@TiXmlText@@UBEPBV1@XZ
	DD	FLAT:?ToDeclaration@TiXmlNode@@UAEPAVTiXmlDeclaration@@XZ
	DD	FLAT:?ToDeclaration@TiXmlNode@@UBEPBVTiXmlDeclaration@@XZ
	DD	FLAT:?Clone@TiXmlText@@MBEPAVTiXmlNode@@XZ
	DD	FLAT:?Accept@TiXmlText@@UBE_NPAVTiXmlVisitor@@@Z
CONST	ENDS
;	COMDAT ??_7TiXmlComment@@6B@
CONST	SEGMENT
??_7TiXmlComment@@6B@ DD FLAT:??_R4TiXmlComment@@6B@	; TiXmlComment::`vftable'
	DD	FLAT:??_ETiXmlComment@@UAEPAXI@Z
	DD	FLAT:?Print@TiXmlComment@@UBEXPAVi3FileStream@@H@Z
	DD	FLAT:?Parse@TiXmlComment@@UAEPBDPBDPAVTiXmlParsingData@@W4TiXmlEncoding@@@Z
	DD	FLAT:?ToDocument@TiXmlNode@@UAEPAVTiXmlDocument@@XZ
	DD	FLAT:?ToDocument@TiXmlNode@@UBEPBVTiXmlDocument@@XZ
	DD	FLAT:?ToElement@TiXmlNode@@UAEPAVTiXmlElement@@XZ
	DD	FLAT:?ToElement@TiXmlNode@@UBEPBVTiXmlElement@@XZ
	DD	FLAT:?ToComment@TiXmlComment@@UAEPAV1@XZ
	DD	FLAT:?ToComment@TiXmlComment@@UBEPBV1@XZ
	DD	FLAT:?ToUnknown@TiXmlNode@@UAEPAVTiXmlUnknown@@XZ
	DD	FLAT:?ToUnknown@TiXmlNode@@UBEPBVTiXmlUnknown@@XZ
	DD	FLAT:?ToText@TiXmlNode@@UAEPAVTiXmlText@@XZ
	DD	FLAT:?ToText@TiXmlNode@@UBEPBVTiXmlText@@XZ
	DD	FLAT:?ToDeclaration@TiXmlNode@@UAEPAVTiXmlDeclaration@@XZ
	DD	FLAT:?ToDeclaration@TiXmlNode@@UBEPBVTiXmlDeclaration@@XZ
	DD	FLAT:?Clone@TiXmlComment@@UBEPAVTiXmlNode@@XZ
	DD	FLAT:?Accept@TiXmlComment@@UBE_NPAVTiXmlVisitor@@@Z
CONST	ENDS
;	COMDAT ??_7TiXmlAttribute@@6B@
CONST	SEGMENT
??_7TiXmlAttribute@@6B@ DD FLAT:??_R4TiXmlAttribute@@6B@ ; TiXmlAttribute::`vftable'
	DD	FLAT:??_ETiXmlAttribute@@UAEPAXI@Z
	DD	FLAT:?Print@TiXmlAttribute@@UBEXPAVi3FileStream@@H@Z
	DD	FLAT:?Parse@TiXmlAttribute@@UAEPBDPBDPAVTiXmlParsingData@@W4TiXmlEncoding@@@Z
CONST	ENDS
;	COMDAT ??_7TiXmlBase@@6B@
CONST	SEGMENT
??_7TiXmlBase@@6B@ DD FLAT:??_R4TiXmlBase@@6B@		; TiXmlBase::`vftable'
	DD	FLAT:??_ETiXmlBase@@UAEPAXI@Z
	DD	FLAT:__purecall
	DD	FLAT:__purecall
CONST	ENDS
;	COMDAT ??_7TiXmlVisitor@@6B@
CONST	SEGMENT
??_7TiXmlVisitor@@6B@ DD FLAT:??_R4TiXmlVisitor@@6B@	; TiXmlVisitor::`vftable'
	DD	FLAT:??_ETiXmlVisitor@@UAEPAXI@Z
	DD	FLAT:?VisitEnter@TiXmlVisitor@@UAE_NABVTiXmlElement@@PBVTiXmlAttribute@@@Z
	DD	FLAT:?VisitEnter@TiXmlVisitor@@UAE_NABVTiXmlDocument@@@Z
	DD	FLAT:?VisitExit@TiXmlVisitor@@UAE_NABVTiXmlElement@@@Z
	DD	FLAT:?VisitExit@TiXmlVisitor@@UAE_NABVTiXmlDocument@@@Z
	DD	FLAT:?Visit@TiXmlVisitor@@UAE_NABVTiXmlUnknown@@@Z
	DD	FLAT:?Visit@TiXmlVisitor@@UAE_NABVTiXmlComment@@@Z
	DD	FLAT:?Visit@TiXmlVisitor@@UAE_NABVTiXmlText@@@Z
	DD	FLAT:?Visit@TiXmlVisitor@@UAE_NABVTiXmlDeclaration@@@Z
CONST	ENDS
;	COMDAT ??_7i3FileStream@@6B@
CONST	SEGMENT
??_7i3FileStream@@6B@ DD FLAT:??_R4i3FileStream@@6B@	; i3FileStream::`vftable'
	DD	FLAT:?GetMeta@i3FileStream@@UAEPAVi3ClassMeta@@XZ
	DD	FLAT:??_Ei3FileStream@@UAEPAXI@Z
	DD	FLAT:?CopyTo@i3ElementBase@@UAEXPAV1@W4I3_COPY_METHOD@@@Z
	DD	FLAT:?GetHandle@i3FileStream@@UAEPAXXZ
	DD	FLAT:?Create@i3FileStream@@UAEHPBDHI@Z
	DD	FLAT:?Open@i3FileStream@@UAEHPBDHI@Z
	DD	FLAT:?Close@i3FileStream@@UAEHXZ
	DD	FLAT:?Read@i3FileStream@@UAEIPAXH@Z
	DD	FLAT:?CopyTo@i3Stream@@UAEIPAV1@I@Z
	DD	FLAT:?Write@i3FileStream@@UAEIPBXH@Z
	DD	FLAT:?CopyFrom@i3Stream@@UAEIPAV1@I@Z
	DD	FLAT:?SetPosition@i3FileStream@@UAEIHH@Z
	DD	FLAT:?GetPosition@i3FileStream@@UAEIXZ
	DD	FLAT:?ReadLine@i3Stream@@UAEIPADH@Z
	DD	FLAT:?ReadLineW@i3Stream@@UAEIPAGH@Z
	DD	FLAT:?WriteLine@i3Stream@@UAEIPBD@Z
	DD	FLAT:?WriteLineW@i3Stream@@UAEIPBG@Z
	DD	FLAT:?Printf@i3Stream@@UAAIPADPBDZZ
CONST	ENDS
;	COMDAT ??_7i3Stream@@6B@
CONST	SEGMENT
??_7i3Stream@@6B@ DD FLAT:??_R4i3Stream@@6B@		; i3Stream::`vftable'
	DD	FLAT:?GetMeta@i3Stream@@UAEPAVi3ClassMeta@@XZ
	DD	FLAT:??_Ei3Stream@@UAEPAXI@Z
	DD	FLAT:?CopyTo@i3ElementBase@@UAEXPAV1@W4I3_COPY_METHOD@@@Z
	DD	FLAT:?GetHandle@i3Stream@@UAEPAXXZ
	DD	FLAT:__purecall
	DD	FLAT:__purecall
	DD	FLAT:__purecall
	DD	FLAT:__purecall
	DD	FLAT:?CopyTo@i3Stream@@UAEIPAV1@I@Z
	DD	FLAT:__purecall
	DD	FLAT:?CopyFrom@i3Stream@@UAEIPAV1@I@Z
	DD	FLAT:__purecall
	DD	FLAT:__purecall
	DD	FLAT:?ReadLine@i3Stream@@UAEIPADH@Z
	DD	FLAT:?ReadLineW@i3Stream@@UAEIPAGH@Z
	DD	FLAT:?WriteLine@i3Stream@@UAEIPBD@Z
	DD	FLAT:?WriteLineW@i3Stream@@UAEIPBG@Z
	DD	FLAT:?Printf@i3Stream@@UAAIPADPBDZZ
CONST	ENDS
;	COMDAT ??_7i3MemoryPool@@6B@
CONST	SEGMENT
??_7i3MemoryPool@@6B@ DD FLAT:??_R4i3MemoryPool@@6B@	; i3MemoryPool::`vftable'
	DD	FLAT:??_Ei3MemoryPool@@UAEPAXI@Z
	DD	FLAT:__purecall
	DD	FLAT:__purecall
CONST	ENDS
;	COMDAT ??_7i3ElementBase@@6B@
CONST	SEGMENT
??_7i3ElementBase@@6B@ DD FLAT:??_R4i3ElementBase@@6B@	; i3ElementBase::`vftable'
	DD	FLAT:?GetMeta@i3ElementBase@@UAEPAVi3ClassMeta@@XZ
	DD	FLAT:??_Ei3ElementBase@@UAEPAXI@Z
	DD	FLAT:?CopyTo@i3ElementBase@@UAEXPAV1@W4I3_COPY_METHOD@@@Z
CONST	ENDS
;	COMDAT ??_7i3ClassMeta@@6B@
CONST	SEGMENT
??_7i3ClassMeta@@6B@ DD FLAT:??_R4i3ClassMeta@@6B@	; i3ClassMeta::`vftable'
	DD	FLAT:??_Ei3ClassMeta@@UAEPAXI@Z
	DD	FLAT:?CreateInstance@i3ClassMeta@@UAEPAVi3ElementBase@@W4I3_CLASSMETA_TYPE@@@Z
	DD	FLAT:?BindInstance@i3ClassMeta@@UAEPAVi3ElementBase@@PAXW4I3_CLASSMETA_TYPE@@@Z
CONST	ENDS
;	COMDAT xdata$x
xdata$x	SEGMENT
__ehfuncinfo$??_ETiXmlPrinter@@UAEPAXI@Z DD 019930522H
	DD	00H
	DD	00H
	DD	2 DUP(00H)
	DD	2 DUP(00H)
	DD	00H
	DD	05H
xdata$x	ENDS
;	COMDAT xdata$x
xdata$x	SEGMENT
__unwindtable$??0TiXmlPrinter@@QAE@$$QAV0@@Z DD 0ffffffffH
	DD	FLAT:__unwindfunclet$??0TiXmlPrinter@@QAE@$$QAV0@@Z$0
	DD	00H
	DD	FLAT:__unwindfunclet$??0TiXmlPrinter@@QAE@$$QAV0@@Z$1
	DD	01H
	DD	FLAT:__unwindfunclet$??0TiXmlPrinter@@QAE@$$QAV0@@Z$2
__ehfuncinfo$??0TiXmlPrinter@@QAE@$$QAV0@@Z DD 019930522H
	DD	03H
	DD	FLAT:__unwindtable$??0TiXmlPrinter@@QAE@$$QAV0@@Z
	DD	2 DUP(00H)
	DD	2 DUP(00H)
	DD	00H
	DD	01H
xdata$x	ENDS
;	COMDAT xdata$x
xdata$x	SEGMENT
__unwindtable$??0TiXmlPrinter@@QAE@ABV0@@Z DD 0ffffffffH
	DD	FLAT:__unwindfunclet$??0TiXmlPrinter@@QAE@ABV0@@Z$0
	DD	00H
	DD	FLAT:__unwindfunclet$??0TiXmlPrinter@@QAE@ABV0@@Z$1
	DD	01H
	DD	FLAT:__unwindfunclet$??0TiXmlPrinter@@QAE@ABV0@@Z$2
__ehfuncinfo$??0TiXmlPrinter@@QAE@ABV0@@Z DD 019930522H
	DD	03H
	DD	FLAT:__unwindtable$??0TiXmlPrinter@@QAE@ABV0@@Z
	DD	2 DUP(00H)
	DD	2 DUP(00H)
	DD	00H
	DD	01H
xdata$x	ENDS
;	COMDAT xdata$x
xdata$x	SEGMENT
__unwindtable$??0TiXmlPrinter@@QAE@XZ DD 0ffffffffH
	DD	FLAT:__unwindfunclet$??0TiXmlPrinter@@QAE@XZ$0
	DD	00H
	DD	FLAT:__unwindfunclet$??0TiXmlPrinter@@QAE@XZ$1
	DD	01H
	DD	FLAT:__unwindfunclet$??0TiXmlPrinter@@QAE@XZ$2
__ehfuncinfo$??0TiXmlPrinter@@QAE@XZ DD 019930522H
	DD	03H
	DD	FLAT:__unwindtable$??0TiXmlPrinter@@QAE@XZ
	DD	2 DUP(00H)
	DD	2 DUP(00H)
	DD	00H
	DD	01H
xdata$x	ENDS
;	COMDAT xdata$x
xdata$x	SEGMENT
__ehfuncinfo$??_ETiXmlDocument@@UAEPAXI@Z DD 019930522H
	DD	00H
	DD	00H
	DD	2 DUP(00H)
	DD	2 DUP(00H)
	DD	00H
	DD	05H
xdata$x	ENDS
;	COMDAT xdata$x
xdata$x	SEGMENT
__ehfuncinfo$??_ETiXmlUnknown@@UAEPAXI@Z DD 019930522H
	DD	00H
	DD	00H
	DD	2 DUP(00H)
	DD	2 DUP(00H)
	DD	00H
	DD	05H
xdata$x	ENDS
;	COMDAT xdata$x
xdata$x	SEGMENT
__unwindtable$??0TiXmlUnknown@@QAE@ABV0@@Z DD 0ffffffffH
	DD	FLAT:__unwindfunclet$??0TiXmlUnknown@@QAE@ABV0@@Z$0
__ehfuncinfo$??0TiXmlUnknown@@QAE@ABV0@@Z DD 019930522H
	DD	01H
	DD	FLAT:__unwindtable$??0TiXmlUnknown@@QAE@ABV0@@Z
	DD	2 DUP(00H)
	DD	2 DUP(00H)
	DD	00H
	DD	01H
xdata$x	ENDS
;	COMDAT xdata$x
xdata$x	SEGMENT
__ehfuncinfo$??_ETiXmlDeclaration@@UAEPAXI@Z DD 019930522H
	DD	00H
	DD	00H
	DD	2 DUP(00H)
	DD	2 DUP(00H)
	DD	00H
	DD	05H
xdata$x	ENDS
;	COMDAT xdata$x
xdata$x	SEGMENT
__unwindtable$?Parse@TiXmlDeclaration@@UAEPBDPBDPAVTiXmlParsingData@@W4TiXmlEncoding@@@Z DD 0ffffffffH
	DD	FLAT:__unwindfunclet$?Parse@TiXmlDeclaration@@UAEPBDPBDPAVTiXmlParsingData@@W4TiXmlEncoding@@@Z$0
	DD	0ffffffffH
	DD	FLAT:__unwindfunclet$?Parse@TiXmlDeclaration@@UAEPBDPBDPAVTiXmlParsingData@@W4TiXmlEncoding@@@Z$1
	DD	0ffffffffH
	DD	FLAT:__unwindfunclet$?Parse@TiXmlDeclaration@@UAEPBDPBDPAVTiXmlParsingData@@W4TiXmlEncoding@@@Z$2
__ehfuncinfo$?Parse@TiXmlDeclaration@@UAEPBDPBDPAVTiXmlParsingData@@W4TiXmlEncoding@@@Z DD 019930522H
	DD	03H
	DD	FLAT:__unwindtable$?Parse@TiXmlDeclaration@@UAEPBDPBDPAVTiXmlParsingData@@W4TiXmlEncoding@@@Z
	DD	2 DUP(00H)
	DD	2 DUP(00H)
	DD	00H
	DD	01H
xdata$x	ENDS
;	COMDAT xdata$x
xdata$x	SEGMENT
__ehfuncinfo$??_ETiXmlText@@UAEPAXI@Z DD 019930522H
	DD	00H
	DD	00H
	DD	2 DUP(00H)
	DD	2 DUP(00H)
	DD	00H
	DD	05H
xdata$x	ENDS
;	COMDAT xdata$x
xdata$x	SEGMENT
__unwindtable$?Parse@TiXmlText@@UAEPBDPBDPAVTiXmlParsingData@@W4TiXmlEncoding@@@Z DD 0ffffffffH
	DD	FLAT:__unwindfunclet$?Parse@TiXmlText@@UAEPBDPBDPAVTiXmlParsingData@@W4TiXmlEncoding@@@Z$0
__ehfuncinfo$?Parse@TiXmlText@@UAEPBDPBDPAVTiXmlParsingData@@W4TiXmlEncoding@@@Z DD 019930522H
	DD	01H
	DD	FLAT:__unwindtable$?Parse@TiXmlText@@UAEPBDPBDPAVTiXmlParsingData@@W4TiXmlEncoding@@@Z
	DD	2 DUP(00H)
	DD	2 DUP(00H)
	DD	00H
	DD	01H
xdata$x	ENDS
;	COMDAT xdata$x
xdata$x	SEGMENT
__unwindtable$??0TiXmlText@@QAE@ABV0@@Z DD 0ffffffffH
	DD	FLAT:__unwindfunclet$??0TiXmlText@@QAE@ABV0@@Z$0
__ehfuncinfo$??0TiXmlText@@QAE@ABV0@@Z DD 019930522H
	DD	01H
	DD	FLAT:__unwindtable$??0TiXmlText@@QAE@ABV0@@Z
	DD	2 DUP(00H)
	DD	2 DUP(00H)
	DD	00H
	DD	01H
xdata$x	ENDS
;	COMDAT xdata$x
xdata$x	SEGMENT
__unwindtable$??0TiXmlText@@QAE@PBD@Z DD 0ffffffffH
	DD	FLAT:__unwindfunclet$??0TiXmlText@@QAE@PBD@Z$0
__ehfuncinfo$??0TiXmlText@@QAE@PBD@Z DD 019930522H
	DD	01H
	DD	FLAT:__unwindtable$??0TiXmlText@@QAE@PBD@Z
	DD	2 DUP(00H)
	DD	2 DUP(00H)
	DD	00H
	DD	01H
xdata$x	ENDS
;	COMDAT xdata$x
xdata$x	SEGMENT
__ehfuncinfo$??_ETiXmlComment@@UAEPAXI@Z DD 019930522H
	DD	00H
	DD	00H
	DD	2 DUP(00H)
	DD	2 DUP(00H)
	DD	00H
	DD	05H
xdata$x	ENDS
;	COMDAT xdata$x
xdata$x	SEGMENT
__unwindtable$??0TiXmlComment@@QAE@PBD@Z DD 0ffffffffH
	DD	FLAT:__unwindfunclet$??0TiXmlComment@@QAE@PBD@Z$0
__ehfuncinfo$??0TiXmlComment@@QAE@PBD@Z DD 019930522H
	DD	01H
	DD	FLAT:__unwindtable$??0TiXmlComment@@QAE@PBD@Z
	DD	2 DUP(00H)
	DD	2 DUP(00H)
	DD	00H
	DD	01H
xdata$x	ENDS
;	COMDAT xdata$x
xdata$x	SEGMENT
__unwindtable$?ReadValue@TiXmlElement@@IAEPBDPBDPAVTiXmlParsingData@@W4TiXmlEncoding@@@Z DD 0ffffffffH
	DD	FLAT:__unwindfunclet$?ReadValue@TiXmlElement@@IAEPBDPBDPAVTiXmlParsingData@@W4TiXmlEncoding@@@Z$0
	DD	00H
	DD	FLAT:__unwindfunclet$?ReadValue@TiXmlElement@@IAEPBDPBDPAVTiXmlParsingData@@W4TiXmlEncoding@@@Z$1
__ehfuncinfo$?ReadValue@TiXmlElement@@IAEPBDPBDPAVTiXmlParsingData@@W4TiXmlEncoding@@@Z DD 019930522H
	DD	02H
	DD	FLAT:__unwindtable$?ReadValue@TiXmlElement@@IAEPBDPBDPAVTiXmlParsingData@@W4TiXmlEncoding@@@Z
	DD	2 DUP(00H)
	DD	2 DUP(00H)
	DD	00H
	DD	01H
xdata$x	ENDS
;	COMDAT xdata$x
xdata$x	SEGMENT
__unwindtable$?Parse@TiXmlElement@@UAEPBDPBDPAVTiXmlParsingData@@W4TiXmlEncoding@@@Z DD 0ffffffffH
	DD	FLAT:__unwindfunclet$?Parse@TiXmlElement@@UAEPBDPBDPAVTiXmlParsingData@@W4TiXmlEncoding@@@Z$0
__ehfuncinfo$?Parse@TiXmlElement@@UAEPBDPBDPAVTiXmlParsingData@@W4TiXmlEncoding@@@Z DD 019930522H
	DD	01H
	DD	FLAT:__unwindtable$?Parse@TiXmlElement@@UAEPBDPBDPAVTiXmlParsingData@@W4TiXmlEncoding@@@Z
	DD	2 DUP(00H)
	DD	2 DUP(00H)
	DD	00H
	DD	01H
xdata$x	ENDS
;	COMDAT xdata$x
xdata$x	SEGMENT
__ehfuncinfo$??_ETiXmlAttribute@@UAEPAXI@Z DD 019930522H
	DD	00H
	DD	00H
	DD	2 DUP(00H)
	DD	2 DUP(00H)
	DD	00H
	DD	05H
xdata$x	ENDS
;	COMDAT xdata$x
xdata$x	SEGMENT
__unwindtable$??0TiXmlAttribute@@QAE@PBD0@Z DD 0ffffffffH
	DD	FLAT:__unwindfunclet$??0TiXmlAttribute@@QAE@PBD0@Z$0
	DD	00H
	DD	FLAT:__unwindfunclet$??0TiXmlAttribute@@QAE@PBD0@Z$1
	DD	01H
	DD	FLAT:__unwindfunclet$??0TiXmlAttribute@@QAE@PBD0@Z$2
__ehfuncinfo$??0TiXmlAttribute@@QAE@PBD0@Z DD 019930522H
	DD	03H
	DD	FLAT:__unwindtable$??0TiXmlAttribute@@QAE@PBD0@Z
	DD	2 DUP(00H)
	DD	2 DUP(00H)
	DD	00H
	DD	01H
xdata$x	ENDS
;	COMDAT xdata$x
xdata$x	SEGMENT
__ehfuncinfo$?Identify@TiXmlNode@@IAEPAV1@PBDW4TiXmlEncoding@@@Z DD 019930522H
	DD	07H
	DD	FLAT:__unwindtable$?Identify@TiXmlNode@@IAEPAV1@PBDW4TiXmlEncoding@@@Z
	DD	2 DUP(00H)
	DD	2 DUP(00H)
	DD	00H
	DD	01H
__unwindtable$?Identify@TiXmlNode@@IAEPAV1@PBDW4TiXmlEncoding@@@Z DD 0ffffffffH
	DD	FLAT:__unwindfunclet$?Identify@TiXmlNode@@IAEPAV1@PBDW4TiXmlEncoding@@@Z$0
	DD	0ffffffffH
	DD	FLAT:__unwindfunclet$?Identify@TiXmlNode@@IAEPAV1@PBDW4TiXmlEncoding@@@Z$1
	DD	0ffffffffH
	DD	FLAT:__unwindfunclet$?Identify@TiXmlNode@@IAEPAV1@PBDW4TiXmlEncoding@@@Z$2
	DD	02H
	DD	FLAT:__unwindfunclet$?Identify@TiXmlNode@@IAEPAV1@PBDW4TiXmlEncoding@@@Z$7
	DD	0ffffffffH
	DD	FLAT:__unwindfunclet$?Identify@TiXmlNode@@IAEPAV1@PBDW4TiXmlEncoding@@@Z$3
	DD	0ffffffffH
	DD	FLAT:__unwindfunclet$?Identify@TiXmlNode@@IAEPAV1@PBDW4TiXmlEncoding@@@Z$4
	DD	0ffffffffH
	DD	FLAT:__unwindfunclet$?Identify@TiXmlNode@@IAEPAV1@PBDW4TiXmlEncoding@@@Z$5
xdata$x	ENDS
;	COMDAT xdata$x
xdata$x	SEGMENT
__ehfuncinfo$??_ETiXmlBase@@UAEPAXI@Z DD 019930522H
	DD	00H
	DD	00H
	DD	2 DUP(00H)
	DD	2 DUP(00H)
	DD	00H
	DD	05H
xdata$x	ENDS
;	COMDAT xdata$x
xdata$x	SEGMENT
__ehfuncinfo$??_ETiXmlVisitor@@UAEPAXI@Z DD 019930522H
	DD	00H
	DD	00H
	DD	2 DUP(00H)
	DD	2 DUP(00H)
	DD	00H
	DD	05H
xdata$x	ENDS
;	COMDAT xdata$x
xdata$x	SEGMENT
__ehfuncinfo$??_Ei3FileStream@@UAEPAXI@Z DD 019930522H
	DD	00H
	DD	00H
	DD	2 DUP(00H)
	DD	2 DUP(00H)
	DD	00H
	DD	05H
xdata$x	ENDS
;	COMDAT xdata$x
xdata$x	SEGMENT
__ehfuncinfo$??_Ei3Stream@@UAEPAXI@Z DD 019930522H
	DD	00H
	DD	00H
	DD	2 DUP(00H)
	DD	2 DUP(00H)
	DD	00H
	DD	05H
xdata$x	ENDS
;	COMDAT xdata$x
xdata$x	SEGMENT
__ehfuncinfo$??_Ei3MemoryPool@@UAEPAXI@Z DD 019930522H
	DD	00H
	DD	00H
	DD	2 DUP(00H)
	DD	2 DUP(00H)
	DD	00H
	DD	05H
xdata$x	ENDS
;	COMDAT xdata$x
xdata$x	SEGMENT
__ehfuncinfo$??_Ei3ElementBase@@UAEPAXI@Z DD 019930522H
	DD	00H
	DD	00H
	DD	2 DUP(00H)
	DD	2 DUP(00H)
	DD	00H
	DD	05H
xdata$x	ENDS
;	COMDAT xdata$x
xdata$x	SEGMENT
__ehfuncinfo$??_Ei3ClassMeta@@UAEPAXI@Z DD 019930522H
	DD	00H
	DD	00H
	DD	2 DUP(00H)
	DD	2 DUP(00H)
	DD	00H
	DD	05H
xdata$x	ENDS
; Function compile flags: /Ogtp
;	COMDAT ??4TiXmlParsingData@@QAEAAV0@$$QAV0@@Z
_TEXT	SEGMENT
___that$ = 8						; size = 4
??4TiXmlParsingData@@QAEAAV0@$$QAV0@@Z PROC		; TiXmlParsingData::operator=, COMDAT
; _this$ = ecx
  00000	55		 push	 ebp
  00001	8b ec		 mov	 ebp, esp
  00003	56		 push	 esi
  00004	8b 75 08	 mov	 esi, DWORD PTR ___that$[ebp]
  00007	8b 06		 mov	 eax, DWORD PTR [esi]
  00009	8b 56 04	 mov	 edx, DWORD PTR [esi+4]
  0000c	89 01		 mov	 DWORD PTR [ecx], eax
  0000e	89 51 04	 mov	 DWORD PTR [ecx+4], edx
  00011	8b 46 08	 mov	 eax, DWORD PTR [esi+8]
  00014	89 41 08	 mov	 DWORD PTR [ecx+8], eax
  00017	8b 46 0c	 mov	 eax, DWORD PTR [esi+12]
  0001a	89 41 0c	 mov	 DWORD PTR [ecx+12], eax
  0001d	8b c1		 mov	 eax, ecx
  0001f	5e		 pop	 esi
  00020	5d		 pop	 ebp
  00021	c2 04 00	 ret	 4
??4TiXmlParsingData@@QAEAAV0@$$QAV0@@Z ENDP		; TiXmlParsingData::operator=
_TEXT	ENDS
; Function compile flags: /Ogtp
;	COMDAT ??4TiXmlParsingData@@QAEAAV0@ABV0@@Z
_TEXT	SEGMENT
___that$ = 8						; size = 4
??4TiXmlParsingData@@QAEAAV0@ABV0@@Z PROC		; TiXmlParsingData::operator=, COMDAT
; _this$ = ecx
  00000	55		 push	 ebp
  00001	8b ec		 mov	 ebp, esp
  00003	8b 55 08	 mov	 edx, DWORD PTR ___that$[ebp]
  00006	8b 02		 mov	 eax, DWORD PTR [edx]
  00008	89 01		 mov	 DWORD PTR [ecx], eax
  0000a	8b 42 04	 mov	 eax, DWORD PTR [edx+4]
  0000d	89 41 04	 mov	 DWORD PTR [ecx+4], eax
  00010	8b 42 08	 mov	 eax, DWORD PTR [edx+8]
  00013	89 41 08	 mov	 DWORD PTR [ecx+8], eax
  00016	8b 42 0c	 mov	 eax, DWORD PTR [edx+12]
  00019	89 41 0c	 mov	 DWORD PTR [ecx+12], eax
  0001c	8b c1		 mov	 eax, ecx
  0001e	5d		 pop	 ebp
  0001f	c2 04 00	 ret	 4
??4TiXmlParsingData@@QAEAAV0@ABV0@@Z ENDP		; TiXmlParsingData::operator=
_TEXT	ENDS
; Function compile flags: /Ogtp
; File E:\Proyectos\JuegosOnlineproyectos\PB\pbblow\Piercing Blow Remake\i3Server\src\i3Base\tinyxmlparser.cpp
;	COMDAT ??0TiXmlParsingData@@AAE@PBDHHH@Z
_TEXT	SEGMENT
_start$ = 8						; size = 4
__tabsize$ = 12						; size = 4
_row$ = 16						; size = 4
_col$ = 20						; size = 4
??0TiXmlParsingData@@AAE@PBDHHH@Z PROC			; TiXmlParsingData::TiXmlParsingData, COMDAT
; _this$ = ecx

; 185  : 	TiXmlParsingData( const char* start, int _tabsize, int row, int col )

  00000	55		 push	 ebp
  00001	8b ec		 mov	 ebp, esp

; 186  : 	{
; 187  : 		I3ASSERT( start );
; 188  : 		stamp = start;

  00003	8b 45 08	 mov	 eax, DWORD PTR _start$[ebp]
  00006	89 41 08	 mov	 DWORD PTR [ecx+8], eax

; 189  : 		tabsize = _tabsize;

  00009	8b 45 0c	 mov	 eax, DWORD PTR __tabsize$[ebp]
  0000c	89 41 0c	 mov	 DWORD PTR [ecx+12], eax

; 190  : 		cursor.row = row;

  0000f	8b 45 10	 mov	 eax, DWORD PTR _row$[ebp]
  00012	89 01		 mov	 DWORD PTR [ecx], eax

; 191  : 		cursor.col = col;

  00014	8b 45 14	 mov	 eax, DWORD PTR _col$[ebp]
  00017	89 41 04	 mov	 DWORD PTR [ecx+4], eax

; 192  : 	}

  0001a	8b c1		 mov	 eax, ecx
  0001c	5d		 pop	 ebp
  0001d	c2 10 00	 ret	 16			; 00000010H
??0TiXmlParsingData@@AAE@PBDHHH@Z ENDP			; TiXmlParsingData::TiXmlParsingData
_TEXT	ENDS
; Function compile flags: /Ogtp
; File E:\Proyectos\JuegosOnlineproyectos\PB\pbblow\Piercing Blow Remake\i3Server\src\i3Base\tinyxmlparser.cpp
;	COMDAT ?Cursor@TiXmlParsingData@@QAEABUTiXmlCursor@@XZ
_TEXT	SEGMENT
?Cursor@TiXmlParsingData@@QAEABUTiXmlCursor@@XZ PROC	; TiXmlParsingData::Cursor, COMDAT
; _this$ = ecx

; 181  : 	const TiXmlCursor& Cursor()	{ return cursor; }

  00000	8b c1		 mov	 eax, ecx
  00002	c3		 ret	 0
?Cursor@TiXmlParsingData@@QAEABUTiXmlCursor@@XZ ENDP	; TiXmlParsingData::Cursor
_TEXT	ENDS
; Function compile flags: /Ogtp
; File E:\Proyectos\JuegosOnlineproyectos\PB\pbblow\Piercing Blow Remake\i3Server\src\i3Base\tinyxmlparser.cpp
;	COMDAT ?Stamp@TiXmlParsingData@@QAEXPBDW4TiXmlEncoding@@@Z
_TEXT	SEGMENT
_now$ = 8						; size = 4
_encoding$ = 12						; size = 4
?Stamp@TiXmlParsingData@@QAEXPBDW4TiXmlEncoding@@@Z PROC ; TiXmlParsingData::Stamp, COMDAT
; _this$ = ecx

; 201  : {

  00000	55		 push	 ebp
  00001	8b ec		 mov	 ebp, esp
  00003	57		 push	 edi
  00004	8b f9		 mov	 edi, ecx

; 202  : 	I3ASSERT( now );
; 203  : 
; 204  : 	// Do nothing if the tabsize is 0.
; 205  : 	if ( tabsize < 1 )

  00006	83 7f 0c 01	 cmp	 DWORD PTR [edi+12], 1
  0000a	0f 8c 8d 00 00
	00		 jl	 $LN1@Stamp

; 206  : 	{
; 207  : 		return;
; 208  : 	}
; 209  : 
; 210  : 	// Get the current row, column.
; 211  : 	int row = cursor.row;
; 212  : 	int col = cursor.col;
; 213  : 	const char* p = stamp;

  00010	8b 4f 08	 mov	 ecx, DWORD PTR [edi+8]

; 214  : 	I3ASSERT( p );
; 215  : 
; 216  : 	while ( p < now )

  00013	8b 45 08	 mov	 eax, DWORD PTR _now$[ebp]
  00016	53		 push	 ebx
  00017	8b 1f		 mov	 ebx, DWORD PTR [edi]
  00019	56		 push	 esi
  0001a	8b 77 04	 mov	 esi, DWORD PTR [edi+4]
  0001d	3b c8		 cmp	 ecx, eax
  0001f	73 72		 jae	 SHORT $LN3@Stamp
$LL2@Stamp:

; 217  : 	{
; 218  : 		// Treat p as unsigned, so we have a happy compiler.
; 219  : 		const unsigned char* pU = (const unsigned char*)p;
; 220  : 
; 221  : 		// Code contributed by Fletcher Dunn: (modified by lee)
; 222  : 		switch (*pU) {

  00021	0f b6 11	 movzx	 edx, BYTE PTR [ecx]
  00024	81 fa ef 00 00
	00		 cmp	 edx, 239		; 000000efH
  0002a	0f 87 8a 00 00
	00		 ja	 $LN23@Stamp
  00030	0f b6 82 00 00
	00 00		 movzx	 eax, BYTE PTR $LN31@Stamp[edx]
  00037	ff 24 85 00 00
	00 00		 jmp	 DWORD PTR $LN32@Stamp[eax*4]
$LN8@Stamp:

; 223  : 			case 0:
; 224  : 				// We *should* never get here, but in case we do, don't
; 225  : 				// advance past the terminating null character, ever
; 226  : 				return;
; 227  : 
; 228  : 			case '\r':
; 229  : 				// bump down to the next line
; 230  : 				++row;
; 231  : 				col = 0;				
; 232  : 				// Eat the character
; 233  : 				++p;
; 234  : 
; 235  : 				// Check for \r\n sequence, and treat this as a single character
; 236  : 				if (*p == '\n') {

  0003e	8b 45 08	 mov	 eax, DWORD PTR _now$[ebp]
  00041	41		 inc	 ecx
  00042	43		 inc	 ebx
  00043	33 f6		 xor	 esi, esi
  00045	80 39 0a	 cmp	 BYTE PTR [ecx], 10	; 0000000aH
  00048	75 45		 jne	 SHORT $LN25@Stamp

; 237  : 					++p;

  0004a	41		 inc	 ecx

; 238  : 				}
; 239  : 				break;

  0004b	eb 42		 jmp	 SHORT $LN25@Stamp
$LN10@Stamp:

; 240  : 
; 241  : 			case '\n':
; 242  : 				// bump down to the next line
; 243  : 				++row;
; 244  : 				col = 0;
; 245  : 
; 246  : 				// Eat the character
; 247  : 				++p;
; 248  : 
; 249  : 				// Check for \n\r sequence, and treat this as a single
; 250  : 				// character.  (Yes, this bizarre thing does occur still
; 251  : 				// on some arcane platforms...)
; 252  : 				if (*p == '\r') {

  0004d	8b 45 08	 mov	 eax, DWORD PTR _now$[ebp]
  00050	41		 inc	 ecx
  00051	43		 inc	 ebx
  00052	33 f6		 xor	 esi, esi
  00054	80 39 0d	 cmp	 BYTE PTR [ecx], 13	; 0000000dH
  00057	75 36		 jne	 SHORT $LN25@Stamp

; 253  : 					++p;

  00059	41		 inc	 ecx

; 254  : 				}
; 255  : 				break;

  0005a	eb 33		 jmp	 SHORT $LN25@Stamp
$LN12@Stamp:

; 256  : 
; 257  : 			case '\t':
; 258  : 				// Eat the character
; 259  : 				++p;
; 260  : 
; 261  : 				// Skip to next tab stop
; 262  : 				col = (col / tabsize + 1) * tabsize;

  0005c	8b c6		 mov	 eax, esi
  0005e	41		 inc	 ecx
  0005f	99		 cdq
  00060	f7 7f 0c	 idiv	 DWORD PTR [edi+12]
  00063	8b 47 0c	 mov	 eax, DWORD PTR [edi+12]
  00066	2b c2		 sub	 eax, edx
  00068	03 f0		 add	 esi, eax

; 263  : 				break;

  0006a	eb 20		 jmp	 SHORT $LN34@Stamp
$LN13@Stamp:

; 264  : 
; 265  : 			case TIXML_UTF_LEAD_0:
; 266  : 				if ( encoding == TIXML_ENCODING_UTF8 )

  0006c	83 7d 0c 01	 cmp	 DWORD PTR _encoding$[ebp], 1
  00070	75 41		 jne	 SHORT $LN14@Stamp

; 267  : 				{
; 268  : 					if ( *(p+1) && *(p+2) )

  00072	8a 51 01	 mov	 dl, BYTE PTR [ecx+1]
  00075	84 d2		 test	 dl, dl
  00077	74 13		 je	 SHORT $LN34@Stamp
  00079	8a 41 02	 mov	 al, BYTE PTR [ecx+2]
  0007c	84 c0		 test	 al, al
  0007e	74 0c		 je	 SHORT $LN34@Stamp

; 269  : 					{
; 270  : 						// In these cases, don't advance the column. These are
; 271  : 						// 0-width spaces.
; 272  : 						if ( *(pU+1)==TIXML_UTF_LEAD_1 && *(pU+2)==TIXML_UTF_LEAD_2 )

  00080	80 fa bb	 cmp	 dl, 187			; 000000bbH
  00083	75 1d		 jne	 SHORT $LN17@Stamp
$LN19@Stamp:

; 214  : 	I3ASSERT( p );
; 215  : 
; 216  : 	while ( p < now )

  00085	3c bf		 cmp	 al, 191			; 000000bfH
  00087	75 24		 jne	 SHORT $LN21@Stamp
$LN54@Stamp:
  00089	83 c1 03	 add	 ecx, 3
$LN34@Stamp:
  0008c	8b 45 08	 mov	 eax, DWORD PTR _now$[ebp]
$LN25@Stamp:
  0008f	3b c8		 cmp	 ecx, eax
  00091	72 8e		 jb	 SHORT $LL2@Stamp
$LN3@Stamp:

; 305  : 				}
; 306  : 				break;
; 307  : 		}
; 308  : 	}
; 309  : 	cursor.row = row;

  00093	89 1f		 mov	 DWORD PTR [edi], ebx

; 310  : 	cursor.col = col;

  00095	89 77 04	 mov	 DWORD PTR [edi+4], esi

; 311  : 	I3ASSERT( cursor.row >= -1 );
; 312  : 	I3ASSERT( cursor.col >= -1 );
; 313  : 	stamp = p;

  00098	89 4f 08	 mov	 DWORD PTR [edi+8], ecx
$LN52@Stamp:
  0009b	5e		 pop	 esi
  0009c	5b		 pop	 ebx
$LN1@Stamp:
  0009d	5f		 pop	 edi

; 314  : 	I3ASSERT( stamp );
; 315  : }

  0009e	5d		 pop	 ebp
  0009f	c2 08 00	 ret	 8
$LN17@Stamp:

; 273  : 							p += 3;	
; 274  : 						else if ( *(pU+1)==0xbfU && *(pU+2)==0xbeU )

  000a2	80 fa bf	 cmp	 dl, 191			; 000000bfH
  000a5	75 06		 jne	 SHORT $LN21@Stamp
  000a7	3c be		 cmp	 al, 190			; 000000beH
  000a9	75 da		 jne	 SHORT $LN19@Stamp

; 275  : 							p += 3;	

  000ab	eb dc		 jmp	 SHORT $LN54@Stamp
$LN21@Stamp:

; 276  : 						else if ( *(pU+1)==0xbfU && *(pU+2)==0xbfU )
; 277  : 							p += 3;	
; 278  : 						else
; 279  : 							{ p +=3; ++col; }	// A normal character.

  000ad	83 c1 03	 add	 ecx, 3
  000b0	46		 inc	 esi

; 280  : 					}
; 281  : 				}

  000b1	eb d9		 jmp	 SHORT $LN34@Stamp
$LN14@Stamp:

; 282  : 				else
; 283  : 				{
; 284  : 					++p;

  000b3	41		 inc	 ecx

; 285  : 					++col;

  000b4	46		 inc	 esi

; 286  : 				}
; 287  : 				break;

  000b5	eb d5		 jmp	 SHORT $LN34@Stamp
$LN37@Stamp:

; 217  : 	{
; 218  : 		// Treat p as unsigned, so we have a happy compiler.
; 219  : 		const unsigned char* pU = (const unsigned char*)p;
; 220  : 
; 221  : 		// Code contributed by Fletcher Dunn: (modified by lee)
; 222  : 		switch (*pU) {

  000b7	8b 45 08	 mov	 eax, DWORD PTR _now$[ebp]
$LN23@Stamp:

; 288  : 
; 289  : 			default:
; 290  : 				if ( encoding == TIXML_ENCODING_UTF8 )

  000ba	83 7d 0c 01	 cmp	 DWORD PTR _encoding$[ebp], 1
  000be	75 16		 jne	 SHORT $LN24@Stamp

; 291  : 				{
; 292  : 					// Eat the 1 to 4 byte utf8 character.
; 293  : 					int step = TiXmlBase::utf8ByteTable[*((const unsigned char*)p)];

  000c0	8b 04 95 00 00
	00 00		 mov	 eax, DWORD PTR ?utf8ByteTable@TiXmlBase@@2QBHB[edx*4]

; 294  : 					if ( step == 0 )

  000c7	85 c0		 test	 eax, eax
  000c9	ba 01 00 00 00	 mov	 edx, 1
  000ce	0f 44 c2	 cmove	 eax, edx

; 295  : 						step = 1;		// Error case from bad encoding, but handle gracefully.
; 296  : 					p += step;

  000d1	03 c8		 add	 ecx, eax

; 297  : 
; 298  : 					// Just advance one column, of course.
; 299  : 					++col;

  000d3	46		 inc	 esi
  000d4	eb b6		 jmp	 SHORT $LN34@Stamp
$LN24@Stamp:

; 300  : 				}
; 301  : 				else
; 302  : 				{
; 303  : 					++p;

  000d6	41		 inc	 ecx

; 304  : 					++col;

  000d7	46		 inc	 esi
  000d8	eb b5		 jmp	 SHORT $LN25@Stamp
  000da	8b ff		 npad	 2
$LN32@Stamp:

; 314  : 	I3ASSERT( stamp );
; 315  : }

  000dc	00 00 00 00	 DD	 $LN52@Stamp
  000e0	00 00 00 00	 DD	 $LN12@Stamp
  000e4	00 00 00 00	 DD	 $LN10@Stamp
  000e8	00 00 00 00	 DD	 $LN8@Stamp
  000ec	00 00 00 00	 DD	 $LN13@Stamp
  000f0	00 00 00 00	 DD	 $LN37@Stamp
$LN31@Stamp:
  000f4	00		 DB	 0
  000f5	05		 DB	 5
  000f6	05		 DB	 5
  000f7	05		 DB	 5
  000f8	05		 DB	 5
  000f9	05		 DB	 5
  000fa	05		 DB	 5
  000fb	05		 DB	 5
  000fc	05		 DB	 5
  000fd	01		 DB	 1
  000fe	02		 DB	 2
  000ff	05		 DB	 5
  00100	05		 DB	 5
  00101	03		 DB	 3
  00102	05		 DB	 5
  00103	05		 DB	 5
  00104	05		 DB	 5
  00105	05		 DB	 5
  00106	05		 DB	 5
  00107	05		 DB	 5
  00108	05		 DB	 5
  00109	05		 DB	 5
  0010a	05		 DB	 5
  0010b	05		 DB	 5
  0010c	05		 DB	 5
  0010d	05		 DB	 5
  0010e	05		 DB	 5
  0010f	05		 DB	 5
  00110	05		 DB	 5
  00111	05		 DB	 5
  00112	05		 DB	 5
  00113	05		 DB	 5
  00114	05		 DB	 5
  00115	05		 DB	 5
  00116	05		 DB	 5
  00117	05		 DB	 5
  00118	05		 DB	 5
  00119	05		 DB	 5
  0011a	05		 DB	 5
  0011b	05		 DB	 5
  0011c	05		 DB	 5
  0011d	05		 DB	 5
  0011e	05		 DB	 5
  0011f	05		 DB	 5
  00120	05		 DB	 5
  00121	05		 DB	 5
  00122	05		 DB	 5
  00123	05		 DB	 5
  00124	05		 DB	 5
  00125	05		 DB	 5
  00126	05		 DB	 5
  00127	05		 DB	 5
  00128	05		 DB	 5
  00129	05		 DB	 5
  0012a	05		 DB	 5
  0012b	05		 DB	 5
  0012c	05		 DB	 5
  0012d	05		 DB	 5
  0012e	05		 DB	 5
  0012f	05		 DB	 5
  00130	05		 DB	 5
  00131	05		 DB	 5
  00132	05		 DB	 5
  00133	05		 DB	 5
  00134	05		 DB	 5
  00135	05		 DB	 5
  00136	05		 DB	 5
  00137	05		 DB	 5
  00138	05		 DB	 5
  00139	05		 DB	 5
  0013a	05		 DB	 5
  0013b	05		 DB	 5
  0013c	05		 DB	 5
  0013d	05		 DB	 5
  0013e	05		 DB	 5
  0013f	05		 DB	 5
  00140	05		 DB	 5
  00141	05		 DB	 5
  00142	05		 DB	 5
  00143	05		 DB	 5
  00144	05		 DB	 5
  00145	05		 DB	 5
  00146	05		 DB	 5
  00147	05		 DB	 5
  00148	05		 DB	 5
  00149	05		 DB	 5
  0014a	05		 DB	 5
  0014b	05		 DB	 5
  0014c	05		 DB	 5
  0014d	05		 DB	 5
  0014e	05		 DB	 5
  0014f	05		 DB	 5
  00150	05		 DB	 5
  00151	05		 DB	 5
  00152	05		 DB	 5
  00153	05		 DB	 5
  00154	05		 DB	 5
  00155	05		 DB	 5
  00156	05		 DB	 5
  00157	05		 DB	 5
  00158	05		 DB	 5
  00159	05		 DB	 5
  0015a	05		 DB	 5
  0015b	05		 DB	 5
  0015c	05		 DB	 5
  0015d	05		 DB	 5
  0015e	05		 DB	 5
  0015f	05		 DB	 5
  00160	05		 DB	 5
  00161	05		 DB	 5
  00162	05		 DB	 5
  00163	05		 DB	 5
  00164	05		 DB	 5
  00165	05		 DB	 5
  00166	05		 DB	 5
  00167	05		 DB	 5
  00168	05		 DB	 5
  00169	05		 DB	 5
  0016a	05		 DB	 5
  0016b	05		 DB	 5
  0016c	05		 DB	 5
  0016d	05		 DB	 5
  0016e	05		 DB	 5
  0016f	05		 DB	 5
  00170	05		 DB	 5
  00171	05		 DB	 5
  00172	05		 DB	 5
  00173	05		 DB	 5
  00174	05		 DB	 5
  00175	05		 DB	 5
  00176	05		 DB	 5
  00177	05		 DB	 5
  00178	05		 DB	 5
  00179	05		 DB	 5
  0017a	05		 DB	 5
  0017b	05		 DB	 5
  0017c	05		 DB	 5
  0017d	05		 DB	 5
  0017e	05		 DB	 5
  0017f	05		 DB	 5
  00180	05		 DB	 5
  00181	05		 DB	 5
  00182	05		 DB	 5
  00183	05		 DB	 5
  00184	05		 DB	 5
  00185	05		 DB	 5
  00186	05		 DB	 5
  00187	05		 DB	 5
  00188	05		 DB	 5
  00189	05		 DB	 5
  0018a	05		 DB	 5
  0018b	05		 DB	 5
  0018c	05		 DB	 5
  0018d	05		 DB	 5
  0018e	05		 DB	 5
  0018f	05		 DB	 5
  00190	05		 DB	 5
  00191	05		 DB	 5
  00192	05		 DB	 5
  00193	05		 DB	 5
  00194	05		 DB	 5
  00195	05		 DB	 5
  00196	05		 DB	 5
  00197	05		 DB	 5
  00198	05		 DB	 5
  00199	05		 DB	 5
  0019a	05		 DB	 5
  0019b	05		 DB	 5
  0019c	05		 DB	 5
  0019d	05		 DB	 5
  0019e	05		 DB	 5
  0019f	05		 DB	 5
  001a0	05		 DB	 5
  001a1	05		 DB	 5
  001a2	05		 DB	 5
  001a3	05		 DB	 5
  001a4	05		 DB	 5
  001a5	05		 DB	 5
  001a6	05		 DB	 5
  001a7	05		 DB	 5
  001a8	05		 DB	 5
  001a9	05		 DB	 5
  001aa	05		 DB	 5
  001ab	05		 DB	 5
  001ac	05		 DB	 5
  001ad	05		 DB	 5
  001ae	05		 DB	 5
  001af	05		 DB	 5
  001b0	05		 DB	 5
  001b1	05		 DB	 5
  001b2	05		 DB	 5
  001b3	05		 DB	 5
  001b4	05		 DB	 5
  001b5	05		 DB	 5
  001b6	05		 DB	 5
  001b7	05		 DB	 5
  001b8	05		 DB	 5
  001b9	05		 DB	 5
  001ba	05		 DB	 5
  001bb	05		 DB	 5
  001bc	05		 DB	 5
  001bd	05		 DB	 5
  001be	05		 DB	 5
  001bf	05		 DB	 5
  001c0	05		 DB	 5
  001c1	05		 DB	 5
  001c2	05		 DB	 5
  001c3	05		 DB	 5
  001c4	05		 DB	 5
  001c5	05		 DB	 5
  001c6	05		 DB	 5
  001c7	05		 DB	 5
  001c8	05		 DB	 5
  001c9	05		 DB	 5
  001ca	05		 DB	 5
  001cb	05		 DB	 5
  001cc	05		 DB	 5
  001cd	05		 DB	 5
  001ce	05		 DB	 5
  001cf	05		 DB	 5
  001d0	05		 DB	 5
  001d1	05		 DB	 5
  001d2	05		 DB	 5
  001d3	05		 DB	 5
  001d4	05		 DB	 5
  001d5	05		 DB	 5
  001d6	05		 DB	 5
  001d7	05		 DB	 5
  001d8	05		 DB	 5
  001d9	05		 DB	 5
  001da	05		 DB	 5
  001db	05		 DB	 5
  001dc	05		 DB	 5
  001dd	05		 DB	 5
  001de	05		 DB	 5
  001df	05		 DB	 5
  001e0	05		 DB	 5
  001e1	05		 DB	 5
  001e2	05		 DB	 5
  001e3	04		 DB	 4
?Stamp@TiXmlParsingData@@QAEXPBDW4TiXmlEncoding@@@Z ENDP ; TiXmlParsingData::Stamp
_TEXT	ENDS
; Function compile flags: /Ogtp
; File E:\Proyectos\JuegosOnlineproyectos\PB\pbblow\Piercing Blow Remake\i3Server\include\i3Base\tinystr.h
;	COMDAT ??_ETiXmlPrinter@@UAEPAXI@Z
_TEXT	SEGMENT
__$EHRec$ = -12						; size = 12
___flags$ = 8						; size = 4
??_ETiXmlPrinter@@UAEPAXI@Z PROC			; TiXmlPrinter::`vector deleting destructor', COMDAT
; _this$ = ecx
  00000	55		 push	 ebp
  00001	8b ec		 mov	 ebp, esp
  00003	6a ff		 push	 -1
  00005	68 00 00 00 00	 push	 __ehhandler$??_ETiXmlPrinter@@UAEPAXI@Z
  0000a	64 a1 00 00 00
	00		 mov	 eax, DWORD PTR fs:0
  00010	50		 push	 eax
  00011	53		 push	 ebx
  00012	56		 push	 esi
  00013	57		 push	 edi
  00014	a1 00 00 00 00	 mov	 eax, DWORD PTR ___security_cookie
  00019	33 c5		 xor	 eax, ebp
  0001b	50		 push	 eax
  0001c	8d 45 f4	 lea	 eax, DWORD PTR __$EHRec$[ebp]
  0001f	64 a3 00 00 00
	00		 mov	 DWORD PTR fs:0, eax
  00025	8b f1		 mov	 esi, ecx
  00027	8b 5d 08	 mov	 ebx, DWORD PTR ___flags$[ebp]
  0002a	f6 c3 02	 test	 bl, 2
  0002d	74 44		 je	 SHORT $LN2@vector
  0002f	68 00 00 00 00	 push	 OFFSET ??1TiXmlPrinter@@UAE@XZ
  00034	ff 76 fc	 push	 DWORD PTR [esi-4]
  00037	8d 7e fc	 lea	 edi, DWORD PTR [esi-4]
  0003a	6a 18		 push	 24			; 00000018H
  0003c	56		 push	 esi
  0003d	e8 00 00 00 00	 call	 ??_M@YGXPAXIIP6EX0@Z@Z
  00042	f6 c3 01	 test	 bl, 1
  00045	74 16		 je	 SHORT $LN3@vector
  00047	8b 0f		 mov	 ecx, DWORD PTR [edi]
  00049	8d 0c 49	 lea	 ecx, DWORD PTR [ecx+ecx*2]
  0004c	8d 0c cd 04 00
	00 00		 lea	 ecx, DWORD PTR [ecx*8+4]
  00053	51		 push	 ecx
  00054	57		 push	 edi
  00055	e8 00 00 00 00	 call	 ??_V@YAXPAXI@Z		; operator delete[]
  0005a	83 c4 08	 add	 esp, 8
$LN3@vector:
  0005d	8b c7		 mov	 eax, edi
  0005f	8b 4d f4	 mov	 ecx, DWORD PTR __$EHRec$[ebp]
  00062	64 89 0d 00 00
	00 00		 mov	 DWORD PTR fs:0, ecx
  00069	59		 pop	 ecx
  0006a	5f		 pop	 edi
  0006b	5e		 pop	 esi
  0006c	5b		 pop	 ebx
  0006d	8b e5		 mov	 esp, ebp
  0006f	5d		 pop	 ebp
  00070	c2 04 00	 ret	 4
$LN2@vector:

; 257  : 		if (rep_ != &nullrep_)

  00073	8b 46 14	 mov	 eax, DWORD PTR [esi+20]
  00076	3d 00 00 00 00	 cmp	 eax, OFFSET ?nullrep_@TiXmlString@@0URep@1@A ; TiXmlString::nullrep_
  0007b	74 09		 je	 SHORT $LN16@vector

; 258  : 		{
; 259  : 			// The rep_ is really an array of ints. (see the allocator, above).
; 260  : 			// Cast it back before delete, so the compiler won't incorrectly call destructors.
; 261  : 			delete [] ( reinterpret_cast<int*>( rep_ ) );

  0007d	50		 push	 eax
  0007e	e8 00 00 00 00	 call	 ??_V@YAXPAX@Z		; operator delete[]
  00083	83 c4 04	 add	 esp, 4
$LN16@vector:

; 257  : 		if (rep_ != &nullrep_)

  00086	8b 46 10	 mov	 eax, DWORD PTR [esi+16]
  00089	3d 00 00 00 00	 cmp	 eax, OFFSET ?nullrep_@TiXmlString@@0URep@1@A ; TiXmlString::nullrep_
  0008e	74 09		 je	 SHORT $LN22@vector

; 258  : 		{
; 259  : 			// The rep_ is really an array of ints. (see the allocator, above).
; 260  : 			// Cast it back before delete, so the compiler won't incorrectly call destructors.
; 261  : 			delete [] ( reinterpret_cast<int*>( rep_ ) );

  00090	50		 push	 eax
  00091	e8 00 00 00 00	 call	 ??_V@YAXPAX@Z		; operator delete[]
  00096	83 c4 04	 add	 esp, 4
$LN22@vector:

; 257  : 		if (rep_ != &nullrep_)

  00099	8b 46 0c	 mov	 eax, DWORD PTR [esi+12]
  0009c	3d 00 00 00 00	 cmp	 eax, OFFSET ?nullrep_@TiXmlString@@0URep@1@A ; TiXmlString::nullrep_
  000a1	74 09		 je	 SHORT $LN28@vector

; 258  : 		{
; 259  : 			// The rep_ is really an array of ints. (see the allocator, above).
; 260  : 			// Cast it back before delete, so the compiler won't incorrectly call destructors.
; 261  : 			delete [] ( reinterpret_cast<int*>( rep_ ) );

  000a3	50		 push	 eax
  000a4	e8 00 00 00 00	 call	 ??_V@YAXPAX@Z		; operator delete[]
  000a9	83 c4 04	 add	 esp, 4
$LN28@vector:
  000ac	c7 06 00 00 00
	00		 mov	 DWORD PTR [esi], OFFSET ??_7TiXmlVisitor@@6B@
  000b2	f6 c3 01	 test	 bl, 1
  000b5	74 0b		 je	 SHORT $LN4@vector
  000b7	6a 18		 push	 24			; 00000018H
  000b9	56		 push	 esi
  000ba	e8 00 00 00 00	 call	 ??3@YAXPAXI@Z		; operator delete
  000bf	83 c4 08	 add	 esp, 8
$LN4@vector:
  000c2	8b c6		 mov	 eax, esi
  000c4	8b 4d f4	 mov	 ecx, DWORD PTR __$EHRec$[ebp]
  000c7	64 89 0d 00 00
	00 00		 mov	 DWORD PTR fs:0, ecx
  000ce	59		 pop	 ecx
  000cf	5f		 pop	 edi
  000d0	5e		 pop	 esi
  000d1	5b		 pop	 ebx
  000d2	8b e5		 mov	 esp, ebp
  000d4	5d		 pop	 ebp
  000d5	c2 04 00	 ret	 4
  000d8	cc		 int	 3
  000d9	cc		 int	 3
  000da	cc		 int	 3
  000db	cc		 int	 3
  000dc	cc		 int	 3
_TEXT	ENDS
;	COMDAT text$x
text$x	SEGMENT
__ehhandler$??_ETiXmlPrinter@@UAEPAXI@Z:
  00000	90		 npad	 1
  00001	90		 npad	 1
  00002	8b 54 24 08	 mov	 edx, DWORD PTR [esp+8]
  00006	8d 42 0c	 lea	 eax, DWORD PTR [edx+12]
  00009	8b 4a f0	 mov	 ecx, DWORD PTR [edx-16]
  0000c	33 c8		 xor	 ecx, eax
  0000e	e8 00 00 00 00	 call	 @__security_check_cookie@4
  00013	b8 00 00 00 00	 mov	 eax, OFFSET __ehfuncinfo$??_ETiXmlPrinter@@UAEPAXI@Z
  00018	e9 00 00 00 00	 jmp	 ___CxxFrameHandler3
text$x	ENDS
??_ETiXmlPrinter@@UAEPAXI@Z ENDP			; TiXmlPrinter::`vector deleting destructor'
; Function compile flags: /Ogtp
; File E:\Proyectos\JuegosOnlineproyectos\PB\pbblow\Piercing Blow Remake\i3Server\include\i3Base\tinystr.h
;	COMDAT ??_GTiXmlPrinter@@UAEPAXI@Z
_TEXT	SEGMENT
___flags$ = 8						; size = 4
??_GTiXmlPrinter@@UAEPAXI@Z PROC			; TiXmlPrinter::`scalar deleting destructor', COMDAT
; _this$ = ecx
  00000	55		 push	 ebp
  00001	8b ec		 mov	 ebp, esp

; 257  : 		if (rep_ != &nullrep_)

  00003	56		 push	 esi
  00004	8b f1		 mov	 esi, ecx
  00006	8b 46 14	 mov	 eax, DWORD PTR [esi+20]
  00009	3d 00 00 00 00	 cmp	 eax, OFFSET ?nullrep_@TiXmlString@@0URep@1@A ; TiXmlString::nullrep_
  0000e	74 09		 je	 SHORT $LN14@scalar

; 258  : 		{
; 259  : 			// The rep_ is really an array of ints. (see the allocator, above).
; 260  : 			// Cast it back before delete, so the compiler won't incorrectly call destructors.
; 261  : 			delete [] ( reinterpret_cast<int*>( rep_ ) );

  00010	50		 push	 eax
  00011	e8 00 00 00 00	 call	 ??_V@YAXPAX@Z		; operator delete[]
  00016	83 c4 04	 add	 esp, 4
$LN14@scalar:

; 257  : 		if (rep_ != &nullrep_)

  00019	8b 46 10	 mov	 eax, DWORD PTR [esi+16]
  0001c	3d 00 00 00 00	 cmp	 eax, OFFSET ?nullrep_@TiXmlString@@0URep@1@A ; TiXmlString::nullrep_
  00021	74 09		 je	 SHORT $LN20@scalar

; 258  : 		{
; 259  : 			// The rep_ is really an array of ints. (see the allocator, above).
; 260  : 			// Cast it back before delete, so the compiler won't incorrectly call destructors.
; 261  : 			delete [] ( reinterpret_cast<int*>( rep_ ) );

  00023	50		 push	 eax
  00024	e8 00 00 00 00	 call	 ??_V@YAXPAX@Z		; operator delete[]
  00029	83 c4 04	 add	 esp, 4
$LN20@scalar:

; 257  : 		if (rep_ != &nullrep_)

  0002c	8b 46 0c	 mov	 eax, DWORD PTR [esi+12]
  0002f	3d 00 00 00 00	 cmp	 eax, OFFSET ?nullrep_@TiXmlString@@0URep@1@A ; TiXmlString::nullrep_
  00034	74 09		 je	 SHORT $LN26@scalar

; 258  : 		{
; 259  : 			// The rep_ is really an array of ints. (see the allocator, above).
; 260  : 			// Cast it back before delete, so the compiler won't incorrectly call destructors.
; 261  : 			delete [] ( reinterpret_cast<int*>( rep_ ) );

  00036	50		 push	 eax
  00037	e8 00 00 00 00	 call	 ??_V@YAXPAX@Z		; operator delete[]
  0003c	83 c4 04	 add	 esp, 4
$LN26@scalar:
  0003f	f6 45 08 01	 test	 BYTE PTR ___flags$[ebp], 1
  00043	c7 06 00 00 00
	00		 mov	 DWORD PTR [esi], OFFSET ??_7TiXmlVisitor@@6B@
  00049	74 0b		 je	 SHORT $LN28@scalar
  0004b	6a 18		 push	 24			; 00000018H
  0004d	56		 push	 esi
  0004e	e8 00 00 00 00	 call	 ??3@YAXPAXI@Z		; operator delete
  00053	83 c4 08	 add	 esp, 8
$LN28@scalar:
  00056	8b c6		 mov	 eax, esi
  00058	5e		 pop	 esi
  00059	5d		 pop	 ebp
  0005a	c2 04 00	 ret	 4
??_GTiXmlPrinter@@UAEPAXI@Z ENDP			; TiXmlPrinter::`scalar deleting destructor'
_TEXT	ENDS
; Function compile flags: /Ogtp
; File E:\Proyectos\JuegosOnlineproyectos\PB\pbblow\Piercing Blow Remake\i3Server\include\i3Base\tinystr.h
;	COMDAT ??4TiXmlPrinter@@QAEAAV0@$$QAV0@@Z
_TEXT	SEGMENT
___that$ = 8						; size = 4
??4TiXmlPrinter@@QAEAAV0@$$QAV0@@Z PROC			; TiXmlPrinter::operator=, COMDAT
; _this$ = ecx
  00000	55		 push	 ebp
  00001	8b ec		 mov	 ebp, esp

; 150  : 	size_type length () const { return rep_->size; }

  00003	56		 push	 esi
  00004	8b 75 08	 mov	 esi, DWORD PTR ___that$[ebp]
  00007	57		 push	 edi
  00008	8b f9		 mov	 edi, ecx
  0000a	8b 46 04	 mov	 eax, DWORD PTR [esi+4]
  0000d	89 47 04	 mov	 DWORD PTR [edi+4], eax
  00010	8d 4f 0c	 lea	 ecx, DWORD PTR [edi+12]
  00013	8a 46 08	 mov	 al, BYTE PTR [esi+8]
  00016	88 47 08	 mov	 BYTE PTR [edi+8], al
  00019	8b 46 0c	 mov	 eax, DWORD PTR [esi+12]

; 120  : 		return assign(copy.start(), copy.length());

  0001c	ff 30		 push	 DWORD PTR [eax]

; 224  : 	char* start() const { return rep_->str; }

  0001e	83 c0 08	 add	 eax, 8

; 120  : 		return assign(copy.start(), copy.length());

  00021	50		 push	 eax
  00022	e8 00 00 00 00	 call	 ?assign@TiXmlString@@QAEAAV1@PBDI@Z ; TiXmlString::assign

; 150  : 	size_type length () const { return rep_->size; }

  00027	8b 46 10	 mov	 eax, DWORD PTR [esi+16]
  0002a	8d 4f 10	 lea	 ecx, DWORD PTR [edi+16]

; 120  : 		return assign(copy.start(), copy.length());

  0002d	ff 30		 push	 DWORD PTR [eax]

; 224  : 	char* start() const { return rep_->str; }

  0002f	83 c0 08	 add	 eax, 8

; 120  : 		return assign(copy.start(), copy.length());

  00032	50		 push	 eax
  00033	e8 00 00 00 00	 call	 ?assign@TiXmlString@@QAEAAV1@PBDI@Z ; TiXmlString::assign

; 150  : 	size_type length () const { return rep_->size; }

  00038	8b 46 14	 mov	 eax, DWORD PTR [esi+20]
  0003b	8d 4f 14	 lea	 ecx, DWORD PTR [edi+20]

; 120  : 		return assign(copy.start(), copy.length());

  0003e	ff 30		 push	 DWORD PTR [eax]

; 224  : 	char* start() const { return rep_->str; }

  00040	83 c0 08	 add	 eax, 8

; 120  : 		return assign(copy.start(), copy.length());

  00043	50		 push	 eax
  00044	e8 00 00 00 00	 call	 ?assign@TiXmlString@@QAEAAV1@PBDI@Z ; TiXmlString::assign
  00049	8b c7		 mov	 eax, edi
  0004b	5f		 pop	 edi
  0004c	5e		 pop	 esi
  0004d	5d		 pop	 ebp
  0004e	c2 04 00	 ret	 4
??4TiXmlPrinter@@QAEAAV0@$$QAV0@@Z ENDP			; TiXmlPrinter::operator=
_TEXT	ENDS
; Function compile flags: /Ogtp
; File E:\Proyectos\JuegosOnlineproyectos\PB\pbblow\Piercing Blow Remake\i3Server\include\i3Base\tinystr.h
;	COMDAT ??4TiXmlPrinter@@QAEAAV0@ABV0@@Z
_TEXT	SEGMENT
___that$ = 8						; size = 4
??4TiXmlPrinter@@QAEAAV0@ABV0@@Z PROC			; TiXmlPrinter::operator=, COMDAT
; _this$ = ecx
  00000	55		 push	 ebp
  00001	8b ec		 mov	 ebp, esp

; 150  : 	size_type length () const { return rep_->size; }

  00003	56		 push	 esi
  00004	8b 75 08	 mov	 esi, DWORD PTR ___that$[ebp]
  00007	57		 push	 edi
  00008	8b f9		 mov	 edi, ecx
  0000a	8b 46 04	 mov	 eax, DWORD PTR [esi+4]
  0000d	89 47 04	 mov	 DWORD PTR [edi+4], eax
  00010	8d 4f 0c	 lea	 ecx, DWORD PTR [edi+12]
  00013	8a 46 08	 mov	 al, BYTE PTR [esi+8]
  00016	88 47 08	 mov	 BYTE PTR [edi+8], al
  00019	8b 46 0c	 mov	 eax, DWORD PTR [esi+12]

; 120  : 		return assign(copy.start(), copy.length());

  0001c	ff 30		 push	 DWORD PTR [eax]

; 224  : 	char* start() const { return rep_->str; }

  0001e	83 c0 08	 add	 eax, 8

; 120  : 		return assign(copy.start(), copy.length());

  00021	50		 push	 eax
  00022	e8 00 00 00 00	 call	 ?assign@TiXmlString@@QAEAAV1@PBDI@Z ; TiXmlString::assign

; 150  : 	size_type length () const { return rep_->size; }

  00027	8b 46 10	 mov	 eax, DWORD PTR [esi+16]
  0002a	8d 4f 10	 lea	 ecx, DWORD PTR [edi+16]

; 120  : 		return assign(copy.start(), copy.length());

  0002d	ff 30		 push	 DWORD PTR [eax]

; 224  : 	char* start() const { return rep_->str; }

  0002f	83 c0 08	 add	 eax, 8

; 120  : 		return assign(copy.start(), copy.length());

  00032	50		 push	 eax
  00033	e8 00 00 00 00	 call	 ?assign@TiXmlString@@QAEAAV1@PBDI@Z ; TiXmlString::assign

; 150  : 	size_type length () const { return rep_->size; }

  00038	8b 46 14	 mov	 eax, DWORD PTR [esi+20]
  0003b	8d 4f 14	 lea	 ecx, DWORD PTR [edi+20]

; 120  : 		return assign(copy.start(), copy.length());

  0003e	ff 30		 push	 DWORD PTR [eax]

; 224  : 	char* start() const { return rep_->str; }

  00040	83 c0 08	 add	 eax, 8

; 120  : 		return assign(copy.start(), copy.length());

  00043	50		 push	 eax
  00044	e8 00 00 00 00	 call	 ?assign@TiXmlString@@QAEAAV1@PBDI@Z ; TiXmlString::assign
  00049	8b c7		 mov	 eax, edi
  0004b	5f		 pop	 edi
  0004c	5e		 pop	 esi
  0004d	5d		 pop	 ebp
  0004e	c2 04 00	 ret	 4
??4TiXmlPrinter@@QAEAAV0@ABV0@@Z ENDP			; TiXmlPrinter::operator=
_TEXT	ENDS
; Function compile flags: /Ogtp
;	COMDAT ??0TiXmlPrinter@@QAE@$$QAV0@@Z
_TEXT	SEGMENT
_this$ = -16						; size = 4
__$EHRec$ = -12						; size = 12
___that$ = 8						; size = 4
??0TiXmlPrinter@@QAE@$$QAV0@@Z PROC			; TiXmlPrinter::TiXmlPrinter, COMDAT
; _this$ = ecx
  00000	55		 push	 ebp
  00001	8b ec		 mov	 ebp, esp
  00003	6a ff		 push	 -1
  00005	68 00 00 00 00	 push	 __ehhandler$??0TiXmlPrinter@@QAE@$$QAV0@@Z
  0000a	64 a1 00 00 00
	00		 mov	 eax, DWORD PTR fs:0
  00010	50		 push	 eax
  00011	51		 push	 ecx
  00012	56		 push	 esi
  00013	57		 push	 edi
  00014	a1 00 00 00 00	 mov	 eax, DWORD PTR ___security_cookie
  00019	33 c5		 xor	 eax, ebp
  0001b	50		 push	 eax
  0001c	8d 45 f4	 lea	 eax, DWORD PTR __$EHRec$[ebp]
  0001f	64 a3 00 00 00
	00		 mov	 DWORD PTR fs:0, eax
  00025	8b f9		 mov	 edi, ecx
  00027	89 7d f0	 mov	 DWORD PTR _this$[ebp], edi
  0002a	8b 75 08	 mov	 esi, DWORD PTR ___that$[ebp]
  0002d	8d 4f 0c	 lea	 ecx, DWORD PTR [edi+12]
  00030	c7 07 00 00 00
	00		 mov	 DWORD PTR [edi], OFFSET ??_7TiXmlPrinter@@6B@
  00036	c7 45 fc 00 00
	00 00		 mov	 DWORD PTR __$EHRec$[ebp+8], 0
  0003d	8b 46 04	 mov	 eax, DWORD PTR [esi+4]
  00040	89 47 04	 mov	 DWORD PTR [edi+4], eax
  00043	8a 46 08	 mov	 al, BYTE PTR [esi+8]
  00046	88 47 08	 mov	 BYTE PTR [edi+8], al
  00049	8d 46 0c	 lea	 eax, DWORD PTR [esi+12]
  0004c	50		 push	 eax
  0004d	e8 00 00 00 00	 call	 ??0TiXmlString@@QAE@ABV0@@Z ; TiXmlString::TiXmlString
  00052	8d 46 10	 lea	 eax, DWORD PTR [esi+16]
  00055	c6 45 fc 01	 mov	 BYTE PTR __$EHRec$[ebp+8], 1
  00059	50		 push	 eax
  0005a	8d 4f 10	 lea	 ecx, DWORD PTR [edi+16]
  0005d	e8 00 00 00 00	 call	 ??0TiXmlString@@QAE@ABV0@@Z ; TiXmlString::TiXmlString
  00062	8d 46 14	 lea	 eax, DWORD PTR [esi+20]
  00065	c6 45 fc 02	 mov	 BYTE PTR __$EHRec$[ebp+8], 2
  00069	50		 push	 eax
  0006a	8d 4f 14	 lea	 ecx, DWORD PTR [edi+20]
  0006d	e8 00 00 00 00	 call	 ??0TiXmlString@@QAE@ABV0@@Z ; TiXmlString::TiXmlString
  00072	8b c7		 mov	 eax, edi
  00074	8b 4d f4	 mov	 ecx, DWORD PTR __$EHRec$[ebp]
  00077	64 89 0d 00 00
	00 00		 mov	 DWORD PTR fs:0, ecx
  0007e	59		 pop	 ecx
  0007f	5f		 pop	 edi
  00080	5e		 pop	 esi
  00081	8b e5		 mov	 esp, ebp
  00083	5d		 pop	 ebp
  00084	c2 04 00	 ret	 4
_TEXT	ENDS
;	COMDAT text$x
text$x	SEGMENT
__unwindfunclet$??0TiXmlPrinter@@QAE@$$QAV0@@Z$0:
  00000	8b 4d f0	 mov	 ecx, DWORD PTR _this$[ebp]
  00003	e9 00 00 00 00	 jmp	 ??1TiXmlVisitor@@UAE@XZ	; TiXmlVisitor::~TiXmlVisitor
__unwindfunclet$??0TiXmlPrinter@@QAE@$$QAV0@@Z$1:
  00008	8b 4d f0	 mov	 ecx, DWORD PTR _this$[ebp]
  0000b	83 c1 0c	 add	 ecx, 12			; 0000000cH
  0000e	e9 00 00 00 00	 jmp	 ??1TiXmlString@@QAE@XZ	; TiXmlString::~TiXmlString
__unwindfunclet$??0TiXmlPrinter@@QAE@$$QAV0@@Z$2:
  00013	8b 4d f0	 mov	 ecx, DWORD PTR _this$[ebp]
  00016	83 c1 10	 add	 ecx, 16			; 00000010H
  00019	e9 00 00 00 00	 jmp	 ??1TiXmlString@@QAE@XZ	; TiXmlString::~TiXmlString
  0001e	cc		 int	 3
  0001f	cc		 int	 3
  00020	cc		 int	 3
  00021	cc		 int	 3
  00022	cc		 int	 3
__ehhandler$??0TiXmlPrinter@@QAE@$$QAV0@@Z:
  00023	90		 npad	 1
  00024	90		 npad	 1
  00025	8b 54 24 08	 mov	 edx, DWORD PTR [esp+8]
  00029	8d 42 0c	 lea	 eax, DWORD PTR [edx+12]
  0002c	8b 4a f0	 mov	 ecx, DWORD PTR [edx-16]
  0002f	33 c8		 xor	 ecx, eax
  00031	e8 00 00 00 00	 call	 @__security_check_cookie@4
  00036	b8 00 00 00 00	 mov	 eax, OFFSET __ehfuncinfo$??0TiXmlPrinter@@QAE@$$QAV0@@Z
  0003b	e9 00 00 00 00	 jmp	 ___CxxFrameHandler3
text$x	ENDS
??0TiXmlPrinter@@QAE@$$QAV0@@Z ENDP			; TiXmlPrinter::TiXmlPrinter
; Function compile flags: /Ogtp
;	COMDAT ??0TiXmlPrinter@@QAE@ABV0@@Z
_TEXT	SEGMENT
_this$ = -16						; size = 4
__$EHRec$ = -12						; size = 12
___that$ = 8						; size = 4
??0TiXmlPrinter@@QAE@ABV0@@Z PROC			; TiXmlPrinter::TiXmlPrinter, COMDAT
; _this$ = ecx
  00000	55		 push	 ebp
  00001	8b ec		 mov	 ebp, esp
  00003	6a ff		 push	 -1
  00005	68 00 00 00 00	 push	 __ehhandler$??0TiXmlPrinter@@QAE@ABV0@@Z
  0000a	64 a1 00 00 00
	00		 mov	 eax, DWORD PTR fs:0
  00010	50		 push	 eax
  00011	51		 push	 ecx
  00012	56		 push	 esi
  00013	57		 push	 edi
  00014	a1 00 00 00 00	 mov	 eax, DWORD PTR ___security_cookie
  00019	33 c5		 xor	 eax, ebp
  0001b	50		 push	 eax
  0001c	8d 45 f4	 lea	 eax, DWORD PTR __$EHRec$[ebp]
  0001f	64 a3 00 00 00
	00		 mov	 DWORD PTR fs:0, eax
  00025	8b f9		 mov	 edi, ecx
  00027	89 7d f0	 mov	 DWORD PTR _this$[ebp], edi
  0002a	8b 75 08	 mov	 esi, DWORD PTR ___that$[ebp]
  0002d	8d 4f 0c	 lea	 ecx, DWORD PTR [edi+12]
  00030	c7 07 00 00 00
	00		 mov	 DWORD PTR [edi], OFFSET ??_7TiXmlPrinter@@6B@
  00036	c7 45 fc 00 00
	00 00		 mov	 DWORD PTR __$EHRec$[ebp+8], 0
  0003d	8b 46 04	 mov	 eax, DWORD PTR [esi+4]
  00040	89 47 04	 mov	 DWORD PTR [edi+4], eax
  00043	8a 46 08	 mov	 al, BYTE PTR [esi+8]
  00046	88 47 08	 mov	 BYTE PTR [edi+8], al
  00049	8d 46 0c	 lea	 eax, DWORD PTR [esi+12]
  0004c	50		 push	 eax
  0004d	e8 00 00 00 00	 call	 ??0TiXmlString@@QAE@ABV0@@Z ; TiXmlString::TiXmlString
  00052	8d 46 10	 lea	 eax, DWORD PTR [esi+16]
  00055	c6 45 fc 01	 mov	 BYTE PTR __$EHRec$[ebp+8], 1
  00059	50		 push	 eax
  0005a	8d 4f 10	 lea	 ecx, DWORD PTR [edi+16]
  0005d	e8 00 00 00 00	 call	 ??0TiXmlString@@QAE@ABV0@@Z ; TiXmlString::TiXmlString
  00062	8d 46 14	 lea	 eax, DWORD PTR [esi+20]
  00065	c6 45 fc 02	 mov	 BYTE PTR __$EHRec$[ebp+8], 2
  00069	50		 push	 eax
  0006a	8d 4f 14	 lea	 ecx, DWORD PTR [edi+20]
  0006d	e8 00 00 00 00	 call	 ??0TiXmlString@@QAE@ABV0@@Z ; TiXmlString::TiXmlString
  00072	8b c7		 mov	 eax, edi
  00074	8b 4d f4	 mov	 ecx, DWORD PTR __$EHRec$[ebp]
  00077	64 89 0d 00 00
	00 00		 mov	 DWORD PTR fs:0, ecx
  0007e	59		 pop	 ecx
  0007f	5f		 pop	 edi
  00080	5e		 pop	 esi
  00081	8b e5		 mov	 esp, ebp
  00083	5d		 pop	 ebp
  00084	c2 04 00	 ret	 4
_TEXT	ENDS
;	COMDAT text$x
text$x	SEGMENT
__unwindfunclet$??0TiXmlPrinter@@QAE@ABV0@@Z$0:
  00000	8b 4d f0	 mov	 ecx, DWORD PTR _this$[ebp]
  00003	e9 00 00 00 00	 jmp	 ??1TiXmlVisitor@@UAE@XZ	; TiXmlVisitor::~TiXmlVisitor
__unwindfunclet$??0TiXmlPrinter@@QAE@ABV0@@Z$1:
  00008	8b 4d f0	 mov	 ecx, DWORD PTR _this$[ebp]
  0000b	83 c1 0c	 add	 ecx, 12			; 0000000cH
  0000e	e9 00 00 00 00	 jmp	 ??1TiXmlString@@QAE@XZ	; TiXmlString::~TiXmlString
__unwindfunclet$??0TiXmlPrinter@@QAE@ABV0@@Z$2:
  00013	8b 4d f0	 mov	 ecx, DWORD PTR _this$[ebp]
  00016	83 c1 10	 add	 ecx, 16			; 00000010H
  00019	e9 00 00 00 00	 jmp	 ??1TiXmlString@@QAE@XZ	; TiXmlString::~TiXmlString
  0001e	cc		 int	 3
  0001f	cc		 int	 3
  00020	cc		 int	 3
  00021	cc		 int	 3
  00022	cc		 int	 3
__ehhandler$??0TiXmlPrinter@@QAE@ABV0@@Z:
  00023	90		 npad	 1
  00024	90		 npad	 1
  00025	8b 54 24 08	 mov	 edx, DWORD PTR [esp+8]
  00029	8d 42 0c	 lea	 eax, DWORD PTR [edx+12]
  0002c	8b 4a f0	 mov	 ecx, DWORD PTR [edx-16]
  0002f	33 c8		 xor	 ecx, eax
  00031	e8 00 00 00 00	 call	 @__security_check_cookie@4
  00036	b8 00 00 00 00	 mov	 eax, OFFSET __ehfuncinfo$??0TiXmlPrinter@@QAE@ABV0@@Z
  0003b	e9 00 00 00 00	 jmp	 ___CxxFrameHandler3
text$x	ENDS
??0TiXmlPrinter@@QAE@ABV0@@Z ENDP			; TiXmlPrinter::TiXmlPrinter
; Function compile flags: /Ogtp
; File E:\Proyectos\JuegosOnlineproyectos\PB\pbblow\Piercing Blow Remake\i3Server\include\i3Base\tinystr.h
;	COMDAT ??1TiXmlPrinter@@UAE@XZ
_TEXT	SEGMENT
??1TiXmlPrinter@@UAE@XZ PROC				; TiXmlPrinter::~TiXmlPrinter, COMDAT
; _this$ = ecx

; 257  : 		if (rep_ != &nullrep_)

  00000	56		 push	 esi
  00001	8b f1		 mov	 esi, ecx
  00003	8b 46 14	 mov	 eax, DWORD PTR [esi+20]
  00006	3d 00 00 00 00	 cmp	 eax, OFFSET ?nullrep_@TiXmlString@@0URep@1@A ; TiXmlString::nullrep_
  0000b	74 09		 je	 SHORT $LN8@TiXmlPrint

; 258  : 		{
; 259  : 			// The rep_ is really an array of ints. (see the allocator, above).
; 260  : 			// Cast it back before delete, so the compiler won't incorrectly call destructors.
; 261  : 			delete [] ( reinterpret_cast<int*>( rep_ ) );

  0000d	50		 push	 eax
  0000e	e8 00 00 00 00	 call	 ??_V@YAXPAX@Z		; operator delete[]
  00013	83 c4 04	 add	 esp, 4
$LN8@TiXmlPrint:

; 257  : 		if (rep_ != &nullrep_)

  00016	8b 46 10	 mov	 eax, DWORD PTR [esi+16]
  00019	3d 00 00 00 00	 cmp	 eax, OFFSET ?nullrep_@TiXmlString@@0URep@1@A ; TiXmlString::nullrep_
  0001e	74 09		 je	 SHORT $LN14@TiXmlPrint

; 258  : 		{
; 259  : 			// The rep_ is really an array of ints. (see the allocator, above).
; 260  : 			// Cast it back before delete, so the compiler won't incorrectly call destructors.
; 261  : 			delete [] ( reinterpret_cast<int*>( rep_ ) );

  00020	50		 push	 eax
  00021	e8 00 00 00 00	 call	 ??_V@YAXPAX@Z		; operator delete[]
  00026	83 c4 04	 add	 esp, 4
$LN14@TiXmlPrint:

; 257  : 		if (rep_ != &nullrep_)

  00029	8b 46 0c	 mov	 eax, DWORD PTR [esi+12]
  0002c	3d 00 00 00 00	 cmp	 eax, OFFSET ?nullrep_@TiXmlString@@0URep@1@A ; TiXmlString::nullrep_
  00031	74 09		 je	 SHORT $LN22@TiXmlPrint

; 258  : 		{
; 259  : 			// The rep_ is really an array of ints. (see the allocator, above).
; 260  : 			// Cast it back before delete, so the compiler won't incorrectly call destructors.
; 261  : 			delete [] ( reinterpret_cast<int*>( rep_ ) );

  00033	50		 push	 eax
  00034	e8 00 00 00 00	 call	 ??_V@YAXPAX@Z		; operator delete[]
  00039	83 c4 04	 add	 esp, 4
$LN22@TiXmlPrint:
  0003c	c7 06 00 00 00
	00		 mov	 DWORD PTR [esi], OFFSET ??_7TiXmlVisitor@@6B@
  00042	5e		 pop	 esi
  00043	c3		 ret	 0
??1TiXmlPrinter@@UAE@XZ ENDP				; TiXmlPrinter::~TiXmlPrinter
_TEXT	ENDS
; Function compile flags: /Ogtp
; File E:\Proyectos\JuegosOnlineproyectos\PB\pbblow\Piercing Blow Remake\i3Server\include\i3Base\tinyxml.h
; File E:\Proyectos\JuegosOnlineproyectos\PB\pbblow\Piercing Blow Remake\i3Server\include\i3Base\tinystr.h
; File E:\Proyectos\JuegosOnlineproyectos\PB\pbblow\Piercing Blow Remake\i3Server\include\i3Base\tinyxml.h
; File E:\Proyectos\JuegosOnlineproyectos\PB\pbblow\Piercing Blow Remake\i3Server\include\i3Base\tinystr.h
; File E:\Proyectos\JuegosOnlineproyectos\PB\pbblow\Piercing Blow Remake\i3Server\include\i3Base\tinyxml.h
;	COMDAT ?DoLineBreak@TiXmlPrinter@@AAEXXZ
_TEXT	SEGMENT
?DoLineBreak@TiXmlPrinter@@AAEXXZ PROC			; TiXmlPrinter::DoLineBreak, COMDAT
; _this$ = ecx
; File E:\Proyectos\JuegosOnlineproyectos\PB\pbblow\Piercing Blow Remake\i3Server\include\i3Base\tinystr.h

; 150  : 	size_type length () const { return rep_->size; }

  00000	8b 41 14	 mov	 eax, DWORD PTR [ecx+20]
; File E:\Proyectos\JuegosOnlineproyectos\PB\pbblow\Piercing Blow Remake\i3Server\include\i3Base\tinyxml.h

; 1801 : 		buffer += lineBreak;

  00003	83 c1 0c	 add	 ecx, 12			; 0000000cH
; File E:\Proyectos\JuegosOnlineproyectos\PB\pbblow\Piercing Blow Remake\i3Server\include\i3Base\tinystr.h

; 139  : 		return append(suffix.data(), suffix.length());

  00006	ff 30		 push	 DWORD PTR [eax]

; 147  : 	const char * data () const { return rep_->str; }

  00008	83 c0 08	 add	 eax, 8

; 139  : 		return append(suffix.data(), suffix.length());

  0000b	50		 push	 eax
  0000c	e8 00 00 00 00	 call	 ?append@TiXmlString@@QAEAAV1@PBDI@Z ; TiXmlString::append
; File E:\Proyectos\JuegosOnlineproyectos\PB\pbblow\Piercing Blow Remake\i3Server\include\i3Base\tinyxml.h

; 1802 : 	}

  00011	c3		 ret	 0
?DoLineBreak@TiXmlPrinter@@AAEXXZ ENDP			; TiXmlPrinter::DoLineBreak
_TEXT	ENDS
; Function compile flags: /Ogtp
; File E:\Proyectos\JuegosOnlineproyectos\PB\pbblow\Piercing Blow Remake\i3Server\include\i3Base\tinyxml.h
; File E:\Proyectos\JuegosOnlineproyectos\PB\pbblow\Piercing Blow Remake\i3Server\include\i3Base\tinystr.h
; File E:\Proyectos\JuegosOnlineproyectos\PB\pbblow\Piercing Blow Remake\i3Server\include\i3Base\tinyxml.h
;	COMDAT ?DoIndent@TiXmlPrinter@@AAEXXZ
_TEXT	SEGMENT
?DoIndent@TiXmlPrinter@@AAEXXZ PROC			; TiXmlPrinter::DoIndent, COMDAT
; _this$ = ecx

; 1796 : 	void DoIndent()	{

  00000	56		 push	 esi
  00001	57		 push	 edi
  00002	8b f9		 mov	 edi, ecx

; 1797 : 		for( int i=0; i<depth; ++i )

  00004	33 f6		 xor	 esi, esi
  00006	39 77 04	 cmp	 DWORD PTR [edi+4], esi
  00009	7e 1d		 jle	 SHORT $LN3@DoIndent
  0000b	53		 push	 ebx
  0000c	8d 64 24 00	 npad	 4
$LL4@DoIndent:
; File E:\Proyectos\JuegosOnlineproyectos\PB\pbblow\Piercing Blow Remake\i3Server\include\i3Base\tinystr.h

; 150  : 	size_type length () const { return rep_->size; }

  00010	8b 47 10	 mov	 eax, DWORD PTR [edi+16]

; 139  : 		return append(suffix.data(), suffix.length());

  00013	8d 4f 0c	 lea	 ecx, DWORD PTR [edi+12]
  00016	ff 30		 push	 DWORD PTR [eax]

; 147  : 	const char * data () const { return rep_->str; }

  00018	83 c0 08	 add	 eax, 8

; 139  : 		return append(suffix.data(), suffix.length());

  0001b	50		 push	 eax
  0001c	e8 00 00 00 00	 call	 ?append@TiXmlString@@QAEAAV1@PBDI@Z ; TiXmlString::append
; File E:\Proyectos\JuegosOnlineproyectos\PB\pbblow\Piercing Blow Remake\i3Server\include\i3Base\tinyxml.h

; 1797 : 		for( int i=0; i<depth; ++i )

  00021	46		 inc	 esi
  00022	3b 77 04	 cmp	 esi, DWORD PTR [edi+4]
  00025	7c e9		 jl	 SHORT $LL4@DoIndent
  00027	5b		 pop	 ebx
$LN3@DoIndent:
  00028	5f		 pop	 edi

; 1798 : 			buffer += indent;
; 1799 : 	}

  00029	5e		 pop	 esi
  0002a	c3		 ret	 0
?DoIndent@TiXmlPrinter@@AAEXXZ ENDP			; TiXmlPrinter::DoIndent
_TEXT	ENDS
; Function compile flags: /Ogtp
; File E:\Proyectos\JuegosOnlineproyectos\PB\pbblow\Piercing Blow Remake\i3Server\include\i3Base\tinyxml.h
; File E:\Proyectos\JuegosOnlineproyectos\PB\pbblow\Piercing Blow Remake\i3Server\include\i3Base\tinystr.h
; File E:\Proyectos\JuegosOnlineproyectos\PB\pbblow\Piercing Blow Remake\i3Server\include\i3Base\tinyxml.h
;	COMDAT ?Size@TiXmlPrinter@@QAEIXZ
_TEXT	SEGMENT
?Size@TiXmlPrinter@@QAEIXZ PROC				; TiXmlPrinter::Size, COMDAT
; _this$ = ecx
; File E:\Proyectos\JuegosOnlineproyectos\PB\pbblow\Piercing Blow Remake\i3Server\include\i3Base\tinystr.h

; 153  : 	size_type size () const { return rep_->size; }

  00000	8b 41 0c	 mov	 eax, DWORD PTR [ecx+12]
; File E:\Proyectos\JuegosOnlineproyectos\PB\pbblow\Piercing Blow Remake\i3Server\include\i3Base\tinyxml.h

; 1788 : 	size_t Size()									{ return buffer.size(); }

  00003	8b 00		 mov	 eax, DWORD PTR [eax]
  00005	c3		 ret	 0
?Size@TiXmlPrinter@@QAEIXZ ENDP				; TiXmlPrinter::Size
_TEXT	ENDS
; Function compile flags: /Ogtp
; File E:\Proyectos\JuegosOnlineproyectos\PB\pbblow\Piercing Blow Remake\i3Server\include\i3Base\tinyxml.h
; File E:\Proyectos\JuegosOnlineproyectos\PB\pbblow\Piercing Blow Remake\i3Server\include\i3Base\tinystr.h
; File E:\Proyectos\JuegosOnlineproyectos\PB\pbblow\Piercing Blow Remake\i3Server\include\i3Base\tinyxml.h
;	COMDAT ?CStr@TiXmlPrinter@@QAEPBDXZ
_TEXT	SEGMENT
?CStr@TiXmlPrinter@@QAEPBDXZ PROC			; TiXmlPrinter::CStr, COMDAT
; _this$ = ecx
; File E:\Proyectos\JuegosOnlineproyectos\PB\pbblow\Piercing Blow Remake\i3Server\include\i3Base\tinystr.h

; 144  : 	const char * c_str () const { return rep_->str; }

  00000	8b 41 0c	 mov	 eax, DWORD PTR [ecx+12]
  00003	83 c0 08	 add	 eax, 8
; File E:\Proyectos\JuegosOnlineproyectos\PB\pbblow\Piercing Blow Remake\i3Server\include\i3Base\tinyxml.h

; 1786 : 	const char* CStr()								{ return buffer.c_str(); }

  00006	c3		 ret	 0
?CStr@TiXmlPrinter@@QAEPBDXZ ENDP			; TiXmlPrinter::CStr
_TEXT	ENDS
; Function compile flags: /Ogtp
; File E:\Proyectos\JuegosOnlineproyectos\PB\pbblow\Piercing Blow Remake\i3Server\include\i3Base\tinyxml.h
; File E:\Proyectos\JuegosOnlineproyectos\PB\pbblow\Piercing Blow Remake\i3Server\include\i3Base\tinystr.h
; File E:\Proyectos\JuegosOnlineproyectos\PB\pbblow\Piercing Blow Remake\i3Server\include\i3Base\tinyxml.h
; File E:\Proyectos\JuegosOnlineproyectos\PB\pbblow\Piercing Blow Remake\i3Server\include\i3Base\tinystr.h
; File E:\Proyectos\JuegosOnlineproyectos\PB\pbblow\Piercing Blow Remake\i3Server\include\i3Base\tinyxml.h
; File E:\Proyectos\JuegosOnlineproyectos\PB\pbblow\Piercing Blow Remake\i3Server\include\i3Base\tinystr.h
; File E:\Proyectos\JuegosOnlineproyectos\PB\pbblow\Piercing Blow Remake\i3Server\include\i3Base\tinyxml.h
;	COMDAT ?SetStreamPrinting@TiXmlPrinter@@QAEXXZ
_TEXT	SEGMENT
?SetStreamPrinting@TiXmlPrinter@@QAEXXZ PROC		; TiXmlPrinter::SetStreamPrinting, COMDAT
; _this$ = ecx

; 1782 : 	void SetStreamPrinting()						{ indent = "";

  00000	56		 push	 esi
  00001	8b f1		 mov	 esi, ecx
; File E:\Proyectos\JuegosOnlineproyectos\PB\pbblow\Piercing Blow Remake\i3Server\include\i3Base\tinystr.h

; 114  : 		return assign( copy, (size_type)strlen(copy));

  00003	6a 00		 push	 0
  00005	68 00 00 00 00	 push	 OFFSET ??_C@_00CNPNBAHC@@
; File E:\Proyectos\JuegosOnlineproyectos\PB\pbblow\Piercing Blow Remake\i3Server\include\i3Base\tinyxml.h

; 1782 : 	void SetStreamPrinting()						{ indent = "";

  0000a	8d 4e 10	 lea	 ecx, DWORD PTR [esi+16]
; File E:\Proyectos\JuegosOnlineproyectos\PB\pbblow\Piercing Blow Remake\i3Server\include\i3Base\tinystr.h

; 114  : 		return assign( copy, (size_type)strlen(copy));

  0000d	e8 00 00 00 00	 call	 ?assign@TiXmlString@@QAEAAV1@PBDI@Z ; TiXmlString::assign
  00012	6a 00		 push	 0
  00014	68 00 00 00 00	 push	 OFFSET ??_C@_00CNPNBAHC@@
; File E:\Proyectos\JuegosOnlineproyectos\PB\pbblow\Piercing Blow Remake\i3Server\include\i3Base\tinyxml.h

; 1783 : 													  lineBreak = "";

  00019	8d 4e 14	 lea	 ecx, DWORD PTR [esi+20]
; File E:\Proyectos\JuegosOnlineproyectos\PB\pbblow\Piercing Blow Remake\i3Server\include\i3Base\tinystr.h

; 114  : 		return assign( copy, (size_type)strlen(copy));

  0001c	e8 00 00 00 00	 call	 ?assign@TiXmlString@@QAEAAV1@PBDI@Z ; TiXmlString::assign
  00021	5e		 pop	 esi
; File E:\Proyectos\JuegosOnlineproyectos\PB\pbblow\Piercing Blow Remake\i3Server\include\i3Base\tinyxml.h

; 1784 : 													}	

  00022	c3		 ret	 0
?SetStreamPrinting@TiXmlPrinter@@QAEXXZ ENDP		; TiXmlPrinter::SetStreamPrinting
_TEXT	ENDS
; Function compile flags: /Ogtp
; File E:\Proyectos\JuegosOnlineproyectos\PB\pbblow\Piercing Blow Remake\i3Server\include\i3Base\tinyxml.h
; File E:\Proyectos\JuegosOnlineproyectos\PB\pbblow\Piercing Blow Remake\i3Server\include\i3Base\tinystr.h
; File E:\Proyectos\JuegosOnlineproyectos\PB\pbblow\Piercing Blow Remake\i3Server\include\i3Base\tinyxml.h
;	COMDAT ?LineBreak@TiXmlPrinter@@QAEPBDXZ
_TEXT	SEGMENT
?LineBreak@TiXmlPrinter@@QAEPBDXZ PROC			; TiXmlPrinter::LineBreak, COMDAT
; _this$ = ecx
; File E:\Proyectos\JuegosOnlineproyectos\PB\pbblow\Piercing Blow Remake\i3Server\include\i3Base\tinystr.h

; 144  : 	const char * c_str () const { return rep_->str; }

  00000	8b 41 14	 mov	 eax, DWORD PTR [ecx+20]
  00003	83 c0 08	 add	 eax, 8
; File E:\Proyectos\JuegosOnlineproyectos\PB\pbblow\Piercing Blow Remake\i3Server\include\i3Base\tinyxml.h

; 1777 : 	const char* LineBreak()							{ return lineBreak.c_str(); }

  00006	c3		 ret	 0
?LineBreak@TiXmlPrinter@@QAEPBDXZ ENDP			; TiXmlPrinter::LineBreak
_TEXT	ENDS
; Function compile flags: /Ogtp
; File E:\Proyectos\JuegosOnlineproyectos\PB\pbblow\Piercing Blow Remake\i3Server\include\i3Base\tinyxml.h
; File E:\Proyectos\JuegosOnlineproyectos\PB\pbblow\Piercing Blow Remake\i3Server\include\i3Base\tinystr.h
; File E:\Proyectos\JuegosOnlineproyectos\PB\pbblow\Piercing Blow Remake\i3Server\include\i3Base\tinyxml.h
; File E:\Proyectos\JuegosOnlineproyectos\PB\pbblow\Piercing Blow Remake\i3Server\include\i3Base\tinystr.h
; File E:\Proyectos\JuegosOnlineproyectos\PB\pbblow\Piercing Blow Remake\i3Server\include\i3Base\tinyxml.h
; File E:\Proyectos\JuegosOnlineproyectos\PB\pbblow\Piercing Blow Remake\i3Server\include\i3Base\tinystr.h
; File E:\Proyectos\JuegosOnlineproyectos\PB\pbblow\Piercing Blow Remake\i3Server\include\i3Base\tinyxml.h
;	COMDAT ?SetLineBreak@TiXmlPrinter@@QAEXPBD@Z
_TEXT	SEGMENT
__lineBreak$ = 8					; size = 4
?SetLineBreak@TiXmlPrinter@@QAEXPBD@Z PROC		; TiXmlPrinter::SetLineBreak, COMDAT
; _this$ = ecx

; 1775 : 	void SetLineBreak( const char* _lineBreak )		{ lineBreak = _lineBreak ? _lineBreak : ""; }

  00000	55		 push	 ebp
  00001	8b ec		 mov	 ebp, esp
  00003	8b 45 08	 mov	 eax, DWORD PTR __lineBreak$[ebp]
  00006	ba 00 00 00 00	 mov	 edx, OFFSET ??_C@_00CNPNBAHC@@
  0000b	85 c0		 test	 eax, eax
  0000d	56		 push	 esi
  0000e	0f 45 d0	 cmovne	 edx, eax
  00011	8b f1		 mov	 esi, ecx
; File E:\Proyectos\JuegosOnlineproyectos\PB\pbblow\Piercing Blow Remake\i3Server\include\i3Base\tinystr.h

; 114  : 		return assign( copy, (size_type)strlen(copy));

  00013	8b c2		 mov	 eax, edx
; File E:\Proyectos\JuegosOnlineproyectos\PB\pbblow\Piercing Blow Remake\i3Server\include\i3Base\tinyxml.h

; 1775 : 	void SetLineBreak( const char* _lineBreak )		{ lineBreak = _lineBreak ? _lineBreak : ""; }

  00015	57		 push	 edi
; File E:\Proyectos\JuegosOnlineproyectos\PB\pbblow\Piercing Blow Remake\i3Server\include\i3Base\tinystr.h

; 114  : 		return assign( copy, (size_type)strlen(copy));

  00016	8d 78 01	 lea	 edi, DWORD PTR [eax+1]
  00019	8d a4 24 00 00
	00 00		 npad	 7
$LL5@SetLineBre:
  00020	8a 08		 mov	 cl, BYTE PTR [eax]
  00022	40		 inc	 eax
  00023	84 c9		 test	 cl, cl
  00025	75 f9		 jne	 SHORT $LL5@SetLineBre
  00027	2b c7		 sub	 eax, edi
; File E:\Proyectos\JuegosOnlineproyectos\PB\pbblow\Piercing Blow Remake\i3Server\include\i3Base\tinyxml.h

; 1775 : 	void SetLineBreak( const char* _lineBreak )		{ lineBreak = _lineBreak ? _lineBreak : ""; }

  00029	8d 4e 14	 lea	 ecx, DWORD PTR [esi+20]
; File E:\Proyectos\JuegosOnlineproyectos\PB\pbblow\Piercing Blow Remake\i3Server\include\i3Base\tinystr.h

; 114  : 		return assign( copy, (size_type)strlen(copy));

  0002c	50		 push	 eax
  0002d	52		 push	 edx
  0002e	e8 00 00 00 00	 call	 ?assign@TiXmlString@@QAEAAV1@PBDI@Z ; TiXmlString::assign
  00033	5f		 pop	 edi
  00034	5e		 pop	 esi
; File E:\Proyectos\JuegosOnlineproyectos\PB\pbblow\Piercing Blow Remake\i3Server\include\i3Base\tinyxml.h

; 1775 : 	void SetLineBreak( const char* _lineBreak )		{ lineBreak = _lineBreak ? _lineBreak : ""; }

  00035	5d		 pop	 ebp
  00036	c2 04 00	 ret	 4
?SetLineBreak@TiXmlPrinter@@QAEXPBD@Z ENDP		; TiXmlPrinter::SetLineBreak
_TEXT	ENDS
; Function compile flags: /Ogtp
; File E:\Proyectos\JuegosOnlineproyectos\PB\pbblow\Piercing Blow Remake\i3Server\include\i3Base\tinyxml.h
; File E:\Proyectos\JuegosOnlineproyectos\PB\pbblow\Piercing Blow Remake\i3Server\include\i3Base\tinystr.h
; File E:\Proyectos\JuegosOnlineproyectos\PB\pbblow\Piercing Blow Remake\i3Server\include\i3Base\tinyxml.h
;	COMDAT ?Indent@TiXmlPrinter@@QAEPBDXZ
_TEXT	SEGMENT
?Indent@TiXmlPrinter@@QAEPBDXZ PROC			; TiXmlPrinter::Indent, COMDAT
; _this$ = ecx
; File E:\Proyectos\JuegosOnlineproyectos\PB\pbblow\Piercing Blow Remake\i3Server\include\i3Base\tinystr.h

; 144  : 	const char * c_str () const { return rep_->str; }

  00000	8b 41 10	 mov	 eax, DWORD PTR [ecx+16]
  00003	83 c0 08	 add	 eax, 8
; File E:\Proyectos\JuegosOnlineproyectos\PB\pbblow\Piercing Blow Remake\i3Server\include\i3Base\tinyxml.h

; 1770 : 	const char* Indent()							{ return indent.c_str(); }

  00006	c3		 ret	 0
?Indent@TiXmlPrinter@@QAEPBDXZ ENDP			; TiXmlPrinter::Indent
_TEXT	ENDS
; Function compile flags: /Ogtp
; File E:\Proyectos\JuegosOnlineproyectos\PB\pbblow\Piercing Blow Remake\i3Server\include\i3Base\tinyxml.h
; File E:\Proyectos\JuegosOnlineproyectos\PB\pbblow\Piercing Blow Remake\i3Server\include\i3Base\tinystr.h
; File E:\Proyectos\JuegosOnlineproyectos\PB\pbblow\Piercing Blow Remake\i3Server\include\i3Base\tinyxml.h
; File E:\Proyectos\JuegosOnlineproyectos\PB\pbblow\Piercing Blow Remake\i3Server\include\i3Base\tinystr.h
; File E:\Proyectos\JuegosOnlineproyectos\PB\pbblow\Piercing Blow Remake\i3Server\include\i3Base\tinyxml.h
; File E:\Proyectos\JuegosOnlineproyectos\PB\pbblow\Piercing Blow Remake\i3Server\include\i3Base\tinystr.h
; File E:\Proyectos\JuegosOnlineproyectos\PB\pbblow\Piercing Blow Remake\i3Server\include\i3Base\tinyxml.h
;	COMDAT ?SetIndent@TiXmlPrinter@@QAEXPBD@Z
_TEXT	SEGMENT
__indent$ = 8						; size = 4
?SetIndent@TiXmlPrinter@@QAEXPBD@Z PROC			; TiXmlPrinter::SetIndent, COMDAT
; _this$ = ecx

; 1768 : 	void SetIndent( const char* _indent )			{ indent = _indent ? _indent : "" ; }

  00000	55		 push	 ebp
  00001	8b ec		 mov	 ebp, esp
  00003	8b 45 08	 mov	 eax, DWORD PTR __indent$[ebp]
  00006	ba 00 00 00 00	 mov	 edx, OFFSET ??_C@_00CNPNBAHC@@
  0000b	85 c0		 test	 eax, eax
  0000d	56		 push	 esi
  0000e	0f 45 d0	 cmovne	 edx, eax
  00011	8b f1		 mov	 esi, ecx
; File E:\Proyectos\JuegosOnlineproyectos\PB\pbblow\Piercing Blow Remake\i3Server\include\i3Base\tinystr.h

; 114  : 		return assign( copy, (size_type)strlen(copy));

  00013	8b c2		 mov	 eax, edx
; File E:\Proyectos\JuegosOnlineproyectos\PB\pbblow\Piercing Blow Remake\i3Server\include\i3Base\tinyxml.h

; 1768 : 	void SetIndent( const char* _indent )			{ indent = _indent ? _indent : "" ; }

  00015	57		 push	 edi
; File E:\Proyectos\JuegosOnlineproyectos\PB\pbblow\Piercing Blow Remake\i3Server\include\i3Base\tinystr.h

; 114  : 		return assign( copy, (size_type)strlen(copy));

  00016	8d 78 01	 lea	 edi, DWORD PTR [eax+1]
  00019	8d a4 24 00 00
	00 00		 npad	 7
$LL5@SetIndent:
  00020	8a 08		 mov	 cl, BYTE PTR [eax]
  00022	40		 inc	 eax
  00023	84 c9		 test	 cl, cl
  00025	75 f9		 jne	 SHORT $LL5@SetIndent
  00027	2b c7		 sub	 eax, edi
; File E:\Proyectos\JuegosOnlineproyectos\PB\pbblow\Piercing Blow Remake\i3Server\include\i3Base\tinyxml.h

; 1768 : 	void SetIndent( const char* _indent )			{ indent = _indent ? _indent : "" ; }

  00029	8d 4e 10	 lea	 ecx, DWORD PTR [esi+16]
; File E:\Proyectos\JuegosOnlineproyectos\PB\pbblow\Piercing Blow Remake\i3Server\include\i3Base\tinystr.h

; 114  : 		return assign( copy, (size_type)strlen(copy));

  0002c	50		 push	 eax
  0002d	52		 push	 edx
  0002e	e8 00 00 00 00	 call	 ?assign@TiXmlString@@QAEAAV1@PBDI@Z ; TiXmlString::assign
  00033	5f		 pop	 edi
  00034	5e		 pop	 esi
; File E:\Proyectos\JuegosOnlineproyectos\PB\pbblow\Piercing Blow Remake\i3Server\include\i3Base\tinyxml.h

; 1768 : 	void SetIndent( const char* _indent )			{ indent = _indent ? _indent : "" ; }

  00035	5d		 pop	 ebp
  00036	c2 04 00	 ret	 4
?SetIndent@TiXmlPrinter@@QAEXPBD@Z ENDP			; TiXmlPrinter::SetIndent
_TEXT	ENDS
; Function compile flags: /Ogtp
; File E:\Proyectos\JuegosOnlineproyectos\PB\pbblow\Piercing Blow Remake\i3Server\include\i3Base\tinyxml.h
; File E:\Proyectos\JuegosOnlineproyectos\PB\pbblow\Piercing Blow Remake\i3Server\include\i3Base\tinystr.h
; File E:\Proyectos\JuegosOnlineproyectos\PB\pbblow\Piercing Blow Remake\i3Server\include\i3Base\tinyxml.h
; File E:\Proyectos\JuegosOnlineproyectos\PB\pbblow\Piercing Blow Remake\i3Server\include\i3Base\tinystr.h
; File E:\Proyectos\JuegosOnlineproyectos\PB\pbblow\Piercing Blow Remake\i3Server\include\i3Base\tinyxml.h
; File E:\Proyectos\JuegosOnlineproyectos\PB\pbblow\Piercing Blow Remake\i3Server\include\i3Base\tinystr.h
; File E:\Proyectos\JuegosOnlineproyectos\PB\pbblow\Piercing Blow Remake\i3Server\include\i3Base\tinyxml.h
;	COMDAT ??0TiXmlPrinter@@QAE@XZ
_TEXT	SEGMENT
_this$ = -16						; size = 4
__$EHRec$ = -12						; size = 12
??0TiXmlPrinter@@QAE@XZ PROC				; TiXmlPrinter::TiXmlPrinter, COMDAT
; _this$ = ecx

; 1752 : 					 buffer(), indent( "    " ), lineBreak( "\n" ) {}

  00000	55		 push	 ebp
  00001	8b ec		 mov	 ebp, esp
  00003	6a ff		 push	 -1
  00005	68 00 00 00 00	 push	 __ehhandler$??0TiXmlPrinter@@QAE@XZ
  0000a	64 a1 00 00 00
	00		 mov	 eax, DWORD PTR fs:0
  00010	50		 push	 eax
  00011	51		 push	 ecx
  00012	56		 push	 esi
  00013	a1 00 00 00 00	 mov	 eax, DWORD PTR ___security_cookie
  00018	33 c5		 xor	 eax, ebp
  0001a	50		 push	 eax
  0001b	8d 45 f4	 lea	 eax, DWORD PTR __$EHRec$[ebp]
  0001e	64 a3 00 00 00
	00		 mov	 DWORD PTR fs:0, eax
  00024	8b f1		 mov	 esi, ecx
  00026	89 75 f0	 mov	 DWORD PTR _this$[ebp], esi
  00029	c7 06 00 00 00
	00		 mov	 DWORD PTR [esi], OFFSET ??_7TiXmlPrinter@@6B@
  0002f	c7 46 04 00 00
	00 00		 mov	 DWORD PTR [esi+4], 0
  00036	c6 46 08 00	 mov	 BYTE PTR [esi+8], 0
  0003a	c7 45 fc 00 00
	00 00		 mov	 DWORD PTR __$EHRec$[ebp+8], 0
; File E:\Proyectos\JuegosOnlineproyectos\PB\pbblow\Piercing Blow Remake\i3Server\include\i3Base\tinystr.h

; 80   : 	TiXmlString () : rep_(&nullrep_)

  00041	c7 46 0c 00 00
	00 00		 mov	 DWORD PTR [esi+12], OFFSET ?nullrep_@TiXmlString@@0URep@1@A ; TiXmlString::nullrep_

; 244  : 			rep_ = reinterpret_cast<Rep*>( new int[ intsNeeded ] );

  00048	6a 10		 push	 16			; 00000010H
; File E:\Proyectos\JuegosOnlineproyectos\PB\pbblow\Piercing Blow Remake\i3Server\include\i3Base\tinyxml.h

; 1752 : 					 buffer(), indent( "    " ), lineBreak( "\n" ) {}

  0004a	c6 45 fc 01	 mov	 BYTE PTR __$EHRec$[ebp+8], 1
; File E:\Proyectos\JuegosOnlineproyectos\PB\pbblow\Piercing Blow Remake\i3Server\include\i3Base\tinystr.h

; 92   : 	TIXML_EXPLICIT TiXmlString ( const char * copy) : rep_(0)

  0004e	c7 46 10 00 00
	00 00		 mov	 DWORD PTR [esi+16], 0

; 244  : 			rep_ = reinterpret_cast<Rep*>( new int[ intsNeeded ] );

  00055	e8 00 00 00 00	 call	 ??_U@YAPAXI@Z		; operator new[]
  0005a	89 46 10	 mov	 DWORD PTR [esi+16], eax

; 245  : 
; 246  : 			rep_->str[ rep_->size = sz ] = '\0';

  0005d	c7 00 04 00 00
	00		 mov	 DWORD PTR [eax], 4
  00063	8b 46 10	 mov	 eax, DWORD PTR [esi+16]
  00066	c6 40 0c 00	 mov	 BYTE PTR [eax+12], 0

; 247  : 			rep_->capacity = cap;

  0006a	8b 46 10	 mov	 eax, DWORD PTR [esi+16]
  0006d	c7 40 04 04 00
	00 00		 mov	 DWORD PTR [eax+4], 4

; 150  : 	size_type length () const { return rep_->size; }

  00074	8b 46 10	 mov	 eax, DWORD PTR [esi+16]

; 95   : 		memcpy(start(), copy, length());

  00077	ff 30		 push	 DWORD PTR [eax]

; 224  : 	char* start() const { return rep_->str; }

  00079	83 c0 08	 add	 eax, 8

; 95   : 		memcpy(start(), copy, length());

  0007c	68 00 00 00 00	 push	 OFFSET ??_C@_04PFOHOKJK@?5?5?5?5@
  00081	50		 push	 eax
  00082	e8 00 00 00 00	 call	 _memcpy

; 244  : 			rep_ = reinterpret_cast<Rep*>( new int[ intsNeeded ] );

  00087	6a 10		 push	 16			; 00000010H
; File E:\Proyectos\JuegosOnlineproyectos\PB\pbblow\Piercing Blow Remake\i3Server\include\i3Base\tinyxml.h

; 1752 : 					 buffer(), indent( "    " ), lineBreak( "\n" ) {}

  00089	c6 45 fc 02	 mov	 BYTE PTR __$EHRec$[ebp+8], 2
; File E:\Proyectos\JuegosOnlineproyectos\PB\pbblow\Piercing Blow Remake\i3Server\include\i3Base\tinystr.h

; 92   : 	TIXML_EXPLICIT TiXmlString ( const char * copy) : rep_(0)

  0008d	c7 46 14 00 00
	00 00		 mov	 DWORD PTR [esi+20], 0

; 244  : 			rep_ = reinterpret_cast<Rep*>( new int[ intsNeeded ] );

  00094	e8 00 00 00 00	 call	 ??_U@YAPAXI@Z		; operator new[]
  00099	89 46 14	 mov	 DWORD PTR [esi+20], eax

; 245  : 
; 246  : 			rep_->str[ rep_->size = sz ] = '\0';

  0009c	c7 00 01 00 00
	00		 mov	 DWORD PTR [eax], 1
  000a2	8b 46 14	 mov	 eax, DWORD PTR [esi+20]
  000a5	c6 40 09 00	 mov	 BYTE PTR [eax+9], 0

; 247  : 			rep_->capacity = cap;

  000a9	8b 46 14	 mov	 eax, DWORD PTR [esi+20]
  000ac	c7 40 04 01 00
	00 00		 mov	 DWORD PTR [eax+4], 1

; 150  : 	size_type length () const { return rep_->size; }

  000b3	8b 46 14	 mov	 eax, DWORD PTR [esi+20]

; 95   : 		memcpy(start(), copy, length());

  000b6	ff 30		 push	 DWORD PTR [eax]

; 224  : 	char* start() const { return rep_->str; }

  000b8	83 c0 08	 add	 eax, 8

; 95   : 		memcpy(start(), copy, length());

  000bb	68 00 00 00 00	 push	 OFFSET ??_C@_01EEMJAFIK@?6@
  000c0	50		 push	 eax
  000c1	e8 00 00 00 00	 call	 _memcpy
  000c6	83 c4 20	 add	 esp, 32			; 00000020H
; File E:\Proyectos\JuegosOnlineproyectos\PB\pbblow\Piercing Blow Remake\i3Server\include\i3Base\tinyxml.h

; 1752 : 					 buffer(), indent( "    " ), lineBreak( "\n" ) {}

  000c9	8b c6		 mov	 eax, esi
  000cb	8b 4d f4	 mov	 ecx, DWORD PTR __$EHRec$[ebp]
  000ce	64 89 0d 00 00
	00 00		 mov	 DWORD PTR fs:0, ecx
  000d5	59		 pop	 ecx
  000d6	5e		 pop	 esi
  000d7	8b e5		 mov	 esp, ebp
  000d9	5d		 pop	 ebp
  000da	c3		 ret	 0
_TEXT	ENDS
;	COMDAT text$x
text$x	SEGMENT
__unwindfunclet$??0TiXmlPrinter@@QAE@XZ$0:
  00000	8b 4d f0	 mov	 ecx, DWORD PTR _this$[ebp]
  00003	e9 00 00 00 00	 jmp	 ??1TiXmlVisitor@@UAE@XZ	; TiXmlVisitor::~TiXmlVisitor
__unwindfunclet$??0TiXmlPrinter@@QAE@XZ$1:
  00008	8b 4d f0	 mov	 ecx, DWORD PTR _this$[ebp]
  0000b	83 c1 0c	 add	 ecx, 12			; 0000000cH
  0000e	e9 00 00 00 00	 jmp	 ??1TiXmlString@@QAE@XZ	; TiXmlString::~TiXmlString
__unwindfunclet$??0TiXmlPrinter@@QAE@XZ$2:
  00013	8b 4d f0	 mov	 ecx, DWORD PTR _this$[ebp]
  00016	83 c1 10	 add	 ecx, 16			; 00000010H
  00019	e9 00 00 00 00	 jmp	 ??1TiXmlString@@QAE@XZ	; TiXmlString::~TiXmlString
  0001e	cc		 int	 3
  0001f	cc		 int	 3
  00020	cc		 int	 3
  00021	cc		 int	 3
  00022	cc		 int	 3
__ehhandler$??0TiXmlPrinter@@QAE@XZ:
  00023	90		 npad	 1
  00024	90		 npad	 1
  00025	8b 54 24 08	 mov	 edx, DWORD PTR [esp+8]
  00029	8d 42 0c	 lea	 eax, DWORD PTR [edx+12]
  0002c	8b 4a f4	 mov	 ecx, DWORD PTR [edx-12]
  0002f	33 c8		 xor	 ecx, eax
  00031	e8 00 00 00 00	 call	 @__security_check_cookie@4
  00036	b8 00 00 00 00	 mov	 eax, OFFSET __ehfuncinfo$??0TiXmlPrinter@@QAE@XZ
  0003b	e9 00 00 00 00	 jmp	 ___CxxFrameHandler3
text$x	ENDS
??0TiXmlPrinter@@QAE@XZ ENDP				; TiXmlPrinter::TiXmlPrinter
; Function compile flags: /Ogtp
; File E:\Proyectos\JuegosOnlineproyectos\PB\pbblow\Piercing Blow Remake\i3Server\include\i3Base\tinyxml.h
;	COMDAT ?Unknown@TiXmlHandle@@QBEPAVTiXmlUnknown@@XZ
_TEXT	SEGMENT
?Unknown@TiXmlHandle@@QBEPAVTiXmlUnknown@@XZ PROC	; TiXmlHandle::Unknown, COMDAT
; _this$ = ecx

; 1722 : 	TiXmlUnknown* Unknown() const	{ return ToUnknown(); }

  00000	56		 push	 esi
  00001	8b f1		 mov	 esi, ecx

; 1705 : 	TiXmlUnknown* ToUnknown() const		{ return ( ( node && node->ToUnknown() ) ? node->ToUnknown() : 0 ); }

  00003	8b 0e		 mov	 ecx, DWORD PTR [esi]
  00005	85 c9		 test	 ecx, ecx
  00007	74 11		 je	 SHORT $LN5@Unknown
  00009	8b 01		 mov	 eax, DWORD PTR [ecx]
  0000b	ff 50 24	 call	 DWORD PTR [eax+36]
  0000e	85 c0		 test	 eax, eax
  00010	74 08		 je	 SHORT $LN5@Unknown
  00012	8b 0e		 mov	 ecx, DWORD PTR [esi]
  00014	5e		 pop	 esi
  00015	8b 01		 mov	 eax, DWORD PTR [ecx]
  00017	ff 60 24	 jmp	 DWORD PTR [eax+36]
$LN5@Unknown:

; 1722 : 	TiXmlUnknown* Unknown() const	{ return ToUnknown(); }

  0001a	33 c0		 xor	 eax, eax
  0001c	5e		 pop	 esi
  0001d	c3		 ret	 0
?Unknown@TiXmlHandle@@QBEPAVTiXmlUnknown@@XZ ENDP	; TiXmlHandle::Unknown
_TEXT	ENDS
; Function compile flags: /Ogtp
; File E:\Proyectos\JuegosOnlineproyectos\PB\pbblow\Piercing Blow Remake\i3Server\include\i3Base\tinyxml.h
;	COMDAT ?Text@TiXmlHandle@@QBEPAVTiXmlText@@XZ
_TEXT	SEGMENT
?Text@TiXmlHandle@@QBEPAVTiXmlText@@XZ PROC		; TiXmlHandle::Text, COMDAT
; _this$ = ecx

; 1718 : 	TiXmlText* Text() const			{ return ToText(); }

  00000	56		 push	 esi
  00001	8b f1		 mov	 esi, ecx

; 1702 : 	TiXmlText* ToText() const			{ return ( ( node && node->ToText() ) ? node->ToText() : 0 ); }

  00003	8b 0e		 mov	 ecx, DWORD PTR [esi]
  00005	85 c9		 test	 ecx, ecx
  00007	74 11		 je	 SHORT $LN5@Text
  00009	8b 01		 mov	 eax, DWORD PTR [ecx]
  0000b	ff 50 2c	 call	 DWORD PTR [eax+44]
  0000e	85 c0		 test	 eax, eax
  00010	74 08		 je	 SHORT $LN5@Text
  00012	8b 0e		 mov	 ecx, DWORD PTR [esi]
  00014	5e		 pop	 esi
  00015	8b 01		 mov	 eax, DWORD PTR [ecx]
  00017	ff 60 2c	 jmp	 DWORD PTR [eax+44]
$LN5@Text:

; 1718 : 	TiXmlText* Text() const			{ return ToText(); }

  0001a	33 c0		 xor	 eax, eax
  0001c	5e		 pop	 esi
  0001d	c3		 ret	 0
?Text@TiXmlHandle@@QBEPAVTiXmlText@@XZ ENDP		; TiXmlHandle::Text
_TEXT	ENDS
; Function compile flags: /Ogtp
; File E:\Proyectos\JuegosOnlineproyectos\PB\pbblow\Piercing Blow Remake\i3Server\include\i3Base\tinyxml.h
;	COMDAT ?Element@TiXmlHandle@@QBEPAVTiXmlElement@@XZ
_TEXT	SEGMENT
?Element@TiXmlHandle@@QBEPAVTiXmlElement@@XZ PROC	; TiXmlHandle::Element, COMDAT
; _this$ = ecx

; 1714 : 	TiXmlElement* Element() const	{ return ToElement(); }

  00000	56		 push	 esi
  00001	8b f1		 mov	 esi, ecx

; 1699 : 	TiXmlElement* ToElement() const		{ return ( ( node && node->ToElement() ) ? node->ToElement() : 0 ); }

  00003	8b 0e		 mov	 ecx, DWORD PTR [esi]
  00005	85 c9		 test	 ecx, ecx
  00007	74 11		 je	 SHORT $LN5@Element
  00009	8b 01		 mov	 eax, DWORD PTR [ecx]
  0000b	ff 50 14	 call	 DWORD PTR [eax+20]
  0000e	85 c0		 test	 eax, eax
  00010	74 08		 je	 SHORT $LN5@Element
  00012	8b 0e		 mov	 ecx, DWORD PTR [esi]
  00014	5e		 pop	 esi
  00015	8b 01		 mov	 eax, DWORD PTR [ecx]
  00017	ff 60 14	 jmp	 DWORD PTR [eax+20]
$LN5@Element:

; 1714 : 	TiXmlElement* Element() const	{ return ToElement(); }

  0001a	33 c0		 xor	 eax, eax
  0001c	5e		 pop	 esi
  0001d	c3		 ret	 0
?Element@TiXmlHandle@@QBEPAVTiXmlElement@@XZ ENDP	; TiXmlHandle::Element
_TEXT	ENDS
; Function compile flags: /Ogtp
; File E:\Proyectos\JuegosOnlineproyectos\PB\pbblow\Piercing Blow Remake\i3Server\include\i3Base\tinyxml.h
;	COMDAT ?Node@TiXmlHandle@@QBEPAVTiXmlNode@@XZ
_TEXT	SEGMENT
?Node@TiXmlHandle@@QBEPAVTiXmlNode@@XZ PROC		; TiXmlHandle::Node, COMDAT
; _this$ = ecx

; 1710 : 	TiXmlNode* Node() const			{ return ToNode(); } 

  00000	8b 01		 mov	 eax, DWORD PTR [ecx]
  00002	c3		 ret	 0
?Node@TiXmlHandle@@QBEPAVTiXmlNode@@XZ ENDP		; TiXmlHandle::Node
_TEXT	ENDS
; Function compile flags: /Ogtp
; File E:\Proyectos\JuegosOnlineproyectos\PB\pbblow\Piercing Blow Remake\i3Server\include\i3Base\tinyxml.h
;	COMDAT ?ToUnknown@TiXmlHandle@@QBEPAVTiXmlUnknown@@XZ
_TEXT	SEGMENT
?ToUnknown@TiXmlHandle@@QBEPAVTiXmlUnknown@@XZ PROC	; TiXmlHandle::ToUnknown, COMDAT
; _this$ = ecx

; 1705 : 	TiXmlUnknown* ToUnknown() const		{ return ( ( node && node->ToUnknown() ) ? node->ToUnknown() : 0 ); }

  00000	56		 push	 esi
  00001	8b f1		 mov	 esi, ecx
  00003	8b 0e		 mov	 ecx, DWORD PTR [esi]
  00005	85 c9		 test	 ecx, ecx
  00007	74 11		 je	 SHORT $LN3@ToUnknown
  00009	8b 01		 mov	 eax, DWORD PTR [ecx]
  0000b	ff 50 24	 call	 DWORD PTR [eax+36]
  0000e	85 c0		 test	 eax, eax
  00010	74 08		 je	 SHORT $LN3@ToUnknown
  00012	8b 0e		 mov	 ecx, DWORD PTR [esi]
  00014	5e		 pop	 esi
  00015	8b 01		 mov	 eax, DWORD PTR [ecx]
  00017	ff 60 24	 jmp	 DWORD PTR [eax+36]
$LN3@ToUnknown:
  0001a	33 c0		 xor	 eax, eax
  0001c	5e		 pop	 esi
  0001d	c3		 ret	 0
?ToUnknown@TiXmlHandle@@QBEPAVTiXmlUnknown@@XZ ENDP	; TiXmlHandle::ToUnknown
_TEXT	ENDS
; Function compile flags: /Ogtp
; File E:\Proyectos\JuegosOnlineproyectos\PB\pbblow\Piercing Blow Remake\i3Server\include\i3Base\tinyxml.h
;	COMDAT ?ToText@TiXmlHandle@@QBEPAVTiXmlText@@XZ
_TEXT	SEGMENT
?ToText@TiXmlHandle@@QBEPAVTiXmlText@@XZ PROC		; TiXmlHandle::ToText, COMDAT
; _this$ = ecx

; 1702 : 	TiXmlText* ToText() const			{ return ( ( node && node->ToText() ) ? node->ToText() : 0 ); }

  00000	56		 push	 esi
  00001	8b f1		 mov	 esi, ecx
  00003	8b 0e		 mov	 ecx, DWORD PTR [esi]
  00005	85 c9		 test	 ecx, ecx
  00007	74 11		 je	 SHORT $LN3@ToText
  00009	8b 01		 mov	 eax, DWORD PTR [ecx]
  0000b	ff 50 2c	 call	 DWORD PTR [eax+44]
  0000e	85 c0		 test	 eax, eax
  00010	74 08		 je	 SHORT $LN3@ToText
  00012	8b 0e		 mov	 ecx, DWORD PTR [esi]
  00014	5e		 pop	 esi
  00015	8b 01		 mov	 eax, DWORD PTR [ecx]
  00017	ff 60 2c	 jmp	 DWORD PTR [eax+44]
$LN3@ToText:
  0001a	33 c0		 xor	 eax, eax
  0001c	5e		 pop	 esi
  0001d	c3		 ret	 0
?ToText@TiXmlHandle@@QBEPAVTiXmlText@@XZ ENDP		; TiXmlHandle::ToText
_TEXT	ENDS
; Function compile flags: /Ogtp
; File E:\Proyectos\JuegosOnlineproyectos\PB\pbblow\Piercing Blow Remake\i3Server\include\i3Base\tinyxml.h
;	COMDAT ?ToElement@TiXmlHandle@@QBEPAVTiXmlElement@@XZ
_TEXT	SEGMENT
?ToElement@TiXmlHandle@@QBEPAVTiXmlElement@@XZ PROC	; TiXmlHandle::ToElement, COMDAT
; _this$ = ecx

; 1699 : 	TiXmlElement* ToElement() const		{ return ( ( node && node->ToElement() ) ? node->ToElement() : 0 ); }

  00000	56		 push	 esi
  00001	8b f1		 mov	 esi, ecx
  00003	8b 0e		 mov	 ecx, DWORD PTR [esi]
  00005	85 c9		 test	 ecx, ecx
  00007	74 11		 je	 SHORT $LN3@ToElement
  00009	8b 01		 mov	 eax, DWORD PTR [ecx]
  0000b	ff 50 14	 call	 DWORD PTR [eax+20]
  0000e	85 c0		 test	 eax, eax
  00010	74 08		 je	 SHORT $LN3@ToElement
  00012	8b 0e		 mov	 ecx, DWORD PTR [esi]
  00014	5e		 pop	 esi
  00015	8b 01		 mov	 eax, DWORD PTR [ecx]
  00017	ff 60 14	 jmp	 DWORD PTR [eax+20]
$LN3@ToElement:
  0001a	33 c0		 xor	 eax, eax
  0001c	5e		 pop	 esi
  0001d	c3		 ret	 0
?ToElement@TiXmlHandle@@QBEPAVTiXmlElement@@XZ ENDP	; TiXmlHandle::ToElement
_TEXT	ENDS
; Function compile flags: /Ogtp
; File E:\Proyectos\JuegosOnlineproyectos\PB\pbblow\Piercing Blow Remake\i3Server\include\i3Base\tinyxml.h
;	COMDAT ?ToNode@TiXmlHandle@@QBEPAVTiXmlNode@@XZ
_TEXT	SEGMENT
?ToNode@TiXmlHandle@@QBEPAVTiXmlNode@@XZ PROC		; TiXmlHandle::ToNode, COMDAT
; _this$ = ecx

; 1696 : 	TiXmlNode* ToNode() const			{ return node; } 

  00000	8b 01		 mov	 eax, DWORD PTR [ecx]
  00002	c3		 ret	 0
?ToNode@TiXmlHandle@@QBEPAVTiXmlNode@@XZ ENDP		; TiXmlHandle::ToNode
_TEXT	ENDS
; Function compile flags: /Ogtp
; File E:\Proyectos\JuegosOnlineproyectos\PB\pbblow\Piercing Blow Remake\i3Server\include\i3Base\tinyxml.h
;	COMDAT ??4TiXmlHandle@@QAE?AV0@ABV0@@Z
_TEXT	SEGMENT
___$ReturnUdt$ = 8					; size = 4
_ref$ = 12						; size = 4
??4TiXmlHandle@@QAE?AV0@ABV0@@Z PROC			; TiXmlHandle::operator=, COMDAT
; _this$ = ecx

; 1656 : 	TiXmlHandle operator=( const TiXmlHandle& ref ) { this->node = ref.node; return *this; }

  00000	55		 push	 ebp
  00001	8b ec		 mov	 ebp, esp
  00003	8b 45 0c	 mov	 eax, DWORD PTR _ref$[ebp]
  00006	8b 10		 mov	 edx, DWORD PTR [eax]

; 1655 : 	TiXmlHandle( const TiXmlHandle& ref )			{ this->node = ref.node; }

  00008	8b 45 08	 mov	 eax, DWORD PTR ___$ReturnUdt$[ebp]

; 1656 : 	TiXmlHandle operator=( const TiXmlHandle& ref ) { this->node = ref.node; return *this; }

  0000b	89 11		 mov	 DWORD PTR [ecx], edx

; 1655 : 	TiXmlHandle( const TiXmlHandle& ref )			{ this->node = ref.node; }

  0000d	89 10		 mov	 DWORD PTR [eax], edx

; 1656 : 	TiXmlHandle operator=( const TiXmlHandle& ref ) { this->node = ref.node; return *this; }

  0000f	5d		 pop	 ebp
  00010	c2 08 00	 ret	 8
??4TiXmlHandle@@QAE?AV0@ABV0@@Z ENDP			; TiXmlHandle::operator=
_TEXT	ENDS
; Function compile flags: /Ogtp
; File E:\Proyectos\JuegosOnlineproyectos\PB\pbblow\Piercing Blow Remake\i3Server\include\i3Base\tinyxml.h
;	COMDAT ??0TiXmlHandle@@QAE@ABV0@@Z
_TEXT	SEGMENT
_ref$ = 8						; size = 4
??0TiXmlHandle@@QAE@ABV0@@Z PROC			; TiXmlHandle::TiXmlHandle, COMDAT
; _this$ = ecx

; 1655 : 	TiXmlHandle( const TiXmlHandle& ref )			{ this->node = ref.node; }

  00000	55		 push	 ebp
  00001	8b ec		 mov	 ebp, esp
  00003	8b 45 08	 mov	 eax, DWORD PTR _ref$[ebp]
  00006	8b 00		 mov	 eax, DWORD PTR [eax]
  00008	89 01		 mov	 DWORD PTR [ecx], eax
  0000a	8b c1		 mov	 eax, ecx
  0000c	5d		 pop	 ebp
  0000d	c2 04 00	 ret	 4
??0TiXmlHandle@@QAE@ABV0@@Z ENDP			; TiXmlHandle::TiXmlHandle
_TEXT	ENDS
; Function compile flags: /Ogtp
; File E:\Proyectos\JuegosOnlineproyectos\PB\pbblow\Piercing Blow Remake\i3Server\include\i3Base\tinyxml.h
;	COMDAT ??0TiXmlHandle@@QAE@PAVTiXmlNode@@@Z
_TEXT	SEGMENT
__node$ = 8						; size = 4
??0TiXmlHandle@@QAE@PAVTiXmlNode@@@Z PROC		; TiXmlHandle::TiXmlHandle, COMDAT
; _this$ = ecx

; 1653 : 	TiXmlHandle( TiXmlNode* _node )					{ this->node = _node; }

  00000	55		 push	 ebp
  00001	8b ec		 mov	 ebp, esp
  00003	8b 45 08	 mov	 eax, DWORD PTR __node$[ebp]
  00006	89 01		 mov	 DWORD PTR [ecx], eax
  00008	8b c1		 mov	 eax, ecx
  0000a	5d		 pop	 ebp
  0000b	c2 04 00	 ret	 4
??0TiXmlHandle@@QAE@PAVTiXmlNode@@@Z ENDP		; TiXmlHandle::TiXmlHandle
_TEXT	ENDS
; Function compile flags: /Ogtp
; File E:\Proyectos\JuegosOnlineproyectos\PB\pbblow\Piercing Blow Remake\i3Server\include\i3Base\tinyxml.h
; File E:\Proyectos\JuegosOnlineproyectos\PB\pbblow\Piercing Blow Remake\i3Server\include\i3Base\tinystr.h
; File E:\Proyectos\JuegosOnlineproyectos\PB\pbblow\Piercing Blow Remake\i3Server\include\i3Base\tinyxml.h
;	COMDAT ??_ETiXmlDocument@@UAEPAXI@Z
_TEXT	SEGMENT
__$EHRec$ = -12						; size = 12
___flags$ = 8						; size = 4
??_ETiXmlDocument@@UAEPAXI@Z PROC			; TiXmlDocument::`vector deleting destructor', COMDAT
; _this$ = ecx
  00000	55		 push	 ebp
  00001	8b ec		 mov	 ebp, esp
  00003	6a ff		 push	 -1
  00005	68 00 00 00 00	 push	 __ehhandler$??_ETiXmlDocument@@UAEPAXI@Z
  0000a	64 a1 00 00 00
	00		 mov	 eax, DWORD PTR fs:0
  00010	50		 push	 eax
  00011	53		 push	 ebx
  00012	56		 push	 esi
  00013	57		 push	 edi
  00014	a1 00 00 00 00	 mov	 eax, DWORD PTR ___security_cookie
  00019	33 c5		 xor	 eax, ebp
  0001b	50		 push	 eax
  0001c	8d 45 f4	 lea	 eax, DWORD PTR __$EHRec$[ebp]
  0001f	64 a3 00 00 00
	00		 mov	 DWORD PTR fs:0, eax
  00025	8b f1		 mov	 esi, ecx
  00027	8b 5d 08	 mov	 ebx, DWORD PTR ___flags$[ebp]
  0002a	f6 c3 02	 test	 bl, 2
  0002d	74 3e		 je	 SHORT $LN2@vector
  0002f	68 00 00 00 00	 push	 OFFSET ??1TiXmlDocument@@UAE@XZ ; TiXmlDocument::~TiXmlDocument
  00034	ff 76 fc	 push	 DWORD PTR [esi-4]
  00037	8d 7e fc	 lea	 edi, DWORD PTR [esi-4]
  0003a	6a 4c		 push	 76			; 0000004cH
  0003c	56		 push	 esi
  0003d	e8 00 00 00 00	 call	 ??_M@YGXPAXIIP6EX0@Z@Z
  00042	f6 c3 01	 test	 bl, 1
  00045	74 10		 je	 SHORT $LN3@vector
  00047	6b 0f 4c	 imul	 ecx, DWORD PTR [edi], 76
  0004a	83 c1 04	 add	 ecx, 4
  0004d	51		 push	 ecx
  0004e	57		 push	 edi
  0004f	e8 00 00 00 00	 call	 ??_V@YAXPAXI@Z		; operator delete[]
  00054	83 c4 08	 add	 esp, 8
$LN3@vector:
  00057	8b c7		 mov	 eax, edi
  00059	8b 4d f4	 mov	 ecx, DWORD PTR __$EHRec$[ebp]
  0005c	64 89 0d 00 00
	00 00		 mov	 DWORD PTR fs:0, ecx
  00063	59		 pop	 ecx
  00064	5f		 pop	 edi
  00065	5e		 pop	 esi
  00066	5b		 pop	 ebx
  00067	8b e5		 mov	 esp, ebp
  00069	5d		 pop	 ebp
  0006a	c2 04 00	 ret	 4
$LN2@vector:

; 1411 : 	virtual ~TiXmlDocument() {}

  0006d	c7 06 00 00 00
	00		 mov	 DWORD PTR [esi], OFFSET ??_7TiXmlDocument@@6B@
; File E:\Proyectos\JuegosOnlineproyectos\PB\pbblow\Piercing Blow Remake\i3Server\include\i3Base\tinystr.h

; 257  : 		if (rep_ != &nullrep_)

  00073	8b 46 34	 mov	 eax, DWORD PTR [esi+52]
  00076	3d 00 00 00 00	 cmp	 eax, OFFSET ?nullrep_@TiXmlString@@0URep@1@A ; TiXmlString::nullrep_
  0007b	74 09		 je	 SHORT $LN16@vector

; 258  : 		{
; 259  : 			// The rep_ is really an array of ints. (see the allocator, above).
; 260  : 			// Cast it back before delete, so the compiler won't incorrectly call destructors.
; 261  : 			delete [] ( reinterpret_cast<int*>( rep_ ) );

  0007d	50		 push	 eax
  0007e	e8 00 00 00 00	 call	 ??_V@YAXPAX@Z		; operator delete[]
  00083	83 c4 04	 add	 esp, 4
$LN16@vector:
; File E:\Proyectos\JuegosOnlineproyectos\PB\pbblow\Piercing Blow Remake\i3Server\include\i3Base\tinyxml.h

; 1411 : 	virtual ~TiXmlDocument() {}

  00086	8b ce		 mov	 ecx, esi
  00088	e8 00 00 00 00	 call	 ??1TiXmlNode@@UAE@XZ	; TiXmlNode::~TiXmlNode
  0008d	f6 c3 01	 test	 bl, 1
  00090	74 0b		 je	 SHORT $LN4@vector
  00092	6a 4c		 push	 76			; 0000004cH
  00094	56		 push	 esi
  00095	e8 00 00 00 00	 call	 ??3@YAXPAXI@Z		; operator delete
  0009a	83 c4 08	 add	 esp, 8
$LN4@vector:
  0009d	8b c6		 mov	 eax, esi
  0009f	8b 4d f4	 mov	 ecx, DWORD PTR __$EHRec$[ebp]
  000a2	64 89 0d 00 00
	00 00		 mov	 DWORD PTR fs:0, ecx
  000a9	59		 pop	 ecx
  000aa	5f		 pop	 edi
  000ab	5e		 pop	 esi
  000ac	5b		 pop	 ebx
  000ad	8b e5		 mov	 esp, ebp
  000af	5d		 pop	 ebp
  000b0	c2 04 00	 ret	 4
  000b3	cc		 int	 3
  000b4	cc		 int	 3
  000b5	cc		 int	 3
  000b6	cc		 int	 3
  000b7	cc		 int	 3
_TEXT	ENDS
;	COMDAT text$x
text$x	SEGMENT
__ehhandler$??_ETiXmlDocument@@UAEPAXI@Z:
  00000	90		 npad	 1
  00001	90		 npad	 1
  00002	8b 54 24 08	 mov	 edx, DWORD PTR [esp+8]
  00006	8d 42 0c	 lea	 eax, DWORD PTR [edx+12]
  00009	8b 4a f0	 mov	 ecx, DWORD PTR [edx-16]
  0000c	33 c8		 xor	 ecx, eax
  0000e	e8 00 00 00 00	 call	 @__security_check_cookie@4
  00013	b8 00 00 00 00	 mov	 eax, OFFSET __ehfuncinfo$??_ETiXmlDocument@@UAEPAXI@Z
  00018	e9 00 00 00 00	 jmp	 ___CxxFrameHandler3
text$x	ENDS
??_ETiXmlDocument@@UAEPAXI@Z ENDP			; TiXmlDocument::`vector deleting destructor'
; Function compile flags: /Ogtp
; File E:\Proyectos\JuegosOnlineproyectos\PB\pbblow\Piercing Blow Remake\i3Server\include\i3Base\tinyxml.h
; File E:\Proyectos\JuegosOnlineproyectos\PB\pbblow\Piercing Blow Remake\i3Server\include\i3Base\tinystr.h
; File E:\Proyectos\JuegosOnlineproyectos\PB\pbblow\Piercing Blow Remake\i3Server\include\i3Base\tinyxml.h
;	COMDAT ??_GTiXmlDocument@@UAEPAXI@Z
_TEXT	SEGMENT
___flags$ = 8						; size = 4
??_GTiXmlDocument@@UAEPAXI@Z PROC			; TiXmlDocument::`scalar deleting destructor', COMDAT
; _this$ = ecx
  00000	55		 push	 ebp
  00001	8b ec		 mov	 ebp, esp

; 1411 : 	virtual ~TiXmlDocument() {}

  00003	56		 push	 esi
  00004	8b f1		 mov	 esi, ecx
  00006	c7 06 00 00 00
	00		 mov	 DWORD PTR [esi], OFFSET ??_7TiXmlDocument@@6B@
; File E:\Proyectos\JuegosOnlineproyectos\PB\pbblow\Piercing Blow Remake\i3Server\include\i3Base\tinystr.h

; 257  : 		if (rep_ != &nullrep_)

  0000c	8b 46 34	 mov	 eax, DWORD PTR [esi+52]
  0000f	3d 00 00 00 00	 cmp	 eax, OFFSET ?nullrep_@TiXmlString@@0URep@1@A ; TiXmlString::nullrep_
  00014	74 09		 je	 SHORT $LN14@scalar

; 258  : 		{
; 259  : 			// The rep_ is really an array of ints. (see the allocator, above).
; 260  : 			// Cast it back before delete, so the compiler won't incorrectly call destructors.
; 261  : 			delete [] ( reinterpret_cast<int*>( rep_ ) );

  00016	50		 push	 eax
  00017	e8 00 00 00 00	 call	 ??_V@YAXPAX@Z		; operator delete[]
  0001c	83 c4 04	 add	 esp, 4
$LN14@scalar:
; File E:\Proyectos\JuegosOnlineproyectos\PB\pbblow\Piercing Blow Remake\i3Server\include\i3Base\tinyxml.h

; 1411 : 	virtual ~TiXmlDocument() {}

  0001f	8b ce		 mov	 ecx, esi
  00021	e8 00 00 00 00	 call	 ??1TiXmlNode@@UAE@XZ	; TiXmlNode::~TiXmlNode
  00026	f6 45 08 01	 test	 BYTE PTR ___flags$[ebp], 1
  0002a	74 0b		 je	 SHORT $LN16@scalar
  0002c	6a 4c		 push	 76			; 0000004cH
  0002e	56		 push	 esi
  0002f	e8 00 00 00 00	 call	 ??3@YAXPAXI@Z		; operator delete
  00034	83 c4 08	 add	 esp, 8
$LN16@scalar:
  00037	8b c6		 mov	 eax, esi
  00039	5e		 pop	 esi
  0003a	5d		 pop	 ebp
  0003b	c2 04 00	 ret	 4
??_GTiXmlDocument@@UAEPAXI@Z ENDP			; TiXmlDocument::`scalar deleting destructor'
_TEXT	ENDS
; Function compile flags: /Ogtp
; File E:\Proyectos\JuegosOnlineproyectos\PB\pbblow\Piercing Blow Remake\i3Server\include\i3Base\tinyxml.h
;	COMDAT ?GetSize@TiXmlDocument@@QAEIXZ
_TEXT	SEGMENT
?GetSize@TiXmlDocument@@QAEIXZ PROC			; TiXmlDocument::GetSize, COMDAT
; _this$ = ecx

; 1546 : 	UINT32 GetSize(void)		{ return fileSize;		}

  00000	8b 41 48	 mov	 eax, DWORD PTR [ecx+72]
  00003	c3		 ret	 0
?GetSize@TiXmlDocument@@QAEIXZ ENDP			; TiXmlDocument::GetSize
_TEXT	ENDS
; Function compile flags: /Ogtp
; File E:\Proyectos\JuegosOnlineproyectos\PB\pbblow\Piercing Blow Remake\i3Server\include\i3Base\tinyxml.h
;	COMDAT ?ToDocument@TiXmlDocument@@UAEPAV1@XZ
_TEXT	SEGMENT
?ToDocument@TiXmlDocument@@UAEPAV1@XZ PROC		; TiXmlDocument::ToDocument, COMDAT
; _this$ = ecx

; 1539 : 	virtual TiXmlDocument*          ToDocument()          { return this; } ///< Cast to a more defined type. Will return null not of the requested type.

  00000	8b c1		 mov	 eax, ecx
  00002	c3		 ret	 0
?ToDocument@TiXmlDocument@@UAEPAV1@XZ ENDP		; TiXmlDocument::ToDocument
_TEXT	ENDS
; Function compile flags: /Ogtp
; File E:\Proyectos\JuegosOnlineproyectos\PB\pbblow\Piercing Blow Remake\i3Server\include\i3Base\tinyxml.h
;	COMDAT ?ToDocument@TiXmlDocument@@UBEPBV1@XZ
_TEXT	SEGMENT
?ToDocument@TiXmlDocument@@UBEPBV1@XZ PROC		; TiXmlDocument::ToDocument, COMDAT
; _this$ = ecx

; 1538 : 	virtual const TiXmlDocument*    ToDocument()    const { return this; } ///< Cast to a more defined type. Will return null not of the requested type.

  00000	8b c1		 mov	 eax, ecx
  00002	c3		 ret	 0
?ToDocument@TiXmlDocument@@UBEPBV1@XZ ENDP		; TiXmlDocument::ToDocument
_TEXT	ENDS
; Function compile flags: /Ogtp
; File E:\Proyectos\JuegosOnlineproyectos\PB\pbblow\Piercing Blow Remake\i3Server\src\i3Base\tinyxmlparser.cpp
; File E:\Proyectos\JuegosOnlineproyectos\PB\pbblow\Piercing Blow Remake\i3Server\include\i3Base\tinystr.h
; File E:\Proyectos\JuegosOnlineproyectos\PB\pbblow\Piercing Blow Remake\i3Server\src\i3Base\tinyxmlparser.cpp
; File E:\Proyectos\JuegosOnlineproyectos\PB\pbblow\Piercing Blow Remake\i3Server\include\i3Base\tinystr.h
; File E:\Proyectos\JuegosOnlineproyectos\PB\pbblow\Piercing Blow Remake\i3Server\src\i3Base\tinyxmlparser.cpp
; File E:\Proyectos\JuegosOnlineproyectos\PB\pbblow\Piercing Blow Remake\i3Server\include\i3Base\tinyxml.h
; File E:\Proyectos\JuegosOnlineproyectos\PB\pbblow\Piercing Blow Remake\i3Server\src\i3Base\tinyxmlparser.cpp
;	COMDAT ?SetError@TiXmlDocument@@QAEXHPBDPAVTiXmlParsingData@@W4TiXmlEncoding@@@Z
_TEXT	SEGMENT
_err$ = 8						; size = 4
_pError$ = 12						; size = 4
_data$ = 16						; size = 4
_encoding$ = 20						; size = 4
?SetError@TiXmlDocument@@QAEXHPBDPAVTiXmlParsingData@@W4TiXmlEncoding@@@Z PROC ; TiXmlDocument::SetError, COMDAT
; _this$ = ecx

; 803  : {	

  00000	55		 push	 ebp
  00001	8b ec		 mov	 ebp, esp
  00003	56		 push	 esi
  00004	8b f1		 mov	 esi, ecx

; 804  : 	// The first error in a chain is more accurate - don't set again!
; 805  : 	if ( error )

  00006	80 7e 2c 00	 cmp	 BYTE PTR [esi+44], 0
  0000a	75 5d		 jne	 SHORT $LN3@SetError

; 806  : 		return;
; 807  : 
; 808  : 	I3ASSERT( err > 0 && err < TIXML_ERROR_STRING_COUNT );
; 809  : 	error   = true;
; 810  : 	errorId = err;

  0000c	8b 45 08	 mov	 eax, DWORD PTR _err$[ebp]
  0000f	89 46 30	 mov	 DWORD PTR [esi+48], eax
  00012	c6 46 2c 01	 mov	 BYTE PTR [esi+44], 1
  00016	57		 push	 edi

; 811  : 	errorDesc = errorString[ errorId ];

  00017	8b 14 85 00 00
	00 00		 mov	 edx, DWORD PTR ?errorString@TiXmlBase@@1PAPBDA[eax*4]
; File E:\Proyectos\JuegosOnlineproyectos\PB\pbblow\Piercing Blow Remake\i3Server\include\i3Base\tinystr.h

; 114  : 		return assign( copy, (size_type)strlen(copy));

  0001e	8b c2		 mov	 eax, edx
  00020	8d 78 01	 lea	 edi, DWORD PTR [eax+1]
$LL11@SetError:
  00023	8a 08		 mov	 cl, BYTE PTR [eax]
  00025	40		 inc	 eax
  00026	84 c9		 test	 cl, cl
  00028	75 f9		 jne	 SHORT $LL11@SetError
  0002a	2b c7		 sub	 eax, edi
; File E:\Proyectos\JuegosOnlineproyectos\PB\pbblow\Piercing Blow Remake\i3Server\src\i3Base\tinyxmlparser.cpp

; 811  : 	errorDesc = errorString[ errorId ];

  0002c	8d 4e 34	 lea	 ecx, DWORD PTR [esi+52]
; File E:\Proyectos\JuegosOnlineproyectos\PB\pbblow\Piercing Blow Remake\i3Server\include\i3Base\tinystr.h

; 114  : 		return assign( copy, (size_type)strlen(copy));

  0002f	50		 push	 eax
  00030	52		 push	 edx
  00031	e8 00 00 00 00	 call	 ?assign@TiXmlString@@QAEAAV1@PBDI@Z ; TiXmlString::assign
; File E:\Proyectos\JuegosOnlineproyectos\PB\pbblow\Piercing Blow Remake\i3Server\src\i3Base\tinyxmlparser.cpp

; 814  : 	if ( pError && data )

  00036	8b 45 0c	 mov	 eax, DWORD PTR _pError$[ebp]
; File E:\Proyectos\JuegosOnlineproyectos\PB\pbblow\Piercing Blow Remake\i3Server\include\i3Base\tinyxml.h

; 107  : 	void Clear()		{ row = col = -1; }

  00039	c7 46 40 ff ff
	ff ff		 mov	 DWORD PTR [esi+64], -1
  00040	c7 46 3c ff ff
	ff ff		 mov	 DWORD PTR [esi+60], -1
; File E:\Proyectos\JuegosOnlineproyectos\PB\pbblow\Piercing Blow Remake\i3Server\src\i3Base\tinyxmlparser.cpp

; 814  : 	if ( pError && data )

  00047	85 c0		 test	 eax, eax
  00049	74 1d		 je	 SHORT $LN16@SetError
  0004b	8b 7d 10	 mov	 edi, DWORD PTR _data$[ebp]
  0004e	85 ff		 test	 edi, edi
  00050	74 16		 je	 SHORT $LN16@SetError

; 815  : 	{
; 816  : 		data->Stamp( pError, encoding );

  00052	ff 75 14	 push	 DWORD PTR _encoding$[ebp]
  00055	8b cf		 mov	 ecx, edi
  00057	50		 push	 eax
  00058	e8 00 00 00 00	 call	 ?Stamp@TiXmlParsingData@@QAEXPBDW4TiXmlEncoding@@@Z ; TiXmlParsingData::Stamp

; 817  : 		errorLocation = data->Cursor();

  0005d	8b 07		 mov	 eax, DWORD PTR [edi]
  0005f	8b 4f 04	 mov	 ecx, DWORD PTR [edi+4]
  00062	89 46 3c	 mov	 DWORD PTR [esi+60], eax
  00065	89 4e 40	 mov	 DWORD PTR [esi+64], ecx
$LN16@SetError:
  00068	5f		 pop	 edi
$LN3@SetError:
  00069	5e		 pop	 esi

; 818  : 	}
; 819  : }

  0006a	5d		 pop	 ebp
  0006b	c2 10 00	 ret	 16			; 00000010H
?SetError@TiXmlDocument@@QAEXHPBDPAVTiXmlParsingData@@W4TiXmlEncoding@@@Z ENDP ; TiXmlDocument::SetError
_TEXT	ENDS
; Function compile flags: /Ogtp
; File E:\Proyectos\JuegosOnlineproyectos\PB\pbblow\Piercing Blow Remake\i3Server\include\i3Base\tinyxml.h
; File E:\Proyectos\JuegosOnlineproyectos\PB\pbblow\Piercing Blow Remake\i3Server\include\i3Base\tinystr.h
; File E:\Proyectos\JuegosOnlineproyectos\PB\pbblow\Piercing Blow Remake\i3Server\include\i3Base\tinyxml.h
; File E:\Proyectos\JuegosOnlineproyectos\PB\pbblow\Piercing Blow Remake\i3Server\include\i3Base\tinystr.h
; File E:\Proyectos\JuegosOnlineproyectos\PB\pbblow\Piercing Blow Remake\i3Server\include\i3Base\tinyxml.h
;	COMDAT ?ClearError@TiXmlDocument@@QAEXXZ
_TEXT	SEGMENT
?ClearError@TiXmlDocument@@QAEXXZ PROC			; TiXmlDocument::ClearError, COMDAT
; _this$ = ecx

; 1517 : 	void ClearError()						{	error = false; 

  00000	56		 push	 esi
  00001	8b f1		 mov	 esi, ecx
; File E:\Proyectos\JuegosOnlineproyectos\PB\pbblow\Piercing Blow Remake\i3Server\include\i3Base\tinystr.h

; 114  : 		return assign( copy, (size_type)strlen(copy));

  00003	6a 00		 push	 0
  00005	68 00 00 00 00	 push	 OFFSET ??_C@_00CNPNBAHC@@
; File E:\Proyectos\JuegosOnlineproyectos\PB\pbblow\Piercing Blow Remake\i3Server\include\i3Base\tinyxml.h

; 1519 : 												errorDesc = ""; 

  0000a	8d 4e 34	 lea	 ecx, DWORD PTR [esi+52]
  0000d	c6 46 2c 00	 mov	 BYTE PTR [esi+44], 0
  00011	c7 46 30 00 00
	00 00		 mov	 DWORD PTR [esi+48], 0
; File E:\Proyectos\JuegosOnlineproyectos\PB\pbblow\Piercing Blow Remake\i3Server\include\i3Base\tinystr.h

; 114  : 		return assign( copy, (size_type)strlen(copy));

  00018	e8 00 00 00 00	 call	 ?assign@TiXmlString@@QAEAAV1@PBDI@Z ; TiXmlString::assign
; File E:\Proyectos\JuegosOnlineproyectos\PB\pbblow\Piercing Blow Remake\i3Server\include\i3Base\tinyxml.h

; 1520 : 												errorLocation.row = errorLocation.col = 0; 

  0001d	c7 46 40 00 00
	00 00		 mov	 DWORD PTR [esi+64], 0
  00024	c7 46 3c 00 00
	00 00		 mov	 DWORD PTR [esi+60], 0
  0002b	5e		 pop	 esi

; 1521 : 												//errorLocation.last = 0; 
; 1522 : 											}

  0002c	c3		 ret	 0
?ClearError@TiXmlDocument@@QAEXXZ ENDP			; TiXmlDocument::ClearError
_TEXT	ENDS
; Function compile flags: /Ogtp
; File E:\Proyectos\JuegosOnlineproyectos\PB\pbblow\Piercing Blow Remake\i3Server\include\i3Base\tinyxml.h
;	COMDAT ?TabSize@TiXmlDocument@@QBEHXZ
_TEXT	SEGMENT
?TabSize@TiXmlDocument@@QBEHXZ PROC			; TiXmlDocument::TabSize, COMDAT
; _this$ = ecx

; 1512 : 	int TabSize() const	{ return tabsize; }

  00000	8b 41 38	 mov	 eax, DWORD PTR [ecx+56]
  00003	c3		 ret	 0
?TabSize@TiXmlDocument@@QBEHXZ ENDP			; TiXmlDocument::TabSize
_TEXT	ENDS
; Function compile flags: /Ogtp
; File E:\Proyectos\JuegosOnlineproyectos\PB\pbblow\Piercing Blow Remake\i3Server\include\i3Base\tinyxml.h
;	COMDAT ?SetTabSize@TiXmlDocument@@QAEXH@Z
_TEXT	SEGMENT
__tabsize$ = 8						; size = 4
?SetTabSize@TiXmlDocument@@QAEXH@Z PROC			; TiXmlDocument::SetTabSize, COMDAT
; _this$ = ecx

; 1510 : 	void SetTabSize( int _tabsize )		{ tabsize = _tabsize; }

  00000	55		 push	 ebp
  00001	8b ec		 mov	 ebp, esp
  00003	8b 45 08	 mov	 eax, DWORD PTR __tabsize$[ebp]
  00006	89 41 38	 mov	 DWORD PTR [ecx+56], eax
  00009	5d		 pop	 ebp
  0000a	c2 04 00	 ret	 4
?SetTabSize@TiXmlDocument@@QAEXH@Z ENDP			; TiXmlDocument::SetTabSize
_TEXT	ENDS
; Function compile flags: /Ogtp
; File E:\Proyectos\JuegosOnlineproyectos\PB\pbblow\Piercing Blow Remake\i3Server\include\i3Base\tinyxml.h
;	COMDAT ?ErrorCol@TiXmlDocument@@QBEHXZ
_TEXT	SEGMENT
?ErrorCol@TiXmlDocument@@QBEHXZ PROC			; TiXmlDocument::ErrorCol, COMDAT
; _this$ = ecx

; 1484 : 	int ErrorCol() const	{ return errorLocation.col+1; }	///< The column where the error occured. See ErrorRow()

  00000	8b 41 40	 mov	 eax, DWORD PTR [ecx+64]
  00003	40		 inc	 eax
  00004	c3		 ret	 0
?ErrorCol@TiXmlDocument@@QBEHXZ ENDP			; TiXmlDocument::ErrorCol
_TEXT	ENDS
; Function compile flags: /Ogtp
; File E:\Proyectos\JuegosOnlineproyectos\PB\pbblow\Piercing Blow Remake\i3Server\include\i3Base\tinyxml.h
;	COMDAT ?ErrorRow@TiXmlDocument@@QBEHXZ
_TEXT	SEGMENT
?ErrorRow@TiXmlDocument@@QBEHXZ PROC			; TiXmlDocument::ErrorRow, COMDAT
; _this$ = ecx

; 1483 : 	int ErrorRow() const	{ return errorLocation.row+1; }

  00000	8b 41 3c	 mov	 eax, DWORD PTR [ecx+60]
  00003	40		 inc	 eax
  00004	c3		 ret	 0
?ErrorRow@TiXmlDocument@@QBEHXZ ENDP			; TiXmlDocument::ErrorRow
_TEXT	ENDS
; Function compile flags: /Ogtp
; File E:\Proyectos\JuegosOnlineproyectos\PB\pbblow\Piercing Blow Remake\i3Server\include\i3Base\tinyxml.h
;	COMDAT ?ErrorId@TiXmlDocument@@QBEHXZ
_TEXT	SEGMENT
?ErrorId@TiXmlDocument@@QBEHXZ PROC			; TiXmlDocument::ErrorId, COMDAT
; _this$ = ecx

; 1474 : 	int ErrorId()	const				{ return errorId; }

  00000	8b 41 30	 mov	 eax, DWORD PTR [ecx+48]
  00003	c3		 ret	 0
?ErrorId@TiXmlDocument@@QBEHXZ ENDP			; TiXmlDocument::ErrorId
_TEXT	ENDS
; Function compile flags: /Ogtp
; File E:\Proyectos\JuegosOnlineproyectos\PB\pbblow\Piercing Blow Remake\i3Server\include\i3Base\tinyxml.h
; File E:\Proyectos\JuegosOnlineproyectos\PB\pbblow\Piercing Blow Remake\i3Server\include\i3Base\tinystr.h
; File E:\Proyectos\JuegosOnlineproyectos\PB\pbblow\Piercing Blow Remake\i3Server\include\i3Base\tinyxml.h
;	COMDAT ?ErrorDesc@TiXmlDocument@@QBEPBDXZ
_TEXT	SEGMENT
?ErrorDesc@TiXmlDocument@@QBEPBDXZ PROC			; TiXmlDocument::ErrorDesc, COMDAT
; _this$ = ecx
; File E:\Proyectos\JuegosOnlineproyectos\PB\pbblow\Piercing Blow Remake\i3Server\include\i3Base\tinystr.h

; 144  : 	const char * c_str () const { return rep_->str; }

  00000	8b 41 34	 mov	 eax, DWORD PTR [ecx+52]
  00003	83 c0 08	 add	 eax, 8
; File E:\Proyectos\JuegosOnlineproyectos\PB\pbblow\Piercing Blow Remake\i3Server\include\i3Base\tinyxml.h

; 1469 : 	const char * ErrorDesc() const	{ return errorDesc.c_str (); }

  00006	c3		 ret	 0
?ErrorDesc@TiXmlDocument@@QBEPBDXZ ENDP			; TiXmlDocument::ErrorDesc
_TEXT	ENDS
; Function compile flags: /Ogtp
; File E:\Proyectos\JuegosOnlineproyectos\PB\pbblow\Piercing Blow Remake\i3Server\include\i3Base\tinyxml.h
;	COMDAT ?Error@TiXmlDocument@@QBE_NXZ
_TEXT	SEGMENT
?Error@TiXmlDocument@@QBE_NXZ PROC			; TiXmlDocument::Error, COMDAT
; _this$ = ecx

; 1466 : 	bool Error() const						{ return error; }

  00000	8a 41 2c	 mov	 al, BYTE PTR [ecx+44]
  00003	c3		 ret	 0
?Error@TiXmlDocument@@QBE_NXZ ENDP			; TiXmlDocument::Error
_TEXT	ENDS
; Function compile flags: /Ogtp
; File E:\Proyectos\JuegosOnlineproyectos\PB\pbblow\Piercing Blow Remake\i3Server\include\i3Base\tinyxml.h
;	COMDAT ?RootElement@TiXmlDocument@@QAEPAVTiXmlElement@@XZ
_TEXT	SEGMENT
?RootElement@TiXmlDocument@@QAEPAVTiXmlElement@@XZ PROC	; TiXmlDocument::RootElement, COMDAT
; _this$ = ecx

; 670  : 		return const_cast< TiXmlElement* >( (const_cast< const TiXmlNode* >(this))->FirstChildElement() );

  00000	e9 00 00 00 00	 jmp	 ?FirstChildElement@TiXmlNode@@QBEPBVTiXmlElement@@XZ ; TiXmlNode::FirstChildElement
?RootElement@TiXmlDocument@@QAEPAVTiXmlElement@@XZ ENDP	; TiXmlDocument::RootElement
_TEXT	ENDS
; Function compile flags: /Ogtp
; File E:\Proyectos\JuegosOnlineproyectos\PB\pbblow\Piercing Blow Remake\i3Server\include\i3Base\tinyxml.h
;	COMDAT ?RootElement@TiXmlDocument@@QBEPBVTiXmlElement@@XZ
_TEXT	SEGMENT
?RootElement@TiXmlDocument@@QBEPBVTiXmlElement@@XZ PROC	; TiXmlDocument::RootElement, COMDAT
; _this$ = ecx

; 1458 : 	const TiXmlElement* RootElement() const		{ return FirstChildElement(); }

  00000	e9 00 00 00 00	 jmp	 ?FirstChildElement@TiXmlNode@@QBEPBVTiXmlElement@@XZ ; TiXmlNode::FirstChildElement
?RootElement@TiXmlDocument@@QBEPBVTiXmlElement@@XZ ENDP	; TiXmlDocument::RootElement
_TEXT	ENDS
; Function compile flags: /Ogtp
; File E:\Proyectos\JuegosOnlineproyectos\PB\pbblow\Piercing Blow Remake\i3Server\src\i3Base\tinyxmlparser.cpp
; File E:\Proyectos\JuegosOnlineproyectos\PB\pbblow\Piercing Blow Remake\i3Server\include\i3Base\tinystr.h
; File E:\Proyectos\JuegosOnlineproyectos\PB\pbblow\Piercing Blow Remake\i3Server\src\i3Base\tinyxmlparser.cpp
; File E:\Proyectos\JuegosOnlineproyectos\PB\pbblow\Piercing Blow Remake\i3Server\include\i3Base\tinystr.h
; File E:\Proyectos\JuegosOnlineproyectos\PB\pbblow\Piercing Blow Remake\i3Server\include\i3Base\tinyxml.h
; File E:\Proyectos\JuegosOnlineproyectos\PB\pbblow\Piercing Blow Remake\i3Server\include\i3Base\tinystr.h
; File E:\Proyectos\JuegosOnlineproyectos\PB\pbblow\Piercing Blow Remake\i3Server\src\i3Base\tinyxmlparser.cpp
; File E:\Proyectos\JuegosOnlineproyectos\PB\pbblow\Piercing Blow Remake\i3Server\include\i3Base\tinyxml.h
; File E:\Proyectos\JuegosOnlineproyectos\PB\pbblow\Piercing Blow Remake\i3Server\src\i3Base\tinyxmlparser.cpp
; File E:\Proyectos\JuegosOnlineproyectos\PB\pbblow\Piercing Blow Remake\i3Server\include\i3Base\tinyxml.h
; File E:\Proyectos\JuegosOnlineproyectos\PB\pbblow\Piercing Blow Remake\i3Server\src\i3Base\tinyxmlparser.cpp
; File E:\Proyectos\JuegosOnlineproyectos\PB\pbblow\Piercing Blow Remake\i3Server\include\i3Base\tinystr.h
; File E:\Proyectos\JuegosOnlineproyectos\PB\pbblow\Piercing Blow Remake\i3Server\src\i3Base\tinyxmlparser.cpp
; File E:\Proyectos\JuegosOnlineproyectos\PB\pbblow\Piercing Blow Remake\i3Server\include\i3Base\tinystr.h
; File E:\Proyectos\JuegosOnlineproyectos\PB\pbblow\Piercing Blow Remake\i3Server\src\i3Base\tinyxmlparser.cpp
; File E:\Proyectos\JuegosOnlineproyectos\PB\pbblow\Piercing Blow Remake\i3Server\include\i3Base\tinyxml.h
; File E:\Proyectos\JuegosOnlineproyectos\PB\pbblow\Piercing Blow Remake\i3Server\src\i3Base\tinyxmlparser.cpp
; File E:\Proyectos\JuegosOnlineproyectos\PB\pbblow\Piercing Blow Remake\i3Server\include\i3Base\tinyxml.h
; File E:\Proyectos\JuegosOnlineproyectos\PB\pbblow\Piercing Blow Remake\i3Server\src\i3Base\tinyxmlparser.cpp
; File E:\Proyectos\JuegosOnlineproyectos\PB\pbblow\Piercing Blow Remake\i3Server\include\i3Base\tinyxml.h
; File E:\Proyectos\JuegosOnlineproyectos\PB\pbblow\Piercing Blow Remake\i3Server\src\i3Base\tinyxmlparser.cpp
; File E:\Proyectos\JuegosOnlineproyectos\PB\pbblow\Piercing Blow Remake\i3Server\include\i3Base\tinyxml.h
; File E:\Proyectos\JuegosOnlineproyectos\PB\pbblow\Piercing Blow Remake\i3Server\src\i3Base\tinyxmlparser.cpp
; File E:\Proyectos\JuegosOnlineproyectos\PB\pbblow\Piercing Blow Remake\i3Server\include\i3Base\tinystr.h
; File E:\Proyectos\JuegosOnlineproyectos\PB\pbblow\Piercing Blow Remake\i3Server\src\i3Base\tinyxmlparser.cpp
; File E:\Proyectos\JuegosOnlineproyectos\PB\pbblow\Piercing Blow Remake\i3Server\include\i3Base\tinystr.h
; File E:\Proyectos\JuegosOnlineproyectos\PB\pbblow\Piercing Blow Remake\i3Server\src\i3Base\tinyxmlparser.cpp
;	COMDAT ?Parse@TiXmlDocument@@UAEPBDPBDPAVTiXmlParsingData@@W4TiXmlEncoding@@@Z
_TEXT	SEGMENT
_data$ = -20						; size = 16
_this$1$ = -4						; size = 4
_p$ = 8							; size = 4
_q$1$ = 8						; size = 4
_prevData$ = 12						; size = 4
_p$2$ = 12						; size = 4
_encoding$ = 16						; size = 4
?Parse@TiXmlDocument@@UAEPBDPBDPAVTiXmlParsingData@@W4TiXmlEncoding@@@Z PROC ; TiXmlDocument::Parse, COMDAT
; _this$ = ecx

; 709  : {

  00000	55		 push	 ebp
  00001	8b ec		 mov	 ebp, esp
  00003	83 ec 14	 sub	 esp, 20			; 00000014H
  00006	53		 push	 ebx
  00007	56		 push	 esi
  00008	57		 push	 edi
  00009	8b f9		 mov	 edi, ecx
; File E:\Proyectos\JuegosOnlineproyectos\PB\pbblow\Piercing Blow Remake\i3Server\include\i3Base\tinystr.h

; 114  : 		return assign( copy, (size_type)strlen(copy));

  0000b	6a 00		 push	 0
  0000d	68 00 00 00 00	 push	 OFFSET ??_C@_00CNPNBAHC@@
; File E:\Proyectos\JuegosOnlineproyectos\PB\pbblow\Piercing Blow Remake\i3Server\src\i3Base\tinyxmlparser.cpp

; 709  : {

  00012	89 7d fc	 mov	 DWORD PTR _this$1$[ebp], edi
; File E:\Proyectos\JuegosOnlineproyectos\PB\pbblow\Piercing Blow Remake\i3Server\include\i3Base\tinystr.h

; 114  : 		return assign( copy, (size_type)strlen(copy));

  00015	8d 4f 34	 lea	 ecx, DWORD PTR [edi+52]
; File E:\Proyectos\JuegosOnlineproyectos\PB\pbblow\Piercing Blow Remake\i3Server\include\i3Base\tinyxml.h

; 1517 : 	void ClearError()						{	error = false; 

  00018	c6 47 2c 00	 mov	 BYTE PTR [edi+44], 0

; 1518 : 												errorId = 0; 

  0001c	c7 47 30 00 00
	00 00		 mov	 DWORD PTR [edi+48], 0
; File E:\Proyectos\JuegosOnlineproyectos\PB\pbblow\Piercing Blow Remake\i3Server\include\i3Base\tinystr.h

; 114  : 		return assign( copy, (size_type)strlen(copy));

  00023	e8 00 00 00 00	 call	 ?assign@TiXmlString@@QAEAAV1@PBDI@Z ; TiXmlString::assign
; File E:\Proyectos\JuegosOnlineproyectos\PB\pbblow\Piercing Blow Remake\i3Server\src\i3Base\tinyxmlparser.cpp

; 715  : 	if ( !p || !*p )

  00028	8b 4d 08	 mov	 ecx, DWORD PTR _p$[ebp]
; File E:\Proyectos\JuegosOnlineproyectos\PB\pbblow\Piercing Blow Remake\i3Server\include\i3Base\tinyxml.h

; 1520 : 												errorLocation.row = errorLocation.col = 0; 

  0002b	c7 47 40 00 00
	00 00		 mov	 DWORD PTR [edi+64], 0
  00032	c7 47 3c 00 00
	00 00		 mov	 DWORD PTR [edi+60], 0
; File E:\Proyectos\JuegosOnlineproyectos\PB\pbblow\Piercing Blow Remake\i3Server\src\i3Base\tinyxmlparser.cpp

; 715  : 	if ( !p || !*p )

  00039	85 c9		 test	 ecx, ecx
  0003b	0f 84 eb 01 00
	00		 je	 $LN5@Parse
  00041	80 39 00	 cmp	 BYTE PTR [ecx], 0
  00044	0f 84 e2 01 00
	00		 je	 $LN5@Parse

; 725  : 	if ( prevData )

  0004a	8b 45 0c	 mov	 eax, DWORD PTR _prevData$[ebp]
; File E:\Proyectos\JuegosOnlineproyectos\PB\pbblow\Piercing Blow Remake\i3Server\include\i3Base\tinyxml.h

; 107  : 	void Clear()		{ row = col = -1; }

  0004d	c7 47 08 ff ff
	ff ff		 mov	 DWORD PTR [edi+8], -1
  00054	c7 47 04 ff ff
	ff ff		 mov	 DWORD PTR [edi+4], -1
; File E:\Proyectos\JuegosOnlineproyectos\PB\pbblow\Piercing Blow Remake\i3Server\src\i3Base\tinyxmlparser.cpp

; 725  : 	if ( prevData )

  0005b	85 c0		 test	 eax, eax
  0005d	74 0a		 je	 SHORT $LN6@Parse

; 726  : 	{
; 727  : 		location.row = prevData->cursor.row;

  0005f	8b 10		 mov	 edx, DWORD PTR [eax]
  00061	89 57 04	 mov	 DWORD PTR [edi+4], edx

; 728  : 		location.col = prevData->cursor.col;

  00064	8b 70 04	 mov	 esi, DWORD PTR [eax+4]

; 729  : 	}

  00067	eb 04		 jmp	 SHORT $LN7@Parse
$LN6@Parse:

; 730  : 	else
; 731  : 	{
; 732  : 		location.row = 0;
; 733  : 		location.col = 0;

  00069	33 f6		 xor	 esi, esi
  0006b	33 d2		 xor	 edx, edx
$LN7@Parse:

; 189  : 		tabsize = _tabsize;

  0006d	8b 47 38	 mov	 eax, DWORD PTR [edi+56]

; 191  : 		cursor.col = col;

  00070	89 75 f0	 mov	 DWORD PTR _data$[ebp+4], esi

; 734  : 	}
; 735  : 	TiXmlParsingData data( p, TabSize(), location.row, location.col );
; 736  : 	location = data.Cursor();

  00073	89 77 08	 mov	 DWORD PTR [edi+8], esi

; 737  : 
; 738  : 	if ( encoding == TIXML_ENCODING_UNKNOWN )

  00076	8b 75 10	 mov	 esi, DWORD PTR _encoding$[ebp]

; 188  : 		stamp = start;

  00079	89 4d f4	 mov	 DWORD PTR _data$[ebp+8], ecx

; 189  : 		tabsize = _tabsize;

  0007c	89 45 f8	 mov	 DWORD PTR _data$[ebp+12], eax

; 190  : 		cursor.row = row;

  0007f	89 55 ec	 mov	 DWORD PTR _data$[ebp], edx

; 734  : 	}
; 735  : 	TiXmlParsingData data( p, TabSize(), location.row, location.col );
; 736  : 	location = data.Cursor();

  00082	89 57 04	 mov	 DWORD PTR [edi+4], edx

; 737  : 
; 738  : 	if ( encoding == TIXML_ENCODING_UNKNOWN )

  00085	85 f6		 test	 esi, esi
  00087	75 29		 jne	 SHORT $LN9@Parse

; 739  : 	{
; 740  : 		// Check for the Microsoft UTF-8 lead bytes.
; 741  : 		const unsigned char* pU = (const unsigned char*)p;
; 742  : 		if (	*(pU+0) && *(pU+0) == TIXML_UTF_LEAD_0
; 743  : 			 && *(pU+1) && *(pU+1) == TIXML_UTF_LEAD_1
; 744  : 			 && *(pU+2) && *(pU+2) == TIXML_UTF_LEAD_2 )

  00089	8a 01		 mov	 al, BYTE PTR [ecx]
  0008b	84 c0		 test	 al, al
  0008d	74 23		 je	 SHORT $LN9@Parse
  0008f	3c ef		 cmp	 al, 239			; 000000efH
  00091	75 1f		 jne	 SHORT $LN9@Parse
  00093	8a 41 01	 mov	 al, BYTE PTR [ecx+1]
  00096	84 c0		 test	 al, al
  00098	74 18		 je	 SHORT $LN9@Parse
  0009a	3c bb		 cmp	 al, 187			; 000000bbH
  0009c	75 14		 jne	 SHORT $LN9@Parse
  0009e	8a 41 02	 mov	 al, BYTE PTR [ecx+2]
  000a1	84 c0		 test	 al, al
  000a3	74 0d		 je	 SHORT $LN9@Parse
  000a5	3c bf		 cmp	 al, 191			; 000000bfH
  000a7	75 09		 jne	 SHORT $LN9@Parse

; 745  : 		{
; 746  : 			encoding = TIXML_ENCODING_UTF8;

  000a9	be 01 00 00 00	 mov	 esi, 1

; 747  : 			useMicrosoftBOM = true;

  000ae	c6 47 44 01	 mov	 BYTE PTR [edi+68], 1
$LN9@Parse:

; 748  : 		}
; 749  : 	}
; 750  : 
; 751  :     p = SkipWhiteSpace( p, encoding );

  000b2	56		 push	 esi
  000b3	51		 push	 ecx
  000b4	e8 00 00 00 00	 call	 ?SkipWhiteSpace@TiXmlBase@@KAPBDPBDW4TiXmlEncoding@@@Z ; TiXmlBase::SkipWhiteSpace
  000b9	8b d8		 mov	 ebx, eax
  000bb	83 c4 08	 add	 esp, 8

; 752  : 	if ( !p )

  000be	85 db		 test	 ebx, ebx
  000c0	75 2f		 jne	 SHORT $LL2@Parse

; 805  : 	if ( error )

  000c2	38 47 2c	 cmp	 BYTE PTR [edi+44], al
  000c5	0f 85 9e 01 00
	00		 jne	 $LN28@Parse

; 806  : 		return;
; 807  : 
; 808  : 	I3ASSERT( err > 0 && err < TIXML_ERROR_STRING_COUNT );
; 809  : 	error   = true;

  000cb	c6 47 2c 01	 mov	 BYTE PTR [edi+44], 1

; 810  : 	errorId = err;

  000cf	c7 47 30 0d 00
	00 00		 mov	 DWORD PTR [edi+48], 13	; 0000000dH

; 811  : 	errorDesc = errorString[ errorId ];

  000d6	8b 35 34 00 00
	00		 mov	 esi, DWORD PTR ?errorString@TiXmlBase@@1PAPBDA+52
; File E:\Proyectos\JuegosOnlineproyectos\PB\pbblow\Piercing Blow Remake\i3Server\include\i3Base\tinystr.h

; 114  : 		return assign( copy, (size_type)strlen(copy));

  000dc	8b d6		 mov	 edx, esi
  000de	8d 4a 01	 lea	 ecx, DWORD PTR [edx+1]
$LL145@Parse:
  000e1	8a 02		 mov	 al, BYTE PTR [edx]
  000e3	42		 inc	 edx
  000e4	84 c0		 test	 al, al
  000e6	75 f9		 jne	 SHORT $LL145@Parse
  000e8	2b d1		 sub	 edx, ecx
  000ea	52		 push	 edx
  000eb	56		 push	 esi
  000ec	e9 62 01 00 00	 jmp	 $LN197@Parse
$LL2@Parse:
; File E:\Proyectos\JuegosOnlineproyectos\PB\pbblow\Piercing Blow Remake\i3Server\src\i3Base\tinyxmlparser.cpp

; 758  : 	while ( p && *p )

  000f1	80 3b 00	 cmp	 BYTE PTR [ebx], 0
  000f4	0f 84 fc 00 00
	00		 je	 $LN11@Parse

; 759  : 	{
; 760  : 		TiXmlNode* node = Identify( p, encoding );

  000fa	56		 push	 esi
  000fb	53		 push	 ebx
  000fc	8b cf		 mov	 ecx, edi
  000fe	e8 00 00 00 00	 call	 ?Identify@TiXmlNode@@IAEPAV1@PBDW4TiXmlEncoding@@@Z ; TiXmlNode::Identify
  00103	8b f8		 mov	 edi, eax

; 761  : 		if ( node )

  00105	85 ff		 test	 edi, edi
  00107	0f 84 e6 00 00
	00		 je	 $LN163@Parse

; 762  : 		{
; 763  : 			p = node->Parse( p, &data, encoding );

  0010d	8b 17		 mov	 edx, DWORD PTR [edi]
  0010f	8d 45 ec	 lea	 eax, DWORD PTR _data$[ebp]
  00112	56		 push	 esi
  00113	50		 push	 eax
  00114	53		 push	 ebx
  00115	8b cf		 mov	 ecx, edi
  00117	ff 52 08	 call	 DWORD PTR [edx+8]

; 764  : 			LinkEndChild( node );

  0011a	8b 4d fc	 mov	 ecx, DWORD PTR _this$1$[ebp]
  0011d	57		 push	 edi
  0011e	89 45 0c	 mov	 DWORD PTR _p$2$[ebp], eax
  00121	e8 00 00 00 00	 call	 ?LinkEndChild@TiXmlNode@@QAEPAV1@PAV1@@Z ; TiXmlNode::LinkEndChild

; 765  : 		}
; 766  : 		else
; 767  : 		{
; 768  : 			break;
; 769  : 		}
; 770  : 
; 771  : 		// Did we get encoding info?
; 772  : 		if (    encoding == TIXML_ENCODING_UNKNOWN
; 773  : 			 && node->ToDeclaration() )

  00126	85 f6		 test	 esi, esi
  00128	0f 85 aa 00 00
	00		 jne	 $LN19@Parse
  0012e	8b 17		 mov	 edx, DWORD PTR [edi]
  00130	8b cf		 mov	 ecx, edi
  00132	ff 52 34	 call	 DWORD PTR [edx+52]
  00135	85 c0		 test	 eax, eax
  00137	0f 84 9b 00 00
	00		 je	 $LN19@Parse

; 774  : 		{
; 775  : 			TiXmlDeclaration* dec = node->ToDeclaration();

  0013d	8b 07		 mov	 eax, DWORD PTR [edi]
  0013f	8b cf		 mov	 ecx, edi
  00141	ff 50 34	 call	 DWORD PTR [eax+52]
; File E:\Proyectos\JuegosOnlineproyectos\PB\pbblow\Piercing Blow Remake\i3Server\include\i3Base\tinystr.h

; 144  : 	const char * c_str () const { return rep_->str; }

  00144	8b 58 30	 mov	 ebx, DWORD PTR [eax+48]
  00147	83 c3 08	 add	 ebx, 8
; File E:\Proyectos\JuegosOnlineproyectos\PB\pbblow\Piercing Blow Remake\i3Server\src\i3Base\tinyxmlparser.cpp

; 779  : 			if ( *enc == 0 )

  0014a	80 3b 00	 cmp	 BYTE PTR [ebx], 0
  0014d	0f 84 80 00 00
	00		 je	 $LN133@Parse

; 780  : 				encoding = TIXML_ENCODING_UTF8;
; 781  : 			else if ( StringEqual( enc, "UTF-8", true, TIXML_ENCODING_UNKNOWN ) )

  00153	bf 00 00 00 00	 mov	 edi, OFFSET ??_C@_05EGJIMALK@UTF?98@

; 551  : 	const char* q = p;

  00158	89 5d 08	 mov	 DWORD PTR _q$1$[ebp], ebx
  0015b	8b c3		 mov	 eax, ebx
  0015d	8d 49 00	 npad	 3
$LL49@Parse:

; 555  : 		while ( *q && *tag && ToLower( *q, encoding ) == ToLower( *tag, encoding ) )

  00160	80 3f 00	 cmp	 BYTE PTR [edi], 0
  00163	74 6e		 je	 SHORT $LN133@Parse
  00165	0f be 00	 movsx	 eax, BYTE PTR [eax]
; File E:\Proyectos\JuegosOnlineproyectos\PB\pbblow\Piercing Blow Remake\i3Server\include\i3Base\tinyxml.h

; 395  : 			return tolower( v );

  00168	50		 push	 eax
  00169	e8 00 00 00 00	 call	 _tolower
; File E:\Proyectos\JuegosOnlineproyectos\PB\pbblow\Piercing Blow Remake\i3Server\src\i3Base\tinyxmlparser.cpp

; 555  : 		while ( *q && *tag && ToLower( *q, encoding ) == ToLower( *tag, encoding ) )

  0016e	0f be 0f	 movsx	 ecx, BYTE PTR [edi]
; File E:\Proyectos\JuegosOnlineproyectos\PB\pbblow\Piercing Blow Remake\i3Server\include\i3Base\tinyxml.h

; 395  : 			return tolower( v );

  00171	8b f0		 mov	 esi, eax
  00173	51		 push	 ecx
  00174	e8 00 00 00 00	 call	 _tolower
  00179	83 c4 08	 add	 esp, 8
; File E:\Proyectos\JuegosOnlineproyectos\PB\pbblow\Piercing Blow Remake\i3Server\src\i3Base\tinyxmlparser.cpp

; 555  : 		while ( *q && *tag && ToLower( *q, encoding ) == ToLower( *tag, encoding ) )

  0017c	3b f0		 cmp	 esi, eax
  0017e	75 0d		 jne	 SHORT $LN50@Parse

; 556  : 		{
; 557  : 			++q;

  00180	8b 45 08	 mov	 eax, DWORD PTR _q$1$[ebp]

; 558  : 			++tag;

  00183	47		 inc	 edi
  00184	40		 inc	 eax
  00185	89 45 08	 mov	 DWORD PTR _q$1$[ebp], eax
  00188	80 38 00	 cmp	 BYTE PTR [eax], 0
  0018b	75 d3		 jne	 SHORT $LL49@Parse
$LN50@Parse:

; 559  : 		}
; 560  : 
; 561  : 		if ( *tag == 0 )

  0018d	80 3f 00	 cmp	 BYTE PTR [edi], 0
  00190	74 41		 je	 SHORT $LN133@Parse

; 545  : 	if ( !p || !*p )

  00192	80 3b 00	 cmp	 BYTE PTR [ebx], 0

; 782  : 				encoding = TIXML_ENCODING_UTF8;
; 783  : 			else if ( StringEqual( enc, "UTF8", true, TIXML_ENCODING_UNKNOWN ) )

  00195	be 00 00 00 00	 mov	 esi, OFFSET ??_C@_04OOMJJNCF@UTF8@

; 545  : 	if ( !p || !*p )

  0019a	74 30		 je	 SHORT $LN18@Parse
  0019c	8d 64 24 00	 npad	 4
$LL81@Parse:

; 555  : 		while ( *q && *tag && ToLower( *q, encoding ) == ToLower( *tag, encoding ) )

  001a0	80 3e 00	 cmp	 BYTE PTR [esi], 0
  001a3	74 2e		 je	 SHORT $LN133@Parse
  001a5	0f be 03	 movsx	 eax, BYTE PTR [ebx]
; File E:\Proyectos\JuegosOnlineproyectos\PB\pbblow\Piercing Blow Remake\i3Server\include\i3Base\tinyxml.h

; 395  : 			return tolower( v );

  001a8	50		 push	 eax
  001a9	e8 00 00 00 00	 call	 _tolower
; File E:\Proyectos\JuegosOnlineproyectos\PB\pbblow\Piercing Blow Remake\i3Server\src\i3Base\tinyxmlparser.cpp

; 555  : 		while ( *q && *tag && ToLower( *q, encoding ) == ToLower( *tag, encoding ) )

  001ae	0f be 0e	 movsx	 ecx, BYTE PTR [esi]
; File E:\Proyectos\JuegosOnlineproyectos\PB\pbblow\Piercing Blow Remake\i3Server\include\i3Base\tinyxml.h

; 395  : 			return tolower( v );

  001b1	8b f8		 mov	 edi, eax
  001b3	51		 push	 ecx
  001b4	e8 00 00 00 00	 call	 _tolower
  001b9	83 c4 08	 add	 esp, 8
; File E:\Proyectos\JuegosOnlineproyectos\PB\pbblow\Piercing Blow Remake\i3Server\src\i3Base\tinyxmlparser.cpp

; 555  : 		while ( *q && *tag && ToLower( *q, encoding ) == ToLower( *tag, encoding ) )

  001bc	3b f8		 cmp	 edi, eax
  001be	75 07		 jne	 SHORT $LN82@Parse

; 556  : 		{
; 557  : 			++q;

  001c0	43		 inc	 ebx

; 558  : 			++tag;

  001c1	46		 inc	 esi
  001c2	80 3b 00	 cmp	 BYTE PTR [ebx], 0
  001c5	75 d9		 jne	 SHORT $LL81@Parse
$LN82@Parse:

; 559  : 		}
; 560  : 
; 561  : 		if ( *tag == 0 )

  001c7	80 3e 00	 cmp	 BYTE PTR [esi], 0
  001ca	74 07		 je	 SHORT $LN133@Parse
$LN18@Parse:

; 784  : 				encoding = TIXML_ENCODING_UTF8;	// incorrect, but be nice
; 785  : 			else 
; 786  : 				encoding = TIXML_ENCODING_LEGACY;

  001cc	be 02 00 00 00	 mov	 esi, 2
  001d1	eb 05		 jmp	 SHORT $LN19@Parse
$LN133@Parse:

; 787  : 		}
; 788  : 
; 789  : 		p = SkipWhiteSpace( p, encoding );

  001d3	be 01 00 00 00	 mov	 esi, 1
$LN19@Parse:
  001d8	56		 push	 esi
  001d9	ff 75 0c	 push	 DWORD PTR _p$2$[ebp]
  001dc	e8 00 00 00 00	 call	 ?SkipWhiteSpace@TiXmlBase@@KAPBDPBDW4TiXmlEncoding@@@Z ; TiXmlBase::SkipWhiteSpace
  001e1	8b 7d fc	 mov	 edi, DWORD PTR _this$1$[ebp]
  001e4	8b d8		 mov	 ebx, eax
  001e6	83 c4 08	 add	 esp, 8
  001e9	85 db		 test	 ebx, ebx
  001eb	0f 85 00 ff ff
	ff		 jne	 $LL2@Parse

; 761  : 		if ( node )

  001f1	eb 03		 jmp	 SHORT $LN11@Parse
$LN163@Parse:
  001f3	8b 7d fc	 mov	 edi, DWORD PTR _this$1$[ebp]
$LN11@Parse:

; 790  : 	}
; 791  : 
; 792  : 	// Was this empty?
; 793  : 	if ( !firstChild ) {

  001f6	83 7f 18 00	 cmp	 DWORD PTR [edi+24], 0
  001fa	75 25		 jne	 SHORT $LN20@Parse

; 805  : 	if ( error )

  001fc	80 7f 2c 00	 cmp	 BYTE PTR [edi+44], 0
  00200	75 67		 jne	 SHORT $LN28@Parse

; 806  : 		return;
; 807  : 
; 808  : 	I3ASSERT( err > 0 && err < TIXML_ERROR_STRING_COUNT );
; 809  : 	error   = true;

  00202	c6 47 2c 01	 mov	 BYTE PTR [edi+44], 1

; 810  : 	errorId = err;

  00206	c7 47 30 0d 00
	00 00		 mov	 DWORD PTR [edi+48], 13	; 0000000dH

; 811  : 	errorDesc = errorString[ errorId ];

  0020d	8b 15 34 00 00
	00		 mov	 edx, DWORD PTR ?errorString@TiXmlBase@@1PAPBDA+52
; File E:\Proyectos\JuegosOnlineproyectos\PB\pbblow\Piercing Blow Remake\i3Server\include\i3Base\tinystr.h

; 114  : 		return assign( copy, (size_type)strlen(copy));

  00213	8b ca		 mov	 ecx, edx
  00215	8d 71 01	 lea	 esi, DWORD PTR [ecx+1]
$LL146@Parse:
  00218	8a 01		 mov	 al, BYTE PTR [ecx]
  0021a	41		 inc	 ecx
  0021b	84 c0		 test	 al, al
  0021d	75 f9		 jne	 SHORT $LL146@Parse
  0021f	eb 2e		 jmp	 SHORT $LN198@Parse
$LN20@Parse:
  00221	5f		 pop	 edi
; File E:\Proyectos\JuegosOnlineproyectos\PB\pbblow\Piercing Blow Remake\i3Server\src\i3Base\tinyxmlparser.cpp

; 800  : }

  00222	5e		 pop	 esi
  00223	8b c3		 mov	 eax, ebx
  00225	5b		 pop	 ebx
  00226	8b e5		 mov	 esp, ebp
  00228	5d		 pop	 ebp
  00229	c2 0c 00	 ret	 12			; 0000000cH
$LN5@Parse:

; 805  : 	if ( error )

  0022c	80 7f 2c 00	 cmp	 BYTE PTR [edi+44], 0
  00230	75 37		 jne	 SHORT $LN28@Parse

; 806  : 		return;
; 807  : 
; 808  : 	I3ASSERT( err > 0 && err < TIXML_ERROR_STRING_COUNT );
; 809  : 	error   = true;

  00232	c6 47 2c 01	 mov	 BYTE PTR [edi+44], 1

; 810  : 	errorId = err;

  00236	c7 47 30 0d 00
	00 00		 mov	 DWORD PTR [edi+48], 13	; 0000000dH

; 811  : 	errorDesc = errorString[ errorId ];

  0023d	8b 15 34 00 00
	00		 mov	 edx, DWORD PTR ?errorString@TiXmlBase@@1PAPBDA+52
; File E:\Proyectos\JuegosOnlineproyectos\PB\pbblow\Piercing Blow Remake\i3Server\include\i3Base\tinystr.h

; 114  : 		return assign( copy, (size_type)strlen(copy));

  00243	8b ca		 mov	 ecx, edx
  00245	8d 71 01	 lea	 esi, DWORD PTR [ecx+1]
$LL147@Parse:
  00248	8a 01		 mov	 al, BYTE PTR [ecx]
  0024a	41		 inc	 ecx
  0024b	84 c0		 test	 al, al
  0024d	75 f9		 jne	 SHORT $LL147@Parse
$LN198@Parse:
; File E:\Proyectos\JuegosOnlineproyectos\PB\pbblow\Piercing Blow Remake\i3Server\src\i3Base\tinyxmlparser.cpp

; 718  : 		return 0;

  0024f	2b ce		 sub	 ecx, esi
  00251	51		 push	 ecx
  00252	52		 push	 edx
$LN197@Parse:
  00253	8d 4f 34	 lea	 ecx, DWORD PTR [edi+52]
  00256	e8 00 00 00 00	 call	 ?assign@TiXmlString@@QAEAAV1@PBDI@Z ; TiXmlString::assign
  0025b	c7 47 3c ff ff
	ff ff		 mov	 DWORD PTR [edi+60], -1
  00262	c7 47 40 ff ff
	ff ff		 mov	 DWORD PTR [edi+64], -1
$LN28@Parse:

; 800  : }

  00269	5f		 pop	 edi
  0026a	5e		 pop	 esi
  0026b	33 c0		 xor	 eax, eax
  0026d	5b		 pop	 ebx
  0026e	8b e5		 mov	 esp, ebp
  00270	5d		 pop	 ebp
  00271	c2 0c 00	 ret	 12			; 0000000cH
?Parse@TiXmlDocument@@UAEPBDPBDPAVTiXmlParsingData@@W4TiXmlEncoding@@@Z ENDP ; TiXmlDocument::Parse
_TEXT	ENDS
; Function compile flags: /Ogtp
; File E:\Proyectos\JuegosOnlineproyectos\PB\pbblow\Piercing Blow Remake\i3Server\include\i3Base\tinyxml.h
; File E:\Proyectos\JuegosOnlineproyectos\PB\pbblow\Piercing Blow Remake\i3Server\include\i3Base\tinystr.h
; File E:\Proyectos\JuegosOnlineproyectos\PB\pbblow\Piercing Blow Remake\i3Server\include\i3Base\tinyxml.h
;	COMDAT ??1TiXmlDocument@@UAE@XZ
_TEXT	SEGMENT
??1TiXmlDocument@@UAE@XZ PROC				; TiXmlDocument::~TiXmlDocument, COMDAT
; _this$ = ecx

; 1411 : 	virtual ~TiXmlDocument() {}

  00000	56		 push	 esi
  00001	8b f1		 mov	 esi, ecx
  00003	c7 06 00 00 00
	00		 mov	 DWORD PTR [esi], OFFSET ??_7TiXmlDocument@@6B@
; File E:\Proyectos\JuegosOnlineproyectos\PB\pbblow\Piercing Blow Remake\i3Server\include\i3Base\tinystr.h

; 257  : 		if (rep_ != &nullrep_)

  00009	8b 46 34	 mov	 eax, DWORD PTR [esi+52]
  0000c	3d 00 00 00 00	 cmp	 eax, OFFSET ?nullrep_@TiXmlString@@0URep@1@A ; TiXmlString::nullrep_
  00011	74 09		 je	 SHORT $LN8@TiXmlDocum

; 258  : 		{
; 259  : 			// The rep_ is really an array of ints. (see the allocator, above).
; 260  : 			// Cast it back before delete, so the compiler won't incorrectly call destructors.
; 261  : 			delete [] ( reinterpret_cast<int*>( rep_ ) );

  00013	50		 push	 eax
  00014	e8 00 00 00 00	 call	 ??_V@YAXPAX@Z		; operator delete[]
  00019	83 c4 04	 add	 esp, 4
$LN8@TiXmlDocum:
; File E:\Proyectos\JuegosOnlineproyectos\PB\pbblow\Piercing Blow Remake\i3Server\include\i3Base\tinyxml.h

; 1411 : 	virtual ~TiXmlDocument() {}

  0001c	8b ce		 mov	 ecx, esi
  0001e	5e		 pop	 esi
  0001f	e9 00 00 00 00	 jmp	 ??1TiXmlNode@@UAE@XZ	; TiXmlNode::~TiXmlNode
??1TiXmlDocument@@UAE@XZ ENDP				; TiXmlDocument::~TiXmlDocument
_TEXT	ENDS
; Function compile flags: /Ogtp
; File E:\Proyectos\JuegosOnlineproyectos\PB\pbblow\Piercing Blow Remake\i3Server\include\i3Base\tinyxml.h
;	COMDAT ??_ETiXmlUnknown@@UAEPAXI@Z
_TEXT	SEGMENT
__$EHRec$ = -12						; size = 12
___flags$ = 8						; size = 4
??_ETiXmlUnknown@@UAEPAXI@Z PROC			; TiXmlUnknown::`vector deleting destructor', COMDAT
; _this$ = ecx
  00000	55		 push	 ebp
  00001	8b ec		 mov	 ebp, esp
  00003	6a ff		 push	 -1
  00005	68 00 00 00 00	 push	 __ehhandler$??_ETiXmlUnknown@@UAEPAXI@Z
  0000a	64 a1 00 00 00
	00		 mov	 eax, DWORD PTR fs:0
  00010	50		 push	 eax
  00011	53		 push	 ebx
  00012	56		 push	 esi
  00013	57		 push	 edi
  00014	a1 00 00 00 00	 mov	 eax, DWORD PTR ___security_cookie
  00019	33 c5		 xor	 eax, ebp
  0001b	50		 push	 eax
  0001c	8d 45 f4	 lea	 eax, DWORD PTR __$EHRec$[ebp]
  0001f	64 a3 00 00 00
	00		 mov	 DWORD PTR fs:0, eax
  00025	8b f1		 mov	 esi, ecx
  00027	8b 45 08	 mov	 eax, DWORD PTR ___flags$[ebp]
  0002a	8b f8		 mov	 edi, eax
  0002c	83 e7 01	 and	 edi, 1
  0002f	a8 02		 test	 al, 2
  00031	74 3d		 je	 SHORT $LN2@vector
  00033	68 00 00 00 00	 push	 OFFSET ??1TiXmlUnknown@@UAE@XZ ; TiXmlUnknown::~TiXmlUnknown
  00038	ff 76 fc	 push	 DWORD PTR [esi-4]
  0003b	8d 5e fc	 lea	 ebx, DWORD PTR [esi-4]
  0003e	6a 2c		 push	 44			; 0000002cH
  00040	56		 push	 esi
  00041	e8 00 00 00 00	 call	 ??_M@YGXPAXIIP6EX0@Z@Z
  00046	85 ff		 test	 edi, edi
  00048	74 10		 je	 SHORT $LN3@vector
  0004a	6b 0b 2c	 imul	 ecx, DWORD PTR [ebx], 44
  0004d	83 c1 04	 add	 ecx, 4
  00050	51		 push	 ecx
  00051	53		 push	 ebx
  00052	e8 00 00 00 00	 call	 ??_V@YAXPAXI@Z		; operator delete[]
  00057	83 c4 08	 add	 esp, 8
$LN3@vector:
  0005a	8b c3		 mov	 eax, ebx
  0005c	8b 4d f4	 mov	 ecx, DWORD PTR __$EHRec$[ebp]
  0005f	64 89 0d 00 00
	00 00		 mov	 DWORD PTR fs:0, ecx
  00066	59		 pop	 ecx
  00067	5f		 pop	 edi
  00068	5e		 pop	 esi
  00069	5b		 pop	 ebx
  0006a	8b e5		 mov	 esp, ebp
  0006c	5d		 pop	 ebp
  0006d	c2 04 00	 ret	 4
$LN2@vector:

; 1360 : 	virtual ~TiXmlUnknown() {}

  00070	c7 06 00 00 00
	00		 mov	 DWORD PTR [esi], OFFSET ??_7TiXmlUnknown@@6B@
  00076	e8 00 00 00 00	 call	 ??1TiXmlNode@@UAE@XZ	; TiXmlNode::~TiXmlNode
  0007b	85 ff		 test	 edi, edi
  0007d	74 0b		 je	 SHORT $LN4@vector
  0007f	6a 2c		 push	 44			; 0000002cH
  00081	56		 push	 esi
  00082	e8 00 00 00 00	 call	 ??3@YAXPAXI@Z		; operator delete
  00087	83 c4 08	 add	 esp, 8
$LN4@vector:
  0008a	8b c6		 mov	 eax, esi
  0008c	8b 4d f4	 mov	 ecx, DWORD PTR __$EHRec$[ebp]
  0008f	64 89 0d 00 00
	00 00		 mov	 DWORD PTR fs:0, ecx
  00096	59		 pop	 ecx
  00097	5f		 pop	 edi
  00098	5e		 pop	 esi
  00099	5b		 pop	 ebx
  0009a	8b e5		 mov	 esp, ebp
  0009c	5d		 pop	 ebp
  0009d	c2 04 00	 ret	 4
  000a0	cc		 int	 3
  000a1	cc		 int	 3
  000a2	cc		 int	 3
  000a3	cc		 int	 3
  000a4	cc		 int	 3
_TEXT	ENDS
;	COMDAT text$x
text$x	SEGMENT
__ehhandler$??_ETiXmlUnknown@@UAEPAXI@Z:
  00000	90		 npad	 1
  00001	90		 npad	 1
  00002	8b 54 24 08	 mov	 edx, DWORD PTR [esp+8]
  00006	8d 42 0c	 lea	 eax, DWORD PTR [edx+12]
  00009	8b 4a f0	 mov	 ecx, DWORD PTR [edx-16]
  0000c	33 c8		 xor	 ecx, eax
  0000e	e8 00 00 00 00	 call	 @__security_check_cookie@4
  00013	b8 00 00 00 00	 mov	 eax, OFFSET __ehfuncinfo$??_ETiXmlUnknown@@UAEPAXI@Z
  00018	e9 00 00 00 00	 jmp	 ___CxxFrameHandler3
text$x	ENDS
??_ETiXmlUnknown@@UAEPAXI@Z ENDP			; TiXmlUnknown::`vector deleting destructor'
; Function compile flags: /Ogtp
; File E:\Proyectos\JuegosOnlineproyectos\PB\pbblow\Piercing Blow Remake\i3Server\include\i3Base\tinyxml.h
;	COMDAT ??_GTiXmlUnknown@@UAEPAXI@Z
_TEXT	SEGMENT
___flags$ = 8						; size = 4
??_GTiXmlUnknown@@UAEPAXI@Z PROC			; TiXmlUnknown::`scalar deleting destructor', COMDAT
; _this$ = ecx
  00000	55		 push	 ebp
  00001	8b ec		 mov	 ebp, esp

; 1360 : 	virtual ~TiXmlUnknown() {}

  00003	56		 push	 esi
  00004	8b f1		 mov	 esi, ecx
  00006	c7 06 00 00 00
	00		 mov	 DWORD PTR [esi], OFFSET ??_7TiXmlUnknown@@6B@
  0000c	e8 00 00 00 00	 call	 ??1TiXmlNode@@UAE@XZ	; TiXmlNode::~TiXmlNode
  00011	f6 45 08 01	 test	 BYTE PTR ___flags$[ebp], 1
  00015	74 0b		 je	 SHORT $LN10@scalar
  00017	6a 2c		 push	 44			; 0000002cH
  00019	56		 push	 esi
  0001a	e8 00 00 00 00	 call	 ??3@YAXPAXI@Z		; operator delete
  0001f	83 c4 08	 add	 esp, 8
$LN10@scalar:
  00022	8b c6		 mov	 eax, esi
  00024	5e		 pop	 esi
  00025	5d		 pop	 ebp
  00026	c2 04 00	 ret	 4
??_GTiXmlUnknown@@UAEPAXI@Z ENDP			; TiXmlUnknown::`scalar deleting destructor'
_TEXT	ENDS
; Function compile flags: /Ogtp
; File E:\Proyectos\JuegosOnlineproyectos\PB\pbblow\Piercing Blow Remake\i3Server\include\i3Base\tinyxml.h
;	COMDAT ?ToUnknown@TiXmlUnknown@@UAEPAV1@XZ
_TEXT	SEGMENT
?ToUnknown@TiXmlUnknown@@UAEPAV1@XZ PROC		; TiXmlUnknown::ToUnknown, COMDAT
; _this$ = ecx

; 1373 : 	virtual TiXmlUnknown*           ToUnknown()	    { return this; } ///< Cast to a more defined type. Will return null not of the requested type.

  00000	8b c1		 mov	 eax, ecx
  00002	c3		 ret	 0
?ToUnknown@TiXmlUnknown@@UAEPAV1@XZ ENDP		; TiXmlUnknown::ToUnknown
_TEXT	ENDS
; Function compile flags: /Ogtp
; File E:\Proyectos\JuegosOnlineproyectos\PB\pbblow\Piercing Blow Remake\i3Server\include\i3Base\tinyxml.h
;	COMDAT ?ToUnknown@TiXmlUnknown@@UBEPBV1@XZ
_TEXT	SEGMENT
?ToUnknown@TiXmlUnknown@@UBEPBV1@XZ PROC		; TiXmlUnknown::ToUnknown, COMDAT
; _this$ = ecx

; 1372 : 	virtual const TiXmlUnknown*     ToUnknown()     const { return this; } ///< Cast to a more defined type. Will return null not of the requested type.

  00000	8b c1		 mov	 eax, ecx
  00002	c3		 ret	 0
?ToUnknown@TiXmlUnknown@@UBEPBV1@XZ ENDP		; TiXmlUnknown::ToUnknown
_TEXT	ENDS
; Function compile flags: /Ogtp
; File E:\Proyectos\JuegosOnlineproyectos\PB\pbblow\Piercing Blow Remake\i3Server\src\i3Base\tinyxmlparser.cpp
; File E:\Proyectos\JuegosOnlineproyectos\PB\pbblow\Piercing Blow Remake\i3Server\include\i3Base\tinyxml.h
; File E:\Proyectos\JuegosOnlineproyectos\PB\pbblow\Piercing Blow Remake\i3Server\src\i3Base\tinyxmlparser.cpp
; File E:\Proyectos\JuegosOnlineproyectos\PB\pbblow\Piercing Blow Remake\i3Server\include\i3Base\tinystr.h
; File E:\Proyectos\JuegosOnlineproyectos\PB\pbblow\Piercing Blow Remake\i3Server\src\i3Base\tinyxmlparser.cpp
; File E:\Proyectos\JuegosOnlineproyectos\PB\pbblow\Piercing Blow Remake\i3Server\include\i3Base\tinystr.h
; File E:\Proyectos\JuegosOnlineproyectos\PB\pbblow\Piercing Blow Remake\i3Server\src\i3Base\tinyxmlparser.cpp
; File E:\Proyectos\JuegosOnlineproyectos\PB\pbblow\Piercing Blow Remake\i3Server\include\i3Base\tinystr.h
; File E:\Proyectos\JuegosOnlineproyectos\PB\pbblow\Piercing Blow Remake\i3Server\src\i3Base\tinyxmlparser.cpp
; File E:\Proyectos\JuegosOnlineproyectos\PB\pbblow\Piercing Blow Remake\i3Server\include\i3Base\tinystr.h
; File E:\Proyectos\JuegosOnlineproyectos\PB\pbblow\Piercing Blow Remake\i3Server\include\i3Base\tinyxml.h
; File E:\Proyectos\JuegosOnlineproyectos\PB\pbblow\Piercing Blow Remake\i3Server\src\i3Base\tinyxmlparser.cpp
; File E:\Proyectos\JuegosOnlineproyectos\PB\pbblow\Piercing Blow Remake\i3Server\include\i3Base\tinystr.h
; File E:\Proyectos\JuegosOnlineproyectos\PB\pbblow\Piercing Blow Remake\i3Server\src\i3Base\tinyxmlparser.cpp
; File E:\Proyectos\JuegosOnlineproyectos\PB\pbblow\Piercing Blow Remake\i3Server\include\i3Base\tinystr.h
; File E:\Proyectos\JuegosOnlineproyectos\PB\pbblow\Piercing Blow Remake\i3Server\include\i3Base\tinyxml.h
; File E:\Proyectos\JuegosOnlineproyectos\PB\pbblow\Piercing Blow Remake\i3Server\src\i3Base\tinyxmlparser.cpp
;	COMDAT ?Parse@TiXmlUnknown@@UAEPBDPBDPAVTiXmlParsingData@@W4TiXmlEncoding@@@Z
_TEXT	SEGMENT
_this$1$ = -4						; size = 4
_p$ = 8							; size = 4
tv255 = 8						; size = 4
_data$ = 12						; size = 4
_encoding$ = 16						; size = 4
_single$ = 16						; size = 1
?Parse@TiXmlUnknown@@UAEPBDPBDPAVTiXmlParsingData@@W4TiXmlEncoding@@@Z PROC ; TiXmlUnknown::Parse, COMDAT
; _this$ = ecx

; 1279 : {

  00000	55		 push	 ebp
  00001	8b ec		 mov	 ebp, esp
  00003	51		 push	 ecx
  00004	53		 push	 ebx
  00005	56		 push	 esi
  00006	8b c1		 mov	 eax, ecx
  00008	57		 push	 edi
  00009	89 45 fc	 mov	 DWORD PTR _this$1$[ebp], eax
; File E:\Proyectos\JuegosOnlineproyectos\PB\pbblow\Piercing Blow Remake\i3Server\include\i3Base\tinyxml.h

; 695  : 		return const_cast< TiXmlDocument* >( (const_cast< const TiXmlNode* >(this))->GetDocument() );

  0000c	e8 00 00 00 00	 call	 ?GetDocument@TiXmlNode@@QBEPBVTiXmlDocument@@XZ ; TiXmlNode::GetDocument
; File E:\Proyectos\JuegosOnlineproyectos\PB\pbblow\Piercing Blow Remake\i3Server\src\i3Base\tinyxmlparser.cpp

; 1281 : 	p = SkipWhiteSpace( p, encoding );

  00011	ff 75 10	 push	 DWORD PTR _encoding$[ebp]
  00014	8b f8		 mov	 edi, eax
  00016	ff 75 08	 push	 DWORD PTR _p$[ebp]
  00019	e8 00 00 00 00	 call	 ?SkipWhiteSpace@TiXmlBase@@KAPBDPBDW4TiXmlEncoding@@@Z ; TiXmlBase::SkipWhiteSpace

; 1282 : 
; 1283 : 	if ( data )

  0001e	8b 5d 0c	 mov	 ebx, DWORD PTR _data$[ebp]
  00021	83 c4 08	 add	 esp, 8
  00024	8b f0		 mov	 esi, eax
  00026	85 db		 test	 ebx, ebx
  00028	74 1b		 je	 SHORT $LN47@Parse

; 1284 : 	{
; 1285 : 		data->Stamp( p, encoding );

  0002a	ff 75 10	 push	 DWORD PTR _encoding$[ebp]
  0002d	8b cb		 mov	 ecx, ebx
  0002f	56		 push	 esi
  00030	e8 00 00 00 00	 call	 ?Stamp@TiXmlParsingData@@QAEXPBDW4TiXmlEncoding@@@Z ; TiXmlParsingData::Stamp

; 1286 : 		location = data->Cursor();

  00035	8b 55 fc	 mov	 edx, DWORD PTR _this$1$[ebp]
  00038	8b 0b		 mov	 ecx, DWORD PTR [ebx]
  0003a	8b 43 04	 mov	 eax, DWORD PTR [ebx+4]
  0003d	89 4a 04	 mov	 DWORD PTR [edx+4], ecx
  00040	89 42 08	 mov	 DWORD PTR [edx+8], eax
  00043	eb 03		 jmp	 SHORT $LN4@Parse
$LN47@Parse:

; 1282 : 
; 1283 : 	if ( data )

  00045	8b 55 fc	 mov	 edx, DWORD PTR _this$1$[ebp]
$LN4@Parse:

; 1287 : 	}
; 1288 : 	if ( !p || !*p || *p != '<' )

  00048	85 f6		 test	 esi, esi
  0004a	0f 84 9c 00 00
	00		 je	 $LN6@Parse
  00050	8a 06		 mov	 al, BYTE PTR [esi]
  00052	84 c0		 test	 al, al
  00054	0f 84 92 00 00
	00		 je	 $LN6@Parse
  0005a	3c 3c		 cmp	 al, 60			; 0000003cH
  0005c	0f 85 8a 00 00
	00		 jne	 $LN6@Parse

; 1294 :     value = "";

  00062	8d 5a 20	 lea	 ebx, DWORD PTR [edx+32]
; File E:\Proyectos\JuegosOnlineproyectos\PB\pbblow\Piercing Blow Remake\i3Server\include\i3Base\tinystr.h

; 114  : 		return assign( copy, (size_type)strlen(copy));

  00065	6a 00		 push	 0
  00067	68 00 00 00 00	 push	 OFFSET ??_C@_00CNPNBAHC@@
  0006c	8b cb		 mov	 ecx, ebx
  0006e	e8 00 00 00 00	 call	 ?assign@TiXmlString@@QAEAAV1@PBDI@Z ; TiXmlString::assign
; File E:\Proyectos\JuegosOnlineproyectos\PB\pbblow\Piercing Blow Remake\i3Server\src\i3Base\tinyxmlparser.cpp

; 1293 : 	++p;

  00073	83 c6 01	 add	 esi, 1

; 1295 : 
; 1296 : 	while ( p && *p && *p != '>' )

  00076	74 1f		 je	 SHORT $LN44@Parse
$LL2@Parse:
  00078	8a 06		 mov	 al, BYTE PTR [esi]
  0007a	84 c0		 test	 al, al
  0007c	74 5a		 je	 SHORT $LN32@Parse
  0007e	3c 3e		 cmp	 al, 62			; 0000003eH
  00080	74 56		 je	 SHORT $LN32@Parse

; 1297 : 	{
; 1298 : 		value += *p;

  00082	88 45 10	 mov	 BYTE PTR _single$[ebp], al
; File E:\Proyectos\JuegosOnlineproyectos\PB\pbblow\Piercing Blow Remake\i3Server\include\i3Base\tinystr.h

; 133  : 		return append(&single, 1);

  00085	8b cb		 mov	 ecx, ebx
  00087	6a 01		 push	 1
  00089	8d 45 10	 lea	 eax, DWORD PTR _single$[ebp]
  0008c	50		 push	 eax
  0008d	e8 00 00 00 00	 call	 ?append@TiXmlString@@QAEAAV1@PBDI@Z ; TiXmlString::append
; File E:\Proyectos\JuegosOnlineproyectos\PB\pbblow\Piercing Blow Remake\i3Server\src\i3Base\tinyxmlparser.cpp

; 1299 : 		++p;

  00092	83 c6 01	 add	 esi, 1
  00095	75 e1		 jne	 SHORT $LL2@Parse
$LN44@Parse:

; 1300 : 	}
; 1301 : 
; 1302 : 	if ( !p )
; 1303 : 	{
; 1304 : 		if ( document )	document->SetError( TIXML_ERROR_PARSING_UNKNOWN, 0, 0, encoding );

  00097	85 ff		 test	 edi, edi
  00099	74 3d		 je	 SHORT $LN32@Parse

; 805  : 	if ( error )

  0009b	80 7f 2c 00	 cmp	 BYTE PTR [edi+44], 0
  0009f	75 37		 jne	 SHORT $LN32@Parse

; 806  : 		return;
; 807  : 
; 808  : 	I3ASSERT( err > 0 && err < TIXML_ERROR_STRING_COUNT );
; 809  : 	error   = true;

  000a1	c6 47 2c 01	 mov	 BYTE PTR [edi+44], 1

; 810  : 	errorId = err;

  000a5	c7 47 30 0a 00
	00 00		 mov	 DWORD PTR [edi+48], 10	; 0000000aH

; 811  : 	errorDesc = errorString[ errorId ];

  000ac	8b 15 28 00 00
	00		 mov	 edx, DWORD PTR ?errorString@TiXmlBase@@1PAPBDA+40
; File E:\Proyectos\JuegosOnlineproyectos\PB\pbblow\Piercing Blow Remake\i3Server\include\i3Base\tinystr.h

; 114  : 		return assign( copy, (size_type)strlen(copy));

  000b2	8b ca		 mov	 ecx, edx
  000b4	8d 59 01	 lea	 ebx, DWORD PTR [ecx+1]
$LL45@Parse:
  000b7	8a 01		 mov	 al, BYTE PTR [ecx]
  000b9	41		 inc	 ecx
  000ba	84 c0		 test	 al, al
  000bc	75 f9		 jne	 SHORT $LL45@Parse
  000be	2b cb		 sub	 ecx, ebx
  000c0	51		 push	 ecx
  000c1	52		 push	 edx
; File E:\Proyectos\JuegosOnlineproyectos\PB\pbblow\Piercing Blow Remake\i3Server\src\i3Base\tinyxmlparser.cpp

; 811  : 	errorDesc = errorString[ errorId ];

  000c2	8d 4f 34	 lea	 ecx, DWORD PTR [edi+52]
; File E:\Proyectos\JuegosOnlineproyectos\PB\pbblow\Piercing Blow Remake\i3Server\include\i3Base\tinystr.h

; 114  : 		return assign( copy, (size_type)strlen(copy));

  000c5	e8 00 00 00 00	 call	 ?assign@TiXmlString@@QAEAAV1@PBDI@Z ; TiXmlString::assign
; File E:\Proyectos\JuegosOnlineproyectos\PB\pbblow\Piercing Blow Remake\i3Server\include\i3Base\tinyxml.h

; 107  : 	void Clear()		{ row = col = -1; }

  000ca	c7 47 40 ff ff
	ff ff		 mov	 DWORD PTR [edi+64], -1
  000d1	c7 47 3c ff ff
	ff ff		 mov	 DWORD PTR [edi+60], -1
$LN32@Parse:
; File E:\Proyectos\JuegosOnlineproyectos\PB\pbblow\Piercing Blow Remake\i3Server\src\i3Base\tinyxmlparser.cpp

; 1306 : 	if ( *p == '>' )

  000d8	80 3e 3e	 cmp	 BYTE PTR [esi], 62	; 0000003eH
  000db	8d 46 01	 lea	 eax, DWORD PTR [esi+1]
  000de	5f		 pop	 edi
  000df	0f 44 f0	 cmove	 esi, eax

; 1307 : 		return p+1;

  000e2	8b c6		 mov	 eax, esi

; 1308 : 	return p;
; 1309 : }

  000e4	5e		 pop	 esi
  000e5	5b		 pop	 ebx
  000e6	8b e5		 mov	 esp, ebp
  000e8	5d		 pop	 ebp
  000e9	c2 0c 00	 ret	 12			; 0000000cH
$LN6@Parse:

; 1289 : 	{
; 1290 : 		if ( document ) document->SetError( TIXML_ERROR_PARSING_UNKNOWN, p, data, encoding );

  000ec	85 ff		 test	 edi, edi
  000ee	74 60		 je	 SHORT $LN18@Parse

; 805  : 	if ( error )

  000f0	80 7f 2c 00	 cmp	 BYTE PTR [edi+44], 0
  000f4	75 5a		 jne	 SHORT $LN18@Parse

; 806  : 		return;
; 807  : 
; 808  : 	I3ASSERT( err > 0 && err < TIXML_ERROR_STRING_COUNT );
; 809  : 	error   = true;

  000f6	c6 47 2c 01	 mov	 BYTE PTR [edi+44], 1

; 810  : 	errorId = err;

  000fa	c7 47 30 0a 00
	00 00		 mov	 DWORD PTR [edi+48], 10	; 0000000aH

; 811  : 	errorDesc = errorString[ errorId ];

  00101	8b 15 28 00 00
	00		 mov	 edx, DWORD PTR ?errorString@TiXmlBase@@1PAPBDA+40
; File E:\Proyectos\JuegosOnlineproyectos\PB\pbblow\Piercing Blow Remake\i3Server\include\i3Base\tinystr.h

; 114  : 		return assign( copy, (size_type)strlen(copy));

  00107	8b ca		 mov	 ecx, edx
  00109	8d 41 01	 lea	 eax, DWORD PTR [ecx+1]
  0010c	89 45 08	 mov	 DWORD PTR tv255[ebp], eax
  0010f	90		 npad	 1
$LL46@Parse:
  00110	8a 01		 mov	 al, BYTE PTR [ecx]
  00112	41		 inc	 ecx
  00113	84 c0		 test	 al, al
  00115	75 f9		 jne	 SHORT $LL46@Parse
  00117	2b 4d 08	 sub	 ecx, DWORD PTR tv255[ebp]
  0011a	51		 push	 ecx
  0011b	52		 push	 edx
; File E:\Proyectos\JuegosOnlineproyectos\PB\pbblow\Piercing Blow Remake\i3Server\src\i3Base\tinyxmlparser.cpp

; 811  : 	errorDesc = errorString[ errorId ];

  0011c	8d 4f 34	 lea	 ecx, DWORD PTR [edi+52]
; File E:\Proyectos\JuegosOnlineproyectos\PB\pbblow\Piercing Blow Remake\i3Server\include\i3Base\tinystr.h

; 114  : 		return assign( copy, (size_type)strlen(copy));

  0011f	e8 00 00 00 00	 call	 ?assign@TiXmlString@@QAEAAV1@PBDI@Z ; TiXmlString::assign
; File E:\Proyectos\JuegosOnlineproyectos\PB\pbblow\Piercing Blow Remake\i3Server\include\i3Base\tinyxml.h

; 107  : 	void Clear()		{ row = col = -1; }

  00124	c7 47 40 ff ff
	ff ff		 mov	 DWORD PTR [edi+64], -1
  0012b	c7 47 3c ff ff
	ff ff		 mov	 DWORD PTR [edi+60], -1
; File E:\Proyectos\JuegosOnlineproyectos\PB\pbblow\Piercing Blow Remake\i3Server\src\i3Base\tinyxmlparser.cpp

; 814  : 	if ( pError && data )

  00132	85 f6		 test	 esi, esi
  00134	74 1a		 je	 SHORT $LN18@Parse
  00136	85 db		 test	 ebx, ebx
  00138	74 16		 je	 SHORT $LN18@Parse

; 815  : 	{
; 816  : 		data->Stamp( pError, encoding );

  0013a	ff 75 10	 push	 DWORD PTR _encoding$[ebp]
  0013d	8b cb		 mov	 ecx, ebx
  0013f	56		 push	 esi
  00140	e8 00 00 00 00	 call	 ?Stamp@TiXmlParsingData@@QAEXPBDW4TiXmlEncoding@@@Z ; TiXmlParsingData::Stamp

; 817  : 		errorLocation = data->Cursor();

  00145	8b 03		 mov	 eax, DWORD PTR [ebx]
  00147	8b 4b 04	 mov	 ecx, DWORD PTR [ebx+4]
  0014a	89 47 3c	 mov	 DWORD PTR [edi+60], eax
  0014d	89 4f 40	 mov	 DWORD PTR [edi+64], ecx
$LN18@Parse:
  00150	5f		 pop	 edi

; 1308 : 	return p;
; 1309 : }

  00151	5e		 pop	 esi
  00152	33 c0		 xor	 eax, eax
  00154	5b		 pop	 ebx
  00155	8b e5		 mov	 esp, ebp
  00157	5d		 pop	 ebp
  00158	c2 0c 00	 ret	 12			; 0000000cH
?Parse@TiXmlUnknown@@UAEPBDPBDPAVTiXmlParsingData@@W4TiXmlEncoding@@@Z ENDP ; TiXmlUnknown::Parse
_TEXT	ENDS
; Function compile flags: /Ogtp
; File E:\Proyectos\JuegosOnlineproyectos\PB\pbblow\Piercing Blow Remake\i3Server\include\i3Base\tinyxml.h
;	COMDAT ??4TiXmlUnknown@@QAEXABV0@@Z
_TEXT	SEGMENT
_copy$ = 8						; size = 4
??4TiXmlUnknown@@QAEXABV0@@Z PROC			; TiXmlUnknown::operator=, COMDAT
; _this$ = ecx

; 1363 : 	void operator=( const TiXmlUnknown& copy )										{ copy.CopyTo( this ); }

  00000	55		 push	 ebp
  00001	8b ec		 mov	 ebp, esp
  00003	51		 push	 ecx
  00004	8b 4d 08	 mov	 ecx, DWORD PTR _copy$[ebp]
  00007	e8 00 00 00 00	 call	 ?CopyTo@TiXmlUnknown@@IBEXPAV1@@Z ; TiXmlUnknown::CopyTo
  0000c	5d		 pop	 ebp
  0000d	c2 04 00	 ret	 4
??4TiXmlUnknown@@QAEXABV0@@Z ENDP			; TiXmlUnknown::operator=
_TEXT	ENDS
; Function compile flags: /Ogtp
; File E:\Proyectos\JuegosOnlineproyectos\PB\pbblow\Piercing Blow Remake\i3Server\include\i3Base\tinyxml.h
;	COMDAT ??0TiXmlUnknown@@QAE@ABV0@@Z
_TEXT	SEGMENT
_this$ = -16						; size = 4
__$EHRec$ = -12						; size = 12
_copy$ = 8						; size = 4
??0TiXmlUnknown@@QAE@ABV0@@Z PROC			; TiXmlUnknown::TiXmlUnknown, COMDAT
; _this$ = ecx

; 1362 : 	TiXmlUnknown( const TiXmlUnknown& copy ) : TiXmlNode( TiXmlNode::UNKNOWN )		{ copy.CopyTo( this ); }

  00000	55		 push	 ebp
  00001	8b ec		 mov	 ebp, esp
  00003	6a ff		 push	 -1
  00005	68 00 00 00 00	 push	 __ehhandler$??0TiXmlUnknown@@QAE@ABV0@@Z
  0000a	64 a1 00 00 00
	00		 mov	 eax, DWORD PTR fs:0
  00010	50		 push	 eax
  00011	51		 push	 ecx
  00012	56		 push	 esi
  00013	a1 00 00 00 00	 mov	 eax, DWORD PTR ___security_cookie
  00018	33 c5		 xor	 eax, ebp
  0001a	50		 push	 eax
  0001b	8d 45 f4	 lea	 eax, DWORD PTR __$EHRec$[ebp]
  0001e	64 a3 00 00 00
	00		 mov	 DWORD PTR fs:0, eax
  00024	8b f1		 mov	 esi, ecx
  00026	89 75 f0	 mov	 DWORD PTR _this$[ebp], esi
  00029	6a 03		 push	 3
  0002b	e8 00 00 00 00	 call	 ??0TiXmlNode@@IAE@W4NodeType@0@@Z ; TiXmlNode::TiXmlNode
  00030	8b 4d 08	 mov	 ecx, DWORD PTR _copy$[ebp]
  00033	56		 push	 esi
  00034	c7 45 fc 00 00
	00 00		 mov	 DWORD PTR __$EHRec$[ebp+8], 0
  0003b	c7 06 00 00 00
	00		 mov	 DWORD PTR [esi], OFFSET ??_7TiXmlUnknown@@6B@
  00041	e8 00 00 00 00	 call	 ?CopyTo@TiXmlUnknown@@IBEXPAV1@@Z ; TiXmlUnknown::CopyTo
  00046	8b c6		 mov	 eax, esi
  00048	8b 4d f4	 mov	 ecx, DWORD PTR __$EHRec$[ebp]
  0004b	64 89 0d 00 00
	00 00		 mov	 DWORD PTR fs:0, ecx
  00052	59		 pop	 ecx
  00053	5e		 pop	 esi
  00054	8b e5		 mov	 esp, ebp
  00056	5d		 pop	 ebp
  00057	c2 04 00	 ret	 4
_TEXT	ENDS
;	COMDAT text$x
text$x	SEGMENT
__unwindfunclet$??0TiXmlUnknown@@QAE@ABV0@@Z$0:
  00000	8b 4d f0	 mov	 ecx, DWORD PTR _this$[ebp]
  00003	e9 00 00 00 00	 jmp	 ??1TiXmlNode@@UAE@XZ	; TiXmlNode::~TiXmlNode
  00008	cc		 int	 3
  00009	cc		 int	 3
  0000a	cc		 int	 3
  0000b	cc		 int	 3
  0000c	cc		 int	 3
__ehhandler$??0TiXmlUnknown@@QAE@ABV0@@Z:
  0000d	90		 npad	 1
  0000e	90		 npad	 1
  0000f	8b 54 24 08	 mov	 edx, DWORD PTR [esp+8]
  00013	8d 42 0c	 lea	 eax, DWORD PTR [edx+12]
  00016	8b 4a f4	 mov	 ecx, DWORD PTR [edx-12]
  00019	33 c8		 xor	 ecx, eax
  0001b	e8 00 00 00 00	 call	 @__security_check_cookie@4
  00020	b8 00 00 00 00	 mov	 eax, OFFSET __ehfuncinfo$??0TiXmlUnknown@@QAE@ABV0@@Z
  00025	e9 00 00 00 00	 jmp	 ___CxxFrameHandler3
text$x	ENDS
??0TiXmlUnknown@@QAE@ABV0@@Z ENDP			; TiXmlUnknown::TiXmlUnknown
; Function compile flags: /Ogtp
; File E:\Proyectos\JuegosOnlineproyectos\PB\pbblow\Piercing Blow Remake\i3Server\include\i3Base\tinyxml.h
;	COMDAT ??1TiXmlUnknown@@UAE@XZ
_TEXT	SEGMENT
??1TiXmlUnknown@@UAE@XZ PROC				; TiXmlUnknown::~TiXmlUnknown, COMDAT
; _this$ = ecx

; 1360 : 	virtual ~TiXmlUnknown() {}

  00000	c7 01 00 00 00
	00		 mov	 DWORD PTR [ecx], OFFSET ??_7TiXmlUnknown@@6B@
  00006	e9 00 00 00 00	 jmp	 ??1TiXmlNode@@UAE@XZ	; TiXmlNode::~TiXmlNode
??1TiXmlUnknown@@UAE@XZ ENDP				; TiXmlUnknown::~TiXmlUnknown
_TEXT	ENDS
; Function compile flags: /Ogtp
; File E:\Proyectos\JuegosOnlineproyectos\PB\pbblow\Piercing Blow Remake\i3Server\include\i3Base\tinyxml.h
;	COMDAT ??0TiXmlUnknown@@QAE@XZ
_TEXT	SEGMENT
_this$ = -4						; size = 4
??0TiXmlUnknown@@QAE@XZ PROC				; TiXmlUnknown::TiXmlUnknown, COMDAT
; _this$ = ecx

; 1359 : 	TiXmlUnknown() : TiXmlNode( TiXmlNode::UNKNOWN )	{}

  00000	55		 push	 ebp
  00001	8b ec		 mov	 ebp, esp
  00003	51		 push	 ecx
  00004	56		 push	 esi
  00005	8b f1		 mov	 esi, ecx
  00007	6a 03		 push	 3
  00009	89 75 fc	 mov	 DWORD PTR _this$[ebp], esi
  0000c	e8 00 00 00 00	 call	 ??0TiXmlNode@@IAE@W4NodeType@0@@Z ; TiXmlNode::TiXmlNode
  00011	c7 06 00 00 00
	00		 mov	 DWORD PTR [esi], OFFSET ??_7TiXmlUnknown@@6B@
  00017	8b c6		 mov	 eax, esi
  00019	5e		 pop	 esi
  0001a	8b e5		 mov	 esp, ebp
  0001c	5d		 pop	 ebp
  0001d	c3		 ret	 0
??0TiXmlUnknown@@QAE@XZ ENDP				; TiXmlUnknown::TiXmlUnknown
_TEXT	ENDS
; Function compile flags: /Ogtp
; File E:\Proyectos\JuegosOnlineproyectos\PB\pbblow\Piercing Blow Remake\i3Server\include\i3Base\tinyxml.h
; File E:\Proyectos\JuegosOnlineproyectos\PB\pbblow\Piercing Blow Remake\i3Server\include\i3Base\tinystr.h
; File E:\Proyectos\JuegosOnlineproyectos\PB\pbblow\Piercing Blow Remake\i3Server\include\i3Base\tinyxml.h
;	COMDAT ??_ETiXmlDeclaration@@UAEPAXI@Z
_TEXT	SEGMENT
__$EHRec$ = -12						; size = 12
___flags$ = 8						; size = 4
??_ETiXmlDeclaration@@UAEPAXI@Z PROC			; TiXmlDeclaration::`vector deleting destructor', COMDAT
; _this$ = ecx
  00000	55		 push	 ebp
  00001	8b ec		 mov	 ebp, esp
  00003	6a ff		 push	 -1
  00005	68 00 00 00 00	 push	 __ehhandler$??_ETiXmlDeclaration@@UAEPAXI@Z
  0000a	64 a1 00 00 00
	00		 mov	 eax, DWORD PTR fs:0
  00010	50		 push	 eax
  00011	53		 push	 ebx
  00012	56		 push	 esi
  00013	57		 push	 edi
  00014	a1 00 00 00 00	 mov	 eax, DWORD PTR ___security_cookie
  00019	33 c5		 xor	 eax, ebp
  0001b	50		 push	 eax
  0001c	8d 45 f4	 lea	 eax, DWORD PTR __$EHRec$[ebp]
  0001f	64 a3 00 00 00
	00		 mov	 DWORD PTR fs:0, eax
  00025	8b f1		 mov	 esi, ecx
  00027	8b 5d 08	 mov	 ebx, DWORD PTR ___flags$[ebp]
  0002a	f6 c3 02	 test	 bl, 2
  0002d	74 4a		 je	 SHORT $LN2@vector
  0002f	68 00 00 00 00	 push	 OFFSET ??1TiXmlDeclaration@@UAE@XZ ; TiXmlDeclaration::~TiXmlDeclaration
  00034	ff 76 fc	 push	 DWORD PTR [esi-4]
  00037	8d 7e fc	 lea	 edi, DWORD PTR [esi-4]
  0003a	6a 38		 push	 56			; 00000038H
  0003c	56		 push	 esi
  0003d	e8 00 00 00 00	 call	 ??_M@YGXPAXIIP6EX0@Z@Z
  00042	f6 c3 01	 test	 bl, 1
  00045	74 1c		 je	 SHORT $LN3@vector
  00047	8b 0f		 mov	 ecx, DWORD PTR [edi]
  00049	8d 14 cd 00 00
	00 00		 lea	 edx, DWORD PTR [ecx*8]
  00050	2b d1		 sub	 edx, ecx
  00052	8d 0c d5 04 00
	00 00		 lea	 ecx, DWORD PTR [edx*8+4]
  00059	51		 push	 ecx
  0005a	57		 push	 edi
  0005b	e8 00 00 00 00	 call	 ??_V@YAXPAXI@Z		; operator delete[]
  00060	83 c4 08	 add	 esp, 8
$LN3@vector:
  00063	8b c7		 mov	 eax, edi
  00065	8b 4d f4	 mov	 ecx, DWORD PTR __$EHRec$[ebp]
  00068	64 89 0d 00 00
	00 00		 mov	 DWORD PTR fs:0, ecx
  0006f	59		 pop	 ecx
  00070	5f		 pop	 edi
  00071	5e		 pop	 esi
  00072	5b		 pop	 ebx
  00073	8b e5		 mov	 esp, ebp
  00075	5d		 pop	 ebp
  00076	c2 04 00	 ret	 4
$LN2@vector:

; 1308 : 	virtual ~TiXmlDeclaration()	{}

  00079	c7 06 00 00 00
	00		 mov	 DWORD PTR [esi], OFFSET ??_7TiXmlDeclaration@@6B@
; File E:\Proyectos\JuegosOnlineproyectos\PB\pbblow\Piercing Blow Remake\i3Server\include\i3Base\tinystr.h

; 257  : 		if (rep_ != &nullrep_)

  0007f	8b 46 34	 mov	 eax, DWORD PTR [esi+52]
  00082	3d 00 00 00 00	 cmp	 eax, OFFSET ?nullrep_@TiXmlString@@0URep@1@A ; TiXmlString::nullrep_
  00087	74 09		 je	 SHORT $LN16@vector

; 258  : 		{
; 259  : 			// The rep_ is really an array of ints. (see the allocator, above).
; 260  : 			// Cast it back before delete, so the compiler won't incorrectly call destructors.
; 261  : 			delete [] ( reinterpret_cast<int*>( rep_ ) );

  00089	50		 push	 eax
  0008a	e8 00 00 00 00	 call	 ??_V@YAXPAX@Z		; operator delete[]
  0008f	83 c4 04	 add	 esp, 4
$LN16@vector:

; 257  : 		if (rep_ != &nullrep_)

  00092	8b 46 30	 mov	 eax, DWORD PTR [esi+48]
  00095	3d 00 00 00 00	 cmp	 eax, OFFSET ?nullrep_@TiXmlString@@0URep@1@A ; TiXmlString::nullrep_
  0009a	74 09		 je	 SHORT $LN22@vector

; 258  : 		{
; 259  : 			// The rep_ is really an array of ints. (see the allocator, above).
; 260  : 			// Cast it back before delete, so the compiler won't incorrectly call destructors.
; 261  : 			delete [] ( reinterpret_cast<int*>( rep_ ) );

  0009c	50		 push	 eax
  0009d	e8 00 00 00 00	 call	 ??_V@YAXPAX@Z		; operator delete[]
  000a2	83 c4 04	 add	 esp, 4
$LN22@vector:

; 257  : 		if (rep_ != &nullrep_)

  000a5	8b 46 2c	 mov	 eax, DWORD PTR [esi+44]
  000a8	3d 00 00 00 00	 cmp	 eax, OFFSET ?nullrep_@TiXmlString@@0URep@1@A ; TiXmlString::nullrep_
  000ad	74 09		 je	 SHORT $LN28@vector

; 258  : 		{
; 259  : 			// The rep_ is really an array of ints. (see the allocator, above).
; 260  : 			// Cast it back before delete, so the compiler won't incorrectly call destructors.
; 261  : 			delete [] ( reinterpret_cast<int*>( rep_ ) );

  000af	50		 push	 eax
  000b0	e8 00 00 00 00	 call	 ??_V@YAXPAX@Z		; operator delete[]
  000b5	83 c4 04	 add	 esp, 4
$LN28@vector:
; File E:\Proyectos\JuegosOnlineproyectos\PB\pbblow\Piercing Blow Remake\i3Server\include\i3Base\tinyxml.h

; 1308 : 	virtual ~TiXmlDeclaration()	{}

  000b8	8b ce		 mov	 ecx, esi
  000ba	e8 00 00 00 00	 call	 ??1TiXmlNode@@UAE@XZ	; TiXmlNode::~TiXmlNode
  000bf	f6 c3 01	 test	 bl, 1
  000c2	74 0b		 je	 SHORT $LN4@vector
  000c4	6a 38		 push	 56			; 00000038H
  000c6	56		 push	 esi
  000c7	e8 00 00 00 00	 call	 ??3@YAXPAXI@Z		; operator delete
  000cc	83 c4 08	 add	 esp, 8
$LN4@vector:
  000cf	8b c6		 mov	 eax, esi
  000d1	8b 4d f4	 mov	 ecx, DWORD PTR __$EHRec$[ebp]
  000d4	64 89 0d 00 00
	00 00		 mov	 DWORD PTR fs:0, ecx
  000db	59		 pop	 ecx
  000dc	5f		 pop	 edi
  000dd	5e		 pop	 esi
  000de	5b		 pop	 ebx
  000df	8b e5		 mov	 esp, ebp
  000e1	5d		 pop	 ebp
  000e2	c2 04 00	 ret	 4
  000e5	cc		 int	 3
  000e6	cc		 int	 3
  000e7	cc		 int	 3
  000e8	cc		 int	 3
  000e9	cc		 int	 3
_TEXT	ENDS
;	COMDAT text$x
text$x	SEGMENT
__ehhandler$??_ETiXmlDeclaration@@UAEPAXI@Z:
  00000	90		 npad	 1
  00001	90		 npad	 1
  00002	8b 54 24 08	 mov	 edx, DWORD PTR [esp+8]
  00006	8d 42 0c	 lea	 eax, DWORD PTR [edx+12]
  00009	8b 4a f0	 mov	 ecx, DWORD PTR [edx-16]
  0000c	33 c8		 xor	 ecx, eax
  0000e	e8 00 00 00 00	 call	 @__security_check_cookie@4
  00013	b8 00 00 00 00	 mov	 eax, OFFSET __ehfuncinfo$??_ETiXmlDeclaration@@UAEPAXI@Z
  00018	e9 00 00 00 00	 jmp	 ___CxxFrameHandler3
text$x	ENDS
??_ETiXmlDeclaration@@UAEPAXI@Z ENDP			; TiXmlDeclaration::`vector deleting destructor'
; Function compile flags: /Ogtp
; File E:\Proyectos\JuegosOnlineproyectos\PB\pbblow\Piercing Blow Remake\i3Server\include\i3Base\tinyxml.h
; File E:\Proyectos\JuegosOnlineproyectos\PB\pbblow\Piercing Blow Remake\i3Server\include\i3Base\tinystr.h
; File E:\Proyectos\JuegosOnlineproyectos\PB\pbblow\Piercing Blow Remake\i3Server\include\i3Base\tinyxml.h
;	COMDAT ??_GTiXmlDeclaration@@UAEPAXI@Z
_TEXT	SEGMENT
___flags$ = 8						; size = 4
??_GTiXmlDeclaration@@UAEPAXI@Z PROC			; TiXmlDeclaration::`scalar deleting destructor', COMDAT
; _this$ = ecx
  00000	55		 push	 ebp
  00001	8b ec		 mov	 ebp, esp

; 1308 : 	virtual ~TiXmlDeclaration()	{}

  00003	56		 push	 esi
  00004	8b f1		 mov	 esi, ecx
  00006	c7 06 00 00 00
	00		 mov	 DWORD PTR [esi], OFFSET ??_7TiXmlDeclaration@@6B@
; File E:\Proyectos\JuegosOnlineproyectos\PB\pbblow\Piercing Blow Remake\i3Server\include\i3Base\tinystr.h

; 257  : 		if (rep_ != &nullrep_)

  0000c	8b 46 34	 mov	 eax, DWORD PTR [esi+52]
  0000f	3d 00 00 00 00	 cmp	 eax, OFFSET ?nullrep_@TiXmlString@@0URep@1@A ; TiXmlString::nullrep_
  00014	74 09		 je	 SHORT $LN14@scalar

; 258  : 		{
; 259  : 			// The rep_ is really an array of ints. (see the allocator, above).
; 260  : 			// Cast it back before delete, so the compiler won't incorrectly call destructors.
; 261  : 			delete [] ( reinterpret_cast<int*>( rep_ ) );

  00016	50		 push	 eax
  00017	e8 00 00 00 00	 call	 ??_V@YAXPAX@Z		; operator delete[]
  0001c	83 c4 04	 add	 esp, 4
$LN14@scalar:

; 257  : 		if (rep_ != &nullrep_)

  0001f	8b 46 30	 mov	 eax, DWORD PTR [esi+48]
  00022	3d 00 00 00 00	 cmp	 eax, OFFSET ?nullrep_@TiXmlString@@0URep@1@A ; TiXmlString::nullrep_
  00027	74 09		 je	 SHORT $LN20@scalar

; 258  : 		{
; 259  : 			// The rep_ is really an array of ints. (see the allocator, above).
; 260  : 			// Cast it back before delete, so the compiler won't incorrectly call destructors.
; 261  : 			delete [] ( reinterpret_cast<int*>( rep_ ) );

  00029	50		 push	 eax
  0002a	e8 00 00 00 00	 call	 ??_V@YAXPAX@Z		; operator delete[]
  0002f	83 c4 04	 add	 esp, 4
$LN20@scalar:

; 257  : 		if (rep_ != &nullrep_)

  00032	8b 46 2c	 mov	 eax, DWORD PTR [esi+44]
  00035	3d 00 00 00 00	 cmp	 eax, OFFSET ?nullrep_@TiXmlString@@0URep@1@A ; TiXmlString::nullrep_
  0003a	74 09		 je	 SHORT $LN26@scalar

; 258  : 		{
; 259  : 			// The rep_ is really an array of ints. (see the allocator, above).
; 260  : 			// Cast it back before delete, so the compiler won't incorrectly call destructors.
; 261  : 			delete [] ( reinterpret_cast<int*>( rep_ ) );

  0003c	50		 push	 eax
  0003d	e8 00 00 00 00	 call	 ??_V@YAXPAX@Z		; operator delete[]
  00042	83 c4 04	 add	 esp, 4
$LN26@scalar:
; File E:\Proyectos\JuegosOnlineproyectos\PB\pbblow\Piercing Blow Remake\i3Server\include\i3Base\tinyxml.h

; 1308 : 	virtual ~TiXmlDeclaration()	{}

  00045	8b ce		 mov	 ecx, esi
  00047	e8 00 00 00 00	 call	 ??1TiXmlNode@@UAE@XZ	; TiXmlNode::~TiXmlNode
  0004c	f6 45 08 01	 test	 BYTE PTR ___flags$[ebp], 1
  00050	74 0b		 je	 SHORT $LN28@scalar
  00052	6a 38		 push	 56			; 00000038H
  00054	56		 push	 esi
  00055	e8 00 00 00 00	 call	 ??3@YAXPAXI@Z		; operator delete
  0005a	83 c4 08	 add	 esp, 8
$LN28@scalar:
  0005d	8b c6		 mov	 eax, esi
  0005f	5e		 pop	 esi
  00060	5d		 pop	 ebp
  00061	c2 04 00	 ret	 4
??_GTiXmlDeclaration@@UAEPAXI@Z ENDP			; TiXmlDeclaration::`scalar deleting destructor'
_TEXT	ENDS
; Function compile flags: /Ogtp
; File E:\Proyectos\JuegosOnlineproyectos\PB\pbblow\Piercing Blow Remake\i3Server\include\i3Base\tinyxml.h
;	COMDAT ?ToDeclaration@TiXmlDeclaration@@UAEPAV1@XZ
_TEXT	SEGMENT
?ToDeclaration@TiXmlDeclaration@@UAEPAV1@XZ PROC	; TiXmlDeclaration::ToDeclaration, COMDAT
; _this$ = ecx

; 1328 : 	virtual TiXmlDeclaration*       ToDeclaration()       { return this; } ///< Cast to a more defined type. Will return null not of the requested type.

  00000	8b c1		 mov	 eax, ecx
  00002	c3		 ret	 0
?ToDeclaration@TiXmlDeclaration@@UAEPAV1@XZ ENDP	; TiXmlDeclaration::ToDeclaration
_TEXT	ENDS
; Function compile flags: /Ogtp
; File E:\Proyectos\JuegosOnlineproyectos\PB\pbblow\Piercing Blow Remake\i3Server\include\i3Base\tinyxml.h
;	COMDAT ?ToDeclaration@TiXmlDeclaration@@UBEPBV1@XZ
_TEXT	SEGMENT
?ToDeclaration@TiXmlDeclaration@@UBEPBV1@XZ PROC	; TiXmlDeclaration::ToDeclaration, COMDAT
; _this$ = ecx

; 1327 : 	virtual const TiXmlDeclaration* ToDeclaration() const { return this; } ///< Cast to a more defined type. Will return null not of the requested type.

  00000	8b c1		 mov	 eax, ecx
  00002	c3		 ret	 0
?ToDeclaration@TiXmlDeclaration@@UBEPBV1@XZ ENDP	; TiXmlDeclaration::ToDeclaration
_TEXT	ENDS
; Function compile flags: /Ogtp
; File E:\Proyectos\JuegosOnlineproyectos\PB\pbblow\Piercing Blow Remake\i3Server\src\i3Base\tinyxmlparser.cpp
; File E:\Proyectos\JuegosOnlineproyectos\PB\pbblow\Piercing Blow Remake\i3Server\include\i3Base\tinyxml.h
; File E:\Proyectos\JuegosOnlineproyectos\PB\pbblow\Piercing Blow Remake\i3Server\src\i3Base\tinyxmlparser.cpp
; File E:\Proyectos\JuegosOnlineproyectos\PB\pbblow\Piercing Blow Remake\i3Server\include\i3Base\tinyxml.h
; File E:\Proyectos\JuegosOnlineproyectos\PB\pbblow\Piercing Blow Remake\i3Server\src\i3Base\tinyxmlparser.cpp
; File E:\Proyectos\JuegosOnlineproyectos\PB\pbblow\Piercing Blow Remake\i3Server\include\i3Base\tinyxml.h
; File E:\Proyectos\JuegosOnlineproyectos\PB\pbblow\Piercing Blow Remake\i3Server\src\i3Base\tinyxmlparser.cpp
; File E:\Proyectos\JuegosOnlineproyectos\PB\pbblow\Piercing Blow Remake\i3Server\include\i3Base\tinystr.h
; File E:\Proyectos\JuegosOnlineproyectos\PB\pbblow\Piercing Blow Remake\i3Server\src\i3Base\tinyxmlparser.cpp
; File E:\Proyectos\JuegosOnlineproyectos\PB\pbblow\Piercing Blow Remake\i3Server\include\i3Base\tinystr.h
; File E:\Proyectos\JuegosOnlineproyectos\PB\pbblow\Piercing Blow Remake\i3Server\src\i3Base\tinyxmlparser.cpp
; File E:\Proyectos\JuegosOnlineproyectos\PB\pbblow\Piercing Blow Remake\i3Server\include\i3Base\tinystr.h
; File E:\Proyectos\JuegosOnlineproyectos\PB\pbblow\Piercing Blow Remake\i3Server\src\i3Base\tinyxmlparser.cpp
; File E:\Proyectos\JuegosOnlineproyectos\PB\pbblow\Piercing Blow Remake\i3Server\include\i3Base\tinystr.h
; File E:\Proyectos\JuegosOnlineproyectos\PB\pbblow\Piercing Blow Remake\i3Server\src\i3Base\tinyxmlparser.cpp
; File E:\Proyectos\JuegosOnlineproyectos\PB\pbblow\Piercing Blow Remake\i3Server\include\i3Base\tinystr.h
; File E:\Proyectos\JuegosOnlineproyectos\PB\pbblow\Piercing Blow Remake\i3Server\src\i3Base\tinyxmlparser.cpp
; File E:\Proyectos\JuegosOnlineproyectos\PB\pbblow\Piercing Blow Remake\i3Server\include\i3Base\tinystr.h
; File E:\Proyectos\JuegosOnlineproyectos\PB\pbblow\Piercing Blow Remake\i3Server\src\i3Base\tinyxmlparser.cpp
; File E:\Proyectos\JuegosOnlineproyectos\PB\pbblow\Piercing Blow Remake\i3Server\include\i3Base\tinyxml.h
; File E:\Proyectos\JuegosOnlineproyectos\PB\pbblow\Piercing Blow Remake\i3Server\src\i3Base\tinyxmlparser.cpp
; File E:\Proyectos\JuegosOnlineproyectos\PB\pbblow\Piercing Blow Remake\i3Server\include\i3Base\tinyxml.h
; File E:\Proyectos\JuegosOnlineproyectos\PB\pbblow\Piercing Blow Remake\i3Server\include\i3Base\tinystr.h
; File E:\Proyectos\JuegosOnlineproyectos\PB\pbblow\Piercing Blow Remake\i3Server\include\i3Base\tinyxml.h
; File E:\Proyectos\JuegosOnlineproyectos\PB\pbblow\Piercing Blow Remake\i3Server\src\i3Base\tinyxmlparser.cpp
; File E:\Proyectos\JuegosOnlineproyectos\PB\pbblow\Piercing Blow Remake\i3Server\include\i3Base\tinystr.h
; File E:\Proyectos\JuegosOnlineproyectos\PB\pbblow\Piercing Blow Remake\i3Server\src\i3Base\tinyxmlparser.cpp
; File E:\Proyectos\JuegosOnlineproyectos\PB\pbblow\Piercing Blow Remake\i3Server\include\i3Base\tinystr.h
; File E:\Proyectos\JuegosOnlineproyectos\PB\pbblow\Piercing Blow Remake\i3Server\src\i3Base\tinyxmlparser.cpp
; File E:\Proyectos\JuegosOnlineproyectos\PB\pbblow\Piercing Blow Remake\i3Server\include\i3Base\tinystr.h
; File E:\Proyectos\JuegosOnlineproyectos\PB\pbblow\Piercing Blow Remake\i3Server\src\i3Base\tinyxmlparser.cpp
; File E:\Proyectos\JuegosOnlineproyectos\PB\pbblow\Piercing Blow Remake\i3Server\include\i3Base\tinyxml.h
; File E:\Proyectos\JuegosOnlineproyectos\PB\pbblow\Piercing Blow Remake\i3Server\src\i3Base\tinyxmlparser.cpp
; File E:\Proyectos\JuegosOnlineproyectos\PB\pbblow\Piercing Blow Remake\i3Server\include\i3Base\tinyxml.h
; File E:\Proyectos\JuegosOnlineproyectos\PB\pbblow\Piercing Blow Remake\i3Server\include\i3Base\tinystr.h
; File E:\Proyectos\JuegosOnlineproyectos\PB\pbblow\Piercing Blow Remake\i3Server\include\i3Base\tinyxml.h
; File E:\Proyectos\JuegosOnlineproyectos\PB\pbblow\Piercing Blow Remake\i3Server\src\i3Base\tinyxmlparser.cpp
; File E:\Proyectos\JuegosOnlineproyectos\PB\pbblow\Piercing Blow Remake\i3Server\include\i3Base\tinystr.h
; File E:\Proyectos\JuegosOnlineproyectos\PB\pbblow\Piercing Blow Remake\i3Server\src\i3Base\tinyxmlparser.cpp
; File E:\Proyectos\JuegosOnlineproyectos\PB\pbblow\Piercing Blow Remake\i3Server\include\i3Base\tinystr.h
; File E:\Proyectos\JuegosOnlineproyectos\PB\pbblow\Piercing Blow Remake\i3Server\src\i3Base\tinyxmlparser.cpp
; File E:\Proyectos\JuegosOnlineproyectos\PB\pbblow\Piercing Blow Remake\i3Server\include\i3Base\tinystr.h
; File E:\Proyectos\JuegosOnlineproyectos\PB\pbblow\Piercing Blow Remake\i3Server\src\i3Base\tinyxmlparser.cpp
; File E:\Proyectos\JuegosOnlineproyectos\PB\pbblow\Piercing Blow Remake\i3Server\include\i3Base\tinyxml.h
; File E:\Proyectos\JuegosOnlineproyectos\PB\pbblow\Piercing Blow Remake\i3Server\src\i3Base\tinyxmlparser.cpp
; File E:\Proyectos\JuegosOnlineproyectos\PB\pbblow\Piercing Blow Remake\i3Server\include\i3Base\tinyxml.h
; File E:\Proyectos\JuegosOnlineproyectos\PB\pbblow\Piercing Blow Remake\i3Server\include\i3Base\tinystr.h
; File E:\Proyectos\JuegosOnlineproyectos\PB\pbblow\Piercing Blow Remake\i3Server\include\i3Base\tinyxml.h
; File E:\Proyectos\JuegosOnlineproyectos\PB\pbblow\Piercing Blow Remake\i3Server\src\i3Base\tinyxmlparser.cpp
; File E:\Proyectos\JuegosOnlineproyectos\PB\pbblow\Piercing Blow Remake\i3Server\include\i3Base\tinystr.h
; File E:\Proyectos\JuegosOnlineproyectos\PB\pbblow\Piercing Blow Remake\i3Server\src\i3Base\tinyxmlparser.cpp
; File E:\Proyectos\JuegosOnlineproyectos\PB\pbblow\Piercing Blow Remake\i3Server\include\i3Base\tinystr.h
; File E:\Proyectos\JuegosOnlineproyectos\PB\pbblow\Piercing Blow Remake\i3Server\src\i3Base\tinyxmlparser.cpp
; File E:\Proyectos\JuegosOnlineproyectos\PB\pbblow\Piercing Blow Remake\i3Server\include\i3Base\tinystr.h
; File E:\Proyectos\JuegosOnlineproyectos\PB\pbblow\Piercing Blow Remake\i3Server\src\i3Base\tinyxmlparser.cpp
; File E:\Proyectos\JuegosOnlineproyectos\PB\pbblow\Piercing Blow Remake\i3Server\include\i3Base\tinyxml.h
; File E:\Proyectos\JuegosOnlineproyectos\PB\pbblow\Piercing Blow Remake\i3Server\src\i3Base\tinyxmlparser.cpp
; File E:\Proyectos\JuegosOnlineproyectos\PB\pbblow\Piercing Blow Remake\i3Server\include\i3Base\tinystr.h
; File E:\Proyectos\JuegosOnlineproyectos\PB\pbblow\Piercing Blow Remake\i3Server\src\i3Base\tinyxmlparser.cpp
; File E:\Proyectos\JuegosOnlineproyectos\PB\pbblow\Piercing Blow Remake\i3Server\include\i3Base\tinystr.h
; File E:\Proyectos\JuegosOnlineproyectos\PB\pbblow\Piercing Blow Remake\i3Server\include\i3Base\tinyxml.h
; File E:\Proyectos\JuegosOnlineproyectos\PB\pbblow\Piercing Blow Remake\i3Server\src\i3Base\tinyxmlparser.cpp
;	COMDAT ?Parse@TiXmlDeclaration@@UAEPBDPBDPAVTiXmlParsingData@@W4TiXmlEncoding@@@Z
_TEXT	SEGMENT
_attrib$2 = -132					; size = 36
_attrib$3 = -96						; size = 36
_attrib$4 = -60						; size = 36
_document$1$ = -24					; size = 4
tv1005 = -24						; size = 4
tv1006 = -20						; size = 4
_this$1$ = -16						; size = 4
tv1007 = -16						; size = 4
__$EHRec$ = -12						; size = 12
_p$ = 8							; size = 4
tv998 = 8						; size = 4
tv1000 = 8						; size = 4
tv1004 = 8						; size = 4
tv1008 = 8						; size = 4
_data$ = 12						; size = 4
__encoding$ = 16					; size = 4
?Parse@TiXmlDeclaration@@UAEPBDPBDPAVTiXmlParsingData@@W4TiXmlEncoding@@@Z PROC ; TiXmlDeclaration::Parse, COMDAT
; _this$ = ecx

; 1577 : {

  00000	55		 push	 ebp
  00001	8b ec		 mov	 ebp, esp
  00003	6a ff		 push	 -1
  00005	68 00 00 00 00	 push	 __ehhandler$?Parse@TiXmlDeclaration@@UAEPBDPBDPAVTiXmlParsingData@@W4TiXmlEncoding@@@Z
  0000a	64 a1 00 00 00
	00		 mov	 eax, DWORD PTR fs:0
  00010	50		 push	 eax
  00011	83 ec 78	 sub	 esp, 120		; 00000078H
  00014	53		 push	 ebx
  00015	56		 push	 esi
  00016	57		 push	 edi
  00017	a1 00 00 00 00	 mov	 eax, DWORD PTR ___security_cookie
  0001c	33 c5		 xor	 eax, ebp
  0001e	50		 push	 eax
  0001f	8d 45 f4	 lea	 eax, DWORD PTR __$EHRec$[ebp]
  00022	64 a3 00 00 00
	00		 mov	 DWORD PTR fs:0, eax
  00028	8b f1		 mov	 esi, ecx
  0002a	89 75 f0	 mov	 DWORD PTR _this$1$[ebp], esi

; 1578 : 	p = SkipWhiteSpace( p, _encoding );

  0002d	ff 75 10	 push	 DWORD PTR __encoding$[ebp]
  00030	ff 75 08	 push	 DWORD PTR _p$[ebp]
  00033	e8 00 00 00 00	 call	 ?SkipWhiteSpace@TiXmlBase@@KAPBDPBDW4TiXmlEncoding@@@Z ; TiXmlBase::SkipWhiteSpace
  00038	83 c4 08	 add	 esp, 8
; File E:\Proyectos\JuegosOnlineproyectos\PB\pbblow\Piercing Blow Remake\i3Server\include\i3Base\tinyxml.h

; 695  : 		return const_cast< TiXmlDocument* >( (const_cast< const TiXmlNode* >(this))->GetDocument() );

  0003b	8b ce		 mov	 ecx, esi
; File E:\Proyectos\JuegosOnlineproyectos\PB\pbblow\Piercing Blow Remake\i3Server\src\i3Base\tinyxmlparser.cpp

; 1578 : 	p = SkipWhiteSpace( p, _encoding );

  0003d	8b f8		 mov	 edi, eax
; File E:\Proyectos\JuegosOnlineproyectos\PB\pbblow\Piercing Blow Remake\i3Server\include\i3Base\tinyxml.h

; 695  : 		return const_cast< TiXmlDocument* >( (const_cast< const TiXmlNode* >(this))->GetDocument() );

  0003f	e8 00 00 00 00	 call	 ?GetDocument@TiXmlNode@@QBEPBVTiXmlDocument@@XZ ; TiXmlNode::GetDocument
; File E:\Proyectos\JuegosOnlineproyectos\PB\pbblow\Piercing Blow Remake\i3Server\src\i3Base\tinyxmlparser.cpp

; 1581 : 	TiXmlDocument* document = GetDocument();

  00044	8b d8		 mov	 ebx, eax
  00046	89 5d e8	 mov	 DWORD PTR _document$1$[ebp], ebx

; 1582 : 	if ( !p || !*p || !StringEqual( p, "<?xml", true, _encoding ) )

  00049	85 ff		 test	 edi, edi
  0004b	0f 84 39 04 00
	00		 je	 $LN7@Parse
  00051	80 3f 00	 cmp	 BYTE PTR [edi], 0
  00054	0f 84 30 04 00
	00		 je	 $LN7@Parse
  0005a	be 00 00 00 00	 mov	 esi, OFFSET ??_C@_05DJDIECHG@?$DM?$DPxml@

; 551  : 	const char* q = p;

  0005f	8b df		 mov	 ebx, edi
$LL174@Parse:

; 555  : 		while ( *q && *tag && ToLower( *q, encoding ) == ToLower( *tag, encoding ) )

  00061	80 3e 00	 cmp	 BYTE PTR [esi], 0
  00064	74 30		 je	 SHORT $LN281@Parse
  00066	0f be 03	 movsx	 eax, BYTE PTR [ebx]
; File E:\Proyectos\JuegosOnlineproyectos\PB\pbblow\Piercing Blow Remake\i3Server\include\i3Base\tinyxml.h

; 388  : 		if ( encoding == TIXML_ENCODING_UTF8 )

  00069	50		 push	 eax
  0006a	e8 00 00 00 00	 call	 _tolower
  0006f	83 c4 04	 add	 esp, 4
  00072	89 45 08	 mov	 DWORD PTR tv1008[ebp], eax
  00075	0f be 06	 movsx	 eax, BYTE PTR [esi]
; File E:\Proyectos\JuegosOnlineproyectos\PB\pbblow\Piercing Blow Remake\i3Server\src\i3Base\tinyxmlparser.cpp

; 555  : 		while ( *q && *tag && ToLower( *q, encoding ) == ToLower( *tag, encoding ) )

  00078	50		 push	 eax
  00079	e8 00 00 00 00	 call	 _tolower
  0007e	83 c4 04	 add	 esp, 4
  00081	39 45 08	 cmp	 DWORD PTR tv1008[ebp], eax
  00084	75 07		 jne	 SHORT $LN175@Parse

; 556  : 		{
; 557  : 			++q;

  00086	43		 inc	 ebx

; 558  : 			++tag;

  00087	46		 inc	 esi
  00088	80 3b 00	 cmp	 BYTE PTR [ebx], 0
  0008b	75 d4		 jne	 SHORT $LL174@Parse
$LN175@Parse:

; 559  : 		}
; 560  : 
; 561  : 		if ( *tag == 0 )

  0008d	80 3e 00	 cmp	 BYTE PTR [esi], 0
  00090	0f 85 f1 03 00
	00		 jne	 $LN308@Parse
$LN281@Parse:

; 1586 : 	}
; 1587 : 	if ( data )

  00096	8b 5d 0c	 mov	 ebx, DWORD PTR _data$[ebp]
  00099	85 db		 test	 ebx, ebx
  0009b	74 1b		 je	 SHORT $LN309@Parse

; 1588 : 	{
; 1589 : 		data->Stamp( p, _encoding );

  0009d	ff 75 10	 push	 DWORD PTR __encoding$[ebp]
  000a0	8b cb		 mov	 ecx, ebx
  000a2	57		 push	 edi
  000a3	e8 00 00 00 00	 call	 ?Stamp@TiXmlParsingData@@QAEXPBDW4TiXmlEncoding@@@Z ; TiXmlParsingData::Stamp

; 1590 : 		location = data->Cursor();

  000a8	8b 03		 mov	 eax, DWORD PTR [ebx]
  000aa	8b 4b 04	 mov	 ecx, DWORD PTR [ebx+4]
  000ad	8b 5d f0	 mov	 ebx, DWORD PTR _this$1$[ebp]
  000b0	89 43 04	 mov	 DWORD PTR [ebx+4], eax
  000b3	89 4b 08	 mov	 DWORD PTR [ebx+8], ecx
  000b6	eb 03		 jmp	 SHORT $LN9@Parse
$LN309@Parse:

; 1586 : 	}
; 1587 : 	if ( data )

  000b8	8b 5d f0	 mov	 ebx, DWORD PTR _this$1$[ebp]
$LN9@Parse:

; 1594 : 	version = "";

  000bb	8d 43 2c	 lea	 eax, DWORD PTR [ebx+44]
; File E:\Proyectos\JuegosOnlineproyectos\PB\pbblow\Piercing Blow Remake\i3Server\include\i3Base\tinystr.h

; 114  : 		return assign( copy, (size_type)strlen(copy));

  000be	6a 00		 push	 0
  000c0	68 00 00 00 00	 push	 OFFSET ??_C@_00CNPNBAHC@@
  000c5	8b c8		 mov	 ecx, eax
; File E:\Proyectos\JuegosOnlineproyectos\PB\pbblow\Piercing Blow Remake\i3Server\src\i3Base\tinyxmlparser.cpp

; 1594 : 	version = "";

  000c7	89 45 f0	 mov	 DWORD PTR tv1007[ebp], eax
; File E:\Proyectos\JuegosOnlineproyectos\PB\pbblow\Piercing Blow Remake\i3Server\include\i3Base\tinystr.h

; 114  : 		return assign( copy, (size_type)strlen(copy));

  000ca	e8 00 00 00 00	 call	 ?assign@TiXmlString@@QAEAAV1@PBDI@Z ; TiXmlString::assign
; File E:\Proyectos\JuegosOnlineproyectos\PB\pbblow\Piercing Blow Remake\i3Server\src\i3Base\tinyxmlparser.cpp

; 1595 : 	encoding = "";

  000cf	8d 43 30	 lea	 eax, DWORD PTR [ebx+48]
; File E:\Proyectos\JuegosOnlineproyectos\PB\pbblow\Piercing Blow Remake\i3Server\include\i3Base\tinystr.h

; 114  : 		return assign( copy, (size_type)strlen(copy));

  000d2	6a 00		 push	 0
  000d4	68 00 00 00 00	 push	 OFFSET ??_C@_00CNPNBAHC@@
  000d9	8b c8		 mov	 ecx, eax
; File E:\Proyectos\JuegosOnlineproyectos\PB\pbblow\Piercing Blow Remake\i3Server\src\i3Base\tinyxmlparser.cpp

; 1595 : 	encoding = "";

  000db	89 45 ec	 mov	 DWORD PTR tv1006[ebp], eax
; File E:\Proyectos\JuegosOnlineproyectos\PB\pbblow\Piercing Blow Remake\i3Server\include\i3Base\tinystr.h

; 114  : 		return assign( copy, (size_type)strlen(copy));

  000de	e8 00 00 00 00	 call	 ?assign@TiXmlString@@QAEAAV1@PBDI@Z ; TiXmlString::assign
; File E:\Proyectos\JuegosOnlineproyectos\PB\pbblow\Piercing Blow Remake\i3Server\src\i3Base\tinyxmlparser.cpp

; 1596 : 	standalone = "";

  000e3	8d 43 34	 lea	 eax, DWORD PTR [ebx+52]
; File E:\Proyectos\JuegosOnlineproyectos\PB\pbblow\Piercing Blow Remake\i3Server\include\i3Base\tinystr.h

; 114  : 		return assign( copy, (size_type)strlen(copy));

  000e6	6a 00		 push	 0
  000e8	68 00 00 00 00	 push	 OFFSET ??_C@_00CNPNBAHC@@
  000ed	8b c8		 mov	 ecx, eax
; File E:\Proyectos\JuegosOnlineproyectos\PB\pbblow\Piercing Blow Remake\i3Server\src\i3Base\tinyxmlparser.cpp

; 1596 : 	standalone = "";

  000ef	89 45 e8	 mov	 DWORD PTR tv1005[ebp], eax
; File E:\Proyectos\JuegosOnlineproyectos\PB\pbblow\Piercing Blow Remake\i3Server\include\i3Base\tinystr.h

; 114  : 		return assign( copy, (size_type)strlen(copy));

  000f2	e8 00 00 00 00	 call	 ?assign@TiXmlString@@QAEAAV1@PBDI@Z ; TiXmlString::assign
; File E:\Proyectos\JuegosOnlineproyectos\PB\pbblow\Piercing Blow Remake\i3Server\src\i3Base\tinyxmlparser.cpp

; 1592 : 	p += 5;

  000f7	83 c7 05	 add	 edi, 5

; 1598 : 	while ( p && *p )

  000fa	0f 84 d1 03 00
	00		 je	 $LN108@Parse
$LL2@Parse:
  00100	8a 07		 mov	 al, BYTE PTR [edi]
  00102	84 c0		 test	 al, al
  00104	0f 84 c7 03 00
	00		 je	 $LN108@Parse

; 1599 : 	{
; 1600 : 		if ( *p == '>' )

  0010a	3c 3e		 cmp	 al, 62			; 0000003eH
  0010c	0f 84 5e 03 00
	00		 je	 $LN248@Parse

; 1603 : 			return p;
; 1604 : 		}
; 1605 : 
; 1606 : 		p = SkipWhiteSpace( p, _encoding );

  00112	ff 75 10	 push	 DWORD PTR __encoding$[ebp]
  00115	57		 push	 edi
  00116	e8 00 00 00 00	 call	 ?SkipWhiteSpace@TiXmlBase@@KAPBDPBDW4TiXmlEncoding@@@Z ; TiXmlBase::SkipWhiteSpace
  0011b	8b f8		 mov	 edi, eax
  0011d	83 c4 08	 add	 esp, 8

; 1607 : 		if ( StringEqual( p, "version", true, _encoding ) )

  00120	be 00 00 00 00	 mov	 esi, OFFSET ??_C@_07CPCPJPKL@version@

; 545  : 	if ( !p || !*p )

  00125	85 ff		 test	 edi, edi
  00127	0f 84 f7 00 00
	00		 je	 $LN11@Parse
  0012d	80 3f 00	 cmp	 BYTE PTR [edi], 0
  00130	0f 84 ee 00 00
	00		 je	 $LN11@Parse

; 546  : 	{
; 547  : 		I3ASSERT_0;
; 548  : 		return false;
; 549  : 	}
; 550  : 
; 551  : 	const char* q = p;

  00136	8b df		 mov	 ebx, edi
$LL26@Parse:

; 555  : 		while ( *q && *tag && ToLower( *q, encoding ) == ToLower( *tag, encoding ) )

  00138	80 3e 00	 cmp	 BYTE PTR [esi], 0
  0013b	74 30		 je	 SHORT $LN283@Parse
  0013d	0f be 03	 movsx	 eax, BYTE PTR [ebx]
; File E:\Proyectos\JuegosOnlineproyectos\PB\pbblow\Piercing Blow Remake\i3Server\include\i3Base\tinyxml.h

; 388  : 		if ( encoding == TIXML_ENCODING_UTF8 )

  00140	50		 push	 eax
  00141	e8 00 00 00 00	 call	 _tolower
  00146	83 c4 04	 add	 esp, 4
  00149	89 45 08	 mov	 DWORD PTR tv1004[ebp], eax
  0014c	0f be 06	 movsx	 eax, BYTE PTR [esi]
; File E:\Proyectos\JuegosOnlineproyectos\PB\pbblow\Piercing Blow Remake\i3Server\src\i3Base\tinyxmlparser.cpp

; 555  : 		while ( *q && *tag && ToLower( *q, encoding ) == ToLower( *tag, encoding ) )

  0014f	50		 push	 eax
  00150	e8 00 00 00 00	 call	 _tolower
  00155	83 c4 04	 add	 esp, 4
  00158	39 45 08	 cmp	 DWORD PTR tv1004[ebp], eax
  0015b	75 07		 jne	 SHORT $LN27@Parse

; 556  : 		{
; 557  : 			++q;

  0015d	43		 inc	 ebx

; 558  : 			++tag;

  0015e	46		 inc	 esi
  0015f	80 3b 00	 cmp	 BYTE PTR [ebx], 0
  00162	75 d4		 jne	 SHORT $LL26@Parse
$LN27@Parse:

; 559  : 		}
; 560  : 
; 561  : 		if ( *tag == 0 )

  00164	80 3e 00	 cmp	 BYTE PTR [esi], 0
  00167	0f 85 b7 00 00
	00		 jne	 $LN11@Parse
$LN283@Parse:
; File E:\Proyectos\JuegosOnlineproyectos\PB\pbblow\Piercing Blow Remake\i3Server\include\i3Base\tinyxml.h

; 107  : 	void Clear()		{ row = col = -1; }

  0016d	c7 45 cc ff ff
	ff ff		 mov	 DWORD PTR _attrib$4[ebp+8], -1
  00174	c7 45 c8 ff ff
	ff ff		 mov	 DWORD PTR _attrib$4[ebp+4], -1

; 205  : 	TiXmlBase()	:	userData(0)		{}

  0017b	c7 45 d0 00 00
	00 00		 mov	 DWORD PTR _attrib$4[ebp+12], 0

; 790  : 	{

  00182	c7 45 c4 00 00
	00 00		 mov	 DWORD PTR _attrib$4[ebp], OFFSET ??_7TiXmlAttribute@@6B@
; File E:\Proyectos\JuegosOnlineproyectos\PB\pbblow\Piercing Blow Remake\i3Server\include\i3Base\tinystr.h

; 80   : 	TiXmlString () : rep_(&nullrep_)

  00189	c7 45 d8 00 00
	00 00		 mov	 DWORD PTR _attrib$4[ebp+20], OFFSET ?nullrep_@TiXmlString@@0URep@1@A ; TiXmlString::nullrep_
  00190	c7 45 dc 00 00
	00 00		 mov	 DWORD PTR _attrib$4[ebp+24], OFFSET ?nullrep_@TiXmlString@@0URep@1@A ; TiXmlString::nullrep_
; File E:\Proyectos\JuegosOnlineproyectos\PB\pbblow\Piercing Blow Remake\i3Server\include\i3Base\tinyxml.h

; 791  : 		document = 0;

  00197	c7 45 d4 00 00
	00 00		 mov	 DWORD PTR _attrib$4[ebp+16], 0

; 792  : 		prev = next = 0;

  0019e	c7 45 e4 00 00
	00 00		 mov	 DWORD PTR _attrib$4[ebp+32], 0
  001a5	c7 45 e0 00 00
	00 00		 mov	 DWORD PTR _attrib$4[ebp+28], 0
; File E:\Proyectos\JuegosOnlineproyectos\PB\pbblow\Piercing Blow Remake\i3Server\src\i3Base\tinyxmlparser.cpp

; 1610 : 			p = attrib.Parse( p, data, _encoding );		

  001ac	ff 75 10	 push	 DWORD PTR __encoding$[ebp]
  001af	8d 4d c4	 lea	 ecx, DWORD PTR _attrib$4[ebp]
  001b2	c7 45 fc 00 00
	00 00		 mov	 DWORD PTR __$EHRec$[ebp+8], 0
  001b9	ff 75 0c	 push	 DWORD PTR _data$[ebp]
  001bc	57		 push	 edi
  001bd	e8 00 00 00 00	 call	 ?Parse@TiXmlAttribute@@UAEPBDPBDPAVTiXmlParsingData@@W4TiXmlEncoding@@@Z ; TiXmlAttribute::Parse
; File E:\Proyectos\JuegosOnlineproyectos\PB\pbblow\Piercing Blow Remake\i3Server\include\i3Base\tinystr.h

; 144  : 	const char * c_str () const { return rep_->str; }

  001c2	8b 55 dc	 mov	 edx, DWORD PTR _attrib$4[ebp+24]
; File E:\Proyectos\JuegosOnlineproyectos\PB\pbblow\Piercing Blow Remake\i3Server\src\i3Base\tinyxmlparser.cpp

; 1610 : 			p = attrib.Parse( p, data, _encoding );		

  001c5	8b f8		 mov	 edi, eax
; File E:\Proyectos\JuegosOnlineproyectos\PB\pbblow\Piercing Blow Remake\i3Server\include\i3Base\tinystr.h

; 144  : 	const char * c_str () const { return rep_->str; }

  001c7	83 c2 08	 add	 edx, 8

; 114  : 		return assign( copy, (size_type)strlen(copy));

  001ca	8b ca		 mov	 ecx, edx
  001cc	8d 71 01	 lea	 esi, DWORD PTR [ecx+1]
  001cf	90		 npad	 1
$LL298@Parse:
  001d0	8a 01		 mov	 al, BYTE PTR [ecx]
  001d2	41		 inc	 ecx
  001d3	84 c0		 test	 al, al
  001d5	75 f9		 jne	 SHORT $LL298@Parse
  001d7	2b ce		 sub	 ecx, esi
  001d9	51		 push	 ecx
  001da	8b 4d f0	 mov	 ecx, DWORD PTR tv1007[ebp]
  001dd	52		 push	 edx
  001de	e8 00 00 00 00	 call	 ?assign@TiXmlString@@QAEAAV1@PBDI@Z ; TiXmlString::assign

; 257  : 		if (rep_ != &nullrep_)

  001e3	8b 45 dc	 mov	 eax, DWORD PTR _attrib$4[ebp+24]
; File E:\Proyectos\JuegosOnlineproyectos\PB\pbblow\Piercing Blow Remake\i3Server\src\i3Base\tinyxmlparser.cpp

; 1612 : 		}

  001e6	c7 45 fc ff ff
	ff ff		 mov	 DWORD PTR __$EHRec$[ebp+8], -1
; File E:\Proyectos\JuegosOnlineproyectos\PB\pbblow\Piercing Blow Remake\i3Server\include\i3Base\tinystr.h

; 257  : 		if (rep_ != &nullrep_)

  001ed	3d 00 00 00 00	 cmp	 eax, OFFSET ?nullrep_@TiXmlString@@0URep@1@A ; TiXmlString::nullrep_
  001f2	74 09		 je	 SHORT $LN76@Parse

; 258  : 		{
; 259  : 			// The rep_ is really an array of ints. (see the allocator, above).
; 260  : 			// Cast it back before delete, so the compiler won't incorrectly call destructors.
; 261  : 			delete [] ( reinterpret_cast<int*>( rep_ ) );

  001f4	50		 push	 eax
  001f5	e8 00 00 00 00	 call	 ??_V@YAXPAX@Z		; operator delete[]
  001fa	83 c4 04	 add	 esp, 4
$LN76@Parse:

; 257  : 		if (rep_ != &nullrep_)

  001fd	8b 45 d8	 mov	 eax, DWORD PTR _attrib$4[ebp+20]
  00200	3d 00 00 00 00	 cmp	 eax, OFFSET ?nullrep_@TiXmlString@@0URep@1@A ; TiXmlString::nullrep_
  00205	74 09		 je	 SHORT $LN82@Parse

; 258  : 		{
; 259  : 			// The rep_ is really an array of ints. (see the allocator, above).
; 260  : 			// Cast it back before delete, so the compiler won't incorrectly call destructors.
; 261  : 			delete [] ( reinterpret_cast<int*>( rep_ ) );

  00207	50		 push	 eax
  00208	e8 00 00 00 00	 call	 ??_V@YAXPAX@Z		; operator delete[]
  0020d	83 c4 04	 add	 esp, 4
$LN82@Parse:
  00210	c7 45 c4 00 00
	00 00		 mov	 DWORD PTR _attrib$4[ebp], OFFSET ??_7TiXmlBase@@6B@
$LN23@Parse:
; File E:\Proyectos\JuegosOnlineproyectos\PB\pbblow\Piercing Blow Remake\i3Server\src\i3Base\tinyxmlparser.cpp

; 1598 : 	while ( p && *p )

  00217	85 ff		 test	 edi, edi
  00219	0f 85 e1 fe ff
	ff		 jne	 $LL2@Parse

; 1599 : 	{
; 1600 : 		if ( *p == '>' )

  0021f	e9 ad 02 00 00	 jmp	 $LN108@Parse
$LN11@Parse:

; 1613 : 		else if ( StringEqual( p, "encoding", true, _encoding ) )

  00224	be 00 00 00 00	 mov	 esi, OFFSET ??_C@_08MLPGAEIK@encoding@

; 545  : 	if ( !p || !*p )

  00229	85 ff		 test	 edi, edi
  0022b	0f 84 f2 00 00
	00		 je	 $LN13@Parse
  00231	80 3f 00	 cmp	 BYTE PTR [edi], 0
  00234	0f 84 e9 00 00
	00		 je	 $LN13@Parse

; 546  : 	{
; 547  : 		I3ASSERT_0;
; 548  : 		return false;
; 549  : 	}
; 550  : 
; 551  : 	const char* q = p;

  0023a	8b df		 mov	 ebx, edi
  0023c	8d 64 24 00	 npad	 4
$LL85@Parse:

; 555  : 		while ( *q && *tag && ToLower( *q, encoding ) == ToLower( *tag, encoding ) )

  00240	80 3e 00	 cmp	 BYTE PTR [esi], 0
  00243	74 30		 je	 SHORT $LN285@Parse
  00245	0f be 03	 movsx	 eax, BYTE PTR [ebx]
; File E:\Proyectos\JuegosOnlineproyectos\PB\pbblow\Piercing Blow Remake\i3Server\include\i3Base\tinyxml.h

; 388  : 		if ( encoding == TIXML_ENCODING_UTF8 )

  00248	50		 push	 eax
  00249	e8 00 00 00 00	 call	 _tolower
  0024e	83 c4 04	 add	 esp, 4
  00251	89 45 08	 mov	 DWORD PTR tv1000[ebp], eax
  00254	0f be 06	 movsx	 eax, BYTE PTR [esi]
; File E:\Proyectos\JuegosOnlineproyectos\PB\pbblow\Piercing Blow Remake\i3Server\src\i3Base\tinyxmlparser.cpp

; 555  : 		while ( *q && *tag && ToLower( *q, encoding ) == ToLower( *tag, encoding ) )

  00257	50		 push	 eax
  00258	e8 00 00 00 00	 call	 _tolower
  0025d	83 c4 04	 add	 esp, 4
  00260	39 45 08	 cmp	 DWORD PTR tv1000[ebp], eax
  00263	75 07		 jne	 SHORT $LN86@Parse

; 556  : 		{
; 557  : 			++q;

  00265	43		 inc	 ebx

; 558  : 			++tag;

  00266	46		 inc	 esi
  00267	80 3b 00	 cmp	 BYTE PTR [ebx], 0
  0026a	75 d4		 jne	 SHORT $LL85@Parse
$LN86@Parse:

; 559  : 		}
; 560  : 
; 561  : 		if ( *tag == 0 )

  0026c	80 3e 00	 cmp	 BYTE PTR [esi], 0
  0026f	0f 85 ae 00 00
	00		 jne	 $LN13@Parse
$LN285@Parse:
; File E:\Proyectos\JuegosOnlineproyectos\PB\pbblow\Piercing Blow Remake\i3Server\include\i3Base\tinyxml.h

; 107  : 	void Clear()		{ row = col = -1; }

  00275	c7 45 a8 ff ff
	ff ff		 mov	 DWORD PTR _attrib$3[ebp+8], -1
  0027c	c7 45 a4 ff ff
	ff ff		 mov	 DWORD PTR _attrib$3[ebp+4], -1

; 205  : 	TiXmlBase()	:	userData(0)		{}

  00283	c7 45 ac 00 00
	00 00		 mov	 DWORD PTR _attrib$3[ebp+12], 0

; 790  : 	{

  0028a	c7 45 a0 00 00
	00 00		 mov	 DWORD PTR _attrib$3[ebp], OFFSET ??_7TiXmlAttribute@@6B@
; File E:\Proyectos\JuegosOnlineproyectos\PB\pbblow\Piercing Blow Remake\i3Server\include\i3Base\tinystr.h

; 80   : 	TiXmlString () : rep_(&nullrep_)

  00291	c7 45 b4 00 00
	00 00		 mov	 DWORD PTR _attrib$3[ebp+20], OFFSET ?nullrep_@TiXmlString@@0URep@1@A ; TiXmlString::nullrep_
  00298	c7 45 b8 00 00
	00 00		 mov	 DWORD PTR _attrib$3[ebp+24], OFFSET ?nullrep_@TiXmlString@@0URep@1@A ; TiXmlString::nullrep_
; File E:\Proyectos\JuegosOnlineproyectos\PB\pbblow\Piercing Blow Remake\i3Server\include\i3Base\tinyxml.h

; 791  : 		document = 0;

  0029f	c7 45 b0 00 00
	00 00		 mov	 DWORD PTR _attrib$3[ebp+16], 0

; 792  : 		prev = next = 0;

  002a6	c7 45 c0 00 00
	00 00		 mov	 DWORD PTR _attrib$3[ebp+32], 0
  002ad	c7 45 bc 00 00
	00 00		 mov	 DWORD PTR _attrib$3[ebp+28], 0
; File E:\Proyectos\JuegosOnlineproyectos\PB\pbblow\Piercing Blow Remake\i3Server\src\i3Base\tinyxmlparser.cpp

; 1616 : 			p = attrib.Parse( p, data, _encoding );		

  002b4	ff 75 10	 push	 DWORD PTR __encoding$[ebp]
  002b7	8d 4d a0	 lea	 ecx, DWORD PTR _attrib$3[ebp]
  002ba	c7 45 fc 01 00
	00 00		 mov	 DWORD PTR __$EHRec$[ebp+8], 1
  002c1	ff 75 0c	 push	 DWORD PTR _data$[ebp]
  002c4	57		 push	 edi
  002c5	e8 00 00 00 00	 call	 ?Parse@TiXmlAttribute@@UAEPBDPBDPAVTiXmlParsingData@@W4TiXmlEncoding@@@Z ; TiXmlAttribute::Parse
; File E:\Proyectos\JuegosOnlineproyectos\PB\pbblow\Piercing Blow Remake\i3Server\include\i3Base\tinystr.h

; 144  : 	const char * c_str () const { return rep_->str; }

  002ca	8b 55 b8	 mov	 edx, DWORD PTR _attrib$3[ebp+24]
; File E:\Proyectos\JuegosOnlineproyectos\PB\pbblow\Piercing Blow Remake\i3Server\src\i3Base\tinyxmlparser.cpp

; 1616 : 			p = attrib.Parse( p, data, _encoding );		

  002cd	8b f8		 mov	 edi, eax
; File E:\Proyectos\JuegosOnlineproyectos\PB\pbblow\Piercing Blow Remake\i3Server\include\i3Base\tinystr.h

; 144  : 	const char * c_str () const { return rep_->str; }

  002cf	83 c2 08	 add	 edx, 8

; 114  : 		return assign( copy, (size_type)strlen(copy));

  002d2	8b ca		 mov	 ecx, edx
  002d4	8d 71 01	 lea	 esi, DWORD PTR [ecx+1]
$LL299@Parse:
  002d7	8a 01		 mov	 al, BYTE PTR [ecx]
  002d9	41		 inc	 ecx
  002da	84 c0		 test	 al, al
  002dc	75 f9		 jne	 SHORT $LL299@Parse
  002de	2b ce		 sub	 ecx, esi
  002e0	51		 push	 ecx
  002e1	8b 4d ec	 mov	 ecx, DWORD PTR tv1006[ebp]
  002e4	52		 push	 edx
  002e5	e8 00 00 00 00	 call	 ?assign@TiXmlString@@QAEAAV1@PBDI@Z ; TiXmlString::assign

; 257  : 		if (rep_ != &nullrep_)

  002ea	8b 45 b8	 mov	 eax, DWORD PTR _attrib$3[ebp+24]
; File E:\Proyectos\JuegosOnlineproyectos\PB\pbblow\Piercing Blow Remake\i3Server\src\i3Base\tinyxmlparser.cpp

; 1618 : 		}

  002ed	c7 45 fc ff ff
	ff ff		 mov	 DWORD PTR __$EHRec$[ebp+8], -1
; File E:\Proyectos\JuegosOnlineproyectos\PB\pbblow\Piercing Blow Remake\i3Server\include\i3Base\tinystr.h

; 257  : 		if (rep_ != &nullrep_)

  002f4	3d 00 00 00 00	 cmp	 eax, OFFSET ?nullrep_@TiXmlString@@0URep@1@A ; TiXmlString::nullrep_
  002f9	74 09		 je	 SHORT $LN143@Parse

; 258  : 		{
; 259  : 			// The rep_ is really an array of ints. (see the allocator, above).
; 260  : 			// Cast it back before delete, so the compiler won't incorrectly call destructors.
; 261  : 			delete [] ( reinterpret_cast<int*>( rep_ ) );

  002fb	50		 push	 eax
  002fc	e8 00 00 00 00	 call	 ??_V@YAXPAX@Z		; operator delete[]
  00301	83 c4 04	 add	 esp, 4
$LN143@Parse:

; 257  : 		if (rep_ != &nullrep_)

  00304	8b 45 b4	 mov	 eax, DWORD PTR _attrib$3[ebp+20]
  00307	3d 00 00 00 00	 cmp	 eax, OFFSET ?nullrep_@TiXmlString@@0URep@1@A ; TiXmlString::nullrep_
  0030c	74 09		 je	 SHORT $LN149@Parse

; 258  : 		{
; 259  : 			// The rep_ is really an array of ints. (see the allocator, above).
; 260  : 			// Cast it back before delete, so the compiler won't incorrectly call destructors.
; 261  : 			delete [] ( reinterpret_cast<int*>( rep_ ) );

  0030e	50		 push	 eax
  0030f	e8 00 00 00 00	 call	 ??_V@YAXPAX@Z		; operator delete[]
  00314	83 c4 04	 add	 esp, 4
$LN149@Parse:
  00317	c7 45 a0 00 00
	00 00		 mov	 DWORD PTR _attrib$3[ebp], OFFSET ??_7TiXmlBase@@6B@
; File E:\Proyectos\JuegosOnlineproyectos\PB\pbblow\Piercing Blow Remake\i3Server\src\i3Base\tinyxmlparser.cpp

; 1618 : 		}

  0031e	e9 f4 fe ff ff	 jmp	 $LN23@Parse
$LN13@Parse:

; 1619 : 		else if ( StringEqual( p, "standalone", true, _encoding ) )

  00323	be 00 00 00 00	 mov	 esi, OFFSET ??_C@_0L@FLHGMILF@standalone@

; 545  : 	if ( !p || !*p )

  00328	85 ff		 test	 edi, edi
  0032a	0f 84 a1 01 00
	00		 je	 $LN108@Parse
  00330	80 3f 00	 cmp	 BYTE PTR [edi], 0
  00333	0f 84 f7 00 00
	00		 je	 $LL4@Parse

; 546  : 	{
; 547  : 		I3ASSERT_0;
; 548  : 		return false;
; 549  : 	}
; 550  : 
; 551  : 	const char* q = p;

  00339	8b df		 mov	 ebx, edi
  0033b	eb 03 8d 49 00	 npad	 5
$LL152@Parse:

; 555  : 		while ( *q && *tag && ToLower( *q, encoding ) == ToLower( *tag, encoding ) )

  00340	80 3e 00	 cmp	 BYTE PTR [esi], 0
  00343	74 30		 je	 SHORT $LN287@Parse
  00345	0f be 03	 movsx	 eax, BYTE PTR [ebx]
; File E:\Proyectos\JuegosOnlineproyectos\PB\pbblow\Piercing Blow Remake\i3Server\include\i3Base\tinyxml.h

; 388  : 		if ( encoding == TIXML_ENCODING_UTF8 )

  00348	50		 push	 eax
  00349	e8 00 00 00 00	 call	 _tolower
  0034e	83 c4 04	 add	 esp, 4
  00351	89 45 08	 mov	 DWORD PTR tv998[ebp], eax
  00354	0f be 06	 movsx	 eax, BYTE PTR [esi]
; File E:\Proyectos\JuegosOnlineproyectos\PB\pbblow\Piercing Blow Remake\i3Server\src\i3Base\tinyxmlparser.cpp

; 555  : 		while ( *q && *tag && ToLower( *q, encoding ) == ToLower( *tag, encoding ) )

  00357	50		 push	 eax
  00358	e8 00 00 00 00	 call	 _tolower
  0035d	83 c4 04	 add	 esp, 4
  00360	39 45 08	 cmp	 DWORD PTR tv998[ebp], eax
  00363	75 07		 jne	 SHORT $LN153@Parse

; 556  : 		{
; 557  : 			++q;

  00365	43		 inc	 ebx

; 558  : 			++tag;

  00366	46		 inc	 esi
  00367	80 3b 00	 cmp	 BYTE PTR [ebx], 0
  0036a	75 d4		 jne	 SHORT $LL152@Parse
$LN153@Parse:

; 559  : 		}
; 560  : 
; 561  : 		if ( *tag == 0 )

  0036c	80 3e 00	 cmp	 BYTE PTR [esi], 0
  0036f	0f 85 bb 00 00
	00		 jne	 $LL4@Parse
$LN287@Parse:
; File E:\Proyectos\JuegosOnlineproyectos\PB\pbblow\Piercing Blow Remake\i3Server\include\i3Base\tinyxml.h

; 107  : 	void Clear()		{ row = col = -1; }

  00375	c7 45 84 ff ff
	ff ff		 mov	 DWORD PTR _attrib$2[ebp+8], -1
  0037c	c7 45 80 ff ff
	ff ff		 mov	 DWORD PTR _attrib$2[ebp+4], -1

; 205  : 	TiXmlBase()	:	userData(0)		{}

  00383	c7 45 88 00 00
	00 00		 mov	 DWORD PTR _attrib$2[ebp+12], 0

; 790  : 	{

  0038a	c7 85 7c ff ff
	ff 00 00 00 00	 mov	 DWORD PTR _attrib$2[ebp], OFFSET ??_7TiXmlAttribute@@6B@
; File E:\Proyectos\JuegosOnlineproyectos\PB\pbblow\Piercing Blow Remake\i3Server\include\i3Base\tinystr.h

; 80   : 	TiXmlString () : rep_(&nullrep_)

  00394	c7 45 90 00 00
	00 00		 mov	 DWORD PTR _attrib$2[ebp+20], OFFSET ?nullrep_@TiXmlString@@0URep@1@A ; TiXmlString::nullrep_
  0039b	c7 45 94 00 00
	00 00		 mov	 DWORD PTR _attrib$2[ebp+24], OFFSET ?nullrep_@TiXmlString@@0URep@1@A ; TiXmlString::nullrep_
; File E:\Proyectos\JuegosOnlineproyectos\PB\pbblow\Piercing Blow Remake\i3Server\include\i3Base\tinyxml.h

; 791  : 		document = 0;

  003a2	c7 45 8c 00 00
	00 00		 mov	 DWORD PTR _attrib$2[ebp+16], 0

; 792  : 		prev = next = 0;

  003a9	c7 45 9c 00 00
	00 00		 mov	 DWORD PTR _attrib$2[ebp+32], 0
  003b0	c7 45 98 00 00
	00 00		 mov	 DWORD PTR _attrib$2[ebp+28], 0
; File E:\Proyectos\JuegosOnlineproyectos\PB\pbblow\Piercing Blow Remake\i3Server\src\i3Base\tinyxmlparser.cpp

; 1622 : 			p = attrib.Parse( p, data, _encoding );		

  003b7	ff 75 10	 push	 DWORD PTR __encoding$[ebp]
  003ba	8d 8d 7c ff ff
	ff		 lea	 ecx, DWORD PTR _attrib$2[ebp]
  003c0	c7 45 fc 02 00
	00 00		 mov	 DWORD PTR __$EHRec$[ebp+8], 2
  003c7	ff 75 0c	 push	 DWORD PTR _data$[ebp]
  003ca	57		 push	 edi
  003cb	e8 00 00 00 00	 call	 ?Parse@TiXmlAttribute@@UAEPBDPBDPAVTiXmlParsingData@@W4TiXmlEncoding@@@Z ; TiXmlAttribute::Parse
; File E:\Proyectos\JuegosOnlineproyectos\PB\pbblow\Piercing Blow Remake\i3Server\include\i3Base\tinystr.h

; 144  : 	const char * c_str () const { return rep_->str; }

  003d0	8b 55 94	 mov	 edx, DWORD PTR _attrib$2[ebp+24]
; File E:\Proyectos\JuegosOnlineproyectos\PB\pbblow\Piercing Blow Remake\i3Server\src\i3Base\tinyxmlparser.cpp

; 1622 : 			p = attrib.Parse( p, data, _encoding );		

  003d3	8b f8		 mov	 edi, eax
; File E:\Proyectos\JuegosOnlineproyectos\PB\pbblow\Piercing Blow Remake\i3Server\include\i3Base\tinystr.h

; 144  : 	const char * c_str () const { return rep_->str; }

  003d5	83 c2 08	 add	 edx, 8

; 114  : 		return assign( copy, (size_type)strlen(copy));

  003d8	8b ca		 mov	 ecx, edx
  003da	8d 71 01	 lea	 esi, DWORD PTR [ecx+1]
  003dd	8d 49 00	 npad	 3
$LL300@Parse:
  003e0	8a 01		 mov	 al, BYTE PTR [ecx]
  003e2	41		 inc	 ecx
  003e3	84 c0		 test	 al, al
  003e5	75 f9		 jne	 SHORT $LL300@Parse
  003e7	2b ce		 sub	 ecx, esi
  003e9	51		 push	 ecx
  003ea	8b 4d e8	 mov	 ecx, DWORD PTR tv1005[ebp]
  003ed	52		 push	 edx
  003ee	e8 00 00 00 00	 call	 ?assign@TiXmlString@@QAEAAV1@PBDI@Z ; TiXmlString::assign

; 257  : 		if (rep_ != &nullrep_)

  003f3	8b 45 94	 mov	 eax, DWORD PTR _attrib$2[ebp+24]
; File E:\Proyectos\JuegosOnlineproyectos\PB\pbblow\Piercing Blow Remake\i3Server\src\i3Base\tinyxmlparser.cpp

; 1624 : 		}

  003f6	c7 45 fc ff ff
	ff ff		 mov	 DWORD PTR __$EHRec$[ebp+8], -1
; File E:\Proyectos\JuegosOnlineproyectos\PB\pbblow\Piercing Blow Remake\i3Server\include\i3Base\tinystr.h

; 257  : 		if (rep_ != &nullrep_)

  003fd	3d 00 00 00 00	 cmp	 eax, OFFSET ?nullrep_@TiXmlString@@0URep@1@A ; TiXmlString::nullrep_
  00402	74 09		 je	 SHORT $LN222@Parse

; 258  : 		{
; 259  : 			// The rep_ is really an array of ints. (see the allocator, above).
; 260  : 			// Cast it back before delete, so the compiler won't incorrectly call destructors.
; 261  : 			delete [] ( reinterpret_cast<int*>( rep_ ) );

  00404	50		 push	 eax
  00405	e8 00 00 00 00	 call	 ??_V@YAXPAX@Z		; operator delete[]
  0040a	83 c4 04	 add	 esp, 4
$LN222@Parse:

; 257  : 		if (rep_ != &nullrep_)

  0040d	8b 45 90	 mov	 eax, DWORD PTR _attrib$2[ebp+20]
  00410	3d 00 00 00 00	 cmp	 eax, OFFSET ?nullrep_@TiXmlString@@0URep@1@A ; TiXmlString::nullrep_
  00415	74 09		 je	 SHORT $LN228@Parse

; 258  : 		{
; 259  : 			// The rep_ is really an array of ints. (see the allocator, above).
; 260  : 			// Cast it back before delete, so the compiler won't incorrectly call destructors.
; 261  : 			delete [] ( reinterpret_cast<int*>( rep_ ) );

  00417	50		 push	 eax
  00418	e8 00 00 00 00	 call	 ??_V@YAXPAX@Z		; operator delete[]
  0041d	83 c4 04	 add	 esp, 4
$LN228@Parse:
  00420	c7 85 7c ff ff
	ff 00 00 00 00	 mov	 DWORD PTR _attrib$2[ebp], OFFSET ??_7TiXmlBase@@6B@
; File E:\Proyectos\JuegosOnlineproyectos\PB\pbblow\Piercing Blow Remake\i3Server\src\i3Base\tinyxmlparser.cpp

; 1624 : 		}

  0042a	e9 e8 fd ff ff	 jmp	 $LN23@Parse
  0042f	90		 npad	 1
$LL4@Parse:

; 1628 : 			while( p && *p && *p != '>' && !IsWhiteSpace( *p ) )

  00430	8a 1f		 mov	 bl, BYTE PTR [edi]
  00432	84 db		 test	 bl, bl
  00434	0f 84 c6 fc ff
	ff		 je	 $LL2@Parse
  0043a	80 fb 3e	 cmp	 bl, 62			; 0000003eH
  0043d	0f 84 d4 fd ff
	ff		 je	 $LN23@Parse
; File E:\Proyectos\JuegosOnlineproyectos\PB\pbblow\Piercing Blow Remake\i3Server\include\i3Base\tinyxml.h

; 296  : 		return ( isspace( (unsigned char) c ) || c == '\n' || c == '\r' ); 

  00443	0f b6 c3	 movzx	 eax, bl
  00446	50		 push	 eax
  00447	e8 00 00 00 00	 call	 _isspace
  0044c	83 c4 04	 add	 esp, 4
  0044f	85 c0		 test	 eax, eax
  00451	0f 85 c0 fd ff
	ff		 jne	 $LN23@Parse
  00457	80 fb 0a	 cmp	 bl, 10			; 0000000aH
  0045a	0f 84 b7 fd ff
	ff		 je	 $LN23@Parse
  00460	80 fb 0d	 cmp	 bl, 13			; 0000000dH
  00463	0f 84 ae fd ff
	ff		 je	 $LN23@Parse
; File E:\Proyectos\JuegosOnlineproyectos\PB\pbblow\Piercing Blow Remake\i3Server\src\i3Base\tinyxmlparser.cpp

; 1628 : 			while( p && *p && *p != '>' && !IsWhiteSpace( *p ) )

  00469	83 c7 01	 add	 edi, 1
  0046c	75 c2		 jne	 SHORT $LL4@Parse
  0046e	eb 61		 jmp	 SHORT $LN108@Parse
$LN248@Parse:

; 1601 : 		{
; 1602 : 			++p;

  00470	8d 47 01	 lea	 eax, DWORD PTR [edi+1]

; 1629 : 				++p;
; 1630 : 		}
; 1631 : 	}
; 1632 : 	return 0;
; 1633 : }

  00473	8b 4d f4	 mov	 ecx, DWORD PTR __$EHRec$[ebp]
  00476	64 89 0d 00 00
	00 00		 mov	 DWORD PTR fs:0, ecx
  0047d	59		 pop	 ecx
  0047e	5f		 pop	 edi
  0047f	5e		 pop	 esi
  00480	5b		 pop	 ebx
  00481	8b e5		 mov	 esp, ebp
  00483	5d		 pop	 ebp
  00484	c2 0c 00	 ret	 12			; 0000000cH
$LN308@Parse:

; 561  : 		if ( *tag == 0 )

  00487	8b 5d e8	 mov	 ebx, DWORD PTR _document$1$[ebp]
$LN7@Parse:

; 1583 : 	{
; 1584 : 		if ( document ) document->SetError( TIXML_ERROR_PARSING_DECLARATION, 0, 0, _encoding );

  0048a	85 db		 test	 ebx, ebx
  0048c	74 43		 je	 SHORT $LN108@Parse

; 805  : 	if ( error )

  0048e	80 7b 2c 00	 cmp	 BYTE PTR [ebx+44], 0
  00492	75 3d		 jne	 SHORT $LN108@Parse

; 806  : 		return;
; 807  : 
; 808  : 	I3ASSERT( err > 0 && err < TIXML_ERROR_STRING_COUNT );
; 809  : 	error   = true;

  00494	c6 43 2c 01	 mov	 BYTE PTR [ebx+44], 1

; 810  : 	errorId = err;

  00498	c7 43 30 0c 00
	00 00		 mov	 DWORD PTR [ebx+48], 12	; 0000000cH

; 811  : 	errorDesc = errorString[ errorId ];

  0049f	8b 15 30 00 00
	00		 mov	 edx, DWORD PTR ?errorString@TiXmlBase@@1PAPBDA+48
; File E:\Proyectos\JuegosOnlineproyectos\PB\pbblow\Piercing Blow Remake\i3Server\include\i3Base\tinystr.h

; 114  : 		return assign( copy, (size_type)strlen(copy));

  004a5	8b ca		 mov	 ecx, edx
  004a7	8d 71 01	 lea	 esi, DWORD PTR [ecx+1]
  004aa	8d 9b 00 00 00
	00		 npad	 6
$LL301@Parse:
  004b0	8a 01		 mov	 al, BYTE PTR [ecx]
  004b2	41		 inc	 ecx
  004b3	84 c0		 test	 al, al
  004b5	75 f9		 jne	 SHORT $LL301@Parse
  004b7	2b ce		 sub	 ecx, esi
  004b9	51		 push	 ecx
  004ba	52		 push	 edx
; File E:\Proyectos\JuegosOnlineproyectos\PB\pbblow\Piercing Blow Remake\i3Server\src\i3Base\tinyxmlparser.cpp

; 811  : 	errorDesc = errorString[ errorId ];

  004bb	8d 4b 34	 lea	 ecx, DWORD PTR [ebx+52]
; File E:\Proyectos\JuegosOnlineproyectos\PB\pbblow\Piercing Blow Remake\i3Server\include\i3Base\tinystr.h

; 114  : 		return assign( copy, (size_type)strlen(copy));

  004be	e8 00 00 00 00	 call	 ?assign@TiXmlString@@QAEAAV1@PBDI@Z ; TiXmlString::assign
; File E:\Proyectos\JuegosOnlineproyectos\PB\pbblow\Piercing Blow Remake\i3Server\include\i3Base\tinyxml.h

; 107  : 	void Clear()		{ row = col = -1; }

  004c3	c7 43 40 ff ff
	ff ff		 mov	 DWORD PTR [ebx+64], -1
  004ca	c7 43 3c ff ff
	ff ff		 mov	 DWORD PTR [ebx+60], -1
$LN108@Parse:
; File E:\Proyectos\JuegosOnlineproyectos\PB\pbblow\Piercing Blow Remake\i3Server\src\i3Base\tinyxmlparser.cpp

; 1585 : 		return 0;

  004d1	33 c0		 xor	 eax, eax

; 1629 : 				++p;
; 1630 : 		}
; 1631 : 	}
; 1632 : 	return 0;
; 1633 : }

  004d3	8b 4d f4	 mov	 ecx, DWORD PTR __$EHRec$[ebp]
  004d6	64 89 0d 00 00
	00 00		 mov	 DWORD PTR fs:0, ecx
  004dd	59		 pop	 ecx
  004de	5f		 pop	 edi
  004df	5e		 pop	 esi
  004e0	5b		 pop	 ebx
  004e1	8b e5		 mov	 esp, ebp
  004e3	5d		 pop	 ebp
  004e4	c2 0c 00	 ret	 12			; 0000000cH
_TEXT	ENDS
;	COMDAT text$x
text$x	SEGMENT
__unwindfunclet$?Parse@TiXmlDeclaration@@UAEPBDPBDPAVTiXmlParsingData@@W4TiXmlEncoding@@@Z$0:
  00000	8d 4d c4	 lea	 ecx, DWORD PTR _attrib$4[ebp]
  00003	e9 00 00 00 00	 jmp	 ??1TiXmlAttribute@@UAE@XZ
__unwindfunclet$?Parse@TiXmlDeclaration@@UAEPBDPBDPAVTiXmlParsingData@@W4TiXmlEncoding@@@Z$1:
  00008	8d 4d a0	 lea	 ecx, DWORD PTR _attrib$3[ebp]
  0000b	e9 00 00 00 00	 jmp	 ??1TiXmlAttribute@@UAE@XZ
__unwindfunclet$?Parse@TiXmlDeclaration@@UAEPBDPBDPAVTiXmlParsingData@@W4TiXmlEncoding@@@Z$2:
  00010	8d 8d 7c ff ff
	ff		 lea	 ecx, DWORD PTR _attrib$2[ebp]
  00016	e9 00 00 00 00	 jmp	 ??1TiXmlAttribute@@UAE@XZ
  0001b	cc		 int	 3
  0001c	cc		 int	 3
  0001d	cc		 int	 3
  0001e	cc		 int	 3
  0001f	cc		 int	 3
__ehhandler$?Parse@TiXmlDeclaration@@UAEPBDPBDPAVTiXmlParsingData@@W4TiXmlEncoding@@@Z:
  00020	90		 npad	 1
  00021	90		 npad	 1
  00022	8b 54 24 08	 mov	 edx, DWORD PTR [esp+8]
  00026	8d 42 0c	 lea	 eax, DWORD PTR [edx+12]
  00029	8b 8a 78 ff ff
	ff		 mov	 ecx, DWORD PTR [edx-136]
  0002f	33 c8		 xor	 ecx, eax
  00031	e8 00 00 00 00	 call	 @__security_check_cookie@4
  00036	b8 00 00 00 00	 mov	 eax, OFFSET __ehfuncinfo$?Parse@TiXmlDeclaration@@UAEPBDPBDPAVTiXmlParsingData@@W4TiXmlEncoding@@@Z
  0003b	e9 00 00 00 00	 jmp	 ___CxxFrameHandler3
text$x	ENDS
?Parse@TiXmlDeclaration@@UAEPBDPBDPAVTiXmlParsingData@@W4TiXmlEncoding@@@Z ENDP ; TiXmlDeclaration::Parse
; Function compile flags: /Ogtp
; File E:\Proyectos\JuegosOnlineproyectos\PB\pbblow\Piercing Blow Remake\i3Server\include\i3Base\tinyxml.h
;	COMDAT ?Print@TiXmlDeclaration@@UBEXPAVi3FileStream@@H@Z
_TEXT	SEGMENT
_cfile$ = 8						; size = 4
_depth$ = 12						; size = 4
?Print@TiXmlDeclaration@@UBEXPAVi3FileStream@@H@Z PROC	; TiXmlDeclaration::Print, COMDAT
; _this$ = ecx

; 1321 : 	virtual void Print( i3FileStream* cfile, int depth ) const {

  00000	55		 push	 ebp
  00001	8b ec		 mov	 ebp, esp

; 1322 : 		Print( cfile, depth, 0 );

  00003	8b 01		 mov	 eax, DWORD PTR [ecx]
  00005	6a 00		 push	 0
  00007	ff 75 0c	 push	 DWORD PTR _depth$[ebp]
  0000a	ff 75 08	 push	 DWORD PTR _cfile$[ebp]
  0000d	ff 50 44	 call	 DWORD PTR [eax+68]

; 1323 : 	}

  00010	5d		 pop	 ebp
  00011	c2 08 00	 ret	 8
?Print@TiXmlDeclaration@@UBEXPAVi3FileStream@@H@Z ENDP	; TiXmlDeclaration::Print
_TEXT	ENDS
; Function compile flags: /Ogtp
; File E:\Proyectos\JuegosOnlineproyectos\PB\pbblow\Piercing Blow Remake\i3Server\include\i3Base\tinyxml.h
; File E:\Proyectos\JuegosOnlineproyectos\PB\pbblow\Piercing Blow Remake\i3Server\include\i3Base\tinystr.h
; File E:\Proyectos\JuegosOnlineproyectos\PB\pbblow\Piercing Blow Remake\i3Server\include\i3Base\tinyxml.h
;	COMDAT ?Standalone@TiXmlDeclaration@@QBEPBDXZ
_TEXT	SEGMENT
?Standalone@TiXmlDeclaration@@QBEPBDXZ PROC		; TiXmlDeclaration::Standalone, COMDAT
; _this$ = ecx
; File E:\Proyectos\JuegosOnlineproyectos\PB\pbblow\Piercing Blow Remake\i3Server\include\i3Base\tinystr.h

; 144  : 	const char * c_str () const { return rep_->str; }

  00000	8b 41 34	 mov	 eax, DWORD PTR [ecx+52]
  00003	83 c0 08	 add	 eax, 8
; File E:\Proyectos\JuegosOnlineproyectos\PB\pbblow\Piercing Blow Remake\i3Server\include\i3Base\tinyxml.h

; 1315 : 	const char *Standalone() const		{ return standalone.c_str (); }

  00006	c3		 ret	 0
?Standalone@TiXmlDeclaration@@QBEPBDXZ ENDP		; TiXmlDeclaration::Standalone
_TEXT	ENDS
; Function compile flags: /Ogtp
; File E:\Proyectos\JuegosOnlineproyectos\PB\pbblow\Piercing Blow Remake\i3Server\include\i3Base\tinyxml.h
; File E:\Proyectos\JuegosOnlineproyectos\PB\pbblow\Piercing Blow Remake\i3Server\include\i3Base\tinystr.h
; File E:\Proyectos\JuegosOnlineproyectos\PB\pbblow\Piercing Blow Remake\i3Server\include\i3Base\tinyxml.h
;	COMDAT ?Encoding@TiXmlDeclaration@@QBEPBDXZ
_TEXT	SEGMENT
?Encoding@TiXmlDeclaration@@QBEPBDXZ PROC		; TiXmlDeclaration::Encoding, COMDAT
; _this$ = ecx
; File E:\Proyectos\JuegosOnlineproyectos\PB\pbblow\Piercing Blow Remake\i3Server\include\i3Base\tinystr.h

; 144  : 	const char * c_str () const { return rep_->str; }

  00000	8b 41 30	 mov	 eax, DWORD PTR [ecx+48]
  00003	83 c0 08	 add	 eax, 8
; File E:\Proyectos\JuegosOnlineproyectos\PB\pbblow\Piercing Blow Remake\i3Server\include\i3Base\tinyxml.h

; 1313 : 	const char *Encoding() const		{ return encoding.c_str (); }

  00006	c3		 ret	 0
?Encoding@TiXmlDeclaration@@QBEPBDXZ ENDP		; TiXmlDeclaration::Encoding
_TEXT	ENDS
; Function compile flags: /Ogtp
; File E:\Proyectos\JuegosOnlineproyectos\PB\pbblow\Piercing Blow Remake\i3Server\include\i3Base\tinyxml.h
; File E:\Proyectos\JuegosOnlineproyectos\PB\pbblow\Piercing Blow Remake\i3Server\include\i3Base\tinystr.h
; File E:\Proyectos\JuegosOnlineproyectos\PB\pbblow\Piercing Blow Remake\i3Server\include\i3Base\tinyxml.h
;	COMDAT ?Version@TiXmlDeclaration@@QBEPBDXZ
_TEXT	SEGMENT
?Version@TiXmlDeclaration@@QBEPBDXZ PROC		; TiXmlDeclaration::Version, COMDAT
; _this$ = ecx
; File E:\Proyectos\JuegosOnlineproyectos\PB\pbblow\Piercing Blow Remake\i3Server\include\i3Base\tinystr.h

; 144  : 	const char * c_str () const { return rep_->str; }

  00000	8b 41 2c	 mov	 eax, DWORD PTR [ecx+44]
  00003	83 c0 08	 add	 eax, 8
; File E:\Proyectos\JuegosOnlineproyectos\PB\pbblow\Piercing Blow Remake\i3Server\include\i3Base\tinyxml.h

; 1311 : 	const char *Version() const			{ return version.c_str (); }

  00006	c3		 ret	 0
?Version@TiXmlDeclaration@@QBEPBDXZ ENDP		; TiXmlDeclaration::Version
_TEXT	ENDS
; Function compile flags: /Ogtp
; File E:\Proyectos\JuegosOnlineproyectos\PB\pbblow\Piercing Blow Remake\i3Server\include\i3Base\tinyxml.h
; File E:\Proyectos\JuegosOnlineproyectos\PB\pbblow\Piercing Blow Remake\i3Server\include\i3Base\tinystr.h
; File E:\Proyectos\JuegosOnlineproyectos\PB\pbblow\Piercing Blow Remake\i3Server\include\i3Base\tinyxml.h
;	COMDAT ??1TiXmlDeclaration@@UAE@XZ
_TEXT	SEGMENT
??1TiXmlDeclaration@@UAE@XZ PROC			; TiXmlDeclaration::~TiXmlDeclaration, COMDAT
; _this$ = ecx

; 1308 : 	virtual ~TiXmlDeclaration()	{}

  00000	56		 push	 esi
  00001	8b f1		 mov	 esi, ecx
  00003	c7 06 00 00 00
	00		 mov	 DWORD PTR [esi], OFFSET ??_7TiXmlDeclaration@@6B@
; File E:\Proyectos\JuegosOnlineproyectos\PB\pbblow\Piercing Blow Remake\i3Server\include\i3Base\tinystr.h

; 257  : 		if (rep_ != &nullrep_)

  00009	8b 46 34	 mov	 eax, DWORD PTR [esi+52]
  0000c	3d 00 00 00 00	 cmp	 eax, OFFSET ?nullrep_@TiXmlString@@0URep@1@A ; TiXmlString::nullrep_
  00011	74 09		 je	 SHORT $LN8@TiXmlDecla

; 258  : 		{
; 259  : 			// The rep_ is really an array of ints. (see the allocator, above).
; 260  : 			// Cast it back before delete, so the compiler won't incorrectly call destructors.
; 261  : 			delete [] ( reinterpret_cast<int*>( rep_ ) );

  00013	50		 push	 eax
  00014	e8 00 00 00 00	 call	 ??_V@YAXPAX@Z		; operator delete[]
  00019	83 c4 04	 add	 esp, 4
$LN8@TiXmlDecla:

; 257  : 		if (rep_ != &nullrep_)

  0001c	8b 46 30	 mov	 eax, DWORD PTR [esi+48]
  0001f	3d 00 00 00 00	 cmp	 eax, OFFSET ?nullrep_@TiXmlString@@0URep@1@A ; TiXmlString::nullrep_
  00024	74 09		 je	 SHORT $LN14@TiXmlDecla

; 258  : 		{
; 259  : 			// The rep_ is really an array of ints. (see the allocator, above).
; 260  : 			// Cast it back before delete, so the compiler won't incorrectly call destructors.
; 261  : 			delete [] ( reinterpret_cast<int*>( rep_ ) );

  00026	50		 push	 eax
  00027	e8 00 00 00 00	 call	 ??_V@YAXPAX@Z		; operator delete[]
  0002c	83 c4 04	 add	 esp, 4
$LN14@TiXmlDecla:

; 257  : 		if (rep_ != &nullrep_)

  0002f	8b 46 2c	 mov	 eax, DWORD PTR [esi+44]
  00032	3d 00 00 00 00	 cmp	 eax, OFFSET ?nullrep_@TiXmlString@@0URep@1@A ; TiXmlString::nullrep_
  00037	74 09		 je	 SHORT $LN20@TiXmlDecla

; 258  : 		{
; 259  : 			// The rep_ is really an array of ints. (see the allocator, above).
; 260  : 			// Cast it back before delete, so the compiler won't incorrectly call destructors.
; 261  : 			delete [] ( reinterpret_cast<int*>( rep_ ) );

  00039	50		 push	 eax
  0003a	e8 00 00 00 00	 call	 ??_V@YAXPAX@Z		; operator delete[]
  0003f	83 c4 04	 add	 esp, 4
$LN20@TiXmlDecla:
; File E:\Proyectos\JuegosOnlineproyectos\PB\pbblow\Piercing Blow Remake\i3Server\include\i3Base\tinyxml.h

; 1308 : 	virtual ~TiXmlDeclaration()	{}

  00042	8b ce		 mov	 ecx, esi
  00044	5e		 pop	 esi
  00045	e9 00 00 00 00	 jmp	 ??1TiXmlNode@@UAE@XZ	; TiXmlNode::~TiXmlNode
??1TiXmlDeclaration@@UAE@XZ ENDP			; TiXmlDeclaration::~TiXmlDeclaration
_TEXT	ENDS
; Function compile flags: /Ogtp
; File E:\Proyectos\JuegosOnlineproyectos\PB\pbblow\Piercing Blow Remake\i3Server\include\i3Base\tinyxml.h
; File E:\Proyectos\JuegosOnlineproyectos\PB\pbblow\Piercing Blow Remake\i3Server\include\i3Base\tinystr.h
; File E:\Proyectos\JuegosOnlineproyectos\PB\pbblow\Piercing Blow Remake\i3Server\include\i3Base\tinyxml.h
;	COMDAT ??0TiXmlDeclaration@@QAE@XZ
_TEXT	SEGMENT
_this$ = -4						; size = 4
??0TiXmlDeclaration@@QAE@XZ PROC			; TiXmlDeclaration::TiXmlDeclaration, COMDAT
; _this$ = ecx

; 1291 : 	TiXmlDeclaration()   : TiXmlNode( TiXmlNode::DECLARATION ) {}

  00000	55		 push	 ebp
  00001	8b ec		 mov	 ebp, esp
  00003	51		 push	 ecx
  00004	56		 push	 esi
  00005	8b f1		 mov	 esi, ecx
  00007	6a 05		 push	 5
  00009	89 75 fc	 mov	 DWORD PTR _this$[ebp], esi
  0000c	e8 00 00 00 00	 call	 ??0TiXmlNode@@IAE@W4NodeType@0@@Z ; TiXmlNode::TiXmlNode
  00011	c7 06 00 00 00
	00		 mov	 DWORD PTR [esi], OFFSET ??_7TiXmlDeclaration@@6B@
  00017	8b c6		 mov	 eax, esi
; File E:\Proyectos\JuegosOnlineproyectos\PB\pbblow\Piercing Blow Remake\i3Server\include\i3Base\tinystr.h

; 80   : 	TiXmlString () : rep_(&nullrep_)

  00019	c7 46 2c 00 00
	00 00		 mov	 DWORD PTR [esi+44], OFFSET ?nullrep_@TiXmlString@@0URep@1@A ; TiXmlString::nullrep_
  00020	c7 46 30 00 00
	00 00		 mov	 DWORD PTR [esi+48], OFFSET ?nullrep_@TiXmlString@@0URep@1@A ; TiXmlString::nullrep_
  00027	c7 46 34 00 00
	00 00		 mov	 DWORD PTR [esi+52], OFFSET ?nullrep_@TiXmlString@@0URep@1@A ; TiXmlString::nullrep_
; File E:\Proyectos\JuegosOnlineproyectos\PB\pbblow\Piercing Blow Remake\i3Server\include\i3Base\tinyxml.h

; 1291 : 	TiXmlDeclaration()   : TiXmlNode( TiXmlNode::DECLARATION ) {}

  0002e	5e		 pop	 esi
  0002f	8b e5		 mov	 esp, ebp
  00031	5d		 pop	 ebp
  00032	c3		 ret	 0
??0TiXmlDeclaration@@QAE@XZ ENDP			; TiXmlDeclaration::TiXmlDeclaration
_TEXT	ENDS
; Function compile flags: /Ogtp
; File E:\Proyectos\JuegosOnlineproyectos\PB\pbblow\Piercing Blow Remake\i3Server\include\i3Base\tinyxml.h
;	COMDAT ??_ETiXmlText@@UAEPAXI@Z
_TEXT	SEGMENT
__$EHRec$ = -12						; size = 12
___flags$ = 8						; size = 4
??_ETiXmlText@@UAEPAXI@Z PROC				; TiXmlText::`vector deleting destructor', COMDAT
; _this$ = ecx
  00000	55		 push	 ebp
  00001	8b ec		 mov	 ebp, esp
  00003	6a ff		 push	 -1
  00005	68 00 00 00 00	 push	 __ehhandler$??_ETiXmlText@@UAEPAXI@Z
  0000a	64 a1 00 00 00
	00		 mov	 eax, DWORD PTR fs:0
  00010	50		 push	 eax
  00011	53		 push	 ebx
  00012	56		 push	 esi
  00013	57		 push	 edi
  00014	a1 00 00 00 00	 mov	 eax, DWORD PTR ___security_cookie
  00019	33 c5		 xor	 eax, ebp
  0001b	50		 push	 eax
  0001c	8d 45 f4	 lea	 eax, DWORD PTR __$EHRec$[ebp]
  0001f	64 a3 00 00 00
	00		 mov	 DWORD PTR fs:0, eax
  00025	8b f1		 mov	 esi, ecx
  00027	8b 45 08	 mov	 eax, DWORD PTR ___flags$[ebp]
  0002a	8b f8		 mov	 edi, eax
  0002c	83 e7 01	 and	 edi, 1
  0002f	a8 02		 test	 al, 2
  00031	74 42		 je	 SHORT $LN2@vector
  00033	68 00 00 00 00	 push	 OFFSET ??1TiXmlText@@UAE@XZ ; TiXmlText::~TiXmlText
  00038	ff 76 fc	 push	 DWORD PTR [esi-4]
  0003b	8d 5e fc	 lea	 ebx, DWORD PTR [esi-4]
  0003e	6a 30		 push	 48			; 00000030H
  00040	56		 push	 esi
  00041	e8 00 00 00 00	 call	 ??_M@YGXPAXIIP6EX0@Z@Z
  00046	85 ff		 test	 edi, edi
  00048	74 15		 je	 SHORT $LN3@vector
  0004a	8b 0b		 mov	 ecx, DWORD PTR [ebx]
  0004c	8d 0c 49	 lea	 ecx, DWORD PTR [ecx+ecx*2]
  0004f	c1 e1 04	 shl	 ecx, 4
  00052	83 c1 04	 add	 ecx, 4
  00055	51		 push	 ecx
  00056	53		 push	 ebx
  00057	e8 00 00 00 00	 call	 ??_V@YAXPAXI@Z		; operator delete[]
  0005c	83 c4 08	 add	 esp, 8
$LN3@vector:
  0005f	8b c3		 mov	 eax, ebx
  00061	8b 4d f4	 mov	 ecx, DWORD PTR __$EHRec$[ebp]
  00064	64 89 0d 00 00
	00 00		 mov	 DWORD PTR fs:0, ecx
  0006b	59		 pop	 ecx
  0006c	5f		 pop	 edi
  0006d	5e		 pop	 esi
  0006e	5b		 pop	 ebx
  0006f	8b e5		 mov	 esp, ebp
  00071	5d		 pop	 ebp
  00072	c2 04 00	 ret	 4
$LN2@vector:

; 1227 : 	virtual ~TiXmlText() {}

  00075	c7 06 00 00 00
	00		 mov	 DWORD PTR [esi], OFFSET ??_7TiXmlText@@6B@
  0007b	e8 00 00 00 00	 call	 ??1TiXmlNode@@UAE@XZ	; TiXmlNode::~TiXmlNode
  00080	85 ff		 test	 edi, edi
  00082	74 0b		 je	 SHORT $LN4@vector
  00084	6a 30		 push	 48			; 00000030H
  00086	56		 push	 esi
  00087	e8 00 00 00 00	 call	 ??3@YAXPAXI@Z		; operator delete
  0008c	83 c4 08	 add	 esp, 8
$LN4@vector:
  0008f	8b c6		 mov	 eax, esi
  00091	8b 4d f4	 mov	 ecx, DWORD PTR __$EHRec$[ebp]
  00094	64 89 0d 00 00
	00 00		 mov	 DWORD PTR fs:0, ecx
  0009b	59		 pop	 ecx
  0009c	5f		 pop	 edi
  0009d	5e		 pop	 esi
  0009e	5b		 pop	 ebx
  0009f	8b e5		 mov	 esp, ebp
  000a1	5d		 pop	 ebp
  000a2	c2 04 00	 ret	 4
  000a5	cc		 int	 3
  000a6	cc		 int	 3
  000a7	cc		 int	 3
  000a8	cc		 int	 3
  000a9	cc		 int	 3
_TEXT	ENDS
;	COMDAT text$x
text$x	SEGMENT
__ehhandler$??_ETiXmlText@@UAEPAXI@Z:
  00000	90		 npad	 1
  00001	90		 npad	 1
  00002	8b 54 24 08	 mov	 edx, DWORD PTR [esp+8]
  00006	8d 42 0c	 lea	 eax, DWORD PTR [edx+12]
  00009	8b 4a f0	 mov	 ecx, DWORD PTR [edx-16]
  0000c	33 c8		 xor	 ecx, eax
  0000e	e8 00 00 00 00	 call	 @__security_check_cookie@4
  00013	b8 00 00 00 00	 mov	 eax, OFFSET __ehfuncinfo$??_ETiXmlText@@UAEPAXI@Z
  00018	e9 00 00 00 00	 jmp	 ___CxxFrameHandler3
text$x	ENDS
??_ETiXmlText@@UAEPAXI@Z ENDP				; TiXmlText::`vector deleting destructor'
; Function compile flags: /Ogtp
; File E:\Proyectos\JuegosOnlineproyectos\PB\pbblow\Piercing Blow Remake\i3Server\include\i3Base\tinyxml.h
;	COMDAT ??_GTiXmlText@@UAEPAXI@Z
_TEXT	SEGMENT
___flags$ = 8						; size = 4
??_GTiXmlText@@UAEPAXI@Z PROC				; TiXmlText::`scalar deleting destructor', COMDAT
; _this$ = ecx
  00000	55		 push	 ebp
  00001	8b ec		 mov	 ebp, esp

; 1227 : 	virtual ~TiXmlText() {}

  00003	56		 push	 esi
  00004	8b f1		 mov	 esi, ecx
  00006	c7 06 00 00 00
	00		 mov	 DWORD PTR [esi], OFFSET ??_7TiXmlText@@6B@
  0000c	e8 00 00 00 00	 call	 ??1TiXmlNode@@UAE@XZ	; TiXmlNode::~TiXmlNode
  00011	f6 45 08 01	 test	 BYTE PTR ___flags$[ebp], 1
  00015	74 0b		 je	 SHORT $LN10@scalar
  00017	6a 30		 push	 48			; 00000030H
  00019	56		 push	 esi
  0001a	e8 00 00 00 00	 call	 ??3@YAXPAXI@Z		; operator delete
  0001f	83 c4 08	 add	 esp, 8
$LN10@scalar:
  00022	8b c6		 mov	 eax, esi
  00024	5e		 pop	 esi
  00025	5d		 pop	 ebp
  00026	c2 04 00	 ret	 4
??_GTiXmlText@@UAEPAXI@Z ENDP				; TiXmlText::`scalar deleting destructor'
_TEXT	ENDS
; Function compile flags: /Ogtp
; File E:\Proyectos\JuegosOnlineproyectos\PB\pbblow\Piercing Blow Remake\i3Server\src\i3Base\tinyxmlparser.cpp
; File E:\Proyectos\JuegosOnlineproyectos\PB\pbblow\Piercing Blow Remake\i3Server\include\i3Base\tinystr.h
; File E:\Proyectos\JuegosOnlineproyectos\PB\pbblow\Piercing Blow Remake\i3Server\src\i3Base\tinyxmlparser.cpp
; File E:\Proyectos\JuegosOnlineproyectos\PB\pbblow\Piercing Blow Remake\i3Server\include\i3Base\tinyxml.h
; File E:\Proyectos\JuegosOnlineproyectos\PB\pbblow\Piercing Blow Remake\i3Server\include\i3Base\tinystr.h
; File E:\Proyectos\JuegosOnlineproyectos\PB\pbblow\Piercing Blow Remake\i3Server\src\i3Base\tinyxmlparser.cpp
;	COMDAT ?Blank@TiXmlText@@IBE_NXZ
_TEXT	SEGMENT
?Blank@TiXmlText@@IBE_NXZ PROC				; TiXmlText::Blank, COMDAT
; _this$ = ecx

; 1636 : {

  00000	53		 push	 ebx
  00001	56		 push	 esi
  00002	57		 push	 edi
  00003	8b f9		 mov	 edi, ecx

; 1637 : 	for ( unsigned i=0; i<value.length(); i++ )

  00005	33 f6		 xor	 esi, esi
; File E:\Proyectos\JuegosOnlineproyectos\PB\pbblow\Piercing Blow Remake\i3Server\include\i3Base\tinystr.h

; 150  : 	size_type length () const { return rep_->size; }

  00007	8b 47 20	 mov	 eax, DWORD PTR [edi+32]
; File E:\Proyectos\JuegosOnlineproyectos\PB\pbblow\Piercing Blow Remake\i3Server\src\i3Base\tinyxmlparser.cpp

; 1637 : 	for ( unsigned i=0; i<value.length(); i++ )

  0000a	39 30		 cmp	 DWORD PTR [eax], esi
  0000c	76 28		 jbe	 SHORT $LN3@Blank
  0000e	8b ff		 npad	 2
$LL4@Blank:

; 1638 : 		if ( !IsWhiteSpace( value[i] ) )

  00010	8a 5c 30 08	 mov	 bl, BYTE PTR [eax+esi+8]
; File E:\Proyectos\JuegosOnlineproyectos\PB\pbblow\Piercing Blow Remake\i3Server\include\i3Base\tinyxml.h

; 296  : 		return ( isspace( (unsigned char) c ) || c == '\n' || c == '\r' ); 

  00014	0f b6 c3	 movzx	 eax, bl
  00017	50		 push	 eax
  00018	e8 00 00 00 00	 call	 _isspace
  0001d	83 c4 04	 add	 esp, 4
  00020	85 c0		 test	 eax, eax
  00022	75 0a		 jne	 SHORT $LN13@Blank
  00024	80 fb 0a	 cmp	 bl, 10			; 0000000aH
  00027	74 05		 je	 SHORT $LN13@Blank
  00029	80 fb 0d	 cmp	 bl, 13			; 0000000dH
  0002c	75 0e		 jne	 SHORT $LN16@Blank
$LN13@Blank:
; File E:\Proyectos\JuegosOnlineproyectos\PB\pbblow\Piercing Blow Remake\i3Server\include\i3Base\tinystr.h

; 150  : 	size_type length () const { return rep_->size; }

  0002e	8b 47 20	 mov	 eax, DWORD PTR [edi+32]
; File E:\Proyectos\JuegosOnlineproyectos\PB\pbblow\Piercing Blow Remake\i3Server\src\i3Base\tinyxmlparser.cpp

; 1637 : 	for ( unsigned i=0; i<value.length(); i++ )

  00031	46		 inc	 esi
  00032	3b 30		 cmp	 esi, DWORD PTR [eax]
  00034	72 da		 jb	 SHORT $LL4@Blank
$LN3@Blank:
  00036	5f		 pop	 edi

; 1639 : 			return false;
; 1640 : 	return true;
; 1641 : }

  00037	5e		 pop	 esi
  00038	b0 01		 mov	 al, 1
  0003a	5b		 pop	 ebx
  0003b	c3		 ret	 0
$LN16@Blank:
  0003c	5f		 pop	 edi
  0003d	5e		 pop	 esi
  0003e	32 c0		 xor	 al, al
  00040	5b		 pop	 ebx
  00041	c3		 ret	 0
?Blank@TiXmlText@@IBE_NXZ ENDP				; TiXmlText::Blank
_TEXT	ENDS
; Function compile flags: /Ogtp
; File E:\Proyectos\JuegosOnlineproyectos\PB\pbblow\Piercing Blow Remake\i3Server\include\i3Base\tinyxml.h
;	COMDAT ?ToText@TiXmlText@@UAEPAV1@XZ
_TEXT	SEGMENT
?ToText@TiXmlText@@UAEPAV1@XZ PROC			; TiXmlText::ToText, COMDAT
; _this$ = ecx

; 1252 : 	virtual TiXmlText*       ToText()       { return this; } ///< Cast to a more defined type. Will return null not of the requested type.

  00000	8b c1		 mov	 eax, ecx
  00002	c3		 ret	 0
?ToText@TiXmlText@@UAEPAV1@XZ ENDP			; TiXmlText::ToText
_TEXT	ENDS
; Function compile flags: /Ogtp
; File E:\Proyectos\JuegosOnlineproyectos\PB\pbblow\Piercing Blow Remake\i3Server\include\i3Base\tinyxml.h
;	COMDAT ?ToText@TiXmlText@@UBEPBV1@XZ
_TEXT	SEGMENT
?ToText@TiXmlText@@UBEPBV1@XZ PROC			; TiXmlText::ToText, COMDAT
; _this$ = ecx

; 1251 : 	virtual const TiXmlText* ToText() const { return this; } ///< Cast to a more defined type. Will return null not of the requested type.

  00000	8b c1		 mov	 eax, ecx
  00002	c3		 ret	 0
?ToText@TiXmlText@@UBEPBV1@XZ ENDP			; TiXmlText::ToText
_TEXT	ENDS
; Function compile flags: /Ogtp
; File E:\Proyectos\JuegosOnlineproyectos\PB\pbblow\Piercing Blow Remake\i3Server\src\i3Base\tinyxmlparser.cpp
; File E:\Proyectos\JuegosOnlineproyectos\PB\pbblow\Piercing Blow Remake\i3Server\include\i3Base\tinystr.h
; File E:\Proyectos\JuegosOnlineproyectos\PB\pbblow\Piercing Blow Remake\i3Server\src\i3Base\tinyxmlparser.cpp
; File E:\Proyectos\JuegosOnlineproyectos\PB\pbblow\Piercing Blow Remake\i3Server\include\i3Base\tinystr.h
; File E:\Proyectos\JuegosOnlineproyectos\PB\pbblow\Piercing Blow Remake\i3Server\include\i3Base\tinyxml.h
; File E:\Proyectos\JuegosOnlineproyectos\PB\pbblow\Piercing Blow Remake\i3Server\src\i3Base\tinyxmlparser.cpp
; File E:\Proyectos\JuegosOnlineproyectos\PB\pbblow\Piercing Blow Remake\i3Server\include\i3Base\tinystr.h
; File E:\Proyectos\JuegosOnlineproyectos\PB\pbblow\Piercing Blow Remake\i3Server\src\i3Base\tinyxmlparser.cpp
; File E:\Proyectos\JuegosOnlineproyectos\PB\pbblow\Piercing Blow Remake\i3Server\include\i3Base\tinystr.h
; File E:\Proyectos\JuegosOnlineproyectos\PB\pbblow\Piercing Blow Remake\i3Server\src\i3Base\tinyxmlparser.cpp
; File E:\Proyectos\JuegosOnlineproyectos\PB\pbblow\Piercing Blow Remake\i3Server\include\i3Base\tinystr.h
; File E:\Proyectos\JuegosOnlineproyectos\PB\pbblow\Piercing Blow Remake\i3Server\src\i3Base\tinyxmlparser.cpp
; File E:\Proyectos\JuegosOnlineproyectos\PB\pbblow\Piercing Blow Remake\i3Server\include\i3Base\tinystr.h
; File E:\Proyectos\JuegosOnlineproyectos\PB\pbblow\Piercing Blow Remake\i3Server\src\i3Base\tinyxmlparser.cpp
; File E:\Proyectos\JuegosOnlineproyectos\PB\pbblow\Piercing Blow Remake\i3Server\include\i3Base\tinystr.h
; File E:\Proyectos\JuegosOnlineproyectos\PB\pbblow\Piercing Blow Remake\i3Server\src\i3Base\tinyxmlparser.cpp
; File E:\Proyectos\JuegosOnlineproyectos\PB\pbblow\Piercing Blow Remake\i3Server\include\i3Base\tinystr.h
; File E:\Proyectos\JuegosOnlineproyectos\PB\pbblow\Piercing Blow Remake\i3Server\src\i3Base\tinyxmlparser.cpp
; File E:\Proyectos\JuegosOnlineproyectos\PB\pbblow\Piercing Blow Remake\i3Server\include\i3Base\tinystr.h
; File E:\Proyectos\JuegosOnlineproyectos\PB\pbblow\Piercing Blow Remake\i3Server\include\i3Base\tinyxml.h
; File E:\Proyectos\JuegosOnlineproyectos\PB\pbblow\Piercing Blow Remake\i3Server\src\i3Base\tinyxmlparser.cpp
;	COMDAT ?Parse@TiXmlText@@UAEPBDPBDPAVTiXmlParsingData@@W4TiXmlEncoding@@@Z
_TEXT	SEGMENT
_document$1$ = -20					; size = 4
tv614 = -16						; size = 4
__$EHRec$ = -12						; size = 12
_p$ = 8							; size = 4
_dummy$2 = 8						; size = 4
_data$ = 12						; size = 4
_single$ = 12						; size = 1
tv605 = 12						; size = 4
_encoding$ = 16						; size = 4
?Parse@TiXmlText@@UAEPBDPBDPAVTiXmlParsingData@@W4TiXmlEncoding@@@Z PROC ; TiXmlText::Parse, COMDAT
; _this$ = ecx

; 1503 : {

  00000	55		 push	 ebp
  00001	8b ec		 mov	 ebp, esp
  00003	6a ff		 push	 -1
  00005	68 00 00 00 00	 push	 __ehhandler$?Parse@TiXmlText@@UAEPBDPBDPAVTiXmlParsingData@@W4TiXmlEncoding@@@Z
  0000a	64 a1 00 00 00
	00		 mov	 eax, DWORD PTR fs:0
  00010	50		 push	 eax
  00011	83 ec 08	 sub	 esp, 8
  00014	53		 push	 ebx
  00015	56		 push	 esi
  00016	57		 push	 edi
  00017	a1 00 00 00 00	 mov	 eax, DWORD PTR ___security_cookie
  0001c	33 c5		 xor	 eax, ebp
  0001e	50		 push	 eax
  0001f	8d 45 f4	 lea	 eax, DWORD PTR __$EHRec$[ebp]
  00022	64 a3 00 00 00
	00		 mov	 DWORD PTR fs:0, eax
  00028	8b f9		 mov	 edi, ecx

; 1504 : 	value = "";

  0002a	8d 47 20	 lea	 eax, DWORD PTR [edi+32]
; File E:\Proyectos\JuegosOnlineproyectos\PB\pbblow\Piercing Blow Remake\i3Server\include\i3Base\tinystr.h

; 114  : 		return assign( copy, (size_type)strlen(copy));

  0002d	6a 00		 push	 0
  0002f	68 00 00 00 00	 push	 OFFSET ??_C@_00CNPNBAHC@@
  00034	8b c8		 mov	 ecx, eax
; File E:\Proyectos\JuegosOnlineproyectos\PB\pbblow\Piercing Blow Remake\i3Server\src\i3Base\tinyxmlparser.cpp

; 1504 : 	value = "";

  00036	89 45 f0	 mov	 DWORD PTR tv614[ebp], eax
; File E:\Proyectos\JuegosOnlineproyectos\PB\pbblow\Piercing Blow Remake\i3Server\include\i3Base\tinystr.h

; 114  : 		return assign( copy, (size_type)strlen(copy));

  00039	e8 00 00 00 00	 call	 ?assign@TiXmlString@@QAEAAV1@PBDI@Z ; TiXmlString::assign
; File E:\Proyectos\JuegosOnlineproyectos\PB\pbblow\Piercing Blow Remake\i3Server\include\i3Base\tinyxml.h

; 695  : 		return const_cast< TiXmlDocument* >( (const_cast< const TiXmlNode* >(this))->GetDocument() );

  0003e	8b cf		 mov	 ecx, edi
  00040	e8 00 00 00 00	 call	 ?GetDocument@TiXmlNode@@QBEPBVTiXmlDocument@@XZ ; TiXmlNode::GetDocument
; File E:\Proyectos\JuegosOnlineproyectos\PB\pbblow\Piercing Blow Remake\i3Server\src\i3Base\tinyxmlparser.cpp

; 1507 : 	if ( data )

  00045	8b 5d 0c	 mov	 ebx, DWORD PTR _data$[ebp]
  00048	8b 75 08	 mov	 esi, DWORD PTR _p$[ebp]
  0004b	89 45 ec	 mov	 DWORD PTR _document$1$[ebp], eax
  0004e	85 db		 test	 ebx, ebx
  00050	74 16		 je	 SHORT $LN4@Parse

; 1508 : 	{
; 1509 : 		data->Stamp( p, encoding );

  00052	ff 75 10	 push	 DWORD PTR _encoding$[ebp]
  00055	8b cb		 mov	 ecx, ebx
  00057	56		 push	 esi
  00058	e8 00 00 00 00	 call	 ?Stamp@TiXmlParsingData@@QAEXPBDW4TiXmlEncoding@@@Z ; TiXmlParsingData::Stamp

; 1510 : 		location = data->Cursor();

  0005d	8b 03		 mov	 eax, DWORD PTR [ebx]
  0005f	8b 4b 04	 mov	 ecx, DWORD PTR [ebx+4]
  00062	89 47 04	 mov	 DWORD PTR [edi+4], eax
  00065	89 4f 08	 mov	 DWORD PTR [edi+8], ecx
$LN4@Parse:

; 1511 : 	}
; 1512 : 
; 1513 : 	const char* const startTag = "<![CDATA[";
; 1514 : 	const char* const endTag   = "]]>";
; 1515 : 
; 1516 : 	if ( cdata || StringEqual( p, startTag, false, encoding ) )

  00068	80 7f 2c 00	 cmp	 BYTE PTR [edi+44], 0
  0006c	b9 00 00 00 00	 mov	 ecx, OFFSET ??_C@_09BLLNCBLF@?$DM?$CB?$FLCDATA?$FL@
  00071	75 64		 jne	 SHORT $LN7@Parse

; 545  : 	if ( !p || !*p )

  00073	85 f6		 test	 esi, esi
  00075	74 2a		 je	 SHORT $LN28@Parse
  00077	80 3e 00	 cmp	 BYTE PTR [esi], 0
  0007a	74 25		 je	 SHORT $LN28@Parse

; 546  : 	{
; 547  : 		I3ASSERT_0;
; 548  : 		return false;
; 549  : 	}
; 550  : 
; 551  : 	const char* q = p;

  0007c	8b c6		 mov	 eax, esi
  0007e	8b ff		 npad	 2
$LL21@Parse:

; 552  : 
; 553  : 	if ( ignoreCase )
; 554  : 	{
; 555  : 		while ( *q && *tag && ToLower( *q, encoding ) == ToLower( *tag, encoding ) )
; 556  : 		{
; 557  : 			++q;
; 558  : 			++tag;
; 559  : 		}
; 560  : 
; 561  : 		if ( *tag == 0 )
; 562  : 			return true;
; 563  : 	}
; 564  : 	else
; 565  : 	{
; 566  : 		while ( *q && *tag && *q == *tag )

  00080	8a 11		 mov	 dl, BYTE PTR [ecx]
  00082	84 d2		 test	 dl, dl
  00084	74 10		 je	 SHORT $LN132@Parse
  00086	38 10		 cmp	 BYTE PTR [eax], dl
  00088	75 07		 jne	 SHORT $LN22@Parse

; 567  : 		{
; 568  : 			++q;

  0008a	40		 inc	 eax

; 569  : 			++tag;

  0008b	41		 inc	 ecx
  0008c	80 38 00	 cmp	 BYTE PTR [eax], 0
  0008f	75 ef		 jne	 SHORT $LL21@Parse
$LN22@Parse:

; 570  : 		}
; 571  : 
; 572  : 		if ( *tag == 0 )		// Have we found the end of the tag, and everything equal?

  00091	80 39 00	 cmp	 BYTE PTR [ecx], 0
  00094	75 0b		 jne	 SHORT $LN28@Parse
$LN132@Parse:

; 573  : 			return true;

  00096	c6 47 2c 01	 mov	 BYTE PTR [edi+44], 1
  0009a	b9 00 00 00 00	 mov	 ecx, OFFSET ??_C@_09BLLNCBLF@?$DM?$CB?$FLCDATA?$FL@
  0009f	eb 42		 jmp	 SHORT $LN142@Parse
$LN28@Parse:

; 1539 : 	}
; 1540 : 	else
; 1541 : 	{
; 1542 : 		bool ignoreWhite = true;
; 1543 : 
; 1544 : 		const char* end = "<";
; 1545 : 		p = ReadText( p, &value, ignoreWhite, end, false, encoding );

  000a1	ff 75 10	 push	 DWORD PTR _encoding$[ebp]
  000a4	8b 7d f0	 mov	 edi, DWORD PTR tv614[ebp]
  000a7	6a 00		 push	 0
  000a9	68 00 00 00 00	 push	 OFFSET ??_C@_01MNNFJEPP@?$DM@
  000ae	6a 01		 push	 1
  000b0	57		 push	 edi
  000b1	56		 push	 esi
  000b2	e8 00 00 00 00	 call	 ?ReadText@TiXmlBase@@KAPBDPBDPAVTiXmlString@@_N02W4TiXmlEncoding@@@Z ; TiXmlBase::ReadText
  000b7	83 c4 18	 add	 esp, 24			; 00000018H

; 1546 : 		if ( p )

  000ba	85 c0		 test	 eax, eax
  000bc	0f 84 3e 01 00
	00		 je	 $LN64@Parse

; 1547 : 			return p-1;	// don't truncate the '<'

  000c2	48		 dec	 eax

; 1548 : 		return 0;
; 1549 : 	}
; 1550 : }

  000c3	8b 4d f4	 mov	 ecx, DWORD PTR __$EHRec$[ebp]
  000c6	64 89 0d 00 00
	00 00		 mov	 DWORD PTR fs:0, ecx
  000cd	59		 pop	 ecx
  000ce	5f		 pop	 edi
  000cf	5e		 pop	 esi
  000d0	5b		 pop	 ebx
  000d1	8b e5		 mov	 esp, ebp
  000d3	5d		 pop	 ebp
  000d4	c2 0c 00	 ret	 12			; 0000000cH
$LN7@Parse:

; 1517 : 	{
; 1518 : 		cdata = true;

  000d7	c6 47 2c 01	 mov	 BYTE PTR [edi+44], 1

; 545  : 	if ( !p || !*p )

  000db	85 f6		 test	 esi, esi
  000dd	0f 84 bb 00 00
	00		 je	 $LN50@Parse
$LN142@Parse:
  000e3	80 3e 00	 cmp	 BYTE PTR [esi], 0
  000e6	0f 84 b2 00 00
	00		 je	 $LN50@Parse

; 546  : 	{
; 547  : 		I3ASSERT_0;
; 548  : 		return false;
; 549  : 	}
; 550  : 
; 551  : 	const char* q = p;

  000ec	8b c6		 mov	 eax, esi
  000ee	8b ff		 npad	 2
$LL43@Parse:

; 552  : 
; 553  : 	if ( ignoreCase )
; 554  : 	{
; 555  : 		while ( *q && *tag && ToLower( *q, encoding ) == ToLower( *tag, encoding ) )
; 556  : 		{
; 557  : 			++q;
; 558  : 			++tag;
; 559  : 		}
; 560  : 
; 561  : 		if ( *tag == 0 )
; 562  : 			return true;
; 563  : 	}
; 564  : 	else
; 565  : 	{
; 566  : 		while ( *q && *tag && *q == *tag )

  000f0	8a 11		 mov	 dl, BYTE PTR [ecx]
  000f2	84 d2		 test	 dl, dl
  000f4	74 14		 je	 SHORT $LN8@Parse
  000f6	38 10		 cmp	 BYTE PTR [eax], dl
  000f8	75 07		 jne	 SHORT $LN44@Parse

; 567  : 		{
; 568  : 			++q;

  000fa	40		 inc	 eax

; 569  : 			++tag;

  000fb	41		 inc	 ecx
  000fc	80 38 00	 cmp	 BYTE PTR [eax], 0
  000ff	75 ef		 jne	 SHORT $LL43@Parse
$LN44@Parse:

; 570  : 		}
; 571  : 
; 572  : 		if ( *tag == 0 )		// Have we found the end of the tag, and everything equal?

  00101	80 39 00	 cmp	 BYTE PTR [ecx], 0
  00104	0f 85 94 00 00
	00		 jne	 $LN50@Parse
$LN8@Parse:

; 1524 : 		}
; 1525 : 		p += strlen( startTag );

  0010a	83 c6 09	 add	 esi, 9

; 1526 : 
; 1527 : 		// Keep all the white space, ignore the encoding, etc.
; 1528 : 		while (	   p && *p
; 1529 : 				&& !StringEqual( p, endTag, false, encoding )

  0010d	74 3c		 je	 SHORT $LN136@Parse
  0010f	8b 7d f0	 mov	 edi, DWORD PTR tv614[ebp]
$LL2@Parse:
  00112	8a 1e		 mov	 bl, BYTE PTR [esi]
  00114	84 db		 test	 bl, bl
  00116	74 33		 je	 SHORT $LN136@Parse
  00118	b9 00 00 00 00	 mov	 ecx, OFFSET ??_C@_03MCHNFBAC@?$FN?$FN?$DO@

; 551  : 	const char* q = p;

  0011d	8b c6		 mov	 eax, esi
  0011f	90		 npad	 1
$LL75@Parse:

; 552  : 
; 553  : 	if ( ignoreCase )
; 554  : 	{
; 555  : 		while ( *q && *tag && ToLower( *q, encoding ) == ToLower( *tag, encoding ) )
; 556  : 		{
; 557  : 			++q;
; 558  : 			++tag;
; 559  : 		}
; 560  : 
; 561  : 		if ( *tag == 0 )
; 562  : 			return true;
; 563  : 	}
; 564  : 	else
; 565  : 	{
; 566  : 		while ( *q && *tag && *q == *tag )

  00120	8a 11		 mov	 dl, BYTE PTR [ecx]
  00122	84 d2		 test	 dl, dl
  00124	74 25		 je	 SHORT $LN136@Parse
  00126	38 10		 cmp	 BYTE PTR [eax], dl
  00128	75 07		 jne	 SHORT $LN76@Parse

; 567  : 		{
; 568  : 			++q;

  0012a	40		 inc	 eax

; 569  : 			++tag;

  0012b	41		 inc	 ecx
  0012c	80 38 00	 cmp	 BYTE PTR [eax], 0
  0012f	75 ef		 jne	 SHORT $LL75@Parse
$LN76@Parse:

; 570  : 		}
; 571  : 
; 572  : 		if ( *tag == 0 )		// Have we found the end of the tag, and everything equal?

  00131	80 39 00	 cmp	 BYTE PTR [ecx], 0
  00134	74 15		 je	 SHORT $LN136@Parse
; File E:\Proyectos\JuegosOnlineproyectos\PB\pbblow\Piercing Blow Remake\i3Server\include\i3Base\tinystr.h

; 133  : 		return append(&single, 1);

  00136	6a 01		 push	 1
  00138	8d 45 0c	 lea	 eax, DWORD PTR _single$[ebp]
; File E:\Proyectos\JuegosOnlineproyectos\PB\pbblow\Piercing Blow Remake\i3Server\src\i3Base\tinyxmlparser.cpp

; 1532 : 			value += *p;

  0013b	88 5d 0c	 mov	 BYTE PTR _single$[ebp], bl
; File E:\Proyectos\JuegosOnlineproyectos\PB\pbblow\Piercing Blow Remake\i3Server\include\i3Base\tinystr.h

; 133  : 		return append(&single, 1);

  0013e	50		 push	 eax
  0013f	8b cf		 mov	 ecx, edi
  00141	e8 00 00 00 00	 call	 ?append@TiXmlString@@QAEAAV1@PBDI@Z ; TiXmlString::append
; File E:\Proyectos\JuegosOnlineproyectos\PB\pbblow\Piercing Blow Remake\i3Server\src\i3Base\tinyxmlparser.cpp

; 1533 : 			++p;

  00146	83 c6 01	 add	 esi, 1
  00149	75 c7		 jne	 SHORT $LL2@Parse
$LN136@Parse:
; File E:\Proyectos\JuegosOnlineproyectos\PB\pbblow\Piercing Blow Remake\i3Server\include\i3Base\tinystr.h

; 80   : 	TiXmlString () : rep_(&nullrep_)

  0014b	c7 45 08 00 00
	00 00		 mov	 DWORD PTR _dummy$2[ebp], OFFSET ?nullrep_@TiXmlString@@0URep@1@A ; TiXmlString::nullrep_
; File E:\Proyectos\JuegosOnlineproyectos\PB\pbblow\Piercing Blow Remake\i3Server\src\i3Base\tinyxmlparser.cpp

; 1537 : 		p = ReadText( p, &dummy, false, endTag, false, encoding );

  00152	ff 75 10	 push	 DWORD PTR _encoding$[ebp]
  00155	8d 45 08	 lea	 eax, DWORD PTR _dummy$2[ebp]
  00158	c7 45 fc 00 00
	00 00		 mov	 DWORD PTR __$EHRec$[ebp+8], 0
  0015f	6a 00		 push	 0
  00161	68 00 00 00 00	 push	 OFFSET ??_C@_03MCHNFBAC@?$FN?$FN?$DO@
  00166	6a 00		 push	 0
  00168	50		 push	 eax
  00169	56		 push	 esi
  0016a	e8 00 00 00 00	 call	 ?ReadText@TiXmlBase@@KAPBDPBDPAVTiXmlString@@_N02W4TiXmlEncoding@@@Z ; TiXmlBase::ReadText
; File E:\Proyectos\JuegosOnlineproyectos\PB\pbblow\Piercing Blow Remake\i3Server\include\i3Base\tinystr.h

; 257  : 		if (rep_ != &nullrep_)

  0016f	8b 4d 08	 mov	 ecx, DWORD PTR _dummy$2[ebp]
; File E:\Proyectos\JuegosOnlineproyectos\PB\pbblow\Piercing Blow Remake\i3Server\src\i3Base\tinyxmlparser.cpp

; 1537 : 		p = ReadText( p, &dummy, false, endTag, false, encoding );

  00172	83 c4 18	 add	 esp, 24			; 00000018H

; 1538 : 		return p;

  00175	8b f0		 mov	 esi, eax
; File E:\Proyectos\JuegosOnlineproyectos\PB\pbblow\Piercing Blow Remake\i3Server\include\i3Base\tinystr.h

; 257  : 		if (rep_ != &nullrep_)

  00177	81 f9 00 00 00
	00		 cmp	 ecx, OFFSET ?nullrep_@TiXmlString@@0URep@1@A ; TiXmlString::nullrep_
  0017d	74 09		 je	 SHORT $LN102@Parse

; 258  : 		{
; 259  : 			// The rep_ is really an array of ints. (see the allocator, above).
; 260  : 			// Cast it back before delete, so the compiler won't incorrectly call destructors.
; 261  : 			delete [] ( reinterpret_cast<int*>( rep_ ) );

  0017f	51		 push	 ecx
  00180	e8 00 00 00 00	 call	 ??_V@YAXPAX@Z		; operator delete[]
  00185	83 c4 04	 add	 esp, 4
$LN102@Parse:
; File E:\Proyectos\JuegosOnlineproyectos\PB\pbblow\Piercing Blow Remake\i3Server\src\i3Base\tinyxmlparser.cpp

; 1538 : 		return p;

  00188	8b c6		 mov	 eax, esi

; 1548 : 		return 0;
; 1549 : 	}
; 1550 : }

  0018a	8b 4d f4	 mov	 ecx, DWORD PTR __$EHRec$[ebp]
  0018d	64 89 0d 00 00
	00 00		 mov	 DWORD PTR fs:0, ecx
  00194	59		 pop	 ecx
  00195	5f		 pop	 edi
  00196	5e		 pop	 esi
  00197	5b		 pop	 ebx
  00198	8b e5		 mov	 esp, ebp
  0019a	5d		 pop	 ebp
  0019b	c2 0c 00	 ret	 12			; 0000000cH
$LN50@Parse:

; 805  : 	if ( error )

  0019e	8b 7d ec	 mov	 edi, DWORD PTR _document$1$[ebp]
  001a1	80 7f 2c 00	 cmp	 BYTE PTR [edi+44], 0
  001a5	75 59		 jne	 SHORT $LN64@Parse

; 806  : 		return;
; 807  : 
; 808  : 	I3ASSERT( err > 0 && err < TIXML_ERROR_STRING_COUNT );
; 809  : 	error   = true;

  001a7	c6 47 2c 01	 mov	 BYTE PTR [edi+44], 1

; 810  : 	errorId = err;

  001ab	c7 47 30 0f 00
	00 00		 mov	 DWORD PTR [edi+48], 15	; 0000000fH

; 811  : 	errorDesc = errorString[ errorId ];

  001b2	8b 15 3c 00 00
	00		 mov	 edx, DWORD PTR ?errorString@TiXmlBase@@1PAPBDA+60
; File E:\Proyectos\JuegosOnlineproyectos\PB\pbblow\Piercing Blow Remake\i3Server\include\i3Base\tinystr.h

; 114  : 		return assign( copy, (size_type)strlen(copy));

  001b8	8b ca		 mov	 ecx, edx
  001ba	8d 41 01	 lea	 eax, DWORD PTR [ecx+1]
  001bd	89 45 0c	 mov	 DWORD PTR tv605[ebp], eax
$LL143@Parse:
  001c0	8a 01		 mov	 al, BYTE PTR [ecx]
  001c2	41		 inc	 ecx
  001c3	84 c0		 test	 al, al
  001c5	75 f9		 jne	 SHORT $LL143@Parse
  001c7	2b 4d 0c	 sub	 ecx, DWORD PTR tv605[ebp]
  001ca	51		 push	 ecx
  001cb	52		 push	 edx
; File E:\Proyectos\JuegosOnlineproyectos\PB\pbblow\Piercing Blow Remake\i3Server\src\i3Base\tinyxmlparser.cpp

; 811  : 	errorDesc = errorString[ errorId ];

  001cc	8d 4f 34	 lea	 ecx, DWORD PTR [edi+52]
; File E:\Proyectos\JuegosOnlineproyectos\PB\pbblow\Piercing Blow Remake\i3Server\include\i3Base\tinystr.h

; 114  : 		return assign( copy, (size_type)strlen(copy));

  001cf	e8 00 00 00 00	 call	 ?assign@TiXmlString@@QAEAAV1@PBDI@Z ; TiXmlString::assign
; File E:\Proyectos\JuegosOnlineproyectos\PB\pbblow\Piercing Blow Remake\i3Server\include\i3Base\tinyxml.h

; 107  : 	void Clear()		{ row = col = -1; }

  001d4	c7 47 40 ff ff
	ff ff		 mov	 DWORD PTR [edi+64], -1
  001db	c7 47 3c ff ff
	ff ff		 mov	 DWORD PTR [edi+60], -1
; File E:\Proyectos\JuegosOnlineproyectos\PB\pbblow\Piercing Blow Remake\i3Server\src\i3Base\tinyxmlparser.cpp

; 814  : 	if ( pError && data )

  001e2	85 f6		 test	 esi, esi
  001e4	74 1a		 je	 SHORT $LN64@Parse
  001e6	85 db		 test	 ebx, ebx
  001e8	74 16		 je	 SHORT $LN64@Parse

; 815  : 	{
; 816  : 		data->Stamp( pError, encoding );

  001ea	ff 75 10	 push	 DWORD PTR _encoding$[ebp]
  001ed	8b cb		 mov	 ecx, ebx
  001ef	56		 push	 esi
  001f0	e8 00 00 00 00	 call	 ?Stamp@TiXmlParsingData@@QAEXPBDW4TiXmlEncoding@@@Z ; TiXmlParsingData::Stamp

; 817  : 		errorLocation = data->Cursor();

  001f5	8b 03		 mov	 eax, DWORD PTR [ebx]
  001f7	8b 4b 04	 mov	 ecx, DWORD PTR [ebx+4]
  001fa	89 47 3c	 mov	 DWORD PTR [edi+60], eax
  001fd	89 4f 40	 mov	 DWORD PTR [edi+64], ecx
$LN64@Parse:

; 1519 : 
; 1520 : 		if ( !StringEqual( p, startTag, false, encoding ) )
; 1521 : 		{
; 1522 : 			document->SetError( TIXML_ERROR_PARSING_CDATA, p, data, encoding );
; 1523 : 			return 0;

  00200	33 c0		 xor	 eax, eax

; 1548 : 		return 0;
; 1549 : 	}
; 1550 : }

  00202	8b 4d f4	 mov	 ecx, DWORD PTR __$EHRec$[ebp]
  00205	64 89 0d 00 00
	00 00		 mov	 DWORD PTR fs:0, ecx
  0020c	59		 pop	 ecx
  0020d	5f		 pop	 edi
  0020e	5e		 pop	 esi
  0020f	5b		 pop	 ebx
  00210	8b e5		 mov	 esp, ebp
  00212	5d		 pop	 ebp
  00213	c2 0c 00	 ret	 12			; 0000000cH
_TEXT	ENDS
;	COMDAT text$x
text$x	SEGMENT
__unwindfunclet$?Parse@TiXmlText@@UAEPBDPBDPAVTiXmlParsingData@@W4TiXmlEncoding@@@Z$0:
  00000	8d 4d 08	 lea	 ecx, DWORD PTR _dummy$2[ebp]
  00003	e9 00 00 00 00	 jmp	 ??1TiXmlString@@QAE@XZ	; TiXmlString::~TiXmlString
  00008	cc		 int	 3
  00009	cc		 int	 3
  0000a	cc		 int	 3
  0000b	cc		 int	 3
  0000c	cc		 int	 3
__ehhandler$?Parse@TiXmlText@@UAEPBDPBDPAVTiXmlParsingData@@W4TiXmlEncoding@@@Z:
  0000d	90		 npad	 1
  0000e	90		 npad	 1
  0000f	8b 54 24 08	 mov	 edx, DWORD PTR [esp+8]
  00013	8d 42 0c	 lea	 eax, DWORD PTR [edx+12]
  00016	8b 4a e8	 mov	 ecx, DWORD PTR [edx-24]
  00019	33 c8		 xor	 ecx, eax
  0001b	e8 00 00 00 00	 call	 @__security_check_cookie@4
  00020	b8 00 00 00 00	 mov	 eax, OFFSET __ehfuncinfo$?Parse@TiXmlText@@UAEPBDPBDPAVTiXmlParsingData@@W4TiXmlEncoding@@@Z
  00025	e9 00 00 00 00	 jmp	 ___CxxFrameHandler3
text$x	ENDS
?Parse@TiXmlText@@UAEPBDPBDPAVTiXmlParsingData@@W4TiXmlEncoding@@@Z ENDP ; TiXmlText::Parse
; Function compile flags: /Ogtp
; File E:\Proyectos\JuegosOnlineproyectos\PB\pbblow\Piercing Blow Remake\i3Server\include\i3Base\tinyxml.h
;	COMDAT ?SetCDATA@TiXmlText@@QAEX_N@Z
_TEXT	SEGMENT
__cdata$ = 8						; size = 1
?SetCDATA@TiXmlText@@QAEX_N@Z PROC			; TiXmlText::SetCDATA, COMDAT
; _this$ = ecx

; 1247 : 	void SetCDATA( bool _cdata )	{ cdata = _cdata; }

  00000	55		 push	 ebp
  00001	8b ec		 mov	 ebp, esp
  00003	8a 45 08	 mov	 al, BYTE PTR __cdata$[ebp]
  00006	88 41 2c	 mov	 BYTE PTR [ecx+44], al
  00009	5d		 pop	 ebp
  0000a	c2 04 00	 ret	 4
?SetCDATA@TiXmlText@@QAEX_N@Z ENDP			; TiXmlText::SetCDATA
_TEXT	ENDS
; Function compile flags: /Ogtp
; File E:\Proyectos\JuegosOnlineproyectos\PB\pbblow\Piercing Blow Remake\i3Server\include\i3Base\tinyxml.h
;	COMDAT ?CDATA@TiXmlText@@QBE_NXZ
_TEXT	SEGMENT
?CDATA@TiXmlText@@QBE_NXZ PROC				; TiXmlText::CDATA, COMDAT
; _this$ = ecx

; 1245 : 	bool CDATA() const				{ return cdata; }

  00000	8a 41 2c	 mov	 al, BYTE PTR [ecx+44]
  00003	c3		 ret	 0
?CDATA@TiXmlText@@QBE_NXZ ENDP				; TiXmlText::CDATA
_TEXT	ENDS
; Function compile flags: /Ogtp
; File E:\Proyectos\JuegosOnlineproyectos\PB\pbblow\Piercing Blow Remake\i3Server\include\i3Base\tinyxml.h
;	COMDAT ??4TiXmlText@@QAEXABV0@@Z
_TEXT	SEGMENT
_base$ = 8						; size = 4
??4TiXmlText@@QAEXABV0@@Z PROC				; TiXmlText::operator=, COMDAT
; _this$ = ecx

; 1239 : 	void operator=( const TiXmlText& base )							 	{ base.CopyTo( this ); }

  00000	55		 push	 ebp
  00001	8b ec		 mov	 ebp, esp
  00003	51		 push	 ecx
  00004	8b 4d 08	 mov	 ecx, DWORD PTR _base$[ebp]
  00007	e8 00 00 00 00	 call	 ?CopyTo@TiXmlText@@IBEXPAV1@@Z ; TiXmlText::CopyTo
  0000c	5d		 pop	 ebp
  0000d	c2 04 00	 ret	 4
??4TiXmlText@@QAEXABV0@@Z ENDP				; TiXmlText::operator=
_TEXT	ENDS
; Function compile flags: /Ogtp
; File E:\Proyectos\JuegosOnlineproyectos\PB\pbblow\Piercing Blow Remake\i3Server\include\i3Base\tinyxml.h
;	COMDAT ??0TiXmlText@@QAE@ABV0@@Z
_TEXT	SEGMENT
_this$ = -16						; size = 4
__$EHRec$ = -12						; size = 12
_copy$ = 8						; size = 4
??0TiXmlText@@QAE@ABV0@@Z PROC				; TiXmlText::TiXmlText, COMDAT
; _this$ = ecx

; 1238 : 	TiXmlText( const TiXmlText& copy ) : TiXmlNode( TiXmlNode::TEXT )	{ copy.CopyTo( this ); }

  00000	55		 push	 ebp
  00001	8b ec		 mov	 ebp, esp
  00003	6a ff		 push	 -1
  00005	68 00 00 00 00	 push	 __ehhandler$??0TiXmlText@@QAE@ABV0@@Z
  0000a	64 a1 00 00 00
	00		 mov	 eax, DWORD PTR fs:0
  00010	50		 push	 eax
  00011	51		 push	 ecx
  00012	56		 push	 esi
  00013	a1 00 00 00 00	 mov	 eax, DWORD PTR ___security_cookie
  00018	33 c5		 xor	 eax, ebp
  0001a	50		 push	 eax
  0001b	8d 45 f4	 lea	 eax, DWORD PTR __$EHRec$[ebp]
  0001e	64 a3 00 00 00
	00		 mov	 DWORD PTR fs:0, eax
  00024	8b f1		 mov	 esi, ecx
  00026	89 75 f0	 mov	 DWORD PTR _this$[ebp], esi
  00029	6a 04		 push	 4
  0002b	e8 00 00 00 00	 call	 ??0TiXmlNode@@IAE@W4NodeType@0@@Z ; TiXmlNode::TiXmlNode
  00030	8b 4d 08	 mov	 ecx, DWORD PTR _copy$[ebp]
  00033	56		 push	 esi
  00034	c7 45 fc 00 00
	00 00		 mov	 DWORD PTR __$EHRec$[ebp+8], 0
  0003b	c7 06 00 00 00
	00		 mov	 DWORD PTR [esi], OFFSET ??_7TiXmlText@@6B@
  00041	e8 00 00 00 00	 call	 ?CopyTo@TiXmlText@@IBEXPAV1@@Z ; TiXmlText::CopyTo
  00046	8b c6		 mov	 eax, esi
  00048	8b 4d f4	 mov	 ecx, DWORD PTR __$EHRec$[ebp]
  0004b	64 89 0d 00 00
	00 00		 mov	 DWORD PTR fs:0, ecx
  00052	59		 pop	 ecx
  00053	5e		 pop	 esi
  00054	8b e5		 mov	 esp, ebp
  00056	5d		 pop	 ebp
  00057	c2 04 00	 ret	 4
_TEXT	ENDS
;	COMDAT text$x
text$x	SEGMENT
__unwindfunclet$??0TiXmlText@@QAE@ABV0@@Z$0:
  00000	8b 4d f0	 mov	 ecx, DWORD PTR _this$[ebp]
  00003	e9 00 00 00 00	 jmp	 ??1TiXmlNode@@UAE@XZ	; TiXmlNode::~TiXmlNode
  00008	cc		 int	 3
  00009	cc		 int	 3
  0000a	cc		 int	 3
  0000b	cc		 int	 3
  0000c	cc		 int	 3
__ehhandler$??0TiXmlText@@QAE@ABV0@@Z:
  0000d	90		 npad	 1
  0000e	90		 npad	 1
  0000f	8b 54 24 08	 mov	 edx, DWORD PTR [esp+8]
  00013	8d 42 0c	 lea	 eax, DWORD PTR [edx+12]
  00016	8b 4a f4	 mov	 ecx, DWORD PTR [edx-12]
  00019	33 c8		 xor	 ecx, eax
  0001b	e8 00 00 00 00	 call	 @__security_check_cookie@4
  00020	b8 00 00 00 00	 mov	 eax, OFFSET __ehfuncinfo$??0TiXmlText@@QAE@ABV0@@Z
  00025	e9 00 00 00 00	 jmp	 ___CxxFrameHandler3
text$x	ENDS
??0TiXmlText@@QAE@ABV0@@Z ENDP				; TiXmlText::TiXmlText
; Function compile flags: /Ogtp
; File E:\Proyectos\JuegosOnlineproyectos\PB\pbblow\Piercing Blow Remake\i3Server\include\i3Base\tinyxml.h
;	COMDAT ??1TiXmlText@@UAE@XZ
_TEXT	SEGMENT
??1TiXmlText@@UAE@XZ PROC				; TiXmlText::~TiXmlText, COMDAT
; _this$ = ecx

; 1227 : 	virtual ~TiXmlText() {}

  00000	c7 01 00 00 00
	00		 mov	 DWORD PTR [ecx], OFFSET ??_7TiXmlText@@6B@
  00006	e9 00 00 00 00	 jmp	 ??1TiXmlNode@@UAE@XZ	; TiXmlNode::~TiXmlNode
??1TiXmlText@@UAE@XZ ENDP				; TiXmlText::~TiXmlText
_TEXT	ENDS
; Function compile flags: /Ogtp
; File E:\Proyectos\JuegosOnlineproyectos\PB\pbblow\Piercing Blow Remake\i3Server\include\i3Base\tinyxml.h
; File E:\Proyectos\JuegosOnlineproyectos\PB\pbblow\Piercing Blow Remake\i3Server\include\i3Base\tinystr.h
; File E:\Proyectos\JuegosOnlineproyectos\PB\pbblow\Piercing Blow Remake\i3Server\include\i3Base\tinyxml.h
; File E:\Proyectos\JuegosOnlineproyectos\PB\pbblow\Piercing Blow Remake\i3Server\include\i3Base\tinystr.h
; File E:\Proyectos\JuegosOnlineproyectos\PB\pbblow\Piercing Blow Remake\i3Server\include\i3Base\tinyxml.h
; File E:\Proyectos\JuegosOnlineproyectos\PB\pbblow\Piercing Blow Remake\i3Server\include\i3Base\tinystr.h
; File E:\Proyectos\JuegosOnlineproyectos\PB\pbblow\Piercing Blow Remake\i3Server\include\i3Base\tinyxml.h
;	COMDAT ??0TiXmlText@@QAE@PBD@Z
_TEXT	SEGMENT
_this$ = -16						; size = 4
__$EHRec$ = -12						; size = 12
_initValue$ = 8						; size = 4
??0TiXmlText@@QAE@PBD@Z PROC				; TiXmlText::TiXmlText, COMDAT
; _this$ = ecx

; 1223 : 	{

  00000	55		 push	 ebp
  00001	8b ec		 mov	 ebp, esp
  00003	6a ff		 push	 -1
  00005	68 00 00 00 00	 push	 __ehhandler$??0TiXmlText@@QAE@PBD@Z
  0000a	64 a1 00 00 00
	00		 mov	 eax, DWORD PTR fs:0
  00010	50		 push	 eax
  00011	51		 push	 ecx
  00012	56		 push	 esi
  00013	57		 push	 edi
  00014	a1 00 00 00 00	 mov	 eax, DWORD PTR ___security_cookie
  00019	33 c5		 xor	 eax, ebp
  0001b	50		 push	 eax
  0001c	8d 45 f4	 lea	 eax, DWORD PTR __$EHRec$[ebp]
  0001f	64 a3 00 00 00
	00		 mov	 DWORD PTR fs:0, eax
  00025	8b f1		 mov	 esi, ecx
  00027	89 75 f0	 mov	 DWORD PTR _this$[ebp], esi

; 1222 : 	TiXmlText (const char * initValue ) : TiXmlNode (TiXmlNode::TEXT)

  0002a	6a 04		 push	 4
  0002c	e8 00 00 00 00	 call	 ??0TiXmlNode@@IAE@W4NodeType@0@@Z ; TiXmlNode::TiXmlNode
; File E:\Proyectos\JuegosOnlineproyectos\PB\pbblow\Piercing Blow Remake\i3Server\include\i3Base\tinystr.h

; 114  : 		return assign( copy, (size_type)strlen(copy));

  00031	8b 55 08	 mov	 edx, DWORD PTR _initValue$[ebp]
  00034	8b c2		 mov	 eax, edx
; File E:\Proyectos\JuegosOnlineproyectos\PB\pbblow\Piercing Blow Remake\i3Server\include\i3Base\tinyxml.h

; 1222 : 	TiXmlText (const char * initValue ) : TiXmlNode (TiXmlNode::TEXT)

  00036	c7 45 fc 00 00
	00 00		 mov	 DWORD PTR __$EHRec$[ebp+8], 0

; 1223 : 	{

  0003d	c7 06 00 00 00
	00		 mov	 DWORD PTR [esi], OFFSET ??_7TiXmlText@@6B@
; File E:\Proyectos\JuegosOnlineproyectos\PB\pbblow\Piercing Blow Remake\i3Server\include\i3Base\tinystr.h

; 114  : 		return assign( copy, (size_type)strlen(copy));

  00043	8d 78 01	 lea	 edi, DWORD PTR [eax+1]
$LL8@TiXmlText:
  00046	8a 08		 mov	 cl, BYTE PTR [eax]
  00048	40		 inc	 eax
  00049	84 c9		 test	 cl, cl
  0004b	75 f9		 jne	 SHORT $LL8@TiXmlText
  0004d	2b c7		 sub	 eax, edi
; File E:\Proyectos\JuegosOnlineproyectos\PB\pbblow\Piercing Blow Remake\i3Server\include\i3Base\tinyxml.h

; 512  : 	void SetValue(const char * _value) { value = _value;}

  0004f	8d 4e 20	 lea	 ecx, DWORD PTR [esi+32]
; File E:\Proyectos\JuegosOnlineproyectos\PB\pbblow\Piercing Blow Remake\i3Server\include\i3Base\tinystr.h

; 114  : 		return assign( copy, (size_type)strlen(copy));

  00052	50		 push	 eax
  00053	52		 push	 edx
  00054	e8 00 00 00 00	 call	 ?assign@TiXmlString@@QAEAAV1@PBDI@Z ; TiXmlString::assign
; File E:\Proyectos\JuegosOnlineproyectos\PB\pbblow\Piercing Blow Remake\i3Server\include\i3Base\tinyxml.h

; 1225 : 		cdata = false;

  00059	c6 46 2c 00	 mov	 BYTE PTR [esi+44], 0

; 1226 : 	}

  0005d	8b c6		 mov	 eax, esi
  0005f	8b 4d f4	 mov	 ecx, DWORD PTR __$EHRec$[ebp]
  00062	64 89 0d 00 00
	00 00		 mov	 DWORD PTR fs:0, ecx
  00069	59		 pop	 ecx
  0006a	5f		 pop	 edi
  0006b	5e		 pop	 esi
  0006c	8b e5		 mov	 esp, ebp
  0006e	5d		 pop	 ebp
  0006f	c2 04 00	 ret	 4
_TEXT	ENDS
;	COMDAT text$x
text$x	SEGMENT
__unwindfunclet$??0TiXmlText@@QAE@PBD@Z$0:
  00000	8b 4d f0	 mov	 ecx, DWORD PTR _this$[ebp]
  00003	e9 00 00 00 00	 jmp	 ??1TiXmlNode@@UAE@XZ	; TiXmlNode::~TiXmlNode
  00008	cc		 int	 3
  00009	cc		 int	 3
  0000a	cc		 int	 3
  0000b	cc		 int	 3
  0000c	cc		 int	 3
__ehhandler$??0TiXmlText@@QAE@PBD@Z:
  0000d	90		 npad	 1
  0000e	90		 npad	 1
  0000f	8b 54 24 08	 mov	 edx, DWORD PTR [esp+8]
  00013	8d 42 0c	 lea	 eax, DWORD PTR [edx+12]
  00016	8b 4a f0	 mov	 ecx, DWORD PTR [edx-16]
  00019	33 c8		 xor	 ecx, eax
  0001b	e8 00 00 00 00	 call	 @__security_check_cookie@4
  00020	b8 00 00 00 00	 mov	 eax, OFFSET __ehfuncinfo$??0TiXmlText@@QAE@PBD@Z
  00025	e9 00 00 00 00	 jmp	 ___CxxFrameHandler3
text$x	ENDS
??0TiXmlText@@QAE@PBD@Z ENDP				; TiXmlText::TiXmlText
; Function compile flags: /Ogtp
; File E:\Proyectos\JuegosOnlineproyectos\PB\pbblow\Piercing Blow Remake\i3Server\include\i3Base\tinyxml.h
;	COMDAT ??_ETiXmlComment@@UAEPAXI@Z
_TEXT	SEGMENT
__$EHRec$ = -12						; size = 12
___flags$ = 8						; size = 4
??_ETiXmlComment@@UAEPAXI@Z PROC			; TiXmlComment::`vector deleting destructor', COMDAT
; _this$ = ecx
  00000	55		 push	 ebp
  00001	8b ec		 mov	 ebp, esp
  00003	6a ff		 push	 -1
  00005	68 00 00 00 00	 push	 __ehhandler$??_ETiXmlComment@@UAEPAXI@Z
  0000a	64 a1 00 00 00
	00		 mov	 eax, DWORD PTR fs:0
  00010	50		 push	 eax
  00011	53		 push	 ebx
  00012	56		 push	 esi
  00013	57		 push	 edi
  00014	a1 00 00 00 00	 mov	 eax, DWORD PTR ___security_cookie
  00019	33 c5		 xor	 eax, ebp
  0001b	50		 push	 eax
  0001c	8d 45 f4	 lea	 eax, DWORD PTR __$EHRec$[ebp]
  0001f	64 a3 00 00 00
	00		 mov	 DWORD PTR fs:0, eax
  00025	8b f1		 mov	 esi, ecx
  00027	8b 45 08	 mov	 eax, DWORD PTR ___flags$[ebp]
  0002a	8b f8		 mov	 edi, eax
  0002c	83 e7 01	 and	 edi, 1
  0002f	a8 02		 test	 al, 2
  00031	74 3d		 je	 SHORT $LN2@vector
  00033	68 00 00 00 00	 push	 OFFSET ??1TiXmlComment@@UAE@XZ ; TiXmlComment::~TiXmlComment
  00038	ff 76 fc	 push	 DWORD PTR [esi-4]
  0003b	8d 5e fc	 lea	 ebx, DWORD PTR [esi-4]
  0003e	6a 2c		 push	 44			; 0000002cH
  00040	56		 push	 esi
  00041	e8 00 00 00 00	 call	 ??_M@YGXPAXIIP6EX0@Z@Z
  00046	85 ff		 test	 edi, edi
  00048	74 10		 je	 SHORT $LN3@vector
  0004a	6b 0b 2c	 imul	 ecx, DWORD PTR [ebx], 44
  0004d	83 c1 04	 add	 ecx, 4
  00050	51		 push	 ecx
  00051	53		 push	 ebx
  00052	e8 00 00 00 00	 call	 ??_V@YAXPAXI@Z		; operator delete[]
  00057	83 c4 08	 add	 esp, 8
$LN3@vector:
  0005a	8b c3		 mov	 eax, ebx
  0005c	8b 4d f4	 mov	 ecx, DWORD PTR __$EHRec$[ebp]
  0005f	64 89 0d 00 00
	00 00		 mov	 DWORD PTR fs:0, ecx
  00066	59		 pop	 ecx
  00067	5f		 pop	 edi
  00068	5e		 pop	 esi
  00069	5b		 pop	 ebx
  0006a	8b e5		 mov	 esp, ebp
  0006c	5d		 pop	 ebp
  0006d	c2 04 00	 ret	 4
$LN2@vector:

; 1176 : 	virtual ~TiXmlComment()	{}

  00070	c7 06 00 00 00
	00		 mov	 DWORD PTR [esi], OFFSET ??_7TiXmlComment@@6B@
  00076	e8 00 00 00 00	 call	 ??1TiXmlNode@@UAE@XZ	; TiXmlNode::~TiXmlNode
  0007b	85 ff		 test	 edi, edi
  0007d	74 0b		 je	 SHORT $LN4@vector
  0007f	6a 2c		 push	 44			; 0000002cH
  00081	56		 push	 esi
  00082	e8 00 00 00 00	 call	 ??3@YAXPAXI@Z		; operator delete
  00087	83 c4 08	 add	 esp, 8
$LN4@vector:
  0008a	8b c6		 mov	 eax, esi
  0008c	8b 4d f4	 mov	 ecx, DWORD PTR __$EHRec$[ebp]
  0008f	64 89 0d 00 00
	00 00		 mov	 DWORD PTR fs:0, ecx
  00096	59		 pop	 ecx
  00097	5f		 pop	 edi
  00098	5e		 pop	 esi
  00099	5b		 pop	 ebx
  0009a	8b e5		 mov	 esp, ebp
  0009c	5d		 pop	 ebp
  0009d	c2 04 00	 ret	 4
  000a0	cc		 int	 3
  000a1	cc		 int	 3
  000a2	cc		 int	 3
  000a3	cc		 int	 3
  000a4	cc		 int	 3
_TEXT	ENDS
;	COMDAT text$x
text$x	SEGMENT
__ehhandler$??_ETiXmlComment@@UAEPAXI@Z:
  00000	90		 npad	 1
  00001	90		 npad	 1
  00002	8b 54 24 08	 mov	 edx, DWORD PTR [esp+8]
  00006	8d 42 0c	 lea	 eax, DWORD PTR [edx+12]
  00009	8b 4a f0	 mov	 ecx, DWORD PTR [edx-16]
  0000c	33 c8		 xor	 ecx, eax
  0000e	e8 00 00 00 00	 call	 @__security_check_cookie@4
  00013	b8 00 00 00 00	 mov	 eax, OFFSET __ehfuncinfo$??_ETiXmlComment@@UAEPAXI@Z
  00018	e9 00 00 00 00	 jmp	 ___CxxFrameHandler3
text$x	ENDS
??_ETiXmlComment@@UAEPAXI@Z ENDP			; TiXmlComment::`vector deleting destructor'
; Function compile flags: /Ogtp
; File E:\Proyectos\JuegosOnlineproyectos\PB\pbblow\Piercing Blow Remake\i3Server\include\i3Base\tinyxml.h
;	COMDAT ??_GTiXmlComment@@UAEPAXI@Z
_TEXT	SEGMENT
___flags$ = 8						; size = 4
??_GTiXmlComment@@UAEPAXI@Z PROC			; TiXmlComment::`scalar deleting destructor', COMDAT
; _this$ = ecx
  00000	55		 push	 ebp
  00001	8b ec		 mov	 ebp, esp

; 1176 : 	virtual ~TiXmlComment()	{}

  00003	56		 push	 esi
  00004	8b f1		 mov	 esi, ecx
  00006	c7 06 00 00 00
	00		 mov	 DWORD PTR [esi], OFFSET ??_7TiXmlComment@@6B@
  0000c	e8 00 00 00 00	 call	 ??1TiXmlNode@@UAE@XZ	; TiXmlNode::~TiXmlNode
  00011	f6 45 08 01	 test	 BYTE PTR ___flags$[ebp], 1
  00015	74 0b		 je	 SHORT $LN10@scalar
  00017	6a 2c		 push	 44			; 0000002cH
  00019	56		 push	 esi
  0001a	e8 00 00 00 00	 call	 ??3@YAXPAXI@Z		; operator delete
  0001f	83 c4 08	 add	 esp, 8
$LN10@scalar:
  00022	8b c6		 mov	 eax, esi
  00024	5e		 pop	 esi
  00025	5d		 pop	 ebp
  00026	c2 04 00	 ret	 4
??_GTiXmlComment@@UAEPAXI@Z ENDP			; TiXmlComment::`scalar deleting destructor'
_TEXT	ENDS
; Function compile flags: /Ogtp
; File E:\Proyectos\JuegosOnlineproyectos\PB\pbblow\Piercing Blow Remake\i3Server\include\i3Base\tinyxml.h
;	COMDAT ?ToComment@TiXmlComment@@UAEPAV1@XZ
_TEXT	SEGMENT
?ToComment@TiXmlComment@@UAEPAV1@XZ PROC		; TiXmlComment::ToComment, COMDAT
; _this$ = ecx

; 1189 : 	virtual TiXmlComment*  ToComment() { return this; } ///< Cast to a more defined type. Will return null not of the requested type.

  00000	8b c1		 mov	 eax, ecx
  00002	c3		 ret	 0
?ToComment@TiXmlComment@@UAEPAV1@XZ ENDP		; TiXmlComment::ToComment
_TEXT	ENDS
; Function compile flags: /Ogtp
; File E:\Proyectos\JuegosOnlineproyectos\PB\pbblow\Piercing Blow Remake\i3Server\include\i3Base\tinyxml.h
;	COMDAT ?ToComment@TiXmlComment@@UBEPBV1@XZ
_TEXT	SEGMENT
?ToComment@TiXmlComment@@UBEPBV1@XZ PROC		; TiXmlComment::ToComment, COMDAT
; _this$ = ecx

; 1188 : 	virtual const TiXmlComment*  ToComment() const { return this; } ///< Cast to a more defined type. Will return null not of the requested type.

  00000	8b c1		 mov	 eax, ecx
  00002	c3		 ret	 0
?ToComment@TiXmlComment@@UBEPBV1@XZ ENDP		; TiXmlComment::ToComment
_TEXT	ENDS
; Function compile flags: /Ogtp
; File E:\Proyectos\JuegosOnlineproyectos\PB\pbblow\Piercing Blow Remake\i3Server\src\i3Base\tinyxmlparser.cpp
; File E:\Proyectos\JuegosOnlineproyectos\PB\pbblow\Piercing Blow Remake\i3Server\include\i3Base\tinyxml.h
; File E:\Proyectos\JuegosOnlineproyectos\PB\pbblow\Piercing Blow Remake\i3Server\include\i3Base\tinystr.h
; File E:\Proyectos\JuegosOnlineproyectos\PB\pbblow\Piercing Blow Remake\i3Server\src\i3Base\tinyxmlparser.cpp
; File E:\Proyectos\JuegosOnlineproyectos\PB\pbblow\Piercing Blow Remake\i3Server\include\i3Base\tinystr.h
; File E:\Proyectos\JuegosOnlineproyectos\PB\pbblow\Piercing Blow Remake\i3Server\src\i3Base\tinyxmlparser.cpp
; File E:\Proyectos\JuegosOnlineproyectos\PB\pbblow\Piercing Blow Remake\i3Server\include\i3Base\tinystr.h
; File E:\Proyectos\JuegosOnlineproyectos\PB\pbblow\Piercing Blow Remake\i3Server\src\i3Base\tinyxmlparser.cpp
; File E:\Proyectos\JuegosOnlineproyectos\PB\pbblow\Piercing Blow Remake\i3Server\include\i3Base\tinystr.h
; File E:\Proyectos\JuegosOnlineproyectos\PB\pbblow\Piercing Blow Remake\i3Server\src\i3Base\tinyxmlparser.cpp
; File E:\Proyectos\JuegosOnlineproyectos\PB\pbblow\Piercing Blow Remake\i3Server\include\i3Base\tinystr.h
; File E:\Proyectos\JuegosOnlineproyectos\PB\pbblow\Piercing Blow Remake\i3Server\src\i3Base\tinyxmlparser.cpp
; File E:\Proyectos\JuegosOnlineproyectos\PB\pbblow\Piercing Blow Remake\i3Server\include\i3Base\tinystr.h
; File E:\Proyectos\JuegosOnlineproyectos\PB\pbblow\Piercing Blow Remake\i3Server\include\i3Base\tinyxml.h
; File E:\Proyectos\JuegosOnlineproyectos\PB\pbblow\Piercing Blow Remake\i3Server\src\i3Base\tinyxmlparser.cpp
;	COMDAT ?Parse@TiXmlComment@@UAEPBDPBDPAVTiXmlParsingData@@W4TiXmlEncoding@@@Z
_TEXT	SEGMENT
tv466 = -8						; size = 4
_this$1$ = -4						; size = 4
_p$ = 8							; size = 4
tv460 = 8						; size = 4
_data$ = 12						; size = 4
_encoding$ = 16						; size = 4
?Parse@TiXmlComment@@UAEPBDPBDPAVTiXmlParsingData@@W4TiXmlEncoding@@@Z PROC ; TiXmlComment::Parse, COMDAT
; _this$ = ecx

; 1340 : {

  00000	55		 push	 ebp
  00001	8b ec		 mov	 ebp, esp
  00003	83 ec 08	 sub	 esp, 8
  00006	53		 push	 ebx
  00007	56		 push	 esi
  00008	8b f1		 mov	 esi, ecx
  0000a	57		 push	 edi
  0000b	89 75 fc	 mov	 DWORD PTR _this$1$[ebp], esi
; File E:\Proyectos\JuegosOnlineproyectos\PB\pbblow\Piercing Blow Remake\i3Server\include\i3Base\tinyxml.h

; 695  : 		return const_cast< TiXmlDocument* >( (const_cast< const TiXmlNode* >(this))->GetDocument() );

  0000e	e8 00 00 00 00	 call	 ?GetDocument@TiXmlNode@@QBEPBVTiXmlDocument@@XZ ; TiXmlNode::GetDocument
; File E:\Proyectos\JuegosOnlineproyectos\PB\pbblow\Piercing Blow Remake\i3Server\include\i3Base\tinystr.h

; 114  : 		return assign( copy, (size_type)strlen(copy));

  00013	6a 00		 push	 0
; File E:\Proyectos\JuegosOnlineproyectos\PB\pbblow\Piercing Blow Remake\i3Server\src\i3Base\tinyxmlparser.cpp

; 1342 : 	value = "";

  00015	8d 4e 20	 lea	 ecx, DWORD PTR [esi+32]
  00018	8b d8		 mov	 ebx, eax
; File E:\Proyectos\JuegosOnlineproyectos\PB\pbblow\Piercing Blow Remake\i3Server\include\i3Base\tinystr.h

; 114  : 		return assign( copy, (size_type)strlen(copy));

  0001a	68 00 00 00 00	 push	 OFFSET ??_C@_00CNPNBAHC@@
; File E:\Proyectos\JuegosOnlineproyectos\PB\pbblow\Piercing Blow Remake\i3Server\src\i3Base\tinyxmlparser.cpp

; 1342 : 	value = "";

  0001f	89 4d f8	 mov	 DWORD PTR tv466[ebp], ecx
; File E:\Proyectos\JuegosOnlineproyectos\PB\pbblow\Piercing Blow Remake\i3Server\include\i3Base\tinystr.h

; 114  : 		return assign( copy, (size_type)strlen(copy));

  00022	e8 00 00 00 00	 call	 ?assign@TiXmlString@@QAEAAV1@PBDI@Z ; TiXmlString::assign
; File E:\Proyectos\JuegosOnlineproyectos\PB\pbblow\Piercing Blow Remake\i3Server\src\i3Base\tinyxmlparser.cpp

; 1344 : 	p = SkipWhiteSpace( p, encoding );

  00027	ff 75 10	 push	 DWORD PTR _encoding$[ebp]
  0002a	ff 75 08	 push	 DWORD PTR _p$[ebp]
  0002d	e8 00 00 00 00	 call	 ?SkipWhiteSpace@TiXmlBase@@KAPBDPBDW4TiXmlEncoding@@@Z ; TiXmlBase::SkipWhiteSpace

; 1345 : 
; 1346 : 	if ( data )

  00032	8b 7d 0c	 mov	 edi, DWORD PTR _data$[ebp]
  00035	83 c4 08	 add	 esp, 8
  00038	8b f0		 mov	 esi, eax
  0003a	85 ff		 test	 edi, edi
  0003c	74 19		 je	 SHORT $LN4@Parse

; 1347 : 	{
; 1348 : 		data->Stamp( p, encoding );

  0003e	ff 75 10	 push	 DWORD PTR _encoding$[ebp]
  00041	8b cf		 mov	 ecx, edi
  00043	56		 push	 esi
  00044	e8 00 00 00 00	 call	 ?Stamp@TiXmlParsingData@@QAEXPBDW4TiXmlEncoding@@@Z ; TiXmlParsingData::Stamp

; 1349 : 		location = data->Cursor();

  00049	8b 55 fc	 mov	 edx, DWORD PTR _this$1$[ebp]
  0004c	8b 0f		 mov	 ecx, DWORD PTR [edi]
  0004e	8b 47 04	 mov	 eax, DWORD PTR [edi+4]
  00051	89 4a 04	 mov	 DWORD PTR [edx+4], ecx
  00054	89 42 08	 mov	 DWORD PTR [edx+8], eax
$LN4@Parse:

; 1350 : 	}
; 1351 : 	const char* startTag = "<!--";
; 1352 : 	const char* endTag   = "-->";
; 1353 : 
; 1354 : 	if ( !StringEqual( p, startTag, false, encoding ) )

  00057	b9 00 00 00 00	 mov	 ecx, OFFSET ??_C@_04FFDNBKGC@?$DM?$CB?9?9@

; 545  : 	if ( !p || !*p )

  0005c	85 f6		 test	 esi, esi
  0005e	74 7e		 je	 SHORT $LN24@Parse
  00060	80 3e 00	 cmp	 BYTE PTR [esi], 0
  00063	74 79		 je	 SHORT $LN24@Parse

; 546  : 	{
; 547  : 		I3ASSERT_0;
; 548  : 		return false;
; 549  : 	}
; 550  : 
; 551  : 	const char* q = p;

  00065	8b c6		 mov	 eax, esi
$LL17@Parse:

; 552  : 
; 553  : 	if ( ignoreCase )
; 554  : 	{
; 555  : 		while ( *q && *tag && ToLower( *q, encoding ) == ToLower( *tag, encoding ) )
; 556  : 		{
; 557  : 			++q;
; 558  : 			++tag;
; 559  : 		}
; 560  : 
; 561  : 		if ( *tag == 0 )
; 562  : 			return true;
; 563  : 	}
; 564  : 	else
; 565  : 	{
; 566  : 		while ( *q && *tag && *q == *tag )

  00067	8a 11		 mov	 dl, BYTE PTR [ecx]
  00069	84 d2		 test	 dl, dl
  0006b	74 10		 je	 SHORT $LN5@Parse
  0006d	38 10		 cmp	 BYTE PTR [eax], dl
  0006f	75 07		 jne	 SHORT $LN18@Parse

; 567  : 		{
; 568  : 			++q;

  00071	40		 inc	 eax

; 569  : 			++tag;

  00072	41		 inc	 ecx
  00073	80 38 00	 cmp	 BYTE PTR [eax], 0
  00076	75 ef		 jne	 SHORT $LL17@Parse
$LN18@Parse:

; 570  : 		}
; 571  : 
; 572  : 		if ( *tag == 0 )		// Have we found the end of the tag, and everything equal?

  00078	80 39 00	 cmp	 BYTE PTR [ecx], 0
  0007b	75 61		 jne	 SHORT $LN24@Parse
$LN5@Parse:
; File E:\Proyectos\JuegosOnlineproyectos\PB\pbblow\Piercing Blow Remake\i3Server\include\i3Base\tinystr.h

; 114  : 		return assign( copy, (size_type)strlen(copy));

  0007d	8b 5d f8	 mov	 ebx, DWORD PTR tv466[ebp]
  00080	8b cb		 mov	 ecx, ebx
  00082	6a 00		 push	 0
  00084	68 00 00 00 00	 push	 OFFSET ??_C@_00CNPNBAHC@@
  00089	e8 00 00 00 00	 call	 ?assign@TiXmlString@@QAEAAV1@PBDI@Z ; TiXmlString::assign
; File E:\Proyectos\JuegosOnlineproyectos\PB\pbblow\Piercing Blow Remake\i3Server\src\i3Base\tinyxmlparser.cpp

; 1359 : 	p += strlen( startTag );

  0008e	83 c6 04	 add	 esi, 4

; 1360 : 
; 1361 : 	// [ 1475201 ] TinyXML parses entities in comments
; 1362 : 	// Oops - ReadText doesn't work, because we don't want to parse the entities.
; 1363 : 	// p = ReadText( p, &value, false, endTag, false, encoding );
; 1364 : 	//
; 1365 : 	// from the XML spec:
; 1366 : 	/*
; 1367 : 	 [Definition: Comments may appear anywhere in a document outside other markup; in addition, 
; 1368 : 	              they may appear within the document type declaration at places allowed by the grammar. 
; 1369 : 				  They are not part of the document's character data; an XML processor MAY, but need not, 
; 1370 : 				  make it possible for an application to retrieve the text of comments. For compatibility, 
; 1371 : 				  the string "--" (double-hyphen) MUST NOT occur within comments.] Parameter entity 
; 1372 : 				  references MUST NOT be recognized within comments.
; 1373 : 
; 1374 : 				  An example of a comment:
; 1375 : 
; 1376 : 				  <!-- declarations for <head> & <body> -->
; 1377 : 	*/
; 1378 : 
; 1379 :     value = "";
; 1380 : 	// Keep all the white space.
; 1381 : 	while (	p && *p && !StringEqual( p, endTag, false, encoding ) )

  00091	74 40		 je	 SHORT $LN6@Parse
$LL2@Parse:
  00093	80 3e 00	 cmp	 BYTE PTR [esi], 0
  00096	74 38		 je	 SHORT $LN3@Parse
  00098	b9 00 00 00 00	 mov	 ecx, OFFSET ??_C@_03PNLDJJMO@?9?9?$DO@

; 551  : 	const char* q = p;

  0009d	8b c6		 mov	 eax, esi
  0009f	90		 npad	 1
$LL51@Parse:

; 552  : 
; 553  : 	if ( ignoreCase )
; 554  : 	{
; 555  : 		while ( *q && *tag && ToLower( *q, encoding ) == ToLower( *tag, encoding ) )
; 556  : 		{
; 557  : 			++q;
; 558  : 			++tag;
; 559  : 		}
; 560  : 
; 561  : 		if ( *tag == 0 )
; 562  : 			return true;
; 563  : 	}
; 564  : 	else
; 565  : 	{
; 566  : 		while ( *q && *tag && *q == *tag )

  000a0	8a 11		 mov	 dl, BYTE PTR [ecx]
  000a2	84 d2		 test	 dl, dl
  000a4	74 2a		 je	 SHORT $LN3@Parse
  000a6	38 10		 cmp	 BYTE PTR [eax], dl
  000a8	75 07		 jne	 SHORT $LN52@Parse

; 567  : 		{
; 568  : 			++q;

  000aa	40		 inc	 eax

; 569  : 			++tag;

  000ab	41		 inc	 ecx
  000ac	80 38 00	 cmp	 BYTE PTR [eax], 0
  000af	75 ef		 jne	 SHORT $LL51@Parse
$LN52@Parse:

; 570  : 		}
; 571  : 
; 572  : 		if ( *tag == 0 )		// Have we found the end of the tag, and everything equal?

  000b1	80 39 00	 cmp	 BYTE PTR [ecx], 0
  000b4	74 1a		 je	 SHORT $LN3@Parse

; 1382 : 	{
; 1383 : 		value.append( p, 1 );

  000b6	6a 01		 push	 1
  000b8	56		 push	 esi
  000b9	8b cb		 mov	 ecx, ebx
  000bb	e8 00 00 00 00	 call	 ?append@TiXmlString@@QAEAAV1@PBDI@Z ; TiXmlString::append

; 1384 : 		++p;

  000c0	83 c6 01	 add	 esi, 1
  000c3	75 ce		 jne	 SHORT $LL2@Parse

; 1388 : 
; 1389 : 	return p;

  000c5	5f		 pop	 edi
  000c6	8b c6		 mov	 eax, esi

; 1390 : }

  000c8	5e		 pop	 esi
  000c9	5b		 pop	 ebx
  000ca	8b e5		 mov	 esp, ebp
  000cc	5d		 pop	 ebp
  000cd	c2 0c 00	 ret	 12			; 0000000cH
$LN3@Parse:

; 1385 : 	}
; 1386 : 	if ( p ) 
; 1387 : 		p += strlen( endTag );

  000d0	83 c6 03	 add	 esi, 3
$LN6@Parse:
  000d3	5f		 pop	 edi

; 1388 : 
; 1389 : 	return p;

  000d4	8b c6		 mov	 eax, esi

; 1390 : }

  000d6	5e		 pop	 esi
  000d7	5b		 pop	 ebx
  000d8	8b e5		 mov	 esp, ebp
  000da	5d		 pop	 ebp
  000db	c2 0c 00	 ret	 12			; 0000000cH
$LN24@Parse:

; 805  : 	if ( error )

  000de	80 7b 2c 00	 cmp	 BYTE PTR [ebx+44], 0
  000e2	75 5c		 jne	 SHORT $LN38@Parse

; 806  : 		return;
; 807  : 
; 808  : 	I3ASSERT( err > 0 && err < TIXML_ERROR_STRING_COUNT );
; 809  : 	error   = true;

  000e4	c6 43 2c 01	 mov	 BYTE PTR [ebx+44], 1

; 810  : 	errorId = err;

  000e8	c7 43 30 0b 00
	00 00		 mov	 DWORD PTR [ebx+48], 11	; 0000000bH

; 811  : 	errorDesc = errorString[ errorId ];

  000ef	8b 15 2c 00 00
	00		 mov	 edx, DWORD PTR ?errorString@TiXmlBase@@1PAPBDA+44
; File E:\Proyectos\JuegosOnlineproyectos\PB\pbblow\Piercing Blow Remake\i3Server\include\i3Base\tinystr.h

; 114  : 		return assign( copy, (size_type)strlen(copy));

  000f5	8b ca		 mov	 ecx, edx
  000f7	8d 41 01	 lea	 eax, DWORD PTR [ecx+1]
  000fa	89 45 08	 mov	 DWORD PTR tv460[ebp], eax
  000fd	8d 49 00	 npad	 3
$LL98@Parse:
  00100	8a 01		 mov	 al, BYTE PTR [ecx]
  00102	41		 inc	 ecx
  00103	84 c0		 test	 al, al
  00105	75 f9		 jne	 SHORT $LL98@Parse
  00107	2b 4d 08	 sub	 ecx, DWORD PTR tv460[ebp]
  0010a	51		 push	 ecx
  0010b	52		 push	 edx
; File E:\Proyectos\JuegosOnlineproyectos\PB\pbblow\Piercing Blow Remake\i3Server\src\i3Base\tinyxmlparser.cpp

; 811  : 	errorDesc = errorString[ errorId ];

  0010c	8d 4b 34	 lea	 ecx, DWORD PTR [ebx+52]
; File E:\Proyectos\JuegosOnlineproyectos\PB\pbblow\Piercing Blow Remake\i3Server\include\i3Base\tinystr.h

; 114  : 		return assign( copy, (size_type)strlen(copy));

  0010f	e8 00 00 00 00	 call	 ?assign@TiXmlString@@QAEAAV1@PBDI@Z ; TiXmlString::assign
; File E:\Proyectos\JuegosOnlineproyectos\PB\pbblow\Piercing Blow Remake\i3Server\include\i3Base\tinyxml.h

; 107  : 	void Clear()		{ row = col = -1; }

  00114	c7 43 40 ff ff
	ff ff		 mov	 DWORD PTR [ebx+64], -1
  0011b	c7 43 3c ff ff
	ff ff		 mov	 DWORD PTR [ebx+60], -1
; File E:\Proyectos\JuegosOnlineproyectos\PB\pbblow\Piercing Blow Remake\i3Server\src\i3Base\tinyxmlparser.cpp

; 814  : 	if ( pError && data )

  00122	85 f6		 test	 esi, esi
  00124	74 1a		 je	 SHORT $LN38@Parse
  00126	85 ff		 test	 edi, edi
  00128	74 16		 je	 SHORT $LN38@Parse

; 815  : 	{
; 816  : 		data->Stamp( pError, encoding );

  0012a	ff 75 10	 push	 DWORD PTR _encoding$[ebp]
  0012d	8b cf		 mov	 ecx, edi
  0012f	56		 push	 esi
  00130	e8 00 00 00 00	 call	 ?Stamp@TiXmlParsingData@@QAEXPBDW4TiXmlEncoding@@@Z ; TiXmlParsingData::Stamp

; 817  : 		errorLocation = data->Cursor();

  00135	8b 07		 mov	 eax, DWORD PTR [edi]
  00137	8b 4f 04	 mov	 ecx, DWORD PTR [edi+4]
  0013a	89 43 3c	 mov	 DWORD PTR [ebx+60], eax
  0013d	89 4b 40	 mov	 DWORD PTR [ebx+64], ecx
$LN38@Parse:
  00140	5f		 pop	 edi

; 1390 : }

  00141	5e		 pop	 esi
  00142	33 c0		 xor	 eax, eax
  00144	5b		 pop	 ebx
  00145	8b e5		 mov	 esp, ebp
  00147	5d		 pop	 ebp
  00148	c2 0c 00	 ret	 12			; 0000000cH
?Parse@TiXmlComment@@UAEPBDPBDPAVTiXmlParsingData@@W4TiXmlEncoding@@@Z ENDP ; TiXmlComment::Parse
_TEXT	ENDS
; Function compile flags: /Ogtp
; File E:\Proyectos\JuegosOnlineproyectos\PB\pbblow\Piercing Blow Remake\i3Server\include\i3Base\tinyxml.h
;	COMDAT ??1TiXmlComment@@UAE@XZ
_TEXT	SEGMENT
??1TiXmlComment@@UAE@XZ PROC				; TiXmlComment::~TiXmlComment, COMDAT
; _this$ = ecx

; 1176 : 	virtual ~TiXmlComment()	{}

  00000	c7 01 00 00 00
	00		 mov	 DWORD PTR [ecx], OFFSET ??_7TiXmlComment@@6B@
  00006	e9 00 00 00 00	 jmp	 ??1TiXmlNode@@UAE@XZ	; TiXmlNode::~TiXmlNode
??1TiXmlComment@@UAE@XZ ENDP				; TiXmlComment::~TiXmlComment
_TEXT	ENDS
; Function compile flags: /Ogtp
; File E:\Proyectos\JuegosOnlineproyectos\PB\pbblow\Piercing Blow Remake\i3Server\include\i3Base\tinyxml.h
; File E:\Proyectos\JuegosOnlineproyectos\PB\pbblow\Piercing Blow Remake\i3Server\include\i3Base\tinystr.h
; File E:\Proyectos\JuegosOnlineproyectos\PB\pbblow\Piercing Blow Remake\i3Server\include\i3Base\tinyxml.h
; File E:\Proyectos\JuegosOnlineproyectos\PB\pbblow\Piercing Blow Remake\i3Server\include\i3Base\tinystr.h
; File E:\Proyectos\JuegosOnlineproyectos\PB\pbblow\Piercing Blow Remake\i3Server\include\i3Base\tinyxml.h
; File E:\Proyectos\JuegosOnlineproyectos\PB\pbblow\Piercing Blow Remake\i3Server\include\i3Base\tinystr.h
; File E:\Proyectos\JuegosOnlineproyectos\PB\pbblow\Piercing Blow Remake\i3Server\include\i3Base\tinyxml.h
;	COMDAT ??0TiXmlComment@@QAE@PBD@Z
_TEXT	SEGMENT
_this$ = -16						; size = 4
__$EHRec$ = -12						; size = 12
__value$ = 8						; size = 4
??0TiXmlComment@@QAE@PBD@Z PROC				; TiXmlComment::TiXmlComment, COMDAT
; _this$ = ecx

; 1170 : 	TiXmlComment( const char* _value ) : TiXmlNode( TiXmlNode::COMMENT ) {

  00000	55		 push	 ebp
  00001	8b ec		 mov	 ebp, esp
  00003	6a ff		 push	 -1
  00005	68 00 00 00 00	 push	 __ehhandler$??0TiXmlComment@@QAE@PBD@Z
  0000a	64 a1 00 00 00
	00		 mov	 eax, DWORD PTR fs:0
  00010	50		 push	 eax
  00011	51		 push	 ecx
  00012	56		 push	 esi
  00013	57		 push	 edi
  00014	a1 00 00 00 00	 mov	 eax, DWORD PTR ___security_cookie
  00019	33 c5		 xor	 eax, ebp
  0001b	50		 push	 eax
  0001c	8d 45 f4	 lea	 eax, DWORD PTR __$EHRec$[ebp]
  0001f	64 a3 00 00 00
	00		 mov	 DWORD PTR fs:0, eax
  00025	8b f1		 mov	 esi, ecx
  00027	89 75 f0	 mov	 DWORD PTR _this$[ebp], esi
  0002a	6a 02		 push	 2
  0002c	e8 00 00 00 00	 call	 ??0TiXmlNode@@IAE@W4NodeType@0@@Z ; TiXmlNode::TiXmlNode
; File E:\Proyectos\JuegosOnlineproyectos\PB\pbblow\Piercing Blow Remake\i3Server\include\i3Base\tinystr.h

; 114  : 		return assign( copy, (size_type)strlen(copy));

  00031	8b 55 08	 mov	 edx, DWORD PTR __value$[ebp]
  00034	8b c2		 mov	 eax, edx
; File E:\Proyectos\JuegosOnlineproyectos\PB\pbblow\Piercing Blow Remake\i3Server\include\i3Base\tinyxml.h

; 1170 : 	TiXmlComment( const char* _value ) : TiXmlNode( TiXmlNode::COMMENT ) {

  00036	c7 45 fc 00 00
	00 00		 mov	 DWORD PTR __$EHRec$[ebp+8], 0
  0003d	c7 06 00 00 00
	00		 mov	 DWORD PTR [esi], OFFSET ??_7TiXmlComment@@6B@
; File E:\Proyectos\JuegosOnlineproyectos\PB\pbblow\Piercing Blow Remake\i3Server\include\i3Base\tinystr.h

; 114  : 		return assign( copy, (size_type)strlen(copy));

  00043	8d 78 01	 lea	 edi, DWORD PTR [eax+1]
$LL8@TiXmlComme:
  00046	8a 08		 mov	 cl, BYTE PTR [eax]
  00048	40		 inc	 eax
  00049	84 c9		 test	 cl, cl
  0004b	75 f9		 jne	 SHORT $LL8@TiXmlComme
  0004d	2b c7		 sub	 eax, edi
; File E:\Proyectos\JuegosOnlineproyectos\PB\pbblow\Piercing Blow Remake\i3Server\include\i3Base\tinyxml.h

; 512  : 	void SetValue(const char * _value) { value = _value;}

  0004f	8d 4e 20	 lea	 ecx, DWORD PTR [esi+32]
; File E:\Proyectos\JuegosOnlineproyectos\PB\pbblow\Piercing Blow Remake\i3Server\include\i3Base\tinystr.h

; 114  : 		return assign( copy, (size_type)strlen(copy));

  00052	50		 push	 eax
  00053	52		 push	 edx
  00054	e8 00 00 00 00	 call	 ?assign@TiXmlString@@QAEAAV1@PBDI@Z ; TiXmlString::assign
; File E:\Proyectos\JuegosOnlineproyectos\PB\pbblow\Piercing Blow Remake\i3Server\include\i3Base\tinyxml.h

; 1172 : 	}

  00059	8b c6		 mov	 eax, esi
  0005b	8b 4d f4	 mov	 ecx, DWORD PTR __$EHRec$[ebp]
  0005e	64 89 0d 00 00
	00 00		 mov	 DWORD PTR fs:0, ecx
  00065	59		 pop	 ecx
  00066	5f		 pop	 edi
  00067	5e		 pop	 esi
  00068	8b e5		 mov	 esp, ebp
  0006a	5d		 pop	 ebp
  0006b	c2 04 00	 ret	 4
_TEXT	ENDS
;	COMDAT text$x
text$x	SEGMENT
__unwindfunclet$??0TiXmlComment@@QAE@PBD@Z$0:
  00000	8b 4d f0	 mov	 ecx, DWORD PTR _this$[ebp]
  00003	e9 00 00 00 00	 jmp	 ??1TiXmlNode@@UAE@XZ	; TiXmlNode::~TiXmlNode
  00008	cc		 int	 3
  00009	cc		 int	 3
  0000a	cc		 int	 3
  0000b	cc		 int	 3
  0000c	cc		 int	 3
__ehhandler$??0TiXmlComment@@QAE@PBD@Z:
  0000d	90		 npad	 1
  0000e	90		 npad	 1
  0000f	8b 54 24 08	 mov	 edx, DWORD PTR [esp+8]
  00013	8d 42 0c	 lea	 eax, DWORD PTR [edx+12]
  00016	8b 4a f0	 mov	 ecx, DWORD PTR [edx-16]
  00019	33 c8		 xor	 ecx, eax
  0001b	e8 00 00 00 00	 call	 @__security_check_cookie@4
  00020	b8 00 00 00 00	 mov	 eax, OFFSET __ehfuncinfo$??0TiXmlComment@@QAE@PBD@Z
  00025	e9 00 00 00 00	 jmp	 ___CxxFrameHandler3
text$x	ENDS
??0TiXmlComment@@QAE@PBD@Z ENDP				; TiXmlComment::TiXmlComment
; Function compile flags: /Ogtp
; File E:\Proyectos\JuegosOnlineproyectos\PB\pbblow\Piercing Blow Remake\i3Server\include\i3Base\tinyxml.h
;	COMDAT ??0TiXmlComment@@QAE@XZ
_TEXT	SEGMENT
_this$ = -4						; size = 4
??0TiXmlComment@@QAE@XZ PROC				; TiXmlComment::TiXmlComment, COMDAT
; _this$ = ecx

; 1168 : 	TiXmlComment() : TiXmlNode( TiXmlNode::COMMENT ) {}

  00000	55		 push	 ebp
  00001	8b ec		 mov	 ebp, esp
  00003	51		 push	 ecx
  00004	56		 push	 esi
  00005	8b f1		 mov	 esi, ecx
  00007	6a 02		 push	 2
  00009	89 75 fc	 mov	 DWORD PTR _this$[ebp], esi
  0000c	e8 00 00 00 00	 call	 ??0TiXmlNode@@IAE@W4NodeType@0@@Z ; TiXmlNode::TiXmlNode
  00011	c7 06 00 00 00
	00		 mov	 DWORD PTR [esi], OFFSET ??_7TiXmlComment@@6B@
  00017	8b c6		 mov	 eax, esi
  00019	5e		 pop	 esi
  0001a	8b e5		 mov	 esp, ebp
  0001c	5d		 pop	 ebp
  0001d	c3		 ret	 0
??0TiXmlComment@@QAE@XZ ENDP				; TiXmlComment::TiXmlComment
_TEXT	ENDS
; Function compile flags: /Ogtp
; File E:\Proyectos\JuegosOnlineproyectos\PB\pbblow\Piercing Blow Remake\i3Server\src\i3Base\tinyxmlparser.cpp
; File E:\Proyectos\JuegosOnlineproyectos\PB\pbblow\Piercing Blow Remake\i3Server\include\i3Base\tinyxml.h
; File E:\Proyectos\JuegosOnlineproyectos\PB\pbblow\Piercing Blow Remake\i3Server\src\i3Base\tinyxmlparser.cpp
; File E:\Proyectos\JuegosOnlineproyectos\PB\pbblow\Piercing Blow Remake\i3Server\include\i3Base\tinyxml.h
; File E:\Proyectos\JuegosOnlineproyectos\PB\pbblow\Piercing Blow Remake\i3Server\include\i3Base\tinystr.h
; File E:\Proyectos\JuegosOnlineproyectos\PB\pbblow\Piercing Blow Remake\i3Server\include\i3Base\tinyxml.h
; File E:\Proyectos\JuegosOnlineproyectos\PB\pbblow\Piercing Blow Remake\i3Server\include\i3Base\tinystr.h
; File E:\Proyectos\JuegosOnlineproyectos\PB\pbblow\Piercing Blow Remake\i3Server\include\i3Base\tinyxml.h
; File E:\Proyectos\JuegosOnlineproyectos\PB\pbblow\Piercing Blow Remake\i3Server\src\i3Base\tinyxmlparser.cpp
; File E:\Proyectos\JuegosOnlineproyectos\PB\pbblow\Piercing Blow Remake\i3Server\include\i3Base\tinystr.h
; File E:\Proyectos\JuegosOnlineproyectos\PB\pbblow\Piercing Blow Remake\i3Server\src\i3Base\tinyxmlparser.cpp
; File E:\Proyectos\JuegosOnlineproyectos\PB\pbblow\Piercing Blow Remake\i3Server\include\i3Base\tinyxml.h
; File E:\Proyectos\JuegosOnlineproyectos\PB\pbblow\Piercing Blow Remake\i3Server\include\i3Base\tinystr.h
; File E:\Proyectos\JuegosOnlineproyectos\PB\pbblow\Piercing Blow Remake\i3Server\src\i3Base\tinyxmlparser.cpp
; File E:\Proyectos\JuegosOnlineproyectos\PB\pbblow\Piercing Blow Remake\i3Server\include\i3Base\tinystr.h
; File E:\Proyectos\JuegosOnlineproyectos\PB\pbblow\Piercing Blow Remake\i3Server\src\i3Base\tinyxmlparser.cpp
; File E:\Proyectos\JuegosOnlineproyectos\PB\pbblow\Piercing Blow Remake\i3Server\include\i3Base\tinystr.h
; File E:\Proyectos\JuegosOnlineproyectos\PB\pbblow\Piercing Blow Remake\i3Server\include\i3Base\tinyxml.h
; File E:\Proyectos\JuegosOnlineproyectos\PB\pbblow\Piercing Blow Remake\i3Server\src\i3Base\tinyxmlparser.cpp
; File E:\Proyectos\JuegosOnlineproyectos\PB\pbblow\Piercing Blow Remake\i3Server\include\i3Base\tinystr.h
; File E:\Proyectos\JuegosOnlineproyectos\PB\pbblow\Piercing Blow Remake\i3Server\src\i3Base\tinyxmlparser.cpp
; File E:\Proyectos\JuegosOnlineproyectos\PB\pbblow\Piercing Blow Remake\i3Server\include\i3Base\tinystr.h
; File E:\Proyectos\JuegosOnlineproyectos\PB\pbblow\Piercing Blow Remake\i3Server\include\i3Base\tinyxml.h
; File E:\Proyectos\JuegosOnlineproyectos\PB\pbblow\Piercing Blow Remake\i3Server\src\i3Base\tinyxmlparser.cpp
;	COMDAT ?ReadValue@TiXmlElement@@IAEPBDPBDPAVTiXmlParsingData@@W4TiXmlEncoding@@@Z
_TEXT	SEGMENT
$T2 = -24						; size = 4
_document$1$ = -20					; size = 4
_this$1$ = -16						; size = 4
__$EHRec$ = -12						; size = 12
_p$ = 8							; size = 4
_data$ = 12						; size = 4
_encoding$ = 16						; size = 4
?ReadValue@TiXmlElement@@IAEPBDPBDPAVTiXmlParsingData@@W4TiXmlEncoding@@@Z PROC ; TiXmlElement::ReadValue, COMDAT
; _this$ = ecx

; 1182 : {

  00000	55		 push	 ebp
  00001	8b ec		 mov	 ebp, esp
  00003	6a ff		 push	 -1
  00005	68 00 00 00 00	 push	 __ehhandler$?ReadValue@TiXmlElement@@IAEPBDPBDPAVTiXmlParsingData@@W4TiXmlEncoding@@@Z
  0000a	64 a1 00 00 00
	00		 mov	 eax, DWORD PTR fs:0
  00010	50		 push	 eax
  00011	83 ec 0c	 sub	 esp, 12			; 0000000cH
  00014	53		 push	 ebx
  00015	56		 push	 esi
  00016	57		 push	 edi
  00017	a1 00 00 00 00	 mov	 eax, DWORD PTR ___security_cookie
  0001c	33 c5		 xor	 eax, ebp
  0001e	50		 push	 eax
  0001f	8d 45 f4	 lea	 eax, DWORD PTR __$EHRec$[ebp]
  00022	64 a3 00 00 00
	00		 mov	 DWORD PTR fs:0, eax
  00028	8b c1		 mov	 eax, ecx
  0002a	89 45 f0	 mov	 DWORD PTR _this$1$[ebp], eax
; File E:\Proyectos\JuegosOnlineproyectos\PB\pbblow\Piercing Blow Remake\i3Server\include\i3Base\tinyxml.h

; 695  : 		return const_cast< TiXmlDocument* >( (const_cast< const TiXmlNode* >(this))->GetDocument() );

  0002d	e8 00 00 00 00	 call	 ?GetDocument@TiXmlNode@@QBEPBVTiXmlDocument@@XZ ; TiXmlNode::GetDocument
; File E:\Proyectos\JuegosOnlineproyectos\PB\pbblow\Piercing Blow Remake\i3Server\src\i3Base\tinyxmlparser.cpp

; 1187 : 	p = SkipWhiteSpace( p, encoding );

  00032	8b 75 10	 mov	 esi, DWORD PTR _encoding$[ebp]
  00035	8b 5d 08	 mov	 ebx, DWORD PTR _p$[ebp]
  00038	56		 push	 esi
  00039	53		 push	 ebx
  0003a	89 45 ec	 mov	 DWORD PTR _document$1$[ebp], eax
  0003d	e8 00 00 00 00	 call	 ?SkipWhiteSpace@TiXmlBase@@KAPBDPBDW4TiXmlEncoding@@@Z ; TiXmlBase::SkipWhiteSpace
  00042	8b f8		 mov	 edi, eax
  00044	83 c4 08	 add	 esp, 8

; 1188 : 
; 1189 : 	while ( p && *p )

  00047	85 ff		 test	 edi, edi
  00049	0f 84 58 01 00
	00		 je	 $LN332@ReadValue
  0004f	90		 npad	 1
$LL2@ReadValue:
  00050	8a 07		 mov	 al, BYTE PTR [edi]
  00052	84 c0		 test	 al, al
  00054	0f 84 97 01 00
	00		 je	 $LN305@ReadValue

; 1190 : 	{
; 1191 : 		if ( *p != '<' )

  0005a	3c 3c		 cmp	 al, 60			; 0000003cH
  0005c	0f 84 d3 00 00
	00		 je	 $LN4@ReadValue

; 1194 : 			TiXmlText* textNode = new TiXmlText( "" );

  00062	6a 30		 push	 48			; 00000030H
  00064	e8 00 00 00 00	 call	 ??2@YAPAXI@Z		; operator new
  00069	8b f0		 mov	 esi, eax
  0006b	83 c4 04	 add	 esp, 4
  0006e	89 75 e8	 mov	 DWORD PTR $T2[ebp], esi
  00071	c7 45 fc 00 00
	00 00		 mov	 DWORD PTR __$EHRec$[ebp+8], 0
  00078	85 f6		 test	 esi, esi
  0007a	74 28		 je	 SHORT $LN19@ReadValue
; File E:\Proyectos\JuegosOnlineproyectos\PB\pbblow\Piercing Blow Remake\i3Server\include\i3Base\tinyxml.h

; 1222 : 	TiXmlText (const char * initValue ) : TiXmlNode (TiXmlNode::TEXT)

  0007c	6a 04		 push	 4
  0007e	8b ce		 mov	 ecx, esi
  00080	e8 00 00 00 00	 call	 ??0TiXmlNode@@IAE@W4NodeType@0@@Z ; TiXmlNode::TiXmlNode
; File E:\Proyectos\JuegosOnlineproyectos\PB\pbblow\Piercing Blow Remake\i3Server\include\i3Base\tinystr.h

; 114  : 		return assign( copy, (size_type)strlen(copy));

  00085	6a 00		 push	 0
  00087	68 00 00 00 00	 push	 OFFSET ??_C@_00CNPNBAHC@@
; File E:\Proyectos\JuegosOnlineproyectos\PB\pbblow\Piercing Blow Remake\i3Server\include\i3Base\tinyxml.h

; 512  : 	void SetValue(const char * _value) { value = _value;}

  0008c	8d 4e 20	 lea	 ecx, DWORD PTR [esi+32]

; 1222 : 	TiXmlText (const char * initValue ) : TiXmlNode (TiXmlNode::TEXT)

  0008f	c6 45 fc 01	 mov	 BYTE PTR __$EHRec$[ebp+8], 1

; 1223 : 	{

  00093	c7 06 00 00 00
	00		 mov	 DWORD PTR [esi], OFFSET ??_7TiXmlText@@6B@
; File E:\Proyectos\JuegosOnlineproyectos\PB\pbblow\Piercing Blow Remake\i3Server\include\i3Base\tinystr.h

; 114  : 		return assign( copy, (size_type)strlen(copy));

  00099	e8 00 00 00 00	 call	 ?assign@TiXmlString@@QAEAAV1@PBDI@Z ; TiXmlString::assign
; File E:\Proyectos\JuegosOnlineproyectos\PB\pbblow\Piercing Blow Remake\i3Server\include\i3Base\tinyxml.h

; 1225 : 		cdata = false;

  0009e	c6 46 2c 00	 mov	 BYTE PTR [esi+44], 0
; File E:\Proyectos\JuegosOnlineproyectos\PB\pbblow\Piercing Blow Remake\i3Server\src\i3Base\tinyxmlparser.cpp

; 1194 : 			TiXmlText* textNode = new TiXmlText( "" );

  000a2	eb 02		 jmp	 SHORT $LN20@ReadValue
$LN19@ReadValue:
  000a4	33 f6		 xor	 esi, esi
$LN20@ReadValue:
  000a6	c7 45 fc ff ff
	ff ff		 mov	 DWORD PTR __$EHRec$[ebp+8], -1

; 1195 : 
; 1196 : 			if ( !textNode )

  000ad	85 f6		 test	 esi, esi
  000af	0f 84 52 01 00
	00		 je	 $LN318@ReadValue

; 1199 : 				    return 0;
; 1200 : 			}
; 1201 : 
; 1202 : 			if ( TiXmlBase::IsWhiteSpaceCondensed() )

  000b5	80 3d 00 00 00
	00 00		 cmp	 BYTE PTR ?condenseWhiteSpace@TiXmlBase@@0_NA, 0 ; TiXmlBase::condenseWhiteSpace
  000bc	8b ce		 mov	 ecx, esi
  000be	8b 06		 mov	 eax, DWORD PTR [esi]
  000c0	ff 75 10	 push	 DWORD PTR _encoding$[ebp]
  000c3	ff 75 0c	 push	 DWORD PTR _data$[ebp]
  000c6	8b 40 08	 mov	 eax, DWORD PTR [eax+8]
  000c9	74 0f		 je	 SHORT $LN8@ReadValue

; 1203 : 			{
; 1204 : 				p = textNode->Parse( p, data, encoding );

  000cb	57		 push	 edi
$LN345@ReadValue:

; 1637 : 	for ( unsigned i=0; i<value.length(); i++ )

  000cc	3d 00 00 00 00	 cmp	 eax, OFFSET ?Parse@TiXmlText@@UAEPBDPBDPAVTiXmlParsingData@@W4TiXmlEncoding@@@Z ; TiXmlText::Parse
  000d1	75 0a		 jne	 SHORT $LN44@ReadValue
  000d3	e8 00 00 00 00	 call	 ?Parse@TiXmlText@@UAEPBDPBDPAVTiXmlParsingData@@W4TiXmlEncoding@@@Z ; TiXmlText::Parse
  000d8	eb 05		 jmp	 SHORT $LN344@ReadValue
$LN8@ReadValue:

; 1205 : 			}
; 1206 : 			else
; 1207 : 			{
; 1208 : 				// Special case: we want to keep the white space
; 1209 : 				// so that leading spaces aren't removed.
; 1210 : 				p = textNode->Parse( pWithWhiteSpace, data, encoding );

  000da	53		 push	 ebx
  000db	eb ef		 jmp	 SHORT $LN345@ReadValue
$LN44@ReadValue:

; 1637 : 	for ( unsigned i=0; i<value.length(); i++ )

  000dd	ff d0		 call	 eax
$LN344@ReadValue:
  000df	89 45 08	 mov	 DWORD PTR _p$[ebp], eax
  000e2	33 ff		 xor	 edi, edi
; File E:\Proyectos\JuegosOnlineproyectos\PB\pbblow\Piercing Blow Remake\i3Server\include\i3Base\tinystr.h

; 150  : 	size_type length () const { return rep_->size; }

  000e4	8b 46 20	 mov	 eax, DWORD PTR [esi+32]
; File E:\Proyectos\JuegosOnlineproyectos\PB\pbblow\Piercing Blow Remake\i3Server\src\i3Base\tinyxmlparser.cpp

; 1637 : 	for ( unsigned i=0; i<value.length(); i++ )

  000e7	39 38		 cmp	 DWORD PTR [eax], edi
  000e9	76 2b		 jbe	 SHORT $LN10@ReadValue
  000eb	eb 03 8d 49 00	 npad	 5
$LL260@ReadValue:

; 1638 : 		if ( !IsWhiteSpace( value[i] ) )

  000f0	8a 5c 38 08	 mov	 bl, BYTE PTR [eax+edi+8]
; File E:\Proyectos\JuegosOnlineproyectos\PB\pbblow\Piercing Blow Remake\i3Server\include\i3Base\tinyxml.h

; 296  : 		return ( isspace( (unsigned char) c ) || c == '\n' || c == '\r' ); 

  000f4	0f b6 c3	 movzx	 eax, bl
  000f7	50		 push	 eax
  000f8	e8 00 00 00 00	 call	 _isspace
  000fd	83 c4 04	 add	 esp, 4
  00100	85 c0		 test	 eax, eax
  00102	75 0a		 jne	 SHORT $LN269@ReadValue
  00104	80 fb 0a	 cmp	 bl, 10			; 0000000aH
  00107	74 05		 je	 SHORT $LN269@ReadValue
  00109	80 fb 0d	 cmp	 bl, 13			; 0000000dH
  0010c	75 1e		 jne	 SHORT $LN334@ReadValue
$LN269@ReadValue:
; File E:\Proyectos\JuegosOnlineproyectos\PB\pbblow\Piercing Blow Remake\i3Server\include\i3Base\tinystr.h

; 150  : 	size_type length () const { return rep_->size; }

  0010e	8b 46 20	 mov	 eax, DWORD PTR [esi+32]
; File E:\Proyectos\JuegosOnlineproyectos\PB\pbblow\Piercing Blow Remake\i3Server\src\i3Base\tinyxmlparser.cpp

; 1637 : 	for ( unsigned i=0; i<value.length(); i++ )

  00111	47		 inc	 edi
  00112	3b 38		 cmp	 edi, DWORD PTR [eax]
  00114	72 da		 jb	 SHORT $LL260@ReadValue
$LN10@ReadValue:

; 1215 : 			else
; 1216 : 				delete textNode;

  00116	8b 06		 mov	 eax, DWORD PTR [esi]
  00118	8b ce		 mov	 ecx, esi
  0011a	6a 01		 push	 1
  0011c	8b 00		 mov	 eax, DWORD PTR [eax]
  0011e	3d 00 00 00 00	 cmp	 eax, OFFSET ??_ETiXmlText@@UAEPAXI@Z
  00123	75 0c		 jne	 SHORT $LN272@ReadValue
  00125	e8 00 00 00 00	 call	 ??_ETiXmlText@@UAEPAXI@Z
  0012a	eb 61		 jmp	 SHORT $LN15@ReadValue
$LN334@ReadValue:

; 1211 : 			}
; 1212 : 
; 1213 : 			if ( !textNode->Blank() )
; 1214 : 				LinkEndChild( textNode );

  0012c	8b 4d f0	 mov	 ecx, DWORD PTR _this$1$[ebp]
  0012f	eb 56		 jmp	 SHORT $LN346@ReadValue
$LN272@ReadValue:

; 1215 : 			else
; 1216 : 				delete textNode;

  00131	ff d0		 call	 eax

; 1217 : 		} 

  00133	eb 58		 jmp	 SHORT $LN15@ReadValue
$LN4@ReadValue:

; 1218 : 		else 
; 1219 : 		{
; 1220 : 			// We hit a '<'
; 1221 : 			// Have we hit a new element or an end tag? This could also be
; 1222 : 			// a TiXmlText in the "CDATA" style.
; 1223 : 			if ( StringEqual( p, "</", false, encoding ) )

  00135	b9 00 00 00 00	 mov	 ecx, OFFSET ??_C@_02DPNDACHE@?$DM?1@

; 551  : 	const char* q = p;

  0013a	8b c7		 mov	 eax, edi
  0013c	8d 64 24 00	 npad	 4
$LL284@ReadValue:

; 552  : 
; 553  : 	if ( ignoreCase )
; 554  : 	{
; 555  : 		while ( *q && *tag && ToLower( *q, encoding ) == ToLower( *tag, encoding ) )
; 556  : 		{
; 557  : 			++q;
; 558  : 			++tag;
; 559  : 		}
; 560  : 
; 561  : 		if ( *tag == 0 )
; 562  : 			return true;
; 563  : 	}
; 564  : 	else
; 565  : 	{
; 566  : 		while ( *q && *tag && *q == *tag )

  00140	8a 11		 mov	 dl, BYTE PTR [ecx]
  00142	84 d2		 test	 dl, dl
  00144	0f 84 a7 00 00
	00		 je	 $LN305@ReadValue
  0014a	38 10		 cmp	 BYTE PTR [eax], dl
  0014c	75 07		 jne	 SHORT $LN285@ReadValue

; 567  : 		{
; 568  : 			++q;

  0014e	40		 inc	 eax

; 569  : 			++tag;

  0014f	41		 inc	 ecx
  00150	80 38 00	 cmp	 BYTE PTR [eax], 0
  00153	75 eb		 jne	 SHORT $LL284@ReadValue
$LN285@ReadValue:

; 570  : 		}
; 571  : 
; 572  : 		if ( *tag == 0 )		// Have we found the end of the tag, and everything equal?

  00155	80 39 00	 cmp	 BYTE PTR [ecx], 0
  00158	0f 84 93 00 00
	00		 je	 $LN305@ReadValue

; 1224 : 			{
; 1225 : 				return p;
; 1226 : 			}
; 1227 : 			else
; 1228 : 			{
; 1229 : 				TiXmlNode* node = Identify( p, encoding );

  0015e	8b 5d f0	 mov	 ebx, DWORD PTR _this$1$[ebp]
  00161	8b cb		 mov	 ecx, ebx
  00163	56		 push	 esi
  00164	57		 push	 edi
  00165	e8 00 00 00 00	 call	 ?Identify@TiXmlNode@@IAEPAV1@PBDW4TiXmlEncoding@@@Z ; TiXmlNode::Identify
  0016a	8b f0		 mov	 esi, eax

; 1230 : 				if ( node )

  0016c	85 f6		 test	 esi, esi
  0016e	0f 84 dd 00 00
	00		 je	 $LN14@ReadValue

; 1231 : 				{
; 1232 : 					p = node->Parse( p, data, encoding );

  00174	ff 75 10	 push	 DWORD PTR _encoding$[ebp]
  00177	8b 16		 mov	 edx, DWORD PTR [esi]
  00179	8b ce		 mov	 ecx, esi
  0017b	ff 75 0c	 push	 DWORD PTR _data$[ebp]
  0017e	57		 push	 edi
  0017f	ff 52 08	 call	 DWORD PTR [edx+8]
  00182	89 45 08	 mov	 DWORD PTR _p$[ebp], eax

; 1233 : 					LinkEndChild( node );

  00185	8b cb		 mov	 ecx, ebx
$LN346@ReadValue:

; 1238 : 				}
; 1239 : 			}
; 1240 : 		}
; 1241 : 		pWithWhiteSpace = p;
; 1242 : 		p = SkipWhiteSpace( p, encoding );

  00187	56		 push	 esi
  00188	e8 00 00 00 00	 call	 ?LinkEndChild@TiXmlNode@@QAEPAV1@PAV1@@Z ; TiXmlNode::LinkEndChild
$LN15@ReadValue:
  0018d	8b 75 10	 mov	 esi, DWORD PTR _encoding$[ebp]
  00190	8b 5d 08	 mov	 ebx, DWORD PTR _p$[ebp]
  00193	56		 push	 esi
  00194	53		 push	 ebx
  00195	e8 00 00 00 00	 call	 ?SkipWhiteSpace@TiXmlBase@@KAPBDPBDW4TiXmlEncoding@@@Z ; TiXmlBase::SkipWhiteSpace
  0019a	8b f8		 mov	 edi, eax
  0019c	83 c4 08	 add	 esp, 8
  0019f	85 ff		 test	 edi, edi
  001a1	0f 85 a9 fe ff
	ff		 jne	 $LL2@ReadValue
$LN332@ReadValue:

; 1243 : 	}
; 1244 : 
; 1245 : 	if ( !p )
; 1246 : 	{
; 1247 : 		if ( document ) document->SetError( TIXML_ERROR_READING_ELEMENT_VALUE, 0, 0, encoding );

  001a7	8b 5d ec	 mov	 ebx, DWORD PTR _document$1$[ebp]
  001aa	85 db		 test	 ebx, ebx
  001ac	74 43		 je	 SHORT $LN305@ReadValue

; 805  : 	if ( error )

  001ae	80 7b 2c 00	 cmp	 BYTE PTR [ebx+44], 0
  001b2	75 3d		 jne	 SHORT $LN305@ReadValue

; 806  : 		return;
; 807  : 
; 808  : 	I3ASSERT( err > 0 && err < TIXML_ERROR_STRING_COUNT );
; 809  : 	error   = true;

  001b4	c6 43 2c 01	 mov	 BYTE PTR [ebx+44], 1

; 810  : 	errorId = err;

  001b8	c7 43 30 06 00
	00 00		 mov	 DWORD PTR [ebx+48], 6

; 811  : 	errorDesc = errorString[ errorId ];

  001bf	8b 15 18 00 00
	00		 mov	 edx, DWORD PTR ?errorString@TiXmlBase@@1PAPBDA+24
; File E:\Proyectos\JuegosOnlineproyectos\PB\pbblow\Piercing Blow Remake\i3Server\include\i3Base\tinystr.h

; 114  : 		return assign( copy, (size_type)strlen(copy));

  001c5	8b ca		 mov	 ecx, edx
  001c7	8d 71 01	 lea	 esi, DWORD PTR [ecx+1]
  001ca	8d 9b 00 00 00
	00		 npad	 6
$LL342@ReadValue:
  001d0	8a 01		 mov	 al, BYTE PTR [ecx]
  001d2	41		 inc	 ecx
  001d3	84 c0		 test	 al, al
  001d5	75 f9		 jne	 SHORT $LL342@ReadValue
  001d7	2b ce		 sub	 ecx, esi
  001d9	51		 push	 ecx
  001da	52		 push	 edx
; File E:\Proyectos\JuegosOnlineproyectos\PB\pbblow\Piercing Blow Remake\i3Server\src\i3Base\tinyxmlparser.cpp

; 811  : 	errorDesc = errorString[ errorId ];

  001db	8d 4b 34	 lea	 ecx, DWORD PTR [ebx+52]
; File E:\Proyectos\JuegosOnlineproyectos\PB\pbblow\Piercing Blow Remake\i3Server\include\i3Base\tinystr.h

; 114  : 		return assign( copy, (size_type)strlen(copy));

  001de	e8 00 00 00 00	 call	 ?assign@TiXmlString@@QAEAAV1@PBDI@Z ; TiXmlString::assign
; File E:\Proyectos\JuegosOnlineproyectos\PB\pbblow\Piercing Blow Remake\i3Server\include\i3Base\tinyxml.h

; 107  : 	void Clear()		{ row = col = -1; }

  001e3	c7 43 40 ff ff
	ff ff		 mov	 DWORD PTR [ebx+64], -1
  001ea	c7 43 3c ff ff
	ff ff		 mov	 DWORD PTR [ebx+60], -1
$LN305@ReadValue:
; File E:\Proyectos\JuegosOnlineproyectos\PB\pbblow\Piercing Blow Remake\i3Server\src\i3Base\tinyxmlparser.cpp

; 1250 : }

  001f1	8b c7		 mov	 eax, edi
  001f3	8b 4d f4	 mov	 ecx, DWORD PTR __$EHRec$[ebp]
  001f6	64 89 0d 00 00
	00 00		 mov	 DWORD PTR fs:0, ecx
  001fd	59		 pop	 ecx
  001fe	5f		 pop	 edi
  001ff	5e		 pop	 esi
  00200	5b		 pop	 ebx
  00201	8b e5		 mov	 esp, ebp
  00203	5d		 pop	 ebp
  00204	c2 0c 00	 ret	 12			; 0000000cH
$LN318@ReadValue:

; 1197 : 			{
; 1198 : 				if ( document ) document->SetError( TIXML_ERROR_OUT_OF_MEMORY, 0, 0, encoding );

  00207	8b 5d ec	 mov	 ebx, DWORD PTR _document$1$[ebp]
  0020a	85 db		 test	 ebx, ebx
  0020c	74 43		 je	 SHORT $LN14@ReadValue

; 805  : 	if ( error )

  0020e	80 7b 2c 00	 cmp	 BYTE PTR [ebx+44], 0
  00212	75 3d		 jne	 SHORT $LN14@ReadValue

; 806  : 		return;
; 807  : 
; 808  : 	I3ASSERT( err > 0 && err < TIXML_ERROR_STRING_COUNT );
; 809  : 	error   = true;

  00214	c6 43 2c 01	 mov	 BYTE PTR [ebx+44], 1

; 810  : 	errorId = err;

  00218	c7 43 30 03 00
	00 00		 mov	 DWORD PTR [ebx+48], 3

; 811  : 	errorDesc = errorString[ errorId ];

  0021f	8b 15 0c 00 00
	00		 mov	 edx, DWORD PTR ?errorString@TiXmlBase@@1PAPBDA+12
; File E:\Proyectos\JuegosOnlineproyectos\PB\pbblow\Piercing Blow Remake\i3Server\include\i3Base\tinystr.h

; 114  : 		return assign( copy, (size_type)strlen(copy));

  00225	8b ca		 mov	 ecx, edx
  00227	8d 71 01	 lea	 esi, DWORD PTR [ecx+1]
  0022a	8d 9b 00 00 00
	00		 npad	 6
$LL341@ReadValue:
  00230	8a 01		 mov	 al, BYTE PTR [ecx]
  00232	41		 inc	 ecx
  00233	84 c0		 test	 al, al
  00235	75 f9		 jne	 SHORT $LL341@ReadValue
  00237	2b ce		 sub	 ecx, esi
  00239	51		 push	 ecx
  0023a	52		 push	 edx
; File E:\Proyectos\JuegosOnlineproyectos\PB\pbblow\Piercing Blow Remake\i3Server\src\i3Base\tinyxmlparser.cpp

; 811  : 	errorDesc = errorString[ errorId ];

  0023b	8d 4b 34	 lea	 ecx, DWORD PTR [ebx+52]
; File E:\Proyectos\JuegosOnlineproyectos\PB\pbblow\Piercing Blow Remake\i3Server\include\i3Base\tinystr.h

; 114  : 		return assign( copy, (size_type)strlen(copy));

  0023e	e8 00 00 00 00	 call	 ?assign@TiXmlString@@QAEAAV1@PBDI@Z ; TiXmlString::assign
; File E:\Proyectos\JuegosOnlineproyectos\PB\pbblow\Piercing Blow Remake\i3Server\include\i3Base\tinyxml.h

; 107  : 	void Clear()		{ row = col = -1; }

  00243	c7 43 40 ff ff
	ff ff		 mov	 DWORD PTR [ebx+64], -1
  0024a	c7 43 3c ff ff
	ff ff		 mov	 DWORD PTR [ebx+60], -1
$LN14@ReadValue:
; File E:\Proyectos\JuegosOnlineproyectos\PB\pbblow\Piercing Blow Remake\i3Server\src\i3Base\tinyxmlparser.cpp

; 1237 : 					return 0;

  00251	33 c0		 xor	 eax, eax

; 1250 : }

  00253	8b 4d f4	 mov	 ecx, DWORD PTR __$EHRec$[ebp]
  00256	64 89 0d 00 00
	00 00		 mov	 DWORD PTR fs:0, ecx
  0025d	59		 pop	 ecx
  0025e	5f		 pop	 edi
  0025f	5e		 pop	 esi
  00260	5b		 pop	 ebx
  00261	8b e5		 mov	 esp, ebp
  00263	5d		 pop	 ebp
  00264	c2 0c 00	 ret	 12			; 0000000cH
_TEXT	ENDS
;	COMDAT text$x
text$x	SEGMENT
__unwindfunclet$?ReadValue@TiXmlElement@@IAEPBDPBDPAVTiXmlParsingData@@W4TiXmlEncoding@@@Z$0:
  00000	6a 30		 push	 48			; 00000030H
  00002	8b 45 e8	 mov	 eax, DWORD PTR $T2[ebp]
  00005	50		 push	 eax
  00006	e8 00 00 00 00	 call	 ??3@YAXPAXI@Z		; operator delete
  0000b	83 c4 08	 add	 esp, 8
  0000e	c3		 ret	 0
__unwindfunclet$?ReadValue@TiXmlElement@@IAEPBDPBDPAVTiXmlParsingData@@W4TiXmlEncoding@@@Z$1:
  0000f	8b 4d e8	 mov	 ecx, DWORD PTR $T2[ebp]
  00012	e9 00 00 00 00	 jmp	 ??1TiXmlNode@@UAE@XZ	; TiXmlNode::~TiXmlNode
  00017	cc		 int	 3
  00018	cc		 int	 3
  00019	cc		 int	 3
  0001a	cc		 int	 3
  0001b	cc		 int	 3
__ehhandler$?ReadValue@TiXmlElement@@IAEPBDPBDPAVTiXmlParsingData@@W4TiXmlEncoding@@@Z:
  0001c	90		 npad	 1
  0001d	90		 npad	 1
  0001e	8b 54 24 08	 mov	 edx, DWORD PTR [esp+8]
  00022	8d 42 0c	 lea	 eax, DWORD PTR [edx+12]
  00025	8b 4a e4	 mov	 ecx, DWORD PTR [edx-28]
  00028	33 c8		 xor	 ecx, eax
  0002a	e8 00 00 00 00	 call	 @__security_check_cookie@4
  0002f	b8 00 00 00 00	 mov	 eax, OFFSET __ehfuncinfo$?ReadValue@TiXmlElement@@IAEPBDPBDPAVTiXmlParsingData@@W4TiXmlEncoding@@@Z
  00034	e9 00 00 00 00	 jmp	 ___CxxFrameHandler3
text$x	ENDS
?ReadValue@TiXmlElement@@IAEPBDPBDPAVTiXmlParsingData@@W4TiXmlEncoding@@@Z ENDP ; TiXmlElement::ReadValue
; Function compile flags: /Ogtp
; File E:\Proyectos\JuegosOnlineproyectos\PB\pbblow\Piercing Blow Remake\i3Server\include\i3Base\tinyxml.h
;	COMDAT ?ToElement@TiXmlElement@@UAEPAV1@XZ
_TEXT	SEGMENT
?ToElement@TiXmlElement@@UAEPAV1@XZ PROC		; TiXmlElement::ToElement, COMDAT
; _this$ = ecx

; 1135 : 	virtual TiXmlElement*           ToElement()	          { return this; } ///< Cast to a more defined type. Will return null not of the requested type.

  00000	8b c1		 mov	 eax, ecx
  00002	c3		 ret	 0
?ToElement@TiXmlElement@@UAEPAV1@XZ ENDP		; TiXmlElement::ToElement
_TEXT	ENDS
; Function compile flags: /Ogtp
; File E:\Proyectos\JuegosOnlineproyectos\PB\pbblow\Piercing Blow Remake\i3Server\include\i3Base\tinyxml.h
;	COMDAT ?ToElement@TiXmlElement@@UBEPBV1@XZ
_TEXT	SEGMENT
?ToElement@TiXmlElement@@UBEPBV1@XZ PROC		; TiXmlElement::ToElement, COMDAT
; _this$ = ecx

; 1134 : 	virtual const TiXmlElement*     ToElement()     const { return this; } ///< Cast to a more defined type. Will return null not of the requested type.

  00000	8b c1		 mov	 eax, ecx
  00002	c3		 ret	 0
?ToElement@TiXmlElement@@UBEPBV1@XZ ENDP		; TiXmlElement::ToElement
_TEXT	ENDS
; Function compile flags: /Ogtp
; File E:\Proyectos\JuegosOnlineproyectos\PB\pbblow\Piercing Blow Remake\i3Server\src\i3Base\tinyxmlparser.cpp
; File E:\Proyectos\JuegosOnlineproyectos\PB\pbblow\Piercing Blow Remake\i3Server\include\i3Base\tinyxml.h
; File E:\Proyectos\JuegosOnlineproyectos\PB\pbblow\Piercing Blow Remake\i3Server\src\i3Base\tinyxmlparser.cpp
; File E:\Proyectos\JuegosOnlineproyectos\PB\pbblow\Piercing Blow Remake\i3Server\include\i3Base\tinystr.h
; File E:\Proyectos\JuegosOnlineproyectos\PB\pbblow\Piercing Blow Remake\i3Server\src\i3Base\tinyxmlparser.cpp
; File E:\Proyectos\JuegosOnlineproyectos\PB\pbblow\Piercing Blow Remake\i3Server\include\i3Base\tinystr.h
; File E:\Proyectos\JuegosOnlineproyectos\PB\pbblow\Piercing Blow Remake\i3Server\include\i3Base\tinyxml.h
; File E:\Proyectos\JuegosOnlineproyectos\PB\pbblow\Piercing Blow Remake\i3Server\src\i3Base\tinyxmlparser.cpp
; File E:\Proyectos\JuegosOnlineproyectos\PB\pbblow\Piercing Blow Remake\i3Server\include\i3Base\tinystr.h
; File E:\Proyectos\JuegosOnlineproyectos\PB\pbblow\Piercing Blow Remake\i3Server\src\i3Base\tinyxmlparser.cpp
; File E:\Proyectos\JuegosOnlineproyectos\PB\pbblow\Piercing Blow Remake\i3Server\include\i3Base\tinystr.h
; File E:\Proyectos\JuegosOnlineproyectos\PB\pbblow\Piercing Blow Remake\i3Server\src\i3Base\tinyxmlparser.cpp
; File E:\Proyectos\JuegosOnlineproyectos\PB\pbblow\Piercing Blow Remake\i3Server\include\i3Base\tinyxml.h
; File E:\Proyectos\JuegosOnlineproyectos\PB\pbblow\Piercing Blow Remake\i3Server\src\i3Base\tinyxmlparser.cpp
; File E:\Proyectos\JuegosOnlineproyectos\PB\pbblow\Piercing Blow Remake\i3Server\include\i3Base\tinyxml.h
; File E:\Proyectos\JuegosOnlineproyectos\PB\pbblow\Piercing Blow Remake\i3Server\src\i3Base\tinyxmlparser.cpp
; File E:\Proyectos\JuegosOnlineproyectos\PB\pbblow\Piercing Blow Remake\i3Server\include\i3Base\tinyxml.h
; File E:\Proyectos\JuegosOnlineproyectos\PB\pbblow\Piercing Blow Remake\i3Server\include\i3Base\tinystr.h
; File E:\Proyectos\JuegosOnlineproyectos\PB\pbblow\Piercing Blow Remake\i3Server\include\i3Base\tinyxml.h
; File E:\Proyectos\JuegosOnlineproyectos\PB\pbblow\Piercing Blow Remake\i3Server\src\i3Base\tinyxmlparser.cpp
; File E:\Proyectos\JuegosOnlineproyectos\PB\pbblow\Piercing Blow Remake\i3Server\include\i3Base\tinystr.h
; File E:\Proyectos\JuegosOnlineproyectos\PB\pbblow\Piercing Blow Remake\i3Server\src\i3Base\tinyxmlparser.cpp
; File E:\Proyectos\JuegosOnlineproyectos\PB\pbblow\Piercing Blow Remake\i3Server\include\i3Base\tinystr.h
; File E:\Proyectos\JuegosOnlineproyectos\PB\pbblow\Piercing Blow Remake\i3Server\src\i3Base\tinyxmlparser.cpp
; File E:\Proyectos\JuegosOnlineproyectos\PB\pbblow\Piercing Blow Remake\i3Server\include\i3Base\tinyxml.h
; File E:\Proyectos\JuegosOnlineproyectos\PB\pbblow\Piercing Blow Remake\i3Server\src\i3Base\tinyxmlparser.cpp
; File E:\Proyectos\JuegosOnlineproyectos\PB\pbblow\Piercing Blow Remake\i3Server\include\i3Base\tinystr.h
; File E:\Proyectos\JuegosOnlineproyectos\PB\pbblow\Piercing Blow Remake\i3Server\src\i3Base\tinyxmlparser.cpp
; File E:\Proyectos\JuegosOnlineproyectos\PB\pbblow\Piercing Blow Remake\i3Server\include\i3Base\tinystr.h
; File E:\Proyectos\JuegosOnlineproyectos\PB\pbblow\Piercing Blow Remake\i3Server\src\i3Base\tinyxmlparser.cpp
; File E:\Proyectos\JuegosOnlineproyectos\PB\pbblow\Piercing Blow Remake\i3Server\include\i3Base\tinystr.h
; File E:\Proyectos\JuegosOnlineproyectos\PB\pbblow\Piercing Blow Remake\i3Server\src\i3Base\tinyxmlparser.cpp
; File E:\Proyectos\JuegosOnlineproyectos\PB\pbblow\Piercing Blow Remake\i3Server\include\i3Base\tinyxml.h
; File E:\Proyectos\JuegosOnlineproyectos\PB\pbblow\Piercing Blow Remake\i3Server\src\i3Base\tinyxmlparser.cpp
; File E:\Proyectos\JuegosOnlineproyectos\PB\pbblow\Piercing Blow Remake\i3Server\include\i3Base\tinystr.h
; File E:\Proyectos\JuegosOnlineproyectos\PB\pbblow\Piercing Blow Remake\i3Server\src\i3Base\tinyxmlparser.cpp
; File E:\Proyectos\JuegosOnlineproyectos\PB\pbblow\Piercing Blow Remake\i3Server\include\i3Base\tinystr.h
; File E:\Proyectos\JuegosOnlineproyectos\PB\pbblow\Piercing Blow Remake\i3Server\src\i3Base\tinyxmlparser.cpp
; File E:\Proyectos\JuegosOnlineproyectos\PB\pbblow\Piercing Blow Remake\i3Server\include\i3Base\tinystr.h
; File E:\Proyectos\JuegosOnlineproyectos\PB\pbblow\Piercing Blow Remake\i3Server\src\i3Base\tinyxmlparser.cpp
; File E:\Proyectos\JuegosOnlineproyectos\PB\pbblow\Piercing Blow Remake\i3Server\include\i3Base\tinystr.h
; File E:\Proyectos\JuegosOnlineproyectos\PB\pbblow\Piercing Blow Remake\i3Server\include\i3Base\tinyxml.h
; File E:\Proyectos\JuegosOnlineproyectos\PB\pbblow\Piercing Blow Remake\i3Server\src\i3Base\tinyxmlparser.cpp
; File E:\Proyectos\JuegosOnlineproyectos\PB\pbblow\Piercing Blow Remake\i3Server\include\i3Base\tinystr.h
; File E:\Proyectos\JuegosOnlineproyectos\PB\pbblow\Piercing Blow Remake\i3Server\src\i3Base\tinyxmlparser.cpp
; File E:\Proyectos\JuegosOnlineproyectos\PB\pbblow\Piercing Blow Remake\i3Server\include\i3Base\tinystr.h
; File E:\Proyectos\JuegosOnlineproyectos\PB\pbblow\Piercing Blow Remake\i3Server\src\i3Base\tinyxmlparser.cpp
; File E:\Proyectos\JuegosOnlineproyectos\PB\pbblow\Piercing Blow Remake\i3Server\include\i3Base\tinyxml.h
; File E:\Proyectos\JuegosOnlineproyectos\PB\pbblow\Piercing Blow Remake\i3Server\src\i3Base\tinyxmlparser.cpp
; File E:\Proyectos\JuegosOnlineproyectos\PB\pbblow\Piercing Blow Remake\i3Server\include\i3Base\tinystr.h
; File E:\Proyectos\JuegosOnlineproyectos\PB\pbblow\Piercing Blow Remake\i3Server\src\i3Base\tinyxmlparser.cpp
; File E:\Proyectos\JuegosOnlineproyectos\PB\pbblow\Piercing Blow Remake\i3Server\include\i3Base\tinystr.h
; File E:\Proyectos\JuegosOnlineproyectos\PB\pbblow\Piercing Blow Remake\i3Server\src\i3Base\tinyxmlparser.cpp
; File E:\Proyectos\JuegosOnlineproyectos\PB\pbblow\Piercing Blow Remake\i3Server\include\i3Base\tinyxml.h
; File E:\Proyectos\JuegosOnlineproyectos\PB\pbblow\Piercing Blow Remake\i3Server\src\i3Base\tinyxmlparser.cpp
; File E:\Proyectos\JuegosOnlineproyectos\PB\pbblow\Piercing Blow Remake\i3Server\include\i3Base\tinystr.h
; File E:\Proyectos\JuegosOnlineproyectos\PB\pbblow\Piercing Blow Remake\i3Server\src\i3Base\tinyxmlparser.cpp
; File E:\Proyectos\JuegosOnlineproyectos\PB\pbblow\Piercing Blow Remake\i3Server\include\i3Base\tinystr.h
; File E:\Proyectos\JuegosOnlineproyectos\PB\pbblow\Piercing Blow Remake\i3Server\src\i3Base\tinyxmlparser.cpp
; File E:\Proyectos\JuegosOnlineproyectos\PB\pbblow\Piercing Blow Remake\i3Server\include\i3Base\tinystr.h
; File E:\Proyectos\JuegosOnlineproyectos\PB\pbblow\Piercing Blow Remake\i3Server\src\i3Base\tinyxmlparser.cpp
; File E:\Proyectos\JuegosOnlineproyectos\PB\pbblow\Piercing Blow Remake\i3Server\include\i3Base\tinyxml.h
; File E:\Proyectos\JuegosOnlineproyectos\PB\pbblow\Piercing Blow Remake\i3Server\src\i3Base\tinyxmlparser.cpp
; File E:\Proyectos\JuegosOnlineproyectos\PB\pbblow\Piercing Blow Remake\i3Server\include\i3Base\tinystr.h
; File E:\Proyectos\JuegosOnlineproyectos\PB\pbblow\Piercing Blow Remake\i3Server\src\i3Base\tinyxmlparser.cpp
; File E:\Proyectos\JuegosOnlineproyectos\PB\pbblow\Piercing Blow Remake\i3Server\include\i3Base\tinystr.h
; File E:\Proyectos\JuegosOnlineproyectos\PB\pbblow\Piercing Blow Remake\i3Server\include\i3Base\tinyxml.h
; File E:\Proyectos\JuegosOnlineproyectos\PB\pbblow\Piercing Blow Remake\i3Server\src\i3Base\tinyxmlparser.cpp
;	COMDAT ?Parse@TiXmlElement@@UAEPBDPBDPAVTiXmlParsingData@@W4TiXmlEncoding@@@Z
_TEXT	SEGMENT
$T2 = -24						; size = 4
_pErr$3$ = -24						; size = 4
_p$1$ = -20						; size = 4
tv956 = -20						; size = 4
_pErr$1$ = -20						; size = 4
_this$1$ = -16						; size = 4
__$EHRec$ = -12						; size = 12
_p$ = 8							; size = 4
_endTag$ = 8						; size = 4
_data$ = 12						; size = 4
tv894 = 12						; size = 4
tv897 = 12						; size = 4
_encoding$ = 16						; size = 4
_p$4$ = 16						; size = 4
tv885 = 16						; size = 4
?Parse@TiXmlElement@@UAEPBDPBDPAVTiXmlParsingData@@W4TiXmlEncoding@@@Z PROC ; TiXmlElement::Parse, COMDAT
; _this$ = ecx

; 1054 : {

  00000	55		 push	 ebp
  00001	8b ec		 mov	 ebp, esp
  00003	6a ff		 push	 -1
  00005	68 00 00 00 00	 push	 __ehhandler$?Parse@TiXmlElement@@UAEPBDPBDPAVTiXmlParsingData@@W4TiXmlEncoding@@@Z
  0000a	64 a1 00 00 00
	00		 mov	 eax, DWORD PTR fs:0
  00010	50		 push	 eax
  00011	83 ec 0c	 sub	 esp, 12			; 0000000cH
  00014	53		 push	 ebx
  00015	56		 push	 esi
  00016	57		 push	 edi
  00017	a1 00 00 00 00	 mov	 eax, DWORD PTR ___security_cookie
  0001c	33 c5		 xor	 eax, ebp
  0001e	50		 push	 eax
  0001f	8d 45 f4	 lea	 eax, DWORD PTR __$EHRec$[ebp]
  00022	64 a3 00 00 00
	00		 mov	 DWORD PTR fs:0, eax
  00028	8b f1		 mov	 esi, ecx
  0002a	89 75 f0	 mov	 DWORD PTR _this$1$[ebp], esi

; 1055 : 	p = SkipWhiteSpace( p, encoding );

  0002d	8b 5d 10	 mov	 ebx, DWORD PTR _encoding$[ebp]
  00030	53		 push	 ebx
  00031	ff 75 08	 push	 DWORD PTR _p$[ebp]
  00034	e8 00 00 00 00	 call	 ?SkipWhiteSpace@TiXmlBase@@KAPBDPBDW4TiXmlEncoding@@@Z ; TiXmlBase::SkipWhiteSpace
  00039	83 c4 08	 add	 esp, 8
  0003c	89 45 ec	 mov	 DWORD PTR _p$1$[ebp], eax
; File E:\Proyectos\JuegosOnlineproyectos\PB\pbblow\Piercing Blow Remake\i3Server\include\i3Base\tinyxml.h

; 695  : 		return const_cast< TiXmlDocument* >( (const_cast< const TiXmlNode* >(this))->GetDocument() );

  0003f	8b ce		 mov	 ecx, esi
  00041	e8 00 00 00 00	 call	 ?GetDocument@TiXmlNode@@QBEPBVTiXmlDocument@@XZ ; TiXmlNode::GetDocument
; File E:\Proyectos\JuegosOnlineproyectos\PB\pbblow\Piercing Blow Remake\i3Server\src\i3Base\tinyxmlparser.cpp

; 1056 : 	TiXmlDocument* document = GetDocument();

  00046	8b f0		 mov	 esi, eax

; 1057 : 
; 1058 : 	if ( !p || !*p )

  00048	8b 45 ec	 mov	 eax, DWORD PTR _p$1$[ebp]
  0004b	85 c0		 test	 eax, eax
  0004d	0f 84 11 05 00
	00		 je	 $LN5@Parse
  00053	80 38 00	 cmp	 BYTE PTR [eax], 0
  00056	0f 84 08 05 00
	00		 je	 $LN5@Parse

; 1062 : 	}
; 1063 : 
; 1064 : 	if ( data )

  0005c	8b 7d 0c	 mov	 edi, DWORD PTR _data$[ebp]
  0005f	85 ff		 test	 edi, edi
  00061	74 1a		 je	 SHORT $LN7@Parse

; 1065 : 	{
; 1066 : 		data->Stamp( p, encoding );

  00063	53		 push	 ebx
  00064	50		 push	 eax
  00065	8b cf		 mov	 ecx, edi
  00067	e8 00 00 00 00	 call	 ?Stamp@TiXmlParsingData@@QAEXPBDW4TiXmlEncoding@@@Z ; TiXmlParsingData::Stamp

; 1067 : 		location = data->Cursor();

  0006c	8b 55 f0	 mov	 edx, DWORD PTR _this$1$[ebp]
  0006f	8b 07		 mov	 eax, DWORD PTR [edi]
  00071	8b 4f 04	 mov	 ecx, DWORD PTR [edi+4]
  00074	89 42 04	 mov	 DWORD PTR [edx+4], eax
  00077	8b 45 ec	 mov	 eax, DWORD PTR _p$1$[ebp]
  0007a	89 4a 08	 mov	 DWORD PTR [edx+8], ecx
$LN7@Parse:

; 1068 : 	}
; 1069 : 
; 1070 : 	if ( *p != '<' )

  0007d	80 38 3c	 cmp	 BYTE PTR [eax], 60	; 0000003cH
  00080	74 61		 je	 SHORT $LN8@Parse

; 1071 : 	{
; 1072 : 		if ( document ) document->SetError( TIXML_ERROR_PARSING_ELEMENT, p, data, encoding );

  00082	85 f6		 test	 esi, esi
  00084	0f 84 1b 05 00
	00		 je	 $LN56@Parse

; 805  : 	if ( error )

  0008a	80 7e 2c 00	 cmp	 BYTE PTR [esi+44], 0
  0008e	0f 85 11 05 00
	00		 jne	 $LN56@Parse

; 806  : 		return;
; 807  : 
; 808  : 	I3ASSERT( err > 0 && err < TIXML_ERROR_STRING_COUNT );
; 809  : 	error   = true;

  00094	c6 46 2c 01	 mov	 BYTE PTR [esi+44], 1

; 810  : 	errorId = err;

  00098	c7 46 30 04 00
	00 00		 mov	 DWORD PTR [esi+48], 4

; 811  : 	errorDesc = errorString[ errorId ];

  0009f	8b 15 10 00 00
	00		 mov	 edx, DWORD PTR ?errorString@TiXmlBase@@1PAPBDA+16
; File E:\Proyectos\JuegosOnlineproyectos\PB\pbblow\Piercing Blow Remake\i3Server\include\i3Base\tinystr.h

; 114  : 		return assign( copy, (size_type)strlen(copy));

  000a5	8b ca		 mov	 ecx, edx
  000a7	8d 41 01	 lea	 eax, DWORD PTR [ecx+1]
  000aa	89 45 10	 mov	 DWORD PTR tv885[ebp], eax
  000ad	8d 49 00	 npad	 3
$LL282@Parse:
  000b0	8a 01		 mov	 al, BYTE PTR [ecx]
  000b2	41		 inc	 ecx
  000b3	84 c0		 test	 al, al
  000b5	75 f9		 jne	 SHORT $LL282@Parse
  000b7	2b 4d 10	 sub	 ecx, DWORD PTR tv885[ebp]
  000ba	51		 push	 ecx
  000bb	52		 push	 edx
; File E:\Proyectos\JuegosOnlineproyectos\PB\pbblow\Piercing Blow Remake\i3Server\src\i3Base\tinyxmlparser.cpp

; 811  : 	errorDesc = errorString[ errorId ];

  000bc	8d 4e 34	 lea	 ecx, DWORD PTR [esi+52]
; File E:\Proyectos\JuegosOnlineproyectos\PB\pbblow\Piercing Blow Remake\i3Server\include\i3Base\tinystr.h

; 114  : 		return assign( copy, (size_type)strlen(copy));

  000bf	e8 00 00 00 00	 call	 ?assign@TiXmlString@@QAEAAV1@PBDI@Z ; TiXmlString::assign
; File E:\Proyectos\JuegosOnlineproyectos\PB\pbblow\Piercing Blow Remake\i3Server\include\i3Base\tinyxml.h

; 107  : 	void Clear()		{ row = col = -1; }

  000c4	c7 46 40 ff ff
	ff ff		 mov	 DWORD PTR [esi+64], -1
  000cb	c7 46 3c ff ff
	ff ff		 mov	 DWORD PTR [esi+60], -1
; File E:\Proyectos\JuegosOnlineproyectos\PB\pbblow\Piercing Blow Remake\i3Server\src\i3Base\tinyxmlparser.cpp

; 814  : 	if ( pError && data )

  000d2	85 ff		 test	 edi, edi
  000d4	0f 84 cb 04 00
	00		 je	 $LN56@Parse

; 815  : 	{
; 816  : 		data->Stamp( pError, encoding );

  000da	8b 45 ec	 mov	 eax, DWORD PTR _p$1$[ebp]
  000dd	53		 push	 ebx
  000de	e9 6c 04 00 00	 jmp	 $LN298@Parse
$LN8@Parse:

; 1073 : 		return 0;
; 1074 : 	}
; 1075 : 
; 1076 : 	p = SkipWhiteSpace( p+1, encoding );

  000e3	40		 inc	 eax
  000e4	53		 push	 ebx
  000e5	50		 push	 eax
  000e6	e8 00 00 00 00	 call	 ?SkipWhiteSpace@TiXmlBase@@KAPBDPBDW4TiXmlEncoding@@@Z ; TiXmlBase::SkipWhiteSpace
  000eb	8b c8		 mov	 ecx, eax

; 1077 : 
; 1078 : 	// Read the name.
; 1079 : 	const char* pErr = p;
; 1080 : 
; 1081 :     p = ReadName( p, &value, encoding );

  000ed	8b 45 f0	 mov	 eax, DWORD PTR _this$1$[ebp]
  000f0	83 c0 20	 add	 eax, 32			; 00000020H
  000f3	89 4d e8	 mov	 DWORD PTR _pErr$3$[ebp], ecx
  000f6	53		 push	 ebx
  000f7	50		 push	 eax
  000f8	51		 push	 ecx
  000f9	89 45 ec	 mov	 DWORD PTR tv956[ebp], eax
  000fc	e8 00 00 00 00	 call	 ?ReadName@TiXmlBase@@KAPBDPBDPAVTiXmlString@@W4TiXmlEncoding@@@Z ; TiXmlBase::ReadName
  00101	8b d8		 mov	 ebx, eax
  00103	83 c4 14	 add	 esp, 20			; 00000014H

; 1082 : 	if ( !p || !*p )

  00106	85 db		 test	 ebx, ebx
  00108	0f 84 e5 03 00
	00		 je	 $LN11@Parse
  0010e	80 3b 00	 cmp	 BYTE PTR [ebx], 0
  00111	0f 84 dc 03 00
	00		 je	 $LN11@Parse

; 1088 :     TIXML_STRING endTag ("</");

  00117	68 00 00 00 00	 push	 OFFSET ??_C@_02DPNDACHE@?$DM?1@
  0011c	8d 4d 08	 lea	 ecx, DWORD PTR _endTag$[ebp]
  0011f	e8 00 00 00 00	 call	 ??0TiXmlString@@QAE@PBD@Z ; TiXmlString::TiXmlString
; File E:\Proyectos\JuegosOnlineproyectos\PB\pbblow\Piercing Blow Remake\i3Server\include\i3Base\tinystr.h

; 150  : 	size_type length () const { return rep_->size; }

  00124	8b 45 ec	 mov	 eax, DWORD PTR tv956[ebp]

; 139  : 		return append(suffix.data(), suffix.length());

  00127	8d 4d 08	 lea	 ecx, DWORD PTR _endTag$[ebp]
; File E:\Proyectos\JuegosOnlineproyectos\PB\pbblow\Piercing Blow Remake\i3Server\src\i3Base\tinyxmlparser.cpp

; 1088 :     TIXML_STRING endTag ("</");

  0012a	c7 45 fc 00 00
	00 00		 mov	 DWORD PTR __$EHRec$[ebp+8], 0
; File E:\Proyectos\JuegosOnlineproyectos\PB\pbblow\Piercing Blow Remake\i3Server\include\i3Base\tinystr.h

; 150  : 	size_type length () const { return rep_->size; }

  00131	8b 00		 mov	 eax, DWORD PTR [eax]

; 139  : 		return append(suffix.data(), suffix.length());

  00133	ff 30		 push	 DWORD PTR [eax]

; 147  : 	const char * data () const { return rep_->str; }

  00135	83 c0 08	 add	 eax, 8

; 139  : 		return append(suffix.data(), suffix.length());

  00138	50		 push	 eax
  00139	e8 00 00 00 00	 call	 ?append@TiXmlString@@QAEAAV1@PBDI@Z ; TiXmlString::append

; 127  : 		return append(suffix, static_cast<size_type>( strlen(suffix) ));

  0013e	6a 01		 push	 1
  00140	68 00 00 00 00	 push	 OFFSET ??_C@_01PPODPGHN@?$DO@
  00145	8d 4d 08	 lea	 ecx, DWORD PTR _endTag$[ebp]
  00148	e8 00 00 00 00	 call	 ?append@TiXmlString@@QAEAAV1@PBDI@Z ; TiXmlString::append
  0014d	8d 49 00	 npad	 3
$LL2@Parse:
; File E:\Proyectos\JuegosOnlineproyectos\PB\pbblow\Piercing Blow Remake\i3Server\src\i3Base\tinyxmlparser.cpp

; 1094 : 	while ( p && *p )

  00150	80 3b 00	 cmp	 BYTE PTR [ebx], 0
  00153	0f 84 70 03 00
	00		 je	 $LN51@Parse

; 1095 : 	{
; 1096 : 		pErr = p;
; 1097 : 		p = SkipWhiteSpace( p, encoding );

  00159	ff 75 10	 push	 DWORD PTR _encoding$[ebp]
  0015c	53		 push	 ebx
  0015d	e8 00 00 00 00	 call	 ?SkipWhiteSpace@TiXmlBase@@KAPBDPBDW4TiXmlEncoding@@@Z ; TiXmlBase::SkipWhiteSpace
  00162	83 c4 08	 add	 esp, 8
  00165	89 45 ec	 mov	 DWORD PTR _pErr$1$[ebp], eax

; 1098 : 		if ( !p || !*p )

  00168	85 c0		 test	 eax, eax
  0016a	0f 84 f5 02 00
	00		 je	 $LN14@Parse
  00170	8a 08		 mov	 cl, BYTE PTR [eax]
  00172	84 c9		 test	 cl, cl
  00174	0f 84 eb 02 00
	00		 je	 $LN14@Parse

; 1101 : 			return 0;
; 1102 : 		}
; 1103 : 		if ( *p == '/' )

  0017a	80 f9 2f	 cmp	 cl, 47			; 0000002fH
  0017d	0f 84 79 02 00
	00		 je	 $LN266@Parse

; 1113 : 		}
; 1114 : 		else if ( *p == '>' )

  00183	80 f9 3e	 cmp	 cl, 62			; 0000003eH
  00186	0f 84 56 01 00
	00		 je	 $LN267@Parse

; 1138 : 			}
; 1139 : 		}
; 1140 : 		else
; 1141 : 		{
; 1142 : 			// Try to read an attribute:
; 1143 : 			TiXmlAttribute* attrib = new TiXmlAttribute();

  0018c	6a 24		 push	 36			; 00000024H
  0018e	e8 00 00 00 00	 call	 ??2@YAPAXI@Z		; operator new
  00193	8b f8		 mov	 edi, eax
  00195	83 c4 04	 add	 esp, 4
  00198	89 7d e8	 mov	 DWORD PTR $T2[ebp], edi
  0019b	85 ff		 test	 edi, edi
  0019d	0f 84 0b 01 00
	00		 je	 $LN268@Parse

; 1152 : 			p = attrib->Parse( p, data, encoding );

  001a3	ff 75 10	 push	 DWORD PTR _encoding$[ebp]
; File E:\Proyectos\JuegosOnlineproyectos\PB\pbblow\Piercing Blow Remake\i3Server\include\i3Base\tinyxml.h

; 107  : 	void Clear()		{ row = col = -1; }

  001a6	c7 47 08 ff ff
	ff ff		 mov	 DWORD PTR [edi+8], -1
; File E:\Proyectos\JuegosOnlineproyectos\PB\pbblow\Piercing Blow Remake\i3Server\src\i3Base\tinyxmlparser.cpp

; 1152 : 			p = attrib->Parse( p, data, encoding );

  001ad	8b cf		 mov	 ecx, edi
  001af	ff 75 0c	 push	 DWORD PTR _data$[ebp]
; File E:\Proyectos\JuegosOnlineproyectos\PB\pbblow\Piercing Blow Remake\i3Server\include\i3Base\tinyxml.h

; 107  : 	void Clear()		{ row = col = -1; }

  001b2	c7 47 04 ff ff
	ff ff		 mov	 DWORD PTR [edi+4], -1
; File E:\Proyectos\JuegosOnlineproyectos\PB\pbblow\Piercing Blow Remake\i3Server\src\i3Base\tinyxmlparser.cpp

; 1152 : 			p = attrib->Parse( p, data, encoding );

  001b9	ff 75 ec	 push	 DWORD PTR _pErr$1$[ebp]
; File E:\Proyectos\JuegosOnlineproyectos\PB\pbblow\Piercing Blow Remake\i3Server\include\i3Base\tinyxml.h

; 205  : 	TiXmlBase()	:	userData(0)		{}

  001bc	c7 47 0c 00 00
	00 00		 mov	 DWORD PTR [edi+12], 0

; 790  : 	{

  001c3	c7 07 00 00 00
	00		 mov	 DWORD PTR [edi], OFFSET ??_7TiXmlAttribute@@6B@
; File E:\Proyectos\JuegosOnlineproyectos\PB\pbblow\Piercing Blow Remake\i3Server\include\i3Base\tinystr.h

; 80   : 	TiXmlString () : rep_(&nullrep_)

  001c9	c7 47 14 00 00
	00 00		 mov	 DWORD PTR [edi+20], OFFSET ?nullrep_@TiXmlString@@0URep@1@A ; TiXmlString::nullrep_
  001d0	c7 47 18 00 00
	00 00		 mov	 DWORD PTR [edi+24], OFFSET ?nullrep_@TiXmlString@@0URep@1@A ; TiXmlString::nullrep_
; File E:\Proyectos\JuegosOnlineproyectos\PB\pbblow\Piercing Blow Remake\i3Server\include\i3Base\tinyxml.h

; 791  : 		document = 0;

  001d7	c7 47 10 00 00
	00 00		 mov	 DWORD PTR [edi+16], 0

; 792  : 		prev = next = 0;

  001de	c7 47 20 00 00
	00 00		 mov	 DWORD PTR [edi+32], 0
  001e5	c7 47 1c 00 00
	00 00		 mov	 DWORD PTR [edi+28], 0
; File E:\Proyectos\JuegosOnlineproyectos\PB\pbblow\Piercing Blow Remake\i3Server\src\i3Base\tinyxmlparser.cpp

; 1152 : 			p = attrib->Parse( p, data, encoding );

  001ec	8b 07		 mov	 eax, DWORD PTR [edi]
  001ee	89 77 10	 mov	 DWORD PTR [edi+16], esi
  001f1	ff 50 08	 call	 DWORD PTR [eax+8]
  001f4	8b d8		 mov	 ebx, eax

; 1153 : 
; 1154 : 			if ( !p || !*p )

  001f6	85 db		 test	 ebx, ebx
  001f8	74 47		 je	 SHORT $LN31@Parse
  001fa	80 3b 00	 cmp	 BYTE PTR [ebx], 0
  001fd	74 42		 je	 SHORT $LN31@Parse
; File E:\Proyectos\JuegosOnlineproyectos\PB\pbblow\Piercing Blow Remake\i3Server\include\i3Base\tinystr.h

; 144  : 	const char * c_str () const { return rep_->str; }

  001ff	8b 47 14	 mov	 eax, DWORD PTR [edi+20]
; File E:\Proyectos\JuegosOnlineproyectos\PB\pbblow\Piercing Blow Remake\i3Server\src\i3Base\tinyxmlparser.cpp

; 1165 : 			TiXmlAttribute* node = attributeSet.Find( attrib->Name() );

  00202	8b 4d f0	 mov	 ecx, DWORD PTR _this$1$[ebp]
; File E:\Proyectos\JuegosOnlineproyectos\PB\pbblow\Piercing Blow Remake\i3Server\include\i3Base\tinystr.h

; 144  : 	const char * c_str () const { return rep_->str; }

  00205	83 c0 08	 add	 eax, 8
; File E:\Proyectos\JuegosOnlineproyectos\PB\pbblow\Piercing Blow Remake\i3Server\src\i3Base\tinyxmlparser.cpp

; 1165 : 			TiXmlAttribute* node = attributeSet.Find( attrib->Name() );

  00208	83 c1 2c	 add	 ecx, 44			; 0000002cH
; File E:\Proyectos\JuegosOnlineproyectos\PB\pbblow\Piercing Blow Remake\i3Server\include\i3Base\tinyxml.h

; 923  : 		return const_cast< TiXmlAttribute* >( (const_cast< const TiXmlAttributeSet* >(this))->Find( _name ) );

  0020b	50		 push	 eax
  0020c	e8 00 00 00 00	 call	 ?Find@TiXmlAttributeSet@@QBEPBVTiXmlAttribute@@PBD@Z ; TiXmlAttributeSet::Find
; File E:\Proyectos\JuegosOnlineproyectos\PB\pbblow\Piercing Blow Remake\i3Server\src\i3Base\tinyxmlparser.cpp

; 1165 : 			TiXmlAttribute* node = attributeSet.Find( attrib->Name() );

  00211	8b c8		 mov	 ecx, eax

; 1166 : 			#endif
; 1167 : 			if ( node )

  00213	85 c9		 test	 ecx, ecx
  00215	75 11		 jne	 SHORT $LN270@Parse

; 1172 : 			}
; 1173 : 
; 1174 : 			attributeSet.Add( attrib );

  00217	8b 4d f0	 mov	 ecx, DWORD PTR _this$1$[ebp]
  0021a	57		 push	 edi
  0021b	8d 49 2c	 lea	 ecx, DWORD PTR [ecx+44]
  0021e	e8 00 00 00 00	 call	 ?Add@TiXmlAttributeSet@@QAEXPAVTiXmlAttribute@@@Z ; TiXmlAttributeSet::Add
  00223	e9 28 ff ff ff	 jmp	 $LL2@Parse
$LN270@Parse:
; File E:\Proyectos\JuegosOnlineproyectos\PB\pbblow\Piercing Blow Remake\i3Server\include\i3Base\tinystr.h

; 144  : 	const char * c_str () const { return rep_->str; }

  00228	8b 47 18	 mov	 eax, DWORD PTR [edi+24]
  0022b	83 c0 08	 add	 eax, 8
; File E:\Proyectos\JuegosOnlineproyectos\PB\pbblow\Piercing Blow Remake\i3Server\src\i3Base\tinyxmlparser.cpp

; 1169 : 				node->SetValue( attrib->Value() );

  0022e	50		 push	 eax
  0022f	e8 00 00 00 00	 call	 ?SetValue@TiXmlAttribute@@QAEXPBD@Z ; TiXmlAttribute::SetValue

; 1170 : 				delete attrib;

  00234	8b 07		 mov	 eax, DWORD PTR [edi]
  00236	8b cf		 mov	 ecx, edi
  00238	6a 01		 push	 1
  0023a	ff 10		 call	 DWORD PTR [eax]

; 1171 : 				return 0;

  0023c	e9 86 02 00 00	 jmp	 $LN120@Parse
$LN31@Parse:

; 1155 : 			{
; 1156 : 				if ( document ) document->SetError( TIXML_ERROR_PARSING_ELEMENT, pErr, data, encoding );

  00241	85 f6		 test	 esi, esi
  00243	74 5c		 je	 SHORT $LN130@Parse

; 805  : 	if ( error )

  00245	80 7e 2c 00	 cmp	 BYTE PTR [esi+44], 0
  00249	75 56		 jne	 SHORT $LN130@Parse

; 806  : 		return;
; 807  : 
; 808  : 	I3ASSERT( err > 0 && err < TIXML_ERROR_STRING_COUNT );
; 809  : 	error   = true;

  0024b	c6 46 2c 01	 mov	 BYTE PTR [esi+44], 1

; 810  : 	errorId = err;

  0024f	c7 46 30 04 00
	00 00		 mov	 DWORD PTR [esi+48], 4

; 811  : 	errorDesc = errorString[ errorId ];

  00256	8b 15 10 00 00
	00		 mov	 edx, DWORD PTR ?errorString@TiXmlBase@@1PAPBDA+16
; File E:\Proyectos\JuegosOnlineproyectos\PB\pbblow\Piercing Blow Remake\i3Server\include\i3Base\tinystr.h

; 114  : 		return assign( copy, (size_type)strlen(copy));

  0025c	8b ca		 mov	 ecx, edx
  0025e	8d 59 01	 lea	 ebx, DWORD PTR [ecx+1]
$LL283@Parse:
  00261	8a 01		 mov	 al, BYTE PTR [ecx]
  00263	41		 inc	 ecx
  00264	84 c0		 test	 al, al
  00266	75 f9		 jne	 SHORT $LL283@Parse
  00268	2b cb		 sub	 ecx, ebx
  0026a	51		 push	 ecx
  0026b	52		 push	 edx
; File E:\Proyectos\JuegosOnlineproyectos\PB\pbblow\Piercing Blow Remake\i3Server\src\i3Base\tinyxmlparser.cpp

; 811  : 	errorDesc = errorString[ errorId ];

  0026c	8d 4e 34	 lea	 ecx, DWORD PTR [esi+52]
; File E:\Proyectos\JuegosOnlineproyectos\PB\pbblow\Piercing Blow Remake\i3Server\include\i3Base\tinystr.h

; 114  : 		return assign( copy, (size_type)strlen(copy));

  0026f	e8 00 00 00 00	 call	 ?assign@TiXmlString@@QAEAAV1@PBDI@Z ; TiXmlString::assign
; File E:\Proyectos\JuegosOnlineproyectos\PB\pbblow\Piercing Blow Remake\i3Server\src\i3Base\tinyxmlparser.cpp

; 814  : 	if ( pError && data )

  00274	8b 5d 0c	 mov	 ebx, DWORD PTR _data$[ebp]
; File E:\Proyectos\JuegosOnlineproyectos\PB\pbblow\Piercing Blow Remake\i3Server\include\i3Base\tinyxml.h

; 107  : 	void Clear()		{ row = col = -1; }

  00277	c7 46 40 ff ff
	ff ff		 mov	 DWORD PTR [esi+64], -1
  0027e	c7 46 3c ff ff
	ff ff		 mov	 DWORD PTR [esi+60], -1
; File E:\Proyectos\JuegosOnlineproyectos\PB\pbblow\Piercing Blow Remake\i3Server\src\i3Base\tinyxmlparser.cpp

; 814  : 	if ( pError && data )

  00285	85 db		 test	 ebx, ebx
  00287	74 18		 je	 SHORT $LN130@Parse

; 815  : 	{
; 816  : 		data->Stamp( pError, encoding );

  00289	ff 75 10	 push	 DWORD PTR _encoding$[ebp]
  0028c	8b cb		 mov	 ecx, ebx
  0028e	ff 75 ec	 push	 DWORD PTR _pErr$1$[ebp]
  00291	e8 00 00 00 00	 call	 ?Stamp@TiXmlParsingData@@QAEXPBDW4TiXmlEncoding@@@Z ; TiXmlParsingData::Stamp

; 817  : 		errorLocation = data->Cursor();

  00296	8b 03		 mov	 eax, DWORD PTR [ebx]
  00298	8b 4b 04	 mov	 ecx, DWORD PTR [ebx+4]
  0029b	89 46 3c	 mov	 DWORD PTR [esi+60], eax
  0029e	89 4e 40	 mov	 DWORD PTR [esi+64], ecx
$LN130@Parse:

; 1157 : 				delete attrib;

  002a1	8b 07		 mov	 eax, DWORD PTR [edi]
  002a3	8b cf		 mov	 ecx, edi
  002a5	6a 01		 push	 1
  002a7	ff 10		 call	 DWORD PTR [eax]

; 1158 : 				return 0;

  002a9	e9 19 02 00 00	 jmp	 $LN120@Parse
$LN268@Parse:

; 1144 : 			if ( !attrib )
; 1145 : 			{
; 1146 : 				if ( document ) document->SetError( TIXML_ERROR_OUT_OF_MEMORY, pErr, data, encoding );

  002ae	85 f6		 test	 esi, esi
  002b0	0f 84 11 02 00
	00		 je	 $LN120@Parse

; 805  : 	if ( error )

  002b6	80 7e 2c 00	 cmp	 BYTE PTR [esi+44], 0
  002ba	0f 85 07 02 00
	00		 jne	 $LN120@Parse

; 806  : 		return;
; 807  : 
; 808  : 	I3ASSERT( err > 0 && err < TIXML_ERROR_STRING_COUNT );
; 809  : 	error   = true;

  002c0	c6 46 2c 01	 mov	 BYTE PTR [esi+44], 1

; 810  : 	errorId = err;

  002c4	c7 46 30 03 00
	00 00		 mov	 DWORD PTR [esi+48], 3

; 811  : 	errorDesc = errorString[ errorId ];

  002cb	8b 15 0c 00 00
	00		 mov	 edx, DWORD PTR ?errorString@TiXmlBase@@1PAPBDA+12
; File E:\Proyectos\JuegosOnlineproyectos\PB\pbblow\Piercing Blow Remake\i3Server\include\i3Base\tinystr.h

; 114  : 		return assign( copy, (size_type)strlen(copy));

  002d1	8b ca		 mov	 ecx, edx
  002d3	8d 79 01	 lea	 edi, DWORD PTR [ecx+1]
$LL284@Parse:
  002d6	8a 01		 mov	 al, BYTE PTR [ecx]
  002d8	41		 inc	 ecx
  002d9	84 c0		 test	 al, al
  002db	75 f9		 jne	 SHORT $LL284@Parse
; File E:\Proyectos\JuegosOnlineproyectos\PB\pbblow\Piercing Blow Remake\i3Server\src\i3Base\tinyxmlparser.cpp

; 1147 : 				return 0;

  002dd	e9 aa 01 00 00	 jmp	 $LN296@Parse
$LN267@Parse:

; 1115 : 		{
; 1116 : 			// Done with attributes (if there were any.)
; 1117 : 			// Read the value -- which can include other
; 1118 : 			// elements -- read the end tag, and return.
; 1119 : 			++p;
; 1120 : 			p = ReadValue( p, data, encoding );		// Note this is an Element method, and will set the error if one happens.

  002e2	8b 5d 10	 mov	 ebx, DWORD PTR _encoding$[ebp]
  002e5	40		 inc	 eax
  002e6	8b 7d 0c	 mov	 edi, DWORD PTR _data$[ebp]
  002e9	8b 4d f0	 mov	 ecx, DWORD PTR _this$1$[ebp]
  002ec	53		 push	 ebx
  002ed	57		 push	 edi
  002ee	50		 push	 eax
  002ef	e8 00 00 00 00	 call	 ?ReadValue@TiXmlElement@@IAEPBDPBDPAVTiXmlParsingData@@W4TiXmlEncoding@@@Z ; TiXmlElement::ReadValue
  002f4	89 45 10	 mov	 DWORD PTR _p$4$[ebp], eax

; 1121 : 			if ( !p || !*p ) {

  002f7	85 c0		 test	 eax, eax
  002f9	0f 84 93 00 00
	00		 je	 $LN23@Parse
  002ff	80 38 00	 cmp	 BYTE PTR [eax], 0
  00302	0f 84 8a 00 00
	00		 je	 $LN23@Parse
; File E:\Proyectos\JuegosOnlineproyectos\PB\pbblow\Piercing Blow Remake\i3Server\include\i3Base\tinystr.h

; 144  : 	const char * c_str () const { return rep_->str; }

  00308	8b 4d 08	 mov	 ecx, DWORD PTR _endTag$[ebp]
  0030b	83 c1 08	 add	 ecx, 8
  0030e	8b ff		 npad	 2
$LL177@Parse:
; File E:\Proyectos\JuegosOnlineproyectos\PB\pbblow\Piercing Blow Remake\i3Server\src\i3Base\tinyxmlparser.cpp

; 566  : 		while ( *q && *tag && *q == *tag )

  00310	8a 11		 mov	 dl, BYTE PTR [ecx]
  00312	84 d2		 test	 dl, dl
  00314	74 6f		 je	 SHORT $LN280@Parse
  00316	38 10		 cmp	 BYTE PTR [eax], dl
  00318	75 07		 jne	 SHORT $LN178@Parse

; 567  : 		{
; 568  : 			++q;

  0031a	40		 inc	 eax

; 569  : 			++tag;

  0031b	41		 inc	 ecx
  0031c	80 38 00	 cmp	 BYTE PTR [eax], 0
  0031f	75 ef		 jne	 SHORT $LL177@Parse
$LN178@Parse:

; 570  : 		}
; 571  : 
; 572  : 		if ( *tag == 0 )		// Have we found the end of the tag, and everything equal?

  00321	80 39 00	 cmp	 BYTE PTR [ecx], 0
  00324	74 5f		 je	 SHORT $LN280@Parse

; 1133 : 			}
; 1134 : 			else
; 1135 : 			{
; 1136 : 				if ( document ) document->SetError( TIXML_ERROR_READING_END_TAG, p, data, encoding );

  00326	85 f6		 test	 esi, esi
  00328	0f 84 99 01 00
	00		 je	 $LN120@Parse

; 805  : 	if ( error )

  0032e	80 7e 2c 00	 cmp	 BYTE PTR [esi+44], 0
  00332	0f 85 8f 01 00
	00		 jne	 $LN120@Parse

; 806  : 		return;
; 807  : 
; 808  : 	I3ASSERT( err > 0 && err < TIXML_ERROR_STRING_COUNT );
; 809  : 	error   = true;

  00338	c6 46 2c 01	 mov	 BYTE PTR [esi+44], 1

; 810  : 	errorId = err;

  0033c	c7 46 30 09 00
	00 00		 mov	 DWORD PTR [esi+48], 9

; 811  : 	errorDesc = errorString[ errorId ];

  00343	8b 15 24 00 00
	00		 mov	 edx, DWORD PTR ?errorString@TiXmlBase@@1PAPBDA+36
; File E:\Proyectos\JuegosOnlineproyectos\PB\pbblow\Piercing Blow Remake\i3Server\include\i3Base\tinystr.h

; 114  : 		return assign( copy, (size_type)strlen(copy));

  00349	8b ca		 mov	 ecx, edx
  0034b	8d 41 01	 lea	 eax, DWORD PTR [ecx+1]
  0034e	89 45 0c	 mov	 DWORD PTR tv894[ebp], eax
$LL285@Parse:
  00351	8a 01		 mov	 al, BYTE PTR [ecx]
  00353	41		 inc	 ecx
  00354	84 c0		 test	 al, al
  00356	75 f9		 jne	 SHORT $LL285@Parse
  00358	2b 4d 0c	 sub	 ecx, DWORD PTR tv894[ebp]
  0035b	51		 push	 ecx
  0035c	52		 push	 edx
; File E:\Proyectos\JuegosOnlineproyectos\PB\pbblow\Piercing Blow Remake\i3Server\src\i3Base\tinyxmlparser.cpp

; 811  : 	errorDesc = errorString[ errorId ];

  0035d	8d 4e 34	 lea	 ecx, DWORD PTR [esi+52]
; File E:\Proyectos\JuegosOnlineproyectos\PB\pbblow\Piercing Blow Remake\i3Server\include\i3Base\tinystr.h

; 114  : 		return assign( copy, (size_type)strlen(copy));

  00360	e8 00 00 00 00	 call	 ?assign@TiXmlString@@QAEAAV1@PBDI@Z ; TiXmlString::assign
; File E:\Proyectos\JuegosOnlineproyectos\PB\pbblow\Piercing Blow Remake\i3Server\include\i3Base\tinyxml.h

; 107  : 	void Clear()		{ row = col = -1; }

  00365	c7 46 40 ff ff
	ff ff		 mov	 DWORD PTR [esi+64], -1
  0036c	c7 46 3c ff ff
	ff ff		 mov	 DWORD PTR [esi+60], -1
; File E:\Proyectos\JuegosOnlineproyectos\PB\pbblow\Piercing Blow Remake\i3Server\src\i3Base\tinyxmlparser.cpp

; 814  : 	if ( pError && data )

  00373	85 ff		 test	 edi, edi
  00375	0f 84 4c 01 00
	00		 je	 $LN120@Parse

; 815  : 	{
; 816  : 		data->Stamp( pError, encoding );

  0037b	8b 45 10	 mov	 eax, DWORD PTR _p$4$[ebp]
  0037e	53		 push	 ebx
  0037f	50		 push	 eax

; 1137 : 				return 0;

  00380	e9 30 01 00 00	 jmp	 $LN297@Parse
$LN280@Parse:

; 1126 : 			}
; 1127 : 
; 1128 : 			// We should find the end tag now
; 1129 : 			if ( StringEqual( p, endTag.c_str(), false, encoding ) )
; 1130 : 			{
; 1131 : 				p += endTag.length();

  00385	8b 45 08	 mov	 eax, DWORD PTR _endTag$[ebp]
  00388	8b 18		 mov	 ebx, DWORD PTR [eax]
  0038a	03 5d 10	 add	 ebx, DWORD PTR _p$4$[ebp]

; 1132 : 				return p;

  0038d	e9 37 01 00 00	 jmp	 $LN51@Parse
$LN23@Parse:

; 1122 : 				// We were looking for the end tag, but found nothing.
; 1123 : 				// Fix for [ 1663758 ] Failure to report error on bad XML
; 1124 : 				if ( document ) document->SetError( TIXML_ERROR_READING_END_TAG, p, data, encoding );

  00392	85 f6		 test	 esi, esi
  00394	0f 84 2d 01 00
	00		 je	 $LN120@Parse

; 805  : 	if ( error )

  0039a	80 7e 2c 00	 cmp	 BYTE PTR [esi+44], 0
  0039e	0f 85 23 01 00
	00		 jne	 $LN120@Parse

; 806  : 		return;
; 807  : 
; 808  : 	I3ASSERT( err > 0 && err < TIXML_ERROR_STRING_COUNT );
; 809  : 	error   = true;

  003a4	c6 46 2c 01	 mov	 BYTE PTR [esi+44], 1

; 810  : 	errorId = err;

  003a8	c7 46 30 09 00
	00 00		 mov	 DWORD PTR [esi+48], 9

; 811  : 	errorDesc = errorString[ errorId ];

  003af	8b 15 24 00 00
	00		 mov	 edx, DWORD PTR ?errorString@TiXmlBase@@1PAPBDA+36
; File E:\Proyectos\JuegosOnlineproyectos\PB\pbblow\Piercing Blow Remake\i3Server\include\i3Base\tinystr.h

; 114  : 		return assign( copy, (size_type)strlen(copy));

  003b5	8b ca		 mov	 ecx, edx
  003b7	8d 41 01	 lea	 eax, DWORD PTR [ecx+1]
  003ba	89 45 0c	 mov	 DWORD PTR tv897[ebp], eax
  003bd	8d 49 00	 npad	 3
$LL286@Parse:
  003c0	8a 01		 mov	 al, BYTE PTR [ecx]
  003c2	41		 inc	 ecx
  003c3	84 c0		 test	 al, al
  003c5	75 f9		 jne	 SHORT $LL286@Parse
  003c7	2b 4d 0c	 sub	 ecx, DWORD PTR tv897[ebp]
  003ca	51		 push	 ecx
  003cb	52		 push	 edx
; File E:\Proyectos\JuegosOnlineproyectos\PB\pbblow\Piercing Blow Remake\i3Server\src\i3Base\tinyxmlparser.cpp

; 811  : 	errorDesc = errorString[ errorId ];

  003cc	8d 4e 34	 lea	 ecx, DWORD PTR [esi+52]
; File E:\Proyectos\JuegosOnlineproyectos\PB\pbblow\Piercing Blow Remake\i3Server\include\i3Base\tinystr.h

; 114  : 		return assign( copy, (size_type)strlen(copy));

  003cf	e8 00 00 00 00	 call	 ?assign@TiXmlString@@QAEAAV1@PBDI@Z ; TiXmlString::assign
; File E:\Proyectos\JuegosOnlineproyectos\PB\pbblow\Piercing Blow Remake\i3Server\src\i3Base\tinyxmlparser.cpp

; 814  : 	if ( pError && data )

  003d4	8b 45 10	 mov	 eax, DWORD PTR _p$4$[ebp]
; File E:\Proyectos\JuegosOnlineproyectos\PB\pbblow\Piercing Blow Remake\i3Server\include\i3Base\tinyxml.h

; 107  : 	void Clear()		{ row = col = -1; }

  003d7	c7 46 40 ff ff
	ff ff		 mov	 DWORD PTR [esi+64], -1
  003de	c7 46 3c ff ff
	ff ff		 mov	 DWORD PTR [esi+60], -1
; File E:\Proyectos\JuegosOnlineproyectos\PB\pbblow\Piercing Blow Remake\i3Server\src\i3Base\tinyxmlparser.cpp

; 814  : 	if ( pError && data )

  003e5	85 c0		 test	 eax, eax
  003e7	0f 84 da 00 00
	00		 je	 $LN120@Parse
  003ed	85 ff		 test	 edi, edi
  003ef	0f 84 d2 00 00
	00		 je	 $LN120@Parse

; 815  : 	{
; 816  : 		data->Stamp( pError, encoding );

  003f5	53		 push	 ebx
  003f6	50		 push	 eax

; 1125 : 				return 0;

  003f7	e9 b9 00 00 00	 jmp	 $LN297@Parse
$LN266@Parse:

; 1104 : 		{
; 1105 : 			++p;

  003fc	40		 inc	 eax
  003fd	89 45 ec	 mov	 DWORD PTR _pErr$1$[ebp], eax

; 1106 : 			// Empty tag.
; 1107 : 			if ( *p  != '>' )

  00400	80 38 3e	 cmp	 BYTE PTR [eax], 62	; 0000003eH
  00403	74 5b		 je	 SHORT $LN18@Parse

; 1108 : 			{
; 1109 : 				if ( document ) document->SetError( TIXML_ERROR_PARSING_EMPTY, p, data, encoding );		

  00405	85 f6		 test	 esi, esi
  00407	0f 84 ba 00 00
	00		 je	 $LN120@Parse

; 805  : 	if ( error )

  0040d	80 7e 2c 00	 cmp	 BYTE PTR [esi+44], 0
  00411	0f 85 b0 00 00
	00		 jne	 $LN120@Parse

; 806  : 		return;
; 807  : 
; 808  : 	I3ASSERT( err > 0 && err < TIXML_ERROR_STRING_COUNT );
; 809  : 	error   = true;

  00417	c6 46 2c 01	 mov	 BYTE PTR [esi+44], 1

; 810  : 	errorId = err;

  0041b	c7 46 30 08 00
	00 00		 mov	 DWORD PTR [esi+48], 8

; 811  : 	errorDesc = errorString[ errorId ];

  00422	8b 15 20 00 00
	00		 mov	 edx, DWORD PTR ?errorString@TiXmlBase@@1PAPBDA+32
; File E:\Proyectos\JuegosOnlineproyectos\PB\pbblow\Piercing Blow Remake\i3Server\include\i3Base\tinystr.h

; 114  : 		return assign( copy, (size_type)strlen(copy));

  00428	8b ca		 mov	 ecx, edx
  0042a	8d 79 01	 lea	 edi, DWORD PTR [ecx+1]
  0042d	8d 49 00	 npad	 3
$LL287@Parse:
  00430	8a 01		 mov	 al, BYTE PTR [ecx]
  00432	41		 inc	 ecx
  00433	84 c0		 test	 al, al
  00435	75 f9		 jne	 SHORT $LL287@Parse
  00437	2b cf		 sub	 ecx, edi
  00439	51		 push	 ecx
  0043a	52		 push	 edx
; File E:\Proyectos\JuegosOnlineproyectos\PB\pbblow\Piercing Blow Remake\i3Server\src\i3Base\tinyxmlparser.cpp

; 811  : 	errorDesc = errorString[ errorId ];

  0043b	8d 4e 34	 lea	 ecx, DWORD PTR [esi+52]
; File E:\Proyectos\JuegosOnlineproyectos\PB\pbblow\Piercing Blow Remake\i3Server\include\i3Base\tinystr.h

; 114  : 		return assign( copy, (size_type)strlen(copy));

  0043e	e8 00 00 00 00	 call	 ?assign@TiXmlString@@QAEAAV1@PBDI@Z ; TiXmlString::assign
; File E:\Proyectos\JuegosOnlineproyectos\PB\pbblow\Piercing Blow Remake\i3Server\src\i3Base\tinyxmlparser.cpp

; 814  : 	if ( pError && data )

  00443	8b 7d 0c	 mov	 edi, DWORD PTR _data$[ebp]
; File E:\Proyectos\JuegosOnlineproyectos\PB\pbblow\Piercing Blow Remake\i3Server\include\i3Base\tinyxml.h

; 107  : 	void Clear()		{ row = col = -1; }

  00446	c7 46 40 ff ff
	ff ff		 mov	 DWORD PTR [esi+64], -1
  0044d	c7 46 3c ff ff
	ff ff		 mov	 DWORD PTR [esi+60], -1
; File E:\Proyectos\JuegosOnlineproyectos\PB\pbblow\Piercing Blow Remake\i3Server\src\i3Base\tinyxmlparser.cpp

; 814  : 	if ( pError && data )

  00454	85 ff		 test	 edi, edi
  00456	74 6f		 je	 SHORT $LN120@Parse

; 815  : 	{
; 816  : 		data->Stamp( pError, encoding );

  00458	ff 75 10	 push	 DWORD PTR _encoding$[ebp]
  0045b	ff 75 ec	 push	 DWORD PTR _pErr$1$[ebp]

; 1110 : 				return 0;

  0045e	eb 55		 jmp	 SHORT $LN297@Parse
$LN18@Parse:

; 1111 : 			}
; 1112 : 			return (p+1);

  00460	8d 58 01	 lea	 ebx, DWORD PTR [eax+1]
  00463	eb 64		 jmp	 SHORT $LN51@Parse
$LN14@Parse:

; 1099 : 		{
; 1100 : 			if ( document ) document->SetError( TIXML_ERROR_READING_ATTRIBUTES, pErr, data, encoding );

  00465	85 f6		 test	 esi, esi
  00467	74 5e		 je	 SHORT $LN120@Parse

; 805  : 	if ( error )

  00469	80 7e 2c 00	 cmp	 BYTE PTR [esi+44], 0
  0046d	75 58		 jne	 SHORT $LN120@Parse

; 806  : 		return;
; 807  : 
; 808  : 	I3ASSERT( err > 0 && err < TIXML_ERROR_STRING_COUNT );
; 809  : 	error   = true;

  0046f	c6 46 2c 01	 mov	 BYTE PTR [esi+44], 1

; 810  : 	errorId = err;

  00473	c7 46 30 07 00
	00 00		 mov	 DWORD PTR [esi+48], 7

; 811  : 	errorDesc = errorString[ errorId ];

  0047a	8b 15 1c 00 00
	00		 mov	 edx, DWORD PTR ?errorString@TiXmlBase@@1PAPBDA+28
; File E:\Proyectos\JuegosOnlineproyectos\PB\pbblow\Piercing Blow Remake\i3Server\include\i3Base\tinystr.h

; 114  : 		return assign( copy, (size_type)strlen(copy));

  00480	8b ca		 mov	 ecx, edx
  00482	8d 79 01	 lea	 edi, DWORD PTR [ecx+1]
$LL288@Parse:
  00485	8a 01		 mov	 al, BYTE PTR [ecx]
  00487	41		 inc	 ecx
  00488	84 c0		 test	 al, al
  0048a	75 f9		 jne	 SHORT $LL288@Parse
$LN296@Parse:

; 257  : 		if (rep_ != &nullrep_)

  0048c	2b cf		 sub	 ecx, edi
  0048e	51		 push	 ecx
  0048f	52		 push	 edx
  00490	8d 4e 34	 lea	 ecx, DWORD PTR [esi+52]
  00493	e8 00 00 00 00	 call	 ?assign@TiXmlString@@QAEAAV1@PBDI@Z ; TiXmlString::assign
  00498	c7 46 3c ff ff
	ff ff		 mov	 DWORD PTR [esi+60], -1
  0049f	c7 46 40 ff ff
	ff ff		 mov	 DWORD PTR [esi+64], -1
  004a6	85 db		 test	 ebx, ebx
  004a8	74 1d		 je	 SHORT $LN120@Parse
  004aa	8b 7d 0c	 mov	 edi, DWORD PTR _data$[ebp]
  004ad	85 ff		 test	 edi, edi
  004af	74 16		 je	 SHORT $LN120@Parse
  004b1	ff 75 10	 push	 DWORD PTR _encoding$[ebp]
  004b4	53		 push	 ebx
$LN297@Parse:
  004b5	8b cf		 mov	 ecx, edi
  004b7	e8 00 00 00 00	 call	 ?Stamp@TiXmlParsingData@@QAEXPBDW4TiXmlEncoding@@@Z ; TiXmlParsingData::Stamp
  004bc	8b 07		 mov	 eax, DWORD PTR [edi]
  004be	8b 4f 04	 mov	 ecx, DWORD PTR [edi+4]
  004c1	89 4e 40	 mov	 DWORD PTR [esi+64], ecx
  004c4	89 46 3c	 mov	 DWORD PTR [esi+60], eax
$LN120@Parse:
  004c7	33 db		 xor	 ebx, ebx
$LN51@Parse:
  004c9	8b 4d 08	 mov	 ecx, DWORD PTR _endTag$[ebp]
  004cc	81 f9 00 00 00
	00		 cmp	 ecx, OFFSET ?nullrep_@TiXmlString@@0URep@1@A ; TiXmlString::nullrep_
  004d2	74 09		 je	 SHORT $LN116@Parse

; 258  : 		{
; 259  : 			// The rep_ is really an array of ints. (see the allocator, above).
; 260  : 			// Cast it back before delete, so the compiler won't incorrectly call destructors.
; 261  : 			delete [] ( reinterpret_cast<int*>( rep_ ) );

  004d4	51		 push	 ecx
  004d5	e8 00 00 00 00	 call	 ??_V@YAXPAX@Z		; operator delete[]
  004da	83 c4 04	 add	 esp, 4
$LN116@Parse:
; File E:\Proyectos\JuegosOnlineproyectos\PB\pbblow\Piercing Blow Remake\i3Server\src\i3Base\tinyxmlparser.cpp

; 1177 : 	return p;

  004dd	8b c3		 mov	 eax, ebx

; 1178 : }

  004df	8b 4d f4	 mov	 ecx, DWORD PTR __$EHRec$[ebp]
  004e2	64 89 0d 00 00
	00 00		 mov	 DWORD PTR fs:0, ecx
  004e9	59		 pop	 ecx
  004ea	5f		 pop	 edi
  004eb	5e		 pop	 esi
  004ec	5b		 pop	 ebx
  004ed	8b e5		 mov	 esp, ebp
  004ef	5d		 pop	 ebp
  004f0	c2 0c 00	 ret	 12			; 0000000cH
$LN11@Parse:

; 1083 : 	{
; 1084 : 		if ( document )	document->SetError( TIXML_ERROR_FAILED_TO_READ_ELEMENT_NAME, pErr, data, encoding );

  004f3	85 f6		 test	 esi, esi
  004f5	0f 84 aa 00 00
	00		 je	 $LN56@Parse

; 805  : 	if ( error )

  004fb	80 7e 2c 00	 cmp	 BYTE PTR [esi+44], 0
  004ff	0f 85 a0 00 00
	00		 jne	 $LN56@Parse

; 806  : 		return;
; 807  : 
; 808  : 	I3ASSERT( err > 0 && err < TIXML_ERROR_STRING_COUNT );
; 809  : 	error   = true;

  00505	c6 46 2c 01	 mov	 BYTE PTR [esi+44], 1

; 810  : 	errorId = err;

  00509	c7 46 30 05 00
	00 00		 mov	 DWORD PTR [esi+48], 5

; 811  : 	errorDesc = errorString[ errorId ];

  00510	8b 15 14 00 00
	00		 mov	 edx, DWORD PTR ?errorString@TiXmlBase@@1PAPBDA+20
; File E:\Proyectos\JuegosOnlineproyectos\PB\pbblow\Piercing Blow Remake\i3Server\include\i3Base\tinystr.h

; 114  : 		return assign( copy, (size_type)strlen(copy));

  00516	8b ca		 mov	 ecx, edx
  00518	8d 59 01	 lea	 ebx, DWORD PTR [ecx+1]
  0051b	eb 03 8d 49 00	 npad	 5
$LL289@Parse:
  00520	8a 01		 mov	 al, BYTE PTR [ecx]
  00522	41		 inc	 ecx
  00523	84 c0		 test	 al, al
  00525	75 f9		 jne	 SHORT $LL289@Parse
  00527	2b cb		 sub	 ecx, ebx
  00529	51		 push	 ecx
  0052a	52		 push	 edx
; File E:\Proyectos\JuegosOnlineproyectos\PB\pbblow\Piercing Blow Remake\i3Server\src\i3Base\tinyxmlparser.cpp

; 811  : 	errorDesc = errorString[ errorId ];

  0052b	8d 4e 34	 lea	 ecx, DWORD PTR [esi+52]
; File E:\Proyectos\JuegosOnlineproyectos\PB\pbblow\Piercing Blow Remake\i3Server\include\i3Base\tinystr.h

; 114  : 		return assign( copy, (size_type)strlen(copy));

  0052e	e8 00 00 00 00	 call	 ?assign@TiXmlString@@QAEAAV1@PBDI@Z ; TiXmlString::assign
; File E:\Proyectos\JuegosOnlineproyectos\PB\pbblow\Piercing Blow Remake\i3Server\src\i3Base\tinyxmlparser.cpp

; 814  : 	if ( pError && data )

  00533	8b 45 e8	 mov	 eax, DWORD PTR _pErr$3$[ebp]
; File E:\Proyectos\JuegosOnlineproyectos\PB\pbblow\Piercing Blow Remake\i3Server\include\i3Base\tinyxml.h

; 107  : 	void Clear()		{ row = col = -1; }

  00536	c7 46 40 ff ff
	ff ff		 mov	 DWORD PTR [esi+64], -1
  0053d	c7 46 3c ff ff
	ff ff		 mov	 DWORD PTR [esi+60], -1
; File E:\Proyectos\JuegosOnlineproyectos\PB\pbblow\Piercing Blow Remake\i3Server\src\i3Base\tinyxmlparser.cpp

; 814  : 	if ( pError && data )

  00544	85 c0		 test	 eax, eax
  00546	74 5d		 je	 SHORT $LN56@Parse
  00548	85 ff		 test	 edi, edi
  0054a	74 59		 je	 SHORT $LN56@Parse

; 815  : 	{
; 816  : 		data->Stamp( pError, encoding );

  0054c	ff 75 10	 push	 DWORD PTR _encoding$[ebp]
$LN298@Parse:

; 1061 : 		return 0;

  0054f	50		 push	 eax
  00550	8b cf		 mov	 ecx, edi
  00552	e8 00 00 00 00	 call	 ?Stamp@TiXmlParsingData@@QAEXPBDW4TiXmlEncoding@@@Z ; TiXmlParsingData::Stamp
  00557	8b 07		 mov	 eax, DWORD PTR [edi]
  00559	8b 4f 04	 mov	 ecx, DWORD PTR [edi+4]
  0055c	89 46 3c	 mov	 DWORD PTR [esi+60], eax
  0055f	89 4e 40	 mov	 DWORD PTR [esi+64], ecx
  00562	eb 41		 jmp	 SHORT $LN56@Parse
$LN5@Parse:

; 1059 : 	{
; 1060 : 		if ( document ) document->SetError( TIXML_ERROR_PARSING_ELEMENT, 0, 0, encoding );

  00564	85 f6		 test	 esi, esi
  00566	74 3d		 je	 SHORT $LN56@Parse

; 805  : 	if ( error )

  00568	80 7e 2c 00	 cmp	 BYTE PTR [esi+44], 0
  0056c	75 37		 jne	 SHORT $LN56@Parse

; 806  : 		return;
; 807  : 
; 808  : 	I3ASSERT( err > 0 && err < TIXML_ERROR_STRING_COUNT );
; 809  : 	error   = true;

  0056e	c6 46 2c 01	 mov	 BYTE PTR [esi+44], 1

; 810  : 	errorId = err;

  00572	c7 46 30 04 00
	00 00		 mov	 DWORD PTR [esi+48], 4

; 811  : 	errorDesc = errorString[ errorId ];

  00579	8b 15 10 00 00
	00		 mov	 edx, DWORD PTR ?errorString@TiXmlBase@@1PAPBDA+16
; File E:\Proyectos\JuegosOnlineproyectos\PB\pbblow\Piercing Blow Remake\i3Server\include\i3Base\tinystr.h

; 114  : 		return assign( copy, (size_type)strlen(copy));

  0057f	8b ca		 mov	 ecx, edx
  00581	8d 79 01	 lea	 edi, DWORD PTR [ecx+1]
$LL290@Parse:
  00584	8a 01		 mov	 al, BYTE PTR [ecx]
  00586	41		 inc	 ecx
  00587	84 c0		 test	 al, al
  00589	75 f9		 jne	 SHORT $LL290@Parse
  0058b	2b cf		 sub	 ecx, edi
  0058d	51		 push	 ecx
  0058e	52		 push	 edx
; File E:\Proyectos\JuegosOnlineproyectos\PB\pbblow\Piercing Blow Remake\i3Server\src\i3Base\tinyxmlparser.cpp

; 811  : 	errorDesc = errorString[ errorId ];

  0058f	8d 4e 34	 lea	 ecx, DWORD PTR [esi+52]
; File E:\Proyectos\JuegosOnlineproyectos\PB\pbblow\Piercing Blow Remake\i3Server\include\i3Base\tinystr.h

; 114  : 		return assign( copy, (size_type)strlen(copy));

  00592	e8 00 00 00 00	 call	 ?assign@TiXmlString@@QAEAAV1@PBDI@Z ; TiXmlString::assign
; File E:\Proyectos\JuegosOnlineproyectos\PB\pbblow\Piercing Blow Remake\i3Server\include\i3Base\tinyxml.h

; 107  : 	void Clear()		{ row = col = -1; }

  00597	c7 46 40 ff ff
	ff ff		 mov	 DWORD PTR [esi+64], -1
  0059e	c7 46 3c ff ff
	ff ff		 mov	 DWORD PTR [esi+60], -1
$LN56@Parse:
; File E:\Proyectos\JuegosOnlineproyectos\PB\pbblow\Piercing Blow Remake\i3Server\src\i3Base\tinyxmlparser.cpp

; 1061 : 		return 0;

  005a5	33 c0		 xor	 eax, eax

; 1178 : }

  005a7	8b 4d f4	 mov	 ecx, DWORD PTR __$EHRec$[ebp]
  005aa	64 89 0d 00 00
	00 00		 mov	 DWORD PTR fs:0, ecx
  005b1	59		 pop	 ecx
  005b2	5f		 pop	 edi
  005b3	5e		 pop	 esi
  005b4	5b		 pop	 ebx
  005b5	8b e5		 mov	 esp, ebp
  005b7	5d		 pop	 ebp
  005b8	c2 0c 00	 ret	 12			; 0000000cH
_TEXT	ENDS
;	COMDAT text$x
text$x	SEGMENT
__unwindfunclet$?Parse@TiXmlElement@@UAEPBDPBDPAVTiXmlParsingData@@W4TiXmlEncoding@@@Z$0:
  00000	8d 4d 08	 lea	 ecx, DWORD PTR _endTag$[ebp]
  00003	e9 00 00 00 00	 jmp	 ??1TiXmlString@@QAE@XZ	; TiXmlString::~TiXmlString
  00008	cc		 int	 3
  00009	cc		 int	 3
  0000a	cc		 int	 3
  0000b	cc		 int	 3
  0000c	cc		 int	 3
__ehhandler$?Parse@TiXmlElement@@UAEPBDPBDPAVTiXmlParsingData@@W4TiXmlEncoding@@@Z:
  0000d	90		 npad	 1
  0000e	90		 npad	 1
  0000f	8b 54 24 08	 mov	 edx, DWORD PTR [esp+8]
  00013	8d 42 0c	 lea	 eax, DWORD PTR [edx+12]
  00016	8b 4a e4	 mov	 ecx, DWORD PTR [edx-28]
  00019	33 c8		 xor	 ecx, eax
  0001b	e8 00 00 00 00	 call	 @__security_check_cookie@4
  00020	b8 00 00 00 00	 mov	 eax, OFFSET __ehfuncinfo$?Parse@TiXmlElement@@UAEPBDPBDPAVTiXmlParsingData@@W4TiXmlEncoding@@@Z
  00025	e9 00 00 00 00	 jmp	 ___CxxFrameHandler3
text$x	ENDS
?Parse@TiXmlElement@@UAEPBDPBDPAVTiXmlParsingData@@W4TiXmlEncoding@@@Z ENDP ; TiXmlElement::Parse
; Function compile flags: /Ogtp
; File E:\Proyectos\JuegosOnlineproyectos\PB\pbblow\Piercing Blow Remake\i3Server\include\i3Base\tinyxml.h
;	COMDAT ?LastAttribute@TiXmlElement@@QAEPAVTiXmlAttribute@@XZ
_TEXT	SEGMENT
?LastAttribute@TiXmlElement@@QAEPAVTiXmlAttribute@@XZ PROC ; TiXmlElement::LastAttribute, COMDAT
; _this$ = ecx

; 919  : 	TiXmlAttribute* Last()					{ return ( sentinel.prev == &sentinel ) ? 0 : sentinel.prev; }

  00000	8b 41 48	 mov	 eax, DWORD PTR [ecx+72]

; 1088 : 	TiXmlAttribute* LastAttribute()					{ return attributeSet.Last(); }

  00003	83 c1 2c	 add	 ecx, 44			; 0000002cH

; 919  : 	TiXmlAttribute* Last()					{ return ( sentinel.prev == &sentinel ) ? 0 : sentinel.prev; }

  00006	33 d2		 xor	 edx, edx
  00008	3b c1		 cmp	 eax, ecx
  0000a	0f 44 c2	 cmove	 eax, edx

; 1088 : 	TiXmlAttribute* LastAttribute()					{ return attributeSet.Last(); }

  0000d	c3		 ret	 0
?LastAttribute@TiXmlElement@@QAEPAVTiXmlAttribute@@XZ ENDP ; TiXmlElement::LastAttribute
_TEXT	ENDS
; Function compile flags: /Ogtp
; File E:\Proyectos\JuegosOnlineproyectos\PB\pbblow\Piercing Blow Remake\i3Server\include\i3Base\tinyxml.h
;	COMDAT ?LastAttribute@TiXmlElement@@QBEPBVTiXmlAttribute@@XZ
_TEXT	SEGMENT
?LastAttribute@TiXmlElement@@QBEPBVTiXmlAttribute@@XZ PROC ; TiXmlElement::LastAttribute, COMDAT
; _this$ = ecx

; 918  : 	const TiXmlAttribute* Last() const		{ return ( sentinel.prev == &sentinel ) ? 0 : sentinel.prev; }

  00000	8b 41 48	 mov	 eax, DWORD PTR [ecx+72]

; 1087 : 	const TiXmlAttribute* LastAttribute()	const 	{ return attributeSet.Last(); }		///< Access the last attribute in this element.

  00003	83 c1 2c	 add	 ecx, 44			; 0000002cH

; 918  : 	const TiXmlAttribute* Last() const		{ return ( sentinel.prev == &sentinel ) ? 0 : sentinel.prev; }

  00006	33 d2		 xor	 edx, edx
  00008	3b c1		 cmp	 eax, ecx
  0000a	0f 44 c2	 cmove	 eax, edx

; 1087 : 	const TiXmlAttribute* LastAttribute()	const 	{ return attributeSet.Last(); }		///< Access the last attribute in this element.

  0000d	c3		 ret	 0
?LastAttribute@TiXmlElement@@QBEPBVTiXmlAttribute@@XZ ENDP ; TiXmlElement::LastAttribute
_TEXT	ENDS
; Function compile flags: /Ogtp
; File E:\Proyectos\JuegosOnlineproyectos\PB\pbblow\Piercing Blow Remake\i3Server\include\i3Base\tinyxml.h
;	COMDAT ?FirstAttribute@TiXmlElement@@QAEPAVTiXmlAttribute@@XZ
_TEXT	SEGMENT
?FirstAttribute@TiXmlElement@@QAEPAVTiXmlAttribute@@XZ PROC ; TiXmlElement::FirstAttribute, COMDAT
; _this$ = ecx

; 917  : 	TiXmlAttribute* First()					{ return ( sentinel.next == &sentinel ) ? 0 : sentinel.next; }

  00000	8b 41 4c	 mov	 eax, DWORD PTR [ecx+76]

; 1086 : 	TiXmlAttribute* FirstAttribute() 				{ return attributeSet.First(); }

  00003	83 c1 2c	 add	 ecx, 44			; 0000002cH

; 917  : 	TiXmlAttribute* First()					{ return ( sentinel.next == &sentinel ) ? 0 : sentinel.next; }

  00006	33 d2		 xor	 edx, edx
  00008	3b c1		 cmp	 eax, ecx
  0000a	0f 44 c2	 cmove	 eax, edx

; 1086 : 	TiXmlAttribute* FirstAttribute() 				{ return attributeSet.First(); }

  0000d	c3		 ret	 0
?FirstAttribute@TiXmlElement@@QAEPAVTiXmlAttribute@@XZ ENDP ; TiXmlElement::FirstAttribute
_TEXT	ENDS
; Function compile flags: /Ogtp
; File E:\Proyectos\JuegosOnlineproyectos\PB\pbblow\Piercing Blow Remake\i3Server\include\i3Base\tinyxml.h
;	COMDAT ?FirstAttribute@TiXmlElement@@QBEPBVTiXmlAttribute@@XZ
_TEXT	SEGMENT
?FirstAttribute@TiXmlElement@@QBEPBVTiXmlAttribute@@XZ PROC ; TiXmlElement::FirstAttribute, COMDAT
; _this$ = ecx

; 916  : 	const TiXmlAttribute* First()	const	{ return ( sentinel.next == &sentinel ) ? 0 : sentinel.next; }

  00000	8b 41 4c	 mov	 eax, DWORD PTR [ecx+76]

; 1085 : 	const TiXmlAttribute* FirstAttribute() const	{ return attributeSet.First(); }		///< Access the first attribute in this element.

  00003	83 c1 2c	 add	 ecx, 44			; 0000002cH

; 916  : 	const TiXmlAttribute* First()	const	{ return ( sentinel.next == &sentinel ) ? 0 : sentinel.next; }

  00006	33 d2		 xor	 edx, edx
  00008	3b c1		 cmp	 eax, ecx
  0000a	0f 44 c2	 cmove	 eax, edx

; 1085 : 	const TiXmlAttribute* FirstAttribute() const	{ return attributeSet.First(); }		///< Access the first attribute in this element.

  0000d	c3		 ret	 0
?FirstAttribute@TiXmlElement@@QBEPBVTiXmlAttribute@@XZ ENDP ; TiXmlElement::FirstAttribute
_TEXT	ENDS
; Function compile flags: /Ogtp
; File E:\Proyectos\JuegosOnlineproyectos\PB\pbblow\Piercing Blow Remake\i3Server\include\i3Base\tinyxml.h
;	COMDAT ?QueryFloatAttribute@TiXmlElement@@QBEHPBDPAM@Z
_TEXT	SEGMENT
_d$ = -8						; size = 8
_name$ = 8						; size = 4
__value$ = 12						; size = 4
?QueryFloatAttribute@TiXmlElement@@QBEHPBDPAM@Z PROC	; TiXmlElement::QueryFloatAttribute, COMDAT
; _this$ = ecx

; 999  : 	int QueryFloatAttribute( const char* name, float* _value ) const {

  00000	55		 push	 ebp
  00001	8b ec		 mov	 ebp, esp
  00003	83 ec 08	 sub	 esp, 8

; 1000 : 		double d;
; 1001 : 		int result = QueryDoubleAttribute( name, &d );

  00006	8d 45 f8	 lea	 eax, DWORD PTR _d$[ebp]
  00009	50		 push	 eax
  0000a	ff 75 08	 push	 DWORD PTR _name$[ebp]
  0000d	e8 00 00 00 00	 call	 ?QueryDoubleAttribute@TiXmlElement@@QBEHPBDPAN@Z ; TiXmlElement::QueryDoubleAttribute

; 1002 : 		if ( result == TIXML_SUCCESS ) {

  00012	85 c0		 test	 eax, eax
  00014	75 08		 jne	 SHORT $LN2@QueryFloat

; 1003 : 			*_value = (float)d;

  00016	8b 4d 0c	 mov	 ecx, DWORD PTR __value$[ebp]
  00019	dd 45 f8	 fld	 QWORD PTR _d$[ebp]
  0001c	d9 19		 fstp	 DWORD PTR [ecx]
$LN2@QueryFloat:

; 1004 : 		}
; 1005 : 		return result;
; 1006 : 	}

  0001e	8b e5		 mov	 esp, ebp
  00020	5d		 pop	 ebp
  00021	c2 08 00	 ret	 8
?QueryFloatAttribute@TiXmlElement@@QBEHPBDPAM@Z ENDP	; TiXmlElement::QueryFloatAttribute
_TEXT	ENDS
; Function compile flags: /Ogtp
; File E:\Proyectos\JuegosOnlineproyectos\PB\pbblow\Piercing Blow Remake\i3Server\include\i3Base\tinyxml.h
;	COMDAT ?Find@TiXmlAttributeSet@@QAEPAVTiXmlAttribute@@PBD@Z
_TEXT	SEGMENT
__name$ = 8						; size = 4
?Find@TiXmlAttributeSet@@QAEPAVTiXmlAttribute@@PBD@Z PROC ; TiXmlAttributeSet::Find, COMDAT
; _this$ = ecx

; 922  : 	TiXmlAttribute*	Find( const char* _name ) {

  00000	55		 push	 ebp
  00001	8b ec		 mov	 ebp, esp

; 924  : 	}

  00003	5d		 pop	 ebp

; 923  : 		return const_cast< TiXmlAttribute* >( (const_cast< const TiXmlAttributeSet* >(this))->Find( _name ) );

  00004	e9 00 00 00 00	 jmp	 ?Find@TiXmlAttributeSet@@QBEPBVTiXmlAttribute@@PBD@Z ; TiXmlAttributeSet::Find
?Find@TiXmlAttributeSet@@QAEPAVTiXmlAttribute@@PBD@Z ENDP ; TiXmlAttributeSet::Find
_TEXT	ENDS
; Function compile flags: /Ogtp
; File E:\Proyectos\JuegosOnlineproyectos\PB\pbblow\Piercing Blow Remake\i3Server\include\i3Base\tinyxml.h
;	COMDAT ?Last@TiXmlAttributeSet@@QAEPAVTiXmlAttribute@@XZ
_TEXT	SEGMENT
?Last@TiXmlAttributeSet@@QAEPAVTiXmlAttribute@@XZ PROC	; TiXmlAttributeSet::Last, COMDAT
; _this$ = ecx

; 919  : 	TiXmlAttribute* Last()					{ return ( sentinel.prev == &sentinel ) ? 0 : sentinel.prev; }

  00000	8b 41 1c	 mov	 eax, DWORD PTR [ecx+28]
  00003	33 d2		 xor	 edx, edx
  00005	3b c1		 cmp	 eax, ecx
  00007	0f 44 c2	 cmove	 eax, edx
  0000a	c3		 ret	 0
?Last@TiXmlAttributeSet@@QAEPAVTiXmlAttribute@@XZ ENDP	; TiXmlAttributeSet::Last
_TEXT	ENDS
; Function compile flags: /Ogtp
; File E:\Proyectos\JuegosOnlineproyectos\PB\pbblow\Piercing Blow Remake\i3Server\include\i3Base\tinyxml.h
;	COMDAT ?Last@TiXmlAttributeSet@@QBEPBVTiXmlAttribute@@XZ
_TEXT	SEGMENT
?Last@TiXmlAttributeSet@@QBEPBVTiXmlAttribute@@XZ PROC	; TiXmlAttributeSet::Last, COMDAT
; _this$ = ecx

; 918  : 	const TiXmlAttribute* Last() const		{ return ( sentinel.prev == &sentinel ) ? 0 : sentinel.prev; }

  00000	8b 41 1c	 mov	 eax, DWORD PTR [ecx+28]
  00003	33 d2		 xor	 edx, edx
  00005	3b c1		 cmp	 eax, ecx
  00007	0f 44 c2	 cmove	 eax, edx
  0000a	c3		 ret	 0
?Last@TiXmlAttributeSet@@QBEPBVTiXmlAttribute@@XZ ENDP	; TiXmlAttributeSet::Last
_TEXT	ENDS
; Function compile flags: /Ogtp
; File E:\Proyectos\JuegosOnlineproyectos\PB\pbblow\Piercing Blow Remake\i3Server\include\i3Base\tinyxml.h
;	COMDAT ?First@TiXmlAttributeSet@@QAEPAVTiXmlAttribute@@XZ
_TEXT	SEGMENT
?First@TiXmlAttributeSet@@QAEPAVTiXmlAttribute@@XZ PROC	; TiXmlAttributeSet::First, COMDAT
; _this$ = ecx

; 917  : 	TiXmlAttribute* First()					{ return ( sentinel.next == &sentinel ) ? 0 : sentinel.next; }

  00000	8b 41 20	 mov	 eax, DWORD PTR [ecx+32]
  00003	33 d2		 xor	 edx, edx
  00005	3b c1		 cmp	 eax, ecx
  00007	0f 44 c2	 cmove	 eax, edx
  0000a	c3		 ret	 0
?First@TiXmlAttributeSet@@QAEPAVTiXmlAttribute@@XZ ENDP	; TiXmlAttributeSet::First
_TEXT	ENDS
; Function compile flags: /Ogtp
; File E:\Proyectos\JuegosOnlineproyectos\PB\pbblow\Piercing Blow Remake\i3Server\include\i3Base\tinyxml.h
;	COMDAT ?First@TiXmlAttributeSet@@QBEPBVTiXmlAttribute@@XZ
_TEXT	SEGMENT
?First@TiXmlAttributeSet@@QBEPBVTiXmlAttribute@@XZ PROC	; TiXmlAttributeSet::First, COMDAT
; _this$ = ecx

; 916  : 	const TiXmlAttribute* First()	const	{ return ( sentinel.next == &sentinel ) ? 0 : sentinel.next; }

  00000	8b 41 20	 mov	 eax, DWORD PTR [ecx+32]
  00003	33 d2		 xor	 edx, edx
  00005	3b c1		 cmp	 eax, ecx
  00007	0f 44 c2	 cmove	 eax, edx
  0000a	c3		 ret	 0
?First@TiXmlAttributeSet@@QBEPBVTiXmlAttribute@@XZ ENDP	; TiXmlAttributeSet::First
_TEXT	ENDS
; Function compile flags: /Ogtp
; File E:\Proyectos\JuegosOnlineproyectos\PB\pbblow\Piercing Blow Remake\i3Server\include\i3Base\tinystr.h
;	COMDAT ??_ETiXmlAttribute@@UAEPAXI@Z
_TEXT	SEGMENT
__$EHRec$ = -12						; size = 12
___flags$ = 8						; size = 4
??_ETiXmlAttribute@@UAEPAXI@Z PROC			; TiXmlAttribute::`vector deleting destructor', COMDAT
; _this$ = ecx
  00000	55		 push	 ebp
  00001	8b ec		 mov	 ebp, esp
  00003	6a ff		 push	 -1
  00005	68 00 00 00 00	 push	 __ehhandler$??_ETiXmlAttribute@@UAEPAXI@Z
  0000a	64 a1 00 00 00
	00		 mov	 eax, DWORD PTR fs:0
  00010	50		 push	 eax
  00011	53		 push	 ebx
  00012	56		 push	 esi
  00013	57		 push	 edi
  00014	a1 00 00 00 00	 mov	 eax, DWORD PTR ___security_cookie
  00019	33 c5		 xor	 eax, ebp
  0001b	50		 push	 eax
  0001c	8d 45 f4	 lea	 eax, DWORD PTR __$EHRec$[ebp]
  0001f	64 a3 00 00 00
	00		 mov	 DWORD PTR fs:0, eax
  00025	8b f1		 mov	 esi, ecx
  00027	8b 5d 08	 mov	 ebx, DWORD PTR ___flags$[ebp]
  0002a	f6 c3 02	 test	 bl, 2
  0002d	74 44		 je	 SHORT $LN2@vector
  0002f	68 00 00 00 00	 push	 OFFSET ??1TiXmlAttribute@@UAE@XZ
  00034	ff 76 fc	 push	 DWORD PTR [esi-4]
  00037	8d 7e fc	 lea	 edi, DWORD PTR [esi-4]
  0003a	6a 24		 push	 36			; 00000024H
  0003c	56		 push	 esi
  0003d	e8 00 00 00 00	 call	 ??_M@YGXPAXIIP6EX0@Z@Z
  00042	f6 c3 01	 test	 bl, 1
  00045	74 16		 je	 SHORT $LN3@vector
  00047	8b 0f		 mov	 ecx, DWORD PTR [edi]
  00049	8d 0c c9	 lea	 ecx, DWORD PTR [ecx+ecx*8]
  0004c	8d 0c 8d 04 00
	00 00		 lea	 ecx, DWORD PTR [ecx*4+4]
  00053	51		 push	 ecx
  00054	57		 push	 edi
  00055	e8 00 00 00 00	 call	 ??_V@YAXPAXI@Z		; operator delete[]
  0005a	83 c4 08	 add	 esp, 8
$LN3@vector:
  0005d	8b c7		 mov	 eax, edi
  0005f	8b 4d f4	 mov	 ecx, DWORD PTR __$EHRec$[ebp]
  00062	64 89 0d 00 00
	00 00		 mov	 DWORD PTR fs:0, ecx
  00069	59		 pop	 ecx
  0006a	5f		 pop	 edi
  0006b	5e		 pop	 esi
  0006c	5b		 pop	 ebx
  0006d	8b e5		 mov	 esp, ebp
  0006f	5d		 pop	 ebp
  00070	c2 04 00	 ret	 4
$LN2@vector:

; 257  : 		if (rep_ != &nullrep_)

  00073	8b 46 18	 mov	 eax, DWORD PTR [esi+24]
  00076	3d 00 00 00 00	 cmp	 eax, OFFSET ?nullrep_@TiXmlString@@0URep@1@A ; TiXmlString::nullrep_
  0007b	74 09		 je	 SHORT $LN16@vector

; 258  : 		{
; 259  : 			// The rep_ is really an array of ints. (see the allocator, above).
; 260  : 			// Cast it back before delete, so the compiler won't incorrectly call destructors.
; 261  : 			delete [] ( reinterpret_cast<int*>( rep_ ) );

  0007d	50		 push	 eax
  0007e	e8 00 00 00 00	 call	 ??_V@YAXPAX@Z		; operator delete[]
  00083	83 c4 04	 add	 esp, 4
$LN16@vector:

; 257  : 		if (rep_ != &nullrep_)

  00086	8b 46 14	 mov	 eax, DWORD PTR [esi+20]
  00089	3d 00 00 00 00	 cmp	 eax, OFFSET ?nullrep_@TiXmlString@@0URep@1@A ; TiXmlString::nullrep_
  0008e	74 09		 je	 SHORT $LN22@vector

; 258  : 		{
; 259  : 			// The rep_ is really an array of ints. (see the allocator, above).
; 260  : 			// Cast it back before delete, so the compiler won't incorrectly call destructors.
; 261  : 			delete [] ( reinterpret_cast<int*>( rep_ ) );

  00090	50		 push	 eax
  00091	e8 00 00 00 00	 call	 ??_V@YAXPAX@Z		; operator delete[]
  00096	83 c4 04	 add	 esp, 4
$LN22@vector:
  00099	c7 06 00 00 00
	00		 mov	 DWORD PTR [esi], OFFSET ??_7TiXmlBase@@6B@
  0009f	f6 c3 01	 test	 bl, 1
  000a2	74 0b		 je	 SHORT $LN4@vector
  000a4	6a 24		 push	 36			; 00000024H
  000a6	56		 push	 esi
  000a7	e8 00 00 00 00	 call	 ??3@YAXPAXI@Z		; operator delete
  000ac	83 c4 08	 add	 esp, 8
$LN4@vector:
  000af	8b c6		 mov	 eax, esi
  000b1	8b 4d f4	 mov	 ecx, DWORD PTR __$EHRec$[ebp]
  000b4	64 89 0d 00 00
	00 00		 mov	 DWORD PTR fs:0, ecx
  000bb	59		 pop	 ecx
  000bc	5f		 pop	 edi
  000bd	5e		 pop	 esi
  000be	5b		 pop	 ebx
  000bf	8b e5		 mov	 esp, ebp
  000c1	5d		 pop	 ebp
  000c2	c2 04 00	 ret	 4
  000c5	cc		 int	 3
  000c6	cc		 int	 3
  000c7	cc		 int	 3
  000c8	cc		 int	 3
  000c9	cc		 int	 3
_TEXT	ENDS
;	COMDAT text$x
text$x	SEGMENT
__ehhandler$??_ETiXmlAttribute@@UAEPAXI@Z:
  00000	90		 npad	 1
  00001	90		 npad	 1
  00002	8b 54 24 08	 mov	 edx, DWORD PTR [esp+8]
  00006	8d 42 0c	 lea	 eax, DWORD PTR [edx+12]
  00009	8b 4a f0	 mov	 ecx, DWORD PTR [edx-16]
  0000c	33 c8		 xor	 ecx, eax
  0000e	e8 00 00 00 00	 call	 @__security_check_cookie@4
  00013	b8 00 00 00 00	 mov	 eax, OFFSET __ehfuncinfo$??_ETiXmlAttribute@@UAEPAXI@Z
  00018	e9 00 00 00 00	 jmp	 ___CxxFrameHandler3
text$x	ENDS
??_ETiXmlAttribute@@UAEPAXI@Z ENDP			; TiXmlAttribute::`vector deleting destructor'
; Function compile flags: /Ogtp
; File E:\Proyectos\JuegosOnlineproyectos\PB\pbblow\Piercing Blow Remake\i3Server\include\i3Base\tinystr.h
;	COMDAT ??_GTiXmlAttribute@@UAEPAXI@Z
_TEXT	SEGMENT
___flags$ = 8						; size = 4
??_GTiXmlAttribute@@UAEPAXI@Z PROC			; TiXmlAttribute::`scalar deleting destructor', COMDAT
; _this$ = ecx
  00000	55		 push	 ebp
  00001	8b ec		 mov	 ebp, esp

; 257  : 		if (rep_ != &nullrep_)

  00003	56		 push	 esi
  00004	8b f1		 mov	 esi, ecx
  00006	8b 46 18	 mov	 eax, DWORD PTR [esi+24]
  00009	3d 00 00 00 00	 cmp	 eax, OFFSET ?nullrep_@TiXmlString@@0URep@1@A ; TiXmlString::nullrep_
  0000e	74 09		 je	 SHORT $LN14@scalar

; 258  : 		{
; 259  : 			// The rep_ is really an array of ints. (see the allocator, above).
; 260  : 			// Cast it back before delete, so the compiler won't incorrectly call destructors.
; 261  : 			delete [] ( reinterpret_cast<int*>( rep_ ) );

  00010	50		 push	 eax
  00011	e8 00 00 00 00	 call	 ??_V@YAXPAX@Z		; operator delete[]
  00016	83 c4 04	 add	 esp, 4
$LN14@scalar:

; 257  : 		if (rep_ != &nullrep_)

  00019	8b 46 14	 mov	 eax, DWORD PTR [esi+20]
  0001c	3d 00 00 00 00	 cmp	 eax, OFFSET ?nullrep_@TiXmlString@@0URep@1@A ; TiXmlString::nullrep_
  00021	74 09		 je	 SHORT $LN20@scalar

; 258  : 		{
; 259  : 			// The rep_ is really an array of ints. (see the allocator, above).
; 260  : 			// Cast it back before delete, so the compiler won't incorrectly call destructors.
; 261  : 			delete [] ( reinterpret_cast<int*>( rep_ ) );

  00023	50		 push	 eax
  00024	e8 00 00 00 00	 call	 ??_V@YAXPAX@Z		; operator delete[]
  00029	83 c4 04	 add	 esp, 4
$LN20@scalar:
  0002c	f6 45 08 01	 test	 BYTE PTR ___flags$[ebp], 1
  00030	c7 06 00 00 00
	00		 mov	 DWORD PTR [esi], OFFSET ??_7TiXmlBase@@6B@
  00036	74 0b		 je	 SHORT $LN22@scalar
  00038	6a 24		 push	 36			; 00000024H
  0003a	56		 push	 esi
  0003b	e8 00 00 00 00	 call	 ??3@YAXPAXI@Z		; operator delete
  00040	83 c4 08	 add	 esp, 8
$LN22@scalar:
  00043	8b c6		 mov	 eax, esi
  00045	5e		 pop	 esi
  00046	5d		 pop	 ebp
  00047	c2 04 00	 ret	 4
??_GTiXmlAttribute@@UAEPAXI@Z ENDP			; TiXmlAttribute::`scalar deleting destructor'
_TEXT	ENDS
; Function compile flags: /Ogtp
; File E:\Proyectos\JuegosOnlineproyectos\PB\pbblow\Piercing Blow Remake\i3Server\include\i3Base\tinystr.h
;	COMDAT ??1TiXmlAttribute@@UAE@XZ
_TEXT	SEGMENT
??1TiXmlAttribute@@UAE@XZ PROC				; TiXmlAttribute::~TiXmlAttribute, COMDAT
; _this$ = ecx

; 257  : 		if (rep_ != &nullrep_)

  00000	56		 push	 esi
  00001	8b f1		 mov	 esi, ecx
  00003	8b 46 18	 mov	 eax, DWORD PTR [esi+24]
  00006	3d 00 00 00 00	 cmp	 eax, OFFSET ?nullrep_@TiXmlString@@0URep@1@A ; TiXmlString::nullrep_
  0000b	74 09		 je	 SHORT $LN8@TiXmlAttri

; 258  : 		{
; 259  : 			// The rep_ is really an array of ints. (see the allocator, above).
; 260  : 			// Cast it back before delete, so the compiler won't incorrectly call destructors.
; 261  : 			delete [] ( reinterpret_cast<int*>( rep_ ) );

  0000d	50		 push	 eax
  0000e	e8 00 00 00 00	 call	 ??_V@YAXPAX@Z		; operator delete[]
  00013	83 c4 04	 add	 esp, 4
$LN8@TiXmlAttri:

; 257  : 		if (rep_ != &nullrep_)

  00016	8b 46 14	 mov	 eax, DWORD PTR [esi+20]
  00019	3d 00 00 00 00	 cmp	 eax, OFFSET ?nullrep_@TiXmlString@@0URep@1@A ; TiXmlString::nullrep_
  0001e	74 09		 je	 SHORT $LN16@TiXmlAttri

; 258  : 		{
; 259  : 			// The rep_ is really an array of ints. (see the allocator, above).
; 260  : 			// Cast it back before delete, so the compiler won't incorrectly call destructors.
; 261  : 			delete [] ( reinterpret_cast<int*>( rep_ ) );

  00020	50		 push	 eax
  00021	e8 00 00 00 00	 call	 ??_V@YAXPAX@Z		; operator delete[]
  00026	83 c4 04	 add	 esp, 4
$LN16@TiXmlAttri:
  00029	c7 06 00 00 00
	00		 mov	 DWORD PTR [esi], OFFSET ??_7TiXmlBase@@6B@
  0002f	5e		 pop	 esi
  00030	c3		 ret	 0
??1TiXmlAttribute@@UAE@XZ ENDP				; TiXmlAttribute::~TiXmlAttribute
_TEXT	ENDS
; Function compile flags: /Ogtp
; File E:\Proyectos\JuegosOnlineproyectos\PB\pbblow\Piercing Blow Remake\i3Server\include\i3Base\tinyxml.h
;	COMDAT ?SetDocument@TiXmlAttribute@@QAEXPAVTiXmlDocument@@@Z
_TEXT	SEGMENT
_doc$ = 8						; size = 4
?SetDocument@TiXmlAttribute@@QAEXPAVTiXmlDocument@@@Z PROC ; TiXmlAttribute::SetDocument, COMDAT
; _this$ = ecx

; 881  : 	void SetDocument( TiXmlDocument* doc )	{ document = doc; }

  00000	55		 push	 ebp
  00001	8b ec		 mov	 ebp, esp
  00003	8b 45 08	 mov	 eax, DWORD PTR _doc$[ebp]
  00006	89 41 10	 mov	 DWORD PTR [ecx+16], eax
  00009	5d		 pop	 ebp
  0000a	c2 04 00	 ret	 4
?SetDocument@TiXmlAttribute@@QAEXPAVTiXmlDocument@@@Z ENDP ; TiXmlAttribute::SetDocument
_TEXT	ENDS
; Function compile flags: /Ogtp
; File E:\Proyectos\JuegosOnlineproyectos\PB\pbblow\Piercing Blow Remake\i3Server\include\i3Base\tinyxml.h
;	COMDAT ?Print@TiXmlAttribute@@UBEXPAVi3FileStream@@H@Z
_TEXT	SEGMENT
_cfile$ = 8						; size = 4
_depth$ = 12						; size = 4
?Print@TiXmlAttribute@@UBEXPAVi3FileStream@@H@Z PROC	; TiXmlAttribute::Print, COMDAT
; _this$ = ecx

; 874  : 	virtual void Print( i3FileStream* cfile, int depth ) const {

  00000	55		 push	 ebp
  00001	8b ec		 mov	 ebp, esp

; 875  : 		Print( cfile, depth, 0 );

  00003	6a 00		 push	 0
  00005	ff 75 0c	 push	 DWORD PTR _depth$[ebp]
  00008	ff 75 08	 push	 DWORD PTR _cfile$[ebp]
  0000b	e8 00 00 00 00	 call	 ?Print@TiXmlAttribute@@QBEXPAVi3FileStream@@HPAVTiXmlString@@@Z ; TiXmlAttribute::Print

; 876  : 	}

  00010	5d		 pop	 ebp
  00011	c2 08 00	 ret	 8
?Print@TiXmlAttribute@@UBEXPAVi3FileStream@@H@Z ENDP	; TiXmlAttribute::Print
_TEXT	ENDS
; Function compile flags: /Ogtp
; File E:\Proyectos\JuegosOnlineproyectos\PB\pbblow\Piercing Blow Remake\i3Server\src\i3Base\tinyxmlparser.cpp
; File E:\Proyectos\JuegosOnlineproyectos\PB\pbblow\Piercing Blow Remake\i3Server\include\i3Base\tinystr.h
; File E:\Proyectos\JuegosOnlineproyectos\PB\pbblow\Piercing Blow Remake\i3Server\src\i3Base\tinyxmlparser.cpp
; File E:\Proyectos\JuegosOnlineproyectos\PB\pbblow\Piercing Blow Remake\i3Server\include\i3Base\tinyxml.h
; File E:\Proyectos\JuegosOnlineproyectos\PB\pbblow\Piercing Blow Remake\i3Server\src\i3Base\tinyxmlparser.cpp
; File E:\Proyectos\JuegosOnlineproyectos\PB\pbblow\Piercing Blow Remake\i3Server\include\i3Base\tinystr.h
; File E:\Proyectos\JuegosOnlineproyectos\PB\pbblow\Piercing Blow Remake\i3Server\src\i3Base\tinyxmlparser.cpp
; File E:\Proyectos\JuegosOnlineproyectos\PB\pbblow\Piercing Blow Remake\i3Server\include\i3Base\tinystr.h
; File E:\Proyectos\JuegosOnlineproyectos\PB\pbblow\Piercing Blow Remake\i3Server\src\i3Base\tinyxmlparser.cpp
; File E:\Proyectos\JuegosOnlineproyectos\PB\pbblow\Piercing Blow Remake\i3Server\include\i3Base\tinystr.h
; File E:\Proyectos\JuegosOnlineproyectos\PB\pbblow\Piercing Blow Remake\i3Server\src\i3Base\tinyxmlparser.cpp
; File E:\Proyectos\JuegosOnlineproyectos\PB\pbblow\Piercing Blow Remake\i3Server\include\i3Base\tinystr.h
; File E:\Proyectos\JuegosOnlineproyectos\PB\pbblow\Piercing Blow Remake\i3Server\include\i3Base\tinyxml.h
; File E:\Proyectos\JuegosOnlineproyectos\PB\pbblow\Piercing Blow Remake\i3Server\src\i3Base\tinyxmlparser.cpp
; File E:\Proyectos\JuegosOnlineproyectos\PB\pbblow\Piercing Blow Remake\i3Server\include\i3Base\tinystr.h
; File E:\Proyectos\JuegosOnlineproyectos\PB\pbblow\Piercing Blow Remake\i3Server\src\i3Base\tinyxmlparser.cpp
; File E:\Proyectos\JuegosOnlineproyectos\PB\pbblow\Piercing Blow Remake\i3Server\include\i3Base\tinystr.h
; File E:\Proyectos\JuegosOnlineproyectos\PB\pbblow\Piercing Blow Remake\i3Server\include\i3Base\tinyxml.h
; File E:\Proyectos\JuegosOnlineproyectos\PB\pbblow\Piercing Blow Remake\i3Server\src\i3Base\tinyxmlparser.cpp
; File E:\Proyectos\JuegosOnlineproyectos\PB\pbblow\Piercing Blow Remake\i3Server\include\i3Base\tinystr.h
; File E:\Proyectos\JuegosOnlineproyectos\PB\pbblow\Piercing Blow Remake\i3Server\src\i3Base\tinyxmlparser.cpp
; File E:\Proyectos\JuegosOnlineproyectos\PB\pbblow\Piercing Blow Remake\i3Server\include\i3Base\tinystr.h
; File E:\Proyectos\JuegosOnlineproyectos\PB\pbblow\Piercing Blow Remake\i3Server\src\i3Base\tinyxmlparser.cpp
; File E:\Proyectos\JuegosOnlineproyectos\PB\pbblow\Piercing Blow Remake\i3Server\include\i3Base\tinyxml.h
; File E:\Proyectos\JuegosOnlineproyectos\PB\pbblow\Piercing Blow Remake\i3Server\src\i3Base\tinyxmlparser.cpp
; File E:\Proyectos\JuegosOnlineproyectos\PB\pbblow\Piercing Blow Remake\i3Server\include\i3Base\tinystr.h
; File E:\Proyectos\JuegosOnlineproyectos\PB\pbblow\Piercing Blow Remake\i3Server\src\i3Base\tinyxmlparser.cpp
; File E:\Proyectos\JuegosOnlineproyectos\PB\pbblow\Piercing Blow Remake\i3Server\include\i3Base\tinystr.h
; File E:\Proyectos\JuegosOnlineproyectos\PB\pbblow\Piercing Blow Remake\i3Server\include\i3Base\tinyxml.h
; File E:\Proyectos\JuegosOnlineproyectos\PB\pbblow\Piercing Blow Remake\i3Server\src\i3Base\tinyxmlparser.cpp
;	COMDAT ?Parse@TiXmlAttribute@@UAEPBDPBDPAVTiXmlParsingData@@W4TiXmlEncoding@@@Z
_TEXT	SEGMENT
_this$1$ = -4						; size = 4
_p$ = 8							; size = 4
_single$ = 8						; size = 1
_p$4$ = 8						; size = 4
_pErr$1$ = 8						; size = 4
tv541 = 8						; size = 4
tv544 = 8						; size = 4
_data$ = 12						; size = 4
tv547 = 12						; size = 4
_encoding$ = 16						; size = 4
?Parse@TiXmlAttribute@@UAEPBDPBDPAVTiXmlParsingData@@W4TiXmlEncoding@@@Z PROC ; TiXmlAttribute::Parse, COMDAT
; _this$ = ecx

; 1394 : {

  00000	55		 push	 ebp
  00001	8b ec		 mov	 ebp, esp
  00003	51		 push	 ecx
  00004	53		 push	 ebx
  00005	56		 push	 esi
  00006	57		 push	 edi

; 1395 : 	p = SkipWhiteSpace( p, encoding );

  00007	ff 75 10	 push	 DWORD PTR _encoding$[ebp]
  0000a	8b d9		 mov	 ebx, ecx
  0000c	ff 75 08	 push	 DWORD PTR _p$[ebp]
  0000f	89 5d fc	 mov	 DWORD PTR _this$1$[ebp], ebx
  00012	e8 00 00 00 00	 call	 ?SkipWhiteSpace@TiXmlBase@@KAPBDPBDW4TiXmlEncoding@@@Z ; TiXmlBase::SkipWhiteSpace
  00017	8b f0		 mov	 esi, eax
  00019	83 c4 08	 add	 esp, 8
  0001c	89 75 08	 mov	 DWORD PTR _pErr$1$[ebp], esi

; 1396 : 	if ( !p || !*p ) return 0;

  0001f	85 f6		 test	 esi, esi
  00021	0f 84 d6 02 00
	00		 je	 $LN5@Parse
  00027	80 3e 00	 cmp	 BYTE PTR [esi], 0
  0002a	0f 84 cd 02 00
	00		 je	 $LN5@Parse

; 1397 : 
; 1398 : //	int tabsize = 4;
; 1399 : //	if ( document )
; 1400 : //		tabsize = document->TabSize();
; 1401 : 
; 1402 : 	if ( data )

  00030	8b 7d 0c	 mov	 edi, DWORD PTR _data$[ebp]
  00033	85 ff		 test	 edi, edi
  00035	74 16		 je	 SHORT $LN6@Parse

; 1403 : 	{
; 1404 : 		data->Stamp( p, encoding );

  00037	ff 75 10	 push	 DWORD PTR _encoding$[ebp]
  0003a	8b cf		 mov	 ecx, edi
  0003c	56		 push	 esi
  0003d	e8 00 00 00 00	 call	 ?Stamp@TiXmlParsingData@@QAEXPBDW4TiXmlEncoding@@@Z ; TiXmlParsingData::Stamp

; 1405 : 		location = data->Cursor();

  00042	8b 07		 mov	 eax, DWORD PTR [edi]
  00044	8b 4f 04	 mov	 ecx, DWORD PTR [edi+4]
  00047	89 43 04	 mov	 DWORD PTR [ebx+4], eax
  0004a	89 4b 08	 mov	 DWORD PTR [ebx+8], ecx
$LN6@Parse:

; 1406 : 	}
; 1407 : 	// Read the name, the '=' and the value.
; 1408 : 	const char* pErr = p;
; 1409 : 	p = ReadName( p, &name, encoding );

  0004d	ff 75 10	 push	 DWORD PTR _encoding$[ebp]
  00050	8d 43 14	 lea	 eax, DWORD PTR [ebx+20]
  00053	50		 push	 eax
  00054	56		 push	 esi
  00055	e8 00 00 00 00	 call	 ?ReadName@TiXmlBase@@KAPBDPBDPAVTiXmlString@@W4TiXmlEncoding@@@Z ; TiXmlBase::ReadName
  0005a	83 c4 0c	 add	 esp, 12			; 0000000cH

; 1410 : 	if ( !p || !*p )

  0005d	85 c0		 test	 eax, eax
  0005f	0f 84 31 02 00
	00		 je	 $LN8@Parse
  00065	80 38 00	 cmp	 BYTE PTR [eax], 0
  00068	0f 84 28 02 00
	00		 je	 $LN8@Parse

; 1413 : 		return 0;
; 1414 : 	}
; 1415 : 	p = SkipWhiteSpace( p, encoding );

  0006e	8b 75 10	 mov	 esi, DWORD PTR _encoding$[ebp]
  00071	56		 push	 esi
  00072	50		 push	 eax
  00073	e8 00 00 00 00	 call	 ?SkipWhiteSpace@TiXmlBase@@KAPBDPBDW4TiXmlEncoding@@@Z ; TiXmlBase::SkipWhiteSpace
  00078	83 c4 08	 add	 esp, 8
  0007b	89 45 08	 mov	 DWORD PTR _p$4$[ebp], eax

; 1416 : 	if ( !p || !*p || *p != '=' )

  0007e	85 c0		 test	 eax, eax
  00080	0f 84 b3 01 00
	00		 je	 $LN11@Parse
  00086	8a 08		 mov	 cl, BYTE PTR [eax]
  00088	84 c9		 test	 cl, cl
  0008a	0f 84 a9 01 00
	00		 je	 $LN11@Parse
  00090	80 f9 3d	 cmp	 cl, 61			; 0000003dH
  00093	0f 85 a0 01 00
	00		 jne	 $LN11@Parse

; 1419 : 		return 0;
; 1420 : 	}
; 1421 : 
; 1422 : 	++p;	// skip '='

  00099	40		 inc	 eax

; 1423 : 	p = SkipWhiteSpace( p, encoding );

  0009a	56		 push	 esi
  0009b	50		 push	 eax
  0009c	e8 00 00 00 00	 call	 ?SkipWhiteSpace@TiXmlBase@@KAPBDPBDW4TiXmlEncoding@@@Z ; TiXmlBase::SkipWhiteSpace
  000a1	8b f0		 mov	 esi, eax
  000a3	83 c4 08	 add	 esp, 8

; 1424 : 	if ( !p || !*p )

  000a6	85 f6		 test	 esi, esi
  000a8	0f 84 0a 01 00
	00		 je	 $LN14@Parse
  000ae	8a 0e		 mov	 cl, BYTE PTR [esi]
  000b0	84 c9		 test	 cl, cl
  000b2	0f 84 00 01 00
	00		 je	 $LN14@Parse

; 1427 : 		return 0;
; 1428 : 	}
; 1429 : 	
; 1430 : 	const char* end;
; 1431 : 	const char SINGLE_QUOTE = '\'';
; 1432 : 	const char DOUBLE_QUOTE = '\"';
; 1433 : 
; 1434 : 	if ( *p == SINGLE_QUOTE )

  000b8	8d 43 18	 lea	 eax, DWORD PTR [ebx+24]
  000bb	89 45 0c	 mov	 DWORD PTR tv547[ebp], eax
  000be	80 f9 27	 cmp	 cl, 39			; 00000027H
  000c1	75 0c		 jne	 SHORT $LN16@Parse

; 1435 : 	{
; 1436 : 		++p;
; 1437 : 		end = "\'";		// single quote in string
; 1438 : 		p = ReadText( p, &value, false, end, false, encoding );

  000c3	ff 75 10	 push	 DWORD PTR _encoding$[ebp]
  000c6	6a 00		 push	 0
  000c8	68 00 00 00 00	 push	 OFFSET ??_C@_01GEODFPGF@?8@

; 1439 : 	}

  000cd	eb 0f		 jmp	 SHORT $LN125@Parse
$LN16@Parse:

; 1440 : 	else if ( *p == DOUBLE_QUOTE )

  000cf	80 f9 22	 cmp	 cl, 34			; 00000022H
  000d2	75 26		 jne	 SHORT $LN18@Parse

; 1441 : 	{
; 1442 : 		++p;
; 1443 : 		end = "\"";		// double quote in string
; 1444 : 		p = ReadText( p, &value, false, end, false, encoding );

  000d4	ff 75 10	 push	 DWORD PTR _encoding$[ebp]
  000d7	6a 00		 push	 0
  000d9	68 00 00 00 00	 push	 OFFSET ??_C@_01BJJEKLCA@?$CC@
$LN125@Parse:

; 1465 : 		}
; 1466 : 	}
; 1467 : 	return p;

  000de	6a 00		 push	 0
  000e0	50		 push	 eax
  000e1	8d 46 01	 lea	 eax, DWORD PTR [esi+1]
  000e4	50		 push	 eax
  000e5	e8 00 00 00 00	 call	 ?ReadText@TiXmlBase@@KAPBDPBDPAVTiXmlString@@_N02W4TiXmlEncoding@@@Z ; TiXmlBase::ReadText
  000ea	83 c4 18	 add	 esp, 24			; 00000018H
  000ed	8b f0		 mov	 esi, eax
$LN3@Parse:
  000ef	5f		 pop	 edi
  000f0	8b c6		 mov	 eax, esi

; 1468 : }

  000f2	5e		 pop	 esi
  000f3	5b		 pop	 ebx
  000f4	8b e5		 mov	 esp, ebp
  000f6	5d		 pop	 ebp
  000f7	c2 0c 00	 ret	 12			; 0000000cH
$LN18@Parse:
; File E:\Proyectos\JuegosOnlineproyectos\PB\pbblow\Piercing Blow Remake\i3Server\include\i3Base\tinystr.h

; 114  : 		return assign( copy, (size_type)strlen(copy));

  000fa	6a 00		 push	 0
  000fc	68 00 00 00 00	 push	 OFFSET ??_C@_00CNPNBAHC@@
  00101	8b c8		 mov	 ecx, eax
  00103	e8 00 00 00 00	 call	 ?assign@TiXmlString@@QAEAAV1@PBDI@Z ; TiXmlString::assign
$LL2@Parse:
; File E:\Proyectos\JuegosOnlineproyectos\PB\pbblow\Piercing Blow Remake\i3Server\src\i3Base\tinyxmlparser.cpp

; 1454 : 				&& *p != '/' && *p != '>' )							// tag end

  00108	8a 1e		 mov	 bl, BYTE PTR [esi]
  0010a	84 db		 test	 bl, bl
  0010c	74 e1		 je	 SHORT $LN3@Parse
; File E:\Proyectos\JuegosOnlineproyectos\PB\pbblow\Piercing Blow Remake\i3Server\include\i3Base\tinyxml.h

; 296  : 		return ( isspace( (unsigned char) c ) || c == '\n' || c == '\r' ); 

  0010e	0f b6 c3	 movzx	 eax, bl
  00111	50		 push	 eax
  00112	e8 00 00 00 00	 call	 _isspace
  00117	83 c4 04	 add	 esp, 4
  0011a	85 c0		 test	 eax, eax
  0011c	75 d1		 jne	 SHORT $LN3@Parse
  0011e	80 fb 0a	 cmp	 bl, 10			; 0000000aH
  00121	74 cc		 je	 SHORT $LN3@Parse
  00123	80 fb 0d	 cmp	 bl, 13			; 0000000dH
  00126	74 c7		 je	 SHORT $LN3@Parse
; File E:\Proyectos\JuegosOnlineproyectos\PB\pbblow\Piercing Blow Remake\i3Server\src\i3Base\tinyxmlparser.cpp

; 1454 : 				&& *p != '/' && *p != '>' )							// tag end

  00128	8a 06		 mov	 al, BYTE PTR [esi]
  0012a	3c 0a		 cmp	 al, 10			; 0000000aH
  0012c	74 c1		 je	 SHORT $LN3@Parse
  0012e	3c 0d		 cmp	 al, 13			; 0000000dH
  00130	74 bd		 je	 SHORT $LN3@Parse
  00132	3c 2f		 cmp	 al, 47			; 0000002fH
  00134	74 b9		 je	 SHORT $LN3@Parse
  00136	3c 3e		 cmp	 al, 62			; 0000003eH
  00138	74 b5		 je	 SHORT $LN3@Parse

; 1455 : 		{
; 1456 : 			if ( *p == SINGLE_QUOTE || *p == DOUBLE_QUOTE ) {

  0013a	3c 27		 cmp	 al, 39			; 00000027H
  0013c	74 25		 je	 SHORT $LN75@Parse
  0013e	3c 22		 cmp	 al, 34			; 00000022H
  00140	74 21		 je	 SHORT $LN75@Parse
; File E:\Proyectos\JuegosOnlineproyectos\PB\pbblow\Piercing Blow Remake\i3Server\include\i3Base\tinystr.h

; 133  : 		return append(&single, 1);

  00142	8b 4d 0c	 mov	 ecx, DWORD PTR tv547[ebp]
; File E:\Proyectos\JuegosOnlineproyectos\PB\pbblow\Piercing Blow Remake\i3Server\src\i3Base\tinyxmlparser.cpp

; 1463 : 			value += *p;

  00145	88 45 08	 mov	 BYTE PTR _single$[ebp], al
; File E:\Proyectos\JuegosOnlineproyectos\PB\pbblow\Piercing Blow Remake\i3Server\include\i3Base\tinystr.h

; 133  : 		return append(&single, 1);

  00148	8d 45 08	 lea	 eax, DWORD PTR _single$[ebp]
  0014b	6a 01		 push	 1
  0014d	50		 push	 eax
  0014e	e8 00 00 00 00	 call	 ?append@TiXmlString@@QAEAAV1@PBDI@Z ; TiXmlString::append
; File E:\Proyectos\JuegosOnlineproyectos\PB\pbblow\Piercing Blow Remake\i3Server\src\i3Base\tinyxmlparser.cpp

; 1464 : 			++p;

  00153	83 c6 01	 add	 esi, 1
  00156	75 b0		 jne	 SHORT $LL2@Parse

; 1465 : 		}
; 1466 : 	}
; 1467 : 	return p;

  00158	5f		 pop	 edi
  00159	8b c6		 mov	 eax, esi

; 1468 : }

  0015b	5e		 pop	 esi
  0015c	5b		 pop	 ebx
  0015d	8b e5		 mov	 esp, ebp
  0015f	5d		 pop	 ebp
  00160	c2 0c 00	 ret	 12			; 0000000cH
$LN75@Parse:

; 1457 : 				// [ 1451649 ] Attribute values with trailing quotes not handled correctly
; 1458 : 				// We did not have an opening quote but seem to have a 
; 1459 : 				// closing one. Give up and throw an error.
; 1460 : 				if ( document ) document->SetError( TIXML_ERROR_READING_ATTRIBUTES, p, data, encoding );

  00163	8b 5d fc	 mov	 ebx, DWORD PTR _this$1$[ebp]
  00166	8b 5b 10	 mov	 ebx, DWORD PTR [ebx+16]
  00169	85 db		 test	 ebx, ebx
  0016b	0f 84 8c 01 00
	00		 je	 $LN5@Parse

; 805  : 	if ( error )

  00171	80 7b 2c 00	 cmp	 BYTE PTR [ebx+44], 0
  00175	0f 85 82 01 00
	00		 jne	 $LN5@Parse

; 806  : 		return;
; 807  : 
; 808  : 	I3ASSERT( err > 0 && err < TIXML_ERROR_STRING_COUNT );
; 809  : 	error   = true;

  0017b	c6 43 2c 01	 mov	 BYTE PTR [ebx+44], 1

; 810  : 	errorId = err;

  0017f	c7 43 30 07 00
	00 00		 mov	 DWORD PTR [ebx+48], 7

; 811  : 	errorDesc = errorString[ errorId ];

  00186	8b 15 1c 00 00
	00		 mov	 edx, DWORD PTR ?errorString@TiXmlBase@@1PAPBDA+28
; File E:\Proyectos\JuegosOnlineproyectos\PB\pbblow\Piercing Blow Remake\i3Server\include\i3Base\tinystr.h

; 114  : 		return assign( copy, (size_type)strlen(copy));

  0018c	8b ca		 mov	 ecx, edx
  0018e	8d 41 01	 lea	 eax, DWORD PTR [ecx+1]
  00191	89 45 08	 mov	 DWORD PTR tv541[ebp], eax
$LL81@Parse:
  00194	8a 01		 mov	 al, BYTE PTR [ecx]
  00196	41		 inc	 ecx
  00197	84 c0		 test	 al, al
  00199	75 f9		 jne	 SHORT $LL81@Parse
  0019b	2b 4d 08	 sub	 ecx, DWORD PTR tv541[ebp]
  0019e	51		 push	 ecx
  0019f	52		 push	 edx
; File E:\Proyectos\JuegosOnlineproyectos\PB\pbblow\Piercing Blow Remake\i3Server\src\i3Base\tinyxmlparser.cpp

; 811  : 	errorDesc = errorString[ errorId ];

  001a0	8d 4b 34	 lea	 ecx, DWORD PTR [ebx+52]
; File E:\Proyectos\JuegosOnlineproyectos\PB\pbblow\Piercing Blow Remake\i3Server\include\i3Base\tinystr.h

; 114  : 		return assign( copy, (size_type)strlen(copy));

  001a3	e8 00 00 00 00	 call	 ?assign@TiXmlString@@QAEAAV1@PBDI@Z ; TiXmlString::assign
; File E:\Proyectos\JuegosOnlineproyectos\PB\pbblow\Piercing Blow Remake\i3Server\include\i3Base\tinyxml.h

; 107  : 	void Clear()		{ row = col = -1; }

  001a8	c7 43 40 ff ff
	ff ff		 mov	 DWORD PTR [ebx+64], -1
  001af	c7 43 3c ff ff
	ff ff		 mov	 DWORD PTR [ebx+60], -1
  001b6	eb 58		 jmp	 SHORT $LN127@Parse
$LN14@Parse:
; File E:\Proyectos\JuegosOnlineproyectos\PB\pbblow\Piercing Blow Remake\i3Server\src\i3Base\tinyxmlparser.cpp

; 1426 : 		if ( document ) document->SetError( TIXML_ERROR_READING_ATTRIBUTES, p, data, encoding );

  001b8	8b 5b 10	 mov	 ebx, DWORD PTR [ebx+16]
  001bb	85 db		 test	 ebx, ebx
  001bd	0f 84 3a 01 00
	00		 je	 $LN5@Parse

; 805  : 	if ( error )

  001c3	80 7b 2c 00	 cmp	 BYTE PTR [ebx+44], 0
  001c7	0f 85 30 01 00
	00		 jne	 $LN5@Parse

; 806  : 		return;
; 807  : 
; 808  : 	I3ASSERT( err > 0 && err < TIXML_ERROR_STRING_COUNT );
; 809  : 	error   = true;

  001cd	c6 43 2c 01	 mov	 BYTE PTR [ebx+44], 1

; 810  : 	errorId = err;

  001d1	c7 43 30 07 00
	00 00		 mov	 DWORD PTR [ebx+48], 7

; 811  : 	errorDesc = errorString[ errorId ];

  001d8	8b 15 1c 00 00
	00		 mov	 edx, DWORD PTR ?errorString@TiXmlBase@@1PAPBDA+28
; File E:\Proyectos\JuegosOnlineproyectos\PB\pbblow\Piercing Blow Remake\i3Server\include\i3Base\tinystr.h

; 114  : 		return assign( copy, (size_type)strlen(copy));

  001de	8b ca		 mov	 ecx, edx
  001e0	8d 41 01	 lea	 eax, DWORD PTR [ecx+1]
  001e3	89 45 08	 mov	 DWORD PTR tv544[ebp], eax
$LL82@Parse:
  001e6	8a 01		 mov	 al, BYTE PTR [ecx]
  001e8	41		 inc	 ecx
  001e9	84 c0		 test	 al, al
  001eb	75 f9		 jne	 SHORT $LL82@Parse
  001ed	2b 4d 08	 sub	 ecx, DWORD PTR tv544[ebp]
  001f0	51		 push	 ecx
  001f1	52		 push	 edx
; File E:\Proyectos\JuegosOnlineproyectos\PB\pbblow\Piercing Blow Remake\i3Server\src\i3Base\tinyxmlparser.cpp

; 811  : 	errorDesc = errorString[ errorId ];

  001f2	8d 4b 34	 lea	 ecx, DWORD PTR [ebx+52]
; File E:\Proyectos\JuegosOnlineproyectos\PB\pbblow\Piercing Blow Remake\i3Server\include\i3Base\tinystr.h

; 114  : 		return assign( copy, (size_type)strlen(copy));

  001f5	e8 00 00 00 00	 call	 ?assign@TiXmlString@@QAEAAV1@PBDI@Z ; TiXmlString::assign
; File E:\Proyectos\JuegosOnlineproyectos\PB\pbblow\Piercing Blow Remake\i3Server\include\i3Base\tinyxml.h

; 107  : 	void Clear()		{ row = col = -1; }

  001fa	c7 43 40 ff ff
	ff ff		 mov	 DWORD PTR [ebx+64], -1
  00201	c7 43 3c ff ff
	ff ff		 mov	 DWORD PTR [ebx+60], -1
; File E:\Proyectos\JuegosOnlineproyectos\PB\pbblow\Piercing Blow Remake\i3Server\src\i3Base\tinyxmlparser.cpp

; 814  : 	if ( pError && data )

  00208	85 f6		 test	 esi, esi
  0020a	0f 84 ed 00 00
	00		 je	 $LN5@Parse
$LN127@Parse:

; 1396 : 	if ( !p || !*p ) return 0;

  00210	85 ff		 test	 edi, edi
  00212	0f 84 e5 00 00
	00		 je	 $LN5@Parse
  00218	ff 75 10	 push	 DWORD PTR _encoding$[ebp]
  0021b	8b cf		 mov	 ecx, edi
  0021d	56		 push	 esi
  0021e	e8 00 00 00 00	 call	 ?Stamp@TiXmlParsingData@@QAEXPBDW4TiXmlEncoding@@@Z ; TiXmlParsingData::Stamp
  00223	8b 07		 mov	 eax, DWORD PTR [edi]
  00225	8b 4f 04	 mov	 ecx, DWORD PTR [edi+4]
  00228	5f		 pop	 edi
  00229	89 43 3c	 mov	 DWORD PTR [ebx+60], eax
  0022c	33 c0		 xor	 eax, eax

; 1468 : }

  0022e	5e		 pop	 esi
  0022f	89 4b 40	 mov	 DWORD PTR [ebx+64], ecx
  00232	5b		 pop	 ebx
  00233	8b e5		 mov	 esp, ebp
  00235	5d		 pop	 ebp
  00236	c2 0c 00	 ret	 12			; 0000000cH
$LN11@Parse:

; 1417 : 	{
; 1418 : 		if ( document ) document->SetError( TIXML_ERROR_READING_ATTRIBUTES, p, data, encoding );

  00239	8b 73 10	 mov	 esi, DWORD PTR [ebx+16]
  0023c	85 f6		 test	 esi, esi
  0023e	0f 84 b9 00 00
	00		 je	 $LN5@Parse

; 805  : 	if ( error )

  00244	80 7e 2c 00	 cmp	 BYTE PTR [esi+44], 0
  00248	0f 85 af 00 00
	00		 jne	 $LN5@Parse

; 806  : 		return;
; 807  : 
; 808  : 	I3ASSERT( err > 0 && err < TIXML_ERROR_STRING_COUNT );
; 809  : 	error   = true;

  0024e	c6 46 2c 01	 mov	 BYTE PTR [esi+44], 1

; 810  : 	errorId = err;

  00252	c7 46 30 07 00
	00 00		 mov	 DWORD PTR [esi+48], 7

; 811  : 	errorDesc = errorString[ errorId ];

  00259	8b 15 1c 00 00
	00		 mov	 edx, DWORD PTR ?errorString@TiXmlBase@@1PAPBDA+28
; File E:\Proyectos\JuegosOnlineproyectos\PB\pbblow\Piercing Blow Remake\i3Server\include\i3Base\tinystr.h

; 114  : 		return assign( copy, (size_type)strlen(copy));

  0025f	8b ca		 mov	 ecx, edx
  00261	8d 59 01	 lea	 ebx, DWORD PTR [ecx+1]
$LL83@Parse:
  00264	8a 01		 mov	 al, BYTE PTR [ecx]
  00266	41		 inc	 ecx
  00267	84 c0		 test	 al, al
  00269	75 f9		 jne	 SHORT $LL83@Parse
  0026b	2b cb		 sub	 ecx, ebx
  0026d	51		 push	 ecx
  0026e	52		 push	 edx
; File E:\Proyectos\JuegosOnlineproyectos\PB\pbblow\Piercing Blow Remake\i3Server\src\i3Base\tinyxmlparser.cpp

; 811  : 	errorDesc = errorString[ errorId ];

  0026f	8d 4e 34	 lea	 ecx, DWORD PTR [esi+52]
; File E:\Proyectos\JuegosOnlineproyectos\PB\pbblow\Piercing Blow Remake\i3Server\include\i3Base\tinystr.h

; 114  : 		return assign( copy, (size_type)strlen(copy));

  00272	e8 00 00 00 00	 call	 ?assign@TiXmlString@@QAEAAV1@PBDI@Z ; TiXmlString::assign
; File E:\Proyectos\JuegosOnlineproyectos\PB\pbblow\Piercing Blow Remake\i3Server\src\i3Base\tinyxmlparser.cpp

; 814  : 	if ( pError && data )

  00277	8b 45 08	 mov	 eax, DWORD PTR _p$4$[ebp]
; File E:\Proyectos\JuegosOnlineproyectos\PB\pbblow\Piercing Blow Remake\i3Server\include\i3Base\tinyxml.h

; 107  : 	void Clear()		{ row = col = -1; }

  0027a	c7 46 40 ff ff
	ff ff		 mov	 DWORD PTR [esi+64], -1
  00281	c7 46 3c ff ff
	ff ff		 mov	 DWORD PTR [esi+60], -1
; File E:\Proyectos\JuegosOnlineproyectos\PB\pbblow\Piercing Blow Remake\i3Server\src\i3Base\tinyxmlparser.cpp

; 814  : 	if ( pError && data )

  00288	85 c0		 test	 eax, eax
  0028a	74 71		 je	 SHORT $LN5@Parse
  0028c	85 ff		 test	 edi, edi
  0028e	74 6d		 je	 SHORT $LN5@Parse

; 815  : 	{
; 816  : 		data->Stamp( pError, encoding );

  00290	ff 75 10	 push	 DWORD PTR _encoding$[ebp]
  00293	50		 push	 eax
  00294	eb 55		 jmp	 SHORT $LN126@Parse
$LN8@Parse:

; 1411 : 	{
; 1412 : 		if ( document ) document->SetError( TIXML_ERROR_READING_ATTRIBUTES, pErr, data, encoding );

  00296	8b 73 10	 mov	 esi, DWORD PTR [ebx+16]
  00299	85 f6		 test	 esi, esi
  0029b	74 60		 je	 SHORT $LN5@Parse

; 805  : 	if ( error )

  0029d	80 7e 2c 00	 cmp	 BYTE PTR [esi+44], 0
  002a1	75 5a		 jne	 SHORT $LN5@Parse

; 806  : 		return;
; 807  : 
; 808  : 	I3ASSERT( err > 0 && err < TIXML_ERROR_STRING_COUNT );
; 809  : 	error   = true;

  002a3	c6 46 2c 01	 mov	 BYTE PTR [esi+44], 1

; 810  : 	errorId = err;

  002a7	c7 46 30 07 00
	00 00		 mov	 DWORD PTR [esi+48], 7

; 811  : 	errorDesc = errorString[ errorId ];

  002ae	8b 15 1c 00 00
	00		 mov	 edx, DWORD PTR ?errorString@TiXmlBase@@1PAPBDA+28
; File E:\Proyectos\JuegosOnlineproyectos\PB\pbblow\Piercing Blow Remake\i3Server\include\i3Base\tinystr.h

; 114  : 		return assign( copy, (size_type)strlen(copy));

  002b4	8b ca		 mov	 ecx, edx
  002b6	8d 59 01	 lea	 ebx, DWORD PTR [ecx+1]
  002b9	8d a4 24 00 00
	00 00		 npad	 7
$LL84@Parse:
  002c0	8a 01		 mov	 al, BYTE PTR [ecx]
  002c2	41		 inc	 ecx
  002c3	84 c0		 test	 al, al
  002c5	75 f9		 jne	 SHORT $LL84@Parse
  002c7	2b cb		 sub	 ecx, ebx
  002c9	51		 push	 ecx
  002ca	52		 push	 edx
; File E:\Proyectos\JuegosOnlineproyectos\PB\pbblow\Piercing Blow Remake\i3Server\src\i3Base\tinyxmlparser.cpp

; 811  : 	errorDesc = errorString[ errorId ];

  002cb	8d 4e 34	 lea	 ecx, DWORD PTR [esi+52]
; File E:\Proyectos\JuegosOnlineproyectos\PB\pbblow\Piercing Blow Remake\i3Server\include\i3Base\tinystr.h

; 114  : 		return assign( copy, (size_type)strlen(copy));

  002ce	e8 00 00 00 00	 call	 ?assign@TiXmlString@@QAEAAV1@PBDI@Z ; TiXmlString::assign
; File E:\Proyectos\JuegosOnlineproyectos\PB\pbblow\Piercing Blow Remake\i3Server\include\i3Base\tinyxml.h

; 107  : 	void Clear()		{ row = col = -1; }

  002d3	c7 46 40 ff ff
	ff ff		 mov	 DWORD PTR [esi+64], -1
  002da	c7 46 3c ff ff
	ff ff		 mov	 DWORD PTR [esi+60], -1
; File E:\Proyectos\JuegosOnlineproyectos\PB\pbblow\Piercing Blow Remake\i3Server\src\i3Base\tinyxmlparser.cpp

; 814  : 	if ( pError && data )

  002e1	85 ff		 test	 edi, edi
  002e3	74 18		 je	 SHORT $LN5@Parse

; 815  : 	{
; 816  : 		data->Stamp( pError, encoding );

  002e5	ff 75 10	 push	 DWORD PTR _encoding$[ebp]
  002e8	ff 75 08	 push	 DWORD PTR _pErr$1$[ebp]
$LN126@Parse:

; 1396 : 	if ( !p || !*p ) return 0;

  002eb	8b cf		 mov	 ecx, edi
  002ed	e8 00 00 00 00	 call	 ?Stamp@TiXmlParsingData@@QAEXPBDW4TiXmlEncoding@@@Z ; TiXmlParsingData::Stamp
  002f2	8b 07		 mov	 eax, DWORD PTR [edi]
  002f4	8b 4f 04	 mov	 ecx, DWORD PTR [edi+4]
  002f7	89 4e 40	 mov	 DWORD PTR [esi+64], ecx
  002fa	89 46 3c	 mov	 DWORD PTR [esi+60], eax
$LN5@Parse:

; 1468 : }

  002fd	5f		 pop	 edi
  002fe	5e		 pop	 esi
  002ff	33 c0		 xor	 eax, eax
  00301	5b		 pop	 ebx
  00302	8b e5		 mov	 esp, ebp
  00304	5d		 pop	 ebp
  00305	c2 0c 00	 ret	 12			; 0000000cH
?Parse@TiXmlAttribute@@UAEPBDPBDPAVTiXmlParsingData@@W4TiXmlEncoding@@@Z ENDP ; TiXmlAttribute::Parse
_TEXT	ENDS
; Function compile flags: /Ogtp
; File E:\Proyectos\JuegosOnlineproyectos\PB\pbblow\Piercing Blow Remake\i3Server\include\i3Base\tinyxml.h
; File E:\Proyectos\JuegosOnlineproyectos\PB\pbblow\Piercing Blow Remake\i3Server\include\i3Base\tinystr.h
; File E:\Proyectos\JuegosOnlineproyectos\PB\pbblow\Piercing Blow Remake\i3Server\include\i3Base\tinyxml.h
; File E:\Proyectos\JuegosOnlineproyectos\PB\pbblow\Piercing Blow Remake\i3Server\include\i3Base\tinystr.h
; File E:\Proyectos\JuegosOnlineproyectos\PB\pbblow\Piercing Blow Remake\i3Server\include\i3Base\tinyxml.h
;	COMDAT ??OTiXmlAttribute@@QBE_NABV0@@Z
_TEXT	SEGMENT
_rhs$ = 8						; size = 4
??OTiXmlAttribute@@QBE_NABV0@@Z PROC			; TiXmlAttribute::operator>, COMDAT
; _this$ = ecx

; 866  : 	bool operator>( const TiXmlAttribute& rhs )  const { return name > rhs.name; }

  00000	55		 push	 ebp
  00001	8b ec		 mov	 ebp, esp
; File E:\Proyectos\JuegosOnlineproyectos\PB\pbblow\Piercing Blow Remake\i3Server\include\i3Base\tinystr.h

; 144  : 	const char * c_str () const { return rep_->str; }

  00003	8b 41 14	 mov	 eax, DWORD PTR [ecx+20]
  00006	8b 4d 08	 mov	 ecx, DWORD PTR _rhs$[ebp]
  00009	83 c0 08	 add	 eax, 8
  0000c	8b 49 14	 mov	 ecx, DWORD PTR [ecx+20]
  0000f	83 c1 08	 add	 ecx, 8
$LL11@operator:

; 278  : 	return strcmp(a.c_str(), b.c_str()) < 0;

  00012	8a 11		 mov	 dl, BYTE PTR [ecx]
  00014	3a 10		 cmp	 dl, BYTE PTR [eax]
  00016	75 1f		 jne	 SHORT $LN12@operator
  00018	84 d2		 test	 dl, dl
  0001a	74 12		 je	 SHORT $LN13@operator
  0001c	8a 51 01	 mov	 dl, BYTE PTR [ecx+1]
  0001f	3a 50 01	 cmp	 dl, BYTE PTR [eax+1]
  00022	75 13		 jne	 SHORT $LN12@operator
  00024	83 c1 02	 add	 ecx, 2
  00027	83 c0 02	 add	 eax, 2
  0002a	84 d2		 test	 dl, dl
  0002c	75 e4		 jne	 SHORT $LL11@operator
$LN13@operator:
  0002e	b8 00 00 00 00	 mov	 eax, 0
; File E:\Proyectos\JuegosOnlineproyectos\PB\pbblow\Piercing Blow Remake\i3Server\include\i3Base\tinyxml.h

; 866  : 	bool operator>( const TiXmlAttribute& rhs )  const { return name > rhs.name; }

  00033	5d		 pop	 ebp
  00034	c2 04 00	 ret	 4
$LN12@operator:
; File E:\Proyectos\JuegosOnlineproyectos\PB\pbblow\Piercing Blow Remake\i3Server\include\i3Base\tinystr.h

; 278  : 	return strcmp(a.c_str(), b.c_str()) < 0;

  00037	1b c0		 sbb	 eax, eax
  00039	83 c8 01	 or	 eax, 1
  0003c	c1 e8 1f	 shr	 eax, 31			; 0000001fH
; File E:\Proyectos\JuegosOnlineproyectos\PB\pbblow\Piercing Blow Remake\i3Server\include\i3Base\tinyxml.h

; 866  : 	bool operator>( const TiXmlAttribute& rhs )  const { return name > rhs.name; }

  0003f	5d		 pop	 ebp
  00040	c2 04 00	 ret	 4
??OTiXmlAttribute@@QBE_NABV0@@Z ENDP			; TiXmlAttribute::operator>
_TEXT	ENDS
; Function compile flags: /Ogtp
; File E:\Proyectos\JuegosOnlineproyectos\PB\pbblow\Piercing Blow Remake\i3Server\include\i3Base\tinyxml.h
; File E:\Proyectos\JuegosOnlineproyectos\PB\pbblow\Piercing Blow Remake\i3Server\include\i3Base\tinystr.h
; File E:\Proyectos\JuegosOnlineproyectos\PB\pbblow\Piercing Blow Remake\i3Server\include\i3Base\tinyxml.h
; File E:\Proyectos\JuegosOnlineproyectos\PB\pbblow\Piercing Blow Remake\i3Server\include\i3Base\tinystr.h
; File E:\Proyectos\JuegosOnlineproyectos\PB\pbblow\Piercing Blow Remake\i3Server\include\i3Base\tinyxml.h
;	COMDAT ??MTiXmlAttribute@@QBE_NABV0@@Z
_TEXT	SEGMENT
_rhs$ = 8						; size = 4
??MTiXmlAttribute@@QBE_NABV0@@Z PROC			; TiXmlAttribute::operator<, COMDAT
; _this$ = ecx

; 865  : 	bool operator<( const TiXmlAttribute& rhs )	 const { return name < rhs.name; }

  00000	55		 push	 ebp
  00001	8b ec		 mov	 ebp, esp
; File E:\Proyectos\JuegosOnlineproyectos\PB\pbblow\Piercing Blow Remake\i3Server\include\i3Base\tinystr.h

; 144  : 	const char * c_str () const { return rep_->str; }

  00003	8b 45 08	 mov	 eax, DWORD PTR _rhs$[ebp]
  00006	8b 49 14	 mov	 ecx, DWORD PTR [ecx+20]
  00009	8b 40 14	 mov	 eax, DWORD PTR [eax+20]
  0000c	83 c0 08	 add	 eax, 8
  0000f	83 c1 08	 add	 ecx, 8
$LL9@operator:

; 278  : 	return strcmp(a.c_str(), b.c_str()) < 0;

  00012	8a 11		 mov	 dl, BYTE PTR [ecx]
  00014	3a 10		 cmp	 dl, BYTE PTR [eax]
  00016	75 1f		 jne	 SHORT $LN10@operator
  00018	84 d2		 test	 dl, dl
  0001a	74 12		 je	 SHORT $LN11@operator
  0001c	8a 51 01	 mov	 dl, BYTE PTR [ecx+1]
  0001f	3a 50 01	 cmp	 dl, BYTE PTR [eax+1]
  00022	75 13		 jne	 SHORT $LN10@operator
  00024	83 c1 02	 add	 ecx, 2
  00027	83 c0 02	 add	 eax, 2
  0002a	84 d2		 test	 dl, dl
  0002c	75 e4		 jne	 SHORT $LL9@operator
$LN11@operator:
  0002e	b8 00 00 00 00	 mov	 eax, 0
; File E:\Proyectos\JuegosOnlineproyectos\PB\pbblow\Piercing Blow Remake\i3Server\include\i3Base\tinyxml.h

; 865  : 	bool operator<( const TiXmlAttribute& rhs )	 const { return name < rhs.name; }

  00033	5d		 pop	 ebp
  00034	c2 04 00	 ret	 4
$LN10@operator:
; File E:\Proyectos\JuegosOnlineproyectos\PB\pbblow\Piercing Blow Remake\i3Server\include\i3Base\tinystr.h

; 278  : 	return strcmp(a.c_str(), b.c_str()) < 0;

  00037	1b c0		 sbb	 eax, eax
  00039	83 c8 01	 or	 eax, 1
  0003c	c1 e8 1f	 shr	 eax, 31			; 0000001fH
; File E:\Proyectos\JuegosOnlineproyectos\PB\pbblow\Piercing Blow Remake\i3Server\include\i3Base\tinyxml.h

; 865  : 	bool operator<( const TiXmlAttribute& rhs )	 const { return name < rhs.name; }

  0003f	5d		 pop	 ebp
  00040	c2 04 00	 ret	 4
??MTiXmlAttribute@@QBE_NABV0@@Z ENDP			; TiXmlAttribute::operator<
_TEXT	ENDS
; Function compile flags: /Ogtp
; File E:\Proyectos\JuegosOnlineproyectos\PB\pbblow\Piercing Blow Remake\i3Server\include\i3Base\tinyxml.h
; File E:\Proyectos\JuegosOnlineproyectos\PB\pbblow\Piercing Blow Remake\i3Server\include\i3Base\tinystr.h
; File E:\Proyectos\JuegosOnlineproyectos\PB\pbblow\Piercing Blow Remake\i3Server\include\i3Base\tinyxml.h
; File E:\Proyectos\JuegosOnlineproyectos\PB\pbblow\Piercing Blow Remake\i3Server\include\i3Base\tinystr.h
; File E:\Proyectos\JuegosOnlineproyectos\PB\pbblow\Piercing Blow Remake\i3Server\include\i3Base\tinyxml.h
;	COMDAT ??8TiXmlAttribute@@QBE_NABV0@@Z
_TEXT	SEGMENT
_rhs$ = 8						; size = 4
??8TiXmlAttribute@@QBE_NABV0@@Z PROC			; TiXmlAttribute::operator==, COMDAT
; _this$ = ecx

; 864  : 	bool operator==( const TiXmlAttribute& rhs ) const { return rhs.name == name; }

  00000	55		 push	 ebp
  00001	8b ec		 mov	 ebp, esp
; File E:\Proyectos\JuegosOnlineproyectos\PB\pbblow\Piercing Blow Remake\i3Server\include\i3Base\tinystr.h

; 150  : 	size_type length () const { return rep_->size; }

  00003	8b 45 08	 mov	 eax, DWORD PTR _rhs$[ebp]
  00006	8b 49 14	 mov	 ecx, DWORD PTR [ecx+20]
  00009	8b 50 14	 mov	 edx, DWORD PTR [eax+20]

; 273  : 	return    ( a.length() == b.length() )				// optimization on some platforms

  0000c	8b 02		 mov	 eax, DWORD PTR [edx]
  0000e	3b 01		 cmp	 eax, DWORD PTR [ecx]
  00010	75 35		 jne	 SHORT $LN5@operator

; 144  : 	const char * c_str () const { return rep_->str; }

  00012	83 c1 08	 add	 ecx, 8
  00015	8d 42 08	 lea	 eax, DWORD PTR [edx+8]
$LL15@operator:

; 273  : 	return    ( a.length() == b.length() )				// optimization on some platforms

  00018	8a 10		 mov	 dl, BYTE PTR [eax]
  0001a	3a 11		 cmp	 dl, BYTE PTR [ecx]
  0001c	75 1a		 jne	 SHORT $LN16@operator
  0001e	84 d2		 test	 dl, dl
  00020	74 12		 je	 SHORT $LN17@operator
  00022	8a 50 01	 mov	 dl, BYTE PTR [eax+1]
  00025	3a 51 01	 cmp	 dl, BYTE PTR [ecx+1]
  00028	75 0e		 jne	 SHORT $LN16@operator
  0002a	83 c0 02	 add	 eax, 2
  0002d	83 c1 02	 add	 ecx, 2
  00030	84 d2		 test	 dl, dl
  00032	75 e4		 jne	 SHORT $LL15@operator
$LN17@operator:
  00034	33 c0		 xor	 eax, eax
  00036	eb 05		 jmp	 SHORT $LN18@operator
$LN16@operator:
  00038	1b c0		 sbb	 eax, eax
  0003a	83 c8 01	 or	 eax, 1
$LN18@operator:
  0003d	85 c0		 test	 eax, eax
  0003f	75 06		 jne	 SHORT $LN5@operator
  00041	b0 01		 mov	 al, 1
; File E:\Proyectos\JuegosOnlineproyectos\PB\pbblow\Piercing Blow Remake\i3Server\include\i3Base\tinyxml.h

; 864  : 	bool operator==( const TiXmlAttribute& rhs ) const { return rhs.name == name; }

  00043	5d		 pop	 ebp
  00044	c2 04 00	 ret	 4
$LN5@operator:
; File E:\Proyectos\JuegosOnlineproyectos\PB\pbblow\Piercing Blow Remake\i3Server\include\i3Base\tinystr.h

; 273  : 	return    ( a.length() == b.length() )				// optimization on some platforms

  00047	32 c0		 xor	 al, al
; File E:\Proyectos\JuegosOnlineproyectos\PB\pbblow\Piercing Blow Remake\i3Server\include\i3Base\tinyxml.h

; 864  : 	bool operator==( const TiXmlAttribute& rhs ) const { return rhs.name == name; }

  00049	5d		 pop	 ebp
  0004a	c2 04 00	 ret	 4
??8TiXmlAttribute@@QBE_NABV0@@Z ENDP			; TiXmlAttribute::operator==
_TEXT	ENDS
; Function compile flags: /Ogtp
; File E:\Proyectos\JuegosOnlineproyectos\PB\pbblow\Piercing Blow Remake\i3Server\include\i3Base\tinyxml.h
;	COMDAT ?Previous@TiXmlAttribute@@QAEPAV1@XZ
_TEXT	SEGMENT
?Previous@TiXmlAttribute@@QAEPAV1@XZ PROC		; TiXmlAttribute::Previous, COMDAT
; _this$ = ecx

; 861  : 		return const_cast< TiXmlAttribute* >( (const_cast< const TiXmlAttribute* >(this))->Previous() ); 

  00000	e9 00 00 00 00	 jmp	 ?Previous@TiXmlAttribute@@QBEPBV1@XZ ; TiXmlAttribute::Previous
?Previous@TiXmlAttribute@@QAEPAV1@XZ ENDP		; TiXmlAttribute::Previous
_TEXT	ENDS
; Function compile flags: /Ogtp
; File E:\Proyectos\JuegosOnlineproyectos\PB\pbblow\Piercing Blow Remake\i3Server\include\i3Base\tinyxml.h
;	COMDAT ?Next@TiXmlAttribute@@QAEPAV1@XZ
_TEXT	SEGMENT
?Next@TiXmlAttribute@@QAEPAV1@XZ PROC			; TiXmlAttribute::Next, COMDAT
; _this$ = ecx

; 855  : 		return const_cast< TiXmlAttribute* >( (const_cast< const TiXmlAttribute* >(this))->Next() ); 

  00000	e9 00 00 00 00	 jmp	 ?Next@TiXmlAttribute@@QBEPBV1@XZ ; TiXmlAttribute::Next
?Next@TiXmlAttribute@@QAEPAV1@XZ ENDP			; TiXmlAttribute::Next
_TEXT	ENDS
; Function compile flags: /Ogtp
; File E:\Proyectos\JuegosOnlineproyectos\PB\pbblow\Piercing Blow Remake\i3Server\include\i3Base\tinyxml.h
; File E:\Proyectos\JuegosOnlineproyectos\PB\pbblow\Piercing Blow Remake\i3Server\include\i3Base\tinystr.h
; File E:\Proyectos\JuegosOnlineproyectos\PB\pbblow\Piercing Blow Remake\i3Server\include\i3Base\tinyxml.h
; File E:\Proyectos\JuegosOnlineproyectos\PB\pbblow\Piercing Blow Remake\i3Server\include\i3Base\tinystr.h
; File E:\Proyectos\JuegosOnlineproyectos\PB\pbblow\Piercing Blow Remake\i3Server\include\i3Base\tinyxml.h
; File E:\Proyectos\JuegosOnlineproyectos\PB\pbblow\Piercing Blow Remake\i3Server\include\i3Base\tinystr.h
; File E:\Proyectos\JuegosOnlineproyectos\PB\pbblow\Piercing Blow Remake\i3Server\include\i3Base\tinyxml.h
;	COMDAT ?SetValue@TiXmlAttribute@@QAEXPBD@Z
_TEXT	SEGMENT
__value$ = 8						; size = 4
?SetValue@TiXmlAttribute@@QAEXPBD@Z PROC		; TiXmlAttribute::SetValue, COMDAT
; _this$ = ecx

; 840  : 	void SetValue( const char* _value )	{ value = _value; }				///< Set the value.

  00000	55		 push	 ebp
  00001	8b ec		 mov	 ebp, esp
; File E:\Proyectos\JuegosOnlineproyectos\PB\pbblow\Piercing Blow Remake\i3Server\include\i3Base\tinystr.h

; 114  : 		return assign( copy, (size_type)strlen(copy));

  00003	8b 55 08	 mov	 edx, DWORD PTR __value$[ebp]
  00006	8b c2		 mov	 eax, edx
; File E:\Proyectos\JuegosOnlineproyectos\PB\pbblow\Piercing Blow Remake\i3Server\include\i3Base\tinyxml.h

; 840  : 	void SetValue( const char* _value )	{ value = _value; }				///< Set the value.

  00008	56		 push	 esi
  00009	57		 push	 edi
  0000a	8b f1		 mov	 esi, ecx
; File E:\Proyectos\JuegosOnlineproyectos\PB\pbblow\Piercing Blow Remake\i3Server\include\i3Base\tinystr.h

; 114  : 		return assign( copy, (size_type)strlen(copy));

  0000c	8d 78 01	 lea	 edi, DWORD PTR [eax+1]
  0000f	90		 npad	 1
$LL5@SetValue:
  00010	8a 08		 mov	 cl, BYTE PTR [eax]
  00012	40		 inc	 eax
  00013	84 c9		 test	 cl, cl
  00015	75 f9		 jne	 SHORT $LL5@SetValue
  00017	2b c7		 sub	 eax, edi
; File E:\Proyectos\JuegosOnlineproyectos\PB\pbblow\Piercing Blow Remake\i3Server\include\i3Base\tinyxml.h

; 840  : 	void SetValue( const char* _value )	{ value = _value; }				///< Set the value.

  00019	8d 4e 18	 lea	 ecx, DWORD PTR [esi+24]
; File E:\Proyectos\JuegosOnlineproyectos\PB\pbblow\Piercing Blow Remake\i3Server\include\i3Base\tinystr.h

; 114  : 		return assign( copy, (size_type)strlen(copy));

  0001c	50		 push	 eax
  0001d	52		 push	 edx
  0001e	e8 00 00 00 00	 call	 ?assign@TiXmlString@@QAEAAV1@PBDI@Z ; TiXmlString::assign
  00023	5f		 pop	 edi
  00024	5e		 pop	 esi
; File E:\Proyectos\JuegosOnlineproyectos\PB\pbblow\Piercing Blow Remake\i3Server\include\i3Base\tinyxml.h

; 840  : 	void SetValue( const char* _value )	{ value = _value; }				///< Set the value.

  00025	5d		 pop	 ebp
  00026	c2 04 00	 ret	 4
?SetValue@TiXmlAttribute@@QAEXPBD@Z ENDP		; TiXmlAttribute::SetValue
_TEXT	ENDS
; Function compile flags: /Ogtp
; File E:\Proyectos\JuegosOnlineproyectos\PB\pbblow\Piercing Blow Remake\i3Server\include\i3Base\tinyxml.h
; File E:\Proyectos\JuegosOnlineproyectos\PB\pbblow\Piercing Blow Remake\i3Server\include\i3Base\tinystr.h
; File E:\Proyectos\JuegosOnlineproyectos\PB\pbblow\Piercing Blow Remake\i3Server\include\i3Base\tinyxml.h
; File E:\Proyectos\JuegosOnlineproyectos\PB\pbblow\Piercing Blow Remake\i3Server\include\i3Base\tinystr.h
; File E:\Proyectos\JuegosOnlineproyectos\PB\pbblow\Piercing Blow Remake\i3Server\include\i3Base\tinyxml.h
; File E:\Proyectos\JuegosOnlineproyectos\PB\pbblow\Piercing Blow Remake\i3Server\include\i3Base\tinystr.h
; File E:\Proyectos\JuegosOnlineproyectos\PB\pbblow\Piercing Blow Remake\i3Server\include\i3Base\tinyxml.h
;	COMDAT ?SetName@TiXmlAttribute@@QAEXPBD@Z
_TEXT	SEGMENT
__name$ = 8						; size = 4
?SetName@TiXmlAttribute@@QAEXPBD@Z PROC			; TiXmlAttribute::SetName, COMDAT
; _this$ = ecx

; 839  : 	void SetName( const char* _name )	{ name = _name; }				///< Set the name of this attribute.

  00000	55		 push	 ebp
  00001	8b ec		 mov	 ebp, esp
; File E:\Proyectos\JuegosOnlineproyectos\PB\pbblow\Piercing Blow Remake\i3Server\include\i3Base\tinystr.h

; 114  : 		return assign( copy, (size_type)strlen(copy));

  00003	8b 55 08	 mov	 edx, DWORD PTR __name$[ebp]
  00006	8b c2		 mov	 eax, edx
; File E:\Proyectos\JuegosOnlineproyectos\PB\pbblow\Piercing Blow Remake\i3Server\include\i3Base\tinyxml.h

; 839  : 	void SetName( const char* _name )	{ name = _name; }				///< Set the name of this attribute.

  00008	56		 push	 esi
  00009	57		 push	 edi
  0000a	8b f1		 mov	 esi, ecx
; File E:\Proyectos\JuegosOnlineproyectos\PB\pbblow\Piercing Blow Remake\i3Server\include\i3Base\tinystr.h

; 114  : 		return assign( copy, (size_type)strlen(copy));

  0000c	8d 78 01	 lea	 edi, DWORD PTR [eax+1]
  0000f	90		 npad	 1
$LL5@SetName:
  00010	8a 08		 mov	 cl, BYTE PTR [eax]
  00012	40		 inc	 eax
  00013	84 c9		 test	 cl, cl
  00015	75 f9		 jne	 SHORT $LL5@SetName
  00017	2b c7		 sub	 eax, edi
; File E:\Proyectos\JuegosOnlineproyectos\PB\pbblow\Piercing Blow Remake\i3Server\include\i3Base\tinyxml.h

; 839  : 	void SetName( const char* _name )	{ name = _name; }				///< Set the name of this attribute.

  00019	8d 4e 14	 lea	 ecx, DWORD PTR [esi+20]
; File E:\Proyectos\JuegosOnlineproyectos\PB\pbblow\Piercing Blow Remake\i3Server\include\i3Base\tinystr.h

; 114  : 		return assign( copy, (size_type)strlen(copy));

  0001c	50		 push	 eax
  0001d	52		 push	 edx
  0001e	e8 00 00 00 00	 call	 ?assign@TiXmlString@@QAEAAV1@PBDI@Z ; TiXmlString::assign
  00023	5f		 pop	 edi
  00024	5e		 pop	 esi
; File E:\Proyectos\JuegosOnlineproyectos\PB\pbblow\Piercing Blow Remake\i3Server\include\i3Base\tinyxml.h

; 839  : 	void SetName( const char* _name )	{ name = _name; }				///< Set the name of this attribute.

  00025	5d		 pop	 ebp
  00026	c2 04 00	 ret	 4
?SetName@TiXmlAttribute@@QAEXPBD@Z ENDP			; TiXmlAttribute::SetName
_TEXT	ENDS
; Function compile flags: /Ogtp
; File E:\Proyectos\JuegosOnlineproyectos\PB\pbblow\Piercing Blow Remake\i3Server\include\i3Base\tinyxml.h
;	COMDAT ?NameTStr@TiXmlAttribute@@QBEABVTiXmlString@@XZ
_TEXT	SEGMENT
?NameTStr@TiXmlAttribute@@QBEABVTiXmlString@@XZ PROC	; TiXmlAttribute::NameTStr, COMDAT
; _this$ = ecx

; 824  : 	const TIXML_STRING& NameTStr() const { return name; }

  00000	8d 41 14	 lea	 eax, DWORD PTR [ecx+20]
  00003	c3		 ret	 0
?NameTStr@TiXmlAttribute@@QBEABVTiXmlString@@XZ ENDP	; TiXmlAttribute::NameTStr
_TEXT	ENDS
; Function compile flags: /Ogtp
; File E:\Proyectos\JuegosOnlineproyectos\PB\pbblow\Piercing Blow Remake\i3Server\include\i3Base\tinyxml.h
; File E:\Proyectos\JuegosOnlineproyectos\PB\pbblow\Piercing Blow Remake\i3Server\include\i3Base\tinystr.h
; File E:\Proyectos\JuegosOnlineproyectos\PB\pbblow\Piercing Blow Remake\i3Server\include\i3Base\tinyxml.h
;	COMDAT ?Value@TiXmlAttribute@@QBEPBDXZ
_TEXT	SEGMENT
?Value@TiXmlAttribute@@QBEPBDXZ PROC			; TiXmlAttribute::Value, COMDAT
; _this$ = ecx
; File E:\Proyectos\JuegosOnlineproyectos\PB\pbblow\Piercing Blow Remake\i3Server\include\i3Base\tinystr.h

; 144  : 	const char * c_str () const { return rep_->str; }

  00000	8b 41 18	 mov	 eax, DWORD PTR [ecx+24]
  00003	83 c0 08	 add	 eax, 8
; File E:\Proyectos\JuegosOnlineproyectos\PB\pbblow\Piercing Blow Remake\i3Server\include\i3Base\tinyxml.h

; 816  : 	const char*		Value() const		{ return value.c_str(); }		///< Return the value of this attribute.

  00006	c3		 ret	 0
?Value@TiXmlAttribute@@QBEPBDXZ ENDP			; TiXmlAttribute::Value
_TEXT	ENDS
; Function compile flags: /Ogtp
; File E:\Proyectos\JuegosOnlineproyectos\PB\pbblow\Piercing Blow Remake\i3Server\include\i3Base\tinyxml.h
; File E:\Proyectos\JuegosOnlineproyectos\PB\pbblow\Piercing Blow Remake\i3Server\include\i3Base\tinystr.h
; File E:\Proyectos\JuegosOnlineproyectos\PB\pbblow\Piercing Blow Remake\i3Server\include\i3Base\tinyxml.h
;	COMDAT ?Name@TiXmlAttribute@@QBEPBDXZ
_TEXT	SEGMENT
?Name@TiXmlAttribute@@QBEPBDXZ PROC			; TiXmlAttribute::Name, COMDAT
; _this$ = ecx
; File E:\Proyectos\JuegosOnlineproyectos\PB\pbblow\Piercing Blow Remake\i3Server\include\i3Base\tinystr.h

; 144  : 	const char * c_str () const { return rep_->str; }

  00000	8b 41 14	 mov	 eax, DWORD PTR [ecx+20]
  00003	83 c0 08	 add	 eax, 8
; File E:\Proyectos\JuegosOnlineproyectos\PB\pbblow\Piercing Blow Remake\i3Server\include\i3Base\tinyxml.h

; 815  : 	const char*		Name()  const		{ return name.c_str(); }		///< Return the name of this attribute.

  00006	c3		 ret	 0
?Name@TiXmlAttribute@@QBEPBDXZ ENDP			; TiXmlAttribute::Name
_TEXT	ENDS
; Function compile flags: /Ogtp
; File E:\Proyectos\JuegosOnlineproyectos\PB\pbblow\Piercing Blow Remake\i3Server\include\i3Base\tinyxml.h
; File E:\Proyectos\JuegosOnlineproyectos\PB\pbblow\Piercing Blow Remake\i3Server\include\i3Base\tinystr.h
; File E:\Proyectos\JuegosOnlineproyectos\PB\pbblow\Piercing Blow Remake\i3Server\include\i3Base\tinyxml.h
; File E:\Proyectos\JuegosOnlineproyectos\PB\pbblow\Piercing Blow Remake\i3Server\include\i3Base\tinystr.h
; File E:\Proyectos\JuegosOnlineproyectos\PB\pbblow\Piercing Blow Remake\i3Server\include\i3Base\tinyxml.h
;	COMDAT ??0TiXmlAttribute@@QAE@PBD0@Z
_TEXT	SEGMENT
_this$ = -16						; size = 4
__$EHRec$ = -12						; size = 12
__name$ = 8						; size = 4
tv85 = 8						; size = 4
__value$ = 12						; size = 4
??0TiXmlAttribute@@QAE@PBD0@Z PROC			; TiXmlAttribute::TiXmlAttribute, COMDAT
; _this$ = ecx

; 807  : 	TiXmlAttribute( const char * _name, const char * _value )

  00000	55		 push	 ebp
  00001	8b ec		 mov	 ebp, esp
  00003	6a ff		 push	 -1
  00005	68 00 00 00 00	 push	 __ehhandler$??0TiXmlAttribute@@QAE@PBD0@Z
  0000a	64 a1 00 00 00
	00		 mov	 eax, DWORD PTR fs:0
  00010	50		 push	 eax
  00011	51		 push	 ecx
  00012	53		 push	 ebx
  00013	56		 push	 esi
  00014	57		 push	 edi
  00015	a1 00 00 00 00	 mov	 eax, DWORD PTR ___security_cookie
  0001a	33 c5		 xor	 eax, ebp
  0001c	50		 push	 eax
  0001d	8d 45 f4	 lea	 eax, DWORD PTR __$EHRec$[ebp]
  00020	64 a3 00 00 00
	00		 mov	 DWORD PTR fs:0, eax
  00026	8b f1		 mov	 esi, ecx
  00028	89 75 f0	 mov	 DWORD PTR _this$[ebp], esi

; 107  : 	void Clear()		{ row = col = -1; }

  0002b	c7 46 08 ff ff
	ff ff		 mov	 DWORD PTR [esi+8], -1
  00032	c7 46 04 ff ff
	ff ff		 mov	 DWORD PTR [esi+4], -1

; 205  : 	TiXmlBase()	:	userData(0)		{}

  00039	c7 46 0c 00 00
	00 00		 mov	 DWORD PTR [esi+12], 0

; 808  : 	{

  00040	8d 4e 14	 lea	 ecx, DWORD PTR [esi+20]
  00043	c7 06 00 00 00
	00		 mov	 DWORD PTR [esi], OFFSET ??_7TiXmlAttribute@@6B@
  00049	c7 45 fc 00 00
	00 00		 mov	 DWORD PTR __$EHRec$[ebp+8], 0
; File E:\Proyectos\JuegosOnlineproyectos\PB\pbblow\Piercing Blow Remake\i3Server\include\i3Base\tinystr.h

; 80   : 	TiXmlString () : rep_(&nullrep_)

  00050	c7 01 00 00 00
	00		 mov	 DWORD PTR [ecx], OFFSET ?nullrep_@TiXmlString@@0URep@1@A ; TiXmlString::nullrep_
  00056	c7 46 18 00 00
	00 00		 mov	 DWORD PTR [esi+24], OFFSET ?nullrep_@TiXmlString@@0URep@1@A ; TiXmlString::nullrep_

; 114  : 		return assign( copy, (size_type)strlen(copy));

  0005d	8b 7d 08	 mov	 edi, DWORD PTR __name$[ebp]
  00060	8b d7		 mov	 edx, edi
; File E:\Proyectos\JuegosOnlineproyectos\PB\pbblow\Piercing Blow Remake\i3Server\include\i3Base\tinyxml.h

; 808  : 	{

  00062	c6 45 fc 02	 mov	 BYTE PTR __$EHRec$[ebp+8], 2
; File E:\Proyectos\JuegosOnlineproyectos\PB\pbblow\Piercing Blow Remake\i3Server\include\i3Base\tinystr.h

; 114  : 		return assign( copy, (size_type)strlen(copy));

  00066	8d 42 01	 lea	 eax, DWORD PTR [edx+1]
  00069	89 45 08	 mov	 DWORD PTR tv85[ebp], eax
  0006c	8d 64 24 00	 npad	 4
$LL20@TiXmlAttri:
  00070	8a 02		 mov	 al, BYTE PTR [edx]
  00072	42		 inc	 edx
  00073	84 c0		 test	 al, al
  00075	75 f9		 jne	 SHORT $LL20@TiXmlAttri
  00077	2b 55 08	 sub	 edx, DWORD PTR tv85[ebp]
  0007a	52		 push	 edx
  0007b	57		 push	 edi
  0007c	e8 00 00 00 00	 call	 ?assign@TiXmlString@@QAEAAV1@PBDI@Z ; TiXmlString::assign
  00081	8b 7d 0c	 mov	 edi, DWORD PTR __value$[ebp]
  00084	8b c7		 mov	 eax, edi
  00086	8d 48 01	 lea	 ecx, DWORD PTR [eax+1]
  00089	8d a4 24 00 00
	00 00		 npad	 7
$LL21@TiXmlAttri:
  00090	8a 10		 mov	 dl, BYTE PTR [eax]
  00092	40		 inc	 eax
  00093	84 d2		 test	 dl, dl
  00095	75 f9		 jne	 SHORT $LL21@TiXmlAttri
  00097	2b c1		 sub	 eax, ecx
  00099	8d 4e 18	 lea	 ecx, DWORD PTR [esi+24]
  0009c	50		 push	 eax
  0009d	57		 push	 edi
  0009e	e8 00 00 00 00	 call	 ?assign@TiXmlString@@QAEAAV1@PBDI@Z ; TiXmlString::assign
; File E:\Proyectos\JuegosOnlineproyectos\PB\pbblow\Piercing Blow Remake\i3Server\include\i3Base\tinyxml.h

; 811  : 		document = 0;

  000a3	c7 46 10 00 00
	00 00		 mov	 DWORD PTR [esi+16], 0

; 812  : 		prev = next = 0;
; 813  : 	}

  000aa	8b c6		 mov	 eax, esi
  000ac	c7 46 20 00 00
	00 00		 mov	 DWORD PTR [esi+32], 0
  000b3	c7 46 1c 00 00
	00 00		 mov	 DWORD PTR [esi+28], 0
  000ba	8b 4d f4	 mov	 ecx, DWORD PTR __$EHRec$[ebp]
  000bd	64 89 0d 00 00
	00 00		 mov	 DWORD PTR fs:0, ecx
  000c4	59		 pop	 ecx
  000c5	5f		 pop	 edi
  000c6	5e		 pop	 esi
  000c7	5b		 pop	 ebx
  000c8	8b e5		 mov	 esp, ebp
  000ca	5d		 pop	 ebp
  000cb	c2 08 00	 ret	 8
_TEXT	ENDS
;	COMDAT text$x
text$x	SEGMENT
__unwindfunclet$??0TiXmlAttribute@@QAE@PBD0@Z$0:
  00000	8b 4d f0	 mov	 ecx, DWORD PTR _this$[ebp]
  00003	e9 00 00 00 00	 jmp	 ??1TiXmlBase@@UAE@XZ	; TiXmlBase::~TiXmlBase
__unwindfunclet$??0TiXmlAttribute@@QAE@PBD0@Z$1:
  00008	8b 4d f0	 mov	 ecx, DWORD PTR _this$[ebp]
  0000b	83 c1 14	 add	 ecx, 20			; 00000014H
  0000e	e9 00 00 00 00	 jmp	 ??1TiXmlString@@QAE@XZ	; TiXmlString::~TiXmlString
__unwindfunclet$??0TiXmlAttribute@@QAE@PBD0@Z$2:
  00013	8b 4d f0	 mov	 ecx, DWORD PTR _this$[ebp]
  00016	83 c1 18	 add	 ecx, 24			; 00000018H
  00019	e9 00 00 00 00	 jmp	 ??1TiXmlString@@QAE@XZ	; TiXmlString::~TiXmlString
  0001e	cc		 int	 3
  0001f	cc		 int	 3
  00020	cc		 int	 3
  00021	cc		 int	 3
  00022	cc		 int	 3
__ehhandler$??0TiXmlAttribute@@QAE@PBD0@Z:
  00023	90		 npad	 1
  00024	90		 npad	 1
  00025	8b 54 24 08	 mov	 edx, DWORD PTR [esp+8]
  00029	8d 42 0c	 lea	 eax, DWORD PTR [edx+12]
  0002c	8b 4a ec	 mov	 ecx, DWORD PTR [edx-20]
  0002f	33 c8		 xor	 ecx, eax
  00031	e8 00 00 00 00	 call	 @__security_check_cookie@4
  00036	b8 00 00 00 00	 mov	 eax, OFFSET __ehfuncinfo$??0TiXmlAttribute@@QAE@PBD0@Z
  0003b	e9 00 00 00 00	 jmp	 ___CxxFrameHandler3
text$x	ENDS
??0TiXmlAttribute@@QAE@PBD0@Z ENDP			; TiXmlAttribute::TiXmlAttribute
; Function compile flags: /Ogtp
; File E:\Proyectos\JuegosOnlineproyectos\PB\pbblow\Piercing Blow Remake\i3Server\include\i3Base\tinyxml.h
; File E:\Proyectos\JuegosOnlineproyectos\PB\pbblow\Piercing Blow Remake\i3Server\include\i3Base\tinystr.h
; File E:\Proyectos\JuegosOnlineproyectos\PB\pbblow\Piercing Blow Remake\i3Server\include\i3Base\tinyxml.h
;	COMDAT ??0TiXmlAttribute@@QAE@XZ
_TEXT	SEGMENT
_this$ = -4						; size = 4
??0TiXmlAttribute@@QAE@XZ PROC				; TiXmlAttribute::TiXmlAttribute, COMDAT
; _this$ = ecx

; 790  : 	{

  00000	55		 push	 ebp
  00001	8b ec		 mov	 ebp, esp
  00003	51		 push	 ecx

; 107  : 	void Clear()		{ row = col = -1; }

  00004	c7 41 08 ff ff
	ff ff		 mov	 DWORD PTR [ecx+8], -1

; 793  : 	}

  0000b	8b c1		 mov	 eax, ecx

; 107  : 	void Clear()		{ row = col = -1; }

  0000d	c7 41 04 ff ff
	ff ff		 mov	 DWORD PTR [ecx+4], -1

; 205  : 	TiXmlBase()	:	userData(0)		{}

  00014	c7 41 0c 00 00
	00 00		 mov	 DWORD PTR [ecx+12], 0

; 790  : 	{

  0001b	c7 01 00 00 00
	00		 mov	 DWORD PTR [ecx], OFFSET ??_7TiXmlAttribute@@6B@
; File E:\Proyectos\JuegosOnlineproyectos\PB\pbblow\Piercing Blow Remake\i3Server\include\i3Base\tinystr.h

; 80   : 	TiXmlString () : rep_(&nullrep_)

  00021	c7 41 14 00 00
	00 00		 mov	 DWORD PTR [ecx+20], OFFSET ?nullrep_@TiXmlString@@0URep@1@A ; TiXmlString::nullrep_
  00028	c7 41 18 00 00
	00 00		 mov	 DWORD PTR [ecx+24], OFFSET ?nullrep_@TiXmlString@@0URep@1@A ; TiXmlString::nullrep_
; File E:\Proyectos\JuegosOnlineproyectos\PB\pbblow\Piercing Blow Remake\i3Server\include\i3Base\tinyxml.h

; 790  : 	{

  0002f	89 4d fc	 mov	 DWORD PTR _this$[ebp], ecx

; 791  : 		document = 0;

  00032	c7 41 10 00 00
	00 00		 mov	 DWORD PTR [ecx+16], 0

; 792  : 		prev = next = 0;

  00039	c7 41 20 00 00
	00 00		 mov	 DWORD PTR [ecx+32], 0
  00040	c7 41 1c 00 00
	00 00		 mov	 DWORD PTR [ecx+28], 0

; 793  : 	}

  00047	8b e5		 mov	 esp, ebp
  00049	5d		 pop	 ebp
  0004a	c3		 ret	 0
??0TiXmlAttribute@@QAE@XZ ENDP				; TiXmlAttribute::TiXmlAttribute
_TEXT	ENDS
; Function compile flags: /Ogtp
; File E:\Proyectos\JuegosOnlineproyectos\PB\pbblow\Piercing Blow Remake\i3Server\src\i3Base\tinyxmlparser.cpp
; File E:\Proyectos\JuegosOnlineproyectos\PB\pbblow\Piercing Blow Remake\i3Server\include\i3Base\tinyxml.h
; File E:\Proyectos\JuegosOnlineproyectos\PB\pbblow\Piercing Blow Remake\i3Server\src\i3Base\tinyxmlparser.cpp
; File E:\Proyectos\JuegosOnlineproyectos\PB\pbblow\Piercing Blow Remake\i3Server\include\i3Base\tinyxml.h
; File E:\Proyectos\JuegosOnlineproyectos\PB\pbblow\Piercing Blow Remake\i3Server\src\i3Base\tinyxmlparser.cpp
; File E:\Proyectos\JuegosOnlineproyectos\PB\pbblow\Piercing Blow Remake\i3Server\include\i3Base\tinyxml.h
; File E:\Proyectos\JuegosOnlineproyectos\PB\pbblow\Piercing Blow Remake\i3Server\include\i3Base\tinystr.h
; File E:\Proyectos\JuegosOnlineproyectos\PB\pbblow\Piercing Blow Remake\i3Server\include\i3Base\tinyxml.h
; File E:\Proyectos\JuegosOnlineproyectos\PB\pbblow\Piercing Blow Remake\i3Server\include\i3Base\tinystr.h
; File E:\Proyectos\JuegosOnlineproyectos\PB\pbblow\Piercing Blow Remake\i3Server\include\i3Base\tinyxml.h
; File E:\Proyectos\JuegosOnlineproyectos\PB\pbblow\Piercing Blow Remake\i3Server\src\i3Base\tinyxmlparser.cpp
; File E:\Proyectos\JuegosOnlineproyectos\PB\pbblow\Piercing Blow Remake\i3Server\include\i3Base\tinyxml.h
; File E:\Proyectos\JuegosOnlineproyectos\PB\pbblow\Piercing Blow Remake\i3Server\src\i3Base\tinyxmlparser.cpp
;	COMDAT ?Identify@TiXmlNode@@IAEPAV1@PBDW4TiXmlEncoding@@@Z
_TEXT	SEGMENT
_doc$1$ = -20						; size = 4
_this$1$ = -16						; size = 4
__$EHRec$ = -12						; size = 12
_p$ = 8							; size = 4
_p$2$ = 8						; size = 4
_encoding$ = 12						; size = 4
$T2 = 12						; size = 4
$T3 = 12						; size = 4
$T4 = 12						; size = 4
$T5 = 12						; size = 4
$T6 = 12						; size = 4
$T7 = 12						; size = 4
?Identify@TiXmlNode@@IAEPAV1@PBDW4TiXmlEncoding@@@Z PROC ; TiXmlNode::Identify, COMDAT
; _this$ = ecx

; 823  : {

  00000	55		 push	 ebp
  00001	8b ec		 mov	 ebp, esp
  00003	6a ff		 push	 -1
  00005	68 00 00 00 00	 push	 __ehhandler$?Identify@TiXmlNode@@IAEPAV1@PBDW4TiXmlEncoding@@@Z
  0000a	64 a1 00 00 00
	00		 mov	 eax, DWORD PTR fs:0
  00010	50		 push	 eax
  00011	83 ec 08	 sub	 esp, 8
  00014	53		 push	 ebx
  00015	56		 push	 esi
  00016	57		 push	 edi
  00017	a1 00 00 00 00	 mov	 eax, DWORD PTR ___security_cookie
  0001c	33 c5		 xor	 eax, ebp
  0001e	50		 push	 eax
  0001f	8d 45 f4	 lea	 eax, DWORD PTR __$EHRec$[ebp]
  00022	64 a3 00 00 00
	00		 mov	 DWORD PTR fs:0, eax
  00028	8b f9		 mov	 edi, ecx
  0002a	89 7d f0	 mov	 DWORD PTR _this$1$[ebp], edi

; 824  : 	TiXmlNode* returnNode = 0;
; 825  : 
; 826  : 	p = SkipWhiteSpace( p, encoding );

  0002d	8b 5d 0c	 mov	 ebx, DWORD PTR _encoding$[ebp]
  00030	53		 push	 ebx
  00031	ff 75 08	 push	 DWORD PTR _p$[ebp]
  00034	e8 00 00 00 00	 call	 ?SkipWhiteSpace@TiXmlBase@@KAPBDPBDW4TiXmlEncoding@@@Z ; TiXmlBase::SkipWhiteSpace
  00039	8b f0		 mov	 esi, eax
  0003b	83 c4 08	 add	 esp, 8

; 827  : 	if( !p || !*p || *p != '<' )

  0003e	85 f6		 test	 esi, esi
  00040	0f 84 81 02 00
	00		 je	 $LN3@Identify
  00046	8a 06		 mov	 al, BYTE PTR [esi]
  00048	84 c0		 test	 al, al
  0004a	0f 84 77 02 00
	00		 je	 $LN3@Identify
  00050	3c 3c		 cmp	 al, 60			; 0000003cH
  00052	0f 85 6f 02 00
	00		 jne	 $LN3@Identify
; File E:\Proyectos\JuegosOnlineproyectos\PB\pbblow\Piercing Blow Remake\i3Server\include\i3Base\tinyxml.h

; 695  : 		return const_cast< TiXmlDocument* >( (const_cast< const TiXmlNode* >(this))->GetDocument() );

  00058	8b cf		 mov	 ecx, edi
  0005a	e8 00 00 00 00	 call	 ?GetDocument@TiXmlNode@@QBEPBVTiXmlDocument@@XZ ; TiXmlNode::GetDocument
; File E:\Proyectos\JuegosOnlineproyectos\PB\pbblow\Piercing Blow Remake\i3Server\src\i3Base\tinyxmlparser.cpp

; 833  : 	p = SkipWhiteSpace( p, encoding );

  0005f	53		 push	 ebx
  00060	56		 push	 esi
  00061	89 45 ec	 mov	 DWORD PTR _doc$1$[ebp], eax
  00064	e8 00 00 00 00	 call	 ?SkipWhiteSpace@TiXmlBase@@KAPBDPBDW4TiXmlEncoding@@@Z ; TiXmlBase::SkipWhiteSpace
  00069	83 c4 08	 add	 esp, 8
  0006c	89 45 08	 mov	 DWORD PTR _p$2$[ebp], eax

; 834  : 
; 835  : 	if ( !p || !*p )

  0006f	85 c0		 test	 eax, eax
  00071	0f 84 50 02 00
	00		 je	 $LN3@Identify
  00077	80 38 00	 cmp	 BYTE PTR [eax], 0
  0007a	0f 84 47 02 00
	00		 je	 $LN3@Identify

; 836  : 	{
; 837  : 		return 0;
; 838  : 	}
; 839  : 
; 840  : 	// What is this thing? 
; 841  : 	// - Elements start with a letter or underscore, but xml is reserved.
; 842  : 	// - Comments: <!--
; 843  : 	// - Decleration: <?xml
; 844  : 	// - Everthing else is unknown to tinyxml.
; 845  : 	//
; 846  : 
; 847  : 	const char* xmlHeader = { "<?xml" };
; 848  : 	const char* commentHeader = { "<!--" };
; 849  : 	const char* dtdHeader = { "<!" };
; 850  : 	const char* cdataHeader = { "<![CDATA[" };
; 851  : 
; 852  : 	if ( StringEqual( p, xmlHeader, true, encoding ) )

  00080	be 00 00 00 00	 mov	 esi, OFFSET ??_C@_05DJDIECHG@?$DM?$DPxml@

; 551  : 	const char* q = p;

  00085	8b f8		 mov	 edi, eax
$LL42@Identify:

; 555  : 		while ( *q && *tag && ToLower( *q, encoding ) == ToLower( *tag, encoding ) )

  00087	80 3e 00	 cmp	 BYTE PTR [esi], 0
  0008a	0f 84 bf 01 00
	00		 je	 $LN178@Identify
  00090	0f be 07	 movsx	 eax, BYTE PTR [edi]
; File E:\Proyectos\JuegosOnlineproyectos\PB\pbblow\Piercing Blow Remake\i3Server\include\i3Base\tinyxml.h

; 388  : 		if ( encoding == TIXML_ENCODING_UTF8 )

  00093	50		 push	 eax
  00094	e8 00 00 00 00	 call	 _tolower
  00099	83 c4 04	 add	 esp, 4
  0009c	83 fb 01	 cmp	 ebx, 1
  0009f	8b d8		 mov	 ebx, eax
  000a1	0f be 06	 movsx	 eax, BYTE PTR [esi]
; File E:\Proyectos\JuegosOnlineproyectos\PB\pbblow\Piercing Blow Remake\i3Server\src\i3Base\tinyxmlparser.cpp

; 555  : 		while ( *q && *tag && ToLower( *q, encoding ) == ToLower( *tag, encoding ) )

  000a4	50		 push	 eax
  000a5	e8 00 00 00 00	 call	 _tolower
  000aa	83 c4 04	 add	 esp, 4
  000ad	3b d8		 cmp	 ebx, eax
  000af	75 0a		 jne	 SHORT $LN43@Identify
  000b1	8b 5d 0c	 mov	 ebx, DWORD PTR _encoding$[ebp]

; 556  : 		{
; 557  : 			++q;

  000b4	47		 inc	 edi

; 558  : 			++tag;

  000b5	46		 inc	 esi
  000b6	80 3f 00	 cmp	 BYTE PTR [edi], 0
  000b9	75 cc		 jne	 SHORT $LL42@Identify
$LN43@Identify:

; 559  : 		}
; 560  : 
; 561  : 		if ( *tag == 0 )

  000bb	80 3e 00	 cmp	 BYTE PTR [esi], 0
  000be	0f 84 8b 01 00
	00		 je	 $LN178@Identify

; 545  : 	if ( !p || !*p )

  000c4	8b 5d 08	 mov	 ebx, DWORD PTR _p$2$[ebp]

; 858  : 	}
; 859  : 	else if ( StringEqual( p, commentHeader, false, encoding ) )

  000c7	b9 00 00 00 00	 mov	 ecx, OFFSET ??_C@_04FFDNBKGC@?$DM?$CB?9?9@

; 545  : 	if ( !p || !*p )

  000cc	8a 33		 mov	 dh, BYTE PTR [ebx]
  000ce	84 f6		 test	 dh, dh
  000d0	0f 84 cb 00 00
	00		 je	 $LN10@Identify

; 546  : 	{
; 547  : 		I3ASSERT_0;
; 548  : 		return false;
; 549  : 	}
; 550  : 
; 551  : 	const char* q = p;

  000d6	8b c3		 mov	 eax, ebx
  000d8	eb 06 8d 9b 00
	00 00 00	 npad	 8
$LL66@Identify:

; 562  : 			return true;
; 563  : 	}
; 564  : 	else
; 565  : 	{
; 566  : 		while ( *q && *tag && *q == *tag )

  000e0	8a 11		 mov	 dl, BYTE PTR [ecx]
  000e2	84 d2		 test	 dl, dl
  000e4	0f 84 85 00 00
	00		 je	 $LN180@Identify
  000ea	38 10		 cmp	 BYTE PTR [eax], dl
  000ec	75 07		 jne	 SHORT $LN67@Identify

; 567  : 		{
; 568  : 			++q;

  000ee	40		 inc	 eax

; 569  : 			++tag;

  000ef	41		 inc	 ecx
  000f0	80 38 00	 cmp	 BYTE PTR [eax], 0
  000f3	75 eb		 jne	 SHORT $LL66@Identify
$LN67@Identify:

; 570  : 		}
; 571  : 
; 572  : 		if ( *tag == 0 )		// Have we found the end of the tag, and everything equal?

  000f5	80 39 00	 cmp	 BYTE PTR [ecx], 0
  000f8	74 75		 je	 SHORT $LN180@Identify

; 573  : 			return true;
; 574  : 	}
; 575  : 	return false;

  000fa	b9 00 00 00 00	 mov	 ecx, OFFSET ??_C@_09BLLNCBLF@?$DM?$CB?$FLCDATA?$FL@

; 551  : 	const char* q = p;

  000ff	8b c3		 mov	 eax, ebx
$LL88@Identify:

; 562  : 			return true;
; 563  : 	}
; 564  : 	else
; 565  : 	{
; 566  : 		while ( *q && *tag && *q == *tag )

  00101	8a 11		 mov	 dl, BYTE PTR [ecx]
  00103	84 d2		 test	 dl, dl
  00105	74 14		 je	 SHORT $LN182@Identify
  00107	38 10		 cmp	 BYTE PTR [eax], dl
  00109	75 07		 jne	 SHORT $LN89@Identify

; 567  : 		{
; 568  : 			++q;

  0010b	40		 inc	 eax

; 569  : 			++tag;

  0010c	41		 inc	 ecx
  0010d	80 38 00	 cmp	 BYTE PTR [eax], 0
  00110	75 ef		 jne	 SHORT $LL88@Identify
$LN89@Identify:

; 570  : 		}
; 571  : 
; 572  : 		if ( *tag == 0 )		// Have we found the end of the tag, and everything equal?

  00112	80 39 00	 cmp	 BYTE PTR [ecx], 0
  00115	0f 85 86 00 00
	00		 jne	 $LN10@Identify
$LN182@Identify:

; 865  : 	}
; 866  : 	else if ( StringEqual( p, cdataHeader, false, encoding ) )
; 867  : 	{
; 868  : 		#ifdef DEBUG_PARSER
; 869  : 			TIXML_LOG( "XML parsing CDATA\n" );
; 870  : 		#endif
; 871  : 		TiXmlText* text = new TiXmlText( "" );

  0011b	6a 30		 push	 48			; 00000030H
  0011d	e8 00 00 00 00	 call	 ??2@YAPAXI@Z		; operator new
  00122	8b f0		 mov	 esi, eax
  00124	83 c4 04	 add	 esp, 4
  00127	89 75 0c	 mov	 DWORD PTR $T4[ebp], esi
  0012a	c7 45 fc 02 00
	00 00		 mov	 DWORD PTR __$EHRec$[ebp+8], 2
  00131	85 f6		 test	 esi, esi
  00133	74 2f		 je	 SHORT $LN25@Identify
; File E:\Proyectos\JuegosOnlineproyectos\PB\pbblow\Piercing Blow Remake\i3Server\include\i3Base\tinyxml.h

; 1222 : 	TiXmlText (const char * initValue ) : TiXmlNode (TiXmlNode::TEXT)

  00135	6a 04		 push	 4
  00137	8b ce		 mov	 ecx, esi
  00139	e8 00 00 00 00	 call	 ??0TiXmlNode@@IAE@W4NodeType@0@@Z ; TiXmlNode::TiXmlNode
; File E:\Proyectos\JuegosOnlineproyectos\PB\pbblow\Piercing Blow Remake\i3Server\include\i3Base\tinystr.h

; 114  : 		return assign( copy, (size_type)strlen(copy));

  0013e	6a 00		 push	 0
  00140	68 00 00 00 00	 push	 OFFSET ??_C@_00CNPNBAHC@@
; File E:\Proyectos\JuegosOnlineproyectos\PB\pbblow\Piercing Blow Remake\i3Server\include\i3Base\tinyxml.h

; 512  : 	void SetValue(const char * _value) { value = _value;}

  00145	8d 4e 20	 lea	 ecx, DWORD PTR [esi+32]

; 1222 : 	TiXmlText (const char * initValue ) : TiXmlNode (TiXmlNode::TEXT)

  00148	c6 45 fc 03	 mov	 BYTE PTR __$EHRec$[ebp+8], 3

; 1223 : 	{

  0014c	c7 06 00 00 00
	00		 mov	 DWORD PTR [esi], OFFSET ??_7TiXmlText@@6B@
; File E:\Proyectos\JuegosOnlineproyectos\PB\pbblow\Piercing Blow Remake\i3Server\include\i3Base\tinystr.h

; 114  : 		return assign( copy, (size_type)strlen(copy));

  00152	e8 00 00 00 00	 call	 ?assign@TiXmlString@@QAEAAV1@PBDI@Z ; TiXmlString::assign
; File E:\Proyectos\JuegosOnlineproyectos\PB\pbblow\Piercing Blow Remake\i3Server\include\i3Base\tinyxml.h

; 1225 : 		cdata = false;

  00157	c6 46 2c 00	 mov	 BYTE PTR [esi+44], 0
; File E:\Proyectos\JuegosOnlineproyectos\PB\pbblow\Piercing Blow Remake\i3Server\src\i3Base\tinyxmlparser.cpp

; 872  : 		text->SetCDATA( true );

  0015b	c6 46 2c 01	 mov	 BYTE PTR [esi+44], 1

; 873  : 		returnNode = text;
; 874  : 	}

  0015f	e9 10 01 00 00	 jmp	 $LN22@Identify
$LN25@Identify:

; 865  : 	}
; 866  : 	else if ( StringEqual( p, cdataHeader, false, encoding ) )
; 867  : 	{
; 868  : 		#ifdef DEBUG_PARSER
; 869  : 			TIXML_LOG( "XML parsing CDATA\n" );
; 870  : 		#endif
; 871  : 		TiXmlText* text = new TiXmlText( "" );

  00164	33 f6		 xor	 esi, esi

; 872  : 		text->SetCDATA( true );

  00166	c6 46 2c 01	 mov	 BYTE PTR [esi+44], 1

; 873  : 		returnNode = text;
; 874  : 	}

  0016a	e9 05 01 00 00	 jmp	 $LN22@Identify
$LN180@Identify:

; 864  : 		returnNode = new TiXmlComment();

  0016f	6a 2c		 push	 44			; 0000002cH
  00171	e8 00 00 00 00	 call	 ??2@YAPAXI@Z		; operator new
  00176	8b f0		 mov	 esi, eax
  00178	83 c4 04	 add	 esp, 4
  0017b	89 75 0c	 mov	 DWORD PTR $T3[ebp], esi
  0017e	c7 45 fc 01 00
	00 00		 mov	 DWORD PTR __$EHRec$[ebp+8], 1
  00185	85 f6		 test	 esi, esi
  00187	0f 84 e5 00 00
	00		 je	 $LN21@Identify
; File E:\Proyectos\JuegosOnlineproyectos\PB\pbblow\Piercing Blow Remake\i3Server\include\i3Base\tinyxml.h

; 1168 : 	TiXmlComment() : TiXmlNode( TiXmlNode::COMMENT ) {}

  0018d	6a 02		 push	 2
  0018f	8b ce		 mov	 ecx, esi
  00191	e8 00 00 00 00	 call	 ??0TiXmlNode@@IAE@W4NodeType@0@@Z ; TiXmlNode::TiXmlNode
  00196	c7 06 00 00 00
	00		 mov	 DWORD PTR [esi], OFFSET ??_7TiXmlComment@@6B@
; File E:\Proyectos\JuegosOnlineproyectos\PB\pbblow\Piercing Blow Remake\i3Server\src\i3Base\tinyxmlparser.cpp

; 864  : 		returnNode = new TiXmlComment();

  0019c	e9 d3 00 00 00	 jmp	 $LN22@Identify
$LN10@Identify:

; 875  : 	else if ( StringEqual( p, dtdHeader, false, encoding ) )

  001a1	b9 00 00 00 00	 mov	 ecx, OFFSET ??_C@_02KBFACPPK@?$DM?$CB@

; 545  : 	if ( !p || !*p )

  001a6	84 f6		 test	 dh, dh
  001a8	74 4b		 je	 SHORT $LN12@Identify

; 546  : 	{
; 547  : 		I3ASSERT_0;
; 548  : 		return false;
; 549  : 	}
; 550  : 
; 551  : 	const char* q = p;

  001aa	8b c3		 mov	 eax, ebx
  001ac	8d 64 24 00	 npad	 4
$LL113@Identify:

; 562  : 			return true;
; 563  : 	}
; 564  : 	else
; 565  : 	{
; 566  : 		while ( *q && *tag && *q == *tag )

  001b0	8a 11		 mov	 dl, BYTE PTR [ecx]
  001b2	84 d2		 test	 dl, dl
  001b4	74 10		 je	 SHORT $LN184@Identify
  001b6	38 10		 cmp	 BYTE PTR [eax], dl
  001b8	75 07		 jne	 SHORT $LN114@Identify

; 567  : 		{
; 568  : 			++q;

  001ba	40		 inc	 eax

; 569  : 			++tag;

  001bb	41		 inc	 ecx
  001bc	80 38 00	 cmp	 BYTE PTR [eax], 0
  001bf	75 ef		 jne	 SHORT $LL113@Identify
$LN114@Identify:

; 570  : 		}
; 571  : 
; 572  : 		if ( *tag == 0 )		// Have we found the end of the tag, and everything equal?

  001c1	80 39 00	 cmp	 BYTE PTR [ecx], 0
  001c4	75 2f		 jne	 SHORT $LN12@Identify
$LN184@Identify:

; 876  : 	{
; 877  : 		#ifdef DEBUG_PARSER
; 878  : 			TIXML_LOG( "XML parsing Unknown(1)\n" );
; 879  : 		#endif
; 880  : 		returnNode = new TiXmlUnknown();

  001c6	6a 2c		 push	 44			; 0000002cH
  001c8	e8 00 00 00 00	 call	 ??2@YAPAXI@Z		; operator new
  001cd	8b f0		 mov	 esi, eax
  001cf	83 c4 04	 add	 esp, 4
  001d2	89 75 0c	 mov	 DWORD PTR $T5[ebp], esi
  001d5	c7 45 fc 04 00
	00 00		 mov	 DWORD PTR __$EHRec$[ebp+8], 4
$LN191@Identify:

; 896  : 	}
; 897  : 
; 898  : 	if ( returnNode )

  001dc	85 f6		 test	 esi, esi
  001de	0f 84 8e 00 00
	00		 je	 $LN21@Identify
  001e4	6a 03		 push	 3
  001e6	8b ce		 mov	 ecx, esi
  001e8	e8 00 00 00 00	 call	 ??0TiXmlNode@@IAE@W4NodeType@0@@Z ; TiXmlNode::TiXmlNode
  001ed	c7 06 00 00 00
	00		 mov	 DWORD PTR [esi], OFFSET ??_7TiXmlUnknown@@6B@
  001f3	eb 7f		 jmp	 SHORT $LN22@Identify
$LN12@Identify:

; 881  : 	}
; 882  : 	else if (    IsAlpha( *(p+1), encoding )
; 883  : 			  || *(p+1) == '_' )

  001f5	ff 75 0c	 push	 DWORD PTR _encoding$[ebp]
  001f8	0f b6 43 01	 movzx	 eax, BYTE PTR [ebx+1]
  001fc	50		 push	 eax
  001fd	e8 00 00 00 00	 call	 ?IsAlpha@TiXmlBase@@KAHEW4TiXmlEncoding@@@Z ; TiXmlBase::IsAlpha
  00202	83 c4 08	 add	 esp, 8
  00205	85 c0		 test	 eax, eax
  00207	75 1e		 jne	 SHORT $LN16@Identify
  00209	80 7b 01 5f	 cmp	 BYTE PTR [ebx+1], 95	; 0000005fH
  0020d	74 18		 je	 SHORT $LN16@Identify

; 889  : 	}
; 890  : 	else
; 891  : 	{
; 892  : 		#ifdef DEBUG_PARSER
; 893  : 			TIXML_LOG( "XML parsing Unknown(2)\n" );
; 894  : 		#endif
; 895  : 		returnNode = new TiXmlUnknown();

  0020f	6a 2c		 push	 44			; 0000002cH
  00211	e8 00 00 00 00	 call	 ??2@YAPAXI@Z		; operator new
  00216	8b f0		 mov	 esi, eax
  00218	83 c4 04	 add	 esp, 4
  0021b	89 75 0c	 mov	 DWORD PTR $T7[ebp], esi
  0021e	c7 45 fc 06 00
	00 00		 mov	 DWORD PTR __$EHRec$[ebp+8], 6
  00225	eb b5		 jmp	 SHORT $LN191@Identify
$LN16@Identify:

; 884  : 	{
; 885  : 		#ifdef DEBUG_PARSER
; 886  : 			TIXML_LOG( "XML parsing Element\n" );
; 887  : 		#endif
; 888  : 		returnNode = new TiXmlElement( "" );

  00227	6a 50		 push	 80			; 00000050H
  00229	e8 00 00 00 00	 call	 ??2@YAPAXI@Z		; operator new
  0022e	83 c4 04	 add	 esp, 4
  00231	89 45 0c	 mov	 DWORD PTR $T6[ebp], eax
  00234	c7 45 fc 05 00
	00 00		 mov	 DWORD PTR __$EHRec$[ebp+8], 5
  0023b	85 c0		 test	 eax, eax
  0023d	74 33		 je	 SHORT $LN21@Identify
  0023f	68 00 00 00 00	 push	 OFFSET ??_C@_00CNPNBAHC@@
  00244	8b c8		 mov	 ecx, eax
  00246	e8 00 00 00 00	 call	 ??0TiXmlElement@@QAE@PBD@Z ; TiXmlElement::TiXmlElement
  0024b	8b f0		 mov	 esi, eax
  0024d	eb 25		 jmp	 SHORT $LN22@Identify
$LN178@Identify:

; 853  : 	{
; 854  : 		#ifdef DEBUG_PARSER
; 855  : 			TIXML_LOG( "XML parsing Declaration\n" );
; 856  : 		#endif
; 857  : 		returnNode = new TiXmlDeclaration();

  0024f	6a 38		 push	 56			; 00000038H
  00251	e8 00 00 00 00	 call	 ??2@YAPAXI@Z		; operator new
  00256	83 c4 04	 add	 esp, 4
  00259	89 45 0c	 mov	 DWORD PTR $T2[ebp], eax
  0025c	c7 45 fc 00 00
	00 00		 mov	 DWORD PTR __$EHRec$[ebp+8], 0
  00263	85 c0		 test	 eax, eax
  00265	74 0b		 je	 SHORT $LN21@Identify
  00267	8b c8		 mov	 ecx, eax
  00269	e8 00 00 00 00	 call	 ??0TiXmlDeclaration@@QAE@XZ ; TiXmlDeclaration::TiXmlDeclaration
  0026e	8b f0		 mov	 esi, eax
  00270	eb 02		 jmp	 SHORT $LN22@Identify
$LN21@Identify:

; 896  : 	}
; 897  : 
; 898  : 	if ( returnNode )

  00272	33 f6		 xor	 esi, esi
$LN22@Identify:
  00274	c7 45 fc ff ff
	ff ff		 mov	 DWORD PTR __$EHRec$[ebp+8], -1
  0027b	85 f6		 test	 esi, esi
  0027d	74 1c		 je	 SHORT $LN17@Identify

; 899  : 	{
; 900  : 		// Set the parent, so it can report errors
; 901  : 		returnNode->parent = this;

  0027f	8b 45 f0	 mov	 eax, DWORD PTR _this$1$[ebp]
  00282	89 46 10	 mov	 DWORD PTR [esi+16], eax

; 907  : 	}
; 908  : 	return returnNode;

  00285	8b c6		 mov	 eax, esi

; 909  : }

  00287	8b 4d f4	 mov	 ecx, DWORD PTR __$EHRec$[ebp]
  0028a	64 89 0d 00 00
	00 00		 mov	 DWORD PTR fs:0, ecx
  00291	59		 pop	 ecx
  00292	5f		 pop	 edi
  00293	5e		 pop	 esi
  00294	5b		 pop	 ebx
  00295	8b e5		 mov	 esp, ebp
  00297	5d		 pop	 ebp
  00298	c2 08 00	 ret	 8
$LN17@Identify:

; 902  : 	}
; 903  : 	else
; 904  : 	{
; 905  : 		if ( doc )

  0029b	8b 45 ec	 mov	 eax, DWORD PTR _doc$1$[ebp]
  0029e	85 c0		 test	 eax, eax
  002a0	74 0f		 je	 SHORT $LN19@Identify

; 906  : 			doc->SetError( TIXML_ERROR_OUT_OF_MEMORY, 0, 0, TIXML_ENCODING_UNKNOWN );

  002a2	6a 00		 push	 0
  002a4	6a 00		 push	 0
  002a6	6a 00		 push	 0
  002a8	6a 03		 push	 3
  002aa	8b c8		 mov	 ecx, eax
  002ac	e8 00 00 00 00	 call	 ?SetError@TiXmlDocument@@QAEXHPBDPAVTiXmlParsingData@@W4TiXmlEncoding@@@Z ; TiXmlDocument::SetError
$LN19@Identify:

; 907  : 	}
; 908  : 	return returnNode;

  002b1	8b c6		 mov	 eax, esi

; 909  : }

  002b3	8b 4d f4	 mov	 ecx, DWORD PTR __$EHRec$[ebp]
  002b6	64 89 0d 00 00
	00 00		 mov	 DWORD PTR fs:0, ecx
  002bd	59		 pop	 ecx
  002be	5f		 pop	 edi
  002bf	5e		 pop	 esi
  002c0	5b		 pop	 ebx
  002c1	8b e5		 mov	 esp, ebp
  002c3	5d		 pop	 ebp
  002c4	c2 08 00	 ret	 8
$LN3@Identify:

; 828  : 	{
; 829  : 		return 0;

  002c7	33 c0		 xor	 eax, eax

; 909  : }

  002c9	8b 4d f4	 mov	 ecx, DWORD PTR __$EHRec$[ebp]
  002cc	64 89 0d 00 00
	00 00		 mov	 DWORD PTR fs:0, ecx
  002d3	59		 pop	 ecx
  002d4	5f		 pop	 edi
  002d5	5e		 pop	 esi
  002d6	5b		 pop	 ebx
  002d7	8b e5		 mov	 esp, ebp
  002d9	5d		 pop	 ebp
  002da	c2 08 00	 ret	 8
_TEXT	ENDS
;	COMDAT text$x
text$x	SEGMENT
__unwindfunclet$?Identify@TiXmlNode@@IAEPAV1@PBDW4TiXmlEncoding@@@Z$2:
  00000	6a 30		 push	 48			; 00000030H
  00002	8b 45 0c	 mov	 eax, DWORD PTR $T4[ebp]
  00005	50		 push	 eax
  00006	e8 00 00 00 00	 call	 ??3@YAXPAXI@Z		; operator delete
  0000b	83 c4 08	 add	 esp, 8
  0000e	c3		 ret	 0
__unwindfunclet$?Identify@TiXmlNode@@IAEPAV1@PBDW4TiXmlEncoding@@@Z$7:
  0000f	8b 4d 0c	 mov	 ecx, DWORD PTR $T4[ebp]
  00012	e9 00 00 00 00	 jmp	 ??1TiXmlNode@@UAE@XZ	; TiXmlNode::~TiXmlNode
__unwindfunclet$?Identify@TiXmlNode@@IAEPAV1@PBDW4TiXmlEncoding@@@Z$1:
  00017	6a 2c		 push	 44			; 0000002cH
  00019	8b 45 0c	 mov	 eax, DWORD PTR $T3[ebp]
  0001c	50		 push	 eax
  0001d	e8 00 00 00 00	 call	 ??3@YAXPAXI@Z		; operator delete
  00022	83 c4 08	 add	 esp, 8
  00025	c3		 ret	 0
__unwindfunclet$?Identify@TiXmlNode@@IAEPAV1@PBDW4TiXmlEncoding@@@Z$3:
  00026	6a 2c		 push	 44			; 0000002cH
  00028	8b 45 0c	 mov	 eax, DWORD PTR $T5[ebp]
  0002b	50		 push	 eax
  0002c	e8 00 00 00 00	 call	 ??3@YAXPAXI@Z		; operator delete
  00031	83 c4 08	 add	 esp, 8
  00034	c3		 ret	 0
__unwindfunclet$?Identify@TiXmlNode@@IAEPAV1@PBDW4TiXmlEncoding@@@Z$5:
  00035	6a 2c		 push	 44			; 0000002cH
  00037	8b 45 0c	 mov	 eax, DWORD PTR $T7[ebp]
  0003a	50		 push	 eax
  0003b	e8 00 00 00 00	 call	 ??3@YAXPAXI@Z		; operator delete
  00040	83 c4 08	 add	 esp, 8
  00043	c3		 ret	 0
__unwindfunclet$?Identify@TiXmlNode@@IAEPAV1@PBDW4TiXmlEncoding@@@Z$4:
  00044	6a 50		 push	 80			; 00000050H
  00046	8b 45 0c	 mov	 eax, DWORD PTR $T6[ebp]
  00049	50		 push	 eax
  0004a	e8 00 00 00 00	 call	 ??3@YAXPAXI@Z		; operator delete
  0004f	83 c4 08	 add	 esp, 8
  00052	c3		 ret	 0
__unwindfunclet$?Identify@TiXmlNode@@IAEPAV1@PBDW4TiXmlEncoding@@@Z$0:
  00053	6a 38		 push	 56			; 00000038H
  00055	8b 45 0c	 mov	 eax, DWORD PTR $T2[ebp]
  00058	50		 push	 eax
  00059	e8 00 00 00 00	 call	 ??3@YAXPAXI@Z		; operator delete
  0005e	83 c4 08	 add	 esp, 8
  00061	c3		 ret	 0
  00062	cc		 int	 3
  00063	cc		 int	 3
  00064	cc		 int	 3
  00065	cc		 int	 3
  00066	cc		 int	 3
__ehhandler$?Identify@TiXmlNode@@IAEPAV1@PBDW4TiXmlEncoding@@@Z:
  00067	90		 npad	 1
  00068	90		 npad	 1
  00069	8b 54 24 08	 mov	 edx, DWORD PTR [esp+8]
  0006d	8d 42 0c	 lea	 eax, DWORD PTR [edx+12]
  00070	8b 4a e8	 mov	 ecx, DWORD PTR [edx-24]
  00073	33 c8		 xor	 ecx, eax
  00075	e8 00 00 00 00	 call	 @__security_check_cookie@4
  0007a	b8 00 00 00 00	 mov	 eax, OFFSET __ehfuncinfo$?Identify@TiXmlNode@@IAEPAV1@PBDW4TiXmlEncoding@@@Z
  0007f	e9 00 00 00 00	 jmp	 ___CxxFrameHandler3
text$x	ENDS
?Identify@TiXmlNode@@IAEPAV1@PBDW4TiXmlEncoding@@@Z ENDP ; TiXmlNode::Identify
; Function compile flags: /Ogtp
; File E:\Proyectos\JuegosOnlineproyectos\PB\pbblow\Piercing Blow Remake\i3Server\include\i3Base\tinyxml.h
;	COMDAT ?ToDeclaration@TiXmlNode@@UAEPAVTiXmlDeclaration@@XZ
_TEXT	SEGMENT
?ToDeclaration@TiXmlNode@@UAEPAVTiXmlDeclaration@@XZ PROC ; TiXmlNode::ToDeclaration, COMDAT
; _this$ = ecx

; 713  : 	virtual TiXmlDeclaration*       ToDeclaration() { return 0; } ///< Cast to a more defined type. Will return null if not of the requested type.

  00000	33 c0		 xor	 eax, eax
  00002	c3		 ret	 0
?ToDeclaration@TiXmlNode@@UAEPAVTiXmlDeclaration@@XZ ENDP ; TiXmlNode::ToDeclaration
_TEXT	ENDS
; Function compile flags: /Ogtp
; File E:\Proyectos\JuegosOnlineproyectos\PB\pbblow\Piercing Blow Remake\i3Server\include\i3Base\tinyxml.h
;	COMDAT ?ToText@TiXmlNode@@UAEPAVTiXmlText@@XZ
_TEXT	SEGMENT
?ToText@TiXmlNode@@UAEPAVTiXmlText@@XZ PROC		; TiXmlNode::ToText, COMDAT
; _this$ = ecx

; 712  : 	virtual TiXmlText*	            ToText()        { return 0; } ///< Cast to a more defined type. Will return null if not of the requested type.

  00000	33 c0		 xor	 eax, eax
  00002	c3		 ret	 0
?ToText@TiXmlNode@@UAEPAVTiXmlText@@XZ ENDP		; TiXmlNode::ToText
_TEXT	ENDS
; Function compile flags: /Ogtp
; File E:\Proyectos\JuegosOnlineproyectos\PB\pbblow\Piercing Blow Remake\i3Server\include\i3Base\tinyxml.h
;	COMDAT ?ToUnknown@TiXmlNode@@UAEPAVTiXmlUnknown@@XZ
_TEXT	SEGMENT
?ToUnknown@TiXmlNode@@UAEPAVTiXmlUnknown@@XZ PROC	; TiXmlNode::ToUnknown, COMDAT
; _this$ = ecx

; 711  : 	virtual TiXmlUnknown*           ToUnknown()	    { return 0; } ///< Cast to a more defined type. Will return null if not of the requested type.

  00000	33 c0		 xor	 eax, eax
  00002	c3		 ret	 0
?ToUnknown@TiXmlNode@@UAEPAVTiXmlUnknown@@XZ ENDP	; TiXmlNode::ToUnknown
_TEXT	ENDS
; Function compile flags: /Ogtp
; File E:\Proyectos\JuegosOnlineproyectos\PB\pbblow\Piercing Blow Remake\i3Server\include\i3Base\tinyxml.h
;	COMDAT ?ToComment@TiXmlNode@@UAEPAVTiXmlComment@@XZ
_TEXT	SEGMENT
?ToComment@TiXmlNode@@UAEPAVTiXmlComment@@XZ PROC	; TiXmlNode::ToComment, COMDAT
; _this$ = ecx

; 710  : 	virtual TiXmlComment*           ToComment()     { return 0; } ///< Cast to a more defined type. Will return null if not of the requested type.

  00000	33 c0		 xor	 eax, eax
  00002	c3		 ret	 0
?ToComment@TiXmlNode@@UAEPAVTiXmlComment@@XZ ENDP	; TiXmlNode::ToComment
_TEXT	ENDS
; Function compile flags: /Ogtp
; File E:\Proyectos\JuegosOnlineproyectos\PB\pbblow\Piercing Blow Remake\i3Server\include\i3Base\tinyxml.h
;	COMDAT ?ToElement@TiXmlNode@@UAEPAVTiXmlElement@@XZ
_TEXT	SEGMENT
?ToElement@TiXmlNode@@UAEPAVTiXmlElement@@XZ PROC	; TiXmlNode::ToElement, COMDAT
; _this$ = ecx

; 709  : 	virtual TiXmlElement*           ToElement()	    { return 0; } ///< Cast to a more defined type. Will return null if not of the requested type.

  00000	33 c0		 xor	 eax, eax
  00002	c3		 ret	 0
?ToElement@TiXmlNode@@UAEPAVTiXmlElement@@XZ ENDP	; TiXmlNode::ToElement
_TEXT	ENDS
; Function compile flags: /Ogtp
; File E:\Proyectos\JuegosOnlineproyectos\PB\pbblow\Piercing Blow Remake\i3Server\include\i3Base\tinyxml.h
;	COMDAT ?ToDocument@TiXmlNode@@UAEPAVTiXmlDocument@@XZ
_TEXT	SEGMENT
?ToDocument@TiXmlNode@@UAEPAVTiXmlDocument@@XZ PROC	; TiXmlNode::ToDocument, COMDAT
; _this$ = ecx

; 708  : 	virtual TiXmlDocument*          ToDocument()    { return 0; } ///< Cast to a more defined type. Will return null if not of the requested type.

  00000	33 c0		 xor	 eax, eax
  00002	c3		 ret	 0
?ToDocument@TiXmlNode@@UAEPAVTiXmlDocument@@XZ ENDP	; TiXmlNode::ToDocument
_TEXT	ENDS
; Function compile flags: /Ogtp
; File E:\Proyectos\JuegosOnlineproyectos\PB\pbblow\Piercing Blow Remake\i3Server\include\i3Base\tinyxml.h
;	COMDAT ?ToDeclaration@TiXmlNode@@UBEPBVTiXmlDeclaration@@XZ
_TEXT	SEGMENT
?ToDeclaration@TiXmlNode@@UBEPBVTiXmlDeclaration@@XZ PROC ; TiXmlNode::ToDeclaration, COMDAT
; _this$ = ecx

; 706  : 	virtual const TiXmlDeclaration* ToDeclaration() const { return 0; } ///< Cast to a more defined type. Will return null if not of the requested type.

  00000	33 c0		 xor	 eax, eax
  00002	c3		 ret	 0
?ToDeclaration@TiXmlNode@@UBEPBVTiXmlDeclaration@@XZ ENDP ; TiXmlNode::ToDeclaration
_TEXT	ENDS
; Function compile flags: /Ogtp
; File E:\Proyectos\JuegosOnlineproyectos\PB\pbblow\Piercing Blow Remake\i3Server\include\i3Base\tinyxml.h
;	COMDAT ?ToText@TiXmlNode@@UBEPBVTiXmlText@@XZ
_TEXT	SEGMENT
?ToText@TiXmlNode@@UBEPBVTiXmlText@@XZ PROC		; TiXmlNode::ToText, COMDAT
; _this$ = ecx

; 705  : 	virtual const TiXmlText*        ToText()        const { return 0; } ///< Cast to a more defined type. Will return null if not of the requested type.

  00000	33 c0		 xor	 eax, eax
  00002	c3		 ret	 0
?ToText@TiXmlNode@@UBEPBVTiXmlText@@XZ ENDP		; TiXmlNode::ToText
_TEXT	ENDS
; Function compile flags: /Ogtp
; File E:\Proyectos\JuegosOnlineproyectos\PB\pbblow\Piercing Blow Remake\i3Server\include\i3Base\tinyxml.h
;	COMDAT ?ToUnknown@TiXmlNode@@UBEPBVTiXmlUnknown@@XZ
_TEXT	SEGMENT
?ToUnknown@TiXmlNode@@UBEPBVTiXmlUnknown@@XZ PROC	; TiXmlNode::ToUnknown, COMDAT
; _this$ = ecx

; 704  : 	virtual const TiXmlUnknown*     ToUnknown()     const { return 0; } ///< Cast to a more defined type. Will return null if not of the requested type.

  00000	33 c0		 xor	 eax, eax
  00002	c3		 ret	 0
?ToUnknown@TiXmlNode@@UBEPBVTiXmlUnknown@@XZ ENDP	; TiXmlNode::ToUnknown
_TEXT	ENDS
; Function compile flags: /Ogtp
; File E:\Proyectos\JuegosOnlineproyectos\PB\pbblow\Piercing Blow Remake\i3Server\include\i3Base\tinyxml.h
;	COMDAT ?ToComment@TiXmlNode@@UBEPBVTiXmlComment@@XZ
_TEXT	SEGMENT
?ToComment@TiXmlNode@@UBEPBVTiXmlComment@@XZ PROC	; TiXmlNode::ToComment, COMDAT
; _this$ = ecx

; 703  : 	virtual const TiXmlComment*     ToComment()     const { return 0; } ///< Cast to a more defined type. Will return null if not of the requested type.

  00000	33 c0		 xor	 eax, eax
  00002	c3		 ret	 0
?ToComment@TiXmlNode@@UBEPBVTiXmlComment@@XZ ENDP	; TiXmlNode::ToComment
_TEXT	ENDS
; Function compile flags: /Ogtp
; File E:\Proyectos\JuegosOnlineproyectos\PB\pbblow\Piercing Blow Remake\i3Server\include\i3Base\tinyxml.h
;	COMDAT ?ToElement@TiXmlNode@@UBEPBVTiXmlElement@@XZ
_TEXT	SEGMENT
?ToElement@TiXmlNode@@UBEPBVTiXmlElement@@XZ PROC	; TiXmlNode::ToElement, COMDAT
; _this$ = ecx

; 702  : 	virtual const TiXmlElement*     ToElement()     const { return 0; } ///< Cast to a more defined type. Will return null if not of the requested type.

  00000	33 c0		 xor	 eax, eax
  00002	c3		 ret	 0
?ToElement@TiXmlNode@@UBEPBVTiXmlElement@@XZ ENDP	; TiXmlNode::ToElement
_TEXT	ENDS
; Function compile flags: /Ogtp
; File E:\Proyectos\JuegosOnlineproyectos\PB\pbblow\Piercing Blow Remake\i3Server\include\i3Base\tinyxml.h
;	COMDAT ?ToDocument@TiXmlNode@@UBEPBVTiXmlDocument@@XZ
_TEXT	SEGMENT
?ToDocument@TiXmlNode@@UBEPBVTiXmlDocument@@XZ PROC	; TiXmlNode::ToDocument, COMDAT
; _this$ = ecx

; 701  : 	virtual const TiXmlDocument*    ToDocument()    const { return 0; } ///< Cast to a more defined type. Will return null if not of the requested type.

  00000	33 c0		 xor	 eax, eax
  00002	c3		 ret	 0
?ToDocument@TiXmlNode@@UBEPBVTiXmlDocument@@XZ ENDP	; TiXmlNode::ToDocument
_TEXT	ENDS
; Function compile flags: /Ogtp
; File E:\Proyectos\JuegosOnlineproyectos\PB\pbblow\Piercing Blow Remake\i3Server\include\i3Base\tinyxml.h
;	COMDAT ?NoChildren@TiXmlNode@@QBE_NXZ
_TEXT	SEGMENT
?NoChildren@TiXmlNode@@QBE_NXZ PROC			; TiXmlNode::NoChildren, COMDAT
; _this$ = ecx

; 699  : 	bool NoChildren() const						{ return !firstChild; }

  00000	83 79 18 00	 cmp	 DWORD PTR [ecx+24], 0
  00004	0f 94 c0	 sete	 al
  00007	c3		 ret	 0
?NoChildren@TiXmlNode@@QBE_NXZ ENDP			; TiXmlNode::NoChildren
_TEXT	ENDS
; Function compile flags: /Ogtp
; File E:\Proyectos\JuegosOnlineproyectos\PB\pbblow\Piercing Blow Remake\i3Server\include\i3Base\tinyxml.h
;	COMDAT ?GetDocument@TiXmlNode@@QAEPAVTiXmlDocument@@XZ
_TEXT	SEGMENT
?GetDocument@TiXmlNode@@QAEPAVTiXmlDocument@@XZ PROC	; TiXmlNode::GetDocument, COMDAT
; _this$ = ecx

; 695  : 		return const_cast< TiXmlDocument* >( (const_cast< const TiXmlNode* >(this))->GetDocument() );

  00000	e9 00 00 00 00	 jmp	 ?GetDocument@TiXmlNode@@QBEPBVTiXmlDocument@@XZ ; TiXmlNode::GetDocument
?GetDocument@TiXmlNode@@QAEPAVTiXmlDocument@@XZ ENDP	; TiXmlNode::GetDocument
_TEXT	ENDS
; Function compile flags: /Ogtp
; File E:\Proyectos\JuegosOnlineproyectos\PB\pbblow\Piercing Blow Remake\i3Server\include\i3Base\tinyxml.h
;	COMDAT ?Type@TiXmlNode@@QBEHXZ
_TEXT	SEGMENT
?Type@TiXmlNode@@QBEHXZ PROC				; TiXmlNode::Type, COMDAT
; _this$ = ecx

; 688  : 	int Type() const	{ return type; }

  00000	8b 41 14	 mov	 eax, DWORD PTR [ecx+20]
  00003	c3		 ret	 0
?Type@TiXmlNode@@QBEHXZ ENDP				; TiXmlNode::Type
_TEXT	ENDS
; Function compile flags: /Ogtp
; File E:\Proyectos\JuegosOnlineproyectos\PB\pbblow\Piercing Blow Remake\i3Server\include\i3Base\tinyxml.h
;	COMDAT ?FirstChildElement@TiXmlNode@@QAEPAVTiXmlElement@@PBD@Z
_TEXT	SEGMENT
__value$ = 8						; size = 4
?FirstChildElement@TiXmlNode@@QAEPAVTiXmlElement@@PBD@Z PROC ; TiXmlNode::FirstChildElement, COMDAT
; _this$ = ecx

; 675  : 	TiXmlElement* FirstChildElement( const char * _value ) {

  00000	55		 push	 ebp
  00001	8b ec		 mov	 ebp, esp

; 677  : 	}

  00003	5d		 pop	 ebp

; 676  : 		return const_cast< TiXmlElement* >( (const_cast< const TiXmlNode* >(this))->FirstChildElement( _value ) );

  00004	e9 00 00 00 00	 jmp	 ?FirstChildElement@TiXmlNode@@QBEPBVTiXmlElement@@PBD@Z ; TiXmlNode::FirstChildElement
?FirstChildElement@TiXmlNode@@QAEPAVTiXmlElement@@PBD@Z ENDP ; TiXmlNode::FirstChildElement
_TEXT	ENDS
; Function compile flags: /Ogtp
; File E:\Proyectos\JuegosOnlineproyectos\PB\pbblow\Piercing Blow Remake\i3Server\include\i3Base\tinyxml.h
;	COMDAT ?FirstChildElement@TiXmlNode@@QAEPAVTiXmlElement@@XZ
_TEXT	SEGMENT
?FirstChildElement@TiXmlNode@@QAEPAVTiXmlElement@@XZ PROC ; TiXmlNode::FirstChildElement, COMDAT
; _this$ = ecx

; 670  : 		return const_cast< TiXmlElement* >( (const_cast< const TiXmlNode* >(this))->FirstChildElement() );

  00000	e9 00 00 00 00	 jmp	 ?FirstChildElement@TiXmlNode@@QBEPBVTiXmlElement@@XZ ; TiXmlNode::FirstChildElement
?FirstChildElement@TiXmlNode@@QAEPAVTiXmlElement@@XZ ENDP ; TiXmlNode::FirstChildElement
_TEXT	ENDS
; Function compile flags: /Ogtp
; File E:\Proyectos\JuegosOnlineproyectos\PB\pbblow\Piercing Blow Remake\i3Server\include\i3Base\tinyxml.h
;	COMDAT ?NextSiblingElement@TiXmlNode@@QAEPAVTiXmlElement@@PBD@Z
_TEXT	SEGMENT
__next$ = 8						; size = 4
?NextSiblingElement@TiXmlNode@@QAEPAVTiXmlElement@@PBD@Z PROC ; TiXmlNode::NextSiblingElement, COMDAT
; _this$ = ecx

; 658  : 	TiXmlElement* NextSiblingElement( const char *_next ) {

  00000	55		 push	 ebp
  00001	8b ec		 mov	 ebp, esp

; 660  : 	}

  00003	5d		 pop	 ebp

; 659  : 		return const_cast< TiXmlElement* >( (const_cast< const TiXmlNode* >(this))->NextSiblingElement( _next ) );

  00004	e9 00 00 00 00	 jmp	 ?NextSiblingElement@TiXmlNode@@QBEPBVTiXmlElement@@PBD@Z ; TiXmlNode::NextSiblingElement
?NextSiblingElement@TiXmlNode@@QAEPAVTiXmlElement@@PBD@Z ENDP ; TiXmlNode::NextSiblingElement
_TEXT	ENDS
; Function compile flags: /Ogtp
; File E:\Proyectos\JuegosOnlineproyectos\PB\pbblow\Piercing Blow Remake\i3Server\include\i3Base\tinyxml.h
;	COMDAT ?NextSiblingElement@TiXmlNode@@QAEPAVTiXmlElement@@XZ
_TEXT	SEGMENT
?NextSiblingElement@TiXmlNode@@QAEPAVTiXmlElement@@XZ PROC ; TiXmlNode::NextSiblingElement, COMDAT
; _this$ = ecx

; 650  : 		return const_cast< TiXmlElement* >( (const_cast< const TiXmlNode* >(this))->NextSiblingElement() );

  00000	e9 00 00 00 00	 jmp	 ?NextSiblingElement@TiXmlNode@@QBEPBVTiXmlElement@@XZ ; TiXmlNode::NextSiblingElement
?NextSiblingElement@TiXmlNode@@QAEPAVTiXmlElement@@XZ ENDP ; TiXmlNode::NextSiblingElement
_TEXT	ENDS
; Function compile flags: /Ogtp
; File E:\Proyectos\JuegosOnlineproyectos\PB\pbblow\Piercing Blow Remake\i3Server\include\i3Base\tinyxml.h
;	COMDAT ?NextSibling@TiXmlNode@@QAEPAV1@PBD@Z
_TEXT	SEGMENT
__next$ = 8						; size = 4
?NextSibling@TiXmlNode@@QAEPAV1@PBD@Z PROC		; TiXmlNode::NextSibling, COMDAT
; _this$ = ecx

; 640  : 	TiXmlNode* NextSibling( const char* _next ) {

  00000	55		 push	 ebp
  00001	8b ec		 mov	 ebp, esp

; 642  : 	}

  00003	5d		 pop	 ebp

; 641  : 		return const_cast< TiXmlNode* >( (const_cast< const TiXmlNode* >(this))->NextSibling( _next ) );

  00004	e9 00 00 00 00	 jmp	 ?NextSibling@TiXmlNode@@QBEPBV1@PBD@Z ; TiXmlNode::NextSibling
?NextSibling@TiXmlNode@@QAEPAV1@PBD@Z ENDP		; TiXmlNode::NextSibling
_TEXT	ENDS
; Function compile flags: /Ogtp
; File E:\Proyectos\JuegosOnlineproyectos\PB\pbblow\Piercing Blow Remake\i3Server\include\i3Base\tinyxml.h
;	COMDAT ?NextSibling@TiXmlNode@@QAEPAV1@XZ
_TEXT	SEGMENT
?NextSibling@TiXmlNode@@QAEPAV1@XZ PROC			; TiXmlNode::NextSibling, COMDAT
; _this$ = ecx

; 636  : 	TiXmlNode* NextSibling()							{ return next; }

  00000	8b 41 28	 mov	 eax, DWORD PTR [ecx+40]
  00003	c3		 ret	 0
?NextSibling@TiXmlNode@@QAEPAV1@XZ ENDP			; TiXmlNode::NextSibling
_TEXT	ENDS
; Function compile flags: /Ogtp
; File E:\Proyectos\JuegosOnlineproyectos\PB\pbblow\Piercing Blow Remake\i3Server\include\i3Base\tinyxml.h
;	COMDAT ?NextSibling@TiXmlNode@@QBEPBV1@XZ
_TEXT	SEGMENT
?NextSibling@TiXmlNode@@QBEPBV1@XZ PROC			; TiXmlNode::NextSibling, COMDAT
; _this$ = ecx

; 635  : 	const TiXmlNode* NextSibling() const				{ return next; }

  00000	8b 41 28	 mov	 eax, DWORD PTR [ecx+40]
  00003	c3		 ret	 0
?NextSibling@TiXmlNode@@QBEPBV1@XZ ENDP			; TiXmlNode::NextSibling
_TEXT	ENDS
; Function compile flags: /Ogtp
; File E:\Proyectos\JuegosOnlineproyectos\PB\pbblow\Piercing Blow Remake\i3Server\include\i3Base\tinyxml.h
;	COMDAT ?PreviousSibling@TiXmlNode@@QAEPAV1@PBD@Z
_TEXT	SEGMENT
__prev$ = 8						; size = 4
?PreviousSibling@TiXmlNode@@QAEPAV1@PBD@Z PROC		; TiXmlNode::PreviousSibling, COMDAT
; _this$ = ecx

; 623  : 	TiXmlNode* PreviousSibling( const char *_prev ) {

  00000	55		 push	 ebp
  00001	8b ec		 mov	 ebp, esp

; 625  : 	}

  00003	5d		 pop	 ebp

; 624  : 		return const_cast< TiXmlNode* >( (const_cast< const TiXmlNode* >(this))->PreviousSibling( _prev ) );

  00004	e9 00 00 00 00	 jmp	 ?PreviousSibling@TiXmlNode@@QBEPBV1@PBD@Z ; TiXmlNode::PreviousSibling
?PreviousSibling@TiXmlNode@@QAEPAV1@PBD@Z ENDP		; TiXmlNode::PreviousSibling
_TEXT	ENDS
; Function compile flags: /Ogtp
; File E:\Proyectos\JuegosOnlineproyectos\PB\pbblow\Piercing Blow Remake\i3Server\include\i3Base\tinyxml.h
;	COMDAT ?PreviousSibling@TiXmlNode@@QAEPAV1@XZ
_TEXT	SEGMENT
?PreviousSibling@TiXmlNode@@QAEPAV1@XZ PROC		; TiXmlNode::PreviousSibling, COMDAT
; _this$ = ecx

; 619  : 	TiXmlNode* PreviousSibling()						{ return prev; }

  00000	8b 41 24	 mov	 eax, DWORD PTR [ecx+36]
  00003	c3		 ret	 0
?PreviousSibling@TiXmlNode@@QAEPAV1@XZ ENDP		; TiXmlNode::PreviousSibling
_TEXT	ENDS
; Function compile flags: /Ogtp
; File E:\Proyectos\JuegosOnlineproyectos\PB\pbblow\Piercing Blow Remake\i3Server\include\i3Base\tinyxml.h
;	COMDAT ?PreviousSibling@TiXmlNode@@QBEPBV1@XZ
_TEXT	SEGMENT
?PreviousSibling@TiXmlNode@@QBEPBV1@XZ PROC		; TiXmlNode::PreviousSibling, COMDAT
; _this$ = ecx

; 618  : 	const TiXmlNode* PreviousSibling() const			{ return prev; }

  00000	8b 41 24	 mov	 eax, DWORD PTR [ecx+36]
  00003	c3		 ret	 0
?PreviousSibling@TiXmlNode@@QBEPBV1@XZ ENDP		; TiXmlNode::PreviousSibling
_TEXT	ENDS
; Function compile flags: /Ogtp
; File E:\Proyectos\JuegosOnlineproyectos\PB\pbblow\Piercing Blow Remake\i3Server\include\i3Base\tinyxml.h
;	COMDAT ?IterateChildren@TiXmlNode@@QAEPAV1@PBDPBV1@@Z
_TEXT	SEGMENT
__value$ = 8						; size = 4
_previous$ = 12						; size = 4
?IterateChildren@TiXmlNode@@QAEPAV1@PBDPBV1@@Z PROC	; TiXmlNode::IterateChildren, COMDAT
; _this$ = ecx

; 573  : 	TiXmlNode* IterateChildren( const char * _value, const TiXmlNode* previous ) {

  00000	55		 push	 ebp
  00001	8b ec		 mov	 ebp, esp

; 575  : 	}

  00003	5d		 pop	 ebp

; 574  : 		return const_cast< TiXmlNode* >( (const_cast< const TiXmlNode* >(this))->IterateChildren( _value, previous ) );

  00004	e9 00 00 00 00	 jmp	 ?IterateChildren@TiXmlNode@@QBEPBV1@PBDPBV1@@Z ; TiXmlNode::IterateChildren
?IterateChildren@TiXmlNode@@QAEPAV1@PBDPBV1@@Z ENDP	; TiXmlNode::IterateChildren
_TEXT	ENDS
; Function compile flags: /Ogtp
; File E:\Proyectos\JuegosOnlineproyectos\PB\pbblow\Piercing Blow Remake\i3Server\include\i3Base\tinyxml.h
;	COMDAT ?IterateChildren@TiXmlNode@@QAEPAV1@PBV1@@Z
_TEXT	SEGMENT
_previous$ = 8						; size = 4
?IterateChildren@TiXmlNode@@QAEPAV1@PBV1@@Z PROC	; TiXmlNode::IterateChildren, COMDAT
; _this$ = ecx

; 567  : 	TiXmlNode* IterateChildren( const TiXmlNode* previous ) {

  00000	55		 push	 ebp
  00001	8b ec		 mov	 ebp, esp

; 569  : 	}

  00003	5d		 pop	 ebp

; 568  : 		return const_cast< TiXmlNode* >( (const_cast< const TiXmlNode* >(this))->IterateChildren( previous ) );

  00004	e9 00 00 00 00	 jmp	 ?IterateChildren@TiXmlNode@@QBEPBV1@PBV1@@Z ; TiXmlNode::IterateChildren
?IterateChildren@TiXmlNode@@QAEPAV1@PBV1@@Z ENDP	; TiXmlNode::IterateChildren
_TEXT	ENDS
; Function compile flags: /Ogtp
; File E:\Proyectos\JuegosOnlineproyectos\PB\pbblow\Piercing Blow Remake\i3Server\include\i3Base\tinyxml.h
;	COMDAT ?LastChild@TiXmlNode@@QAEPAV1@PBD@Z
_TEXT	SEGMENT
__value$ = 8						; size = 4
?LastChild@TiXmlNode@@QAEPAV1@PBD@Z PROC		; TiXmlNode::LastChild, COMDAT
; _this$ = ecx

; 539  : 	TiXmlNode* LastChild( const char * _value ) {

  00000	55		 push	 ebp
  00001	8b ec		 mov	 ebp, esp

; 541  : 	}

  00003	5d		 pop	 ebp

; 540  : 		return const_cast< TiXmlNode* > ((const_cast< const TiXmlNode* >(this))->LastChild( _value ));

  00004	e9 00 00 00 00	 jmp	 ?LastChild@TiXmlNode@@QBEPBV1@PBD@Z ; TiXmlNode::LastChild
?LastChild@TiXmlNode@@QAEPAV1@PBD@Z ENDP		; TiXmlNode::LastChild
_TEXT	ENDS
; Function compile flags: /Ogtp
; File E:\Proyectos\JuegosOnlineproyectos\PB\pbblow\Piercing Blow Remake\i3Server\include\i3Base\tinyxml.h
;	COMDAT ?LastChild@TiXmlNode@@QAEPAV1@XZ
_TEXT	SEGMENT
?LastChild@TiXmlNode@@QAEPAV1@XZ PROC			; TiXmlNode::LastChild, COMDAT
; _this$ = ecx

; 536  : 	TiXmlNode* LastChild()	{ return lastChild; }

  00000	8b 41 1c	 mov	 eax, DWORD PTR [ecx+28]
  00003	c3		 ret	 0
?LastChild@TiXmlNode@@QAEPAV1@XZ ENDP			; TiXmlNode::LastChild
_TEXT	ENDS
; Function compile flags: /Ogtp
; File E:\Proyectos\JuegosOnlineproyectos\PB\pbblow\Piercing Blow Remake\i3Server\include\i3Base\tinyxml.h
;	COMDAT ?LastChild@TiXmlNode@@QBEPBV1@XZ
_TEXT	SEGMENT
?LastChild@TiXmlNode@@QBEPBV1@XZ PROC			; TiXmlNode::LastChild, COMDAT
; _this$ = ecx

; 535  : 	const TiXmlNode* LastChild() const	{ return lastChild; }		/// The last child of this node. Will be null if there are no children.

  00000	8b 41 1c	 mov	 eax, DWORD PTR [ecx+28]
  00003	c3		 ret	 0
?LastChild@TiXmlNode@@QBEPBV1@XZ ENDP			; TiXmlNode::LastChild
_TEXT	ENDS
; Function compile flags: /Ogtp
; File E:\Proyectos\JuegosOnlineproyectos\PB\pbblow\Piercing Blow Remake\i3Server\include\i3Base\tinyxml.h
;	COMDAT ?FirstChild@TiXmlNode@@QAEPAV1@PBD@Z
_TEXT	SEGMENT
__value$ = 8						; size = 4
?FirstChild@TiXmlNode@@QAEPAV1@PBD@Z PROC		; TiXmlNode::FirstChild, COMDAT
; _this$ = ecx

; 530  : 	TiXmlNode* FirstChild( const char * _value ) {

  00000	55		 push	 ebp
  00001	8b ec		 mov	 ebp, esp

; 534  : 	}

  00003	5d		 pop	 ebp

; 531  : 		// Call through to the const version - safe since nothing is changed. Exiting syntax: cast this to a const (always safe)
; 532  : 		// call the method, cast the return back to non-const.
; 533  : 		return const_cast< TiXmlNode* > ((const_cast< const TiXmlNode* >(this))->FirstChild( _value ));

  00004	e9 00 00 00 00	 jmp	 ?FirstChild@TiXmlNode@@QBEPBV1@PBD@Z ; TiXmlNode::FirstChild
?FirstChild@TiXmlNode@@QAEPAV1@PBD@Z ENDP		; TiXmlNode::FirstChild
_TEXT	ENDS
; Function compile flags: /Ogtp
; File E:\Proyectos\JuegosOnlineproyectos\PB\pbblow\Piercing Blow Remake\i3Server\include\i3Base\tinyxml.h
;	COMDAT ?FirstChild@TiXmlNode@@QAEPAV1@XZ
_TEXT	SEGMENT
?FirstChild@TiXmlNode@@QAEPAV1@XZ PROC			; TiXmlNode::FirstChild, COMDAT
; _this$ = ecx

; 527  : 	TiXmlNode* FirstChild()						{ return firstChild; }

  00000	8b 41 18	 mov	 eax, DWORD PTR [ecx+24]
  00003	c3		 ret	 0
?FirstChild@TiXmlNode@@QAEPAV1@XZ ENDP			; TiXmlNode::FirstChild
_TEXT	ENDS
; Function compile flags: /Ogtp
; File E:\Proyectos\JuegosOnlineproyectos\PB\pbblow\Piercing Blow Remake\i3Server\include\i3Base\tinyxml.h
;	COMDAT ?FirstChild@TiXmlNode@@QBEPBV1@XZ
_TEXT	SEGMENT
?FirstChild@TiXmlNode@@QBEPBV1@XZ PROC			; TiXmlNode::FirstChild, COMDAT
; _this$ = ecx

; 526  : 	const TiXmlNode* FirstChild()	const		{ return firstChild; }	///< The first child of this node. Will be null if there are no children.

  00000	8b 41 18	 mov	 eax, DWORD PTR [ecx+24]
  00003	c3		 ret	 0
?FirstChild@TiXmlNode@@QBEPBV1@XZ ENDP			; TiXmlNode::FirstChild
_TEXT	ENDS
; Function compile flags: /Ogtp
; File E:\Proyectos\JuegosOnlineproyectos\PB\pbblow\Piercing Blow Remake\i3Server\include\i3Base\tinyxml.h
;	COMDAT ?Parent@TiXmlNode@@QBEPBV1@XZ
_TEXT	SEGMENT
?Parent@TiXmlNode@@QBEPBV1@XZ PROC			; TiXmlNode::Parent, COMDAT
; _this$ = ecx

; 524  : 	const TiXmlNode* Parent() const				{ return parent; }

  00000	8b 41 10	 mov	 eax, DWORD PTR [ecx+16]
  00003	c3		 ret	 0
?Parent@TiXmlNode@@QBEPBV1@XZ ENDP			; TiXmlNode::Parent
_TEXT	ENDS
; Function compile flags: /Ogtp
; File E:\Proyectos\JuegosOnlineproyectos\PB\pbblow\Piercing Blow Remake\i3Server\include\i3Base\tinyxml.h
;	COMDAT ?Parent@TiXmlNode@@QAEPAV1@XZ
_TEXT	SEGMENT
?Parent@TiXmlNode@@QAEPAV1@XZ PROC			; TiXmlNode::Parent, COMDAT
; _this$ = ecx

; 523  : 	TiXmlNode* Parent()							{ return parent; }

  00000	8b 41 10	 mov	 eax, DWORD PTR [ecx+16]
  00003	c3		 ret	 0
?Parent@TiXmlNode@@QAEPAV1@XZ ENDP			; TiXmlNode::Parent
_TEXT	ENDS
; Function compile flags: /Ogtp
; File E:\Proyectos\JuegosOnlineproyectos\PB\pbblow\Piercing Blow Remake\i3Server\include\i3Base\tinyxml.h
; File E:\Proyectos\JuegosOnlineproyectos\PB\pbblow\Piercing Blow Remake\i3Server\include\i3Base\tinystr.h
; File E:\Proyectos\JuegosOnlineproyectos\PB\pbblow\Piercing Blow Remake\i3Server\include\i3Base\tinyxml.h
; File E:\Proyectos\JuegosOnlineproyectos\PB\pbblow\Piercing Blow Remake\i3Server\include\i3Base\tinystr.h
; File E:\Proyectos\JuegosOnlineproyectos\PB\pbblow\Piercing Blow Remake\i3Server\include\i3Base\tinyxml.h
; File E:\Proyectos\JuegosOnlineproyectos\PB\pbblow\Piercing Blow Remake\i3Server\include\i3Base\tinystr.h
; File E:\Proyectos\JuegosOnlineproyectos\PB\pbblow\Piercing Blow Remake\i3Server\include\i3Base\tinyxml.h
;	COMDAT ?SetValue@TiXmlNode@@QAEXPBD@Z
_TEXT	SEGMENT
__value$ = 8						; size = 4
?SetValue@TiXmlNode@@QAEXPBD@Z PROC			; TiXmlNode::SetValue, COMDAT
; _this$ = ecx

; 512  : 	void SetValue(const char * _value) { value = _value;}

  00000	55		 push	 ebp
  00001	8b ec		 mov	 ebp, esp
; File E:\Proyectos\JuegosOnlineproyectos\PB\pbblow\Piercing Blow Remake\i3Server\include\i3Base\tinystr.h

; 114  : 		return assign( copy, (size_type)strlen(copy));

  00003	8b 55 08	 mov	 edx, DWORD PTR __value$[ebp]
  00006	8b c2		 mov	 eax, edx
; File E:\Proyectos\JuegosOnlineproyectos\PB\pbblow\Piercing Blow Remake\i3Server\include\i3Base\tinyxml.h

; 512  : 	void SetValue(const char * _value) { value = _value;}

  00008	56		 push	 esi
  00009	57		 push	 edi
  0000a	8b f1		 mov	 esi, ecx
; File E:\Proyectos\JuegosOnlineproyectos\PB\pbblow\Piercing Blow Remake\i3Server\include\i3Base\tinystr.h

; 114  : 		return assign( copy, (size_type)strlen(copy));

  0000c	8d 78 01	 lea	 edi, DWORD PTR [eax+1]
  0000f	90		 npad	 1
$LL5@SetValue:
  00010	8a 08		 mov	 cl, BYTE PTR [eax]
  00012	40		 inc	 eax
  00013	84 c9		 test	 cl, cl
  00015	75 f9		 jne	 SHORT $LL5@SetValue
  00017	2b c7		 sub	 eax, edi
; File E:\Proyectos\JuegosOnlineproyectos\PB\pbblow\Piercing Blow Remake\i3Server\include\i3Base\tinyxml.h

; 512  : 	void SetValue(const char * _value) { value = _value;}

  00019	8d 4e 20	 lea	 ecx, DWORD PTR [esi+32]
; File E:\Proyectos\JuegosOnlineproyectos\PB\pbblow\Piercing Blow Remake\i3Server\include\i3Base\tinystr.h

; 114  : 		return assign( copy, (size_type)strlen(copy));

  0001c	50		 push	 eax
  0001d	52		 push	 edx
  0001e	e8 00 00 00 00	 call	 ?assign@TiXmlString@@QAEAAV1@PBDI@Z ; TiXmlString::assign
  00023	5f		 pop	 edi
  00024	5e		 pop	 esi
; File E:\Proyectos\JuegosOnlineproyectos\PB\pbblow\Piercing Blow Remake\i3Server\include\i3Base\tinyxml.h

; 512  : 	void SetValue(const char * _value) { value = _value;}

  00025	5d		 pop	 ebp
  00026	c2 04 00	 ret	 4
?SetValue@TiXmlNode@@QAEXPBD@Z ENDP			; TiXmlNode::SetValue
_TEXT	ENDS
; Function compile flags: /Ogtp
; File E:\Proyectos\JuegosOnlineproyectos\PB\pbblow\Piercing Blow Remake\i3Server\include\i3Base\tinyxml.h
;	COMDAT ?ValueTStr@TiXmlNode@@QBEABVTiXmlString@@XZ
_TEXT	SEGMENT
?ValueTStr@TiXmlNode@@QBEABVTiXmlString@@XZ PROC	; TiXmlNode::ValueTStr, COMDAT
; _this$ = ecx

; 501  : 	const TIXML_STRING& ValueTStr() const { return value; }

  00000	8d 41 20	 lea	 eax, DWORD PTR [ecx+32]
  00003	c3		 ret	 0
?ValueTStr@TiXmlNode@@QBEABVTiXmlString@@XZ ENDP	; TiXmlNode::ValueTStr
_TEXT	ENDS
; Function compile flags: /Ogtp
; File E:\Proyectos\JuegosOnlineproyectos\PB\pbblow\Piercing Blow Remake\i3Server\include\i3Base\tinyxml.h
; File E:\Proyectos\JuegosOnlineproyectos\PB\pbblow\Piercing Blow Remake\i3Server\include\i3Base\tinystr.h
; File E:\Proyectos\JuegosOnlineproyectos\PB\pbblow\Piercing Blow Remake\i3Server\include\i3Base\tinyxml.h
;	COMDAT ?Value@TiXmlNode@@QBEPBDXZ
_TEXT	SEGMENT
?Value@TiXmlNode@@QBEPBDXZ PROC				; TiXmlNode::Value, COMDAT
; _this$ = ecx
; File E:\Proyectos\JuegosOnlineproyectos\PB\pbblow\Piercing Blow Remake\i3Server\include\i3Base\tinystr.h

; 144  : 	const char * c_str () const { return rep_->str; }

  00000	8b 41 20	 mov	 eax, DWORD PTR [ecx+32]
  00003	83 c0 08	 add	 eax, 8
; File E:\Proyectos\JuegosOnlineproyectos\PB\pbblow\Piercing Blow Remake\i3Server\include\i3Base\tinyxml.h

; 491  : 	const char *Value() const { return value.c_str (); }

  00006	c3		 ret	 0
?Value@TiXmlNode@@QBEPBDXZ ENDP				; TiXmlNode::Value
_TEXT	ENDS
; Function compile flags: /Ogtp
;	COMDAT ??_ETiXmlBase@@UAEPAXI@Z
_TEXT	SEGMENT
__$EHRec$ = -12						; size = 12
___flags$ = 8						; size = 4
??_ETiXmlBase@@UAEPAXI@Z PROC				; TiXmlBase::`vector deleting destructor', COMDAT
; _this$ = ecx
  00000	55		 push	 ebp
  00001	8b ec		 mov	 ebp, esp
  00003	6a ff		 push	 -1
  00005	68 00 00 00 00	 push	 __ehhandler$??_ETiXmlBase@@UAEPAXI@Z
  0000a	64 a1 00 00 00
	00		 mov	 eax, DWORD PTR fs:0
  00010	50		 push	 eax
  00011	53		 push	 ebx
  00012	56		 push	 esi
  00013	57		 push	 edi
  00014	a1 00 00 00 00	 mov	 eax, DWORD PTR ___security_cookie
  00019	33 c5		 xor	 eax, ebp
  0001b	50		 push	 eax
  0001c	8d 45 f4	 lea	 eax, DWORD PTR __$EHRec$[ebp]
  0001f	64 a3 00 00 00
	00		 mov	 DWORD PTR fs:0, eax
  00025	8b f1		 mov	 esi, ecx
  00027	8b 45 08	 mov	 eax, DWORD PTR ___flags$[ebp]
  0002a	8b f8		 mov	 edi, eax
  0002c	83 e7 01	 and	 edi, 1
  0002f	a8 02		 test	 al, 2
  00031	74 3f		 je	 SHORT $LN2@vector
  00033	68 00 00 00 00	 push	 OFFSET ??1TiXmlBase@@UAE@XZ ; TiXmlBase::~TiXmlBase
  00038	ff 76 fc	 push	 DWORD PTR [esi-4]
  0003b	8d 5e fc	 lea	 ebx, DWORD PTR [esi-4]
  0003e	6a 10		 push	 16			; 00000010H
  00040	56		 push	 esi
  00041	e8 00 00 00 00	 call	 ??_M@YGXPAXIIP6EX0@Z@Z
  00046	85 ff		 test	 edi, edi
  00048	74 12		 je	 SHORT $LN3@vector
  0004a	8b 0b		 mov	 ecx, DWORD PTR [ebx]
  0004c	c1 e1 04	 shl	 ecx, 4
  0004f	83 c1 04	 add	 ecx, 4
  00052	51		 push	 ecx
  00053	53		 push	 ebx
  00054	e8 00 00 00 00	 call	 ??_V@YAXPAXI@Z		; operator delete[]
  00059	83 c4 08	 add	 esp, 8
$LN3@vector:
  0005c	8b c3		 mov	 eax, ebx
  0005e	8b 4d f4	 mov	 ecx, DWORD PTR __$EHRec$[ebp]
  00061	64 89 0d 00 00
	00 00		 mov	 DWORD PTR fs:0, ecx
  00068	59		 pop	 ecx
  00069	5f		 pop	 edi
  0006a	5e		 pop	 esi
  0006b	5b		 pop	 ebx
  0006c	8b e5		 mov	 esp, ebp
  0006e	5d		 pop	 ebp
  0006f	c2 04 00	 ret	 4
$LN2@vector:
  00072	c7 06 00 00 00
	00		 mov	 DWORD PTR [esi], OFFSET ??_7TiXmlBase@@6B@
  00078	85 ff		 test	 edi, edi
  0007a	74 0b		 je	 SHORT $LN4@vector
  0007c	6a 10		 push	 16			; 00000010H
  0007e	56		 push	 esi
  0007f	e8 00 00 00 00	 call	 ??3@YAXPAXI@Z		; operator delete
  00084	83 c4 08	 add	 esp, 8
$LN4@vector:
  00087	8b c6		 mov	 eax, esi
  00089	8b 4d f4	 mov	 ecx, DWORD PTR __$EHRec$[ebp]
  0008c	64 89 0d 00 00
	00 00		 mov	 DWORD PTR fs:0, ecx
  00093	59		 pop	 ecx
  00094	5f		 pop	 edi
  00095	5e		 pop	 esi
  00096	5b		 pop	 ebx
  00097	8b e5		 mov	 esp, ebp
  00099	5d		 pop	 ebp
  0009a	c2 04 00	 ret	 4
  0009d	cc		 int	 3
  0009e	cc		 int	 3
  0009f	cc		 int	 3
  000a0	cc		 int	 3
  000a1	cc		 int	 3
_TEXT	ENDS
;	COMDAT text$x
text$x	SEGMENT
__ehhandler$??_ETiXmlBase@@UAEPAXI@Z:
  00000	90		 npad	 1
  00001	90		 npad	 1
  00002	8b 54 24 08	 mov	 edx, DWORD PTR [esp+8]
  00006	8d 42 0c	 lea	 eax, DWORD PTR [edx+12]
  00009	8b 4a f0	 mov	 ecx, DWORD PTR [edx-16]
  0000c	33 c8		 xor	 ecx, eax
  0000e	e8 00 00 00 00	 call	 @__security_check_cookie@4
  00013	b8 00 00 00 00	 mov	 eax, OFFSET __ehfuncinfo$??_ETiXmlBase@@UAEPAXI@Z
  00018	e9 00 00 00 00	 jmp	 ___CxxFrameHandler3
text$x	ENDS
??_ETiXmlBase@@UAEPAXI@Z ENDP				; TiXmlBase::`vector deleting destructor'
; Function compile flags: /Ogtp
;	COMDAT ??_GTiXmlBase@@UAEPAXI@Z
_TEXT	SEGMENT
___flags$ = 8						; size = 4
??_GTiXmlBase@@UAEPAXI@Z PROC				; TiXmlBase::`scalar deleting destructor', COMDAT
; _this$ = ecx
  00000	55		 push	 ebp
  00001	8b ec		 mov	 ebp, esp
  00003	f6 45 08 01	 test	 BYTE PTR ___flags$[ebp], 1
  00007	56		 push	 esi
  00008	8b f1		 mov	 esi, ecx
  0000a	c7 06 00 00 00
	00		 mov	 DWORD PTR [esi], OFFSET ??_7TiXmlBase@@6B@
  00010	74 0b		 je	 SHORT $LN5@scalar
  00012	6a 10		 push	 16			; 00000010H
  00014	56		 push	 esi
  00015	e8 00 00 00 00	 call	 ??3@YAXPAXI@Z		; operator delete
  0001a	83 c4 08	 add	 esp, 8
$LN5@scalar:
  0001d	8b c6		 mov	 eax, esi
  0001f	5e		 pop	 esi
  00020	5d		 pop	 ebp
  00021	c2 04 00	 ret	 4
??_GTiXmlBase@@UAEPAXI@Z ENDP				; TiXmlBase::`scalar deleting destructor'
_TEXT	ENDS
; Function compile flags: /Ogtp
; File E:\Proyectos\JuegosOnlineproyectos\PB\pbblow\Piercing Blow Remake\i3Server\src\i3Base\tinyxmlparser.cpp
;	COMDAT ?ConvertUTF32ToUTF8@TiXmlBase@@KAXKPADPAH@Z
_TEXT	SEGMENT
_FIRST_BYTE_MARK$ = -28					; size = 28
_input$ = 8						; size = 4
_output$ = 12						; size = 4
_length$ = 16						; size = 4
?ConvertUTF32ToUTF8@TiXmlBase@@KAXKPADPAH@Z PROC	; TiXmlBase::ConvertUTF32ToUTF8, COMDAT

; 93   : {

  00000	55		 push	 ebp
  00001	8b ec		 mov	 ebp, esp
  00003	83 ec 1c	 sub	 esp, 28			; 0000001cH

; 94   : 	const unsigned long BYTE_MASK = 0xBF;
; 95   : 	const unsigned long BYTE_MARK = 0x80;
; 96   : 	const unsigned long FIRST_BYTE_MARK[7] = { 0x00, 0x00, 0xC0, 0xE0, 0xF0, 0xF8, 0xFC };
; 97   : 
; 98   : 	if (input < 0x80) 

  00006	8b 4d 08	 mov	 ecx, DWORD PTR _input$[ebp]
  00009	8b 55 0c	 mov	 edx, DWORD PTR _output$[ebp]
  0000c	c7 45 e4 00 00
	00 00		 mov	 DWORD PTR _FIRST_BYTE_MARK$[ebp], 0
  00013	c7 45 e8 00 00
	00 00		 mov	 DWORD PTR _FIRST_BYTE_MARK$[ebp+4], 0
  0001a	c7 45 ec c0 00
	00 00		 mov	 DWORD PTR _FIRST_BYTE_MARK$[ebp+8], 192 ; 000000c0H
  00021	c7 45 f0 e0 00
	00 00		 mov	 DWORD PTR _FIRST_BYTE_MARK$[ebp+12], 224 ; 000000e0H
  00028	c7 45 f4 f0 00
	00 00		 mov	 DWORD PTR _FIRST_BYTE_MARK$[ebp+16], 240 ; 000000f0H
  0002f	c7 45 f8 f8 00
	00 00		 mov	 DWORD PTR _FIRST_BYTE_MARK$[ebp+20], 248 ; 000000f8H
  00036	c7 45 fc fc 00
	00 00		 mov	 DWORD PTR _FIRST_BYTE_MARK$[ebp+24], 252 ; 000000fcH
  0003d	56		 push	 esi
  0003e	81 f9 80 00 00
	00		 cmp	 ecx, 128		; 00000080H
  00044	73 18		 jae	 SHORT $LN4@ConvertUTF

; 99   : 		*length = 1;

  00046	8b 75 10	 mov	 esi, DWORD PTR _length$[ebp]
  00049	42		 inc	 edx
  0004a	c7 06 01 00 00
	00		 mov	 DWORD PTR [esi], 1

; 126  : 		case 1:
; 127  : 			--output; 
; 128  : 			*output = (char)(input | FIRST_BYTE_MARK[*length]);

  00050	8b 06		 mov	 eax, DWORD PTR [esi]
  00052	5e		 pop	 esi
  00053	0a 4c 85 e4	 or	 cl, BYTE PTR _FIRST_BYTE_MARK$[ebp+eax*4]
  00057	88 4a ff	 mov	 BYTE PTR [edx-1], cl

; 129  : 	}
; 130  : }

  0005a	8b e5		 mov	 esp, ebp
  0005c	5d		 pop	 ebp
  0005d	c3		 ret	 0
$LN4@ConvertUTF:

; 100  : 	else if ( input < 0x800 )

  0005e	81 f9 00 08 00
	00		 cmp	 ecx, 2048		; 00000800H
  00064	73 0e		 jae	 SHORT $LN6@ConvertUTF

; 101  : 		*length = 2;

  00066	8b 75 10	 mov	 esi, DWORD PTR _length$[ebp]
  00069	83 c2 02	 add	 edx, 2
  0006c	c7 06 02 00 00
	00		 mov	 DWORD PTR [esi], 2
  00072	eb 41		 jmp	 SHORT $LN14@ConvertUTF
$LN6@ConvertUTF:

; 102  : 	else if ( input < 0x10000 )

  00074	81 f9 00 00 01
	00		 cmp	 ecx, 65536		; 00010000H
  0007a	73 0e		 jae	 SHORT $LN8@ConvertUTF

; 103  : 		*length = 3;

  0007c	8b 75 10	 mov	 esi, DWORD PTR _length$[ebp]
  0007f	83 c2 03	 add	 edx, 3
  00082	c7 06 03 00 00
	00		 mov	 DWORD PTR [esi], 3
  00088	eb 1f		 jmp	 SHORT $LN13@ConvertUTF
$LN8@ConvertUTF:

; 104  : 	else if ( input < 0x200000 )

  0008a	81 f9 00 00 20
	00		 cmp	 ecx, 2097152		; 00200000H
  00090	73 3d		 jae	 SHORT $LN10@ConvertUTF

; 105  : 		*length = 4;

  00092	8b 75 10	 mov	 esi, DWORD PTR _length$[ebp]

; 108  : 
; 109  : 	output += *length;
; 110  : 
; 111  : 	// Scary scary fall throughs.
; 112  : 	switch (*length) 
; 113  : 	{
; 114  : 		case 4:
; 115  : 			--output; 
; 116  : 			*output = (char)((input | BYTE_MARK) & BYTE_MASK); 

  00095	8a c1		 mov	 al, cl
  00097	83 c2 03	 add	 edx, 3
  0009a	24 3f		 and	 al, 63			; 0000003fH
  0009c	0c 80		 or	 al, -128		; ffffff80H

; 117  : 			input >>= 6;

  0009e	c1 e9 06	 shr	 ecx, 6
  000a1	c7 06 04 00 00
	00		 mov	 DWORD PTR [esi], 4
  000a7	88 02		 mov	 BYTE PTR [edx], al
$LN13@ConvertUTF:

; 118  : 		case 3:
; 119  : 			--output; 
; 120  : 			*output = (char)((input | BYTE_MARK) & BYTE_MASK); 

  000a9	8a c1		 mov	 al, cl
  000ab	4a		 dec	 edx
  000ac	24 3f		 and	 al, 63			; 0000003fH
  000ae	0c 80		 or	 al, -128		; ffffff80H

; 121  : 			input >>= 6;

  000b0	c1 e9 06	 shr	 ecx, 6
  000b3	88 02		 mov	 BYTE PTR [edx], al
$LN14@ConvertUTF:

; 122  : 		case 2:
; 123  : 			--output; 
; 124  : 			*output = (char)((input | BYTE_MARK) & BYTE_MASK); 

  000b5	8a c1		 mov	 al, cl
  000b7	4a		 dec	 edx
  000b8	24 3f		 and	 al, 63			; 0000003fH

; 125  : 			input >>= 6;

  000ba	c1 e9 06	 shr	 ecx, 6
  000bd	0c 80		 or	 al, -128		; ffffff80H
  000bf	88 02		 mov	 BYTE PTR [edx], al

; 126  : 		case 1:
; 127  : 			--output; 
; 128  : 			*output = (char)(input | FIRST_BYTE_MARK[*length]);

  000c1	8b 06		 mov	 eax, DWORD PTR [esi]
  000c3	5e		 pop	 esi
  000c4	0a 4c 85 e4	 or	 cl, BYTE PTR _FIRST_BYTE_MARK$[ebp+eax*4]
  000c8	88 4a ff	 mov	 BYTE PTR [edx-1], cl

; 129  : 	}
; 130  : }

  000cb	8b e5		 mov	 esp, ebp
  000cd	5d		 pop	 ebp
  000ce	c3		 ret	 0
$LN10@ConvertUTF:

; 106  : 	else
; 107  : 		{ *length = 0; return; }	// This code won't covert this correctly anyway.

  000cf	8b 45 10	 mov	 eax, DWORD PTR _length$[ebp]
  000d2	5e		 pop	 esi
  000d3	c7 00 00 00 00
	00		 mov	 DWORD PTR [eax], 0

; 129  : 	}
; 130  : }

  000d9	8b e5		 mov	 esp, ebp
  000db	5d		 pop	 ebp
  000dc	c3		 ret	 0
?ConvertUTF32ToUTF8@TiXmlBase@@KAXKPADPAH@Z ENDP	; TiXmlBase::ConvertUTF32ToUTF8
_TEXT	ENDS
; Function compile flags: /Ogtp
; File E:\Proyectos\JuegosOnlineproyectos\PB\pbblow\Piercing Blow Remake\i3Server\include\i3Base\tinyxml.h
;	COMDAT ?ToLower@TiXmlBase@@KAHHW4TiXmlEncoding@@@Z
_TEXT	SEGMENT
_v$ = 8							; size = 4
_encoding$ = 12						; size = 4
?ToLower@TiXmlBase@@KAHHW4TiXmlEncoding@@@Z PROC	; TiXmlBase::ToLower, COMDAT

; 387  : 	{

  00000	55		 push	 ebp
  00001	8b ec		 mov	 ebp, esp

; 388  : 		if ( encoding == TIXML_ENCODING_UTF8 )

  00003	83 7d 0c 01	 cmp	 DWORD PTR _encoding$[ebp], 1
  00007	75 15		 jne	 SHORT $LN2@ToLower

; 389  : 		{
; 390  : 			if ( v < 128 ) return tolower( v );

  00009	8b 45 08	 mov	 eax, DWORD PTR _v$[ebp]
  0000c	3d 80 00 00 00	 cmp	 eax, 128		; 00000080H
  00011	7d 16		 jge	 SHORT $LN3@ToLower
  00013	50		 push	 eax

; 396  : 		}
; 397  : 	}

  00014	e8 00 00 00 00	 call	 _tolower
  00019	83 c4 04	 add	 esp, 4
  0001c	5d		 pop	 ebp
  0001d	c3		 ret	 0
$LN2@ToLower:

; 391  : 			return v;
; 392  : 		}
; 393  : 		else
; 394  : 		{
; 395  : 			return tolower( v );

  0001e	ff 75 08	 push	 DWORD PTR _v$[ebp]

; 396  : 		}
; 397  : 	}

  00021	e8 00 00 00 00	 call	 _tolower
  00026	83 c4 04	 add	 esp, 4
$LN3@ToLower:
  00029	5d		 pop	 ebp
  0002a	c3		 ret	 0
?ToLower@TiXmlBase@@KAHHW4TiXmlEncoding@@@Z ENDP	; TiXmlBase::ToLower
_TEXT	ENDS
; Function compile flags: /Ogtp
; File E:\Proyectos\JuegosOnlineproyectos\PB\pbblow\Piercing Blow Remake\i3Server\src\i3Base\tinyxmlparser.cpp
;	COMDAT ?IsAlphaNum@TiXmlBase@@KAHEW4TiXmlEncoding@@@Z
_TEXT	SEGMENT
_anyByte$ = 8						; size = 1
___formal$ = 12						; size = 4
?IsAlphaNum@TiXmlBase@@KAHEW4TiXmlEncoding@@@Z PROC	; TiXmlBase::IsAlphaNum, COMDAT

; 155  : {

  00000	55		 push	 ebp
  00001	8b ec		 mov	 ebp, esp

; 156  : 	// This will only work for low-ascii, everything else is assumed to be a valid
; 157  : 	// letter. I'm not sure this is the best approach, but it is quite tricky trying
; 158  : 	// to figure out alhabetical vs. not across encoding. So take a very 
; 159  : 	// conservative approach.
; 160  : 
; 161  : //	if ( encoding == TIXML_ENCODING_UTF8 )
; 162  : //	{
; 163  : 		if ( anyByte < 127 )

  00003	8a 45 08	 mov	 al, BYTE PTR _anyByte$[ebp]
  00006	3c 7f		 cmp	 al, 127			; 0000007fH
  00008	73 0e		 jae	 SHORT $LN2@IsAlphaNum

; 164  : 			return isalnum( anyByte );

  0000a	0f b6 c0	 movzx	 eax, al
  0000d	50		 push	 eax
  0000e	e8 00 00 00 00	 call	 _isalnum
  00013	83 c4 04	 add	 esp, 4

; 167  : //	}
; 168  : //	else
; 169  : //	{
; 170  : //		return isalnum( anyByte );
; 171  : //	}
; 172  : }

  00016	5d		 pop	 ebp
  00017	c3		 ret	 0
$LN2@IsAlphaNum:

; 165  : 		else
; 166  : 			return 1;	// What else to do? The unicode set is huge...get the english ones right.

  00018	b8 01 00 00 00	 mov	 eax, 1

; 167  : //	}
; 168  : //	else
; 169  : //	{
; 170  : //		return isalnum( anyByte );
; 171  : //	}
; 172  : }

  0001d	5d		 pop	 ebp
  0001e	c3		 ret	 0
?IsAlphaNum@TiXmlBase@@KAHEW4TiXmlEncoding@@@Z ENDP	; TiXmlBase::IsAlphaNum
_TEXT	ENDS
; Function compile flags: /Ogtp
; File E:\Proyectos\JuegosOnlineproyectos\PB\pbblow\Piercing Blow Remake\i3Server\src\i3Base\tinyxmlparser.cpp
;	COMDAT ?IsAlpha@TiXmlBase@@KAHEW4TiXmlEncoding@@@Z
_TEXT	SEGMENT
_anyByte$ = 8						; size = 1
___formal$ = 12						; size = 4
?IsAlpha@TiXmlBase@@KAHEW4TiXmlEncoding@@@Z PROC	; TiXmlBase::IsAlpha, COMDAT

; 134  : {

  00000	55		 push	 ebp
  00001	8b ec		 mov	 ebp, esp

; 135  : 	// This will only work for low-ascii, everything else is assumed to be a valid
; 136  : 	// letter. I'm not sure this is the best approach, but it is quite tricky trying
; 137  : 	// to figure out alhabetical vs. not across encoding. So take a very 
; 138  : 	// conservative approach.
; 139  : 
; 140  : //	if ( encoding == TIXML_ENCODING_UTF8 )
; 141  : //	{
; 142  : 		if ( anyByte < 127 )

  00003	8a 45 08	 mov	 al, BYTE PTR _anyByte$[ebp]
  00006	3c 7f		 cmp	 al, 127			; 0000007fH
  00008	73 0e		 jae	 SHORT $LN2@IsAlpha

; 143  : 			return isalpha( anyByte );

  0000a	0f b6 c0	 movzx	 eax, al
  0000d	50		 push	 eax
  0000e	e8 00 00 00 00	 call	 _isalpha
  00013	83 c4 04	 add	 esp, 4

; 146  : //	}
; 147  : //	else
; 148  : //	{
; 149  : //		return isalpha( anyByte );
; 150  : //	}
; 151  : }

  00016	5d		 pop	 ebp
  00017	c3		 ret	 0
$LN2@IsAlpha:

; 144  : 		else
; 145  : 			return 1;	// What else to do? The unicode set is huge...get the english ones right.

  00018	b8 01 00 00 00	 mov	 eax, 1

; 146  : //	}
; 147  : //	else
; 148  : //	{
; 149  : //		return isalpha( anyByte );
; 150  : //	}
; 151  : }

  0001d	5d		 pop	 ebp
  0001e	c3		 ret	 0
?IsAlpha@TiXmlBase@@KAHEW4TiXmlEncoding@@@Z ENDP	; TiXmlBase::IsAlpha
_TEXT	ENDS
; Function compile flags: /Ogtp
; File E:\Proyectos\JuegosOnlineproyectos\PB\pbblow\Piercing Blow Remake\i3Server\src\i3Base\tinyxmlparser.cpp
; File E:\Proyectos\JuegosOnlineproyectos\PB\pbblow\Piercing Blow Remake\i3Server\include\i3Base\tinyxml.h
; File E:\Proyectos\JuegosOnlineproyectos\PB\pbblow\Piercing Blow Remake\i3Server\src\i3Base\tinyxmlparser.cpp
;	COMDAT ?StringEqual@TiXmlBase@@KA_NPBD0_NW4TiXmlEncoding@@@Z
_TEXT	SEGMENT
_p$ = 8							; size = 4
_tag$ = 12						; size = 4
_ignoreCase$ = 16					; size = 1
_encoding$ = 20						; size = 4
?StringEqual@TiXmlBase@@KA_NPBD0_NW4TiXmlEncoding@@@Z PROC ; TiXmlBase::StringEqual, COMDAT

; 542  : {

  00000	55		 push	 ebp
  00001	8b ec		 mov	 ebp, esp
  00003	53		 push	 ebx
  00004	56		 push	 esi

; 543  : 	I3ASSERT( p );
; 544  : 	I3ASSERT( tag );
; 545  : 	if ( !p || !*p )

  00005	8b 75 08	 mov	 esi, DWORD PTR _p$[ebp]
  00008	57		 push	 edi
  00009	85 f6		 test	 esi, esi
  0000b	74 42		 je	 SHORT $LN7@StringEqua
  0000d	80 3e 00	 cmp	 BYTE PTR [esi], 0
  00010	74 3d		 je	 SHORT $LN7@StringEqua

; 546  : 	{
; 547  : 		I3ASSERT_0;
; 548  : 		return false;
; 549  : 	}
; 550  : 
; 551  : 	const char* q = p;
; 552  : 
; 553  : 	if ( ignoreCase )

  00012	80 7d 10 00	 cmp	 BYTE PTR _ignoreCase$[ebp], 0
  00016	74 3e		 je	 SHORT $LN38@StringEqua
  00018	8b 7d 0c	 mov	 edi, DWORD PTR _tag$[ebp]
  0001b	eb 03 8d 49 00	 npad	 5
$LL2@StringEqua:

; 555  : 		while ( *q && *tag && ToLower( *q, encoding ) == ToLower( *tag, encoding ) )

  00020	80 3f 00	 cmp	 BYTE PTR [edi], 0
  00023	74 51		 je	 SHORT $LN32@StringEqua
  00025	0f be 06	 movsx	 eax, BYTE PTR [esi]
; File E:\Proyectos\JuegosOnlineproyectos\PB\pbblow\Piercing Blow Remake\i3Server\include\i3Base\tinyxml.h

; 388  : 		if ( encoding == TIXML_ENCODING_UTF8 )

  00028	50		 push	 eax
  00029	e8 00 00 00 00	 call	 _tolower
  0002e	83 c4 04	 add	 esp, 4
  00031	8b d8		 mov	 ebx, eax
  00033	0f be 07	 movsx	 eax, BYTE PTR [edi]
; File E:\Proyectos\JuegosOnlineproyectos\PB\pbblow\Piercing Blow Remake\i3Server\src\i3Base\tinyxmlparser.cpp

; 555  : 		while ( *q && *tag && ToLower( *q, encoding ) == ToLower( *tag, encoding ) )

  00036	50		 push	 eax
  00037	e8 00 00 00 00	 call	 _tolower
  0003c	83 c4 04	 add	 esp, 4
  0003f	3b d8		 cmp	 ebx, eax
  00041	75 07		 jne	 SHORT $LN3@StringEqua

; 556  : 		{
; 557  : 			++q;

  00043	46		 inc	 esi

; 558  : 			++tag;

  00044	47		 inc	 edi
  00045	80 3e 00	 cmp	 BYTE PTR [esi], 0
  00048	75 d6		 jne	 SHORT $LL2@StringEqua
$LN3@StringEqua:

; 559  : 		}
; 560  : 
; 561  : 		if ( *tag == 0 )

  0004a	80 3f 00	 cmp	 BYTE PTR [edi], 0
  0004d	74 27		 je	 SHORT $LN32@StringEqua
$LN7@StringEqua:
  0004f	5f		 pop	 edi

; 573  : 			return true;
; 574  : 	}
; 575  : 	return false;
; 576  : }

  00050	5e		 pop	 esi
  00051	32 c0		 xor	 al, al
  00053	5b		 pop	 ebx
  00054	5d		 pop	 ebp
  00055	c3		 ret	 0
$LN38@StringEqua:
  00056	8b 45 0c	 mov	 eax, DWORD PTR _tag$[ebp]
  00059	8d a4 24 00 00
	00 00		 npad	 7
$LL4@StringEqua:

; 562  : 			return true;
; 563  : 	}
; 564  : 	else
; 565  : 	{
; 566  : 		while ( *q && *tag && *q == *tag )

  00060	8a 08		 mov	 cl, BYTE PTR [eax]
  00062	84 c9		 test	 cl, cl
  00064	74 10		 je	 SHORT $LN32@StringEqua
  00066	38 0e		 cmp	 BYTE PTR [esi], cl
  00068	75 07		 jne	 SHORT $LN5@StringEqua

; 567  : 		{
; 568  : 			++q;

  0006a	46		 inc	 esi

; 569  : 			++tag;

  0006b	40		 inc	 eax
  0006c	80 3e 00	 cmp	 BYTE PTR [esi], 0
  0006f	75 ef		 jne	 SHORT $LL4@StringEqua
$LN5@StringEqua:

; 570  : 		}
; 571  : 
; 572  : 		if ( *tag == 0 )		// Have we found the end of the tag, and everything equal?

  00071	80 38 00	 cmp	 BYTE PTR [eax], 0
  00074	75 d9		 jne	 SHORT $LN7@StringEqua
$LN32@StringEqua:
  00076	5f		 pop	 edi

; 573  : 			return true;
; 574  : 	}
; 575  : 	return false;
; 576  : }

  00077	5e		 pop	 esi
  00078	b0 01		 mov	 al, 1
  0007a	5b		 pop	 ebx
  0007b	5d		 pop	 ebp
  0007c	c3		 ret	 0
?StringEqual@TiXmlBase@@KA_NPBD0_NW4TiXmlEncoding@@@Z ENDP ; TiXmlBase::StringEqual
_TEXT	ENDS
; Function compile flags: /Ogtp
; File E:\Proyectos\JuegosOnlineproyectos\PB\pbblow\Piercing Blow Remake\i3Server\include\i3Base\tinyxml.h
;	COMDAT ?GetChar@TiXmlBase@@KAPBDPBDPADPAHW4TiXmlEncoding@@@Z
_TEXT	SEGMENT
_p$ = 8							; size = 4
__value$ = 12						; size = 4
_length$ = 16						; size = 4
_encoding$ = 20						; size = 4
?GetChar@TiXmlBase@@KAPBDPBDPADPAHW4TiXmlEncoding@@@Z PROC ; TiXmlBase::GetChar, COMDAT

; 332  : 	{

  00000	55		 push	 ebp
  00001	8b ec		 mov	 ebp, esp

; 333  : 		I3ASSERT( p );
; 334  : 		if ( encoding == TIXML_ENCODING_UTF8 )

  00003	8b 4d 14	 mov	 ecx, DWORD PTR _encoding$[ebp]
  00006	8b 55 08	 mov	 edx, DWORD PTR _p$[ebp]
  00009	56		 push	 esi
  0000a	8b 75 10	 mov	 esi, DWORD PTR _length$[ebp]
  0000d	57		 push	 edi
  0000e	8b 7d 0c	 mov	 edi, DWORD PTR __value$[ebp]
  00011	83 f9 01	 cmp	 ecx, 1
  00014	75 39		 jne	 SHORT $LN5@GetChar

; 335  : 		{
; 336  : 			*length = utf8ByteTable[ *((const unsigned char*)p) ];

  00016	0f b6 02	 movzx	 eax, BYTE PTR [edx]
  00019	8b 04 85 00 00
	00 00		 mov	 eax, DWORD PTR ?utf8ByteTable@TiXmlBase@@2QBHB[eax*4]

; 342  : 		}
; 343  : 
; 344  : 		if ( *length == 1 )

  00020	89 06		 mov	 DWORD PTR [esi], eax
  00022	3b c1		 cmp	 eax, ecx
  00024	74 2f		 je	 SHORT $LN17@GetChar

; 350  : 		}
; 351  : 		else if ( *length )

  00026	85 c0		 test	 eax, eax
  00028	74 1f		 je	 SHORT $LN10@GetChar

; 352  : 		{
; 353  : 			//strncpy( _value, p, *length );	// lots of compilers don't like this function (unsafe),
; 354  : 												// and the null terminator isn't needed
; 355  : 			for( int i=0; p[i] && i<*length; ++i ) {

  0002a	33 c9		 xor	 ecx, ecx
  0002c	38 0a		 cmp	 BYTE PTR [edx], cl
  0002e	74 11		 je	 SHORT $LN18@GetChar
$LL4@GetChar:
  00030	3b 0e		 cmp	 ecx, DWORD PTR [esi]
  00032	7d 0d		 jge	 SHORT $LN18@GetChar

; 356  : 				_value[i] = p[i];

  00034	8a 04 0a	 mov	 al, BYTE PTR [edx+ecx]
  00037	88 04 39	 mov	 BYTE PTR [ecx+edi], al
  0003a	41		 inc	 ecx
  0003b	80 3c 0a 00	 cmp	 BYTE PTR [edx+ecx], 0
  0003f	75 ef		 jne	 SHORT $LL4@GetChar
$LN18@GetChar:

; 357  : 			}
; 358  : 			return p + (*length);

  00041	8b 06		 mov	 eax, DWORD PTR [esi]
  00043	5f		 pop	 edi
  00044	03 c2		 add	 eax, edx

; 364  : 		}
; 365  : 	}

  00046	5e		 pop	 esi
  00047	5d		 pop	 ebp
  00048	c3		 ret	 0
$LN10@GetChar:
  00049	5f		 pop	 edi

; 359  : 		}
; 360  : 		else
; 361  : 		{
; 362  : 			// Not valid text.
; 363  : 			return 0;

  0004a	33 c0		 xor	 eax, eax

; 364  : 		}
; 365  : 	}

  0004c	5e		 pop	 esi
  0004d	5d		 pop	 ebp
  0004e	c3		 ret	 0
$LN5@GetChar:

; 337  : 			I3ASSERT( *length >= 0 && *length < 5 );
; 338  : 		}
; 339  : 		else
; 340  : 		{
; 341  : 			*length = 1;

  0004f	c7 06 01 00 00
	00		 mov	 DWORD PTR [esi], 1
$LN17@GetChar:

; 345  : 		{
; 346  : 			if ( *p == '&' )

  00055	8a 02		 mov	 al, BYTE PTR [edx]
  00057	3c 26		 cmp	 al, 38			; 00000026H
  00059	75 10		 jne	 SHORT $LN9@GetChar

; 347  : 				return GetEntity( p, _value, length, encoding );

  0005b	51		 push	 ecx
  0005c	56		 push	 esi
  0005d	57		 push	 edi
  0005e	52		 push	 edx
  0005f	e8 00 00 00 00	 call	 ?GetEntity@TiXmlBase@@KAPBDPBDPADPAHW4TiXmlEncoding@@@Z ; TiXmlBase::GetEntity
  00064	83 c4 10	 add	 esp, 16			; 00000010H
  00067	5f		 pop	 edi

; 364  : 		}
; 365  : 	}

  00068	5e		 pop	 esi
  00069	5d		 pop	 ebp
  0006a	c3		 ret	 0
$LN9@GetChar:

; 348  : 			*_value = *p;

  0006b	88 07		 mov	 BYTE PTR [edi], al

; 349  : 			return p+1;

  0006d	8d 42 01	 lea	 eax, DWORD PTR [edx+1]
  00070	5f		 pop	 edi

; 364  : 		}
; 365  : 	}

  00071	5e		 pop	 esi
  00072	5d		 pop	 ebp
  00073	c3		 ret	 0
?GetChar@TiXmlBase@@KAPBDPBDPADPAHW4TiXmlEncoding@@@Z ENDP ; TiXmlBase::GetChar
_TEXT	ENDS
; Function compile flags: /Ogtp
; File E:\Proyectos\JuegosOnlineproyectos\PB\pbblow\Piercing Blow Remake\i3Server\src\i3Base\tinyxmlparser.cpp
;	COMDAT ?GetEntity@TiXmlBase@@KAPBDPBDPADPAHW4TiXmlEncoding@@@Z
_TEXT	SEGMENT
_p$ = 8							; size = 4
_delta$1$ = 8						; size = 4
_value$ = 12						; size = 4
_length$ = 16						; size = 4
_encoding$ = 20						; size = 4
?GetEntity@TiXmlBase@@KAPBDPBDPADPAHW4TiXmlEncoding@@@Z PROC ; TiXmlBase::GetEntity, COMDAT

; 443  : {

  00000	55		 push	 ebp
  00001	8b ec		 mov	 ebp, esp

; 444  : 	// Presume an entity, and pull it out.
; 445  :     TIXML_STRING ent;
; 446  : 	int i;
; 447  : 	*length = 0;

  00003	8b 45 10	 mov	 eax, DWORD PTR _length$[ebp]
  00006	53		 push	 ebx

; 448  : 
; 449  : 	if ( *(p+1) && *(p+1) == '#' && *(p+2) )

  00007	8b 5d 08	 mov	 ebx, DWORD PTR _p$[ebp]
  0000a	56		 push	 esi
  0000b	c7 00 00 00 00
	00		 mov	 DWORD PTR [eax], 0
  00011	57		 push	 edi
  00012	8a 43 01	 mov	 al, BYTE PTR [ebx+1]
  00015	84 c0		 test	 al, al
  00017	0f 84 34 01 00
	00		 je	 $LN9@GetEntity
  0001d	3c 23		 cmp	 al, 35			; 00000023H
  0001f	0f 85 2c 01 00
	00		 jne	 $LN9@GetEntity
  00025	8a 43 02	 mov	 al, BYTE PTR [ebx+2]
  00028	8d 4b 02	 lea	 ecx, DWORD PTR [ebx+2]
  0002b	84 c0		 test	 al, al
  0002d	0f 84 1e 01 00
	00		 je	 $LN9@GetEntity

; 450  : 	{
; 451  : 		unsigned long ucs = 0;

  00033	33 db		 xor	 ebx, ebx

; 452  : 		ptrdiff_t delta = 0;
; 453  : 		unsigned mult = 1;

  00035	8d 73 01	 lea	 esi, DWORD PTR [ebx+1]

; 454  : 
; 455  : 		if ( *(p+2) == 'x' )

  00038	3c 78		 cmp	 al, 120			; 00000078H
  0003a	0f 85 85 00 00
	00		 jne	 $LN21@GetEntity

; 456  : 		{
; 457  : 			// Hexadecimal.
; 458  : 			if ( !*(p+3) ) return 0;

  00040	8b 7d 08	 mov	 edi, DWORD PTR _p$[ebp]
  00043	38 5f 03	 cmp	 BYTE PTR [edi+3], bl
  00046	8d 47 03	 lea	 eax, DWORD PTR [edi+3]
  00049	0f 84 fb 00 00
	00		 je	 $LN23@GetEntity

; 459  : 
; 460  : 			const char* q = p+3;
; 461  : 			q = strchr( q, ';' );

  0004f	6a 3b		 push	 59			; 0000003bH
  00051	50		 push	 eax
  00052	e8 00 00 00 00	 call	 _strchr
  00057	8b c8		 mov	 ecx, eax
  00059	83 c4 08	 add	 esp, 8

; 462  : 
; 463  : 			if ( !q || !*q ) return 0;

  0005c	85 c9		 test	 ecx, ecx
  0005e	0f 84 e6 00 00
	00		 je	 $LN23@GetEntity
  00064	38 19		 cmp	 BYTE PTR [ecx], bl
  00066	0f 84 de 00 00
	00		 je	 $LN23@GetEntity

; 464  : 
; 465  : 			delta = q-p;
; 466  : 			--q;
; 467  : 
; 468  : 			while ( *q != 'x' )

  0006c	8a 41 ff	 mov	 al, BYTE PTR [ecx-1]
  0006f	8b d1		 mov	 edx, ecx
  00071	49		 dec	 ecx
  00072	2b d7		 sub	 edx, edi
  00074	89 55 08	 mov	 DWORD PTR _delta$1$[ebp], edx
  00077	3c 78		 cmp	 al, 120			; 00000078H
  00079	0f 84 92 00 00
	00		 je	 $LN5@GetEntity
  0007f	90		 npad	 1
$LL2@GetEntity:

; 469  : 			{
; 470  : 				if ( *q >= '0' && *q <= '9' )

  00080	3c 30		 cmp	 al, 48			; 00000030H
  00082	7c 0e		 jl	 SHORT $LN112@GetEntity
  00084	8a 01		 mov	 al, BYTE PTR [ecx]
  00086	3c 39		 cmp	 al, 57			; 00000039H
  00088	7f 08		 jg	 SHORT $LN112@GetEntity

; 471  : 					ucs += mult * (*q - '0');

  0008a	0f be c0	 movsx	 eax, al
  0008d	83 e8 30	 sub	 eax, 48			; 00000030H
  00090	eb 22		 jmp	 SHORT $LN134@GetEntity
$LN112@GetEntity:

; 472  : 				else if ( *q >= 'a' && *q <= 'f' )

  00092	8a 11		 mov	 dl, BYTE PTR [ecx]
  00094	8d 42 9f	 lea	 eax, DWORD PTR [edx-97]
  00097	3c 05		 cmp	 al, 5
  00099	77 08		 ja	 SHORT $LN17@GetEntity

; 473  : 					ucs += mult * (*q - 'a' + 10);

  0009b	0f be c2	 movsx	 eax, dl
  0009e	83 e8 57	 sub	 eax, 87			; 00000057H
  000a1	eb 11		 jmp	 SHORT $LN134@GetEntity
$LN17@GetEntity:

; 474  : 				else if ( *q >= 'A' && *q <= 'F' )

  000a3	8d 42 bf	 lea	 eax, DWORD PTR [edx-65]
  000a6	3c 05		 cmp	 al, 5
  000a8	0f 87 9c 00 00
	00		 ja	 $LN23@GetEntity

; 475  : 					ucs += mult * (*q - 'A' + 10 );

  000ae	0f be c2	 movsx	 eax, dl
  000b1	83 e8 37	 sub	 eax, 55			; 00000037H
$LN134@GetEntity:

; 476  : 				else 
; 477  : 					return 0;
; 478  : 				mult *= 16;

  000b4	0f af c6	 imul	 eax, esi

; 479  : 				--q;

  000b7	49		 dec	 ecx
  000b8	c1 e6 04	 shl	 esi, 4
  000bb	03 d8		 add	 ebx, eax
  000bd	8a 01		 mov	 al, BYTE PTR [ecx]
  000bf	3c 78		 cmp	 al, 120			; 00000078H
  000c1	75 bd		 jne	 SHORT $LL2@GetEntity

; 520  : 	{
; 521  : 		if ( strncmp( entity[i].str, p, entity[i].strLength ) == 0 )

  000c3	eb 4c		 jmp	 SHORT $LN5@GetEntity
$LN21@GetEntity:

; 480  : 			}
; 481  : 		}
; 482  : 		else
; 483  : 		{
; 484  : 			// Decimal.
; 485  : 			if ( !*(p+2) ) return 0;
; 486  : 
; 487  : 			const char* q = p+2;
; 488  : 			q = strchr( q, ';' );

  000c5	6a 3b		 push	 59			; 0000003bH
  000c7	51		 push	 ecx
  000c8	e8 00 00 00 00	 call	 _strchr
  000cd	8b c8		 mov	 ecx, eax
  000cf	83 c4 08	 add	 esp, 8

; 489  : 
; 490  : 			if ( !q || !*q ) return 0;

  000d2	85 c9		 test	 ecx, ecx
  000d4	74 74		 je	 SHORT $LN23@GetEntity
  000d6	38 19		 cmp	 BYTE PTR [ecx], bl
  000d8	74 70		 je	 SHORT $LN23@GetEntity

; 491  : 
; 492  : 			delta = q-p;

  000da	8b 7d 08	 mov	 edi, DWORD PTR _p$[ebp]

; 493  : 			--q;

  000dd	49		 dec	 ecx
  000de	2b c7		 sub	 eax, edi
  000e0	89 45 08	 mov	 DWORD PTR _delta$1$[ebp], eax

; 494  : 
; 495  : 			while ( *q != '#' )

  000e3	8a 01		 mov	 al, BYTE PTR [ecx]
  000e5	3c 23		 cmp	 al, 35			; 00000023H
  000e7	74 28		 je	 SHORT $LN5@GetEntity
  000e9	8d a4 24 00 00
	00 00		 npad	 7
$LL4@GetEntity:

; 496  : 			{
; 497  : 				if ( *q >= '0' && *q <= '9' )

  000f0	3c 30		 cmp	 al, 48			; 00000030H
  000f2	7c 56		 jl	 SHORT $LN23@GetEntity
  000f4	8a 01		 mov	 al, BYTE PTR [ecx]
  000f6	3c 39		 cmp	 al, 57			; 00000039H
  000f8	7f 50		 jg	 SHORT $LN23@GetEntity

; 498  : 					ucs += mult * (*q - '0');

  000fa	0f be c0	 movsx	 eax, al

; 499  : 				else 
; 500  : 					return 0;
; 501  : 				mult *= 10;
; 502  : 				--q;

  000fd	49		 dec	 ecx
  000fe	83 e8 30	 sub	 eax, 48			; 00000030H
  00101	0f af c6	 imul	 eax, esi
  00104	8d 34 b6	 lea	 esi, DWORD PTR [esi+esi*4]
  00107	03 f6		 add	 esi, esi
  00109	03 d8		 add	 ebx, eax
  0010b	8a 01		 mov	 al, BYTE PTR [ecx]
  0010d	3c 23		 cmp	 al, 35			; 00000023H
  0010f	75 df		 jne	 SHORT $LL4@GetEntity
$LN5@GetEntity:

; 503  : 			}
; 504  : 		}
; 505  : 		if ( encoding == TIXML_ENCODING_UTF8 )

  00111	83 7d 14 01	 cmp	 DWORD PTR _encoding$[ebp], 1
  00115	75 1a		 jne	 SHORT $LN26@GetEntity

; 506  : 		{
; 507  : 			// convert the UCS to UTF-8
; 508  : 			ConvertUTF32ToUTF8( ucs, value, length );

  00117	ff 75 10	 push	 DWORD PTR _length$[ebp]
  0011a	ff 75 0c	 push	 DWORD PTR _value$[ebp]
  0011d	53		 push	 ebx
  0011e	e8 00 00 00 00	 call	 ?ConvertUTF32ToUTF8@TiXmlBase@@KAXKPADPAH@Z ; TiXmlBase::ConvertUTF32ToUTF8

; 514  : 		}
; 515  : 		return p + delta + 1;

  00123	8b 45 08	 mov	 eax, DWORD PTR _delta$1$[ebp]
  00126	83 c4 0c	 add	 esp, 12			; 0000000cH
  00129	40		 inc	 eax
  0012a	03 c7		 add	 eax, edi
  0012c	5f		 pop	 edi

; 535  : }

  0012d	5e		 pop	 esi
  0012e	5b		 pop	 ebx
  0012f	5d		 pop	 ebp
  00130	c3		 ret	 0
$LN26@GetEntity:

; 509  : 		}
; 510  : 		else
; 511  : 		{
; 512  : 			*value = (char)ucs;

  00131	8b 45 0c	 mov	 eax, DWORD PTR _value$[ebp]
  00134	88 18		 mov	 BYTE PTR [eax], bl

; 513  : 			*length = 1;

  00136	8b 45 10	 mov	 eax, DWORD PTR _length$[ebp]
  00139	c7 00 01 00 00
	00		 mov	 DWORD PTR [eax], 1

; 514  : 		}
; 515  : 		return p + delta + 1;

  0013f	8b 45 08	 mov	 eax, DWORD PTR _delta$1$[ebp]
  00142	40		 inc	 eax
  00143	03 c7		 add	 eax, edi
  00145	5f		 pop	 edi

; 535  : }

  00146	5e		 pop	 esi
  00147	5b		 pop	 ebx
  00148	5d		 pop	 ebp
  00149	c3		 ret	 0
$LN23@GetEntity:
  0014a	5f		 pop	 edi
  0014b	5e		 pop	 esi
  0014c	33 c0		 xor	 eax, eax
  0014e	5b		 pop	 ebx
  0014f	5d		 pop	 ebp
  00150	c3		 ret	 0
$LN9@GetEntity:

; 516  : 	}
; 517  : 
; 518  : 	// Now try to match it.
; 519  : 	for( i=0; i<NUM_ENTITY; ++i )

  00151	33 f6		 xor	 esi, esi
$LL8@GetEntity:

; 520  : 	{
; 521  : 		if ( strncmp( entity[i].str, p, entity[i].strLength ) == 0 )

  00153	8d 3c 76	 lea	 edi, DWORD PTR [esi+esi*2]
  00156	ff 34 bd 04 00
	00 00		 push	 DWORD PTR ?entity@TiXmlBase@@0PAUEntity@1@A[edi*4+4]
  0015d	53		 push	 ebx
  0015e	ff 34 bd 00 00
	00 00		 push	 DWORD PTR ?entity@TiXmlBase@@0PAUEntity@1@A[edi*4]
  00165	e8 00 00 00 00	 call	 _strncmp
  0016a	83 c4 0c	 add	 esp, 12			; 0000000cH
  0016d	85 c0		 test	 eax, eax
  0016f	74 15		 je	 SHORT $LN98@GetEntity

; 516  : 	}
; 517  : 
; 518  : 	// Now try to match it.
; 519  : 	for( i=0; i<NUM_ENTITY; ++i )

  00171	46		 inc	 esi
  00172	83 fe 05	 cmp	 esi, 5
  00175	7c dc		 jl	 SHORT $LL8@GetEntity

; 527  : 		}
; 528  : 	}
; 529  : 
; 530  : 	// So it wasn't an entity, its unrecognized, or something like that.
; 531  : 	*value = *p;	// Don't put back the last one, since we return it!

  00177	8b 4d 0c	 mov	 ecx, DWORD PTR _value$[ebp]

; 532  : 	//*length = 1;	// Leave unrecognized entities - this doesn't really work.
; 533  : 					// Just writes strange XML.
; 534  : 	return p+1;

  0017a	8d 43 01	 lea	 eax, DWORD PTR [ebx+1]
  0017d	8a 13		 mov	 dl, BYTE PTR [ebx]
  0017f	5f		 pop	 edi

; 535  : }

  00180	5e		 pop	 esi
  00181	88 11		 mov	 BYTE PTR [ecx], dl
  00183	5b		 pop	 ebx
  00184	5d		 pop	 ebp
  00185	c3		 ret	 0
$LN98@GetEntity:

; 522  : 		{
; 523  : 			I3ASSERT( strlen( entity[i].str ) == entity[i].strLength );
; 524  : 			*value = entity[i].chr;

  00186	8b 45 0c	 mov	 eax, DWORD PTR _value$[ebp]
  00189	8a 0c bd 08 00
	00 00		 mov	 cl, BYTE PTR ?entity@TiXmlBase@@0PAUEntity@1@A[edi*4+8]
  00190	88 08		 mov	 BYTE PTR [eax], cl

; 525  : 			*length = 1;

  00192	8b 45 10	 mov	 eax, DWORD PTR _length$[ebp]
  00195	c7 00 01 00 00
	00		 mov	 DWORD PTR [eax], 1

; 526  : 			return ( p + entity[i].strLength );

  0019b	8b 04 bd 04 00
	00 00		 mov	 eax, DWORD PTR ?entity@TiXmlBase@@0PAUEntity@1@A[edi*4+4]
  001a2	5f		 pop	 edi

; 535  : }

  001a3	5e		 pop	 esi
  001a4	03 c3		 add	 eax, ebx
  001a6	5b		 pop	 ebx
  001a7	5d		 pop	 ebp
  001a8	c3		 ret	 0
?GetEntity@TiXmlBase@@KAPBDPBDPADPAHW4TiXmlEncoding@@@Z ENDP ; TiXmlBase::GetEntity
_TEXT	ENDS
; Function compile flags: /Ogtp
; File E:\Proyectos\JuegosOnlineproyectos\PB\pbblow\Piercing Blow Remake\i3Server\src\i3Base\tinyxmlparser.cpp
; File E:\Proyectos\JuegosOnlineproyectos\PB\pbblow\Piercing Blow Remake\i3Server\include\i3Base\tinystr.h
; File E:\Proyectos\JuegosOnlineproyectos\PB\pbblow\Piercing Blow Remake\i3Server\src\i3Base\tinyxmlparser.cpp
; File E:\Proyectos\JuegosOnlineproyectos\PB\pbblow\Piercing Blow Remake\i3Server\include\i3Base\tinystr.h
; File E:\Proyectos\JuegosOnlineproyectos\PB\pbblow\Piercing Blow Remake\i3Server\src\i3Base\tinyxmlparser.cpp
; File E:\Proyectos\JuegosOnlineproyectos\PB\pbblow\Piercing Blow Remake\i3Server\include\i3Base\tinyxml.h
; File E:\Proyectos\JuegosOnlineproyectos\PB\pbblow\Piercing Blow Remake\i3Server\src\i3Base\tinyxmlparser.cpp
; File E:\Proyectos\JuegosOnlineproyectos\PB\pbblow\Piercing Blow Remake\i3Server\include\i3Base\tinystr.h
; File E:\Proyectos\JuegosOnlineproyectos\PB\pbblow\Piercing Blow Remake\i3Server\src\i3Base\tinyxmlparser.cpp
; File E:\Proyectos\JuegosOnlineproyectos\PB\pbblow\Piercing Blow Remake\i3Server\include\i3Base\tinystr.h
; File E:\Proyectos\JuegosOnlineproyectos\PB\pbblow\Piercing Blow Remake\i3Server\src\i3Base\tinyxmlparser.cpp
; File E:\Proyectos\JuegosOnlineproyectos\PB\pbblow\Piercing Blow Remake\i3Server\include\i3Base\tinystr.h
; File E:\Proyectos\JuegosOnlineproyectos\PB\pbblow\Piercing Blow Remake\i3Server\src\i3Base\tinyxmlparser.cpp
; File E:\Proyectos\JuegosOnlineproyectos\PB\pbblow\Piercing Blow Remake\i3Server\include\i3Base\tinyxml.h
; File E:\Proyectos\JuegosOnlineproyectos\PB\pbblow\Piercing Blow Remake\i3Server\src\i3Base\tinyxmlparser.cpp
; File E:\Proyectos\JuegosOnlineproyectos\PB\pbblow\Piercing Blow Remake\i3Server\include\i3Base\tinyxml.h
; File E:\Proyectos\JuegosOnlineproyectos\PB\pbblow\Piercing Blow Remake\i3Server\src\i3Base\tinyxmlparser.cpp
; File E:\Proyectos\JuegosOnlineproyectos\PB\pbblow\Piercing Blow Remake\i3Server\include\i3Base\tinyxml.h
; File E:\Proyectos\JuegosOnlineproyectos\PB\pbblow\Piercing Blow Remake\i3Server\src\i3Base\tinyxmlparser.cpp
;	COMDAT ?ReadText@TiXmlBase@@KAPBDPBDPAVTiXmlString@@_N02W4TiXmlEncoding@@@Z
_TEXT	SEGMENT
_len$1 = -4						; size = 4
_p$ = 8							; size = 4
_len$2 = 8						; size = 4
_cArr$3 = 8						; size = 4
_text$ = 12						; size = 4
_trimWhiteSpace$ = 16					; size = 1
_cArr$4 = 16						; size = 4
_single$ = 16						; size = 1
_single$ = 16						; size = 1
_endTag$ = 20						; size = 4
_caseInsensitive$ = 24					; size = 1
_encoding$ = 28						; size = 4
?ReadText@TiXmlBase@@KAPBDPBDPAVTiXmlString@@_N02W4TiXmlEncoding@@@Z PROC ; TiXmlBase::ReadText, COMDAT

; 584  : {

  00000	55		 push	 ebp
  00001	8b ec		 mov	 ebp, esp
  00003	51		 push	 ecx
  00004	53		 push	 ebx
  00005	8b 5d 0c	 mov	 ebx, DWORD PTR _text$[ebp]
; File E:\Proyectos\JuegosOnlineproyectos\PB\pbblow\Piercing Blow Remake\i3Server\include\i3Base\tinystr.h

; 114  : 		return assign( copy, (size_type)strlen(copy));

  00008	8b cb		 mov	 ecx, ebx
; File E:\Proyectos\JuegosOnlineproyectos\PB\pbblow\Piercing Blow Remake\i3Server\src\i3Base\tinyxmlparser.cpp

; 584  : {

  0000a	56		 push	 esi
  0000b	57		 push	 edi
; File E:\Proyectos\JuegosOnlineproyectos\PB\pbblow\Piercing Blow Remake\i3Server\include\i3Base\tinystr.h

; 114  : 		return assign( copy, (size_type)strlen(copy));

  0000c	6a 00		 push	 0
  0000e	68 00 00 00 00	 push	 OFFSET ??_C@_00CNPNBAHC@@
  00013	e8 00 00 00 00	 call	 ?assign@TiXmlString@@QAEAAV1@PBDI@Z ; TiXmlString::assign
; File E:\Proyectos\JuegosOnlineproyectos\PB\pbblow\Piercing Blow Remake\i3Server\src\i3Base\tinyxmlparser.cpp

; 587  : 		 || !condenseWhiteSpace )	// if true, whitespace is always kept

  00018	80 7d 10 00	 cmp	 BYTE PTR _trimWhiteSpace$[ebp], 0
  0001c	0f 84 dc 00 00
	00		 je	 $LN42@ReadText
  00022	80 3d 00 00 00
	00 00		 cmp	 BYTE PTR ?condenseWhiteSpace@TiXmlBase@@0_NA, 0 ; TiXmlBase::condenseWhiteSpace
  00029	0f 84 cf 00 00
	00		 je	 $LN42@ReadText

; 598  : 		}
; 599  : 	}
; 600  : 	else
; 601  : 	{
; 602  : 		bool whitespace = false;
; 603  : 
; 604  : 		// Remove leading white space:
; 605  : 		p = SkipWhiteSpace( p, encoding );

  0002f	ff 75 1c	 push	 DWORD PTR _encoding$[ebp]
  00032	32 db		 xor	 bl, bl
  00034	ff 75 08	 push	 DWORD PTR _p$[ebp]
  00037	e8 00 00 00 00	 call	 ?SkipWhiteSpace@TiXmlBase@@KAPBDPBDW4TiXmlEncoding@@@Z ; TiXmlBase::SkipWhiteSpace
  0003c	8b f0		 mov	 esi, eax
  0003e	83 c4 08	 add	 esp, 8

; 606  : 		while (	   p && *p
; 607  : 				&& !StringEqual( p, endTag, caseInsensitive, encoding ) )

  00041	85 f6		 test	 esi, esi
  00043	0f 84 ae 00 00
	00		 je	 $LN17@ReadText
  00049	8b 7d 14	 mov	 edi, DWORD PTR _endTag$[ebp]
  0004c	8d 64 24 00	 npad	 4
$LL4@ReadText:
  00050	80 3e 00	 cmp	 BYTE PTR [esi], 0
  00053	0f 84 7d 01 00
	00		 je	 $LN3@ReadText
  00059	ff 75 1c	 push	 DWORD PTR _encoding$[ebp]
  0005c	ff 75 18	 push	 DWORD PTR _caseInsensitive$[ebp]
  0005f	57		 push	 edi
  00060	56		 push	 esi
  00061	e8 00 00 00 00	 call	 ?StringEqual@TiXmlBase@@KA_NPBD0_NW4TiXmlEncoding@@@Z ; TiXmlBase::StringEqual
  00066	83 c4 10	 add	 esp, 16			; 00000010H
  00069	84 c0		 test	 al, al
  0006b	0f 85 65 01 00
	00		 jne	 $LN3@ReadText

; 608  : 		{
; 609  : 			if ( *p == '\r' || *p == '\n' )

  00071	8a 06		 mov	 al, BYTE PTR [esi]
  00073	3c 0d		 cmp	 al, 13			; 0000000dH
  00075	74 73		 je	 SHORT $LN11@ReadText
  00077	3c 0a		 cmp	 al, 10			; 0000000aH
  00079	74 6f		 je	 SHORT $LN11@ReadText
; File E:\Proyectos\JuegosOnlineproyectos\PB\pbblow\Piercing Blow Remake\i3Server\include\i3Base\tinyxml.h

; 296  : 		return ( isspace( (unsigned char) c ) || c == '\n' || c == '\r' ); 

  0007b	0f b6 c0	 movzx	 eax, al
  0007e	50		 push	 eax
  0007f	e8 00 00 00 00	 call	 _isspace
  00084	83 c4 04	 add	 esp, 4
  00087	85 c0		 test	 eax, eax
  00089	75 5f		 jne	 SHORT $LN11@ReadText
; File E:\Proyectos\JuegosOnlineproyectos\PB\pbblow\Piercing Blow Remake\i3Server\src\i3Base\tinyxmlparser.cpp

; 623  : 				if ( whitespace )

  0008b	84 db		 test	 bl, bl
  0008d	74 14		 je	 SHORT $LN14@ReadText
; File E:\Proyectos\JuegosOnlineproyectos\PB\pbblow\Piercing Blow Remake\i3Server\include\i3Base\tinystr.h

; 133  : 		return append(&single, 1);

  0008f	8b 4d 0c	 mov	 ecx, DWORD PTR _text$[ebp]
  00092	8d 45 10	 lea	 eax, DWORD PTR _single$[ebp]
  00095	6a 01		 push	 1
  00097	50		 push	 eax
; File E:\Proyectos\JuegosOnlineproyectos\PB\pbblow\Piercing Blow Remake\i3Server\src\i3Base\tinyxmlparser.cpp

; 625  : 					(*text) += ' ';

  00098	c6 45 10 20	 mov	 BYTE PTR _single$[ebp], 32 ; 00000020H
; File E:\Proyectos\JuegosOnlineproyectos\PB\pbblow\Piercing Blow Remake\i3Server\include\i3Base\tinystr.h

; 133  : 		return append(&single, 1);

  0009c	e8 00 00 00 00	 call	 ?append@TiXmlString@@QAEAAV1@PBDI@Z ; TiXmlString::append
; File E:\Proyectos\JuegosOnlineproyectos\PB\pbblow\Piercing Blow Remake\i3Server\src\i3Base\tinyxmlparser.cpp

; 626  : 					whitespace = false;

  000a1	32 db		 xor	 bl, bl
$LN14@ReadText:

; 627  : 				}
; 628  : 				int len;
; 629  : 				char cArr[4] = { 0, 0, 0, 0 };
; 630  : 				p = GetChar( p, cArr, &len, encoding );

  000a3	ff 75 1c	 push	 DWORD PTR _encoding$[ebp]
  000a6	8d 45 fc	 lea	 eax, DWORD PTR _len$1[ebp]
  000a9	c7 45 08 00 00
	00 00		 mov	 DWORD PTR _cArr$3[ebp], 0
  000b0	50		 push	 eax
  000b1	8d 45 08	 lea	 eax, DWORD PTR _cArr$3[ebp]
  000b4	50		 push	 eax
  000b5	56		 push	 esi
  000b6	e8 00 00 00 00	 call	 ?GetChar@TiXmlBase@@KAPBDPBDPADPAHW4TiXmlEncoding@@@Z ; TiXmlBase::GetChar

; 631  : 				if ( len == 1 )

  000bb	8b 4d 0c	 mov	 ecx, DWORD PTR _text$[ebp]
  000be	8b f0		 mov	 esi, eax
  000c0	8b 45 fc	 mov	 eax, DWORD PTR _len$1[ebp]
  000c3	83 c4 10	 add	 esp, 16			; 00000010H
  000c6	83 f8 01	 cmp	 eax, 1
  000c9	75 13		 jne	 SHORT $LN15@ReadText

; 632  : 					(*text) += cArr[0];	// more efficient

  000cb	8a 45 08	 mov	 al, BYTE PTR _cArr$3[ebp]
  000ce	88 45 10	 mov	 BYTE PTR _single$[ebp], al
; File E:\Proyectos\JuegosOnlineproyectos\PB\pbblow\Piercing Blow Remake\i3Server\include\i3Base\tinystr.h

; 133  : 		return append(&single, 1);

  000d1	8d 45 10	 lea	 eax, DWORD PTR _single$[ebp]
  000d4	6a 01		 push	 1
  000d6	50		 push	 eax
  000d7	e8 00 00 00 00	 call	 ?append@TiXmlString@@QAEAAV1@PBDI@Z ; TiXmlString::append
; File E:\Proyectos\JuegosOnlineproyectos\PB\pbblow\Piercing Blow Remake\i3Server\src\i3Base\tinyxmlparser.cpp

; 632  : 					(*text) += cArr[0];	// more efficient

  000dc	eb 0f		 jmp	 SHORT $LN16@ReadText
$LN15@ReadText:

; 633  : 				else
; 634  : 					text->append( cArr, len );

  000de	50		 push	 eax
  000df	8d 45 08	 lea	 eax, DWORD PTR _cArr$3[ebp]
  000e2	50		 push	 eax
  000e3	e8 00 00 00 00	 call	 ?append@TiXmlString@@QAEAAV1@PBDI@Z ; TiXmlString::append
  000e8	eb 03		 jmp	 SHORT $LN16@ReadText
$LN11@ReadText:

; 606  : 		while (	   p && *p
; 607  : 				&& !StringEqual( p, endTag, caseInsensitive, encoding ) )

  000ea	46		 inc	 esi
  000eb	b3 01		 mov	 bl, 1
$LN16@ReadText:
  000ed	85 f6		 test	 esi, esi
  000ef	0f 85 5b ff ff
	ff		 jne	 $LL4@ReadText
$LN57@ReadText:

; 641  : }

  000f5	8b c6		 mov	 eax, esi
$LN17@ReadText:
  000f7	5f		 pop	 edi
  000f8	5e		 pop	 esi
  000f9	5b		 pop	 ebx
  000fa	8b e5		 mov	 esp, ebp
  000fc	5d		 pop	 ebp
  000fd	c3		 ret	 0
$LN42@ReadText:

; 588  : 	{
; 589  : 		// Keep all the white space.
; 590  : 		while (	   p && *p
; 591  : 				&& !StringEqual( p, endTag, caseInsensitive, encoding )

  000fe	8b 75 08	 mov	 esi, DWORD PTR _p$[ebp]
  00101	85 f6		 test	 esi, esi
  00103	74 f0		 je	 SHORT $LN57@ReadText
  00105	8b 7d 14	 mov	 edi, DWORD PTR _endTag$[ebp]
  00108	eb 06 8d 9b 00
	00 00 00	 npad	 8
$LL2@ReadText:
  00110	80 3e 00	 cmp	 BYTE PTR [esi], 0
  00113	0f 84 bd 00 00
	00		 je	 $LN3@ReadText
  00119	ff 75 1c	 push	 DWORD PTR _encoding$[ebp]
  0011c	ff 75 18	 push	 DWORD PTR _caseInsensitive$[ebp]
  0011f	57		 push	 edi
  00120	56		 push	 esi
  00121	e8 00 00 00 00	 call	 ?StringEqual@TiXmlBase@@KA_NPBD0_NW4TiXmlEncoding@@@Z ; TiXmlBase::StringEqual
  00126	83 c4 10	 add	 esp, 16			; 00000010H
  00129	84 c0		 test	 al, al
  0012b	0f 85 a5 00 00
	00		 jne	 $LN3@ReadText
; File E:\Proyectos\JuegosOnlineproyectos\PB\pbblow\Piercing Blow Remake\i3Server\include\i3Base\tinyxml.h

; 334  : 		if ( encoding == TIXML_ENCODING_UTF8 )

  00131	8b 4d 1c	 mov	 ecx, DWORD PTR _encoding$[ebp]
; File E:\Proyectos\JuegosOnlineproyectos\PB\pbblow\Piercing Blow Remake\i3Server\src\i3Base\tinyxmlparser.cpp

; 595  : 			char cArr[4] = { 0, 0, 0, 0 };

  00134	c7 45 10 00 00
	00 00		 mov	 DWORD PTR _cArr$4[ebp], 0
; File E:\Proyectos\JuegosOnlineproyectos\PB\pbblow\Piercing Blow Remake\i3Server\include\i3Base\tinyxml.h

; 334  : 		if ( encoding == TIXML_ENCODING_UTF8 )

  0013b	83 f9 01	 cmp	 ecx, 1
  0013e	75 39		 jne	 SHORT $LN25@ReadText

; 335  : 		{
; 336  : 			*length = utf8ByteTable[ *((const unsigned char*)p) ];

  00140	0f b6 06	 movzx	 eax, BYTE PTR [esi]
  00143	8b 14 85 00 00
	00 00		 mov	 edx, DWORD PTR ?utf8ByteTable@TiXmlBase@@2QBHB[eax*4]

; 342  : 		}
; 343  : 
; 344  : 		if ( *length == 1 )

  0014a	89 55 08	 mov	 DWORD PTR _len$2[ebp], edx
  0014d	3b d1		 cmp	 edx, ecx
  0014f	74 30		 je	 SHORT $LN54@ReadText

; 350  : 		}
; 351  : 		else if ( *length )

  00151	85 d2		 test	 edx, edx
  00153	74 6c		 je	 SHORT $LN30@ReadText

; 352  : 		{
; 353  : 			//strncpy( _value, p, *length );	// lots of compilers don't like this function (unsafe),
; 354  : 												// and the null terminator isn't needed
; 355  : 			for( int i=0; p[i] && i<*length; ++i ) {

  00155	33 c9		 xor	 ecx, ecx
  00157	8b fa		 mov	 edi, edx
  00159	38 0e		 cmp	 BYTE PTR [esi], cl
  0015b	74 15		 je	 SHORT $LN60@ReadText
  0015d	8d 49 00	 npad	 3
$LL24@ReadText:
  00160	3b cf		 cmp	 ecx, edi
  00162	7d 0e		 jge	 SHORT $LN60@ReadText

; 356  : 				_value[i] = p[i];

  00164	8a 04 0e	 mov	 al, BYTE PTR [esi+ecx]
  00167	88 44 0d 10	 mov	 BYTE PTR _cArr$4[ebp+ecx], al
  0016b	41		 inc	 ecx
  0016c	80 3c 0e 00	 cmp	 BYTE PTR [esi+ecx], 0
  00170	75 ee		 jne	 SHORT $LL24@ReadText
$LN60@ReadText:

; 357  : 			}
; 358  : 			return p + (*length);

  00172	03 f7		 add	 esi, edi
  00174	8b 7d 14	 mov	 edi, DWORD PTR _endTag$[ebp]
  00177	eb 2b		 jmp	 SHORT $LN31@ReadText
$LN25@ReadText:

; 337  : 			I3ASSERT( *length >= 0 && *length < 5 );
; 338  : 		}
; 339  : 		else
; 340  : 		{
; 341  : 			*length = 1;

  00179	ba 01 00 00 00	 mov	 edx, 1
  0017e	89 55 08	 mov	 DWORD PTR _len$2[ebp], edx
$LN54@ReadText:

; 345  : 		{
; 346  : 			if ( *p == '&' )

  00181	8a 06		 mov	 al, BYTE PTR [esi]
  00183	3c 26		 cmp	 al, 38			; 00000026H
  00185	75 19		 jne	 SHORT $LN29@ReadText

; 347  : 				return GetEntity( p, _value, length, encoding );

  00187	51		 push	 ecx
  00188	8d 45 08	 lea	 eax, DWORD PTR _len$2[ebp]
  0018b	50		 push	 eax
  0018c	8d 45 10	 lea	 eax, DWORD PTR _cArr$4[ebp]
  0018f	50		 push	 eax
  00190	56		 push	 esi
  00191	e8 00 00 00 00	 call	 ?GetEntity@TiXmlBase@@KAPBDPBDPADPAHW4TiXmlEncoding@@@Z ; TiXmlBase::GetEntity
  00196	8b 55 08	 mov	 edx, DWORD PTR _len$2[ebp]
  00199	83 c4 10	 add	 esp, 16			; 00000010H
  0019c	8b f0		 mov	 esi, eax
  0019e	eb 04		 jmp	 SHORT $LN31@ReadText
$LN29@ReadText:

; 348  : 			*_value = *p;

  001a0	88 45 10	 mov	 BYTE PTR _cArr$4[ebp], al

; 349  : 			return p+1;

  001a3	46		 inc	 esi
$LN31@ReadText:
; File E:\Proyectos\JuegosOnlineproyectos\PB\pbblow\Piercing Blow Remake\i3Server\src\i3Base\tinyxmlparser.cpp

; 597  : 			text->append( cArr, len );

  001a4	52		 push	 edx
  001a5	8d 45 10	 lea	 eax, DWORD PTR _cArr$4[ebp]
  001a8	8b cb		 mov	 ecx, ebx
  001aa	50		 push	 eax
  001ab	e8 00 00 00 00	 call	 ?append@TiXmlString@@QAEAAV1@PBDI@Z ; TiXmlString::append
  001b0	85 f6		 test	 esi, esi
  001b2	0f 85 58 ff ff
	ff		 jne	 $LL2@ReadText

; 641  : }

  001b8	5f		 pop	 edi
  001b9	8b c6		 mov	 eax, esi
  001bb	5e		 pop	 esi
  001bc	5b		 pop	 ebx
  001bd	8b e5		 mov	 esp, ebp
  001bf	5d		 pop	 ebp
  001c0	c3		 ret	 0
$LN30@ReadText:
; File E:\Proyectos\JuegosOnlineproyectos\PB\pbblow\Piercing Blow Remake\i3Server\include\i3Base\tinyxml.h

; 363  : 			return 0;

  001c1	52		 push	 edx
  001c2	8d 45 10	 lea	 eax, DWORD PTR _cArr$4[ebp]
  001c5	8b cb		 mov	 ecx, ebx
  001c7	50		 push	 eax
  001c8	e8 00 00 00 00	 call	 ?append@TiXmlString@@QAEAAV1@PBDI@Z ; TiXmlString::append
  001cd	5f		 pop	 edi
; File E:\Proyectos\JuegosOnlineproyectos\PB\pbblow\Piercing Blow Remake\i3Server\src\i3Base\tinyxmlparser.cpp

; 641  : }

  001ce	5e		 pop	 esi
  001cf	33 c0		 xor	 eax, eax
  001d1	5b		 pop	 ebx
  001d2	8b e5		 mov	 esp, ebp
  001d4	5d		 pop	 ebp
  001d5	c3		 ret	 0
$LN3@ReadText:

; 635  : 			}
; 636  : 		}
; 637  : 	}
; 638  : 	if ( p ) 
; 639  : 		p += strlen( endTag );

  001d6	8d 4f 01	 lea	 ecx, DWORD PTR [edi+1]
  001d9	8d a4 24 00 00
	00 00		 npad	 7
$LL56@ReadText:
  001e0	8a 07		 mov	 al, BYTE PTR [edi]
  001e2	47		 inc	 edi
  001e3	84 c0		 test	 al, al
  001e5	75 f9		 jne	 SHORT $LL56@ReadText
  001e7	2b f9		 sub	 edi, ecx
  001e9	8d 04 37	 lea	 eax, DWORD PTR [edi+esi]
  001ec	5f		 pop	 edi

; 641  : }

  001ed	5e		 pop	 esi
  001ee	5b		 pop	 ebx
  001ef	8b e5		 mov	 esp, ebp
  001f1	5d		 pop	 ebp
  001f2	c3		 ret	 0
?ReadText@TiXmlBase@@KAPBDPBDPAVTiXmlString@@_N02W4TiXmlEncoding@@@Z ENDP ; TiXmlBase::ReadText
_TEXT	ENDS
; Function compile flags: /Ogtp
; File E:\Proyectos\JuegosOnlineproyectos\PB\pbblow\Piercing Blow Remake\i3Server\src\i3Base\tinyxmlparser.cpp
; File E:\Proyectos\JuegosOnlineproyectos\PB\pbblow\Piercing Blow Remake\i3Server\include\i3Base\tinystr.h
; File E:\Proyectos\JuegosOnlineproyectos\PB\pbblow\Piercing Blow Remake\i3Server\src\i3Base\tinyxmlparser.cpp
; File E:\Proyectos\JuegosOnlineproyectos\PB\pbblow\Piercing Blow Remake\i3Server\include\i3Base\tinystr.h
; File E:\Proyectos\JuegosOnlineproyectos\PB\pbblow\Piercing Blow Remake\i3Server\src\i3Base\tinyxmlparser.cpp
;	COMDAT ?ReadName@TiXmlBase@@KAPBDPBDPAVTiXmlString@@W4TiXmlEncoding@@@Z
_TEXT	SEGMENT
_p$ = 8							; size = 4
_name$ = 12						; size = 4
_encoding$ = 16						; size = 4
?ReadName@TiXmlBase@@KAPBDPBDPAVTiXmlString@@W4TiXmlEncoding@@@Z PROC ; TiXmlBase::ReadName, COMDAT

; 406  : {

  00000	55		 push	 ebp
  00001	8b ec		 mov	 ebp, esp
; File E:\Proyectos\JuegosOnlineproyectos\PB\pbblow\Piercing Blow Remake\i3Server\include\i3Base\tinystr.h

; 114  : 		return assign( copy, (size_type)strlen(copy));

  00003	8b 4d 0c	 mov	 ecx, DWORD PTR _name$[ebp]
; File E:\Proyectos\JuegosOnlineproyectos\PB\pbblow\Piercing Blow Remake\i3Server\src\i3Base\tinyxmlparser.cpp

; 406  : {

  00006	56		 push	 esi
; File E:\Proyectos\JuegosOnlineproyectos\PB\pbblow\Piercing Blow Remake\i3Server\include\i3Base\tinystr.h

; 114  : 		return assign( copy, (size_type)strlen(copy));

  00007	6a 00		 push	 0
  00009	68 00 00 00 00	 push	 OFFSET ??_C@_00CNPNBAHC@@
  0000e	e8 00 00 00 00	 call	 ?assign@TiXmlString@@QAEAAV1@PBDI@Z ; TiXmlString::assign
; File E:\Proyectos\JuegosOnlineproyectos\PB\pbblow\Piercing Blow Remake\i3Server\src\i3Base\tinyxmlparser.cpp

; 421  : 		 && ( IsAlpha( (unsigned char) *p, encoding ) || *p == '_' ) )

  00013	8b 75 08	 mov	 esi, DWORD PTR _p$[ebp]
  00016	85 f6		 test	 esi, esi
  00018	74 6f		 je	 SHORT $LN4@ReadName
  0001a	8a 06		 mov	 al, BYTE PTR [esi]
  0001c	84 c0		 test	 al, al
  0001e	74 69		 je	 SHORT $LN4@ReadName

; 142  : 		if ( anyByte < 127 )

  00020	3c 7f		 cmp	 al, 127			; 0000007fH
  00022	73 15		 jae	 SHORT $LN5@ReadName

; 143  : 			return isalpha( anyByte );

  00024	0f b6 c0	 movzx	 eax, al
  00027	50		 push	 eax
  00028	e8 00 00 00 00	 call	 _isalpha
  0002d	83 c4 04	 add	 esp, 4

; 421  : 		 && ( IsAlpha( (unsigned char) *p, encoding ) || *p == '_' ) )

  00030	85 c0		 test	 eax, eax
  00032	75 05		 jne	 SHORT $LN5@ReadName
  00034	80 3e 5f	 cmp	 BYTE PTR [esi], 95	; 0000005fH
  00037	75 50		 jne	 SHORT $LN4@ReadName
$LN5@ReadName:
  00039	57		 push	 edi

; 422  : 	{
; 423  : 		const char* start = p;

  0003a	8b fe		 mov	 edi, esi
  0003c	8d 64 24 00	 npad	 4
$LL2@ReadName:

; 424  : 		while(		p && *p
; 425  : 				&&	(		IsAlphaNum( (unsigned char ) *p, encoding ) 

  00040	8a 06		 mov	 al, BYTE PTR [esi]
  00042	84 c0		 test	 al, al
  00044	74 2b		 je	 SHORT $LN3@ReadName

; 163  : 		if ( anyByte < 127 )

  00046	3c 7f		 cmp	 al, 127			; 0000007fH
  00048	73 22		 jae	 SHORT $LN6@ReadName

; 164  : 			return isalnum( anyByte );

  0004a	0f b6 c0	 movzx	 eax, al
  0004d	50		 push	 eax
  0004e	e8 00 00 00 00	 call	 _isalnum
  00053	83 c4 04	 add	 esp, 4

; 424  : 		while(		p && *p
; 425  : 				&&	(		IsAlphaNum( (unsigned char ) *p, encoding ) 

  00056	85 c0		 test	 eax, eax
  00058	75 12		 jne	 SHORT $LN6@ReadName
  0005a	8a 06		 mov	 al, BYTE PTR [esi]
  0005c	3c 5f		 cmp	 al, 95			; 0000005fH
  0005e	74 0c		 je	 SHORT $LN6@ReadName
  00060	3c 2d		 cmp	 al, 45			; 0000002dH
  00062	74 08		 je	 SHORT $LN6@ReadName
  00064	3c 2e		 cmp	 al, 46			; 0000002eH
  00066	74 04		 je	 SHORT $LN6@ReadName
  00068	3c 3a		 cmp	 al, 58			; 0000003aH
  0006a	75 05		 jne	 SHORT $LN3@ReadName
$LN6@ReadName:

; 426  : 						 || *p == '_'
; 427  : 						 || *p == '-'
; 428  : 						 || *p == '.'
; 429  : 						 || *p == ':' ) )
; 430  : 		{
; 431  : 			//(*name) += *p; // expensive
; 432  : 			++p;

  0006c	83 c6 01	 add	 esi, 1
  0006f	75 cf		 jne	 SHORT $LL2@ReadName
$LN3@ReadName:

; 433  : 		}
; 434  : 		if ( p-start > 0 ) {

  00071	8b c6		 mov	 eax, esi
  00073	2b c7		 sub	 eax, edi
  00075	85 c0		 test	 eax, eax
  00077	7e 0a		 jle	 SHORT $LN7@ReadName

; 435  : 			name->assign( start, p-start );

  00079	8b 4d 0c	 mov	 ecx, DWORD PTR _name$[ebp]
  0007c	50		 push	 eax
  0007d	57		 push	 edi
  0007e	e8 00 00 00 00	 call	 ?assign@TiXmlString@@QAEAAV1@PBDI@Z ; TiXmlString::assign
$LN7@ReadName:

; 436  : 		}
; 437  : 		return p;

  00083	5f		 pop	 edi
  00084	8b c6		 mov	 eax, esi
  00086	5e		 pop	 esi

; 440  : }

  00087	5d		 pop	 ebp
  00088	c3		 ret	 0
$LN4@ReadName:

; 438  : 	}
; 439  : 	return 0;

  00089	33 c0		 xor	 eax, eax
  0008b	5e		 pop	 esi

; 440  : }

  0008c	5d		 pop	 ebp
  0008d	c3		 ret	 0
?ReadName@TiXmlBase@@KAPBDPBDPAVTiXmlString@@W4TiXmlEncoding@@@Z ENDP ; TiXmlBase::ReadName
_TEXT	ENDS
; Function compile flags: /Ogtp
; File E:\Proyectos\JuegosOnlineproyectos\PB\pbblow\Piercing Blow Remake\i3Server\include\i3Base\tinyxml.h
;	COMDAT ?IsWhiteSpace@TiXmlBase@@KA_NH@Z
_TEXT	SEGMENT
_c$ = 8							; size = 4
?IsWhiteSpace@TiXmlBase@@KA_NH@Z PROC			; TiXmlBase::IsWhiteSpace, COMDAT

; 299  : 	{

  00000	55		 push	 ebp
  00001	8b ec		 mov	 ebp, esp
  00003	53		 push	 ebx

; 300  : 		if ( c < 256 )

  00004	8b 5d 08	 mov	 ebx, DWORD PTR _c$[ebp]
  00007	81 fb 00 01 00
	00		 cmp	 ebx, 256		; 00000100H
  0000d	7d 1f		 jge	 SHORT $LN2@IsWhiteSpa

; 296  : 		return ( isspace( (unsigned char) c ) || c == '\n' || c == '\r' ); 

  0000f	0f b6 c3	 movzx	 eax, bl
  00012	50		 push	 eax
  00013	e8 00 00 00 00	 call	 _isspace
  00018	83 c4 04	 add	 esp, 4
  0001b	85 c0		 test	 eax, eax
  0001d	75 0a		 jne	 SHORT $LN6@IsWhiteSpa
  0001f	80 fb 0a	 cmp	 bl, 10			; 0000000aH
  00022	74 05		 je	 SHORT $LN6@IsWhiteSpa
  00024	80 fb 0d	 cmp	 bl, 13			; 0000000dH
  00027	75 05		 jne	 SHORT $LN2@IsWhiteSpa
$LN6@IsWhiteSpa:
  00029	b0 01		 mov	 al, 1
  0002b	5b		 pop	 ebx

; 301  : 			return IsWhiteSpace( (char) c );
; 302  : 		return false;	// Again, only truly correct for English/Latin...but usually works.
; 303  : 	}

  0002c	5d		 pop	 ebp
  0002d	c3		 ret	 0
$LN2@IsWhiteSpa:
  0002e	32 c0		 xor	 al, al
  00030	5b		 pop	 ebx
  00031	5d		 pop	 ebp
  00032	c3		 ret	 0
?IsWhiteSpace@TiXmlBase@@KA_NH@Z ENDP			; TiXmlBase::IsWhiteSpace
_TEXT	ENDS
; Function compile flags: /Ogtp
; File E:\Proyectos\JuegosOnlineproyectos\PB\pbblow\Piercing Blow Remake\i3Server\include\i3Base\tinyxml.h
;	COMDAT ?IsWhiteSpace@TiXmlBase@@KA_ND@Z
_TEXT	SEGMENT
_c$ = 8							; size = 1
?IsWhiteSpace@TiXmlBase@@KA_ND@Z PROC			; TiXmlBase::IsWhiteSpace, COMDAT

; 295  : 	{ 

  00000	55		 push	 ebp
  00001	8b ec		 mov	 ebp, esp
  00003	53		 push	 ebx

; 296  : 		return ( isspace( (unsigned char) c ) || c == '\n' || c == '\r' ); 

  00004	8a 5d 08	 mov	 bl, BYTE PTR _c$[ebp]
  00007	0f b6 c3	 movzx	 eax, bl
  0000a	50		 push	 eax
  0000b	e8 00 00 00 00	 call	 _isspace
  00010	83 c4 04	 add	 esp, 4
  00013	85 c0		 test	 eax, eax
  00015	75 0f		 jne	 SHORT $LN3@IsWhiteSpa
  00017	80 fb 0a	 cmp	 bl, 10			; 0000000aH
  0001a	74 0a		 je	 SHORT $LN3@IsWhiteSpa
  0001c	80 fb 0d	 cmp	 bl, 13			; 0000000dH
  0001f	74 05		 je	 SHORT $LN3@IsWhiteSpa
  00021	32 c0		 xor	 al, al
  00023	5b		 pop	 ebx

; 297  : 	}

  00024	5d		 pop	 ebp
  00025	c3		 ret	 0
$LN3@IsWhiteSpa:

; 296  : 		return ( isspace( (unsigned char) c ) || c == '\n' || c == '\r' ); 

  00026	b0 01		 mov	 al, 1
  00028	5b		 pop	 ebx

; 297  : 	}

  00029	5d		 pop	 ebp
  0002a	c3		 ret	 0
?IsWhiteSpace@TiXmlBase@@KA_ND@Z ENDP			; TiXmlBase::IsWhiteSpace
_TEXT	ENDS
; Function compile flags: /Ogtp
; File E:\Proyectos\JuegosOnlineproyectos\PB\pbblow\Piercing Blow Remake\i3Server\src\i3Base\tinyxmlparser.cpp
; File E:\Proyectos\JuegosOnlineproyectos\PB\pbblow\Piercing Blow Remake\i3Server\include\i3Base\tinyxml.h
; File E:\Proyectos\JuegosOnlineproyectos\PB\pbblow\Piercing Blow Remake\i3Server\src\i3Base\tinyxmlparser.cpp
; File E:\Proyectos\JuegosOnlineproyectos\PB\pbblow\Piercing Blow Remake\i3Server\include\i3Base\tinyxml.h
; File E:\Proyectos\JuegosOnlineproyectos\PB\pbblow\Piercing Blow Remake\i3Server\src\i3Base\tinyxmlparser.cpp
;	COMDAT ?SkipWhiteSpace@TiXmlBase@@KAPBDPBDW4TiXmlEncoding@@@Z
_TEXT	SEGMENT
_p$ = 8							; size = 4
_encoding$ = 12						; size = 4
?SkipWhiteSpace@TiXmlBase@@KAPBDPBDW4TiXmlEncoding@@@Z PROC ; TiXmlBase::SkipWhiteSpace, COMDAT

; 319  : {

  00000	55		 push	 ebp
  00001	8b ec		 mov	 ebp, esp
  00003	56		 push	 esi

; 320  : 	if ( !p || !*p )

  00004	8b 75 08	 mov	 esi, DWORD PTR _p$[ebp]
  00007	85 f6		 test	 esi, esi
  00009	0f 84 b1 00 00
	00		 je	 $LN7@SkipWhiteS
  0000f	8a 06		 mov	 al, BYTE PTR [esi]
  00011	84 c0		 test	 al, al
  00013	0f 84 a7 00 00
	00		 je	 $LN7@SkipWhiteS

; 323  : 	}
; 324  : 	if ( encoding == TIXML_ENCODING_UTF8 )

  00019	83 7d 0c 01	 cmp	 DWORD PTR _encoding$[ebp], 1
  0001d	53		 push	 ebx
  0001e	75 70		 jne	 SHORT $LL4@SkipWhiteS
$LL2@SkipWhiteS:

; 327  : 		{
; 328  : 			const unsigned char* pU = (const unsigned char*)p;
; 329  : 			
; 330  : 			// Skip the stupid Microsoft UTF-8 Byte order marks
; 331  : 			if (	*(pU+0)==TIXML_UTF_LEAD_0
; 332  : 				 && *(pU+1)==TIXML_UTF_LEAD_1 
; 333  : 				 && *(pU+2)==TIXML_UTF_LEAD_2 )

  00020	3c ef		 cmp	 al, 239			; 000000efH
  00022	75 33		 jne	 SHORT $LN14@SkipWhiteS
  00024	8a 4e 01	 mov	 cl, BYTE PTR [esi+1]
  00027	80 f9 bb	 cmp	 cl, 187			; 000000bbH
  0002a	75 0b		 jne	 SHORT $LN45@SkipWhiteS
  0002c	80 7e 02 bf	 cmp	 BYTE PTR [esi+2], 191	; 000000bfH
  00030	75 15		 jne	 SHORT $LN44@SkipWhiteS

; 334  : 			{
; 335  : 				p += 3;

  00032	83 c6 03	 add	 esi, 3

; 336  : 				continue;

  00035	eb 47		 jmp	 SHORT $LN16@SkipWhiteS
$LN45@SkipWhiteS:

; 337  : 			}
; 338  : 			else if(*(pU+0)==TIXML_UTF_LEAD_0
; 339  : 				 && *(pU+1)==0xbfU
; 340  : 				 && *(pU+2)==0xbeU )

  00037	80 f9 bf	 cmp	 cl, 191			; 000000bfH
  0003a	75 1b		 jne	 SHORT $LN14@SkipWhiteS
  0003c	80 7e 02 be	 cmp	 BYTE PTR [esi+2], 190	; 000000beH
  00040	75 0a		 jne	 SHORT $LN46@SkipWhiteS

; 341  : 			{
; 342  : 				p += 3;

  00042	83 c6 03	 add	 esi, 3

; 343  : 				continue;

  00045	eb 37		 jmp	 SHORT $LN16@SkipWhiteS
$LN44@SkipWhiteS:

; 344  : 			}
; 345  : 			else if(*(pU+0)==TIXML_UTF_LEAD_0
; 346  : 				 && *(pU+1)==0xbfU
; 347  : 				 && *(pU+2)==0xbfU )

  00047	80 f9 bf	 cmp	 cl, 191			; 000000bfH
  0004a	75 0b		 jne	 SHORT $LN14@SkipWhiteS
$LN46@SkipWhiteS:
  0004c	80 7e 02 bf	 cmp	 BYTE PTR [esi+2], 191	; 000000bfH
  00050	75 05		 jne	 SHORT $LN14@SkipWhiteS

; 348  : 			{
; 349  : 				p += 3;

  00052	83 c6 03	 add	 esi, 3

; 350  : 				continue;

  00055	eb 27		 jmp	 SHORT $LN16@SkipWhiteS
$LN14@SkipWhiteS:

; 353  : 			if ( IsWhiteSpace( *p ) || *p == '\n' || *p =='\r' )		// Still using old rules for white space.

  00057	8a 1e		 mov	 bl, BYTE PTR [esi]
; File E:\Proyectos\JuegosOnlineproyectos\PB\pbblow\Piercing Blow Remake\i3Server\include\i3Base\tinyxml.h

; 296  : 		return ( isspace( (unsigned char) c ) || c == '\n' || c == '\r' ); 

  00059	0f b6 c3	 movzx	 eax, bl
  0005c	50		 push	 eax
  0005d	e8 00 00 00 00	 call	 _isspace
  00062	83 c4 04	 add	 esp, 4
  00065	85 c0		 test	 eax, eax
  00067	75 14		 jne	 SHORT $LN17@SkipWhiteS
  00069	80 fb 0a	 cmp	 bl, 10			; 0000000aH
  0006c	74 0f		 je	 SHORT $LN17@SkipWhiteS
  0006e	80 fb 0d	 cmp	 bl, 13			; 0000000dH
  00071	74 0a		 je	 SHORT $LN17@SkipWhiteS
; File E:\Proyectos\JuegosOnlineproyectos\PB\pbblow\Piercing Blow Remake\i3Server\src\i3Base\tinyxmlparser.cpp

; 353  : 			if ( IsWhiteSpace( *p ) || *p == '\n' || *p =='\r' )		// Still using old rules for white space.

  00073	8a 06		 mov	 al, BYTE PTR [esi]
  00075	3c 0a		 cmp	 al, 10			; 0000000aH
  00077	74 04		 je	 SHORT $LN17@SkipWhiteS
  00079	3c 0d		 cmp	 al, 13			; 0000000dH
  0007b	75 07		 jne	 SHORT $LN47@SkipWhiteS
$LN17@SkipWhiteS:

; 354  : 				++p;

  0007d	46		 inc	 esi
$LN16@SkipWhiteS:

; 325  : 	{
; 326  : 		while ( *p )

  0007e	8a 06		 mov	 al, BYTE PTR [esi]
  00080	84 c0		 test	 al, al
  00082	75 9c		 jne	 SHORT $LL2@SkipWhiteS
$LN47@SkipWhiteS:

; 363  : 	}
; 364  : 
; 365  : 	return p;

  00084	5b		 pop	 ebx
  00085	8b c6		 mov	 eax, esi
  00087	5e		 pop	 esi

; 366  : }

  00088	5d		 pop	 ebp
  00089	c3		 ret	 0
  0008a	8d 9b 00 00 00
	00		 npad	 6
$LL4@SkipWhiteS:

; 361  : 		while ( *p && IsWhiteSpace( *p ) || *p == '\n' || *p =='\r' )

  00090	84 c0		 test	 al, al
  00092	74 1c		 je	 SHORT $LN19@SkipWhiteS
  00094	8a 1e		 mov	 bl, BYTE PTR [esi]
; File E:\Proyectos\JuegosOnlineproyectos\PB\pbblow\Piercing Blow Remake\i3Server\include\i3Base\tinyxml.h

; 296  : 		return ( isspace( (unsigned char) c ) || c == '\n' || c == '\r' ); 

  00096	0f b6 c3	 movzx	 eax, bl
  00099	50		 push	 eax
  0009a	e8 00 00 00 00	 call	 _isspace
  0009f	83 c4 04	 add	 esp, 4
  000a2	85 c0		 test	 eax, eax
  000a4	75 14		 jne	 SHORT $LN18@SkipWhiteS
  000a6	80 fb 0a	 cmp	 bl, 10			; 0000000aH
  000a9	74 0f		 je	 SHORT $LN18@SkipWhiteS
  000ab	80 fb 0d	 cmp	 bl, 13			; 0000000dH
  000ae	74 0a		 je	 SHORT $LN18@SkipWhiteS
$LN19@SkipWhiteS:
; File E:\Proyectos\JuegosOnlineproyectos\PB\pbblow\Piercing Blow Remake\i3Server\src\i3Base\tinyxmlparser.cpp

; 361  : 		while ( *p && IsWhiteSpace( *p ) || *p == '\n' || *p =='\r' )

  000b0	8a 06		 mov	 al, BYTE PTR [esi]
  000b2	3c 0a		 cmp	 al, 10			; 0000000aH
  000b4	74 04		 je	 SHORT $LN18@SkipWhiteS
  000b6	3c 0d		 cmp	 al, 13			; 0000000dH
  000b8	75 ca		 jne	 SHORT $LN47@SkipWhiteS
$LN18@SkipWhiteS:

; 362  : 			++p;

  000ba	8a 46 01	 mov	 al, BYTE PTR [esi+1]
  000bd	46		 inc	 esi
  000be	eb d0		 jmp	 SHORT $LL4@SkipWhiteS
$LN7@SkipWhiteS:

; 321  : 	{
; 322  : 		return 0;

  000c0	33 c0		 xor	 eax, eax
  000c2	5e		 pop	 esi

; 366  : }

  000c3	5d		 pop	 ebp
  000c4	c3		 ret	 0
?SkipWhiteSpace@TiXmlBase@@KAPBDPBDW4TiXmlEncoding@@@Z ENDP ; TiXmlBase::SkipWhiteSpace
_TEXT	ENDS
; Function compile flags: /Ogtp
; File E:\Proyectos\JuegosOnlineproyectos\PB\pbblow\Piercing Blow Remake\i3Server\include\i3Base\tinyxml.h
;	COMDAT ?GetUserData@TiXmlBase@@QBEPBXXZ
_TEXT	SEGMENT
?GetUserData@TiXmlBase@@QBEPBXXZ PROC			; TiXmlBase::GetUserData, COMDAT
; _this$ = ecx

; 253  : 	const void* GetUserData() const 		{ return userData; }	///< Get a pointer to arbitrary user data.

  00000	8b 41 0c	 mov	 eax, DWORD PTR [ecx+12]
  00003	c3		 ret	 0
?GetUserData@TiXmlBase@@QBEPBXXZ ENDP			; TiXmlBase::GetUserData
_TEXT	ENDS
; Function compile flags: /Ogtp
; File E:\Proyectos\JuegosOnlineproyectos\PB\pbblow\Piercing Blow Remake\i3Server\include\i3Base\tinyxml.h
;	COMDAT ?GetUserData@TiXmlBase@@QAEPAXXZ
_TEXT	SEGMENT
?GetUserData@TiXmlBase@@QAEPAXXZ PROC			; TiXmlBase::GetUserData, COMDAT
; _this$ = ecx

; 252  : 	void* GetUserData()						{ return userData; }	///< Get a pointer to arbitrary user data.

  00000	8b 41 0c	 mov	 eax, DWORD PTR [ecx+12]
  00003	c3		 ret	 0
?GetUserData@TiXmlBase@@QAEPAXXZ ENDP			; TiXmlBase::GetUserData
_TEXT	ENDS
; Function compile flags: /Ogtp
; File E:\Proyectos\JuegosOnlineproyectos\PB\pbblow\Piercing Blow Remake\i3Server\include\i3Base\tinyxml.h
;	COMDAT ?SetUserData@TiXmlBase@@QAEXPAX@Z
_TEXT	SEGMENT
_user$ = 8						; size = 4
?SetUserData@TiXmlBase@@QAEXPAX@Z PROC			; TiXmlBase::SetUserData, COMDAT
; _this$ = ecx

; 251  : 	void  SetUserData( void* user )			{ userData = user; }	///< Set a pointer to arbitrary user data.

  00000	55		 push	 ebp
  00001	8b ec		 mov	 ebp, esp
  00003	8b 45 08	 mov	 eax, DWORD PTR _user$[ebp]
  00006	89 41 0c	 mov	 DWORD PTR [ecx+12], eax
  00009	5d		 pop	 ebp
  0000a	c2 04 00	 ret	 4
?SetUserData@TiXmlBase@@QAEXPAX@Z ENDP			; TiXmlBase::SetUserData
_TEXT	ENDS
; Function compile flags: /Ogtp
; File E:\Proyectos\JuegosOnlineproyectos\PB\pbblow\Piercing Blow Remake\i3Server\include\i3Base\tinyxml.h
;	COMDAT ?Column@TiXmlBase@@QBEHXZ
_TEXT	SEGMENT
?Column@TiXmlBase@@QBEHXZ PROC				; TiXmlBase::Column, COMDAT
; _this$ = ecx

; 249  : 	int Column() const		{ return location.col + 1; }	///< See Row()

  00000	8b 41 08	 mov	 eax, DWORD PTR [ecx+8]
  00003	40		 inc	 eax
  00004	c3		 ret	 0
?Column@TiXmlBase@@QBEHXZ ENDP				; TiXmlBase::Column
_TEXT	ENDS
; Function compile flags: /Ogtp
; File E:\Proyectos\JuegosOnlineproyectos\PB\pbblow\Piercing Blow Remake\i3Server\include\i3Base\tinyxml.h
;	COMDAT ?Row@TiXmlBase@@QBEHXZ
_TEXT	SEGMENT
?Row@TiXmlBase@@QBEHXZ PROC				; TiXmlBase::Row, COMDAT
; _this$ = ecx

; 248  : 	int Row() const			{ return location.row + 1; }

  00000	8b 41 04	 mov	 eax, DWORD PTR [ecx+4]
  00003	40		 inc	 eax
  00004	c3		 ret	 0
?Row@TiXmlBase@@QBEHXZ ENDP				; TiXmlBase::Row
_TEXT	ENDS
; Function compile flags: /Ogtp
; File E:\Proyectos\JuegosOnlineproyectos\PB\pbblow\Piercing Blow Remake\i3Server\include\i3Base\tinyxml.h
;	COMDAT ?IsWhiteSpaceCondensed@TiXmlBase@@SA_NXZ
_TEXT	SEGMENT
?IsWhiteSpaceCondensed@TiXmlBase@@SA_NXZ PROC		; TiXmlBase::IsWhiteSpaceCondensed, COMDAT

; 228  : 	static bool IsWhiteSpaceCondensed()						{ return condenseWhiteSpace; }

  00000	a0 00 00 00 00	 mov	 al, BYTE PTR ?condenseWhiteSpace@TiXmlBase@@0_NA ; TiXmlBase::condenseWhiteSpace
  00005	c3		 ret	 0
?IsWhiteSpaceCondensed@TiXmlBase@@SA_NXZ ENDP		; TiXmlBase::IsWhiteSpaceCondensed
_TEXT	ENDS
; Function compile flags: /Ogtp
; File E:\Proyectos\JuegosOnlineproyectos\PB\pbblow\Piercing Blow Remake\i3Server\include\i3Base\tinyxml.h
;	COMDAT ?SetCondenseWhiteSpace@TiXmlBase@@SAX_N@Z
_TEXT	SEGMENT
_condense$ = 8						; size = 1
?SetCondenseWhiteSpace@TiXmlBase@@SAX_N@Z PROC		; TiXmlBase::SetCondenseWhiteSpace, COMDAT

; 225  : 	static void SetCondenseWhiteSpace( bool condense )		{ condenseWhiteSpace = condense; }

  00000	55		 push	 ebp
  00001	8b ec		 mov	 ebp, esp
  00003	8a 45 08	 mov	 al, BYTE PTR _condense$[ebp]
  00006	a2 00 00 00 00	 mov	 BYTE PTR ?condenseWhiteSpace@TiXmlBase@@0_NA, al ; TiXmlBase::condenseWhiteSpace
  0000b	5d		 pop	 ebp
  0000c	c3		 ret	 0
?SetCondenseWhiteSpace@TiXmlBase@@SAX_N@Z ENDP		; TiXmlBase::SetCondenseWhiteSpace
_TEXT	ENDS
; Function compile flags: /Ogtp
; File E:\Proyectos\JuegosOnlineproyectos\PB\pbblow\Piercing Blow Remake\i3Server\include\i3Base\tinyxml.h
;	COMDAT ??1TiXmlBase@@UAE@XZ
_TEXT	SEGMENT
??1TiXmlBase@@UAE@XZ PROC				; TiXmlBase::~TiXmlBase, COMDAT
; _this$ = ecx

; 206  : 	virtual ~TiXmlBase()			{}

  00000	c7 01 00 00 00
	00		 mov	 DWORD PTR [ecx], OFFSET ??_7TiXmlBase@@6B@
  00006	c3		 ret	 0
??1TiXmlBase@@UAE@XZ ENDP				; TiXmlBase::~TiXmlBase
_TEXT	ENDS
; Function compile flags: /Ogtp
; File E:\Proyectos\JuegosOnlineproyectos\PB\pbblow\Piercing Blow Remake\i3Server\include\i3Base\tinyxml.h
;	COMDAT ??0TiXmlBase@@QAE@XZ
_TEXT	SEGMENT
??0TiXmlBase@@QAE@XZ PROC				; TiXmlBase::TiXmlBase, COMDAT
; _this$ = ecx

; 205  : 	TiXmlBase()	:	userData(0)		{}

  00000	c7 01 00 00 00
	00		 mov	 DWORD PTR [ecx], OFFSET ??_7TiXmlBase@@6B@
  00006	8b c1		 mov	 eax, ecx

; 107  : 	void Clear()		{ row = col = -1; }

  00008	c7 41 08 ff ff
	ff ff		 mov	 DWORD PTR [ecx+8], -1
  0000f	c7 41 04 ff ff
	ff ff		 mov	 DWORD PTR [ecx+4], -1

; 205  : 	TiXmlBase()	:	userData(0)		{}

  00016	c7 41 0c 00 00
	00 00		 mov	 DWORD PTR [ecx+12], 0
  0001d	c3		 ret	 0
??0TiXmlBase@@QAE@XZ ENDP				; TiXmlBase::TiXmlBase
_TEXT	ENDS
; Function compile flags: /Ogtp
;	COMDAT ??_ETiXmlVisitor@@UAEPAXI@Z
_TEXT	SEGMENT
__$EHRec$ = -12						; size = 12
___flags$ = 8						; size = 4
??_ETiXmlVisitor@@UAEPAXI@Z PROC			; TiXmlVisitor::`vector deleting destructor', COMDAT
; _this$ = ecx
  00000	55		 push	 ebp
  00001	8b ec		 mov	 ebp, esp
  00003	6a ff		 push	 -1
  00005	68 00 00 00 00	 push	 __ehhandler$??_ETiXmlVisitor@@UAEPAXI@Z
  0000a	64 a1 00 00 00
	00		 mov	 eax, DWORD PTR fs:0
  00010	50		 push	 eax
  00011	53		 push	 ebx
  00012	56		 push	 esi
  00013	57		 push	 edi
  00014	a1 00 00 00 00	 mov	 eax, DWORD PTR ___security_cookie
  00019	33 c5		 xor	 eax, ebp
  0001b	50		 push	 eax
  0001c	8d 45 f4	 lea	 eax, DWORD PTR __$EHRec$[ebp]
  0001f	64 a3 00 00 00
	00		 mov	 DWORD PTR fs:0, eax
  00025	8b f1		 mov	 esi, ecx
  00027	8b 45 08	 mov	 eax, DWORD PTR ___flags$[ebp]
  0002a	8b f8		 mov	 edi, eax
  0002c	83 e7 01	 and	 edi, 1
  0002f	a8 02		 test	 al, 2
  00031	74 40		 je	 SHORT $LN2@vector
  00033	68 00 00 00 00	 push	 OFFSET ??1TiXmlVisitor@@UAE@XZ ; TiXmlVisitor::~TiXmlVisitor
  00038	ff 76 fc	 push	 DWORD PTR [esi-4]
  0003b	8d 5e fc	 lea	 ebx, DWORD PTR [esi-4]
  0003e	6a 04		 push	 4
  00040	56		 push	 esi
  00041	e8 00 00 00 00	 call	 ??_M@YGXPAXIIP6EX0@Z@Z
  00046	85 ff		 test	 edi, edi
  00048	74 13		 je	 SHORT $LN3@vector
  0004a	8b 0b		 mov	 ecx, DWORD PTR [ebx]
  0004c	8d 0c 8d 04 00
	00 00		 lea	 ecx, DWORD PTR [ecx*4+4]
  00053	51		 push	 ecx
  00054	53		 push	 ebx
  00055	e8 00 00 00 00	 call	 ??_V@YAXPAXI@Z		; operator delete[]
  0005a	83 c4 08	 add	 esp, 8
$LN3@vector:
  0005d	8b c3		 mov	 eax, ebx
  0005f	8b 4d f4	 mov	 ecx, DWORD PTR __$EHRec$[ebp]
  00062	64 89 0d 00 00
	00 00		 mov	 DWORD PTR fs:0, ecx
  00069	59		 pop	 ecx
  0006a	5f		 pop	 edi
  0006b	5e		 pop	 esi
  0006c	5b		 pop	 ebx
  0006d	8b e5		 mov	 esp, ebp
  0006f	5d		 pop	 ebp
  00070	c2 04 00	 ret	 4
$LN2@vector:
  00073	c7 06 00 00 00
	00		 mov	 DWORD PTR [esi], OFFSET ??_7TiXmlVisitor@@6B@
  00079	85 ff		 test	 edi, edi
  0007b	74 0b		 je	 SHORT $LN4@vector
  0007d	6a 04		 push	 4
  0007f	56		 push	 esi
  00080	e8 00 00 00 00	 call	 ??3@YAXPAXI@Z		; operator delete
  00085	83 c4 08	 add	 esp, 8
$LN4@vector:
  00088	8b c6		 mov	 eax, esi
  0008a	8b 4d f4	 mov	 ecx, DWORD PTR __$EHRec$[ebp]
  0008d	64 89 0d 00 00
	00 00		 mov	 DWORD PTR fs:0, ecx
  00094	59		 pop	 ecx
  00095	5f		 pop	 edi
  00096	5e		 pop	 esi
  00097	5b		 pop	 ebx
  00098	8b e5		 mov	 esp, ebp
  0009a	5d		 pop	 ebp
  0009b	c2 04 00	 ret	 4
  0009e	cc		 int	 3
  0009f	cc		 int	 3
  000a0	cc		 int	 3
  000a1	cc		 int	 3
  000a2	cc		 int	 3
_TEXT	ENDS
;	COMDAT text$x
text$x	SEGMENT
__ehhandler$??_ETiXmlVisitor@@UAEPAXI@Z:
  00000	90		 npad	 1
  00001	90		 npad	 1
  00002	8b 54 24 08	 mov	 edx, DWORD PTR [esp+8]
  00006	8d 42 0c	 lea	 eax, DWORD PTR [edx+12]
  00009	8b 4a f0	 mov	 ecx, DWORD PTR [edx-16]
  0000c	33 c8		 xor	 ecx, eax
  0000e	e8 00 00 00 00	 call	 @__security_check_cookie@4
  00013	b8 00 00 00 00	 mov	 eax, OFFSET __ehfuncinfo$??_ETiXmlVisitor@@UAEPAXI@Z
  00018	e9 00 00 00 00	 jmp	 ___CxxFrameHandler3
text$x	ENDS
??_ETiXmlVisitor@@UAEPAXI@Z ENDP			; TiXmlVisitor::`vector deleting destructor'
; Function compile flags: /Ogtp
;	COMDAT ??_GTiXmlVisitor@@UAEPAXI@Z
_TEXT	SEGMENT
___flags$ = 8						; size = 4
??_GTiXmlVisitor@@UAEPAXI@Z PROC			; TiXmlVisitor::`scalar deleting destructor', COMDAT
; _this$ = ecx
  00000	55		 push	 ebp
  00001	8b ec		 mov	 ebp, esp
  00003	f6 45 08 01	 test	 BYTE PTR ___flags$[ebp], 1
  00007	56		 push	 esi
  00008	8b f1		 mov	 esi, ecx
  0000a	c7 06 00 00 00
	00		 mov	 DWORD PTR [esi], OFFSET ??_7TiXmlVisitor@@6B@
  00010	74 0b		 je	 SHORT $LN5@scalar
  00012	6a 04		 push	 4
  00014	56		 push	 esi
  00015	e8 00 00 00 00	 call	 ??3@YAXPAXI@Z		; operator delete
  0001a	83 c4 08	 add	 esp, 8
$LN5@scalar:
  0001d	8b c6		 mov	 eax, esi
  0001f	5e		 pop	 esi
  00020	5d		 pop	 ebp
  00021	c2 04 00	 ret	 4
??_GTiXmlVisitor@@UAEPAXI@Z ENDP			; TiXmlVisitor::`scalar deleting destructor'
_TEXT	ENDS
; Function compile flags: /Ogtp
;	COMDAT ??4TiXmlVisitor@@QAEAAV0@ABV0@@Z
_TEXT	SEGMENT
___that$ = 8						; size = 4
??4TiXmlVisitor@@QAEAAV0@ABV0@@Z PROC			; TiXmlVisitor::operator=, COMDAT
; _this$ = ecx
  00000	8b c1		 mov	 eax, ecx
  00002	c2 04 00	 ret	 4
??4TiXmlVisitor@@QAEAAV0@ABV0@@Z ENDP			; TiXmlVisitor::operator=
_TEXT	ENDS
; Function compile flags: /Ogtp
;	COMDAT ??0TiXmlVisitor@@QAE@ABV0@@Z
_TEXT	SEGMENT
___that$ = 8						; size = 4
??0TiXmlVisitor@@QAE@ABV0@@Z PROC			; TiXmlVisitor::TiXmlVisitor, COMDAT
; _this$ = ecx
  00000	c7 01 00 00 00
	00		 mov	 DWORD PTR [ecx], OFFSET ??_7TiXmlVisitor@@6B@
  00006	8b c1		 mov	 eax, ecx
  00008	c2 04 00	 ret	 4
??0TiXmlVisitor@@QAE@ABV0@@Z ENDP			; TiXmlVisitor::TiXmlVisitor
_TEXT	ENDS
; Function compile flags: /Ogtp
;	COMDAT ??0TiXmlVisitor@@QAE@XZ
_TEXT	SEGMENT
??0TiXmlVisitor@@QAE@XZ PROC				; TiXmlVisitor::TiXmlVisitor, COMDAT
; _this$ = ecx
  00000	c7 01 00 00 00
	00		 mov	 DWORD PTR [ecx], OFFSET ??_7TiXmlVisitor@@6B@
  00006	8b c1		 mov	 eax, ecx
  00008	c3		 ret	 0
??0TiXmlVisitor@@QAE@XZ ENDP				; TiXmlVisitor::TiXmlVisitor
_TEXT	ENDS
; Function compile flags: /Ogtp
; File E:\Proyectos\JuegosOnlineproyectos\PB\pbblow\Piercing Blow Remake\i3Server\include\i3Base\tinyxml.h
;	COMDAT ?Visit@TiXmlVisitor@@UAE_NABVTiXmlUnknown@@@Z
_TEXT	SEGMENT
___formal$ = 8						; size = 4
?Visit@TiXmlVisitor@@UAE_NABVTiXmlUnknown@@@Z PROC	; TiXmlVisitor::Visit, COMDAT
; _this$ = ecx

; 154  : 	virtual bool Visit( const TiXmlUnknown& /*unknown*/ )			{ return true; }

  00000	b0 01		 mov	 al, 1
  00002	c2 04 00	 ret	 4
?Visit@TiXmlVisitor@@UAE_NABVTiXmlUnknown@@@Z ENDP	; TiXmlVisitor::Visit
_TEXT	ENDS
; Function compile flags: /Ogtp
; File E:\Proyectos\JuegosOnlineproyectos\PB\pbblow\Piercing Blow Remake\i3Server\include\i3Base\tinyxml.h
;	COMDAT ?Visit@TiXmlVisitor@@UAE_NABVTiXmlComment@@@Z
_TEXT	SEGMENT
___formal$ = 8						; size = 4
?Visit@TiXmlVisitor@@UAE_NABVTiXmlComment@@@Z PROC	; TiXmlVisitor::Visit, COMDAT
; _this$ = ecx

; 152  : 	virtual bool Visit( const TiXmlComment& /*comment*/ )			{ return true; }

  00000	b0 01		 mov	 al, 1
  00002	c2 04 00	 ret	 4
?Visit@TiXmlVisitor@@UAE_NABVTiXmlComment@@@Z ENDP	; TiXmlVisitor::Visit
_TEXT	ENDS
; Function compile flags: /Ogtp
; File E:\Proyectos\JuegosOnlineproyectos\PB\pbblow\Piercing Blow Remake\i3Server\include\i3Base\tinyxml.h
;	COMDAT ?Visit@TiXmlVisitor@@UAE_NABVTiXmlText@@@Z
_TEXT	SEGMENT
___formal$ = 8						; size = 4
?Visit@TiXmlVisitor@@UAE_NABVTiXmlText@@@Z PROC		; TiXmlVisitor::Visit, COMDAT
; _this$ = ecx

; 150  : 	virtual bool Visit( const TiXmlText& /*text*/ )					{ return true; }

  00000	b0 01		 mov	 al, 1
  00002	c2 04 00	 ret	 4
?Visit@TiXmlVisitor@@UAE_NABVTiXmlText@@@Z ENDP		; TiXmlVisitor::Visit
_TEXT	ENDS
; Function compile flags: /Ogtp
; File E:\Proyectos\JuegosOnlineproyectos\PB\pbblow\Piercing Blow Remake\i3Server\include\i3Base\tinyxml.h
;	COMDAT ?Visit@TiXmlVisitor@@UAE_NABVTiXmlDeclaration@@@Z
_TEXT	SEGMENT
___formal$ = 8						; size = 4
?Visit@TiXmlVisitor@@UAE_NABVTiXmlDeclaration@@@Z PROC	; TiXmlVisitor::Visit, COMDAT
; _this$ = ecx

; 148  : 	virtual bool Visit( const TiXmlDeclaration& /*declaration*/ )	{ return true; }

  00000	b0 01		 mov	 al, 1
  00002	c2 04 00	 ret	 4
?Visit@TiXmlVisitor@@UAE_NABVTiXmlDeclaration@@@Z ENDP	; TiXmlVisitor::Visit
_TEXT	ENDS
; Function compile flags: /Ogtp
; File E:\Proyectos\JuegosOnlineproyectos\PB\pbblow\Piercing Blow Remake\i3Server\include\i3Base\tinyxml.h
;	COMDAT ?VisitExit@TiXmlVisitor@@UAE_NABVTiXmlElement@@@Z
_TEXT	SEGMENT
___formal$ = 8						; size = 4
?VisitExit@TiXmlVisitor@@UAE_NABVTiXmlElement@@@Z PROC	; TiXmlVisitor::VisitExit, COMDAT
; _this$ = ecx

; 145  : 	virtual bool VisitExit( const TiXmlElement& /*element*/ )		{ return true; }

  00000	b0 01		 mov	 al, 1
  00002	c2 04 00	 ret	 4
?VisitExit@TiXmlVisitor@@UAE_NABVTiXmlElement@@@Z ENDP	; TiXmlVisitor::VisitExit
_TEXT	ENDS
; Function compile flags: /Ogtp
; File E:\Proyectos\JuegosOnlineproyectos\PB\pbblow\Piercing Blow Remake\i3Server\include\i3Base\tinyxml.h
;	COMDAT ?VisitEnter@TiXmlVisitor@@UAE_NABVTiXmlElement@@PBVTiXmlAttribute@@@Z
_TEXT	SEGMENT
___formal$ = 8						; size = 4
___formal$ = 12						; size = 4
?VisitEnter@TiXmlVisitor@@UAE_NABVTiXmlElement@@PBVTiXmlAttribute@@@Z PROC ; TiXmlVisitor::VisitEnter, COMDAT
; _this$ = ecx

; 143  : 	virtual bool VisitEnter( const TiXmlElement& /*element*/, const TiXmlAttribute* /*firstAttribute*/ )	{ return true; }

  00000	b0 01		 mov	 al, 1
  00002	c2 08 00	 ret	 8
?VisitEnter@TiXmlVisitor@@UAE_NABVTiXmlElement@@PBVTiXmlAttribute@@@Z ENDP ; TiXmlVisitor::VisitEnter
_TEXT	ENDS
; Function compile flags: /Ogtp
; File E:\Proyectos\JuegosOnlineproyectos\PB\pbblow\Piercing Blow Remake\i3Server\include\i3Base\tinyxml.h
;	COMDAT ?VisitExit@TiXmlVisitor@@UAE_NABVTiXmlDocument@@@Z
_TEXT	SEGMENT
___formal$ = 8						; size = 4
?VisitExit@TiXmlVisitor@@UAE_NABVTiXmlDocument@@@Z PROC	; TiXmlVisitor::VisitExit, COMDAT
; _this$ = ecx

; 140  : 	virtual bool VisitExit( const TiXmlDocument& /*doc*/ )			{ return true; }

  00000	b0 01		 mov	 al, 1
  00002	c2 04 00	 ret	 4
?VisitExit@TiXmlVisitor@@UAE_NABVTiXmlDocument@@@Z ENDP	; TiXmlVisitor::VisitExit
_TEXT	ENDS
; Function compile flags: /Ogtp
; File E:\Proyectos\JuegosOnlineproyectos\PB\pbblow\Piercing Blow Remake\i3Server\include\i3Base\tinyxml.h
;	COMDAT ?VisitEnter@TiXmlVisitor@@UAE_NABVTiXmlDocument@@@Z
_TEXT	SEGMENT
___formal$ = 8						; size = 4
?VisitEnter@TiXmlVisitor@@UAE_NABVTiXmlDocument@@@Z PROC ; TiXmlVisitor::VisitEnter, COMDAT
; _this$ = ecx

; 138  : 	virtual bool VisitEnter( const TiXmlDocument& /*doc*/ )			{ return true; }

  00000	b0 01		 mov	 al, 1
  00002	c2 04 00	 ret	 4
?VisitEnter@TiXmlVisitor@@UAE_NABVTiXmlDocument@@@Z ENDP ; TiXmlVisitor::VisitEnter
_TEXT	ENDS
; Function compile flags: /Ogtp
; File E:\Proyectos\JuegosOnlineproyectos\PB\pbblow\Piercing Blow Remake\i3Server\include\i3Base\tinyxml.h
;	COMDAT ??1TiXmlVisitor@@UAE@XZ
_TEXT	SEGMENT
??1TiXmlVisitor@@UAE@XZ PROC				; TiXmlVisitor::~TiXmlVisitor, COMDAT
; _this$ = ecx

; 135  : 	virtual ~TiXmlVisitor() {}

  00000	c7 01 00 00 00
	00		 mov	 DWORD PTR [ecx], OFFSET ??_7TiXmlVisitor@@6B@
  00006	c3		 ret	 0
??1TiXmlVisitor@@UAE@XZ ENDP				; TiXmlVisitor::~TiXmlVisitor
_TEXT	ENDS
; Function compile flags: /Ogtp
;	COMDAT ??4TiXmlCursor@@QAEAAU0@$$QAU0@@Z
_TEXT	SEGMENT
___that$ = 8						; size = 4
??4TiXmlCursor@@QAEAAU0@$$QAU0@@Z PROC			; TiXmlCursor::operator=, COMDAT
; _this$ = ecx
  00000	55		 push	 ebp
  00001	8b ec		 mov	 ebp, esp
  00003	8b 55 08	 mov	 edx, DWORD PTR ___that$[ebp]
  00006	8b 02		 mov	 eax, DWORD PTR [edx]
  00008	89 01		 mov	 DWORD PTR [ecx], eax
  0000a	8b 42 04	 mov	 eax, DWORD PTR [edx+4]
  0000d	89 41 04	 mov	 DWORD PTR [ecx+4], eax
  00010	8b c1		 mov	 eax, ecx
  00012	5d		 pop	 ebp
  00013	c2 04 00	 ret	 4
??4TiXmlCursor@@QAEAAU0@$$QAU0@@Z ENDP			; TiXmlCursor::operator=
_TEXT	ENDS
; Function compile flags: /Ogtp
;	COMDAT ??4TiXmlCursor@@QAEAAU0@ABU0@@Z
_TEXT	SEGMENT
___that$ = 8						; size = 4
??4TiXmlCursor@@QAEAAU0@ABU0@@Z PROC			; TiXmlCursor::operator=, COMDAT
; _this$ = ecx
  00000	55		 push	 ebp
  00001	8b ec		 mov	 ebp, esp
  00003	8b 45 08	 mov	 eax, DWORD PTR ___that$[ebp]
  00006	8b 10		 mov	 edx, DWORD PTR [eax]
  00008	8b 40 04	 mov	 eax, DWORD PTR [eax+4]
  0000b	89 41 04	 mov	 DWORD PTR [ecx+4], eax
  0000e	8b c1		 mov	 eax, ecx
  00010	89 11		 mov	 DWORD PTR [ecx], edx
  00012	5d		 pop	 ebp
  00013	c2 04 00	 ret	 4
??4TiXmlCursor@@QAEAAU0@ABU0@@Z ENDP			; TiXmlCursor::operator=
_TEXT	ENDS
; Function compile flags: /Ogtp
; File E:\Proyectos\JuegosOnlineproyectos\PB\pbblow\Piercing Blow Remake\i3Server\include\i3Base\tinyxml.h
;	COMDAT ?Clear@TiXmlCursor@@QAEXXZ
_TEXT	SEGMENT
?Clear@TiXmlCursor@@QAEXXZ PROC				; TiXmlCursor::Clear, COMDAT
; _this$ = ecx

; 107  : 	void Clear()		{ row = col = -1; }

  00000	c7 41 04 ff ff
	ff ff		 mov	 DWORD PTR [ecx+4], -1
  00007	c7 01 ff ff ff
	ff		 mov	 DWORD PTR [ecx], -1
  0000d	c3		 ret	 0
?Clear@TiXmlCursor@@QAEXXZ ENDP				; TiXmlCursor::Clear
_TEXT	ENDS
; Function compile flags: /Ogtp
; File E:\Proyectos\JuegosOnlineproyectos\PB\pbblow\Piercing Blow Remake\i3Server\include\i3Base\tinyxml.h
;	COMDAT ??0TiXmlCursor@@QAE@XZ
_TEXT	SEGMENT
??0TiXmlCursor@@QAE@XZ PROC				; TiXmlCursor::TiXmlCursor, COMDAT
; _this$ = ecx

; 107  : 	void Clear()		{ row = col = -1; }

  00000	c7 41 04 ff ff
	ff ff		 mov	 DWORD PTR [ecx+4], -1

; 106  : 	TiXmlCursor()		{ Clear(); }

  00007	8b c1		 mov	 eax, ecx

; 107  : 	void Clear()		{ row = col = -1; }

  00009	c7 01 ff ff ff
	ff		 mov	 DWORD PTR [ecx], -1

; 106  : 	TiXmlCursor()		{ Clear(); }

  0000f	c3		 ret	 0
??0TiXmlCursor@@QAE@XZ ENDP				; TiXmlCursor::TiXmlCursor
_TEXT	ENDS
; Function compile flags: /Ogtp
; File E:\Proyectos\JuegosOnlineproyectos\PB\pbblow\Piercing Blow Remake\i3Server\include\i3Base\tinystr.h
;	COMDAT ?quit@TiXmlString@@AAEXXZ
_TEXT	SEGMENT
?quit@TiXmlString@@AAEXXZ PROC				; TiXmlString::quit, COMDAT
; _this$ = ecx

; 257  : 		if (rep_ != &nullrep_)

  00000	8b 01		 mov	 eax, DWORD PTR [ecx]
  00002	3d 00 00 00 00	 cmp	 eax, OFFSET ?nullrep_@TiXmlString@@0URep@1@A ; TiXmlString::nullrep_
  00007	74 07		 je	 SHORT $LN2@quit

; 258  : 		{
; 259  : 			// The rep_ is really an array of ints. (see the allocator, above).
; 260  : 			// Cast it back before delete, so the compiler won't incorrectly call destructors.
; 261  : 			delete [] ( reinterpret_cast<int*>( rep_ ) );

  00009	50		 push	 eax
  0000a	e8 00 00 00 00	 call	 ??_V@YAXPAX@Z		; operator delete[]
  0000f	59		 pop	 ecx
$LN2@quit:

; 262  : 		}
; 263  : 	}

  00010	c3		 ret	 0
?quit@TiXmlString@@AAEXXZ ENDP				; TiXmlString::quit
_TEXT	ENDS
; Function compile flags: /Ogtp
; File E:\Proyectos\JuegosOnlineproyectos\PB\pbblow\Piercing Blow Remake\i3Server\include\i3Base\tinystr.h
;	COMDAT ?init@TiXmlString@@AAEXII@Z
_TEXT	SEGMENT
_sz$ = 8						; size = 4
_cap$ = 12						; size = 4
?init@TiXmlString@@AAEXII@Z PROC			; TiXmlString::init, COMDAT
; _this$ = ecx

; 234  : 	{

  00000	55		 push	 ebp
  00001	8b ec		 mov	 ebp, esp
  00003	56		 push	 esi
  00004	57		 push	 edi

; 235  : 		if (cap)

  00005	8b 7d 0c	 mov	 edi, DWORD PTR _cap$[ebp]
  00008	8b f1		 mov	 esi, ecx
  0000a	85 ff		 test	 edi, edi
  0000c	74 37		 je	 SHORT $LN2@init

; 236  : 		{
; 237  : 			// Lee: the original form:
; 238  : 			//	rep_ = static_cast<Rep*>(operator new(sizeof(Rep) + cap));
; 239  : 			// doesn't work in some cases of new being overloaded. Switching
; 240  : 			// to the normal allocation, although use an 'int' for systems
; 241  : 			// that are overly picky about structure alignment.
; 242  : 			const size_type bytesNeeded = sizeof(Rep) + cap;
; 243  : 			const size_type intsNeeded = ( bytesNeeded + sizeof(int) - 1 ) / sizeof( int ); 

  0000e	8d 47 0f	 lea	 eax, DWORD PTR [edi+15]

; 244  : 			rep_ = reinterpret_cast<Rep*>( new int[ intsNeeded ] );

  00011	b9 04 00 00 00	 mov	 ecx, 4
  00016	c1 e8 02	 shr	 eax, 2
  00019	f7 e1		 mul	 ecx
  0001b	b9 ff ff ff ff	 mov	 ecx, -1
  00020	0f 42 c1	 cmovb	 eax, ecx
  00023	50		 push	 eax
  00024	e8 00 00 00 00	 call	 ??_U@YAPAXI@Z		; operator new[]

; 245  : 
; 246  : 			rep_->str[ rep_->size = sz ] = '\0';

  00029	8b 4d 08	 mov	 ecx, DWORD PTR _sz$[ebp]
  0002c	83 c4 04	 add	 esp, 4
  0002f	89 06		 mov	 DWORD PTR [esi], eax
  00031	89 08		 mov	 DWORD PTR [eax], ecx
  00033	8b 06		 mov	 eax, DWORD PTR [esi]
  00035	c6 44 08 08 00	 mov	 BYTE PTR [eax+ecx+8], 0

; 247  : 			rep_->capacity = cap;

  0003a	8b 06		 mov	 eax, DWORD PTR [esi]
  0003c	89 78 04	 mov	 DWORD PTR [eax+4], edi
  0003f	5f		 pop	 edi

; 252  : 		}
; 253  : 	}

  00040	5e		 pop	 esi
  00041	5d		 pop	 ebp
  00042	c2 08 00	 ret	 8
$LN2@init:
  00045	5f		 pop	 edi

; 248  : 		}
; 249  : 		else
; 250  : 		{
; 251  : 			rep_ = &nullrep_;

  00046	c7 06 00 00 00
	00		 mov	 DWORD PTR [esi], OFFSET ?nullrep_@TiXmlString@@0URep@1@A ; TiXmlString::nullrep_

; 252  : 		}
; 253  : 	}

  0004c	5e		 pop	 esi
  0004d	5d		 pop	 ebp
  0004e	c2 08 00	 ret	 8
?init@TiXmlString@@AAEXII@Z ENDP			; TiXmlString::init
_TEXT	ENDS
; Function compile flags: /Ogtp
; File E:\Proyectos\JuegosOnlineproyectos\PB\pbblow\Piercing Blow Remake\i3Server\include\i3Base\tinystr.h
;	COMDAT ?finish@TiXmlString@@ABEPADXZ
_TEXT	SEGMENT
?finish@TiXmlString@@ABEPADXZ PROC			; TiXmlString::finish, COMDAT
; _this$ = ecx

; 225  : 	char* finish() const { return rep_->str + rep_->size; }

  00000	8b 09		 mov	 ecx, DWORD PTR [ecx]
  00002	8b 01		 mov	 eax, DWORD PTR [ecx]
  00004	83 c0 08	 add	 eax, 8
  00007	03 c1		 add	 eax, ecx
  00009	c3		 ret	 0
?finish@TiXmlString@@ABEPADXZ ENDP			; TiXmlString::finish
_TEXT	ENDS
; Function compile flags: /Ogtp
; File E:\Proyectos\JuegosOnlineproyectos\PB\pbblow\Piercing Blow Remake\i3Server\include\i3Base\tinystr.h
;	COMDAT ?start@TiXmlString@@ABEPADXZ
_TEXT	SEGMENT
?start@TiXmlString@@ABEPADXZ PROC			; TiXmlString::start, COMDAT
; _this$ = ecx

; 224  : 	char* start() const { return rep_->str; }

  00000	8b 01		 mov	 eax, DWORD PTR [ecx]
  00002	83 c0 08	 add	 eax, 8
  00005	c3		 ret	 0
?start@TiXmlString@@ABEPADXZ ENDP			; TiXmlString::start
_TEXT	ENDS
; Function compile flags: /Ogtp
; File E:\Proyectos\JuegosOnlineproyectos\PB\pbblow\Piercing Blow Remake\i3Server\include\i3Base\tinystr.h
;	COMDAT ?set_size@TiXmlString@@AAEXI@Z
_TEXT	SEGMENT
_sz$ = 8						; size = 4
?set_size@TiXmlString@@AAEXI@Z PROC			; TiXmlString::set_size, COMDAT
; _this$ = ecx

; 223  : 	void set_size(size_type sz) { rep_->str[ rep_->size = sz ] = '\0'; }

  00000	55		 push	 ebp
  00001	8b ec		 mov	 ebp, esp
  00003	8b 01		 mov	 eax, DWORD PTR [ecx]
  00005	8b 55 08	 mov	 edx, DWORD PTR _sz$[ebp]
  00008	89 10		 mov	 DWORD PTR [eax], edx
  0000a	8b 01		 mov	 eax, DWORD PTR [ecx]
  0000c	c6 44 10 08 00	 mov	 BYTE PTR [eax+edx+8], 0
  00011	5d		 pop	 ebp
  00012	c2 04 00	 ret	 4
?set_size@TiXmlString@@AAEXI@Z ENDP			; TiXmlString::set_size
_TEXT	ENDS
; Function compile flags: /Ogtp
; File E:\Proyectos\JuegosOnlineproyectos\PB\pbblow\Piercing Blow Remake\i3Server\include\i3Base\tinystr.h
;	COMDAT ?init@TiXmlString@@AAEXI@Z
_TEXT	SEGMENT
_sz$ = 8						; size = 4
?init@TiXmlString@@AAEXI@Z PROC				; TiXmlString::init, COMDAT
; _this$ = ecx

; 222  : 	void init(size_type sz) { init(sz, sz); }

  00000	55		 push	 ebp
  00001	8b ec		 mov	 ebp, esp
  00003	56		 push	 esi

; 235  : 		if (cap)

  00004	8b 75 08	 mov	 esi, DWORD PTR _sz$[ebp]

; 222  : 	void init(size_type sz) { init(sz, sz); }

  00007	57		 push	 edi
  00008	8b f9		 mov	 edi, ecx

; 235  : 		if (cap)

  0000a	85 f6		 test	 esi, esi
  0000c	74 34		 je	 SHORT $LN4@init

; 236  : 		{
; 237  : 			// Lee: the original form:
; 238  : 			//	rep_ = static_cast<Rep*>(operator new(sizeof(Rep) + cap));
; 239  : 			// doesn't work in some cases of new being overloaded. Switching
; 240  : 			// to the normal allocation, although use an 'int' for systems
; 241  : 			// that are overly picky about structure alignment.
; 242  : 			const size_type bytesNeeded = sizeof(Rep) + cap;
; 243  : 			const size_type intsNeeded = ( bytesNeeded + sizeof(int) - 1 ) / sizeof( int ); 

  0000e	8d 46 0f	 lea	 eax, DWORD PTR [esi+15]

; 244  : 			rep_ = reinterpret_cast<Rep*>( new int[ intsNeeded ] );

  00011	b9 04 00 00 00	 mov	 ecx, 4
  00016	c1 e8 02	 shr	 eax, 2
  00019	f7 e1		 mul	 ecx
  0001b	b9 ff ff ff ff	 mov	 ecx, -1
  00020	0f 42 c1	 cmovb	 eax, ecx
  00023	50		 push	 eax
  00024	e8 00 00 00 00	 call	 ??_U@YAPAXI@Z		; operator new[]
  00029	89 07		 mov	 DWORD PTR [edi], eax
  0002b	83 c4 04	 add	 esp, 4

; 245  : 
; 246  : 			rep_->str[ rep_->size = sz ] = '\0';

  0002e	89 30		 mov	 DWORD PTR [eax], esi
  00030	8b 07		 mov	 eax, DWORD PTR [edi]
  00032	c6 44 30 08 00	 mov	 BYTE PTR [eax+esi+8], 0

; 247  : 			rep_->capacity = cap;

  00037	8b 07		 mov	 eax, DWORD PTR [edi]
  00039	5f		 pop	 edi
  0003a	89 70 04	 mov	 DWORD PTR [eax+4], esi

; 222  : 	void init(size_type sz) { init(sz, sz); }

  0003d	5e		 pop	 esi
  0003e	5d		 pop	 ebp
  0003f	c2 04 00	 ret	 4
$LN4@init:

; 251  : 			rep_ = &nullrep_;

  00042	c7 07 00 00 00
	00		 mov	 DWORD PTR [edi], OFFSET ?nullrep_@TiXmlString@@0URep@1@A ; TiXmlString::nullrep_
  00048	5f		 pop	 edi

; 222  : 	void init(size_type sz) { init(sz, sz); }

  00049	5e		 pop	 esi
  0004a	5d		 pop	 ebp
  0004b	c2 04 00	 ret	 4
?init@TiXmlString@@AAEXI@Z ENDP				; TiXmlString::init
_TEXT	ENDS
; Function compile flags: /Ogtp
; File E:\Proyectos\JuegosOnlineproyectos\PB\pbblow\Piercing Blow Remake\i3Server\include\i3Base\tinystr.h
;	COMDAT ?swap@TiXmlString@@QAEXAAV1@@Z
_TEXT	SEGMENT
_other$ = 8						; size = 4
?swap@TiXmlString@@QAEXAAV1@@Z PROC			; TiXmlString::swap, COMDAT
; _this$ = ecx

; 214  : 	{

  00000	55		 push	 ebp
  00001	8b ec		 mov	 ebp, esp

; 215  : 		Rep* r = rep_;
; 216  : 		rep_ = other.rep_;

  00003	8b 55 08	 mov	 edx, DWORD PTR _other$[ebp]
  00006	56		 push	 esi
  00007	8b 31		 mov	 esi, DWORD PTR [ecx]
  00009	8b 02		 mov	 eax, DWORD PTR [edx]
  0000b	89 01		 mov	 DWORD PTR [ecx], eax

; 217  : 		other.rep_ = r;

  0000d	89 32		 mov	 DWORD PTR [edx], esi
  0000f	5e		 pop	 esi

; 218  : 	}

  00010	5d		 pop	 ebp
  00011	c2 04 00	 ret	 4
?swap@TiXmlString@@QAEXAAV1@@Z ENDP			; TiXmlString::swap
_TEXT	ENDS
; Function compile flags: /Ogtp
; File E:\Proyectos\JuegosOnlineproyectos\PB\pbblow\Piercing Blow Remake\i3Server\include\i3Base\tinystr.h
;	COMDAT ?clear@TiXmlString@@QAEXXZ
_TEXT	SEGMENT
?clear@TiXmlString@@QAEXXZ PROC				; TiXmlString::clear, COMDAT
; _this$ = ecx

; 195  : 	{

  00000	56		 push	 esi
  00001	8b f1		 mov	 esi, ecx

; 257  : 		if (rep_ != &nullrep_)

  00003	8b 06		 mov	 eax, DWORD PTR [esi]
  00005	3d 00 00 00 00	 cmp	 eax, OFFSET ?nullrep_@TiXmlString@@0URep@1@A ; TiXmlString::nullrep_
  0000a	74 09		 je	 SHORT $LN10@clear

; 258  : 		{
; 259  : 			// The rep_ is really an array of ints. (see the allocator, above).
; 260  : 			// Cast it back before delete, so the compiler won't incorrectly call destructors.
; 261  : 			delete [] ( reinterpret_cast<int*>( rep_ ) );

  0000c	50		 push	 eax
  0000d	e8 00 00 00 00	 call	 ??_V@YAXPAX@Z		; operator delete[]
  00012	83 c4 04	 add	 esp, 4
$LN10@clear:

; 196  : 		//Lee:
; 197  : 		//The original was just too strange, though correct:
; 198  : 		//	TiXmlString().swap(*this);
; 199  : 		//Instead use the quit & re-init:
; 200  : 		quit();
; 201  : 		init(0,0);
; 202  : 	}

  00015	c7 06 00 00 00
	00		 mov	 DWORD PTR [esi], OFFSET ?nullrep_@TiXmlString@@0URep@1@A ; TiXmlString::nullrep_
  0001b	5e		 pop	 esi
  0001c	c3		 ret	 0
?clear@TiXmlString@@QAEXXZ ENDP				; TiXmlString::clear
_TEXT	ENDS
; Function compile flags: /Ogtp
; File E:\Proyectos\JuegosOnlineproyectos\PB\pbblow\Piercing Blow Remake\i3Server\include\i3Base\tinystr.h
;	COMDAT ?find@TiXmlString@@QBEIDI@Z
_TEXT	SEGMENT
_tofind$ = 8						; size = 1
_offset$ = 12						; size = 4
?find@TiXmlString@@QBEIDI@Z PROC			; TiXmlString::find, COMDAT
; _this$ = ecx

; 184  : 	{

  00000	55		 push	 ebp
  00001	8b ec		 mov	 ebp, esp

; 185  : 		if (offset >= length()) return npos;

  00003	8b 45 0c	 mov	 eax, DWORD PTR _offset$[ebp]
  00006	56		 push	 esi

; 150  : 	size_type length () const { return rep_->size; }

  00007	8b 31		 mov	 esi, DWORD PTR [ecx]

; 185  : 		if (offset >= length()) return npos;

  00009	3b 06		 cmp	 eax, DWORD PTR [esi]
  0000b	73 1f		 jae	 SHORT $LN3@find

; 186  : 
; 187  : 		for (const char* p = c_str() + offset; *p != '\0'; ++p)

  0000d	83 c0 08	 add	 eax, 8
  00010	03 c6		 add	 eax, esi
  00012	8a 08		 mov	 cl, BYTE PTR [eax]
  00014	84 c9		 test	 cl, cl
  00016	74 14		 je	 SHORT $LN3@find
  00018	8a 55 08	 mov	 dl, BYTE PTR _tofind$[ebp]
  0001b	eb 03 8d 49 00	 npad	 5
$LL4@find:

; 188  : 		{
; 189  : 		   if (*p == tofind) return static_cast< size_type >( p - c_str() );

  00020	3a ca		 cmp	 cl, dl
  00022	74 12		 je	 SHORT $LN15@find

; 186  : 
; 187  : 		for (const char* p = c_str() + offset; *p != '\0'; ++p)

  00024	8a 48 01	 mov	 cl, BYTE PTR [eax+1]
  00027	40		 inc	 eax
  00028	84 c9		 test	 cl, cl
  0002a	75 f4		 jne	 SHORT $LL4@find
$LN3@find:

; 190  : 		}
; 191  : 		return npos;

  0002c	a1 00 00 00 00	 mov	 eax, DWORD PTR ?npos@TiXmlString@@2IB ; TiXmlString::npos
  00031	5e		 pop	 esi

; 192  : 	}

  00032	5d		 pop	 ebp
  00033	c2 08 00	 ret	 8
$LN15@find:

; 188  : 		{
; 189  : 		   if (*p == tofind) return static_cast< size_type >( p - c_str() );

  00036	2b c6		 sub	 eax, esi
  00038	83 e8 08	 sub	 eax, 8
  0003b	5e		 pop	 esi

; 192  : 	}

  0003c	5d		 pop	 ebp
  0003d	c2 08 00	 ret	 8
?find@TiXmlString@@QBEIDI@Z ENDP			; TiXmlString::find
_TEXT	ENDS
; Function compile flags: /Ogtp
; File E:\Proyectos\JuegosOnlineproyectos\PB\pbblow\Piercing Blow Remake\i3Server\include\i3Base\tinystr.h
;	COMDAT ?find@TiXmlString@@QBEID@Z
_TEXT	SEGMENT
_lookup$ = 8						; size = 1
?find@TiXmlString@@QBEID@Z PROC				; TiXmlString::find, COMDAT
; _this$ = ecx

; 178  : 	{

  00000	55		 push	 ebp
  00001	8b ec		 mov	 ebp, esp
  00003	56		 push	 esi

; 150  : 	size_type length () const { return rep_->size; }

  00004	8b 31		 mov	 esi, DWORD PTR [ecx]

; 185  : 		if (offset >= length()) return npos;

  00006	83 3e 00	 cmp	 DWORD PTR [esi], 0
  00009	76 19		 jbe	 SHORT $LN5@find

; 186  : 
; 187  : 		for (const char* p = c_str() + offset; *p != '\0'; ++p)

  0000b	8a 4e 08	 mov	 cl, BYTE PTR [esi+8]

; 144  : 	const char * c_str () const { return rep_->str; }

  0000e	8d 46 08	 lea	 eax, DWORD PTR [esi+8]

; 187  : 		for (const char* p = c_str() + offset; *p != '\0'; ++p)

  00011	84 c9		 test	 cl, cl
  00013	74 0f		 je	 SHORT $LN5@find
  00015	8a 55 08	 mov	 dl, BYTE PTR _lookup$[ebp]
$LL6@find:

; 188  : 		{
; 189  : 		   if (*p == tofind) return static_cast< size_type >( p - c_str() );

  00018	3a ca		 cmp	 cl, dl
  0001a	74 12		 je	 SHORT $LN17@find

; 186  : 
; 187  : 		for (const char* p = c_str() + offset; *p != '\0'; ++p)

  0001c	8a 48 01	 mov	 cl, BYTE PTR [eax+1]
  0001f	40		 inc	 eax
  00020	84 c9		 test	 cl, cl
  00022	75 f4		 jne	 SHORT $LL6@find
$LN5@find:

; 179  : 		return find(lookup, 0);
; 180  : 	}

  00024	a1 00 00 00 00	 mov	 eax, DWORD PTR ?npos@TiXmlString@@2IB ; TiXmlString::npos
  00029	5e		 pop	 esi
  0002a	5d		 pop	 ebp
  0002b	c2 04 00	 ret	 4
$LN17@find:

; 189  : 		   if (*p == tofind) return static_cast< size_type >( p - c_str() );

  0002e	2b c6		 sub	 eax, esi
  00030	83 e8 08	 sub	 eax, 8
  00033	5e		 pop	 esi

; 179  : 		return find(lookup, 0);
; 180  : 	}

  00034	5d		 pop	 ebp
  00035	c2 04 00	 ret	 4
?find@TiXmlString@@QBEID@Z ENDP				; TiXmlString::find
_TEXT	ENDS
; Function compile flags: /Ogtp
; File E:\Proyectos\JuegosOnlineproyectos\PB\pbblow\Piercing Blow Remake\i3Server\include\i3Base\tinystr.h
;	COMDAT ??ATiXmlString@@QBEAADI@Z
_TEXT	SEGMENT
_index$ = 8						; size = 4
??ATiXmlString@@QBEAADI@Z PROC				; TiXmlString::operator[], COMDAT
; _this$ = ecx

; 171  : 	{

  00000	55		 push	 ebp
  00001	8b ec		 mov	 ebp, esp

; 172  : 		I3ASSERT( index < length() );
; 173  : 		return rep_->str[ index ];

  00003	8b 45 08	 mov	 eax, DWORD PTR _index$[ebp]
  00006	83 c0 08	 add	 eax, 8
  00009	03 01		 add	 eax, DWORD PTR [ecx]

; 174  : 	}

  0000b	5d		 pop	 ebp
  0000c	c2 04 00	 ret	 4
??ATiXmlString@@QBEAADI@Z ENDP				; TiXmlString::operator[]
_TEXT	ENDS
; Function compile flags: /Ogtp
; File E:\Proyectos\JuegosOnlineproyectos\PB\pbblow\Piercing Blow Remake\i3Server\include\i3Base\tinystr.h
;	COMDAT ?at@TiXmlString@@QBEABDI@Z
_TEXT	SEGMENT
_index$ = 8						; size = 4
?at@TiXmlString@@QBEABDI@Z PROC				; TiXmlString::at, COMDAT
; _this$ = ecx

; 164  : 	{

  00000	55		 push	 ebp
  00001	8b ec		 mov	 ebp, esp

; 165  : 		I3ASSERT( index < length() );
; 166  : 		return rep_->str[ index ];

  00003	8b 45 08	 mov	 eax, DWORD PTR _index$[ebp]
  00006	83 c0 08	 add	 eax, 8
  00009	03 01		 add	 eax, DWORD PTR [ecx]

; 167  : 	}

  0000b	5d		 pop	 ebp
  0000c	c2 04 00	 ret	 4
?at@TiXmlString@@QBEABDI@Z ENDP				; TiXmlString::at
_TEXT	ENDS
; Function compile flags: /Ogtp
; File E:\Proyectos\JuegosOnlineproyectos\PB\pbblow\Piercing Blow Remake\i3Server\include\i3Base\tinystr.h
;	COMDAT ?capacity@TiXmlString@@QBEIXZ
_TEXT	SEGMENT
?capacity@TiXmlString@@QBEIXZ PROC			; TiXmlString::capacity, COMDAT
; _this$ = ecx

; 159  : 	size_type capacity () const { return rep_->capacity; }

  00000	8b 01		 mov	 eax, DWORD PTR [ecx]
  00002	8b 40 04	 mov	 eax, DWORD PTR [eax+4]
  00005	c3		 ret	 0
?capacity@TiXmlString@@QBEIXZ ENDP			; TiXmlString::capacity
_TEXT	ENDS
; Function compile flags: /Ogtp
; File E:\Proyectos\JuegosOnlineproyectos\PB\pbblow\Piercing Blow Remake\i3Server\include\i3Base\tinystr.h
;	COMDAT ?empty@TiXmlString@@QBE_NXZ
_TEXT	SEGMENT
?empty@TiXmlString@@QBE_NXZ PROC			; TiXmlString::empty, COMDAT
; _this$ = ecx

; 156  : 	bool empty () const { return rep_->size == 0; }

  00000	8b 01		 mov	 eax, DWORD PTR [ecx]
  00002	83 38 00	 cmp	 DWORD PTR [eax], 0
  00005	0f 94 c0	 sete	 al
  00008	c3		 ret	 0
?empty@TiXmlString@@QBE_NXZ ENDP			; TiXmlString::empty
_TEXT	ENDS
; Function compile flags: /Ogtp
; File E:\Proyectos\JuegosOnlineproyectos\PB\pbblow\Piercing Blow Remake\i3Server\include\i3Base\tinystr.h
;	COMDAT ?size@TiXmlString@@QBEIXZ
_TEXT	SEGMENT
?size@TiXmlString@@QBEIXZ PROC				; TiXmlString::size, COMDAT
; _this$ = ecx

; 153  : 	size_type size () const { return rep_->size; }

  00000	8b 01		 mov	 eax, DWORD PTR [ecx]
  00002	8b 00		 mov	 eax, DWORD PTR [eax]
  00004	c3		 ret	 0
?size@TiXmlString@@QBEIXZ ENDP				; TiXmlString::size
_TEXT	ENDS
; Function compile flags: /Ogtp
; File E:\Proyectos\JuegosOnlineproyectos\PB\pbblow\Piercing Blow Remake\i3Server\include\i3Base\tinystr.h
;	COMDAT ?length@TiXmlString@@QBEIXZ
_TEXT	SEGMENT
?length@TiXmlString@@QBEIXZ PROC			; TiXmlString::length, COMDAT
; _this$ = ecx

; 150  : 	size_type length () const { return rep_->size; }

  00000	8b 01		 mov	 eax, DWORD PTR [ecx]
  00002	8b 00		 mov	 eax, DWORD PTR [eax]
  00004	c3		 ret	 0
?length@TiXmlString@@QBEIXZ ENDP			; TiXmlString::length
_TEXT	ENDS
; Function compile flags: /Ogtp
; File E:\Proyectos\JuegosOnlineproyectos\PB\pbblow\Piercing Blow Remake\i3Server\include\i3Base\tinystr.h
;	COMDAT ?data@TiXmlString@@QBEPBDXZ
_TEXT	SEGMENT
?data@TiXmlString@@QBEPBDXZ PROC			; TiXmlString::data, COMDAT
; _this$ = ecx

; 147  : 	const char * data () const { return rep_->str; }

  00000	8b 01		 mov	 eax, DWORD PTR [ecx]
  00002	83 c0 08	 add	 eax, 8
  00005	c3		 ret	 0
?data@TiXmlString@@QBEPBDXZ ENDP			; TiXmlString::data
_TEXT	ENDS
; Function compile flags: /Ogtp
; File E:\Proyectos\JuegosOnlineproyectos\PB\pbblow\Piercing Blow Remake\i3Server\include\i3Base\tinystr.h
;	COMDAT ?c_str@TiXmlString@@QBEPBDXZ
_TEXT	SEGMENT
?c_str@TiXmlString@@QBEPBDXZ PROC			; TiXmlString::c_str, COMDAT
; _this$ = ecx

; 144  : 	const char * c_str () const { return rep_->str; }

  00000	8b 01		 mov	 eax, DWORD PTR [ecx]
  00002	83 c0 08	 add	 eax, 8
  00005	c3		 ret	 0
?c_str@TiXmlString@@QBEPBDXZ ENDP			; TiXmlString::c_str
_TEXT	ENDS
; Function compile flags: /Ogtp
; File E:\Proyectos\JuegosOnlineproyectos\PB\pbblow\Piercing Blow Remake\i3Server\include\i3Base\tinystr.h
;	COMDAT ??YTiXmlString@@QAEAAV0@ABV0@@Z
_TEXT	SEGMENT
_suffix$ = 8						; size = 4
??YTiXmlString@@QAEAAV0@ABV0@@Z PROC			; TiXmlString::operator+=, COMDAT
; _this$ = ecx

; 138  : 	{

  00000	55		 push	 ebp
  00001	8b ec		 mov	 ebp, esp

; 150  : 	size_type length () const { return rep_->size; }

  00003	8b 45 08	 mov	 eax, DWORD PTR _suffix$[ebp]
  00006	8b 00		 mov	 eax, DWORD PTR [eax]

; 139  : 		return append(suffix.data(), suffix.length());

  00008	ff 30		 push	 DWORD PTR [eax]

; 147  : 	const char * data () const { return rep_->str; }

  0000a	83 c0 08	 add	 eax, 8

; 139  : 		return append(suffix.data(), suffix.length());

  0000d	50		 push	 eax
  0000e	e8 00 00 00 00	 call	 ?append@TiXmlString@@QAEAAV1@PBDI@Z ; TiXmlString::append

; 140  : 	}

  00013	5d		 pop	 ebp
  00014	c2 04 00	 ret	 4
??YTiXmlString@@QAEAAV0@ABV0@@Z ENDP			; TiXmlString::operator+=
_TEXT	ENDS
; Function compile flags: /Ogtp
; File E:\Proyectos\JuegosOnlineproyectos\PB\pbblow\Piercing Blow Remake\i3Server\include\i3Base\tinystr.h
;	COMDAT ??YTiXmlString@@QAEAAV0@D@Z
_TEXT	SEGMENT
_single$ = 8						; size = 1
??YTiXmlString@@QAEAAV0@D@Z PROC			; TiXmlString::operator+=, COMDAT
; _this$ = ecx

; 132  : 	{

  00000	55		 push	 ebp
  00001	8b ec		 mov	 ebp, esp

; 133  : 		return append(&single, 1);

  00003	6a 01		 push	 1
  00005	8d 45 08	 lea	 eax, DWORD PTR _single$[ebp]
  00008	50		 push	 eax
  00009	e8 00 00 00 00	 call	 ?append@TiXmlString@@QAEAAV1@PBDI@Z ; TiXmlString::append

; 134  : 	}

  0000e	5d		 pop	 ebp
  0000f	c2 04 00	 ret	 4
??YTiXmlString@@QAEAAV0@D@Z ENDP			; TiXmlString::operator+=
_TEXT	ENDS
; Function compile flags: /Ogtp
; File E:\Proyectos\JuegosOnlineproyectos\PB\pbblow\Piercing Blow Remake\i3Server\include\i3Base\tinystr.h
;	COMDAT ??YTiXmlString@@QAEAAV0@PBD@Z
_TEXT	SEGMENT
_suffix$ = 8						; size = 4
??YTiXmlString@@QAEAAV0@PBD@Z PROC			; TiXmlString::operator+=, COMDAT
; _this$ = ecx

; 126  : 	{

  00000	55		 push	 ebp
  00001	8b ec		 mov	 ebp, esp

; 127  : 		return append(suffix, static_cast<size_type>( strlen(suffix) ));

  00003	8b 55 08	 mov	 edx, DWORD PTR _suffix$[ebp]
  00006	8b c2		 mov	 eax, edx
  00008	56		 push	 esi
  00009	57		 push	 edi
  0000a	8b f1		 mov	 esi, ecx
  0000c	8d 78 01	 lea	 edi, DWORD PTR [eax+1]
  0000f	90		 npad	 1
$LL3@operator:
  00010	8a 08		 mov	 cl, BYTE PTR [eax]
  00012	40		 inc	 eax
  00013	84 c9		 test	 cl, cl
  00015	75 f9		 jne	 SHORT $LL3@operator
  00017	2b c7		 sub	 eax, edi
  00019	8b ce		 mov	 ecx, esi
  0001b	50		 push	 eax
  0001c	52		 push	 edx
  0001d	e8 00 00 00 00	 call	 ?append@TiXmlString@@QAEAAV1@PBDI@Z ; TiXmlString::append
  00022	5f		 pop	 edi
  00023	5e		 pop	 esi

; 128  : 	}

  00024	5d		 pop	 ebp
  00025	c2 04 00	 ret	 4
??YTiXmlString@@QAEAAV0@PBD@Z ENDP			; TiXmlString::operator+=
_TEXT	ENDS
; Function compile flags: /Ogtp
; File E:\Proyectos\JuegosOnlineproyectos\PB\pbblow\Piercing Blow Remake\i3Server\include\i3Base\tinystr.h
;	COMDAT ??4TiXmlString@@QAEAAV0@ABV0@@Z
_TEXT	SEGMENT
_copy$ = 8						; size = 4
??4TiXmlString@@QAEAAV0@ABV0@@Z PROC			; TiXmlString::operator=, COMDAT
; _this$ = ecx

; 119  : 	{

  00000	55		 push	 ebp
  00001	8b ec		 mov	 ebp, esp

; 150  : 	size_type length () const { return rep_->size; }

  00003	8b 45 08	 mov	 eax, DWORD PTR _copy$[ebp]
  00006	8b 00		 mov	 eax, DWORD PTR [eax]

; 120  : 		return assign(copy.start(), copy.length());

  00008	ff 30		 push	 DWORD PTR [eax]

; 224  : 	char* start() const { return rep_->str; }

  0000a	83 c0 08	 add	 eax, 8

; 120  : 		return assign(copy.start(), copy.length());

  0000d	50		 push	 eax
  0000e	e8 00 00 00 00	 call	 ?assign@TiXmlString@@QAEAAV1@PBDI@Z ; TiXmlString::assign

; 121  : 	}

  00013	5d		 pop	 ebp
  00014	c2 04 00	 ret	 4
??4TiXmlString@@QAEAAV0@ABV0@@Z ENDP			; TiXmlString::operator=
_TEXT	ENDS
; Function compile flags: /Ogtp
; File E:\Proyectos\JuegosOnlineproyectos\PB\pbblow\Piercing Blow Remake\i3Server\include\i3Base\tinystr.h
;	COMDAT ??4TiXmlString@@QAEAAV0@PBD@Z
_TEXT	SEGMENT
_copy$ = 8						; size = 4
??4TiXmlString@@QAEAAV0@PBD@Z PROC			; TiXmlString::operator=, COMDAT
; _this$ = ecx

; 113  : 	{

  00000	55		 push	 ebp
  00001	8b ec		 mov	 ebp, esp

; 114  : 		return assign( copy, (size_type)strlen(copy));

  00003	8b 55 08	 mov	 edx, DWORD PTR _copy$[ebp]
  00006	8b c2		 mov	 eax, edx
  00008	56		 push	 esi
  00009	57		 push	 edi
  0000a	8b f1		 mov	 esi, ecx
  0000c	8d 78 01	 lea	 edi, DWORD PTR [eax+1]
  0000f	90		 npad	 1
$LL3@operator:
  00010	8a 08		 mov	 cl, BYTE PTR [eax]
  00012	40		 inc	 eax
  00013	84 c9		 test	 cl, cl
  00015	75 f9		 jne	 SHORT $LL3@operator
  00017	2b c7		 sub	 eax, edi
  00019	8b ce		 mov	 ecx, esi
  0001b	50		 push	 eax
  0001c	52		 push	 edx
  0001d	e8 00 00 00 00	 call	 ?assign@TiXmlString@@QAEAAV1@PBDI@Z ; TiXmlString::assign
  00022	5f		 pop	 edi
  00023	5e		 pop	 esi

; 115  : 	}

  00024	5d		 pop	 ebp
  00025	c2 04 00	 ret	 4
??4TiXmlString@@QAEAAV0@PBD@Z ENDP			; TiXmlString::operator=
_TEXT	ENDS
; Function compile flags: /Ogtp
; File E:\Proyectos\JuegosOnlineproyectos\PB\pbblow\Piercing Blow Remake\i3Server\include\i3Base\tinystr.h
;	COMDAT ??1TiXmlString@@QAE@XZ
_TEXT	SEGMENT
??1TiXmlString@@QAE@XZ PROC				; TiXmlString::~TiXmlString, COMDAT
; _this$ = ecx

; 257  : 		if (rep_ != &nullrep_)

  00000	8b 01		 mov	 eax, DWORD PTR [ecx]
  00002	3d 00 00 00 00	 cmp	 eax, OFFSET ?nullrep_@TiXmlString@@0URep@1@A ; TiXmlString::nullrep_
  00007	74 07		 je	 SHORT $LN5@TiXmlStrin

; 258  : 		{
; 259  : 			// The rep_ is really an array of ints. (see the allocator, above).
; 260  : 			// Cast it back before delete, so the compiler won't incorrectly call destructors.
; 261  : 			delete [] ( reinterpret_cast<int*>( rep_ ) );

  00009	50		 push	 eax
  0000a	e8 00 00 00 00	 call	 ??_V@YAXPAX@Z		; operator delete[]
  0000f	59		 pop	 ecx
$LN5@TiXmlStrin:

; 108  : 		quit();
; 109  : 	}

  00010	c3		 ret	 0
??1TiXmlString@@QAE@XZ ENDP				; TiXmlString::~TiXmlString
_TEXT	ENDS
; Function compile flags: /Ogtp
; File E:\Proyectos\JuegosOnlineproyectos\PB\pbblow\Piercing Blow Remake\i3Server\include\i3Base\tinystr.h
;	COMDAT ??0TiXmlString@@QAE@PBDI@Z
_TEXT	SEGMENT
_str$ = 8						; size = 4
_len$ = 12						; size = 4
??0TiXmlString@@QAE@PBDI@Z PROC				; TiXmlString::TiXmlString, COMDAT
; _this$ = ecx

; 100  : 	{

  00000	55		 push	 ebp
  00001	8b ec		 mov	 ebp, esp
  00003	56		 push	 esi
  00004	8b f1		 mov	 esi, ecx
  00006	57		 push	 edi

; 235  : 		if (cap)

  00007	8b 7d 0c	 mov	 edi, DWORD PTR _len$[ebp]

; 99   : 	TIXML_EXPLICIT TiXmlString ( const char * str, size_type len) : rep_(0)

  0000a	c7 06 00 00 00
	00		 mov	 DWORD PTR [esi], 0

; 235  : 		if (cap)

  00010	85 ff		 test	 edi, edi
  00012	74 30		 je	 SHORT $LN6@TiXmlStrin

; 236  : 		{
; 237  : 			// Lee: the original form:
; 238  : 			//	rep_ = static_cast<Rep*>(operator new(sizeof(Rep) + cap));
; 239  : 			// doesn't work in some cases of new being overloaded. Switching
; 240  : 			// to the normal allocation, although use an 'int' for systems
; 241  : 			// that are overly picky about structure alignment.
; 242  : 			const size_type bytesNeeded = sizeof(Rep) + cap;
; 243  : 			const size_type intsNeeded = ( bytesNeeded + sizeof(int) - 1 ) / sizeof( int ); 

  00014	8d 47 0f	 lea	 eax, DWORD PTR [edi+15]

; 244  : 			rep_ = reinterpret_cast<Rep*>( new int[ intsNeeded ] );

  00017	b9 04 00 00 00	 mov	 ecx, 4
  0001c	c1 e8 02	 shr	 eax, 2
  0001f	f7 e1		 mul	 ecx
  00021	b9 ff ff ff ff	 mov	 ecx, -1
  00026	0f 42 c1	 cmovb	 eax, ecx
  00029	50		 push	 eax
  0002a	e8 00 00 00 00	 call	 ??_U@YAPAXI@Z		; operator new[]
  0002f	89 06		 mov	 DWORD PTR [esi], eax
  00031	83 c4 04	 add	 esp, 4

; 245  : 
; 246  : 			rep_->str[ rep_->size = sz ] = '\0';

  00034	89 38		 mov	 DWORD PTR [eax], edi
  00036	8b 06		 mov	 eax, DWORD PTR [esi]
  00038	c6 44 38 08 00	 mov	 BYTE PTR [eax+edi+8], 0

; 247  : 			rep_->capacity = cap;

  0003d	8b 06		 mov	 eax, DWORD PTR [esi]
  0003f	89 78 04	 mov	 DWORD PTR [eax+4], edi

; 248  : 		}

  00042	eb 06		 jmp	 SHORT $LN7@TiXmlStrin
$LN6@TiXmlStrin:

; 249  : 		else
; 250  : 		{
; 251  : 			rep_ = &nullrep_;

  00044	c7 06 00 00 00
	00		 mov	 DWORD PTR [esi], OFFSET ?nullrep_@TiXmlString@@0URep@1@A ; TiXmlString::nullrep_
$LN7@TiXmlStrin:

; 224  : 	char* start() const { return rep_->str; }

  0004a	8b 06		 mov	 eax, DWORD PTR [esi]

; 101  : 		init(len);
; 102  : 		memcpy(start(), str, len);

  0004c	57		 push	 edi
  0004d	ff 75 08	 push	 DWORD PTR _str$[ebp]

; 224  : 	char* start() const { return rep_->str; }

  00050	83 c0 08	 add	 eax, 8

; 101  : 		init(len);
; 102  : 		memcpy(start(), str, len);

  00053	50		 push	 eax
  00054	e8 00 00 00 00	 call	 _memcpy
  00059	83 c4 0c	 add	 esp, 12			; 0000000cH

; 103  : 	}

  0005c	8b c6		 mov	 eax, esi
  0005e	5f		 pop	 edi
  0005f	5e		 pop	 esi
  00060	5d		 pop	 ebp
  00061	c2 08 00	 ret	 8
??0TiXmlString@@QAE@PBDI@Z ENDP				; TiXmlString::TiXmlString
_TEXT	ENDS
; Function compile flags: /Ogtp
; File E:\Proyectos\JuegosOnlineproyectos\PB\pbblow\Piercing Blow Remake\i3Server\include\i3Base\tinystr.h
;	COMDAT ??0TiXmlString@@QAE@PBD@Z
_TEXT	SEGMENT
_copy$ = 8						; size = 4
??0TiXmlString@@QAE@PBD@Z PROC				; TiXmlString::TiXmlString, COMDAT
; _this$ = ecx

; 93   : 	{

  00000	55		 push	 ebp
  00001	8b ec		 mov	 ebp, esp
  00003	56		 push	 esi

; 94   : 		init( static_cast<size_type>( strlen(copy) ));

  00004	8b 75 08	 mov	 esi, DWORD PTR _copy$[ebp]
  00007	57		 push	 edi
  00008	8b f9		 mov	 edi, ecx
  0000a	8d 4e 01	 lea	 ecx, DWORD PTR [esi+1]
  0000d	c7 07 00 00 00
	00		 mov	 DWORD PTR [edi], 0
$LL13@TiXmlStrin:
  00013	8a 06		 mov	 al, BYTE PTR [esi]
  00015	46		 inc	 esi
  00016	84 c0		 test	 al, al
  00018	75 f9		 jne	 SHORT $LL13@TiXmlStrin
  0001a	2b f1		 sub	 esi, ecx

; 235  : 		if (cap)

  0001c	74 30		 je	 SHORT $LN6@TiXmlStrin

; 236  : 		{
; 237  : 			// Lee: the original form:
; 238  : 			//	rep_ = static_cast<Rep*>(operator new(sizeof(Rep) + cap));
; 239  : 			// doesn't work in some cases of new being overloaded. Switching
; 240  : 			// to the normal allocation, although use an 'int' for systems
; 241  : 			// that are overly picky about structure alignment.
; 242  : 			const size_type bytesNeeded = sizeof(Rep) + cap;
; 243  : 			const size_type intsNeeded = ( bytesNeeded + sizeof(int) - 1 ) / sizeof( int ); 

  0001e	8d 46 0f	 lea	 eax, DWORD PTR [esi+15]

; 244  : 			rep_ = reinterpret_cast<Rep*>( new int[ intsNeeded ] );

  00021	b9 04 00 00 00	 mov	 ecx, 4
  00026	c1 e8 02	 shr	 eax, 2
  00029	f7 e1		 mul	 ecx
  0002b	b9 ff ff ff ff	 mov	 ecx, -1
  00030	0f 42 c1	 cmovb	 eax, ecx
  00033	50		 push	 eax
  00034	e8 00 00 00 00	 call	 ??_U@YAPAXI@Z		; operator new[]
  00039	89 07		 mov	 DWORD PTR [edi], eax
  0003b	83 c4 04	 add	 esp, 4

; 245  : 
; 246  : 			rep_->str[ rep_->size = sz ] = '\0';

  0003e	89 30		 mov	 DWORD PTR [eax], esi
  00040	8b 07		 mov	 eax, DWORD PTR [edi]
  00042	c6 44 30 08 00	 mov	 BYTE PTR [eax+esi+8], 0

; 247  : 			rep_->capacity = cap;

  00047	8b 07		 mov	 eax, DWORD PTR [edi]
  00049	89 70 04	 mov	 DWORD PTR [eax+4], esi

; 248  : 		}

  0004c	eb 06		 jmp	 SHORT $LN7@TiXmlStrin
$LN6@TiXmlStrin:

; 249  : 		else
; 250  : 		{
; 251  : 			rep_ = &nullrep_;

  0004e	c7 07 00 00 00
	00		 mov	 DWORD PTR [edi], OFFSET ?nullrep_@TiXmlString@@0URep@1@A ; TiXmlString::nullrep_
$LN7@TiXmlStrin:

; 150  : 	size_type length () const { return rep_->size; }

  00054	8b 07		 mov	 eax, DWORD PTR [edi]

; 95   : 		memcpy(start(), copy, length());

  00056	ff 30		 push	 DWORD PTR [eax]

; 224  : 	char* start() const { return rep_->str; }

  00058	83 c0 08	 add	 eax, 8

; 95   : 		memcpy(start(), copy, length());

  0005b	ff 75 08	 push	 DWORD PTR _copy$[ebp]
  0005e	50		 push	 eax
  0005f	e8 00 00 00 00	 call	 _memcpy
  00064	83 c4 0c	 add	 esp, 12			; 0000000cH

; 96   : 	}

  00067	8b c7		 mov	 eax, edi
  00069	5f		 pop	 edi
  0006a	5e		 pop	 esi
  0006b	5d		 pop	 ebp
  0006c	c2 04 00	 ret	 4
??0TiXmlString@@QAE@PBD@Z ENDP				; TiXmlString::TiXmlString
_TEXT	ENDS
; Function compile flags: /Ogtp
; File E:\Proyectos\JuegosOnlineproyectos\PB\pbblow\Piercing Blow Remake\i3Server\include\i3Base\tinystr.h
;	COMDAT ??0TiXmlString@@QAE@ABV0@@Z
_TEXT	SEGMENT
_copy$ = 8						; size = 4
??0TiXmlString@@QAE@ABV0@@Z PROC			; TiXmlString::TiXmlString, COMDAT
; _this$ = ecx

; 86   : 	{

  00000	55		 push	 ebp
  00001	8b ec		 mov	 ebp, esp
  00003	53		 push	 ebx

; 150  : 	size_type length () const { return rep_->size; }

  00004	8b 5d 08	 mov	 ebx, DWORD PTR _copy$[ebp]

; 86   : 	{

  00007	56		 push	 esi
  00008	8b f1		 mov	 esi, ecx
  0000a	57		 push	 edi
  0000b	c7 06 00 00 00
	00		 mov	 DWORD PTR [esi], 0

; 150  : 	size_type length () const { return rep_->size; }

  00011	8b 03		 mov	 eax, DWORD PTR [ebx]

; 87   : 		init(copy.length());

  00013	8b 38		 mov	 edi, DWORD PTR [eax]

; 235  : 		if (cap)

  00015	85 ff		 test	 edi, edi
  00017	74 30		 je	 SHORT $LN8@TiXmlStrin

; 236  : 		{
; 237  : 			// Lee: the original form:
; 238  : 			//	rep_ = static_cast<Rep*>(operator new(sizeof(Rep) + cap));
; 239  : 			// doesn't work in some cases of new being overloaded. Switching
; 240  : 			// to the normal allocation, although use an 'int' for systems
; 241  : 			// that are overly picky about structure alignment.
; 242  : 			const size_type bytesNeeded = sizeof(Rep) + cap;
; 243  : 			const size_type intsNeeded = ( bytesNeeded + sizeof(int) - 1 ) / sizeof( int ); 

  00019	8d 47 0f	 lea	 eax, DWORD PTR [edi+15]

; 244  : 			rep_ = reinterpret_cast<Rep*>( new int[ intsNeeded ] );

  0001c	b9 04 00 00 00	 mov	 ecx, 4
  00021	c1 e8 02	 shr	 eax, 2
  00024	f7 e1		 mul	 ecx
  00026	b9 ff ff ff ff	 mov	 ecx, -1
  0002b	0f 42 c1	 cmovb	 eax, ecx
  0002e	50		 push	 eax
  0002f	e8 00 00 00 00	 call	 ??_U@YAPAXI@Z		; operator new[]
  00034	89 06		 mov	 DWORD PTR [esi], eax
  00036	83 c4 04	 add	 esp, 4

; 245  : 
; 246  : 			rep_->str[ rep_->size = sz ] = '\0';

  00039	89 38		 mov	 DWORD PTR [eax], edi
  0003b	8b 06		 mov	 eax, DWORD PTR [esi]
  0003d	c6 44 38 08 00	 mov	 BYTE PTR [eax+edi+8], 0

; 247  : 			rep_->capacity = cap;

  00042	8b 06		 mov	 eax, DWORD PTR [esi]
  00044	89 78 04	 mov	 DWORD PTR [eax+4], edi

; 248  : 		}

  00047	eb 06		 jmp	 SHORT $LN9@TiXmlStrin
$LN8@TiXmlStrin:

; 249  : 		else
; 250  : 		{
; 251  : 			rep_ = &nullrep_;

  00049	c7 06 00 00 00
	00		 mov	 DWORD PTR [esi], OFFSET ?nullrep_@TiXmlString@@0URep@1@A ; TiXmlString::nullrep_
$LN9@TiXmlStrin:

; 150  : 	size_type length () const { return rep_->size; }

  0004f	8b 0e		 mov	 ecx, DWORD PTR [esi]

; 147  : 	const char * data () const { return rep_->str; }

  00051	8b 03		 mov	 eax, DWORD PTR [ebx]
  00053	83 c0 08	 add	 eax, 8

; 88   : 		memcpy(start(), copy.data(), length());

  00056	ff 31		 push	 DWORD PTR [ecx]
  00058	50		 push	 eax

; 224  : 	char* start() const { return rep_->str; }

  00059	8d 41 08	 lea	 eax, DWORD PTR [ecx+8]

; 88   : 		memcpy(start(), copy.data(), length());

  0005c	50		 push	 eax
  0005d	e8 00 00 00 00	 call	 _memcpy
  00062	83 c4 0c	 add	 esp, 12			; 0000000cH

; 89   : 	}

  00065	8b c6		 mov	 eax, esi
  00067	5f		 pop	 edi
  00068	5e		 pop	 esi
  00069	5b		 pop	 ebx
  0006a	5d		 pop	 ebp
  0006b	c2 04 00	 ret	 4
??0TiXmlString@@QAE@ABV0@@Z ENDP			; TiXmlString::TiXmlString
_TEXT	ENDS
; Function compile flags: /Ogtp
; File E:\Proyectos\JuegosOnlineproyectos\PB\pbblow\Piercing Blow Remake\i3Server\include\i3Base\tinystr.h
;	COMDAT ??0TiXmlString@@QAE@XZ
_TEXT	SEGMENT
??0TiXmlString@@QAE@XZ PROC				; TiXmlString::TiXmlString, COMDAT
; _this$ = ecx

; 80   : 	TiXmlString () : rep_(&nullrep_)

  00000	c7 01 00 00 00
	00		 mov	 DWORD PTR [ecx], OFFSET ?nullrep_@TiXmlString@@0URep@1@A ; TiXmlString::nullrep_

; 82   : 	}

  00006	8b c1		 mov	 eax, ecx
  00008	c3		 ret	 0
??0TiXmlString@@QAE@XZ ENDP				; TiXmlString::TiXmlString
_TEXT	ENDS
; Function compile flags: /Ogtp
; File E:\Proyectos\JuegosOnlineproyectos\PB\pbblow\Piercing Blow Remake\i3Server\src\i3Base\tinyxmlparser.cpp
;	COMDAT ??_Ei3FileStream@@UAEPAXI@Z
_TEXT	SEGMENT
__$EHRec$ = -12						; size = 12
___flags$ = 8						; size = 4
??_Ei3FileStream@@UAEPAXI@Z PROC			; i3FileStream::`vector deleting destructor', COMDAT
; _this$ = ecx
  00000	55		 push	 ebp
  00001	8b ec		 mov	 ebp, esp
  00003	6a ff		 push	 -1
  00005	68 00 00 00 00	 push	 __ehhandler$??_Ei3FileStream@@UAEPAXI@Z
  0000a	64 a1 00 00 00
	00		 mov	 eax, DWORD PTR fs:0
  00010	50		 push	 eax
  00011	53		 push	 ebx
  00012	56		 push	 esi
  00013	57		 push	 edi
  00014	a1 00 00 00 00	 mov	 eax, DWORD PTR ___security_cookie
  00019	33 c5		 xor	 eax, ebp
  0001b	50		 push	 eax
  0001c	8d 45 f4	 lea	 eax, DWORD PTR __$EHRec$[ebp]
  0001f	64 a3 00 00 00
	00		 mov	 DWORD PTR fs:0, eax
  00025	8b f1		 mov	 esi, ecx
  00027	8b 5d 08	 mov	 ebx, DWORD PTR ___flags$[ebp]
  0002a	8b fb		 mov	 edi, ebx
  0002c	83 e7 01	 and	 edi, 1
  0002f	f6 c3 02	 test	 bl, 2
  00032	74 43		 je	 SHORT $LN2@vector
  00034	68 00 00 00 00	 push	 OFFSET ??1i3FileStream@@UAE@XZ ; i3FileStream::~i3FileStream
  00039	ff 76 fc	 push	 DWORD PTR [esi-4]
  0003c	8d 5e fc	 lea	 ebx, DWORD PTR [esi-4]
  0003f	68 38 01 00 00	 push	 312			; 00000138H
  00044	56		 push	 esi
  00045	e8 00 00 00 00	 call	 ??_M@YGXPAXIIP6EX0@Z@Z
  0004a	85 ff		 test	 edi, edi
  0004c	74 13		 je	 SHORT $LN3@vector
  0004e	69 0b 38 01 00
	00		 imul	 ecx, DWORD PTR [ebx], 312
  00054	83 c1 04	 add	 ecx, 4
  00057	51		 push	 ecx
  00058	53		 push	 ebx
  00059	e8 00 00 00 00	 call	 ??_V@YAXPAXI@Z		; operator delete[]
  0005e	83 c4 08	 add	 esp, 8
$LN3@vector:
  00061	8b c3		 mov	 eax, ebx
  00063	8b 4d f4	 mov	 ecx, DWORD PTR __$EHRec$[ebp]
  00066	64 89 0d 00 00
	00 00		 mov	 DWORD PTR fs:0, ecx
  0006d	59		 pop	 ecx
  0006e	5f		 pop	 edi
  0006f	5e		 pop	 esi
  00070	5b		 pop	 ebx
  00071	8b e5		 mov	 esp, ebp
  00073	5d		 pop	 ebp
  00074	c2 04 00	 ret	 4
$LN2@vector:
  00077	e8 00 00 00 00	 call	 ??1i3FileStream@@UAE@XZ	; i3FileStream::~i3FileStream
  0007c	85 ff		 test	 edi, edi
  0007e	74 1e		 je	 SHORT $LN6@vector
  00080	f6 c3 04	 test	 bl, 4
  00083	75 0b		 jne	 SHORT $LN5@vector
  00085	56		 push	 esi
  00086	e8 00 00 00 00	 call	 ??3i3ElementBase@@SAXPAX@Z ; i3ElementBase::operator delete
  0008b	83 c4 04	 add	 esp, 4
  0008e	eb 0e		 jmp	 SHORT $LN6@vector
$LN5@vector:

  00090	68 38 01 00 00	 push	 312			; 00000138H
  00095	56		 push	 esi
  00096	e8 00 00 00 00	 call	 ??3@YAXPAXI@Z		; operator delete
  0009b	83 c4 08	 add	 esp, 8
$LN6@vector:
  0009e	8b c6		 mov	 eax, esi
  000a0	8b 4d f4	 mov	 ecx, DWORD PTR __$EHRec$[ebp]
  000a3	64 89 0d 00 00
	00 00		 mov	 DWORD PTR fs:0, ecx
  000aa	59		 pop	 ecx
  000ab	5f		 pop	 edi
  000ac	5e		 pop	 esi
  000ad	5b		 pop	 ebx
  000ae	8b e5		 mov	 esp, ebp
  000b0	5d		 pop	 ebp
  000b1	c2 04 00	 ret	 4
  000b4	cc		 int	 3
  000b5	cc		 int	 3
  000b6	cc		 int	 3
  000b7	cc		 int	 3
  000b8	cc		 int	 3
_TEXT	ENDS
;	COMDAT text$x
text$x	SEGMENT
__ehhandler$??_Ei3FileStream@@UAEPAXI@Z:
  00000	90		 npad	 1
  00001	90		 npad	 1
  00002	8b 54 24 08	 mov	 edx, DWORD PTR [esp+8]
  00006	8d 42 0c	 lea	 eax, DWORD PTR [edx+12]
  00009	8b 4a f0	 mov	 ecx, DWORD PTR [edx-16]
  0000c	33 c8		 xor	 ecx, eax
  0000e	e8 00 00 00 00	 call	 @__security_check_cookie@4
  00013	b8 00 00 00 00	 mov	 eax, OFFSET __ehfuncinfo$??_Ei3FileStream@@UAEPAXI@Z
  00018	e9 00 00 00 00	 jmp	 ___CxxFrameHandler3
text$x	ENDS
??_Ei3FileStream@@UAEPAXI@Z ENDP			; i3FileStream::`vector deleting destructor'
; Function compile flags: /Ogtp
; File E:\Proyectos\JuegosOnlineproyectos\PB\pbblow\Piercing Blow Remake\i3Server\src\i3Base\tinyxmlparser.cpp
;	COMDAT ??_Gi3FileStream@@UAEPAXI@Z
_TEXT	SEGMENT
___flags$ = 8						; size = 4
??_Gi3FileStream@@UAEPAXI@Z PROC			; i3FileStream::`scalar deleting destructor', COMDAT
; _this$ = ecx
  00000	55		 push	 ebp
  00001	8b ec		 mov	 ebp, esp
  00003	56		 push	 esi
  00004	8b f1		 mov	 esi, ecx
  00006	e8 00 00 00 00	 call	 ??1i3FileStream@@UAE@XZ	; i3FileStream::~i3FileStream
  0000b	8b 45 08	 mov	 eax, DWORD PTR ___flags$[ebp]
  0000e	a8 01		 test	 al, 1
  00010	74 22		 je	 SHORT $LN10@scalar
  00012	a8 04		 test	 al, 4
  00014	75 10		 jne	 SHORT $LN3@scalar
  00016	56		 push	 esi
  00017	e8 00 00 00 00	 call	 ??3i3ElementBase@@SAXPAX@Z ; i3ElementBase::operator delete
  0001c	83 c4 04	 add	 esp, 4
  0001f	8b c6		 mov	 eax, esi
  00021	5e		 pop	 esi
  00022	5d		 pop	 ebp
  00023	c2 04 00	 ret	 4
$LN3@scalar:

  00026	68 38 01 00 00	 push	 312			; 00000138H
  0002b	56		 push	 esi
  0002c	e8 00 00 00 00	 call	 ??3@YAXPAXI@Z		; operator delete
  00031	83 c4 08	 add	 esp, 8
$LN10@scalar:
  00034	8b c6		 mov	 eax, esi
  00036	5e		 pop	 esi
  00037	5d		 pop	 ebp
  00038	c2 04 00	 ret	 4
??_Gi3FileStream@@UAEPAXI@Z ENDP			; i3FileStream::`scalar deleting destructor'
_TEXT	ENDS
; Function compile flags: /Ogtp
;	COMDAT ??4i3FileStream@@QAEAAV0@ABV0@@Z
_TEXT	SEGMENT
___that$ = 8						; size = 4
??4i3FileStream@@QAEAAV0@ABV0@@Z PROC			; i3FileStream::operator=, COMDAT
; _this$ = ecx
  00000	55		 push	 ebp
  00001	8b ec		 mov	 ebp, esp
  00003	8b d1		 mov	 edx, ecx
  00005	56		 push	 esi
  00006	8b 75 08	 mov	 esi, DWORD PTR ___that$[ebp]
  00009	8b 46 04	 mov	 eax, DWORD PTR [esi+4]
  0000c	89 42 04	 mov	 DWORD PTR [edx+4], eax
  0000f	8b 46 08	 mov	 eax, DWORD PTR [esi+8]
  00012	89 42 08	 mov	 DWORD PTR [edx+8], eax
  00015	8b 46 0c	 mov	 eax, DWORD PTR [esi+12]
  00018	89 42 0c	 mov	 DWORD PTR [edx+12], eax
  0001b	8b 46 10	 mov	 eax, DWORD PTR [esi+16]
  0001e	89 42 10	 mov	 DWORD PTR [edx+16], eax
  00021	8b 46 14	 mov	 eax, DWORD PTR [esi+20]
  00024	89 42 14	 mov	 DWORD PTR [edx+20], eax
  00027	8b 46 18	 mov	 eax, DWORD PTR [esi+24]
  0002a	89 42 18	 mov	 DWORD PTR [edx+24], eax
  0002d	8b 46 1c	 mov	 eax, DWORD PTR [esi+28]
  00030	89 42 1c	 mov	 DWORD PTR [edx+28], eax
  00033	8b 46 20	 mov	 eax, DWORD PTR [esi+32]
  00036	89 42 20	 mov	 DWORD PTR [edx+32], eax
  00039	8b 46 24	 mov	 eax, DWORD PTR [esi+36]
  0003c	89 42 24	 mov	 DWORD PTR [edx+36], eax
  0003f	8b 46 28	 mov	 eax, DWORD PTR [esi+40]
  00042	89 42 28	 mov	 DWORD PTR [edx+40], eax
  00045	8b 46 2c	 mov	 eax, DWORD PTR [esi+44]
  00048	89 42 2c	 mov	 DWORD PTR [edx+44], eax
  0004b	8b 46 30	 mov	 eax, DWORD PTR [esi+48]
  0004e	89 42 30	 mov	 DWORD PTR [edx+48], eax
  00051	33 c0		 xor	 eax, eax
$LL4@operator:
  00053	8a 4c 06 34	 mov	 cl, BYTE PTR [esi+eax+52]
  00057	88 4c 02 34	 mov	 BYTE PTR [edx+eax+52], cl
  0005b	40		 inc	 eax
  0005c	3d 04 01 00 00	 cmp	 eax, 260		; 00000104H
  00061	72 f0		 jb	 SHORT $LL4@operator
  00063	5e		 pop	 esi
  00064	8b c2		 mov	 eax, edx
  00066	5d		 pop	 ebp
  00067	c2 04 00	 ret	 4
??4i3FileStream@@QAEAAV0@ABV0@@Z ENDP			; i3FileStream::operator=
_TEXT	ENDS
; Function compile flags: /Ogtp
;	COMDAT ??0i3FileStream@@QAE@ABV0@@Z
_TEXT	SEGMENT
___that$ = 8						; size = 4
??0i3FileStream@@QAE@ABV0@@Z PROC			; i3FileStream::i3FileStream, COMDAT
; _this$ = ecx
  00000	55		 push	 ebp
  00001	8b ec		 mov	 ebp, esp
  00003	8b d1		 mov	 edx, ecx
  00005	b9 41 00 00 00	 mov	 ecx, 65			; 00000041H
  0000a	56		 push	 esi
  0000b	8b 75 08	 mov	 esi, DWORD PTR ___that$[ebp]
  0000e	57		 push	 edi
  0000f	c7 02 00 00 00
	00		 mov	 DWORD PTR [edx], OFFSET ??_7i3ElementBase@@6B@
  00015	8d 7a 34	 lea	 edi, DWORD PTR [edx+52]
  00018	8b 46 04	 mov	 eax, DWORD PTR [esi+4]
  0001b	89 42 04	 mov	 DWORD PTR [edx+4], eax
  0001e	8b 46 08	 mov	 eax, DWORD PTR [esi+8]
  00021	89 42 08	 mov	 DWORD PTR [edx+8], eax
  00024	8b 46 0c	 mov	 eax, DWORD PTR [esi+12]
  00027	89 42 0c	 mov	 DWORD PTR [edx+12], eax
  0002a	c7 02 00 00 00
	00		 mov	 DWORD PTR [edx], OFFSET ??_7i3Stream@@6B@
  00030	8b 46 10	 mov	 eax, DWORD PTR [esi+16]
  00033	89 42 10	 mov	 DWORD PTR [edx+16], eax
  00036	8b 46 14	 mov	 eax, DWORD PTR [esi+20]
  00039	89 42 14	 mov	 DWORD PTR [edx+20], eax
  0003c	8b 46 18	 mov	 eax, DWORD PTR [esi+24]
  0003f	89 42 18	 mov	 DWORD PTR [edx+24], eax
  00042	8b 46 1c	 mov	 eax, DWORD PTR [esi+28]
  00045	89 42 1c	 mov	 DWORD PTR [edx+28], eax
  00048	8b 46 20	 mov	 eax, DWORD PTR [esi+32]
  0004b	89 42 20	 mov	 DWORD PTR [edx+32], eax
  0004e	c7 02 00 00 00
	00		 mov	 DWORD PTR [edx], OFFSET ??_7i3FileStream@@6B@
  00054	8b 46 24	 mov	 eax, DWORD PTR [esi+36]
  00057	89 42 24	 mov	 DWORD PTR [edx+36], eax
  0005a	8b 46 28	 mov	 eax, DWORD PTR [esi+40]
  0005d	89 42 28	 mov	 DWORD PTR [edx+40], eax
  00060	8b 46 2c	 mov	 eax, DWORD PTR [esi+44]
  00063	89 42 2c	 mov	 DWORD PTR [edx+44], eax
  00066	8b 46 30	 mov	 eax, DWORD PTR [esi+48]
  00069	83 c6 34	 add	 esi, 52			; 00000034H
  0006c	89 42 30	 mov	 DWORD PTR [edx+48], eax
  0006f	8b c2		 mov	 eax, edx
  00071	f3 a5		 rep movsd
  00073	5f		 pop	 edi
  00074	5e		 pop	 esi
  00075	5d		 pop	 ebp
  00076	c2 04 00	 ret	 4
??0i3FileStream@@QAE@ABV0@@Z ENDP			; i3FileStream::i3FileStream
_TEXT	ENDS
; Function compile flags: /Ogtp
; File E:\Proyectos\JuegosOnlineproyectos\PB\pbblow\Piercing Blow Remake\i3Server\include\i3Base\i3StreamFile.h
;	COMDAT ?IsCaseSensitive@i3FileStream@@SAHXZ
_TEXT	SEGMENT
?IsCaseSensitive@i3FileStream@@SAHXZ PROC		; i3FileStream::IsCaseSensitive, COMDAT

; 45   : 	static BOOL	IsCaseSensitive()						{ return m_bCaseSensitive; }

  00000	a1 00 00 00 00	 mov	 eax, DWORD PTR ?m_bCaseSensitive@i3FileStream@@1HA ; i3FileStream::m_bCaseSensitive
  00005	c3		 ret	 0
?IsCaseSensitive@i3FileStream@@SAHXZ ENDP		; i3FileStream::IsCaseSensitive
_TEXT	ENDS
; Function compile flags: /Ogtp
; File E:\Proyectos\JuegosOnlineproyectos\PB\pbblow\Piercing Blow Remake\i3Server\include\i3Base\i3StreamFile.h
;	COMDAT ?SetCaseSensitive@i3FileStream@@SAXH@Z
_TEXT	SEGMENT
_bTrue$ = 8						; size = 4
?SetCaseSensitive@i3FileStream@@SAXH@Z PROC		; i3FileStream::SetCaseSensitive, COMDAT

; 44   : 	static void	SetCaseSensitive( BOOL bTrue = TRUE )	{ m_bCaseSensitive = bTrue; }

  00000	55		 push	 ebp
  00001	8b ec		 mov	 ebp, esp
  00003	8b 45 08	 mov	 eax, DWORD PTR _bTrue$[ebp]
  00006	a3 00 00 00 00	 mov	 DWORD PTR ?m_bCaseSensitive@i3FileStream@@1HA, eax ; i3FileStream::m_bCaseSensitive
  0000b	5d		 pop	 ebp
  0000c	c3		 ret	 0
?SetCaseSensitive@i3FileStream@@SAXH@Z ENDP		; i3FileStream::SetCaseSensitive
_TEXT	ENDS
; Function compile flags: /Ogtp
; File E:\Proyectos\JuegosOnlineproyectos\PB\pbblow\Piercing Blow Remake\i3Server\include\i3Base\i3StreamFile.h
;	COMDAT ?GetFileName@i3FileStream@@QAEPADXZ
_TEXT	SEGMENT
?GetFileName@i3FileStream@@QAEPADXZ PROC		; i3FileStream::GetFileName, COMDAT
; _this$ = ecx

; 41   : 	char *  GetFileName(void)			{ return FileName; }

  00000	8d 41 34	 lea	 eax, DWORD PTR [ecx+52]
  00003	c3		 ret	 0
?GetFileName@i3FileStream@@QAEPADXZ ENDP		; i3FileStream::GetFileName
_TEXT	ENDS
; Function compile flags: /Ogtp
; File E:\Proyectos\JuegosOnlineproyectos\PB\pbblow\Piercing Blow Remake\i3Server\include\i3Base\i3StreamFile.h
;	COMDAT ?GetHandle@i3FileStream@@UAEPAXXZ
_TEXT	SEGMENT
?GetHandle@i3FileStream@@UAEPAXXZ PROC			; i3FileStream::GetHandle, COMDAT
; _this$ = ecx

; 39   : 	void * GetHandle(void)				{ return (void *)m_pHandle; }

  00000	8b 41 20	 mov	 eax, DWORD PTR [ecx+32]
  00003	c3		 ret	 0
?GetHandle@i3FileStream@@UAEPAXXZ ENDP			; i3FileStream::GetHandle
_TEXT	ENDS
; Function compile flags: /Ogtp
; File E:\Proyectos\JuegosOnlineproyectos\PB\pbblow\Piercing Blow Remake\i3Server\include\i3Base\i3StreamFile.h
;	COMDAT ?GetClassMeta@i3FileStream@@SAPAVi3ClassMeta@@XZ
_TEXT	SEGMENT
?GetClassMeta@i3FileStream@@SAPAVi3ClassMeta@@XZ PROC	; i3FileStream::GetClassMeta, COMDAT

; 20   : 	I3_CLASS_DEFINE( i3FileStream);

  00000	a1 00 00 00 00	 mov	 eax, DWORD PTR ?s_pClassMetai3FileStream@i3FileStream@@2PAVi3ClassMeta@@A ; i3FileStream::s_pClassMetai3FileStream
  00005	c3		 ret	 0
?GetClassMeta@i3FileStream@@SAPAVi3ClassMeta@@XZ ENDP	; i3FileStream::GetClassMeta
_TEXT	ENDS
; Function compile flags: /Ogtp
; File E:\Proyectos\JuegosOnlineproyectos\PB\pbblow\Piercing Blow Remake\i3Server\src\i3Base\tinyxmlparser.cpp
;	COMDAT ??_Ei3Stream@@UAEPAXI@Z
_TEXT	SEGMENT
__$EHRec$ = -12						; size = 12
___flags$ = 8						; size = 4
??_Ei3Stream@@UAEPAXI@Z PROC				; i3Stream::`vector deleting destructor', COMDAT
; _this$ = ecx
  00000	55		 push	 ebp
  00001	8b ec		 mov	 ebp, esp
  00003	6a ff		 push	 -1
  00005	68 00 00 00 00	 push	 __ehhandler$??_Ei3Stream@@UAEPAXI@Z
  0000a	64 a1 00 00 00
	00		 mov	 eax, DWORD PTR fs:0
  00010	50		 push	 eax
  00011	53		 push	 ebx
  00012	56		 push	 esi
  00013	57		 push	 edi
  00014	a1 00 00 00 00	 mov	 eax, DWORD PTR ___security_cookie
  00019	33 c5		 xor	 eax, ebp
  0001b	50		 push	 eax
  0001c	8d 45 f4	 lea	 eax, DWORD PTR __$EHRec$[ebp]
  0001f	64 a3 00 00 00
	00		 mov	 DWORD PTR fs:0, eax
  00025	8b f1		 mov	 esi, ecx
  00027	8b 5d 08	 mov	 ebx, DWORD PTR ___flags$[ebp]
  0002a	8b fb		 mov	 edi, ebx
  0002c	83 e7 01	 and	 edi, 1
  0002f	f6 c3 02	 test	 bl, 2
  00032	74 43		 je	 SHORT $LN2@vector
  00034	68 00 00 00 00	 push	 OFFSET ??1i3Stream@@UAE@XZ ; i3Stream::~i3Stream
  00039	ff 76 fc	 push	 DWORD PTR [esi-4]
  0003c	8d 5e fc	 lea	 ebx, DWORD PTR [esi-4]
  0003f	6a 24		 push	 36			; 00000024H
  00041	56		 push	 esi
  00042	e8 00 00 00 00	 call	 ??_M@YGXPAXIIP6EX0@Z@Z
  00047	85 ff		 test	 edi, edi
  00049	74 16		 je	 SHORT $LN3@vector
  0004b	8b 0b		 mov	 ecx, DWORD PTR [ebx]
  0004d	8d 0c c9	 lea	 ecx, DWORD PTR [ecx+ecx*8]
  00050	8d 0c 8d 04 00
	00 00		 lea	 ecx, DWORD PTR [ecx*4+4]
  00057	51		 push	 ecx
  00058	53		 push	 ebx
  00059	e8 00 00 00 00	 call	 ??_V@YAXPAXI@Z		; operator delete[]
  0005e	83 c4 08	 add	 esp, 8
$LN3@vector:
  00061	8b c3		 mov	 eax, ebx
  00063	8b 4d f4	 mov	 ecx, DWORD PTR __$EHRec$[ebp]
  00066	64 89 0d 00 00
	00 00		 mov	 DWORD PTR fs:0, ecx
  0006d	59		 pop	 ecx
  0006e	5f		 pop	 edi
  0006f	5e		 pop	 esi
  00070	5b		 pop	 ebx
  00071	8b e5		 mov	 esp, ebp
  00073	5d		 pop	 ebp
  00074	c2 04 00	 ret	 4
$LN2@vector:
  00077	e8 00 00 00 00	 call	 ??1i3Stream@@UAE@XZ	; i3Stream::~i3Stream
  0007c	85 ff		 test	 edi, edi
  0007e	74 1b		 je	 SHORT $LN6@vector
  00080	f6 c3 04	 test	 bl, 4
  00083	75 0b		 jne	 SHORT $LN5@vector
  00085	56		 push	 esi
  00086	e8 00 00 00 00	 call	 ??3i3ElementBase@@SAXPAX@Z ; i3ElementBase::operator delete
  0008b	83 c4 04	 add	 esp, 4
  0008e	eb 0b		 jmp	 SHORT $LN6@vector
$LN5@vector:

  00090	6a 24		 push	 36			; 00000024H
  00092	56		 push	 esi
  00093	e8 00 00 00 00	 call	 ??3@YAXPAXI@Z		; operator delete
  00098	83 c4 08	 add	 esp, 8
$LN6@vector:
  0009b	8b c6		 mov	 eax, esi
  0009d	8b 4d f4	 mov	 ecx, DWORD PTR __$EHRec$[ebp]
  000a0	64 89 0d 00 00
	00 00		 mov	 DWORD PTR fs:0, ecx
  000a7	59		 pop	 ecx
  000a8	5f		 pop	 edi
  000a9	5e		 pop	 esi
  000aa	5b		 pop	 ebx
  000ab	8b e5		 mov	 esp, ebp
  000ad	5d		 pop	 ebp
  000ae	c2 04 00	 ret	 4
  000b1	cc		 int	 3
  000b2	cc		 int	 3
  000b3	cc		 int	 3
  000b4	cc		 int	 3
  000b5	cc		 int	 3
_TEXT	ENDS
;	COMDAT text$x
text$x	SEGMENT
__ehhandler$??_Ei3Stream@@UAEPAXI@Z:
  00000	90		 npad	 1
  00001	90		 npad	 1
  00002	8b 54 24 08	 mov	 edx, DWORD PTR [esp+8]
  00006	8d 42 0c	 lea	 eax, DWORD PTR [edx+12]
  00009	8b 4a f0	 mov	 ecx, DWORD PTR [edx-16]
  0000c	33 c8		 xor	 ecx, eax
  0000e	e8 00 00 00 00	 call	 @__security_check_cookie@4
  00013	b8 00 00 00 00	 mov	 eax, OFFSET __ehfuncinfo$??_Ei3Stream@@UAEPAXI@Z
  00018	e9 00 00 00 00	 jmp	 ___CxxFrameHandler3
text$x	ENDS
??_Ei3Stream@@UAEPAXI@Z ENDP				; i3Stream::`vector deleting destructor'
; Function compile flags: /Ogtp
; File E:\Proyectos\JuegosOnlineproyectos\PB\pbblow\Piercing Blow Remake\i3Server\src\i3Base\tinyxmlparser.cpp
;	COMDAT ??_Gi3Stream@@UAEPAXI@Z
_TEXT	SEGMENT
___flags$ = 8						; size = 4
??_Gi3Stream@@UAEPAXI@Z PROC				; i3Stream::`scalar deleting destructor', COMDAT
; _this$ = ecx
  00000	55		 push	 ebp
  00001	8b ec		 mov	 ebp, esp
  00003	56		 push	 esi
  00004	8b f1		 mov	 esi, ecx
  00006	e8 00 00 00 00	 call	 ??1i3Stream@@UAE@XZ	; i3Stream::~i3Stream
  0000b	8b 45 08	 mov	 eax, DWORD PTR ___flags$[ebp]
  0000e	a8 01		 test	 al, 1
  00010	74 1f		 je	 SHORT $LN10@scalar
  00012	a8 04		 test	 al, 4
  00014	75 10		 jne	 SHORT $LN3@scalar
  00016	56		 push	 esi
  00017	e8 00 00 00 00	 call	 ??3i3ElementBase@@SAXPAX@Z ; i3ElementBase::operator delete
  0001c	83 c4 04	 add	 esp, 4
  0001f	8b c6		 mov	 eax, esi
  00021	5e		 pop	 esi
  00022	5d		 pop	 ebp
  00023	c2 04 00	 ret	 4
$LN3@scalar:

  00026	6a 24		 push	 36			; 00000024H
  00028	56		 push	 esi
  00029	e8 00 00 00 00	 call	 ??3@YAXPAXI@Z		; operator delete
  0002e	83 c4 08	 add	 esp, 8
$LN10@scalar:
  00031	8b c6		 mov	 eax, esi
  00033	5e		 pop	 esi
  00034	5d		 pop	 ebp
  00035	c2 04 00	 ret	 4
??_Gi3Stream@@UAEPAXI@Z ENDP				; i3Stream::`scalar deleting destructor'
_TEXT	ENDS
; Function compile flags: /Ogtp
;	COMDAT ??4i3Stream@@QAEAAV0@ABV0@@Z
_TEXT	SEGMENT
___that$ = 8						; size = 4
??4i3Stream@@QAEAAV0@ABV0@@Z PROC			; i3Stream::operator=, COMDAT
; _this$ = ecx
  00000	55		 push	 ebp
  00001	8b ec		 mov	 ebp, esp
  00003	8b 55 08	 mov	 edx, DWORD PTR ___that$[ebp]
  00006	8b 42 04	 mov	 eax, DWORD PTR [edx+4]
  00009	89 41 04	 mov	 DWORD PTR [ecx+4], eax
  0000c	8b 42 08	 mov	 eax, DWORD PTR [edx+8]
  0000f	89 41 08	 mov	 DWORD PTR [ecx+8], eax
  00012	8b 42 0c	 mov	 eax, DWORD PTR [edx+12]
  00015	89 41 0c	 mov	 DWORD PTR [ecx+12], eax
  00018	8b 42 10	 mov	 eax, DWORD PTR [edx+16]
  0001b	89 41 10	 mov	 DWORD PTR [ecx+16], eax
  0001e	8b 42 14	 mov	 eax, DWORD PTR [edx+20]
  00021	89 41 14	 mov	 DWORD PTR [ecx+20], eax
  00024	8b 42 18	 mov	 eax, DWORD PTR [edx+24]
  00027	89 41 18	 mov	 DWORD PTR [ecx+24], eax
  0002a	8b 42 1c	 mov	 eax, DWORD PTR [edx+28]
  0002d	89 41 1c	 mov	 DWORD PTR [ecx+28], eax
  00030	8b 42 20	 mov	 eax, DWORD PTR [edx+32]
  00033	89 41 20	 mov	 DWORD PTR [ecx+32], eax
  00036	8b c1		 mov	 eax, ecx
  00038	5d		 pop	 ebp
  00039	c2 04 00	 ret	 4
??4i3Stream@@QAEAAV0@ABV0@@Z ENDP			; i3Stream::operator=
_TEXT	ENDS
; Function compile flags: /Ogtp
;	COMDAT ??0i3Stream@@QAE@ABV0@@Z
_TEXT	SEGMENT
___that$ = 8						; size = 4
??0i3Stream@@QAE@ABV0@@Z PROC				; i3Stream::i3Stream, COMDAT
; _this$ = ecx
  00000	55		 push	 ebp
  00001	8b ec		 mov	 ebp, esp
  00003	8b 55 08	 mov	 edx, DWORD PTR ___that$[ebp]
  00006	c7 01 00 00 00
	00		 mov	 DWORD PTR [ecx], OFFSET ??_7i3ElementBase@@6B@
  0000c	8b 42 04	 mov	 eax, DWORD PTR [edx+4]
  0000f	89 41 04	 mov	 DWORD PTR [ecx+4], eax
  00012	8b 42 08	 mov	 eax, DWORD PTR [edx+8]
  00015	89 41 08	 mov	 DWORD PTR [ecx+8], eax
  00018	8b 42 0c	 mov	 eax, DWORD PTR [edx+12]
  0001b	89 41 0c	 mov	 DWORD PTR [ecx+12], eax
  0001e	c7 01 00 00 00
	00		 mov	 DWORD PTR [ecx], OFFSET ??_7i3Stream@@6B@
  00024	8b 42 10	 mov	 eax, DWORD PTR [edx+16]
  00027	89 41 10	 mov	 DWORD PTR [ecx+16], eax
  0002a	8b 42 14	 mov	 eax, DWORD PTR [edx+20]
  0002d	89 41 14	 mov	 DWORD PTR [ecx+20], eax
  00030	8b 42 18	 mov	 eax, DWORD PTR [edx+24]
  00033	89 41 18	 mov	 DWORD PTR [ecx+24], eax
  00036	8b 42 1c	 mov	 eax, DWORD PTR [edx+28]
  00039	89 41 1c	 mov	 DWORD PTR [ecx+28], eax
  0003c	8b 42 20	 mov	 eax, DWORD PTR [edx+32]
  0003f	89 41 20	 mov	 DWORD PTR [ecx+32], eax
  00042	8b c1		 mov	 eax, ecx
  00044	5d		 pop	 ebp
  00045	c2 04 00	 ret	 4
??0i3Stream@@QAE@ABV0@@Z ENDP				; i3Stream::i3Stream
_TEXT	ENDS
; Function compile flags: /Ogtp
; File E:\Proyectos\JuegosOnlineproyectos\PB\pbblow\Piercing Blow Remake\i3Server\include\i3Base\i3Stream.h
;	COMDAT ?GetRecordSize@i3Stream@@QAEIXZ
_TEXT	SEGMENT
?GetRecordSize@i3Stream@@QAEIXZ PROC			; i3Stream::GetRecordSize, COMDAT
; _this$ = ecx

; 58   : 	UINT32	GetRecordSize(void)							{ return m_RecordSize; }

  00000	8b 41 14	 mov	 eax, DWORD PTR [ecx+20]
  00003	c3		 ret	 0
?GetRecordSize@i3Stream@@QAEIXZ ENDP			; i3Stream::GetRecordSize
_TEXT	ENDS
; Function compile flags: /Ogtp
; File E:\Proyectos\JuegosOnlineproyectos\PB\pbblow\Piercing Blow Remake\i3Server\include\i3Base\i3Stream.h
;	COMDAT ?BeginRecord@i3Stream@@QAEXXZ
_TEXT	SEGMENT
?BeginRecord@i3Stream@@QAEXXZ PROC			; i3Stream::BeginRecord, COMDAT
; _this$ = ecx

; 57   : 	void	BeginRecord(void)							{ m_RecordSize = 0; }

  00000	c7 41 14 00 00
	00 00		 mov	 DWORD PTR [ecx+20], 0
  00007	c3		 ret	 0
?BeginRecord@i3Stream@@QAEXXZ ENDP			; i3Stream::BeginRecord
_TEXT	ENDS
; Function compile flags: /Ogtp
; File E:\Proyectos\JuegosOnlineproyectos\PB\pbblow\Piercing Blow Remake\i3Server\include\i3Base\i3Stream.h
;	COMDAT ?GetHandle@i3Stream@@UAEPAXXZ
_TEXT	SEGMENT
?GetHandle@i3Stream@@UAEPAXXZ PROC			; i3Stream::GetHandle, COMDAT
; _this$ = ecx

; 55   : 	virtual void *			GetHandle(void)				{ return m_pHandle; }

  00000	8b 41 20	 mov	 eax, DWORD PTR [ecx+32]
  00003	c3		 ret	 0
?GetHandle@i3Stream@@UAEPAXXZ ENDP			; i3Stream::GetHandle
_TEXT	ENDS
; Function compile flags: /Ogtp
; File E:\Proyectos\JuegosOnlineproyectos\PB\pbblow\Piercing Blow Remake\i3Server\include\i3Base\i3Stream.h
;	COMDAT ?GetAccessMode@i3Stream@@QAEHXZ
_TEXT	SEGMENT
?GetAccessMode@i3Stream@@QAEHXZ PROC			; i3Stream::GetAccessMode, COMDAT
; _this$ = ecx

; 53   : 	INT32			GetAccessMode(void)					{ return m_Access; }

  00000	8b 41 1c	 mov	 eax, DWORD PTR [ecx+28]
  00003	c3		 ret	 0
?GetAccessMode@i3Stream@@QAEHXZ ENDP			; i3Stream::GetAccessMode
_TEXT	ENDS
; Function compile flags: /Ogtp
; File E:\Proyectos\JuegosOnlineproyectos\PB\pbblow\Piercing Blow Remake\i3Server\include\i3Base\i3Stream.h
;	COMDAT ?GetLastError@i3Stream@@QAE?AW4STREAMCODE@1@XZ
_TEXT	SEGMENT
?GetLastError@i3Stream@@QAE?AW4STREAMCODE@1@XZ PROC	; i3Stream::GetLastError, COMDAT
; _this$ = ecx

; 52   : 	STREAMCODE		GetLastError(void)					{ return m_LastCode; }

  00000	8b 41 18	 mov	 eax, DWORD PTR [ecx+24]
  00003	c3		 ret	 0
?GetLastError@i3Stream@@QAE?AW4STREAMCODE@1@XZ ENDP	; i3Stream::GetLastError
_TEXT	ENDS
; Function compile flags: /Ogtp
; File E:\Proyectos\JuegosOnlineproyectos\PB\pbblow\Piercing Blow Remake\i3Server\include\i3Base\i3Stream.h
;	COMDAT ?GetSize@i3Stream@@QAEIXZ
_TEXT	SEGMENT
?GetSize@i3Stream@@QAEIXZ PROC				; i3Stream::GetSize, COMDAT
; _this$ = ecx

; 51   : 	UINT32			GetSize(void)						{ return m_Size; }

  00000	8b 41 10	 mov	 eax, DWORD PTR [ecx+16]
  00003	c3		 ret	 0
?GetSize@i3Stream@@QAEIXZ ENDP				; i3Stream::GetSize
_TEXT	ENDS
; Function compile flags: /Ogtp
; File E:\Proyectos\JuegosOnlineproyectos\PB\pbblow\Piercing Blow Remake\i3Server\include\i3Base\i3Stream.h
;	COMDAT ?GetClassMeta@i3Stream@@SAPAVi3ClassMeta@@XZ
_TEXT	SEGMENT
?GetClassMeta@i3Stream@@SAPAVi3ClassMeta@@XZ PROC	; i3Stream::GetClassMeta, COMDAT

; 24   : 	I3_ABSTRACT_CLASS_DEFINE( i3Stream);

  00000	a1 00 00 00 00	 mov	 eax, DWORD PTR ?s_pClassMetai3Stream@i3Stream@@2PAVi3ClassMeta@@A ; i3Stream::s_pClassMetai3Stream
  00005	c3		 ret	 0
?GetClassMeta@i3Stream@@SAPAVi3ClassMeta@@XZ ENDP	; i3Stream::GetClassMeta
_TEXT	ENDS
; Function compile flags: /Ogtp
;	COMDAT ??_Ei3MemoryPool@@UAEPAXI@Z
_TEXT	SEGMENT
__$EHRec$ = -12						; size = 12
___flags$ = 8						; size = 4
??_Ei3MemoryPool@@UAEPAXI@Z PROC			; i3MemoryPool::`vector deleting destructor', COMDAT
; _this$ = ecx
  00000	55		 push	 ebp
  00001	8b ec		 mov	 ebp, esp
  00003	6a ff		 push	 -1
  00005	68 00 00 00 00	 push	 __ehhandler$??_Ei3MemoryPool@@UAEPAXI@Z
  0000a	64 a1 00 00 00
	00		 mov	 eax, DWORD PTR fs:0
  00010	50		 push	 eax
  00011	53		 push	 ebx
  00012	56		 push	 esi
  00013	57		 push	 edi
  00014	a1 00 00 00 00	 mov	 eax, DWORD PTR ___security_cookie
  00019	33 c5		 xor	 eax, ebp
  0001b	50		 push	 eax
  0001c	8d 45 f4	 lea	 eax, DWORD PTR __$EHRec$[ebp]
  0001f	64 a3 00 00 00
	00		 mov	 DWORD PTR fs:0, eax
  00025	8b f1		 mov	 esi, ecx
  00027	8b 45 08	 mov	 eax, DWORD PTR ___flags$[ebp]
  0002a	8b f8		 mov	 edi, eax
  0002c	83 e7 01	 and	 edi, 1
  0002f	a8 02		 test	 al, 2
  00031	74 40		 je	 SHORT $LN2@vector
  00033	68 00 00 00 00	 push	 OFFSET ??1i3MemoryPool@@UAE@XZ ; i3MemoryPool::~i3MemoryPool
  00038	ff 76 fc	 push	 DWORD PTR [esi-4]
  0003b	8d 5e fc	 lea	 ebx, DWORD PTR [esi-4]
  0003e	6a 04		 push	 4
  00040	56		 push	 esi
  00041	e8 00 00 00 00	 call	 ??_M@YGXPAXIIP6EX0@Z@Z
  00046	85 ff		 test	 edi, edi
  00048	74 13		 je	 SHORT $LN3@vector
  0004a	8b 0b		 mov	 ecx, DWORD PTR [ebx]
  0004c	8d 0c 8d 04 00
	00 00		 lea	 ecx, DWORD PTR [ecx*4+4]
  00053	51		 push	 ecx
  00054	53		 push	 ebx
  00055	e8 00 00 00 00	 call	 ??_V@YAXPAXI@Z		; operator delete[]
  0005a	83 c4 08	 add	 esp, 8
$LN3@vector:
  0005d	8b c3		 mov	 eax, ebx
  0005f	8b 4d f4	 mov	 ecx, DWORD PTR __$EHRec$[ebp]
  00062	64 89 0d 00 00
	00 00		 mov	 DWORD PTR fs:0, ecx
  00069	59		 pop	 ecx
  0006a	5f		 pop	 edi
  0006b	5e		 pop	 esi
  0006c	5b		 pop	 ebx
  0006d	8b e5		 mov	 esp, ebp
  0006f	5d		 pop	 ebp
  00070	c2 04 00	 ret	 4
$LN2@vector:
  00073	e8 00 00 00 00	 call	 ??1i3MemoryPool@@UAE@XZ	; i3MemoryPool::~i3MemoryPool
  00078	85 ff		 test	 edi, edi
  0007a	74 0b		 je	 SHORT $LN4@vector
  0007c	6a 04		 push	 4
  0007e	56		 push	 esi
  0007f	e8 00 00 00 00	 call	 ??3@YAXPAXI@Z		; operator delete
  00084	83 c4 08	 add	 esp, 8
$LN4@vector:
  00087	8b c6		 mov	 eax, esi
  00089	8b 4d f4	 mov	 ecx, DWORD PTR __$EHRec$[ebp]
  0008c	64 89 0d 00 00
	00 00		 mov	 DWORD PTR fs:0, ecx
  00093	59		 pop	 ecx
  00094	5f		 pop	 edi
  00095	5e		 pop	 esi
  00096	5b		 pop	 ebx
  00097	8b e5		 mov	 esp, ebp
  00099	5d		 pop	 ebp
  0009a	c2 04 00	 ret	 4
  0009d	cc		 int	 3
  0009e	cc		 int	 3
  0009f	cc		 int	 3
  000a0	cc		 int	 3
  000a1	cc		 int	 3
_TEXT	ENDS
;	COMDAT text$x
text$x	SEGMENT
__ehhandler$??_Ei3MemoryPool@@UAEPAXI@Z:
  00000	90		 npad	 1
  00001	90		 npad	 1
  00002	8b 54 24 08	 mov	 edx, DWORD PTR [esp+8]
  00006	8d 42 0c	 lea	 eax, DWORD PTR [edx+12]
  00009	8b 4a f0	 mov	 ecx, DWORD PTR [edx-16]
  0000c	33 c8		 xor	 ecx, eax
  0000e	e8 00 00 00 00	 call	 @__security_check_cookie@4
  00013	b8 00 00 00 00	 mov	 eax, OFFSET __ehfuncinfo$??_Ei3MemoryPool@@UAEPAXI@Z
  00018	e9 00 00 00 00	 jmp	 ___CxxFrameHandler3
text$x	ENDS
??_Ei3MemoryPool@@UAEPAXI@Z ENDP			; i3MemoryPool::`vector deleting destructor'
; Function compile flags: /Ogtp
;	COMDAT ??_Gi3MemoryPool@@UAEPAXI@Z
_TEXT	SEGMENT
___flags$ = 8						; size = 4
??_Gi3MemoryPool@@UAEPAXI@Z PROC			; i3MemoryPool::`scalar deleting destructor', COMDAT
; _this$ = ecx
  00000	55		 push	 ebp
  00001	8b ec		 mov	 ebp, esp
  00003	56		 push	 esi
  00004	8b f1		 mov	 esi, ecx
  00006	e8 00 00 00 00	 call	 ??1i3MemoryPool@@UAE@XZ	; i3MemoryPool::~i3MemoryPool
  0000b	f6 45 08 01	 test	 BYTE PTR ___flags$[ebp], 1
  0000f	74 0b		 je	 SHORT $LN5@scalar
  00011	6a 04		 push	 4
  00013	56		 push	 esi
  00014	e8 00 00 00 00	 call	 ??3@YAXPAXI@Z		; operator delete
  00019	83 c4 08	 add	 esp, 8
$LN5@scalar:
  0001c	8b c6		 mov	 eax, esi
  0001e	5e		 pop	 esi
  0001f	5d		 pop	 ebp
  00020	c2 04 00	 ret	 4
??_Gi3MemoryPool@@UAEPAXI@Z ENDP			; i3MemoryPool::`scalar deleting destructor'
_TEXT	ENDS
; Function compile flags: /Ogtp
;	COMDAT ??4i3MemoryPool@@QAEAAV0@ABV0@@Z
_TEXT	SEGMENT
___that$ = 8						; size = 4
??4i3MemoryPool@@QAEAAV0@ABV0@@Z PROC			; i3MemoryPool::operator=, COMDAT
; _this$ = ecx
  00000	8b c1		 mov	 eax, ecx
  00002	c2 04 00	 ret	 4
??4i3MemoryPool@@QAEAAV0@ABV0@@Z ENDP			; i3MemoryPool::operator=
_TEXT	ENDS
; Function compile flags: /Ogtp
;	COMDAT ??0i3MemoryPool@@QAE@ABV0@@Z
_TEXT	SEGMENT
___that$ = 8						; size = 4
??0i3MemoryPool@@QAE@ABV0@@Z PROC			; i3MemoryPool::i3MemoryPool, COMDAT
; _this$ = ecx
  00000	c7 01 00 00 00
	00		 mov	 DWORD PTR [ecx], OFFSET ??_7i3MemoryPool@@6B@
  00006	8b c1		 mov	 eax, ecx
  00008	c2 04 00	 ret	 4
??0i3MemoryPool@@QAE@ABV0@@Z ENDP			; i3MemoryPool::i3MemoryPool
_TEXT	ENDS
; Function compile flags: /Ogtp
; File E:\Proyectos\JuegosOnlineproyectos\PB\pbblow\Piercing Blow Remake\i3Server\src\i3Base\tinyxmlparser.cpp
;	COMDAT ??_Ei3ElementBase@@UAEPAXI@Z
_TEXT	SEGMENT
__$EHRec$ = -12						; size = 12
___flags$ = 8						; size = 4
??_Ei3ElementBase@@UAEPAXI@Z PROC			; i3ElementBase::`vector deleting destructor', COMDAT
; _this$ = ecx
  00000	55		 push	 ebp
  00001	8b ec		 mov	 ebp, esp
  00003	6a ff		 push	 -1
  00005	68 00 00 00 00	 push	 __ehhandler$??_Ei3ElementBase@@UAEPAXI@Z
  0000a	64 a1 00 00 00
	00		 mov	 eax, DWORD PTR fs:0
  00010	50		 push	 eax
  00011	53		 push	 ebx
  00012	56		 push	 esi
  00013	57		 push	 edi
  00014	a1 00 00 00 00	 mov	 eax, DWORD PTR ___security_cookie
  00019	33 c5		 xor	 eax, ebp
  0001b	50		 push	 eax
  0001c	8d 45 f4	 lea	 eax, DWORD PTR __$EHRec$[ebp]
  0001f	64 a3 00 00 00
	00		 mov	 DWORD PTR fs:0, eax
  00025	8b f1		 mov	 esi, ecx
  00027	8b 5d 08	 mov	 ebx, DWORD PTR ___flags$[ebp]
  0002a	8b fb		 mov	 edi, ebx
  0002c	83 e7 01	 and	 edi, 1
  0002f	f6 c3 02	 test	 bl, 2
  00032	74 3f		 je	 SHORT $LN2@vector
  00034	68 00 00 00 00	 push	 OFFSET ??1i3ElementBase@@UAE@XZ ; i3ElementBase::~i3ElementBase
  00039	ff 76 fc	 push	 DWORD PTR [esi-4]
  0003c	8d 5e fc	 lea	 ebx, DWORD PTR [esi-4]
  0003f	6a 10		 push	 16			; 00000010H
  00041	56		 push	 esi
  00042	e8 00 00 00 00	 call	 ??_M@YGXPAXIIP6EX0@Z@Z
  00047	85 ff		 test	 edi, edi
  00049	74 12		 je	 SHORT $LN3@vector
  0004b	8b 0b		 mov	 ecx, DWORD PTR [ebx]
  0004d	c1 e1 04	 shl	 ecx, 4
  00050	83 c1 04	 add	 ecx, 4
  00053	51		 push	 ecx
  00054	53		 push	 ebx
  00055	e8 00 00 00 00	 call	 ??_V@YAXPAXI@Z		; operator delete[]
  0005a	83 c4 08	 add	 esp, 8
$LN3@vector:
  0005d	8b c3		 mov	 eax, ebx
  0005f	8b 4d f4	 mov	 ecx, DWORD PTR __$EHRec$[ebp]
  00062	64 89 0d 00 00
	00 00		 mov	 DWORD PTR fs:0, ecx
  00069	59		 pop	 ecx
  0006a	5f		 pop	 edi
  0006b	5e		 pop	 esi
  0006c	5b		 pop	 ebx
  0006d	8b e5		 mov	 esp, ebp
  0006f	5d		 pop	 ebp
  00070	c2 04 00	 ret	 4
$LN2@vector:
  00073	e8 00 00 00 00	 call	 ??1i3ElementBase@@UAE@XZ ; i3ElementBase::~i3ElementBase
  00078	85 ff		 test	 edi, edi
  0007a	74 1b		 je	 SHORT $LN6@vector
  0007c	f6 c3 04	 test	 bl, 4
  0007f	75 0b		 jne	 SHORT $LN5@vector
  00081	56		 push	 esi
  00082	e8 00 00 00 00	 call	 ??3i3ElementBase@@SAXPAX@Z ; i3ElementBase::operator delete
  00087	83 c4 04	 add	 esp, 4
  0008a	eb 0b		 jmp	 SHORT $LN6@vector
$LN5@vector:

  0008c	6a 10		 push	 16			; 00000010H
  0008e	56		 push	 esi
  0008f	e8 00 00 00 00	 call	 ??3@YAXPAXI@Z		; operator delete
  00094	83 c4 08	 add	 esp, 8
$LN6@vector:
  00097	8b c6		 mov	 eax, esi
  00099	8b 4d f4	 mov	 ecx, DWORD PTR __$EHRec$[ebp]
  0009c	64 89 0d 00 00
	00 00		 mov	 DWORD PTR fs:0, ecx
  000a3	59		 pop	 ecx
  000a4	5f		 pop	 edi
  000a5	5e		 pop	 esi
  000a6	5b		 pop	 ebx
  000a7	8b e5		 mov	 esp, ebp
  000a9	5d		 pop	 ebp
  000aa	c2 04 00	 ret	 4
  000ad	cc		 int	 3
  000ae	cc		 int	 3
  000af	cc		 int	 3
  000b0	cc		 int	 3
  000b1	cc		 int	 3
_TEXT	ENDS
;	COMDAT text$x
text$x	SEGMENT
__ehhandler$??_Ei3ElementBase@@UAEPAXI@Z:
  00000	90		 npad	 1
  00001	90		 npad	 1
  00002	8b 54 24 08	 mov	 edx, DWORD PTR [esp+8]
  00006	8d 42 0c	 lea	 eax, DWORD PTR [edx+12]
  00009	8b 4a f0	 mov	 ecx, DWORD PTR [edx-16]
  0000c	33 c8		 xor	 ecx, eax
  0000e	e8 00 00 00 00	 call	 @__security_check_cookie@4
  00013	b8 00 00 00 00	 mov	 eax, OFFSET __ehfuncinfo$??_Ei3ElementBase@@UAEPAXI@Z
  00018	e9 00 00 00 00	 jmp	 ___CxxFrameHandler3
text$x	ENDS
??_Ei3ElementBase@@UAEPAXI@Z ENDP			; i3ElementBase::`vector deleting destructor'
; Function compile flags: /Ogtp
; File E:\Proyectos\JuegosOnlineproyectos\PB\pbblow\Piercing Blow Remake\i3Server\src\i3Base\tinyxmlparser.cpp
;	COMDAT ??_Gi3ElementBase@@UAEPAXI@Z
_TEXT	SEGMENT
___flags$ = 8						; size = 4
??_Gi3ElementBase@@UAEPAXI@Z PROC			; i3ElementBase::`scalar deleting destructor', COMDAT
; _this$ = ecx
  00000	55		 push	 ebp
  00001	8b ec		 mov	 ebp, esp
  00003	56		 push	 esi
  00004	8b f1		 mov	 esi, ecx
  00006	e8 00 00 00 00	 call	 ??1i3ElementBase@@UAE@XZ ; i3ElementBase::~i3ElementBase
  0000b	8b 45 08	 mov	 eax, DWORD PTR ___flags$[ebp]
  0000e	a8 01		 test	 al, 1
  00010	74 1f		 je	 SHORT $LN10@scalar
  00012	a8 04		 test	 al, 4
  00014	75 10		 jne	 SHORT $LN3@scalar
  00016	56		 push	 esi
  00017	e8 00 00 00 00	 call	 ??3i3ElementBase@@SAXPAX@Z ; i3ElementBase::operator delete
  0001c	83 c4 04	 add	 esp, 4
  0001f	8b c6		 mov	 eax, esi
  00021	5e		 pop	 esi
  00022	5d		 pop	 ebp
  00023	c2 04 00	 ret	 4
$LN3@scalar:

  00026	6a 10		 push	 16			; 00000010H
  00028	56		 push	 esi
  00029	e8 00 00 00 00	 call	 ??3@YAXPAXI@Z		; operator delete
  0002e	83 c4 08	 add	 esp, 8
$LN10@scalar:
  00031	8b c6		 mov	 eax, esi
  00033	5e		 pop	 esi
  00034	5d		 pop	 ebp
  00035	c2 04 00	 ret	 4
??_Gi3ElementBase@@UAEPAXI@Z ENDP			; i3ElementBase::`scalar deleting destructor'
_TEXT	ENDS
; Function compile flags: /Ogtp
;	COMDAT ??4i3ElementBase@@QAEAAV0@ABV0@@Z
_TEXT	SEGMENT
___that$ = 8						; size = 4
??4i3ElementBase@@QAEAAV0@ABV0@@Z PROC			; i3ElementBase::operator=, COMDAT
; _this$ = ecx
  00000	55		 push	 ebp
  00001	8b ec		 mov	 ebp, esp
  00003	8b 55 08	 mov	 edx, DWORD PTR ___that$[ebp]
  00006	8b 42 04	 mov	 eax, DWORD PTR [edx+4]
  00009	89 41 04	 mov	 DWORD PTR [ecx+4], eax
  0000c	8b 42 08	 mov	 eax, DWORD PTR [edx+8]
  0000f	89 41 08	 mov	 DWORD PTR [ecx+8], eax
  00012	8b 42 0c	 mov	 eax, DWORD PTR [edx+12]
  00015	89 41 0c	 mov	 DWORD PTR [ecx+12], eax
  00018	8b c1		 mov	 eax, ecx
  0001a	5d		 pop	 ebp
  0001b	c2 04 00	 ret	 4
??4i3ElementBase@@QAEAAV0@ABV0@@Z ENDP			; i3ElementBase::operator=
_TEXT	ENDS
; Function compile flags: /Ogtp
;	COMDAT ??0i3ElementBase@@QAE@ABV0@@Z
_TEXT	SEGMENT
___that$ = 8						; size = 4
??0i3ElementBase@@QAE@ABV0@@Z PROC			; i3ElementBase::i3ElementBase, COMDAT
; _this$ = ecx
  00000	55		 push	 ebp
  00001	8b ec		 mov	 ebp, esp
  00003	8b 55 08	 mov	 edx, DWORD PTR ___that$[ebp]
  00006	c7 01 00 00 00
	00		 mov	 DWORD PTR [ecx], OFFSET ??_7i3ElementBase@@6B@
  0000c	8b 42 04	 mov	 eax, DWORD PTR [edx+4]
  0000f	89 41 04	 mov	 DWORD PTR [ecx+4], eax
  00012	8b 42 08	 mov	 eax, DWORD PTR [edx+8]
  00015	89 41 08	 mov	 DWORD PTR [ecx+8], eax
  00018	8b 42 0c	 mov	 eax, DWORD PTR [edx+12]
  0001b	89 41 0c	 mov	 DWORD PTR [ecx+12], eax
  0001e	8b c1		 mov	 eax, ecx
  00020	5d		 pop	 ebp
  00021	c2 04 00	 ret	 4
??0i3ElementBase@@QAE@ABV0@@Z ENDP			; i3ElementBase::i3ElementBase
_TEXT	ENDS
; Function compile flags: /Ogtp
; File E:\Proyectos\JuegosOnlineproyectos\PB\pbblow\Piercing Blow Remake\i3Server\include\i3Base\i3ElementBase.h
;	COMDAT ?_internal_SetRefCount@i3ElementBase@@QAEXH@Z
_TEXT	SEGMENT
_cnt$ = 8						; size = 4
?_internal_SetRefCount@i3ElementBase@@QAEXH@Z PROC	; i3ElementBase::_internal_SetRefCount, COMDAT
; _this$ = ecx

; 401  : 	{

  00000	55		 push	 ebp
  00001	8b ec		 mov	 ebp, esp

; 402  : 		m_RefCount = cnt;

  00003	8b 45 08	 mov	 eax, DWORD PTR _cnt$[ebp]
  00006	89 41 04	 mov	 DWORD PTR [ecx+4], eax

; 403  : 	}

  00009	5d		 pop	 ebp
  0000a	c2 04 00	 ret	 4
?_internal_SetRefCount@i3ElementBase@@QAEXH@Z ENDP	; i3ElementBase::_internal_SetRefCount
_TEXT	ENDS
; Function compile flags: /Ogtp
; File E:\Proyectos\JuegosOnlineproyectos\PB\pbblow\Piercing Blow Remake\i3Server\include\i3Base\i3ElementBase.h
;	COMDAT ?AddRef@i3ElementBase@@QAEHXZ
_TEXT	SEGMENT
?AddRef@i3ElementBase@@QAEHXZ PROC			; i3ElementBase::AddRef, COMDAT
; _this$ = ecx

; 392  : 		m_RefCount++;

  00000	ff 41 04	 inc	 DWORD PTR [ecx+4]

; 393  : 
; 394  : 		return m_RefCount;

  00003	8b 41 04	 mov	 eax, DWORD PTR [ecx+4]

; 395  : 	}

  00006	c3		 ret	 0
?AddRef@i3ElementBase@@QAEHXZ ENDP			; i3ElementBase::AddRef
_TEXT	ENDS
; Function compile flags: /Ogtp
; File E:\Proyectos\JuegosOnlineproyectos\PB\pbblow\Piercing Blow Remake\i3Server\include\i3Base\i3ElementBase.h
;	COMDAT ?IsTypeOf@i3ElementBase@@QAE_NPAVi3ClassMeta@@@Z
_TEXT	SEGMENT
_pMeta$ = 8						; size = 4
?IsTypeOf@i3ElementBase@@QAE_NPAVi3ClassMeta@@@Z PROC	; i3ElementBase::IsTypeOf, COMDAT
; _this$ = ecx

; 356  : 	{

  00000	55		 push	 ebp
  00001	8b ec		 mov	 ebp, esp

; 357  : 		return GetMeta()->IsTypeOf( pMeta);

  00003	8b 01		 mov	 eax, DWORD PTR [ecx]
  00005	ff 75 08	 push	 DWORD PTR _pMeta$[ebp]
  00008	ff 10		 call	 DWORD PTR [eax]
  0000a	8b c8		 mov	 ecx, eax
  0000c	e8 00 00 00 00	 call	 ?IsTypeOf@i3ClassMeta@@QAE_NPAV1@@Z ; i3ClassMeta::IsTypeOf

; 358  : 	}

  00011	5d		 pop	 ebp
  00012	c2 04 00	 ret	 4
?IsTypeOf@i3ElementBase@@QAE_NPAVi3ClassMeta@@@Z ENDP	; i3ElementBase::IsTypeOf
_TEXT	ENDS
; Function compile flags: /Ogtp
; File E:\Proyectos\JuegosOnlineproyectos\PB\pbblow\Piercing Blow Remake\i3Server\include\i3Base\i3ElementBase.h
; File E:\Proyectos\JuegosOnlineproyectos\PB\pbblow\Piercing Blow Remake\i3Server\include\i3Base\i3ClassMeta.h
; File E:\Proyectos\JuegosOnlineproyectos\PB\pbblow\Piercing Blow Remake\i3Server\include\i3Base\i3ElementBase.h
;	COMDAT ?IsExactTypeOf@i3ElementBase@@QAE_NPAVi3ClassMeta@@@Z
_TEXT	SEGMENT
_pMeta$ = 8						; size = 4
?IsExactTypeOf@i3ElementBase@@QAE_NPAVi3ClassMeta@@@Z PROC ; i3ElementBase::IsExactTypeOf, COMDAT
; _this$ = ecx

; 351  : 	{

  00000	55		 push	 ebp
  00001	8b ec		 mov	 ebp, esp

; 352  : 		return GetMeta()->IsExactTypeOf( pMeta);

  00003	8b 01		 mov	 eax, DWORD PTR [ecx]
  00005	ff 10		 call	 DWORD PTR [eax]
; File E:\Proyectos\JuegosOnlineproyectos\PB\pbblow\Piercing Blow Remake\i3Server\include\i3Base\i3ClassMeta.h

; 90   : 		return pMeta == this;

  00007	39 45 08	 cmp	 DWORD PTR _pMeta$[ebp], eax
  0000a	0f 94 c0	 sete	 al
; File E:\Proyectos\JuegosOnlineproyectos\PB\pbblow\Piercing Blow Remake\i3Server\include\i3Base\i3ElementBase.h

; 353  : 	}

  0000d	5d		 pop	 ebp
  0000e	c2 04 00	 ret	 4
?IsExactTypeOf@i3ElementBase@@QAE_NPAVi3ClassMeta@@@Z ENDP ; i3ElementBase::IsExactTypeOf
_TEXT	ENDS
; Function compile flags: /Ogtp
; File E:\Proyectos\JuegosOnlineproyectos\PB\pbblow\Piercing Blow Remake\i3Server\include\i3Base\i3ElementBase.h
;	COMDAT ?__GetMemoryPool@i3ElementBase@@QAEPAVi3MemoryPool@@XZ
_TEXT	SEGMENT
?__GetMemoryPool@i3ElementBase@@QAEPAVi3MemoryPool@@XZ PROC ; i3ElementBase::__GetMemoryPool, COMDAT
; _this$ = ecx

; 348  : 	i3MemoryPool *	__GetMemoryPool(void)							{ return m_pPool; }

  00000	8b 41 0c	 mov	 eax, DWORD PTR [ecx+12]
  00003	c3		 ret	 0
?__GetMemoryPool@i3ElementBase@@QAEPAVi3MemoryPool@@XZ ENDP ; i3ElementBase::__GetMemoryPool
_TEXT	ENDS
; Function compile flags: /Ogtp
; File E:\Proyectos\JuegosOnlineproyectos\PB\pbblow\Piercing Blow Remake\i3Server\include\i3Base\i3ElementBase.h
;	COMDAT ?__SetMemoryPool@i3ElementBase@@QAEXPAVi3MemoryPool@@@Z
_TEXT	SEGMENT
_pPool$ = 8						; size = 4
?__SetMemoryPool@i3ElementBase@@QAEXPAVi3MemoryPool@@@Z PROC ; i3ElementBase::__SetMemoryPool, COMDAT
; _this$ = ecx

; 347  : 	void			__SetMemoryPool( i3MemoryPool * pPool)			{ m_pPool = pPool; }

  00000	55		 push	 ebp
  00001	8b ec		 mov	 ebp, esp
  00003	8b 45 08	 mov	 eax, DWORD PTR _pPool$[ebp]
  00006	89 41 0c	 mov	 DWORD PTR [ecx+12], eax
  00009	5d		 pop	 ebp
  0000a	c2 04 00	 ret	 4
?__SetMemoryPool@i3ElementBase@@QAEXPAVi3MemoryPool@@@Z ENDP ; i3ElementBase::__SetMemoryPool
_TEXT	ENDS
; Function compile flags: /Ogtp
; File E:\Proyectos\JuegosOnlineproyectos\PB\pbblow\Piercing Blow Remake\i3Server\include\i3Base\i3ElementBase.h
;	COMDAT ?GetRefCount@i3ElementBase@@QAEHXZ
_TEXT	SEGMENT
?GetRefCount@i3ElementBase@@QAEHXZ PROC			; i3ElementBase::GetRefCount, COMDAT
; _this$ = ecx

; 344  : 		return m_RefCount;

  00000	8b 41 04	 mov	 eax, DWORD PTR [ecx+4]

; 345  : 	}

  00003	c3		 ret	 0
?GetRefCount@i3ElementBase@@QAEHXZ ENDP			; i3ElementBase::GetRefCount
_TEXT	ENDS
; Function compile flags: /Ogtp
; File E:\Proyectos\JuegosOnlineproyectos\PB\pbblow\Piercing Blow Remake\i3Server\include\i3Base\i3ElementBase.h
;	COMDAT ?GetClassMeta@i3ElementBase@@SAPAVi3ClassMeta@@XZ
_TEXT	SEGMENT
?GetClassMeta@i3ElementBase@@SAPAVi3ClassMeta@@XZ PROC	; i3ElementBase::GetClassMeta, COMDAT

; 314  : 	I3_ABSTRACT_CLASS_DEFINE( i3ElementBase);

  00000	a1 00 00 00 00	 mov	 eax, DWORD PTR ?s_pClassMetai3ElementBase@i3ElementBase@@2PAVi3ClassMeta@@A ; i3ElementBase::s_pClassMetai3ElementBase
  00005	c3		 ret	 0
?GetClassMeta@i3ElementBase@@SAPAVi3ClassMeta@@XZ ENDP	; i3ElementBase::GetClassMeta
_TEXT	ENDS
; Function compile flags: /Ogtp
;	COMDAT ??_Ei3ClassMeta@@UAEPAXI@Z
_TEXT	SEGMENT
__$EHRec$ = -12						; size = 12
___flags$ = 8						; size = 4
??_Ei3ClassMeta@@UAEPAXI@Z PROC				; i3ClassMeta::`vector deleting destructor', COMDAT
; _this$ = ecx
  00000	55		 push	 ebp
  00001	8b ec		 mov	 ebp, esp
  00003	6a ff		 push	 -1
  00005	68 00 00 00 00	 push	 __ehhandler$??_Ei3ClassMeta@@UAEPAXI@Z
  0000a	64 a1 00 00 00
	00		 mov	 eax, DWORD PTR fs:0
  00010	50		 push	 eax
  00011	53		 push	 ebx
  00012	56		 push	 esi
  00013	57		 push	 edi
  00014	a1 00 00 00 00	 mov	 eax, DWORD PTR ___security_cookie
  00019	33 c5		 xor	 eax, ebp
  0001b	50		 push	 eax
  0001c	8d 45 f4	 lea	 eax, DWORD PTR __$EHRec$[ebp]
  0001f	64 a3 00 00 00
	00		 mov	 DWORD PTR fs:0, eax
  00025	8b f1		 mov	 esi, ecx
  00027	8b 45 08	 mov	 eax, DWORD PTR ___flags$[ebp]
  0002a	8b f8		 mov	 edi, eax
  0002c	83 e7 01	 and	 edi, 1
  0002f	a8 02		 test	 al, 2
  00031	74 49		 je	 SHORT $LN2@vector
  00033	68 00 00 00 00	 push	 OFFSET ??1i3ClassMeta@@UAE@XZ ; i3ClassMeta::~i3ClassMeta
  00038	ff 76 fc	 push	 DWORD PTR [esi-4]
  0003b	8d 5e fc	 lea	 ebx, DWORD PTR [esi-4]
  0003e	6a 38		 push	 56			; 00000038H
  00040	56		 push	 esi
  00041	e8 00 00 00 00	 call	 ??_M@YGXPAXIIP6EX0@Z@Z
  00046	85 ff		 test	 edi, edi
  00048	74 1c		 je	 SHORT $LN3@vector
  0004a	8b 0b		 mov	 ecx, DWORD PTR [ebx]
  0004c	8d 14 cd 00 00
	00 00		 lea	 edx, DWORD PTR [ecx*8]
  00053	2b d1		 sub	 edx, ecx
  00055	8d 0c d5 04 00
	00 00		 lea	 ecx, DWORD PTR [edx*8+4]
  0005c	51		 push	 ecx
  0005d	53		 push	 ebx
  0005e	e8 00 00 00 00	 call	 ??_V@YAXPAXI@Z		; operator delete[]
  00063	83 c4 08	 add	 esp, 8
$LN3@vector:
  00066	8b c3		 mov	 eax, ebx
  00068	8b 4d f4	 mov	 ecx, DWORD PTR __$EHRec$[ebp]
  0006b	64 89 0d 00 00
	00 00		 mov	 DWORD PTR fs:0, ecx
  00072	59		 pop	 ecx
  00073	5f		 pop	 edi
  00074	5e		 pop	 esi
  00075	5b		 pop	 ebx
  00076	8b e5		 mov	 esp, ebp
  00078	5d		 pop	 ebp
  00079	c2 04 00	 ret	 4
$LN2@vector:
  0007c	e8 00 00 00 00	 call	 ??1i3ClassMeta@@UAE@XZ	; i3ClassMeta::~i3ClassMeta
  00081	85 ff		 test	 edi, edi
  00083	74 0b		 je	 SHORT $LN4@vector
  00085	6a 38		 push	 56			; 00000038H
  00087	56		 push	 esi
  00088	e8 00 00 00 00	 call	 ??3@YAXPAXI@Z		; operator delete
  0008d	83 c4 08	 add	 esp, 8
$LN4@vector:
  00090	8b c6		 mov	 eax, esi
  00092	8b 4d f4	 mov	 ecx, DWORD PTR __$EHRec$[ebp]
  00095	64 89 0d 00 00
	00 00		 mov	 DWORD PTR fs:0, ecx
  0009c	59		 pop	 ecx
  0009d	5f		 pop	 edi
  0009e	5e		 pop	 esi
  0009f	5b		 pop	 ebx
  000a0	8b e5		 mov	 esp, ebp
  000a2	5d		 pop	 ebp
  000a3	c2 04 00	 ret	 4
  000a6	cc		 int	 3
  000a7	cc		 int	 3
  000a8	cc		 int	 3
  000a9	cc		 int	 3
  000aa	cc		 int	 3
_TEXT	ENDS
;	COMDAT text$x
text$x	SEGMENT
__ehhandler$??_Ei3ClassMeta@@UAEPAXI@Z:
  00000	90		 npad	 1
  00001	90		 npad	 1
  00002	8b 54 24 08	 mov	 edx, DWORD PTR [esp+8]
  00006	8d 42 0c	 lea	 eax, DWORD PTR [edx+12]
  00009	8b 4a f0	 mov	 ecx, DWORD PTR [edx-16]
  0000c	33 c8		 xor	 ecx, eax
  0000e	e8 00 00 00 00	 call	 @__security_check_cookie@4
  00013	b8 00 00 00 00	 mov	 eax, OFFSET __ehfuncinfo$??_Ei3ClassMeta@@UAEPAXI@Z
  00018	e9 00 00 00 00	 jmp	 ___CxxFrameHandler3
text$x	ENDS
??_Ei3ClassMeta@@UAEPAXI@Z ENDP				; i3ClassMeta::`vector deleting destructor'
; Function compile flags: /Ogtp
;	COMDAT ??_Gi3ClassMeta@@UAEPAXI@Z
_TEXT	SEGMENT
___flags$ = 8						; size = 4
??_Gi3ClassMeta@@UAEPAXI@Z PROC				; i3ClassMeta::`scalar deleting destructor', COMDAT
; _this$ = ecx
  00000	55		 push	 ebp
  00001	8b ec		 mov	 ebp, esp
  00003	56		 push	 esi
  00004	8b f1		 mov	 esi, ecx
  00006	e8 00 00 00 00	 call	 ??1i3ClassMeta@@UAE@XZ	; i3ClassMeta::~i3ClassMeta
  0000b	f6 45 08 01	 test	 BYTE PTR ___flags$[ebp], 1
  0000f	74 0b		 je	 SHORT $LN5@scalar
  00011	6a 38		 push	 56			; 00000038H
  00013	56		 push	 esi
  00014	e8 00 00 00 00	 call	 ??3@YAXPAXI@Z		; operator delete
  00019	83 c4 08	 add	 esp, 8
$LN5@scalar:
  0001c	8b c6		 mov	 eax, esi
  0001e	5e		 pop	 esi
  0001f	5d		 pop	 ebp
  00020	c2 04 00	 ret	 4
??_Gi3ClassMeta@@UAEPAXI@Z ENDP				; i3ClassMeta::`scalar deleting destructor'
_TEXT	ENDS
; Function compile flags: /Ogtp
;	COMDAT ??4i3ClassMeta@@QAEAAV0@ABV0@@Z
_TEXT	SEGMENT
___that$ = 8						; size = 4
??4i3ClassMeta@@QAEAAV0@ABV0@@Z PROC			; i3ClassMeta::operator=, COMDAT
; _this$ = ecx
  00000	55		 push	 ebp
  00001	8b ec		 mov	 ebp, esp
  00003	8b 55 08	 mov	 edx, DWORD PTR ___that$[ebp]
  00006	8b 42 04	 mov	 eax, DWORD PTR [edx+4]
  00009	89 41 04	 mov	 DWORD PTR [ecx+4], eax
  0000c	8b 42 08	 mov	 eax, DWORD PTR [edx+8]
  0000f	89 41 08	 mov	 DWORD PTR [ecx+8], eax
  00012	8b 42 0c	 mov	 eax, DWORD PTR [edx+12]
  00015	89 41 0c	 mov	 DWORD PTR [ecx+12], eax
  00018	8b 42 10	 mov	 eax, DWORD PTR [edx+16]
  0001b	89 41 10	 mov	 DWORD PTR [ecx+16], eax
  0001e	8b 42 14	 mov	 eax, DWORD PTR [edx+20]
  00021	89 41 14	 mov	 DWORD PTR [ecx+20], eax
  00024	8b 42 18	 mov	 eax, DWORD PTR [edx+24]
  00027	89 41 18	 mov	 DWORD PTR [ecx+24], eax
  0002a	8b 42 1c	 mov	 eax, DWORD PTR [edx+28]
  0002d	89 41 1c	 mov	 DWORD PTR [ecx+28], eax
  00030	8b 42 20	 mov	 eax, DWORD PTR [edx+32]
  00033	89 41 20	 mov	 DWORD PTR [ecx+32], eax
  00036	8b 42 24	 mov	 eax, DWORD PTR [edx+36]
  00039	89 41 24	 mov	 DWORD PTR [ecx+36], eax
  0003c	8b 42 28	 mov	 eax, DWORD PTR [edx+40]
  0003f	89 41 28	 mov	 DWORD PTR [ecx+40], eax
  00042	8b 42 2c	 mov	 eax, DWORD PTR [edx+44]
  00045	89 41 2c	 mov	 DWORD PTR [ecx+44], eax
  00048	8b 42 30	 mov	 eax, DWORD PTR [edx+48]
  0004b	89 41 30	 mov	 DWORD PTR [ecx+48], eax
  0004e	8b 42 34	 mov	 eax, DWORD PTR [edx+52]
  00051	89 41 34	 mov	 DWORD PTR [ecx+52], eax
  00054	8b c1		 mov	 eax, ecx
  00056	5d		 pop	 ebp
  00057	c2 04 00	 ret	 4
??4i3ClassMeta@@QAEAAV0@ABV0@@Z ENDP			; i3ClassMeta::operator=
_TEXT	ENDS
; Function compile flags: /Ogtp
;	COMDAT ??0i3ClassMeta@@QAE@ABV0@@Z
_TEXT	SEGMENT
___that$ = 8						; size = 4
??0i3ClassMeta@@QAE@ABV0@@Z PROC			; i3ClassMeta::i3ClassMeta, COMDAT
; _this$ = ecx
  00000	55		 push	 ebp
  00001	8b ec		 mov	 ebp, esp
  00003	8b 55 08	 mov	 edx, DWORD PTR ___that$[ebp]
  00006	c7 01 00 00 00
	00		 mov	 DWORD PTR [ecx], OFFSET ??_7i3ClassMeta@@6B@
  0000c	8b 42 04	 mov	 eax, DWORD PTR [edx+4]
  0000f	89 41 04	 mov	 DWORD PTR [ecx+4], eax
  00012	8b 42 08	 mov	 eax, DWORD PTR [edx+8]
  00015	89 41 08	 mov	 DWORD PTR [ecx+8], eax
  00018	8b 42 0c	 mov	 eax, DWORD PTR [edx+12]
  0001b	89 41 0c	 mov	 DWORD PTR [ecx+12], eax
  0001e	8b 42 10	 mov	 eax, DWORD PTR [edx+16]
  00021	89 41 10	 mov	 DWORD PTR [ecx+16], eax
  00024	8b 42 14	 mov	 eax, DWORD PTR [edx+20]
  00027	89 41 14	 mov	 DWORD PTR [ecx+20], eax
  0002a	8b 42 18	 mov	 eax, DWORD PTR [edx+24]
  0002d	89 41 18	 mov	 DWORD PTR [ecx+24], eax
  00030	8b 42 1c	 mov	 eax, DWORD PTR [edx+28]
  00033	89 41 1c	 mov	 DWORD PTR [ecx+28], eax
  00036	8b 42 20	 mov	 eax, DWORD PTR [edx+32]
  00039	89 41 20	 mov	 DWORD PTR [ecx+32], eax
  0003c	8b 42 24	 mov	 eax, DWORD PTR [edx+36]
  0003f	89 41 24	 mov	 DWORD PTR [ecx+36], eax
  00042	8b 42 28	 mov	 eax, DWORD PTR [edx+40]
  00045	89 41 28	 mov	 DWORD PTR [ecx+40], eax
  00048	8b 42 2c	 mov	 eax, DWORD PTR [edx+44]
  0004b	89 41 2c	 mov	 DWORD PTR [ecx+44], eax
  0004e	8b 42 30	 mov	 eax, DWORD PTR [edx+48]
  00051	89 41 30	 mov	 DWORD PTR [ecx+48], eax
  00054	8b 42 34	 mov	 eax, DWORD PTR [edx+52]
  00057	89 41 34	 mov	 DWORD PTR [ecx+52], eax
  0005a	8b c1		 mov	 eax, ecx
  0005c	5d		 pop	 ebp
  0005d	c2 04 00	 ret	 4
??0i3ClassMeta@@QAE@ABV0@@Z ENDP			; i3ClassMeta::i3ClassMeta
_TEXT	ENDS
; Function compile flags: /Ogtp
; File E:\Proyectos\JuegosOnlineproyectos\PB\pbblow\Piercing Blow Remake\i3Server\include\i3Base\i3ClassMeta.h
;	COMDAT ?getHashCode@i3ClassMeta@@QAEIXZ
_TEXT	SEGMENT
?getHashCode@i3ClassMeta@@QAEIXZ PROC			; i3ClassMeta::getHashCode, COMDAT
; _this$ = ecx

; 112  : 	UINT32			getHashCode(void)						{ return m_HashCode; }

  00000	8b 41 18	 mov	 eax, DWORD PTR [ecx+24]
  00003	c3		 ret	 0
?getHashCode@i3ClassMeta@@QAEIXZ ENDP			; i3ClassMeta::getHashCode
_TEXT	ENDS
; Function compile flags: /Ogtp
; File E:\Proyectos\JuegosOnlineproyectos\PB\pbblow\Piercing Blow Remake\i3Server\include\i3Base\i3ClassMeta.h
;	COMDAT ?GetBaseClassMeta@i3ClassMeta@@QAEPAV1@XZ
_TEXT	SEGMENT
?GetBaseClassMeta@i3ClassMeta@@QAEPAV1@XZ PROC		; i3ClassMeta::GetBaseClassMeta, COMDAT
; _this$ = ecx

; 107  : 	i3ClassMeta *	GetBaseClassMeta(void)					{ return m_pBaseClass; }

  00000	8b 41 1c	 mov	 eax, DWORD PTR [ecx+28]
  00003	c3		 ret	 0
?GetBaseClassMeta@i3ClassMeta@@QAEPAV1@XZ ENDP		; i3ClassMeta::GetBaseClassMeta
_TEXT	ENDS
; Function compile flags: /Ogtp
; File E:\Proyectos\JuegosOnlineproyectos\PB\pbblow\Piercing Blow Remake\i3Server\include\i3Base\i3ClassMeta.h
;	COMDAT ?IsConcreteClass@i3ClassMeta@@QAEHXZ
_TEXT	SEGMENT
?IsConcreteClass@i3ClassMeta@@QAEHXZ PROC		; i3ClassMeta::IsConcreteClass, COMDAT
; _this$ = ecx

; 102  : 	BOOL			IsStyle( UINT32 style)					{ return (m_Style & style) == style; }

  00000	8b 41 14	 mov	 eax, DWORD PTR [ecx+20]
  00003	d1 e8		 shr	 eax, 1
  00005	83 e0 01	 and	 eax, 1

; 105  : 	BOOL			IsConcreteClass(void)					{ return IsStyle( I3_CLASSMETA_STYLE_CONCRETE); }

  00008	c3		 ret	 0
?IsConcreteClass@i3ClassMeta@@QAEHXZ ENDP		; i3ClassMeta::IsConcreteClass
_TEXT	ENDS
; Function compile flags: /Ogtp
; File E:\Proyectos\JuegosOnlineproyectos\PB\pbblow\Piercing Blow Remake\i3Server\include\i3Base\i3ClassMeta.h
;	COMDAT ?IsAbstractClass@i3ClassMeta@@QAEHXZ
_TEXT	SEGMENT
?IsAbstractClass@i3ClassMeta@@QAEHXZ PROC		; i3ClassMeta::IsAbstractClass, COMDAT
; _this$ = ecx

; 102  : 	BOOL			IsStyle( UINT32 style)					{ return (m_Style & style) == style; }

  00000	8b 41 14	 mov	 eax, DWORD PTR [ecx+20]
  00003	83 e0 01	 and	 eax, 1

; 104  : 	BOOL			IsAbstractClass(void)					{ return IsStyle( I3_CLASSMETA_STYLE_ABSTRACT); }

  00006	c3		 ret	 0
?IsAbstractClass@i3ClassMeta@@QAEHXZ ENDP		; i3ClassMeta::IsAbstractClass
_TEXT	ENDS
; Function compile flags: /Ogtp
; File E:\Proyectos\JuegosOnlineproyectos\PB\pbblow\Piercing Blow Remake\i3Server\include\i3Base\i3ClassMeta.h
;	COMDAT ?IsStyle@i3ClassMeta@@QAEHI@Z
_TEXT	SEGMENT
_style$ = 8						; size = 4
?IsStyle@i3ClassMeta@@QAEHI@Z PROC			; i3ClassMeta::IsStyle, COMDAT
; _this$ = ecx

; 102  : 	BOOL			IsStyle( UINT32 style)					{ return (m_Style & style) == style; }

  00000	55		 push	 ebp
  00001	8b ec		 mov	 ebp, esp
  00003	8b 51 14	 mov	 edx, DWORD PTR [ecx+20]
  00006	33 c0		 xor	 eax, eax
  00008	23 55 08	 and	 edx, DWORD PTR _style$[ebp]
  0000b	3b 55 08	 cmp	 edx, DWORD PTR _style$[ebp]
  0000e	0f 94 c0	 sete	 al
  00011	5d		 pop	 ebp
  00012	c2 04 00	 ret	 4
?IsStyle@i3ClassMeta@@QAEHI@Z ENDP			; i3ClassMeta::IsStyle
_TEXT	ENDS
; Function compile flags: /Ogtp
; File E:\Proyectos\JuegosOnlineproyectos\PB\pbblow\Piercing Blow Remake\i3Server\include\i3Base\i3ClassMeta.h
;	COMDAT ?RemoveStyle@i3ClassMeta@@QAEXI@Z
_TEXT	SEGMENT
_style$ = 8						; size = 4
?RemoveStyle@i3ClassMeta@@QAEXI@Z PROC			; i3ClassMeta::RemoveStyle, COMDAT
; _this$ = ecx

; 101  : 	void			RemoveStyle( UINT32 style)				{ m_Style &= ~style; }

  00000	55		 push	 ebp
  00001	8b ec		 mov	 ebp, esp
  00003	8b 45 08	 mov	 eax, DWORD PTR _style$[ebp]
  00006	f7 d0		 not	 eax
  00008	21 41 14	 and	 DWORD PTR [ecx+20], eax
  0000b	5d		 pop	 ebp
  0000c	c2 04 00	 ret	 4
?RemoveStyle@i3ClassMeta@@QAEXI@Z ENDP			; i3ClassMeta::RemoveStyle
_TEXT	ENDS
; Function compile flags: /Ogtp
; File E:\Proyectos\JuegosOnlineproyectos\PB\pbblow\Piercing Blow Remake\i3Server\include\i3Base\i3ClassMeta.h
;	COMDAT ?AddStyle@i3ClassMeta@@QAEXI@Z
_TEXT	SEGMENT
_style$ = 8						; size = 4
?AddStyle@i3ClassMeta@@QAEXI@Z PROC			; i3ClassMeta::AddStyle, COMDAT
; _this$ = ecx

; 100  : 	void			AddStyle( UINT32 style)					{ m_Style |= style; }

  00000	55		 push	 ebp
  00001	8b ec		 mov	 ebp, esp
  00003	8b 45 08	 mov	 eax, DWORD PTR _style$[ebp]
  00006	09 41 14	 or	 DWORD PTR [ecx+20], eax
  00009	5d		 pop	 ebp
  0000a	c2 04 00	 ret	 4
?AddStyle@i3ClassMeta@@QAEXI@Z ENDP			; i3ClassMeta::AddStyle
_TEXT	ENDS
; Function compile flags: /Ogtp
; File E:\Proyectos\JuegosOnlineproyectos\PB\pbblow\Piercing Blow Remake\i3Server\include\i3Base\i3ClassMeta.h
;	COMDAT ?GetStyle@i3ClassMeta@@QAEIXZ
_TEXT	SEGMENT
?GetStyle@i3ClassMeta@@QAEIXZ PROC			; i3ClassMeta::GetStyle, COMDAT
; _this$ = ecx

; 99   : 	UINT32			GetStyle(void)							{ return m_Style; }

  00000	8b 41 14	 mov	 eax, DWORD PTR [ecx+20]
  00003	c3		 ret	 0
?GetStyle@i3ClassMeta@@QAEIXZ ENDP			; i3ClassMeta::GetStyle
_TEXT	ENDS
; Function compile flags: /Ogtp
; File E:\Proyectos\JuegosOnlineproyectos\PB\pbblow\Piercing Blow Remake\i3Server\include\i3Base\i3ClassMeta.h
;	COMDAT ?SetStyle@i3ClassMeta@@QAEXI@Z
_TEXT	SEGMENT
_style$ = 8						; size = 4
?SetStyle@i3ClassMeta@@QAEXI@Z PROC			; i3ClassMeta::SetStyle, COMDAT
; _this$ = ecx

; 98   : 	void			SetStyle( UINT32 style)					{ m_Style = style; }

  00000	55		 push	 ebp
  00001	8b ec		 mov	 ebp, esp
  00003	8b 45 08	 mov	 eax, DWORD PTR _style$[ebp]
  00006	89 41 14	 mov	 DWORD PTR [ecx+20], eax
  00009	5d		 pop	 ebp
  0000a	c2 04 00	 ret	 4
?SetStyle@i3ClassMeta@@QAEXI@Z ENDP			; i3ClassMeta::SetStyle
_TEXT	ENDS
; Function compile flags: /Ogtp
; File E:\Proyectos\JuegosOnlineproyectos\PB\pbblow\Piercing Blow Remake\i3Server\include\i3Base\i3ClassMeta.h
;	COMDAT ?IsExactTypeOf@i3ClassMeta@@QAE_NPAV1@@Z
_TEXT	SEGMENT
_pMeta$ = 8						; size = 4
?IsExactTypeOf@i3ClassMeta@@QAE_NPAV1@@Z PROC		; i3ClassMeta::IsExactTypeOf, COMDAT
; _this$ = ecx

; 89   : 	{

  00000	55		 push	 ebp
  00001	8b ec		 mov	 ebp, esp

; 90   : 		return pMeta == this;

  00003	39 4d 08	 cmp	 DWORD PTR _pMeta$[ebp], ecx
  00006	0f 94 c0	 sete	 al

; 91   : 	}

  00009	5d		 pop	 ebp
  0000a	c2 04 00	 ret	 4
?IsExactTypeOf@i3ClassMeta@@QAE_NPAV1@@Z ENDP		; i3ClassMeta::IsExactTypeOf
_TEXT	ENDS
; Function compile flags: /Ogtp
; File E:\Proyectos\JuegosOnlineproyectos\PB\pbblow\Piercing Blow Remake\i3Server\include\i3Base\i3ClassMeta.h
;	COMDAT ?GetClassNameA@i3ClassMeta@@QAEPADXZ
_TEXT	SEGMENT
?GetClassNameA@i3ClassMeta@@QAEPADXZ PROC		; i3ClassMeta::GetClassNameA, COMDAT
; _this$ = ecx

; 83   : 		return m_pszClassName;

  00000	8b 41 0c	 mov	 eax, DWORD PTR [ecx+12]

; 84   : 	}

  00003	c3		 ret	 0
?GetClassNameA@i3ClassMeta@@QAEPADXZ ENDP		; i3ClassMeta::GetClassNameA
_TEXT	ENDS
; Function compile flags: /Ogtp
; File E:\Proyectos\JuegosOnlineproyectos\PB\pbblow\Piercing Blow Remake\i3Server\include\i3Base\i3ClassMeta.h
;	COMDAT ?GetClassSize@i3ClassMeta@@QAEIXZ
_TEXT	SEGMENT
?GetClassSize@i3ClassMeta@@QAEIXZ PROC			; i3ClassMeta::GetClassSize, COMDAT
; _this$ = ecx

; 78   : 		return m_ClassSize;

  00000	8b 41 08	 mov	 eax, DWORD PTR [ecx+8]

; 79   : 	}

  00003	c3		 ret	 0
?GetClassSize@i3ClassMeta@@QAEIXZ ENDP			; i3ClassMeta::GetClassSize
_TEXT	ENDS
; Function compile flags: /Ogtp
; File E:\Proyectos\JuegosOnlineproyectos\PB\pbblow\Piercing Blow Remake\i3Server\include\i3Base\i3ClassMeta.h
;	COMDAT ?SetMemoryPool@i3ClassMeta@@QAEXPAVi3MemoryPool@@@Z
_TEXT	SEGMENT
_pPool$ = 8						; size = 4
?SetMemoryPool@i3ClassMeta@@QAEXPAVi3MemoryPool@@@Z PROC ; i3ClassMeta::SetMemoryPool, COMDAT
; _this$ = ecx

; 66   : 	void			SetMemoryPool( i3MemoryPool * pPool)		{ m_pPool = pPool; }

  00000	55		 push	 ebp
  00001	8b ec		 mov	 ebp, esp
  00003	8b 45 08	 mov	 eax, DWORD PTR _pPool$[ebp]
  00006	89 41 34	 mov	 DWORD PTR [ecx+52], eax
  00009	5d		 pop	 ebp
  0000a	c2 04 00	 ret	 4
?SetMemoryPool@i3ClassMeta@@QAEXPAVi3MemoryPool@@@Z ENDP ; i3ClassMeta::SetMemoryPool
_TEXT	ENDS
; Function compile flags: /Ogtp
; File E:\Proyectos\JuegosOnlineproyectos\PB\pbblow\Piercing Blow Remake\i3Server\include\i3Base\i3ClassMeta.h
;	COMDAT ?GetMemoryPool@i3ClassMeta@@QAEPAVi3MemoryPool@@XZ
_TEXT	SEGMENT
?GetMemoryPool@i3ClassMeta@@QAEPAVi3MemoryPool@@XZ PROC	; i3ClassMeta::GetMemoryPool, COMDAT
; _this$ = ecx

; 65   : 	i3MemoryPool *	GetMemoryPool(void)							{ return m_pPool; }

  00000	8b 41 34	 mov	 eax, DWORD PTR [ecx+52]
  00003	c3		 ret	 0
?GetMemoryPool@i3ClassMeta@@QAEPAVi3MemoryPool@@XZ ENDP	; i3ClassMeta::GetMemoryPool
_TEXT	ENDS
; Function compile flags: /Ogtp
; File E:\Proyectos\JuegosOnlineproyectos\PB\pbblow\Piercing Blow Remake\i3Server\src\i3Base\tinyxmlparser.cpp
;	COMDAT ?__global_array_delete@@YAXPAXI@Z
_TEXT	SEGMENT
_p$ = 8							; size = 4
_sz$ = 12						; size = 4
?__global_array_delete@@YAXPAXI@Z PROC			; __global_array_delete, COMDAT

  00000	e9 00 00 00 00	 jmp	 ??_V@YAXPAXI@Z		; operator delete[]
?__global_array_delete@@YAXPAXI@Z ENDP			; __global_array_delete
_TEXT	ENDS
; Function compile flags: /Ogtp
; File E:\Proyectos\JuegosOnlineproyectos\PB\pbblow\Piercing Blow Remake\i3Server\src\i3Base\tinyxmlparser.cpp
;	COMDAT ?__global_array_delete@@YAXPAX@Z
_TEXT	SEGMENT
_p$ = 8							; size = 4
?__global_array_delete@@YAXPAX@Z PROC			; __global_array_delete, COMDAT

  00000	e9 00 00 00 00	 jmp	 ??_V@YAXPAX@Z		; operator delete[]
?__global_array_delete@@YAXPAX@Z ENDP			; __global_array_delete
_TEXT	ENDS
; Function compile flags: /Ogtp
; File E:\Proyectos\JuegosOnlineproyectos\PB\pbblow\Piercing Blow Remake\i3Server\src\i3Base\tinyxmlparser.cpp
;	COMDAT ?__global_delete@@YAXPAXI@Z
_TEXT	SEGMENT
_p$ = 8							; size = 4
_sz$ = 12						; size = 4
?__global_delete@@YAXPAXI@Z PROC			; __global_delete, COMDAT

  00000	e9 00 00 00 00	 jmp	 ??3@YAXPAXI@Z		; operator delete
?__global_delete@@YAXPAXI@Z ENDP			; __global_delete
_TEXT	ENDS
; Function compile flags: /Ogtp
; File E:\Proyectos\JuegosOnlineproyectos\PB\pbblow\Piercing Blow Remake\i3Server\src\i3Base\tinyxmlparser.cpp
;	COMDAT ?__empty_global_delete@@YAXPAXI@Z
_TEXT	SEGMENT
___formal$ = 8						; size = 4
___formal$ = 12						; size = 4
?__empty_global_delete@@YAXPAXI@Z PROC			; __empty_global_delete, COMDAT

  00000	c2 00 00	 ret	 0
?__empty_global_delete@@YAXPAXI@Z ENDP			; __empty_global_delete
_TEXT	ENDS
; Function compile flags: /Ogtp
; File E:\Proyectos\JuegosOnlineproyectos\PB\pbblow\Piercing Blow Remake\i3Server\src\i3Base\tinyxmlparser.cpp
;	COMDAT ?__global_delete@@YAXPAX@Z
_TEXT	SEGMENT
_p$ = 8							; size = 4
?__global_delete@@YAXPAX@Z PROC				; __global_delete, COMDAT

  00000	e9 00 00 00 00	 jmp	 ??3@YAXPAX@Z		; operator delete
?__global_delete@@YAXPAX@Z ENDP				; __global_delete
_TEXT	ENDS
; Function compile flags: /Ogtp
; File E:\Proyectos\JuegosOnlineproyectos\PB\pbblow\Piercing Blow Remake\i3Server\src\i3Base\tinyxmlparser.cpp
;	COMDAT ?__empty_global_delete@@YAXPAX@Z
_TEXT	SEGMENT
___formal$ = 8						; size = 4
?__empty_global_delete@@YAXPAX@Z PROC			; __empty_global_delete, COMDAT

  00000	c2 00 00	 ret	 0
?__empty_global_delete@@YAXPAX@Z ENDP			; __empty_global_delete
_TEXT	ENDS
END
