; Listing generated by Microsoft (R) Optimizing Compiler Version 19.50.35727.0 

	TITLE	E:\Proyectos\JuegosOnlineproyectos\PB\pbblow\Piercing Blow Remake\i3Server\Project\I3_DX\i3Server\x86\Release\tinyxml.obj
	.686P
	.XMM
	include listing.inc
	.model	flat

INCLUDELIB LIBCMT
INCLUDELIB OLDNAMES

PUBLIC	?condenseWhiteSpace@TiXmlBase@@0_NA		; TiXmlBase::condenseWhiteSpace
PUBLIC	__Avx2WmemEnabledWeakValue
;	COMDAT __Avx2WmemEnabledWeakValue
_BSS	SEGMENT
__Avx2WmemEnabledWeakValue DD 01H DUP (?)
_BSS	ENDS
_DATA	SEGMENT
?condenseWhiteSpace@TiXmlBase@@0_NA DB 01H		; TiXmlBase::condenseWhiteSpace
_DATA	ENDS
PUBLIC	?__empty_global_delete@@YAXPAX@Z		; __empty_global_delete
PUBLIC	?__global_delete@@YAXPAX@Z			; __global_delete
PUBLIC	?__empty_global_delete@@YAXPAXI@Z		; __empty_global_delete
PUBLIC	?__global_delete@@YAXPAXI@Z			; __global_delete
PUBLIC	?__global_array_delete@@YAXPAX@Z		; __global_array_delete
PUBLIC	?__global_array_delete@@YAXPAXI@Z		; __global_array_delete
PUBLIC	___local_stdio_printf_options
PUBLIC	___local_stdio_scanf_options
PUBLIC	_sprintf
PUBLIC	_sscanf_s
PUBLIC	?GetMemoryPool@i3ClassMeta@@QAEPAVi3MemoryPool@@XZ ; i3ClassMeta::GetMemoryPool
PUBLIC	?SetMemoryPool@i3ClassMeta@@QAEXPAVi3MemoryPool@@@Z ; i3ClassMeta::SetMemoryPool
PUBLIC	?GetClassSize@i3ClassMeta@@QAEIXZ		; i3ClassMeta::GetClassSize
PUBLIC	?GetClassNameA@i3ClassMeta@@QAEPADXZ		; i3ClassMeta::GetClassNameA
PUBLIC	?IsExactTypeOf@i3ClassMeta@@QAE_NPAV1@@Z	; i3ClassMeta::IsExactTypeOf
PUBLIC	?SetStyle@i3ClassMeta@@QAEXI@Z			; i3ClassMeta::SetStyle
PUBLIC	?GetStyle@i3ClassMeta@@QAEIXZ			; i3ClassMeta::GetStyle
PUBLIC	?AddStyle@i3ClassMeta@@QAEXI@Z			; i3ClassMeta::AddStyle
PUBLIC	?RemoveStyle@i3ClassMeta@@QAEXI@Z		; i3ClassMeta::RemoveStyle
PUBLIC	?IsStyle@i3ClassMeta@@QAEHI@Z			; i3ClassMeta::IsStyle
PUBLIC	?IsAbstractClass@i3ClassMeta@@QAEHXZ		; i3ClassMeta::IsAbstractClass
PUBLIC	?IsConcreteClass@i3ClassMeta@@QAEHXZ		; i3ClassMeta::IsConcreteClass
PUBLIC	?GetBaseClassMeta@i3ClassMeta@@QAEPAV1@XZ	; i3ClassMeta::GetBaseClassMeta
PUBLIC	?getHashCode@i3ClassMeta@@QAEIXZ		; i3ClassMeta::getHashCode
PUBLIC	??0i3ClassMeta@@QAE@ABV0@@Z			; i3ClassMeta::i3ClassMeta
PUBLIC	??4i3ClassMeta@@QAEAAV0@ABV0@@Z			; i3ClassMeta::operator=
PUBLIC	??_Gi3ClassMeta@@UAEPAXI@Z			; i3ClassMeta::`scalar deleting destructor'
PUBLIC	??_Ei3ClassMeta@@UAEPAXI@Z			; i3ClassMeta::`vector deleting destructor'
PUBLIC	?GetClassMeta@i3ElementBase@@SAPAVi3ClassMeta@@XZ ; i3ElementBase::GetClassMeta
PUBLIC	?GetRefCount@i3ElementBase@@QAEHXZ		; i3ElementBase::GetRefCount
PUBLIC	?__SetMemoryPool@i3ElementBase@@QAEXPAVi3MemoryPool@@@Z ; i3ElementBase::__SetMemoryPool
PUBLIC	?__GetMemoryPool@i3ElementBase@@QAEPAVi3MemoryPool@@XZ ; i3ElementBase::__GetMemoryPool
PUBLIC	?IsExactTypeOf@i3ElementBase@@QAE_NPAVi3ClassMeta@@@Z ; i3ElementBase::IsExactTypeOf
PUBLIC	?IsTypeOf@i3ElementBase@@QAE_NPAVi3ClassMeta@@@Z ; i3ElementBase::IsTypeOf
PUBLIC	?AddRef@i3ElementBase@@QAEHXZ			; i3ElementBase::AddRef
PUBLIC	?_internal_SetRefCount@i3ElementBase@@QAEXH@Z	; i3ElementBase::_internal_SetRefCount
PUBLIC	??0i3ElementBase@@QAE@ABV0@@Z			; i3ElementBase::i3ElementBase
PUBLIC	??4i3ElementBase@@QAEAAV0@ABV0@@Z		; i3ElementBase::operator=
PUBLIC	??_Gi3ElementBase@@UAEPAXI@Z			; i3ElementBase::`scalar deleting destructor'
PUBLIC	??_Ei3ElementBase@@UAEPAXI@Z			; i3ElementBase::`vector deleting destructor'
PUBLIC	??0i3MemoryPool@@QAE@ABV0@@Z			; i3MemoryPool::i3MemoryPool
PUBLIC	??4i3MemoryPool@@QAEAAV0@ABV0@@Z		; i3MemoryPool::operator=
PUBLIC	??_Gi3MemoryPool@@UAEPAXI@Z			; i3MemoryPool::`scalar deleting destructor'
PUBLIC	??_Ei3MemoryPool@@UAEPAXI@Z			; i3MemoryPool::`vector deleting destructor'
PUBLIC	?GetClassMeta@i3Stream@@SAPAVi3ClassMeta@@XZ	; i3Stream::GetClassMeta
PUBLIC	?GetSize@i3Stream@@QAEIXZ			; i3Stream::GetSize
PUBLIC	?GetLastError@i3Stream@@QAE?AW4STREAMCODE@1@XZ	; i3Stream::GetLastError
PUBLIC	?GetAccessMode@i3Stream@@QAEHXZ			; i3Stream::GetAccessMode
PUBLIC	?GetHandle@i3Stream@@UAEPAXXZ			; i3Stream::GetHandle
PUBLIC	?BeginRecord@i3Stream@@QAEXXZ			; i3Stream::BeginRecord
PUBLIC	?GetRecordSize@i3Stream@@QAEIXZ			; i3Stream::GetRecordSize
PUBLIC	??0i3Stream@@QAE@ABV0@@Z			; i3Stream::i3Stream
PUBLIC	??4i3Stream@@QAEAAV0@ABV0@@Z			; i3Stream::operator=
PUBLIC	??_Gi3Stream@@UAEPAXI@Z				; i3Stream::`scalar deleting destructor'
PUBLIC	??_Ei3Stream@@UAEPAXI@Z				; i3Stream::`vector deleting destructor'
PUBLIC	?GetClassMeta@i3FileStream@@SAPAVi3ClassMeta@@XZ ; i3FileStream::GetClassMeta
PUBLIC	?GetHandle@i3FileStream@@UAEPAXXZ		; i3FileStream::GetHandle
PUBLIC	?GetFileName@i3FileStream@@QAEPADXZ		; i3FileStream::GetFileName
PUBLIC	?SetCaseSensitive@i3FileStream@@SAXH@Z		; i3FileStream::SetCaseSensitive
PUBLIC	?IsCaseSensitive@i3FileStream@@SAHXZ		; i3FileStream::IsCaseSensitive
PUBLIC	??0i3FileStream@@QAE@ABV0@@Z			; i3FileStream::i3FileStream
PUBLIC	??4i3FileStream@@QAEAAV0@ABV0@@Z		; i3FileStream::operator=
PUBLIC	??_Gi3FileStream@@UAEPAXI@Z			; i3FileStream::`scalar deleting destructor'
PUBLIC	??_Ei3FileStream@@UAEPAXI@Z			; i3FileStream::`vector deleting destructor'
PUBLIC	??0TiXmlString@@QAE@XZ				; TiXmlString::TiXmlString
PUBLIC	??0TiXmlString@@QAE@ABV0@@Z			; TiXmlString::TiXmlString
PUBLIC	??0TiXmlString@@QAE@PBD@Z			; TiXmlString::TiXmlString
PUBLIC	??0TiXmlString@@QAE@PBDI@Z			; TiXmlString::TiXmlString
PUBLIC	??1TiXmlString@@QAE@XZ				; TiXmlString::~TiXmlString
PUBLIC	??4TiXmlString@@QAEAAV0@PBD@Z			; TiXmlString::operator=
PUBLIC	??4TiXmlString@@QAEAAV0@ABV0@@Z			; TiXmlString::operator=
PUBLIC	??YTiXmlString@@QAEAAV0@PBD@Z			; TiXmlString::operator+=
PUBLIC	??YTiXmlString@@QAEAAV0@D@Z			; TiXmlString::operator+=
PUBLIC	??YTiXmlString@@QAEAAV0@ABV0@@Z			; TiXmlString::operator+=
PUBLIC	?c_str@TiXmlString@@QBEPBDXZ			; TiXmlString::c_str
PUBLIC	?data@TiXmlString@@QBEPBDXZ			; TiXmlString::data
PUBLIC	?length@TiXmlString@@QBEIXZ			; TiXmlString::length
PUBLIC	?size@TiXmlString@@QBEIXZ			; TiXmlString::size
PUBLIC	?empty@TiXmlString@@QBE_NXZ			; TiXmlString::empty
PUBLIC	?capacity@TiXmlString@@QBEIXZ			; TiXmlString::capacity
PUBLIC	?at@TiXmlString@@QBEABDI@Z			; TiXmlString::at
PUBLIC	??ATiXmlString@@QBEAADI@Z			; TiXmlString::operator[]
PUBLIC	?find@TiXmlString@@QBEID@Z			; TiXmlString::find
PUBLIC	?find@TiXmlString@@QBEIDI@Z			; TiXmlString::find
PUBLIC	?clear@TiXmlString@@QAEXXZ			; TiXmlString::clear
PUBLIC	?swap@TiXmlString@@QAEXAAV1@@Z			; TiXmlString::swap
PUBLIC	?init@TiXmlString@@AAEXI@Z			; TiXmlString::init
PUBLIC	?set_size@TiXmlString@@AAEXI@Z			; TiXmlString::set_size
PUBLIC	?start@TiXmlString@@ABEPADXZ			; TiXmlString::start
PUBLIC	?finish@TiXmlString@@ABEPADXZ			; TiXmlString::finish
PUBLIC	?init@TiXmlString@@AAEXII@Z			; TiXmlString::init
PUBLIC	?quit@TiXmlString@@AAEXXZ			; TiXmlString::quit
PUBLIC	??0TiXmlCursor@@QAE@XZ				; TiXmlCursor::TiXmlCursor
PUBLIC	?Clear@TiXmlCursor@@QAEXXZ			; TiXmlCursor::Clear
PUBLIC	??4TiXmlCursor@@QAEAAU0@ABU0@@Z			; TiXmlCursor::operator=
PUBLIC	??4TiXmlCursor@@QAEAAU0@$$QAU0@@Z		; TiXmlCursor::operator=
PUBLIC	??1TiXmlVisitor@@UAE@XZ				; TiXmlVisitor::~TiXmlVisitor
PUBLIC	?VisitEnter@TiXmlVisitor@@UAE_NABVTiXmlDocument@@@Z ; TiXmlVisitor::VisitEnter
PUBLIC	?VisitExit@TiXmlVisitor@@UAE_NABVTiXmlDocument@@@Z ; TiXmlVisitor::VisitExit
PUBLIC	?VisitEnter@TiXmlVisitor@@UAE_NABVTiXmlElement@@PBVTiXmlAttribute@@@Z ; TiXmlVisitor::VisitEnter
PUBLIC	?VisitExit@TiXmlVisitor@@UAE_NABVTiXmlElement@@@Z ; TiXmlVisitor::VisitExit
PUBLIC	?Visit@TiXmlVisitor@@UAE_NABVTiXmlDeclaration@@@Z ; TiXmlVisitor::Visit
PUBLIC	?Visit@TiXmlVisitor@@UAE_NABVTiXmlText@@@Z	; TiXmlVisitor::Visit
PUBLIC	?Visit@TiXmlVisitor@@UAE_NABVTiXmlComment@@@Z	; TiXmlVisitor::Visit
PUBLIC	?Visit@TiXmlVisitor@@UAE_NABVTiXmlUnknown@@@Z	; TiXmlVisitor::Visit
PUBLIC	??0TiXmlVisitor@@QAE@XZ				; TiXmlVisitor::TiXmlVisitor
PUBLIC	??0TiXmlVisitor@@QAE@ABV0@@Z			; TiXmlVisitor::TiXmlVisitor
PUBLIC	??4TiXmlVisitor@@QAEAAV0@ABV0@@Z		; TiXmlVisitor::operator=
PUBLIC	??_GTiXmlVisitor@@UAEPAXI@Z			; TiXmlVisitor::`scalar deleting destructor'
PUBLIC	??_ETiXmlVisitor@@UAEPAXI@Z			; TiXmlVisitor::`vector deleting destructor'
PUBLIC	??0TiXmlBase@@QAE@XZ				; TiXmlBase::TiXmlBase
PUBLIC	??1TiXmlBase@@UAE@XZ				; TiXmlBase::~TiXmlBase
PUBLIC	?SetCondenseWhiteSpace@TiXmlBase@@SAX_N@Z	; TiXmlBase::SetCondenseWhiteSpace
PUBLIC	?IsWhiteSpaceCondensed@TiXmlBase@@SA_NXZ	; TiXmlBase::IsWhiteSpaceCondensed
PUBLIC	?Row@TiXmlBase@@QBEHXZ				; TiXmlBase::Row
PUBLIC	?Column@TiXmlBase@@QBEHXZ			; TiXmlBase::Column
PUBLIC	?SetUserData@TiXmlBase@@QAEXPAX@Z		; TiXmlBase::SetUserData
PUBLIC	?GetUserData@TiXmlBase@@QAEPAXXZ		; TiXmlBase::GetUserData
PUBLIC	?GetUserData@TiXmlBase@@QBEPBXXZ		; TiXmlBase::GetUserData
PUBLIC	?EncodeString@TiXmlBase@@SAXABVTiXmlString@@PAV2@@Z ; TiXmlBase::EncodeString
PUBLIC	?IsWhiteSpace@TiXmlBase@@KA_ND@Z		; TiXmlBase::IsWhiteSpace
PUBLIC	?IsWhiteSpace@TiXmlBase@@KA_NH@Z		; TiXmlBase::IsWhiteSpace
PUBLIC	?GetChar@TiXmlBase@@KAPBDPBDPADPAHW4TiXmlEncoding@@@Z ; TiXmlBase::GetChar
PUBLIC	?ToLower@TiXmlBase@@KAHHW4TiXmlEncoding@@@Z	; TiXmlBase::ToLower
PUBLIC	??_GTiXmlBase@@UAEPAXI@Z			; TiXmlBase::`scalar deleting destructor'
PUBLIC	??_ETiXmlBase@@UAEPAXI@Z			; TiXmlBase::`vector deleting destructor'
PUBLIC	??1TiXmlNode@@UAE@XZ				; TiXmlNode::~TiXmlNode
PUBLIC	?Value@TiXmlNode@@QBEPBDXZ			; TiXmlNode::Value
PUBLIC	?ValueTStr@TiXmlNode@@QBEABVTiXmlString@@XZ	; TiXmlNode::ValueTStr
PUBLIC	?SetValue@TiXmlNode@@QAEXPBD@Z			; TiXmlNode::SetValue
PUBLIC	?Clear@TiXmlNode@@QAEXXZ			; TiXmlNode::Clear
PUBLIC	?Parent@TiXmlNode@@QAEPAV1@XZ			; TiXmlNode::Parent
PUBLIC	?Parent@TiXmlNode@@QBEPBV1@XZ			; TiXmlNode::Parent
PUBLIC	?FirstChild@TiXmlNode@@QBEPBV1@XZ		; TiXmlNode::FirstChild
PUBLIC	?FirstChild@TiXmlNode@@QAEPAV1@XZ		; TiXmlNode::FirstChild
PUBLIC	?FirstChild@TiXmlNode@@QBEPBV1@PBD@Z		; TiXmlNode::FirstChild
PUBLIC	?FirstChild@TiXmlNode@@QAEPAV1@PBD@Z		; TiXmlNode::FirstChild
PUBLIC	?LastChild@TiXmlNode@@QBEPBV1@XZ		; TiXmlNode::LastChild
PUBLIC	?LastChild@TiXmlNode@@QAEPAV1@XZ		; TiXmlNode::LastChild
PUBLIC	?LastChild@TiXmlNode@@QBEPBV1@PBD@Z		; TiXmlNode::LastChild
PUBLIC	?LastChild@TiXmlNode@@QAEPAV1@PBD@Z		; TiXmlNode::LastChild
PUBLIC	?IterateChildren@TiXmlNode@@QBEPBV1@PBV1@@Z	; TiXmlNode::IterateChildren
PUBLIC	?IterateChildren@TiXmlNode@@QAEPAV1@PBV1@@Z	; TiXmlNode::IterateChildren
PUBLIC	?IterateChildren@TiXmlNode@@QBEPBV1@PBDPBV1@@Z	; TiXmlNode::IterateChildren
PUBLIC	?IterateChildren@TiXmlNode@@QAEPAV1@PBDPBV1@@Z	; TiXmlNode::IterateChildren
PUBLIC	?InsertEndChild@TiXmlNode@@QAEPAV1@ABV1@@Z	; TiXmlNode::InsertEndChild
PUBLIC	?LinkEndChild@TiXmlNode@@QAEPAV1@PAV1@@Z	; TiXmlNode::LinkEndChild
PUBLIC	?InsertBeforeChild@TiXmlNode@@QAEPAV1@PAV1@ABV1@@Z ; TiXmlNode::InsertBeforeChild
PUBLIC	?InsertAfterChild@TiXmlNode@@QAEPAV1@PAV1@ABV1@@Z ; TiXmlNode::InsertAfterChild
PUBLIC	?ReplaceChild@TiXmlNode@@QAEPAV1@PAV1@ABV1@@Z	; TiXmlNode::ReplaceChild
PUBLIC	?RemoveChild@TiXmlNode@@QAE_NPAV1@@Z		; TiXmlNode::RemoveChild
PUBLIC	?PreviousSibling@TiXmlNode@@QBEPBV1@XZ		; TiXmlNode::PreviousSibling
PUBLIC	?PreviousSibling@TiXmlNode@@QAEPAV1@XZ		; TiXmlNode::PreviousSibling
PUBLIC	?PreviousSibling@TiXmlNode@@QBEPBV1@PBD@Z	; TiXmlNode::PreviousSibling
PUBLIC	?PreviousSibling@TiXmlNode@@QAEPAV1@PBD@Z	; TiXmlNode::PreviousSibling
PUBLIC	?NextSibling@TiXmlNode@@QBEPBV1@XZ		; TiXmlNode::NextSibling
PUBLIC	?NextSibling@TiXmlNode@@QAEPAV1@XZ		; TiXmlNode::NextSibling
PUBLIC	?NextSibling@TiXmlNode@@QBEPBV1@PBD@Z		; TiXmlNode::NextSibling
PUBLIC	?NextSibling@TiXmlNode@@QAEPAV1@PBD@Z		; TiXmlNode::NextSibling
PUBLIC	?NextSiblingElement@TiXmlNode@@QBEPBVTiXmlElement@@XZ ; TiXmlNode::NextSiblingElement
PUBLIC	?NextSiblingElement@TiXmlNode@@QAEPAVTiXmlElement@@XZ ; TiXmlNode::NextSiblingElement
PUBLIC	?NextSiblingElement@TiXmlNode@@QBEPBVTiXmlElement@@PBD@Z ; TiXmlNode::NextSiblingElement
PUBLIC	?NextSiblingElement@TiXmlNode@@QAEPAVTiXmlElement@@PBD@Z ; TiXmlNode::NextSiblingElement
PUBLIC	?FirstChildElement@TiXmlNode@@QBEPBVTiXmlElement@@XZ ; TiXmlNode::FirstChildElement
PUBLIC	?FirstChildElement@TiXmlNode@@QAEPAVTiXmlElement@@XZ ; TiXmlNode::FirstChildElement
PUBLIC	?FirstChildElement@TiXmlNode@@QBEPBVTiXmlElement@@PBD@Z ; TiXmlNode::FirstChildElement
PUBLIC	?FirstChildElement@TiXmlNode@@QAEPAVTiXmlElement@@PBD@Z ; TiXmlNode::FirstChildElement
PUBLIC	?Type@TiXmlNode@@QBEHXZ				; TiXmlNode::Type
PUBLIC	?GetDocument@TiXmlNode@@QBEPBVTiXmlDocument@@XZ	; TiXmlNode::GetDocument
PUBLIC	?GetDocument@TiXmlNode@@QAEPAVTiXmlDocument@@XZ	; TiXmlNode::GetDocument
PUBLIC	?NoChildren@TiXmlNode@@QBE_NXZ			; TiXmlNode::NoChildren
PUBLIC	?ToDocument@TiXmlNode@@UBEPBVTiXmlDocument@@XZ	; TiXmlNode::ToDocument
PUBLIC	?ToElement@TiXmlNode@@UBEPBVTiXmlElement@@XZ	; TiXmlNode::ToElement
PUBLIC	?ToComment@TiXmlNode@@UBEPBVTiXmlComment@@XZ	; TiXmlNode::ToComment
PUBLIC	?ToUnknown@TiXmlNode@@UBEPBVTiXmlUnknown@@XZ	; TiXmlNode::ToUnknown
PUBLIC	?ToText@TiXmlNode@@UBEPBVTiXmlText@@XZ		; TiXmlNode::ToText
PUBLIC	?ToDeclaration@TiXmlNode@@UBEPBVTiXmlDeclaration@@XZ ; TiXmlNode::ToDeclaration
PUBLIC	?ToDocument@TiXmlNode@@UAEPAVTiXmlDocument@@XZ	; TiXmlNode::ToDocument
PUBLIC	?ToElement@TiXmlNode@@UAEPAVTiXmlElement@@XZ	; TiXmlNode::ToElement
PUBLIC	?ToComment@TiXmlNode@@UAEPAVTiXmlComment@@XZ	; TiXmlNode::ToComment
PUBLIC	?ToUnknown@TiXmlNode@@UAEPAVTiXmlUnknown@@XZ	; TiXmlNode::ToUnknown
PUBLIC	?ToText@TiXmlNode@@UAEPAVTiXmlText@@XZ		; TiXmlNode::ToText
PUBLIC	?ToDeclaration@TiXmlNode@@UAEPAVTiXmlDeclaration@@XZ ; TiXmlNode::ToDeclaration
PUBLIC	??0TiXmlNode@@IAE@W4NodeType@0@@Z		; TiXmlNode::TiXmlNode
PUBLIC	?CopyTo@TiXmlNode@@IBEXPAV1@@Z			; TiXmlNode::CopyTo
PUBLIC	??_GTiXmlNode@@UAEPAXI@Z			; TiXmlNode::`scalar deleting destructor'
PUBLIC	??_ETiXmlNode@@UAEPAXI@Z			; TiXmlNode::`vector deleting destructor'
PUBLIC	??0TiXmlAttribute@@QAE@XZ			; TiXmlAttribute::TiXmlAttribute
PUBLIC	??0TiXmlAttribute@@QAE@PBD0@Z			; TiXmlAttribute::TiXmlAttribute
PUBLIC	?Name@TiXmlAttribute@@QBEPBDXZ			; TiXmlAttribute::Name
PUBLIC	?Value@TiXmlAttribute@@QBEPBDXZ			; TiXmlAttribute::Value
PUBLIC	?IntValue@TiXmlAttribute@@QBEHXZ		; TiXmlAttribute::IntValue
PUBLIC	?DoubleValue@TiXmlAttribute@@QBENXZ		; TiXmlAttribute::DoubleValue
PUBLIC	?NameTStr@TiXmlAttribute@@QBEABVTiXmlString@@XZ	; TiXmlAttribute::NameTStr
PUBLIC	?QueryIntValue@TiXmlAttribute@@QBEHPAH@Z	; TiXmlAttribute::QueryIntValue
PUBLIC	?QueryDoubleValue@TiXmlAttribute@@QBEHPAN@Z	; TiXmlAttribute::QueryDoubleValue
PUBLIC	?SetName@TiXmlAttribute@@QAEXPBD@Z		; TiXmlAttribute::SetName
PUBLIC	?SetValue@TiXmlAttribute@@QAEXPBD@Z		; TiXmlAttribute::SetValue
PUBLIC	?SetIntValue@TiXmlAttribute@@QAEXH@Z		; TiXmlAttribute::SetIntValue
PUBLIC	?SetDoubleValue@TiXmlAttribute@@QAEXN@Z		; TiXmlAttribute::SetDoubleValue
PUBLIC	?Next@TiXmlAttribute@@QBEPBV1@XZ		; TiXmlAttribute::Next
PUBLIC	?Next@TiXmlAttribute@@QAEPAV1@XZ		; TiXmlAttribute::Next
PUBLIC	?Previous@TiXmlAttribute@@QBEPBV1@XZ		; TiXmlAttribute::Previous
PUBLIC	?Previous@TiXmlAttribute@@QAEPAV1@XZ		; TiXmlAttribute::Previous
PUBLIC	??8TiXmlAttribute@@QBE_NABV0@@Z			; TiXmlAttribute::operator==
PUBLIC	??MTiXmlAttribute@@QBE_NABV0@@Z			; TiXmlAttribute::operator<
PUBLIC	??OTiXmlAttribute@@QBE_NABV0@@Z			; TiXmlAttribute::operator>
PUBLIC	?Print@TiXmlAttribute@@UBEXPAVi3FileStream@@H@Z	; TiXmlAttribute::Print
PUBLIC	?Print@TiXmlAttribute@@QBEXPAVi3FileStream@@HPAVTiXmlString@@@Z ; TiXmlAttribute::Print
PUBLIC	?SetDocument@TiXmlAttribute@@QAEXPAVTiXmlDocument@@@Z ; TiXmlAttribute::SetDocument
PUBLIC	??1TiXmlAttribute@@UAE@XZ			; TiXmlAttribute::~TiXmlAttribute
PUBLIC	??_GTiXmlAttribute@@UAEPAXI@Z			; TiXmlAttribute::`scalar deleting destructor'
PUBLIC	??_ETiXmlAttribute@@UAEPAXI@Z			; TiXmlAttribute::`vector deleting destructor'
PUBLIC	??0TiXmlAttributeSet@@QAE@XZ			; TiXmlAttributeSet::TiXmlAttributeSet
PUBLIC	??1TiXmlAttributeSet@@QAE@XZ			; TiXmlAttributeSet::~TiXmlAttributeSet
PUBLIC	?Add@TiXmlAttributeSet@@QAEXPAVTiXmlAttribute@@@Z ; TiXmlAttributeSet::Add
PUBLIC	?Remove@TiXmlAttributeSet@@QAEXPAVTiXmlAttribute@@@Z ; TiXmlAttributeSet::Remove
PUBLIC	?First@TiXmlAttributeSet@@QBEPBVTiXmlAttribute@@XZ ; TiXmlAttributeSet::First
PUBLIC	?First@TiXmlAttributeSet@@QAEPAVTiXmlAttribute@@XZ ; TiXmlAttributeSet::First
PUBLIC	?Last@TiXmlAttributeSet@@QBEPBVTiXmlAttribute@@XZ ; TiXmlAttributeSet::Last
PUBLIC	?Last@TiXmlAttributeSet@@QAEPAVTiXmlAttribute@@XZ ; TiXmlAttributeSet::Last
PUBLIC	?Find@TiXmlAttributeSet@@QBEPBVTiXmlAttribute@@PBD@Z ; TiXmlAttributeSet::Find
PUBLIC	?Find@TiXmlAttributeSet@@QAEPAVTiXmlAttribute@@PBD@Z ; TiXmlAttributeSet::Find
PUBLIC	??0TiXmlElement@@QAE@PBD@Z			; TiXmlElement::TiXmlElement
PUBLIC	??0TiXmlElement@@QAE@ABV0@@Z			; TiXmlElement::TiXmlElement
PUBLIC	??4TiXmlElement@@QAEXABV0@@Z			; TiXmlElement::operator=
PUBLIC	??1TiXmlElement@@UAE@XZ				; TiXmlElement::~TiXmlElement
PUBLIC	?Attribute@TiXmlElement@@QBEPBDPBD@Z		; TiXmlElement::Attribute
PUBLIC	?Attribute@TiXmlElement@@QBEPBDPBDPAH@Z		; TiXmlElement::Attribute
PUBLIC	?AttributeLong@TiXmlElement@@QBEPBDPBDPA_J@Z	; TiXmlElement::AttributeLong
PUBLIC	?Attribute@TiXmlElement@@QBEPBDPBDPAN@Z		; TiXmlElement::Attribute
PUBLIC	?QueryIntAttribute@TiXmlElement@@QBEHPBDPAH@Z	; TiXmlElement::QueryIntAttribute
PUBLIC	?QueryDoubleAttribute@TiXmlElement@@QBEHPBDPAN@Z ; TiXmlElement::QueryDoubleAttribute
PUBLIC	?QueryFloatAttribute@TiXmlElement@@QBEHPBDPAM@Z	; TiXmlElement::QueryFloatAttribute
PUBLIC	?SetAttribute@TiXmlElement@@QAEXPBD0@Z		; TiXmlElement::SetAttribute
PUBLIC	?SetAttribute@TiXmlElement@@QAEXPBDH@Z		; TiXmlElement::SetAttribute
PUBLIC	?SetLongLongAttribute@TiXmlElement@@QAEXPBD_J@Z	; TiXmlElement::SetLongLongAttribute
PUBLIC	?SetDoubleAttribute@TiXmlElement@@QAEXPBDN@Z	; TiXmlElement::SetDoubleAttribute
PUBLIC	?SetAttribute@TiXmlElement@@QAEXPBDM@Z		; TiXmlElement::SetAttribute
PUBLIC	?RemoveAttribute@TiXmlElement@@QAEXPBD@Z	; TiXmlElement::RemoveAttribute
PUBLIC	?FirstAttribute@TiXmlElement@@QBEPBVTiXmlAttribute@@XZ ; TiXmlElement::FirstAttribute
PUBLIC	?FirstAttribute@TiXmlElement@@QAEPAVTiXmlAttribute@@XZ ; TiXmlElement::FirstAttribute
PUBLIC	?LastAttribute@TiXmlElement@@QBEPBVTiXmlAttribute@@XZ ; TiXmlElement::LastAttribute
PUBLIC	?LastAttribute@TiXmlElement@@QAEPAVTiXmlAttribute@@XZ ; TiXmlElement::LastAttribute
PUBLIC	?GetText@TiXmlElement@@QBEPBDXZ			; TiXmlElement::GetText
PUBLIC	?Clone@TiXmlElement@@UBEPAVTiXmlNode@@XZ	; TiXmlElement::Clone
PUBLIC	?Print@TiXmlElement@@UBEXPAVi3FileStream@@H@Z	; TiXmlElement::Print
PUBLIC	?ToElement@TiXmlElement@@UBEPBV1@XZ		; TiXmlElement::ToElement
PUBLIC	?ToElement@TiXmlElement@@UAEPAV1@XZ		; TiXmlElement::ToElement
PUBLIC	?Accept@TiXmlElement@@UBE_NPAVTiXmlVisitor@@@Z	; TiXmlElement::Accept
PUBLIC	?CopyTo@TiXmlElement@@IBEXPAV1@@Z		; TiXmlElement::CopyTo
PUBLIC	?ClearThis@TiXmlElement@@IAEXXZ			; TiXmlElement::ClearThis
PUBLIC	??_GTiXmlElement@@UAEPAXI@Z			; TiXmlElement::`scalar deleting destructor'
PUBLIC	??_ETiXmlElement@@UAEPAXI@Z			; TiXmlElement::`vector deleting destructor'
PUBLIC	??0TiXmlComment@@QAE@XZ				; TiXmlComment::TiXmlComment
PUBLIC	??0TiXmlComment@@QAE@PBD@Z			; TiXmlComment::TiXmlComment
PUBLIC	??0TiXmlComment@@QAE@ABV0@@Z			; TiXmlComment::TiXmlComment
PUBLIC	??4TiXmlComment@@QAEXABV0@@Z			; TiXmlComment::operator=
PUBLIC	??1TiXmlComment@@UAE@XZ				; TiXmlComment::~TiXmlComment
PUBLIC	?Clone@TiXmlComment@@UBEPAVTiXmlNode@@XZ	; TiXmlComment::Clone
PUBLIC	?Print@TiXmlComment@@UBEXPAVi3FileStream@@H@Z	; TiXmlComment::Print
PUBLIC	?ToComment@TiXmlComment@@UBEPBV1@XZ		; TiXmlComment::ToComment
PUBLIC	?ToComment@TiXmlComment@@UAEPAV1@XZ		; TiXmlComment::ToComment
PUBLIC	?Accept@TiXmlComment@@UBE_NPAVTiXmlVisitor@@@Z	; TiXmlComment::Accept
PUBLIC	?CopyTo@TiXmlComment@@IBEXPAV1@@Z		; TiXmlComment::CopyTo
PUBLIC	??_GTiXmlComment@@UAEPAXI@Z			; TiXmlComment::`scalar deleting destructor'
PUBLIC	??_ETiXmlComment@@UAEPAXI@Z			; TiXmlComment::`vector deleting destructor'
PUBLIC	??0TiXmlText@@QAE@PBD@Z				; TiXmlText::TiXmlText
PUBLIC	??1TiXmlText@@UAE@XZ				; TiXmlText::~TiXmlText
PUBLIC	??0TiXmlText@@QAE@ABV0@@Z			; TiXmlText::TiXmlText
PUBLIC	??4TiXmlText@@QAEXABV0@@Z			; TiXmlText::operator=
PUBLIC	?Print@TiXmlText@@UBEXPAVi3FileStream@@H@Z	; TiXmlText::Print
PUBLIC	?CDATA@TiXmlText@@QBE_NXZ			; TiXmlText::CDATA
PUBLIC	?SetCDATA@TiXmlText@@QAEX_N@Z			; TiXmlText::SetCDATA
PUBLIC	?ToText@TiXmlText@@UBEPBV1@XZ			; TiXmlText::ToText
PUBLIC	?ToText@TiXmlText@@UAEPAV1@XZ			; TiXmlText::ToText
PUBLIC	?Accept@TiXmlText@@UBE_NPAVTiXmlVisitor@@@Z	; TiXmlText::Accept
PUBLIC	?Clone@TiXmlText@@MBEPAVTiXmlNode@@XZ		; TiXmlText::Clone
PUBLIC	?CopyTo@TiXmlText@@IBEXPAV1@@Z			; TiXmlText::CopyTo
PUBLIC	??_GTiXmlText@@UAEPAXI@Z			; TiXmlText::`scalar deleting destructor'
PUBLIC	??_ETiXmlText@@UAEPAXI@Z			; TiXmlText::`vector deleting destructor'
PUBLIC	??0TiXmlDeclaration@@QAE@XZ			; TiXmlDeclaration::TiXmlDeclaration
PUBLIC	??0TiXmlDeclaration@@QAE@PBD00@Z		; TiXmlDeclaration::TiXmlDeclaration
PUBLIC	??0TiXmlDeclaration@@QAE@ABV0@@Z		; TiXmlDeclaration::TiXmlDeclaration
PUBLIC	??4TiXmlDeclaration@@QAEXABV0@@Z		; TiXmlDeclaration::operator=
PUBLIC	??1TiXmlDeclaration@@UAE@XZ			; TiXmlDeclaration::~TiXmlDeclaration
PUBLIC	?Version@TiXmlDeclaration@@QBEPBDXZ		; TiXmlDeclaration::Version
PUBLIC	?Encoding@TiXmlDeclaration@@QBEPBDXZ		; TiXmlDeclaration::Encoding
PUBLIC	?Standalone@TiXmlDeclaration@@QBEPBDXZ		; TiXmlDeclaration::Standalone
PUBLIC	?Clone@TiXmlDeclaration@@UBEPAVTiXmlNode@@XZ	; TiXmlDeclaration::Clone
PUBLIC	?Print@TiXmlDeclaration@@UBEXPAVi3FileStream@@HPAVTiXmlString@@@Z ; TiXmlDeclaration::Print
PUBLIC	?Print@TiXmlDeclaration@@UBEXPAVi3FileStream@@H@Z ; TiXmlDeclaration::Print
PUBLIC	?ToDeclaration@TiXmlDeclaration@@UBEPBV1@XZ	; TiXmlDeclaration::ToDeclaration
PUBLIC	?ToDeclaration@TiXmlDeclaration@@UAEPAV1@XZ	; TiXmlDeclaration::ToDeclaration
PUBLIC	?Accept@TiXmlDeclaration@@UBE_NPAVTiXmlVisitor@@@Z ; TiXmlDeclaration::Accept
PUBLIC	?CopyTo@TiXmlDeclaration@@IBEXPAV1@@Z		; TiXmlDeclaration::CopyTo
PUBLIC	??_GTiXmlDeclaration@@UAEPAXI@Z			; TiXmlDeclaration::`scalar deleting destructor'
PUBLIC	??_ETiXmlDeclaration@@UAEPAXI@Z			; TiXmlDeclaration::`vector deleting destructor'
PUBLIC	??0TiXmlUnknown@@QAE@XZ				; TiXmlUnknown::TiXmlUnknown
PUBLIC	??1TiXmlUnknown@@UAE@XZ				; TiXmlUnknown::~TiXmlUnknown
PUBLIC	??0TiXmlUnknown@@QAE@ABV0@@Z			; TiXmlUnknown::TiXmlUnknown
PUBLIC	??4TiXmlUnknown@@QAEXABV0@@Z			; TiXmlUnknown::operator=
PUBLIC	?Clone@TiXmlUnknown@@UBEPAVTiXmlNode@@XZ	; TiXmlUnknown::Clone
PUBLIC	?Print@TiXmlUnknown@@UBEXPAVi3FileStream@@H@Z	; TiXmlUnknown::Print
PUBLIC	?ToUnknown@TiXmlUnknown@@UBEPBV1@XZ		; TiXmlUnknown::ToUnknown
PUBLIC	?ToUnknown@TiXmlUnknown@@UAEPAV1@XZ		; TiXmlUnknown::ToUnknown
PUBLIC	?Accept@TiXmlUnknown@@UBE_NPAVTiXmlVisitor@@@Z	; TiXmlUnknown::Accept
PUBLIC	?CopyTo@TiXmlUnknown@@IBEXPAV1@@Z		; TiXmlUnknown::CopyTo
PUBLIC	??_GTiXmlUnknown@@UAEPAXI@Z			; TiXmlUnknown::`scalar deleting destructor'
PUBLIC	??_ETiXmlUnknown@@UAEPAXI@Z			; TiXmlUnknown::`vector deleting destructor'
PUBLIC	??0TiXmlDocument@@QAE@XZ			; TiXmlDocument::TiXmlDocument
PUBLIC	??0TiXmlDocument@@QAE@PBD@Z			; TiXmlDocument::TiXmlDocument
PUBLIC	??0TiXmlDocument@@QAE@ABV0@@Z			; TiXmlDocument::TiXmlDocument
PUBLIC	??4TiXmlDocument@@QAEXABV0@@Z			; TiXmlDocument::operator=
PUBLIC	??1TiXmlDocument@@UAE@XZ			; TiXmlDocument::~TiXmlDocument
PUBLIC	?LoadFile@TiXmlDocument@@QAE_NW4TiXmlEncoding@@@Z ; TiXmlDocument::LoadFile
PUBLIC	?SaveFile@TiXmlDocument@@QAE_NXZ		; TiXmlDocument::SaveFile
PUBLIC	?LoadFile@TiXmlDocument@@QAE_NPBDW4TiXmlEncoding@@@Z ; TiXmlDocument::LoadFile
PUBLIC	?SaveFile@TiXmlDocument@@QAE_NPBD@Z		; TiXmlDocument::SaveFile
PUBLIC	?LoadFile@TiXmlDocument@@QAE_NPAVi3FileStream@@W4TiXmlEncoding@@@Z ; TiXmlDocument::LoadFile
PUBLIC	?SaveFile@TiXmlDocument@@QBE_NPAVi3FileStream@@@Z ; TiXmlDocument::SaveFile
PUBLIC	?RootElement@TiXmlDocument@@QBEPBVTiXmlElement@@XZ ; TiXmlDocument::RootElement
PUBLIC	?RootElement@TiXmlDocument@@QAEPAVTiXmlElement@@XZ ; TiXmlDocument::RootElement
PUBLIC	?Error@TiXmlDocument@@QBE_NXZ			; TiXmlDocument::Error
PUBLIC	?ErrorDesc@TiXmlDocument@@QBEPBDXZ		; TiXmlDocument::ErrorDesc
PUBLIC	?ErrorId@TiXmlDocument@@QBEHXZ			; TiXmlDocument::ErrorId
PUBLIC	?ErrorRow@TiXmlDocument@@QBEHXZ			; TiXmlDocument::ErrorRow
PUBLIC	?ErrorCol@TiXmlDocument@@QBEHXZ			; TiXmlDocument::ErrorCol
PUBLIC	?SetTabSize@TiXmlDocument@@QAEXH@Z		; TiXmlDocument::SetTabSize
PUBLIC	?TabSize@TiXmlDocument@@QBEHXZ			; TiXmlDocument::TabSize
PUBLIC	?ClearError@TiXmlDocument@@QAEXXZ		; TiXmlDocument::ClearError
PUBLIC	?Print@TiXmlDocument@@UBEXPAVi3FileStream@@H@Z	; TiXmlDocument::Print
PUBLIC	?ToDocument@TiXmlDocument@@UBEPBV1@XZ		; TiXmlDocument::ToDocument
PUBLIC	?ToDocument@TiXmlDocument@@UAEPAV1@XZ		; TiXmlDocument::ToDocument
PUBLIC	?Accept@TiXmlDocument@@UBE_NPAVTiXmlVisitor@@@Z	; TiXmlDocument::Accept
PUBLIC	?GetSize@TiXmlDocument@@QAEIXZ			; TiXmlDocument::GetSize
PUBLIC	?Clone@TiXmlDocument@@MBEPAVTiXmlNode@@XZ	; TiXmlDocument::Clone
PUBLIC	?CopyTo@TiXmlDocument@@ABEXPAV1@@Z		; TiXmlDocument::CopyTo
PUBLIC	??_GTiXmlDocument@@UAEPAXI@Z			; TiXmlDocument::`scalar deleting destructor'
PUBLIC	??_ETiXmlDocument@@UAEPAXI@Z			; TiXmlDocument::`vector deleting destructor'
PUBLIC	??0TiXmlHandle@@QAE@PAVTiXmlNode@@@Z		; TiXmlHandle::TiXmlHandle
PUBLIC	??0TiXmlHandle@@QAE@ABV0@@Z			; TiXmlHandle::TiXmlHandle
PUBLIC	??4TiXmlHandle@@QAE?AV0@ABV0@@Z			; TiXmlHandle::operator=
PUBLIC	?FirstChild@TiXmlHandle@@QBE?AV1@XZ		; TiXmlHandle::FirstChild
PUBLIC	?FirstChild@TiXmlHandle@@QBE?AV1@PBD@Z		; TiXmlHandle::FirstChild
PUBLIC	?FirstChildElement@TiXmlHandle@@QBE?AV1@XZ	; TiXmlHandle::FirstChildElement
PUBLIC	?FirstChildElement@TiXmlHandle@@QBE?AV1@PBD@Z	; TiXmlHandle::FirstChildElement
PUBLIC	?Child@TiXmlHandle@@QBE?AV1@PBDH@Z		; TiXmlHandle::Child
PUBLIC	?Child@TiXmlHandle@@QBE?AV1@H@Z			; TiXmlHandle::Child
PUBLIC	?ChildElement@TiXmlHandle@@QBE?AV1@PBDH@Z	; TiXmlHandle::ChildElement
PUBLIC	?ChildElement@TiXmlHandle@@QBE?AV1@H@Z		; TiXmlHandle::ChildElement
PUBLIC	?ToNode@TiXmlHandle@@QBEPAVTiXmlNode@@XZ	; TiXmlHandle::ToNode
PUBLIC	?ToElement@TiXmlHandle@@QBEPAVTiXmlElement@@XZ	; TiXmlHandle::ToElement
PUBLIC	?ToText@TiXmlHandle@@QBEPAVTiXmlText@@XZ	; TiXmlHandle::ToText
PUBLIC	?ToUnknown@TiXmlHandle@@QBEPAVTiXmlUnknown@@XZ	; TiXmlHandle::ToUnknown
PUBLIC	?Node@TiXmlHandle@@QBEPAVTiXmlNode@@XZ		; TiXmlHandle::Node
PUBLIC	?Element@TiXmlHandle@@QBEPAVTiXmlElement@@XZ	; TiXmlHandle::Element
PUBLIC	?Text@TiXmlHandle@@QBEPAVTiXmlText@@XZ		; TiXmlHandle::Text
PUBLIC	?Unknown@TiXmlHandle@@QBEPAVTiXmlUnknown@@XZ	; TiXmlHandle::Unknown
PUBLIC	??0TiXmlPrinter@@QAE@XZ				; TiXmlPrinter::TiXmlPrinter
PUBLIC	?VisitEnter@TiXmlPrinter@@UAE_NABVTiXmlDocument@@@Z ; TiXmlPrinter::VisitEnter
PUBLIC	?VisitExit@TiXmlPrinter@@UAE_NABVTiXmlDocument@@@Z ; TiXmlPrinter::VisitExit
PUBLIC	?VisitEnter@TiXmlPrinter@@UAE_NABVTiXmlElement@@PBVTiXmlAttribute@@@Z ; TiXmlPrinter::VisitEnter
PUBLIC	?VisitExit@TiXmlPrinter@@UAE_NABVTiXmlElement@@@Z ; TiXmlPrinter::VisitExit
PUBLIC	?Visit@TiXmlPrinter@@UAE_NABVTiXmlDeclaration@@@Z ; TiXmlPrinter::Visit
PUBLIC	?Visit@TiXmlPrinter@@UAE_NABVTiXmlText@@@Z	; TiXmlPrinter::Visit
PUBLIC	?Visit@TiXmlPrinter@@UAE_NABVTiXmlComment@@@Z	; TiXmlPrinter::Visit
PUBLIC	?Visit@TiXmlPrinter@@UAE_NABVTiXmlUnknown@@@Z	; TiXmlPrinter::Visit
PUBLIC	?SetIndent@TiXmlPrinter@@QAEXPBD@Z		; TiXmlPrinter::SetIndent
PUBLIC	?Indent@TiXmlPrinter@@QAEPBDXZ			; TiXmlPrinter::Indent
PUBLIC	?SetLineBreak@TiXmlPrinter@@QAEXPBD@Z		; TiXmlPrinter::SetLineBreak
PUBLIC	?LineBreak@TiXmlPrinter@@QAEPBDXZ		; TiXmlPrinter::LineBreak
PUBLIC	?SetStreamPrinting@TiXmlPrinter@@QAEXXZ		; TiXmlPrinter::SetStreamPrinting
PUBLIC	?CStr@TiXmlPrinter@@QAEPBDXZ			; TiXmlPrinter::CStr
PUBLIC	?Size@TiXmlPrinter@@QAEIXZ			; TiXmlPrinter::Size
PUBLIC	?DoIndent@TiXmlPrinter@@AAEXXZ			; TiXmlPrinter::DoIndent
PUBLIC	?DoLineBreak@TiXmlPrinter@@AAEXXZ		; TiXmlPrinter::DoLineBreak
PUBLIC	??1TiXmlPrinter@@UAE@XZ				; TiXmlPrinter::~TiXmlPrinter
PUBLIC	??0TiXmlPrinter@@QAE@ABV0@@Z			; TiXmlPrinter::TiXmlPrinter
PUBLIC	??0TiXmlPrinter@@QAE@$$QAV0@@Z			; TiXmlPrinter::TiXmlPrinter
PUBLIC	??4TiXmlPrinter@@QAEAAV0@ABV0@@Z		; TiXmlPrinter::operator=
PUBLIC	??4TiXmlPrinter@@QAEAAV0@$$QAV0@@Z		; TiXmlPrinter::operator=
PUBLIC	??_GTiXmlPrinter@@UAEPAXI@Z			; TiXmlPrinter::`scalar deleting destructor'
PUBLIC	??_ETiXmlPrinter@@UAEPAXI@Z			; TiXmlPrinter::`vector deleting destructor'
PUBLIC	?TiXmlFOpen@@YAPAVi3FileStream@@PBDH@Z		; TiXmlFOpen
PUBLIC	??$_snprintf_s@$0CA@@@YAHAAY0CA@DIPBDZZ		; _snprintf_s<32>
PUBLIC	??$_snprintf_s@$0EA@@@YAHAAY0EA@DIPBDZZ		; _snprintf_s<64>
PUBLIC	??$_snprintf_s@$0BAA@@@YAHAAY0BAA@DIPBDZZ	; _snprintf_s<256>
PUBLIC	?_OptionsStorage@?1??__local_stdio_printf_options@@9@4_KA ; `__local_stdio_printf_options'::`2'::_OptionsStorage
PUBLIC	?_OptionsStorage@?1??__local_stdio_scanf_options@@9@4_KA ; `__local_stdio_scanf_options'::`2'::_OptionsStorage
PUBLIC	??_7i3ClassMeta@@6B@				; i3ClassMeta::`vftable'
PUBLIC	??_7i3ElementBase@@6B@				; i3ElementBase::`vftable'
PUBLIC	??_7i3MemoryPool@@6B@				; i3MemoryPool::`vftable'
PUBLIC	??_7i3Stream@@6B@				; i3Stream::`vftable'
PUBLIC	??_7i3FileStream@@6B@				; i3FileStream::`vftable'
PUBLIC	??_7TiXmlVisitor@@6B@				; TiXmlVisitor::`vftable'
PUBLIC	??_7TiXmlBase@@6B@				; TiXmlBase::`vftable'
PUBLIC	??_7TiXmlNode@@6B@				; TiXmlNode::`vftable'
PUBLIC	??_7TiXmlAttribute@@6B@				; TiXmlAttribute::`vftable'
PUBLIC	??_7TiXmlElement@@6B@				; TiXmlElement::`vftable'
PUBLIC	??_7TiXmlComment@@6B@				; TiXmlComment::`vftable'
PUBLIC	??_7TiXmlText@@6B@				; TiXmlText::`vftable'
PUBLIC	??_7TiXmlDeclaration@@6B@			; TiXmlDeclaration::`vftable'
PUBLIC	??_7TiXmlUnknown@@6B@				; TiXmlUnknown::`vftable'
PUBLIC	??_7TiXmlDocument@@6B@				; TiXmlDocument::`vftable'
PUBLIC	??_C@_00CNPNBAHC@@				; `string'
PUBLIC	??_7TiXmlPrinter@@6B@				; TiXmlPrinter::`vftable'
PUBLIC	??_C@_04PFOHOKJK@?5?5?5?5@			; `string'
PUBLIC	??_C@_01EEMJAFIK@?6@				; `string'
PUBLIC	??_C@_0DJ@BKFHPIBL@class?5i3FileStream?5?$CK__cdecl?5TiX@ ; `string'
PUBLIC	??_C@_0GC@BFFJFEAF@E?3?2Proyectos?2JuegosOnlineproyec@ ; `string'
PUBLIC	??_C@_0BG@FJLABLJP@Could?8t?5Open?5File?5?$CFs?6@ ; `string'
PUBLIC	??_C@_08LCBMGHJI@?$CG?$CDx?$CF02X?$DL@		; `string'
PUBLIC	??_C@_02DPKJAMEF@?$CFd@				; `string'
PUBLIC	??_C@_02NJPGOMH@?$CFf@				; `string'
PUBLIC	??_C@_05LLAMLEHD@?$CFI64d@			; `string'
PUBLIC	??_C@_03FONCMJME@?$DM?$CFs@			; `string'
PUBLIC	??_C@_01CLKCMJKC@?5@				; `string'
PUBLIC	??_C@_03MFNJFHN@?5?1?$DO@			; `string'
PUBLIC	??_C@_01PPODPGHN@?$DO@				; `string'
PUBLIC	??_C@_05POIKLDCH@?$DM?1?$CFs?$DO@		; `string'
PUBLIC	??_C@_07JDMHCBCA@?$CFs?$DN?$CC?$CFs?$CC@	; `string'
PUBLIC	??_C@_02ILLPBGAO@?$DN?$CC@			; `string'
PUBLIC	??_C@_01BJJEKLCA@?$CC@				; `string'
PUBLIC	??_C@_07CGFAFKBF@?$CFs?$DN?8?$CFs?8@		; `string'
PUBLIC	??_C@_02PGMIOCEL@?$DN?8@			; `string'
PUBLIC	??_C@_01GEODFPGF@?8@				; `string'
PUBLIC	??_C@_03DLDNIBIK@?$CFlf@			; `string'
PUBLIC	??_C@_09PNDCPLLD@?$DM?$CB?9?9?$CFs?9?9?$DO@	; `string'
PUBLIC	??_C@_0BA@HEAAMLOF@?$DM?$CB?$FLCDATA?$FL?$CFs?$FN?$FN?$DO?6@ ; `string'
PUBLIC	??_C@_02DKCKIIND@?$CFs@				; `string'
PUBLIC	??_C@_06CMNLMIOJ@?$DM?$DPxml?5@			; `string'
PUBLIC	??_C@_0O@LGPLJGNM@version?$DN?$CC?$CFs?$CC?5@	; `string'
PUBLIC	??_C@_09KGECPEDL@version?$DN?$CC@		; `string'
PUBLIC	??_C@_02KOPDJAMB@?$CC?5@			; `string'
PUBLIC	??_C@_0P@CJGKNICB@encoding?$DN?$CC?$CFs?$CC?5@	; `string'
PUBLIC	??_C@_0L@ENAAEPMN@encoding?$DN?$CC@		; `string'
PUBLIC	??_C@_0BB@OAOJGGEI@standalone?$DN?$CC?$CFs?$CC?5@ ; `string'
PUBLIC	??_C@_0N@IHAMHLOK@standalone?$DN?$CC@		; `string'
PUBLIC	??_C@_02GOEMJPDN@?$DP?$DO@			; `string'
PUBLIC	??_C@_04NNJCMPBN@?$DM?$CFs?$DO@			; `string'
PUBLIC	??_C@_01MNNFJEPP@?$DM@				; `string'
PUBLIC	??_C@_02DPNDACHE@?$DM?1@			; `string'
PUBLIC	??_C@_09BLLNCBLF@?$DM?$CB?$FLCDATA?$FL@		; `string'
PUBLIC	??_C@_03MCHNFBAC@?$FN?$FN?$DO@			; `string'
PUBLIC	??_C@_04FFDNBKGC@?$DM?$CB?9?9@			; `string'
PUBLIC	??_C@_03PNLDJJMO@?9?9?$DO@			; `string'
PUBLIC	??_R4i3ElementBase@@6B@				; i3ElementBase::`RTTI Complete Object Locator'
PUBLIC	??_R0?AVi3ElementBase@@@8			; i3ElementBase `RTTI Type Descriptor'
PUBLIC	??_R3i3ElementBase@@8				; i3ElementBase::`RTTI Class Hierarchy Descriptor'
PUBLIC	??_R2i3ElementBase@@8				; i3ElementBase::`RTTI Base Class Array'
PUBLIC	??_R1A@?0A@EA@i3ElementBase@@8			; i3ElementBase::`RTTI Base Class Descriptor at (0,-1,0,64)'
PUBLIC	??_R4i3MemoryPool@@6B@				; i3MemoryPool::`RTTI Complete Object Locator'
PUBLIC	??_R0?AVi3MemoryPool@@@8			; i3MemoryPool `RTTI Type Descriptor'
PUBLIC	??_R3i3MemoryPool@@8				; i3MemoryPool::`RTTI Class Hierarchy Descriptor'
PUBLIC	??_R2i3MemoryPool@@8				; i3MemoryPool::`RTTI Base Class Array'
PUBLIC	??_R1A@?0A@EA@i3MemoryPool@@8			; i3MemoryPool::`RTTI Base Class Descriptor at (0,-1,0,64)'
PUBLIC	??_R4i3ClassMeta@@6B@				; i3ClassMeta::`RTTI Complete Object Locator'
PUBLIC	??_R0?AVi3ClassMeta@@@8				; i3ClassMeta `RTTI Type Descriptor'
PUBLIC	??_R3i3ClassMeta@@8				; i3ClassMeta::`RTTI Class Hierarchy Descriptor'
PUBLIC	??_R2i3ClassMeta@@8				; i3ClassMeta::`RTTI Base Class Array'
PUBLIC	??_R1A@?0A@EA@i3ClassMeta@@8			; i3ClassMeta::`RTTI Base Class Descriptor at (0,-1,0,64)'
PUBLIC	??_R4i3Stream@@6B@				; i3Stream::`RTTI Complete Object Locator'
PUBLIC	??_R0?AVi3Stream@@@8				; i3Stream `RTTI Type Descriptor'
PUBLIC	??_R3i3Stream@@8				; i3Stream::`RTTI Class Hierarchy Descriptor'
PUBLIC	??_R2i3Stream@@8				; i3Stream::`RTTI Base Class Array'
PUBLIC	??_R1A@?0A@EA@i3Stream@@8			; i3Stream::`RTTI Base Class Descriptor at (0,-1,0,64)'
PUBLIC	??_R4i3FileStream@@6B@				; i3FileStream::`RTTI Complete Object Locator'
PUBLIC	??_R0?AVi3FileStream@@@8			; i3FileStream `RTTI Type Descriptor'
PUBLIC	??_R3i3FileStream@@8				; i3FileStream::`RTTI Class Hierarchy Descriptor'
PUBLIC	??_R2i3FileStream@@8				; i3FileStream::`RTTI Base Class Array'
PUBLIC	??_R1A@?0A@EA@i3FileStream@@8			; i3FileStream::`RTTI Base Class Descriptor at (0,-1,0,64)'
PUBLIC	??_R4TiXmlDocument@@6B@				; TiXmlDocument::`RTTI Complete Object Locator'
PUBLIC	??_R0?AVTiXmlDocument@@@8			; TiXmlDocument `RTTI Type Descriptor'
PUBLIC	??_R3TiXmlDocument@@8				; TiXmlDocument::`RTTI Class Hierarchy Descriptor'
PUBLIC	??_R2TiXmlDocument@@8				; TiXmlDocument::`RTTI Base Class Array'
PUBLIC	??_R1A@?0A@EA@TiXmlDocument@@8			; TiXmlDocument::`RTTI Base Class Descriptor at (0,-1,0,64)'
PUBLIC	??_R1A@?0A@EA@TiXmlNode@@8			; TiXmlNode::`RTTI Base Class Descriptor at (0,-1,0,64)'
PUBLIC	??_R0?AVTiXmlNode@@@8				; TiXmlNode `RTTI Type Descriptor'
PUBLIC	??_R3TiXmlNode@@8				; TiXmlNode::`RTTI Class Hierarchy Descriptor'
PUBLIC	??_R2TiXmlNode@@8				; TiXmlNode::`RTTI Base Class Array'
PUBLIC	??_R1A@?0A@EA@TiXmlBase@@8			; TiXmlBase::`RTTI Base Class Descriptor at (0,-1,0,64)'
PUBLIC	??_R0?AVTiXmlBase@@@8				; TiXmlBase `RTTI Type Descriptor'
PUBLIC	??_R3TiXmlBase@@8				; TiXmlBase::`RTTI Class Hierarchy Descriptor'
PUBLIC	??_R2TiXmlBase@@8				; TiXmlBase::`RTTI Base Class Array'
PUBLIC	??_R4TiXmlElement@@6B@				; TiXmlElement::`RTTI Complete Object Locator'
PUBLIC	??_R0?AVTiXmlElement@@@8			; TiXmlElement `RTTI Type Descriptor'
PUBLIC	??_R3TiXmlElement@@8				; TiXmlElement::`RTTI Class Hierarchy Descriptor'
PUBLIC	??_R2TiXmlElement@@8				; TiXmlElement::`RTTI Base Class Array'
PUBLIC	??_R1A@?0A@EA@TiXmlElement@@8			; TiXmlElement::`RTTI Base Class Descriptor at (0,-1,0,64)'
PUBLIC	??_R4TiXmlComment@@6B@				; TiXmlComment::`RTTI Complete Object Locator'
PUBLIC	??_R0?AVTiXmlComment@@@8			; TiXmlComment `RTTI Type Descriptor'
PUBLIC	??_R3TiXmlComment@@8				; TiXmlComment::`RTTI Class Hierarchy Descriptor'
PUBLIC	??_R2TiXmlComment@@8				; TiXmlComment::`RTTI Base Class Array'
PUBLIC	??_R1A@?0A@EA@TiXmlComment@@8			; TiXmlComment::`RTTI Base Class Descriptor at (0,-1,0,64)'
PUBLIC	??_R4TiXmlUnknown@@6B@				; TiXmlUnknown::`RTTI Complete Object Locator'
PUBLIC	??_R0?AVTiXmlUnknown@@@8			; TiXmlUnknown `RTTI Type Descriptor'
PUBLIC	??_R3TiXmlUnknown@@8				; TiXmlUnknown::`RTTI Class Hierarchy Descriptor'
PUBLIC	??_R2TiXmlUnknown@@8				; TiXmlUnknown::`RTTI Base Class Array'
PUBLIC	??_R1A@?0A@EA@TiXmlUnknown@@8			; TiXmlUnknown::`RTTI Base Class Descriptor at (0,-1,0,64)'
PUBLIC	??_R4TiXmlAttribute@@6B@			; TiXmlAttribute::`RTTI Complete Object Locator'
PUBLIC	??_R0?AVTiXmlAttribute@@@8			; TiXmlAttribute `RTTI Type Descriptor'
PUBLIC	??_R3TiXmlAttribute@@8				; TiXmlAttribute::`RTTI Class Hierarchy Descriptor'
PUBLIC	??_R2TiXmlAttribute@@8				; TiXmlAttribute::`RTTI Base Class Array'
PUBLIC	??_R1A@?0A@EA@TiXmlAttribute@@8			; TiXmlAttribute::`RTTI Base Class Descriptor at (0,-1,0,64)'
PUBLIC	??_R4TiXmlText@@6B@				; TiXmlText::`RTTI Complete Object Locator'
PUBLIC	??_R0?AVTiXmlText@@@8				; TiXmlText `RTTI Type Descriptor'
PUBLIC	??_R3TiXmlText@@8				; TiXmlText::`RTTI Class Hierarchy Descriptor'
PUBLIC	??_R2TiXmlText@@8				; TiXmlText::`RTTI Base Class Array'
PUBLIC	??_R1A@?0A@EA@TiXmlText@@8			; TiXmlText::`RTTI Base Class Descriptor at (0,-1,0,64)'
PUBLIC	??_R4TiXmlDeclaration@@6B@			; TiXmlDeclaration::`RTTI Complete Object Locator'
PUBLIC	??_R0?AVTiXmlDeclaration@@@8			; TiXmlDeclaration `RTTI Type Descriptor'
PUBLIC	??_R3TiXmlDeclaration@@8			; TiXmlDeclaration::`RTTI Class Hierarchy Descriptor'
PUBLIC	??_R2TiXmlDeclaration@@8			; TiXmlDeclaration::`RTTI Base Class Array'
PUBLIC	??_R1A@?0A@EA@TiXmlDeclaration@@8		; TiXmlDeclaration::`RTTI Base Class Descriptor at (0,-1,0,64)'
PUBLIC	??_R4TiXmlVisitor@@6B@				; TiXmlVisitor::`RTTI Complete Object Locator'
PUBLIC	??_R0?AVTiXmlVisitor@@@8			; TiXmlVisitor `RTTI Type Descriptor'
PUBLIC	??_R3TiXmlVisitor@@8				; TiXmlVisitor::`RTTI Class Hierarchy Descriptor'
PUBLIC	??_R2TiXmlVisitor@@8				; TiXmlVisitor::`RTTI Base Class Array'
PUBLIC	??_R1A@?0A@EA@TiXmlVisitor@@8			; TiXmlVisitor::`RTTI Base Class Descriptor at (0,-1,0,64)'
PUBLIC	??_R4TiXmlBase@@6B@				; TiXmlBase::`RTTI Complete Object Locator'
PUBLIC	??_R4TiXmlNode@@6B@				; TiXmlNode::`RTTI Complete Object Locator'
PUBLIC	??_R4TiXmlPrinter@@6B@				; TiXmlPrinter::`RTTI Complete Object Locator'
PUBLIC	??_R0?AVTiXmlPrinter@@@8			; TiXmlPrinter `RTTI Type Descriptor'
PUBLIC	??_R3TiXmlPrinter@@8				; TiXmlPrinter::`RTTI Class Hierarchy Descriptor'
PUBLIC	??_R2TiXmlPrinter@@8				; TiXmlPrinter::`RTTI Base Class Array'
PUBLIC	??_R1A@?0A@EA@TiXmlPrinter@@8			; TiXmlPrinter::`RTTI Base Class Descriptor at (0,-1,0,64)'
PUBLIC	__real@0000000000000000
EXTRN	??_M@YGXPAXIIP6EX0@Z@Z:PROC			; `eh vector destructor iterator'
EXTRN	__purecall:PROC
EXTRN	??2@YAPAXI@Z:PROC				; operator new
EXTRN	??3@YAXPAX@Z:PROC				; operator delete
EXTRN	??3@YAXPAXI@Z:PROC				; operator delete
EXTRN	??_U@YAPAXI@Z:PROC				; operator new[]
EXTRN	??_V@YAXPAX@Z:PROC				; operator delete[]
EXTRN	??_V@YAXPAXI@Z:PROC				; operator delete[]
EXTRN	_isspace:PROC
EXTRN	_tolower:PROC
EXTRN	___stdio_common_vsprintf:PROC
EXTRN	___stdio_common_vsnprintf_s:PROC
EXTRN	___stdio_common_vsscanf:PROC
EXTRN	_atof:PROC
EXTRN	_atoi:PROC
EXTRN	__atoi64:PROC
EXTRN	?SetEnv@i3Error@@YAXPBDH0W4I3LOG_TYPE@@@Z:PROC	; i3Error::SetEnv
EXTRN	?Log@i3Error@@YAXPBDZZ:PROC			; i3Error::Log
EXTRN	??1i3ClassMeta@@UAE@XZ:PROC			; i3ClassMeta::~i3ClassMeta
EXTRN	?CreateInstance@i3ClassMeta@@UAEPAVi3ElementBase@@W4I3_CLASSMETA_TYPE@@@Z:PROC ; i3ClassMeta::CreateInstance
EXTRN	?BindInstance@i3ClassMeta@@UAEPAVi3ElementBase@@PAXW4I3_CLASSMETA_TYPE@@@Z:PROC ; i3ClassMeta::BindInstance
EXTRN	?IsTypeOf@i3ClassMeta@@QAE_NPAV1@@Z:PROC	; i3ClassMeta::IsTypeOf
EXTRN	?GetMeta@i3ElementBase@@UAEPAVi3ClassMeta@@XZ:PROC ; i3ElementBase::GetMeta
EXTRN	??1i3ElementBase@@UAE@XZ:PROC			; i3ElementBase::~i3ElementBase
EXTRN	??3i3ElementBase@@SAXPAX@Z:PROC			; i3ElementBase::operator delete
EXTRN	?Release@i3ElementBase@@QAEXXZ:PROC		; i3ElementBase::Release
EXTRN	?CopyTo@i3ElementBase@@UAEXPAV1@W4I3_COPY_METHOD@@@Z:PROC ; i3ElementBase::CopyTo
EXTRN	??1i3MemoryPool@@UAE@XZ:PROC			; i3MemoryPool::~i3MemoryPool
EXTRN	?GetMeta@i3Stream@@UAEPAVi3ClassMeta@@XZ:PROC	; i3Stream::GetMeta
EXTRN	??1i3Stream@@UAE@XZ:PROC			; i3Stream::~i3Stream
EXTRN	?CopyTo@i3Stream@@UAEIPAV1@I@Z:PROC		; i3Stream::CopyTo
EXTRN	?CopyFrom@i3Stream@@UAEIPAV1@I@Z:PROC		; i3Stream::CopyFrom
EXTRN	?ReadLine@i3Stream@@UAEIPADH@Z:PROC		; i3Stream::ReadLine
EXTRN	?ReadLineW@i3Stream@@UAEIPAGH@Z:PROC		; i3Stream::ReadLineW
EXTRN	?WriteLine@i3Stream@@UAEIPBD@Z:PROC		; i3Stream::WriteLine
EXTRN	?WriteLineW@i3Stream@@UAEIPBG@Z:PROC		; i3Stream::WriteLineW
EXTRN	?Printf@i3Stream@@UAAIPADPBDZZ:PROC		; i3Stream::Printf
EXTRN	?GetMeta@i3FileStream@@UAEPAVi3ClassMeta@@XZ:PROC ; i3FileStream::GetMeta
EXTRN	?_NewObject@i3FileStream@@SAPAV1@XZ:PROC	; i3FileStream::_NewObject
EXTRN	??1i3FileStream@@UAE@XZ:PROC			; i3FileStream::~i3FileStream
EXTRN	?Create@i3FileStream@@UAEHPBDHI@Z:PROC		; i3FileStream::Create
EXTRN	?Open@i3FileStream@@UAEHPBDHI@Z:PROC		; i3FileStream::Open
EXTRN	?Close@i3FileStream@@UAEHXZ:PROC		; i3FileStream::Close
EXTRN	?Read@i3FileStream@@UAEIPAXH@Z:PROC		; i3FileStream::Read
EXTRN	?Write@i3FileStream@@UAEIPBXH@Z:PROC		; i3FileStream::Write
EXTRN	?SetPosition@i3FileStream@@UAEIHH@Z:PROC	; i3FileStream::SetPosition
EXTRN	?GetPosition@i3FileStream@@UAEIXZ:PROC		; i3FileStream::GetPosition
EXTRN	?reserve@TiXmlString@@QAEXI@Z:PROC		; TiXmlString::reserve
EXTRN	?assign@TiXmlString@@QAEAAV1@PBDI@Z:PROC	; TiXmlString::assign
EXTRN	?append@TiXmlString@@QAEAAV1@PBDI@Z:PROC	; TiXmlString::append
EXTRN	?GetEntity@TiXmlBase@@KAPBDPBDPADPAHW4TiXmlEncoding@@@Z:PROC ; TiXmlBase::GetEntity
EXTRN	?Parse@TiXmlAttribute@@UAEPBDPBDPAVTiXmlParsingData@@W4TiXmlEncoding@@@Z:PROC ; TiXmlAttribute::Parse
EXTRN	?Parse@TiXmlElement@@UAEPBDPBDPAVTiXmlParsingData@@W4TiXmlEncoding@@@Z:PROC ; TiXmlElement::Parse
EXTRN	?Parse@TiXmlComment@@UAEPBDPBDPAVTiXmlParsingData@@W4TiXmlEncoding@@@Z:PROC ; TiXmlComment::Parse
EXTRN	?Parse@TiXmlText@@UAEPBDPBDPAVTiXmlParsingData@@W4TiXmlEncoding@@@Z:PROC ; TiXmlText::Parse
EXTRN	?Parse@TiXmlDeclaration@@UAEPBDPBDPAVTiXmlParsingData@@W4TiXmlEncoding@@@Z:PROC ; TiXmlDeclaration::Parse
EXTRN	?Parse@TiXmlUnknown@@UAEPBDPBDPAVTiXmlParsingData@@W4TiXmlEncoding@@@Z:PROC ; TiXmlUnknown::Parse
EXTRN	?Parse@TiXmlDocument@@UAEPBDPBDPAVTiXmlParsingData@@W4TiXmlEncoding@@@Z:PROC ; TiXmlDocument::Parse
EXTRN	?SetError@TiXmlDocument@@QAEXHPBDPAVTiXmlParsingData@@W4TiXmlEncoding@@@Z:PROC ; TiXmlDocument::SetError
EXTRN	@__security_check_cookie@4:PROC
EXTRN	___CxxFrameHandler3:PROC
EXTRN	_memcpy:PROC
EXTRN	_memset:PROC
EXTRN	??_7type_info@@6B@:QWORD			; type_info::`vftable'
EXTRN	?s_pClassMetai3ElementBase@i3ElementBase@@2PAVi3ClassMeta@@A:DWORD ; i3ElementBase::s_pClassMetai3ElementBase
EXTRN	?s_pClassMetai3Stream@i3Stream@@2PAVi3ClassMeta@@A:DWORD ; i3Stream::s_pClassMetai3Stream
EXTRN	?s_pClassMetai3FileStream@i3FileStream@@2PAVi3ClassMeta@@A:DWORD ; i3FileStream::s_pClassMetai3FileStream
EXTRN	?m_bCaseSensitive@i3FileStream@@1HA:DWORD	; i3FileStream::m_bCaseSensitive
EXTRN	?npos@TiXmlString@@2IB:DWORD			; TiXmlString::npos
EXTRN	?nullrep_@TiXmlString@@0URep@1@A:BYTE		; TiXmlString::nullrep_
EXTRN	?utf8ByteTable@TiXmlBase@@2QBHB:BYTE		; TiXmlBase::utf8ByteTable
EXTRN	?entity@TiXmlBase@@0PAUEntity@1@A:BYTE		; TiXmlBase::entity
EXTRN	___security_cookie:DWORD
EXTRN	__fltused:DWORD
;	COMDAT ?_OptionsStorage@?1??__local_stdio_printf_options@@9@4_KA
_BSS	SEGMENT
?_OptionsStorage@?1??__local_stdio_printf_options@@9@4_KA DQ 01H DUP (?) ; `__local_stdio_printf_options'::`2'::_OptionsStorage
_BSS	ENDS
;	COMDAT ?_OptionsStorage@?1??__local_stdio_scanf_options@@9@4_KA
_BSS	SEGMENT
?_OptionsStorage@?1??__local_stdio_scanf_options@@9@4_KA DQ 01H DUP (?) ; `__local_stdio_scanf_options'::`2'::_OptionsStorage
_BSS	ENDS
;	COMDAT __real@0000000000000000
CONST	SEGMENT
__real@0000000000000000 DQ 00000000000000000r	; 0
CONST	ENDS
;	COMDAT ??_R1A@?0A@EA@TiXmlPrinter@@8
rdata$r	SEGMENT
??_R1A@?0A@EA@TiXmlPrinter@@8 DD FLAT:??_R0?AVTiXmlPrinter@@@8 ; TiXmlPrinter::`RTTI Base Class Descriptor at (0,-1,0,64)'
	DD	01H
	DD	00H
	DD	0ffffffffH
	DD	00H
	DD	040H
	DD	FLAT:??_R3TiXmlPrinter@@8
rdata$r	ENDS
;	COMDAT ??_R2TiXmlPrinter@@8
rdata$r	SEGMENT
??_R2TiXmlPrinter@@8 DD FLAT:??_R1A@?0A@EA@TiXmlPrinter@@8 ; TiXmlPrinter::`RTTI Base Class Array'
	DD	FLAT:??_R1A@?0A@EA@TiXmlVisitor@@8
rdata$r	ENDS
;	COMDAT ??_R3TiXmlPrinter@@8
rdata$r	SEGMENT
??_R3TiXmlPrinter@@8 DD 00H				; TiXmlPrinter::`RTTI Class Hierarchy Descriptor'
	DD	00H
	DD	02H
	DD	FLAT:??_R2TiXmlPrinter@@8
rdata$r	ENDS
;	COMDAT ??_R0?AVTiXmlPrinter@@@8
data$rs	SEGMENT
??_R0?AVTiXmlPrinter@@@8 DD FLAT:??_7type_info@@6B@	; TiXmlPrinter `RTTI Type Descriptor'
	DD	00H
	DB	'.?AVTiXmlPrinter@@', 00H
data$rs	ENDS
;	COMDAT ??_R4TiXmlPrinter@@6B@
rdata$r	SEGMENT
??_R4TiXmlPrinter@@6B@ DD 00H				; TiXmlPrinter::`RTTI Complete Object Locator'
	DD	00H
	DD	00H
	DD	FLAT:??_R0?AVTiXmlPrinter@@@8
	DD	FLAT:??_R3TiXmlPrinter@@8
rdata$r	ENDS
;	COMDAT ??_R4TiXmlNode@@6B@
rdata$r	SEGMENT
??_R4TiXmlNode@@6B@ DD 00H				; TiXmlNode::`RTTI Complete Object Locator'
	DD	00H
	DD	00H
	DD	FLAT:??_R0?AVTiXmlNode@@@8
	DD	FLAT:??_R3TiXmlNode@@8
rdata$r	ENDS
;	COMDAT ??_R4TiXmlBase@@6B@
rdata$r	SEGMENT
??_R4TiXmlBase@@6B@ DD 00H				; TiXmlBase::`RTTI Complete Object Locator'
	DD	00H
	DD	00H
	DD	FLAT:??_R0?AVTiXmlBase@@@8
	DD	FLAT:??_R3TiXmlBase@@8
rdata$r	ENDS
;	COMDAT ??_R1A@?0A@EA@TiXmlVisitor@@8
rdata$r	SEGMENT
??_R1A@?0A@EA@TiXmlVisitor@@8 DD FLAT:??_R0?AVTiXmlVisitor@@@8 ; TiXmlVisitor::`RTTI Base Class Descriptor at (0,-1,0,64)'
	DD	00H
	DD	00H
	DD	0ffffffffH
	DD	00H
	DD	040H
	DD	FLAT:??_R3TiXmlVisitor@@8
rdata$r	ENDS
;	COMDAT ??_R2TiXmlVisitor@@8
rdata$r	SEGMENT
??_R2TiXmlVisitor@@8 DD FLAT:??_R1A@?0A@EA@TiXmlVisitor@@8 ; TiXmlVisitor::`RTTI Base Class Array'
rdata$r	ENDS
;	COMDAT ??_R3TiXmlVisitor@@8
rdata$r	SEGMENT
??_R3TiXmlVisitor@@8 DD 00H				; TiXmlVisitor::`RTTI Class Hierarchy Descriptor'
	DD	00H
	DD	01H
	DD	FLAT:??_R2TiXmlVisitor@@8
rdata$r	ENDS
;	COMDAT ??_R0?AVTiXmlVisitor@@@8
data$rs	SEGMENT
??_R0?AVTiXmlVisitor@@@8 DD FLAT:??_7type_info@@6B@	; TiXmlVisitor `RTTI Type Descriptor'
	DD	00H
	DB	'.?AVTiXmlVisitor@@', 00H
data$rs	ENDS
;	COMDAT ??_R4TiXmlVisitor@@6B@
rdata$r	SEGMENT
??_R4TiXmlVisitor@@6B@ DD 00H				; TiXmlVisitor::`RTTI Complete Object Locator'
	DD	00H
	DD	00H
	DD	FLAT:??_R0?AVTiXmlVisitor@@@8
	DD	FLAT:??_R3TiXmlVisitor@@8
rdata$r	ENDS
;	COMDAT ??_R1A@?0A@EA@TiXmlDeclaration@@8
rdata$r	SEGMENT
??_R1A@?0A@EA@TiXmlDeclaration@@8 DD FLAT:??_R0?AVTiXmlDeclaration@@@8 ; TiXmlDeclaration::`RTTI Base Class Descriptor at (0,-1,0,64)'
	DD	02H
	DD	00H
	DD	0ffffffffH
	DD	00H
	DD	040H
	DD	FLAT:??_R3TiXmlDeclaration@@8
rdata$r	ENDS
;	COMDAT ??_R2TiXmlDeclaration@@8
rdata$r	SEGMENT
??_R2TiXmlDeclaration@@8 DD FLAT:??_R1A@?0A@EA@TiXmlDeclaration@@8 ; TiXmlDeclaration::`RTTI Base Class Array'
	DD	FLAT:??_R1A@?0A@EA@TiXmlNode@@8
	DD	FLAT:??_R1A@?0A@EA@TiXmlBase@@8
rdata$r	ENDS
;	COMDAT ??_R3TiXmlDeclaration@@8
rdata$r	SEGMENT
??_R3TiXmlDeclaration@@8 DD 00H				; TiXmlDeclaration::`RTTI Class Hierarchy Descriptor'
	DD	00H
	DD	03H
	DD	FLAT:??_R2TiXmlDeclaration@@8
rdata$r	ENDS
;	COMDAT ??_R0?AVTiXmlDeclaration@@@8
data$rs	SEGMENT
??_R0?AVTiXmlDeclaration@@@8 DD FLAT:??_7type_info@@6B@	; TiXmlDeclaration `RTTI Type Descriptor'
	DD	00H
	DB	'.?AVTiXmlDeclaration@@', 00H
data$rs	ENDS
;	COMDAT ??_R4TiXmlDeclaration@@6B@
rdata$r	SEGMENT
??_R4TiXmlDeclaration@@6B@ DD 00H			; TiXmlDeclaration::`RTTI Complete Object Locator'
	DD	00H
	DD	00H
	DD	FLAT:??_R0?AVTiXmlDeclaration@@@8
	DD	FLAT:??_R3TiXmlDeclaration@@8
rdata$r	ENDS
;	COMDAT ??_R1A@?0A@EA@TiXmlText@@8
rdata$r	SEGMENT
??_R1A@?0A@EA@TiXmlText@@8 DD FLAT:??_R0?AVTiXmlText@@@8 ; TiXmlText::`RTTI Base Class Descriptor at (0,-1,0,64)'
	DD	02H
	DD	00H
	DD	0ffffffffH
	DD	00H
	DD	040H
	DD	FLAT:??_R3TiXmlText@@8
rdata$r	ENDS
;	COMDAT ??_R2TiXmlText@@8
rdata$r	SEGMENT
??_R2TiXmlText@@8 DD FLAT:??_R1A@?0A@EA@TiXmlText@@8	; TiXmlText::`RTTI Base Class Array'
	DD	FLAT:??_R1A@?0A@EA@TiXmlNode@@8
	DD	FLAT:??_R1A@?0A@EA@TiXmlBase@@8
rdata$r	ENDS
;	COMDAT ??_R3TiXmlText@@8
rdata$r	SEGMENT
??_R3TiXmlText@@8 DD 00H				; TiXmlText::`RTTI Class Hierarchy Descriptor'
	DD	00H
	DD	03H
	DD	FLAT:??_R2TiXmlText@@8
rdata$r	ENDS
;	COMDAT ??_R0?AVTiXmlText@@@8
data$rs	SEGMENT
??_R0?AVTiXmlText@@@8 DD FLAT:??_7type_info@@6B@	; TiXmlText `RTTI Type Descriptor'
	DD	00H
	DB	'.?AVTiXmlText@@', 00H
data$rs	ENDS
;	COMDAT ??_R4TiXmlText@@6B@
rdata$r	SEGMENT
??_R4TiXmlText@@6B@ DD 00H				; TiXmlText::`RTTI Complete Object Locator'
	DD	00H
	DD	00H
	DD	FLAT:??_R0?AVTiXmlText@@@8
	DD	FLAT:??_R3TiXmlText@@8
rdata$r	ENDS
;	COMDAT ??_R1A@?0A@EA@TiXmlAttribute@@8
rdata$r	SEGMENT
??_R1A@?0A@EA@TiXmlAttribute@@8 DD FLAT:??_R0?AVTiXmlAttribute@@@8 ; TiXmlAttribute::`RTTI Base Class Descriptor at (0,-1,0,64)'
	DD	01H
	DD	00H
	DD	0ffffffffH
	DD	00H
	DD	040H
	DD	FLAT:??_R3TiXmlAttribute@@8
rdata$r	ENDS
;	COMDAT ??_R2TiXmlAttribute@@8
rdata$r	SEGMENT
??_R2TiXmlAttribute@@8 DD FLAT:??_R1A@?0A@EA@TiXmlAttribute@@8 ; TiXmlAttribute::`RTTI Base Class Array'
	DD	FLAT:??_R1A@?0A@EA@TiXmlBase@@8
rdata$r	ENDS
;	COMDAT ??_R3TiXmlAttribute@@8
rdata$r	SEGMENT
??_R3TiXmlAttribute@@8 DD 00H				; TiXmlAttribute::`RTTI Class Hierarchy Descriptor'
	DD	00H
	DD	02H
	DD	FLAT:??_R2TiXmlAttribute@@8
rdata$r	ENDS
;	COMDAT ??_R0?AVTiXmlAttribute@@@8
data$rs	SEGMENT
??_R0?AVTiXmlAttribute@@@8 DD FLAT:??_7type_info@@6B@	; TiXmlAttribute `RTTI Type Descriptor'
	DD	00H
	DB	'.?AVTiXmlAttribute@@', 00H
data$rs	ENDS
;	COMDAT ??_R4TiXmlAttribute@@6B@
rdata$r	SEGMENT
??_R4TiXmlAttribute@@6B@ DD 00H				; TiXmlAttribute::`RTTI Complete Object Locator'
	DD	00H
	DD	00H
	DD	FLAT:??_R0?AVTiXmlAttribute@@@8
	DD	FLAT:??_R3TiXmlAttribute@@8
rdata$r	ENDS
;	COMDAT ??_R1A@?0A@EA@TiXmlUnknown@@8
rdata$r	SEGMENT
??_R1A@?0A@EA@TiXmlUnknown@@8 DD FLAT:??_R0?AVTiXmlUnknown@@@8 ; TiXmlUnknown::`RTTI Base Class Descriptor at (0,-1,0,64)'
	DD	02H
	DD	00H
	DD	0ffffffffH
	DD	00H
	DD	040H
	DD	FLAT:??_R3TiXmlUnknown@@8
rdata$r	ENDS
;	COMDAT ??_R2TiXmlUnknown@@8
rdata$r	SEGMENT
??_R2TiXmlUnknown@@8 DD FLAT:??_R1A@?0A@EA@TiXmlUnknown@@8 ; TiXmlUnknown::`RTTI Base Class Array'
	DD	FLAT:??_R1A@?0A@EA@TiXmlNode@@8
	DD	FLAT:??_R1A@?0A@EA@TiXmlBase@@8
rdata$r	ENDS
;	COMDAT ??_R3TiXmlUnknown@@8
rdata$r	SEGMENT
??_R3TiXmlUnknown@@8 DD 00H				; TiXmlUnknown::`RTTI Class Hierarchy Descriptor'
	DD	00H
	DD	03H
	DD	FLAT:??_R2TiXmlUnknown@@8
rdata$r	ENDS
;	COMDAT ??_R0?AVTiXmlUnknown@@@8
data$rs	SEGMENT
??_R0?AVTiXmlUnknown@@@8 DD FLAT:??_7type_info@@6B@	; TiXmlUnknown `RTTI Type Descriptor'
	DD	00H
	DB	'.?AVTiXmlUnknown@@', 00H
data$rs	ENDS
;	COMDAT ??_R4TiXmlUnknown@@6B@
rdata$r	SEGMENT
??_R4TiXmlUnknown@@6B@ DD 00H				; TiXmlUnknown::`RTTI Complete Object Locator'
	DD	00H
	DD	00H
	DD	FLAT:??_R0?AVTiXmlUnknown@@@8
	DD	FLAT:??_R3TiXmlUnknown@@8
rdata$r	ENDS
;	COMDAT ??_R1A@?0A@EA@TiXmlComment@@8
rdata$r	SEGMENT
??_R1A@?0A@EA@TiXmlComment@@8 DD FLAT:??_R0?AVTiXmlComment@@@8 ; TiXmlComment::`RTTI Base Class Descriptor at (0,-1,0,64)'
	DD	02H
	DD	00H
	DD	0ffffffffH
	DD	00H
	DD	040H
	DD	FLAT:??_R3TiXmlComment@@8
rdata$r	ENDS
;	COMDAT ??_R2TiXmlComment@@8
rdata$r	SEGMENT
??_R2TiXmlComment@@8 DD FLAT:??_R1A@?0A@EA@TiXmlComment@@8 ; TiXmlComment::`RTTI Base Class Array'
	DD	FLAT:??_R1A@?0A@EA@TiXmlNode@@8
	DD	FLAT:??_R1A@?0A@EA@TiXmlBase@@8
rdata$r	ENDS
;	COMDAT ??_R3TiXmlComment@@8
rdata$r	SEGMENT
??_R3TiXmlComment@@8 DD 00H				; TiXmlComment::`RTTI Class Hierarchy Descriptor'
	DD	00H
	DD	03H
	DD	FLAT:??_R2TiXmlComment@@8
rdata$r	ENDS
;	COMDAT ??_R0?AVTiXmlComment@@@8
data$rs	SEGMENT
??_R0?AVTiXmlComment@@@8 DD FLAT:??_7type_info@@6B@	; TiXmlComment `RTTI Type Descriptor'
	DD	00H
	DB	'.?AVTiXmlComment@@', 00H
data$rs	ENDS
;	COMDAT ??_R4TiXmlComment@@6B@
rdata$r	SEGMENT
??_R4TiXmlComment@@6B@ DD 00H				; TiXmlComment::`RTTI Complete Object Locator'
	DD	00H
	DD	00H
	DD	FLAT:??_R0?AVTiXmlComment@@@8
	DD	FLAT:??_R3TiXmlComment@@8
rdata$r	ENDS
;	COMDAT ??_R1A@?0A@EA@TiXmlElement@@8
rdata$r	SEGMENT
??_R1A@?0A@EA@TiXmlElement@@8 DD FLAT:??_R0?AVTiXmlElement@@@8 ; TiXmlElement::`RTTI Base Class Descriptor at (0,-1,0,64)'
	DD	02H
	DD	00H
	DD	0ffffffffH
	DD	00H
	DD	040H
	DD	FLAT:??_R3TiXmlElement@@8
rdata$r	ENDS
;	COMDAT ??_R2TiXmlElement@@8
rdata$r	SEGMENT
??_R2TiXmlElement@@8 DD FLAT:??_R1A@?0A@EA@TiXmlElement@@8 ; TiXmlElement::`RTTI Base Class Array'
	DD	FLAT:??_R1A@?0A@EA@TiXmlNode@@8
	DD	FLAT:??_R1A@?0A@EA@TiXmlBase@@8
rdata$r	ENDS
;	COMDAT ??_R3TiXmlElement@@8
rdata$r	SEGMENT
??_R3TiXmlElement@@8 DD 00H				; TiXmlElement::`RTTI Class Hierarchy Descriptor'
	DD	00H
	DD	03H
	DD	FLAT:??_R2TiXmlElement@@8
rdata$r	ENDS
;	COMDAT ??_R0?AVTiXmlElement@@@8
data$rs	SEGMENT
??_R0?AVTiXmlElement@@@8 DD FLAT:??_7type_info@@6B@	; TiXmlElement `RTTI Type Descriptor'
	DD	00H
	DB	'.?AVTiXmlElement@@', 00H
data$rs	ENDS
;	COMDAT ??_R4TiXmlElement@@6B@
rdata$r	SEGMENT
??_R4TiXmlElement@@6B@ DD 00H				; TiXmlElement::`RTTI Complete Object Locator'
	DD	00H
	DD	00H
	DD	FLAT:??_R0?AVTiXmlElement@@@8
	DD	FLAT:??_R3TiXmlElement@@8
rdata$r	ENDS
;	COMDAT ??_R2TiXmlBase@@8
rdata$r	SEGMENT
??_R2TiXmlBase@@8 DD FLAT:??_R1A@?0A@EA@TiXmlBase@@8	; TiXmlBase::`RTTI Base Class Array'
rdata$r	ENDS
;	COMDAT ??_R3TiXmlBase@@8
rdata$r	SEGMENT
??_R3TiXmlBase@@8 DD 00H				; TiXmlBase::`RTTI Class Hierarchy Descriptor'
	DD	00H
	DD	01H
	DD	FLAT:??_R2TiXmlBase@@8
rdata$r	ENDS
;	COMDAT ??_R0?AVTiXmlBase@@@8
data$rs	SEGMENT
??_R0?AVTiXmlBase@@@8 DD FLAT:??_7type_info@@6B@	; TiXmlBase `RTTI Type Descriptor'
	DD	00H
	DB	'.?AVTiXmlBase@@', 00H
data$rs	ENDS
;	COMDAT ??_R1A@?0A@EA@TiXmlBase@@8
rdata$r	SEGMENT
??_R1A@?0A@EA@TiXmlBase@@8 DD FLAT:??_R0?AVTiXmlBase@@@8 ; TiXmlBase::`RTTI Base Class Descriptor at (0,-1,0,64)'
	DD	00H
	DD	00H
	DD	0ffffffffH
	DD	00H
	DD	040H
	DD	FLAT:??_R3TiXmlBase@@8
rdata$r	ENDS
;	COMDAT ??_R2TiXmlNode@@8
rdata$r	SEGMENT
??_R2TiXmlNode@@8 DD FLAT:??_R1A@?0A@EA@TiXmlNode@@8	; TiXmlNode::`RTTI Base Class Array'
	DD	FLAT:??_R1A@?0A@EA@TiXmlBase@@8
rdata$r	ENDS
;	COMDAT ??_R3TiXmlNode@@8
rdata$r	SEGMENT
??_R3TiXmlNode@@8 DD 00H				; TiXmlNode::`RTTI Class Hierarchy Descriptor'
	DD	00H
	DD	02H
	DD	FLAT:??_R2TiXmlNode@@8
rdata$r	ENDS
;	COMDAT ??_R0?AVTiXmlNode@@@8
data$rs	SEGMENT
??_R0?AVTiXmlNode@@@8 DD FLAT:??_7type_info@@6B@	; TiXmlNode `RTTI Type Descriptor'
	DD	00H
	DB	'.?AVTiXmlNode@@', 00H
data$rs	ENDS
;	COMDAT ??_R1A@?0A@EA@TiXmlNode@@8
rdata$r	SEGMENT
??_R1A@?0A@EA@TiXmlNode@@8 DD FLAT:??_R0?AVTiXmlNode@@@8 ; TiXmlNode::`RTTI Base Class Descriptor at (0,-1,0,64)'
	DD	01H
	DD	00H
	DD	0ffffffffH
	DD	00H
	DD	040H
	DD	FLAT:??_R3TiXmlNode@@8
rdata$r	ENDS
;	COMDAT ??_R1A@?0A@EA@TiXmlDocument@@8
rdata$r	SEGMENT
??_R1A@?0A@EA@TiXmlDocument@@8 DD FLAT:??_R0?AVTiXmlDocument@@@8 ; TiXmlDocument::`RTTI Base Class Descriptor at (0,-1,0,64)'
	DD	02H
	DD	00H
	DD	0ffffffffH
	DD	00H
	DD	040H
	DD	FLAT:??_R3TiXmlDocument@@8
rdata$r	ENDS
;	COMDAT ??_R2TiXmlDocument@@8
rdata$r	SEGMENT
??_R2TiXmlDocument@@8 DD FLAT:??_R1A@?0A@EA@TiXmlDocument@@8 ; TiXmlDocument::`RTTI Base Class Array'
	DD	FLAT:??_R1A@?0A@EA@TiXmlNode@@8
	DD	FLAT:??_R1A@?0A@EA@TiXmlBase@@8
rdata$r	ENDS
;	COMDAT ??_R3TiXmlDocument@@8
rdata$r	SEGMENT
??_R3TiXmlDocument@@8 DD 00H				; TiXmlDocument::`RTTI Class Hierarchy Descriptor'
	DD	00H
	DD	03H
	DD	FLAT:??_R2TiXmlDocument@@8
rdata$r	ENDS
;	COMDAT ??_R0?AVTiXmlDocument@@@8
data$rs	SEGMENT
??_R0?AVTiXmlDocument@@@8 DD FLAT:??_7type_info@@6B@	; TiXmlDocument `RTTI Type Descriptor'
	DD	00H
	DB	'.?AVTiXmlDocument@@', 00H
data$rs	ENDS
;	COMDAT ??_R4TiXmlDocument@@6B@
rdata$r	SEGMENT
??_R4TiXmlDocument@@6B@ DD 00H				; TiXmlDocument::`RTTI Complete Object Locator'
	DD	00H
	DD	00H
	DD	FLAT:??_R0?AVTiXmlDocument@@@8
	DD	FLAT:??_R3TiXmlDocument@@8
rdata$r	ENDS
;	COMDAT ??_R1A@?0A@EA@i3FileStream@@8
rdata$r	SEGMENT
??_R1A@?0A@EA@i3FileStream@@8 DD FLAT:??_R0?AVi3FileStream@@@8 ; i3FileStream::`RTTI Base Class Descriptor at (0,-1,0,64)'
	DD	02H
	DD	00H
	DD	0ffffffffH
	DD	00H
	DD	040H
	DD	FLAT:??_R3i3FileStream@@8
rdata$r	ENDS
;	COMDAT ??_R2i3FileStream@@8
rdata$r	SEGMENT
??_R2i3FileStream@@8 DD FLAT:??_R1A@?0A@EA@i3FileStream@@8 ; i3FileStream::`RTTI Base Class Array'
	DD	FLAT:??_R1A@?0A@EA@i3Stream@@8
	DD	FLAT:??_R1A@?0A@EA@i3ElementBase@@8
rdata$r	ENDS
;	COMDAT ??_R3i3FileStream@@8
rdata$r	SEGMENT
??_R3i3FileStream@@8 DD 00H				; i3FileStream::`RTTI Class Hierarchy Descriptor'
	DD	00H
	DD	03H
	DD	FLAT:??_R2i3FileStream@@8
rdata$r	ENDS
;	COMDAT ??_R0?AVi3FileStream@@@8
data$rs	SEGMENT
??_R0?AVi3FileStream@@@8 DD FLAT:??_7type_info@@6B@	; i3FileStream `RTTI Type Descriptor'
	DD	00H
	DB	'.?AVi3FileStream@@', 00H
data$rs	ENDS
;	COMDAT ??_R4i3FileStream@@6B@
rdata$r	SEGMENT
??_R4i3FileStream@@6B@ DD 00H				; i3FileStream::`RTTI Complete Object Locator'
	DD	00H
	DD	00H
	DD	FLAT:??_R0?AVi3FileStream@@@8
	DD	FLAT:??_R3i3FileStream@@8
rdata$r	ENDS
;	COMDAT ??_R1A@?0A@EA@i3Stream@@8
rdata$r	SEGMENT
??_R1A@?0A@EA@i3Stream@@8 DD FLAT:??_R0?AVi3Stream@@@8	; i3Stream::`RTTI Base Class Descriptor at (0,-1,0,64)'
	DD	01H
	DD	00H
	DD	0ffffffffH
	DD	00H
	DD	040H
	DD	FLAT:??_R3i3Stream@@8
rdata$r	ENDS
;	COMDAT ??_R2i3Stream@@8
rdata$r	SEGMENT
??_R2i3Stream@@8 DD FLAT:??_R1A@?0A@EA@i3Stream@@8	; i3Stream::`RTTI Base Class Array'
	DD	FLAT:??_R1A@?0A@EA@i3ElementBase@@8
rdata$r	ENDS
;	COMDAT ??_R3i3Stream@@8
rdata$r	SEGMENT
??_R3i3Stream@@8 DD 00H					; i3Stream::`RTTI Class Hierarchy Descriptor'
	DD	00H
	DD	02H
	DD	FLAT:??_R2i3Stream@@8
rdata$r	ENDS
;	COMDAT ??_R0?AVi3Stream@@@8
data$rs	SEGMENT
??_R0?AVi3Stream@@@8 DD FLAT:??_7type_info@@6B@		; i3Stream `RTTI Type Descriptor'
	DD	00H
	DB	'.?AVi3Stream@@', 00H
data$rs	ENDS
;	COMDAT ??_R4i3Stream@@6B@
rdata$r	SEGMENT
??_R4i3Stream@@6B@ DD 00H				; i3Stream::`RTTI Complete Object Locator'
	DD	00H
	DD	00H
	DD	FLAT:??_R0?AVi3Stream@@@8
	DD	FLAT:??_R3i3Stream@@8
rdata$r	ENDS
;	COMDAT ??_R1A@?0A@EA@i3ClassMeta@@8
rdata$r	SEGMENT
??_R1A@?0A@EA@i3ClassMeta@@8 DD FLAT:??_R0?AVi3ClassMeta@@@8 ; i3ClassMeta::`RTTI Base Class Descriptor at (0,-1,0,64)'
	DD	00H
	DD	00H
	DD	0ffffffffH
	DD	00H
	DD	040H
	DD	FLAT:??_R3i3ClassMeta@@8
rdata$r	ENDS
;	COMDAT ??_R2i3ClassMeta@@8
rdata$r	SEGMENT
??_R2i3ClassMeta@@8 DD FLAT:??_R1A@?0A@EA@i3ClassMeta@@8 ; i3ClassMeta::`RTTI Base Class Array'
rdata$r	ENDS
;	COMDAT ??_R3i3ClassMeta@@8
rdata$r	SEGMENT
??_R3i3ClassMeta@@8 DD 00H				; i3ClassMeta::`RTTI Class Hierarchy Descriptor'
	DD	00H
	DD	01H
	DD	FLAT:??_R2i3ClassMeta@@8
rdata$r	ENDS
;	COMDAT ??_R0?AVi3ClassMeta@@@8
data$rs	SEGMENT
??_R0?AVi3ClassMeta@@@8 DD FLAT:??_7type_info@@6B@	; i3ClassMeta `RTTI Type Descriptor'
	DD	00H
	DB	'.?AVi3ClassMeta@@', 00H
data$rs	ENDS
;	COMDAT ??_R4i3ClassMeta@@6B@
rdata$r	SEGMENT
??_R4i3ClassMeta@@6B@ DD 00H				; i3ClassMeta::`RTTI Complete Object Locator'
	DD	00H
	DD	00H
	DD	FLAT:??_R0?AVi3ClassMeta@@@8
	DD	FLAT:??_R3i3ClassMeta@@8
rdata$r	ENDS
;	COMDAT ??_R1A@?0A@EA@i3MemoryPool@@8
rdata$r	SEGMENT
??_R1A@?0A@EA@i3MemoryPool@@8 DD FLAT:??_R0?AVi3MemoryPool@@@8 ; i3MemoryPool::`RTTI Base Class Descriptor at (0,-1,0,64)'
	DD	00H
	DD	00H
	DD	0ffffffffH
	DD	00H
	DD	040H
	DD	FLAT:??_R3i3MemoryPool@@8
rdata$r	ENDS
;	COMDAT ??_R2i3MemoryPool@@8
rdata$r	SEGMENT
??_R2i3MemoryPool@@8 DD FLAT:??_R1A@?0A@EA@i3MemoryPool@@8 ; i3MemoryPool::`RTTI Base Class Array'
rdata$r	ENDS
;	COMDAT ??_R3i3MemoryPool@@8
rdata$r	SEGMENT
??_R3i3MemoryPool@@8 DD 00H				; i3MemoryPool::`RTTI Class Hierarchy Descriptor'
	DD	00H
	DD	01H
	DD	FLAT:??_R2i3MemoryPool@@8
rdata$r	ENDS
;	COMDAT ??_R0?AVi3MemoryPool@@@8
data$rs	SEGMENT
??_R0?AVi3MemoryPool@@@8 DD FLAT:??_7type_info@@6B@	; i3MemoryPool `RTTI Type Descriptor'
	DD	00H
	DB	'.?AVi3MemoryPool@@', 00H
data$rs	ENDS
;	COMDAT ??_R4i3MemoryPool@@6B@
rdata$r	SEGMENT
??_R4i3MemoryPool@@6B@ DD 00H				; i3MemoryPool::`RTTI Complete Object Locator'
	DD	00H
	DD	00H
	DD	FLAT:??_R0?AVi3MemoryPool@@@8
	DD	FLAT:??_R3i3MemoryPool@@8
rdata$r	ENDS
;	COMDAT ??_R1A@?0A@EA@i3ElementBase@@8
rdata$r	SEGMENT
??_R1A@?0A@EA@i3ElementBase@@8 DD FLAT:??_R0?AVi3ElementBase@@@8 ; i3ElementBase::`RTTI Base Class Descriptor at (0,-1,0,64)'
	DD	00H
	DD	00H
	DD	0ffffffffH
	DD	00H
	DD	040H
	DD	FLAT:??_R3i3ElementBase@@8
rdata$r	ENDS
;	COMDAT ??_R2i3ElementBase@@8
rdata$r	SEGMENT
??_R2i3ElementBase@@8 DD FLAT:??_R1A@?0A@EA@i3ElementBase@@8 ; i3ElementBase::`RTTI Base Class Array'
rdata$r	ENDS
;	COMDAT ??_R3i3ElementBase@@8
rdata$r	SEGMENT
??_R3i3ElementBase@@8 DD 00H				; i3ElementBase::`RTTI Class Hierarchy Descriptor'
	DD	00H
	DD	01H
	DD	FLAT:??_R2i3ElementBase@@8
rdata$r	ENDS
;	COMDAT ??_R0?AVi3ElementBase@@@8
data$rs	SEGMENT
??_R0?AVi3ElementBase@@@8 DD FLAT:??_7type_info@@6B@	; i3ElementBase `RTTI Type Descriptor'
	DD	00H
	DB	'.?AVi3ElementBase@@', 00H
data$rs	ENDS
;	COMDAT ??_R4i3ElementBase@@6B@
rdata$r	SEGMENT
??_R4i3ElementBase@@6B@ DD 00H				; i3ElementBase::`RTTI Complete Object Locator'
	DD	00H
	DD	00H
	DD	FLAT:??_R0?AVi3ElementBase@@@8
	DD	FLAT:??_R3i3ElementBase@@8
rdata$r	ENDS
;	COMDAT ??_C@_03PNLDJJMO@?9?9?$DO@
CONST	SEGMENT
??_C@_03PNLDJJMO@?9?9?$DO@ DB '-->', 00H		; `string'
CONST	ENDS
;	COMDAT ??_C@_04FFDNBKGC@?$DM?$CB?9?9@
CONST	SEGMENT
??_C@_04FFDNBKGC@?$DM?$CB?9?9@ DB '<!--', 00H		; `string'
CONST	ENDS
;	COMDAT ??_C@_03MCHNFBAC@?$FN?$FN?$DO@
CONST	SEGMENT
??_C@_03MCHNFBAC@?$FN?$FN?$DO@ DB ']]>', 00H		; `string'
CONST	ENDS
;	COMDAT ??_C@_09BLLNCBLF@?$DM?$CB?$FLCDATA?$FL@
CONST	SEGMENT
??_C@_09BLLNCBLF@?$DM?$CB?$FLCDATA?$FL@ DB '<![CDATA[', 00H ; `string'
CONST	ENDS
;	COMDAT ??_C@_02DPNDACHE@?$DM?1@
CONST	SEGMENT
??_C@_02DPNDACHE@?$DM?1@ DB '</', 00H			; `string'
CONST	ENDS
;	COMDAT ??_C@_01MNNFJEPP@?$DM@
CONST	SEGMENT
??_C@_01MNNFJEPP@?$DM@ DB '<', 00H			; `string'
CONST	ENDS
;	COMDAT ??_C@_04NNJCMPBN@?$DM?$CFs?$DO@
CONST	SEGMENT
??_C@_04NNJCMPBN@?$DM?$CFs?$DO@ DB '<%s>', 00H		; `string'
CONST	ENDS
;	COMDAT ??_C@_02GOEMJPDN@?$DP?$DO@
CONST	SEGMENT
??_C@_02GOEMJPDN@?$DP?$DO@ DB '?>', 00H			; `string'
CONST	ENDS
;	COMDAT ??_C@_0N@IHAMHLOK@standalone?$DN?$CC@
CONST	SEGMENT
??_C@_0N@IHAMHLOK@standalone?$DN?$CC@ DB 'standalone="', 00H ; `string'
CONST	ENDS
;	COMDAT ??_C@_0BB@OAOJGGEI@standalone?$DN?$CC?$CFs?$CC?5@
CONST	SEGMENT
??_C@_0BB@OAOJGGEI@standalone?$DN?$CC?$CFs?$CC?5@ DB 'standalone="%s" ', 00H ; `string'
CONST	ENDS
;	COMDAT ??_C@_0L@ENAAEPMN@encoding?$DN?$CC@
CONST	SEGMENT
??_C@_0L@ENAAEPMN@encoding?$DN?$CC@ DB 'encoding="', 00H ; `string'
CONST	ENDS
;	COMDAT ??_C@_0P@CJGKNICB@encoding?$DN?$CC?$CFs?$CC?5@
CONST	SEGMENT
??_C@_0P@CJGKNICB@encoding?$DN?$CC?$CFs?$CC?5@ DB 'encoding="%s" ', 00H ; `string'
CONST	ENDS
;	COMDAT ??_C@_02KOPDJAMB@?$CC?5@
CONST	SEGMENT
??_C@_02KOPDJAMB@?$CC?5@ DB '" ', 00H			; `string'
CONST	ENDS
;	COMDAT ??_C@_09KGECPEDL@version?$DN?$CC@
CONST	SEGMENT
??_C@_09KGECPEDL@version?$DN?$CC@ DB 'version="', 00H	; `string'
CONST	ENDS
;	COMDAT ??_C@_0O@LGPLJGNM@version?$DN?$CC?$CFs?$CC?5@
CONST	SEGMENT
??_C@_0O@LGPLJGNM@version?$DN?$CC?$CFs?$CC?5@ DB 'version="%s" ', 00H ; `string'
CONST	ENDS
;	COMDAT ??_C@_06CMNLMIOJ@?$DM?$DPxml?5@
CONST	SEGMENT
??_C@_06CMNLMIOJ@?$DM?$DPxml?5@ DB '<?xml ', 00H	; `string'
CONST	ENDS
;	COMDAT ??_C@_02DKCKIIND@?$CFs@
CONST	SEGMENT
??_C@_02DKCKIIND@?$CFs@ DB '%s', 00H			; `string'
CONST	ENDS
;	COMDAT ??_C@_0BA@HEAAMLOF@?$DM?$CB?$FLCDATA?$FL?$CFs?$FN?$FN?$DO?6@
CONST	SEGMENT
??_C@_0BA@HEAAMLOF@?$DM?$CB?$FLCDATA?$FL?$CFs?$FN?$FN?$DO?6@ DB '<![CDATA'
	DB	'[%s]]>', 0aH, 00H				; `string'
CONST	ENDS
;	COMDAT ??_C@_09PNDCPLLD@?$DM?$CB?9?9?$CFs?9?9?$DO@
CONST	SEGMENT
??_C@_09PNDCPLLD@?$DM?$CB?9?9?$CFs?9?9?$DO@ DB '<!--%s-->', 00H ; `string'
CONST	ENDS
;	COMDAT ??_C@_03DLDNIBIK@?$CFlf@
CONST	SEGMENT
??_C@_03DLDNIBIK@?$CFlf@ DB '%lf', 00H			; `string'
CONST	ENDS
;	COMDAT ??_C@_01GEODFPGF@?8@
CONST	SEGMENT
??_C@_01GEODFPGF@?8@ DB '''', 00H			; `string'
CONST	ENDS
;	COMDAT ??_C@_02PGMIOCEL@?$DN?8@
CONST	SEGMENT
??_C@_02PGMIOCEL@?$DN?8@ DB '=''', 00H			; `string'
CONST	ENDS
;	COMDAT ??_C@_07CGFAFKBF@?$CFs?$DN?8?$CFs?8@
CONST	SEGMENT
??_C@_07CGFAFKBF@?$CFs?$DN?8?$CFs?8@ DB '%s=''%s''', 00H ; `string'
CONST	ENDS
;	COMDAT ??_C@_01BJJEKLCA@?$CC@
CONST	SEGMENT
??_C@_01BJJEKLCA@?$CC@ DB '"', 00H			; `string'
CONST	ENDS
;	COMDAT ??_C@_02ILLPBGAO@?$DN?$CC@
CONST	SEGMENT
??_C@_02ILLPBGAO@?$DN?$CC@ DB '="', 00H			; `string'
CONST	ENDS
;	COMDAT ??_C@_07JDMHCBCA@?$CFs?$DN?$CC?$CFs?$CC@
CONST	SEGMENT
??_C@_07JDMHCBCA@?$CFs?$DN?$CC?$CFs?$CC@ DB '%s="%s"', 00H ; `string'
CONST	ENDS
;	COMDAT ??_C@_05POIKLDCH@?$DM?1?$CFs?$DO@
CONST	SEGMENT
??_C@_05POIKLDCH@?$DM?1?$CFs?$DO@ DB '</%s>', 00H	; `string'
CONST	ENDS
;	COMDAT ??_C@_01PPODPGHN@?$DO@
CONST	SEGMENT
??_C@_01PPODPGHN@?$DO@ DB '>', 00H			; `string'
CONST	ENDS
;	COMDAT ??_C@_03MFNJFHN@?5?1?$DO@
CONST	SEGMENT
??_C@_03MFNJFHN@?5?1?$DO@ DB ' />', 00H			; `string'
CONST	ENDS
;	COMDAT ??_C@_01CLKCMJKC@?5@
CONST	SEGMENT
??_C@_01CLKCMJKC@?5@ DB ' ', 00H			; `string'
CONST	ENDS
;	COMDAT ??_C@_03FONCMJME@?$DM?$CFs@
CONST	SEGMENT
??_C@_03FONCMJME@?$DM?$CFs@ DB '<%s', 00H		; `string'
CONST	ENDS
;	COMDAT ??_C@_05LLAMLEHD@?$CFI64d@
CONST	SEGMENT
??_C@_05LLAMLEHD@?$CFI64d@ DB '%I64d', 00H		; `string'
CONST	ENDS
;	COMDAT ??_C@_02NJPGOMH@?$CFf@
CONST	SEGMENT
??_C@_02NJPGOMH@?$CFf@ DB '%f', 00H			; `string'
CONST	ENDS
;	COMDAT ??_C@_02DPKJAMEF@?$CFd@
CONST	SEGMENT
??_C@_02DPKJAMEF@?$CFd@ DB '%d', 00H			; `string'
CONST	ENDS
;	COMDAT ??_C@_08LCBMGHJI@?$CG?$CDx?$CF02X?$DL@
CONST	SEGMENT
??_C@_08LCBMGHJI@?$CG?$CDx?$CF02X?$DL@ DB '&#x%02X;', 00H ; `string'
CONST	ENDS
;	COMDAT ??_C@_0BG@FJLABLJP@Could?8t?5Open?5File?5?$CFs?6@
CONST	SEGMENT
??_C@_0BG@FJLABLJP@Could?8t?5Open?5File?5?$CFs?6@ DB 'Could''t Open File '
	DB	'%s', 0aH, 00H				; `string'
CONST	ENDS
;	COMDAT ??_C@_0GC@BFFJFEAF@E?3?2Proyectos?2JuegosOnlineproyec@
CONST	SEGMENT
??_C@_0GC@BFFJFEAF@E?3?2Proyectos?2JuegosOnlineproyec@ DB 'E:\Proyectos\J'
	DB	'uegosOnlineproyectos\PB\pbblow\Piercing Blow Remake\i3Server\'
	DB	'src\i3Base\tinyxml.cpp', 00H		; `string'
CONST	ENDS
;	COMDAT ??_C@_0DJ@BKFHPIBL@class?5i3FileStream?5?$CK__cdecl?5TiX@
CONST	SEGMENT
??_C@_0DJ@BKFHPIBL@class?5i3FileStream?5?$CK__cdecl?5TiX@ DB 'class i3Fil'
	DB	'eStream *__cdecl TiXmlFOpen(const char *,int)', 00H ; `string'
CONST	ENDS
;	COMDAT ??_C@_01EEMJAFIK@?6@
CONST	SEGMENT
??_C@_01EEMJAFIK@?6@ DB 0aH, 00H			; `string'
CONST	ENDS
;	COMDAT ??_C@_04PFOHOKJK@?5?5?5?5@
CONST	SEGMENT
??_C@_04PFOHOKJK@?5?5?5?5@ DB '    ', 00H		; `string'
CONST	ENDS
;	COMDAT ??_7TiXmlPrinter@@6B@
CONST	SEGMENT
??_7TiXmlPrinter@@6B@ DD FLAT:??_R4TiXmlPrinter@@6B@	; TiXmlPrinter::`vftable'
	DD	FLAT:??_ETiXmlPrinter@@UAEPAXI@Z
	DD	FLAT:?VisitEnter@TiXmlPrinter@@UAE_NABVTiXmlElement@@PBVTiXmlAttribute@@@Z
	DD	FLAT:?VisitEnter@TiXmlPrinter@@UAE_NABVTiXmlDocument@@@Z
	DD	FLAT:?VisitExit@TiXmlPrinter@@UAE_NABVTiXmlElement@@@Z
	DD	FLAT:?VisitExit@TiXmlPrinter@@UAE_NABVTiXmlDocument@@@Z
	DD	FLAT:?Visit@TiXmlPrinter@@UAE_NABVTiXmlUnknown@@@Z
	DD	FLAT:?Visit@TiXmlPrinter@@UAE_NABVTiXmlComment@@@Z
	DD	FLAT:?Visit@TiXmlPrinter@@UAE_NABVTiXmlText@@@Z
	DD	FLAT:?Visit@TiXmlPrinter@@UAE_NABVTiXmlDeclaration@@@Z
CONST	ENDS
;	COMDAT ??_C@_00CNPNBAHC@@
CONST	SEGMENT
??_C@_00CNPNBAHC@@ DB 00H				; `string'
CONST	ENDS
;	COMDAT ??_7TiXmlDocument@@6B@
CONST	SEGMENT
??_7TiXmlDocument@@6B@ DD FLAT:??_R4TiXmlDocument@@6B@	; TiXmlDocument::`vftable'
	DD	FLAT:??_ETiXmlDocument@@UAEPAXI@Z
	DD	FLAT:?Print@TiXmlDocument@@UBEXPAVi3FileStream@@H@Z
	DD	FLAT:?Parse@TiXmlDocument@@UAEPBDPBDPAVTiXmlParsingData@@W4TiXmlEncoding@@@Z
	DD	FLAT:?ToDocument@TiXmlDocument@@UAEPAV1@XZ
	DD	FLAT:?ToDocument@TiXmlDocument@@UBEPBV1@XZ
	DD	FLAT:?ToElement@TiXmlNode@@UAEPAVTiXmlElement@@XZ
	DD	FLAT:?ToElement@TiXmlNode@@UBEPBVTiXmlElement@@XZ
	DD	FLAT:?ToComment@TiXmlNode@@UAEPAVTiXmlComment@@XZ
	DD	FLAT:?ToComment@TiXmlNode@@UBEPBVTiXmlComment@@XZ
	DD	FLAT:?ToUnknown@TiXmlNode@@UAEPAVTiXmlUnknown@@XZ
	DD	FLAT:?ToUnknown@TiXmlNode@@UBEPBVTiXmlUnknown@@XZ
	DD	FLAT:?ToText@TiXmlNode@@UAEPAVTiXmlText@@XZ
	DD	FLAT:?ToText@TiXmlNode@@UBEPBVTiXmlText@@XZ
	DD	FLAT:?ToDeclaration@TiXmlNode@@UAEPAVTiXmlDeclaration@@XZ
	DD	FLAT:?ToDeclaration@TiXmlNode@@UBEPBVTiXmlDeclaration@@XZ
	DD	FLAT:?Clone@TiXmlDocument@@MBEPAVTiXmlNode@@XZ
	DD	FLAT:?Accept@TiXmlDocument@@UBE_NPAVTiXmlVisitor@@@Z
CONST	ENDS
;	COMDAT ??_7TiXmlUnknown@@6B@
CONST	SEGMENT
??_7TiXmlUnknown@@6B@ DD FLAT:??_R4TiXmlUnknown@@6B@	; TiXmlUnknown::`vftable'
	DD	FLAT:??_ETiXmlUnknown@@UAEPAXI@Z
	DD	FLAT:?Print@TiXmlUnknown@@UBEXPAVi3FileStream@@H@Z
	DD	FLAT:?Parse@TiXmlUnknown@@UAEPBDPBDPAVTiXmlParsingData@@W4TiXmlEncoding@@@Z
	DD	FLAT:?ToDocument@TiXmlNode@@UAEPAVTiXmlDocument@@XZ
	DD	FLAT:?ToDocument@TiXmlNode@@UBEPBVTiXmlDocument@@XZ
	DD	FLAT:?ToElement@TiXmlNode@@UAEPAVTiXmlElement@@XZ
	DD	FLAT:?ToElement@TiXmlNode@@UBEPBVTiXmlElement@@XZ
	DD	FLAT:?ToComment@TiXmlNode@@UAEPAVTiXmlComment@@XZ
	DD	FLAT:?ToComment@TiXmlNode@@UBEPBVTiXmlComment@@XZ
	DD	FLAT:?ToUnknown@TiXmlUnknown@@UAEPAV1@XZ
	DD	FLAT:?ToUnknown@TiXmlUnknown@@UBEPBV1@XZ
	DD	FLAT:?ToText@TiXmlNode@@UAEPAVTiXmlText@@XZ
	DD	FLAT:?ToText@TiXmlNode@@UBEPBVTiXmlText@@XZ
	DD	FLAT:?ToDeclaration@TiXmlNode@@UAEPAVTiXmlDeclaration@@XZ
	DD	FLAT:?ToDeclaration@TiXmlNode@@UBEPBVTiXmlDeclaration@@XZ
	DD	FLAT:?Clone@TiXmlUnknown@@UBEPAVTiXmlNode@@XZ
	DD	FLAT:?Accept@TiXmlUnknown@@UBE_NPAVTiXmlVisitor@@@Z
CONST	ENDS
;	COMDAT ??_7TiXmlDeclaration@@6B@
CONST	SEGMENT
??_7TiXmlDeclaration@@6B@ DD FLAT:??_R4TiXmlDeclaration@@6B@ ; TiXmlDeclaration::`vftable'
	DD	FLAT:??_ETiXmlDeclaration@@UAEPAXI@Z
	DD	FLAT:?Print@TiXmlDeclaration@@UBEXPAVi3FileStream@@H@Z
	DD	FLAT:?Parse@TiXmlDeclaration@@UAEPBDPBDPAVTiXmlParsingData@@W4TiXmlEncoding@@@Z
	DD	FLAT:?ToDocument@TiXmlNode@@UAEPAVTiXmlDocument@@XZ
	DD	FLAT:?ToDocument@TiXmlNode@@UBEPBVTiXmlDocument@@XZ
	DD	FLAT:?ToElement@TiXmlNode@@UAEPAVTiXmlElement@@XZ
	DD	FLAT:?ToElement@TiXmlNode@@UBEPBVTiXmlElement@@XZ
	DD	FLAT:?ToComment@TiXmlNode@@UAEPAVTiXmlComment@@XZ
	DD	FLAT:?ToComment@TiXmlNode@@UBEPBVTiXmlComment@@XZ
	DD	FLAT:?ToUnknown@TiXmlNode@@UAEPAVTiXmlUnknown@@XZ
	DD	FLAT:?ToUnknown@TiXmlNode@@UBEPBVTiXmlUnknown@@XZ
	DD	FLAT:?ToText@TiXmlNode@@UAEPAVTiXmlText@@XZ
	DD	FLAT:?ToText@TiXmlNode@@UBEPBVTiXmlText@@XZ
	DD	FLAT:?ToDeclaration@TiXmlDeclaration@@UAEPAV1@XZ
	DD	FLAT:?ToDeclaration@TiXmlDeclaration@@UBEPBV1@XZ
	DD	FLAT:?Clone@TiXmlDeclaration@@UBEPAVTiXmlNode@@XZ
	DD	FLAT:?Accept@TiXmlDeclaration@@UBE_NPAVTiXmlVisitor@@@Z
	DD	FLAT:?Print@TiXmlDeclaration@@UBEXPAVi3FileStream@@HPAVTiXmlString@@@Z
CONST	ENDS
;	COMDAT ??_7TiXmlText@@6B@
CONST	SEGMENT
??_7TiXmlText@@6B@ DD FLAT:??_R4TiXmlText@@6B@		; TiXmlText::`vftable'
	DD	FLAT:??_ETiXmlText@@UAEPAXI@Z
	DD	FLAT:?Print@TiXmlText@@UBEXPAVi3FileStream@@H@Z
	DD	FLAT:?Parse@TiXmlText@@UAEPBDPBDPAVTiXmlParsingData@@W4TiXmlEncoding@@@Z
	DD	FLAT:?ToDocument@TiXmlNode@@UAEPAVTiXmlDocument@@XZ
	DD	FLAT:?ToDocument@TiXmlNode@@UBEPBVTiXmlDocument@@XZ
	DD	FLAT:?ToElement@TiXmlNode@@UAEPAVTiXmlElement@@XZ
	DD	FLAT:?ToElement@TiXmlNode@@UBEPBVTiXmlElement@@XZ
	DD	FLAT:?ToComment@TiXmlNode@@UAEPAVTiXmlComment@@XZ
	DD	FLAT:?ToComment@TiXmlNode@@UBEPBVTiXmlComment@@XZ
	DD	FLAT:?ToUnknown@TiXmlNode@@UAEPAVTiXmlUnknown@@XZ
	DD	FLAT:?ToUnknown@TiXmlNode@@UBEPBVTiXmlUnknown@@XZ
	DD	FLAT:?ToText@TiXmlText@@UAEPAV1@XZ
	DD	FLAT:?ToText@TiXmlText@@UBEPBV1@XZ
	DD	FLAT:?ToDeclaration@TiXmlNode@@UAEPAVTiXmlDeclaration@@XZ
	DD	FLAT:?ToDeclaration@TiXmlNode@@UBEPBVTiXmlDeclaration@@XZ
	DD	FLAT:?Clone@TiXmlText@@MBEPAVTiXmlNode@@XZ
	DD	FLAT:?Accept@TiXmlText@@UBE_NPAVTiXmlVisitor@@@Z
CONST	ENDS
;	COMDAT ??_7TiXmlComment@@6B@
CONST	SEGMENT
??_7TiXmlComment@@6B@ DD FLAT:??_R4TiXmlComment@@6B@	; TiXmlComment::`vftable'
	DD	FLAT:??_ETiXmlComment@@UAEPAXI@Z
	DD	FLAT:?Print@TiXmlComment@@UBEXPAVi3FileStream@@H@Z
	DD	FLAT:?Parse@TiXmlComment@@UAEPBDPBDPAVTiXmlParsingData@@W4TiXmlEncoding@@@Z
	DD	FLAT:?ToDocument@TiXmlNode@@UAEPAVTiXmlDocument@@XZ
	DD	FLAT:?ToDocument@TiXmlNode@@UBEPBVTiXmlDocument@@XZ
	DD	FLAT:?ToElement@TiXmlNode@@UAEPAVTiXmlElement@@XZ
	DD	FLAT:?ToElement@TiXmlNode@@UBEPBVTiXmlElement@@XZ
	DD	FLAT:?ToComment@TiXmlComment@@UAEPAV1@XZ
	DD	FLAT:?ToComment@TiXmlComment@@UBEPBV1@XZ
	DD	FLAT:?ToUnknown@TiXmlNode@@UAEPAVTiXmlUnknown@@XZ
	DD	FLAT:?ToUnknown@TiXmlNode@@UBEPBVTiXmlUnknown@@XZ
	DD	FLAT:?ToText@TiXmlNode@@UAEPAVTiXmlText@@XZ
	DD	FLAT:?ToText@TiXmlNode@@UBEPBVTiXmlText@@XZ
	DD	FLAT:?ToDeclaration@TiXmlNode@@UAEPAVTiXmlDeclaration@@XZ
	DD	FLAT:?ToDeclaration@TiXmlNode@@UBEPBVTiXmlDeclaration@@XZ
	DD	FLAT:?Clone@TiXmlComment@@UBEPAVTiXmlNode@@XZ
	DD	FLAT:?Accept@TiXmlComment@@UBE_NPAVTiXmlVisitor@@@Z
CONST	ENDS
;	COMDAT ??_7TiXmlElement@@6B@
CONST	SEGMENT
??_7TiXmlElement@@6B@ DD FLAT:??_R4TiXmlElement@@6B@	; TiXmlElement::`vftable'
	DD	FLAT:??_ETiXmlElement@@UAEPAXI@Z
	DD	FLAT:?Print@TiXmlElement@@UBEXPAVi3FileStream@@H@Z
	DD	FLAT:?Parse@TiXmlElement@@UAEPBDPBDPAVTiXmlParsingData@@W4TiXmlEncoding@@@Z
	DD	FLAT:?ToDocument@TiXmlNode@@UAEPAVTiXmlDocument@@XZ
	DD	FLAT:?ToDocument@TiXmlNode@@UBEPBVTiXmlDocument@@XZ
	DD	FLAT:?ToElement@TiXmlElement@@UAEPAV1@XZ
	DD	FLAT:?ToElement@TiXmlElement@@UBEPBV1@XZ
	DD	FLAT:?ToComment@TiXmlNode@@UAEPAVTiXmlComment@@XZ
	DD	FLAT:?ToComment@TiXmlNode@@UBEPBVTiXmlComment@@XZ
	DD	FLAT:?ToUnknown@TiXmlNode@@UAEPAVTiXmlUnknown@@XZ
	DD	FLAT:?ToUnknown@TiXmlNode@@UBEPBVTiXmlUnknown@@XZ
	DD	FLAT:?ToText@TiXmlNode@@UAEPAVTiXmlText@@XZ
	DD	FLAT:?ToText@TiXmlNode@@UBEPBVTiXmlText@@XZ
	DD	FLAT:?ToDeclaration@TiXmlNode@@UAEPAVTiXmlDeclaration@@XZ
	DD	FLAT:?ToDeclaration@TiXmlNode@@UBEPBVTiXmlDeclaration@@XZ
	DD	FLAT:?Clone@TiXmlElement@@UBEPAVTiXmlNode@@XZ
	DD	FLAT:?Accept@TiXmlElement@@UBE_NPAVTiXmlVisitor@@@Z
CONST	ENDS
;	COMDAT ??_7TiXmlAttribute@@6B@
CONST	SEGMENT
??_7TiXmlAttribute@@6B@ DD FLAT:??_R4TiXmlAttribute@@6B@ ; TiXmlAttribute::`vftable'
	DD	FLAT:??_ETiXmlAttribute@@UAEPAXI@Z
	DD	FLAT:?Print@TiXmlAttribute@@UBEXPAVi3FileStream@@H@Z
	DD	FLAT:?Parse@TiXmlAttribute@@UAEPBDPBDPAVTiXmlParsingData@@W4TiXmlEncoding@@@Z
CONST	ENDS
;	COMDAT ??_7TiXmlNode@@6B@
CONST	SEGMENT
??_7TiXmlNode@@6B@ DD FLAT:??_R4TiXmlNode@@6B@		; TiXmlNode::`vftable'
	DD	FLAT:??_ETiXmlNode@@UAEPAXI@Z
	DD	FLAT:__purecall
	DD	FLAT:__purecall
	DD	FLAT:?ToDocument@TiXmlNode@@UAEPAVTiXmlDocument@@XZ
	DD	FLAT:?ToDocument@TiXmlNode@@UBEPBVTiXmlDocument@@XZ
	DD	FLAT:?ToElement@TiXmlNode@@UAEPAVTiXmlElement@@XZ
	DD	FLAT:?ToElement@TiXmlNode@@UBEPBVTiXmlElement@@XZ
	DD	FLAT:?ToComment@TiXmlNode@@UAEPAVTiXmlComment@@XZ
	DD	FLAT:?ToComment@TiXmlNode@@UBEPBVTiXmlComment@@XZ
	DD	FLAT:?ToUnknown@TiXmlNode@@UAEPAVTiXmlUnknown@@XZ
	DD	FLAT:?ToUnknown@TiXmlNode@@UBEPBVTiXmlUnknown@@XZ
	DD	FLAT:?ToText@TiXmlNode@@UAEPAVTiXmlText@@XZ
	DD	FLAT:?ToText@TiXmlNode@@UBEPBVTiXmlText@@XZ
	DD	FLAT:?ToDeclaration@TiXmlNode@@UAEPAVTiXmlDeclaration@@XZ
	DD	FLAT:?ToDeclaration@TiXmlNode@@UBEPBVTiXmlDeclaration@@XZ
	DD	FLAT:__purecall
	DD	FLAT:__purecall
CONST	ENDS
;	COMDAT ??_7TiXmlBase@@6B@
CONST	SEGMENT
??_7TiXmlBase@@6B@ DD FLAT:??_R4TiXmlBase@@6B@		; TiXmlBase::`vftable'
	DD	FLAT:??_ETiXmlBase@@UAEPAXI@Z
	DD	FLAT:__purecall
	DD	FLAT:__purecall
CONST	ENDS
;	COMDAT ??_7TiXmlVisitor@@6B@
CONST	SEGMENT
??_7TiXmlVisitor@@6B@ DD FLAT:??_R4TiXmlVisitor@@6B@	; TiXmlVisitor::`vftable'
	DD	FLAT:??_ETiXmlVisitor@@UAEPAXI@Z
	DD	FLAT:?VisitEnter@TiXmlVisitor@@UAE_NABVTiXmlElement@@PBVTiXmlAttribute@@@Z
	DD	FLAT:?VisitEnter@TiXmlVisitor@@UAE_NABVTiXmlDocument@@@Z
	DD	FLAT:?VisitExit@TiXmlVisitor@@UAE_NABVTiXmlElement@@@Z
	DD	FLAT:?VisitExit@TiXmlVisitor@@UAE_NABVTiXmlDocument@@@Z
	DD	FLAT:?Visit@TiXmlVisitor@@UAE_NABVTiXmlUnknown@@@Z
	DD	FLAT:?Visit@TiXmlVisitor@@UAE_NABVTiXmlComment@@@Z
	DD	FLAT:?Visit@TiXmlVisitor@@UAE_NABVTiXmlText@@@Z
	DD	FLAT:?Visit@TiXmlVisitor@@UAE_NABVTiXmlDeclaration@@@Z
CONST	ENDS
;	COMDAT ??_7i3FileStream@@6B@
CONST	SEGMENT
??_7i3FileStream@@6B@ DD FLAT:??_R4i3FileStream@@6B@	; i3FileStream::`vftable'
	DD	FLAT:?GetMeta@i3FileStream@@UAEPAVi3ClassMeta@@XZ
	DD	FLAT:??_Ei3FileStream@@UAEPAXI@Z
	DD	FLAT:?CopyTo@i3ElementBase@@UAEXPAV1@W4I3_COPY_METHOD@@@Z
	DD	FLAT:?GetHandle@i3FileStream@@UAEPAXXZ
	DD	FLAT:?Create@i3FileStream@@UAEHPBDHI@Z
	DD	FLAT:?Open@i3FileStream@@UAEHPBDHI@Z
	DD	FLAT:?Close@i3FileStream@@UAEHXZ
	DD	FLAT:?Read@i3FileStream@@UAEIPAXH@Z
	DD	FLAT:?CopyTo@i3Stream@@UAEIPAV1@I@Z
	DD	FLAT:?Write@i3FileStream@@UAEIPBXH@Z
	DD	FLAT:?CopyFrom@i3Stream@@UAEIPAV1@I@Z
	DD	FLAT:?SetPosition@i3FileStream@@UAEIHH@Z
	DD	FLAT:?GetPosition@i3FileStream@@UAEIXZ
	DD	FLAT:?ReadLine@i3Stream@@UAEIPADH@Z
	DD	FLAT:?ReadLineW@i3Stream@@UAEIPAGH@Z
	DD	FLAT:?WriteLine@i3Stream@@UAEIPBD@Z
	DD	FLAT:?WriteLineW@i3Stream@@UAEIPBG@Z
	DD	FLAT:?Printf@i3Stream@@UAAIPADPBDZZ
CONST	ENDS
;	COMDAT ??_7i3Stream@@6B@
CONST	SEGMENT
??_7i3Stream@@6B@ DD FLAT:??_R4i3Stream@@6B@		; i3Stream::`vftable'
	DD	FLAT:?GetMeta@i3Stream@@UAEPAVi3ClassMeta@@XZ
	DD	FLAT:??_Ei3Stream@@UAEPAXI@Z
	DD	FLAT:?CopyTo@i3ElementBase@@UAEXPAV1@W4I3_COPY_METHOD@@@Z
	DD	FLAT:?GetHandle@i3Stream@@UAEPAXXZ
	DD	FLAT:__purecall
	DD	FLAT:__purecall
	DD	FLAT:__purecall
	DD	FLAT:__purecall
	DD	FLAT:?CopyTo@i3Stream@@UAEIPAV1@I@Z
	DD	FLAT:__purecall
	DD	FLAT:?CopyFrom@i3Stream@@UAEIPAV1@I@Z
	DD	FLAT:__purecall
	DD	FLAT:__purecall
	DD	FLAT:?ReadLine@i3Stream@@UAEIPADH@Z
	DD	FLAT:?ReadLineW@i3Stream@@UAEIPAGH@Z
	DD	FLAT:?WriteLine@i3Stream@@UAEIPBD@Z
	DD	FLAT:?WriteLineW@i3Stream@@UAEIPBG@Z
	DD	FLAT:?Printf@i3Stream@@UAAIPADPBDZZ
CONST	ENDS
;	COMDAT ??_7i3MemoryPool@@6B@
CONST	SEGMENT
??_7i3MemoryPool@@6B@ DD FLAT:??_R4i3MemoryPool@@6B@	; i3MemoryPool::`vftable'
	DD	FLAT:??_Ei3MemoryPool@@UAEPAXI@Z
	DD	FLAT:__purecall
	DD	FLAT:__purecall
CONST	ENDS
;	COMDAT ??_7i3ElementBase@@6B@
CONST	SEGMENT
??_7i3ElementBase@@6B@ DD FLAT:??_R4i3ElementBase@@6B@	; i3ElementBase::`vftable'
	DD	FLAT:?GetMeta@i3ElementBase@@UAEPAVi3ClassMeta@@XZ
	DD	FLAT:??_Ei3ElementBase@@UAEPAXI@Z
	DD	FLAT:?CopyTo@i3ElementBase@@UAEXPAV1@W4I3_COPY_METHOD@@@Z
CONST	ENDS
;	COMDAT ??_7i3ClassMeta@@6B@
CONST	SEGMENT
??_7i3ClassMeta@@6B@ DD FLAT:??_R4i3ClassMeta@@6B@	; i3ClassMeta::`vftable'
	DD	FLAT:??_Ei3ClassMeta@@UAEPAXI@Z
	DD	FLAT:?CreateInstance@i3ClassMeta@@UAEPAVi3ElementBase@@W4I3_CLASSMETA_TYPE@@@Z
	DD	FLAT:?BindInstance@i3ClassMeta@@UAEPAVi3ElementBase@@PAXW4I3_CLASSMETA_TYPE@@@Z
CONST	ENDS
;	COMDAT xdata$x
xdata$x	SEGMENT
__ehfuncinfo$??_ETiXmlPrinter@@UAEPAXI@Z DD 019930522H
	DD	00H
	DD	00H
	DD	2 DUP(00H)
	DD	2 DUP(00H)
	DD	00H
	DD	05H
xdata$x	ENDS
;	COMDAT xdata$x
xdata$x	SEGMENT
__unwindtable$??0TiXmlPrinter@@QAE@$$QAV0@@Z DD 0ffffffffH
	DD	FLAT:__unwindfunclet$??0TiXmlPrinter@@QAE@$$QAV0@@Z$0
	DD	00H
	DD	FLAT:__unwindfunclet$??0TiXmlPrinter@@QAE@$$QAV0@@Z$1
	DD	01H
	DD	FLAT:__unwindfunclet$??0TiXmlPrinter@@QAE@$$QAV0@@Z$2
__ehfuncinfo$??0TiXmlPrinter@@QAE@$$QAV0@@Z DD 019930522H
	DD	03H
	DD	FLAT:__unwindtable$??0TiXmlPrinter@@QAE@$$QAV0@@Z
	DD	2 DUP(00H)
	DD	2 DUP(00H)
	DD	00H
	DD	01H
xdata$x	ENDS
;	COMDAT xdata$x
xdata$x	SEGMENT
__unwindtable$??0TiXmlPrinter@@QAE@ABV0@@Z DD 0ffffffffH
	DD	FLAT:__unwindfunclet$??0TiXmlPrinter@@QAE@ABV0@@Z$0
	DD	00H
	DD	FLAT:__unwindfunclet$??0TiXmlPrinter@@QAE@ABV0@@Z$1
	DD	01H
	DD	FLAT:__unwindfunclet$??0TiXmlPrinter@@QAE@ABV0@@Z$2
__ehfuncinfo$??0TiXmlPrinter@@QAE@ABV0@@Z DD 019930522H
	DD	03H
	DD	FLAT:__unwindtable$??0TiXmlPrinter@@QAE@ABV0@@Z
	DD	2 DUP(00H)
	DD	2 DUP(00H)
	DD	00H
	DD	01H
xdata$x	ENDS
;	COMDAT xdata$x
xdata$x	SEGMENT
__unwindtable$?Visit@TiXmlPrinter@@UAE_NABVTiXmlText@@@Z DD 0ffffffffH
	DD	FLAT:__unwindfunclet$?Visit@TiXmlPrinter@@UAE_NABVTiXmlText@@@Z$0
	DD	0ffffffffH
	DD	FLAT:__unwindfunclet$?Visit@TiXmlPrinter@@UAE_NABVTiXmlText@@@Z$1
__ehfuncinfo$?Visit@TiXmlPrinter@@UAE_NABVTiXmlText@@@Z DD 019930522H
	DD	02H
	DD	FLAT:__unwindtable$?Visit@TiXmlPrinter@@UAE_NABVTiXmlText@@@Z
	DD	2 DUP(00H)
	DD	2 DUP(00H)
	DD	00H
	DD	01H
xdata$x	ENDS
;	COMDAT xdata$x
xdata$x	SEGMENT
__unwindtable$??0TiXmlPrinter@@QAE@XZ DD 0ffffffffH
	DD	FLAT:__unwindfunclet$??0TiXmlPrinter@@QAE@XZ$0
	DD	00H
	DD	FLAT:__unwindfunclet$??0TiXmlPrinter@@QAE@XZ$1
	DD	01H
	DD	FLAT:__unwindfunclet$??0TiXmlPrinter@@QAE@XZ$2
__ehfuncinfo$??0TiXmlPrinter@@QAE@XZ DD 019930522H
	DD	03H
	DD	FLAT:__unwindtable$??0TiXmlPrinter@@QAE@XZ
	DD	2 DUP(00H)
	DD	2 DUP(00H)
	DD	00H
	DD	01H
xdata$x	ENDS
;	COMDAT xdata$x
xdata$x	SEGMENT
__ehfuncinfo$??_ETiXmlDocument@@UAEPAXI@Z DD 019930522H
	DD	00H
	DD	00H
	DD	2 DUP(00H)
	DD	2 DUP(00H)
	DD	00H
	DD	05H
xdata$x	ENDS
;	COMDAT xdata$x
xdata$x	SEGMENT
__unwindtable$?Clone@TiXmlDocument@@MBEPAVTiXmlNode@@XZ DD 0ffffffffH
	DD	FLAT:__unwindfunclet$?Clone@TiXmlDocument@@MBEPAVTiXmlNode@@XZ$0
__ehfuncinfo$?Clone@TiXmlDocument@@MBEPAVTiXmlNode@@XZ DD 019930522H
	DD	01H
	DD	FLAT:__unwindtable$?Clone@TiXmlDocument@@MBEPAVTiXmlNode@@XZ
	DD	2 DUP(00H)
	DD	2 DUP(00H)
	DD	00H
	DD	01H
xdata$x	ENDS
;	COMDAT xdata$x
xdata$x	SEGMENT
__unwindtable$?LoadFile@TiXmlDocument@@QAE_NPAVi3FileStream@@W4TiXmlEncoding@@@Z DD 0ffffffffH
	DD	FLAT:__unwindfunclet$?LoadFile@TiXmlDocument@@QAE_NPAVi3FileStream@@W4TiXmlEncoding@@@Z$0
__ehfuncinfo$?LoadFile@TiXmlDocument@@QAE_NPAVi3FileStream@@W4TiXmlEncoding@@@Z DD 019930522H
	DD	01H
	DD	FLAT:__unwindtable$?LoadFile@TiXmlDocument@@QAE_NPAVi3FileStream@@W4TiXmlEncoding@@@Z
	DD	2 DUP(00H)
	DD	2 DUP(00H)
	DD	00H
	DD	01H
xdata$x	ENDS
;	COMDAT xdata$x
xdata$x	SEGMENT
__unwindtable$?LoadFile@TiXmlDocument@@QAE_NPBDW4TiXmlEncoding@@@Z DD 0ffffffffH
	DD	FLAT:__unwindfunclet$?LoadFile@TiXmlDocument@@QAE_NPBDW4TiXmlEncoding@@@Z$0
__ehfuncinfo$?LoadFile@TiXmlDocument@@QAE_NPBDW4TiXmlEncoding@@@Z DD 019930522H
	DD	01H
	DD	FLAT:__unwindtable$?LoadFile@TiXmlDocument@@QAE_NPBDW4TiXmlEncoding@@@Z
	DD	2 DUP(00H)
	DD	2 DUP(00H)
	DD	00H
	DD	01H
xdata$x	ENDS
;	COMDAT xdata$x
xdata$x	SEGMENT
__unwindtable$??0TiXmlDocument@@QAE@ABV0@@Z DD 0ffffffffH
	DD	FLAT:__unwindfunclet$??0TiXmlDocument@@QAE@ABV0@@Z$0
	DD	00H
	DD	FLAT:__unwindfunclet$??0TiXmlDocument@@QAE@ABV0@@Z$1
__ehfuncinfo$??0TiXmlDocument@@QAE@ABV0@@Z DD 019930522H
	DD	02H
	DD	FLAT:__unwindtable$??0TiXmlDocument@@QAE@ABV0@@Z
	DD	2 DUP(00H)
	DD	2 DUP(00H)
	DD	00H
	DD	01H
xdata$x	ENDS
;	COMDAT xdata$x
xdata$x	SEGMENT
__unwindtable$??0TiXmlDocument@@QAE@PBD@Z DD 0ffffffffH
	DD	FLAT:__unwindfunclet$??0TiXmlDocument@@QAE@PBD@Z$0
	DD	00H
	DD	FLAT:__unwindfunclet$??0TiXmlDocument@@QAE@PBD@Z$1
__ehfuncinfo$??0TiXmlDocument@@QAE@PBD@Z DD 019930522H
	DD	02H
	DD	FLAT:__unwindtable$??0TiXmlDocument@@QAE@PBD@Z
	DD	2 DUP(00H)
	DD	2 DUP(00H)
	DD	00H
	DD	01H
xdata$x	ENDS
;	COMDAT xdata$x
xdata$x	SEGMENT
__unwindtable$??0TiXmlDocument@@QAE@XZ DD 0ffffffffH
	DD	FLAT:__unwindfunclet$??0TiXmlDocument@@QAE@XZ$0
	DD	00H
	DD	FLAT:__unwindfunclet$??0TiXmlDocument@@QAE@XZ$1
__ehfuncinfo$??0TiXmlDocument@@QAE@XZ DD 019930522H
	DD	02H
	DD	FLAT:__unwindtable$??0TiXmlDocument@@QAE@XZ
	DD	2 DUP(00H)
	DD	2 DUP(00H)
	DD	00H
	DD	01H
xdata$x	ENDS
;	COMDAT xdata$x
xdata$x	SEGMENT
__ehfuncinfo$??_ETiXmlUnknown@@UAEPAXI@Z DD 019930522H
	DD	00H
	DD	00H
	DD	2 DUP(00H)
	DD	2 DUP(00H)
	DD	00H
	DD	05H
xdata$x	ENDS
;	COMDAT xdata$x
xdata$x	SEGMENT
__unwindtable$??0TiXmlUnknown@@QAE@ABV0@@Z DD 0ffffffffH
	DD	FLAT:__unwindfunclet$??0TiXmlUnknown@@QAE@ABV0@@Z$0
__ehfuncinfo$??0TiXmlUnknown@@QAE@ABV0@@Z DD 019930522H
	DD	01H
	DD	FLAT:__unwindtable$??0TiXmlUnknown@@QAE@ABV0@@Z
	DD	2 DUP(00H)
	DD	2 DUP(00H)
	DD	00H
	DD	01H
xdata$x	ENDS
;	COMDAT xdata$x
xdata$x	SEGMENT
__ehfuncinfo$??_ETiXmlDeclaration@@UAEPAXI@Z DD 019930522H
	DD	00H
	DD	00H
	DD	2 DUP(00H)
	DD	2 DUP(00H)
	DD	00H
	DD	05H
xdata$x	ENDS
;	COMDAT xdata$x
xdata$x	SEGMENT
__unwindtable$??0TiXmlDeclaration@@QAE@ABV0@@Z DD 0ffffffffH
	DD	FLAT:__unwindfunclet$??0TiXmlDeclaration@@QAE@ABV0@@Z$0
	DD	00H
	DD	FLAT:__unwindfunclet$??0TiXmlDeclaration@@QAE@ABV0@@Z$1
	DD	01H
	DD	FLAT:__unwindfunclet$??0TiXmlDeclaration@@QAE@ABV0@@Z$2
	DD	02H
	DD	FLAT:__unwindfunclet$??0TiXmlDeclaration@@QAE@ABV0@@Z$3
__ehfuncinfo$??0TiXmlDeclaration@@QAE@ABV0@@Z DD 019930522H
	DD	04H
	DD	FLAT:__unwindtable$??0TiXmlDeclaration@@QAE@ABV0@@Z
	DD	2 DUP(00H)
	DD	2 DUP(00H)
	DD	00H
	DD	01H
xdata$x	ENDS
;	COMDAT xdata$x
xdata$x	SEGMENT
__unwindtable$??0TiXmlDeclaration@@QAE@PBD00@Z DD 0ffffffffH
	DD	FLAT:__unwindfunclet$??0TiXmlDeclaration@@QAE@PBD00@Z$0
	DD	00H
	DD	FLAT:__unwindfunclet$??0TiXmlDeclaration@@QAE@PBD00@Z$1
	DD	01H
	DD	FLAT:__unwindfunclet$??0TiXmlDeclaration@@QAE@PBD00@Z$2
	DD	02H
	DD	FLAT:__unwindfunclet$??0TiXmlDeclaration@@QAE@PBD00@Z$3
__ehfuncinfo$??0TiXmlDeclaration@@QAE@PBD00@Z DD 019930522H
	DD	04H
	DD	FLAT:__unwindtable$??0TiXmlDeclaration@@QAE@PBD00@Z
	DD	2 DUP(00H)
	DD	2 DUP(00H)
	DD	00H
	DD	01H
xdata$x	ENDS
;	COMDAT xdata$x
xdata$x	SEGMENT
__ehfuncinfo$??_ETiXmlText@@UAEPAXI@Z DD 019930522H
	DD	00H
	DD	00H
	DD	2 DUP(00H)
	DD	2 DUP(00H)
	DD	00H
	DD	05H
xdata$x	ENDS
;	COMDAT xdata$x
xdata$x	SEGMENT
__unwindtable$?Clone@TiXmlText@@MBEPAVTiXmlNode@@XZ DD 0ffffffffH
	DD	FLAT:__unwindfunclet$?Clone@TiXmlText@@MBEPAVTiXmlNode@@XZ$0
	DD	00H
	DD	FLAT:__unwindfunclet$?Clone@TiXmlText@@MBEPAVTiXmlNode@@XZ$1
__ehfuncinfo$?Clone@TiXmlText@@MBEPAVTiXmlNode@@XZ DD 019930522H
	DD	02H
	DD	FLAT:__unwindtable$?Clone@TiXmlText@@MBEPAVTiXmlNode@@XZ
	DD	2 DUP(00H)
	DD	2 DUP(00H)
	DD	00H
	DD	01H
xdata$x	ENDS
;	COMDAT xdata$x
xdata$x	SEGMENT
__unwindtable$?Print@TiXmlText@@UBEXPAVi3FileStream@@H@Z DD 0ffffffffH
	DD	FLAT:__unwindfunclet$?Print@TiXmlText@@UBEXPAVi3FileStream@@H@Z$0
__ehfuncinfo$?Print@TiXmlText@@UBEXPAVi3FileStream@@H@Z DD 019930522H
	DD	01H
	DD	FLAT:__unwindtable$?Print@TiXmlText@@UBEXPAVi3FileStream@@H@Z
	DD	2 DUP(00H)
	DD	2 DUP(00H)
	DD	00H
	DD	01H
xdata$x	ENDS
;	COMDAT xdata$x
xdata$x	SEGMENT
__unwindtable$??0TiXmlText@@QAE@ABV0@@Z DD 0ffffffffH
	DD	FLAT:__unwindfunclet$??0TiXmlText@@QAE@ABV0@@Z$0
__ehfuncinfo$??0TiXmlText@@QAE@ABV0@@Z DD 019930522H
	DD	01H
	DD	FLAT:__unwindtable$??0TiXmlText@@QAE@ABV0@@Z
	DD	2 DUP(00H)
	DD	2 DUP(00H)
	DD	00H
	DD	01H
xdata$x	ENDS
;	COMDAT xdata$x
xdata$x	SEGMENT
__unwindtable$??0TiXmlText@@QAE@PBD@Z DD 0ffffffffH
	DD	FLAT:__unwindfunclet$??0TiXmlText@@QAE@PBD@Z$0
__ehfuncinfo$??0TiXmlText@@QAE@PBD@Z DD 019930522H
	DD	01H
	DD	FLAT:__unwindtable$??0TiXmlText@@QAE@PBD@Z
	DD	2 DUP(00H)
	DD	2 DUP(00H)
	DD	00H
	DD	01H
xdata$x	ENDS
;	COMDAT xdata$x
xdata$x	SEGMENT
__ehfuncinfo$??_ETiXmlComment@@UAEPAXI@Z DD 019930522H
	DD	00H
	DD	00H
	DD	2 DUP(00H)
	DD	2 DUP(00H)
	DD	00H
	DD	05H
xdata$x	ENDS
;	COMDAT xdata$x
xdata$x	SEGMENT
__unwindtable$??0TiXmlComment@@QAE@ABV0@@Z DD 0ffffffffH
	DD	FLAT:__unwindfunclet$??0TiXmlComment@@QAE@ABV0@@Z$0
__ehfuncinfo$??0TiXmlComment@@QAE@ABV0@@Z DD 019930522H
	DD	01H
	DD	FLAT:__unwindtable$??0TiXmlComment@@QAE@ABV0@@Z
	DD	2 DUP(00H)
	DD	2 DUP(00H)
	DD	00H
	DD	01H
xdata$x	ENDS
;	COMDAT xdata$x
xdata$x	SEGMENT
__unwindtable$??0TiXmlComment@@QAE@PBD@Z DD 0ffffffffH
	DD	FLAT:__unwindfunclet$??0TiXmlComment@@QAE@PBD@Z$0
__ehfuncinfo$??0TiXmlComment@@QAE@PBD@Z DD 019930522H
	DD	01H
	DD	FLAT:__unwindtable$??0TiXmlComment@@QAE@PBD@Z
	DD	2 DUP(00H)
	DD	2 DUP(00H)
	DD	00H
	DD	01H
xdata$x	ENDS
;	COMDAT xdata$x
xdata$x	SEGMENT
__ehfuncinfo$??_ETiXmlElement@@UAEPAXI@Z DD 019930522H
	DD	00H
	DD	00H
	DD	2 DUP(00H)
	DD	2 DUP(00H)
	DD	00H
	DD	05H
xdata$x	ENDS
;	COMDAT xdata$x
xdata$x	SEGMENT
__unwindtable$?Clone@TiXmlElement@@UBEPAVTiXmlNode@@XZ DD 0ffffffffH
	DD	FLAT:__unwindfunclet$?Clone@TiXmlElement@@UBEPAVTiXmlNode@@XZ$0
__ehfuncinfo$?Clone@TiXmlElement@@UBEPAVTiXmlNode@@XZ DD 019930522H
	DD	01H
	DD	FLAT:__unwindtable$?Clone@TiXmlElement@@UBEPAVTiXmlNode@@XZ
	DD	2 DUP(00H)
	DD	2 DUP(00H)
	DD	00H
	DD	01H
xdata$x	ENDS
;	COMDAT xdata$x
xdata$x	SEGMENT
__unwindtable$?SetAttribute@TiXmlElement@@QAEXPBD0@Z DD 0ffffffffH
	DD	FLAT:__unwindfunclet$?SetAttribute@TiXmlElement@@QAEXPBD0@Z$0
__ehfuncinfo$?SetAttribute@TiXmlElement@@QAEXPBD0@Z DD 019930522H
	DD	01H
	DD	FLAT:__unwindtable$?SetAttribute@TiXmlElement@@QAEXPBD0@Z
	DD	2 DUP(00H)
	DD	2 DUP(00H)
	DD	00H
	DD	01H
xdata$x	ENDS
;	COMDAT xdata$x
xdata$x	SEGMENT
__unwindtable$??0TiXmlElement@@QAE@ABV0@@Z DD 0ffffffffH
	DD	FLAT:__unwindfunclet$??0TiXmlElement@@QAE@ABV0@@Z$0
	DD	00H
	DD	FLAT:__unwindfunclet$??0TiXmlElement@@QAE@ABV0@@Z$1
__ehfuncinfo$??0TiXmlElement@@QAE@ABV0@@Z DD 019930522H
	DD	02H
	DD	FLAT:__unwindtable$??0TiXmlElement@@QAE@ABV0@@Z
	DD	2 DUP(00H)
	DD	2 DUP(00H)
	DD	00H
	DD	01H
xdata$x	ENDS
;	COMDAT xdata$x
xdata$x	SEGMENT
__unwindtable$??0TiXmlElement@@QAE@PBD@Z DD 0ffffffffH
	DD	FLAT:__unwindfunclet$??0TiXmlElement@@QAE@PBD@Z$0
	DD	00H
	DD	FLAT:__unwindfunclet$??0TiXmlElement@@QAE@PBD@Z$1
__ehfuncinfo$??0TiXmlElement@@QAE@PBD@Z DD 019930522H
	DD	02H
	DD	FLAT:__unwindtable$??0TiXmlElement@@QAE@PBD@Z
	DD	2 DUP(00H)
	DD	2 DUP(00H)
	DD	00H
	DD	01H
xdata$x	ENDS
;	COMDAT xdata$x
xdata$x	SEGMENT
__ehfuncinfo$??_ETiXmlAttribute@@UAEPAXI@Z DD 019930522H
	DD	00H
	DD	00H
	DD	2 DUP(00H)
	DD	2 DUP(00H)
	DD	00H
	DD	05H
xdata$x	ENDS
;	COMDAT xdata$x
xdata$x	SEGMENT
__unwindtable$?Print@TiXmlAttribute@@QBEXPAVi3FileStream@@HPAVTiXmlString@@@Z DD 0ffffffffH
	DD	FLAT:__unwindfunclet$?Print@TiXmlAttribute@@QBEXPAVi3FileStream@@HPAVTiXmlString@@@Z$0
	DD	00H
	DD	FLAT:__unwindfunclet$?Print@TiXmlAttribute@@QBEXPAVi3FileStream@@HPAVTiXmlString@@@Z$1
__ehfuncinfo$?Print@TiXmlAttribute@@QBEXPAVi3FileStream@@HPAVTiXmlString@@@Z DD 019930522H
	DD	02H
	DD	FLAT:__unwindtable$?Print@TiXmlAttribute@@QBEXPAVi3FileStream@@HPAVTiXmlString@@@Z
	DD	2 DUP(00H)
	DD	2 DUP(00H)
	DD	00H
	DD	01H
xdata$x	ENDS
;	COMDAT xdata$x
xdata$x	SEGMENT
__unwindtable$??0TiXmlAttribute@@QAE@PBD0@Z DD 0ffffffffH
	DD	FLAT:__unwindfunclet$??0TiXmlAttribute@@QAE@PBD0@Z$0
	DD	00H
	DD	FLAT:__unwindfunclet$??0TiXmlAttribute@@QAE@PBD0@Z$1
	DD	01H
	DD	FLAT:__unwindfunclet$??0TiXmlAttribute@@QAE@PBD0@Z$2
__ehfuncinfo$??0TiXmlAttribute@@QAE@PBD0@Z DD 019930522H
	DD	03H
	DD	FLAT:__unwindtable$??0TiXmlAttribute@@QAE@PBD0@Z
	DD	2 DUP(00H)
	DD	2 DUP(00H)
	DD	00H
	DD	01H
xdata$x	ENDS
;	COMDAT xdata$x
xdata$x	SEGMENT
__ehfuncinfo$??_ETiXmlNode@@UAEPAXI@Z DD 019930522H
	DD	00H
	DD	00H
	DD	2 DUP(00H)
	DD	2 DUP(00H)
	DD	00H
	DD	05H
xdata$x	ENDS
;	COMDAT xdata$x
xdata$x	SEGMENT
__ehfuncinfo$??_ETiXmlBase@@UAEPAXI@Z DD 019930522H
	DD	00H
	DD	00H
	DD	2 DUP(00H)
	DD	2 DUP(00H)
	DD	00H
	DD	05H
xdata$x	ENDS
;	COMDAT xdata$x
xdata$x	SEGMENT
__ehfuncinfo$??_ETiXmlVisitor@@UAEPAXI@Z DD 019930522H
	DD	00H
	DD	00H
	DD	2 DUP(00H)
	DD	2 DUP(00H)
	DD	00H
	DD	05H
xdata$x	ENDS
;	COMDAT xdata$x
xdata$x	SEGMENT
__ehfuncinfo$??_Ei3FileStream@@UAEPAXI@Z DD 019930522H
	DD	00H
	DD	00H
	DD	2 DUP(00H)
	DD	2 DUP(00H)
	DD	00H
	DD	05H
xdata$x	ENDS
;	COMDAT xdata$x
xdata$x	SEGMENT
__ehfuncinfo$??_Ei3Stream@@UAEPAXI@Z DD 019930522H
	DD	00H
	DD	00H
	DD	2 DUP(00H)
	DD	2 DUP(00H)
	DD	00H
	DD	05H
xdata$x	ENDS
;	COMDAT xdata$x
xdata$x	SEGMENT
__ehfuncinfo$??_Ei3MemoryPool@@UAEPAXI@Z DD 019930522H
	DD	00H
	DD	00H
	DD	2 DUP(00H)
	DD	2 DUP(00H)
	DD	00H
	DD	05H
xdata$x	ENDS
;	COMDAT xdata$x
xdata$x	SEGMENT
__ehfuncinfo$??_Ei3ElementBase@@UAEPAXI@Z DD 019930522H
	DD	00H
	DD	00H
	DD	2 DUP(00H)
	DD	2 DUP(00H)
	DD	00H
	DD	05H
xdata$x	ENDS
;	COMDAT xdata$x
xdata$x	SEGMENT
__ehfuncinfo$??_Ei3ClassMeta@@UAEPAXI@Z DD 019930522H
	DD	00H
	DD	00H
	DD	2 DUP(00H)
	DD	2 DUP(00H)
	DD	00H
	DD	05H
xdata$x	ENDS
; Function compile flags: /Ogtp
; File C:\Program Files (x86)\Windows Kits\10\Include\10.0.26100.0\ucrt\stdio.h
;	COMDAT ??$_snprintf_s@$0BAA@@@YAHAAY0BAA@DIPBDZZ
_TEXT	SEGMENT
__Buffer$ = 8						; size = 4
__BufferCount$ = 12					; size = 4
__Format$ = 16						; size = 4
??$_snprintf_s@$0BAA@@@YAHAAY0BAA@DIPBDZZ PROC		; _snprintf_s<256>, COMDAT

; 2056 :         )

  00000	55		 push	 ebp
  00001	8b ec		 mov	 ebp, esp

; 1578 :         int const _Result = __stdio_common_vsnprintf_s(

  00003	8d 45 14	 lea	 eax, DWORD PTR __Format$[ebp+4]
  00006	50		 push	 eax
  00007	6a 00		 push	 0
  00009	ff 75 10	 push	 DWORD PTR __Format$[ebp]
  0000c	ff 75 0c	 push	 DWORD PTR __BufferCount$[ebp]
  0000f	68 00 01 00 00	 push	 256			; 00000100H
  00014	ff 75 08	 push	 DWORD PTR __Buffer$[ebp]
  00017	e8 00 00 00 00	 call	 ___local_stdio_printf_options
  0001c	ff 70 04	 push	 DWORD PTR [eax+4]
  0001f	ff 30		 push	 DWORD PTR [eax]
  00021	e8 00 00 00 00	 call	 ___stdio_common_vsnprintf_s

; 1579 :             _CRT_INTERNAL_LOCAL_PRINTF_OPTIONS,
; 1580 :             _Buffer, _BufferCount, _MaxCount, _Format, _Locale, _ArgList);
; 1581 : 
; 1582 :         return _Result < 0 ? -1 : _Result;

  00026	83 c9 ff	 or	 ecx, -1
  00029	83 c4 20	 add	 esp, 32			; 00000020H
  0002c	85 c0		 test	 eax, eax
  0002e	0f 48 c1	 cmovs	 eax, ecx

; 1583 :     }
; 1584 :     #endif
; 1585 : 
; 1586 :     _Success_(return >= 0)
; 1587 :     _Check_return_opt_
; 1588 :     _CRT_STDIO_INLINE int __CRTDECL _vsnprintf_s(
; 1589 :         _Out_writes_opt_(_BufferCount) _Always_(_Post_z_) char*       const _Buffer,
; 1590 :         _In_                                              size_t      const _BufferCount,
; 1591 :         _In_                                              size_t      const _MaxCount,
; 1592 :         _In_z_ _Printf_format_string_                     char const* const _Format,
; 1593 :                                                           va_list           _ArgList
; 1594 :         )
; 1595 :     #if defined _NO_CRT_STDIO_INLINE
; 1596 :     ;
; 1597 :     #else
; 1598 :     {
; 1599 :         return _vsnprintf_s_l(_Buffer, _BufferCount, _MaxCount, _Format, NULL, _ArgList);
; 1600 :     }
; 1601 :     #endif
; 1602 : 
; 1603 :     __DEFINE_CPP_OVERLOAD_SECURE_FUNC_0_3(
; 1604 :         _Success_(return >= 0)
; 1605 :         int, _vsnprintf_s,
; 1606 :         _Always_(_Post_z_)            char,        _Buffer,
; 1607 :         _In_                          size_t,      _BufferCount,
; 1608 :         _In_z_ _Printf_format_string_ char const*, _Format,
; 1609 :                                       va_list,     _ArgList
; 1610 :         )
; 1611 : 
; 1612 :     #if __STDC_WANT_SECURE_LIB__
; 1613 : 
; 1614 :         _Success_(return >= 0)
; 1615 :         _Check_return_opt_
; 1616 :         _CRT_STDIO_INLINE int __CRTDECL vsnprintf_s(
; 1617 :             _Out_writes_opt_(_BufferCount) _Always_(_Post_z_) char*       const _Buffer,
; 1618 :             _In_                                              size_t      const _BufferCount,
; 1619 :             _In_                                              size_t      const _MaxCount,
; 1620 :             _In_z_ _Printf_format_string_                     char const* const _Format,
; 1621 :                                                               va_list           _ArgList
; 1622 :             )
; 1623 :     #if defined _NO_CRT_STDIO_INLINE
; 1624 :     ;
; 1625 :     #else
; 1626 :         {
; 1627 :             return _vsnprintf_s_l(_Buffer, _BufferCount, _MaxCount, _Format, NULL, _ArgList);
; 1628 :         }
; 1629 :     #endif
; 1630 : 
; 1631 :         __DEFINE_CPP_OVERLOAD_SECURE_FUNC_0_3(
; 1632 :             _Success_(return >= 0)
; 1633 :             int, vsnprintf_s,
; 1634 :             _Always_(_Post_z_)            char,        _Buffer,
; 1635 :             _In_                          size_t,      _BufferCount,
; 1636 :             _In_z_ _Printf_format_string_ char const*, _Format,
; 1637 :                                           va_list,     _ArgList
; 1638 :             )
; 1639 : 
; 1640 :     #endif
; 1641 : 
; 1642 :     _Check_return_opt_
; 1643 :     _CRT_STDIO_INLINE int __CRTDECL _vscprintf_l(
; 1644 :         _In_z_ _Printf_format_string_params_(2) char const* const _Format,
; 1645 :         _In_opt_                                _locale_t   const _Locale,
; 1646 :                                                 va_list           _ArgList
; 1647 :         )
; 1648 :     #if defined _NO_CRT_STDIO_INLINE
; 1649 :     ;
; 1650 :     #else
; 1651 :     {
; 1652 :         int const _Result = __stdio_common_vsprintf(
; 1653 :             _CRT_INTERNAL_LOCAL_PRINTF_OPTIONS | _CRT_INTERNAL_PRINTF_STANDARD_SNPRINTF_BEHAVIOR,
; 1654 :             NULL, 0, _Format, _Locale, _ArgList);
; 1655 : 
; 1656 :         return _Result < 0 ? -1 : _Result;
; 1657 :     }
; 1658 :     #endif
; 1659 : 
; 1660 :     _Check_return_
; 1661 :     _CRT_STDIO_INLINE int __CRTDECL _vscprintf(
; 1662 :         _In_z_ _Printf_format_string_ char const* const _Format,
; 1663 :                                       va_list           _ArgList
; 1664 :         )
; 1665 :     #if defined _NO_CRT_STDIO_INLINE
; 1666 :     ;
; 1667 :     #else
; 1668 :     {
; 1669 :         return _vscprintf_l(_Format, NULL, _ArgList);
; 1670 :     }
; 1671 :     #endif
; 1672 : 
; 1673 :     _Check_return_opt_
; 1674 :     _CRT_STDIO_INLINE int __CRTDECL _vscprintf_p_l(
; 1675 :         _In_z_ _Printf_format_string_params_(2) char const* const _Format,
; 1676 :         _In_opt_                                _locale_t   const _Locale,
; 1677 :                                                 va_list           _ArgList
; 1678 :         )
; 1679 :     #if defined _NO_CRT_STDIO_INLINE
; 1680 :     ;
; 1681 :     #else
; 1682 :     {
; 1683 :         int const _Result = __stdio_common_vsprintf_p(
; 1684 :             _CRT_INTERNAL_LOCAL_PRINTF_OPTIONS | _CRT_INTERNAL_PRINTF_STANDARD_SNPRINTF_BEHAVIOR,
; 1685 :             NULL, 0, _Format, _Locale, _ArgList);
; 1686 : 
; 1687 :         return _Result < 0 ? -1 : _Result;
; 1688 :     }
; 1689 :     #endif
; 1690 : 
; 1691 :     _Check_return_
; 1692 :     _CRT_STDIO_INLINE int __CRTDECL _vscprintf_p(
; 1693 :         _In_z_ _Printf_format_string_ char const* const _Format,
; 1694 :                                       va_list           _ArgList
; 1695 :         )
; 1696 :     #if defined _NO_CRT_STDIO_INLINE
; 1697 :     ;
; 1698 :     #else
; 1699 :     {
; 1700 :         return _vscprintf_p_l(_Format, NULL, _ArgList);
; 1701 :     }
; 1702 :     #endif
; 1703 : 
; 1704 :     _Check_return_opt_
; 1705 :     _CRT_STDIO_INLINE int __CRTDECL _vsnprintf_c_l(
; 1706 :         _Out_writes_opt_(_BufferCount)          char*       const _Buffer,
; 1707 :         _In_                                    size_t      const _BufferCount,
; 1708 :         _In_z_ _Printf_format_string_params_(2) char const* const _Format,
; 1709 :         _In_opt_                                _locale_t   const _Locale,
; 1710 :                                                 va_list           _ArgList
; 1711 :         )
; 1712 :     #if defined _NO_CRT_STDIO_INLINE
; 1713 :     ;
; 1714 :     #else
; 1715 :     {
; 1716 :         int const _Result = __stdio_common_vsprintf(
; 1717 :             _CRT_INTERNAL_LOCAL_PRINTF_OPTIONS,
; 1718 :             _Buffer, _BufferCount, _Format, _Locale, _ArgList);
; 1719 : 
; 1720 :         return _Result < 0 ? -1 : _Result;
; 1721 :     }
; 1722 :     #endif
; 1723 : 
; 1724 :     _Success_(return >= 0)
; 1725 :     _Check_return_opt_
; 1726 :     _CRT_STDIO_INLINE int __CRTDECL _vsnprintf_c(
; 1727 :         _Out_writes_opt_(_BufferCount) char*       const _Buffer,
; 1728 :         _In_                           size_t      const _BufferCount,
; 1729 :         _In_z_ _Printf_format_string_  char const* const _Format,
; 1730 :                                        va_list           _ArgList
; 1731 :         )
; 1732 :     #if defined _NO_CRT_STDIO_INLINE
; 1733 :     ;
; 1734 :     #else
; 1735 :     {
; 1736 :         return _vsnprintf_c_l(_Buffer, _BufferCount, _Format, NULL, _ArgList);
; 1737 :     }
; 1738 :     #endif
; 1739 : 
; 1740 :     _Success_(return >= 0)
; 1741 :     _Check_return_opt_ _CRT_INSECURE_DEPRECATE(_sprintf_s_l)
; 1742 :     _CRT_STDIO_INLINE int __CRTDECL _sprintf_l(
; 1743 :         _Pre_notnull_ _Always_(_Post_z_)        char*       const _Buffer,
; 1744 :         _In_z_ _Printf_format_string_params_(0) char const* const _Format,
; 1745 :         _In_opt_                                _locale_t   const _Locale,
; 1746 :         ...)
; 1747 :     #if defined _NO_CRT_STDIO_INLINE
; 1748 :     ;
; 1749 :     #else
; 1750 :     {
; 1751 :         int _Result;
; 1752 :         va_list _ArgList;
; 1753 :         __crt_va_start(_ArgList, _Locale);
; 1754 : 
; 1755 :         _Result = _vsprintf_l(_Buffer, _Format, _Locale, _ArgList);
; 1756 : 
; 1757 :         __crt_va_end(_ArgList);
; 1758 :         return _Result;
; 1759 :     }
; 1760 :     #endif
; 1761 : 
; 1762 :     _Success_(return >= 0)
; 1763 :     _Check_return_opt_
; 1764 :     _CRT_STDIO_INLINE int __CRTDECL sprintf(
; 1765 :         _Pre_notnull_ _Always_(_Post_z_) char*       const _Buffer,
; 1766 :         _In_z_ _Printf_format_string_    char const* const _Format,
; 1767 :         ...)
; 1768 :     #if defined _NO_CRT_STDIO_INLINE
; 1769 :     ;
; 1770 :     #else
; 1771 :     {
; 1772 :         int _Result;
; 1773 :         va_list _ArgList;
; 1774 :         __crt_va_start(_ArgList, _Format);
; 1775 : 
; 1776 :         _Result = _vsprintf_l(_Buffer, _Format, NULL, _ArgList);
; 1777 : 
; 1778 :         __crt_va_end(_ArgList);
; 1779 :         return _Result;
; 1780 :     }
; 1781 :     #endif
; 1782 : 
; 1783 :     __DEFINE_CPP_OVERLOAD_STANDARD_FUNC_0_1_ARGLIST(
; 1784 :         _Success_(return >= 0)
; 1785 :         int, __RETURN_POLICY_SAME, __EMPTY_DECLSPEC, __CRTDECL, sprintf, vsprintf,
; 1786 :         _Pre_notnull_ _Always_(_Post_z_), char,        _Buffer,
; 1787 :         _In_z_ _Printf_format_string_     char const*, _Format
; 1788 :         )
; 1789 : 
; 1790 :     _Success_(return >= 0)
; 1791 :     _Check_return_opt_
; 1792 :     _CRT_STDIO_INLINE int __CRTDECL _sprintf_s_l(
; 1793 :         _Out_writes_(_BufferCount) _Always_(_Post_z_) char*       const _Buffer,
; 1794 :         _In_                                          size_t      const _BufferCount,
; 1795 :         _In_z_ _Printf_format_string_params_(0)       char const* const _Format,
; 1796 :         _In_opt_                                      _locale_t   const _Locale,
; 1797 :         ...)
; 1798 :     #if defined _NO_CRT_STDIO_INLINE
; 1799 :     ;
; 1800 :     #else
; 1801 :     {
; 1802 :         int _Result;
; 1803 :         va_list _ArgList;
; 1804 :         __crt_va_start(_ArgList, _Locale);
; 1805 :         _Result = _vsprintf_s_l(_Buffer, _BufferCount, _Format, _Locale, _ArgList);
; 1806 :         __crt_va_end(_ArgList);
; 1807 :         return _Result;
; 1808 :     }
; 1809 :     #endif
; 1810 : 
; 1811 :     #if __STDC_WANT_SECURE_LIB__
; 1812 : 
; 1813 :         _Success_(return >= 0)
; 1814 :         _Check_return_opt_
; 1815 :         _CRT_STDIO_INLINE int __CRTDECL sprintf_s(
; 1816 :             _Out_writes_(_BufferCount) _Always_(_Post_z_) char*       const _Buffer,
; 1817 :             _In_                                          size_t      const _BufferCount,
; 1818 :             _In_z_ _Printf_format_string_                 char const* const _Format,
; 1819 :             ...)
; 1820 :     #if defined _NO_CRT_STDIO_INLINE
; 1821 :     ;
; 1822 :     #else
; 1823 :         {
; 1824 :             int _Result;
; 1825 :             va_list _ArgList;
; 1826 :             __crt_va_start(_ArgList, _Format);
; 1827 :             _Result = _vsprintf_s_l(_Buffer, _BufferCount, _Format, NULL, _ArgList);
; 1828 :             __crt_va_end(_ArgList);
; 1829 :             return _Result;
; 1830 :         }
; 1831 :     #endif
; 1832 : 
; 1833 :     #endif
; 1834 : 
; 1835 :     __DEFINE_CPP_OVERLOAD_SECURE_FUNC_0_1_ARGLIST(
; 1836 :         _Success_(return >= 0)
; 1837 :         int, sprintf_s, vsprintf_s,
; 1838 :         _Always_(_Post_z_)            char,        _Buffer,
; 1839 :         _In_z_ _Printf_format_string_ char const*, _Format
; 1840 :         )
; 1841 : 
; 1842 :     _Success_(return >= 0)
; 1843 :     _Check_return_opt_
; 1844 :     _CRT_STDIO_INLINE int __CRTDECL _sprintf_p_l(
; 1845 :         _Out_writes_(_BufferCount) _Always_(_Post_z_) char*       const _Buffer,
; 1846 :         _In_                                          size_t      const _BufferCount,
; 1847 :         _In_z_ _Printf_format_string_params_(0)       char const* const _Format,
; 1848 :         _In_opt_                                      _locale_t   const _Locale,
; 1849 :         ...)
; 1850 :     #if defined _NO_CRT_STDIO_INLINE
; 1851 :     ;
; 1852 :     #else
; 1853 :     {
; 1854 :         int _Result;
; 1855 :         va_list _ArgList;
; 1856 :         __crt_va_start(_ArgList, _Locale);
; 1857 :         _Result = _vsprintf_p_l(_Buffer, _BufferCount, _Format, _Locale, _ArgList);
; 1858 :         __crt_va_end(_ArgList);
; 1859 :         return _Result;
; 1860 :     }
; 1861 :     #endif
; 1862 : 
; 1863 :     _Success_(return >= 0)
; 1864 :     _Check_return_opt_
; 1865 :     _CRT_STDIO_INLINE int __CRTDECL _sprintf_p(
; 1866 :         _Out_writes_(_BufferCount) _Always_(_Post_z_) char*       const _Buffer,
; 1867 :         _In_                                          size_t      const _BufferCount,
; 1868 :         _In_z_ _Printf_format_string_                 char const* const _Format,
; 1869 :         ...)
; 1870 :     #if defined _NO_CRT_STDIO_INLINE
; 1871 :     ;
; 1872 :     #else
; 1873 :     {
; 1874 :         int _Result;
; 1875 :         va_list _ArgList;
; 1876 :         __crt_va_start(_ArgList, _Format);
; 1877 :         _Result = _vsprintf_p_l(_Buffer, _BufferCount, _Format, NULL, _ArgList);
; 1878 :         __crt_va_end(_ArgList);
; 1879 :         return _Result;
; 1880 :     }
; 1881 :     #endif
; 1882 : 
; 1883 :     _Success_(return >= 0)
; 1884 :     _Check_return_opt_ _CRT_INSECURE_DEPRECATE(_snprintf_s_l)
; 1885 :     _CRT_STDIO_INLINE int __CRTDECL _snprintf_l(
; 1886 :         _Out_writes_opt_(_BufferCount) _Post_maybez_ char*       const _Buffer,
; 1887 :         _In_                                         size_t      const _BufferCount,
; 1888 :         _In_z_ _Printf_format_string_params_(0)      char const* const _Format,
; 1889 :         _In_opt_                                     _locale_t   const _Locale,
; 1890 :         ...)
; 1891 :     #if defined _NO_CRT_STDIO_INLINE
; 1892 :     ;
; 1893 :     #else
; 1894 :     {
; 1895 :         int _Result;
; 1896 :         va_list _ArgList;
; 1897 :         __crt_va_start(_ArgList, _Locale);
; 1898 : 
; 1899 :         _Result = _vsnprintf_l(_Buffer, _BufferCount, _Format, _Locale, _ArgList);
; 1900 : 
; 1901 :         __crt_va_end(_ArgList);
; 1902 :         return _Result;
; 1903 :     }
; 1904 :     #endif
; 1905 : 
; 1906 :     #if defined snprintf
; 1907 :         // This definition of snprintf will generate "warning C4005: 'snprintf': macro
; 1908 :         // redefinition" with a subsequent line indicating where the previous definition
; 1909 :         // of snprintf was.  This makes it easier to find where snprintf was defined.
; 1910 :         #pragma warning(push, 1)
; 1911 :         #pragma warning(1: 4005) // macro redefinition
; 1912 :         #define snprintf Do not define snprintf as a macro
; 1913 :         #pragma warning(pop)
; 1914 :         #error Macro definition of snprintf conflicts with Standard Library function declaration
; 1915 :     #endif
; 1916 : 
; 1917 :     _Success_(return >= 0)
; 1918 :     _Check_return_opt_
; 1919 :     _CRT_STDIO_INLINE int __CRTDECL snprintf(
; 1920 :         _Out_writes_opt_(_BufferCount) _Always_(_Post_z_) char*       const _Buffer,
; 1921 :         _In_                                              size_t      const _BufferCount,
; 1922 :         _In_z_ _Printf_format_string_                     char const* const _Format,
; 1923 :         ...)
; 1924 :     #if defined _NO_CRT_STDIO_INLINE
; 1925 :     ;
; 1926 :     #else
; 1927 :     {
; 1928 :         int _Result;
; 1929 :         va_list _ArgList;
; 1930 :         __crt_va_start(_ArgList, _Format);
; 1931 :         _Result = vsnprintf(_Buffer, _BufferCount, _Format, _ArgList);
; 1932 :         __crt_va_end(_ArgList);
; 1933 :         return _Result;
; 1934 :     }
; 1935 :     #endif
; 1936 : 
; 1937 :     _Success_(return >= 0)
; 1938 :     _Check_return_opt_
; 1939 :     _CRT_STDIO_INLINE int __CRTDECL _snprintf(
; 1940 :         _Out_writes_opt_(_BufferCount) _Post_maybez_ char*       const _Buffer,
; 1941 :         _In_                                         size_t      const _BufferCount,
; 1942 :         _In_z_ _Printf_format_string_                char const* const _Format,
; 1943 :         ...)
; 1944 :     #if defined _NO_CRT_STDIO_INLINE
; 1945 :     ;
; 1946 :     #else
; 1947 :     {
; 1948 :         int _Result;
; 1949 :         va_list _ArgList;
; 1950 :         __crt_va_start(_ArgList, _Format);
; 1951 :         _Result = _vsnprintf(_Buffer, _BufferCount, _Format, _ArgList);
; 1952 :         __crt_va_end(_ArgList);
; 1953 :         return _Result;
; 1954 :     }
; 1955 :     #endif
; 1956 : 
; 1957 :     __DEFINE_CPP_OVERLOAD_STANDARD_NFUNC_0_2_ARGLIST_EX(
; 1958 :         _Success_(return >= 0)
; 1959 :         int, __RETURN_POLICY_SAME, __EMPTY_DECLSPEC, __CRTDECL, _snprintf, _vsnprintf,
; 1960 :         _Pre_notnull_ _Post_maybez_                   char,
; 1961 :         _Out_writes_opt_(_BufferCount) _Post_maybez_, char,        _Buffer,
; 1962 :         _In_                                          size_t,      _BufferCount,
; 1963 :         _In_z_ _Printf_format_string_                 char const*, _Format
; 1964 :         )
; 1965 : 
; 1966 :     _Success_(return >= 0)
; 1967 :     _Check_return_opt_
; 1968 :     _CRT_STDIO_INLINE int __CRTDECL _snprintf_c_l(
; 1969 :         _Out_writes_opt_(_BufferCount)          char*       const _Buffer,
; 1970 :         _In_                                    size_t      const _BufferCount,
; 1971 :         _In_z_ _Printf_format_string_params_(0) char const* const _Format,
; 1972 :         _In_opt_                                _locale_t   const _Locale,
; 1973 :         ...)
; 1974 :     #if defined _NO_CRT_STDIO_INLINE
; 1975 :     ;
; 1976 :     #else
; 1977 :     {
; 1978 :         int _Result;
; 1979 :         va_list _ArgList;
; 1980 :         __crt_va_start(_ArgList, _Locale);
; 1981 :         _Result = _vsnprintf_c_l(_Buffer, _BufferCount, _Format, _Locale, _ArgList);
; 1982 :         __crt_va_end(_ArgList);
; 1983 :         return _Result;
; 1984 :     }
; 1985 :     #endif
; 1986 : 
; 1987 :     _Success_(return >= 0)
; 1988 :     _Check_return_opt_
; 1989 :     _CRT_STDIO_INLINE int __CRTDECL _snprintf_c(
; 1990 :         _Out_writes_opt_(_BufferCount) char*       const _Buffer,
; 1991 :         _In_                           size_t      const _BufferCount,
; 1992 :         _In_z_ _Printf_format_string_  char const* const _Format,
; 1993 :         ...)
; 1994 :     #if defined _NO_CRT_STDIO_INLINE
; 1995 :     ;
; 1996 :     #else
; 1997 :     {
; 1998 :         int _Result;
; 1999 :         va_list _ArgList;
; 2000 :         __crt_va_start(_ArgList, _Format);
; 2001 :         _Result = _vsnprintf_c_l(_Buffer, _BufferCount, _Format, NULL, _ArgList);
; 2002 :         __crt_va_end(_ArgList);
; 2003 :         return _Result;
; 2004 :     }
; 2005 :     #endif
; 2006 : 
; 2007 :     _Success_(return >= 0)
; 2008 :     _Check_return_opt_
; 2009 :     _CRT_STDIO_INLINE int __CRTDECL _snprintf_s_l(
; 2010 :         _Out_writes_opt_(_BufferCount) _Always_(_Post_z_) char*       const _Buffer,
; 2011 :         _In_                                              size_t      const _BufferCount,
; 2012 :         _In_                                              size_t      const _MaxCount,
; 2013 :         _In_z_ _Printf_format_string_params_(0)           char const* const _Format,
; 2014 :         _In_opt_                                          _locale_t   const _Locale,
; 2015 :         ...)
; 2016 :     #if defined _NO_CRT_STDIO_INLINE
; 2017 :     ;
; 2018 :     #else
; 2019 :     {
; 2020 :         int _Result;
; 2021 :         va_list _ArgList;
; 2022 :         __crt_va_start(_ArgList, _Locale);
; 2023 :         _Result = _vsnprintf_s_l(_Buffer, _BufferCount, _MaxCount, _Format, _Locale, _ArgList);
; 2024 :         __crt_va_end(_ArgList);
; 2025 :         return _Result;
; 2026 :     }
; 2027 :     #endif
; 2028 : 
; 2029 :     _Success_(return >= 0)
; 2030 :     _Check_return_opt_
; 2031 :     _CRT_STDIO_INLINE int __CRTDECL _snprintf_s(
; 2032 :         _Out_writes_opt_(_BufferCount) _Always_(_Post_z_) char*       const _Buffer,
; 2033 :         _In_                                              size_t      const _BufferCount,
; 2034 :         _In_                                              size_t      const _MaxCount,
; 2035 :         _In_z_ _Printf_format_string_                     char const* const _Format,
; 2036 :         ...)
; 2037 :     #if defined _NO_CRT_STDIO_INLINE
; 2038 :     ;
; 2039 :     #else
; 2040 :     {
; 2041 :         int _Result;
; 2042 :         va_list _ArgList;
; 2043 :         __crt_va_start(_ArgList, _Format);
; 2044 :         _Result = _vsnprintf_s_l(_Buffer, _BufferCount, _MaxCount, _Format, NULL, _ArgList);
; 2045 :         __crt_va_end(_ArgList);
; 2046 :         return _Result;
; 2047 :     }
; 2048 :     #endif
; 2049 : 
; 2050 :     __DEFINE_CPP_OVERLOAD_SECURE_FUNC_0_2_ARGLIST(

  00031	5d		 pop	 ebp
  00032	c3		 ret	 0
??$_snprintf_s@$0BAA@@@YAHAAY0BAA@DIPBDZZ ENDP		; _snprintf_s<256>
_TEXT	ENDS
; Function compile flags: /Ogtp
; File C:\Program Files (x86)\Windows Kits\10\Include\10.0.26100.0\ucrt\stdio.h
;	COMDAT ??$_snprintf_s@$0EA@@@YAHAAY0EA@DIPBDZZ
_TEXT	SEGMENT
__Buffer$ = 8						; size = 4
__BufferCount$ = 12					; size = 4
__Format$ = 16						; size = 4
??$_snprintf_s@$0EA@@@YAHAAY0EA@DIPBDZZ PROC		; _snprintf_s<64>, COMDAT

; 2056 :         )

  00000	55		 push	 ebp
  00001	8b ec		 mov	 ebp, esp

; 1578 :         int const _Result = __stdio_common_vsnprintf_s(

  00003	8d 45 14	 lea	 eax, DWORD PTR __Format$[ebp+4]
  00006	50		 push	 eax
  00007	6a 00		 push	 0
  00009	ff 75 10	 push	 DWORD PTR __Format$[ebp]
  0000c	ff 75 0c	 push	 DWORD PTR __BufferCount$[ebp]
  0000f	6a 40		 push	 64			; 00000040H
  00011	ff 75 08	 push	 DWORD PTR __Buffer$[ebp]
  00014	e8 00 00 00 00	 call	 ___local_stdio_printf_options
  00019	ff 70 04	 push	 DWORD PTR [eax+4]
  0001c	ff 30		 push	 DWORD PTR [eax]
  0001e	e8 00 00 00 00	 call	 ___stdio_common_vsnprintf_s

; 1579 :             _CRT_INTERNAL_LOCAL_PRINTF_OPTIONS,
; 1580 :             _Buffer, _BufferCount, _MaxCount, _Format, _Locale, _ArgList);
; 1581 : 
; 1582 :         return _Result < 0 ? -1 : _Result;

  00023	83 c9 ff	 or	 ecx, -1
  00026	83 c4 20	 add	 esp, 32			; 00000020H
  00029	85 c0		 test	 eax, eax
  0002b	0f 48 c1	 cmovs	 eax, ecx

; 1583 :     }
; 1584 :     #endif
; 1585 : 
; 1586 :     _Success_(return >= 0)
; 1587 :     _Check_return_opt_
; 1588 :     _CRT_STDIO_INLINE int __CRTDECL _vsnprintf_s(
; 1589 :         _Out_writes_opt_(_BufferCount) _Always_(_Post_z_) char*       const _Buffer,
; 1590 :         _In_                                              size_t      const _BufferCount,
; 1591 :         _In_                                              size_t      const _MaxCount,
; 1592 :         _In_z_ _Printf_format_string_                     char const* const _Format,
; 1593 :                                                           va_list           _ArgList
; 1594 :         )
; 1595 :     #if defined _NO_CRT_STDIO_INLINE
; 1596 :     ;
; 1597 :     #else
; 1598 :     {
; 1599 :         return _vsnprintf_s_l(_Buffer, _BufferCount, _MaxCount, _Format, NULL, _ArgList);
; 1600 :     }
; 1601 :     #endif
; 1602 : 
; 1603 :     __DEFINE_CPP_OVERLOAD_SECURE_FUNC_0_3(
; 1604 :         _Success_(return >= 0)
; 1605 :         int, _vsnprintf_s,
; 1606 :         _Always_(_Post_z_)            char,        _Buffer,
; 1607 :         _In_                          size_t,      _BufferCount,
; 1608 :         _In_z_ _Printf_format_string_ char const*, _Format,
; 1609 :                                       va_list,     _ArgList
; 1610 :         )
; 1611 : 
; 1612 :     #if __STDC_WANT_SECURE_LIB__
; 1613 : 
; 1614 :         _Success_(return >= 0)
; 1615 :         _Check_return_opt_
; 1616 :         _CRT_STDIO_INLINE int __CRTDECL vsnprintf_s(
; 1617 :             _Out_writes_opt_(_BufferCount) _Always_(_Post_z_) char*       const _Buffer,
; 1618 :             _In_                                              size_t      const _BufferCount,
; 1619 :             _In_                                              size_t      const _MaxCount,
; 1620 :             _In_z_ _Printf_format_string_                     char const* const _Format,
; 1621 :                                                               va_list           _ArgList
; 1622 :             )
; 1623 :     #if defined _NO_CRT_STDIO_INLINE
; 1624 :     ;
; 1625 :     #else
; 1626 :         {
; 1627 :             return _vsnprintf_s_l(_Buffer, _BufferCount, _MaxCount, _Format, NULL, _ArgList);
; 1628 :         }
; 1629 :     #endif
; 1630 : 
; 1631 :         __DEFINE_CPP_OVERLOAD_SECURE_FUNC_0_3(
; 1632 :             _Success_(return >= 0)
; 1633 :             int, vsnprintf_s,
; 1634 :             _Always_(_Post_z_)            char,        _Buffer,
; 1635 :             _In_                          size_t,      _BufferCount,
; 1636 :             _In_z_ _Printf_format_string_ char const*, _Format,
; 1637 :                                           va_list,     _ArgList
; 1638 :             )
; 1639 : 
; 1640 :     #endif
; 1641 : 
; 1642 :     _Check_return_opt_
; 1643 :     _CRT_STDIO_INLINE int __CRTDECL _vscprintf_l(
; 1644 :         _In_z_ _Printf_format_string_params_(2) char const* const _Format,
; 1645 :         _In_opt_                                _locale_t   const _Locale,
; 1646 :                                                 va_list           _ArgList
; 1647 :         )
; 1648 :     #if defined _NO_CRT_STDIO_INLINE
; 1649 :     ;
; 1650 :     #else
; 1651 :     {
; 1652 :         int const _Result = __stdio_common_vsprintf(
; 1653 :             _CRT_INTERNAL_LOCAL_PRINTF_OPTIONS | _CRT_INTERNAL_PRINTF_STANDARD_SNPRINTF_BEHAVIOR,
; 1654 :             NULL, 0, _Format, _Locale, _ArgList);
; 1655 : 
; 1656 :         return _Result < 0 ? -1 : _Result;
; 1657 :     }
; 1658 :     #endif
; 1659 : 
; 1660 :     _Check_return_
; 1661 :     _CRT_STDIO_INLINE int __CRTDECL _vscprintf(
; 1662 :         _In_z_ _Printf_format_string_ char const* const _Format,
; 1663 :                                       va_list           _ArgList
; 1664 :         )
; 1665 :     #if defined _NO_CRT_STDIO_INLINE
; 1666 :     ;
; 1667 :     #else
; 1668 :     {
; 1669 :         return _vscprintf_l(_Format, NULL, _ArgList);
; 1670 :     }
; 1671 :     #endif
; 1672 : 
; 1673 :     _Check_return_opt_
; 1674 :     _CRT_STDIO_INLINE int __CRTDECL _vscprintf_p_l(
; 1675 :         _In_z_ _Printf_format_string_params_(2) char const* const _Format,
; 1676 :         _In_opt_                                _locale_t   const _Locale,
; 1677 :                                                 va_list           _ArgList
; 1678 :         )
; 1679 :     #if defined _NO_CRT_STDIO_INLINE
; 1680 :     ;
; 1681 :     #else
; 1682 :     {
; 1683 :         int const _Result = __stdio_common_vsprintf_p(
; 1684 :             _CRT_INTERNAL_LOCAL_PRINTF_OPTIONS | _CRT_INTERNAL_PRINTF_STANDARD_SNPRINTF_BEHAVIOR,
; 1685 :             NULL, 0, _Format, _Locale, _ArgList);
; 1686 : 
; 1687 :         return _Result < 0 ? -1 : _Result;
; 1688 :     }
; 1689 :     #endif
; 1690 : 
; 1691 :     _Check_return_
; 1692 :     _CRT_STDIO_INLINE int __CRTDECL _vscprintf_p(
; 1693 :         _In_z_ _Printf_format_string_ char const* const _Format,
; 1694 :                                       va_list           _ArgList
; 1695 :         )
; 1696 :     #if defined _NO_CRT_STDIO_INLINE
; 1697 :     ;
; 1698 :     #else
; 1699 :     {
; 1700 :         return _vscprintf_p_l(_Format, NULL, _ArgList);
; 1701 :     }
; 1702 :     #endif
; 1703 : 
; 1704 :     _Check_return_opt_
; 1705 :     _CRT_STDIO_INLINE int __CRTDECL _vsnprintf_c_l(
; 1706 :         _Out_writes_opt_(_BufferCount)          char*       const _Buffer,
; 1707 :         _In_                                    size_t      const _BufferCount,
; 1708 :         _In_z_ _Printf_format_string_params_(2) char const* const _Format,
; 1709 :         _In_opt_                                _locale_t   const _Locale,
; 1710 :                                                 va_list           _ArgList
; 1711 :         )
; 1712 :     #if defined _NO_CRT_STDIO_INLINE
; 1713 :     ;
; 1714 :     #else
; 1715 :     {
; 1716 :         int const _Result = __stdio_common_vsprintf(
; 1717 :             _CRT_INTERNAL_LOCAL_PRINTF_OPTIONS,
; 1718 :             _Buffer, _BufferCount, _Format, _Locale, _ArgList);
; 1719 : 
; 1720 :         return _Result < 0 ? -1 : _Result;
; 1721 :     }
; 1722 :     #endif
; 1723 : 
; 1724 :     _Success_(return >= 0)
; 1725 :     _Check_return_opt_
; 1726 :     _CRT_STDIO_INLINE int __CRTDECL _vsnprintf_c(
; 1727 :         _Out_writes_opt_(_BufferCount) char*       const _Buffer,
; 1728 :         _In_                           size_t      const _BufferCount,
; 1729 :         _In_z_ _Printf_format_string_  char const* const _Format,
; 1730 :                                        va_list           _ArgList
; 1731 :         )
; 1732 :     #if defined _NO_CRT_STDIO_INLINE
; 1733 :     ;
; 1734 :     #else
; 1735 :     {
; 1736 :         return _vsnprintf_c_l(_Buffer, _BufferCount, _Format, NULL, _ArgList);
; 1737 :     }
; 1738 :     #endif
; 1739 : 
; 1740 :     _Success_(return >= 0)
; 1741 :     _Check_return_opt_ _CRT_INSECURE_DEPRECATE(_sprintf_s_l)
; 1742 :     _CRT_STDIO_INLINE int __CRTDECL _sprintf_l(
; 1743 :         _Pre_notnull_ _Always_(_Post_z_)        char*       const _Buffer,
; 1744 :         _In_z_ _Printf_format_string_params_(0) char const* const _Format,
; 1745 :         _In_opt_                                _locale_t   const _Locale,
; 1746 :         ...)
; 1747 :     #if defined _NO_CRT_STDIO_INLINE
; 1748 :     ;
; 1749 :     #else
; 1750 :     {
; 1751 :         int _Result;
; 1752 :         va_list _ArgList;
; 1753 :         __crt_va_start(_ArgList, _Locale);
; 1754 : 
; 1755 :         _Result = _vsprintf_l(_Buffer, _Format, _Locale, _ArgList);
; 1756 : 
; 1757 :         __crt_va_end(_ArgList);
; 1758 :         return _Result;
; 1759 :     }
; 1760 :     #endif
; 1761 : 
; 1762 :     _Success_(return >= 0)
; 1763 :     _Check_return_opt_
; 1764 :     _CRT_STDIO_INLINE int __CRTDECL sprintf(
; 1765 :         _Pre_notnull_ _Always_(_Post_z_) char*       const _Buffer,
; 1766 :         _In_z_ _Printf_format_string_    char const* const _Format,
; 1767 :         ...)
; 1768 :     #if defined _NO_CRT_STDIO_INLINE
; 1769 :     ;
; 1770 :     #else
; 1771 :     {
; 1772 :         int _Result;
; 1773 :         va_list _ArgList;
; 1774 :         __crt_va_start(_ArgList, _Format);
; 1775 : 
; 1776 :         _Result = _vsprintf_l(_Buffer, _Format, NULL, _ArgList);
; 1777 : 
; 1778 :         __crt_va_end(_ArgList);
; 1779 :         return _Result;
; 1780 :     }
; 1781 :     #endif
; 1782 : 
; 1783 :     __DEFINE_CPP_OVERLOAD_STANDARD_FUNC_0_1_ARGLIST(
; 1784 :         _Success_(return >= 0)
; 1785 :         int, __RETURN_POLICY_SAME, __EMPTY_DECLSPEC, __CRTDECL, sprintf, vsprintf,
; 1786 :         _Pre_notnull_ _Always_(_Post_z_), char,        _Buffer,
; 1787 :         _In_z_ _Printf_format_string_     char const*, _Format
; 1788 :         )
; 1789 : 
; 1790 :     _Success_(return >= 0)
; 1791 :     _Check_return_opt_
; 1792 :     _CRT_STDIO_INLINE int __CRTDECL _sprintf_s_l(
; 1793 :         _Out_writes_(_BufferCount) _Always_(_Post_z_) char*       const _Buffer,
; 1794 :         _In_                                          size_t      const _BufferCount,
; 1795 :         _In_z_ _Printf_format_string_params_(0)       char const* const _Format,
; 1796 :         _In_opt_                                      _locale_t   const _Locale,
; 1797 :         ...)
; 1798 :     #if defined _NO_CRT_STDIO_INLINE
; 1799 :     ;
; 1800 :     #else
; 1801 :     {
; 1802 :         int _Result;
; 1803 :         va_list _ArgList;
; 1804 :         __crt_va_start(_ArgList, _Locale);
; 1805 :         _Result = _vsprintf_s_l(_Buffer, _BufferCount, _Format, _Locale, _ArgList);
; 1806 :         __crt_va_end(_ArgList);
; 1807 :         return _Result;
; 1808 :     }
; 1809 :     #endif
; 1810 : 
; 1811 :     #if __STDC_WANT_SECURE_LIB__
; 1812 : 
; 1813 :         _Success_(return >= 0)
; 1814 :         _Check_return_opt_
; 1815 :         _CRT_STDIO_INLINE int __CRTDECL sprintf_s(
; 1816 :             _Out_writes_(_BufferCount) _Always_(_Post_z_) char*       const _Buffer,
; 1817 :             _In_                                          size_t      const _BufferCount,
; 1818 :             _In_z_ _Printf_format_string_                 char const* const _Format,
; 1819 :             ...)
; 1820 :     #if defined _NO_CRT_STDIO_INLINE
; 1821 :     ;
; 1822 :     #else
; 1823 :         {
; 1824 :             int _Result;
; 1825 :             va_list _ArgList;
; 1826 :             __crt_va_start(_ArgList, _Format);
; 1827 :             _Result = _vsprintf_s_l(_Buffer, _BufferCount, _Format, NULL, _ArgList);
; 1828 :             __crt_va_end(_ArgList);
; 1829 :             return _Result;
; 1830 :         }
; 1831 :     #endif
; 1832 : 
; 1833 :     #endif
; 1834 : 
; 1835 :     __DEFINE_CPP_OVERLOAD_SECURE_FUNC_0_1_ARGLIST(
; 1836 :         _Success_(return >= 0)
; 1837 :         int, sprintf_s, vsprintf_s,
; 1838 :         _Always_(_Post_z_)            char,        _Buffer,
; 1839 :         _In_z_ _Printf_format_string_ char const*, _Format
; 1840 :         )
; 1841 : 
; 1842 :     _Success_(return >= 0)
; 1843 :     _Check_return_opt_
; 1844 :     _CRT_STDIO_INLINE int __CRTDECL _sprintf_p_l(
; 1845 :         _Out_writes_(_BufferCount) _Always_(_Post_z_) char*       const _Buffer,
; 1846 :         _In_                                          size_t      const _BufferCount,
; 1847 :         _In_z_ _Printf_format_string_params_(0)       char const* const _Format,
; 1848 :         _In_opt_                                      _locale_t   const _Locale,
; 1849 :         ...)
; 1850 :     #if defined _NO_CRT_STDIO_INLINE
; 1851 :     ;
; 1852 :     #else
; 1853 :     {
; 1854 :         int _Result;
; 1855 :         va_list _ArgList;
; 1856 :         __crt_va_start(_ArgList, _Locale);
; 1857 :         _Result = _vsprintf_p_l(_Buffer, _BufferCount, _Format, _Locale, _ArgList);
; 1858 :         __crt_va_end(_ArgList);
; 1859 :         return _Result;
; 1860 :     }
; 1861 :     #endif
; 1862 : 
; 1863 :     _Success_(return >= 0)
; 1864 :     _Check_return_opt_
; 1865 :     _CRT_STDIO_INLINE int __CRTDECL _sprintf_p(
; 1866 :         _Out_writes_(_BufferCount) _Always_(_Post_z_) char*       const _Buffer,
; 1867 :         _In_                                          size_t      const _BufferCount,
; 1868 :         _In_z_ _Printf_format_string_                 char const* const _Format,
; 1869 :         ...)
; 1870 :     #if defined _NO_CRT_STDIO_INLINE
; 1871 :     ;
; 1872 :     #else
; 1873 :     {
; 1874 :         int _Result;
; 1875 :         va_list _ArgList;
; 1876 :         __crt_va_start(_ArgList, _Format);
; 1877 :         _Result = _vsprintf_p_l(_Buffer, _BufferCount, _Format, NULL, _ArgList);
; 1878 :         __crt_va_end(_ArgList);
; 1879 :         return _Result;
; 1880 :     }
; 1881 :     #endif
; 1882 : 
; 1883 :     _Success_(return >= 0)
; 1884 :     _Check_return_opt_ _CRT_INSECURE_DEPRECATE(_snprintf_s_l)
; 1885 :     _CRT_STDIO_INLINE int __CRTDECL _snprintf_l(
; 1886 :         _Out_writes_opt_(_BufferCount) _Post_maybez_ char*       const _Buffer,
; 1887 :         _In_                                         size_t      const _BufferCount,
; 1888 :         _In_z_ _Printf_format_string_params_(0)      char const* const _Format,
; 1889 :         _In_opt_                                     _locale_t   const _Locale,
; 1890 :         ...)
; 1891 :     #if defined _NO_CRT_STDIO_INLINE
; 1892 :     ;
; 1893 :     #else
; 1894 :     {
; 1895 :         int _Result;
; 1896 :         va_list _ArgList;
; 1897 :         __crt_va_start(_ArgList, _Locale);
; 1898 : 
; 1899 :         _Result = _vsnprintf_l(_Buffer, _BufferCount, _Format, _Locale, _ArgList);
; 1900 : 
; 1901 :         __crt_va_end(_ArgList);
; 1902 :         return _Result;
; 1903 :     }
; 1904 :     #endif
; 1905 : 
; 1906 :     #if defined snprintf
; 1907 :         // This definition of snprintf will generate "warning C4005: 'snprintf': macro
; 1908 :         // redefinition" with a subsequent line indicating where the previous definition
; 1909 :         // of snprintf was.  This makes it easier to find where snprintf was defined.
; 1910 :         #pragma warning(push, 1)
; 1911 :         #pragma warning(1: 4005) // macro redefinition
; 1912 :         #define snprintf Do not define snprintf as a macro
; 1913 :         #pragma warning(pop)
; 1914 :         #error Macro definition of snprintf conflicts with Standard Library function declaration
; 1915 :     #endif
; 1916 : 
; 1917 :     _Success_(return >= 0)
; 1918 :     _Check_return_opt_
; 1919 :     _CRT_STDIO_INLINE int __CRTDECL snprintf(
; 1920 :         _Out_writes_opt_(_BufferCount) _Always_(_Post_z_) char*       const _Buffer,
; 1921 :         _In_                                              size_t      const _BufferCount,
; 1922 :         _In_z_ _Printf_format_string_                     char const* const _Format,
; 1923 :         ...)
; 1924 :     #if defined _NO_CRT_STDIO_INLINE
; 1925 :     ;
; 1926 :     #else
; 1927 :     {
; 1928 :         int _Result;
; 1929 :         va_list _ArgList;
; 1930 :         __crt_va_start(_ArgList, _Format);
; 1931 :         _Result = vsnprintf(_Buffer, _BufferCount, _Format, _ArgList);
; 1932 :         __crt_va_end(_ArgList);
; 1933 :         return _Result;
; 1934 :     }
; 1935 :     #endif
; 1936 : 
; 1937 :     _Success_(return >= 0)
; 1938 :     _Check_return_opt_
; 1939 :     _CRT_STDIO_INLINE int __CRTDECL _snprintf(
; 1940 :         _Out_writes_opt_(_BufferCount) _Post_maybez_ char*       const _Buffer,
; 1941 :         _In_                                         size_t      const _BufferCount,
; 1942 :         _In_z_ _Printf_format_string_                char const* const _Format,
; 1943 :         ...)
; 1944 :     #if defined _NO_CRT_STDIO_INLINE
; 1945 :     ;
; 1946 :     #else
; 1947 :     {
; 1948 :         int _Result;
; 1949 :         va_list _ArgList;
; 1950 :         __crt_va_start(_ArgList, _Format);
; 1951 :         _Result = _vsnprintf(_Buffer, _BufferCount, _Format, _ArgList);
; 1952 :         __crt_va_end(_ArgList);
; 1953 :         return _Result;
; 1954 :     }
; 1955 :     #endif
; 1956 : 
; 1957 :     __DEFINE_CPP_OVERLOAD_STANDARD_NFUNC_0_2_ARGLIST_EX(
; 1958 :         _Success_(return >= 0)
; 1959 :         int, __RETURN_POLICY_SAME, __EMPTY_DECLSPEC, __CRTDECL, _snprintf, _vsnprintf,
; 1960 :         _Pre_notnull_ _Post_maybez_                   char,
; 1961 :         _Out_writes_opt_(_BufferCount) _Post_maybez_, char,        _Buffer,
; 1962 :         _In_                                          size_t,      _BufferCount,
; 1963 :         _In_z_ _Printf_format_string_                 char const*, _Format
; 1964 :         )
; 1965 : 
; 1966 :     _Success_(return >= 0)
; 1967 :     _Check_return_opt_
; 1968 :     _CRT_STDIO_INLINE int __CRTDECL _snprintf_c_l(
; 1969 :         _Out_writes_opt_(_BufferCount)          char*       const _Buffer,
; 1970 :         _In_                                    size_t      const _BufferCount,
; 1971 :         _In_z_ _Printf_format_string_params_(0) char const* const _Format,
; 1972 :         _In_opt_                                _locale_t   const _Locale,
; 1973 :         ...)
; 1974 :     #if defined _NO_CRT_STDIO_INLINE
; 1975 :     ;
; 1976 :     #else
; 1977 :     {
; 1978 :         int _Result;
; 1979 :         va_list _ArgList;
; 1980 :         __crt_va_start(_ArgList, _Locale);
; 1981 :         _Result = _vsnprintf_c_l(_Buffer, _BufferCount, _Format, _Locale, _ArgList);
; 1982 :         __crt_va_end(_ArgList);
; 1983 :         return _Result;
; 1984 :     }
; 1985 :     #endif
; 1986 : 
; 1987 :     _Success_(return >= 0)
; 1988 :     _Check_return_opt_
; 1989 :     _CRT_STDIO_INLINE int __CRTDECL _snprintf_c(
; 1990 :         _Out_writes_opt_(_BufferCount) char*       const _Buffer,
; 1991 :         _In_                           size_t      const _BufferCount,
; 1992 :         _In_z_ _Printf_format_string_  char const* const _Format,
; 1993 :         ...)
; 1994 :     #if defined _NO_CRT_STDIO_INLINE
; 1995 :     ;
; 1996 :     #else
; 1997 :     {
; 1998 :         int _Result;
; 1999 :         va_list _ArgList;
; 2000 :         __crt_va_start(_ArgList, _Format);
; 2001 :         _Result = _vsnprintf_c_l(_Buffer, _BufferCount, _Format, NULL, _ArgList);
; 2002 :         __crt_va_end(_ArgList);
; 2003 :         return _Result;
; 2004 :     }
; 2005 :     #endif
; 2006 : 
; 2007 :     _Success_(return >= 0)
; 2008 :     _Check_return_opt_
; 2009 :     _CRT_STDIO_INLINE int __CRTDECL _snprintf_s_l(
; 2010 :         _Out_writes_opt_(_BufferCount) _Always_(_Post_z_) char*       const _Buffer,
; 2011 :         _In_                                              size_t      const _BufferCount,
; 2012 :         _In_                                              size_t      const _MaxCount,
; 2013 :         _In_z_ _Printf_format_string_params_(0)           char const* const _Format,
; 2014 :         _In_opt_                                          _locale_t   const _Locale,
; 2015 :         ...)
; 2016 :     #if defined _NO_CRT_STDIO_INLINE
; 2017 :     ;
; 2018 :     #else
; 2019 :     {
; 2020 :         int _Result;
; 2021 :         va_list _ArgList;
; 2022 :         __crt_va_start(_ArgList, _Locale);
; 2023 :         _Result = _vsnprintf_s_l(_Buffer, _BufferCount, _MaxCount, _Format, _Locale, _ArgList);
; 2024 :         __crt_va_end(_ArgList);
; 2025 :         return _Result;
; 2026 :     }
; 2027 :     #endif
; 2028 : 
; 2029 :     _Success_(return >= 0)
; 2030 :     _Check_return_opt_
; 2031 :     _CRT_STDIO_INLINE int __CRTDECL _snprintf_s(
; 2032 :         _Out_writes_opt_(_BufferCount) _Always_(_Post_z_) char*       const _Buffer,
; 2033 :         _In_                                              size_t      const _BufferCount,
; 2034 :         _In_                                              size_t      const _MaxCount,
; 2035 :         _In_z_ _Printf_format_string_                     char const* const _Format,
; 2036 :         ...)
; 2037 :     #if defined _NO_CRT_STDIO_INLINE
; 2038 :     ;
; 2039 :     #else
; 2040 :     {
; 2041 :         int _Result;
; 2042 :         va_list _ArgList;
; 2043 :         __crt_va_start(_ArgList, _Format);
; 2044 :         _Result = _vsnprintf_s_l(_Buffer, _BufferCount, _MaxCount, _Format, NULL, _ArgList);
; 2045 :         __crt_va_end(_ArgList);
; 2046 :         return _Result;
; 2047 :     }
; 2048 :     #endif
; 2049 : 
; 2050 :     __DEFINE_CPP_OVERLOAD_SECURE_FUNC_0_2_ARGLIST(

  0002e	5d		 pop	 ebp
  0002f	c3		 ret	 0
??$_snprintf_s@$0EA@@@YAHAAY0EA@DIPBDZZ ENDP		; _snprintf_s<64>
_TEXT	ENDS
; Function compile flags: /Ogtp
; File C:\Program Files (x86)\Windows Kits\10\Include\10.0.26100.0\ucrt\stdio.h
;	COMDAT ??$_snprintf_s@$0CA@@@YAHAAY0CA@DIPBDZZ
_TEXT	SEGMENT
__Buffer$ = 8						; size = 4
__BufferCount$ = 12					; size = 4
__Format$ = 16						; size = 4
??$_snprintf_s@$0CA@@@YAHAAY0CA@DIPBDZZ PROC		; _snprintf_s<32>, COMDAT

; 2056 :         )

  00000	55		 push	 ebp
  00001	8b ec		 mov	 ebp, esp

; 1578 :         int const _Result = __stdio_common_vsnprintf_s(

  00003	8d 45 14	 lea	 eax, DWORD PTR __Format$[ebp+4]
  00006	50		 push	 eax
  00007	6a 00		 push	 0
  00009	ff 75 10	 push	 DWORD PTR __Format$[ebp]
  0000c	ff 75 0c	 push	 DWORD PTR __BufferCount$[ebp]
  0000f	6a 20		 push	 32			; 00000020H
  00011	ff 75 08	 push	 DWORD PTR __Buffer$[ebp]
  00014	e8 00 00 00 00	 call	 ___local_stdio_printf_options
  00019	ff 70 04	 push	 DWORD PTR [eax+4]
  0001c	ff 30		 push	 DWORD PTR [eax]
  0001e	e8 00 00 00 00	 call	 ___stdio_common_vsnprintf_s

; 1579 :             _CRT_INTERNAL_LOCAL_PRINTF_OPTIONS,
; 1580 :             _Buffer, _BufferCount, _MaxCount, _Format, _Locale, _ArgList);
; 1581 : 
; 1582 :         return _Result < 0 ? -1 : _Result;

  00023	83 c9 ff	 or	 ecx, -1
  00026	83 c4 20	 add	 esp, 32			; 00000020H
  00029	85 c0		 test	 eax, eax
  0002b	0f 48 c1	 cmovs	 eax, ecx

; 1583 :     }
; 1584 :     #endif
; 1585 : 
; 1586 :     _Success_(return >= 0)
; 1587 :     _Check_return_opt_
; 1588 :     _CRT_STDIO_INLINE int __CRTDECL _vsnprintf_s(
; 1589 :         _Out_writes_opt_(_BufferCount) _Always_(_Post_z_) char*       const _Buffer,
; 1590 :         _In_                                              size_t      const _BufferCount,
; 1591 :         _In_                                              size_t      const _MaxCount,
; 1592 :         _In_z_ _Printf_format_string_                     char const* const _Format,
; 1593 :                                                           va_list           _ArgList
; 1594 :         )
; 1595 :     #if defined _NO_CRT_STDIO_INLINE
; 1596 :     ;
; 1597 :     #else
; 1598 :     {
; 1599 :         return _vsnprintf_s_l(_Buffer, _BufferCount, _MaxCount, _Format, NULL, _ArgList);
; 1600 :     }
; 1601 :     #endif
; 1602 : 
; 1603 :     __DEFINE_CPP_OVERLOAD_SECURE_FUNC_0_3(
; 1604 :         _Success_(return >= 0)
; 1605 :         int, _vsnprintf_s,
; 1606 :         _Always_(_Post_z_)            char,        _Buffer,
; 1607 :         _In_                          size_t,      _BufferCount,
; 1608 :         _In_z_ _Printf_format_string_ char const*, _Format,
; 1609 :                                       va_list,     _ArgList
; 1610 :         )
; 1611 : 
; 1612 :     #if __STDC_WANT_SECURE_LIB__
; 1613 : 
; 1614 :         _Success_(return >= 0)
; 1615 :         _Check_return_opt_
; 1616 :         _CRT_STDIO_INLINE int __CRTDECL vsnprintf_s(
; 1617 :             _Out_writes_opt_(_BufferCount) _Always_(_Post_z_) char*       const _Buffer,
; 1618 :             _In_                                              size_t      const _BufferCount,
; 1619 :             _In_                                              size_t      const _MaxCount,
; 1620 :             _In_z_ _Printf_format_string_                     char const* const _Format,
; 1621 :                                                               va_list           _ArgList
; 1622 :             )
; 1623 :     #if defined _NO_CRT_STDIO_INLINE
; 1624 :     ;
; 1625 :     #else
; 1626 :         {
; 1627 :             return _vsnprintf_s_l(_Buffer, _BufferCount, _MaxCount, _Format, NULL, _ArgList);
; 1628 :         }
; 1629 :     #endif
; 1630 : 
; 1631 :         __DEFINE_CPP_OVERLOAD_SECURE_FUNC_0_3(
; 1632 :             _Success_(return >= 0)
; 1633 :             int, vsnprintf_s,
; 1634 :             _Always_(_Post_z_)            char,        _Buffer,
; 1635 :             _In_                          size_t,      _BufferCount,
; 1636 :             _In_z_ _Printf_format_string_ char const*, _Format,
; 1637 :                                           va_list,     _ArgList
; 1638 :             )
; 1639 : 
; 1640 :     #endif
; 1641 : 
; 1642 :     _Check_return_opt_
; 1643 :     _CRT_STDIO_INLINE int __CRTDECL _vscprintf_l(
; 1644 :         _In_z_ _Printf_format_string_params_(2) char const* const _Format,
; 1645 :         _In_opt_                                _locale_t   const _Locale,
; 1646 :                                                 va_list           _ArgList
; 1647 :         )
; 1648 :     #if defined _NO_CRT_STDIO_INLINE
; 1649 :     ;
; 1650 :     #else
; 1651 :     {
; 1652 :         int const _Result = __stdio_common_vsprintf(
; 1653 :             _CRT_INTERNAL_LOCAL_PRINTF_OPTIONS | _CRT_INTERNAL_PRINTF_STANDARD_SNPRINTF_BEHAVIOR,
; 1654 :             NULL, 0, _Format, _Locale, _ArgList);
; 1655 : 
; 1656 :         return _Result < 0 ? -1 : _Result;
; 1657 :     }
; 1658 :     #endif
; 1659 : 
; 1660 :     _Check_return_
; 1661 :     _CRT_STDIO_INLINE int __CRTDECL _vscprintf(
; 1662 :         _In_z_ _Printf_format_string_ char const* const _Format,
; 1663 :                                       va_list           _ArgList
; 1664 :         )
; 1665 :     #if defined _NO_CRT_STDIO_INLINE
; 1666 :     ;
; 1667 :     #else
; 1668 :     {
; 1669 :         return _vscprintf_l(_Format, NULL, _ArgList);
; 1670 :     }
; 1671 :     #endif
; 1672 : 
; 1673 :     _Check_return_opt_
; 1674 :     _CRT_STDIO_INLINE int __CRTDECL _vscprintf_p_l(
; 1675 :         _In_z_ _Printf_format_string_params_(2) char const* const _Format,
; 1676 :         _In_opt_                                _locale_t   const _Locale,
; 1677 :                                                 va_list           _ArgList
; 1678 :         )
; 1679 :     #if defined _NO_CRT_STDIO_INLINE
; 1680 :     ;
; 1681 :     #else
; 1682 :     {
; 1683 :         int const _Result = __stdio_common_vsprintf_p(
; 1684 :             _CRT_INTERNAL_LOCAL_PRINTF_OPTIONS | _CRT_INTERNAL_PRINTF_STANDARD_SNPRINTF_BEHAVIOR,
; 1685 :             NULL, 0, _Format, _Locale, _ArgList);
; 1686 : 
; 1687 :         return _Result < 0 ? -1 : _Result;
; 1688 :     }
; 1689 :     #endif
; 1690 : 
; 1691 :     _Check_return_
; 1692 :     _CRT_STDIO_INLINE int __CRTDECL _vscprintf_p(
; 1693 :         _In_z_ _Printf_format_string_ char const* const _Format,
; 1694 :                                       va_list           _ArgList
; 1695 :         )
; 1696 :     #if defined _NO_CRT_STDIO_INLINE
; 1697 :     ;
; 1698 :     #else
; 1699 :     {
; 1700 :         return _vscprintf_p_l(_Format, NULL, _ArgList);
; 1701 :     }
; 1702 :     #endif
; 1703 : 
; 1704 :     _Check_return_opt_
; 1705 :     _CRT_STDIO_INLINE int __CRTDECL _vsnprintf_c_l(
; 1706 :         _Out_writes_opt_(_BufferCount)          char*       const _Buffer,
; 1707 :         _In_                                    size_t      const _BufferCount,
; 1708 :         _In_z_ _Printf_format_string_params_(2) char const* const _Format,
; 1709 :         _In_opt_                                _locale_t   const _Locale,
; 1710 :                                                 va_list           _ArgList
; 1711 :         )
; 1712 :     #if defined _NO_CRT_STDIO_INLINE
; 1713 :     ;
; 1714 :     #else
; 1715 :     {
; 1716 :         int const _Result = __stdio_common_vsprintf(
; 1717 :             _CRT_INTERNAL_LOCAL_PRINTF_OPTIONS,
; 1718 :             _Buffer, _BufferCount, _Format, _Locale, _ArgList);
; 1719 : 
; 1720 :         return _Result < 0 ? -1 : _Result;
; 1721 :     }
; 1722 :     #endif
; 1723 : 
; 1724 :     _Success_(return >= 0)
; 1725 :     _Check_return_opt_
; 1726 :     _CRT_STDIO_INLINE int __CRTDECL _vsnprintf_c(
; 1727 :         _Out_writes_opt_(_BufferCount) char*       const _Buffer,
; 1728 :         _In_                           size_t      const _BufferCount,
; 1729 :         _In_z_ _Printf_format_string_  char const* const _Format,
; 1730 :                                        va_list           _ArgList
; 1731 :         )
; 1732 :     #if defined _NO_CRT_STDIO_INLINE
; 1733 :     ;
; 1734 :     #else
; 1735 :     {
; 1736 :         return _vsnprintf_c_l(_Buffer, _BufferCount, _Format, NULL, _ArgList);
; 1737 :     }
; 1738 :     #endif
; 1739 : 
; 1740 :     _Success_(return >= 0)
; 1741 :     _Check_return_opt_ _CRT_INSECURE_DEPRECATE(_sprintf_s_l)
; 1742 :     _CRT_STDIO_INLINE int __CRTDECL _sprintf_l(
; 1743 :         _Pre_notnull_ _Always_(_Post_z_)        char*       const _Buffer,
; 1744 :         _In_z_ _Printf_format_string_params_(0) char const* const _Format,
; 1745 :         _In_opt_                                _locale_t   const _Locale,
; 1746 :         ...)
; 1747 :     #if defined _NO_CRT_STDIO_INLINE
; 1748 :     ;
; 1749 :     #else
; 1750 :     {
; 1751 :         int _Result;
; 1752 :         va_list _ArgList;
; 1753 :         __crt_va_start(_ArgList, _Locale);
; 1754 : 
; 1755 :         _Result = _vsprintf_l(_Buffer, _Format, _Locale, _ArgList);
; 1756 : 
; 1757 :         __crt_va_end(_ArgList);
; 1758 :         return _Result;
; 1759 :     }
; 1760 :     #endif
; 1761 : 
; 1762 :     _Success_(return >= 0)
; 1763 :     _Check_return_opt_
; 1764 :     _CRT_STDIO_INLINE int __CRTDECL sprintf(
; 1765 :         _Pre_notnull_ _Always_(_Post_z_) char*       const _Buffer,
; 1766 :         _In_z_ _Printf_format_string_    char const* const _Format,
; 1767 :         ...)
; 1768 :     #if defined _NO_CRT_STDIO_INLINE
; 1769 :     ;
; 1770 :     #else
; 1771 :     {
; 1772 :         int _Result;
; 1773 :         va_list _ArgList;
; 1774 :         __crt_va_start(_ArgList, _Format);
; 1775 : 
; 1776 :         _Result = _vsprintf_l(_Buffer, _Format, NULL, _ArgList);
; 1777 : 
; 1778 :         __crt_va_end(_ArgList);
; 1779 :         return _Result;
; 1780 :     }
; 1781 :     #endif
; 1782 : 
; 1783 :     __DEFINE_CPP_OVERLOAD_STANDARD_FUNC_0_1_ARGLIST(
; 1784 :         _Success_(return >= 0)
; 1785 :         int, __RETURN_POLICY_SAME, __EMPTY_DECLSPEC, __CRTDECL, sprintf, vsprintf,
; 1786 :         _Pre_notnull_ _Always_(_Post_z_), char,        _Buffer,
; 1787 :         _In_z_ _Printf_format_string_     char const*, _Format
; 1788 :         )
; 1789 : 
; 1790 :     _Success_(return >= 0)
; 1791 :     _Check_return_opt_
; 1792 :     _CRT_STDIO_INLINE int __CRTDECL _sprintf_s_l(
; 1793 :         _Out_writes_(_BufferCount) _Always_(_Post_z_) char*       const _Buffer,
; 1794 :         _In_                                          size_t      const _BufferCount,
; 1795 :         _In_z_ _Printf_format_string_params_(0)       char const* const _Format,
; 1796 :         _In_opt_                                      _locale_t   const _Locale,
; 1797 :         ...)
; 1798 :     #if defined _NO_CRT_STDIO_INLINE
; 1799 :     ;
; 1800 :     #else
; 1801 :     {
; 1802 :         int _Result;
; 1803 :         va_list _ArgList;
; 1804 :         __crt_va_start(_ArgList, _Locale);
; 1805 :         _Result = _vsprintf_s_l(_Buffer, _BufferCount, _Format, _Locale, _ArgList);
; 1806 :         __crt_va_end(_ArgList);
; 1807 :         return _Result;
; 1808 :     }
; 1809 :     #endif
; 1810 : 
; 1811 :     #if __STDC_WANT_SECURE_LIB__
; 1812 : 
; 1813 :         _Success_(return >= 0)
; 1814 :         _Check_return_opt_
; 1815 :         _CRT_STDIO_INLINE int __CRTDECL sprintf_s(
; 1816 :             _Out_writes_(_BufferCount) _Always_(_Post_z_) char*       const _Buffer,
; 1817 :             _In_                                          size_t      const _BufferCount,
; 1818 :             _In_z_ _Printf_format_string_                 char const* const _Format,
; 1819 :             ...)
; 1820 :     #if defined _NO_CRT_STDIO_INLINE
; 1821 :     ;
; 1822 :     #else
; 1823 :         {
; 1824 :             int _Result;
; 1825 :             va_list _ArgList;
; 1826 :             __crt_va_start(_ArgList, _Format);
; 1827 :             _Result = _vsprintf_s_l(_Buffer, _BufferCount, _Format, NULL, _ArgList);
; 1828 :             __crt_va_end(_ArgList);
; 1829 :             return _Result;
; 1830 :         }
; 1831 :     #endif
; 1832 : 
; 1833 :     #endif
; 1834 : 
; 1835 :     __DEFINE_CPP_OVERLOAD_SECURE_FUNC_0_1_ARGLIST(
; 1836 :         _Success_(return >= 0)
; 1837 :         int, sprintf_s, vsprintf_s,
; 1838 :         _Always_(_Post_z_)            char,        _Buffer,
; 1839 :         _In_z_ _Printf_format_string_ char const*, _Format
; 1840 :         )
; 1841 : 
; 1842 :     _Success_(return >= 0)
; 1843 :     _Check_return_opt_
; 1844 :     _CRT_STDIO_INLINE int __CRTDECL _sprintf_p_l(
; 1845 :         _Out_writes_(_BufferCount) _Always_(_Post_z_) char*       const _Buffer,
; 1846 :         _In_                                          size_t      const _BufferCount,
; 1847 :         _In_z_ _Printf_format_string_params_(0)       char const* const _Format,
; 1848 :         _In_opt_                                      _locale_t   const _Locale,
; 1849 :         ...)
; 1850 :     #if defined _NO_CRT_STDIO_INLINE
; 1851 :     ;
; 1852 :     #else
; 1853 :     {
; 1854 :         int _Result;
; 1855 :         va_list _ArgList;
; 1856 :         __crt_va_start(_ArgList, _Locale);
; 1857 :         _Result = _vsprintf_p_l(_Buffer, _BufferCount, _Format, _Locale, _ArgList);
; 1858 :         __crt_va_end(_ArgList);
; 1859 :         return _Result;
; 1860 :     }
; 1861 :     #endif
; 1862 : 
; 1863 :     _Success_(return >= 0)
; 1864 :     _Check_return_opt_
; 1865 :     _CRT_STDIO_INLINE int __CRTDECL _sprintf_p(
; 1866 :         _Out_writes_(_BufferCount) _Always_(_Post_z_) char*       const _Buffer,
; 1867 :         _In_                                          size_t      const _BufferCount,
; 1868 :         _In_z_ _Printf_format_string_                 char const* const _Format,
; 1869 :         ...)
; 1870 :     #if defined _NO_CRT_STDIO_INLINE
; 1871 :     ;
; 1872 :     #else
; 1873 :     {
; 1874 :         int _Result;
; 1875 :         va_list _ArgList;
; 1876 :         __crt_va_start(_ArgList, _Format);
; 1877 :         _Result = _vsprintf_p_l(_Buffer, _BufferCount, _Format, NULL, _ArgList);
; 1878 :         __crt_va_end(_ArgList);
; 1879 :         return _Result;
; 1880 :     }
; 1881 :     #endif
; 1882 : 
; 1883 :     _Success_(return >= 0)
; 1884 :     _Check_return_opt_ _CRT_INSECURE_DEPRECATE(_snprintf_s_l)
; 1885 :     _CRT_STDIO_INLINE int __CRTDECL _snprintf_l(
; 1886 :         _Out_writes_opt_(_BufferCount) _Post_maybez_ char*       const _Buffer,
; 1887 :         _In_                                         size_t      const _BufferCount,
; 1888 :         _In_z_ _Printf_format_string_params_(0)      char const* const _Format,
; 1889 :         _In_opt_                                     _locale_t   const _Locale,
; 1890 :         ...)
; 1891 :     #if defined _NO_CRT_STDIO_INLINE
; 1892 :     ;
; 1893 :     #else
; 1894 :     {
; 1895 :         int _Result;
; 1896 :         va_list _ArgList;
; 1897 :         __crt_va_start(_ArgList, _Locale);
; 1898 : 
; 1899 :         _Result = _vsnprintf_l(_Buffer, _BufferCount, _Format, _Locale, _ArgList);
; 1900 : 
; 1901 :         __crt_va_end(_ArgList);
; 1902 :         return _Result;
; 1903 :     }
; 1904 :     #endif
; 1905 : 
; 1906 :     #if defined snprintf
; 1907 :         // This definition of snprintf will generate "warning C4005: 'snprintf': macro
; 1908 :         // redefinition" with a subsequent line indicating where the previous definition
; 1909 :         // of snprintf was.  This makes it easier to find where snprintf was defined.
; 1910 :         #pragma warning(push, 1)
; 1911 :         #pragma warning(1: 4005) // macro redefinition
; 1912 :         #define snprintf Do not define snprintf as a macro
; 1913 :         #pragma warning(pop)
; 1914 :         #error Macro definition of snprintf conflicts with Standard Library function declaration
; 1915 :     #endif
; 1916 : 
; 1917 :     _Success_(return >= 0)
; 1918 :     _Check_return_opt_
; 1919 :     _CRT_STDIO_INLINE int __CRTDECL snprintf(
; 1920 :         _Out_writes_opt_(_BufferCount) _Always_(_Post_z_) char*       const _Buffer,
; 1921 :         _In_                                              size_t      const _BufferCount,
; 1922 :         _In_z_ _Printf_format_string_                     char const* const _Format,
; 1923 :         ...)
; 1924 :     #if defined _NO_CRT_STDIO_INLINE
; 1925 :     ;
; 1926 :     #else
; 1927 :     {
; 1928 :         int _Result;
; 1929 :         va_list _ArgList;
; 1930 :         __crt_va_start(_ArgList, _Format);
; 1931 :         _Result = vsnprintf(_Buffer, _BufferCount, _Format, _ArgList);
; 1932 :         __crt_va_end(_ArgList);
; 1933 :         return _Result;
; 1934 :     }
; 1935 :     #endif
; 1936 : 
; 1937 :     _Success_(return >= 0)
; 1938 :     _Check_return_opt_
; 1939 :     _CRT_STDIO_INLINE int __CRTDECL _snprintf(
; 1940 :         _Out_writes_opt_(_BufferCount) _Post_maybez_ char*       const _Buffer,
; 1941 :         _In_                                         size_t      const _BufferCount,
; 1942 :         _In_z_ _Printf_format_string_                char const* const _Format,
; 1943 :         ...)
; 1944 :     #if defined _NO_CRT_STDIO_INLINE
; 1945 :     ;
; 1946 :     #else
; 1947 :     {
; 1948 :         int _Result;
; 1949 :         va_list _ArgList;
; 1950 :         __crt_va_start(_ArgList, _Format);
; 1951 :         _Result = _vsnprintf(_Buffer, _BufferCount, _Format, _ArgList);
; 1952 :         __crt_va_end(_ArgList);
; 1953 :         return _Result;
; 1954 :     }
; 1955 :     #endif
; 1956 : 
; 1957 :     __DEFINE_CPP_OVERLOAD_STANDARD_NFUNC_0_2_ARGLIST_EX(
; 1958 :         _Success_(return >= 0)
; 1959 :         int, __RETURN_POLICY_SAME, __EMPTY_DECLSPEC, __CRTDECL, _snprintf, _vsnprintf,
; 1960 :         _Pre_notnull_ _Post_maybez_                   char,
; 1961 :         _Out_writes_opt_(_BufferCount) _Post_maybez_, char,        _Buffer,
; 1962 :         _In_                                          size_t,      _BufferCount,
; 1963 :         _In_z_ _Printf_format_string_                 char const*, _Format
; 1964 :         )
; 1965 : 
; 1966 :     _Success_(return >= 0)
; 1967 :     _Check_return_opt_
; 1968 :     _CRT_STDIO_INLINE int __CRTDECL _snprintf_c_l(
; 1969 :         _Out_writes_opt_(_BufferCount)          char*       const _Buffer,
; 1970 :         _In_                                    size_t      const _BufferCount,
; 1971 :         _In_z_ _Printf_format_string_params_(0) char const* const _Format,
; 1972 :         _In_opt_                                _locale_t   const _Locale,
; 1973 :         ...)
; 1974 :     #if defined _NO_CRT_STDIO_INLINE
; 1975 :     ;
; 1976 :     #else
; 1977 :     {
; 1978 :         int _Result;
; 1979 :         va_list _ArgList;
; 1980 :         __crt_va_start(_ArgList, _Locale);
; 1981 :         _Result = _vsnprintf_c_l(_Buffer, _BufferCount, _Format, _Locale, _ArgList);
; 1982 :         __crt_va_end(_ArgList);
; 1983 :         return _Result;
; 1984 :     }
; 1985 :     #endif
; 1986 : 
; 1987 :     _Success_(return >= 0)
; 1988 :     _Check_return_opt_
; 1989 :     _CRT_STDIO_INLINE int __CRTDECL _snprintf_c(
; 1990 :         _Out_writes_opt_(_BufferCount) char*       const _Buffer,
; 1991 :         _In_                           size_t      const _BufferCount,
; 1992 :         _In_z_ _Printf_format_string_  char const* const _Format,
; 1993 :         ...)
; 1994 :     #if defined _NO_CRT_STDIO_INLINE
; 1995 :     ;
; 1996 :     #else
; 1997 :     {
; 1998 :         int _Result;
; 1999 :         va_list _ArgList;
; 2000 :         __crt_va_start(_ArgList, _Format);
; 2001 :         _Result = _vsnprintf_c_l(_Buffer, _BufferCount, _Format, NULL, _ArgList);
; 2002 :         __crt_va_end(_ArgList);
; 2003 :         return _Result;
; 2004 :     }
; 2005 :     #endif
; 2006 : 
; 2007 :     _Success_(return >= 0)
; 2008 :     _Check_return_opt_
; 2009 :     _CRT_STDIO_INLINE int __CRTDECL _snprintf_s_l(
; 2010 :         _Out_writes_opt_(_BufferCount) _Always_(_Post_z_) char*       const _Buffer,
; 2011 :         _In_                                              size_t      const _BufferCount,
; 2012 :         _In_                                              size_t      const _MaxCount,
; 2013 :         _In_z_ _Printf_format_string_params_(0)           char const* const _Format,
; 2014 :         _In_opt_                                          _locale_t   const _Locale,
; 2015 :         ...)
; 2016 :     #if defined _NO_CRT_STDIO_INLINE
; 2017 :     ;
; 2018 :     #else
; 2019 :     {
; 2020 :         int _Result;
; 2021 :         va_list _ArgList;
; 2022 :         __crt_va_start(_ArgList, _Locale);
; 2023 :         _Result = _vsnprintf_s_l(_Buffer, _BufferCount, _MaxCount, _Format, _Locale, _ArgList);
; 2024 :         __crt_va_end(_ArgList);
; 2025 :         return _Result;
; 2026 :     }
; 2027 :     #endif
; 2028 : 
; 2029 :     _Success_(return >= 0)
; 2030 :     _Check_return_opt_
; 2031 :     _CRT_STDIO_INLINE int __CRTDECL _snprintf_s(
; 2032 :         _Out_writes_opt_(_BufferCount) _Always_(_Post_z_) char*       const _Buffer,
; 2033 :         _In_                                              size_t      const _BufferCount,
; 2034 :         _In_                                              size_t      const _MaxCount,
; 2035 :         _In_z_ _Printf_format_string_                     char const* const _Format,
; 2036 :         ...)
; 2037 :     #if defined _NO_CRT_STDIO_INLINE
; 2038 :     ;
; 2039 :     #else
; 2040 :     {
; 2041 :         int _Result;
; 2042 :         va_list _ArgList;
; 2043 :         __crt_va_start(_ArgList, _Format);
; 2044 :         _Result = _vsnprintf_s_l(_Buffer, _BufferCount, _MaxCount, _Format, NULL, _ArgList);
; 2045 :         __crt_va_end(_ArgList);
; 2046 :         return _Result;
; 2047 :     }
; 2048 :     #endif
; 2049 : 
; 2050 :     __DEFINE_CPP_OVERLOAD_SECURE_FUNC_0_2_ARGLIST(

  0002e	5d		 pop	 ebp
  0002f	c3		 ret	 0
??$_snprintf_s@$0CA@@@YAHAAY0CA@DIPBDZZ ENDP		; _snprintf_s<32>
_TEXT	ENDS
; Function compile flags: /Ogtp
; File E:\Proyectos\JuegosOnlineproyectos\PB\pbblow\Piercing Blow Remake\i3Server\src\i3Base\tinyxml.cpp
;	COMDAT ?TiXmlFOpen@@YAPAVi3FileStream@@PBDH@Z
_TEXT	SEGMENT
_filename$ = 8						; size = 4
_Acc$ = 12						; size = 4
?TiXmlFOpen@@YAPAVi3FileStream@@PBDH@Z PROC		; TiXmlFOpen, COMDAT

; 41   : {

  00000	55		 push	 ebp
  00001	8b ec		 mov	 ebp, esp
  00003	56		 push	 esi

; 42   : 	i3FileStream * pFile = i3FileStream::NewObject();

  00004	e8 00 00 00 00	 call	 ?_NewObject@i3FileStream@@SAPAV1@XZ ; i3FileStream::_NewObject
  00009	8b f0		 mov	 esi, eax

; 43   : 	if( !pFile->Open(filename, Acc))

  0000b	6a 00		 push	 0
  0000d	ff 75 0c	 push	 DWORD PTR _Acc$[ebp]
  00010	8b ce		 mov	 ecx, esi
  00012	8b 16		 mov	 edx, DWORD PTR [esi]
  00014	ff 75 08	 push	 DWORD PTR _filename$[ebp]
  00017	ff 52 14	 call	 DWORD PTR [edx+20]
  0001a	85 c0		 test	 eax, eax
  0001c	75 2f		 jne	 SHORT $LN2@TiXmlFOpen

; 44   : 	{
; 45   : 		I3_SAFE_RELEASE(pFile);

  0001e	8b ce		 mov	 ecx, esi
  00020	e8 00 00 00 00	 call	 ?Release@i3ElementBase@@QAEXXZ ; i3ElementBase::Release

; 46   : 
; 47   : 		I3FATAL( "Could't Open File %s\n", filename);

  00025	6a 02		 push	 2
  00027	68 00 00 00 00	 push	 OFFSET ??_C@_0DJ@BKFHPIBL@class?5i3FileStream?5?$CK__cdecl?5TiX@
  0002c	6a 2f		 push	 47			; 0000002fH
  0002e	68 00 00 00 00	 push	 OFFSET ??_C@_0GC@BFFJFEAF@E?3?2Proyectos?2JuegosOnlineproyec@
  00033	e8 00 00 00 00	 call	 ?SetEnv@i3Error@@YAXPBDH0W4I3LOG_TYPE@@@Z ; i3Error::SetEnv
  00038	ff 75 08	 push	 DWORD PTR _filename$[ebp]
  0003b	68 00 00 00 00	 push	 OFFSET ??_C@_0BG@FJLABLJP@Could?8t?5Open?5File?5?$CFs?6@
  00040	e8 00 00 00 00	 call	 ?Log@i3Error@@YAXPBDZZ	; i3Error::Log
  00045	83 c4 18	 add	 esp, 24			; 00000018H

; 48   : 		return NULL;

  00048	33 c0		 xor	 eax, eax
  0004a	5e		 pop	 esi

; 52   : }

  0004b	5d		 pop	 ebp
  0004c	c3		 ret	 0
$LN2@TiXmlFOpen:

; 49   : 	}
; 50   : 
; 51   : 	return pFile;

  0004d	8b c6		 mov	 eax, esi
  0004f	5e		 pop	 esi

; 52   : }

  00050	5d		 pop	 ebp
  00051	c3		 ret	 0
?TiXmlFOpen@@YAPAVi3FileStream@@PBDH@Z ENDP		; TiXmlFOpen
_TEXT	ENDS
; Function compile flags: /Ogtp
; File E:\Proyectos\JuegosOnlineproyectos\PB\pbblow\Piercing Blow Remake\i3Server\include\i3Base\tinystr.h
;	COMDAT ??_ETiXmlPrinter@@UAEPAXI@Z
_TEXT	SEGMENT
__$EHRec$ = -12						; size = 12
___flags$ = 8						; size = 4
??_ETiXmlPrinter@@UAEPAXI@Z PROC			; TiXmlPrinter::`vector deleting destructor', COMDAT
; _this$ = ecx
  00000	55		 push	 ebp
  00001	8b ec		 mov	 ebp, esp
  00003	6a ff		 push	 -1
  00005	68 00 00 00 00	 push	 __ehhandler$??_ETiXmlPrinter@@UAEPAXI@Z
  0000a	64 a1 00 00 00
	00		 mov	 eax, DWORD PTR fs:0
  00010	50		 push	 eax
  00011	53		 push	 ebx
  00012	56		 push	 esi
  00013	57		 push	 edi
  00014	a1 00 00 00 00	 mov	 eax, DWORD PTR ___security_cookie
  00019	33 c5		 xor	 eax, ebp
  0001b	50		 push	 eax
  0001c	8d 45 f4	 lea	 eax, DWORD PTR __$EHRec$[ebp]
  0001f	64 a3 00 00 00
	00		 mov	 DWORD PTR fs:0, eax
  00025	8b f1		 mov	 esi, ecx
  00027	8b 5d 08	 mov	 ebx, DWORD PTR ___flags$[ebp]
  0002a	f6 c3 02	 test	 bl, 2
  0002d	74 44		 je	 SHORT $LN2@vector
  0002f	68 00 00 00 00	 push	 OFFSET ??1TiXmlPrinter@@UAE@XZ
  00034	ff 76 fc	 push	 DWORD PTR [esi-4]
  00037	8d 7e fc	 lea	 edi, DWORD PTR [esi-4]
  0003a	6a 18		 push	 24			; 00000018H
  0003c	56		 push	 esi
  0003d	e8 00 00 00 00	 call	 ??_M@YGXPAXIIP6EX0@Z@Z
  00042	f6 c3 01	 test	 bl, 1
  00045	74 16		 je	 SHORT $LN3@vector
  00047	8b 0f		 mov	 ecx, DWORD PTR [edi]
  00049	8d 0c 49	 lea	 ecx, DWORD PTR [ecx+ecx*2]
  0004c	8d 0c cd 04 00
	00 00		 lea	 ecx, DWORD PTR [ecx*8+4]
  00053	51		 push	 ecx
  00054	57		 push	 edi
  00055	e8 00 00 00 00	 call	 ??_V@YAXPAXI@Z		; operator delete[]
  0005a	83 c4 08	 add	 esp, 8
$LN3@vector:
  0005d	8b c7		 mov	 eax, edi
  0005f	8b 4d f4	 mov	 ecx, DWORD PTR __$EHRec$[ebp]
  00062	64 89 0d 00 00
	00 00		 mov	 DWORD PTR fs:0, ecx
  00069	59		 pop	 ecx
  0006a	5f		 pop	 edi
  0006b	5e		 pop	 esi
  0006c	5b		 pop	 ebx
  0006d	8b e5		 mov	 esp, ebp
  0006f	5d		 pop	 ebp
  00070	c2 04 00	 ret	 4
$LN2@vector:

; 257  : 		if (rep_ != &nullrep_)

  00073	8b 46 14	 mov	 eax, DWORD PTR [esi+20]
  00076	3d 00 00 00 00	 cmp	 eax, OFFSET ?nullrep_@TiXmlString@@0URep@1@A ; TiXmlString::nullrep_
  0007b	74 09		 je	 SHORT $LN16@vector

; 258  : 		{
; 259  : 			// The rep_ is really an array of ints. (see the allocator, above).
; 260  : 			// Cast it back before delete, so the compiler won't incorrectly call destructors.
; 261  : 			delete [] ( reinterpret_cast<int*>( rep_ ) );

  0007d	50		 push	 eax
  0007e	e8 00 00 00 00	 call	 ??_V@YAXPAX@Z		; operator delete[]
  00083	83 c4 04	 add	 esp, 4
$LN16@vector:

; 257  : 		if (rep_ != &nullrep_)

  00086	8b 46 10	 mov	 eax, DWORD PTR [esi+16]
  00089	3d 00 00 00 00	 cmp	 eax, OFFSET ?nullrep_@TiXmlString@@0URep@1@A ; TiXmlString::nullrep_
  0008e	74 09		 je	 SHORT $LN22@vector

; 258  : 		{
; 259  : 			// The rep_ is really an array of ints. (see the allocator, above).
; 260  : 			// Cast it back before delete, so the compiler won't incorrectly call destructors.
; 261  : 			delete [] ( reinterpret_cast<int*>( rep_ ) );

  00090	50		 push	 eax
  00091	e8 00 00 00 00	 call	 ??_V@YAXPAX@Z		; operator delete[]
  00096	83 c4 04	 add	 esp, 4
$LN22@vector:

; 257  : 		if (rep_ != &nullrep_)

  00099	8b 46 0c	 mov	 eax, DWORD PTR [esi+12]
  0009c	3d 00 00 00 00	 cmp	 eax, OFFSET ?nullrep_@TiXmlString@@0URep@1@A ; TiXmlString::nullrep_
  000a1	74 09		 je	 SHORT $LN28@vector

; 258  : 		{
; 259  : 			// The rep_ is really an array of ints. (see the allocator, above).
; 260  : 			// Cast it back before delete, so the compiler won't incorrectly call destructors.
; 261  : 			delete [] ( reinterpret_cast<int*>( rep_ ) );

  000a3	50		 push	 eax
  000a4	e8 00 00 00 00	 call	 ??_V@YAXPAX@Z		; operator delete[]
  000a9	83 c4 04	 add	 esp, 4
$LN28@vector:
  000ac	c7 06 00 00 00
	00		 mov	 DWORD PTR [esi], OFFSET ??_7TiXmlVisitor@@6B@
  000b2	f6 c3 01	 test	 bl, 1
  000b5	74 0b		 je	 SHORT $LN4@vector
  000b7	6a 18		 push	 24			; 00000018H
  000b9	56		 push	 esi
  000ba	e8 00 00 00 00	 call	 ??3@YAXPAXI@Z		; operator delete
  000bf	83 c4 08	 add	 esp, 8
$LN4@vector:
  000c2	8b c6		 mov	 eax, esi
  000c4	8b 4d f4	 mov	 ecx, DWORD PTR __$EHRec$[ebp]
  000c7	64 89 0d 00 00
	00 00		 mov	 DWORD PTR fs:0, ecx
  000ce	59		 pop	 ecx
  000cf	5f		 pop	 edi
  000d0	5e		 pop	 esi
  000d1	5b		 pop	 ebx
  000d2	8b e5		 mov	 esp, ebp
  000d4	5d		 pop	 ebp
  000d5	c2 04 00	 ret	 4
  000d8	cc		 int	 3
  000d9	cc		 int	 3
  000da	cc		 int	 3
  000db	cc		 int	 3
  000dc	cc		 int	 3
_TEXT	ENDS
;	COMDAT text$x
text$x	SEGMENT
__ehhandler$??_ETiXmlPrinter@@UAEPAXI@Z:
  00000	90		 npad	 1
  00001	90		 npad	 1
  00002	8b 54 24 08	 mov	 edx, DWORD PTR [esp+8]
  00006	8d 42 0c	 lea	 eax, DWORD PTR [edx+12]
  00009	8b 4a f0	 mov	 ecx, DWORD PTR [edx-16]
  0000c	33 c8		 xor	 ecx, eax
  0000e	e8 00 00 00 00	 call	 @__security_check_cookie@4
  00013	b8 00 00 00 00	 mov	 eax, OFFSET __ehfuncinfo$??_ETiXmlPrinter@@UAEPAXI@Z
  00018	e9 00 00 00 00	 jmp	 ___CxxFrameHandler3
text$x	ENDS
??_ETiXmlPrinter@@UAEPAXI@Z ENDP			; TiXmlPrinter::`vector deleting destructor'
; Function compile flags: /Ogtp
; File E:\Proyectos\JuegosOnlineproyectos\PB\pbblow\Piercing Blow Remake\i3Server\include\i3Base\tinystr.h
;	COMDAT ??_GTiXmlPrinter@@UAEPAXI@Z
_TEXT	SEGMENT
___flags$ = 8						; size = 4
??_GTiXmlPrinter@@UAEPAXI@Z PROC			; TiXmlPrinter::`scalar deleting destructor', COMDAT
; _this$ = ecx
  00000	55		 push	 ebp
  00001	8b ec		 mov	 ebp, esp

; 257  : 		if (rep_ != &nullrep_)

  00003	56		 push	 esi
  00004	8b f1		 mov	 esi, ecx
  00006	8b 46 14	 mov	 eax, DWORD PTR [esi+20]
  00009	3d 00 00 00 00	 cmp	 eax, OFFSET ?nullrep_@TiXmlString@@0URep@1@A ; TiXmlString::nullrep_
  0000e	74 09		 je	 SHORT $LN14@scalar

; 258  : 		{
; 259  : 			// The rep_ is really an array of ints. (see the allocator, above).
; 260  : 			// Cast it back before delete, so the compiler won't incorrectly call destructors.
; 261  : 			delete [] ( reinterpret_cast<int*>( rep_ ) );

  00010	50		 push	 eax
  00011	e8 00 00 00 00	 call	 ??_V@YAXPAX@Z		; operator delete[]
  00016	83 c4 04	 add	 esp, 4
$LN14@scalar:

; 257  : 		if (rep_ != &nullrep_)

  00019	8b 46 10	 mov	 eax, DWORD PTR [esi+16]
  0001c	3d 00 00 00 00	 cmp	 eax, OFFSET ?nullrep_@TiXmlString@@0URep@1@A ; TiXmlString::nullrep_
  00021	74 09		 je	 SHORT $LN20@scalar

; 258  : 		{
; 259  : 			// The rep_ is really an array of ints. (see the allocator, above).
; 260  : 			// Cast it back before delete, so the compiler won't incorrectly call destructors.
; 261  : 			delete [] ( reinterpret_cast<int*>( rep_ ) );

  00023	50		 push	 eax
  00024	e8 00 00 00 00	 call	 ??_V@YAXPAX@Z		; operator delete[]
  00029	83 c4 04	 add	 esp, 4
$LN20@scalar:

; 257  : 		if (rep_ != &nullrep_)

  0002c	8b 46 0c	 mov	 eax, DWORD PTR [esi+12]
  0002f	3d 00 00 00 00	 cmp	 eax, OFFSET ?nullrep_@TiXmlString@@0URep@1@A ; TiXmlString::nullrep_
  00034	74 09		 je	 SHORT $LN26@scalar

; 258  : 		{
; 259  : 			// The rep_ is really an array of ints. (see the allocator, above).
; 260  : 			// Cast it back before delete, so the compiler won't incorrectly call destructors.
; 261  : 			delete [] ( reinterpret_cast<int*>( rep_ ) );

  00036	50		 push	 eax
  00037	e8 00 00 00 00	 call	 ??_V@YAXPAX@Z		; operator delete[]
  0003c	83 c4 04	 add	 esp, 4
$LN26@scalar:
  0003f	f6 45 08 01	 test	 BYTE PTR ___flags$[ebp], 1
  00043	c7 06 00 00 00
	00		 mov	 DWORD PTR [esi], OFFSET ??_7TiXmlVisitor@@6B@
  00049	74 0b		 je	 SHORT $LN28@scalar
  0004b	6a 18		 push	 24			; 00000018H
  0004d	56		 push	 esi
  0004e	e8 00 00 00 00	 call	 ??3@YAXPAXI@Z		; operator delete
  00053	83 c4 08	 add	 esp, 8
$LN28@scalar:
  00056	8b c6		 mov	 eax, esi
  00058	5e		 pop	 esi
  00059	5d		 pop	 ebp
  0005a	c2 04 00	 ret	 4
??_GTiXmlPrinter@@UAEPAXI@Z ENDP			; TiXmlPrinter::`scalar deleting destructor'
_TEXT	ENDS
; Function compile flags: /Ogtp
; File E:\Proyectos\JuegosOnlineproyectos\PB\pbblow\Piercing Blow Remake\i3Server\include\i3Base\tinystr.h
;	COMDAT ??4TiXmlPrinter@@QAEAAV0@$$QAV0@@Z
_TEXT	SEGMENT
___that$ = 8						; size = 4
??4TiXmlPrinter@@QAEAAV0@$$QAV0@@Z PROC			; TiXmlPrinter::operator=, COMDAT
; _this$ = ecx
  00000	55		 push	 ebp
  00001	8b ec		 mov	 ebp, esp

; 150  : 	size_type length () const { return rep_->size; }

  00003	56		 push	 esi
  00004	8b 75 08	 mov	 esi, DWORD PTR ___that$[ebp]
  00007	57		 push	 edi
  00008	8b f9		 mov	 edi, ecx
  0000a	8b 46 04	 mov	 eax, DWORD PTR [esi+4]
  0000d	89 47 04	 mov	 DWORD PTR [edi+4], eax
  00010	8d 4f 0c	 lea	 ecx, DWORD PTR [edi+12]
  00013	8a 46 08	 mov	 al, BYTE PTR [esi+8]
  00016	88 47 08	 mov	 BYTE PTR [edi+8], al
  00019	8b 46 0c	 mov	 eax, DWORD PTR [esi+12]

; 120  : 		return assign(copy.start(), copy.length());

  0001c	ff 30		 push	 DWORD PTR [eax]

; 224  : 	char* start() const { return rep_->str; }

  0001e	83 c0 08	 add	 eax, 8

; 120  : 		return assign(copy.start(), copy.length());

  00021	50		 push	 eax
  00022	e8 00 00 00 00	 call	 ?assign@TiXmlString@@QAEAAV1@PBDI@Z ; TiXmlString::assign

; 150  : 	size_type length () const { return rep_->size; }

  00027	8b 46 10	 mov	 eax, DWORD PTR [esi+16]
  0002a	8d 4f 10	 lea	 ecx, DWORD PTR [edi+16]

; 120  : 		return assign(copy.start(), copy.length());

  0002d	ff 30		 push	 DWORD PTR [eax]

; 224  : 	char* start() const { return rep_->str; }

  0002f	83 c0 08	 add	 eax, 8

; 120  : 		return assign(copy.start(), copy.length());

  00032	50		 push	 eax
  00033	e8 00 00 00 00	 call	 ?assign@TiXmlString@@QAEAAV1@PBDI@Z ; TiXmlString::assign

; 150  : 	size_type length () const { return rep_->size; }

  00038	8b 46 14	 mov	 eax, DWORD PTR [esi+20]
  0003b	8d 4f 14	 lea	 ecx, DWORD PTR [edi+20]

; 120  : 		return assign(copy.start(), copy.length());

  0003e	ff 30		 push	 DWORD PTR [eax]

; 224  : 	char* start() const { return rep_->str; }

  00040	83 c0 08	 add	 eax, 8

; 120  : 		return assign(copy.start(), copy.length());

  00043	50		 push	 eax
  00044	e8 00 00 00 00	 call	 ?assign@TiXmlString@@QAEAAV1@PBDI@Z ; TiXmlString::assign
  00049	8b c7		 mov	 eax, edi
  0004b	5f		 pop	 edi
  0004c	5e		 pop	 esi
  0004d	5d		 pop	 ebp
  0004e	c2 04 00	 ret	 4
??4TiXmlPrinter@@QAEAAV0@$$QAV0@@Z ENDP			; TiXmlPrinter::operator=
_TEXT	ENDS
; Function compile flags: /Ogtp
; File E:\Proyectos\JuegosOnlineproyectos\PB\pbblow\Piercing Blow Remake\i3Server\include\i3Base\tinystr.h
;	COMDAT ??4TiXmlPrinter@@QAEAAV0@ABV0@@Z
_TEXT	SEGMENT
___that$ = 8						; size = 4
??4TiXmlPrinter@@QAEAAV0@ABV0@@Z PROC			; TiXmlPrinter::operator=, COMDAT
; _this$ = ecx
  00000	55		 push	 ebp
  00001	8b ec		 mov	 ebp, esp

; 150  : 	size_type length () const { return rep_->size; }

  00003	56		 push	 esi
  00004	8b 75 08	 mov	 esi, DWORD PTR ___that$[ebp]
  00007	57		 push	 edi
  00008	8b f9		 mov	 edi, ecx
  0000a	8b 46 04	 mov	 eax, DWORD PTR [esi+4]
  0000d	89 47 04	 mov	 DWORD PTR [edi+4], eax
  00010	8d 4f 0c	 lea	 ecx, DWORD PTR [edi+12]
  00013	8a 46 08	 mov	 al, BYTE PTR [esi+8]
  00016	88 47 08	 mov	 BYTE PTR [edi+8], al
  00019	8b 46 0c	 mov	 eax, DWORD PTR [esi+12]

; 120  : 		return assign(copy.start(), copy.length());

  0001c	ff 30		 push	 DWORD PTR [eax]

; 224  : 	char* start() const { return rep_->str; }

  0001e	83 c0 08	 add	 eax, 8

; 120  : 		return assign(copy.start(), copy.length());

  00021	50		 push	 eax
  00022	e8 00 00 00 00	 call	 ?assign@TiXmlString@@QAEAAV1@PBDI@Z ; TiXmlString::assign

; 150  : 	size_type length () const { return rep_->size; }

  00027	8b 46 10	 mov	 eax, DWORD PTR [esi+16]
  0002a	8d 4f 10	 lea	 ecx, DWORD PTR [edi+16]

; 120  : 		return assign(copy.start(), copy.length());

  0002d	ff 30		 push	 DWORD PTR [eax]

; 224  : 	char* start() const { return rep_->str; }

  0002f	83 c0 08	 add	 eax, 8

; 120  : 		return assign(copy.start(), copy.length());

  00032	50		 push	 eax
  00033	e8 00 00 00 00	 call	 ?assign@TiXmlString@@QAEAAV1@PBDI@Z ; TiXmlString::assign

; 150  : 	size_type length () const { return rep_->size; }

  00038	8b 46 14	 mov	 eax, DWORD PTR [esi+20]
  0003b	8d 4f 14	 lea	 ecx, DWORD PTR [edi+20]

; 120  : 		return assign(copy.start(), copy.length());

  0003e	ff 30		 push	 DWORD PTR [eax]

; 224  : 	char* start() const { return rep_->str; }

  00040	83 c0 08	 add	 eax, 8

; 120  : 		return assign(copy.start(), copy.length());

  00043	50		 push	 eax
  00044	e8 00 00 00 00	 call	 ?assign@TiXmlString@@QAEAAV1@PBDI@Z ; TiXmlString::assign
  00049	8b c7		 mov	 eax, edi
  0004b	5f		 pop	 edi
  0004c	5e		 pop	 esi
  0004d	5d		 pop	 ebp
  0004e	c2 04 00	 ret	 4
??4TiXmlPrinter@@QAEAAV0@ABV0@@Z ENDP			; TiXmlPrinter::operator=
_TEXT	ENDS
; Function compile flags: /Ogtp
;	COMDAT ??0TiXmlPrinter@@QAE@$$QAV0@@Z
_TEXT	SEGMENT
_this$ = -16						; size = 4
__$EHRec$ = -12						; size = 12
___that$ = 8						; size = 4
??0TiXmlPrinter@@QAE@$$QAV0@@Z PROC			; TiXmlPrinter::TiXmlPrinter, COMDAT
; _this$ = ecx
  00000	55		 push	 ebp
  00001	8b ec		 mov	 ebp, esp
  00003	6a ff		 push	 -1
  00005	68 00 00 00 00	 push	 __ehhandler$??0TiXmlPrinter@@QAE@$$QAV0@@Z
  0000a	64 a1 00 00 00
	00		 mov	 eax, DWORD PTR fs:0
  00010	50		 push	 eax
  00011	51		 push	 ecx
  00012	56		 push	 esi
  00013	57		 push	 edi
  00014	a1 00 00 00 00	 mov	 eax, DWORD PTR ___security_cookie
  00019	33 c5		 xor	 eax, ebp
  0001b	50		 push	 eax
  0001c	8d 45 f4	 lea	 eax, DWORD PTR __$EHRec$[ebp]
  0001f	64 a3 00 00 00
	00		 mov	 DWORD PTR fs:0, eax
  00025	8b f9		 mov	 edi, ecx
  00027	89 7d f0	 mov	 DWORD PTR _this$[ebp], edi
  0002a	8b 75 08	 mov	 esi, DWORD PTR ___that$[ebp]
  0002d	8d 4f 0c	 lea	 ecx, DWORD PTR [edi+12]
  00030	c7 07 00 00 00
	00		 mov	 DWORD PTR [edi], OFFSET ??_7TiXmlPrinter@@6B@
  00036	c7 45 fc 00 00
	00 00		 mov	 DWORD PTR __$EHRec$[ebp+8], 0
  0003d	8b 46 04	 mov	 eax, DWORD PTR [esi+4]
  00040	89 47 04	 mov	 DWORD PTR [edi+4], eax
  00043	8a 46 08	 mov	 al, BYTE PTR [esi+8]
  00046	88 47 08	 mov	 BYTE PTR [edi+8], al
  00049	8d 46 0c	 lea	 eax, DWORD PTR [esi+12]
  0004c	50		 push	 eax
  0004d	e8 00 00 00 00	 call	 ??0TiXmlString@@QAE@ABV0@@Z ; TiXmlString::TiXmlString
  00052	8d 46 10	 lea	 eax, DWORD PTR [esi+16]
  00055	c6 45 fc 01	 mov	 BYTE PTR __$EHRec$[ebp+8], 1
  00059	50		 push	 eax
  0005a	8d 4f 10	 lea	 ecx, DWORD PTR [edi+16]
  0005d	e8 00 00 00 00	 call	 ??0TiXmlString@@QAE@ABV0@@Z ; TiXmlString::TiXmlString
  00062	8d 46 14	 lea	 eax, DWORD PTR [esi+20]
  00065	c6 45 fc 02	 mov	 BYTE PTR __$EHRec$[ebp+8], 2
  00069	50		 push	 eax
  0006a	8d 4f 14	 lea	 ecx, DWORD PTR [edi+20]
  0006d	e8 00 00 00 00	 call	 ??0TiXmlString@@QAE@ABV0@@Z ; TiXmlString::TiXmlString
  00072	8b c7		 mov	 eax, edi
  00074	8b 4d f4	 mov	 ecx, DWORD PTR __$EHRec$[ebp]
  00077	64 89 0d 00 00
	00 00		 mov	 DWORD PTR fs:0, ecx
  0007e	59		 pop	 ecx
  0007f	5f		 pop	 edi
  00080	5e		 pop	 esi
  00081	8b e5		 mov	 esp, ebp
  00083	5d		 pop	 ebp
  00084	c2 04 00	 ret	 4
_TEXT	ENDS
;	COMDAT text$x
text$x	SEGMENT
__unwindfunclet$??0TiXmlPrinter@@QAE@$$QAV0@@Z$0:
  00000	8b 4d f0	 mov	 ecx, DWORD PTR _this$[ebp]
  00003	e9 00 00 00 00	 jmp	 ??1TiXmlVisitor@@UAE@XZ	; TiXmlVisitor::~TiXmlVisitor
__unwindfunclet$??0TiXmlPrinter@@QAE@$$QAV0@@Z$1:
  00008	8b 4d f0	 mov	 ecx, DWORD PTR _this$[ebp]
  0000b	83 c1 0c	 add	 ecx, 12			; 0000000cH
  0000e	e9 00 00 00 00	 jmp	 ??1TiXmlString@@QAE@XZ	; TiXmlString::~TiXmlString
__unwindfunclet$??0TiXmlPrinter@@QAE@$$QAV0@@Z$2:
  00013	8b 4d f0	 mov	 ecx, DWORD PTR _this$[ebp]
  00016	83 c1 10	 add	 ecx, 16			; 00000010H
  00019	e9 00 00 00 00	 jmp	 ??1TiXmlString@@QAE@XZ	; TiXmlString::~TiXmlString
  0001e	cc		 int	 3
  0001f	cc		 int	 3
  00020	cc		 int	 3
  00021	cc		 int	 3
  00022	cc		 int	 3
__ehhandler$??0TiXmlPrinter@@QAE@$$QAV0@@Z:
  00023	90		 npad	 1
  00024	90		 npad	 1
  00025	8b 54 24 08	 mov	 edx, DWORD PTR [esp+8]
  00029	8d 42 0c	 lea	 eax, DWORD PTR [edx+12]
  0002c	8b 4a f0	 mov	 ecx, DWORD PTR [edx-16]
  0002f	33 c8		 xor	 ecx, eax
  00031	e8 00 00 00 00	 call	 @__security_check_cookie@4
  00036	b8 00 00 00 00	 mov	 eax, OFFSET __ehfuncinfo$??0TiXmlPrinter@@QAE@$$QAV0@@Z
  0003b	e9 00 00 00 00	 jmp	 ___CxxFrameHandler3
text$x	ENDS
??0TiXmlPrinter@@QAE@$$QAV0@@Z ENDP			; TiXmlPrinter::TiXmlPrinter
; Function compile flags: /Ogtp
;	COMDAT ??0TiXmlPrinter@@QAE@ABV0@@Z
_TEXT	SEGMENT
_this$ = -16						; size = 4
__$EHRec$ = -12						; size = 12
___that$ = 8						; size = 4
??0TiXmlPrinter@@QAE@ABV0@@Z PROC			; TiXmlPrinter::TiXmlPrinter, COMDAT
; _this$ = ecx
  00000	55		 push	 ebp
  00001	8b ec		 mov	 ebp, esp
  00003	6a ff		 push	 -1
  00005	68 00 00 00 00	 push	 __ehhandler$??0TiXmlPrinter@@QAE@ABV0@@Z
  0000a	64 a1 00 00 00
	00		 mov	 eax, DWORD PTR fs:0
  00010	50		 push	 eax
  00011	51		 push	 ecx
  00012	56		 push	 esi
  00013	57		 push	 edi
  00014	a1 00 00 00 00	 mov	 eax, DWORD PTR ___security_cookie
  00019	33 c5		 xor	 eax, ebp
  0001b	50		 push	 eax
  0001c	8d 45 f4	 lea	 eax, DWORD PTR __$EHRec$[ebp]
  0001f	64 a3 00 00 00
	00		 mov	 DWORD PTR fs:0, eax
  00025	8b f9		 mov	 edi, ecx
  00027	89 7d f0	 mov	 DWORD PTR _this$[ebp], edi
  0002a	8b 75 08	 mov	 esi, DWORD PTR ___that$[ebp]
  0002d	8d 4f 0c	 lea	 ecx, DWORD PTR [edi+12]
  00030	c7 07 00 00 00
	00		 mov	 DWORD PTR [edi], OFFSET ??_7TiXmlPrinter@@6B@
  00036	c7 45 fc 00 00
	00 00		 mov	 DWORD PTR __$EHRec$[ebp+8], 0
  0003d	8b 46 04	 mov	 eax, DWORD PTR [esi+4]
  00040	89 47 04	 mov	 DWORD PTR [edi+4], eax
  00043	8a 46 08	 mov	 al, BYTE PTR [esi+8]
  00046	88 47 08	 mov	 BYTE PTR [edi+8], al
  00049	8d 46 0c	 lea	 eax, DWORD PTR [esi+12]
  0004c	50		 push	 eax
  0004d	e8 00 00 00 00	 call	 ??0TiXmlString@@QAE@ABV0@@Z ; TiXmlString::TiXmlString
  00052	8d 46 10	 lea	 eax, DWORD PTR [esi+16]
  00055	c6 45 fc 01	 mov	 BYTE PTR __$EHRec$[ebp+8], 1
  00059	50		 push	 eax
  0005a	8d 4f 10	 lea	 ecx, DWORD PTR [edi+16]
  0005d	e8 00 00 00 00	 call	 ??0TiXmlString@@QAE@ABV0@@Z ; TiXmlString::TiXmlString
  00062	8d 46 14	 lea	 eax, DWORD PTR [esi+20]
  00065	c6 45 fc 02	 mov	 BYTE PTR __$EHRec$[ebp+8], 2
  00069	50		 push	 eax
  0006a	8d 4f 14	 lea	 ecx, DWORD PTR [edi+20]
  0006d	e8 00 00 00 00	 call	 ??0TiXmlString@@QAE@ABV0@@Z ; TiXmlString::TiXmlString
  00072	8b c7		 mov	 eax, edi
  00074	8b 4d f4	 mov	 ecx, DWORD PTR __$EHRec$[ebp]
  00077	64 89 0d 00 00
	00 00		 mov	 DWORD PTR fs:0, ecx
  0007e	59		 pop	 ecx
  0007f	5f		 pop	 edi
  00080	5e		 pop	 esi
  00081	8b e5		 mov	 esp, ebp
  00083	5d		 pop	 ebp
  00084	c2 04 00	 ret	 4
_TEXT	ENDS
;	COMDAT text$x
text$x	SEGMENT
__unwindfunclet$??0TiXmlPrinter@@QAE@ABV0@@Z$0:
  00000	8b 4d f0	 mov	 ecx, DWORD PTR _this$[ebp]
  00003	e9 00 00 00 00	 jmp	 ??1TiXmlVisitor@@UAE@XZ	; TiXmlVisitor::~TiXmlVisitor
__unwindfunclet$??0TiXmlPrinter@@QAE@ABV0@@Z$1:
  00008	8b 4d f0	 mov	 ecx, DWORD PTR _this$[ebp]
  0000b	83 c1 0c	 add	 ecx, 12			; 0000000cH
  0000e	e9 00 00 00 00	 jmp	 ??1TiXmlString@@QAE@XZ	; TiXmlString::~TiXmlString
__unwindfunclet$??0TiXmlPrinter@@QAE@ABV0@@Z$2:
  00013	8b 4d f0	 mov	 ecx, DWORD PTR _this$[ebp]
  00016	83 c1 10	 add	 ecx, 16			; 00000010H
  00019	e9 00 00 00 00	 jmp	 ??1TiXmlString@@QAE@XZ	; TiXmlString::~TiXmlString
  0001e	cc		 int	 3
  0001f	cc		 int	 3
  00020	cc		 int	 3
  00021	cc		 int	 3
  00022	cc		 int	 3
__ehhandler$??0TiXmlPrinter@@QAE@ABV0@@Z:
  00023	90		 npad	 1
  00024	90		 npad	 1
  00025	8b 54 24 08	 mov	 edx, DWORD PTR [esp+8]
  00029	8d 42 0c	 lea	 eax, DWORD PTR [edx+12]
  0002c	8b 4a f0	 mov	 ecx, DWORD PTR [edx-16]
  0002f	33 c8		 xor	 ecx, eax
  00031	e8 00 00 00 00	 call	 @__security_check_cookie@4
  00036	b8 00 00 00 00	 mov	 eax, OFFSET __ehfuncinfo$??0TiXmlPrinter@@QAE@ABV0@@Z
  0003b	e9 00 00 00 00	 jmp	 ___CxxFrameHandler3
text$x	ENDS
??0TiXmlPrinter@@QAE@ABV0@@Z ENDP			; TiXmlPrinter::TiXmlPrinter
; Function compile flags: /Ogtp
; File E:\Proyectos\JuegosOnlineproyectos\PB\pbblow\Piercing Blow Remake\i3Server\include\i3Base\tinystr.h
;	COMDAT ??1TiXmlPrinter@@UAE@XZ
_TEXT	SEGMENT
??1TiXmlPrinter@@UAE@XZ PROC				; TiXmlPrinter::~TiXmlPrinter, COMDAT
; _this$ = ecx

; 257  : 		if (rep_ != &nullrep_)

  00000	56		 push	 esi
  00001	8b f1		 mov	 esi, ecx
  00003	8b 46 14	 mov	 eax, DWORD PTR [esi+20]
  00006	3d 00 00 00 00	 cmp	 eax, OFFSET ?nullrep_@TiXmlString@@0URep@1@A ; TiXmlString::nullrep_
  0000b	74 09		 je	 SHORT $LN8@TiXmlPrint

; 258  : 		{
; 259  : 			// The rep_ is really an array of ints. (see the allocator, above).
; 260  : 			// Cast it back before delete, so the compiler won't incorrectly call destructors.
; 261  : 			delete [] ( reinterpret_cast<int*>( rep_ ) );

  0000d	50		 push	 eax
  0000e	e8 00 00 00 00	 call	 ??_V@YAXPAX@Z		; operator delete[]
  00013	83 c4 04	 add	 esp, 4
$LN8@TiXmlPrint:

; 257  : 		if (rep_ != &nullrep_)

  00016	8b 46 10	 mov	 eax, DWORD PTR [esi+16]
  00019	3d 00 00 00 00	 cmp	 eax, OFFSET ?nullrep_@TiXmlString@@0URep@1@A ; TiXmlString::nullrep_
  0001e	74 09		 je	 SHORT $LN14@TiXmlPrint

; 258  : 		{
; 259  : 			// The rep_ is really an array of ints. (see the allocator, above).
; 260  : 			// Cast it back before delete, so the compiler won't incorrectly call destructors.
; 261  : 			delete [] ( reinterpret_cast<int*>( rep_ ) );

  00020	50		 push	 eax
  00021	e8 00 00 00 00	 call	 ??_V@YAXPAX@Z		; operator delete[]
  00026	83 c4 04	 add	 esp, 4
$LN14@TiXmlPrint:

; 257  : 		if (rep_ != &nullrep_)

  00029	8b 46 0c	 mov	 eax, DWORD PTR [esi+12]
  0002c	3d 00 00 00 00	 cmp	 eax, OFFSET ?nullrep_@TiXmlString@@0URep@1@A ; TiXmlString::nullrep_
  00031	74 09		 je	 SHORT $LN22@TiXmlPrint

; 258  : 		{
; 259  : 			// The rep_ is really an array of ints. (see the allocator, above).
; 260  : 			// Cast it back before delete, so the compiler won't incorrectly call destructors.
; 261  : 			delete [] ( reinterpret_cast<int*>( rep_ ) );

  00033	50		 push	 eax
  00034	e8 00 00 00 00	 call	 ??_V@YAXPAX@Z		; operator delete[]
  00039	83 c4 04	 add	 esp, 4
$LN22@TiXmlPrint:
  0003c	c7 06 00 00 00
	00		 mov	 DWORD PTR [esi], OFFSET ??_7TiXmlVisitor@@6B@
  00042	5e		 pop	 esi
  00043	c3		 ret	 0
??1TiXmlPrinter@@UAE@XZ ENDP				; TiXmlPrinter::~TiXmlPrinter
_TEXT	ENDS
; Function compile flags: /Ogtp
; File E:\Proyectos\JuegosOnlineproyectos\PB\pbblow\Piercing Blow Remake\i3Server\include\i3Base\tinyxml.h
; File E:\Proyectos\JuegosOnlineproyectos\PB\pbblow\Piercing Blow Remake\i3Server\include\i3Base\tinystr.h
; File E:\Proyectos\JuegosOnlineproyectos\PB\pbblow\Piercing Blow Remake\i3Server\include\i3Base\tinyxml.h
; File E:\Proyectos\JuegosOnlineproyectos\PB\pbblow\Piercing Blow Remake\i3Server\include\i3Base\tinystr.h
; File E:\Proyectos\JuegosOnlineproyectos\PB\pbblow\Piercing Blow Remake\i3Server\include\i3Base\tinyxml.h
;	COMDAT ?DoLineBreak@TiXmlPrinter@@AAEXXZ
_TEXT	SEGMENT
?DoLineBreak@TiXmlPrinter@@AAEXXZ PROC			; TiXmlPrinter::DoLineBreak, COMDAT
; _this$ = ecx
; File E:\Proyectos\JuegosOnlineproyectos\PB\pbblow\Piercing Blow Remake\i3Server\include\i3Base\tinystr.h

; 150  : 	size_type length () const { return rep_->size; }

  00000	8b 41 14	 mov	 eax, DWORD PTR [ecx+20]
; File E:\Proyectos\JuegosOnlineproyectos\PB\pbblow\Piercing Blow Remake\i3Server\include\i3Base\tinyxml.h

; 1801 : 		buffer += lineBreak;

  00003	83 c1 0c	 add	 ecx, 12			; 0000000cH
; File E:\Proyectos\JuegosOnlineproyectos\PB\pbblow\Piercing Blow Remake\i3Server\include\i3Base\tinystr.h

; 139  : 		return append(suffix.data(), suffix.length());

  00006	ff 30		 push	 DWORD PTR [eax]

; 147  : 	const char * data () const { return rep_->str; }

  00008	83 c0 08	 add	 eax, 8

; 139  : 		return append(suffix.data(), suffix.length());

  0000b	50		 push	 eax
  0000c	e8 00 00 00 00	 call	 ?append@TiXmlString@@QAEAAV1@PBDI@Z ; TiXmlString::append
; File E:\Proyectos\JuegosOnlineproyectos\PB\pbblow\Piercing Blow Remake\i3Server\include\i3Base\tinyxml.h

; 1802 : 	}

  00011	c3		 ret	 0
?DoLineBreak@TiXmlPrinter@@AAEXXZ ENDP			; TiXmlPrinter::DoLineBreak
_TEXT	ENDS
; Function compile flags: /Ogtp
; File E:\Proyectos\JuegosOnlineproyectos\PB\pbblow\Piercing Blow Remake\i3Server\include\i3Base\tinyxml.h
; File E:\Proyectos\JuegosOnlineproyectos\PB\pbblow\Piercing Blow Remake\i3Server\include\i3Base\tinystr.h
; File E:\Proyectos\JuegosOnlineproyectos\PB\pbblow\Piercing Blow Remake\i3Server\include\i3Base\tinyxml.h
;	COMDAT ?DoIndent@TiXmlPrinter@@AAEXXZ
_TEXT	SEGMENT
?DoIndent@TiXmlPrinter@@AAEXXZ PROC			; TiXmlPrinter::DoIndent, COMDAT
; _this$ = ecx

; 1796 : 	void DoIndent()	{

  00000	56		 push	 esi
  00001	57		 push	 edi
  00002	8b f9		 mov	 edi, ecx

; 1797 : 		for( int i=0; i<depth; ++i )

  00004	33 f6		 xor	 esi, esi
  00006	39 77 04	 cmp	 DWORD PTR [edi+4], esi
  00009	7e 1d		 jle	 SHORT $LN3@DoIndent
  0000b	53		 push	 ebx
  0000c	8d 64 24 00	 npad	 4
$LL4@DoIndent:
; File E:\Proyectos\JuegosOnlineproyectos\PB\pbblow\Piercing Blow Remake\i3Server\include\i3Base\tinystr.h

; 150  : 	size_type length () const { return rep_->size; }

  00010	8b 47 10	 mov	 eax, DWORD PTR [edi+16]

; 139  : 		return append(suffix.data(), suffix.length());

  00013	8d 4f 0c	 lea	 ecx, DWORD PTR [edi+12]
  00016	ff 30		 push	 DWORD PTR [eax]

; 147  : 	const char * data () const { return rep_->str; }

  00018	83 c0 08	 add	 eax, 8

; 139  : 		return append(suffix.data(), suffix.length());

  0001b	50		 push	 eax
  0001c	e8 00 00 00 00	 call	 ?append@TiXmlString@@QAEAAV1@PBDI@Z ; TiXmlString::append
; File E:\Proyectos\JuegosOnlineproyectos\PB\pbblow\Piercing Blow Remake\i3Server\include\i3Base\tinyxml.h

; 1797 : 		for( int i=0; i<depth; ++i )

  00021	46		 inc	 esi
  00022	3b 77 04	 cmp	 esi, DWORD PTR [edi+4]
  00025	7c e9		 jl	 SHORT $LL4@DoIndent
  00027	5b		 pop	 ebx
$LN3@DoIndent:
  00028	5f		 pop	 edi

; 1798 : 			buffer += indent;
; 1799 : 	}

  00029	5e		 pop	 esi
  0002a	c3		 ret	 0
?DoIndent@TiXmlPrinter@@AAEXXZ ENDP			; TiXmlPrinter::DoIndent
_TEXT	ENDS
; Function compile flags: /Ogtp
; File E:\Proyectos\JuegosOnlineproyectos\PB\pbblow\Piercing Blow Remake\i3Server\include\i3Base\tinyxml.h
; File E:\Proyectos\JuegosOnlineproyectos\PB\pbblow\Piercing Blow Remake\i3Server\include\i3Base\tinystr.h
; File E:\Proyectos\JuegosOnlineproyectos\PB\pbblow\Piercing Blow Remake\i3Server\include\i3Base\tinyxml.h
;	COMDAT ?Size@TiXmlPrinter@@QAEIXZ
_TEXT	SEGMENT
?Size@TiXmlPrinter@@QAEIXZ PROC				; TiXmlPrinter::Size, COMDAT
; _this$ = ecx
; File E:\Proyectos\JuegosOnlineproyectos\PB\pbblow\Piercing Blow Remake\i3Server\include\i3Base\tinystr.h

; 153  : 	size_type size () const { return rep_->size; }

  00000	8b 41 0c	 mov	 eax, DWORD PTR [ecx+12]
; File E:\Proyectos\JuegosOnlineproyectos\PB\pbblow\Piercing Blow Remake\i3Server\include\i3Base\tinyxml.h

; 1788 : 	size_t Size()									{ return buffer.size(); }

  00003	8b 00		 mov	 eax, DWORD PTR [eax]
  00005	c3		 ret	 0
?Size@TiXmlPrinter@@QAEIXZ ENDP				; TiXmlPrinter::Size
_TEXT	ENDS
; Function compile flags: /Ogtp
; File E:\Proyectos\JuegosOnlineproyectos\PB\pbblow\Piercing Blow Remake\i3Server\include\i3Base\tinyxml.h
; File E:\Proyectos\JuegosOnlineproyectos\PB\pbblow\Piercing Blow Remake\i3Server\include\i3Base\tinystr.h
; File E:\Proyectos\JuegosOnlineproyectos\PB\pbblow\Piercing Blow Remake\i3Server\include\i3Base\tinyxml.h
;	COMDAT ?CStr@TiXmlPrinter@@QAEPBDXZ
_TEXT	SEGMENT
?CStr@TiXmlPrinter@@QAEPBDXZ PROC			; TiXmlPrinter::CStr, COMDAT
; _this$ = ecx
; File E:\Proyectos\JuegosOnlineproyectos\PB\pbblow\Piercing Blow Remake\i3Server\include\i3Base\tinystr.h

; 144  : 	const char * c_str () const { return rep_->str; }

  00000	8b 41 0c	 mov	 eax, DWORD PTR [ecx+12]
  00003	83 c0 08	 add	 eax, 8
; File E:\Proyectos\JuegosOnlineproyectos\PB\pbblow\Piercing Blow Remake\i3Server\include\i3Base\tinyxml.h

; 1786 : 	const char* CStr()								{ return buffer.c_str(); }

  00006	c3		 ret	 0
?CStr@TiXmlPrinter@@QAEPBDXZ ENDP			; TiXmlPrinter::CStr
_TEXT	ENDS
; Function compile flags: /Ogtp
; File E:\Proyectos\JuegosOnlineproyectos\PB\pbblow\Piercing Blow Remake\i3Server\include\i3Base\tinyxml.h
; File E:\Proyectos\JuegosOnlineproyectos\PB\pbblow\Piercing Blow Remake\i3Server\include\i3Base\tinystr.h
; File E:\Proyectos\JuegosOnlineproyectos\PB\pbblow\Piercing Blow Remake\i3Server\include\i3Base\tinyxml.h
; File E:\Proyectos\JuegosOnlineproyectos\PB\pbblow\Piercing Blow Remake\i3Server\include\i3Base\tinystr.h
; File E:\Proyectos\JuegosOnlineproyectos\PB\pbblow\Piercing Blow Remake\i3Server\include\i3Base\tinyxml.h
; File E:\Proyectos\JuegosOnlineproyectos\PB\pbblow\Piercing Blow Remake\i3Server\include\i3Base\tinystr.h
; File E:\Proyectos\JuegosOnlineproyectos\PB\pbblow\Piercing Blow Remake\i3Server\include\i3Base\tinyxml.h
;	COMDAT ?SetStreamPrinting@TiXmlPrinter@@QAEXXZ
_TEXT	SEGMENT
?SetStreamPrinting@TiXmlPrinter@@QAEXXZ PROC		; TiXmlPrinter::SetStreamPrinting, COMDAT
; _this$ = ecx

; 1782 : 	void SetStreamPrinting()						{ indent = "";

  00000	56		 push	 esi
  00001	8b f1		 mov	 esi, ecx
; File E:\Proyectos\JuegosOnlineproyectos\PB\pbblow\Piercing Blow Remake\i3Server\include\i3Base\tinystr.h

; 114  : 		return assign( copy, (size_type)strlen(copy));

  00003	6a 00		 push	 0
  00005	68 00 00 00 00	 push	 OFFSET ??_C@_00CNPNBAHC@@
; File E:\Proyectos\JuegosOnlineproyectos\PB\pbblow\Piercing Blow Remake\i3Server\include\i3Base\tinyxml.h

; 1782 : 	void SetStreamPrinting()						{ indent = "";

  0000a	8d 4e 10	 lea	 ecx, DWORD PTR [esi+16]
; File E:\Proyectos\JuegosOnlineproyectos\PB\pbblow\Piercing Blow Remake\i3Server\include\i3Base\tinystr.h

; 114  : 		return assign( copy, (size_type)strlen(copy));

  0000d	e8 00 00 00 00	 call	 ?assign@TiXmlString@@QAEAAV1@PBDI@Z ; TiXmlString::assign
  00012	6a 00		 push	 0
  00014	68 00 00 00 00	 push	 OFFSET ??_C@_00CNPNBAHC@@
; File E:\Proyectos\JuegosOnlineproyectos\PB\pbblow\Piercing Blow Remake\i3Server\include\i3Base\tinyxml.h

; 1783 : 													  lineBreak = "";

  00019	8d 4e 14	 lea	 ecx, DWORD PTR [esi+20]
; File E:\Proyectos\JuegosOnlineproyectos\PB\pbblow\Piercing Blow Remake\i3Server\include\i3Base\tinystr.h

; 114  : 		return assign( copy, (size_type)strlen(copy));

  0001c	e8 00 00 00 00	 call	 ?assign@TiXmlString@@QAEAAV1@PBDI@Z ; TiXmlString::assign
  00021	5e		 pop	 esi
; File E:\Proyectos\JuegosOnlineproyectos\PB\pbblow\Piercing Blow Remake\i3Server\include\i3Base\tinyxml.h

; 1784 : 													}	

  00022	c3		 ret	 0
?SetStreamPrinting@TiXmlPrinter@@QAEXXZ ENDP		; TiXmlPrinter::SetStreamPrinting
_TEXT	ENDS
; Function compile flags: /Ogtp
; File E:\Proyectos\JuegosOnlineproyectos\PB\pbblow\Piercing Blow Remake\i3Server\include\i3Base\tinyxml.h
; File E:\Proyectos\JuegosOnlineproyectos\PB\pbblow\Piercing Blow Remake\i3Server\include\i3Base\tinystr.h
; File E:\Proyectos\JuegosOnlineproyectos\PB\pbblow\Piercing Blow Remake\i3Server\include\i3Base\tinyxml.h
;	COMDAT ?LineBreak@TiXmlPrinter@@QAEPBDXZ
_TEXT	SEGMENT
?LineBreak@TiXmlPrinter@@QAEPBDXZ PROC			; TiXmlPrinter::LineBreak, COMDAT
; _this$ = ecx
; File E:\Proyectos\JuegosOnlineproyectos\PB\pbblow\Piercing Blow Remake\i3Server\include\i3Base\tinystr.h

; 144  : 	const char * c_str () const { return rep_->str; }

  00000	8b 41 14	 mov	 eax, DWORD PTR [ecx+20]
  00003	83 c0 08	 add	 eax, 8
; File E:\Proyectos\JuegosOnlineproyectos\PB\pbblow\Piercing Blow Remake\i3Server\include\i3Base\tinyxml.h

; 1777 : 	const char* LineBreak()							{ return lineBreak.c_str(); }

  00006	c3		 ret	 0
?LineBreak@TiXmlPrinter@@QAEPBDXZ ENDP			; TiXmlPrinter::LineBreak
_TEXT	ENDS
; Function compile flags: /Ogtp
; File E:\Proyectos\JuegosOnlineproyectos\PB\pbblow\Piercing Blow Remake\i3Server\include\i3Base\tinyxml.h
; File E:\Proyectos\JuegosOnlineproyectos\PB\pbblow\Piercing Blow Remake\i3Server\include\i3Base\tinystr.h
; File E:\Proyectos\JuegosOnlineproyectos\PB\pbblow\Piercing Blow Remake\i3Server\include\i3Base\tinyxml.h
; File E:\Proyectos\JuegosOnlineproyectos\PB\pbblow\Piercing Blow Remake\i3Server\include\i3Base\tinystr.h
; File E:\Proyectos\JuegosOnlineproyectos\PB\pbblow\Piercing Blow Remake\i3Server\include\i3Base\tinyxml.h
; File E:\Proyectos\JuegosOnlineproyectos\PB\pbblow\Piercing Blow Remake\i3Server\include\i3Base\tinystr.h
; File E:\Proyectos\JuegosOnlineproyectos\PB\pbblow\Piercing Blow Remake\i3Server\include\i3Base\tinyxml.h
;	COMDAT ?SetLineBreak@TiXmlPrinter@@QAEXPBD@Z
_TEXT	SEGMENT
__lineBreak$ = 8					; size = 4
?SetLineBreak@TiXmlPrinter@@QAEXPBD@Z PROC		; TiXmlPrinter::SetLineBreak, COMDAT
; _this$ = ecx

; 1775 : 	void SetLineBreak( const char* _lineBreak )		{ lineBreak = _lineBreak ? _lineBreak : ""; }

  00000	55		 push	 ebp
  00001	8b ec		 mov	 ebp, esp
  00003	8b 45 08	 mov	 eax, DWORD PTR __lineBreak$[ebp]
  00006	ba 00 00 00 00	 mov	 edx, OFFSET ??_C@_00CNPNBAHC@@
  0000b	85 c0		 test	 eax, eax
  0000d	56		 push	 esi
  0000e	0f 45 d0	 cmovne	 edx, eax
  00011	8b f1		 mov	 esi, ecx
; File E:\Proyectos\JuegosOnlineproyectos\PB\pbblow\Piercing Blow Remake\i3Server\include\i3Base\tinystr.h

; 114  : 		return assign( copy, (size_type)strlen(copy));

  00013	8b c2		 mov	 eax, edx
; File E:\Proyectos\JuegosOnlineproyectos\PB\pbblow\Piercing Blow Remake\i3Server\include\i3Base\tinyxml.h

; 1775 : 	void SetLineBreak( const char* _lineBreak )		{ lineBreak = _lineBreak ? _lineBreak : ""; }

  00015	57		 push	 edi
; File E:\Proyectos\JuegosOnlineproyectos\PB\pbblow\Piercing Blow Remake\i3Server\include\i3Base\tinystr.h

; 114  : 		return assign( copy, (size_type)strlen(copy));

  00016	8d 78 01	 lea	 edi, DWORD PTR [eax+1]
  00019	8d a4 24 00 00
	00 00		 npad	 7
$LL5@SetLineBre:
  00020	8a 08		 mov	 cl, BYTE PTR [eax]
  00022	40		 inc	 eax
  00023	84 c9		 test	 cl, cl
  00025	75 f9		 jne	 SHORT $LL5@SetLineBre
  00027	2b c7		 sub	 eax, edi
; File E:\Proyectos\JuegosOnlineproyectos\PB\pbblow\Piercing Blow Remake\i3Server\include\i3Base\tinyxml.h

; 1775 : 	void SetLineBreak( const char* _lineBreak )		{ lineBreak = _lineBreak ? _lineBreak : ""; }

  00029	8d 4e 14	 lea	 ecx, DWORD PTR [esi+20]
; File E:\Proyectos\JuegosOnlineproyectos\PB\pbblow\Piercing Blow Remake\i3Server\include\i3Base\tinystr.h

; 114  : 		return assign( copy, (size_type)strlen(copy));

  0002c	50		 push	 eax
  0002d	52		 push	 edx
  0002e	e8 00 00 00 00	 call	 ?assign@TiXmlString@@QAEAAV1@PBDI@Z ; TiXmlString::assign
  00033	5f		 pop	 edi
  00034	5e		 pop	 esi
; File E:\Proyectos\JuegosOnlineproyectos\PB\pbblow\Piercing Blow Remake\i3Server\include\i3Base\tinyxml.h

; 1775 : 	void SetLineBreak( const char* _lineBreak )		{ lineBreak = _lineBreak ? _lineBreak : ""; }

  00035	5d		 pop	 ebp
  00036	c2 04 00	 ret	 4
?SetLineBreak@TiXmlPrinter@@QAEXPBD@Z ENDP		; TiXmlPrinter::SetLineBreak
_TEXT	ENDS
; Function compile flags: /Ogtp
; File E:\Proyectos\JuegosOnlineproyectos\PB\pbblow\Piercing Blow Remake\i3Server\include\i3Base\tinyxml.h
; File E:\Proyectos\JuegosOnlineproyectos\PB\pbblow\Piercing Blow Remake\i3Server\include\i3Base\tinystr.h
; File E:\Proyectos\JuegosOnlineproyectos\PB\pbblow\Piercing Blow Remake\i3Server\include\i3Base\tinyxml.h
;	COMDAT ?Indent@TiXmlPrinter@@QAEPBDXZ
_TEXT	SEGMENT
?Indent@TiXmlPrinter@@QAEPBDXZ PROC			; TiXmlPrinter::Indent, COMDAT
; _this$ = ecx
; File E:\Proyectos\JuegosOnlineproyectos\PB\pbblow\Piercing Blow Remake\i3Server\include\i3Base\tinystr.h

; 144  : 	const char * c_str () const { return rep_->str; }

  00000	8b 41 10	 mov	 eax, DWORD PTR [ecx+16]
  00003	83 c0 08	 add	 eax, 8
; File E:\Proyectos\JuegosOnlineproyectos\PB\pbblow\Piercing Blow Remake\i3Server\include\i3Base\tinyxml.h

; 1770 : 	const char* Indent()							{ return indent.c_str(); }

  00006	c3		 ret	 0
?Indent@TiXmlPrinter@@QAEPBDXZ ENDP			; TiXmlPrinter::Indent
_TEXT	ENDS
; Function compile flags: /Ogtp
; File E:\Proyectos\JuegosOnlineproyectos\PB\pbblow\Piercing Blow Remake\i3Server\include\i3Base\tinyxml.h
; File E:\Proyectos\JuegosOnlineproyectos\PB\pbblow\Piercing Blow Remake\i3Server\include\i3Base\tinystr.h
; File E:\Proyectos\JuegosOnlineproyectos\PB\pbblow\Piercing Blow Remake\i3Server\include\i3Base\tinyxml.h
; File E:\Proyectos\JuegosOnlineproyectos\PB\pbblow\Piercing Blow Remake\i3Server\include\i3Base\tinystr.h
; File E:\Proyectos\JuegosOnlineproyectos\PB\pbblow\Piercing Blow Remake\i3Server\include\i3Base\tinyxml.h
; File E:\Proyectos\JuegosOnlineproyectos\PB\pbblow\Piercing Blow Remake\i3Server\include\i3Base\tinystr.h
; File E:\Proyectos\JuegosOnlineproyectos\PB\pbblow\Piercing Blow Remake\i3Server\include\i3Base\tinyxml.h
;	COMDAT ?SetIndent@TiXmlPrinter@@QAEXPBD@Z
_TEXT	SEGMENT
__indent$ = 8						; size = 4
?SetIndent@TiXmlPrinter@@QAEXPBD@Z PROC			; TiXmlPrinter::SetIndent, COMDAT
; _this$ = ecx

; 1768 : 	void SetIndent( const char* _indent )			{ indent = _indent ? _indent : "" ; }

  00000	55		 push	 ebp
  00001	8b ec		 mov	 ebp, esp
  00003	8b 45 08	 mov	 eax, DWORD PTR __indent$[ebp]
  00006	ba 00 00 00 00	 mov	 edx, OFFSET ??_C@_00CNPNBAHC@@
  0000b	85 c0		 test	 eax, eax
  0000d	56		 push	 esi
  0000e	0f 45 d0	 cmovne	 edx, eax
  00011	8b f1		 mov	 esi, ecx
; File E:\Proyectos\JuegosOnlineproyectos\PB\pbblow\Piercing Blow Remake\i3Server\include\i3Base\tinystr.h

; 114  : 		return assign( copy, (size_type)strlen(copy));

  00013	8b c2		 mov	 eax, edx
; File E:\Proyectos\JuegosOnlineproyectos\PB\pbblow\Piercing Blow Remake\i3Server\include\i3Base\tinyxml.h

; 1768 : 	void SetIndent( const char* _indent )			{ indent = _indent ? _indent : "" ; }

  00015	57		 push	 edi
; File E:\Proyectos\JuegosOnlineproyectos\PB\pbblow\Piercing Blow Remake\i3Server\include\i3Base\tinystr.h

; 114  : 		return assign( copy, (size_type)strlen(copy));

  00016	8d 78 01	 lea	 edi, DWORD PTR [eax+1]
  00019	8d a4 24 00 00
	00 00		 npad	 7
$LL5@SetIndent:
  00020	8a 08		 mov	 cl, BYTE PTR [eax]
  00022	40		 inc	 eax
  00023	84 c9		 test	 cl, cl
  00025	75 f9		 jne	 SHORT $LL5@SetIndent
  00027	2b c7		 sub	 eax, edi
; File E:\Proyectos\JuegosOnlineproyectos\PB\pbblow\Piercing Blow Remake\i3Server\include\i3Base\tinyxml.h

; 1768 : 	void SetIndent( const char* _indent )			{ indent = _indent ? _indent : "" ; }

  00029	8d 4e 10	 lea	 ecx, DWORD PTR [esi+16]
; File E:\Proyectos\JuegosOnlineproyectos\PB\pbblow\Piercing Blow Remake\i3Server\include\i3Base\tinystr.h

; 114  : 		return assign( copy, (size_type)strlen(copy));

  0002c	50		 push	 eax
  0002d	52		 push	 edx
  0002e	e8 00 00 00 00	 call	 ?assign@TiXmlString@@QAEAAV1@PBDI@Z ; TiXmlString::assign
  00033	5f		 pop	 edi
  00034	5e		 pop	 esi
; File E:\Proyectos\JuegosOnlineproyectos\PB\pbblow\Piercing Blow Remake\i3Server\include\i3Base\tinyxml.h

; 1768 : 	void SetIndent( const char* _indent )			{ indent = _indent ? _indent : "" ; }

  00035	5d		 pop	 ebp
  00036	c2 04 00	 ret	 4
?SetIndent@TiXmlPrinter@@QAEXPBD@Z ENDP			; TiXmlPrinter::SetIndent
_TEXT	ENDS
; Function compile flags: /Ogtp
; File E:\Proyectos\JuegosOnlineproyectos\PB\pbblow\Piercing Blow Remake\i3Server\src\i3Base\tinyxml.cpp
; File E:\Proyectos\JuegosOnlineproyectos\PB\pbblow\Piercing Blow Remake\i3Server\include\i3Base\tinyxml.h
; File E:\Proyectos\JuegosOnlineproyectos\PB\pbblow\Piercing Blow Remake\i3Server\include\i3Base\tinystr.h
; File E:\Proyectos\JuegosOnlineproyectos\PB\pbblow\Piercing Blow Remake\i3Server\include\i3Base\tinyxml.h
; File E:\Proyectos\JuegosOnlineproyectos\PB\pbblow\Piercing Blow Remake\i3Server\include\i3Base\tinystr.h
; File E:\Proyectos\JuegosOnlineproyectos\PB\pbblow\Piercing Blow Remake\i3Server\include\i3Base\tinyxml.h
; File E:\Proyectos\JuegosOnlineproyectos\PB\pbblow\Piercing Blow Remake\i3Server\include\i3Base\tinystr.h
; File E:\Proyectos\JuegosOnlineproyectos\PB\pbblow\Piercing Blow Remake\i3Server\src\i3Base\tinyxml.cpp
;	COMDAT ?Visit@TiXmlPrinter@@UAE_NABVTiXmlUnknown@@@Z
_TEXT	SEGMENT
_unknown$ = 8						; size = 4
?Visit@TiXmlPrinter@@UAE_NABVTiXmlUnknown@@@Z PROC	; TiXmlPrinter::Visit, COMDAT
; _this$ = ecx

; 1985 : {

  00000	55		 push	 ebp
  00001	8b ec		 mov	 ebp, esp
  00003	53		 push	 ebx
  00004	56		 push	 esi
  00005	8b f1		 mov	 esi, ecx
  00007	57		 push	 edi
; File E:\Proyectos\JuegosOnlineproyectos\PB\pbblow\Piercing Blow Remake\i3Server\include\i3Base\tinyxml.h

; 1797 : 		for( int i=0; i<depth; ++i )

  00008	33 ff		 xor	 edi, edi
  0000a	39 7e 04	 cmp	 DWORD PTR [esi+4], edi
  0000d	7e 1c		 jle	 SHORT $LN35@Visit
  0000f	90		 npad	 1
$LL6@Visit:
; File E:\Proyectos\JuegosOnlineproyectos\PB\pbblow\Piercing Blow Remake\i3Server\include\i3Base\tinystr.h

; 150  : 	size_type length () const { return rep_->size; }

  00010	8b 46 10	 mov	 eax, DWORD PTR [esi+16]
; File E:\Proyectos\JuegosOnlineproyectos\PB\pbblow\Piercing Blow Remake\i3Server\include\i3Base\tinyxml.h

; 1798 : 			buffer += indent;

  00013	8d 5e 0c	 lea	 ebx, DWORD PTR [esi+12]
; File E:\Proyectos\JuegosOnlineproyectos\PB\pbblow\Piercing Blow Remake\i3Server\include\i3Base\tinystr.h

; 139  : 		return append(suffix.data(), suffix.length());

  00016	8b cb		 mov	 ecx, ebx
  00018	ff 30		 push	 DWORD PTR [eax]

; 147  : 	const char * data () const { return rep_->str; }

  0001a	83 c0 08	 add	 eax, 8

; 139  : 		return append(suffix.data(), suffix.length());

  0001d	50		 push	 eax
  0001e	e8 00 00 00 00	 call	 ?append@TiXmlString@@QAEAAV1@PBDI@Z ; TiXmlString::append
; File E:\Proyectos\JuegosOnlineproyectos\PB\pbblow\Piercing Blow Remake\i3Server\include\i3Base\tinyxml.h

; 1797 : 		for( int i=0; i<depth; ++i )

  00023	47		 inc	 edi
  00024	3b 7e 04	 cmp	 edi, DWORD PTR [esi+4]
  00027	7c e7		 jl	 SHORT $LL6@Visit
  00029	eb 03		 jmp	 SHORT $LN5@Visit
$LN35@Visit:
  0002b	8d 5e 0c	 lea	 ebx, DWORD PTR [esi+12]
$LN5@Visit:
; File E:\Proyectos\JuegosOnlineproyectos\PB\pbblow\Piercing Blow Remake\i3Server\include\i3Base\tinystr.h

; 127  : 		return append(suffix, static_cast<size_type>( strlen(suffix) ));

  0002e	6a 01		 push	 1
  00030	68 00 00 00 00	 push	 OFFSET ??_C@_01MNNFJEPP@?$DM@
  00035	8b cb		 mov	 ecx, ebx
  00037	e8 00 00 00 00	 call	 ?append@TiXmlString@@QAEAAV1@PBDI@Z ; TiXmlString::append

; 144  : 	const char * c_str () const { return rep_->str; }

  0003c	8b 45 08	 mov	 eax, DWORD PTR _unknown$[ebp]
  0003f	8b 50 20	 mov	 edx, DWORD PTR [eax+32]
  00042	83 c2 08	 add	 edx, 8

; 127  : 		return append(suffix, static_cast<size_type>( strlen(suffix) ));

  00045	8b ca		 mov	 ecx, edx
  00047	8d 79 01	 lea	 edi, DWORD PTR [ecx+1]
  0004a	8d 9b 00 00 00
	00		 npad	 6
$LL37@Visit:
  00050	8a 01		 mov	 al, BYTE PTR [ecx]
  00052	41		 inc	 ecx
  00053	84 c0		 test	 al, al
  00055	75 f9		 jne	 SHORT $LL37@Visit
  00057	2b cf		 sub	 ecx, edi
  00059	51		 push	 ecx
  0005a	52		 push	 edx
  0005b	8b cb		 mov	 ecx, ebx
  0005d	e8 00 00 00 00	 call	 ?append@TiXmlString@@QAEAAV1@PBDI@Z ; TiXmlString::append
  00062	6a 01		 push	 1
  00064	68 00 00 00 00	 push	 OFFSET ??_C@_01PPODPGHN@?$DO@
  00069	8b cb		 mov	 ecx, ebx
  0006b	e8 00 00 00 00	 call	 ?append@TiXmlString@@QAEAAV1@PBDI@Z ; TiXmlString::append

; 150  : 	size_type length () const { return rep_->size; }

  00070	8b 46 14	 mov	 eax, DWORD PTR [esi+20]

; 139  : 		return append(suffix.data(), suffix.length());

  00073	8b cb		 mov	 ecx, ebx
  00075	ff 30		 push	 DWORD PTR [eax]

; 147  : 	const char * data () const { return rep_->str; }

  00077	83 c0 08	 add	 eax, 8

; 139  : 		return append(suffix.data(), suffix.length());

  0007a	50		 push	 eax
  0007b	e8 00 00 00 00	 call	 ?append@TiXmlString@@QAEAAV1@PBDI@Z ; TiXmlString::append
; File E:\Proyectos\JuegosOnlineproyectos\PB\pbblow\Piercing Blow Remake\i3Server\src\i3Base\tinyxml.cpp

; 1991 : 	return true;

  00080	5f		 pop	 edi
  00081	5e		 pop	 esi
  00082	b0 01		 mov	 al, 1
  00084	5b		 pop	 ebx

; 1992 : }

  00085	5d		 pop	 ebp
  00086	c2 04 00	 ret	 4
?Visit@TiXmlPrinter@@UAE_NABVTiXmlUnknown@@@Z ENDP	; TiXmlPrinter::Visit
_TEXT	ENDS
; Function compile flags: /Ogtp
; File E:\Proyectos\JuegosOnlineproyectos\PB\pbblow\Piercing Blow Remake\i3Server\src\i3Base\tinyxml.cpp
; File E:\Proyectos\JuegosOnlineproyectos\PB\pbblow\Piercing Blow Remake\i3Server\include\i3Base\tinyxml.h
; File E:\Proyectos\JuegosOnlineproyectos\PB\pbblow\Piercing Blow Remake\i3Server\include\i3Base\tinystr.h
; File E:\Proyectos\JuegosOnlineproyectos\PB\pbblow\Piercing Blow Remake\i3Server\include\i3Base\tinyxml.h
; File E:\Proyectos\JuegosOnlineproyectos\PB\pbblow\Piercing Blow Remake\i3Server\include\i3Base\tinystr.h
; File E:\Proyectos\JuegosOnlineproyectos\PB\pbblow\Piercing Blow Remake\i3Server\include\i3Base\tinyxml.h
; File E:\Proyectos\JuegosOnlineproyectos\PB\pbblow\Piercing Blow Remake\i3Server\include\i3Base\tinystr.h
; File E:\Proyectos\JuegosOnlineproyectos\PB\pbblow\Piercing Blow Remake\i3Server\src\i3Base\tinyxml.cpp
;	COMDAT ?Visit@TiXmlPrinter@@UAE_NABVTiXmlComment@@@Z
_TEXT	SEGMENT
_comment$ = 8						; size = 4
?Visit@TiXmlPrinter@@UAE_NABVTiXmlComment@@@Z PROC	; TiXmlPrinter::Visit, COMDAT
; _this$ = ecx

; 1974 : {

  00000	55		 push	 ebp
  00001	8b ec		 mov	 ebp, esp
  00003	53		 push	 ebx
  00004	56		 push	 esi
  00005	8b f1		 mov	 esi, ecx
  00007	57		 push	 edi
; File E:\Proyectos\JuegosOnlineproyectos\PB\pbblow\Piercing Blow Remake\i3Server\include\i3Base\tinyxml.h

; 1797 : 		for( int i=0; i<depth; ++i )

  00008	33 ff		 xor	 edi, edi
  0000a	39 7e 04	 cmp	 DWORD PTR [esi+4], edi
  0000d	7e 1c		 jle	 SHORT $LN35@Visit
  0000f	90		 npad	 1
$LL6@Visit:
; File E:\Proyectos\JuegosOnlineproyectos\PB\pbblow\Piercing Blow Remake\i3Server\include\i3Base\tinystr.h

; 150  : 	size_type length () const { return rep_->size; }

  00010	8b 46 10	 mov	 eax, DWORD PTR [esi+16]
; File E:\Proyectos\JuegosOnlineproyectos\PB\pbblow\Piercing Blow Remake\i3Server\include\i3Base\tinyxml.h

; 1798 : 			buffer += indent;

  00013	8d 5e 0c	 lea	 ebx, DWORD PTR [esi+12]
; File E:\Proyectos\JuegosOnlineproyectos\PB\pbblow\Piercing Blow Remake\i3Server\include\i3Base\tinystr.h

; 139  : 		return append(suffix.data(), suffix.length());

  00016	8b cb		 mov	 ecx, ebx
  00018	ff 30		 push	 DWORD PTR [eax]

; 147  : 	const char * data () const { return rep_->str; }

  0001a	83 c0 08	 add	 eax, 8

; 139  : 		return append(suffix.data(), suffix.length());

  0001d	50		 push	 eax
  0001e	e8 00 00 00 00	 call	 ?append@TiXmlString@@QAEAAV1@PBDI@Z ; TiXmlString::append
; File E:\Proyectos\JuegosOnlineproyectos\PB\pbblow\Piercing Blow Remake\i3Server\include\i3Base\tinyxml.h

; 1797 : 		for( int i=0; i<depth; ++i )

  00023	47		 inc	 edi
  00024	3b 7e 04	 cmp	 edi, DWORD PTR [esi+4]
  00027	7c e7		 jl	 SHORT $LL6@Visit
  00029	eb 03		 jmp	 SHORT $LN5@Visit
$LN35@Visit:
  0002b	8d 5e 0c	 lea	 ebx, DWORD PTR [esi+12]
$LN5@Visit:
; File E:\Proyectos\JuegosOnlineproyectos\PB\pbblow\Piercing Blow Remake\i3Server\include\i3Base\tinystr.h

; 127  : 		return append(suffix, static_cast<size_type>( strlen(suffix) ));

  0002e	6a 04		 push	 4
  00030	68 00 00 00 00	 push	 OFFSET ??_C@_04FFDNBKGC@?$DM?$CB?9?9@
  00035	8b cb		 mov	 ecx, ebx
  00037	e8 00 00 00 00	 call	 ?append@TiXmlString@@QAEAAV1@PBDI@Z ; TiXmlString::append

; 144  : 	const char * c_str () const { return rep_->str; }

  0003c	8b 45 08	 mov	 eax, DWORD PTR _comment$[ebp]
  0003f	8b 50 20	 mov	 edx, DWORD PTR [eax+32]
  00042	83 c2 08	 add	 edx, 8

; 127  : 		return append(suffix, static_cast<size_type>( strlen(suffix) ));

  00045	8b ca		 mov	 ecx, edx
  00047	8d 79 01	 lea	 edi, DWORD PTR [ecx+1]
  0004a	8d 9b 00 00 00
	00		 npad	 6
$LL37@Visit:
  00050	8a 01		 mov	 al, BYTE PTR [ecx]
  00052	41		 inc	 ecx
  00053	84 c0		 test	 al, al
  00055	75 f9		 jne	 SHORT $LL37@Visit
  00057	2b cf		 sub	 ecx, edi
  00059	51		 push	 ecx
  0005a	52		 push	 edx
  0005b	8b cb		 mov	 ecx, ebx
  0005d	e8 00 00 00 00	 call	 ?append@TiXmlString@@QAEAAV1@PBDI@Z ; TiXmlString::append
  00062	6a 03		 push	 3
  00064	68 00 00 00 00	 push	 OFFSET ??_C@_03PNLDJJMO@?9?9?$DO@
  00069	8b cb		 mov	 ecx, ebx
  0006b	e8 00 00 00 00	 call	 ?append@TiXmlString@@QAEAAV1@PBDI@Z ; TiXmlString::append

; 150  : 	size_type length () const { return rep_->size; }

  00070	8b 46 14	 mov	 eax, DWORD PTR [esi+20]

; 139  : 		return append(suffix.data(), suffix.length());

  00073	8b cb		 mov	 ecx, ebx
  00075	ff 30		 push	 DWORD PTR [eax]

; 147  : 	const char * data () const { return rep_->str; }

  00077	83 c0 08	 add	 eax, 8

; 139  : 		return append(suffix.data(), suffix.length());

  0007a	50		 push	 eax
  0007b	e8 00 00 00 00	 call	 ?append@TiXmlString@@QAEAAV1@PBDI@Z ; TiXmlString::append
; File E:\Proyectos\JuegosOnlineproyectos\PB\pbblow\Piercing Blow Remake\i3Server\src\i3Base\tinyxml.cpp

; 1980 : 	return true;

  00080	5f		 pop	 edi
  00081	5e		 pop	 esi
  00082	b0 01		 mov	 al, 1
  00084	5b		 pop	 ebx

; 1981 : }

  00085	5d		 pop	 ebp
  00086	c2 04 00	 ret	 4
?Visit@TiXmlPrinter@@UAE_NABVTiXmlComment@@@Z ENDP	; TiXmlPrinter::Visit
_TEXT	ENDS
; Function compile flags: /Ogtp
; File E:\Proyectos\JuegosOnlineproyectos\PB\pbblow\Piercing Blow Remake\i3Server\src\i3Base\tinyxml.cpp
; File E:\Proyectos\JuegosOnlineproyectos\PB\pbblow\Piercing Blow Remake\i3Server\include\i3Base\tinyxml.h
; File E:\Proyectos\JuegosOnlineproyectos\PB\pbblow\Piercing Blow Remake\i3Server\include\i3Base\tinystr.h
; File E:\Proyectos\JuegosOnlineproyectos\PB\pbblow\Piercing Blow Remake\i3Server\include\i3Base\tinyxml.h
; File E:\Proyectos\JuegosOnlineproyectos\PB\pbblow\Piercing Blow Remake\i3Server\include\i3Base\tinystr.h
; File E:\Proyectos\JuegosOnlineproyectos\PB\pbblow\Piercing Blow Remake\i3Server\include\i3Base\tinyxml.h
; File E:\Proyectos\JuegosOnlineproyectos\PB\pbblow\Piercing Blow Remake\i3Server\include\i3Base\tinystr.h
; File E:\Proyectos\JuegosOnlineproyectos\PB\pbblow\Piercing Blow Remake\i3Server\src\i3Base\tinyxml.cpp
; File E:\Proyectos\JuegosOnlineproyectos\PB\pbblow\Piercing Blow Remake\i3Server\include\i3Base\tinystr.h
; File E:\Proyectos\JuegosOnlineproyectos\PB\pbblow\Piercing Blow Remake\i3Server\src\i3Base\tinyxml.cpp
; File E:\Proyectos\JuegosOnlineproyectos\PB\pbblow\Piercing Blow Remake\i3Server\include\i3Base\tinystr.h
; File E:\Proyectos\JuegosOnlineproyectos\PB\pbblow\Piercing Blow Remake\i3Server\src\i3Base\tinyxml.cpp
; File E:\Proyectos\JuegosOnlineproyectos\PB\pbblow\Piercing Blow Remake\i3Server\include\i3Base\tinystr.h
; File E:\Proyectos\JuegosOnlineproyectos\PB\pbblow\Piercing Blow Remake\i3Server\src\i3Base\tinyxml.cpp
; File E:\Proyectos\JuegosOnlineproyectos\PB\pbblow\Piercing Blow Remake\i3Server\include\i3Base\tinyxml.h
; File E:\Proyectos\JuegosOnlineproyectos\PB\pbblow\Piercing Blow Remake\i3Server\include\i3Base\tinystr.h
; File E:\Proyectos\JuegosOnlineproyectos\PB\pbblow\Piercing Blow Remake\i3Server\include\i3Base\tinyxml.h
; File E:\Proyectos\JuegosOnlineproyectos\PB\pbblow\Piercing Blow Remake\i3Server\include\i3Base\tinystr.h
; File E:\Proyectos\JuegosOnlineproyectos\PB\pbblow\Piercing Blow Remake\i3Server\src\i3Base\tinyxml.cpp
; File E:\Proyectos\JuegosOnlineproyectos\PB\pbblow\Piercing Blow Remake\i3Server\include\i3Base\tinystr.h
; File E:\Proyectos\JuegosOnlineproyectos\PB\pbblow\Piercing Blow Remake\i3Server\src\i3Base\tinyxml.cpp
; File E:\Proyectos\JuegosOnlineproyectos\PB\pbblow\Piercing Blow Remake\i3Server\include\i3Base\tinystr.h
; File E:\Proyectos\JuegosOnlineproyectos\PB\pbblow\Piercing Blow Remake\i3Server\src\i3Base\tinyxml.cpp
;	COMDAT ?Visit@TiXmlPrinter@@UAE_NABVTiXmlText@@@Z
_TEXT	SEGMENT
_str$2 = -16						; size = 4
__$EHRec$ = -12						; size = 12
_text$ = 8						; size = 4
_str$3 = 8						; size = 4
?Visit@TiXmlPrinter@@UAE_NABVTiXmlText@@@Z PROC		; TiXmlPrinter::Visit, COMDAT
; _this$ = ecx

; 1937 : {

  00000	55		 push	 ebp
  00001	8b ec		 mov	 ebp, esp
  00003	6a ff		 push	 -1
  00005	68 00 00 00 00	 push	 __ehhandler$?Visit@TiXmlPrinter@@UAE_NABVTiXmlText@@@Z
  0000a	64 a1 00 00 00
	00		 mov	 eax, DWORD PTR fs:0
  00010	50		 push	 eax
  00011	51		 push	 ecx
  00012	53		 push	 ebx
  00013	56		 push	 esi
  00014	57		 push	 edi
  00015	a1 00 00 00 00	 mov	 eax, DWORD PTR ___security_cookie
  0001a	33 c5		 xor	 eax, ebp
  0001c	50		 push	 eax
  0001d	8d 45 f4	 lea	 eax, DWORD PTR __$EHRec$[ebp]
  00020	64 a3 00 00 00
	00		 mov	 DWORD PTR fs:0, eax
  00026	8b f1		 mov	 esi, ecx

; 1938 : 	if ( text.CDATA() )

  00028	8b 45 08	 mov	 eax, DWORD PTR _text$[ebp]
  0002b	80 78 2c 00	 cmp	 BYTE PTR [eax+44], 0
  0002f	74 76		 je	 SHORT $LN2@Visit
; File E:\Proyectos\JuegosOnlineproyectos\PB\pbblow\Piercing Blow Remake\i3Server\include\i3Base\tinyxml.h

; 1797 : 		for( int i=0; i<depth; ++i )

  00031	33 ff		 xor	 edi, edi
  00033	39 7e 04	 cmp	 DWORD PTR [esi+4], edi
  00036	7e 1b		 jle	 SHORT $LN91@Visit
$LL12@Visit:
; File E:\Proyectos\JuegosOnlineproyectos\PB\pbblow\Piercing Blow Remake\i3Server\include\i3Base\tinystr.h

; 150  : 	size_type length () const { return rep_->size; }

  00038	8b 46 10	 mov	 eax, DWORD PTR [esi+16]
; File E:\Proyectos\JuegosOnlineproyectos\PB\pbblow\Piercing Blow Remake\i3Server\include\i3Base\tinyxml.h

; 1798 : 			buffer += indent;

  0003b	8d 5e 0c	 lea	 ebx, DWORD PTR [esi+12]
; File E:\Proyectos\JuegosOnlineproyectos\PB\pbblow\Piercing Blow Remake\i3Server\include\i3Base\tinystr.h

; 139  : 		return append(suffix.data(), suffix.length());

  0003e	8b cb		 mov	 ecx, ebx
  00040	ff 30		 push	 DWORD PTR [eax]

; 147  : 	const char * data () const { return rep_->str; }

  00042	83 c0 08	 add	 eax, 8

; 139  : 		return append(suffix.data(), suffix.length());

  00045	50		 push	 eax
  00046	e8 00 00 00 00	 call	 ?append@TiXmlString@@QAEAAV1@PBDI@Z ; TiXmlString::append
; File E:\Proyectos\JuegosOnlineproyectos\PB\pbblow\Piercing Blow Remake\i3Server\include\i3Base\tinyxml.h

; 1797 : 		for( int i=0; i<depth; ++i )

  0004b	47		 inc	 edi
  0004c	3b 7e 04	 cmp	 edi, DWORD PTR [esi+4]
  0004f	7c e7		 jl	 SHORT $LL12@Visit
  00051	eb 03		 jmp	 SHORT $LN11@Visit
$LN91@Visit:
  00053	8d 5e 0c	 lea	 ebx, DWORD PTR [esi+12]
$LN11@Visit:
; File E:\Proyectos\JuegosOnlineproyectos\PB\pbblow\Piercing Blow Remake\i3Server\include\i3Base\tinystr.h

; 127  : 		return append(suffix, static_cast<size_type>( strlen(suffix) ));

  00056	6a 09		 push	 9
  00058	68 00 00 00 00	 push	 OFFSET ??_C@_09BLLNCBLF@?$DM?$CB?$FLCDATA?$FL@
  0005d	8b cb		 mov	 ecx, ebx
  0005f	e8 00 00 00 00	 call	 ?append@TiXmlString@@QAEAAV1@PBDI@Z ; TiXmlString::append

; 144  : 	const char * c_str () const { return rep_->str; }

  00064	8b 45 08	 mov	 eax, DWORD PTR _text$[ebp]
  00067	8b 50 20	 mov	 edx, DWORD PTR [eax+32]
  0006a	83 c2 08	 add	 edx, 8

; 127  : 		return append(suffix, static_cast<size_type>( strlen(suffix) ));

  0006d	8b ca		 mov	 ecx, edx
  0006f	8d 79 01	 lea	 edi, DWORD PTR [ecx+1]
$LL95@Visit:
  00072	8a 01		 mov	 al, BYTE PTR [ecx]
  00074	41		 inc	 ecx
  00075	84 c0		 test	 al, al
  00077	75 f9		 jne	 SHORT $LL95@Visit
  00079	2b cf		 sub	 ecx, edi
  0007b	51		 push	 ecx
  0007c	52		 push	 edx
  0007d	8b cb		 mov	 ecx, ebx
  0007f	e8 00 00 00 00	 call	 ?append@TiXmlString@@QAEAAV1@PBDI@Z ; TiXmlString::append
  00084	6a 03		 push	 3
  00086	68 00 00 00 00	 push	 OFFSET ??_C@_03MCHNFBAC@?$FN?$FN?$DO@
  0008b	8b cb		 mov	 ecx, ebx
  0008d	e8 00 00 00 00	 call	 ?append@TiXmlString@@QAEAAV1@PBDI@Z ; TiXmlString::append

; 150  : 	size_type length () const { return rep_->size; }

  00092	8b 46 14	 mov	 eax, DWORD PTR [esi+20]

; 139  : 		return append(suffix.data(), suffix.length());

  00095	8b cb		 mov	 ecx, ebx
  00097	ff 30		 push	 DWORD PTR [eax]

; 147  : 	const char * data () const { return rep_->str; }

  00099	83 c0 08	 add	 eax, 8

; 139  : 		return append(suffix.data(), suffix.length());

  0009c	50		 push	 eax
  0009d	e8 00 00 00 00	 call	 ?append@TiXmlString@@QAEAAV1@PBDI@Z ; TiXmlString::append
; File E:\Proyectos\JuegosOnlineproyectos\PB\pbblow\Piercing Blow Remake\i3Server\src\i3Base\tinyxml.cpp

; 1945 : 	}

  000a2	e9 ae 00 00 00	 jmp	 $LN96@Visit
$LN2@Visit:

; 1946 : 	else if ( simpleTextPrint )

  000a7	80 7e 08 00	 cmp	 BYTE PTR [esi+8], 0
  000ab	74 34		 je	 SHORT $LN4@Visit
; File E:\Proyectos\JuegosOnlineproyectos\PB\pbblow\Piercing Blow Remake\i3Server\include\i3Base\tinystr.h

; 80   : 	TiXmlString () : rep_(&nullrep_)

  000ad	c7 45 08 00 00
	00 00		 mov	 DWORD PTR _str$3[ebp], OFFSET ?nullrep_@TiXmlString@@0URep@1@A ; TiXmlString::nullrep_
; File E:\Proyectos\JuegosOnlineproyectos\PB\pbblow\Piercing Blow Remake\i3Server\src\i3Base\tinyxml.cpp

; 1949 : 		TiXmlBase::EncodeString( text.ValueTStr(), &str );

  000b4	8d 4d 08	 lea	 ecx, DWORD PTR _str$3[ebp]
  000b7	c7 45 fc 00 00
	00 00		 mov	 DWORD PTR __$EHRec$[ebp+8], 0
  000be	51		 push	 ecx
  000bf	83 c0 20	 add	 eax, 32			; 00000020H
  000c2	50		 push	 eax
  000c3	e8 00 00 00 00	 call	 ?EncodeString@TiXmlBase@@SAXABVTiXmlString@@PAV2@@Z ; TiXmlBase::EncodeString
; File E:\Proyectos\JuegosOnlineproyectos\PB\pbblow\Piercing Blow Remake\i3Server\include\i3Base\tinystr.h

; 139  : 		return append(suffix.data(), suffix.length());

  000c8	8b 45 08	 mov	 eax, DWORD PTR _str$3[ebp]
  000cb	8d 4e 0c	 lea	 ecx, DWORD PTR [esi+12]
; File E:\Proyectos\JuegosOnlineproyectos\PB\pbblow\Piercing Blow Remake\i3Server\src\i3Base\tinyxml.cpp

; 1949 : 		TiXmlBase::EncodeString( text.ValueTStr(), &str );

  000ce	83 c4 08	 add	 esp, 8
; File E:\Proyectos\JuegosOnlineproyectos\PB\pbblow\Piercing Blow Remake\i3Server\include\i3Base\tinystr.h

; 139  : 		return append(suffix.data(), suffix.length());

  000d1	ff 30		 push	 DWORD PTR [eax]

; 147  : 	const char * data () const { return rep_->str; }

  000d3	83 c0 08	 add	 eax, 8

; 139  : 		return append(suffix.data(), suffix.length());

  000d6	50		 push	 eax
  000d7	e8 00 00 00 00	 call	 ?append@TiXmlString@@QAEAAV1@PBDI@Z ; TiXmlString::append

; 257  : 		if (rep_ != &nullrep_)

  000dc	8b 45 08	 mov	 eax, DWORD PTR _str$3[ebp]
; File E:\Proyectos\JuegosOnlineproyectos\PB\pbblow\Piercing Blow Remake\i3Server\src\i3Base\tinyxml.cpp

; 1951 : 	}

  000df	eb 64		 jmp	 SHORT $LN100@Visit
$LN4@Visit:
; File E:\Proyectos\JuegosOnlineproyectos\PB\pbblow\Piercing Blow Remake\i3Server\include\i3Base\tinyxml.h

; 1797 : 		for( int i=0; i<depth; ++i )

  000e1	33 ff		 xor	 edi, edi
  000e3	39 7e 04	 cmp	 DWORD PTR [esi+4], edi
  000e6	7e 1a		 jle	 SHORT $LN92@Visit
$LL55@Visit:
; File E:\Proyectos\JuegosOnlineproyectos\PB\pbblow\Piercing Blow Remake\i3Server\include\i3Base\tinystr.h

; 150  : 	size_type length () const { return rep_->size; }

  000e8	8b 46 10	 mov	 eax, DWORD PTR [esi+16]

; 139  : 		return append(suffix.data(), suffix.length());

  000eb	8d 4e 0c	 lea	 ecx, DWORD PTR [esi+12]
  000ee	ff 30		 push	 DWORD PTR [eax]

; 147  : 	const char * data () const { return rep_->str; }

  000f0	83 c0 08	 add	 eax, 8

; 139  : 		return append(suffix.data(), suffix.length());

  000f3	50		 push	 eax
  000f4	e8 00 00 00 00	 call	 ?append@TiXmlString@@QAEAAV1@PBDI@Z ; TiXmlString::append
; File E:\Proyectos\JuegosOnlineproyectos\PB\pbblow\Piercing Blow Remake\i3Server\include\i3Base\tinyxml.h

; 1797 : 		for( int i=0; i<depth; ++i )

  000f9	47		 inc	 edi
  000fa	3b 7e 04	 cmp	 edi, DWORD PTR [esi+4]
  000fd	7c e9		 jl	 SHORT $LL55@Visit
  000ff	8b 45 08	 mov	 eax, DWORD PTR _text$[ebp]
$LN92@Visit:
; File E:\Proyectos\JuegosOnlineproyectos\PB\pbblow\Piercing Blow Remake\i3Server\include\i3Base\tinystr.h

; 80   : 	TiXmlString () : rep_(&nullrep_)

  00102	c7 45 f0 00 00
	00 00		 mov	 DWORD PTR _str$2[ebp], OFFSET ?nullrep_@TiXmlString@@0URep@1@A ; TiXmlString::nullrep_
; File E:\Proyectos\JuegosOnlineproyectos\PB\pbblow\Piercing Blow Remake\i3Server\src\i3Base\tinyxml.cpp

; 1956 : 		TiXmlBase::EncodeString( text.ValueTStr(), &str );

  00109	8d 4d f0	 lea	 ecx, DWORD PTR _str$2[ebp]
  0010c	c7 45 fc 01 00
	00 00		 mov	 DWORD PTR __$EHRec$[ebp+8], 1
  00113	51		 push	 ecx
  00114	83 c0 20	 add	 eax, 32			; 00000020H
  00117	50		 push	 eax
  00118	e8 00 00 00 00	 call	 ?EncodeString@TiXmlBase@@SAXABVTiXmlString@@PAV2@@Z ; TiXmlBase::EncodeString
; File E:\Proyectos\JuegosOnlineproyectos\PB\pbblow\Piercing Blow Remake\i3Server\include\i3Base\tinystr.h

; 139  : 		return append(suffix.data(), suffix.length());

  0011d	8b 45 f0	 mov	 eax, DWORD PTR _str$2[ebp]
  00120	8d 4e 0c	 lea	 ecx, DWORD PTR [esi+12]
; File E:\Proyectos\JuegosOnlineproyectos\PB\pbblow\Piercing Blow Remake\i3Server\src\i3Base\tinyxml.cpp

; 1956 : 		TiXmlBase::EncodeString( text.ValueTStr(), &str );

  00123	83 c4 08	 add	 esp, 8
; File E:\Proyectos\JuegosOnlineproyectos\PB\pbblow\Piercing Blow Remake\i3Server\include\i3Base\tinystr.h

; 139  : 		return append(suffix.data(), suffix.length());

  00126	ff 30		 push	 DWORD PTR [eax]

; 147  : 	const char * data () const { return rep_->str; }

  00128	83 c0 08	 add	 eax, 8

; 139  : 		return append(suffix.data(), suffix.length());

  0012b	50		 push	 eax
  0012c	e8 00 00 00 00	 call	 ?append@TiXmlString@@QAEAAV1@PBDI@Z ; TiXmlString::append

; 150  : 	size_type length () const { return rep_->size; }

  00131	8b 46 14	 mov	 eax, DWORD PTR [esi+20]

; 139  : 		return append(suffix.data(), suffix.length());

  00134	8d 4e 0c	 lea	 ecx, DWORD PTR [esi+12]
  00137	ff 30		 push	 DWORD PTR [eax]

; 147  : 	const char * data () const { return rep_->str; }

  00139	83 c0 08	 add	 eax, 8

; 139  : 		return append(suffix.data(), suffix.length());

  0013c	50		 push	 eax
  0013d	e8 00 00 00 00	 call	 ?append@TiXmlString@@QAEAAV1@PBDI@Z ; TiXmlString::append

; 257  : 		if (rep_ != &nullrep_)

  00142	8b 45 f0	 mov	 eax, DWORD PTR _str$2[ebp]
$LN100@Visit:
; File E:\Proyectos\JuegosOnlineproyectos\PB\pbblow\Piercing Blow Remake\i3Server\src\i3Base\tinyxml.cpp

; 1961 : }

  00145	3d 00 00 00 00	 cmp	 eax, OFFSET ?nullrep_@TiXmlString@@0URep@1@A ; TiXmlString::nullrep_
  0014a	74 09		 je	 SHORT $LN96@Visit
  0014c	50		 push	 eax
  0014d	e8 00 00 00 00	 call	 ??_V@YAXPAX@Z		; operator delete[]
  00152	83 c4 04	 add	 esp, 4
$LN96@Visit:
  00155	b0 01		 mov	 al, 1
  00157	8b 4d f4	 mov	 ecx, DWORD PTR __$EHRec$[ebp]
  0015a	64 89 0d 00 00
	00 00		 mov	 DWORD PTR fs:0, ecx
  00161	59		 pop	 ecx
  00162	5f		 pop	 edi
  00163	5e		 pop	 esi
  00164	5b		 pop	 ebx
  00165	8b e5		 mov	 esp, ebp
  00167	5d		 pop	 ebp
  00168	c2 04 00	 ret	 4
_TEXT	ENDS
;	COMDAT text$x
text$x	SEGMENT
__unwindfunclet$?Visit@TiXmlPrinter@@UAE_NABVTiXmlText@@@Z$0:
  00000	8d 4d 08	 lea	 ecx, DWORD PTR _str$3[ebp]
  00003	e9 00 00 00 00	 jmp	 ??1TiXmlString@@QAE@XZ	; TiXmlString::~TiXmlString
__unwindfunclet$?Visit@TiXmlPrinter@@UAE_NABVTiXmlText@@@Z$1:
  00008	8d 4d f0	 lea	 ecx, DWORD PTR _str$2[ebp]
  0000b	e9 00 00 00 00	 jmp	 ??1TiXmlString@@QAE@XZ	; TiXmlString::~TiXmlString
  00010	cc		 int	 3
  00011	cc		 int	 3
  00012	cc		 int	 3
  00013	cc		 int	 3
  00014	cc		 int	 3
__ehhandler$?Visit@TiXmlPrinter@@UAE_NABVTiXmlText@@@Z:
  00015	90		 npad	 1
  00016	90		 npad	 1
  00017	8b 54 24 08	 mov	 edx, DWORD PTR [esp+8]
  0001b	8d 42 0c	 lea	 eax, DWORD PTR [edx+12]
  0001e	8b 4a ec	 mov	 ecx, DWORD PTR [edx-20]
  00021	33 c8		 xor	 ecx, eax
  00023	e8 00 00 00 00	 call	 @__security_check_cookie@4
  00028	b8 00 00 00 00	 mov	 eax, OFFSET __ehfuncinfo$?Visit@TiXmlPrinter@@UAE_NABVTiXmlText@@@Z
  0002d	e9 00 00 00 00	 jmp	 ___CxxFrameHandler3
text$x	ENDS
?Visit@TiXmlPrinter@@UAE_NABVTiXmlText@@@Z ENDP		; TiXmlPrinter::Visit
; Function compile flags: /Ogtp
; File E:\Proyectos\JuegosOnlineproyectos\PB\pbblow\Piercing Blow Remake\i3Server\src\i3Base\tinyxml.cpp
; File E:\Proyectos\JuegosOnlineproyectos\PB\pbblow\Piercing Blow Remake\i3Server\include\i3Base\tinyxml.h
; File E:\Proyectos\JuegosOnlineproyectos\PB\pbblow\Piercing Blow Remake\i3Server\include\i3Base\tinystr.h
; File E:\Proyectos\JuegosOnlineproyectos\PB\pbblow\Piercing Blow Remake\i3Server\include\i3Base\tinyxml.h
; File E:\Proyectos\JuegosOnlineproyectos\PB\pbblow\Piercing Blow Remake\i3Server\include\i3Base\tinystr.h
; File E:\Proyectos\JuegosOnlineproyectos\PB\pbblow\Piercing Blow Remake\i3Server\include\i3Base\tinyxml.h
; File E:\Proyectos\JuegosOnlineproyectos\PB\pbblow\Piercing Blow Remake\i3Server\src\i3Base\tinyxml.cpp
; File E:\Proyectos\JuegosOnlineproyectos\PB\pbblow\Piercing Blow Remake\i3Server\include\i3Base\tinystr.h
; File E:\Proyectos\JuegosOnlineproyectos\PB\pbblow\Piercing Blow Remake\i3Server\src\i3Base\tinyxml.cpp
;	COMDAT ?Visit@TiXmlPrinter@@UAE_NABVTiXmlDeclaration@@@Z
_TEXT	SEGMENT
_declaration$ = 8					; size = 4
?Visit@TiXmlPrinter@@UAE_NABVTiXmlDeclaration@@@Z PROC	; TiXmlPrinter::Visit, COMDAT
; _this$ = ecx

; 1965 : {

  00000	55		 push	 ebp
  00001	8b ec		 mov	 ebp, esp
  00003	53		 push	 ebx
  00004	56		 push	 esi
  00005	8b f1		 mov	 esi, ecx
  00007	57		 push	 edi
; File E:\Proyectos\JuegosOnlineproyectos\PB\pbblow\Piercing Blow Remake\i3Server\include\i3Base\tinyxml.h

; 1797 : 		for( int i=0; i<depth; ++i )

  00008	33 ff		 xor	 edi, edi
  0000a	39 7e 04	 cmp	 DWORD PTR [esi+4], edi
  0000d	7e 1c		 jle	 SHORT $LN25@Visit
  0000f	90		 npad	 1
$LL6@Visit:
; File E:\Proyectos\JuegosOnlineproyectos\PB\pbblow\Piercing Blow Remake\i3Server\include\i3Base\tinystr.h

; 150  : 	size_type length () const { return rep_->size; }

  00010	8b 46 10	 mov	 eax, DWORD PTR [esi+16]
; File E:\Proyectos\JuegosOnlineproyectos\PB\pbblow\Piercing Blow Remake\i3Server\include\i3Base\tinyxml.h

; 1798 : 			buffer += indent;

  00013	8d 5e 0c	 lea	 ebx, DWORD PTR [esi+12]
; File E:\Proyectos\JuegosOnlineproyectos\PB\pbblow\Piercing Blow Remake\i3Server\include\i3Base\tinystr.h

; 139  : 		return append(suffix.data(), suffix.length());

  00016	8b cb		 mov	 ecx, ebx
  00018	ff 30		 push	 DWORD PTR [eax]

; 147  : 	const char * data () const { return rep_->str; }

  0001a	83 c0 08	 add	 eax, 8

; 139  : 		return append(suffix.data(), suffix.length());

  0001d	50		 push	 eax
  0001e	e8 00 00 00 00	 call	 ?append@TiXmlString@@QAEAAV1@PBDI@Z ; TiXmlString::append
; File E:\Proyectos\JuegosOnlineproyectos\PB\pbblow\Piercing Blow Remake\i3Server\include\i3Base\tinyxml.h

; 1797 : 		for( int i=0; i<depth; ++i )

  00023	47		 inc	 edi
  00024	3b 7e 04	 cmp	 edi, DWORD PTR [esi+4]
  00027	7c e7		 jl	 SHORT $LL6@Visit
  00029	eb 03		 jmp	 SHORT $LN5@Visit
$LN25@Visit:
  0002b	8d 5e 0c	 lea	 ebx, DWORD PTR [esi+12]
$LN5@Visit:
; File E:\Proyectos\JuegosOnlineproyectos\PB\pbblow\Piercing Blow Remake\i3Server\src\i3Base\tinyxml.cpp

; 1967 : 	declaration.Print( 0, 0, &buffer );

  0002e	8b 4d 08	 mov	 ecx, DWORD PTR _declaration$[ebp]
  00031	53		 push	 ebx
  00032	6a 00		 push	 0
  00034	6a 00		 push	 0
  00036	8b 01		 mov	 eax, DWORD PTR [ecx]
  00038	ff 50 44	 call	 DWORD PTR [eax+68]
; File E:\Proyectos\JuegosOnlineproyectos\PB\pbblow\Piercing Blow Remake\i3Server\include\i3Base\tinystr.h

; 150  : 	size_type length () const { return rep_->size; }

  0003b	8b 46 14	 mov	 eax, DWORD PTR [esi+20]

; 139  : 		return append(suffix.data(), suffix.length());

  0003e	8b cb		 mov	 ecx, ebx
  00040	ff 30		 push	 DWORD PTR [eax]

; 147  : 	const char * data () const { return rep_->str; }

  00042	83 c0 08	 add	 eax, 8

; 139  : 		return append(suffix.data(), suffix.length());

  00045	50		 push	 eax
  00046	e8 00 00 00 00	 call	 ?append@TiXmlString@@QAEAAV1@PBDI@Z ; TiXmlString::append
; File E:\Proyectos\JuegosOnlineproyectos\PB\pbblow\Piercing Blow Remake\i3Server\src\i3Base\tinyxml.cpp

; 1969 : 	return true;

  0004b	5f		 pop	 edi
  0004c	5e		 pop	 esi
  0004d	b0 01		 mov	 al, 1
  0004f	5b		 pop	 ebx

; 1970 : }

  00050	5d		 pop	 ebp
  00051	c2 04 00	 ret	 4
?Visit@TiXmlPrinter@@UAE_NABVTiXmlDeclaration@@@Z ENDP	; TiXmlPrinter::Visit
_TEXT	ENDS
; Function compile flags: /Ogtp
; File E:\Proyectos\JuegosOnlineproyectos\PB\pbblow\Piercing Blow Remake\i3Server\src\i3Base\tinyxml.cpp
; File E:\Proyectos\JuegosOnlineproyectos\PB\pbblow\Piercing Blow Remake\i3Server\include\i3Base\tinyxml.h
; File E:\Proyectos\JuegosOnlineproyectos\PB\pbblow\Piercing Blow Remake\i3Server\include\i3Base\tinystr.h
; File E:\Proyectos\JuegosOnlineproyectos\PB\pbblow\Piercing Blow Remake\i3Server\include\i3Base\tinyxml.h
; File E:\Proyectos\JuegosOnlineproyectos\PB\pbblow\Piercing Blow Remake\i3Server\include\i3Base\tinystr.h
; File E:\Proyectos\JuegosOnlineproyectos\PB\pbblow\Piercing Blow Remake\i3Server\src\i3Base\tinyxml.cpp
;	COMDAT ?VisitExit@TiXmlPrinter@@UAE_NABVTiXmlElement@@@Z
_TEXT	SEGMENT
_element$ = 8						; size = 4
?VisitExit@TiXmlPrinter@@UAE_NABVTiXmlElement@@@Z PROC	; TiXmlPrinter::VisitExit, COMDAT
; _this$ = ecx

; 1911 : {

  00000	55		 push	 ebp
  00001	8b ec		 mov	 ebp, esp
  00003	56		 push	 esi
  00004	8b f1		 mov	 esi, ecx

; 1912 : 	--depth;
; 1913 : 	if ( !element.FirstChild() ) 

  00006	8b 4d 08	 mov	 ecx, DWORD PTR _element$[ebp]
  00009	8b 46 04	 mov	 eax, DWORD PTR [esi+4]
  0000c	48		 dec	 eax
  0000d	89 46 04	 mov	 DWORD PTR [esi+4], eax
  00010	83 79 18 00	 cmp	 DWORD PTR [ecx+24], 0
  00014	0f 84 7f 00 00
	00		 je	 $LN41@VisitExit

; 1914 : 	{
; 1915 : 		// nothing.
; 1916 : 	}
; 1917 : 	else 
; 1918 : 	{
; 1919 : 		if ( simpleTextPrint )

  0001a	80 7e 08 00	 cmp	 BYTE PTR [esi+8], 0
  0001e	53		 push	 ebx
  0001f	57		 push	 edi
  00020	74 06		 je	 SHORT $LN4@VisitExit

; 1920 : 		{
; 1921 : 			simpleTextPrint = false;

  00022	c6 46 08 00	 mov	 BYTE PTR [esi+8], 0

; 1922 : 		}

  00026	eb 1f		 jmp	 SHORT $LN9@VisitExit
$LN4@VisitExit:
; File E:\Proyectos\JuegosOnlineproyectos\PB\pbblow\Piercing Blow Remake\i3Server\include\i3Base\tinyxml.h

; 1797 : 		for( int i=0; i<depth; ++i )

  00028	33 ff		 xor	 edi, edi
  0002a	85 c0		 test	 eax, eax
  0002c	7e 19		 jle	 SHORT $LN9@VisitExit
  0002e	8b ff		 npad	 2
$LL10@VisitExit:
; File E:\Proyectos\JuegosOnlineproyectos\PB\pbblow\Piercing Blow Remake\i3Server\include\i3Base\tinystr.h

; 150  : 	size_type length () const { return rep_->size; }

  00030	8b 46 10	 mov	 eax, DWORD PTR [esi+16]

; 139  : 		return append(suffix.data(), suffix.length());

  00033	8d 4e 0c	 lea	 ecx, DWORD PTR [esi+12]
  00036	ff 30		 push	 DWORD PTR [eax]

; 147  : 	const char * data () const { return rep_->str; }

  00038	83 c0 08	 add	 eax, 8

; 139  : 		return append(suffix.data(), suffix.length());

  0003b	50		 push	 eax
  0003c	e8 00 00 00 00	 call	 ?append@TiXmlString@@QAEAAV1@PBDI@Z ; TiXmlString::append
; File E:\Proyectos\JuegosOnlineproyectos\PB\pbblow\Piercing Blow Remake\i3Server\include\i3Base\tinyxml.h

; 1797 : 		for( int i=0; i<depth; ++i )

  00041	47		 inc	 edi
  00042	3b 7e 04	 cmp	 edi, DWORD PTR [esi+4]
  00045	7c e9		 jl	 SHORT $LL10@VisitExit
$LN9@VisitExit:
; File E:\Proyectos\JuegosOnlineproyectos\PB\pbblow\Piercing Blow Remake\i3Server\include\i3Base\tinystr.h

; 127  : 		return append(suffix, static_cast<size_type>( strlen(suffix) ));

  00047	6a 02		 push	 2
  00049	68 00 00 00 00	 push	 OFFSET ??_C@_02DPNDACHE@?$DM?1@
  0004e	8d 4e 0c	 lea	 ecx, DWORD PTR [esi+12]
  00051	e8 00 00 00 00	 call	 ?append@TiXmlString@@QAEAAV1@PBDI@Z ; TiXmlString::append

; 144  : 	const char * c_str () const { return rep_->str; }

  00056	8b 45 08	 mov	 eax, DWORD PTR _element$[ebp]
  00059	8b 50 20	 mov	 edx, DWORD PTR [eax+32]
  0005c	83 c2 08	 add	 edx, 8

; 127  : 		return append(suffix, static_cast<size_type>( strlen(suffix) ));

  0005f	8b ca		 mov	 ecx, edx
  00061	8d 59 01	 lea	 ebx, DWORD PTR [ecx+1]
$LL40@VisitExit:
  00064	8a 01		 mov	 al, BYTE PTR [ecx]
  00066	41		 inc	 ecx
  00067	84 c0		 test	 al, al
  00069	75 f9		 jne	 SHORT $LL40@VisitExit
  0006b	2b cb		 sub	 ecx, ebx
  0006d	51		 push	 ecx
  0006e	52		 push	 edx
  0006f	8d 4e 0c	 lea	 ecx, DWORD PTR [esi+12]
  00072	e8 00 00 00 00	 call	 ?append@TiXmlString@@QAEAAV1@PBDI@Z ; TiXmlString::append
  00077	6a 01		 push	 1
  00079	68 00 00 00 00	 push	 OFFSET ??_C@_01PPODPGHN@?$DO@
  0007e	8d 4e 0c	 lea	 ecx, DWORD PTR [esi+12]
  00081	e8 00 00 00 00	 call	 ?append@TiXmlString@@QAEAAV1@PBDI@Z ; TiXmlString::append

; 150  : 	size_type length () const { return rep_->size; }

  00086	8b 46 14	 mov	 eax, DWORD PTR [esi+20]

; 139  : 		return append(suffix.data(), suffix.length());

  00089	8d 4e 0c	 lea	 ecx, DWORD PTR [esi+12]
  0008c	ff 30		 push	 DWORD PTR [eax]

; 147  : 	const char * data () const { return rep_->str; }

  0008e	83 c0 08	 add	 eax, 8

; 139  : 		return append(suffix.data(), suffix.length());

  00091	50		 push	 eax
  00092	e8 00 00 00 00	 call	 ?append@TiXmlString@@QAEAAV1@PBDI@Z ; TiXmlString::append
; File E:\Proyectos\JuegosOnlineproyectos\PB\pbblow\Piercing Blow Remake\i3Server\src\i3Base\tinyxml.cpp

; 1932 : 	return true;

  00097	5f		 pop	 edi
  00098	5b		 pop	 ebx
$LN41@VisitExit:

; 1933 : }

  00099	b0 01		 mov	 al, 1
  0009b	5e		 pop	 esi
  0009c	5d		 pop	 ebp
  0009d	c2 04 00	 ret	 4
?VisitExit@TiXmlPrinter@@UAE_NABVTiXmlElement@@@Z ENDP	; TiXmlPrinter::VisitExit
_TEXT	ENDS
; Function compile flags: /Ogtp
; File E:\Proyectos\JuegosOnlineproyectos\PB\pbblow\Piercing Blow Remake\i3Server\src\i3Base\tinyxml.cpp
; File E:\Proyectos\JuegosOnlineproyectos\PB\pbblow\Piercing Blow Remake\i3Server\include\i3Base\tinyxml.h
; File E:\Proyectos\JuegosOnlineproyectos\PB\pbblow\Piercing Blow Remake\i3Server\include\i3Base\tinystr.h
; File E:\Proyectos\JuegosOnlineproyectos\PB\pbblow\Piercing Blow Remake\i3Server\include\i3Base\tinyxml.h
; File E:\Proyectos\JuegosOnlineproyectos\PB\pbblow\Piercing Blow Remake\i3Server\include\i3Base\tinystr.h
; File E:\Proyectos\JuegosOnlineproyectos\PB\pbblow\Piercing Blow Remake\i3Server\include\i3Base\tinyxml.h
; File E:\Proyectos\JuegosOnlineproyectos\PB\pbblow\Piercing Blow Remake\i3Server\include\i3Base\tinystr.h
; File E:\Proyectos\JuegosOnlineproyectos\PB\pbblow\Piercing Blow Remake\i3Server\src\i3Base\tinyxml.cpp
; File E:\Proyectos\JuegosOnlineproyectos\PB\pbblow\Piercing Blow Remake\i3Server\include\i3Base\tinystr.h
; File E:\Proyectos\JuegosOnlineproyectos\PB\pbblow\Piercing Blow Remake\i3Server\src\i3Base\tinyxml.cpp
; File E:\Proyectos\JuegosOnlineproyectos\PB\pbblow\Piercing Blow Remake\i3Server\include\i3Base\tinystr.h
; File E:\Proyectos\JuegosOnlineproyectos\PB\pbblow\Piercing Blow Remake\i3Server\src\i3Base\tinyxml.cpp
; File E:\Proyectos\JuegosOnlineproyectos\PB\pbblow\Piercing Blow Remake\i3Server\include\i3Base\tinystr.h
; File E:\Proyectos\JuegosOnlineproyectos\PB\pbblow\Piercing Blow Remake\i3Server\src\i3Base\tinyxml.cpp
; File E:\Proyectos\JuegosOnlineproyectos\PB\pbblow\Piercing Blow Remake\i3Server\include\i3Base\tinystr.h
; File E:\Proyectos\JuegosOnlineproyectos\PB\pbblow\Piercing Blow Remake\i3Server\src\i3Base\tinyxml.cpp
; File E:\Proyectos\JuegosOnlineproyectos\PB\pbblow\Piercing Blow Remake\i3Server\include\i3Base\tinystr.h
; File E:\Proyectos\JuegosOnlineproyectos\PB\pbblow\Piercing Blow Remake\i3Server\src\i3Base\tinyxml.cpp
;	COMDAT ?VisitEnter@TiXmlPrinter@@UAE_NABVTiXmlElement@@PBVTiXmlAttribute@@@Z
_TEXT	SEGMENT
_element$ = 8						; size = 4
_firstAttribute$ = 12					; size = 4
?VisitEnter@TiXmlPrinter@@UAE_NABVTiXmlElement@@PBVTiXmlAttribute@@@Z PROC ; TiXmlPrinter::VisitEnter, COMDAT
; _this$ = ecx

; 1874 : {

  00000	55		 push	 ebp
  00001	8b ec		 mov	 ebp, esp
  00003	53		 push	 ebx
  00004	56		 push	 esi
  00005	8b f1		 mov	 esi, ecx
  00007	57		 push	 edi
; File E:\Proyectos\JuegosOnlineproyectos\PB\pbblow\Piercing Blow Remake\i3Server\include\i3Base\tinyxml.h

; 1797 : 		for( int i=0; i<depth; ++i )

  00008	33 ff		 xor	 edi, edi
  0000a	39 7e 04	 cmp	 DWORD PTR [esi+4], edi
  0000d	7e 1c		 jle	 SHORT $LN66@VisitEnter
  0000f	90		 npad	 1
$LL42@VisitEnter:
; File E:\Proyectos\JuegosOnlineproyectos\PB\pbblow\Piercing Blow Remake\i3Server\include\i3Base\tinystr.h

; 150  : 	size_type length () const { return rep_->size; }

  00010	8b 46 10	 mov	 eax, DWORD PTR [esi+16]
; File E:\Proyectos\JuegosOnlineproyectos\PB\pbblow\Piercing Blow Remake\i3Server\include\i3Base\tinyxml.h

; 1798 : 			buffer += indent;

  00013	8d 5e 0c	 lea	 ebx, DWORD PTR [esi+12]
; File E:\Proyectos\JuegosOnlineproyectos\PB\pbblow\Piercing Blow Remake\i3Server\include\i3Base\tinystr.h

; 139  : 		return append(suffix.data(), suffix.length());

  00016	8b cb		 mov	 ecx, ebx
  00018	ff 30		 push	 DWORD PTR [eax]

; 147  : 	const char * data () const { return rep_->str; }

  0001a	83 c0 08	 add	 eax, 8

; 139  : 		return append(suffix.data(), suffix.length());

  0001d	50		 push	 eax
  0001e	e8 00 00 00 00	 call	 ?append@TiXmlString@@QAEAAV1@PBDI@Z ; TiXmlString::append
; File E:\Proyectos\JuegosOnlineproyectos\PB\pbblow\Piercing Blow Remake\i3Server\include\i3Base\tinyxml.h

; 1797 : 		for( int i=0; i<depth; ++i )

  00023	47		 inc	 edi
  00024	3b 7e 04	 cmp	 edi, DWORD PTR [esi+4]
  00027	7c e7		 jl	 SHORT $LL42@VisitEnter
  00029	eb 03		 jmp	 SHORT $LN41@VisitEnter
$LN66@VisitEnter:
  0002b	8d 5e 0c	 lea	 ebx, DWORD PTR [esi+12]
$LN41@VisitEnter:
; File E:\Proyectos\JuegosOnlineproyectos\PB\pbblow\Piercing Blow Remake\i3Server\include\i3Base\tinystr.h

; 127  : 		return append(suffix, static_cast<size_type>( strlen(suffix) ));

  0002e	6a 01		 push	 1
  00030	68 00 00 00 00	 push	 OFFSET ??_C@_01MNNFJEPP@?$DM@
  00035	8b cb		 mov	 ecx, ebx
  00037	e8 00 00 00 00	 call	 ?append@TiXmlString@@QAEAAV1@PBDI@Z ; TiXmlString::append

; 144  : 	const char * c_str () const { return rep_->str; }

  0003c	8b 45 08	 mov	 eax, DWORD PTR _element$[ebp]
  0003f	8b 50 20	 mov	 edx, DWORD PTR [eax+32]
  00042	83 c2 08	 add	 edx, 8

; 127  : 		return append(suffix, static_cast<size_type>( strlen(suffix) ));

  00045	8b ca		 mov	 ecx, edx
  00047	8d 79 01	 lea	 edi, DWORD PTR [ecx+1]
  0004a	8d 9b 00 00 00
	00		 npad	 6
$LL71@VisitEnter:
  00050	8a 01		 mov	 al, BYTE PTR [ecx]
  00052	41		 inc	 ecx
  00053	84 c0		 test	 al, al
  00055	75 f9		 jne	 SHORT $LL71@VisitEnter
  00057	2b cf		 sub	 ecx, edi
  00059	51		 push	 ecx
  0005a	52		 push	 edx
  0005b	8b cb		 mov	 ecx, ebx
  0005d	e8 00 00 00 00	 call	 ?append@TiXmlString@@QAEAAV1@PBDI@Z ; TiXmlString::append
; File E:\Proyectos\JuegosOnlineproyectos\PB\pbblow\Piercing Blow Remake\i3Server\src\i3Base\tinyxml.cpp

; 1879 : 	for( const TiXmlAttribute* attrib = firstAttribute; attrib; attrib = attrib->Next() )

  00062	8b 7d 0c	 mov	 edi, DWORD PTR _firstAttribute$[ebp]
  00065	85 ff		 test	 edi, edi
  00067	74 38		 je	 SHORT $LN72@VisitEnter
  00069	8d a4 24 00 00
	00 00		 npad	 7
$LL4@VisitEnter:
; File E:\Proyectos\JuegosOnlineproyectos\PB\pbblow\Piercing Blow Remake\i3Server\include\i3Base\tinystr.h

; 127  : 		return append(suffix, static_cast<size_type>( strlen(suffix) ));

  00070	6a 01		 push	 1
  00072	68 00 00 00 00	 push	 OFFSET ??_C@_01CLKCMJKC@?5@
  00077	8b cb		 mov	 ecx, ebx
  00079	e8 00 00 00 00	 call	 ?append@TiXmlString@@QAEAAV1@PBDI@Z ; TiXmlString::append
; File E:\Proyectos\JuegosOnlineproyectos\PB\pbblow\Piercing Blow Remake\i3Server\src\i3Base\tinyxml.cpp

; 1882 : 		attrib->Print( 0, 0, &buffer );

  0007e	53		 push	 ebx
  0007f	6a 00		 push	 0
  00081	6a 00		 push	 0
  00083	8b cf		 mov	 ecx, edi
  00085	e8 00 00 00 00	 call	 ?Print@TiXmlAttribute@@QBEXPAVi3FileStream@@HPAVTiXmlString@@@Z ; TiXmlAttribute::Print
; File E:\Proyectos\JuegosOnlineproyectos\PB\pbblow\Piercing Blow Remake\i3Server\include\i3Base\tinystr.h

; 156  : 	bool empty () const { return rep_->size == 0; }

  0008a	8b 7f 20	 mov	 edi, DWORD PTR [edi+32]
  0008d	8b 47 18	 mov	 eax, DWORD PTR [edi+24]
  00090	83 38 00	 cmp	 DWORD PTR [eax], 0
; File E:\Proyectos\JuegosOnlineproyectos\PB\pbblow\Piercing Blow Remake\i3Server\src\i3Base\tinyxml.cpp

; 1252 : 	if ( next->value.empty() && next->name.empty() )

  00093	75 08		 jne	 SHORT $LN11@VisitEnter
; File E:\Proyectos\JuegosOnlineproyectos\PB\pbblow\Piercing Blow Remake\i3Server\include\i3Base\tinystr.h

; 156  : 	bool empty () const { return rep_->size == 0; }

  00095	8b 47 14	 mov	 eax, DWORD PTR [edi+20]
  00098	83 38 00	 cmp	 DWORD PTR [eax], 0
; File E:\Proyectos\JuegosOnlineproyectos\PB\pbblow\Piercing Blow Remake\i3Server\src\i3Base\tinyxml.cpp

; 1252 : 	if ( next->value.empty() && next->name.empty() )

  0009b	74 04		 je	 SHORT $LN72@VisitEnter
$LN11@VisitEnter:

; 1879 : 	for( const TiXmlAttribute* attrib = firstAttribute; attrib; attrib = attrib->Next() )

  0009d	85 ff		 test	 edi, edi
  0009f	75 cf		 jne	 SHORT $LL4@VisitEnter
$LN72@VisitEnter:

; 1883 : 	}
; 1884 : 
; 1885 : 	if ( !element.FirstChild() ) 

  000a1	8b 7d 08	 mov	 edi, DWORD PTR _element$[ebp]
  000a4	8b cb		 mov	 ecx, ebx
  000a6	83 7f 18 00	 cmp	 DWORD PTR [edi+24], 0
  000aa	75 28		 jne	 SHORT $LN5@VisitEnter
; File E:\Proyectos\JuegosOnlineproyectos\PB\pbblow\Piercing Blow Remake\i3Server\include\i3Base\tinystr.h

; 127  : 		return append(suffix, static_cast<size_type>( strlen(suffix) ));

  000ac	6a 03		 push	 3
  000ae	68 00 00 00 00	 push	 OFFSET ??_C@_03MFNJFHN@?5?1?$DO@
  000b3	e8 00 00 00 00	 call	 ?append@TiXmlString@@QAEAAV1@PBDI@Z ; TiXmlString::append
$LN7@VisitEnter:
; File E:\Proyectos\JuegosOnlineproyectos\PB\pbblow\Piercing Blow Remake\i3Server\src\i3Base\tinyxml.cpp

; 1907 : }

  000b8	8b 46 14	 mov	 eax, DWORD PTR [esi+20]
  000bb	8b cb		 mov	 ecx, ebx
  000bd	ff 30		 push	 DWORD PTR [eax]
  000bf	83 c0 08	 add	 eax, 8
  000c2	50		 push	 eax
  000c3	e8 00 00 00 00	 call	 ?append@TiXmlString@@QAEAAV1@PBDI@Z ; TiXmlString::append
  000c8	ff 46 04	 inc	 DWORD PTR [esi+4]
  000cb	b0 01		 mov	 al, 1
  000cd	5f		 pop	 edi
  000ce	5e		 pop	 esi
  000cf	5b		 pop	 ebx
  000d0	5d		 pop	 ebp
  000d1	c2 08 00	 ret	 8
$LN5@VisitEnter:
; File E:\Proyectos\JuegosOnlineproyectos\PB\pbblow\Piercing Blow Remake\i3Server\include\i3Base\tinystr.h

; 127  : 		return append(suffix, static_cast<size_type>( strlen(suffix) ));

  000d4	6a 01		 push	 1
  000d6	68 00 00 00 00	 push	 OFFSET ??_C@_01PPODPGHN@?$DO@
  000db	e8 00 00 00 00	 call	 ?append@TiXmlString@@QAEAAV1@PBDI@Z ; TiXmlString::append
; File E:\Proyectos\JuegosOnlineproyectos\PB\pbblow\Piercing Blow Remake\i3Server\src\i3Base\tinyxml.cpp

; 1895 : 			  && element.FirstChild()->ToText()->CDATA() == false )

  000e0	8b 4f 18	 mov	 ecx, DWORD PTR [edi+24]
  000e3	8b 01		 mov	 eax, DWORD PTR [ecx]
  000e5	ff 50 30	 call	 DWORD PTR [eax+48]
  000e8	85 c0		 test	 eax, eax
  000ea	74 cc		 je	 SHORT $LN7@VisitEnter
  000ec	8b 4f 18	 mov	 ecx, DWORD PTR [edi+24]
  000ef	39 4f 1c	 cmp	 DWORD PTR [edi+28], ecx
  000f2	75 c4		 jne	 SHORT $LN7@VisitEnter
  000f4	8b 01		 mov	 eax, DWORD PTR [ecx]
  000f6	ff 50 30	 call	 DWORD PTR [eax+48]
  000f9	80 78 2c 00	 cmp	 BYTE PTR [eax+44], 0
  000fd	75 b9		 jne	 SHORT $LN7@VisitEnter

; 1907 : }

  000ff	ff 46 04	 inc	 DWORD PTR [esi+4]
  00102	b0 01		 mov	 al, 1
  00104	5f		 pop	 edi
  00105	c6 46 08 01	 mov	 BYTE PTR [esi+8], 1
  00109	5e		 pop	 esi
  0010a	5b		 pop	 ebx
  0010b	5d		 pop	 ebp
  0010c	c2 08 00	 ret	 8
?VisitEnter@TiXmlPrinter@@UAE_NABVTiXmlElement@@PBVTiXmlAttribute@@@Z ENDP ; TiXmlPrinter::VisitEnter
_TEXT	ENDS
; Function compile flags: /Ogtp
; File E:\Proyectos\JuegosOnlineproyectos\PB\pbblow\Piercing Blow Remake\i3Server\src\i3Base\tinyxml.cpp
;	COMDAT ?VisitExit@TiXmlPrinter@@UAE_NABVTiXmlDocument@@@Z
_TEXT	SEGMENT
___formal$ = 8						; size = 4
?VisitExit@TiXmlPrinter@@UAE_NABVTiXmlDocument@@@Z PROC	; TiXmlPrinter::VisitExit, COMDAT
; _this$ = ecx

; 1870 : 	return true;

  00000	b0 01		 mov	 al, 1

; 1871 : }

  00002	c2 04 00	 ret	 4
?VisitExit@TiXmlPrinter@@UAE_NABVTiXmlDocument@@@Z ENDP	; TiXmlPrinter::VisitExit
_TEXT	ENDS
; Function compile flags: /Ogtp
; File E:\Proyectos\JuegosOnlineproyectos\PB\pbblow\Piercing Blow Remake\i3Server\src\i3Base\tinyxml.cpp
;	COMDAT ?VisitEnter@TiXmlPrinter@@UAE_NABVTiXmlDocument@@@Z
_TEXT	SEGMENT
___formal$ = 8						; size = 4
?VisitEnter@TiXmlPrinter@@UAE_NABVTiXmlDocument@@@Z PROC ; TiXmlPrinter::VisitEnter, COMDAT
; _this$ = ecx

; 1865 : 	return true;

  00000	b0 01		 mov	 al, 1

; 1866 : }

  00002	c2 04 00	 ret	 4
?VisitEnter@TiXmlPrinter@@UAE_NABVTiXmlDocument@@@Z ENDP ; TiXmlPrinter::VisitEnter
_TEXT	ENDS
; Function compile flags: /Ogtp
; File E:\Proyectos\JuegosOnlineproyectos\PB\pbblow\Piercing Blow Remake\i3Server\include\i3Base\tinyxml.h
; File E:\Proyectos\JuegosOnlineproyectos\PB\pbblow\Piercing Blow Remake\i3Server\include\i3Base\tinystr.h
; File E:\Proyectos\JuegosOnlineproyectos\PB\pbblow\Piercing Blow Remake\i3Server\include\i3Base\tinyxml.h
; File E:\Proyectos\JuegosOnlineproyectos\PB\pbblow\Piercing Blow Remake\i3Server\include\i3Base\tinystr.h
; File E:\Proyectos\JuegosOnlineproyectos\PB\pbblow\Piercing Blow Remake\i3Server\include\i3Base\tinyxml.h
; File E:\Proyectos\JuegosOnlineproyectos\PB\pbblow\Piercing Blow Remake\i3Server\include\i3Base\tinystr.h
; File E:\Proyectos\JuegosOnlineproyectos\PB\pbblow\Piercing Blow Remake\i3Server\include\i3Base\tinyxml.h
;	COMDAT ??0TiXmlPrinter@@QAE@XZ
_TEXT	SEGMENT
_this$ = -16						; size = 4
__$EHRec$ = -12						; size = 12
??0TiXmlPrinter@@QAE@XZ PROC				; TiXmlPrinter::TiXmlPrinter, COMDAT
; _this$ = ecx

; 1752 : 					 buffer(), indent( "    " ), lineBreak( "\n" ) {}

  00000	55		 push	 ebp
  00001	8b ec		 mov	 ebp, esp
  00003	6a ff		 push	 -1
  00005	68 00 00 00 00	 push	 __ehhandler$??0TiXmlPrinter@@QAE@XZ
  0000a	64 a1 00 00 00
	00		 mov	 eax, DWORD PTR fs:0
  00010	50		 push	 eax
  00011	51		 push	 ecx
  00012	56		 push	 esi
  00013	a1 00 00 00 00	 mov	 eax, DWORD PTR ___security_cookie
  00018	33 c5		 xor	 eax, ebp
  0001a	50		 push	 eax
  0001b	8d 45 f4	 lea	 eax, DWORD PTR __$EHRec$[ebp]
  0001e	64 a3 00 00 00
	00		 mov	 DWORD PTR fs:0, eax
  00024	8b f1		 mov	 esi, ecx
  00026	89 75 f0	 mov	 DWORD PTR _this$[ebp], esi
  00029	c7 06 00 00 00
	00		 mov	 DWORD PTR [esi], OFFSET ??_7TiXmlPrinter@@6B@
  0002f	c7 46 04 00 00
	00 00		 mov	 DWORD PTR [esi+4], 0
  00036	c6 46 08 00	 mov	 BYTE PTR [esi+8], 0
  0003a	c7 45 fc 00 00
	00 00		 mov	 DWORD PTR __$EHRec$[ebp+8], 0
; File E:\Proyectos\JuegosOnlineproyectos\PB\pbblow\Piercing Blow Remake\i3Server\include\i3Base\tinystr.h

; 80   : 	TiXmlString () : rep_(&nullrep_)

  00041	c7 46 0c 00 00
	00 00		 mov	 DWORD PTR [esi+12], OFFSET ?nullrep_@TiXmlString@@0URep@1@A ; TiXmlString::nullrep_

; 244  : 			rep_ = reinterpret_cast<Rep*>( new int[ intsNeeded ] );

  00048	6a 10		 push	 16			; 00000010H
; File E:\Proyectos\JuegosOnlineproyectos\PB\pbblow\Piercing Blow Remake\i3Server\include\i3Base\tinyxml.h

; 1752 : 					 buffer(), indent( "    " ), lineBreak( "\n" ) {}

  0004a	c6 45 fc 01	 mov	 BYTE PTR __$EHRec$[ebp+8], 1
; File E:\Proyectos\JuegosOnlineproyectos\PB\pbblow\Piercing Blow Remake\i3Server\include\i3Base\tinystr.h

; 92   : 	TIXML_EXPLICIT TiXmlString ( const char * copy) : rep_(0)

  0004e	c7 46 10 00 00
	00 00		 mov	 DWORD PTR [esi+16], 0

; 244  : 			rep_ = reinterpret_cast<Rep*>( new int[ intsNeeded ] );

  00055	e8 00 00 00 00	 call	 ??_U@YAPAXI@Z		; operator new[]
  0005a	89 46 10	 mov	 DWORD PTR [esi+16], eax

; 245  : 
; 246  : 			rep_->str[ rep_->size = sz ] = '\0';

  0005d	c7 00 04 00 00
	00		 mov	 DWORD PTR [eax], 4
  00063	8b 46 10	 mov	 eax, DWORD PTR [esi+16]
  00066	c6 40 0c 00	 mov	 BYTE PTR [eax+12], 0

; 247  : 			rep_->capacity = cap;

  0006a	8b 46 10	 mov	 eax, DWORD PTR [esi+16]
  0006d	c7 40 04 04 00
	00 00		 mov	 DWORD PTR [eax+4], 4

; 150  : 	size_type length () const { return rep_->size; }

  00074	8b 46 10	 mov	 eax, DWORD PTR [esi+16]

; 95   : 		memcpy(start(), copy, length());

  00077	ff 30		 push	 DWORD PTR [eax]

; 224  : 	char* start() const { return rep_->str; }

  00079	83 c0 08	 add	 eax, 8

; 95   : 		memcpy(start(), copy, length());

  0007c	68 00 00 00 00	 push	 OFFSET ??_C@_04PFOHOKJK@?5?5?5?5@
  00081	50		 push	 eax
  00082	e8 00 00 00 00	 call	 _memcpy

; 244  : 			rep_ = reinterpret_cast<Rep*>( new int[ intsNeeded ] );

  00087	6a 10		 push	 16			; 00000010H
; File E:\Proyectos\JuegosOnlineproyectos\PB\pbblow\Piercing Blow Remake\i3Server\include\i3Base\tinyxml.h

; 1752 : 					 buffer(), indent( "    " ), lineBreak( "\n" ) {}

  00089	c6 45 fc 02	 mov	 BYTE PTR __$EHRec$[ebp+8], 2
; File E:\Proyectos\JuegosOnlineproyectos\PB\pbblow\Piercing Blow Remake\i3Server\include\i3Base\tinystr.h

; 92   : 	TIXML_EXPLICIT TiXmlString ( const char * copy) : rep_(0)

  0008d	c7 46 14 00 00
	00 00		 mov	 DWORD PTR [esi+20], 0

; 244  : 			rep_ = reinterpret_cast<Rep*>( new int[ intsNeeded ] );

  00094	e8 00 00 00 00	 call	 ??_U@YAPAXI@Z		; operator new[]
  00099	89 46 14	 mov	 DWORD PTR [esi+20], eax

; 245  : 
; 246  : 			rep_->str[ rep_->size = sz ] = '\0';

  0009c	c7 00 01 00 00
	00		 mov	 DWORD PTR [eax], 1
  000a2	8b 46 14	 mov	 eax, DWORD PTR [esi+20]
  000a5	c6 40 09 00	 mov	 BYTE PTR [eax+9], 0

; 247  : 			rep_->capacity = cap;

  000a9	8b 46 14	 mov	 eax, DWORD PTR [esi+20]
  000ac	c7 40 04 01 00
	00 00		 mov	 DWORD PTR [eax+4], 1

; 150  : 	size_type length () const { return rep_->size; }

  000b3	8b 46 14	 mov	 eax, DWORD PTR [esi+20]

; 95   : 		memcpy(start(), copy, length());

  000b6	ff 30		 push	 DWORD PTR [eax]

; 224  : 	char* start() const { return rep_->str; }

  000b8	83 c0 08	 add	 eax, 8

; 95   : 		memcpy(start(), copy, length());

  000bb	68 00 00 00 00	 push	 OFFSET ??_C@_01EEMJAFIK@?6@
  000c0	50		 push	 eax
  000c1	e8 00 00 00 00	 call	 _memcpy
  000c6	83 c4 20	 add	 esp, 32			; 00000020H
; File E:\Proyectos\JuegosOnlineproyectos\PB\pbblow\Piercing Blow Remake\i3Server\include\i3Base\tinyxml.h

; 1752 : 					 buffer(), indent( "    " ), lineBreak( "\n" ) {}

  000c9	8b c6		 mov	 eax, esi
  000cb	8b 4d f4	 mov	 ecx, DWORD PTR __$EHRec$[ebp]
  000ce	64 89 0d 00 00
	00 00		 mov	 DWORD PTR fs:0, ecx
  000d5	59		 pop	 ecx
  000d6	5e		 pop	 esi
  000d7	8b e5		 mov	 esp, ebp
  000d9	5d		 pop	 ebp
  000da	c3		 ret	 0
_TEXT	ENDS
;	COMDAT text$x
text$x	SEGMENT
__unwindfunclet$??0TiXmlPrinter@@QAE@XZ$0:
  00000	8b 4d f0	 mov	 ecx, DWORD PTR _this$[ebp]
  00003	e9 00 00 00 00	 jmp	 ??1TiXmlVisitor@@UAE@XZ	; TiXmlVisitor::~TiXmlVisitor
__unwindfunclet$??0TiXmlPrinter@@QAE@XZ$1:
  00008	8b 4d f0	 mov	 ecx, DWORD PTR _this$[ebp]
  0000b	83 c1 0c	 add	 ecx, 12			; 0000000cH
  0000e	e9 00 00 00 00	 jmp	 ??1TiXmlString@@QAE@XZ	; TiXmlString::~TiXmlString
__unwindfunclet$??0TiXmlPrinter@@QAE@XZ$2:
  00013	8b 4d f0	 mov	 ecx, DWORD PTR _this$[ebp]
  00016	83 c1 10	 add	 ecx, 16			; 00000010H
  00019	e9 00 00 00 00	 jmp	 ??1TiXmlString@@QAE@XZ	; TiXmlString::~TiXmlString
  0001e	cc		 int	 3
  0001f	cc		 int	 3
  00020	cc		 int	 3
  00021	cc		 int	 3
  00022	cc		 int	 3
__ehhandler$??0TiXmlPrinter@@QAE@XZ:
  00023	90		 npad	 1
  00024	90		 npad	 1
  00025	8b 54 24 08	 mov	 edx, DWORD PTR [esp+8]
  00029	8d 42 0c	 lea	 eax, DWORD PTR [edx+12]
  0002c	8b 4a f4	 mov	 ecx, DWORD PTR [edx-12]
  0002f	33 c8		 xor	 ecx, eax
  00031	e8 00 00 00 00	 call	 @__security_check_cookie@4
  00036	b8 00 00 00 00	 mov	 eax, OFFSET __ehfuncinfo$??0TiXmlPrinter@@QAE@XZ
  0003b	e9 00 00 00 00	 jmp	 ___CxxFrameHandler3
text$x	ENDS
??0TiXmlPrinter@@QAE@XZ ENDP				; TiXmlPrinter::TiXmlPrinter
; Function compile flags: /Ogtp
; File E:\Proyectos\JuegosOnlineproyectos\PB\pbblow\Piercing Blow Remake\i3Server\include\i3Base\tinyxml.h
;	COMDAT ?Unknown@TiXmlHandle@@QBEPAVTiXmlUnknown@@XZ
_TEXT	SEGMENT
?Unknown@TiXmlHandle@@QBEPAVTiXmlUnknown@@XZ PROC	; TiXmlHandle::Unknown, COMDAT
; _this$ = ecx

; 1722 : 	TiXmlUnknown* Unknown() const	{ return ToUnknown(); }

  00000	56		 push	 esi
  00001	8b f1		 mov	 esi, ecx

; 1705 : 	TiXmlUnknown* ToUnknown() const		{ return ( ( node && node->ToUnknown() ) ? node->ToUnknown() : 0 ); }

  00003	8b 0e		 mov	 ecx, DWORD PTR [esi]
  00005	85 c9		 test	 ecx, ecx
  00007	74 11		 je	 SHORT $LN5@Unknown
  00009	8b 01		 mov	 eax, DWORD PTR [ecx]
  0000b	ff 50 24	 call	 DWORD PTR [eax+36]
  0000e	85 c0		 test	 eax, eax
  00010	74 08		 je	 SHORT $LN5@Unknown
  00012	8b 0e		 mov	 ecx, DWORD PTR [esi]
  00014	5e		 pop	 esi
  00015	8b 01		 mov	 eax, DWORD PTR [ecx]
