; Listing generated by Microsoft (R) Optimizing Compiler Version 19.50.35727.0 

	TITLE	E:\Proyectos\JuegosOnlineproyectos\PB\pbblow\Piercing Blow Remake\i3Server\Project\I3_DX\i3Server\x86\Release\tls_mgr.obj
	.686P
	.XMM
	include listing.inc
	.model	flat

INCLUDELIB LIBCMT
INCLUDELIB OLDNAMES

PUBLIC	__Avx2WmemEnabledWeakValue
;	COMDAT __Avx2WmemEnabledWeakValue
_BSS	SEGMENT
__Avx2WmemEnabledWeakValue DD 01H DUP (?)
_BSS	ENDS
PUBLIC	??0noncopyable@i3@@IAE@XZ			; i3::noncopyable::noncopyable
PUBLIC	??1noncopyable@i3@@IAE@XZ			; i3::noncopyable::~noncopyable
PUBLIC	??0tls_mgr@detail_tls@i3@@QAE@XZ		; i3::detail_tls::tls_mgr::tls_mgr
PUBLIC	??1tls_mgr@detail_tls@i3@@QAE@XZ		; i3::detail_tls::tls_mgr::~tls_mgr
PUBLIC	?OnProcessAttach@tls_mgr@detail_tls@i3@@QAEXXZ	; i3::detail_tls::tls_mgr::OnProcessAttach
PUBLIC	?OnProcessDetach@tls_mgr@detail_tls@i3@@QAEXXZ	; i3::detail_tls::tls_mgr::OnProcessDetach
PUBLIC	?OnThreadAttach@tls_mgr@detail_tls@i3@@QAEXXZ	; i3::detail_tls::tls_mgr::OnThreadAttach
PUBLIC	?OnThreadDetach@tls_mgr@detail_tls@i3@@QAEXXZ	; i3::detail_tls::tls_mgr::OnThreadDetach
PUBLIC	?insert_1@?$vector@PAVtls_base@i3@@V?$heap_allocator@PAVtls_base@i3@@@2@@i3@@AAEXPBQAVtls_base@2@ABQAV32@@Z ; i3::vector<i3::tls_base *,i3::heap_allocator<i3::tls_base *> >::insert_1
PUBLIC	?insert_1@?$vector@PAVthread_data@detail_tls@i3@@V?$heap_allocator@PAVthread_data@detail_tls@i3@@@3@@i3@@AAEXPBQAVthread_data@detail_tls@2@ABQAV342@@Z ; i3::vector<i3::detail_tls::thread_data *,i3::heap_allocator<i3::detail_tls::thread_data *> >::insert_1
PUBLIC	?get_curr_tls_thread_id@i3@@YAKXZ		; i3::get_curr_tls_thread_id
PUBLIC	?get_num_tls_thread_id@i3@@YAKXZ		; i3::get_num_tls_thread_id
PUBLIC	?get_num_tls_ptr@i3@@YAIXZ			; i3::get_num_tls_ptr
PUBLIC	?tls_malloc@i3@@YAPAXI@Z			; i3::tls_malloc
PUBLIC	?tls_free@i3@@YAXPAX@Z				; i3::tls_free
PUBLIC	?tls_malloc@i3@@YAPAXKI@Z			; i3::tls_malloc
PUBLIC	?tls_free@i3@@YAXKPAX@Z				; i3::tls_free
PUBLIC	?tls_aligned_malloc@i3@@YAPAXII@Z		; i3::tls_aligned_malloc
PUBLIC	?tls_aligned_free@i3@@YAXPAX@Z			; i3::tls_aligned_free
PUBLIC	?tls_aligned_malloc@i3@@YAPAXKII@Z		; i3::tls_aligned_malloc
PUBLIC	?tls_aligned_free@i3@@YAXKPAX@Z			; i3::tls_aligned_free
PUBLIC	?tls_safe_malloc@i3@@YAPAXI@Z			; i3::tls_safe_malloc
PUBLIC	?tls_safe_free@i3@@YAXPAX@Z			; i3::tls_safe_free
PUBLIC	?tls_safe_malloc@i3@@YAPAXKI@Z			; i3::tls_safe_malloc
PUBLIC	?tls_safe_free@i3@@YAXKPAX@Z			; i3::tls_safe_free
PUBLIC	?tls_safe_aligned_malloc@i3@@YAPAXII@Z		; i3::tls_safe_aligned_malloc
PUBLIC	?tls_safe_aligned_free@i3@@YAXPAX@Z		; i3::tls_safe_aligned_free
PUBLIC	?tls_safe_aligned_malloc@i3@@YAPAXKII@Z		; i3::tls_safe_aligned_malloc
PUBLIC	?tls_safe_aligned_free@i3@@YAXKPAX@Z		; i3::tls_safe_aligned_free
PUBLIC	??1tls_base@i3@@UAE@XZ				; i3::tls_base::~tls_base
PUBLIC	??0tls_base@i3@@IAE@XZ				; i3::tls_base::tls_base
PUBLIC	?get@tls_base@i3@@IBEPAXXZ			; i3::tls_base::get
PUBLIC	?get_by_thread_id@tls_base@i3@@IBEPAXK@Z	; i3::tls_base::get_by_thread_id
PUBLIC	?get_raw@tls_base@i3@@IBEPAXXZ			; i3::tls_base::get_raw
PUBLIC	?get_raw_by_thread_id@tls_base@i3@@IBEPAXK@Z	; i3::tls_base::get_raw_by_thread_id
PUBLIC	?slot_idx@tls_base@i3@@IBEIXZ			; i3::tls_base::slot_idx
PUBLIC	??_Gtls_base@i3@@UAEPAXI@Z			; i3::tls_base::`scalar deleting destructor'
PUBLIC	??_Etls_base@i3@@UAEPAXI@Z			; i3::tls_base::`vector deleting destructor'
PUBLIC	??_7tls_base@i3@@6B@				; i3::tls_base::`vftable'
PUBLIC	??_R4tls_base@i3@@6B@				; i3::tls_base::`RTTI Complete Object Locator'
PUBLIC	??_R0?AVtls_base@i3@@@8				; i3::tls_base `RTTI Type Descriptor'
PUBLIC	??_R3tls_base@i3@@8				; i3::tls_base::`RTTI Class Hierarchy Descriptor'
PUBLIC	??_R2tls_base@i3@@8				; i3::tls_base::`RTTI Base Class Array'
PUBLIC	??_R1A@?0A@EA@tls_base@i3@@8			; i3::tls_base::`RTTI Base Class Descriptor at (0,-1,0,64)'
PUBLIC	??_R13?0A@EN@noncopyable@i3@@8			; i3::noncopyable::`RTTI Base Class Descriptor at (4,-1,0,77)'
PUBLIC	??_R0?AVnoncopyable@i3@@@8			; i3::noncopyable `RTTI Type Descriptor'
PUBLIC	??_R3noncopyable@i3@@8				; i3::noncopyable::`RTTI Class Hierarchy Descriptor'
PUBLIC	??_R2noncopyable@i3@@8				; i3::noncopyable::`RTTI Base Class Array'
PUBLIC	??_R1A@?0A@EA@noncopyable@i3@@8			; i3::noncopyable::`RTTI Base Class Descriptor at (0,-1,0,64)'
EXTRN	??_M@YGXPAXIIP6EX0@Z@Z:PROC			; `eh vector destructor iterator'
EXTRN	__purecall:PROC
EXTRN	??3@YAXPAXI@Z:PROC				; operator delete
EXTRN	??_V@YAXPAXI@Z:PROC				; operator delete[]
EXTRN	__invalid_parameter_noinfo:PROC
EXTRN	__errno:PROC
EXTRN	__imp__HeapCreate@12:PROC
EXTRN	__imp__HeapDestroy@4:PROC
EXTRN	__imp__HeapAlloc@12:PROC
EXTRN	__imp__HeapFree@12:PROC
EXTRN	__imp__GetProcessHeap@0:PROC
EXTRN	__imp__HeapSetInformation@16:PROC
EXTRN	__imp__TlsAlloc@0:PROC
EXTRN	__imp__TlsGetValue@4:PROC
EXTRN	__imp__TlsSetValue@8:PROC
EXTRN	__imp__TlsFree@4:PROC
EXTRN	@__security_check_cookie@4:PROC
EXTRN	___CxxFrameHandler3:PROC
EXTRN	_memmove:PROC
EXTRN	??_7type_info@@6B@:QWORD			; type_info::`vftable'
EXTRN	?g_TlsManager@detail_tls@i3@@3Vtls_mgr@12@A:BYTE ; i3::detail_tls::g_TlsManager
EXTRN	___security_cookie:DWORD
;	COMDAT ??_R1A@?0A@EA@noncopyable@i3@@8
rdata$r	SEGMENT
??_R1A@?0A@EA@noncopyable@i3@@8 DD FLAT:??_R0?AVnoncopyable@i3@@@8 ; i3::noncopyable::`RTTI Base Class Descriptor at (0,-1,0,64)'
	DD	00H
	DD	00H
	DD	0ffffffffH
	DD	00H
	DD	040H
	DD	FLAT:??_R3noncopyable@i3@@8
rdata$r	ENDS
;	COMDAT ??_R2noncopyable@i3@@8
rdata$r	SEGMENT
??_R2noncopyable@i3@@8 DD FLAT:??_R1A@?0A@EA@noncopyable@i3@@8 ; i3::noncopyable::`RTTI Base Class Array'
rdata$r	ENDS
;	COMDAT ??_R3noncopyable@i3@@8
rdata$r	SEGMENT
??_R3noncopyable@i3@@8 DD 00H				; i3::noncopyable::`RTTI Class Hierarchy Descriptor'
	DD	00H
	DD	01H
	DD	FLAT:??_R2noncopyable@i3@@8
rdata$r	ENDS
;	COMDAT ??_R0?AVnoncopyable@i3@@@8
data$rs	SEGMENT
??_R0?AVnoncopyable@i3@@@8 DD FLAT:??_7type_info@@6B@	; i3::noncopyable `RTTI Type Descriptor'
	DD	00H
	DB	'.?AVnoncopyable@i3@@', 00H
data$rs	ENDS
;	COMDAT ??_R13?0A@EN@noncopyable@i3@@8
rdata$r	SEGMENT
??_R13?0A@EN@noncopyable@i3@@8 DD FLAT:??_R0?AVnoncopyable@i3@@@8 ; i3::noncopyable::`RTTI Base Class Descriptor at (4,-1,0,77)'
	DD	00H
	DD	04H
	DD	0ffffffffH
	DD	00H
	DD	04dH
	DD	FLAT:??_R3noncopyable@i3@@8
rdata$r	ENDS
;	COMDAT ??_R1A@?0A@EA@tls_base@i3@@8
rdata$r	SEGMENT
??_R1A@?0A@EA@tls_base@i3@@8 DD FLAT:??_R0?AVtls_base@i3@@@8 ; i3::tls_base::`RTTI Base Class Descriptor at (0,-1,0,64)'
	DD	01H
	DD	00H
	DD	0ffffffffH
	DD	00H
	DD	040H
	DD	FLAT:??_R3tls_base@i3@@8
rdata$r	ENDS
;	COMDAT ??_R2tls_base@i3@@8
rdata$r	SEGMENT
??_R2tls_base@i3@@8 DD FLAT:??_R1A@?0A@EA@tls_base@i3@@8 ; i3::tls_base::`RTTI Base Class Array'
	DD	FLAT:??_R13?0A@EN@noncopyable@i3@@8
rdata$r	ENDS
;	COMDAT ??_R3tls_base@i3@@8
rdata$r	SEGMENT
??_R3tls_base@i3@@8 DD 00H				; i3::tls_base::`RTTI Class Hierarchy Descriptor'
	DD	00H
	DD	02H
	DD	FLAT:??_R2tls_base@i3@@8
rdata$r	ENDS
;	COMDAT ??_R0?AVtls_base@i3@@@8
data$rs	SEGMENT
??_R0?AVtls_base@i3@@@8 DD FLAT:??_7type_info@@6B@	; i3::tls_base `RTTI Type Descriptor'
	DD	00H
	DB	'.?AVtls_base@i3@@', 00H
data$rs	ENDS
;	COMDAT ??_R4tls_base@i3@@6B@
rdata$r	SEGMENT
??_R4tls_base@i3@@6B@ DD 00H				; i3::tls_base::`RTTI Complete Object Locator'
	DD	00H
	DD	00H
	DD	FLAT:??_R0?AVtls_base@i3@@@8
	DD	FLAT:??_R3tls_base@i3@@8
rdata$r	ENDS
;	COMDAT ??_7tls_base@i3@@6B@
CONST	SEGMENT
??_7tls_base@i3@@6B@ DD FLAT:??_R4tls_base@i3@@6B@	; i3::tls_base::`vftable'
	DD	FLAT:??_Etls_base@i3@@UAEPAXI@Z
	DD	FLAT:__purecall
CONST	ENDS
;	COMDAT xdata$x
xdata$x	SEGMENT
__ehfuncinfo$??_Etls_base@i3@@UAEPAXI@Z DD 019930522H
	DD	00H
	DD	00H
	DD	2 DUP(00H)
	DD	2 DUP(00H)
	DD	00H
	DD	05H
xdata$x	ENDS
; Function compile flags: /Ogtp
;	COMDAT ??_Etls_base@i3@@UAEPAXI@Z
_TEXT	SEGMENT
__$EHRec$ = -12						; size = 12
___flags$ = 8						; size = 4
??_Etls_base@i3@@UAEPAXI@Z PROC				; i3::tls_base::`vector deleting destructor', COMDAT
; _this$ = ecx
  00000	55		 push	 ebp
  00001	8b ec		 mov	 ebp, esp
  00003	6a ff		 push	 -1
  00005	68 00 00 00 00	 push	 __ehhandler$??_Etls_base@i3@@UAEPAXI@Z
  0000a	64 a1 00 00 00
	00		 mov	 eax, DWORD PTR fs:0
  00010	50		 push	 eax
  00011	53		 push	 ebx
  00012	56		 push	 esi
  00013	57		 push	 edi
  00014	a1 00 00 00 00	 mov	 eax, DWORD PTR ___security_cookie
  00019	33 c5		 xor	 eax, ebp
  0001b	50		 push	 eax
  0001c	8d 45 f4	 lea	 eax, DWORD PTR __$EHRec$[ebp]
  0001f	64 a3 00 00 00
	00		 mov	 DWORD PTR fs:0, eax
  00025	8b f1		 mov	 esi, ecx
  00027	8b 45 08	 mov	 eax, DWORD PTR ___flags$[ebp]
  0002a	8b f8		 mov	 edi, eax
  0002c	83 e7 01	 and	 edi, 1
  0002f	a8 02		 test	 al, 2
  00031	74 40		 je	 SHORT $LN2@vector
  00033	68 00 00 00 00	 push	 OFFSET ??1tls_base@i3@@UAE@XZ ; i3::tls_base::~tls_base
  00038	ff 76 fc	 push	 DWORD PTR [esi-4]
  0003b	8d 5e fc	 lea	 ebx, DWORD PTR [esi-4]
  0003e	6a 08		 push	 8
  00040	56		 push	 esi
  00041	e8 00 00 00 00	 call	 ??_M@YGXPAXIIP6EX0@Z@Z
  00046	85 ff		 test	 edi, edi
  00048	74 13		 je	 SHORT $LN3@vector
  0004a	8b 0b		 mov	 ecx, DWORD PTR [ebx]
  0004c	8d 0c cd 04 00
	00 00		 lea	 ecx, DWORD PTR [ecx*8+4]
  00053	51		 push	 ecx
  00054	53		 push	 ebx
  00055	e8 00 00 00 00	 call	 ??_V@YAXPAXI@Z		; operator delete[]
  0005a	83 c4 08	 add	 esp, 8
$LN3@vector:
  0005d	8b c3		 mov	 eax, ebx
  0005f	8b 4d f4	 mov	 ecx, DWORD PTR __$EHRec$[ebp]
  00062	64 89 0d 00 00
	00 00		 mov	 DWORD PTR fs:0, ecx
  00069	59		 pop	 ecx
  0006a	5f		 pop	 edi
  0006b	5e		 pop	 esi
  0006c	5b		 pop	 ebx
  0006d	8b e5		 mov	 esp, ebp
  0006f	5d		 pop	 ebp
  00070	c2 04 00	 ret	 4
$LN2@vector:
  00073	c7 06 00 00 00
	00		 mov	 DWORD PTR [esi], OFFSET ??_7tls_base@i3@@6B@
  00079	85 ff		 test	 edi, edi
  0007b	74 0b		 je	 SHORT $LN4@vector
  0007d	6a 08		 push	 8
  0007f	56		 push	 esi
  00080	e8 00 00 00 00	 call	 ??3@YAXPAXI@Z		; operator delete
  00085	83 c4 08	 add	 esp, 8
$LN4@vector:
  00088	8b c6		 mov	 eax, esi
  0008a	8b 4d f4	 mov	 ecx, DWORD PTR __$EHRec$[ebp]
  0008d	64 89 0d 00 00
	00 00		 mov	 DWORD PTR fs:0, ecx
  00094	59		 pop	 ecx
  00095	5f		 pop	 edi
  00096	5e		 pop	 esi
  00097	5b		 pop	 ebx
  00098	8b e5		 mov	 esp, ebp
  0009a	5d		 pop	 ebp
  0009b	c2 04 00	 ret	 4
  0009e	cc		 int	 3
  0009f	cc		 int	 3
  000a0	cc		 int	 3
  000a1	cc		 int	 3
  000a2	cc		 int	 3
_TEXT	ENDS
;	COMDAT text$x
text$x	SEGMENT
__ehhandler$??_Etls_base@i3@@UAEPAXI@Z:
  00000	90		 npad	 1
  00001	90		 npad	 1
  00002	8b 54 24 08	 mov	 edx, DWORD PTR [esp+8]
  00006	8d 42 0c	 lea	 eax, DWORD PTR [edx+12]
  00009	8b 4a f0	 mov	 ecx, DWORD PTR [edx-16]
  0000c	33 c8		 xor	 ecx, eax
  0000e	e8 00 00 00 00	 call	 @__security_check_cookie@4
  00013	b8 00 00 00 00	 mov	 eax, OFFSET __ehfuncinfo$??_Etls_base@i3@@UAEPAXI@Z
  00018	e9 00 00 00 00	 jmp	 ___CxxFrameHandler3
text$x	ENDS
??_Etls_base@i3@@UAEPAXI@Z ENDP				; i3::tls_base::`vector deleting destructor'
; Function compile flags: /Ogtp
;	COMDAT ??_Gtls_base@i3@@UAEPAXI@Z
_TEXT	SEGMENT
___flags$ = 8						; size = 4
??_Gtls_base@i3@@UAEPAXI@Z PROC				; i3::tls_base::`scalar deleting destructor', COMDAT
; _this$ = ecx
  00000	55		 push	 ebp
  00001	8b ec		 mov	 ebp, esp
  00003	f6 45 08 01	 test	 BYTE PTR ___flags$[ebp], 1
  00007	56		 push	 esi
  00008	8b f1		 mov	 esi, ecx
  0000a	c7 06 00 00 00
	00		 mov	 DWORD PTR [esi], OFFSET ??_7tls_base@i3@@6B@
  00010	74 0b		 je	 SHORT $LN5@scalar
  00012	6a 08		 push	 8
  00014	56		 push	 esi
  00015	e8 00 00 00 00	 call	 ??3@YAXPAXI@Z		; operator delete
  0001a	83 c4 08	 add	 esp, 8
$LN5@scalar:
  0001d	8b c6		 mov	 eax, esi
  0001f	5e		 pop	 esi
  00020	5d		 pop	 ebp
  00021	c2 04 00	 ret	 4
??_Gtls_base@i3@@UAEPAXI@Z ENDP				; i3::tls_base::`scalar deleting destructor'
_TEXT	ENDS
; Function compile flags: /Ogtp
; File E:\Proyectos\JuegosOnlineproyectos\PB\pbblow\Piercing Blow Remake\i3Server\include\i3Base\tls\detail\tls_base.h
;	COMDAT ?slot_idx@tls_base@i3@@IBEIXZ
_TEXT	SEGMENT
?slot_idx@tls_base@i3@@IBEIXZ PROC			; i3::tls_base::slot_idx, COMDAT
; _this$ = ecx

; 51   : 		size_t				slot_idx() const { return m_slotidx; }

  00000	8b 41 04	 mov	 eax, DWORD PTR [ecx+4]
  00003	c3		 ret	 0
?slot_idx@tls_base@i3@@IBEIXZ ENDP			; i3::tls_base::slot_idx
_TEXT	ENDS
; Function compile flags: /Ogtp
; File E:\Proyectos\JuegosOnlineproyectos\PB\pbblow\Piercing Blow Remake\i3Server\include\i3Base\tls\detail\tls_base.h
; File E:\Proyectos\JuegosOnlineproyectos\PB\pbblow\Piercing Blow Remake\i3Server\include\i3Base\itl\detail\vector.h
; File E:\Proyectos\JuegosOnlineproyectos\PB\pbblow\Piercing Blow Remake\i3Server\include\i3Base\tls\detail\tls_base.h
;	COMDAT ?get_raw_by_thread_id@tls_base@i3@@IBEPAXK@Z
_TEXT	SEGMENT
_hthread$ = 8						; size = 4
?get_raw_by_thread_id@tls_base@i3@@IBEPAXK@Z PROC	; i3::tls_base::get_raw_by_thread_id, COMDAT
; _this$ = ecx

; 85   : 	{

  00000	55		 push	 ebp
  00001	8b ec		 mov	 ebp, esp

; 87   : 		return td->get_raw_value(m_slotidx);

  00003	8b 55 08	 mov	 edx, DWORD PTR _hthread$[ebp]
  00006	a1 18 00 00 00	 mov	 eax, DWORD PTR ?g_TlsManager@detail_tls@i3@@3Vtls_mgr@12@A+24
; File E:\Proyectos\JuegosOnlineproyectos\PB\pbblow\Piercing Blow Remake\i3Server\include\i3Base\itl\detail\vector.h

; 160  : 		const_reference operator[](size_type Pos) const	{	return (*(m_first + Pos));	}

  0000b	8b 49 04	 mov	 ecx, DWORD PTR [ecx+4]
; File E:\Proyectos\JuegosOnlineproyectos\PB\pbblow\Piercing Blow Remake\i3Server\include\i3Base\tls\detail\tls_base.h

; 87   : 		return td->get_raw_value(m_slotidx);

  0000e	8b 04 90	 mov	 eax, DWORD PTR [eax+edx*4]
  00011	8b 40 14	 mov	 eax, DWORD PTR [eax+20]
  00014	8b 04 88	 mov	 eax, DWORD PTR [eax+ecx*4]

; 88   : 	}

  00017	5d		 pop	 ebp
  00018	c2 04 00	 ret	 4
?get_raw_by_thread_id@tls_base@i3@@IBEPAXK@Z ENDP	; i3::tls_base::get_raw_by_thread_id
_TEXT	ENDS
; Function compile flags: /Ogtp
; File E:\Proyectos\JuegosOnlineproyectos\PB\pbblow\Piercing Blow Remake\i3Server\include\i3Base\tls\detail\tls_base.h
; File E:\Proyectos\JuegosOnlineproyectos\PB\pbblow\Piercing Blow Remake\i3Server\include\i3Base\tls\detail\tls_mgr.inl
; File E:\Proyectos\JuegosOnlineproyectos\PB\pbblow\Piercing Blow Remake\i3Server\include\i3Base\tls\detail\tls_base.h
; File E:\Proyectos\JuegosOnlineproyectos\PB\pbblow\Piercing Blow Remake\i3Server\include\i3Base\tls\detail\tls_mgr.inl
; File E:\Proyectos\JuegosOnlineproyectos\PB\pbblow\Piercing Blow Remake\i3Server\include\i3Base\itl\detail\vector.h
; File E:\Proyectos\JuegosOnlineproyectos\PB\pbblow\Piercing Blow Remake\i3Server\include\i3Base\tls\detail\tls_base.h
;	COMDAT ?get_raw@tls_base@i3@@IBEPAXXZ
_TEXT	SEGMENT
?get_raw@tls_base@i3@@IBEPAXXZ PROC			; i3::tls_base::get_raw, COMDAT
; _this$ = ecx

; 80   : 	{

  00000	56		 push	 esi
; File E:\Proyectos\JuegosOnlineproyectos\PB\pbblow\Piercing Blow Remake\i3Server\include\i3Base\tls\detail\tls_mgr.inl

; 180  : 			return reinterpret_cast<thread_data*>(::TlsGetValue(m_dwTlsIdx));

  00001	ff 35 00 00 00
	00		 push	 DWORD PTR ?g_TlsManager@detail_tls@i3@@3Vtls_mgr@12@A
; File E:\Proyectos\JuegosOnlineproyectos\PB\pbblow\Piercing Blow Remake\i3Server\include\i3Base\tls\detail\tls_base.h

; 80   : 	{

  00007	8b f1		 mov	 esi, ecx
; File E:\Proyectos\JuegosOnlineproyectos\PB\pbblow\Piercing Blow Remake\i3Server\include\i3Base\tls\detail\tls_mgr.inl

; 180  : 			return reinterpret_cast<thread_data*>(::TlsGetValue(m_dwTlsIdx));

  00009	ff 15 00 00 00
	00		 call	 DWORD PTR __imp__TlsGetValue@4
; File E:\Proyectos\JuegosOnlineproyectos\PB\pbblow\Piercing Blow Remake\i3Server\include\i3Base\itl\detail\vector.h

; 160  : 		const_reference operator[](size_type Pos) const	{	return (*(m_first + Pos));	}

  0000f	8b 4e 04	 mov	 ecx, DWORD PTR [esi+4]
; File E:\Proyectos\JuegosOnlineproyectos\PB\pbblow\Piercing Blow Remake\i3Server\include\i3Base\tls\detail\tls_base.h

; 82   : 		return td->get_raw_value(m_slotidx);

  00012	5e		 pop	 esi
  00013	8b 40 14	 mov	 eax, DWORD PTR [eax+20]
  00016	8b 04 88	 mov	 eax, DWORD PTR [eax+ecx*4]

; 83   : 	}

  00019	c3		 ret	 0
?get_raw@tls_base@i3@@IBEPAXXZ ENDP			; i3::tls_base::get_raw
_TEXT	ENDS
; Function compile flags: /Ogtp
; File E:\Proyectos\JuegosOnlineproyectos\PB\pbblow\Piercing Blow Remake\i3Server\include\i3Base\tls\detail\tls_base.h
; File E:\Proyectos\JuegosOnlineproyectos\PB\pbblow\Piercing Blow Remake\i3Server\include\i3Base\tls\detail\tls_mgr.h
; File E:\Proyectos\JuegosOnlineproyectos\PB\pbblow\Piercing Blow Remake\i3Server\include\i3Base\itl\detail\vector.h
; File E:\Proyectos\JuegosOnlineproyectos\PB\pbblow\Piercing Blow Remake\i3Server\include\i3Base\tls\detail\tls_mgr.h
; File E:\Proyectos\JuegosOnlineproyectos\PB\pbblow\Piercing Blow Remake\i3Server\include\i3Base\tls\detail\tls_base.h
;	COMDAT ?get_by_thread_id@tls_base@i3@@IBEPAXK@Z
_TEXT	SEGMENT
_hthread$ = 8						; size = 4
?get_by_thread_id@tls_base@i3@@IBEPAXK@Z PROC		; i3::tls_base::get_by_thread_id, COMDAT
; _this$ = ecx

; 74   : 	{ 

  00000	55		 push	 ebp
  00001	8b ec		 mov	 ebp, esp

; 75   : 		detail_tls::thread_data* td = detail_tls::get_thread_data(hthread);

  00003	a1 18 00 00 00	 mov	 eax, DWORD PTR ?g_TlsManager@detail_tls@i3@@3Vtls_mgr@12@A+24
  00008	8b 55 08	 mov	 edx, DWORD PTR _hthread$[ebp]
  0000b	56		 push	 esi
  0000c	8b 34 90	 mov	 esi, DWORD PTR [eax+edx*4]

; 76   : 		return td->get_value(this, m_slotidx);

  0000f	8b 51 04	 mov	 edx, DWORD PTR [ecx+4]
; File E:\Proyectos\JuegosOnlineproyectos\PB\pbblow\Piercing Blow Remake\i3Server\include\i3Base\tls\detail\tls_mgr.h

; 43   : 			void*				get_value(const tls_base* t, size_t slot) const { return (*this->fn_list[slot])( t, this, slot); }

  00012	52		 push	 edx
  00013	56		 push	 esi
; File E:\Proyectos\JuegosOnlineproyectos\PB\pbblow\Piercing Blow Remake\i3Server\include\i3Base\itl\detail\vector.h

; 160  : 		const_reference operator[](size_type Pos) const	{	return (*(m_first + Pos));	}

  00014	8b 46 04	 mov	 eax, DWORD PTR [esi+4]
; File E:\Proyectos\JuegosOnlineproyectos\PB\pbblow\Piercing Blow Remake\i3Server\include\i3Base\tls\detail\tls_mgr.h

; 43   : 			void*				get_value(const tls_base* t, size_t slot) const { return (*this->fn_list[slot])( t, this, slot); }

  00017	51		 push	 ecx
  00018	8b 04 90	 mov	 eax, DWORD PTR [eax+edx*4]
  0001b	ff d0		 call	 eax
  0001d	83 c4 0c	 add	 esp, 12			; 0000000cH
; File E:\Proyectos\JuegosOnlineproyectos\PB\pbblow\Piercing Blow Remake\i3Server\include\i3Base\tls\detail\tls_base.h

; 76   : 		return td->get_value(this, m_slotidx);

  00020	5e		 pop	 esi

; 77   : 	}

  00021	5d		 pop	 ebp
  00022	c2 04 00	 ret	 4
?get_by_thread_id@tls_base@i3@@IBEPAXK@Z ENDP		; i3::tls_base::get_by_thread_id
_TEXT	ENDS
; Function compile flags: /Ogtp
; File E:\Proyectos\JuegosOnlineproyectos\PB\pbblow\Piercing Blow Remake\i3Server\include\i3Base\tls\detail\tls_base.h
; File E:\Proyectos\JuegosOnlineproyectos\PB\pbblow\Piercing Blow Remake\i3Server\include\i3Base\tls\detail\tls_mgr.inl
; File E:\Proyectos\JuegosOnlineproyectos\PB\pbblow\Piercing Blow Remake\i3Server\include\i3Base\tls\detail\tls_base.h
; File E:\Proyectos\JuegosOnlineproyectos\PB\pbblow\Piercing Blow Remake\i3Server\include\i3Base\tls\detail\tls_mgr.inl
; File E:\Proyectos\JuegosOnlineproyectos\PB\pbblow\Piercing Blow Remake\i3Server\include\i3Base\tls\detail\tls_base.h
; File E:\Proyectos\JuegosOnlineproyectos\PB\pbblow\Piercing Blow Remake\i3Server\include\i3Base\tls\detail\tls_mgr.h
; File E:\Proyectos\JuegosOnlineproyectos\PB\pbblow\Piercing Blow Remake\i3Server\include\i3Base\itl\detail\vector.h
; File E:\Proyectos\JuegosOnlineproyectos\PB\pbblow\Piercing Blow Remake\i3Server\include\i3Base\tls\detail\tls_mgr.h
; File E:\Proyectos\JuegosOnlineproyectos\PB\pbblow\Piercing Blow Remake\i3Server\include\i3Base\tls\detail\tls_base.h
;	COMDAT ?get@tls_base@i3@@IBEPAXXZ
_TEXT	SEGMENT
?get@tls_base@i3@@IBEPAXXZ PROC				; i3::tls_base::get, COMDAT
; _this$ = ecx

; 68   : 	{  

  00000	56		 push	 esi
  00001	57		 push	 edi
; File E:\Proyectos\JuegosOnlineproyectos\PB\pbblow\Piercing Blow Remake\i3Server\include\i3Base\tls\detail\tls_mgr.inl

; 180  : 			return reinterpret_cast<thread_data*>(::TlsGetValue(m_dwTlsIdx));

  00002	ff 35 00 00 00
	00		 push	 DWORD PTR ?g_TlsManager@detail_tls@i3@@3Vtls_mgr@12@A
; File E:\Proyectos\JuegosOnlineproyectos\PB\pbblow\Piercing Blow Remake\i3Server\include\i3Base\tls\detail\tls_base.h

; 68   : 	{  

  00008	8b f9		 mov	 edi, ecx
; File E:\Proyectos\JuegosOnlineproyectos\PB\pbblow\Piercing Blow Remake\i3Server\include\i3Base\tls\detail\tls_mgr.inl

; 180  : 			return reinterpret_cast<thread_data*>(::TlsGetValue(m_dwTlsIdx));

  0000a	ff 15 00 00 00
	00		 call	 DWORD PTR __imp__TlsGetValue@4
; File E:\Proyectos\JuegosOnlineproyectos\PB\pbblow\Piercing Blow Remake\i3Server\include\i3Base\tls\detail\tls_base.h

; 70   : 		return td->get_value(this, m_slotidx);

  00010	8b 77 04	 mov	 esi, DWORD PTR [edi+4]
; File E:\Proyectos\JuegosOnlineproyectos\PB\pbblow\Piercing Blow Remake\i3Server\include\i3Base\tls\detail\tls_mgr.h

; 43   : 			void*				get_value(const tls_base* t, size_t slot) const { return (*this->fn_list[slot])( t, this, slot); }

  00013	56		 push	 esi
  00014	50		 push	 eax
; File E:\Proyectos\JuegosOnlineproyectos\PB\pbblow\Piercing Blow Remake\i3Server\include\i3Base\itl\detail\vector.h

; 160  : 		const_reference operator[](size_type Pos) const	{	return (*(m_first + Pos));	}

  00015	8b 50 04	 mov	 edx, DWORD PTR [eax+4]
; File E:\Proyectos\JuegosOnlineproyectos\PB\pbblow\Piercing Blow Remake\i3Server\include\i3Base\tls\detail\tls_mgr.h

; 43   : 			void*				get_value(const tls_base* t, size_t slot) const { return (*this->fn_list[slot])( t, this, slot); }

  00018	57		 push	 edi
  00019	8b 04 b2	 mov	 eax, DWORD PTR [edx+esi*4]
  0001c	ff d0		 call	 eax
  0001e	83 c4 0c	 add	 esp, 12			; 0000000cH
; File E:\Proyectos\JuegosOnlineproyectos\PB\pbblow\Piercing Blow Remake\i3Server\include\i3Base\tls\detail\tls_base.h

; 70   : 		return td->get_value(this, m_slotidx);

  00021	5f		 pop	 edi
  00022	5e		 pop	 esi

; 71   : 	}

  00023	c3		 ret	 0
?get@tls_base@i3@@IBEPAXXZ ENDP				; i3::tls_base::get
_TEXT	ENDS
; Function compile flags: /Ogtp
; File E:\Proyectos\JuegosOnlineproyectos\PB\pbblow\Piercing Blow Remake\i3Server\include\i3Base\tls\detail\tls_base.h
; File E:\Proyectos\JuegosOnlineproyectos\PB\pbblow\Piercing Blow Remake\i3Server\include\i3Base\itl\detail\vector.h
; File E:\Proyectos\JuegosOnlineproyectos\PB\pbblow\Piercing Blow Remake\i3Server\include\i3Base\tls\detail\tls_base.h
; File E:\Proyectos\JuegosOnlineproyectos\PB\pbblow\Piercing Blow Remake\i3Server\include\i3Base\itl\detail\vector.h
; File E:\Proyectos\JuegosOnlineproyectos\PB\pbblow\Piercing Blow Remake\i3Server\include\i3Base\tls\detail\tls_base.h
; File E:\Proyectos\JuegosOnlineproyectos\PB\pbblow\Piercing Blow Remake\i3Server\include\i3Base\itl\detail\vector.h
; File E:\Proyectos\JuegosOnlineproyectos\PB\pbblow\Piercing Blow Remake\i3Server\include\i3Base\tls\detail\tls_base.h
; File E:\Proyectos\JuegosOnlineproyectos\PB\pbblow\Piercing Blow Remake\i3Server\include\i3Base\itl\detail\vector.h
; File E:\Proyectos\JuegosOnlineproyectos\PB\pbblow\Piercing Blow Remake\i3Server\include\i3Base\tls\detail\tls_base.h
;	COMDAT ??0tls_base@i3@@IAE@XZ
_TEXT	SEGMENT
_tls$ = -4						; size = 4
??0tls_base@i3@@IAE@XZ PROC				; i3::tls_base::tls_base, COMDAT
; _this$ = ecx

; 61   : 	{

  00000	55		 push	 ebp
  00001	8b ec		 mov	 ebp, esp
  00003	51		 push	 ecx
  00004	56		 push	 esi
  00005	8b f1		 mov	 esi, ecx
  00007	57		 push	 edi

; 62   : 		detail_tls::g_TlsManager.PushBackTls(this);

  00008	89 75 fc	 mov	 DWORD PTR _tls$[ebp], esi
  0000b	c7 06 00 00 00
	00		 mov	 DWORD PTR [esi], OFFSET ??_7tls_base@i3@@6B@
; File E:\Proyectos\JuegosOnlineproyectos\PB\pbblow\Piercing Blow Remake\i3Server\include\i3Base\itl\detail\vector.h

; 153  : 		size_type		size() const	{ return m_last - m_first; }

  00011	a1 0c 00 00 00	 mov	 eax, DWORD PTR ?g_TlsManager@detail_tls@i3@@3Vtls_mgr@12@A+12
  00016	2b 05 08 00 00
	00		 sub	 eax, DWORD PTR ?g_TlsManager@detail_tls@i3@@3Vtls_mgr@12@A+8
  0001c	c1 f8 02	 sar	 eax, 2
; File E:\Proyectos\JuegosOnlineproyectos\PB\pbblow\Piercing Blow Remake\i3Server\include\i3Base\tls\detail\tls_base.h

; 60   : 	inline tls_base::tls_base() : m_slotidx( get_num_tls_ptr() )	// ¸ŢŔÎľ˛·ąµĺżˇĽ­¸¸ Ăł¸®ÇĎµµ·Ď...

  0001f	89 46 04	 mov	 DWORD PTR [esi+4], eax
; File E:\Proyectos\JuegosOnlineproyectos\PB\pbblow\Piercing Blow Remake\i3Server\include\i3Base\itl\detail\vector.h

; 153  : 		size_type		size() const	{ return m_last - m_first; }

  00022	8b 3d 0c 00 00
	00		 mov	 edi, DWORD PTR ?g_TlsManager@detail_tls@i3@@3Vtls_mgr@12@A+12
  00028	8b cf		 mov	 ecx, edi

; 132  : 		size_type		capacity() const { return m_end - m_first; }

  0002a	a1 10 00 00 00	 mov	 eax, DWORD PTR ?g_TlsManager@detail_tls@i3@@3Vtls_mgr@12@A+16

; 153  : 		size_type		size() const	{ return m_last - m_first; }

  0002f	2b 0d 08 00 00
	00		 sub	 ecx, DWORD PTR ?g_TlsManager@detail_tls@i3@@3Vtls_mgr@12@A+8

; 132  : 		size_type		capacity() const { return m_end - m_first; }

  00035	2b 05 08 00 00
	00		 sub	 eax, DWORD PTR ?g_TlsManager@detail_tls@i3@@3Vtls_mgr@12@A+8

; 153  : 		size_type		size() const	{ return m_last - m_first; }

  0003b	c1 f9 02	 sar	 ecx, 2

; 132  : 		size_type		capacity() const { return m_end - m_first; }

  0003e	c1 f8 02	 sar	 eax, 2

; 170  : 			if ( size() < capacity() )

  00041	3b c8		 cmp	 ecx, eax
  00043	73 11		 jae	 SHORT $LN12@tls_base

; 171  : 			{
; 172  : 				i3::uninitialized_fill_1(m_last, Val, allocator_base::get() );		//	i3::uninitialized_fill_1( m_last, Val, m_alloc);

  00045	89 37		 mov	 DWORD PTR [edi], esi
; File E:\Proyectos\JuegosOnlineproyectos\PB\pbblow\Piercing Blow Remake\i3Server\include\i3Base\tls\detail\tls_base.h

; 63   : 	}

  00047	8b c6		 mov	 eax, esi
; File E:\Proyectos\JuegosOnlineproyectos\PB\pbblow\Piercing Blow Remake\i3Server\include\i3Base\itl\detail\vector.h

; 173  : 				++m_last;

  00049	83 05 0c 00 00
	00 04		 add	 DWORD PTR ?g_TlsManager@detail_tls@i3@@3Vtls_mgr@12@A+12, 4
  00050	5f		 pop	 edi
; File E:\Proyectos\JuegosOnlineproyectos\PB\pbblow\Piercing Blow Remake\i3Server\include\i3Base\tls\detail\tls_base.h

; 63   : 	}

  00051	5e		 pop	 esi
  00052	8b e5		 mov	 esp, ebp
  00054	5d		 pop	 ebp
  00055	c3		 ret	 0
$LN12@tls_base:
; File E:\Proyectos\JuegosOnlineproyectos\PB\pbblow\Piercing Blow Remake\i3Server\include\i3Base\itl\detail\vector.h

; 176  : 				insert_1(end(), Val);

  00056	8d 45 fc	 lea	 eax, DWORD PTR _tls$[ebp]
  00059	b9 04 00 00 00	 mov	 ecx, OFFSET ?g_TlsManager@detail_tls@i3@@3Vtls_mgr@12@A+4
  0005e	50		 push	 eax
  0005f	57		 push	 edi
  00060	e8 00 00 00 00	 call	 ?insert_1@?$vector@PAVtls_base@i3@@V?$heap_allocator@PAVtls_base@i3@@@2@@i3@@AAEXPBQAVtls_base@2@ABQAV32@@Z ; i3::vector<i3::tls_base *,i3::heap_allocator<i3::tls_base *> >::insert_1
  00065	5f		 pop	 edi
; File E:\Proyectos\JuegosOnlineproyectos\PB\pbblow\Piercing Blow Remake\i3Server\include\i3Base\tls\detail\tls_base.h

; 63   : 	}

  00066	8b c6		 mov	 eax, esi
  00068	5e		 pop	 esi
  00069	8b e5		 mov	 esp, ebp
  0006b	5d		 pop	 ebp
  0006c	c3		 ret	 0
??0tls_base@i3@@IAE@XZ ENDP				; i3::tls_base::tls_base
_TEXT	ENDS
; Function compile flags: /Ogtp
; File E:\Proyectos\JuegosOnlineproyectos\PB\pbblow\Piercing Blow Remake\i3Server\include\i3Base\tls\detail\tls_base.h
;	COMDAT ??1tls_base@i3@@UAE@XZ
_TEXT	SEGMENT
??1tls_base@i3@@UAE@XZ PROC				; i3::tls_base::~tls_base, COMDAT
; _this$ = ecx

; 65   : 	__forceinline tls_base::~tls_base() {}

  00000	c7 01 00 00 00
	00		 mov	 DWORD PTR [ecx], OFFSET ??_7tls_base@i3@@6B@
  00006	c3		 ret	 0
??1tls_base@i3@@UAE@XZ ENDP				; i3::tls_base::~tls_base
_TEXT	ENDS
; Function compile flags: /Ogtp
; File E:\Proyectos\JuegosOnlineproyectos\PB\pbblow\Piercing Blow Remake\i3Server\include\i3Base\tls\detail\tls_mgr.inl
; File E:\Proyectos\JuegosOnlineproyectos\PB\pbblow\Piercing Blow Remake\i3Server\include\i3Base\memory\memory_alloc.inl
; File E:\Proyectos\JuegosOnlineproyectos\PB\pbblow\Piercing Blow Remake\i3Server\include\i3Base\memory\memory_aligned_apply.h
; File E:\Proyectos\JuegosOnlineproyectos\PB\pbblow\Piercing Blow Remake\i3Server\include\i3Base\memory\memory_alloc.inl
; File E:\Proyectos\JuegosOnlineproyectos\PB\pbblow\Piercing Blow Remake\i3Server\include\i3Base\tls\detail\tls_mgr.inl
;	COMDAT ?tls_safe_aligned_free@i3@@YAXKPAX@Z
_TEXT	SEGMENT
_hThread$ = 8						; size = 4
_ptr$ = 12						; size = 4
?tls_safe_aligned_free@i3@@YAXKPAX@Z PROC		; i3::tls_safe_aligned_free, COMDAT

; 114  : 	{

  00000	55		 push	 ebp
  00001	8b ec		 mov	 ebp, esp
; File E:\Proyectos\JuegosOnlineproyectos\PB\pbblow\Piercing Blow Remake\i3Server\include\i3Base\memory\memory_alloc.inl

; 108  : 		if (!data) return;

  00003	8b 45 0c	 mov	 eax, DWORD PTR _ptr$[ebp]
  00006	85 c0		 test	 eax, eax
  00008	74 1c		 je	 SHORT $LN11@tls_safe_a

; 109  : 		::HeapFree(HANDLE(h), 0, get_raw_data_from_aligned_malloc(data) );

  0000a	8b 4d 08	 mov	 ecx, DWORD PTR _hThread$[ebp]
; File E:\Proyectos\JuegosOnlineproyectos\PB\pbblow\Piercing Blow Remake\i3Server\include\i3Base\memory\memory_aligned_apply.h

; 33   : 		ptr = ( ptr & ~( sizeof(void*) -1 ) ) - sizeof(void*);

  0000d	83 e0 fc	 and	 eax, -4			; fffffffcH
; File E:\Proyectos\JuegosOnlineproyectos\PB\pbblow\Piercing Blow Remake\i3Server\include\i3Base\memory\memory_alloc.inl

; 109  : 		::HeapFree(HANDLE(h), 0, get_raw_data_from_aligned_malloc(data) );

  00010	ff 70 fc	 push	 DWORD PTR [eax-4]
  00013	a1 18 00 00 00	 mov	 eax, DWORD PTR ?g_TlsManager@detail_tls@i3@@3Vtls_mgr@12@A+24
  00018	6a 00		 push	 0
  0001a	8b 04 88	 mov	 eax, DWORD PTR [eax+ecx*4]
  0001d	ff 70 24	 push	 DWORD PTR [eax+36]
  00020	ff 15 00 00 00
	00		 call	 DWORD PTR __imp__HeapFree@12
$LN11@tls_safe_a:
; File E:\Proyectos\JuegosOnlineproyectos\PB\pbblow\Piercing Blow Remake\i3Server\include\i3Base\tls\detail\tls_mgr.inl

; 116  : 	}

  00026	5d		 pop	 ebp
  00027	c3		 ret	 0
?tls_safe_aligned_free@i3@@YAXKPAX@Z ENDP		; i3::tls_safe_aligned_free
_TEXT	ENDS
; Function compile flags: /Ogtp
; File E:\Proyectos\JuegosOnlineproyectos\PB\pbblow\Piercing Blow Remake\i3Server\include\i3Base\tls\detail\tls_mgr.inl
; File E:\Proyectos\JuegosOnlineproyectos\PB\pbblow\Piercing Blow Remake\i3Server\include\i3Base\memory\calculate_adjusted_align.h
; File E:\Proyectos\JuegosOnlineproyectos\PB\pbblow\Piercing Blow Remake\i3Server\include\i3Base\tls\detail\tls_mgr.inl
; File E:\Proyectos\JuegosOnlineproyectos\PB\pbblow\Piercing Blow Remake\i3Server\include\i3Base\memory\calculate_adjusted_align.h
; File E:\Proyectos\JuegosOnlineproyectos\PB\pbblow\Piercing Blow Remake\i3Server\include\i3Base\tls\detail\tls_mgr.inl
; File E:\Proyectos\JuegosOnlineproyectos\PB\pbblow\Piercing Blow Remake\i3Server\include\i3Base\memory\memory_aligned_apply.h
; File E:\Proyectos\JuegosOnlineproyectos\PB\pbblow\Piercing Blow Remake\i3Server\include\i3Base\memory\memory_alloc.inl
; File E:\Proyectos\JuegosOnlineproyectos\PB\pbblow\Piercing Blow Remake\i3Server\include\i3Base\memory\memory_aligned_apply.h
; File E:\Proyectos\JuegosOnlineproyectos\PB\pbblow\Piercing Blow Remake\i3Server\include\i3Base\tls\detail\tls_mgr.inl
; File E:\Proyectos\JuegosOnlineproyectos\PB\pbblow\Piercing Blow Remake\i3Server\include\i3Base\memory\memory_aligned_apply.h
; File E:\Proyectos\JuegosOnlineproyectos\PB\pbblow\Piercing Blow Remake\i3Server\include\i3Base\tls\detail\tls_mgr.inl
;	COMDAT ?tls_safe_aligned_malloc@i3@@YAPAXKII@Z
_TEXT	SEGMENT
_hThread$ = 8						; size = 4
_n$ = 12						; size = 4
_align$ = 16						; size = 4
?tls_safe_aligned_malloc@i3@@YAPAXKII@Z PROC		; i3::tls_safe_aligned_malloc, COMDAT

; 109  : 	{

  00000	55		 push	 ebp
  00001	8b ec		 mov	 ebp, esp

; 151  : 		void*		thread_data::tls_safe_aligned_malloc(size_t n, size_t align) const { return i3::heap_aligned_malloc(this->safe_heap, n, align); }

  00003	8b 4d 08	 mov	 ecx, DWORD PTR _hThread$[ebp]
  00006	a1 18 00 00 00	 mov	 eax, DWORD PTR ?g_TlsManager@detail_tls@i3@@3Vtls_mgr@12@A+24

; 109  : 	{

  0000b	56		 push	 esi
; File E:\Proyectos\JuegosOnlineproyectos\PB\pbblow\Piercing Blow Remake\i3Server\include\i3Base\memory\calculate_adjusted_align.h

; 13   : 	size_t  calculate_adjusted_align( size_t align) {	return ( align > sizeof(void*) ) ? align : sizeof(void*); }

  0000c	be 04 00 00 00	 mov	 esi, 4
  00011	39 75 10	 cmp	 DWORD PTR _align$[ebp], esi
; File E:\Proyectos\JuegosOnlineproyectos\PB\pbblow\Piercing Blow Remake\i3Server\include\i3Base\tls\detail\tls_mgr.inl

; 151  : 		void*		thread_data::tls_safe_aligned_malloc(size_t n, size_t align) const { return i3::heap_aligned_malloc(this->safe_heap, n, align); }

  00014	8b 04 88	 mov	 eax, DWORD PTR [eax+ecx*4]
; File E:\Proyectos\JuegosOnlineproyectos\PB\pbblow\Piercing Blow Remake\i3Server\include\i3Base\memory\calculate_adjusted_align.h

; 13   : 	size_t  calculate_adjusted_align( size_t align) {	return ( align > sizeof(void*) ) ? align : sizeof(void*); }

  00017	0f 47 75 10	 cmova	 esi, DWORD PTR _align$[ebp]
; File E:\Proyectos\JuegosOnlineproyectos\PB\pbblow\Piercing Blow Remake\i3Server\include\i3Base\tls\detail\tls_mgr.inl

; 151  : 		void*		thread_data::tls_safe_aligned_malloc(size_t n, size_t align) const { return i3::heap_aligned_malloc(this->safe_heap, n, align); }

  0001b	8b 48 24	 mov	 ecx, DWORD PTR [eax+36]
; File E:\Proyectos\JuegosOnlineproyectos\PB\pbblow\Piercing Blow Remake\i3Server\include\i3Base\memory\memory_aligned_apply.h

; 19   : 	size_t	calculate_aligned_malloc_size(size_t size, size_t adjusted_align) { return sizeof(void*) + size + adjusted_align;  }

  0001e	8b 45 0c	 mov	 eax, DWORD PTR _n$[ebp]
  00021	83 c0 04	 add	 eax, 4
  00024	03 c6		 add	 eax, esi
; File E:\Proyectos\JuegosOnlineproyectos\PB\pbblow\Piercing Blow Remake\i3Server\include\i3Base\memory\memory_alloc.inl

; 101  : 		void* data = ::HeapAlloc(HANDLE(h), 0, calculate_aligned_malloc_size(size, align) );

  00026	50		 push	 eax
  00027	6a 00		 push	 0
  00029	51		 push	 ecx
  0002a	ff 15 00 00 00
	00		 call	 DWORD PTR __imp__HeapAlloc@12
; File E:\Proyectos\JuegosOnlineproyectos\PB\pbblow\Piercing Blow Remake\i3Server\include\i3Base\memory\memory_aligned_apply.h

; 24   : 		uintptr_t result = ( uintptr_t(raw_data) + sizeof(void*) + adjusted_align - 1 ) & ~(adjusted_align - 1);

  00030	8d 4e 03	 lea	 ecx, DWORD PTR [esi+3]
  00033	f7 de		 neg	 esi
  00035	03 c8		 add	 ecx, eax
  00037	23 ce		 and	 ecx, esi
; File E:\Proyectos\JuegosOnlineproyectos\PB\pbblow\Piercing Blow Remake\i3Server\include\i3Base\tls\detail\tls_mgr.inl

; 110  : 		return detail_tls::get_thread_data(hThread)->tls_safe_aligned_malloc(n, align);

  00039	5e		 pop	 esi
; File E:\Proyectos\JuegosOnlineproyectos\PB\pbblow\Piercing Blow Remake\i3Server\include\i3Base\memory\memory_aligned_apply.h

; 25   : 		((uintptr_t*)result)[-1] = (uintptr_t)raw_data;

  0003a	89 41 fc	 mov	 DWORD PTR [ecx-4], eax
; File E:\Proyectos\JuegosOnlineproyectos\PB\pbblow\Piercing Blow Remake\i3Server\include\i3Base\tls\detail\tls_mgr.inl

; 110  : 		return detail_tls::get_thread_data(hThread)->tls_safe_aligned_malloc(n, align);

  0003d	8b c1		 mov	 eax, ecx

; 111  : 	}

  0003f	5d		 pop	 ebp
  00040	c3		 ret	 0
?tls_safe_aligned_malloc@i3@@YAPAXKII@Z ENDP		; i3::tls_safe_aligned_malloc
_TEXT	ENDS
; Function compile flags: /Ogtp
; File E:\Proyectos\JuegosOnlineproyectos\PB\pbblow\Piercing Blow Remake\i3Server\include\i3Base\tls\detail\tls_mgr.inl
; File E:\Proyectos\JuegosOnlineproyectos\PB\pbblow\Piercing Blow Remake\i3Server\include\i3Base\memory\memory_alloc.inl
; File E:\Proyectos\JuegosOnlineproyectos\PB\pbblow\Piercing Blow Remake\i3Server\include\i3Base\memory\memory_aligned_apply.h
; File E:\Proyectos\JuegosOnlineproyectos\PB\pbblow\Piercing Blow Remake\i3Server\include\i3Base\memory\memory_alloc.inl
; File E:\Proyectos\JuegosOnlineproyectos\PB\pbblow\Piercing Blow Remake\i3Server\include\i3Base\tls\detail\tls_mgr.inl
;	COMDAT ?tls_safe_aligned_free@i3@@YAXPAX@Z
_TEXT	SEGMENT
_ptr$ = 8						; size = 4
?tls_safe_aligned_free@i3@@YAXPAX@Z PROC		; i3::tls_safe_aligned_free, COMDAT

; 104  : 	{

  00000	55		 push	 ebp
  00001	8b ec		 mov	 ebp, esp

; 180  : 			return reinterpret_cast<thread_data*>(::TlsGetValue(m_dwTlsIdx));

  00003	ff 35 00 00 00
	00		 push	 DWORD PTR ?g_TlsManager@detail_tls@i3@@3Vtls_mgr@12@A
  00009	ff 15 00 00 00
	00		 call	 DWORD PTR __imp__TlsGetValue@4
; File E:\Proyectos\JuegosOnlineproyectos\PB\pbblow\Piercing Blow Remake\i3Server\include\i3Base\memory\memory_alloc.inl

; 108  : 		if (!data) return;

  0000f	8b 4d 08	 mov	 ecx, DWORD PTR _ptr$[ebp]
  00012	85 c9		 test	 ecx, ecx
  00014	74 11		 je	 SHORT $LN9@tls_safe_a
; File E:\Proyectos\JuegosOnlineproyectos\PB\pbblow\Piercing Blow Remake\i3Server\include\i3Base\memory\memory_aligned_apply.h

; 33   : 		ptr = ( ptr & ~( sizeof(void*) -1 ) ) - sizeof(void*);

  00016	83 e1 fc	 and	 ecx, -4			; fffffffcH
; File E:\Proyectos\JuegosOnlineproyectos\PB\pbblow\Piercing Blow Remake\i3Server\include\i3Base\memory\memory_alloc.inl

; 109  : 		::HeapFree(HANDLE(h), 0, get_raw_data_from_aligned_malloc(data) );

  00019	ff 71 fc	 push	 DWORD PTR [ecx-4]
  0001c	6a 00		 push	 0
  0001e	ff 70 24	 push	 DWORD PTR [eax+36]
  00021	ff 15 00 00 00
	00		 call	 DWORD PTR __imp__HeapFree@12
$LN9@tls_safe_a:
; File E:\Proyectos\JuegosOnlineproyectos\PB\pbblow\Piercing Blow Remake\i3Server\include\i3Base\tls\detail\tls_mgr.inl

; 106  : 	}

  00027	5d		 pop	 ebp
  00028	c3		 ret	 0
?tls_safe_aligned_free@i3@@YAXPAX@Z ENDP		; i3::tls_safe_aligned_free
_TEXT	ENDS
; Function compile flags: /Ogtp
; File E:\Proyectos\JuegosOnlineproyectos\PB\pbblow\Piercing Blow Remake\i3Server\include\i3Base\tls\detail\tls_mgr.inl
; File E:\Proyectos\JuegosOnlineproyectos\PB\pbblow\Piercing Blow Remake\i3Server\include\i3Base\memory\calculate_adjusted_align.h
; File E:\Proyectos\JuegosOnlineproyectos\PB\pbblow\Piercing Blow Remake\i3Server\include\i3Base\tls\detail\tls_mgr.inl
; File E:\Proyectos\JuegosOnlineproyectos\PB\pbblow\Piercing Blow Remake\i3Server\include\i3Base\memory\calculate_adjusted_align.h
; File E:\Proyectos\JuegosOnlineproyectos\PB\pbblow\Piercing Blow Remake\i3Server\include\i3Base\memory\memory_aligned_apply.h
; File E:\Proyectos\JuegosOnlineproyectos\PB\pbblow\Piercing Blow Remake\i3Server\include\i3Base\memory\memory_alloc.inl
; File E:\Proyectos\JuegosOnlineproyectos\PB\pbblow\Piercing Blow Remake\i3Server\include\i3Base\memory\memory_aligned_apply.h
; File E:\Proyectos\JuegosOnlineproyectos\PB\pbblow\Piercing Blow Remake\i3Server\include\i3Base\tls\detail\tls_mgr.inl
; File E:\Proyectos\JuegosOnlineproyectos\PB\pbblow\Piercing Blow Remake\i3Server\include\i3Base\memory\memory_aligned_apply.h
; File E:\Proyectos\JuegosOnlineproyectos\PB\pbblow\Piercing Blow Remake\i3Server\include\i3Base\tls\detail\tls_mgr.inl
;	COMDAT ?tls_safe_aligned_malloc@i3@@YAPAXII@Z
_TEXT	SEGMENT
_n$ = 8							; size = 4
_align$ = 12						; size = 4
?tls_safe_aligned_malloc@i3@@YAPAXII@Z PROC		; i3::tls_safe_aligned_malloc, COMDAT

; 99   : 	{

  00000	55		 push	 ebp
  00001	8b ec		 mov	 ebp, esp
  00003	56		 push	 esi

; 180  : 			return reinterpret_cast<thread_data*>(::TlsGetValue(m_dwTlsIdx));

  00004	ff 35 00 00 00
	00		 push	 DWORD PTR ?g_TlsManager@detail_tls@i3@@3Vtls_mgr@12@A
  0000a	ff 15 00 00 00
	00		 call	 DWORD PTR __imp__TlsGetValue@4
; File E:\Proyectos\JuegosOnlineproyectos\PB\pbblow\Piercing Blow Remake\i3Server\include\i3Base\memory\calculate_adjusted_align.h

; 13   : 	size_t  calculate_adjusted_align( size_t align) {	return ( align > sizeof(void*) ) ? align : sizeof(void*); }

  00010	be 04 00 00 00	 mov	 esi, 4
  00015	39 75 0c	 cmp	 DWORD PTR _align$[ebp], esi
; File E:\Proyectos\JuegosOnlineproyectos\PB\pbblow\Piercing Blow Remake\i3Server\include\i3Base\tls\detail\tls_mgr.inl

; 151  : 		void*		thread_data::tls_safe_aligned_malloc(size_t n, size_t align) const { return i3::heap_aligned_malloc(this->safe_heap, n, align); }

  00018	8b 48 24	 mov	 ecx, DWORD PTR [eax+36]
; File E:\Proyectos\JuegosOnlineproyectos\PB\pbblow\Piercing Blow Remake\i3Server\include\i3Base\memory\calculate_adjusted_align.h

; 13   : 	size_t  calculate_adjusted_align( size_t align) {	return ( align > sizeof(void*) ) ? align : sizeof(void*); }

  0001b	0f 47 75 0c	 cmova	 esi, DWORD PTR _align$[ebp]
; File E:\Proyectos\JuegosOnlineproyectos\PB\pbblow\Piercing Blow Remake\i3Server\include\i3Base\memory\memory_aligned_apply.h

; 19   : 	size_t	calculate_aligned_malloc_size(size_t size, size_t adjusted_align) { return sizeof(void*) + size + adjusted_align;  }

  0001f	8b 45 08	 mov	 eax, DWORD PTR _n$[ebp]
  00022	83 c0 04	 add	 eax, 4
  00025	03 c6		 add	 eax, esi
; File E:\Proyectos\JuegosOnlineproyectos\PB\pbblow\Piercing Blow Remake\i3Server\include\i3Base\memory\memory_alloc.inl

; 101  : 		void* data = ::HeapAlloc(HANDLE(h), 0, calculate_aligned_malloc_size(size, align) );

  00027	50		 push	 eax
  00028	6a 00		 push	 0
  0002a	51		 push	 ecx
  0002b	ff 15 00 00 00
	00		 call	 DWORD PTR __imp__HeapAlloc@12
; File E:\Proyectos\JuegosOnlineproyectos\PB\pbblow\Piercing Blow Remake\i3Server\include\i3Base\memory\memory_aligned_apply.h

; 24   : 		uintptr_t result = ( uintptr_t(raw_data) + sizeof(void*) + adjusted_align - 1 ) & ~(adjusted_align - 1);

  00031	8d 4e 03	 lea	 ecx, DWORD PTR [esi+3]
  00034	f7 de		 neg	 esi
  00036	03 c8		 add	 ecx, eax
  00038	23 ce		 and	 ecx, esi
; File E:\Proyectos\JuegosOnlineproyectos\PB\pbblow\Piercing Blow Remake\i3Server\include\i3Base\tls\detail\tls_mgr.inl

; 100  : 		return detail_tls::get_curr_thread_data()->tls_safe_aligned_malloc(n, align);

  0003a	5e		 pop	 esi
; File E:\Proyectos\JuegosOnlineproyectos\PB\pbblow\Piercing Blow Remake\i3Server\include\i3Base\memory\memory_aligned_apply.h

; 25   : 		((uintptr_t*)result)[-1] = (uintptr_t)raw_data;

  0003b	89 41 fc	 mov	 DWORD PTR [ecx-4], eax
; File E:\Proyectos\JuegosOnlineproyectos\PB\pbblow\Piercing Blow Remake\i3Server\include\i3Base\tls\detail\tls_mgr.inl

; 100  : 		return detail_tls::get_curr_thread_data()->tls_safe_aligned_malloc(n, align);

  0003e	8b c1		 mov	 eax, ecx

; 101  : 	}

  00040	5d		 pop	 ebp
  00041	c3		 ret	 0
?tls_safe_aligned_malloc@i3@@YAPAXII@Z ENDP		; i3::tls_safe_aligned_malloc
_TEXT	ENDS
; Function compile flags: /Ogtp
; File E:\Proyectos\JuegosOnlineproyectos\PB\pbblow\Piercing Blow Remake\i3Server\include\i3Base\tls\detail\tls_mgr.inl
; File E:\Proyectos\JuegosOnlineproyectos\PB\pbblow\Piercing Blow Remake\i3Server\include\i3Base\memory\memory_alloc.inl
; File E:\Proyectos\JuegosOnlineproyectos\PB\pbblow\Piercing Blow Remake\i3Server\include\i3Base\tls\detail\tls_mgr.inl
;	COMDAT ?tls_safe_free@i3@@YAXKPAX@Z
_TEXT	SEGMENT
_hthread$ = 8						; size = 4
_ptr$ = 12						; size = 4
?tls_safe_free@i3@@YAXKPAX@Z PROC			; i3::tls_safe_free, COMDAT

; 94   : 	{

  00000	55		 push	 ebp
  00001	8b ec		 mov	 ebp, esp
; File E:\Proyectos\JuegosOnlineproyectos\PB\pbblow\Piercing Blow Remake\i3Server\include\i3Base\memory\memory_alloc.inl

; 93   : 		if (!data) return;

  00003	8b 45 0c	 mov	 eax, DWORD PTR _ptr$[ebp]
  00006	85 c0		 test	 eax, eax
  00008	74 17		 je	 SHORT $LN11@tls_safe_f

; 94   : 		::HeapFree(HANDLE(h), 0, data);		// łÎ°Ë»çÁ¤ŔÇ°ˇ ľř´Ů..

  0000a	8b 4d 08	 mov	 ecx, DWORD PTR _hthread$[ebp]
  0000d	50		 push	 eax
  0000e	a1 18 00 00 00	 mov	 eax, DWORD PTR ?g_TlsManager@detail_tls@i3@@3Vtls_mgr@12@A+24
  00013	6a 00		 push	 0
  00015	8b 04 88	 mov	 eax, DWORD PTR [eax+ecx*4]
  00018	ff 70 24	 push	 DWORD PTR [eax+36]
  0001b	ff 15 00 00 00
	00		 call	 DWORD PTR __imp__HeapFree@12
$LN11@tls_safe_f:
; File E:\Proyectos\JuegosOnlineproyectos\PB\pbblow\Piercing Blow Remake\i3Server\include\i3Base\tls\detail\tls_mgr.inl

; 96   : 	}

  00021	5d		 pop	 ebp
  00022	c3		 ret	 0
?tls_safe_free@i3@@YAXKPAX@Z ENDP			; i3::tls_safe_free
_TEXT	ENDS
; Function compile flags: /Ogtp
; File E:\Proyectos\JuegosOnlineproyectos\PB\pbblow\Piercing Blow Remake\i3Server\include\i3Base\tls\detail\tls_mgr.inl
; File E:\Proyectos\JuegosOnlineproyectos\PB\pbblow\Piercing Blow Remake\i3Server\include\i3Base\memory\memory_alloc.inl
; File E:\Proyectos\JuegosOnlineproyectos\PB\pbblow\Piercing Blow Remake\i3Server\include\i3Base\tls\detail\tls_mgr.inl
; File E:\Proyectos\JuegosOnlineproyectos\PB\pbblow\Piercing Blow Remake\i3Server\include\i3Base\memory\memory_alloc.inl
; File E:\Proyectos\JuegosOnlineproyectos\PB\pbblow\Piercing Blow Remake\i3Server\include\i3Base\tls\detail\tls_mgr.inl
;	COMDAT ?tls_safe_malloc@i3@@YAPAXKI@Z
_TEXT	SEGMENT
_hthread$ = 8						; size = 4
_n$ = 12						; size = 4
?tls_safe_malloc@i3@@YAPAXKI@Z PROC			; i3::tls_safe_malloc, COMDAT

; 89   : 	{

  00000	55		 push	 ebp
  00001	8b ec		 mov	 ebp, esp

; 145  : 		void*		thread_data::tls_safe_malloc(size_t n) const {	return i3::heap_malloc(this->safe_heap, n);	}

  00003	8b 4d 08	 mov	 ecx, DWORD PTR _hthread$[ebp]
  00006	a1 18 00 00 00	 mov	 eax, DWORD PTR ?g_TlsManager@detail_tls@i3@@3Vtls_mgr@12@A+24
; File E:\Proyectos\JuegosOnlineproyectos\PB\pbblow\Piercing Blow Remake\i3Server\include\i3Base\memory\memory_alloc.inl

; 87   : 		return ::HeapAlloc(HANDLE(h), 0, size);

  0000b	ff 75 0c	 push	 DWORD PTR _n$[ebp]
  0000e	6a 00		 push	 0
; File E:\Proyectos\JuegosOnlineproyectos\PB\pbblow\Piercing Blow Remake\i3Server\include\i3Base\tls\detail\tls_mgr.inl

; 145  : 		void*		thread_data::tls_safe_malloc(size_t n) const {	return i3::heap_malloc(this->safe_heap, n);	}

  00010	8b 04 88	 mov	 eax, DWORD PTR [eax+ecx*4]
; File E:\Proyectos\JuegosOnlineproyectos\PB\pbblow\Piercing Blow Remake\i3Server\include\i3Base\memory\memory_alloc.inl

; 87   : 		return ::HeapAlloc(HANDLE(h), 0, size);

  00013	ff 70 24	 push	 DWORD PTR [eax+36]
  00016	ff 15 00 00 00
	00		 call	 DWORD PTR __imp__HeapAlloc@12
; File E:\Proyectos\JuegosOnlineproyectos\PB\pbblow\Piercing Blow Remake\i3Server\include\i3Base\tls\detail\tls_mgr.inl

; 91   : 	}

  0001c	5d		 pop	 ebp
  0001d	c3		 ret	 0
?tls_safe_malloc@i3@@YAPAXKI@Z ENDP			; i3::tls_safe_malloc
_TEXT	ENDS
; Function compile flags: /Ogtp
; File E:\Proyectos\JuegosOnlineproyectos\PB\pbblow\Piercing Blow Remake\i3Server\include\i3Base\tls\detail\tls_mgr.inl
; File E:\Proyectos\JuegosOnlineproyectos\PB\pbblow\Piercing Blow Remake\i3Server\include\i3Base\memory\memory_alloc.inl
; File E:\Proyectos\JuegosOnlineproyectos\PB\pbblow\Piercing Blow Remake\i3Server\include\i3Base\tls\detail\tls_mgr.inl
;	COMDAT ?tls_safe_free@i3@@YAXPAX@Z
_TEXT	SEGMENT
_ptr$ = 8						; size = 4
?tls_safe_free@i3@@YAXPAX@Z PROC			; i3::tls_safe_free, COMDAT

; 84   : 	{

  00000	55		 push	 ebp
  00001	8b ec		 mov	 ebp, esp

; 180  : 			return reinterpret_cast<thread_data*>(::TlsGetValue(m_dwTlsIdx));

  00003	ff 35 00 00 00
	00		 push	 DWORD PTR ?g_TlsManager@detail_tls@i3@@3Vtls_mgr@12@A
  00009	ff 15 00 00 00
	00		 call	 DWORD PTR __imp__TlsGetValue@4
; File E:\Proyectos\JuegosOnlineproyectos\PB\pbblow\Piercing Blow Remake\i3Server\include\i3Base\memory\memory_alloc.inl

; 93   : 		if (!data) return;

  0000f	8b 4d 08	 mov	 ecx, DWORD PTR _ptr$[ebp]
  00012	85 c9		 test	 ecx, ecx
  00014	74 0c		 je	 SHORT $LN9@tls_safe_f

; 94   : 		::HeapFree(HANDLE(h), 0, data);		// łÎ°Ë»çÁ¤ŔÇ°ˇ ľř´Ů..

  00016	51		 push	 ecx
  00017	6a 00		 push	 0
  00019	ff 70 24	 push	 DWORD PTR [eax+36]
  0001c	ff 15 00 00 00
	00		 call	 DWORD PTR __imp__HeapFree@12
$LN9@tls_safe_f:
; File E:\Proyectos\JuegosOnlineproyectos\PB\pbblow\Piercing Blow Remake\i3Server\include\i3Base\tls\detail\tls_mgr.inl

; 86   : 	}

  00022	5d		 pop	 ebp
  00023	c3		 ret	 0
?tls_safe_free@i3@@YAXPAX@Z ENDP			; i3::tls_safe_free
_TEXT	ENDS
; Function compile flags: /Ogtp
; File E:\Proyectos\JuegosOnlineproyectos\PB\pbblow\Piercing Blow Remake\i3Server\include\i3Base\tls\detail\tls_mgr.inl
; File E:\Proyectos\JuegosOnlineproyectos\PB\pbblow\Piercing Blow Remake\i3Server\include\i3Base\memory\memory_alloc.inl
; File E:\Proyectos\JuegosOnlineproyectos\PB\pbblow\Piercing Blow Remake\i3Server\include\i3Base\tls\detail\tls_mgr.inl
;	COMDAT ?tls_safe_malloc@i3@@YAPAXI@Z
_TEXT	SEGMENT
_n$ = 8							; size = 4
?tls_safe_malloc@i3@@YAPAXI@Z PROC			; i3::tls_safe_malloc, COMDAT

; 79   : 	{

  00000	55		 push	 ebp
  00001	8b ec		 mov	 ebp, esp

; 180  : 			return reinterpret_cast<thread_data*>(::TlsGetValue(m_dwTlsIdx));

  00003	ff 35 00 00 00
	00		 push	 DWORD PTR ?g_TlsManager@detail_tls@i3@@3Vtls_mgr@12@A
  00009	ff 15 00 00 00
	00		 call	 DWORD PTR __imp__TlsGetValue@4
; File E:\Proyectos\JuegosOnlineproyectos\PB\pbblow\Piercing Blow Remake\i3Server\include\i3Base\memory\memory_alloc.inl

; 87   : 		return ::HeapAlloc(HANDLE(h), 0, size);

  0000f	ff 75 08	 push	 DWORD PTR _n$[ebp]
  00012	6a 00		 push	 0
  00014	ff 70 24	 push	 DWORD PTR [eax+36]
  00017	ff 15 00 00 00
	00		 call	 DWORD PTR __imp__HeapAlloc@12
; File E:\Proyectos\JuegosOnlineproyectos\PB\pbblow\Piercing Blow Remake\i3Server\include\i3Base\tls\detail\tls_mgr.inl

; 81   : 	}

  0001d	5d		 pop	 ebp
  0001e	c3		 ret	 0
?tls_safe_malloc@i3@@YAPAXI@Z ENDP			; i3::tls_safe_malloc
_TEXT	ENDS
; Function compile flags: /Ogtp
; File E:\Proyectos\JuegosOnlineproyectos\PB\pbblow\Piercing Blow Remake\i3Server\include\i3Base\tls\detail\tls_mgr.inl
; File E:\Proyectos\JuegosOnlineproyectos\PB\pbblow\Piercing Blow Remake\i3Server\include\i3Base\memory\memory_alloc.inl
; File E:\Proyectos\JuegosOnlineproyectos\PB\pbblow\Piercing Blow Remake\i3Server\include\i3Base\memory\memory_aligned_apply.h
; File E:\Proyectos\JuegosOnlineproyectos\PB\pbblow\Piercing Blow Remake\i3Server\include\i3Base\memory\memory_alloc.inl
; File E:\Proyectos\JuegosOnlineproyectos\PB\pbblow\Piercing Blow Remake\i3Server\include\i3Base\tls\detail\tls_mgr.inl
;	COMDAT ?tls_aligned_free@i3@@YAXKPAX@Z
_TEXT	SEGMENT
_hThread$ = 8						; size = 4
_ptr$ = 12						; size = 4
?tls_aligned_free@i3@@YAXKPAX@Z PROC			; i3::tls_aligned_free, COMDAT

; 74   : 	{

  00000	55		 push	 ebp
  00001	8b ec		 mov	 ebp, esp
; File E:\Proyectos\JuegosOnlineproyectos\PB\pbblow\Piercing Blow Remake\i3Server\include\i3Base\memory\memory_alloc.inl

; 108  : 		if (!data) return;

  00003	8b 45 0c	 mov	 eax, DWORD PTR _ptr$[ebp]
  00006	85 c0		 test	 eax, eax
  00008	74 1c		 je	 SHORT $LN11@tls_aligne

; 109  : 		::HeapFree(HANDLE(h), 0, get_raw_data_from_aligned_malloc(data) );

  0000a	8b 4d 08	 mov	 ecx, DWORD PTR _hThread$[ebp]
; File E:\Proyectos\JuegosOnlineproyectos\PB\pbblow\Piercing Blow Remake\i3Server\include\i3Base\memory\memory_aligned_apply.h

; 33   : 		ptr = ( ptr & ~( sizeof(void*) -1 ) ) - sizeof(void*);

  0000d	83 e0 fc	 and	 eax, -4			; fffffffcH
; File E:\Proyectos\JuegosOnlineproyectos\PB\pbblow\Piercing Blow Remake\i3Server\include\i3Base\memory\memory_alloc.inl

; 109  : 		::HeapFree(HANDLE(h), 0, get_raw_data_from_aligned_malloc(data) );

  00010	ff 70 fc	 push	 DWORD PTR [eax-4]
  00013	a1 18 00 00 00	 mov	 eax, DWORD PTR ?g_TlsManager@detail_tls@i3@@3Vtls_mgr@12@A+24
  00018	6a 00		 push	 0
  0001a	8b 04 88	 mov	 eax, DWORD PTR [eax+ecx*4]
  0001d	ff 70 20	 push	 DWORD PTR [eax+32]
  00020	ff 15 00 00 00
	00		 call	 DWORD PTR __imp__HeapFree@12
$LN11@tls_aligne:
; File E:\Proyectos\JuegosOnlineproyectos\PB\pbblow\Piercing Blow Remake\i3Server\include\i3Base\tls\detail\tls_mgr.inl

; 76   : 	}

  00026	5d		 pop	 ebp
  00027	c3		 ret	 0
?tls_aligned_free@i3@@YAXKPAX@Z ENDP			; i3::tls_aligned_free
_TEXT	ENDS
; Function compile flags: /Ogtp
; File E:\Proyectos\JuegosOnlineproyectos\PB\pbblow\Piercing Blow Remake\i3Server\include\i3Base\tls\detail\tls_mgr.inl
; File E:\Proyectos\JuegosOnlineproyectos\PB\pbblow\Piercing Blow Remake\i3Server\include\i3Base\memory\calculate_adjusted_align.h
; File E:\Proyectos\JuegosOnlineproyectos\PB\pbblow\Piercing Blow Remake\i3Server\include\i3Base\tls\detail\tls_mgr.inl
; File E:\Proyectos\JuegosOnlineproyectos\PB\pbblow\Piercing Blow Remake\i3Server\include\i3Base\memory\calculate_adjusted_align.h
; File E:\Proyectos\JuegosOnlineproyectos\PB\pbblow\Piercing Blow Remake\i3Server\include\i3Base\tls\detail\tls_mgr.inl
; File E:\Proyectos\JuegosOnlineproyectos\PB\pbblow\Piercing Blow Remake\i3Server\include\i3Base\memory\memory_aligned_apply.h
; File E:\Proyectos\JuegosOnlineproyectos\PB\pbblow\Piercing Blow Remake\i3Server\include\i3Base\memory\memory_alloc.inl
; File E:\Proyectos\JuegosOnlineproyectos\PB\pbblow\Piercing Blow Remake\i3Server\include\i3Base\memory\memory_aligned_apply.h
; File E:\Proyectos\JuegosOnlineproyectos\PB\pbblow\Piercing Blow Remake\i3Server\include\i3Base\tls\detail\tls_mgr.inl
; File E:\Proyectos\JuegosOnlineproyectos\PB\pbblow\Piercing Blow Remake\i3Server\include\i3Base\memory\memory_aligned_apply.h
; File E:\Proyectos\JuegosOnlineproyectos\PB\pbblow\Piercing Blow Remake\i3Server\include\i3Base\tls\detail\tls_mgr.inl
;	COMDAT ?tls_aligned_malloc@i3@@YAPAXKII@Z
_TEXT	SEGMENT
_hThread$ = 8						; size = 4
_n$ = 12						; size = 4
_align$ = 16						; size = 4
?tls_aligned_malloc@i3@@YAPAXKII@Z PROC			; i3::tls_aligned_malloc, COMDAT

; 69   : 	{

  00000	55		 push	 ebp
  00001	8b ec		 mov	 ebp, esp

; 138  : 		void*		thread_data::tls_aligned_malloc(size_t n, size_t align) const {	return i3::heap_aligned_malloc(this->heapTls, n, align); }

  00003	8b 4d 08	 mov	 ecx, DWORD PTR _hThread$[ebp]
  00006	a1 18 00 00 00	 mov	 eax, DWORD PTR ?g_TlsManager@detail_tls@i3@@3Vtls_mgr@12@A+24

; 69   : 	{

  0000b	56		 push	 esi
; File E:\Proyectos\JuegosOnlineproyectos\PB\pbblow\Piercing Blow Remake\i3Server\include\i3Base\memory\calculate_adjusted_align.h

; 13   : 	size_t  calculate_adjusted_align( size_t align) {	return ( align > sizeof(void*) ) ? align : sizeof(void*); }

  0000c	be 04 00 00 00	 mov	 esi, 4
  00011	39 75 10	 cmp	 DWORD PTR _align$[ebp], esi
; File E:\Proyectos\JuegosOnlineproyectos\PB\pbblow\Piercing Blow Remake\i3Server\include\i3Base\tls\detail\tls_mgr.inl

; 138  : 		void*		thread_data::tls_aligned_malloc(size_t n, size_t align) const {	return i3::heap_aligned_malloc(this->heapTls, n, align); }

  00014	8b 04 88	 mov	 eax, DWORD PTR [eax+ecx*4]
; File E:\Proyectos\JuegosOnlineproyectos\PB\pbblow\Piercing Blow Remake\i3Server\include\i3Base\memory\calculate_adjusted_align.h

; 13   : 	size_t  calculate_adjusted_align( size_t align) {	return ( align > sizeof(void*) ) ? align : sizeof(void*); }

  00017	0f 47 75 10	 cmova	 esi, DWORD PTR _align$[ebp]
; File E:\Proyectos\JuegosOnlineproyectos\PB\pbblow\Piercing Blow Remake\i3Server\include\i3Base\tls\detail\tls_mgr.inl

; 138  : 		void*		thread_data::tls_aligned_malloc(size_t n, size_t align) const {	return i3::heap_aligned_malloc(this->heapTls, n, align); }

  0001b	8b 48 20	 mov	 ecx, DWORD PTR [eax+32]
; File E:\Proyectos\JuegosOnlineproyectos\PB\pbblow\Piercing Blow Remake\i3Server\include\i3Base\memory\memory_aligned_apply.h

; 19   : 	size_t	calculate_aligned_malloc_size(size_t size, size_t adjusted_align) { return sizeof(void*) + size + adjusted_align;  }

  0001e	8b 45 0c	 mov	 eax, DWORD PTR _n$[ebp]
  00021	83 c0 04	 add	 eax, 4
  00024	03 c6		 add	 eax, esi
; File E:\Proyectos\JuegosOnlineproyectos\PB\pbblow\Piercing Blow Remake\i3Server\include\i3Base\memory\memory_alloc.inl

; 101  : 		void* data = ::HeapAlloc(HANDLE(h), 0, calculate_aligned_malloc_size(size, align) );

  00026	50		 push	 eax
  00027	6a 00		 push	 0
  00029	51		 push	 ecx
  0002a	ff 15 00 00 00
	00		 call	 DWORD PTR __imp__HeapAlloc@12
; File E:\Proyectos\JuegosOnlineproyectos\PB\pbblow\Piercing Blow Remake\i3Server\include\i3Base\memory\memory_aligned_apply.h

; 24   : 		uintptr_t result = ( uintptr_t(raw_data) + sizeof(void*) + adjusted_align - 1 ) & ~(adjusted_align - 1);

  00030	8d 4e 03	 lea	 ecx, DWORD PTR [esi+3]
  00033	f7 de		 neg	 esi
  00035	03 c8		 add	 ecx, eax
  00037	23 ce		 and	 ecx, esi
; File E:\Proyectos\JuegosOnlineproyectos\PB\pbblow\Piercing Blow Remake\i3Server\include\i3Base\tls\detail\tls_mgr.inl

; 70   : 		return detail_tls::get_thread_data(hThread)->tls_aligned_malloc(n, align);

  00039	5e		 pop	 esi
; File E:\Proyectos\JuegosOnlineproyectos\PB\pbblow\Piercing Blow Remake\i3Server\include\i3Base\memory\memory_aligned_apply.h

; 25   : 		((uintptr_t*)result)[-1] = (uintptr_t)raw_data;

  0003a	89 41 fc	 mov	 DWORD PTR [ecx-4], eax
; File E:\Proyectos\JuegosOnlineproyectos\PB\pbblow\Piercing Blow Remake\i3Server\include\i3Base\tls\detail\tls_mgr.inl

; 70   : 		return detail_tls::get_thread_data(hThread)->tls_aligned_malloc(n, align);

  0003d	8b c1		 mov	 eax, ecx

; 71   : 	}

  0003f	5d		 pop	 ebp
  00040	c3		 ret	 0
?tls_aligned_malloc@i3@@YAPAXKII@Z ENDP			; i3::tls_aligned_malloc
_TEXT	ENDS
; Function compile flags: /Ogtp
; File E:\Proyectos\JuegosOnlineproyectos\PB\pbblow\Piercing Blow Remake\i3Server\include\i3Base\tls\detail\tls_mgr.inl
; File E:\Proyectos\JuegosOnlineproyectos\PB\pbblow\Piercing Blow Remake\i3Server\include\i3Base\memory\memory_alloc.inl
; File E:\Proyectos\JuegosOnlineproyectos\PB\pbblow\Piercing Blow Remake\i3Server\include\i3Base\memory\memory_aligned_apply.h
; File E:\Proyectos\JuegosOnlineproyectos\PB\pbblow\Piercing Blow Remake\i3Server\include\i3Base\memory\memory_alloc.inl
; File E:\Proyectos\JuegosOnlineproyectos\PB\pbblow\Piercing Blow Remake\i3Server\include\i3Base\tls\detail\tls_mgr.inl
;	COMDAT ?tls_aligned_free@i3@@YAXPAX@Z
_TEXT	SEGMENT
_ptr$ = 8						; size = 4
?tls_aligned_free@i3@@YAXPAX@Z PROC			; i3::tls_aligned_free, COMDAT

; 64   : 	{

  00000	55		 push	 ebp
  00001	8b ec		 mov	 ebp, esp

; 180  : 			return reinterpret_cast<thread_data*>(::TlsGetValue(m_dwTlsIdx));

  00003	ff 35 00 00 00
	00		 push	 DWORD PTR ?g_TlsManager@detail_tls@i3@@3Vtls_mgr@12@A
  00009	ff 15 00 00 00
	00		 call	 DWORD PTR __imp__TlsGetValue@4
; File E:\Proyectos\JuegosOnlineproyectos\PB\pbblow\Piercing Blow Remake\i3Server\include\i3Base\memory\memory_alloc.inl

; 108  : 		if (!data) return;

  0000f	8b 4d 08	 mov	 ecx, DWORD PTR _ptr$[ebp]
  00012	85 c9		 test	 ecx, ecx
  00014	74 11		 je	 SHORT $LN9@tls_aligne
; File E:\Proyectos\JuegosOnlineproyectos\PB\pbblow\Piercing Blow Remake\i3Server\include\i3Base\memory\memory_aligned_apply.h

; 33   : 		ptr = ( ptr & ~( sizeof(void*) -1 ) ) - sizeof(void*);

  00016	83 e1 fc	 and	 ecx, -4			; fffffffcH
; File E:\Proyectos\JuegosOnlineproyectos\PB\pbblow\Piercing Blow Remake\i3Server\include\i3Base\memory\memory_alloc.inl

; 109  : 		::HeapFree(HANDLE(h), 0, get_raw_data_from_aligned_malloc(data) );

  00019	ff 71 fc	 push	 DWORD PTR [ecx-4]
  0001c	6a 00		 push	 0
  0001e	ff 70 20	 push	 DWORD PTR [eax+32]
  00021	ff 15 00 00 00
	00		 call	 DWORD PTR __imp__HeapFree@12
$LN9@tls_aligne:
; File E:\Proyectos\JuegosOnlineproyectos\PB\pbblow\Piercing Blow Remake\i3Server\include\i3Base\tls\detail\tls_mgr.inl

; 66   : 	}

  00027	5d		 pop	 ebp
  00028	c3		 ret	 0
?tls_aligned_free@i3@@YAXPAX@Z ENDP			; i3::tls_aligned_free
_TEXT	ENDS
; Function compile flags: /Ogtp
; File E:\Proyectos\JuegosOnlineproyectos\PB\pbblow\Piercing Blow Remake\i3Server\include\i3Base\tls\detail\tls_mgr.inl
; File E:\Proyectos\JuegosOnlineproyectos\PB\pbblow\Piercing Blow Remake\i3Server\include\i3Base\memory\calculate_adjusted_align.h
; File E:\Proyectos\JuegosOnlineproyectos\PB\pbblow\Piercing Blow Remake\i3Server\include\i3Base\tls\detail\tls_mgr.inl
; File E:\Proyectos\JuegosOnlineproyectos\PB\pbblow\Piercing Blow Remake\i3Server\include\i3Base\memory\calculate_adjusted_align.h
; File E:\Proyectos\JuegosOnlineproyectos\PB\pbblow\Piercing Blow Remake\i3Server\include\i3Base\memory\memory_aligned_apply.h
; File E:\Proyectos\JuegosOnlineproyectos\PB\pbblow\Piercing Blow Remake\i3Server\include\i3Base\memory\memory_alloc.inl
; File E:\Proyectos\JuegosOnlineproyectos\PB\pbblow\Piercing Blow Remake\i3Server\include\i3Base\memory\memory_aligned_apply.h
; File E:\Proyectos\JuegosOnlineproyectos\PB\pbblow\Piercing Blow Remake\i3Server\include\i3Base\tls\detail\tls_mgr.inl
; File E:\Proyectos\JuegosOnlineproyectos\PB\pbblow\Piercing Blow Remake\i3Server\include\i3Base\memory\memory_aligned_apply.h
; File E:\Proyectos\JuegosOnlineproyectos\PB\pbblow\Piercing Blow Remake\i3Server\include\i3Base\tls\detail\tls_mgr.inl
;	COMDAT ?tls_aligned_malloc@i3@@YAPAXII@Z
_TEXT	SEGMENT
_n$ = 8							; size = 4
_align$ = 12						; size = 4
?tls_aligned_malloc@i3@@YAPAXII@Z PROC			; i3::tls_aligned_malloc, COMDAT

; 59   : 	{

  00000	55		 push	 ebp
  00001	8b ec		 mov	 ebp, esp
  00003	56		 push	 esi

; 180  : 			return reinterpret_cast<thread_data*>(::TlsGetValue(m_dwTlsIdx));

  00004	ff 35 00 00 00
	00		 push	 DWORD PTR ?g_TlsManager@detail_tls@i3@@3Vtls_mgr@12@A
  0000a	ff 15 00 00 00
	00		 call	 DWORD PTR __imp__TlsGetValue@4
; File E:\Proyectos\JuegosOnlineproyectos\PB\pbblow\Piercing Blow Remake\i3Server\include\i3Base\memory\calculate_adjusted_align.h

; 13   : 	size_t  calculate_adjusted_align( size_t align) {	return ( align > sizeof(void*) ) ? align : sizeof(void*); }

  00010	be 04 00 00 00	 mov	 esi, 4
  00015	39 75 0c	 cmp	 DWORD PTR _align$[ebp], esi
; File E:\Proyectos\JuegosOnlineproyectos\PB\pbblow\Piercing Blow Remake\i3Server\include\i3Base\tls\detail\tls_mgr.inl

; 138  : 		void*		thread_data::tls_aligned_malloc(size_t n, size_t align) const {	return i3::heap_aligned_malloc(this->heapTls, n, align); }

  00018	8b 48 20	 mov	 ecx, DWORD PTR [eax+32]
; File E:\Proyectos\JuegosOnlineproyectos\PB\pbblow\Piercing Blow Remake\i3Server\include\i3Base\memory\calculate_adjusted_align.h

; 13   : 	size_t  calculate_adjusted_align( size_t align) {	return ( align > sizeof(void*) ) ? align : sizeof(void*); }

  0001b	0f 47 75 0c	 cmova	 esi, DWORD PTR _align$[ebp]
; File E:\Proyectos\JuegosOnlineproyectos\PB\pbblow\Piercing Blow Remake\i3Server\include\i3Base\memory\memory_aligned_apply.h

; 19   : 	size_t	calculate_aligned_malloc_size(size_t size, size_t adjusted_align) { return sizeof(void*) + size + adjusted_align;  }

  0001f	8b 45 08	 mov	 eax, DWORD PTR _n$[ebp]
  00022	83 c0 04	 add	 eax, 4
  00025	03 c6		 add	 eax, esi
; File E:\Proyectos\JuegosOnlineproyectos\PB\pbblow\Piercing Blow Remake\i3Server\include\i3Base\memory\memory_alloc.inl

; 101  : 		void* data = ::HeapAlloc(HANDLE(h), 0, calculate_aligned_malloc_size(size, align) );

  00027	50		 push	 eax
  00028	6a 00		 push	 0
  0002a	51		 push	 ecx
  0002b	ff 15 00 00 00
	00		 call	 DWORD PTR __imp__HeapAlloc@12
; File E:\Proyectos\JuegosOnlineproyectos\PB\pbblow\Piercing Blow Remake\i3Server\include\i3Base\memory\memory_aligned_apply.h

; 24   : 		uintptr_t result = ( uintptr_t(raw_data) + sizeof(void*) + adjusted_align - 1 ) & ~(adjusted_align - 1);

  00031	8d 4e 03	 lea	 ecx, DWORD PTR [esi+3]
  00034	f7 de		 neg	 esi
  00036	03 c8		 add	 ecx, eax
  00038	23 ce		 and	 ecx, esi
; File E:\Proyectos\JuegosOnlineproyectos\PB\pbblow\Piercing Blow Remake\i3Server\include\i3Base\tls\detail\tls_mgr.inl

; 60   : 		return detail_tls::get_curr_thread_data()->tls_aligned_malloc(n, align);

  0003a	5e		 pop	 esi
; File E:\Proyectos\JuegosOnlineproyectos\PB\pbblow\Piercing Blow Remake\i3Server\include\i3Base\memory\memory_aligned_apply.h

; 25   : 		((uintptr_t*)result)[-1] = (uintptr_t)raw_data;

  0003b	89 41 fc	 mov	 DWORD PTR [ecx-4], eax
; File E:\Proyectos\JuegosOnlineproyectos\PB\pbblow\Piercing Blow Remake\i3Server\include\i3Base\tls\detail\tls_mgr.inl

; 60   : 		return detail_tls::get_curr_thread_data()->tls_aligned_malloc(n, align);

  0003e	8b c1		 mov	 eax, ecx

; 61   : 	}

  00040	5d		 pop	 ebp
  00041	c3		 ret	 0
?tls_aligned_malloc@i3@@YAPAXII@Z ENDP			; i3::tls_aligned_malloc
_TEXT	ENDS
; Function compile flags: /Ogtp
; File E:\Proyectos\JuegosOnlineproyectos\PB\pbblow\Piercing Blow Remake\i3Server\include\i3Base\tls\detail\tls_mgr.inl
; File E:\Proyectos\JuegosOnlineproyectos\PB\pbblow\Piercing Blow Remake\i3Server\include\i3Base\memory\memory_alloc.inl
; File E:\Proyectos\JuegosOnlineproyectos\PB\pbblow\Piercing Blow Remake\i3Server\include\i3Base\tls\detail\tls_mgr.inl
;	COMDAT ?tls_free@i3@@YAXKPAX@Z
_TEXT	SEGMENT
_hthread$ = 8						; size = 4
_ptr$ = 12						; size = 4
?tls_free@i3@@YAXKPAX@Z PROC				; i3::tls_free, COMDAT

; 53   : 	{

  00000	55		 push	 ebp
  00001	8b ec		 mov	 ebp, esp
; File E:\Proyectos\JuegosOnlineproyectos\PB\pbblow\Piercing Blow Remake\i3Server\include\i3Base\memory\memory_alloc.inl

; 93   : 		if (!data) return;

  00003	8b 45 0c	 mov	 eax, DWORD PTR _ptr$[ebp]
  00006	85 c0		 test	 eax, eax
  00008	74 17		 je	 SHORT $LN11@tls_free

; 94   : 		::HeapFree(HANDLE(h), 0, data);		// łÎ°Ë»çÁ¤ŔÇ°ˇ ľř´Ů..

  0000a	8b 4d 08	 mov	 ecx, DWORD PTR _hthread$[ebp]
  0000d	50		 push	 eax
  0000e	a1 18 00 00 00	 mov	 eax, DWORD PTR ?g_TlsManager@detail_tls@i3@@3Vtls_mgr@12@A+24
  00013	6a 00		 push	 0
  00015	8b 04 88	 mov	 eax, DWORD PTR [eax+ecx*4]
  00018	ff 70 20	 push	 DWORD PTR [eax+32]
  0001b	ff 15 00 00 00
	00		 call	 DWORD PTR __imp__HeapFree@12
$LN11@tls_free:
; File E:\Proyectos\JuegosOnlineproyectos\PB\pbblow\Piercing Blow Remake\i3Server\include\i3Base\tls\detail\tls_mgr.inl

; 55   : 	}

  00021	5d		 pop	 ebp
  00022	c3		 ret	 0
?tls_free@i3@@YAXKPAX@Z ENDP				; i3::tls_free
_TEXT	ENDS
; Function compile flags: /Ogtp
; File E:\Proyectos\JuegosOnlineproyectos\PB\pbblow\Piercing Blow Remake\i3Server\include\i3Base\tls\detail\tls_mgr.inl
; File E:\Proyectos\JuegosOnlineproyectos\PB\pbblow\Piercing Blow Remake\i3Server\include\i3Base\memory\memory_alloc.inl
; File E:\Proyectos\JuegosOnlineproyectos\PB\pbblow\Piercing Blow Remake\i3Server\include\i3Base\tls\detail\tls_mgr.inl
; File E:\Proyectos\JuegosOnlineproyectos\PB\pbblow\Piercing Blow Remake\i3Server\include\i3Base\memory\memory_alloc.inl
; File E:\Proyectos\JuegosOnlineproyectos\PB\pbblow\Piercing Blow Remake\i3Server\include\i3Base\tls\detail\tls_mgr.inl
;	COMDAT ?tls_malloc@i3@@YAPAXKI@Z
_TEXT	SEGMENT
_hthread$ = 8						; size = 4
_n$ = 12						; size = 4
?tls_malloc@i3@@YAPAXKI@Z PROC				; i3::tls_malloc, COMDAT

; 47   : 	{

  00000	55		 push	 ebp
  00001	8b ec		 mov	 ebp, esp

; 132  : 		void*		thread_data::tls_malloc(size_t n) const { return i3::heap_malloc(this->heapTls, n); }

  00003	8b 4d 08	 mov	 ecx, DWORD PTR _hthread$[ebp]
  00006	a1 18 00 00 00	 mov	 eax, DWORD PTR ?g_TlsManager@detail_tls@i3@@3Vtls_mgr@12@A+24
; File E:\Proyectos\JuegosOnlineproyectos\PB\pbblow\Piercing Blow Remake\i3Server\include\i3Base\memory\memory_alloc.inl

; 87   : 		return ::HeapAlloc(HANDLE(h), 0, size);

  0000b	ff 75 0c	 push	 DWORD PTR _n$[ebp]
  0000e	6a 00		 push	 0
; File E:\Proyectos\JuegosOnlineproyectos\PB\pbblow\Piercing Blow Remake\i3Server\include\i3Base\tls\detail\tls_mgr.inl

; 132  : 		void*		thread_data::tls_malloc(size_t n) const { return i3::heap_malloc(this->heapTls, n); }

  00010	8b 04 88	 mov	 eax, DWORD PTR [eax+ecx*4]
; File E:\Proyectos\JuegosOnlineproyectos\PB\pbblow\Piercing Blow Remake\i3Server\include\i3Base\memory\memory_alloc.inl

; 87   : 		return ::HeapAlloc(HANDLE(h), 0, size);

  00013	ff 70 20	 push	 DWORD PTR [eax+32]
  00016	ff 15 00 00 00
	00		 call	 DWORD PTR __imp__HeapAlloc@12
; File E:\Proyectos\JuegosOnlineproyectos\PB\pbblow\Piercing Blow Remake\i3Server\include\i3Base\tls\detail\tls_mgr.inl

; 49   : 	}

  0001c	5d		 pop	 ebp
  0001d	c3		 ret	 0
?tls_malloc@i3@@YAPAXKI@Z ENDP				; i3::tls_malloc
_TEXT	ENDS
; Function compile flags: /Ogtp
; File E:\Proyectos\JuegosOnlineproyectos\PB\pbblow\Piercing Blow Remake\i3Server\include\i3Base\tls\detail\tls_mgr.inl
; File E:\Proyectos\JuegosOnlineproyectos\PB\pbblow\Piercing Blow Remake\i3Server\include\i3Base\memory\memory_alloc.inl
; File E:\Proyectos\JuegosOnlineproyectos\PB\pbblow\Piercing Blow Remake\i3Server\include\i3Base\tls\detail\tls_mgr.inl
;	COMDAT ?tls_free@i3@@YAXPAX@Z
_TEXT	SEGMENT
_ptr$ = 8						; size = 4
?tls_free@i3@@YAXPAX@Z PROC				; i3::tls_free, COMDAT

; 41   : 	{

  00000	55		 push	 ebp
  00001	8b ec		 mov	 ebp, esp

; 180  : 			return reinterpret_cast<thread_data*>(::TlsGetValue(m_dwTlsIdx));

  00003	ff 35 00 00 00
	00		 push	 DWORD PTR ?g_TlsManager@detail_tls@i3@@3Vtls_mgr@12@A
  00009	ff 15 00 00 00
	00		 call	 DWORD PTR __imp__TlsGetValue@4
; File E:\Proyectos\JuegosOnlineproyectos\PB\pbblow\Piercing Blow Remake\i3Server\include\i3Base\memory\memory_alloc.inl

; 93   : 		if (!data) return;

  0000f	8b 4d 08	 mov	 ecx, DWORD PTR _ptr$[ebp]
  00012	85 c9		 test	 ecx, ecx
  00014	74 0c		 je	 SHORT $LN9@tls_free

; 94   : 		::HeapFree(HANDLE(h), 0, data);		// łÎ°Ë»çÁ¤ŔÇ°ˇ ľř´Ů..

  00016	51		 push	 ecx
  00017	6a 00		 push	 0
  00019	ff 70 20	 push	 DWORD PTR [eax+32]
  0001c	ff 15 00 00 00
	00		 call	 DWORD PTR __imp__HeapFree@12
$LN9@tls_free:
; File E:\Proyectos\JuegosOnlineproyectos\PB\pbblow\Piercing Blow Remake\i3Server\include\i3Base\tls\detail\tls_mgr.inl

; 43   : 	}

  00022	5d		 pop	 ebp
  00023	c3		 ret	 0
?tls_free@i3@@YAXPAX@Z ENDP				; i3::tls_free
_TEXT	ENDS
; Function compile flags: /Ogtp
; File E:\Proyectos\JuegosOnlineproyectos\PB\pbblow\Piercing Blow Remake\i3Server\include\i3Base\tls\detail\tls_mgr.inl
; File E:\Proyectos\JuegosOnlineproyectos\PB\pbblow\Piercing Blow Remake\i3Server\include\i3Base\memory\memory_alloc.inl
; File E:\Proyectos\JuegosOnlineproyectos\PB\pbblow\Piercing Blow Remake\i3Server\include\i3Base\tls\detail\tls_mgr.inl
;	COMDAT ?tls_malloc@i3@@YAPAXI@Z
_TEXT	SEGMENT
_n$ = 8							; size = 4
?tls_malloc@i3@@YAPAXI@Z PROC				; i3::tls_malloc, COMDAT

; 35   : 	{

  00000	55		 push	 ebp
  00001	8b ec		 mov	 ebp, esp

; 180  : 			return reinterpret_cast<thread_data*>(::TlsGetValue(m_dwTlsIdx));

  00003	ff 35 00 00 00
	00		 push	 DWORD PTR ?g_TlsManager@detail_tls@i3@@3Vtls_mgr@12@A
  00009	ff 15 00 00 00
	00		 call	 DWORD PTR __imp__TlsGetValue@4
; File E:\Proyectos\JuegosOnlineproyectos\PB\pbblow\Piercing Blow Remake\i3Server\include\i3Base\memory\memory_alloc.inl

; 87   : 		return ::HeapAlloc(HANDLE(h), 0, size);

  0000f	ff 75 08	 push	 DWORD PTR _n$[ebp]
  00012	6a 00		 push	 0
  00014	ff 70 20	 push	 DWORD PTR [eax+32]
  00017	ff 15 00 00 00
	00		 call	 DWORD PTR __imp__HeapAlloc@12
; File E:\Proyectos\JuegosOnlineproyectos\PB\pbblow\Piercing Blow Remake\i3Server\include\i3Base\tls\detail\tls_mgr.inl

; 37   : 	}

  0001d	5d		 pop	 ebp
  0001e	c3		 ret	 0
?tls_malloc@i3@@YAPAXI@Z ENDP				; i3::tls_malloc
_TEXT	ENDS
; Function compile flags: /Ogtp
; File E:\Proyectos\JuegosOnlineproyectos\PB\pbblow\Piercing Blow Remake\i3Server\include\i3Base\tls\detail\tls_mgr.inl
; File E:\Proyectos\JuegosOnlineproyectos\PB\pbblow\Piercing Blow Remake\i3Server\include\i3Base\itl\detail\vector.h
; File E:\Proyectos\JuegosOnlineproyectos\PB\pbblow\Piercing Blow Remake\i3Server\include\i3Base\tls\detail\tls_mgr.inl
;	COMDAT ?get_num_tls_ptr@i3@@YAIXZ
_TEXT	SEGMENT
?get_num_tls_ptr@i3@@YAIXZ PROC				; i3::get_num_tls_ptr, COMDAT
; File E:\Proyectos\JuegosOnlineproyectos\PB\pbblow\Piercing Blow Remake\i3Server\include\i3Base\itl\detail\vector.h

; 153  : 		size_type		size() const	{ return m_last - m_first; }

  00000	a1 0c 00 00 00	 mov	 eax, DWORD PTR ?g_TlsManager@detail_tls@i3@@3Vtls_mgr@12@A+12
  00005	2b 05 08 00 00
	00		 sub	 eax, DWORD PTR ?g_TlsManager@detail_tls@i3@@3Vtls_mgr@12@A+8
  0000b	c1 f8 02	 sar	 eax, 2
; File E:\Proyectos\JuegosOnlineproyectos\PB\pbblow\Piercing Blow Remake\i3Server\include\i3Base\tls\detail\tls_mgr.inl

; 31   : 	}

  0000e	c3		 ret	 0
?get_num_tls_ptr@i3@@YAIXZ ENDP				; i3::get_num_tls_ptr
_TEXT	ENDS
; Function compile flags: /Ogtp
; File E:\Proyectos\JuegosOnlineproyectos\PB\pbblow\Piercing Blow Remake\i3Server\include\i3Base\tls\detail\tls_mgr.inl
; File E:\Proyectos\JuegosOnlineproyectos\PB\pbblow\Piercing Blow Remake\i3Server\include\i3Base\itl\detail\vector.h
; File E:\Proyectos\JuegosOnlineproyectos\PB\pbblow\Piercing Blow Remake\i3Server\include\i3Base\tls\detail\tls_mgr.inl
;	COMDAT ?get_num_tls_thread_id@i3@@YAKXZ
_TEXT	SEGMENT
?get_num_tls_thread_id@i3@@YAKXZ PROC			; i3::get_num_tls_thread_id, COMDAT
; File E:\Proyectos\JuegosOnlineproyectos\PB\pbblow\Piercing Blow Remake\i3Server\include\i3Base\itl\detail\vector.h

; 153  : 		size_type		size() const	{ return m_last - m_first; }

  00000	a1 1c 00 00 00	 mov	 eax, DWORD PTR ?g_TlsManager@detail_tls@i3@@3Vtls_mgr@12@A+28
  00005	2b 05 18 00 00
	00		 sub	 eax, DWORD PTR ?g_TlsManager@detail_tls@i3@@3Vtls_mgr@12@A+24
  0000b	c1 f8 02	 sar	 eax, 2
; File E:\Proyectos\JuegosOnlineproyectos\PB\pbblow\Piercing Blow Remake\i3Server\include\i3Base\tls\detail\tls_mgr.inl

; 25   : 	}

  0000e	c3		 ret	 0
?get_num_tls_thread_id@i3@@YAKXZ ENDP			; i3::get_num_tls_thread_id
_TEXT	ENDS
; Function compile flags: /Ogtp
; File E:\Proyectos\JuegosOnlineproyectos\PB\pbblow\Piercing Blow Remake\i3Server\include\i3Base\tls\detail\tls_mgr.inl
;	COMDAT ?get_curr_tls_thread_id@i3@@YAKXZ
_TEXT	SEGMENT
?get_curr_tls_thread_id@i3@@YAKXZ PROC			; i3::get_curr_tls_thread_id, COMDAT

; 180  : 			return reinterpret_cast<thread_data*>(::TlsGetValue(m_dwTlsIdx));

  00000	ff 35 00 00 00
	00		 push	 DWORD PTR ?g_TlsManager@detail_tls@i3@@3Vtls_mgr@12@A
  00006	ff 15 00 00 00
	00		 call	 DWORD PTR __imp__TlsGetValue@4

; 18   : 		return detail_tls::get_curr_thread_data()->get_thread_id();

  0000c	8b 40 28	 mov	 eax, DWORD PTR [eax+40]

; 19   : 	}

  0000f	c3		 ret	 0
?get_curr_tls_thread_id@i3@@YAKXZ ENDP			; i3::get_curr_tls_thread_id
_TEXT	ENDS
; Function compile flags: /Ogtp
; File E:\Proyectos\JuegosOnlineproyectos\PB\pbblow\Piercing Blow Remake\i3Server\include\i3Base\itl\detail\vector.h
; File E:\Proyectos\JuegosOnlineproyectos\PB\pbblow\Piercing Blow Remake\i3Server\include\i3Base\memory\heap_allocator.h
; File E:\Proyectos\JuegosOnlineproyectos\PB\pbblow\Piercing Blow Remake\i3Server\include\i3Base\memory\memory_aligned_apply.h
; File E:\Proyectos\JuegosOnlineproyectos\PB\pbblow\Piercing Blow Remake\i3Server\include\i3Base\memory\memory_alloc.inl
; File E:\Proyectos\JuegosOnlineproyectos\PB\pbblow\Piercing Blow Remake\i3Server\include\i3Base\memory\memory_aligned_apply.h
; File E:\Proyectos\JuegosOnlineproyectos\PB\pbblow\Piercing Blow Remake\i3Server\include\i3Base\itl\detail\vector.h
; File E:\Proyectos\JuegosOnlineproyectos\PB\pbblow\Piercing Blow Remake\i3Server\include\i3Base\itl\memory.h
; File C:\Program Files (x86)\Windows Kits\10\Include\10.0.26100.0\ucrt\corecrt_memcpy_s.h
; File E:\Proyectos\JuegosOnlineproyectos\PB\pbblow\Piercing Blow Remake\i3Server\include\i3Base\itl\memory.h
; File E:\Proyectos\JuegosOnlineproyectos\PB\pbblow\Piercing Blow Remake\i3Server\include\i3Base\itl\detail\vector.h
; File E:\Proyectos\JuegosOnlineproyectos\PB\pbblow\Piercing Blow Remake\i3Server\include\i3Base\itl\memory.h
; File E:\Proyectos\JuegosOnlineproyectos\PB\pbblow\Piercing Blow Remake\i3Server\include\i3Base\itl\detail\vector.h
; File E:\Proyectos\JuegosOnlineproyectos\PB\pbblow\Piercing Blow Remake\i3Server\include\i3Base\itl\memory.h
; File C:\Program Files (x86)\Windows Kits\10\Include\10.0.26100.0\ucrt\corecrt_memcpy_s.h
; File E:\Proyectos\JuegosOnlineproyectos\PB\pbblow\Piercing Blow Remake\i3Server\include\i3Base\itl\detail\vector.h
; File C:\Program Files (x86)\Windows Kits\10\Include\10.0.26100.0\ucrt\corecrt_memcpy_s.h
; File E:\Proyectos\JuegosOnlineproyectos\PB\pbblow\Piercing Blow Remake\i3Server\include\i3Base\itl\detail\vector.h
; File E:\Proyectos\JuegosOnlineproyectos\PB\pbblow\Piercing Blow Remake\i3Server\include\i3Base\memory\memory_aligned_apply.h
; File E:\Proyectos\JuegosOnlineproyectos\PB\pbblow\Piercing Blow Remake\i3Server\include\i3Base\memory\memory_alloc.inl
; File E:\Proyectos\JuegosOnlineproyectos\PB\pbblow\Piercing Blow Remake\i3Server\include\i3Base\itl\detail\vector.h
; File E:\Proyectos\JuegosOnlineproyectos\PB\pbblow\Piercing Blow Remake\i3Server\include\i3Base\itl\xutility.h
; File E:\Proyectos\JuegosOnlineproyectos\PB\pbblow\Piercing Blow Remake\i3Server\include\i3Base\itl\detail\vector.h
; File C:\Program Files (x86)\Windows Kits\10\Include\10.0.26100.0\ucrt\corecrt_memcpy_s.h
; File E:\Proyectos\JuegosOnlineproyectos\PB\pbblow\Piercing Blow Remake\i3Server\include\i3Base\itl\detail\vector.h
; File C:\Program Files (x86)\Windows Kits\10\Include\10.0.26100.0\ucrt\corecrt_memcpy_s.h
; File E:\Proyectos\JuegosOnlineproyectos\PB\pbblow\Piercing Blow Remake\i3Server\include\i3Base\itl\detail\vector.h
; File E:\Proyectos\JuegosOnlineproyectos\PB\pbblow\Piercing Blow Remake\i3Server\include\i3Base\itl\xutility.h
; File C:\Program Files (x86)\Windows Kits\10\Include\10.0.26100.0\ucrt\corecrt_memcpy_s.h
; File E:\Proyectos\JuegosOnlineproyectos\PB\pbblow\Piercing Blow Remake\i3Server\include\i3Base\itl\detail\vector.h
; File E:\Proyectos\JuegosOnlineproyectos\PB\pbblow\Piercing Blow Remake\i3Server\include\i3Base\itl\xutility.h
; File E:\Proyectos\JuegosOnlineproyectos\PB\pbblow\Piercing Blow Remake\i3Server\include\i3Base\itl\detail\vector.h
;	COMDAT ?insert_1@?$vector@PAVthread_data@detail_tls@i3@@V?$heap_allocator@PAVthread_data@detail_tls@i3@@@3@@i3@@AAEXPBQAVthread_data@detail_tls@2@ABQAV342@@Z
_TEXT	SEGMENT
tv1024 = -4						; size = 4
tv1027 = -4						; size = 4
_where$ = 8						; size = 4
_Result$1$ = 8						; size = 4
tv964 = 8						; size = 4
tv1031 = 8						; size = 4
_val$ = 12						; size = 4
?insert_1@?$vector@PAVthread_data@detail_tls@i3@@V?$heap_allocator@PAVthread_data@detail_tls@i3@@@3@@i3@@AAEXPBQAVthread_data@detail_tls@2@ABQAV342@@Z PROC ; i3::vector<i3::detail_tls::thread_data *,i3::heap_allocator<i3::detail_tls::thread_data *> >::insert_1, COMDAT
; _this$ = ecx

; 396  : 		{	// insert _Count * _Val at _Where

  00000	55		 push	 ebp
  00001	8b ec		 mov	 ebp, esp
  00003	51		 push	 ecx
  00004	53		 push	 ebx
  00005	56		 push	 esi
  00006	8b 75 08	 mov	 esi, DWORD PTR _where$[ebp]

; 397  : 			iterator Where = iterator(where);
; 398  : 			size_type Capacity = capacity();
; 399  : 
; 400  : 			if ( max_size() - size() < 1 )

  00009	b8 ff ff ff 3f	 mov	 eax, 1073741823		; 3fffffffH
  0000e	57		 push	 edi
  0000f	8b f9		 mov	 edi, ecx

; 153  : 		size_type		size() const	{ return m_last - m_first; }

  00011	8b 4f 08	 mov	 ecx, DWORD PTR [edi+8]
  00014	8b d1		 mov	 edx, ecx
  00016	2b 57 04	 sub	 edx, DWORD PTR [edi+4]

; 132  : 		size_type		capacity() const { return m_end - m_first; }

  00019	8b 5f 0c	 mov	 ebx, DWORD PTR [edi+12]
  0001c	2b 5f 04	 sub	 ebx, DWORD PTR [edi+4]

; 153  : 		size_type		size() const	{ return m_last - m_first; }

  0001f	c1 fa 02	 sar	 edx, 2

; 397  : 			iterator Where = iterator(where);
; 398  : 			size_type Capacity = capacity();
; 399  : 
; 400  : 			if ( max_size() - size() < 1 )

  00022	2b c2		 sub	 eax, edx

; 132  : 		size_type		capacity() const { return m_end - m_first; }

  00024	c1 fb 02	 sar	 ebx, 2

; 153  : 		size_type		size() const	{ return m_last - m_first; }

  00027	89 4d 08	 mov	 DWORD PTR _Result$1$[ebp], ecx

; 397  : 			iterator Where = iterator(where);
; 398  : 			size_type Capacity = capacity();
; 399  : 
; 400  : 			if ( max_size() - size() < 1 )

  0002a	83 f8 01	 cmp	 eax, 1
  0002d	0f 82 d6 01 00
	00		 jb	 $LN116@insert_1

; 401  : 				;
; 402  : 			else if ( Capacity < size() + 1 )

  00033	42		 inc	 edx
  00034	3b da		 cmp	 ebx, edx
  00036	0f 83 fd 00 00
	00		 jae	 $LN4@insert_1

; 403  : 			{	// not enough room, reallocate
; 404  : 				Capacity = ( max_size() - Capacity / 2 < Capacity) ? 0 : Capacity + Capacity / 2;	// try to grow by 50%

  0003c	8b c3		 mov	 eax, ebx
  0003e	b9 ff ff ff 3f	 mov	 ecx, 1073741823		; 3fffffffH
  00043	d1 e8		 shr	 eax, 1
  00045	2b c8		 sub	 ecx, eax

; 405  : 				if ( Capacity < size() + 1)	Capacity = size() + 1;

  00047	03 c3		 add	 eax, ebx
  00049	89 4d 08	 mov	 DWORD PTR tv964[ebp], ecx
  0004c	33 c9		 xor	 ecx, ecx
  0004e	39 5d 08	 cmp	 DWORD PTR tv964[ebp], ebx
  00051	0f 43 c8	 cmovae	 ecx, eax
; File E:\Proyectos\JuegosOnlineproyectos\PB\pbblow\Piercing Blow Remake\i3Server\include\i3Base\memory\heap_allocator.h

; 36   : 			return (pointer)heap_aligned_malloc(m_heap, _Count * sizeof(T), __alignof(T) );

  00054	3b ca		 cmp	 ecx, edx
  00056	0f 43 d1	 cmovae	 edx, ecx
  00059	c1 e2 02	 shl	 edx, 2
  0005c	89 55 fc	 mov	 DWORD PTR tv1024[ebp], edx
; File E:\Proyectos\JuegosOnlineproyectos\PB\pbblow\Piercing Blow Remake\i3Server\include\i3Base\memory\memory_aligned_apply.h

; 19   : 	size_t	calculate_aligned_malloc_size(size_t size, size_t adjusted_align) { return sizeof(void*) + size + adjusted_align;  }

  0005f	8d 42 08	 lea	 eax, DWORD PTR [edx+8]
; File E:\Proyectos\JuegosOnlineproyectos\PB\pbblow\Piercing Blow Remake\i3Server\include\i3Base\memory\memory_alloc.inl

; 101  : 		void* data = ::HeapAlloc(HANDLE(h), 0, calculate_aligned_malloc_size(size, align) );

  00062	50		 push	 eax
  00063	6a 00		 push	 0
  00065	ff 37		 push	 DWORD PTR [edi]
  00067	ff 15 00 00 00
	00		 call	 DWORD PTR __imp__HeapAlloc@12
; File E:\Proyectos\JuegosOnlineproyectos\PB\pbblow\Piercing Blow Remake\i3Server\include\i3Base\memory\memory_aligned_apply.h

; 24   : 		uintptr_t result = ( uintptr_t(raw_data) + sizeof(void*) + adjusted_align - 1 ) & ~(adjusted_align - 1);

  0006d	8d 58 07	 lea	 ebx, DWORD PTR [eax+7]
  00070	83 e3 fc	 and	 ebx, -4			; fffffffcH

; 25   : 		((uintptr_t*)result)[-1] = (uintptr_t)raw_data;

  00073	89 43 fc	 mov	 DWORD PTR [ebx-4], eax
; File E:\Proyectos\JuegosOnlineproyectos\PB\pbblow\Piercing Blow Remake\i3Server\include\i3Base\itl\detail\vector.h

; 408  : 				size_type Whereoff = Where - m_first;

  00076	8b c6		 mov	 eax, esi
  00078	2b 47 04	 sub	 eax, DWORD PTR [edi+4]
  0007b	c1 f8 02	 sar	 eax, 2

; 409  : 			
; 410  : 				i3::uninitialized_fill_1(Newvec + Whereoff, val, allocator_base::get() );	// i3::uninitialized_fill_1(Newvec + Whereoff, val, m_alloc );	// add new stuff

  0007e	8d 0c 83	 lea	 ecx, DWORD PTR [ebx+eax*4]
  00081	8b 45 0c	 mov	 eax, DWORD PTR _val$[ebp]
  00084	89 4d 08	 mov	 DWORD PTR tv1031[ebp], ecx
  00087	8b 00		 mov	 eax, DWORD PTR [eax]
  00089	89 01		 mov	 DWORD PTR [ecx], eax
; File E:\Proyectos\JuegosOnlineproyectos\PB\pbblow\Piercing Blow Remake\i3Server\include\i3Base\itl\memory.h

; 58   : 			size_t count = (size_t)(Last - First);

  0008b	8b c6		 mov	 eax, esi

; 133  : 		return detail::uninit_copy(First, Last, Dest, Al,	pointer_category(First, Dest) ) ;

  0008d	8b 4f 04	 mov	 ecx, DWORD PTR [edi+4]

; 58   : 			size_t count = (size_t)(Last - First);

  00090	2b c1		 sub	 eax, ecx
  00092	c1 f8 02	 sar	 eax, 2

; 60   : 			if (count > 0)

  00095	85 c0		 test	 eax, eax
  00097	74 28		 je	 SHORT $LN38@insert_1

; 61   : 				::memmove_s(&*Dest, count * sizeof (*First), &*First, count * sizeof (*First));	// NB: non-overlapping move

  00099	c1 e0 02	 shl	 eax, 2
; File C:\Program Files (x86)\Windows Kits\10\Include\10.0.26100.0\ucrt\corecrt_memcpy_s.h

; 76   :         if (_SourceSize == 0)

  0009c	85 c0		 test	 eax, eax
  0009e	74 21		 je	 SHORT $LN38@insert_1

; 82   :         _CRT_MEMCPY_S_VALIDATE_RETURN_ERRCODE(_Source != NULL,                 EINVAL);

  000a0	85 c9		 test	 ecx, ecx
  000a2	75 12		 jne	 SHORT $LN41@insert_1
  000a4	e8 00 00 00 00	 call	 __errno
  000a9	c7 00 16 00 00
	00		 mov	 DWORD PTR [eax], 22	; 00000016H
  000af	e8 00 00 00 00	 call	 __invalid_parameter_noinfo
  000b4	eb 0b		 jmp	 SHORT $LN38@insert_1
$LN41@insert_1:

; 83   :         _CRT_MEMCPY_S_VALIDATE_RETURN_ERRCODE(_DestinationSize >= _SourceSize, ERANGE);
; 84   : 
; 85   :         memmove(_Destination, _Source, _SourceSize);

  000b6	50		 push	 eax
  000b7	51		 push	 ecx
  000b8	53		 push	 ebx
  000b9	e8 00 00 00 00	 call	 _memmove
  000be	83 c4 0c	 add	 esp, 12			; 0000000cH
$LN38@insert_1:
; File E:\Proyectos\JuegosOnlineproyectos\PB\pbblow\Piercing Blow Remake\i3Server\include\i3Base\itl\memory.h

; 58   : 			size_t count = (size_t)(Last - First);

  000c1	8b 47 08	 mov	 eax, DWORD PTR [edi+8]
; File E:\Proyectos\JuegosOnlineproyectos\PB\pbblow\Piercing Blow Remake\i3Server\include\i3Base\itl\detail\vector.h

; 412  : 				i3::uninitialized_copy(Where, m_last, Newvec + Whereoff + 1, allocator_base::get());	//i3::uninitialized_copy( Where, m_last, Newvec + Whereoff + 1, m_alloc);	// move suffix

  000c4	8b 4d 08	 mov	 ecx, DWORD PTR tv1031[ebp]
; File E:\Proyectos\JuegosOnlineproyectos\PB\pbblow\Piercing Blow Remake\i3Server\include\i3Base\itl\memory.h

; 58   : 			size_t count = (size_t)(Last - First);

  000c7	2b c6		 sub	 eax, esi
  000c9	c1 f8 02	 sar	 eax, 2
; File E:\Proyectos\JuegosOnlineproyectos\PB\pbblow\Piercing Blow Remake\i3Server\include\i3Base\itl\detail\vector.h

; 412  : 				i3::uninitialized_copy(Where, m_last, Newvec + Whereoff + 1, allocator_base::get());	//i3::uninitialized_copy( Where, m_last, Newvec + Whereoff + 1, m_alloc);	// move suffix

  000cc	83 c1 04	 add	 ecx, 4
; File E:\Proyectos\JuegosOnlineproyectos\PB\pbblow\Piercing Blow Remake\i3Server\include\i3Base\itl\memory.h

; 60   : 			if (count > 0)

  000cf	85 c0		 test	 eax, eax
  000d1	74 2c		 je	 SHORT $LN51@insert_1

; 61   : 				::memmove_s(&*Dest, count * sizeof (*First), &*First, count * sizeof (*First));	// NB: non-overlapping move

  000d3	c1 e0 02	 shl	 eax, 2
; File C:\Program Files (x86)\Windows Kits\10\Include\10.0.26100.0\ucrt\corecrt_memcpy_s.h

; 76   :         if (_SourceSize == 0)

  000d6	85 c0		 test	 eax, eax
  000d8	74 25		 je	 SHORT $LN51@insert_1

; 81   :         _CRT_MEMCPY_S_VALIDATE_RETURN_ERRCODE(_Destination != NULL,            EINVAL);

  000da	85 c9		 test	 ecx, ecx
  000dc	75 12		 jne	 SHORT $LN53@insert_1
$LN152@insert_1:
; File E:\Proyectos\JuegosOnlineproyectos\PB\pbblow\Piercing Blow Remake\i3Server\include\i3Base\itl\detail\vector.h

; 153  : 		size_type		size() const	{ return m_last - m_first; }

  000de	e8 00 00 00 00	 call	 __errno
  000e3	c7 00 16 00 00
	00		 mov	 DWORD PTR [eax], 22	; 00000016H
  000e9	e8 00 00 00 00	 call	 __invalid_parameter_noinfo
  000ee	eb 0f		 jmp	 SHORT $LN51@insert_1
$LN53@insert_1:
; File C:\Program Files (x86)\Windows Kits\10\Include\10.0.26100.0\ucrt\corecrt_memcpy_s.h

; 82   :         _CRT_MEMCPY_S_VALIDATE_RETURN_ERRCODE(_Source != NULL,                 EINVAL);

  000f0	85 f6		 test	 esi, esi
  000f2	74 ea		 je	 SHORT $LN152@insert_1

; 83   :         _CRT_MEMCPY_S_VALIDATE_RETURN_ERRCODE(_DestinationSize >= _SourceSize, ERANGE);
; 84   : 
; 85   :         memmove(_Destination, _Source, _SourceSize);

  000f4	50		 push	 eax
  000f5	56		 push	 esi
  000f6	51		 push	 ecx
  000f7	e8 00 00 00 00	 call	 _memmove
  000fc	83 c4 0c	 add	 esp, 12			; 0000000cH
$LN51@insert_1:
; File E:\Proyectos\JuegosOnlineproyectos\PB\pbblow\Piercing Blow Remake\i3Server\include\i3Base\itl\detail\vector.h

; 153  : 		size_type		size() const	{ return m_last - m_first; }

  000ff	8b 47 04	 mov	 eax, DWORD PTR [edi+4]
  00102	8b 77 08	 mov	 esi, DWORD PTR [edi+8]
  00105	2b f0		 sub	 esi, eax
  00107	c1 fe 02	 sar	 esi, 2

; 413  : 
; 414  : 				size_type count = 1 + size();

  0010a	46		 inc	 esi

; 415  : 
; 416  : 				if (m_first != 0)		// destroy and deallocate old array

  0010b	85 c0		 test	 eax, eax
  0010d	74 10		 je	 SHORT $LN63@insert_1
; File E:\Proyectos\JuegosOnlineproyectos\PB\pbblow\Piercing Blow Remake\i3Server\include\i3Base\memory\memory_aligned_apply.h

; 33   : 		ptr = ( ptr & ~( sizeof(void*) -1 ) ) - sizeof(void*);

  0010f	83 e0 fc	 and	 eax, -4			; fffffffcH
; File E:\Proyectos\JuegosOnlineproyectos\PB\pbblow\Piercing Blow Remake\i3Server\include\i3Base\memory\memory_alloc.inl

; 109  : 		::HeapFree(HANDLE(h), 0, get_raw_data_from_aligned_malloc(data) );

  00112	ff 70 fc	 push	 DWORD PTR [eax-4]
  00115	6a 00		 push	 0
  00117	ff 37		 push	 DWORD PTR [edi]
  00119	ff 15 00 00 00
	00		 call	 DWORD PTR __imp__HeapFree@12
$LN63@insert_1:
; File E:\Proyectos\JuegosOnlineproyectos\PB\pbblow\Piercing Blow Remake\i3Server\include\i3Base\itl\detail\vector.h

; 422  : 				m_end = Newvec + Capacity;

  0011f	8b 45 fc	 mov	 eax, DWORD PTR tv1024[ebp]
  00122	03 c3		 add	 eax, ebx

; 423  : 				m_last = Newvec + count;
; 424  : 				m_first = Newvec;

  00124	89 5f 04	 mov	 DWORD PTR [edi+4], ebx
  00127	89 47 0c	 mov	 DWORD PTR [edi+12], eax
  0012a	8d 04 b3	 lea	 eax, DWORD PTR [ebx+esi*4]
  0012d	89 47 08	 mov	 DWORD PTR [edi+8], eax
  00130	5f		 pop	 edi

; 443  : 		}

  00131	5e		 pop	 esi
  00132	5b		 pop	 ebx
  00133	8b e5		 mov	 esp, ebp
  00135	5d		 pop	 ebp
  00136	c2 08 00	 ret	 8
$LN4@insert_1:

; 425  : 			}
; 426  : 			else if ( (size_type)( m_last - Where ) < 1 )

  00139	8b c1		 mov	 eax, ecx
  0013b	2b c6		 sub	 eax, esi
  0013d	89 45 fc	 mov	 DWORD PTR tv1027[ebp], eax
  00140	8b 45 0c	 mov	 eax, DWORD PTR _val$[ebp]
  00143	8b 18		 mov	 ebx, DWORD PTR [eax]
  00145	8b 45 fc	 mov	 eax, DWORD PTR tv1027[ebp]
  00148	c1 f8 02	 sar	 eax, 2
  0014b	83 f8 01	 cmp	 eax, 1
  0014e	73 27		 jae	 SHORT $LN8@insert_1

; 427  : 			{	// new stuff spills off end
; 428  : 				T Tmp = val;	// in case _Val is in sequence
; 429  : 				i3::uninitialized_copy(Where, m_last, Where + 1, allocator_base::get()); // i3::uninitialized_copy( Where, m_last, Where + 1 , m_alloc );	//  copy suffix
; 430  : 				i3::uninitialized_fill_1(m_last, Tmp, allocator_base::get());			// i3::uninitialized_fill_1( m_last, Tmp, m_alloc);	// insert new stuff off end

  00150	8b c1		 mov	 eax, ecx
  00152	89 18		 mov	 DWORD PTR [eax], ebx

; 431  : 				++m_last;

  00154	8b 4f 08	 mov	 ecx, DWORD PTR [edi+8]
  00157	8d 41 04	 lea	 eax, DWORD PTR [ecx+4]
  0015a	89 47 08	 mov	 DWORD PTR [edi+8], eax
; File E:\Proyectos\JuegosOnlineproyectos\PB\pbblow\Piercing Blow Remake\i3Server\include\i3Base\itl\xutility.h

; 140  : 			for (; First != Last; ++First)

  0015d	3b f1		 cmp	 esi, ecx
  0015f	0f 84 a4 00 00
	00		 je	 $LN116@insert_1
$LL86@insert_1:

; 141  : 				*First = Val;

  00165	89 1e		 mov	 DWORD PTR [esi], ebx
  00167	83 c6 04	 add	 esi, 4
  0016a	3b f1		 cmp	 esi, ecx
  0016c	75 f7		 jne	 SHORT $LL86@insert_1
; File E:\Proyectos\JuegosOnlineproyectos\PB\pbblow\Piercing Blow Remake\i3Server\include\i3Base\itl\detail\vector.h

; 443  : 		}

  0016e	5f		 pop	 edi
  0016f	5e		 pop	 esi
  00170	5b		 pop	 ebx
  00171	8b e5		 mov	 esp, ebp
  00173	5d		 pop	 ebp
  00174	c2 08 00	 ret	 8
$LN8@insert_1:

; 439  : 				m_last = i3::uninitialized_copy(Oldend - 1, Oldend, m_last, allocator_base::get()); // i3::uninitialized_copy( Oldend - 1, Oldend, m_last, m_alloc);// copy suffix

  00177	8d 41 fc	 lea	 eax, DWORD PTR [ecx-4]
; File C:\Program Files (x86)\Windows Kits\10\Include\10.0.26100.0\ucrt\corecrt_memcpy_s.h

; 81   :         _CRT_MEMCPY_S_VALIDATE_RETURN_ERRCODE(_Destination != NULL,            EINVAL);

  0017a	85 c9		 test	 ecx, ecx
  0017c	75 15		 jne	 SHORT $LN97@insert_1
$LN153@insert_1:
; File E:\Proyectos\JuegosOnlineproyectos\PB\pbblow\Piercing Blow Remake\i3Server\include\i3Base\itl\detail\vector.h

; 439  : 				m_last = i3::uninitialized_copy(Oldend - 1, Oldend, m_last, allocator_base::get()); // i3::uninitialized_copy( Oldend - 1, Oldend, m_last, m_alloc);// copy suffix

  0017e	e8 00 00 00 00	 call	 __errno
  00183	c7 00 16 00 00
	00		 mov	 DWORD PTR [eax], 22	; 00000016H
  00189	e8 00 00 00 00	 call	 __invalid_parameter_noinfo
  0018e	8b 4d 08	 mov	 ecx, DWORD PTR _Result$1$[ebp]
  00191	eb 08		 jmp	 SHORT $LN95@insert_1
$LN97@insert_1:
; File C:\Program Files (x86)\Windows Kits\10\Include\10.0.26100.0\ucrt\corecrt_memcpy_s.h

; 82   :         _CRT_MEMCPY_S_VALIDATE_RETURN_ERRCODE(_Source != NULL,                 EINVAL);

  00193	85 c0		 test	 eax, eax
  00195	74 e7		 je	 SHORT $LN153@insert_1

; 83   :         _CRT_MEMCPY_S_VALIDATE_RETURN_ERRCODE(_DestinationSize >= _SourceSize, ERANGE);
; 84   : 
; 85   :         memmove(_Destination, _Source, _SourceSize);

  00197	8b 00		 mov	 eax, DWORD PTR [eax]
  00199	89 01		 mov	 DWORD PTR [ecx], eax
$LN95@insert_1:
; File E:\Proyectos\JuegosOnlineproyectos\PB\pbblow\Piercing Blow Remake\i3Server\include\i3Base\itl\detail\vector.h

; 439  : 				m_last = i3::uninitialized_copy(Oldend - 1, Oldend, m_last, allocator_base::get()); // i3::uninitialized_copy( Oldend - 1, Oldend, m_last, m_alloc);// copy suffix

  0019b	8d 41 04	 lea	 eax, DWORD PTR [ecx+4]
  0019e	89 47 08	 mov	 DWORD PTR [edi+8], eax
; File E:\Proyectos\JuegosOnlineproyectos\PB\pbblow\Piercing Blow Remake\i3Server\include\i3Base\itl\xutility.h

; 192  : 			ptrdiff_t Off = Last - First;	// NB: non-overlapping move

  001a1	8b 45 fc	 mov	 eax, DWORD PTR tv1027[ebp]
  001a4	83 c0 fc	 add	 eax, -4			; fffffffcH
  001a7	c1 f8 02	 sar	 eax, 2

; 193  : 			// if _OutIt is range checked, this will make sure there is enough space for the memmove
; 194  : 			
; 195  : 			BidirectionalIterator2 Result = Dest - Off;

  001aa	8d 14 85 00 00
	00 00		 lea	 edx, DWORD PTR [eax*4]
  001b1	2b ca		 sub	 ecx, edx

; 196  : 			if (Off > 0)

  001b3	85 c0		 test	 eax, eax
  001b5	7e 40		 jle	 SHORT $LN106@insert_1
; File C:\Program Files (x86)\Windows Kits\10\Include\10.0.26100.0\ucrt\corecrt_memcpy_s.h

; 76   :         if (_SourceSize == 0)

  001b7	85 d2		 test	 edx, edx
  001b9	74 3c		 je	 SHORT $LN106@insert_1

; 81   :         _CRT_MEMCPY_S_VALIDATE_RETURN_ERRCODE(_Destination != NULL,            EINVAL);

  001bb	85 c9		 test	 ecx, ecx
  001bd	75 12		 jne	 SHORT $LN108@insert_1
  001bf	e8 00 00 00 00	 call	 __errno
  001c4	c7 00 16 00 00
	00		 mov	 DWORD PTR [eax], 22	; 00000016H
  001ca	e8 00 00 00 00	 call	 __invalid_parameter_noinfo
  001cf	eb 26		 jmp	 SHORT $LN106@insert_1
$LN108@insert_1:

; 82   :         _CRT_MEMCPY_S_VALIDATE_RETURN_ERRCODE(_Source != NULL,                 EINVAL);

  001d1	85 f6		 test	 esi, esi
  001d3	75 17		 jne	 SHORT $LN109@insert_1
  001d5	e8 00 00 00 00	 call	 __errno
  001da	c7 00 16 00 00
	00		 mov	 DWORD PTR [eax], 22	; 00000016H
  001e0	e8 00 00 00 00	 call	 __invalid_parameter_noinfo
  001e5	8b c6		 mov	 eax, esi
  001e7	8d 4e 04	 lea	 ecx, DWORD PTR [esi+4]
  001ea	eb 14		 jmp	 SHORT $LL117@insert_1
$LN109@insert_1:

; 83   :         _CRT_MEMCPY_S_VALIDATE_RETURN_ERRCODE(_DestinationSize >= _SourceSize, ERANGE);
; 84   : 
; 85   :         memmove(_Destination, _Source, _SourceSize);

  001ec	52		 push	 edx
  001ed	56		 push	 esi
  001ee	51		 push	 ecx
  001ef	e8 00 00 00 00	 call	 _memmove
  001f4	83 c4 0c	 add	 esp, 12			; 0000000cH
$LN106@insert_1:
; File E:\Proyectos\JuegosOnlineproyectos\PB\pbblow\Piercing Blow Remake\i3Server\include\i3Base\itl\detail\vector.h

; 441  : 				i3::fill(Where, Where + 1,	Tmp);	// insert into hole

  001f7	8d 4e 04	 lea	 ecx, DWORD PTR [esi+4]
; File E:\Proyectos\JuegosOnlineproyectos\PB\pbblow\Piercing Blow Remake\i3Server\include\i3Base\itl\xutility.h

; 247  : 		detail::Fill(First, Last, Val);

  001fa	8b c6		 mov	 eax, esi

; 140  : 			for (; First != Last; ++First)

  001fc	3b f1		 cmp	 esi, ecx
  001fe	74 09		 je	 SHORT $LN116@insert_1
$LL117@insert_1:

; 141  : 				*First = Val;

  00200	89 18		 mov	 DWORD PTR [eax], ebx
  00202	83 c0 04	 add	 eax, 4
  00205	3b c1		 cmp	 eax, ecx
  00207	75 f7		 jne	 SHORT $LL117@insert_1
$LN116@insert_1:
  00209	5f		 pop	 edi
; File E:\Proyectos\JuegosOnlineproyectos\PB\pbblow\Piercing Blow Remake\i3Server\include\i3Base\itl\detail\vector.h

; 443  : 		}

  0020a	5e		 pop	 esi
  0020b	5b		 pop	 ebx
  0020c	8b e5		 mov	 esp, ebp
  0020e	5d		 pop	 ebp
  0020f	c2 08 00	 ret	 8
?insert_1@?$vector@PAVthread_data@detail_tls@i3@@V?$heap_allocator@PAVthread_data@detail_tls@i3@@@3@@i3@@AAEXPBQAVthread_data@detail_tls@2@ABQAV342@@Z ENDP ; i3::vector<i3::detail_tls::thread_data *,i3::heap_allocator<i3::detail_tls::thread_data *> >::insert_1
_TEXT	ENDS
; Function compile flags: /Ogtp
; File E:\Proyectos\JuegosOnlineproyectos\PB\pbblow\Piercing Blow Remake\i3Server\include\i3Base\itl\detail\vector.h
; File E:\Proyectos\JuegosOnlineproyectos\PB\pbblow\Piercing Blow Remake\i3Server\include\i3Base\memory\heap_allocator.h
; File E:\Proyectos\JuegosOnlineproyectos\PB\pbblow\Piercing Blow Remake\i3Server\include\i3Base\memory\memory_aligned_apply.h
; File E:\Proyectos\JuegosOnlineproyectos\PB\pbblow\Piercing Blow Remake\i3Server\include\i3Base\memory\memory_alloc.inl
; File E:\Proyectos\JuegosOnlineproyectos\PB\pbblow\Piercing Blow Remake\i3Server\include\i3Base\memory\memory_aligned_apply.h
; File E:\Proyectos\JuegosOnlineproyectos\PB\pbblow\Piercing Blow Remake\i3Server\include\i3Base\itl\detail\vector.h
; File E:\Proyectos\JuegosOnlineproyectos\PB\pbblow\Piercing Blow Remake\i3Server\include\i3Base\itl\memory.h
; File C:\Program Files (x86)\Windows Kits\10\Include\10.0.26100.0\ucrt\corecrt_memcpy_s.h
; File E:\Proyectos\JuegosOnlineproyectos\PB\pbblow\Piercing Blow Remake\i3Server\include\i3Base\itl\memory.h
; File E:\Proyectos\JuegosOnlineproyectos\PB\pbblow\Piercing Blow Remake\i3Server\include\i3Base\itl\detail\vector.h
; File E:\Proyectos\JuegosOnlineproyectos\PB\pbblow\Piercing Blow Remake\i3Server\include\i3Base\itl\memory.h
; File E:\Proyectos\JuegosOnlineproyectos\PB\pbblow\Piercing Blow Remake\i3Server\include\i3Base\itl\detail\vector.h
; File E:\Proyectos\JuegosOnlineproyectos\PB\pbblow\Piercing Blow Remake\i3Server\include\i3Base\itl\memory.h
; File C:\Program Files (x86)\Windows Kits\10\Include\10.0.26100.0\ucrt\corecrt_memcpy_s.h
; File E:\Proyectos\JuegosOnlineproyectos\PB\pbblow\Piercing Blow Remake\i3Server\include\i3Base\itl\detail\vector.h
; File C:\Program Files (x86)\Windows Kits\10\Include\10.0.26100.0\ucrt\corecrt_memcpy_s.h
; File E:\Proyectos\JuegosOnlineproyectos\PB\pbblow\Piercing Blow Remake\i3Server\include\i3Base\itl\detail\vector.h
; File E:\Proyectos\JuegosOnlineproyectos\PB\pbblow\Piercing Blow Remake\i3Server\include\i3Base\memory\memory_aligned_apply.h
; File E:\Proyectos\JuegosOnlineproyectos\PB\pbblow\Piercing Blow Remake\i3Server\include\i3Base\memory\memory_alloc.inl
; File E:\Proyectos\JuegosOnlineproyectos\PB\pbblow\Piercing Blow Remake\i3Server\include\i3Base\itl\detail\vector.h
; File E:\Proyectos\JuegosOnlineproyectos\PB\pbblow\Piercing Blow Remake\i3Server\include\i3Base\itl\xutility.h
; File E:\Proyectos\JuegosOnlineproyectos\PB\pbblow\Piercing Blow Remake\i3Server\include\i3Base\itl\detail\vector.h
; File C:\Program Files (x86)\Windows Kits\10\Include\10.0.26100.0\ucrt\corecrt_memcpy_s.h
; File E:\Proyectos\JuegosOnlineproyectos\PB\pbblow\Piercing Blow Remake\i3Server\include\i3Base\itl\detail\vector.h
; File C:\Program Files (x86)\Windows Kits\10\Include\10.0.26100.0\ucrt\corecrt_memcpy_s.h
; File E:\Proyectos\JuegosOnlineproyectos\PB\pbblow\Piercing Blow Remake\i3Server\include\i3Base\itl\detail\vector.h
; File E:\Proyectos\JuegosOnlineproyectos\PB\pbblow\Piercing Blow Remake\i3Server\include\i3Base\itl\xutility.h
; File C:\Program Files (x86)\Windows Kits\10\Include\10.0.26100.0\ucrt\corecrt_memcpy_s.h
; File E:\Proyectos\JuegosOnlineproyectos\PB\pbblow\Piercing Blow Remake\i3Server\include\i3Base\itl\detail\vector.h
; File E:\Proyectos\JuegosOnlineproyectos\PB\pbblow\Piercing Blow Remake\i3Server\include\i3Base\itl\xutility.h
; File E:\Proyectos\JuegosOnlineproyectos\PB\pbblow\Piercing Blow Remake\i3Server\include\i3Base\itl\detail\vector.h
;	COMDAT ?insert_1@?$vector@PAVtls_base@i3@@V?$heap_allocator@PAVtls_base@i3@@@2@@i3@@AAEXPBQAVtls_base@2@ABQAV32@@Z
_TEXT	SEGMENT
tv1024 = -4						; size = 4
tv1027 = -4						; size = 4
_where$ = 8						; size = 4
_Result$1$ = 8						; size = 4
tv964 = 8						; size = 4
tv1031 = 8						; size = 4
_val$ = 12						; size = 4
?insert_1@?$vector@PAVtls_base@i3@@V?$heap_allocator@PAVtls_base@i3@@@2@@i3@@AAEXPBQAVtls_base@2@ABQAV32@@Z PROC ; i3::vector<i3::tls_base *,i3::heap_allocator<i3::tls_base *> >::insert_1, COMDAT
; _this$ = ecx

; 396  : 		{	// insert _Count * _Val at _Where

  00000	55		 push	 ebp
  00001	8b ec		 mov	 ebp, esp
  00003	51		 push	 ecx
  00004	53		 push	 ebx
  00005	56		 push	 esi
  00006	8b 75 08	 mov	 esi, DWORD PTR _where$[ebp]

; 397  : 			iterator Where = iterator(where);
; 398  : 			size_type Capacity = capacity();
; 399  : 
; 400  : 			if ( max_size() - size() < 1 )

  00009	b8 ff ff ff 3f	 mov	 eax, 1073741823		; 3fffffffH
  0000e	57		 push	 edi
  0000f	8b f9		 mov	 edi, ecx

; 153  : 		size_type		size() const	{ return m_last - m_first; }

  00011	8b 4f 08	 mov	 ecx, DWORD PTR [edi+8]
  00014	8b d1		 mov	 edx, ecx
  00016	2b 57 04	 sub	 edx, DWORD PTR [edi+4]

; 132  : 		size_type		capacity() const { return m_end - m_first; }

  00019	8b 5f 0c	 mov	 ebx, DWORD PTR [edi+12]
  0001c	2b 5f 04	 sub	 ebx, DWORD PTR [edi+4]

; 153  : 		size_type		size() const	{ return m_last - m_first; }

  0001f	c1 fa 02	 sar	 edx, 2

; 397  : 			iterator Where = iterator(where);
; 398  : 			size_type Capacity = capacity();
; 399  : 
; 400  : 			if ( max_size() - size() < 1 )

  00022	2b c2		 sub	 eax, edx

; 132  : 		size_type		capacity() const { return m_end - m_first; }

  00024	c1 fb 02	 sar	 ebx, 2

; 153  : 		size_type		size() const	{ return m_last - m_first; }

  00027	89 4d 08	 mov	 DWORD PTR _Result$1$[ebp], ecx

; 397  : 			iterator Where = iterator(where);
; 398  : 			size_type Capacity = capacity();
; 399  : 
; 400  : 			if ( max_size() - size() < 1 )

  0002a	83 f8 01	 cmp	 eax, 1
  0002d	0f 82 d6 01 00
	00		 jb	 $LN116@insert_1

; 401  : 				;
; 402  : 			else if ( Capacity < size() + 1 )

  00033	42		 inc	 edx
  00034	3b da		 cmp	 ebx, edx
  00036	0f 83 fd 00 00
	00		 jae	 $LN4@insert_1

; 403  : 			{	// not enough room, reallocate
; 404  : 				Capacity = ( max_size() - Capacity / 2 < Capacity) ? 0 : Capacity + Capacity / 2;	// try to grow by 50%

  0003c	8b c3		 mov	 eax, ebx
  0003e	b9 ff ff ff 3f	 mov	 ecx, 1073741823		; 3fffffffH
  00043	d1 e8		 shr	 eax, 1
  00045	2b c8		 sub	 ecx, eax

; 405  : 				if ( Capacity < size() + 1)	Capacity = size() + 1;

  00047	03 c3		 add	 eax, ebx
  00049	89 4d 08	 mov	 DWORD PTR tv964[ebp], ecx
  0004c	33 c9		 xor	 ecx, ecx
  0004e	39 5d 08	 cmp	 DWORD PTR tv964[ebp], ebx
  00051	0f 43 c8	 cmovae	 ecx, eax
; File E:\Proyectos\JuegosOnlineproyectos\PB\pbblow\Piercing Blow Remake\i3Server\include\i3Base\memory\heap_allocator.h

; 36   : 			return (pointer)heap_aligned_malloc(m_heap, _Count * sizeof(T), __alignof(T) );

  00054	3b ca		 cmp	 ecx, edx
  00056	0f 43 d1	 cmovae	 edx, ecx
  00059	c1 e2 02	 shl	 edx, 2
  0005c	89 55 fc	 mov	 DWORD PTR tv1024[ebp], edx
; File E:\Proyectos\JuegosOnlineproyectos\PB\pbblow\Piercing Blow Remake\i3Server\include\i3Base\memory\memory_aligned_apply.h

; 19   : 	size_t	calculate_aligned_malloc_size(size_t size, size_t adjusted_align) { return sizeof(void*) + size + adjusted_align;  }

  0005f	8d 42 08	 lea	 eax, DWORD PTR [edx+8]
; File E:\Proyectos\JuegosOnlineproyectos\PB\pbblow\Piercing Blow Remake\i3Server\include\i3Base\memory\memory_alloc.inl

; 101  : 		void* data = ::HeapAlloc(HANDLE(h), 0, calculate_aligned_malloc_size(size, align) );

  00062	50		 push	 eax
  00063	6a 00		 push	 0
  00065	ff 37		 push	 DWORD PTR [edi]
  00067	ff 15 00 00 00
	00		 call	 DWORD PTR __imp__HeapAlloc@12
; File E:\Proyectos\JuegosOnlineproyectos\PB\pbblow\Piercing Blow Remake\i3Server\include\i3Base\memory\memory_aligned_apply.h

; 24   : 		uintptr_t result = ( uintptr_t(raw_data) + sizeof(void*) + adjusted_align - 1 ) & ~(adjusted_align - 1);

  0006d	8d 58 07	 lea	 ebx, DWORD PTR [eax+7]
  00070	83 e3 fc	 and	 ebx, -4			; fffffffcH

; 25   : 		((uintptr_t*)result)[-1] = (uintptr_t)raw_data;

  00073	89 43 fc	 mov	 DWORD PTR [ebx-4], eax
; File E:\Proyectos\JuegosOnlineproyectos\PB\pbblow\Piercing Blow Remake\i3Server\include\i3Base\itl\detail\vector.h

; 408  : 				size_type Whereoff = Where - m_first;

  00076	8b c6		 mov	 eax, esi
  00078	2b 47 04	 sub	 eax, DWORD PTR [edi+4]
  0007b	c1 f8 02	 sar	 eax, 2

; 409  : 			
; 410  : 				i3::uninitialized_fill_1(Newvec + Whereoff, val, allocator_base::get() );	// i3::uninitialized_fill_1(Newvec + Whereoff, val, m_alloc );	// add new stuff

  0007e	8d 0c 83	 lea	 ecx, DWORD PTR [ebx+eax*4]
  00081	8b 45 0c	 mov	 eax, DWORD PTR _val$[ebp]
  00084	89 4d 08	 mov	 DWORD PTR tv1031[ebp], ecx
  00087	8b 00		 mov	 eax, DWORD PTR [eax]
  00089	89 01		 mov	 DWORD PTR [ecx], eax
; File E:\Proyectos\JuegosOnlineproyectos\PB\pbblow\Piercing Blow Remake\i3Server\include\i3Base\itl\memory.h

; 58   : 			size_t count = (size_t)(Last - First);

  0008b	8b c6		 mov	 eax, esi

; 133  : 		return detail::uninit_copy(First, Last, Dest, Al,	pointer_category(First, Dest) ) ;

  0008d	8b 4f 04	 mov	 ecx, DWORD PTR [edi+4]

; 58   : 			size_t count = (size_t)(Last - First);

  00090	2b c1		 sub	 eax, ecx
  00092	c1 f8 02	 sar	 eax, 2

; 60   : 			if (count > 0)

  00095	85 c0		 test	 eax, eax
  00097	74 28		 je	 SHORT $LN38@insert_1

; 61   : 				::memmove_s(&*Dest, count * sizeof (*First), &*First, count * sizeof (*First));	// NB: non-overlapping move

  00099	c1 e0 02	 shl	 eax, 2
; File C:\Program Files (x86)\Windows Kits\10\Include\10.0.26100.0\ucrt\corecrt_memcpy_s.h

; 76   :         if (_SourceSize == 0)

  0009c	85 c0		 test	 eax, eax
  0009e	74 21		 je	 SHORT $LN38@insert_1

; 82   :         _CRT_MEMCPY_S_VALIDATE_RETURN_ERRCODE(_Source != NULL,                 EINVAL);

  000a0	85 c9		 test	 ecx, ecx
  000a2	75 12		 jne	 SHORT $LN41@insert_1
  000a4	e8 00 00 00 00	 call	 __errno
  000a9	c7 00 16 00 00
	00		 mov	 DWORD PTR [eax], 22	; 00000016H
  000af	e8 00 00 00 00	 call	 __invalid_parameter_noinfo
  000b4	eb 0b		 jmp	 SHORT $LN38@insert_1
$LN41@insert_1:

; 83   :         _CRT_MEMCPY_S_VALIDATE_RETURN_ERRCODE(_DestinationSize >= _SourceSize, ERANGE);
; 84   : 
; 85   :         memmove(_Destination, _Source, _SourceSize);

  000b6	50		 push	 eax
  000b7	51		 push	 ecx
  000b8	53		 push	 ebx
  000b9	e8 00 00 00 00	 call	 _memmove
  000be	83 c4 0c	 add	 esp, 12			; 0000000cH
$LN38@insert_1:
; File E:\Proyectos\JuegosOnlineproyectos\PB\pbblow\Piercing Blow Remake\i3Server\include\i3Base\itl\memory.h

; 58   : 			size_t count = (size_t)(Last - First);

  000c1	8b 47 08	 mov	 eax, DWORD PTR [edi+8]
; File E:\Proyectos\JuegosOnlineproyectos\PB\pbblow\Piercing Blow Remake\i3Server\include\i3Base\itl\detail\vector.h

; 412  : 				i3::uninitialized_copy(Where, m_last, Newvec + Whereoff + 1, allocator_base::get());	//i3::uninitialized_copy( Where, m_last, Newvec + Whereoff + 1, m_alloc);	// move suffix

  000c4	8b 4d 08	 mov	 ecx, DWORD PTR tv1031[ebp]
; File E:\Proyectos\JuegosOnlineproyectos\PB\pbblow\Piercing Blow Remake\i3Server\include\i3Base\itl\memory.h

; 58   : 			size_t count = (size_t)(Last - First);

  000c7	2b c6		 sub	 eax, esi
  000c9	c1 f8 02	 sar	 eax, 2
; File E:\Proyectos\JuegosOnlineproyectos\PB\pbblow\Piercing Blow Remake\i3Server\include\i3Base\itl\detail\vector.h

; 412  : 				i3::uninitialized_copy(Where, m_last, Newvec + Whereoff + 1, allocator_base::get());	//i3::uninitialized_copy( Where, m_last, Newvec + Whereoff + 1, m_alloc);	// move suffix

  000cc	83 c1 04	 add	 ecx, 4
; File E:\Proyectos\JuegosOnlineproyectos\PB\pbblow\Piercing Blow Remake\i3Server\include\i3Base\itl\memory.h

; 60   : 			if (count > 0)

  000cf	85 c0		 test	 eax, eax
  000d1	74 2c		 je	 SHORT $LN51@insert_1

; 61   : 				::memmove_s(&*Dest, count * sizeof (*First), &*First, count * sizeof (*First));	// NB: non-overlapping move

  000d3	c1 e0 02	 shl	 eax, 2
; File C:\Program Files (x86)\Windows Kits\10\Include\10.0.26100.0\ucrt\corecrt_memcpy_s.h

; 76   :         if (_SourceSize == 0)

  000d6	85 c0		 test	 eax, eax
  000d8	74 25		 je	 SHORT $LN51@insert_1

; 81   :         _CRT_MEMCPY_S_VALIDATE_RETURN_ERRCODE(_Destination != NULL,            EINVAL);

  000da	85 c9		 test	 ecx, ecx
  000dc	75 12		 jne	 SHORT $LN53@insert_1
$LN152@insert_1:
; File E:\Proyectos\JuegosOnlineproyectos\PB\pbblow\Piercing Blow Remake\i3Server\include\i3Base\itl\detail\vector.h

; 153  : 		size_type		size() const	{ return m_last - m_first; }

  000de	e8 00 00 00 00	 call	 __errno
  000e3	c7 00 16 00 00
	00		 mov	 DWORD PTR [eax], 22	; 00000016H
  000e9	e8 00 00 00 00	 call	 __invalid_parameter_noinfo
  000ee	eb 0f		 jmp	 SHORT $LN51@insert_1
$LN53@insert_1:
; File C:\Program Files (x86)\Windows Kits\10\Include\10.0.26100.0\ucrt\corecrt_memcpy_s.h

; 82   :         _CRT_MEMCPY_S_VALIDATE_RETURN_ERRCODE(_Source != NULL,                 EINVAL);

  000f0	85 f6		 test	 esi, esi
  000f2	74 ea		 je	 SHORT $LN152@insert_1

; 83   :         _CRT_MEMCPY_S_VALIDATE_RETURN_ERRCODE(_DestinationSize >= _SourceSize, ERANGE);
; 84   : 
; 85   :         memmove(_Destination, _Source, _SourceSize);

  000f4	50		 push	 eax
  000f5	56		 push	 esi
  000f6	51		 push	 ecx
  000f7	e8 00 00 00 00	 call	 _memmove
  000fc	83 c4 0c	 add	 esp, 12			; 0000000cH
$LN51@insert_1:
; File E:\Proyectos\JuegosOnlineproyectos\PB\pbblow\Piercing Blow Remake\i3Server\include\i3Base\itl\detail\vector.h

; 153  : 		size_type		size() const	{ return m_last - m_first; }

  000ff	8b 47 04	 mov	 eax, DWORD PTR [edi+4]
  00102	8b 77 08	 mov	 esi, DWORD PTR [edi+8]
  00105	2b f0		 sub	 esi, eax
  00107	c1 fe 02	 sar	 esi, 2

; 413  : 
; 414  : 				size_type count = 1 + size();

  0010a	46		 inc	 esi

; 415  : 
; 416  : 				if (m_first != 0)		// destroy and deallocate old array

  0010b	85 c0		 test	 eax, eax
  0010d	74 10		 je	 SHORT $LN63@insert_1
; File E:\Proyectos\JuegosOnlineproyectos\PB\pbblow\Piercing Blow Remake\i3Server\include\i3Base\memory\memory_aligned_apply.h

; 33   : 		ptr = ( ptr & ~( sizeof(void*) -1 ) ) - sizeof(void*);

  0010f	83 e0 fc	 and	 eax, -4			; fffffffcH
; File E:\Proyectos\JuegosOnlineproyectos\PB\pbblow\Piercing Blow Remake\i3Server\include\i3Base\memory\memory_alloc.inl

; 109  : 		::HeapFree(HANDLE(h), 0, get_raw_data_from_aligned_malloc(data) );

  00112	ff 70 fc	 push	 DWORD PTR [eax-4]
  00115	6a 00		 push	 0
  00117	ff 37		 push	 DWORD PTR [edi]
  00119	ff 15 00 00 00
	00		 call	 DWORD PTR __imp__HeapFree@12
$LN63@insert_1:
; File E:\Proyectos\JuegosOnlineproyectos\PB\pbblow\Piercing Blow Remake\i3Server\include\i3Base\itl\detail\vector.h

; 422  : 				m_end = Newvec + Capacity;

  0011f	8b 45 fc	 mov	 eax, DWORD PTR tv1024[ebp]
  00122	03 c3		 add	 eax, ebx

; 423  : 				m_last = Newvec + count;
; 424  : 				m_first = Newvec;

  00124	89 5f 04	 mov	 DWORD PTR [edi+4], ebx
  00127	89 47 0c	 mov	 DWORD PTR [edi+12], eax
  0012a	8d 04 b3	 lea	 eax, DWORD PTR [ebx+esi*4]
  0012d	89 47 08	 mov	 DWORD PTR [edi+8], eax
  00130	5f		 pop	 edi

; 443  : 		}

  00131	5e		 pop	 esi
  00132	5b		 pop	 ebx
  00133	8b e5		 mov	 esp, ebp
  00135	5d		 pop	 ebp
  00136	c2 08 00	 ret	 8
$LN4@insert_1:

; 425  : 			}
; 426  : 			else if ( (size_type)( m_last - Where ) < 1 )

  00139	8b c1		 mov	 eax, ecx
  0013b	2b c6		 sub	 eax, esi
  0013d	89 45 fc	 mov	 DWORD PTR tv1027[ebp], eax
  00140	8b 45 0c	 mov	 eax, DWORD PTR _val$[ebp]
  00143	8b 18		 mov	 ebx, DWORD PTR [eax]
  00145	8b 45 fc	 mov	 eax, DWORD PTR tv1027[ebp]
  00148	c1 f8 02	 sar	 eax, 2
  0014b	83 f8 01	 cmp	 eax, 1
  0014e	73 27		 jae	 SHORT $LN8@insert_1

; 427  : 			{	// new stuff spills off end
; 428  : 				T Tmp = val;	// in case _Val is in sequence
; 429  : 				i3::uninitialized_copy(Where, m_last, Where + 1, allocator_base::get()); // i3::uninitialized_copy( Where, m_last, Where + 1 , m_alloc );	//  copy suffix
; 430  : 				i3::uninitialized_fill_1(m_last, Tmp, allocator_base::get());			// i3::uninitialized_fill_1( m_last, Tmp, m_alloc);	// insert new stuff off end

  00150	8b c1		 mov	 eax, ecx
  00152	89 18		 mov	 DWORD PTR [eax], ebx

; 431  : 				++m_last;

  00154	8b 4f 08	 mov	 ecx, DWORD PTR [edi+8]
  00157	8d 41 04	 lea	 eax, DWORD PTR [ecx+4]
  0015a	89 47 08	 mov	 DWORD PTR [edi+8], eax
; File E:\Proyectos\JuegosOnlineproyectos\PB\pbblow\Piercing Blow Remake\i3Server\include\i3Base\itl\xutility.h

; 140  : 			for (; First != Last; ++First)

  0015d	3b f1		 cmp	 esi, ecx
  0015f	0f 84 a4 00 00
	00		 je	 $LN116@insert_1
$LL86@insert_1:

; 141  : 				*First = Val;

  00165	89 1e		 mov	 DWORD PTR [esi], ebx
  00167	83 c6 04	 add	 esi, 4
  0016a	3b f1		 cmp	 esi, ecx
  0016c	75 f7		 jne	 SHORT $LL86@insert_1
; File E:\Proyectos\JuegosOnlineproyectos\PB\pbblow\Piercing Blow Remake\i3Server\include\i3Base\itl\detail\vector.h

; 443  : 		}

  0016e	5f		 pop	 edi
  0016f	5e		 pop	 esi
  00170	5b		 pop	 ebx
  00171	8b e5		 mov	 esp, ebp
  00173	5d		 pop	 ebp
  00174	c2 08 00	 ret	 8
$LN8@insert_1:

; 439  : 				m_last = i3::uninitialized_copy(Oldend - 1, Oldend, m_last, allocator_base::get()); // i3::uninitialized_copy( Oldend - 1, Oldend, m_last, m_alloc);// copy suffix

  00177	8d 41 fc	 lea	 eax, DWORD PTR [ecx-4]
; File C:\Program Files (x86)\Windows Kits\10\Include\10.0.26100.0\ucrt\corecrt_memcpy_s.h

; 81   :         _CRT_MEMCPY_S_VALIDATE_RETURN_ERRCODE(_Destination != NULL,            EINVAL);

  0017a	85 c9		 test	 ecx, ecx
  0017c	75 15		 jne	 SHORT $LN97@insert_1
$LN153@insert_1:
; File E:\Proyectos\JuegosOnlineproyectos\PB\pbblow\Piercing Blow Remake\i3Server\include\i3Base\itl\detail\vector.h

; 439  : 				m_last = i3::uninitialized_copy(Oldend - 1, Oldend, m_last, allocator_base::get()); // i3::uninitialized_copy( Oldend - 1, Oldend, m_last, m_alloc);// copy suffix

  0017e	e8 00 00 00 00	 call	 __errno
  00183	c7 00 16 00 00
	00		 mov	 DWORD PTR [eax], 22	; 00000016H
  00189	e8 00 00 00 00	 call	 __invalid_parameter_noinfo
  0018e	8b 4d 08	 mov	 ecx, DWORD PTR _Result$1$[ebp]
  00191	eb 08		 jmp	 SHORT $LN95@insert_1
$LN97@insert_1:
; File C:\Program Files (x86)\Windows Kits\10\Include\10.0.26100.0\ucrt\corecrt_memcpy_s.h

; 82   :         _CRT_MEMCPY_S_VALIDATE_RETURN_ERRCODE(_Source != NULL,                 EINVAL);

  00193	85 c0		 test	 eax, eax
  00195	74 e7		 je	 SHORT $LN153@insert_1

; 83   :         _CRT_MEMCPY_S_VALIDATE_RETURN_ERRCODE(_DestinationSize >= _SourceSize, ERANGE);
; 84   : 
; 85   :         memmove(_Destination, _Source, _SourceSize);

  00197	8b 00		 mov	 eax, DWORD PTR [eax]
  00199	89 01		 mov	 DWORD PTR [ecx], eax
$LN95@insert_1:
; File E:\Proyectos\JuegosOnlineproyectos\PB\pbblow\Piercing Blow Remake\i3Server\include\i3Base\itl\detail\vector.h

; 439  : 				m_last = i3::uninitialized_copy(Oldend - 1, Oldend, m_last, allocator_base::get()); // i3::uninitialized_copy( Oldend - 1, Oldend, m_last, m_alloc);// copy suffix

  0019b	8d 41 04	 lea	 eax, DWORD PTR [ecx+4]
  0019e	89 47 08	 mov	 DWORD PTR [edi+8], eax
; File E:\Proyectos\JuegosOnlineproyectos\PB\pbblow\Piercing Blow Remake\i3Server\include\i3Base\itl\xutility.h

; 192  : 			ptrdiff_t Off = Last - First;	// NB: non-overlapping move

  001a1	8b 45 fc	 mov	 eax, DWORD PTR tv1027[ebp]
  001a4	83 c0 fc	 add	 eax, -4			; fffffffcH
  001a7	c1 f8 02	 sar	 eax, 2

; 193  : 			// if _OutIt is range checked, this will make sure there is enough space for the memmove
; 194  : 			
; 195  : 			BidirectionalIterator2 Result = Dest - Off;

  001aa	8d 14 85 00 00
	00 00		 lea	 edx, DWORD PTR [eax*4]
  001b1	2b ca		 sub	 ecx, edx

; 196  : 			if (Off > 0)

  001b3	85 c0		 test	 eax, eax
  001b5	7e 40		 jle	 SHORT $LN106@insert_1
; File C:\Program Files (x86)\Windows Kits\10\Include\10.0.26100.0\ucrt\corecrt_memcpy_s.h

; 76   :         if (_SourceSize == 0)

  001b7	85 d2		 test	 edx, edx
  001b9	74 3c		 je	 SHORT $LN106@insert_1

; 81   :         _CRT_MEMCPY_S_VALIDATE_RETURN_ERRCODE(_Destination != NULL,            EINVAL);

  001bb	85 c9		 test	 ecx, ecx
  001bd	75 12		 jne	 SHORT $LN108@insert_1
  001bf	e8 00 00 00 00	 call	 __errno
  001c4	c7 00 16 00 00
	00		 mov	 DWORD PTR [eax], 22	; 00000016H
  001ca	e8 00 00 00 00	 call	 __invalid_parameter_noinfo
  001cf	eb 26		 jmp	 SHORT $LN106@insert_1
$LN108@insert_1:

; 82   :         _CRT_MEMCPY_S_VALIDATE_RETURN_ERRCODE(_Source != NULL,                 EINVAL);

  001d1	85 f6		 test	 esi, esi
  001d3	75 17		 jne	 SHORT $LN109@insert_1
  001d5	e8 00 00 00 00	 call	 __errno
  001da	c7 00 16 00 00
	00		 mov	 DWORD PTR [eax], 22	; 00000016H
  001e0	e8 00 00 00 00	 call	 __invalid_parameter_noinfo
  001e5	8b c6		 mov	 eax, esi
  001e7	8d 4e 04	 lea	 ecx, DWORD PTR [esi+4]
  001ea	eb 14		 jmp	 SHORT $LL117@insert_1
$LN109@insert_1:

; 83   :         _CRT_MEMCPY_S_VALIDATE_RETURN_ERRCODE(_DestinationSize >= _SourceSize, ERANGE);
; 84   : 
; 85   :         memmove(_Destination, _Source, _SourceSize);

  001ec	52		 push	 edx
  001ed	56		 push	 esi
  001ee	51		 push	 ecx
  001ef	e8 00 00 00 00	 call	 _memmove
  001f4	83 c4 0c	 add	 esp, 12			; 0000000cH
$LN106@insert_1:
; File E:\Proyectos\JuegosOnlineproyectos\PB\pbblow\Piercing Blow Remake\i3Server\include\i3Base\itl\detail\vector.h

; 441  : 				i3::fill(Where, Where + 1,	Tmp);	// insert into hole

  001f7	8d 4e 04	 lea	 ecx, DWORD PTR [esi+4]
; File E:\Proyectos\JuegosOnlineproyectos\PB\pbblow\Piercing Blow Remake\i3Server\include\i3Base\itl\xutility.h

; 247  : 		detail::Fill(First, Last, Val);

  001fa	8b c6		 mov	 eax, esi

; 140  : 			for (; First != Last; ++First)

  001fc	3b f1		 cmp	 esi, ecx
  001fe	74 09		 je	 SHORT $LN116@insert_1
$LL117@insert_1:

; 141  : 				*First = Val;

  00200	89 18		 mov	 DWORD PTR [eax], ebx
  00202	83 c0 04	 add	 eax, 4
  00205	3b c1		 cmp	 eax, ecx
  00207	75 f7		 jne	 SHORT $LL117@insert_1
$LN116@insert_1:
  00209	5f		 pop	 edi
; File E:\Proyectos\JuegosOnlineproyectos\PB\pbblow\Piercing Blow Remake\i3Server\include\i3Base\itl\detail\vector.h

; 443  : 		}

  0020a	5e		 pop	 esi
  0020b	5b		 pop	 ebx
  0020c	8b e5		 mov	 esp, ebp
  0020e	5d		 pop	 ebp
  0020f	c2 08 00	 ret	 8
?insert_1@?$vector@PAVtls_base@i3@@V?$heap_allocator@PAVtls_base@i3@@@2@@i3@@AAEXPBQAVtls_base@2@ABQAV32@@Z ENDP ; i3::vector<i3::tls_base *,i3::heap_allocator<i3::tls_base *> >::insert_1
_TEXT	ENDS
; Function compile flags: /Ogtp
; File E:\Proyectos\JuegosOnlineproyectos\PB\pbblow\Piercing Blow Remake\i3Server\src\i3Base\tls\detail\tls_mgr.cpp
; File E:\Proyectos\JuegosOnlineproyectos\PB\pbblow\Piercing Blow Remake\i3Server\include\i3Base\itl\detail\vector.h
; File E:\Proyectos\JuegosOnlineproyectos\PB\pbblow\Piercing Blow Remake\i3Server\src\i3Base\tls\detail\tls_mgr.cpp
; File E:\Proyectos\JuegosOnlineproyectos\PB\pbblow\Piercing Blow Remake\i3Server\include\i3Base\itl\detail\vector.h
; File E:\Proyectos\JuegosOnlineproyectos\PB\pbblow\Piercing Blow Remake\i3Server\src\i3Base\tls\detail\tls_mgr.cpp
;	COMDAT ?OnThreadDetach@tls_mgr@detail_tls@i3@@QAEXXZ
_TEXT	SEGMENT
_data$ = -4						; size = 4
?OnThreadDetach@tls_mgr@detail_tls@i3@@QAEXXZ PROC	; i3::detail_tls::tls_mgr::OnThreadDetach, COMDAT
; _this$ = ecx

; 103  : 	{

  00000	55		 push	 ebp
  00001	8b ec		 mov	 ebp, esp
  00003	51		 push	 ecx
  00004	56		 push	 esi
  00005	8b f1		 mov	 esi, ecx
  00007	57		 push	 edi

; 104  : 		thread_data* data = reinterpret_cast<thread_data*>(::TlsGetValue(m_dwTlsIdx));

  00008	ff 36		 push	 DWORD PTR [esi]
  0000a	ff 15 00 00 00
	00		 call	 DWORD PTR __imp__TlsGetValue@4
  00010	8b f8		 mov	 edi, eax
  00012	89 7d fc	 mov	 DWORD PTR _data$[ebp], edi
  00015	85 ff		 test	 edi, edi

; 105  : 		
; 106  : 		if (data)				// ľöÇŃ ľ˛·ąµĺ¶ó¸é ą«˝ĂÇĎ±â·Î Ăł¸®..

  00017	74 34		 je	 SHORT $LN6@OnThreadDe
; File E:\Proyectos\JuegosOnlineproyectos\PB\pbblow\Piercing Blow Remake\i3Server\include\i3Base\itl\detail\vector.h

; 132  : 		size_type		capacity() const { return m_end - m_first; }

  00019	8b 4e 30	 mov	 ecx, DWORD PTR [esi+48]
  0001c	2b 4e 28	 sub	 ecx, DWORD PTR [esi+40]
  0001f	53		 push	 ebx

; 153  : 		size_type		size() const	{ return m_last - m_first; }

  00020	8b 5e 2c	 mov	 ebx, DWORD PTR [esi+44]
  00023	8b c3		 mov	 eax, ebx
  00025	2b 46 28	 sub	 eax, DWORD PTR [esi+40]

; 132  : 		size_type		capacity() const { return m_end - m_first; }

  00028	c1 f9 02	 sar	 ecx, 2

; 153  : 		size_type		size() const	{ return m_last - m_first; }

  0002b	c1 f8 02	 sar	 eax, 2

; 170  : 			if ( size() < capacity() )

  0002e	3b c1		 cmp	 eax, ecx
  00030	73 0d		 jae	 SHORT $LN5@OnThreadDe

; 171  : 			{
; 172  : 				i3::uninitialized_fill_1(m_last, Val, allocator_base::get() );		//	i3::uninitialized_fill_1( m_last, Val, m_alloc);

  00032	89 3b		 mov	 DWORD PTR [ebx], edi

; 173  : 				++m_last;

  00034	83 46 2c 04	 add	 DWORD PTR [esi+44], 4
  00038	5b		 pop	 ebx
  00039	5f		 pop	 edi
; File E:\Proyectos\JuegosOnlineproyectos\PB\pbblow\Piercing Blow Remake\i3Server\src\i3Base\tls\detail\tls_mgr.cpp

; 108  : 	}	

  0003a	5e		 pop	 esi
  0003b	8b e5		 mov	 esp, ebp
  0003d	5d		 pop	 ebp
  0003e	c3		 ret	 0
$LN5@OnThreadDe:
; File E:\Proyectos\JuegosOnlineproyectos\PB\pbblow\Piercing Blow Remake\i3Server\include\i3Base\itl\detail\vector.h

; 176  : 				insert_1(end(), Val);

  0003f	8d 45 fc	 lea	 eax, DWORD PTR _data$[ebp]
  00042	50		 push	 eax
  00043	53		 push	 ebx
  00044	8d 4e 24	 lea	 ecx, DWORD PTR [esi+36]
  00047	e8 00 00 00 00	 call	 ?insert_1@?$vector@PAVthread_data@detail_tls@i3@@V?$heap_allocator@PAVthread_data@detail_tls@i3@@@3@@i3@@AAEXPBQAVthread_data@detail_tls@2@ABQAV342@@Z ; i3::vector<i3::detail_tls::thread_data *,i3::heap_allocator<i3::detail_tls::thread_data *> >::insert_1
  0004c	5b		 pop	 ebx
$LN6@OnThreadDe:
  0004d	5f		 pop	 edi
; File E:\Proyectos\JuegosOnlineproyectos\PB\pbblow\Piercing Blow Remake\i3Server\src\i3Base\tls\detail\tls_mgr.cpp

; 108  : 	}	

  0004e	5e		 pop	 esi
  0004f	8b e5		 mov	 esp, ebp
  00051	5d		 pop	 ebp
  00052	c3		 ret	 0
?OnThreadDetach@tls_mgr@detail_tls@i3@@QAEXXZ ENDP	; i3::detail_tls::tls_mgr::OnThreadDetach
_TEXT	ENDS
; Function compile flags: /Ogtp
; File E:\Proyectos\JuegosOnlineproyectos\PB\pbblow\Piercing Blow Remake\i3Server\src\i3Base\tls\detail\tls_mgr.cpp
; File E:\Proyectos\JuegosOnlineproyectos\PB\pbblow\Piercing Blow Remake\i3Server\include\i3Base\itl\detail\vector.h
; File E:\Proyectos\JuegosOnlineproyectos\PB\pbblow\Piercing Blow Remake\i3Server\src\i3Base\tls\detail\tls_mgr.cpp
; File E:\Proyectos\JuegosOnlineproyectos\PB\pbblow\Piercing Blow Remake\i3Server\include\i3Base\itl\detail\vector.h
; File E:\Proyectos\JuegosOnlineproyectos\PB\pbblow\Piercing Blow Remake\i3Server\src\i3Base\tls\detail\tls_mgr.cpp
; File E:\Proyectos\JuegosOnlineproyectos\PB\pbblow\Piercing Blow Remake\i3Server\include\i3Base\memory\memory_alloc.inl
; File E:\Proyectos\JuegosOnlineproyectos\PB\pbblow\Piercing Blow Remake\i3Server\src\i3Base\tls\detail\tls_mgr.cpp
; File E:\Proyectos\JuegosOnlineproyectos\PB\pbblow\Piercing Blow Remake\i3Server\include\i3Base\memory\memory_alloc.inl
; File E:\Proyectos\JuegosOnlineproyectos\PB\pbblow\Piercing Blow Remake\i3Server\include\i3Base\itl\detail\vector.h
; File E:\Proyectos\JuegosOnlineproyectos\PB\pbblow\Piercing Blow Remake\i3Server\include\i3Base\memory\memory_alloc.inl
; File E:\Proyectos\JuegosOnlineproyectos\PB\pbblow\Piercing Blow Remake\i3Server\include\i3Base\itl\detail\vector.h
; File E:\Proyectos\JuegosOnlineproyectos\PB\pbblow\Piercing Blow Remake\i3Server\src\i3Base\tls\detail\tls_mgr.cpp
; File E:\Proyectos\JuegosOnlineproyectos\PB\pbblow\Piercing Blow Remake\i3Server\include\i3Base\memory\memory_alloc.inl
; File E:\Proyectos\JuegosOnlineproyectos\PB\pbblow\Piercing Blow Remake\i3Server\src\i3Base\tls\detail\tls_mgr.cpp
; File E:\Proyectos\JuegosOnlineproyectos\PB\pbblow\Piercing Blow Remake\i3Server\include\i3Base\memory\heap_allocator.h
; File E:\Proyectos\JuegosOnlineproyectos\PB\pbblow\Piercing Blow Remake\i3Server\include\i3Base\tls\detail\tls_mgr.inl
; File E:\Proyectos\JuegosOnlineproyectos\PB\pbblow\Piercing Blow Remake\i3Server\src\i3Base\tls\detail\tls_mgr.cpp
; File E:\Proyectos\JuegosOnlineproyectos\PB\pbblow\Piercing Blow Remake\i3Server\include\i3Base\tls\detail\tls_mgr.inl
; File E:\Proyectos\JuegosOnlineproyectos\PB\pbblow\Piercing Blow Remake\i3Server\include\i3Base\itl\detail\vector.h
; File E:\Proyectos\JuegosOnlineproyectos\PB\pbblow\Piercing Blow Remake\i3Server\include\i3Base\tls\detail\tls_mgr.inl
; File E:\Proyectos\JuegosOnlineproyectos\PB\pbblow\Piercing Blow Remake\i3Server\include\i3Base\itl\detail\vector.h
; File E:\Proyectos\JuegosOnlineproyectos\PB\pbblow\Piercing Blow Remake\i3Server\src\i3Base\tls\detail\tls_mgr.cpp
; File E:\Proyectos\JuegosOnlineproyectos\PB\pbblow\Piercing Blow Remake\i3Server\include\i3Base\itl\detail\vector.h
; File E:\Proyectos\JuegosOnlineproyectos\PB\pbblow\Piercing Blow Remake\i3Server\src\i3Base\tls\detail\tls_mgr.cpp
;	COMDAT ?OnThreadAttach@tls_mgr@detail_tls@i3@@QAEXXZ
_TEXT	SEGMENT
_num_tls$1$ = -16					; size = 4
_result$1 = -12						; size = 4
_hthread$1$ = -12					; size = 4
_HeapType$2 = -8					; size = 4
$T3 = -8						; size = 4
_this$1$ = -4						; size = 4
tv614 = -4						; size = 4
?OnThreadAttach@tls_mgr@detail_tls@i3@@QAEXXZ PROC	; i3::detail_tls::tls_mgr::OnThreadAttach, COMDAT
; _this$ = ecx

; 65   : 	{

  00000	55		 push	 ebp
  00001	8b ec		 mov	 ebp, esp
  00003	83 ec 10	 sub	 esp, 16			; 00000010H
  00006	53		 push	 ebx
  00007	8b d9		 mov	 ebx, ecx
  00009	89 5d fc	 mov	 DWORD PTR _this$1$[ebp], ebx
; File E:\Proyectos\JuegosOnlineproyectos\PB\pbblow\Piercing Blow Remake\i3Server\include\i3Base\itl\detail\vector.h

; 153  : 		size_type		size() const	{ return m_last - m_first; }

  0000c	8b 43 0c	 mov	 eax, DWORD PTR [ebx+12]
  0000f	2b 43 08	 sub	 eax, DWORD PTR [ebx+8]
  00012	c1 f8 02	 sar	 eax, 2
  00015	89 45 f0	 mov	 DWORD PTR _num_tls$1$[ebp], eax
; File E:\Proyectos\JuegosOnlineproyectos\PB\pbblow\Piercing Blow Remake\i3Server\src\i3Base\tls\detail\tls_mgr.cpp

; 70   : 		if (!num_tls)			// tlsşŻĽö°ˇ ŔüżŞŔ¸·Î ·ÎµĺµÇÁö ľĘľŇŔ¸¸é ą«˝ĂÇŃ´Ů..

  00018	85 c0		 test	 eax, eax
  0001a	0f 84 08 01 00
	00		 je	 $LN62@OnThreadAt
; File E:\Proyectos\JuegosOnlineproyectos\PB\pbblow\Piercing Blow Remake\i3Server\include\i3Base\itl\detail\vector.h

; 153  : 		size_type		size() const	{ return m_last - m_first; }

  00020	8b 4b 2c	 mov	 ecx, DWORD PTR [ebx+44]
  00023	8b c1		 mov	 eax, ecx
  00025	2b 43 28	 sub	 eax, DWORD PTR [ebx+40]

; 154  : 		bool			empty() const	{ return size() == 0 ; }

  00028	a9 fc ff ff ff	 test	 eax, -4			; fffffffcH
; File E:\Proyectos\JuegosOnlineproyectos\PB\pbblow\Piercing Blow Remake\i3Server\src\i3Base\tls\detail\tls_mgr.cpp

; 73   : 		if ( m_reservedSlotList.empty() )		

  0002d	0f 85 fa 00 00
	00		 jne	 $LN6@OnThreadAt
  00033	56		 push	 esi
; File E:\Proyectos\JuegosOnlineproyectos\PB\pbblow\Piercing Blow Remake\i3Server\include\i3Base\memory\memory_alloc.inl

; 47   : 		return heap_handle(::HeapCreate(HEAP_NO_SERIALIZE, 0, 0) );

  00034	8b 35 00 00 00
	00		 mov	 esi, DWORD PTR __imp__HeapCreate@12
  0003a	57		 push	 edi
  0003b	6a 00		 push	 0
  0003d	6a 00		 push	 0
  0003f	6a 01		 push	 1
  00041	ff d6		 call	 esi

; 38   : 		HANDLE h = ::HeapCreate(0,0,0);

  00043	6a 00		 push	 0
  00045	6a 00		 push	 0
  00047	6a 00		 push	 0
; File E:\Proyectos\JuegosOnlineproyectos\PB\pbblow\Piercing Blow Remake\i3Server\src\i3Base\tls\detail\tls_mgr.cpp

; 75   : 			heap_handle heapTLS = heap_create_nolock();	

  00049	8b d8		 mov	 ebx, eax
; File E:\Proyectos\JuegosOnlineproyectos\PB\pbblow\Piercing Blow Remake\i3Server\include\i3Base\memory\memory_alloc.inl

; 38   : 		HANDLE h = ::HeapCreate(0,0,0);

  0004b	ff d6		 call	 esi
  0004d	8b f8		 mov	 edi, eax

; 39   : 		ULONG HeapType = 2;

  0004f	c7 45 f8 02 00
	00 00		 mov	 DWORD PTR _HeapType$2[ebp], 2

; 40   : 		::HeapSetInformation(h, HeapCompatibilityInformation, &HeapType, sizeof(HeapType));

  00056	6a 04		 push	 4
  00058	8d 45 f8	 lea	 eax, DWORD PTR _HeapType$2[ebp]
  0005b	50		 push	 eax
  0005c	6a 00		 push	 0
  0005e	57		 push	 edi
  0005f	ff 15 00 00 00
	00		 call	 DWORD PTR __imp__HeapSetInformation@16
; File E:\Proyectos\JuegosOnlineproyectos\PB\pbblow\Piercing Blow Remake\i3Server\include\i3Base\itl\detail\vector.h

; 153  : 		size_type		size() const	{ return m_last - m_first; }

  00065	8b 45 fc	 mov	 eax, DWORD PTR _this$1$[ebp]
; File E:\Proyectos\JuegosOnlineproyectos\PB\pbblow\Piercing Blow Remake\i3Server\include\i3Base\memory\memory_alloc.inl

; 87   : 		return ::HeapAlloc(HANDLE(h), 0, size);

  00068	6a 2c		 push	 44			; 0000002cH
  0006a	6a 00		 push	 0
  0006c	53		 push	 ebx
; File E:\Proyectos\JuegosOnlineproyectos\PB\pbblow\Piercing Blow Remake\i3Server\include\i3Base\itl\detail\vector.h

; 153  : 		size_type		size() const	{ return m_last - m_first; }

  0006d	8b 48 1c	 mov	 ecx, DWORD PTR [eax+28]
  00070	2b 48 18	 sub	 ecx, DWORD PTR [eax+24]
  00073	c1 f9 02	 sar	 ecx, 2
; File E:\Proyectos\JuegosOnlineproyectos\PB\pbblow\Piercing Blow Remake\i3Server\src\i3Base\tls\detail\tls_mgr.cpp

; 78   : 			WORD newIndex = (WORD)m_usingSlotList.size();

  00076	0f b7 f1	 movzx	 esi, cx
; File E:\Proyectos\JuegosOnlineproyectos\PB\pbblow\Piercing Blow Remake\i3Server\include\i3Base\memory\memory_alloc.inl

; 87   : 		return ::HeapAlloc(HANDLE(h), 0, size);

  00079	ff 15 00 00 00
	00		 call	 DWORD PTR __imp__HeapAlloc@12
; File E:\Proyectos\JuegosOnlineproyectos\PB\pbblow\Piercing Blow Remake\i3Server\src\i3Base\tls\detail\tls_mgr.cpp

; 82   : 			thread_data* result =	new (voiddata) thread_data(heapTLS, safe_heap, newIndex);		// »ő·Îżî ľ˛·ąµĺÇÚµéŔ» Č®ş¸..

  0007f	8b c8		 mov	 ecx, eax
  00081	8b c6		 mov	 eax, esi
  00083	89 4d f8	 mov	 DWORD PTR $T3[ebp], ecx
  00086	89 4d f4	 mov	 DWORD PTR _result$1[ebp], ecx
; File E:\Proyectos\JuegosOnlineproyectos\PB\pbblow\Piercing Blow Remake\i3Server\include\i3Base\memory\heap_allocator.h

; 22   : 		heap_allocator(const heap_allocator<T>& rhs) : m_heap(rhs.m_heap) {}

  00089	89 19		 mov	 DWORD PTR [ecx], ebx
  0008b	89 59 10	 mov	 DWORD PTR [ecx+16], ebx
; File E:\Proyectos\JuegosOnlineproyectos\PB\pbblow\Piercing Blow Remake\i3Server\include\i3Base\tls\detail\tls_mgr.inl

; 129  : 		heapTls(heapTls), safe_heap(safe_heap), hthread(threadID) {}

  0008e	89 59 20	 mov	 DWORD PTR [ecx+32], ebx
; File E:\Proyectos\JuegosOnlineproyectos\PB\pbblow\Piercing Blow Remake\i3Server\src\i3Base\tls\detail\tls_mgr.cpp

; 83   : 			m_usingSlotList.push_back( result );

  00091	8b 5d fc	 mov	 ebx, DWORD PTR _this$1$[ebp]
; File E:\Proyectos\JuegosOnlineproyectos\PB\pbblow\Piercing Blow Remake\i3Server\include\i3Base\tls\detail\tls_mgr.inl

; 129  : 		heapTls(heapTls), safe_heap(safe_heap), hthread(threadID) {}

  00094	89 41 28	 mov	 DWORD PTR [ecx+40], eax
; File E:\Proyectos\JuegosOnlineproyectos\PB\pbblow\Piercing Blow Remake\i3Server\include\i3Base\itl\detail\vector.h

; 43   : 		explicit vector(const allocator_type& al) : allocator_base(al), m_first(NULL), m_last(NULL), m_end(NULL) {} 

  00097	c7 41 04 00 00
	00 00		 mov	 DWORD PTR [ecx+4], 0
  0009e	c7 41 08 00 00
	00 00		 mov	 DWORD PTR [ecx+8], 0
  000a5	c7 41 0c 00 00
	00 00		 mov	 DWORD PTR [ecx+12], 0
  000ac	c7 41 14 00 00
	00 00		 mov	 DWORD PTR [ecx+20], 0
  000b3	c7 41 18 00 00
	00 00		 mov	 DWORD PTR [ecx+24], 0
  000ba	c7 41 1c 00 00
	00 00		 mov	 DWORD PTR [ecx+28], 0
; File E:\Proyectos\JuegosOnlineproyectos\PB\pbblow\Piercing Blow Remake\i3Server\include\i3Base\tls\detail\tls_mgr.inl

; 129  : 		heapTls(heapTls), safe_heap(safe_heap), hthread(threadID) {}

  000c1	89 79 24	 mov	 DWORD PTR [ecx+36], edi
; File E:\Proyectos\JuegosOnlineproyectos\PB\pbblow\Piercing Blow Remake\i3Server\include\i3Base\itl\detail\vector.h

; 153  : 		size_type		size() const	{ return m_last - m_first; }

  000c4	8b 73 1c	 mov	 esi, DWORD PTR [ebx+28]
  000c7	8b c6		 mov	 eax, esi

; 132  : 		size_type		capacity() const { return m_end - m_first; }

  000c9	8b 4b 20	 mov	 ecx, DWORD PTR [ebx+32]
  000cc	2b 4b 18	 sub	 ecx, DWORD PTR [ebx+24]

; 153  : 		size_type		size() const	{ return m_last - m_first; }

  000cf	2b 43 18	 sub	 eax, DWORD PTR [ebx+24]

; 132  : 		size_type		capacity() const { return m_end - m_first; }

  000d2	c1 f9 02	 sar	 ecx, 2

; 153  : 		size_type		size() const	{ return m_last - m_first; }

  000d5	c1 f8 02	 sar	 eax, 2

; 170  : 			if ( size() < capacity() )

  000d8	3b c1		 cmp	 eax, ecx
  000da	73 0e		 jae	 SHORT $LN50@OnThreadAt

; 171  : 			{
; 172  : 				i3::uninitialized_fill_1(m_last, Val, allocator_base::get() );		//	i3::uninitialized_fill_1( m_last, Val, m_alloc);

  000dc	8b 43 1c	 mov	 eax, DWORD PTR [ebx+28]
  000df	8b 75 f8	 mov	 esi, DWORD PTR $T3[ebp]
  000e2	89 30		 mov	 DWORD PTR [eax], esi

; 173  : 				++m_last;

  000e4	83 43 1c 04	 add	 DWORD PTR [ebx+28], 4

; 174  : 			}

  000e8	eb 10		 jmp	 SHORT $LN51@OnThreadAt
$LN50@OnThreadAt:

; 175  : 			else
; 176  : 				insert_1(end(), Val);

  000ea	8d 45 f4	 lea	 eax, DWORD PTR _result$1[ebp]
  000ed	50		 push	 eax
  000ee	56		 push	 esi
  000ef	8d 4b 14	 lea	 ecx, DWORD PTR [ebx+20]
  000f2	e8 00 00 00 00	 call	 ?insert_1@?$vector@PAVthread_data@detail_tls@i3@@V?$heap_allocator@PAVthread_data@detail_tls@i3@@@3@@i3@@AAEXPBQAVthread_data@detail_tls@2@ABQAV342@@Z ; i3::vector<i3::detail_tls::thread_data *,i3::heap_allocator<i3::detail_tls::thread_data *> >::insert_1
  000f7	8b 75 f8	 mov	 esi, DWORD PTR $T3[ebp]
$LN51@OnThreadAt:
; File E:\Proyectos\JuegosOnlineproyectos\PB\pbblow\Piercing Blow Remake\i3Server\src\i3Base\tls\detail\tls_mgr.cpp

; 85   : 			::TlsSetValue(m_dwTlsIdx, result );	

  000fa	56		 push	 esi
  000fb	ff 33		 push	 DWORD PTR [ebx]
  000fd	ff 15 00 00 00
	00		 call	 DWORD PTR __imp__TlsSetValue@8

; 86   : 
; 87   : 			DWORD hthread = result->get_thread_id();

  00103	8b 56 28	 mov	 edx, DWORD PTR [esi+40]
  00106	33 f6		 xor	 esi, esi

; 88   : 		
; 89   : 			for ( size_t i = 0 ; i < num_tls ; ++i )

  00108	8b 7d f0	 mov	 edi, DWORD PTR _num_tls$1$[ebp]
  0010b	89 55 f4	 mov	 DWORD PTR _hthread$1$[ebp], edx
  0010e	85 ff		 test	 edi, edi
  00110	74 14		 je	 SHORT $LN77@OnThreadAt
$LL4@OnThreadAt:

; 90   : 				m_TlsBaseList[i]->reserve_value(hthread);

  00112	8b 43 08	 mov	 eax, DWORD PTR [ebx+8]
  00115	52		 push	 edx
  00116	8b 0c b0	 mov	 ecx, DWORD PTR [eax+esi*4]
  00119	8b 01		 mov	 eax, DWORD PTR [ecx]
  0011b	ff 50 04	 call	 DWORD PTR [eax+4]
  0011e	8b 55 f4	 mov	 edx, DWORD PTR _hthread$1$[ebp]
  00121	46		 inc	 esi
  00122	3b f7		 cmp	 esi, edi
  00124	72 ec		 jb	 SHORT $LL4@OnThreadAt
$LN77@OnThreadAt:
  00126	5f		 pop	 edi
  00127	5e		 pop	 esi
$LN62@OnThreadAt:
  00128	5b		 pop	 ebx

; 98   : 	}

  00129	8b e5		 mov	 esp, ebp
  0012b	5d		 pop	 ebp
  0012c	c3		 ret	 0
$LN6@OnThreadAt:

; 91   : 		}
; 92   : 		else
; 93   : 		{
; 94   : 			thread_data* result = m_reservedSlotList.back();
; 95   : 			::TlsSetValue(m_dwTlsIdx, result );	

  0012d	ff 71 fc	 push	 DWORD PTR [ecx-4]
  00130	ff 33		 push	 DWORD PTR [ebx]
  00132	ff 15 00 00 00
	00		 call	 DWORD PTR __imp__TlsSetValue@8
; File E:\Proyectos\JuegosOnlineproyectos\PB\pbblow\Piercing Blow Remake\i3Server\include\i3Base\itl\detail\vector.h

; 153  : 		size_type		size() const	{ return m_last - m_first; }

  00138	8b 4b 2c	 mov	 ecx, DWORD PTR [ebx+44]
  0013b	8b c1		 mov	 eax, ecx
  0013d	2b 43 28	 sub	 eax, DWORD PTR [ebx+40]

; 154  : 		bool			empty() const	{ return size() == 0 ; }

  00140	a9 fc ff ff ff	 test	 eax, -4			; fffffffcH

; 180  : 			if (!empty())

  00145	74 e1		 je	 SHORT $LN62@OnThreadAt

; 181  : 			{	
; 182  : 				destroy_range_1(m_last - 1, allocator_base::get() );		//	destroy_range_1( m_last - 1, m_alloc);
; 183  : 				--m_last;

  00147	8d 41 fc	 lea	 eax, DWORD PTR [ecx-4]
  0014a	89 43 2c	 mov	 DWORD PTR [ebx+44], eax
  0014d	5b		 pop	 ebx
; File E:\Proyectos\JuegosOnlineproyectos\PB\pbblow\Piercing Blow Remake\i3Server\src\i3Base\tls\detail\tls_mgr.cpp

; 98   : 	}

  0014e	8b e5		 mov	 esp, ebp
  00150	5d		 pop	 ebp
  00151	c3		 ret	 0
?OnThreadAttach@tls_mgr@detail_tls@i3@@QAEXXZ ENDP	; i3::detail_tls::tls_mgr::OnThreadAttach
_TEXT	ENDS
; Function compile flags: /Ogtp
; File E:\Proyectos\JuegosOnlineproyectos\PB\pbblow\Piercing Blow Remake\i3Server\src\i3Base\tls\detail\tls_mgr.cpp
;	COMDAT ?OnProcessDetach@tls_mgr@detail_tls@i3@@QAEXXZ
_TEXT	SEGMENT
?OnProcessDetach@tls_mgr@detail_tls@i3@@QAEXXZ PROC	; i3::detail_tls::tls_mgr::OnProcessDetach, COMDAT
; _this$ = ecx

; 112  : 
; 113  : 	}

  00000	c2 00 00	 ret	 0
?OnProcessDetach@tls_mgr@detail_tls@i3@@QAEXXZ ENDP	; i3::detail_tls::tls_mgr::OnProcessDetach
_TEXT	ENDS
; Function compile flags: /Ogtp
; File E:\Proyectos\JuegosOnlineproyectos\PB\pbblow\Piercing Blow Remake\i3Server\src\i3Base\tls\detail\tls_mgr.cpp
; File E:\Proyectos\JuegosOnlineproyectos\PB\pbblow\Piercing Blow Remake\i3Server\include\i3Base\memory\memory_alloc.inl
; File E:\Proyectos\JuegosOnlineproyectos\PB\pbblow\Piercing Blow Remake\i3Server\src\i3Base\tls\detail\tls_mgr.cpp
; File E:\Proyectos\JuegosOnlineproyectos\PB\pbblow\Piercing Blow Remake\i3Server\include\i3Base\memory\memory_alloc.inl
; File E:\Proyectos\JuegosOnlineproyectos\PB\pbblow\Piercing Blow Remake\i3Server\src\i3Base\tls\detail\tls_mgr.cpp
; File E:\Proyectos\JuegosOnlineproyectos\PB\pbblow\Piercing Blow Remake\i3Server\include\i3Base\memory\memory_alloc.inl
; File E:\Proyectos\JuegosOnlineproyectos\PB\pbblow\Piercing Blow Remake\i3Server\src\i3Base\tls\detail\tls_mgr.cpp
; File E:\Proyectos\JuegosOnlineproyectos\PB\pbblow\Piercing Blow Remake\i3Server\include\i3Base\memory\heap_allocator.h
; File E:\Proyectos\JuegosOnlineproyectos\PB\pbblow\Piercing Blow Remake\i3Server\include\i3Base\itl\detail\vector.h
; File E:\Proyectos\JuegosOnlineproyectos\PB\pbblow\Piercing Blow Remake\i3Server\include\i3Base\memory\heap_allocator.h
; File E:\Proyectos\JuegosOnlineproyectos\PB\pbblow\Piercing Blow Remake\i3Server\include\i3Base\itl\detail\vector.h
; File E:\Proyectos\JuegosOnlineproyectos\PB\pbblow\Piercing Blow Remake\i3Server\include\i3Base\tls\detail\tls_mgr.inl
; File E:\Proyectos\JuegosOnlineproyectos\PB\pbblow\Piercing Blow Remake\i3Server\include\i3Base\itl\detail\vector.h
; File E:\Proyectos\JuegosOnlineproyectos\PB\pbblow\Piercing Blow Remake\i3Server\src\i3Base\tls\detail\tls_mgr.cpp
; File E:\Proyectos\JuegosOnlineproyectos\PB\pbblow\Piercing Blow Remake\i3Server\include\i3Base\itl\detail\vector.h
; File E:\Proyectos\JuegosOnlineproyectos\PB\pbblow\Piercing Blow Remake\i3Server\src\i3Base\tls\detail\tls_mgr.cpp
; File E:\Proyectos\JuegosOnlineproyectos\PB\pbblow\Piercing Blow Remake\i3Server\include\i3Base\itl\detail\vector.h
; File E:\Proyectos\JuegosOnlineproyectos\PB\pbblow\Piercing Blow Remake\i3Server\src\i3Base\tls\detail\tls_mgr.cpp
;	COMDAT ?OnProcessAttach@tls_mgr@detail_tls@i3@@QAEXXZ
_TEXT	SEGMENT
_main_thread_slotlist$ = -8				; size = 4
_HeapType$1 = -4					; size = 4
$T2 = -4						; size = 4
?OnProcessAttach@tls_mgr@detail_tls@i3@@QAEXXZ PROC	; i3::detail_tls::tls_mgr::OnProcessAttach, COMDAT
; _this$ = ecx

; 43   : 	{ 

  00000	55		 push	 ebp
  00001	8b ec		 mov	 ebp, esp
  00003	83 ec 08	 sub	 esp, 8
  00006	53		 push	 ebx
  00007	56		 push	 esi
  00008	57		 push	 edi
  00009	8b d9		 mov	 ebx, ecx

; 44   : 		m_dwTlsIdx = ::TlsAlloc(); 

  0000b	ff 15 00 00 00
	00		 call	 DWORD PTR __imp__TlsAlloc@0
; File E:\Proyectos\JuegosOnlineproyectos\PB\pbblow\Piercing Blow Remake\i3Server\include\i3Base\memory\memory_alloc.inl

; 47   : 		return heap_handle(::HeapCreate(HEAP_NO_SERIALIZE, 0, 0) );

  00011	8b 35 00 00 00
	00		 mov	 esi, DWORD PTR __imp__HeapCreate@12
  00017	6a 00		 push	 0
  00019	6a 00		 push	 0
  0001b	6a 01		 push	 1
; File E:\Proyectos\JuegosOnlineproyectos\PB\pbblow\Piercing Blow Remake\i3Server\src\i3Base\tls\detail\tls_mgr.cpp

; 44   : 		m_dwTlsIdx = ::TlsAlloc(); 

  0001d	89 03		 mov	 DWORD PTR [ebx], eax
; File E:\Proyectos\JuegosOnlineproyectos\PB\pbblow\Piercing Blow Remake\i3Server\include\i3Base\memory\memory_alloc.inl

; 47   : 		return heap_handle(::HeapCreate(HEAP_NO_SERIALIZE, 0, 0) );

  0001f	ff d6		 call	 esi

; 38   : 		HANDLE h = ::HeapCreate(0,0,0);

  00021	6a 00		 push	 0
  00023	6a 00		 push	 0
  00025	6a 00		 push	 0
; File E:\Proyectos\JuegosOnlineproyectos\PB\pbblow\Piercing Blow Remake\i3Server\src\i3Base\tls\detail\tls_mgr.cpp

; 48   : 		heap_handle heapTLS = heap_create_nolock();

  00027	8b f8		 mov	 edi, eax
; File E:\Proyectos\JuegosOnlineproyectos\PB\pbblow\Piercing Blow Remake\i3Server\include\i3Base\memory\memory_alloc.inl

; 38   : 		HANDLE h = ::HeapCreate(0,0,0);

  00029	ff d6		 call	 esi
  0002b	8b f0		 mov	 esi, eax

; 39   : 		ULONG HeapType = 2;

  0002d	c7 45 fc 02 00
	00 00		 mov	 DWORD PTR _HeapType$1[ebp], 2

; 40   : 		::HeapSetInformation(h, HeapCompatibilityInformation, &HeapType, sizeof(HeapType));

  00034	6a 04		 push	 4
  00036	8d 45 fc	 lea	 eax, DWORD PTR _HeapType$1[ebp]
  00039	50		 push	 eax
  0003a	6a 00		 push	 0
  0003c	56		 push	 esi
  0003d	ff 15 00 00 00
	00		 call	 DWORD PTR __imp__HeapSetInformation@16

; 87   : 		return ::HeapAlloc(HANDLE(h), 0, size);

  00043	6a 2c		 push	 44			; 0000002cH
  00045	6a 00		 push	 0
  00047	57		 push	 edi
  00048	ff 15 00 00 00
	00		 call	 DWORD PTR __imp__HeapAlloc@12
; File E:\Proyectos\JuegosOnlineproyectos\PB\pbblow\Piercing Blow Remake\i3Server\src\i3Base\tls\detail\tls_mgr.cpp

; 52   : 		thread_data* main_thread_slotlist = new (voiddata) thread_data(heapTLS, safe_heap, 0);

  0004e	89 45 fc	 mov	 DWORD PTR $T2[ebp], eax
  00051	89 45 f8	 mov	 DWORD PTR _main_thread_slotlist$[ebp], eax
; File E:\Proyectos\JuegosOnlineproyectos\PB\pbblow\Piercing Blow Remake\i3Server\include\i3Base\memory\heap_allocator.h

; 22   : 		heap_allocator(const heap_allocator<T>& rhs) : m_heap(rhs.m_heap) {}

  00054	89 38		 mov	 DWORD PTR [eax], edi
; File E:\Proyectos\JuegosOnlineproyectos\PB\pbblow\Piercing Blow Remake\i3Server\include\i3Base\itl\detail\vector.h

; 43   : 		explicit vector(const allocator_type& al) : allocator_base(al), m_first(NULL), m_last(NULL), m_end(NULL) {} 

  00056	c7 40 04 00 00
	00 00		 mov	 DWORD PTR [eax+4], 0
  0005d	c7 40 08 00 00
	00 00		 mov	 DWORD PTR [eax+8], 0
  00064	c7 40 0c 00 00
	00 00		 mov	 DWORD PTR [eax+12], 0
; File E:\Proyectos\JuegosOnlineproyectos\PB\pbblow\Piercing Blow Remake\i3Server\include\i3Base\memory\heap_allocator.h

; 22   : 		heap_allocator(const heap_allocator<T>& rhs) : m_heap(rhs.m_heap) {}

  0006b	89 78 10	 mov	 DWORD PTR [eax+16], edi
; File E:\Proyectos\JuegosOnlineproyectos\PB\pbblow\Piercing Blow Remake\i3Server\include\i3Base\itl\detail\vector.h

; 43   : 		explicit vector(const allocator_type& al) : allocator_base(al), m_first(NULL), m_last(NULL), m_end(NULL) {} 

  0006e	c7 40 14 00 00
	00 00		 mov	 DWORD PTR [eax+20], 0
  00075	c7 40 18 00 00
	00 00		 mov	 DWORD PTR [eax+24], 0
  0007c	c7 40 1c 00 00
	00 00		 mov	 DWORD PTR [eax+28], 0
; File E:\Proyectos\JuegosOnlineproyectos\PB\pbblow\Piercing Blow Remake\i3Server\include\i3Base\tls\detail\tls_mgr.inl

; 129  : 		heapTls(heapTls), safe_heap(safe_heap), hthread(threadID) {}

  00083	89 78 20	 mov	 DWORD PTR [eax+32], edi
  00086	89 70 24	 mov	 DWORD PTR [eax+36], esi
  00089	c7 40 28 00 00
	00 00		 mov	 DWORD PTR [eax+40], 0
; File E:\Proyectos\JuegosOnlineproyectos\PB\pbblow\Piercing Blow Remake\i3Server\include\i3Base\itl\detail\vector.h

; 153  : 		size_type		size() const	{ return m_last - m_first; }

  00090	8b 7b 1c	 mov	 edi, DWORD PTR [ebx+28]
  00093	8b c7		 mov	 eax, edi

; 132  : 		size_type		capacity() const { return m_end - m_first; }

  00095	8b 4b 20	 mov	 ecx, DWORD PTR [ebx+32]
  00098	2b 4b 18	 sub	 ecx, DWORD PTR [ebx+24]

; 153  : 		size_type		size() const	{ return m_last - m_first; }

  0009b	2b 43 18	 sub	 eax, DWORD PTR [ebx+24]

; 132  : 		size_type		capacity() const { return m_end - m_first; }

  0009e	c1 f9 02	 sar	 ecx, 2

; 153  : 		size_type		size() const	{ return m_last - m_first; }

  000a1	c1 f8 02	 sar	 eax, 2

; 170  : 			if ( size() < capacity() )

  000a4	3b c1		 cmp	 eax, ecx
  000a6	73 0b		 jae	 SHORT $LN37@OnProcessA

; 171  : 			{
; 172  : 				i3::uninitialized_fill_1(m_last, Val, allocator_base::get() );		//	i3::uninitialized_fill_1( m_last, Val, m_alloc);

  000a8	8b 45 fc	 mov	 eax, DWORD PTR $T2[ebp]
  000ab	89 07		 mov	 DWORD PTR [edi], eax

; 173  : 				++m_last;

  000ad	83 43 1c 04	 add	 DWORD PTR [ebx+28], 4

; 174  : 			}

  000b1	eb 10		 jmp	 SHORT $LN38@OnProcessA
$LN37@OnProcessA:

; 175  : 			else
; 176  : 				insert_1(end(), Val);

  000b3	8d 45 f8	 lea	 eax, DWORD PTR _main_thread_slotlist$[ebp]
  000b6	50		 push	 eax
  000b7	57		 push	 edi
  000b8	8d 4b 14	 lea	 ecx, DWORD PTR [ebx+20]
  000bb	e8 00 00 00 00	 call	 ?insert_1@?$vector@PAVthread_data@detail_tls@i3@@V?$heap_allocator@PAVthread_data@detail_tls@i3@@@3@@i3@@AAEXPBQAVthread_data@detail_tls@2@ABQAV342@@Z ; i3::vector<i3::detail_tls::thread_data *,i3::heap_allocator<i3::detail_tls::thread_data *> >::insert_1
  000c0	8b 45 fc	 mov	 eax, DWORD PTR $T2[ebp]
$LN38@OnProcessA:
; File E:\Proyectos\JuegosOnlineproyectos\PB\pbblow\Piercing Blow Remake\i3Server\src\i3Base\tls\detail\tls_mgr.cpp

; 55   : 		::TlsSetValue(m_dwTlsIdx, main_thread_slotlist );

  000c3	50		 push	 eax
  000c4	ff 33		 push	 DWORD PTR [ebx]
  000c6	ff 15 00 00 00
	00		 call	 DWORD PTR __imp__TlsSetValue@8
; File E:\Proyectos\JuegosOnlineproyectos\PB\pbblow\Piercing Blow Remake\i3Server\include\i3Base\itl\detail\vector.h

; 153  : 		size_type		size() const	{ return m_last - m_first; }

  000cc	8b 7b 0c	 mov	 edi, DWORD PTR [ebx+12]
; File E:\Proyectos\JuegosOnlineproyectos\PB\pbblow\Piercing Blow Remake\i3Server\src\i3Base\tls\detail\tls_mgr.cpp

; 55   : 		::TlsSetValue(m_dwTlsIdx, main_thread_slotlist );

  000cf	33 f6		 xor	 esi, esi
; File E:\Proyectos\JuegosOnlineproyectos\PB\pbblow\Piercing Blow Remake\i3Server\include\i3Base\itl\detail\vector.h

; 153  : 		size_type		size() const	{ return m_last - m_first; }

  000d1	2b 7b 08	 sub	 edi, DWORD PTR [ebx+8]
  000d4	c1 ff 02	 sar	 edi, 2
; File E:\Proyectos\JuegosOnlineproyectos\PB\pbblow\Piercing Blow Remake\i3Server\src\i3Base\tls\detail\tls_mgr.cpp

; 59   : 		for ( size_t i = 0 ; i < num_tls ; ++i )

  000d7	85 ff		 test	 edi, edi
  000d9	74 17		 je	 SHORT $LN3@OnProcessA
  000db	eb 03 8d 49 00	 npad	 5
$LL4@OnProcessA:

; 60   : 			m_TlsBaseList[i]->reserve_value(0);

  000e0	8b 43 08	 mov	 eax, DWORD PTR [ebx+8]
  000e3	6a 00		 push	 0
  000e5	8b 0c b0	 mov	 ecx, DWORD PTR [eax+esi*4]
  000e8	8b 01		 mov	 eax, DWORD PTR [ecx]
  000ea	ff 50 04	 call	 DWORD PTR [eax+4]
  000ed	46		 inc	 esi
  000ee	3b f7		 cmp	 esi, edi
  000f0	72 ee		 jb	 SHORT $LL4@OnProcessA
$LN3@OnProcessA:
  000f2	5f		 pop	 edi

; 61   : 
; 62   : 	}

  000f3	5e		 pop	 esi
  000f4	5b		 pop	 ebx
  000f5	8b e5		 mov	 esp, ebp
  000f7	5d		 pop	 ebp
  000f8	c3		 ret	 0
?OnProcessAttach@tls_mgr@detail_tls@i3@@QAEXXZ ENDP	; i3::detail_tls::tls_mgr::OnProcessAttach
_TEXT	ENDS
; Function compile flags: /Ogtp
; File E:\Proyectos\JuegosOnlineproyectos\PB\pbblow\Piercing Blow Remake\i3Server\src\i3Base\tls\detail\tls_mgr.cpp
; File E:\Proyectos\JuegosOnlineproyectos\PB\pbblow\Piercing Blow Remake\i3Server\include\i3Base\itl\detail\vector.h
; File E:\Proyectos\JuegosOnlineproyectos\PB\pbblow\Piercing Blow Remake\i3Server\src\i3Base\tls\detail\tls_mgr.cpp
; File E:\Proyectos\JuegosOnlineproyectos\PB\pbblow\Piercing Blow Remake\i3Server\include\i3Base\itl\detail\vector.h
; File E:\Proyectos\JuegosOnlineproyectos\PB\pbblow\Piercing Blow Remake\i3Server\include\i3Base\memory\memory_aligned_apply.h
; File E:\Proyectos\JuegosOnlineproyectos\PB\pbblow\Piercing Blow Remake\i3Server\include\i3Base\memory\memory_alloc.inl
; File E:\Proyectos\JuegosOnlineproyectos\PB\pbblow\Piercing Blow Remake\i3Server\include\i3Base\itl\detail\vector.h
; File E:\Proyectos\JuegosOnlineproyectos\PB\pbblow\Piercing Blow Remake\i3Server\include\i3Base\memory\memory_aligned_apply.h
; File E:\Proyectos\JuegosOnlineproyectos\PB\pbblow\Piercing Blow Remake\i3Server\include\i3Base\memory\memory_alloc.inl
; File E:\Proyectos\JuegosOnlineproyectos\PB\pbblow\Piercing Blow Remake\i3Server\include\i3Base\itl\detail\vector.h
; File E:\Proyectos\JuegosOnlineproyectos\PB\pbblow\Piercing Blow Remake\i3Server\include\i3Base\memory\memory_aligned_apply.h
; File E:\Proyectos\JuegosOnlineproyectos\PB\pbblow\Piercing Blow Remake\i3Server\include\i3Base\memory\memory_alloc.inl
; File E:\Proyectos\JuegosOnlineproyectos\PB\pbblow\Piercing Blow Remake\i3Server\src\i3Base\tls\detail\tls_mgr.cpp
; File E:\Proyectos\JuegosOnlineproyectos\PB\pbblow\Piercing Blow Remake\i3Server\include\i3Base\itl\detail\vector.h
; File E:\Proyectos\JuegosOnlineproyectos\PB\pbblow\Piercing Blow Remake\i3Server\include\i3Base\memory\memory_aligned_apply.h
; File E:\Proyectos\JuegosOnlineproyectos\PB\pbblow\Piercing Blow Remake\i3Server\include\i3Base\memory\memory_alloc.inl
; File E:\Proyectos\JuegosOnlineproyectos\PB\pbblow\Piercing Blow Remake\i3Server\include\i3Base\itl\detail\vector.h
; File E:\Proyectos\JuegosOnlineproyectos\PB\pbblow\Piercing Blow Remake\i3Server\include\i3Base\memory\memory_aligned_apply.h
; File E:\Proyectos\JuegosOnlineproyectos\PB\pbblow\Piercing Blow Remake\i3Server\include\i3Base\memory\memory_alloc.inl
; File E:\Proyectos\JuegosOnlineproyectos\PB\pbblow\Piercing Blow Remake\i3Server\src\i3Base\tls\detail\tls_mgr.cpp
;	COMDAT ??1tls_mgr@detail_tls@i3@@QAE@XZ
_TEXT	SEGMENT
_num_slotlist$1$ = -12					; size = 4
_sh$1$ = -8						; size = 4
_h$1$ = -4						; size = 4
??1tls_mgr@detail_tls@i3@@QAE@XZ PROC			; i3::detail_tls::tls_mgr::~tls_mgr, COMDAT
; _this$ = ecx

; 24   : 	{

  00000	55		 push	 ebp
  00001	8b ec		 mov	 ebp, esp
  00003	83 ec 0c	 sub	 esp, 12			; 0000000cH
  00006	53		 push	 ebx
  00007	8b d9		 mov	 ebx, ecx

; 29   : 		for ( size_t i = 0 ; i < num_slotlist ; ++i )

  00009	8b 0d 00 00 00
	00		 mov	 ecx, DWORD PTR __imp__HeapFree@12
  0000f	56		 push	 esi
  00010	57		 push	 edi
  00011	33 ff		 xor	 edi, edi
; File E:\Proyectos\JuegosOnlineproyectos\PB\pbblow\Piercing Blow Remake\i3Server\include\i3Base\itl\detail\vector.h

; 153  : 		size_type		size() const	{ return m_last - m_first; }

  00013	8b 43 1c	 mov	 eax, DWORD PTR [ebx+28]
  00016	2b 43 18	 sub	 eax, DWORD PTR [ebx+24]
  00019	c1 f8 02	 sar	 eax, 2
  0001c	89 45 f4	 mov	 DWORD PTR _num_slotlist$1$[ebp], eax
; File E:\Proyectos\JuegosOnlineproyectos\PB\pbblow\Piercing Blow Remake\i3Server\src\i3Base\tls\detail\tls_mgr.cpp

; 29   : 		for ( size_t i = 0 ; i < num_slotlist ; ++i )

  0001f	85 c0		 test	 eax, eax
  00021	75 53		 jne	 SHORT $LN4@tls_mgr
  00023	8b f1		 mov	 esi, ecx
$LN3@tls_mgr:

; 34   : 			data->~thread_data();
; 35   : 			i3::heap_free(h, data);
; 36   : 			i3::heap_destroy(sh);
; 37   : 			i3::heap_destroy(h);
; 38   : 		}
; 39   : 		::TlsFree(m_dwTlsIdx); 

  00025	ff 33		 push	 DWORD PTR [ebx]
  00027	ff 15 00 00 00
	00		 call	 DWORD PTR __imp__TlsFree@4
; File E:\Proyectos\JuegosOnlineproyectos\PB\pbblow\Piercing Blow Remake\i3Server\include\i3Base\itl\detail\vector.h

; 68   : 			if (m_first != 0)

  0002d	8b 43 28	 mov	 eax, DWORD PTR [ebx+40]
  00030	85 c0		 test	 eax, eax
  00032	74 0d		 je	 SHORT $LN55@tls_mgr
; File E:\Proyectos\JuegosOnlineproyectos\PB\pbblow\Piercing Blow Remake\i3Server\include\i3Base\memory\memory_aligned_apply.h

; 33   : 		ptr = ( ptr & ~( sizeof(void*) -1 ) ) - sizeof(void*);

  00034	83 e0 fc	 and	 eax, -4			; fffffffcH
; File E:\Proyectos\JuegosOnlineproyectos\PB\pbblow\Piercing Blow Remake\i3Server\include\i3Base\memory\memory_alloc.inl

; 109  : 		::HeapFree(HANDLE(h), 0, get_raw_data_from_aligned_malloc(data) );

  00037	ff 70 fc	 push	 DWORD PTR [eax-4]
  0003a	6a 00		 push	 0
  0003c	ff 73 24	 push	 DWORD PTR [ebx+36]
  0003f	ff d6		 call	 esi
$LN55@tls_mgr:
; File E:\Proyectos\JuegosOnlineproyectos\PB\pbblow\Piercing Blow Remake\i3Server\include\i3Base\itl\detail\vector.h

; 68   : 			if (m_first != 0)

  00041	8b 43 18	 mov	 eax, DWORD PTR [ebx+24]
  00044	85 c0		 test	 eax, eax
  00046	74 0d		 je	 SHORT $LN66@tls_mgr
; File E:\Proyectos\JuegosOnlineproyectos\PB\pbblow\Piercing Blow Remake\i3Server\include\i3Base\memory\memory_aligned_apply.h

; 33   : 		ptr = ( ptr & ~( sizeof(void*) -1 ) ) - sizeof(void*);

  00048	83 e0 fc	 and	 eax, -4			; fffffffcH
; File E:\Proyectos\JuegosOnlineproyectos\PB\pbblow\Piercing Blow Remake\i3Server\include\i3Base\memory\memory_alloc.inl

; 109  : 		::HeapFree(HANDLE(h), 0, get_raw_data_from_aligned_malloc(data) );

  0004b	ff 70 fc	 push	 DWORD PTR [eax-4]
  0004e	6a 00		 push	 0
  00050	ff 73 14	 push	 DWORD PTR [ebx+20]
  00053	ff d6		 call	 esi
$LN66@tls_mgr:
; File E:\Proyectos\JuegosOnlineproyectos\PB\pbblow\Piercing Blow Remake\i3Server\include\i3Base\itl\detail\vector.h

; 68   : 			if (m_first != 0)

  00055	8b 43 08	 mov	 eax, DWORD PTR [ebx+8]
  00058	85 c0		 test	 eax, eax
  0005a	74 0d		 je	 SHORT $LN77@tls_mgr
; File E:\Proyectos\JuegosOnlineproyectos\PB\pbblow\Piercing Blow Remake\i3Server\include\i3Base\memory\memory_aligned_apply.h

; 33   : 		ptr = ( ptr & ~( sizeof(void*) -1 ) ) - sizeof(void*);

  0005c	83 e0 fc	 and	 eax, -4			; fffffffcH
; File E:\Proyectos\JuegosOnlineproyectos\PB\pbblow\Piercing Blow Remake\i3Server\include\i3Base\memory\memory_alloc.inl

; 109  : 		::HeapFree(HANDLE(h), 0, get_raw_data_from_aligned_malloc(data) );

  0005f	ff 70 fc	 push	 DWORD PTR [eax-4]
  00062	6a 00		 push	 0
  00064	ff 73 04	 push	 DWORD PTR [ebx+4]
  00067	ff d6		 call	 esi
$LN77@tls_mgr:
  00069	5f		 pop	 edi
; File E:\Proyectos\JuegosOnlineproyectos\PB\pbblow\Piercing Blow Remake\i3Server\src\i3Base\tls\detail\tls_mgr.cpp

; 40   : 	}

  0006a	5e		 pop	 esi
  0006b	5b		 pop	 ebx
  0006c	8b e5		 mov	 esp, ebp
  0006e	5d		 pop	 ebp
  0006f	c3		 ret	 0
$LL87@tls_mgr:

; 29   : 		for ( size_t i = 0 ; i < num_slotlist ; ++i )

  00070	8b 0d 00 00 00
	00		 mov	 ecx, DWORD PTR __imp__HeapFree@12
$LN4@tls_mgr:

; 30   : 		{
; 31   : 			thread_data* data = m_usingSlotList[i];

  00076	8b 43 18	 mov	 eax, DWORD PTR [ebx+24]
  00079	8b 34 b8	 mov	 esi, DWORD PTR [eax+edi*4]

; 32   : 			heap_handle h = data->heapTls;

  0007c	8b 46 20	 mov	 eax, DWORD PTR [esi+32]
  0007f	89 45 fc	 mov	 DWORD PTR _h$1$[ebp], eax

; 33   : 			heap_handle sh = data->safe_heap;

  00082	8b 46 24	 mov	 eax, DWORD PTR [esi+36]
  00085	89 45 f8	 mov	 DWORD PTR _sh$1$[ebp], eax
; File E:\Proyectos\JuegosOnlineproyectos\PB\pbblow\Piercing Blow Remake\i3Server\include\i3Base\itl\detail\vector.h

; 68   : 			if (m_first != 0)

  00088	8b 46 14	 mov	 eax, DWORD PTR [esi+20]
  0008b	85 c0		 test	 eax, eax
  0008d	74 13		 je	 SHORT $LN26@tls_mgr
; File E:\Proyectos\JuegosOnlineproyectos\PB\pbblow\Piercing Blow Remake\i3Server\include\i3Base\memory\memory_aligned_apply.h

; 33   : 		ptr = ( ptr & ~( sizeof(void*) -1 ) ) - sizeof(void*);

  0008f	83 e0 fc	 and	 eax, -4			; fffffffcH
; File E:\Proyectos\JuegosOnlineproyectos\PB\pbblow\Piercing Blow Remake\i3Server\include\i3Base\memory\memory_alloc.inl

; 109  : 		::HeapFree(HANDLE(h), 0, get_raw_data_from_aligned_malloc(data) );

  00092	ff 70 fc	 push	 DWORD PTR [eax-4]
  00095	6a 00		 push	 0
  00097	ff 76 10	 push	 DWORD PTR [esi+16]
  0009a	ff d1		 call	 ecx
  0009c	8b 0d 00 00 00
	00		 mov	 ecx, DWORD PTR __imp__HeapFree@12
$LN26@tls_mgr:
; File E:\Proyectos\JuegosOnlineproyectos\PB\pbblow\Piercing Blow Remake\i3Server\include\i3Base\itl\detail\vector.h

; 68   : 			if (m_first != 0)

  000a2	8b 46 04	 mov	 eax, DWORD PTR [esi+4]
  000a5	85 c0		 test	 eax, eax
  000a7	74 0c		 je	 SHORT $LN37@tls_mgr
; File E:\Proyectos\JuegosOnlineproyectos\PB\pbblow\Piercing Blow Remake\i3Server\include\i3Base\memory\memory_aligned_apply.h

; 33   : 		ptr = ( ptr & ~( sizeof(void*) -1 ) ) - sizeof(void*);

  000a9	83 e0 fc	 and	 eax, -4			; fffffffcH
; File E:\Proyectos\JuegosOnlineproyectos\PB\pbblow\Piercing Blow Remake\i3Server\include\i3Base\memory\memory_alloc.inl

; 109  : 		::HeapFree(HANDLE(h), 0, get_raw_data_from_aligned_malloc(data) );

  000ac	ff 70 fc	 push	 DWORD PTR [eax-4]
  000af	6a 00		 push	 0
  000b1	ff 36		 push	 DWORD PTR [esi]
  000b3	ff d1		 call	 ecx
$LN37@tls_mgr:

; 94   : 		::HeapFree(HANDLE(h), 0, data);		// łÎ°Ë»çÁ¤ŔÇ°ˇ ľř´Ů..

  000b5	56		 push	 esi
  000b6	8b 35 00 00 00
	00		 mov	 esi, DWORD PTR __imp__HeapFree@12
  000bc	6a 00		 push	 0
  000be	ff 75 fc	 push	 DWORD PTR _h$1$[ebp]
  000c1	ff d6		 call	 esi

; 53   : 		::HeapDestroy( HANDLE(h));

  000c3	ff 75 f8	 push	 DWORD PTR _sh$1$[ebp]
  000c6	ff 15 00 00 00
	00		 call	 DWORD PTR __imp__HeapDestroy@4
  000cc	ff 75 fc	 push	 DWORD PTR _h$1$[ebp]
  000cf	ff 15 00 00 00
	00		 call	 DWORD PTR __imp__HeapDestroy@4
; File E:\Proyectos\JuegosOnlineproyectos\PB\pbblow\Piercing Blow Remake\i3Server\src\i3Base\tls\detail\tls_mgr.cpp

; 29   : 		for ( size_t i = 0 ; i < num_slotlist ; ++i )

  000d5	47		 inc	 edi
  000d6	3b 7d f4	 cmp	 edi, DWORD PTR _num_slotlist$1$[ebp]
  000d9	72 95		 jb	 SHORT $LL87@tls_mgr
  000db	e9 45 ff ff ff	 jmp	 $LN3@tls_mgr
??1tls_mgr@detail_tls@i3@@QAE@XZ ENDP			; i3::detail_tls::tls_mgr::~tls_mgr
_TEXT	ENDS
; Function compile flags: /Ogtp
; File E:\Proyectos\JuegosOnlineproyectos\PB\pbblow\Piercing Blow Remake\i3Server\src\i3Base\tls\detail\tls_mgr.cpp
; File E:\Proyectos\JuegosOnlineproyectos\PB\pbblow\Piercing Blow Remake\i3Server\include\i3Base\memory\memory_alloc.inl
; File E:\Proyectos\JuegosOnlineproyectos\PB\pbblow\Piercing Blow Remake\i3Server\src\i3Base\tls\detail\tls_mgr.cpp
; File E:\Proyectos\JuegosOnlineproyectos\PB\pbblow\Piercing Blow Remake\i3Server\include\i3Base\memory\memory_alloc.inl
; File E:\Proyectos\JuegosOnlineproyectos\PB\pbblow\Piercing Blow Remake\i3Server\include\i3Base\memory\heap_allocator.h
; File E:\Proyectos\JuegosOnlineproyectos\PB\pbblow\Piercing Blow Remake\i3Server\include\i3Base\itl\detail\vector.h
; File E:\Proyectos\JuegosOnlineproyectos\PB\pbblow\Piercing Blow Remake\i3Server\include\i3Base\memory\memory_alloc.inl
; File E:\Proyectos\JuegosOnlineproyectos\PB\pbblow\Piercing Blow Remake\i3Server\include\i3Base\memory\heap_allocator.h
; File E:\Proyectos\JuegosOnlineproyectos\PB\pbblow\Piercing Blow Remake\i3Server\include\i3Base\itl\detail\vector.h
; File E:\Proyectos\JuegosOnlineproyectos\PB\pbblow\Piercing Blow Remake\i3Server\include\i3Base\memory\memory_alloc.inl
; File E:\Proyectos\JuegosOnlineproyectos\PB\pbblow\Piercing Blow Remake\i3Server\include\i3Base\memory\heap_allocator.h
; File E:\Proyectos\JuegosOnlineproyectos\PB\pbblow\Piercing Blow Remake\i3Server\src\i3Base\tls\detail\tls_mgr.cpp
; File E:\Proyectos\JuegosOnlineproyectos\PB\pbblow\Piercing Blow Remake\i3Server\include\i3Base\itl\detail\vector.h
; File E:\Proyectos\JuegosOnlineproyectos\PB\pbblow\Piercing Blow Remake\i3Server\src\i3Base\tls\detail\tls_mgr.cpp
;	COMDAT ??0tls_mgr@detail_tls@i3@@QAE@XZ
_TEXT	SEGMENT
_this$ = -4						; size = 4
??0tls_mgr@detail_tls@i3@@QAE@XZ PROC			; i3::detail_tls::tls_mgr::tls_mgr, COMDAT
; _this$ = ecx

; 19   : 	{

  00000	55		 push	 ebp
  00001	8b ec		 mov	 ebp, esp
  00003	51		 push	 ecx
  00004	56		 push	 esi
; File E:\Proyectos\JuegosOnlineproyectos\PB\pbblow\Piercing Blow Remake\i3Server\include\i3Base\memory\memory_alloc.inl

; 61   : 		return heap_handle(::GetProcessHeap());

  00005	8b 35 00 00 00
	00		 mov	 esi, DWORD PTR __imp__GetProcessHeap@0
; File E:\Proyectos\JuegosOnlineproyectos\PB\pbblow\Piercing Blow Remake\i3Server\src\i3Base\tls\detail\tls_mgr.cpp

; 19   : 	{

  0000b	57		 push	 edi
  0000c	8b f9		 mov	 edi, ecx
  0000e	89 7d fc	 mov	 DWORD PTR _this$[ebp], edi

; 16   : 	tls_mgr::tls_mgr() : m_dwTlsIdx(0), m_TlsBaseList( heap_allocator<tls_base*>( i3::get_process_heap() ) ), 

  00011	c7 07 00 00 00
	00		 mov	 DWORD PTR [edi], 0
; File E:\Proyectos\JuegosOnlineproyectos\PB\pbblow\Piercing Blow Remake\i3Server\include\i3Base\memory\memory_alloc.inl

; 61   : 		return heap_handle(::GetProcessHeap());

  00017	ff d6		 call	 esi
; File E:\Proyectos\JuegosOnlineproyectos\PB\pbblow\Piercing Blow Remake\i3Server\include\i3Base\memory\heap_allocator.h

; 22   : 		heap_allocator(const heap_allocator<T>& rhs) : m_heap(rhs.m_heap) {}

  00019	89 47 04	 mov	 DWORD PTR [edi+4], eax
; File E:\Proyectos\JuegosOnlineproyectos\PB\pbblow\Piercing Blow Remake\i3Server\include\i3Base\itl\detail\vector.h

; 43   : 		explicit vector(const allocator_type& al) : allocator_base(al), m_first(NULL), m_last(NULL), m_end(NULL) {} 

  0001c	c7 47 08 00 00
	00 00		 mov	 DWORD PTR [edi+8], 0
  00023	c7 47 0c 00 00
	00 00		 mov	 DWORD PTR [edi+12], 0
  0002a	c7 47 10 00 00
	00 00		 mov	 DWORD PTR [edi+16], 0
; File E:\Proyectos\JuegosOnlineproyectos\PB\pbblow\Piercing Blow Remake\i3Server\include\i3Base\memory\memory_alloc.inl

; 61   : 		return heap_handle(::GetProcessHeap());

  00031	ff d6		 call	 esi
; File E:\Proyectos\JuegosOnlineproyectos\PB\pbblow\Piercing Blow Remake\i3Server\include\i3Base\memory\heap_allocator.h

; 22   : 		heap_allocator(const heap_allocator<T>& rhs) : m_heap(rhs.m_heap) {}

  00033	89 47 14	 mov	 DWORD PTR [edi+20], eax
; File E:\Proyectos\JuegosOnlineproyectos\PB\pbblow\Piercing Blow Remake\i3Server\include\i3Base\itl\detail\vector.h

; 43   : 		explicit vector(const allocator_type& al) : allocator_base(al), m_first(NULL), m_last(NULL), m_end(NULL) {} 

  00036	c7 47 18 00 00
	00 00		 mov	 DWORD PTR [edi+24], 0
  0003d	c7 47 1c 00 00
	00 00		 mov	 DWORD PTR [edi+28], 0
  00044	c7 47 20 00 00
	00 00		 mov	 DWORD PTR [edi+32], 0
; File E:\Proyectos\JuegosOnlineproyectos\PB\pbblow\Piercing Blow Remake\i3Server\include\i3Base\memory\memory_alloc.inl

; 61   : 		return heap_handle(::GetProcessHeap());

  0004b	ff d6		 call	 esi
; File E:\Proyectos\JuegosOnlineproyectos\PB\pbblow\Piercing Blow Remake\i3Server\include\i3Base\memory\heap_allocator.h

; 22   : 		heap_allocator(const heap_allocator<T>& rhs) : m_heap(rhs.m_heap) {}

  0004d	89 47 24	 mov	 DWORD PTR [edi+36], eax
; File E:\Proyectos\JuegosOnlineproyectos\PB\pbblow\Piercing Blow Remake\i3Server\src\i3Base\tls\detail\tls_mgr.cpp

; 21   : 	}

  00050	8b c7		 mov	 eax, edi
; File E:\Proyectos\JuegosOnlineproyectos\PB\pbblow\Piercing Blow Remake\i3Server\include\i3Base\itl\detail\vector.h

; 43   : 		explicit vector(const allocator_type& al) : allocator_base(al), m_first(NULL), m_last(NULL), m_end(NULL) {} 

  00052	c7 47 28 00 00
	00 00		 mov	 DWORD PTR [edi+40], 0
  00059	c7 47 2c 00 00
	00 00		 mov	 DWORD PTR [edi+44], 0
  00060	c7 47 30 00 00
	00 00		 mov	 DWORD PTR [edi+48], 0
; File E:\Proyectos\JuegosOnlineproyectos\PB\pbblow\Piercing Blow Remake\i3Server\src\i3Base\tls\detail\tls_mgr.cpp

; 21   : 	}

  00067	5f		 pop	 edi
  00068	5e		 pop	 esi
  00069	8b e5		 mov	 esp, ebp
  0006b	5d		 pop	 ebp
  0006c	c3		 ret	 0
??0tls_mgr@detail_tls@i3@@QAE@XZ ENDP			; i3::detail_tls::tls_mgr::tls_mgr
_TEXT	ENDS
; Function compile flags: /Ogtp
; File E:\Proyectos\JuegosOnlineproyectos\PB\pbblow\Piercing Blow Remake\i3Server\include\i3Base\itl\noncopyable.h
;	COMDAT ??1noncopyable@i3@@IAE@XZ
_TEXT	SEGMENT
??1noncopyable@i3@@IAE@XZ PROC				; i3::noncopyable::~noncopyable, COMDAT
; _this$ = ecx

; 15   : 		~noncopyable() {}

  00000	c2 00 00	 ret	 0
??1noncopyable@i3@@IAE@XZ ENDP				; i3::noncopyable::~noncopyable
_TEXT	ENDS
; Function compile flags: /Ogtp
; File E:\Proyectos\JuegosOnlineproyectos\PB\pbblow\Piercing Blow Remake\i3Server\include\i3Base\itl\noncopyable.h
;	COMDAT ??0noncopyable@i3@@IAE@XZ
_TEXT	SEGMENT
??0noncopyable@i3@@IAE@XZ PROC				; i3::noncopyable::noncopyable, COMDAT
; _this$ = ecx

; 14   : 		noncopyable() {}

  00000	8b c1		 mov	 eax, ecx
  00002	c3		 ret	 0
??0noncopyable@i3@@IAE@XZ ENDP				; i3::noncopyable::noncopyable
_TEXT	ENDS
END
